; Listing generated by Microsoft (R) Optimizing Compiler Version 16.00.30319.01 

	TITLE	D:\Lost Saga For Developer\Youtube\Tutorial\Source\src\LSClient\GUI\GameOptionSettingTab.cpp
	.686P
	.XMM
	include listing.inc
	.model	flat

INCLUDELIB MSVCRT
INCLUDELIB OLDNAMES

PUBLIC	?_EEM_DS@?$deque@UD3DXVECTOR3@@V?$allocator@UD3DXVECTOR3@@@std@@@std@@2HB ; std::deque<D3DXVECTOR3,std::allocator<D3DXVECTOR3> >::_EEM_DS
;	COMDAT ?_EEM_DS@?$deque@UD3DXVECTOR3@@V?$allocator@UD3DXVECTOR3@@@std@@@std@@2HB
CONST	SEGMENT
?_EEM_DS@?$deque@UD3DXVECTOR3@@V?$allocator@UD3DXVECTOR3@@@std@@@std@@2HB DD 01H ; std::deque<D3DXVECTOR3,std::allocator<D3DXVECTOR3> >::_EEM_DS
CONST	ENDS
PUBLIC	?return5@@YAIXZ					; return5
; Function compile flags: /Ogsp
; File d:\lost saga for developer\youtube\tutorial\source\src\lsclient\stdafx.h
;	COMDAT ?return5@@YAIXZ
_TEXT	SEGMENT
?return5@@YAIXZ PROC					; return5, COMDAT

; 18   : 	__forceinline unsigned int return5() { __asm mov eax, 5 };

  00000	b8 05 00 00 00	 mov	 eax, 5
  00005	c3		 ret	 0
?return5@@YAIXZ ENDP					; return5
_TEXT	ENDS
PUBLIC	?return10@@YAIXZ				; return10
; Function compile flags: /Ogsp
;	COMDAT ?return10@@YAIXZ
_TEXT	SEGMENT
?return10@@YAIXZ PROC					; return10, COMDAT

; 21   : 	__forceinline unsigned int return10() { __asm mov eax, 10 };

  00000	b8 0a 00 00 00	 mov	 eax, 10			; 0000000aH
  00005	c3		 ret	 0
?return10@@YAIXZ ENDP					; return10
_TEXT	ENDS
PUBLIC	??_R0?AVioGameStage@@@8				; ioGameStage `RTTI Type Descriptor'
PUBLIC	??_R0?AVioPlayStage@@@8				; ioPlayStage `RTTI Type Descriptor'
PUBLIC	?ToPlayStage@@YAPAVioPlayStage@@PAVioGameStage@@@Z ; ToPlayStage
EXTRN	___RTDynamicCast:PROC
EXTRN	??_7type_info@@6B@:QWORD			; type_info::`vftable'
;	COMDAT ??_R0?AVioGameStage@@@8
; File d:\lost saga for developer\youtube\tutorial\source\src\lsclient\ioplaystage.h
_DATA	SEGMENT
??_R0?AVioGameStage@@@8 DD FLAT:??_7type_info@@6B@	; ioGameStage `RTTI Type Descriptor'
	DD	00H
	DB	'.?AVioGameStage@@', 00H
_DATA	ENDS
;	COMDAT ??_R0?AVioPlayStage@@@8
_DATA	SEGMENT
??_R0?AVioPlayStage@@@8 DD FLAT:??_7type_info@@6B@	; ioPlayStage `RTTI Type Descriptor'
	DD	00H
	DB	'.?AVioPlayStage@@', 00H
; Function compile flags: /Ogsp
_DATA	ENDS
;	COMDAT ?ToPlayStage@@YAPAVioPlayStage@@PAVioGameStage@@@Z
_TEXT	SEGMENT
_pStage$ = 8						; size = 4
?ToPlayStage@@YAPAVioPlayStage@@PAVioGameStage@@@Z PROC	; ToPlayStage, COMDAT

; 1762 : {

  00000	55		 push	 ebp
  00001	8b ec		 mov	 ebp, esp
  00003	56		 push	 esi

; 1763 : 	if( !pStage || pStage->GetTypeID() != ioGameStage::GS_PLAY )

  00004	8b 75 08	 mov	 esi, DWORD PTR _pStage$[ebp]
  00007	85 f6		 test	 esi, esi
  00009	74 25		 je	 SHORT $LN1@ToPlayStag
  0000b	8b 06		 mov	 eax, DWORD PTR [esi]
  0000d	8b ce		 mov	 ecx, esi
  0000f	ff 50 18	 call	 DWORD PTR [eax+24]
  00012	83 f8 04	 cmp	 eax, 4
  00015	75 19		 jne	 SHORT $LN1@ToPlayStag

; 1765 : 
; 1766 : 	return dynamic_cast< ioPlayStage* >( pStage );

  00017	6a 00		 push	 0
  00019	68 00 00 00 00	 push	 OFFSET ??_R0?AVioPlayStage@@@8
  0001e	68 00 00 00 00	 push	 OFFSET ??_R0?AVioGameStage@@@8
  00023	6a 00		 push	 0
  00025	56		 push	 esi
  00026	e8 00 00 00 00	 call	 ___RTDynamicCast
  0002b	83 c4 14	 add	 esp, 20			; 00000014H
  0002e	eb 02		 jmp	 SHORT $LN3@ToPlayStag
$LN1@ToPlayStag:

; 1764 : 		return NULL;

  00030	33 c0		 xor	 eax, eax
$LN3@ToPlayStag:
  00032	5e		 pop	 esi

; 1767 : }

  00033	5d		 pop	 ebp
  00034	c3		 ret	 0
?ToPlayStage@@YAPAVioPlayStage@@PAVioGameStage@@@Z ENDP	; ToPlayStage
_TEXT	ENDS
PUBLIC	??_7bad_alloc@std@@6B@				; std::bad_alloc::`vftable'
PUBLIC	??0bad_alloc@std@@QAE@PBD@Z			; std::bad_alloc::bad_alloc
PUBLIC	??_R4bad_alloc@std@@6B@				; std::bad_alloc::`RTTI Complete Object Locator'
PUBLIC	??_R0?AVbad_alloc@std@@@8			; std::bad_alloc `RTTI Type Descriptor'
PUBLIC	??_R3bad_alloc@std@@8				; std::bad_alloc::`RTTI Class Hierarchy Descriptor'
PUBLIC	??_R2bad_alloc@std@@8				; std::bad_alloc::`RTTI Base Class Array'
PUBLIC	??_R1A@?0A@EA@bad_alloc@std@@8			; std::bad_alloc::`RTTI Base Class Descriptor at (0,-1,0,64)'
PUBLIC	??_R1A@?0A@EA@exception@std@@8			; std::exception::`RTTI Base Class Descriptor at (0,-1,0,64)'
PUBLIC	??_R0?AVexception@std@@@8			; std::exception `RTTI Type Descriptor'
PUBLIC	??_R3exception@std@@8				; std::exception::`RTTI Class Hierarchy Descriptor'
PUBLIC	??_R2exception@std@@8				; std::exception::`RTTI Base Class Array'
EXTRN	__imp_??0exception@std@@QAE@ABQBD@Z:PROC
EXTRN	??_Ebad_alloc@std@@UAEPAXI@Z:PROC		; std::bad_alloc::`vector deleting destructor'
EXTRN	?what@exception@std@@UBEPBDXZ:PROC		; std::exception::what
;	COMDAT ??_R2exception@std@@8
; File c:\program files (x86)\microsoft visual studio 10.0\vc\include\exception
rdata$r	SEGMENT
??_R2exception@std@@8 DD FLAT:??_R1A@?0A@EA@exception@std@@8 ; std::exception::`RTTI Base Class Array'
rdata$r	ENDS
;	COMDAT ??_R3exception@std@@8
rdata$r	SEGMENT
??_R3exception@std@@8 DD 00H				; std::exception::`RTTI Class Hierarchy Descriptor'
	DD	00H
	DD	01H
	DD	FLAT:??_R2exception@std@@8
rdata$r	ENDS
;	COMDAT ??_R0?AVexception@std@@@8
_DATA	SEGMENT
??_R0?AVexception@std@@@8 DD FLAT:??_7type_info@@6B@	; std::exception `RTTI Type Descriptor'
	DD	00H
	DB	'.?AVexception@std@@', 00H
_DATA	ENDS
;	COMDAT ??_R1A@?0A@EA@exception@std@@8
rdata$r	SEGMENT
??_R1A@?0A@EA@exception@std@@8 DD FLAT:??_R0?AVexception@std@@@8 ; std::exception::`RTTI Base Class Descriptor at (0,-1,0,64)'
	DD	00H
	DD	00H
	DD	0ffffffffH
	DD	00H
	DD	040H
	DD	FLAT:??_R3exception@std@@8
rdata$r	ENDS
;	COMDAT ??_R1A@?0A@EA@bad_alloc@std@@8
rdata$r	SEGMENT
??_R1A@?0A@EA@bad_alloc@std@@8 DD FLAT:??_R0?AVbad_alloc@std@@@8 ; std::bad_alloc::`RTTI Base Class Descriptor at (0,-1,0,64)'
	DD	01H
	DD	00H
	DD	0ffffffffH
	DD	00H
	DD	040H
	DD	FLAT:??_R3bad_alloc@std@@8
rdata$r	ENDS
;	COMDAT ??_R2bad_alloc@std@@8
rdata$r	SEGMENT
??_R2bad_alloc@std@@8 DD FLAT:??_R1A@?0A@EA@bad_alloc@std@@8 ; std::bad_alloc::`RTTI Base Class Array'
	DD	FLAT:??_R1A@?0A@EA@exception@std@@8
rdata$r	ENDS
;	COMDAT ??_R3bad_alloc@std@@8
rdata$r	SEGMENT
??_R3bad_alloc@std@@8 DD 00H				; std::bad_alloc::`RTTI Class Hierarchy Descriptor'
	DD	00H
	DD	02H
	DD	FLAT:??_R2bad_alloc@std@@8
rdata$r	ENDS
;	COMDAT ??_R0?AVbad_alloc@std@@@8
_DATA	SEGMENT
??_R0?AVbad_alloc@std@@@8 DD FLAT:??_7type_info@@6B@	; std::bad_alloc `RTTI Type Descriptor'
	DD	00H
	DB	'.?AVbad_alloc@std@@', 00H
_DATA	ENDS
;	COMDAT ??_R4bad_alloc@std@@6B@
rdata$r	SEGMENT
??_R4bad_alloc@std@@6B@ DD 00H				; std::bad_alloc::`RTTI Complete Object Locator'
	DD	00H
	DD	00H
	DD	FLAT:??_R0?AVbad_alloc@std@@@8
	DD	FLAT:??_R3bad_alloc@std@@8
rdata$r	ENDS
;	COMDAT ??_7bad_alloc@std@@6B@
CONST	SEGMENT
??_7bad_alloc@std@@6B@ DD FLAT:??_R4bad_alloc@std@@6B@	; std::bad_alloc::`vftable'
	DD	FLAT:??_Ebad_alloc@std@@UAEPAXI@Z
	DD	FLAT:?what@exception@std@@UBEPBDXZ
; Function compile flags: /Ogsp
CONST	ENDS
;	COMDAT ??0bad_alloc@std@@QAE@PBD@Z
_TEXT	SEGMENT
__Message$ = 8						; size = 4
??0bad_alloc@std@@QAE@PBD@Z PROC			; std::bad_alloc::bad_alloc, COMDAT
; _this$ = ecx

; 345  : 		{	// construct from message string

  00000	55		 push	 ebp
  00001	8b ec		 mov	 ebp, esp
  00003	56		 push	 esi
  00004	8d 45 08	 lea	 eax, DWORD PTR __Message$[ebp]
  00007	50		 push	 eax
  00008	8b f1		 mov	 esi, ecx
  0000a	ff 15 00 00 00
	00		 call	 DWORD PTR __imp_??0exception@std@@QAE@ABQBD@Z
  00010	c7 06 00 00 00
	00		 mov	 DWORD PTR [esi], OFFSET ??_7bad_alloc@std@@6B@

; 346  : 		}

  00016	8b c6		 mov	 eax, esi
  00018	5e		 pop	 esi
  00019	5d		 pop	 ebp
  0001a	c2 04 00	 ret	 4
??0bad_alloc@std@@QAE@PBD@Z ENDP			; std::bad_alloc::bad_alloc
_TEXT	ENDS
PUBLIC	??1bad_alloc@std@@UAE@XZ			; std::bad_alloc::~bad_alloc
EXTRN	__imp_??1exception@std@@UAE@XZ:PROC
; Function compile flags: /Ogsp
;	COMDAT ??1bad_alloc@std@@UAE@XZ
_TEXT	SEGMENT
??1bad_alloc@std@@UAE@XZ PROC				; std::bad_alloc::~bad_alloc, COMDAT
; _this$ = ecx

; 354  : 		{	// destroy the object

  00000	c7 01 00 00 00
	00		 mov	 DWORD PTR [ecx], OFFSET ??_7bad_alloc@std@@6B@

; 355  : 		}

  00006	ff 25 00 00 00
	00		 jmp	 DWORD PTR __imp_??1exception@std@@UAE@XZ
??1bad_alloc@std@@UAE@XZ ENDP				; std::bad_alloc::~bad_alloc
_TEXT	ENDS
EXTRN	??3@YAXPAX@Z:PROC				; operator delete
; Function compile flags: /Ogsp
;	COMDAT ??_Gbad_alloc@std@@UAEPAXI@Z
_TEXT	SEGMENT
___flags$ = 8						; size = 4
??_Gbad_alloc@std@@UAEPAXI@Z PROC			; std::bad_alloc::`scalar deleting destructor', COMDAT
; _this$ = ecx
  00000	55		 push	 ebp
  00001	8b ec		 mov	 ebp, esp
  00003	56		 push	 esi
  00004	8b f1		 mov	 esi, ecx
  00006	c7 06 00 00 00
	00		 mov	 DWORD PTR [esi], OFFSET ??_7bad_alloc@std@@6B@
  0000c	ff 15 00 00 00
	00		 call	 DWORD PTR __imp_??1exception@std@@UAE@XZ
  00012	f6 45 08 01	 test	 BYTE PTR ___flags$[ebp], 1
  00016	74 07		 je	 SHORT $LN1@scalar
  00018	56		 push	 esi
  00019	e8 00 00 00 00	 call	 ??3@YAXPAX@Z		; operator delete
  0001e	59		 pop	 ecx
$LN1@scalar:
  0001f	8b c6		 mov	 eax, esi
  00021	5e		 pop	 esi
  00022	5d		 pop	 ebp
  00023	c2 04 00	 ret	 4
??_Gbad_alloc@std@@UAEPAXI@Z ENDP			; std::bad_alloc::`scalar deleting destructor'
_TEXT	ENDS
PUBLIC	??2@YAPAXIPAX@Z					; operator new
; Function compile flags: /Ogsp
; File c:\program files (x86)\microsoft visual studio 10.0\vc\include\new
;	COMDAT ??2@YAPAXIPAX@Z
_TEXT	SEGMENT
___formal$ = 8						; size = 4
__Where$ = 12						; size = 4
??2@YAPAXIPAX@Z PROC					; operator new, COMDAT

; 56   : 	{	// construct array with placement at _Where

  00000	55		 push	 ebp
  00001	8b ec		 mov	 ebp, esp

; 57   : 	return (_Where);

  00003	8b 45 0c	 mov	 eax, DWORD PTR __Where$[ebp]

; 58   : 	}

  00006	5d		 pop	 ebp
  00007	c3		 ret	 0
??2@YAPAXIPAX@Z ENDP					; operator new
_TEXT	ENDS
PUBLIC	??3@YAXPAX0@Z					; operator delete
; Function compile flags: /Ogsp
;	COMDAT ??3@YAXPAX0@Z
_TEXT	SEGMENT
___formal$ = 8						; size = 4
___formal$ = 12						; size = 4
??3@YAXPAX0@Z PROC					; operator delete, COMDAT

; 62   : 	}

  00000	c3		 ret	 0
??3@YAXPAX0@Z ENDP					; operator delete
_TEXT	ENDS
PUBLIC	?length@?$char_traits@D@std@@SAIPBD@Z		; std::char_traits<char>::length
; Function compile flags: /Ogsp
; File c:\program files (x86)\microsoft visual studio 10.0\vc\include\iosfwd
;	COMDAT ?length@?$char_traits@D@std@@SAIPBD@Z
_TEXT	SEGMENT
__First$ = 8						; size = 4
?length@?$char_traits@D@std@@SAIPBD@Z PROC		; std::char_traits<char>::length, COMDAT

; 490  : 		{	// find length of null-terminated string

  00000	55		 push	 ebp
  00001	8b ec		 mov	 ebp, esp

; 491  : 		return (_CSTD strlen(_First));

  00003	8b 45 08	 mov	 eax, DWORD PTR __First$[ebp]
  00006	8d 50 01	 lea	 edx, DWORD PTR [eax+1]
$LL3@length:
  00009	8a 08		 mov	 cl, BYTE PTR [eax]
  0000b	40		 inc	 eax
  0000c	84 c9		 test	 cl, cl
  0000e	75 f9		 jne	 SHORT $LL3@length
  00010	2b c2		 sub	 eax, edx

; 492  : 		}

  00012	5d		 pop	 ebp
  00013	c3		 ret	 0
?length@?$char_traits@D@std@@SAIPBD@Z ENDP		; std::char_traits<char>::length
_TEXT	ENDS
PUBLIC	?copy@?$char_traits@D@std@@SAPADPADPBDI@Z	; std::char_traits<char>::copy
EXTRN	_memcpy:PROC
; Function compile flags: /Ogsp
;	COMDAT ?copy@?$char_traits@D@std@@SAPADPADPBDI@Z
_TEXT	SEGMENT
__First1$ = 8						; size = 4
__First2$ = 12						; size = 4
__Count$ = 16						; size = 4
?copy@?$char_traits@D@std@@SAPADPADPBDI@Z PROC		; std::char_traits<char>::copy, COMDAT

; 496  : 		{	// copy [_First1, _First1 + _Count) to [_First2, ...)

  00000	55		 push	 ebp
  00001	8b ec		 mov	 ebp, esp

; 498  : 		}

  00003	5d		 pop	 ebp

; 497  : 		return ((_Elem *)_CSTD memcpy(_First1, _First2, _Count));

  00004	e9 00 00 00 00	 jmp	 _memcpy
?copy@?$char_traits@D@std@@SAPADPADPBDI@Z ENDP		; std::char_traits<char>::copy
_TEXT	ENDS
PUBLIC	?move@?$char_traits@D@std@@SAPADPADPBDI@Z	; std::char_traits<char>::move
EXTRN	__imp__memmove:PROC
; Function compile flags: /Ogsp
;	COMDAT ?move@?$char_traits@D@std@@SAPADPADPBDI@Z
_TEXT	SEGMENT
__First1$ = 8						; size = 4
__First2$ = 12						; size = 4
__Count$ = 16						; size = 4
?move@?$char_traits@D@std@@SAPADPADPBDI@Z PROC		; std::char_traits<char>::move, COMDAT

; 516  : 		{	// copy [_First1, _First1 + _Count) to [_First2, ...)

  00000	55		 push	 ebp
  00001	8b ec		 mov	 ebp, esp

; 518  : 		}

  00003	5d		 pop	 ebp

; 517  : 		return ((_Elem *)_CSTD memmove(_First1, _First2, _Count));

  00004	ff 25 00 00 00
	00		 jmp	 DWORD PTR __imp__memmove
?move@?$char_traits@D@std@@SAPADPADPBDI@Z ENDP		; std::char_traits<char>::move
_TEXT	ENDS
PUBLIC	?assign@?$char_traits@D@std@@SAXAADABD@Z	; std::char_traits<char>::assign
; Function compile flags: /Ogsp
;	COMDAT ?assign@?$char_traits@D@std@@SAXAADABD@Z
_TEXT	SEGMENT
__Left$ = 8						; size = 4
__Right$ = 12						; size = 4
?assign@?$char_traits@D@std@@SAXAADABD@Z PROC		; std::char_traits<char>::assign, COMDAT

; 526  : 		{	// assign an element

  00000	55		 push	 ebp
  00001	8b ec		 mov	 ebp, esp

; 527  : 		_Left = _Right;

  00003	8b 45 0c	 mov	 eax, DWORD PTR __Right$[ebp]
  00006	8a 00		 mov	 al, BYTE PTR [eax]
  00008	8b 4d 08	 mov	 ecx, DWORD PTR __Left$[ebp]
  0000b	88 01		 mov	 BYTE PTR [ecx], al

; 528  : 		}

  0000d	5d		 pop	 ebp
  0000e	c3		 ret	 0
?assign@?$char_traits@D@std@@SAXAADABD@Z ENDP		; std::char_traits<char>::assign
_TEXT	ENDS
PUBLIC	?_Adopt@_Iterator_base0@std@@QAEXPBX@Z		; std::_Iterator_base0::_Adopt
; Function compile flags: /Ogsp
; File c:\program files (x86)\microsoft visual studio 10.0\vc\include\xutility
;	COMDAT ?_Adopt@_Iterator_base0@std@@QAEXPBX@Z
_TEXT	SEGMENT
___formal$ = 8						; size = 4
?_Adopt@_Iterator_base0@std@@QAEXPBX@Z PROC		; std::_Iterator_base0::_Adopt, COMDAT
; _this$ = ecx

; 49   : 		}

  00000	c2 04 00	 ret	 4
?_Adopt@_Iterator_base0@std@@QAEXPBX@Z ENDP		; std::_Iterator_base0::_Adopt
_TEXT	ENDS
PUBLIC	?SetKeyText@SettingMacroItemBtn@@QAEXPBD@Z	; SettingMacroItemBtn::SetKeyText
EXTRN	__imp_??4ioHashString@@QAEAAV0@PBD@Z:PROC
; Function compile flags: /Ogsp
; File d:\lost saga for developer\youtube\tutorial\source\src\lsclient\gui\gameoptionsettingtab.h
;	COMDAT ?SetKeyText@SettingMacroItemBtn@@QAEXPBD@Z
_TEXT	SEGMENT
_szKeyText$ = 8						; size = 4
?SetKeyText@SettingMacroItemBtn@@QAEXPBD@Z PROC		; SettingMacroItemBtn::SetKeyText, COMDAT
; _this$ = ecx

; 356  : 	void SetKeyText( const char *szKeyText ){ m_szKeyText = szKeyText; }

  00000	55		 push	 ebp
  00001	8b ec		 mov	 ebp, esp
  00003	81 c1 fc 01 00
	00		 add	 ecx, 508		; 000001fcH
  00009	5d		 pop	 ebp
  0000a	ff 25 00 00 00
	00		 jmp	 DWORD PTR __imp_??4ioHashString@@QAEAAV0@PBD@Z
?SetKeyText@SettingMacroItemBtn@@QAEXPBD@Z ENDP		; SettingMacroItemBtn::SetKeyText
_TEXT	ENDS
PUBLIC	?SetCurKeyTitle@GameOptionSettingKeyInput@@QAEXABVioHashString@@@Z ; GameOptionSettingKeyInput::SetCurKeyTitle
EXTRN	__imp_??4ioHashString@@QAEAAV0@ABV0@@Z:PROC
; Function compile flags: /Ogsp
; File d:\lost saga for developer\youtube\tutorial\source\src\lsclient\gui\gameoptionsettingkeyinput.h
;	COMDAT ?SetCurKeyTitle@GameOptionSettingKeyInput@@QAEXABVioHashString@@@Z
_TEXT	SEGMENT
_rsCurKeyTitle$ = 8					; size = 4
?SetCurKeyTitle@GameOptionSettingKeyInput@@QAEXABVioHashString@@@Z PROC ; GameOptionSettingKeyInput::SetCurKeyTitle, COMDAT
; _this$ = ecx

; 40   : 	void SetCurKeyTitle( const ioHashString &rsCurKeyTitle) { m_sCurKeyTitle = rsCurKeyTitle; }

  00000	55		 push	 ebp
  00001	8b ec		 mov	 ebp, esp
  00003	81 c1 64 01 00
	00		 add	 ecx, 356		; 00000164H
  00009	5d		 pop	 ebp
  0000a	ff 25 00 00 00
	00		 jmp	 DWORD PTR __imp_??4ioHashString@@QAEAAV0@ABV0@@Z
?SetCurKeyTitle@GameOptionSettingKeyInput@@QAEXABVioHashString@@@Z ENDP ; GameOptionSettingKeyInput::SetCurKeyTitle
_TEXT	ENDS
PUBLIC	?SetExistKeyTitle@GameOptionSettingKeyInput@@QAEXABVioHashString@@@Z ; GameOptionSettingKeyInput::SetExistKeyTitle
; Function compile flags: /Ogsp
;	COMDAT ?SetExistKeyTitle@GameOptionSettingKeyInput@@QAEXABVioHashString@@@Z
_TEXT	SEGMENT
_rsExistKeyTitle$ = 8					; size = 4
?SetExistKeyTitle@GameOptionSettingKeyInput@@QAEXABVioHashString@@@Z PROC ; GameOptionSettingKeyInput::SetExistKeyTitle, COMDAT
; _this$ = ecx

; 41   : 	void SetExistKeyTitle(const ioHashString &rsExistKeyTitle) { m_sExistKeyTitle = rsExistKeyTitle; }

  00000	55		 push	 ebp
  00001	8b ec		 mov	 ebp, esp
  00003	81 c1 74 01 00
	00		 add	 ecx, 372		; 00000174H
  00009	5d		 pop	 ebp
  0000a	ff 25 00 00 00
	00		 jmp	 DWORD PTR __imp_??4ioHashString@@QAEAAV0@ABV0@@Z
?SetExistKeyTitle@GameOptionSettingKeyInput@@QAEXABVioHashString@@@Z ENDP ; GameOptionSettingKeyInput::SetExistKeyTitle
_TEXT	ENDS
PUBLIC	?SetReturnWnd@GameOptionSettingKeyInput@@QAEXPAVioWnd@@@Z ; GameOptionSettingKeyInput::SetReturnWnd
; Function compile flags: /Ogsp
;	COMDAT ?SetReturnWnd@GameOptionSettingKeyInput@@QAEXPAVioWnd@@@Z
_TEXT	SEGMENT
_pReturnWnd$ = 8					; size = 4
?SetReturnWnd@GameOptionSettingKeyInput@@QAEXPAVioWnd@@@Z PROC ; GameOptionSettingKeyInput::SetReturnWnd, COMDAT
; _this$ = ecx

; 42   : 	void SetReturnWnd(ioWnd *pReturnWnd) { m_pReturnWnd = pReturnWnd; }

  00000	55		 push	 ebp
  00001	8b ec		 mov	 ebp, esp
  00003	8b 45 08	 mov	 eax, DWORD PTR _pReturnWnd$[ebp]
  00006	89 81 88 01 00
	00		 mov	 DWORD PTR [ecx+392], eax
  0000c	5d		 pop	 ebp
  0000d	c2 04 00	 ret	 4
?SetReturnWnd@GameOptionSettingKeyInput@@QAEXPAVioWnd@@@Z ENDP ; GameOptionSettingKeyInput::SetReturnWnd
_TEXT	ENDS
PUBLIC	??_7SettingCustomSoundItemWnd@@6B@		; SettingCustomSoundItemWnd::`vftable'
PUBLIC	??0SettingCustomSoundItemWnd@@QAE@XZ		; SettingCustomSoundItemWnd::SettingCustomSoundItemWnd
PUBLIC	??_R4SettingCustomSoundItemWnd@@6B@		; SettingCustomSoundItemWnd::`RTTI Complete Object Locator'
PUBLIC	??_R0?AVSettingCustomSoundItemWnd@@@8		; SettingCustomSoundItemWnd `RTTI Type Descriptor'
PUBLIC	??_R3SettingCustomSoundItemWnd@@8		; SettingCustomSoundItemWnd::`RTTI Class Hierarchy Descriptor'
PUBLIC	??_R2SettingCustomSoundItemWnd@@8		; SettingCustomSoundItemWnd::`RTTI Base Class Array'
PUBLIC	??_R1A@?0A@EA@SettingCustomSoundItemWnd@@8	; SettingCustomSoundItemWnd::`RTTI Base Class Descriptor at (0,-1,0,64)'
PUBLIC	??_R1A@?0A@EA@ioWnd@@8				; ioWnd::`RTTI Base Class Descriptor at (0,-1,0,64)'
PUBLIC	??_R0?AVioWnd@@@8				; ioWnd `RTTI Type Descriptor'
PUBLIC	??_R3ioWnd@@8					; ioWnd::`RTTI Class Hierarchy Descriptor'
PUBLIC	??_R2ioWnd@@8					; ioWnd::`RTTI Base Class Array'
PUBLIC	?iwm_create@SettingCustomSoundItemWnd@@MAEXXZ	; SettingCustomSoundItemWnd::iwm_create
PUBLIC	?iwm_command@SettingCustomSoundItemWnd@@MAEXPAVioWnd@@HK@Z ; SettingCustomSoundItemWnd::iwm_command
PUBLIC	?iwm_show@SettingCustomSoundItemWnd@@MAEXXZ	; SettingCustomSoundItemWnd::iwm_show
PUBLIC	?iwm_hide@SettingCustomSoundItemWnd@@MAEXXZ	; SettingCustomSoundItemWnd::iwm_hide
EXTRN	__imp_??0ioWnd@@QAE@XZ:PROC
EXTRN	?AddRenderFrame@ioWnd@@UAEXABVioHashString@@PAVioUIRenderFrame@@@Z:PROC ; ioWnd::AddRenderFrame
EXTRN	?AddRenderImage@ioWnd@@UAEXABVioHashString@@PAVioUIRenderImage@@@Z:PROC ; ioWnd::AddRenderImage
EXTRN	?AddTooltipHelp@ioWnd@@UAEXABVioHashString@@00@Z:PROC ; ioWnd::AddTooltipHelp
EXTRN	?ParseExtraInfo@ioWnd@@UAEXAAVioXMLElement@@@Z:PROC ; ioWnd::ParseExtraInfo
EXTRN	?AddNamedRenderImage@ioWnd@@UAEXABVioHashString@@PAVioUIRenderImage@@@Z:PROC ; ioWnd::AddNamedRenderImage
EXTRN	?RemoveNamedRenderImage@ioWnd@@UAEXABVioHashString@@@Z:PROC ; ioWnd::RemoveNamedRenderImage
EXTRN	?GetNamedRenderImage@ioWnd@@UBEPAVioUIRenderImage@@ABVioHashString@@@Z:PROC ; ioWnd::GetNamedRenderImage
EXTRN	?SetWindowAlpha@ioWnd@@UAEXH@Z:PROC		; ioWnd::SetWindowAlpha
EXTRN	?SetActive@ioWnd@@UAEXXZ:PROC			; ioWnd::SetActive
EXTRN	?SetInActive@ioWnd@@UAEXXZ:PROC			; ioWnd::SetInActive
EXTRN	?ClearElementImageList@ioWnd@@UAEXXZ:PROC	; ioWnd::ClearElementImageList
EXTRN	?SetSize@ioWnd@@UAEXHH@Z:PROC			; ioWnd::SetSize
EXTRN	?SetPositionToDefault@ioWnd@@UAEXHH_N0@Z:PROC	; ioWnd::SetPositionToDefault
EXTRN	?IsNeedProcess@ioWnd@@UBE_NXZ:PROC		; ioWnd::IsNeedProcess
EXTRN	?IsCanMouseReaction@ioWnd@@UBE_NXZ:PROC		; ioWnd::IsCanMouseReaction
EXTRN	?AddChild@ioWnd@@UAEXPAV1@@Z:PROC		; ioWnd::AddChild
EXTRN	?DeleteChild@ioWnd@@UAEXK@Z:PROC		; ioWnd::DeleteChild
EXTRN	?DeleteAllChild@ioWnd@@UAEXXZ:PROC		; ioWnd::DeleteAllChild
EXTRN	?OnRenderShowAndHide@ioWnd@@MAE_NXZ:PROC	; ioWnd::OnRenderShowAndHide
EXTRN	?OnRenderShowAndHideByDefault@ioWnd@@MAE_NK@Z:PROC ; ioWnd::OnRenderShowAndHideByDefault
EXTRN	?OnRenderShowAndHideByTop@ioWnd@@MAE_NK@Z:PROC	; ioWnd::OnRenderShowAndHideByTop
EXTRN	?OnRenderShowAndHideByDown@ioWnd@@MAE_NK@Z:PROC	; ioWnd::OnRenderShowAndHideByDown
EXTRN	?OnRender@ioWnd@@MAEXXZ:PROC			; ioWnd::OnRender
EXTRN	?OnRenderAfterChild@ioWnd@@MAEXXZ:PROC		; ioWnd::OnRenderAfterChild
EXTRN	?OnProcess@ioWnd@@MAEXM@Z:PROC			; ioWnd::OnProcess
EXTRN	?OnMouseProcess@ioWnd@@MAEXABVioMouse@@@Z:PROC	; ioWnd::OnMouseProcess
EXTRN	?CheckFrameReSize@ioWnd@@MAEXHHHH@Z:PROC	; ioWnd::CheckFrameReSize
EXTRN	?RenderImageList@ioWnd@@MAEXHHW4UIRenderType@@@Z:PROC ; ioWnd::RenderImageList
EXTRN	?iwm_destroy@ioWnd@@UAEXXZ:PROC			; ioWnd::iwm_destroy
EXTRN	?iwm_lbuttondown@ioWnd@@UAEXABVioMouse@@@Z:PROC	; ioWnd::iwm_lbuttondown
EXTRN	?iwm_lbuttonup@ioWnd@@UAEXABVioMouse@@@Z:PROC	; ioWnd::iwm_lbuttonup
EXTRN	?iwm_lbuttonDBLCLK@ioWnd@@UAEXABVioMouse@@@Z:PROC ; ioWnd::iwm_lbuttonDBLCLK
EXTRN	?iwm_rbuttondown@ioWnd@@UAEXABVioMouse@@@Z:PROC	; ioWnd::iwm_rbuttondown
EXTRN	?iwm_rbuttonup@ioWnd@@UAEXABVioMouse@@@Z:PROC	; ioWnd::iwm_rbuttonup
EXTRN	?iwm_mouseover@ioWnd@@UAEXABVioMouse@@@Z:PROC	; ioWnd::iwm_mouseover
EXTRN	?iwm_mousemove@ioWnd@@UAEXABVioMouse@@@Z:PROC	; ioWnd::iwm_mousemove
EXTRN	?iwm_mouseleave@ioWnd@@UAEXABVioMouse@@@Z:PROC	; ioWnd::iwm_mouseleave
EXTRN	?iwm_vscroll@ioWnd@@UAEXKH@Z:PROC		; ioWnd::iwm_vscroll
EXTRN	?iwm_wheel@ioWnd@@UAEXH@Z:PROC			; ioWnd::iwm_wheel
EXTRN	?iwm_esc@ioWnd@@UAE_NXZ:PROC			; ioWnd::iwm_esc
EXTRN	?iwm_spacebar@ioWnd@@UAE_NXZ:PROC		; ioWnd::iwm_spacebar
EXTRN	?iwm_gototop@ioWnd@@UAEXXZ:PROC			; ioWnd::iwm_gototop
EXTRN	?iwm_dragenter@ioWnd@@UAE?AW4IWDropEffect@@PAVioDragItem@@ABVioMouse@@@Z:PROC ; ioWnd::iwm_dragenter
EXTRN	?iwm_dragover@ioWnd@@UAE?AW4IWDropEffect@@PAVioDragItem@@ABVioMouse@@@Z:PROC ; ioWnd::iwm_dragover
EXTRN	?iwm_dragleave@ioWnd@@UAEXXZ:PROC		; ioWnd::iwm_dragleave
EXTRN	?iwm_dropitem@ioWnd@@UAE_NPAVioDragItem@@ABVioMouse@@PAV1@@Z:PROC ; ioWnd::iwm_dropitem
EXTRN	?iwm_dropdone@ioWnd@@UAEXPAVioDragItem@@PAV1@_N@Z:PROC ; ioWnd::iwm_dropdone
EXTRN	?IsEXType@ioWnd@@UBE_NXZ:PROC			; ioWnd::IsEXType
EXTRN	?GetWndType@ioWnd@@UBEKXZ:PROC			; ioWnd::GetWndType
EXTRN	?RenderWnd@ioWnd@@UAEXXZ:PROC			; ioWnd::RenderWnd
EXTRN	?SetIDEX@ioWnd@@UAEXAAK_N@Z:PROC		; ioWnd::SetIDEX
EXTRN	?ParseXML@ioWnd@@UAEXAAVioXMLElement@@@Z:PROC	; ioWnd::ParseXML
EXTRN	?GetHeaderFileName@ioWnd@@UAEPBDXZ:PROC		; ioWnd::GetHeaderFileName
EXTRN	?GetTemplateName@ioWnd@@UAEPBDXZ:PROC		; ioWnd::GetTemplateName
EXTRN	?GetDefClassName@ioWnd@@UBEPBDXZ:PROC		; ioWnd::GetDefClassName
EXTRN	?_Clone@ioWnd@@UAEPAV1@XZ:PROC			; ioWnd::_Clone
EXTRN	?Copy@ioWnd@@UAEXPAV1@@Z:PROC			; ioWnd::Copy
EXTRN	?Save@ioWnd@@UAE_NAAVioXMLElement@@@Z:PROC	; ioWnd::Save
EXTRN	?SetSaveData@ioWnd@@UAEXAAVioXMLElement@@@Z:PROC ; ioWnd::SetSaveData
EXTRN	?SetPosX@ioWnd@@UAEXH@Z:PROC			; ioWnd::SetPosX
EXTRN	?SetPosY@ioWnd@@UAEXH@Z:PROC			; ioWnd::SetPosY
EXTRN	?SetWidth@ioWnd@@UAEXH@Z:PROC			; ioWnd::SetWidth
EXTRN	?SetHeight@ioWnd@@UAEXH@Z:PROC			; ioWnd::SetHeight
EXTRN	?GetNumFixedRenderFrame@ioWnd@@UBEHXZ:PROC	; ioWnd::GetNumFixedRenderFrame
EXTRN	?GetFixedRenderFrameType@ioWnd@@UAEPBDH@Z:PROC	; ioWnd::GetFixedRenderFrameType
EXTRN	?GetRenderFrame@ioWnd@@UAEPAPAVioUIRenderElement@@PBD@Z:PROC ; ioWnd::GetRenderFrame
EXTRN	?GetNumFixedRenderImage@ioWnd@@UBEHXZ:PROC	; ioWnd::GetNumFixedRenderImage
EXTRN	?GetFixedRenderImageType@ioWnd@@UAEPBDH@Z:PROC	; ioWnd::GetFixedRenderImageType
EXTRN	?GetRenderImage@ioWnd@@UAEPAPAVioUIRenderElement@@PBD@Z:PROC ; ioWnd::GetRenderImage
EXTRN	?AddEffect@ioWnd@@UAEXABVioHashString@@PAVioUI3DEffectRender@@@Z:PROC ; ioWnd::AddEffect
EXTRN	?GetEffect@ioWnd@@UAEPAVioUI3DEffectRender@@VioHashString@@@Z:PROC ; ioWnd::GetEffect
EXTRN	??_ESettingCustomSoundItemWnd@@UAEPAXI@Z:PROC	; SettingCustomSoundItemWnd::`vector deleting destructor'
;	COMDAT ??_R2ioWnd@@8
; File d:\lost saga for developer\youtube\tutorial\source\src\lsclient\gui\gameoptionsettingtab.cpp
rdata$r	SEGMENT
??_R2ioWnd@@8 DD FLAT:??_R1A@?0A@EA@ioWnd@@8		; ioWnd::`RTTI Base Class Array'
rdata$r	ENDS
;	COMDAT ??_R3ioWnd@@8
rdata$r	SEGMENT
??_R3ioWnd@@8 DD 00H					; ioWnd::`RTTI Class Hierarchy Descriptor'
	DD	00H
	DD	01H
	DD	FLAT:??_R2ioWnd@@8
rdata$r	ENDS
;	COMDAT ??_R0?AVioWnd@@@8
_DATA	SEGMENT
??_R0?AVioWnd@@@8 DD FLAT:??_7type_info@@6B@		; ioWnd `RTTI Type Descriptor'
	DD	00H
	DB	'.?AVioWnd@@', 00H
_DATA	ENDS
;	COMDAT ??_R1A@?0A@EA@ioWnd@@8
rdata$r	SEGMENT
??_R1A@?0A@EA@ioWnd@@8 DD FLAT:??_R0?AVioWnd@@@8	; ioWnd::`RTTI Base Class Descriptor at (0,-1,0,64)'
	DD	00H
	DD	00H
	DD	0ffffffffH
	DD	00H
	DD	040H
	DD	FLAT:??_R3ioWnd@@8
rdata$r	ENDS
;	COMDAT ??_R1A@?0A@EA@SettingCustomSoundItemWnd@@8
rdata$r	SEGMENT
??_R1A@?0A@EA@SettingCustomSoundItemWnd@@8 DD FLAT:??_R0?AVSettingCustomSoundItemWnd@@@8 ; SettingCustomSoundItemWnd::`RTTI Base Class Descriptor at (0,-1,0,64)'
	DD	01H
	DD	00H
	DD	0ffffffffH
	DD	00H
	DD	040H
	DD	FLAT:??_R3SettingCustomSoundItemWnd@@8
rdata$r	ENDS
;	COMDAT ??_R2SettingCustomSoundItemWnd@@8
rdata$r	SEGMENT
??_R2SettingCustomSoundItemWnd@@8 DD FLAT:??_R1A@?0A@EA@SettingCustomSoundItemWnd@@8 ; SettingCustomSoundItemWnd::`RTTI Base Class Array'
	DD	FLAT:??_R1A@?0A@EA@ioWnd@@8
rdata$r	ENDS
;	COMDAT ??_R3SettingCustomSoundItemWnd@@8
rdata$r	SEGMENT
??_R3SettingCustomSoundItemWnd@@8 DD 00H		; SettingCustomSoundItemWnd::`RTTI Class Hierarchy Descriptor'
	DD	00H
	DD	02H
	DD	FLAT:??_R2SettingCustomSoundItemWnd@@8
rdata$r	ENDS
;	COMDAT ??_R0?AVSettingCustomSoundItemWnd@@@8
_DATA	SEGMENT
??_R0?AVSettingCustomSoundItemWnd@@@8 DD FLAT:??_7type_info@@6B@ ; SettingCustomSoundItemWnd `RTTI Type Descriptor'
	DD	00H
	DB	'.?AVSettingCustomSoundItemWnd@@', 00H
_DATA	ENDS
;	COMDAT ??_R4SettingCustomSoundItemWnd@@6B@
rdata$r	SEGMENT
??_R4SettingCustomSoundItemWnd@@6B@ DD 00H		; SettingCustomSoundItemWnd::`RTTI Complete Object Locator'
	DD	00H
	DD	00H
	DD	FLAT:??_R0?AVSettingCustomSoundItemWnd@@@8
	DD	FLAT:??_R3SettingCustomSoundItemWnd@@8
rdata$r	ENDS
;	COMDAT ??_7SettingCustomSoundItemWnd@@6B@
CONST	SEGMENT
??_7SettingCustomSoundItemWnd@@6B@ DD FLAT:??_R4SettingCustomSoundItemWnd@@6B@ ; SettingCustomSoundItemWnd::`vftable'
	DD	FLAT:?AddRenderFrame@ioWnd@@UAEXABVioHashString@@PAVioUIRenderFrame@@@Z
	DD	FLAT:?AddRenderImage@ioWnd@@UAEXABVioHashString@@PAVioUIRenderImage@@@Z
	DD	FLAT:?AddTooltipHelp@ioWnd@@UAEXABVioHashString@@00@Z
	DD	FLAT:?ParseExtraInfo@ioWnd@@UAEXAAVioXMLElement@@@Z
	DD	FLAT:?AddNamedRenderImage@ioWnd@@UAEXABVioHashString@@PAVioUIRenderImage@@@Z
	DD	FLAT:?RemoveNamedRenderImage@ioWnd@@UAEXABVioHashString@@@Z
	DD	FLAT:?GetNamedRenderImage@ioWnd@@UBEPAVioUIRenderImage@@ABVioHashString@@@Z
	DD	FLAT:?SetWindowAlpha@ioWnd@@UAEXH@Z
	DD	FLAT:?SetActive@ioWnd@@UAEXXZ
	DD	FLAT:?SetInActive@ioWnd@@UAEXXZ
	DD	FLAT:?ClearElementImageList@ioWnd@@UAEXXZ
	DD	FLAT:?SetSize@ioWnd@@UAEXHH@Z
	DD	FLAT:?SetPositionToDefault@ioWnd@@UAEXHH_N0@Z
	DD	FLAT:?IsNeedProcess@ioWnd@@UBE_NXZ
	DD	FLAT:?IsCanMouseReaction@ioWnd@@UBE_NXZ
	DD	FLAT:?AddChild@ioWnd@@UAEXPAV1@@Z
	DD	FLAT:?DeleteChild@ioWnd@@UAEXK@Z
	DD	FLAT:?DeleteAllChild@ioWnd@@UAEXXZ
	DD	FLAT:?OnRenderShowAndHide@ioWnd@@MAE_NXZ
	DD	FLAT:?OnRenderShowAndHideByDefault@ioWnd@@MAE_NK@Z
	DD	FLAT:?OnRenderShowAndHideByTop@ioWnd@@MAE_NK@Z
	DD	FLAT:?OnRenderShowAndHideByDown@ioWnd@@MAE_NK@Z
	DD	FLAT:?OnRender@ioWnd@@MAEXXZ
	DD	FLAT:?OnRenderAfterChild@ioWnd@@MAEXXZ
	DD	FLAT:?OnProcess@ioWnd@@MAEXM@Z
	DD	FLAT:?OnMouseProcess@ioWnd@@MAEXABVioMouse@@@Z
	DD	FLAT:?CheckFrameReSize@ioWnd@@MAEXHHHH@Z
	DD	FLAT:?RenderImageList@ioWnd@@MAEXHHW4UIRenderType@@@Z
	DD	FLAT:?iwm_create@SettingCustomSoundItemWnd@@MAEXXZ
	DD	FLAT:?iwm_destroy@ioWnd@@UAEXXZ
	DD	FLAT:?iwm_lbuttondown@ioWnd@@UAEXABVioMouse@@@Z
	DD	FLAT:?iwm_lbuttonup@ioWnd@@UAEXABVioMouse@@@Z
	DD	FLAT:?iwm_lbuttonDBLCLK@ioWnd@@UAEXABVioMouse@@@Z
	DD	FLAT:?iwm_rbuttondown@ioWnd@@UAEXABVioMouse@@@Z
	DD	FLAT:?iwm_rbuttonup@ioWnd@@UAEXABVioMouse@@@Z
	DD	FLAT:?iwm_command@SettingCustomSoundItemWnd@@MAEXPAVioWnd@@HK@Z
	DD	FLAT:?iwm_mouseover@ioWnd@@UAEXABVioMouse@@@Z
	DD	FLAT:?iwm_mousemove@ioWnd@@UAEXABVioMouse@@@Z
	DD	FLAT:?iwm_mouseleave@ioWnd@@UAEXABVioMouse@@@Z
	DD	FLAT:?iwm_vscroll@ioWnd@@UAEXKH@Z
	DD	FLAT:?iwm_wheel@ioWnd@@UAEXH@Z
	DD	FLAT:?iwm_show@SettingCustomSoundItemWnd@@MAEXXZ
	DD	FLAT:?iwm_hide@SettingCustomSoundItemWnd@@MAEXXZ
	DD	FLAT:?iwm_esc@ioWnd@@UAE_NXZ
	DD	FLAT:?iwm_spacebar@ioWnd@@UAE_NXZ
	DD	FLAT:?iwm_gototop@ioWnd@@UAEXXZ
	DD	FLAT:?iwm_dragenter@ioWnd@@UAE?AW4IWDropEffect@@PAVioDragItem@@ABVioMouse@@@Z
	DD	FLAT:?iwm_dragover@ioWnd@@UAE?AW4IWDropEffect@@PAVioDragItem@@ABVioMouse@@@Z
	DD	FLAT:?iwm_dragleave@ioWnd@@UAEXXZ
	DD	FLAT:?iwm_dropitem@ioWnd@@UAE_NPAVioDragItem@@ABVioMouse@@PAV1@@Z
	DD	FLAT:?iwm_dropdone@ioWnd@@UAEXPAVioDragItem@@PAV1@_N@Z
	DD	FLAT:?IsEXType@ioWnd@@UBE_NXZ
	DD	FLAT:?GetWndType@ioWnd@@UBEKXZ
	DD	FLAT:?RenderWnd@ioWnd@@UAEXXZ
	DD	FLAT:?SetIDEX@ioWnd@@UAEXAAK_N@Z
	DD	FLAT:?ParseXML@ioWnd@@UAEXAAVioXMLElement@@@Z
	DD	FLAT:?GetHeaderFileName@ioWnd@@UAEPBDXZ
	DD	FLAT:?GetTemplateName@ioWnd@@UAEPBDXZ
	DD	FLAT:?GetDefClassName@ioWnd@@UBEPBDXZ
	DD	FLAT:?_Clone@ioWnd@@UAEPAV1@XZ
	DD	FLAT:?Copy@ioWnd@@UAEXPAV1@@Z
	DD	FLAT:?Save@ioWnd@@UAE_NAAVioXMLElement@@@Z
	DD	FLAT:?SetSaveData@ioWnd@@UAEXAAVioXMLElement@@@Z
	DD	FLAT:?SetPosX@ioWnd@@UAEXH@Z
	DD	FLAT:?SetPosY@ioWnd@@UAEXH@Z
	DD	FLAT:?SetWidth@ioWnd@@UAEXH@Z
	DD	FLAT:?SetHeight@ioWnd@@UAEXH@Z
	DD	FLAT:?GetNumFixedRenderFrame@ioWnd@@UBEHXZ
	DD	FLAT:?GetFixedRenderFrameType@ioWnd@@UAEPBDH@Z
	DD	FLAT:?GetRenderFrame@ioWnd@@UAEPAPAVioUIRenderElement@@PBD@Z
	DD	FLAT:?GetNumFixedRenderImage@ioWnd@@UBEHXZ
	DD	FLAT:?GetFixedRenderImageType@ioWnd@@UAEPBDH@Z
	DD	FLAT:?GetRenderImage@ioWnd@@UAEPAPAVioUIRenderElement@@PBD@Z
	DD	FLAT:?AddEffect@ioWnd@@UAEXABVioHashString@@PAVioUI3DEffectRender@@@Z
	DD	FLAT:?GetEffect@ioWnd@@UAEPAVioUI3DEffectRender@@VioHashString@@@Z
	DD	FLAT:??_ESettingCustomSoundItemWnd@@UAEPAXI@Z
; Function compile flags: /Ogsp
CONST	ENDS
;	COMDAT ??0SettingCustomSoundItemWnd@@QAE@XZ
_TEXT	SEGMENT
??0SettingCustomSoundItemWnd@@QAE@XZ PROC		; SettingCustomSoundItemWnd::SettingCustomSoundItemWnd, COMDAT
; _this$ = ecx

; 45   : {

  00000	56		 push	 esi
  00001	8b f1		 mov	 esi, ecx
  00003	ff 15 00 00 00
	00		 call	 DWORD PTR __imp_??0ioWnd@@QAE@XZ
  00009	c7 06 00 00 00
	00		 mov	 DWORD PTR [esi], OFFSET ??_7SettingCustomSoundItemWnd@@6B@

; 46   : 
; 47   : }

  0000f	8b c6		 mov	 eax, esi
  00011	5e		 pop	 esi
  00012	c3		 ret	 0
??0SettingCustomSoundItemWnd@@QAE@XZ ENDP		; SettingCustomSoundItemWnd::SettingCustomSoundItemWnd
_TEXT	ENDS
PUBLIC	??1SettingCustomSoundItemWnd@@UAE@XZ		; SettingCustomSoundItemWnd::~SettingCustomSoundItemWnd
EXTRN	__imp_??1ioWnd@@UAE@XZ:PROC
; Function compile flags: /Ogsp
;	COMDAT ??1SettingCustomSoundItemWnd@@UAE@XZ
_TEXT	SEGMENT
??1SettingCustomSoundItemWnd@@UAE@XZ PROC		; SettingCustomSoundItemWnd::~SettingCustomSoundItemWnd, COMDAT
; _this$ = ecx

; 50   : {

  00000	c7 01 00 00 00
	00		 mov	 DWORD PTR [ecx], OFFSET ??_7SettingCustomSoundItemWnd@@6B@

; 51   : 
; 52   : }

  00006	ff 25 00 00 00
	00		 jmp	 DWORD PTR __imp_??1ioWnd@@UAE@XZ
??1SettingCustomSoundItemWnd@@UAE@XZ ENDP		; SettingCustomSoundItemWnd::~SettingCustomSoundItemWnd
_TEXT	ENDS
EXTRN	__imp_?GetParent@ioWnd@@QAEPAV1@XZ:PROC
EXTRN	__imp_?GetID@ioWnd@@QBEKXZ:PROC
; Function compile flags: /Ogsp
;	COMDAT ?iwm_command@SettingCustomSoundItemWnd@@MAEXPAVioWnd@@HK@Z
_TEXT	SEGMENT
_pWnd$ = 8						; size = 4
_cmd$ = 12						; size = 4
_param$ = 16						; size = 4
?iwm_command@SettingCustomSoundItemWnd@@MAEXPAVioWnd@@HK@Z PROC ; SettingCustomSoundItemWnd::iwm_command, COMDAT
; _this$ = ecx

; 55   : {

  00000	55		 push	 ebp
  00001	8b ec		 mov	 ebp, esp
  00003	56		 push	 esi
  00004	8b f1		 mov	 esi, ecx

; 56   : 	DWORD dwID = pWnd->GetID();

  00006	8b 4d 08	 mov	 ecx, DWORD PTR _pWnd$[ebp]
  00009	ff 15 00 00 00
	00		 call	 DWORD PTR __imp_?GetID@ioWnd@@QBEKXZ

; 57   : 
; 58   : 	switch( dwID )

  0000f	48		 dec	 eax
  00010	0f 84 84 00 00
	00		 je	 $LN14@iwm_comman
  00016	48		 dec	 eax
  00017	74 54		 je	 SHORT $LN11@iwm_comman
  00019	48		 dec	 eax
  0001a	74 30		 je	 SHORT $LN6@iwm_comman
  0001c	48		 dec	 eax
  0001d	0f 85 a3 00 00
	00		 jne	 $LN12@iwm_comman

; 84   : 	case ID_PLAY_BTN:
; 85   : 		if( cmd == IOBN_BTNUP )

  00023	83 7d 0c 11	 cmp	 DWORD PTR _cmd$[ebp], 17 ; 00000011H
  00027	0f 85 99 00 00
	00		 jne	 $LN12@iwm_comman

; 86   : 		{
; 87   : 			if( GetParent() )

  0002d	8b ce		 mov	 ecx, esi
  0002f	ff 15 00 00 00
	00		 call	 DWORD PTR __imp_?GetParent@ioWnd@@QAEPAV1@XZ
  00035	85 c0		 test	 eax, eax
  00037	0f 84 89 00 00
	00		 je	 $LN12@iwm_comman

; 88   : 				GetParent()->iwm_command( this, cmd, ID_PARAM_PLAY_BTNUP );

  0003d	8b ce		 mov	 ecx, esi
  0003f	ff 15 00 00 00
	00		 call	 DWORD PTR __imp_?GetParent@ioWnd@@QAEPAV1@XZ
  00045	68 12 27 00 00	 push	 10002			; 00002712H

; 89   : 		}
; 90   : 		break;

  0004a	eb 6d		 jmp	 SHORT $LN19@iwm_comman
$LN6@iwm_comman:

; 77   : 	case ID_FILENAME_BTN:
; 78   : 		if( cmd == IOBN_BTNUP )

  0004c	83 7d 0c 11	 cmp	 DWORD PTR _cmd$[ebp], 17 ; 00000011H
  00050	75 74		 jne	 SHORT $LN12@iwm_comman

; 79   : 		{
; 80   : 			if( GetParent() )

  00052	8b ce		 mov	 ecx, esi
  00054	ff 15 00 00 00
	00		 call	 DWORD PTR __imp_?GetParent@ioWnd@@QAEPAV1@XZ
  0005a	85 c0		 test	 eax, eax
  0005c	74 68		 je	 SHORT $LN12@iwm_comman

; 81   : 				GetParent()->iwm_command( this, cmd, ID_PARAM_FILENAME_BTNUP );

  0005e	8b ce		 mov	 ecx, esi
  00060	ff 15 00 00 00
	00		 call	 DWORD PTR __imp_?GetParent@ioWnd@@QAEPAV1@XZ
  00066	68 11 27 00 00	 push	 10001			; 00002711H

; 82   : 		}
; 83   : 		break;

  0006b	eb 4c		 jmp	 SHORT $LN19@iwm_comman
$LN11@iwm_comman:

; 65   : 		}
; 66   : 		break;
; 67   : 	case ID_KEYWORD_EDIT:
; 68   : 		if( cmd == IOED_INPUT )

  0006d	83 7d 0c 22	 cmp	 DWORD PTR _cmd$[ebp], 34 ; 00000022H
  00071	75 53		 jne	 SHORT $LN12@iwm_comman

; 69   : 		{
; 70   : 			if( param == 0 || param == 1) // enter , tab

  00073	83 7d 10 00	 cmp	 DWORD PTR _param$[ebp], 0
  00077	74 06		 je	 SHORT $LN8@iwm_comman
  00079	83 7d 10 01	 cmp	 DWORD PTR _param$[ebp], 1
  0007d	75 47		 jne	 SHORT $LN12@iwm_comman
$LN8@iwm_comman:

; 71   : 			{
; 72   : 				if(GetParent())

  0007f	8b ce		 mov	 ecx, esi
  00081	ff 15 00 00 00
	00		 call	 DWORD PTR __imp_?GetParent@ioWnd@@QAEPAV1@XZ
  00087	85 c0		 test	 eax, eax
  00089	74 3b		 je	 SHORT $LN12@iwm_comman

; 73   : 					GetParent()->iwm_command( this, cmd, param );

  0008b	8b ce		 mov	 ecx, esi
  0008d	ff 15 00 00 00
	00		 call	 DWORD PTR __imp_?GetParent@ioWnd@@QAEPAV1@XZ
  00093	ff 75 10	 push	 DWORD PTR _param$[ebp]
  00096	6a 22		 push	 34			; 00000022H

; 74   : 			}
; 75   : 		}
; 76   : 		break;

  00098	eb 21		 jmp	 SHORT $LN20@iwm_comman
$LN14@iwm_comman:

; 59   : 	{
; 60   : 	case ID_KEYWORD_BTN:
; 61   : 		if( cmd == IOBN_BTNUP )

  0009a	83 7d 0c 11	 cmp	 DWORD PTR _cmd$[ebp], 17 ; 00000011H
  0009e	75 26		 jne	 SHORT $LN12@iwm_comman

; 62   : 		{
; 63   : 			if(GetParent())

  000a0	8b ce		 mov	 ecx, esi
  000a2	ff 15 00 00 00
	00		 call	 DWORD PTR __imp_?GetParent@ioWnd@@QAEPAV1@XZ
  000a8	85 c0		 test	 eax, eax
  000aa	74 1a		 je	 SHORT $LN12@iwm_comman

; 64   : 				GetParent()->iwm_command( this, cmd, ID_PARAM_KEYWORD_BTNUP );

  000ac	8b ce		 mov	 ecx, esi
  000ae	ff 15 00 00 00
	00		 call	 DWORD PTR __imp_?GetParent@ioWnd@@QAEPAV1@XZ
  000b4	68 10 27 00 00	 push	 10000			; 00002710H
$LN19@iwm_comman:
  000b9	6a 11		 push	 17			; 00000011H
$LN20@iwm_comman:
  000bb	8b 10		 mov	 edx, DWORD PTR [eax]
  000bd	56		 push	 esi
  000be	8b c8		 mov	 ecx, eax
  000c0	ff 92 8c 00 00
	00		 call	 DWORD PTR [edx+140]
$LN12@iwm_comman:
  000c6	5e		 pop	 esi

; 91   : 	}
; 92   : }

  000c7	5d		 pop	 ebp
  000c8	c2 0c 00	 ret	 12			; 0000000cH
?iwm_command@SettingCustomSoundItemWnd@@MAEXPAVioWnd@@HK@Z ENDP ; SettingCustomSoundItemWnd::iwm_command
_TEXT	ENDS
PUBLIC	??_R0?AVioEdit@@@8				; ioEdit `RTTI Type Descriptor'
EXTRN	__imp_?ClearString@ioEdit@@QAEXXZ:PROC
EXTRN	__imp_?FindChildWnd@ioWnd@@QAEPAV1@K@Z:PROC
;	COMDAT ??_R0?AVioEdit@@@8
_DATA	SEGMENT
??_R0?AVioEdit@@@8 DD FLAT:??_7type_info@@6B@		; ioEdit `RTTI Type Descriptor'
	DD	00H
	DB	'.?AVioEdit@@', 00H
; Function compile flags: /Ogsp
_DATA	ENDS
;	COMDAT ?iwm_show@SettingCustomSoundItemWnd@@MAEXXZ
_TEXT	SEGMENT
?iwm_show@SettingCustomSoundItemWnd@@MAEXXZ PROC	; SettingCustomSoundItemWnd::iwm_show, COMDAT
; _this$ = ecx

; 95   : {

  00000	56		 push	 esi

; 96   : 	ioEdit *pEdit = dynamic_cast<ioEdit*> ( FindChildWnd( ID_KEYWORD_EDIT ) );

  00001	6a 00		 push	 0
  00003	68 00 00 00 00	 push	 OFFSET ??_R0?AVioEdit@@@8
  00008	68 00 00 00 00	 push	 OFFSET ??_R0?AVioWnd@@@8
  0000d	6a 00		 push	 0
  0000f	6a 02		 push	 2
  00011	ff 15 00 00 00
	00		 call	 DWORD PTR __imp_?FindChildWnd@ioWnd@@QAEPAV1@K@Z
  00017	50		 push	 eax
  00018	e8 00 00 00 00	 call	 ___RTDynamicCast
  0001d	8b f0		 mov	 esi, eax
  0001f	83 c4 14	 add	 esp, 20			; 00000014H

; 97   : 	if(pEdit)

  00022	85 f6		 test	 esi, esi
  00024	74 13		 je	 SHORT $LN1@iwm_show

; 98   : 	{
; 99   : 		pEdit->ClearString();

  00026	8b ce		 mov	 ecx, esi
  00028	ff 15 00 00 00
	00		 call	 DWORD PTR __imp_?ClearString@ioEdit@@QAEXXZ

; 100  : 		pEdit->KillKeyFocus();

  0002e	8b 06		 mov	 eax, DWORD PTR [esi]
  00030	8b ce		 mov	 ecx, esi
  00032	5e		 pop	 esi
  00033	ff a0 34 01 00
	00		 jmp	 DWORD PTR [eax+308]
$LN1@iwm_show:
  00039	5e		 pop	 esi

; 101  : 	}
; 102  : }

  0003a	c3		 ret	 0
?iwm_show@SettingCustomSoundItemWnd@@MAEXXZ ENDP	; SettingCustomSoundItemWnd::iwm_show
; Function compile flags: /Ogsp
_TEXT	ENDS
;	COMDAT ?iwm_hide@SettingCustomSoundItemWnd@@MAEXXZ
_TEXT	SEGMENT
?iwm_hide@SettingCustomSoundItemWnd@@MAEXXZ PROC	; SettingCustomSoundItemWnd::iwm_hide, COMDAT
; _this$ = ecx

; 105  : {

  00000	56		 push	 esi

; 106  : 	ioEdit *pEdit = dynamic_cast<ioEdit*> ( FindChildWnd( ID_KEYWORD_EDIT ) );

  00001	6a 00		 push	 0
  00003	68 00 00 00 00	 push	 OFFSET ??_R0?AVioEdit@@@8
  00008	68 00 00 00 00	 push	 OFFSET ??_R0?AVioWnd@@@8
  0000d	6a 00		 push	 0
  0000f	6a 02		 push	 2
  00011	ff 15 00 00 00
	00		 call	 DWORD PTR __imp_?FindChildWnd@ioWnd@@QAEPAV1@K@Z
  00017	50		 push	 eax
  00018	e8 00 00 00 00	 call	 ___RTDynamicCast
  0001d	8b f0		 mov	 esi, eax
  0001f	83 c4 14	 add	 esp, 20			; 00000014H

; 107  : 	if(pEdit)

  00022	85 f6		 test	 esi, esi
  00024	74 13		 je	 SHORT $LN1@iwm_hide

; 108  : 	{
; 109  : 		pEdit->ClearString();

  00026	8b ce		 mov	 ecx, esi
  00028	ff 15 00 00 00
	00		 call	 DWORD PTR __imp_?ClearString@ioEdit@@QAEXXZ

; 110  : 		pEdit->KillKeyFocus();

  0002e	8b 06		 mov	 eax, DWORD PTR [esi]
  00030	8b ce		 mov	 ecx, esi
  00032	5e		 pop	 esi
  00033	ff a0 34 01 00
	00		 jmp	 DWORD PTR [eax+308]
$LN1@iwm_hide:
  00039	5e		 pop	 esi

; 111  : 	}
; 112  : }

  0003a	c3		 ret	 0
?iwm_hide@SettingCustomSoundItemWnd@@MAEXXZ ENDP	; SettingCustomSoundItemWnd::iwm_hide
_TEXT	ENDS
PUBLIC	??_C@_00CNPNBAHC@?$AA@				; `string'
PUBLIC	??_R0?AVioButton@@@8				; ioButton `RTTI Type Descriptor'
PUBLIC	?SetInfo@SettingCustomSoundItemWnd@@QAEXABVioHashString@@PBD@Z ; SettingCustomSoundItemWnd::SetInfo
EXTRN	__imp_?SetText@ioEdit@@QAEXPBD@Z:PROC
EXTRN	__imp_?SetTitleText@ioWnd@@QAEXPBD0H@Z:PROC
EXTRN	__imp_?c_str@ioHashString@@QBEPBDXZ:PROC
;	COMDAT ??_C@_00CNPNBAHC@?$AA@
CONST	SEGMENT
??_C@_00CNPNBAHC@?$AA@ DB 00H				; `string'
CONST	ENDS
;	COMDAT ??_R0?AVioButton@@@8
_DATA	SEGMENT
??_R0?AVioButton@@@8 DD FLAT:??_7type_info@@6B@		; ioButton `RTTI Type Descriptor'
	DD	00H
	DB	'.?AVioButton@@', 00H
; Function compile flags: /Ogsp
_DATA	ENDS
;	COMDAT ?SetInfo@SettingCustomSoundItemWnd@@QAEXABVioHashString@@PBD@Z
_TEXT	SEGMENT
_pEdit$ = -8						; size = 4
_pFirstBtn$ = -8					; size = 4
_this$ = -4						; size = 4
_rszKeyword$ = 8					; size = 4
_szFileName$ = 12					; size = 4
?SetInfo@SettingCustomSoundItemWnd@@QAEXABVioHashString@@PBD@Z PROC ; SettingCustomSoundItemWnd::SetInfo, COMDAT
; _this$ = ecx

; 115  : {

  00000	55		 push	 ebp
  00001	8b ec		 mov	 ebp, esp
  00003	51		 push	 ecx
  00004	51		 push	 ecx
  00005	53		 push	 ebx
  00006	56		 push	 esi

; 116  : 	ioButton *pFirstBtn = dynamic_cast<ioButton*> ( FindChildWnd( ID_KEYWORD_BTN) );

  00007	8b 35 00 00 00
	00		 mov	 esi, DWORD PTR __imp_?FindChildWnd@ioWnd@@QAEPAV1@K@Z
  0000d	57		 push	 edi
  0000e	6a 00		 push	 0
  00010	bf 00 00 00 00	 mov	 edi, OFFSET ??_R0?AVioButton@@@8
  00015	57		 push	 edi
  00016	bb 00 00 00 00	 mov	 ebx, OFFSET ??_R0?AVioWnd@@@8
  0001b	53		 push	 ebx
  0001c	6a 00		 push	 0
  0001e	6a 01		 push	 1
  00020	89 4d fc	 mov	 DWORD PTR _this$[ebp], ecx
  00023	ff d6		 call	 esi
  00025	50		 push	 eax
  00026	e8 00 00 00 00	 call	 ___RTDynamicCast
  0002b	83 c4 14	 add	 esp, 20			; 00000014H
  0002e	89 45 f8	 mov	 DWORD PTR _pFirstBtn$[ebp], eax

; 117  : 	if( pFirstBtn )

  00031	85 c0		 test	 eax, eax
  00033	74 1a		 je	 SHORT $LN6@SetInfo

; 118  : 	{
; 119  : 		pFirstBtn->SetTitleText( rszKeyword.c_str() );

  00035	8b 4d 08	 mov	 ecx, DWORD PTR _rszKeyword$[ebp]
  00038	6a 00		 push	 0
  0003a	68 00 00 00 00	 push	 OFFSET ??_C@_00CNPNBAHC@?$AA@
  0003f	ff 15 00 00 00
	00		 call	 DWORD PTR __imp_?c_str@ioHashString@@QBEPBDXZ
  00045	8b 4d f8	 mov	 ecx, DWORD PTR _pFirstBtn$[ebp]
  00048	50		 push	 eax
  00049	ff 15 00 00 00
	00		 call	 DWORD PTR __imp_?SetTitleText@ioWnd@@QAEXPBD0H@Z
$LN6@SetInfo:

; 120  : 	}
; 121  : 
; 122  : 	ioEdit *pEdit = dynamic_cast<ioEdit*> ( FindChildWnd( ID_KEYWORD_EDIT ) );

  0004f	8b 4d fc	 mov	 ecx, DWORD PTR _this$[ebp]
  00052	6a 00		 push	 0
  00054	68 00 00 00 00	 push	 OFFSET ??_R0?AVioEdit@@@8
  00059	53		 push	 ebx
  0005a	6a 00		 push	 0
  0005c	6a 02		 push	 2
  0005e	ff d6		 call	 esi
  00060	50		 push	 eax
  00061	e8 00 00 00 00	 call	 ___RTDynamicCast
  00066	83 c4 14	 add	 esp, 20			; 00000014H
  00069	89 45 f8	 mov	 DWORD PTR _pEdit$[ebp], eax

; 123  : 	if(pEdit)

  0006c	85 c0		 test	 eax, eax
  0006e	74 1e		 je	 SHORT $LN5@SetInfo

; 124  : 	{
; 125  : 		pEdit->SetText( rszKeyword.c_str() );

  00070	8b 4d 08	 mov	 ecx, DWORD PTR _rszKeyword$[ebp]
  00073	ff 15 00 00 00
	00		 call	 DWORD PTR __imp_?c_str@ioHashString@@QBEPBDXZ
  00079	8b 4d f8	 mov	 ecx, DWORD PTR _pEdit$[ebp]
  0007c	50		 push	 eax
  0007d	ff 15 00 00 00
	00		 call	 DWORD PTR __imp_?SetText@ioEdit@@QAEXPBD@Z

; 126  : 		pEdit->KillKeyFocus();

  00083	8b 4d f8	 mov	 ecx, DWORD PTR _pEdit$[ebp]
  00086	8b 01		 mov	 eax, DWORD PTR [ecx]
  00088	ff 90 34 01 00
	00		 call	 DWORD PTR [eax+308]
$LN5@SetInfo:

; 127  : 	}
; 128  : 
; 129  : 	ioButton *pSecondBtn = dynamic_cast<ioButton*> ( FindChildWnd( ID_FILENAME_BTN ) );

  0008e	8b 4d fc	 mov	 ecx, DWORD PTR _this$[ebp]
  00091	6a 00		 push	 0
  00093	57		 push	 edi
  00094	53		 push	 ebx
  00095	6a 00		 push	 0
  00097	6a 03		 push	 3
  00099	ff d6		 call	 esi
  0009b	50		 push	 eax
  0009c	e8 00 00 00 00	 call	 ___RTDynamicCast
  000a1	83 c4 14	 add	 esp, 20			; 00000014H

; 130  : 	if( pSecondBtn )

  000a4	85 c0		 test	 eax, eax
  000a6	74 12		 je	 SHORT $LN10@SetInfo

; 131  : 	{
; 132  : 		pSecondBtn->SetTitleText( szFileName );

  000a8	6a 00		 push	 0
  000aa	68 00 00 00 00	 push	 OFFSET ??_C@_00CNPNBAHC@?$AA@
  000af	ff 75 0c	 push	 DWORD PTR _szFileName$[ebp]
  000b2	8b c8		 mov	 ecx, eax
  000b4	ff 15 00 00 00
	00		 call	 DWORD PTR __imp_?SetTitleText@ioWnd@@QAEXPBD0H@Z
$LN10@SetInfo:

; 133  : 	}
; 134  : 
; 135  : 	ioWnd *pPlayBtn = FindChildWnd( ID_PLAY_BTN );

  000ba	8b 4d fc	 mov	 ecx, DWORD PTR _this$[ebp]
  000bd	6a 04		 push	 4
  000bf	ff d6		 call	 esi

; 136  : 	if( !pPlayBtn )

  000c1	85 c0		 test	 eax, eax
  000c3	74 1d		 je	 SHORT $LN1@SetInfo

; 137  : 		return;
; 138  : 
; 139  : 	if( strcmp( szFileName, "") == 0 )

  000c5	8b 75 0c	 mov	 esi, DWORD PTR _szFileName$[ebp]
  000c8	33 c9		 xor	 ecx, ecx
  000ca	41		 inc	 ecx
  000cb	33 d2		 xor	 edx, edx

; 140  : 		pPlayBtn->SetInActive();

  000cd	8b 10		 mov	 edx, DWORD PTR [eax]
  000cf	bf 00 00 00 00	 mov	 edi, OFFSET ??_C@_00CNPNBAHC@?$AA@
  000d4	f3 a6		 repe cmpsb
  000d6	8b c8		 mov	 ecx, eax
  000d8	75 05		 jne	 SHORT $LN2@SetInfo
  000da	ff 52 24	 call	 DWORD PTR [edx+36]

; 141  : 	else

  000dd	eb 03		 jmp	 SHORT $LN1@SetInfo
$LN2@SetInfo:

; 142  : 		pPlayBtn->SetActive();

  000df	ff 52 20	 call	 DWORD PTR [edx+32]
$LN1@SetInfo:
  000e2	5f		 pop	 edi
  000e3	5e		 pop	 esi
  000e4	5b		 pop	 ebx

; 143  : }

  000e5	c9		 leave
  000e6	c2 08 00	 ret	 8
?SetInfo@SettingCustomSoundItemWnd@@QAEXABVioHashString@@PBD@Z ENDP ; SettingCustomSoundItemWnd::SetInfo
_TEXT	ENDS
PUBLIC	?GetInfo@SettingCustomSoundItemWnd@@QAEXAAVioHashString@@0@Z ; SettingCustomSoundItemWnd::GetInfo
EXTRN	__imp_?GetFirstText@ioUITitle@@QAEXAAVioHashString@@@Z:PROC
EXTRN	__imp_?GetTitle@ioWnd@@QBEPAVioUITitle@@XZ:PROC
; Function compile flags: /Ogsp
;	COMDAT ?GetInfo@SettingCustomSoundItemWnd@@QAEXAAVioHashString@@0@Z
_TEXT	SEGMENT
_this$ = -4						; size = 4
_rszKeyword$ = 8					; size = 4
_rszFileName$ = 12					; size = 4
?GetInfo@SettingCustomSoundItemWnd@@QAEXAAVioHashString@@0@Z PROC ; SettingCustomSoundItemWnd::GetInfo, COMDAT
; _this$ = ecx

; 146  : {

  00000	55		 push	 ebp
  00001	8b ec		 mov	 ebp, esp
  00003	51		 push	 ecx
  00004	53		 push	 ebx
  00005	56		 push	 esi

; 147  : 	ioButton *pFirstBtn = dynamic_cast<ioButton*> ( FindChildWnd( ID_KEYWORD_BTN) );

  00006	8b 35 00 00 00
	00		 mov	 esi, DWORD PTR __imp_?FindChildWnd@ioWnd@@QAEPAV1@K@Z
  0000c	57		 push	 edi
  0000d	6a 00		 push	 0
  0000f	bb 00 00 00 00	 mov	 ebx, OFFSET ??_R0?AVioButton@@@8
  00014	53		 push	 ebx
  00015	bf 00 00 00 00	 mov	 edi, OFFSET ??_R0?AVioWnd@@@8
  0001a	57		 push	 edi
  0001b	6a 00		 push	 0
  0001d	6a 01		 push	 1
  0001f	89 4d fc	 mov	 DWORD PTR _this$[ebp], ecx
  00022	ff d6		 call	 esi
  00024	50		 push	 eax
  00025	e8 00 00 00 00	 call	 ___RTDynamicCast
  0002a	83 c4 14	 add	 esp, 20			; 00000014H

; 148  : 	if( pFirstBtn )

  0002d	85 c0		 test	 eax, eax
  0002f	74 17		 je	 SHORT $LN7@GetInfo

; 149  : 	{
; 150  : 		ioUITitle *pTitle = pFirstBtn->GetTitle();

  00031	8b c8		 mov	 ecx, eax
  00033	ff 15 00 00 00
	00		 call	 DWORD PTR __imp_?GetTitle@ioWnd@@QBEPAVioUITitle@@XZ

; 151  : 		if( pTitle )

  00039	85 c0		 test	 eax, eax
  0003b	74 0b		 je	 SHORT $LN7@GetInfo

; 152  : 			pTitle->GetFirstText( rszKeyword );

  0003d	ff 75 08	 push	 DWORD PTR _rszKeyword$[ebp]
  00040	8b c8		 mov	 ecx, eax
  00042	ff 15 00 00 00
	00		 call	 DWORD PTR __imp_?GetFirstText@ioUITitle@@QAEXAAVioHashString@@@Z
$LN7@GetInfo:

; 153  : 	}
; 154  : 
; 155  : 	ioButton *pSecondBtn = dynamic_cast<ioButton*> ( FindChildWnd( ID_FILENAME_BTN ) );

  00048	8b 4d fc	 mov	 ecx, DWORD PTR _this$[ebp]
  0004b	6a 00		 push	 0
  0004d	53		 push	 ebx
  0004e	57		 push	 edi
  0004f	6a 00		 push	 0
  00051	6a 03		 push	 3
  00053	ff d6		 call	 esi
  00055	50		 push	 eax
  00056	e8 00 00 00 00	 call	 ___RTDynamicCast
  0005b	83 c4 14	 add	 esp, 20			; 00000014H
  0005e	5f		 pop	 edi
  0005f	5e		 pop	 esi
  00060	5b		 pop	 ebx

; 156  : 	if( pSecondBtn )

  00061	85 c0		 test	 eax, eax
  00063	74 17		 je	 SHORT $LN1@GetInfo

; 157  : 	{
; 158  : 		ioUITitle *pTitle = pSecondBtn->GetTitle();

  00065	8b c8		 mov	 ecx, eax
  00067	ff 15 00 00 00
	00		 call	 DWORD PTR __imp_?GetTitle@ioWnd@@QBEPAVioUITitle@@XZ

; 159  : 		if( pTitle )

  0006d	85 c0		 test	 eax, eax
  0006f	74 0b		 je	 SHORT $LN1@GetInfo

; 160  : 			pTitle->GetFirstText( rszFileName );

  00071	ff 75 0c	 push	 DWORD PTR _rszFileName$[ebp]
  00074	8b c8		 mov	 ecx, eax
  00076	ff 15 00 00 00
	00		 call	 DWORD PTR __imp_?GetFirstText@ioUITitle@@QAEXAAVioHashString@@@Z
$LN1@GetInfo:

; 161  : 	}
; 162  : }

  0007c	c9		 leave
  0007d	c2 08 00	 ret	 8
?GetInfo@SettingCustomSoundItemWnd@@QAEXAAVioHashString@@0@Z ENDP ; SettingCustomSoundItemWnd::GetInfo
_TEXT	ENDS
PUBLIC	?ClearInfo@SettingCustomSoundItemWnd@@QAEXXZ	; SettingCustomSoundItemWnd::ClearInfo
; Function compile flags: /Ogsp
;	COMDAT ?ClearInfo@SettingCustomSoundItemWnd@@QAEXXZ
_TEXT	SEGMENT
_pEdit$ = -8						; size = 4
_this$ = -4						; size = 4
?ClearInfo@SettingCustomSoundItemWnd@@QAEXXZ PROC	; SettingCustomSoundItemWnd::ClearInfo, COMDAT
; _this$ = ecx

; 165  : {

  00000	55		 push	 ebp
  00001	8b ec		 mov	 ebp, esp
  00003	51		 push	 ecx
  00004	51		 push	 ecx
  00005	53		 push	 ebx
  00006	56		 push	 esi

; 166  : 	ioButton *pFirstBtn = dynamic_cast<ioButton*> ( FindChildWnd( ID_KEYWORD_BTN) );

  00007	8b 35 00 00 00
	00		 mov	 esi, DWORD PTR __imp_?FindChildWnd@ioWnd@@QAEPAV1@K@Z
  0000d	57		 push	 edi
  0000e	6a 00		 push	 0
  00010	68 00 00 00 00	 push	 OFFSET ??_R0?AVioButton@@@8
  00015	bf 00 00 00 00	 mov	 edi, OFFSET ??_R0?AVioWnd@@@8
  0001a	57		 push	 edi
  0001b	6a 00		 push	 0
  0001d	6a 01		 push	 1
  0001f	89 4d fc	 mov	 DWORD PTR _this$[ebp], ecx
  00022	ff d6		 call	 esi
  00024	50		 push	 eax
  00025	e8 00 00 00 00	 call	 ___RTDynamicCast
  0002a	83 c4 14	 add	 esp, 20			; 00000014H

; 167  : 	if( pFirstBtn )

  0002d	bb 00 00 00 00	 mov	 ebx, OFFSET ??_C@_00CNPNBAHC@?$AA@
  00032	85 c0		 test	 eax, eax
  00034	74 0c		 je	 SHORT $LN4@ClearInfo

; 168  : 	{
; 169  : 		pFirstBtn->SetTitleText( "" );

  00036	6a 00		 push	 0
  00038	53		 push	 ebx
  00039	53		 push	 ebx
  0003a	8b c8		 mov	 ecx, eax
  0003c	ff 15 00 00 00
	00		 call	 DWORD PTR __imp_?SetTitleText@ioWnd@@QAEXPBD0H@Z
$LN4@ClearInfo:

; 170  : 	}
; 171  : 
; 172  : 	ioEdit *pEdit = dynamic_cast<ioEdit*> ( FindChildWnd( ID_KEYWORD_EDIT ) );

  00042	8b 4d fc	 mov	 ecx, DWORD PTR _this$[ebp]
  00045	6a 00		 push	 0
  00047	68 00 00 00 00	 push	 OFFSET ??_R0?AVioEdit@@@8
  0004c	57		 push	 edi
  0004d	6a 00		 push	 0
  0004f	6a 02		 push	 2
  00051	ff d6		 call	 esi
  00053	50		 push	 eax
  00054	e8 00 00 00 00	 call	 ___RTDynamicCast
  00059	8b c8		 mov	 ecx, eax
  0005b	83 c4 14	 add	 esp, 20			; 00000014H
  0005e	89 4d f8	 mov	 DWORD PTR _pEdit$[ebp], ecx

; 173  : 	if(pEdit)

  00061	85 c9		 test	 ecx, ecx
  00063	74 11		 je	 SHORT $LN3@ClearInfo

; 174  : 	{
; 175  : 		pEdit->ClearString();

  00065	ff 15 00 00 00
	00		 call	 DWORD PTR __imp_?ClearString@ioEdit@@QAEXXZ

; 176  : 		pEdit->KillKeyFocus();

  0006b	8b 4d f8	 mov	 ecx, DWORD PTR _pEdit$[ebp]
  0006e	8b 01		 mov	 eax, DWORD PTR [ecx]
  00070	ff 90 34 01 00
	00		 call	 DWORD PTR [eax+308]
$LN3@ClearInfo:

; 177  : 	}
; 178  : 
; 179  : 	ioButton *pSecondBtn = dynamic_cast<ioButton*> ( FindChildWnd( ID_FILENAME_BTN ) );

  00076	8b 4d fc	 mov	 ecx, DWORD PTR _this$[ebp]
  00079	6a 00		 push	 0
  0007b	68 00 00 00 00	 push	 OFFSET ??_R0?AVioButton@@@8
  00080	57		 push	 edi
  00081	6a 00		 push	 0
  00083	6a 03		 push	 3
  00085	ff d6		 call	 esi
  00087	50		 push	 eax
  00088	e8 00 00 00 00	 call	 ___RTDynamicCast
  0008d	83 c4 14	 add	 esp, 20			; 00000014H

; 180  : 	if( pSecondBtn )

  00090	85 c0		 test	 eax, eax
  00092	74 0c		 je	 SHORT $LN2@ClearInfo

; 181  : 	{
; 182  : 		pSecondBtn->SetTitleText( "" );

  00094	6a 00		 push	 0
  00096	53		 push	 ebx
  00097	53		 push	 ebx
  00098	8b c8		 mov	 ecx, eax
  0009a	ff 15 00 00 00
	00		 call	 DWORD PTR __imp_?SetTitleText@ioWnd@@QAEXPBD0H@Z
$LN2@ClearInfo:

; 183  : 	}
; 184  : 
; 185  : 	ioWnd *pPlayBtn = FindChildWnd( ID_PLAY_BTN );

  000a0	8b 4d fc	 mov	 ecx, DWORD PTR _this$[ebp]
  000a3	6a 04		 push	 4
  000a5	ff d6		 call	 esi
  000a7	5f		 pop	 edi
  000a8	5e		 pop	 esi
  000a9	5b		 pop	 ebx

; 186  : 	if( pPlayBtn )

  000aa	85 c0		 test	 eax, eax
  000ac	74 07		 je	 SHORT $LN1@ClearInfo

; 187  : 		pPlayBtn->SetInActive();

  000ae	8b 10		 mov	 edx, DWORD PTR [eax]
  000b0	8b c8		 mov	 ecx, eax
  000b2	ff 52 24	 call	 DWORD PTR [edx+36]
$LN1@ClearInfo:

; 188  : }

  000b5	c9		 leave
  000b6	c3		 ret	 0
?ClearInfo@SettingCustomSoundItemWnd@@QAEXXZ ENDP	; SettingCustomSoundItemWnd::ClearInfo
_TEXT	ENDS
PUBLIC	?SetKeywordBtnToEdit@SettingCustomSoundItemWnd@@QAEXXZ ; SettingCustomSoundItemWnd::SetKeywordBtnToEdit
EXTRN	__imp_??1ioHashString@@QAE@XZ:PROC
EXTRN	__imp_??0ioHashString@@QAE@XZ:PROC
EXTRN	__imp_?ShowChildWnd@ioWnd@@QAEXK_N@Z:PROC
EXTRN	__imp_?HideChildWnd@ioWnd@@QAEXK_N@Z:PROC
EXTRN	___CxxFrameHandler3:PROC
EXTRN	@__security_check_cookie@4:PROC
EXTRN	__EH_epilog3:PROC
EXTRN	__EH_prolog3:PROC
;	COMDAT xdata$x
xdata$x	SEGMENT
__unwindtable$?SetKeywordBtnToEdit@SettingCustomSoundItemWnd@@QAEXXZ DD 0ffffffffH
	DD	FLAT:__unwindfunclet$?SetKeywordBtnToEdit@SettingCustomSoundItemWnd@@QAEXXZ$0
__ehfuncinfo$?SetKeywordBtnToEdit@SettingCustomSoundItemWnd@@QAEXXZ DD 019930522H
	DD	01H
	DD	FLAT:__unwindtable$?SetKeywordBtnToEdit@SettingCustomSoundItemWnd@@QAEXXZ
	DD	2 DUP(00H)
	DD	2 DUP(00H)
	DD	00H
	DD	01H
; Function compile flags: /Ogsp
xdata$x	ENDS
;	COMDAT ?SetKeywordBtnToEdit@SettingCustomSoundItemWnd@@QAEXXZ
_TEXT	SEGMENT
_szKeyword$ = -32					; size = 16
_this$ = -16						; size = 4
__$EHRec$ = -12						; size = 12
?SetKeywordBtnToEdit@SettingCustomSoundItemWnd@@QAEXXZ PROC ; SettingCustomSoundItemWnd::SetKeywordBtnToEdit, COMDAT
; _this$ = ecx

; 191  : {

  00000	6a 14		 push	 20			; 00000014H
  00002	b8 00 00 00 00	 mov	 eax, __ehhandler$?SetKeywordBtnToEdit@SettingCustomSoundItemWnd@@QAEXXZ
  00007	e8 00 00 00 00	 call	 __EH_prolog3
  0000c	8b f1		 mov	 esi, ecx
  0000e	89 75 f0	 mov	 DWORD PTR _this$[ebp], esi

; 192  : 	HideChildWnd( ID_KEYWORD_BTN );

  00011	33 db		 xor	 ebx, ebx
  00013	53		 push	 ebx
  00014	6a 01		 push	 1
  00016	ff 15 00 00 00
	00		 call	 DWORD PTR __imp_?HideChildWnd@ioWnd@@QAEXK_N@Z

; 193  : 	ShowChildWnd( ID_KEYWORD_EDIT );

  0001c	53		 push	 ebx
  0001d	6a 02		 push	 2
  0001f	8b ce		 mov	 ecx, esi
  00021	ff 15 00 00 00
	00		 call	 DWORD PTR __imp_?ShowChildWnd@ioWnd@@QAEXK_N@Z

; 194  : 
; 195  : 	ioHashString szKeyword;

  00027	8d 4d e0	 lea	 ecx, DWORD PTR _szKeyword$[ebp]
  0002a	ff 15 00 00 00
	00		 call	 DWORD PTR __imp_??0ioHashString@@QAE@XZ

; 196  : 	ioButton *pFirstBtn = dynamic_cast<ioButton*> ( FindChildWnd( ID_KEYWORD_BTN) );

  00030	53		 push	 ebx
  00031	68 00 00 00 00	 push	 OFFSET ??_R0?AVioButton@@@8
  00036	bf 00 00 00 00	 mov	 edi, OFFSET ??_R0?AVioWnd@@@8
  0003b	57		 push	 edi
  0003c	53		 push	 ebx
  0003d	8b ce		 mov	 ecx, esi
  0003f	8b 35 00 00 00
	00		 mov	 esi, DWORD PTR __imp_?FindChildWnd@ioWnd@@QAEPAV1@K@Z
  00045	6a 01		 push	 1
  00047	89 5d fc	 mov	 DWORD PTR __$EHRec$[ebp+8], ebx
  0004a	ff d6		 call	 esi
  0004c	50		 push	 eax
  0004d	e8 00 00 00 00	 call	 ___RTDynamicCast
  00052	83 c4 14	 add	 esp, 20			; 00000014H

; 197  : 	if( pFirstBtn )

  00055	3b c3		 cmp	 eax, ebx
  00057	74 18		 je	 SHORT $LN2@SetKeyword

; 198  : 	{
; 199  : 		ioUITitle *pTitle = pFirstBtn->GetTitle();

  00059	8b c8		 mov	 ecx, eax
  0005b	ff 15 00 00 00
	00		 call	 DWORD PTR __imp_?GetTitle@ioWnd@@QBEPAVioUITitle@@XZ

; 200  : 		if( pTitle )

  00061	3b c3		 cmp	 eax, ebx
  00063	74 0c		 je	 SHORT $LN2@SetKeyword

; 201  : 			pTitle->GetFirstText( szKeyword );

  00065	8d 4d e0	 lea	 ecx, DWORD PTR _szKeyword$[ebp]
  00068	51		 push	 ecx
  00069	8b c8		 mov	 ecx, eax
  0006b	ff 15 00 00 00
	00		 call	 DWORD PTR __imp_?GetFirstText@ioUITitle@@QAEXAAVioHashString@@@Z
$LN2@SetKeyword:

; 202  : 	}
; 203  : 
; 204  : 	ioEdit *pEdit = dynamic_cast<ioEdit*> ( FindChildWnd(ID_KEYWORD_EDIT) );

  00071	8b 4d f0	 mov	 ecx, DWORD PTR _this$[ebp]
  00074	53		 push	 ebx
  00075	68 00 00 00 00	 push	 OFFSET ??_R0?AVioEdit@@@8
  0007a	57		 push	 edi
  0007b	53		 push	 ebx
  0007c	6a 02		 push	 2
  0007e	ff d6		 call	 esi
  00080	50		 push	 eax
  00081	e8 00 00 00 00	 call	 ___RTDynamicCast
  00086	8b f0		 mov	 esi, eax
  00088	83 c4 14	 add	 esp, 20			; 00000014H

; 205  : 	if( pEdit )

  0008b	3b f3		 cmp	 esi, ebx
  0008d	74 1c		 je	 SHORT $LN1@SetKeyword

; 206  : 	{
; 207  : 		pEdit->SetText( szKeyword.c_str() );

  0008f	8d 4d e0	 lea	 ecx, DWORD PTR _szKeyword$[ebp]
  00092	ff 15 00 00 00
	00		 call	 DWORD PTR __imp_?c_str@ioHashString@@QBEPBDXZ
  00098	50		 push	 eax
  00099	8b ce		 mov	 ecx, esi
  0009b	ff 15 00 00 00
	00		 call	 DWORD PTR __imp_?SetText@ioEdit@@QAEXPBD@Z

; 208  : 		pEdit->SetKeyFocus();

  000a1	8b 06		 mov	 eax, DWORD PTR [esi]
  000a3	8b ce		 mov	 ecx, esi
  000a5	ff 90 30 01 00
	00		 call	 DWORD PTR [eax+304]
$LN1@SetKeyword:

; 209  : 	}
; 210  : }

  000ab	83 4d fc ff	 or	 DWORD PTR __$EHRec$[ebp+8], -1
  000af	8d 4d e0	 lea	 ecx, DWORD PTR _szKeyword$[ebp]
  000b2	ff 15 00 00 00
	00		 call	 DWORD PTR __imp_??1ioHashString@@QAE@XZ
  000b8	e8 00 00 00 00	 call	 __EH_epilog3
  000bd	c3		 ret	 0
_TEXT	ENDS
;	COMDAT text$x
text$x	SEGMENT
__unwindfunclet$?SetKeywordBtnToEdit@SettingCustomSoundItemWnd@@QAEXXZ$0:
  00000	8d 4d e0	 lea	 ecx, DWORD PTR _szKeyword$[ebp]
  00003	ff 25 00 00 00
	00		 jmp	 DWORD PTR __imp_??1ioHashString@@QAE@XZ
__ehhandler$?SetKeywordBtnToEdit@SettingCustomSoundItemWnd@@QAEXXZ:
  00009	8b 54 24 08	 mov	 edx, DWORD PTR [esp+8]
  0000d	8d 42 0c	 lea	 eax, DWORD PTR [edx+12]
  00010	8b 4a dc	 mov	 ecx, DWORD PTR [edx-36]
  00013	33 c8		 xor	 ecx, eax
  00015	e8 00 00 00 00	 call	 @__security_check_cookie@4
  0001a	b8 00 00 00 00	 mov	 eax, OFFSET __ehfuncinfo$?SetKeywordBtnToEdit@SettingCustomSoundItemWnd@@QAEXXZ
  0001f	e9 00 00 00 00	 jmp	 ___CxxFrameHandler3
text$x	ENDS
?SetKeywordBtnToEdit@SettingCustomSoundItemWnd@@QAEXXZ ENDP ; SettingCustomSoundItemWnd::SetKeywordBtnToEdit
PUBLIC	?SetKeywordEditToBtn@SettingCustomSoundItemWnd@@QAEXXZ ; SettingCustomSoundItemWnd::SetKeywordEditToBtn
EXTRN	__imp_?GetText@ioEdit@@QBEPBDXZ:PROC
; Function compile flags: /Ogsp
;	COMDAT ?SetKeywordEditToBtn@SettingCustomSoundItemWnd@@QAEXXZ
_TEXT	SEGMENT
_pEdit$ = -8						; size = 4
_this$ = -4						; size = 4
?SetKeywordEditToBtn@SettingCustomSoundItemWnd@@QAEXXZ PROC ; SettingCustomSoundItemWnd::SetKeywordEditToBtn, COMDAT
; _this$ = ecx

; 214  : {

  00000	55		 push	 ebp
  00001	8b ec		 mov	 ebp, esp
  00003	51		 push	 ecx
  00004	51		 push	 ecx
  00005	53		 push	 ebx
  00006	56		 push	 esi

; 215  : 	ioEdit *pEdit = dynamic_cast<ioEdit*> ( FindChildWnd( ID_KEYWORD_EDIT ) );

  00007	8b 35 00 00 00
	00		 mov	 esi, DWORD PTR __imp_?FindChildWnd@ioWnd@@QAEPAV1@K@Z
  0000d	57		 push	 edi
  0000e	33 db		 xor	 ebx, ebx
  00010	53		 push	 ebx
  00011	68 00 00 00 00	 push	 OFFSET ??_R0?AVioEdit@@@8
  00016	bf 00 00 00 00	 mov	 edi, OFFSET ??_R0?AVioWnd@@@8
  0001b	57		 push	 edi
  0001c	53		 push	 ebx
  0001d	6a 02		 push	 2
  0001f	89 4d fc	 mov	 DWORD PTR _this$[ebp], ecx
  00022	ff d6		 call	 esi
  00024	50		 push	 eax
  00025	e8 00 00 00 00	 call	 ___RTDynamicCast
  0002a	83 c4 14	 add	 esp, 20			; 00000014H
  0002d	89 45 f8	 mov	 DWORD PTR _pEdit$[ebp], eax

; 216  : 	if( !pEdit )

  00030	3b c3		 cmp	 eax, ebx
  00032	74 36		 je	 SHORT $LN3@SetKeyword@2

; 217  : 		return;
; 218  : 
; 219  : 	ioButton *pFirstBtn = dynamic_cast<ioButton*> ( FindChildWnd( ID_KEYWORD_BTN) );

  00034	8b 4d fc	 mov	 ecx, DWORD PTR _this$[ebp]
  00037	53		 push	 ebx
  00038	68 00 00 00 00	 push	 OFFSET ??_R0?AVioButton@@@8
  0003d	57		 push	 edi
  0003e	53		 push	 ebx
  0003f	6a 01		 push	 1
  00041	ff d6		 call	 esi
  00043	50		 push	 eax
  00044	e8 00 00 00 00	 call	 ___RTDynamicCast
  00049	8b f0		 mov	 esi, eax
  0004b	83 c4 14	 add	 esp, 20			; 00000014H

; 220  : 	if( !pFirstBtn )

  0004e	3b f3		 cmp	 esi, ebx
  00050	74 18		 je	 SHORT $LN3@SetKeyword@2

; 221  : 		return; 
; 222  : 	
; 223  : 	pFirstBtn->SetTitleText( pEdit->GetText() );

  00052	8b 4d f8	 mov	 ecx, DWORD PTR _pEdit$[ebp]
  00055	53		 push	 ebx
  00056	68 00 00 00 00	 push	 OFFSET ??_C@_00CNPNBAHC@?$AA@
  0005b	ff 15 00 00 00
	00		 call	 DWORD PTR __imp_?GetText@ioEdit@@QBEPBDXZ
  00061	50		 push	 eax
  00062	8b ce		 mov	 ecx, esi
  00064	ff 15 00 00 00
	00		 call	 DWORD PTR __imp_?SetTitleText@ioWnd@@QAEXPBD0H@Z
$LN3@SetKeyword@2:
  0006a	5f		 pop	 edi
  0006b	5e		 pop	 esi
  0006c	5b		 pop	 ebx

; 224  : }

  0006d	c9		 leave
  0006e	c3		 ret	 0
?SetKeywordEditToBtn@SettingCustomSoundItemWnd@@QAEXXZ ENDP ; SettingCustomSoundItemWnd::SetKeywordEditToBtn
_TEXT	ENDS
PUBLIC	?ShowKeywordBtn@SettingCustomSoundItemWnd@@QAEXXZ ; SettingCustomSoundItemWnd::ShowKeywordBtn
; Function compile flags: /Ogsp
;	COMDAT ?ShowKeywordBtn@SettingCustomSoundItemWnd@@QAEXXZ
_TEXT	SEGMENT
?ShowKeywordBtn@SettingCustomSoundItemWnd@@QAEXXZ PROC	; SettingCustomSoundItemWnd::ShowKeywordBtn, COMDAT
; _this$ = ecx

; 228  : {

  00000	56		 push	 esi

; 229  : 	HideChildWnd( ID_KEYWORD_EDIT);

  00001	6a 00		 push	 0
  00003	6a 02		 push	 2
  00005	8b f1		 mov	 esi, ecx
  00007	ff 15 00 00 00
	00		 call	 DWORD PTR __imp_?HideChildWnd@ioWnd@@QAEXK_N@Z

; 230  : 	ShowChildWnd( ID_KEYWORD_BTN );

  0000d	6a 00		 push	 0
  0000f	6a 01		 push	 1
  00011	8b ce		 mov	 ecx, esi
  00013	ff 15 00 00 00
	00		 call	 DWORD PTR __imp_?ShowChildWnd@ioWnd@@QAEXK_N@Z
  00019	5e		 pop	 esi

; 231  : }

  0001a	c3		 ret	 0
?ShowKeywordBtn@SettingCustomSoundItemWnd@@QAEXXZ ENDP	; SettingCustomSoundItemWnd::ShowKeywordBtn
_TEXT	ENDS
PUBLIC	?SetFileNameInfo@SettingCustomSoundItemWnd@@QAEXPBD@Z ; SettingCustomSoundItemWnd::SetFileNameInfo
; Function compile flags: /Ogsp
;	COMDAT ?SetFileNameInfo@SettingCustomSoundItemWnd@@QAEXPBD@Z
_TEXT	SEGMENT
_this$ = -4						; size = 4
_szFileName$ = 8					; size = 4
?SetFileNameInfo@SettingCustomSoundItemWnd@@QAEXPBD@Z PROC ; SettingCustomSoundItemWnd::SetFileNameInfo, COMDAT
; _this$ = ecx

; 234  : {

  00000	55		 push	 ebp
  00001	8b ec		 mov	 ebp, esp
  00003	51		 push	 ecx
  00004	56		 push	 esi

; 235  : 	ioButton *pSecondBtn = dynamic_cast<ioButton*> ( FindChildWnd( ID_FILENAME_BTN ) );

  00005	8b 35 00 00 00
	00		 mov	 esi, DWORD PTR __imp_?FindChildWnd@ioWnd@@QAEPAV1@K@Z
  0000b	57		 push	 edi
  0000c	6a 00		 push	 0
  0000e	68 00 00 00 00	 push	 OFFSET ??_R0?AVioButton@@@8
  00013	68 00 00 00 00	 push	 OFFSET ??_R0?AVioWnd@@@8
  00018	6a 00		 push	 0
  0001a	6a 03		 push	 3
  0001c	89 4d fc	 mov	 DWORD PTR _this$[ebp], ecx
  0001f	ff d6		 call	 esi
  00021	50		 push	 eax
  00022	e8 00 00 00 00	 call	 ___RTDynamicCast
  00027	83 c4 14	 add	 esp, 20			; 00000014H

; 236  : 	if( pSecondBtn )

  0002a	bf 00 00 00 00	 mov	 edi, OFFSET ??_C@_00CNPNBAHC@?$AA@
  0002f	85 c0		 test	 eax, eax
  00031	74 0e		 je	 SHORT $LN4@SetFileNam

; 237  : 		pSecondBtn->SetTitleText( szFileName );

  00033	6a 00		 push	 0
  00035	57		 push	 edi
  00036	ff 75 08	 push	 DWORD PTR _szFileName$[ebp]
  00039	8b c8		 mov	 ecx, eax
  0003b	ff 15 00 00 00
	00		 call	 DWORD PTR __imp_?SetTitleText@ioWnd@@QAEXPBD0H@Z
$LN4@SetFileNam:

; 238  : 
; 239  : 	ioWnd *pPlayBtn = FindChildWnd( ID_PLAY_BTN );

  00041	8b 4d fc	 mov	 ecx, DWORD PTR _this$[ebp]
  00044	6a 04		 push	 4
  00046	ff d6		 call	 esi

; 240  : 	if( !pPlayBtn )

  00048	85 c0		 test	 eax, eax
  0004a	74 18		 je	 SHORT $LN1@SetFileNam

; 241  : 		return;
; 242  : 
; 243  : 	if( strcmp( szFileName, "") == 0 )

  0004c	8b 75 08	 mov	 esi, DWORD PTR _szFileName$[ebp]
  0004f	33 c9		 xor	 ecx, ecx
  00051	41		 inc	 ecx
  00052	33 d2		 xor	 edx, edx

; 244  : 		pPlayBtn->SetInActive();

  00054	8b 10		 mov	 edx, DWORD PTR [eax]
  00056	f3 a6		 repe cmpsb
  00058	8b c8		 mov	 ecx, eax
  0005a	75 05		 jne	 SHORT $LN2@SetFileNam
  0005c	ff 52 24	 call	 DWORD PTR [edx+36]

; 245  : 	else

  0005f	eb 03		 jmp	 SHORT $LN1@SetFileNam
$LN2@SetFileNam:

; 246  : 		pPlayBtn->SetActive();

  00061	ff 52 20	 call	 DWORD PTR [edx+32]
$LN1@SetFileNam:
  00064	5f		 pop	 edi
  00065	5e		 pop	 esi

; 247  : }

  00066	c9		 leave
  00067	c2 04 00	 ret	 4
?SetFileNameInfo@SettingCustomSoundItemWnd@@QAEXPBD@Z ENDP ; SettingCustomSoundItemWnd::SetFileNameInfo
_TEXT	ENDS
PUBLIC	?GetFileName@SettingCustomSoundItemWnd@@QAEXAAVioHashString@@@Z ; SettingCustomSoundItemWnd::GetFileName
; Function compile flags: /Ogsp
;	COMDAT ?GetFileName@SettingCustomSoundItemWnd@@QAEXAAVioHashString@@@Z
_TEXT	SEGMENT
_rszFileName$ = 8					; size = 4
?GetFileName@SettingCustomSoundItemWnd@@QAEXAAVioHashString@@@Z PROC ; SettingCustomSoundItemWnd::GetFileName, COMDAT
; _this$ = ecx

; 250  : {

  00000	55		 push	 ebp
  00001	8b ec		 mov	 ebp, esp

; 251  : 	ioWnd *pBtn = FindChildWnd( ID_FILENAME_BTN );

  00003	6a 03		 push	 3
  00005	ff 15 00 00 00
	00		 call	 DWORD PTR __imp_?FindChildWnd@ioWnd@@QAEPAV1@K@Z

; 252  : 	if( pBtn )

  0000b	85 c0		 test	 eax, eax
  0000d	74 15		 je	 SHORT $LN1@GetFileNam

; 253  : 	{
; 254  : 		ioUITitle *pTitle = pBtn->GetTitle();

  0000f	8b c8		 mov	 ecx, eax
  00011	ff 15 00 00 00
	00		 call	 DWORD PTR __imp_?GetTitle@ioWnd@@QBEPAVioUITitle@@XZ

; 255  : 		if( pTitle )

  00017	85 c0		 test	 eax, eax
  00019	74 09		 je	 SHORT $LN1@GetFileNam

; 256  : 			pTitle->GetFirstText( rszFileName );

  0001b	8b c8		 mov	 ecx, eax

; 257  : 	}
; 258  : }

  0001d	5d		 pop	 ebp

; 256  : 			pTitle->GetFirstText( rszFileName );

  0001e	ff 25 00 00 00
	00		 jmp	 DWORD PTR __imp_?GetFirstText@ioUITitle@@QAEXAAVioHashString@@@Z
$LN1@GetFileNam:

; 257  : 	}
; 258  : }

  00024	5d		 pop	 ebp
  00025	c2 04 00	 ret	 4
?GetFileName@SettingCustomSoundItemWnd@@QAEXAAVioHashString@@@Z ENDP ; SettingCustomSoundItemWnd::GetFileName
_TEXT	ENDS
PUBLIC	__real@42e40000
PUBLIC	__real@428e0000
EXTRN	__imp_?SetPrintTextStyle@ioUITitle@@QAEXW4PrintTextStyle@1@@Z:PROC
EXTRN	__imp_?SetWidthCutSize@ioUITitle@@QAEXM@Z:PROC
EXTRN	__fltused:DWORD
;	COMDAT __real@42e40000
CONST	SEGMENT
__real@42e40000 DD 042e40000r			; 114
CONST	ENDS
;	COMDAT __real@428e0000
CONST	SEGMENT
__real@428e0000 DD 0428e0000r			; 71
; Function compile flags: /Ogsp
CONST	ENDS
;	COMDAT ?iwm_create@SettingCustomSoundItemWnd@@MAEXXZ
_TEXT	SEGMENT
_this$ = -8						; size = 4
_pTitle$545567 = -4					; size = 4
?iwm_create@SettingCustomSoundItemWnd@@MAEXXZ PROC	; SettingCustomSoundItemWnd::iwm_create, COMDAT
; _this$ = ecx

; 261  : {

  00000	55		 push	 ebp
  00001	8b ec		 mov	 ebp, esp
  00003	51		 push	 ecx
  00004	51		 push	 ecx
  00005	53		 push	 ebx
  00006	56		 push	 esi

; 262  : 	ioButton *pFirstBtn = dynamic_cast<ioButton*> ( FindChildWnd( ID_KEYWORD_BTN) );

  00007	8b 35 00 00 00
	00		 mov	 esi, DWORD PTR __imp_?FindChildWnd@ioWnd@@QAEPAV1@K@Z
  0000d	57		 push	 edi
  0000e	6a 00		 push	 0
  00010	bb 00 00 00 00	 mov	 ebx, OFFSET ??_R0?AVioButton@@@8
  00015	53		 push	 ebx
  00016	bf 00 00 00 00	 mov	 edi, OFFSET ??_R0?AVioWnd@@@8
  0001b	57		 push	 edi
  0001c	6a 00		 push	 0
  0001e	6a 01		 push	 1
  00020	89 4d f8	 mov	 DWORD PTR _this$[ebp], ecx
  00023	ff d6		 call	 esi
  00025	50		 push	 eax
  00026	e8 00 00 00 00	 call	 ___RTDynamicCast
  0002b	83 c4 14	 add	 esp, 20			; 00000014H

; 263  : 	if( pFirstBtn )

  0002e	85 c0		 test	 eax, eax
  00030	74 30		 je	 SHORT $LN7@iwm_create

; 264  : 	{
; 265  : 		ioUITitle *pTitle = pFirstBtn->GetTitle();

  00032	8b c8		 mov	 ecx, eax
  00034	ff 15 00 00 00
	00		 call	 DWORD PTR __imp_?GetTitle@ioWnd@@QBEPAVioUITitle@@XZ
  0003a	8b c8		 mov	 ecx, eax
  0003c	89 4d fc	 mov	 DWORD PTR _pTitle$545567[ebp], ecx

; 266  : 		if( pTitle )

  0003f	85 c9		 test	 ecx, ecx
  00041	74 1f		 je	 SHORT $LN7@iwm_create

; 267  : 		{
; 268  : 			pTitle->SetWidthCutSize(71.0f);

  00043	f3 0f 10 05 00
	00 00 00	 movss	 xmm0, DWORD PTR __real@428e0000
  0004b	51		 push	 ecx
  0004c	f3 0f 11 04 24	 movss	 DWORD PTR [esp], xmm0
  00051	ff 15 00 00 00
	00		 call	 DWORD PTR __imp_?SetWidthCutSize@ioUITitle@@QAEXM@Z

; 269  : 			pTitle->SetPrintTextStyle( ioUITitle::PTS_WIDTHCUT );

  00057	8b 4d fc	 mov	 ecx, DWORD PTR _pTitle$545567[ebp]
  0005a	6a 02		 push	 2
  0005c	ff 15 00 00 00
	00		 call	 DWORD PTR __imp_?SetPrintTextStyle@ioUITitle@@QAEXW4PrintTextStyle@1@@Z
$LN7@iwm_create:

; 270  : 		}
; 271  : 	}
; 272  : 
; 273  : 	ioButton *pSecondBtn = dynamic_cast<ioButton*> ( FindChildWnd( ID_FILENAME_BTN ) );

  00062	8b 4d f8	 mov	 ecx, DWORD PTR _this$[ebp]
  00065	6a 00		 push	 0
  00067	53		 push	 ebx
  00068	57		 push	 edi
  00069	6a 00		 push	 0
  0006b	6a 03		 push	 3
  0006d	ff d6		 call	 esi
  0006f	50		 push	 eax
  00070	e8 00 00 00 00	 call	 ___RTDynamicCast
  00075	83 c4 14	 add	 esp, 20			; 00000014H

; 274  : 	if( pSecondBtn )

  00078	85 c0		 test	 eax, eax
  0007a	74 2e		 je	 SHORT $LN1@iwm_create

; 275  : 	{
; 276  : 		ioUITitle *pTitle = pSecondBtn->GetTitle();

  0007c	8b c8		 mov	 ecx, eax
  0007e	ff 15 00 00 00
	00		 call	 DWORD PTR __imp_?GetTitle@ioWnd@@QBEPAVioUITitle@@XZ
  00084	8b f0		 mov	 esi, eax

; 277  : 		if( pTitle )

  00086	85 f6		 test	 esi, esi
  00088	74 20		 je	 SHORT $LN1@iwm_create

; 278  : 		{
; 279  : 			pTitle->SetWidthCutSize(114.0f);

  0008a	f3 0f 10 05 00
	00 00 00	 movss	 xmm0, DWORD PTR __real@42e40000
  00092	51		 push	 ecx
  00093	8b ce		 mov	 ecx, esi
  00095	f3 0f 11 04 24	 movss	 DWORD PTR [esp], xmm0
  0009a	ff 15 00 00 00
	00		 call	 DWORD PTR __imp_?SetWidthCutSize@ioUITitle@@QAEXM@Z

; 280  : 			pTitle->SetPrintTextStyle( ioUITitle::PTS_WIDTHCUT );

  000a0	6a 02		 push	 2
  000a2	8b ce		 mov	 ecx, esi
  000a4	ff 15 00 00 00
	00		 call	 DWORD PTR __imp_?SetPrintTextStyle@ioUITitle@@QAEXW4PrintTextStyle@1@@Z
$LN1@iwm_create:
  000aa	5f		 pop	 edi
  000ab	5e		 pop	 esi
  000ac	5b		 pop	 ebx

; 281  : 		}
; 282  : 	}
; 283  : }

  000ad	c9		 leave
  000ae	c3		 ret	 0
?iwm_create@SettingCustomSoundItemWnd@@MAEXXZ ENDP	; SettingCustomSoundItemWnd::iwm_create
_TEXT	ENDS
PUBLIC	?GetKeywordByEdit@SettingCustomSoundItemWnd@@QAEPBDXZ ; SettingCustomSoundItemWnd::GetKeywordByEdit
; Function compile flags: /Ogsp
;	COMDAT ?GetKeywordByEdit@SettingCustomSoundItemWnd@@QAEPBDXZ
_TEXT	SEGMENT
?GetKeywordByEdit@SettingCustomSoundItemWnd@@QAEPBDXZ PROC ; SettingCustomSoundItemWnd::GetKeywordByEdit, COMDAT
; _this$ = ecx

; 287  : 	ioEdit *pEdit = dynamic_cast<ioEdit*> ( FindChildWnd( ID_KEYWORD_EDIT ) );

  00000	6a 00		 push	 0
  00002	68 00 00 00 00	 push	 OFFSET ??_R0?AVioEdit@@@8
  00007	68 00 00 00 00	 push	 OFFSET ??_R0?AVioWnd@@@8
  0000c	6a 00		 push	 0
  0000e	6a 02		 push	 2
  00010	ff 15 00 00 00
	00		 call	 DWORD PTR __imp_?FindChildWnd@ioWnd@@QAEPAV1@K@Z
  00016	50		 push	 eax
  00017	e8 00 00 00 00	 call	 ___RTDynamicCast
  0001c	83 c4 14	 add	 esp, 20			; 00000014H

; 288  : 	if( !pEdit )

  0001f	85 c0		 test	 eax, eax
  00021	75 01		 jne	 SHORT $LN1@GetKeyword

; 292  : }

  00023	c3		 ret	 0
$LN1@GetKeyword:

; 289  : 		return NULL;
; 290  : 
; 291  : 	return pEdit->GetText();

  00024	8b c8		 mov	 ecx, eax
  00026	ff 25 00 00 00
	00		 jmp	 DWORD PTR __imp_?GetText@ioEdit@@QBEPBDXZ
?GetKeywordByEdit@SettingCustomSoundItemWnd@@QAEPBDXZ ENDP ; SettingCustomSoundItemWnd::GetKeywordByEdit
_TEXT	ENDS
PUBLIC	?SetKeywordEdit@SettingCustomSoundItemWnd@@QAEXPBD@Z ; SettingCustomSoundItemWnd::SetKeywordEdit
; Function compile flags: /Ogsp
;	COMDAT ?SetKeywordEdit@SettingCustomSoundItemWnd@@QAEXPBD@Z
_TEXT	SEGMENT
_szKeyword$ = 8						; size = 4
?SetKeywordEdit@SettingCustomSoundItemWnd@@QAEXPBD@Z PROC ; SettingCustomSoundItemWnd::SetKeywordEdit, COMDAT
; _this$ = ecx

; 295  : {

  00000	55		 push	 ebp
  00001	8b ec		 mov	 ebp, esp

; 296  : 	ioEdit *pEdit = dynamic_cast<ioEdit*> ( FindChildWnd( ID_KEYWORD_EDIT ) );

  00003	6a 00		 push	 0
  00005	68 00 00 00 00	 push	 OFFSET ??_R0?AVioEdit@@@8
  0000a	68 00 00 00 00	 push	 OFFSET ??_R0?AVioWnd@@@8
  0000f	6a 00		 push	 0
  00011	6a 02		 push	 2
  00013	ff 15 00 00 00
	00		 call	 DWORD PTR __imp_?FindChildWnd@ioWnd@@QAEPAV1@K@Z
  00019	50		 push	 eax
  0001a	e8 00 00 00 00	 call	 ___RTDynamicCast
  0001f	83 c4 14	 add	 esp, 20			; 00000014H

; 297  : 	if( !pEdit )

  00022	85 c0		 test	 eax, eax
  00024	74 09		 je	 SHORT $LN2@SetKeyword@3

; 298  : 		return ;
; 299  : 
; 300  : 	pEdit->SetText( szKeyword );

  00026	8b c8		 mov	 ecx, eax

; 301  : }

  00028	5d		 pop	 ebp

; 298  : 		return ;
; 299  : 
; 300  : 	pEdit->SetText( szKeyword );

  00029	ff 25 00 00 00
	00		 jmp	 DWORD PTR __imp_?SetText@ioEdit@@QAEXPBD@Z
$LN2@SetKeyword@3:

; 301  : }

  0002f	5d		 pop	 ebp
  00030	c2 04 00	 ret	 4
?SetKeywordEdit@SettingCustomSoundItemWnd@@QAEXPBD@Z ENDP ; SettingCustomSoundItemWnd::SetKeywordEdit
_TEXT	ENDS
PUBLIC	??_7GameOptionSettingCustomSoundTab@@6B@	; GameOptionSettingCustomSoundTab::`vftable'
PUBLIC	??0GameOptionSettingCustomSoundTab@@QAE@XZ	; GameOptionSettingCustomSoundTab::GameOptionSettingCustomSoundTab
PUBLIC	??_R4GameOptionSettingCustomSoundTab@@6B@	; GameOptionSettingCustomSoundTab::`RTTI Complete Object Locator'
PUBLIC	??_R0?AVGameOptionSettingCustomSoundTab@@@8	; GameOptionSettingCustomSoundTab `RTTI Type Descriptor'
PUBLIC	??_R3GameOptionSettingCustomSoundTab@@8		; GameOptionSettingCustomSoundTab::`RTTI Class Hierarchy Descriptor'
PUBLIC	??_R2GameOptionSettingCustomSoundTab@@8		; GameOptionSettingCustomSoundTab::`RTTI Base Class Array'
PUBLIC	??_R1A@?0A@EA@GameOptionSettingCustomSoundTab@@8 ; GameOptionSettingCustomSoundTab::`RTTI Base Class Descriptor at (0,-1,0,64)'
PUBLIC	?AddRenderImage@GameOptionSettingCustomSoundTab@@MAEXABVioHashString@@PAVioUIRenderImage@@@Z ; GameOptionSettingCustomSoundTab::AddRenderImage
PUBLIC	?OnRender@GameOptionSettingCustomSoundTab@@MAEXXZ ; GameOptionSettingCustomSoundTab::OnRender
PUBLIC	?iwm_command@GameOptionSettingCustomSoundTab@@UAEXPAVioWnd@@HK@Z ; GameOptionSettingCustomSoundTab::iwm_command
PUBLIC	?iwm_show@GameOptionSettingCustomSoundTab@@UAEXXZ ; GameOptionSettingCustomSoundTab::iwm_show
PUBLIC	?iwm_hide@GameOptionSettingCustomSoundTab@@UAEXXZ ; GameOptionSettingCustomSoundTab::iwm_hide
EXTRN	?iwm_create@ioWnd@@UAEXXZ:PROC			; ioWnd::iwm_create
EXTRN	??_EGameOptionSettingCustomSoundTab@@UAEPAXI@Z:PROC ; GameOptionSettingCustomSoundTab::`vector deleting destructor'
;	COMDAT ??_R1A@?0A@EA@GameOptionSettingCustomSoundTab@@8
rdata$r	SEGMENT
??_R1A@?0A@EA@GameOptionSettingCustomSoundTab@@8 DD FLAT:??_R0?AVGameOptionSettingCustomSoundTab@@@8 ; GameOptionSettingCustomSoundTab::`RTTI Base Class Descriptor at (0,-1,0,64)'
	DD	01H
	DD	00H
	DD	0ffffffffH
	DD	00H
	DD	040H
	DD	FLAT:??_R3GameOptionSettingCustomSoundTab@@8
rdata$r	ENDS
;	COMDAT ??_R2GameOptionSettingCustomSoundTab@@8
rdata$r	SEGMENT
??_R2GameOptionSettingCustomSoundTab@@8 DD FLAT:??_R1A@?0A@EA@GameOptionSettingCustomSoundTab@@8 ; GameOptionSettingCustomSoundTab::`RTTI Base Class Array'
	DD	FLAT:??_R1A@?0A@EA@ioWnd@@8
rdata$r	ENDS
;	COMDAT ??_R3GameOptionSettingCustomSoundTab@@8
rdata$r	SEGMENT
??_R3GameOptionSettingCustomSoundTab@@8 DD 00H		; GameOptionSettingCustomSoundTab::`RTTI Class Hierarchy Descriptor'
	DD	00H
	DD	02H
	DD	FLAT:??_R2GameOptionSettingCustomSoundTab@@8
rdata$r	ENDS
;	COMDAT ??_R0?AVGameOptionSettingCustomSoundTab@@@8
_DATA	SEGMENT
??_R0?AVGameOptionSettingCustomSoundTab@@@8 DD FLAT:??_7type_info@@6B@ ; GameOptionSettingCustomSoundTab `RTTI Type Descriptor'
	DD	00H
	DB	'.?AVGameOptionSettingCustomSoundTab@@', 00H
_DATA	ENDS
;	COMDAT ??_R4GameOptionSettingCustomSoundTab@@6B@
rdata$r	SEGMENT
??_R4GameOptionSettingCustomSoundTab@@6B@ DD 00H	; GameOptionSettingCustomSoundTab::`RTTI Complete Object Locator'
	DD	00H
	DD	00H
	DD	FLAT:??_R0?AVGameOptionSettingCustomSoundTab@@@8
	DD	FLAT:??_R3GameOptionSettingCustomSoundTab@@8
rdata$r	ENDS
;	COMDAT ??_7GameOptionSettingCustomSoundTab@@6B@
CONST	SEGMENT
??_7GameOptionSettingCustomSoundTab@@6B@ DD FLAT:??_R4GameOptionSettingCustomSoundTab@@6B@ ; GameOptionSettingCustomSoundTab::`vftable'
	DD	FLAT:?AddRenderFrame@ioWnd@@UAEXABVioHashString@@PAVioUIRenderFrame@@@Z
	DD	FLAT:?AddRenderImage@GameOptionSettingCustomSoundTab@@MAEXABVioHashString@@PAVioUIRenderImage@@@Z
	DD	FLAT:?AddTooltipHelp@ioWnd@@UAEXABVioHashString@@00@Z
	DD	FLAT:?ParseExtraInfo@ioWnd@@UAEXAAVioXMLElement@@@Z
	DD	FLAT:?AddNamedRenderImage@ioWnd@@UAEXABVioHashString@@PAVioUIRenderImage@@@Z
	DD	FLAT:?RemoveNamedRenderImage@ioWnd@@UAEXABVioHashString@@@Z
	DD	FLAT:?GetNamedRenderImage@ioWnd@@UBEPAVioUIRenderImage@@ABVioHashString@@@Z
	DD	FLAT:?SetWindowAlpha@ioWnd@@UAEXH@Z
	DD	FLAT:?SetActive@ioWnd@@UAEXXZ
	DD	FLAT:?SetInActive@ioWnd@@UAEXXZ
	DD	FLAT:?ClearElementImageList@ioWnd@@UAEXXZ
	DD	FLAT:?SetSize@ioWnd@@UAEXHH@Z
	DD	FLAT:?SetPositionToDefault@ioWnd@@UAEXHH_N0@Z
	DD	FLAT:?IsNeedProcess@ioWnd@@UBE_NXZ
	DD	FLAT:?IsCanMouseReaction@ioWnd@@UBE_NXZ
	DD	FLAT:?AddChild@ioWnd@@UAEXPAV1@@Z
	DD	FLAT:?DeleteChild@ioWnd@@UAEXK@Z
	DD	FLAT:?DeleteAllChild@ioWnd@@UAEXXZ
	DD	FLAT:?OnRenderShowAndHide@ioWnd@@MAE_NXZ
	DD	FLAT:?OnRenderShowAndHideByDefault@ioWnd@@MAE_NK@Z
	DD	FLAT:?OnRenderShowAndHideByTop@ioWnd@@MAE_NK@Z
	DD	FLAT:?OnRenderShowAndHideByDown@ioWnd@@MAE_NK@Z
	DD	FLAT:?OnRender@GameOptionSettingCustomSoundTab@@MAEXXZ
	DD	FLAT:?OnRenderAfterChild@ioWnd@@MAEXXZ
	DD	FLAT:?OnProcess@ioWnd@@MAEXM@Z
	DD	FLAT:?OnMouseProcess@ioWnd@@MAEXABVioMouse@@@Z
	DD	FLAT:?CheckFrameReSize@ioWnd@@MAEXHHHH@Z
	DD	FLAT:?RenderImageList@ioWnd@@MAEXHHW4UIRenderType@@@Z
	DD	FLAT:?iwm_create@ioWnd@@UAEXXZ
	DD	FLAT:?iwm_destroy@ioWnd@@UAEXXZ
	DD	FLAT:?iwm_lbuttondown@ioWnd@@UAEXABVioMouse@@@Z
	DD	FLAT:?iwm_lbuttonup@ioWnd@@UAEXABVioMouse@@@Z
	DD	FLAT:?iwm_lbuttonDBLCLK@ioWnd@@UAEXABVioMouse@@@Z
	DD	FLAT:?iwm_rbuttondown@ioWnd@@UAEXABVioMouse@@@Z
	DD	FLAT:?iwm_rbuttonup@ioWnd@@UAEXABVioMouse@@@Z
	DD	FLAT:?iwm_command@GameOptionSettingCustomSoundTab@@UAEXPAVioWnd@@HK@Z
	DD	FLAT:?iwm_mouseover@ioWnd@@UAEXABVioMouse@@@Z
	DD	FLAT:?iwm_mousemove@ioWnd@@UAEXABVioMouse@@@Z
	DD	FLAT:?iwm_mouseleave@ioWnd@@UAEXABVioMouse@@@Z
	DD	FLAT:?iwm_vscroll@ioWnd@@UAEXKH@Z
	DD	FLAT:?iwm_wheel@ioWnd@@UAEXH@Z
	DD	FLAT:?iwm_show@GameOptionSettingCustomSoundTab@@UAEXXZ
	DD	FLAT:?iwm_hide@GameOptionSettingCustomSoundTab@@UAEXXZ
	DD	FLAT:?iwm_esc@ioWnd@@UAE_NXZ
	DD	FLAT:?iwm_spacebar@ioWnd@@UAE_NXZ
	DD	FLAT:?iwm_gototop@ioWnd@@UAEXXZ
	DD	FLAT:?iwm_dragenter@ioWnd@@UAE?AW4IWDropEffect@@PAVioDragItem@@ABVioMouse@@@Z
	DD	FLAT:?iwm_dragover@ioWnd@@UAE?AW4IWDropEffect@@PAVioDragItem@@ABVioMouse@@@Z
	DD	FLAT:?iwm_dragleave@ioWnd@@UAEXXZ
	DD	FLAT:?iwm_dropitem@ioWnd@@UAE_NPAVioDragItem@@ABVioMouse@@PAV1@@Z
	DD	FLAT:?iwm_dropdone@ioWnd@@UAEXPAVioDragItem@@PAV1@_N@Z
	DD	FLAT:?IsEXType@ioWnd@@UBE_NXZ
	DD	FLAT:?GetWndType@ioWnd@@UBEKXZ
	DD	FLAT:?RenderWnd@ioWnd@@UAEXXZ
	DD	FLAT:?SetIDEX@ioWnd@@UAEXAAK_N@Z
	DD	FLAT:?ParseXML@ioWnd@@UAEXAAVioXMLElement@@@Z
	DD	FLAT:?GetHeaderFileName@ioWnd@@UAEPBDXZ
	DD	FLAT:?GetTemplateName@ioWnd@@UAEPBDXZ
	DD	FLAT:?GetDefClassName@ioWnd@@UBEPBDXZ
	DD	FLAT:?_Clone@ioWnd@@UAEPAV1@XZ
	DD	FLAT:?Copy@ioWnd@@UAEXPAV1@@Z
	DD	FLAT:?Save@ioWnd@@UAE_NAAVioXMLElement@@@Z
	DD	FLAT:?SetSaveData@ioWnd@@UAEXAAVioXMLElement@@@Z
	DD	FLAT:?SetPosX@ioWnd@@UAEXH@Z
	DD	FLAT:?SetPosY@ioWnd@@UAEXH@Z
	DD	FLAT:?SetWidth@ioWnd@@UAEXH@Z
	DD	FLAT:?SetHeight@ioWnd@@UAEXH@Z
	DD	FLAT:?GetNumFixedRenderFrame@ioWnd@@UBEHXZ
	DD	FLAT:?GetFixedRenderFrameType@ioWnd@@UAEPBDH@Z
	DD	FLAT:?GetRenderFrame@ioWnd@@UAEPAPAVioUIRenderElement@@PBD@Z
	DD	FLAT:?GetNumFixedRenderImage@ioWnd@@UBEHXZ
	DD	FLAT:?GetFixedRenderImageType@ioWnd@@UAEPBDH@Z
	DD	FLAT:?GetRenderImage@ioWnd@@UAEPAPAVioUIRenderElement@@PBD@Z
	DD	FLAT:?AddEffect@ioWnd@@UAEXABVioHashString@@PAVioUI3DEffectRender@@@Z
	DD	FLAT:?GetEffect@ioWnd@@UAEPAVioUI3DEffectRender@@VioHashString@@@Z
	DD	FLAT:??_EGameOptionSettingCustomSoundTab@@UAEPAXI@Z
; Function compile flags: /Ogsp
CONST	ENDS
;	COMDAT ??0GameOptionSettingCustomSoundTab@@QAE@XZ
_TEXT	SEGMENT
??0GameOptionSettingCustomSoundTab@@QAE@XZ PROC		; GameOptionSettingCustomSoundTab::GameOptionSettingCustomSoundTab, COMDAT
; _this$ = ecx

; 304  : {

  00000	56		 push	 esi
  00001	8b f1		 mov	 esi, ecx
  00003	ff 15 00 00 00
	00		 call	 DWORD PTR __imp_??0ioWnd@@QAE@XZ

; 305  : 	m_pPreEdit           = NULL;

  00009	83 a6 60 01 00
	00 00		 and	 DWORD PTR [esi+352], 0

; 306  : 	m_dwSelectEditItemID = ID_NONE_SELECT_ITEM_WND;
; 307  : 	m_pDescIcon          = NULL;

  00010	83 a6 68 01 00
	00 00		 and	 DWORD PTR [esi+360], 0
  00017	c7 06 00 00 00
	00		 mov	 DWORD PTR [esi], OFFSET ??_7GameOptionSettingCustomSoundTab@@6B@
  0001d	c7 86 64 01 00
	00 40 42 0f 00	 mov	 DWORD PTR [esi+356], 1000000 ; 000f4240H

; 308  : }

  00027	8b c6		 mov	 eax, esi
  00029	5e		 pop	 esi
  0002a	c3		 ret	 0
??0GameOptionSettingCustomSoundTab@@QAE@XZ ENDP		; GameOptionSettingCustomSoundTab::GameOptionSettingCustomSoundTab
_TEXT	ENDS
PUBLIC	??1GameOptionSettingCustomSoundTab@@UAE@XZ	; GameOptionSettingCustomSoundTab::~GameOptionSettingCustomSoundTab
;	COMDAT xdata$x
xdata$x	SEGMENT
__unwindtable$??1GameOptionSettingCustomSoundTab@@UAE@XZ DD 0ffffffffH
	DD	FLAT:__unwindfunclet$??1GameOptionSettingCustomSoundTab@@UAE@XZ$0
__ehfuncinfo$??1GameOptionSettingCustomSoundTab@@UAE@XZ DD 019930522H
	DD	01H
	DD	FLAT:__unwindtable$??1GameOptionSettingCustomSoundTab@@UAE@XZ
	DD	2 DUP(00H)
	DD	2 DUP(00H)
	DD	00H
	DD	01H
; Function compile flags: /Ogsp
xdata$x	ENDS
;	COMDAT ??1GameOptionSettingCustomSoundTab@@UAE@XZ
_TEXT	SEGMENT
_this$ = -16						; size = 4
__$EHRec$ = -12						; size = 12
??1GameOptionSettingCustomSoundTab@@UAE@XZ PROC		; GameOptionSettingCustomSoundTab::~GameOptionSettingCustomSoundTab, COMDAT
; _this$ = ecx

; 311  : {

  00000	6a 04		 push	 4
  00002	b8 00 00 00 00	 mov	 eax, __ehhandler$??1GameOptionSettingCustomSoundTab@@UAE@XZ
  00007	e8 00 00 00 00	 call	 __EH_prolog3
  0000c	8b f9		 mov	 edi, ecx
  0000e	89 7d f0	 mov	 DWORD PTR _this$[ebp], edi
  00011	c7 07 00 00 00
	00		 mov	 DWORD PTR [edi], OFFSET ??_7GameOptionSettingCustomSoundTab@@6B@

; 312  : 	SAFEDELETE( m_pDescIcon );

  00017	8b 8f 68 01 00
	00		 mov	 ecx, DWORD PTR [edi+360]
  0001d	83 65 fc 00	 and	 DWORD PTR __$EHRec$[ebp+8], 0
  00021	85 c9		 test	 ecx, ecx
  00023	74 0e		 je	 SHORT $LN1@GameOption
  00025	8b 01		 mov	 eax, DWORD PTR [ecx]
  00027	6a 01		 push	 1
  00029	ff 50 40	 call	 DWORD PTR [eax+64]
  0002c	83 a7 68 01 00
	00 00		 and	 DWORD PTR [edi+360], 0
$LN1@GameOption:

; 313  : }

  00033	83 4d fc ff	 or	 DWORD PTR __$EHRec$[ebp+8], -1
  00037	8b cf		 mov	 ecx, edi
  00039	ff 15 00 00 00
	00		 call	 DWORD PTR __imp_??1ioWnd@@UAE@XZ
  0003f	e8 00 00 00 00	 call	 __EH_epilog3
  00044	c3		 ret	 0
_TEXT	ENDS
;	COMDAT text$x
text$x	SEGMENT
__unwindfunclet$??1GameOptionSettingCustomSoundTab@@UAE@XZ$0:
  00000	8b 4d f0	 mov	 ecx, DWORD PTR _this$[ebp]
  00003	ff 25 00 00 00
	00		 jmp	 DWORD PTR __imp_??1ioWnd@@UAE@XZ
__ehhandler$??1GameOptionSettingCustomSoundTab@@UAE@XZ:
  00009	8b 54 24 08	 mov	 edx, DWORD PTR [esp+8]
  0000d	8d 42 0c	 lea	 eax, DWORD PTR [edx+12]
  00010	8b 4a ec	 mov	 ecx, DWORD PTR [edx-20]
  00013	33 c8		 xor	 ecx, eax
  00015	e8 00 00 00 00	 call	 @__security_check_cookie@4
  0001a	b8 00 00 00 00	 mov	 eax, OFFSET __ehfuncinfo$??1GameOptionSettingCustomSoundTab@@UAE@XZ
  0001f	e9 00 00 00 00	 jmp	 ___CxxFrameHandler3
text$x	ENDS
??1GameOptionSettingCustomSoundTab@@UAE@XZ ENDP		; GameOptionSettingCustomSoundTab::~GameOptionSettingCustomSoundTab
EXTRN	__imp_?ShowWnd@ioWnd@@QAEXXZ:PROC
EXTRN	__imp_?m_pKeyFocusEdit@ioEdit@@2PAV1@A:DWORD
; Function compile flags: /Ogsp
;	COMDAT ?iwm_show@GameOptionSettingCustomSoundTab@@UAEXXZ
_TEXT	SEGMENT
?iwm_show@GameOptionSettingCustomSoundTab@@UAEXXZ PROC	; GameOptionSettingCustomSoundTab::iwm_show, COMDAT
; _this$ = ecx

; 317  : 	m_pPreEdit = ioEdit::m_pKeyFocusEdit;

  00000	a1 00 00 00 00	 mov	 eax, DWORD PTR __imp_?m_pKeyFocusEdit@ioEdit@@2PAV1@A
  00005	8b 00		 mov	 eax, DWORD PTR [eax]
  00007	53		 push	 ebx
  00008	56		 push	 esi
  00009	8b d9		 mov	 ebx, ecx
  0000b	57		 push	 edi
  0000c	89 83 60 01 00
	00		 mov	 DWORD PTR [ebx+352], eax

; 318  : 
; 319  : 	for (int i = 0; i < MAX_SHOW_ITEM_WND ; i++)

  00012	33 f6		 xor	 esi, esi
$LL9@iwm_show@2:

; 320  : 	{
; 321  : 		SettingCustomSoundItemWnd *pItem = dynamic_cast<SettingCustomSoundItemWnd*> ( FindChildWnd( ID_SETTING_CUSTOMSOUND_ITEM_WND1 + i));

  00014	6a 00		 push	 0
  00016	68 00 00 00 00	 push	 OFFSET ??_R0?AVSettingCustomSoundItemWnd@@@8
  0001b	68 00 00 00 00	 push	 OFFSET ??_R0?AVioWnd@@@8
  00020	6a 00		 push	 0
  00022	8d 46 65	 lea	 eax, DWORD PTR [esi+101]
  00025	50		 push	 eax
  00026	8b cb		 mov	 ecx, ebx
  00028	ff 15 00 00 00
	00		 call	 DWORD PTR __imp_?FindChildWnd@ioWnd@@QAEPAV1@K@Z
  0002e	50		 push	 eax
  0002f	e8 00 00 00 00	 call	 ___RTDynamicCast
  00034	8b f8		 mov	 edi, eax
  00036	83 c4 14	 add	 esp, 20			; 00000014H

; 322  : 		if( !pItem )

  00039	85 ff		 test	 edi, edi
  0003b	74 0f		 je	 SHORT $LN3@iwm_show@2

; 323  : 			continue;
; 324  : 		pItem->ShowWnd();

  0003d	8b cf		 mov	 ecx, edi
  0003f	ff 15 00 00 00
	00		 call	 DWORD PTR __imp_?ShowWnd@ioWnd@@QAEXXZ

; 325  : 		pItem->ShowKeywordBtn();

  00045	8b cf		 mov	 ecx, edi
  00047	e8 00 00 00 00	 call	 ?ShowKeywordBtn@SettingCustomSoundItemWnd@@QAEXXZ ; SettingCustomSoundItemWnd::ShowKeywordBtn
$LN3@iwm_show@2:

; 318  : 
; 319  : 	for (int i = 0; i < MAX_SHOW_ITEM_WND ; i++)

  0004c	46		 inc	 esi
  0004d	83 fe 0a	 cmp	 esi, 10			; 0000000aH
  00050	7c c2		 jl	 SHORT $LL9@iwm_show@2

; 326  : 	}
; 327  : }

  00052	5f		 pop	 edi
  00053	5e		 pop	 esi
  00054	5b		 pop	 ebx
  00055	c3		 ret	 0
?iwm_show@GameOptionSettingCustomSoundTab@@UAEXXZ ENDP	; GameOptionSettingCustomSoundTab::iwm_show
_TEXT	ENDS
EXTRN	__imp_?IsShow@ioWnd@@QBE_NXZ:PROC
; Function compile flags: /Ogsp
;	COMDAT ?iwm_hide@GameOptionSettingCustomSoundTab@@UAEXXZ
_TEXT	SEGMENT
?iwm_hide@GameOptionSettingCustomSoundTab@@UAEXXZ PROC	; GameOptionSettingCustomSoundTab::iwm_hide, COMDAT
; _this$ = ecx

; 330  : {

  00000	56		 push	 esi
  00001	8b f1		 mov	 esi, ecx

; 331  : 	if( m_pPreEdit )

  00003	8b 8e 60 01 00
	00		 mov	 ecx, DWORD PTR [esi+352]
  00009	57		 push	 edi
  0000a	85 c9		 test	 ecx, ecx
  0000c	74 24		 je	 SHORT $LN4@iwm_hide@2

; 332  : 	{
; 333  : 		ioWnd *pParent = m_pPreEdit->GetParent();

  0000e	ff 15 00 00 00
	00		 call	 DWORD PTR __imp_?GetParent@ioWnd@@QAEPAV1@XZ

; 334  : 		if( pParent )

  00014	85 c0		 test	 eax, eax
  00016	74 1a		 je	 SHORT $LN4@iwm_hide@2

; 335  : 		{
; 336  : 			if( pParent->IsShow() )

  00018	8b c8		 mov	 ecx, eax
  0001a	ff 15 00 00 00
	00		 call	 DWORD PTR __imp_?IsShow@ioWnd@@QBE_NXZ
  00020	84 c0		 test	 al, al
  00022	74 0e		 je	 SHORT $LN4@iwm_hide@2

; 337  : 			{
; 338  : 				m_pPreEdit->SetKeyFocus();

  00024	8b 8e 60 01 00
	00		 mov	 ecx, DWORD PTR [esi+352]
  0002a	8b 01		 mov	 eax, DWORD PTR [ecx]
  0002c	ff 90 30 01 00
	00		 call	 DWORD PTR [eax+304]
$LN4@iwm_hide@2:

; 339  : 			}
; 340  : 		}
; 341  : 	}
; 342  : 	m_pPreEdit = NULL;

  00032	83 a6 60 01 00
	00 00		 and	 DWORD PTR [esi+352], 0

; 343  : 
; 344  : 	for (int i = 0; i < MAX_SHOW_ITEM_WND ; i++)

  00039	33 ff		 xor	 edi, edi
$LL3@iwm_hide@2:

; 345  : 	{
; 346  : 		HideChildWnd( ID_SETTING_CUSTOMSOUND_ITEM_WND1 + i );

  0003b	6a 00		 push	 0
  0003d	8d 47 65	 lea	 eax, DWORD PTR [edi+101]
  00040	50		 push	 eax
  00041	8b ce		 mov	 ecx, esi
  00043	ff 15 00 00 00
	00		 call	 DWORD PTR __imp_?HideChildWnd@ioWnd@@QAEXK_N@Z
  00049	47		 inc	 edi
  0004a	83 ff 0a	 cmp	 edi, 10			; 0000000aH
  0004d	7c ec		 jl	 SHORT $LL3@iwm_hide@2

; 347  : 	}
; 348  : }

  0004f	5f		 pop	 edi
  00050	5e		 pop	 esi
  00051	c3		 ret	 0
?iwm_hide@GameOptionSettingCustomSoundTab@@UAEXXZ ENDP	; GameOptionSettingCustomSoundTab::iwm_hide
_TEXT	ENDS
PUBLIC	?IsExistKeyword@GameOptionSettingCustomSoundTab@@IAE_NPBDK@Z ; GameOptionSettingCustomSoundTab::IsExistKeyword
EXTRN	__imp_??8ioHashString@@QBE_NABV0@@Z:PROC
EXTRN	__imp_??0ioHashString@@QAE@PBD@Z:PROC
;	COMDAT xdata$x
xdata$x	SEGMENT
__unwindtable$?IsExistKeyword@GameOptionSettingCustomSoundTab@@IAE_NPBDK@Z DD 0ffffffffH
	DD	FLAT:__unwindfunclet$?IsExistKeyword@GameOptionSettingCustomSoundTab@@IAE_NPBDK@Z$0
	DD	00H
	DD	FLAT:__unwindfunclet$?IsExistKeyword@GameOptionSettingCustomSoundTab@@IAE_NPBDK@Z$1
	DD	01H
	DD	FLAT:__unwindfunclet$?IsExistKeyword@GameOptionSettingCustomSoundTab@@IAE_NPBDK@Z$2
__ehfuncinfo$?IsExistKeyword@GameOptionSettingCustomSoundTab@@IAE_NPBDK@Z DD 019930522H
	DD	03H
	DD	FLAT:__unwindtable$?IsExistKeyword@GameOptionSettingCustomSoundTab@@IAE_NPBDK@Z
	DD	2 DUP(00H)
	DD	2 DUP(00H)
	DD	00H
	DD	01H
; Function compile flags: /Ogsp
xdata$x	ENDS
;	COMDAT ?IsExistKeyword@GameOptionSettingCustomSoundTab@@IAE_NPBDK@Z
_TEXT	SEGMENT
$T549964 = -76						; size = 16
_szCurFileName$545761 = -60				; size = 16
_szCurKeyword$545760 = -44				; size = 16
_pItem$545757 = -28					; size = 4
_this$ = -24						; size = 4
tv176 = -20						; size = 4
$T549963 = -13						; size = 1
__$EHRec$ = -12						; size = 12
_szKeyword$ = 8						; size = 4
_dwExceptID$ = 12					; size = 4
?IsExistKeyword@GameOptionSettingCustomSoundTab@@IAE_NPBDK@Z PROC ; GameOptionSettingCustomSoundTab::IsExistKeyword, COMDAT
; _this$ = ecx

; 585  : {

  00000	6a 40		 push	 64			; 00000040H
  00002	b8 00 00 00 00	 mov	 eax, __ehhandler$?IsExistKeyword@GameOptionSettingCustomSoundTab@@IAE_NPBDK@Z
  00007	e8 00 00 00 00	 call	 __EH_prolog3
  0000c	89 4d e8	 mov	 DWORD PTR _this$[ebp], ecx

; 586  : 	for (int i = 0; i < MAX_SHOW_ITEM_WND ; i++)

  0000f	8b 3d 00 00 00
	00		 mov	 edi, DWORD PTR __imp_??0ioHashString@@QAE@XZ
  00015	8b 35 00 00 00
	00		 mov	 esi, DWORD PTR __imp_??1ioHashString@@QAE@XZ
  0001b	c7 45 ec 65 00
	00 00		 mov	 DWORD PTR tv176[ebp], 101 ; 00000065H
  00022	33 db		 xor	 ebx, ebx
$LN6@IsExistKey:

; 587  : 	{
; 588  : 		if( dwExceptID == ID_SETTING_CUSTOMSOUND_ITEM_WND1 + i )

  00024	8b 45 ec	 mov	 eax, DWORD PTR tv176[ebp]
  00027	39 45 0c	 cmp	 DWORD PTR _dwExceptID$[ebp], eax
  0002a	0f 84 86 00 00
	00		 je	 $LN5@IsExistKey

; 589  : 			continue;
; 590  : 
; 591  : 		SettingCustomSoundItemWnd *pItem = dynamic_cast<SettingCustomSoundItemWnd*> ( FindChildWnd( ID_SETTING_CUSTOMSOUND_ITEM_WND1 + i));

  00030	8b 4d e8	 mov	 ecx, DWORD PTR _this$[ebp]
  00033	53		 push	 ebx
  00034	68 00 00 00 00	 push	 OFFSET ??_R0?AVSettingCustomSoundItemWnd@@@8
  00039	68 00 00 00 00	 push	 OFFSET ??_R0?AVioWnd@@@8
  0003e	53		 push	 ebx
  0003f	50		 push	 eax
  00040	ff 15 00 00 00
	00		 call	 DWORD PTR __imp_?FindChildWnd@ioWnd@@QAEPAV1@K@Z
  00046	50		 push	 eax
  00047	e8 00 00 00 00	 call	 ___RTDynamicCast
  0004c	83 c4 14	 add	 esp, 20			; 00000014H
  0004f	89 45 e4	 mov	 DWORD PTR _pItem$545757[ebp], eax

; 592  : 		if( !pItem )

  00052	3b c3		 cmp	 eax, ebx
  00054	74 60		 je	 SHORT $LN5@IsExistKey

; 593  : 			continue;
; 594  : 
; 595  : 		ioHashString szCurKeyword;

  00056	8d 4d d4	 lea	 ecx, DWORD PTR _szCurKeyword$545760[ebp]
  00059	ff d7		 call	 edi

; 596  : 		ioHashString szCurFileName;

  0005b	8d 4d c4	 lea	 ecx, DWORD PTR _szCurFileName$545761[ebp]
  0005e	89 5d fc	 mov	 DWORD PTR __$EHRec$[ebp+8], ebx
  00061	ff d7		 call	 edi

; 597  : 		pItem->GetInfo( szCurKeyword, szCurFileName );

  00063	8b 4d e4	 mov	 ecx, DWORD PTR _pItem$545757[ebp]
  00066	8d 45 c4	 lea	 eax, DWORD PTR _szCurFileName$545761[ebp]
  00069	50		 push	 eax
  0006a	8d 45 d4	 lea	 eax, DWORD PTR _szCurKeyword$545760[ebp]
  0006d	50		 push	 eax
  0006e	c6 45 fc 01	 mov	 BYTE PTR __$EHRec$[ebp+8], 1
  00072	e8 00 00 00 00	 call	 ?GetInfo@SettingCustomSoundItemWnd@@QAEXAAVioHashString@@0@Z ; SettingCustomSoundItemWnd::GetInfo

; 598  : 
; 599  : 		if( szCurKeyword == szKeyword )

  00077	ff 75 08	 push	 DWORD PTR _szKeyword$[ebp]
  0007a	8d 4d b4	 lea	 ecx, DWORD PTR $T549964[ebp]
  0007d	ff 15 00 00 00
	00		 call	 DWORD PTR __imp_??0ioHashString@@QAE@PBD@Z
  00083	8d 45 b4	 lea	 eax, DWORD PTR $T549964[ebp]
  00086	50		 push	 eax
  00087	8d 4d d4	 lea	 ecx, DWORD PTR _szCurKeyword$545760[ebp]
  0008a	c6 45 fc 02	 mov	 BYTE PTR __$EHRec$[ebp+8], 2
  0008e	ff 15 00 00 00
	00		 call	 DWORD PTR __imp_??8ioHashString@@QBE_NABV0@@Z
  00094	8d 4d b4	 lea	 ecx, DWORD PTR $T549964[ebp]
  00097	88 45 f3	 mov	 BYTE PTR $T549963[ebp], al
  0009a	c6 45 fc 01	 mov	 BYTE PTR __$EHRec$[ebp+8], 1
  0009e	ff d6		 call	 esi

; 601  : 	}

  000a0	8d 4d c4	 lea	 ecx, DWORD PTR _szCurFileName$545761[ebp]
  000a3	88 5d fc	 mov	 BYTE PTR __$EHRec$[ebp+8], bl
  000a6	ff d6		 call	 esi
  000a8	83 4d fc ff	 or	 DWORD PTR __$EHRec$[ebp+8], -1
  000ac	8d 4d d4	 lea	 ecx, DWORD PTR _szCurKeyword$545760[ebp]
  000af	ff d6		 call	 esi
  000b1	38 5d f3	 cmp	 BYTE PTR $T549963[ebp], bl
  000b4	75 1c		 jne	 SHORT $LN13@IsExistKey
$LN5@IsExistKey:

; 586  : 	for (int i = 0; i < MAX_SHOW_ITEM_WND ; i++)

  000b6	ff 45 ec	 inc	 DWORD PTR tv176[ebp]
  000b9	8b 45 ec	 mov	 eax, DWORD PTR tv176[ebp]
  000bc	83 c0 9b	 add	 eax, -101		; ffffff9bH
  000bf	83 f8 0a	 cmp	 eax, 10			; 0000000aH
  000c2	0f 8c 5c ff ff
	ff		 jl	 $LN6@IsExistKey

; 602  : 
; 603  : 	return false;

  000c8	32 c0		 xor	 al, al
$LN7@IsExistKey:

; 604  : }

  000ca	e8 00 00 00 00	 call	 __EH_epilog3
  000cf	c2 08 00	 ret	 8
$LN13@IsExistKey:

; 600  : 			return true;

  000d2	b0 01		 mov	 al, 1
  000d4	eb f4		 jmp	 SHORT $LN7@IsExistKey
_TEXT	ENDS
;	COMDAT text$x
text$x	SEGMENT
__unwindfunclet$?IsExistKeyword@GameOptionSettingCustomSoundTab@@IAE_NPBDK@Z$0:
  00000	8d 4d d4	 lea	 ecx, DWORD PTR _szCurKeyword$545760[ebp]
  00003	ff 25 00 00 00
	00		 jmp	 DWORD PTR __imp_??1ioHashString@@QAE@XZ
__unwindfunclet$?IsExistKeyword@GameOptionSettingCustomSoundTab@@IAE_NPBDK@Z$1:
  00009	8d 4d c4	 lea	 ecx, DWORD PTR _szCurFileName$545761[ebp]
  0000c	ff 25 00 00 00
	00		 jmp	 DWORD PTR __imp_??1ioHashString@@QAE@XZ
__unwindfunclet$?IsExistKeyword@GameOptionSettingCustomSoundTab@@IAE_NPBDK@Z$2:
  00012	8d 4d b4	 lea	 ecx, DWORD PTR $T549964[ebp]
  00015	ff 25 00 00 00
	00		 jmp	 DWORD PTR __imp_??1ioHashString@@QAE@XZ
__ehhandler$?IsExistKeyword@GameOptionSettingCustomSoundTab@@IAE_NPBDK@Z:
  0001b	8b 54 24 08	 mov	 edx, DWORD PTR [esp+8]
  0001f	8d 42 0c	 lea	 eax, DWORD PTR [edx+12]
  00022	8b 4a b0	 mov	 ecx, DWORD PTR [edx-80]
  00025	33 c8		 xor	 ecx, eax
  00027	e8 00 00 00 00	 call	 @__security_check_cookie@4
  0002c	b8 00 00 00 00	 mov	 eax, OFFSET __ehfuncinfo$?IsExistKeyword@GameOptionSettingCustomSoundTab@@IAE_NPBDK@Z
  00031	e9 00 00 00 00	 jmp	 ___CxxFrameHandler3
text$x	ENDS
?IsExistKeyword@GameOptionSettingCustomSoundTab@@IAE_NPBDK@Z ENDP ; GameOptionSettingCustomSoundTab::IsExistKeyword
PUBLIC	__real@4f800000
PUBLIC	__real@3f266666
PUBLIC	??_C@_0CK@LKAMLKOH@GameOptionSettingCustomSoundTab?3@ ; `string'
EXTRN	__imp_?PrintText@ioFontManager@@QAAXMMMPBDZZ:PROC
EXTRN	__imp_?GetString@ioStringManager@@QAEPADPBD0HW4FileNamePrefix@1@@Z:PROC
EXTRN	__imp_?GetSingleton@ioStringManager@@SAAAV1@XZ:PROC
EXTRN	__imp_?SetTextColor@ioFontManager@@QAEXK@Z:PROC
EXTRN	__imp_?SetAlignType@ioFontManager@@QAEXW4TextAlignType@@@Z:PROC
EXTRN	__imp_?SetBkColor@ioFontManager@@QAEXHHH@Z:PROC
EXTRN	__imp_?SetTextStyle@ioFontManager@@QAEXW4TextStyle@@@Z:PROC
EXTRN	__imp_?GetSingleton@ioFontManager@@SAAAV1@XZ:PROC
EXTRN	__imp_?GetDerivedPosY@ioWnd@@QBEHXZ:PROC
EXTRN	__imp_?GetDerivedPosX@ioWnd@@QBEHXZ:PROC
EXTRN	__imp_?OnRender@ioWnd@@MAEXXZ:PROC
;	COMDAT __real@4f800000
; File d:\lost saga for developer\youtube\tutorial\source\src\lsclient\stdafx.h
CONST	SEGMENT
__real@4f800000 DD 04f800000r			; 4.29497e+009
CONST	ENDS
;	COMDAT __real@3f266666
CONST	SEGMENT
__real@3f266666 DD 03f266666r			; 0.65
CONST	ENDS
;	COMDAT ??_C@_0CK@LKAMLKOH@GameOptionSettingCustomSoundTab?3@
CONST	SEGMENT
??_C@_0CK@LKAMLKOH@GameOptionSettingCustomSoundTab?3@ DB 'GameOptionSetti'
	DB	'ngCustomSoundTab::OnRender', 00H		; `string'
; Function compile flags: /Ogsp
; File d:\lost saga for developer\youtube\tutorial\source\src\lsclient\gui\gameoptionsettingtab.cpp
CONST	ENDS
;	COMDAT ?OnRender@GameOptionSettingCustomSoundTab@@MAEXXZ
_TEXT	SEGMENT
tv178 = -12						; size = 4
tv161 = -12						; size = 4
_iXPos$ = -8						; size = 4
tv227 = -4						; size = 4
tv155 = -4						; size = 4
$T549989 = -4						; size = 4
?OnRender@GameOptionSettingCustomSoundTab@@MAEXXZ PROC	; GameOptionSettingCustomSoundTab::OnRender, COMDAT
; _this$ = ecx

; 607  : {

  00000	55		 push	 ebp
  00001	8b ec		 mov	 ebp, esp
  00003	83 ec 0c	 sub	 esp, 12			; 0000000cH
  00006	53		 push	 ebx
  00007	56		 push	 esi
  00008	57		 push	 edi
  00009	8b f9		 mov	 edi, ecx

; 608  : 	ioWnd::OnRender();

  0000b	ff 15 00 00 00
	00		 call	 DWORD PTR __imp_?OnRender@ioWnd@@MAEXXZ

; 609  : 	int iXPos = GetDerivedPosX();

  00011	8b cf		 mov	 ecx, edi
  00013	ff 15 00 00 00
	00		 call	 DWORD PTR __imp_?GetDerivedPosX@ioWnd@@QBEHXZ

; 610  : 	int iYPos = GetDerivedPosY();

  00019	8b cf		 mov	 ecx, edi
  0001b	89 45 f8	 mov	 DWORD PTR _iXPos$[ebp], eax
  0001e	ff 15 00 00 00
	00		 call	 DWORD PTR __imp_?GetDerivedPosY@ioWnd@@QBEHXZ

; 611  : 
; 612  : 	g_FontMgr.SetTextStyle( TS_OUTLINE_FULL_2X );

  00024	8b 35 00 00 00
	00		 mov	 esi, DWORD PTR __imp_?GetSingleton@ioFontManager@@SAAAV1@XZ
  0002a	6a 05		 push	 5
  0002c	8b d8		 mov	 ebx, eax
  0002e	ff d6		 call	 esi
  00030	8b c8		 mov	 ecx, eax
  00032	ff 15 00 00 00
	00		 call	 DWORD PTR __imp_?SetTextStyle@ioFontManager@@QAEXW4TextStyle@@@Z

; 613  : 	g_FontMgr.SetBkColor( 0, 0, 0 );

  00038	33 c0		 xor	 eax, eax
  0003a	50		 push	 eax
  0003b	50		 push	 eax
  0003c	50		 push	 eax
  0003d	ff d6		 call	 esi
  0003f	8b c8		 mov	 ecx, eax
  00041	ff 15 00 00 00
	00		 call	 DWORD PTR __imp_?SetBkColor@ioFontManager@@QAEXHHH@Z

; 614  : 	g_FontMgr.SetAlignType( TAT_LEFT );

  00047	6a 00		 push	 0
  00049	ff d6		 call	 esi
  0004b	8b c8		 mov	 ecx, eax
  0004d	ff 15 00 00 00
	00		 call	 DWORD PTR __imp_?SetAlignType@ioFontManager@@QAEXW4TextAlignType@@@Z

; 615  : 
; 616  : 	g_FontMgr.SetTextColor( TCT_DEFAULT_DARKGRAY );

  00053	68 3a 3a 3a ff	 push	 -12961222		; ff3a3a3aH
  00058	ff d6		 call	 esi
  0005a	8b c8		 mov	 ecx, eax
  0005c	ff 15 00 00 00
	00		 call	 DWORD PTR __imp_?SetTextColor@ioFontManager@@QAEXK@Z

; 617  : 	g_FontMgr.PrintText( iXPos + 58, iYPos + 233, FONT_SIZE_13, STR(1));

  00062	8b 45 f8	 mov	 eax, DWORD PTR _iXPos$[ebp]
  00065	6a 00		 push	 0
  00067	6a 01		 push	 1
  00069	83 c0 3a	 add	 eax, 58			; 0000003aH
  0006c	0f 57 c0	 xorps	 xmm0, xmm0
  0006f	68 00 00 00 00	 push	 OFFSET ??_C@_00CNPNBAHC@?$AA@
  00074	f3 0f 2a c0	 cvtsi2ss xmm0, eax
  00078	68 00 00 00 00	 push	 OFFSET ??_C@_0CK@LKAMLKOH@GameOptionSettingCustomSoundTab?3@
  0007d	f3 0f 11 45 fc	 movss	 DWORD PTR tv227[ebp], xmm0
  00082	ff 15 00 00 00
	00		 call	 DWORD PTR __imp_?GetSingleton@ioStringManager@@SAAAV1@XZ
  00088	8b c8		 mov	 ecx, eax
  0008a	ff 15 00 00 00
	00		 call	 DWORD PTR __imp_?GetString@ioStringManager@@QAEPADPBD0HW4FileNamePrefix@1@@Z
  00090	f3 0f 10 05 00
	00 00 00	 movss	 xmm0, DWORD PTR __real@3f266666
  00098	50		 push	 eax
  00099	83 ec 0c	 sub	 esp, 12			; 0000000cH
  0009c	f3 0f 11 44 24
	08		 movss	 DWORD PTR [esp+8], xmm0
  000a2	8d 83 e9 00 00
	00		 lea	 eax, DWORD PTR [ebx+233]
  000a8	0f 57 c0	 xorps	 xmm0, xmm0
  000ab	f3 0f 2a c0	 cvtsi2ss xmm0, eax
  000af	f3 0f 11 44 24
	04		 movss	 DWORD PTR [esp+4], xmm0
  000b5	f3 0f 10 45 fc	 movss	 xmm0, DWORD PTR tv227[ebp]
  000ba	f3 0f 11 04 24	 movss	 DWORD PTR [esp], xmm0
  000bf	ff d6		 call	 esi
  000c1	50		 push	 eax
  000c2	ff 15 00 00 00
	00		 call	 DWORD PTR __imp_?PrintText@ioFontManager@@QAAXMMMPBDZZ
  000c8	83 c4 14	 add	 esp, 20			; 00000014H

; 618  : 	g_FontMgr.PrintText( iXPos + 58, iYPos + 253, FONT_SIZE_13, STR(2));

  000cb	6a 00		 push	 0
  000cd	6a 02		 push	 2
  000cf	68 00 00 00 00	 push	 OFFSET ??_C@_00CNPNBAHC@?$AA@
  000d4	68 00 00 00 00	 push	 OFFSET ??_C@_0CK@LKAMLKOH@GameOptionSettingCustomSoundTab?3@
  000d9	ff 15 00 00 00
	00		 call	 DWORD PTR __imp_?GetSingleton@ioStringManager@@SAAAV1@XZ
  000df	8b c8		 mov	 ecx, eax
  000e1	ff 15 00 00 00
	00		 call	 DWORD PTR __imp_?GetString@ioStringManager@@QAEPADPBD0HW4FileNamePrefix@1@@Z
  000e7	f3 0f 10 05 00
	00 00 00	 movss	 xmm0, DWORD PTR __real@3f266666
  000ef	50		 push	 eax
  000f0	83 ec 0c	 sub	 esp, 12			; 0000000cH
  000f3	f3 0f 11 44 24
	08		 movss	 DWORD PTR [esp+8], xmm0
  000f9	8d 83 fd 00 00
	00		 lea	 eax, DWORD PTR [ebx+253]
  000ff	0f 57 c0	 xorps	 xmm0, xmm0
  00102	f3 0f 2a c0	 cvtsi2ss xmm0, eax
  00106	f3 0f 11 44 24
	04		 movss	 DWORD PTR [esp+4], xmm0
  0010c	f3 0f 10 45 fc	 movss	 xmm0, DWORD PTR tv227[ebp]
  00111	f3 0f 11 04 24	 movss	 DWORD PTR [esp], xmm0
  00116	ff d6		 call	 esi
  00118	50		 push	 eax
  00119	ff 15 00 00 00
	00		 call	 DWORD PTR __imp_?PrintText@ioFontManager@@QAAXMMMPBDZZ

; 619  : 
; 620  : 	if( m_pDescIcon )

  0011f	33 f6		 xor	 esi, esi
  00121	83 c4 14	 add	 esp, 20			; 00000014H
  00124	39 b7 68 01 00
	00		 cmp	 DWORD PTR [edi+360], esi
  0012a	74 7e		 je	 SHORT $LN1@OnRender

; 621  : 	{
; 622  : 		m_pDescIcon->SetScale( FLOAT05 );

  0012c	b8 05 00 00 00	 mov	 eax, 5
  00131	8b d0		 mov	 edx, eax
  00133	b8 0a 00 00 00	 mov	 eax, 10			; 0000000aH
  00138	8b 8f 68 01 00
	00		 mov	 ecx, DWORD PTR [edi+360]
  0013e	89 55 f4	 mov	 DWORD PTR tv178[ebp], edx
  00141	db 45 f4	 fild	 DWORD PTR tv178[ebp]
  00144	89 45 fc	 mov	 DWORD PTR $T549989[ebp], eax
  00147	8b 01		 mov	 eax, DWORD PTR [ecx]
  00149	85 d2		 test	 edx, edx
  0014b	79 06		 jns	 SHORT $LN8@OnRender
  0014d	d8 05 00 00 00
	00		 fadd	 DWORD PTR __real@4f800000
$LN8@OnRender:
  00153	8b 55 fc	 mov	 edx, DWORD PTR $T549989[ebp]
  00156	db 45 fc	 fild	 DWORD PTR $T549989[ebp]
  00159	85 d2		 test	 edx, edx
  0015b	79 06		 jns	 SHORT $LN9@OnRender
  0015d	d8 05 00 00 00
	00		 fadd	 DWORD PTR __real@4f800000
$LN9@OnRender:
  00163	de f9		 fdivp	 ST(1), ST(0)
  00165	51		 push	 ecx
  00166	d9 5d fc	 fstp	 DWORD PTR tv155[ebp]
  00169	d9 45 fc	 fld	 DWORD PTR tv155[ebp]
  0016c	d9 1c 24	 fstp	 DWORD PTR [esp]
  0016f	ff 50 1c	 call	 DWORD PTR [eax+28]

; 623  : 		m_pDescIcon->Render( iXPos + 37, iYPos + 255, UI_RENDER_NORMAL, TFO_BILINEAR );

  00172	8b bf 68 01 00
	00		 mov	 edi, DWORD PTR [edi+360]
  00178	8b 07		 mov	 eax, DWORD PTR [edi]
  0017a	56		 push	 esi
  0017b	56		 push	 esi
  0017c	6a 01		 push	 1
  0017e	56		 push	 esi
  0017f	51		 push	 ecx
  00180	51		 push	 ecx
  00181	8b 4d f8	 mov	 ecx, DWORD PTR _iXPos$[ebp]
  00184	0f 57 c0	 xorps	 xmm0, xmm0
  00187	81 c3 ff 00 00
	00		 add	 ebx, 255		; 000000ffH
  0018d	f3 0f 2a c3	 cvtsi2ss xmm0, ebx
  00191	f3 0f 11 44 24
	04		 movss	 DWORD PTR [esp+4], xmm0
  00197	83 c1 25	 add	 ecx, 37			; 00000025H
  0019a	0f 57 c0	 xorps	 xmm0, xmm0
  0019d	f3 0f 2a c1	 cvtsi2ss xmm0, ecx
  001a1	8b cf		 mov	 ecx, edi
  001a3	f3 0f 11 04 24	 movss	 DWORD PTR [esp], xmm0
  001a8	ff 10		 call	 DWORD PTR [eax]
$LN1@OnRender:
  001aa	5f		 pop	 edi
  001ab	5e		 pop	 esi
  001ac	5b		 pop	 ebx

; 624  : 	}
; 625  : }

  001ad	c9		 leave
  001ae	c3		 ret	 0
?OnRender@GameOptionSettingCustomSoundTab@@MAEXXZ ENDP	; GameOptionSettingCustomSoundTab::OnRender
_TEXT	ENDS
PUBLIC	??_7SettingBtn@@6B@				; SettingBtn::`vftable'
PUBLIC	??0SettingBtn@@QAE@XZ				; SettingBtn::SettingBtn
PUBLIC	??_R4SettingBtn@@6B@				; SettingBtn::`RTTI Complete Object Locator'
PUBLIC	??_R0?AVSettingBtn@@@8				; SettingBtn `RTTI Type Descriptor'
PUBLIC	??_R3SettingBtn@@8				; SettingBtn::`RTTI Class Hierarchy Descriptor'
PUBLIC	??_R2SettingBtn@@8				; SettingBtn::`RTTI Base Class Array'
PUBLIC	??_R1A@?0A@EA@SettingBtn@@8			; SettingBtn::`RTTI Base Class Descriptor at (0,-1,0,64)'
PUBLIC	??_R1A@?0A@EA@ioButton@@8			; ioButton::`RTTI Base Class Descriptor at (0,-1,0,64)'
PUBLIC	??_R3ioButton@@8				; ioButton::`RTTI Class Hierarchy Descriptor'
PUBLIC	??_R2ioButton@@8				; ioButton::`RTTI Base Class Array'
EXTRN	__imp_??0ioButton@@QAE@XZ:PROC
EXTRN	?AddRenderFrame@ioButton@@UAEXABVioHashString@@PAVioUIRenderFrame@@@Z:PROC ; ioButton::AddRenderFrame
EXTRN	?AddRenderImage@ioButton@@UAEXABVioHashString@@PAVioUIRenderImage@@@Z:PROC ; ioButton::AddRenderImage
EXTRN	?ParseExtraInfo@ioButton@@UAEXAAVioXMLElement@@@Z:PROC ; ioButton::ParseExtraInfo
EXTRN	?SetWindowAlpha@ioButton@@UAEXH@Z:PROC		; ioButton::SetWindowAlpha
EXTRN	?OnRender@ioButton@@MAEXXZ:PROC			; ioButton::OnRender
EXTRN	?CheckFrameReSize@ioButton@@MAEXHHHH@Z:PROC	; ioButton::CheckFrameReSize
EXTRN	?iwm_lbuttondown@ioButton@@UAEXABVioMouse@@@Z:PROC ; ioButton::iwm_lbuttondown
EXTRN	?iwm_lbuttonup@ioButton@@UAEXABVioMouse@@@Z:PROC ; ioButton::iwm_lbuttonup
EXTRN	?iwm_lbuttonDBLCLK@ioButton@@UAEXABVioMouse@@@Z:PROC ; ioButton::iwm_lbuttonDBLCLK
EXTRN	?iwm_rbuttondown@ioButton@@UAEXABVioMouse@@@Z:PROC ; ioButton::iwm_rbuttondown
EXTRN	?iwm_rbuttonup@ioButton@@UAEXABVioMouse@@@Z:PROC ; ioButton::iwm_rbuttonup
EXTRN	?iwm_command@ioWnd@@UAEXPAV1@HK@Z:PROC		; ioWnd::iwm_command
EXTRN	?iwm_mouseover@ioButton@@UAEXABVioMouse@@@Z:PROC ; ioButton::iwm_mouseover
EXTRN	?iwm_show@ioWnd@@UAEXXZ:PROC			; ioWnd::iwm_show
EXTRN	?iwm_hide@ioWnd@@UAEXXZ:PROC			; ioWnd::iwm_hide
EXTRN	?GetWndType@ioButton@@UBEKXZ:PROC		; ioButton::GetWndType
EXTRN	?GetHeaderFileName@ioButton@@UAEPBDXZ:PROC	; ioButton::GetHeaderFileName
EXTRN	?GetTemplateName@ioButton@@UAEPBDXZ:PROC	; ioButton::GetTemplateName
EXTRN	?GetDefClassName@ioButton@@UBEPBDXZ:PROC	; ioButton::GetDefClassName
EXTRN	?_Clone@ioButton@@UAEPAVioWnd@@XZ:PROC		; ioButton::_Clone
EXTRN	?Copy@ioButton@@UAEXPAVioWnd@@@Z:PROC		; ioButton::Copy
EXTRN	?SetSaveData@ioButton@@UAEXAAVioXMLElement@@@Z:PROC ; ioButton::SetSaveData
EXTRN	?GetNumFixedRenderFrame@ioButton@@UBEHXZ:PROC	; ioButton::GetNumFixedRenderFrame
EXTRN	?GetFixedRenderFrameType@ioButton@@UAEPBDH@Z:PROC ; ioButton::GetFixedRenderFrameType
EXTRN	?GetRenderFrame@ioButton@@UAEPAPAVioUIRenderElement@@PBD@Z:PROC ; ioButton::GetRenderFrame
EXTRN	?GetNumFixedRenderImage@ioButton@@UBEHXZ:PROC	; ioButton::GetNumFixedRenderImage
EXTRN	?GetFixedRenderImageType@ioButton@@UAEPBDH@Z:PROC ; ioButton::GetFixedRenderImageType
EXTRN	?GetRenderImage@ioButton@@UAEPAPAVioUIRenderElement@@PBD@Z:PROC ; ioButton::GetRenderImage
EXTRN	??_ESettingBtn@@UAEPAXI@Z:PROC			; SettingBtn::`vector deleting destructor'
EXTRN	?OnDrawNormal@ioButton@@MAEXHH@Z:PROC		; ioButton::OnDrawNormal
EXTRN	?OnDrawOvered@ioButton@@MAEXHH@Z:PROC		; ioButton::OnDrawOvered
EXTRN	?OnDrawOveredAdd@ioButton@@MAEXHH@Z:PROC	; ioButton::OnDrawOveredAdd
EXTRN	?OnDrawPushed@ioButton@@MAEXHH@Z:PROC		; ioButton::OnDrawPushed
EXTRN	?OnDrawDisabled@ioButton@@MAEXHH@Z:PROC		; ioButton::OnDrawDisabled
EXTRN	?OnDrawExDisabledNormal@ioButton@@MAEXHH@Z:PROC	; ioButton::OnDrawExDisabledNormal
EXTRN	?OnDrawExDisabledOvered@ioButton@@MAEXHH@Z:PROC	; ioButton::OnDrawExDisabledOvered
EXTRN	?OnDrawExDisabledPushed@ioButton@@MAEXHH@Z:PROC	; ioButton::OnDrawExDisabledPushed
EXTRN	?OnDrawBack@ioButton@@MAEXHH@Z:PROC		; ioButton::OnDrawBack
EXTRN	?OnDrawNormalList@ioButton@@MAEXHH@Z:PROC	; ioButton::OnDrawNormalList
EXTRN	?OnDrawDisableList@ioButton@@MAEXHH@Z:PROC	; ioButton::OnDrawDisableList
;	COMDAT ??_R2ioButton@@8
rdata$r	SEGMENT
??_R2ioButton@@8 DD FLAT:??_R1A@?0A@EA@ioButton@@8	; ioButton::`RTTI Base Class Array'
	DD	FLAT:??_R1A@?0A@EA@ioWnd@@8
rdata$r	ENDS
;	COMDAT ??_R3ioButton@@8
rdata$r	SEGMENT
??_R3ioButton@@8 DD 00H					; ioButton::`RTTI Class Hierarchy Descriptor'
	DD	00H
	DD	02H
	DD	FLAT:??_R2ioButton@@8
rdata$r	ENDS
;	COMDAT ??_R1A@?0A@EA@ioButton@@8
rdata$r	SEGMENT
??_R1A@?0A@EA@ioButton@@8 DD FLAT:??_R0?AVioButton@@@8	; ioButton::`RTTI Base Class Descriptor at (0,-1,0,64)'
	DD	01H
	DD	00H
	DD	0ffffffffH
	DD	00H
	DD	040H
	DD	FLAT:??_R3ioButton@@8
rdata$r	ENDS
;	COMDAT ??_R1A@?0A@EA@SettingBtn@@8
rdata$r	SEGMENT
??_R1A@?0A@EA@SettingBtn@@8 DD FLAT:??_R0?AVSettingBtn@@@8 ; SettingBtn::`RTTI Base Class Descriptor at (0,-1,0,64)'
	DD	02H
	DD	00H
	DD	0ffffffffH
	DD	00H
	DD	040H
	DD	FLAT:??_R3SettingBtn@@8
rdata$r	ENDS
;	COMDAT ??_R2SettingBtn@@8
rdata$r	SEGMENT
??_R2SettingBtn@@8 DD FLAT:??_R1A@?0A@EA@SettingBtn@@8	; SettingBtn::`RTTI Base Class Array'
	DD	FLAT:??_R1A@?0A@EA@ioButton@@8
	DD	FLAT:??_R1A@?0A@EA@ioWnd@@8
rdata$r	ENDS
;	COMDAT ??_R3SettingBtn@@8
rdata$r	SEGMENT
??_R3SettingBtn@@8 DD 00H				; SettingBtn::`RTTI Class Hierarchy Descriptor'
	DD	00H
	DD	03H
	DD	FLAT:??_R2SettingBtn@@8
rdata$r	ENDS
;	COMDAT ??_R0?AVSettingBtn@@@8
_DATA	SEGMENT
??_R0?AVSettingBtn@@@8 DD FLAT:??_7type_info@@6B@	; SettingBtn `RTTI Type Descriptor'
	DD	00H
	DB	'.?AVSettingBtn@@', 00H
_DATA	ENDS
;	COMDAT ??_R4SettingBtn@@6B@
rdata$r	SEGMENT
??_R4SettingBtn@@6B@ DD 00H				; SettingBtn::`RTTI Complete Object Locator'
	DD	00H
	DD	00H
	DD	FLAT:??_R0?AVSettingBtn@@@8
	DD	FLAT:??_R3SettingBtn@@8
rdata$r	ENDS
;	COMDAT ??_7SettingBtn@@6B@
CONST	SEGMENT
??_7SettingBtn@@6B@ DD FLAT:??_R4SettingBtn@@6B@	; SettingBtn::`vftable'
	DD	FLAT:?AddRenderFrame@ioButton@@UAEXABVioHashString@@PAVioUIRenderFrame@@@Z
	DD	FLAT:?AddRenderImage@ioButton@@UAEXABVioHashString@@PAVioUIRenderImage@@@Z
	DD	FLAT:?AddTooltipHelp@ioWnd@@UAEXABVioHashString@@00@Z
	DD	FLAT:?ParseExtraInfo@ioButton@@UAEXAAVioXMLElement@@@Z
	DD	FLAT:?AddNamedRenderImage@ioWnd@@UAEXABVioHashString@@PAVioUIRenderImage@@@Z
	DD	FLAT:?RemoveNamedRenderImage@ioWnd@@UAEXABVioHashString@@@Z
	DD	FLAT:?GetNamedRenderImage@ioWnd@@UBEPAVioUIRenderImage@@ABVioHashString@@@Z
	DD	FLAT:?SetWindowAlpha@ioButton@@UAEXH@Z
	DD	FLAT:?SetActive@ioWnd@@UAEXXZ
	DD	FLAT:?SetInActive@ioWnd@@UAEXXZ
	DD	FLAT:?ClearElementImageList@ioWnd@@UAEXXZ
	DD	FLAT:?SetSize@ioWnd@@UAEXHH@Z
	DD	FLAT:?SetPositionToDefault@ioWnd@@UAEXHH_N0@Z
	DD	FLAT:?IsNeedProcess@ioWnd@@UBE_NXZ
	DD	FLAT:?IsCanMouseReaction@ioWnd@@UBE_NXZ
	DD	FLAT:?AddChild@ioWnd@@UAEXPAV1@@Z
	DD	FLAT:?DeleteChild@ioWnd@@UAEXK@Z
	DD	FLAT:?DeleteAllChild@ioWnd@@UAEXXZ
	DD	FLAT:?OnRenderShowAndHide@ioWnd@@MAE_NXZ
	DD	FLAT:?OnRenderShowAndHideByDefault@ioWnd@@MAE_NK@Z
	DD	FLAT:?OnRenderShowAndHideByTop@ioWnd@@MAE_NK@Z
	DD	FLAT:?OnRenderShowAndHideByDown@ioWnd@@MAE_NK@Z
	DD	FLAT:?OnRender@ioButton@@MAEXXZ
	DD	FLAT:?OnRenderAfterChild@ioWnd@@MAEXXZ
	DD	FLAT:?OnProcess@ioWnd@@MAEXM@Z
	DD	FLAT:?OnMouseProcess@ioWnd@@MAEXABVioMouse@@@Z
	DD	FLAT:?CheckFrameReSize@ioButton@@MAEXHHHH@Z
	DD	FLAT:?RenderImageList@ioWnd@@MAEXHHW4UIRenderType@@@Z
	DD	FLAT:?iwm_create@ioWnd@@UAEXXZ
	DD	FLAT:?iwm_destroy@ioWnd@@UAEXXZ
	DD	FLAT:?iwm_lbuttondown@ioButton@@UAEXABVioMouse@@@Z
	DD	FLAT:?iwm_lbuttonup@ioButton@@UAEXABVioMouse@@@Z
	DD	FLAT:?iwm_lbuttonDBLCLK@ioButton@@UAEXABVioMouse@@@Z
	DD	FLAT:?iwm_rbuttondown@ioButton@@UAEXABVioMouse@@@Z
	DD	FLAT:?iwm_rbuttonup@ioButton@@UAEXABVioMouse@@@Z
	DD	FLAT:?iwm_command@ioWnd@@UAEXPAV1@HK@Z
	DD	FLAT:?iwm_mouseover@ioButton@@UAEXABVioMouse@@@Z
	DD	FLAT:?iwm_mousemove@ioWnd@@UAEXABVioMouse@@@Z
	DD	FLAT:?iwm_mouseleave@ioWnd@@UAEXABVioMouse@@@Z
	DD	FLAT:?iwm_vscroll@ioWnd@@UAEXKH@Z
	DD	FLAT:?iwm_wheel@ioWnd@@UAEXH@Z
	DD	FLAT:?iwm_show@ioWnd@@UAEXXZ
	DD	FLAT:?iwm_hide@ioWnd@@UAEXXZ
	DD	FLAT:?iwm_esc@ioWnd@@UAE_NXZ
	DD	FLAT:?iwm_spacebar@ioWnd@@UAE_NXZ
	DD	FLAT:?iwm_gototop@ioWnd@@UAEXXZ
	DD	FLAT:?iwm_dragenter@ioWnd@@UAE?AW4IWDropEffect@@PAVioDragItem@@ABVioMouse@@@Z
	DD	FLAT:?iwm_dragover@ioWnd@@UAE?AW4IWDropEffect@@PAVioDragItem@@ABVioMouse@@@Z
	DD	FLAT:?iwm_dragleave@ioWnd@@UAEXXZ
	DD	FLAT:?iwm_dropitem@ioWnd@@UAE_NPAVioDragItem@@ABVioMouse@@PAV1@@Z
	DD	FLAT:?iwm_dropdone@ioWnd@@UAEXPAVioDragItem@@PAV1@_N@Z
	DD	FLAT:?IsEXType@ioWnd@@UBE_NXZ
	DD	FLAT:?GetWndType@ioButton@@UBEKXZ
	DD	FLAT:?RenderWnd@ioWnd@@UAEXXZ
	DD	FLAT:?SetIDEX@ioWnd@@UAEXAAK_N@Z
	DD	FLAT:?ParseXML@ioWnd@@UAEXAAVioXMLElement@@@Z
	DD	FLAT:?GetHeaderFileName@ioButton@@UAEPBDXZ
	DD	FLAT:?GetTemplateName@ioButton@@UAEPBDXZ
	DD	FLAT:?GetDefClassName@ioButton@@UBEPBDXZ
	DD	FLAT:?_Clone@ioButton@@UAEPAVioWnd@@XZ
	DD	FLAT:?Copy@ioButton@@UAEXPAVioWnd@@@Z
	DD	FLAT:?Save@ioWnd@@UAE_NAAVioXMLElement@@@Z
	DD	FLAT:?SetSaveData@ioButton@@UAEXAAVioXMLElement@@@Z
	DD	FLAT:?SetPosX@ioWnd@@UAEXH@Z
	DD	FLAT:?SetPosY@ioWnd@@UAEXH@Z
	DD	FLAT:?SetWidth@ioWnd@@UAEXH@Z
	DD	FLAT:?SetHeight@ioWnd@@UAEXH@Z
	DD	FLAT:?GetNumFixedRenderFrame@ioButton@@UBEHXZ
	DD	FLAT:?GetFixedRenderFrameType@ioButton@@UAEPBDH@Z
	DD	FLAT:?GetRenderFrame@ioButton@@UAEPAPAVioUIRenderElement@@PBD@Z
	DD	FLAT:?GetNumFixedRenderImage@ioButton@@UBEHXZ
	DD	FLAT:?GetFixedRenderImageType@ioButton@@UAEPBDH@Z
	DD	FLAT:?GetRenderImage@ioButton@@UAEPAPAVioUIRenderElement@@PBD@Z
	DD	FLAT:?AddEffect@ioWnd@@UAEXABVioHashString@@PAVioUI3DEffectRender@@@Z
	DD	FLAT:?GetEffect@ioWnd@@UAEPAVioUI3DEffectRender@@VioHashString@@@Z
	DD	FLAT:??_ESettingBtn@@UAEPAXI@Z
	DD	FLAT:?OnDrawNormal@ioButton@@MAEXHH@Z
	DD	FLAT:?OnDrawOvered@ioButton@@MAEXHH@Z
	DD	FLAT:?OnDrawOveredAdd@ioButton@@MAEXHH@Z
	DD	FLAT:?OnDrawPushed@ioButton@@MAEXHH@Z
	DD	FLAT:?OnDrawDisabled@ioButton@@MAEXHH@Z
	DD	FLAT:?OnDrawExDisabledNormal@ioButton@@MAEXHH@Z
	DD	FLAT:?OnDrawExDisabledOvered@ioButton@@MAEXHH@Z
	DD	FLAT:?OnDrawExDisabledPushed@ioButton@@MAEXHH@Z
	DD	FLAT:?OnDrawBack@ioButton@@MAEXHH@Z
	DD	FLAT:?OnDrawNormalList@ioButton@@MAEXHH@Z
	DD	FLAT:?OnDrawDisableList@ioButton@@MAEXHH@Z
; Function compile flags: /Ogsp
CONST	ENDS
;	COMDAT ??0SettingBtn@@QAE@XZ
_TEXT	SEGMENT
??0SettingBtn@@QAE@XZ PROC				; SettingBtn::SettingBtn, COMDAT
; _this$ = ecx

; 640  : {

  00000	56		 push	 esi
  00001	8b f1		 mov	 esi, ecx
  00003	ff 15 00 00 00
	00		 call	 DWORD PTR __imp_??0ioButton@@QAE@XZ

; 641  : 	m_eKeyType = CKeyInfo::KTA_NONE;

  00009	83 8e fc 01 00
	00 ff		 or	 DWORD PTR [esi+508], -1

; 642  : 	m_wKey     = KEY_NULL;

  00010	33 c0		 xor	 eax, eax
  00012	66 89 86 00 02
	00 00		 mov	 WORD PTR [esi+512], ax
  00019	c7 06 00 00 00
	00		 mov	 DWORD PTR [esi], OFFSET ??_7SettingBtn@@6B@

; 643  : }

  0001f	8b c6		 mov	 eax, esi
  00021	5e		 pop	 esi
  00022	c3		 ret	 0
??0SettingBtn@@QAE@XZ ENDP				; SettingBtn::SettingBtn
_TEXT	ENDS
PUBLIC	??1SettingBtn@@UAE@XZ				; SettingBtn::~SettingBtn
EXTRN	__imp_??1ioButton@@UAE@XZ:PROC
; Function compile flags: /Ogsp
;	COMDAT ??1SettingBtn@@UAE@XZ
_TEXT	SEGMENT
??1SettingBtn@@UAE@XZ PROC				; SettingBtn::~SettingBtn, COMDAT
; _this$ = ecx

; 646  : {

  00000	c7 01 00 00 00
	00		 mov	 DWORD PTR [ecx], OFFSET ??_7SettingBtn@@6B@

; 647  : 
; 648  : }

  00006	ff 25 00 00 00
	00		 jmp	 DWORD PTR __imp_??1ioButton@@UAE@XZ
??1SettingBtn@@UAE@XZ ENDP				; SettingBtn::~SettingBtn
_TEXT	ENDS
PUBLIC	?SetKeyType@SettingBtn@@QAEXW4KeyTypeArray@CKeyInfo@@@Z ; SettingBtn::SetKeyType
; Function compile flags: /Ogsp
;	COMDAT ?SetKeyType@SettingBtn@@QAEXW4KeyTypeArray@CKeyInfo@@@Z
_TEXT	SEGMENT
_eKeyType$ = 8						; size = 4
?SetKeyType@SettingBtn@@QAEXW4KeyTypeArray@CKeyInfo@@@Z PROC ; SettingBtn::SetKeyType, COMDAT
; _this$ = ecx

; 651  : {

  00000	55		 push	 ebp
  00001	8b ec		 mov	 ebp, esp

; 652  : 	m_eKeyType = eKeyType;

  00003	8b 45 08	 mov	 eax, DWORD PTR _eKeyType$[ebp]
  00006	89 81 fc 01 00
	00		 mov	 DWORD PTR [ecx+508], eax

; 653  : }

  0000c	5d		 pop	 ebp
  0000d	c2 04 00	 ret	 4
?SetKeyType@SettingBtn@@QAEXW4KeyTypeArray@CKeyInfo@@@Z ENDP ; SettingBtn::SetKeyType
_TEXT	ENDS
PUBLIC	?GetKeyType@SettingBtn@@QAE?AW4KeyTypeArray@CKeyInfo@@XZ ; SettingBtn::GetKeyType
; Function compile flags: /Ogsp
;	COMDAT ?GetKeyType@SettingBtn@@QAE?AW4KeyTypeArray@CKeyInfo@@XZ
_TEXT	SEGMENT
?GetKeyType@SettingBtn@@QAE?AW4KeyTypeArray@CKeyInfo@@XZ PROC ; SettingBtn::GetKeyType, COMDAT
; _this$ = ecx

; 657  : 	return m_eKeyType;

  00000	8b 81 fc 01 00
	00		 mov	 eax, DWORD PTR [ecx+508]

; 658  : }

  00006	c3		 ret	 0
?GetKeyType@SettingBtn@@QAE?AW4KeyTypeArray@CKeyInfo@@XZ ENDP ; SettingBtn::GetKeyType
_TEXT	ENDS
PUBLIC	?SetKeyValue@SettingBtn@@QAEXG@Z		; SettingBtn::SetKeyValue
; Function compile flags: /Ogsp
;	COMDAT ?SetKeyValue@SettingBtn@@QAEXG@Z
_TEXT	SEGMENT
_wKey$ = 8						; size = 2
?SetKeyValue@SettingBtn@@QAEXG@Z PROC			; SettingBtn::SetKeyValue, COMDAT
; _this$ = ecx

; 662  : {

  00000	55		 push	 ebp
  00001	8b ec		 mov	 ebp, esp

; 663  : 	m_wKey = wKey;

  00003	66 8b 45 08	 mov	 ax, WORD PTR _wKey$[ebp]
  00007	66 89 81 00 02
	00 00		 mov	 WORD PTR [ecx+512], ax

; 664  : }

  0000e	5d		 pop	 ebp
  0000f	c2 04 00	 ret	 4
?SetKeyValue@SettingBtn@@QAEXG@Z ENDP			; SettingBtn::SetKeyValue
_TEXT	ENDS
PUBLIC	?SetTitle@SettingBtn@@QAEXM@Z			; SettingBtn::SetTitle
EXTRN	__imp_?SetText@ioUITitle@@QAEXPBD0@Z:PROC
EXTRN	?GetKeyText@ioKeyManager@@QAEPBDG@Z:PROC	; ioKeyManager::GetKeyText
EXTRN	?GetSingleton@ioKeyManager@@SAAAV1@XZ:PROC	; ioKeyManager::GetSingleton
EXTRN	__imp_?SetAllColor@ioUITitle@@QAEXKK@Z:PROC
EXTRN	__imp_?IsDisabled@ioButton@@QBE_NXZ:PROC
; Function compile flags: /Ogsp
;	COMDAT ?SetTitle@SettingBtn@@QAEXM@Z
_TEXT	SEGMENT
_fWidthCutSize$ = 8					; size = 4
?SetTitle@SettingBtn@@QAEXM@Z PROC			; SettingBtn::SetTitle, COMDAT
; _this$ = ecx

; 667  : {

  00000	55		 push	 ebp
  00001	8b ec		 mov	 ebp, esp
  00003	56		 push	 esi
  00004	8b f1		 mov	 esi, ecx

; 668  : 	if(m_pUITitle)

  00006	83 7e 3c 00	 cmp	 DWORD PTR [esi+60], 0
  0000a	74 66		 je	 SHORT $LN3@SetTitle

; 669  : 	{
; 670  : 		if( IsDisabled() )

  0000c	ff 15 00 00 00
	00		 call	 DWORD PTR __imp_?IsDisabled@ioButton@@QBE_NXZ

; 671  : 			m_pUITitle->SetAllColor( 0xFFA7A7A7, 0xFF000000);

  00012	8b 4e 3c	 mov	 ecx, DWORD PTR [esi+60]
  00015	68 00 00 00 ff	 push	 -16777216		; ff000000H
  0001a	84 c0		 test	 al, al
  0001c	74 07		 je	 SHORT $LN2@SetTitle
  0001e	68 a7 a7 a7 ff	 push	 -5789785		; ffa7a7a7H

; 672  : 		else

  00023	eb 05		 jmp	 SHORT $LN6@SetTitle
$LN2@SetTitle:

; 673  : 			m_pUITitle->SetAllColor( 0xFF3A3A3A, 0xFF000000 );

  00025	68 3a 3a 3a ff	 push	 -12961222		; ff3a3a3aH
$LN6@SetTitle:
  0002a	ff 15 00 00 00
	00		 call	 DWORD PTR __imp_?SetAllColor@ioUITitle@@QAEXKK@Z

; 674  : 		m_pUITitle->SetText( g_KeyManager.GetKeyText(m_wKey) , "");

  00030	0f b7 86 00 02
	00 00		 movzx	 eax, WORD PTR [esi+512]
  00037	68 00 00 00 00	 push	 OFFSET ??_C@_00CNPNBAHC@?$AA@
  0003c	50		 push	 eax
  0003d	e8 00 00 00 00	 call	 ?GetSingleton@ioKeyManager@@SAAAV1@XZ ; ioKeyManager::GetSingleton
  00042	8b c8		 mov	 ecx, eax
  00044	e8 00 00 00 00	 call	 ?GetKeyText@ioKeyManager@@QAEPBDG@Z ; ioKeyManager::GetKeyText
  00049	8b 4e 3c	 mov	 ecx, DWORD PTR [esi+60]
  0004c	50		 push	 eax
  0004d	ff 15 00 00 00
	00		 call	 DWORD PTR __imp_?SetText@ioUITitle@@QAEXPBD0@Z

; 675  : 		m_pUITitle->SetWidthCutSize( fWidthCutSize );

  00053	f3 0f 10 45 08	 movss	 xmm0, DWORD PTR _fWidthCutSize$[ebp]
  00058	51		 push	 ecx
  00059	8b 4e 3c	 mov	 ecx, DWORD PTR [esi+60]
  0005c	f3 0f 11 04 24	 movss	 DWORD PTR [esp], xmm0
  00061	ff 15 00 00 00
	00		 call	 DWORD PTR __imp_?SetWidthCutSize@ioUITitle@@QAEXM@Z

; 676  : 		m_pUITitle->SetPrintTextStyle( ioUITitle::PTS_WIDTHCUT );

  00067	8b 4e 3c	 mov	 ecx, DWORD PTR [esi+60]
  0006a	6a 02		 push	 2
  0006c	ff 15 00 00 00
	00		 call	 DWORD PTR __imp_?SetPrintTextStyle@ioUITitle@@QAEXW4PrintTextStyle@1@@Z
$LN3@SetTitle:
  00072	5e		 pop	 esi

; 677  : 	}
; 678  : }

  00073	5d		 pop	 ebp
  00074	c2 04 00	 ret	 4
?SetTitle@SettingBtn@@QAEXM@Z ENDP			; SettingBtn::SetTitle
_TEXT	ENDS
PUBLIC	??_7SettingKeyItemWnd@@6B@			; SettingKeyItemWnd::`vftable'
PUBLIC	??0SettingKeyItemWnd@@QAE@XZ			; SettingKeyItemWnd::SettingKeyItemWnd
PUBLIC	??_R4SettingKeyItemWnd@@6B@			; SettingKeyItemWnd::`RTTI Complete Object Locator'
PUBLIC	??_R0?AVSettingKeyItemWnd@@@8			; SettingKeyItemWnd `RTTI Type Descriptor'
PUBLIC	??_R3SettingKeyItemWnd@@8			; SettingKeyItemWnd::`RTTI Class Hierarchy Descriptor'
PUBLIC	??_R2SettingKeyItemWnd@@8			; SettingKeyItemWnd::`RTTI Base Class Array'
PUBLIC	??_R1A@?0A@EA@SettingKeyItemWnd@@8		; SettingKeyItemWnd::`RTTI Base Class Descriptor at (0,-1,0,64)'
PUBLIC	?AddRenderImage@SettingKeyItemWnd@@MAEXABVioHashString@@PAVioUIRenderImage@@@Z ; SettingKeyItemWnd::AddRenderImage
PUBLIC	?OnRender@SettingKeyItemWnd@@MAEXXZ		; SettingKeyItemWnd::OnRender
PUBLIC	?iwm_command@SettingKeyItemWnd@@MAEXPAVioWnd@@HK@Z ; SettingKeyItemWnd::iwm_command
EXTRN	??_ESettingKeyItemWnd@@UAEPAXI@Z:PROC		; SettingKeyItemWnd::`vector deleting destructor'
;	COMDAT ??_R1A@?0A@EA@SettingKeyItemWnd@@8
rdata$r	SEGMENT
??_R1A@?0A@EA@SettingKeyItemWnd@@8 DD FLAT:??_R0?AVSettingKeyItemWnd@@@8 ; SettingKeyItemWnd::`RTTI Base Class Descriptor at (0,-1,0,64)'
	DD	01H
	DD	00H
	DD	0ffffffffH
	DD	00H
	DD	040H
	DD	FLAT:??_R3SettingKeyItemWnd@@8
rdata$r	ENDS
;	COMDAT ??_R2SettingKeyItemWnd@@8
rdata$r	SEGMENT
??_R2SettingKeyItemWnd@@8 DD FLAT:??_R1A@?0A@EA@SettingKeyItemWnd@@8 ; SettingKeyItemWnd::`RTTI Base Class Array'
	DD	FLAT:??_R1A@?0A@EA@ioWnd@@8
rdata$r	ENDS
;	COMDAT ??_R3SettingKeyItemWnd@@8
rdata$r	SEGMENT
??_R3SettingKeyItemWnd@@8 DD 00H			; SettingKeyItemWnd::`RTTI Class Hierarchy Descriptor'
	DD	00H
	DD	02H
	DD	FLAT:??_R2SettingKeyItemWnd@@8
rdata$r	ENDS
;	COMDAT ??_R0?AVSettingKeyItemWnd@@@8
_DATA	SEGMENT
??_R0?AVSettingKeyItemWnd@@@8 DD FLAT:??_7type_info@@6B@ ; SettingKeyItemWnd `RTTI Type Descriptor'
	DD	00H
	DB	'.?AVSettingKeyItemWnd@@', 00H
_DATA	ENDS
;	COMDAT ??_R4SettingKeyItemWnd@@6B@
rdata$r	SEGMENT
??_R4SettingKeyItemWnd@@6B@ DD 00H			; SettingKeyItemWnd::`RTTI Complete Object Locator'
	DD	00H
	DD	00H
	DD	FLAT:??_R0?AVSettingKeyItemWnd@@@8
	DD	FLAT:??_R3SettingKeyItemWnd@@8
rdata$r	ENDS
;	COMDAT ??_7SettingKeyItemWnd@@6B@
CONST	SEGMENT
??_7SettingKeyItemWnd@@6B@ DD FLAT:??_R4SettingKeyItemWnd@@6B@ ; SettingKeyItemWnd::`vftable'
	DD	FLAT:?AddRenderFrame@ioWnd@@UAEXABVioHashString@@PAVioUIRenderFrame@@@Z
	DD	FLAT:?AddRenderImage@SettingKeyItemWnd@@MAEXABVioHashString@@PAVioUIRenderImage@@@Z
	DD	FLAT:?AddTooltipHelp@ioWnd@@UAEXABVioHashString@@00@Z
	DD	FLAT:?ParseExtraInfo@ioWnd@@UAEXAAVioXMLElement@@@Z
	DD	FLAT:?AddNamedRenderImage@ioWnd@@UAEXABVioHashString@@PAVioUIRenderImage@@@Z
	DD	FLAT:?RemoveNamedRenderImage@ioWnd@@UAEXABVioHashString@@@Z
	DD	FLAT:?GetNamedRenderImage@ioWnd@@UBEPAVioUIRenderImage@@ABVioHashString@@@Z
	DD	FLAT:?SetWindowAlpha@ioWnd@@UAEXH@Z
	DD	FLAT:?SetActive@ioWnd@@UAEXXZ
	DD	FLAT:?SetInActive@ioWnd@@UAEXXZ
	DD	FLAT:?ClearElementImageList@ioWnd@@UAEXXZ
	DD	FLAT:?SetSize@ioWnd@@UAEXHH@Z
	DD	FLAT:?SetPositionToDefault@ioWnd@@UAEXHH_N0@Z
	DD	FLAT:?IsNeedProcess@ioWnd@@UBE_NXZ
	DD	FLAT:?IsCanMouseReaction@ioWnd@@UBE_NXZ
	DD	FLAT:?AddChild@ioWnd@@UAEXPAV1@@Z
	DD	FLAT:?DeleteChild@ioWnd@@UAEXK@Z
	DD	FLAT:?DeleteAllChild@ioWnd@@UAEXXZ
	DD	FLAT:?OnRenderShowAndHide@ioWnd@@MAE_NXZ
	DD	FLAT:?OnRenderShowAndHideByDefault@ioWnd@@MAE_NK@Z
	DD	FLAT:?OnRenderShowAndHideByTop@ioWnd@@MAE_NK@Z
	DD	FLAT:?OnRenderShowAndHideByDown@ioWnd@@MAE_NK@Z
	DD	FLAT:?OnRender@SettingKeyItemWnd@@MAEXXZ
	DD	FLAT:?OnRenderAfterChild@ioWnd@@MAEXXZ
	DD	FLAT:?OnProcess@ioWnd@@MAEXM@Z
	DD	FLAT:?OnMouseProcess@ioWnd@@MAEXABVioMouse@@@Z
	DD	FLAT:?CheckFrameReSize@ioWnd@@MAEXHHHH@Z
	DD	FLAT:?RenderImageList@ioWnd@@MAEXHHW4UIRenderType@@@Z
	DD	FLAT:?iwm_create@ioWnd@@UAEXXZ
	DD	FLAT:?iwm_destroy@ioWnd@@UAEXXZ
	DD	FLAT:?iwm_lbuttondown@ioWnd@@UAEXABVioMouse@@@Z
	DD	FLAT:?iwm_lbuttonup@ioWnd@@UAEXABVioMouse@@@Z
	DD	FLAT:?iwm_lbuttonDBLCLK@ioWnd@@UAEXABVioMouse@@@Z
	DD	FLAT:?iwm_rbuttondown@ioWnd@@UAEXABVioMouse@@@Z
	DD	FLAT:?iwm_rbuttonup@ioWnd@@UAEXABVioMouse@@@Z
	DD	FLAT:?iwm_command@SettingKeyItemWnd@@MAEXPAVioWnd@@HK@Z
	DD	FLAT:?iwm_mouseover@ioWnd@@UAEXABVioMouse@@@Z
	DD	FLAT:?iwm_mousemove@ioWnd@@UAEXABVioMouse@@@Z
	DD	FLAT:?iwm_mouseleave@ioWnd@@UAEXABVioMouse@@@Z
	DD	FLAT:?iwm_vscroll@ioWnd@@UAEXKH@Z
	DD	FLAT:?iwm_wheel@ioWnd@@UAEXH@Z
	DD	FLAT:?iwm_show@ioWnd@@UAEXXZ
	DD	FLAT:?iwm_hide@ioWnd@@UAEXXZ
	DD	FLAT:?iwm_esc@ioWnd@@UAE_NXZ
	DD	FLAT:?iwm_spacebar@ioWnd@@UAE_NXZ
	DD	FLAT:?iwm_gototop@ioWnd@@UAEXXZ
	DD	FLAT:?iwm_dragenter@ioWnd@@UAE?AW4IWDropEffect@@PAVioDragItem@@ABVioMouse@@@Z
	DD	FLAT:?iwm_dragover@ioWnd@@UAE?AW4IWDropEffect@@PAVioDragItem@@ABVioMouse@@@Z
	DD	FLAT:?iwm_dragleave@ioWnd@@UAEXXZ
	DD	FLAT:?iwm_dropitem@ioWnd@@UAE_NPAVioDragItem@@ABVioMouse@@PAV1@@Z
	DD	FLAT:?iwm_dropdone@ioWnd@@UAEXPAVioDragItem@@PAV1@_N@Z
	DD	FLAT:?IsEXType@ioWnd@@UBE_NXZ
	DD	FLAT:?GetWndType@ioWnd@@UBEKXZ
	DD	FLAT:?RenderWnd@ioWnd@@UAEXXZ
	DD	FLAT:?SetIDEX@ioWnd@@UAEXAAK_N@Z
	DD	FLAT:?ParseXML@ioWnd@@UAEXAAVioXMLElement@@@Z
	DD	FLAT:?GetHeaderFileName@ioWnd@@UAEPBDXZ
	DD	FLAT:?GetTemplateName@ioWnd@@UAEPBDXZ
	DD	FLAT:?GetDefClassName@ioWnd@@UBEPBDXZ
	DD	FLAT:?_Clone@ioWnd@@UAEPAV1@XZ
	DD	FLAT:?Copy@ioWnd@@UAEXPAV1@@Z
	DD	FLAT:?Save@ioWnd@@UAE_NAAVioXMLElement@@@Z
	DD	FLAT:?SetSaveData@ioWnd@@UAEXAAVioXMLElement@@@Z
	DD	FLAT:?SetPosX@ioWnd@@UAEXH@Z
	DD	FLAT:?SetPosY@ioWnd@@UAEXH@Z
	DD	FLAT:?SetWidth@ioWnd@@UAEXH@Z
	DD	FLAT:?SetHeight@ioWnd@@UAEXH@Z
	DD	FLAT:?GetNumFixedRenderFrame@ioWnd@@UBEHXZ
	DD	FLAT:?GetFixedRenderFrameType@ioWnd@@UAEPBDH@Z
	DD	FLAT:?GetRenderFrame@ioWnd@@UAEPAPAVioUIRenderElement@@PBD@Z
	DD	FLAT:?GetNumFixedRenderImage@ioWnd@@UBEHXZ
	DD	FLAT:?GetFixedRenderImageType@ioWnd@@UAEPBDH@Z
	DD	FLAT:?GetRenderImage@ioWnd@@UAEPAPAVioUIRenderElement@@PBD@Z
	DD	FLAT:?AddEffect@ioWnd@@UAEXABVioHashString@@PAVioUI3DEffectRender@@@Z
	DD	FLAT:?GetEffect@ioWnd@@UAEPAVioUI3DEffectRender@@VioHashString@@@Z
	DD	FLAT:??_ESettingKeyItemWnd@@UAEPAXI@Z
; Function compile flags: /Ogsp
CONST	ENDS
;	COMDAT ??0SettingKeyItemWnd@@QAE@XZ
_TEXT	SEGMENT
??0SettingKeyItemWnd@@QAE@XZ PROC			; SettingKeyItemWnd::SettingKeyItemWnd, COMDAT
; _this$ = ecx

; 682  : {

  00000	56		 push	 esi
  00001	8b f1		 mov	 esi, ecx
  00003	ff 15 00 00 00
	00		 call	 DWORD PTR __imp_??0ioWnd@@QAE@XZ

; 683  : 	m_eType = IT_NONE;

  00009	83 8e 68 01 00
	00 ff		 or	 DWORD PTR [esi+360], -1

; 684  : 	
; 685  : 	m_pIconBack = NULL;	

  00010	83 a6 60 01 00
	00 00		 and	 DWORD PTR [esi+352], 0

; 686  : 	m_pIconKey  = NULL;

  00017	83 a6 64 01 00
	00 00		 and	 DWORD PTR [esi+356], 0
  0001e	c7 06 00 00 00
	00		 mov	 DWORD PTR [esi], OFFSET ??_7SettingKeyItemWnd@@6B@

; 687  : }

  00024	8b c6		 mov	 eax, esi
  00026	5e		 pop	 esi
  00027	c3		 ret	 0
??0SettingKeyItemWnd@@QAE@XZ ENDP			; SettingKeyItemWnd::SettingKeyItemWnd
_TEXT	ENDS
PUBLIC	??1SettingKeyItemWnd@@UAE@XZ			; SettingKeyItemWnd::~SettingKeyItemWnd
;	COMDAT xdata$x
xdata$x	SEGMENT
__unwindtable$??1SettingKeyItemWnd@@UAE@XZ DD 0ffffffffH
	DD	FLAT:__unwindfunclet$??1SettingKeyItemWnd@@UAE@XZ$0
__ehfuncinfo$??1SettingKeyItemWnd@@UAE@XZ DD 019930522H
	DD	01H
	DD	FLAT:__unwindtable$??1SettingKeyItemWnd@@UAE@XZ
	DD	2 DUP(00H)
	DD	2 DUP(00H)
	DD	00H
	DD	01H
; Function compile flags: /Ogsp
xdata$x	ENDS
;	COMDAT ??1SettingKeyItemWnd@@UAE@XZ
_TEXT	SEGMENT
_this$ = -16						; size = 4
__$EHRec$ = -12						; size = 12
??1SettingKeyItemWnd@@UAE@XZ PROC			; SettingKeyItemWnd::~SettingKeyItemWnd, COMDAT
; _this$ = ecx

; 690  : {

  00000	6a 04		 push	 4
  00002	b8 00 00 00 00	 mov	 eax, __ehhandler$??1SettingKeyItemWnd@@UAE@XZ
  00007	e8 00 00 00 00	 call	 __EH_prolog3
  0000c	8b f9		 mov	 edi, ecx
  0000e	89 7d f0	 mov	 DWORD PTR _this$[ebp], edi
  00011	c7 07 00 00 00
	00		 mov	 DWORD PTR [edi], OFFSET ??_7SettingKeyItemWnd@@6B@

; 691  : 	SAFEDELETE( m_pIconBack );

  00017	8b 8f 60 01 00
	00		 mov	 ecx, DWORD PTR [edi+352]
  0001d	83 65 fc 00	 and	 DWORD PTR __$EHRec$[ebp+8], 0
  00021	85 c9		 test	 ecx, ecx
  00023	74 0e		 je	 SHORT $LN2@SettingKey
  00025	8b 01		 mov	 eax, DWORD PTR [ecx]
  00027	6a 01		 push	 1
  00029	ff 50 40	 call	 DWORD PTR [eax+64]
  0002c	83 a7 60 01 00
	00 00		 and	 DWORD PTR [edi+352], 0
$LN2@SettingKey:

; 692  : 	SAFEDELETE( m_pIconKey );

  00033	8b 8f 64 01 00
	00		 mov	 ecx, DWORD PTR [edi+356]
  00039	85 c9		 test	 ecx, ecx
  0003b	74 0e		 je	 SHORT $LN1@SettingKey
  0003d	8b 01		 mov	 eax, DWORD PTR [ecx]
  0003f	6a 01		 push	 1
  00041	ff 50 40	 call	 DWORD PTR [eax+64]
  00044	83 a7 64 01 00
	00 00		 and	 DWORD PTR [edi+356], 0
$LN1@SettingKey:

; 693  : }

  0004b	83 4d fc ff	 or	 DWORD PTR __$EHRec$[ebp+8], -1
  0004f	8b cf		 mov	 ecx, edi
  00051	ff 15 00 00 00
	00		 call	 DWORD PTR __imp_??1ioWnd@@UAE@XZ
  00057	e8 00 00 00 00	 call	 __EH_epilog3
  0005c	c3		 ret	 0
_TEXT	ENDS
;	COMDAT text$x
text$x	SEGMENT
__unwindfunclet$??1SettingKeyItemWnd@@UAE@XZ$0:
  00000	8b 4d f0	 mov	 ecx, DWORD PTR _this$[ebp]
  00003	ff 25 00 00 00
	00		 jmp	 DWORD PTR __imp_??1ioWnd@@UAE@XZ
__ehhandler$??1SettingKeyItemWnd@@UAE@XZ:
  00009	8b 54 24 08	 mov	 edx, DWORD PTR [esp+8]
  0000d	8d 42 0c	 lea	 eax, DWORD PTR [edx+12]
  00010	8b 4a ec	 mov	 ecx, DWORD PTR [edx-20]
  00013	33 c8		 xor	 ecx, eax
  00015	e8 00 00 00 00	 call	 @__security_check_cookie@4
  0001a	b8 00 00 00 00	 mov	 eax, OFFSET __ehfuncinfo$??1SettingKeyItemWnd@@UAE@XZ
  0001f	e9 00 00 00 00	 jmp	 ___CxxFrameHandler3
text$x	ENDS
??1SettingKeyItemWnd@@UAE@XZ ENDP			; SettingKeyItemWnd::~SettingKeyItemWnd
PUBLIC	__real@3e99999a
;	COMDAT __real@3e99999a
CONST	SEGMENT
__real@3e99999a DD 03e99999ar			; 0.3
; Function compile flags: /Ogsp
CONST	ENDS
;	COMDAT ?OnRender@SettingKeyItemWnd@@MAEXXZ
_TEXT	SEGMENT
?OnRender@SettingKeyItemWnd@@MAEXXZ PROC		; SettingKeyItemWnd::OnRender, COMDAT
; _this$ = ecx

; 777  : {

  00000	56		 push	 esi
  00001	8b f1		 mov	 esi, ecx

; 778  : 	ioWnd::OnRender();

  00003	ff 15 00 00 00
	00		 call	 DWORD PTR __imp_?OnRender@ioWnd@@MAEXXZ

; 779  : 
; 780  : 	if( m_eType == IT_TITLE_BASIC   ||
; 781  : 		m_eType == IT_TITLE_ADDTION ||
; 782  : 		m_eType == IT_TITLE_SKILL ||
; 783  : 		m_eType == IT_TITLE_FUNCTION||
; 784  : 		m_eType == IT_TITLE_SOLDIER ||
; 785  : 		m_eType == IT_TITLE_MACRO )

  00009	8b 86 68 01 00
	00		 mov	 eax, DWORD PTR [esi+360]
  0000f	85 c0		 test	 eax, eax
  00011	74 1d		 je	 SHORT $LN3@OnRender@2
  00013	83 f8 08	 cmp	 eax, 8
  00016	74 18		 je	 SHORT $LN3@OnRender@2
  00018	83 f8 0d	 cmp	 eax, 13			; 0000000dH
  0001b	74 13		 je	 SHORT $LN3@OnRender@2
  0001d	83 f8 12	 cmp	 eax, 18			; 00000012H
  00020	74 0e		 je	 SHORT $LN3@OnRender@2
  00022	83 f8 26	 cmp	 eax, 38			; 00000026H
  00025	74 09		 je	 SHORT $LN3@OnRender@2
  00027	83 f8 4b	 cmp	 eax, 75			; 0000004bH
  0002a	0f 85 c1 00 00
	00		 jne	 $LN1@OnRender@2
$LN3@OnRender@2:
  00030	53		 push	 ebx
  00031	57		 push	 edi

; 786  : 	{
; 787  : 		//  
; 788  : 		int iXPos = GetDerivedPosX();

  00032	8b ce		 mov	 ecx, esi
  00034	ff 15 00 00 00
	00		 call	 DWORD PTR __imp_?GetDerivedPosX@ioWnd@@QBEHXZ

; 789  : 		int iYPos = GetDerivedPosY();

  0003a	8b ce		 mov	 ecx, esi
  0003c	8b f8		 mov	 edi, eax
  0003e	ff 15 00 00 00
	00		 call	 DWORD PTR __imp_?GetDerivedPosY@ioWnd@@QBEHXZ

; 790  : 		if( m_pIconBack )

  00044	83 be 60 01 00
	00 00		 cmp	 DWORD PTR [esi+352], 0
  0004b	8b d8		 mov	 ebx, eax
  0004d	74 4c		 je	 SHORT $LN2@OnRender@2

; 791  : 		{
; 792  : 			m_pIconBack->SetScale( 0.30f );

  0004f	8b 8e 60 01 00
	00		 mov	 ecx, DWORD PTR [esi+352]
  00055	f3 0f 10 05 00
	00 00 00	 movss	 xmm0, DWORD PTR __real@3e99999a
  0005d	8b 01		 mov	 eax, DWORD PTR [ecx]
  0005f	51		 push	 ecx
  00060	f3 0f 11 04 24	 movss	 DWORD PTR [esp], xmm0
  00065	ff 50 1c	 call	 DWORD PTR [eax+28]

; 793  : 			m_pIconBack->Render( iXPos + 13, iYPos + 12, UI_RENDER_MULTIPLY, TFO_BILINEAR );

  00068	8b 8e 60 01 00
	00		 mov	 ecx, DWORD PTR [esi+352]
  0006e	8b 01		 mov	 eax, DWORD PTR [ecx]
  00070	6a 00		 push	 0
  00072	6a 00		 push	 0
  00074	6a 01		 push	 1
  00076	6a 08		 push	 8
  00078	0f 57 c0	 xorps	 xmm0, xmm0
  0007b	51		 push	 ecx
  0007c	8d 53 0c	 lea	 edx, DWORD PTR [ebx+12]
  0007f	f3 0f 2a c2	 cvtsi2ss xmm0, edx
  00083	51		 push	 ecx
  00084	f3 0f 11 44 24
	04		 movss	 DWORD PTR [esp+4], xmm0
  0008a	8d 57 0d	 lea	 edx, DWORD PTR [edi+13]
  0008d	0f 57 c0	 xorps	 xmm0, xmm0
  00090	f3 0f 2a c2	 cvtsi2ss xmm0, edx
  00094	f3 0f 11 04 24	 movss	 DWORD PTR [esp], xmm0
  00099	ff 10		 call	 DWORD PTR [eax]
$LN2@OnRender@2:

; 794  : 		}
; 795  : 		if( m_pIconKey )

  0009b	83 be 64 01 00
	00 00		 cmp	 DWORD PTR [esi+356], 0
  000a2	74 4b		 je	 SHORT $LN7@OnRender@2

; 796  : 		{
; 797  : 			m_pIconKey->SetScale( 0.30f );

  000a4	8b 8e 64 01 00
	00		 mov	 ecx, DWORD PTR [esi+356]
  000aa	f3 0f 10 05 00
	00 00 00	 movss	 xmm0, DWORD PTR __real@3e99999a
  000b2	8b 01		 mov	 eax, DWORD PTR [ecx]
  000b4	51		 push	 ecx
  000b5	f3 0f 11 04 24	 movss	 DWORD PTR [esp], xmm0
  000ba	ff 50 1c	 call	 DWORD PTR [eax+28]

; 798  : 			m_pIconKey->Render( iXPos + 13, iYPos + 12, UI_RENDER_NORMAL, TFO_BILINEAR );

  000bd	8b 8e 64 01 00
	00		 mov	 ecx, DWORD PTR [esi+356]
  000c3	8b 11		 mov	 edx, DWORD PTR [ecx]
  000c5	33 c0		 xor	 eax, eax
  000c7	50		 push	 eax
  000c8	50		 push	 eax
  000c9	6a 01		 push	 1
  000cb	50		 push	 eax
  000cc	0f 57 c0	 xorps	 xmm0, xmm0
  000cf	51		 push	 ecx
  000d0	83 c3 0c	 add	 ebx, 12			; 0000000cH
  000d3	f3 0f 2a c3	 cvtsi2ss xmm0, ebx
  000d7	51		 push	 ecx
  000d8	f3 0f 11 44 24
	04		 movss	 DWORD PTR [esp+4], xmm0
  000de	83 c7 0d	 add	 edi, 13			; 0000000dH
  000e1	0f 57 c0	 xorps	 xmm0, xmm0
  000e4	f3 0f 2a c7	 cvtsi2ss xmm0, edi
  000e8	f3 0f 11 04 24	 movss	 DWORD PTR [esp], xmm0
  000ed	ff 12		 call	 DWORD PTR [edx]
$LN7@OnRender@2:
  000ef	5f		 pop	 edi
  000f0	5b		 pop	 ebx
$LN1@OnRender@2:
  000f1	5e		 pop	 esi

; 799  : 		}
; 800  : 	}
; 801  : }

  000f2	c3		 ret	 0
?OnRender@SettingKeyItemWnd@@MAEXXZ ENDP		; SettingKeyItemWnd::OnRender
_TEXT	ENDS
PUBLIC	??_C@_0BP@MKLIHFHB@SettingKeyItemWnd?3?3SetHelpText?$AA@ ; `string'
PUBLIC	??_C@_02PKFBDMAF@SD?$AA@			; `string'
PUBLIC	??_C@_03HPMAFFD@ASD?$AA@			; `string'
PUBLIC	??_C@_02OFPDELBL@AD?$AA@			; `string'
PUBLIC	??_C@_02OAHAMPIN@AS?$AA@			; `string'
PUBLIC	?SetHelpText@SettingKeyItemWnd@@QAEXW4ItemType@1@AAVioHashString@@@Z ; SettingKeyItemWnd::SetHelpText
;	COMDAT ??_C@_0BP@MKLIHFHB@SettingKeyItemWnd?3?3SetHelpText?$AA@
CONST	SEGMENT
??_C@_0BP@MKLIHFHB@SettingKeyItemWnd?3?3SetHelpText?$AA@ DB 'SettingKeyIt'
	DB	'emWnd::SetHelpText', 00H			; `string'
CONST	ENDS
;	COMDAT ??_C@_02PKFBDMAF@SD?$AA@
CONST	SEGMENT
??_C@_02PKFBDMAF@SD?$AA@ DB 'SD', 00H			; `string'
CONST	ENDS
;	COMDAT ??_C@_03HPMAFFD@ASD?$AA@
CONST	SEGMENT
??_C@_03HPMAFFD@ASD?$AA@ DB 'ASD', 00H			; `string'
CONST	ENDS
;	COMDAT ??_C@_02OFPDELBL@AD?$AA@
CONST	SEGMENT
??_C@_02OFPDELBL@AD?$AA@ DB 'AD', 00H			; `string'
CONST	ENDS
;	COMDAT ??_C@_02OAHAMPIN@AS?$AA@
CONST	SEGMENT
??_C@_02OAHAMPIN@AS?$AA@ DB 'AS', 00H			; `string'
; Function compile flags: /Ogsp
CONST	ENDS
;	COMDAT ?SetHelpText@SettingKeyItemWnd@@QAEXW4ItemType@1@AAVioHashString@@@Z
_TEXT	SEGMENT
_eItemType$ = 8						; size = 4
_rsText$ = 12						; size = 4
?SetHelpText@SettingKeyItemWnd@@QAEXW4ItemType@1@AAVioHashString@@@Z PROC ; SettingKeyItemWnd::SetHelpText, COMDAT
; _this$ = ecx

; 804  : {

  00000	55		 push	 ebp
  00001	8b ec		 mov	 ebp, esp

; 805  : 	if(eItemType == IT_TITLE_BASIC)

  00003	8b 45 08	 mov	 eax, DWORD PTR _eItemType$[ebp]
  00006	33 c9		 xor	 ecx, ecx
  00008	3b c1		 cmp	 eax, ecx
  0000a	75 08		 jne	 SHORT $LN175@SetHelpTex

; 806  : 		rsText = STR(1);

  0000c	51		 push	 ecx
  0000d	6a 01		 push	 1
  0000f	e9 4a 04 00 00	 jmp	 $LN178@SetHelpTex
$LN175@SetHelpTex:

; 807  : 	else if(eItemType == IT_UP)

  00014	83 f8 01	 cmp	 eax, 1
  00017	75 08		 jne	 SHORT $LN173@SetHelpTex

; 808  : 		rsText = STR(2);

  00019	51		 push	 ecx
  0001a	6a 02		 push	 2
  0001c	e9 3d 04 00 00	 jmp	 $LN178@SetHelpTex
$LN173@SetHelpTex:

; 809  : 	else if(eItemType == IT_DOWN)

  00021	83 f8 02	 cmp	 eax, 2
  00024	75 08		 jne	 SHORT $LN171@SetHelpTex

; 810  : 		rsText = STR(3);

  00026	51		 push	 ecx
  00027	6a 03		 push	 3
  00029	e9 30 04 00 00	 jmp	 $LN178@SetHelpTex
$LN171@SetHelpTex:

; 811  : 	else if(eItemType == IT_LEFT)

  0002e	83 f8 03	 cmp	 eax, 3
  00031	75 08		 jne	 SHORT $LN169@SetHelpTex

; 812  : 		rsText = STR(4);

  00033	51		 push	 ecx
  00034	6a 04		 push	 4
  00036	e9 23 04 00 00	 jmp	 $LN178@SetHelpTex
$LN169@SetHelpTex:

; 813  : 	else if(eItemType == IT_RIGHT)

  0003b	83 f8 04	 cmp	 eax, 4
  0003e	75 08		 jne	 SHORT $LN167@SetHelpTex

; 814  : 		rsText = STR(5);

  00040	51		 push	 ecx
  00041	6a 05		 push	 5
  00043	e9 16 04 00 00	 jmp	 $LN178@SetHelpTex
$LN167@SetHelpTex:

; 815  : 	else if(eItemType == IT_ATTACK)

  00048	83 f8 05	 cmp	 eax, 5
  0004b	75 08		 jne	 SHORT $LN165@SetHelpTex

; 816  : 		rsText = STR(6);

  0004d	51		 push	 ecx
  0004e	6a 06		 push	 6
  00050	e9 09 04 00 00	 jmp	 $LN178@SetHelpTex
$LN165@SetHelpTex:

; 817  : 	else if(eItemType == IT_DEFENSE)

  00055	83 f8 06	 cmp	 eax, 6
  00058	75 08		 jne	 SHORT $LN163@SetHelpTex

; 818  : 		rsText = STR(7);

  0005a	51		 push	 ecx
  0005b	6a 07		 push	 7
  0005d	e9 fc 03 00 00	 jmp	 $LN178@SetHelpTex
$LN163@SetHelpTex:

; 819  : 	else if(eItemType == IT_JUMP)

  00062	83 f8 07	 cmp	 eax, 7
  00065	75 08		 jne	 SHORT $LN161@SetHelpTex

; 820  : 		rsText = STR(8);

  00067	51		 push	 ecx
  00068	6a 08		 push	 8
  0006a	e9 ef 03 00 00	 jmp	 $LN178@SetHelpTex
$LN161@SetHelpTex:

; 821  : 	else if(eItemType == IT_TITLE_ADDTION)

  0006f	83 f8 08	 cmp	 eax, 8
  00072	75 08		 jne	 SHORT $LN159@SetHelpTex

; 822  : 		rsText = STR(9);

  00074	51		 push	 ecx
  00075	6a 09		 push	 9
  00077	e9 e2 03 00 00	 jmp	 $LN178@SetHelpTex
$LN159@SetHelpTex:

; 823  : 	else if(eItemType == IT_LEFT_UP)

  0007c	83 f8 09	 cmp	 eax, 9
  0007f	75 08		 jne	 SHORT $LN157@SetHelpTex

; 824  : 		rsText = STR(10);

  00081	51		 push	 ecx
  00082	6a 0a		 push	 10			; 0000000aH
  00084	e9 d5 03 00 00	 jmp	 $LN178@SetHelpTex
$LN157@SetHelpTex:

; 825  : 	else if(eItemType == IT_RIGHT_UP)

  00089	83 f8 0a	 cmp	 eax, 10			; 0000000aH
  0008c	75 08		 jne	 SHORT $LN155@SetHelpTex

; 826  : 		rsText = STR(11);

  0008e	51		 push	 ecx
  0008f	6a 0b		 push	 11			; 0000000bH
  00091	e9 c8 03 00 00	 jmp	 $LN178@SetHelpTex
$LN155@SetHelpTex:

; 827  : 	else if(eItemType == IT_LEFT_DOWN)

  00096	83 f8 0b	 cmp	 eax, 11			; 0000000bH
  00099	75 08		 jne	 SHORT $LN153@SetHelpTex

; 828  : 		rsText = STR(12);

  0009b	51		 push	 ecx
  0009c	6a 0c		 push	 12			; 0000000cH
  0009e	e9 bb 03 00 00	 jmp	 $LN178@SetHelpTex
$LN153@SetHelpTex:

; 829  : 	else if(eItemType == IT_RIGHT_DOWN)

  000a3	83 f8 0c	 cmp	 eax, 12			; 0000000cH
  000a6	75 08		 jne	 SHORT $LN151@SetHelpTex

; 830  : 		rsText = STR(13);

  000a8	51		 push	 ecx
  000a9	6a 0d		 push	 13			; 0000000dH
  000ab	e9 ae 03 00 00	 jmp	 $LN178@SetHelpTex
$LN151@SetHelpTex:

; 831  : 	else if(eItemType == IT_TITLE_SKILL)

  000b0	83 f8 0d	 cmp	 eax, 13			; 0000000dH
  000b3	75 08		 jne	 SHORT $LN149@SetHelpTex

; 832  : 		rsText = STR(14);

  000b5	51		 push	 ecx
  000b6	6a 0e		 push	 14			; 0000000eH
  000b8	e9 a1 03 00 00	 jmp	 $LN178@SetHelpTex
$LN149@SetHelpTex:

; 833  : 	else if(eItemType == IT_CLOAK_SKILL)

  000bd	83 f8 0e	 cmp	 eax, 14			; 0000000eH
  000c0	75 0a		 jne	 SHORT $LN147@SetHelpTex

; 834  : 		rsText = "AS";

  000c2	68 00 00 00 00	 push	 OFFSET ??_C@_02OAHAMPIN@AS?$AA@
  000c7	e9 ab 03 00 00	 jmp	 $LN179@SetHelpTex
$LN147@SetHelpTex:

; 835  : 	else if(eItemType == IT_HELM_SKILL)

  000cc	83 f8 0f	 cmp	 eax, 15			; 0000000fH
  000cf	75 0a		 jne	 SHORT $LN145@SetHelpTex

; 836  : 		rsText = "AD";

  000d1	68 00 00 00 00	 push	 OFFSET ??_C@_02OFPDELBL@AD?$AA@
  000d6	e9 9c 03 00 00	 jmp	 $LN179@SetHelpTex
$LN145@SetHelpTex:

; 837  : 	else if(eItemType == IT_ARMOR_SKILL)

  000db	83 f8 10	 cmp	 eax, 16			; 00000010H
  000de	75 0a		 jne	 SHORT $LN143@SetHelpTex

; 838  : 		rsText = "ASD";

  000e0	68 00 00 00 00	 push	 OFFSET ??_C@_03HPMAFFD@ASD?$AA@
  000e5	e9 8d 03 00 00	 jmp	 $LN179@SetHelpTex
$LN143@SetHelpTex:

; 839  : 	else if(eItemType == IT_WEAPON_SKILL)

  000ea	83 f8 11	 cmp	 eax, 17			; 00000011H
  000ed	75 0a		 jne	 SHORT $LN141@SetHelpTex

; 840  : 		rsText = "SD";

  000ef	68 00 00 00 00	 push	 OFFSET ??_C@_02PKFBDMAF@SD?$AA@
  000f4	e9 7e 03 00 00	 jmp	 $LN179@SetHelpTex
$LN141@SetHelpTex:

; 841  : 	else if(eItemType == IT_TITLE_FUNCTION)

  000f9	83 f8 12	 cmp	 eax, 18			; 00000012H
  000fc	75 08		 jne	 SHORT $LN139@SetHelpTex

; 842  : 		rsText = STR(15);

  000fe	51		 push	 ecx
  000ff	6a 0f		 push	 15			; 0000000fH
  00101	e9 58 03 00 00	 jmp	 $LN178@SetHelpTex
$LN139@SetHelpTex:

; 843  : 	else if(eItemType == IT_CONSUMPTION1)

  00106	83 f8 13	 cmp	 eax, 19			; 00000013H
  00109	75 08		 jne	 SHORT $LN137@SetHelpTex

; 844  : 		rsText = STR(84);

  0010b	51		 push	 ecx
  0010c	6a 54		 push	 84			; 00000054H
  0010e	e9 4b 03 00 00	 jmp	 $LN178@SetHelpTex
$LN137@SetHelpTex:

; 845  : 	else if(eItemType == IT_CONSUMPTION2)

  00113	83 f8 14	 cmp	 eax, 20			; 00000014H
  00116	75 08		 jne	 SHORT $LN135@SetHelpTex

; 846  : 		rsText = STR(85);

  00118	51		 push	 ecx
  00119	6a 55		 push	 85			; 00000055H
  0011b	e9 3e 03 00 00	 jmp	 $LN178@SetHelpTex
$LN135@SetHelpTex:

; 847  : 	else if(eItemType == IT_CONSUMPTION3)

  00120	83 f8 15	 cmp	 eax, 21			; 00000015H
  00123	75 08		 jne	 SHORT $LN133@SetHelpTex

; 848  : 		rsText = STR(86);

  00125	51		 push	 ecx
  00126	6a 56		 push	 86			; 00000056H
  00128	e9 31 03 00 00	 jmp	 $LN178@SetHelpTex
$LN133@SetHelpTex:

; 849  : 	else if(eItemType == IT_CONSUMPTION4)

  0012d	83 f8 16	 cmp	 eax, 22			; 00000016H
  00130	75 08		 jne	 SHORT $LN131@SetHelpTex

; 850  : 		rsText = STR(87);

  00132	51		 push	 ecx
  00133	6a 57		 push	 87			; 00000057H
  00135	e9 24 03 00 00	 jmp	 $LN178@SetHelpTex
$LN131@SetHelpTex:

; 851  : 	else if(eItemType == IT_HELP)

  0013a	83 f8 17	 cmp	 eax, 23			; 00000017H
  0013d	75 08		 jne	 SHORT $LN129@SetHelpTex

; 852  : 		rsText = STR(16);

  0013f	51		 push	 ecx
  00140	6a 10		 push	 16			; 00000010H
  00142	e9 17 03 00 00	 jmp	 $LN178@SetHelpTex
$LN129@SetHelpTex:

; 853  : 	else if(eItemType == IT_SHOP)

  00147	83 f8 18	 cmp	 eax, 24			; 00000018H
  0014a	75 08		 jne	 SHORT $LN127@SetHelpTex

; 854  : 		rsText = STR(21);

  0014c	51		 push	 ecx
  0014d	6a 15		 push	 21			; 00000015H
  0014f	e9 0a 03 00 00	 jmp	 $LN178@SetHelpTex
$LN127@SetHelpTex:

; 855  : 	else if(eItemType == IT_GROWTH)

  00154	83 f8 19	 cmp	 eax, 25			; 00000019H
  00157	75 08		 jne	 SHORT $LN125@SetHelpTex

; 856  : 		rsText = STR(17);

  00159	51		 push	 ecx
  0015a	6a 11		 push	 17			; 00000011H
  0015c	e9 fd 02 00 00	 jmp	 $LN178@SetHelpTex
$LN125@SetHelpTex:

; 857  : 	else if(eItemType == IT_PRESENT)

  00161	83 f8 1a	 cmp	 eax, 26			; 0000001aH
  00164	75 08		 jne	 SHORT $LN123@SetHelpTex

; 858  : 		rsText = STR(18);

  00166	51		 push	 ecx
  00167	6a 12		 push	 18			; 00000012H
  00169	e9 f0 02 00 00	 jmp	 $LN178@SetHelpTex
$LN123@SetHelpTex:

; 859  : 	else if(eItemType == IT_QUEST)

  0016e	83 f8 1b	 cmp	 eax, 27			; 0000001bH
  00171	75 08		 jne	 SHORT $LN121@SetHelpTex

; 860  : 		rsText = STR(19);

  00173	51		 push	 ecx
  00174	6a 13		 push	 19			; 00000013H
  00176	e9 e3 02 00 00	 jmp	 $LN178@SetHelpTex
$LN121@SetHelpTex:

; 861  : 	else if(eItemType == IT_MYHOMEPAGE)

  0017b	83 f8 1c	 cmp	 eax, 28			; 0000001cH
  0017e	75 08		 jne	 SHORT $LN119@SetHelpTex

; 862  : 		rsText = STR(20);

  00180	51		 push	 ecx
  00181	6a 14		 push	 20			; 00000014H
  00183	e9 d6 02 00 00	 jmp	 $LN178@SetHelpTex
$LN119@SetHelpTex:

; 863  : 	else if(eItemType == IT_OPTION)

  00188	83 f8 1e	 cmp	 eax, 30			; 0000001eH
  0018b	75 08		 jne	 SHORT $LN117@SetHelpTex

; 864  : 		rsText = STR(22);

  0018d	51		 push	 ecx
  0018e	6a 16		 push	 22			; 00000016H
  00190	e9 c9 02 00 00	 jmp	 $LN178@SetHelpTex
$LN117@SetHelpTex:

; 865  : 	else if(eItemType == IT_MESSENGER)

  00195	83 f8 1f	 cmp	 eax, 31			; 0000001fH
  00198	75 08		 jne	 SHORT $LN115@SetHelpTex

; 866  : 		rsText = STR(23);

  0019a	51		 push	 ecx
  0019b	6a 17		 push	 23			; 00000017H
  0019d	e9 bc 02 00 00	 jmp	 $LN178@SetHelpTex
$LN115@SetHelpTex:

; 867  : 	else if(eItemType == IT_VOICE)

  001a2	83 f8 20	 cmp	 eax, 32			; 00000020H
  001a5	75 08		 jne	 SHORT $LN113@SetHelpTex

; 868  : 		rsText = STR(24);

  001a7	51		 push	 ecx
  001a8	6a 18		 push	 24			; 00000018H
  001aa	e9 af 02 00 00	 jmp	 $LN178@SetHelpTex
$LN113@SetHelpTex:

; 869  : 	else if(eItemType == IT_SCREENSHOT)

  001af	83 f8 21	 cmp	 eax, 33			; 00000021H
  001b2	75 08		 jne	 SHORT $LN111@SetHelpTex

; 870  : 		rsText = STR(25);

  001b4	51		 push	 ecx
  001b5	6a 19		 push	 25			; 00000019H
  001b7	e9 a2 02 00 00	 jmp	 $LN178@SetHelpTex
$LN111@SetHelpTex:

; 871  : 	else if(eItemType == IT_MOVIECAPTURE )

  001bc	83 f8 22	 cmp	 eax, 34			; 00000022H
  001bf	75 08		 jne	 SHORT $LN109@SetHelpTex

; 872  : 		rsText = STR(26);

  001c1	51		 push	 ecx
  001c2	6a 1a		 push	 26			; 0000001aH
  001c4	e9 95 02 00 00	 jmp	 $LN178@SetHelpTex
$LN109@SetHelpTex:

; 873  : 	else if(eItemType == IT_SPECIAL_MOTION )

  001c9	83 f8 23	 cmp	 eax, 35			; 00000023H
  001cc	75 08		 jne	 SHORT $LN107@SetHelpTex

; 874  : 		rsText = STR(27);

  001ce	51		 push	 ecx
  001cf	6a 1b		 push	 27			; 0000001bH
  001d1	e9 88 02 00 00	 jmp	 $LN178@SetHelpTex
$LN107@SetHelpTex:

; 875  : 	else if(eItemType == IT_ZOOMIN )

  001d6	83 f8 24	 cmp	 eax, 36			; 00000024H
  001d9	75 08		 jne	 SHORT $LN105@SetHelpTex

; 876  : 		rsText = STR(28);

  001db	51		 push	 ecx
  001dc	6a 1c		 push	 28			; 0000001cH
  001de	e9 7b 02 00 00	 jmp	 $LN178@SetHelpTex
$LN105@SetHelpTex:

; 877  : 	else if(eItemType == IT_ZOOMOUT )

  001e3	83 f8 25	 cmp	 eax, 37			; 00000025H
  001e6	75 08		 jne	 SHORT $LN103@SetHelpTex

; 878  : 		rsText = STR(29);

  001e8	51		 push	 ecx
  001e9	6a 1d		 push	 29			; 0000001dH
  001eb	e9 6e 02 00 00	 jmp	 $LN178@SetHelpTex
$LN103@SetHelpTex:

; 879  : 	else if(eItemType == IT_TITLE_SOLDIER)

  001f0	83 f8 26	 cmp	 eax, 38			; 00000026H
  001f3	75 08		 jne	 SHORT $LN101@SetHelpTex

; 880  : 		rsText = STR(30);

  001f5	51		 push	 ecx
  001f6	6a 1e		 push	 30			; 0000001eH
  001f8	e9 61 02 00 00	 jmp	 $LN178@SetHelpTex
$LN101@SetHelpTex:

; 881  : 	else if(eItemType == IT_SOLDIER1)

  001fd	83 f8 27	 cmp	 eax, 39			; 00000027H
  00200	75 08		 jne	 SHORT $LN99@SetHelpTex

; 882  : 		rsText = STR(31);

  00202	51		 push	 ecx
  00203	6a 1f		 push	 31			; 0000001fH
  00205	e9 54 02 00 00	 jmp	 $LN178@SetHelpTex
$LN99@SetHelpTex:

; 883  : 	else if(eItemType == IT_SOLDIER2)

  0020a	83 f8 28	 cmp	 eax, 40			; 00000028H
  0020d	75 08		 jne	 SHORT $LN97@SetHelpTex

; 884  : 		rsText = STR(32);

  0020f	51		 push	 ecx
  00210	6a 20		 push	 32			; 00000020H
  00212	e9 47 02 00 00	 jmp	 $LN178@SetHelpTex
$LN97@SetHelpTex:

; 885  : 	else if(eItemType == IT_SOLDIER3)

  00217	83 f8 29	 cmp	 eax, 41			; 00000029H
  0021a	75 08		 jne	 SHORT $LN95@SetHelpTex

; 886  : 		rsText = STR(33);

  0021c	51		 push	 ecx
  0021d	6a 21		 push	 33			; 00000021H
  0021f	e9 3a 02 00 00	 jmp	 $LN178@SetHelpTex
$LN95@SetHelpTex:

; 887  : 	else if(eItemType == IT_SOLDIER4)

  00224	83 f8 2a	 cmp	 eax, 42			; 0000002aH
  00227	75 08		 jne	 SHORT $LN93@SetHelpTex

; 888  : 		rsText = STR(34);

  00229	51		 push	 ecx
  0022a	6a 22		 push	 34			; 00000022H
  0022c	e9 2d 02 00 00	 jmp	 $LN178@SetHelpTex
$LN93@SetHelpTex:

; 889  : 	else if(eItemType == IT_SOLDIER5)

  00231	83 f8 2b	 cmp	 eax, 43			; 0000002bH
  00234	75 08		 jne	 SHORT $LN91@SetHelpTex

; 890  : 		rsText = STR(35);

  00236	51		 push	 ecx
  00237	6a 23		 push	 35			; 00000023H
  00239	e9 20 02 00 00	 jmp	 $LN178@SetHelpTex
$LN91@SetHelpTex:

; 891  : 	else if(eItemType == IT_SOLDIER6)

  0023e	83 f8 2c	 cmp	 eax, 44			; 0000002cH
  00241	75 08		 jne	 SHORT $LN89@SetHelpTex

; 892  : 		rsText = STR(36);

  00243	51		 push	 ecx
  00244	6a 24		 push	 36			; 00000024H
  00246	e9 13 02 00 00	 jmp	 $LN178@SetHelpTex
$LN89@SetHelpTex:

; 893  : 	else if(eItemType == IT_SOLDIER7)

  0024b	83 f8 2d	 cmp	 eax, 45			; 0000002dH
  0024e	75 08		 jne	 SHORT $LN87@SetHelpTex

; 894  : 		rsText = STR(37);

  00250	51		 push	 ecx
  00251	6a 25		 push	 37			; 00000025H
  00253	e9 06 02 00 00	 jmp	 $LN178@SetHelpTex
$LN87@SetHelpTex:

; 895  : 	else if(eItemType == IT_SOLDIER8)

  00258	83 f8 2e	 cmp	 eax, 46			; 0000002eH
  0025b	75 08		 jne	 SHORT $LN85@SetHelpTex

; 896  : 		rsText = STR(38);

  0025d	51		 push	 ecx
  0025e	6a 26		 push	 38			; 00000026H
  00260	e9 f9 01 00 00	 jmp	 $LN178@SetHelpTex
$LN85@SetHelpTex:

; 897  : 	else if(eItemType == IT_SOLDIER9)

  00265	83 f8 2f	 cmp	 eax, 47			; 0000002fH
  00268	75 08		 jne	 SHORT $LN83@SetHelpTex

; 898  : 		rsText = STR(39);

  0026a	51		 push	 ecx
  0026b	6a 27		 push	 39			; 00000027H
  0026d	e9 ec 01 00 00	 jmp	 $LN178@SetHelpTex
$LN83@SetHelpTex:

; 899  : 	else if(eItemType == IT_SOLDIER10)

  00272	83 f8 30	 cmp	 eax, 48			; 00000030H
  00275	75 08		 jne	 SHORT $LN81@SetHelpTex

; 900  : 		rsText = STR(40);

  00277	51		 push	 ecx
  00278	6a 28		 push	 40			; 00000028H
  0027a	e9 df 01 00 00	 jmp	 $LN178@SetHelpTex
$LN81@SetHelpTex:

; 901  : 	else if(eItemType == IT_SOLDIER11)

  0027f	83 f8 31	 cmp	 eax, 49			; 00000031H
  00282	75 08		 jne	 SHORT $LN79@SetHelpTex

; 902  : 		rsText = STR(41);

  00284	51		 push	 ecx
  00285	6a 29		 push	 41			; 00000029H
  00287	e9 d2 01 00 00	 jmp	 $LN178@SetHelpTex
$LN79@SetHelpTex:

; 903  : 	else if(eItemType == IT_SOLDIER12)

  0028c	83 f8 32	 cmp	 eax, 50			; 00000032H
  0028f	75 08		 jne	 SHORT $LN77@SetHelpTex

; 904  : 		rsText = STR(42);

  00291	51		 push	 ecx
  00292	6a 2a		 push	 42			; 0000002aH
  00294	e9 c5 01 00 00	 jmp	 $LN178@SetHelpTex
$LN77@SetHelpTex:

; 905  : 	else if(eItemType == IT_SOLDIER13)

  00299	83 f8 33	 cmp	 eax, 51			; 00000033H
  0029c	75 08		 jne	 SHORT $LN75@SetHelpTex

; 906  : 		rsText = STR(56);

  0029e	51		 push	 ecx
  0029f	6a 38		 push	 56			; 00000038H
  002a1	e9 b8 01 00 00	 jmp	 $LN178@SetHelpTex
$LN75@SetHelpTex:

; 907  : 	else if(eItemType == IT_SOLDIER14)

  002a6	83 f8 34	 cmp	 eax, 52			; 00000034H
  002a9	75 08		 jne	 SHORT $LN73@SetHelpTex

; 908  : 		rsText = STR(57);

  002ab	51		 push	 ecx
  002ac	6a 39		 push	 57			; 00000039H
  002ae	e9 ab 01 00 00	 jmp	 $LN178@SetHelpTex
$LN73@SetHelpTex:

; 909  : 	else if(eItemType == IT_SOLDIER15)

  002b3	83 f8 35	 cmp	 eax, 53			; 00000035H
  002b6	75 08		 jne	 SHORT $LN71@SetHelpTex

; 910  : 		rsText = STR(58);

  002b8	51		 push	 ecx
  002b9	6a 3a		 push	 58			; 0000003aH
  002bb	e9 9e 01 00 00	 jmp	 $LN178@SetHelpTex
$LN71@SetHelpTex:

; 911  : 	else if(eItemType == IT_SOLDIER16)

  002c0	83 f8 36	 cmp	 eax, 54			; 00000036H
  002c3	75 08		 jne	 SHORT $LN69@SetHelpTex

; 912  : 		rsText = STR(59);

  002c5	51		 push	 ecx
  002c6	6a 3b		 push	 59			; 0000003bH
  002c8	e9 91 01 00 00	 jmp	 $LN178@SetHelpTex
$LN69@SetHelpTex:

; 913  : 	else if(eItemType == IT_SOLDIER17)

  002cd	83 f8 37	 cmp	 eax, 55			; 00000037H
  002d0	75 08		 jne	 SHORT $LN67@SetHelpTex

; 914  : 		rsText = STR(60);

  002d2	51		 push	 ecx
  002d3	6a 3c		 push	 60			; 0000003cH
  002d5	e9 84 01 00 00	 jmp	 $LN178@SetHelpTex
$LN67@SetHelpTex:

; 915  : 	else if(eItemType == IT_SOLDIER18)

  002da	83 f8 38	 cmp	 eax, 56			; 00000038H
  002dd	75 08		 jne	 SHORT $LN65@SetHelpTex

; 916  : 		rsText = STR(61);

  002df	51		 push	 ecx
  002e0	6a 3d		 push	 61			; 0000003dH
  002e2	e9 77 01 00 00	 jmp	 $LN178@SetHelpTex
$LN65@SetHelpTex:

; 917  : 	else if(eItemType == IT_SOLDIER19)

  002e7	83 f8 39	 cmp	 eax, 57			; 00000039H
  002ea	75 08		 jne	 SHORT $LN63@SetHelpTex

; 918  : 		rsText = STR(62);

  002ec	51		 push	 ecx
  002ed	6a 3e		 push	 62			; 0000003eH
  002ef	e9 6a 01 00 00	 jmp	 $LN178@SetHelpTex
$LN63@SetHelpTex:

; 919  : 	else if(eItemType == IT_SOLDIER20)

  002f4	83 f8 3a	 cmp	 eax, 58			; 0000003aH
  002f7	75 08		 jne	 SHORT $LN61@SetHelpTex

; 920  : 		rsText = STR(63);

  002f9	51		 push	 ecx
  002fa	6a 3f		 push	 63			; 0000003fH
  002fc	e9 5d 01 00 00	 jmp	 $LN178@SetHelpTex
$LN61@SetHelpTex:

; 921  : 	else if(eItemType == IT_SOLDIER21)

  00301	83 f8 3b	 cmp	 eax, 59			; 0000003bH
  00304	75 08		 jne	 SHORT $LN59@SetHelpTex

; 922  : 		rsText = STR(64);

  00306	51		 push	 ecx
  00307	6a 40		 push	 64			; 00000040H
  00309	e9 50 01 00 00	 jmp	 $LN178@SetHelpTex
$LN59@SetHelpTex:

; 923  : 	else if(eItemType == IT_SOLDIER22)

  0030e	83 f8 3c	 cmp	 eax, 60			; 0000003cH
  00311	75 08		 jne	 SHORT $LN57@SetHelpTex

; 924  : 		rsText = STR(65);

  00313	51		 push	 ecx
  00314	6a 41		 push	 65			; 00000041H
  00316	e9 43 01 00 00	 jmp	 $LN178@SetHelpTex
$LN57@SetHelpTex:

; 925  : 	else if(eItemType == IT_SOLDIER23)

  0031b	83 f8 3d	 cmp	 eax, 61			; 0000003dH
  0031e	75 08		 jne	 SHORT $LN55@SetHelpTex

; 926  : 		rsText = STR(66);

  00320	51		 push	 ecx
  00321	6a 42		 push	 66			; 00000042H
  00323	e9 36 01 00 00	 jmp	 $LN178@SetHelpTex
$LN55@SetHelpTex:

; 927  : 	else if(eItemType == IT_SOLDIER24)

  00328	83 f8 3e	 cmp	 eax, 62			; 0000003eH
  0032b	75 08		 jne	 SHORT $LN53@SetHelpTex

; 928  : 		rsText = STR(67);

  0032d	51		 push	 ecx
  0032e	6a 43		 push	 67			; 00000043H
  00330	e9 29 01 00 00	 jmp	 $LN178@SetHelpTex
$LN53@SetHelpTex:

; 929  : 	else if(eItemType == IT_SOLDIER25)

  00335	83 f8 3f	 cmp	 eax, 63			; 0000003fH
  00338	75 08		 jne	 SHORT $LN51@SetHelpTex

; 930  : 		rsText = STR(68);

  0033a	51		 push	 ecx
  0033b	6a 44		 push	 68			; 00000044H
  0033d	e9 1c 01 00 00	 jmp	 $LN178@SetHelpTex
$LN51@SetHelpTex:

; 931  : 	else if(eItemType == IT_SOLDIER26)

  00342	83 f8 40	 cmp	 eax, 64			; 00000040H
  00345	75 08		 jne	 SHORT $LN49@SetHelpTex

; 932  : 		rsText = STR(69);

  00347	51		 push	 ecx
  00348	6a 45		 push	 69			; 00000045H
  0034a	e9 0f 01 00 00	 jmp	 $LN178@SetHelpTex
$LN49@SetHelpTex:

; 933  : 	else if(eItemType == IT_SOLDIER27)

  0034f	83 f8 41	 cmp	 eax, 65			; 00000041H
  00352	75 08		 jne	 SHORT $LN47@SetHelpTex

; 934  : 		rsText = STR(70);

  00354	51		 push	 ecx
  00355	6a 46		 push	 70			; 00000046H
  00357	e9 02 01 00 00	 jmp	 $LN178@SetHelpTex
$LN47@SetHelpTex:

; 935  : 	else if(eItemType == IT_SOLDIER28)

  0035c	83 f8 42	 cmp	 eax, 66			; 00000042H
  0035f	75 08		 jne	 SHORT $LN45@SetHelpTex

; 936  : 		rsText = STR(71);

  00361	51		 push	 ecx
  00362	6a 47		 push	 71			; 00000047H
  00364	e9 f5 00 00 00	 jmp	 $LN178@SetHelpTex
$LN45@SetHelpTex:

; 937  : 	else if(eItemType == IT_SOLDIER29)

  00369	83 f8 43	 cmp	 eax, 67			; 00000043H
  0036c	75 08		 jne	 SHORT $LN43@SetHelpTex

; 938  : 		rsText = STR(72);

  0036e	51		 push	 ecx
  0036f	6a 48		 push	 72			; 00000048H
  00371	e9 e8 00 00 00	 jmp	 $LN178@SetHelpTex
$LN43@SetHelpTex:

; 939  : 	else if(eItemType == IT_SOLDIER30)

  00376	83 f8 44	 cmp	 eax, 68			; 00000044H
  00379	75 08		 jne	 SHORT $LN41@SetHelpTex

; 940  : 		rsText = STR(73);

  0037b	51		 push	 ecx
  0037c	6a 49		 push	 73			; 00000049H
  0037e	e9 db 00 00 00	 jmp	 $LN178@SetHelpTex
$LN41@SetHelpTex:

; 941  : 	else if(eItemType == IT_SOLDIER31)

  00383	83 f8 45	 cmp	 eax, 69			; 00000045H
  00386	75 08		 jne	 SHORT $LN39@SetHelpTex

; 942  : 		rsText = STR(74);

  00388	51		 push	 ecx
  00389	6a 4a		 push	 74			; 0000004aH
  0038b	e9 ce 00 00 00	 jmp	 $LN178@SetHelpTex
$LN39@SetHelpTex:

; 943  : 	else if(eItemType == IT_SOLDIER32)

  00390	83 f8 46	 cmp	 eax, 70			; 00000046H
  00393	75 08		 jne	 SHORT $LN37@SetHelpTex

; 944  : 		rsText = STR(75);

  00395	51		 push	 ecx
  00396	6a 4b		 push	 75			; 0000004bH
  00398	e9 c1 00 00 00	 jmp	 $LN178@SetHelpTex
$LN37@SetHelpTex:

; 945  : 	else if(eItemType == IT_SOLDIER33)

  0039d	83 f8 47	 cmp	 eax, 71			; 00000047H
  003a0	75 08		 jne	 SHORT $LN35@SetHelpTex

; 946  : 		rsText = STR(76);

  003a2	51		 push	 ecx
  003a3	6a 4c		 push	 76			; 0000004cH
  003a5	e9 b4 00 00 00	 jmp	 $LN178@SetHelpTex
$LN35@SetHelpTex:

; 947  : 	else if(eItemType == IT_SOLDIER34)

  003aa	83 f8 48	 cmp	 eax, 72			; 00000048H
  003ad	75 08		 jne	 SHORT $LN33@SetHelpTex

; 948  : 		rsText = STR(77);

  003af	51		 push	 ecx
  003b0	6a 4d		 push	 77			; 0000004dH
  003b2	e9 a7 00 00 00	 jmp	 $LN178@SetHelpTex
$LN33@SetHelpTex:

; 949  : 	else if(eItemType == IT_SOLDIER35)

  003b7	83 f8 49	 cmp	 eax, 73			; 00000049H
  003ba	75 08		 jne	 SHORT $LN31@SetHelpTex

; 950  : 		rsText = STR(78);

  003bc	51		 push	 ecx
  003bd	6a 4e		 push	 78			; 0000004eH
  003bf	e9 9a 00 00 00	 jmp	 $LN178@SetHelpTex
$LN31@SetHelpTex:

; 951  : 	else if(eItemType == IT_SOLDIER36)

  003c4	83 f8 4a	 cmp	 eax, 74			; 0000004aH
  003c7	75 08		 jne	 SHORT $LN29@SetHelpTex

; 952  : 		rsText = STR(79);

  003c9	51		 push	 ecx
  003ca	6a 4f		 push	 79			; 0000004fH
  003cc	e9 8d 00 00 00	 jmp	 $LN178@SetHelpTex
$LN29@SetHelpTex:

; 953  : 	else if(eItemType == IT_TITLE_MACRO)

  003d1	83 f8 4b	 cmp	 eax, 75			; 0000004bH
  003d4	75 08		 jne	 SHORT $LN27@SetHelpTex

; 954  : 		rsText = STR(43);

  003d6	51		 push	 ecx
  003d7	6a 2b		 push	 43			; 0000002bH
  003d9	e9 80 00 00 00	 jmp	 $LN178@SetHelpTex
$LN27@SetHelpTex:

; 955  : 	else if(eItemType == IT_MACRO1)

  003de	83 f8 4c	 cmp	 eax, 76			; 0000004cH
  003e1	75 05		 jne	 SHORT $LN25@SetHelpTex

; 956  : 		rsText = STR(44);

  003e3	51		 push	 ecx
  003e4	6a 2c		 push	 44			; 0000002cH
  003e6	eb 76		 jmp	 SHORT $LN178@SetHelpTex
$LN25@SetHelpTex:

; 957  : 	else if(eItemType == IT_MACRO2)

  003e8	83 f8 4d	 cmp	 eax, 77			; 0000004dH
  003eb	75 05		 jne	 SHORT $LN23@SetHelpTex

; 958  : 		rsText = STR(45);

  003ed	51		 push	 ecx
  003ee	6a 2d		 push	 45			; 0000002dH
  003f0	eb 6c		 jmp	 SHORT $LN178@SetHelpTex
$LN23@SetHelpTex:

; 959  : 	else if(eItemType == IT_MACRO3)

  003f2	83 f8 4e	 cmp	 eax, 78			; 0000004eH
  003f5	75 05		 jne	 SHORT $LN21@SetHelpTex

; 960  : 		rsText = STR(46);

  003f7	51		 push	 ecx
  003f8	6a 2e		 push	 46			; 0000002eH
  003fa	eb 62		 jmp	 SHORT $LN178@SetHelpTex
$LN21@SetHelpTex:

; 961  : 	else if(eItemType == IT_MACRO4)

  003fc	83 f8 4f	 cmp	 eax, 79			; 0000004fH
  003ff	75 05		 jne	 SHORT $LN19@SetHelpTex

; 962  : 		rsText = STR(47);

  00401	51		 push	 ecx
  00402	6a 2f		 push	 47			; 0000002fH
  00404	eb 58		 jmp	 SHORT $LN178@SetHelpTex
$LN19@SetHelpTex:

; 963  : 	else if(eItemType == IT_MACRO5)

  00406	83 f8 50	 cmp	 eax, 80			; 00000050H
  00409	75 05		 jne	 SHORT $LN17@SetHelpTex

; 964  : 		rsText = STR(48);

  0040b	51		 push	 ecx
  0040c	6a 30		 push	 48			; 00000030H
  0040e	eb 4e		 jmp	 SHORT $LN178@SetHelpTex
$LN17@SetHelpTex:

; 965  : 	else if(eItemType == IT_MACRO6)

  00410	83 f8 51	 cmp	 eax, 81			; 00000051H
  00413	75 05		 jne	 SHORT $LN15@SetHelpTex

; 966  : 		rsText = STR(49);

  00415	51		 push	 ecx
  00416	6a 31		 push	 49			; 00000031H
  00418	eb 44		 jmp	 SHORT $LN178@SetHelpTex
$LN15@SetHelpTex:

; 967  : 	else if(eItemType == IT_MACRO7)

  0041a	83 f8 52	 cmp	 eax, 82			; 00000052H
  0041d	75 05		 jne	 SHORT $LN13@SetHelpTex

; 968  : 		rsText = STR(50);

  0041f	51		 push	 ecx
  00420	6a 32		 push	 50			; 00000032H
  00422	eb 3a		 jmp	 SHORT $LN178@SetHelpTex
$LN13@SetHelpTex:

; 969  : 	else if(eItemType == IT_MACRO8)

  00424	83 f8 53	 cmp	 eax, 83			; 00000053H
  00427	75 05		 jne	 SHORT $LN11@SetHelpTex

; 970  : 		rsText = STR(51);

  00429	51		 push	 ecx
  0042a	6a 33		 push	 51			; 00000033H
  0042c	eb 30		 jmp	 SHORT $LN178@SetHelpTex
$LN11@SetHelpTex:

; 971  : 	else if(eItemType == IT_MACRO9)

  0042e	83 f8 54	 cmp	 eax, 84			; 00000054H
  00431	75 05		 jne	 SHORT $LN9@SetHelpTex

; 972  : 		rsText = STR(52);

  00433	51		 push	 ecx
  00434	6a 34		 push	 52			; 00000034H
  00436	eb 26		 jmp	 SHORT $LN178@SetHelpTex
$LN9@SetHelpTex:

; 973  : 	else if(eItemType == IT_MACRO10)

  00438	83 f8 55	 cmp	 eax, 85			; 00000055H
  0043b	75 05		 jne	 SHORT $LN7@SetHelpTex

; 974  : 		rsText = STR(53);

  0043d	51		 push	 ecx
  0043e	6a 35		 push	 53			; 00000035H
  00440	eb 1c		 jmp	 SHORT $LN178@SetHelpTex
$LN7@SetHelpTex:

; 975  : 	else if(eItemType == IT_MACRO11)

  00442	83 f8 56	 cmp	 eax, 86			; 00000056H
  00445	75 05		 jne	 SHORT $LN5@SetHelpTex

; 976  : 		rsText = STR(54);

  00447	51		 push	 ecx
  00448	6a 36		 push	 54			; 00000036H
  0044a	eb 12		 jmp	 SHORT $LN178@SetHelpTex
$LN5@SetHelpTex:

; 977  : 	else if(eItemType == IT_MACRO12)

  0044c	83 f8 57	 cmp	 eax, 87			; 00000057H
  0044f	75 05		 jne	 SHORT $LN3@SetHelpTex

; 978  : 		rsText = STR(55);

  00451	51		 push	 ecx
  00452	6a 37		 push	 55			; 00000037H
  00454	eb 08		 jmp	 SHORT $LN178@SetHelpTex
$LN3@SetHelpTex:

; 979  : 	else if(eItemType == IT_PET)

  00456	83 f8 1d	 cmp	 eax, 29			; 0000001dH
  00459	75 25		 jne	 SHORT $LN1@SetHelpTex

; 980  : 		rsText = STR(88);

  0045b	51		 push	 ecx
  0045c	6a 58		 push	 88			; 00000058H
$LN178@SetHelpTex:
  0045e	68 00 00 00 00	 push	 OFFSET ??_C@_00CNPNBAHC@?$AA@
  00463	68 00 00 00 00	 push	 OFFSET ??_C@_0BP@MKLIHFHB@SettingKeyItemWnd?3?3SetHelpText?$AA@
  00468	ff 15 00 00 00
	00		 call	 DWORD PTR __imp_?GetSingleton@ioStringManager@@SAAAV1@XZ
  0046e	8b c8		 mov	 ecx, eax
  00470	ff 15 00 00 00
	00		 call	 DWORD PTR __imp_?GetString@ioStringManager@@QAEPADPBD0HW4FileNamePrefix@1@@Z
  00476	50		 push	 eax
$LN179@SetHelpTex:
  00477	8b 4d 0c	 mov	 ecx, DWORD PTR _rsText$[ebp]
  0047a	ff 15 00 00 00
	00		 call	 DWORD PTR __imp_??4ioHashString@@QAEAAV0@PBD@Z
$LN1@SetHelpTex:

; 981  : }

  00480	5d		 pop	 ebp
  00481	c2 08 00	 ret	 8
?SetHelpText@SettingKeyItemWnd@@QAEXW4ItemType@1@AAVioHashString@@@Z ENDP ; SettingKeyItemWnd::SetHelpText
_TEXT	ENDS
PUBLIC	?SetTitle@SettingKeyItemWnd@@IAEXABVioHashString@@@Z ; SettingKeyItemWnd::SetTitle
EXTRN	__imp_?SetStyle@ioUITitle@@QAEXW4TextStyle@@@Z:PROC
EXTRN	__imp_?SetSize@ioUITitle@@QAEXH@Z:PROC
EXTRN	__imp_?SetOffset@ioUITitle@@QAEXHH@Z:PROC
; Function compile flags: /Ogsp
;	COMDAT ?SetTitle@SettingKeyItemWnd@@IAEXABVioHashString@@@Z
_TEXT	SEGMENT
_rsText$ = 8						; size = 4
?SetTitle@SettingKeyItemWnd@@IAEXABVioHashString@@@Z PROC ; SettingKeyItemWnd::SetTitle, COMDAT
; _this$ = ecx

; 985  : {

  00000	55		 push	 ebp
  00001	8b ec		 mov	 ebp, esp
  00003	56		 push	 esi
  00004	8b f1		 mov	 esi, ecx

; 986  : 	if( !m_pUITitle ) return;

  00006	8b 4e 3c	 mov	 ecx, DWORD PTR [esi+60]
  00009	85 c9		 test	 ecx, ecx
  0000b	0f 84 b2 00 00
	00		 je	 $LN1@SetTitle@2

; 987  : 
; 988  : 	if( m_eType == IT_TITLE_BASIC    ||
; 989  : 	    m_eType == IT_TITLE_ADDTION  ||
; 990  : 		m_eType == IT_TITLE_SKILL    ||
; 991  : 	    m_eType == IT_TITLE_FUNCTION ||
; 992  : 	    m_eType == IT_TITLE_SOLDIER  ||
; 993  : 	    m_eType == IT_TITLE_MACRO )

  00011	8b 86 68 01 00
	00		 mov	 eax, DWORD PTR [esi+360]
  00017	85 c0		 test	 eax, eax
  00019	74 5d		 je	 SHORT $LN2@SetTitle@2
  0001b	83 f8 08	 cmp	 eax, 8
  0001e	74 58		 je	 SHORT $LN2@SetTitle@2
  00020	83 f8 0d	 cmp	 eax, 13			; 0000000dH
  00023	74 53		 je	 SHORT $LN2@SetTitle@2
  00025	83 f8 12	 cmp	 eax, 18			; 00000012H
  00028	74 4e		 je	 SHORT $LN2@SetTitle@2
  0002a	83 f8 26	 cmp	 eax, 38			; 00000026H
  0002d	74 49		 je	 SHORT $LN2@SetTitle@2
  0002f	83 f8 4b	 cmp	 eax, 75			; 0000004bH
  00032	74 44		 je	 SHORT $LN2@SetTitle@2

; 1000 : 	}
; 1001 : 	else
; 1002 : 	{
; 1003 : 		m_pUITitle->SetOffset( 4, 4 );

  00034	6a 04		 push	 4
  00036	6a 04		 push	 4
  00038	ff 15 00 00 00
	00		 call	 DWORD PTR __imp_?SetOffset@ioUITitle@@QAEXHH@Z

; 1004 : 		m_pUITitle->SetSize( 14 );

  0003e	8b 4e 3c	 mov	 ecx, DWORD PTR [esi+60]
  00041	6a 0e		 push	 14			; 0000000eH
  00043	ff 15 00 00 00
	00		 call	 DWORD PTR __imp_?SetSize@ioUITitle@@QAEXH@Z

; 1005 : 		m_pUITitle->SetStyle( TS_NORMAL );

  00049	8b 4e 3c	 mov	 ecx, DWORD PTR [esi+60]
  0004c	6a 00		 push	 0
  0004e	ff 15 00 00 00
	00		 call	 DWORD PTR __imp_?SetStyle@ioUITitle@@QAEXW4TextStyle@@@Z

; 1006 : 		m_pUITitle->SetText( rsText.c_str(), "");

  00054	8b 4d 08	 mov	 ecx, DWORD PTR _rsText$[ebp]
  00057	68 00 00 00 00	 push	 OFFSET ??_C@_00CNPNBAHC@?$AA@
  0005c	ff 15 00 00 00
	00		 call	 DWORD PTR __imp_?c_str@ioHashString@@QBEPBDXZ
  00062	8b 4e 3c	 mov	 ecx, DWORD PTR [esi+60]
  00065	50		 push	 eax
  00066	ff 15 00 00 00
	00		 call	 DWORD PTR __imp_?SetText@ioUITitle@@QAEXPBD0@Z

; 1007 : 		m_pUITitle->SetAllColor( 0xFF6E6E6E, 0xFF000000 );

  0006c	68 00 00 00 ff	 push	 -16777216		; ff000000H
  00071	68 6e 6e 6e ff	 push	 -9539986		; ff6e6e6eH
  00076	eb 42		 jmp	 SHORT $LN7@SetTitle@2
$LN2@SetTitle@2:

; 994  : 	{
; 995  : 		m_pUITitle->SetOffset( 27, 4 );

  00078	6a 04		 push	 4
  0007a	6a 1b		 push	 27			; 0000001bH
  0007c	ff 15 00 00 00
	00		 call	 DWORD PTR __imp_?SetOffset@ioUITitle@@QAEXHH@Z

; 996  : 		m_pUITitle->SetSize( 15 );

  00082	8b 4e 3c	 mov	 ecx, DWORD PTR [esi+60]
  00085	6a 0f		 push	 15			; 0000000fH
  00087	ff 15 00 00 00
	00		 call	 DWORD PTR __imp_?SetSize@ioUITitle@@QAEXH@Z

; 997  : 		m_pUITitle->SetStyle( TS_NORMAL );

  0008d	8b 4e 3c	 mov	 ecx, DWORD PTR [esi+60]
  00090	6a 00		 push	 0
  00092	ff 15 00 00 00
	00		 call	 DWORD PTR __imp_?SetStyle@ioUITitle@@QAEXW4TextStyle@@@Z

; 998  : 		m_pUITitle->SetText( rsText.c_str(), "");

  00098	8b 4d 08	 mov	 ecx, DWORD PTR _rsText$[ebp]
  0009b	68 00 00 00 00	 push	 OFFSET ??_C@_00CNPNBAHC@?$AA@
  000a0	ff 15 00 00 00
	00		 call	 DWORD PTR __imp_?c_str@ioHashString@@QBEPBDXZ
  000a6	8b 4e 3c	 mov	 ecx, DWORD PTR [esi+60]
  000a9	50		 push	 eax
  000aa	ff 15 00 00 00
	00		 call	 DWORD PTR __imp_?SetText@ioUITitle@@QAEXPBD0@Z

; 999  : 		m_pUITitle->SetAllColor( 0xFF3A3A3A, 0xFF000000 );

  000b0	68 00 00 00 ff	 push	 -16777216		; ff000000H
  000b5	68 3a 3a 3a ff	 push	 -12961222		; ff3a3a3aH
$LN7@SetTitle@2:
  000ba	8b 4e 3c	 mov	 ecx, DWORD PTR [esi+60]
  000bd	ff 15 00 00 00
	00		 call	 DWORD PTR __imp_?SetAllColor@ioUITitle@@QAEXKK@Z
$LN1@SetTitle@2:
  000c3	5e		 pop	 esi

; 1008 : 	}
; 1009 : }

  000c4	5d		 pop	 ebp
  000c5	c2 04 00	 ret	 4
?SetTitle@SettingKeyItemWnd@@IAEXABVioHashString@@@Z ENDP ; SettingKeyItemWnd::SetTitle
; Function compile flags: /Ogsp
_TEXT	ENDS
;	COMDAT ?iwm_command@SettingKeyItemWnd@@MAEXPAVioWnd@@HK@Z
_TEXT	SEGMENT
_pWnd$ = 8						; size = 4
_cmd$ = 12						; size = 4
_param$ = 16						; size = 4
?iwm_command@SettingKeyItemWnd@@MAEXPAVioWnd@@HK@Z PROC	; SettingKeyItemWnd::iwm_command, COMDAT
; _this$ = ecx

; 1013 : {

  00000	55		 push	 ebp
  00001	8b ec		 mov	 ebp, esp
  00003	57		 push	 edi
  00004	8b f9		 mov	 edi, ecx

; 1014 : 	DWORD dwID = pWnd->GetID();

  00006	8b 4d 08	 mov	 ecx, DWORD PTR _pWnd$[ebp]
  00009	ff 15 00 00 00
	00		 call	 DWORD PTR __imp_?GetID@ioWnd@@QBEKXZ

; 1015 : 
; 1016 : 	switch( dwID )

  0000f	48		 dec	 eax
  00010	83 f8 02	 cmp	 eax, 2
  00013	77 4e		 ja	 SHORT $LN1@iwm_comman@2

; 1017 : 	{
; 1018 : 	case ID_BIG_BTN:
; 1019 : 	case ID_SMALL_FIRST_BTN:
; 1020 : 	case ID_SMALL_SECOND_BTN:
; 1021 : 		if( cmd == IOBN_BTNUP )

  00015	83 7d 0c 11	 cmp	 DWORD PTR _cmd$[ebp], 17 ; 00000011H
  00019	75 48		 jne	 SHORT $LN1@iwm_comman@2

; 1022 : 		{
; 1023 : 			if( GetParent() )

  0001b	8b cf		 mov	 ecx, edi
  0001d	ff 15 00 00 00
	00		 call	 DWORD PTR __imp_?GetParent@ioWnd@@QAEPAV1@XZ
  00023	85 c0		 test	 eax, eax
  00025	74 3c		 je	 SHORT $LN1@iwm_comman@2

; 1024 : 			{
; 1025 : 				SettingBtn *pBtn = dynamic_cast<SettingBtn*> (pWnd);

  00027	56		 push	 esi
  00028	6a 00		 push	 0
  0002a	68 00 00 00 00	 push	 OFFSET ??_R0?AVSettingBtn@@@8
  0002f	68 00 00 00 00	 push	 OFFSET ??_R0?AVioWnd@@@8
  00034	6a 00		 push	 0
  00036	ff 75 08	 push	 DWORD PTR _pWnd$[ebp]
  00039	e8 00 00 00 00	 call	 ___RTDynamicCast
  0003e	8b f0		 mov	 esi, eax
  00040	83 c4 14	 add	 esp, 20			; 00000014H

; 1026 : 				if(pBtn)

  00043	85 f6		 test	 esi, esi
  00045	74 1b		 je	 SHORT $LN11@iwm_comman@2

; 1027 : 				{
; 1028 : 					GetParent()->iwm_command( this , cmd, pBtn->GetKeyType());

  00047	8b cf		 mov	 ecx, edi
  00049	ff 15 00 00 00
	00		 call	 DWORD PTR __imp_?GetParent@ioWnd@@QAEPAV1@XZ
  0004f	ff b6 fc 01 00
	00		 push	 DWORD PTR [esi+508]
  00055	8b 10		 mov	 edx, DWORD PTR [eax]
  00057	6a 11		 push	 17			; 00000011H
  00059	57		 push	 edi
  0005a	8b c8		 mov	 ecx, eax
  0005c	ff 92 8c 00 00
	00		 call	 DWORD PTR [edx+140]
$LN11@iwm_comman@2:
  00062	5e		 pop	 esi
$LN1@iwm_comman@2:
  00063	5f		 pop	 edi

; 1029 : 				}
; 1030 : 			}
; 1031 : 		}
; 1032 : 		break;
; 1033 : 	}
; 1034 : }

  00064	5d		 pop	 ebp
  00065	c2 0c 00	 ret	 12			; 0000000cH
?iwm_command@SettingKeyItemWnd@@MAEXPAVioWnd@@HK@Z ENDP	; SettingKeyItemWnd::iwm_command
_TEXT	ENDS
PUBLIC	?iwm_hide@GameOptionSettingKeyTab@@UAEXXZ	; GameOptionSettingKeyTab::iwm_hide
; Function compile flags: /Ogsp
;	COMDAT ?iwm_hide@GameOptionSettingKeyTab@@UAEXXZ
_TEXT	SEGMENT
?iwm_hide@GameOptionSettingKeyTab@@UAEXXZ PROC		; GameOptionSettingKeyTab::iwm_hide, COMDAT
; _this$ = ecx

; 1069 : 	m_eSelectKeyType = CKeyInfo::KTA_NONE;

  00000	83 89 8c 01 00
	00 ff		 or	 DWORD PTR [ecx+396], -1

; 1070 : }

  00007	c3		 ret	 0
?iwm_hide@GameOptionSettingKeyTab@@UAEXXZ ENDP		; GameOptionSettingKeyTab::iwm_hide
_TEXT	ENDS
PUBLIC	?iwm_wheel@GameOptionSettingKeyTab@@UAEXH@Z	; GameOptionSettingKeyTab::iwm_wheel
EXTRN	__imp_?iwm_wheel@ioWnd@@UAEXH@Z:PROC
; Function compile flags: /Ogsp
;	COMDAT ?iwm_wheel@GameOptionSettingKeyTab@@UAEXH@Z
_TEXT	SEGMENT
_zDelta$ = 8						; size = 4
?iwm_wheel@GameOptionSettingKeyTab@@UAEXH@Z PROC	; GameOptionSettingKeyTab::iwm_wheel, COMDAT
; _this$ = ecx

; 1078 : {

  00000	55		 push	 ebp
  00001	8b ec		 mov	 ebp, esp
  00003	56		 push	 esi
  00004	8b f1		 mov	 esi, ecx

; 1079 : 	if( !IsShow() )

  00006	ff 15 00 00 00
	00		 call	 DWORD PTR __imp_?IsShow@ioWnd@@QBE_NXZ
  0000c	84 c0		 test	 al, al
  0000e	75 0d		 jne	 SHORT $LN7@iwm_wheel

; 1080 : 		ioWnd::iwm_wheel( zDelta );

  00010	ff 75 08	 push	 DWORD PTR _zDelta$[ebp]
  00013	8b ce		 mov	 ecx, esi
  00015	ff 15 00 00 00
	00		 call	 DWORD PTR __imp_?iwm_wheel@ioWnd@@UAEXH@Z

; 1081 : 	else

  0001b	eb 49		 jmp	 SHORT $LN1@iwm_wheel
$LN7@iwm_wheel:

; 1082 : 	{ 
; 1083 : 		//        .
; 1084 : 		if( zDelta == WHEEL_DELTA )

  0001d	83 7d 08 78	 cmp	 DWORD PTR _zDelta$[ebp], 120 ; 00000078H
  00021	75 1a		 jne	 SHORT $LN5@iwm_wheel

; 1085 : 		{
; 1086 : 			ioScroll *pScroll = (ioScroll*)FindChildWnd( ID_VERT_SCROLL );

  00023	68 e9 03 00 00	 push	 1001			; 000003e9H
  00028	8b ce		 mov	 ecx, esi
  0002a	ff 15 00 00 00
	00		 call	 DWORD PTR __imp_?FindChildWnd@ioWnd@@QAEPAV1@K@Z

; 1087 : 			if( pScroll )

  00030	85 c0		 test	 eax, eax
  00032	74 32		 je	 SHORT $LN1@iwm_wheel

; 1088 : 				pScroll->SetScrollPos( m_iCurPage - 1 );

  00034	8b 8e 60 01 00
	00		 mov	 ecx, DWORD PTR [esi+352]
  0003a	49		 dec	 ecx

; 1089 : 		}

  0003b	eb 1e		 jmp	 SHORT $LN10@iwm_wheel
$LN5@iwm_wheel:

; 1090 : 		else if( zDelta == -WHEEL_DELTA )

  0003d	83 7d 08 88	 cmp	 DWORD PTR _zDelta$[ebp], -120 ; ffffff88H
  00041	75 23		 jne	 SHORT $LN1@iwm_wheel

; 1091 : 		{
; 1092 : 			ioScroll *pScroll = (ioScroll*)FindChildWnd( ID_VERT_SCROLL );

  00043	68 e9 03 00 00	 push	 1001			; 000003e9H
  00048	8b ce		 mov	 ecx, esi
  0004a	ff 15 00 00 00
	00		 call	 DWORD PTR __imp_?FindChildWnd@ioWnd@@QAEPAV1@K@Z

; 1093 : 			if( pScroll )

  00050	85 c0		 test	 eax, eax
  00052	74 12		 je	 SHORT $LN1@iwm_wheel

; 1094 : 				pScroll->SetScrollPos( m_iCurPage + 1 );

  00054	8b 8e 60 01 00
	00		 mov	 ecx, DWORD PTR [esi+352]
  0005a	41		 inc	 ecx
$LN10@iwm_wheel:
  0005b	8b 10		 mov	 edx, DWORD PTR [eax]
  0005d	51		 push	 ecx
  0005e	8b c8		 mov	 ecx, eax
  00060	ff 92 38 01 00
	00		 call	 DWORD PTR [edx+312]
$LN1@iwm_wheel:
  00066	5e		 pop	 esi

; 1095 : 		}
; 1096 : 	}
; 1097 : }

  00067	5d		 pop	 ebp
  00068	c2 04 00	 ret	 4
?iwm_wheel@GameOptionSettingKeyTab@@UAEXH@Z ENDP	; GameOptionSettingKeyTab::iwm_wheel
_TEXT	ENDS
PUBLIC	?GetKeyType@GameOptionSettingKeyTab@@IAEXW4ItemType@SettingKeyItemWnd@@AAW4KeyTypeArray@CKeyInfo@@1@Z ; GameOptionSettingKeyTab::GetKeyType
; Function compile flags: /Ogsp
;	COMDAT ?GetKeyType@GameOptionSettingKeyTab@@IAEXW4ItemType@SettingKeyItemWnd@@AAW4KeyTypeArray@CKeyInfo@@1@Z
_TEXT	SEGMENT
_eItemType$ = 8						; size = 4
_reFirstKeyType$ = 12					; size = 4
_reSecondKeyType$ = 16					; size = 4
?GetKeyType@GameOptionSettingKeyTab@@IAEXW4ItemType@SettingKeyItemWnd@@AAW4KeyTypeArray@CKeyInfo@@1@Z PROC ; GameOptionSettingKeyTab::GetKeyType, COMDAT
; _this$ = ecx

; 1236 : {

  00000	55		 push	 ebp
  00001	8b ec		 mov	 ebp, esp

; 1237 : 
; 1238 : 	reFirstKeyType = CKeyInfo::KTA_NONE;

  00003	8b 45 0c	 mov	 eax, DWORD PTR _reFirstKeyType$[ebp]
  00006	83 08 ff	 or	 DWORD PTR [eax], -1

; 1239 : 	reSecondKeyType = CKeyInfo::KTA_NONE;

  00009	8b 55 10	 mov	 edx, DWORD PTR _reSecondKeyType$[ebp]

; 1240 : 	
; 1241 : 	if( eItemType == SettingKeyItemWnd::IT_UP )

  0000c	8b 4d 08	 mov	 ecx, DWORD PTR _eItemType$[ebp]
  0000f	83 0a ff	 or	 DWORD PTR [edx], -1
  00012	56		 push	 esi
  00013	33 f6		 xor	 esi, esi
  00015	46		 inc	 esi
  00016	3b ce		 cmp	 ecx, esi
  00018	75 0e		 jne	 SHORT $LN163@GetKeyType

; 1242 : 	{	
; 1243 : 		reFirstKeyType  = CKeyInfo::KTA_UP;

  0001a	83 20 00	 and	 DWORD PTR [eax], 0

; 1244 : 		reSecondKeyType = CKeyInfo::KTA_SECOND_UP;

  0001d	c7 02 07 00 00
	00		 mov	 DWORD PTR [edx], 7
  00023	e9 89 04 00 00	 jmp	 $LN1@GetKeyType
$LN163@GetKeyType:

; 1245 : 	}
; 1246 : 	else if( eItemType == SettingKeyItemWnd::IT_DOWN )

  00028	83 f9 02	 cmp	 ecx, 2
  0002b	75 0d		 jne	 SHORT $LN161@GetKeyType

; 1247 : 	{
; 1248 : 		reFirstKeyType  = CKeyInfo::KTA_DOWN;

  0002d	89 30		 mov	 DWORD PTR [eax], esi

; 1249 : 		reSecondKeyType = CKeyInfo::KTA_SECOND_DOWN;

  0002f	c7 02 08 00 00
	00		 mov	 DWORD PTR [edx], 8
  00035	e9 77 04 00 00	 jmp	 $LN1@GetKeyType
$LN161@GetKeyType:
  0003a	57		 push	 edi

; 1250 : 	}
; 1251 : 	else if( eItemType == SettingKeyItemWnd::IT_LEFT )

  0003b	6a 03		 push	 3
  0003d	5f		 pop	 edi
  0003e	3b cf		 cmp	 ecx, edi
  00040	75 11		 jne	 SHORT $LN159@GetKeyType

; 1252 : 	{
; 1253 : 		reFirstKeyType  = CKeyInfo::KTA_LEFT;

  00042	c7 00 02 00 00
	00		 mov	 DWORD PTR [eax], 2

; 1254 : 		reSecondKeyType = CKeyInfo::KTA_SECOND_LEFT;

  00048	c7 02 09 00 00
	00		 mov	 DWORD PTR [edx], 9
  0004e	e9 5d 04 00 00	 jmp	 $LN166@GetKeyType
$LN159@GetKeyType:

; 1255 : 	}
; 1256 : 	else if( eItemType == SettingKeyItemWnd::IT_RIGHT )

  00053	6a 04		 push	 4
  00055	5e		 pop	 esi
  00056	3b ce		 cmp	 ecx, esi
  00058	75 0d		 jne	 SHORT $LN157@GetKeyType

; 1257 : 	{
; 1258 : 		reFirstKeyType  = CKeyInfo::KTA_RIGHT;

  0005a	89 38		 mov	 DWORD PTR [eax], edi

; 1259 : 		reSecondKeyType = CKeyInfo::KTA_SECOND_RIGHT;

  0005c	c7 02 0a 00 00
	00		 mov	 DWORD PTR [edx], 10	; 0000000aH
  00062	e9 49 04 00 00	 jmp	 $LN166@GetKeyType
$LN157@GetKeyType:

; 1260 : 	}
; 1261 : 	else if( eItemType ==  SettingKeyItemWnd::IT_ATTACK )

  00067	6a 05		 push	 5
  00069	5f		 pop	 edi
  0006a	3b cf		 cmp	 ecx, edi
  0006c	75 0d		 jne	 SHORT $LN155@GetKeyType

; 1262 : 	{
; 1263 : 		reFirstKeyType  = CKeyInfo::KTA_ATTACK;

  0006e	89 30		 mov	 DWORD PTR [eax], esi

; 1264 : 		reSecondKeyType = CKeyInfo::KTA_SECOND_ATTACK;

  00070	c7 02 0b 00 00
	00		 mov	 DWORD PTR [edx], 11	; 0000000bH
  00076	e9 35 04 00 00	 jmp	 $LN166@GetKeyType
$LN155@GetKeyType:

; 1265 : 	}
; 1266 : 	else if( eItemType ==  SettingKeyItemWnd::IT_DEFENSE )

  0007b	6a 06		 push	 6
  0007d	5e		 pop	 esi
  0007e	3b ce		 cmp	 ecx, esi
  00080	75 0d		 jne	 SHORT $LN153@GetKeyType

; 1267 : 	{
; 1268 : 		reFirstKeyType  = CKeyInfo::KTA_DEFENSE;

  00082	89 38		 mov	 DWORD PTR [eax], edi

; 1269 : 		reSecondKeyType = CKeyInfo::KTA_SECOND_DEFENSE;

  00084	c7 02 0c 00 00
	00		 mov	 DWORD PTR [edx], 12	; 0000000cH
  0008a	e9 21 04 00 00	 jmp	 $LN166@GetKeyType
$LN153@GetKeyType:

; 1270 : 	}
; 1271 : 	else if( eItemType ==  SettingKeyItemWnd::IT_JUMP )

  0008f	83 f9 07	 cmp	 ecx, 7
  00092	75 0d		 jne	 SHORT $LN151@GetKeyType

; 1272 : 	{
; 1273 : 		reFirstKeyType  = CKeyInfo::KTA_JUMP;

  00094	89 30		 mov	 DWORD PTR [eax], esi

; 1274 : 		reSecondKeyType = CKeyInfo::KTA_SECOND_JUMP;

  00096	c7 02 0d 00 00
	00		 mov	 DWORD PTR [edx], 13	; 0000000dH
  0009c	e9 0f 04 00 00	 jmp	 $LN166@GetKeyType
$LN151@GetKeyType:

; 1275 : 	}
; 1276 : 	else if( eItemType ==  SettingKeyItemWnd::IT_LEFT_UP )

  000a1	83 f9 09	 cmp	 ecx, 9
  000a4	75 0b		 jne	 SHORT $LN149@GetKeyType

; 1277 : 		reFirstKeyType  = CKeyInfo::KTA_LEFTUP;

  000a6	c7 00 12 00 00
	00		 mov	 DWORD PTR [eax], 18	; 00000012H
  000ac	e9 ff 03 00 00	 jmp	 $LN166@GetKeyType
$LN149@GetKeyType:

; 1278 : 	else if( eItemType ==  SettingKeyItemWnd::IT_RIGHT_UP )

  000b1	83 f9 0a	 cmp	 ecx, 10			; 0000000aH
  000b4	75 0b		 jne	 SHORT $LN147@GetKeyType

; 1279 : 		reFirstKeyType  = CKeyInfo::KTA_RIGHTUP;

  000b6	c7 00 13 00 00
	00		 mov	 DWORD PTR [eax], 19	; 00000013H
  000bc	e9 ef 03 00 00	 jmp	 $LN166@GetKeyType
$LN147@GetKeyType:

; 1280 : 	else if( eItemType ==  SettingKeyItemWnd::IT_LEFT_DOWN )

  000c1	83 f9 0b	 cmp	 ecx, 11			; 0000000bH
  000c4	75 0b		 jne	 SHORT $LN145@GetKeyType

; 1281 : 		reFirstKeyType  = CKeyInfo::KTA_LEFTDOWN;

  000c6	c7 00 14 00 00
	00		 mov	 DWORD PTR [eax], 20	; 00000014H
  000cc	e9 df 03 00 00	 jmp	 $LN166@GetKeyType
$LN145@GetKeyType:

; 1282 : 	else if( eItemType ==  SettingKeyItemWnd::IT_RIGHT_DOWN )

  000d1	83 f9 0c	 cmp	 ecx, 12			; 0000000cH
  000d4	75 0b		 jne	 SHORT $LN143@GetKeyType

; 1283 : 		reFirstKeyType  = CKeyInfo::KTA_RIGHTDOWN;

  000d6	c7 00 15 00 00
	00		 mov	 DWORD PTR [eax], 21	; 00000015H
  000dc	e9 cf 03 00 00	 jmp	 $LN166@GetKeyType
$LN143@GetKeyType:

; 1284 : 	else if( eItemType ==  SettingKeyItemWnd::IT_CLOAK_SKILL )

  000e1	6a 0e		 push	 14			; 0000000eH
  000e3	5a		 pop	 edx
  000e4	3b ca		 cmp	 ecx, edx

; 1285 : 		reFirstKeyType = CKeyInfo::KTA_CLOAK_SKILL;

  000e6	0f 84 b5 03 00
	00		 je	 $LN167@GetKeyType

; 1286 : 	else if( eItemType ==  SettingKeyItemWnd::IT_HELM_SKILL )

  000ec	6a 0f		 push	 15			; 0000000fH
  000ee	5a		 pop	 edx
  000ef	3b ca		 cmp	 ecx, edx

; 1287 : 		reFirstKeyType = CKeyInfo::KTA_HELM_SKILL;

  000f1	0f 84 aa 03 00
	00		 je	 $LN167@GetKeyType

; 1288 : 	else if( eItemType ==  SettingKeyItemWnd::IT_ARMOR_SKILL )

  000f7	6a 10		 push	 16			; 00000010H
  000f9	5a		 pop	 edx
  000fa	3b ca		 cmp	 ecx, edx

; 1289 : 		reFirstKeyType = CKeyInfo::KTA_ARMOR_SKILL;

  000fc	0f 84 9f 03 00
	00		 je	 $LN167@GetKeyType

; 1290 : 	else if( eItemType ==  SettingKeyItemWnd::IT_WEAPON_SKILL )

  00102	6a 11		 push	 17			; 00000011H
  00104	5a		 pop	 edx
  00105	3b ca		 cmp	 ecx, edx

; 1291 : 		reFirstKeyType = CKeyInfo::KTA_WEAPON_SKILL;

  00107	0f 84 94 03 00
	00		 je	 $LN167@GetKeyType

; 1292 : 	else if( eItemType ==  SettingKeyItemWnd::IT_CONSUMPTION1 )

  0010d	83 f9 13	 cmp	 ecx, 19			; 00000013H
  00110	75 0b		 jne	 SHORT $LN133@GetKeyType

; 1293 : 		reFirstKeyType = CKeyInfo::KTA_CONSUMPTION1;

  00112	c7 00 5a 00 00
	00		 mov	 DWORD PTR [eax], 90	; 0000005aH
  00118	e9 93 03 00 00	 jmp	 $LN166@GetKeyType
$LN133@GetKeyType:

; 1294 : 	else if( eItemType ==  SettingKeyItemWnd::IT_CONSUMPTION2 )

  0011d	83 f9 14	 cmp	 ecx, 20			; 00000014H
  00120	75 0b		 jne	 SHORT $LN131@GetKeyType

; 1295 : 		reFirstKeyType = CKeyInfo::KTA_CONSUMPTION2;

  00122	c7 00 5b 00 00
	00		 mov	 DWORD PTR [eax], 91	; 0000005bH
  00128	e9 83 03 00 00	 jmp	 $LN166@GetKeyType
$LN131@GetKeyType:

; 1296 : 	else if( eItemType ==  SettingKeyItemWnd::IT_CONSUMPTION3 )

  0012d	83 f9 15	 cmp	 ecx, 21			; 00000015H
  00130	75 0b		 jne	 SHORT $LN129@GetKeyType

; 1297 : 		reFirstKeyType = CKeyInfo::KTA_CONSUMPTION3;

  00132	c7 00 5c 00 00
	00		 mov	 DWORD PTR [eax], 92	; 0000005cH
  00138	e9 73 03 00 00	 jmp	 $LN166@GetKeyType
$LN129@GetKeyType:

; 1298 : 	else if( eItemType ==  SettingKeyItemWnd::IT_CONSUMPTION4 )

  0013d	83 f9 16	 cmp	 ecx, 22			; 00000016H
  00140	75 0b		 jne	 SHORT $LN127@GetKeyType

; 1299 : 		reFirstKeyType = CKeyInfo::KTA_CONSUMPTION4;

  00142	c7 00 5d 00 00
	00		 mov	 DWORD PTR [eax], 93	; 0000005dH
  00148	e9 63 03 00 00	 jmp	 $LN166@GetKeyType
$LN127@GetKeyType:

; 1300 : 	else if( eItemType ==  SettingKeyItemWnd::IT_HELP )

  0014d	83 f9 17	 cmp	 ecx, 23			; 00000017H
  00150	75 0b		 jne	 SHORT $LN125@GetKeyType

; 1301 : 		reFirstKeyType = CKeyInfo::KTA_HELP;

  00152	c7 00 1a 00 00
	00		 mov	 DWORD PTR [eax], 26	; 0000001aH
  00158	e9 53 03 00 00	 jmp	 $LN166@GetKeyType
$LN125@GetKeyType:

; 1302 : 	else if( eItemType ==  SettingKeyItemWnd::IT_SHOP )

  0015d	83 f9 18	 cmp	 ecx, 24			; 00000018H
  00160	75 0b		 jne	 SHORT $LN123@GetKeyType

; 1303 : 		reFirstKeyType  = CKeyInfo::KTA_SHOP;

  00162	c7 00 19 00 00
	00		 mov	 DWORD PTR [eax], 25	; 00000019H
  00168	e9 43 03 00 00	 jmp	 $LN166@GetKeyType
$LN123@GetKeyType:

; 1304 : 	else if( eItemType ==  SettingKeyItemWnd::IT_GROWTH )

  0016d	83 f9 19	 cmp	 ecx, 25			; 00000019H
  00170	75 0b		 jne	 SHORT $LN121@GetKeyType

; 1305 : 		reFirstKeyType = CKeyInfo::KTA_GROWTH;

  00172	c7 00 1c 00 00
	00		 mov	 DWORD PTR [eax], 28	; 0000001cH
  00178	e9 33 03 00 00	 jmp	 $LN166@GetKeyType
$LN121@GetKeyType:

; 1306 : 	else if( eItemType ==  SettingKeyItemWnd::IT_QUEST )

  0017d	83 f9 1b	 cmp	 ecx, 27			; 0000001bH
  00180	75 0b		 jne	 SHORT $LN119@GetKeyType

; 1307 : 		reFirstKeyType = CKeyInfo::KTA_QUEST;

  00182	c7 00 3f 00 00
	00		 mov	 DWORD PTR [eax], 63	; 0000003fH
  00188	e9 23 03 00 00	 jmp	 $LN166@GetKeyType
$LN119@GetKeyType:

; 1308 : 	else if( eItemType ==  SettingKeyItemWnd::IT_PRESENT )

  0018d	83 f9 1a	 cmp	 ecx, 26			; 0000001aH
  00190	75 0b		 jne	 SHORT $LN117@GetKeyType

; 1309 : 		reFirstKeyType = CKeyInfo::KTA_PRESENT;

  00192	c7 00 40 00 00
	00		 mov	 DWORD PTR [eax], 64	; 00000040H
  00198	e9 13 03 00 00	 jmp	 $LN166@GetKeyType
$LN117@GetKeyType:

; 1310 : 	else if( eItemType ==  SettingKeyItemWnd::IT_MYHOMEPAGE )

  0019d	83 f9 1c	 cmp	 ecx, 28			; 0000001cH
  001a0	75 0b		 jne	 SHORT $LN115@GetKeyType

; 1311 : 		reFirstKeyType = CKeyInfo::KTA_MYHOMEPAGE;

  001a2	c7 00 41 00 00
	00		 mov	 DWORD PTR [eax], 65	; 00000041H
  001a8	e9 03 03 00 00	 jmp	 $LN166@GetKeyType
$LN115@GetKeyType:

; 1312 : 	else if( eItemType ==  SettingKeyItemWnd::IT_OPTION )

  001ad	6a 1e		 push	 30			; 0000001eH
  001af	5a		 pop	 edx
  001b0	3b ca		 cmp	 ecx, edx

; 1313 : 		reFirstKeyType  = CKeyInfo::KTA_OPTION;

  001b2	0f 84 e9 02 00
	00		 je	 $LN167@GetKeyType

; 1314 : 	else if( eItemType ==  SettingKeyItemWnd::IT_MESSENGER )

  001b8	6a 1f		 push	 31			; 0000001fH
  001ba	5a		 pop	 edx
  001bb	3b ca		 cmp	 ecx, edx

; 1315 : 		reFirstKeyType  = CKeyInfo::KTA_MESSENGER;

  001bd	0f 84 de 02 00
	00		 je	 $LN167@GetKeyType

; 1316 : 	else if( eItemType ==  SettingKeyItemWnd::IT_VOICE )

  001c3	6a 20		 push	 32			; 00000020H
  001c5	5a		 pop	 edx
  001c6	3b ca		 cmp	 ecx, edx

; 1317 : 		reFirstKeyType  = CKeyInfo::KTA_VOICE;

  001c8	0f 84 d3 02 00
	00		 je	 $LN167@GetKeyType

; 1318 : 	else if( eItemType ==  SettingKeyItemWnd::IT_SCREENSHOT )

  001ce	6a 21		 push	 33			; 00000021H
  001d0	5a		 pop	 edx
  001d1	3b ca		 cmp	 ecx, edx

; 1319 : 		reFirstKeyType  = CKeyInfo::KTA_SCREENSHOT;

  001d3	0f 84 c8 02 00
	00		 je	 $LN167@GetKeyType

; 1320 : 	else if( eItemType ==  SettingKeyItemWnd::IT_MOVIECAPTURE )

  001d9	6a 22		 push	 34			; 00000022H
  001db	5a		 pop	 edx
  001dc	3b ca		 cmp	 ecx, edx

; 1321 : 		reFirstKeyType  = CKeyInfo::KTA_MOVIECAPTURE;

  001de	0f 84 bd 02 00
	00		 je	 $LN167@GetKeyType

; 1322 : 	else if( eItemType ==  SettingKeyItemWnd::IT_SPECIAL_MOTION )

  001e4	6a 23		 push	 35			; 00000023H
  001e6	5a		 pop	 edx
  001e7	3b ca		 cmp	 ecx, edx

; 1323 : 		reFirstKeyType  = CKeyInfo::KTA_SPECIAL_MOTION;

  001e9	0f 84 b2 02 00
	00		 je	 $LN167@GetKeyType

; 1324 : 	else if( eItemType ==  SettingKeyItemWnd::IT_ZOOMIN )

  001ef	6a 24		 push	 36			; 00000024H
  001f1	5a		 pop	 edx
  001f2	3b ca		 cmp	 ecx, edx

; 1325 : 		reFirstKeyType  = CKeyInfo::KTA_ZOOMIN;

  001f4	0f 84 a7 02 00
	00		 je	 $LN167@GetKeyType

; 1326 : 	else if( eItemType ==  SettingKeyItemWnd::IT_ZOOMOUT )

  001fa	6a 25		 push	 37			; 00000025H
  001fc	5a		 pop	 edx
  001fd	3b ca		 cmp	 ecx, edx

; 1327 : 		reFirstKeyType  = CKeyInfo::KTA_ZOOMOUT;

  001ff	0f 84 9c 02 00
	00		 je	 $LN167@GetKeyType

; 1328 : 	else if( eItemType ==  SettingKeyItemWnd::IT_SOLDIER1 )

  00205	6a 27		 push	 39			; 00000027H
  00207	5a		 pop	 edx
  00208	3b ca		 cmp	 ecx, edx

; 1329 : 		reFirstKeyType  = CKeyInfo::KTA_SOLDIER1;

  0020a	0f 84 91 02 00
	00		 je	 $LN167@GetKeyType

; 1330 : 	else if( eItemType ==  SettingKeyItemWnd::IT_SOLDIER2 )

  00210	6a 28		 push	 40			; 00000028H
  00212	5a		 pop	 edx
  00213	3b ca		 cmp	 ecx, edx

; 1331 : 		reFirstKeyType  = CKeyInfo::KTA_SOLDIER2;

  00215	0f 84 86 02 00
	00		 je	 $LN167@GetKeyType

; 1332 : 	else if( eItemType ==  SettingKeyItemWnd::IT_SOLDIER3 )

  0021b	6a 29		 push	 41			; 00000029H
  0021d	5a		 pop	 edx
  0021e	3b ca		 cmp	 ecx, edx

; 1333 : 		reFirstKeyType  = CKeyInfo::KTA_SOLDIER3;

  00220	0f 84 7b 02 00
	00		 je	 $LN167@GetKeyType

; 1334 : 	else if( eItemType ==  SettingKeyItemWnd::IT_SOLDIER4 )

  00226	6a 2a		 push	 42			; 0000002aH
  00228	5a		 pop	 edx
  00229	3b ca		 cmp	 ecx, edx

; 1335 : 		reFirstKeyType  = CKeyInfo::KTA_SOLDIER4;

  0022b	0f 84 70 02 00
	00		 je	 $LN167@GetKeyType

; 1336 : 	else if( eItemType ==  SettingKeyItemWnd::IT_SOLDIER5 )

  00231	6a 2b		 push	 43			; 0000002bH
  00233	5a		 pop	 edx
  00234	3b ca		 cmp	 ecx, edx

; 1337 : 		reFirstKeyType  = CKeyInfo::KTA_SOLDIER5;

  00236	0f 84 65 02 00
	00		 je	 $LN167@GetKeyType

; 1338 : 	else if( eItemType ==  SettingKeyItemWnd::IT_SOLDIER6 )

  0023c	6a 2c		 push	 44			; 0000002cH
  0023e	5a		 pop	 edx
  0023f	3b ca		 cmp	 ecx, edx

; 1339 : 		reFirstKeyType  = CKeyInfo::KTA_SOLDIER6;

  00241	0f 84 5a 02 00
	00		 je	 $LN167@GetKeyType

; 1340 : 	else if( eItemType ==  SettingKeyItemWnd::IT_SOLDIER7 )

  00247	6a 2d		 push	 45			; 0000002dH
  00249	5a		 pop	 edx
  0024a	3b ca		 cmp	 ecx, edx

; 1341 : 		reFirstKeyType  = CKeyInfo::KTA_SOLDIER7;

  0024c	0f 84 4f 02 00
	00		 je	 $LN167@GetKeyType

; 1342 : 	else if( eItemType ==  SettingKeyItemWnd::IT_SOLDIER8 )

  00252	6a 2e		 push	 46			; 0000002eH
  00254	5a		 pop	 edx
  00255	3b ca		 cmp	 ecx, edx

; 1343 : 		reFirstKeyType  = CKeyInfo::KTA_SOLDIER8;

  00257	0f 84 44 02 00
	00		 je	 $LN167@GetKeyType

; 1344 : 	else if( eItemType ==  SettingKeyItemWnd::IT_SOLDIER9 )

  0025d	6a 2f		 push	 47			; 0000002fH
  0025f	5a		 pop	 edx
  00260	3b ca		 cmp	 ecx, edx

; 1345 : 		reFirstKeyType  = CKeyInfo::KTA_SOLDIER9;

  00262	0f 84 39 02 00
	00		 je	 $LN167@GetKeyType

; 1346 : 	else if( eItemType ==  SettingKeyItemWnd::IT_SOLDIER10 )

  00268	6a 30		 push	 48			; 00000030H
  0026a	5a		 pop	 edx
  0026b	3b ca		 cmp	 ecx, edx

; 1347 : 		reFirstKeyType  = CKeyInfo::KTA_SOLDIER10;

  0026d	0f 84 2e 02 00
	00		 je	 $LN167@GetKeyType

; 1348 : 	else if( eItemType ==  SettingKeyItemWnd::IT_SOLDIER11 )

  00273	6a 31		 push	 49			; 00000031H
  00275	5a		 pop	 edx
  00276	3b ca		 cmp	 ecx, edx

; 1349 : 		reFirstKeyType  = CKeyInfo::KTA_SOLDIER11;

  00278	0f 84 23 02 00
	00		 je	 $LN167@GetKeyType

; 1350 : 	else if( eItemType ==  SettingKeyItemWnd::IT_SOLDIER12 )

  0027e	6a 32		 push	 50			; 00000032H
  00280	5a		 pop	 edx
  00281	3b ca		 cmp	 ecx, edx

; 1351 : 		reFirstKeyType  = CKeyInfo::KTA_SOLDIER12;

  00283	0f 84 18 02 00
	00		 je	 $LN167@GetKeyType

; 1352 : 	else if( eItemType ==  SettingKeyItemWnd::IT_SOLDIER13 )

  00289	83 f9 33	 cmp	 ecx, 51			; 00000033H
  0028c	75 0b		 jne	 SHORT $LN73@GetKeyType

; 1353 : 		reFirstKeyType  = CKeyInfo::KTA_SOLDIER13;

  0028e	c7 00 42 00 00
	00		 mov	 DWORD PTR [eax], 66	; 00000042H
  00294	e9 17 02 00 00	 jmp	 $LN166@GetKeyType
$LN73@GetKeyType:

; 1354 : 	else if( eItemType ==  SettingKeyItemWnd::IT_SOLDIER14 )

  00299	83 f9 34	 cmp	 ecx, 52			; 00000034H
  0029c	75 0b		 jne	 SHORT $LN71@GetKeyType

; 1355 : 		reFirstKeyType  = CKeyInfo::KTA_SOLDIER14;

  0029e	c7 00 43 00 00
	00		 mov	 DWORD PTR [eax], 67	; 00000043H
  002a4	e9 07 02 00 00	 jmp	 $LN166@GetKeyType
$LN71@GetKeyType:

; 1356 : 	else if( eItemType ==  SettingKeyItemWnd::IT_SOLDIER15 )

  002a9	83 f9 35	 cmp	 ecx, 53			; 00000035H
  002ac	75 0b		 jne	 SHORT $LN69@GetKeyType

; 1357 : 		reFirstKeyType  = CKeyInfo::KTA_SOLDIER15;

  002ae	c7 00 44 00 00
	00		 mov	 DWORD PTR [eax], 68	; 00000044H
  002b4	e9 f7 01 00 00	 jmp	 $LN166@GetKeyType
$LN69@GetKeyType:

; 1358 : 	else if( eItemType ==  SettingKeyItemWnd::IT_SOLDIER16 )

  002b9	83 f9 36	 cmp	 ecx, 54			; 00000036H
  002bc	75 0b		 jne	 SHORT $LN67@GetKeyType

; 1359 : 		reFirstKeyType  = CKeyInfo::KTA_SOLDIER16;

  002be	c7 00 45 00 00
	00		 mov	 DWORD PTR [eax], 69	; 00000045H
  002c4	e9 e7 01 00 00	 jmp	 $LN166@GetKeyType
$LN67@GetKeyType:

; 1360 : 	else if( eItemType ==  SettingKeyItemWnd::IT_SOLDIER17 )

  002c9	83 f9 37	 cmp	 ecx, 55			; 00000037H
  002cc	75 0b		 jne	 SHORT $LN65@GetKeyType

; 1361 : 		reFirstKeyType  = CKeyInfo::KTA_SOLDIER17;

  002ce	c7 00 46 00 00
	00		 mov	 DWORD PTR [eax], 70	; 00000046H
  002d4	e9 d7 01 00 00	 jmp	 $LN166@GetKeyType
$LN65@GetKeyType:

; 1362 : 	else if( eItemType ==  SettingKeyItemWnd::IT_SOLDIER18 )

  002d9	83 f9 38	 cmp	 ecx, 56			; 00000038H
  002dc	75 0b		 jne	 SHORT $LN63@GetKeyType

; 1363 : 		reFirstKeyType  = CKeyInfo::KTA_SOLDIER18;

  002de	c7 00 47 00 00
	00		 mov	 DWORD PTR [eax], 71	; 00000047H
  002e4	e9 c7 01 00 00	 jmp	 $LN166@GetKeyType
$LN63@GetKeyType:

; 1364 : 	else if( eItemType ==  SettingKeyItemWnd::IT_SOLDIER19 )

  002e9	83 f9 39	 cmp	 ecx, 57			; 00000039H
  002ec	75 0b		 jne	 SHORT $LN61@GetKeyType

; 1365 : 		reFirstKeyType  = CKeyInfo::KTA_SOLDIER19;

  002ee	c7 00 48 00 00
	00		 mov	 DWORD PTR [eax], 72	; 00000048H
  002f4	e9 b7 01 00 00	 jmp	 $LN166@GetKeyType
$LN61@GetKeyType:

; 1366 : 	else if( eItemType ==  SettingKeyItemWnd::IT_SOLDIER20 )

  002f9	83 f9 3a	 cmp	 ecx, 58			; 0000003aH
  002fc	75 0b		 jne	 SHORT $LN59@GetKeyType

; 1367 : 		reFirstKeyType  = CKeyInfo::KTA_SOLDIER20;

  002fe	c7 00 49 00 00
	00		 mov	 DWORD PTR [eax], 73	; 00000049H
  00304	e9 a7 01 00 00	 jmp	 $LN166@GetKeyType
$LN59@GetKeyType:

; 1368 : 	else if( eItemType ==  SettingKeyItemWnd::IT_SOLDIER21 )

  00309	83 f9 3b	 cmp	 ecx, 59			; 0000003bH
  0030c	75 0b		 jne	 SHORT $LN57@GetKeyType

; 1369 : 		reFirstKeyType  = CKeyInfo::KTA_SOLDIER21;

  0030e	c7 00 4a 00 00
	00		 mov	 DWORD PTR [eax], 74	; 0000004aH
  00314	e9 97 01 00 00	 jmp	 $LN166@GetKeyType
$LN57@GetKeyType:

; 1370 : 	else if( eItemType ==  SettingKeyItemWnd::IT_SOLDIER22 )

  00319	6a 3c		 push	 60			; 0000003cH
  0031b	5f		 pop	 edi
  0031c	3b cf		 cmp	 ecx, edi
  0031e	75 0b		 jne	 SHORT $LN55@GetKeyType

; 1371 : 		reFirstKeyType  = CKeyInfo::KTA_SOLDIER22;

  00320	c7 00 4b 00 00
	00		 mov	 DWORD PTR [eax], 75	; 0000004bH
  00326	e9 85 01 00 00	 jmp	 $LN166@GetKeyType
$LN55@GetKeyType:

; 1372 : 	else if( eItemType ==  SettingKeyItemWnd::IT_SOLDIER23 )

  0032b	6a 3d		 push	 61			; 0000003dH
  0032d	5e		 pop	 esi
  0032e	3b ce		 cmp	 ecx, esi
  00330	75 0b		 jne	 SHORT $LN53@GetKeyType

; 1373 : 		reFirstKeyType  = CKeyInfo::KTA_SOLDIER23;

  00332	c7 00 4c 00 00
	00		 mov	 DWORD PTR [eax], 76	; 0000004cH
  00338	e9 73 01 00 00	 jmp	 $LN166@GetKeyType
$LN53@GetKeyType:

; 1374 : 	else if( eItemType ==  SettingKeyItemWnd::IT_SOLDIER24 )

  0033d	6a 3e		 push	 62			; 0000003eH
  0033f	5a		 pop	 edx
  00340	3b ca		 cmp	 ecx, edx
  00342	75 0b		 jne	 SHORT $LN51@GetKeyType

; 1375 : 		reFirstKeyType  = CKeyInfo::KTA_SOLDIER24;

  00344	c7 00 4d 00 00
	00		 mov	 DWORD PTR [eax], 77	; 0000004dH
  0034a	e9 61 01 00 00	 jmp	 $LN166@GetKeyType
$LN51@GetKeyType:

; 1376 : 	else if( eItemType ==  SettingKeyItemWnd::IT_SOLDIER25 )

  0034f	83 f9 3f	 cmp	 ecx, 63			; 0000003fH
  00352	75 0b		 jne	 SHORT $LN49@GetKeyType

; 1377 : 		reFirstKeyType  = CKeyInfo::KTA_SOLDIER25;

  00354	c7 00 4e 00 00
	00		 mov	 DWORD PTR [eax], 78	; 0000004eH
  0035a	e9 51 01 00 00	 jmp	 $LN166@GetKeyType
$LN49@GetKeyType:

; 1378 : 	else if( eItemType ==  SettingKeyItemWnd::IT_SOLDIER26 )

  0035f	83 f9 40	 cmp	 ecx, 64			; 00000040H
  00362	75 0b		 jne	 SHORT $LN47@GetKeyType

; 1379 : 		reFirstKeyType  = CKeyInfo::KTA_SOLDIER26;

  00364	c7 00 4f 00 00
	00		 mov	 DWORD PTR [eax], 79	; 0000004fH
  0036a	e9 41 01 00 00	 jmp	 $LN166@GetKeyType
$LN47@GetKeyType:

; 1380 : 	else if( eItemType ==  SettingKeyItemWnd::IT_SOLDIER27 )

  0036f	83 f9 41	 cmp	 ecx, 65			; 00000041H
  00372	75 0b		 jne	 SHORT $LN45@GetKeyType

; 1381 : 		reFirstKeyType  = CKeyInfo::KTA_SOLDIER27;

  00374	c7 00 50 00 00
	00		 mov	 DWORD PTR [eax], 80	; 00000050H
  0037a	e9 31 01 00 00	 jmp	 $LN166@GetKeyType
$LN45@GetKeyType:

; 1382 : 	else if( eItemType ==  SettingKeyItemWnd::IT_SOLDIER28 )

  0037f	83 f9 42	 cmp	 ecx, 66			; 00000042H
  00382	75 0b		 jne	 SHORT $LN43@GetKeyType

; 1383 : 		reFirstKeyType  = CKeyInfo::KTA_SOLDIER28;

  00384	c7 00 51 00 00
	00		 mov	 DWORD PTR [eax], 81	; 00000051H
  0038a	e9 21 01 00 00	 jmp	 $LN166@GetKeyType
$LN43@GetKeyType:

; 1384 : 	else if( eItemType ==  SettingKeyItemWnd::IT_SOLDIER29 )

  0038f	83 f9 43	 cmp	 ecx, 67			; 00000043H
  00392	75 0b		 jne	 SHORT $LN41@GetKeyType

; 1385 : 		reFirstKeyType  = CKeyInfo::KTA_SOLDIER29;

  00394	c7 00 52 00 00
	00		 mov	 DWORD PTR [eax], 82	; 00000052H
  0039a	e9 11 01 00 00	 jmp	 $LN166@GetKeyType
$LN41@GetKeyType:

; 1386 : 	else if( eItemType ==  SettingKeyItemWnd::IT_SOLDIER30 )

  0039f	83 f9 44	 cmp	 ecx, 68			; 00000044H
  003a2	75 0b		 jne	 SHORT $LN39@GetKeyType

; 1387 : 		reFirstKeyType  = CKeyInfo::KTA_SOLDIER30;

  003a4	c7 00 53 00 00
	00		 mov	 DWORD PTR [eax], 83	; 00000053H
  003aa	e9 01 01 00 00	 jmp	 $LN166@GetKeyType
$LN39@GetKeyType:

; 1388 : 	else if( eItemType ==  SettingKeyItemWnd::IT_SOLDIER31 )

  003af	83 f9 45	 cmp	 ecx, 69			; 00000045H
  003b2	75 0b		 jne	 SHORT $LN37@GetKeyType

; 1389 : 		reFirstKeyType  = CKeyInfo::KTA_SOLDIER31;

  003b4	c7 00 54 00 00
	00		 mov	 DWORD PTR [eax], 84	; 00000054H
  003ba	e9 f1 00 00 00	 jmp	 $LN166@GetKeyType
$LN37@GetKeyType:

; 1390 : 	else if( eItemType ==  SettingKeyItemWnd::IT_SOLDIER32 )

  003bf	83 f9 46	 cmp	 ecx, 70			; 00000046H
  003c2	75 0b		 jne	 SHORT $LN35@GetKeyType

; 1391 : 		reFirstKeyType  = CKeyInfo::KTA_SOLDIER32;

  003c4	c7 00 55 00 00
	00		 mov	 DWORD PTR [eax], 85	; 00000055H
  003ca	e9 e1 00 00 00	 jmp	 $LN166@GetKeyType
$LN35@GetKeyType:

; 1392 : 	else if( eItemType ==  SettingKeyItemWnd::IT_SOLDIER33 )

  003cf	83 f9 47	 cmp	 ecx, 71			; 00000047H
  003d2	75 0b		 jne	 SHORT $LN33@GetKeyType

; 1393 : 		reFirstKeyType  = CKeyInfo::KTA_SOLDIER33;

  003d4	c7 00 56 00 00
	00		 mov	 DWORD PTR [eax], 86	; 00000056H
  003da	e9 d1 00 00 00	 jmp	 $LN166@GetKeyType
$LN33@GetKeyType:

; 1394 : 	else if( eItemType ==  SettingKeyItemWnd::IT_SOLDIER34 )

  003df	83 f9 48	 cmp	 ecx, 72			; 00000048H
  003e2	75 0b		 jne	 SHORT $LN31@GetKeyType

; 1395 : 		reFirstKeyType  = CKeyInfo::KTA_SOLDIER34;

  003e4	c7 00 57 00 00
	00		 mov	 DWORD PTR [eax], 87	; 00000057H
  003ea	e9 c1 00 00 00	 jmp	 $LN166@GetKeyType
$LN31@GetKeyType:

; 1396 : 	else if( eItemType ==  SettingKeyItemWnd::IT_SOLDIER35 )

  003ef	83 f9 49	 cmp	 ecx, 73			; 00000049H
  003f2	75 0b		 jne	 SHORT $LN29@GetKeyType

; 1397 : 		reFirstKeyType  = CKeyInfo::KTA_SOLDIER35;

  003f4	c7 00 58 00 00
	00		 mov	 DWORD PTR [eax], 88	; 00000058H
  003fa	e9 b1 00 00 00	 jmp	 $LN166@GetKeyType
$LN29@GetKeyType:

; 1398 : 	else if( eItemType ==  SettingKeyItemWnd::IT_SOLDIER36 )

  003ff	83 f9 4a	 cmp	 ecx, 74			; 0000004aH
  00402	75 0b		 jne	 SHORT $LN27@GetKeyType

; 1399 : 		reFirstKeyType  = CKeyInfo::KTA_SOLDIER36;

  00404	c7 00 59 00 00
	00		 mov	 DWORD PTR [eax], 89	; 00000059H
  0040a	e9 a1 00 00 00	 jmp	 $LN166@GetKeyType
$LN27@GetKeyType:

; 1400 : 	else if( eItemType ==  SettingKeyItemWnd::IT_MACRO1 )

  0040f	83 f9 4c	 cmp	 ecx, 76			; 0000004cH
  00412	75 0b		 jne	 SHORT $LN25@GetKeyType

; 1401 : 		reFirstKeyType  = CKeyInfo::KTA_MACRO1;

  00414	c7 00 33 00 00
	00		 mov	 DWORD PTR [eax], 51	; 00000033H
  0041a	e9 91 00 00 00	 jmp	 $LN166@GetKeyType
$LN25@GetKeyType:

; 1402 : 	else if( eItemType ==  SettingKeyItemWnd::IT_MACRO2 )

  0041f	83 f9 4d	 cmp	 ecx, 77			; 0000004dH
  00422	75 0b		 jne	 SHORT $LN23@GetKeyType

; 1403 : 		reFirstKeyType  = CKeyInfo::KTA_MACRO2;

  00424	c7 00 34 00 00
	00		 mov	 DWORD PTR [eax], 52	; 00000034H
  0042a	e9 81 00 00 00	 jmp	 $LN166@GetKeyType
$LN23@GetKeyType:

; 1404 : 	else if( eItemType ==  SettingKeyItemWnd::IT_MACRO3 )

  0042f	83 f9 4e	 cmp	 ecx, 78			; 0000004eH
  00432	75 08		 jne	 SHORT $LN21@GetKeyType

; 1405 : 		reFirstKeyType  = CKeyInfo::KTA_MACRO3;

  00434	c7 00 35 00 00
	00		 mov	 DWORD PTR [eax], 53	; 00000035H
  0043a	eb 74		 jmp	 SHORT $LN166@GetKeyType
$LN21@GetKeyType:

; 1406 : 	else if( eItemType ==  SettingKeyItemWnd::IT_MACRO4 )

  0043c	83 f9 4f	 cmp	 ecx, 79			; 0000004fH
  0043f	75 08		 jne	 SHORT $LN19@GetKeyType

; 1407 : 		reFirstKeyType  = CKeyInfo::KTA_MACRO4;

  00441	c7 00 36 00 00
	00		 mov	 DWORD PTR [eax], 54	; 00000036H
  00447	eb 67		 jmp	 SHORT $LN166@GetKeyType
$LN19@GetKeyType:

; 1408 : 	else if( eItemType ==  SettingKeyItemWnd::IT_MACRO5 )

  00449	83 f9 50	 cmp	 ecx, 80			; 00000050H
  0044c	75 08		 jne	 SHORT $LN17@GetKeyType

; 1409 : 		reFirstKeyType  = CKeyInfo::KTA_MACRO5;

  0044e	c7 00 37 00 00
	00		 mov	 DWORD PTR [eax], 55	; 00000037H
  00454	eb 5a		 jmp	 SHORT $LN166@GetKeyType
$LN17@GetKeyType:

; 1410 : 	else if( eItemType ==  SettingKeyItemWnd::IT_MACRO6 )

  00456	83 f9 51	 cmp	 ecx, 81			; 00000051H
  00459	75 08		 jne	 SHORT $LN15@GetKeyType

; 1411 : 		reFirstKeyType  = CKeyInfo::KTA_MACRO6;

  0045b	c7 00 38 00 00
	00		 mov	 DWORD PTR [eax], 56	; 00000038H
  00461	eb 4d		 jmp	 SHORT $LN166@GetKeyType
$LN15@GetKeyType:

; 1412 : 	else if( eItemType ==  SettingKeyItemWnd::IT_MACRO7 )

  00463	83 f9 52	 cmp	 ecx, 82			; 00000052H
  00466	75 08		 jne	 SHORT $LN13@GetKeyType

; 1413 : 		reFirstKeyType  = CKeyInfo::KTA_MACRO7;

  00468	c7 00 39 00 00
	00		 mov	 DWORD PTR [eax], 57	; 00000039H
  0046e	eb 40		 jmp	 SHORT $LN166@GetKeyType
$LN13@GetKeyType:

; 1414 : 	else if( eItemType ==  SettingKeyItemWnd::IT_MACRO8 )

  00470	83 f9 53	 cmp	 ecx, 83			; 00000053H
  00473	75 08		 jne	 SHORT $LN11@GetKeyType

; 1415 : 		reFirstKeyType  = CKeyInfo::KTA_MACRO8;

  00475	c7 00 3a 00 00
	00		 mov	 DWORD PTR [eax], 58	; 0000003aH
  0047b	eb 33		 jmp	 SHORT $LN166@GetKeyType
$LN11@GetKeyType:

; 1416 : 	else if( eItemType ==  SettingKeyItemWnd::IT_MACRO9 )

  0047d	83 f9 54	 cmp	 ecx, 84			; 00000054H
  00480	75 08		 jne	 SHORT $LN9@GetKeyType

; 1417 : 		reFirstKeyType  = CKeyInfo::KTA_MACRO9;

  00482	c7 00 3b 00 00
	00		 mov	 DWORD PTR [eax], 59	; 0000003bH
  00488	eb 26		 jmp	 SHORT $LN166@GetKeyType
$LN9@GetKeyType:

; 1418 : 	else if( eItemType ==  SettingKeyItemWnd::IT_MACRO10 )

  0048a	83 f9 55	 cmp	 ecx, 85			; 00000055H
  0048d	75 04		 jne	 SHORT $LN7@GetKeyType

; 1419 : 		reFirstKeyType  = CKeyInfo::KTA_MACRO10;

  0048f	89 38		 mov	 DWORD PTR [eax], edi
  00491	eb 1d		 jmp	 SHORT $LN166@GetKeyType
$LN7@GetKeyType:

; 1420 : 	else if( eItemType ==  SettingKeyItemWnd::IT_MACRO11 )

  00493	83 f9 56	 cmp	 ecx, 86			; 00000056H
  00496	75 04		 jne	 SHORT $LN5@GetKeyType

; 1421 : 		reFirstKeyType  = CKeyInfo::KTA_MACRO11;

  00498	89 30		 mov	 DWORD PTR [eax], esi
  0049a	eb 14		 jmp	 SHORT $LN166@GetKeyType
$LN5@GetKeyType:

; 1422 : 	else if( eItemType ==  SettingKeyItemWnd::IT_MACRO12 )

  0049c	83 f9 57	 cmp	 ecx, 87			; 00000057H
  0049f	75 04		 jne	 SHORT $LN3@GetKeyType
$LN167@GetKeyType:

; 1423 : 		reFirstKeyType  = CKeyInfo::KTA_MACRO12;

  004a1	89 10		 mov	 DWORD PTR [eax], edx
  004a3	eb 0b		 jmp	 SHORT $LN166@GetKeyType
$LN3@GetKeyType:

; 1424 : 	else if( eItemType ==  SettingKeyItemWnd::IT_PET )

  004a5	83 f9 1d	 cmp	 ecx, 29			; 0000001dH
  004a8	75 06		 jne	 SHORT $LN166@GetKeyType

; 1425 : 		reFirstKeyType = CKeyInfo::KTA_PET;

  004aa	c7 00 5e 00 00
	00		 mov	 DWORD PTR [eax], 94	; 0000005eH
$LN166@GetKeyType:
  004b0	5f		 pop	 edi
$LN1@GetKeyType:
  004b1	5e		 pop	 esi

; 1426 : }

  004b2	5d		 pop	 ebp
  004b3	c2 0c 00	 ret	 12			; 0000000cH
?GetKeyType@GameOptionSettingKeyTab@@IAEXW4ItemType@SettingKeyItemWnd@@AAW4KeyTypeArray@CKeyInfo@@1@Z ENDP ; GameOptionSettingKeyTab::GetKeyType
_TEXT	ENDS
PUBLIC	?GetItemTypeByKeyType@GameOptionSettingKeyTab@@IAE?AW4ItemType@SettingKeyItemWnd@@W4KeyTypeArray@CKeyInfo@@@Z ; GameOptionSettingKeyTab::GetItemTypeByKeyType
; Function compile flags: /Ogsp
;	COMDAT ?GetItemTypeByKeyType@GameOptionSettingKeyTab@@IAE?AW4ItemType@SettingKeyItemWnd@@W4KeyTypeArray@CKeyInfo@@@Z
_TEXT	SEGMENT
_eKeyType$ = 8						; size = 4
?GetItemTypeByKeyType@GameOptionSettingKeyTab@@IAE?AW4ItemType@SettingKeyItemWnd@@W4KeyTypeArray@CKeyInfo@@@Z PROC ; GameOptionSettingKeyTab::GetItemTypeByKeyType, COMDAT
; _this$ = ecx

; 1429 : {

  00000	55		 push	 ebp
  00001	8b ec		 mov	 ebp, esp

; 1430 : 
; 1431 : 	SettingKeyItemWnd::ItemType eReturnItemType = SettingKeyItemWnd::IT_NONE;
; 1432 : 
; 1433 : 	   	 if( eKeyType == CKeyInfo::KTA_UP  ||
; 1434 : 		 	 eKeyType == CKeyInfo::KTA_SECOND_UP )

  00003	8b 4d 08	 mov	 ecx, DWORD PTR _eKeyType$[ebp]
  00006	83 c8 ff	 or	 eax, -1
  00009	85 c9		 test	 ecx, ecx
  0000b	0f 84 ca 03 00
	00		 je	 $LN169@GetItemTyp
  00011	83 f9 07	 cmp	 ecx, 7
  00014	0f 84 c1 03 00
	00		 je	 $LN169@GetItemTyp

; 1436 : 	else if( eKeyType == CKeyInfo::KTA_DOWN || 
; 1437 : 			 eKeyType == CKeyInfo::KTA_SECOND_DOWN )

  0001a	83 f9 01	 cmp	 ecx, 1
  0001d	0f 84 b4 03 00
	00		 je	 $LN166@GetItemTyp
  00023	83 f9 08	 cmp	 ecx, 8
  00026	0f 84 ab 03 00
	00		 je	 $LN166@GetItemTyp

; 1440 : 			 eKeyType == CKeyInfo::KTA_SECOND_LEFT )

  0002c	83 f9 02	 cmp	 ecx, 2
  0002f	0f 84 9e 03 00
	00		 je	 $LN163@GetItemTyp
  00035	83 f9 09	 cmp	 ecx, 9
  00038	0f 84 95 03 00
	00		 je	 $LN163@GetItemTyp

; 1443 : 			 eKeyType == CKeyInfo::KTA_SECOND_RIGHT )

  0003e	83 f9 03	 cmp	 ecx, 3
  00041	0f 84 88 03 00
	00		 je	 $LN160@GetItemTyp
  00047	83 f9 0a	 cmp	 ecx, 10			; 0000000aH
  0004a	0f 84 7f 03 00
	00		 je	 $LN160@GetItemTyp

; 1446 : 		     eKeyType == CKeyInfo::KTA_SECOND_ATTACK )

  00050	83 f9 04	 cmp	 ecx, 4
  00053	0f 84 72 03 00
	00		 je	 $LN157@GetItemTyp
  00059	83 f9 0b	 cmp	 ecx, 11			; 0000000bH
  0005c	0f 84 69 03 00
	00		 je	 $LN157@GetItemTyp

; 1449 : 		     eKeyType == CKeyInfo::KTA_SECOND_DEFENSE )

  00062	83 f9 05	 cmp	 ecx, 5
  00065	0f 84 5c 03 00
	00		 je	 $LN154@GetItemTyp
  0006b	83 f9 0c	 cmp	 ecx, 12			; 0000000cH
  0006e	0f 84 53 03 00
	00		 je	 $LN154@GetItemTyp

; 1452 : 	         eKeyType == CKeyInfo::KTA_SECOND_JUMP )

  00074	83 f9 06	 cmp	 ecx, 6
  00077	0f 84 46 03 00
	00		 je	 $LN151@GetItemTyp
  0007d	83 f9 0d	 cmp	 ecx, 13			; 0000000dH
  00080	0f 84 3d 03 00
	00		 je	 $LN151@GetItemTyp

; 1454 : 	else if( eKeyType == CKeyInfo::KTA_LEFTUP )

  00086	83 f9 12	 cmp	 ecx, 18			; 00000012H
  00089	75 07		 jne	 SHORT $LN149@GetItemTyp

; 1455 : 			 eReturnItemType = SettingKeyItemWnd::IT_LEFT_UP;

  0008b	6a 09		 push	 9
  0008d	e9 25 03 00 00	 jmp	 $LN173@GetItemTyp
$LN149@GetItemTyp:

; 1456 : 	else if( eKeyType == CKeyInfo::KTA_RIGHTUP )

  00092	83 f9 13	 cmp	 ecx, 19			; 00000013H
  00095	75 07		 jne	 SHORT $LN147@GetItemTyp

; 1457 : 			 eReturnItemType = SettingKeyItemWnd::IT_RIGHT_UP;

  00097	6a 0a		 push	 10			; 0000000aH
  00099	e9 19 03 00 00	 jmp	 $LN173@GetItemTyp
$LN147@GetItemTyp:

; 1458 : 	else if( eKeyType == CKeyInfo::KTA_LEFTDOWN )

  0009e	83 f9 14	 cmp	 ecx, 20			; 00000014H
  000a1	75 07		 jne	 SHORT $LN145@GetItemTyp

; 1459 : 			 eReturnItemType = SettingKeyItemWnd::IT_LEFT_DOWN;

  000a3	6a 0b		 push	 11			; 0000000bH
  000a5	e9 0d 03 00 00	 jmp	 $LN173@GetItemTyp
$LN145@GetItemTyp:

; 1460 : 	else if( eKeyType == CKeyInfo::KTA_RIGHTDOWN )

  000aa	83 f9 15	 cmp	 ecx, 21			; 00000015H
  000ad	75 07		 jne	 SHORT $LN143@GetItemTyp

; 1461 : 			 eReturnItemType = SettingKeyItemWnd::IT_RIGHT_DOWN;

  000af	6a 0c		 push	 12			; 0000000cH
  000b1	e9 01 03 00 00	 jmp	 $LN173@GetItemTyp
$LN143@GetItemTyp:

; 1462 : 	else if( eKeyType == CKeyInfo::KTA_CLOAK_SKILL )

  000b6	83 f9 0e	 cmp	 ecx, 14			; 0000000eH
  000b9	75 06		 jne	 SHORT $LN141@GetItemTyp

; 1463 : 			 eReturnItemType = SettingKeyItemWnd::IT_CLOAK_SKILL;

  000bb	51		 push	 ecx
  000bc	e9 f6 02 00 00	 jmp	 $LN173@GetItemTyp
$LN141@GetItemTyp:

; 1464 : 	else if( eKeyType == CKeyInfo::KTA_HELM_SKILL )

  000c1	83 f9 0f	 cmp	 ecx, 15			; 0000000fH
  000c4	75 06		 jne	 SHORT $LN139@GetItemTyp

; 1465 : 			 eReturnItemType = SettingKeyItemWnd::IT_HELM_SKILL;

  000c6	51		 push	 ecx
  000c7	e9 eb 02 00 00	 jmp	 $LN173@GetItemTyp
$LN139@GetItemTyp:

; 1466 : 	else if( eKeyType == CKeyInfo::KTA_ARMOR_SKILL )

  000cc	83 f9 10	 cmp	 ecx, 16			; 00000010H
  000cf	75 06		 jne	 SHORT $LN137@GetItemTyp

; 1467 : 			 eReturnItemType = SettingKeyItemWnd::IT_ARMOR_SKILL;

  000d1	51		 push	 ecx
  000d2	e9 e0 02 00 00	 jmp	 $LN173@GetItemTyp
$LN137@GetItemTyp:

; 1468 : 	else if( eKeyType == CKeyInfo::KTA_WEAPON_SKILL )

  000d7	83 f9 11	 cmp	 ecx, 17			; 00000011H
  000da	75 06		 jne	 SHORT $LN135@GetItemTyp

; 1469 : 			 eReturnItemType = SettingKeyItemWnd::IT_WEAPON_SKILL;

  000dc	51		 push	 ecx
  000dd	e9 d5 02 00 00	 jmp	 $LN173@GetItemTyp
$LN135@GetItemTyp:

; 1470 : 	else if( eKeyType == CKeyInfo::KTA_CONSUMPTION1 )

  000e2	83 f9 5a	 cmp	 ecx, 90			; 0000005aH
  000e5	75 07		 jne	 SHORT $LN133@GetItemTyp

; 1471 : 			 eReturnItemType = SettingKeyItemWnd::IT_CONSUMPTION1;

  000e7	6a 13		 push	 19			; 00000013H
  000e9	e9 c9 02 00 00	 jmp	 $LN173@GetItemTyp
$LN133@GetItemTyp:

; 1472 : 	else if( eKeyType == CKeyInfo::KTA_CONSUMPTION2 )

  000ee	83 f9 5b	 cmp	 ecx, 91			; 0000005bH
  000f1	75 07		 jne	 SHORT $LN131@GetItemTyp

; 1473 : 			 eReturnItemType = SettingKeyItemWnd::IT_CONSUMPTION2;

  000f3	6a 14		 push	 20			; 00000014H
  000f5	e9 bd 02 00 00	 jmp	 $LN173@GetItemTyp
$LN131@GetItemTyp:

; 1474 : 	else if( eKeyType == CKeyInfo::KTA_CONSUMPTION3 )

  000fa	83 f9 5c	 cmp	 ecx, 92			; 0000005cH
  000fd	75 07		 jne	 SHORT $LN129@GetItemTyp

; 1475 : 			 eReturnItemType = SettingKeyItemWnd::IT_CONSUMPTION3;

  000ff	6a 15		 push	 21			; 00000015H
  00101	e9 b1 02 00 00	 jmp	 $LN173@GetItemTyp
$LN129@GetItemTyp:

; 1476 : 	else if( eKeyType == CKeyInfo::KTA_CONSUMPTION4 )

  00106	83 f9 5d	 cmp	 ecx, 93			; 0000005dH
  00109	75 07		 jne	 SHORT $LN127@GetItemTyp

; 1477 : 			 eReturnItemType = SettingKeyItemWnd::IT_CONSUMPTION4;

  0010b	6a 16		 push	 22			; 00000016H
  0010d	e9 a5 02 00 00	 jmp	 $LN173@GetItemTyp
$LN127@GetItemTyp:

; 1478 : 	else if( eKeyType == CKeyInfo::KTA_HELP )

  00112	83 f9 1a	 cmp	 ecx, 26			; 0000001aH
  00115	75 07		 jne	 SHORT $LN125@GetItemTyp

; 1479 : 			 eReturnItemType = SettingKeyItemWnd::IT_HELP;

  00117	6a 17		 push	 23			; 00000017H
  00119	e9 99 02 00 00	 jmp	 $LN173@GetItemTyp
$LN125@GetItemTyp:

; 1480 : 	else if( eKeyType == CKeyInfo::KTA_SHOP )

  0011e	83 f9 19	 cmp	 ecx, 25			; 00000019H
  00121	75 07		 jne	 SHORT $LN123@GetItemTyp

; 1481 : 			 eReturnItemType = SettingKeyItemWnd::IT_SHOP;

  00123	6a 18		 push	 24			; 00000018H
  00125	e9 8d 02 00 00	 jmp	 $LN173@GetItemTyp
$LN123@GetItemTyp:

; 1482 : 	else if( eKeyType == CKeyInfo::KTA_GROWTH )

  0012a	83 f9 1c	 cmp	 ecx, 28			; 0000001cH
  0012d	75 07		 jne	 SHORT $LN121@GetItemTyp

; 1483 : 	         eReturnItemType = SettingKeyItemWnd::IT_GROWTH;

  0012f	6a 19		 push	 25			; 00000019H
  00131	e9 81 02 00 00	 jmp	 $LN173@GetItemTyp
$LN121@GetItemTyp:

; 1484 : 	else if( eKeyType == CKeyInfo::KTA_QUEST )

  00136	83 f9 3f	 cmp	 ecx, 63			; 0000003fH
  00139	75 07		 jne	 SHORT $LN119@GetItemTyp

; 1485 : 			 eReturnItemType = SettingKeyItemWnd::IT_QUEST;

  0013b	6a 1b		 push	 27			; 0000001bH
  0013d	e9 75 02 00 00	 jmp	 $LN173@GetItemTyp
$LN119@GetItemTyp:

; 1486 : 	else if( eKeyType == CKeyInfo::KTA_PRESENT )

  00142	83 f9 40	 cmp	 ecx, 64			; 00000040H
  00145	75 07		 jne	 SHORT $LN117@GetItemTyp

; 1487 : 	         eReturnItemType = SettingKeyItemWnd::IT_PRESENT;

  00147	6a 1a		 push	 26			; 0000001aH
  00149	e9 69 02 00 00	 jmp	 $LN173@GetItemTyp
$LN117@GetItemTyp:

; 1488 : 	else if( eKeyType == CKeyInfo::KTA_MYHOMEPAGE )

  0014e	83 f9 41	 cmp	 ecx, 65			; 00000041H
  00151	75 07		 jne	 SHORT $LN115@GetItemTyp

; 1489 : 	         eReturnItemType = SettingKeyItemWnd::IT_MYHOMEPAGE;

  00153	6a 1c		 push	 28			; 0000001cH
  00155	e9 5d 02 00 00	 jmp	 $LN173@GetItemTyp
$LN115@GetItemTyp:

; 1490 : 	else if( eKeyType == CKeyInfo::KTA_OPTION )

  0015a	83 f9 1e	 cmp	 ecx, 30			; 0000001eH
  0015d	75 06		 jne	 SHORT $LN113@GetItemTyp

; 1491 : 			 eReturnItemType = SettingKeyItemWnd::IT_OPTION;

  0015f	51		 push	 ecx
  00160	e9 52 02 00 00	 jmp	 $LN173@GetItemTyp
$LN113@GetItemTyp:

; 1492 : 	else if( eKeyType == CKeyInfo::KTA_MESSENGER )

  00165	83 f9 1f	 cmp	 ecx, 31			; 0000001fH
  00168	75 06		 jne	 SHORT $LN111@GetItemTyp

; 1493 : 			 eReturnItemType = SettingKeyItemWnd::IT_MESSENGER;

  0016a	51		 push	 ecx
  0016b	e9 47 02 00 00	 jmp	 $LN173@GetItemTyp
$LN111@GetItemTyp:

; 1494 : 	else if( eKeyType == CKeyInfo::KTA_VOICE )

  00170	83 f9 20	 cmp	 ecx, 32			; 00000020H
  00173	75 06		 jne	 SHORT $LN109@GetItemTyp

; 1495 : 			 eReturnItemType = SettingKeyItemWnd::IT_VOICE;

  00175	51		 push	 ecx
  00176	e9 3c 02 00 00	 jmp	 $LN173@GetItemTyp
$LN109@GetItemTyp:

; 1496 : 	else if( eKeyType == CKeyInfo::KTA_SCREENSHOT )

  0017b	83 f9 21	 cmp	 ecx, 33			; 00000021H
  0017e	75 06		 jne	 SHORT $LN107@GetItemTyp

; 1497 : 		     eReturnItemType = SettingKeyItemWnd::IT_SCREENSHOT;

  00180	51		 push	 ecx
  00181	e9 31 02 00 00	 jmp	 $LN173@GetItemTyp
$LN107@GetItemTyp:

; 1498 : 	else if( eKeyType == CKeyInfo::KTA_MOVIECAPTURE )

  00186	83 f9 22	 cmp	 ecx, 34			; 00000022H
  00189	75 06		 jne	 SHORT $LN105@GetItemTyp

; 1499 : 		     eReturnItemType = SettingKeyItemWnd::IT_MOVIECAPTURE;

  0018b	51		 push	 ecx
  0018c	e9 26 02 00 00	 jmp	 $LN173@GetItemTyp
$LN105@GetItemTyp:

; 1500 : 	else if( eKeyType == CKeyInfo::KTA_SPECIAL_MOTION )

  00191	83 f9 23	 cmp	 ecx, 35			; 00000023H
  00194	75 06		 jne	 SHORT $LN103@GetItemTyp

; 1501 : 	         eReturnItemType = SettingKeyItemWnd::IT_SPECIAL_MOTION;

  00196	51		 push	 ecx
  00197	e9 1b 02 00 00	 jmp	 $LN173@GetItemTyp
$LN103@GetItemTyp:

; 1502 : 	else if( eKeyType == CKeyInfo::KTA_ZOOMIN )

  0019c	83 f9 24	 cmp	 ecx, 36			; 00000024H
  0019f	75 06		 jne	 SHORT $LN101@GetItemTyp

; 1503 : 	         eReturnItemType = SettingKeyItemWnd::IT_ZOOMIN;

  001a1	51		 push	 ecx
  001a2	e9 10 02 00 00	 jmp	 $LN173@GetItemTyp
$LN101@GetItemTyp:

; 1504 : 	else if( eKeyType == CKeyInfo::KTA_ZOOMOUT )

  001a7	83 f9 25	 cmp	 ecx, 37			; 00000025H
  001aa	75 06		 jne	 SHORT $LN99@GetItemTyp

; 1505 : 			 eReturnItemType = SettingKeyItemWnd::IT_ZOOMOUT;

  001ac	51		 push	 ecx
  001ad	e9 05 02 00 00	 jmp	 $LN173@GetItemTyp
$LN99@GetItemTyp:

; 1506 : 	else if( eKeyType == CKeyInfo::KTA_SOLDIER1 )

  001b2	83 f9 27	 cmp	 ecx, 39			; 00000027H
  001b5	75 06		 jne	 SHORT $LN97@GetItemTyp

; 1507 : 		     eReturnItemType = SettingKeyItemWnd::IT_SOLDIER1;

  001b7	51		 push	 ecx
  001b8	e9 fa 01 00 00	 jmp	 $LN173@GetItemTyp
$LN97@GetItemTyp:

; 1508 : 	else if( eKeyType == CKeyInfo::KTA_SOLDIER2 )

  001bd	83 f9 28	 cmp	 ecx, 40			; 00000028H
  001c0	75 06		 jne	 SHORT $LN95@GetItemTyp

; 1509 : 		     eReturnItemType = SettingKeyItemWnd::IT_SOLDIER2;

  001c2	51		 push	 ecx
  001c3	e9 ef 01 00 00	 jmp	 $LN173@GetItemTyp
$LN95@GetItemTyp:

; 1510 : 	else if( eKeyType == CKeyInfo::KTA_SOLDIER3 )

  001c8	83 f9 29	 cmp	 ecx, 41			; 00000029H
  001cb	75 06		 jne	 SHORT $LN93@GetItemTyp

; 1511 : 		     eReturnItemType = SettingKeyItemWnd::IT_SOLDIER3;

  001cd	51		 push	 ecx
  001ce	e9 e4 01 00 00	 jmp	 $LN173@GetItemTyp
$LN93@GetItemTyp:

; 1512 : 	else if( eKeyType == CKeyInfo::KTA_SOLDIER4 )

  001d3	83 f9 2a	 cmp	 ecx, 42			; 0000002aH
  001d6	75 06		 jne	 SHORT $LN91@GetItemTyp

; 1513 : 		     eReturnItemType = SettingKeyItemWnd::IT_SOLDIER4;

  001d8	51		 push	 ecx
  001d9	e9 d9 01 00 00	 jmp	 $LN173@GetItemTyp
$LN91@GetItemTyp:

; 1514 : 	else if( eKeyType == CKeyInfo::KTA_SOLDIER5 )

  001de	83 f9 2b	 cmp	 ecx, 43			; 0000002bH
  001e1	75 06		 jne	 SHORT $LN89@GetItemTyp

; 1515 : 		     eReturnItemType = SettingKeyItemWnd::IT_SOLDIER5;

  001e3	51		 push	 ecx
  001e4	e9 ce 01 00 00	 jmp	 $LN173@GetItemTyp
$LN89@GetItemTyp:

; 1516 : 	else if( eKeyType == CKeyInfo::KTA_SOLDIER6 )

  001e9	83 f9 2c	 cmp	 ecx, 44			; 0000002cH
  001ec	75 06		 jne	 SHORT $LN87@GetItemTyp

; 1517 : 		     eReturnItemType = SettingKeyItemWnd::IT_SOLDIER6;

  001ee	51		 push	 ecx
  001ef	e9 c3 01 00 00	 jmp	 $LN173@GetItemTyp
$LN87@GetItemTyp:

; 1518 : 	else if( eKeyType == CKeyInfo::KTA_SOLDIER7 )

  001f4	83 f9 2d	 cmp	 ecx, 45			; 0000002dH
  001f7	75 06		 jne	 SHORT $LN85@GetItemTyp

; 1519 : 		     eReturnItemType = SettingKeyItemWnd::IT_SOLDIER7;

  001f9	51		 push	 ecx
  001fa	e9 b8 01 00 00	 jmp	 $LN173@GetItemTyp
$LN85@GetItemTyp:

; 1520 : 	else if( eKeyType == CKeyInfo::KTA_SOLDIER8 )

  001ff	83 f9 2e	 cmp	 ecx, 46			; 0000002eH
  00202	75 06		 jne	 SHORT $LN83@GetItemTyp

; 1521 : 		     eReturnItemType = SettingKeyItemWnd::IT_SOLDIER8;

  00204	51		 push	 ecx
  00205	e9 ad 01 00 00	 jmp	 $LN173@GetItemTyp
$LN83@GetItemTyp:

; 1522 : 	else if( eKeyType == CKeyInfo::KTA_SOLDIER9 )

  0020a	83 f9 2f	 cmp	 ecx, 47			; 0000002fH
  0020d	75 06		 jne	 SHORT $LN81@GetItemTyp

; 1523 : 		     eReturnItemType = SettingKeyItemWnd::IT_SOLDIER9;

  0020f	51		 push	 ecx
  00210	e9 a2 01 00 00	 jmp	 $LN173@GetItemTyp
$LN81@GetItemTyp:

; 1524 : 	else if( eKeyType == CKeyInfo::KTA_SOLDIER10 )

  00215	83 f9 30	 cmp	 ecx, 48			; 00000030H
  00218	75 06		 jne	 SHORT $LN79@GetItemTyp

; 1525 : 		     eReturnItemType = SettingKeyItemWnd::IT_SOLDIER10;

  0021a	51		 push	 ecx
  0021b	e9 97 01 00 00	 jmp	 $LN173@GetItemTyp
$LN79@GetItemTyp:

; 1526 : 	else if( eKeyType == CKeyInfo::KTA_SOLDIER11 )

  00220	83 f9 31	 cmp	 ecx, 49			; 00000031H
  00223	75 06		 jne	 SHORT $LN77@GetItemTyp

; 1527 : 		     eReturnItemType = SettingKeyItemWnd::IT_SOLDIER11;

  00225	51		 push	 ecx
  00226	e9 8c 01 00 00	 jmp	 $LN173@GetItemTyp
$LN77@GetItemTyp:

; 1528 : 	else if( eKeyType == CKeyInfo::KTA_SOLDIER12 )

  0022b	83 f9 32	 cmp	 ecx, 50			; 00000032H
  0022e	75 06		 jne	 SHORT $LN75@GetItemTyp

; 1529 : 		     eReturnItemType = SettingKeyItemWnd::IT_SOLDIER12;

  00230	51		 push	 ecx
  00231	e9 81 01 00 00	 jmp	 $LN173@GetItemTyp
$LN75@GetItemTyp:

; 1530 : 	else if( eKeyType == CKeyInfo::KTA_SOLDIER13 )

  00236	83 f9 42	 cmp	 ecx, 66			; 00000042H
  00239	75 07		 jne	 SHORT $LN73@GetItemTyp

; 1531 : 		     eReturnItemType = SettingKeyItemWnd::IT_SOLDIER13;

  0023b	6a 33		 push	 51			; 00000033H
  0023d	e9 75 01 00 00	 jmp	 $LN173@GetItemTyp
$LN73@GetItemTyp:

; 1532 : 	else if( eKeyType == CKeyInfo::KTA_SOLDIER14 )

  00242	83 f9 43	 cmp	 ecx, 67			; 00000043H
  00245	75 07		 jne	 SHORT $LN71@GetItemTyp

; 1533 : 		     eReturnItemType = SettingKeyItemWnd::IT_SOLDIER14;

  00247	6a 34		 push	 52			; 00000034H
  00249	e9 69 01 00 00	 jmp	 $LN173@GetItemTyp
$LN71@GetItemTyp:

; 1534 : 	else if( eKeyType == CKeyInfo::KTA_SOLDIER15 )

  0024e	83 f9 44	 cmp	 ecx, 68			; 00000044H
  00251	75 07		 jne	 SHORT $LN69@GetItemTyp

; 1535 : 		     eReturnItemType = SettingKeyItemWnd::IT_SOLDIER15;

  00253	6a 35		 push	 53			; 00000035H
  00255	e9 5d 01 00 00	 jmp	 $LN173@GetItemTyp
$LN69@GetItemTyp:

; 1536 : 	else if( eKeyType == CKeyInfo::KTA_SOLDIER16 )

  0025a	83 f9 45	 cmp	 ecx, 69			; 00000045H
  0025d	75 07		 jne	 SHORT $LN67@GetItemTyp

; 1537 : 		     eReturnItemType = SettingKeyItemWnd::IT_SOLDIER16;

  0025f	6a 36		 push	 54			; 00000036H
  00261	e9 51 01 00 00	 jmp	 $LN173@GetItemTyp
$LN67@GetItemTyp:

; 1538 : 	else if( eKeyType == CKeyInfo::KTA_SOLDIER17 )

  00266	83 f9 46	 cmp	 ecx, 70			; 00000046H
  00269	75 07		 jne	 SHORT $LN65@GetItemTyp

; 1539 : 		     eReturnItemType = SettingKeyItemWnd::IT_SOLDIER17;

  0026b	6a 37		 push	 55			; 00000037H
  0026d	e9 45 01 00 00	 jmp	 $LN173@GetItemTyp
$LN65@GetItemTyp:

; 1540 : 	else if( eKeyType == CKeyInfo::KTA_SOLDIER18 )

  00272	83 f9 47	 cmp	 ecx, 71			; 00000047H
  00275	75 07		 jne	 SHORT $LN63@GetItemTyp

; 1541 : 		     eReturnItemType = SettingKeyItemWnd::IT_SOLDIER18;

  00277	6a 38		 push	 56			; 00000038H
  00279	e9 39 01 00 00	 jmp	 $LN173@GetItemTyp
$LN63@GetItemTyp:

; 1542 : 	else if( eKeyType == CKeyInfo::KTA_SOLDIER19 )

  0027e	83 f9 48	 cmp	 ecx, 72			; 00000048H
  00281	75 07		 jne	 SHORT $LN61@GetItemTyp

; 1543 : 		     eReturnItemType = SettingKeyItemWnd::IT_SOLDIER19;

  00283	6a 39		 push	 57			; 00000039H
  00285	e9 2d 01 00 00	 jmp	 $LN173@GetItemTyp
$LN61@GetItemTyp:

; 1544 : 	else if( eKeyType == CKeyInfo::KTA_SOLDIER20 )

  0028a	83 f9 49	 cmp	 ecx, 73			; 00000049H
  0028d	75 07		 jne	 SHORT $LN59@GetItemTyp

; 1545 : 		     eReturnItemType = SettingKeyItemWnd::IT_SOLDIER20;

  0028f	6a 3a		 push	 58			; 0000003aH
  00291	e9 21 01 00 00	 jmp	 $LN173@GetItemTyp
$LN59@GetItemTyp:

; 1546 : 	else if( eKeyType == CKeyInfo::KTA_SOLDIER21 )

  00296	83 f9 4a	 cmp	 ecx, 74			; 0000004aH
  00299	75 07		 jne	 SHORT $LN57@GetItemTyp

; 1547 : 		     eReturnItemType = SettingKeyItemWnd::IT_SOLDIER21;

  0029b	6a 3b		 push	 59			; 0000003bH
  0029d	e9 15 01 00 00	 jmp	 $LN173@GetItemTyp
$LN57@GetItemTyp:

; 1548 : 	else if( eKeyType == CKeyInfo::KTA_SOLDIER22 )

  002a2	83 f9 4b	 cmp	 ecx, 75			; 0000004bH
  002a5	75 07		 jne	 SHORT $LN55@GetItemTyp

; 1549 : 		     eReturnItemType = SettingKeyItemWnd::IT_SOLDIER22;

  002a7	6a 3c		 push	 60			; 0000003cH
  002a9	e9 09 01 00 00	 jmp	 $LN173@GetItemTyp
$LN55@GetItemTyp:

; 1550 : 	else if( eKeyType == CKeyInfo::KTA_SOLDIER23 )

  002ae	83 f9 4c	 cmp	 ecx, 76			; 0000004cH
  002b1	75 07		 jne	 SHORT $LN53@GetItemTyp

; 1551 : 		     eReturnItemType = SettingKeyItemWnd::IT_SOLDIER23;

  002b3	6a 3d		 push	 61			; 0000003dH
  002b5	e9 fd 00 00 00	 jmp	 $LN173@GetItemTyp
$LN53@GetItemTyp:

; 1552 : 	else if( eKeyType == CKeyInfo::KTA_SOLDIER24 )

  002ba	83 f9 4d	 cmp	 ecx, 77			; 0000004dH
  002bd	75 07		 jne	 SHORT $LN51@GetItemTyp

; 1553 : 		     eReturnItemType = SettingKeyItemWnd::IT_SOLDIER24;

  002bf	6a 3e		 push	 62			; 0000003eH
  002c1	e9 f1 00 00 00	 jmp	 $LN173@GetItemTyp
$LN51@GetItemTyp:

; 1554 : 	else if( eKeyType == CKeyInfo::KTA_SOLDIER25 )

  002c6	83 f9 4e	 cmp	 ecx, 78			; 0000004eH
  002c9	75 07		 jne	 SHORT $LN49@GetItemTyp

; 1555 : 		     eReturnItemType = SettingKeyItemWnd::IT_SOLDIER25;

  002cb	6a 3f		 push	 63			; 0000003fH
  002cd	e9 e5 00 00 00	 jmp	 $LN173@GetItemTyp
$LN49@GetItemTyp:

; 1556 : 	else if( eKeyType == CKeyInfo::KTA_SOLDIER26 )

  002d2	83 f9 4f	 cmp	 ecx, 79			; 0000004fH
  002d5	75 07		 jne	 SHORT $LN47@GetItemTyp

; 1557 : 		     eReturnItemType = SettingKeyItemWnd::IT_SOLDIER26;

  002d7	6a 40		 push	 64			; 00000040H
  002d9	e9 d9 00 00 00	 jmp	 $LN173@GetItemTyp
$LN47@GetItemTyp:

; 1558 : 	else if( eKeyType == CKeyInfo::KTA_SOLDIER27 )

  002de	83 f9 50	 cmp	 ecx, 80			; 00000050H
  002e1	75 07		 jne	 SHORT $LN45@GetItemTyp

; 1559 : 		     eReturnItemType = SettingKeyItemWnd::IT_SOLDIER27;

  002e3	6a 41		 push	 65			; 00000041H
  002e5	e9 cd 00 00 00	 jmp	 $LN173@GetItemTyp
$LN45@GetItemTyp:

; 1560 : 	else if( eKeyType == CKeyInfo::KTA_SOLDIER28 )

  002ea	83 f9 51	 cmp	 ecx, 81			; 00000051H
  002ed	75 07		 jne	 SHORT $LN43@GetItemTyp

; 1561 : 		     eReturnItemType = SettingKeyItemWnd::IT_SOLDIER28;

  002ef	6a 42		 push	 66			; 00000042H
  002f1	e9 c1 00 00 00	 jmp	 $LN173@GetItemTyp
$LN43@GetItemTyp:

; 1562 : 	else if( eKeyType == CKeyInfo::KTA_SOLDIER29 )

  002f6	83 f9 52	 cmp	 ecx, 82			; 00000052H
  002f9	75 07		 jne	 SHORT $LN41@GetItemTyp

; 1563 : 		     eReturnItemType = SettingKeyItemWnd::IT_SOLDIER29;

  002fb	6a 43		 push	 67			; 00000043H
  002fd	e9 b5 00 00 00	 jmp	 $LN173@GetItemTyp
$LN41@GetItemTyp:

; 1564 : 	else if( eKeyType == CKeyInfo::KTA_SOLDIER30 )

  00302	83 f9 53	 cmp	 ecx, 83			; 00000053H
  00305	75 07		 jne	 SHORT $LN39@GetItemTyp

; 1565 : 		     eReturnItemType = SettingKeyItemWnd::IT_SOLDIER30;

  00307	6a 44		 push	 68			; 00000044H
  00309	e9 a9 00 00 00	 jmp	 $LN173@GetItemTyp
$LN39@GetItemTyp:

; 1566 : 	else if( eKeyType == CKeyInfo::KTA_SOLDIER31 )

  0030e	83 f9 54	 cmp	 ecx, 84			; 00000054H
  00311	75 07		 jne	 SHORT $LN37@GetItemTyp

; 1567 : 		     eReturnItemType = SettingKeyItemWnd::IT_SOLDIER31;

  00313	6a 45		 push	 69			; 00000045H
  00315	e9 9d 00 00 00	 jmp	 $LN173@GetItemTyp
$LN37@GetItemTyp:

; 1568 : 	else if( eKeyType == CKeyInfo::KTA_SOLDIER32 )

  0031a	83 f9 55	 cmp	 ecx, 85			; 00000055H
  0031d	75 07		 jne	 SHORT $LN35@GetItemTyp

; 1569 : 		     eReturnItemType = SettingKeyItemWnd::IT_SOLDIER32;

  0031f	6a 46		 push	 70			; 00000046H
  00321	e9 91 00 00 00	 jmp	 $LN173@GetItemTyp
$LN35@GetItemTyp:

; 1570 : 	else if( eKeyType == CKeyInfo::KTA_SOLDIER33 )

  00326	83 f9 56	 cmp	 ecx, 86			; 00000056H
  00329	75 07		 jne	 SHORT $LN33@GetItemTyp

; 1571 : 		     eReturnItemType = SettingKeyItemWnd::IT_SOLDIER33;

  0032b	6a 47		 push	 71			; 00000047H
  0032d	e9 85 00 00 00	 jmp	 $LN173@GetItemTyp
$LN33@GetItemTyp:

; 1572 : 	else if( eKeyType == CKeyInfo::KTA_SOLDIER34 )

  00332	83 f9 57	 cmp	 ecx, 87			; 00000057H
  00335	75 04		 jne	 SHORT $LN31@GetItemTyp

; 1573 : 		     eReturnItemType = SettingKeyItemWnd::IT_SOLDIER34;

  00337	6a 48		 push	 72			; 00000048H
  00339	eb 7c		 jmp	 SHORT $LN173@GetItemTyp
$LN31@GetItemTyp:

; 1574 : 	else if( eKeyType == CKeyInfo::KTA_SOLDIER35 )

  0033b	83 f9 58	 cmp	 ecx, 88			; 00000058H
  0033e	75 04		 jne	 SHORT $LN29@GetItemTyp

; 1575 : 		     eReturnItemType = SettingKeyItemWnd::IT_SOLDIER35;

  00340	6a 49		 push	 73			; 00000049H
  00342	eb 73		 jmp	 SHORT $LN173@GetItemTyp
$LN29@GetItemTyp:

; 1576 : 	else if( eKeyType == CKeyInfo::KTA_SOLDIER36 )

  00344	83 f9 59	 cmp	 ecx, 89			; 00000059H
  00347	75 04		 jne	 SHORT $LN27@GetItemTyp

; 1577 : 		     eReturnItemType = SettingKeyItemWnd::IT_SOLDIER36;

  00349	6a 4a		 push	 74			; 0000004aH
  0034b	eb 6a		 jmp	 SHORT $LN173@GetItemTyp
$LN27@GetItemTyp:

; 1578 : 	else if( eKeyType == CKeyInfo::KTA_MACRO1 )

  0034d	83 f9 33	 cmp	 ecx, 51			; 00000033H
  00350	75 04		 jne	 SHORT $LN25@GetItemTyp

; 1579 : 		     eReturnItemType = SettingKeyItemWnd::IT_MACRO1;

  00352	6a 4c		 push	 76			; 0000004cH
  00354	eb 61		 jmp	 SHORT $LN173@GetItemTyp
$LN25@GetItemTyp:

; 1580 : 	else if( eKeyType == CKeyInfo::KTA_MACRO2 )

  00356	83 f9 34	 cmp	 ecx, 52			; 00000034H
  00359	75 04		 jne	 SHORT $LN23@GetItemTyp

; 1581 : 		     eReturnItemType = SettingKeyItemWnd::IT_MACRO2;

  0035b	6a 4d		 push	 77			; 0000004dH
  0035d	eb 58		 jmp	 SHORT $LN173@GetItemTyp
$LN23@GetItemTyp:

; 1582 : 	else if( eKeyType == CKeyInfo::KTA_MACRO3 )

  0035f	83 f9 35	 cmp	 ecx, 53			; 00000035H
  00362	75 04		 jne	 SHORT $LN21@GetItemTyp

; 1583 : 		     eReturnItemType = SettingKeyItemWnd::IT_MACRO3;

  00364	6a 4e		 push	 78			; 0000004eH
  00366	eb 4f		 jmp	 SHORT $LN173@GetItemTyp
$LN21@GetItemTyp:

; 1584 : 	else if( eKeyType == CKeyInfo::KTA_MACRO4 )

  00368	83 f9 36	 cmp	 ecx, 54			; 00000036H
  0036b	75 04		 jne	 SHORT $LN19@GetItemTyp

; 1585 : 		     eReturnItemType = SettingKeyItemWnd::IT_MACRO4;

  0036d	6a 4f		 push	 79			; 0000004fH
  0036f	eb 46		 jmp	 SHORT $LN173@GetItemTyp
$LN19@GetItemTyp:

; 1586 : 	else if( eKeyType == CKeyInfo::KTA_MACRO5 )

  00371	83 f9 37	 cmp	 ecx, 55			; 00000037H
  00374	75 04		 jne	 SHORT $LN17@GetItemTyp

; 1587 : 		     eReturnItemType = SettingKeyItemWnd::IT_MACRO5;

  00376	6a 50		 push	 80			; 00000050H
  00378	eb 3d		 jmp	 SHORT $LN173@GetItemTyp
$LN17@GetItemTyp:

; 1588 : 	else if( eKeyType == CKeyInfo::KTA_MACRO6 )

  0037a	83 f9 38	 cmp	 ecx, 56			; 00000038H
  0037d	75 04		 jne	 SHORT $LN15@GetItemTyp

; 1589 : 		     eReturnItemType = SettingKeyItemWnd::IT_MACRO6;

  0037f	6a 51		 push	 81			; 00000051H
  00381	eb 34		 jmp	 SHORT $LN173@GetItemTyp
$LN15@GetItemTyp:

; 1590 : 	else if( eKeyType == CKeyInfo::KTA_MACRO7 )

  00383	83 f9 39	 cmp	 ecx, 57			; 00000039H
  00386	75 04		 jne	 SHORT $LN13@GetItemTyp

; 1591 : 		     eReturnItemType = SettingKeyItemWnd::IT_MACRO7;

  00388	6a 52		 push	 82			; 00000052H
  0038a	eb 2b		 jmp	 SHORT $LN173@GetItemTyp
$LN13@GetItemTyp:

; 1592 : 	else if( eKeyType == CKeyInfo::KTA_MACRO8 )

  0038c	83 f9 3a	 cmp	 ecx, 58			; 0000003aH
  0038f	75 04		 jne	 SHORT $LN11@GetItemTyp

; 1593 : 		     eReturnItemType = SettingKeyItemWnd::IT_MACRO8;

  00391	6a 53		 push	 83			; 00000053H
  00393	eb 22		 jmp	 SHORT $LN173@GetItemTyp
$LN11@GetItemTyp:

; 1594 : 	else if( eKeyType == CKeyInfo::KTA_MACRO9 )

  00395	83 f9 3b	 cmp	 ecx, 59			; 0000003bH
  00398	75 04		 jne	 SHORT $LN9@GetItemTyp

; 1595 : 		     eReturnItemType = SettingKeyItemWnd::IT_MACRO9;

  0039a	6a 54		 push	 84			; 00000054H
  0039c	eb 19		 jmp	 SHORT $LN173@GetItemTyp
$LN9@GetItemTyp:

; 1596 : 	else if( eKeyType == CKeyInfo::KTA_MACRO10 )

  0039e	83 f9 3c	 cmp	 ecx, 60			; 0000003cH
  003a1	75 04		 jne	 SHORT $LN7@GetItemTyp

; 1597 : 		     eReturnItemType = SettingKeyItemWnd::IT_MACRO10;

  003a3	6a 55		 push	 85			; 00000055H
  003a5	eb 10		 jmp	 SHORT $LN173@GetItemTyp
$LN7@GetItemTyp:

; 1598 : 	else if( eKeyType == CKeyInfo::KTA_MACRO11 )

  003a7	83 f9 3d	 cmp	 ecx, 61			; 0000003dH
  003aa	75 04		 jne	 SHORT $LN5@GetItemTyp

; 1599 : 		     eReturnItemType = SettingKeyItemWnd::IT_MACRO11;

  003ac	6a 56		 push	 86			; 00000056H
  003ae	eb 07		 jmp	 SHORT $LN173@GetItemTyp
$LN5@GetItemTyp:

; 1600 : 	else if( eKeyType == CKeyInfo::KTA_MACRO12 )

  003b0	83 f9 3e	 cmp	 ecx, 62			; 0000003eH
  003b3	75 05		 jne	 SHORT $LN3@GetItemTyp

; 1601 : 		     eReturnItemType = SettingKeyItemWnd::IT_MACRO12;

  003b5	6a 57		 push	 87			; 00000057H
$LN173@GetItemTyp:
  003b7	58		 pop	 eax
  003b8	eb 24		 jmp	 SHORT $LN1@GetItemTyp
$LN3@GetItemTyp:

; 1602 : 	else if( eKeyType == CKeyInfo::KTA_PET )

  003ba	83 f9 5e	 cmp	 ecx, 94			; 0000005eH
  003bd	75 1f		 jne	 SHORT $LN1@GetItemTyp

; 1603 : 	         eReturnItemType = SettingKeyItemWnd::IT_PET;

  003bf	6a 1d		 push	 29			; 0000001dH
  003c1	eb f4		 jmp	 SHORT $LN173@GetItemTyp
$LN151@GetItemTyp:

; 1453 : 			 eReturnItemType = SettingKeyItemWnd::IT_JUMP;

  003c3	6a 07		 push	 7
  003c5	eb f0		 jmp	 SHORT $LN173@GetItemTyp
$LN154@GetItemTyp:

; 1450 : 			 eReturnItemType = SettingKeyItemWnd::IT_DEFENSE;

  003c7	6a 06		 push	 6

; 1451 : 	else if( eKeyType == CKeyInfo::KTA_JUMP  ||

  003c9	eb ec		 jmp	 SHORT $LN173@GetItemTyp
$LN157@GetItemTyp:

; 1447 : 			 eReturnItemType = SettingKeyItemWnd::IT_ATTACK;

  003cb	6a 05		 push	 5

; 1448 : 	else if( eKeyType == CKeyInfo::KTA_DEFENSE ||

  003cd	eb e8		 jmp	 SHORT $LN173@GetItemTyp
$LN160@GetItemTyp:

; 1444 : 			 eReturnItemType = SettingKeyItemWnd::IT_RIGHT;

  003cf	6a 04		 push	 4

; 1445 : 	else if( eKeyType == CKeyInfo::KTA_ATTACK ||

  003d1	eb e4		 jmp	 SHORT $LN173@GetItemTyp
$LN163@GetItemTyp:

; 1441 : 			 eReturnItemType = SettingKeyItemWnd::IT_LEFT;

  003d3	6a 03		 push	 3

; 1442 : 	else if( eKeyType == CKeyInfo::KTA_RIGHT ||

  003d5	eb e0		 jmp	 SHORT $LN173@GetItemTyp
$LN166@GetItemTyp:

; 1438 : 			 eReturnItemType = SettingKeyItemWnd::IT_DOWN;

  003d7	6a 02		 push	 2

; 1439 : 	else if( eKeyType == CKeyInfo::KTA_LEFT ||

  003d9	eb dc		 jmp	 SHORT $LN173@GetItemTyp
$LN169@GetItemTyp:

; 1435 : 			 eReturnItemType = SettingKeyItemWnd::IT_UP;

  003db	33 c0		 xor	 eax, eax
  003dd	40		 inc	 eax
$LN1@GetItemTyp:

; 1604 : 
; 1605 : 	return eReturnItemType;
; 1606 : }

  003de	5d		 pop	 ebp
  003df	c2 04 00	 ret	 4
?GetItemTypeByKeyType@GameOptionSettingKeyTab@@IAE?AW4ItemType@SettingKeyItemWnd@@W4KeyTypeArray@CKeyInfo@@@Z ENDP ; GameOptionSettingKeyTab::GetItemTypeByKeyType
_TEXT	ENDS
PUBLIC	?Init@GameOptionSettingKeyTab@@QAEXXZ		; GameOptionSettingKeyTab::Init
EXTRN	?GetCurrent@ioKeyManager@@QAEXAAVCKeyInfo@@@Z:PROC ; ioKeyManager::GetCurrent
; Function compile flags: /Ogsp
;	COMDAT ?Init@GameOptionSettingKeyTab@@QAEXXZ
_TEXT	SEGMENT
?Init@GameOptionSettingKeyTab@@QAEXXZ PROC		; GameOptionSettingKeyTab::Init, COMDAT
; _this$ = ecx

; 1633 : {

  00000	56		 push	 esi
  00001	8b f1		 mov	 esi, ecx

; 1634 : 	g_KeyManager.GetCurrent(m_KeyInfo);

  00003	8d 86 64 01 00
	00		 lea	 eax, DWORD PTR [esi+356]
  00009	50		 push	 eax
  0000a	e8 00 00 00 00	 call	 ?GetSingleton@ioKeyManager@@SAAAV1@XZ ; ioKeyManager::GetSingleton
  0000f	8b c8		 mov	 ecx, eax
  00011	e8 00 00 00 00	 call	 ?GetCurrent@ioKeyManager@@QAEXAAVCKeyInfo@@@Z ; ioKeyManager::GetCurrent

; 1635 : 	m_iCurPage = 0;

  00016	83 a6 60 01 00
	00 00		 and	 DWORD PTR [esi+352], 0
  0001d	5e		 pop	 esi

; 1636 : }

  0001e	c3		 ret	 0
?Init@GameOptionSettingKeyTab@@QAEXXZ ENDP		; GameOptionSettingKeyTab::Init
_TEXT	ENDS
PUBLIC	??_R0?AVGameOptionSettingKeyInput@@@8		; GameOptionSettingKeyInput `RTTI Type Descriptor'
PUBLIC	?ShowExistKeyControlWnd@GameOptionSettingKeyTab@@IAE_NG@Z ; GameOptionSettingKeyTab::ShowExistKeyControlWnd
EXTRN	__imp_?FindWnd@ioGUIManager@@QAEPAVioWnd@@K@Z:PROC
EXTRN	?GetSingleton@ioSP2GUIManager@@SAAAV1@XZ:PROC	; ioSP2GUIManager::GetSingleton
EXTRN	?GetEqual@CKeyInfo@@QAE?AW4KeyTypeArray@1@G@Z:PROC ; CKeyInfo::GetEqual
EXTRN	?IsRightKey@CKeyInfo@@QAE_NG@Z:PROC		; CKeyInfo::IsRightKey
;	COMDAT ??_R0?AVGameOptionSettingKeyInput@@@8
; File d:\lost saga for developer\youtube\tutorial\source\src\lsclient\gui\gameoptionsettingkeyinput.h
_DATA	SEGMENT
??_R0?AVGameOptionSettingKeyInput@@@8 DD FLAT:??_7type_info@@6B@ ; GameOptionSettingKeyInput `RTTI Type Descriptor'
	DD	00H
	DB	'.?AVGameOptionSettingKeyInput@@', 00H
_DATA	ENDS
;	COMDAT xdata$x
xdata$x	SEGMENT
__unwindtable$?ShowExistKeyControlWnd@GameOptionSettingKeyTab@@IAE_NG@Z DD 0ffffffffH
	DD	FLAT:__unwindfunclet$?ShowExistKeyControlWnd@GameOptionSettingKeyTab@@IAE_NG@Z$0
__ehfuncinfo$?ShowExistKeyControlWnd@GameOptionSettingKeyTab@@IAE_NG@Z DD 019930522H
	DD	01H
	DD	FLAT:__unwindtable$?ShowExistKeyControlWnd@GameOptionSettingKeyTab@@IAE_NG@Z
	DD	2 DUP(00H)
	DD	2 DUP(00H)
	DD	00H
	DD	01H
; Function compile flags: /Ogsp
; File d:\lost saga for developer\youtube\tutorial\source\src\lsclient\gui\gameoptionsettingtab.cpp
xdata$x	ENDS
;	COMDAT ?ShowExistKeyControlWnd@GameOptionSettingKeyTab@@IAE_NG@Z
_TEXT	SEGMENT
_sText$ = -32						; size = 16
_this$ = -16						; size = 4
__$EHRec$ = -12						; size = 12
_wKey$ = 8						; size = 2
_eItemType$ = 8						; size = 4
_eEqualKeyType$ = 8					; size = 4
?ShowExistKeyControlWnd@GameOptionSettingKeyTab@@IAE_NG@Z PROC ; GameOptionSettingKeyTab::ShowExistKeyControlWnd, COMDAT
; _this$ = ecx

; 1693 : {

  00000	6a 14		 push	 20			; 00000014H
  00002	b8 00 00 00 00	 mov	 eax, __ehhandler$?ShowExistKeyControlWnd@GameOptionSettingKeyTab@@IAE_NG@Z
  00007	e8 00 00 00 00	 call	 __EH_prolog3
  0000c	8b f9		 mov	 edi, ecx
  0000e	89 7d f0	 mov	 DWORD PTR _this$[ebp], edi

; 1694 : 	if( !m_KeyInfo.IsRightKey( wKey ) )

  00011	ff 75 08	 push	 DWORD PTR _wKey$[ebp]
  00014	8d 8f 64 01 00
	00		 lea	 ecx, DWORD PTR [edi+356]
  0001a	e8 00 00 00 00	 call	 ?IsRightKey@CKeyInfo@@QAE_NG@Z ; CKeyInfo::IsRightKey
  0001f	84 c0		 test	 al, al
  00021	75 07		 jne	 SHORT $LN7@ShowExistK
$LN14@ShowExistK:

; 1695 : 		return false;

  00023	32 c0		 xor	 al, al
  00025	e9 fe 00 00 00	 jmp	 $LN8@ShowExistK
$LN7@ShowExistK:

; 1696 : 	
; 1697 : 	CKeyInfo::KeyTypeArray eEqualKeyType = m_KeyInfo.GetEqual( wKey );

  0002a	ff 75 08	 push	 DWORD PTR _wKey$[ebp]
  0002d	8d 8f 64 01 00
	00		 lea	 ecx, DWORD PTR [edi+356]
  00033	e8 00 00 00 00	 call	 ?GetEqual@CKeyInfo@@QAE?AW4KeyTypeArray@1@G@Z ; CKeyInfo::GetEqual
  00038	89 45 08	 mov	 DWORD PTR _eEqualKeyType$[ebp], eax

; 1698 : 	if( eEqualKeyType == CKeyInfo::KTA_NONE )

  0003b	83 f8 ff	 cmp	 eax, -1

; 1699 : 		return false;

  0003e	74 e3		 je	 SHORT $LN14@ShowExistK

; 1700 : 
; 1701 : 	if( m_eSelectKeyType == eEqualKeyType )

  00040	39 87 8c 01 00
	00		 cmp	 DWORD PTR [edi+396], eax

; 1702 : 		return false;

  00046	74 db		 je	 SHORT $LN14@ShowExistK

; 1703 : 	
; 1704 : 	GameOptionSettingKeyInput *pKeyInput = dynamic_cast<GameOptionSettingKeyInput*> ( g_GUIMgr.FindWnd( GAME_OPTION_SETTING_KEYINPUT_WND ) );

  00048	33 f6		 xor	 esi, esi
  0004a	56		 push	 esi
  0004b	68 00 00 00 00	 push	 OFFSET ??_R0?AVGameOptionSettingKeyInput@@@8
  00050	68 00 00 00 00	 push	 OFFSET ??_R0?AVioWnd@@@8
  00055	56		 push	 esi
  00056	68 13 18 00 00	 push	 6163			; 00001813H
  0005b	e8 00 00 00 00	 call	 ?GetSingleton@ioSP2GUIManager@@SAAAV1@XZ ; ioSP2GUIManager::GetSingleton
  00060	8b c8		 mov	 ecx, eax
  00062	ff 15 00 00 00
	00		 call	 DWORD PTR __imp_?FindWnd@ioGUIManager@@QAEPAVioWnd@@K@Z
  00068	50		 push	 eax
  00069	e8 00 00 00 00	 call	 ___RTDynamicCast
  0006e	8b d8		 mov	 ebx, eax
  00070	83 c4 14	 add	 esp, 20			; 00000014H

; 1705 : 	if( !pKeyInput )

  00073	3b de		 cmp	 ebx, esi

; 1706 : 		return false;

  00075	74 ac		 je	 SHORT $LN14@ShowExistK

; 1707 : 	ioWnd *pUse = pKeyInput->FindChildWnd( GameOptionSettingKeyInput::ID_USE );

  00077	8b 3d 00 00 00
	00		 mov	 edi, DWORD PTR __imp_?FindChildWnd@ioWnd@@QAEPAV1@K@Z
  0007d	6a 03		 push	 3
  0007f	8b cb		 mov	 ecx, ebx
  00081	ff d7		 call	 edi

; 1708 : 	if( pUse && pUse->IsShow() )

  00083	3b c6		 cmp	 eax, esi
  00085	74 0c		 je	 SHORT $LN3@ShowExistK
  00087	8b c8		 mov	 ecx, eax
  00089	ff 15 00 00 00
	00		 call	 DWORD PTR __imp_?IsShow@ioWnd@@QBE_NXZ
  0008f	84 c0		 test	 al, al

; 1709 : 		return false;

  00091	75 90		 jne	 SHORT $LN14@ShowExistK
$LN3@ShowExistK:

; 1710 : 	
; 1711 : 	pKeyInput->ShowWnd();

  00093	8b cb		 mov	 ecx, ebx
  00095	ff 15 00 00 00
	00		 call	 DWORD PTR __imp_?ShowWnd@ioWnd@@QAEXXZ

; 1712 : 	pKeyInput->ShowChildWnd( GameOptionSettingKeyInput::ID_USE );

  0009b	56		 push	 esi
  0009c	8b 35 00 00 00
	00		 mov	 esi, DWORD PTR __imp_?ShowChildWnd@ioWnd@@QAEXK_N@Z
  000a2	6a 03		 push	 3
  000a4	8b cb		 mov	 ecx, ebx
  000a6	ff d6		 call	 esi

; 1713 : 	pKeyInput->ShowChildWnd( GameOptionSettingKeyInput::ID_CANCEL );

  000a8	6a 00		 push	 0
  000aa	6a 04		 push	 4
  000ac	8b cb		 mov	 ecx, ebx
  000ae	ff d6		 call	 esi

; 1714 : 
; 1715 : 	SettingKeyItemWnd *pItem = dynamic_cast<SettingKeyItemWnd*> ( FindChildWnd( ID_SETTING_KEY_ITEM_WND1 ) );

  000b0	8b 4d f0	 mov	 ecx, DWORD PTR _this$[ebp]
  000b3	33 f6		 xor	 esi, esi
  000b5	56		 push	 esi
  000b6	68 00 00 00 00	 push	 OFFSET ??_R0?AVSettingKeyItemWnd@@@8
  000bb	68 00 00 00 00	 push	 OFFSET ??_R0?AVioWnd@@@8
  000c0	56		 push	 esi
  000c1	6a 65		 push	 101			; 00000065H
  000c3	ff d7		 call	 edi
  000c5	50		 push	 eax
  000c6	e8 00 00 00 00	 call	 ___RTDynamicCast
  000cb	8b f8		 mov	 edi, eax
  000cd	83 c4 14	 add	 esp, 20			; 00000014H

; 1716 : 	if( !pItem )

  000d0	3b fe		 cmp	 edi, esi

; 1717 : 		return false;

  000d2	0f 84 4b ff ff
	ff		 je	 $LN14@ShowExistK

; 1718 : 
; 1719 : 	SettingKeyItemWnd::ItemType eItemType = GetItemTypeByKeyType( eEqualKeyType );

  000d8	ff 75 08	 push	 DWORD PTR _eEqualKeyType$[ebp]
  000db	8b 4d f0	 mov	 ecx, DWORD PTR _this$[ebp]
  000de	e8 00 00 00 00	 call	 ?GetItemTypeByKeyType@GameOptionSettingKeyTab@@IAE?AW4ItemType@SettingKeyItemWnd@@W4KeyTypeArray@CKeyInfo@@@Z ; GameOptionSettingKeyTab::GetItemTypeByKeyType
  000e3	89 45 08	 mov	 DWORD PTR _eItemType$[ebp], eax

; 1720 : 	if( eItemType == SettingKeyItemWnd::IT_NONE )

  000e6	83 f8 ff	 cmp	 eax, -1

; 1721 : 		return false;

  000e9	0f 84 34 ff ff
	ff		 je	 $LN14@ShowExistK

; 1722 : 
; 1723 : 	ioHashString sText;

  000ef	8d 4d e0	 lea	 ecx, DWORD PTR _sText$[ebp]
  000f2	ff 15 00 00 00
	00		 call	 DWORD PTR __imp_??0ioHashString@@QAE@XZ

; 1724 : 	pItem->SetHelpText( eItemType, sText);

  000f8	8d 45 e0	 lea	 eax, DWORD PTR _sText$[ebp]
  000fb	50		 push	 eax
  000fc	ff 75 08	 push	 DWORD PTR _eItemType$[ebp]
  000ff	8b cf		 mov	 ecx, edi
  00101	89 75 fc	 mov	 DWORD PTR __$EHRec$[ebp+8], esi
  00104	e8 00 00 00 00	 call	 ?SetHelpText@SettingKeyItemWnd@@QAEXW4ItemType@1@AAVioHashString@@@Z ; SettingKeyItemWnd::SetHelpText

; 1725 : 	pKeyInput->SetExistKeyTitle( sText );

  00109	8d 45 e0	 lea	 eax, DWORD PTR _sText$[ebp]
  0010c	50		 push	 eax
  0010d	8d 8b 74 01 00
	00		 lea	 ecx, DWORD PTR [ebx+372]
  00113	ff 15 00 00 00
	00		 call	 DWORD PTR __imp_??4ioHashString@@QAEAAV0@ABV0@@Z

; 1726 : 	return true;	

  00119	83 4d fc ff	 or	 DWORD PTR __$EHRec$[ebp+8], -1
  0011d	8d 4d e0	 lea	 ecx, DWORD PTR _sText$[ebp]
  00120	ff 15 00 00 00
	00		 call	 DWORD PTR __imp_??1ioHashString@@QAE@XZ
  00126	b0 01		 mov	 al, 1
$LN8@ShowExistK:

; 1727 : }

  00128	e8 00 00 00 00	 call	 __EH_epilog3
  0012d	c2 04 00	 ret	 4
_TEXT	ENDS
;	COMDAT text$x
text$x	SEGMENT
__unwindfunclet$?ShowExistKeyControlWnd@GameOptionSettingKeyTab@@IAE_NG@Z$0:
  00000	8d 4d e0	 lea	 ecx, DWORD PTR _sText$[ebp]
  00003	ff 25 00 00 00
	00		 jmp	 DWORD PTR __imp_??1ioHashString@@QAE@XZ
__ehhandler$?ShowExistKeyControlWnd@GameOptionSettingKeyTab@@IAE_NG@Z:
  00009	8b 54 24 08	 mov	 edx, DWORD PTR [esp+8]
  0000d	8d 42 0c	 lea	 eax, DWORD PTR [edx+12]
  00010	8b 4a dc	 mov	 ecx, DWORD PTR [edx-36]
  00013	33 c8		 xor	 ecx, eax
  00015	e8 00 00 00 00	 call	 @__security_check_cookie@4
  0001a	b8 00 00 00 00	 mov	 eax, OFFSET __ehfuncinfo$?ShowExistKeyControlWnd@GameOptionSettingKeyTab@@IAE_NG@Z
  0001f	e9 00 00 00 00	 jmp	 ___CxxFrameHandler3
text$x	ENDS
?ShowExistKeyControlWnd@GameOptionSettingKeyTab@@IAE_NG@Z ENDP ; GameOptionSettingKeyTab::ShowExistKeyControlWnd
PUBLIC	?ShowKeyInputControlWnd@GameOptionSettingKeyTab@@IAEXPAVioWnd@@@Z ; GameOptionSettingKeyTab::ShowKeyInputControlWnd
EXTRN	__imp_?AddWndStyle@ioWnd@@QAEXK@Z:PROC
EXTRN	__imp_?RemoveWndStyle@ioWnd@@QAEXK@Z:PROC
;	COMDAT xdata$x
; File d:\lost saga for developer\youtube\tutorial\source\src\lsclient\gui\gameoptionsettingkeyinput.h
xdata$x	SEGMENT
__unwindtable$?ShowKeyInputControlWnd@GameOptionSettingKeyTab@@IAEXPAVioWnd@@@Z DD 0ffffffffH
	DD	FLAT:__unwindfunclet$?ShowKeyInputControlWnd@GameOptionSettingKeyTab@@IAEXPAVioWnd@@@Z$0
__ehfuncinfo$?ShowKeyInputControlWnd@GameOptionSettingKeyTab@@IAEXPAVioWnd@@@Z DD 019930522H
	DD	01H
	DD	FLAT:__unwindtable$?ShowKeyInputControlWnd@GameOptionSettingKeyTab@@IAEXPAVioWnd@@@Z
	DD	2 DUP(00H)
	DD	2 DUP(00H)
	DD	00H
	DD	01H
; Function compile flags: /Ogsp
; File d:\lost saga for developer\youtube\tutorial\source\src\lsclient\gui\gameoptionsettingtab.cpp
xdata$x	ENDS
;	COMDAT ?ShowKeyInputControlWnd@GameOptionSettingKeyTab@@IAEXPAVioWnd@@@Z
_TEXT	SEGMENT
_sTitle$ = -28						; size = 16
__$EHRec$ = -12						; size = 12
_pWnd$ = 8						; size = 4
?ShowKeyInputControlWnd@GameOptionSettingKeyTab@@IAEXPAVioWnd@@@Z PROC ; GameOptionSettingKeyTab::ShowKeyInputControlWnd, COMDAT
; _this$ = ecx

; 1730 : {

  00000	6a 10		 push	 16			; 00000010H
  00002	b8 00 00 00 00	 mov	 eax, __ehhandler$?ShowKeyInputControlWnd@GameOptionSettingKeyTab@@IAEXPAVioWnd@@@Z
  00007	e8 00 00 00 00	 call	 __EH_prolog3
  0000c	8b d9		 mov	 ebx, ecx

; 1731 : 	if( !pWnd )

  0000e	33 f6		 xor	 esi, esi
  00010	39 75 08	 cmp	 DWORD PTR _pWnd$[ebp], esi
  00013	0f 84 fe 00 00
	00		 je	 $LN8@ShowKeyInp

; 1732 : 		return;
; 1733 : 	GameOptionSettingKeyInput *pKeyInput = dynamic_cast<GameOptionSettingKeyInput*> ( g_GUIMgr.FindWnd( GAME_OPTION_SETTING_KEYINPUT_WND ) );

  00019	56		 push	 esi
  0001a	68 00 00 00 00	 push	 OFFSET ??_R0?AVGameOptionSettingKeyInput@@@8
  0001f	68 00 00 00 00	 push	 OFFSET ??_R0?AVioWnd@@@8
  00024	56		 push	 esi
  00025	68 13 18 00 00	 push	 6163			; 00001813H
  0002a	e8 00 00 00 00	 call	 ?GetSingleton@ioSP2GUIManager@@SAAAV1@XZ ; ioSP2GUIManager::GetSingleton
  0002f	8b c8		 mov	 ecx, eax
  00031	ff 15 00 00 00
	00		 call	 DWORD PTR __imp_?FindWnd@ioGUIManager@@QAEPAVioWnd@@K@Z
  00037	50		 push	 eax
  00038	e8 00 00 00 00	 call	 ___RTDynamicCast
  0003d	8b f8		 mov	 edi, eax
  0003f	83 c4 14	 add	 esp, 20			; 00000014H

; 1734 : 	if( !pKeyInput )

  00042	3b fe		 cmp	 edi, esi
  00044	0f 84 cd 00 00
	00		 je	 $LN8@ShowKeyInp

; 1735 : 		return;
; 1736 : 	
; 1737 : 	pKeyInput->SetReturnWnd( this );
; 1738 : 	pKeyInput->ShowWnd();

  0004a	8b cf		 mov	 ecx, edi
  0004c	89 9f 88 01 00
	00		 mov	 DWORD PTR [edi+392], ebx
  00052	ff 15 00 00 00
	00		 call	 DWORD PTR __imp_?ShowWnd@ioWnd@@QAEXXZ

; 1739 : 	pKeyInput->HideChildWnd( GameOptionSettingKeyInput::ID_USE );

  00058	56		 push	 esi
  00059	8b 35 00 00 00
	00		 mov	 esi, DWORD PTR __imp_?HideChildWnd@ioWnd@@QAEXK_N@Z
  0005f	6a 03		 push	 3
  00061	8b cf		 mov	 ecx, edi
  00063	ff d6		 call	 esi

; 1740 : 	pKeyInput->HideChildWnd( GameOptionSettingKeyInput::ID_CANCEL );

  00065	6a 00		 push	 0
  00067	6a 04		 push	 4
  00069	8b cf		 mov	 ecx, edi
  0006b	ff d6		 call	 esi

; 1741 : 
; 1742 : 	ioWnd *pChild = pKeyInput->FindChildWnd( GameOptionSettingKeyInput::ID_DONT_SETTING );

  0006d	6a 01		 push	 1
  0006f	8b cf		 mov	 ecx, edi
  00071	ff 15 00 00 00
	00		 call	 DWORD PTR __imp_?FindChildWnd@ioWnd@@QAEPAV1@K@Z

; 1743 : 	if( !pChild )

  00077	85 c0		 test	 eax, eax
  00079	0f 84 98 00 00
	00		 je	 $LN8@ShowKeyInp

; 1744 : 		return;
; 1745 : 
; 1746 : 	if( m_eSelectKeyType == CKeyInfo::KTA_UP      || 
; 1747 : 		m_eSelectKeyType == CKeyInfo::KTA_DOWN    || 
; 1748 : 		m_eSelectKeyType == CKeyInfo::KTA_LEFT    || 
; 1749 : 		m_eSelectKeyType == CKeyInfo::KTA_RIGHT   || 
; 1750 : 		m_eSelectKeyType == CKeyInfo::KTA_ATTACK  || 
; 1751 : 		m_eSelectKeyType == CKeyInfo::KTA_DEFENSE || 
; 1752 : 		m_eSelectKeyType == CKeyInfo::KTA_JUMP    || 
; 1753 : 		m_eSelectKeyType == CKeyInfo::KTA_SECOND_ATTACK  || 
; 1754 : 		m_eSelectKeyType == CKeyInfo::KTA_SECOND_DEFENSE || 
; 1755 : 		m_eSelectKeyType == CKeyInfo::KTA_SECOND_JUMP )

  0007f	8b 9b 8c 01 00
	00		 mov	 ebx, DWORD PTR [ebx+396]
  00085	85 db		 test	 ebx, ebx
  00087	74 3c		 je	 SHORT $LN3@ShowKeyInp
  00089	83 fb 01	 cmp	 ebx, 1
  0008c	74 37		 je	 SHORT $LN3@ShowKeyInp
  0008e	83 fb 02	 cmp	 ebx, 2
  00091	74 32		 je	 SHORT $LN3@ShowKeyInp
  00093	83 fb 03	 cmp	 ebx, 3
  00096	74 2d		 je	 SHORT $LN3@ShowKeyInp
  00098	83 fb 04	 cmp	 ebx, 4
  0009b	74 28		 je	 SHORT $LN3@ShowKeyInp
  0009d	83 fb 05	 cmp	 ebx, 5
  000a0	74 23		 je	 SHORT $LN3@ShowKeyInp
  000a2	83 fb 06	 cmp	 ebx, 6
  000a5	74 1e		 je	 SHORT $LN3@ShowKeyInp
  000a7	83 fb 0b	 cmp	 ebx, 11			; 0000000bH
  000aa	74 19		 je	 SHORT $LN3@ShowKeyInp
  000ac	83 fb 0c	 cmp	 ebx, 12			; 0000000cH
  000af	74 14		 je	 SHORT $LN3@ShowKeyInp
  000b1	83 fb 0d	 cmp	 ebx, 13			; 0000000dH
  000b4	74 0f		 je	 SHORT $LN3@ShowKeyInp

; 1757 : 	else
; 1758 : 		pChild->RemoveWndStyle( IWS_EXACTIVE );

  000b6	68 00 10 00 00	 push	 4096			; 00001000H
  000bb	8b c8		 mov	 ecx, eax
  000bd	ff 15 00 00 00
	00		 call	 DWORD PTR __imp_?RemoveWndStyle@ioWnd@@QAEXK@Z
  000c3	eb 0d		 jmp	 SHORT $LN2@ShowKeyInp
$LN3@ShowKeyInp:

; 1756 : 		pChild->AddWndStyle( IWS_EXACTIVE );

  000c5	68 00 10 00 00	 push	 4096			; 00001000H
  000ca	8b c8		 mov	 ecx, eax
  000cc	ff 15 00 00 00
	00		 call	 DWORD PTR __imp_?AddWndStyle@ioWnd@@QAEXK@Z
$LN2@ShowKeyInp:

; 1759 : 	
; 1760 : 
; 1761 : 	ioUITitle *pTitle = pWnd->GetTitle();

  000d2	8b 4d 08	 mov	 ecx, DWORD PTR _pWnd$[ebp]
  000d5	ff 15 00 00 00
	00		 call	 DWORD PTR __imp_?GetTitle@ioWnd@@QBEPAVioUITitle@@XZ
  000db	8b f0		 mov	 esi, eax

; 1762 : 	if( !pTitle )

  000dd	85 f6		 test	 esi, esi
  000df	74 36		 je	 SHORT $LN8@ShowKeyInp

; 1763 : 		return;
; 1764 : 	
; 1765 : 	ioHashString sTitle;

  000e1	8d 4d e4	 lea	 ecx, DWORD PTR _sTitle$[ebp]
  000e4	ff 15 00 00 00
	00		 call	 DWORD PTR __imp_??0ioHashString@@QAE@XZ
  000ea	83 65 fc 00	 and	 DWORD PTR __$EHRec$[ebp+8], 0

; 1766 : 	pTitle->GetFirstText( sTitle );

  000ee	8d 45 e4	 lea	 eax, DWORD PTR _sTitle$[ebp]
  000f1	50		 push	 eax
  000f2	8b ce		 mov	 ecx, esi
  000f4	ff 15 00 00 00
	00		 call	 DWORD PTR __imp_?GetFirstText@ioUITitle@@QAEXAAVioHashString@@@Z

; 1767 : 	pKeyInput->SetCurKeyTitle( sTitle );

  000fa	8d 45 e4	 lea	 eax, DWORD PTR _sTitle$[ebp]
  000fd	50		 push	 eax
  000fe	8d 8f 64 01 00
	00		 lea	 ecx, DWORD PTR [edi+356]
  00104	ff 15 00 00 00
	00		 call	 DWORD PTR __imp_??4ioHashString@@QAEAAV0@ABV0@@Z

; 1768 : }

  0010a	83 4d fc ff	 or	 DWORD PTR __$EHRec$[ebp+8], -1
  0010e	8d 4d e4	 lea	 ecx, DWORD PTR _sTitle$[ebp]
  00111	ff 15 00 00 00
	00		 call	 DWORD PTR __imp_??1ioHashString@@QAE@XZ
$LN8@ShowKeyInp:
  00117	e8 00 00 00 00	 call	 __EH_epilog3
  0011c	c2 04 00	 ret	 4
_TEXT	ENDS
;	COMDAT text$x
text$x	SEGMENT
__unwindfunclet$?ShowKeyInputControlWnd@GameOptionSettingKeyTab@@IAEXPAVioWnd@@@Z$0:
  00000	8d 4d e4	 lea	 ecx, DWORD PTR _sTitle$[ebp]
  00003	ff 25 00 00 00
	00		 jmp	 DWORD PTR __imp_??1ioHashString@@QAE@XZ
__ehhandler$?ShowKeyInputControlWnd@GameOptionSettingKeyTab@@IAEXPAVioWnd@@@Z:
  00009	8b 54 24 08	 mov	 edx, DWORD PTR [esp+8]
  0000d	8d 42 0c	 lea	 eax, DWORD PTR [edx+12]
  00010	8b 4a e0	 mov	 ecx, DWORD PTR [edx-32]
  00013	33 c8		 xor	 ecx, eax
  00015	e8 00 00 00 00	 call	 @__security_check_cookie@4
  0001a	b8 00 00 00 00	 mov	 eax, OFFSET __ehfuncinfo$?ShowKeyInputControlWnd@GameOptionSettingKeyTab@@IAEXPAVioWnd@@@Z
  0001f	e9 00 00 00 00	 jmp	 ___CxxFrameHandler3
text$x	ENDS
?ShowKeyInputControlWnd@GameOptionSettingKeyTab@@IAEXPAVioWnd@@@Z ENDP ; GameOptionSettingKeyTab::ShowKeyInputControlWnd
PUBLIC	??_7MacroEdit@@6B@				; MacroEdit::`vftable'
PUBLIC	??0MacroEdit@@QAE@XZ				; MacroEdit::MacroEdit
PUBLIC	??_R4MacroEdit@@6B@				; MacroEdit::`RTTI Complete Object Locator'
PUBLIC	??_R0?AVMacroEdit@@@8				; MacroEdit `RTTI Type Descriptor'
PUBLIC	??_R3MacroEdit@@8				; MacroEdit::`RTTI Class Hierarchy Descriptor'
PUBLIC	??_R2MacroEdit@@8				; MacroEdit::`RTTI Base Class Array'
PUBLIC	??_R1A@?0A@EA@MacroEdit@@8			; MacroEdit::`RTTI Base Class Descriptor at (0,-1,0,64)'
PUBLIC	??_R1A@?0A@EA@ioEdit@@8				; ioEdit::`RTTI Base Class Descriptor at (0,-1,0,64)'
PUBLIC	??_R3ioEdit@@8					; ioEdit::`RTTI Class Hierarchy Descriptor'
PUBLIC	??_R2ioEdit@@8					; ioEdit::`RTTI Base Class Array'
PUBLIC	?OnRender@MacroEdit@@MAEXXZ			; MacroEdit::OnRender
EXTRN	__imp_??0ioEdit@@QAE@XZ:PROC
EXTRN	?ParseExtraInfo@ioEdit@@UAEXAAVioXMLElement@@@Z:PROC ; ioEdit::ParseExtraInfo
EXTRN	?OnProcess@ioEdit@@MAEXM@Z:PROC			; ioEdit::OnProcess
EXTRN	?iwm_create@ioEdit@@UAEXXZ:PROC			; ioEdit::iwm_create
EXTRN	?iwm_lbuttondown@ioEdit@@UAEXABVioMouse@@@Z:PROC ; ioEdit::iwm_lbuttondown
EXTRN	?GetWndType@ioEdit@@UBEKXZ:PROC			; ioEdit::GetWndType
EXTRN	?GetHeaderFileName@ioEdit@@UAEPBDXZ:PROC	; ioEdit::GetHeaderFileName
EXTRN	?GetTemplateName@ioEdit@@UAEPBDXZ:PROC		; ioEdit::GetTemplateName
EXTRN	?GetDefClassName@ioEdit@@UBEPBDXZ:PROC		; ioEdit::GetDefClassName
EXTRN	??_EMacroEdit@@UAEPAXI@Z:PROC			; MacroEdit::`vector deleting destructor'
EXTRN	?SetKeyFocus@ioEdit@@UAEXXZ:PROC		; ioEdit::SetKeyFocus
EXTRN	?KillKeyFocus@ioEdit@@UAEXXZ:PROC		; ioEdit::KillKeyFocus
;	COMDAT ??_R2ioEdit@@8
rdata$r	SEGMENT
??_R2ioEdit@@8 DD FLAT:??_R1A@?0A@EA@ioEdit@@8		; ioEdit::`RTTI Base Class Array'
	DD	FLAT:??_R1A@?0A@EA@ioWnd@@8
rdata$r	ENDS
;	COMDAT ??_R3ioEdit@@8
rdata$r	SEGMENT
??_R3ioEdit@@8 DD 00H					; ioEdit::`RTTI Class Hierarchy Descriptor'
	DD	00H
	DD	02H
	DD	FLAT:??_R2ioEdit@@8
rdata$r	ENDS
;	COMDAT ??_R1A@?0A@EA@ioEdit@@8
rdata$r	SEGMENT
??_R1A@?0A@EA@ioEdit@@8 DD FLAT:??_R0?AVioEdit@@@8	; ioEdit::`RTTI Base Class Descriptor at (0,-1,0,64)'
	DD	01H
	DD	00H
	DD	0ffffffffH
	DD	00H
	DD	040H
	DD	FLAT:??_R3ioEdit@@8
rdata$r	ENDS
;	COMDAT ??_R1A@?0A@EA@MacroEdit@@8
rdata$r	SEGMENT
??_R1A@?0A@EA@MacroEdit@@8 DD FLAT:??_R0?AVMacroEdit@@@8 ; MacroEdit::`RTTI Base Class Descriptor at (0,-1,0,64)'
	DD	02H
	DD	00H
	DD	0ffffffffH
	DD	00H
	DD	040H
	DD	FLAT:??_R3MacroEdit@@8
rdata$r	ENDS
;	COMDAT ??_R2MacroEdit@@8
rdata$r	SEGMENT
??_R2MacroEdit@@8 DD FLAT:??_R1A@?0A@EA@MacroEdit@@8	; MacroEdit::`RTTI Base Class Array'
	DD	FLAT:??_R1A@?0A@EA@ioEdit@@8
	DD	FLAT:??_R1A@?0A@EA@ioWnd@@8
rdata$r	ENDS
;	COMDAT ??_R3MacroEdit@@8
rdata$r	SEGMENT
??_R3MacroEdit@@8 DD 00H				; MacroEdit::`RTTI Class Hierarchy Descriptor'
	DD	00H
	DD	03H
	DD	FLAT:??_R2MacroEdit@@8
rdata$r	ENDS
;	COMDAT ??_R0?AVMacroEdit@@@8
_DATA	SEGMENT
??_R0?AVMacroEdit@@@8 DD FLAT:??_7type_info@@6B@	; MacroEdit `RTTI Type Descriptor'
	DD	00H
	DB	'.?AVMacroEdit@@', 00H
_DATA	ENDS
;	COMDAT ??_R4MacroEdit@@6B@
rdata$r	SEGMENT
??_R4MacroEdit@@6B@ DD 00H				; MacroEdit::`RTTI Complete Object Locator'
	DD	00H
	DD	00H
	DD	FLAT:??_R0?AVMacroEdit@@@8
	DD	FLAT:??_R3MacroEdit@@8
rdata$r	ENDS
;	COMDAT ??_7MacroEdit@@6B@
CONST	SEGMENT
??_7MacroEdit@@6B@ DD FLAT:??_R4MacroEdit@@6B@		; MacroEdit::`vftable'
	DD	FLAT:?AddRenderFrame@ioWnd@@UAEXABVioHashString@@PAVioUIRenderFrame@@@Z
	DD	FLAT:?AddRenderImage@ioWnd@@UAEXABVioHashString@@PAVioUIRenderImage@@@Z
	DD	FLAT:?AddTooltipHelp@ioWnd@@UAEXABVioHashString@@00@Z
	DD	FLAT:?ParseExtraInfo@ioEdit@@UAEXAAVioXMLElement@@@Z
	DD	FLAT:?AddNamedRenderImage@ioWnd@@UAEXABVioHashString@@PAVioUIRenderImage@@@Z
	DD	FLAT:?RemoveNamedRenderImage@ioWnd@@UAEXABVioHashString@@@Z
	DD	FLAT:?GetNamedRenderImage@ioWnd@@UBEPAVioUIRenderImage@@ABVioHashString@@@Z
	DD	FLAT:?SetWindowAlpha@ioWnd@@UAEXH@Z
	DD	FLAT:?SetActive@ioWnd@@UAEXXZ
	DD	FLAT:?SetInActive@ioWnd@@UAEXXZ
	DD	FLAT:?ClearElementImageList@ioWnd@@UAEXXZ
	DD	FLAT:?SetSize@ioWnd@@UAEXHH@Z
	DD	FLAT:?SetPositionToDefault@ioWnd@@UAEXHH_N0@Z
	DD	FLAT:?IsNeedProcess@ioWnd@@UBE_NXZ
	DD	FLAT:?IsCanMouseReaction@ioWnd@@UBE_NXZ
	DD	FLAT:?AddChild@ioWnd@@UAEXPAV1@@Z
	DD	FLAT:?DeleteChild@ioWnd@@UAEXK@Z
	DD	FLAT:?DeleteAllChild@ioWnd@@UAEXXZ
	DD	FLAT:?OnRenderShowAndHide@ioWnd@@MAE_NXZ
	DD	FLAT:?OnRenderShowAndHideByDefault@ioWnd@@MAE_NK@Z
	DD	FLAT:?OnRenderShowAndHideByTop@ioWnd@@MAE_NK@Z
	DD	FLAT:?OnRenderShowAndHideByDown@ioWnd@@MAE_NK@Z
	DD	FLAT:?OnRender@MacroEdit@@MAEXXZ
	DD	FLAT:?OnRenderAfterChild@ioWnd@@MAEXXZ
	DD	FLAT:?OnProcess@ioEdit@@MAEXM@Z
	DD	FLAT:?OnMouseProcess@ioWnd@@MAEXABVioMouse@@@Z
	DD	FLAT:?CheckFrameReSize@ioWnd@@MAEXHHHH@Z
	DD	FLAT:?RenderImageList@ioWnd@@MAEXHHW4UIRenderType@@@Z
	DD	FLAT:?iwm_create@ioEdit@@UAEXXZ
	DD	FLAT:?iwm_destroy@ioWnd@@UAEXXZ
	DD	FLAT:?iwm_lbuttondown@ioEdit@@UAEXABVioMouse@@@Z
	DD	FLAT:?iwm_lbuttonup@ioWnd@@UAEXABVioMouse@@@Z
	DD	FLAT:?iwm_lbuttonDBLCLK@ioWnd@@UAEXABVioMouse@@@Z
	DD	FLAT:?iwm_rbuttondown@ioWnd@@UAEXABVioMouse@@@Z
	DD	FLAT:?iwm_rbuttonup@ioWnd@@UAEXABVioMouse@@@Z
	DD	FLAT:?iwm_command@ioWnd@@UAEXPAV1@HK@Z
	DD	FLAT:?iwm_mouseover@ioWnd@@UAEXABVioMouse@@@Z
	DD	FLAT:?iwm_mousemove@ioWnd@@UAEXABVioMouse@@@Z
	DD	FLAT:?iwm_mouseleave@ioWnd@@UAEXABVioMouse@@@Z
	DD	FLAT:?iwm_vscroll@ioWnd@@UAEXKH@Z
	DD	FLAT:?iwm_wheel@ioWnd@@UAEXH@Z
	DD	FLAT:?iwm_show@ioWnd@@UAEXXZ
	DD	FLAT:?iwm_hide@ioWnd@@UAEXXZ
	DD	FLAT:?iwm_esc@ioWnd@@UAE_NXZ
	DD	FLAT:?iwm_spacebar@ioWnd@@UAE_NXZ
	DD	FLAT:?iwm_gototop@ioWnd@@UAEXXZ
	DD	FLAT:?iwm_dragenter@ioWnd@@UAE?AW4IWDropEffect@@PAVioDragItem@@ABVioMouse@@@Z
	DD	FLAT:?iwm_dragover@ioWnd@@UAE?AW4IWDropEffect@@PAVioDragItem@@ABVioMouse@@@Z
	DD	FLAT:?iwm_dragleave@ioWnd@@UAEXXZ
	DD	FLAT:?iwm_dropitem@ioWnd@@UAE_NPAVioDragItem@@ABVioMouse@@PAV1@@Z
	DD	FLAT:?iwm_dropdone@ioWnd@@UAEXPAVioDragItem@@PAV1@_N@Z
	DD	FLAT:?IsEXType@ioWnd@@UBE_NXZ
	DD	FLAT:?GetWndType@ioEdit@@UBEKXZ
	DD	FLAT:?RenderWnd@ioWnd@@UAEXXZ
	DD	FLAT:?SetIDEX@ioWnd@@UAEXAAK_N@Z
	DD	FLAT:?ParseXML@ioWnd@@UAEXAAVioXMLElement@@@Z
	DD	FLAT:?GetHeaderFileName@ioEdit@@UAEPBDXZ
	DD	FLAT:?GetTemplateName@ioEdit@@UAEPBDXZ
	DD	FLAT:?GetDefClassName@ioEdit@@UBEPBDXZ
	DD	FLAT:?_Clone@ioWnd@@UAEPAV1@XZ
	DD	FLAT:?Copy@ioWnd@@UAEXPAV1@@Z
	DD	FLAT:?Save@ioWnd@@UAE_NAAVioXMLElement@@@Z
	DD	FLAT:?SetSaveData@ioWnd@@UAEXAAVioXMLElement@@@Z
	DD	FLAT:?SetPosX@ioWnd@@UAEXH@Z
	DD	FLAT:?SetPosY@ioWnd@@UAEXH@Z
	DD	FLAT:?SetWidth@ioWnd@@UAEXH@Z
	DD	FLAT:?SetHeight@ioWnd@@UAEXH@Z
	DD	FLAT:?GetNumFixedRenderFrame@ioWnd@@UBEHXZ
	DD	FLAT:?GetFixedRenderFrameType@ioWnd@@UAEPBDH@Z
	DD	FLAT:?GetRenderFrame@ioWnd@@UAEPAPAVioUIRenderElement@@PBD@Z
	DD	FLAT:?GetNumFixedRenderImage@ioWnd@@UBEHXZ
	DD	FLAT:?GetFixedRenderImageType@ioWnd@@UAEPBDH@Z
	DD	FLAT:?GetRenderImage@ioWnd@@UAEPAPAVioUIRenderElement@@PBD@Z
	DD	FLAT:?AddEffect@ioWnd@@UAEXABVioHashString@@PAVioUI3DEffectRender@@@Z
	DD	FLAT:?GetEffect@ioWnd@@UAEPAVioUI3DEffectRender@@VioHashString@@@Z
	DD	FLAT:??_EMacroEdit@@UAEPAXI@Z
	DD	FLAT:?SetKeyFocus@ioEdit@@UAEXXZ
	DD	FLAT:?KillKeyFocus@ioEdit@@UAEXXZ
; Function compile flags: /Ogsp
CONST	ENDS
;	COMDAT ??0MacroEdit@@QAE@XZ
_TEXT	SEGMENT
??0MacroEdit@@QAE@XZ PROC				; MacroEdit::MacroEdit, COMDAT
; _this$ = ecx

; 1771 : {

  00000	56		 push	 esi
  00001	8b f1		 mov	 esi, ecx
  00003	ff 15 00 00 00
	00		 call	 DWORD PTR __imp_??0ioEdit@@QAE@XZ
  00009	c7 06 00 00 00
	00		 mov	 DWORD PTR [esi], OFFSET ??_7MacroEdit@@6B@

; 1772 : 
; 1773 : }

  0000f	8b c6		 mov	 eax, esi
  00011	5e		 pop	 esi
  00012	c3		 ret	 0
??0MacroEdit@@QAE@XZ ENDP				; MacroEdit::MacroEdit
_TEXT	ENDS
PUBLIC	??1MacroEdit@@UAE@XZ				; MacroEdit::~MacroEdit
EXTRN	__imp_??1ioEdit@@UAE@XZ:PROC
; Function compile flags: /Ogsp
;	COMDAT ??1MacroEdit@@UAE@XZ
_TEXT	SEGMENT
??1MacroEdit@@UAE@XZ PROC				; MacroEdit::~MacroEdit, COMDAT
; _this$ = ecx

; 1776 : {

  00000	c7 01 00 00 00
	00		 mov	 DWORD PTR [ecx], OFFSET ??_7MacroEdit@@6B@

; 1777 : 
; 1778 : }

  00006	ff 25 00 00 00
	00		 jmp	 DWORD PTR __imp_??1ioEdit@@UAE@XZ
??1MacroEdit@@UAE@XZ ENDP				; MacroEdit::~MacroEdit
_TEXT	ENDS
EXTRN	__imp_?OnRender@ioEdit@@MAEXXZ:PROC
; Function compile flags: /Ogsp
;	COMDAT ?OnRender@MacroEdit@@MAEXXZ
_TEXT	SEGMENT
?OnRender@MacroEdit@@MAEXXZ PROC			; MacroEdit::OnRender, COMDAT
; _this$ = ecx

; 1781 : {

  00000	56		 push	 esi
  00001	8b f1		 mov	 esi, ecx

; 1782 : 	ioWnd::OnRender();

  00003	ff 15 00 00 00
	00		 call	 DWORD PTR __imp_?OnRender@ioWnd@@MAEXXZ

; 1783 : 	ioEdit::OnRender();

  00009	8b ce		 mov	 ecx, esi
  0000b	5e		 pop	 esi
  0000c	ff 25 00 00 00
	00		 jmp	 DWORD PTR __imp_?OnRender@ioEdit@@MAEXXZ
?OnRender@MacroEdit@@MAEXXZ ENDP			; MacroEdit::OnRender
_TEXT	ENDS
PUBLIC	??_7SettingMacroItemBtn@@6B@			; SettingMacroItemBtn::`vftable'
PUBLIC	??0SettingMacroItemBtn@@QAE@XZ			; SettingMacroItemBtn::SettingMacroItemBtn
PUBLIC	??_R4SettingMacroItemBtn@@6B@			; SettingMacroItemBtn::`RTTI Complete Object Locator'
PUBLIC	??_R0?AVSettingMacroItemBtn@@@8			; SettingMacroItemBtn `RTTI Type Descriptor'
PUBLIC	??_R3SettingMacroItemBtn@@8			; SettingMacroItemBtn::`RTTI Class Hierarchy Descriptor'
PUBLIC	??_R2SettingMacroItemBtn@@8			; SettingMacroItemBtn::`RTTI Base Class Array'
PUBLIC	??_R1A@?0A@EA@SettingMacroItemBtn@@8		; SettingMacroItemBtn::`RTTI Base Class Descriptor at (0,-1,0,64)'
PUBLIC	?OnRender@SettingMacroItemBtn@@MAEXXZ		; SettingMacroItemBtn::OnRender
EXTRN	??_ESettingMacroItemBtn@@UAEPAXI@Z:PROC		; SettingMacroItemBtn::`vector deleting destructor'
;	COMDAT ??_R1A@?0A@EA@SettingMacroItemBtn@@8
rdata$r	SEGMENT
??_R1A@?0A@EA@SettingMacroItemBtn@@8 DD FLAT:??_R0?AVSettingMacroItemBtn@@@8 ; SettingMacroItemBtn::`RTTI Base Class Descriptor at (0,-1,0,64)'
	DD	02H
	DD	00H
	DD	0ffffffffH
	DD	00H
	DD	040H
	DD	FLAT:??_R3SettingMacroItemBtn@@8
rdata$r	ENDS
;	COMDAT ??_R2SettingMacroItemBtn@@8
rdata$r	SEGMENT
??_R2SettingMacroItemBtn@@8 DD FLAT:??_R1A@?0A@EA@SettingMacroItemBtn@@8 ; SettingMacroItemBtn::`RTTI Base Class Array'
	DD	FLAT:??_R1A@?0A@EA@ioButton@@8
	DD	FLAT:??_R1A@?0A@EA@ioWnd@@8
rdata$r	ENDS
;	COMDAT ??_R3SettingMacroItemBtn@@8
rdata$r	SEGMENT
??_R3SettingMacroItemBtn@@8 DD 00H			; SettingMacroItemBtn::`RTTI Class Hierarchy Descriptor'
	DD	00H
	DD	03H
	DD	FLAT:??_R2SettingMacroItemBtn@@8
rdata$r	ENDS
;	COMDAT ??_R0?AVSettingMacroItemBtn@@@8
_DATA	SEGMENT
??_R0?AVSettingMacroItemBtn@@@8 DD FLAT:??_7type_info@@6B@ ; SettingMacroItemBtn `RTTI Type Descriptor'
	DD	00H
	DB	'.?AVSettingMacroItemBtn@@', 00H
_DATA	ENDS
;	COMDAT ??_R4SettingMacroItemBtn@@6B@
rdata$r	SEGMENT
??_R4SettingMacroItemBtn@@6B@ DD 00H			; SettingMacroItemBtn::`RTTI Complete Object Locator'
	DD	00H
	DD	00H
	DD	FLAT:??_R0?AVSettingMacroItemBtn@@@8
	DD	FLAT:??_R3SettingMacroItemBtn@@8
rdata$r	ENDS
;	COMDAT ??_7SettingMacroItemBtn@@6B@
CONST	SEGMENT
??_7SettingMacroItemBtn@@6B@ DD FLAT:??_R4SettingMacroItemBtn@@6B@ ; SettingMacroItemBtn::`vftable'
	DD	FLAT:?AddRenderFrame@ioButton@@UAEXABVioHashString@@PAVioUIRenderFrame@@@Z
	DD	FLAT:?AddRenderImage@ioButton@@UAEXABVioHashString@@PAVioUIRenderImage@@@Z
	DD	FLAT:?AddTooltipHelp@ioWnd@@UAEXABVioHashString@@00@Z
	DD	FLAT:?ParseExtraInfo@ioButton@@UAEXAAVioXMLElement@@@Z
	DD	FLAT:?AddNamedRenderImage@ioWnd@@UAEXABVioHashString@@PAVioUIRenderImage@@@Z
	DD	FLAT:?RemoveNamedRenderImage@ioWnd@@UAEXABVioHashString@@@Z
	DD	FLAT:?GetNamedRenderImage@ioWnd@@UBEPAVioUIRenderImage@@ABVioHashString@@@Z
	DD	FLAT:?SetWindowAlpha@ioButton@@UAEXH@Z
	DD	FLAT:?SetActive@ioWnd@@UAEXXZ
	DD	FLAT:?SetInActive@ioWnd@@UAEXXZ
	DD	FLAT:?ClearElementImageList@ioWnd@@UAEXXZ
	DD	FLAT:?SetSize@ioWnd@@UAEXHH@Z
	DD	FLAT:?SetPositionToDefault@ioWnd@@UAEXHH_N0@Z
	DD	FLAT:?IsNeedProcess@ioWnd@@UBE_NXZ
	DD	FLAT:?IsCanMouseReaction@ioWnd@@UBE_NXZ
	DD	FLAT:?AddChild@ioWnd@@UAEXPAV1@@Z
	DD	FLAT:?DeleteChild@ioWnd@@UAEXK@Z
	DD	FLAT:?DeleteAllChild@ioWnd@@UAEXXZ
	DD	FLAT:?OnRenderShowAndHide@ioWnd@@MAE_NXZ
	DD	FLAT:?OnRenderShowAndHideByDefault@ioWnd@@MAE_NK@Z
	DD	FLAT:?OnRenderShowAndHideByTop@ioWnd@@MAE_NK@Z
	DD	FLAT:?OnRenderShowAndHideByDown@ioWnd@@MAE_NK@Z
	DD	FLAT:?OnRender@SettingMacroItemBtn@@MAEXXZ
	DD	FLAT:?OnRenderAfterChild@ioWnd@@MAEXXZ
	DD	FLAT:?OnProcess@ioWnd@@MAEXM@Z
	DD	FLAT:?OnMouseProcess@ioWnd@@MAEXABVioMouse@@@Z
	DD	FLAT:?CheckFrameReSize@ioButton@@MAEXHHHH@Z
	DD	FLAT:?RenderImageList@ioWnd@@MAEXHHW4UIRenderType@@@Z
	DD	FLAT:?iwm_create@ioWnd@@UAEXXZ
	DD	FLAT:?iwm_destroy@ioWnd@@UAEXXZ
	DD	FLAT:?iwm_lbuttondown@ioButton@@UAEXABVioMouse@@@Z
	DD	FLAT:?iwm_lbuttonup@ioButton@@UAEXABVioMouse@@@Z
	DD	FLAT:?iwm_lbuttonDBLCLK@ioButton@@UAEXABVioMouse@@@Z
	DD	FLAT:?iwm_rbuttondown@ioButton@@UAEXABVioMouse@@@Z
	DD	FLAT:?iwm_rbuttonup@ioButton@@UAEXABVioMouse@@@Z
	DD	FLAT:?iwm_command@ioWnd@@UAEXPAV1@HK@Z
	DD	FLAT:?iwm_mouseover@ioButton@@UAEXABVioMouse@@@Z
	DD	FLAT:?iwm_mousemove@ioWnd@@UAEXABVioMouse@@@Z
	DD	FLAT:?iwm_mouseleave@ioWnd@@UAEXABVioMouse@@@Z
	DD	FLAT:?iwm_vscroll@ioWnd@@UAEXKH@Z
	DD	FLAT:?iwm_wheel@ioWnd@@UAEXH@Z
	DD	FLAT:?iwm_show@ioWnd@@UAEXXZ
	DD	FLAT:?iwm_hide@ioWnd@@UAEXXZ
	DD	FLAT:?iwm_esc@ioWnd@@UAE_NXZ
	DD	FLAT:?iwm_spacebar@ioWnd@@UAE_NXZ
	DD	FLAT:?iwm_gototop@ioWnd@@UAEXXZ
	DD	FLAT:?iwm_dragenter@ioWnd@@UAE?AW4IWDropEffect@@PAVioDragItem@@ABVioMouse@@@Z
	DD	FLAT:?iwm_dragover@ioWnd@@UAE?AW4IWDropEffect@@PAVioDragItem@@ABVioMouse@@@Z
	DD	FLAT:?iwm_dragleave@ioWnd@@UAEXXZ
	DD	FLAT:?iwm_dropitem@ioWnd@@UAE_NPAVioDragItem@@ABVioMouse@@PAV1@@Z
	DD	FLAT:?iwm_dropdone@ioWnd@@UAEXPAVioDragItem@@PAV1@_N@Z
	DD	FLAT:?IsEXType@ioWnd@@UBE_NXZ
	DD	FLAT:?GetWndType@ioButton@@UBEKXZ
	DD	FLAT:?RenderWnd@ioWnd@@UAEXXZ
	DD	FLAT:?SetIDEX@ioWnd@@UAEXAAK_N@Z
	DD	FLAT:?ParseXML@ioWnd@@UAEXAAVioXMLElement@@@Z
	DD	FLAT:?GetHeaderFileName@ioButton@@UAEPBDXZ
	DD	FLAT:?GetTemplateName@ioButton@@UAEPBDXZ
	DD	FLAT:?GetDefClassName@ioButton@@UBEPBDXZ
	DD	FLAT:?_Clone@ioButton@@UAEPAVioWnd@@XZ
	DD	FLAT:?Copy@ioButton@@UAEXPAVioWnd@@@Z
	DD	FLAT:?Save@ioWnd@@UAE_NAAVioXMLElement@@@Z
	DD	FLAT:?SetSaveData@ioButton@@UAEXAAVioXMLElement@@@Z
	DD	FLAT:?SetPosX@ioWnd@@UAEXH@Z
	DD	FLAT:?SetPosY@ioWnd@@UAEXH@Z
	DD	FLAT:?SetWidth@ioWnd@@UAEXH@Z
	DD	FLAT:?SetHeight@ioWnd@@UAEXH@Z
	DD	FLAT:?GetNumFixedRenderFrame@ioButton@@UBEHXZ
	DD	FLAT:?GetFixedRenderFrameType@ioButton@@UAEPBDH@Z
	DD	FLAT:?GetRenderFrame@ioButton@@UAEPAPAVioUIRenderElement@@PBD@Z
	DD	FLAT:?GetNumFixedRenderImage@ioButton@@UBEHXZ
	DD	FLAT:?GetFixedRenderImageType@ioButton@@UAEPBDH@Z
	DD	FLAT:?GetRenderImage@ioButton@@UAEPAPAVioUIRenderElement@@PBD@Z
	DD	FLAT:?AddEffect@ioWnd@@UAEXABVioHashString@@PAVioUI3DEffectRender@@@Z
	DD	FLAT:?GetEffect@ioWnd@@UAEPAVioUI3DEffectRender@@VioHashString@@@Z
	DD	FLAT:??_ESettingMacroItemBtn@@UAEPAXI@Z
	DD	FLAT:?OnDrawNormal@ioButton@@MAEXHH@Z
	DD	FLAT:?OnDrawOvered@ioButton@@MAEXHH@Z
	DD	FLAT:?OnDrawOveredAdd@ioButton@@MAEXHH@Z
	DD	FLAT:?OnDrawPushed@ioButton@@MAEXHH@Z
	DD	FLAT:?OnDrawDisabled@ioButton@@MAEXHH@Z
	DD	FLAT:?OnDrawExDisabledNormal@ioButton@@MAEXHH@Z
	DD	FLAT:?OnDrawExDisabledOvered@ioButton@@MAEXHH@Z
	DD	FLAT:?OnDrawExDisabledPushed@ioButton@@MAEXHH@Z
	DD	FLAT:?OnDrawBack@ioButton@@MAEXHH@Z
	DD	FLAT:?OnDrawNormalList@ioButton@@MAEXHH@Z
	DD	FLAT:?OnDrawDisableList@ioButton@@MAEXHH@Z
CONST	ENDS
;	COMDAT xdata$x
xdata$x	SEGMENT
__unwindtable$??0SettingMacroItemBtn@@QAE@XZ DD 0ffffffffH
	DD	FLAT:__unwindfunclet$??0SettingMacroItemBtn@@QAE@XZ$0
__ehfuncinfo$??0SettingMacroItemBtn@@QAE@XZ DD 019930522H
	DD	01H
	DD	FLAT:__unwindtable$??0SettingMacroItemBtn@@QAE@XZ
	DD	2 DUP(00H)
	DD	2 DUP(00H)
	DD	00H
	DD	01H
; Function compile flags: /Ogsp
xdata$x	ENDS
;	COMDAT ??0SettingMacroItemBtn@@QAE@XZ
_TEXT	SEGMENT
_this$ = -16						; size = 4
__$EHRec$ = -12						; size = 12
??0SettingMacroItemBtn@@QAE@XZ PROC			; SettingMacroItemBtn::SettingMacroItemBtn, COMDAT
; _this$ = ecx

; 1787 : {

  00000	6a 04		 push	 4
  00002	b8 00 00 00 00	 mov	 eax, __ehhandler$??0SettingMacroItemBtn@@QAE@XZ
  00007	e8 00 00 00 00	 call	 __EH_prolog3
  0000c	8b f1		 mov	 esi, ecx
  0000e	89 75 f0	 mov	 DWORD PTR _this$[ebp], esi
  00011	ff 15 00 00 00
	00		 call	 DWORD PTR __imp_??0ioButton@@QAE@XZ
  00017	83 65 fc 00	 and	 DWORD PTR __$EHRec$[ebp+8], 0
  0001b	8d 8e fc 01 00
	00		 lea	 ecx, DWORD PTR [esi+508]
  00021	c7 06 00 00 00
	00		 mov	 DWORD PTR [esi], OFFSET ??_7SettingMacroItemBtn@@6B@
  00027	ff 15 00 00 00
	00		 call	 DWORD PTR __imp_??0ioHashString@@QAE@XZ

; 1788 : 
; 1789 : }

  0002d	8b c6		 mov	 eax, esi
  0002f	e8 00 00 00 00	 call	 __EH_epilog3
  00034	c3		 ret	 0
_TEXT	ENDS
;	COMDAT text$x
text$x	SEGMENT
__unwindfunclet$??0SettingMacroItemBtn@@QAE@XZ$0:
  00000	8b 4d f0	 mov	 ecx, DWORD PTR _this$[ebp]
  00003	ff 25 00 00 00
	00		 jmp	 DWORD PTR __imp_??1ioButton@@UAE@XZ
__ehhandler$??0SettingMacroItemBtn@@QAE@XZ:
  00009	8b 54 24 08	 mov	 edx, DWORD PTR [esp+8]
  0000d	8d 42 0c	 lea	 eax, DWORD PTR [edx+12]
  00010	8b 4a ec	 mov	 ecx, DWORD PTR [edx-20]
  00013	33 c8		 xor	 ecx, eax
  00015	e8 00 00 00 00	 call	 @__security_check_cookie@4
  0001a	b8 00 00 00 00	 mov	 eax, OFFSET __ehfuncinfo$??0SettingMacroItemBtn@@QAE@XZ
  0001f	e9 00 00 00 00	 jmp	 ___CxxFrameHandler3
text$x	ENDS
??0SettingMacroItemBtn@@QAE@XZ ENDP			; SettingMacroItemBtn::SettingMacroItemBtn
PUBLIC	??1SettingMacroItemBtn@@UAE@XZ			; SettingMacroItemBtn::~SettingMacroItemBtn
;	COMDAT xdata$x
xdata$x	SEGMENT
__unwindtable$??1SettingMacroItemBtn@@UAE@XZ DD 0ffffffffH
	DD	FLAT:__unwindfunclet$??1SettingMacroItemBtn@@UAE@XZ$0
__ehfuncinfo$??1SettingMacroItemBtn@@UAE@XZ DD 019930522H
	DD	01H
	DD	FLAT:__unwindtable$??1SettingMacroItemBtn@@UAE@XZ
	DD	2 DUP(00H)
	DD	2 DUP(00H)
	DD	00H
	DD	01H
; Function compile flags: /Ogsp
xdata$x	ENDS
;	COMDAT ??1SettingMacroItemBtn@@UAE@XZ
_TEXT	SEGMENT
_this$ = -16						; size = 4
__$EHRec$ = -12						; size = 12
??1SettingMacroItemBtn@@UAE@XZ PROC			; SettingMacroItemBtn::~SettingMacroItemBtn, COMDAT
; _this$ = ecx

; 1792 : {

  00000	6a 04		 push	 4
  00002	b8 00 00 00 00	 mov	 eax, __ehhandler$??1SettingMacroItemBtn@@UAE@XZ
  00007	e8 00 00 00 00	 call	 __EH_prolog3
  0000c	8b f1		 mov	 esi, ecx
  0000e	89 75 f0	 mov	 DWORD PTR _this$[ebp], esi
  00011	c7 06 00 00 00
	00		 mov	 DWORD PTR [esi], OFFSET ??_7SettingMacroItemBtn@@6B@
  00017	83 65 fc 00	 and	 DWORD PTR __$EHRec$[ebp+8], 0

; 1793 : 
; 1794 : }

  0001b	8d 8e fc 01 00
	00		 lea	 ecx, DWORD PTR [esi+508]
  00021	ff 15 00 00 00
	00		 call	 DWORD PTR __imp_??1ioHashString@@QAE@XZ
  00027	83 4d fc ff	 or	 DWORD PTR __$EHRec$[ebp+8], -1
  0002b	8b ce		 mov	 ecx, esi
  0002d	ff 15 00 00 00
	00		 call	 DWORD PTR __imp_??1ioButton@@UAE@XZ
  00033	e8 00 00 00 00	 call	 __EH_epilog3
  00038	c3		 ret	 0
_TEXT	ENDS
;	COMDAT text$x
text$x	SEGMENT
__unwindfunclet$??1SettingMacroItemBtn@@UAE@XZ$0:
  00000	8b 4d f0	 mov	 ecx, DWORD PTR _this$[ebp]
  00003	ff 25 00 00 00
	00		 jmp	 DWORD PTR __imp_??1ioButton@@UAE@XZ
__ehhandler$??1SettingMacroItemBtn@@UAE@XZ:
  00009	8b 54 24 08	 mov	 edx, DWORD PTR [esp+8]
  0000d	8d 42 0c	 lea	 eax, DWORD PTR [edx+12]
  00010	8b 4a ec	 mov	 ecx, DWORD PTR [edx-20]
  00013	33 c8		 xor	 ecx, eax
  00015	e8 00 00 00 00	 call	 @__security_check_cookie@4
  0001a	b8 00 00 00 00	 mov	 eax, OFFSET __ehfuncinfo$??1SettingMacroItemBtn@@UAE@XZ
  0001f	e9 00 00 00 00	 jmp	 ___CxxFrameHandler3
text$x	ENDS
??1SettingMacroItemBtn@@UAE@XZ ENDP			; SettingMacroItemBtn::~SettingMacroItemBtn
PUBLIC	??_C@_01DNKMNLPK@?$HM?$AA@			; `string'
PUBLIC	__real@3f19999a
EXTRN	__imp_?OnRender@ioButton@@MAEXXZ:PROC
;	COMDAT ??_C@_01DNKMNLPK@?$HM?$AA@
CONST	SEGMENT
??_C@_01DNKMNLPK@?$HM?$AA@ DB '|', 00H			; `string'
CONST	ENDS
;	COMDAT __real@3f19999a
CONST	SEGMENT
__real@3f19999a DD 03f19999ar			; 0.6
; Function compile flags: /Ogsp
CONST	ENDS
;	COMDAT ?OnRender@SettingMacroItemBtn@@MAEXXZ
_TEXT	SEGMENT
_iXPos$ = -8						; size = 4
tv162 = -4						; size = 4
_iYPos$ = -4						; size = 4
?OnRender@SettingMacroItemBtn@@MAEXXZ PROC		; SettingMacroItemBtn::OnRender, COMDAT
; _this$ = ecx

; 1797 : {

  00000	55		 push	 ebp
  00001	8b ec		 mov	 ebp, esp
  00003	51		 push	 ecx
  00004	51		 push	 ecx
  00005	53		 push	 ebx
  00006	56		 push	 esi
  00007	57		 push	 edi
  00008	8b d9		 mov	 ebx, ecx

; 1798 : 	ioButton::OnRender();

  0000a	ff 15 00 00 00
	00		 call	 DWORD PTR __imp_?OnRender@ioButton@@MAEXXZ

; 1799 : 
; 1800 : 	int iXPos = GetDerivedPosX();

  00010	8b cb		 mov	 ecx, ebx
  00012	ff 15 00 00 00
	00		 call	 DWORD PTR __imp_?GetDerivedPosX@ioWnd@@QBEHXZ

; 1801 : 	int iYPos = GetDerivedPosY();

  00018	8b cb		 mov	 ecx, ebx
  0001a	89 45 f8	 mov	 DWORD PTR _iXPos$[ebp], eax
  0001d	ff 15 00 00 00
	00		 call	 DWORD PTR __imp_?GetDerivedPosY@ioWnd@@QBEHXZ

; 1802 : 
; 1803 : 	g_FontMgr.SetAlignType( TAT_CENTER );

  00023	8b 35 00 00 00
	00		 mov	 esi, DWORD PTR __imp_?GetSingleton@ioFontManager@@SAAAV1@XZ
  00029	6a 01		 push	 1
  0002b	89 45 fc	 mov	 DWORD PTR _iYPos$[ebp], eax
  0002e	ff d6		 call	 esi
  00030	8b c8		 mov	 ecx, eax
  00032	ff 15 00 00 00
	00		 call	 DWORD PTR __imp_?SetAlignType@ioFontManager@@QAEXW4TextAlignType@@@Z

; 1804 : 	g_FontMgr.SetTextStyle( TS_NORMAL );

  00038	33 ff		 xor	 edi, edi
  0003a	57		 push	 edi
  0003b	ff d6		 call	 esi
  0003d	8b c8		 mov	 ecx, eax
  0003f	ff 15 00 00 00
	00		 call	 DWORD PTR __imp_?SetTextStyle@ioFontManager@@QAEXW4TextStyle@@@Z

; 1805 : 	g_FontMgr.SetBkColor( 0, 0, 0 );

  00045	57		 push	 edi
  00046	57		 push	 edi
  00047	57		 push	 edi
  00048	ff d6		 call	 esi
  0004a	8b c8		 mov	 ecx, eax
  0004c	ff 15 00 00 00
	00		 call	 DWORD PTR __imp_?SetBkColor@ioFontManager@@QAEXHHH@Z

; 1806 : 	g_FontMgr.SetTextColor( TCT_DEFAULT_GRAY );

  00052	68 6e 6e 6e ff	 push	 -9539986		; ff6e6e6eH
  00057	ff d6		 call	 esi
  00059	8b 3d 00 00 00
	00		 mov	 edi, DWORD PTR __imp_?SetTextColor@ioFontManager@@QAEXK@Z
  0005f	8b c8		 mov	 ecx, eax
  00061	ff d7		 call	 edi

; 1807 : 	g_FontMgr.PrintText( iXPos + 20, iYPos + 4, FONT_SIZE_12, m_szKeyText.c_str() );

  00063	8b 45 fc	 mov	 eax, DWORD PTR _iYPos$[ebp]
  00066	83 c0 04	 add	 eax, 4
  00069	0f 57 c0	 xorps	 xmm0, xmm0
  0006c	f3 0f 2a c0	 cvtsi2ss xmm0, eax
  00070	8d 8b fc 01 00
	00		 lea	 ecx, DWORD PTR [ebx+508]
  00076	f3 0f 11 45 fc	 movss	 DWORD PTR tv162[ebp], xmm0
  0007b	ff 15 00 00 00
	00		 call	 DWORD PTR __imp_?c_str@ioHashString@@QBEPBDXZ
  00081	f3 0f 10 05 00
	00 00 00	 movss	 xmm0, DWORD PTR __real@3f19999a
  00089	50		 push	 eax
  0008a	8b 45 f8	 mov	 eax, DWORD PTR _iXPos$[ebp]
  0008d	83 ec 0c	 sub	 esp, 12			; 0000000cH
  00090	f3 0f 11 44 24
	08		 movss	 DWORD PTR [esp+8], xmm0
  00096	f3 0f 10 45 fc	 movss	 xmm0, DWORD PTR tv162[ebp]
  0009b	f3 0f 11 44 24
	04		 movss	 DWORD PTR [esp+4], xmm0
  000a1	83 c0 14	 add	 eax, 20			; 00000014H
  000a4	0f 57 c0	 xorps	 xmm0, xmm0
  000a7	f3 0f 2a c0	 cvtsi2ss xmm0, eax
  000ab	f3 0f 11 04 24	 movss	 DWORD PTR [esp], xmm0
  000b0	ff d6		 call	 esi
  000b2	8b 1d 00 00 00
	00		 mov	 ebx, DWORD PTR __imp_?PrintText@ioFontManager@@QAAXMMMPBDZZ
  000b8	50		 push	 eax
  000b9	ff d3		 call	 ebx
  000bb	83 c4 14	 add	 esp, 20			; 00000014H

; 1808 : 	g_FontMgr.SetTextColor( TCT_DEFAULT_LIGHTGRAY );

  000be	68 a7 a7 a7 ff	 push	 -5789785		; ffa7a7a7H
  000c3	ff d6		 call	 esi
  000c5	8b c8		 mov	 ecx, eax
  000c7	ff d7		 call	 edi

; 1809 : 	g_FontMgr.PrintText( iXPos + 38, iYPos + 4, FONT_SIZE_12, "|" );

  000c9	f3 0f 10 05 00
	00 00 00	 movss	 xmm0, DWORD PTR __real@3f19999a
  000d1	8b 45 f8	 mov	 eax, DWORD PTR _iXPos$[ebp]
  000d4	68 00 00 00 00	 push	 OFFSET ??_C@_01DNKMNLPK@?$HM?$AA@
  000d9	83 ec 0c	 sub	 esp, 12			; 0000000cH
  000dc	f3 0f 11 44 24
	08		 movss	 DWORD PTR [esp+8], xmm0
  000e2	f3 0f 10 45 fc	 movss	 xmm0, DWORD PTR tv162[ebp]
  000e7	f3 0f 11 44 24
	04		 movss	 DWORD PTR [esp+4], xmm0
  000ed	83 c0 26	 add	 eax, 38			; 00000026H
  000f0	0f 57 c0	 xorps	 xmm0, xmm0
  000f3	f3 0f 2a c0	 cvtsi2ss xmm0, eax
  000f7	f3 0f 11 04 24	 movss	 DWORD PTR [esp], xmm0
  000fc	ff d6		 call	 esi
  000fe	50		 push	 eax
  000ff	ff d3		 call	 ebx
  00101	83 c4 14	 add	 esp, 20			; 00000014H
  00104	5f		 pop	 edi
  00105	5e		 pop	 esi
  00106	5b		 pop	 ebx

; 1810 : }

  00107	c9		 leave
  00108	c3		 ret	 0
?OnRender@SettingMacroItemBtn@@MAEXXZ ENDP		; SettingMacroItemBtn::OnRender
_TEXT	ENDS
PUBLIC	??_C@_0CJ@PIHNDKBA@SettingMacroItemWnd?3?3SettingMacr@ ; `string'
PUBLIC	??_7SettingMacroItemWnd@@6B@			; SettingMacroItemWnd::`vftable'
PUBLIC	??0SettingMacroItemWnd@@QAE@XZ			; SettingMacroItemWnd::SettingMacroItemWnd
PUBLIC	??_R4SettingMacroItemWnd@@6B@			; SettingMacroItemWnd::`RTTI Complete Object Locator'
PUBLIC	??_R0?AVSettingMacroItemWnd@@@8			; SettingMacroItemWnd `RTTI Type Descriptor'
PUBLIC	??_R3SettingMacroItemWnd@@8			; SettingMacroItemWnd::`RTTI Class Hierarchy Descriptor'
PUBLIC	??_R2SettingMacroItemWnd@@8			; SettingMacroItemWnd::`RTTI Base Class Array'
PUBLIC	??_R1A@?0A@EA@SettingMacroItemWnd@@8		; SettingMacroItemWnd::`RTTI Base Class Descriptor at (0,-1,0,64)'
PUBLIC	?iwm_command@SettingMacroItemWnd@@MAEXPAVioWnd@@HK@Z ; SettingMacroItemWnd::iwm_command
PUBLIC	?iwm_show@SettingMacroItemWnd@@MAEXXZ		; SettingMacroItemWnd::iwm_show
PUBLIC	?iwm_hide@SettingMacroItemWnd@@MAEXXZ		; SettingMacroItemWnd::iwm_hide
EXTRN	??_ESettingMacroItemWnd@@UAEPAXI@Z:PROC		; SettingMacroItemWnd::`vector deleting destructor'
;	COMDAT ??_R1A@?0A@EA@SettingMacroItemWnd@@8
rdata$r	SEGMENT
??_R1A@?0A@EA@SettingMacroItemWnd@@8 DD FLAT:??_R0?AVSettingMacroItemWnd@@@8 ; SettingMacroItemWnd::`RTTI Base Class Descriptor at (0,-1,0,64)'
	DD	01H
	DD	00H
	DD	0ffffffffH
	DD	00H
	DD	040H
	DD	FLAT:??_R3SettingMacroItemWnd@@8
rdata$r	ENDS
;	COMDAT ??_R2SettingMacroItemWnd@@8
rdata$r	SEGMENT
??_R2SettingMacroItemWnd@@8 DD FLAT:??_R1A@?0A@EA@SettingMacroItemWnd@@8 ; SettingMacroItemWnd::`RTTI Base Class Array'
	DD	FLAT:??_R1A@?0A@EA@ioWnd@@8
rdata$r	ENDS
;	COMDAT ??_R3SettingMacroItemWnd@@8
rdata$r	SEGMENT
??_R3SettingMacroItemWnd@@8 DD 00H			; SettingMacroItemWnd::`RTTI Class Hierarchy Descriptor'
	DD	00H
	DD	02H
	DD	FLAT:??_R2SettingMacroItemWnd@@8
rdata$r	ENDS
;	COMDAT ??_R0?AVSettingMacroItemWnd@@@8
_DATA	SEGMENT
??_R0?AVSettingMacroItemWnd@@@8 DD FLAT:??_7type_info@@6B@ ; SettingMacroItemWnd `RTTI Type Descriptor'
	DD	00H
	DB	'.?AVSettingMacroItemWnd@@', 00H
_DATA	ENDS
;	COMDAT ??_R4SettingMacroItemWnd@@6B@
rdata$r	SEGMENT
??_R4SettingMacroItemWnd@@6B@ DD 00H			; SettingMacroItemWnd::`RTTI Complete Object Locator'
	DD	00H
	DD	00H
	DD	FLAT:??_R0?AVSettingMacroItemWnd@@@8
	DD	FLAT:??_R3SettingMacroItemWnd@@8
rdata$r	ENDS
;	COMDAT ??_C@_0CJ@PIHNDKBA@SettingMacroItemWnd?3?3SettingMacr@
CONST	SEGMENT
??_C@_0CJ@PIHNDKBA@SettingMacroItemWnd?3?3SettingMacr@ DB 'SettingMacroIt'
	DB	'emWnd::SettingMacroItemWnd', 00H		; `string'
CONST	ENDS
;	COMDAT ??_7SettingMacroItemWnd@@6B@
CONST	SEGMENT
??_7SettingMacroItemWnd@@6B@ DD FLAT:??_R4SettingMacroItemWnd@@6B@ ; SettingMacroItemWnd::`vftable'
	DD	FLAT:?AddRenderFrame@ioWnd@@UAEXABVioHashString@@PAVioUIRenderFrame@@@Z
	DD	FLAT:?AddRenderImage@ioWnd@@UAEXABVioHashString@@PAVioUIRenderImage@@@Z
	DD	FLAT:?AddTooltipHelp@ioWnd@@UAEXABVioHashString@@00@Z
	DD	FLAT:?ParseExtraInfo@ioWnd@@UAEXAAVioXMLElement@@@Z
	DD	FLAT:?AddNamedRenderImage@ioWnd@@UAEXABVioHashString@@PAVioUIRenderImage@@@Z
	DD	FLAT:?RemoveNamedRenderImage@ioWnd@@UAEXABVioHashString@@@Z
	DD	FLAT:?GetNamedRenderImage@ioWnd@@UBEPAVioUIRenderImage@@ABVioHashString@@@Z
	DD	FLAT:?SetWindowAlpha@ioWnd@@UAEXH@Z
	DD	FLAT:?SetActive@ioWnd@@UAEXXZ
	DD	FLAT:?SetInActive@ioWnd@@UAEXXZ
	DD	FLAT:?ClearElementImageList@ioWnd@@UAEXXZ
	DD	FLAT:?SetSize@ioWnd@@UAEXHH@Z
	DD	FLAT:?SetPositionToDefault@ioWnd@@UAEXHH_N0@Z
	DD	FLAT:?IsNeedProcess@ioWnd@@UBE_NXZ
	DD	FLAT:?IsCanMouseReaction@ioWnd@@UBE_NXZ
	DD	FLAT:?AddChild@ioWnd@@UAEXPAV1@@Z
	DD	FLAT:?DeleteChild@ioWnd@@UAEXK@Z
	DD	FLAT:?DeleteAllChild@ioWnd@@UAEXXZ
	DD	FLAT:?OnRenderShowAndHide@ioWnd@@MAE_NXZ
	DD	FLAT:?OnRenderShowAndHideByDefault@ioWnd@@MAE_NK@Z
	DD	FLAT:?OnRenderShowAndHideByTop@ioWnd@@MAE_NK@Z
	DD	FLAT:?OnRenderShowAndHideByDown@ioWnd@@MAE_NK@Z
	DD	FLAT:?OnRender@ioWnd@@MAEXXZ
	DD	FLAT:?OnRenderAfterChild@ioWnd@@MAEXXZ
	DD	FLAT:?OnProcess@ioWnd@@MAEXM@Z
	DD	FLAT:?OnMouseProcess@ioWnd@@MAEXABVioMouse@@@Z
	DD	FLAT:?CheckFrameReSize@ioWnd@@MAEXHHHH@Z
	DD	FLAT:?RenderImageList@ioWnd@@MAEXHHW4UIRenderType@@@Z
	DD	FLAT:?iwm_create@ioWnd@@UAEXXZ
	DD	FLAT:?iwm_destroy@ioWnd@@UAEXXZ
	DD	FLAT:?iwm_lbuttondown@ioWnd@@UAEXABVioMouse@@@Z
	DD	FLAT:?iwm_lbuttonup@ioWnd@@UAEXABVioMouse@@@Z
	DD	FLAT:?iwm_lbuttonDBLCLK@ioWnd@@UAEXABVioMouse@@@Z
	DD	FLAT:?iwm_rbuttondown@ioWnd@@UAEXABVioMouse@@@Z
	DD	FLAT:?iwm_rbuttonup@ioWnd@@UAEXABVioMouse@@@Z
	DD	FLAT:?iwm_command@SettingMacroItemWnd@@MAEXPAVioWnd@@HK@Z
	DD	FLAT:?iwm_mouseover@ioWnd@@UAEXABVioMouse@@@Z
	DD	FLAT:?iwm_mousemove@ioWnd@@UAEXABVioMouse@@@Z
	DD	FLAT:?iwm_mouseleave@ioWnd@@UAEXABVioMouse@@@Z
	DD	FLAT:?iwm_vscroll@ioWnd@@UAEXKH@Z
	DD	FLAT:?iwm_wheel@ioWnd@@UAEXH@Z
	DD	FLAT:?iwm_show@SettingMacroItemWnd@@MAEXXZ
	DD	FLAT:?iwm_hide@SettingMacroItemWnd@@MAEXXZ
	DD	FLAT:?iwm_esc@ioWnd@@UAE_NXZ
	DD	FLAT:?iwm_spacebar@ioWnd@@UAE_NXZ
	DD	FLAT:?iwm_gototop@ioWnd@@UAEXXZ
	DD	FLAT:?iwm_dragenter@ioWnd@@UAE?AW4IWDropEffect@@PAVioDragItem@@ABVioMouse@@@Z
	DD	FLAT:?iwm_dragover@ioWnd@@UAE?AW4IWDropEffect@@PAVioDragItem@@ABVioMouse@@@Z
	DD	FLAT:?iwm_dragleave@ioWnd@@UAEXXZ
	DD	FLAT:?iwm_dropitem@ioWnd@@UAE_NPAVioDragItem@@ABVioMouse@@PAV1@@Z
	DD	FLAT:?iwm_dropdone@ioWnd@@UAEXPAVioDragItem@@PAV1@_N@Z
	DD	FLAT:?IsEXType@ioWnd@@UBE_NXZ
	DD	FLAT:?GetWndType@ioWnd@@UBEKXZ
	DD	FLAT:?RenderWnd@ioWnd@@UAEXXZ
	DD	FLAT:?SetIDEX@ioWnd@@UAEXAAK_N@Z
	DD	FLAT:?ParseXML@ioWnd@@UAEXAAVioXMLElement@@@Z
	DD	FLAT:?GetHeaderFileName@ioWnd@@UAEPBDXZ
	DD	FLAT:?GetTemplateName@ioWnd@@UAEPBDXZ
	DD	FLAT:?GetDefClassName@ioWnd@@UBEPBDXZ
	DD	FLAT:?_Clone@ioWnd@@UAEPAV1@XZ
	DD	FLAT:?Copy@ioWnd@@UAEXPAV1@@Z
	DD	FLAT:?Save@ioWnd@@UAE_NAAVioXMLElement@@@Z
	DD	FLAT:?SetSaveData@ioWnd@@UAEXAAVioXMLElement@@@Z
	DD	FLAT:?SetPosX@ioWnd@@UAEXH@Z
	DD	FLAT:?SetPosY@ioWnd@@UAEXH@Z
	DD	FLAT:?SetWidth@ioWnd@@UAEXH@Z
	DD	FLAT:?SetHeight@ioWnd@@UAEXH@Z
	DD	FLAT:?GetNumFixedRenderFrame@ioWnd@@UBEHXZ
	DD	FLAT:?GetFixedRenderFrameType@ioWnd@@UAEPBDH@Z
	DD	FLAT:?GetRenderFrame@ioWnd@@UAEPAPAVioUIRenderElement@@PBD@Z
	DD	FLAT:?GetNumFixedRenderImage@ioWnd@@UBEHXZ
	DD	FLAT:?GetFixedRenderImageType@ioWnd@@UAEPBDH@Z
	DD	FLAT:?GetRenderImage@ioWnd@@UAEPAPAVioUIRenderElement@@PBD@Z
	DD	FLAT:?AddEffect@ioWnd@@UAEXABVioHashString@@PAVioUI3DEffectRender@@@Z
	DD	FLAT:?GetEffect@ioWnd@@UAEPAVioUI3DEffectRender@@VioHashString@@@Z
	DD	FLAT:??_ESettingMacroItemWnd@@UAEPAXI@Z
CONST	ENDS
;	COMDAT xdata$x
xdata$x	SEGMENT
__unwindtable$??0SettingMacroItemWnd@@QAE@XZ DD 0ffffffffH
	DD	FLAT:__unwindfunclet$??0SettingMacroItemWnd@@QAE@XZ$0
	DD	00H
	DD	FLAT:__unwindfunclet$??0SettingMacroItemWnd@@QAE@XZ$1
	DD	01H
	DD	FLAT:__unwindfunclet$??0SettingMacroItemWnd@@QAE@XZ$2
__ehfuncinfo$??0SettingMacroItemWnd@@QAE@XZ DD 019930522H
	DD	03H
	DD	FLAT:__unwindtable$??0SettingMacroItemWnd@@QAE@XZ
	DD	2 DUP(00H)
	DD	2 DUP(00H)
	DD	00H
	DD	01H
; Function compile flags: /Ogsp
xdata$x	ENDS
;	COMDAT ??0SettingMacroItemWnd@@QAE@XZ
_TEXT	SEGMENT
_this$ = -16						; size = 4
__$EHRec$ = -12						; size = 12
??0SettingMacroItemWnd@@QAE@XZ PROC			; SettingMacroItemWnd::SettingMacroItemWnd, COMDAT
; _this$ = ecx

; 1813 : {

  00000	6a 04		 push	 4
  00002	b8 00 00 00 00	 mov	 eax, __ehhandler$??0SettingMacroItemWnd@@QAE@XZ
  00007	e8 00 00 00 00	 call	 __EH_prolog3
  0000c	8b f1		 mov	 esi, ecx
  0000e	89 75 f0	 mov	 DWORD PTR _this$[ebp], esi
  00011	ff 15 00 00 00
	00		 call	 DWORD PTR __imp_??0ioWnd@@QAE@XZ
  00017	8b 3d 00 00 00
	00		 mov	 edi, DWORD PTR __imp_??0ioHashString@@QAE@XZ
  0001d	83 65 fc 00	 and	 DWORD PTR __$EHRec$[ebp+8], 0
  00021	8d 8e 60 01 00
	00		 lea	 ecx, DWORD PTR [esi+352]
  00027	c7 06 00 00 00
	00		 mov	 DWORD PTR [esi], OFFSET ??_7SettingMacroItemWnd@@6B@
  0002d	ff d7		 call	 edi
  0002f	8d 8e 70 01 00
	00		 lea	 ecx, DWORD PTR [esi+368]
  00035	c6 45 fc 01	 mov	 BYTE PTR __$EHRec$[ebp+8], 1
  00039	ff d7		 call	 edi

; 1814 : 	m_szDefaultTypeAll  = STR(1);

  0003b	8b 3d 00 00 00
	00		 mov	 edi, DWORD PTR __imp_?GetSingleton@ioStringManager@@SAAAV1@XZ
  00041	6a 00		 push	 0
  00043	6a 01		 push	 1
  00045	68 00 00 00 00	 push	 OFFSET ??_C@_00CNPNBAHC@?$AA@
  0004a	68 00 00 00 00	 push	 OFFSET ??_C@_0CJ@PIHNDKBA@SettingMacroItemWnd?3?3SettingMacr@
  0004f	c6 45 fc 02	 mov	 BYTE PTR __$EHRec$[ebp+8], 2
  00053	ff d7		 call	 edi
  00055	8b 1d 00 00 00
	00		 mov	 ebx, DWORD PTR __imp_?GetString@ioStringManager@@QAEPADPBD0HW4FileNamePrefix@1@@Z
  0005b	8b c8		 mov	 ecx, eax
  0005d	ff d3		 call	 ebx
  0005f	50		 push	 eax
  00060	8d 8e 60 01 00
	00		 lea	 ecx, DWORD PTR [esi+352]
  00066	ff 15 00 00 00
	00		 call	 DWORD PTR __imp_??4ioHashString@@QAEAAV0@PBD@Z

; 1815 : 	m_szDefaultTypeTeam = STR(2);

  0006c	6a 00		 push	 0
  0006e	6a 02		 push	 2
  00070	68 00 00 00 00	 push	 OFFSET ??_C@_00CNPNBAHC@?$AA@
  00075	68 00 00 00 00	 push	 OFFSET ??_C@_0CJ@PIHNDKBA@SettingMacroItemWnd?3?3SettingMacr@
  0007a	ff d7		 call	 edi
  0007c	8b c8		 mov	 ecx, eax
  0007e	ff d3		 call	 ebx
  00080	50		 push	 eax
  00081	8d 8e 70 01 00
	00		 lea	 ecx, DWORD PTR [esi+368]
  00087	ff 15 00 00 00
	00		 call	 DWORD PTR __imp_??4ioHashString@@QAEAAV0@PBD@Z

; 1816 : }

  0008d	8b c6		 mov	 eax, esi
  0008f	e8 00 00 00 00	 call	 __EH_epilog3
  00094	c3		 ret	 0
_TEXT	ENDS
;	COMDAT text$x
text$x	SEGMENT
__unwindfunclet$??0SettingMacroItemWnd@@QAE@XZ$0:
  00000	8b 4d f0	 mov	 ecx, DWORD PTR _this$[ebp]
  00003	ff 25 00 00 00
	00		 jmp	 DWORD PTR __imp_??1ioWnd@@UAE@XZ
__unwindfunclet$??0SettingMacroItemWnd@@QAE@XZ$1:
  00009	8b 4d f0	 mov	 ecx, DWORD PTR _this$[ebp]
  0000c	81 c1 60 01 00
	00		 add	 ecx, 352		; 00000160H
  00012	ff 25 00 00 00
	00		 jmp	 DWORD PTR __imp_??1ioHashString@@QAE@XZ
__unwindfunclet$??0SettingMacroItemWnd@@QAE@XZ$2:
  00018	8b 4d f0	 mov	 ecx, DWORD PTR _this$[ebp]
  0001b	81 c1 70 01 00
	00		 add	 ecx, 368		; 00000170H
  00021	ff 25 00 00 00
	00		 jmp	 DWORD PTR __imp_??1ioHashString@@QAE@XZ
__ehhandler$??0SettingMacroItemWnd@@QAE@XZ:
  00027	8b 54 24 08	 mov	 edx, DWORD PTR [esp+8]
  0002b	8d 42 0c	 lea	 eax, DWORD PTR [edx+12]
  0002e	8b 4a ec	 mov	 ecx, DWORD PTR [edx-20]
  00031	33 c8		 xor	 ecx, eax
  00033	e8 00 00 00 00	 call	 @__security_check_cookie@4
  00038	b8 00 00 00 00	 mov	 eax, OFFSET __ehfuncinfo$??0SettingMacroItemWnd@@QAE@XZ
  0003d	e9 00 00 00 00	 jmp	 ___CxxFrameHandler3
text$x	ENDS
??0SettingMacroItemWnd@@QAE@XZ ENDP			; SettingMacroItemWnd::SettingMacroItemWnd
PUBLIC	??1SettingMacroItemWnd@@UAE@XZ			; SettingMacroItemWnd::~SettingMacroItemWnd
;	COMDAT xdata$x
xdata$x	SEGMENT
__unwindtable$??1SettingMacroItemWnd@@UAE@XZ DD 0ffffffffH
	DD	FLAT:__unwindfunclet$??1SettingMacroItemWnd@@UAE@XZ$0
	DD	00H
	DD	FLAT:__unwindfunclet$??1SettingMacroItemWnd@@UAE@XZ$1
__ehfuncinfo$??1SettingMacroItemWnd@@UAE@XZ DD 019930522H
	DD	02H
	DD	FLAT:__unwindtable$??1SettingMacroItemWnd@@UAE@XZ
	DD	2 DUP(00H)
	DD	2 DUP(00H)
	DD	00H
	DD	01H
; Function compile flags: /Ogsp
xdata$x	ENDS
;	COMDAT ??1SettingMacroItemWnd@@UAE@XZ
_TEXT	SEGMENT
_this$ = -16						; size = 4
__$EHRec$ = -12						; size = 12
??1SettingMacroItemWnd@@UAE@XZ PROC			; SettingMacroItemWnd::~SettingMacroItemWnd, COMDAT
; _this$ = ecx

; 1819 : {

  00000	6a 04		 push	 4
  00002	b8 00 00 00 00	 mov	 eax, __ehhandler$??1SettingMacroItemWnd@@UAE@XZ
  00007	e8 00 00 00 00	 call	 __EH_prolog3
  0000c	8b f1		 mov	 esi, ecx
  0000e	89 75 f0	 mov	 DWORD PTR _this$[ebp], esi
  00011	c7 06 00 00 00
	00		 mov	 DWORD PTR [esi], OFFSET ??_7SettingMacroItemWnd@@6B@

; 1820 : 
; 1821 : }

  00017	8b 3d 00 00 00
	00		 mov	 edi, DWORD PTR __imp_??1ioHashString@@QAE@XZ
  0001d	8d 8e 70 01 00
	00		 lea	 ecx, DWORD PTR [esi+368]
  00023	c7 45 fc 01 00
	00 00		 mov	 DWORD PTR __$EHRec$[ebp+8], 1
  0002a	ff d7		 call	 edi
  0002c	8d 8e 60 01 00
	00		 lea	 ecx, DWORD PTR [esi+352]
  00032	c6 45 fc 00	 mov	 BYTE PTR __$EHRec$[ebp+8], 0
  00036	ff d7		 call	 edi
  00038	83 4d fc ff	 or	 DWORD PTR __$EHRec$[ebp+8], -1
  0003c	8b ce		 mov	 ecx, esi
  0003e	ff 15 00 00 00
	00		 call	 DWORD PTR __imp_??1ioWnd@@UAE@XZ
  00044	e8 00 00 00 00	 call	 __EH_epilog3
  00049	c3		 ret	 0
_TEXT	ENDS
;	COMDAT text$x
text$x	SEGMENT
__unwindfunclet$??1SettingMacroItemWnd@@UAE@XZ$0:
  00000	8b 4d f0	 mov	 ecx, DWORD PTR _this$[ebp]
  00003	ff 25 00 00 00
	00		 jmp	 DWORD PTR __imp_??1ioWnd@@UAE@XZ
__unwindfunclet$??1SettingMacroItemWnd@@UAE@XZ$1:
  00009	8b 4d f0	 mov	 ecx, DWORD PTR _this$[ebp]
  0000c	81 c1 60 01 00
	00		 add	 ecx, 352		; 00000160H
  00012	ff 25 00 00 00
	00		 jmp	 DWORD PTR __imp_??1ioHashString@@QAE@XZ
__ehhandler$??1SettingMacroItemWnd@@UAE@XZ:
  00018	8b 54 24 08	 mov	 edx, DWORD PTR [esp+8]
  0001c	8d 42 0c	 lea	 eax, DWORD PTR [edx+12]
  0001f	8b 4a ec	 mov	 ecx, DWORD PTR [edx-20]
  00022	33 c8		 xor	 ecx, eax
  00024	e8 00 00 00 00	 call	 @__security_check_cookie@4
  00029	b8 00 00 00 00	 mov	 eax, OFFSET __ehfuncinfo$??1SettingMacroItemWnd@@UAE@XZ
  0002e	e9 00 00 00 00	 jmp	 ___CxxFrameHandler3
text$x	ENDS
??1SettingMacroItemWnd@@UAE@XZ ENDP			; SettingMacroItemWnd::~SettingMacroItemWnd
; Function compile flags: /Ogsp
;	COMDAT ?iwm_show@SettingMacroItemWnd@@MAEXXZ
_TEXT	SEGMENT
?iwm_show@SettingMacroItemWnd@@MAEXXZ PROC		; SettingMacroItemWnd::iwm_show, COMDAT
; _this$ = ecx

; 1882 : {

  00000	56		 push	 esi

; 1883 : 	ioEdit *pEdit = dynamic_cast<ioEdit*> ( FindChildWnd( ID_MACRO_EDIT ) );

  00001	6a 00		 push	 0
  00003	68 00 00 00 00	 push	 OFFSET ??_R0?AVioEdit@@@8
  00008	68 00 00 00 00	 push	 OFFSET ??_R0?AVioWnd@@@8
  0000d	6a 00		 push	 0
  0000f	6a 02		 push	 2
  00011	ff 15 00 00 00
	00		 call	 DWORD PTR __imp_?FindChildWnd@ioWnd@@QAEPAV1@K@Z
  00017	50		 push	 eax
  00018	e8 00 00 00 00	 call	 ___RTDynamicCast
  0001d	8b f0		 mov	 esi, eax
  0001f	83 c4 14	 add	 esp, 20			; 00000014H

; 1884 : 	if(pEdit)

  00022	85 f6		 test	 esi, esi
  00024	74 13		 je	 SHORT $LN1@iwm_show@3

; 1885 : 	{
; 1886 : 		pEdit->ClearString();

  00026	8b ce		 mov	 ecx, esi
  00028	ff 15 00 00 00
	00		 call	 DWORD PTR __imp_?ClearString@ioEdit@@QAEXXZ

; 1887 : 		pEdit->KillKeyFocus();

  0002e	8b 06		 mov	 eax, DWORD PTR [esi]
  00030	8b ce		 mov	 ecx, esi
  00032	5e		 pop	 esi
  00033	ff a0 34 01 00
	00		 jmp	 DWORD PTR [eax+308]
$LN1@iwm_show@3:
  00039	5e		 pop	 esi

; 1888 : 	}
; 1889 : }

  0003a	c3		 ret	 0
?iwm_show@SettingMacroItemWnd@@MAEXXZ ENDP		; SettingMacroItemWnd::iwm_show
; Function compile flags: /Ogsp
_TEXT	ENDS
;	COMDAT ?iwm_hide@SettingMacroItemWnd@@MAEXXZ
_TEXT	SEGMENT
?iwm_hide@SettingMacroItemWnd@@MAEXXZ PROC		; SettingMacroItemWnd::iwm_hide, COMDAT
; _this$ = ecx

; 1892 : {

  00000	56		 push	 esi

; 1893 : 	ioEdit *pEdit = dynamic_cast<ioEdit*> ( FindChildWnd( ID_MACRO_EDIT ) );

  00001	6a 00		 push	 0
  00003	68 00 00 00 00	 push	 OFFSET ??_R0?AVioEdit@@@8
  00008	68 00 00 00 00	 push	 OFFSET ??_R0?AVioWnd@@@8
  0000d	6a 00		 push	 0
  0000f	6a 02		 push	 2
  00011	ff 15 00 00 00
	00		 call	 DWORD PTR __imp_?FindChildWnd@ioWnd@@QAEPAV1@K@Z
  00017	50		 push	 eax
  00018	e8 00 00 00 00	 call	 ___RTDynamicCast
  0001d	8b f0		 mov	 esi, eax
  0001f	83 c4 14	 add	 esp, 20			; 00000014H

; 1894 : 	if(pEdit)

  00022	85 f6		 test	 esi, esi
  00024	74 13		 je	 SHORT $LN1@iwm_hide@3

; 1895 : 	{
; 1896 : 		pEdit->ClearString();

  00026	8b ce		 mov	 ecx, esi
  00028	ff 15 00 00 00
	00		 call	 DWORD PTR __imp_?ClearString@ioEdit@@QAEXXZ

; 1897 : 		pEdit->KillKeyFocus();

  0002e	8b 06		 mov	 eax, DWORD PTR [esi]
  00030	8b ce		 mov	 ecx, esi
  00032	5e		 pop	 esi
  00033	ff a0 34 01 00
	00		 jmp	 DWORD PTR [eax+308]
$LN1@iwm_hide@3:
  00039	5e		 pop	 esi

; 1898 : 	}
; 1899 : }

  0003a	c3		 ret	 0
?iwm_hide@SettingMacroItemWnd@@MAEXXZ ENDP		; SettingMacroItemWnd::iwm_hide
_TEXT	ENDS
PUBLIC	?GetMecroTextInfo@SettingMacroItemWnd@@QAEXAAUtagMecroTextInfo@CKeyInfo@@@Z ; SettingMacroItemWnd::GetMecroTextInfo
;	COMDAT xdata$x
xdata$x	SEGMENT
__unwindtable$?GetMecroTextInfo@SettingMacroItemWnd@@QAEXAAUtagMecroTextInfo@CKeyInfo@@@Z DD 0ffffffffH
	DD	FLAT:__unwindfunclet$?GetMecroTextInfo@SettingMacroItemWnd@@QAEXAAUtagMecroTextInfo@CKeyInfo@@@Z$0
__ehfuncinfo$?GetMecroTextInfo@SettingMacroItemWnd@@QAEXAAUtagMecroTextInfo@CKeyInfo@@@Z DD 019930522H
	DD	01H
	DD	FLAT:__unwindtable$?GetMecroTextInfo@SettingMacroItemWnd@@QAEXAAUtagMecroTextInfo@CKeyInfo@@@Z
	DD	2 DUP(00H)
	DD	2 DUP(00H)
	DD	00H
	DD	01H
; Function compile flags: /Ogsp
xdata$x	ENDS
;	COMDAT ?GetMecroTextInfo@SettingMacroItemWnd@@QAEXAAUtagMecroTextInfo@CKeyInfo@@@Z
_TEXT	SEGMENT
_szTitle$546727 = -32					; size = 16
_pTitle$546725 = -16					; size = 4
__$EHRec$ = -12						; size = 12
_rkInfo$ = 8						; size = 4
?GetMecroTextInfo@SettingMacroItemWnd@@QAEXAAUtagMecroTextInfo@CKeyInfo@@@Z PROC ; SettingMacroItemWnd::GetMecroTextInfo, COMDAT
; _this$ = ecx

; 1902 : {

  00000	6a 14		 push	 20			; 00000014H
  00002	b8 00 00 00 00	 mov	 eax, __ehhandler$?GetMecroTextInfo@SettingMacroItemWnd@@QAEXAAUtagMecroTextInfo@CKeyInfo@@@Z
  00007	e8 00 00 00 00	 call	 __EH_prolog3
  0000c	8b f9		 mov	 edi, ecx

; 1903 : 	ioWnd *pWnd = FindChildWnd( ID_MACRO_TYPE_BTN );

  0000e	8b 35 00 00 00
	00		 mov	 esi, DWORD PTR __imp_?FindChildWnd@ioWnd@@QAEPAV1@K@Z
  00014	6a 01		 push	 1
  00016	ff d6		 call	 esi

; 1904 : 	if( pWnd )

  00018	85 c0		 test	 eax, eax
  0001a	74 50		 je	 SHORT $LN4@GetMecroTe

; 1905 : 	{
; 1906 : 		ioUITitle *pTitle = pWnd->GetTitle();

  0001c	8b c8		 mov	 ecx, eax
  0001e	ff 15 00 00 00
	00		 call	 DWORD PTR __imp_?GetTitle@ioWnd@@QBEPAVioUITitle@@XZ
  00024	89 45 f0	 mov	 DWORD PTR _pTitle$546725[ebp], eax

; 1907 : 		if( pTitle )

  00027	85 c0		 test	 eax, eax
  00029	74 41		 je	 SHORT $LN4@GetMecroTe

; 1908 : 		{
; 1909 : 			ioHashString szTitle;

  0002b	8d 4d e0	 lea	 ecx, DWORD PTR _szTitle$546727[ebp]
  0002e	ff 15 00 00 00
	00		 call	 DWORD PTR __imp_??0ioHashString@@QAE@XZ

; 1910 : 			pTitle->GetFirstText( szTitle );

  00034	8b 4d f0	 mov	 ecx, DWORD PTR _pTitle$546725[ebp]
  00037	83 65 fc 00	 and	 DWORD PTR __$EHRec$[ebp+8], 0
  0003b	8d 45 e0	 lea	 eax, DWORD PTR _szTitle$546727[ebp]
  0003e	50		 push	 eax
  0003f	ff 15 00 00 00
	00		 call	 DWORD PTR __imp_?GetFirstText@ioUITitle@@QAEXAAVioHashString@@@Z

; 1911 : 			if( szTitle == m_szDefaultTypeAll )

  00045	8d 87 60 01 00
	00		 lea	 eax, DWORD PTR [edi+352]
  0004b	50		 push	 eax
  0004c	8d 4d e0	 lea	 ecx, DWORD PTR _szTitle$546727[ebp]
  0004f	ff 15 00 00 00
	00		 call	 DWORD PTR __imp_??8ioHashString@@QBE_NABV0@@Z
  00055	8b 4d 08	 mov	 ecx, DWORD PTR _rkInfo$[ebp]
  00058	84 c0		 test	 al, al
  0005a	0f 95 c0	 setne	 al

; 1912 : 				rkInfo.m_bAll = true;
; 1913 : 			else
; 1914 : 				rkInfo.m_bAll = false;
; 1915 : 		}

  0005d	83 4d fc ff	 or	 DWORD PTR __$EHRec$[ebp+8], -1
  00061	88 01		 mov	 BYTE PTR [ecx], al
  00063	8d 4d e0	 lea	 ecx, DWORD PTR _szTitle$546727[ebp]
  00066	ff 15 00 00 00
	00		 call	 DWORD PTR __imp_??1ioHashString@@QAE@XZ
$LN4@GetMecroTe:

; 1916 : 	}
; 1917 : 
; 1918 : 	ioEdit *pEdit = dynamic_cast<ioEdit*> ( FindChildWnd( ID_MACRO_EDIT ) );

  0006c	6a 00		 push	 0
  0006e	68 00 00 00 00	 push	 OFFSET ??_R0?AVioEdit@@@8
  00073	68 00 00 00 00	 push	 OFFSET ??_R0?AVioWnd@@@8
  00078	6a 00		 push	 0
  0007a	6a 02		 push	 2
  0007c	8b cf		 mov	 ecx, edi
  0007e	ff d6		 call	 esi
  00080	50		 push	 eax
  00081	e8 00 00 00 00	 call	 ___RTDynamicCast
  00086	8b f0		 mov	 esi, eax
  00088	83 c4 14	 add	 esp, 20			; 00000014H

; 1919 : 	if(pEdit)

  0008b	85 f6		 test	 esi, esi
  0008d	74 1f		 je	 SHORT $LN1@GetMecroTe

; 1920 : 	{
; 1921 : 		rkInfo.m_szText =  pEdit->GetText();

  0008f	8b ce		 mov	 ecx, esi
  00091	ff 15 00 00 00
	00		 call	 DWORD PTR __imp_?GetText@ioEdit@@QBEPBDXZ
  00097	8b 4d 08	 mov	 ecx, DWORD PTR _rkInfo$[ebp]
  0009a	50		 push	 eax
  0009b	83 c1 04	 add	 ecx, 4
  0009e	ff 15 00 00 00
	00		 call	 DWORD PTR __imp_??4ioHashString@@QAEAAV0@PBD@Z

; 1922 : 		pEdit->KillKeyFocus();

  000a4	8b 06		 mov	 eax, DWORD PTR [esi]
  000a6	8b ce		 mov	 ecx, esi
  000a8	ff 90 34 01 00
	00		 call	 DWORD PTR [eax+308]
$LN1@GetMecroTe:

; 1923 : 	}
; 1924 : }

  000ae	e8 00 00 00 00	 call	 __EH_epilog3
  000b3	c2 04 00	 ret	 4
_TEXT	ENDS
;	COMDAT text$x
text$x	SEGMENT
__unwindfunclet$?GetMecroTextInfo@SettingMacroItemWnd@@QAEXAAUtagMecroTextInfo@CKeyInfo@@@Z$0:
  00000	8d 4d e0	 lea	 ecx, DWORD PTR _szTitle$546727[ebp]
  00003	ff 25 00 00 00
	00		 jmp	 DWORD PTR __imp_??1ioHashString@@QAE@XZ
__ehhandler$?GetMecroTextInfo@SettingMacroItemWnd@@QAEXAAUtagMecroTextInfo@CKeyInfo@@@Z:
  00009	8b 54 24 08	 mov	 edx, DWORD PTR [esp+8]
  0000d	8d 42 0c	 lea	 eax, DWORD PTR [edx+12]
  00010	8b 4a dc	 mov	 ecx, DWORD PTR [edx-36]
  00013	33 c8		 xor	 ecx, eax
  00015	e8 00 00 00 00	 call	 @__security_check_cookie@4
  0001a	b8 00 00 00 00	 mov	 eax, OFFSET __ehfuncinfo$?GetMecroTextInfo@SettingMacroItemWnd@@QAEXAAUtagMecroTextInfo@CKeyInfo@@@Z
  0001f	e9 00 00 00 00	 jmp	 ___CxxFrameHandler3
text$x	ENDS
?GetMecroTextInfo@SettingMacroItemWnd@@QAEXAAUtagMecroTextInfo@CKeyInfo@@@Z ENDP ; SettingMacroItemWnd::GetMecroTextInfo
PUBLIC	?SetMacroEdit@SettingMacroItemWnd@@QAEXXZ	; SettingMacroItemWnd::SetMacroEdit
; Function compile flags: /Ogsp
;	COMDAT ?SetMacroEdit@SettingMacroItemWnd@@QAEXXZ
_TEXT	SEGMENT
?SetMacroEdit@SettingMacroItemWnd@@QAEXXZ PROC		; SettingMacroItemWnd::SetMacroEdit, COMDAT
; _this$ = ecx

; 1929 : 	ioEdit *pEdit = dynamic_cast<ioEdit*> ( FindChildWnd(ID_MACRO_EDIT) );

  00000	6a 00		 push	 0
  00002	68 00 00 00 00	 push	 OFFSET ??_R0?AVioEdit@@@8
  00007	68 00 00 00 00	 push	 OFFSET ??_R0?AVioWnd@@@8
  0000c	6a 00		 push	 0
  0000e	6a 02		 push	 2
  00010	ff 15 00 00 00
	00		 call	 DWORD PTR __imp_?FindChildWnd@ioWnd@@QAEPAV1@K@Z
  00016	50		 push	 eax
  00017	e8 00 00 00 00	 call	 ___RTDynamicCast
  0001c	83 c4 14	 add	 esp, 20			; 00000014H

; 1930 : 	if( pEdit )

  0001f	85 c0		 test	 eax, eax
  00021	74 0a		 je	 SHORT $LN1@SetMacroEd

; 1931 : 		pEdit->SetKeyFocus();

  00023	8b 10		 mov	 edx, DWORD PTR [eax]
  00025	8b c8		 mov	 ecx, eax
  00027	ff a2 30 01 00
	00		 jmp	 DWORD PTR [edx+304]
$LN1@SetMacroEd:

; 1932 : }

  0002d	c3		 ret	 0
?SetMacroEdit@SettingMacroItemWnd@@QAEXXZ ENDP		; SettingMacroItemWnd::SetMacroEdit
_TEXT	ENDS
PUBLIC	?ChangeTypeText@SettingMacroItemWnd@@IAEXPAVioWnd@@@Z ; SettingMacroItemWnd::ChangeTypeText
;	COMDAT xdata$x
xdata$x	SEGMENT
__unwindtable$?ChangeTypeText@SettingMacroItemWnd@@IAEXPAVioWnd@@@Z DD 0ffffffffH
	DD	FLAT:__unwindfunclet$?ChangeTypeText@SettingMacroItemWnd@@IAEXPAVioWnd@@@Z$0
__ehfuncinfo$?ChangeTypeText@SettingMacroItemWnd@@IAEXPAVioWnd@@@Z DD 019930522H
	DD	01H
	DD	FLAT:__unwindtable$?ChangeTypeText@SettingMacroItemWnd@@IAEXPAVioWnd@@@Z
	DD	2 DUP(00H)
	DD	2 DUP(00H)
	DD	00H
	DD	01H
; Function compile flags: /Ogsp
xdata$x	ENDS
;	COMDAT ?ChangeTypeText@SettingMacroItemWnd@@IAEXPAVioWnd@@@Z
_TEXT	SEGMENT
_szText$ = -28						; size = 16
__$EHRec$ = -12						; size = 12
_pWnd$ = 8						; size = 4
?ChangeTypeText@SettingMacroItemWnd@@IAEXPAVioWnd@@@Z PROC ; SettingMacroItemWnd::ChangeTypeText, COMDAT
; _this$ = ecx

; 1935 : {

  00000	6a 10		 push	 16			; 00000010H
  00002	b8 00 00 00 00	 mov	 eax, __ehhandler$?ChangeTypeText@SettingMacroItemWnd@@IAEXPAVioWnd@@@Z
  00007	e8 00 00 00 00	 call	 __EH_prolog3
  0000c	8b f9		 mov	 edi, ecx

; 1936 : 	if( !pWnd )

  0000e	8b 4d 08	 mov	 ecx, DWORD PTR _pWnd$[ebp]
  00011	85 c9		 test	 ecx, ecx
  00013	74 62		 je	 SHORT $LN5@ChangeType

; 1937 : 		return;
; 1938 : 
; 1939 : 	ioUITitle *pTitle = pWnd->GetTitle();

  00015	ff 15 00 00 00
	00		 call	 DWORD PTR __imp_?GetTitle@ioWnd@@QBEPAVioUITitle@@XZ
  0001b	8b d8		 mov	 ebx, eax

; 1940 : 	if( !pTitle )

  0001d	85 db		 test	 ebx, ebx
  0001f	74 56		 je	 SHORT $LN5@ChangeType

; 1941 : 		return;
; 1942 : 
; 1943 : 	ioHashString szText;

  00021	8d 4d e4	 lea	 ecx, DWORD PTR _szText$[ebp]
  00024	ff 15 00 00 00
	00		 call	 DWORD PTR __imp_??0ioHashString@@QAE@XZ
  0002a	83 65 fc 00	 and	 DWORD PTR __$EHRec$[ebp+8], 0

; 1944 : 	pTitle->GetFirstText( szText );

  0002e	8d 45 e4	 lea	 eax, DWORD PTR _szText$[ebp]
  00031	50		 push	 eax
  00032	8b cb		 mov	 ecx, ebx
  00034	ff 15 00 00 00
	00		 call	 DWORD PTR __imp_?GetFirstText@ioUITitle@@QAEXAAVioHashString@@@Z

; 1945 : 
; 1946 : 	if( szText == m_szDefaultTypeAll )

  0003a	8d b7 60 01 00
	00		 lea	 esi, DWORD PTR [edi+352]
  00040	56		 push	 esi
  00041	8d 4d e4	 lea	 ecx, DWORD PTR _szText$[ebp]
  00044	ff 15 00 00 00
	00		 call	 DWORD PTR __imp_??8ioHashString@@QBE_NABV0@@Z

; 1947 : 		pTitle->SetText( m_szDefaultTypeTeam.c_str(), "" );

  0004a	68 00 00 00 00	 push	 OFFSET ??_C@_00CNPNBAHC@?$AA@
  0004f	8d 8f 70 01 00
	00		 lea	 ecx, DWORD PTR [edi+368]
  00055	84 c0		 test	 al, al
  00057	75 02		 jne	 SHORT $LN9@ChangeType

; 1948 : 	else
; 1949 : 		pTitle->SetText( m_szDefaultTypeAll.c_str(), "" );

  00059	8b ce		 mov	 ecx, esi
$LN9@ChangeType:
  0005b	ff 15 00 00 00
	00		 call	 DWORD PTR __imp_?c_str@ioHashString@@QBEPBDXZ
  00061	50		 push	 eax
  00062	8b cb		 mov	 ecx, ebx
  00064	ff 15 00 00 00
	00		 call	 DWORD PTR __imp_?SetText@ioUITitle@@QAEXPBD0@Z

; 1950 : }

  0006a	83 4d fc ff	 or	 DWORD PTR __$EHRec$[ebp+8], -1
  0006e	8d 4d e4	 lea	 ecx, DWORD PTR _szText$[ebp]
  00071	ff 15 00 00 00
	00		 call	 DWORD PTR __imp_??1ioHashString@@QAE@XZ
$LN5@ChangeType:
  00077	e8 00 00 00 00	 call	 __EH_epilog3
  0007c	c2 04 00	 ret	 4
_TEXT	ENDS
;	COMDAT text$x
text$x	SEGMENT
__unwindfunclet$?ChangeTypeText@SettingMacroItemWnd@@IAEXPAVioWnd@@@Z$0:
  00000	8d 4d e4	 lea	 ecx, DWORD PTR _szText$[ebp]
  00003	ff 25 00 00 00
	00		 jmp	 DWORD PTR __imp_??1ioHashString@@QAE@XZ
__ehhandler$?ChangeTypeText@SettingMacroItemWnd@@IAEXPAVioWnd@@@Z:
  00009	8b 54 24 08	 mov	 edx, DWORD PTR [esp+8]
  0000d	8d 42 0c	 lea	 eax, DWORD PTR [edx+12]
  00010	8b 4a e0	 mov	 ecx, DWORD PTR [edx-32]
  00013	33 c8		 xor	 ecx, eax
  00015	e8 00 00 00 00	 call	 @__security_check_cookie@4
  0001a	b8 00 00 00 00	 mov	 eax, OFFSET __ehfuncinfo$?ChangeTypeText@SettingMacroItemWnd@@IAEXPAVioWnd@@@Z
  0001f	e9 00 00 00 00	 jmp	 ___CxxFrameHandler3
text$x	ENDS
?ChangeTypeText@SettingMacroItemWnd@@IAEXPAVioWnd@@@Z ENDP ; SettingMacroItemWnd::ChangeTypeText
PUBLIC	??_7GameOptionSettingGameTab@@6B@		; GameOptionSettingGameTab::`vftable'
PUBLIC	??0GameOptionSettingGameTab@@QAE@XZ		; GameOptionSettingGameTab::GameOptionSettingGameTab
PUBLIC	??_R4GameOptionSettingGameTab@@6B@		; GameOptionSettingGameTab::`RTTI Complete Object Locator'
PUBLIC	??_R0?AVGameOptionSettingGameTab@@@8		; GameOptionSettingGameTab `RTTI Type Descriptor'
PUBLIC	??_R3GameOptionSettingGameTab@@8		; GameOptionSettingGameTab::`RTTI Class Hierarchy Descriptor'
PUBLIC	??_R2GameOptionSettingGameTab@@8		; GameOptionSettingGameTab::`RTTI Base Class Array'
PUBLIC	??_R1A@?0A@EA@GameOptionSettingGameTab@@8	; GameOptionSettingGameTab::`RTTI Base Class Descriptor at (0,-1,0,64)'
PUBLIC	??_R1A@?0A@EA@GameOptionBasicWnd@@8		; GameOptionBasicWnd::`RTTI Base Class Descriptor at (0,-1,0,64)'
PUBLIC	??_R0?AVGameOptionBasicWnd@@@8			; GameOptionBasicWnd `RTTI Type Descriptor'
PUBLIC	??_R3GameOptionBasicWnd@@8			; GameOptionBasicWnd::`RTTI Class Hierarchy Descriptor'
PUBLIC	??_R2GameOptionBasicWnd@@8			; GameOptionBasicWnd::`RTTI Base Class Array'
PUBLIC	?AddRenderImage@GameOptionSettingGameTab@@MAEXABVioHashString@@PAVioUIRenderImage@@@Z ; GameOptionSettingGameTab::AddRenderImage
PUBLIC	?OnRender@GameOptionSettingGameTab@@MAEXXZ	; GameOptionSettingGameTab::OnRender
PUBLIC	?OnProcess@GameOptionSettingGameTab@@MAEXM@Z	; GameOptionSettingGameTab::OnProcess
PUBLIC	?iwm_command@GameOptionSettingGameTab@@UAEXPAVioWnd@@HK@Z ; GameOptionSettingGameTab::iwm_command
PUBLIC	?iwm_show@GameOptionSettingGameTab@@UAEXXZ	; GameOptionSettingGameTab::iwm_show
PUBLIC	?iwm_hide@GameOptionSettingGameTab@@UAEXXZ	; GameOptionSettingGameTab::iwm_hide
PUBLIC	?UpdateByCurrentOption@GameOptionSettingGameTab@@MAEXXZ ; GameOptionSettingGameTab::UpdateByCurrentOption
EXTRN	??1CKeyInfo@@UAE@XZ:PROC			; CKeyInfo::~CKeyInfo
EXTRN	??1GameOptionBasicWnd@@UAE@XZ:PROC		; GameOptionBasicWnd::~GameOptionBasicWnd
EXTRN	?Load@CKeyInfo@@QAEXXZ:PROC			; CKeyInfo::Load
EXTRN	??0CKeyInfo@@QAE@XZ:PROC			; CKeyInfo::CKeyInfo
EXTRN	??0GameOptionBasicWnd@@QAE@XZ:PROC		; GameOptionBasicWnd::GameOptionBasicWnd
EXTRN	??_EGameOptionSettingGameTab@@UAEPAXI@Z:PROC	; GameOptionSettingGameTab::`vector deleting destructor'
EXTRN	?CheckResolutionChange@GameOptionBasicWnd@@MAE_NABUSettingOption@@@Z:PROC ; GameOptionBasicWnd::CheckResolutionChange
;	COMDAT ??_R2GameOptionBasicWnd@@8
rdata$r	SEGMENT
??_R2GameOptionBasicWnd@@8 DD FLAT:??_R1A@?0A@EA@GameOptionBasicWnd@@8 ; GameOptionBasicWnd::`RTTI Base Class Array'
	DD	FLAT:??_R1A@?0A@EA@ioWnd@@8
rdata$r	ENDS
;	COMDAT ??_R3GameOptionBasicWnd@@8
rdata$r	SEGMENT
??_R3GameOptionBasicWnd@@8 DD 00H			; GameOptionBasicWnd::`RTTI Class Hierarchy Descriptor'
	DD	00H
	DD	02H
	DD	FLAT:??_R2GameOptionBasicWnd@@8
rdata$r	ENDS
;	COMDAT ??_R0?AVGameOptionBasicWnd@@@8
_DATA	SEGMENT
??_R0?AVGameOptionBasicWnd@@@8 DD FLAT:??_7type_info@@6B@ ; GameOptionBasicWnd `RTTI Type Descriptor'
	DD	00H
	DB	'.?AVGameOptionBasicWnd@@', 00H
_DATA	ENDS
;	COMDAT ??_R1A@?0A@EA@GameOptionBasicWnd@@8
rdata$r	SEGMENT
??_R1A@?0A@EA@GameOptionBasicWnd@@8 DD FLAT:??_R0?AVGameOptionBasicWnd@@@8 ; GameOptionBasicWnd::`RTTI Base Class Descriptor at (0,-1,0,64)'
	DD	01H
	DD	00H
	DD	0ffffffffH
	DD	00H
	DD	040H
	DD	FLAT:??_R3GameOptionBasicWnd@@8
rdata$r	ENDS
;	COMDAT ??_R1A@?0A@EA@GameOptionSettingGameTab@@8
rdata$r	SEGMENT
??_R1A@?0A@EA@GameOptionSettingGameTab@@8 DD FLAT:??_R0?AVGameOptionSettingGameTab@@@8 ; GameOptionSettingGameTab::`RTTI Base Class Descriptor at (0,-1,0,64)'
	DD	02H
	DD	00H
	DD	0ffffffffH
	DD	00H
	DD	040H
	DD	FLAT:??_R3GameOptionSettingGameTab@@8
rdata$r	ENDS
;	COMDAT ??_R2GameOptionSettingGameTab@@8
rdata$r	SEGMENT
??_R2GameOptionSettingGameTab@@8 DD FLAT:??_R1A@?0A@EA@GameOptionSettingGameTab@@8 ; GameOptionSettingGameTab::`RTTI Base Class Array'
	DD	FLAT:??_R1A@?0A@EA@GameOptionBasicWnd@@8
	DD	FLAT:??_R1A@?0A@EA@ioWnd@@8
rdata$r	ENDS
;	COMDAT ??_R3GameOptionSettingGameTab@@8
rdata$r	SEGMENT
??_R3GameOptionSettingGameTab@@8 DD 00H			; GameOptionSettingGameTab::`RTTI Class Hierarchy Descriptor'
	DD	00H
	DD	03H
	DD	FLAT:??_R2GameOptionSettingGameTab@@8
rdata$r	ENDS
;	COMDAT ??_R0?AVGameOptionSettingGameTab@@@8
_DATA	SEGMENT
??_R0?AVGameOptionSettingGameTab@@@8 DD FLAT:??_7type_info@@6B@ ; GameOptionSettingGameTab `RTTI Type Descriptor'
	DD	00H
	DB	'.?AVGameOptionSettingGameTab@@', 00H
_DATA	ENDS
;	COMDAT ??_R4GameOptionSettingGameTab@@6B@
rdata$r	SEGMENT
??_R4GameOptionSettingGameTab@@6B@ DD 00H		; GameOptionSettingGameTab::`RTTI Complete Object Locator'
	DD	00H
	DD	00H
	DD	FLAT:??_R0?AVGameOptionSettingGameTab@@@8
	DD	FLAT:??_R3GameOptionSettingGameTab@@8
rdata$r	ENDS
;	COMDAT ??_7GameOptionSettingGameTab@@6B@
CONST	SEGMENT
??_7GameOptionSettingGameTab@@6B@ DD FLAT:??_R4GameOptionSettingGameTab@@6B@ ; GameOptionSettingGameTab::`vftable'
	DD	FLAT:?AddRenderFrame@ioWnd@@UAEXABVioHashString@@PAVioUIRenderFrame@@@Z
	DD	FLAT:?AddRenderImage@GameOptionSettingGameTab@@MAEXABVioHashString@@PAVioUIRenderImage@@@Z
	DD	FLAT:?AddTooltipHelp@ioWnd@@UAEXABVioHashString@@00@Z
	DD	FLAT:?ParseExtraInfo@ioWnd@@UAEXAAVioXMLElement@@@Z
	DD	FLAT:?AddNamedRenderImage@ioWnd@@UAEXABVioHashString@@PAVioUIRenderImage@@@Z
	DD	FLAT:?RemoveNamedRenderImage@ioWnd@@UAEXABVioHashString@@@Z
	DD	FLAT:?GetNamedRenderImage@ioWnd@@UBEPAVioUIRenderImage@@ABVioHashString@@@Z
	DD	FLAT:?SetWindowAlpha@ioWnd@@UAEXH@Z
	DD	FLAT:?SetActive@ioWnd@@UAEXXZ
	DD	FLAT:?SetInActive@ioWnd@@UAEXXZ
	DD	FLAT:?ClearElementImageList@ioWnd@@UAEXXZ
	DD	FLAT:?SetSize@ioWnd@@UAEXHH@Z
	DD	FLAT:?SetPositionToDefault@ioWnd@@UAEXHH_N0@Z
	DD	FLAT:?IsNeedProcess@ioWnd@@UBE_NXZ
	DD	FLAT:?IsCanMouseReaction@ioWnd@@UBE_NXZ
	DD	FLAT:?AddChild@ioWnd@@UAEXPAV1@@Z
	DD	FLAT:?DeleteChild@ioWnd@@UAEXK@Z
	DD	FLAT:?DeleteAllChild@ioWnd@@UAEXXZ
	DD	FLAT:?OnRenderShowAndHide@ioWnd@@MAE_NXZ
	DD	FLAT:?OnRenderShowAndHideByDefault@ioWnd@@MAE_NK@Z
	DD	FLAT:?OnRenderShowAndHideByTop@ioWnd@@MAE_NK@Z
	DD	FLAT:?OnRenderShowAndHideByDown@ioWnd@@MAE_NK@Z
	DD	FLAT:?OnRender@GameOptionSettingGameTab@@MAEXXZ
	DD	FLAT:?OnRenderAfterChild@ioWnd@@MAEXXZ
	DD	FLAT:?OnProcess@GameOptionSettingGameTab@@MAEXM@Z
	DD	FLAT:?OnMouseProcess@ioWnd@@MAEXABVioMouse@@@Z
	DD	FLAT:?CheckFrameReSize@ioWnd@@MAEXHHHH@Z
	DD	FLAT:?RenderImageList@ioWnd@@MAEXHHW4UIRenderType@@@Z
	DD	FLAT:?iwm_create@ioWnd@@UAEXXZ
	DD	FLAT:?iwm_destroy@ioWnd@@UAEXXZ
	DD	FLAT:?iwm_lbuttondown@ioWnd@@UAEXABVioMouse@@@Z
	DD	FLAT:?iwm_lbuttonup@ioWnd@@UAEXABVioMouse@@@Z
	DD	FLAT:?iwm_lbuttonDBLCLK@ioWnd@@UAEXABVioMouse@@@Z
	DD	FLAT:?iwm_rbuttondown@ioWnd@@UAEXABVioMouse@@@Z
	DD	FLAT:?iwm_rbuttonup@ioWnd@@UAEXABVioMouse@@@Z
	DD	FLAT:?iwm_command@GameOptionSettingGameTab@@UAEXPAVioWnd@@HK@Z
	DD	FLAT:?iwm_mouseover@ioWnd@@UAEXABVioMouse@@@Z
	DD	FLAT:?iwm_mousemove@ioWnd@@UAEXABVioMouse@@@Z
	DD	FLAT:?iwm_mouseleave@ioWnd@@UAEXABVioMouse@@@Z
	DD	FLAT:?iwm_vscroll@ioWnd@@UAEXKH@Z
	DD	FLAT:?iwm_wheel@ioWnd@@UAEXH@Z
	DD	FLAT:?iwm_show@GameOptionSettingGameTab@@UAEXXZ
	DD	FLAT:?iwm_hide@GameOptionSettingGameTab@@UAEXXZ
	DD	FLAT:?iwm_esc@ioWnd@@UAE_NXZ
	DD	FLAT:?iwm_spacebar@ioWnd@@UAE_NXZ
	DD	FLAT:?iwm_gototop@ioWnd@@UAEXXZ
	DD	FLAT:?iwm_dragenter@ioWnd@@UAE?AW4IWDropEffect@@PAVioDragItem@@ABVioMouse@@@Z
	DD	FLAT:?iwm_dragover@ioWnd@@UAE?AW4IWDropEffect@@PAVioDragItem@@ABVioMouse@@@Z
	DD	FLAT:?iwm_dragleave@ioWnd@@UAEXXZ
	DD	FLAT:?iwm_dropitem@ioWnd@@UAE_NPAVioDragItem@@ABVioMouse@@PAV1@@Z
	DD	FLAT:?iwm_dropdone@ioWnd@@UAEXPAVioDragItem@@PAV1@_N@Z
	DD	FLAT:?IsEXType@ioWnd@@UBE_NXZ
	DD	FLAT:?GetWndType@ioWnd@@UBEKXZ
	DD	FLAT:?RenderWnd@ioWnd@@UAEXXZ
	DD	FLAT:?SetIDEX@ioWnd@@UAEXAAK_N@Z
	DD	FLAT:?ParseXML@ioWnd@@UAEXAAVioXMLElement@@@Z
	DD	FLAT:?GetHeaderFileName@ioWnd@@UAEPBDXZ
	DD	FLAT:?GetTemplateName@ioWnd@@UAEPBDXZ
	DD	FLAT:?GetDefClassName@ioWnd@@UBEPBDXZ
	DD	FLAT:?_Clone@ioWnd@@UAEPAV1@XZ
	DD	FLAT:?Copy@ioWnd@@UAEXPAV1@@Z
	DD	FLAT:?Save@ioWnd@@UAE_NAAVioXMLElement@@@Z
	DD	FLAT:?SetSaveData@ioWnd@@UAEXAAVioXMLElement@@@Z
	DD	FLAT:?SetPosX@ioWnd@@UAEXH@Z
	DD	FLAT:?SetPosY@ioWnd@@UAEXH@Z
	DD	FLAT:?SetWidth@ioWnd@@UAEXH@Z
	DD	FLAT:?SetHeight@ioWnd@@UAEXH@Z
	DD	FLAT:?GetNumFixedRenderFrame@ioWnd@@UBEHXZ
	DD	FLAT:?GetFixedRenderFrameType@ioWnd@@UAEPBDH@Z
	DD	FLAT:?GetRenderFrame@ioWnd@@UAEPAPAVioUIRenderElement@@PBD@Z
	DD	FLAT:?GetNumFixedRenderImage@ioWnd@@UBEHXZ
	DD	FLAT:?GetFixedRenderImageType@ioWnd@@UAEPBDH@Z
	DD	FLAT:?GetRenderImage@ioWnd@@UAEPAPAVioUIRenderElement@@PBD@Z
	DD	FLAT:?AddEffect@ioWnd@@UAEXABVioHashString@@PAVioUI3DEffectRender@@@Z
	DD	FLAT:?GetEffect@ioWnd@@UAEPAVioUI3DEffectRender@@VioHashString@@@Z
	DD	FLAT:??_EGameOptionSettingGameTab@@UAEPAXI@Z
	DD	FLAT:?UpdateByCurrentOption@GameOptionSettingGameTab@@MAEXXZ
	DD	FLAT:?CheckResolutionChange@GameOptionBasicWnd@@MAE_NABUSettingOption@@@Z
CONST	ENDS
;	COMDAT xdata$x
xdata$x	SEGMENT
__unwindtable$??0GameOptionSettingGameTab@@QAE@XZ DD 0ffffffffH
	DD	FLAT:__unwindfunclet$??0GameOptionSettingGameTab@@QAE@XZ$0
	DD	00H
	DD	FLAT:__unwindfunclet$??0GameOptionSettingGameTab@@QAE@XZ$1
__ehfuncinfo$??0GameOptionSettingGameTab@@QAE@XZ DD 019930522H
	DD	02H
	DD	FLAT:__unwindtable$??0GameOptionSettingGameTab@@QAE@XZ
	DD	2 DUP(00H)
	DD	2 DUP(00H)
	DD	00H
	DD	01H
; Function compile flags: /Ogsp
xdata$x	ENDS
;	COMDAT ??0GameOptionSettingGameTab@@QAE@XZ
_TEXT	SEGMENT
_this$ = -16						; size = 4
__$EHRec$ = -12						; size = 12
??0GameOptionSettingGameTab@@QAE@XZ PROC		; GameOptionSettingGameTab::GameOptionSettingGameTab, COMDAT
; _this$ = ecx

; 1953 : {	

  00000	6a 04		 push	 4
  00002	b8 00 00 00 00	 mov	 eax, __ehhandler$??0GameOptionSettingGameTab@@QAE@XZ
  00007	e8 00 00 00 00	 call	 __EH_prolog3
  0000c	8b f1		 mov	 esi, ecx
  0000e	89 75 f0	 mov	 DWORD PTR _this$[ebp], esi
  00011	e8 00 00 00 00	 call	 ??0GameOptionBasicWnd@@QAE@XZ ; GameOptionBasicWnd::GameOptionBasicWnd
  00016	33 db		 xor	 ebx, ebx
  00018	8d 8e 10 02 00
	00		 lea	 ecx, DWORD PTR [esi+528]
  0001e	89 5d fc	 mov	 DWORD PTR __$EHRec$[ebp+8], ebx
  00021	c7 06 00 00 00
	00		 mov	 DWORD PTR [esi], OFFSET ??_7GameOptionSettingGameTab@@6B@
  00027	e8 00 00 00 00	 call	 ??0CKeyInfo@@QAE@XZ	; CKeyInfo::CKeyInfo

; 1954 : 	m_pIconBack = NULL;
; 1955 : 	m_pIconGame = NULL;
; 1956 : 	m_pIconMacro = NULL;
; 1957 : 
; 1958 : 	m_KeyInfo.Load();

  0002c	8d 8e 10 02 00
	00		 lea	 ecx, DWORD PTR [esi+528]
  00032	c6 45 fc 01	 mov	 BYTE PTR __$EHRec$[ebp+8], 1
  00036	89 9e 04 02 00
	00		 mov	 DWORD PTR [esi+516], ebx
  0003c	89 9e 08 02 00
	00		 mov	 DWORD PTR [esi+520], ebx
  00042	89 9e 0c 02 00
	00		 mov	 DWORD PTR [esi+524], ebx
  00048	e8 00 00 00 00	 call	 ?Load@CKeyInfo@@QAEXXZ	; CKeyInfo::Load

; 1959 : 	m_dwSelectItemIDForMacroEdit = ID_NONE_SELECT_ITEM_WND;

  0004d	c7 86 3c 02 00
	00 40 42 0f 00	 mov	 DWORD PTR [esi+572], 1000000 ; 000f4240H

; 1960 : 	m_pPreEdit = NULL;

  00057	89 9e 38 02 00
	00		 mov	 DWORD PTR [esi+568], ebx

; 1961 : }

  0005d	8b c6		 mov	 eax, esi
  0005f	e8 00 00 00 00	 call	 __EH_epilog3
  00064	c3		 ret	 0
_TEXT	ENDS
;	COMDAT text$x
text$x	SEGMENT
__unwindfunclet$??0GameOptionSettingGameTab@@QAE@XZ$0:
  00000	8b 4d f0	 mov	 ecx, DWORD PTR _this$[ebp]
  00003	e9 00 00 00 00	 jmp	 ??1GameOptionBasicWnd@@UAE@XZ ; GameOptionBasicWnd::~GameOptionBasicWnd
__unwindfunclet$??0GameOptionSettingGameTab@@QAE@XZ$1:
  00008	8b 4d f0	 mov	 ecx, DWORD PTR _this$[ebp]
  0000b	81 c1 10 02 00
	00		 add	 ecx, 528		; 00000210H
  00011	e9 00 00 00 00	 jmp	 ??1CKeyInfo@@UAE@XZ	; CKeyInfo::~CKeyInfo
__ehhandler$??0GameOptionSettingGameTab@@QAE@XZ:
  00016	8b 54 24 08	 mov	 edx, DWORD PTR [esp+8]
  0001a	8d 42 0c	 lea	 eax, DWORD PTR [edx+12]
  0001d	8b 4a ec	 mov	 ecx, DWORD PTR [edx-20]
  00020	33 c8		 xor	 ecx, eax
  00022	e8 00 00 00 00	 call	 @__security_check_cookie@4
  00027	b8 00 00 00 00	 mov	 eax, OFFSET __ehfuncinfo$??0GameOptionSettingGameTab@@QAE@XZ
  0002c	e9 00 00 00 00	 jmp	 ___CxxFrameHandler3
text$x	ENDS
??0GameOptionSettingGameTab@@QAE@XZ ENDP		; GameOptionSettingGameTab::GameOptionSettingGameTab
PUBLIC	??1GameOptionSettingGameTab@@UAE@XZ		; GameOptionSettingGameTab::~GameOptionSettingGameTab
;	COMDAT xdata$x
xdata$x	SEGMENT
__unwindtable$??1GameOptionSettingGameTab@@UAE@XZ DD 0ffffffffH
	DD	FLAT:__unwindfunclet$??1GameOptionSettingGameTab@@UAE@XZ$0
	DD	00H
	DD	FLAT:__unwindfunclet$??1GameOptionSettingGameTab@@UAE@XZ$1
__ehfuncinfo$??1GameOptionSettingGameTab@@UAE@XZ DD 019930522H
	DD	02H
	DD	FLAT:__unwindtable$??1GameOptionSettingGameTab@@UAE@XZ
	DD	2 DUP(00H)
	DD	2 DUP(00H)
	DD	00H
	DD	01H
; Function compile flags: /Ogsp
xdata$x	ENDS
;	COMDAT ??1GameOptionSettingGameTab@@UAE@XZ
_TEXT	SEGMENT
_this$ = -16						; size = 4
__$EHRec$ = -12						; size = 12
??1GameOptionSettingGameTab@@UAE@XZ PROC		; GameOptionSettingGameTab::~GameOptionSettingGameTab, COMDAT
; _this$ = ecx

; 1964 : {

  00000	6a 04		 push	 4
  00002	b8 00 00 00 00	 mov	 eax, __ehhandler$??1GameOptionSettingGameTab@@UAE@XZ
  00007	e8 00 00 00 00	 call	 __EH_prolog3
  0000c	8b f1		 mov	 esi, ecx
  0000e	89 75 f0	 mov	 DWORD PTR _this$[ebp], esi
  00011	c7 06 00 00 00
	00		 mov	 DWORD PTR [esi], OFFSET ??_7GameOptionSettingGameTab@@6B@

; 1965 : 	SAFEDELETE( m_pIconBack );

  00017	8b 8e 04 02 00
	00		 mov	 ecx, DWORD PTR [esi+516]
  0001d	33 db		 xor	 ebx, ebx
  0001f	43		 inc	 ebx
  00020	89 5d fc	 mov	 DWORD PTR __$EHRec$[ebp+8], ebx
  00023	85 c9		 test	 ecx, ecx
  00025	74 0d		 je	 SHORT $LN3@GameOption@2
  00027	8b 01		 mov	 eax, DWORD PTR [ecx]
  00029	53		 push	 ebx
  0002a	ff 50 40	 call	 DWORD PTR [eax+64]
  0002d	83 a6 04 02 00
	00 00		 and	 DWORD PTR [esi+516], 0
$LN3@GameOption@2:

; 1966 : 	SAFEDELETE( m_pIconGame );

  00034	8b 8e 08 02 00
	00		 mov	 ecx, DWORD PTR [esi+520]
  0003a	85 c9		 test	 ecx, ecx
  0003c	74 0d		 je	 SHORT $LN2@GameOption@2
  0003e	8b 01		 mov	 eax, DWORD PTR [ecx]
  00040	53		 push	 ebx
  00041	ff 50 40	 call	 DWORD PTR [eax+64]
  00044	83 a6 08 02 00
	00 00		 and	 DWORD PTR [esi+520], 0
$LN2@GameOption@2:

; 1967 : 	SAFEDELETE( m_pIconMacro );

  0004b	8b 8e 0c 02 00
	00		 mov	 ecx, DWORD PTR [esi+524]
  00051	85 c9		 test	 ecx, ecx
  00053	74 0d		 je	 SHORT $LN1@GameOption@2
  00055	8b 01		 mov	 eax, DWORD PTR [ecx]
  00057	53		 push	 ebx
  00058	ff 50 40	 call	 DWORD PTR [eax+64]
  0005b	83 a6 0c 02 00
	00 00		 and	 DWORD PTR [esi+524], 0
$LN1@GameOption@2:

; 1968 : }

  00062	8d 8e 10 02 00
	00		 lea	 ecx, DWORD PTR [esi+528]
  00068	c6 45 fc 00	 mov	 BYTE PTR __$EHRec$[ebp+8], 0
  0006c	e8 00 00 00 00	 call	 ??1CKeyInfo@@UAE@XZ	; CKeyInfo::~CKeyInfo
  00071	83 4d fc ff	 or	 DWORD PTR __$EHRec$[ebp+8], -1
  00075	8b ce		 mov	 ecx, esi
  00077	e8 00 00 00 00	 call	 ??1GameOptionBasicWnd@@UAE@XZ ; GameOptionBasicWnd::~GameOptionBasicWnd
  0007c	e8 00 00 00 00	 call	 __EH_epilog3
  00081	c3		 ret	 0
_TEXT	ENDS
;	COMDAT text$x
text$x	SEGMENT
__unwindfunclet$??1GameOptionSettingGameTab@@UAE@XZ$0:
  00000	8b 4d f0	 mov	 ecx, DWORD PTR _this$[ebp]
  00003	e9 00 00 00 00	 jmp	 ??1GameOptionBasicWnd@@UAE@XZ ; GameOptionBasicWnd::~GameOptionBasicWnd
__unwindfunclet$??1GameOptionSettingGameTab@@UAE@XZ$1:
  00008	8b 4d f0	 mov	 ecx, DWORD PTR _this$[ebp]
  0000b	81 c1 10 02 00
	00		 add	 ecx, 528		; 00000210H
  00011	e9 00 00 00 00	 jmp	 ??1CKeyInfo@@UAE@XZ	; CKeyInfo::~CKeyInfo
__ehhandler$??1GameOptionSettingGameTab@@UAE@XZ:
  00016	8b 54 24 08	 mov	 edx, DWORD PTR [esp+8]
  0001a	8d 42 0c	 lea	 eax, DWORD PTR [edx+12]
  0001d	8b 4a ec	 mov	 ecx, DWORD PTR [edx-20]
  00020	33 c8		 xor	 ecx, eax
  00022	e8 00 00 00 00	 call	 @__security_check_cookie@4
  00027	b8 00 00 00 00	 mov	 eax, OFFSET __ehfuncinfo$??1GameOptionSettingGameTab@@UAE@XZ
  0002c	e9 00 00 00 00	 jmp	 ___CxxFrameHandler3
text$x	ENDS
??1GameOptionSettingGameTab@@UAE@XZ ENDP		; GameOptionSettingGameTab::~GameOptionSettingGameTab
PUBLIC	?SetSlangFilterFunc@GameOptionSettingGameTab@@IAEXK@Z ; GameOptionSettingGameTab::SetSlangFilterFunc
EXTRN	__imp_?CheckRadioButton@ioWnd@@QAEXKKK@Z:PROC
; Function compile flags: /Ogsp
;	COMDAT ?SetSlangFilterFunc@GameOptionSettingGameTab@@IAEXK@Z
_TEXT	SEGMENT
_dwID$ = 8						; size = 4
?SetSlangFilterFunc@GameOptionSettingGameTab@@IAEXK@Z PROC ; GameOptionSettingGameTab::SetSlangFilterFunc, COMDAT
; _this$ = ecx

; 2215 : {

  00000	55		 push	 ebp
  00001	8b ec		 mov	 ebp, esp
  00003	56		 push	 esi
  00004	57		 push	 edi

; 2216 : 	CheckRadioButton( ID_SLANG_FILTER_CHANGE, ID_SLANG_FILTER_STAR, dwID );

  00005	ff 75 08	 push	 DWORD PTR _dwID$[ebp]
  00008	be ca 00 00 00	 mov	 esi, 202		; 000000caH
  0000d	68 cb 00 00 00	 push	 203			; 000000cbH
  00012	56		 push	 esi
  00013	8b f9		 mov	 edi, ecx
  00015	ff 15 00 00 00
	00		 call	 DWORD PTR __imp_?CheckRadioButton@ioWnd@@QAEXKKK@Z

; 2217 : 
; 2218 : 	switch( dwID )

  0001b	8b 45 08	 mov	 eax, DWORD PTR _dwID$[ebp]
  0001e	2b c6		 sub	 eax, esi
  00020	74 0b		 je	 SHORT $LN2@SetSlangFi
  00022	48		 dec	 eax
  00023	75 0f		 jne	 SHORT $LN3@SetSlangFi

; 2222 : 		break;
; 2223 : 	case ID_SLANG_FILTER_STAR:
; 2224 : 		m_CurrentOption.m_bSlangFilterChange = false;

  00025	88 87 c3 01 00
	00		 mov	 BYTE PTR [edi+451], al

; 2225 : 		break;

  0002b	eb 07		 jmp	 SHORT $LN3@SetSlangFi
$LN2@SetSlangFi:

; 2219 : 	{
; 2220 : 	case ID_SLANG_FILTER_CHANGE:
; 2221 : 		m_CurrentOption.m_bSlangFilterChange = true;

  0002d	c6 87 c3 01 00
	00 01		 mov	 BYTE PTR [edi+451], 1
$LN3@SetSlangFi:
  00034	5f		 pop	 edi
  00035	5e		 pop	 esi

; 2226 : 	}
; 2227 : }

  00036	5d		 pop	 ebp
  00037	c2 04 00	 ret	 4
?SetSlangFilterFunc@GameOptionSettingGameTab@@IAEXK@Z ENDP ; GameOptionSettingGameTab::SetSlangFilterFunc
_TEXT	ENDS
PUBLIC	?SetSlangFilterTarget@GameOptionSettingGameTab@@IAEXK@Z ; GameOptionSettingGameTab::SetSlangFilterTarget
; Function compile flags: /Ogsp
;	COMDAT ?SetSlangFilterTarget@GameOptionSettingGameTab@@IAEXK@Z
_TEXT	SEGMENT
_dwID$ = 8						; size = 4
?SetSlangFilterTarget@GameOptionSettingGameTab@@IAEXK@Z PROC ; GameOptionSettingGameTab::SetSlangFilterTarget, COMDAT
; _this$ = ecx

; 2230 : {

  00000	55		 push	 ebp
  00001	8b ec		 mov	 ebp, esp
  00003	56		 push	 esi
  00004	57		 push	 edi

; 2231 : 	CheckRadioButton( ID_SLANG_FILTER_OTHER, ID_SLANG_FILTER_ALL, dwID );

  00005	ff 75 08	 push	 DWORD PTR _dwID$[ebp]
  00008	be cd 00 00 00	 mov	 esi, 205		; 000000cdH
  0000d	68 ce 00 00 00	 push	 206			; 000000ceH
  00012	56		 push	 esi
  00013	8b f9		 mov	 edi, ecx
  00015	ff 15 00 00 00
	00		 call	 DWORD PTR __imp_?CheckRadioButton@ioWnd@@QAEXKKK@Z

; 2232 : 
; 2233 : 	switch( dwID )

  0001b	8b 45 08	 mov	 eax, DWORD PTR _dwID$[ebp]
  0001e	2b c6		 sub	 eax, esi
  00020	74 0b		 je	 SHORT $LN2@SetSlangFi@2
  00022	48		 dec	 eax
  00023	75 0f		 jne	 SHORT $LN3@SetSlangFi@2

; 2237 : 		break;
; 2238 : 	case ID_SLANG_FILTER_ALL:
; 2239 : 		m_CurrentOption.m_bSlangFilterOther = false;

  00025	88 87 c4 01 00
	00		 mov	 BYTE PTR [edi+452], al

; 2240 : 		break;

  0002b	eb 07		 jmp	 SHORT $LN3@SetSlangFi@2
$LN2@SetSlangFi@2:

; 2234 : 	{
; 2235 : 	case ID_SLANG_FILTER_OTHER:
; 2236 : 		m_CurrentOption.m_bSlangFilterOther = true;

  0002d	c6 87 c4 01 00
	00 01		 mov	 BYTE PTR [edi+452], 1
$LN3@SetSlangFi@2:
  00034	5f		 pop	 edi
  00035	5e		 pop	 esi

; 2241 : 	}
; 2242 : }

  00036	5d		 pop	 ebp
  00037	c2 04 00	 ret	 4
?SetSlangFilterTarget@GameOptionSettingGameTab@@IAEXK@Z ENDP ; GameOptionSettingGameTab::SetSlangFilterTarget
_TEXT	ENDS
EXTRN	?SetButtonCheck@GameOptionBasicWnd@@IAEXK_N@Z:PROC ; GameOptionBasicWnd::SetButtonCheck
; Function compile flags: /Ogsp
;	COMDAT ?UpdateByCurrentOption@GameOptionSettingGameTab@@MAEXXZ
_TEXT	SEGMENT
?UpdateByCurrentOption@GameOptionSettingGameTab@@MAEXXZ PROC ; GameOptionSettingGameTab::UpdateByCurrentOption, COMDAT
; _this$ = ecx

; 2245 : {

  00000	53		 push	 ebx
  00001	56		 push	 esi
  00002	8b f1		 mov	 esi, ecx

; 2246 : 	SetButtonCheck( ID_AUTO_REJECT_PARTY_BTN, m_CurrentOption.m_bAutoRejctParty );

  00004	0f b6 86 aa 01
	00 00		 movzx	 eax, BYTE PTR [esi+426]
  0000b	57		 push	 edi
  0000c	50		 push	 eax
  0000d	6a 67		 push	 103			; 00000067H
  0000f	e8 00 00 00 00	 call	 ?SetButtonCheck@GameOptionBasicWnd@@IAEXK_N@Z ; GameOptionBasicWnd::SetButtonCheck

; 2247 : 	SetButtonCheck( ID_AUTO_REJECT_CAMP_BTN, m_CurrentOption.m_bAutoRejctCamp );

  00014	0f b6 86 ab 01
	00 00		 movzx	 eax, BYTE PTR [esi+427]
  0001b	50		 push	 eax
  0001c	6a 69		 push	 105			; 00000069H
  0001e	8b ce		 mov	 ecx, esi
  00020	e8 00 00 00 00	 call	 ?SetButtonCheck@GameOptionBasicWnd@@IAEXK_N@Z ; GameOptionBasicWnd::SetButtonCheck

; 2248 : 	SetButtonCheck( ID_BLOCK_USERS_CHAT_BTN, m_CurrentOption.m_bBlockUsersChat );

  00025	0f b6 86 c1 01
	00 00		 movzx	 eax, BYTE PTR [esi+449]
  0002c	50		 push	 eax
  0002d	6a 68		 push	 104			; 00000068H
  0002f	8b ce		 mov	 ecx, esi
  00031	e8 00 00 00 00	 call	 ?SetButtonCheck@GameOptionBasicWnd@@IAEXK_N@Z ; GameOptionBasicWnd::SetButtonCheck

; 2249 : 	SetButtonCheck( ID_CHAT_BUBBLE_ALARM, !m_CurrentOption.m_bChatBubbleAlarm );

  00036	32 db		 xor	 bl, bl
  00038	38 9e ac 01 00
	00		 cmp	 BYTE PTR [esi+428], bl
  0003e	8b ce		 mov	 ecx, esi
  00040	0f 94 c0	 sete	 al
  00043	0f b6 c0	 movzx	 eax, al
  00046	50		 push	 eax
  00047	6a 71		 push	 113			; 00000071H
  00049	e8 00 00 00 00	 call	 ?SetButtonCheck@GameOptionBasicWnd@@IAEXK_N@Z ; GameOptionBasicWnd::SetButtonCheck

; 2250 : 	SetButtonCheck( ID_GUILD_CHAT_ALARM, !m_CurrentOption.m_bGuildChatAlarm );

  0004e	38 9e ad 01 00
	00		 cmp	 BYTE PTR [esi+429], bl
  00054	8b ce		 mov	 ecx, esi
  00056	0f 94 c0	 sete	 al
  00059	0f b6 c0	 movzx	 eax, al
  0005c	50		 push	 eax
  0005d	6a 72		 push	 114			; 00000072H
  0005f	e8 00 00 00 00	 call	 ?SetButtonCheck@GameOptionBasicWnd@@IAEXK_N@Z ; GameOptionBasicWnd::SetButtonCheck

; 2251 : 	SetButtonCheck( ID_SHOW_SKILL_BUFF_EMOTICON, !m_CurrentOption.m_bHideSkillBuffEmoticon );

  00064	38 9e c5 01 00
	00		 cmp	 BYTE PTR [esi+453], bl
  0006a	8b ce		 mov	 ecx, esi
  0006c	0f 94 c0	 sete	 al
  0006f	0f b6 c0	 movzx	 eax, al
  00072	50		 push	 eax
  00073	6a 73		 push	 115			; 00000073H
  00075	e8 00 00 00 00	 call	 ?SetButtonCheck@GameOptionBasicWnd@@IAEXK_N@Z ; GameOptionBasicWnd::SetButtonCheck

; 2252 : 	SetButtonCheck( ID_HIDE_MINI_SOLDIER_SELECT_SLOT, m_CurrentOption.m_bHideMiniSoldierSelectSlot );

  0007a	0f b6 86 c6 01
	00 00		 movzx	 eax, BYTE PTR [esi+454]
  00081	50		 push	 eax
  00082	6a 74		 push	 116			; 00000074H
  00084	8b ce		 mov	 ecx, esi
  00086	e8 00 00 00 00	 call	 ?SetButtonCheck@GameOptionBasicWnd@@IAEXK_N@Z ; GameOptionBasicWnd::SetButtonCheck

; 2253 : 	SetButtonCheck( ID_BLOCK_USERS_CUSTOM_SOUND_BTN, m_CurrentOption.m_bBlockUsersCustomSound );

  0008b	0f b6 86 c2 01
	00 00		 movzx	 eax, BYTE PTR [esi+450]
  00092	50		 push	 eax
  00093	6a 76		 push	 118			; 00000076H
  00095	8b ce		 mov	 ecx, esi
  00097	e8 00 00 00 00	 call	 ?SetButtonCheck@GameOptionBasicWnd@@IAEXK_N@Z ; GameOptionBasicWnd::SetButtonCheck

; 2254 : 	SetButtonCheck( ID_COSTUME_SHOW_FUNC, m_CurrentOption.m_bCostumeShowChange );

  0009c	0f b6 86 c8 01
	00 00		 movzx	 eax, BYTE PTR [esi+456]
  000a3	50		 push	 eax
  000a4	68 dd 00 00 00	 push	 221			; 000000ddH
  000a9	8b ce		 mov	 ecx, esi
  000ab	e8 00 00 00 00	 call	 ?SetButtonCheck@GameOptionBasicWnd@@IAEXK_N@Z ; GameOptionBasicWnd::SetButtonCheck

; 2255 : 	SetButtonCheck( ID_BATTLE_CUTIN_SHOW, m_CurrentOption.m_bBattleCutinShow );

  000b0	0f b6 86 cb 01
	00 00		 movzx	 eax, BYTE PTR [esi+459]
  000b7	50		 push	 eax
  000b8	68 de 00 00 00	 push	 222			; 000000deH
  000bd	8b ce		 mov	 ecx, esi
  000bf	e8 00 00 00 00	 call	 ?SetButtonCheck@GameOptionBasicWnd@@IAEXK_N@Z ; GameOptionBasicWnd::SetButtonCheck

; 2256 : 
; 2257 : 	if( m_CurrentOption.m_bSlangFilterChange )
; 2258 : 		CheckRadioButton( ID_SLANG_FILTER_CHANGE, ID_SLANG_FILTER_STAR, ID_SLANG_FILTER_CHANGE );

  000c4	8b 3d 00 00 00
	00		 mov	 edi, DWORD PTR __imp_?CheckRadioButton@ioWnd@@QAEXKKK@Z
  000ca	8b ce		 mov	 ecx, esi
  000cc	38 9e c3 01 00
	00		 cmp	 BYTE PTR [esi+451], bl
  000d2	74 0e		 je	 SHORT $LN4@UpdateByCu
  000d4	b8 ca 00 00 00	 mov	 eax, 202		; 000000caH
  000d9	50		 push	 eax
  000da	68 cb 00 00 00	 push	 203			; 000000cbH
  000df	50		 push	 eax

; 2259 : 	else

  000e0	eb 0c		 jmp	 SHORT $LN7@UpdateByCu
$LN4@UpdateByCu:

; 2260 : 		CheckRadioButton( ID_SLANG_FILTER_CHANGE, ID_SLANG_FILTER_STAR, ID_SLANG_FILTER_STAR );

  000e2	b8 cb 00 00 00	 mov	 eax, 203		; 000000cbH
  000e7	50		 push	 eax
  000e8	50		 push	 eax
  000e9	68 ca 00 00 00	 push	 202			; 000000caH
$LN7@UpdateByCu:
  000ee	ff d7		 call	 edi

; 2261 : 
; 2262 : 	if( m_CurrentOption.m_bSlangFilterOther )
; 2263 : 		CheckRadioButton( ID_SLANG_FILTER_OTHER, ID_SLANG_FILTER_ALL, ID_SLANG_FILTER_OTHER );

  000f0	8b ce		 mov	 ecx, esi
  000f2	38 9e c4 01 00
	00		 cmp	 BYTE PTR [esi+452], bl
  000f8	74 0e		 je	 SHORT $LN2@UpdateByCu
  000fa	b8 cd 00 00 00	 mov	 eax, 205		; 000000cdH
  000ff	50		 push	 eax
  00100	68 ce 00 00 00	 push	 206			; 000000ceH
  00105	50		 push	 eax

; 2264 : 	else

  00106	eb 0c		 jmp	 SHORT $LN8@UpdateByCu
$LN2@UpdateByCu:

; 2265 : 		CheckRadioButton( ID_SLANG_FILTER_OTHER, ID_SLANG_FILTER_ALL, ID_SLANG_FILTER_ALL );

  00108	b8 ce 00 00 00	 mov	 eax, 206		; 000000ceH
  0010d	50		 push	 eax
  0010e	50		 push	 eax
  0010f	68 cd 00 00 00	 push	 205			; 000000cdH
$LN8@UpdateByCu:
  00114	ff d7		 call	 edi
  00116	5f		 pop	 edi
  00117	5e		 pop	 esi
  00118	5b		 pop	 ebx

; 2266 : }

  00119	c3		 ret	 0
?UpdateByCurrentOption@GameOptionSettingGameTab@@MAEXXZ ENDP ; GameOptionSettingGameTab::UpdateByCurrentOption
_TEXT	ENDS
PUBLIC	??1tagMecroTextInfo@CKeyInfo@@QAE@XZ		; CKeyInfo::tagMecroTextInfo::~tagMecroTextInfo
; Function compile flags: /Ogsp
;	COMDAT ??1tagMecroTextInfo@CKeyInfo@@QAE@XZ
_TEXT	SEGMENT
??1tagMecroTextInfo@CKeyInfo@@QAE@XZ PROC		; CKeyInfo::tagMecroTextInfo::~tagMecroTextInfo, COMDAT
; _this$ = ecx
  00000	83 c1 04	 add	 ecx, 4
  00003	ff 25 00 00 00
	00		 jmp	 DWORD PTR __imp_??1ioHashString@@QAE@XZ
??1tagMecroTextInfo@CKeyInfo@@QAE@XZ ENDP		; CKeyInfo::tagMecroTextInfo::~tagMecroTextInfo
; Function compile flags: /Ogsp
_TEXT	ENDS
;	COMDAT ?iwm_hide@GameOptionSettingGameTab@@UAEXXZ
_TEXT	SEGMENT
?iwm_hide@GameOptionSettingGameTab@@UAEXXZ PROC		; GameOptionSettingGameTab::iwm_hide, COMDAT
; _this$ = ecx

; 2313 : {

  00000	56		 push	 esi
  00001	8b f1		 mov	 esi, ecx

; 2314 : 	if( m_pPreEdit )

  00003	8b 8e 38 02 00
	00		 mov	 ecx, DWORD PTR [esi+568]
  00009	57		 push	 edi
  0000a	85 c9		 test	 ecx, ecx
  0000c	74 24		 je	 SHORT $LN4@iwm_hide@4

; 2315 : 	{
; 2316 : 		ioWnd *pParent = m_pPreEdit->GetParent();

  0000e	ff 15 00 00 00
	00		 call	 DWORD PTR __imp_?GetParent@ioWnd@@QAEPAV1@XZ

; 2317 : 		if( pParent )

  00014	85 c0		 test	 eax, eax
  00016	74 1a		 je	 SHORT $LN4@iwm_hide@4

; 2318 : 		{
; 2319 : 			if( pParent->IsShow() )

  00018	8b c8		 mov	 ecx, eax
  0001a	ff 15 00 00 00
	00		 call	 DWORD PTR __imp_?IsShow@ioWnd@@QBE_NXZ
  00020	84 c0		 test	 al, al
  00022	74 0e		 je	 SHORT $LN4@iwm_hide@4

; 2320 : 			{
; 2321 : 				m_pPreEdit->SetKeyFocus();

  00024	8b 8e 38 02 00
	00		 mov	 ecx, DWORD PTR [esi+568]
  0002a	8b 01		 mov	 eax, DWORD PTR [ecx]
  0002c	ff 90 30 01 00
	00		 call	 DWORD PTR [eax+304]
$LN4@iwm_hide@4:

; 2322 : 			}
; 2323 : 		}
; 2324 : 	}
; 2325 : 	m_pPreEdit = NULL;

  00032	83 a6 38 02 00
	00 00		 and	 DWORD PTR [esi+568], 0

; 2326 : 
; 2327 : 	for (int i = 0; i < MAX_SHOW_ITEM_WND ; i++)

  00039	33 ff		 xor	 edi, edi
$LL3@iwm_hide@4:

; 2328 : 	{
; 2329 : 		HideChildWnd( ID_SETTING_MACRO_ITEM_WND1 + i );

  0003b	6a 00		 push	 0
  0003d	8d 87 2d 01 00
	00		 lea	 eax, DWORD PTR [edi+301]
  00043	50		 push	 eax
  00044	8b ce		 mov	 ecx, esi
  00046	ff 15 00 00 00
	00		 call	 DWORD PTR __imp_?HideChildWnd@ioWnd@@QAEXK_N@Z
  0004c	47		 inc	 edi
  0004d	83 ff 0c	 cmp	 edi, 12			; 0000000cH
  00050	7c e9		 jl	 SHORT $LL3@iwm_hide@4

; 2330 : 	}
; 2331 : }

  00052	5f		 pop	 edi
  00053	5e		 pop	 esi
  00054	c3		 ret	 0
?iwm_hide@GameOptionSettingGameTab@@UAEXXZ ENDP		; GameOptionSettingGameTab::iwm_hide
_TEXT	ENDS
PUBLIC	__real@3f333333
PUBLIC	??_C@_0CD@MNIOPMOA@GameOptionSettingGameTab?3?3OnRend@ ; `string'
;	COMDAT __real@3f333333
CONST	SEGMENT
__real@3f333333 DD 03f333333r			; 0.7
CONST	ENDS
;	COMDAT ??_C@_0CD@MNIOPMOA@GameOptionSettingGameTab?3?3OnRend@
CONST	SEGMENT
??_C@_0CD@MNIOPMOA@GameOptionSettingGameTab?3?3OnRend@ DB 'GameOptionSett'
	DB	'ingGameTab::OnRender', 00H			; `string'
; Function compile flags: /Ogsp
CONST	ENDS
;	COMDAT ?OnRender@GameOptionSettingGameTab@@MAEXXZ
_TEXT	SEGMENT
tv338 = -8						; size = 4
tv386 = -4						; size = 4
_iXPos$ = -4						; size = 4
?OnRender@GameOptionSettingGameTab@@MAEXXZ PROC		; GameOptionSettingGameTab::OnRender, COMDAT
; _this$ = ecx

; 2341 : {

  00000	55		 push	 ebp
  00001	8b ec		 mov	 ebp, esp
  00003	51		 push	 ecx
  00004	51		 push	 ecx
  00005	53		 push	 ebx
  00006	56		 push	 esi
  00007	57		 push	 edi
  00008	8b f1		 mov	 esi, ecx

; 2342 : 	GameOptionBasicWnd::OnRender();

  0000a	ff 15 00 00 00
	00		 call	 DWORD PTR __imp_?OnRender@ioWnd@@MAEXXZ

; 2343 : 
; 2344 : 	int iXPos = GetDerivedPosX();

  00010	8b ce		 mov	 ecx, esi
  00012	ff 15 00 00 00
	00		 call	 DWORD PTR __imp_?GetDerivedPosX@ioWnd@@QBEHXZ

; 2345 : 	int iYPos = GetDerivedPosY();

  00018	8b ce		 mov	 ecx, esi
  0001a	89 45 fc	 mov	 DWORD PTR _iXPos$[ebp], eax
  0001d	ff 15 00 00 00
	00		 call	 DWORD PTR __imp_?GetDerivedPosY@ioWnd@@QBEHXZ

; 2346 : 	if( m_pIconBack )

  00023	33 ff		 xor	 edi, edi
  00025	8b d8		 mov	 ebx, eax
  00027	39 be 04 02 00
	00		 cmp	 DWORD PTR [esi+516], edi
  0002d	0f 84 81 00 00
	00		 je	 $LN6@OnRender@3

; 2347 : 	{
; 2348 : 		m_pIconBack->SetScale( 0.30f );

  00033	8b 8e 04 02 00
	00		 mov	 ecx, DWORD PTR [esi+516]
  00039	f3 0f 10 05 00
	00 00 00	 movss	 xmm0, DWORD PTR __real@3e99999a
  00041	8b 01		 mov	 eax, DWORD PTR [ecx]
  00043	51		 push	 ecx
  00044	f3 0f 11 04 24	 movss	 DWORD PTR [esp], xmm0
  00049	ff 50 1c	 call	 DWORD PTR [eax+28]

; 2349 : 		m_pIconBack->Render( iXPos + 30, iYPos + 27, UI_RENDER_MULTIPLY, TFO_BILINEAR );

  0004c	8b 8e 04 02 00
	00		 mov	 ecx, DWORD PTR [esi+516]
  00052	8b 45 fc	 mov	 eax, DWORD PTR _iXPos$[ebp]
  00055	57		 push	 edi
  00056	57		 push	 edi
  00057	6a 01		 push	 1
  00059	6a 08		 push	 8
  0005b	83 c0 1e	 add	 eax, 30			; 0000001eH
  0005e	51		 push	 ecx
  0005f	8d 53 1b	 lea	 edx, DWORD PTR [ebx+27]
  00062	51		 push	 ecx
  00063	0f 57 c0	 xorps	 xmm0, xmm0
  00066	f3 0f 2a c0	 cvtsi2ss xmm0, eax
  0006a	8b 01		 mov	 eax, DWORD PTR [ecx]
  0006c	0f 57 c9	 xorps	 xmm1, xmm1
  0006f	f3 0f 2a ca	 cvtsi2ss xmm1, edx
  00073	f3 0f 11 4c 24
	04		 movss	 DWORD PTR [esp+4], xmm1
  00079	f3 0f 11 45 f8	 movss	 DWORD PTR tv338[ebp], xmm0
  0007e	f3 0f 11 04 24	 movss	 DWORD PTR [esp], xmm0
  00083	ff 10		 call	 DWORD PTR [eax]

; 2350 : 		m_pIconBack->Render( iXPos + 30, iYPos + 195, UI_RENDER_MULTIPLY, TFO_BILINEAR );

  00085	8b 8e 04 02 00
	00		 mov	 ecx, DWORD PTR [esi+516]
  0008b	8b 01		 mov	 eax, DWORD PTR [ecx]
  0008d	57		 push	 edi
  0008e	57		 push	 edi
  0008f	6a 01		 push	 1
  00091	6a 08		 push	 8
  00093	51		 push	 ecx
  00094	8d 93 c3 00 00
	00		 lea	 edx, DWORD PTR [ebx+195]
  0009a	0f 57 c0	 xorps	 xmm0, xmm0
  0009d	51		 push	 ecx
  0009e	f3 0f 2a c2	 cvtsi2ss xmm0, edx
  000a2	f3 0f 11 44 24
	04		 movss	 DWORD PTR [esp+4], xmm0
  000a8	f3 0f 10 45 f8	 movss	 xmm0, DWORD PTR tv338[ebp]
  000ad	f3 0f 11 04 24	 movss	 DWORD PTR [esp], xmm0
  000b2	ff 10		 call	 DWORD PTR [eax]
$LN6@OnRender@3:

; 2351 : 	}
; 2352 : 	if( m_pIconGame )

  000b4	39 be 08 02 00
	00		 cmp	 DWORD PTR [esi+520], edi
  000ba	74 4c		 je	 SHORT $LN2@OnRender@3

; 2353 : 	{
; 2354 : 		m_pIconGame->SetScale( 0.30f );

  000bc	8b 8e 08 02 00
	00		 mov	 ecx, DWORD PTR [esi+520]
  000c2	f3 0f 10 05 00
	00 00 00	 movss	 xmm0, DWORD PTR __real@3e99999a
  000ca	8b 01		 mov	 eax, DWORD PTR [ecx]
  000cc	51		 push	 ecx
  000cd	f3 0f 11 04 24	 movss	 DWORD PTR [esp], xmm0
  000d2	ff 50 1c	 call	 DWORD PTR [eax+28]

; 2355 : 		m_pIconGame->Render( iXPos + 30, iYPos + 27, UI_RENDER_NORMAL, TFO_BILINEAR );

  000d5	8b 8e 08 02 00
	00		 mov	 ecx, DWORD PTR [esi+520]
  000db	8b 01		 mov	 eax, DWORD PTR [ecx]
  000dd	57		 push	 edi
  000de	57		 push	 edi
  000df	6a 01		 push	 1
  000e1	57		 push	 edi
  000e2	0f 57 c0	 xorps	 xmm0, xmm0
  000e5	8d 53 1b	 lea	 edx, DWORD PTR [ebx+27]
  000e8	f3 0f 2a c2	 cvtsi2ss xmm0, edx
  000ec	8b 55 fc	 mov	 edx, DWORD PTR _iXPos$[ebp]
  000ef	51		 push	 ecx
  000f0	51		 push	 ecx
  000f1	f3 0f 11 44 24
	04		 movss	 DWORD PTR [esp+4], xmm0
  000f7	83 c2 1e	 add	 edx, 30			; 0000001eH
  000fa	0f 57 c0	 xorps	 xmm0, xmm0
  000fd	f3 0f 2a c2	 cvtsi2ss xmm0, edx
  00101	f3 0f 11 04 24	 movss	 DWORD PTR [esp], xmm0
  00106	ff 10		 call	 DWORD PTR [eax]
$LN2@OnRender@3:

; 2356 : 	}
; 2357 : 	if( m_pIconMacro )

  00108	39 be 0c 02 00
	00		 cmp	 DWORD PTR [esi+524], edi
  0010e	74 4f		 je	 SHORT $LN1@OnRender@3

; 2358 : 	{
; 2359 : 		m_pIconMacro->SetScale( 0.30f );

  00110	8b 8e 0c 02 00
	00		 mov	 ecx, DWORD PTR [esi+524]
  00116	f3 0f 10 05 00
	00 00 00	 movss	 xmm0, DWORD PTR __real@3e99999a
  0011e	8b 01		 mov	 eax, DWORD PTR [ecx]
  00120	51		 push	 ecx
  00121	f3 0f 11 04 24	 movss	 DWORD PTR [esp], xmm0
  00126	ff 50 1c	 call	 DWORD PTR [eax+28]

; 2360 : 		m_pIconMacro->Render( iXPos + 30, iYPos + 195, UI_RENDER_NORMAL, TFO_BILINEAR );

  00129	8b 8e 0c 02 00
	00		 mov	 ecx, DWORD PTR [esi+524]
  0012f	8b 01		 mov	 eax, DWORD PTR [ecx]
  00131	57		 push	 edi
  00132	57		 push	 edi
  00133	6a 01		 push	 1
  00135	57		 push	 edi
  00136	0f 57 c0	 xorps	 xmm0, xmm0
  00139	8d 93 c3 00 00
	00		 lea	 edx, DWORD PTR [ebx+195]
  0013f	f3 0f 2a c2	 cvtsi2ss xmm0, edx
  00143	8b 55 fc	 mov	 edx, DWORD PTR _iXPos$[ebp]
  00146	51		 push	 ecx
  00147	51		 push	 ecx
  00148	f3 0f 11 44 24
	04		 movss	 DWORD PTR [esp+4], xmm0
  0014e	83 c2 1e	 add	 edx, 30			; 0000001eH
  00151	0f 57 c0	 xorps	 xmm0, xmm0
  00154	f3 0f 2a c2	 cvtsi2ss xmm0, edx
  00158	f3 0f 11 04 24	 movss	 DWORD PTR [esp], xmm0
  0015d	ff 10		 call	 DWORD PTR [eax]
$LN1@OnRender@3:

; 2361 : 	}
; 2362 : 
; 2363 : 	g_FontMgr.SetAlignType( TAT_LEFT );

  0015f	8b 35 00 00 00
	00		 mov	 esi, DWORD PTR __imp_?GetSingleton@ioFontManager@@SAAAV1@XZ
  00165	57		 push	 edi
  00166	ff d6		 call	 esi
  00168	8b c8		 mov	 ecx, eax
  0016a	ff 15 00 00 00
	00		 call	 DWORD PTR __imp_?SetAlignType@ioFontManager@@QAEXW4TextAlignType@@@Z

; 2364 : 	g_FontMgr.SetTextStyle( TS_NORMAL );

  00170	57		 push	 edi
  00171	ff d6		 call	 esi
  00173	8b c8		 mov	 ecx, eax
  00175	ff 15 00 00 00
	00		 call	 DWORD PTR __imp_?SetTextStyle@ioFontManager@@QAEXW4TextStyle@@@Z

; 2365 : 	g_FontMgr.SetBkColor( 0, 0, 0 );

  0017b	57		 push	 edi
  0017c	57		 push	 edi
  0017d	57		 push	 edi
  0017e	ff d6		 call	 esi
  00180	8b c8		 mov	 ecx, eax
  00182	ff 15 00 00 00
	00		 call	 DWORD PTR __imp_?SetBkColor@ioFontManager@@QAEXHHH@Z

; 2366 : 	g_FontMgr.SetTextColor( TCT_DEFAULT_DARKGRAY );

  00188	68 3a 3a 3a ff	 push	 -12961222		; ff3a3a3aH
  0018d	ff d6		 call	 esi
  0018f	8b c8		 mov	 ecx, eax
  00191	ff 15 00 00 00
	00		 call	 DWORD PTR __imp_?SetTextColor@ioFontManager@@QAEXK@Z

; 2367 : 	g_FontMgr.PrintText( iXPos + 44, iYPos + 19, FONT_SIZE_14, STR(1) );

  00197	8b 45 fc	 mov	 eax, DWORD PTR _iXPos$[ebp]
  0019a	57		 push	 edi
  0019b	6a 01		 push	 1
  0019d	83 c0 2c	 add	 eax, 44			; 0000002cH
  001a0	0f 57 c0	 xorps	 xmm0, xmm0
  001a3	68 00 00 00 00	 push	 OFFSET ??_C@_00CNPNBAHC@?$AA@
  001a8	f3 0f 2a c0	 cvtsi2ss xmm0, eax
  001ac	68 00 00 00 00	 push	 OFFSET ??_C@_0CD@MNIOPMOA@GameOptionSettingGameTab?3?3OnRend@
  001b1	f3 0f 11 45 fc	 movss	 DWORD PTR tv386[ebp], xmm0
  001b6	ff 15 00 00 00
	00		 call	 DWORD PTR __imp_?GetSingleton@ioStringManager@@SAAAV1@XZ
  001bc	8b c8		 mov	 ecx, eax
  001be	ff 15 00 00 00
	00		 call	 DWORD PTR __imp_?GetString@ioStringManager@@QAEPADPBD0HW4FileNamePrefix@1@@Z
  001c4	f3 0f 10 05 00
	00 00 00	 movss	 xmm0, DWORD PTR __real@3f333333
  001cc	50		 push	 eax
  001cd	83 ec 0c	 sub	 esp, 12			; 0000000cH
  001d0	f3 0f 11 44 24
	08		 movss	 DWORD PTR [esp+8], xmm0
  001d6	8d 43 13	 lea	 eax, DWORD PTR [ebx+19]
  001d9	0f 57 c0	 xorps	 xmm0, xmm0
  001dc	f3 0f 2a c0	 cvtsi2ss xmm0, eax
  001e0	f3 0f 11 44 24
	04		 movss	 DWORD PTR [esp+4], xmm0
  001e6	f3 0f 10 45 fc	 movss	 xmm0, DWORD PTR tv386[ebp]
  001eb	f3 0f 11 04 24	 movss	 DWORD PTR [esp], xmm0
  001f0	ff d6		 call	 esi
  001f2	50		 push	 eax
  001f3	ff 15 00 00 00
	00		 call	 DWORD PTR __imp_?PrintText@ioFontManager@@QAAXMMMPBDZZ
  001f9	83 c4 14	 add	 esp, 20			; 00000014H

; 2368 : 	g_FontMgr.PrintText( iXPos + 44, iYPos + 187, FONT_SIZE_14, STR(2) );

  001fc	57		 push	 edi
  001fd	6a 02		 push	 2
  001ff	68 00 00 00 00	 push	 OFFSET ??_C@_00CNPNBAHC@?$AA@
  00204	68 00 00 00 00	 push	 OFFSET ??_C@_0CD@MNIOPMOA@GameOptionSettingGameTab?3?3OnRend@
  00209	ff 15 00 00 00
	00		 call	 DWORD PTR __imp_?GetSingleton@ioStringManager@@SAAAV1@XZ
  0020f	8b c8		 mov	 ecx, eax
  00211	ff 15 00 00 00
	00		 call	 DWORD PTR __imp_?GetString@ioStringManager@@QAEPADPBD0HW4FileNamePrefix@1@@Z
  00217	f3 0f 10 05 00
	00 00 00	 movss	 xmm0, DWORD PTR __real@3f333333
  0021f	50		 push	 eax
  00220	83 ec 0c	 sub	 esp, 12			; 0000000cH
  00223	f3 0f 11 44 24
	08		 movss	 DWORD PTR [esp+8], xmm0
  00229	0f 57 c0	 xorps	 xmm0, xmm0
  0022c	81 c3 bb 00 00
	00		 add	 ebx, 187		; 000000bbH
  00232	f3 0f 2a c3	 cvtsi2ss xmm0, ebx
  00236	f3 0f 11 44 24
	04		 movss	 DWORD PTR [esp+4], xmm0
  0023c	f3 0f 10 45 fc	 movss	 xmm0, DWORD PTR tv386[ebp]
  00241	f3 0f 11 04 24	 movss	 DWORD PTR [esp], xmm0
  00246	ff d6		 call	 esi
  00248	50		 push	 eax
  00249	ff 15 00 00 00
	00		 call	 DWORD PTR __imp_?PrintText@ioFontManager@@QAAXMMMPBDZZ
  0024f	83 c4 14	 add	 esp, 20			; 00000014H
  00252	5f		 pop	 edi
  00253	5e		 pop	 esi
  00254	5b		 pop	 ebx

; 2369 : }

  00255	c9		 leave
  00256	c3		 ret	 0
?OnRender@GameOptionSettingGameTab@@MAEXXZ ENDP		; GameOptionSettingGameTab::OnRender
_TEXT	ENDS
PUBLIC	??_7GameOptionMovieScreenShotTab@@6B@		; GameOptionMovieScreenShotTab::`vftable'
PUBLIC	??0GameOptionMovieScreenShotTab@@QAE@XZ		; GameOptionMovieScreenShotTab::GameOptionMovieScreenShotTab
PUBLIC	??_R4GameOptionMovieScreenShotTab@@6B@		; GameOptionMovieScreenShotTab::`RTTI Complete Object Locator'
PUBLIC	??_R0?AVGameOptionMovieScreenShotTab@@@8	; GameOptionMovieScreenShotTab `RTTI Type Descriptor'
PUBLIC	??_R3GameOptionMovieScreenShotTab@@8		; GameOptionMovieScreenShotTab::`RTTI Class Hierarchy Descriptor'
PUBLIC	??_R2GameOptionMovieScreenShotTab@@8		; GameOptionMovieScreenShotTab::`RTTI Base Class Array'
PUBLIC	??_R1A@?0A@EA@GameOptionMovieScreenShotTab@@8	; GameOptionMovieScreenShotTab::`RTTI Base Class Descriptor at (0,-1,0,64)'
PUBLIC	?AddRenderImage@GameOptionMovieScreenShotTab@@MAEXABVioHashString@@PAVioUIRenderImage@@@Z ; GameOptionMovieScreenShotTab::AddRenderImage
PUBLIC	?ParseExtraInfo@GameOptionMovieScreenShotTab@@UAEXAAVioXMLElement@@@Z ; GameOptionMovieScreenShotTab::ParseExtraInfo
PUBLIC	?OnRender@GameOptionMovieScreenShotTab@@MAEXXZ	; GameOptionMovieScreenShotTab::OnRender
PUBLIC	?iwm_create@GameOptionMovieScreenShotTab@@UAEXXZ ; GameOptionMovieScreenShotTab::iwm_create
PUBLIC	?iwm_command@GameOptionMovieScreenShotTab@@UAEXPAVioWnd@@HK@Z ; GameOptionMovieScreenShotTab::iwm_command
PUBLIC	?iwm_show@GameOptionMovieScreenShotTab@@UAEXXZ	; GameOptionMovieScreenShotTab::iwm_show
PUBLIC	?iwm_hide@GameOptionMovieScreenShotTab@@UAEXXZ	; GameOptionMovieScreenShotTab::iwm_hide
PUBLIC	?UpdateByCurrentOption@GameOptionMovieScreenShotTab@@MAEXXZ ; GameOptionMovieScreenShotTab::UpdateByCurrentOption
EXTRN	??_EGameOptionMovieScreenShotTab@@UAEPAXI@Z:PROC ; GameOptionMovieScreenShotTab::`vector deleting destructor'
;	COMDAT ??_R1A@?0A@EA@GameOptionMovieScreenShotTab@@8
rdata$r	SEGMENT
??_R1A@?0A@EA@GameOptionMovieScreenShotTab@@8 DD FLAT:??_R0?AVGameOptionMovieScreenShotTab@@@8 ; GameOptionMovieScreenShotTab::`RTTI Base Class Descriptor at (0,-1,0,64)'
	DD	02H
	DD	00H
	DD	0ffffffffH
	DD	00H
	DD	040H
	DD	FLAT:??_R3GameOptionMovieScreenShotTab@@8
rdata$r	ENDS
;	COMDAT ??_R2GameOptionMovieScreenShotTab@@8
rdata$r	SEGMENT
??_R2GameOptionMovieScreenShotTab@@8 DD FLAT:??_R1A@?0A@EA@GameOptionMovieScreenShotTab@@8 ; GameOptionMovieScreenShotTab::`RTTI Base Class Array'
	DD	FLAT:??_R1A@?0A@EA@GameOptionBasicWnd@@8
	DD	FLAT:??_R1A@?0A@EA@ioWnd@@8
rdata$r	ENDS
;	COMDAT ??_R3GameOptionMovieScreenShotTab@@8
rdata$r	SEGMENT
??_R3GameOptionMovieScreenShotTab@@8 DD 00H		; GameOptionMovieScreenShotTab::`RTTI Class Hierarchy Descriptor'
	DD	00H
	DD	03H
	DD	FLAT:??_R2GameOptionMovieScreenShotTab@@8
rdata$r	ENDS
;	COMDAT ??_R0?AVGameOptionMovieScreenShotTab@@@8
_DATA	SEGMENT
??_R0?AVGameOptionMovieScreenShotTab@@@8 DD FLAT:??_7type_info@@6B@ ; GameOptionMovieScreenShotTab `RTTI Type Descriptor'
	DD	00H
	DB	'.?AVGameOptionMovieScreenShotTab@@', 00H
_DATA	ENDS
;	COMDAT ??_R4GameOptionMovieScreenShotTab@@6B@
rdata$r	SEGMENT
??_R4GameOptionMovieScreenShotTab@@6B@ DD 00H		; GameOptionMovieScreenShotTab::`RTTI Complete Object Locator'
	DD	00H
	DD	00H
	DD	FLAT:??_R0?AVGameOptionMovieScreenShotTab@@@8
	DD	FLAT:??_R3GameOptionMovieScreenShotTab@@8
rdata$r	ENDS
;	COMDAT ??_7GameOptionMovieScreenShotTab@@6B@
CONST	SEGMENT
??_7GameOptionMovieScreenShotTab@@6B@ DD FLAT:??_R4GameOptionMovieScreenShotTab@@6B@ ; GameOptionMovieScreenShotTab::`vftable'
	DD	FLAT:?AddRenderFrame@ioWnd@@UAEXABVioHashString@@PAVioUIRenderFrame@@@Z
	DD	FLAT:?AddRenderImage@GameOptionMovieScreenShotTab@@MAEXABVioHashString@@PAVioUIRenderImage@@@Z
	DD	FLAT:?AddTooltipHelp@ioWnd@@UAEXABVioHashString@@00@Z
	DD	FLAT:?ParseExtraInfo@GameOptionMovieScreenShotTab@@UAEXAAVioXMLElement@@@Z
	DD	FLAT:?AddNamedRenderImage@ioWnd@@UAEXABVioHashString@@PAVioUIRenderImage@@@Z
	DD	FLAT:?RemoveNamedRenderImage@ioWnd@@UAEXABVioHashString@@@Z
	DD	FLAT:?GetNamedRenderImage@ioWnd@@UBEPAVioUIRenderImage@@ABVioHashString@@@Z
	DD	FLAT:?SetWindowAlpha@ioWnd@@UAEXH@Z
	DD	FLAT:?SetActive@ioWnd@@UAEXXZ
	DD	FLAT:?SetInActive@ioWnd@@UAEXXZ
	DD	FLAT:?ClearElementImageList@ioWnd@@UAEXXZ
	DD	FLAT:?SetSize@ioWnd@@UAEXHH@Z
	DD	FLAT:?SetPositionToDefault@ioWnd@@UAEXHH_N0@Z
	DD	FLAT:?IsNeedProcess@ioWnd@@UBE_NXZ
	DD	FLAT:?IsCanMouseReaction@ioWnd@@UBE_NXZ
	DD	FLAT:?AddChild@ioWnd@@UAEXPAV1@@Z
	DD	FLAT:?DeleteChild@ioWnd@@UAEXK@Z
	DD	FLAT:?DeleteAllChild@ioWnd@@UAEXXZ
	DD	FLAT:?OnRenderShowAndHide@ioWnd@@MAE_NXZ
	DD	FLAT:?OnRenderShowAndHideByDefault@ioWnd@@MAE_NK@Z
	DD	FLAT:?OnRenderShowAndHideByTop@ioWnd@@MAE_NK@Z
	DD	FLAT:?OnRenderShowAndHideByDown@ioWnd@@MAE_NK@Z
	DD	FLAT:?OnRender@GameOptionMovieScreenShotTab@@MAEXXZ
	DD	FLAT:?OnRenderAfterChild@ioWnd@@MAEXXZ
	DD	FLAT:?OnProcess@ioWnd@@MAEXM@Z
	DD	FLAT:?OnMouseProcess@ioWnd@@MAEXABVioMouse@@@Z
	DD	FLAT:?CheckFrameReSize@ioWnd@@MAEXHHHH@Z
	DD	FLAT:?RenderImageList@ioWnd@@MAEXHHW4UIRenderType@@@Z
	DD	FLAT:?iwm_create@GameOptionMovieScreenShotTab@@UAEXXZ
	DD	FLAT:?iwm_destroy@ioWnd@@UAEXXZ
	DD	FLAT:?iwm_lbuttondown@ioWnd@@UAEXABVioMouse@@@Z
	DD	FLAT:?iwm_lbuttonup@ioWnd@@UAEXABVioMouse@@@Z
	DD	FLAT:?iwm_lbuttonDBLCLK@ioWnd@@UAEXABVioMouse@@@Z
	DD	FLAT:?iwm_rbuttondown@ioWnd@@UAEXABVioMouse@@@Z
	DD	FLAT:?iwm_rbuttonup@ioWnd@@UAEXABVioMouse@@@Z
	DD	FLAT:?iwm_command@GameOptionMovieScreenShotTab@@UAEXPAVioWnd@@HK@Z
	DD	FLAT:?iwm_mouseover@ioWnd@@UAEXABVioMouse@@@Z
	DD	FLAT:?iwm_mousemove@ioWnd@@UAEXABVioMouse@@@Z
	DD	FLAT:?iwm_mouseleave@ioWnd@@UAEXABVioMouse@@@Z
	DD	FLAT:?iwm_vscroll@ioWnd@@UAEXKH@Z
	DD	FLAT:?iwm_wheel@ioWnd@@UAEXH@Z
	DD	FLAT:?iwm_show@GameOptionMovieScreenShotTab@@UAEXXZ
	DD	FLAT:?iwm_hide@GameOptionMovieScreenShotTab@@UAEXXZ
	DD	FLAT:?iwm_esc@ioWnd@@UAE_NXZ
	DD	FLAT:?iwm_spacebar@ioWnd@@UAE_NXZ
	DD	FLAT:?iwm_gototop@ioWnd@@UAEXXZ
	DD	FLAT:?iwm_dragenter@ioWnd@@UAE?AW4IWDropEffect@@PAVioDragItem@@ABVioMouse@@@Z
	DD	FLAT:?iwm_dragover@ioWnd@@UAE?AW4IWDropEffect@@PAVioDragItem@@ABVioMouse@@@Z
	DD	FLAT:?iwm_dragleave@ioWnd@@UAEXXZ
	DD	FLAT:?iwm_dropitem@ioWnd@@UAE_NPAVioDragItem@@ABVioMouse@@PAV1@@Z
	DD	FLAT:?iwm_dropdone@ioWnd@@UAEXPAVioDragItem@@PAV1@_N@Z
	DD	FLAT:?IsEXType@ioWnd@@UBE_NXZ
	DD	FLAT:?GetWndType@ioWnd@@UBEKXZ
	DD	FLAT:?RenderWnd@ioWnd@@UAEXXZ
	DD	FLAT:?SetIDEX@ioWnd@@UAEXAAK_N@Z
	DD	FLAT:?ParseXML@ioWnd@@UAEXAAVioXMLElement@@@Z
	DD	FLAT:?GetHeaderFileName@ioWnd@@UAEPBDXZ
	DD	FLAT:?GetTemplateName@ioWnd@@UAEPBDXZ
	DD	FLAT:?GetDefClassName@ioWnd@@UBEPBDXZ
	DD	FLAT:?_Clone@ioWnd@@UAEPAV1@XZ
	DD	FLAT:?Copy@ioWnd@@UAEXPAV1@@Z
	DD	FLAT:?Save@ioWnd@@UAE_NAAVioXMLElement@@@Z
	DD	FLAT:?SetSaveData@ioWnd@@UAEXAAVioXMLElement@@@Z
	DD	FLAT:?SetPosX@ioWnd@@UAEXH@Z
	DD	FLAT:?SetPosY@ioWnd@@UAEXH@Z
	DD	FLAT:?SetWidth@ioWnd@@UAEXH@Z
	DD	FLAT:?SetHeight@ioWnd@@UAEXH@Z
	DD	FLAT:?GetNumFixedRenderFrame@ioWnd@@UBEHXZ
	DD	FLAT:?GetFixedRenderFrameType@ioWnd@@UAEPBDH@Z
	DD	FLAT:?GetRenderFrame@ioWnd@@UAEPAPAVioUIRenderElement@@PBD@Z
	DD	FLAT:?GetNumFixedRenderImage@ioWnd@@UBEHXZ
	DD	FLAT:?GetFixedRenderImageType@ioWnd@@UAEPBDH@Z
	DD	FLAT:?GetRenderImage@ioWnd@@UAEPAPAVioUIRenderElement@@PBD@Z
	DD	FLAT:?AddEffect@ioWnd@@UAEXABVioHashString@@PAVioUI3DEffectRender@@@Z
	DD	FLAT:?GetEffect@ioWnd@@UAEPAVioUI3DEffectRender@@VioHashString@@@Z
	DD	FLAT:??_EGameOptionMovieScreenShotTab@@UAEPAXI@Z
	DD	FLAT:?UpdateByCurrentOption@GameOptionMovieScreenShotTab@@MAEXXZ
	DD	FLAT:?CheckResolutionChange@GameOptionBasicWnd@@MAE_NABUSettingOption@@@Z
; Function compile flags: /Ogsp
CONST	ENDS
;	COMDAT ??0GameOptionMovieScreenShotTab@@QAE@XZ
_TEXT	SEGMENT
??0GameOptionMovieScreenShotTab@@QAE@XZ PROC		; GameOptionMovieScreenShotTab::GameOptionMovieScreenShotTab, COMDAT
; _this$ = ecx

; 2374 : {	

  00000	56		 push	 esi
  00001	8b f1		 mov	 esi, ecx
  00003	e8 00 00 00 00	 call	 ??0GameOptionBasicWnd@@QAE@XZ ; GameOptionBasicWnd::GameOptionBasicWnd

; 2375 : 	m_pPreEdit = NULL;

  00008	33 c0		 xor	 eax, eax
  0000a	89 86 10 02 00
	00		 mov	 DWORD PTR [esi+528], eax

; 2376 : 
; 2377 : 	m_pIconBack	     = NULL;

  00010	89 86 04 02 00
	00		 mov	 DWORD PTR [esi+516], eax

; 2378 : 	m_pIconMovie	 = NULL;

  00016	89 86 08 02 00
	00		 mov	 DWORD PTR [esi+520], eax

; 2379 : 	m_pIconScreenShot= NULL;

  0001c	89 86 0c 02 00
	00		 mov	 DWORD PTR [esi+524], eax
  00022	c7 06 00 00 00
	00		 mov	 DWORD PTR [esi], OFFSET ??_7GameOptionMovieScreenShotTab@@6B@

; 2380 : }

  00028	8b c6		 mov	 eax, esi
  0002a	5e		 pop	 esi
  0002b	c3		 ret	 0
??0GameOptionMovieScreenShotTab@@QAE@XZ ENDP		; GameOptionMovieScreenShotTab::GameOptionMovieScreenShotTab
_TEXT	ENDS
PUBLIC	??1GameOptionMovieScreenShotTab@@UAE@XZ		; GameOptionMovieScreenShotTab::~GameOptionMovieScreenShotTab
;	COMDAT xdata$x
xdata$x	SEGMENT
__unwindtable$??1GameOptionMovieScreenShotTab@@UAE@XZ DD 0ffffffffH
	DD	FLAT:__unwindfunclet$??1GameOptionMovieScreenShotTab@@UAE@XZ$0
__ehfuncinfo$??1GameOptionMovieScreenShotTab@@UAE@XZ DD 019930522H
	DD	01H
	DD	FLAT:__unwindtable$??1GameOptionMovieScreenShotTab@@UAE@XZ
	DD	2 DUP(00H)
	DD	2 DUP(00H)
	DD	00H
	DD	01H
; Function compile flags: /Ogsp
xdata$x	ENDS
;	COMDAT ??1GameOptionMovieScreenShotTab@@UAE@XZ
_TEXT	SEGMENT
_this$ = -16						; size = 4
__$EHRec$ = -12						; size = 12
??1GameOptionMovieScreenShotTab@@UAE@XZ PROC		; GameOptionMovieScreenShotTab::~GameOptionMovieScreenShotTab, COMDAT
; _this$ = ecx

; 2383 : {

  00000	6a 04		 push	 4
  00002	b8 00 00 00 00	 mov	 eax, __ehhandler$??1GameOptionMovieScreenShotTab@@UAE@XZ
  00007	e8 00 00 00 00	 call	 __EH_prolog3
  0000c	8b f1		 mov	 esi, ecx
  0000e	89 75 f0	 mov	 DWORD PTR _this$[ebp], esi
  00011	c7 06 00 00 00
	00		 mov	 DWORD PTR [esi], OFFSET ??_7GameOptionMovieScreenShotTab@@6B@

; 2384 : 	SAFEDELETE( m_pIconBack );

  00017	8b 8e 04 02 00
	00		 mov	 ecx, DWORD PTR [esi+516]
  0001d	83 65 fc 00	 and	 DWORD PTR __$EHRec$[ebp+8], 0
  00021	85 c9		 test	 ecx, ecx
  00023	74 0e		 je	 SHORT $LN3@GameOption@3
  00025	8b 01		 mov	 eax, DWORD PTR [ecx]
  00027	6a 01		 push	 1
  00029	ff 50 40	 call	 DWORD PTR [eax+64]
  0002c	83 a6 04 02 00
	00 00		 and	 DWORD PTR [esi+516], 0
$LN3@GameOption@3:

; 2385 : 	SAFEDELETE( m_pIconMovie );

  00033	8b 8e 08 02 00
	00		 mov	 ecx, DWORD PTR [esi+520]
  00039	85 c9		 test	 ecx, ecx
  0003b	74 0e		 je	 SHORT $LN2@GameOption@3
  0003d	8b 01		 mov	 eax, DWORD PTR [ecx]
  0003f	6a 01		 push	 1
  00041	ff 50 40	 call	 DWORD PTR [eax+64]
  00044	83 a6 08 02 00
	00 00		 and	 DWORD PTR [esi+520], 0
$LN2@GameOption@3:

; 2386 : 	SAFEDELETE( m_pIconScreenShot );

  0004b	8b 8e 0c 02 00
	00		 mov	 ecx, DWORD PTR [esi+524]
  00051	85 c9		 test	 ecx, ecx
  00053	74 0e		 je	 SHORT $LN1@GameOption@3
  00055	8b 01		 mov	 eax, DWORD PTR [ecx]
  00057	6a 01		 push	 1
  00059	ff 50 40	 call	 DWORD PTR [eax+64]
  0005c	83 a6 0c 02 00
	00 00		 and	 DWORD PTR [esi+524], 0
$LN1@GameOption@3:

; 2387 : }

  00063	83 4d fc ff	 or	 DWORD PTR __$EHRec$[ebp+8], -1
  00067	8b ce		 mov	 ecx, esi
  00069	e8 00 00 00 00	 call	 ??1GameOptionBasicWnd@@UAE@XZ ; GameOptionBasicWnd::~GameOptionBasicWnd
  0006e	e8 00 00 00 00	 call	 __EH_epilog3
  00073	c3		 ret	 0
_TEXT	ENDS
;	COMDAT text$x
text$x	SEGMENT
__unwindfunclet$??1GameOptionMovieScreenShotTab@@UAE@XZ$0:
  00000	8b 4d f0	 mov	 ecx, DWORD PTR _this$[ebp]
  00003	e9 00 00 00 00	 jmp	 ??1GameOptionBasicWnd@@UAE@XZ ; GameOptionBasicWnd::~GameOptionBasicWnd
__ehhandler$??1GameOptionMovieScreenShotTab@@UAE@XZ:
  00008	8b 54 24 08	 mov	 edx, DWORD PTR [esp+8]
  0000c	8d 42 0c	 lea	 eax, DWORD PTR [edx+12]
  0000f	8b 4a ec	 mov	 ecx, DWORD PTR [edx-20]
  00012	33 c8		 xor	 ecx, eax
  00014	e8 00 00 00 00	 call	 @__security_check_cookie@4
  00019	b8 00 00 00 00	 mov	 eax, OFFSET __ehfuncinfo$??1GameOptionMovieScreenShotTab@@UAE@XZ
  0001e	e9 00 00 00 00	 jmp	 ___CxxFrameHandler3
text$x	ENDS
??1GameOptionMovieScreenShotTab@@UAE@XZ ENDP		; GameOptionMovieScreenShotTab::~GameOptionMovieScreenShotTab
PUBLIC	?Save@GameOptionMovieScreenShotTab@@QAEXXZ	; GameOptionMovieScreenShotTab::Save
EXTRN	?ApplyChangedOption@GameOptionBasicWnd@@IAE_NXZ:PROC ; GameOptionBasicWnd::ApplyChangedOption
; Function compile flags: /Ogsp
;	COMDAT ?Save@GameOptionMovieScreenShotTab@@QAEXXZ
_TEXT	SEGMENT
?Save@GameOptionMovieScreenShotTab@@QAEXXZ PROC		; GameOptionMovieScreenShotTab::Save, COMDAT
; _this$ = ecx

; 2721 : 	ApplyChangedOption();

  00000	e9 00 00 00 00	 jmp	 ?ApplyChangedOption@GameOptionBasicWnd@@IAE_NXZ ; GameOptionBasicWnd::ApplyChangedOption
?Save@GameOptionMovieScreenShotTab@@QAEXXZ ENDP		; GameOptionMovieScreenShotTab::Save
_TEXT	ENDS
PUBLIC	??_C@_03CNFPPDJC@BMP?$AA@			; `string'
PUBLIC	??_C@_03PJJGGPMI@JPG?$AA@			; `string'
EXTRN	?GetCodecTypeText@ioMovieMaker@@QAEABVioHashString@@H@Z:PROC ; ioMovieMaker::GetCodecTypeText
EXTRN	?GetSoundTypeText@ioMovieMaker@@QAEABVioHashString@@H@Z:PROC ; ioMovieMaker::GetSoundTypeText
EXTRN	?GetQualityTypeText@ioMovieMaker@@QAEABVioHashString@@H@Z:PROC ; ioMovieMaker::GetQualityTypeText
EXTRN	?GetFrameTypeText@ioMovieMaker@@QAEABVioHashString@@H@Z:PROC ; ioMovieMaker::GetFrameTypeText
EXTRN	?GetSizeTypeText@ioMovieMaker@@QAEABVioHashString@@H@Z:PROC ; ioMovieMaker::GetSizeTypeText
EXTRN	?GetSingleton@ioMovieMaker@@SAAAV1@XZ:PROC	; ioMovieMaker::GetSingleton
;	COMDAT ??_C@_03CNFPPDJC@BMP?$AA@
CONST	SEGMENT
??_C@_03CNFPPDJC@BMP?$AA@ DB 'BMP', 00H			; `string'
CONST	ENDS
;	COMDAT ??_C@_03PJJGGPMI@JPG?$AA@
CONST	SEGMENT
??_C@_03PJJGGPMI@JPG?$AA@ DB 'JPG', 00H			; `string'
; Function compile flags: /Ogsp
CONST	ENDS
;	COMDAT ?UpdateByCurrentOption@GameOptionMovieScreenShotTab@@MAEXXZ
_TEXT	SEGMENT
_pMovieCodecBtn$ = -4					; size = 4
_pMovieSoundBtn$ = -4					; size = 4
_pMovieQualityBtn$ = -4					; size = 4
_pMovieFrameBtn$ = -4					; size = 4
_pMovieSizeBtn$ = -4					; size = 4
?UpdateByCurrentOption@GameOptionMovieScreenShotTab@@MAEXXZ PROC ; GameOptionMovieScreenShotTab::UpdateByCurrentOption, COMDAT
; _this$ = ecx

; 2725 : {

  00000	55		 push	 ebp
  00001	8b ec		 mov	 ebp, esp
  00003	51		 push	 ecx
  00004	53		 push	 ebx
  00005	56		 push	 esi
  00006	8b f1		 mov	 esi, ecx

; 2726 : 	SetButtonCheck( ID_TEAMCIRCLE_SHOW_BTN, m_CurrentOption.m_bNoUIModeTeamCircleShow );

  00008	0f b6 86 cd 01
	00 00		 movzx	 eax, BYTE PTR [esi+461]
  0000f	57		 push	 edi
  00010	50		 push	 eax
  00011	68 80 00 00 00	 push	 128			; 00000080H
  00016	e8 00 00 00 00	 call	 ?SetButtonCheck@GameOptionBasicWnd@@IAEXK_N@Z ; GameOptionBasicWnd::SetButtonCheck

; 2727 : 	SetButtonCheck( ID_NAME_SHOW_BTN, m_CurrentOption.m_bNoUIModeIDShow );

  0001b	0f b6 86 ce 01
	00 00		 movzx	 eax, BYTE PTR [esi+462]
  00022	50		 push	 eax
  00023	6a 7e		 push	 126			; 0000007eH
  00025	8b ce		 mov	 ecx, esi
  00027	e8 00 00 00 00	 call	 ?SetButtonCheck@GameOptionBasicWnd@@IAEXK_N@Z ; GameOptionBasicWnd::SetButtonCheck

; 2728 : 	SetButtonCheck( ID_HP_SHOW_BTN, m_CurrentOption.m_bNoUIModeHPShow );

  0002c	0f b6 86 cf 01
	00 00		 movzx	 eax, BYTE PTR [esi+463]
  00033	50		 push	 eax
  00034	6a 7f		 push	 127			; 0000007fH
  00036	8b ce		 mov	 ecx, esi
  00038	e8 00 00 00 00	 call	 ?SetButtonCheck@GameOptionBasicWnd@@IAEXK_N@Z ; GameOptionBasicWnd::SetButtonCheck

; 2729 : 	SetButtonCheck( ID_CHAT_BUBBLE_BTN, m_CurrentOption.m_bNoUIModeChatBubbleShow );

  0003d	0f b6 86 d0 01
	00 00		 movzx	 eax, BYTE PTR [esi+464]
  00044	50		 push	 eax
  00045	68 81 00 00 00	 push	 129			; 00000081H
  0004a	8b ce		 mov	 ecx, esi
  0004c	e8 00 00 00 00	 call	 ?SetButtonCheck@GameOptionBasicWnd@@IAEXK_N@Z ; GameOptionBasicWnd::SetButtonCheck

; 2730 : 	SetButtonCheck( ID_MOVIE_MODE_UI_SHOW_BTN, !m_CurrentOption.m_bMovieModeUIHide );

  00051	80 be d1 01 00
	00 00		 cmp	 BYTE PTR [esi+465], 0
  00058	8b ce		 mov	 ecx, esi
  0005a	0f 94 c0	 sete	 al
  0005d	0f b6 c0	 movzx	 eax, al
  00060	50		 push	 eax
  00061	68 82 00 00 00	 push	 130			; 00000082H
  00066	e8 00 00 00 00	 call	 ?SetButtonCheck@GameOptionBasicWnd@@IAEXK_N@Z ; GameOptionBasicWnd::SetButtonCheck

; 2731 : 
; 2732 : 	ioButton *pMovieSizeBtn = dynamic_cast<ioButton*>( FindChildWnd( ID_MOVIE_SIZE_BTN ) );

  0006b	8b 3d 00 00 00
	00		 mov	 edi, DWORD PTR __imp_?FindChildWnd@ioWnd@@QAEPAV1@K@Z
  00071	6a 00		 push	 0
  00073	68 00 00 00 00	 push	 OFFSET ??_R0?AVioButton@@@8
  00078	bb 00 00 00 00	 mov	 ebx, OFFSET ??_R0?AVioWnd@@@8
  0007d	53		 push	 ebx
  0007e	6a 00		 push	 0
  00080	6a 67		 push	 103			; 00000067H
  00082	8b ce		 mov	 ecx, esi
  00084	ff d7		 call	 edi
  00086	50		 push	 eax
  00087	e8 00 00 00 00	 call	 ___RTDynamicCast
  0008c	83 c4 14	 add	 esp, 20			; 00000014H
  0008f	89 45 fc	 mov	 DWORD PTR _pMovieSizeBtn$[ebp], eax

; 2733 : 	if( pMovieSizeBtn )

  00092	85 c0		 test	 eax, eax
  00094	74 2b		 je	 SHORT $LN8@UpdateByCu@2

; 2734 : 		pMovieSizeBtn->SetTitleText( g_MovieMaker.GetSizeTypeText( m_CurrentOption.m_iMovieSizeType ).c_str() );

  00096	6a 00		 push	 0
  00098	68 00 00 00 00	 push	 OFFSET ??_C@_00CNPNBAHC@?$AA@
  0009d	ff b6 e4 01 00
	00		 push	 DWORD PTR [esi+484]
  000a3	e8 00 00 00 00	 call	 ?GetSingleton@ioMovieMaker@@SAAAV1@XZ ; ioMovieMaker::GetSingleton
  000a8	8b c8		 mov	 ecx, eax
  000aa	e8 00 00 00 00	 call	 ?GetSizeTypeText@ioMovieMaker@@QAEABVioHashString@@H@Z ; ioMovieMaker::GetSizeTypeText
  000af	8b c8		 mov	 ecx, eax
  000b1	ff 15 00 00 00
	00		 call	 DWORD PTR __imp_?c_str@ioHashString@@QBEPBDXZ
  000b7	8b 4d fc	 mov	 ecx, DWORD PTR _pMovieSizeBtn$[ebp]
  000ba	50		 push	 eax
  000bb	ff 15 00 00 00
	00		 call	 DWORD PTR __imp_?SetTitleText@ioWnd@@QAEXPBD0H@Z
$LN8@UpdateByCu@2:

; 2735 : 
; 2736 : 	ioButton *pMovieFrameBtn = dynamic_cast<ioButton*>( FindChildWnd( ID_MOVIE_FRAME_BTN ) );

  000c1	6a 00		 push	 0
  000c3	68 00 00 00 00	 push	 OFFSET ??_R0?AVioButton@@@8
  000c8	53		 push	 ebx
  000c9	6a 00		 push	 0
  000cb	6a 69		 push	 105			; 00000069H
  000cd	8b ce		 mov	 ecx, esi
  000cf	ff d7		 call	 edi
  000d1	50		 push	 eax
  000d2	e8 00 00 00 00	 call	 ___RTDynamicCast
  000d7	83 c4 14	 add	 esp, 20			; 00000014H
  000da	89 45 fc	 mov	 DWORD PTR _pMovieFrameBtn$[ebp], eax

; 2737 : 	if( pMovieFrameBtn )

  000dd	85 c0		 test	 eax, eax
  000df	74 2b		 je	 SHORT $LN7@UpdateByCu@2

; 2738 : 		pMovieFrameBtn->SetTitleText( g_MovieMaker.GetFrameTypeText( m_CurrentOption.m_iMovieFrameType ).c_str() );

  000e1	6a 00		 push	 0
  000e3	68 00 00 00 00	 push	 OFFSET ??_C@_00CNPNBAHC@?$AA@
  000e8	ff b6 e8 01 00
	00		 push	 DWORD PTR [esi+488]
  000ee	e8 00 00 00 00	 call	 ?GetSingleton@ioMovieMaker@@SAAAV1@XZ ; ioMovieMaker::GetSingleton
  000f3	8b c8		 mov	 ecx, eax
  000f5	e8 00 00 00 00	 call	 ?GetFrameTypeText@ioMovieMaker@@QAEABVioHashString@@H@Z ; ioMovieMaker::GetFrameTypeText
  000fa	8b c8		 mov	 ecx, eax
  000fc	ff 15 00 00 00
	00		 call	 DWORD PTR __imp_?c_str@ioHashString@@QBEPBDXZ
  00102	8b 4d fc	 mov	 ecx, DWORD PTR _pMovieFrameBtn$[ebp]
  00105	50		 push	 eax
  00106	ff 15 00 00 00
	00		 call	 DWORD PTR __imp_?SetTitleText@ioWnd@@QAEXPBD0H@Z
$LN7@UpdateByCu@2:

; 2739 : 
; 2740 : 	ioButton *pMovieQualityBtn = dynamic_cast<ioButton*>( FindChildWnd( ID_MOVIE_QUALITY_BTN ) );

  0010c	6a 00		 push	 0
  0010e	68 00 00 00 00	 push	 OFFSET ??_R0?AVioButton@@@8
  00113	53		 push	 ebx
  00114	6a 00		 push	 0
  00116	6a 6b		 push	 107			; 0000006bH
  00118	8b ce		 mov	 ecx, esi
  0011a	ff d7		 call	 edi
  0011c	50		 push	 eax
  0011d	e8 00 00 00 00	 call	 ___RTDynamicCast
  00122	83 c4 14	 add	 esp, 20			; 00000014H
  00125	89 45 fc	 mov	 DWORD PTR _pMovieQualityBtn$[ebp], eax

; 2741 : 	if( pMovieQualityBtn )

  00128	85 c0		 test	 eax, eax
  0012a	74 2b		 je	 SHORT $LN6@UpdateByCu@2

; 2742 : 		pMovieQualityBtn->SetTitleText( g_MovieMaker.GetQualityTypeText( m_CurrentOption.m_iMovieQualityType ).c_str() );

  0012c	6a 00		 push	 0
  0012e	68 00 00 00 00	 push	 OFFSET ??_C@_00CNPNBAHC@?$AA@
  00133	ff b6 ec 01 00
	00		 push	 DWORD PTR [esi+492]
  00139	e8 00 00 00 00	 call	 ?GetSingleton@ioMovieMaker@@SAAAV1@XZ ; ioMovieMaker::GetSingleton
  0013e	8b c8		 mov	 ecx, eax
  00140	e8 00 00 00 00	 call	 ?GetQualityTypeText@ioMovieMaker@@QAEABVioHashString@@H@Z ; ioMovieMaker::GetQualityTypeText
  00145	8b c8		 mov	 ecx, eax
  00147	ff 15 00 00 00
	00		 call	 DWORD PTR __imp_?c_str@ioHashString@@QBEPBDXZ
  0014d	8b 4d fc	 mov	 ecx, DWORD PTR _pMovieQualityBtn$[ebp]
  00150	50		 push	 eax
  00151	ff 15 00 00 00
	00		 call	 DWORD PTR __imp_?SetTitleText@ioWnd@@QAEXPBD0H@Z
$LN6@UpdateByCu@2:

; 2743 : 
; 2744 : 	ioButton *pMovieSoundBtn = dynamic_cast<ioButton*>( FindChildWnd( ID_MOVIE_SOUND_BTN ) );

  00157	6a 00		 push	 0
  00159	68 00 00 00 00	 push	 OFFSET ??_R0?AVioButton@@@8
  0015e	53		 push	 ebx
  0015f	6a 00		 push	 0
  00161	6a 6d		 push	 109			; 0000006dH
  00163	8b ce		 mov	 ecx, esi
  00165	ff d7		 call	 edi
  00167	50		 push	 eax
  00168	e8 00 00 00 00	 call	 ___RTDynamicCast
  0016d	83 c4 14	 add	 esp, 20			; 00000014H
  00170	89 45 fc	 mov	 DWORD PTR _pMovieSoundBtn$[ebp], eax

; 2745 : 	if( pMovieSoundBtn )

  00173	85 c0		 test	 eax, eax
  00175	74 2b		 je	 SHORT $LN5@UpdateByCu@2

; 2746 : 		pMovieSoundBtn->SetTitleText( g_MovieMaker.GetSoundTypeText( m_CurrentOption.m_iMovieSoundType ).c_str() );

  00177	6a 00		 push	 0
  00179	68 00 00 00 00	 push	 OFFSET ??_C@_00CNPNBAHC@?$AA@
  0017e	ff b6 f0 01 00
	00		 push	 DWORD PTR [esi+496]
  00184	e8 00 00 00 00	 call	 ?GetSingleton@ioMovieMaker@@SAAAV1@XZ ; ioMovieMaker::GetSingleton
  00189	8b c8		 mov	 ecx, eax
  0018b	e8 00 00 00 00	 call	 ?GetSoundTypeText@ioMovieMaker@@QAEABVioHashString@@H@Z ; ioMovieMaker::GetSoundTypeText
  00190	8b c8		 mov	 ecx, eax
  00192	ff 15 00 00 00
	00		 call	 DWORD PTR __imp_?c_str@ioHashString@@QBEPBDXZ
  00198	8b 4d fc	 mov	 ecx, DWORD PTR _pMovieSoundBtn$[ebp]
  0019b	50		 push	 eax
  0019c	ff 15 00 00 00
	00		 call	 DWORD PTR __imp_?SetTitleText@ioWnd@@QAEXPBD0H@Z
$LN5@UpdateByCu@2:

; 2747 : 
; 2748 : 	ioButton *pMovieCodecBtn = dynamic_cast<ioButton*>( FindChildWnd( ID_MOVIE_CODEC_BTN ) );

  001a2	6a 00		 push	 0
  001a4	68 00 00 00 00	 push	 OFFSET ??_R0?AVioButton@@@8
  001a9	53		 push	 ebx
  001aa	6a 00		 push	 0
  001ac	6a 6f		 push	 111			; 0000006fH
  001ae	8b ce		 mov	 ecx, esi
  001b0	ff d7		 call	 edi
  001b2	50		 push	 eax
  001b3	e8 00 00 00 00	 call	 ___RTDynamicCast
  001b8	83 c4 14	 add	 esp, 20			; 00000014H
  001bb	89 45 fc	 mov	 DWORD PTR _pMovieCodecBtn$[ebp], eax

; 2749 : 	if( pMovieCodecBtn )

  001be	85 c0		 test	 eax, eax
  001c0	74 2b		 je	 SHORT $LN4@UpdateByCu@2

; 2750 : 		pMovieCodecBtn->SetTitleText( g_MovieMaker.GetCodecTypeText( m_CurrentOption.m_iMovieCodec ).c_str() );

  001c2	6a 00		 push	 0
  001c4	68 00 00 00 00	 push	 OFFSET ??_C@_00CNPNBAHC@?$AA@
  001c9	ff b6 e0 01 00
	00		 push	 DWORD PTR [esi+480]
  001cf	e8 00 00 00 00	 call	 ?GetSingleton@ioMovieMaker@@SAAAV1@XZ ; ioMovieMaker::GetSingleton
  001d4	8b c8		 mov	 ecx, eax
  001d6	e8 00 00 00 00	 call	 ?GetCodecTypeText@ioMovieMaker@@QAEABVioHashString@@H@Z ; ioMovieMaker::GetCodecTypeText
  001db	8b c8		 mov	 ecx, eax
  001dd	ff 15 00 00 00
	00		 call	 DWORD PTR __imp_?c_str@ioHashString@@QBEPBDXZ
  001e3	8b 4d fc	 mov	 ecx, DWORD PTR _pMovieCodecBtn$[ebp]
  001e6	50		 push	 eax
  001e7	ff 15 00 00 00
	00		 call	 DWORD PTR __imp_?SetTitleText@ioWnd@@QAEXPBD0H@Z
$LN4@UpdateByCu@2:

; 2751 : 
; 2752 : 	ioButton *pScreenShotBtn = dynamic_cast<ioButton*>( FindChildWnd( ID_SCREENSHOT_BTN ) );

  001ed	6a 00		 push	 0
  001ef	68 00 00 00 00	 push	 OFFSET ??_R0?AVioButton@@@8
  001f4	53		 push	 ebx
  001f5	6a 00		 push	 0
  001f7	6a 73		 push	 115			; 00000073H
  001f9	8b ce		 mov	 ecx, esi
  001fb	ff d7		 call	 edi
  001fd	50		 push	 eax
  001fe	e8 00 00 00 00	 call	 ___RTDynamicCast
  00203	83 c4 14	 add	 esp, 20			; 00000014H

; 2753 : 	if( pScreenShotBtn )

  00206	85 c0		 test	 eax, eax
  00208	74 24		 je	 SHORT $LN1@UpdateByCu@2

; 2754 : 	{
; 2755 : 		if( m_CurrentOption.m_bScreenShotFormatJPG )

  0020a	80 be c0 01 00
	00 00		 cmp	 BYTE PTR [esi+448], 0

; 2756 : 			pScreenShotBtn->SetTitleText( "JPG" );

  00211	6a 00		 push	 0
  00213	8b c8		 mov	 ecx, eax
  00215	68 00 00 00 00	 push	 OFFSET ??_C@_00CNPNBAHC@?$AA@
  0021a	74 07		 je	 SHORT $LN2@UpdateByCu@2
  0021c	68 00 00 00 00	 push	 OFFSET ??_C@_03PJJGGPMI@JPG?$AA@

; 2757 : 		else

  00221	eb 05		 jmp	 SHORT $LN11@UpdateByCu@2
$LN2@UpdateByCu@2:

; 2758 : 			pScreenShotBtn->SetTitleText( "BMP" );

  00223	68 00 00 00 00	 push	 OFFSET ??_C@_03CNFPPDJC@BMP?$AA@
$LN11@UpdateByCu@2:
  00228	ff 15 00 00 00
	00		 call	 DWORD PTR __imp_?SetTitleText@ioWnd@@QAEXPBD0H@Z
$LN1@UpdateByCu@2:
  0022e	5f		 pop	 edi
  0022f	5e		 pop	 esi
  00230	5b		 pop	 ebx

; 2759 : 	}
; 2760 : }

  00231	c9		 leave
  00232	c3		 ret	 0
?UpdateByCurrentOption@GameOptionMovieScreenShotTab@@MAEXXZ ENDP ; GameOptionMovieScreenShotTab::UpdateByCurrentOption
_TEXT	ENDS
PUBLIC	?CreateScreenShotFolder@GameOptionMovieScreenShotTab@@QAE_NPBD@Z ; GameOptionMovieScreenShotTab::CreateScreenShotFolder
EXTRN	__imp__GetFileAttributesA@4:PROC
EXTRN	?SetCreateDirectory@Help@@YAXPBD@Z:PROC		; Help::SetCreateDirectory
; Function compile flags: /Ogsp
;	COMDAT ?CreateScreenShotFolder@GameOptionMovieScreenShotTab@@QAE_NPBD@Z
_TEXT	SEGMENT
_szPath$ = 8						; size = 4
?CreateScreenShotFolder@GameOptionMovieScreenShotTab@@QAE_NPBD@Z PROC ; GameOptionMovieScreenShotTab::CreateScreenShotFolder, COMDAT
; _this$ = ecx

; 2786 : {

  00000	55		 push	 ebp
  00001	8b ec		 mov	 ebp, esp

; 2787 : 	bool isCreated = true;
; 2788 : 	Help::SetCreateDirectory( szPath );

  00003	ff 75 08	 push	 DWORD PTR _szPath$[ebp]
  00006	e8 00 00 00 00	 call	 ?SetCreateDirectory@Help@@YAXPBD@Z ; Help::SetCreateDirectory
  0000b	59		 pop	 ecx

; 2789 : 	
; 2790 : 	DWORD dwAtt = GetFileAttributes(szPath);

  0000c	ff 75 08	 push	 DWORD PTR _szPath$[ebp]
  0000f	ff 15 00 00 00
	00		 call	 DWORD PTR __imp__GetFileAttributesA@4

; 2791 : 	if( dwAtt == INVALID_FILE_ATTRIBUTES )

  00015	83 f8 ff	 cmp	 eax, -1
  00018	75 04		 jne	 SHORT $LN4@CreateScre

; 2792 : 	{
; 2793 : 		isCreated = false;

  0001a	32 c0		 xor	 al, al

; 2794 : 	}
; 2795 : 	else

  0001c	eb 05		 jmp	 SHORT $LN2@CreateScre
$LN4@CreateScre:

; 2796 : 	{
; 2797 : 		if( dwAtt & FILE_ATTRIBUTE_DIRECTORY)

  0001e	c0 e8 04	 shr	 al, 4
  00021	24 01		 and	 al, 1
$LN2@CreateScre:

; 2798 : 			isCreated = true;
; 2799 : 		else
; 2800 : 			isCreated = false;
; 2801 : 	}
; 2802 : 
; 2803 : 	return isCreated;
; 2804 : }

  00023	5d		 pop	 ebp
  00024	c2 04 00	 ret	 4
?CreateScreenShotFolder@GameOptionMovieScreenShotTab@@QAE_NPBD@Z ENDP ; GameOptionMovieScreenShotTab::CreateScreenShotFolder
; Function compile flags: /Ogsp
_TEXT	ENDS
;	COMDAT ?iwm_hide@GameOptionMovieScreenShotTab@@UAEXXZ
_TEXT	SEGMENT
?iwm_hide@GameOptionMovieScreenShotTab@@UAEXXZ PROC	; GameOptionMovieScreenShotTab::iwm_hide, COMDAT
; _this$ = ecx

; 2865 : {

  00000	56		 push	 esi
  00001	57		 push	 edi

; 2866 : 	ioEdit *pEdit = dynamic_cast<ioEdit*> ( FindChildWnd( ID_SCREENSHOT_PATH_EDIT ) );

  00002	6a 00		 push	 0
  00004	68 00 00 00 00	 push	 OFFSET ??_R0?AVioEdit@@@8
  00009	68 00 00 00 00	 push	 OFFSET ??_R0?AVioWnd@@@8
  0000e	6a 00		 push	 0
  00010	6a 79		 push	 121			; 00000079H
  00012	8b f1		 mov	 esi, ecx
  00014	ff 15 00 00 00
	00		 call	 DWORD PTR __imp_?FindChildWnd@ioWnd@@QAEPAV1@K@Z
  0001a	50		 push	 eax
  0001b	e8 00 00 00 00	 call	 ___RTDynamicCast
  00020	8b f8		 mov	 edi, eax
  00022	83 c4 14	 add	 esp, 20			; 00000014H

; 2867 : 	if( pEdit )

  00025	85 ff		 test	 edi, edi
  00027	74 12		 je	 SHORT $LN3@iwm_hide@5

; 2868 : 	{
; 2869 : 		pEdit->ClearString();

  00029	8b cf		 mov	 ecx, edi
  0002b	ff 15 00 00 00
	00		 call	 DWORD PTR __imp_?ClearString@ioEdit@@QAEXXZ

; 2870 : 		pEdit->KillKeyFocus();

  00031	8b 07		 mov	 eax, DWORD PTR [edi]
  00033	8b cf		 mov	 ecx, edi
  00035	ff 90 34 01 00
	00		 call	 DWORD PTR [eax+308]
$LN3@iwm_hide@5:

; 2871 : 	}
; 2872 : 
; 2873 : 	if( m_pPreEdit )	

  0003b	8b 8e 10 02 00
	00		 mov	 ecx, DWORD PTR [esi+528]
  00041	85 c9		 test	 ecx, ecx
  00043	74 2b		 je	 SHORT $LN2@iwm_hide@5

; 2874 : 	{
; 2875 : 		ioWnd *pParent = m_pPreEdit->GetParent();

  00045	ff 15 00 00 00
	00		 call	 DWORD PTR __imp_?GetParent@ioWnd@@QAEPAV1@XZ

; 2876 : 		if( pParent && pParent->IsShow() )

  0004b	85 c0		 test	 eax, eax
  0004d	74 1a		 je	 SHORT $LN1@iwm_hide@5
  0004f	8b c8		 mov	 ecx, eax
  00051	ff 15 00 00 00
	00		 call	 DWORD PTR __imp_?IsShow@ioWnd@@QBE_NXZ
  00057	84 c0		 test	 al, al
  00059	74 0e		 je	 SHORT $LN1@iwm_hide@5

; 2877 : 		{
; 2878 : 			m_pPreEdit->SetKeyFocus();

  0005b	8b 8e 10 02 00
	00		 mov	 ecx, DWORD PTR [esi+528]
  00061	8b 01		 mov	 eax, DWORD PTR [ecx]
  00063	ff 90 30 01 00
	00		 call	 DWORD PTR [eax+304]
$LN1@iwm_hide@5:

; 2879 : 		}
; 2880 : 
; 2881 : 		m_pPreEdit = NULL;

  00069	83 a6 10 02 00
	00 00		 and	 DWORD PTR [esi+528], 0
$LN2@iwm_hide@5:
  00070	5f		 pop	 edi
  00071	5e		 pop	 esi

; 2882 : 	}
; 2883 : }

  00072	c3		 ret	 0
?iwm_hide@GameOptionMovieScreenShotTab@@UAEXXZ ENDP	; GameOptionMovieScreenShotTab::iwm_hide
; Function compile flags: /Ogsp
_TEXT	ENDS
;	COMDAT ?ParseExtraInfo@GameOptionMovieScreenShotTab@@UAEXAAVioXMLElement@@@Z
_TEXT	SEGMENT
_xElement$ = 8						; size = 4
?ParseExtraInfo@GameOptionMovieScreenShotTab@@UAEXAAVioXMLElement@@@Z PROC ; GameOptionMovieScreenShotTab::ParseExtraInfo, COMDAT
; _this$ = ecx

; 2887 : }

  00000	c2 04 00	 ret	 4
?ParseExtraInfo@GameOptionMovieScreenShotTab@@UAEXAAVioXMLElement@@@Z ENDP ; GameOptionMovieScreenShotTab::ParseExtraInfo
_TEXT	ENDS
PUBLIC	__real@43960000
;	COMDAT __real@43960000
CONST	SEGMENT
__real@43960000 DD 043960000r			; 300
; Function compile flags: /Ogsp
CONST	ENDS
;	COMDAT ?iwm_create@GameOptionMovieScreenShotTab@@UAEXXZ
_TEXT	SEGMENT
?iwm_create@GameOptionMovieScreenShotTab@@UAEXXZ PROC	; GameOptionMovieScreenShotTab::iwm_create, COMDAT
; _this$ = ecx

; 2891 : 	ioButton *pBtn = dynamic_cast<ioButton*> ( FindChildWnd( ID_SCREENSHOT_PATH_BTN ) );

  00000	6a 00		 push	 0
  00002	68 00 00 00 00	 push	 OFFSET ??_R0?AVioButton@@@8
  00007	68 00 00 00 00	 push	 OFFSET ??_R0?AVioWnd@@@8
  0000c	6a 00		 push	 0
  0000e	6a 78		 push	 120			; 00000078H
  00010	ff 15 00 00 00
	00		 call	 DWORD PTR __imp_?FindChildWnd@ioWnd@@QAEPAV1@K@Z
  00016	50		 push	 eax
  00017	e8 00 00 00 00	 call	 ___RTDynamicCast
  0001c	83 c4 14	 add	 esp, 20			; 00000014H

; 2892 : 	if( !pBtn )

  0001f	85 c0		 test	 eax, eax
  00021	74 30		 je	 SHORT $LN3@iwm_create@2

; 2893 : 		return;
; 2894 : 
; 2895 : 	ioUITitle *pTitle = pBtn->GetTitle();

  00023	56		 push	 esi
  00024	8b c8		 mov	 ecx, eax
  00026	ff 15 00 00 00
	00		 call	 DWORD PTR __imp_?GetTitle@ioWnd@@QBEPAVioUITitle@@XZ
  0002c	8b f0		 mov	 esi, eax

; 2896 : 	if( !pTitle )

  0002e	85 f6		 test	 esi, esi
  00030	74 20		 je	 SHORT $LN5@iwm_create@2

; 2897 : 		return;
; 2898 : 	
; 2899 : 	pTitle->SetPrintTextStyle( ioUITitle::PTS_WIDTHCUT );

  00032	6a 02		 push	 2
  00034	8b ce		 mov	 ecx, esi
  00036	ff 15 00 00 00
	00		 call	 DWORD PTR __imp_?SetPrintTextStyle@ioUITitle@@QAEXW4PrintTextStyle@1@@Z

; 2900 : 	pTitle->SetWidthCutSize( 300.0f );

  0003c	f3 0f 10 05 00
	00 00 00	 movss	 xmm0, DWORD PTR __real@43960000
  00044	51		 push	 ecx
  00045	8b ce		 mov	 ecx, esi
  00047	f3 0f 11 04 24	 movss	 DWORD PTR [esp], xmm0
  0004c	ff 15 00 00 00
	00		 call	 DWORD PTR __imp_?SetWidthCutSize@ioUITitle@@QAEXM@Z
$LN5@iwm_create@2:
  00052	5e		 pop	 esi
$LN3@iwm_create@2:

; 2901 : }

  00053	c3		 ret	 0
?iwm_create@GameOptionMovieScreenShotTab@@UAEXXZ ENDP	; GameOptionMovieScreenShotTab::iwm_create
_TEXT	ENDS
PUBLIC	?SetTextEditBtn@GameOptionMovieScreenShotTab@@IAEXPBD@Z ; GameOptionMovieScreenShotTab::SetTextEditBtn
EXTRN	__imp_?SetString@ioInputBox@@QAEXPBD@Z:PROC
EXTRN	__imp_?GetSingleton@ioInputBox@@SAAAV1@XZ:PROC
; Function compile flags: /Ogsp
;	COMDAT ?SetTextEditBtn@GameOptionMovieScreenShotTab@@IAEXPBD@Z
_TEXT	SEGMENT
_pBtn$ = -8						; size = 4
_this$ = -4						; size = 4
_szSavePath$ = 8					; size = 4
?SetTextEditBtn@GameOptionMovieScreenShotTab@@IAEXPBD@Z PROC ; GameOptionMovieScreenShotTab::SetTextEditBtn, COMDAT
; _this$ = ecx

; 2904 : {

  00000	55		 push	 ebp
  00001	8b ec		 mov	 ebp, esp
  00003	51		 push	 ecx
  00004	51		 push	 ecx
  00005	56		 push	 esi

; 2905 : 	ioButton *pBtn = dynamic_cast<ioButton*> ( FindChildWnd( ID_SCREENSHOT_PATH_BTN ) );

  00006	8b 35 00 00 00
	00		 mov	 esi, DWORD PTR __imp_?FindChildWnd@ioWnd@@QAEPAV1@K@Z
  0000c	57		 push	 edi
  0000d	6a 00		 push	 0
  0000f	68 00 00 00 00	 push	 OFFSET ??_R0?AVioButton@@@8
  00014	bf 00 00 00 00	 mov	 edi, OFFSET ??_R0?AVioWnd@@@8
  00019	57		 push	 edi
  0001a	6a 00		 push	 0
  0001c	6a 78		 push	 120			; 00000078H
  0001e	89 4d fc	 mov	 DWORD PTR _this$[ebp], ecx
  00021	ff d6		 call	 esi
  00023	50		 push	 eax
  00024	e8 00 00 00 00	 call	 ___RTDynamicCast
  00029	83 c4 14	 add	 esp, 20			; 00000014H
  0002c	89 45 f8	 mov	 DWORD PTR _pBtn$[ebp], eax

; 2906 : 	if( !pBtn )

  0002f	85 c0		 test	 eax, eax
  00031	74 63		 je	 SHORT $LN4@SetTextEdi

; 2907 : 		return;
; 2908 : 
; 2909 : 	ioEdit *pEdit = dynamic_cast<ioEdit*> ( FindChildWnd( ID_SCREENSHOT_PATH_EDIT ) );

  00033	8b 4d fc	 mov	 ecx, DWORD PTR _this$[ebp]
  00036	6a 00		 push	 0
  00038	68 00 00 00 00	 push	 OFFSET ??_R0?AVioEdit@@@8
  0003d	57		 push	 edi
  0003e	6a 00		 push	 0
  00040	6a 79		 push	 121			; 00000079H
  00042	ff d6		 call	 esi
  00044	50		 push	 eax
  00045	e8 00 00 00 00	 call	 ___RTDynamicCast
  0004a	8b f0		 mov	 esi, eax
  0004c	83 c4 14	 add	 esp, 20			; 00000014H

; 2910 : 	if( !pEdit )

  0004f	85 f6		 test	 esi, esi
  00051	74 43		 je	 SHORT $LN4@SetTextEdi

; 2911 : 		return;
; 2912 : 
; 2913 : 	ioUITitle *pTitle = pBtn->GetTitle();

  00053	8b 4d f8	 mov	 ecx, DWORD PTR _pBtn$[ebp]
  00056	ff 15 00 00 00
	00		 call	 DWORD PTR __imp_?GetTitle@ioWnd@@QBEPAVioUITitle@@XZ

; 2914 : 	if( pTitle )

  0005c	85 c0		 test	 eax, eax
  0005e	74 10		 je	 SHORT $LN1@SetTextEdi

; 2915 : 		pTitle->SetText( szSavePath, "");

  00060	68 00 00 00 00	 push	 OFFSET ??_C@_00CNPNBAHC@?$AA@
  00065	ff 75 08	 push	 DWORD PTR _szSavePath$[ebp]
  00068	8b c8		 mov	 ecx, eax
  0006a	ff 15 00 00 00
	00		 call	 DWORD PTR __imp_?SetText@ioUITitle@@QAEXPBD0@Z
$LN1@SetTextEdi:

; 2916 : 
; 2917 : 	pEdit->SetKeyFocus();

  00070	8b 06		 mov	 eax, DWORD PTR [esi]
  00072	8b ce		 mov	 ecx, esi
  00074	ff 90 30 01 00
	00		 call	 DWORD PTR [eax+304]

; 2918 : 	g_InputBox.SetString( szSavePath );

  0007a	ff 75 08	 push	 DWORD PTR _szSavePath$[ebp]
  0007d	ff 15 00 00 00
	00		 call	 DWORD PTR __imp_?GetSingleton@ioInputBox@@SAAAV1@XZ
  00083	8b c8		 mov	 ecx, eax
  00085	ff 15 00 00 00
	00		 call	 DWORD PTR __imp_?SetString@ioInputBox@@QAEXPBD@Z

; 2919 : 	pEdit->SetText( szSavePath );

  0008b	ff 75 08	 push	 DWORD PTR _szSavePath$[ebp]
  0008e	8b ce		 mov	 ecx, esi
  00090	ff 15 00 00 00
	00		 call	 DWORD PTR __imp_?SetText@ioEdit@@QAEXPBD@Z
$LN4@SetTextEdi:
  00096	5f		 pop	 edi
  00097	5e		 pop	 esi

; 2920 : }

  00098	c9		 leave
  00099	c2 04 00	 ret	 4
?SetTextEditBtn@GameOptionMovieScreenShotTab@@IAEXPBD@Z ENDP ; GameOptionMovieScreenShotTab::SetTextEditBtn
_TEXT	ENDS
PUBLIC	?GetTextEditBtn@GameOptionMovieScreenShotTab@@IAEXAAVioHashString@@@Z ; GameOptionMovieScreenShotTab::GetTextEditBtn
; Function compile flags: /Ogsp
;	COMDAT ?GetTextEditBtn@GameOptionMovieScreenShotTab@@IAEXAAVioHashString@@@Z
_TEXT	SEGMENT
_rszText$ = 8						; size = 4
?GetTextEditBtn@GameOptionMovieScreenShotTab@@IAEXAAVioHashString@@@Z PROC ; GameOptionMovieScreenShotTab::GetTextEditBtn, COMDAT
; _this$ = ecx

; 2923 : {

  00000	55		 push	 ebp
  00001	8b ec		 mov	 ebp, esp

; 2924 : 	ioButton *pBtn = dynamic_cast<ioButton*> ( FindChildWnd( ID_SCREENSHOT_PATH_BTN ) );

  00003	6a 00		 push	 0
  00005	68 00 00 00 00	 push	 OFFSET ??_R0?AVioButton@@@8
  0000a	68 00 00 00 00	 push	 OFFSET ??_R0?AVioWnd@@@8
  0000f	6a 00		 push	 0
  00011	6a 78		 push	 120			; 00000078H
  00013	ff 15 00 00 00
	00		 call	 DWORD PTR __imp_?FindChildWnd@ioWnd@@QAEPAV1@K@Z
  00019	50		 push	 eax
  0001a	e8 00 00 00 00	 call	 ___RTDynamicCast
  0001f	83 c4 14	 add	 esp, 20			; 00000014H

; 2925 : 	if( !pBtn )

  00022	85 c0		 test	 eax, eax
  00024	74 15		 je	 SHORT $LN1@GetTextEdi

; 2926 : 		return;
; 2927 : 
; 2928 : 	ioUITitle *pTitle = pBtn->GetTitle();

  00026	8b c8		 mov	 ecx, eax
  00028	ff 15 00 00 00
	00		 call	 DWORD PTR __imp_?GetTitle@ioWnd@@QBEPAVioUITitle@@XZ

; 2929 : 	if( pTitle )

  0002e	85 c0		 test	 eax, eax
  00030	74 09		 je	 SHORT $LN1@GetTextEdi

; 2930 : 		pTitle->GetFirstText( rszText );	

  00032	8b c8		 mov	 ecx, eax

; 2931 : }

  00034	5d		 pop	 ebp

; 2930 : 		pTitle->GetFirstText( rszText );	

  00035	ff 25 00 00 00
	00		 jmp	 DWORD PTR __imp_?GetFirstText@ioUITitle@@QAEXAAVioHashString@@@Z
$LN1@GetTextEdi:

; 2931 : }

  0003b	5d		 pop	 ebp
  0003c	c2 04 00	 ret	 4
?GetTextEditBtn@GameOptionMovieScreenShotTab@@IAEXAAVioHashString@@@Z ENDP ; GameOptionMovieScreenShotTab::GetTextEditBtn
_TEXT	ENDS
PUBLIC	??_C@_0CH@OAOKCPLD@GameOptionMovieScreenShotTab?3?3On@ ; `string'
;	COMDAT ??_C@_0CH@OAOKCPLD@GameOptionMovieScreenShotTab?3?3On@
CONST	SEGMENT
??_C@_0CH@OAOKCPLD@GameOptionMovieScreenShotTab?3?3On@ DB 'GameOptionMovi'
	DB	'eScreenShotTab::OnRender', 00H		; `string'
; Function compile flags: /Ogsp
CONST	ENDS
;	COMDAT ?OnRender@GameOptionMovieScreenShotTab@@MAEXXZ
_TEXT	SEGMENT
tv338 = -8						; size = 4
tv386 = -4						; size = 4
_iXPos$ = -4						; size = 4
?OnRender@GameOptionMovieScreenShotTab@@MAEXXZ PROC	; GameOptionMovieScreenShotTab::OnRender, COMDAT
; _this$ = ecx

; 2954 : {

  00000	55		 push	 ebp
  00001	8b ec		 mov	 ebp, esp
  00003	51		 push	 ecx
  00004	51		 push	 ecx
  00005	53		 push	 ebx
  00006	56		 push	 esi
  00007	57		 push	 edi
  00008	8b f1		 mov	 esi, ecx

; 2955 : 	GameOptionBasicWnd::OnRender();

  0000a	ff 15 00 00 00
	00		 call	 DWORD PTR __imp_?OnRender@ioWnd@@MAEXXZ

; 2956 : 
; 2957 : 	int iXPos = GetDerivedPosX();

  00010	8b ce		 mov	 ecx, esi
  00012	ff 15 00 00 00
	00		 call	 DWORD PTR __imp_?GetDerivedPosX@ioWnd@@QBEHXZ

; 2958 : 	int iYPos = GetDerivedPosY();

  00018	8b ce		 mov	 ecx, esi
  0001a	89 45 fc	 mov	 DWORD PTR _iXPos$[ebp], eax
  0001d	ff 15 00 00 00
	00		 call	 DWORD PTR __imp_?GetDerivedPosY@ioWnd@@QBEHXZ

; 2959 : 	if( m_pIconBack )

  00023	33 ff		 xor	 edi, edi
  00025	8b d8		 mov	 ebx, eax
  00027	39 be 04 02 00
	00		 cmp	 DWORD PTR [esi+516], edi
  0002d	0f 84 81 00 00
	00		 je	 $LN6@OnRender@4

; 2960 : 	{
; 2961 : 		m_pIconBack->SetScale( 0.30f );

  00033	8b 8e 04 02 00
	00		 mov	 ecx, DWORD PTR [esi+516]
  00039	f3 0f 10 05 00
	00 00 00	 movss	 xmm0, DWORD PTR __real@3e99999a
  00041	8b 01		 mov	 eax, DWORD PTR [ecx]
  00043	51		 push	 ecx
  00044	f3 0f 11 04 24	 movss	 DWORD PTR [esp], xmm0
  00049	ff 50 1c	 call	 DWORD PTR [eax+28]

; 2962 : 		m_pIconBack->Render( iXPos + 30, iYPos + 27, UI_RENDER_MULTIPLY, TFO_BILINEAR );

  0004c	8b 8e 04 02 00
	00		 mov	 ecx, DWORD PTR [esi+516]
  00052	8b 45 fc	 mov	 eax, DWORD PTR _iXPos$[ebp]
  00055	57		 push	 edi
  00056	57		 push	 edi
  00057	6a 01		 push	 1
  00059	6a 08		 push	 8
  0005b	83 c0 1e	 add	 eax, 30			; 0000001eH
  0005e	51		 push	 ecx
  0005f	8d 53 1b	 lea	 edx, DWORD PTR [ebx+27]
  00062	51		 push	 ecx
  00063	0f 57 c0	 xorps	 xmm0, xmm0
  00066	f3 0f 2a c0	 cvtsi2ss xmm0, eax
  0006a	8b 01		 mov	 eax, DWORD PTR [ecx]
  0006c	0f 57 c9	 xorps	 xmm1, xmm1
  0006f	f3 0f 2a ca	 cvtsi2ss xmm1, edx
  00073	f3 0f 11 4c 24
	04		 movss	 DWORD PTR [esp+4], xmm1
  00079	f3 0f 11 45 f8	 movss	 DWORD PTR tv338[ebp], xmm0
  0007e	f3 0f 11 04 24	 movss	 DWORD PTR [esp], xmm0
  00083	ff 10		 call	 DWORD PTR [eax]

; 2963 : 		m_pIconBack->Render( iXPos + 30, iYPos + 243, UI_RENDER_MULTIPLY, TFO_BILINEAR );

  00085	8b 8e 04 02 00
	00		 mov	 ecx, DWORD PTR [esi+516]
  0008b	8b 01		 mov	 eax, DWORD PTR [ecx]
  0008d	57		 push	 edi
  0008e	57		 push	 edi
  0008f	6a 01		 push	 1
  00091	6a 08		 push	 8
  00093	51		 push	 ecx
  00094	8d 93 f3 00 00
	00		 lea	 edx, DWORD PTR [ebx+243]
  0009a	0f 57 c0	 xorps	 xmm0, xmm0
  0009d	51		 push	 ecx
  0009e	f3 0f 2a c2	 cvtsi2ss xmm0, edx
  000a2	f3 0f 11 44 24
	04		 movss	 DWORD PTR [esp+4], xmm0
  000a8	f3 0f 10 45 f8	 movss	 xmm0, DWORD PTR tv338[ebp]
  000ad	f3 0f 11 04 24	 movss	 DWORD PTR [esp], xmm0
  000b2	ff 10		 call	 DWORD PTR [eax]
$LN6@OnRender@4:

; 2964 : 	}
; 2965 : 	if( m_pIconMovie )

  000b4	39 be 08 02 00
	00		 cmp	 DWORD PTR [esi+520], edi
  000ba	74 4c		 je	 SHORT $LN2@OnRender@4

; 2966 : 	{
; 2967 : 		m_pIconMovie->SetScale( 0.30f );

  000bc	8b 8e 08 02 00
	00		 mov	 ecx, DWORD PTR [esi+520]
  000c2	f3 0f 10 05 00
	00 00 00	 movss	 xmm0, DWORD PTR __real@3e99999a
  000ca	8b 01		 mov	 eax, DWORD PTR [ecx]
  000cc	51		 push	 ecx
  000cd	f3 0f 11 04 24	 movss	 DWORD PTR [esp], xmm0
  000d2	ff 50 1c	 call	 DWORD PTR [eax+28]

; 2968 : 		m_pIconMovie->Render( iXPos + 30, iYPos + 27, UI_RENDER_NORMAL, TFO_BILINEAR );

  000d5	8b 8e 08 02 00
	00		 mov	 ecx, DWORD PTR [esi+520]
  000db	8b 01		 mov	 eax, DWORD PTR [ecx]
  000dd	57		 push	 edi
  000de	57		 push	 edi
  000df	6a 01		 push	 1
  000e1	57		 push	 edi
  000e2	0f 57 c0	 xorps	 xmm0, xmm0
  000e5	8d 53 1b	 lea	 edx, DWORD PTR [ebx+27]
  000e8	f3 0f 2a c2	 cvtsi2ss xmm0, edx
  000ec	8b 55 fc	 mov	 edx, DWORD PTR _iXPos$[ebp]
  000ef	51		 push	 ecx
  000f0	51		 push	 ecx
  000f1	f3 0f 11 44 24
	04		 movss	 DWORD PTR [esp+4], xmm0
  000f7	83 c2 1e	 add	 edx, 30			; 0000001eH
  000fa	0f 57 c0	 xorps	 xmm0, xmm0
  000fd	f3 0f 2a c2	 cvtsi2ss xmm0, edx
  00101	f3 0f 11 04 24	 movss	 DWORD PTR [esp], xmm0
  00106	ff 10		 call	 DWORD PTR [eax]
$LN2@OnRender@4:

; 2969 : 	}
; 2970 : 	if( m_pIconScreenShot )

  00108	39 be 0c 02 00
	00		 cmp	 DWORD PTR [esi+524], edi
  0010e	74 4f		 je	 SHORT $LN1@OnRender@4

; 2971 : 	{
; 2972 : 		m_pIconScreenShot->SetScale( 0.30f );

  00110	8b 8e 0c 02 00
	00		 mov	 ecx, DWORD PTR [esi+524]
  00116	f3 0f 10 05 00
	00 00 00	 movss	 xmm0, DWORD PTR __real@3e99999a
  0011e	8b 01		 mov	 eax, DWORD PTR [ecx]
  00120	51		 push	 ecx
  00121	f3 0f 11 04 24	 movss	 DWORD PTR [esp], xmm0
  00126	ff 50 1c	 call	 DWORD PTR [eax+28]

; 2973 : 		m_pIconScreenShot->Render( iXPos + 30, iYPos + 243, UI_RENDER_NORMAL, TFO_BILINEAR );

  00129	8b 8e 0c 02 00
	00		 mov	 ecx, DWORD PTR [esi+524]
  0012f	8b 01		 mov	 eax, DWORD PTR [ecx]
  00131	57		 push	 edi
  00132	57		 push	 edi
  00133	6a 01		 push	 1
  00135	57		 push	 edi
  00136	0f 57 c0	 xorps	 xmm0, xmm0
  00139	8d 93 f3 00 00
	00		 lea	 edx, DWORD PTR [ebx+243]
  0013f	f3 0f 2a c2	 cvtsi2ss xmm0, edx
  00143	8b 55 fc	 mov	 edx, DWORD PTR _iXPos$[ebp]
  00146	51		 push	 ecx
  00147	51		 push	 ecx
  00148	f3 0f 11 44 24
	04		 movss	 DWORD PTR [esp+4], xmm0
  0014e	83 c2 1e	 add	 edx, 30			; 0000001eH
  00151	0f 57 c0	 xorps	 xmm0, xmm0
  00154	f3 0f 2a c2	 cvtsi2ss xmm0, edx
  00158	f3 0f 11 04 24	 movss	 DWORD PTR [esp], xmm0
  0015d	ff 10		 call	 DWORD PTR [eax]
$LN1@OnRender@4:

; 2974 : 	}
; 2975 : 
; 2976 : 	g_FontMgr.SetAlignType( TAT_LEFT );

  0015f	8b 35 00 00 00
	00		 mov	 esi, DWORD PTR __imp_?GetSingleton@ioFontManager@@SAAAV1@XZ
  00165	57		 push	 edi
  00166	ff d6		 call	 esi
  00168	8b c8		 mov	 ecx, eax
  0016a	ff 15 00 00 00
	00		 call	 DWORD PTR __imp_?SetAlignType@ioFontManager@@QAEXW4TextAlignType@@@Z

; 2977 : 	g_FontMgr.SetTextStyle( TS_NORMAL );

  00170	57		 push	 edi
  00171	ff d6		 call	 esi
  00173	8b c8		 mov	 ecx, eax
  00175	ff 15 00 00 00
	00		 call	 DWORD PTR __imp_?SetTextStyle@ioFontManager@@QAEXW4TextStyle@@@Z

; 2978 : 	g_FontMgr.SetBkColor( 0, 0, 0 );

  0017b	57		 push	 edi
  0017c	57		 push	 edi
  0017d	57		 push	 edi
  0017e	ff d6		 call	 esi
  00180	8b c8		 mov	 ecx, eax
  00182	ff 15 00 00 00
	00		 call	 DWORD PTR __imp_?SetBkColor@ioFontManager@@QAEXHHH@Z

; 2979 : 	g_FontMgr.SetTextColor( TCT_DEFAULT_DARKGRAY );

  00188	68 3a 3a 3a ff	 push	 -12961222		; ff3a3a3aH
  0018d	ff d6		 call	 esi
  0018f	8b c8		 mov	 ecx, eax
  00191	ff 15 00 00 00
	00		 call	 DWORD PTR __imp_?SetTextColor@ioFontManager@@QAEXK@Z

; 2980 : 	g_FontMgr.PrintText( iXPos + 44, iYPos + 19, FONT_SIZE_14, STR(1) );

  00197	8b 45 fc	 mov	 eax, DWORD PTR _iXPos$[ebp]
  0019a	57		 push	 edi
  0019b	6a 01		 push	 1
  0019d	83 c0 2c	 add	 eax, 44			; 0000002cH
  001a0	0f 57 c0	 xorps	 xmm0, xmm0
  001a3	68 00 00 00 00	 push	 OFFSET ??_C@_00CNPNBAHC@?$AA@
  001a8	f3 0f 2a c0	 cvtsi2ss xmm0, eax
  001ac	68 00 00 00 00	 push	 OFFSET ??_C@_0CH@OAOKCPLD@GameOptionMovieScreenShotTab?3?3On@
  001b1	f3 0f 11 45 fc	 movss	 DWORD PTR tv386[ebp], xmm0
  001b6	ff 15 00 00 00
	00		 call	 DWORD PTR __imp_?GetSingleton@ioStringManager@@SAAAV1@XZ
  001bc	8b c8		 mov	 ecx, eax
  001be	ff 15 00 00 00
	00		 call	 DWORD PTR __imp_?GetString@ioStringManager@@QAEPADPBD0HW4FileNamePrefix@1@@Z
  001c4	f3 0f 10 05 00
	00 00 00	 movss	 xmm0, DWORD PTR __real@3f333333
  001cc	50		 push	 eax
  001cd	83 ec 0c	 sub	 esp, 12			; 0000000cH
  001d0	f3 0f 11 44 24
	08		 movss	 DWORD PTR [esp+8], xmm0
  001d6	8d 43 13	 lea	 eax, DWORD PTR [ebx+19]
  001d9	0f 57 c0	 xorps	 xmm0, xmm0
  001dc	f3 0f 2a c0	 cvtsi2ss xmm0, eax
  001e0	f3 0f 11 44 24
	04		 movss	 DWORD PTR [esp+4], xmm0
  001e6	f3 0f 10 45 fc	 movss	 xmm0, DWORD PTR tv386[ebp]
  001eb	f3 0f 11 04 24	 movss	 DWORD PTR [esp], xmm0
  001f0	ff d6		 call	 esi
  001f2	50		 push	 eax
  001f3	ff 15 00 00 00
	00		 call	 DWORD PTR __imp_?PrintText@ioFontManager@@QAAXMMMPBDZZ
  001f9	83 c4 14	 add	 esp, 20			; 00000014H

; 2981 : 	g_FontMgr.PrintText( iXPos + 44, iYPos + 235, FONT_SIZE_14, STR(2) );

  001fc	57		 push	 edi
  001fd	6a 02		 push	 2
  001ff	68 00 00 00 00	 push	 OFFSET ??_C@_00CNPNBAHC@?$AA@
  00204	68 00 00 00 00	 push	 OFFSET ??_C@_0CH@OAOKCPLD@GameOptionMovieScreenShotTab?3?3On@
  00209	ff 15 00 00 00
	00		 call	 DWORD PTR __imp_?GetSingleton@ioStringManager@@SAAAV1@XZ
  0020f	8b c8		 mov	 ecx, eax
  00211	ff 15 00 00 00
	00		 call	 DWORD PTR __imp_?GetString@ioStringManager@@QAEPADPBD0HW4FileNamePrefix@1@@Z
  00217	f3 0f 10 05 00
	00 00 00	 movss	 xmm0, DWORD PTR __real@3f333333
  0021f	50		 push	 eax
  00220	83 ec 0c	 sub	 esp, 12			; 0000000cH
  00223	f3 0f 11 44 24
	08		 movss	 DWORD PTR [esp+8], xmm0
  00229	0f 57 c0	 xorps	 xmm0, xmm0
  0022c	81 c3 eb 00 00
	00		 add	 ebx, 235		; 000000ebH
  00232	f3 0f 2a c3	 cvtsi2ss xmm0, ebx
  00236	f3 0f 11 44 24
	04		 movss	 DWORD PTR [esp+4], xmm0
  0023c	f3 0f 10 45 fc	 movss	 xmm0, DWORD PTR tv386[ebp]
  00241	f3 0f 11 04 24	 movss	 DWORD PTR [esp], xmm0
  00246	ff d6		 call	 esi
  00248	50		 push	 eax
  00249	ff 15 00 00 00
	00		 call	 DWORD PTR __imp_?PrintText@ioFontManager@@QAAXMMMPBDZZ
  0024f	83 c4 14	 add	 esp, 20			; 00000014H
  00252	5f		 pop	 edi
  00253	5e		 pop	 esi
  00254	5b		 pop	 ebx

; 2982 : }

  00255	c9		 leave
  00256	c3		 ret	 0
?OnRender@GameOptionMovieScreenShotTab@@MAEXXZ ENDP	; GameOptionMovieScreenShotTab::OnRender
_TEXT	ENDS
PUBLIC	??_7GameOptionSettingTab@@6B@			; GameOptionSettingTab::`vftable'
PUBLIC	??0GameOptionSettingTab@@QAE@XZ			; GameOptionSettingTab::GameOptionSettingTab
PUBLIC	??_R4GameOptionSettingTab@@6B@			; GameOptionSettingTab::`RTTI Complete Object Locator'
PUBLIC	??_R0?AVGameOptionSettingTab@@@8		; GameOptionSettingTab `RTTI Type Descriptor'
PUBLIC	??_R3GameOptionSettingTab@@8			; GameOptionSettingTab::`RTTI Class Hierarchy Descriptor'
PUBLIC	??_R2GameOptionSettingTab@@8			; GameOptionSettingTab::`RTTI Base Class Array'
PUBLIC	??_R1A@?0A@EA@GameOptionSettingTab@@8		; GameOptionSettingTab::`RTTI Base Class Descriptor at (0,-1,0,64)'
PUBLIC	?iwm_create@GameOptionSettingTab@@UAEXXZ	; GameOptionSettingTab::iwm_create
PUBLIC	?iwm_command@GameOptionSettingTab@@UAEXPAVioWnd@@HK@Z ; GameOptionSettingTab::iwm_command
PUBLIC	?iwm_show@GameOptionSettingTab@@UAEXXZ		; GameOptionSettingTab::iwm_show
PUBLIC	?iwm_hide@GameOptionSettingTab@@UAEXXZ		; GameOptionSettingTab::iwm_hide
EXTRN	??_EGameOptionSettingTab@@UAEPAXI@Z:PROC	; GameOptionSettingTab::`vector deleting destructor'
;	COMDAT ??_R1A@?0A@EA@GameOptionSettingTab@@8
rdata$r	SEGMENT
??_R1A@?0A@EA@GameOptionSettingTab@@8 DD FLAT:??_R0?AVGameOptionSettingTab@@@8 ; GameOptionSettingTab::`RTTI Base Class Descriptor at (0,-1,0,64)'
	DD	01H
	DD	00H
	DD	0ffffffffH
	DD	00H
	DD	040H
	DD	FLAT:??_R3GameOptionSettingTab@@8
rdata$r	ENDS
;	COMDAT ??_R2GameOptionSettingTab@@8
rdata$r	SEGMENT
??_R2GameOptionSettingTab@@8 DD FLAT:??_R1A@?0A@EA@GameOptionSettingTab@@8 ; GameOptionSettingTab::`RTTI Base Class Array'
	DD	FLAT:??_R1A@?0A@EA@ioWnd@@8
rdata$r	ENDS
;	COMDAT ??_R3GameOptionSettingTab@@8
rdata$r	SEGMENT
??_R3GameOptionSettingTab@@8 DD 00H			; GameOptionSettingTab::`RTTI Class Hierarchy Descriptor'
	DD	00H
	DD	02H
	DD	FLAT:??_R2GameOptionSettingTab@@8
rdata$r	ENDS
;	COMDAT ??_R0?AVGameOptionSettingTab@@@8
_DATA	SEGMENT
??_R0?AVGameOptionSettingTab@@@8 DD FLAT:??_7type_info@@6B@ ; GameOptionSettingTab `RTTI Type Descriptor'
	DD	00H
	DB	'.?AVGameOptionSettingTab@@', 00H
_DATA	ENDS
;	COMDAT ??_R4GameOptionSettingTab@@6B@
rdata$r	SEGMENT
??_R4GameOptionSettingTab@@6B@ DD 00H			; GameOptionSettingTab::`RTTI Complete Object Locator'
	DD	00H
	DD	00H
	DD	FLAT:??_R0?AVGameOptionSettingTab@@@8
	DD	FLAT:??_R3GameOptionSettingTab@@8
rdata$r	ENDS
;	COMDAT ??_7GameOptionSettingTab@@6B@
CONST	SEGMENT
??_7GameOptionSettingTab@@6B@ DD FLAT:??_R4GameOptionSettingTab@@6B@ ; GameOptionSettingTab::`vftable'
	DD	FLAT:?AddRenderFrame@ioWnd@@UAEXABVioHashString@@PAVioUIRenderFrame@@@Z
	DD	FLAT:?AddRenderImage@ioWnd@@UAEXABVioHashString@@PAVioUIRenderImage@@@Z
	DD	FLAT:?AddTooltipHelp@ioWnd@@UAEXABVioHashString@@00@Z
	DD	FLAT:?ParseExtraInfo@ioWnd@@UAEXAAVioXMLElement@@@Z
	DD	FLAT:?AddNamedRenderImage@ioWnd@@UAEXABVioHashString@@PAVioUIRenderImage@@@Z
	DD	FLAT:?RemoveNamedRenderImage@ioWnd@@UAEXABVioHashString@@@Z
	DD	FLAT:?GetNamedRenderImage@ioWnd@@UBEPAVioUIRenderImage@@ABVioHashString@@@Z
	DD	FLAT:?SetWindowAlpha@ioWnd@@UAEXH@Z
	DD	FLAT:?SetActive@ioWnd@@UAEXXZ
	DD	FLAT:?SetInActive@ioWnd@@UAEXXZ
	DD	FLAT:?ClearElementImageList@ioWnd@@UAEXXZ
	DD	FLAT:?SetSize@ioWnd@@UAEXHH@Z
	DD	FLAT:?SetPositionToDefault@ioWnd@@UAEXHH_N0@Z
	DD	FLAT:?IsNeedProcess@ioWnd@@UBE_NXZ
	DD	FLAT:?IsCanMouseReaction@ioWnd@@UBE_NXZ
	DD	FLAT:?AddChild@ioWnd@@UAEXPAV1@@Z
	DD	FLAT:?DeleteChild@ioWnd@@UAEXK@Z
	DD	FLAT:?DeleteAllChild@ioWnd@@UAEXXZ
	DD	FLAT:?OnRenderShowAndHide@ioWnd@@MAE_NXZ
	DD	FLAT:?OnRenderShowAndHideByDefault@ioWnd@@MAE_NK@Z
	DD	FLAT:?OnRenderShowAndHideByTop@ioWnd@@MAE_NK@Z
	DD	FLAT:?OnRenderShowAndHideByDown@ioWnd@@MAE_NK@Z
	DD	FLAT:?OnRender@ioWnd@@MAEXXZ
	DD	FLAT:?OnRenderAfterChild@ioWnd@@MAEXXZ
	DD	FLAT:?OnProcess@ioWnd@@MAEXM@Z
	DD	FLAT:?OnMouseProcess@ioWnd@@MAEXABVioMouse@@@Z
	DD	FLAT:?CheckFrameReSize@ioWnd@@MAEXHHHH@Z
	DD	FLAT:?RenderImageList@ioWnd@@MAEXHHW4UIRenderType@@@Z
	DD	FLAT:?iwm_create@GameOptionSettingTab@@UAEXXZ
	DD	FLAT:?iwm_destroy@ioWnd@@UAEXXZ
	DD	FLAT:?iwm_lbuttondown@ioWnd@@UAEXABVioMouse@@@Z
	DD	FLAT:?iwm_lbuttonup@ioWnd@@UAEXABVioMouse@@@Z
	DD	FLAT:?iwm_lbuttonDBLCLK@ioWnd@@UAEXABVioMouse@@@Z
	DD	FLAT:?iwm_rbuttondown@ioWnd@@UAEXABVioMouse@@@Z
	DD	FLAT:?iwm_rbuttonup@ioWnd@@UAEXABVioMouse@@@Z
	DD	FLAT:?iwm_command@GameOptionSettingTab@@UAEXPAVioWnd@@HK@Z
	DD	FLAT:?iwm_mouseover@ioWnd@@UAEXABVioMouse@@@Z
	DD	FLAT:?iwm_mousemove@ioWnd@@UAEXABVioMouse@@@Z
	DD	FLAT:?iwm_mouseleave@ioWnd@@UAEXABVioMouse@@@Z
	DD	FLAT:?iwm_vscroll@ioWnd@@UAEXKH@Z
	DD	FLAT:?iwm_wheel@ioWnd@@UAEXH@Z
	DD	FLAT:?iwm_show@GameOptionSettingTab@@UAEXXZ
	DD	FLAT:?iwm_hide@GameOptionSettingTab@@UAEXXZ
	DD	FLAT:?iwm_esc@ioWnd@@UAE_NXZ
	DD	FLAT:?iwm_spacebar@ioWnd@@UAE_NXZ
	DD	FLAT:?iwm_gototop@ioWnd@@UAEXXZ
	DD	FLAT:?iwm_dragenter@ioWnd@@UAE?AW4IWDropEffect@@PAVioDragItem@@ABVioMouse@@@Z
	DD	FLAT:?iwm_dragover@ioWnd@@UAE?AW4IWDropEffect@@PAVioDragItem@@ABVioMouse@@@Z
	DD	FLAT:?iwm_dragleave@ioWnd@@UAEXXZ
	DD	FLAT:?iwm_dropitem@ioWnd@@UAE_NPAVioDragItem@@ABVioMouse@@PAV1@@Z
	DD	FLAT:?iwm_dropdone@ioWnd@@UAEXPAVioDragItem@@PAV1@_N@Z
	DD	FLAT:?IsEXType@ioWnd@@UBE_NXZ
	DD	FLAT:?GetWndType@ioWnd@@UBEKXZ
	DD	FLAT:?RenderWnd@ioWnd@@UAEXXZ
	DD	FLAT:?SetIDEX@ioWnd@@UAEXAAK_N@Z
	DD	FLAT:?ParseXML@ioWnd@@UAEXAAVioXMLElement@@@Z
	DD	FLAT:?GetHeaderFileName@ioWnd@@UAEPBDXZ
	DD	FLAT:?GetTemplateName@ioWnd@@UAEPBDXZ
	DD	FLAT:?GetDefClassName@ioWnd@@UBEPBDXZ
	DD	FLAT:?_Clone@ioWnd@@UAEPAV1@XZ
	DD	FLAT:?Copy@ioWnd@@UAEXPAV1@@Z
	DD	FLAT:?Save@ioWnd@@UAE_NAAVioXMLElement@@@Z
	DD	FLAT:?SetSaveData@ioWnd@@UAEXAAVioXMLElement@@@Z
	DD	FLAT:?SetPosX@ioWnd@@UAEXH@Z
	DD	FLAT:?SetPosY@ioWnd@@UAEXH@Z
	DD	FLAT:?SetWidth@ioWnd@@UAEXH@Z
	DD	FLAT:?SetHeight@ioWnd@@UAEXH@Z
	DD	FLAT:?GetNumFixedRenderFrame@ioWnd@@UBEHXZ
	DD	FLAT:?GetFixedRenderFrameType@ioWnd@@UAEPBDH@Z
	DD	FLAT:?GetRenderFrame@ioWnd@@UAEPAPAVioUIRenderElement@@PBD@Z
	DD	FLAT:?GetNumFixedRenderImage@ioWnd@@UBEHXZ
	DD	FLAT:?GetFixedRenderImageType@ioWnd@@UAEPBDH@Z
	DD	FLAT:?GetRenderImage@ioWnd@@UAEPAPAVioUIRenderElement@@PBD@Z
	DD	FLAT:?AddEffect@ioWnd@@UAEXABVioHashString@@PAVioUI3DEffectRender@@@Z
	DD	FLAT:?GetEffect@ioWnd@@UAEPAVioUI3DEffectRender@@VioHashString@@@Z
	DD	FLAT:??_EGameOptionSettingTab@@UAEPAXI@Z
; Function compile flags: /Ogsp
CONST	ENDS
;	COMDAT ??0GameOptionSettingTab@@QAE@XZ
_TEXT	SEGMENT
??0GameOptionSettingTab@@QAE@XZ PROC			; GameOptionSettingTab::GameOptionSettingTab, COMDAT
; _this$ = ecx

; 2985 : {

  00000	56		 push	 esi
  00001	8b f1		 mov	 esi, ecx
  00003	ff 15 00 00 00
	00		 call	 DWORD PTR __imp_??0ioWnd@@QAE@XZ
  00009	c7 06 00 00 00
	00		 mov	 DWORD PTR [esi], OFFSET ??_7GameOptionSettingTab@@6B@

; 2986 : 	m_dwCheckBtn = ID_MOVIE_AND_SCREENSHOT_TAB_BTN;

  0000f	c7 86 60 01 00
	00 05 00 00 00	 mov	 DWORD PTR [esi+352], 5

; 2987 : }

  00019	8b c6		 mov	 eax, esi
  0001b	5e		 pop	 esi
  0001c	c3		 ret	 0
??0GameOptionSettingTab@@QAE@XZ ENDP			; GameOptionSettingTab::GameOptionSettingTab
_TEXT	ENDS
PUBLIC	??1GameOptionSettingTab@@UAE@XZ			; GameOptionSettingTab::~GameOptionSettingTab
; Function compile flags: /Ogsp
;	COMDAT ??1GameOptionSettingTab@@UAE@XZ
_TEXT	SEGMENT
??1GameOptionSettingTab@@UAE@XZ PROC			; GameOptionSettingTab::~GameOptionSettingTab, COMDAT
; _this$ = ecx

; 2990 : {

  00000	c7 01 00 00 00
	00		 mov	 DWORD PTR [ecx], OFFSET ??_7GameOptionSettingTab@@6B@

; 2991 : 
; 2992 : }

  00006	ff 25 00 00 00
	00		 jmp	 DWORD PTR __imp_??1ioWnd@@UAE@XZ
??1GameOptionSettingTab@@UAE@XZ ENDP			; GameOptionSettingTab::~GameOptionSettingTab
_TEXT	ENDS
;	COMDAT xdata$x
xdata$x	SEGMENT
__unwindtable$?iwm_create@GameOptionSettingTab@@UAEXXZ DD 0ffffffffH
	DD	FLAT:__unwindfunclet$?iwm_create@GameOptionSettingTab@@UAEXXZ$0
__ehfuncinfo$?iwm_create@GameOptionSettingTab@@UAEXXZ DD 019930522H
	DD	01H
	DD	FLAT:__unwindtable$?iwm_create@GameOptionSettingTab@@UAEXXZ
	DD	2 DUP(00H)
	DD	2 DUP(00H)
	DD	00H
	DD	01H
; Function compile flags: /Ogsp
xdata$x	ENDS
;	COMDAT ?iwm_create@GameOptionSettingTab@@UAEXXZ
_TEXT	SEGMENT
_szTitle$547269 = -28					; size = 16
__$EHRec$ = -12						; size = 12
?iwm_create@GameOptionSettingTab@@UAEXXZ PROC		; GameOptionSettingTab::iwm_create, COMDAT
; _this$ = ecx

; 2995 : {

  00000	6a 10		 push	 16			; 00000010H
  00002	b8 00 00 00 00	 mov	 eax, __ehhandler$?iwm_create@GameOptionSettingTab@@UAEXXZ
  00007	e8 00 00 00 00	 call	 __EH_prolog3

; 2996 : 	//g_GUIMgr.AddWnd( "XML/GameOptionSettingCustomSoundTab.xml", this);
; 2997 : 
; 2998 : 	ioWnd *pBtn = FindChildWnd( ID_CUSTOMSOUND_SETTING_TAB_BTN );

  0000c	6a 04		 push	 4
  0000e	ff 15 00 00 00
	00		 call	 DWORD PTR __imp_?FindChildWnd@ioWnd@@QAEPAV1@K@Z
  00014	8b f0		 mov	 esi, eax

; 2999 : 	if( pBtn )

  00016	85 f6		 test	 esi, esi
  00018	74 4b		 je	 SHORT $LN2@iwm_create@3

; 3000 : 	{
; 3001 : 		ioHashString szTitle;

  0001a	8d 4d e4	 lea	 ecx, DWORD PTR _szTitle$547269[ebp]
  0001d	ff 15 00 00 00
	00		 call	 DWORD PTR __imp_??0ioHashString@@QAE@XZ
  00023	83 65 fc 00	 and	 DWORD PTR __$EHRec$[ebp+8], 0

; 3002 : 		ioUITitle *pTitle = pBtn->GetTitle();

  00027	8b ce		 mov	 ecx, esi
  00029	ff 15 00 00 00
	00		 call	 DWORD PTR __imp_?GetTitle@ioWnd@@QBEPAVioUITitle@@XZ

; 3003 : 		if( pTitle )

  0002f	85 c0		 test	 eax, eax
  00031	74 0c		 je	 SHORT $LN1@iwm_create@3

; 3004 : 			pTitle->GetFirstText( szTitle );

  00033	8d 4d e4	 lea	 ecx, DWORD PTR _szTitle$547269[ebp]
  00036	51		 push	 ecx
  00037	8b c8		 mov	 ecx, eax
  00039	ff 15 00 00 00
	00		 call	 DWORD PTR __imp_?GetFirstText@ioUITitle@@QAEXAAVioHashString@@@Z
$LN1@iwm_create@3:

; 3005 : 		pBtn->SetTitleText( szTitle.c_str(), "", -1 );

  0003f	6a ff		 push	 -1
  00041	68 00 00 00 00	 push	 OFFSET ??_C@_00CNPNBAHC@?$AA@
  00046	8d 4d e4	 lea	 ecx, DWORD PTR _szTitle$547269[ebp]
  00049	ff 15 00 00 00
	00		 call	 DWORD PTR __imp_?c_str@ioHashString@@QBEPBDXZ
  0004f	50		 push	 eax
  00050	8b ce		 mov	 ecx, esi
  00052	ff 15 00 00 00
	00		 call	 DWORD PTR __imp_?SetTitleText@ioWnd@@QAEXPBD0H@Z

; 3006 : 	}

  00058	83 4d fc ff	 or	 DWORD PTR __$EHRec$[ebp+8], -1
  0005c	8d 4d e4	 lea	 ecx, DWORD PTR _szTitle$547269[ebp]
  0005f	ff 15 00 00 00
	00		 call	 DWORD PTR __imp_??1ioHashString@@QAE@XZ
$LN2@iwm_create@3:

; 3007 : }

  00065	e8 00 00 00 00	 call	 __EH_epilog3
  0006a	c3		 ret	 0
_TEXT	ENDS
;	COMDAT text$x
text$x	SEGMENT
__unwindfunclet$?iwm_create@GameOptionSettingTab@@UAEXXZ$0:
  00000	8d 4d e4	 lea	 ecx, DWORD PTR _szTitle$547269[ebp]
  00003	ff 25 00 00 00
	00		 jmp	 DWORD PTR __imp_??1ioHashString@@QAE@XZ
__ehhandler$?iwm_create@GameOptionSettingTab@@UAEXXZ:
  00009	8b 54 24 08	 mov	 edx, DWORD PTR [esp+8]
  0000d	8d 42 0c	 lea	 eax, DWORD PTR [edx+12]
  00010	8b 4a e0	 mov	 ecx, DWORD PTR [edx-32]
  00013	33 c8		 xor	 ecx, eax
  00015	e8 00 00 00 00	 call	 @__security_check_cookie@4
  0001a	b8 00 00 00 00	 mov	 eax, OFFSET __ehfuncinfo$?iwm_create@GameOptionSettingTab@@UAEXXZ
  0001f	e9 00 00 00 00	 jmp	 ___CxxFrameHandler3
text$x	ENDS
?iwm_create@GameOptionSettingTab@@UAEXXZ ENDP		; GameOptionSettingTab::iwm_create
; Function compile flags: /Ogsp
;	COMDAT ?iwm_hide@GameOptionSettingTab@@UAEXXZ
_TEXT	SEGMENT
?iwm_hide@GameOptionSettingTab@@UAEXXZ PROC		; GameOptionSettingTab::iwm_hide, COMDAT
; _this$ = ecx

; 3021 : {

  00000	53		 push	 ebx
  00001	56		 push	 esi

; 3022 : 	HideChildWnd( ID_GAME_SETTING_TAB_WND );

  00002	8b 35 00 00 00
	00		 mov	 esi, DWORD PTR __imp_?HideChildWnd@ioWnd@@QAEXK_N@Z
  00008	57		 push	 edi
  00009	33 db		 xor	 ebx, ebx
  0000b	53		 push	 ebx
  0000c	6a 65		 push	 101			; 00000065H
  0000e	8b f9		 mov	 edi, ecx
  00010	ff d6		 call	 esi

; 3023 : 	HideChildWnd( ID_KEY_SETTING_TAB_WND );

  00012	53		 push	 ebx
  00013	6a 66		 push	 102			; 00000066H
  00015	8b cf		 mov	 ecx, edi
  00017	ff d6		 call	 esi

; 3024 : 	HideChildWnd( ID_MACRO_SETTING_TAB_WND );

  00019	53		 push	 ebx
  0001a	6a 67		 push	 103			; 00000067H
  0001c	8b cf		 mov	 ecx, edi
  0001e	ff d6		 call	 esi

; 3025 : 	HideChildWnd( ID_CUSTOMSOUND_SETTING_TAB_WND );

  00020	53		 push	 ebx
  00021	6a 68		 push	 104			; 00000068H
  00023	8b cf		 mov	 ecx, edi
  00025	ff d6		 call	 esi

; 3026 : 	HideChildWnd( ID_MOVIE_AND_SCREENSHOT_TAB_WND );

  00027	53		 push	 ebx
  00028	6a 69		 push	 105			; 00000069H
  0002a	8b cf		 mov	 ecx, edi
  0002c	ff d6		 call	 esi

; 3027 : 	HideChildWnd( ID_JOY_KEY_SETTING_TAB_WND );

  0002e	53		 push	 ebx
  0002f	6a 6a		 push	 106			; 0000006aH
  00031	8b cf		 mov	 ecx, edi
  00033	ff d6		 call	 esi
  00035	5f		 pop	 edi
  00036	5e		 pop	 esi
  00037	5b		 pop	 ebx

; 3028 : }

  00038	c3		 ret	 0
?iwm_hide@GameOptionSettingTab@@UAEXXZ ENDP		; GameOptionSettingTab::iwm_hide
_TEXT	ENDS
PUBLIC	?ChangeWindow@GameOptionSettingTab@@IAEXK@Z	; GameOptionSettingTab::ChangeWindow
; Function compile flags: /Ogsp
;	COMDAT ?ChangeWindow@GameOptionSettingTab@@IAEXK@Z
_TEXT	SEGMENT
_dwBtn$ = 8						; size = 4
?ChangeWindow@GameOptionSettingTab@@IAEXK@Z PROC	; GameOptionSettingTab::ChangeWindow, COMDAT
; _this$ = ecx

; 3076 : {

  00000	55		 push	 ebp
  00001	8b ec		 mov	 ebp, esp

; 3077 : 	m_dwCheckBtn = dwBtn;

  00003	8b 45 08	 mov	 eax, DWORD PTR _dwBtn$[ebp]
  00006	53		 push	 ebx
  00007	56		 push	 esi
  00008	57		 push	 edi

; 3078 : 
; 3079 : 	CheckRadioButton( ID_GAME_SETTING_TAB_BTN, ID_JOY_KEY_SETTING_TAB_BTN, m_dwCheckBtn );

  00009	50		 push	 eax
  0000a	6a 06		 push	 6
  0000c	8b f1		 mov	 esi, ecx
  0000e	6a 01		 push	 1
  00010	89 86 60 01 00
	00		 mov	 DWORD PTR [esi+352], eax
  00016	ff 15 00 00 00
	00		 call	 DWORD PTR __imp_?CheckRadioButton@ioWnd@@QAEXKKK@Z

; 3080 : 
; 3081 : 	switch( m_dwCheckBtn )

  0001c	8b be 60 01 00
	00		 mov	 edi, DWORD PTR [esi+352]
  00022	4f		 dec	 edi
  00023	0f 84 d7 00 00
	00		 je	 $LN6@ChangeWind
  00029	4f		 dec	 edi
  0002a	0f 84 be 00 00
	00		 je	 $LN5@ChangeWind
  00030	4f		 dec	 edi
  00031	0f 84 98 00 00
	00		 je	 $LN4@ChangeWind
  00037	4f		 dec	 edi
  00038	74 6f		 je	 SHORT $LN3@ChangeWind
  0003a	4f		 dec	 edi
  0003b	74 3c		 je	 SHORT $LN2@ChangeWind
  0003d	4f		 dec	 edi
  0003e	0f 85 f2 00 00
	00		 jne	 $LN7@ChangeWind

; 3123 : 	case ID_JOY_KEY_SETTING_TAB_BTN:
; 3124 : 		ShowChildWnd( ID_JOY_KEY_SETTING_TAB_WND );

  00044	57		 push	 edi
  00045	6a 6a		 push	 106			; 0000006aH
  00047	8b ce		 mov	 ecx, esi
  00049	ff 15 00 00 00
	00		 call	 DWORD PTR __imp_?ShowChildWnd@ioWnd@@QAEXK_N@Z

; 3125 : 		HideChildWnd( ID_MOVIE_AND_SCREENSHOT_TAB_WND );

  0004f	8b 1d 00 00 00
	00		 mov	 ebx, DWORD PTR __imp_?HideChildWnd@ioWnd@@QAEXK_N@Z
  00055	57		 push	 edi
  00056	6a 69		 push	 105			; 00000069H
  00058	8b ce		 mov	 ecx, esi
  0005a	ff d3		 call	 ebx

; 3126 : 		HideChildWnd( ID_GAME_SETTING_TAB_WND );

  0005c	57		 push	 edi
  0005d	6a 65		 push	 101			; 00000065H
  0005f	8b ce		 mov	 ecx, esi
  00061	ff d3		 call	 ebx

; 3127 : 		HideChildWnd( ID_KEY_SETTING_TAB_WND );

  00063	57		 push	 edi
  00064	6a 66		 push	 102			; 00000066H
  00066	8b ce		 mov	 ecx, esi
  00068	ff d3		 call	 ebx

; 3128 : 		HideChildWnd( ID_MACRO_SETTING_TAB_WND );

  0006a	57		 push	 edi
  0006b	6a 67		 push	 103			; 00000067H
  0006d	8b ce		 mov	 ecx, esi
  0006f	ff d3		 call	 ebx

; 3129 : 		HideChildWnd( ID_CUSTOMSOUND_SETTING_TAB_WND );

  00071	57		 push	 edi
  00072	6a 68		 push	 104			; 00000068H

; 3130 : 		break;

  00074	e9 b9 00 00 00	 jmp	 $LN11@ChangeWind
$LN2@ChangeWind:

; 3115 : 	case ID_MOVIE_AND_SCREENSHOT_TAB_BTN:
; 3116 : 		ShowChildWnd( ID_MOVIE_AND_SCREENSHOT_TAB_WND );

  00079	33 ff		 xor	 edi, edi
  0007b	57		 push	 edi
  0007c	6a 69		 push	 105			; 00000069H
  0007e	8b ce		 mov	 ecx, esi
  00080	ff 15 00 00 00
	00		 call	 DWORD PTR __imp_?ShowChildWnd@ioWnd@@QAEXK_N@Z

; 3117 : 		HideChildWnd( ID_GAME_SETTING_TAB_WND );

  00086	8b 1d 00 00 00
	00		 mov	 ebx, DWORD PTR __imp_?HideChildWnd@ioWnd@@QAEXK_N@Z
  0008c	57		 push	 edi
  0008d	6a 65		 push	 101			; 00000065H
  0008f	8b ce		 mov	 ecx, esi
  00091	ff d3		 call	 ebx

; 3118 : 		HideChildWnd( ID_KEY_SETTING_TAB_WND );

  00093	57		 push	 edi
  00094	6a 66		 push	 102			; 00000066H
  00096	8b ce		 mov	 ecx, esi
  00098	ff d3		 call	 ebx

; 3119 : 		HideChildWnd( ID_MACRO_SETTING_TAB_WND );

  0009a	57		 push	 edi
  0009b	6a 67		 push	 103			; 00000067H
  0009d	8b ce		 mov	 ecx, esi
  0009f	ff d3		 call	 ebx

; 3120 : 		HideChildWnd( ID_CUSTOMSOUND_SETTING_TAB_WND );

  000a1	57		 push	 edi
  000a2	6a 68		 push	 104			; 00000068H

; 3121 : 		HideChildWnd( ID_JOY_KEY_SETTING_TAB_WND );
; 3122 : 		break;

  000a4	e9 82 00 00 00	 jmp	 $LN12@ChangeWind
$LN3@ChangeWind:

; 3107 : 	case ID_CUSTOMSOUND_SETTING_TAB_BTN:
; 3108 : 		ShowChildWnd( ID_CUSTOMSOUND_SETTING_TAB_WND );

  000a9	33 ff		 xor	 edi, edi
  000ab	57		 push	 edi
  000ac	6a 68		 push	 104			; 00000068H
  000ae	8b ce		 mov	 ecx, esi
  000b0	ff 15 00 00 00
	00		 call	 DWORD PTR __imp_?ShowChildWnd@ioWnd@@QAEXK_N@Z

; 3109 : 		HideChildWnd( ID_MACRO_SETTING_TAB_WND );

  000b6	8b 1d 00 00 00
	00		 mov	 ebx, DWORD PTR __imp_?HideChildWnd@ioWnd@@QAEXK_N@Z
  000bc	57		 push	 edi
  000bd	6a 67		 push	 103			; 00000067H
  000bf	8b ce		 mov	 ecx, esi
  000c1	ff d3		 call	 ebx

; 3110 : 		HideChildWnd( ID_GAME_SETTING_TAB_WND );

  000c3	57		 push	 edi
  000c4	6a 65		 push	 101			; 00000065H
  000c6	8b ce		 mov	 ecx, esi
  000c8	ff d3		 call	 ebx

; 3111 : 		HideChildWnd( ID_KEY_SETTING_TAB_WND );

  000ca	57		 push	 edi
  000cb	6a 66		 push	 102			; 00000066H

; 3112 : 		HideChildWnd( ID_MOVIE_AND_SCREENSHOT_TAB_WND );
; 3113 : 		HideChildWnd( ID_JOY_KEY_SETTING_TAB_WND );
; 3114 : 		break;

  000cd	eb 55		 jmp	 SHORT $LN13@ChangeWind
$LN4@ChangeWind:

; 3099 : 	case ID_MACRO_SETTING_TAB_BTN:
; 3100 : 		ShowChildWnd( ID_MACRO_SETTING_TAB_WND );

  000cf	33 ff		 xor	 edi, edi
  000d1	57		 push	 edi
  000d2	6a 67		 push	 103			; 00000067H
  000d4	8b ce		 mov	 ecx, esi
  000d6	ff 15 00 00 00
	00		 call	 DWORD PTR __imp_?ShowChildWnd@ioWnd@@QAEXK_N@Z

; 3101 : 		HideChildWnd( ID_GAME_SETTING_TAB_WND );

  000dc	8b 1d 00 00 00
	00		 mov	 ebx, DWORD PTR __imp_?HideChildWnd@ioWnd@@QAEXK_N@Z
  000e2	57		 push	 edi
  000e3	6a 65		 push	 101			; 00000065H
  000e5	8b ce		 mov	 ecx, esi
  000e7	ff d3		 call	 ebx

; 3102 : 		HideChildWnd( ID_KEY_SETTING_TAB_WND );

  000e9	57		 push	 edi
  000ea	6a 66		 push	 102			; 00000066H

; 3103 : 		HideChildWnd( ID_CUSTOMSOUND_SETTING_TAB_WND );
; 3104 : 		HideChildWnd( ID_MOVIE_AND_SCREENSHOT_TAB_WND );
; 3105 : 		HideChildWnd( ID_JOY_KEY_SETTING_TAB_WND );
; 3106 : 		break;

  000ec	eb 2f		 jmp	 SHORT $LN14@ChangeWind
$LN5@ChangeWind:

; 3090 : 		break;
; 3091 : 	case ID_KEY_SETTING_TAB_BTN:
; 3092 : 		ShowChildWnd( ID_KEY_SETTING_TAB_WND );

  000ee	33 ff		 xor	 edi, edi
  000f0	57		 push	 edi
  000f1	6a 66		 push	 102			; 00000066H
  000f3	8b ce		 mov	 ecx, esi
  000f5	ff 15 00 00 00
	00		 call	 DWORD PTR __imp_?ShowChildWnd@ioWnd@@QAEXK_N@Z

; 3093 : 		HideChildWnd( ID_GAME_SETTING_TAB_WND );

  000fb	57		 push	 edi
  000fc	6a 65		 push	 101			; 00000065H

; 3094 : 		HideChildWnd( ID_MACRO_SETTING_TAB_WND );
; 3095 : 		HideChildWnd( ID_CUSTOMSOUND_SETTING_TAB_WND );
; 3096 : 		HideChildWnd( ID_MOVIE_AND_SCREENSHOT_TAB_WND );
; 3097 : 		HideChildWnd( ID_JOY_KEY_SETTING_TAB_WND );
; 3098 : 		break;

  000fe	eb 10		 jmp	 SHORT $LN15@ChangeWind
$LN6@ChangeWind:

; 3082 : 	{
; 3083 : 	case ID_GAME_SETTING_TAB_BTN:
; 3084 : 		ShowChildWnd( ID_GAME_SETTING_TAB_WND );

  00100	33 ff		 xor	 edi, edi
  00102	57		 push	 edi
  00103	6a 65		 push	 101			; 00000065H
  00105	8b ce		 mov	 ecx, esi
  00107	ff 15 00 00 00
	00		 call	 DWORD PTR __imp_?ShowChildWnd@ioWnd@@QAEXK_N@Z

; 3085 : 		HideChildWnd( ID_KEY_SETTING_TAB_WND );

  0010d	57		 push	 edi
  0010e	6a 66		 push	 102			; 00000066H
$LN15@ChangeWind:
  00110	8b 1d 00 00 00
	00		 mov	 ebx, DWORD PTR __imp_?HideChildWnd@ioWnd@@QAEXK_N@Z
  00116	8b ce		 mov	 ecx, esi
  00118	ff d3		 call	 ebx

; 3086 : 		HideChildWnd( ID_MACRO_SETTING_TAB_WND );

  0011a	57		 push	 edi
  0011b	6a 67		 push	 103			; 00000067H
$LN14@ChangeWind:
  0011d	8b ce		 mov	 ecx, esi
  0011f	ff d3		 call	 ebx

; 3087 : 		HideChildWnd( ID_CUSTOMSOUND_SETTING_TAB_WND );

  00121	57		 push	 edi
  00122	6a 68		 push	 104			; 00000068H
$LN13@ChangeWind:
  00124	8b ce		 mov	 ecx, esi
  00126	ff d3		 call	 ebx

; 3088 : 		HideChildWnd( ID_MOVIE_AND_SCREENSHOT_TAB_WND );

  00128	57		 push	 edi
  00129	6a 69		 push	 105			; 00000069H
$LN12@ChangeWind:
  0012b	8b ce		 mov	 ecx, esi
  0012d	ff d3		 call	 ebx

; 3089 : 		HideChildWnd( ID_JOY_KEY_SETTING_TAB_WND );

  0012f	57		 push	 edi
  00130	6a 6a		 push	 106			; 0000006aH
$LN11@ChangeWind:
  00132	8b ce		 mov	 ecx, esi
  00134	ff d3		 call	 ebx
$LN7@ChangeWind:
  00136	5f		 pop	 edi
  00137	5e		 pop	 esi
  00138	5b		 pop	 ebx

; 3131 : 	}
; 3132 : }

  00139	5d		 pop	 ebp
  0013a	c2 04 00	 ret	 4
?ChangeWindow@GameOptionSettingTab@@IAEXK@Z ENDP	; GameOptionSettingTab::ChangeWindow
_TEXT	ENDS
PUBLIC	?size@?$vector@W4ItemType@SettingKeyItemWnd@@V?$allocator@W4ItemType@SettingKeyItemWnd@@@std@@@std@@QBEIXZ ; std::vector<enum SettingKeyItemWnd::ItemType,std::allocator<enum SettingKeyItemWnd::ItemType> >::size
; Function compile flags: /Ogsp
; File c:\program files (x86)\microsoft visual studio 10.0\vc\include\vector
;	COMDAT ?size@?$vector@W4ItemType@SettingKeyItemWnd@@V?$allocator@W4ItemType@SettingKeyItemWnd@@@std@@@std@@QBEIXZ
_TEXT	SEGMENT
?size@?$vector@W4ItemType@SettingKeyItemWnd@@V?$allocator@W4ItemType@SettingKeyItemWnd@@@std@@@std@@QBEIXZ PROC ; std::vector<enum SettingKeyItemWnd::ItemType,std::allocator<enum SettingKeyItemWnd::ItemType> >::size, COMDAT
; _this$ = ecx

; 879  : 		return (this->_Mylast - this->_Myfirst);

  00000	8b 41 04	 mov	 eax, DWORD PTR [ecx+4]
  00003	2b 01		 sub	 eax, DWORD PTR [ecx]
  00005	c1 f8 02	 sar	 eax, 2

; 880  : 		}

  00008	c3		 ret	 0
?size@?$vector@W4ItemType@SettingKeyItemWnd@@V?$allocator@W4ItemType@SettingKeyItemWnd@@@std@@@std@@QBEIXZ ENDP ; std::vector<enum SettingKeyItemWnd::ItemType,std::allocator<enum SettingKeyItemWnd::ItemType> >::size
_TEXT	ENDS
PUBLIC	??A?$vector@W4ItemType@SettingKeyItemWnd@@V?$allocator@W4ItemType@SettingKeyItemWnd@@@std@@@std@@QAEAAW4ItemType@SettingKeyItemWnd@@I@Z ; std::vector<enum SettingKeyItemWnd::ItemType,std::allocator<enum SettingKeyItemWnd::ItemType> >::operator[]
; Function compile flags: /Ogsp
;	COMDAT ??A?$vector@W4ItemType@SettingKeyItemWnd@@V?$allocator@W4ItemType@SettingKeyItemWnd@@@std@@@std@@QAEAAW4ItemType@SettingKeyItemWnd@@I@Z
_TEXT	SEGMENT
__Pos$ = 8						; size = 4
??A?$vector@W4ItemType@SettingKeyItemWnd@@V?$allocator@W4ItemType@SettingKeyItemWnd@@@std@@@std@@QAEAAW4ItemType@SettingKeyItemWnd@@I@Z PROC ; std::vector<enum SettingKeyItemWnd::ItemType,std::allocator<enum SettingKeyItemWnd::ItemType> >::operator[], COMDAT
; _this$ = ecx

; 928  : 		{	// subscript mutable sequence

  00000	55		 push	 ebp
  00001	8b ec		 mov	 ebp, esp

; 929  :  #if _ITERATOR_DEBUG_LEVEL == 2
; 930  : 		if (size() <= _Pos)
; 931  : 			{	// report error
; 932  : 			_DEBUG_ERROR("vector subscript out of range");
; 933  : 			_SCL_SECURE_OUT_OF_RANGE;
; 934  : 			}
; 935  : 
; 936  :  #elif _ITERATOR_DEBUG_LEVEL == 1
; 937  : 		_SCL_SECURE_VALIDATE_RANGE(_Pos < size());
; 938  :  #endif /* _ITERATOR_DEBUG_LEVEL */
; 939  : 
; 940  : 		return (*(this->_Myfirst + _Pos));

  00003	8b 01		 mov	 eax, DWORD PTR [ecx]
  00005	8b 4d 08	 mov	 ecx, DWORD PTR __Pos$[ebp]
  00008	8d 04 88	 lea	 eax, DWORD PTR [eax+ecx*4]

; 941  : 		}

  0000b	5d		 pop	 ebp
  0000c	c2 04 00	 ret	 4
??A?$vector@W4ItemType@SettingKeyItemWnd@@V?$allocator@W4ItemType@SettingKeyItemWnd@@@std@@@std@@QAEAAW4ItemType@SettingKeyItemWnd@@I@Z ENDP ; std::vector<enum SettingKeyItemWnd::ItemType,std::allocator<enum SettingKeyItemWnd::ItemType> >::operator[]
_TEXT	ENDS
PUBLIC	?capacity@?$vector@V?$basic_string@DU?$char_traits@D@std@@V?$allocator@D@2@@std@@V?$allocator@V?$basic_string@DU?$char_traits@D@std@@V?$allocator@D@2@@std@@@2@@std@@QBEIXZ ; std::vector<std::basic_string<char,std::char_traits<char>,std::allocator<char> >,std::allocator<std::basic_string<char,std::char_traits<char>,std::allocator<char> > > >::capacity
; Function compile flags: /Ogsp
;	COMDAT ?capacity@?$vector@V?$basic_string@DU?$char_traits@D@std@@V?$allocator@D@2@@std@@V?$allocator@V?$basic_string@DU?$char_traits@D@std@@V?$allocator@D@2@@std@@@2@@std@@QBEIXZ
_TEXT	SEGMENT
?capacity@?$vector@V?$basic_string@DU?$char_traits@D@std@@V?$allocator@D@2@@std@@V?$allocator@V?$basic_string@DU?$char_traits@D@std@@V?$allocator@D@2@@std@@@2@@std@@QBEIXZ PROC ; std::vector<std::basic_string<char,std::char_traits<char>,std::allocator<char> >,std::allocator<std::basic_string<char,std::char_traits<char>,std::allocator<char> > > >::capacity, COMDAT
; _this$ = ecx

; 777  : 		return (this->_Myend - this->_Myfirst);

  00000	8b 41 08	 mov	 eax, DWORD PTR [ecx+8]
  00003	2b 01		 sub	 eax, DWORD PTR [ecx]
  00005	6a 1c		 push	 28			; 0000001cH
  00007	99		 cdq
  00008	59		 pop	 ecx
  00009	f7 f9		 idiv	 ecx

; 778  : 		}

  0000b	c3		 ret	 0
?capacity@?$vector@V?$basic_string@DU?$char_traits@D@std@@V?$allocator@D@2@@std@@V?$allocator@V?$basic_string@DU?$char_traits@D@std@@V?$allocator@D@2@@std@@@2@@std@@QBEIXZ ENDP ; std::vector<std::basic_string<char,std::char_traits<char>,std::allocator<char> >,std::allocator<std::basic_string<char,std::char_traits<char>,std::allocator<char> > > >::capacity
_TEXT	ENDS
PUBLIC	?size@?$vector@V?$basic_string@DU?$char_traits@D@std@@V?$allocator@D@2@@std@@V?$allocator@V?$basic_string@DU?$char_traits@D@std@@V?$allocator@D@2@@std@@@2@@std@@QBEIXZ ; std::vector<std::basic_string<char,std::char_traits<char>,std::allocator<char> >,std::allocator<std::basic_string<char,std::char_traits<char>,std::allocator<char> > > >::size
; Function compile flags: /Ogsp
;	COMDAT ?size@?$vector@V?$basic_string@DU?$char_traits@D@std@@V?$allocator@D@2@@std@@V?$allocator@V?$basic_string@DU?$char_traits@D@std@@V?$allocator@D@2@@std@@@2@@std@@QBEIXZ
_TEXT	SEGMENT
?size@?$vector@V?$basic_string@DU?$char_traits@D@std@@V?$allocator@D@2@@std@@V?$allocator@V?$basic_string@DU?$char_traits@D@std@@V?$allocator@D@2@@std@@@2@@std@@QBEIXZ PROC ; std::vector<std::basic_string<char,std::char_traits<char>,std::allocator<char> >,std::allocator<std::basic_string<char,std::char_traits<char>,std::allocator<char> > > >::size, COMDAT
; _this$ = ecx

; 879  : 		return (this->_Mylast - this->_Myfirst);

  00000	8b 41 04	 mov	 eax, DWORD PTR [ecx+4]
  00003	2b 01		 sub	 eax, DWORD PTR [ecx]
  00005	6a 1c		 push	 28			; 0000001cH
  00007	99		 cdq
  00008	59		 pop	 ecx
  00009	f7 f9		 idiv	 ecx

; 880  : 		}

  0000b	c3		 ret	 0
?size@?$vector@V?$basic_string@DU?$char_traits@D@std@@V?$allocator@D@2@@std@@V?$allocator@V?$basic_string@DU?$char_traits@D@std@@V?$allocator@D@2@@std@@@2@@std@@QBEIXZ ENDP ; std::vector<std::basic_string<char,std::char_traits<char>,std::allocator<char> >,std::allocator<std::basic_string<char,std::char_traits<char>,std::allocator<char> > > >::size
_TEXT	ENDS
PUBLIC	?_Inside@?$vector@V?$basic_string@DU?$char_traits@D@std@@V?$allocator@D@2@@std@@V?$allocator@V?$basic_string@DU?$char_traits@D@std@@V?$allocator@D@2@@std@@@2@@std@@IBE_NPBV?$basic_string@DU?$char_traits@D@std@@V?$allocator@D@2@@2@@Z ; std::vector<std::basic_string<char,std::char_traits<char>,std::allocator<char> >,std::allocator<std::basic_string<char,std::char_traits<char>,std::allocator<char> > > >::_Inside
; Function compile flags: /Ogsp
;	COMDAT ?_Inside@?$vector@V?$basic_string@DU?$char_traits@D@std@@V?$allocator@D@2@@std@@V?$allocator@V?$basic_string@DU?$char_traits@D@std@@V?$allocator@D@2@@std@@@2@@std@@IBE_NPBV?$basic_string@DU?$char_traits@D@std@@V?$allocator@D@2@@2@@Z
_TEXT	SEGMENT
__Ptr$ = 8						; size = 4
?_Inside@?$vector@V?$basic_string@DU?$char_traits@D@std@@V?$allocator@D@2@@std@@V?$allocator@V?$basic_string@DU?$char_traits@D@std@@V?$allocator@D@2@@std@@@2@@std@@IBE_NPBV?$basic_string@DU?$char_traits@D@std@@V?$allocator@D@2@@2@@Z PROC ; std::vector<std::basic_string<char,std::char_traits<char>,std::allocator<char> >,std::allocator<std::basic_string<char,std::char_traits<char>,std::allocator<char> > > >::_Inside, COMDAT
; _this$ = ecx

; 1285 : 		{	// test if _Ptr points inside vector

  00000	55		 push	 ebp
  00001	8b ec		 mov	 ebp, esp

; 1286 : 		return (_Ptr < this->_Mylast && this->_Myfirst <= _Ptr);

  00003	8b 45 08	 mov	 eax, DWORD PTR __Ptr$[ebp]
  00006	3b 41 04	 cmp	 eax, DWORD PTR [ecx+4]
  00009	73 09		 jae	 SHORT $LN3@Inside
  0000b	39 01		 cmp	 DWORD PTR [ecx], eax
  0000d	77 05		 ja	 SHORT $LN3@Inside
  0000f	33 c0		 xor	 eax, eax
  00011	40		 inc	 eax
  00012	eb 02		 jmp	 SHORT $LN4@Inside
$LN3@Inside:
  00014	33 c0		 xor	 eax, eax
$LN4@Inside:

; 1287 : 		}

  00016	5d		 pop	 ebp
  00017	c2 04 00	 ret	 4
?_Inside@?$vector@V?$basic_string@DU?$char_traits@D@std@@V?$allocator@D@2@@std@@V?$allocator@V?$basic_string@DU?$char_traits@D@std@@V?$allocator@D@2@@std@@@2@@std@@IBE_NPBV?$basic_string@DU?$char_traits@D@std@@V?$allocator@D@2@@2@@Z ENDP ; std::vector<std::basic_string<char,std::char_traits<char>,std::allocator<char> >,std::allocator<std::basic_string<char,std::char_traits<char>,std::allocator<char> > > >::_Inside
_TEXT	ENDS
PUBLIC	??_C@_0BD@OLBABOEK@vector?$DMT?$DO?5too?5long?$AA@ ; `string'
PUBLIC	?_Xlen@?$vector@V?$basic_string@DU?$char_traits@D@std@@V?$allocator@D@2@@std@@V?$allocator@V?$basic_string@DU?$char_traits@D@std@@V?$allocator@D@2@@std@@@2@@std@@IBEXXZ ; std::vector<std::basic_string<char,std::char_traits<char>,std::allocator<char> >,std::allocator<std::basic_string<char,std::char_traits<char>,std::allocator<char> > > >::_Xlen
EXTRN	__imp_?_Xlength_error@std@@YAXPBD@Z:PROC
;	COMDAT ??_C@_0BD@OLBABOEK@vector?$DMT?$DO?5too?5long?$AA@
CONST	SEGMENT
??_C@_0BD@OLBABOEK@vector?$DMT?$DO?5too?5long?$AA@ DB 'vector<T> too long'
	DB	00H						; `string'
; Function compile flags: /Ogsp
CONST	ENDS
;	COMDAT ?_Xlen@?$vector@V?$basic_string@DU?$char_traits@D@std@@V?$allocator@D@2@@std@@V?$allocator@V?$basic_string@DU?$char_traits@D@std@@V?$allocator@D@2@@std@@@2@@std@@IBEXXZ
_TEXT	SEGMENT
?_Xlen@?$vector@V?$basic_string@DU?$char_traits@D@std@@V?$allocator@D@2@@std@@V?$allocator@V?$basic_string@DU?$char_traits@D@std@@V?$allocator@D@2@@std@@@2@@std@@IBEXXZ PROC ; std::vector<std::basic_string<char,std::char_traits<char>,std::allocator<char> >,std::allocator<std::basic_string<char,std::char_traits<char>,std::allocator<char> > > >::_Xlen, COMDAT
; _this$ = ecx

; 1427 : 		_Xlength_error("vector<T> too long");

  00000	68 00 00 00 00	 push	 OFFSET ??_C@_0BD@OLBABOEK@vector?$DMT?$DO?5too?5long?$AA@
  00005	ff 15 00 00 00
	00		 call	 DWORD PTR __imp_?_Xlength_error@std@@YAXPBD@Z
$LN4@Xlen:
$LN3@Xlen:
  0000b	cc		 int	 3
?_Xlen@?$vector@V?$basic_string@DU?$char_traits@D@std@@V?$allocator@D@2@@std@@V?$allocator@V?$basic_string@DU?$char_traits@D@std@@V?$allocator@D@2@@std@@@2@@std@@IBEXXZ ENDP ; std::vector<std::basic_string<char,std::char_traits<char>,std::allocator<char> >,std::allocator<std::basic_string<char,std::char_traits<char>,std::allocator<char> > > >::_Xlen
_TEXT	ENDS
PUBLIC	?_Orphan_range@?$vector@V?$basic_string@DU?$char_traits@D@std@@V?$allocator@D@2@@std@@V?$allocator@V?$basic_string@DU?$char_traits@D@std@@V?$allocator@D@2@@std@@@2@@std@@IBEXPAV?$basic_string@DU?$char_traits@D@std@@V?$allocator@D@2@@2@0@Z ; std::vector<std::basic_string<char,std::char_traits<char>,std::allocator<char> >,std::allocator<std::basic_string<char,std::char_traits<char>,std::allocator<char> > > >::_Orphan_range
; Function compile flags: /Ogsp
;	COMDAT ?_Orphan_range@?$vector@V?$basic_string@DU?$char_traits@D@std@@V?$allocator@D@2@@std@@V?$allocator@V?$basic_string@DU?$char_traits@D@std@@V?$allocator@D@2@@std@@@2@@std@@IBEXPAV?$basic_string@DU?$char_traits@D@std@@V?$allocator@D@2@@2@0@Z
_TEXT	SEGMENT
___formal$ = 8						; size = 4
___formal$ = 12						; size = 4
?_Orphan_range@?$vector@V?$basic_string@DU?$char_traits@D@std@@V?$allocator@D@2@@std@@V?$allocator@V?$basic_string@DU?$char_traits@D@std@@V?$allocator@D@2@@std@@@2@@std@@IBEXPAV?$basic_string@DU?$char_traits@D@std@@V?$allocator@D@2@@2@0@Z PROC ; std::vector<std::basic_string<char,std::char_traits<char>,std::allocator<char> >,std::allocator<std::basic_string<char,std::char_traits<char>,std::allocator<char> > > >::_Orphan_range, COMDAT
; _this$ = ecx

; 1454 : 		}

  00000	c2 08 00	 ret	 8
?_Orphan_range@?$vector@V?$basic_string@DU?$char_traits@D@std@@V?$allocator@D@2@@std@@V?$allocator@V?$basic_string@DU?$char_traits@D@std@@V?$allocator@D@2@@std@@@2@@std@@IBEXPAV?$basic_string@DU?$char_traits@D@std@@V?$allocator@D@2@@2@0@Z ENDP ; std::vector<std::basic_string<char,std::char_traits<char>,std::allocator<char> >,std::allocator<std::basic_string<char,std::char_traits<char>,std::allocator<char> > > >::_Orphan_range
_TEXT	ENDS
PUBLIC	??0?$allocator@V?$basic_string@DU?$char_traits@D@std@@V?$allocator@D@2@@std@@@std@@QAE@XZ ; std::allocator<std::basic_string<char,std::char_traits<char>,std::allocator<char> > >::allocator<std::basic_string<char,std::char_traits<char>,std::allocator<char> > >
; Function compile flags: /Ogsp
; File c:\program files (x86)\microsoft visual studio 10.0\vc\include\xmemory
;	COMDAT ??0?$allocator@V?$basic_string@DU?$char_traits@D@std@@V?$allocator@D@2@@std@@@std@@QAE@XZ
_TEXT	SEGMENT
??0?$allocator@V?$basic_string@DU?$char_traits@D@std@@V?$allocator@D@2@@std@@@std@@QAE@XZ PROC ; std::allocator<std::basic_string<char,std::char_traits<char>,std::allocator<char> > >::allocator<std::basic_string<char,std::char_traits<char>,std::allocator<char> > >, COMDAT
; _this$ = ecx

; 161  : 	_ALLOCATOR() _THROW0()

  00000	8b c1		 mov	 eax, ecx

; 162  : 		{	// construct default allocator (do nothing)
; 163  : 		}

  00002	c3		 ret	 0
??0?$allocator@V?$basic_string@DU?$char_traits@D@std@@V?$allocator@D@2@@std@@@std@@QAE@XZ ENDP ; std::allocator<std::basic_string<char,std::char_traits<char>,std::allocator<char> > >::allocator<std::basic_string<char,std::char_traits<char>,std::allocator<char> > >
_TEXT	ENDS
PUBLIC	?capacity@?$vector@W4ItemType@SettingKeyItemWnd@@V?$allocator@W4ItemType@SettingKeyItemWnd@@@std@@@std@@QBEIXZ ; std::vector<enum SettingKeyItemWnd::ItemType,std::allocator<enum SettingKeyItemWnd::ItemType> >::capacity
; Function compile flags: /Ogsp
; File c:\program files (x86)\microsoft visual studio 10.0\vc\include\vector
;	COMDAT ?capacity@?$vector@W4ItemType@SettingKeyItemWnd@@V?$allocator@W4ItemType@SettingKeyItemWnd@@@std@@@std@@QBEIXZ
_TEXT	SEGMENT
?capacity@?$vector@W4ItemType@SettingKeyItemWnd@@V?$allocator@W4ItemType@SettingKeyItemWnd@@@std@@@std@@QBEIXZ PROC ; std::vector<enum SettingKeyItemWnd::ItemType,std::allocator<enum SettingKeyItemWnd::ItemType> >::capacity, COMDAT
; _this$ = ecx

; 777  : 		return (this->_Myend - this->_Myfirst);

  00000	8b 41 08	 mov	 eax, DWORD PTR [ecx+8]
  00003	2b 01		 sub	 eax, DWORD PTR [ecx]
  00005	c1 f8 02	 sar	 eax, 2

; 778  : 		}

  00008	c3		 ret	 0
?capacity@?$vector@W4ItemType@SettingKeyItemWnd@@V?$allocator@W4ItemType@SettingKeyItemWnd@@@std@@@std@@QBEIXZ ENDP ; std::vector<enum SettingKeyItemWnd::ItemType,std::allocator<enum SettingKeyItemWnd::ItemType> >::capacity
_TEXT	ENDS
PUBLIC	?_Inside@?$vector@W4ItemType@SettingKeyItemWnd@@V?$allocator@W4ItemType@SettingKeyItemWnd@@@std@@@std@@IBE_NPBW4ItemType@SettingKeyItemWnd@@@Z ; std::vector<enum SettingKeyItemWnd::ItemType,std::allocator<enum SettingKeyItemWnd::ItemType> >::_Inside
; Function compile flags: /Ogsp
;	COMDAT ?_Inside@?$vector@W4ItemType@SettingKeyItemWnd@@V?$allocator@W4ItemType@SettingKeyItemWnd@@@std@@@std@@IBE_NPBW4ItemType@SettingKeyItemWnd@@@Z
_TEXT	SEGMENT
__Ptr$ = 8						; size = 4
?_Inside@?$vector@W4ItemType@SettingKeyItemWnd@@V?$allocator@W4ItemType@SettingKeyItemWnd@@@std@@@std@@IBE_NPBW4ItemType@SettingKeyItemWnd@@@Z PROC ; std::vector<enum SettingKeyItemWnd::ItemType,std::allocator<enum SettingKeyItemWnd::ItemType> >::_Inside, COMDAT
; _this$ = ecx

; 1285 : 		{	// test if _Ptr points inside vector

  00000	55		 push	 ebp
  00001	8b ec		 mov	 ebp, esp

; 1286 : 		return (_Ptr < this->_Mylast && this->_Myfirst <= _Ptr);

  00003	8b 45 08	 mov	 eax, DWORD PTR __Ptr$[ebp]
  00006	3b 41 04	 cmp	 eax, DWORD PTR [ecx+4]
  00009	73 09		 jae	 SHORT $LN3@Inside@2
  0000b	39 01		 cmp	 DWORD PTR [ecx], eax
  0000d	77 05		 ja	 SHORT $LN3@Inside@2
  0000f	33 c0		 xor	 eax, eax
  00011	40		 inc	 eax
  00012	eb 02		 jmp	 SHORT $LN4@Inside@2
$LN3@Inside@2:
  00014	33 c0		 xor	 eax, eax
$LN4@Inside@2:

; 1287 : 		}

  00016	5d		 pop	 ebp
  00017	c2 04 00	 ret	 4
?_Inside@?$vector@W4ItemType@SettingKeyItemWnd@@V?$allocator@W4ItemType@SettingKeyItemWnd@@@std@@@std@@IBE_NPBW4ItemType@SettingKeyItemWnd@@@Z ENDP ; std::vector<enum SettingKeyItemWnd::ItemType,std::allocator<enum SettingKeyItemWnd::ItemType> >::_Inside
_TEXT	ENDS
PUBLIC	?_Xlen@?$vector@W4ItemType@SettingKeyItemWnd@@V?$allocator@W4ItemType@SettingKeyItemWnd@@@std@@@std@@IBEXXZ ; std::vector<enum SettingKeyItemWnd::ItemType,std::allocator<enum SettingKeyItemWnd::ItemType> >::_Xlen
; Function compile flags: /Ogsp
;	COMDAT ?_Xlen@?$vector@W4ItemType@SettingKeyItemWnd@@V?$allocator@W4ItemType@SettingKeyItemWnd@@@std@@@std@@IBEXXZ
_TEXT	SEGMENT
?_Xlen@?$vector@W4ItemType@SettingKeyItemWnd@@V?$allocator@W4ItemType@SettingKeyItemWnd@@@std@@@std@@IBEXXZ PROC ; std::vector<enum SettingKeyItemWnd::ItemType,std::allocator<enum SettingKeyItemWnd::ItemType> >::_Xlen, COMDAT
; _this$ = ecx

; 1427 : 		_Xlength_error("vector<T> too long");

  00000	68 00 00 00 00	 push	 OFFSET ??_C@_0BD@OLBABOEK@vector?$DMT?$DO?5too?5long?$AA@
  00005	ff 15 00 00 00
	00		 call	 DWORD PTR __imp_?_Xlength_error@std@@YAXPBD@Z
$LN4@Xlen@2:
$LN3@Xlen@2:
  0000b	cc		 int	 3
?_Xlen@?$vector@W4ItemType@SettingKeyItemWnd@@V?$allocator@W4ItemType@SettingKeyItemWnd@@@std@@@std@@IBEXXZ ENDP ; std::vector<enum SettingKeyItemWnd::ItemType,std::allocator<enum SettingKeyItemWnd::ItemType> >::_Xlen
_TEXT	ENDS
PUBLIC	?_Orphan_range@?$vector@W4ItemType@SettingKeyItemWnd@@V?$allocator@W4ItemType@SettingKeyItemWnd@@@std@@@std@@IBEXPAW4ItemType@SettingKeyItemWnd@@0@Z ; std::vector<enum SettingKeyItemWnd::ItemType,std::allocator<enum SettingKeyItemWnd::ItemType> >::_Orphan_range
; Function compile flags: /Ogsp
;	COMDAT ?_Orphan_range@?$vector@W4ItemType@SettingKeyItemWnd@@V?$allocator@W4ItemType@SettingKeyItemWnd@@@std@@@std@@IBEXPAW4ItemType@SettingKeyItemWnd@@0@Z
_TEXT	SEGMENT
___formal$ = 8						; size = 4
___formal$ = 12						; size = 4
?_Orphan_range@?$vector@W4ItemType@SettingKeyItemWnd@@V?$allocator@W4ItemType@SettingKeyItemWnd@@@std@@@std@@IBEXPAW4ItemType@SettingKeyItemWnd@@0@Z PROC ; std::vector<enum SettingKeyItemWnd::ItemType,std::allocator<enum SettingKeyItemWnd::ItemType> >::_Orphan_range, COMDAT
; _this$ = ecx

; 1454 : 		}

  00000	c2 08 00	 ret	 8
?_Orphan_range@?$vector@W4ItemType@SettingKeyItemWnd@@V?$allocator@W4ItemType@SettingKeyItemWnd@@@std@@@std@@IBEXPAW4ItemType@SettingKeyItemWnd@@0@Z ENDP ; std::vector<enum SettingKeyItemWnd::ItemType,std::allocator<enum SettingKeyItemWnd::ItemType> >::_Orphan_range
_TEXT	ENDS
PUBLIC	??1?$_Vector_val@W4ItemType@SettingKeyItemWnd@@V?$allocator@W4ItemType@SettingKeyItemWnd@@@std@@@std@@QAE@XZ ; std::_Vector_val<enum SettingKeyItemWnd::ItemType,std::allocator<enum SettingKeyItemWnd::ItemType> >::~_Vector_val<enum SettingKeyItemWnd::ItemType,std::allocator<enum SettingKeyItemWnd::ItemType> >
; Function compile flags: /Ogsp
;	COMDAT ??1?$_Vector_val@W4ItemType@SettingKeyItemWnd@@V?$allocator@W4ItemType@SettingKeyItemWnd@@@std@@@std@@QAE@XZ
_TEXT	SEGMENT
??1?$_Vector_val@W4ItemType@SettingKeyItemWnd@@V?$allocator@W4ItemType@SettingKeyItemWnd@@@std@@@std@@QAE@XZ PROC ; std::_Vector_val<enum SettingKeyItemWnd::ItemType,std::allocator<enum SettingKeyItemWnd::ItemType> >::~_Vector_val<enum SettingKeyItemWnd::ItemType,std::allocator<enum SettingKeyItemWnd::ItemType> >, COMDAT
; _this$ = ecx

; 434  : 		}

  00000	c3		 ret	 0
??1?$_Vector_val@W4ItemType@SettingKeyItemWnd@@V?$allocator@W4ItemType@SettingKeyItemWnd@@@std@@@std@@QAE@XZ ENDP ; std::_Vector_val<enum SettingKeyItemWnd::ItemType,std::allocator<enum SettingKeyItemWnd::ItemType> >::~_Vector_val<enum SettingKeyItemWnd::ItemType,std::allocator<enum SettingKeyItemWnd::ItemType> >
_TEXT	ENDS
PUBLIC	??0?$allocator@W4ItemType@SettingKeyItemWnd@@@std@@QAE@XZ ; std::allocator<enum SettingKeyItemWnd::ItemType>::allocator<enum SettingKeyItemWnd::ItemType>
; Function compile flags: /Ogsp
; File c:\program files (x86)\microsoft visual studio 10.0\vc\include\xmemory
;	COMDAT ??0?$allocator@W4ItemType@SettingKeyItemWnd@@@std@@QAE@XZ
_TEXT	SEGMENT
??0?$allocator@W4ItemType@SettingKeyItemWnd@@@std@@QAE@XZ PROC ; std::allocator<enum SettingKeyItemWnd::ItemType>::allocator<enum SettingKeyItemWnd::ItemType>, COMDAT
; _this$ = ecx

; 161  : 	_ALLOCATOR() _THROW0()

  00000	8b c1		 mov	 eax, ecx

; 162  : 		{	// construct default allocator (do nothing)
; 163  : 		}

  00002	c3		 ret	 0
??0?$allocator@W4ItemType@SettingKeyItemWnd@@@std@@QAE@XZ ENDP ; std::allocator<enum SettingKeyItemWnd::ItemType>::allocator<enum SettingKeyItemWnd::ItemType>
_TEXT	ENDS
PUBLIC	?deallocate@?$allocator@W4ItemType@SettingKeyItemWnd@@@std@@QAEXPAW4ItemType@SettingKeyItemWnd@@I@Z ; std::allocator<enum SettingKeyItemWnd::ItemType>::deallocate
; Function compile flags: /Ogsp
;	COMDAT ?deallocate@?$allocator@W4ItemType@SettingKeyItemWnd@@@std@@QAEXPAW4ItemType@SettingKeyItemWnd@@I@Z
_TEXT	SEGMENT
__Ptr$ = 8						; size = 4
___formal$ = 12						; size = 4
?deallocate@?$allocator@W4ItemType@SettingKeyItemWnd@@@std@@QAEXPAW4ItemType@SettingKeyItemWnd@@I@Z PROC ; std::allocator<enum SettingKeyItemWnd::ItemType>::deallocate, COMDAT
; _this$ = ecx

; 181  : 		{	// deallocate object at _Ptr, ignore size

  00000	55		 push	 ebp
  00001	8b ec		 mov	 ebp, esp

; 182  : 		::operator delete(_Ptr);

  00003	ff 75 08	 push	 DWORD PTR __Ptr$[ebp]
  00006	e8 00 00 00 00	 call	 ??3@YAXPAX@Z		; operator delete
  0000b	59		 pop	 ecx

; 183  : 		}

  0000c	5d		 pop	 ebp
  0000d	c2 08 00	 ret	 8
?deallocate@?$allocator@W4ItemType@SettingKeyItemWnd@@@std@@QAEXPAW4ItemType@SettingKeyItemWnd@@I@Z ENDP ; std::allocator<enum SettingKeyItemWnd::ItemType>::deallocate
_TEXT	ENDS
PUBLIC	??0?$allocator@V?$basic_string@DU?$char_traits@D@std@@V?$allocator@D@2@@std@@@std@@QAE@ABV01@@Z ; std::allocator<std::basic_string<char,std::char_traits<char>,std::allocator<char> > >::allocator<std::basic_string<char,std::char_traits<char>,std::allocator<char> > >
; Function compile flags: /Ogsp
;	COMDAT ??0?$allocator@V?$basic_string@DU?$char_traits@D@std@@V?$allocator@D@2@@std@@@std@@QAE@ABV01@@Z
_TEXT	SEGMENT
___formal$ = 8						; size = 4
??0?$allocator@V?$basic_string@DU?$char_traits@D@std@@V?$allocator@D@2@@std@@@std@@QAE@ABV01@@Z PROC ; std::allocator<std::basic_string<char,std::char_traits<char>,std::allocator<char> > >::allocator<std::basic_string<char,std::char_traits<char>,std::allocator<char> > >, COMDAT
; _this$ = ecx

; 165  : 	_ALLOCATOR(const _ALLOCATOR<_Ty>&) _THROW0()

  00000	8b c1		 mov	 eax, ecx

; 166  : 		{	// construct by copying (do nothing)
; 167  : 		}

  00002	c2 04 00	 ret	 4
??0?$allocator@V?$basic_string@DU?$char_traits@D@std@@V?$allocator@D@2@@std@@@std@@QAE@ABV01@@Z ENDP ; std::allocator<std::basic_string<char,std::char_traits<char>,std::allocator<char> > >::allocator<std::basic_string<char,std::char_traits<char>,std::allocator<char> > >
_TEXT	ENDS
PUBLIC	?max_size@?$allocator@V?$basic_string@DU?$char_traits@D@std@@V?$allocator@D@2@@std@@@std@@QBEIXZ ; std::allocator<std::basic_string<char,std::char_traits<char>,std::allocator<char> > >::max_size
; Function compile flags: /Ogsp
;	COMDAT ?max_size@?$allocator@V?$basic_string@DU?$char_traits@D@std@@V?$allocator@D@2@@std@@@std@@QBEIXZ
_TEXT	SEGMENT
?max_size@?$allocator@V?$basic_string@DU?$char_traits@D@std@@V?$allocator@D@2@@std@@@std@@QBEIXZ PROC ; std::allocator<std::basic_string<char,std::char_traits<char>,std::allocator<char> > >::max_size, COMDAT
; _this$ = ecx

; 218  : 		_SIZT _Count = (_SIZT)(-1) / sizeof (_Ty);
; 219  : 		return (0 < _Count ? _Count : 1);

  00000	b8 49 92 24 09	 mov	 eax, 153391689		; 09249249H

; 220  : 		}

  00005	c3		 ret	 0
?max_size@?$allocator@V?$basic_string@DU?$char_traits@D@std@@V?$allocator@D@2@@std@@@std@@QBEIXZ ENDP ; std::allocator<std::basic_string<char,std::char_traits<char>,std::allocator<char> > >::max_size
_TEXT	ENDS
PUBLIC	??0?$allocator@W4ItemType@SettingKeyItemWnd@@@std@@QAE@ABV01@@Z ; std::allocator<enum SettingKeyItemWnd::ItemType>::allocator<enum SettingKeyItemWnd::ItemType>
; Function compile flags: /Ogsp
;	COMDAT ??0?$allocator@W4ItemType@SettingKeyItemWnd@@@std@@QAE@ABV01@@Z
_TEXT	SEGMENT
___formal$ = 8						; size = 4
??0?$allocator@W4ItemType@SettingKeyItemWnd@@@std@@QAE@ABV01@@Z PROC ; std::allocator<enum SettingKeyItemWnd::ItemType>::allocator<enum SettingKeyItemWnd::ItemType>, COMDAT
; _this$ = ecx

; 165  : 	_ALLOCATOR(const _ALLOCATOR<_Ty>&) _THROW0()

  00000	8b c1		 mov	 eax, ecx

; 166  : 		{	// construct by copying (do nothing)
; 167  : 		}

  00002	c2 04 00	 ret	 4
??0?$allocator@W4ItemType@SettingKeyItemWnd@@@std@@QAE@ABV01@@Z ENDP ; std::allocator<enum SettingKeyItemWnd::ItemType>::allocator<enum SettingKeyItemWnd::ItemType>
_TEXT	ENDS
PUBLIC	?max_size@?$allocator@W4ItemType@SettingKeyItemWnd@@@std@@QBEIXZ ; std::allocator<enum SettingKeyItemWnd::ItemType>::max_size
; Function compile flags: /Ogsp
;	COMDAT ?max_size@?$allocator@W4ItemType@SettingKeyItemWnd@@@std@@QBEIXZ
_TEXT	SEGMENT
?max_size@?$allocator@W4ItemType@SettingKeyItemWnd@@@std@@QBEIXZ PROC ; std::allocator<enum SettingKeyItemWnd::ItemType>::max_size, COMDAT
; _this$ = ecx

; 218  : 		_SIZT _Count = (_SIZT)(-1) / sizeof (_Ty);
; 219  : 		return (0 < _Count ? _Count : 1);

  00000	b8 ff ff ff 3f	 mov	 eax, 1073741823		; 3fffffffH

; 220  : 		}

  00005	c3		 ret	 0
?max_size@?$allocator@W4ItemType@SettingKeyItemWnd@@@std@@QBEIXZ ENDP ; std::allocator<enum SettingKeyItemWnd::ItemType>::max_size
_TEXT	ENDS
PUBLIC	??0?$_Vector_const_iterator@V?$_Vector_val@W4ItemType@SettingKeyItemWnd@@V?$allocator@W4ItemType@SettingKeyItemWnd@@@std@@@std@@@std@@QAE@PAW4ItemType@SettingKeyItemWnd@@PBU_Container_base0@1@@Z ; std::_Vector_const_iterator<std::_Vector_val<enum SettingKeyItemWnd::ItemType,std::allocator<enum SettingKeyItemWnd::ItemType> > >::_Vector_const_iterator<std::_Vector_val<enum SettingKeyItemWnd::ItemType,std::allocator<enum SettingKeyItemWnd::ItemType> > >
; Function compile flags: /Ogsp
; File c:\program files (x86)\microsoft visual studio 10.0\vc\include\vector
;	COMDAT ??0?$_Vector_const_iterator@V?$_Vector_val@W4ItemType@SettingKeyItemWnd@@V?$allocator@W4ItemType@SettingKeyItemWnd@@@std@@@std@@@std@@QAE@PAW4ItemType@SettingKeyItemWnd@@PBU_Container_base0@1@@Z
_TEXT	SEGMENT
__Parg$ = 8						; size = 4
__Pvector$ = 12						; size = 4
??0?$_Vector_const_iterator@V?$_Vector_val@W4ItemType@SettingKeyItemWnd@@V?$allocator@W4ItemType@SettingKeyItemWnd@@@std@@@std@@@std@@QAE@PAW4ItemType@SettingKeyItemWnd@@PBU_Container_base0@1@@Z PROC ; std::_Vector_const_iterator<std::_Vector_val<enum SettingKeyItemWnd::ItemType,std::allocator<enum SettingKeyItemWnd::ItemType> > >::_Vector_const_iterator<std::_Vector_val<enum SettingKeyItemWnd::ItemType,std::allocator<enum SettingKeyItemWnd::ItemType> > >, COMDAT
; _this$ = ecx

; 45   : 		{	// construct with pointer _Parg

  00000	55		 push	 ebp
  00001	8b ec		 mov	 ebp, esp
  00003	8b c1		 mov	 eax, ecx
  00005	8b 4d 08	 mov	 ecx, DWORD PTR __Parg$[ebp]
  00008	89 08		 mov	 DWORD PTR [eax], ecx

; 46   : 		this->_Adopt(_Pvector);
; 47   : 		}

  0000a	5d		 pop	 ebp
  0000b	c2 08 00	 ret	 8
??0?$_Vector_const_iterator@V?$_Vector_val@W4ItemType@SettingKeyItemWnd@@V?$allocator@W4ItemType@SettingKeyItemWnd@@@std@@@std@@@std@@QAE@PAW4ItemType@SettingKeyItemWnd@@PBU_Container_base0@1@@Z ENDP ; std::_Vector_const_iterator<std::_Vector_val<enum SettingKeyItemWnd::ItemType,std::allocator<enum SettingKeyItemWnd::ItemType> > >::_Vector_const_iterator<std::_Vector_val<enum SettingKeyItemWnd::ItemType,std::allocator<enum SettingKeyItemWnd::ItemType> > >
_TEXT	ENDS
PUBLIC	?_Compat@?$_Vector_const_iterator@V?$_Vector_val@W4ItemType@SettingKeyItemWnd@@V?$allocator@W4ItemType@SettingKeyItemWnd@@@std@@@std@@@std@@QBEXABV12@@Z ; std::_Vector_const_iterator<std::_Vector_val<enum SettingKeyItemWnd::ItemType,std::allocator<enum SettingKeyItemWnd::ItemType> > >::_Compat
; Function compile flags: /Ogsp
;	COMDAT ?_Compat@?$_Vector_const_iterator@V?$_Vector_val@W4ItemType@SettingKeyItemWnd@@V?$allocator@W4ItemType@SettingKeyItemWnd@@@std@@@std@@@std@@QBEXABV12@@Z
_TEXT	SEGMENT
___formal$ = 8						; size = 4
?_Compat@?$_Vector_const_iterator@V?$_Vector_val@W4ItemType@SettingKeyItemWnd@@V?$allocator@W4ItemType@SettingKeyItemWnd@@@std@@@std@@@std@@QBEXABV12@@Z PROC ; std::_Vector_const_iterator<std::_Vector_val<enum SettingKeyItemWnd::ItemType,std::allocator<enum SettingKeyItemWnd::ItemType> > >::_Compat, COMDAT
; _this$ = ecx

; 253  : 		}

  00000	c2 04 00	 ret	 4
?_Compat@?$_Vector_const_iterator@V?$_Vector_val@W4ItemType@SettingKeyItemWnd@@V?$allocator@W4ItemType@SettingKeyItemWnd@@@std@@@std@@@std@@QBEXABV12@@Z ENDP ; std::_Vector_const_iterator<std::_Vector_val<enum SettingKeyItemWnd::ItemType,std::allocator<enum SettingKeyItemWnd::ItemType> > >::_Compat
_TEXT	ENDS
PUBLIC	??$addressof@V?$basic_string@DU?$char_traits@D@std@@V?$allocator@D@2@@std@@@std@@YAPAV?$basic_string@DU?$char_traits@D@std@@V?$allocator@D@2@@0@AAV10@@Z ; std::addressof<std::basic_string<char,std::char_traits<char>,std::allocator<char> > >
; Function compile flags: /Ogsp
; File c:\program files (x86)\microsoft visual studio 10.0\vc\include\xmemory
;	COMDAT ??$addressof@V?$basic_string@DU?$char_traits@D@std@@V?$allocator@D@2@@std@@@std@@YAPAV?$basic_string@DU?$char_traits@D@std@@V?$allocator@D@2@@0@AAV10@@Z
_TEXT	SEGMENT
__Val$ = 8						; size = 4
??$addressof@V?$basic_string@DU?$char_traits@D@std@@V?$allocator@D@2@@std@@@std@@YAPAV?$basic_string@DU?$char_traits@D@std@@V?$allocator@D@2@@0@AAV10@@Z PROC ; std::addressof<std::basic_string<char,std::char_traits<char>,std::allocator<char> > >, COMDAT

; 110  : 	{	// return address of _Val

  00000	55		 push	 ebp
  00001	8b ec		 mov	 ebp, esp

; 111  : 	return ((_Ty *) &(char&)_Val);

  00003	8b 45 08	 mov	 eax, DWORD PTR __Val$[ebp]

; 112  : 	}

  00006	5d		 pop	 ebp
  00007	c3		 ret	 0
??$addressof@V?$basic_string@DU?$char_traits@D@std@@V?$allocator@D@2@@std@@@std@@YAPAV?$basic_string@DU?$char_traits@D@std@@V?$allocator@D@2@@0@AAV10@@Z ENDP ; std::addressof<std::basic_string<char,std::char_traits<char>,std::allocator<char> > >
_TEXT	ENDS
PUBLIC	??$addressof@W4ItemType@SettingKeyItemWnd@@@std@@YAPAW4ItemType@SettingKeyItemWnd@@AAW412@@Z ; std::addressof<enum SettingKeyItemWnd::ItemType>
; Function compile flags: /Ogsp
;	COMDAT ??$addressof@W4ItemType@SettingKeyItemWnd@@@std@@YAPAW4ItemType@SettingKeyItemWnd@@AAW412@@Z
_TEXT	SEGMENT
__Val$ = 8						; size = 4
??$addressof@W4ItemType@SettingKeyItemWnd@@@std@@YAPAW4ItemType@SettingKeyItemWnd@@AAW412@@Z PROC ; std::addressof<enum SettingKeyItemWnd::ItemType>, COMDAT

; 110  : 	{	// return address of _Val

  00000	55		 push	 ebp
  00001	8b ec		 mov	 ebp, esp

; 111  : 	return ((_Ty *) &(char&)_Val);

  00003	8b 45 08	 mov	 eax, DWORD PTR __Val$[ebp]

; 112  : 	}

  00006	5d		 pop	 ebp
  00007	c3		 ret	 0
??$addressof@W4ItemType@SettingKeyItemWnd@@@std@@YAPAW4ItemType@SettingKeyItemWnd@@AAW412@@Z ENDP ; std::addressof<enum SettingKeyItemWnd::ItemType>
_TEXT	ENDS
PUBLIC	??$forward@W4ItemType@SettingKeyItemWnd@@@std@@YA$$QAW4ItemType@SettingKeyItemWnd@@AAW412@@Z ; std::forward<enum SettingKeyItemWnd::ItemType>
; Function compile flags: /Ogsp
; File c:\program files (x86)\microsoft visual studio 10.0\vc\include\utility
;	COMDAT ??$forward@W4ItemType@SettingKeyItemWnd@@@std@@YA$$QAW4ItemType@SettingKeyItemWnd@@AAW412@@Z
_TEXT	SEGMENT
__Arg$ = 8						; size = 4
??$forward@W4ItemType@SettingKeyItemWnd@@@std@@YA$$QAW4ItemType@SettingKeyItemWnd@@AAW412@@Z PROC ; std::forward<enum SettingKeyItemWnd::ItemType>, COMDAT

; 78   : 	{	// forward _Arg, given explicitly specified type parameter

  00000	55		 push	 ebp
  00001	8b ec		 mov	 ebp, esp

; 79   : 	return ((_Ty&&)_Arg);

  00003	8b 45 08	 mov	 eax, DWORD PTR __Arg$[ebp]

; 80   : 	}

  00006	5d		 pop	 ebp
  00007	c3		 ret	 0
??$forward@W4ItemType@SettingKeyItemWnd@@@std@@YA$$QAW4ItemType@SettingKeyItemWnd@@AAW412@@Z ENDP ; std::forward<enum SettingKeyItemWnd::ItemType>
_TEXT	ENDS
PUBLIC	__TI2?AVbad_alloc@std@@
PUBLIC	??$_Allocate@V?$basic_string@DU?$char_traits@D@std@@V?$allocator@D@2@@std@@@std@@YAPAV?$basic_string@DU?$char_traits@D@std@@V?$allocator@D@2@@0@IPAV10@@Z ; std::_Allocate<std::basic_string<char,std::char_traits<char>,std::allocator<char> > >
PUBLIC	__CTA2?AVbad_alloc@std@@
PUBLIC	__CT??_R0?AVbad_alloc@std@@@8??0bad_alloc@std@@QAE@ABV01@@Z12
PUBLIC	??0bad_alloc@std@@QAE@ABV01@@Z			; std::bad_alloc::bad_alloc
PUBLIC	__CT??_R0?AVexception@std@@@8??0exception@std@@QAE@ABV01@@Z12
EXTRN	??2@YAPAXI@Z:PROC				; operator new
EXTRN	__CxxThrowException@8:PROC
EXTRN	??0exception@std@@QAE@ABV01@@Z:PROC		; std::exception::exception
;	COMDAT __CT??_R0?AVexception@std@@@8??0exception@std@@QAE@ABV01@@Z12
; File c:\program files (x86)\microsoft visual studio 10.0\vc\include\exception
xdata$x	SEGMENT
__CT??_R0?AVexception@std@@@8??0exception@std@@QAE@ABV01@@Z12 DD 00H
	DD	FLAT:??_R0?AVexception@std@@@8
	DD	00H
	DD	0ffffffffH
	ORG $+4
	DD	0cH
	DD	FLAT:??0exception@std@@QAE@ABV01@@Z
xdata$x	ENDS
;	COMDAT __CT??_R0?AVbad_alloc@std@@@8??0bad_alloc@std@@QAE@ABV01@@Z12
xdata$x	SEGMENT
__CT??_R0?AVbad_alloc@std@@@8??0bad_alloc@std@@QAE@ABV01@@Z12 DD 00H
	DD	FLAT:??_R0?AVbad_alloc@std@@@8
	DD	00H
	DD	0ffffffffH
	ORG $+4
	DD	0cH
	DD	FLAT:??0bad_alloc@std@@QAE@ABV01@@Z
xdata$x	ENDS
;	COMDAT __CTA2?AVbad_alloc@std@@
xdata$x	SEGMENT
__CTA2?AVbad_alloc@std@@ DD 02H
	DD	FLAT:__CT??_R0?AVbad_alloc@std@@@8??0bad_alloc@std@@QAE@ABV01@@Z12
	DD	FLAT:__CT??_R0?AVexception@std@@@8??0exception@std@@QAE@ABV01@@Z12
xdata$x	ENDS
;	COMDAT __TI2?AVbad_alloc@std@@
xdata$x	SEGMENT
__TI2?AVbad_alloc@std@@ DD 00H
	DD	FLAT:??1bad_alloc@std@@UAE@XZ
	DD	00H
	DD	FLAT:__CTA2?AVbad_alloc@std@@
; Function compile flags: /Ogsp
; File c:\program files (x86)\microsoft visual studio 10.0\vc\include\xmemory
xdata$x	ENDS
;	COMDAT ??$_Allocate@V?$basic_string@DU?$char_traits@D@std@@V?$allocator@D@2@@std@@@std@@YAPAV?$basic_string@DU?$char_traits@D@std@@V?$allocator@D@2@@0@IPAV10@@Z
_TEXT	SEGMENT
$T550406 = -12						; size = 12
$T550411 = 8						; size = 4
__Count$ = 8						; size = 4
___formal$ = 12						; size = 4
??$_Allocate@V?$basic_string@DU?$char_traits@D@std@@V?$allocator@D@2@@std@@@std@@YAPAV?$basic_string@DU?$char_traits@D@std@@V?$allocator@D@2@@0@IPAV10@@Z PROC ; std::_Allocate<std::basic_string<char,std::char_traits<char>,std::allocator<char> > >, COMDAT

; 30   : 	{	// allocate storage for _Count elements of type _Ty

  00000	55		 push	 ebp
  00001	8b ec		 mov	 ebp, esp

; 31   : 	void *_Ptr = 0;
; 32   : 
; 33   : 	if (_Count <= 0)

  00003	8b 4d 08	 mov	 ecx, DWORD PTR __Count$[ebp]
  00006	83 ec 0c	 sub	 esp, 12			; 0000000cH
  00009	33 c0		 xor	 eax, eax
  0000b	85 c9		 test	 ecx, ecx

; 34   : 		_Count = 0;
; 35   : 	else if (((_SIZT)(-1) / sizeof (_Ty) < _Count)

  0000d	74 3c		 je	 SHORT $LN5@Allocate

; 36   : 		|| (_Ptr = ::operator new(_Count * sizeof (_Ty))) == 0)

  0000f	81 f9 49 92 24
	09		 cmp	 ecx, 153391689		; 09249249H
  00015	77 0e		 ja	 SHORT $LN1@Allocate
  00017	6b c9 1c	 imul	 ecx, 28			; 0000001cH
  0001a	51		 push	 ecx
  0001b	e8 00 00 00 00	 call	 ??2@YAPAXI@Z		; operator new
  00020	59		 pop	 ecx
  00021	85 c0		 test	 eax, eax

; 38   : 
; 39   : 	return ((_Ty _FARQ *)_Ptr);

  00023	75 26		 jne	 SHORT $LN5@Allocate
$LN1@Allocate:

; 37   : 		_THROW_NCEE(bad_alloc, 0);

  00025	83 65 08 00	 and	 DWORD PTR $T550411[ebp], 0
  00029	8d 45 08	 lea	 eax, DWORD PTR $T550411[ebp]
  0002c	50		 push	 eax
  0002d	8d 4d f4	 lea	 ecx, DWORD PTR $T550406[ebp]
  00030	ff 15 00 00 00
	00		 call	 DWORD PTR __imp_??0exception@std@@QAE@ABQBD@Z
  00036	68 00 00 00 00	 push	 OFFSET __TI2?AVbad_alloc@std@@
  0003b	8d 45 f4	 lea	 eax, DWORD PTR $T550406[ebp]
  0003e	50		 push	 eax
  0003f	c7 45 f4 00 00
	00 00		 mov	 DWORD PTR $T550406[ebp], OFFSET ??_7bad_alloc@std@@6B@
  00046	e8 00 00 00 00	 call	 __CxxThrowException@8
$LN10@Allocate:
$LN5@Allocate:

; 40   : 	}

  0004b	c9		 leave
  0004c	c3		 ret	 0
$LN9@Allocate:
??$_Allocate@V?$basic_string@DU?$char_traits@D@std@@V?$allocator@D@2@@std@@@std@@YAPAV?$basic_string@DU?$char_traits@D@std@@V?$allocator@D@2@@0@IPAV10@@Z ENDP ; std::_Allocate<std::basic_string<char,std::char_traits<char>,std::allocator<char> > >
_TEXT	ENDS
PUBLIC	??$_Allocate@W4ItemType@SettingKeyItemWnd@@@std@@YAPAW4ItemType@SettingKeyItemWnd@@IPAW412@@Z ; std::_Allocate<enum SettingKeyItemWnd::ItemType>
; Function compile flags: /Ogsp
;	COMDAT ??$_Allocate@W4ItemType@SettingKeyItemWnd@@@std@@YAPAW4ItemType@SettingKeyItemWnd@@IPAW412@@Z
_TEXT	SEGMENT
$T550416 = -12						; size = 12
$T550420 = 8						; size = 4
__Count$ = 8						; size = 4
___formal$ = 12						; size = 4
??$_Allocate@W4ItemType@SettingKeyItemWnd@@@std@@YAPAW4ItemType@SettingKeyItemWnd@@IPAW412@@Z PROC ; std::_Allocate<enum SettingKeyItemWnd::ItemType>, COMDAT

; 30   : 	{	// allocate storage for _Count elements of type _Ty

  00000	55		 push	 ebp
  00001	8b ec		 mov	 ebp, esp

; 31   : 	void *_Ptr = 0;
; 32   : 
; 33   : 	if (_Count <= 0)

  00003	8b 4d 08	 mov	 ecx, DWORD PTR __Count$[ebp]
  00006	83 ec 0c	 sub	 esp, 12			; 0000000cH
  00009	33 c0		 xor	 eax, eax
  0000b	85 c9		 test	 ecx, ecx

; 34   : 		_Count = 0;
; 35   : 	else if (((_SIZT)(-1) / sizeof (_Ty) < _Count)

  0000d	74 3e		 je	 SHORT $LN5@Allocate@2

; 36   : 		|| (_Ptr = ::operator new(_Count * sizeof (_Ty))) == 0)

  0000f	81 f9 ff ff ff
	3f		 cmp	 ecx, 1073741823		; 3fffffffH
  00015	77 10		 ja	 SHORT $LN1@Allocate@2
  00017	8b c1		 mov	 eax, ecx
  00019	c1 e0 02	 shl	 eax, 2
  0001c	50		 push	 eax
  0001d	e8 00 00 00 00	 call	 ??2@YAPAXI@Z		; operator new
  00022	59		 pop	 ecx
  00023	85 c0		 test	 eax, eax

; 38   : 
; 39   : 	return ((_Ty _FARQ *)_Ptr);

  00025	75 26		 jne	 SHORT $LN5@Allocate@2
$LN1@Allocate@2:

; 37   : 		_THROW_NCEE(bad_alloc, 0);

  00027	83 65 08 00	 and	 DWORD PTR $T550420[ebp], 0
  0002b	8d 45 08	 lea	 eax, DWORD PTR $T550420[ebp]
  0002e	50		 push	 eax
  0002f	8d 4d f4	 lea	 ecx, DWORD PTR $T550416[ebp]
  00032	ff 15 00 00 00
	00		 call	 DWORD PTR __imp_??0exception@std@@QAE@ABQBD@Z
  00038	68 00 00 00 00	 push	 OFFSET __TI2?AVbad_alloc@std@@
  0003d	8d 45 f4	 lea	 eax, DWORD PTR $T550416[ebp]
  00040	50		 push	 eax
  00041	c7 45 f4 00 00
	00 00		 mov	 DWORD PTR $T550416[ebp], OFFSET ??_7bad_alloc@std@@6B@
  00048	e8 00 00 00 00	 call	 __CxxThrowException@8
$LN10@Allocate@2:
$LN5@Allocate@2:

; 40   : 	}

  0004d	c9		 leave
  0004e	c3		 ret	 0
$LN9@Allocate@2:
??$_Allocate@W4ItemType@SettingKeyItemWnd@@@std@@YAPAW4ItemType@SettingKeyItemWnd@@IPAW412@@Z ENDP ; std::_Allocate<enum SettingKeyItemWnd::ItemType>
_TEXT	ENDS
PUBLIC	?construct@?$allocator@W4ItemType@SettingKeyItemWnd@@@std@@QAEXPAW4ItemType@SettingKeyItemWnd@@$$QAW434@@Z ; std::allocator<enum SettingKeyItemWnd::ItemType>::construct
; Function compile flags: /Ogsp
;	COMDAT ?construct@?$allocator@W4ItemType@SettingKeyItemWnd@@@std@@QAEXPAW4ItemType@SettingKeyItemWnd@@$$QAW434@@Z
_TEXT	SEGMENT
__Ptr$ = 8						; size = 4
__Val$ = 12						; size = 4
?construct@?$allocator@W4ItemType@SettingKeyItemWnd@@@std@@QAEXPAW4ItemType@SettingKeyItemWnd@@$$QAW434@@Z PROC ; std::allocator<enum SettingKeyItemWnd::ItemType>::construct, COMDAT
; _this$ = ecx

; 201  : 		{	// construct object at _Ptr with value _Val

  00000	55		 push	 ebp
  00001	8b ec		 mov	 ebp, esp

; 202  : 		::new ((void _FARQ *)_Ptr) _Ty(_STD forward<_Ty>(_Val));

  00003	8b 45 08	 mov	 eax, DWORD PTR __Ptr$[ebp]
  00006	85 c0		 test	 eax, eax
  00008	74 07		 je	 SHORT $LN3@construct
  0000a	8b 4d 0c	 mov	 ecx, DWORD PTR __Val$[ebp]
  0000d	8b 09		 mov	 ecx, DWORD PTR [ecx]
  0000f	89 08		 mov	 DWORD PTR [eax], ecx
$LN3@construct:

; 203  : 		}

  00011	5d		 pop	 ebp
  00012	c2 08 00	 ret	 8
?construct@?$allocator@W4ItemType@SettingKeyItemWnd@@@std@@QAEXPAW4ItemType@SettingKeyItemWnd@@$$QAW434@@Z ENDP ; std::allocator<enum SettingKeyItemWnd::ItemType>::construct
_TEXT	ENDS
PUBLIC	??$_Ptr_cat@W4ItemType@SettingKeyItemWnd@@W412@@std@@YA?AU_Scalar_ptr_iterator_tag@0@PAW4ItemType@SettingKeyItemWnd@@0@Z ; std::_Ptr_cat<enum SettingKeyItemWnd::ItemType,enum SettingKeyItemWnd::ItemType>
; Function compile flags: /Ogsp
; File c:\program files (x86)\microsoft visual studio 10.0\vc\include\xutility
;	COMDAT ??$_Ptr_cat@W4ItemType@SettingKeyItemWnd@@W412@@std@@YA?AU_Scalar_ptr_iterator_tag@0@PAW4ItemType@SettingKeyItemWnd@@0@Z
_TEXT	SEGMENT
__Cat$ = -1						; size = 1
___formal$ = 8						; size = 4
___formal$ = 12						; size = 4
??$_Ptr_cat@W4ItemType@SettingKeyItemWnd@@W412@@std@@YA?AU_Scalar_ptr_iterator_tag@0@PAW4ItemType@SettingKeyItemWnd@@0@Z PROC ; std::_Ptr_cat<enum SettingKeyItemWnd::ItemType,enum SettingKeyItemWnd::ItemType>, COMDAT

; 516  : 	{	// return pointer category from pointers

  00000	55		 push	 ebp
  00001	8b ec		 mov	 ebp, esp
  00003	51		 push	 ecx

; 517  : 	typename _Ptr_cat_helper<_Elem1, _Elem2>::_Type _Cat;
; 518  : 	return (_Cat);

  00004	8a 45 ff	 mov	 al, BYTE PTR __Cat$[ebp]

; 519  : 	}

  00007	c9		 leave
  00008	c3		 ret	 0
??$_Ptr_cat@W4ItemType@SettingKeyItemWnd@@W412@@std@@YA?AU_Scalar_ptr_iterator_tag@0@PAW4ItemType@SettingKeyItemWnd@@0@Z ENDP ; std::_Ptr_cat<enum SettingKeyItemWnd::ItemType,enum SettingKeyItemWnd::ItemType>
_TEXT	ENDS
PUBLIC	??$_Move@PAW4ItemType@SettingKeyItemWnd@@PAW412@@std@@YAPAW4ItemType@SettingKeyItemWnd@@PAW412@00U_Scalar_ptr_iterator_tag@0@@Z ; std::_Move<enum SettingKeyItemWnd::ItemType *,enum SettingKeyItemWnd::ItemType *>
; Function compile flags: /Ogsp
;	COMDAT ??$_Move@PAW4ItemType@SettingKeyItemWnd@@PAW412@@std@@YAPAW4ItemType@SettingKeyItemWnd@@PAW412@00U_Scalar_ptr_iterator_tag@0@@Z
_TEXT	SEGMENT
__First$ = 8						; size = 4
__Last$ = 12						; size = 4
__Dest$ = 16						; size = 4
___formal$ = 20						; size = 1
??$_Move@PAW4ItemType@SettingKeyItemWnd@@PAW412@@std@@YAPAW4ItemType@SettingKeyItemWnd@@PAW412@00U_Scalar_ptr_iterator_tag@0@@Z PROC ; std::_Move<enum SettingKeyItemWnd::ItemType *,enum SettingKeyItemWnd::ItemType *>, COMDAT

; 2522 : 	{	// move [_First, _Last) to [_Dest, ...), pointers to scalars

  00000	55		 push	 ebp
  00001	8b ec		 mov	 ebp, esp
  00003	56		 push	 esi

; 2523 : 	ptrdiff_t _Count = _Last - _First;

  00004	8b 75 0c	 mov	 esi, DWORD PTR __Last$[ebp]
  00007	2b 75 08	 sub	 esi, DWORD PTR __First$[ebp]
  0000a	57		 push	 edi

; 2524 : 	_CSTD memmove(&*_Dest, &*_First,
; 2525 : 		_Count * sizeof (*_First));

  0000b	8b 7d 10	 mov	 edi, DWORD PTR __Dest$[ebp]
  0000e	c1 fe 02	 sar	 esi, 2
  00011	c1 e6 02	 shl	 esi, 2
  00014	56		 push	 esi
  00015	ff 75 08	 push	 DWORD PTR __First$[ebp]
  00018	57		 push	 edi
  00019	ff 15 00 00 00
	00		 call	 DWORD PTR __imp__memmove
  0001f	83 c4 0c	 add	 esp, 12			; 0000000cH

; 2526 : 	return (_Dest + _Count);

  00022	8d 04 3e	 lea	 eax, DWORD PTR [esi+edi]
  00025	5f		 pop	 edi
  00026	5e		 pop	 esi

; 2527 : 	}

  00027	5d		 pop	 ebp
  00028	c3		 ret	 0
??$_Move@PAW4ItemType@SettingKeyItemWnd@@PAW412@@std@@YAPAW4ItemType@SettingKeyItemWnd@@PAW412@00U_Scalar_ptr_iterator_tag@0@@Z ENDP ; std::_Move<enum SettingKeyItemWnd::ItemType *,enum SettingKeyItemWnd::ItemType *>
_TEXT	ENDS
PUBLIC	??$_Destroy_range@V?$allocator@W4ItemType@SettingKeyItemWnd@@@std@@@std@@YAXPAW4ItemType@SettingKeyItemWnd@@0AAV?$allocator@W4ItemType@SettingKeyItemWnd@@@0@U_Scalar_ptr_iterator_tag@0@@Z ; std::_Destroy_range<std::allocator<enum SettingKeyItemWnd::ItemType> >
; Function compile flags: /Ogsp
; File c:\program files (x86)\microsoft visual studio 10.0\vc\include\xmemory
;	COMDAT ??$_Destroy_range@V?$allocator@W4ItemType@SettingKeyItemWnd@@@std@@@std@@YAXPAW4ItemType@SettingKeyItemWnd@@0AAV?$allocator@W4ItemType@SettingKeyItemWnd@@@0@U_Scalar_ptr_iterator_tag@0@@Z
_TEXT	SEGMENT
__First$ = 8						; size = 4
__Last$ = 12						; size = 4
__Al$ = 16						; size = 4
___formal$ = 20						; size = 1
??$_Destroy_range@V?$allocator@W4ItemType@SettingKeyItemWnd@@@std@@@std@@YAXPAW4ItemType@SettingKeyItemWnd@@0AAV?$allocator@W4ItemType@SettingKeyItemWnd@@@0@U_Scalar_ptr_iterator_tag@0@@Z PROC ; std::_Destroy_range<std::allocator<enum SettingKeyItemWnd::ItemType> >, COMDAT

; 105  : 	}

  00000	c3		 ret	 0
??$_Destroy_range@V?$allocator@W4ItemType@SettingKeyItemWnd@@@std@@@std@@YAXPAW4ItemType@SettingKeyItemWnd@@0AAV?$allocator@W4ItemType@SettingKeyItemWnd@@@0@U_Scalar_ptr_iterator_tag@0@@Z ENDP ; std::_Destroy_range<std::allocator<enum SettingKeyItemWnd::ItemType> >
_TEXT	ENDS
PUBLIC	??$_Val_type@PAV?$basic_string@DU?$char_traits@D@std@@V?$allocator@D@2@@std@@@std@@YAPAV?$basic_string@DU?$char_traits@D@std@@V?$allocator@D@2@@0@PAV10@@Z ; std::_Val_type<std::basic_string<char,std::char_traits<char>,std::allocator<char> > *>
; Function compile flags: /Ogsp
; File c:\program files (x86)\microsoft visual studio 10.0\vc\include\xutility
;	COMDAT ??$_Val_type@PAV?$basic_string@DU?$char_traits@D@std@@V?$allocator@D@2@@std@@@std@@YAPAV?$basic_string@DU?$char_traits@D@std@@V?$allocator@D@2@@0@PAV10@@Z
_TEXT	SEGMENT
___formal$ = 8						; size = 4
??$_Val_type@PAV?$basic_string@DU?$char_traits@D@std@@V?$allocator@D@2@@std@@@std@@YAPAV?$basic_string@DU?$char_traits@D@std@@V?$allocator@D@2@@0@PAV10@@Z PROC ; std::_Val_type<std::basic_string<char,std::char_traits<char>,std::allocator<char> > *>, COMDAT

; 790  : 	return (0);

  00000	33 c0		 xor	 eax, eax

; 791  : 	}

  00002	c3		 ret	 0
??$_Val_type@PAV?$basic_string@DU?$char_traits@D@std@@V?$allocator@D@2@@std@@@std@@YAPAV?$basic_string@DU?$char_traits@D@std@@V?$allocator@D@2@@0@PAV10@@Z ENDP ; std::_Val_type<std::basic_string<char,std::char_traits<char>,std::allocator<char> > *>
_TEXT	ENDS
PUBLIC	??$_Val_type@PAW4ItemType@SettingKeyItemWnd@@@std@@YAPAW4ItemType@SettingKeyItemWnd@@PAW412@@Z ; std::_Val_type<enum SettingKeyItemWnd::ItemType *>
; Function compile flags: /Ogsp
;	COMDAT ??$_Val_type@PAW4ItemType@SettingKeyItemWnd@@@std@@YAPAW4ItemType@SettingKeyItemWnd@@PAW412@@Z
_TEXT	SEGMENT
___formal$ = 8						; size = 4
??$_Val_type@PAW4ItemType@SettingKeyItemWnd@@@std@@YAPAW4ItemType@SettingKeyItemWnd@@PAW412@@Z PROC ; std::_Val_type<enum SettingKeyItemWnd::ItemType *>, COMDAT

; 790  : 	return (0);

  00000	33 c0		 xor	 eax, eax

; 791  : 	}

  00002	c3		 ret	 0
??$_Val_type@PAW4ItemType@SettingKeyItemWnd@@@std@@YAPAW4ItemType@SettingKeyItemWnd@@PAW412@@Z ENDP ; std::_Val_type<enum SettingKeyItemWnd::ItemType *>
_TEXT	ENDS
PUBLIC	??$_Uninit_move@W4ItemType@SettingKeyItemWnd@@W412@W412@@std@@YAPAW4ItemType@SettingKeyItemWnd@@PAW412@00AAV?$allocator@W4ItemType@SettingKeyItemWnd@@@0@0U_Scalar_ptr_iterator_tag@0@@Z ; std::_Uninit_move<enum SettingKeyItemWnd::ItemType,enum SettingKeyItemWnd::ItemType,enum SettingKeyItemWnd::ItemType>
; Function compile flags: /Ogsp
; File c:\program files (x86)\microsoft visual studio 10.0\vc\include\memory
;	COMDAT ??$_Uninit_move@W4ItemType@SettingKeyItemWnd@@W412@W412@@std@@YAPAW4ItemType@SettingKeyItemWnd@@PAW412@00AAV?$allocator@W4ItemType@SettingKeyItemWnd@@@0@0U_Scalar_ptr_iterator_tag@0@@Z
_TEXT	SEGMENT
__First$ = 8						; size = 4
__Last$ = 12						; size = 4
__Dest$ = 16						; size = 4
___formal$ = 20						; size = 4
___formal$ = 24						; size = 4
___formal$ = 28						; size = 1
??$_Uninit_move@W4ItemType@SettingKeyItemWnd@@W412@W412@@std@@YAPAW4ItemType@SettingKeyItemWnd@@PAW412@00AAV?$allocator@W4ItemType@SettingKeyItemWnd@@@0@0U_Scalar_ptr_iterator_tag@0@@Z PROC ; std::_Uninit_move<enum SettingKeyItemWnd::ItemType,enum SettingKeyItemWnd::ItemType,enum SettingKeyItemWnd::ItemType>, COMDAT

; 456  : 	{	// move [_First, _Last) to raw _Dest, scalar type

  00000	55		 push	 ebp
  00001	8b ec		 mov	 ebp, esp
  00003	56		 push	 esi

; 457  : 	_DEBUG_RANGE(_First, _Last);
; 458  : 	_DEBUG_POINTER(_Dest);
; 459  : 	size_t _Count = (size_t)(_Last - _First);

  00004	8b 75 0c	 mov	 esi, DWORD PTR __Last$[ebp]
  00007	2b 75 08	 sub	 esi, DWORD PTR __First$[ebp]
  0000a	c1 fe 02	 sar	 esi, 2

; 460  : 	return ((_Ty2 *)_CSTD memmove(&*_Dest, &*_First,
; 461  : 		_Count * sizeof (*_First)) + _Count);	// NB: non-overlapping move

  0000d	c1 e6 02	 shl	 esi, 2
  00010	56		 push	 esi
  00011	ff 75 08	 push	 DWORD PTR __First$[ebp]
  00014	ff 75 10	 push	 DWORD PTR __Dest$[ebp]
  00017	ff 15 00 00 00
	00		 call	 DWORD PTR __imp__memmove
  0001d	83 c4 0c	 add	 esp, 12			; 0000000cH
  00020	03 c6		 add	 eax, esi
  00022	5e		 pop	 esi

; 462  : 	}

  00023	5d		 pop	 ebp
  00024	c3		 ret	 0
??$_Uninit_move@W4ItemType@SettingKeyItemWnd@@W412@W412@@std@@YAPAW4ItemType@SettingKeyItemWnd@@PAW412@00AAV?$allocator@W4ItemType@SettingKeyItemWnd@@@0@0U_Scalar_ptr_iterator_tag@0@@Z ENDP ; std::_Uninit_move<enum SettingKeyItemWnd::ItemType,enum SettingKeyItemWnd::ItemType,enum SettingKeyItemWnd::ItemType>
; Function compile flags: /Ogsp
; File c:\program files (x86)\microsoft sdks\windows\v7.0a\include\strsafe.h
_TEXT	ENDS
;	COMDAT ?StringValidateDestA@@YGJPBDII@Z
_TEXT	SEGMENT
_cchMax$ = 8						; size = 4
?StringValidateDestA@@YGJPBDII@Z PROC			; StringValidateDestA, COMDAT
; _cchDest$ = ecx

; 8721 : {

  00000	55		 push	 ebp
  00001	8b ec		 mov	 ebp, esp

; 8722 :     HRESULT hr = S_OK;

  00003	33 c0		 xor	 eax, eax

; 8723 : 
; 8724 :     if ((cchDest == 0) || (cchDest > cchMax))

  00005	85 c9		 test	 ecx, ecx
  00007	74 05		 je	 SHORT $LN1@StringVali
  00009	3b 4d 08	 cmp	 ecx, DWORD PTR _cchMax$[ebp]
  0000c	76 05		 jbe	 SHORT $LN2@StringVali
$LN1@StringVali:

; 8725 :     {
; 8726 :         hr = STRSAFE_E_INVALID_PARAMETER;

  0000e	b8 57 00 07 80	 mov	 eax, -2147024809	; 80070057H
$LN2@StringVali:

; 8727 :     }
; 8728 : 
; 8729 :     return hr;
; 8730 : }

  00013	5d		 pop	 ebp
  00014	c2 04 00	 ret	 4
?StringValidateDestA@@YGJPBDII@Z ENDP			; StringValidateDestA
; Function compile flags: /Ogsp
_TEXT	ENDS
;	COMDAT ?StringCopyWorkerA@@YGJPADIPAIPBDI@Z
_TEXT	SEGMENT
_hr$ = -4						; size = 4
_pcchNewDestLength$ = 8					; size = 4
_pszSrc$ = 12						; size = 4
_cchToCopy$ = 16					; size = 4
?StringCopyWorkerA@@YGJPADIPAIPBDI@Z PROC		; StringCopyWorkerA, COMDAT
; _pszDest$ = ecx
; _cchDest$ = eax

; 8947 : {

  00000	55		 push	 ebp
  00001	8b ec		 mov	 ebp, esp
  00003	51		 push	 ecx

; 8948 :     HRESULT hr = S_OK;

  00004	83 65 fc 00	 and	 DWORD PTR _hr$[ebp], 0
  00008	57		 push	 edi
  00009	8b f8		 mov	 edi, eax

; 8949 :     size_t cchNewDestLength = 0;

  0000b	33 c0		 xor	 eax, eax

; 8950 :     
; 8951 :     // ASSERT(cchDest != 0);
; 8952 : 
; 8953 :     while (cchDest && cchToCopy && (*pszSrc != '\0'))

  0000d	85 ff		 test	 edi, edi
  0000f	74 23		 je	 SHORT $LN9@StringCopy

; 8948 :     HRESULT hr = S_OK;

  00011	53		 push	 ebx
  00012	8b 5d 10	 mov	 ebx, DWORD PTR _cchToCopy$[ebp]
  00015	56		 push	 esi

; 8950 :     
; 8951 :     // ASSERT(cchDest != 0);
; 8952 : 
; 8953 :     while (cchDest && cchToCopy && (*pszSrc != '\0'))

  00016	8b 75 0c	 mov	 esi, DWORD PTR _pszSrc$[ebp]
  00019	2b f1		 sub	 esi, ecx
$LL4@StringCopy:
  0001b	85 db		 test	 ebx, ebx
  0001d	74 0f		 je	 SHORT $LN11@StringCopy
  0001f	8a 14 0e	 mov	 dl, BYTE PTR [esi+ecx]
  00022	84 d2		 test	 dl, dl
  00024	74 08		 je	 SHORT $LN11@StringCopy

; 8954 :     {
; 8955 :         *pszDest++ = *pszSrc++;

  00026	88 11		 mov	 BYTE PTR [ecx], dl
  00028	41		 inc	 ecx

; 8956 :         cchDest--;

  00029	4b		 dec	 ebx

; 8957 :         cchToCopy--;
; 8958 : 
; 8959 :         cchNewDestLength++;

  0002a	40		 inc	 eax
  0002b	4f		 dec	 edi
  0002c	75 ed		 jne	 SHORT $LL4@StringCopy
$LN11@StringCopy:
  0002e	5e		 pop	 esi
  0002f	5b		 pop	 ebx

; 8960 :     }
; 8961 : 
; 8962 :     if (cchDest == 0)

  00030	85 ff		 test	 edi, edi
  00032	75 09		 jne	 SHORT $LN2@StringCopy
$LN9@StringCopy:

; 8963 :     {
; 8964 :         // we are going to truncate pszDest
; 8965 :         pszDest--;

  00034	49		 dec	 ecx

; 8966 :         cchNewDestLength--;

  00035	48		 dec	 eax

; 8967 : 
; 8968 :         hr = STRSAFE_E_INSUFFICIENT_BUFFER;

  00036	c7 45 fc 7a 00
	07 80		 mov	 DWORD PTR _hr$[ebp], -2147024774 ; 8007007aH
$LN2@StringCopy:

; 8969 :     }
; 8970 : 
; 8971 :     *pszDest = '\0';

  0003d	c6 01 00	 mov	 BYTE PTR [ecx], 0

; 8972 : 
; 8973 :     if (pcchNewDestLength)

  00040	8b 4d 08	 mov	 ecx, DWORD PTR _pcchNewDestLength$[ebp]
  00043	5f		 pop	 edi
  00044	85 c9		 test	 ecx, ecx
  00046	74 02		 je	 SHORT $LN1@StringCopy

; 8974 :     {
; 8975 :         *pcchNewDestLength = cchNewDestLength;

  00048	89 01		 mov	 DWORD PTR [ecx], eax
$LN1@StringCopy:

; 8976 :     }
; 8977 : 
; 8978 :     return hr;

  0004a	8b 45 fc	 mov	 eax, DWORD PTR _hr$[ebp]

; 8979 : }

  0004d	c9		 leave
  0004e	c2 0c 00	 ret	 12			; 0000000cH
?StringCopyWorkerA@@YGJPADIPAIPBDI@Z ENDP		; StringCopyWorkerA
_TEXT	ENDS
EXTRN	__imp___vsnprintf:PROC
; Function compile flags: /Ogsp
;	COMDAT ?StringVPrintfWorkerA@@YGJPADIPAIPBD0@Z
_TEXT	SEGMENT
_pcchNewDestLength$ = 8					; size = 4
_pszFormat$ = 12					; size = 4
_argList$ = 16						; size = 4
?StringVPrintfWorkerA@@YGJPADIPAIPBD0@Z PROC		; StringVPrintfWorkerA, COMDAT
; _pszDest$ = edi
; _cchDest$ = eax

; 9029 : {

  00000	55		 push	 ebp
  00001	8b ec		 mov	 ebp, esp
  00003	53		 push	 ebx
  00004	56		 push	 esi

; 9030 :     HRESULT hr = S_OK;
; 9031 :     int iRet;
; 9032 :     size_t cchMax;
; 9033 :     size_t cchNewDestLength = 0;
; 9034 : 
; 9035 :     // leave the last space for the null terminator
; 9036 :     cchMax = cchDest - 1;
; 9037 : 
; 9038 : #if (STRSAFE_USE_SECURE_CRT == 1) && !defined(STRSAFE_LIB_IMPL)
; 9039 :     iRet = _vsnprintf_s(pszDest, cchDest, cchMax, pszFormat, argList);
; 9040 : #else
; 9041 :     #pragma warning(push)
; 9042 :     #pragma warning(disable: __WARNING_BANNED_API_USAGE)// "STRSAFE not included"
; 9043 :     iRet = _vsnprintf(pszDest, cchMax, pszFormat, argList);

  00005	ff 75 10	 push	 DWORD PTR _argList$[ebp]
  00008	8d 70 ff	 lea	 esi, DWORD PTR [eax-1]
  0000b	ff 75 0c	 push	 DWORD PTR _pszFormat$[ebp]
  0000e	33 db		 xor	 ebx, ebx
  00010	56		 push	 esi
  00011	57		 push	 edi
  00012	ff 15 00 00 00
	00		 call	 DWORD PTR __imp___vsnprintf
  00018	83 c4 10	 add	 esp, 16			; 00000010H

; 9044 :     #pragma warning(pop)
; 9045 : #endif
; 9046 :     // ASSERT((iRet < 0) || (((size_t)iRet) <= cchMax));
; 9047 : 
; 9048 :     if ((iRet < 0) || (((size_t)iRet) > cchMax))

  0001b	85 c0		 test	 eax, eax
  0001d	78 0b		 js	 SHORT $LN5@StringVPri
  0001f	3b c6		 cmp	 eax, esi
  00021	77 07		 ja	 SHORT $LN5@StringVPri

; 9058 :     }
; 9059 :     else if (((size_t)iRet) == cchMax)

  00023	75 0f		 jne	 SHORT $LN2@StringVPri

; 9060 :     {
; 9061 :         // need to null terminate the string
; 9062 :         pszDest += cchMax;
; 9063 :         *pszDest = '\0';

  00025	88 1c 3e	 mov	 BYTE PTR [esi+edi], bl

; 9064 : 
; 9065 :         cchNewDestLength = cchMax;
; 9066 :     }
; 9067 :     else

  00028	eb 08		 jmp	 SHORT $LN9@StringVPri
$LN5@StringVPri:

; 9049 :     {
; 9050 :         // need to null terminate the string
; 9051 :         pszDest += cchMax;
; 9052 :         *pszDest = '\0';

  0002a	88 1c 3e	 mov	 BYTE PTR [esi+edi], bl

; 9055 : 
; 9056 :         // we have truncated pszDest
; 9057 :         hr = STRSAFE_E_INSUFFICIENT_BUFFER;

  0002d	bb 7a 00 07 80	 mov	 ebx, -2147024774	; 8007007aH
$LN9@StringVPri:

; 9053 : 
; 9054 :         cchNewDestLength = cchMax;

  00032	8b c6		 mov	 eax, esi
$LN2@StringVPri:

; 9068 :     {
; 9069 :         cchNewDestLength = (size_t)iRet;
; 9070 :     }
; 9071 : 
; 9072 :     if (pcchNewDestLength)

  00034	8b 4d 08	 mov	 ecx, DWORD PTR _pcchNewDestLength$[ebp]
  00037	85 c9		 test	 ecx, ecx
  00039	74 02		 je	 SHORT $LN1@StringVPri

; 9073 :     {
; 9074 :         *pcchNewDestLength = cchNewDestLength;

  0003b	89 01		 mov	 DWORD PTR [ecx], eax
$LN1@StringVPri:
  0003d	5e		 pop	 esi

; 9075 :     }
; 9076 : 
; 9077 :     return hr;

  0003e	8b c3		 mov	 eax, ebx
  00040	5b		 pop	 ebx

; 9078 : }

  00041	5d		 pop	 ebp
  00042	c2 0c 00	 ret	 12			; 0000000cH
?StringVPrintfWorkerA@@YGJPADIPAIPBD0@Z ENDP		; StringVPrintfWorkerA
_TEXT	ENDS
PUBLIC	?_DECSTR@@YAXPADH@Z				; _DECSTR
; Function compile flags: /Ogsp
; File d:\lost saga for developer\youtube\tutorial\source\src\lsclient\stringprotect.h
;	COMDAT ?_DECSTR@@YAXPADH@Z
_TEXT	SEGMENT
_s$ = 8							; size = 4
_l$ = 12						; size = 4
?_DECSTR@@YAXPADH@Z PROC				; _DECSTR, COMDAT

; 40   : __forceinline void _DECSTR(char* s, int l){int i=0,l4=(l-1)/4,*p=(int*)s;s[l-1]=0;for(;i<l4;++i)*(p++)^=0xEAEBECED;for(i=l4*4;i<l-1;++i)s[i]^=0xED-i%4;}

  00000	55		 push	 ebp
  00001	8b ec		 mov	 ebp, esp
  00003	8b 4d 0c	 mov	 ecx, DWORD PTR _l$[ebp]
  00006	56		 push	 esi
  00007	8b 75 08	 mov	 esi, DWORD PTR _s$[ebp]
  0000a	57		 push	 edi
  0000b	8d 79 ff	 lea	 edi, DWORD PTR [ecx-1]
  0000e	8b c7		 mov	 eax, edi
  00010	99		 cdq
  00011	83 e2 03	 and	 edx, 3
  00014	03 c2		 add	 eax, edx
  00016	c1 f8 02	 sar	 eax, 2
  00019	8b d6		 mov	 edx, esi
  0001b	c6 44 0e ff 00	 mov	 BYTE PTR [esi+ecx-1], 0
  00020	85 c0		 test	 eax, eax
  00022	7e 0e		 jle	 SHORT $LN4@DECSTR
  00024	8b c8		 mov	 ecx, eax
$LL6@DECSTR:
  00026	81 32 ed ec eb
	ea		 xor	 DWORD PTR [edx], -353637139 ; eaebecedH
  0002c	83 c2 04	 add	 edx, 4
  0002f	49		 dec	 ecx
  00030	75 f4		 jne	 SHORT $LL6@DECSTR
$LN4@DECSTR:
  00032	c1 e0 02	 shl	 eax, 2
  00035	eb 17		 jmp	 SHORT $LN14@DECSTR
$LL3@DECSTR:
  00037	8b c8		 mov	 ecx, eax
  00039	81 e1 03 00 00
	80		 and	 ecx, -2147483645	; 80000003H
  0003f	79 05		 jns	 SHORT $LN13@DECSTR
  00041	49		 dec	 ecx
  00042	83 c9 fc	 or	 ecx, -4			; fffffffcH
  00045	41		 inc	 ecx
$LN13@DECSTR:
  00046	b2 ed		 mov	 dl, -19			; ffffffedH
  00048	2a d1		 sub	 dl, cl
  0004a	30 14 30	 xor	 BYTE PTR [eax+esi], dl
  0004d	40		 inc	 eax
$LN14@DECSTR:
  0004e	3b c7		 cmp	 eax, edi
  00050	7c e5		 jl	 SHORT $LL3@DECSTR
  00052	5f		 pop	 edi
  00053	5e		 pop	 esi
  00054	5d		 pop	 ebp
  00055	c3		 ret	 0
?_DECSTR@@YAXPADH@Z ENDP				; _DECSTR
_TEXT	ENDS
PUBLIC	??0tagMecroTextInfo@CKeyInfo@@QAE@XZ		; CKeyInfo::tagMecroTextInfo::tagMecroTextInfo
EXTRN	__imp_?Clear@ioHashString@@QAEXXZ:PROC
;	COMDAT xdata$x
; File d:\lost saga for developer\youtube\tutorial\source\src\lsclient\iokeymanager.h
xdata$x	SEGMENT
__unwindtable$??0tagMecroTextInfo@CKeyInfo@@QAE@XZ DD 0ffffffffH
	DD	FLAT:__unwindfunclet$??0tagMecroTextInfo@CKeyInfo@@QAE@XZ$0
__ehfuncinfo$??0tagMecroTextInfo@CKeyInfo@@QAE@XZ DD 019930522H
	DD	01H
	DD	FLAT:__unwindtable$??0tagMecroTextInfo@CKeyInfo@@QAE@XZ
	DD	2 DUP(00H)
	DD	2 DUP(00H)
	DD	00H
	DD	01H
; Function compile flags: /Ogsp
xdata$x	ENDS
;	COMDAT ??0tagMecroTextInfo@CKeyInfo@@QAE@XZ
_TEXT	SEGMENT
_this$ = -16						; size = 4
__$EHRec$ = -12						; size = 12
??0tagMecroTextInfo@CKeyInfo@@QAE@XZ PROC		; CKeyInfo::tagMecroTextInfo::tagMecroTextInfo, COMDAT
; _this$ = ecx

; 179  : 		tagMecroTextInfo()

  00000	6a 04		 push	 4
  00002	b8 00 00 00 00	 mov	 eax, __ehhandler$??0tagMecroTextInfo@CKeyInfo@@QAE@XZ
  00007	e8 00 00 00 00	 call	 __EH_prolog3
  0000c	8b f1		 mov	 esi, ecx
  0000e	89 75 f0	 mov	 DWORD PTR _this$[ebp], esi
  00011	8d 4e 04	 lea	 ecx, DWORD PTR [esi+4]
  00014	ff 15 00 00 00
	00		 call	 DWORD PTR __imp_??0ioHashString@@QAE@XZ
  0001a	83 65 fc 00	 and	 DWORD PTR __$EHRec$[ebp+8], 0

; 180  : 		{
; 181  : 			m_bAll = true;
; 182  : 			m_szText.Clear();

  0001e	8d 4e 04	 lea	 ecx, DWORD PTR [esi+4]
  00021	c6 06 01	 mov	 BYTE PTR [esi], 1
  00024	ff 15 00 00 00
	00		 call	 DWORD PTR __imp_?Clear@ioHashString@@QAEXXZ

; 183  : 		}

  0002a	8b c6		 mov	 eax, esi
  0002c	e8 00 00 00 00	 call	 __EH_epilog3
  00031	c3		 ret	 0
_TEXT	ENDS
;	COMDAT text$x
text$x	SEGMENT
__unwindfunclet$??0tagMecroTextInfo@CKeyInfo@@QAE@XZ$0:
  00000	8b 4d f0	 mov	 ecx, DWORD PTR _this$[ebp]
  00003	83 c1 04	 add	 ecx, 4
  00006	ff 25 00 00 00
	00		 jmp	 DWORD PTR __imp_??1ioHashString@@QAE@XZ
__ehhandler$??0tagMecroTextInfo@CKeyInfo@@QAE@XZ:
  0000c	8b 54 24 08	 mov	 edx, DWORD PTR [esp+8]
  00010	8d 42 0c	 lea	 eax, DWORD PTR [edx+12]
  00013	8b 4a ec	 mov	 ecx, DWORD PTR [edx-20]
  00016	33 c8		 xor	 ecx, eax
  00018	e8 00 00 00 00	 call	 @__security_check_cookie@4
  0001d	b8 00 00 00 00	 mov	 eax, OFFSET __ehfuncinfo$??0tagMecroTextInfo@CKeyInfo@@QAE@XZ
  00022	e9 00 00 00 00	 jmp	 ___CxxFrameHandler3
text$x	ENDS
??0tagMecroTextInfo@CKeyInfo@@QAE@XZ ENDP		; CKeyInfo::tagMecroTextInfo::tagMecroTextInfo
PUBLIC	?GetSpec@Setting@@SA?AW4Spec@1@XZ		; Setting::GetSpec
EXTRN	?m_DefaultSpec@Setting@@1W4Spec@1@A:DWORD	; Setting::m_DefaultSpec
; Function compile flags: /Ogsp
; File d:\lost saga for developer\youtube\tutorial\source\src\lsclient\setting.h
;	COMDAT ?GetSpec@Setting@@SA?AW4Spec@1@XZ
_TEXT	SEGMENT
?GetSpec@Setting@@SA?AW4Spec@1@XZ PROC			; Setting::GetSpec, COMDAT

; 188  : 	static Spec GetSpec() { return m_DefaultSpec; }

  00000	a1 00 00 00 00	 mov	 eax, DWORD PTR ?m_DefaultSpec@Setting@@1W4Spec@1@A ; Setting::m_DefaultSpec
  00005	c3		 ret	 0
?GetSpec@Setting@@SA?AW4Spec@1@XZ ENDP			; Setting::GetSpec
_TEXT	ENDS
PUBLIC	?GetSettingOption@Setting@@SAABUSettingOption@@XZ ; Setting::GetSettingOption
EXTRN	?m_Option@Setting@@1USettingOption@@A:BYTE	; Setting::m_Option
; Function compile flags: /Ogsp
;	COMDAT ?GetSettingOption@Setting@@SAABUSettingOption@@XZ
_TEXT	SEGMENT
?GetSettingOption@Setting@@SAABUSettingOption@@XZ PROC	; Setting::GetSettingOption, COMDAT

; 193  : 	static const SettingOption& GetSettingOption() { return m_Option; }

  00000	b8 00 00 00 00	 mov	 eax, OFFSET ?m_Option@Setting@@1USettingOption@@A ; Setting::m_Option
  00005	c3		 ret	 0
?GetSettingOption@Setting@@SAABUSettingOption@@XZ ENDP	; Setting::GetSettingOption
_TEXT	ENDS
PUBLIC	??4SettingOption@@QAEAAU0@ABU0@@Z		; SettingOption::operator=
; Function compile flags: /Ogsp
;	COMDAT ??4SettingOption@@QAEAAU0@ABU0@@Z
_TEXT	SEGMENT
___that$ = 8						; size = 4
??4SettingOption@@QAEAAU0@ABU0@@Z PROC			; SettingOption::operator=, COMDAT
; _this$ = ecx
  00000	55		 push	 ebp
  00001	8b ec		 mov	 ebp, esp
  00003	56		 push	 esi
  00004	8b f1		 mov	 esi, ecx
  00006	57		 push	 edi
  00007	8b 7d 08	 mov	 edi, DWORD PTR ___that$[ebp]
  0000a	8a 07		 mov	 al, BYTE PTR [edi]
  0000c	88 06		 mov	 BYTE PTR [esi], al
  0000e	8a 47 01	 mov	 al, BYTE PTR [edi+1]
  00011	88 46 01	 mov	 BYTE PTR [esi+1], al
  00014	8a 47 02	 mov	 al, BYTE PTR [edi+2]
  00017	88 46 02	 mov	 BYTE PTR [esi+2], al
  0001a	8a 47 03	 mov	 al, BYTE PTR [edi+3]
  0001d	88 46 03	 mov	 BYTE PTR [esi+3], al
  00020	8a 47 04	 mov	 al, BYTE PTR [edi+4]
  00023	88 46 04	 mov	 BYTE PTR [esi+4], al
  00026	8a 47 05	 mov	 al, BYTE PTR [edi+5]
  00029	88 46 05	 mov	 BYTE PTR [esi+5], al
  0002c	8a 47 06	 mov	 al, BYTE PTR [edi+6]
  0002f	88 46 06	 mov	 BYTE PTR [esi+6], al
  00032	8a 47 07	 mov	 al, BYTE PTR [edi+7]
  00035	88 46 07	 mov	 BYTE PTR [esi+7], al
  00038	8a 47 08	 mov	 al, BYTE PTR [edi+8]
  0003b	88 46 08	 mov	 BYTE PTR [esi+8], al
  0003e	8a 47 09	 mov	 al, BYTE PTR [edi+9]
  00041	88 46 09	 mov	 BYTE PTR [esi+9], al
  00044	8a 47 0a	 mov	 al, BYTE PTR [edi+10]
  00047	88 46 0a	 mov	 BYTE PTR [esi+10], al
  0004a	8b 47 0c	 mov	 eax, DWORD PTR [edi+12]
  0004d	89 46 0c	 mov	 DWORD PTR [esi+12], eax
  00050	8b 47 10	 mov	 eax, DWORD PTR [edi+16]
  00053	89 46 10	 mov	 DWORD PTR [esi+16], eax
  00056	8b 47 14	 mov	 eax, DWORD PTR [edi+20]
  00059	89 46 14	 mov	 DWORD PTR [esi+20], eax
  0005c	8b 47 18	 mov	 eax, DWORD PTR [edi+24]
  0005f	89 46 18	 mov	 DWORD PTR [esi+24], eax
  00062	8b 47 1c	 mov	 eax, DWORD PTR [edi+28]
  00065	89 46 1c	 mov	 DWORD PTR [esi+28], eax
  00068	8b 47 20	 mov	 eax, DWORD PTR [edi+32]
  0006b	89 46 20	 mov	 DWORD PTR [esi+32], eax
  0006e	8b 47 24	 mov	 eax, DWORD PTR [edi+36]
  00071	89 46 24	 mov	 DWORD PTR [esi+36], eax
  00074	8b 47 28	 mov	 eax, DWORD PTR [edi+40]
  00077	89 46 28	 mov	 DWORD PTR [esi+40], eax
  0007a	8b 47 2c	 mov	 eax, DWORD PTR [edi+44]
  0007d	89 46 2c	 mov	 DWORD PTR [esi+44], eax
  00080	8b 47 30	 mov	 eax, DWORD PTR [edi+48]
  00083	89 46 30	 mov	 DWORD PTR [esi+48], eax
  00086	8b 47 34	 mov	 eax, DWORD PTR [edi+52]
  00089	89 46 34	 mov	 DWORD PTR [esi+52], eax
  0008c	8b 47 38	 mov	 eax, DWORD PTR [edi+56]
  0008f	89 46 38	 mov	 DWORD PTR [esi+56], eax
  00092	8b 47 3c	 mov	 eax, DWORD PTR [edi+60]
  00095	89 46 3c	 mov	 DWORD PTR [esi+60], eax
  00098	8a 47 40	 mov	 al, BYTE PTR [edi+64]
  0009b	88 46 40	 mov	 BYTE PTR [esi+64], al
  0009e	8a 47 41	 mov	 al, BYTE PTR [edi+65]
  000a1	88 46 41	 mov	 BYTE PTR [esi+65], al
  000a4	8a 47 42	 mov	 al, BYTE PTR [edi+66]
  000a7	88 46 42	 mov	 BYTE PTR [esi+66], al
  000aa	8a 47 43	 mov	 al, BYTE PTR [edi+67]
  000ad	88 46 43	 mov	 BYTE PTR [esi+67], al
  000b0	8a 47 44	 mov	 al, BYTE PTR [edi+68]
  000b3	88 46 44	 mov	 BYTE PTR [esi+68], al
  000b6	8a 47 45	 mov	 al, BYTE PTR [edi+69]
  000b9	88 46 45	 mov	 BYTE PTR [esi+69], al
  000bc	8a 47 46	 mov	 al, BYTE PTR [edi+70]
  000bf	88 46 46	 mov	 BYTE PTR [esi+70], al
  000c2	8a 47 47	 mov	 al, BYTE PTR [edi+71]
  000c5	88 46 47	 mov	 BYTE PTR [esi+71], al
  000c8	8a 47 48	 mov	 al, BYTE PTR [edi+72]
  000cb	88 46 48	 mov	 BYTE PTR [esi+72], al
  000ce	8a 47 49	 mov	 al, BYTE PTR [edi+73]
  000d1	88 46 49	 mov	 BYTE PTR [esi+73], al
  000d4	8a 47 4a	 mov	 al, BYTE PTR [edi+74]
  000d7	88 46 4a	 mov	 BYTE PTR [esi+74], al
  000da	8d 47 4c	 lea	 eax, DWORD PTR [edi+76]
  000dd	50		 push	 eax
  000de	8d 4e 4c	 lea	 ecx, DWORD PTR [esi+76]
  000e1	ff 15 00 00 00
	00		 call	 DWORD PTR __imp_??4ioHashString@@QAEAAV0@ABV0@@Z
  000e7	8a 47 5c	 mov	 al, BYTE PTR [edi+92]
  000ea	88 46 5c	 mov	 BYTE PTR [esi+92], al
  000ed	8a 47 5d	 mov	 al, BYTE PTR [edi+93]
  000f0	88 46 5d	 mov	 BYTE PTR [esi+93], al
  000f3	8a 47 5e	 mov	 al, BYTE PTR [edi+94]
  000f6	88 46 5e	 mov	 BYTE PTR [esi+94], al
  000f9	8a 47 5f	 mov	 al, BYTE PTR [edi+95]
  000fc	88 46 5f	 mov	 BYTE PTR [esi+95], al
  000ff	8a 47 60	 mov	 al, BYTE PTR [edi+96]
  00102	88 46 60	 mov	 BYTE PTR [esi+96], al
  00105	8a 47 61	 mov	 al, BYTE PTR [edi+97]
  00108	88 46 61	 mov	 BYTE PTR [esi+97], al
  0010b	8a 47 62	 mov	 al, BYTE PTR [edi+98]
  0010e	88 46 62	 mov	 BYTE PTR [esi+98], al
  00111	8a 47 63	 mov	 al, BYTE PTR [edi+99]
  00114	88 46 63	 mov	 BYTE PTR [esi+99], al
  00117	8a 47 64	 mov	 al, BYTE PTR [edi+100]
  0011a	88 46 64	 mov	 BYTE PTR [esi+100], al
  0011d	8a 47 65	 mov	 al, BYTE PTR [edi+101]
  00120	88 46 65	 mov	 BYTE PTR [esi+101], al
  00123	8a 47 66	 mov	 al, BYTE PTR [edi+102]
  00126	88 46 66	 mov	 BYTE PTR [esi+102], al
  00129	8a 47 67	 mov	 al, BYTE PTR [edi+103]
  0012c	88 46 67	 mov	 BYTE PTR [esi+103], al
  0012f	8a 47 68	 mov	 al, BYTE PTR [edi+104]
  00132	88 46 68	 mov	 BYTE PTR [esi+104], al
  00135	8a 47 69	 mov	 al, BYTE PTR [edi+105]
  00138	88 46 69	 mov	 BYTE PTR [esi+105], al
  0013b	8a 47 6a	 mov	 al, BYTE PTR [edi+106]
  0013e	88 46 6a	 mov	 BYTE PTR [esi+106], al
  00141	8a 47 6b	 mov	 al, BYTE PTR [edi+107]
  00144	88 46 6b	 mov	 BYTE PTR [esi+107], al
  00147	8a 47 6c	 mov	 al, BYTE PTR [edi+108]
  0014a	88 46 6c	 mov	 BYTE PTR [esi+108], al
  0014d	8a 47 6d	 mov	 al, BYTE PTR [edi+109]
  00150	88 46 6d	 mov	 BYTE PTR [esi+109], al
  00153	8a 47 6e	 mov	 al, BYTE PTR [edi+110]
  00156	88 46 6e	 mov	 BYTE PTR [esi+110], al
  00159	8a 47 6f	 mov	 al, BYTE PTR [edi+111]
  0015c	88 46 6f	 mov	 BYTE PTR [esi+111], al
  0015f	8a 47 70	 mov	 al, BYTE PTR [edi+112]
  00162	88 46 70	 mov	 BYTE PTR [esi+112], al
  00165	8a 47 71	 mov	 al, BYTE PTR [edi+113]
  00168	88 46 71	 mov	 BYTE PTR [esi+113], al
  0016b	8a 47 72	 mov	 al, BYTE PTR [edi+114]
  0016e	88 46 72	 mov	 BYTE PTR [esi+114], al
  00171	8b 47 74	 mov	 eax, DWORD PTR [edi+116]
  00174	89 46 74	 mov	 DWORD PTR [esi+116], eax
  00177	8b 47 78	 mov	 eax, DWORD PTR [edi+120]
  0017a	89 46 78	 mov	 DWORD PTR [esi+120], eax
  0017d	8b 47 7c	 mov	 eax, DWORD PTR [edi+124]
  00180	89 46 7c	 mov	 DWORD PTR [esi+124], eax
  00183	8b 87 80 00 00
	00		 mov	 eax, DWORD PTR [edi+128]
  00189	89 86 80 00 00
	00		 mov	 DWORD PTR [esi+128], eax
  0018f	8b 87 84 00 00
	00		 mov	 eax, DWORD PTR [edi+132]
  00195	89 86 84 00 00
	00		 mov	 DWORD PTR [esi+132], eax
  0019b	8b 87 88 00 00
	00		 mov	 eax, DWORD PTR [edi+136]
  001a1	89 86 88 00 00
	00		 mov	 DWORD PTR [esi+136], eax
  001a7	8b 87 8c 00 00
	00		 mov	 eax, DWORD PTR [edi+140]
  001ad	89 86 8c 00 00
	00		 mov	 DWORD PTR [esi+140], eax
  001b3	8a 87 90 00 00
	00		 mov	 al, BYTE PTR [edi+144]
  001b9	88 86 90 00 00
	00		 mov	 BYTE PTR [esi+144], al
  001bf	8a 87 91 00 00
	00		 mov	 al, BYTE PTR [edi+145]
  001c5	88 86 91 00 00
	00		 mov	 BYTE PTR [esi+145], al
  001cb	8b 87 94 00 00
	00		 mov	 eax, DWORD PTR [edi+148]
  001d1	89 86 94 00 00
	00		 mov	 DWORD PTR [esi+148], eax
  001d7	8a 87 98 00 00
	00		 mov	 al, BYTE PTR [edi+152]
  001dd	88 86 98 00 00
	00		 mov	 BYTE PTR [esi+152], al
  001e3	8a 87 99 00 00
	00		 mov	 al, BYTE PTR [edi+153]
  001e9	88 86 99 00 00
	00		 mov	 BYTE PTR [esi+153], al
  001ef	8a 87 9a 00 00
	00		 mov	 al, BYTE PTR [edi+154]
  001f5	88 86 9a 00 00
	00		 mov	 BYTE PTR [esi+154], al
  001fb	8b 87 9c 00 00
	00		 mov	 eax, DWORD PTR [edi+156]
  00201	89 86 9c 00 00
	00		 mov	 DWORD PTR [esi+156], eax
  00207	5f		 pop	 edi
  00208	8b c6		 mov	 eax, esi
  0020a	5e		 pop	 esi
  0020b	5d		 pop	 ebp
  0020c	c2 04 00	 ret	 4
??4SettingOption@@QAEAAU0@ABU0@@Z ENDP			; SettingOption::operator=
_TEXT	ENDS
PUBLIC	?GetGameStage@ioApplication@@QBEPAVioGameStage@@XZ ; ioApplication::GetGameStage
; Function compile flags: /Ogsp
; File d:\lost saga for developer\youtube\tutorial\source\src\lsclient\ioapplication.h
;	COMDAT ?GetGameStage@ioApplication@@QBEPAVioGameStage@@XZ
_TEXT	SEGMENT
?GetGameStage@ioApplication@@QBEPAVioGameStage@@XZ PROC	; ioApplication::GetGameStage, COMDAT
; _this$ = ecx

; 685  : 	ioGameStage * GetGameStage() const { return m_pGameStage; }

  00000	8b 81 28 01 00
	00		 mov	 eax, DWORD PTR [ecx+296]
  00006	c3		 ret	 0
?GetGameStage@ioApplication@@QBEPAVioGameStage@@XZ ENDP	; ioApplication::GetGameStage
_TEXT	ENDS
PUBLIC	?GetHWnd@ioApplication@@QBEPAUHWND__@@XZ	; ioApplication::GetHWnd
; Function compile flags: /Ogsp
;	COMDAT ?GetHWnd@ioApplication@@QBEPAUHWND__@@XZ
_TEXT	SEGMENT
?GetHWnd@ioApplication@@QBEPAUHWND__@@XZ PROC		; ioApplication::GetHWnd, COMDAT
; _this$ = ecx

; 686  : 	HWND GetHWnd() const { return m_hWnd; }

  00000	8b 41 08	 mov	 eax, DWORD PTR [ecx+8]
  00003	c3		 ret	 0
?GetHWnd@ioApplication@@QBEPAUHWND__@@XZ ENDP		; ioApplication::GetHWnd
_TEXT	ENDS
PUBLIC	?GetMyRoomType@ioMyRoomMode@@SA?AW4MyRoomType@@XZ ; ioMyRoomMode::GetMyRoomType
EXTRN	?m_eMyRoomType@ioMyRoomMode@@1W4MyRoomType@@A:DWORD ; ioMyRoomMode::m_eMyRoomType
; Function compile flags: /Ogsp
; File d:\lost saga for developer\youtube\tutorial\source\src\lsclient\iomyroommode.h
;	COMDAT ?GetMyRoomType@ioMyRoomMode@@SA?AW4MyRoomType@@XZ
_TEXT	SEGMENT
?GetMyRoomType@ioMyRoomMode@@SA?AW4MyRoomType@@XZ PROC	; ioMyRoomMode::GetMyRoomType, COMDAT

; 194  : 	static MyRoomType GetMyRoomType(){ return m_eMyRoomType; }

  00000	a1 00 00 00 00	 mov	 eax, DWORD PTR ?m_eMyRoomType@ioMyRoomMode@@1W4MyRoomType@@A ; ioMyRoomMode::m_eMyRoomType
  00005	c3		 ret	 0
?GetMyRoomType@ioMyRoomMode@@SA?AW4MyRoomType@@XZ ENDP	; ioMyRoomMode::GetMyRoomType
_TEXT	ENDS
PUBLIC	?size@?$basic_string@DU?$char_traits@D@std@@V?$allocator@D@2@@std@@QBEIXZ ; std::basic_string<char,std::char_traits<char>,std::allocator<char> >::size
; Function compile flags: /Ogsp
; File c:\program files (x86)\microsoft visual studio 10.0\vc\include\xstring
;	COMDAT ?size@?$basic_string@DU?$char_traits@D@std@@V?$allocator@D@2@@std@@QBEIXZ
_TEXT	SEGMENT
?size@?$basic_string@DU?$char_traits@D@std@@V?$allocator@D@2@@std@@QBEIXZ PROC ; std::basic_string<char,std::char_traits<char>,std::allocator<char> >::size, COMDAT
; _this$ = ecx

; 1512 : 		return (this->_Mysize);

  00000	8b 41 10	 mov	 eax, DWORD PTR [ecx+16]

; 1513 : 		}

  00003	c3		 ret	 0
?size@?$basic_string@DU?$char_traits@D@std@@V?$allocator@D@2@@std@@QBEIXZ ENDP ; std::basic_string<char,std::char_traits<char>,std::allocator<char> >::size
_TEXT	ENDS
PUBLIC	?_Myptr@?$basic_string@DU?$char_traits@D@std@@V?$allocator@D@2@@std@@QBEPBDXZ ; std::basic_string<char,std::char_traits<char>,std::allocator<char> >::_Myptr
; Function compile flags: /Ogsp
;	COMDAT ?_Myptr@?$basic_string@DU?$char_traits@D@std@@V?$allocator@D@2@@std@@QBEPBDXZ
_TEXT	SEGMENT
?_Myptr@?$basic_string@DU?$char_traits@D@std@@V?$allocator@D@2@@std@@QBEPBDXZ PROC ; std::basic_string<char,std::char_traits<char>,std::allocator<char> >::_Myptr, COMDAT
; _this$ = ecx

; 2010 : 		return (this->_BUF_SIZE <= this->_Myres ? this->_Bx._Ptr
; 2011 : 			: this->_Bx._Buf);

  00000	83 79 14 10	 cmp	 DWORD PTR [ecx+20], 16	; 00000010H
  00004	72 03		 jb	 SHORT $LN3@Myptr
  00006	8b 01		 mov	 eax, DWORD PTR [ecx]

; 2012 : 		}

  00008	c3		 ret	 0
$LN3@Myptr:

; 2010 : 		return (this->_BUF_SIZE <= this->_Myres ? this->_Bx._Ptr
; 2011 : 			: this->_Bx._Buf);

  00009	8b c1		 mov	 eax, ecx

; 2012 : 		}

  0000b	c3		 ret	 0
?_Myptr@?$basic_string@DU?$char_traits@D@std@@V?$allocator@D@2@@std@@QBEPBDXZ ENDP ; std::basic_string<char,std::char_traits<char>,std::allocator<char> >::_Myptr
_TEXT	ENDS
PUBLIC	??1?$_String_val@DV?$allocator@D@std@@@std@@QAE@XZ ; std::_String_val<char,std::allocator<char> >::~_String_val<char,std::allocator<char> >
; Function compile flags: /Ogsp
;	COMDAT ??1?$_String_val@DV?$allocator@D@std@@@std@@QAE@XZ
_TEXT	SEGMENT
??1?$_String_val@DV?$allocator@D@std@@@std@@QAE@XZ PROC	; std::_String_val<char,std::allocator<char> >::~_String_val<char,std::allocator<char> >, COMDAT
; _this$ = ecx

; 459  : 		}

  00000	c3		 ret	 0
??1?$_String_val@DV?$allocator@D@std@@@std@@QAE@XZ ENDP	; std::_String_val<char,std::allocator<char> >::~_String_val<char,std::allocator<char> >
_TEXT	ENDS
PUBLIC	??0?$allocator@D@std@@QAE@XZ			; std::allocator<char>::allocator<char>
; Function compile flags: /Ogsp
; File c:\program files (x86)\microsoft visual studio 10.0\vc\include\xmemory
;	COMDAT ??0?$allocator@D@std@@QAE@XZ
_TEXT	SEGMENT
??0?$allocator@D@std@@QAE@XZ PROC			; std::allocator<char>::allocator<char>, COMDAT
; _this$ = ecx

; 161  : 	_ALLOCATOR() _THROW0()

  00000	8b c1		 mov	 eax, ecx

; 162  : 		{	// construct default allocator (do nothing)
; 163  : 		}

  00002	c3		 ret	 0
??0?$allocator@D@std@@QAE@XZ ENDP			; std::allocator<char>::allocator<char>
_TEXT	ENDS
PUBLIC	??0?$allocator@D@std@@QAE@ABV01@@Z		; std::allocator<char>::allocator<char>
; Function compile flags: /Ogsp
;	COMDAT ??0?$allocator@D@std@@QAE@ABV01@@Z
_TEXT	SEGMENT
___formal$ = 8						; size = 4
??0?$allocator@D@std@@QAE@ABV01@@Z PROC			; std::allocator<char>::allocator<char>, COMDAT
; _this$ = ecx

; 165  : 	_ALLOCATOR(const _ALLOCATOR<_Ty>&) _THROW0()

  00000	8b c1		 mov	 eax, ecx

; 166  : 		{	// construct by copying (do nothing)
; 167  : 		}

  00002	c2 04 00	 ret	 4
??0?$allocator@D@std@@QAE@ABV01@@Z ENDP			; std::allocator<char>::allocator<char>
_TEXT	ENDS
PUBLIC	?get_allocator@?$basic_string@DU?$char_traits@D@std@@V?$allocator@D@2@@std@@QBE?AV?$allocator@D@2@XZ ; std::basic_string<char,std::char_traits<char>,std::allocator<char> >::get_allocator
; Function compile flags: /Ogsp
; File c:\program files (x86)\microsoft visual studio 10.0\vc\include\xstring
;	COMDAT ?get_allocator@?$basic_string@DU?$char_traits@D@std@@V?$allocator@D@2@@std@@QBE?AV?$allocator@D@2@XZ
_TEXT	SEGMENT
___$ReturnUdt$ = 8					; size = 4
?get_allocator@?$basic_string@DU?$char_traits@D@std@@V?$allocator@D@2@@std@@QBE?AV?$allocator@D@2@XZ PROC ; std::basic_string<char,std::char_traits<char>,std::allocator<char> >::get_allocator, COMDAT
; _this$ = ecx

; 1906 : 		{	// return allocator object for values

  00000	55		 push	 ebp
  00001	8b ec		 mov	 ebp, esp

; 1907 : 		return (this->_Alval);

  00003	8b 45 08	 mov	 eax, DWORD PTR ___$ReturnUdt$[ebp]

; 1908 : 		}

  00006	5d		 pop	 ebp
  00007	c2 04 00	 ret	 4
?get_allocator@?$basic_string@DU?$char_traits@D@std@@V?$allocator@D@2@@std@@QBE?AV?$allocator@D@2@XZ ENDP ; std::basic_string<char,std::char_traits<char>,std::allocator<char> >::get_allocator
_TEXT	ENDS
PUBLIC	?_Myptr@?$basic_string@DU?$char_traits@D@std@@V?$allocator@D@2@@std@@QAEPADXZ ; std::basic_string<char,std::char_traits<char>,std::allocator<char> >::_Myptr
; Function compile flags: /Ogsp
;	COMDAT ?_Myptr@?$basic_string@DU?$char_traits@D@std@@V?$allocator@D@2@@std@@QAEPADXZ
_TEXT	SEGMENT
?_Myptr@?$basic_string@DU?$char_traits@D@std@@V?$allocator@D@2@@std@@QAEPADXZ PROC ; std::basic_string<char,std::char_traits<char>,std::allocator<char> >::_Myptr, COMDAT
; _this$ = ecx

; 2004 : 		return (this->_BUF_SIZE <= this->_Myres ? this->_Bx._Ptr
; 2005 : 			: this->_Bx._Buf);

  00000	83 79 14 10	 cmp	 DWORD PTR [ecx+20], 16	; 00000010H
  00004	72 03		 jb	 SHORT $LN3@Myptr@2
  00006	8b 01		 mov	 eax, DWORD PTR [ecx]

; 2006 : 		}

  00008	c3		 ret	 0
$LN3@Myptr@2:

; 2004 : 		return (this->_BUF_SIZE <= this->_Myres ? this->_Bx._Ptr
; 2005 : 			: this->_Bx._Buf);

  00009	8b c1		 mov	 eax, ecx

; 2006 : 		}

  0000b	c3		 ret	 0
?_Myptr@?$basic_string@DU?$char_traits@D@std@@V?$allocator@D@2@@std@@QAEPADXZ ENDP ; std::basic_string<char,std::char_traits<char>,std::allocator<char> >::_Myptr
_TEXT	ENDS
PUBLIC	??_C@_0BA@JFNIOLAK@string?5too?5long?$AA@	; `string'
PUBLIC	?_Xlen@?$basic_string@DU?$char_traits@D@std@@V?$allocator@D@2@@std@@QBEXXZ ; std::basic_string<char,std::char_traits<char>,std::allocator<char> >::_Xlen
;	COMDAT ??_C@_0BA@JFNIOLAK@string?5too?5long?$AA@
CONST	SEGMENT
??_C@_0BA@JFNIOLAK@string?5too?5long?$AA@ DB 'string too long', 00H ; `string'
; Function compile flags: /Ogsp
CONST	ENDS
;	COMDAT ?_Xlen@?$basic_string@DU?$char_traits@D@std@@V?$allocator@D@2@@std@@QBEXXZ
_TEXT	SEGMENT
?_Xlen@?$basic_string@DU?$char_traits@D@std@@V?$allocator@D@2@@std@@QBEXXZ PROC ; std::basic_string<char,std::char_traits<char>,std::allocator<char> >::_Xlen, COMDAT
; _this$ = ecx

; 2016 : 		_Xlength_error("string too long");

  00000	68 00 00 00 00	 push	 OFFSET ??_C@_0BA@JFNIOLAK@string?5too?5long?$AA@
  00005	ff 15 00 00 00
	00		 call	 DWORD PTR __imp_?_Xlength_error@std@@YAXPBD@Z
$LN4@Xlen@3:
$LN3@Xlen@3:
  0000b	cc		 int	 3
?_Xlen@?$basic_string@DU?$char_traits@D@std@@V?$allocator@D@2@@std@@QBEXXZ ENDP ; std::basic_string<char,std::char_traits<char>,std::allocator<char> >::_Xlen
_TEXT	ENDS
PUBLIC	??_C@_0BI@CFPLBAOH@invalid?5string?5position?$AA@ ; `string'
PUBLIC	?_Xran@?$basic_string@DU?$char_traits@D@std@@V?$allocator@D@2@@std@@QBEXXZ ; std::basic_string<char,std::char_traits<char>,std::allocator<char> >::_Xran
EXTRN	__imp_?_Xout_of_range@std@@YAXPBD@Z:PROC
;	COMDAT ??_C@_0BI@CFPLBAOH@invalid?5string?5position?$AA@
CONST	SEGMENT
??_C@_0BI@CFPLBAOH@invalid?5string?5position?$AA@ DB 'invalid string posi'
	DB	'tion', 00H					; `string'
; Function compile flags: /Ogsp
CONST	ENDS
;	COMDAT ?_Xran@?$basic_string@DU?$char_traits@D@std@@V?$allocator@D@2@@std@@QBEXXZ
_TEXT	SEGMENT
?_Xran@?$basic_string@DU?$char_traits@D@std@@V?$allocator@D@2@@std@@QBEXXZ PROC ; std::basic_string<char,std::char_traits<char>,std::allocator<char> >::_Xran, COMDAT
; _this$ = ecx

; 2021 : 		_Xout_of_range("invalid string position");

  00000	68 00 00 00 00	 push	 OFFSET ??_C@_0BI@CFPLBAOH@invalid?5string?5position?$AA@
  00005	ff 15 00 00 00
	00		 call	 DWORD PTR __imp_?_Xout_of_range@std@@YAXPBD@Z
$LN4@Xran:
$LN3@Xran:
  0000b	cc		 int	 3
?_Xran@?$basic_string@DU?$char_traits@D@std@@V?$allocator@D@2@@std@@QBEXXZ ENDP ; std::basic_string<char,std::char_traits<char>,std::allocator<char> >::_Xran
_TEXT	ENDS
PUBLIC	?deallocate@?$allocator@D@std@@QAEXPADI@Z	; std::allocator<char>::deallocate
; Function compile flags: /Ogsp
; File c:\program files (x86)\microsoft visual studio 10.0\vc\include\xmemory
;	COMDAT ?deallocate@?$allocator@D@std@@QAEXPADI@Z
_TEXT	SEGMENT
__Ptr$ = 8						; size = 4
___formal$ = 12						; size = 4
?deallocate@?$allocator@D@std@@QAEXPADI@Z PROC		; std::allocator<char>::deallocate, COMDAT
; _this$ = ecx

; 181  : 		{	// deallocate object at _Ptr, ignore size

  00000	55		 push	 ebp
  00001	8b ec		 mov	 ebp, esp

; 182  : 		::operator delete(_Ptr);

  00003	ff 75 08	 push	 DWORD PTR __Ptr$[ebp]
  00006	e8 00 00 00 00	 call	 ??3@YAXPAX@Z		; operator delete
  0000b	59		 pop	 ecx

; 183  : 		}

  0000c	5d		 pop	 ebp
  0000d	c2 08 00	 ret	 8
?deallocate@?$allocator@D@std@@QAEXPADI@Z ENDP		; std::allocator<char>::deallocate
_TEXT	ENDS
PUBLIC	?_Inside@?$basic_string@DU?$char_traits@D@std@@V?$allocator@D@2@@std@@QAE_NPBD@Z ; std::basic_string<char,std::char_traits<char>,std::allocator<char> >::_Inside
; Function compile flags: /Ogsp
; File c:\program files (x86)\microsoft visual studio 10.0\vc\include\xstring
;	COMDAT ?_Inside@?$basic_string@DU?$char_traits@D@std@@V?$allocator@D@2@@std@@QAE_NPBD@Z
_TEXT	SEGMENT
__Ptr$ = 8						; size = 4
?_Inside@?$basic_string@DU?$char_traits@D@std@@V?$allocator@D@2@@std@@QAE_NPBD@Z PROC ; std::basic_string<char,std::char_traits<char>,std::allocator<char> >::_Inside, COMDAT
; _this$ = ecx

; 1973 : 		{	// test if _Ptr points inside string

  00000	55		 push	 ebp
  00001	8b ec		 mov	 ebp, esp

; 1974 : 		if (_Ptr == 0 || _Ptr < _Myptr() || _Myptr() + this->_Mysize <= _Ptr)

  00003	83 7d 08 00	 cmp	 DWORD PTR __Ptr$[ebp], 0
  00007	74 2c		 je	 SHORT $LN2@Inside@3
  00009	8b 51 14	 mov	 edx, DWORD PTR [ecx+20]
  0000c	83 fa 10	 cmp	 edx, 16			; 00000010H
  0000f	72 04		 jb	 SHORT $LN8@Inside@3
  00011	8b 01		 mov	 eax, DWORD PTR [ecx]
  00013	eb 02		 jmp	 SHORT $LN9@Inside@3
$LN8@Inside@3:
  00015	8b c1		 mov	 eax, ecx
$LN9@Inside@3:
  00017	39 45 08	 cmp	 DWORD PTR __Ptr$[ebp], eax
  0001a	72 19		 jb	 SHORT $LN2@Inside@3
  0001c	83 fa 10	 cmp	 edx, 16			; 00000010H
  0001f	72 04		 jb	 SHORT $LN12@Inside@3
  00021	8b 01		 mov	 eax, DWORD PTR [ecx]
  00023	eb 02		 jmp	 SHORT $LN13@Inside@3
$LN12@Inside@3:
  00025	8b c1		 mov	 eax, ecx
$LN13@Inside@3:
  00027	8b 49 10	 mov	 ecx, DWORD PTR [ecx+16]
  0002a	03 c8		 add	 ecx, eax
  0002c	3b 4d 08	 cmp	 ecx, DWORD PTR __Ptr$[ebp]
  0002f	76 04		 jbe	 SHORT $LN2@Inside@3

; 1976 : 		else
; 1977 : 			return (true);

  00031	b0 01		 mov	 al, 1
  00033	eb 02		 jmp	 SHORT $LN1@Inside@3
$LN2@Inside@3:

; 1975 : 			return (false);	// don't ask

  00035	32 c0		 xor	 al, al
$LN1@Inside@3:

; 1978 : 		}

  00037	5d		 pop	 ebp
  00038	c2 04 00	 ret	 4
?_Inside@?$basic_string@DU?$char_traits@D@std@@V?$allocator@D@2@@std@@QAE_NPBD@Z ENDP ; std::basic_string<char,std::char_traits<char>,std::allocator<char> >::_Inside
_TEXT	ENDS
PUBLIC	?max_size@?$allocator@D@std@@QBEIXZ		; std::allocator<char>::max_size
; Function compile flags: /Ogsp
; File c:\program files (x86)\microsoft visual studio 10.0\vc\include\xmemory
;	COMDAT ?max_size@?$allocator@D@std@@QBEIXZ
_TEXT	SEGMENT
?max_size@?$allocator@D@std@@QBEIXZ PROC		; std::allocator<char>::max_size, COMDAT
; _this$ = ecx

; 218  : 		_SIZT _Count = (_SIZT)(-1) / sizeof (_Ty);
; 219  : 		return (0 < _Count ? _Count : 1);

  00000	83 c8 ff	 or	 eax, -1

; 220  : 		}

  00003	c3		 ret	 0
?max_size@?$allocator@D@std@@QBEIXZ ENDP		; std::allocator<char>::max_size
_TEXT	ENDS
PUBLIC	??$forward@V?$allocator@D@std@@@std@@YA$$QAV?$allocator@D@0@AAV10@@Z ; std::forward<std::allocator<char> >
; Function compile flags: /Ogsp
; File c:\program files (x86)\microsoft visual studio 10.0\vc\include\utility
;	COMDAT ??$forward@V?$allocator@D@std@@@std@@YA$$QAV?$allocator@D@0@AAV10@@Z
_TEXT	SEGMENT
__Arg$ = 8						; size = 4
??$forward@V?$allocator@D@std@@@std@@YA$$QAV?$allocator@D@0@AAV10@@Z PROC ; std::forward<std::allocator<char> >, COMDAT

; 78   : 	{	// forward _Arg, given explicitly specified type parameter

  00000	55		 push	 ebp
  00001	8b ec		 mov	 ebp, esp

; 79   : 	return ((_Ty&&)_Arg);

  00003	8b 45 08	 mov	 eax, DWORD PTR __Arg$[ebp]

; 80   : 	}

  00006	5d		 pop	 ebp
  00007	c3		 ret	 0
??$forward@V?$allocator@D@std@@@std@@YA$$QAV?$allocator@D@0@AAV10@@Z ENDP ; std::forward<std::allocator<char> >
_TEXT	ENDS
PUBLIC	??$forward@V?$basic_string@DU?$char_traits@D@std@@V?$allocator@D@2@@std@@@std@@YA$$QAV?$basic_string@DU?$char_traits@D@std@@V?$allocator@D@2@@0@AAV10@@Z ; std::forward<std::basic_string<char,std::char_traits<char>,std::allocator<char> > >
; Function compile flags: /Ogsp
;	COMDAT ??$forward@V?$basic_string@DU?$char_traits@D@std@@V?$allocator@D@2@@std@@@std@@YA$$QAV?$basic_string@DU?$char_traits@D@std@@V?$allocator@D@2@@0@AAV10@@Z
_TEXT	SEGMENT
__Arg$ = 8						; size = 4
??$forward@V?$basic_string@DU?$char_traits@D@std@@V?$allocator@D@2@@std@@@std@@YA$$QAV?$basic_string@DU?$char_traits@D@std@@V?$allocator@D@2@@0@AAV10@@Z PROC ; std::forward<std::basic_string<char,std::char_traits<char>,std::allocator<char> > >, COMDAT

; 78   : 	{	// forward _Arg, given explicitly specified type parameter

  00000	55		 push	 ebp
  00001	8b ec		 mov	 ebp, esp

; 79   : 	return ((_Ty&&)_Arg);

  00003	8b 45 08	 mov	 eax, DWORD PTR __Arg$[ebp]

; 80   : 	}

  00006	5d		 pop	 ebp
  00007	c3		 ret	 0
??$forward@V?$basic_string@DU?$char_traits@D@std@@V?$allocator@D@2@@std@@@std@@YA$$QAV?$basic_string@DU?$char_traits@D@std@@V?$allocator@D@2@@0@AAV10@@Z ENDP ; std::forward<std::basic_string<char,std::char_traits<char>,std::allocator<char> > >
_TEXT	ENDS
PUBLIC	??$_Allocate@D@std@@YAPADIPAD@Z			; std::_Allocate<char>
; Function compile flags: /Ogsp
; File c:\program files (x86)\microsoft visual studio 10.0\vc\include\xmemory
;	COMDAT ??$_Allocate@D@std@@YAPADIPAD@Z
_TEXT	SEGMENT
$T550563 = -12						; size = 12
$T550567 = 8						; size = 4
__Count$ = 8						; size = 4
___formal$ = 12						; size = 4
??$_Allocate@D@std@@YAPADIPAD@Z PROC			; std::_Allocate<char>, COMDAT

; 30   : 	{	// allocate storage for _Count elements of type _Ty

  00000	55		 push	 ebp
  00001	8b ec		 mov	 ebp, esp

; 31   : 	void *_Ptr = 0;

  00003	33 c0		 xor	 eax, eax
  00005	83 ec 0c	 sub	 esp, 12			; 0000000cH

; 32   : 
; 33   : 	if (_Count <= 0)

  00008	39 45 08	 cmp	 DWORD PTR __Count$[ebp], eax

; 34   : 		_Count = 0;
; 35   : 	else if (((_SIZT)(-1) / sizeof (_Ty) < _Count)

  0000b	76 39		 jbe	 SHORT $LN5@Allocate@3

; 36   : 		|| (_Ptr = ::operator new(_Count * sizeof (_Ty))) == 0)

  0000d	83 7d 08 ff	 cmp	 DWORD PTR __Count$[ebp], -1
  00011	77 0d		 ja	 SHORT $LN1@Allocate@3
  00013	ff 75 08	 push	 DWORD PTR __Count$[ebp]
  00016	e8 00 00 00 00	 call	 ??2@YAPAXI@Z		; operator new
  0001b	59		 pop	 ecx
  0001c	85 c0		 test	 eax, eax

; 38   : 
; 39   : 	return ((_Ty _FARQ *)_Ptr);

  0001e	75 26		 jne	 SHORT $LN5@Allocate@3
$LN1@Allocate@3:

; 37   : 		_THROW_NCEE(bad_alloc, 0);

  00020	83 65 08 00	 and	 DWORD PTR $T550567[ebp], 0
  00024	8d 45 08	 lea	 eax, DWORD PTR $T550567[ebp]
  00027	50		 push	 eax
  00028	8d 4d f4	 lea	 ecx, DWORD PTR $T550563[ebp]
  0002b	ff 15 00 00 00
	00		 call	 DWORD PTR __imp_??0exception@std@@QAE@ABQBD@Z
  00031	68 00 00 00 00	 push	 OFFSET __TI2?AVbad_alloc@std@@
  00036	8d 45 f4	 lea	 eax, DWORD PTR $T550563[ebp]
  00039	50		 push	 eax
  0003a	c7 45 f4 00 00
	00 00		 mov	 DWORD PTR $T550563[ebp], OFFSET ??_7bad_alloc@std@@6B@
  00041	e8 00 00 00 00	 call	 __CxxThrowException@8
$LN10@Allocate@3:
$LN5@Allocate@3:

; 40   : 	}

  00046	c9		 leave
  00047	c3		 ret	 0
$LN9@Allocate@3:
??$_Allocate@D@std@@YAPADIPAD@Z ENDP			; std::_Allocate<char>
_TEXT	ENDS
EXTRN	__imp_??0exception@std@@QAE@ABV01@@Z:PROC
; Function compile flags: /Ogsp
;	COMDAT ??0bad_alloc@std@@QAE@ABV01@@Z
_TEXT	SEGMENT
___that$ = 8						; size = 4
??0bad_alloc@std@@QAE@ABV01@@Z PROC			; std::bad_alloc::bad_alloc, COMDAT
; _this$ = ecx
  00000	55		 push	 ebp
  00001	8b ec		 mov	 ebp, esp
  00003	56		 push	 esi
  00004	ff 75 08	 push	 DWORD PTR ___that$[ebp]
  00007	8b f1		 mov	 esi, ecx
  00009	ff 15 00 00 00
	00		 call	 DWORD PTR __imp_??0exception@std@@QAE@ABV01@@Z
  0000f	c7 06 00 00 00
	00		 mov	 DWORD PTR [esi], OFFSET ??_7bad_alloc@std@@6B@
  00015	8b c6		 mov	 eax, esi
  00017	5e		 pop	 esi
  00018	5d		 pop	 ebp
  00019	c2 04 00	 ret	 4
??0bad_alloc@std@@QAE@ABV01@@Z ENDP			; std::bad_alloc::bad_alloc
_TEXT	ENDS
PUBLIC	??$?8DD@std@@YA_NABV?$allocator@D@0@0@Z		; std::operator==<char,char>
; Function compile flags: /Ogsp
;	COMDAT ??$?8DD@std@@YA_NABV?$allocator@D@0@0@Z
_TEXT	SEGMENT
___formal$ = 8						; size = 4
___formal$ = 12						; size = 4
??$?8DD@std@@YA_NABV?$allocator@D@0@0@Z PROC		; std::operator==<char,char>, COMDAT

; 263  : 	return (true);

  00000	b0 01		 mov	 al, 1

; 264  : 	}

  00002	c3		 ret	 0
??$?8DD@std@@YA_NABV?$allocator@D@0@0@Z ENDP		; std::operator==<char,char>
_TEXT	ENDS
PUBLIC	??1?$_Vector_val@V?$basic_string@DU?$char_traits@D@std@@V?$allocator@D@2@@std@@V?$allocator@V?$basic_string@DU?$char_traits@D@std@@V?$allocator@D@2@@std@@@2@@std@@QAE@XZ ; std::_Vector_val<std::basic_string<char,std::char_traits<char>,std::allocator<char> >,std::allocator<std::basic_string<char,std::char_traits<char>,std::allocator<char> > > >::~_Vector_val<std::basic_string<char,std::char_traits<char>,std::allocator<char> >,std::allocator<std::basic_string<char,std::char_traits<char>,std::allocator<char> > > >
; Function compile flags: /Ogsp
; File c:\program files (x86)\microsoft visual studio 10.0\vc\include\vector
;	COMDAT ??1?$_Vector_val@V?$basic_string@DU?$char_traits@D@std@@V?$allocator@D@2@@std@@V?$allocator@V?$basic_string@DU?$char_traits@D@std@@V?$allocator@D@2@@std@@@2@@std@@QAE@XZ
_TEXT	SEGMENT
??1?$_Vector_val@V?$basic_string@DU?$char_traits@D@std@@V?$allocator@D@2@@std@@V?$allocator@V?$basic_string@DU?$char_traits@D@std@@V?$allocator@D@2@@std@@@2@@std@@QAE@XZ PROC ; std::_Vector_val<std::basic_string<char,std::char_traits<char>,std::allocator<char> >,std::allocator<std::basic_string<char,std::char_traits<char>,std::allocator<char> > > >::~_Vector_val<std::basic_string<char,std::char_traits<char>,std::allocator<char> >,std::allocator<std::basic_string<char,std::char_traits<char>,std::allocator<char> > > >, COMDAT
; _this$ = ecx

; 434  : 		}

  00000	c3		 ret	 0
??1?$_Vector_val@V?$basic_string@DU?$char_traits@D@std@@V?$allocator@D@2@@std@@V?$allocator@V?$basic_string@DU?$char_traits@D@std@@V?$allocator@D@2@@std@@@2@@std@@QAE@XZ ENDP ; std::_Vector_val<std::basic_string<char,std::char_traits<char>,std::allocator<char> >,std::allocator<std::basic_string<char,std::char_traits<char>,std::allocator<char> > > >::~_Vector_val<std::basic_string<char,std::char_traits<char>,std::allocator<char> >,std::allocator<std::basic_string<char,std::char_traits<char>,std::allocator<char> > > >
_TEXT	ENDS
PUBLIC	?deallocate@?$allocator@V?$basic_string@DU?$char_traits@D@std@@V?$allocator@D@2@@std@@@std@@QAEXPAV?$basic_string@DU?$char_traits@D@std@@V?$allocator@D@2@@2@I@Z ; std::allocator<std::basic_string<char,std::char_traits<char>,std::allocator<char> > >::deallocate
; Function compile flags: /Ogsp
; File c:\program files (x86)\microsoft visual studio 10.0\vc\include\xmemory
;	COMDAT ?deallocate@?$allocator@V?$basic_string@DU?$char_traits@D@std@@V?$allocator@D@2@@std@@@std@@QAEXPAV?$basic_string@DU?$char_traits@D@std@@V?$allocator@D@2@@2@I@Z
_TEXT	SEGMENT
__Ptr$ = 8						; size = 4
___formal$ = 12						; size = 4
?deallocate@?$allocator@V?$basic_string@DU?$char_traits@D@std@@V?$allocator@D@2@@std@@@std@@QAEXPAV?$basic_string@DU?$char_traits@D@std@@V?$allocator@D@2@@2@I@Z PROC ; std::allocator<std::basic_string<char,std::char_traits<char>,std::allocator<char> > >::deallocate, COMDAT
; _this$ = ecx

; 181  : 		{	// deallocate object at _Ptr, ignore size

  00000	55		 push	 ebp
  00001	8b ec		 mov	 ebp, esp

; 182  : 		::operator delete(_Ptr);

  00003	ff 75 08	 push	 DWORD PTR __Ptr$[ebp]
  00006	e8 00 00 00 00	 call	 ??3@YAXPAX@Z		; operator delete
  0000b	59		 pop	 ecx

; 183  : 		}

  0000c	5d		 pop	 ebp
  0000d	c2 08 00	 ret	 8
?deallocate@?$allocator@V?$basic_string@DU?$char_traits@D@std@@V?$allocator@D@2@@std@@@std@@QAEXPAV?$basic_string@DU?$char_traits@D@std@@V?$allocator@D@2@@2@I@Z ENDP ; std::allocator<std::basic_string<char,std::char_traits<char>,std::allocator<char> > >::deallocate
_TEXT	ENDS
PUBLIC	??$_Ptr_cat@V?$basic_string@DU?$char_traits@D@std@@V?$allocator@D@2@@std@@V12@@std@@YA?AU_Nonscalar_ptr_iterator_tag@0@PAV?$basic_string@DU?$char_traits@D@std@@V?$allocator@D@2@@0@0@Z ; std::_Ptr_cat<std::basic_string<char,std::char_traits<char>,std::allocator<char> >,std::basic_string<char,std::char_traits<char>,std::allocator<char> > >
; Function compile flags: /Ogsp
; File c:\program files (x86)\microsoft visual studio 10.0\vc\include\xutility
;	COMDAT ??$_Ptr_cat@V?$basic_string@DU?$char_traits@D@std@@V?$allocator@D@2@@std@@V12@@std@@YA?AU_Nonscalar_ptr_iterator_tag@0@PAV?$basic_string@DU?$char_traits@D@std@@V?$allocator@D@2@@0@0@Z
_TEXT	SEGMENT
__Cat$ = -1						; size = 1
___formal$ = 8						; size = 4
___formal$ = 12						; size = 4
??$_Ptr_cat@V?$basic_string@DU?$char_traits@D@std@@V?$allocator@D@2@@std@@V12@@std@@YA?AU_Nonscalar_ptr_iterator_tag@0@PAV?$basic_string@DU?$char_traits@D@std@@V?$allocator@D@2@@0@0@Z PROC ; std::_Ptr_cat<std::basic_string<char,std::char_traits<char>,std::allocator<char> >,std::basic_string<char,std::char_traits<char>,std::allocator<char> > >, COMDAT

; 516  : 	{	// return pointer category from pointers

  00000	55		 push	 ebp
  00001	8b ec		 mov	 ebp, esp
  00003	51		 push	 ecx

; 517  : 	typename _Ptr_cat_helper<_Elem1, _Elem2>::_Type _Cat;
; 518  : 	return (_Cat);

  00004	8a 45 ff	 mov	 al, BYTE PTR __Cat$[ebp]

; 519  : 	}

  00007	c9		 leave
  00008	c3		 ret	 0
??$_Ptr_cat@V?$basic_string@DU?$char_traits@D@std@@V?$allocator@D@2@@std@@V12@@std@@YA?AU_Nonscalar_ptr_iterator_tag@0@PAV?$basic_string@DU?$char_traits@D@std@@V?$allocator@D@2@@0@0@Z ENDP ; std::_Ptr_cat<std::basic_string<char,std::char_traits<char>,std::allocator<char> >,std::basic_string<char,std::char_traits<char>,std::allocator<char> > >
; Function compile flags: /Ogsp
_TEXT	ENDS
;	COMDAT ??_GSettingCustomSoundItemWnd@@UAEPAXI@Z
_TEXT	SEGMENT
___flags$ = 8						; size = 4
??_GSettingCustomSoundItemWnd@@UAEPAXI@Z PROC		; SettingCustomSoundItemWnd::`scalar deleting destructor', COMDAT
; _this$ = ecx
  00000	55		 push	 ebp
  00001	8b ec		 mov	 ebp, esp
  00003	56		 push	 esi
  00004	8b f1		 mov	 esi, ecx
  00006	e8 00 00 00 00	 call	 ??1SettingCustomSoundItemWnd@@UAE@XZ ; SettingCustomSoundItemWnd::~SettingCustomSoundItemWnd
  0000b	f6 45 08 01	 test	 BYTE PTR ___flags$[ebp], 1
  0000f	74 07		 je	 SHORT $LN1@scalar@2
  00011	56		 push	 esi
  00012	e8 00 00 00 00	 call	 ??3@YAXPAX@Z		; operator delete
  00017	59		 pop	 ecx
$LN1@scalar@2:
  00018	8b c6		 mov	 eax, esi
  0001a	5e		 pop	 esi
  0001b	5d		 pop	 ebp
  0001c	c2 04 00	 ret	 4
??_GSettingCustomSoundItemWnd@@UAEPAXI@Z ENDP		; SettingCustomSoundItemWnd::`scalar deleting destructor'
; Function compile flags: /Ogsp
_TEXT	ENDS
;	COMDAT ??_GGameOptionSettingCustomSoundTab@@UAEPAXI@Z
_TEXT	SEGMENT
___flags$ = 8						; size = 4
??_GGameOptionSettingCustomSoundTab@@UAEPAXI@Z PROC	; GameOptionSettingCustomSoundTab::`scalar deleting destructor', COMDAT
; _this$ = ecx
  00000	55		 push	 ebp
  00001	8b ec		 mov	 ebp, esp
  00003	56		 push	 esi
  00004	8b f1		 mov	 esi, ecx
  00006	e8 00 00 00 00	 call	 ??1GameOptionSettingCustomSoundTab@@UAE@XZ ; GameOptionSettingCustomSoundTab::~GameOptionSettingCustomSoundTab
  0000b	f6 45 08 01	 test	 BYTE PTR ___flags$[ebp], 1
  0000f	74 07		 je	 SHORT $LN1@scalar@3
  00011	56		 push	 esi
  00012	e8 00 00 00 00	 call	 ??3@YAXPAX@Z		; operator delete
  00017	59		 pop	 ecx
$LN1@scalar@3:
  00018	8b c6		 mov	 eax, esi
  0001a	5e		 pop	 esi
  0001b	5d		 pop	 ebp
  0001c	c2 04 00	 ret	 4
??_GGameOptionSettingCustomSoundTab@@UAEPAXI@Z ENDP	; GameOptionSettingCustomSoundTab::`scalar deleting destructor'
_TEXT	ENDS
PUBLIC	??_C@_0DJ@JAFFLPFG@GameOptionSettingCustomSoundTab?3@ ; `string'
PUBLIC	?SetKeywordEditToBtnByID@GameOptionSettingCustomSoundTab@@IAEXXZ ; GameOptionSettingCustomSoundTab::SetKeywordEditToBtnByID
EXTRN	?SetMsgBox@ioSP2GUIManager@@QAAXHPAVioWnd@@PBDZZ:PROC ; ioSP2GUIManager::SetMsgBox
EXTRN	__imp_??9ioHashString@@QBE_NPBD@Z:PROC
EXTRN	?GetFilteredKeyword@ioCustomSoundMgr@@QAEXPBDAAVioHashString@@@Z:PROC ; ioCustomSoundMgr::GetFilteredKeyword
EXTRN	?GetSingleton@ioCustomSoundMgr@@SAAAV1@XZ:PROC	; ioCustomSoundMgr::GetSingleton
;	COMDAT ??_C@_0DJ@JAFFLPFG@GameOptionSettingCustomSoundTab?3@
; File d:\lost saga for developer\youtube\tutorial\source\src\lsclient\gui\gameoptionsettingtab.cpp
CONST	SEGMENT
??_C@_0DJ@JAFFLPFG@GameOptionSettingCustomSoundTab?3@ DB 'GameOptionSetti'
	DB	'ngCustomSoundTab::SetKeywordEditToBtnByID', 00H ; `string'
CONST	ENDS
;	COMDAT xdata$x
xdata$x	SEGMENT
__unwindtable$?SetKeywordEditToBtnByID@GameOptionSettingCustomSoundTab@@IAEXXZ DD 0ffffffffH
	DD	FLAT:__unwindfunclet$?SetKeywordEditToBtnByID@GameOptionSettingCustomSoundTab@@IAEXXZ$0
__ehfuncinfo$?SetKeywordEditToBtnByID@GameOptionSettingCustomSoundTab@@IAEXXZ DD 019930522H
	DD	01H
	DD	FLAT:__unwindtable$?SetKeywordEditToBtnByID@GameOptionSettingCustomSoundTab@@IAEXXZ
	DD	2 DUP(00H)
	DD	2 DUP(00H)
	DD	00H
	DD	01H
; Function compile flags: /Ogsp
xdata$x	ENDS
;	COMDAT ?SetKeywordEditToBtnByID@GameOptionSettingCustomSoundTab@@IAEXXZ
_TEXT	SEGMENT
_szFiltered$ = -32					; size = 16
_this$ = -16						; size = 4
__$EHRec$ = -12						; size = 12
?SetKeywordEditToBtnByID@GameOptionSettingCustomSoundTab@@IAEXXZ PROC ; GameOptionSettingCustomSoundTab::SetKeywordEditToBtnByID, COMDAT
; _this$ = ecx

; 484  : {

  00000	6a 14		 push	 20			; 00000014H
  00002	b8 00 00 00 00	 mov	 eax, __ehhandler$?SetKeywordEditToBtnByID@GameOptionSettingCustomSoundTab@@IAEXXZ
  00007	e8 00 00 00 00	 call	 __EH_prolog3
  0000c	8b f1		 mov	 esi, ecx
  0000e	89 75 f0	 mov	 DWORD PTR _this$[ebp], esi

; 485  : 	if( m_dwSelectEditItemID == ID_NONE_SELECT_ITEM_WND ) return;

  00011	8b 86 64 01 00
	00		 mov	 eax, DWORD PTR [esi+356]
  00017	3d 40 42 0f 00	 cmp	 eax, 1000000		; 000f4240H
  0001c	0f 84 32 01 00
	00		 je	 $LN7@SetKeyword@4

; 486  : 
; 487  : 	SettingCustomSoundItemWnd *pItem = dynamic_cast<SettingCustomSoundItemWnd*> ( FindChildWnd( m_dwSelectEditItemID ) );

  00022	33 ff		 xor	 edi, edi
  00024	57		 push	 edi
  00025	68 00 00 00 00	 push	 OFFSET ??_R0?AVSettingCustomSoundItemWnd@@@8
  0002a	68 00 00 00 00	 push	 OFFSET ??_R0?AVioWnd@@@8
  0002f	57		 push	 edi
  00030	50		 push	 eax
  00031	ff 15 00 00 00
	00		 call	 DWORD PTR __imp_?FindChildWnd@ioWnd@@QAEPAV1@K@Z
  00037	50		 push	 eax
  00038	e8 00 00 00 00	 call	 ___RTDynamicCast
  0003d	8b d8		 mov	 ebx, eax
  0003f	83 c4 14	 add	 esp, 20			; 00000014H

; 488  : 	if( !pItem ) return;

  00042	3b df		 cmp	 ebx, edi
  00044	0f 84 0a 01 00
	00		 je	 $LN7@SetKeyword@4

; 489  : 	if( !pItem->GetKeywordByEdit() ) return;

  0004a	8b cb		 mov	 ecx, ebx
  0004c	e8 00 00 00 00	 call	 ?GetKeywordByEdit@SettingCustomSoundItemWnd@@QAEPBDXZ ; SettingCustomSoundItemWnd::GetKeywordByEdit
  00051	85 c0		 test	 eax, eax
  00053	0f 84 fb 00 00
	00		 je	 $LN7@SetKeyword@4

; 490  : 
; 491  : 	ioHashString szFiltered;

  00059	8d 4d e0	 lea	 ecx, DWORD PTR _szFiltered$[ebp]
  0005c	ff 15 00 00 00
	00		 call	 DWORD PTR __imp_??0ioHashString@@QAE@XZ

; 492  : 	g_CustomSoundMgr.GetFilteredKeyword( pItem->GetKeywordByEdit(), szFiltered );

  00062	8d 45 e0	 lea	 eax, DWORD PTR _szFiltered$[ebp]
  00065	50		 push	 eax
  00066	8b cb		 mov	 ecx, ebx
  00068	89 7d fc	 mov	 DWORD PTR __$EHRec$[ebp+8], edi
  0006b	e8 00 00 00 00	 call	 ?GetKeywordByEdit@SettingCustomSoundItemWnd@@QAEPBDXZ ; SettingCustomSoundItemWnd::GetKeywordByEdit
  00070	50		 push	 eax
  00071	e8 00 00 00 00	 call	 ?GetSingleton@ioCustomSoundMgr@@SAAAV1@XZ ; ioCustomSoundMgr::GetSingleton
  00076	8b c8		 mov	 ecx, eax
  00078	e8 00 00 00 00	 call	 ?GetFilteredKeyword@ioCustomSoundMgr@@QAEXPBDAAVioHashString@@@Z ; ioCustomSoundMgr::GetFilteredKeyword

; 493  : 	if( szFiltered != pItem->GetKeywordByEdit() )

  0007d	8b cb		 mov	 ecx, ebx
  0007f	e8 00 00 00 00	 call	 ?GetKeywordByEdit@SettingCustomSoundItemWnd@@QAEPBDXZ ; SettingCustomSoundItemWnd::GetKeywordByEdit
  00084	50		 push	 eax
  00085	8d 4d e0	 lea	 ecx, DWORD PTR _szFiltered$[ebp]
  00088	ff 15 00 00 00
	00		 call	 DWORD PTR __imp_??9ioHashString@@QBE_NPBD@Z
  0008e	84 c0		 test	 al, al
  00090	74 29		 je	 SHORT $LN3@SetKeyword@4

; 494  : 	{
; 495  : 		g_InputBox.SetString( szFiltered.c_str() );

  00092	8d 4d e0	 lea	 ecx, DWORD PTR _szFiltered$[ebp]
  00095	ff 15 00 00 00
	00		 call	 DWORD PTR __imp_?c_str@ioHashString@@QBEPBDXZ
  0009b	50		 push	 eax
  0009c	ff 15 00 00 00
	00		 call	 DWORD PTR __imp_?GetSingleton@ioInputBox@@SAAAV1@XZ
  000a2	8b c8		 mov	 ecx, eax
  000a4	ff 15 00 00 00
	00		 call	 DWORD PTR __imp_?SetString@ioInputBox@@QAEXPBD@Z

; 496  : 		pItem->SetKeywordEdit( szFiltered.c_str() );

  000aa	8d 4d e0	 lea	 ecx, DWORD PTR _szFiltered$[ebp]
  000ad	ff 15 00 00 00
	00		 call	 DWORD PTR __imp_?c_str@ioHashString@@QBEPBDXZ
  000b3	50		 push	 eax
  000b4	8b cb		 mov	 ecx, ebx
  000b6	e8 00 00 00 00	 call	 ?SetKeywordEdit@SettingCustomSoundItemWnd@@QAEXPBD@Z ; SettingCustomSoundItemWnd::SetKeywordEdit
$LN3@SetKeyword@4:

; 497  : 	}
; 498  : 	
; 499  : 	if( IsExistKeyword( pItem->GetKeywordByEdit(), m_dwSelectEditItemID ) &&
; 500  : 		strcmp( pItem->GetKeywordByEdit(), "") != 0 ) 

  000bb	ff b6 64 01 00
	00		 push	 DWORD PTR [esi+356]
  000c1	8b cb		 mov	 ecx, ebx
  000c3	e8 00 00 00 00	 call	 ?GetKeywordByEdit@SettingCustomSoundItemWnd@@QAEPBDXZ ; SettingCustomSoundItemWnd::GetKeywordByEdit
  000c8	50		 push	 eax
  000c9	8b ce		 mov	 ecx, esi
  000cb	e8 00 00 00 00	 call	 ?IsExistKeyword@GameOptionSettingCustomSoundTab@@IAE_NPBDK@Z ; GameOptionSettingCustomSoundTab::IsExistKeyword
  000d0	84 c0		 test	 al, al
  000d2	74 5b		 je	 SHORT $LN2@SetKeyword@4
  000d4	8b cb		 mov	 ecx, ebx
  000d6	bf 00 00 00 00	 mov	 edi, OFFSET ??_C@_00CNPNBAHC@?$AA@
  000db	e8 00 00 00 00	 call	 ?GetKeywordByEdit@SettingCustomSoundItemWnd@@QAEPBDXZ ; SettingCustomSoundItemWnd::GetKeywordByEdit
  000e0	33 c9		 xor	 ecx, ecx
  000e2	8b f0		 mov	 esi, eax
  000e4	41		 inc	 ecx
  000e5	33 c0		 xor	 eax, eax
  000e7	f3 a6		 repe cmpsb
  000e9	74 41		 je	 SHORT $LN11@SetKeyword@4

; 501  : 	{
; 502  : 		pItem->ClearInfo();

  000eb	8b cb		 mov	 ecx, ebx
  000ed	e8 00 00 00 00	 call	 ?ClearInfo@SettingCustomSoundItemWnd@@QAEXXZ ; SettingCustomSoundItemWnd::ClearInfo

; 503  : 		pItem->ShowKeywordBtn();

  000f2	8b cb		 mov	 ecx, ebx
  000f4	e8 00 00 00 00	 call	 ?ShowKeywordBtn@SettingCustomSoundItemWnd@@QAEXXZ ; SettingCustomSoundItemWnd::ShowKeywordBtn

; 504  : 		g_GUIMgr.SetMsgBox( MB_OK, NULL, STR(1) );

  000f9	33 f6		 xor	 esi, esi
  000fb	56		 push	 esi
  000fc	6a 01		 push	 1
  000fe	68 00 00 00 00	 push	 OFFSET ??_C@_00CNPNBAHC@?$AA@
  00103	68 00 00 00 00	 push	 OFFSET ??_C@_0DJ@JAFFLPFG@GameOptionSettingCustomSoundTab?3@
  00108	ff 15 00 00 00
	00		 call	 DWORD PTR __imp_?GetSingleton@ioStringManager@@SAAAV1@XZ
  0010e	8b c8		 mov	 ecx, eax
  00110	ff 15 00 00 00
	00		 call	 DWORD PTR __imp_?GetString@ioStringManager@@QAEPADPBD0HW4FileNamePrefix@1@@Z
  00116	50		 push	 eax
  00117	56		 push	 esi
  00118	56		 push	 esi
  00119	e8 00 00 00 00	 call	 ?GetSingleton@ioSP2GUIManager@@SAAAV1@XZ ; ioSP2GUIManager::GetSingleton
  0011e	50		 push	 eax
  0011f	e8 00 00 00 00	 call	 ?SetMsgBox@ioSP2GUIManager@@QAAXHPAVioWnd@@PBDZZ ; ioSP2GUIManager::SetMsgBox

; 505  : 	}
; 506  : 	else

  00124	8b 75 f0	 mov	 esi, DWORD PTR _this$[ebp]
  00127	83 c4 10	 add	 esp, 16			; 00000010H
  0012a	eb 11		 jmp	 SHORT $LN1@SetKeyword@4
$LN11@SetKeyword@4:
  0012c	8b 75 f0	 mov	 esi, DWORD PTR _this$[ebp]
$LN2@SetKeyword@4:

; 507  : 	{
; 508  : 		pItem->ShowKeywordBtn();

  0012f	8b cb		 mov	 ecx, ebx
  00131	e8 00 00 00 00	 call	 ?ShowKeywordBtn@SettingCustomSoundItemWnd@@QAEXXZ ; SettingCustomSoundItemWnd::ShowKeywordBtn

; 509  : 		pItem->SetKeywordEditToBtn();

  00136	8b cb		 mov	 ecx, ebx
  00138	e8 00 00 00 00	 call	 ?SetKeywordEditToBtn@SettingCustomSoundItemWnd@@QAEXXZ ; SettingCustomSoundItemWnd::SetKeywordEditToBtn
$LN1@SetKeyword@4:

; 510  : 	}
; 511  : 	m_dwSelectEditItemID = ID_NONE_SELECT_ITEM_WND;
; 512  : }

  0013d	83 4d fc ff	 or	 DWORD PTR __$EHRec$[ebp+8], -1
  00141	8d 4d e0	 lea	 ecx, DWORD PTR _szFiltered$[ebp]
  00144	c7 86 64 01 00
	00 40 42 0f 00	 mov	 DWORD PTR [esi+356], 1000000 ; 000f4240H
  0014e	ff 15 00 00 00
	00		 call	 DWORD PTR __imp_??1ioHashString@@QAE@XZ
$LN7@SetKeyword@4:
  00154	e8 00 00 00 00	 call	 __EH_epilog3
  00159	c3		 ret	 0
_TEXT	ENDS
;	COMDAT text$x
text$x	SEGMENT
__unwindfunclet$?SetKeywordEditToBtnByID@GameOptionSettingCustomSoundTab@@IAEXXZ$0:
  00000	8d 4d e0	 lea	 ecx, DWORD PTR _szFiltered$[ebp]
  00003	ff 25 00 00 00
	00		 jmp	 DWORD PTR __imp_??1ioHashString@@QAE@XZ
__ehhandler$?SetKeywordEditToBtnByID@GameOptionSettingCustomSoundTab@@IAEXXZ:
  00009	8b 54 24 08	 mov	 edx, DWORD PTR [esp+8]
  0000d	8d 42 0c	 lea	 eax, DWORD PTR [edx+12]
  00010	8b 4a dc	 mov	 ecx, DWORD PTR [edx-36]
  00013	33 c8		 xor	 ecx, eax
  00015	e8 00 00 00 00	 call	 @__security_check_cookie@4
  0001a	b8 00 00 00 00	 mov	 eax, OFFSET __ehfuncinfo$?SetKeywordEditToBtnByID@GameOptionSettingCustomSoundTab@@IAEXXZ
  0001f	e9 00 00 00 00	 jmp	 ___CxxFrameHandler3
text$x	ENDS
?SetKeywordEditToBtnByID@GameOptionSettingCustomSoundTab@@IAEXXZ ENDP ; GameOptionSettingCustomSoundTab::SetKeywordEditToBtnByID
; Function compile flags: /Ogsp
;	COMDAT ??_GSettingBtn@@UAEPAXI@Z
_TEXT	SEGMENT
___flags$ = 8						; size = 4
??_GSettingBtn@@UAEPAXI@Z PROC				; SettingBtn::`scalar deleting destructor', COMDAT
; _this$ = ecx
  00000	55		 push	 ebp
  00001	8b ec		 mov	 ebp, esp
  00003	56		 push	 esi
  00004	8b f1		 mov	 esi, ecx
  00006	e8 00 00 00 00	 call	 ??1SettingBtn@@UAE@XZ	; SettingBtn::~SettingBtn
  0000b	f6 45 08 01	 test	 BYTE PTR ___flags$[ebp], 1
  0000f	74 07		 je	 SHORT $LN1@scalar@4
  00011	56		 push	 esi
  00012	e8 00 00 00 00	 call	 ??3@YAXPAX@Z		; operator delete
  00017	59		 pop	 ecx
$LN1@scalar@4:
  00018	8b c6		 mov	 eax, esi
  0001a	5e		 pop	 esi
  0001b	5d		 pop	 ebp
  0001c	c2 04 00	 ret	 4
??_GSettingBtn@@UAEPAXI@Z ENDP				; SettingBtn::`scalar deleting destructor'
; Function compile flags: /Ogsp
_TEXT	ENDS
;	COMDAT ??_GSettingKeyItemWnd@@UAEPAXI@Z
_TEXT	SEGMENT
___flags$ = 8						; size = 4
??_GSettingKeyItemWnd@@UAEPAXI@Z PROC			; SettingKeyItemWnd::`scalar deleting destructor', COMDAT
; _this$ = ecx
  00000	55		 push	 ebp
  00001	8b ec		 mov	 ebp, esp
  00003	56		 push	 esi
  00004	8b f1		 mov	 esi, ecx
  00006	e8 00 00 00 00	 call	 ??1SettingKeyItemWnd@@UAE@XZ ; SettingKeyItemWnd::~SettingKeyItemWnd
  0000b	f6 45 08 01	 test	 BYTE PTR ___flags$[ebp], 1
  0000f	74 07		 je	 SHORT $LN1@scalar@5
  00011	56		 push	 esi
  00012	e8 00 00 00 00	 call	 ??3@YAXPAX@Z		; operator delete
  00017	59		 pop	 ecx
$LN1@scalar@5:
  00018	8b c6		 mov	 eax, esi
  0001a	5e		 pop	 esi
  0001b	5d		 pop	 ebp
  0001c	c2 04 00	 ret	 4
??_GSettingKeyItemWnd@@UAEPAXI@Z ENDP			; SettingKeyItemWnd::`scalar deleting destructor'
_TEXT	ENDS
PUBLIC	__real@43a00000
PUBLIC	__real@43160000
PUBLIC	?SetItem@SettingKeyItemWnd@@QAEXW4ItemType@1@W4KeyTypeArray@CKeyInfo@@1GG@Z ; SettingKeyItemWnd::SetItem
;	COMDAT __real@43a00000
CONST	SEGMENT
__real@43a00000 DD 043a00000r			; 320
CONST	ENDS
;	COMDAT __real@43160000
CONST	SEGMENT
__real@43160000 DD 043160000r			; 150
CONST	ENDS
;	COMDAT xdata$x
xdata$x	SEGMENT
__unwindtable$?SetItem@SettingKeyItemWnd@@QAEXW4ItemType@1@W4KeyTypeArray@CKeyInfo@@1GG@Z DD 0ffffffffH
	DD	FLAT:__unwindfunclet$?SetItem@SettingKeyItemWnd@@QAEXW4ItemType@1@W4KeyTypeArray@CKeyInfo@@1GG@Z$0
__ehfuncinfo$?SetItem@SettingKeyItemWnd@@QAEXW4ItemType@1@W4KeyTypeArray@CKeyInfo@@1GG@Z DD 019930522H
	DD	01H
	DD	FLAT:__unwindtable$?SetItem@SettingKeyItemWnd@@QAEXW4ItemType@1@W4KeyTypeArray@CKeyInfo@@1GG@Z
	DD	2 DUP(00H)
	DD	2 DUP(00H)
	DD	00H
	DD	01H
; Function compile flags: /Ogsp
xdata$x	ENDS
;	COMDAT ?SetItem@SettingKeyItemWnd@@QAEXW4ItemType@1@W4KeyTypeArray@CKeyInfo@@1GG@Z
_TEXT	SEGMENT
_sText$ = -28						; size = 16
__$EHRec$ = -12						; size = 12
_eItemType$ = 8						; size = 4
_eFirstKeyType$ = 12					; size = 4
_eSecondKeyType$ = 16					; size = 4
_wFirstKey$ = 20					; size = 2
_wSecondKey$ = 24					; size = 2
?SetItem@SettingKeyItemWnd@@QAEXW4ItemType@1@W4KeyTypeArray@CKeyInfo@@1GG@Z PROC ; SettingKeyItemWnd::SetItem, COMDAT
; _this$ = ecx

; 719  : {

  00000	6a 10		 push	 16			; 00000010H
  00002	b8 00 00 00 00	 mov	 eax, __ehhandler$?SetItem@SettingKeyItemWnd@@QAEXW4ItemType@1@W4KeyTypeArray@CKeyInfo@@1GG@Z
  00007	e8 00 00 00 00	 call	 __EH_prolog3
  0000c	8b f9		 mov	 edi, ecx

; 720  : 	m_eType = eItemType;

  0000e	8b 45 08	 mov	 eax, DWORD PTR _eItemType$[ebp]

; 721  : 
; 722  : 	if( m_eType == IT_TITLE_BASIC   ||
; 723  : 		m_eType == IT_TITLE_ADDTION ||
; 724  : 		m_eType == IT_TITLE_SKILL   ||
; 725  : 		m_eType == IT_TITLE_FUNCTION||
; 726  : 		m_eType == IT_TITLE_SOLDIER ||
; 727  : 		m_eType == IT_TITLE_MACRO )

  00011	33 f6		 xor	 esi, esi
  00013	89 87 68 01 00
	00		 mov	 DWORD PTR [edi+360], eax
  00019	3b c6		 cmp	 eax, esi
  0001b	0f 84 4f 01 00
	00		 je	 $LN7@SetItem
  00021	83 f8 08	 cmp	 eax, 8
  00024	0f 84 46 01 00
	00		 je	 $LN7@SetItem
  0002a	83 f8 0d	 cmp	 eax, 13			; 0000000dH
  0002d	0f 84 3d 01 00
	00		 je	 $LN7@SetItem
  00033	83 f8 12	 cmp	 eax, 18			; 00000012H
  00036	0f 84 34 01 00
	00		 je	 $LN7@SetItem
  0003c	83 f8 26	 cmp	 eax, 38			; 00000026H
  0003f	0f 84 2b 01 00
	00		 je	 $LN7@SetItem
  00045	83 f8 4b	 cmp	 eax, 75			; 0000004bH
  00048	0f 84 22 01 00
	00		 je	 $LN7@SetItem

; 732  : 	}
; 733  :     //  Second key   ( IT_UP ~ IT_RIGHT )
; 734  : 	else if( COMPARE(m_eType, IT_ATTACK, IT_JUMP+1) )

  0004e	83 f8 05	 cmp	 eax, 5
  00051	0f 8c c2 00 00
	00		 jl	 $LN5@SetItem
  00057	83 f8 08	 cmp	 eax, 8
  0005a	0f 8d b9 00 00
	00		 jge	 $LN5@SetItem

; 735  : 	{
; 736  : 		HideChildWnd( ID_BIG_BTN );

  00060	56		 push	 esi
  00061	6a 03		 push	 3
  00063	ff 15 00 00 00
	00		 call	 DWORD PTR __imp_?HideChildWnd@ioWnd@@QAEXK_N@Z

; 737  : 		ShowChildWnd( ID_SMALL_FIRST_BTN );

  00069	8b 1d 00 00 00
	00		 mov	 ebx, DWORD PTR __imp_?ShowChildWnd@ioWnd@@QAEXK_N@Z
  0006f	56		 push	 esi
  00070	6a 01		 push	 1
  00072	8b cf		 mov	 ecx, edi
  00074	ff d3		 call	 ebx

; 738  : 		ShowChildWnd( ID_SMALL_SECOND_BTN );

  00076	56		 push	 esi
  00077	6a 02		 push	 2
  00079	8b cf		 mov	 ecx, edi
  0007b	ff d3		 call	 ebx

; 739  : 
; 740  : 		SettingBtn *pBtn = dynamic_cast<SettingBtn*> ( FindChildWnd(ID_SMALL_FIRST_BTN) );

  0007d	8b 1d 00 00 00
	00		 mov	 ebx, DWORD PTR __imp_?FindChildWnd@ioWnd@@QAEPAV1@K@Z
  00083	56		 push	 esi
  00084	68 00 00 00 00	 push	 OFFSET ??_R0?AVSettingBtn@@@8
  00089	68 00 00 00 00	 push	 OFFSET ??_R0?AVioWnd@@@8
  0008e	56		 push	 esi
  0008f	6a 01		 push	 1
  00091	8b cf		 mov	 ecx, edi
  00093	ff d3		 call	 ebx
  00095	50		 push	 eax
  00096	e8 00 00 00 00	 call	 ___RTDynamicCast
  0009b	83 c4 14	 add	 esp, 20			; 00000014H

; 741  : 		if(pBtn)

  0009e	3b c6		 cmp	 eax, esi
  000a0	74 29		 je	 SHORT $LN4@SetItem

; 742  : 		{
; 743  : 			pBtn->SetKeyType(eFirstKeyType);

  000a2	8b 4d 0c	 mov	 ecx, DWORD PTR _eFirstKeyType$[ebp]

; 744  : 			pBtn->SetKeyValue(wFirstKey);
; 745  : 			pBtn->SetTitle( 150.0f );

  000a5	f3 0f 10 05 00
	00 00 00	 movss	 xmm0, DWORD PTR __real@43160000
  000ad	89 88 fc 01 00
	00		 mov	 DWORD PTR [eax+508], ecx
  000b3	66 8b 4d 14	 mov	 cx, WORD PTR _wFirstKey$[ebp]
  000b7	66 89 88 00 02
	00 00		 mov	 WORD PTR [eax+512], cx
  000be	51		 push	 ecx
  000bf	8b c8		 mov	 ecx, eax
  000c1	f3 0f 11 04 24	 movss	 DWORD PTR [esp], xmm0
  000c6	e8 00 00 00 00	 call	 ?SetTitle@SettingBtn@@QAEXM@Z ; SettingBtn::SetTitle
$LN4@SetItem:

; 746  : 		}
; 747  : 
; 748  : 		pBtn = dynamic_cast<SettingBtn*> ( FindChildWnd(ID_SMALL_SECOND_BTN) );

  000cb	56		 push	 esi
  000cc	68 00 00 00 00	 push	 OFFSET ??_R0?AVSettingBtn@@@8
  000d1	68 00 00 00 00	 push	 OFFSET ??_R0?AVioWnd@@@8
  000d6	56		 push	 esi
  000d7	6a 02		 push	 2
  000d9	8b cf		 mov	 ecx, edi
  000db	ff d3		 call	 ebx
  000dd	50		 push	 eax
  000de	e8 00 00 00 00	 call	 ___RTDynamicCast
  000e3	83 c4 14	 add	 esp, 20			; 00000014H

; 749  : 		if(pBtn)

  000e6	3b c6		 cmp	 eax, esi
  000e8	0f 84 9b 00 00
	00		 je	 $LN1@SetItem

; 750  : 		{
; 751  : 			pBtn->SetKeyType(eSecondKeyType);

  000ee	8b 4d 10	 mov	 ecx, DWORD PTR _eSecondKeyType$[ebp]

; 752  : 			pBtn->SetKeyValue(wSecondKey);
; 753  : 			pBtn->SetTitle( 150.0f );

  000f1	f3 0f 10 05 00
	00 00 00	 movss	 xmm0, DWORD PTR __real@43160000
  000f9	89 88 fc 01 00
	00		 mov	 DWORD PTR [eax+508], ecx
  000ff	66 8b 4d 18	 mov	 cx, WORD PTR _wSecondKey$[ebp]
$LN26@SetItem:
  00103	51		 push	 ecx
  00104	66 89 88 00 02
	00 00		 mov	 WORD PTR [eax+512], cx
  0010b	8b c8		 mov	 ecx, eax
  0010d	f3 0f 11 04 24	 movss	 DWORD PTR [esp], xmm0
  00112	e8 00 00 00 00	 call	 ?SetTitle@SettingBtn@@QAEXM@Z ; SettingBtn::SetTitle

; 754  : 		}
; 755  : 	}
; 756  : 	else

  00117	eb 70		 jmp	 SHORT $LN1@SetItem
$LN5@SetItem:

; 757  : 	{
; 758  : 		ShowChildWnd( ID_BIG_BTN );

  00119	56		 push	 esi
  0011a	6a 03		 push	 3
  0011c	ff 15 00 00 00
	00		 call	 DWORD PTR __imp_?ShowChildWnd@ioWnd@@QAEXK_N@Z

; 759  : 		HideChildWnd( ID_SMALL_FIRST_BTN );

  00122	8b 1d 00 00 00
	00		 mov	 ebx, DWORD PTR __imp_?HideChildWnd@ioWnd@@QAEXK_N@Z
  00128	56		 push	 esi
  00129	6a 01		 push	 1
  0012b	8b cf		 mov	 ecx, edi
  0012d	ff d3		 call	 ebx

; 760  : 		HideChildWnd( ID_SMALL_SECOND_BTN );

  0012f	56		 push	 esi
  00130	6a 02		 push	 2
  00132	8b cf		 mov	 ecx, edi
  00134	ff d3		 call	 ebx

; 761  : 
; 762  : 		SettingBtn *pBtn = dynamic_cast<SettingBtn*> ( FindChildWnd(ID_BIG_BTN) );

  00136	56		 push	 esi
  00137	68 00 00 00 00	 push	 OFFSET ??_R0?AVSettingBtn@@@8
  0013c	68 00 00 00 00	 push	 OFFSET ??_R0?AVioWnd@@@8
  00141	56		 push	 esi
  00142	6a 03		 push	 3
  00144	8b cf		 mov	 ecx, edi
  00146	ff 15 00 00 00
	00		 call	 DWORD PTR __imp_?FindChildWnd@ioWnd@@QAEPAV1@K@Z
  0014c	50		 push	 eax
  0014d	e8 00 00 00 00	 call	 ___RTDynamicCast
  00152	83 c4 14	 add	 esp, 20			; 00000014H

; 763  : 		if(pBtn)

  00155	3b c6		 cmp	 eax, esi
  00157	74 30		 je	 SHORT $LN1@SetItem

; 764  : 		{
; 765  : 			pBtn->SetKeyType(eFirstKeyType);

  00159	8b 4d 0c	 mov	 ecx, DWORD PTR _eFirstKeyType$[ebp]

; 766  : 			pBtn->SetKeyValue(wFirstKey);
; 767  : 			pBtn->SetTitle( 320.0f );

  0015c	f3 0f 10 05 00
	00 00 00	 movss	 xmm0, DWORD PTR __real@43a00000
  00164	89 88 fc 01 00
	00		 mov	 DWORD PTR [eax+508], ecx
  0016a	66 8b 4d 14	 mov	 cx, WORD PTR _wFirstKey$[ebp]
  0016e	eb 93		 jmp	 SHORT $LN26@SetItem
$LN7@SetItem:

; 728  : 	{
; 729  : 		HideChildWnd( ID_BIG_BTN );

  00170	8b 1d 00 00 00
	00		 mov	 ebx, DWORD PTR __imp_?HideChildWnd@ioWnd@@QAEXK_N@Z
  00176	56		 push	 esi
  00177	6a 03		 push	 3
  00179	ff d3		 call	 ebx

; 730  : 		HideChildWnd( ID_SMALL_FIRST_BTN );

  0017b	56		 push	 esi
  0017c	6a 01		 push	 1
  0017e	8b cf		 mov	 ecx, edi
  00180	ff d3		 call	 ebx

; 731  : 		HideChildWnd( ID_SMALL_SECOND_BTN );

  00182	56		 push	 esi
  00183	6a 02		 push	 2
  00185	8b cf		 mov	 ecx, edi
  00187	ff d3		 call	 ebx
$LN1@SetItem:

; 768  : 		}
; 769  : 	}	
; 770  : 
; 771  : 	ioHashString sText;

  00189	8d 4d e4	 lea	 ecx, DWORD PTR _sText$[ebp]
  0018c	ff 15 00 00 00
	00		 call	 DWORD PTR __imp_??0ioHashString@@QAE@XZ

; 772  : 	SetHelpText( m_eType, sText );

  00192	8d 45 e4	 lea	 eax, DWORD PTR _sText$[ebp]
  00195	50		 push	 eax
  00196	ff b7 68 01 00
	00		 push	 DWORD PTR [edi+360]
  0019c	8b cf		 mov	 ecx, edi
  0019e	89 75 fc	 mov	 DWORD PTR __$EHRec$[ebp+8], esi
  001a1	e8 00 00 00 00	 call	 ?SetHelpText@SettingKeyItemWnd@@QAEXW4ItemType@1@AAVioHashString@@@Z ; SettingKeyItemWnd::SetHelpText

; 773  : 	SetTitle( sText );

  001a6	8d 45 e4	 lea	 eax, DWORD PTR _sText$[ebp]
  001a9	50		 push	 eax
  001aa	8b cf		 mov	 ecx, edi
  001ac	e8 00 00 00 00	 call	 ?SetTitle@SettingKeyItemWnd@@IAEXABVioHashString@@@Z ; SettingKeyItemWnd::SetTitle

; 774  : }

  001b1	83 4d fc ff	 or	 DWORD PTR __$EHRec$[ebp+8], -1
  001b5	8d 4d e4	 lea	 ecx, DWORD PTR _sText$[ebp]
  001b8	ff 15 00 00 00
	00		 call	 DWORD PTR __imp_??1ioHashString@@QAE@XZ
  001be	e8 00 00 00 00	 call	 __EH_epilog3
  001c3	c2 14 00	 ret	 20			; 00000014H
_TEXT	ENDS
;	COMDAT text$x
text$x	SEGMENT
__unwindfunclet$?SetItem@SettingKeyItemWnd@@QAEXW4ItemType@1@W4KeyTypeArray@CKeyInfo@@1GG@Z$0:
  00000	8d 4d e4	 lea	 ecx, DWORD PTR _sText$[ebp]
  00003	ff 25 00 00 00
	00		 jmp	 DWORD PTR __imp_??1ioHashString@@QAE@XZ
__ehhandler$?SetItem@SettingKeyItemWnd@@QAEXW4ItemType@1@W4KeyTypeArray@CKeyInfo@@1GG@Z:
  00009	8b 54 24 08	 mov	 edx, DWORD PTR [esp+8]
  0000d	8d 42 0c	 lea	 eax, DWORD PTR [edx+12]
  00010	8b 4a e0	 mov	 ecx, DWORD PTR [edx-32]
  00013	33 c8		 xor	 ecx, eax
  00015	e8 00 00 00 00	 call	 @__security_check_cookie@4
  0001a	b8 00 00 00 00	 mov	 eax, OFFSET __ehfuncinfo$?SetItem@SettingKeyItemWnd@@QAEXW4ItemType@1@W4KeyTypeArray@CKeyInfo@@1GG@Z
  0001f	e9 00 00 00 00	 jmp	 ___CxxFrameHandler3
text$x	ENDS
?SetItem@SettingKeyItemWnd@@QAEXW4ItemType@1@W4KeyTypeArray@CKeyInfo@@1GG@Z ENDP ; SettingKeyItemWnd::SetItem
PUBLIC	?GetItemType@GameOptionSettingKeyTab@@IAE?AW4ItemType@SettingKeyItemWnd@@H@Z ; GameOptionSettingKeyTab::GetItemType
; Function compile flags: /Ogsp
;	COMDAT ?GetItemType@GameOptionSettingKeyTab@@IAE?AW4ItemType@SettingKeyItemWnd@@H@Z
_TEXT	SEGMENT
_iPage$ = 8						; size = 4
?GetItemType@GameOptionSettingKeyTab@@IAE?AW4ItemType@SettingKeyItemWnd@@H@Z PROC ; GameOptionSettingKeyTab::GetItemType, COMDAT
; _this$ = ecx

; 1226 : {

  00000	55		 push	 ebp
  00001	8b ec		 mov	 ebp, esp

; 1227 : 	if( !COMPARE(iPage, 0, (int) m_vWholeItemType.size()) )

  00003	8b 55 08	 mov	 edx, DWORD PTR _iPage$[ebp]
  00006	85 d2		 test	 edx, edx
  00008	78 19		 js	 SHORT $LN1@GetItemTyp@2
  0000a	8d 81 90 01 00
	00		 lea	 eax, DWORD PTR [ecx+400]
  00010	8b 48 04	 mov	 ecx, DWORD PTR [eax+4]
  00013	2b 08		 sub	 ecx, DWORD PTR [eax]
  00015	c1 f9 02	 sar	 ecx, 2
  00018	3b d1		 cmp	 edx, ecx
  0001a	7d 07		 jge	 SHORT $LN1@GetItemTyp@2

; 1229 : 
; 1230 : 	return m_vWholeItemType[iPage];

  0001c	8b 00		 mov	 eax, DWORD PTR [eax]
  0001e	8b 04 90	 mov	 eax, DWORD PTR [eax+edx*4]
  00021	eb 03		 jmp	 SHORT $LN3@GetItemTyp@2
$LN1@GetItemTyp@2:

; 1228 : 		return SettingKeyItemWnd::IT_NONE;

  00023	83 c8 ff	 or	 eax, -1
$LN3@GetItemTyp@2:

; 1231 : }

  00026	5d		 pop	 ebp
  00027	c2 04 00	 ret	 4
?GetItemType@GameOptionSettingKeyTab@@IAE?AW4ItemType@SettingKeyItemWnd@@H@Z ENDP ; GameOptionSettingKeyTab::GetItemType
; Function compile flags: /Ogsp
_TEXT	ENDS
;	COMDAT ??_GMacroEdit@@UAEPAXI@Z
_TEXT	SEGMENT
___flags$ = 8						; size = 4
??_GMacroEdit@@UAEPAXI@Z PROC				; MacroEdit::`scalar deleting destructor', COMDAT
; _this$ = ecx
  00000	55		 push	 ebp
  00001	8b ec		 mov	 ebp, esp
  00003	56		 push	 esi
  00004	8b f1		 mov	 esi, ecx
  00006	e8 00 00 00 00	 call	 ??1MacroEdit@@UAE@XZ	; MacroEdit::~MacroEdit
  0000b	f6 45 08 01	 test	 BYTE PTR ___flags$[ebp], 1
  0000f	74 07		 je	 SHORT $LN1@scalar@6
  00011	56		 push	 esi
  00012	e8 00 00 00 00	 call	 ??3@YAXPAX@Z		; operator delete
  00017	59		 pop	 ecx
$LN1@scalar@6:
  00018	8b c6		 mov	 eax, esi
  0001a	5e		 pop	 esi
  0001b	5d		 pop	 ebp
  0001c	c2 04 00	 ret	 4
??_GMacroEdit@@UAEPAXI@Z ENDP				; MacroEdit::`scalar deleting destructor'
; Function compile flags: /Ogsp
_TEXT	ENDS
;	COMDAT ??_GSettingMacroItemBtn@@UAEPAXI@Z
_TEXT	SEGMENT
___flags$ = 8						; size = 4
??_GSettingMacroItemBtn@@UAEPAXI@Z PROC			; SettingMacroItemBtn::`scalar deleting destructor', COMDAT
; _this$ = ecx
  00000	55		 push	 ebp
  00001	8b ec		 mov	 ebp, esp
  00003	56		 push	 esi
  00004	8b f1		 mov	 esi, ecx
  00006	e8 00 00 00 00	 call	 ??1SettingMacroItemBtn@@UAE@XZ ; SettingMacroItemBtn::~SettingMacroItemBtn
  0000b	f6 45 08 01	 test	 BYTE PTR ___flags$[ebp], 1
  0000f	74 07		 je	 SHORT $LN1@scalar@7
  00011	56		 push	 esi
  00012	e8 00 00 00 00	 call	 ??3@YAXPAX@Z		; operator delete
  00017	59		 pop	 ecx
$LN1@scalar@7:
  00018	8b c6		 mov	 eax, esi
  0001a	5e		 pop	 esi
  0001b	5d		 pop	 ebp
  0001c	c2 04 00	 ret	 4
??_GSettingMacroItemBtn@@UAEPAXI@Z ENDP			; SettingMacroItemBtn::`scalar deleting destructor'
; Function compile flags: /Ogsp
_TEXT	ENDS
;	COMDAT ??_GSettingMacroItemWnd@@UAEPAXI@Z
_TEXT	SEGMENT
___flags$ = 8						; size = 4
??_GSettingMacroItemWnd@@UAEPAXI@Z PROC			; SettingMacroItemWnd::`scalar deleting destructor', COMDAT
; _this$ = ecx
  00000	55		 push	 ebp
  00001	8b ec		 mov	 ebp, esp
  00003	56		 push	 esi
  00004	8b f1		 mov	 esi, ecx
  00006	e8 00 00 00 00	 call	 ??1SettingMacroItemWnd@@UAE@XZ ; SettingMacroItemWnd::~SettingMacroItemWnd
  0000b	f6 45 08 01	 test	 BYTE PTR ___flags$[ebp], 1
  0000f	74 07		 je	 SHORT $LN1@scalar@8
  00011	56		 push	 esi
  00012	e8 00 00 00 00	 call	 ??3@YAXPAX@Z		; operator delete
  00017	59		 pop	 ecx
$LN1@scalar@8:
  00018	8b c6		 mov	 eax, esi
  0001a	5e		 pop	 esi
  0001b	5d		 pop	 ebp
  0001c	c2 04 00	 ret	 4
??_GSettingMacroItemWnd@@UAEPAXI@Z ENDP			; SettingMacroItemWnd::`scalar deleting destructor'
; Function compile flags: /Ogsp
_TEXT	ENDS
;	COMDAT ?iwm_command@SettingMacroItemWnd@@MAEXPAVioWnd@@HK@Z
_TEXT	SEGMENT
_pWnd$ = 8						; size = 4
_cmd$ = 12						; size = 4
_param$ = 16						; size = 4
?iwm_command@SettingMacroItemWnd@@MAEXPAVioWnd@@HK@Z PROC ; SettingMacroItemWnd::iwm_command, COMDAT
; _this$ = ecx

; 1824 : {

  00000	55		 push	 ebp
  00001	8b ec		 mov	 ebp, esp
  00003	56		 push	 esi
  00004	8b f1		 mov	 esi, ecx

; 1825 : 	DWORD dwID = pWnd->GetID();

  00006	8b 4d 08	 mov	 ecx, DWORD PTR _pWnd$[ebp]
  00009	ff 15 00 00 00
	00		 call	 DWORD PTR __imp_?GetID@ioWnd@@QBEKXZ

; 1826 : 
; 1827 : 	switch( dwID )

  0000f	48		 dec	 eax
  00010	74 54		 je	 SHORT $LN11@iwm_comman@3
  00012	48		 dec	 eax
  00013	0f 85 83 00 00
	00		 jne	 $LN9@iwm_comman@3

; 1835 : 		}
; 1836 : 		break;
; 1837 : 	case ID_MACRO_EDIT:
; 1838 : 		if( cmd == IOED_INPUT )

  00019	83 7d 0c 22	 cmp	 DWORD PTR _cmd$[ebp], 34 ; 00000022H
  0001d	75 26		 jne	 SHORT $LN7@iwm_comman@3

; 1839 : 		{
; 1840 : 			if( param == 0 || param == 1) // enter , tab

  0001f	39 45 10	 cmp	 DWORD PTR _param$[ebp], eax
  00022	74 06		 je	 SHORT $LN5@iwm_comman@3
  00024	83 7d 10 01	 cmp	 DWORD PTR _param$[ebp], 1
  00028	75 72		 jne	 SHORT $LN9@iwm_comman@3
$LN5@iwm_comman@3:

; 1841 : 			{
; 1842 : 				if(GetParent())

  0002a	8b ce		 mov	 ecx, esi
  0002c	ff 15 00 00 00
	00		 call	 DWORD PTR __imp_?GetParent@ioWnd@@QAEPAV1@XZ
  00032	85 c0		 test	 eax, eax
  00034	74 66		 je	 SHORT $LN9@iwm_comman@3

; 1843 : 					GetParent()->iwm_command( this, cmd, param );

  00036	8b ce		 mov	 ecx, esi
  00038	ff 15 00 00 00
	00		 call	 DWORD PTR __imp_?GetParent@ioWnd@@QAEPAV1@XZ
  0003e	ff 75 10	 push	 DWORD PTR _param$[ebp]
  00041	6a 22		 push	 34			; 00000022H

; 1844 : 			}
; 1845 : 		}

  00043	eb 4c		 jmp	 SHORT $LN16@iwm_comman@3
$LN7@iwm_comman@3:

; 1846 : 		else if ( cmd == IOBN_BTNDOWN )

  00045	83 7d 0c 10	 cmp	 DWORD PTR _cmd$[ebp], 16 ; 00000010H
  00049	75 51		 jne	 SHORT $LN9@iwm_comman@3

; 1847 : 		{
; 1848 : 			if(GetParent())

  0004b	8b ce		 mov	 ecx, esi
  0004d	ff 15 00 00 00
	00		 call	 DWORD PTR __imp_?GetParent@ioWnd@@QAEPAV1@XZ
  00053	85 c0		 test	 eax, eax
  00055	74 45		 je	 SHORT $LN9@iwm_comman@3

; 1849 : 				GetParent()->iwm_command( this, IOBN_BTNUP, ID_PARAM_MACRO_BTNUP );

  00057	8b ce		 mov	 ecx, esi
  00059	ff 15 00 00 00
	00		 call	 DWORD PTR __imp_?GetParent@ioWnd@@QAEPAV1@XZ
  0005f	68 10 27 00 00	 push	 10000			; 00002710H

; 1850 : 		}
; 1851 : 		break;

  00064	eb 29		 jmp	 SHORT $LN17@iwm_comman@3
$LN11@iwm_comman@3:

; 1828 : 	{
; 1829 : 	case ID_MACRO_TYPE_BTN:
; 1830 : 		if( cmd == IOBN_BTNUP )

  00066	83 7d 0c 11	 cmp	 DWORD PTR _cmd$[ebp], 17 ; 00000011H
  0006a	75 30		 jne	 SHORT $LN9@iwm_comman@3

; 1831 : 		{
; 1832 : 			ChangeTypeText( pWnd );

  0006c	ff 75 08	 push	 DWORD PTR _pWnd$[ebp]
  0006f	8b ce		 mov	 ecx, esi
  00071	e8 00 00 00 00	 call	 ?ChangeTypeText@SettingMacroItemWnd@@IAEXPAVioWnd@@@Z ; SettingMacroItemWnd::ChangeTypeText

; 1833 : 			if(GetParent())

  00076	8b ce		 mov	 ecx, esi
  00078	ff 15 00 00 00
	00		 call	 DWORD PTR __imp_?GetParent@ioWnd@@QAEPAV1@XZ
  0007e	85 c0		 test	 eax, eax
  00080	74 1a		 je	 SHORT $LN9@iwm_comman@3

; 1834 : 				GetParent()->iwm_command( this, cmd, ID_PARAM_MACRO_TYP_BTNUP );

  00082	8b ce		 mov	 ecx, esi
  00084	ff 15 00 00 00
	00		 call	 DWORD PTR __imp_?GetParent@ioWnd@@QAEPAV1@XZ
  0008a	68 11 27 00 00	 push	 10001			; 00002711H
$LN17@iwm_comman@3:
  0008f	6a 11		 push	 17			; 00000011H
$LN16@iwm_comman@3:
  00091	8b 10		 mov	 edx, DWORD PTR [eax]
  00093	56		 push	 esi
  00094	8b c8		 mov	 ecx, eax
  00096	ff 92 8c 00 00
	00		 call	 DWORD PTR [edx+140]
$LN9@iwm_comman@3:
  0009c	5e		 pop	 esi

; 1852 : 	}
; 1853 : }

  0009d	5d		 pop	 ebp
  0009e	c2 0c 00	 ret	 12			; 0000000cH
?iwm_command@SettingMacroItemWnd@@MAEXPAVioWnd@@HK@Z ENDP ; SettingMacroItemWnd::iwm_command
; Function compile flags: /Ogsp
_TEXT	ENDS
;	COMDAT ??_GGameOptionSettingGameTab@@UAEPAXI@Z
_TEXT	SEGMENT
___flags$ = 8						; size = 4
??_GGameOptionSettingGameTab@@UAEPAXI@Z PROC		; GameOptionSettingGameTab::`scalar deleting destructor', COMDAT
; _this$ = ecx
  00000	55		 push	 ebp
  00001	8b ec		 mov	 ebp, esp
  00003	56		 push	 esi
  00004	8b f1		 mov	 esi, ecx
  00006	e8 00 00 00 00	 call	 ??1GameOptionSettingGameTab@@UAE@XZ ; GameOptionSettingGameTab::~GameOptionSettingGameTab
  0000b	f6 45 08 01	 test	 BYTE PTR ___flags$[ebp], 1
  0000f	74 07		 je	 SHORT $LN1@scalar@9
  00011	56		 push	 esi
  00012	e8 00 00 00 00	 call	 ??3@YAXPAX@Z		; operator delete
  00017	59		 pop	 ecx
$LN1@scalar@9:
  00018	8b c6		 mov	 eax, esi
  0001a	5e		 pop	 esi
  0001b	5d		 pop	 ebp
  0001c	c2 04 00	 ret	 4
??_GGameOptionSettingGameTab@@UAEPAXI@Z ENDP		; GameOptionSettingGameTab::`scalar deleting destructor'
_TEXT	ENDS
PUBLIC	?Init@GameOptionSettingGameTab@@QAEXXZ		; GameOptionSettingGameTab::Init
; Function compile flags: /Ogsp
;	COMDAT ?Init@GameOptionSettingGameTab@@QAEXXZ
_TEXT	SEGMENT
?Init@GameOptionSettingGameTab@@QAEXXZ PROC		; GameOptionSettingGameTab::Init, COMDAT
; _this$ = ecx

; 2198 : 	m_DefaultSpec   = Setting::GetSpec();

  00000	a1 00 00 00 00	 mov	 eax, DWORD PTR ?m_DefaultSpec@Setting@@1W4Spec@1@A ; Setting::m_DefaultSpec
  00005	56		 push	 esi
  00006	8b f1		 mov	 esi, ecx

; 2199 : 	m_CurrentOption = Setting::GetSettingOption();

  00008	68 00 00 00 00	 push	 OFFSET ?m_Option@Setting@@1USettingOption@@A ; Setting::m_Option
  0000d	8d 8e 64 01 00
	00		 lea	 ecx, DWORD PTR [esi+356]
  00013	89 86 60 01 00
	00		 mov	 DWORD PTR [esi+352], eax
  00019	e8 00 00 00 00	 call	 ??4SettingOption@@QAEAAU0@ABU0@@Z

; 2200 : 	g_KeyManager.GetCurrent( m_KeyInfo );

  0001e	81 c6 10 02 00
	00		 add	 esi, 528		; 00000210H
  00024	56		 push	 esi
  00025	e8 00 00 00 00	 call	 ?GetSingleton@ioKeyManager@@SAAAV1@XZ ; ioKeyManager::GetSingleton
  0002a	8b c8		 mov	 ecx, eax
  0002c	e8 00 00 00 00	 call	 ?GetCurrent@ioKeyManager@@QAEXAAVCKeyInfo@@@Z ; ioKeyManager::GetCurrent
  00031	5e		 pop	 esi

; 2201 : }

  00032	c3		 ret	 0
?Init@GameOptionSettingGameTab@@QAEXXZ ENDP		; GameOptionSettingGameTab::Init
_TEXT	ENDS
PUBLIC	?SetMacroTextInfo@GameOptionSettingGameTab@@IAEXK@Z ; GameOptionSettingGameTab::SetMacroTextInfo
EXTRN	?SetMacroTextInfo@CKeyInfo@@QAE_NW4KeyTypeArray@1@ABUtagMecroTextInfo@1@@Z:PROC ; CKeyInfo::SetMacroTextInfo
EXTRN	__imp_?IsEmpty@ioHashString@@QBE_NXZ:PROC
;	COMDAT xdata$x
xdata$x	SEGMENT
__unwindtable$?SetMacroTextInfo@GameOptionSettingGameTab@@IAEXK@Z DD 0ffffffffH
	DD	FLAT:__unwindfunclet$?SetMacroTextInfo@GameOptionSettingGameTab@@IAEXK@Z$0
__ehfuncinfo$?SetMacroTextInfo@GameOptionSettingGameTab@@IAEXK@Z DD 019930522H
	DD	01H
	DD	FLAT:__unwindtable$?SetMacroTextInfo@GameOptionSettingGameTab@@IAEXK@Z
	DD	2 DUP(00H)
	DD	2 DUP(00H)
	DD	00H
	DD	01H
; Function compile flags: /Ogsp
xdata$x	ENDS
;	COMDAT ?SetMacroTextInfo@GameOptionSettingGameTab@@IAEXK@Z
_TEXT	SEGMENT
_kInfo$546918 = -32					; size = 20
__$EHRec$ = -12						; size = 12
_dwID$ = 8						; size = 4
?SetMacroTextInfo@GameOptionSettingGameTab@@IAEXK@Z PROC ; GameOptionSettingGameTab::SetMacroTextInfo, COMDAT
; _this$ = ecx

; 2288 : {

  00000	6a 14		 push	 20			; 00000014H
  00002	b8 00 00 00 00	 mov	 eax, __ehhandler$?SetMacroTextInfo@GameOptionSettingGameTab@@IAEXK@Z
  00007	e8 00 00 00 00	 call	 __EH_prolog3
  0000c	8b f1		 mov	 esi, ecx

; 2289 : 	SettingMacroItemWnd *pItem = dynamic_cast<SettingMacroItemWnd*> ( FindChildWnd( dwID ) );

  0000e	8b 7d 08	 mov	 edi, DWORD PTR _dwID$[ebp]
  00011	6a 00		 push	 0
  00013	68 00 00 00 00	 push	 OFFSET ??_R0?AVSettingMacroItemWnd@@@8
  00018	68 00 00 00 00	 push	 OFFSET ??_R0?AVioWnd@@@8
  0001d	6a 00		 push	 0
  0001f	57		 push	 edi
  00020	ff 15 00 00 00
	00		 call	 DWORD PTR __imp_?FindChildWnd@ioWnd@@QAEPAV1@K@Z
  00026	50		 push	 eax
  00027	e8 00 00 00 00	 call	 ___RTDynamicCast
  0002c	8b d8		 mov	 ebx, eax
  0002e	83 c4 14	 add	 esp, 20			; 00000014H

; 2290 : 	if( pItem )

  00031	85 db		 test	 ebx, ebx
  00033	74 47		 je	 SHORT $LN2@SetMacroTe

; 2291 : 	{
; 2292 : 		CKeyInfo::MecroTextInfo kInfo;

  00035	8d 4d e0	 lea	 ecx, DWORD PTR _kInfo$546918[ebp]
  00038	e8 00 00 00 00	 call	 ??0tagMecroTextInfo@CKeyInfo@@QAE@XZ ; CKeyInfo::tagMecroTextInfo::tagMecroTextInfo
  0003d	83 65 fc 00	 and	 DWORD PTR __$EHRec$[ebp+8], 0

; 2293 : 		pItem->GetMecroTextInfo( kInfo );

  00041	8d 45 e0	 lea	 eax, DWORD PTR _kInfo$546918[ebp]
  00044	50		 push	 eax
  00045	8b cb		 mov	 ecx, ebx
  00047	e8 00 00 00 00	 call	 ?GetMecroTextInfo@SettingMacroItemWnd@@QAEXAAUtagMecroTextInfo@CKeyInfo@@@Z ; SettingMacroItemWnd::GetMecroTextInfo

; 2294 : 		if( !kInfo.m_szText.IsEmpty() )

  0004c	8d 4d e4	 lea	 ecx, DWORD PTR _kInfo$546918[ebp+4]
  0004f	ff 15 00 00 00
	00		 call	 DWORD PTR __imp_?IsEmpty@ioHashString@@QBE_NXZ
  00055	84 c0		 test	 al, al
  00057	75 16		 jne	 SHORT $LN1@SetMacroTe

; 2295 : 		{
; 2296 : 			CKeyInfo::KeyTypeArray eKeyType = (CKeyInfo::KeyTypeArray)( ( dwID - ID_SETTING_MACRO_ITEM_WND1 ) + CKeyInfo::KTA_MACRO1 );
; 2297 : 			m_KeyInfo.SetMacroTextInfo( eKeyType, kInfo );

  00059	8d 4d e0	 lea	 ecx, DWORD PTR _kInfo$546918[ebp]
  0005c	51		 push	 ecx
  0005d	8d 87 06 ff ff
	ff		 lea	 eax, DWORD PTR [edi-250]
  00063	50		 push	 eax
  00064	8d 8e 10 02 00
	00		 lea	 ecx, DWORD PTR [esi+528]
  0006a	e8 00 00 00 00	 call	 ?SetMacroTextInfo@CKeyInfo@@QAE_NW4KeyTypeArray@1@ABUtagMecroTextInfo@1@@Z ; CKeyInfo::SetMacroTextInfo
$LN1@SetMacroTe:

; 2298 : 		}
; 2299 : 	}

  0006f	83 4d fc ff	 or	 DWORD PTR __$EHRec$[ebp+8], -1
  00073	8d 4d e4	 lea	 ecx, DWORD PTR _kInfo$546918[ebp+4]
  00076	ff 15 00 00 00
	00		 call	 DWORD PTR __imp_??1ioHashString@@QAE@XZ
$LN2@SetMacroTe:

; 2300 : }

  0007c	e8 00 00 00 00	 call	 __EH_epilog3
  00081	c2 04 00	 ret	 4
_TEXT	ENDS
;	COMDAT text$x
text$x	SEGMENT
__unwindfunclet$?SetMacroTextInfo@GameOptionSettingGameTab@@IAEXK@Z$0:
  00000	8d 4d e0	 lea	 ecx, DWORD PTR _kInfo$546918[ebp]
  00003	e9 00 00 00 00	 jmp	 ??1tagMecroTextInfo@CKeyInfo@@QAE@XZ
__ehhandler$?SetMacroTextInfo@GameOptionSettingGameTab@@IAEXK@Z:
  00008	8b 54 24 08	 mov	 edx, DWORD PTR [esp+8]
  0000c	8d 42 0c	 lea	 eax, DWORD PTR [edx+12]
  0000f	8b 4a dc	 mov	 ecx, DWORD PTR [edx-36]
  00012	33 c8		 xor	 ecx, eax
  00014	e8 00 00 00 00	 call	 @__security_check_cookie@4
  00019	b8 00 00 00 00	 mov	 eax, OFFSET __ehfuncinfo$?SetMacroTextInfo@GameOptionSettingGameTab@@IAEXK@Z
  0001e	e9 00 00 00 00	 jmp	 ___CxxFrameHandler3
text$x	ENDS
?SetMacroTextInfo@GameOptionSettingGameTab@@IAEXK@Z ENDP ; GameOptionSettingGameTab::SetMacroTextInfo
; Function compile flags: /Ogsp
;	COMDAT ??_GGameOptionMovieScreenShotTab@@UAEPAXI@Z
_TEXT	SEGMENT
___flags$ = 8						; size = 4
??_GGameOptionMovieScreenShotTab@@UAEPAXI@Z PROC	; GameOptionMovieScreenShotTab::`scalar deleting destructor', COMDAT
; _this$ = ecx
  00000	55		 push	 ebp
  00001	8b ec		 mov	 ebp, esp
  00003	56		 push	 esi
  00004	8b f1		 mov	 esi, ecx
  00006	e8 00 00 00 00	 call	 ??1GameOptionMovieScreenShotTab@@UAE@XZ ; GameOptionMovieScreenShotTab::~GameOptionMovieScreenShotTab
  0000b	f6 45 08 01	 test	 BYTE PTR ___flags$[ebp], 1
  0000f	74 07		 je	 SHORT $LN1@scalar@10
  00011	56		 push	 esi
  00012	e8 00 00 00 00	 call	 ??3@YAXPAX@Z		; operator delete
  00017	59		 pop	 ecx
$LN1@scalar@10:
  00018	8b c6		 mov	 eax, esi
  0001a	5e		 pop	 esi
  0001b	5d		 pop	 ebp
  0001c	c2 04 00	 ret	 4
??_GGameOptionMovieScreenShotTab@@UAEPAXI@Z ENDP	; GameOptionMovieScreenShotTab::`scalar deleting destructor'
_TEXT	ENDS
PUBLIC	??_C@_0DN@KDAPFLCA@GameOptionMovieScreenShotTab?3?3Ge@ ; `string'
PUBLIC	__$ArrayPad$
PUBLIC	?GetDefaultScreenShotFolderName@GameOptionMovieScreenShotTab@@QAEXAAVioHashString@@@Z ; GameOptionMovieScreenShotTab::GetDefaultScreenShotFolderName
EXTRN	__imp_?SafeSprintf@@YAXPADHPBD1@Z:PROC
EXTRN	__imp__SHGetSpecialFolderPathA@16:PROC
EXTRN	?GetSingleton@ioApplication@@SAAAV1@XZ:PROC	; ioApplication::GetSingleton
EXTRN	___security_cookie:DWORD
;	COMDAT ??_C@_0DN@KDAPFLCA@GameOptionMovieScreenShotTab?3?3Ge@
; File d:\lost saga for developer\youtube\tutorial\source\src\lsclient\ioapplication.h
CONST	SEGMENT
??_C@_0DN@KDAPFLCA@GameOptionMovieScreenShotTab?3?3Ge@ DB 'GameOptionMovi'
	DB	'eScreenShotTab::GetDefaultScreenShotFolderName', 00H ; `string'
; Function compile flags: /Ogsp
; File d:\lost saga for developer\youtube\tutorial\source\src\lsclient\gui\gameoptionsettingtab.cpp
CONST	ENDS
;	COMDAT ?GetDefaultScreenShotFolderName@GameOptionMovieScreenShotTab@@QAEXAAVioHashString@@@Z
_TEXT	SEGMENT
_szDirectory$ = -524					; size = 260
_szDesktopPath$ = -264					; size = 260
__$ArrayPad$ = -4					; size = 4
_rFolderName$ = 8					; size = 4
?GetDefaultScreenShotFolderName@GameOptionMovieScreenShotTab@@QAEXAAVioHashString@@@Z PROC ; GameOptionMovieScreenShotTab::GetDefaultScreenShotFolderName, COMDAT
; _this$ = ecx

; 2807 : {

  00000	55		 push	 ebp
  00001	8b ec		 mov	 ebp, esp
  00003	81 ec 0c 02 00
	00		 sub	 esp, 524		; 0000020cH
  00009	a1 00 00 00 00	 mov	 eax, DWORD PTR ___security_cookie
  0000e	33 c5		 xor	 eax, ebp
  00010	89 45 fc	 mov	 DWORD PTR __$ArrayPad$[ebp], eax
  00013	56		 push	 esi
  00014	8b 75 08	 mov	 esi, DWORD PTR _rFolderName$[ebp]

; 2808 : 	char szDesktopPath[MAX_PATH];
; 2809 : 	SHGetSpecialFolderPath( g_App.GetHWnd(), szDesktopPath, CSIDL_DESKTOP, FALSE );

  00017	e8 00 00 00 00	 call	 ?GetSingleton@ioApplication@@SAAAV1@XZ ; ioApplication::GetSingleton
  0001c	6a 00		 push	 0
  0001e	6a 00		 push	 0
  00020	8d 8d f8 fe ff
	ff		 lea	 ecx, DWORD PTR _szDesktopPath$[ebp]
  00026	51		 push	 ecx
  00027	ff 70 08	 push	 DWORD PTR [eax+8]
  0002a	ff 15 00 00 00
	00		 call	 DWORD PTR __imp__SHGetSpecialFolderPathA@16

; 2810 : 
; 2811 : 	char szDirectory[MAX_PATH];
; 2812 : 	SafeSprintf( szDirectory, sizeof( szDirectory ), STR(1), szDesktopPath );

  00030	8d 85 f8 fe ff
	ff		 lea	 eax, DWORD PTR _szDesktopPath$[ebp]
  00036	50		 push	 eax
  00037	6a 00		 push	 0
  00039	6a 01		 push	 1
  0003b	68 00 00 00 00	 push	 OFFSET ??_C@_00CNPNBAHC@?$AA@
  00040	68 00 00 00 00	 push	 OFFSET ??_C@_0DN@KDAPFLCA@GameOptionMovieScreenShotTab?3?3Ge@
  00045	ff 15 00 00 00
	00		 call	 DWORD PTR __imp_?GetSingleton@ioStringManager@@SAAAV1@XZ
  0004b	8b c8		 mov	 ecx, eax
  0004d	ff 15 00 00 00
	00		 call	 DWORD PTR __imp_?GetString@ioStringManager@@QAEPADPBD0HW4FileNamePrefix@1@@Z
  00053	50		 push	 eax
  00054	8d 85 f4 fd ff
	ff		 lea	 eax, DWORD PTR _szDirectory$[ebp]
  0005a	68 04 01 00 00	 push	 260			; 00000104H
  0005f	50		 push	 eax
  00060	ff 15 00 00 00
	00		 call	 DWORD PTR __imp_?SafeSprintf@@YAXPADHPBD1@Z
  00066	83 c4 10	 add	 esp, 16			; 00000010H

; 2813 : 	rFolderName = szDirectory;

  00069	8d 85 f4 fd ff
	ff		 lea	 eax, DWORD PTR _szDirectory$[ebp]
  0006f	50		 push	 eax
  00070	8b ce		 mov	 ecx, esi
  00072	ff 15 00 00 00
	00		 call	 DWORD PTR __imp_??4ioHashString@@QAEAAV0@PBD@Z

; 2814 : }

  00078	8b 4d fc	 mov	 ecx, DWORD PTR __$ArrayPad$[ebp]
  0007b	33 cd		 xor	 ecx, ebp
  0007d	5e		 pop	 esi
  0007e	e8 00 00 00 00	 call	 @__security_check_cookie@4
  00083	c9		 leave
  00084	c2 04 00	 ret	 4
?GetDefaultScreenShotFolderName@GameOptionMovieScreenShotTab@@QAEXAAVioHashString@@@Z ENDP ; GameOptionMovieScreenShotTab::GetDefaultScreenShotFolderName
_TEXT	ENDS
PUBLIC	??_C@_0CM@IECJAHID@GameOptionMovieScreenShotTab?3?3Up@ ; `string'
PUBLIC	??_C@_02DLFOHOMG@?3?1?$AA@			; `string'
PUBLIC	??_C@_02DPEMFEPD@?3?2?$AA@			; `string'
PUBLIC	?UpdateEditBtn@GameOptionMovieScreenShotTab@@IAEX_N@Z ; GameOptionMovieScreenShotTab::UpdateEditBtn
EXTRN	__imp__strstr:PROC
;	COMDAT ??_C@_0CM@IECJAHID@GameOptionMovieScreenShotTab?3?3Up@
CONST	SEGMENT
??_C@_0CM@IECJAHID@GameOptionMovieScreenShotTab?3?3Up@ DB 'GameOptionMovi'
	DB	'eScreenShotTab::UpdateEditBtn', 00H		; `string'
CONST	ENDS
;	COMDAT ??_C@_02DLFOHOMG@?3?1?$AA@
CONST	SEGMENT
??_C@_02DLFOHOMG@?3?1?$AA@ DB ':/', 00H			; `string'
CONST	ENDS
;	COMDAT ??_C@_02DPEMFEPD@?3?2?$AA@
CONST	SEGMENT
??_C@_02DPEMFEPD@?3?2?$AA@ DB ':\', 00H			; `string'
CONST	ENDS
;	COMDAT xdata$x
xdata$x	SEGMENT
__unwindtable$?UpdateEditBtn@GameOptionMovieScreenShotTab@@IAEX_N@Z DD 0ffffffffH
	DD	FLAT:__unwindfunclet$?UpdateEditBtn@GameOptionMovieScreenShotTab@@IAEX_N@Z$0
	DD	0ffffffffH
	DD	FLAT:__unwindfunclet$?UpdateEditBtn@GameOptionMovieScreenShotTab@@IAEX_N@Z$1
__ehfuncinfo$?UpdateEditBtn@GameOptionMovieScreenShotTab@@IAEX_N@Z DD 019930522H
	DD	02H
	DD	FLAT:__unwindtable$?UpdateEditBtn@GameOptionMovieScreenShotTab@@IAEX_N@Z
	DD	2 DUP(00H)
	DD	2 DUP(00H)
	DD	00H
	DD	01H
; Function compile flags: /Ogsp
xdata$x	ENDS
;	COMDAT ?UpdateEditBtn@GameOptionMovieScreenShotTab@@IAEX_N@Z
_TEXT	SEGMENT
_szText$547189 = -52					; size = 16
_szText$547182 = -36					; size = 16
_pBtn$ = -20						; size = 4
_this$ = -16						; size = 4
__$EHRec$ = -12						; size = 12
_pTitle$547181 = 8					; size = 4
_bShowBtn$ = 8						; size = 1
?UpdateEditBtn@GameOptionMovieScreenShotTab@@IAEX_N@Z PROC ; GameOptionMovieScreenShotTab::UpdateEditBtn, COMDAT
; _this$ = ecx

; 2817 : {

  00000	6a 28		 push	 40			; 00000028H
  00002	b8 00 00 00 00	 mov	 eax, __ehhandler$?UpdateEditBtn@GameOptionMovieScreenShotTab@@IAEX_N@Z
  00007	e8 00 00 00 00	 call	 __EH_prolog3
  0000c	89 4d f0	 mov	 DWORD PTR _this$[ebp], ecx

; 2818 : 	ioButton *pBtn = dynamic_cast<ioButton*> ( FindChildWnd( ID_SCREENSHOT_PATH_BTN ) );

  0000f	8b 35 00 00 00
	00		 mov	 esi, DWORD PTR __imp_?FindChildWnd@ioWnd@@QAEPAV1@K@Z
  00015	33 ff		 xor	 edi, edi
  00017	57		 push	 edi
  00018	68 00 00 00 00	 push	 OFFSET ??_R0?AVioButton@@@8
  0001d	bb 00 00 00 00	 mov	 ebx, OFFSET ??_R0?AVioWnd@@@8
  00022	53		 push	 ebx
  00023	57		 push	 edi
  00024	6a 78		 push	 120			; 00000078H
  00026	ff d6		 call	 esi
  00028	50		 push	 eax
  00029	e8 00 00 00 00	 call	 ___RTDynamicCast
  0002e	83 c4 14	 add	 esp, 20			; 00000014H
  00031	89 45 ec	 mov	 DWORD PTR _pBtn$[ebp], eax

; 2819 : 	if( !pBtn )

  00034	3b c7		 cmp	 eax, edi
  00036	0f 84 9e 01 00
	00		 je	 $LN2@UpdateEdit

; 2820 : 		return;
; 2821 : 
; 2822 : 	ioEdit *pEdit = dynamic_cast<ioEdit*> ( FindChildWnd( ID_SCREENSHOT_PATH_EDIT ) );

  0003c	8b 4d f0	 mov	 ecx, DWORD PTR _this$[ebp]
  0003f	57		 push	 edi
  00040	68 00 00 00 00	 push	 OFFSET ??_R0?AVioEdit@@@8
  00045	53		 push	 ebx
  00046	57		 push	 edi
  00047	6a 79		 push	 121			; 00000079H
  00049	ff d6		 call	 esi
  0004b	50		 push	 eax
  0004c	e8 00 00 00 00	 call	 ___RTDynamicCast
  00051	8b d8		 mov	 ebx, eax
  00053	83 c4 14	 add	 esp, 20			; 00000014H

; 2823 : 	if( !pEdit )

  00056	3b df		 cmp	 ebx, edi
  00058	0f 84 7c 01 00
	00		 je	 $LN2@UpdateEdit

; 2824 : 		return;
; 2825 : 
; 2826 : 	if( bShowBtn )

  0005e	80 7d 08 00	 cmp	 BYTE PTR _bShowBtn$[ebp], 0
  00062	0f 84 f0 00 00
	00		 je	 $LN7@UpdateEdit

; 2827 : 	{	
; 2828 : 		pEdit->KillKeyFocus();

  00068	8b 03		 mov	 eax, DWORD PTR [ebx]
  0006a	8b cb		 mov	 ecx, ebx
  0006c	ff 90 34 01 00
	00		 call	 DWORD PTR [eax+308]

; 2829 : 		ioUITitle *pTitle = pBtn->GetTitle();

  00072	8b 4d ec	 mov	 ecx, DWORD PTR _pBtn$[ebp]
  00075	ff 15 00 00 00
	00		 call	 DWORD PTR __imp_?GetTitle@ioWnd@@QBEPAVioUITitle@@XZ

; 2830 : 
; 2831 : 		ioHashString szText;

  0007b	8d 4d dc	 lea	 ecx, DWORD PTR _szText$547182[ebp]
  0007e	89 45 08	 mov	 DWORD PTR _pTitle$547181[ebp], eax
  00081	ff 15 00 00 00
	00		 call	 DWORD PTR __imp_??0ioHashString@@QAE@XZ
  00087	89 7d fc	 mov	 DWORD PTR __$EHRec$[ebp+8], edi

; 2832 : 		if(  strcmp( pEdit->GetText(), "") == 0 || 
; 2833 : 			( strstr( pEdit->GetText(), ":\\") == NULL && strstr( pEdit->GetText(), ":/") == NULL ) )

  0008a	8b cb		 mov	 ecx, ebx
  0008c	bf 00 00 00 00	 mov	 edi, OFFSET ??_C@_00CNPNBAHC@?$AA@
  00091	ff 15 00 00 00
	00		 call	 DWORD PTR __imp_?GetText@ioEdit@@QBEPBDXZ
  00097	33 c9		 xor	 ecx, ecx
  00099	8b f0		 mov	 esi, eax
  0009b	41		 inc	 ecx
  0009c	33 c0		 xor	 eax, eax
  0009e	f3 a6		 repe cmpsb
  000a0	74 42		 je	 SHORT $LN5@UpdateEdit
  000a2	8b 35 00 00 00
	00		 mov	 esi, DWORD PTR __imp_?GetText@ioEdit@@QBEPBDXZ
  000a8	68 00 00 00 00	 push	 OFFSET ??_C@_02DPEMFEPD@?3?2?$AA@
  000ad	8b cb		 mov	 ecx, ebx
  000af	ff d6		 call	 esi
  000b1	8b 3d 00 00 00
	00		 mov	 edi, DWORD PTR __imp__strstr
  000b7	50		 push	 eax
  000b8	ff d7		 call	 edi
  000ba	59		 pop	 ecx
  000bb	59		 pop	 ecx
  000bc	85 c0		 test	 eax, eax
  000be	75 12		 jne	 SHORT $LN6@UpdateEdit
  000c0	68 00 00 00 00	 push	 OFFSET ??_C@_02DLFOHOMG@?3?1?$AA@
  000c5	8b cb		 mov	 ecx, ebx
  000c7	ff d6		 call	 esi
  000c9	50		 push	 eax
  000ca	ff d7		 call	 edi
  000cc	59		 pop	 ecx
  000cd	59		 pop	 ecx
  000ce	85 c0		 test	 eax, eax
  000d0	74 12		 je	 SHORT $LN5@UpdateEdit
$LN6@UpdateEdit:

; 2837 : 		}
; 2838 : 		else
; 2839 : 			szText = pEdit->GetText();

  000d2	8b cb		 mov	 ecx, ebx
  000d4	ff d6		 call	 esi
  000d6	50		 push	 eax
  000d7	8d 4d dc	 lea	 ecx, DWORD PTR _szText$547182[ebp]
  000da	ff 15 00 00 00
	00		 call	 DWORD PTR __imp_??4ioHashString@@QAEAAV0@PBD@Z
  000e0	33 f6		 xor	 esi, esi
  000e2	eb 3a		 jmp	 SHORT $LN4@UpdateEdit
$LN5@UpdateEdit:

; 2834 : 		{
; 2835 : 			GetDefaultScreenShotFolderName( szText );

  000e4	8b 4d f0	 mov	 ecx, DWORD PTR _this$[ebp]
  000e7	8d 45 dc	 lea	 eax, DWORD PTR _szText$547182[ebp]
  000ea	50		 push	 eax
  000eb	e8 00 00 00 00	 call	 ?GetDefaultScreenShotFolderName@GameOptionMovieScreenShotTab@@QAEXAAVioHashString@@@Z ; GameOptionMovieScreenShotTab::GetDefaultScreenShotFolderName

; 2836 : 			g_GUIMgr.SetMsgBox( MB_OK, NULL, STR(1) );

  000f0	33 f6		 xor	 esi, esi
  000f2	56		 push	 esi
  000f3	6a 01		 push	 1
  000f5	68 00 00 00 00	 push	 OFFSET ??_C@_00CNPNBAHC@?$AA@
  000fa	68 00 00 00 00	 push	 OFFSET ??_C@_0CM@IECJAHID@GameOptionMovieScreenShotTab?3?3Up@
  000ff	ff 15 00 00 00
	00		 call	 DWORD PTR __imp_?GetSingleton@ioStringManager@@SAAAV1@XZ
  00105	8b c8		 mov	 ecx, eax
  00107	ff 15 00 00 00
	00		 call	 DWORD PTR __imp_?GetString@ioStringManager@@QAEPADPBD0HW4FileNamePrefix@1@@Z
  0010d	50		 push	 eax
  0010e	56		 push	 esi
  0010f	56		 push	 esi
  00110	e8 00 00 00 00	 call	 ?GetSingleton@ioSP2GUIManager@@SAAAV1@XZ ; ioSP2GUIManager::GetSingleton
  00115	50		 push	 eax
  00116	e8 00 00 00 00	 call	 ?SetMsgBox@ioSP2GUIManager@@QAAXHPAVioWnd@@PBDZZ ; ioSP2GUIManager::SetMsgBox
  0011b	83 c4 10	 add	 esp, 16			; 00000010H
$LN4@UpdateEdit:

; 2840 : 
; 2841 : 
; 2842 : 		if( pTitle )

  0011e	39 75 08	 cmp	 DWORD PTR _pTitle$547181[ebp], esi
  00121	74 18		 je	 SHORT $LN3@UpdateEdit

; 2843 : 			pTitle->SetText( szText.c_str(), "");

  00123	68 00 00 00 00	 push	 OFFSET ??_C@_00CNPNBAHC@?$AA@
  00128	8d 4d dc	 lea	 ecx, DWORD PTR _szText$547182[ebp]
  0012b	ff 15 00 00 00
	00		 call	 DWORD PTR __imp_?c_str@ioHashString@@QBEPBDXZ
  00131	8b 4d 08	 mov	 ecx, DWORD PTR _pTitle$547181[ebp]
  00134	50		 push	 eax
  00135	ff 15 00 00 00
	00		 call	 DWORD PTR __imp_?SetText@ioUITitle@@QAEXPBD0@Z
$LN3@UpdateEdit:

; 2844 : 
; 2845 : 		ShowChildWnd( ID_SCREENSHOT_PATH_BTN );

  0013b	8b 4d f0	 mov	 ecx, DWORD PTR _this$[ebp]
  0013e	56		 push	 esi
  0013f	6a 78		 push	 120			; 00000078H
  00141	ff 15 00 00 00
	00		 call	 DWORD PTR __imp_?ShowChildWnd@ioWnd@@QAEXK_N@Z

; 2846 : 		HideChildWnd( ID_SCREENSHOT_PATH_EDIT );

  00147	8b 4d f0	 mov	 ecx, DWORD PTR _this$[ebp]
  0014a	56		 push	 esi
  0014b	6a 79		 push	 121			; 00000079H
  0014d	ff 15 00 00 00
	00		 call	 DWORD PTR __imp_?HideChildWnd@ioWnd@@QAEXK_N@Z

; 2847 : 	}	

  00153	8d 4d dc	 lea	 ecx, DWORD PTR _szText$547182[ebp]

; 2848 : 	else

  00156	eb 78		 jmp	 SHORT $LN16@UpdateEdit
$LN7@UpdateEdit:

; 2849 : 	{
; 2850 : 		ioHashString szText;

  00158	8d 4d cc	 lea	 ecx, DWORD PTR _szText$547189[ebp]
  0015b	ff 15 00 00 00
	00		 call	 DWORD PTR __imp_??0ioHashString@@QAE@XZ

; 2851 : 		ioUITitle *pTitle = pBtn->GetTitle();

  00161	8b 4d ec	 mov	 ecx, DWORD PTR _pBtn$[ebp]
  00164	c7 45 fc 01 00
	00 00		 mov	 DWORD PTR __$EHRec$[ebp+8], 1
  0016b	ff 15 00 00 00
	00		 call	 DWORD PTR __imp_?GetTitle@ioWnd@@QBEPAVioUITitle@@XZ

; 2852 : 		if( pTitle )

  00171	3b c7		 cmp	 eax, edi
  00173	74 0c		 je	 SHORT $LN1@UpdateEdit

; 2853 : 			pTitle->GetFirstText( szText );

  00175	8d 4d cc	 lea	 ecx, DWORD PTR _szText$547189[ebp]
  00178	51		 push	 ecx
  00179	8b c8		 mov	 ecx, eax
  0017b	ff 15 00 00 00
	00		 call	 DWORD PTR __imp_?GetFirstText@ioUITitle@@QAEXAAVioHashString@@@Z
$LN1@UpdateEdit:

; 2854 : 	
; 2855 : 		pEdit->SetKeyFocus();

  00181	8b 03		 mov	 eax, DWORD PTR [ebx]
  00183	8b cb		 mov	 ecx, ebx
  00185	ff 90 30 01 00
	00		 call	 DWORD PTR [eax+304]

; 2856 : 		pEdit->SetText( szText.c_str() );

  0018b	8d 4d cc	 lea	 ecx, DWORD PTR _szText$547189[ebp]
  0018e	ff 15 00 00 00
	00		 call	 DWORD PTR __imp_?c_str@ioHashString@@QBEPBDXZ
  00194	50		 push	 eax
  00195	8b cb		 mov	 ecx, ebx
  00197	ff 15 00 00 00
	00		 call	 DWORD PTR __imp_?SetText@ioEdit@@QAEXPBD@Z

; 2857 : 		g_InputBox.SetString( szText.c_str() );

  0019d	8d 4d cc	 lea	 ecx, DWORD PTR _szText$547189[ebp]
  001a0	ff 15 00 00 00
	00		 call	 DWORD PTR __imp_?c_str@ioHashString@@QBEPBDXZ
  001a6	50		 push	 eax
  001a7	ff 15 00 00 00
	00		 call	 DWORD PTR __imp_?GetSingleton@ioInputBox@@SAAAV1@XZ
  001ad	8b c8		 mov	 ecx, eax
  001af	ff 15 00 00 00
	00		 call	 DWORD PTR __imp_?SetString@ioInputBox@@QAEXPBD@Z

; 2858 : 
; 2859 : 		ShowChildWnd( ID_SCREENSHOT_PATH_EDIT );

  001b5	8b 4d f0	 mov	 ecx, DWORD PTR _this$[ebp]
  001b8	57		 push	 edi
  001b9	6a 79		 push	 121			; 00000079H
  001bb	ff 15 00 00 00
	00		 call	 DWORD PTR __imp_?ShowChildWnd@ioWnd@@QAEXK_N@Z

; 2860 : 		HideChildWnd( ID_SCREENSHOT_PATH_BTN );

  001c1	8b 4d f0	 mov	 ecx, DWORD PTR _this$[ebp]
  001c4	57		 push	 edi
  001c5	6a 78		 push	 120			; 00000078H
  001c7	ff 15 00 00 00
	00		 call	 DWORD PTR __imp_?HideChildWnd@ioWnd@@QAEXK_N@Z

; 2861 : 	}

  001cd	8d 4d cc	 lea	 ecx, DWORD PTR _szText$547189[ebp]
$LN16@UpdateEdit:
  001d0	83 4d fc ff	 or	 DWORD PTR __$EHRec$[ebp+8], -1
  001d4	ff 15 00 00 00
	00		 call	 DWORD PTR __imp_??1ioHashString@@QAE@XZ
$LN2@UpdateEdit:

; 2862 : }

  001da	e8 00 00 00 00	 call	 __EH_epilog3
  001df	c2 04 00	 ret	 4
_TEXT	ENDS
;	COMDAT text$x
text$x	SEGMENT
__unwindfunclet$?UpdateEditBtn@GameOptionMovieScreenShotTab@@IAEX_N@Z$0:
  00000	8d 4d dc	 lea	 ecx, DWORD PTR _szText$547182[ebp]
  00003	ff 25 00 00 00
	00		 jmp	 DWORD PTR __imp_??1ioHashString@@QAE@XZ
__unwindfunclet$?UpdateEditBtn@GameOptionMovieScreenShotTab@@IAEX_N@Z$1:
  00009	8d 4d cc	 lea	 ecx, DWORD PTR _szText$547189[ebp]
  0000c	ff 25 00 00 00
	00		 jmp	 DWORD PTR __imp_??1ioHashString@@QAE@XZ
__ehhandler$?UpdateEditBtn@GameOptionMovieScreenShotTab@@IAEX_N@Z:
  00012	8b 54 24 08	 mov	 edx, DWORD PTR [esp+8]
  00016	8d 42 0c	 lea	 eax, DWORD PTR [edx+12]
  00019	8b 4a c8	 mov	 ecx, DWORD PTR [edx-56]
  0001c	33 c8		 xor	 ecx, eax
  0001e	e8 00 00 00 00	 call	 @__security_check_cookie@4
  00023	b8 00 00 00 00	 mov	 eax, OFFSET __ehfuncinfo$?UpdateEditBtn@GameOptionMovieScreenShotTab@@IAEX_N@Z
  00028	e9 00 00 00 00	 jmp	 ___CxxFrameHandler3
text$x	ENDS
?UpdateEditBtn@GameOptionMovieScreenShotTab@@IAEX_N@Z ENDP ; GameOptionMovieScreenShotTab::UpdateEditBtn
PUBLIC	??_C@_0DA@LPLNOJDI@GameOptionMovieScreenShotTab?3?3Se@ ; `string'
PUBLIC	?SetOptionSavePath@GameOptionMovieScreenShotTab@@IAEXXZ ; GameOptionMovieScreenShotTab::SetOptionSavePath
;	COMDAT ??_C@_0DA@LPLNOJDI@GameOptionMovieScreenShotTab?3?3Se@
CONST	SEGMENT
??_C@_0DA@LPLNOJDI@GameOptionMovieScreenShotTab?3?3Se@ DB 'GameOptionMovi'
	DB	'eScreenShotTab::SetOptionSavePath', 00H	; `string'
CONST	ENDS
;	COMDAT xdata$x
xdata$x	SEGMENT
__unwindtable$?SetOptionSavePath@GameOptionMovieScreenShotTab@@IAEXXZ DD 0ffffffffH
	DD	FLAT:__unwindfunclet$?SetOptionSavePath@GameOptionMovieScreenShotTab@@IAEXXZ$0
	DD	00H
	DD	FLAT:__unwindfunclet$?SetOptionSavePath@GameOptionMovieScreenShotTab@@IAEXXZ$1
__ehfuncinfo$?SetOptionSavePath@GameOptionMovieScreenShotTab@@IAEXXZ DD 019930522H
	DD	02H
	DD	FLAT:__unwindtable$?SetOptionSavePath@GameOptionMovieScreenShotTab@@IAEXXZ
	DD	2 DUP(00H)
	DD	2 DUP(00H)
	DD	00H
	DD	01H
; Function compile flags: /Ogsp
xdata$x	ENDS
;	COMDAT ?SetOptionSavePath@GameOptionMovieScreenShotTab@@IAEXXZ
_TEXT	SEGMENT
_szDefault$547240 = -44					; size = 16
_szText$ = -28						; size = 16
__$EHRec$ = -12						; size = 12
?SetOptionSavePath@GameOptionMovieScreenShotTab@@IAEXXZ PROC ; GameOptionMovieScreenShotTab::SetOptionSavePath, COMDAT
; _this$ = ecx

; 2934 : {

  00000	6a 20		 push	 32			; 00000020H
  00002	b8 00 00 00 00	 mov	 eax, __ehhandler$?SetOptionSavePath@GameOptionMovieScreenShotTab@@IAEXXZ
  00007	e8 00 00 00 00	 call	 __EH_prolog3
  0000c	8b f9		 mov	 edi, ecx

; 2935 : 	ioHashString szText;

  0000e	8b 35 00 00 00
	00		 mov	 esi, DWORD PTR __imp_??0ioHashString@@QAE@XZ
  00014	8d 4d e4	 lea	 ecx, DWORD PTR _szText$[ebp]
  00017	ff d6		 call	 esi

; 2936 : 	GetTextEditBtn( szText );

  00019	8d 45 e4	 lea	 eax, DWORD PTR _szText$[ebp]
  0001c	33 db		 xor	 ebx, ebx
  0001e	50		 push	 eax
  0001f	8b cf		 mov	 ecx, edi
  00021	89 5d fc	 mov	 DWORD PTR __$EHRec$[ebp+8], ebx
  00024	e8 00 00 00 00	 call	 ?GetTextEditBtn@GameOptionMovieScreenShotTab@@IAEXAAVioHashString@@@Z ; GameOptionMovieScreenShotTab::GetTextEditBtn

; 2937 : 
; 2938 : 	if( CreateScreenShotFolder( szText.c_str() ) )

  00029	8d 4d e4	 lea	 ecx, DWORD PTR _szText$[ebp]
  0002c	ff 15 00 00 00
	00		 call	 DWORD PTR __imp_?c_str@ioHashString@@QBEPBDXZ
  00032	50		 push	 eax
  00033	8b cf		 mov	 ecx, edi
  00035	e8 00 00 00 00	 call	 ?CreateScreenShotFolder@GameOptionMovieScreenShotTab@@QAE_NPBD@Z ; GameOptionMovieScreenShotTab::CreateScreenShotFolder
  0003a	84 c0		 test	 al, al
  0003c	74 12		 je	 SHORT $LN2@SetOptionS

; 2939 : 	{
; 2940 : 		m_CurrentOption.m_szScreenShotSavePath = szText;

  0003e	8d 45 e4	 lea	 eax, DWORD PTR _szText$[ebp]
  00041	50		 push	 eax
  00042	8d 8f b0 01 00
	00		 lea	 ecx, DWORD PTR [edi+432]
  00048	ff 15 00 00 00
	00		 call	 DWORD PTR __imp_??4ioHashString@@QAEAAV0@ABV0@@Z

; 2941 : 	}
; 2942 : 	else

  0004e	eb 5c		 jmp	 SHORT $LN1@SetOptionS
$LN2@SetOptionS:

; 2943 : 	{
; 2944 : 		ioHashString szDefault;

  00050	8d 4d d4	 lea	 ecx, DWORD PTR _szDefault$547240[ebp]
  00053	ff d6		 call	 esi

; 2945 : 		GetDefaultScreenShotFolderName( szDefault );

  00055	8d 45 d4	 lea	 eax, DWORD PTR _szDefault$547240[ebp]
  00058	50		 push	 eax
  00059	8b cf		 mov	 ecx, edi
  0005b	c6 45 fc 01	 mov	 BYTE PTR __$EHRec$[ebp+8], 1
  0005f	e8 00 00 00 00	 call	 ?GetDefaultScreenShotFolderName@GameOptionMovieScreenShotTab@@QAEXAAVioHashString@@@Z ; GameOptionMovieScreenShotTab::GetDefaultScreenShotFolderName

; 2946 : 		m_CurrentOption.m_szScreenShotSavePath = szDefault;

  00064	8d 45 d4	 lea	 eax, DWORD PTR _szDefault$547240[ebp]
  00067	50		 push	 eax
  00068	8d 8f b0 01 00
	00		 lea	 ecx, DWORD PTR [edi+432]
  0006e	ff 15 00 00 00
	00		 call	 DWORD PTR __imp_??4ioHashString@@QAEAAV0@ABV0@@Z

; 2947 : 
; 2948 : 		g_GUIMgr.SetMsgBox( MB_OK, NULL, STR(1) );

  00074	53		 push	 ebx
  00075	6a 01		 push	 1
  00077	68 00 00 00 00	 push	 OFFSET ??_C@_00CNPNBAHC@?$AA@
  0007c	68 00 00 00 00	 push	 OFFSET ??_C@_0DA@LPLNOJDI@GameOptionMovieScreenShotTab?3?3Se@
  00081	ff 15 00 00 00
	00		 call	 DWORD PTR __imp_?GetSingleton@ioStringManager@@SAAAV1@XZ
  00087	8b c8		 mov	 ecx, eax
  00089	ff 15 00 00 00
	00		 call	 DWORD PTR __imp_?GetString@ioStringManager@@QAEPADPBD0HW4FileNamePrefix@1@@Z
  0008f	50		 push	 eax
  00090	53		 push	 ebx
  00091	53		 push	 ebx
  00092	e8 00 00 00 00	 call	 ?GetSingleton@ioSP2GUIManager@@SAAAV1@XZ ; ioSP2GUIManager::GetSingleton
  00097	50		 push	 eax
  00098	e8 00 00 00 00	 call	 ?SetMsgBox@ioSP2GUIManager@@QAAXHPAVioWnd@@PBDZZ ; ioSP2GUIManager::SetMsgBox
  0009d	83 c4 10	 add	 esp, 16			; 00000010H

; 2949 : 	}

  000a0	8d 4d d4	 lea	 ecx, DWORD PTR _szDefault$547240[ebp]
  000a3	88 5d fc	 mov	 BYTE PTR __$EHRec$[ebp+8], bl
  000a6	ff 15 00 00 00
	00		 call	 DWORD PTR __imp_??1ioHashString@@QAE@XZ
$LN1@SetOptionS:

; 2950 : 	
; 2951 : }

  000ac	83 4d fc ff	 or	 DWORD PTR __$EHRec$[ebp+8], -1
  000b0	8d 4d e4	 lea	 ecx, DWORD PTR _szText$[ebp]
  000b3	ff 15 00 00 00
	00		 call	 DWORD PTR __imp_??1ioHashString@@QAE@XZ
  000b9	e8 00 00 00 00	 call	 __EH_epilog3
  000be	c3		 ret	 0
_TEXT	ENDS
;	COMDAT text$x
text$x	SEGMENT
__unwindfunclet$?SetOptionSavePath@GameOptionMovieScreenShotTab@@IAEXXZ$0:
  00000	8d 4d e4	 lea	 ecx, DWORD PTR _szText$[ebp]
  00003	ff 25 00 00 00
	00		 jmp	 DWORD PTR __imp_??1ioHashString@@QAE@XZ
__unwindfunclet$?SetOptionSavePath@GameOptionMovieScreenShotTab@@IAEXXZ$1:
  00009	8d 4d d4	 lea	 ecx, DWORD PTR _szDefault$547240[ebp]
  0000c	ff 25 00 00 00
	00		 jmp	 DWORD PTR __imp_??1ioHashString@@QAE@XZ
__ehhandler$?SetOptionSavePath@GameOptionMovieScreenShotTab@@IAEXXZ:
  00012	8b 54 24 08	 mov	 edx, DWORD PTR [esp+8]
  00016	8d 42 0c	 lea	 eax, DWORD PTR [edx+12]
  00019	8b 4a d0	 mov	 ecx, DWORD PTR [edx-48]
  0001c	33 c8		 xor	 ecx, eax
  0001e	e8 00 00 00 00	 call	 @__security_check_cookie@4
  00023	b8 00 00 00 00	 mov	 eax, OFFSET __ehfuncinfo$?SetOptionSavePath@GameOptionMovieScreenShotTab@@IAEXXZ
  00028	e9 00 00 00 00	 jmp	 ___CxxFrameHandler3
text$x	ENDS
?SetOptionSavePath@GameOptionMovieScreenShotTab@@IAEXXZ ENDP ; GameOptionMovieScreenShotTab::SetOptionSavePath
; Function compile flags: /Ogsp
;	COMDAT ??_GGameOptionSettingTab@@UAEPAXI@Z
_TEXT	SEGMENT
___flags$ = 8						; size = 4
??_GGameOptionSettingTab@@UAEPAXI@Z PROC		; GameOptionSettingTab::`scalar deleting destructor', COMDAT
; _this$ = ecx
  00000	55		 push	 ebp
  00001	8b ec		 mov	 ebp, esp
  00003	56		 push	 esi
  00004	8b f1		 mov	 esi, ecx
  00006	e8 00 00 00 00	 call	 ??1GameOptionSettingTab@@UAE@XZ ; GameOptionSettingTab::~GameOptionSettingTab
  0000b	f6 45 08 01	 test	 BYTE PTR ___flags$[ebp], 1
  0000f	74 07		 je	 SHORT $LN1@scalar@11
  00011	56		 push	 esi
  00012	e8 00 00 00 00	 call	 ??3@YAXPAX@Z		; operator delete
  00017	59		 pop	 ecx
$LN1@scalar@11:
  00018	8b c6		 mov	 eax, esi
  0001a	5e		 pop	 esi
  0001b	5d		 pop	 ebp
  0001c	c2 04 00	 ret	 4
??_GGameOptionSettingTab@@UAEPAXI@Z ENDP		; GameOptionSettingTab::`scalar deleting destructor'
_TEXT	ENDS
PUBLIC	?max_size@?$vector@V?$basic_string@DU?$char_traits@D@std@@V?$allocator@D@2@@std@@V?$allocator@V?$basic_string@DU?$char_traits@D@std@@V?$allocator@D@2@@std@@@2@@std@@QBEIXZ ; std::vector<std::basic_string<char,std::char_traits<char>,std::allocator<char> >,std::allocator<std::basic_string<char,std::char_traits<char>,std::allocator<char> > > >::max_size
; Function compile flags: /Ogsp
; File c:\program files (x86)\microsoft visual studio 10.0\vc\include\vector
;	COMDAT ?max_size@?$vector@V?$basic_string@DU?$char_traits@D@std@@V?$allocator@D@2@@std@@V?$allocator@V?$basic_string@DU?$char_traits@D@std@@V?$allocator@D@2@@std@@@2@@std@@QBEIXZ
_TEXT	SEGMENT
?max_size@?$vector@V?$basic_string@DU?$char_traits@D@std@@V?$allocator@D@2@@std@@V?$allocator@V?$basic_string@DU?$char_traits@D@std@@V?$allocator@D@2@@std@@@2@@std@@QBEIXZ PROC ; std::vector<std::basic_string<char,std::char_traits<char>,std::allocator<char> >,std::allocator<std::basic_string<char,std::char_traits<char>,std::allocator<char> > > >::max_size, COMDAT
; _this$ = ecx

; 884  : 		return (this->_Alval.max_size());

  00000	b8 49 92 24 09	 mov	 eax, 153391689		; 09249249H

; 885  : 		}

  00005	c3		 ret	 0
?max_size@?$vector@V?$basic_string@DU?$char_traits@D@std@@V?$allocator@D@2@@std@@V?$allocator@V?$basic_string@DU?$char_traits@D@std@@V?$allocator@D@2@@std@@@2@@std@@QBEIXZ ENDP ; std::vector<std::basic_string<char,std::char_traits<char>,std::allocator<char> >,std::allocator<std::basic_string<char,std::char_traits<char>,std::allocator<char> > > >::max_size
_TEXT	ENDS
PUBLIC	??0?$_Vector_val@V?$basic_string@DU?$char_traits@D@std@@V?$allocator@D@2@@std@@V?$allocator@V?$basic_string@DU?$char_traits@D@std@@V?$allocator@D@2@@std@@@2@@std@@QAE@V?$allocator@V?$basic_string@DU?$char_traits@D@std@@V?$allocator@D@2@@std@@@1@@Z ; std::_Vector_val<std::basic_string<char,std::char_traits<char>,std::allocator<char> >,std::allocator<std::basic_string<char,std::char_traits<char>,std::allocator<char> > > >::_Vector_val<std::basic_string<char,std::char_traits<char>,std::allocator<char> >,std::allocator<std::basic_string<char,std::char_traits<char>,std::allocator<char> > > >
; Function compile flags: /Ogsp
;	COMDAT ??0?$_Vector_val@V?$basic_string@DU?$char_traits@D@std@@V?$allocator@D@2@@std@@V?$allocator@V?$basic_string@DU?$char_traits@D@std@@V?$allocator@D@2@@std@@@2@@std@@QAE@V?$allocator@V?$basic_string@DU?$char_traits@D@std@@V?$allocator@D@2@@std@@@1@@Z
_TEXT	SEGMENT
__Al$ = 8						; size = 1
??0?$_Vector_val@V?$basic_string@DU?$char_traits@D@std@@V?$allocator@D@2@@std@@V?$allocator@V?$basic_string@DU?$char_traits@D@std@@V?$allocator@D@2@@std@@@2@@std@@QAE@V?$allocator@V?$basic_string@DU?$char_traits@D@std@@V?$allocator@D@2@@std@@@1@@Z PROC ; std::_Vector_val<std::basic_string<char,std::char_traits<char>,std::allocator<char> >,std::allocator<std::basic_string<char,std::char_traits<char>,std::allocator<char> > > >::_Vector_val<std::basic_string<char,std::char_traits<char>,std::allocator<char> >,std::allocator<std::basic_string<char,std::char_traits<char>,std::allocator<char> > > >, COMDAT
; _this$ = ecx

; 426  : 		{	// construct allocator from _Al

  00000	8b c1		 mov	 eax, ecx

; 427  : 		_Myfirst = 0;

  00002	33 c9		 xor	 ecx, ecx
  00004	89 08		 mov	 DWORD PTR [eax], ecx

; 428  : 		_Mylast = 0;

  00006	89 48 04	 mov	 DWORD PTR [eax+4], ecx

; 429  : 		_Myend = 0;

  00009	89 48 08	 mov	 DWORD PTR [eax+8], ecx

; 430  : 		}

  0000c	c2 04 00	 ret	 4
??0?$_Vector_val@V?$basic_string@DU?$char_traits@D@std@@V?$allocator@D@2@@std@@V?$allocator@V?$basic_string@DU?$char_traits@D@std@@V?$allocator@D@2@@std@@@2@@std@@QAE@V?$allocator@V?$basic_string@DU?$char_traits@D@std@@V?$allocator@D@2@@std@@@1@@Z ENDP ; std::_Vector_val<std::basic_string<char,std::char_traits<char>,std::allocator<char> >,std::allocator<std::basic_string<char,std::char_traits<char>,std::allocator<char> > > >::_Vector_val<std::basic_string<char,std::char_traits<char>,std::allocator<char> >,std::allocator<std::basic_string<char,std::char_traits<char>,std::allocator<char> > > >
_TEXT	ENDS
PUBLIC	?allocate@?$allocator@V?$basic_string@DU?$char_traits@D@std@@V?$allocator@D@2@@std@@@std@@QAEPAV?$basic_string@DU?$char_traits@D@std@@V?$allocator@D@2@@2@I@Z ; std::allocator<std::basic_string<char,std::char_traits<char>,std::allocator<char> > >::allocate
; Function compile flags: /Ogsp
; File c:\program files (x86)\microsoft visual studio 10.0\vc\include\xmemory
;	COMDAT ?allocate@?$allocator@V?$basic_string@DU?$char_traits@D@std@@V?$allocator@D@2@@std@@@std@@QAEPAV?$basic_string@DU?$char_traits@D@std@@V?$allocator@D@2@@2@I@Z
_TEXT	SEGMENT
__Count$ = 8						; size = 4
?allocate@?$allocator@V?$basic_string@DU?$char_traits@D@std@@V?$allocator@D@2@@std@@@std@@QAEPAV?$basic_string@DU?$char_traits@D@std@@V?$allocator@D@2@@2@I@Z PROC ; std::allocator<std::basic_string<char,std::char_traits<char>,std::allocator<char> > >::allocate, COMDAT
; _this$ = ecx

; 186  : 		{	// allocate array of _Count elements

  00000	55		 push	 ebp
  00001	8b ec		 mov	 ebp, esp

; 187  : 		return (_Allocate(_Count, (pointer)0));

  00003	6a 00		 push	 0
  00005	ff 75 08	 push	 DWORD PTR __Count$[ebp]
  00008	e8 00 00 00 00	 call	 ??$_Allocate@V?$basic_string@DU?$char_traits@D@std@@V?$allocator@D@2@@std@@@std@@YAPAV?$basic_string@DU?$char_traits@D@std@@V?$allocator@D@2@@0@IPAV10@@Z ; std::_Allocate<std::basic_string<char,std::char_traits<char>,std::allocator<char> > >
  0000d	59		 pop	 ecx
  0000e	59		 pop	 ecx

; 188  : 		}

  0000f	5d		 pop	 ebp
  00010	c2 04 00	 ret	 4
?allocate@?$allocator@V?$basic_string@DU?$char_traits@D@std@@V?$allocator@D@2@@std@@@std@@QAEPAV?$basic_string@DU?$char_traits@D@std@@V?$allocator@D@2@@2@I@Z ENDP ; std::allocator<std::basic_string<char,std::char_traits<char>,std::allocator<char> > >::allocate
_TEXT	ENDS
PUBLIC	?max_size@?$vector@W4ItemType@SettingKeyItemWnd@@V?$allocator@W4ItemType@SettingKeyItemWnd@@@std@@@std@@QBEIXZ ; std::vector<enum SettingKeyItemWnd::ItemType,std::allocator<enum SettingKeyItemWnd::ItemType> >::max_size
; Function compile flags: /Ogsp
; File c:\program files (x86)\microsoft visual studio 10.0\vc\include\vector
;	COMDAT ?max_size@?$vector@W4ItemType@SettingKeyItemWnd@@V?$allocator@W4ItemType@SettingKeyItemWnd@@@std@@@std@@QBEIXZ
_TEXT	SEGMENT
?max_size@?$vector@W4ItemType@SettingKeyItemWnd@@V?$allocator@W4ItemType@SettingKeyItemWnd@@@std@@@std@@QBEIXZ PROC ; std::vector<enum SettingKeyItemWnd::ItemType,std::allocator<enum SettingKeyItemWnd::ItemType> >::max_size, COMDAT
; _this$ = ecx

; 884  : 		return (this->_Alval.max_size());

  00000	b8 ff ff ff 3f	 mov	 eax, 1073741823		; 3fffffffH

; 885  : 		}

  00005	c3		 ret	 0
?max_size@?$vector@W4ItemType@SettingKeyItemWnd@@V?$allocator@W4ItemType@SettingKeyItemWnd@@@std@@@std@@QBEIXZ ENDP ; std::vector<enum SettingKeyItemWnd::ItemType,std::allocator<enum SettingKeyItemWnd::ItemType> >::max_size
_TEXT	ENDS
PUBLIC	??0?$_Vector_val@W4ItemType@SettingKeyItemWnd@@V?$allocator@W4ItemType@SettingKeyItemWnd@@@std@@@std@@QAE@V?$allocator@W4ItemType@SettingKeyItemWnd@@@1@@Z ; std::_Vector_val<enum SettingKeyItemWnd::ItemType,std::allocator<enum SettingKeyItemWnd::ItemType> >::_Vector_val<enum SettingKeyItemWnd::ItemType,std::allocator<enum SettingKeyItemWnd::ItemType> >
; Function compile flags: /Ogsp
;	COMDAT ??0?$_Vector_val@W4ItemType@SettingKeyItemWnd@@V?$allocator@W4ItemType@SettingKeyItemWnd@@@std@@@std@@QAE@V?$allocator@W4ItemType@SettingKeyItemWnd@@@1@@Z
_TEXT	SEGMENT
__Al$ = 8						; size = 1
??0?$_Vector_val@W4ItemType@SettingKeyItemWnd@@V?$allocator@W4ItemType@SettingKeyItemWnd@@@std@@@std@@QAE@V?$allocator@W4ItemType@SettingKeyItemWnd@@@1@@Z PROC ; std::_Vector_val<enum SettingKeyItemWnd::ItemType,std::allocator<enum SettingKeyItemWnd::ItemType> >::_Vector_val<enum SettingKeyItemWnd::ItemType,std::allocator<enum SettingKeyItemWnd::ItemType> >, COMDAT
; _this$ = ecx

; 426  : 		{	// construct allocator from _Al

  00000	8b c1		 mov	 eax, ecx

; 427  : 		_Myfirst = 0;

  00002	33 c9		 xor	 ecx, ecx
  00004	89 08		 mov	 DWORD PTR [eax], ecx

; 428  : 		_Mylast = 0;

  00006	89 48 04	 mov	 DWORD PTR [eax+4], ecx

; 429  : 		_Myend = 0;

  00009	89 48 08	 mov	 DWORD PTR [eax+8], ecx

; 430  : 		}

  0000c	c2 04 00	 ret	 4
??0?$_Vector_val@W4ItemType@SettingKeyItemWnd@@V?$allocator@W4ItemType@SettingKeyItemWnd@@@std@@@std@@QAE@V?$allocator@W4ItemType@SettingKeyItemWnd@@@1@@Z ENDP ; std::_Vector_val<enum SettingKeyItemWnd::ItemType,std::allocator<enum SettingKeyItemWnd::ItemType> >::_Vector_val<enum SettingKeyItemWnd::ItemType,std::allocator<enum SettingKeyItemWnd::ItemType> >
_TEXT	ENDS
PUBLIC	?allocate@?$allocator@W4ItemType@SettingKeyItemWnd@@@std@@QAEPAW4ItemType@SettingKeyItemWnd@@I@Z ; std::allocator<enum SettingKeyItemWnd::ItemType>::allocate
; Function compile flags: /Ogsp
; File c:\program files (x86)\microsoft visual studio 10.0\vc\include\xmemory
;	COMDAT ?allocate@?$allocator@W4ItemType@SettingKeyItemWnd@@@std@@QAEPAW4ItemType@SettingKeyItemWnd@@I@Z
_TEXT	SEGMENT
__Count$ = 8						; size = 4
?allocate@?$allocator@W4ItemType@SettingKeyItemWnd@@@std@@QAEPAW4ItemType@SettingKeyItemWnd@@I@Z PROC ; std::allocator<enum SettingKeyItemWnd::ItemType>::allocate, COMDAT
; _this$ = ecx

; 186  : 		{	// allocate array of _Count elements

  00000	55		 push	 ebp
  00001	8b ec		 mov	 ebp, esp

; 187  : 		return (_Allocate(_Count, (pointer)0));

  00003	6a 00		 push	 0
  00005	ff 75 08	 push	 DWORD PTR __Count$[ebp]
  00008	e8 00 00 00 00	 call	 ??$_Allocate@W4ItemType@SettingKeyItemWnd@@@std@@YAPAW4ItemType@SettingKeyItemWnd@@IPAW412@@Z ; std::_Allocate<enum SettingKeyItemWnd::ItemType>
  0000d	59		 pop	 ecx
  0000e	59		 pop	 ecx

; 188  : 		}

  0000f	5d		 pop	 ebp
  00010	c2 04 00	 ret	 4
?allocate@?$allocator@W4ItemType@SettingKeyItemWnd@@@std@@QAEPAW4ItemType@SettingKeyItemWnd@@I@Z ENDP ; std::allocator<enum SettingKeyItemWnd::ItemType>::allocate
_TEXT	ENDS
PUBLIC	?_Grow_to@?$vector@V?$basic_string@DU?$char_traits@D@std@@V?$allocator@D@2@@std@@V?$allocator@V?$basic_string@DU?$char_traits@D@std@@V?$allocator@D@2@@std@@@2@@std@@IBEII@Z ; std::vector<std::basic_string<char,std::char_traits<char>,std::allocator<char> >,std::allocator<std::basic_string<char,std::char_traits<char>,std::allocator<char> > > >::_Grow_to
; Function compile flags: /Ogsp
; File c:\program files (x86)\microsoft visual studio 10.0\vc\include\vector
;	COMDAT ?_Grow_to@?$vector@V?$basic_string@DU?$char_traits@D@std@@V?$allocator@D@2@@std@@V?$allocator@V?$basic_string@DU?$char_traits@D@std@@V?$allocator@D@2@@std@@@2@@std@@IBEII@Z
_TEXT	SEGMENT
__Count$ = 8						; size = 4
?_Grow_to@?$vector@V?$basic_string@DU?$char_traits@D@std@@V?$allocator@D@2@@std@@V?$allocator@V?$basic_string@DU?$char_traits@D@std@@V?$allocator@D@2@@std@@@2@@std@@IBEII@Z PROC ; std::vector<std::basic_string<char,std::char_traits<char>,std::allocator<char> >,std::allocator<std::basic_string<char,std::char_traits<char>,std::allocator<char> > > >::_Grow_to, COMDAT
; _this$ = ecx

; 1274 : 		{	// grow by 50% or at least to _Count

  00000	55		 push	 ebp
  00001	8b ec		 mov	 ebp, esp

; 1275 : 		size_type _Capacity = capacity();

  00003	8b 41 08	 mov	 eax, DWORD PTR [ecx+8]
  00006	2b 01		 sub	 eax, DWORD PTR [ecx]
  00008	6a 1c		 push	 28			; 0000001cH
  0000a	99		 cdq
  0000b	59		 pop	 ecx
  0000c	f7 f9		 idiv	 ecx

; 1276 : 
; 1277 : 		_Capacity = max_size() - _Capacity / 2 < _Capacity
; 1278 : 			? 0 : _Capacity + _Capacity / 2;	// try to grow by 50%

  0000e	ba 49 92 24 09	 mov	 edx, 153391689		; 09249249H
  00013	8b c8		 mov	 ecx, eax
  00015	d1 e9		 shr	 ecx, 1
  00017	2b d1		 sub	 edx, ecx
  00019	3b d0		 cmp	 edx, eax
  0001b	73 04		 jae	 SHORT $LN4@Grow_to
  0001d	33 c0		 xor	 eax, eax
  0001f	eb 02		 jmp	 SHORT $LN5@Grow_to
$LN4@Grow_to:
  00021	03 c1		 add	 eax, ecx
$LN5@Grow_to:

; 1279 : 		if (_Capacity < _Count)

  00023	3b 45 08	 cmp	 eax, DWORD PTR __Count$[ebp]

; 1280 : 			_Capacity = _Count;

  00026	0f 42 45 08	 cmovb	 eax, DWORD PTR __Count$[ebp]

; 1281 : 		return (_Capacity);
; 1282 : 		}

  0002a	5d		 pop	 ebp
  0002b	c2 04 00	 ret	 4
?_Grow_to@?$vector@V?$basic_string@DU?$char_traits@D@std@@V?$allocator@D@2@@std@@V?$allocator@V?$basic_string@DU?$char_traits@D@std@@V?$allocator@D@2@@std@@@2@@std@@IBEII@Z ENDP ; std::vector<std::basic_string<char,std::char_traits<char>,std::allocator<char> >,std::allocator<std::basic_string<char,std::char_traits<char>,std::allocator<char> > > >::_Grow_to
_TEXT	ENDS
PUBLIC	?_Grow_to@?$vector@W4ItemType@SettingKeyItemWnd@@V?$allocator@W4ItemType@SettingKeyItemWnd@@@std@@@std@@IBEII@Z ; std::vector<enum SettingKeyItemWnd::ItemType,std::allocator<enum SettingKeyItemWnd::ItemType> >::_Grow_to
; Function compile flags: /Ogsp
;	COMDAT ?_Grow_to@?$vector@W4ItemType@SettingKeyItemWnd@@V?$allocator@W4ItemType@SettingKeyItemWnd@@@std@@@std@@IBEII@Z
_TEXT	SEGMENT
__Count$ = 8						; size = 4
?_Grow_to@?$vector@W4ItemType@SettingKeyItemWnd@@V?$allocator@W4ItemType@SettingKeyItemWnd@@@std@@@std@@IBEII@Z PROC ; std::vector<enum SettingKeyItemWnd::ItemType,std::allocator<enum SettingKeyItemWnd::ItemType> >::_Grow_to, COMDAT
; _this$ = ecx

; 1274 : 		{	// grow by 50% or at least to _Count

  00000	55		 push	 ebp
  00001	8b ec		 mov	 ebp, esp

; 1275 : 		size_type _Capacity = capacity();

  00003	8b 41 08	 mov	 eax, DWORD PTR [ecx+8]
  00006	2b 01		 sub	 eax, DWORD PTR [ecx]

; 1276 : 
; 1277 : 		_Capacity = max_size() - _Capacity / 2 < _Capacity
; 1278 : 			? 0 : _Capacity + _Capacity / 2;	// try to grow by 50%

  00008	ba ff ff ff 3f	 mov	 edx, 1073741823		; 3fffffffH
  0000d	c1 f8 02	 sar	 eax, 2
  00010	8b c8		 mov	 ecx, eax
  00012	d1 e9		 shr	 ecx, 1
  00014	2b d1		 sub	 edx, ecx
  00016	3b d0		 cmp	 edx, eax
  00018	73 04		 jae	 SHORT $LN4@Grow_to@2
  0001a	33 c0		 xor	 eax, eax
  0001c	eb 02		 jmp	 SHORT $LN5@Grow_to@2
$LN4@Grow_to@2:
  0001e	03 c1		 add	 eax, ecx
$LN5@Grow_to@2:

; 1279 : 		if (_Capacity < _Count)

  00020	3b 45 08	 cmp	 eax, DWORD PTR __Count$[ebp]

; 1280 : 			_Capacity = _Count;

  00023	0f 42 45 08	 cmovb	 eax, DWORD PTR __Count$[ebp]

; 1281 : 		return (_Capacity);
; 1282 : 		}

  00027	5d		 pop	 ebp
  00028	c2 04 00	 ret	 4
?_Grow_to@?$vector@W4ItemType@SettingKeyItemWnd@@V?$allocator@W4ItemType@SettingKeyItemWnd@@@std@@@std@@IBEII@Z ENDP ; std::vector<enum SettingKeyItemWnd::ItemType,std::allocator<enum SettingKeyItemWnd::ItemType> >::_Grow_to
_TEXT	ENDS
PUBLIC	??0?$_Vector_iterator@V?$_Vector_val@W4ItemType@SettingKeyItemWnd@@V?$allocator@W4ItemType@SettingKeyItemWnd@@@std@@@std@@@std@@QAE@PAW4ItemType@SettingKeyItemWnd@@PBU_Container_base0@1@@Z ; std::_Vector_iterator<std::_Vector_val<enum SettingKeyItemWnd::ItemType,std::allocator<enum SettingKeyItemWnd::ItemType> > >::_Vector_iterator<std::_Vector_val<enum SettingKeyItemWnd::ItemType,std::allocator<enum SettingKeyItemWnd::ItemType> > >
; Function compile flags: /Ogsp
;	COMDAT ??0?$_Vector_iterator@V?$_Vector_val@W4ItemType@SettingKeyItemWnd@@V?$allocator@W4ItemType@SettingKeyItemWnd@@@std@@@std@@@std@@QAE@PAW4ItemType@SettingKeyItemWnd@@PBU_Container_base0@1@@Z
_TEXT	SEGMENT
__Parg$ = 8						; size = 4
__Pvector$ = 12						; size = 4
??0?$_Vector_iterator@V?$_Vector_val@W4ItemType@SettingKeyItemWnd@@V?$allocator@W4ItemType@SettingKeyItemWnd@@@std@@@std@@@std@@QAE@PAW4ItemType@SettingKeyItemWnd@@PBU_Container_base0@1@@Z PROC ; std::_Vector_iterator<std::_Vector_val<enum SettingKeyItemWnd::ItemType,std::allocator<enum SettingKeyItemWnd::ItemType> > >::_Vector_iterator<std::_Vector_val<enum SettingKeyItemWnd::ItemType,std::allocator<enum SettingKeyItemWnd::ItemType> > >, COMDAT
; _this$ = ecx

; 304  : 		{	// construct with pointer _Parg

  00000	55		 push	 ebp
  00001	8b ec		 mov	 ebp, esp
  00003	8b c1		 mov	 eax, ecx
  00005	8b 4d 08	 mov	 ecx, DWORD PTR __Parg$[ebp]
  00008	89 08		 mov	 DWORD PTR [eax], ecx

; 305  : 		}

  0000a	5d		 pop	 ebp
  0000b	c2 08 00	 ret	 8
??0?$_Vector_iterator@V?$_Vector_val@W4ItemType@SettingKeyItemWnd@@V?$allocator@W4ItemType@SettingKeyItemWnd@@@std@@@std@@@std@@QAE@PAW4ItemType@SettingKeyItemWnd@@PBU_Container_base0@1@@Z ENDP ; std::_Vector_iterator<std::_Vector_val<enum SettingKeyItemWnd::ItemType,std::allocator<enum SettingKeyItemWnd::ItemType> > >::_Vector_iterator<std::_Vector_val<enum SettingKeyItemWnd::ItemType,std::allocator<enum SettingKeyItemWnd::ItemType> > >
_TEXT	ENDS
PUBLIC	??8?$_Vector_const_iterator@V?$_Vector_val@W4ItemType@SettingKeyItemWnd@@V?$allocator@W4ItemType@SettingKeyItemWnd@@@std@@@std@@@std@@QBE_NABV01@@Z ; std::_Vector_const_iterator<std::_Vector_val<enum SettingKeyItemWnd::ItemType,std::allocator<enum SettingKeyItemWnd::ItemType> > >::operator==
; Function compile flags: /Ogsp
;	COMDAT ??8?$_Vector_const_iterator@V?$_Vector_val@W4ItemType@SettingKeyItemWnd@@V?$allocator@W4ItemType@SettingKeyItemWnd@@@std@@@std@@@std@@QBE_NABV01@@Z
_TEXT	SEGMENT
__Right$ = 8						; size = 4
??8?$_Vector_const_iterator@V?$_Vector_val@W4ItemType@SettingKeyItemWnd@@V?$allocator@W4ItemType@SettingKeyItemWnd@@@std@@@std@@@std@@QBE_NABV01@@Z PROC ; std::_Vector_const_iterator<std::_Vector_val<enum SettingKeyItemWnd::ItemType,std::allocator<enum SettingKeyItemWnd::ItemType> > >::operator==, COMDAT
; _this$ = ecx

; 201  : 		{	// test for iterator equality

  00000	55		 push	 ebp
  00001	8b ec		 mov	 ebp, esp

; 202  : 		_Compat(_Right);
; 203  : 		return (this->_Ptr == _Right._Ptr);

  00003	8b 01		 mov	 eax, DWORD PTR [ecx]
  00005	8b 4d 08	 mov	 ecx, DWORD PTR __Right$[ebp]
  00008	2b 01		 sub	 eax, DWORD PTR [ecx]
  0000a	f7 d8		 neg	 eax
  0000c	1b c0		 sbb	 eax, eax
  0000e	40		 inc	 eax

; 204  : 		}

  0000f	5d		 pop	 ebp
  00010	c2 04 00	 ret	 4
??8?$_Vector_const_iterator@V?$_Vector_val@W4ItemType@SettingKeyItemWnd@@V?$allocator@W4ItemType@SettingKeyItemWnd@@@std@@@std@@@std@@QBE_NABV01@@Z ENDP ; std::_Vector_const_iterator<std::_Vector_val<enum SettingKeyItemWnd::ItemType,std::allocator<enum SettingKeyItemWnd::ItemType> > >::operator==
_TEXT	ENDS
PUBLIC	__$ArrayPad$
PUBLIC	??$?8$08@@YA_NABVioHashString@@AAY08$$CBD@Z	; operator==<9>
; Function compile flags: /Ogsp
; File d:\lost saga for developer\youtube\tutorial\source\src\io3dengine\iohashstring.h
;	COMDAT ??$?8$08@@YA_NABVioHashString@@AAY08$$CBD@Z
_TEXT	SEGMENT
__t$ = -20						; size = 9
__$ArrayPad$ = -4					; size = 4
_lhs$ = 8						; size = 4
_t$ = 12						; size = 4
??$?8$08@@YA_NABVioHashString@@AAY08$$CBD@Z PROC	; operator==<9>, COMDAT

; 146  : {

  00000	55		 push	 ebp
  00001	8b ec		 mov	 ebp, esp
  00003	83 ec 14	 sub	 esp, 20			; 00000014H
  00006	a1 00 00 00 00	 mov	 eax, DWORD PTR ___security_cookie
  0000b	33 c5		 xor	 eax, ebp
  0000d	89 45 fc	 mov	 DWORD PTR __$ArrayPad$[ebp], eax
  00010	8b 45 0c	 mov	 eax, DWORD PTR _t$[ebp]

; 147  : 	_ENCSTR(t, _t); return ( strcmp( lhs.c_str(), _t ) == 0 );

  00013	8a 10		 mov	 dl, BYTE PTR [eax]
  00015	8b 4d 08	 mov	 ecx, DWORD PTR _lhs$[ebp]
  00018	84 d2		 test	 dl, dl
  0001a	0f 84 ee 00 00
	00		 je	 $LN96@operator
  00020	80 f2 ed	 xor	 dl, -19			; ffffffedH
  00023	88 55 ec	 mov	 BYTE PTR __t$[ebp], dl
  00026	8a 50 01	 mov	 dl, BYTE PTR [eax+1]
  00029	84 d2		 test	 dl, dl
  0002b	0f 84 d7 00 00
	00		 je	 $LN95@operator
  00031	80 f2 ec	 xor	 dl, -20			; ffffffecH
  00034	88 55 ed	 mov	 BYTE PTR __t$[ebp+1], dl
  00037	8a 50 02	 mov	 dl, BYTE PTR [eax+2]
  0003a	84 d2		 test	 dl, dl
  0003c	0f 84 c0 00 00
	00		 je	 $LN94@operator
  00042	80 f2 eb	 xor	 dl, -21			; ffffffebH
  00045	88 55 ee	 mov	 BYTE PTR __t$[ebp+2], dl
  00048	8a 50 03	 mov	 dl, BYTE PTR [eax+3]
  0004b	84 d2		 test	 dl, dl
  0004d	0f 84 a9 00 00
	00		 je	 $LN93@operator
  00053	80 f2 ea	 xor	 dl, -22			; ffffffeaH
  00056	88 55 ef	 mov	 BYTE PTR __t$[ebp+3], dl
  00059	8a 50 04	 mov	 dl, BYTE PTR [eax+4]
  0005c	84 d2		 test	 dl, dl
  0005e	0f 84 92 00 00
	00		 je	 $LN92@operator
  00064	80 f2 ed	 xor	 dl, -19			; ffffffedH
  00067	88 55 f0	 mov	 BYTE PTR __t$[ebp+4], dl
  0006a	8a 50 05	 mov	 dl, BYTE PTR [eax+5]
  0006d	84 d2		 test	 dl, dl
  0006f	74 7f		 je	 SHORT $LN91@operator
  00071	80 f2 ec	 xor	 dl, -20			; ffffffecH
  00074	88 55 f1	 mov	 BYTE PTR __t$[ebp+5], dl
  00077	8a 50 06	 mov	 dl, BYTE PTR [eax+6]
  0007a	84 d2		 test	 dl, dl
  0007c	74 6c		 je	 SHORT $LN90@operator
  0007e	80 f2 eb	 xor	 dl, -21			; ffffffebH
  00081	88 55 f2	 mov	 BYTE PTR __t$[ebp+6], dl
  00084	8a 50 07	 mov	 dl, BYTE PTR [eax+7]
  00087	84 d2		 test	 dl, dl
  00089	74 59		 je	 SHORT $LN89@operator
  0008b	80 f2 ea	 xor	 dl, -22			; ffffffeaH
  0008e	80 78 08 00	 cmp	 BYTE PTR [eax+8], 0
  00092	88 55 f3	 mov	 BYTE PTR __t$[ebp+7], dl
  00095	74 7b		 je	 SHORT $LN1@operator
  00097	8a 50 09	 mov	 dl, BYTE PTR [eax+9]
  0009a	84 d2		 test	 dl, dl
  0009c	74 40		 je	 SHORT $LN87@operator
  0009e	80 f2 ec	 xor	 dl, -20			; ffffffecH
  000a1	88 55 f5	 mov	 BYTE PTR __t$[ebp+9], dl
  000a4	8a 50 0a	 mov	 dl, BYTE PTR [eax+10]
  000a7	84 d2		 test	 dl, dl
  000a9	74 2d		 je	 SHORT $LN86@operator
  000ab	80 f2 eb	 xor	 dl, -21			; ffffffebH
  000ae	88 55 f6	 mov	 BYTE PTR __t$[ebp+10], dl
  000b1	8a 50 0b	 mov	 dl, BYTE PTR [eax+11]
  000b4	84 d2		 test	 dl, dl
  000b6	74 1a		 je	 SHORT $LN85@operator
  000b8	8a 40 0c	 mov	 al, BYTE PTR [eax+12]
  000bb	80 f2 ea	 xor	 dl, -22			; ffffffeaH
  000be	88 55 f7	 mov	 BYTE PTR __t$[ebp+11], dl
  000c1	84 c0		 test	 al, al
  000c3	74 07		 je	 SHORT $LN84@operator
  000c5	34 ed		 xor	 al, -19			; ffffffedH
  000c7	88 45 f8	 mov	 BYTE PTR __t$[ebp+12], al
  000ca	eb 46		 jmp	 SHORT $LN1@operator
$LN84@operator:
  000cc	c6 45 f8 ed	 mov	 BYTE PTR __t$[ebp+12], -19 ; ffffffedH
  000d0	eb 40		 jmp	 SHORT $LN1@operator
$LN85@operator:
  000d2	c6 45 f7 ea	 mov	 BYTE PTR __t$[ebp+11], -22 ; ffffffeaH
  000d6	eb 3a		 jmp	 SHORT $LN1@operator
$LN86@operator:
  000d8	c6 45 f6 eb	 mov	 BYTE PTR __t$[ebp+10], -21 ; ffffffebH
  000dc	eb 34		 jmp	 SHORT $LN1@operator
$LN87@operator:
  000de	c6 45 f5 ec	 mov	 BYTE PTR __t$[ebp+9], -20 ; ffffffecH
  000e2	eb 2e		 jmp	 SHORT $LN1@operator
$LN89@operator:
  000e4	c6 45 f3 ea	 mov	 BYTE PTR __t$[ebp+7], -22 ; ffffffeaH
  000e8	eb 28		 jmp	 SHORT $LN1@operator
$LN90@operator:
  000ea	c6 45 f2 eb	 mov	 BYTE PTR __t$[ebp+6], -21 ; ffffffebH
  000ee	eb 22		 jmp	 SHORT $LN1@operator
$LN91@operator:
  000f0	c6 45 f1 ec	 mov	 BYTE PTR __t$[ebp+5], -20 ; ffffffecH
  000f4	eb 1c		 jmp	 SHORT $LN1@operator
$LN92@operator:
  000f6	c6 45 f0 ed	 mov	 BYTE PTR __t$[ebp+4], -19 ; ffffffedH
  000fa	eb 16		 jmp	 SHORT $LN1@operator
$LN93@operator:
  000fc	c6 45 ef ea	 mov	 BYTE PTR __t$[ebp+3], -22 ; ffffffeaH
  00100	eb 10		 jmp	 SHORT $LN1@operator
$LN94@operator:
  00102	c6 45 ee eb	 mov	 BYTE PTR __t$[ebp+2], -21 ; ffffffebH
  00106	eb 0a		 jmp	 SHORT $LN1@operator
$LN95@operator:
  00108	c6 45 ed ec	 mov	 BYTE PTR __t$[ebp+1], -20 ; ffffffecH
  0010c	eb 04		 jmp	 SHORT $LN1@operator
$LN96@operator:
  0010e	c6 45 ec ed	 mov	 BYTE PTR __t$[ebp], -19	; ffffffedH
$LN1@operator:
  00112	6a 02		 push	 2
  00114	8d 45 ec	 lea	 eax, DWORD PTR __t$[ebp]
  00117	c6 45 f4 00	 mov	 BYTE PTR __t$[ebp+8], 0
  0011b	5a		 pop	 edx
$LL104@operator:
  0011c	81 30 ed ec eb
	ea		 xor	 DWORD PTR [eax], -353637139 ; eaebecedH
  00122	83 c0 04	 add	 eax, 4
  00125	4a		 dec	 edx
  00126	75 f4		 jne	 SHORT $LL104@operator
  00128	56		 push	 esi
  00129	8d 75 ec	 lea	 esi, DWORD PTR __t$[ebp]
  0012c	ff 15 00 00 00
	00		 call	 DWORD PTR __imp_?c_str@ioHashString@@QBEPBDXZ
$LL111@operator:
  00132	8a 08		 mov	 cl, BYTE PTR [eax]
  00134	3a 0e		 cmp	 cl, BYTE PTR [esi]
  00136	75 1a		 jne	 SHORT $LN112@operator
  00138	84 c9		 test	 cl, cl
  0013a	74 12		 je	 SHORT $LN113@operator
  0013c	8a 48 01	 mov	 cl, BYTE PTR [eax+1]
  0013f	3a 4e 01	 cmp	 cl, BYTE PTR [esi+1]
  00142	75 0e		 jne	 SHORT $LN112@operator
  00144	83 c0 02	 add	 eax, 2
  00147	83 c6 02	 add	 esi, 2
  0014a	84 c9		 test	 cl, cl
  0014c	75 e4		 jne	 SHORT $LL111@operator
$LN113@operator:
  0014e	33 c0		 xor	 eax, eax
  00150	eb 05		 jmp	 SHORT $LN114@operator
$LN112@operator:
  00152	1b c0		 sbb	 eax, eax
  00154	83 d8 ff	 sbb	 eax, -1
$LN114@operator:
  00157	33 c9		 xor	 ecx, ecx
  00159	85 c0		 test	 eax, eax
  0015b	0f 94 c0	 sete	 al

; 148  : }

  0015e	8b 4d fc	 mov	 ecx, DWORD PTR __$ArrayPad$[ebp]
  00161	33 cd		 xor	 ecx, ebp
  00163	5e		 pop	 esi
  00164	e8 00 00 00 00	 call	 @__security_check_cookie@4
  00169	c9		 leave
  0016a	c3		 ret	 0
??$?8$08@@YA_NABVioHashString@@AAY08$$CBD@Z ENDP	; operator==<9>
_TEXT	ENDS
PUBLIC	__$ArrayPad$
PUBLIC	??$?8$07@@YA_NABVioHashString@@AAY07$$CBD@Z	; operator==<8>
; Function compile flags: /Ogsp
;	COMDAT ??$?8$07@@YA_NABVioHashString@@AAY07$$CBD@Z
_TEXT	SEGMENT
__t$ = -16						; size = 8
__$ArrayPad$ = -4					; size = 4
_lhs$ = 8						; size = 4
_t$ = 12						; size = 4
??$?8$07@@YA_NABVioHashString@@AAY07$$CBD@Z PROC	; operator==<8>, COMDAT

; 146  : {

  00000	55		 push	 ebp
  00001	8b ec		 mov	 ebp, esp
  00003	83 ec 10	 sub	 esp, 16			; 00000010H
  00006	a1 00 00 00 00	 mov	 eax, DWORD PTR ___security_cookie
  0000b	33 c5		 xor	 eax, ebp
  0000d	89 45 fc	 mov	 DWORD PTR __$ArrayPad$[ebp], eax
  00010	8b 45 0c	 mov	 eax, DWORD PTR _t$[ebp]

; 147  : 	_ENCSTR(t, _t); return ( strcmp( lhs.c_str(), _t ) == 0 );

  00013	8a 10		 mov	 dl, BYTE PTR [eax]
  00015	56		 push	 esi
  00016	57		 push	 edi
  00017	8b 7d 08	 mov	 edi, DWORD PTR _lhs$[ebp]
  0001a	84 d2		 test	 dl, dl
  0001c	0f 84 d7 00 00
	00		 je	 $LN96@operator@2
  00022	80 f2 ed	 xor	 dl, -19			; ffffffedH
  00025	88 55 f0	 mov	 BYTE PTR __t$[ebp], dl
  00028	8a 50 01	 mov	 dl, BYTE PTR [eax+1]
  0002b	84 d2		 test	 dl, dl
  0002d	0f 84 c0 00 00
	00		 je	 $LN95@operator@2
  00033	80 f2 ec	 xor	 dl, -20			; ffffffecH
  00036	88 55 f1	 mov	 BYTE PTR __t$[ebp+1], dl
  00039	8a 50 02	 mov	 dl, BYTE PTR [eax+2]
  0003c	84 d2		 test	 dl, dl
  0003e	0f 84 a9 00 00
	00		 je	 $LN94@operator@2
  00044	80 f2 eb	 xor	 dl, -21			; ffffffebH
  00047	88 55 f2	 mov	 BYTE PTR __t$[ebp+2], dl
  0004a	8a 50 03	 mov	 dl, BYTE PTR [eax+3]
  0004d	84 d2		 test	 dl, dl
  0004f	0f 84 92 00 00
	00		 je	 $LN93@operator@2
  00055	80 f2 ea	 xor	 dl, -22			; ffffffeaH
  00058	88 55 f3	 mov	 BYTE PTR __t$[ebp+3], dl
  0005b	8a 50 04	 mov	 dl, BYTE PTR [eax+4]
  0005e	84 d2		 test	 dl, dl
  00060	74 7f		 je	 SHORT $LN92@operator@2
  00062	80 f2 ed	 xor	 dl, -19			; ffffffedH
  00065	88 55 f4	 mov	 BYTE PTR __t$[ebp+4], dl
  00068	8a 50 05	 mov	 dl, BYTE PTR [eax+5]
  0006b	84 d2		 test	 dl, dl
  0006d	74 6c		 je	 SHORT $LN91@operator@2
  0006f	80 f2 ec	 xor	 dl, -20			; ffffffecH
  00072	88 55 f5	 mov	 BYTE PTR __t$[ebp+5], dl
  00075	8a 50 06	 mov	 dl, BYTE PTR [eax+6]
  00078	84 d2		 test	 dl, dl
  0007a	74 59		 je	 SHORT $LN90@operator@2
  0007c	80 f2 eb	 xor	 dl, -21			; ffffffebH
  0007f	80 78 07 00	 cmp	 BYTE PTR [eax+7], 0
  00083	88 55 f6	 mov	 BYTE PTR __t$[ebp+6], dl
  00086	74 75		 je	 SHORT $LN1@operator@2
  00088	8a 50 08	 mov	 dl, BYTE PTR [eax+8]
  0008b	84 d2		 test	 dl, dl
  0008d	74 40		 je	 SHORT $LN88@operator@2
  0008f	80 f2 ed	 xor	 dl, -19			; ffffffedH
  00092	88 55 f8	 mov	 BYTE PTR __t$[ebp+8], dl
  00095	8a 50 09	 mov	 dl, BYTE PTR [eax+9]
  00098	84 d2		 test	 dl, dl
  0009a	74 2d		 je	 SHORT $LN87@operator@2
  0009c	80 f2 ec	 xor	 dl, -20			; ffffffecH
  0009f	88 55 f9	 mov	 BYTE PTR __t$[ebp+9], dl
  000a2	8a 50 0a	 mov	 dl, BYTE PTR [eax+10]
  000a5	84 d2		 test	 dl, dl
  000a7	74 1a		 je	 SHORT $LN86@operator@2
  000a9	8a 40 0b	 mov	 al, BYTE PTR [eax+11]
  000ac	80 f2 eb	 xor	 dl, -21			; ffffffebH
  000af	88 55 fa	 mov	 BYTE PTR __t$[ebp+10], dl
  000b2	84 c0		 test	 al, al
  000b4	74 07		 je	 SHORT $LN85@operator@2
  000b6	34 ea		 xor	 al, -22			; ffffffeaH
  000b8	88 45 fb	 mov	 BYTE PTR __t$[ebp+11], al
  000bb	eb 40		 jmp	 SHORT $LN1@operator@2
$LN85@operator@2:
  000bd	c6 45 fb ea	 mov	 BYTE PTR __t$[ebp+11], -22 ; ffffffeaH
  000c1	eb 3a		 jmp	 SHORT $LN1@operator@2
$LN86@operator@2:
  000c3	c6 45 fa eb	 mov	 BYTE PTR __t$[ebp+10], -21 ; ffffffebH
  000c7	eb 34		 jmp	 SHORT $LN1@operator@2
$LN87@operator@2:
  000c9	c6 45 f9 ec	 mov	 BYTE PTR __t$[ebp+9], -20 ; ffffffecH
  000cd	eb 2e		 jmp	 SHORT $LN1@operator@2
$LN88@operator@2:
  000cf	c6 45 f8 ed	 mov	 BYTE PTR __t$[ebp+8], -19 ; ffffffedH
  000d3	eb 28		 jmp	 SHORT $LN1@operator@2
$LN90@operator@2:
  000d5	c6 45 f6 eb	 mov	 BYTE PTR __t$[ebp+6], -21 ; ffffffebH
  000d9	eb 22		 jmp	 SHORT $LN1@operator@2
$LN91@operator@2:
  000db	c6 45 f5 ec	 mov	 BYTE PTR __t$[ebp+5], -20 ; ffffffecH
  000df	eb 1c		 jmp	 SHORT $LN1@operator@2
$LN92@operator@2:
  000e1	c6 45 f4 ed	 mov	 BYTE PTR __t$[ebp+4], -19 ; ffffffedH
  000e5	eb 16		 jmp	 SHORT $LN1@operator@2
$LN93@operator@2:
  000e7	c6 45 f3 ea	 mov	 BYTE PTR __t$[ebp+3], -22 ; ffffffeaH
  000eb	eb 10		 jmp	 SHORT $LN1@operator@2
$LN94@operator@2:
  000ed	c6 45 f2 eb	 mov	 BYTE PTR __t$[ebp+2], -21 ; ffffffebH
  000f1	eb 0a		 jmp	 SHORT $LN1@operator@2
$LN95@operator@2:
  000f3	c6 45 f1 ec	 mov	 BYTE PTR __t$[ebp+1], -20 ; ffffffecH
  000f7	eb 04		 jmp	 SHORT $LN1@operator@2
$LN96@operator@2:
  000f9	c6 45 f0 ed	 mov	 BYTE PTR __t$[ebp], -19	; ffffffedH
$LN1@operator@2:
  000fd	81 75 f0 ed ec
	eb ea		 xor	 DWORD PTR __t$[ebp], -353637139 ; eaebecedH
  00104	6a 04		 push	 4
  00106	c6 45 f7 00	 mov	 BYTE PTR __t$[ebp+7], 0
  0010a	58		 pop	 eax
$LL101@operator@2:
  0010b	8b c8		 mov	 ecx, eax
  0010d	81 e1 03 00 00
	80		 and	 ecx, -2147483645	; 80000003H
  00113	79 05		 jns	 SHORT $LN115@operator@2
  00115	49		 dec	 ecx
  00116	83 c9 fc	 or	 ecx, -4			; fffffffcH
  00119	41		 inc	 ecx
$LN115@operator@2:
  0011a	b2 ed		 mov	 dl, -19			; ffffffedH
  0011c	2a d1		 sub	 dl, cl
  0011e	30 54 05 f0	 xor	 BYTE PTR __t$[ebp+eax], dl
  00122	40		 inc	 eax
  00123	83 f8 07	 cmp	 eax, 7
  00126	7c e3		 jl	 SHORT $LL101@operator@2
  00128	8b cf		 mov	 ecx, edi
  0012a	8d 75 f0	 lea	 esi, DWORD PTR __t$[ebp]
  0012d	ff 15 00 00 00
	00		 call	 DWORD PTR __imp_?c_str@ioHashString@@QBEPBDXZ
$LL111@operator@2:
  00133	8a 08		 mov	 cl, BYTE PTR [eax]
  00135	3a 0e		 cmp	 cl, BYTE PTR [esi]
  00137	75 1a		 jne	 SHORT $LN112@operator@2
  00139	84 c9		 test	 cl, cl
  0013b	74 12		 je	 SHORT $LN113@operator@2
  0013d	8a 48 01	 mov	 cl, BYTE PTR [eax+1]
  00140	3a 4e 01	 cmp	 cl, BYTE PTR [esi+1]
  00143	75 0e		 jne	 SHORT $LN112@operator@2
  00145	83 c0 02	 add	 eax, 2
  00148	83 c6 02	 add	 esi, 2
  0014b	84 c9		 test	 cl, cl
  0014d	75 e4		 jne	 SHORT $LL111@operator@2
$LN113@operator@2:
  0014f	33 c0		 xor	 eax, eax
  00151	eb 05		 jmp	 SHORT $LN114@operator@2
$LN112@operator@2:
  00153	1b c0		 sbb	 eax, eax
  00155	83 d8 ff	 sbb	 eax, -1
$LN114@operator@2:
  00158	33 c9		 xor	 ecx, ecx
  0015a	85 c0		 test	 eax, eax
  0015c	0f 94 c0	 sete	 al

; 148  : }

  0015f	8b 4d fc	 mov	 ecx, DWORD PTR __$ArrayPad$[ebp]
  00162	5f		 pop	 edi
  00163	33 cd		 xor	 ecx, ebp
  00165	5e		 pop	 esi
  00166	e8 00 00 00 00	 call	 @__security_check_cookie@4
  0016b	c9		 leave
  0016c	c3		 ret	 0
??$?8$07@@YA_NABVioHashString@@AAY07$$CBD@Z ENDP	; operator==<8>
_TEXT	ENDS
PUBLIC	__$ArrayPad$
PUBLIC	??$?8$09@@YA_NABVioHashString@@AAY09$$CBD@Z	; operator==<10>
; Function compile flags: /Ogsp
;	COMDAT ??$?8$09@@YA_NABVioHashString@@AAY09$$CBD@Z
_TEXT	SEGMENT
__t$ = -20						; size = 10
__$ArrayPad$ = -4					; size = 4
_lhs$ = 8						; size = 4
_t$ = 12						; size = 4
??$?8$09@@YA_NABVioHashString@@AAY09$$CBD@Z PROC	; operator==<10>, COMDAT

; 146  : {

  00000	55		 push	 ebp
  00001	8b ec		 mov	 ebp, esp
  00003	83 ec 14	 sub	 esp, 20			; 00000014H
  00006	a1 00 00 00 00	 mov	 eax, DWORD PTR ___security_cookie
  0000b	33 c5		 xor	 eax, ebp
  0000d	89 45 fc	 mov	 DWORD PTR __$ArrayPad$[ebp], eax
  00010	8b 45 0c	 mov	 eax, DWORD PTR _t$[ebp]

; 147  : 	_ENCSTR(t, _t); return ( strcmp( lhs.c_str(), _t ) == 0 );

  00013	8a 10		 mov	 dl, BYTE PTR [eax]
  00015	8b 4d 08	 mov	 ecx, DWORD PTR _lhs$[ebp]
  00018	84 d2		 test	 dl, dl
  0001a	0f 84 0d 01 00
	00		 je	 $LN96@operator@3
  00020	80 f2 ed	 xor	 dl, -19			; ffffffedH
  00023	88 55 ec	 mov	 BYTE PTR __t$[ebp], dl
  00026	8a 50 01	 mov	 dl, BYTE PTR [eax+1]
  00029	84 d2		 test	 dl, dl
  0002b	0f 84 f6 00 00
	00		 je	 $LN95@operator@3
  00031	80 f2 ec	 xor	 dl, -20			; ffffffecH
  00034	88 55 ed	 mov	 BYTE PTR __t$[ebp+1], dl
  00037	8a 50 02	 mov	 dl, BYTE PTR [eax+2]
  0003a	84 d2		 test	 dl, dl
  0003c	0f 84 df 00 00
	00		 je	 $LN94@operator@3
  00042	80 f2 eb	 xor	 dl, -21			; ffffffebH
  00045	88 55 ee	 mov	 BYTE PTR __t$[ebp+2], dl
  00048	8a 50 03	 mov	 dl, BYTE PTR [eax+3]
  0004b	84 d2		 test	 dl, dl
  0004d	0f 84 c8 00 00
	00		 je	 $LN93@operator@3
  00053	80 f2 ea	 xor	 dl, -22			; ffffffeaH
  00056	88 55 ef	 mov	 BYTE PTR __t$[ebp+3], dl
  00059	8a 50 04	 mov	 dl, BYTE PTR [eax+4]
  0005c	84 d2		 test	 dl, dl
  0005e	0f 84 b1 00 00
	00		 je	 $LN92@operator@3
  00064	80 f2 ed	 xor	 dl, -19			; ffffffedH
  00067	88 55 f0	 mov	 BYTE PTR __t$[ebp+4], dl
  0006a	8a 50 05	 mov	 dl, BYTE PTR [eax+5]
  0006d	84 d2		 test	 dl, dl
  0006f	0f 84 9a 00 00
	00		 je	 $LN91@operator@3
  00075	80 f2 ec	 xor	 dl, -20			; ffffffecH
  00078	88 55 f1	 mov	 BYTE PTR __t$[ebp+5], dl
  0007b	8a 50 06	 mov	 dl, BYTE PTR [eax+6]
  0007e	84 d2		 test	 dl, dl
  00080	0f 84 83 00 00
	00		 je	 $LN90@operator@3
  00086	80 f2 eb	 xor	 dl, -21			; ffffffebH
  00089	88 55 f2	 mov	 BYTE PTR __t$[ebp+6], dl
  0008c	8a 50 07	 mov	 dl, BYTE PTR [eax+7]
  0008f	84 d2		 test	 dl, dl
  00091	74 70		 je	 SHORT $LN89@operator@3
  00093	80 f2 ea	 xor	 dl, -22			; ffffffeaH
  00096	88 55 f3	 mov	 BYTE PTR __t$[ebp+7], dl
  00099	8a 50 08	 mov	 dl, BYTE PTR [eax+8]
  0009c	84 d2		 test	 dl, dl
  0009e	74 5d		 je	 SHORT $LN88@operator@3
  000a0	80 f2 ed	 xor	 dl, -19			; ffffffedH
  000a3	80 78 09 00	 cmp	 BYTE PTR [eax+9], 0
  000a7	88 55 f4	 mov	 BYTE PTR __t$[ebp+8], dl
  000aa	0f 84 81 00 00
	00		 je	 $LN1@operator@3
  000b0	8a 50 0a	 mov	 dl, BYTE PTR [eax+10]
  000b3	84 d2		 test	 dl, dl
  000b5	74 40		 je	 SHORT $LN86@operator@3
  000b7	80 f2 eb	 xor	 dl, -21			; ffffffebH
  000ba	88 55 f6	 mov	 BYTE PTR __t$[ebp+10], dl
  000bd	8a 50 0b	 mov	 dl, BYTE PTR [eax+11]
  000c0	84 d2		 test	 dl, dl
  000c2	74 2d		 je	 SHORT $LN85@operator@3
  000c4	80 f2 ea	 xor	 dl, -22			; ffffffeaH
  000c7	88 55 f7	 mov	 BYTE PTR __t$[ebp+11], dl
  000ca	8a 50 0c	 mov	 dl, BYTE PTR [eax+12]
  000cd	84 d2		 test	 dl, dl
  000cf	74 1a		 je	 SHORT $LN84@operator@3
  000d1	8a 40 0d	 mov	 al, BYTE PTR [eax+13]
  000d4	80 f2 ed	 xor	 dl, -19			; ffffffedH
  000d7	88 55 f8	 mov	 BYTE PTR __t$[ebp+12], dl
  000da	84 c0		 test	 al, al
  000dc	74 07		 je	 SHORT $LN83@operator@3
  000de	34 ec		 xor	 al, -20			; ffffffecH
  000e0	88 45 f9	 mov	 BYTE PTR __t$[ebp+13], al
  000e3	eb 4c		 jmp	 SHORT $LN1@operator@3
$LN83@operator@3:
  000e5	c6 45 f9 ec	 mov	 BYTE PTR __t$[ebp+13], -20 ; ffffffecH
  000e9	eb 46		 jmp	 SHORT $LN1@operator@3
$LN84@operator@3:
  000eb	c6 45 f8 ed	 mov	 BYTE PTR __t$[ebp+12], -19 ; ffffffedH
  000ef	eb 40		 jmp	 SHORT $LN1@operator@3
$LN85@operator@3:
  000f1	c6 45 f7 ea	 mov	 BYTE PTR __t$[ebp+11], -22 ; ffffffeaH
  000f5	eb 3a		 jmp	 SHORT $LN1@operator@3
$LN86@operator@3:
  000f7	c6 45 f6 eb	 mov	 BYTE PTR __t$[ebp+10], -21 ; ffffffebH
  000fb	eb 34		 jmp	 SHORT $LN1@operator@3
$LN88@operator@3:
  000fd	c6 45 f4 ed	 mov	 BYTE PTR __t$[ebp+8], -19 ; ffffffedH
  00101	eb 2e		 jmp	 SHORT $LN1@operator@3
$LN89@operator@3:
  00103	c6 45 f3 ea	 mov	 BYTE PTR __t$[ebp+7], -22 ; ffffffeaH
  00107	eb 28		 jmp	 SHORT $LN1@operator@3
$LN90@operator@3:
  00109	c6 45 f2 eb	 mov	 BYTE PTR __t$[ebp+6], -21 ; ffffffebH
  0010d	eb 22		 jmp	 SHORT $LN1@operator@3
$LN91@operator@3:
  0010f	c6 45 f1 ec	 mov	 BYTE PTR __t$[ebp+5], -20 ; ffffffecH
  00113	eb 1c		 jmp	 SHORT $LN1@operator@3
$LN92@operator@3:
  00115	c6 45 f0 ed	 mov	 BYTE PTR __t$[ebp+4], -19 ; ffffffedH
  00119	eb 16		 jmp	 SHORT $LN1@operator@3
$LN93@operator@3:
  0011b	c6 45 ef ea	 mov	 BYTE PTR __t$[ebp+3], -22 ; ffffffeaH
  0011f	eb 10		 jmp	 SHORT $LN1@operator@3
$LN94@operator@3:
  00121	c6 45 ee eb	 mov	 BYTE PTR __t$[ebp+2], -21 ; ffffffebH
  00125	eb 0a		 jmp	 SHORT $LN1@operator@3
$LN95@operator@3:
  00127	c6 45 ed ec	 mov	 BYTE PTR __t$[ebp+1], -20 ; ffffffecH
  0012b	eb 04		 jmp	 SHORT $LN1@operator@3
$LN96@operator@3:
  0012d	c6 45 ec ed	 mov	 BYTE PTR __t$[ebp], -19	; ffffffedH
$LN1@operator@3:
  00131	6a 02		 push	 2
  00133	8d 45 ec	 lea	 eax, DWORD PTR __t$[ebp]
  00136	c6 45 f5 00	 mov	 BYTE PTR __t$[ebp+9], 0
  0013a	5a		 pop	 edx
$LL104@operator@3:
  0013b	81 30 ed ec eb
	ea		 xor	 DWORD PTR [eax], -353637139 ; eaebecedH
  00141	83 c0 04	 add	 eax, 4
  00144	4a		 dec	 edx
  00145	75 f4		 jne	 SHORT $LL104@operator@3
  00147	80 75 f4 ed	 xor	 BYTE PTR __t$[ebp+8], -19 ; ffffffedH
  0014b	56		 push	 esi
  0014c	8d 75 ec	 lea	 esi, DWORD PTR __t$[ebp]
  0014f	ff 15 00 00 00
	00		 call	 DWORD PTR __imp_?c_str@ioHashString@@QBEPBDXZ
$LL111@operator@3:
  00155	8a 08		 mov	 cl, BYTE PTR [eax]
  00157	3a 0e		 cmp	 cl, BYTE PTR [esi]
  00159	75 1a		 jne	 SHORT $LN112@operator@3
  0015b	84 c9		 test	 cl, cl
  0015d	74 12		 je	 SHORT $LN113@operator@3
  0015f	8a 48 01	 mov	 cl, BYTE PTR [eax+1]
  00162	3a 4e 01	 cmp	 cl, BYTE PTR [esi+1]
  00165	75 0e		 jne	 SHORT $LN112@operator@3
  00167	83 c0 02	 add	 eax, 2
  0016a	83 c6 02	 add	 esi, 2
  0016d	84 c9		 test	 cl, cl
  0016f	75 e4		 jne	 SHORT $LL111@operator@3
$LN113@operator@3:
  00171	33 c0		 xor	 eax, eax
  00173	eb 05		 jmp	 SHORT $LN114@operator@3
$LN112@operator@3:
  00175	1b c0		 sbb	 eax, eax
  00177	83 d8 ff	 sbb	 eax, -1
$LN114@operator@3:
  0017a	33 c9		 xor	 ecx, ecx
  0017c	85 c0		 test	 eax, eax
  0017e	0f 94 c0	 sete	 al

; 148  : }

  00181	8b 4d fc	 mov	 ecx, DWORD PTR __$ArrayPad$[ebp]
  00184	33 cd		 xor	 ecx, ebp
  00186	5e		 pop	 esi
  00187	e8 00 00 00 00	 call	 @__security_check_cookie@4
  0018c	c9		 leave
  0018d	c3		 ret	 0
??$?8$09@@YA_NABVioHashString@@AAY09$$CBD@Z ENDP	; operator==<10>
_TEXT	ENDS
PUBLIC	__$ArrayPad$
PUBLIC	??$?8$0P@@@YA_NABVioHashString@@AAY0P@$$CBD@Z	; operator==<15>
; Function compile flags: /Ogsp
;	COMDAT ??$?8$0P@@@YA_NABVioHashString@@AAY0P@$$CBD@Z
_TEXT	SEGMENT
__t$ = -24						; size = 15
__$ArrayPad$ = -4					; size = 4
_lhs$ = 8						; size = 4
_t$ = 12						; size = 4
??$?8$0P@@@YA_NABVioHashString@@AAY0P@$$CBD@Z PROC	; operator==<15>, COMDAT

; 146  : {

  00000	55		 push	 ebp
  00001	8b ec		 mov	 ebp, esp
  00003	83 ec 18	 sub	 esp, 24			; 00000018H
  00006	a1 00 00 00 00	 mov	 eax, DWORD PTR ___security_cookie
  0000b	33 c5		 xor	 eax, ebp
  0000d	89 45 fc	 mov	 DWORD PTR __$ArrayPad$[ebp], eax
  00010	8b 45 0c	 mov	 eax, DWORD PTR _t$[ebp]

; 147  : 	_ENCSTR(t, _t); return ( strcmp( lhs.c_str(), _t ) == 0 );

  00013	8a 10		 mov	 dl, BYTE PTR [eax]
  00015	56		 push	 esi
  00016	57		 push	 edi
  00017	8b 7d 08	 mov	 edi, DWORD PTR _lhs$[ebp]
  0001a	84 d2		 test	 dl, dl
  0001c	0f 84 75 01 00
	00		 je	 $LN96@operator@4
  00022	80 f2 ed	 xor	 dl, -19			; ffffffedH
  00025	88 55 e8	 mov	 BYTE PTR __t$[ebp], dl
  00028	8a 50 01	 mov	 dl, BYTE PTR [eax+1]
  0002b	84 d2		 test	 dl, dl
  0002d	0f 84 5e 01 00
	00		 je	 $LN95@operator@4
  00033	b1 ec		 mov	 cl, -20			; ffffffecH
  00035	32 d1		 xor	 dl, cl
  00037	88 55 e9	 mov	 BYTE PTR __t$[ebp+1], dl
  0003a	8a 50 02	 mov	 dl, BYTE PTR [eax+2]
  0003d	84 d2		 test	 dl, dl
  0003f	0f 84 46 01 00
	00		 je	 $LN94@operator@4
  00045	80 f2 eb	 xor	 dl, -21			; ffffffebH
  00048	88 55 ea	 mov	 BYTE PTR __t$[ebp+2], dl
  0004b	8a 50 03	 mov	 dl, BYTE PTR [eax+3]
  0004e	84 d2		 test	 dl, dl
  00050	0f 84 2f 01 00
	00		 je	 $LN93@operator@4
  00056	80 f2 ea	 xor	 dl, -22			; ffffffeaH
  00059	88 55 eb	 mov	 BYTE PTR __t$[ebp+3], dl
  0005c	8a 50 04	 mov	 dl, BYTE PTR [eax+4]
  0005f	84 d2		 test	 dl, dl
  00061	0f 84 18 01 00
	00		 je	 $LN92@operator@4
  00067	80 f2 ed	 xor	 dl, -19			; ffffffedH
  0006a	88 55 ec	 mov	 BYTE PTR __t$[ebp+4], dl
  0006d	8a 50 05	 mov	 dl, BYTE PTR [eax+5]
  00070	84 d2		 test	 dl, dl
  00072	0f 84 02 01 00
	00		 je	 $LN91@operator@4
  00078	32 d1		 xor	 dl, cl
  0007a	88 55 ed	 mov	 BYTE PTR __t$[ebp+5], dl
  0007d	8a 50 06	 mov	 dl, BYTE PTR [eax+6]
  00080	84 d2		 test	 dl, dl
  00082	0f 84 ec 00 00
	00		 je	 $LN90@operator@4
  00088	80 f2 eb	 xor	 dl, -21			; ffffffebH
  0008b	88 55 ee	 mov	 BYTE PTR __t$[ebp+6], dl
  0008e	8a 50 07	 mov	 dl, BYTE PTR [eax+7]
  00091	84 d2		 test	 dl, dl
  00093	0f 84 d5 00 00
	00		 je	 $LN89@operator@4
  00099	80 f2 ea	 xor	 dl, -22			; ffffffeaH
  0009c	88 55 ef	 mov	 BYTE PTR __t$[ebp+7], dl
  0009f	8a 50 08	 mov	 dl, BYTE PTR [eax+8]
  000a2	84 d2		 test	 dl, dl
  000a4	0f 84 be 00 00
	00		 je	 $LN88@operator@4
  000aa	80 f2 ed	 xor	 dl, -19			; ffffffedH
  000ad	88 55 f0	 mov	 BYTE PTR __t$[ebp+8], dl
  000b0	8a 50 09	 mov	 dl, BYTE PTR [eax+9]
  000b3	84 d2		 test	 dl, dl
  000b5	0f 84 a8 00 00
	00		 je	 $LN87@operator@4
  000bb	32 d1		 xor	 dl, cl
  000bd	88 55 f1	 mov	 BYTE PTR __t$[ebp+9], dl
  000c0	8a 50 0a	 mov	 dl, BYTE PTR [eax+10]
  000c3	84 d2		 test	 dl, dl
  000c5	0f 84 92 00 00
	00		 je	 $LN86@operator@4
  000cb	80 f2 eb	 xor	 dl, -21			; ffffffebH
  000ce	88 55 f2	 mov	 BYTE PTR __t$[ebp+10], dl
  000d1	8a 50 0b	 mov	 dl, BYTE PTR [eax+11]
  000d4	84 d2		 test	 dl, dl
  000d6	74 7f		 je	 SHORT $LN85@operator@4
  000d8	80 f2 ea	 xor	 dl, -22			; ffffffeaH
  000db	88 55 f3	 mov	 BYTE PTR __t$[ebp+11], dl
  000de	8a 50 0c	 mov	 dl, BYTE PTR [eax+12]
  000e1	84 d2		 test	 dl, dl
  000e3	74 6c		 je	 SHORT $LN84@operator@4
  000e5	80 f2 ed	 xor	 dl, -19			; ffffffedH
  000e8	88 55 f4	 mov	 BYTE PTR __t$[ebp+12], dl
  000eb	8a 50 0d	 mov	 dl, BYTE PTR [eax+13]
  000ee	84 d2		 test	 dl, dl
  000f0	74 5a		 je	 SHORT $LN83@operator@4
  000f2	32 d1		 xor	 dl, cl
  000f4	80 78 0e 00	 cmp	 BYTE PTR [eax+14], 0
  000f8	88 55 f5	 mov	 BYTE PTR __t$[ebp+13], dl
  000fb	0f 84 9a 00 00
	00		 je	 $LN1@operator@4
  00101	8a 50 0f	 mov	 dl, BYTE PTR [eax+15]
  00104	84 d2		 test	 dl, dl
  00106	74 3e		 je	 SHORT $LN81@operator@4
  00108	80 f2 ea	 xor	 dl, -22			; ffffffeaH
  0010b	88 55 f7	 mov	 BYTE PTR __t$[ebp+15], dl
  0010e	8a 50 10	 mov	 dl, BYTE PTR [eax+16]
  00111	84 d2		 test	 dl, dl
  00113	74 2b		 je	 SHORT $LN80@operator@4
  00115	80 f2 ed	 xor	 dl, -19			; ffffffedH
  00118	88 55 f8	 mov	 BYTE PTR __t$[ebp+16], dl
  0011b	8a 50 11	 mov	 dl, BYTE PTR [eax+17]
  0011e	84 d2		 test	 dl, dl
  00120	74 19		 je	 SHORT $LN79@operator@4
  00122	8a 40 12	 mov	 al, BYTE PTR [eax+18]
  00125	32 d1		 xor	 dl, cl
  00127	88 55 f9	 mov	 BYTE PTR __t$[ebp+17], dl
  0012a	84 c0		 test	 al, al
  0012c	74 07		 je	 SHORT $LN78@operator@4
  0012e	34 eb		 xor	 al, -21			; ffffffebH
  00130	88 45 fa	 mov	 BYTE PTR __t$[ebp+18], al
  00133	eb 66		 jmp	 SHORT $LN1@operator@4
$LN78@operator@4:
  00135	c6 45 fa eb	 mov	 BYTE PTR __t$[ebp+18], -21 ; ffffffebH
  00139	eb 60		 jmp	 SHORT $LN1@operator@4
$LN79@operator@4:
  0013b	88 4d f9	 mov	 BYTE PTR __t$[ebp+17], cl
  0013e	eb 5b		 jmp	 SHORT $LN1@operator@4
$LN80@operator@4:
  00140	c6 45 f8 ed	 mov	 BYTE PTR __t$[ebp+16], -19 ; ffffffedH
  00144	eb 55		 jmp	 SHORT $LN1@operator@4
$LN81@operator@4:
  00146	c6 45 f7 ea	 mov	 BYTE PTR __t$[ebp+15], -22 ; ffffffeaH
  0014a	eb 4f		 jmp	 SHORT $LN1@operator@4
$LN83@operator@4:
  0014c	88 4d f5	 mov	 BYTE PTR __t$[ebp+13], cl
  0014f	eb 4a		 jmp	 SHORT $LN1@operator@4
$LN84@operator@4:
  00151	c6 45 f4 ed	 mov	 BYTE PTR __t$[ebp+12], -19 ; ffffffedH
  00155	eb 44		 jmp	 SHORT $LN1@operator@4
$LN85@operator@4:
  00157	c6 45 f3 ea	 mov	 BYTE PTR __t$[ebp+11], -22 ; ffffffeaH
  0015b	eb 3e		 jmp	 SHORT $LN1@operator@4
$LN86@operator@4:
  0015d	c6 45 f2 eb	 mov	 BYTE PTR __t$[ebp+10], -21 ; ffffffebH
  00161	eb 38		 jmp	 SHORT $LN1@operator@4
$LN87@operator@4:
  00163	88 4d f1	 mov	 BYTE PTR __t$[ebp+9], cl
  00166	eb 33		 jmp	 SHORT $LN1@operator@4
$LN88@operator@4:
  00168	c6 45 f0 ed	 mov	 BYTE PTR __t$[ebp+8], -19 ; ffffffedH
  0016c	eb 2d		 jmp	 SHORT $LN1@operator@4
$LN89@operator@4:
  0016e	c6 45 ef ea	 mov	 BYTE PTR __t$[ebp+7], -22 ; ffffffeaH
  00172	eb 27		 jmp	 SHORT $LN1@operator@4
$LN90@operator@4:
  00174	c6 45 ee eb	 mov	 BYTE PTR __t$[ebp+6], -21 ; ffffffebH
  00178	eb 21		 jmp	 SHORT $LN1@operator@4
$LN91@operator@4:
  0017a	88 4d ed	 mov	 BYTE PTR __t$[ebp+5], cl
  0017d	eb 1c		 jmp	 SHORT $LN1@operator@4
$LN92@operator@4:
  0017f	c6 45 ec ed	 mov	 BYTE PTR __t$[ebp+4], -19 ; ffffffedH
  00183	eb 16		 jmp	 SHORT $LN1@operator@4
$LN93@operator@4:
  00185	c6 45 eb ea	 mov	 BYTE PTR __t$[ebp+3], -22 ; ffffffeaH
  00189	eb 10		 jmp	 SHORT $LN1@operator@4
$LN94@operator@4:
  0018b	c6 45 ea eb	 mov	 BYTE PTR __t$[ebp+2], -21 ; ffffffebH
  0018f	eb 0a		 jmp	 SHORT $LN1@operator@4
$LN95@operator@4:
  00191	c6 45 e9 ec	 mov	 BYTE PTR __t$[ebp+1], -20 ; ffffffecH
  00195	eb 04		 jmp	 SHORT $LN1@operator@4
$LN96@operator@4:
  00197	c6 45 e8 ed	 mov	 BYTE PTR __t$[ebp], -19	; ffffffedH
$LN1@operator@4:
  0019b	6a 03		 push	 3
  0019d	8d 45 e8	 lea	 eax, DWORD PTR __t$[ebp]
  001a0	c6 45 f6 00	 mov	 BYTE PTR __t$[ebp+14], 0
  001a4	5a		 pop	 edx
$LL104@operator@4:
  001a5	81 30 ed ec eb
	ea		 xor	 DWORD PTR [eax], -353637139 ; eaebecedH
  001ab	83 c0 04	 add	 eax, 4
  001ae	4a		 dec	 edx
  001af	75 f4		 jne	 SHORT $LL104@operator@4
  001b1	6a 0c		 push	 12			; 0000000cH
  001b3	58		 pop	 eax
$LL101@operator@4:
  001b4	8b c8		 mov	 ecx, eax
  001b6	81 e1 03 00 00
	80		 and	 ecx, -2147483645	; 80000003H
  001bc	79 05		 jns	 SHORT $LN115@operator@4
  001be	49		 dec	 ecx
  001bf	83 c9 fc	 or	 ecx, -4			; fffffffcH
  001c2	41		 inc	 ecx
$LN115@operator@4:
  001c3	b2 ed		 mov	 dl, -19			; ffffffedH
  001c5	2a d1		 sub	 dl, cl
  001c7	30 54 05 e8	 xor	 BYTE PTR __t$[ebp+eax], dl
  001cb	40		 inc	 eax
  001cc	83 f8 0e	 cmp	 eax, 14			; 0000000eH
  001cf	7c e3		 jl	 SHORT $LL101@operator@4
  001d1	8b cf		 mov	 ecx, edi
  001d3	8d 75 e8	 lea	 esi, DWORD PTR __t$[ebp]
  001d6	ff 15 00 00 00
	00		 call	 DWORD PTR __imp_?c_str@ioHashString@@QBEPBDXZ
$LL111@operator@4:
  001dc	8a 08		 mov	 cl, BYTE PTR [eax]
  001de	3a 0e		 cmp	 cl, BYTE PTR [esi]
  001e0	75 1a		 jne	 SHORT $LN112@operator@4
  001e2	84 c9		 test	 cl, cl
  001e4	74 12		 je	 SHORT $LN113@operator@4
  001e6	8a 48 01	 mov	 cl, BYTE PTR [eax+1]
  001e9	3a 4e 01	 cmp	 cl, BYTE PTR [esi+1]
  001ec	75 0e		 jne	 SHORT $LN112@operator@4
  001ee	83 c0 02	 add	 eax, 2
  001f1	83 c6 02	 add	 esi, 2
  001f4	84 c9		 test	 cl, cl
  001f6	75 e4		 jne	 SHORT $LL111@operator@4
$LN113@operator@4:
  001f8	33 c0		 xor	 eax, eax
  001fa	eb 05		 jmp	 SHORT $LN114@operator@4
$LN112@operator@4:
  001fc	1b c0		 sbb	 eax, eax
  001fe	83 d8 ff	 sbb	 eax, -1
$LN114@operator@4:
  00201	33 c9		 xor	 ecx, ecx
  00203	85 c0		 test	 eax, eax
  00205	0f 94 c0	 sete	 al

; 148  : }

  00208	8b 4d fc	 mov	 ecx, DWORD PTR __$ArrayPad$[ebp]
  0020b	5f		 pop	 edi
  0020c	33 cd		 xor	 ecx, ebp
  0020e	5e		 pop	 esi
  0020f	e8 00 00 00 00	 call	 @__security_check_cookie@4
  00214	c9		 leave
  00215	c3		 ret	 0
??$?8$0P@@@YA_NABVioHashString@@AAY0P@$$CBD@Z ENDP	; operator==<15>
_TEXT	ENDS
PUBLIC	??$_Cons_val@V?$allocator@W4ItemType@SettingKeyItemWnd@@@std@@W4ItemType@SettingKeyItemWnd@@W434@@std@@YAXAAV?$allocator@W4ItemType@SettingKeyItemWnd@@@0@PAW4ItemType@SettingKeyItemWnd@@$$QAW423@@Z ; std::_Cons_val<std::allocator<enum SettingKeyItemWnd::ItemType>,enum SettingKeyItemWnd::ItemType,enum SettingKeyItemWnd::ItemType>
; Function compile flags: /Ogsp
; File c:\program files (x86)\microsoft visual studio 10.0\vc\include\xmemory
;	COMDAT ??$_Cons_val@V?$allocator@W4ItemType@SettingKeyItemWnd@@@std@@W4ItemType@SettingKeyItemWnd@@W434@@std@@YAXAAV?$allocator@W4ItemType@SettingKeyItemWnd@@@0@PAW4ItemType@SettingKeyItemWnd@@$$QAW423@@Z
_TEXT	SEGMENT
__Alval$ = 8						; size = 4
__Pdest$ = 12						; size = 4
__Src$ = 16						; size = 4
??$_Cons_val@V?$allocator@W4ItemType@SettingKeyItemWnd@@@std@@W4ItemType@SettingKeyItemWnd@@W434@@std@@YAXAAV?$allocator@W4ItemType@SettingKeyItemWnd@@@0@PAW4ItemType@SettingKeyItemWnd@@$$QAW423@@Z PROC ; std::_Cons_val<std::allocator<enum SettingKeyItemWnd::ItemType>,enum SettingKeyItemWnd::ItemType,enum SettingKeyItemWnd::ItemType>, COMDAT

; 279  : 	{	// construct using allocator

  00000	55		 push	 ebp
  00001	8b ec		 mov	 ebp, esp

; 280  : 	_Alval.construct(_Pdest, _STD forward<_Ty2>(_Src));

  00003	8b 45 0c	 mov	 eax, DWORD PTR __Pdest$[ebp]
  00006	85 c0		 test	 eax, eax
  00008	74 07		 je	 SHORT $LN7@Cons_val
  0000a	8b 4d 10	 mov	 ecx, DWORD PTR __Src$[ebp]
  0000d	8b 09		 mov	 ecx, DWORD PTR [ecx]
  0000f	89 08		 mov	 DWORD PTR [eax], ecx
$LN7@Cons_val:

; 281  : 	}

  00011	5d		 pop	 ebp
  00012	c3		 ret	 0
??$_Cons_val@V?$allocator@W4ItemType@SettingKeyItemWnd@@@std@@W4ItemType@SettingKeyItemWnd@@W434@@std@@YAXAAV?$allocator@W4ItemType@SettingKeyItemWnd@@@0@PAW4ItemType@SettingKeyItemWnd@@$$QAW423@@Z ENDP ; std::_Cons_val<std::allocator<enum SettingKeyItemWnd::ItemType>,enum SettingKeyItemWnd::ItemType,enum SettingKeyItemWnd::ItemType>
_TEXT	ENDS
PUBLIC	??$_Move@PAW4ItemType@SettingKeyItemWnd@@PAW412@@std@@YAPAW4ItemType@SettingKeyItemWnd@@PAW412@00@Z ; std::_Move<enum SettingKeyItemWnd::ItemType *,enum SettingKeyItemWnd::ItemType *>
; Function compile flags: /Ogsp
; File c:\program files (x86)\microsoft visual studio 10.0\vc\include\xutility
;	COMDAT ??$_Move@PAW4ItemType@SettingKeyItemWnd@@PAW412@@std@@YAPAW4ItemType@SettingKeyItemWnd@@PAW412@00@Z
_TEXT	SEGMENT
__Cat$550946 = -4					; size = 1
__First$ = 8						; size = 4
__Last$ = 12						; size = 4
__Dest$ = 16						; size = 4
??$_Move@PAW4ItemType@SettingKeyItemWnd@@PAW412@@std@@YAPAW4ItemType@SettingKeyItemWnd@@PAW412@00@Z PROC ; std::_Move<enum SettingKeyItemWnd::ItemType *,enum SettingKeyItemWnd::ItemType *>, COMDAT

; 2533 : 	{	// move [_First, _Last) to [_Dest, ...), unchecked

  00000	55		 push	 ebp
  00001	8b ec		 mov	 ebp, esp
  00003	51		 push	 ecx

; 2534 : 	return (_Move(_First, _Last,
; 2535 : 		_Dest, _Ptr_cat(_First, _Dest)));

  00004	ff 75 fc	 push	 DWORD PTR __Cat$550946[ebp]
  00007	ff 75 10	 push	 DWORD PTR __Dest$[ebp]
  0000a	ff 75 0c	 push	 DWORD PTR __Last$[ebp]
  0000d	ff 75 08	 push	 DWORD PTR __First$[ebp]
  00010	e8 00 00 00 00	 call	 ??$_Move@PAW4ItemType@SettingKeyItemWnd@@PAW412@@std@@YAPAW4ItemType@SettingKeyItemWnd@@PAW412@00U_Scalar_ptr_iterator_tag@0@@Z ; std::_Move<enum SettingKeyItemWnd::ItemType *,enum SettingKeyItemWnd::ItemType *>
  00015	83 c4 10	 add	 esp, 16			; 00000010H

; 2536 : 	}

  00018	c9		 leave
  00019	c3		 ret	 0
??$_Move@PAW4ItemType@SettingKeyItemWnd@@PAW412@@std@@YAPAW4ItemType@SettingKeyItemWnd@@PAW412@00@Z ENDP ; std::_Move<enum SettingKeyItemWnd::ItemType *,enum SettingKeyItemWnd::ItemType *>
_TEXT	ENDS
PUBLIC	??$_Destroy_range@V?$allocator@W4ItemType@SettingKeyItemWnd@@@std@@@std@@YAXPAW4ItemType@SettingKeyItemWnd@@0AAV?$allocator@W4ItemType@SettingKeyItemWnd@@@0@@Z ; std::_Destroy_range<std::allocator<enum SettingKeyItemWnd::ItemType> >
; Function compile flags: /Ogsp
; File c:\program files (x86)\microsoft visual studio 10.0\vc\include\xmemory
;	COMDAT ??$_Destroy_range@V?$allocator@W4ItemType@SettingKeyItemWnd@@@std@@@std@@YAXPAW4ItemType@SettingKeyItemWnd@@0AAV?$allocator@W4ItemType@SettingKeyItemWnd@@@0@@Z
_TEXT	SEGMENT
__First$ = 8						; size = 4
__Last$ = 12						; size = 4
__Al$ = 16						; size = 4
??$_Destroy_range@V?$allocator@W4ItemType@SettingKeyItemWnd@@@std@@@std@@YAXPAW4ItemType@SettingKeyItemWnd@@0AAV?$allocator@W4ItemType@SettingKeyItemWnd@@@0@@Z PROC ; std::_Destroy_range<std::allocator<enum SettingKeyItemWnd::ItemType> >, COMDAT

; 88   : 	_Destroy_range(_First, _Last, _Al, _Ptr_cat(_First, _Last));
; 89   : 	}

  00000	c3		 ret	 0
??$_Destroy_range@V?$allocator@W4ItemType@SettingKeyItemWnd@@@std@@@std@@YAXPAW4ItemType@SettingKeyItemWnd@@0AAV?$allocator@W4ItemType@SettingKeyItemWnd@@@0@@Z ENDP ; std::_Destroy_range<std::allocator<enum SettingKeyItemWnd::ItemType> >
_TEXT	ENDS
PUBLIC	??$_Uninitialized_move@PAW4ItemType@SettingKeyItemWnd@@PAW412@V?$allocator@W4ItemType@SettingKeyItemWnd@@@std@@@std@@YAPAW4ItemType@SettingKeyItemWnd@@PAW412@00AAV?$allocator@W4ItemType@SettingKeyItemWnd@@@0@@Z ; std::_Uninitialized_move<enum SettingKeyItemWnd::ItemType *,enum SettingKeyItemWnd::ItemType *,std::allocator<enum SettingKeyItemWnd::ItemType> >
; Function compile flags: /Ogsp
; File c:\program files (x86)\microsoft visual studio 10.0\vc\include\memory
;	COMDAT ??$_Uninitialized_move@PAW4ItemType@SettingKeyItemWnd@@PAW412@V?$allocator@W4ItemType@SettingKeyItemWnd@@@std@@@std@@YAPAW4ItemType@SettingKeyItemWnd@@PAW412@00AAV?$allocator@W4ItemType@SettingKeyItemWnd@@@0@@Z
_TEXT	SEGMENT
__First$ = 8						; size = 4
__Last$ = 12						; size = 4
__Dest$ = 16						; size = 4
__Al$ = 20						; size = 4
??$_Uninitialized_move@PAW4ItemType@SettingKeyItemWnd@@PAW412@V?$allocator@W4ItemType@SettingKeyItemWnd@@@std@@@std@@YAPAW4ItemType@SettingKeyItemWnd@@PAW412@00AAV?$allocator@W4ItemType@SettingKeyItemWnd@@@0@@Z PROC ; std::_Uninitialized_move<enum SettingKeyItemWnd::ItemType *,enum SettingKeyItemWnd::ItemType *,std::allocator<enum SettingKeyItemWnd::ItemType> >, COMDAT

; 469  : 	{	// move [_First, _Last) to raw _Dest, using _Al

  00000	55		 push	 ebp
  00001	8b ec		 mov	 ebp, esp
  00003	56		 push	 esi

; 470  : 	return (_Uninit_move(_First, _Last, _Dest, _Al,
; 471  : 		_Val_type(_First), _Ptr_cat(_First, _Dest)));

  00004	8b 75 0c	 mov	 esi, DWORD PTR __Last$[ebp]
  00007	2b 75 08	 sub	 esi, DWORD PTR __First$[ebp]
  0000a	c1 fe 02	 sar	 esi, 2
  0000d	c1 e6 02	 shl	 esi, 2
  00010	56		 push	 esi
  00011	ff 75 08	 push	 DWORD PTR __First$[ebp]
  00014	ff 75 10	 push	 DWORD PTR __Dest$[ebp]
  00017	ff 15 00 00 00
	00		 call	 DWORD PTR __imp__memmove
  0001d	83 c4 0c	 add	 esp, 12			; 0000000cH
  00020	03 c6		 add	 eax, esi
  00022	5e		 pop	 esi

; 472  : 	}

  00023	5d		 pop	 ebp
  00024	c3		 ret	 0
??$_Uninitialized_move@PAW4ItemType@SettingKeyItemWnd@@PAW412@V?$allocator@W4ItemType@SettingKeyItemWnd@@@std@@@std@@YAPAW4ItemType@SettingKeyItemWnd@@PAW412@00AAV?$allocator@W4ItemType@SettingKeyItemWnd@@@0@@Z ENDP ; std::_Uninitialized_move<enum SettingKeyItemWnd::ItemType *,enum SettingKeyItemWnd::ItemType *,std::allocator<enum SettingKeyItemWnd::ItemType> >
_TEXT	ENDS
PUBLIC	?StringCbCopyA@@YGJPADIPBD@Z			; StringCbCopyA
; Function compile flags: /Ogsp
; File c:\program files (x86)\microsoft sdks\windows\v7.0a\include\strsafe.h
;	COMDAT ?StringCbCopyA@@YGJPADIPBD@Z
_TEXT	SEGMENT
_pszDest$ = 8						; size = 4
_cbDest$ = 12						; size = 4
_pszSrc$ = 16						; size = 4
?StringCbCopyA@@YGJPADIPBD@Z PROC			; StringCbCopyA, COMDAT

; 582  : {

  00000	55		 push	 ebp
  00001	8b ec		 mov	 ebp, esp

; 583  :     HRESULT hr;
; 584  :     size_t cchDest = cbDest / sizeof(char);
; 585  : 
; 586  :     hr = StringValidateDestA(pszDest, cchDest, STRSAFE_MAX_CCH);

  00003	8b 4d 0c	 mov	 ecx, DWORD PTR _cbDest$[ebp]
  00006	33 c0		 xor	 eax, eax
  00008	85 c9		 test	 ecx, ecx
  0000a	74 08		 je	 SHORT $LN4@StringCbCo
  0000c	81 f9 ff ff ff
	7f		 cmp	 ecx, 2147483647		; 7fffffffH
  00012	76 05		 jbe	 SHORT $LN5@StringCbCo
$LN4@StringCbCo:
  00014	b8 57 00 07 80	 mov	 eax, -2147024809	; 80070057H
$LN5@StringCbCo:

; 587  : 
; 588  :     if (SUCCEEDED(hr))

  00019	85 c0		 test	 eax, eax
  0001b	78 40		 js	 SHORT $LN1@StringCbCo

; 589  :     {
; 590  :         hr = StringCopyWorkerA(pszDest,
; 591  :                                cchDest,
; 592  :                                NULL,
; 593  :                                pszSrc,
; 594  :                                STRSAFE_MAX_LENGTH);

  0001d	8b 45 08	 mov	 eax, DWORD PTR _pszDest$[ebp]
  00020	53		 push	 ebx
  00021	33 db		 xor	 ebx, ebx
  00023	56		 push	 esi
  00024	8b f1		 mov	 esi, ecx
  00026	85 c9		 test	 ecx, ecx
  00028	74 26		 je	 SHORT $LN16@StringCbCo
  0002a	8b 55 10	 mov	 edx, DWORD PTR _pszSrc$[ebp]
  0002d	57		 push	 edi
  0002e	bf fe ff ff 7f	 mov	 edi, 2147483646		; 7ffffffeH
  00033	2b f9		 sub	 edi, ecx
  00035	2b d0		 sub	 edx, eax
$LL11@StringCbCo:
  00037	8d 0c 37	 lea	 ecx, DWORD PTR [edi+esi]
  0003a	85 c9		 test	 ecx, ecx
  0003c	74 0d		 je	 SHORT $LN10@StringCbCo
  0003e	8a 0c 02	 mov	 cl, BYTE PTR [edx+eax]
  00041	84 c9		 test	 cl, cl
  00043	74 06		 je	 SHORT $LN10@StringCbCo
  00045	88 08		 mov	 BYTE PTR [eax], cl
  00047	40		 inc	 eax
  00048	4e		 dec	 esi
  00049	75 ec		 jne	 SHORT $LL11@StringCbCo
$LN10@StringCbCo:
  0004b	5f		 pop	 edi
  0004c	85 f6		 test	 esi, esi
  0004e	75 06		 jne	 SHORT $LN9@StringCbCo
$LN16@StringCbCo:
  00050	48		 dec	 eax
  00051	bb 7a 00 07 80	 mov	 ebx, -2147024774	; 8007007aH
$LN9@StringCbCo:
  00056	c6 00 00	 mov	 BYTE PTR [eax], 0
  00059	5e		 pop	 esi
  0005a	8b c3		 mov	 eax, ebx
  0005c	5b		 pop	 ebx
$LN1@StringCbCo:

; 595  :     }
; 596  : 
; 597  :     return hr;
; 598  : }

  0005d	5d		 pop	 ebp
  0005e	c2 0c 00	 ret	 12			; 0000000cH
?StringCbCopyA@@YGJPADIPBD@Z ENDP			; StringCbCopyA
_TEXT	ENDS
PUBLIC	?StringCbPrintfA@@YAJPADIPBDZZ			; StringCbPrintfA
; Function compile flags: /Ogsp
;	COMDAT ?StringCbPrintfA@@YAJPADIPBDZZ
_TEXT	SEGMENT
_pszDest$ = 8						; size = 4
_cbDest$ = 12						; size = 4
_pszFormat$ = 16					; size = 4
?StringCbPrintfA@@YAJPADIPBDZZ PROC			; StringCbPrintfA, COMDAT

; 4767 : {

  00000	55		 push	 ebp
  00001	8b ec		 mov	 ebp, esp

; 4768 :     HRESULT hr;
; 4769 :     size_t cchDest = cbDest / sizeof(char);
; 4770 : 
; 4771 :     hr = StringValidateDestA(pszDest, cchDest, STRSAFE_MAX_CCH);

  00003	8b 4d 0c	 mov	 ecx, DWORD PTR _cbDest$[ebp]
  00006	33 c0		 xor	 eax, eax
  00008	85 c9		 test	 ecx, ecx
  0000a	74 08		 je	 SHORT $LN4@StringCbPr
  0000c	81 f9 ff ff ff
	7f		 cmp	 ecx, 2147483647		; 7fffffffH
  00012	76 05		 jbe	 SHORT $LN5@StringCbPr
$LN4@StringCbPr:
  00014	b8 57 00 07 80	 mov	 eax, -2147024809	; 80070057H
$LN5@StringCbPr:

; 4772 :     
; 4773 :     if (SUCCEEDED(hr))

  00019	85 c0		 test	 eax, eax
  0001b	78 39		 js	 SHORT $LN1@StringCbPr

; 4774 :     {
; 4775 :         va_list argList;
; 4776 : 
; 4777 :         va_start(argList, pszFormat);
; 4778 : 
; 4779 :         hr = StringVPrintfWorkerA(pszDest,
; 4780 :                                   cchDest,
; 4781 :                                   NULL,
; 4782 :                                   pszFormat,
; 4783 :                                   argList);

  0001d	53		 push	 ebx
  0001e	56		 push	 esi
  0001f	57		 push	 edi
  00020	8b 7d 08	 mov	 edi, DWORD PTR _pszDest$[ebp]
  00023	8d 45 14	 lea	 eax, DWORD PTR _pszFormat$[ebp+4]
  00026	50		 push	 eax
  00027	ff 75 10	 push	 DWORD PTR _pszFormat$[ebp]
  0002a	8d 71 ff	 lea	 esi, DWORD PTR [ecx-1]
  0002d	56		 push	 esi
  0002e	57		 push	 edi
  0002f	33 db		 xor	 ebx, ebx
  00031	ff 15 00 00 00
	00		 call	 DWORD PTR __imp___vsnprintf
  00037	83 c4 10	 add	 esp, 16			; 00000010H
  0003a	85 c0		 test	 eax, eax
  0003c	78 0b		 js	 SHORT $LN12@StringCbPr
  0003e	3b c6		 cmp	 eax, esi
  00040	77 07		 ja	 SHORT $LN12@StringCbPr
  00042	75 0d		 jne	 SHORT $LN9@StringCbPr
  00044	88 1c 3e	 mov	 BYTE PTR [esi+edi], bl
  00047	eb 08		 jmp	 SHORT $LN9@StringCbPr
$LN12@StringCbPr:
  00049	88 1c 3e	 mov	 BYTE PTR [esi+edi], bl
  0004c	bb 7a 00 07 80	 mov	 ebx, -2147024774	; 8007007aH
$LN9@StringCbPr:
  00051	5f		 pop	 edi
  00052	5e		 pop	 esi
  00053	8b c3		 mov	 eax, ebx
  00055	5b		 pop	 ebx
$LN1@StringCbPr:

; 4784 : 
; 4785 :         va_end(argList);
; 4786 :     }
; 4787 : 
; 4788 :     return hr;
; 4789 : }

  00056	5d		 pop	 ebp
  00057	c3		 ret	 0
?StringCbPrintfA@@YAJPADIPBDZZ ENDP			; StringCbPrintfA
_TEXT	ENDS
PUBLIC	??0?$_String_val@DV?$allocator@D@std@@@std@@QAE@V?$allocator@D@1@@Z ; std::_String_val<char,std::allocator<char> >::_String_val<char,std::allocator<char> >
; Function compile flags: /Ogsp
; File c:\program files (x86)\microsoft visual studio 10.0\vc\include\xstring
;	COMDAT ??0?$_String_val@DV?$allocator@D@std@@@std@@QAE@V?$allocator@D@1@@Z
_TEXT	SEGMENT
__Al$ = 8						; size = 1
??0?$_String_val@DV?$allocator@D@std@@@std@@QAE@V?$allocator@D@1@@Z PROC ; std::_String_val<char,std::allocator<char> >::_String_val<char,std::allocator<char> >, COMDAT
; _this$ = ecx

; 454  : 		{	// construct allocator from _Al

  00000	8b c1		 mov	 eax, ecx

; 455  : 		}

  00002	c2 04 00	 ret	 4
??0?$_String_val@DV?$allocator@D@std@@@std@@QAE@V?$allocator@D@1@@Z ENDP ; std::_String_val<char,std::allocator<char> >::_String_val<char,std::allocator<char> >
_TEXT	ENDS
PUBLIC	?_Eos@?$basic_string@DU?$char_traits@D@std@@V?$allocator@D@2@@std@@QAEXI@Z ; std::basic_string<char,std::char_traits<char>,std::allocator<char> >::_Eos
; Function compile flags: /Ogsp
;	COMDAT ?_Eos@?$basic_string@DU?$char_traits@D@std@@V?$allocator@D@2@@std@@QAEXI@Z
_TEXT	SEGMENT
__Newsize$ = 8						; size = 4
?_Eos@?$basic_string@DU?$char_traits@D@std@@V?$allocator@D@2@@std@@QAEXI@Z PROC ; std::basic_string<char,std::char_traits<char>,std::allocator<char> >::_Eos, COMDAT
; _this$ = ecx

; 1953 : 		{	// set new length and null terminator

  00000	55		 push	 ebp
  00001	8b ec		 mov	 ebp, esp

; 1954 : 		_Traits::assign(_Myptr()[this->_Mysize = _Newsize], _Elem());

  00003	83 79 14 10	 cmp	 DWORD PTR [ecx+20], 16	; 00000010H
  00007	8b 45 08	 mov	 eax, DWORD PTR __Newsize$[ebp]
  0000a	89 41 10	 mov	 DWORD PTR [ecx+16], eax
  0000d	72 02		 jb	 SHORT $LN5@Eos
  0000f	8b 09		 mov	 ecx, DWORD PTR [ecx]
$LN5@Eos:
  00011	c6 04 01 00	 mov	 BYTE PTR [ecx+eax], 0

; 1955 : 		}

  00015	5d		 pop	 ebp
  00016	c2 04 00	 ret	 4
?_Eos@?$basic_string@DU?$char_traits@D@std@@V?$allocator@D@2@@std@@QAEXI@Z ENDP ; std::basic_string<char,std::char_traits<char>,std::allocator<char> >::_Eos
_TEXT	ENDS
PUBLIC	?max_size@?$basic_string@DU?$char_traits@D@std@@V?$allocator@D@2@@std@@QBEIXZ ; std::basic_string<char,std::char_traits<char>,std::allocator<char> >::max_size
; Function compile flags: /Ogsp
;	COMDAT ?max_size@?$basic_string@DU?$char_traits@D@std@@V?$allocator@D@2@@std@@QBEIXZ
_TEXT	SEGMENT
?max_size@?$basic_string@DU?$char_traits@D@std@@V?$allocator@D@2@@std@@QBEIXZ PROC ; std::basic_string<char,std::char_traits<char>,std::allocator<char> >::max_size, COMDAT
; _this$ = ecx

; 1517 : 		size_type _Num = this->_Alval.max_size();
; 1518 : 		return (_Num <= 1 ? 1 : _Num - 1);

  00000	6a fe		 push	 -2			; fffffffeH
  00002	58		 pop	 eax

; 1519 : 		}

  00003	c3		 ret	 0
?max_size@?$basic_string@DU?$char_traits@D@std@@V?$allocator@D@2@@std@@QBEIXZ ENDP ; std::basic_string<char,std::char_traits<char>,std::allocator<char> >::max_size
_TEXT	ENDS
PUBLIC	?allocate@?$allocator@D@std@@QAEPADI@Z		; std::allocator<char>::allocate
; Function compile flags: /Ogsp
; File c:\program files (x86)\microsoft visual studio 10.0\vc\include\xmemory
;	COMDAT ?allocate@?$allocator@D@std@@QAEPADI@Z
_TEXT	SEGMENT
__Count$ = 8						; size = 4
?allocate@?$allocator@D@std@@QAEPADI@Z PROC		; std::allocator<char>::allocate, COMDAT
; _this$ = ecx

; 186  : 		{	// allocate array of _Count elements

  00000	55		 push	 ebp
  00001	8b ec		 mov	 ebp, esp

; 187  : 		return (_Allocate(_Count, (pointer)0));

  00003	6a 00		 push	 0
  00005	ff 75 08	 push	 DWORD PTR __Count$[ebp]
  00008	e8 00 00 00 00	 call	 ??$_Allocate@D@std@@YAPADIPAD@Z ; std::_Allocate<char>
  0000d	59		 pop	 ecx
  0000e	59		 pop	 ecx

; 188  : 		}

  0000f	5d		 pop	 ebp
  00010	c2 04 00	 ret	 4
?allocate@?$allocator@D@std@@QAEPADI@Z ENDP		; std::allocator<char>::allocate
_TEXT	ENDS
PUBLIC	??$?9DD@std@@YA_NABV?$allocator@D@0@0@Z		; std::operator!=<char,char>
; Function compile flags: /Ogsp
;	COMDAT ??$?9DD@std@@YA_NABV?$allocator@D@0@0@Z
_TEXT	SEGMENT
__Left$ = 8						; size = 4
__Right$ = 12						; size = 4
??$?9DD@std@@YA_NABV?$allocator@D@0@0@Z PROC		; std::operator!=<char,char>, COMDAT

; 271  : 	return (!(_Left == _Right));

  00000	32 c0		 xor	 al, al

; 272  : 	}

  00002	c3		 ret	 0
??$?9DD@std@@YA_NABV?$allocator@D@0@0@Z ENDP		; std::operator!=<char,char>
_TEXT	ENDS
PUBLIC	??_R0?AVNewShopWnd@@@8				; NewShopWnd `RTTI Type Descriptor'
PUBLIC	??_C@_0BA@GLAFFDBF@?$CFs?2Usersound?2?$CFs?$AA@	; `string'
PUBLIC	??_C@_0CN@OMMCMAND@GameOptionSettingCustomSoundTab?3@ ; `string'
PUBLIC	??_C@_03BICDMHKB@wav?$AA@			; `string'
PUBLIC	??_C@_0N@IDKIAHGJ@?$CFs?2Usersound?$AA@		; `string'
PUBLIC	??_R0?AVFileListWnd@@@8				; FileListWnd `RTTI Type Descriptor'
PUBLIC	_this$GSCopy$
EXTRN	?ShowEtcItemTab@NewShopWnd@@QAEXXZ:PROC		; NewShopWnd::ShowEtcItemTab
EXTRN	?PlayByPath@ioCustomSoundMgr@@QAEXPBD@Z:PROC	; ioCustomSoundMgr::PlayByPath
EXTRN	?CheckWaveFile@ioCustomSoundMgr@@QAE_NPBD@Z:PROC ; ioCustomSoundMgr::CheckWaveFile
EXTRN	?SetMsgBox@ioSP2GUIManager@@QAEXHPAVioWnd@@PBD1@Z:PROC ; ioSP2GUIManager::SetMsgBox
EXTRN	?SetReturnInfo@FileListWnd@@QAEXPAVioWnd@@W4ReturnWndType@1@@Z:PROC ; FileListWnd::SetReturnInfo
EXTRN	?IsFileListEmpty@FileListWnd@@QAE_NXZ:PROC	; FileListWnd::IsFileListEmpty
EXTRN	?SetFileList@FileListWnd@@QAEXPBD0@Z:PROC	; FileListWnd::SetFileList
EXTRN	__imp__CreateDirectoryA@8:PROC
EXTRN	__imp__GetCurrentDirectoryA@8:PROC
EXTRN	__EH_epilog3_GS:PROC
EXTRN	__EH_prolog3_GS:PROC
EXTRN	_memset:PROC
;	COMDAT ??_R0?AVNewShopWnd@@@8
; File d:\lost saga for developer\youtube\tutorial\source\src\lsclient\gui\gameoptionsettingtab.cpp
_DATA	SEGMENT
??_R0?AVNewShopWnd@@@8 DD FLAT:??_7type_info@@6B@	; NewShopWnd `RTTI Type Descriptor'
	DD	00H
	DB	'.?AVNewShopWnd@@', 00H
_DATA	ENDS
;	COMDAT ??_C@_0BA@GLAFFDBF@?$CFs?2Usersound?2?$CFs?$AA@
CONST	SEGMENT
??_C@_0BA@GLAFFDBF@?$CFs?2Usersound?2?$CFs?$AA@ DB '%s\Usersound\%s', 00H ; `string'
CONST	ENDS
;	COMDAT ??_C@_0CN@OMMCMAND@GameOptionSettingCustomSoundTab?3@
CONST	SEGMENT
??_C@_0CN@OMMCMAND@GameOptionSettingCustomSoundTab?3@ DB 'GameOptionSetti'
	DB	'ngCustomSoundTab::iwm_command', 00H		; `string'
CONST	ENDS
;	COMDAT ??_C@_03BICDMHKB@wav?$AA@
CONST	SEGMENT
??_C@_03BICDMHKB@wav?$AA@ DB 'wav', 00H			; `string'
CONST	ENDS
;	COMDAT ??_C@_0N@IDKIAHGJ@?$CFs?2Usersound?$AA@
CONST	SEGMENT
??_C@_0N@IDKIAHGJ@?$CFs?2Usersound?$AA@ DB '%s\Usersound', 00H ; `string'
CONST	ENDS
;	COMDAT ??_R0?AVFileListWnd@@@8
_DATA	SEGMENT
??_R0?AVFileListWnd@@@8 DD FLAT:??_7type_info@@6B@	; FileListWnd `RTTI Type Descriptor'
	DD	00H
	DB	'.?AVFileListWnd@@', 00H
_DATA	ENDS
;	COMDAT xdata$x
xdata$x	SEGMENT
__unwindtable$?iwm_command@GameOptionSettingCustomSoundTab@@UAEXPAVioWnd@@HK@Z DD 0ffffffffH
	DD	FLAT:__unwindfunclet$?iwm_command@GameOptionSettingCustomSoundTab@@UAEXPAVioWnd@@HK@Z$0
__ehfuncinfo$?iwm_command@GameOptionSettingCustomSoundTab@@UAEXPAVioWnd@@HK@Z DD 019930522H
	DD	01H
	DD	FLAT:__unwindtable$?iwm_command@GameOptionSettingCustomSoundTab@@UAEXPAVioWnd@@HK@Z
	DD	2 DUP(00H)
	DD	2 DUP(00H)
	DD	00H
	DD	01H
; Function compile flags: /Ogsp
xdata$x	ENDS
;	COMDAT ?iwm_command@GameOptionSettingCustomSoundTab@@UAEXPAVioWnd@@HK@Z
_TEXT	SEGMENT
_szFileName$545657 = -2124				; size = 16
_this$GSCopy$ = -2108					; size = 4
_pFileListWnd$545641 = -2104				; size = 4
_dwID$ = -2100						; size = 4
_szCurPath$545645 = -2096				; size = 520
_szCurPath$545658 = -1576				; size = 520
_szFullPath$545659 = -1056				; size = 520
_szFullPath$545646 = -536				; size = 520
__$EHRec$ = -12						; size = 12
_pWnd$ = 8						; size = 4
_cmd$ = 12						; size = 4
_param$ = 16						; size = 4
?iwm_command@GameOptionSettingCustomSoundTab@@UAEXPAVioWnd@@HK@Z PROC ; GameOptionSettingCustomSoundTab::iwm_command, COMDAT
; _this$ = ecx

; 351  : {

  00000	68 40 08 00 00	 push	 2112			; 00000840H
  00005	b8 00 00 00 00	 mov	 eax, __ehhandler$?iwm_command@GameOptionSettingCustomSoundTab@@UAEXPAVioWnd@@HK@Z
  0000a	e8 00 00 00 00	 call	 __EH_prolog3_GS
  0000f	8b 7d 08	 mov	 edi, DWORD PTR _pWnd$[ebp]
  00012	8b f1		 mov	 esi, ecx

; 352  : 	DWORD dwID = pWnd->GetID();

  00014	8b cf		 mov	 ecx, edi
  00016	89 b5 c4 f7 ff
	ff		 mov	 DWORD PTR _this$GSCopy$[ebp], esi
  0001c	ff 15 00 00 00
	00		 call	 DWORD PTR __imp_?GetID@ioWnd@@QBEKXZ
  00022	89 85 cc f7 ff
	ff		 mov	 DWORD PTR _dwID$[ebp], eax

; 353  : 
; 354  : 	switch( dwID )

  00028	83 f8 01	 cmp	 eax, 1
  0002b	0f 84 2f 03 00
	00		 je	 $LN9@iwm_comman@4
  00031	83 f8 02	 cmp	 eax, 2
  00034	0f 84 05 03 00
	00		 je	 $LN6@iwm_comman@4
  0003a	83 f8 03	 cmp	 eax, 3
  0003d	0f 84 b2 02 00
	00		 je	 $LN3@iwm_comman@4
  00043	83 f8 64	 cmp	 eax, 100		; 00000064H
  00046	0f 86 40 03 00
	00		 jbe	 $LN7@iwm_comman@4
  0004c	83 f8 6e	 cmp	 eax, 110		; 0000006eH
  0004f	0f 87 37 03 00
	00		 ja	 $LN7@iwm_comman@4

; 355  : 	{
; 356  : 	case ID_SETTING_CUSTOMSOUND_ITEM_WND1:
; 357  : 	case ID_SETTING_CUSTOMSOUND_ITEM_WND2:
; 358  : 	case ID_SETTING_CUSTOMSOUND_ITEM_WND3:
; 359  : 	case ID_SETTING_CUSTOMSOUND_ITEM_WND4:
; 360  : 	case ID_SETTING_CUSTOMSOUND_ITEM_WND5:
; 361  : 	case ID_SETTING_CUSTOMSOUND_ITEM_WND6:
; 362  : 	case ID_SETTING_CUSTOMSOUND_ITEM_WND7:
; 363  : 	case ID_SETTING_CUSTOMSOUND_ITEM_WND8:
; 364  : 	case ID_SETTING_CUSTOMSOUND_ITEM_WND9:
; 365  : 	case ID_SETTING_CUSTOMSOUND_ITEM_WND10:
; 366  : 		if( cmd == IOBN_BTNUP )

  00055	83 7d 0c 11	 cmp	 DWORD PTR _cmd$[ebp], 17 ; 00000011H
  00059	0f 85 70 02 00
	00		 jne	 $LN25@iwm_comman@4

; 367  : 		{
; 368  : 			SetKeywordEditToBtnByID();

  0005f	8b ce		 mov	 ecx, esi
  00061	e8 00 00 00 00	 call	 ?SetKeywordEditToBtnByID@GameOptionSettingCustomSoundTab@@IAEXXZ ; GameOptionSettingCustomSoundTab::SetKeywordEditToBtnByID

; 369  : 			if( param == SettingCustomSoundItemWnd::ID_PARAM_KEYWORD_BTNUP )

  00066	81 7d 10 10 27
	00 00		 cmp	 DWORD PTR _param$[ebp], 10000 ; 00002710H
  0006d	75 37		 jne	 SHORT $LN24@iwm_comman@4

; 370  : 			{
; 371  : 				SettingCustomSoundItemWnd *pItem = dynamic_cast<SettingCustomSoundItemWnd*> (pWnd);

  0006f	33 db		 xor	 ebx, ebx
  00071	53		 push	 ebx
  00072	68 00 00 00 00	 push	 OFFSET ??_R0?AVSettingCustomSoundItemWnd@@@8
  00077	68 00 00 00 00	 push	 OFFSET ??_R0?AVioWnd@@@8
  0007c	53		 push	 ebx
  0007d	57		 push	 edi
  0007e	e8 00 00 00 00	 call	 ___RTDynamicCast
  00083	83 c4 14	 add	 esp, 20			; 00000014H

; 372  : 				if( pItem )

  00086	3b c3		 cmp	 eax, ebx
  00088	0f 84 fe 02 00
	00		 je	 $LN7@iwm_comman@4

; 373  : 				{
; 374  : 					pItem->SetKeywordBtnToEdit();

  0008e	8b c8		 mov	 ecx, eax
  00090	e8 00 00 00 00	 call	 ?SetKeywordBtnToEdit@SettingCustomSoundItemWnd@@QAEXXZ ; SettingCustomSoundItemWnd::SetKeywordBtnToEdit

; 375  : 					m_dwSelectEditItemID = dwID;

  00095	8b 85 cc f7 ff
	ff		 mov	 eax, DWORD PTR _dwID$[ebp]
  0009b	89 86 64 01 00
	00		 mov	 DWORD PTR [esi+356], eax

; 376  : 				}
; 377  : 			}

  000a1	e9 e6 02 00 00	 jmp	 $LN7@iwm_comman@4
$LN24@iwm_comman@4:

; 378  : 			else if( param == SettingCustomSoundItemWnd::ID_PARAM_FILENAME_BTNUP )

  000a6	81 7d 10 11 27
	00 00		 cmp	 DWORD PTR _param$[ebp], 10001 ; 00002711H
  000ad	0f 85 25 01 00
	00		 jne	 $LN21@iwm_comman@4

; 379  : 			{	
; 380  : 				FileListWnd *pFileListWnd = dynamic_cast<FileListWnd*> (g_GUIMgr.FindWnd( FILE_LIST_WND ) );

  000b3	33 db		 xor	 ebx, ebx
  000b5	53		 push	 ebx
  000b6	68 00 00 00 00	 push	 OFFSET ??_R0?AVFileListWnd@@@8
  000bb	68 00 00 00 00	 push	 OFFSET ??_R0?AVioWnd@@@8
  000c0	53		 push	 ebx
  000c1	68 af 17 00 00	 push	 6063			; 000017afH
  000c6	e8 00 00 00 00	 call	 ?GetSingleton@ioSP2GUIManager@@SAAAV1@XZ ; ioSP2GUIManager::GetSingleton
  000cb	8b c8		 mov	 ecx, eax
  000cd	ff 15 00 00 00
	00		 call	 DWORD PTR __imp_?FindWnd@ioGUIManager@@QAEPAVioWnd@@K@Z
  000d3	50		 push	 eax
  000d4	e8 00 00 00 00	 call	 ___RTDynamicCast
  000d9	83 c4 14	 add	 esp, 20			; 00000014H
  000dc	89 85 c8 f7 ff
	ff		 mov	 DWORD PTR _pFileListWnd$545641[ebp], eax

; 381  : 				if( pFileListWnd )

  000e2	3b c3		 cmp	 eax, ebx
  000e4	0f 84 a2 02 00
	00		 je	 $LN7@iwm_comman@4

; 382  : 				{
; 383  : 					char szCurPath[MAX_PATH*2]="";

  000ea	bf 07 02 00 00	 mov	 edi, 519		; 00000207H
  000ef	57		 push	 edi
  000f0	8d 85 d1 f7 ff
	ff		 lea	 eax, DWORD PTR _szCurPath$545645[ebp+1]
  000f6	53		 push	 ebx
  000f7	50		 push	 eax
  000f8	88 9d d0 f7 ff
	ff		 mov	 BYTE PTR _szCurPath$545645[ebp], bl
  000fe	e8 00 00 00 00	 call	 _memset
  00103	83 c4 0c	 add	 esp, 12			; 0000000cH

; 384  : 					GetCurrentDirectory( sizeof( szCurPath ), szCurPath );

  00106	8d 85 d0 f7 ff
	ff		 lea	 eax, DWORD PTR _szCurPath$545645[ebp]
  0010c	50		 push	 eax
  0010d	8d 77 01	 lea	 esi, DWORD PTR [edi+1]
  00110	56		 push	 esi
  00111	ff 15 00 00 00
	00		 call	 DWORD PTR __imp__GetCurrentDirectoryA@8

; 385  : 					char szFullPath[MAX_PATH*2]="";

  00117	57		 push	 edi
  00118	8d 85 e9 fd ff
	ff		 lea	 eax, DWORD PTR _szFullPath$545646[ebp+1]
  0011e	53		 push	 ebx
  0011f	50		 push	 eax
  00120	88 9d e8 fd ff
	ff		 mov	 BYTE PTR _szFullPath$545646[ebp], bl
  00126	e8 00 00 00 00	 call	 _memset

; 386  : 					StringCbPrintf( szFullPath, sizeof(szFullPath), "%s\\Usersound", szCurPath);

  0012b	8d 85 d0 f7 ff
	ff		 lea	 eax, DWORD PTR _szCurPath$545645[ebp]
  00131	50		 push	 eax
  00132	68 00 00 00 00	 push	 OFFSET ??_C@_0N@IDKIAHGJ@?$CFs?2Usersound?$AA@
  00137	8d 85 e8 fd ff
	ff		 lea	 eax, DWORD PTR _szFullPath$545646[ebp]
  0013d	56		 push	 esi
  0013e	50		 push	 eax
  0013f	e8 00 00 00 00	 call	 ?StringCbPrintfA@@YAJPADIPBDZZ ; StringCbPrintfA
  00144	83 c4 1c	 add	 esp, 28			; 0000001cH

; 387  : 					CreateDirectory( szFullPath, NULL );

  00147	53		 push	 ebx
  00148	8d 85 e8 fd ff
	ff		 lea	 eax, DWORD PTR _szFullPath$545646[ebp]
  0014e	50		 push	 eax
  0014f	ff 15 00 00 00
	00		 call	 DWORD PTR __imp__CreateDirectoryA@8

; 388  : 					pFileListWnd->SetFileList( szFullPath, "wav" );

  00155	8b b5 c8 f7 ff
	ff		 mov	 esi, DWORD PTR _pFileListWnd$545641[ebp]
  0015b	68 00 00 00 00	 push	 OFFSET ??_C@_03BICDMHKB@wav?$AA@
  00160	8d 85 e8 fd ff
	ff		 lea	 eax, DWORD PTR _szFullPath$545646[ebp]
  00166	50		 push	 eax
  00167	8b ce		 mov	 ecx, esi
  00169	e8 00 00 00 00	 call	 ?SetFileList@FileListWnd@@QAEXPBD0@Z ; FileListWnd::SetFileList

; 389  : 					if( !pFileListWnd->IsFileListEmpty() )

  0016e	8b ce		 mov	 ecx, esi
  00170	e8 00 00 00 00	 call	 ?IsFileListEmpty@FileListWnd@@QAE_NXZ ; FileListWnd::IsFileListEmpty
  00175	84 c0		 test	 al, al
  00177	75 29		 jne	 SHORT $LN19@iwm_comman@4

; 390  : 					{	
; 391  : 						pFileListWnd->SetReturnInfo( FindChildWnd( dwID ) , FileListWnd::RWT_COUSTOMSOUND_SETTING_ITEM_WND );

  00179	8b 8d c4 f7 ff
	ff		 mov	 ecx, DWORD PTR _this$GSCopy$[ebp]
  0017f	6a 01		 push	 1
  00181	ff b5 cc f7 ff
	ff		 push	 DWORD PTR _dwID$[ebp]
  00187	ff 15 00 00 00
	00		 call	 DWORD PTR __imp_?FindChildWnd@ioWnd@@QAEPAV1@K@Z
  0018d	50		 push	 eax
  0018e	8b ce		 mov	 ecx, esi
  00190	e8 00 00 00 00	 call	 ?SetReturnInfo@FileListWnd@@QAEXPAVioWnd@@W4ReturnWndType@1@@Z ; FileListWnd::SetReturnInfo

; 392  : 						pFileListWnd->ShowWnd();

  00195	8b ce		 mov	 ecx, esi
  00197	ff 15 00 00 00
	00		 call	 DWORD PTR __imp_?ShowWnd@ioWnd@@QAEXXZ

; 393  : 					}
; 394  : 					else

  0019d	e9 ea 01 00 00	 jmp	 $LN7@iwm_comman@4
$LN19@iwm_comman@4:

; 395  : 					{
; 396  : 						g_GUIMgr.SetMsgBox(MB_OK, NULL, STR(1), szFullPath );

  001a2	8d 85 e8 fd ff
	ff		 lea	 eax, DWORD PTR _szFullPath$545646[ebp]
  001a8	50		 push	 eax
  001a9	53		 push	 ebx
  001aa	6a 01		 push	 1
  001ac	68 00 00 00 00	 push	 OFFSET ??_C@_00CNPNBAHC@?$AA@
  001b1	68 00 00 00 00	 push	 OFFSET ??_C@_0CN@OMMCMAND@GameOptionSettingCustomSoundTab?3@
  001b6	ff 15 00 00 00
	00		 call	 DWORD PTR __imp_?GetSingleton@ioStringManager@@SAAAV1@XZ
  001bc	8b c8		 mov	 ecx, eax
  001be	ff 15 00 00 00
	00		 call	 DWORD PTR __imp_?GetString@ioStringManager@@QAEPADPBD0HW4FileNamePrefix@1@@Z
  001c4	50		 push	 eax
  001c5	53		 push	 ebx
  001c6	53		 push	 ebx
  001c7	e8 00 00 00 00	 call	 ?GetSingleton@ioSP2GUIManager@@SAAAV1@XZ ; ioSP2GUIManager::GetSingleton
  001cc	8b c8		 mov	 ecx, eax
  001ce	e8 00 00 00 00	 call	 ?SetMsgBox@ioSP2GUIManager@@QAEXHPAVioWnd@@PBD1@Z ; ioSP2GUIManager::SetMsgBox

; 397  : 					}
; 398  : 				}
; 399  : 			}

  001d3	e9 b4 01 00 00	 jmp	 $LN7@iwm_comman@4
$LN21@iwm_comman@4:

; 400  : 			else if( param == SettingCustomSoundItemWnd::ID_PARAM_PLAY_BTNUP )

  001d8	81 7d 10 12 27
	00 00		 cmp	 DWORD PTR _param$[ebp], 10002 ; 00002712H
  001df	0f 85 a7 01 00
	00		 jne	 $LN7@iwm_comman@4

; 401  : 			{
; 402  : 				SettingCustomSoundItemWnd *pItem = dynamic_cast<SettingCustomSoundItemWnd*> ( pWnd );

  001e5	33 db		 xor	 ebx, ebx
  001e7	53		 push	 ebx
  001e8	68 00 00 00 00	 push	 OFFSET ??_R0?AVSettingCustomSoundItemWnd@@@8
  001ed	68 00 00 00 00	 push	 OFFSET ??_R0?AVioWnd@@@8
  001f2	53		 push	 ebx
  001f3	57		 push	 edi
  001f4	e8 00 00 00 00	 call	 ___RTDynamicCast
  001f9	8b f0		 mov	 esi, eax
  001fb	83 c4 14	 add	 esp, 20			; 00000014H

; 403  : 				if( pItem )

  001fe	3b f3		 cmp	 esi, ebx
  00200	0f 84 86 01 00
	00		 je	 $LN7@iwm_comman@4

; 404  : 				{
; 405  : 					ioHashString szFileName;

  00206	8d 8d b4 f7 ff
	ff		 lea	 ecx, DWORD PTR _szFileName$545657[ebp]
  0020c	ff 15 00 00 00
	00		 call	 DWORD PTR __imp_??0ioHashString@@QAE@XZ

; 406  : 					pItem->GetFileName( szFileName );

  00212	8d 85 b4 f7 ff
	ff		 lea	 eax, DWORD PTR _szFileName$545657[ebp]
  00218	50		 push	 eax
  00219	8b ce		 mov	 ecx, esi
  0021b	89 5d fc	 mov	 DWORD PTR __$EHRec$[ebp+8], ebx
  0021e	e8 00 00 00 00	 call	 ?GetFileName@SettingCustomSoundItemWnd@@QAEXAAVioHashString@@@Z ; SettingCustomSoundItemWnd::GetFileName

; 407  : 					char szCurPath[MAX_PATH*2]="";

  00223	bf 07 02 00 00	 mov	 edi, 519		; 00000207H
  00228	57		 push	 edi
  00229	8d 85 d9 f9 ff
	ff		 lea	 eax, DWORD PTR _szCurPath$545658[ebp+1]
  0022f	53		 push	 ebx
  00230	50		 push	 eax
  00231	88 9d d8 f9 ff
	ff		 mov	 BYTE PTR _szCurPath$545658[ebp], bl
  00237	e8 00 00 00 00	 call	 _memset
  0023c	83 c4 0c	 add	 esp, 12			; 0000000cH

; 408  : 					GetCurrentDirectory( sizeof( szCurPath ), szCurPath );

  0023f	8d 85 d8 f9 ff
	ff		 lea	 eax, DWORD PTR _szCurPath$545658[ebp]
  00245	50		 push	 eax
  00246	8d 77 01	 lea	 esi, DWORD PTR [edi+1]
  00249	56		 push	 esi
  0024a	ff 15 00 00 00
	00		 call	 DWORD PTR __imp__GetCurrentDirectoryA@8

; 409  : 					char szFullPath[MAX_PATH*2]="";

  00250	57		 push	 edi
  00251	8d 85 e1 fb ff
	ff		 lea	 eax, DWORD PTR _szFullPath$545659[ebp+1]
  00257	53		 push	 ebx
  00258	50		 push	 eax
  00259	88 9d e0 fb ff
	ff		 mov	 BYTE PTR _szFullPath$545659[ebp], bl
  0025f	e8 00 00 00 00	 call	 _memset
  00264	83 c4 0c	 add	 esp, 12			; 0000000cH

; 410  : 					StringCbPrintf( szFullPath, sizeof(szFullPath), "%s\\Usersound\\%s", szCurPath, szFileName.c_str() );

  00267	8d 8d b4 f7 ff
	ff		 lea	 ecx, DWORD PTR _szFileName$545657[ebp]
  0026d	ff 15 00 00 00
	00		 call	 DWORD PTR __imp_?c_str@ioHashString@@QBEPBDXZ
  00273	50		 push	 eax
  00274	8d 85 d8 f9 ff
	ff		 lea	 eax, DWORD PTR _szCurPath$545658[ebp]
  0027a	50		 push	 eax
  0027b	68 00 00 00 00	 push	 OFFSET ??_C@_0BA@GLAFFDBF@?$CFs?2Usersound?2?$CFs?$AA@
  00280	8d 85 e0 fb ff
	ff		 lea	 eax, DWORD PTR _szFullPath$545659[ebp]
  00286	56		 push	 esi
  00287	50		 push	 eax
  00288	e8 00 00 00 00	 call	 ?StringCbPrintfA@@YAJPADIPBDZZ ; StringCbPrintfA

; 411  : 
; 412  : 					if( g_CustomSoundMgr.CheckWaveFile( szFullPath ) )

  0028d	8d 85 e0 fb ff
	ff		 lea	 eax, DWORD PTR _szFullPath$545659[ebp]
  00293	83 c4 14	 add	 esp, 20			; 00000014H
  00296	50		 push	 eax
  00297	e8 00 00 00 00	 call	 ?GetSingleton@ioCustomSoundMgr@@SAAAV1@XZ ; ioCustomSoundMgr::GetSingleton
  0029c	8b c8		 mov	 ecx, eax
  0029e	e8 00 00 00 00	 call	 ?CheckWaveFile@ioCustomSoundMgr@@QAE_NPBD@Z ; ioCustomSoundMgr::CheckWaveFile
  002a3	84 c0		 test	 al, al
  002a5	74 13		 je	 SHORT $LN14@iwm_comman@4

; 413  : 						g_CustomSoundMgr.PlayByPath( szFullPath );

  002a7	8d 85 e0 fb ff
	ff		 lea	 eax, DWORD PTR _szFullPath$545659[ebp]
  002ad	50		 push	 eax
  002ae	e8 00 00 00 00	 call	 ?GetSingleton@ioCustomSoundMgr@@SAAAV1@XZ ; ioCustomSoundMgr::GetSingleton
  002b3	8b c8		 mov	 ecx, eax
  002b5	e8 00 00 00 00	 call	 ?PlayByPath@ioCustomSoundMgr@@QAEXPBD@Z ; ioCustomSoundMgr::PlayByPath
$LN14@iwm_comman@4:

; 414  : 				}

  002ba	83 4d fc ff	 or	 DWORD PTR __$EHRec$[ebp+8], -1
  002be	8d 8d b4 f7 ff
	ff		 lea	 ecx, DWORD PTR _szFileName$545657[ebp]
  002c4	ff 15 00 00 00
	00		 call	 DWORD PTR __imp_??1ioHashString@@QAE@XZ

; 415  : 			}
; 416  : 		}

  002ca	e9 bd 00 00 00	 jmp	 $LN7@iwm_comman@4
$LN25@iwm_comman@4:

; 417  : 		else if( cmd == IOED_INPUT )

  002cf	83 7d 0c 22	 cmp	 DWORD PTR _cmd$[ebp], 34 ; 00000022H
  002d3	0f 85 b3 00 00
	00		 jne	 $LN7@iwm_comman@4

; 418  : 		{
; 419  : 			if( param == 0 || param == 1)

  002d9	83 7d 10 00	 cmp	 DWORD PTR _param$[ebp], 0
  002dd	74 0a		 je	 SHORT $LN10@iwm_comman@4
  002df	83 7d 10 01	 cmp	 DWORD PTR _param$[ebp], 1
  002e3	0f 85 a3 00 00
	00		 jne	 $LN7@iwm_comman@4
$LN10@iwm_comman@4:

; 420  : 			{
; 421  : 				SetKeywordEditToBtnByID();

  002e9	8b ce		 mov	 ecx, esi
  002eb	e8 00 00 00 00	 call	 ?SetKeywordEditToBtnByID@GameOptionSettingCustomSoundTab@@IAEXXZ ; GameOptionSettingCustomSoundTab::SetKeywordEditToBtnByID

; 422  : 			}
; 423  : 		}
; 424  : 		break;

  002f0	e9 97 00 00 00	 jmp	 $LN7@iwm_comman@4
$LN3@iwm_comman@4:

; 439  : 	case ID_SHOP:
; 440  : 		if( cmd == IOBN_BTNUP )

  002f5	83 7d 0c 11	 cmp	 DWORD PTR _cmd$[ebp], 17 ; 00000011H
  002f9	0f 85 8d 00 00
	00		 jne	 $LN7@iwm_comman@4

; 441  : 		{
; 442  : 			NewShopWnd *pNewShop = dynamic_cast< NewShopWnd* > ( g_GUIMgr.FindWnd( NEW_SHOP_WND ) );

  002ff	33 db		 xor	 ebx, ebx
  00301	53		 push	 ebx
  00302	68 00 00 00 00	 push	 OFFSET ??_R0?AVNewShopWnd@@@8
  00307	68 00 00 00 00	 push	 OFFSET ??_R0?AVioWnd@@@8
  0030c	53		 push	 ebx
  0030d	68 f8 17 00 00	 push	 6136			; 000017f8H
  00312	e8 00 00 00 00	 call	 ?GetSingleton@ioSP2GUIManager@@SAAAV1@XZ ; ioSP2GUIManager::GetSingleton
  00317	8b c8		 mov	 ecx, eax
  00319	ff 15 00 00 00
	00		 call	 DWORD PTR __imp_?FindWnd@ioGUIManager@@QAEPAVioWnd@@K@Z
  0031f	50		 push	 eax
  00320	e8 00 00 00 00	 call	 ___RTDynamicCast
  00325	8b f0		 mov	 esi, eax
  00327	83 c4 14	 add	 esp, 20			; 00000014H

; 443  : 			if( pNewShop)

  0032a	3b f3		 cmp	 esi, ebx
  0032c	74 5e		 je	 SHORT $LN7@iwm_comman@4

; 444  : 			{
; 445  : 				pNewShop->ShowWnd();

  0032e	8b ce		 mov	 ecx, esi
  00330	ff 15 00 00 00
	00		 call	 DWORD PTR __imp_?ShowWnd@ioWnd@@QAEXXZ

; 446  : 				pNewShop->ShowEtcItemTab();

  00336	8b ce		 mov	 ecx, esi
  00338	e8 00 00 00 00	 call	 ?ShowEtcItemTab@NewShopWnd@@QAEXXZ ; NewShopWnd::ShowEtcItemTab

; 447  : 			}
; 448  : 		}
; 449  : 		break;

  0033d	eb 4d		 jmp	 SHORT $LN7@iwm_comman@4
$LN6@iwm_comman@4:

; 430  : 		}
; 431  : 		break;
; 432  : 	case ID_CANCEL:
; 433  : 		if( cmd == IOBN_BTNUP )

  0033f	83 7d 0c 11	 cmp	 DWORD PTR _cmd$[ebp], 17 ; 00000011H
  00343	75 47		 jne	 SHORT $LN7@iwm_comman@4

; 434  : 		{
; 435  : 			if(GetParent())

  00345	8b ce		 mov	 ecx, esi
  00347	ff 15 00 00 00
	00		 call	 DWORD PTR __imp_?GetParent@ioWnd@@QAEPAV1@XZ
  0034d	85 c0		 test	 eax, eax
  0034f	74 3b		 je	 SHORT $LN7@iwm_comman@4

; 436  : 				GetParent()->iwm_command( this, cmd, GameOptionSettingTab::ID_PARAM_CHILD_CANCEL );

  00351	8b ce		 mov	 ecx, esi
  00353	ff 15 00 00 00
	00		 call	 DWORD PTR __imp_?GetParent@ioWnd@@QAEPAV1@XZ
  00359	68 ea 03 00 00	 push	 1002			; 000003eaH

; 437  : 		}
; 438  : 		break;

  0035e	eb 1f		 jmp	 SHORT $LN33@iwm_comman@4
$LN9@iwm_comman@4:

; 425  : 	case ID_SAVE:
; 426  : 		if( cmd == IOBN_BTNUP )

  00360	83 7d 0c 11	 cmp	 DWORD PTR _cmd$[ebp], 17 ; 00000011H
  00364	75 26		 jne	 SHORT $LN7@iwm_comman@4

; 427  : 		{
; 428  : 			if( GetParent() )

  00366	8b ce		 mov	 ecx, esi
  00368	ff 15 00 00 00
	00		 call	 DWORD PTR __imp_?GetParent@ioWnd@@QAEPAV1@XZ
  0036e	85 c0		 test	 eax, eax
  00370	74 1a		 je	 SHORT $LN7@iwm_comman@4

; 429  : 				GetParent()->iwm_command( this , cmd, GameOptionSettingTab::ID_PARAM_CHILD_SAVE );

  00372	8b ce		 mov	 ecx, esi
  00374	ff 15 00 00 00
	00		 call	 DWORD PTR __imp_?GetParent@ioWnd@@QAEPAV1@XZ
  0037a	68 e9 03 00 00	 push	 1001			; 000003e9H
$LN33@iwm_comman@4:
  0037f	8b 10		 mov	 edx, DWORD PTR [eax]
  00381	6a 11		 push	 17			; 00000011H
  00383	56		 push	 esi
  00384	8b c8		 mov	 ecx, eax
  00386	ff 92 8c 00 00
	00		 call	 DWORD PTR [edx+140]
$LN7@iwm_comman@4:

; 450  : 	}
; 451  : }

  0038c	e8 00 00 00 00	 call	 __EH_epilog3_GS
  00391	c2 0c 00	 ret	 12			; 0000000cH
_TEXT	ENDS
;	COMDAT text$x
text$x	SEGMENT
__unwindfunclet$?iwm_command@GameOptionSettingCustomSoundTab@@UAEXPAVioWnd@@HK@Z$0:
  00000	8d 8d b4 f7 ff
	ff		 lea	 ecx, DWORD PTR _szFileName$545657[ebp]
  00006	ff 25 00 00 00
	00		 jmp	 DWORD PTR __imp_??1ioHashString@@QAE@XZ
__ehhandler$?iwm_command@GameOptionSettingCustomSoundTab@@UAEXPAVioWnd@@HK@Z:
  0000c	8b 54 24 08	 mov	 edx, DWORD PTR [esp+8]
  00010	8d 42 0c	 lea	 eax, DWORD PTR [edx+12]
  00013	8b 8a b0 f7 ff
	ff		 mov	 ecx, DWORD PTR [edx-2128]
  00019	33 c8		 xor	 ecx, eax
  0001b	e8 00 00 00 00	 call	 @__security_check_cookie@4
  00020	8b 4a fc	 mov	 ecx, DWORD PTR [edx-4]
  00023	33 c8		 xor	 ecx, eax
  00025	e8 00 00 00 00	 call	 @__security_check_cookie@4
  0002a	b8 00 00 00 00	 mov	 eax, OFFSET __ehfuncinfo$?iwm_command@GameOptionSettingCustomSoundTab@@UAEXPAVioWnd@@HK@Z
  0002f	e9 00 00 00 00	 jmp	 ___CxxFrameHandler3
text$x	ENDS
?iwm_command@GameOptionSettingCustomSoundTab@@UAEXPAVioWnd@@HK@Z ENDP ; GameOptionSettingCustomSoundTab::iwm_command
PUBLIC	??_C@_04HDOCAJNK@?$CFs?$CFs?$AA@		; `string'
PUBLIC	_this$GSCopy$
PUBLIC	?Init@GameOptionSettingCustomSoundTab@@QAEXXZ	; GameOptionSettingCustomSoundTab::Init
EXTRN	__imp___splitpath:PROC
EXTRN	?GetMyKeywordAndPath@ioCustomSoundMgr@@QAEXKAAVioHashString@@0@Z:PROC ; ioCustomSoundMgr::GetMyKeywordAndPath
;	COMDAT ??_C@_04HDOCAJNK@?$CFs?$CFs?$AA@
CONST	SEGMENT
??_C@_04HDOCAJNK@?$CFs?$CFs?$AA@ DB '%s%s', 00H		; `string'
CONST	ENDS
;	COMDAT xdata$x
xdata$x	SEGMENT
__unwindtable$?Init@GameOptionSettingCustomSoundTab@@QAEXXZ DD 0ffffffffH
	DD	FLAT:__unwindfunclet$?Init@GameOptionSettingCustomSoundTab@@QAEXXZ$0
	DD	00H
	DD	FLAT:__unwindfunclet$?Init@GameOptionSettingCustomSoundTab@@QAEXXZ$1
__ehfuncinfo$?Init@GameOptionSettingCustomSoundTab@@QAEXXZ DD 019930522H
	DD	02H
	DD	FLAT:__unwindtable$?Init@GameOptionSettingCustomSoundTab@@QAEXXZ
	DD	2 DUP(00H)
	DD	2 DUP(00H)
	DD	00H
	DD	01H
; Function compile flags: /Ogsp
xdata$x	ENDS
;	COMDAT ?Init@GameOptionSettingCustomSoundTab@@QAEXXZ
_TEXT	SEGMENT
_szKeyword$545688 = -844				; size = 16
_szPath$545689 = -828					; size = 16
_this$GSCopy$ = -812					; size = 4
_pItem$545685 = -808					; size = 4
tv181 = -804						; size = 4
tv215 = -800						; size = 4
_szExt$545691 = -796					; size = 260
_szNameExt$545692 = -536				; size = 260
_szName$545690 = -276					; size = 260
__$EHRec$ = -12						; size = 12
?Init@GameOptionSettingCustomSoundTab@@QAEXXZ PROC	; GameOptionSettingCustomSoundTab::Init, COMDAT
; _this$ = ecx

; 455  : {

  00000	68 40 03 00 00	 push	 832			; 00000340H
  00005	b8 00 00 00 00	 mov	 eax, __ehhandler$?Init@GameOptionSettingCustomSoundTab@@QAEXXZ
  0000a	e8 00 00 00 00	 call	 __EH_prolog3_GS
  0000f	89 8d d4 fc ff
	ff		 mov	 DWORD PTR _this$GSCopy$[ebp], ecx

; 457  : 	{
; 458  : 		SettingCustomSoundItemWnd *pItem = dynamic_cast<SettingCustomSoundItemWnd*> ( FindChildWnd( ID_SETTING_CUSTOMSOUND_ITEM_WND1 + i));

  00015	c7 85 e0 fc ff
	ff 01 00 00 00	 mov	 DWORD PTR tv215[ebp], 1
  0001f	c7 85 dc fc ff
	ff 0a 00 00 00	 mov	 DWORD PTR tv181[ebp], 10 ; 0000000aH
  00029	33 db		 xor	 ebx, ebx
$LN5@Init:
  0002b	8b 85 e0 fc ff
	ff		 mov	 eax, DWORD PTR tv215[ebp]
  00031	8b 8d d4 fc ff
	ff		 mov	 ecx, DWORD PTR _this$GSCopy$[ebp]
  00037	53		 push	 ebx
  00038	68 00 00 00 00	 push	 OFFSET ??_R0?AVSettingCustomSoundItemWnd@@@8
  0003d	68 00 00 00 00	 push	 OFFSET ??_R0?AVioWnd@@@8
  00042	53		 push	 ebx
  00043	83 c0 64	 add	 eax, 100		; 00000064H
  00046	50		 push	 eax
  00047	ff 15 00 00 00
	00		 call	 DWORD PTR __imp_?FindChildWnd@ioWnd@@QAEPAV1@K@Z
  0004d	50		 push	 eax
  0004e	e8 00 00 00 00	 call	 ___RTDynamicCast
  00053	83 c4 14	 add	 esp, 20			; 00000014H
  00056	89 85 d8 fc ff
	ff		 mov	 DWORD PTR _pItem$545685[ebp], eax

; 459  : 		if( !pItem )

  0005c	3b c3		 cmp	 eax, ebx
  0005e	0f 84 18 01 00
	00		 je	 $LN4@Init

; 460  : 			continue;
; 461  : 		
; 462  : 		ioHashString szKeyword;

  00064	8b 35 00 00 00
	00		 mov	 esi, DWORD PTR __imp_??0ioHashString@@QAE@XZ
  0006a	8d 8d b4 fc ff
	ff		 lea	 ecx, DWORD PTR _szKeyword$545688[ebp]
  00070	ff d6		 call	 esi

; 463  : 		ioHashString szPath;

  00072	8d 8d c4 fc ff
	ff		 lea	 ecx, DWORD PTR _szPath$545689[ebp]
  00078	89 5d fc	 mov	 DWORD PTR __$EHRec$[ebp+8], ebx
  0007b	ff d6		 call	 esi

; 464  : 		g_CustomSoundMgr.GetMyKeywordAndPath( i+1, szKeyword, szPath );

  0007d	8d 85 c4 fc ff
	ff		 lea	 eax, DWORD PTR _szPath$545689[ebp]
  00083	50		 push	 eax
  00084	8d 85 b4 fc ff
	ff		 lea	 eax, DWORD PTR _szKeyword$545688[ebp]
  0008a	50		 push	 eax
  0008b	ff b5 e0 fc ff
	ff		 push	 DWORD PTR tv215[ebp]
  00091	c6 45 fc 01	 mov	 BYTE PTR __$EHRec$[ebp+8], 1
  00095	e8 00 00 00 00	 call	 ?GetSingleton@ioCustomSoundMgr@@SAAAV1@XZ ; ioCustomSoundMgr::GetSingleton
  0009a	8b c8		 mov	 ecx, eax
  0009c	e8 00 00 00 00	 call	 ?GetMyKeywordAndPath@ioCustomSoundMgr@@QAEXKAAVioHashString@@0@Z ; ioCustomSoundMgr::GetMyKeywordAndPath

; 465  : 		
; 466  : 		char szName[MAX_PATH]="";

  000a1	be 03 01 00 00	 mov	 esi, 259		; 00000103H
  000a6	56		 push	 esi
  000a7	8d 85 ed fe ff
	ff		 lea	 eax, DWORD PTR _szName$545690[ebp+1]
  000ad	53		 push	 ebx
  000ae	50		 push	 eax
  000af	88 9d ec fe ff
	ff		 mov	 BYTE PTR _szName$545690[ebp], bl
  000b5	e8 00 00 00 00	 call	 _memset

; 467  : 		char szExt[MAX_PATH]="";

  000ba	56		 push	 esi
  000bb	8d 85 e5 fc ff
	ff		 lea	 eax, DWORD PTR _szExt$545691[ebp+1]
  000c1	53		 push	 ebx
  000c2	50		 push	 eax
  000c3	88 9d e4 fc ff
	ff		 mov	 BYTE PTR _szExt$545691[ebp], bl
  000c9	e8 00 00 00 00	 call	 _memset
  000ce	83 c4 18	 add	 esp, 24			; 00000018H

; 468  : 		_splitpath( szPath.c_str(), NULL, NULL, szName, szExt );

  000d1	8d 85 e4 fc ff
	ff		 lea	 eax, DWORD PTR _szExt$545691[ebp]
  000d7	50		 push	 eax
  000d8	8d 85 ec fe ff
	ff		 lea	 eax, DWORD PTR _szName$545690[ebp]
  000de	50		 push	 eax
  000df	53		 push	 ebx
  000e0	53		 push	 ebx
  000e1	8d 8d c4 fc ff
	ff		 lea	 ecx, DWORD PTR _szPath$545689[ebp]
  000e7	ff 15 00 00 00
	00		 call	 DWORD PTR __imp_?c_str@ioHashString@@QBEPBDXZ
  000ed	50		 push	 eax
  000ee	ff 15 00 00 00
	00		 call	 DWORD PTR __imp___splitpath

; 469  : 		char szNameExt[MAX_PATH]="";

  000f4	56		 push	 esi
  000f5	8d 85 e9 fd ff
	ff		 lea	 eax, DWORD PTR _szNameExt$545692[ebp+1]
  000fb	53		 push	 ebx
  000fc	50		 push	 eax
  000fd	88 9d e8 fd ff
	ff		 mov	 BYTE PTR _szNameExt$545692[ebp], bl
  00103	e8 00 00 00 00	 call	 _memset

; 470  : 		if( strcmp( szName , "") != 0)

  00108	33 c9		 xor	 ecx, ecx
  0010a	83 c4 20	 add	 esp, 32			; 00000020H
  0010d	41		 inc	 ecx
  0010e	bf 00 00 00 00	 mov	 edi, OFFSET ??_C@_00CNPNBAHC@?$AA@
  00113	8d b5 ec fe ff
	ff		 lea	 esi, DWORD PTR _szName$545690[ebp]
  00119	33 c0		 xor	 eax, eax
  0011b	f3 a6		 repe cmpsb
  0011d	74 27		 je	 SHORT $LN1@Init

; 471  : 			StringCbPrintf( szNameExt, sizeof(szNameExt), "%s%s", szName, szExt );

  0011f	8d 85 e4 fc ff
	ff		 lea	 eax, DWORD PTR _szExt$545691[ebp]
  00125	50		 push	 eax
  00126	8d 85 ec fe ff
	ff		 lea	 eax, DWORD PTR _szName$545690[ebp]
  0012c	50		 push	 eax
  0012d	68 00 00 00 00	 push	 OFFSET ??_C@_04HDOCAJNK@?$CFs?$CFs?$AA@
  00132	8d 85 e8 fd ff
	ff		 lea	 eax, DWORD PTR _szNameExt$545692[ebp]
  00138	68 04 01 00 00	 push	 260			; 00000104H
  0013d	50		 push	 eax
  0013e	e8 00 00 00 00	 call	 ?StringCbPrintfA@@YAJPADIPBDZZ ; StringCbPrintfA
  00143	83 c4 14	 add	 esp, 20			; 00000014H
$LN1@Init:

; 472  : 
; 473  : 		pItem->SetInfo( szKeyword, szNameExt );

  00146	8b 8d d8 fc ff
	ff		 mov	 ecx, DWORD PTR _pItem$545685[ebp]
  0014c	8d 85 e8 fd ff
	ff		 lea	 eax, DWORD PTR _szNameExt$545692[ebp]
  00152	50		 push	 eax
  00153	8d 85 b4 fc ff
	ff		 lea	 eax, DWORD PTR _szKeyword$545688[ebp]
  00159	50		 push	 eax
  0015a	e8 00 00 00 00	 call	 ?SetInfo@SettingCustomSoundItemWnd@@QAEXABVioHashString@@PBD@Z ; SettingCustomSoundItemWnd::SetInfo

; 474  : 	}

  0015f	8b 35 00 00 00
	00		 mov	 esi, DWORD PTR __imp_??1ioHashString@@QAE@XZ
  00165	8d 8d c4 fc ff
	ff		 lea	 ecx, DWORD PTR _szPath$545689[ebp]
  0016b	88 5d fc	 mov	 BYTE PTR __$EHRec$[ebp+8], bl
  0016e	ff d6		 call	 esi
  00170	83 4d fc ff	 or	 DWORD PTR __$EHRec$[ebp+8], -1
  00174	8d 8d b4 fc ff
	ff		 lea	 ecx, DWORD PTR _szKeyword$545688[ebp]
  0017a	ff d6		 call	 esi
$LN4@Init:

; 456  : 	for (int i = 0; i < MAX_SHOW_ITEM_WND ; i++)

  0017c	ff 85 e0 fc ff
	ff		 inc	 DWORD PTR tv215[ebp]
  00182	ff 8d dc fc ff
	ff		 dec	 DWORD PTR tv181[ebp]
  00188	0f 85 9d fe ff
	ff		 jne	 $LN5@Init

; 475  : }

  0018e	e8 00 00 00 00	 call	 __EH_epilog3_GS
  00193	c3		 ret	 0
_TEXT	ENDS
;	COMDAT text$x
text$x	SEGMENT
__unwindfunclet$?Init@GameOptionSettingCustomSoundTab@@QAEXXZ$0:
  00000	8d 8d b4 fc ff
	ff		 lea	 ecx, DWORD PTR _szKeyword$545688[ebp]
  00006	ff 25 00 00 00
	00		 jmp	 DWORD PTR __imp_??1ioHashString@@QAE@XZ
__unwindfunclet$?Init@GameOptionSettingCustomSoundTab@@QAEXXZ$1:
  0000c	8d 8d c4 fc ff
	ff		 lea	 ecx, DWORD PTR _szPath$545689[ebp]
  00012	ff 25 00 00 00
	00		 jmp	 DWORD PTR __imp_??1ioHashString@@QAE@XZ
__ehhandler$?Init@GameOptionSettingCustomSoundTab@@QAEXXZ:
  00018	8b 54 24 08	 mov	 edx, DWORD PTR [esp+8]
  0001c	8d 42 0c	 lea	 eax, DWORD PTR [edx+12]
  0001f	8b 8a b0 fc ff
	ff		 mov	 ecx, DWORD PTR [edx-848]
  00025	33 c8		 xor	 ecx, eax
  00027	e8 00 00 00 00	 call	 @__security_check_cookie@4
  0002c	8b 4a fc	 mov	 ecx, DWORD PTR [edx-4]
  0002f	33 c8		 xor	 ecx, eax
  00031	e8 00 00 00 00	 call	 @__security_check_cookie@4
  00036	b8 00 00 00 00	 mov	 eax, OFFSET __ehfuncinfo$?Init@GameOptionSettingCustomSoundTab@@QAEXXZ
  0003b	e9 00 00 00 00	 jmp	 ___CxxFrameHandler3
text$x	ENDS
?Init@GameOptionSettingCustomSoundTab@@QAEXXZ ENDP	; GameOptionSettingCustomSoundTab::Init
PUBLIC	_this$GSCopy$
PUBLIC	?SaveKeywordAndFileName@GameOptionSettingCustomSoundTab@@IAEXXZ ; GameOptionSettingCustomSoundTab::SaveKeywordAndFileName
EXTRN	?SaveINI@ioCustomSoundMgr@@QAEXK@Z:PROC		; ioCustomSoundMgr::SaveINI
EXTRN	?AddMyCustomSoundData@ioCustomSoundMgr@@QAE_NKPBD0@Z:PROC ; ioCustomSoundMgr::AddMyCustomSoundData
EXTRN	?DeleteMyCustomSoundData@ioCustomSoundMgr@@QAEXK@Z:PROC ; ioCustomSoundMgr::DeleteMyCustomSoundData
EXTRN	?UpdateMyKeyword@ioCustomSoundMgr@@QAEXKPBD@Z:PROC ; ioCustomSoundMgr::UpdateMyKeyword
EXTRN	__imp__stricmp:PROC
;	COMDAT xdata$x
xdata$x	SEGMENT
__unwindtable$?SaveKeywordAndFileName@GameOptionSettingCustomSoundTab@@IAEXXZ DD 0ffffffffH
	DD	FLAT:__unwindfunclet$?SaveKeywordAndFileName@GameOptionSettingCustomSoundTab@@IAEXXZ$0
	DD	00H
	DD	FLAT:__unwindfunclet$?SaveKeywordAndFileName@GameOptionSettingCustomSoundTab@@IAEXXZ$1
	DD	01H
	DD	FLAT:__unwindfunclet$?SaveKeywordAndFileName@GameOptionSettingCustomSoundTab@@IAEXXZ$2
	DD	02H
	DD	FLAT:__unwindfunclet$?SaveKeywordAndFileName@GameOptionSettingCustomSoundTab@@IAEXXZ$3
__ehfuncinfo$?SaveKeywordAndFileName@GameOptionSettingCustomSoundTab@@IAEXXZ DD 019930522H
	DD	04H
	DD	FLAT:__unwindtable$?SaveKeywordAndFileName@GameOptionSettingCustomSoundTab@@IAEXXZ
	DD	2 DUP(00H)
	DD	2 DUP(00H)
	DD	00H
	DD	01H
; Function compile flags: /Ogsp
xdata$x	ENDS
;	COMDAT ?SaveKeywordAndFileName@GameOptionSettingCustomSoundTab@@IAEXXZ
_TEXT	SEGMENT
_szPath$545722 = -876					; size = 16
_szKeyword$545721 = -860				; size = 16
_this$GSCopy$ = -844					; size = 4
_pItem$545718 = -840					; size = 4
_szCurNameExt$545727 = -836				; size = 16
_szCurKeyword$545726 = -820				; size = 16
tv149 = -804						; size = 4
tv309 = -800						; size = 4
_szExt$545724 = -796					; size = 260
_szName$545723 = -536					; size = 260
_szNameExt$545725 = -276				; size = 260
__$EHRec$ = -12						; size = 12
?SaveKeywordAndFileName@GameOptionSettingCustomSoundTab@@IAEXXZ PROC ; GameOptionSettingCustomSoundTab::SaveKeywordAndFileName, COMDAT
; _this$ = ecx

; 515  : {

  00000	68 60 03 00 00	 push	 864			; 00000360H
  00005	b8 00 00 00 00	 mov	 eax, __ehhandler$?SaveKeywordAndFileName@GameOptionSettingCustomSoundTab@@IAEXXZ
  0000a	e8 00 00 00 00	 call	 __EH_prolog3_GS

; 516  : 	for (int i = 0; i < MAX_SHOW_ITEM_WND ; i++)

  0000f	8b 3d 00 00 00
	00		 mov	 edi, DWORD PTR __imp_??0ioHashString@@QAE@XZ
  00015	8b 35 00 00 00
	00		 mov	 esi, DWORD PTR __imp_??1ioHashString@@QAE@XZ
  0001b	89 8d b4 fc ff
	ff		 mov	 DWORD PTR _this$GSCopy$[ebp], ecx

; 517  : 	{
; 518  : 		SettingCustomSoundItemWnd *pItem = dynamic_cast<SettingCustomSoundItemWnd*> ( FindChildWnd( ID_SETTING_CUSTOMSOUND_ITEM_WND1 + i));

  00021	c7 85 e0 fc ff
	ff 01 00 00 00	 mov	 DWORD PTR tv309[ebp], 1
  0002b	c7 85 dc fc ff
	ff 0a 00 00 00	 mov	 DWORD PTR tv149[ebp], 10 ; 0000000aH
  00035	33 db		 xor	 ebx, ebx
$LN10@SaveKeywor:
  00037	8b 85 e0 fc ff
	ff		 mov	 eax, DWORD PTR tv309[ebp]
  0003d	8b 8d b4 fc ff
	ff		 mov	 ecx, DWORD PTR _this$GSCopy$[ebp]
  00043	53		 push	 ebx
  00044	68 00 00 00 00	 push	 OFFSET ??_R0?AVSettingCustomSoundItemWnd@@@8
  00049	68 00 00 00 00	 push	 OFFSET ??_R0?AVioWnd@@@8
  0004e	53		 push	 ebx
  0004f	83 c0 64	 add	 eax, 100		; 00000064H
  00052	50		 push	 eax
  00053	ff 15 00 00 00
	00		 call	 DWORD PTR __imp_?FindChildWnd@ioWnd@@QAEPAV1@K@Z
  00059	50		 push	 eax
  0005a	e8 00 00 00 00	 call	 ___RTDynamicCast
  0005f	83 c4 14	 add	 esp, 20			; 00000014H
  00062	89 85 b8 fc ff
	ff		 mov	 DWORD PTR _pItem$545718[ebp], eax

; 519  : 		if( !pItem )

  00068	3b c3		 cmp	 eax, ebx
  0006a	0f 84 33 02 00
	00		 je	 $LN9@SaveKeywor

; 520  : 			continue;
; 521  : 
; 522  : 		ioHashString szKeyword;

  00070	8d 8d a4 fc ff
	ff		 lea	 ecx, DWORD PTR _szKeyword$545721[ebp]
  00076	ff d7		 call	 edi

; 523  : 		ioHashString szPath;

  00078	8d 8d 94 fc ff
	ff		 lea	 ecx, DWORD PTR _szPath$545722[ebp]
  0007e	89 5d fc	 mov	 DWORD PTR __$EHRec$[ebp+8], ebx
  00081	ff d7		 call	 edi

; 524  : 		g_CustomSoundMgr.GetMyKeywordAndPath( i+1, szKeyword, szPath );

  00083	8d 85 94 fc ff
	ff		 lea	 eax, DWORD PTR _szPath$545722[ebp]
  00089	50		 push	 eax
  0008a	8d 85 a4 fc ff
	ff		 lea	 eax, DWORD PTR _szKeyword$545721[ebp]
  00090	50		 push	 eax
  00091	ff b5 e0 fc ff
	ff		 push	 DWORD PTR tv309[ebp]
  00097	c6 45 fc 01	 mov	 BYTE PTR __$EHRec$[ebp+8], 1
  0009b	e8 00 00 00 00	 call	 ?GetSingleton@ioCustomSoundMgr@@SAAAV1@XZ ; ioCustomSoundMgr::GetSingleton
  000a0	8b c8		 mov	 ecx, eax
  000a2	e8 00 00 00 00	 call	 ?GetMyKeywordAndPath@ioCustomSoundMgr@@QAEXKAAVioHashString@@0@Z ; ioCustomSoundMgr::GetMyKeywordAndPath

; 525  : 
; 526  : 		char szName[MAX_PATH]="";

  000a7	68 03 01 00 00	 push	 259			; 00000103H
  000ac	8d 85 e9 fd ff
	ff		 lea	 eax, DWORD PTR _szName$545723[ebp+1]
  000b2	53		 push	 ebx
  000b3	50		 push	 eax
  000b4	88 9d e8 fd ff
	ff		 mov	 BYTE PTR _szName$545723[ebp], bl
  000ba	e8 00 00 00 00	 call	 _memset

; 527  : 		char szExt[MAX_PATH]="";

  000bf	68 03 01 00 00	 push	 259			; 00000103H
  000c4	8d 85 e5 fc ff
	ff		 lea	 eax, DWORD PTR _szExt$545724[ebp+1]
  000ca	53		 push	 ebx
  000cb	50		 push	 eax
  000cc	88 9d e4 fc ff
	ff		 mov	 BYTE PTR _szExt$545724[ebp], bl
  000d2	e8 00 00 00 00	 call	 _memset
  000d7	83 c4 18	 add	 esp, 24			; 00000018H

; 528  : 		_splitpath( szPath.c_str(), NULL, NULL, szName, szExt );

  000da	8d 85 e4 fc ff
	ff		 lea	 eax, DWORD PTR _szExt$545724[ebp]
  000e0	50		 push	 eax
  000e1	8d 85 e8 fd ff
	ff		 lea	 eax, DWORD PTR _szName$545723[ebp]
  000e7	50		 push	 eax
  000e8	53		 push	 ebx
  000e9	53		 push	 ebx
  000ea	8d 8d 94 fc ff
	ff		 lea	 ecx, DWORD PTR _szPath$545722[ebp]
  000f0	ff 15 00 00 00
	00		 call	 DWORD PTR __imp_?c_str@ioHashString@@QBEPBDXZ
  000f6	50		 push	 eax
  000f7	ff 15 00 00 00
	00		 call	 DWORD PTR __imp___splitpath

; 529  : 		char szNameExt[MAX_PATH]="";

  000fd	68 03 01 00 00	 push	 259			; 00000103H
  00102	8d 85 ed fe ff
	ff		 lea	 eax, DWORD PTR _szNameExt$545725[ebp+1]
  00108	53		 push	 ebx
  00109	50		 push	 eax
  0010a	88 9d ec fe ff
	ff		 mov	 BYTE PTR _szNameExt$545725[ebp], bl
  00110	e8 00 00 00 00	 call	 _memset

; 530  : 		StringCbPrintf( szNameExt, sizeof(szNameExt), "%s%s", szName, szExt );

  00115	8d 85 e4 fc ff
	ff		 lea	 eax, DWORD PTR _szExt$545724[ebp]
  0011b	50		 push	 eax
  0011c	8d 85 e8 fd ff
	ff		 lea	 eax, DWORD PTR _szName$545723[ebp]
  00122	50		 push	 eax
  00123	68 00 00 00 00	 push	 OFFSET ??_C@_04HDOCAJNK@?$CFs?$CFs?$AA@
  00128	8d 85 ec fe ff
	ff		 lea	 eax, DWORD PTR _szNameExt$545725[ebp]
  0012e	68 04 01 00 00	 push	 260			; 00000104H
  00133	50		 push	 eax
  00134	e8 00 00 00 00	 call	 ?StringCbPrintfA@@YAJPADIPBDZZ ; StringCbPrintfA
  00139	83 c4 34	 add	 esp, 52			; 00000034H

; 531  : 
; 532  : 		ioHashString szCurKeyword;

  0013c	8d 8d cc fc ff
	ff		 lea	 ecx, DWORD PTR _szCurKeyword$545726[ebp]
  00142	ff d7		 call	 edi

; 533  : 		ioHashString szCurNameExt;

  00144	8d 8d bc fc ff
	ff		 lea	 ecx, DWORD PTR _szCurNameExt$545727[ebp]
  0014a	c6 45 fc 02	 mov	 BYTE PTR __$EHRec$[ebp+8], 2
  0014e	ff d7		 call	 edi

; 534  : 		pItem->GetInfo( szCurKeyword, szCurNameExt );

  00150	8b 8d b8 fc ff
	ff		 mov	 ecx, DWORD PTR _pItem$545718[ebp]
  00156	8d 85 bc fc ff
	ff		 lea	 eax, DWORD PTR _szCurNameExt$545727[ebp]
  0015c	50		 push	 eax
  0015d	8d 85 cc fc ff
	ff		 lea	 eax, DWORD PTR _szCurKeyword$545726[ebp]
  00163	50		 push	 eax
  00164	c6 45 fc 03	 mov	 BYTE PTR __$EHRec$[ebp+8], 3
  00168	e8 00 00 00 00	 call	 ?GetInfo@SettingCustomSoundItemWnd@@QAEXAAVioHashString@@0@Z ; SettingCustomSoundItemWnd::GetInfo

; 535  : 
; 536  : 		if( szCurKeyword.IsEmpty() )

  0016d	8d 8d cc fc ff
	ff		 lea	 ecx, DWORD PTR _szCurKeyword$545726[ebp]
  00173	ff 15 00 00 00
	00		 call	 DWORD PTR __imp_?IsEmpty@ioHashString@@QBE_NXZ

; 537  : 			szCurNameExt.Clear();

  00179	8d 8d bc fc ff
	ff		 lea	 ecx, DWORD PTR _szCurNameExt$545727[ebp]
  0017f	84 c0		 test	 al, al

; 538  : 		else

  00181	75 10		 jne	 SHORT $LN21@SaveKeywor

; 539  : 		{
; 540  : 			if( szCurNameExt.IsEmpty() )

  00183	ff 15 00 00 00
	00		 call	 DWORD PTR __imp_?IsEmpty@ioHashString@@QBE_NXZ
  00189	84 c0		 test	 al, al
  0018b	74 0c		 je	 SHORT $LN4@SaveKeywor

; 541  : 				szCurKeyword.Clear();

  0018d	8d 8d cc fc ff
	ff		 lea	 ecx, DWORD PTR _szCurKeyword$545726[ebp]
$LN21@SaveKeywor:
  00193	ff 15 00 00 00
	00		 call	 DWORD PTR __imp_?Clear@ioHashString@@QAEXXZ
$LN4@SaveKeywor:

; 542  : 		}
; 543  : 
; 544  : 		if( stricmp( szKeyword.c_str(), szCurKeyword.c_str()) == 0 &&
; 545  : 			stricmp( szNameExt, szCurNameExt.c_str()) == 0 )

  00199	8d 8d cc fc ff
	ff		 lea	 ecx, DWORD PTR _szCurKeyword$545726[ebp]
  0019f	ff 15 00 00 00
	00		 call	 DWORD PTR __imp_?c_str@ioHashString@@QBEPBDXZ
  001a5	50		 push	 eax
  001a6	8d 8d a4 fc ff
	ff		 lea	 ecx, DWORD PTR _szKeyword$545721[ebp]
  001ac	ff 15 00 00 00
	00		 call	 DWORD PTR __imp_?c_str@ioHashString@@QBEPBDXZ
  001b2	50		 push	 eax
  001b3	ff 15 00 00 00
	00		 call	 DWORD PTR __imp__stricmp
  001b9	59		 pop	 ecx
  001ba	59		 pop	 ecx
  001bb	85 c0		 test	 eax, eax
  001bd	75 24		 jne	 SHORT $LN3@SaveKeywor
  001bf	8d 8d bc fc ff
	ff		 lea	 ecx, DWORD PTR _szCurNameExt$545727[ebp]
  001c5	ff 15 00 00 00
	00		 call	 DWORD PTR __imp_?c_str@ioHashString@@QBEPBDXZ
  001cb	50		 push	 eax
  001cc	8d 85 ec fe ff
	ff		 lea	 eax, DWORD PTR _szNameExt$545725[ebp]
  001d2	50		 push	 eax
  001d3	ff 15 00 00 00
	00		 call	 DWORD PTR __imp__stricmp
  001d9	59		 pop	 ecx
  001da	59		 pop	 ecx
  001db	85 c0		 test	 eax, eax

; 546  : 			continue;

  001dd	0f 84 91 00 00
	00		 je	 $LN1@SaveKeywor
$LN3@SaveKeywor:

; 547  : 
; 548  : 		if( stricmp( szNameExt, szCurNameExt.c_str()) == 0 )

  001e3	8d 8d bc fc ff
	ff		 lea	 ecx, DWORD PTR _szCurNameExt$545727[ebp]
  001e9	ff 15 00 00 00
	00		 call	 DWORD PTR __imp_?c_str@ioHashString@@QBEPBDXZ
  001ef	50		 push	 eax
  001f0	8d 85 ec fe ff
	ff		 lea	 eax, DWORD PTR _szNameExt$545725[ebp]
  001f6	50		 push	 eax
  001f7	ff 15 00 00 00
	00		 call	 DWORD PTR __imp__stricmp
  001fd	59		 pop	 ecx
  001fe	59		 pop	 ecx
  001ff	85 c0		 test	 eax, eax
  00201	75 21		 jne	 SHORT $LN2@SaveKeywor

; 549  : 		{
; 550  : 			g_CustomSoundMgr.UpdateMyKeyword( i+1, szCurKeyword.c_str() );

  00203	8d 8d cc fc ff
	ff		 lea	 ecx, DWORD PTR _szCurKeyword$545726[ebp]
  00209	ff 15 00 00 00
	00		 call	 DWORD PTR __imp_?c_str@ioHashString@@QBEPBDXZ
  0020f	50		 push	 eax
  00210	ff b5 e0 fc ff
	ff		 push	 DWORD PTR tv309[ebp]
  00216	e8 00 00 00 00	 call	 ?GetSingleton@ioCustomSoundMgr@@SAAAV1@XZ ; ioCustomSoundMgr::GetSingleton
  0021b	8b c8		 mov	 ecx, eax
  0021d	e8 00 00 00 00	 call	 ?UpdateMyKeyword@ioCustomSoundMgr@@QAEXKPBD@Z ; ioCustomSoundMgr::UpdateMyKeyword

; 551  : 			g_CustomSoundMgr.SaveINI( i+1 );
; 552  : 		}
; 553  : 		else

  00222	eb 3e		 jmp	 SHORT $LN22@SaveKeywor
$LN2@SaveKeywor:

; 554  : 		{
; 555  : 			g_CustomSoundMgr.DeleteMyCustomSoundData( i+1 );

  00224	ff b5 e0 fc ff
	ff		 push	 DWORD PTR tv309[ebp]
  0022a	e8 00 00 00 00	 call	 ?GetSingleton@ioCustomSoundMgr@@SAAAV1@XZ ; ioCustomSoundMgr::GetSingleton
  0022f	8b c8		 mov	 ecx, eax
  00231	e8 00 00 00 00	 call	 ?DeleteMyCustomSoundData@ioCustomSoundMgr@@QAEXK@Z ; ioCustomSoundMgr::DeleteMyCustomSoundData

; 556  : 			g_CustomSoundMgr.AddMyCustomSoundData( i+1, szCurKeyword.c_str(), szCurNameExt.c_str() );

  00236	8d 8d bc fc ff
	ff		 lea	 ecx, DWORD PTR _szCurNameExt$545727[ebp]
  0023c	ff 15 00 00 00
	00		 call	 DWORD PTR __imp_?c_str@ioHashString@@QBEPBDXZ
  00242	50		 push	 eax
  00243	8d 8d cc fc ff
	ff		 lea	 ecx, DWORD PTR _szCurKeyword$545726[ebp]
  00249	ff 15 00 00 00
	00		 call	 DWORD PTR __imp_?c_str@ioHashString@@QBEPBDXZ
  0024f	50		 push	 eax
  00250	ff b5 e0 fc ff
	ff		 push	 DWORD PTR tv309[ebp]
  00256	e8 00 00 00 00	 call	 ?GetSingleton@ioCustomSoundMgr@@SAAAV1@XZ ; ioCustomSoundMgr::GetSingleton
  0025b	8b c8		 mov	 ecx, eax
  0025d	e8 00 00 00 00	 call	 ?AddMyCustomSoundData@ioCustomSoundMgr@@QAE_NKPBD0@Z ; ioCustomSoundMgr::AddMyCustomSoundData
$LN22@SaveKeywor:

; 557  : 			g_CustomSoundMgr.SaveINI( i+1 );

  00262	ff b5 e0 fc ff
	ff		 push	 DWORD PTR tv309[ebp]
  00268	e8 00 00 00 00	 call	 ?GetSingleton@ioCustomSoundMgr@@SAAAV1@XZ ; ioCustomSoundMgr::GetSingleton
  0026d	8b c8		 mov	 ecx, eax
  0026f	e8 00 00 00 00	 call	 ?SaveINI@ioCustomSoundMgr@@QAEXK@Z ; ioCustomSoundMgr::SaveINI
$LN1@SaveKeywor:

; 558  : 		}
; 559  : 	}

  00274	8d 8d bc fc ff
	ff		 lea	 ecx, DWORD PTR _szCurNameExt$545727[ebp]
  0027a	c6 45 fc 02	 mov	 BYTE PTR __$EHRec$[ebp+8], 2
  0027e	ff d6		 call	 esi
  00280	8d 8d cc fc ff
	ff		 lea	 ecx, DWORD PTR _szCurKeyword$545726[ebp]
  00286	c6 45 fc 01	 mov	 BYTE PTR __$EHRec$[ebp+8], 1
  0028a	ff d6		 call	 esi
  0028c	8d 8d 94 fc ff
	ff		 lea	 ecx, DWORD PTR _szPath$545722[ebp]
  00292	88 5d fc	 mov	 BYTE PTR __$EHRec$[ebp+8], bl
  00295	ff d6		 call	 esi
  00297	83 4d fc ff	 or	 DWORD PTR __$EHRec$[ebp+8], -1
  0029b	8d 8d a4 fc ff
	ff		 lea	 ecx, DWORD PTR _szKeyword$545721[ebp]
  002a1	ff d6		 call	 esi
$LN9@SaveKeywor:

; 516  : 	for (int i = 0; i < MAX_SHOW_ITEM_WND ; i++)

  002a3	ff 85 e0 fc ff
	ff		 inc	 DWORD PTR tv309[ebp]
  002a9	ff 8d dc fc ff
	ff		 dec	 DWORD PTR tv149[ebp]
  002af	0f 85 82 fd ff
	ff		 jne	 $LN10@SaveKeywor

; 560  : }

  002b5	e8 00 00 00 00	 call	 __EH_epilog3_GS
  002ba	c3		 ret	 0
_TEXT	ENDS
;	COMDAT text$x
text$x	SEGMENT
__unwindfunclet$?SaveKeywordAndFileName@GameOptionSettingCustomSoundTab@@IAEXXZ$0:
  00000	8d 8d a4 fc ff
	ff		 lea	 ecx, DWORD PTR _szKeyword$545721[ebp]
  00006	ff 25 00 00 00
	00		 jmp	 DWORD PTR __imp_??1ioHashString@@QAE@XZ
__unwindfunclet$?SaveKeywordAndFileName@GameOptionSettingCustomSoundTab@@IAEXXZ$1:
  0000c	8d 8d 94 fc ff
	ff		 lea	 ecx, DWORD PTR _szPath$545722[ebp]
  00012	ff 25 00 00 00
	00		 jmp	 DWORD PTR __imp_??1ioHashString@@QAE@XZ
__unwindfunclet$?SaveKeywordAndFileName@GameOptionSettingCustomSoundTab@@IAEXXZ$2:
  00018	8d 8d cc fc ff
	ff		 lea	 ecx, DWORD PTR _szCurKeyword$545726[ebp]
  0001e	ff 25 00 00 00
	00		 jmp	 DWORD PTR __imp_??1ioHashString@@QAE@XZ
__unwindfunclet$?SaveKeywordAndFileName@GameOptionSettingCustomSoundTab@@IAEXXZ$3:
  00024	8d 8d bc fc ff
	ff		 lea	 ecx, DWORD PTR _szCurNameExt$545727[ebp]
  0002a	ff 25 00 00 00
	00		 jmp	 DWORD PTR __imp_??1ioHashString@@QAE@XZ
__ehhandler$?SaveKeywordAndFileName@GameOptionSettingCustomSoundTab@@IAEXXZ:
  00030	8b 54 24 08	 mov	 edx, DWORD PTR [esp+8]
  00034	8d 42 0c	 lea	 eax, DWORD PTR [edx+12]
  00037	8b 8a 90 fc ff
	ff		 mov	 ecx, DWORD PTR [edx-880]
  0003d	33 c8		 xor	 ecx, eax
  0003f	e8 00 00 00 00	 call	 @__security_check_cookie@4
  00044	8b 4a fc	 mov	 ecx, DWORD PTR [edx-4]
  00047	33 c8		 xor	 ecx, eax
  00049	e8 00 00 00 00	 call	 @__security_check_cookie@4
  0004e	b8 00 00 00 00	 mov	 eax, OFFSET __ehfuncinfo$?SaveKeywordAndFileName@GameOptionSettingCustomSoundTab@@IAEXXZ
  00053	e9 00 00 00 00	 jmp	 ___CxxFrameHandler3
text$x	ENDS
?SaveKeywordAndFileName@GameOptionSettingCustomSoundTab@@IAEXXZ ENDP ; GameOptionSettingCustomSoundTab::SaveKeywordAndFileName
PUBLIC	__$ArrayPad$
PUBLIC	?CheckWaveFile@GameOptionSettingCustomSoundTab@@QAE_NPBD@Z ; GameOptionSettingCustomSoundTab::CheckWaveFile
; Function compile flags: /Ogsp
;	COMDAT ?CheckWaveFile@GameOptionSettingCustomSoundTab@@QAE_NPBD@Z
_TEXT	SEGMENT
_szFullPath$ = -1044					; size = 520
_szCurPath$ = -524					; size = 520
__$ArrayPad$ = -4					; size = 4
_szFileName$ = 8					; size = 4
?CheckWaveFile@GameOptionSettingCustomSoundTab@@QAE_NPBD@Z PROC ; GameOptionSettingCustomSoundTab::CheckWaveFile, COMDAT
; _this$ = ecx

; 564  : {

  00000	55		 push	 ebp
  00001	8b ec		 mov	 ebp, esp
  00003	81 ec 14 04 00
	00		 sub	 esp, 1044		; 00000414H
  00009	a1 00 00 00 00	 mov	 eax, DWORD PTR ___security_cookie
  0000e	33 c5		 xor	 eax, ebp
  00010	89 45 fc	 mov	 DWORD PTR __$ArrayPad$[ebp], eax
  00013	53		 push	 ebx
  00014	8b 5d 08	 mov	 ebx, DWORD PTR _szFileName$[ebp]
  00017	56		 push	 esi
  00018	57		 push	 edi

; 565  : 	char szCurPath[MAX_PATH*2]="";

  00019	bf 07 02 00 00	 mov	 edi, 519		; 00000207H
  0001e	57		 push	 edi
  0001f	8d 85 f5 fd ff
	ff		 lea	 eax, DWORD PTR _szCurPath$[ebp+1]
  00025	6a 00		 push	 0
  00027	50		 push	 eax
  00028	c6 85 f4 fd ff
	ff 00		 mov	 BYTE PTR _szCurPath$[ebp], 0
  0002f	e8 00 00 00 00	 call	 _memset
  00034	83 c4 0c	 add	 esp, 12			; 0000000cH

; 566  : 	GetCurrentDirectory( sizeof( szCurPath ), szCurPath );

  00037	8d 85 f4 fd ff
	ff		 lea	 eax, DWORD PTR _szCurPath$[ebp]
  0003d	50		 push	 eax
  0003e	8d 77 01	 lea	 esi, DWORD PTR [edi+1]
  00041	56		 push	 esi
  00042	ff 15 00 00 00
	00		 call	 DWORD PTR __imp__GetCurrentDirectoryA@8

; 567  : 	char szFullPath[MAX_PATH*2]="";

  00048	57		 push	 edi
  00049	8d 85 ed fb ff
	ff		 lea	 eax, DWORD PTR _szFullPath$[ebp+1]
  0004f	6a 00		 push	 0
  00051	50		 push	 eax
  00052	c6 85 ec fb ff
	ff 00		 mov	 BYTE PTR _szFullPath$[ebp], 0
  00059	e8 00 00 00 00	 call	 _memset

; 568  : 	StringCbPrintf( szFullPath, sizeof(szFullPath), "%s\\Usersound\\%s", szCurPath, szFileName );

  0005e	53		 push	 ebx
  0005f	8d 85 f4 fd ff
	ff		 lea	 eax, DWORD PTR _szCurPath$[ebp]
  00065	50		 push	 eax
  00066	68 00 00 00 00	 push	 OFFSET ??_C@_0BA@GLAFFDBF@?$CFs?2Usersound?2?$CFs?$AA@
  0006b	8d 85 ec fb ff
	ff		 lea	 eax, DWORD PTR _szFullPath$[ebp]
  00071	56		 push	 esi
  00072	50		 push	 eax
  00073	e8 00 00 00 00	 call	 ?StringCbPrintfA@@YAJPADIPBDZZ ; StringCbPrintfA

; 569  : 	if( !g_CustomSoundMgr.CheckWaveFile( szFullPath ) )

  00078	8d 85 ec fb ff
	ff		 lea	 eax, DWORD PTR _szFullPath$[ebp]
  0007e	83 c4 20	 add	 esp, 32			; 00000020H
  00081	50		 push	 eax
  00082	e8 00 00 00 00	 call	 ?GetSingleton@ioCustomSoundMgr@@SAAAV1@XZ ; ioCustomSoundMgr::GetSingleton
  00087	8b c8		 mov	 ecx, eax
  00089	e8 00 00 00 00	 call	 ?CheckWaveFile@ioCustomSoundMgr@@QAE_NPBD@Z ; ioCustomSoundMgr::CheckWaveFile

; 570  : 		return false;
; 571  : 
; 572  : 	return true;
; 573  : }

  0008e	8b 4d fc	 mov	 ecx, DWORD PTR __$ArrayPad$[ebp]
  00091	84 c0		 test	 al, al
  00093	5f		 pop	 edi
  00094	0f 95 c0	 setne	 al
  00097	5e		 pop	 esi
  00098	33 cd		 xor	 ecx, ebp
  0009a	5b		 pop	 ebx
  0009b	e8 00 00 00 00	 call	 @__security_check_cookie@4
  000a0	c9		 leave
  000a1	c2 04 00	 ret	 4
?CheckWaveFile@GameOptionSettingCustomSoundTab@@QAE_NPBD@Z ENDP ; GameOptionSettingCustomSoundTab::CheckWaveFile
_TEXT	ENDS
PUBLIC	__$ArrayPad$
PUBLIC	?PlayWaveFile@GameOptionSettingCustomSoundTab@@QAEXPBD@Z ; GameOptionSettingCustomSoundTab::PlayWaveFile
; Function compile flags: /Ogsp
;	COMDAT ?PlayWaveFile@GameOptionSettingCustomSoundTab@@QAEXPBD@Z
_TEXT	SEGMENT
_szFullPath$ = -1044					; size = 520
_szCurPath$ = -524					; size = 520
__$ArrayPad$ = -4					; size = 4
_szFileName$ = 8					; size = 4
?PlayWaveFile@GameOptionSettingCustomSoundTab@@QAEXPBD@Z PROC ; GameOptionSettingCustomSoundTab::PlayWaveFile, COMDAT
; _this$ = ecx

; 576  : {

  00000	55		 push	 ebp
  00001	8b ec		 mov	 ebp, esp
  00003	81 ec 14 04 00
	00		 sub	 esp, 1044		; 00000414H
  00009	a1 00 00 00 00	 mov	 eax, DWORD PTR ___security_cookie
  0000e	33 c5		 xor	 eax, ebp
  00010	89 45 fc	 mov	 DWORD PTR __$ArrayPad$[ebp], eax
  00013	53		 push	 ebx
  00014	8b 5d 08	 mov	 ebx, DWORD PTR _szFileName$[ebp]
  00017	56		 push	 esi
  00018	57		 push	 edi

; 577  : 	char szCurPath[MAX_PATH*2]="";

  00019	bf 07 02 00 00	 mov	 edi, 519		; 00000207H
  0001e	57		 push	 edi
  0001f	8d 85 f5 fd ff
	ff		 lea	 eax, DWORD PTR _szCurPath$[ebp+1]
  00025	6a 00		 push	 0
  00027	50		 push	 eax
  00028	c6 85 f4 fd ff
	ff 00		 mov	 BYTE PTR _szCurPath$[ebp], 0
  0002f	e8 00 00 00 00	 call	 _memset
  00034	83 c4 0c	 add	 esp, 12			; 0000000cH

; 578  : 	GetCurrentDirectory( sizeof( szCurPath ), szCurPath );

  00037	8d 85 f4 fd ff
	ff		 lea	 eax, DWORD PTR _szCurPath$[ebp]
  0003d	50		 push	 eax
  0003e	8d 77 01	 lea	 esi, DWORD PTR [edi+1]
  00041	56		 push	 esi
  00042	ff 15 00 00 00
	00		 call	 DWORD PTR __imp__GetCurrentDirectoryA@8

; 579  : 	char szFullPath[MAX_PATH*2]="";

  00048	57		 push	 edi
  00049	8d 85 ed fb ff
	ff		 lea	 eax, DWORD PTR _szFullPath$[ebp+1]
  0004f	6a 00		 push	 0
  00051	50		 push	 eax
  00052	c6 85 ec fb ff
	ff 00		 mov	 BYTE PTR _szFullPath$[ebp], 0
  00059	e8 00 00 00 00	 call	 _memset

; 580  : 	StringCbPrintf( szFullPath, sizeof(szFullPath), "%s\\Usersound\\%s", szCurPath, szFileName );

  0005e	53		 push	 ebx
  0005f	8d 85 f4 fd ff
	ff		 lea	 eax, DWORD PTR _szCurPath$[ebp]
  00065	50		 push	 eax
  00066	68 00 00 00 00	 push	 OFFSET ??_C@_0BA@GLAFFDBF@?$CFs?2Usersound?2?$CFs?$AA@
  0006b	8d 85 ec fb ff
	ff		 lea	 eax, DWORD PTR _szFullPath$[ebp]
  00071	56		 push	 esi
  00072	50		 push	 eax
  00073	e8 00 00 00 00	 call	 ?StringCbPrintfA@@YAJPADIPBDZZ ; StringCbPrintfA

; 581  : 	g_CustomSoundMgr.PlayByPath( szFullPath );

  00078	8d 85 ec fb ff
	ff		 lea	 eax, DWORD PTR _szFullPath$[ebp]
  0007e	83 c4 20	 add	 esp, 32			; 00000020H
  00081	50		 push	 eax
  00082	e8 00 00 00 00	 call	 ?GetSingleton@ioCustomSoundMgr@@SAAAV1@XZ ; ioCustomSoundMgr::GetSingleton
  00087	8b c8		 mov	 ecx, eax
  00089	e8 00 00 00 00	 call	 ?PlayByPath@ioCustomSoundMgr@@QAEXPBD@Z ; ioCustomSoundMgr::PlayByPath

; 582  : }

  0008e	8b 4d fc	 mov	 ecx, DWORD PTR __$ArrayPad$[ebp]
  00091	5f		 pop	 edi
  00092	5e		 pop	 esi
  00093	33 cd		 xor	 ecx, ebp
  00095	5b		 pop	 ebx
  00096	e8 00 00 00 00	 call	 @__security_check_cookie@4
  0009b	c9		 leave
  0009c	c2 04 00	 ret	 4
?PlayWaveFile@GameOptionSettingCustomSoundTab@@QAEXPBD@Z ENDP ; GameOptionSettingCustomSoundTab::PlayWaveFile
_TEXT	ENDS
PUBLIC	_this$GSCopy$
PUBLIC	__$ArrayPad$
EXTRN	__imp_?AddRenderImage@ioWnd@@UAEXABVioHashString@@PAVioUIRenderImage@@@Z:PROC
; Function compile flags: /Ogsp
;	COMDAT ?AddRenderImage@GameOptionSettingCustomSoundTab@@MAEXABVioHashString@@PAVioUIRenderImage@@@Z
_TEXT	SEGMENT
_this$GSCopy$ = -24					; size = 4
__t$551140 = -20					; size = 9
__$ArrayPad$ = -4					; size = 4
_szType$ = 8						; size = 4
_pImage$ = 12						; size = 4
?AddRenderImage@GameOptionSettingCustomSoundTab@@MAEXABVioHashString@@PAVioUIRenderImage@@@Z PROC ; GameOptionSettingCustomSoundTab::AddRenderImage, COMDAT
; _this$ = ecx

; 628  : {

  00000	55		 push	 ebp
  00001	8b ec		 mov	 ebp, esp
  00003	83 ec 18	 sub	 esp, 24			; 00000018H
  00006	a1 00 00 00 00	 mov	 eax, DWORD PTR ___security_cookie
  0000b	33 c5		 xor	 eax, ebp
  0000d	89 45 fc	 mov	 DWORD PTR __$ArrayPad$[ebp], eax
  00010	53		 push	 ebx
  00011	8b 5d 0c	 mov	 ebx, DWORD PTR _pImage$[ebp]
  00014	56		 push	 esi
  00015	57		 push	 edi
  00016	8b 7d 08	 mov	 edi, DWORD PTR _szType$[ebp]

; 629  : 	if( szType == "DescIcon" )

  00019	6a 02		 push	 2
  0001b	89 4d e8	 mov	 DWORD PTR _this$GSCopy$[ebp], ecx
  0001e	c7 45 ec a9 89
	98 89		 mov	 DWORD PTR __t$551140[ebp], -1986491991 ; 899889a9H
  00025	c7 45 f0 a4 8f
	84 84		 mov	 DWORD PTR __t$551140[ebp+4], -2071687260 ; 84848fa4H
  0002c	8d 45 ec	 lea	 eax, DWORD PTR __t$551140[ebp]
  0002f	c6 45 f4 00	 mov	 BYTE PTR __t$551140[ebp+8], 0
  00033	59		 pop	 ecx
$LL111@AddRenderI:
  00034	81 30 ed ec eb
	ea		 xor	 DWORD PTR [eax], -353637139 ; eaebecedH
  0003a	83 c0 04	 add	 eax, 4
  0003d	49		 dec	 ecx
  0003e	75 f4		 jne	 SHORT $LL111@AddRenderI
  00040	8b cf		 mov	 ecx, edi
  00042	8d 75 ec	 lea	 esi, DWORD PTR __t$551140[ebp]
  00045	ff 15 00 00 00
	00		 call	 DWORD PTR __imp_?c_str@ioHashString@@QBEPBDXZ
$LL118@AddRenderI:
  0004b	8a 08		 mov	 cl, BYTE PTR [eax]
  0004d	3a 0e		 cmp	 cl, BYTE PTR [esi]
  0004f	75 1a		 jne	 SHORT $LN119@AddRenderI
  00051	84 c9		 test	 cl, cl
  00053	74 12		 je	 SHORT $LN120@AddRenderI
  00055	8a 48 01	 mov	 cl, BYTE PTR [eax+1]
  00058	3a 4e 01	 cmp	 cl, BYTE PTR [esi+1]
  0005b	75 0e		 jne	 SHORT $LN119@AddRenderI
  0005d	83 c0 02	 add	 eax, 2
  00060	83 c6 02	 add	 esi, 2
  00063	84 c9		 test	 cl, cl
  00065	75 e4		 jne	 SHORT $LL118@AddRenderI
$LN120@AddRenderI:
  00067	33 c0		 xor	 eax, eax
  00069	eb 05		 jmp	 SHORT $LN121@AddRenderI
$LN119@AddRenderI:
  0006b	1b c0		 sbb	 eax, eax
  0006d	83 d8 ff	 sbb	 eax, -1
$LN121@AddRenderI:
  00070	85 c0		 test	 eax, eax
  00072	75 23		 jne	 SHORT $LN3@AddRenderI

; 630  : 	{
; 631  : 		SAFEDELETE( m_pDescIcon );

  00074	8b 75 e8	 mov	 esi, DWORD PTR _this$GSCopy$[ebp]
  00077	8b 8e 68 01 00
	00		 mov	 ecx, DWORD PTR [esi+360]
  0007d	85 c9		 test	 ecx, ecx
  0007f	74 0e		 je	 SHORT $LN2@AddRenderI
  00081	8b 01		 mov	 eax, DWORD PTR [ecx]
  00083	6a 01		 push	 1
  00085	ff 50 40	 call	 DWORD PTR [eax+64]
  00088	83 a6 68 01 00
	00 00		 and	 DWORD PTR [esi+360], 0
$LN2@AddRenderI:

; 632  : 		m_pDescIcon = pImage;

  0008f	89 9e 68 01 00
	00		 mov	 DWORD PTR [esi+360], ebx

; 633  : 	}
; 634  : 	else

  00095	eb 0b		 jmp	 SHORT $LN1@AddRenderI
$LN3@AddRenderI:

; 635  : 		ioWnd::AddRenderImage( szType, pImage );

  00097	8b 4d e8	 mov	 ecx, DWORD PTR _this$GSCopy$[ebp]
  0009a	53		 push	 ebx
  0009b	57		 push	 edi
  0009c	ff 15 00 00 00
	00		 call	 DWORD PTR __imp_?AddRenderImage@ioWnd@@UAEXABVioHashString@@PAVioUIRenderImage@@@Z
$LN1@AddRenderI:

; 636  : 
; 637  : }

  000a2	8b 4d fc	 mov	 ecx, DWORD PTR __$ArrayPad$[ebp]
  000a5	5f		 pop	 edi
  000a6	5e		 pop	 esi
  000a7	33 cd		 xor	 ecx, ebp
  000a9	5b		 pop	 ebx
  000aa	e8 00 00 00 00	 call	 @__security_check_cookie@4
  000af	c9		 leave
  000b0	c2 08 00	 ret	 8
?AddRenderImage@GameOptionSettingCustomSoundTab@@MAEXABVioHashString@@PAVioUIRenderImage@@@Z ENDP ; GameOptionSettingCustomSoundTab::AddRenderImage
_TEXT	ENDS
PUBLIC	_szType$GSCopy$
PUBLIC	_pImage$GSCopy$
PUBLIC	_this$GSCopy$
PUBLIC	__$ArrayPad$
; Function compile flags: /Ogsp
;	COMDAT ?AddRenderImage@SettingKeyItemWnd@@MAEXABVioHashString@@PAVioUIRenderImage@@@Z
_TEXT	SEGMENT
_szType$GSCopy$ = -32					; size = 4
_pImage$GSCopy$ = -28					; size = 4
_this$GSCopy$ = -24					; size = 4
__t$551411 = -20					; size = 8
__t$551286 = -20					; size = 9
__$ArrayPad$ = -4					; size = 4
_szType$ = 8						; size = 4
_pImage$ = 12						; size = 4
?AddRenderImage@SettingKeyItemWnd@@MAEXABVioHashString@@PAVioUIRenderImage@@@Z PROC ; SettingKeyItemWnd::AddRenderImage, COMDAT
; _this$ = ecx

; 696  : {

  00000	55		 push	 ebp
  00001	8b ec		 mov	 ebp, esp
  00003	83 ec 20	 sub	 esp, 32			; 00000020H
  00006	a1 00 00 00 00	 mov	 eax, DWORD PTR ___security_cookie
  0000b	33 c5		 xor	 eax, ebp
  0000d	89 45 fc	 mov	 DWORD PTR __$ArrayPad$[ebp], eax
  00010	8b 45 0c	 mov	 eax, DWORD PTR _pImage$[ebp]
  00013	8b 55 08	 mov	 edx, DWORD PTR _szType$[ebp]
  00016	56		 push	 esi
  00017	57		 push	 edi

; 697  : 	if( szType == "IconBack" )

  00018	6a 02		 push	 2
  0001a	89 4d e8	 mov	 DWORD PTR _this$GSCopy$[ebp], ecx

; 703  : 	{
; 704  : 		SAFEDELETE( m_pIconKey );

  0001d	89 45 e4	 mov	 DWORD PTR _pImage$GSCopy$[ebp], eax
  00020	89 55 e0	 mov	 DWORD PTR _szType$GSCopy$[ebp], edx
  00023	c7 45 ec a4 8f
	84 84		 mov	 DWORD PTR __t$551286[ebp], -2071687260 ; 84848fa4H
  0002a	c7 45 f0 af 8d
	88 81		 mov	 DWORD PTR __t$551286[ebp+4], -2121757265 ; 81888dafH
  00031	8d 45 ec	 lea	 eax, DWORD PTR __t$551286[ebp]
  00034	c6 45 f4 00	 mov	 BYTE PTR __t$551286[ebp+8], 0
  00038	59		 pop	 ecx
  00039	bf ed ec eb ea	 mov	 edi, -353637139		; eaebecedH
$LL116@AddRenderI@2:

; 697  : 	if( szType == "IconBack" )

  0003e	31 38		 xor	 DWORD PTR [eax], edi
  00040	83 c0 04	 add	 eax, 4
  00043	49		 dec	 ecx
  00044	75 f8		 jne	 SHORT $LL116@AddRenderI@2
  00046	8b ca		 mov	 ecx, edx
  00048	8d 75 ec	 lea	 esi, DWORD PTR __t$551286[ebp]
  0004b	ff 15 00 00 00
	00		 call	 DWORD PTR __imp_?c_str@ioHashString@@QBEPBDXZ
$LL234@AddRenderI@2:
  00051	8a 08		 mov	 cl, BYTE PTR [eax]
  00053	3a 0e		 cmp	 cl, BYTE PTR [esi]
  00055	75 1a		 jne	 SHORT $LN235@AddRenderI@2
  00057	84 c9		 test	 cl, cl
  00059	74 12		 je	 SHORT $LN236@AddRenderI@2
  0005b	8a 48 01	 mov	 cl, BYTE PTR [eax+1]
  0005e	3a 4e 01	 cmp	 cl, BYTE PTR [esi+1]
  00061	75 0e		 jne	 SHORT $LN235@AddRenderI@2
  00063	83 c0 02	 add	 eax, 2
  00066	83 c6 02	 add	 esi, 2
  00069	84 c9		 test	 cl, cl
  0006b	75 e4		 jne	 SHORT $LL234@AddRenderI@2
$LN236@AddRenderI@2:
  0006d	33 c0		 xor	 eax, eax
  0006f	eb 05		 jmp	 SHORT $LN237@AddRenderI@2
$LN235@AddRenderI@2:
  00071	1b c0		 sbb	 eax, eax
  00073	83 d8 ff	 sbb	 eax, -1
$LN237@AddRenderI@2:
  00076	85 c0		 test	 eax, eax
  00078	75 29		 jne	 SHORT $LN233@AddRenderI@2

; 698  : 	{
; 699  : 		SAFEDELETE( m_pIconBack );

  0007a	8b 75 e8	 mov	 esi, DWORD PTR _this$GSCopy$[ebp]
  0007d	8b 8e 60 01 00
	00		 mov	 ecx, DWORD PTR [esi+352]
  00083	85 c9		 test	 ecx, ecx
  00085	74 0e		 je	 SHORT $LN5@AddRenderI@2
  00087	8b 01		 mov	 eax, DWORD PTR [ecx]
  00089	6a 01		 push	 1
  0008b	ff 50 40	 call	 DWORD PTR [eax+64]
  0008e	83 a6 60 01 00
	00 00		 and	 DWORD PTR [esi+352], 0
$LN5@AddRenderI@2:

; 700  : 		m_pIconBack = pImage;

  00095	8b 45 e4	 mov	 eax, DWORD PTR _pImage$GSCopy$[ebp]
  00098	89 86 60 01 00
	00		 mov	 DWORD PTR [esi+352], eax
  0009e	e9 9b 00 00 00	 jmp	 $LN1@AddRenderI@2
$LN233@AddRenderI@2:

; 701  : 	}
; 702  : 	else if( szType == "IconKey" )

  000a3	6a 04		 push	 4
  000a5	c7 45 ec a4 8f
	84 84		 mov	 DWORD PTR __t$551411[ebp], -2071687260 ; 84848fa4H
  000ac	31 7d ec	 xor	 DWORD PTR __t$551411[ebp], edi
  000af	c7 45 f0 a6 89
	92 00		 mov	 DWORD PTR __t$551411[ebp+4], 9603494 ; 009289a6H
  000b6	58		 pop	 eax
$LL219@AddRenderI@2:
  000b7	8b c8		 mov	 ecx, eax
  000b9	81 e1 03 00 00
	80		 and	 ecx, -2147483645	; 80000003H
  000bf	79 05		 jns	 SHORT $LN242@AddRenderI@2
  000c1	49		 dec	 ecx
  000c2	83 c9 fc	 or	 ecx, -4			; fffffffcH
  000c5	41		 inc	 ecx
$LN242@AddRenderI@2:
  000c6	b2 ed		 mov	 dl, -19			; ffffffedH
  000c8	2a d1		 sub	 dl, cl
  000ca	30 54 05 ec	 xor	 BYTE PTR __t$551411[ebp+eax], dl
  000ce	40		 inc	 eax
  000cf	83 f8 07	 cmp	 eax, 7
  000d2	7c e3		 jl	 SHORT $LL219@AddRenderI@2
  000d4	8b 4d e0	 mov	 ecx, DWORD PTR _szType$GSCopy$[ebp]
  000d7	8d 75 ec	 lea	 esi, DWORD PTR __t$551411[ebp]
  000da	ff 15 00 00 00
	00		 call	 DWORD PTR __imp_?c_str@ioHashString@@QBEPBDXZ
$LL238@AddRenderI@2:
  000e0	8a 08		 mov	 cl, BYTE PTR [eax]
  000e2	3a 0e		 cmp	 cl, BYTE PTR [esi]
  000e4	75 1a		 jne	 SHORT $LN239@AddRenderI@2
  000e6	84 c9		 test	 cl, cl
  000e8	74 12		 je	 SHORT $LN240@AddRenderI@2
  000ea	8a 48 01	 mov	 cl, BYTE PTR [eax+1]
  000ed	3a 4e 01	 cmp	 cl, BYTE PTR [esi+1]
  000f0	75 0e		 jne	 SHORT $LN239@AddRenderI@2
  000f2	83 c0 02	 add	 eax, 2
  000f5	83 c6 02	 add	 esi, 2
  000f8	84 c9		 test	 cl, cl
  000fa	75 e4		 jne	 SHORT $LL238@AddRenderI@2
$LN240@AddRenderI@2:
  000fc	33 c0		 xor	 eax, eax
  000fe	eb 05		 jmp	 SHORT $LN241@AddRenderI@2
$LN239@AddRenderI@2:
  00100	1b c0		 sbb	 eax, eax
  00102	83 d8 ff	 sbb	 eax, -1
$LN241@AddRenderI@2:
  00105	85 c0		 test	 eax, eax
  00107	75 26		 jne	 SHORT $LN3@AddRenderI@2

; 703  : 	{
; 704  : 		SAFEDELETE( m_pIconKey );

  00109	8b 75 e8	 mov	 esi, DWORD PTR _this$GSCopy$[ebp]
  0010c	8b 8e 64 01 00
	00		 mov	 ecx, DWORD PTR [esi+356]
  00112	85 c9		 test	 ecx, ecx
  00114	74 0e		 je	 SHORT $LN2@AddRenderI@2
  00116	8b 01		 mov	 eax, DWORD PTR [ecx]
  00118	6a 01		 push	 1
  0011a	ff 50 40	 call	 DWORD PTR [eax+64]
  0011d	83 a6 64 01 00
	00 00		 and	 DWORD PTR [esi+356], 0
$LN2@AddRenderI@2:

; 705  : 		m_pIconKey = pImage;

  00124	8b 45 e4	 mov	 eax, DWORD PTR _pImage$GSCopy$[ebp]
  00127	89 86 64 01 00
	00		 mov	 DWORD PTR [esi+356], eax

; 706  : 
; 707  : 	}
; 708  : 	else

  0012d	eb 0f		 jmp	 SHORT $LN1@AddRenderI@2
$LN3@AddRenderI@2:

; 709  : 	{
; 710  : 		ioWnd::AddRenderImage( szType, pImage );

  0012f	ff 75 e4	 push	 DWORD PTR _pImage$GSCopy$[ebp]
  00132	8b 4d e8	 mov	 ecx, DWORD PTR _this$GSCopy$[ebp]
  00135	ff 75 e0	 push	 DWORD PTR _szType$GSCopy$[ebp]
  00138	ff 15 00 00 00
	00		 call	 DWORD PTR __imp_?AddRenderImage@ioWnd@@UAEXABVioHashString@@PAVioUIRenderImage@@@Z
$LN1@AddRenderI@2:

; 711  : 	}
; 712  : }

  0013e	8b 4d fc	 mov	 ecx, DWORD PTR __$ArrayPad$[ebp]
  00141	5f		 pop	 edi
  00142	33 cd		 xor	 ecx, ebp
  00144	5e		 pop	 esi
  00145	e8 00 00 00 00	 call	 @__security_check_cookie@4
  0014a	c9		 leave
  0014b	c2 08 00	 ret	 8
?AddRenderImage@SettingKeyItemWnd@@MAEXABVioHashString@@PAVioUIRenderImage@@@Z ENDP ; SettingKeyItemWnd::AddRenderImage
_TEXT	ENDS
PUBLIC	?UpdateSetPage@GameOptionSettingKeyTab@@IAEXH@Z	; GameOptionSettingKeyTab::UpdateSetPage
EXTRN	?GetKey@CKeyInfo@@QAEGW4KeyTypeArray@1@@Z:PROC	; CKeyInfo::GetKey
; Function compile flags: /Ogsp
;	COMDAT ?UpdateSetPage@GameOptionSettingKeyTab@@IAEXH@Z
_TEXT	SEGMENT
_pChild$546192 = -16					; size = 4
_eFirsKeyType$546197 = -12				; size = 4
_eSecondKeyType$546198 = -8				; size = 4
_i$546188 = -4						; size = 4
_count$ = 8						; size = 4
_iNewPage$ = 8						; size = 4
?UpdateSetPage@GameOptionSettingKeyTab@@IAEXH@Z PROC	; GameOptionSettingKeyTab::UpdateSetPage, COMDAT
; _this$ = ecx

; 1175 : {

  00000	55		 push	 ebp
  00001	8b ec		 mov	 ebp, esp
  00003	83 ec 10	 sub	 esp, 16			; 00000010H

; 1176 : 	m_iCurPage = iNewPage;

  00006	8b 45 08	 mov	 eax, DWORD PTR _iNewPage$[ebp]

; 1177 : 	m_eSelectKeyType = CKeyInfo::KTA_NONE;
; 1178 : 
; 1179 : #ifdef SRC_OVERSEAS
; 1180 : 	int count  = 0;

  00009	83 65 08 00	 and	 DWORD PTR _count$[ebp], 0
  0000d	53		 push	 ebx
  0000e	56		 push	 esi
  0000f	8b f1		 mov	 esi, ecx
  00011	83 8e 8c 01 00
	00 ff		 or	 DWORD PTR [esi+396], -1

; 1181 : 	for (int i = 0; i < MAX_SHOW_ITEM_WND ; i++, count++)

  00018	83 65 fc 00	 and	 DWORD PTR _i$546188[ebp], 0
  0001c	57		 push	 edi
  0001d	89 86 60 01 00
	00		 mov	 DWORD PTR [esi+352], eax
$LL10@UpdateSetP:

; 1182 : 	{
; 1183 : 		SettingKeyItemWnd *pChild = static_cast<SettingKeyItemWnd*> ( FindChildWnd( ID_SETTING_KEY_ITEM_WND1 + i ) );

  00023	8b 45 fc	 mov	 eax, DWORD PTR _i$546188[ebp]
  00026	83 c0 65	 add	 eax, 101		; 00000065H
  00029	50		 push	 eax
  0002a	8b ce		 mov	 ecx, esi
  0002c	ff 15 00 00 00
	00		 call	 DWORD PTR __imp_?FindChildWnd@ioWnd@@QAEPAV1@K@Z
  00032	89 45 f0	 mov	 DWORD PTR _pChild$546192[ebp], eax

; 1184 : 		if(pChild)

  00035	85 c0		 test	 eax, eax
  00037	74 75		 je	 SHORT $LN4@UpdateSetP

; 1185 : 		{
; 1186 : 			SettingKeyItemWnd::ItemType eItemType = GetItemType( m_iCurPage + count);

  00039	8b be 60 01 00
	00		 mov	 edi, DWORD PTR [esi+352]
  0003f	8b 45 08	 mov	 eax, DWORD PTR _count$[ebp]
  00042	03 c7		 add	 eax, edi
  00044	50		 push	 eax
  00045	8b ce		 mov	 ecx, esi
  00047	e8 00 00 00 00	 call	 ?GetItemType@GameOptionSettingKeyTab@@IAE?AW4ItemType@SettingKeyItemWnd@@H@Z ; GameOptionSettingKeyTab::GetItemType
  0004c	8b d8		 mov	 ebx, eax

; 1187 : 			if(eItemType == SettingKeyItemWnd::IT_MYHOMEPAGE)

  0004e	83 fb 1c	 cmp	 ebx, 28			; 0000001cH
  00051	75 10		 jne	 SHORT $LN1@UpdateSetP

; 1188 : 			{
; 1189 : 				count++;

  00053	ff 45 08	 inc	 DWORD PTR _count$[ebp]

; 1190 : 				eItemType = GetItemType( m_iCurPage + count);

  00056	03 7d 08	 add	 edi, DWORD PTR _count$[ebp]
  00059	8b ce		 mov	 ecx, esi
  0005b	57		 push	 edi
  0005c	e8 00 00 00 00	 call	 ?GetItemType@GameOptionSettingKeyTab@@IAE?AW4ItemType@SettingKeyItemWnd@@H@Z ; GameOptionSettingKeyTab::GetItemType
  00061	8b d8		 mov	 ebx, eax
$LN1@UpdateSetP:

; 1191 : 			}
; 1192 : 			CKeyInfo::KeyTypeArray eFirsKeyType = CKeyInfo::KTA_NONE;

  00063	83 4d f4 ff	 or	 DWORD PTR _eFirsKeyType$546197[ebp], -1

; 1193 : 			CKeyInfo::KeyTypeArray eSecondKeyType = CKeyInfo::KTA_NONE;

  00067	83 4d f8 ff	 or	 DWORD PTR _eSecondKeyType$546198[ebp], -1

; 1194 : 			GetKeyType( eItemType, eFirsKeyType, eSecondKeyType );

  0006b	8d 45 f8	 lea	 eax, DWORD PTR _eSecondKeyType$546198[ebp]
  0006e	50		 push	 eax
  0006f	8d 45 f4	 lea	 eax, DWORD PTR _eFirsKeyType$546197[ebp]
  00072	50		 push	 eax
  00073	53		 push	 ebx
  00074	8b ce		 mov	 ecx, esi
  00076	e8 00 00 00 00	 call	 ?GetKeyType@GameOptionSettingKeyTab@@IAEXW4ItemType@SettingKeyItemWnd@@AAW4KeyTypeArray@CKeyInfo@@1@Z ; GameOptionSettingKeyTab::GetKeyType

; 1195 : 			pChild->SetItem(eItemType,
; 1196 : 				eFirsKeyType,
; 1197 : 				eSecondKeyType,
; 1198 : 				m_KeyInfo.GetKey(eFirsKeyType),
; 1199 : 				m_KeyInfo.GetKey(eSecondKeyType) );

  0007b	ff 75 f8	 push	 DWORD PTR _eSecondKeyType$546198[ebp]
  0007e	8d 8e 64 01 00
	00		 lea	 ecx, DWORD PTR [esi+356]
  00084	e8 00 00 00 00	 call	 ?GetKey@CKeyInfo@@QAEGW4KeyTypeArray@1@@Z ; CKeyInfo::GetKey
  00089	0f b7 c0	 movzx	 eax, ax
  0008c	50		 push	 eax
  0008d	ff 75 f4	 push	 DWORD PTR _eFirsKeyType$546197[ebp]
  00090	8d 8e 64 01 00
	00		 lea	 ecx, DWORD PTR [esi+356]
  00096	e8 00 00 00 00	 call	 ?GetKey@CKeyInfo@@QAEGW4KeyTypeArray@1@@Z ; CKeyInfo::GetKey
  0009b	8b 4d f0	 mov	 ecx, DWORD PTR _pChild$546192[ebp]
  0009e	0f b7 c0	 movzx	 eax, ax
  000a1	50		 push	 eax
  000a2	ff 75 f8	 push	 DWORD PTR _eSecondKeyType$546198[ebp]
  000a5	ff 75 f4	 push	 DWORD PTR _eFirsKeyType$546197[ebp]
  000a8	53		 push	 ebx
  000a9	e8 00 00 00 00	 call	 ?SetItem@SettingKeyItemWnd@@QAEXW4ItemType@1@W4KeyTypeArray@CKeyInfo@@1GG@Z ; SettingKeyItemWnd::SetItem
$LN4@UpdateSetP:

; 1181 : 	for (int i = 0; i < MAX_SHOW_ITEM_WND ; i++, count++)

  000ae	ff 45 fc	 inc	 DWORD PTR _i$546188[ebp]
  000b1	ff 45 08	 inc	 DWORD PTR _count$[ebp]
  000b4	83 7d fc 0e	 cmp	 DWORD PTR _i$546188[ebp], 14 ; 0000000eH
  000b8	0f 8c 65 ff ff
	ff		 jl	 $LL10@UpdateSetP
  000be	5f		 pop	 edi
  000bf	5e		 pop	 esi
  000c0	5b		 pop	 ebx

; 1200 : 		}
; 1201 : 	}
; 1202 : 
; 1203 : #else
; 1204 : 	for (int i = 0; i < MAX_SHOW_ITEM_WND ; i++)
; 1205 : 	{
; 1206 : 		SettingKeyItemWnd *pChild = dynamic_cast<SettingKeyItemWnd*> ( FindChildWnd( ID_SETTING_KEY_ITEM_WND1 + i ) );
; 1207 : 		if(pChild)
; 1208 : 		{
; 1209 : 			SettingKeyItemWnd::ItemType eItemType = GetItemType( m_iCurPage + i);
; 1210 : 			if(eItemType == SettingKeyItemWnd::IT_MYHOMEPAGE)
; 1211 : 				continue;
; 1212 : 			CKeyInfo::KeyTypeArray eFirsKeyType = CKeyInfo::KTA_NONE;
; 1213 : 			CKeyInfo::KeyTypeArray eSecondKeyType = CKeyInfo::KTA_NONE;
; 1214 : 			GetKeyType( eItemType, eFirsKeyType, eSecondKeyType );
; 1215 : 			pChild->SetItem(eItemType,
; 1216 : 				            eFirsKeyType,
; 1217 : 							eSecondKeyType,
; 1218 : 							m_KeyInfo.GetKey(eFirsKeyType),
; 1219 : 							m_KeyInfo.GetKey(eSecondKeyType) );
; 1220 : 		}
; 1221 : 	}
; 1222 : #endif
; 1223 : }

  000c1	c9		 leave
  000c2	c2 04 00	 ret	 4
?UpdateSetPage@GameOptionSettingKeyTab@@IAEXH@Z ENDP	; GameOptionSettingKeyTab::UpdateSetPage
_TEXT	ENDS
PUBLIC	?ChangeKeyValue@GameOptionSettingKeyTab@@IAEXG@Z ; GameOptionSettingKeyTab::ChangeKeyValue
EXTRN	?SetKey@CKeyInfo@@QAE_NW4KeyTypeArray@1@G@Z:PROC ; CKeyInfo::SetKey
; Function compile flags: /Ogsp
;	COMDAT ?ChangeKeyValue@GameOptionSettingKeyTab@@IAEXG@Z
_TEXT	SEGMENT
_wKey$ = 8						; size = 2
?ChangeKeyValue@GameOptionSettingKeyTab@@IAEXG@Z PROC	; GameOptionSettingKeyTab::ChangeKeyValue, COMDAT
; _this$ = ecx

; 1609 : {

  00000	55		 push	 ebp
  00001	8b ec		 mov	 ebp, esp
  00003	53		 push	 ebx

; 1610 : 	if( !m_KeyInfo.IsRightKey(wKey) )

  00004	8b 5d 08	 mov	 ebx, DWORD PTR _wKey$[ebp]
  00007	56		 push	 esi
  00008	57		 push	 edi
  00009	8b f1		 mov	 esi, ecx
  0000b	53		 push	 ebx
  0000c	8d 8e 64 01 00
	00		 lea	 ecx, DWORD PTR [esi+356]
  00012	e8 00 00 00 00	 call	 ?IsRightKey@CKeyInfo@@QAE_NG@Z ; CKeyInfo::IsRightKey
  00017	84 c0		 test	 al, al
  00019	74 4f		 je	 SHORT $LN1@ChangeKeyV

; 1611 : 		return;
; 1612 : 	
; 1613 : 	CKeyInfo::KeyTypeArray eEqualKeyType = m_KeyInfo.GetEqual( wKey );

  0001b	53		 push	 ebx
  0001c	8d 8e 64 01 00
	00		 lea	 ecx, DWORD PTR [esi+356]
  00022	e8 00 00 00 00	 call	 ?GetEqual@CKeyInfo@@QAE?AW4KeyTypeArray@1@G@Z ; CKeyInfo::GetEqual

; 1614 : 	if( eEqualKeyType == CKeyInfo::KTA_NONE )

  00027	83 f8 ff	 cmp	 eax, -1
  0002a	75 09		 jne	 SHORT $LN5@ChangeKeyV

; 1615 : 	{
; 1616 : 		m_KeyInfo.SetKey( m_eSelectKeyType, wKey );

  0002c	53		 push	 ebx
  0002d	ff b6 8c 01 00
	00		 push	 DWORD PTR [esi+396]

; 1617 : 		UpdateSetPage(m_iCurPage);

  00033	eb 1d		 jmp	 SHORT $LN9@ChangeKeyV
$LN5@ChangeKeyV:

; 1618 : 	}
; 1619 : 	else if( m_eSelectKeyType == eEqualKeyType )

  00035	39 86 8c 01 00
	00		 cmp	 DWORD PTR [esi+396], eax

; 1620 : 	{
; 1621 : 		UpdateSetPage(m_iCurPage);

  0003b	74 20		 je	 SHORT $LN10@ChangeKeyV

; 1622 : 	}
; 1623 : 	else if( m_eSelectKeyType != eEqualKeyType )
; 1624 : 	{
; 1625 : 		m_KeyInfo.SetKey( eEqualKeyType, KEY_NULL);

  0003d	6a 00		 push	 0
  0003f	50		 push	 eax
  00040	8d 8e 64 01 00
	00		 lea	 ecx, DWORD PTR [esi+356]
  00046	e8 00 00 00 00	 call	 ?SetKey@CKeyInfo@@QAE_NW4KeyTypeArray@1@G@Z ; CKeyInfo::SetKey

; 1626 : 		m_KeyInfo.SetKey( m_eSelectKeyType, wKey );

  0004b	53		 push	 ebx
  0004c	ff b6 8c 01 00
	00		 push	 DWORD PTR [esi+396]
$LN9@ChangeKeyV:
  00052	8d 8e 64 01 00
	00		 lea	 ecx, DWORD PTR [esi+356]
  00058	e8 00 00 00 00	 call	 ?SetKey@CKeyInfo@@QAE_NW4KeyTypeArray@1@G@Z ; CKeyInfo::SetKey
$LN10@ChangeKeyV:

; 1627 : 		UpdateSetPage(m_iCurPage);

  0005d	ff b6 60 01 00
	00		 push	 DWORD PTR [esi+352]
  00063	8b ce		 mov	 ecx, esi
  00065	e8 00 00 00 00	 call	 ?UpdateSetPage@GameOptionSettingKeyTab@@IAEXH@Z ; GameOptionSettingKeyTab::UpdateSetPage
$LN1@ChangeKeyV:
  0006a	5f		 pop	 edi
  0006b	5e		 pop	 esi
  0006c	5b		 pop	 ebx

; 1628 : 	}
; 1629 : }

  0006d	5d		 pop	 ebp
  0006e	c2 04 00	 ret	 4
?ChangeKeyValue@GameOptionSettingKeyTab@@IAEXG@Z ENDP	; GameOptionSettingKeyTab::ChangeKeyValue
_TEXT	ENDS
PUBLIC	??_C@_0BN@MHJEGNIG@?$FL?$CFs?$FN?5Can?8t?5Get?5PlayStage?$CB?$CB?$CB?$CB?$AA@ ; `string'
PUBLIC	??_C@_0BO@PEJLIHPF@GameOptionSettingKeyTab?3?3Save?$AA@ ; `string'
PUBLIC	??_R0?AVioScroll@@@8				; ioScroll `RTTI Type Descriptor'
PUBLIC	__$ArrayPad$
PUBLIC	?Save@GameOptionSettingKeyTab@@QAE_NXZ		; GameOptionSettingKeyTab::Save
EXTRN	__imp_?PrintTimeAndLog@CLog@@QAAXHPADZZ:PROC
EXTRN	__imp_?LOG@@3VCLog@@A:BYTE
EXTRN	?SetUpSecondKeyValue@ioBaseChar@@QAEXABUtagUseKeyValue@ioUserKeyInput@@@Z:PROC ; ioBaseChar::SetUpSecondKeyValue
EXTRN	?SetUpKeyValue@ioBaseChar@@QAEXABUtagUseKeyValue@ioUserKeyInput@@@Z:PROC ; ioBaseChar::SetUpKeyValue
EXTRN	?GetSecondGameKey@ioKeyManager@@QAEXAAUtagUseKeyValue@ioUserKeyInput@@@Z:PROC ; ioKeyManager::GetSecondGameKey
EXTRN	?GetGameKey@ioKeyManager@@QAEXAAUtagUseKeyValue@ioUserKeyInput@@@Z:PROC ; ioKeyManager::GetGameKey
EXTRN	?SetDefaultSecondKey@tagUseKeyValue@ioUserKeyInput@@QAEXXZ:PROC ; ioUserKeyInput::tagUseKeyValue::SetDefaultSecondKey
EXTRN	?SetDefaultFirstKey@tagUseKeyValue@ioUserKeyInput@@QAEXXZ:PROC ; ioUserKeyInput::tagUseKeyValue::SetDefaultFirstKey
EXTRN	??0tagUseKeyValue@ioUserKeyInput@@QAE@XZ:PROC	; ioUserKeyInput::tagUseKeyValue::tagUseKeyValue
EXTRN	?GetOwnerChar@ioPlayStage@@QAEPAVioBaseChar@@XZ:PROC ; ioPlayStage::GetOwnerChar
EXTRN	?SaveKey@ioKeyManager@@QAEXXZ:PROC		; ioKeyManager::SaveKey
EXTRN	?SetCustomKey@ioKeyManager@@QAE_NAAVCKeyInfo@@@Z:PROC ; ioKeyManager::SetCustomKey
;	COMDAT ??_C@_0BN@MHJEGNIG@?$FL?$CFs?$FN?5Can?8t?5Get?5PlayStage?$CB?$CB?$CB?$CB?$AA@
; File d:\lost saga for developer\youtube\tutorial\source\src\lsclient\ioapplication.h
CONST	SEGMENT
??_C@_0BN@MHJEGNIG@?$FL?$CFs?$FN?5Can?8t?5Get?5PlayStage?$CB?$CB?$CB?$CB?$AA@ DB '['
	DB	'%s] Can''t Get PlayStage!!!!', 00H		; `string'
CONST	ENDS
;	COMDAT ??_C@_0BO@PEJLIHPF@GameOptionSettingKeyTab?3?3Save?$AA@
CONST	SEGMENT
??_C@_0BO@PEJLIHPF@GameOptionSettingKeyTab?3?3Save?$AA@ DB 'GameOptionSet'
	DB	'tingKeyTab::Save', 00H			; `string'
CONST	ENDS
;	COMDAT ??_R0?AVioScroll@@@8
_DATA	SEGMENT
??_R0?AVioScroll@@@8 DD FLAT:??_7type_info@@6B@		; ioScroll `RTTI Type Descriptor'
	DD	00H
	DB	'.?AVioScroll@@', 00H
; Function compile flags: /Ogsp
; File d:\lost saga for developer\youtube\tutorial\source\src\lsclient\gui\gameoptionsettingtab.cpp
_DATA	ENDS
;	COMDAT ?Save@GameOptionSettingKeyTab@@QAE_NXZ
_TEXT	SEGMENT
_kKeys$546584 = -80					; size = 30
_i$546570 = -48						; size = 4
_eKeyTypeArray$ = -44					; size = 40
_kSecondKeys$546585 = -36				; size = 30
__$ArrayPad$ = -4					; size = 4
?Save@GameOptionSettingKeyTab@@QAE_NXZ PROC		; GameOptionSettingKeyTab::Save, COMDAT
; _this$ = ecx

; 1639 : {

  00000	55		 push	 ebp
  00001	8b ec		 mov	 ebp, esp
  00003	83 ec 50	 sub	 esp, 80			; 00000050H
  00006	a1 00 00 00 00	 mov	 eax, DWORD PTR ___security_cookie
  0000b	33 c5		 xor	 eax, ebp
  0000d	89 45 fc	 mov	 DWORD PTR __$ArrayPad$[ebp], eax
  00010	53		 push	 ebx
  00011	56		 push	 esi

; 1640 : 	enum { MAX_CHECK_KEY = 10, };
; 1641 : 	CKeyInfo::KeyTypeArray eKeyTypeArray[MAX_CHECK_KEY]={ CKeyInfo::KTA_UP, CKeyInfo::KTA_DOWN, CKeyInfo::KTA_LEFT, CKeyInfo::KTA_RIGHT, 

  00012	33 db		 xor	 ebx, ebx
  00014	8b f1		 mov	 esi, ecx
  00016	57		 push	 edi
  00017	89 5d d4	 mov	 DWORD PTR _eKeyTypeArray$[ebp], ebx
  0001a	c7 45 d8 01 00
	00 00		 mov	 DWORD PTR _eKeyTypeArray$[ebp+4], 1
  00021	c7 45 dc 02 00
	00 00		 mov	 DWORD PTR _eKeyTypeArray$[ebp+8], 2
  00028	c7 45 e0 03 00
	00 00		 mov	 DWORD PTR _eKeyTypeArray$[ebp+12], 3

; 1642 : 		                                                  CKeyInfo::KTA_ATTACK, CKeyInfo::KTA_DEFENSE, CKeyInfo::KTA_JUMP, CKeyInfo::KTA_SECOND_ATTACK,

  0002f	c7 45 e4 04 00
	00 00		 mov	 DWORD PTR _eKeyTypeArray$[ebp+16], 4
  00036	c7 45 e8 05 00
	00 00		 mov	 DWORD PTR _eKeyTypeArray$[ebp+20], 5
  0003d	c7 45 ec 06 00
	00 00		 mov	 DWORD PTR _eKeyTypeArray$[ebp+24], 6
  00044	c7 45 f0 0b 00
	00 00		 mov	 DWORD PTR _eKeyTypeArray$[ebp+28], 11 ; 0000000bH

; 1643 : 														  CKeyInfo::KTA_SECOND_DEFENSE, CKeyInfo::KTA_SECOND_JUMP };

  0004b	c7 45 f4 0c 00
	00 00		 mov	 DWORD PTR _eKeyTypeArray$[ebp+32], 12 ; 0000000cH
  00052	c7 45 f8 0d 00
	00 00		 mov	 DWORD PTR _eKeyTypeArray$[ebp+36], 13 ; 0000000dH

; 1644 : 
; 1645 : 	for (int i = 0; i < MAX_CHECK_KEY ; i++)

  00059	89 5d d0	 mov	 DWORD PTR _i$546570[ebp], ebx
  0005c	8d be 64 01 00
	00		 lea	 edi, DWORD PTR [esi+356]
$LL17@Save:

; 1646 : 	{
; 1647 : 		if( m_KeyInfo.GetKey( eKeyTypeArray[i]) == KEY_NULL )

  00062	8b 45 d0	 mov	 eax, DWORD PTR _i$546570[ebp]
  00065	ff 74 85 d4	 push	 DWORD PTR _eKeyTypeArray$[ebp+eax*4]
  00069	8b cf		 mov	 ecx, edi
  0006b	e8 00 00 00 00	 call	 ?GetKey@CKeyInfo@@QAEGW4KeyTypeArray@1@@Z ; CKeyInfo::GetKey
  00070	66 85 c0	 test	 ax, ax
  00073	0f 84 af 00 00
	00		 je	 $LN15@Save

; 1644 : 
; 1645 : 	for (int i = 0; i < MAX_CHECK_KEY ; i++)

  00079	ff 45 d0	 inc	 DWORD PTR _i$546570[ebp]
  0007c	83 7d d0 0a	 cmp	 DWORD PTR _i$546570[ebp], 10 ; 0000000aH
  00080	7c e0		 jl	 SHORT $LL17@Save

; 1656 : 		}
; 1657 : 	}
; 1658 : 
; 1659 : 	if( g_KeyManager.SetCustomKey( m_KeyInfo ) )

  00082	57		 push	 edi
  00083	e8 00 00 00 00	 call	 ?GetSingleton@ioKeyManager@@SAAAV1@XZ ; ioKeyManager::GetSingleton
  00088	8b c8		 mov	 ecx, eax
  0008a	e8 00 00 00 00	 call	 ?SetCustomKey@ioKeyManager@@QAE_NAAVCKeyInfo@@@Z ; ioKeyManager::SetCustomKey
  0008f	84 c0		 test	 al, al
  00091	0f 84 19 01 00
	00		 je	 $LN1@Save

; 1660 : 	{
; 1661 : 		g_KeyManager.SaveKey();

  00097	e8 00 00 00 00	 call	 ?GetSingleton@ioKeyManager@@SAAAV1@XZ ; ioKeyManager::GetSingleton
  0009c	8b c8		 mov	 ecx, eax
  0009e	e8 00 00 00 00	 call	 ?SaveKey@ioKeyManager@@QAEXXZ ; ioKeyManager::SaveKey

; 1662 : 
; 1663 : 		///      
; 1664 : 		ioPlayStage * pPlayStage = ToPlayStage( g_App.GetGameStage() );

  000a3	e8 00 00 00 00	 call	 ?GetSingleton@ioApplication@@SAAAV1@XZ ; ioApplication::GetSingleton
  000a8	ff b0 28 01 00
	00		 push	 DWORD PTR [eax+296]
  000ae	e8 00 00 00 00	 call	 ?ToPlayStage@@YAPAVioPlayStage@@PAVioGameStage@@@Z ; ToPlayStage
  000b3	59		 pop	 ecx

; 1665 : 		if(pPlayStage)

  000b4	3b c3		 cmp	 eax, ebx
  000b6	0f 84 da 00 00
	00		 je	 $LN3@Save

; 1666 : 		{
; 1667 : 			ioBaseChar *pOnwer = pPlayStage->GetOwnerChar();

  000bc	8b c8		 mov	 ecx, eax
  000be	e8 00 00 00 00	 call	 ?GetOwnerChar@ioPlayStage@@QAEPAVioBaseChar@@XZ ; ioPlayStage::GetOwnerChar
  000c3	8b f0		 mov	 esi, eax

; 1668 : 			if(pOnwer)

  000c5	3b f3		 cmp	 esi, ebx
  000c7	0f 84 e3 00 00
	00		 je	 $LN1@Save

; 1669 : 			{
; 1670 : 				ioUserKeyInput::UseKeyValue kKeys;

  000cd	8d 4d b0	 lea	 ecx, DWORD PTR _kKeys$546584[ebp]
  000d0	e8 00 00 00 00	 call	 ??0tagUseKeyValue@ioUserKeyInput@@QAE@XZ ; ioUserKeyInput::tagUseKeyValue::tagUseKeyValue

; 1671 : 				kKeys.SetDefaultFirstKey();

  000d5	8d 4d b0	 lea	 ecx, DWORD PTR _kKeys$546584[ebp]
  000d8	e8 00 00 00 00	 call	 ?SetDefaultFirstKey@tagUseKeyValue@ioUserKeyInput@@QAEXXZ ; ioUserKeyInput::tagUseKeyValue::SetDefaultFirstKey

; 1672 : 				ioUserKeyInput::UseKeyValue kSecondKeys;

  000dd	8d 4d dc	 lea	 ecx, DWORD PTR _kSecondKeys$546585[ebp]
  000e0	e8 00 00 00 00	 call	 ??0tagUseKeyValue@ioUserKeyInput@@QAE@XZ ; ioUserKeyInput::tagUseKeyValue::tagUseKeyValue

; 1673 : 				kSecondKeys.SetDefaultSecondKey();

  000e5	8d 4d dc	 lea	 ecx, DWORD PTR _kSecondKeys$546585[ebp]
  000e8	e8 00 00 00 00	 call	 ?SetDefaultSecondKey@tagUseKeyValue@ioUserKeyInput@@QAEXXZ ; ioUserKeyInput::tagUseKeyValue::SetDefaultSecondKey

; 1674 : 
; 1675 : 				g_KeyManager.GetGameKey(kKeys);

  000ed	8d 45 b0	 lea	 eax, DWORD PTR _kKeys$546584[ebp]
  000f0	50		 push	 eax
  000f1	e8 00 00 00 00	 call	 ?GetSingleton@ioKeyManager@@SAAAV1@XZ ; ioKeyManager::GetSingleton
  000f6	8b c8		 mov	 ecx, eax
  000f8	e8 00 00 00 00	 call	 ?GetGameKey@ioKeyManager@@QAEXAAUtagUseKeyValue@ioUserKeyInput@@@Z ; ioKeyManager::GetGameKey

; 1676 : 				g_KeyManager.GetSecondGameKey(kSecondKeys);

  000fd	8d 45 dc	 lea	 eax, DWORD PTR _kSecondKeys$546585[ebp]
  00100	50		 push	 eax
  00101	e8 00 00 00 00	 call	 ?GetSingleton@ioKeyManager@@SAAAV1@XZ ; ioKeyManager::GetSingleton
  00106	8b c8		 mov	 ecx, eax
  00108	e8 00 00 00 00	 call	 ?GetSecondGameKey@ioKeyManager@@QAEXAAUtagUseKeyValue@ioUserKeyInput@@@Z ; ioKeyManager::GetSecondGameKey

; 1677 : 
; 1678 : 				pOnwer->SetUpKeyValue( kKeys );

  0010d	8d 45 b0	 lea	 eax, DWORD PTR _kKeys$546584[ebp]
  00110	50		 push	 eax
  00111	8b ce		 mov	 ecx, esi
  00113	e8 00 00 00 00	 call	 ?SetUpKeyValue@ioBaseChar@@QAEXABUtagUseKeyValue@ioUserKeyInput@@@Z ; ioBaseChar::SetUpKeyValue

; 1679 : 				pOnwer->SetUpSecondKeyValue( kSecondKeys );

  00118	8d 45 dc	 lea	 eax, DWORD PTR _kSecondKeys$546585[ebp]
  0011b	50		 push	 eax
  0011c	8b ce		 mov	 ecx, esi
  0011e	e8 00 00 00 00	 call	 ?SetUpSecondKeyValue@ioBaseChar@@QAEXABUtagUseKeyValue@ioUserKeyInput@@@Z ; ioBaseChar::SetUpSecondKeyValue

; 1680 : 			}
; 1681 : 		}
; 1682 : 		else

  00123	e9 88 00 00 00	 jmp	 $LN1@Save
$LN15@Save:

; 1648 : 		{
; 1649 : 			UpdateSetPage( 0 );

  00128	53		 push	 ebx
  00129	8b ce		 mov	 ecx, esi
  0012b	e8 00 00 00 00	 call	 ?UpdateSetPage@GameOptionSettingKeyTab@@IAEXH@Z ; GameOptionSettingKeyTab::UpdateSetPage

; 1650 : 			ioScroll *pScroll = dynamic_cast<ioScroll*> ( FindChildWnd( ID_VERT_SCROLL ) );

  00130	53		 push	 ebx
  00131	68 00 00 00 00	 push	 OFFSET ??_R0?AVioScroll@@@8
  00136	68 00 00 00 00	 push	 OFFSET ??_R0?AVioWnd@@@8
  0013b	53		 push	 ebx
  0013c	68 e9 03 00 00	 push	 1001			; 000003e9H
  00141	8b ce		 mov	 ecx, esi
  00143	ff 15 00 00 00
	00		 call	 DWORD PTR __imp_?FindChildWnd@ioWnd@@QAEPAV1@K@Z
  00149	50		 push	 eax
  0014a	e8 00 00 00 00	 call	 ___RTDynamicCast
  0014f	83 c4 14	 add	 esp, 20			; 00000014H

; 1651 : 			if( pScroll )

  00152	3b c3		 cmp	 eax, ebx
  00154	74 10		 je	 SHORT $LN5@Save

; 1652 : 				pScroll->SetScrollPos( m_iCurPage );

  00156	ff b6 60 01 00
	00		 push	 DWORD PTR [esi+352]
  0015c	8b 10		 mov	 edx, DWORD PTR [eax]
  0015e	8b c8		 mov	 ecx, eax
  00160	ff 92 38 01 00
	00		 call	 DWORD PTR [edx+312]
$LN5@Save:

; 1653 : 
; 1654 : 			g_GUIMgr.SetMsgBox( MB_OK, NULL, STR(1) );

  00166	53		 push	 ebx
  00167	6a 01		 push	 1
  00169	68 00 00 00 00	 push	 OFFSET ??_C@_00CNPNBAHC@?$AA@
  0016e	68 00 00 00 00	 push	 OFFSET ??_C@_0BO@PEJLIHPF@GameOptionSettingKeyTab?3?3Save?$AA@
  00173	ff 15 00 00 00
	00		 call	 DWORD PTR __imp_?GetSingleton@ioStringManager@@SAAAV1@XZ
  00179	8b c8		 mov	 ecx, eax
  0017b	ff 15 00 00 00
	00		 call	 DWORD PTR __imp_?GetString@ioStringManager@@QAEPADPBD0HW4FileNamePrefix@1@@Z
  00181	50		 push	 eax
  00182	53		 push	 ebx
  00183	53		 push	 ebx
  00184	e8 00 00 00 00	 call	 ?GetSingleton@ioSP2GUIManager@@SAAAV1@XZ ; ioSP2GUIManager::GetSingleton
  00189	50		 push	 eax
  0018a	e8 00 00 00 00	 call	 ?SetMsgBox@ioSP2GUIManager@@QAAXHPAVioWnd@@PBDZZ ; ioSP2GUIManager::SetMsgBox
  0018f	83 c4 10	 add	 esp, 16			; 00000010H

; 1655 : 			return false;

  00192	32 c0		 xor	 al, al
  00194	eb 1c		 jmp	 SHORT $LN10@Save
$LN3@Save:

; 1683 : 		{
; 1684 : 			LOG.PrintTimeAndLog(0, "[%s] Can't Get PlayStage!!!!", __FUNCTION__);

  00196	68 00 00 00 00	 push	 OFFSET ??_C@_0BO@PEJLIHPF@GameOptionSettingKeyTab?3?3Save?$AA@
  0019b	68 00 00 00 00	 push	 OFFSET ??_C@_0BN@MHJEGNIG@?$FL?$CFs?$FN?5Can?8t?5Get?5PlayStage?$CB?$CB?$CB?$CB?$AA@
  001a0	53		 push	 ebx
  001a1	ff 35 00 00 00
	00		 push	 DWORD PTR __imp_?LOG@@3VCLog@@A
  001a7	ff 15 00 00 00
	00		 call	 DWORD PTR __imp_?PrintTimeAndLog@CLog@@QAAXHPADZZ
  001ad	83 c4 10	 add	 esp, 16			; 00000010H
$LN1@Save:

; 1685 : 		}
; 1686 : 
; 1687 : 	}
; 1688 : 
; 1689 : 	return true;

  001b0	b0 01		 mov	 al, 1
$LN10@Save:

; 1690 : }

  001b2	8b 4d fc	 mov	 ecx, DWORD PTR __$ArrayPad$[ebp]
  001b5	5f		 pop	 edi
  001b6	5e		 pop	 esi
  001b7	33 cd		 xor	 ecx, ebp
  001b9	5b		 pop	 ebx
  001ba	e8 00 00 00 00	 call	 @__security_check_cookie@4
  001bf	c9		 leave
  001c0	c3		 ret	 0
?Save@GameOptionSettingKeyTab@@QAE_NXZ ENDP		; GameOptionSettingKeyTab::Save
_TEXT	ENDS
PUBLIC	??_C@_01JOAMLHOP@?9?$AA@			; `string'
PUBLIC	??_C@_0BN@FGPAJGKB@SettingMacroItemWnd?3?3SetItem?$AA@ ; `string'
PUBLIC	_rMacroTextInfo$GSCopy$
PUBLIC	_this$GSCopy$
PUBLIC	__$ArrayPad$
PUBLIC	?SetItem@SettingMacroItemWnd@@QAEXGABUtagMecroTextInfo@CKeyInfo@@@Z ; SettingMacroItemWnd::SetItem
;	COMDAT ??_C@_01JOAMLHOP@?9?$AA@
; File d:\lost saga for developer\youtube\tutorial\source\src\lsclient\gui\gameoptionsettingtab.h
CONST	SEGMENT
??_C@_01JOAMLHOP@?9?$AA@ DB '-', 00H			; `string'
CONST	ENDS
;	COMDAT ??_C@_0BN@FGPAJGKB@SettingMacroItemWnd?3?3SetItem?$AA@
CONST	SEGMENT
??_C@_0BN@FGPAJGKB@SettingMacroItemWnd?3?3SetItem?$AA@ DB 'SettingMacroIt'
	DB	'emWnd::SetItem', 00H			; `string'
; Function compile flags: /Ogsp
; File d:\lost saga for developer\youtube\tutorial\source\src\lsclient\gui\gameoptionsettingtab.cpp
CONST	ENDS
;	COMDAT ?SetItem@SettingMacroItemWnd@@QAEXGABUtagMecroTextInfo@CKeyInfo@@@Z
_TEXT	SEGMENT
_rMacroTextInfo$GSCopy$ = -276				; size = 4
_pMacroItemBtn$ = -272					; size = 4
_this$GSCopy$ = -268					; size = 4
_szKeyText$546701 = -264				; size = 260
__$ArrayPad$ = -4					; size = 4
_wKey$ = 8						; size = 2
_rMacroTextInfo$ = 12					; size = 4
?SetItem@SettingMacroItemWnd@@QAEXGABUtagMecroTextInfo@CKeyInfo@@@Z PROC ; SettingMacroItemWnd::SetItem, COMDAT
; _this$ = ecx

; 1856 : {

  00000	55		 push	 ebp
  00001	8b ec		 mov	 ebp, esp
  00003	81 ec 14 01 00
	00		 sub	 esp, 276		; 00000114H
  00009	a1 00 00 00 00	 mov	 eax, DWORD PTR ___security_cookie
  0000e	33 c5		 xor	 eax, ebp
  00010	89 45 fc	 mov	 DWORD PTR __$ArrayPad$[ebp], eax
  00013	53		 push	 ebx
  00014	56		 push	 esi
  00015	8b 75 0c	 mov	 esi, DWORD PTR _rMacroTextInfo$[ebp]
  00018	57		 push	 edi
  00019	0f b7 7d 08	 movzx	 edi, WORD PTR _wKey$[ebp]

; 1857 : 	SettingMacroItemBtn *pMacroItemBtn = dynamic_cast<SettingMacroItemBtn *>( FindChildWnd( ID_MACRO_TYPE_BTN ) );

  0001d	33 db		 xor	 ebx, ebx
  0001f	53		 push	 ebx
  00020	68 00 00 00 00	 push	 OFFSET ??_R0?AVSettingMacroItemBtn@@@8
  00025	68 00 00 00 00	 push	 OFFSET ??_R0?AVioWnd@@@8
  0002a	53		 push	 ebx
  0002b	6a 01		 push	 1
  0002d	89 8d f4 fe ff
	ff		 mov	 DWORD PTR _this$GSCopy$[ebp], ecx
  00033	89 b5 ec fe ff
	ff		 mov	 DWORD PTR _rMacroTextInfo$GSCopy$[ebp], esi
  00039	ff 15 00 00 00
	00		 call	 DWORD PTR __imp_?FindChildWnd@ioWnd@@QAEPAV1@K@Z
  0003f	50		 push	 eax
  00040	e8 00 00 00 00	 call	 ___RTDynamicCast
  00045	83 c4 14	 add	 esp, 20			; 00000014H
  00048	89 85 f0 fe ff
	ff		 mov	 DWORD PTR _pMacroItemBtn$[ebp], eax

; 1858 : 	if( pMacroItemBtn )

  0004e	3b c3		 cmp	 eax, ebx
  00050	0f 84 e9 00 00
	00		 je	 $LN8@SetItem@2

; 1859 : 	{
; 1860 : 		if( rMacroTextInfo.m_bAll )

  00056	38 1e		 cmp	 BYTE PTR [esi], bl

; 1861 : 			pMacroItemBtn->SetTitleText( m_szDefaultTypeAll.c_str() );

  00058	8b 8d f4 fe ff
	ff		 mov	 ecx, DWORD PTR _this$GSCopy$[ebp]
  0005e	53		 push	 ebx
  0005f	be 00 00 00 00	 mov	 esi, OFFSET ??_C@_00CNPNBAHC@?$AA@
  00064	56		 push	 esi
  00065	74 08		 je	 SHORT $LN4@SetItem@2
  00067	81 c1 60 01 00
	00		 add	 ecx, 352		; 00000160H

; 1862 : 		else

  0006d	eb 06		 jmp	 SHORT $LN14@SetItem@2
$LN4@SetItem@2:

; 1863 : 			pMacroItemBtn->SetTitleText( m_szDefaultTypeTeam.c_str() );

  0006f	81 c1 70 01 00
	00		 add	 ecx, 368		; 00000170H
$LN14@SetItem@2:
  00075	ff 15 00 00 00
	00		 call	 DWORD PTR __imp_?c_str@ioHashString@@QBEPBDXZ
  0007b	8b 8d f0 fe ff
	ff		 mov	 ecx, DWORD PTR _pMacroItemBtn$[ebp]
  00081	50		 push	 eax
  00082	ff 15 00 00 00
	00		 call	 DWORD PTR __imp_?SetTitleText@ioWnd@@QAEXPBD0H@Z

; 1864 : 
; 1865 : 		char szKeyText[MAX_PATH] = "";

  00088	68 03 01 00 00	 push	 259			; 00000103H
  0008d	8d 85 f9 fe ff
	ff		 lea	 eax, DWORD PTR _szKeyText$546701[ebp+1]
  00093	53		 push	 ebx
  00094	50		 push	 eax
  00095	88 9d f8 fe ff
	ff		 mov	 BYTE PTR _szKeyText$546701[ebp], bl
  0009b	e8 00 00 00 00	 call	 _memset
  000a0	83 c4 0c	 add	 esp, 12			; 0000000cH

; 1866 : 		StringCbCopy( szKeyText, sizeof( szKeyText ), g_KeyManager.GetKeyText( wKey ) );

  000a3	57		 push	 edi
  000a4	e8 00 00 00 00	 call	 ?GetSingleton@ioKeyManager@@SAAAV1@XZ ; ioKeyManager::GetSingleton
  000a9	8b c8		 mov	 ecx, eax
  000ab	e8 00 00 00 00	 call	 ?GetKeyText@ioKeyManager@@QAEPBDG@Z ; ioKeyManager::GetKeyText
  000b0	50		 push	 eax
  000b1	bf 04 01 00 00	 mov	 edi, 260		; 00000104H
  000b6	57		 push	 edi
  000b7	8d 85 f8 fe ff
	ff		 lea	 eax, DWORD PTR _szKeyText$546701[ebp]
  000bd	50		 push	 eax
  000be	e8 00 00 00 00	 call	 ?StringCbCopyA@@YGJPADIPBD@Z ; StringCbCopyA

; 1867 : 		if( strcmp( szKeyText, STR(1) ) == 0 )		

  000c3	53		 push	 ebx
  000c4	6a 01		 push	 1
  000c6	56		 push	 esi
  000c7	68 00 00 00 00	 push	 OFFSET ??_C@_0BN@FGPAJGKB@SettingMacroItemWnd?3?3SetItem?$AA@
  000cc	ff 15 00 00 00
	00		 call	 DWORD PTR __imp_?GetSingleton@ioStringManager@@SAAAV1@XZ
  000d2	8b c8		 mov	 ecx, eax
  000d4	ff 15 00 00 00
	00		 call	 DWORD PTR __imp_?GetString@ioStringManager@@QAEPADPBD0HW4FileNamePrefix@1@@Z
  000da	8b f0		 mov	 esi, eax
  000dc	8d 8d f8 fe ff
	ff		 lea	 ecx, DWORD PTR _szKeyText$546701[ebp]
$LL10@SetItem@2:
  000e2	8a 01		 mov	 al, BYTE PTR [ecx]
  000e4	3a 06		 cmp	 al, BYTE PTR [esi]
  000e6	75 1a		 jne	 SHORT $LN11@SetItem@2
  000e8	3a c3		 cmp	 al, bl
  000ea	74 12		 je	 SHORT $LN12@SetItem@2
  000ec	8a 41 01	 mov	 al, BYTE PTR [ecx+1]
  000ef	3a 46 01	 cmp	 al, BYTE PTR [esi+1]
  000f2	75 0e		 jne	 SHORT $LN11@SetItem@2
  000f4	83 c1 02	 add	 ecx, 2
  000f7	83 c6 02	 add	 esi, 2
  000fa	3a c3		 cmp	 al, bl
  000fc	75 e4		 jne	 SHORT $LL10@SetItem@2
$LN12@SetItem@2:
  000fe	33 c0		 xor	 eax, eax
  00100	eb 05		 jmp	 SHORT $LN13@SetItem@2
$LN11@SetItem@2:
  00102	1b c0		 sbb	 eax, eax
  00104	83 d8 ff	 sbb	 eax, -1
$LN13@SetItem@2:
  00107	3b c3		 cmp	 eax, ebx
  00109	75 15		 jne	 SHORT $LN2@SetItem@2

; 1868 : 			StringCbPrintf( szKeyText, sizeof( szKeyText ), "-" );				

  0010b	68 00 00 00 00	 push	 OFFSET ??_C@_01JOAMLHOP@?9?$AA@
  00110	8d 85 f8 fe ff
	ff		 lea	 eax, DWORD PTR _szKeyText$546701[ebp]
  00116	57		 push	 edi
  00117	50		 push	 eax
  00118	e8 00 00 00 00	 call	 ?StringCbPrintfA@@YAJPADIPBDZZ ; StringCbPrintfA
  0011d	83 c4 0c	 add	 esp, 12			; 0000000cH
$LN2@SetItem@2:

; 1869 : 		pMacroItemBtn->SetKeyText( szKeyText );

  00120	8b 8d f0 fe ff
	ff		 mov	 ecx, DWORD PTR _pMacroItemBtn$[ebp]
  00126	8d 85 f8 fe ff
	ff		 lea	 eax, DWORD PTR _szKeyText$546701[ebp]
  0012c	50		 push	 eax
  0012d	81 c1 fc 01 00
	00		 add	 ecx, 508		; 000001fcH
  00133	ff 15 00 00 00
	00		 call	 DWORD PTR __imp_??4ioHashString@@QAEAAV0@PBD@Z
  00139	8b b5 ec fe ff
	ff		 mov	 esi, DWORD PTR _rMacroTextInfo$GSCopy$[ebp]
$LN8@SetItem@2:

; 1870 : 	}
; 1871 : 
; 1872 : 	ioEdit *pEdit = dynamic_cast<ioEdit*> ( FindChildWnd( ID_MACRO_EDIT ) );

  0013f	8b 8d f4 fe ff
	ff		 mov	 ecx, DWORD PTR _this$GSCopy$[ebp]
  00145	53		 push	 ebx
  00146	68 00 00 00 00	 push	 OFFSET ??_R0?AVioEdit@@@8
  0014b	68 00 00 00 00	 push	 OFFSET ??_R0?AVioWnd@@@8
  00150	53		 push	 ebx
  00151	6a 02		 push	 2
  00153	ff 15 00 00 00
	00		 call	 DWORD PTR __imp_?FindChildWnd@ioWnd@@QAEPAV1@K@Z
  00159	50		 push	 eax
  0015a	e8 00 00 00 00	 call	 ___RTDynamicCast
  0015f	8b f8		 mov	 edi, eax
  00161	83 c4 14	 add	 esp, 20			; 00000014H

; 1873 : 	if(pEdit)

  00164	3b fb		 cmp	 edi, ebx
  00166	74 1c		 je	 SHORT $LN1@SetItem@2

; 1874 : 	{
; 1875 : 		pEdit->SetText( rMacroTextInfo.m_szText.c_str() );

  00168	8d 4e 04	 lea	 ecx, DWORD PTR [esi+4]
  0016b	ff 15 00 00 00
	00		 call	 DWORD PTR __imp_?c_str@ioHashString@@QBEPBDXZ
  00171	50		 push	 eax
  00172	8b cf		 mov	 ecx, edi
  00174	ff 15 00 00 00
	00		 call	 DWORD PTR __imp_?SetText@ioEdit@@QAEXPBD@Z

; 1876 : 		pEdit->KillKeyFocus();

  0017a	8b 07		 mov	 eax, DWORD PTR [edi]
  0017c	8b cf		 mov	 ecx, edi
  0017e	ff 90 34 01 00
	00		 call	 DWORD PTR [eax+308]
$LN1@SetItem@2:

; 1877 : 	}
; 1878 : }

  00184	8b 4d fc	 mov	 ecx, DWORD PTR __$ArrayPad$[ebp]
  00187	5f		 pop	 edi
  00188	5e		 pop	 esi
  00189	33 cd		 xor	 ecx, ebp
  0018b	5b		 pop	 ebx
  0018c	e8 00 00 00 00	 call	 @__security_check_cookie@4
  00191	c9		 leave
  00192	c2 08 00	 ret	 8
?SetItem@SettingMacroItemWnd@@QAEXGABUtagMecroTextInfo@CKeyInfo@@@Z ENDP ; SettingMacroItemWnd::SetItem
_TEXT	ENDS
PUBLIC	_szType$GSCopy$
PUBLIC	_pImage$GSCopy$
PUBLIC	_this$GSCopy$
PUBLIC	__$ArrayPad$
; Function compile flags: /Ogsp
;	COMDAT ?AddRenderImage@GameOptionSettingGameTab@@MAEXABVioHashString@@PAVioUIRenderImage@@@Z
_TEXT	SEGMENT
_szType$GSCopy$ = -32					; size = 4
_pImage$GSCopy$ = -28					; size = 4
_this$GSCopy$ = -24					; size = 4
__t$551857 = -20					; size = 10
__t$551732 = -20					; size = 9
__t$551607 = -20					; size = 9
__$ArrayPad$ = -4					; size = 4
_szType$ = 8						; size = 4
_pImage$ = 12						; size = 4
?AddRenderImage@GameOptionSettingGameTab@@MAEXABVioHashString@@PAVioUIRenderImage@@@Z PROC ; GameOptionSettingGameTab::AddRenderImage, COMDAT
; _this$ = ecx

; 1971 : {

  00000	55		 push	 ebp
  00001	8b ec		 mov	 ebp, esp
  00003	83 ec 20	 sub	 esp, 32			; 00000020H
  00006	a1 00 00 00 00	 mov	 eax, DWORD PTR ___security_cookie
  0000b	33 c5		 xor	 eax, ebp
  0000d	89 45 fc	 mov	 DWORD PTR __$ArrayPad$[ebp], eax
  00010	8b 45 0c	 mov	 eax, DWORD PTR _pImage$[ebp]
  00013	8b 55 08	 mov	 edx, DWORD PTR _szType$[ebp]
  00016	53		 push	 ebx
  00017	56		 push	 esi
  00018	57		 push	 edi

; 1972 : 	if( szType == "IconBack" )

  00019	6a 02		 push	 2
  0001b	33 db		 xor	 ebx, ebx
  0001d	5f		 pop	 edi
  0001e	89 4d e8	 mov	 DWORD PTR _this$GSCopy$[ebp], ecx

; 1984 : 	{
; 1985 : 		SAFEDELETE( m_pIconMacro );

  00021	89 45 e4	 mov	 DWORD PTR _pImage$GSCopy$[ebp], eax
  00024	89 55 e0	 mov	 DWORD PTR _szType$GSCopy$[ebp], edx
  00027	c7 45 ec a4 8f
	84 84		 mov	 DWORD PTR __t$551607[ebp], -2071687260 ; 84848fa4H
  0002e	c7 45 f0 af 8d
	88 81		 mov	 DWORD PTR __t$551607[ebp+4], -2121757265 ; 81888dafH
  00035	8d 45 ec	 lea	 eax, DWORD PTR __t$551607[ebp]
  00038	88 5d f4	 mov	 BYTE PTR __t$551607[ebp+8], bl
  0003b	8b cf		 mov	 ecx, edi
$LL121@AddRenderI@3:

; 1972 : 	if( szType == "IconBack" )

  0003d	81 30 ed ec eb
	ea		 xor	 DWORD PTR [eax], -353637139 ; eaebecedH
  00043	83 c0 04	 add	 eax, 4
  00046	49		 dec	 ecx
  00047	75 f4		 jne	 SHORT $LL121@AddRenderI@3
  00049	8b ca		 mov	 ecx, edx
  0004b	8d 75 ec	 lea	 esi, DWORD PTR __t$551607[ebp]
  0004e	ff 15 00 00 00
	00		 call	 DWORD PTR __imp_?c_str@ioHashString@@QBEPBDXZ
$LL350@AddRenderI@3:
  00054	8a 08		 mov	 cl, BYTE PTR [eax]
  00056	3a 0e		 cmp	 cl, BYTE PTR [esi]
  00058	75 18		 jne	 SHORT $LN351@AddRenderI@3
  0005a	3a cb		 cmp	 cl, bl
  0005c	74 10		 je	 SHORT $LN352@AddRenderI@3
  0005e	8a 48 01	 mov	 cl, BYTE PTR [eax+1]
  00061	3a 4e 01	 cmp	 cl, BYTE PTR [esi+1]
  00064	75 0c		 jne	 SHORT $LN351@AddRenderI@3
  00066	03 c7		 add	 eax, edi
  00068	03 f7		 add	 esi, edi
  0006a	3a cb		 cmp	 cl, bl
  0006c	75 e6		 jne	 SHORT $LL350@AddRenderI@3
$LN352@AddRenderI@3:
  0006e	33 c0		 xor	 eax, eax
  00070	eb 05		 jmp	 SHORT $LN353@AddRenderI@3
$LN351@AddRenderI@3:
  00072	1b c0		 sbb	 eax, eax
  00074	83 d8 ff	 sbb	 eax, -1
$LN353@AddRenderI@3:
  00077	3b c3		 cmp	 eax, ebx
  00079	75 28		 jne	 SHORT $LN348@AddRenderI@3

; 1973 : 	{
; 1974 : 		SAFEDELETE( m_pIconBack );

  0007b	8b 75 e8	 mov	 esi, DWORD PTR _this$GSCopy$[ebp]
  0007e	8b 8e 04 02 00
	00		 mov	 ecx, DWORD PTR [esi+516]
  00084	3b cb		 cmp	 ecx, ebx
  00086	74 0d		 je	 SHORT $LN8@AddRenderI@3
  00088	8b 01		 mov	 eax, DWORD PTR [ecx]
  0008a	6a 01		 push	 1
  0008c	ff 50 40	 call	 DWORD PTR [eax+64]
  0008f	89 9e 04 02 00
	00		 mov	 DWORD PTR [esi+516], ebx
$LN8@AddRenderI@3:

; 1975 : 		m_pIconBack = pImage;

  00095	8b 45 e4	 mov	 eax, DWORD PTR _pImage$GSCopy$[ebp]
  00098	89 86 04 02 00
	00		 mov	 DWORD PTR [esi+516], eax
  0009e	e9 0d 01 00 00	 jmp	 $LN1@AddRenderI@3
$LN348@AddRenderI@3:

; 1976 : 	}
; 1977 : 	else if( szType == "IconGame" )

  000a3	c7 45 ec a4 8f
	84 84		 mov	 DWORD PTR __t$551732[ebp], -2071687260 ; 84848fa4H
  000aa	c7 45 f0 aa 8d
	86 8f		 mov	 DWORD PTR __t$551732[ebp+4], -1887007318 ; 8f868daaH
  000b1	8d 45 ec	 lea	 eax, DWORD PTR __t$551732[ebp]
  000b4	88 5d f4	 mov	 BYTE PTR __t$551732[ebp+8], bl
  000b7	8b cf		 mov	 ecx, edi
$LL227@AddRenderI@3:
  000b9	81 30 ed ec eb
	ea		 xor	 DWORD PTR [eax], -353637139 ; eaebecedH
  000bf	83 c0 04	 add	 eax, 4
  000c2	49		 dec	 ecx
  000c3	75 f4		 jne	 SHORT $LL227@AddRenderI@3
  000c5	8b 4d e0	 mov	 ecx, DWORD PTR _szType$GSCopy$[ebp]
  000c8	8d 75 ec	 lea	 esi, DWORD PTR __t$551732[ebp]
  000cb	ff 15 00 00 00
	00		 call	 DWORD PTR __imp_?c_str@ioHashString@@QBEPBDXZ
$LL354@AddRenderI@3:
  000d1	8a 08		 mov	 cl, BYTE PTR [eax]
  000d3	3a 0e		 cmp	 cl, BYTE PTR [esi]
  000d5	75 18		 jne	 SHORT $LN355@AddRenderI@3
  000d7	3a cb		 cmp	 cl, bl
  000d9	74 10		 je	 SHORT $LN356@AddRenderI@3
  000db	8a 48 01	 mov	 cl, BYTE PTR [eax+1]
  000de	3a 4e 01	 cmp	 cl, BYTE PTR [esi+1]
  000e1	75 0c		 jne	 SHORT $LN355@AddRenderI@3
  000e3	03 c7		 add	 eax, edi
  000e5	03 f7		 add	 esi, edi
  000e7	3a cb		 cmp	 cl, bl
  000e9	75 e6		 jne	 SHORT $LL354@AddRenderI@3
$LN356@AddRenderI@3:
  000eb	33 c0		 xor	 eax, eax
  000ed	eb 05		 jmp	 SHORT $LN357@AddRenderI@3
$LN355@AddRenderI@3:
  000ef	1b c0		 sbb	 eax, eax
  000f1	83 d8 ff	 sbb	 eax, -1
$LN357@AddRenderI@3:
  000f4	3b c3		 cmp	 eax, ebx
  000f6	75 28		 jne	 SHORT $LN349@AddRenderI@3

; 1978 : 	{
; 1979 : 		SAFEDELETE( m_pIconGame );

  000f8	8b 75 e8	 mov	 esi, DWORD PTR _this$GSCopy$[ebp]
  000fb	8b 8e 08 02 00
	00		 mov	 ecx, DWORD PTR [esi+520]
  00101	3b cb		 cmp	 ecx, ebx
  00103	74 0d		 je	 SHORT $LN5@AddRenderI@3
  00105	8b 01		 mov	 eax, DWORD PTR [ecx]
  00107	6a 01		 push	 1
  00109	ff 50 40	 call	 DWORD PTR [eax+64]
  0010c	89 9e 08 02 00
	00		 mov	 DWORD PTR [esi+520], ebx
$LN5@AddRenderI@3:

; 1980 : 		m_pIconGame = pImage;

  00112	8b 45 e4	 mov	 eax, DWORD PTR _pImage$GSCopy$[ebp]
  00115	89 86 08 02 00
	00		 mov	 DWORD PTR [esi+520], eax
  0011b	e9 90 00 00 00	 jmp	 $LN1@AddRenderI@3
$LN349@AddRenderI@3:

; 1981 : 
; 1982 : 	}
; 1983 : 	else if( szType == "IconMacro" )

  00120	c7 45 ec a4 8f
	84 84		 mov	 DWORD PTR __t$551857[ebp], -2071687260 ; 84848fa4H
  00127	c7 45 f0 a0 8d
	88 98		 mov	 DWORD PTR __t$551857[ebp+4], -1735881312 ; 98888da0H
  0012e	8d 45 ec	 lea	 eax, DWORD PTR __t$551857[ebp]
  00131	66 c7 45 f4 82
	00		 mov	 WORD PTR __t$551857[ebp+8], 130 ; 00000082H
  00137	8b cf		 mov	 ecx, edi
$LL333@AddRenderI@3:
  00139	81 30 ed ec eb
	ea		 xor	 DWORD PTR [eax], -353637139 ; eaebecedH
  0013f	83 c0 04	 add	 eax, 4
  00142	49		 dec	 ecx
  00143	75 f4		 jne	 SHORT $LL333@AddRenderI@3
  00145	8b 4d e0	 mov	 ecx, DWORD PTR _szType$GSCopy$[ebp]
  00148	80 75 f4 ed	 xor	 BYTE PTR __t$551857[ebp+8], -19 ; ffffffedH
  0014c	8d 75 ec	 lea	 esi, DWORD PTR __t$551857[ebp]
  0014f	ff 15 00 00 00
	00		 call	 DWORD PTR __imp_?c_str@ioHashString@@QBEPBDXZ
$LL358@AddRenderI@3:
  00155	8a 08		 mov	 cl, BYTE PTR [eax]
  00157	3a 0e		 cmp	 cl, BYTE PTR [esi]
  00159	75 18		 jne	 SHORT $LN359@AddRenderI@3
  0015b	3a cb		 cmp	 cl, bl
  0015d	74 10		 je	 SHORT $LN360@AddRenderI@3
  0015f	8a 48 01	 mov	 cl, BYTE PTR [eax+1]
  00162	3a 4e 01	 cmp	 cl, BYTE PTR [esi+1]
  00165	75 0c		 jne	 SHORT $LN359@AddRenderI@3
  00167	03 c7		 add	 eax, edi
  00169	03 f7		 add	 esi, edi
  0016b	3a cb		 cmp	 cl, bl
  0016d	75 e6		 jne	 SHORT $LL358@AddRenderI@3
$LN360@AddRenderI@3:
  0016f	33 c0		 xor	 eax, eax
  00171	eb 05		 jmp	 SHORT $LN361@AddRenderI@3
$LN359@AddRenderI@3:
  00173	1b c0		 sbb	 eax, eax
  00175	83 d8 ff	 sbb	 eax, -1
$LN361@AddRenderI@3:
  00178	3b c3		 cmp	 eax, ebx
  0017a	75 25		 jne	 SHORT $LN3@AddRenderI@3

; 1984 : 	{
; 1985 : 		SAFEDELETE( m_pIconMacro );

  0017c	8b 75 e8	 mov	 esi, DWORD PTR _this$GSCopy$[ebp]
  0017f	8b 8e 0c 02 00
	00		 mov	 ecx, DWORD PTR [esi+524]
  00185	3b cb		 cmp	 ecx, ebx
  00187	74 0d		 je	 SHORT $LN2@AddRenderI@3
  00189	8b 01		 mov	 eax, DWORD PTR [ecx]
  0018b	6a 01		 push	 1
  0018d	ff 50 40	 call	 DWORD PTR [eax+64]
  00190	89 9e 0c 02 00
	00		 mov	 DWORD PTR [esi+524], ebx
$LN2@AddRenderI@3:

; 1986 : 		m_pIconMacro = pImage;

  00196	8b 45 e4	 mov	 eax, DWORD PTR _pImage$GSCopy$[ebp]
  00199	89 86 0c 02 00
	00		 mov	 DWORD PTR [esi+524], eax

; 1987 : 	}
; 1988 : 	else

  0019f	eb 0f		 jmp	 SHORT $LN1@AddRenderI@3
$LN3@AddRenderI@3:

; 1989 : 	{
; 1990 : 		GameOptionBasicWnd::AddRenderImage( szType, pImage );

  001a1	ff 75 e4	 push	 DWORD PTR _pImage$GSCopy$[ebp]
  001a4	8b 4d e8	 mov	 ecx, DWORD PTR _this$GSCopy$[ebp]
  001a7	ff 75 e0	 push	 DWORD PTR _szType$GSCopy$[ebp]
  001aa	ff 15 00 00 00
	00		 call	 DWORD PTR __imp_?AddRenderImage@ioWnd@@UAEXABVioHashString@@PAVioUIRenderImage@@@Z
$LN1@AddRenderI@3:

; 1991 : 	}
; 1992 : }

  001b0	8b 4d fc	 mov	 ecx, DWORD PTR __$ArrayPad$[ebp]
  001b3	5f		 pop	 edi
  001b4	5e		 pop	 esi
  001b5	33 cd		 xor	 ecx, ebp
  001b7	5b		 pop	 ebx
  001b8	e8 00 00 00 00	 call	 @__security_check_cookie@4
  001bd	c9		 leave
  001be	c2 08 00	 ret	 8
?AddRenderImage@GameOptionSettingGameTab@@MAEXABVioHashString@@PAVioUIRenderImage@@@Z ENDP ; GameOptionSettingGameTab::AddRenderImage
_TEXT	ENDS
PUBLIC	?Save@GameOptionSettingGameTab@@QAEXXZ		; GameOptionSettingGameTab::Save
EXTRN	?SaveMacroTextInfo@ioKeyManager@@QAEXXZ:PROC	; ioKeyManager::SaveMacroTextInfo
EXTRN	?SetCustomMacroTextInfo@ioKeyManager@@QAE_NAAVCKeyInfo@@@Z:PROC ; ioKeyManager::SetCustomMacroTextInfo
; Function compile flags: /Ogsp
;	COMDAT ?Save@GameOptionSettingGameTab@@QAEXXZ
_TEXT	SEGMENT
?Save@GameOptionSettingGameTab@@QAEXXZ PROC		; GameOptionSettingGameTab::Save, COMDAT
; _this$ = ecx

; 2204 : {

  00000	56		 push	 esi
  00001	8b f1		 mov	 esi, ecx

; 2205 : 	ApplyChangedOption();

  00003	e8 00 00 00 00	 call	 ?ApplyChangedOption@GameOptionBasicWnd@@IAE_NXZ ; GameOptionBasicWnd::ApplyChangedOption

; 2206 : 
; 2207 : 	SetMacroTextInfo( m_dwSelectItemIDForMacroEdit );

  00008	ff b6 3c 02 00
	00		 push	 DWORD PTR [esi+572]
  0000e	8b ce		 mov	 ecx, esi
  00010	e8 00 00 00 00	 call	 ?SetMacroTextInfo@GameOptionSettingGameTab@@IAEXK@Z ; GameOptionSettingGameTab::SetMacroTextInfo

; 2208 : 	if( g_KeyManager.SetCustomMacroTextInfo( m_KeyInfo ) )

  00015	81 c6 10 02 00
	00		 add	 esi, 528		; 00000210H
  0001b	56		 push	 esi
  0001c	e8 00 00 00 00	 call	 ?GetSingleton@ioKeyManager@@SAAAV1@XZ ; ioKeyManager::GetSingleton
  00021	8b c8		 mov	 ecx, eax
  00023	e8 00 00 00 00	 call	 ?SetCustomMacroTextInfo@ioKeyManager@@QAE_NAAVCKeyInfo@@@Z ; ioKeyManager::SetCustomMacroTextInfo
  00028	5e		 pop	 esi
  00029	84 c0		 test	 al, al
  0002b	74 0c		 je	 SHORT $LN1@Save@2

; 2209 : 	{
; 2210 : 		g_KeyManager.SaveMacroTextInfo();

  0002d	e8 00 00 00 00	 call	 ?GetSingleton@ioKeyManager@@SAAAV1@XZ ; ioKeyManager::GetSingleton
  00032	8b c8		 mov	 ecx, eax
  00034	e9 00 00 00 00	 jmp	 ?SaveMacroTextInfo@ioKeyManager@@QAEXXZ ; ioKeyManager::SaveMacroTextInfo
$LN1@Save@2:

; 2211 : 	}
; 2212 : }

  00039	c3		 ret	 0
?Save@GameOptionSettingGameTab@@QAEXXZ ENDP		; GameOptionSettingGameTab::Save
_TEXT	ENDS
PUBLIC	?UpdateSetPage@GameOptionSettingGameTab@@IAEXXZ	; GameOptionSettingGameTab::UpdateSetPage
EXTRN	?GetMacroTextInfo@CKeyInfo@@QAEPAUtagMecroTextInfo@1@W4KeyTypeArray@1@@Z:PROC ; CKeyInfo::GetMacroTextInfo
; Function compile flags: /Ogsp
;	COMDAT ?UpdateSetPage@GameOptionSettingGameTab@@IAEXXZ
_TEXT	SEGMENT
_pItem$546904 = -8					; size = 4
tv150 = -4						; size = 4
?UpdateSetPage@GameOptionSettingGameTab@@IAEXXZ PROC	; GameOptionSettingGameTab::UpdateSetPage, COMDAT
; _this$ = ecx

; 2269 : {

  00000	55		 push	 ebp
  00001	8b ec		 mov	 ebp, esp
  00003	51		 push	 ecx
  00004	51		 push	 ecx
  00005	53		 push	 ebx
  00006	56		 push	 esi
  00007	57		 push	 edi
  00008	8b d9		 mov	 ebx, ecx

; 2270 : 	m_dwSelectItemIDForMacroEdit = ID_NONE_SELECT_ITEM_WND;

  0000a	6a 33		 push	 51			; 00000033H
  0000c	c7 83 3c 02 00
	00 40 42 0f 00	 mov	 DWORD PTR [ebx+572], 1000000 ; 000f4240H
  00016	5e		 pop	 esi
  00017	c7 45 fc 0c 00
	00 00		 mov	 DWORD PTR tv150[ebp], 12 ; 0000000cH
$LL5@UpdateSetP@2:

; 2273 : 	{
; 2274 : 		SettingMacroItemWnd *pItem = dynamic_cast<SettingMacroItemWnd*> ( FindChildWnd( ID_SETTING_MACRO_ITEM_WND1 + i));

  0001e	6a 00		 push	 0
  00020	68 00 00 00 00	 push	 OFFSET ??_R0?AVSettingMacroItemWnd@@@8
  00025	68 00 00 00 00	 push	 OFFSET ??_R0?AVioWnd@@@8
  0002a	6a 00		 push	 0
  0002c	8d 86 fa 00 00
	00		 lea	 eax, DWORD PTR [esi+250]
  00032	50		 push	 eax
  00033	8b cb		 mov	 ecx, ebx
  00035	ff 15 00 00 00
	00		 call	 DWORD PTR __imp_?FindChildWnd@ioWnd@@QAEPAV1@K@Z
  0003b	50		 push	 eax
  0003c	e8 00 00 00 00	 call	 ___RTDynamicCast
  00041	83 c4 14	 add	 esp, 20			; 00000014H
  00044	89 45 f8	 mov	 DWORD PTR _pItem$546904[ebp], eax

; 2275 : 		if(pItem)

  00047	85 c0		 test	 eax, eax
  00049	74 29		 je	 SHORT $LN4@UpdateSetP@2

; 2276 : 		{
; 2277 : 			CKeyInfo::KeyTypeArray eKeyType = (CKeyInfo::KeyTypeArray) (CKeyInfo::KTA_MACRO1 + i );
; 2278 : 			CKeyInfo::MecroTextInfo *pInfo = m_KeyInfo.GetMacroTextInfo( eKeyType );

  0004b	56		 push	 esi
  0004c	8d 8b 10 02 00
	00		 lea	 ecx, DWORD PTR [ebx+528]
  00052	e8 00 00 00 00	 call	 ?GetMacroTextInfo@CKeyInfo@@QAEPAUtagMecroTextInfo@1@W4KeyTypeArray@1@@Z ; CKeyInfo::GetMacroTextInfo

; 2279 : 			if( pInfo )

  00057	85 c0		 test	 eax, eax
  00059	74 19		 je	 SHORT $LN4@UpdateSetP@2

; 2280 : 			{
; 2281 : 				pItem->SetItem( m_KeyInfo.GetKey( eKeyType ), *pInfo );

  0005b	50		 push	 eax
  0005c	56		 push	 esi
  0005d	8d 8b 10 02 00
	00		 lea	 ecx, DWORD PTR [ebx+528]
  00063	e8 00 00 00 00	 call	 ?GetKey@CKeyInfo@@QAEGW4KeyTypeArray@1@@Z ; CKeyInfo::GetKey
  00068	8b 4d f8	 mov	 ecx, DWORD PTR _pItem$546904[ebp]
  0006b	0f b7 c0	 movzx	 eax, ax
  0006e	50		 push	 eax
  0006f	e8 00 00 00 00	 call	 ?SetItem@SettingMacroItemWnd@@QAEXGABUtagMecroTextInfo@CKeyInfo@@@Z ; SettingMacroItemWnd::SetItem
$LN4@UpdateSetP@2:

; 2271 : 
; 2272 : 	for (int i = 0; i < MAX_SHOW_ITEM_WND ; i++)

  00074	46		 inc	 esi
  00075	ff 4d fc	 dec	 DWORD PTR tv150[ebp]
  00078	75 a4		 jne	 SHORT $LL5@UpdateSetP@2
  0007a	5f		 pop	 edi
  0007b	5e		 pop	 esi
  0007c	5b		 pop	 ebx

; 2282 : 			}
; 2283 : 		}
; 2284 : 	}
; 2285 : }

  0007d	c9		 leave
  0007e	c3		 ret	 0
?UpdateSetPage@GameOptionSettingGameTab@@IAEXXZ ENDP	; GameOptionSettingGameTab::UpdateSetPage
_TEXT	ENDS
PUBLIC	?OnProcessText@GameOptionSettingGameTab@@IAEXXZ	; GameOptionSettingGameTab::OnProcessText
EXTRN	?IsKeyPress@CDirectInput@@QAI_NG@Z:PROC		; CDirectInput::IsKeyPress
EXTRN	?GetSingleton@CDirectInput@@SAAAV1@XZ:PROC	; CDirectInput::GetSingleton
; Function compile flags: /Ogsp
;	COMDAT ?OnProcessText@GameOptionSettingGameTab@@IAEXXZ
_TEXT	SEGMENT
?OnProcessText@GameOptionSettingGameTab@@IAEXXZ PROC	; GameOptionSettingGameTab::OnProcessText, COMDAT
; _this$ = ecx

; 2303 : {

  00000	56		 push	 esi
  00001	8b f1		 mov	 esi, ecx

; 2304 : 	if( m_dwSelectItemIDForMacroEdit == ID_NONE_SELECT_ITEM_WND ) return;

  00003	81 be 3c 02 00
	00 40 42 0f 00	 cmp	 DWORD PTR [esi+572], 1000000 ; 000f4240H
  0000d	74 1b		 je	 SHORT $LN1@OnProcessT

; 2305 : 
; 2306 : 	if( g_Input.IsKeyPress( KEY_ESCAPE )  )

  0000f	e8 00 00 00 00	 call	 ?GetSingleton@CDirectInput@@SAAAV1@XZ ; CDirectInput::GetSingleton
  00014	6a 1b		 push	 27			; 0000001bH
  00016	5a		 pop	 edx
  00017	8b c8		 mov	 ecx, eax
  00019	e8 00 00 00 00	 call	 ?IsKeyPress@CDirectInput@@QAI_NG@Z ; CDirectInput::IsKeyPress
  0001e	84 c0		 test	 al, al
  00020	74 08		 je	 SHORT $LN1@OnProcessT

; 2307 : 	{
; 2308 : 		UpdateSetPage();

  00022	8b ce		 mov	 ecx, esi
  00024	5e		 pop	 esi
  00025	e9 00 00 00 00	 jmp	 ?UpdateSetPage@GameOptionSettingGameTab@@IAEXXZ ; GameOptionSettingGameTab::UpdateSetPage
$LN1@OnProcessT:
  0002a	5e		 pop	 esi

; 2309 : 	}
; 2310 : }

  0002b	c3		 ret	 0
?OnProcessText@GameOptionSettingGameTab@@IAEXXZ ENDP	; GameOptionSettingGameTab::OnProcessText
; Function compile flags: /Ogsp
_TEXT	ENDS
;	COMDAT ?OnProcess@GameOptionSettingGameTab@@MAEXM@Z
_TEXT	SEGMENT
_fTimePerSec$ = 8					; size = 4
?OnProcess@GameOptionSettingGameTab@@MAEXM@Z PROC	; GameOptionSettingGameTab::OnProcess, COMDAT
; _this$ = ecx

; 2334 : {

  00000	56		 push	 esi
  00001	8b f1		 mov	 esi, ecx

; 2335 : 	if( !IsShow() ) return;

  00003	ff 15 00 00 00
	00		 call	 DWORD PTR __imp_?IsShow@ioWnd@@QBE_NXZ
  00009	84 c0		 test	 al, al
  0000b	74 07		 je	 SHORT $LN2@OnProcess

; 2336 : 
; 2337 : 	OnProcessText();

  0000d	8b ce		 mov	 ecx, esi
  0000f	e8 00 00 00 00	 call	 ?OnProcessText@GameOptionSettingGameTab@@IAEXXZ ; GameOptionSettingGameTab::OnProcessText
$LN2@OnProcess:
  00014	5e		 pop	 esi

; 2338 : }

  00015	c2 04 00	 ret	 4
?OnProcess@GameOptionSettingGameTab@@MAEXM@Z ENDP	; GameOptionSettingGameTab::OnProcess
_TEXT	ENDS
PUBLIC	_szType$GSCopy$
PUBLIC	_pImage$GSCopy$
PUBLIC	_this$GSCopy$
PUBLIC	__$ArrayPad$
; Function compile flags: /Ogsp
;	COMDAT ?AddRenderImage@GameOptionMovieScreenShotTab@@MAEXABVioHashString@@PAVioUIRenderImage@@@Z
_TEXT	SEGMENT
_szType$GSCopy$ = -36					; size = 4
_pImage$GSCopy$ = -32					; size = 4
_this$GSCopy$ = -28					; size = 4
__t$552305 = -24					; size = 15
__t$552180 = -20					; size = 10
__t$552042 = -20					; size = 9
__$ArrayPad$ = -4					; size = 4
_szType$ = 8						; size = 4
_pImage$ = 12						; size = 4
?AddRenderImage@GameOptionMovieScreenShotTab@@MAEXABVioHashString@@PAVioUIRenderImage@@@Z PROC ; GameOptionMovieScreenShotTab::AddRenderImage, COMDAT
; _this$ = ecx

; 2390 : {

  00000	55		 push	 ebp
  00001	8b ec		 mov	 ebp, esp
  00003	83 ec 24	 sub	 esp, 36			; 00000024H
  00006	a1 00 00 00 00	 mov	 eax, DWORD PTR ___security_cookie
  0000b	33 c5		 xor	 eax, ebp
  0000d	89 45 fc	 mov	 DWORD PTR __$ArrayPad$[ebp], eax
  00010	8b 45 0c	 mov	 eax, DWORD PTR _pImage$[ebp]
  00013	8b 55 08	 mov	 edx, DWORD PTR _szType$[ebp]
  00016	53		 push	 ebx
  00017	56		 push	 esi
  00018	57		 push	 edi

; 2391 : 	if( szType == "IconBack" )

  00019	33 db		 xor	 ebx, ebx
  0001b	6a 02		 push	 2
  0001d	89 4d e4	 mov	 DWORD PTR _this$GSCopy$[ebp], ecx

; 2403 : 	{
; 2404 : 		SAFEDELETE( m_pIconScreenShot );

  00020	89 45 e0	 mov	 DWORD PTR _pImage$GSCopy$[ebp], eax
  00023	89 55 dc	 mov	 DWORD PTR _szType$GSCopy$[ebp], edx
  00026	c7 45 ec a4 8f
	84 84		 mov	 DWORD PTR __t$552042[ebp], -2071687260 ; 84848fa4H
  0002d	c7 45 f0 af 8d
	88 81		 mov	 DWORD PTR __t$552042[ebp+4], -2121757265 ; 81888dafH
  00034	8d 45 ec	 lea	 eax, DWORD PTR __t$552042[ebp]
  00037	88 5d f4	 mov	 BYTE PTR __t$552042[ebp+8], bl
  0003a	59		 pop	 ecx
  0003b	bf ed ec eb ea	 mov	 edi, -353637139		; eaebecedH
$LL121@AddRenderI@4:

; 2391 : 	if( szType == "IconBack" )

  00040	31 38		 xor	 DWORD PTR [eax], edi
  00042	83 c0 04	 add	 eax, 4
  00045	49		 dec	 ecx
  00046	75 f8		 jne	 SHORT $LL121@AddRenderI@4
  00048	8b ca		 mov	 ecx, edx
  0004a	8d 75 ec	 lea	 esi, DWORD PTR __t$552042[ebp]
  0004d	ff 15 00 00 00
	00		 call	 DWORD PTR __imp_?c_str@ioHashString@@QBEPBDXZ
$LL350@AddRenderI@4:
  00053	8a 08		 mov	 cl, BYTE PTR [eax]
  00055	3a 0e		 cmp	 cl, BYTE PTR [esi]
  00057	75 1a		 jne	 SHORT $LN351@AddRenderI@4
  00059	3a cb		 cmp	 cl, bl
  0005b	74 12		 je	 SHORT $LN352@AddRenderI@4
  0005d	8a 48 01	 mov	 cl, BYTE PTR [eax+1]
  00060	3a 4e 01	 cmp	 cl, BYTE PTR [esi+1]
  00063	75 0e		 jne	 SHORT $LN351@AddRenderI@4
  00065	83 c0 02	 add	 eax, 2
  00068	83 c6 02	 add	 esi, 2
  0006b	3a cb		 cmp	 cl, bl
  0006d	75 e4		 jne	 SHORT $LL350@AddRenderI@4
$LN352@AddRenderI@4:
  0006f	33 c0		 xor	 eax, eax
  00071	eb 05		 jmp	 SHORT $LN353@AddRenderI@4
$LN351@AddRenderI@4:
  00073	1b c0		 sbb	 eax, eax
  00075	83 d8 ff	 sbb	 eax, -1
$LN353@AddRenderI@4:
  00078	3b c3		 cmp	 eax, ebx
  0007a	75 28		 jne	 SHORT $LN348@AddRenderI@4

; 2392 : 	{
; 2393 : 		SAFEDELETE( m_pIconBack );

  0007c	8b 75 e4	 mov	 esi, DWORD PTR _this$GSCopy$[ebp]
  0007f	8b 8e 04 02 00
	00		 mov	 ecx, DWORD PTR [esi+516]
  00085	3b cb		 cmp	 ecx, ebx
  00087	74 0d		 je	 SHORT $LN8@AddRenderI@4
  00089	8b 01		 mov	 eax, DWORD PTR [ecx]
  0008b	6a 01		 push	 1
  0008d	ff 50 40	 call	 DWORD PTR [eax+64]
  00090	89 9e 04 02 00
	00		 mov	 DWORD PTR [esi+516], ebx
$LN8@AddRenderI@4:

; 2394 : 		m_pIconBack = pImage;

  00096	8b 45 e0	 mov	 eax, DWORD PTR _pImage$GSCopy$[ebp]
  00099	89 86 04 02 00
	00		 mov	 DWORD PTR [esi+516], eax
  0009f	e9 38 01 00 00	 jmp	 $LN1@AddRenderI@4
$LN348@AddRenderI@4:

; 2395 : 	}
; 2396 : 	else if( szType == "IconMovie" )

  000a4	6a 02		 push	 2
  000a6	c7 45 ec a4 8f
	84 84		 mov	 DWORD PTR __t$552180[ebp], -2071687260 ; 84848fa4H
  000ad	c7 45 f0 a0 83
	9d 83		 mov	 DWORD PTR __t$552180[ebp+4], -2086829152 ; 839d83a0H
  000b4	8d 45 ec	 lea	 eax, DWORD PTR __t$552180[ebp]
  000b7	66 c7 45 f4 88
	00		 mov	 WORD PTR __t$552180[ebp+8], 136 ; 00000088H
  000bd	59		 pop	 ecx
$LL227@AddRenderI@4:
  000be	31 38		 xor	 DWORD PTR [eax], edi
  000c0	83 c0 04	 add	 eax, 4
  000c3	49		 dec	 ecx
  000c4	75 f8		 jne	 SHORT $LL227@AddRenderI@4
  000c6	8b 4d dc	 mov	 ecx, DWORD PTR _szType$GSCopy$[ebp]
  000c9	80 75 f4 ed	 xor	 BYTE PTR __t$552180[ebp+8], -19 ; ffffffedH
  000cd	8d 75 ec	 lea	 esi, DWORD PTR __t$552180[ebp]
  000d0	ff 15 00 00 00
	00		 call	 DWORD PTR __imp_?c_str@ioHashString@@QBEPBDXZ
$LL354@AddRenderI@4:
  000d6	8a 08		 mov	 cl, BYTE PTR [eax]
  000d8	3a 0e		 cmp	 cl, BYTE PTR [esi]
  000da	75 1a		 jne	 SHORT $LN355@AddRenderI@4
  000dc	3a cb		 cmp	 cl, bl
  000de	74 12		 je	 SHORT $LN356@AddRenderI@4
  000e0	8a 48 01	 mov	 cl, BYTE PTR [eax+1]
  000e3	3a 4e 01	 cmp	 cl, BYTE PTR [esi+1]
  000e6	75 0e		 jne	 SHORT $LN355@AddRenderI@4
  000e8	83 c0 02	 add	 eax, 2
  000eb	83 c6 02	 add	 esi, 2
  000ee	3a cb		 cmp	 cl, bl
  000f0	75 e4		 jne	 SHORT $LL354@AddRenderI@4
$LN356@AddRenderI@4:
  000f2	33 c0		 xor	 eax, eax
  000f4	eb 05		 jmp	 SHORT $LN357@AddRenderI@4
$LN355@AddRenderI@4:
  000f6	1b c0		 sbb	 eax, eax
  000f8	83 d8 ff	 sbb	 eax, -1
$LN357@AddRenderI@4:
  000fb	3b c3		 cmp	 eax, ebx
  000fd	75 28		 jne	 SHORT $LN349@AddRenderI@4

; 2397 : 	{
; 2398 : 		SAFEDELETE( m_pIconMovie );

  000ff	8b 75 e4	 mov	 esi, DWORD PTR _this$GSCopy$[ebp]
  00102	8b 8e 08 02 00
	00		 mov	 ecx, DWORD PTR [esi+520]
  00108	3b cb		 cmp	 ecx, ebx
  0010a	74 0d		 je	 SHORT $LN5@AddRenderI@4
  0010c	8b 01		 mov	 eax, DWORD PTR [ecx]
  0010e	6a 01		 push	 1
  00110	ff 50 40	 call	 DWORD PTR [eax+64]
  00113	89 9e 08 02 00
	00		 mov	 DWORD PTR [esi+520], ebx
$LN5@AddRenderI@4:

; 2399 : 		m_pIconMovie = pImage;

  00119	8b 45 e0	 mov	 eax, DWORD PTR _pImage$GSCopy$[ebp]
  0011c	89 86 08 02 00
	00		 mov	 DWORD PTR [esi+520], eax
  00122	e9 b5 00 00 00	 jmp	 $LN1@AddRenderI@4
$LN349@AddRenderI@4:

; 2400 : 
; 2401 : 	}
; 2402 : 	else if( szType == "IconScreenShot" )

  00127	6a 03		 push	 3
  00129	c7 45 e8 a4 8f
	84 84		 mov	 DWORD PTR __t$552305[ebp], -2071687260 ; 84848fa4H
  00130	c7 45 ec be 8f
	99 8f		 mov	 DWORD PTR __t$552305[ebp+4], -1885761602 ; 8f998fbeH
  00137	c7 45 f0 88 82
	b8 82		 mov	 DWORD PTR __t$552305[ebp+8], -2101837176 ; 82b88288H
  0013e	66 c7 45 f4 82
	98		 mov	 WORD PTR __t$552305[ebp+12], 39042 ; 00009882H
  00144	8d 45 e8	 lea	 eax, DWORD PTR __t$552305[ebp]
  00147	88 5d f6	 mov	 BYTE PTR __t$552305[ebp+14], bl
  0014a	59		 pop	 ecx
$LL333@AddRenderI@4:
  0014b	31 38		 xor	 DWORD PTR [eax], edi
  0014d	83 c0 04	 add	 eax, 4
  00150	49		 dec	 ecx
  00151	75 f8		 jne	 SHORT $LL333@AddRenderI@4
  00153	6a 0c		 push	 12			; 0000000cH
  00155	58		 pop	 eax
$LL330@AddRenderI@4:
  00156	8b c8		 mov	 ecx, eax
  00158	81 e1 03 00 00
	80		 and	 ecx, -2147483645	; 80000003H
  0015e	79 05		 jns	 SHORT $LN362@AddRenderI@4
  00160	49		 dec	 ecx
  00161	83 c9 fc	 or	 ecx, -4			; fffffffcH
  00164	41		 inc	 ecx
$LN362@AddRenderI@4:
  00165	b2 ed		 mov	 dl, -19			; ffffffedH
  00167	2a d1		 sub	 dl, cl
  00169	30 54 05 e8	 xor	 BYTE PTR __t$552305[ebp+eax], dl
  0016d	40		 inc	 eax
  0016e	83 f8 0e	 cmp	 eax, 14			; 0000000eH
  00171	7c e3		 jl	 SHORT $LL330@AddRenderI@4
  00173	8b 4d dc	 mov	 ecx, DWORD PTR _szType$GSCopy$[ebp]
  00176	8d 75 e8	 lea	 esi, DWORD PTR __t$552305[ebp]
  00179	ff 15 00 00 00
	00		 call	 DWORD PTR __imp_?c_str@ioHashString@@QBEPBDXZ
$LL358@AddRenderI@4:
  0017f	8a 08		 mov	 cl, BYTE PTR [eax]
  00181	3a 0e		 cmp	 cl, BYTE PTR [esi]
  00183	75 1a		 jne	 SHORT $LN359@AddRenderI@4
  00185	3a cb		 cmp	 cl, bl
  00187	74 12		 je	 SHORT $LN360@AddRenderI@4
  00189	8a 48 01	 mov	 cl, BYTE PTR [eax+1]
  0018c	3a 4e 01	 cmp	 cl, BYTE PTR [esi+1]
  0018f	75 0e		 jne	 SHORT $LN359@AddRenderI@4
  00191	83 c0 02	 add	 eax, 2
  00194	83 c6 02	 add	 esi, 2
  00197	3a cb		 cmp	 cl, bl
  00199	75 e4		 jne	 SHORT $LL358@AddRenderI@4
$LN360@AddRenderI@4:
  0019b	33 c0		 xor	 eax, eax
  0019d	eb 05		 jmp	 SHORT $LN361@AddRenderI@4
$LN359@AddRenderI@4:
  0019f	1b c0		 sbb	 eax, eax
  001a1	83 d8 ff	 sbb	 eax, -1
$LN361@AddRenderI@4:
  001a4	3b c3		 cmp	 eax, ebx
  001a6	75 25		 jne	 SHORT $LN3@AddRenderI@4

; 2403 : 	{
; 2404 : 		SAFEDELETE( m_pIconScreenShot );

  001a8	8b 75 e4	 mov	 esi, DWORD PTR _this$GSCopy$[ebp]
  001ab	8b 8e 0c 02 00
	00		 mov	 ecx, DWORD PTR [esi+524]
  001b1	3b cb		 cmp	 ecx, ebx
  001b3	74 0d		 je	 SHORT $LN2@AddRenderI@4
  001b5	8b 01		 mov	 eax, DWORD PTR [ecx]
  001b7	6a 01		 push	 1
  001b9	ff 50 40	 call	 DWORD PTR [eax+64]
  001bc	89 9e 0c 02 00
	00		 mov	 DWORD PTR [esi+524], ebx
$LN2@AddRenderI@4:

; 2405 : 		m_pIconScreenShot = pImage;

  001c2	8b 45 e0	 mov	 eax, DWORD PTR _pImage$GSCopy$[ebp]
  001c5	89 86 0c 02 00
	00		 mov	 DWORD PTR [esi+524], eax

; 2406 : 	}
; 2407 : 	else

  001cb	eb 0f		 jmp	 SHORT $LN1@AddRenderI@4
$LN3@AddRenderI@4:

; 2408 : 	{
; 2409 : 		GameOptionBasicWnd::AddRenderImage( szType, pImage );

  001cd	ff 75 e0	 push	 DWORD PTR _pImage$GSCopy$[ebp]
  001d0	8b 4d e4	 mov	 ecx, DWORD PTR _this$GSCopy$[ebp]
  001d3	ff 75 dc	 push	 DWORD PTR _szType$GSCopy$[ebp]
  001d6	ff 15 00 00 00
	00		 call	 DWORD PTR __imp_?AddRenderImage@ioWnd@@UAEXABVioHashString@@PAVioUIRenderImage@@@Z
$LN1@AddRenderI@4:

; 2410 : 	}
; 2411 : }

  001dc	8b 4d fc	 mov	 ecx, DWORD PTR __$ArrayPad$[ebp]
  001df	5f		 pop	 edi
  001e0	5e		 pop	 esi
  001e1	33 cd		 xor	 ecx, ebp
  001e3	5b		 pop	 ebx
  001e4	e8 00 00 00 00	 call	 @__security_check_cookie@4
  001e9	c9		 leave
  001ea	c2 08 00	 ret	 8
?AddRenderImage@GameOptionMovieScreenShotTab@@MAEXABVioHashString@@PAVioUIRenderImage@@@Z ENDP ; GameOptionMovieScreenShotTab::AddRenderImage
_TEXT	ENDS
EXTRN	__imp_?SetChildInActive@ioWnd@@QAEXK@Z:PROC
EXTRN	?iwm_show@GameOptionBasicWnd@@UAEXXZ:PROC	; GameOptionBasicWnd::iwm_show
; Function compile flags: /Ogsp
;	COMDAT ?iwm_show@GameOptionMovieScreenShotTab@@UAEXXZ
_TEXT	SEGMENT
?iwm_show@GameOptionMovieScreenShotTab@@UAEXXZ PROC	; GameOptionMovieScreenShotTab::iwm_show, COMDAT
; _this$ = ecx

; 2687 : {

  00000	56		 push	 esi
  00001	8b f1		 mov	 esi, ecx

; 2688 : 	GameOptionBasicWnd::iwm_show();

  00003	e8 00 00 00 00	 call	 ?iwm_show@GameOptionBasicWnd@@UAEXXZ ; GameOptionBasicWnd::iwm_show

; 2689 : 
; 2690 : 	m_pPreEdit = ioEdit::m_pKeyFocusEdit;

  00008	a1 00 00 00 00	 mov	 eax, DWORD PTR __imp_?m_pKeyFocusEdit@ioEdit@@2PAV1@A
  0000d	8b 00		 mov	 eax, DWORD PTR [eax]

; 2691 : 
; 2692 : 	SetTextEditBtn( m_CurrentOption.m_szScreenShotSavePath.c_str() );

  0000f	8d 8e b0 01 00
	00		 lea	 ecx, DWORD PTR [esi+432]
  00015	89 86 10 02 00
	00		 mov	 DWORD PTR [esi+528], eax
  0001b	ff 15 00 00 00
	00		 call	 DWORD PTR __imp_?c_str@ioHashString@@QBEPBDXZ
  00021	50		 push	 eax
  00022	8b ce		 mov	 ecx, esi
  00024	e8 00 00 00 00	 call	 ?SetTextEditBtn@GameOptionMovieScreenShotTab@@IAEXPBD@Z ; GameOptionMovieScreenShotTab::SetTextEditBtn

; 2693 : 	UpdateEditBtn( true );

  00029	6a 01		 push	 1
  0002b	8b ce		 mov	 ecx, esi
  0002d	e8 00 00 00 00	 call	 ?UpdateEditBtn@GameOptionMovieScreenShotTab@@IAEX_N@Z ; GameOptionMovieScreenShotTab::UpdateEditBtn

; 2694 : 	UpdateByCurrentOption();

  00032	8b 06		 mov	 eax, DWORD PTR [esi]
  00034	8b ce		 mov	 ecx, esi
  00036	ff 90 30 01 00
	00		 call	 DWORD PTR [eax+304]

; 2695 : 
; 2696 : 	SetChildInActive( ID_APPLY );

  0003c	6a 03		 push	 3
  0003e	8b ce		 mov	 ecx, esi
  00040	ff 15 00 00 00
	00		 call	 DWORD PTR __imp_?SetChildInActive@ioWnd@@QAEXK@Z
  00046	5e		 pop	 esi

; 2697 : }

  00047	c3		 ret	 0
?iwm_show@GameOptionMovieScreenShotTab@@UAEXXZ ENDP	; GameOptionMovieScreenShotTab::iwm_show
_TEXT	ENDS
PUBLIC	??_C@_0CD@JIMKOEPL@GameOptionMovieScreenShotTab?3?3In@ ; `string'
PUBLIC	?Init@GameOptionMovieScreenShotTab@@QAEXXZ	; GameOptionMovieScreenShotTab::Init
;	COMDAT ??_C@_0CD@JIMKOEPL@GameOptionMovieScreenShotTab?3?3In@
CONST	SEGMENT
??_C@_0CD@JIMKOEPL@GameOptionMovieScreenShotTab?3?3In@ DB 'GameOptionMovi'
	DB	'eScreenShotTab::Init', 00H			; `string'
; Function compile flags: /Ogsp
CONST	ENDS
;	COMDAT ?Init@GameOptionMovieScreenShotTab@@QAEXXZ
_TEXT	SEGMENT
_bMsgBox$547100 = -1					; size = 1
?Init@GameOptionMovieScreenShotTab@@QAEXXZ PROC		; GameOptionMovieScreenShotTab::Init, COMDAT
; _this$ = ecx

; 2700 : {

  00000	55		 push	 ebp
  00001	8b ec		 mov	 ebp, esp
  00003	51		 push	 ecx

; 2701 : 	m_DefaultSpec   = Setting::GetSpec();

  00004	a1 00 00 00 00	 mov	 eax, DWORD PTR ?m_DefaultSpec@Setting@@1W4Spec@1@A ; Setting::m_DefaultSpec
  00009	53		 push	 ebx
  0000a	56		 push	 esi
  0000b	8b d9		 mov	 ebx, ecx
  0000d	57		 push	 edi

; 2702 : 	m_CurrentOption = Setting::GetSettingOption();

  0000e	68 00 00 00 00	 push	 OFFSET ?m_Option@Setting@@1USettingOption@@A ; Setting::m_Option
  00013	8d 8b 64 01 00
	00		 lea	 ecx, DWORD PTR [ebx+356]
  00019	89 83 60 01 00
	00		 mov	 DWORD PTR [ebx+352], eax
  0001f	e8 00 00 00 00	 call	 ??4SettingOption@@QAEAAU0@ABU0@@Z

; 2703 : 
; 2704 : 	if( !CreateScreenShotFolder( m_CurrentOption.m_szScreenShotSavePath.c_str() ) ||
; 2705 : 		strcmp( m_CurrentOption.m_szScreenShotSavePath.c_str(), "") == 0          || 
; 2706 :       ( strstr( m_CurrentOption.m_szScreenShotSavePath.c_str(), ":\\") == NULL && strstr( m_CurrentOption.m_szScreenShotSavePath.c_str(), ":/") == NULL ) )

  00024	8d 8b b0 01 00
	00		 lea	 ecx, DWORD PTR [ebx+432]
  0002a	ff 15 00 00 00
	00		 call	 DWORD PTR __imp_?c_str@ioHashString@@QBEPBDXZ
  00030	50		 push	 eax
  00031	8b cb		 mov	 ecx, ebx
  00033	e8 00 00 00 00	 call	 ?CreateScreenShotFolder@GameOptionMovieScreenShotTab@@QAE_NPBD@Z ; GameOptionMovieScreenShotTab::CreateScreenShotFolder
  00038	84 c0		 test	 al, al
  0003a	74 5a		 je	 SHORT $LN3@Init@2
  0003c	8d 8b b0 01 00
	00		 lea	 ecx, DWORD PTR [ebx+432]
  00042	bf 00 00 00 00	 mov	 edi, OFFSET ??_C@_00CNPNBAHC@?$AA@
  00047	ff 15 00 00 00
	00		 call	 DWORD PTR __imp_?c_str@ioHashString@@QBEPBDXZ
  0004d	33 c9		 xor	 ecx, ecx
  0004f	8b f0		 mov	 esi, eax
  00051	41		 inc	 ecx
  00052	33 c0		 xor	 eax, eax
  00054	f3 a6		 repe cmpsb
  00056	74 3e		 je	 SHORT $LN3@Init@2
  00058	68 00 00 00 00	 push	 OFFSET ??_C@_02DPEMFEPD@?3?2?$AA@
  0005d	8d 8b b0 01 00
	00		 lea	 ecx, DWORD PTR [ebx+432]
  00063	ff 15 00 00 00
	00		 call	 DWORD PTR __imp_?c_str@ioHashString@@QBEPBDXZ
  00069	8b 35 00 00 00
	00		 mov	 esi, DWORD PTR __imp__strstr
  0006f	50		 push	 eax
  00070	ff d6		 call	 esi
  00072	59		 pop	 ecx
  00073	59		 pop	 ecx
  00074	85 c0		 test	 eax, eax
  00076	0f 85 86 00 00
	00		 jne	 $LN1@Init@2
  0007c	68 00 00 00 00	 push	 OFFSET ??_C@_02DLFOHOMG@?3?1?$AA@
  00081	8d 8b b0 01 00
	00		 lea	 ecx, DWORD PTR [ebx+432]
  00087	ff 15 00 00 00
	00		 call	 DWORD PTR __imp_?c_str@ioHashString@@QBEPBDXZ
  0008d	50		 push	 eax
  0008e	ff d6		 call	 esi
  00090	59		 pop	 ecx
  00091	59		 pop	 ecx
  00092	85 c0		 test	 eax, eax
  00094	75 6c		 jne	 SHORT $LN1@Init@2
$LN3@Init@2:

; 2707 : 	{	
; 2708 : 		bool bMsgBox = true;
; 2709 : 		if( strcmp( m_CurrentOption.m_szScreenShotSavePath.c_str(), "") == 0 )

  00096	8d 8b b0 01 00
	00		 lea	 ecx, DWORD PTR [ebx+432]
  0009c	c6 45 ff 01	 mov	 BYTE PTR _bMsgBox$547100[ebp], 1
  000a0	bf 00 00 00 00	 mov	 edi, OFFSET ??_C@_00CNPNBAHC@?$AA@
  000a5	ff 15 00 00 00
	00		 call	 DWORD PTR __imp_?c_str@ioHashString@@QBEPBDXZ
  000ab	33 c9		 xor	 ecx, ecx
  000ad	8b f0		 mov	 esi, eax
  000af	41		 inc	 ecx
  000b0	33 c0		 xor	 eax, eax
  000b2	f3 a6		 repe cmpsb
  000b4	75 03		 jne	 SHORT $LN2@Init@2

; 2710 : 			bMsgBox = false;

  000b6	88 45 ff	 mov	 BYTE PTR _bMsgBox$547100[ebp], al
$LN2@Init@2:

; 2711 : 
; 2712 : 		GetDefaultScreenShotFolderName( m_CurrentOption.m_szScreenShotSavePath );

  000b9	8d 83 b0 01 00
	00		 lea	 eax, DWORD PTR [ebx+432]
  000bf	50		 push	 eax
  000c0	8b cb		 mov	 ecx, ebx
  000c2	e8 00 00 00 00	 call	 ?GetDefaultScreenShotFolderName@GameOptionMovieScreenShotTab@@QAEXAAVioHashString@@@Z ; GameOptionMovieScreenShotTab::GetDefaultScreenShotFolderName

; 2713 : 		Save();

  000c7	8b cb		 mov	 ecx, ebx
  000c9	e8 00 00 00 00	 call	 ?ApplyChangedOption@GameOptionBasicWnd@@IAE_NXZ ; GameOptionBasicWnd::ApplyChangedOption

; 2714 : 		if( bMsgBox)

  000ce	80 7d ff 00	 cmp	 BYTE PTR _bMsgBox$547100[ebp], 0
  000d2	74 2e		 je	 SHORT $LN1@Init@2

; 2715 : 			g_GUIMgr.SetMsgBox( MB_OK, NULL, STR(1) );

  000d4	33 f6		 xor	 esi, esi
  000d6	56		 push	 esi
  000d7	6a 01		 push	 1
  000d9	68 00 00 00 00	 push	 OFFSET ??_C@_00CNPNBAHC@?$AA@
  000de	68 00 00 00 00	 push	 OFFSET ??_C@_0CD@JIMKOEPL@GameOptionMovieScreenShotTab?3?3In@
  000e3	ff 15 00 00 00
	00		 call	 DWORD PTR __imp_?GetSingleton@ioStringManager@@SAAAV1@XZ
  000e9	8b c8		 mov	 ecx, eax
  000eb	ff 15 00 00 00
	00		 call	 DWORD PTR __imp_?GetString@ioStringManager@@QAEPADPBD0HW4FileNamePrefix@1@@Z
  000f1	50		 push	 eax
  000f2	56		 push	 esi
  000f3	56		 push	 esi
  000f4	e8 00 00 00 00	 call	 ?GetSingleton@ioSP2GUIManager@@SAAAV1@XZ ; ioSP2GUIManager::GetSingleton
  000f9	50		 push	 eax
  000fa	e8 00 00 00 00	 call	 ?SetMsgBox@ioSP2GUIManager@@QAAXHPAVioWnd@@PBDZZ ; ioSP2GUIManager::SetMsgBox
  000ff	83 c4 10	 add	 esp, 16			; 00000010H
$LN1@Init@2:
  00102	5f		 pop	 edi
  00103	5e		 pop	 esi
  00104	5b		 pop	 ebx

; 2716 : 	}
; 2717 : }

  00105	c9		 leave
  00106	c3		 ret	 0
?Init@GameOptionMovieScreenShotTab@@QAEXXZ ENDP		; GameOptionMovieScreenShotTab::Init
_TEXT	ENDS
PUBLIC	?OpenResolutionList@GameOptionMovieScreenShotTab@@IAEXPAVioWnd@@HH@Z ; GameOptionMovieScreenShotTab::OpenResolutionList
EXTRN	?OpenList@MovieResolutionList@@QAEXPAVioWnd@@HH@Z:PROC ; MovieResolutionList::OpenList
; Function compile flags: /Ogsp
;	COMDAT ?OpenResolutionList@GameOptionMovieScreenShotTab@@IAEXPAVioWnd@@HH@Z
_TEXT	SEGMENT
_pOpenWnd$ = 8						; size = 4
_iOptionType$ = 12					; size = 4
_iValue$ = 16						; size = 4
?OpenResolutionList@GameOptionMovieScreenShotTab@@IAEXPAVioWnd@@HH@Z PROC ; GameOptionMovieScreenShotTab::OpenResolutionList, COMDAT
; _this$ = ecx

; 2763 : {

  00000	55		 push	 ebp
  00001	8b ec		 mov	 ebp, esp
  00003	56		 push	 esi

; 2764 : 	MovieResolutionList *pList = (MovieResolutionList*)FindChildWnd( ID_MOVIE_RESOLUTION_LIST );

  00004	68 74 0e 00 00	 push	 3700			; 00000e74H
  00009	8b f1		 mov	 esi, ecx
  0000b	ff 15 00 00 00
	00		 call	 DWORD PTR __imp_?FindChildWnd@ioWnd@@QAEPAV1@K@Z

; 2765 : 	if( pList )

  00011	85 c0		 test	 eax, eax
  00013	74 10		 je	 SHORT $LN1@OpenResolu

; 2766 : 	{
; 2767 : 		pList->OpenList( pOpenWnd, iOptionType, iValue );

  00015	ff 75 10	 push	 DWORD PTR _iValue$[ebp]
  00018	8b c8		 mov	 ecx, eax
  0001a	ff 75 0c	 push	 DWORD PTR _iOptionType$[ebp]
  0001d	ff 75 08	 push	 DWORD PTR _pOpenWnd$[ebp]
  00020	e8 00 00 00 00	 call	 ?OpenList@MovieResolutionList@@QAEXPAVioWnd@@HH@Z ; MovieResolutionList::OpenList
$LN1@OpenResolu:

; 2768 : 	}
; 2769 : 	UpdateEditBtn(true);

  00025	6a 01		 push	 1
  00027	8b ce		 mov	 ecx, esi
  00029	e8 00 00 00 00	 call	 ?UpdateEditBtn@GameOptionMovieScreenShotTab@@IAEX_N@Z ; GameOptionMovieScreenShotTab::UpdateEditBtn
  0002e	5e		 pop	 esi

; 2770 : }

  0002f	5d		 pop	 ebp
  00030	c2 0c 00	 ret	 12			; 0000000cH
?OpenResolutionList@GameOptionMovieScreenShotTab@@IAEXPAVioWnd@@HH@Z ENDP ; GameOptionMovieScreenShotTab::OpenResolutionList
; Function compile flags: /Ogsp
_TEXT	ENDS
;	COMDAT ?iwm_show@GameOptionSettingTab@@UAEXXZ
_TEXT	SEGMENT
?iwm_show@GameOptionSettingTab@@UAEXXZ PROC		; GameOptionSettingTab::iwm_show, COMDAT
; _this$ = ecx

; 3010 : {

  00000	56		 push	 esi

; 3011 : 	GameOptionSettingCustomSoundTab *pCustomChild =
; 3012 : 	dynamic_cast<GameOptionSettingCustomSoundTab*> ( FindChildWnd( ID_CUSTOMSOUND_SETTING_TAB_WND ) );

  00001	6a 00		 push	 0
  00003	68 00 00 00 00	 push	 OFFSET ??_R0?AVGameOptionSettingCustomSoundTab@@@8
  00008	68 00 00 00 00	 push	 OFFSET ??_R0?AVioWnd@@@8
  0000d	6a 00		 push	 0
  0000f	6a 68		 push	 104			; 00000068H
  00011	8b f1		 mov	 esi, ecx
  00013	ff 15 00 00 00
	00		 call	 DWORD PTR __imp_?FindChildWnd@ioWnd@@QAEPAV1@K@Z
  00019	50		 push	 eax
  0001a	e8 00 00 00 00	 call	 ___RTDynamicCast
  0001f	83 c4 14	 add	 esp, 20			; 00000014H

; 3013 : 	if( pCustomChild )

  00022	85 c0		 test	 eax, eax
  00024	74 07		 je	 SHORT $LN1@iwm_show@4

; 3014 : 		pCustomChild->Init();

  00026	8b c8		 mov	 ecx, eax
  00028	e8 00 00 00 00	 call	 ?Init@GameOptionSettingCustomSoundTab@@QAEXXZ ; GameOptionSettingCustomSoundTab::Init
$LN1@iwm_show@4:

; 3015 : 
; 3016 : 	//
; 3017 : 	ChangeWindow( ID_MOVIE_AND_SCREENSHOT_TAB_BTN );

  0002d	6a 05		 push	 5
  0002f	8b ce		 mov	 ecx, esi
  00031	e8 00 00 00 00	 call	 ?ChangeWindow@GameOptionSettingTab@@IAEXK@Z ; GameOptionSettingTab::ChangeWindow
  00036	5e		 pop	 esi

; 3018 : }

  00037	c3		 ret	 0
?iwm_show@GameOptionSettingTab@@UAEXXZ ENDP		; GameOptionSettingTab::iwm_show
_TEXT	ENDS
PUBLIC	??0?$vector@V?$basic_string@DU?$char_traits@D@std@@V?$allocator@D@2@@std@@V?$allocator@V?$basic_string@DU?$char_traits@D@std@@V?$allocator@D@2@@std@@@2@@std@@QAE@XZ ; std::vector<std::basic_string<char,std::char_traits<char>,std::allocator<char> >,std::allocator<std::basic_string<char,std::char_traits<char>,std::allocator<char> > > >::vector<std::basic_string<char,std::char_traits<char>,std::allocator<char> >,std::allocator<std::basic_string<char,std::char_traits<char>,std::allocator<char> > > >
; Function compile flags: /Ogsp
; File c:\program files (x86)\microsoft visual studio 10.0\vc\include\vector
;	COMDAT ??0?$vector@V?$basic_string@DU?$char_traits@D@std@@V?$allocator@D@2@@std@@V?$allocator@V?$basic_string@DU?$char_traits@D@std@@V?$allocator@D@2@@std@@@2@@std@@QAE@XZ
_TEXT	SEGMENT
??0?$vector@V?$basic_string@DU?$char_traits@D@std@@V?$allocator@D@2@@std@@V?$allocator@V?$basic_string@DU?$char_traits@D@std@@V?$allocator@D@2@@std@@@2@@std@@QAE@XZ PROC ; std::vector<std::basic_string<char,std::char_traits<char>,std::allocator<char> >,std::allocator<std::basic_string<char,std::char_traits<char>,std::allocator<char> > > >::vector<std::basic_string<char,std::char_traits<char>,std::allocator<char> >,std::allocator<std::basic_string<char,std::char_traits<char>,std::allocator<char> > > >, COMDAT
; _this$ = ecx

; 507  : 		{	// construct empty vector

  00000	8b c1		 mov	 eax, ecx
  00002	33 c9		 xor	 ecx, ecx
  00004	89 08		 mov	 DWORD PTR [eax], ecx
  00006	89 48 04	 mov	 DWORD PTR [eax+4], ecx
  00009	89 48 08	 mov	 DWORD PTR [eax+8], ecx

; 508  : 		}

  0000c	c3		 ret	 0
??0?$vector@V?$basic_string@DU?$char_traits@D@std@@V?$allocator@D@2@@std@@V?$allocator@V?$basic_string@DU?$char_traits@D@std@@V?$allocator@D@2@@std@@@2@@std@@QAE@XZ ENDP ; std::vector<std::basic_string<char,std::char_traits<char>,std::allocator<char> >,std::allocator<std::basic_string<char,std::char_traits<char>,std::allocator<char> > > >::vector<std::basic_string<char,std::char_traits<char>,std::allocator<char> >,std::allocator<std::basic_string<char,std::char_traits<char>,std::allocator<char> > > >
_TEXT	ENDS
PUBLIC	??0?$vector@W4ItemType@SettingKeyItemWnd@@V?$allocator@W4ItemType@SettingKeyItemWnd@@@std@@@std@@QAE@XZ ; std::vector<enum SettingKeyItemWnd::ItemType,std::allocator<enum SettingKeyItemWnd::ItemType> >::vector<enum SettingKeyItemWnd::ItemType,std::allocator<enum SettingKeyItemWnd::ItemType> >
; Function compile flags: /Ogsp
;	COMDAT ??0?$vector@W4ItemType@SettingKeyItemWnd@@V?$allocator@W4ItemType@SettingKeyItemWnd@@@std@@@std@@QAE@XZ
_TEXT	SEGMENT
??0?$vector@W4ItemType@SettingKeyItemWnd@@V?$allocator@W4ItemType@SettingKeyItemWnd@@@std@@@std@@QAE@XZ PROC ; std::vector<enum SettingKeyItemWnd::ItemType,std::allocator<enum SettingKeyItemWnd::ItemType> >::vector<enum SettingKeyItemWnd::ItemType,std::allocator<enum SettingKeyItemWnd::ItemType> >, COMDAT
; _this$ = ecx

; 507  : 		{	// construct empty vector

  00000	8b c1		 mov	 eax, ecx
  00002	33 c9		 xor	 ecx, ecx
  00004	89 08		 mov	 DWORD PTR [eax], ecx
  00006	89 48 04	 mov	 DWORD PTR [eax+4], ecx
  00009	89 48 08	 mov	 DWORD PTR [eax+8], ecx

; 508  : 		}

  0000c	c3		 ret	 0
??0?$vector@W4ItemType@SettingKeyItemWnd@@V?$allocator@W4ItemType@SettingKeyItemWnd@@@std@@@std@@QAE@XZ ENDP ; std::vector<enum SettingKeyItemWnd::ItemType,std::allocator<enum SettingKeyItemWnd::ItemType> >::vector<enum SettingKeyItemWnd::ItemType,std::allocator<enum SettingKeyItemWnd::ItemType> >
_TEXT	ENDS
PUBLIC	?begin@?$vector@W4ItemType@SettingKeyItemWnd@@V?$allocator@W4ItemType@SettingKeyItemWnd@@@std@@@std@@QAE?AV?$_Vector_iterator@V?$_Vector_val@W4ItemType@SettingKeyItemWnd@@V?$allocator@W4ItemType@SettingKeyItemWnd@@@std@@@std@@@2@XZ ; std::vector<enum SettingKeyItemWnd::ItemType,std::allocator<enum SettingKeyItemWnd::ItemType> >::begin
; Function compile flags: /Ogsp
;	COMDAT ?begin@?$vector@W4ItemType@SettingKeyItemWnd@@V?$allocator@W4ItemType@SettingKeyItemWnd@@@std@@@std@@QAE?AV?$_Vector_iterator@V?$_Vector_val@W4ItemType@SettingKeyItemWnd@@V?$allocator@W4ItemType@SettingKeyItemWnd@@@std@@@std@@@2@XZ
_TEXT	SEGMENT
___$ReturnUdt$ = 8					; size = 4
?begin@?$vector@W4ItemType@SettingKeyItemWnd@@V?$allocator@W4ItemType@SettingKeyItemWnd@@@std@@@std@@QAE?AV?$_Vector_iterator@V?$_Vector_val@W4ItemType@SettingKeyItemWnd@@V?$allocator@W4ItemType@SettingKeyItemWnd@@@std@@@std@@@2@XZ PROC ; std::vector<enum SettingKeyItemWnd::ItemType,std::allocator<enum SettingKeyItemWnd::ItemType> >::begin, COMDAT
; _this$ = ecx

; 781  : 		{	// return iterator for beginning of mutable sequence

  00000	55		 push	 ebp
  00001	8b ec		 mov	 ebp, esp

; 782  : 		return (iterator(this->_Myfirst, this));

  00003	8b 09		 mov	 ecx, DWORD PTR [ecx]
  00005	8b 45 08	 mov	 eax, DWORD PTR ___$ReturnUdt$[ebp]
  00008	89 08		 mov	 DWORD PTR [eax], ecx

; 783  : 		}

  0000a	5d		 pop	 ebp
  0000b	c2 04 00	 ret	 4
?begin@?$vector@W4ItemType@SettingKeyItemWnd@@V?$allocator@W4ItemType@SettingKeyItemWnd@@@std@@@std@@QAE?AV?$_Vector_iterator@V?$_Vector_val@W4ItemType@SettingKeyItemWnd@@V?$allocator@W4ItemType@SettingKeyItemWnd@@@std@@@std@@@2@XZ ENDP ; std::vector<enum SettingKeyItemWnd::ItemType,std::allocator<enum SettingKeyItemWnd::ItemType> >::begin
_TEXT	ENDS
PUBLIC	?end@?$vector@W4ItemType@SettingKeyItemWnd@@V?$allocator@W4ItemType@SettingKeyItemWnd@@@std@@@std@@QAE?AV?$_Vector_iterator@V?$_Vector_val@W4ItemType@SettingKeyItemWnd@@V?$allocator@W4ItemType@SettingKeyItemWnd@@@std@@@std@@@2@XZ ; std::vector<enum SettingKeyItemWnd::ItemType,std::allocator<enum SettingKeyItemWnd::ItemType> >::end
; Function compile flags: /Ogsp
;	COMDAT ?end@?$vector@W4ItemType@SettingKeyItemWnd@@V?$allocator@W4ItemType@SettingKeyItemWnd@@@std@@@std@@QAE?AV?$_Vector_iterator@V?$_Vector_val@W4ItemType@SettingKeyItemWnd@@V?$allocator@W4ItemType@SettingKeyItemWnd@@@std@@@std@@@2@XZ
_TEXT	SEGMENT
___$ReturnUdt$ = 8					; size = 4
?end@?$vector@W4ItemType@SettingKeyItemWnd@@V?$allocator@W4ItemType@SettingKeyItemWnd@@@std@@@std@@QAE?AV?$_Vector_iterator@V?$_Vector_val@W4ItemType@SettingKeyItemWnd@@V?$allocator@W4ItemType@SettingKeyItemWnd@@@std@@@std@@@2@XZ PROC ; std::vector<enum SettingKeyItemWnd::ItemType,std::allocator<enum SettingKeyItemWnd::ItemType> >::end, COMDAT
; _this$ = ecx

; 791  : 		{	// return iterator for end of mutable sequence

  00000	55		 push	 ebp
  00001	8b ec		 mov	 ebp, esp

; 792  : 		return (iterator(this->_Mylast, this));

  00003	8b 49 04	 mov	 ecx, DWORD PTR [ecx+4]
  00006	8b 45 08	 mov	 eax, DWORD PTR ___$ReturnUdt$[ebp]
  00009	89 08		 mov	 DWORD PTR [eax], ecx

; 793  : 		}

  0000b	5d		 pop	 ebp
  0000c	c2 04 00	 ret	 4
?end@?$vector@W4ItemType@SettingKeyItemWnd@@V?$allocator@W4ItemType@SettingKeyItemWnd@@@std@@@std@@QAE?AV?$_Vector_iterator@V?$_Vector_val@W4ItemType@SettingKeyItemWnd@@V?$allocator@W4ItemType@SettingKeyItemWnd@@@std@@@std@@@2@XZ ENDP ; std::vector<enum SettingKeyItemWnd::ItemType,std::allocator<enum SettingKeyItemWnd::ItemType> >::end
_TEXT	ENDS
PUBLIC	?_Destroy@?$vector@W4ItemType@SettingKeyItemWnd@@V?$allocator@W4ItemType@SettingKeyItemWnd@@@std@@@std@@IAEXPAW4ItemType@SettingKeyItemWnd@@0@Z ; std::vector<enum SettingKeyItemWnd::ItemType,std::allocator<enum SettingKeyItemWnd::ItemType> >::_Destroy
; Function compile flags: /Ogsp
;	COMDAT ?_Destroy@?$vector@W4ItemType@SettingKeyItemWnd@@V?$allocator@W4ItemType@SettingKeyItemWnd@@@std@@@std@@IAEXPAW4ItemType@SettingKeyItemWnd@@0@Z
_TEXT	SEGMENT
__First$ = 8						; size = 4
__Last$ = 12						; size = 4
?_Destroy@?$vector@W4ItemType@SettingKeyItemWnd@@V?$allocator@W4ItemType@SettingKeyItemWnd@@@std@@@std@@IAEXPAW4ItemType@SettingKeyItemWnd@@0@Z PROC ; std::vector<enum SettingKeyItemWnd::ItemType,std::allocator<enum SettingKeyItemWnd::ItemType> >::_Destroy, COMDAT
; _this$ = ecx

; 1270 : 		_Destroy_range(_First, _Last, this->_Alval);
; 1271 : 		}

  00000	c2 08 00	 ret	 8
?_Destroy@?$vector@W4ItemType@SettingKeyItemWnd@@V?$allocator@W4ItemType@SettingKeyItemWnd@@@std@@@std@@IAEXPAW4ItemType@SettingKeyItemWnd@@0@Z ENDP ; std::vector<enum SettingKeyItemWnd::ItemType,std::allocator<enum SettingKeyItemWnd::ItemType> >::_Destroy
_TEXT	ENDS
PUBLIC	?_Tidy@?$vector@W4ItemType@SettingKeyItemWnd@@V?$allocator@W4ItemType@SettingKeyItemWnd@@@std@@@std@@IAEXXZ ; std::vector<enum SettingKeyItemWnd::ItemType,std::allocator<enum SettingKeyItemWnd::ItemType> >::_Tidy
EXTRN	__imp_?_Orphan_all@_Container_base0@std@@QAEXXZ:PROC
; Function compile flags: /Ogsp
;	COMDAT ?_Tidy@?$vector@W4ItemType@SettingKeyItemWnd@@V?$allocator@W4ItemType@SettingKeyItemWnd@@@std@@@std@@IAEXXZ
_TEXT	SEGMENT
?_Tidy@?$vector@W4ItemType@SettingKeyItemWnd@@V?$allocator@W4ItemType@SettingKeyItemWnd@@@std@@@std@@IAEXXZ PROC ; std::vector<enum SettingKeyItemWnd::ItemType,std::allocator<enum SettingKeyItemWnd::ItemType> >::_Tidy, COMDAT
; _this$ = ecx

; 1301 : 		{	// free all storage

  00000	56		 push	 esi
  00001	8b f1		 mov	 esi, ecx

; 1302 : 		if (this->_Myfirst != 0)

  00003	83 3e 00	 cmp	 DWORD PTR [esi], 0
  00006	74 0e		 je	 SHORT $LN12@Tidy

; 1303 : 			{	// something to free, destroy and deallocate it
; 1304 : 			this->_Orphan_all();

  00008	ff 15 00 00 00
	00		 call	 DWORD PTR __imp_?_Orphan_all@_Container_base0@std@@QAEXXZ

; 1305 : 			_Destroy(this->_Myfirst, this->_Mylast);
; 1306 : 			this->_Alval.deallocate(this->_Myfirst,
; 1307 : 				this->_Myend - this->_Myfirst);

  0000e	ff 36		 push	 DWORD PTR [esi]
  00010	e8 00 00 00 00	 call	 ??3@YAXPAX@Z		; operator delete
  00015	59		 pop	 ecx
$LN12@Tidy:

; 1308 : 			}
; 1309 : 		this->_Myfirst = 0;

  00016	83 26 00	 and	 DWORD PTR [esi], 0

; 1310 : 		this->_Mylast = 0;

  00019	83 66 04 00	 and	 DWORD PTR [esi+4], 0

; 1311 : 		this->_Myend = 0;

  0001d	83 66 08 00	 and	 DWORD PTR [esi+8], 0
  00021	5e		 pop	 esi

; 1312 : 		}

  00022	c3		 ret	 0
?_Tidy@?$vector@W4ItemType@SettingKeyItemWnd@@V?$allocator@W4ItemType@SettingKeyItemWnd@@@std@@@std@@IAEXXZ ENDP ; std::vector<enum SettingKeyItemWnd::ItemType,std::allocator<enum SettingKeyItemWnd::ItemType> >::_Tidy
_TEXT	ENDS
PUBLIC	?_Make_iter@?$vector@W4ItemType@SettingKeyItemWnd@@V?$allocator@W4ItemType@SettingKeyItemWnd@@@std@@@std@@QBE?AV?$_Vector_iterator@V?$_Vector_val@W4ItemType@SettingKeyItemWnd@@V?$allocator@W4ItemType@SettingKeyItemWnd@@@std@@@std@@@2@V?$_Vector_const_iterator@V?$_Vector_val@W4ItemType@SettingKeyItemWnd@@V?$allocator@W4ItemType@SettingKeyItemWnd@@@std@@@std@@@2@@Z ; std::vector<enum SettingKeyItemWnd::ItemType,std::allocator<enum SettingKeyItemWnd::ItemType> >::_Make_iter
; Function compile flags: /Ogsp
;	COMDAT ?_Make_iter@?$vector@W4ItemType@SettingKeyItemWnd@@V?$allocator@W4ItemType@SettingKeyItemWnd@@@std@@@std@@QBE?AV?$_Vector_iterator@V?$_Vector_val@W4ItemType@SettingKeyItemWnd@@V?$allocator@W4ItemType@SettingKeyItemWnd@@@std@@@std@@@2@V?$_Vector_const_iterator@V?$_Vector_val@W4ItemType@SettingKeyItemWnd@@V?$allocator@W4ItemType@SettingKeyItemWnd@@@std@@@std@@@2@@Z
_TEXT	SEGMENT
___$ReturnUdt$ = 8					; size = 4
__Where$ = 12						; size = 4
?_Make_iter@?$vector@W4ItemType@SettingKeyItemWnd@@V?$allocator@W4ItemType@SettingKeyItemWnd@@@std@@@std@@QBE?AV?$_Vector_iterator@V?$_Vector_val@W4ItemType@SettingKeyItemWnd@@V?$allocator@W4ItemType@SettingKeyItemWnd@@@std@@@std@@@2@V?$_Vector_const_iterator@V?$_Vector_val@W4ItemType@SettingKeyItemWnd@@V?$allocator@W4ItemType@SettingKeyItemWnd@@@std@@@std@@@2@@Z PROC ; std::vector<enum SettingKeyItemWnd::ItemType,std::allocator<enum SettingKeyItemWnd::ItemType> >::_Make_iter, COMDAT
; _this$ = ecx

; 801  : 		{	// make iterator from const_iterator

  00000	55		 push	 ebp
  00001	8b ec		 mov	 ebp, esp

; 802  : 		return (iterator(_Where._Ptr, this));

  00003	8b 45 08	 mov	 eax, DWORD PTR ___$ReturnUdt$[ebp]
  00006	8b 4d 0c	 mov	 ecx, DWORD PTR __Where$[ebp]
  00009	89 08		 mov	 DWORD PTR [eax], ecx

; 803  : 		}

  0000b	5d		 pop	 ebp
  0000c	c2 08 00	 ret	 8
?_Make_iter@?$vector@W4ItemType@SettingKeyItemWnd@@V?$allocator@W4ItemType@SettingKeyItemWnd@@@std@@@std@@QBE?AV?$_Vector_iterator@V?$_Vector_val@W4ItemType@SettingKeyItemWnd@@V?$allocator@W4ItemType@SettingKeyItemWnd@@@std@@@std@@@2@V?$_Vector_const_iterator@V?$_Vector_val@W4ItemType@SettingKeyItemWnd@@V?$allocator@W4ItemType@SettingKeyItemWnd@@@std@@@std@@@2@@Z ENDP ; std::vector<enum SettingKeyItemWnd::ItemType,std::allocator<enum SettingKeyItemWnd::ItemType> >::_Make_iter
_TEXT	ENDS
PUBLIC	??9?$_Vector_const_iterator@V?$_Vector_val@W4ItemType@SettingKeyItemWnd@@V?$allocator@W4ItemType@SettingKeyItemWnd@@@std@@@std@@@std@@QBE_NABV01@@Z ; std::_Vector_const_iterator<std::_Vector_val<enum SettingKeyItemWnd::ItemType,std::allocator<enum SettingKeyItemWnd::ItemType> > >::operator!=
; Function compile flags: /Ogsp
;	COMDAT ??9?$_Vector_const_iterator@V?$_Vector_val@W4ItemType@SettingKeyItemWnd@@V?$allocator@W4ItemType@SettingKeyItemWnd@@@std@@@std@@@std@@QBE_NABV01@@Z
_TEXT	SEGMENT
__Right$ = 8						; size = 4
??9?$_Vector_const_iterator@V?$_Vector_val@W4ItemType@SettingKeyItemWnd@@V?$allocator@W4ItemType@SettingKeyItemWnd@@@std@@@std@@@std@@QBE_NABV01@@Z PROC ; std::_Vector_const_iterator<std::_Vector_val<enum SettingKeyItemWnd::ItemType,std::allocator<enum SettingKeyItemWnd::ItemType> > >::operator!=, COMDAT
; _this$ = ecx

; 207  : 		{	// test for iterator inequality

  00000	55		 push	 ebp
  00001	8b ec		 mov	 ebp, esp

; 208  : 		return (!(*this == _Right));

  00003	8b 01		 mov	 eax, DWORD PTR [ecx]
  00005	8b 55 08	 mov	 edx, DWORD PTR __Right$[ebp]
  00008	33 c9		 xor	 ecx, ecx
  0000a	3b 02		 cmp	 eax, DWORD PTR [edx]
  0000c	0f 95 c0	 setne	 al

; 209  : 		}

  0000f	5d		 pop	 ebp
  00010	c2 04 00	 ret	 4
??9?$_Vector_const_iterator@V?$_Vector_val@W4ItemType@SettingKeyItemWnd@@V?$allocator@W4ItemType@SettingKeyItemWnd@@@std@@@std@@@std@@QBE_NABV01@@Z ENDP ; std::_Vector_const_iterator<std::_Vector_val<enum SettingKeyItemWnd::ItemType,std::allocator<enum SettingKeyItemWnd::ItemType> > >::operator!=
_TEXT	ENDS
PUBLIC	??$_Umove@PAW4ItemType@SettingKeyItemWnd@@@?$vector@W4ItemType@SettingKeyItemWnd@@V?$allocator@W4ItemType@SettingKeyItemWnd@@@std@@@std@@IAEPAW4ItemType@SettingKeyItemWnd@@PAW423@00@Z ; std::vector<enum SettingKeyItemWnd::ItemType,std::allocator<enum SettingKeyItemWnd::ItemType> >::_Umove<enum SettingKeyItemWnd::ItemType *>
; Function compile flags: /Ogsp
;	COMDAT ??$_Umove@PAW4ItemType@SettingKeyItemWnd@@@?$vector@W4ItemType@SettingKeyItemWnd@@V?$allocator@W4ItemType@SettingKeyItemWnd@@@std@@@std@@IAEPAW4ItemType@SettingKeyItemWnd@@PAW423@00@Z
_TEXT	SEGMENT
__First$ = 8						; size = 4
__Last$ = 12						; size = 4
__Ptr$ = 16						; size = 4
??$_Umove@PAW4ItemType@SettingKeyItemWnd@@@?$vector@W4ItemType@SettingKeyItemWnd@@V?$allocator@W4ItemType@SettingKeyItemWnd@@@std@@@std@@IAEPAW4ItemType@SettingKeyItemWnd@@PAW423@00@Z PROC ; std::vector<enum SettingKeyItemWnd::ItemType,std::allocator<enum SettingKeyItemWnd::ItemType> >::_Umove<enum SettingKeyItemWnd::ItemType *>, COMDAT
; _this$ = ecx

; 1322 : 		pointer _Umove(_Iter _First, _Iter _Last, pointer _Ptr)

  00000	55		 push	 ebp
  00001	8b ec		 mov	 ebp, esp

; 1323 : 		{	// move initializing [_First, _Last), using allocator
; 1324 : 		return (_Uninitialized_move(_First, _Last,
; 1325 : 			_Ptr, this->_Alval));

  00003	83 c1 0c	 add	 ecx, 12			; 0000000cH
  00006	51		 push	 ecx
  00007	ff 75 10	 push	 DWORD PTR __Ptr$[ebp]
  0000a	ff 75 0c	 push	 DWORD PTR __Last$[ebp]
  0000d	ff 75 08	 push	 DWORD PTR __First$[ebp]
  00010	e8 00 00 00 00	 call	 ??$_Uninitialized_move@PAW4ItemType@SettingKeyItemWnd@@PAW412@V?$allocator@W4ItemType@SettingKeyItemWnd@@@std@@@std@@YAPAW4ItemType@SettingKeyItemWnd@@PAW412@00AAV?$allocator@W4ItemType@SettingKeyItemWnd@@@0@@Z ; std::_Uninitialized_move<enum SettingKeyItemWnd::ItemType *,enum SettingKeyItemWnd::ItemType *,std::allocator<enum SettingKeyItemWnd::ItemType> >
  00015	83 c4 10	 add	 esp, 16			; 00000010H

; 1326 : 		}

  00018	5d		 pop	 ebp
  00019	c2 0c 00	 ret	 12			; 0000000cH
??$_Umove@PAW4ItemType@SettingKeyItemWnd@@@?$vector@W4ItemType@SettingKeyItemWnd@@V?$allocator@W4ItemType@SettingKeyItemWnd@@@std@@@std@@IAEPAW4ItemType@SettingKeyItemWnd@@PAW423@00@Z ENDP ; std::vector<enum SettingKeyItemWnd::ItemType,std::allocator<enum SettingKeyItemWnd::ItemType> >::_Umove<enum SettingKeyItemWnd::ItemType *>
_TEXT	ENDS
PUBLIC	?_Tidy@?$basic_string@DU?$char_traits@D@std@@V?$allocator@D@2@@std@@QAEX_NI@Z ; std::basic_string<char,std::char_traits<char>,std::allocator<char> >::_Tidy
; Function compile flags: /Ogsp
; File c:\program files (x86)\microsoft visual studio 10.0\vc\include\xstring
;	COMDAT ?_Tidy@?$basic_string@DU?$char_traits@D@std@@V?$allocator@D@2@@std@@QAEX_NI@Z
_TEXT	SEGMENT
__Built$ = 8						; size = 1
__Newsize$ = 12						; size = 4
?_Tidy@?$basic_string@DU?$char_traits@D@std@@V?$allocator@D@2@@std@@QAEX_NI@Z PROC ; std::basic_string<char,std::char_traits<char>,std::allocator<char> >::_Tidy, COMDAT
; _this$ = ecx

; 1988 : 		{	// initialize buffer, deallocating any storage

  00000	55		 push	 ebp
  00001	8b ec		 mov	 ebp, esp

; 1989 : 		if (!_Built)

  00003	80 7d 08 00	 cmp	 BYTE PTR __Built$[ebp], 0
  00007	56		 push	 esi
  00008	57		 push	 edi
  00009	8b 7d 0c	 mov	 edi, DWORD PTR __Newsize$[ebp]
  0000c	8b f1		 mov	 esi, ecx
  0000e	74 20		 je	 SHORT $LN9@Tidy@2

; 1990 : 			;
; 1991 : 		else if (this->_BUF_SIZE <= this->_Myres)

  00010	83 7e 14 10	 cmp	 DWORD PTR [esi+20], 16	; 00000010H
  00014	72 1a		 jb	 SHORT $LN9@Tidy@2

; 1992 : 			{	// copy any leftovers to small buffer and deallocate
; 1993 : 			_Elem *_Ptr = this->_Bx._Ptr;

  00016	53		 push	 ebx
  00017	8b 1e		 mov	 ebx, DWORD PTR [esi]

; 1994 : 			if (0 < _Newsize)

  00019	85 ff		 test	 edi, edi
  0001b	74 0b		 je	 SHORT $LN7@Tidy@2

; 1995 : 				_Traits::copy(this->_Bx._Buf, _Ptr, _Newsize);

  0001d	57		 push	 edi
  0001e	53		 push	 ebx
  0001f	56		 push	 esi
  00020	e8 00 00 00 00	 call	 _memcpy
  00025	83 c4 0c	 add	 esp, 12			; 0000000cH
$LN7@Tidy@2:

; 1996 : 			this->_Alval.deallocate(_Ptr, this->_Myres + 1);

  00028	53		 push	 ebx
  00029	e8 00 00 00 00	 call	 ??3@YAXPAX@Z		; operator delete
  0002e	59		 pop	 ecx
  0002f	5b		 pop	 ebx
$LN9@Tidy@2:

; 1997 : 			}
; 1998 : 		this->_Myres = this->_BUF_SIZE - 1;
; 1999 : 		_Eos(_Newsize);

  00030	89 7e 10	 mov	 DWORD PTR [esi+16], edi
  00033	c7 46 14 0f 00
	00 00		 mov	 DWORD PTR [esi+20], 15	; 0000000fH
  0003a	c6 04 37 00	 mov	 BYTE PTR [edi+esi], 0
  0003e	5f		 pop	 edi
  0003f	5e		 pop	 esi

; 2000 : 		}

  00040	5d		 pop	 ebp
  00041	c2 08 00	 ret	 8
?_Tidy@?$basic_string@DU?$char_traits@D@std@@V?$allocator@D@2@@std@@QAEX_NI@Z ENDP ; std::basic_string<char,std::char_traits<char>,std::allocator<char> >::_Tidy
_TEXT	ENDS
PUBLIC	?erase@?$basic_string@DU?$char_traits@D@std@@V?$allocator@D@2@@std@@QAEAAV12@II@Z ; std::basic_string<char,std::char_traits<char>,std::allocator<char> >::erase
; Function compile flags: /Ogsp
;	COMDAT ?erase@?$basic_string@DU?$char_traits@D@std@@V?$allocator@D@2@@std@@QAEAAV12@II@Z
_TEXT	SEGMENT
__Off$ = 8						; size = 4
__Count$ = 12						; size = 4
?erase@?$basic_string@DU?$char_traits@D@std@@V?$allocator@D@2@@std@@QAEAAV12@II@Z PROC ; std::basic_string<char,std::char_traits<char>,std::allocator<char> >::erase, COMDAT
; _this$ = ecx

; 1109 : 		{	// erase elements [_Off, _Off + _Count)

  00000	55		 push	 ebp
  00001	8b ec		 mov	 ebp, esp
  00003	53		 push	 ebx
  00004	56		 push	 esi
  00005	8b f1		 mov	 esi, ecx

; 1110 : 		if (this->_Mysize < _Off)

  00007	8b 46 10	 mov	 eax, DWORD PTR [esi+16]
  0000a	8b 4d 08	 mov	 ecx, DWORD PTR __Off$[ebp]
  0000d	3b c1		 cmp	 eax, ecx
  0000f	73 0b		 jae	 SHORT $LN3@erase

; 1111 : 			_Xran();	// _Off off end

  00011	68 00 00 00 00	 push	 OFFSET ??_C@_0BI@CFPLBAOH@invalid?5string?5position?$AA@
  00016	ff 15 00 00 00
	00		 call	 DWORD PTR __imp_?_Xout_of_range@std@@YAXPBD@Z
$LN28@erase:
$LN3@erase:

; 1112 : 		if (this->_Mysize - _Off < _Count)

  0001c	8b 5d 0c	 mov	 ebx, DWORD PTR __Count$[ebp]
  0001f	2b c1		 sub	 eax, ecx
  00021	3b c3		 cmp	 eax, ebx

; 1113 : 			_Count = this->_Mysize - _Off;	// trim _Count

  00023	0f 42 d8	 cmovb	 ebx, eax

; 1114 : 		if (0 < _Count)

  00026	85 db		 test	 ebx, ebx
  00028	74 47		 je	 SHORT $LN25@erase

; 1115 : 			{	// move elements down
; 1116 : 			_Traits::move(_Myptr() + _Off, _Myptr() + _Off + _Count,
; 1117 : 				this->_Mysize - _Off - _Count);

  0002a	8b 56 14	 mov	 edx, DWORD PTR [esi+20]
  0002d	57		 push	 edi
  0002e	83 fa 10	 cmp	 edx, 16			; 00000010H
  00031	72 04		 jb	 SHORT $LN11@erase
  00033	8b 3e		 mov	 edi, DWORD PTR [esi]
  00035	eb 02		 jmp	 SHORT $LN12@erase
$LN11@erase:
  00037	8b fe		 mov	 edi, esi
$LN12@erase:
  00039	83 fa 10	 cmp	 edx, 16			; 00000010H
  0003c	72 04		 jb	 SHORT $LN15@erase
  0003e	8b 16		 mov	 edx, DWORD PTR [esi]
  00040	eb 02		 jmp	 SHORT $LN16@erase
$LN15@erase:
  00042	8b d6		 mov	 edx, esi
$LN16@erase:
  00044	2b c3		 sub	 eax, ebx
  00046	03 f9		 add	 edi, ecx
  00048	50		 push	 eax
  00049	03 fb		 add	 edi, ebx
  0004b	03 d1		 add	 edx, ecx
  0004d	57		 push	 edi
  0004e	52		 push	 edx
  0004f	ff 15 00 00 00
	00		 call	 DWORD PTR __imp__memmove

; 1118 : 			size_type _Newsize = this->_Mysize - _Count;

  00055	8b 46 10	 mov	 eax, DWORD PTR [esi+16]
  00058	83 c4 0c	 add	 esp, 12			; 0000000cH
  0005b	2b c3		 sub	 eax, ebx

; 1119 : 			_Eos(_Newsize);

  0005d	83 7e 14 10	 cmp	 DWORD PTR [esi+20], 16	; 00000010H
  00061	89 46 10	 mov	 DWORD PTR [esi+16], eax
  00064	5f		 pop	 edi
  00065	72 04		 jb	 SHORT $LN23@erase
  00067	8b 0e		 mov	 ecx, DWORD PTR [esi]
  00069	eb 02		 jmp	 SHORT $LN24@erase
$LN23@erase:
  0006b	8b ce		 mov	 ecx, esi
$LN24@erase:
  0006d	c6 04 01 00	 mov	 BYTE PTR [ecx+eax], 0
$LN25@erase:

; 1120 : 			}
; 1121 : 		return (*this);

  00071	8b c6		 mov	 eax, esi
  00073	5e		 pop	 esi
  00074	5b		 pop	 ebx

; 1122 : 		}

  00075	5d		 pop	 ebp
  00076	c2 08 00	 ret	 8
$LN27@erase:
?erase@?$basic_string@DU?$char_traits@D@std@@V?$allocator@D@2@@std@@QAEAAV12@II@Z ENDP ; std::basic_string<char,std::char_traits<char>,std::allocator<char> >::erase
_TEXT	ENDS
PUBLIC	?_Copy@?$basic_string@DU?$char_traits@D@std@@V?$allocator@D@2@@std@@QAEXII@Z ; std::basic_string<char,std::char_traits<char>,std::allocator<char> >::_Copy
EXTRN	__EH_prolog3_catch:PROC
;	COMDAT xdata$x
; File c:\program files (x86)\microsoft visual studio 10.0\vc\include\iosfwd
xdata$x	SEGMENT
__catchsym$?_Copy@?$basic_string@DU?$char_traits@D@std@@V?$allocator@D@2@@std@@QAEXII@Z$5 DD 040H
	DD	00H
	DD	00H
	DD	FLAT:__catch$?_Copy@?$basic_string@DU?$char_traits@D@std@@V?$allocator@D@2@@std@@QAEXII@Z$0
__catchsym$?_Copy@?$basic_string@DU?$char_traits@D@std@@V?$allocator@D@2@@std@@QAEXII@Z$4 DD 040H
	DD	00H
	DD	00H
	DD	FLAT:__catch$?_Copy@?$basic_string@DU?$char_traits@D@std@@V?$allocator@D@2@@std@@QAEXII@Z$1
__unwindtable$?_Copy@?$basic_string@DU?$char_traits@D@std@@V?$allocator@D@2@@std@@QAEXII@Z DD 0ffffffffH
	DD	00H
	DD	0ffffffffH
	DD	00H
	DD	01H
	DD	00H
	DD	01H
	DD	00H
__ehfuncinfo$?_Copy@?$basic_string@DU?$char_traits@D@std@@V?$allocator@D@2@@std@@QAEXII@Z DD 019930522H
	DD	04H
	DD	FLAT:__unwindtable$?_Copy@?$basic_string@DU?$char_traits@D@std@@V?$allocator@D@2@@std@@QAEXII@Z
	DD	02H
	DD	FLAT:__tryblocktable$?_Copy@?$basic_string@DU?$char_traits@D@std@@V?$allocator@D@2@@std@@QAEXII@Z
	DD	2 DUP(00H)
	DD	00H
	DD	01H
__tryblocktable$?_Copy@?$basic_string@DU?$char_traits@D@std@@V?$allocator@D@2@@std@@QAEXII@Z DD 02H
	DD	02H
	DD	03H
	DD	01H
	DD	FLAT:__catchsym$?_Copy@?$basic_string@DU?$char_traits@D@std@@V?$allocator@D@2@@std@@QAEXII@Z$4
	DD	00H
	DD	00H
	DD	03H
	DD	01H
	DD	FLAT:__catchsym$?_Copy@?$basic_string@DU?$char_traits@D@std@@V?$allocator@D@2@@std@@QAEXII@Z$5
; Function compile flags: /Ogsp
; File c:\program files (x86)\microsoft visual studio 10.0\vc\include\xstring
xdata$x	ENDS
;	COMDAT ?_Copy@?$basic_string@DU?$char_traits@D@std@@V?$allocator@D@2@@std@@QAEXII@Z
_TEXT	SEGMENT
_this$ = -24						; size = 4
tv296 = -20						; size = 4
__Newres$ = -20						; size = 4
__$EHRec$ = -16						; size = 16
__Ptr$ = 8						; size = 4
__Newsize$ = 8						; size = 4
__Oldlen$ = 12						; size = 4
?_Copy@?$basic_string@DU?$char_traits@D@std@@V?$allocator@D@2@@std@@QAEXII@Z PROC ; std::basic_string<char,std::char_traits<char>,std::allocator<char> >::_Copy, COMDAT
; _this$ = ecx

; 1919 : 		{	// copy _Oldlen elements to newly allocated buffer

  00000	6a 0c		 push	 12			; 0000000cH
  00002	b8 00 00 00 00	 mov	 eax, __ehhandler$?_Copy@?$basic_string@DU?$char_traits@D@std@@V?$allocator@D@2@@std@@QAEXII@Z
  00007	e8 00 00 00 00	 call	 __EH_prolog3_catch
  0000c	8b f1		 mov	 esi, ecx
  0000e	89 75 e8	 mov	 DWORD PTR _this$[ebp], esi

; 1920 : 		size_type _Newres = _Newsize | this->_ALLOC_MASK;

  00011	8b 7d 08	 mov	 edi, DWORD PTR __Newsize$[ebp]
  00014	83 cf 0f	 or	 edi, 15			; 0000000fH

; 1921 : 		if (max_size() < _Newres)

  00017	83 ff fe	 cmp	 edi, -2			; fffffffeH
  0001a	76 05		 jbe	 SHORT $LN9@Copy

; 1922 : 			_Newres = _Newsize;	// undo roundup if too big

  0001c	8b 7d 08	 mov	 edi, DWORD PTR __Newsize$[ebp]
  0001f	eb 27		 jmp	 SHORT $LN5@Copy
$LN9@Copy:

; 1923 : 		else if (this->_Myres / 2 <= _Newres / 3)

  00021	33 d2		 xor	 edx, edx
  00023	6a 03		 push	 3
  00025	8b c7		 mov	 eax, edi
  00027	5b		 pop	 ebx
  00028	f7 f3		 div	 ebx
  0002a	8b 4e 14	 mov	 ecx, DWORD PTR [esi+20]
  0002d	89 4d ec	 mov	 DWORD PTR tv296[ebp], ecx
  00030	d1 6d ec	 shr	 DWORD PTR tv296[ebp], 1
  00033	8b 55 ec	 mov	 edx, DWORD PTR tv296[ebp]
  00036	3b d0		 cmp	 edx, eax
  00038	76 0e		 jbe	 SHORT $LN5@Copy

; 1924 : 			;
; 1925 : 		else if (this->_Myres <= max_size() - this->_Myres / 2)

  0003a	6a fe		 push	 -2			; fffffffeH
  0003c	5f		 pop	 edi
  0003d	8b c7		 mov	 eax, edi
  0003f	2b c2		 sub	 eax, edx
  00041	3b c8		 cmp	 ecx, eax
  00043	77 03		 ja	 SHORT $LN5@Copy

; 1926 : 			_Newres = this->_Myres
; 1927 : 				+ this->_Myres / 2;	// grow exponentially if possible

  00045	8d 3c 0a	 lea	 edi, DWORD PTR [edx+ecx]
$LN5@Copy:

; 1928 : 		else
; 1929 : 			_Newres = max_size();	// settle for max_size()
; 1930 : 
; 1931 : 		_Elem *_Ptr;
; 1932 : 		_TRY_BEGIN

  00048	83 65 fc 00	 and	 DWORD PTR __$EHRec$[ebp+12], 0

; 1933 : 			_Ptr = this->_Alval.allocate(_Newres + 1);

  0004c	8d 47 01	 lea	 eax, DWORD PTR [edi+1]
  0004f	6a 00		 push	 0
  00051	50		 push	 eax
  00052	e8 00 00 00 00	 call	 ??$_Allocate@D@std@@YAPADIPAD@Z ; std::_Allocate<char>
  00057	59		 pop	 ecx
  00058	59		 pop	 ecx
  00059	89 45 08	 mov	 DWORD PTR __Ptr$[ebp], eax
  0005c	eb 27		 jmp	 SHORT $LN19@Copy
__catch$?_Copy@?$basic_string@DU?$char_traits@D@std@@V?$allocator@D@2@@std@@QAEXII@Z$0:

; 1934 : 		_CATCH_ALL
; 1935 : 			_Newres = _Newsize;	// allocation failed, undo roundup and retry

  0005e	8b 45 08	 mov	 eax, DWORD PTR __Newsize$[ebp]
  00061	89 65 f0	 mov	 DWORD PTR __$EHRec$[ebp], esp
  00064	89 45 ec	 mov	 DWORD PTR __Newres$[ebp], eax

; 1936 : 			_TRY_BEGIN
; 1937 : 				_Ptr = this->_Alval.allocate(_Newres + 1);

  00067	40		 inc	 eax
  00068	6a 00		 push	 0
  0006a	50		 push	 eax
  0006b	c6 45 fc 02	 mov	 BYTE PTR __$EHRec$[ebp+12], 2
  0006f	e8 00 00 00 00	 call	 ??$_Allocate@D@std@@YAPADIPAD@Z ; std::_Allocate<char>
  00074	59		 pop	 ecx
  00075	89 45 08	 mov	 DWORD PTR __Ptr$[ebp], eax
  00078	59		 pop	 ecx

; 1941 : 			_CATCH_END
; 1942 : 		_CATCH_END

  00079	b8 00 00 00 00	 mov	 eax, $LN63@Copy
  0007e	c3		 ret	 0
$LN63@Copy:
  0007f	8b 75 e8	 mov	 esi, DWORD PTR _this$[ebp]
  00082	8b 7d ec	 mov	 edi, DWORD PTR __Newres$[ebp]
$LN19@Copy:

; 1943 : 
; 1944 : 		if (0 < _Oldlen)

  00085	8b 5d 0c	 mov	 ebx, DWORD PTR __Oldlen$[ebp]
  00088	85 db		 test	 ebx, ebx
  0008a	74 19		 je	 SHORT $LN52@Copy

; 1945 : 			_Traits::copy(_Ptr, _Myptr(), _Oldlen);	// copy existing elements

  0008c	83 7e 14 10	 cmp	 DWORD PTR [esi+20], 16	; 00000010H
  00090	72 04		 jb	 SHORT $LN50@Copy
  00092	8b 06		 mov	 eax, DWORD PTR [esi]
  00094	eb 02		 jmp	 SHORT $LN51@Copy
$LN50@Copy:
  00096	8b c6		 mov	 eax, esi
$LN51@Copy:
  00098	53		 push	 ebx
  00099	50		 push	 eax
  0009a	ff 75 08	 push	 DWORD PTR __Ptr$[ebp]
  0009d	e8 00 00 00 00	 call	 _memcpy
  000a2	83 c4 0c	 add	 esp, 12			; 0000000cH
$LN52@Copy:

; 1946 : 		_Tidy(true);

  000a5	6a 00		 push	 0
  000a7	6a 01		 push	 1
  000a9	8b ce		 mov	 ecx, esi
  000ab	e8 00 00 00 00	 call	 ?_Tidy@?$basic_string@DU?$char_traits@D@std@@V?$allocator@D@2@@std@@QAEX_NI@Z ; std::basic_string<char,std::char_traits<char>,std::allocator<char> >::_Tidy

; 1947 : 		this->_Bx._Ptr = _Ptr;

  000b0	8b 45 08	 mov	 eax, DWORD PTR __Ptr$[ebp]
  000b3	89 06		 mov	 DWORD PTR [esi], eax

; 1948 : 		this->_Myres = _Newres;
; 1949 : 		_Eos(_Oldlen);

  000b5	83 ff 10	 cmp	 edi, 16			; 00000010H
  000b8	89 7e 14	 mov	 DWORD PTR [esi+20], edi
  000bb	89 5e 10	 mov	 DWORD PTR [esi+16], ebx
  000be	0f 42 c6	 cmovb	 eax, esi
  000c1	c6 04 18 00	 mov	 BYTE PTR [eax+ebx], 0

; 1950 : 		}

  000c5	e8 00 00 00 00	 call	 __EH_epilog3
  000ca	c2 08 00	 ret	 8
__catch$?_Copy@?$basic_string@DU?$char_traits@D@std@@V?$allocator@D@2@@std@@QAEXII@Z$1:

; 1938 : 			_CATCH_ALL
; 1939 : 			_Tidy(true);	// failed again, discard storage and reraise

  000cd	8b 4d e8	 mov	 ecx, DWORD PTR _this$[ebp]
  000d0	33 f6		 xor	 esi, esi
  000d2	56		 push	 esi
  000d3	6a 01		 push	 1
  000d5	e8 00 00 00 00	 call	 ?_Tidy@?$basic_string@DU?$char_traits@D@std@@V?$allocator@D@2@@std@@QAEX_NI@Z ; std::basic_string<char,std::char_traits<char>,std::allocator<char> >::_Tidy

; 1940 : 			_RERAISE;

  000da	56		 push	 esi
  000db	56		 push	 esi
  000dc	e8 00 00 00 00	 call	 __CxxThrowException@8
$LN67@Copy:
$LN66@Copy:
  000e1	cc		 int	 3
_TEXT	ENDS
;	COMDAT text$x
text$x	SEGMENT
__ehhandler$?_Copy@?$basic_string@DU?$char_traits@D@std@@V?$allocator@D@2@@std@@QAEXII@Z:
  00000	8b 54 24 08	 mov	 edx, DWORD PTR [esp+8]
  00004	8d 42 0c	 lea	 eax, DWORD PTR [edx+12]
  00007	8b 4a e4	 mov	 ecx, DWORD PTR [edx-28]
  0000a	33 c8		 xor	 ecx, eax
  0000c	e8 00 00 00 00	 call	 @__security_check_cookie@4
  00011	b8 00 00 00 00	 mov	 eax, OFFSET __ehfuncinfo$?_Copy@?$basic_string@DU?$char_traits@D@std@@V?$allocator@D@2@@std@@QAEXII@Z
  00016	e9 00 00 00 00	 jmp	 ___CxxFrameHandler3
text$x	ENDS
?_Copy@?$basic_string@DU?$char_traits@D@std@@V?$allocator@D@2@@std@@QAEXII@Z ENDP ; std::basic_string<char,std::char_traits<char>,std::allocator<char> >::_Copy
PUBLIC	?Save@GameOptionSettingCustomSoundTab@@QAEXXZ	; GameOptionSettingCustomSoundTab::Save
; Function compile flags: /Ogsp
; File d:\lost saga for developer\youtube\tutorial\source\src\lsclient\gui\gameoptionsettingtab.cpp
;	COMDAT ?Save@GameOptionSettingCustomSoundTab@@QAEXXZ
_TEXT	SEGMENT
?Save@GameOptionSettingCustomSoundTab@@QAEXXZ PROC	; GameOptionSettingCustomSoundTab::Save, COMDAT
; _this$ = ecx

; 478  : {

  00000	56		 push	 esi
  00001	8b f1		 mov	 esi, ecx

; 479  : 	SetKeywordEditToBtnByID();

  00003	e8 00 00 00 00	 call	 ?SetKeywordEditToBtnByID@GameOptionSettingCustomSoundTab@@IAEXXZ ; GameOptionSettingCustomSoundTab::SetKeywordEditToBtnByID

; 480  : 	SaveKeywordAndFileName();

  00008	8b ce		 mov	 ecx, esi
  0000a	5e		 pop	 esi
  0000b	e9 00 00 00 00	 jmp	 ?SaveKeywordAndFileName@GameOptionSettingCustomSoundTab@@IAEXXZ ; GameOptionSettingCustomSoundTab::SaveKeywordAndFileName
?Save@GameOptionSettingCustomSoundTab@@QAEXXZ ENDP	; GameOptionSettingCustomSoundTab::Save
_TEXT	ENDS
PUBLIC	?iwm_show@GameOptionSettingKeyTab@@UAEXXZ	; GameOptionSettingKeyTab::iwm_show
; Function compile flags: /Ogsp
;	COMDAT ?iwm_show@GameOptionSettingKeyTab@@UAEXXZ
_TEXT	SEGMENT
?iwm_show@GameOptionSettingKeyTab@@UAEXXZ PROC		; GameOptionSettingKeyTab::iwm_show, COMDAT
; _this$ = ecx

; 1056 : {

  00000	56		 push	 esi
  00001	57		 push	 edi
  00002	8b f9		 mov	 edi, ecx

; 1057 : 	UpdateSetPage( m_iCurPage );

  00004	ff b7 60 01 00
	00		 push	 DWORD PTR [edi+352]
  0000a	e8 00 00 00 00	 call	 ?UpdateSetPage@GameOptionSettingKeyTab@@IAEXH@Z ; GameOptionSettingKeyTab::UpdateSetPage

; 1058 : 	ioScroll *pScroll = (ioScroll*)FindChildWnd( ID_VERT_SCROLL );

  0000f	68 e9 03 00 00	 push	 1001			; 000003e9H
  00014	8b cf		 mov	 ecx, edi
  00016	ff 15 00 00 00
	00		 call	 DWORD PTR __imp_?FindChildWnd@ioWnd@@QAEPAV1@K@Z
  0001c	8b f0		 mov	 esi, eax

; 1059 : 	if( pScroll )

  0001e	85 f6		 test	 esi, esi
  00020	74 1e		 je	 SHORT $LN1@iwm_show@5

; 1060 : 	{
; 1061 : 		pScroll->SetScrollRange( 0, SettingKeyItemWnd::IT_MAX );

  00022	8b 06		 mov	 eax, DWORD PTR [esi]
  00024	6a 58		 push	 88			; 00000058H
  00026	6a 00		 push	 0
  00028	8b ce		 mov	 ecx, esi
  0002a	ff 90 30 01 00
	00		 call	 DWORD PTR [eax+304]

; 1062 : 		pScroll->SetScrollPos( m_iCurPage );

  00030	ff b7 60 01 00
	00		 push	 DWORD PTR [edi+352]
  00036	8b 06		 mov	 eax, DWORD PTR [esi]
  00038	8b ce		 mov	 ecx, esi
  0003a	ff 90 38 01 00
	00		 call	 DWORD PTR [eax+312]
$LN1@iwm_show@5:

; 1063 : 	}
; 1064 : 	SetChildInActive( ID_APPLY );

  00040	6a 03		 push	 3
  00042	8b cf		 mov	 ecx, edi
  00044	ff 15 00 00 00
	00		 call	 DWORD PTR __imp_?SetChildInActive@ioWnd@@QAEXK@Z
  0004a	5f		 pop	 edi
  0004b	5e		 pop	 esi

; 1065 : }

  0004c	c3		 ret	 0
?iwm_show@GameOptionSettingKeyTab@@UAEXXZ ENDP		; GameOptionSettingKeyTab::iwm_show
_TEXT	ENDS
PUBLIC	?iwm_vscroll@GameOptionSettingKeyTab@@UAEXKH@Z	; GameOptionSettingKeyTab::iwm_vscroll
; Function compile flags: /Ogsp
;	COMDAT ?iwm_vscroll@GameOptionSettingKeyTab@@UAEXKH@Z
_TEXT	SEGMENT
_dwID$ = 8						; size = 4
_curPos$ = 12						; size = 4
?iwm_vscroll@GameOptionSettingKeyTab@@UAEXKH@Z PROC	; GameOptionSettingKeyTab::iwm_vscroll, COMDAT
; _this$ = ecx

; 1073 : {

  00000	55		 push	 ebp
  00001	8b ec		 mov	 ebp, esp

; 1074 : 	UpdateSetPage( curPos );

  00003	ff 75 0c	 push	 DWORD PTR _curPos$[ebp]
  00006	e8 00 00 00 00	 call	 ?UpdateSetPage@GameOptionSettingKeyTab@@IAEXH@Z ; GameOptionSettingKeyTab::UpdateSetPage

; 1075 : }

  0000b	5d		 pop	 ebp
  0000c	c2 08 00	 ret	 8
?iwm_vscroll@GameOptionSettingKeyTab@@UAEXKH@Z ENDP	; GameOptionSettingKeyTab::iwm_vscroll
_TEXT	ENDS
PUBLIC	?iwm_command@GameOptionSettingKeyTab@@UAEXPAVioWnd@@HK@Z ; GameOptionSettingKeyTab::iwm_command
EXTRN	__imp_?HideWnd@ioWnd@@QAEXXZ:PROC
EXTRN	?GetDefault@ioKeyManager@@QAEXAAVCKeyInfo@@@Z:PROC ; ioKeyManager::GetDefault
EXTRN	__imp_?SetChildActive@ioWnd@@QAEXK@Z:PROC
; Function compile flags: /Ogsp
;	COMDAT ?iwm_command@GameOptionSettingKeyTab@@UAEXPAVioWnd@@HK@Z
_TEXT	SEGMENT
_pWnd$ = 8						; size = 4
_cmd$ = 12						; size = 4
_param$ = 16						; size = 4
?iwm_command@GameOptionSettingKeyTab@@UAEXPAVioWnd@@HK@Z PROC ; GameOptionSettingKeyTab::iwm_command, COMDAT
; _this$ = ecx

; 1100 : {

  00000	55		 push	 ebp
  00001	8b ec		 mov	 ebp, esp
  00003	56		 push	 esi
  00004	8b f1		 mov	 esi, ecx

; 1101 : 	DWORD dwID = pWnd->GetID();

  00006	8b 4d 08	 mov	 ecx, DWORD PTR _pWnd$[ebp]
  00009	ff 15 00 00 00
	00		 call	 DWORD PTR __imp_?GetID@ioWnd@@QBEKXZ

; 1102 : 
; 1103 : 	switch( dwID )

  0000f	83 f8 01	 cmp	 eax, 1
  00012	0f 84 f2 00 00
	00		 je	 $LN17@iwm_comman@5
  00018	83 f8 02	 cmp	 eax, 2
  0001b	0f 84 e1 00 00
	00		 je	 $LN13@iwm_comman@5
  00021	83 f8 03	 cmp	 eax, 3
  00024	0f 84 ae 00 00
	00		 je	 $LN10@iwm_comman@5
  0002a	83 f8 04	 cmp	 eax, 4
  0002d	74 7d		 je	 SHORT $LN7@iwm_comman@5
  0002f	83 f8 64	 cmp	 eax, 100		; 00000064H
  00032	0f 86 ff 00 00
	00		 jbe	 $LN14@iwm_comman@5
  00038	83 f8 72	 cmp	 eax, 114		; 00000072H
  0003b	76 43		 jbe	 SHORT $LN19@iwm_comman@5
  0003d	3d 13 18 00 00	 cmp	 eax, 6163		; 00001813H
  00042	0f 85 ef 00 00
	00		 jne	 $LN14@iwm_comman@5

; 1161 : 	case GAME_OPTION_SETTING_KEYINPUT_WND:
; 1162 : 		if( cmd == IOBN_BTNUP )

  00048	83 7d 0c 11	 cmp	 DWORD PTR _cmd$[ebp], 17 ; 00000011H
  0004c	0f 85 e5 00 00
	00		 jne	 $LN14@iwm_comman@5

; 1163 : 		{
; 1164 : 			if( param == GameOptionSettingKeyInput::ID_BTNUP_DONT_SETTING )

  00052	81 7d 10 ff c9
	9a 3b		 cmp	 DWORD PTR _param$[ebp], 999999999 ; 3b9ac9ffH

; 1165 : 				ChangeKeyValue( KEY_NULL );

  00059	8b ce		 mov	 ecx, esi
  0005b	75 04		 jne	 SHORT $LN3@iwm_comman@5
  0005d	6a 00		 push	 0
  0005f	eb 15		 jmp	 SHORT $LN26@iwm_comman@5
$LN3@iwm_comman@5:

; 1166 : 			else if( !ShowExistKeyControlWnd(param) )

  00061	ff 75 10	 push	 DWORD PTR _param$[ebp]
  00064	e8 00 00 00 00	 call	 ?ShowExistKeyControlWnd@GameOptionSettingKeyTab@@IAE_NG@Z ; GameOptionSettingKeyTab::ShowExistKeyControlWnd
  00069	84 c0		 test	 al, al
  0006b	0f 85 c6 00 00
	00		 jne	 $LN14@iwm_comman@5

; 1167 : 					ChangeKeyValue( param );

  00071	ff 75 10	 push	 DWORD PTR _param$[ebp]
  00074	8b ce		 mov	 ecx, esi
$LN26@iwm_comman@5:
  00076	e8 00 00 00 00	 call	 ?ChangeKeyValue@GameOptionSettingKeyTab@@IAEXG@Z ; GameOptionSettingKeyTab::ChangeKeyValue

; 1168 : 		}
; 1169 : 		break;

  0007b	e9 b7 00 00 00	 jmp	 $LN14@iwm_comman@5
$LN19@iwm_comman@5:

; 1104 : 	{
; 1105 : 	case ID_SETTING_KEY_ITEM_WND1:
; 1106 : 	case ID_SETTING_KEY_ITEM_WND2:
; 1107 : 	case ID_SETTING_KEY_ITEM_WND3:
; 1108 : 	case ID_SETTING_KEY_ITEM_WND4:
; 1109 : 	case ID_SETTING_KEY_ITEM_WND5:
; 1110 : 	case ID_SETTING_KEY_ITEM_WND6:
; 1111 : 	case ID_SETTING_KEY_ITEM_WND7:
; 1112 : 	case ID_SETTING_KEY_ITEM_WND8:
; 1113 : 	case ID_SETTING_KEY_ITEM_WND9:
; 1114 : 	case ID_SETTING_KEY_ITEM_WND10:
; 1115 : 	case ID_SETTING_KEY_ITEM_WND11:
; 1116 : 	case ID_SETTING_KEY_ITEM_WND12:
; 1117 : 	case ID_SETTING_KEY_ITEM_WND13:
; 1118 : 	case ID_SETTING_KEY_ITEM_WND14:
; 1119 : 		if( cmd == IOBN_BTNUP )

  00080	83 7d 0c 11	 cmp	 DWORD PTR _cmd$[ebp], 17 ; 00000011H
  00084	0f 85 ad 00 00
	00		 jne	 $LN14@iwm_comman@5

; 1120 : 		{
; 1121 : 			m_eSelectKeyType = (CKeyInfo::KeyTypeArray) param;

  0008a	8b 45 10	 mov	 eax, DWORD PTR _param$[ebp]

; 1122 : 			ShowKeyInputControlWnd(pWnd);

  0008d	ff 75 08	 push	 DWORD PTR _pWnd$[ebp]
  00090	8b ce		 mov	 ecx, esi
  00092	89 86 8c 01 00
	00		 mov	 DWORD PTR [esi+396], eax
  00098	e8 00 00 00 00	 call	 ?ShowKeyInputControlWnd@GameOptionSettingKeyTab@@IAEXPAVioWnd@@@Z ; GameOptionSettingKeyTab::ShowKeyInputControlWnd
$LN25@iwm_comman@5:

; 1123 : 			SetChildActive( ID_APPLY );

  0009d	6a 03		 push	 3
  0009f	8b ce		 mov	 ecx, esi
  000a1	ff 15 00 00 00
	00		 call	 DWORD PTR __imp_?SetChildActive@ioWnd@@QAEXK@Z

; 1124 : 		}
; 1125 : 		break;

  000a7	e9 8b 00 00 00	 jmp	 $LN14@iwm_comman@5
$LN7@iwm_comman@5:

; 1153 : 	case ID_DEFAULT:
; 1154 : 		if( cmd == IOBN_BTNUP )

  000ac	83 7d 0c 11	 cmp	 DWORD PTR _cmd$[ebp], 17 ; 00000011H
  000b0	0f 85 81 00 00
	00		 jne	 $LN14@iwm_comman@5

; 1155 : 		{
; 1156 : 			g_KeyManager.GetDefault( m_KeyInfo );

  000b6	8d 86 64 01 00
	00		 lea	 eax, DWORD PTR [esi+356]
  000bc	50		 push	 eax
  000bd	e8 00 00 00 00	 call	 ?GetSingleton@ioKeyManager@@SAAAV1@XZ ; ioKeyManager::GetSingleton
  000c2	8b c8		 mov	 ecx, eax
  000c4	e8 00 00 00 00	 call	 ?GetDefault@ioKeyManager@@QAEXAAVCKeyInfo@@@Z ; ioKeyManager::GetDefault

; 1157 : 			UpdateSetPage( m_iCurPage );

  000c9	ff b6 60 01 00
	00		 push	 DWORD PTR [esi+352]
  000cf	8b ce		 mov	 ecx, esi
  000d1	e8 00 00 00 00	 call	 ?UpdateSetPage@GameOptionSettingKeyTab@@IAEXH@Z ; GameOptionSettingKeyTab::UpdateSetPage

; 1158 : 			SetChildActive( ID_APPLY );
; 1159 : 		}
; 1160 : 		break;

  000d6	eb c5		 jmp	 SHORT $LN25@iwm_comman@5
$LN10@iwm_comman@5:

; 1143 : 	case ID_APPLY:
; 1144 : 		if( cmd == IOBN_BTNUP )

  000d8	83 7d 0c 11	 cmp	 DWORD PTR _cmd$[ebp], 17 ; 00000011H
  000dc	75 59		 jne	 SHORT $LN14@iwm_comman@5

; 1145 : 		{
; 1146 : 			if( Save() )

  000de	8b ce		 mov	 ecx, esi
  000e0	e8 00 00 00 00	 call	 ?Save@GameOptionSettingKeyTab@@QAE_NXZ ; GameOptionSettingKeyTab::Save
  000e5	84 c0		 test	 al, al
  000e7	74 4e		 je	 SHORT $LN14@iwm_comman@5

; 1147 : 			{
; 1148 : 				UpdateSetPage( m_iCurPage );

  000e9	ff b6 60 01 00
	00		 push	 DWORD PTR [esi+352]
  000ef	8b ce		 mov	 ecx, esi
  000f1	e8 00 00 00 00	 call	 ?UpdateSetPage@GameOptionSettingKeyTab@@IAEXH@Z ; GameOptionSettingKeyTab::UpdateSetPage

; 1149 : 				SetChildInActive( ID_APPLY );

  000f6	6a 03		 push	 3
  000f8	8b ce		 mov	 ecx, esi
  000fa	ff 15 00 00 00
	00		 call	 DWORD PTR __imp_?SetChildInActive@ioWnd@@QAEXK@Z

; 1150 : 			}
; 1151 : 		}
; 1152 : 		break;

  00100	eb 35		 jmp	 SHORT $LN14@iwm_comman@5
$LN13@iwm_comman@5:

; 1133 : 			}
; 1134 : 		}
; 1135 : 		break;
; 1136 : 	case ID_CANCEL:
; 1137 : 		if( cmd == IOBN_BTNUP )

  00102	83 7d 0c 11	 cmp	 DWORD PTR _cmd$[ebp], 17 ; 00000011H
  00106	75 2f		 jne	 SHORT $LN14@iwm_comman@5

; 1138 : 		{
; 1139 : 			if( GetParent() )
; 1140 : 				GetParent()->HideWnd();
; 1141 : 		}
; 1142 : 		break;

  00108	eb 11		 jmp	 SHORT $LN24@iwm_comman@5
$LN17@iwm_comman@5:

; 1126 : 	case ID_SAVE:
; 1127 : 		if( cmd == IOBN_BTNUP )

  0010a	83 7d 0c 11	 cmp	 DWORD PTR _cmd$[ebp], 17 ; 00000011H
  0010e	75 27		 jne	 SHORT $LN14@iwm_comman@5

; 1128 : 		{
; 1129 : 			if( Save() )

  00110	8b ce		 mov	 ecx, esi
  00112	e8 00 00 00 00	 call	 ?Save@GameOptionSettingKeyTab@@QAE_NXZ ; GameOptionSettingKeyTab::Save
  00117	84 c0		 test	 al, al
  00119	74 1c		 je	 SHORT $LN14@iwm_comman@5
$LN24@iwm_comman@5:

; 1130 : 			{
; 1131 : 				if( GetParent() )

  0011b	8b ce		 mov	 ecx, esi
  0011d	ff 15 00 00 00
	00		 call	 DWORD PTR __imp_?GetParent@ioWnd@@QAEPAV1@XZ
  00123	85 c0		 test	 eax, eax
  00125	74 10		 je	 SHORT $LN14@iwm_comman@5

; 1132 : 					GetParent()->HideWnd();

  00127	8b ce		 mov	 ecx, esi
  00129	ff 15 00 00 00
	00		 call	 DWORD PTR __imp_?GetParent@ioWnd@@QAEPAV1@XZ
  0012f	8b c8		 mov	 ecx, eax
  00131	ff 15 00 00 00
	00		 call	 DWORD PTR __imp_?HideWnd@ioWnd@@QAEXXZ
$LN14@iwm_comman@5:
  00137	5e		 pop	 esi

; 1170 : 	}
; 1171 : }

  00138	5d		 pop	 ebp
  00139	c2 0c 00	 ret	 12			; 0000000cH
?iwm_command@GameOptionSettingKeyTab@@UAEXPAVioWnd@@HK@Z ENDP ; GameOptionSettingKeyTab::iwm_command
_TEXT	ENDS
EXTRN	?GetDefaultTextInfo@ioKeyManager@@QAEXAAVCKeyInfo@@@Z:PROC ; ioKeyManager::GetDefaultTextInfo
; Function compile flags: /Ogsp
;	COMDAT ?iwm_command@GameOptionSettingGameTab@@UAEXPAVioWnd@@HK@Z
_TEXT	SEGMENT
_pWnd$ = 8						; size = 4
_pItem$546846 = 12					; size = 4
_cmd$ = 12						; size = 4
_param$ = 16						; size = 4
?iwm_command@GameOptionSettingGameTab@@UAEXPAVioWnd@@HK@Z PROC ; GameOptionSettingGameTab::iwm_command, COMDAT
; _this$ = ecx

; 1995 : {

  00000	55		 push	 ebp
  00001	8b ec		 mov	 ebp, esp
  00003	53		 push	 ebx
  00004	56		 push	 esi
  00005	8b f1		 mov	 esi, ecx

; 1996 : 	DWORD dwID = pWnd->GetID();

  00007	8b 4d 08	 mov	 ecx, DWORD PTR _pWnd$[ebp]
  0000a	57		 push	 edi
  0000b	ff 15 00 00 00
	00		 call	 DWORD PTR __imp_?GetID@ioWnd@@QBEKXZ
  00011	8b f8		 mov	 edi, eax

; 1997 : 
; 1998 : 	switch( dwID )

  00013	83 ff 72	 cmp	 edi, 114		; 00000072H
  00016	0f 87 a8 01 00
	00		 ja	 $LN49@iwm_comman@6
  0001c	0f 84 83 01 00
	00		 je	 $LN38@iwm_comman@6
  00022	83 ff 67	 cmp	 edi, 103		; 00000067H
  00025	0f 87 0c 01 00
	00		 ja	 $LN50@iwm_comman@6
  0002b	0f 84 e7 00 00
	00		 je	 $LN44@iwm_comman@6
  00031	4f		 dec	 edi
  00032	0f 84 aa 00 00
	00		 je	 $LN26@iwm_comman@6
  00038	4f		 dec	 edi
  00039	0f 84 97 00 00
	00		 je	 $LN23@iwm_comman@6
  0003f	4f		 dec	 edi
  00040	74 74		 je	 SHORT $LN20@iwm_comman@6
  00042	4f		 dec	 edi
  00043	0f 85 2c 03 00
	00		 jne	 $LN29@iwm_comman@6

; 2085 : 	case ID_DEFAULT:
; 2086 : 		if ( cmd == IOBN_BTNUP )

  00049	83 7d 0c 11	 cmp	 DWORD PTR _cmd$[ebp], 17 ; 00000011H
  0004d	0f 85 22 03 00
	00		 jne	 $LN29@iwm_comman@6

; 2087 : 		{
; 2088 : 			m_CurrentOption.m_bAutoRejctParty = false;

  00053	33 db		 xor	 ebx, ebx

; 2089 : 			m_CurrentOption.m_bAutoRejctCamp  = false;
; 2090 : 			m_CurrentOption.m_bBlockUsersChat = false;
; 2091 : 			m_CurrentOption.m_bChatBubbleAlarm = true;
; 2092 : 			m_CurrentOption.m_bGuildChatAlarm = true;
; 2093 : 
; 2094 : 			m_CurrentOption.m_bSlangFilterChange = false;
; 2095 : 			m_CurrentOption.m_bSlangFilterOther = false;
; 2096 : 
; 2097 : 			m_CurrentOption.m_bCostumeShowChange = true;
; 2098 : 			m_CurrentOption.m_bBattleCutinShow = true;
; 2099 : 
; 2100 : 			m_CurrentOption.m_bPlayKillSound = true;
; 2101 : 			m_CurrentOption.m_bPlayComboSound = true;
; 2102 : 			m_CurrentOption.m_bPlayExtendSound = false;
; 2103 : 
; 2104 : 			m_CurrentOption.m_bHideSkillBuffEmoticon = true;
; 2105 : 			SetChildActive( ID_APPLY );

  00055	6a 03		 push	 3
  00057	8b ce		 mov	 ecx, esi
  00059	88 9e c1 01 00
	00		 mov	 BYTE PTR [esi+449], bl
  0005f	c7 86 aa 01 00
	00 00 00 01 01	 mov	 DWORD PTR [esi+426], 16842752 ; 01010000H
  00069	66 89 9e c3 01
	00 00		 mov	 WORD PTR [esi+451], bx
  00070	c7 86 c8 01 00
	00 01 01 01 01	 mov	 DWORD PTR [esi+456], 16843009 ; 01010101H
  0007a	88 9e cc 01 00
	00		 mov	 BYTE PTR [esi+460], bl
  00080	c6 86 c5 01 00
	00 01		 mov	 BYTE PTR [esi+453], 1
  00087	ff 15 00 00 00
	00		 call	 DWORD PTR __imp_?SetChildActive@ioWnd@@QAEXK@Z

; 2106 : 			g_KeyManager.GetDefaultTextInfo( m_KeyInfo );

  0008d	8d 86 10 02 00
	00		 lea	 eax, DWORD PTR [esi+528]
  00093	50		 push	 eax
  00094	e8 00 00 00 00	 call	 ?GetSingleton@ioKeyManager@@SAAAV1@XZ ; ioKeyManager::GetSingleton
  00099	8b c8		 mov	 ecx, eax
  0009b	e8 00 00 00 00	 call	 ?GetDefaultTextInfo@ioKeyManager@@QAEXAAVCKeyInfo@@@Z ; ioKeyManager::GetDefaultTextInfo

; 2107 : 			UpdateByCurrentOption();

  000a0	8b 06		 mov	 eax, DWORD PTR [esi]
  000a2	8b ce		 mov	 ecx, esi
  000a4	ff 90 30 01 00
	00		 call	 DWORD PTR [eax+304]

; 2108 : 			UpdateSetPage();

  000aa	8b ce		 mov	 ecx, esi
  000ac	e8 00 00 00 00	 call	 ?UpdateSetPage@GameOptionSettingGameTab@@IAEXXZ ; GameOptionSettingGameTab::UpdateSetPage

; 2109 : 		}
; 2110 : 		break;

  000b1	e9 bf 02 00 00	 jmp	 $LN29@iwm_comman@6
$LN20@iwm_comman@6:

; 2078 : 	case ID_APPLY:
; 2079 : 		if ( cmd == IOBN_BTNUP )

  000b6	83 7d 0c 11	 cmp	 DWORD PTR _cmd$[ebp], 17 ; 00000011H
  000ba	0f 85 b5 02 00
	00		 jne	 $LN29@iwm_comman@6

; 2080 : 		{
; 2081 : 			Save();

  000c0	8b ce		 mov	 ecx, esi
  000c2	e8 00 00 00 00	 call	 ?Save@GameOptionSettingGameTab@@QAEXXZ ; GameOptionSettingGameTab::Save

; 2082 : 			SetChildInActive( ID_APPLY );

  000c7	6a 03		 push	 3
  000c9	8b ce		 mov	 ecx, esi
  000cb	ff 15 00 00 00
	00		 call	 DWORD PTR __imp_?SetChildInActive@ioWnd@@QAEXK@Z

; 2083 : 		}
; 2084 : 		break;

  000d1	e9 9f 02 00 00	 jmp	 $LN29@iwm_comman@6
$LN23@iwm_comman@6:

; 2071 : 	case ID_CANCEL:
; 2072 : 		if( cmd == IOBN_BTNUP )

  000d6	83 7d 0c 11	 cmp	 DWORD PTR _cmd$[ebp], 17 ; 00000011H
  000da	0f 85 95 02 00
	00		 jne	 $LN29@iwm_comman@6

; 2073 : 		{
; 2074 : 			if( GetParent() )
; 2075 : 				GetParent()->HideWnd();
; 2076 : 		}
; 2077 : 		break;

  000e0	eb 11		 jmp	 SHORT $LN54@iwm_comman@6
$LN26@iwm_comman@6:

; 2063 : 	case ID_SAVE:
; 2064 : 		if ( cmd == IOBN_BTNUP )

  000e2	83 7d 0c 11	 cmp	 DWORD PTR _cmd$[ebp], 17 ; 00000011H
  000e6	0f 85 89 02 00
	00		 jne	 $LN29@iwm_comman@6

; 2065 : 		{
; 2066 : 			Save();

  000ec	8b ce		 mov	 ecx, esi
  000ee	e8 00 00 00 00	 call	 ?Save@GameOptionSettingGameTab@@QAEXXZ ; GameOptionSettingGameTab::Save
$LN54@iwm_comman@6:

; 2067 : 			if( GetParent() )

  000f3	8b ce		 mov	 ecx, esi
  000f5	ff 15 00 00 00
	00		 call	 DWORD PTR __imp_?GetParent@ioWnd@@QAEPAV1@XZ
  000fb	85 c0		 test	 eax, eax
  000fd	0f 84 72 02 00
	00		 je	 $LN29@iwm_comman@6

; 2068 : 				GetParent()->HideWnd();

  00103	8b ce		 mov	 ecx, esi
  00105	ff 15 00 00 00
	00		 call	 DWORD PTR __imp_?GetParent@ioWnd@@QAEPAV1@XZ
  0010b	8b c8		 mov	 ecx, eax
  0010d	ff 15 00 00 00
	00		 call	 DWORD PTR __imp_?HideWnd@ioWnd@@QAEXXZ

; 2069 : 		}
; 2070 : 		break;

  00113	e9 5d 02 00 00	 jmp	 $LN29@iwm_comman@6
$LN44@iwm_comman@6:

; 1999 : 	{
; 2000 : 	case ID_AUTO_REJECT_PARTY_BTN:
; 2001 : 		if( cmd == IOBN_BTNUP )

  00118	83 7d 0c 11	 cmp	 DWORD PTR _cmd$[ebp], 17 ; 00000011H
  0011c	0f 85 53 02 00
	00		 jne	 $LN29@iwm_comman@6

; 2002 : 		{
; 2003 : 			m_CurrentOption.m_bAutoRejctParty = !m_CurrentOption.m_bAutoRejctParty;

  00122	80 be aa 01 00
	00 00		 cmp	 BYTE PTR [esi+426], 0
  00129	0f 94 c1	 sete	 cl
  0012c	88 8e aa 01 00
	00		 mov	 BYTE PTR [esi+426], cl

; 2004 : 			SetChildActive( ID_APPLY );
; 2005 : 		}
; 2006 : 		break;

  00132	e9 34 02 00 00	 jmp	 $LN52@iwm_comman@6
$LN50@iwm_comman@6:

; 1997 : 
; 1998 : 	switch( dwID )

  00137	83 ef 68	 sub	 edi, 104		; 00000068H
  0013a	74 4a		 je	 SHORT $LN36@iwm_comman@6
  0013c	4f		 dec	 edi
  0013d	74 28		 je	 SHORT $LN42@iwm_comman@6
  0013f	83 ef 08	 sub	 edi, 8
  00142	0f 85 2d 02 00
	00		 jne	 $LN29@iwm_comman@6

; 2014 : 	case ID_CHAT_BUBBLE_ALARM:
; 2015 : 		if( cmd == IOBN_BTNUP )

  00148	83 7d 0c 11	 cmp	 DWORD PTR _cmd$[ebp], 17 ; 00000011H
  0014c	0f 85 23 02 00
	00		 jne	 $LN29@iwm_comman@6

; 2016 : 		{
; 2017 : 			m_CurrentOption.m_bChatBubbleAlarm = !m_CurrentOption.m_bChatBubbleAlarm;

  00152	80 be ac 01 00
	00 00		 cmp	 BYTE PTR [esi+428], 0
  00159	0f 94 c1	 sete	 cl
  0015c	88 8e ac 01 00
	00		 mov	 BYTE PTR [esi+428], cl

; 2018 : 			SetChildActive( ID_APPLY );
; 2019 : 		}
; 2020 : 		break;

  00162	e9 04 02 00 00	 jmp	 $LN52@iwm_comman@6
$LN42@iwm_comman@6:

; 2007 : 	case ID_AUTO_REJECT_CAMP_BTN:
; 2008 : 		if( cmd == IOBN_BTNUP )

  00167	83 7d 0c 11	 cmp	 DWORD PTR _cmd$[ebp], 17 ; 00000011H
  0016b	0f 85 04 02 00
	00		 jne	 $LN29@iwm_comman@6

; 2009 : 		{
; 2010 : 			m_CurrentOption.m_bAutoRejctCamp = !m_CurrentOption.m_bAutoRejctCamp;

  00171	80 be ab 01 00
	00 00		 cmp	 BYTE PTR [esi+427], 0
  00178	0f 94 c1	 sete	 cl
  0017b	88 8e ab 01 00
	00		 mov	 BYTE PTR [esi+427], cl

; 2011 : 			SetChildActive( ID_APPLY );
; 2012 : 		}
; 2013 : 		break;

  00181	e9 e5 01 00 00	 jmp	 $LN52@iwm_comman@6
$LN36@iwm_comman@6:

; 2028 : 	case ID_BLOCK_USERS_CHAT_BTN:
; 2029 : 		if( cmd == IOBN_BTNUP )

  00186	83 7d 0c 11	 cmp	 DWORD PTR _cmd$[ebp], 17 ; 00000011H
  0018a	0f 85 e5 01 00
	00		 jne	 $LN29@iwm_comman@6

; 2030 : 		{
; 2031 : 			m_CurrentOption.m_bBlockUsersChat = !m_CurrentOption.m_bBlockUsersChat;

  00190	80 be c1 01 00
	00 00		 cmp	 BYTE PTR [esi+449], 0
  00197	0f 94 c1	 sete	 cl
  0019a	88 8e c1 01 00
	00		 mov	 BYTE PTR [esi+449], cl

; 2032 : 			SetChildActive( ID_APPLY );
; 2033 : 		}
; 2034 : 		break;

  001a0	e9 c6 01 00 00	 jmp	 $LN52@iwm_comman@6
$LN38@iwm_comman@6:

; 2021 : 	case ID_GUILD_CHAT_ALARM:
; 2022 : 		if( cmd == IOBN_BTNUP )

  001a5	83 7d 0c 11	 cmp	 DWORD PTR _cmd$[ebp], 17 ; 00000011H
  001a9	0f 85 c6 01 00
	00		 jne	 $LN29@iwm_comman@6

; 2023 : 		{
; 2024 : 			m_CurrentOption.m_bGuildChatAlarm = !m_CurrentOption.m_bGuildChatAlarm;

  001af	80 be ad 01 00
	00 00		 cmp	 BYTE PTR [esi+429], 0
  001b6	0f 94 c1	 sete	 cl
  001b9	88 8e ad 01 00
	00		 mov	 BYTE PTR [esi+429], cl

; 2025 : 			SetChildActive( ID_APPLY );
; 2026 : 		}
; 2027 : 		break;

  001bf	e9 a7 01 00 00	 jmp	 $LN52@iwm_comman@6
$LN49@iwm_comman@6:

; 1997 : 
; 1998 : 	switch( dwID )

  001c4	81 ff ce 00 00
	00		 cmp	 edi, 206		; 000000ceH
  001ca	0f 87 be 00 00
	00		 ja	 $LN51@iwm_comman@6
  001d0	81 ff cd 00 00
	00		 cmp	 edi, 205		; 000000cdH
  001d6	0f 83 9b 00 00
	00		 jae	 $LN12@iwm_comman@6
  001dc	83 ff 73	 cmp	 edi, 115		; 00000073H
  001df	74 77		 je	 SHORT $LN34@iwm_comman@6
  001e1	83 ff 74	 cmp	 edi, 116		; 00000074H
  001e4	74 53		 je	 SHORT $LN32@iwm_comman@6
  001e6	83 ff 76	 cmp	 edi, 118		; 00000076H
  001e9	74 2f		 je	 SHORT $LN16@iwm_comman@6
  001eb	81 ff c9 00 00
	00		 cmp	 edi, 201		; 000000c9H
  001f1	0f 86 7e 01 00
	00		 jbe	 $LN29@iwm_comman@6
  001f7	81 ff cb 00 00
	00		 cmp	 edi, 203		; 000000cbH
  001fd	0f 87 72 01 00
	00		 ja	 $LN29@iwm_comman@6

; 2118 : 	case ID_SLANG_FILTER_CHANGE:
; 2119 : 	case ID_SLANG_FILTER_STAR:
; 2120 : 		if( cmd == IOBN_BTNDOWN )

  00203	83 7d 0c 10	 cmp	 DWORD PTR _cmd$[ebp], 16 ; 00000010H
  00207	0f 85 68 01 00
	00		 jne	 $LN29@iwm_comman@6

; 2121 : 		{
; 2122 : 			SetSlangFilterFunc( dwID );

  0020d	57		 push	 edi
  0020e	8b ce		 mov	 ecx, esi
  00210	e8 00 00 00 00	 call	 ?SetSlangFilterFunc@GameOptionSettingGameTab@@IAEXK@Z ; GameOptionSettingGameTab::SetSlangFilterFunc

; 2123 : 			SetChildActive( ID_APPLY );
; 2124 : 		}
; 2125 : 		break;

  00215	e9 51 01 00 00	 jmp	 $LN52@iwm_comman@6
$LN16@iwm_comman@6:

; 2111 : 	case ID_BLOCK_USERS_CUSTOM_SOUND_BTN:
; 2112 : 		if( cmd == IOBN_BTNUP )

  0021a	83 7d 0c 11	 cmp	 DWORD PTR _cmd$[ebp], 17 ; 00000011H
  0021e	0f 85 51 01 00
	00		 jne	 $LN29@iwm_comman@6

; 2113 : 		{
; 2114 : 			m_CurrentOption.m_bBlockUsersCustomSound = !m_CurrentOption.m_bBlockUsersCustomSound;

  00224	80 be c2 01 00
	00 00		 cmp	 BYTE PTR [esi+450], 0
  0022b	0f 94 c1	 sete	 cl
  0022e	88 8e c2 01 00
	00		 mov	 BYTE PTR [esi+450], cl

; 2115 : 			SetChildActive( ID_APPLY );
; 2116 : 		}
; 2117 : 		break;

  00234	e9 32 01 00 00	 jmp	 $LN52@iwm_comman@6
$LN32@iwm_comman@6:

; 2042 : 	case ID_HIDE_MINI_SOLDIER_SELECT_SLOT:
; 2043 : 		if( cmd == IOBN_BTNUP )

  00239	83 7d 0c 11	 cmp	 DWORD PTR _cmd$[ebp], 17 ; 00000011H
  0023d	0f 85 32 01 00
	00		 jne	 $LN29@iwm_comman@6

; 2044 : 		{
; 2045 : 			m_CurrentOption.m_bHideMiniSoldierSelectSlot = !m_CurrentOption.m_bHideMiniSoldierSelectSlot;

  00243	80 be c6 01 00
	00 00		 cmp	 BYTE PTR [esi+454], 0
  0024a	0f 94 c1	 sete	 cl
  0024d	88 8e c6 01 00
	00		 mov	 BYTE PTR [esi+454], cl

; 2046 : 			SetChildActive( ID_APPLY );
; 2047 : 		}
; 2048 : 		break;

  00253	e9 13 01 00 00	 jmp	 $LN52@iwm_comman@6
$LN34@iwm_comman@6:

; 2035 : 	case ID_SHOW_SKILL_BUFF_EMOTICON:
; 2036 : 		if( cmd == IOBN_BTNUP )

  00258	83 7d 0c 11	 cmp	 DWORD PTR _cmd$[ebp], 17 ; 00000011H
  0025c	0f 85 13 01 00
	00		 jne	 $LN29@iwm_comman@6

; 2037 : 		{
; 2038 : 			m_CurrentOption.m_bHideSkillBuffEmoticon = !m_CurrentOption.m_bHideSkillBuffEmoticon;

  00262	80 be c5 01 00
	00 00		 cmp	 BYTE PTR [esi+453], 0
  00269	0f 94 c1	 sete	 cl
  0026c	88 8e c5 01 00
	00		 mov	 BYTE PTR [esi+453], cl

; 2039 : 			SetChildActive( ID_APPLY );
; 2040 : 		}
; 2041 : 		break;

  00272	e9 f4 00 00 00	 jmp	 $LN52@iwm_comman@6
$LN12@iwm_comman@6:

; 2126 : 	case ID_SLANG_FILTER_ALL:
; 2127 : 	case ID_SLANG_FILTER_OTHER:
; 2128 : 		if( cmd == IOBN_BTNDOWN )

  00277	83 7d 0c 10	 cmp	 DWORD PTR _cmd$[ebp], 16 ; 00000010H
  0027b	0f 85 f4 00 00
	00		 jne	 $LN29@iwm_comman@6

; 2129 : 		{
; 2130 : 			SetSlangFilterTarget( dwID );

  00281	57		 push	 edi
  00282	8b ce		 mov	 ecx, esi
  00284	e8 00 00 00 00	 call	 ?SetSlangFilterTarget@GameOptionSettingGameTab@@IAEXK@Z ; GameOptionSettingGameTab::SetSlangFilterTarget

; 2131 : 			SetChildActive( ID_APPLY );
; 2132 : 		}
; 2133 : 		break;

  00289	e9 dd 00 00 00	 jmp	 $LN52@iwm_comman@6
$LN51@iwm_comman@6:

; 1997 : 
; 1998 : 	switch( dwID )

  0028e	81 ff dd 00 00
	00		 cmp	 edi, 221		; 000000ddH
  00294	0f 84 bb 00 00
	00		 je	 $LN30@iwm_comman@6
  0029a	81 ff de 00 00
	00		 cmp	 edi, 222		; 000000deH
  002a0	0f 84 97 00 00
	00		 je	 $LN28@iwm_comman@6
  002a6	81 ff 2c 01 00
	00		 cmp	 edi, 300		; 0000012cH
  002ac	0f 86 c3 00 00
	00		 jbe	 $LN29@iwm_comman@6
  002b2	81 ff 38 01 00
	00		 cmp	 edi, 312		; 00000138H
  002b8	0f 87 b7 00 00
	00		 ja	 $LN29@iwm_comman@6

; 2134 : 	case ID_SETTING_MACRO_ITEM_WND1:
; 2135 : 	case ID_SETTING_MACRO_ITEM_WND2:
; 2136 : 	case ID_SETTING_MACRO_ITEM_WND3:
; 2137 : 	case ID_SETTING_MACRO_ITEM_WND4:
; 2138 : 	case ID_SETTING_MACRO_ITEM_WND5:
; 2139 : 	case ID_SETTING_MACRO_ITEM_WND6:
; 2140 : 	case ID_SETTING_MACRO_ITEM_WND7:
; 2141 : 	case ID_SETTING_MACRO_ITEM_WND8:
; 2142 : 	case ID_SETTING_MACRO_ITEM_WND9:
; 2143 : 	case ID_SETTING_MACRO_ITEM_WND10:
; 2144 : 	case ID_SETTING_MACRO_ITEM_WND11:
; 2145 : 	case ID_SETTING_MACRO_ITEM_WND12:
; 2146 : 		if( cmd == IOBN_BTNUP )

  002be	83 7d 0c 11	 cmp	 DWORD PTR _cmd$[ebp], 17 ; 00000011H
  002c2	75 67		 jne	 SHORT $LN9@iwm_comman@6

; 2147 : 		{
; 2148 : 			SetMacroTextInfo( m_dwSelectItemIDForMacroEdit );

  002c4	ff b6 3c 02 00
	00		 push	 DWORD PTR [esi+572]
  002ca	8b ce		 mov	 ecx, esi
  002cc	e8 00 00 00 00	 call	 ?SetMacroTextInfo@GameOptionSettingGameTab@@IAEXK@Z ; GameOptionSettingGameTab::SetMacroTextInfo

; 2149 : 			if( param == SettingMacroItemWnd::ID_PARAM_MACRO_BTNUP )

  002d1	81 7d 10 10 27
	00 00		 cmp	 DWORD PTR _param$[ebp], 10000 ; 00002710H
  002d8	75 37		 jne	 SHORT $LN8@iwm_comman@6

; 2150 : 			{
; 2151 : 				SettingMacroItemWnd *pItem = dynamic_cast<SettingMacroItemWnd*> (pWnd);

  002da	33 db		 xor	 ebx, ebx
  002dc	53		 push	 ebx
  002dd	68 00 00 00 00	 push	 OFFSET ??_R0?AVSettingMacroItemWnd@@@8
  002e2	68 00 00 00 00	 push	 OFFSET ??_R0?AVioWnd@@@8
  002e7	53		 push	 ebx
  002e8	ff 75 08	 push	 DWORD PTR _pWnd$[ebp]
  002eb	e8 00 00 00 00	 call	 ___RTDynamicCast
  002f0	83 c4 14	 add	 esp, 20			; 00000014H
  002f3	89 45 0c	 mov	 DWORD PTR _pItem$546846[ebp], eax

; 2152 : 				if( pItem )

  002f6	3b c3		 cmp	 eax, ebx
  002f8	74 7b		 je	 SHORT $LN29@iwm_comman@6

; 2153 : 				{
; 2154 : 					UpdateSetPage();

  002fa	8b ce		 mov	 ecx, esi
  002fc	e8 00 00 00 00	 call	 ?UpdateSetPage@GameOptionSettingGameTab@@IAEXXZ ; GameOptionSettingGameTab::UpdateSetPage

; 2155 : 					pItem->SetMacroEdit();

  00301	8b 4d 0c	 mov	 ecx, DWORD PTR _pItem$546846[ebp]
  00304	e8 00 00 00 00	 call	 ?SetMacroEdit@SettingMacroItemWnd@@QAEXXZ ; SettingMacroItemWnd::SetMacroEdit

; 2156 : 					m_dwSelectItemIDForMacroEdit = dwID;

  00309	89 be 3c 02 00
	00		 mov	 DWORD PTR [esi+572], edi

; 2157 : 					SetChildActive( ID_APPLY );
; 2158 : 				}
; 2159 : 			}

  0030f	eb 5a		 jmp	 SHORT $LN52@iwm_comman@6
$LN8@iwm_comman@6:

; 2160 : 			else if( param == SettingMacroItemWnd::ID_PARAM_MACRO_TYP_BTNUP )

  00311	81 7d 10 11 27
	00 00		 cmp	 DWORD PTR _param$[ebp], 10001 ; 00002711H
$LN53@iwm_comman@6:
  00318	75 5b		 jne	 SHORT $LN29@iwm_comman@6
$LN1@iwm_comman@6:

; 2161 : 			{
; 2162 : 				SetMacroTextInfo( dwID );

  0031a	57		 push	 edi
  0031b	8b ce		 mov	 ecx, esi
  0031d	e8 00 00 00 00	 call	 ?SetMacroTextInfo@GameOptionSettingGameTab@@IAEXK@Z ; GameOptionSettingGameTab::SetMacroTextInfo

; 2163 : 				UpdateSetPage();

  00322	8b ce		 mov	 ecx, esi
  00324	e8 00 00 00 00	 call	 ?UpdateSetPage@GameOptionSettingGameTab@@IAEXXZ ; GameOptionSettingGameTab::UpdateSetPage

; 2164 : 				SetChildActive( ID_APPLY );
; 2165 : 			}
; 2166 : 		}

  00329	eb 40		 jmp	 SHORT $LN52@iwm_comman@6
$LN9@iwm_comman@6:

; 2167 : 		else if( cmd == IOED_INPUT )

  0032b	83 7d 0c 22	 cmp	 DWORD PTR _cmd$[ebp], 34 ; 00000022H
  0032f	75 44		 jne	 SHORT $LN29@iwm_comman@6

; 2168 : 		{
; 2169 : 			if( param == 0 || param == 1)

  00331	83 7d 10 00	 cmp	 DWORD PTR _param$[ebp], 0
  00335	74 e3		 je	 SHORT $LN1@iwm_comman@6
  00337	83 7d 10 01	 cmp	 DWORD PTR _param$[ebp], 1

; 2170 : 			{
; 2171 : 				SetMacroTextInfo( dwID );
; 2172 : 				UpdateSetPage();
; 2173 : 				SetChildActive( ID_APPLY );
; 2174 : 			}
; 2175 : 		}
; 2176 : 		break;

  0033b	eb db		 jmp	 SHORT $LN53@iwm_comman@6
$LN28@iwm_comman@6:

; 2054 : 		}
; 2055 : 		break;
; 2056 : 	case ID_BATTLE_CUTIN_SHOW:
; 2057 : 		if( cmd == IOBN_BTNUP )

  0033d	83 7d 0c 11	 cmp	 DWORD PTR _cmd$[ebp], 17 ; 00000011H
  00341	75 32		 jne	 SHORT $LN29@iwm_comman@6

; 2058 : 		{
; 2059 : 			m_CurrentOption.m_bBattleCutinShow = !m_CurrentOption.m_bBattleCutinShow;

  00343	80 be cb 01 00
	00 00		 cmp	 BYTE PTR [esi+459], 0
  0034a	0f 94 c1	 sete	 cl
  0034d	88 8e cb 01 00
	00		 mov	 BYTE PTR [esi+459], cl

; 2060 : 			SetChildActive( ID_APPLY );
; 2061 : 		}
; 2062 : 		break;

  00353	eb 16		 jmp	 SHORT $LN52@iwm_comman@6
$LN30@iwm_comman@6:

; 2049 : 	case ID_COSTUME_SHOW_FUNC:
; 2050 : 		if( cmd == IOBN_BTNUP )

  00355	83 7d 0c 11	 cmp	 DWORD PTR _cmd$[ebp], 17 ; 00000011H
  00359	75 1a		 jne	 SHORT $LN29@iwm_comman@6

; 2051 : 		{
; 2052 : 			m_CurrentOption.m_bCostumeShowChange = !m_CurrentOption.m_bCostumeShowChange;

  0035b	80 be c8 01 00
	00 00		 cmp	 BYTE PTR [esi+456], 0
  00362	0f 94 c1	 sete	 cl
  00365	88 8e c8 01 00
	00		 mov	 BYTE PTR [esi+456], cl
$LN52@iwm_comman@6:

; 2053 : 			SetChildActive( ID_APPLY );

  0036b	6a 03		 push	 3
  0036d	8b ce		 mov	 ecx, esi
  0036f	ff 15 00 00 00
	00		 call	 DWORD PTR __imp_?SetChildActive@ioWnd@@QAEXK@Z
$LN29@iwm_comman@6:
  00375	5f		 pop	 edi
  00376	5e		 pop	 esi
  00377	5b		 pop	 ebx

; 2177 : 	}
; 2178 : }

  00378	5d		 pop	 ebp
  00379	c2 0c 00	 ret	 12			; 0000000cH
?iwm_command@GameOptionSettingGameTab@@UAEXPAVioWnd@@HK@Z ENDP ; GameOptionSettingGameTab::iwm_command
; Function compile flags: /Ogsp
_TEXT	ENDS
;	COMDAT ?iwm_show@GameOptionSettingGameTab@@UAEXXZ
_TEXT	SEGMENT
?iwm_show@GameOptionSettingGameTab@@UAEXXZ PROC		; GameOptionSettingGameTab::iwm_show, COMDAT
; _this$ = ecx

; 2181 : {

  00000	56		 push	 esi
  00001	57		 push	 edi
  00002	8b f1		 mov	 esi, ecx

; 2182 : 	GameOptionBasicWnd::iwm_show();

  00004	e8 00 00 00 00	 call	 ?iwm_show@GameOptionBasicWnd@@UAEXXZ ; GameOptionBasicWnd::iwm_show

; 2183 : 
; 2184 : 	m_pPreEdit = ioEdit::m_pKeyFocusEdit;

  00009	a1 00 00 00 00	 mov	 eax, DWORD PTR __imp_?m_pKeyFocusEdit@ioEdit@@2PAV1@A
  0000e	8b 00		 mov	 eax, DWORD PTR [eax]
  00010	89 86 38 02 00
	00		 mov	 DWORD PTR [esi+568], eax

; 2185 : 
; 2186 : 	for (int i = 0; i < MAX_SHOW_ITEM_WND ; i++)

  00016	33 ff		 xor	 edi, edi
$LL3@iwm_show@6:

; 2187 : 	{
; 2188 : 		ShowChildWnd( ID_SETTING_MACRO_ITEM_WND1 + i );

  00018	6a 00		 push	 0
  0001a	8d 87 2d 01 00
	00		 lea	 eax, DWORD PTR [edi+301]
  00020	50		 push	 eax
  00021	8b ce		 mov	 ecx, esi
  00023	ff 15 00 00 00
	00		 call	 DWORD PTR __imp_?ShowChildWnd@ioWnd@@QAEXK_N@Z
  00029	47		 inc	 edi
  0002a	83 ff 0c	 cmp	 edi, 12			; 0000000cH
  0002d	7c e9		 jl	 SHORT $LL3@iwm_show@6

; 2189 : 	}
; 2190 : 
; 2191 : 	SetChildInActive( ID_APPLY );

  0002f	6a 03		 push	 3
  00031	8b ce		 mov	 ecx, esi
  00033	ff 15 00 00 00
	00		 call	 DWORD PTR __imp_?SetChildInActive@ioWnd@@QAEXK@Z

; 2192 : 	UpdateByCurrentOption();

  00039	8b 06		 mov	 eax, DWORD PTR [esi]
  0003b	8b ce		 mov	 ecx, esi
  0003d	ff 90 30 01 00
	00		 call	 DWORD PTR [eax+304]
  00043	5f		 pop	 edi

; 2193 : 	UpdateSetPage();

  00044	8b ce		 mov	 ecx, esi
  00046	5e		 pop	 esi
  00047	e9 00 00 00 00	 jmp	 ?UpdateSetPage@GameOptionSettingGameTab@@IAEXXZ ; GameOptionSettingGameTab::UpdateSetPage
?iwm_show@GameOptionSettingGameTab@@UAEXXZ ENDP		; GameOptionSettingGameTab::iwm_show
; Function compile flags: /Ogsp
_TEXT	ENDS
;	COMDAT ?iwm_command@GameOptionSettingTab@@UAEXPAVioWnd@@HK@Z
_TEXT	SEGMENT
_pWnd$ = 8						; size = 4
_cmd$ = 12						; size = 4
_param$ = 16						; size = 4
?iwm_command@GameOptionSettingTab@@UAEXPAVioWnd@@HK@Z PROC ; GameOptionSettingTab::iwm_command, COMDAT
; _this$ = ecx

; 3031 : {

  00000	55		 push	 ebp
  00001	8b ec		 mov	 ebp, esp
  00003	56		 push	 esi
  00004	8b f1		 mov	 esi, ecx

; 3032 : 	DWORD dwID = pWnd->GetID();

  00006	8b 4d 08	 mov	 ecx, DWORD PTR _pWnd$[ebp]
  00009	ff 15 00 00 00
	00		 call	 DWORD PTR __imp_?GetID@ioWnd@@QBEKXZ

; 3033 : 
; 3034 : 	switch( dwID )

  0000f	85 c0		 test	 eax, eax
  00011	0f 84 81 00 00
	00		 je	 $LN9@iwm_comman@7
  00017	83 f8 06	 cmp	 eax, 6
  0001a	76 6e		 jbe	 SHORT $LN10@iwm_comman@7
  0001c	83 f8 64	 cmp	 eax, 100		; 00000064H
  0001f	76 77		 jbe	 SHORT $LN9@iwm_comman@7
  00021	83 f8 6a	 cmp	 eax, 106		; 0000006aH
  00024	77 72		 ja	 SHORT $LN9@iwm_comman@7

; 3045 : 		}
; 3046 : 		break;
; 3047 : 	case ID_GAME_SETTING_TAB_WND:
; 3048 : 	case ID_KEY_SETTING_TAB_WND:
; 3049 : 	case ID_MACRO_SETTING_TAB_WND:
; 3050 : 	case ID_CUSTOMSOUND_SETTING_TAB_WND:
; 3051 : 	case ID_MOVIE_AND_SCREENSHOT_TAB_WND:
; 3052 : 	case ID_JOY_KEY_SETTING_TAB_WND:
; 3053 : 		if( cmd == IOBN_BTNUP )

  00026	83 7d 0c 11	 cmp	 DWORD PTR _cmd$[ebp], 17 ; 00000011H
  0002a	75 6c		 jne	 SHORT $LN9@iwm_comman@7

; 3054 : 		{
; 3055 : 			if( param == ID_PARAM_CHILD_SAVE )

  0002c	81 7d 10 e9 03
	00 00		 cmp	 DWORD PTR _param$[ebp], 1001 ; 000003e9H
  00033	75 2e		 jne	 SHORT $LN6@iwm_comman@7

; 3056 : 			{
; 3057 : 				GameOptionSettingCustomSoundTab *pCustomChild =
; 3058 : 				dynamic_cast<GameOptionSettingCustomSoundTab*> ( FindChildWnd( ID_CUSTOMSOUND_SETTING_TAB_WND ) );

  00035	6a 00		 push	 0
  00037	68 00 00 00 00	 push	 OFFSET ??_R0?AVGameOptionSettingCustomSoundTab@@@8
  0003c	68 00 00 00 00	 push	 OFFSET ??_R0?AVioWnd@@@8
  00041	6a 00		 push	 0
  00043	6a 68		 push	 104			; 00000068H
  00045	8b ce		 mov	 ecx, esi
  00047	ff 15 00 00 00
	00		 call	 DWORD PTR __imp_?FindChildWnd@ioWnd@@QAEPAV1@K@Z
  0004d	50		 push	 eax
  0004e	e8 00 00 00 00	 call	 ___RTDynamicCast
  00053	83 c4 14	 add	 esp, 20			; 00000014H

; 3059 : 				if( pCustomChild )

  00056	85 c0		 test	 eax, eax
  00058	74 12		 je	 SHORT $LN5@iwm_comman@7

; 3060 : 					pCustomChild->Save();

  0005a	8b c8		 mov	 ecx, eax
  0005c	e8 00 00 00 00	 call	 ?Save@GameOptionSettingCustomSoundTab@@QAEXXZ ; GameOptionSettingCustomSoundTab::Save

; 3061 : 
; 3062 : 				if( GetParent() )
; 3063 : 					GetParent()->HideWnd();
; 3064 : 			}

  00061	eb 09		 jmp	 SHORT $LN5@iwm_comman@7
$LN6@iwm_comman@7:

; 3065 : 			else if( param == ID_PARAM_CHILD_CANCEL )

  00063	81 7d 10 ea 03
	00 00		 cmp	 DWORD PTR _param$[ebp], 1002 ; 000003eaH
  0006a	75 2c		 jne	 SHORT $LN9@iwm_comman@7
$LN5@iwm_comman@7:

; 3066 : 			{
; 3067 : 				if( GetParent() )

  0006c	8b ce		 mov	 ecx, esi
  0006e	ff 15 00 00 00
	00		 call	 DWORD PTR __imp_?GetParent@ioWnd@@QAEPAV1@XZ
  00074	85 c0		 test	 eax, eax
  00076	74 20		 je	 SHORT $LN9@iwm_comman@7

; 3068 : 					GetParent()->HideWnd();

  00078	8b ce		 mov	 ecx, esi
  0007a	ff 15 00 00 00
	00		 call	 DWORD PTR __imp_?GetParent@ioWnd@@QAEPAV1@XZ
  00080	8b c8		 mov	 ecx, eax
  00082	ff 15 00 00 00
	00		 call	 DWORD PTR __imp_?HideWnd@ioWnd@@QAEXXZ

; 3069 : 			}
; 3070 : 		}
; 3071 : 		break;

  00088	eb 0e		 jmp	 SHORT $LN9@iwm_comman@7
$LN10@iwm_comman@7:

; 3035 : 	{
; 3036 : 	case ID_GAME_SETTING_TAB_BTN:
; 3037 : 	case ID_KEY_SETTING_TAB_BTN:
; 3038 : 	case ID_MACRO_SETTING_TAB_BTN:
; 3039 : 	case ID_CUSTOMSOUND_SETTING_TAB_BTN:
; 3040 : 	case ID_MOVIE_AND_SCREENSHOT_TAB_BTN:
; 3041 : 	case ID_JOY_KEY_SETTING_TAB_BTN:
; 3042 : 		if( cmd == IOBN_BTNDOWN )

  0008a	83 7d 0c 10	 cmp	 DWORD PTR _cmd$[ebp], 16 ; 00000010H
  0008e	75 08		 jne	 SHORT $LN9@iwm_comman@7

; 3043 : 		{
; 3044 : 			ChangeWindow( dwID );

  00090	50		 push	 eax
  00091	8b ce		 mov	 ecx, esi
  00093	e8 00 00 00 00	 call	 ?ChangeWindow@GameOptionSettingTab@@IAEXK@Z ; GameOptionSettingTab::ChangeWindow
$LN9@iwm_comman@7:
  00098	5e		 pop	 esi

; 3072 : 	}
; 3073 : }

  00099	5d		 pop	 ebp
  0009a	c2 0c 00	 ret	 12			; 0000000cH
?iwm_command@GameOptionSettingTab@@UAEXPAVioWnd@@HK@Z ENDP ; GameOptionSettingTab::iwm_command
_TEXT	ENDS
PUBLIC	??1?$vector@W4ItemType@SettingKeyItemWnd@@V?$allocator@W4ItemType@SettingKeyItemWnd@@@std@@@std@@QAE@XZ ; std::vector<enum SettingKeyItemWnd::ItemType,std::allocator<enum SettingKeyItemWnd::ItemType> >::~vector<enum SettingKeyItemWnd::ItemType,std::allocator<enum SettingKeyItemWnd::ItemType> >
; Function compile flags: /Ogsp
; File c:\program files (x86)\microsoft visual studio 10.0\vc\include\vector
;	COMDAT ??1?$vector@W4ItemType@SettingKeyItemWnd@@V?$allocator@W4ItemType@SettingKeyItemWnd@@@std@@@std@@QAE@XZ
_TEXT	SEGMENT
??1?$vector@W4ItemType@SettingKeyItemWnd@@V?$allocator@W4ItemType@SettingKeyItemWnd@@@std@@@std@@QAE@XZ PROC ; std::vector<enum SettingKeyItemWnd::ItemType,std::allocator<enum SettingKeyItemWnd::ItemType> >::~vector<enum SettingKeyItemWnd::ItemType,std::allocator<enum SettingKeyItemWnd::ItemType> >, COMDAT
; _this$ = ecx

; 705  : 		_Tidy();

  00000	e9 00 00 00 00	 jmp	 ?_Tidy@?$vector@W4ItemType@SettingKeyItemWnd@@V?$allocator@W4ItemType@SettingKeyItemWnd@@@std@@@std@@IAEXXZ ; std::vector<enum SettingKeyItemWnd::ItemType,std::allocator<enum SettingKeyItemWnd::ItemType> >::_Tidy
??1?$vector@W4ItemType@SettingKeyItemWnd@@V?$allocator@W4ItemType@SettingKeyItemWnd@@@std@@@std@@QAE@XZ ENDP ; std::vector<enum SettingKeyItemWnd::ItemType,std::allocator<enum SettingKeyItemWnd::ItemType> >::~vector<enum SettingKeyItemWnd::ItemType,std::allocator<enum SettingKeyItemWnd::ItemType> >
_TEXT	ENDS
PUBLIC	?reserve@?$vector@W4ItemType@SettingKeyItemWnd@@V?$allocator@W4ItemType@SettingKeyItemWnd@@@std@@@std@@QAEXI@Z ; std::vector<enum SettingKeyItemWnd::ItemType,std::allocator<enum SettingKeyItemWnd::ItemType> >::reserve
; Function compile flags: /Ogsp
;	COMDAT ?reserve@?$vector@W4ItemType@SettingKeyItemWnd@@V?$allocator@W4ItemType@SettingKeyItemWnd@@@std@@@std@@QAEXI@Z
_TEXT	SEGMENT
__Count$ = 8						; size = 4
?reserve@?$vector@W4ItemType@SettingKeyItemWnd@@V?$allocator@W4ItemType@SettingKeyItemWnd@@@std@@@std@@QAEXI@Z PROC ; std::vector<enum SettingKeyItemWnd::ItemType,std::allocator<enum SettingKeyItemWnd::ItemType> >::reserve, COMDAT
; _this$ = ecx

; 746  : 		{	// determine new minimum length of allocated storage

  00000	55		 push	 ebp
  00001	8b ec		 mov	 ebp, esp

; 747  : 		if (max_size() < _Count)

  00003	81 7d 08 ff ff
	ff 3f		 cmp	 DWORD PTR __Count$[ebp], 1073741823 ; 3fffffffH
  0000a	56		 push	 esi
  0000b	8b f1		 mov	 esi, ecx
  0000d	76 0b		 jbe	 SHORT $LN5@reserve

; 748  : 			_Xlen();	// result too long

  0000f	68 00 00 00 00	 push	 OFFSET ??_C@_0BD@OLBABOEK@vector?$DMT?$DO?5too?5long?$AA@
  00014	ff 15 00 00 00
	00		 call	 DWORD PTR __imp_?_Xlength_error@std@@YAXPBD@Z
$LN43@reserve:
$LN5@reserve:

; 749  : 		else if (capacity() < _Count)

  0001a	8b 46 08	 mov	 eax, DWORD PTR [esi+8]
  0001d	2b 06		 sub	 eax, DWORD PTR [esi]
  0001f	c1 f8 02	 sar	 eax, 2
  00022	3b 45 08	 cmp	 eax, DWORD PTR __Count$[ebp]
  00025	73 52		 jae	 SHORT $LN3@reserve

; 750  : 			{	// not enough room, reallocate
; 751  : 			pointer _Ptr = this->_Alval.allocate(_Count);

  00027	53		 push	 ebx
  00028	57		 push	 edi
  00029	6a 00		 push	 0
  0002b	ff 75 08	 push	 DWORD PTR __Count$[ebp]
  0002e	e8 00 00 00 00	 call	 ??$_Allocate@W4ItemType@SettingKeyItemWnd@@@std@@YAPAW4ItemType@SettingKeyItemWnd@@IPAW412@@Z ; std::_Allocate<enum SettingKeyItemWnd::ItemType>

; 752  : 
; 753  : 			_TRY_BEGIN
; 754  : 			_Umove(this->_Myfirst, this->_Mylast, _Ptr);

  00033	8b 0e		 mov	 ecx, DWORD PTR [esi]
  00035	8d 56 0c	 lea	 edx, DWORD PTR [esi+12]
  00038	52		 push	 edx
  00039	8b d8		 mov	 ebx, eax
  0003b	8b 46 04	 mov	 eax, DWORD PTR [esi+4]
  0003e	53		 push	 ebx
  0003f	50		 push	 eax
  00040	51		 push	 ecx
  00041	e8 00 00 00 00	 call	 ??$_Uninitialized_move@PAW4ItemType@SettingKeyItemWnd@@PAW412@V?$allocator@W4ItemType@SettingKeyItemWnd@@@std@@@std@@YAPAW4ItemType@SettingKeyItemWnd@@PAW412@00AAV?$allocator@W4ItemType@SettingKeyItemWnd@@@0@@Z ; std::_Uninitialized_move<enum SettingKeyItemWnd::ItemType *,enum SettingKeyItemWnd::ItemType *,std::allocator<enum SettingKeyItemWnd::ItemType> >

; 755  : 			_CATCH_ALL
; 756  : 			this->_Alval.deallocate(_Ptr, _Count);
; 757  : 			_RERAISE;
; 758  : 			_CATCH_END
; 759  : 
; 760  : 			size_type _Size = size();

  00046	8b 06		 mov	 eax, DWORD PTR [esi]
  00048	8b 7e 04	 mov	 edi, DWORD PTR [esi+4]
  0004b	2b f8		 sub	 edi, eax
  0004d	83 c4 18	 add	 esp, 24			; 00000018H
  00050	c1 ff 02	 sar	 edi, 2

; 761  : 			if (this->_Myfirst != 0)

  00053	85 c0		 test	 eax, eax
  00055	74 07		 je	 SHORT $LN39@reserve

; 762  : 				{	// destroy and deallocate old array
; 763  : 				_Destroy(this->_Myfirst, this->_Mylast);
; 764  : 				this->_Alval.deallocate(this->_Myfirst,
; 765  : 					this->_Myend - this->_Myfirst);

  00057	50		 push	 eax
  00058	e8 00 00 00 00	 call	 ??3@YAXPAX@Z		; operator delete
  0005d	59		 pop	 ecx
$LN39@reserve:

; 766  : 				}
; 767  : 
; 768  : 			this->_Orphan_all();

  0005e	8b ce		 mov	 ecx, esi
  00060	ff 15 00 00 00
	00		 call	 DWORD PTR __imp_?_Orphan_all@_Container_base0@std@@QAEXXZ

; 769  : 			this->_Myend = _Ptr + _Count;

  00066	8b 45 08	 mov	 eax, DWORD PTR __Count$[ebp]
  00069	8d 04 83	 lea	 eax, DWORD PTR [ebx+eax*4]
  0006c	89 46 08	 mov	 DWORD PTR [esi+8], eax

; 770  : 			this->_Mylast = _Ptr + _Size;

  0006f	8d 04 bb	 lea	 eax, DWORD PTR [ebx+edi*4]
  00072	5f		 pop	 edi

; 771  : 			this->_Myfirst = _Ptr;

  00073	89 1e		 mov	 DWORD PTR [esi], ebx
  00075	89 46 04	 mov	 DWORD PTR [esi+4], eax
  00078	5b		 pop	 ebx
$LN3@reserve:
  00079	5e		 pop	 esi

; 772  : 			}
; 773  : 		}

  0007a	5d		 pop	 ebp
  0007b	c2 04 00	 ret	 4
$LN42@reserve:
?reserve@?$vector@W4ItemType@SettingKeyItemWnd@@V?$allocator@W4ItemType@SettingKeyItemWnd@@@std@@@std@@QAEXI@Z ENDP ; std::vector<enum SettingKeyItemWnd::ItemType,std::allocator<enum SettingKeyItemWnd::ItemType> >::reserve
_TEXT	ENDS
PUBLIC	?erase@?$vector@W4ItemType@SettingKeyItemWnd@@V?$allocator@W4ItemType@SettingKeyItemWnd@@@std@@@std@@QAE?AV?$_Vector_iterator@V?$_Vector_val@W4ItemType@SettingKeyItemWnd@@V?$allocator@W4ItemType@SettingKeyItemWnd@@@std@@@std@@@2@V?$_Vector_const_iterator@V?$_Vector_val@W4ItemType@SettingKeyItemWnd@@V?$allocator@W4ItemType@SettingKeyItemWnd@@@std@@@std@@@2@0@Z ; std::vector<enum SettingKeyItemWnd::ItemType,std::allocator<enum SettingKeyItemWnd::ItemType> >::erase
; Function compile flags: /Ogsp
;	COMDAT ?erase@?$vector@W4ItemType@SettingKeyItemWnd@@V?$allocator@W4ItemType@SettingKeyItemWnd@@@std@@@std@@QAE?AV?$_Vector_iterator@V?$_Vector_val@W4ItemType@SettingKeyItemWnd@@V?$allocator@W4ItemType@SettingKeyItemWnd@@@std@@@std@@@2@V?$_Vector_const_iterator@V?$_Vector_val@W4ItemType@SettingKeyItemWnd@@V?$allocator@W4ItemType@SettingKeyItemWnd@@@std@@@std@@@2@0@Z
_TEXT	SEGMENT
___$ReturnUdt$ = 8					; size = 4
__First_arg$ = 12					; size = 4
__Cat$553005 = 16					; size = 1
__Last_arg$ = 16					; size = 4
?erase@?$vector@W4ItemType@SettingKeyItemWnd@@V?$allocator@W4ItemType@SettingKeyItemWnd@@@std@@@std@@QAE?AV?$_Vector_iterator@V?$_Vector_val@W4ItemType@SettingKeyItemWnd@@V?$allocator@W4ItemType@SettingKeyItemWnd@@@std@@@std@@@2@V?$_Vector_const_iterator@V?$_Vector_val@W4ItemType@SettingKeyItemWnd@@V?$allocator@W4ItemType@SettingKeyItemWnd@@@std@@@std@@@2@0@Z PROC ; std::vector<enum SettingKeyItemWnd::ItemType,std::allocator<enum SettingKeyItemWnd::ItemType> >::erase, COMDAT
; _this$ = ecx

; 1190 : 		{	// erase [_First, _Last)

  00000	55		 push	 ebp
  00001	8b ec		 mov	 ebp, esp

; 1191 : 		iterator _First = _Make_iter(_First_arg);

  00003	8b 45 0c	 mov	 eax, DWORD PTR __First_arg$[ebp]
  00006	56		 push	 esi
  00007	57		 push	 edi
  00008	8b 7d 08	 mov	 edi, DWORD PTR ___$ReturnUdt$[ebp]
  0000b	8b f1		 mov	 esi, ecx
  0000d	89 07		 mov	 DWORD PTR [edi], eax

; 1192 : 		iterator _Last = _Make_iter(_Last_arg);
; 1193 : 
; 1194 : 		if (_First != _Last)

  0000f	3b 45 10	 cmp	 eax, DWORD PTR __Last_arg$[ebp]
  00012	74 16		 je	 SHORT $LN1@erase@2

; 1195 : 			{	// worth doing, copy down over hole
; 1196 :  #if _ITERATOR_DEBUG_LEVEL == 2
; 1197 : 			if (_Last < _First || _VICONT(_First) != this
; 1198 : 				|| _VIPTR(_First) < this->_Myfirst
; 1199 : 				|| this->_Mylast < _VIPTR(_Last))
; 1200 : 				_DEBUG_ERROR("vector erase iterator outside range");
; 1201 : 			pointer _Ptr = _Move(_VIPTR(_Last), this->_Mylast,
; 1202 : 				_VIPTR(_First));
; 1203 : 			_Orphan_range(_VIPTR(_First), this->_Mylast);
; 1204 : 
; 1205 :  #else /* _ITERATOR_DEBUG_LEVEL == 2 */
; 1206 : 			pointer _Ptr = _Move(_VIPTR(_Last), this->_Mylast,
; 1207 : 				_VIPTR(_First));

  00014	ff 75 10	 push	 DWORD PTR __Cat$553005[ebp]
  00017	8b 4e 04	 mov	 ecx, DWORD PTR [esi+4]
  0001a	50		 push	 eax
  0001b	51		 push	 ecx
  0001c	ff 75 10	 push	 DWORD PTR __Last_arg$[ebp]
  0001f	e8 00 00 00 00	 call	 ??$_Move@PAW4ItemType@SettingKeyItemWnd@@PAW412@@std@@YAPAW4ItemType@SettingKeyItemWnd@@PAW412@00U_Scalar_ptr_iterator_tag@0@@Z ; std::_Move<enum SettingKeyItemWnd::ItemType *,enum SettingKeyItemWnd::ItemType *>
  00024	83 c4 10	 add	 esp, 16			; 00000010H

; 1208 :  #endif /* _ITERATOR_DEBUG_LEVEL == 2 */
; 1209 : 
; 1210 : 			_Destroy(_Ptr, this->_Mylast);
; 1211 : 			this->_Mylast = _Ptr;

  00027	89 46 04	 mov	 DWORD PTR [esi+4], eax
$LN1@erase@2:

; 1212 : 			}
; 1213 : 		return (_First);

  0002a	8b c7		 mov	 eax, edi
  0002c	5f		 pop	 edi
  0002d	5e		 pop	 esi

; 1214 : 		}

  0002e	5d		 pop	 ebp
  0002f	c2 0c 00	 ret	 12			; 0000000cH
?erase@?$vector@W4ItemType@SettingKeyItemWnd@@V?$allocator@W4ItemType@SettingKeyItemWnd@@@std@@@std@@QAE?AV?$_Vector_iterator@V?$_Vector_val@W4ItemType@SettingKeyItemWnd@@V?$allocator@W4ItemType@SettingKeyItemWnd@@@std@@@std@@@2@V?$_Vector_const_iterator@V?$_Vector_val@W4ItemType@SettingKeyItemWnd@@V?$allocator@W4ItemType@SettingKeyItemWnd@@@std@@@std@@@2@0@Z ENDP ; std::vector<enum SettingKeyItemWnd::ItemType,std::allocator<enum SettingKeyItemWnd::ItemType> >::erase
_TEXT	ENDS
PUBLIC	?_Reserve@?$vector@W4ItemType@SettingKeyItemWnd@@V?$allocator@W4ItemType@SettingKeyItemWnd@@@std@@@std@@IAEXI@Z ; std::vector<enum SettingKeyItemWnd::ItemType,std::allocator<enum SettingKeyItemWnd::ItemType> >::_Reserve
; Function compile flags: /Ogsp
;	COMDAT ?_Reserve@?$vector@W4ItemType@SettingKeyItemWnd@@V?$allocator@W4ItemType@SettingKeyItemWnd@@@std@@@std@@IAEXI@Z
_TEXT	SEGMENT
__Count$ = 8						; size = 4
?_Reserve@?$vector@W4ItemType@SettingKeyItemWnd@@V?$allocator@W4ItemType@SettingKeyItemWnd@@@std@@@std@@IAEXI@Z PROC ; std::vector<enum SettingKeyItemWnd::ItemType,std::allocator<enum SettingKeyItemWnd::ItemType> >::_Reserve, COMDAT
; _this$ = ecx

; 1290 : 		{	// ensure room for _Count new elements, grow exponentially

  00000	55		 push	 ebp
  00001	8b ec		 mov	 ebp, esp
  00003	56		 push	 esi
  00004	8b f1		 mov	 esi, ecx

; 1291 : 		size_type _Size = size();

  00006	8b 0e		 mov	 ecx, DWORD PTR [esi]
  00008	8b 46 04	 mov	 eax, DWORD PTR [esi+4]
  0000b	2b c1		 sub	 eax, ecx

; 1292 : 		if (max_size() - _Count < _Size)

  0000d	ba ff ff ff 3f	 mov	 edx, 1073741823		; 3fffffffH
  00012	2b 55 08	 sub	 edx, DWORD PTR __Count$[ebp]
  00015	c1 f8 02	 sar	 eax, 2
  00018	3b d0		 cmp	 edx, eax
  0001a	73 0b		 jae	 SHORT $LN4@Reserve

; 1293 : 			_Xlen();

  0001c	68 00 00 00 00	 push	 OFFSET ??_C@_0BD@OLBABOEK@vector?$DMT?$DO?5too?5long?$AA@
  00021	ff 15 00 00 00
	00		 call	 DWORD PTR __imp_?_Xlength_error@std@@YAXPBD@Z
$LN21@Reserve:
$LN4@Reserve:

; 1294 : 		else if ((_Size += _Count) <= capacity())

  00027	8b 56 08	 mov	 edx, DWORD PTR [esi+8]
  0002a	03 45 08	 add	 eax, DWORD PTR __Count$[ebp]
  0002d	2b d1		 sub	 edx, ecx
  0002f	c1 fa 02	 sar	 edx, 2
  00032	3b c2		 cmp	 eax, edx
  00034	76 10		 jbe	 SHORT $LN1@Reserve

; 1295 : 			;
; 1296 : 		else
; 1297 : 			reserve(_Grow_to(_Size));

  00036	50		 push	 eax
  00037	8b ce		 mov	 ecx, esi
  00039	e8 00 00 00 00	 call	 ?_Grow_to@?$vector@W4ItemType@SettingKeyItemWnd@@V?$allocator@W4ItemType@SettingKeyItemWnd@@@std@@@std@@IBEII@Z ; std::vector<enum SettingKeyItemWnd::ItemType,std::allocator<enum SettingKeyItemWnd::ItemType> >::_Grow_to
  0003e	50		 push	 eax
  0003f	8b ce		 mov	 ecx, esi
  00041	e8 00 00 00 00	 call	 ?reserve@?$vector@W4ItemType@SettingKeyItemWnd@@V?$allocator@W4ItemType@SettingKeyItemWnd@@@std@@@std@@QAEXI@Z ; std::vector<enum SettingKeyItemWnd::ItemType,std::allocator<enum SettingKeyItemWnd::ItemType> >::reserve
$LN1@Reserve:
  00046	5e		 pop	 esi

; 1298 : 		}

  00047	5d		 pop	 ebp
  00048	c2 04 00	 ret	 4
$LN20@Reserve:
?_Reserve@?$vector@W4ItemType@SettingKeyItemWnd@@V?$allocator@W4ItemType@SettingKeyItemWnd@@@std@@@std@@IAEXI@Z ENDP ; std::vector<enum SettingKeyItemWnd::ItemType,std::allocator<enum SettingKeyItemWnd::ItemType> >::_Reserve
_TEXT	ENDS
PUBLIC	??1?$basic_string@DU?$char_traits@D@std@@V?$allocator@D@2@@std@@QAE@XZ ; std::basic_string<char,std::char_traits<char>,std::allocator<char> >::~basic_string<char,std::char_traits<char>,std::allocator<char> >
; Function compile flags: /Ogsp
; File c:\program files (x86)\microsoft visual studio 10.0\vc\include\xstring
;	COMDAT ??1?$basic_string@DU?$char_traits@D@std@@V?$allocator@D@2@@std@@QAE@XZ
_TEXT	SEGMENT
??1?$basic_string@DU?$char_traits@D@std@@V?$allocator@D@2@@std@@QAE@XZ PROC ; std::basic_string<char,std::char_traits<char>,std::allocator<char> >::~basic_string<char,std::char_traits<char>,std::allocator<char> >, COMDAT
; _this$ = ecx

; 754  : 		_Tidy(true);

  00000	6a 00		 push	 0
  00002	6a 01		 push	 1
  00004	e8 00 00 00 00	 call	 ?_Tidy@?$basic_string@DU?$char_traits@D@std@@V?$allocator@D@2@@std@@QAEX_NI@Z ; std::basic_string<char,std::char_traits<char>,std::allocator<char> >::_Tidy

; 755  : 		}

  00009	c3		 ret	 0
??1?$basic_string@DU?$char_traits@D@std@@V?$allocator@D@2@@std@@QAE@XZ ENDP ; std::basic_string<char,std::char_traits<char>,std::allocator<char> >::~basic_string<char,std::char_traits<char>,std::allocator<char> >
_TEXT	ENDS
PUBLIC	?_Grow@?$basic_string@DU?$char_traits@D@std@@V?$allocator@D@2@@std@@QAE_NI_N@Z ; std::basic_string<char,std::char_traits<char>,std::allocator<char> >::_Grow
; Function compile flags: /Ogsp
;	COMDAT ?_Grow@?$basic_string@DU?$char_traits@D@std@@V?$allocator@D@2@@std@@QAE_NI_N@Z
_TEXT	SEGMENT
__Newsize$ = 8						; size = 4
__Trim$ = 12						; size = 1
?_Grow@?$basic_string@DU?$char_traits@D@std@@V?$allocator@D@2@@std@@QAE_NI_N@Z PROC ; std::basic_string<char,std::char_traits<char>,std::allocator<char> >::_Grow, COMDAT
; _this$ = ecx

; 1959 : 		{	// ensure buffer is big enough, trim to size if _Trim is true

  00000	55		 push	 ebp
  00001	8b ec		 mov	 ebp, esp
  00003	56		 push	 esi

; 1960 : 		if (max_size() < _Newsize)

  00004	8b 75 08	 mov	 esi, DWORD PTR __Newsize$[ebp]
  00007	83 fe fe	 cmp	 esi, -2			; fffffffeH
  0000a	76 0b		 jbe	 SHORT $LN6@Grow

; 1961 : 			_Xlen();	// result too long

  0000c	68 00 00 00 00	 push	 OFFSET ??_C@_0BA@JFNIOLAK@string?5too?5long?$AA@
  00011	ff 15 00 00 00
	00		 call	 DWORD PTR __imp_?_Xlength_error@std@@YAXPBD@Z
$LN31@Grow:
$LN6@Grow:

; 1962 : 		if (this->_Myres < _Newsize)

  00017	8b 41 14	 mov	 eax, DWORD PTR [ecx+20]
  0001a	3b c6		 cmp	 eax, esi
  0001c	73 0b		 jae	 SHORT $LN5@Grow

; 1963 : 			_Copy(_Newsize, this->_Mysize);	// reallocate to grow

  0001e	ff 71 10	 push	 DWORD PTR [ecx+16]
  00021	56		 push	 esi
  00022	e8 00 00 00 00	 call	 ?_Copy@?$basic_string@DU?$char_traits@D@std@@V?$allocator@D@2@@std@@QAEXII@Z ; std::basic_string<char,std::char_traits<char>,std::allocator<char> >::_Copy
  00027	eb 2e		 jmp	 SHORT $LN28@Grow
$LN5@Grow:

; 1964 : 		else if (_Trim && _Newsize < this->_BUF_SIZE)

  00029	33 d2		 xor	 edx, edx
  0002b	38 55 0c	 cmp	 BYTE PTR __Trim$[ebp], dl
  0002e	74 17		 je	 SHORT $LN3@Grow
  00030	83 fe 10	 cmp	 esi, 16			; 00000010H
  00033	73 12		 jae	 SHORT $LN3@Grow

; 1965 : 			_Tidy(true,	// copy and deallocate if trimming to small string
; 1966 : 				_Newsize < this->_Mysize ? _Newsize : this->_Mysize);

  00035	8b 41 10	 mov	 eax, DWORD PTR [ecx+16]
  00038	3b f0		 cmp	 esi, eax
  0003a	0f 42 c6	 cmovb	 eax, esi
  0003d	50		 push	 eax
  0003e	6a 01		 push	 1
  00040	e8 00 00 00 00	 call	 ?_Tidy@?$basic_string@DU?$char_traits@D@std@@V?$allocator@D@2@@std@@QAEX_NI@Z ; std::basic_string<char,std::char_traits<char>,std::allocator<char> >::_Tidy
  00045	eb 10		 jmp	 SHORT $LN28@Grow
$LN3@Grow:

; 1967 : 		else if (_Newsize == 0)

  00047	3b f2		 cmp	 esi, edx
  00049	75 0c		 jne	 SHORT $LN28@Grow

; 1968 : 			_Eos(0);	// new size is zero, just null terminate

  0004b	89 51 10	 mov	 DWORD PTR [ecx+16], edx
  0004e	83 f8 10	 cmp	 eax, 16			; 00000010H
  00051	72 02		 jb	 SHORT $LN26@Grow
  00053	8b 09		 mov	 ecx, DWORD PTR [ecx]
$LN26@Grow:
  00055	88 11		 mov	 BYTE PTR [ecx], dl
$LN28@Grow:

; 1969 : 		return (0 < _Newsize);	// return true only if more work to do

  00057	33 c0		 xor	 eax, eax
  00059	3b c6		 cmp	 eax, esi
  0005b	1b c0		 sbb	 eax, eax
  0005d	f7 d8		 neg	 eax
  0005f	5e		 pop	 esi

; 1970 : 		}

  00060	5d		 pop	 ebp
  00061	c2 08 00	 ret	 8
$LN30@Grow:
?_Grow@?$basic_string@DU?$char_traits@D@std@@V?$allocator@D@2@@std@@QAE_NI_N@Z ENDP ; std::basic_string<char,std::char_traits<char>,std::allocator<char> >::_Grow
_TEXT	ENDS
PUBLIC	??_G?$basic_string@DU?$char_traits@D@std@@V?$allocator@D@2@@std@@QAEPAXI@Z ; std::basic_string<char,std::char_traits<char>,std::allocator<char> >::`scalar deleting destructor'
; Function compile flags: /Ogsp
;	COMDAT ??_G?$basic_string@DU?$char_traits@D@std@@V?$allocator@D@2@@std@@QAEPAXI@Z
_TEXT	SEGMENT
___flags$ = 8						; size = 4
??_G?$basic_string@DU?$char_traits@D@std@@V?$allocator@D@2@@std@@QAEPAXI@Z PROC ; std::basic_string<char,std::char_traits<char>,std::allocator<char> >::`scalar deleting destructor', COMDAT
; _this$ = ecx
  00000	55		 push	 ebp
  00001	8b ec		 mov	 ebp, esp
  00003	56		 push	 esi
  00004	6a 00		 push	 0
  00006	6a 01		 push	 1
  00008	8b f1		 mov	 esi, ecx
  0000a	e8 00 00 00 00	 call	 ?_Tidy@?$basic_string@DU?$char_traits@D@std@@V?$allocator@D@2@@std@@QAEX_NI@Z ; std::basic_string<char,std::char_traits<char>,std::allocator<char> >::_Tidy
  0000f	f6 45 08 01	 test	 BYTE PTR ___flags$[ebp], 1
  00013	74 07		 je	 SHORT $LN1@scalar@12
  00015	56		 push	 esi
  00016	e8 00 00 00 00	 call	 ??3@YAXPAX@Z		; operator delete
  0001b	59		 pop	 ecx
$LN1@scalar@12:
  0001c	8b c6		 mov	 eax, esi
  0001e	5e		 pop	 esi
  0001f	5d		 pop	 ebp
  00020	c2 04 00	 ret	 4
??_G?$basic_string@DU?$char_traits@D@std@@V?$allocator@D@2@@std@@QAEPAXI@Z ENDP ; std::basic_string<char,std::char_traits<char>,std::allocator<char> >::`scalar deleting destructor'
_TEXT	ENDS
PUBLIC	?push_back@?$vector@W4ItemType@SettingKeyItemWnd@@V?$allocator@W4ItemType@SettingKeyItemWnd@@@std@@@std@@QAEX$$QAW4ItemType@SettingKeyItemWnd@@@Z ; std::vector<enum SettingKeyItemWnd::ItemType,std::allocator<enum SettingKeyItemWnd::ItemType> >::push_back
; Function compile flags: /Ogsp
; File c:\program files (x86)\microsoft visual studio 10.0\vc\include\vector
;	COMDAT ?push_back@?$vector@W4ItemType@SettingKeyItemWnd@@V?$allocator@W4ItemType@SettingKeyItemWnd@@@std@@@std@@QAEX$$QAW4ItemType@SettingKeyItemWnd@@@Z
_TEXT	SEGMENT
__Val$ = 8						; size = 4
?push_back@?$vector@W4ItemType@SettingKeyItemWnd@@V?$allocator@W4ItemType@SettingKeyItemWnd@@@std@@@std@@QAEX$$QAW4ItemType@SettingKeyItemWnd@@@Z PROC ; std::vector<enum SettingKeyItemWnd::ItemType,std::allocator<enum SettingKeyItemWnd::ItemType> >::push_back, COMDAT
; _this$ = ecx

; 631  : 		{	// insert element at end

  00000	55		 push	 ebp
  00001	8b ec		 mov	 ebp, esp
  00003	56		 push	 esi
  00004	8b f1		 mov	 esi, ecx

; 632  : 		if (_Inside(_STD addressof(_Val)))

  00006	8b 46 04	 mov	 eax, DWORD PTR [esi+4]
  00009	57		 push	 edi
  0000a	8b 7d 08	 mov	 edi, DWORD PTR __Val$[ebp]
  0000d	3b f8		 cmp	 edi, eax
  0000f	73 27		 jae	 SHORT $LN4@push_back
  00011	8b 0e		 mov	 ecx, DWORD PTR [esi]
  00013	3b cf		 cmp	 ecx, edi
  00015	77 21		 ja	 SHORT $LN4@push_back

; 633  : 			{	// push back an element
; 634  : 			size_type _Idx = _STD addressof(_Val) - this->_Myfirst;

  00017	2b f9		 sub	 edi, ecx
  00019	c1 ff 02	 sar	 edi, 2

; 635  : 			if (this->_Mylast == this->_Myend)

  0001c	3b 46 08	 cmp	 eax, DWORD PTR [esi+8]
  0001f	75 09		 jne	 SHORT $LN3@push_back

; 636  : 				_Reserve(1);

  00021	6a 01		 push	 1
  00023	8b ce		 mov	 ecx, esi
  00025	e8 00 00 00 00	 call	 ?_Reserve@?$vector@W4ItemType@SettingKeyItemWnd@@V?$allocator@W4ItemType@SettingKeyItemWnd@@@std@@@std@@IAEXI@Z ; std::vector<enum SettingKeyItemWnd::ItemType,std::allocator<enum SettingKeyItemWnd::ItemType> >::_Reserve
$LN3@push_back:

; 637  : 			_Orphan_range(this->_Mylast, this->_Mylast);
; 638  : 			_Cons_val(this->_Alval,
; 639  : 				this->_Mylast,
; 640  : 				_STD forward<_Ty>(this->_Myfirst[_Idx]));

  0002a	8b 46 04	 mov	 eax, DWORD PTR [esi+4]
  0002d	85 c0		 test	 eax, eax
  0002f	74 20		 je	 SHORT $LN41@push_back
  00031	8b 0e		 mov	 ecx, DWORD PTR [esi]
  00033	8b 0c b9	 mov	 ecx, DWORD PTR [ecx+edi*4]

; 641  : 			++this->_Mylast;
; 642  : 			}
; 643  : 		else

  00036	eb 17		 jmp	 SHORT $LN48@push_back
$LN4@push_back:

; 644  : 			{	// push back a non-element
; 645  : 			if (this->_Mylast == this->_Myend)

  00038	3b 46 08	 cmp	 eax, DWORD PTR [esi+8]
  0003b	75 09		 jne	 SHORT $LN1@push_back

; 646  : 				_Reserve(1);

  0003d	6a 01		 push	 1
  0003f	8b ce		 mov	 ecx, esi
  00041	e8 00 00 00 00	 call	 ?_Reserve@?$vector@W4ItemType@SettingKeyItemWnd@@V?$allocator@W4ItemType@SettingKeyItemWnd@@@std@@@std@@IAEXI@Z ; std::vector<enum SettingKeyItemWnd::ItemType,std::allocator<enum SettingKeyItemWnd::ItemType> >::_Reserve
$LN1@push_back:

; 647  : 			_Orphan_range(this->_Mylast, this->_Mylast);
; 648  : 			_Cons_val(this->_Alval,
; 649  : 				this->_Mylast,
; 650  : 				_STD forward<_Ty>(_Val));

  00046	8b 46 04	 mov	 eax, DWORD PTR [esi+4]
  00049	85 c0		 test	 eax, eax
  0004b	74 04		 je	 SHORT $LN41@push_back
  0004d	8b 0f		 mov	 ecx, DWORD PTR [edi]
$LN48@push_back:
  0004f	89 08		 mov	 DWORD PTR [eax], ecx
$LN41@push_back:

; 651  : 			++this->_Mylast;

  00051	83 46 04 04	 add	 DWORD PTR [esi+4], 4
  00055	5f		 pop	 edi
  00056	5e		 pop	 esi

; 652  : 			}
; 653  : 		}

  00057	5d		 pop	 ebp
  00058	c2 04 00	 ret	 4
?push_back@?$vector@W4ItemType@SettingKeyItemWnd@@V?$allocator@W4ItemType@SettingKeyItemWnd@@@std@@@std@@QAEX$$QAW4ItemType@SettingKeyItemWnd@@@Z ENDP ; std::vector<enum SettingKeyItemWnd::ItemType,std::allocator<enum SettingKeyItemWnd::ItemType> >::push_back
_TEXT	ENDS
PUBLIC	?clear@?$vector@W4ItemType@SettingKeyItemWnd@@V?$allocator@W4ItemType@SettingKeyItemWnd@@@std@@@std@@QAEXXZ ; std::vector<enum SettingKeyItemWnd::ItemType,std::allocator<enum SettingKeyItemWnd::ItemType> >::clear
; Function compile flags: /Ogsp
;	COMDAT ?clear@?$vector@W4ItemType@SettingKeyItemWnd@@V?$allocator@W4ItemType@SettingKeyItemWnd@@@std@@@std@@QAEXXZ
_TEXT	SEGMENT
$T553253 = -4						; size = 4
?clear@?$vector@W4ItemType@SettingKeyItemWnd@@V?$allocator@W4ItemType@SettingKeyItemWnd@@@std@@@std@@QAEXXZ PROC ; std::vector<enum SettingKeyItemWnd::ItemType,std::allocator<enum SettingKeyItemWnd::ItemType> >::clear, COMDAT
; _this$ = ecx

; 1217 : 		{	// erase all

  00000	55		 push	 ebp
  00001	8b ec		 mov	 ebp, esp
  00003	51		 push	 ecx

; 1218 : 		erase(begin(), end());

  00004	8b 41 04	 mov	 eax, DWORD PTR [ecx+4]
  00007	8b 11		 mov	 edx, DWORD PTR [ecx]
  00009	50		 push	 eax
  0000a	52		 push	 edx
  0000b	8d 45 fc	 lea	 eax, DWORD PTR $T553253[ebp]
  0000e	50		 push	 eax
  0000f	e8 00 00 00 00	 call	 ?erase@?$vector@W4ItemType@SettingKeyItemWnd@@V?$allocator@W4ItemType@SettingKeyItemWnd@@@std@@@std@@QAE?AV?$_Vector_iterator@V?$_Vector_val@W4ItemType@SettingKeyItemWnd@@V?$allocator@W4ItemType@SettingKeyItemWnd@@@std@@@std@@@2@V?$_Vector_const_iterator@V?$_Vector_val@W4ItemType@SettingKeyItemWnd@@V?$allocator@W4ItemType@SettingKeyItemWnd@@@std@@@std@@@2@0@Z ; std::vector<enum SettingKeyItemWnd::ItemType,std::allocator<enum SettingKeyItemWnd::ItemType> >::erase

; 1219 : 		}

  00014	c9		 leave
  00015	c3		 ret	 0
?clear@?$vector@W4ItemType@SettingKeyItemWnd@@V?$allocator@W4ItemType@SettingKeyItemWnd@@@std@@@std@@QAEXXZ ENDP ; std::vector<enum SettingKeyItemWnd::ItemType,std::allocator<enum SettingKeyItemWnd::ItemType> >::clear
_TEXT	ENDS
PUBLIC	?assign@?$basic_string@DU?$char_traits@D@std@@V?$allocator@D@2@@std@@QAEAAV12@ABV12@II@Z ; std::basic_string<char,std::char_traits<char>,std::allocator<char> >::assign
; Function compile flags: /Ogsp
; File c:\program files (x86)\microsoft visual studio 10.0\vc\include\xstring
;	COMDAT ?assign@?$basic_string@DU?$char_traits@D@std@@V?$allocator@D@2@@std@@QAEAAV12@ABV12@II@Z
_TEXT	SEGMENT
__Right$ = 8						; size = 4
__Roff$ = 12						; size = 4
__Count$ = 16						; size = 4
?assign@?$basic_string@DU?$char_traits@D@std@@V?$allocator@D@2@@std@@QAEAAV12@ABV12@II@Z PROC ; std::basic_string<char,std::char_traits<char>,std::allocator<char> >::assign, COMDAT
; _this$ = ecx

; 893  : 		{	// assign _Right [_Roff, _Roff + _Count)

  00000	55		 push	 ebp
  00001	8b ec		 mov	 ebp, esp
  00003	53		 push	 ebx

; 894  : 		if (_Right.size() < _Roff)

  00004	8b 5d 08	 mov	 ebx, DWORD PTR __Right$[ebp]
  00007	8b 43 10	 mov	 eax, DWORD PTR [ebx+16]
  0000a	56		 push	 esi
  0000b	8b f1		 mov	 esi, ecx
  0000d	8b 4d 0c	 mov	 ecx, DWORD PTR __Roff$[ebp]
  00010	57		 push	 edi
  00011	3b c1		 cmp	 eax, ecx
  00013	73 0b		 jae	 SHORT $LN5@assign

; 895  : 			_Xran();	// _Roff off end

  00015	68 00 00 00 00	 push	 OFFSET ??_C@_0BI@CFPLBAOH@invalid?5string?5position?$AA@
  0001a	ff 15 00 00 00
	00		 call	 DWORD PTR __imp_?_Xout_of_range@std@@YAXPBD@Z
$LN34@assign:
$LN5@assign:

; 896  : 		size_type _Num = _Right.size() - _Roff;

  00020	2b c1		 sub	 eax, ecx
  00022	8b f8		 mov	 edi, eax

; 897  : 		if (_Count < _Num)

  00024	39 7d 10	 cmp	 DWORD PTR __Count$[ebp], edi

; 898  : 			_Num = _Count;	// trim _Num to size

  00027	0f 42 7d 10	 cmovb	 edi, DWORD PTR __Count$[ebp]

; 899  : 
; 900  : 		if (this == &_Right)

  0002b	3b f3		 cmp	 esi, ebx
  0002d	75 1a		 jne	 SHORT $LN3@assign

; 901  : 			erase((size_type)(_Roff + _Num)), erase(0, _Roff);	// substring

  0002f	03 f9		 add	 edi, ecx
  00031	6a ff		 push	 -1
  00033	57		 push	 edi
  00034	8b ce		 mov	 ecx, esi
  00036	e8 00 00 00 00	 call	 ?erase@?$basic_string@DU?$char_traits@D@std@@V?$allocator@D@2@@std@@QAEAAV12@II@Z ; std::basic_string<char,std::char_traits<char>,std::allocator<char> >::erase
  0003b	ff 75 0c	 push	 DWORD PTR __Roff$[ebp]
  0003e	8b ce		 mov	 ecx, esi
  00040	6a 00		 push	 0
  00042	e8 00 00 00 00	 call	 ?erase@?$basic_string@DU?$char_traits@D@std@@V?$allocator@D@2@@std@@QAEAAV12@II@Z ; std::basic_string<char,std::char_traits<char>,std::allocator<char> >::erase
  00047	eb 47		 jmp	 SHORT $LN31@assign
$LN3@assign:

; 902  : 		else if (_Grow(_Num))

  00049	6a 00		 push	 0
  0004b	57		 push	 edi
  0004c	8b ce		 mov	 ecx, esi
  0004e	e8 00 00 00 00	 call	 ?_Grow@?$basic_string@DU?$char_traits@D@std@@V?$allocator@D@2@@std@@QAE_NI_N@Z ; std::basic_string<char,std::char_traits<char>,std::allocator<char> >::_Grow
  00053	84 c0		 test	 al, al
  00055	74 39		 je	 SHORT $LN31@assign

; 903  : 			{	// make room and assign new stuff
; 904  : 			_Traits::copy(_Myptr(), _Right._Myptr() + _Roff, _Num);

  00057	83 7b 14 10	 cmp	 DWORD PTR [ebx+20], 16	; 00000010H
  0005b	72 04		 jb	 SHORT $LN17@assign
  0005d	8b 03		 mov	 eax, DWORD PTR [ebx]
  0005f	eb 02		 jmp	 SHORT $LN18@assign
$LN17@assign:
  00061	8b c3		 mov	 eax, ebx
$LN18@assign:
  00063	83 7e 14 10	 cmp	 DWORD PTR [esi+20], 16	; 00000010H
  00067	72 04		 jb	 SHORT $LN21@assign
  00069	8b 0e		 mov	 ecx, DWORD PTR [esi]
  0006b	eb 02		 jmp	 SHORT $LN22@assign
$LN21@assign:
  0006d	8b ce		 mov	 ecx, esi
$LN22@assign:
  0006f	03 45 0c	 add	 eax, DWORD PTR __Roff$[ebp]
  00072	57		 push	 edi
  00073	50		 push	 eax
  00074	51		 push	 ecx
  00075	e8 00 00 00 00	 call	 _memcpy
  0007a	83 c4 0c	 add	 esp, 12			; 0000000cH

; 905  : 			_Eos(_Num);

  0007d	83 7e 14 10	 cmp	 DWORD PTR [esi+20], 16	; 00000010H
  00081	89 7e 10	 mov	 DWORD PTR [esi+16], edi
  00084	72 04		 jb	 SHORT $LN29@assign
  00086	8b 06		 mov	 eax, DWORD PTR [esi]
  00088	eb 02		 jmp	 SHORT $LN30@assign
$LN29@assign:
  0008a	8b c6		 mov	 eax, esi
$LN30@assign:
  0008c	c6 04 38 00	 mov	 BYTE PTR [eax+edi], 0
$LN31@assign:

; 906  : 			}
; 907  : 		return (*this);

  00090	5f		 pop	 edi
  00091	8b c6		 mov	 eax, esi
  00093	5e		 pop	 esi
  00094	5b		 pop	 ebx

; 908  : 		}

  00095	5d		 pop	 ebp
  00096	c2 0c 00	 ret	 12			; 0000000cH
$LN33@assign:
?assign@?$basic_string@DU?$char_traits@D@std@@V?$allocator@D@2@@std@@QAEAAV12@ABV12@II@Z ENDP ; std::basic_string<char,std::char_traits<char>,std::allocator<char> >::assign
_TEXT	ENDS
PUBLIC	?assign@?$basic_string@DU?$char_traits@D@std@@V?$allocator@D@2@@std@@QAEAAV12@PBDI@Z ; std::basic_string<char,std::char_traits<char>,std::allocator<char> >::assign
; Function compile flags: /Ogsp
;	COMDAT ?assign@?$basic_string@DU?$char_traits@D@std@@V?$allocator@D@2@@std@@QAEAAV12@PBDI@Z
_TEXT	SEGMENT
__Ptr$ = 8						; size = 4
__Count$ = 12						; size = 4
?assign@?$basic_string@DU?$char_traits@D@std@@V?$allocator@D@2@@std@@QAEAAV12@PBDI@Z PROC ; std::basic_string<char,std::char_traits<char>,std::allocator<char> >::assign, COMDAT
; _this$ = ecx

; 911  : 		{	// assign [_Ptr, _Ptr + _Count)

  00000	55		 push	 ebp
  00001	8b ec		 mov	 ebp, esp
  00003	53		 push	 ebx

; 912  :  #if _ITERATOR_DEBUG_LEVEL == 2
; 913  : 		if (_Count != 0)
; 914  : 			_DEBUG_POINTER(_Ptr);
; 915  :  #endif /* _ITERATOR_DEBUG_LEVEL == 2 */
; 916  : 
; 917  : 		if (_Inside(_Ptr))

  00004	8b 5d 08	 mov	 ebx, DWORD PTR __Ptr$[ebp]
  00007	56		 push	 esi
  00008	53		 push	 ebx
  00009	8b f1		 mov	 esi, ecx
  0000b	e8 00 00 00 00	 call	 ?_Inside@?$basic_string@DU?$char_traits@D@std@@V?$allocator@D@2@@std@@QAE_NPBD@Z ; std::basic_string<char,std::char_traits<char>,std::allocator<char> >::_Inside
  00010	84 c0		 test	 al, al
  00012	74 1c		 je	 SHORT $LN2@assign@2

; 918  : 			return (assign(*this, _Ptr - _Myptr(), _Count));	// substring

  00014	83 7e 14 10	 cmp	 DWORD PTR [esi+20], 16	; 00000010H
  00018	72 04		 jb	 SHORT $LN7@assign@2
  0001a	8b 06		 mov	 eax, DWORD PTR [esi]
  0001c	eb 02		 jmp	 SHORT $LN8@assign@2
$LN7@assign@2:
  0001e	8b c6		 mov	 eax, esi
$LN8@assign@2:
  00020	ff 75 0c	 push	 DWORD PTR __Count$[ebp]
  00023	2b d8		 sub	 ebx, eax
  00025	53		 push	 ebx
  00026	56		 push	 esi
  00027	8b ce		 mov	 ecx, esi
  00029	e8 00 00 00 00	 call	 ?assign@?$basic_string@DU?$char_traits@D@std@@V?$allocator@D@2@@std@@QAEAAV12@ABV12@II@Z ; std::basic_string<char,std::char_traits<char>,std::allocator<char> >::assign
  0002e	eb 3f		 jmp	 SHORT $LN3@assign@2
$LN2@assign@2:
  00030	57		 push	 edi

; 919  : 
; 920  : 		if (_Grow(_Count))

  00031	8b 7d 0c	 mov	 edi, DWORD PTR __Count$[ebp]
  00034	6a 00		 push	 0
  00036	57		 push	 edi
  00037	8b ce		 mov	 ecx, esi
  00039	e8 00 00 00 00	 call	 ?_Grow@?$basic_string@DU?$char_traits@D@std@@V?$allocator@D@2@@std@@QAE_NI_N@Z ; std::basic_string<char,std::char_traits<char>,std::allocator<char> >::_Grow
  0003e	84 c0		 test	 al, al
  00040	74 2a		 je	 SHORT $LN21@assign@2

; 921  : 			{	// make room and assign new stuff
; 922  : 			_Traits::copy(_Myptr(), _Ptr, _Count);

  00042	83 7e 14 10	 cmp	 DWORD PTR [esi+20], 16	; 00000010H
  00046	72 04		 jb	 SHORT $LN11@assign@2
  00048	8b 06		 mov	 eax, DWORD PTR [esi]
  0004a	eb 02		 jmp	 SHORT $LN12@assign@2
$LN11@assign@2:
  0004c	8b c6		 mov	 eax, esi
$LN12@assign@2:
  0004e	57		 push	 edi
  0004f	53		 push	 ebx
  00050	50		 push	 eax
  00051	e8 00 00 00 00	 call	 _memcpy
  00056	83 c4 0c	 add	 esp, 12			; 0000000cH

; 923  : 			_Eos(_Count);

  00059	83 7e 14 10	 cmp	 DWORD PTR [esi+20], 16	; 00000010H
  0005d	89 7e 10	 mov	 DWORD PTR [esi+16], edi
  00060	72 04		 jb	 SHORT $LN19@assign@2
  00062	8b 06		 mov	 eax, DWORD PTR [esi]
  00064	eb 02		 jmp	 SHORT $LN20@assign@2
$LN19@assign@2:
  00066	8b c6		 mov	 eax, esi
$LN20@assign@2:
  00068	c6 04 38 00	 mov	 BYTE PTR [eax+edi], 0
$LN21@assign@2:

; 924  : 			}
; 925  : 		return (*this);

  0006c	8b c6		 mov	 eax, esi
  0006e	5f		 pop	 edi
$LN3@assign@2:
  0006f	5e		 pop	 esi
  00070	5b		 pop	 ebx

; 926  : 		}

  00071	5d		 pop	 ebp
  00072	c2 08 00	 ret	 8
?assign@?$basic_string@DU?$char_traits@D@std@@V?$allocator@D@2@@std@@QAEAAV12@PBDI@Z ENDP ; std::basic_string<char,std::char_traits<char>,std::allocator<char> >::assign
_TEXT	ENDS
PUBLIC	??$_Destroy@V?$basic_string@DU?$char_traits@D@std@@V?$allocator@D@2@@std@@@std@@YAXPAV?$basic_string@DU?$char_traits@D@std@@V?$allocator@D@2@@0@@Z ; std::_Destroy<std::basic_string<char,std::char_traits<char>,std::allocator<char> > >
; Function compile flags: /Ogsp
; File c:\program files (x86)\microsoft visual studio 10.0\vc\include\xmemory
;	COMDAT ??$_Destroy@V?$basic_string@DU?$char_traits@D@std@@V?$allocator@D@2@@std@@@std@@YAXPAV?$basic_string@DU?$char_traits@D@std@@V?$allocator@D@2@@0@@Z
_TEXT	SEGMENT
__Ptr$ = 8						; size = 4
??$_Destroy@V?$basic_string@DU?$char_traits@D@std@@V?$allocator@D@2@@std@@@std@@YAXPAV?$basic_string@DU?$char_traits@D@std@@V?$allocator@D@2@@0@@Z PROC ; std::_Destroy<std::basic_string<char,std::char_traits<char>,std::allocator<char> > >, COMDAT

; 62   : 	{	// destroy object at _Ptr

  00000	55		 push	 ebp
  00001	8b ec		 mov	 ebp, esp

; 63   : 	_Ptr->~_Ty();

  00003	8b 4d 08	 mov	 ecx, DWORD PTR __Ptr$[ebp]
  00006	6a 00		 push	 0
  00008	6a 01		 push	 1
  0000a	e8 00 00 00 00	 call	 ?_Tidy@?$basic_string@DU?$char_traits@D@std@@V?$allocator@D@2@@std@@QAEX_NI@Z ; std::basic_string<char,std::char_traits<char>,std::allocator<char> >::_Tidy

; 64   : 	}

  0000f	5d		 pop	 ebp
  00010	c3		 ret	 0
??$_Destroy@V?$basic_string@DU?$char_traits@D@std@@V?$allocator@D@2@@std@@@std@@YAXPAV?$basic_string@DU?$char_traits@D@std@@V?$allocator@D@2@@0@@Z ENDP ; std::_Destroy<std::basic_string<char,std::char_traits<char>,std::allocator<char> > >
_TEXT	ENDS
PUBLIC	??_7GameOptionSettingKeyTab@@6B@		; GameOptionSettingKeyTab::`vftable'
PUBLIC	??0GameOptionSettingKeyTab@@QAE@XZ		; GameOptionSettingKeyTab::GameOptionSettingKeyTab
PUBLIC	??_R4GameOptionSettingKeyTab@@6B@		; GameOptionSettingKeyTab::`RTTI Complete Object Locator'
PUBLIC	??_R0?AVGameOptionSettingKeyTab@@@8		; GameOptionSettingKeyTab `RTTI Type Descriptor'
PUBLIC	??_R3GameOptionSettingKeyTab@@8			; GameOptionSettingKeyTab::`RTTI Class Hierarchy Descriptor'
PUBLIC	??_R2GameOptionSettingKeyTab@@8			; GameOptionSettingKeyTab::`RTTI Base Class Array'
PUBLIC	??_R1A@?0A@EA@GameOptionSettingKeyTab@@8	; GameOptionSettingKeyTab::`RTTI Base Class Descriptor at (0,-1,0,64)'
EXTRN	??_EGameOptionSettingKeyTab@@UAEPAXI@Z:PROC	; GameOptionSettingKeyTab::`vector deleting destructor'
;	COMDAT ??_R1A@?0A@EA@GameOptionSettingKeyTab@@8
rdata$r	SEGMENT
??_R1A@?0A@EA@GameOptionSettingKeyTab@@8 DD FLAT:??_R0?AVGameOptionSettingKeyTab@@@8 ; GameOptionSettingKeyTab::`RTTI Base Class Descriptor at (0,-1,0,64)'
	DD	01H
	DD	00H
	DD	0ffffffffH
	DD	00H
	DD	040H
	DD	FLAT:??_R3GameOptionSettingKeyTab@@8
rdata$r	ENDS
;	COMDAT ??_R2GameOptionSettingKeyTab@@8
rdata$r	SEGMENT
??_R2GameOptionSettingKeyTab@@8 DD FLAT:??_R1A@?0A@EA@GameOptionSettingKeyTab@@8 ; GameOptionSettingKeyTab::`RTTI Base Class Array'
	DD	FLAT:??_R1A@?0A@EA@ioWnd@@8
rdata$r	ENDS
;	COMDAT ??_R3GameOptionSettingKeyTab@@8
rdata$r	SEGMENT
??_R3GameOptionSettingKeyTab@@8 DD 00H			; GameOptionSettingKeyTab::`RTTI Class Hierarchy Descriptor'
	DD	00H
	DD	02H
	DD	FLAT:??_R2GameOptionSettingKeyTab@@8
rdata$r	ENDS
;	COMDAT ??_R0?AVGameOptionSettingKeyTab@@@8
_DATA	SEGMENT
??_R0?AVGameOptionSettingKeyTab@@@8 DD FLAT:??_7type_info@@6B@ ; GameOptionSettingKeyTab `RTTI Type Descriptor'
	DD	00H
	DB	'.?AVGameOptionSettingKeyTab@@', 00H
_DATA	ENDS
;	COMDAT ??_R4GameOptionSettingKeyTab@@6B@
rdata$r	SEGMENT
??_R4GameOptionSettingKeyTab@@6B@ DD 00H		; GameOptionSettingKeyTab::`RTTI Complete Object Locator'
	DD	00H
	DD	00H
	DD	FLAT:??_R0?AVGameOptionSettingKeyTab@@@8
	DD	FLAT:??_R3GameOptionSettingKeyTab@@8
rdata$r	ENDS
;	COMDAT ??_7GameOptionSettingKeyTab@@6B@
CONST	SEGMENT
??_7GameOptionSettingKeyTab@@6B@ DD FLAT:??_R4GameOptionSettingKeyTab@@6B@ ; GameOptionSettingKeyTab::`vftable'
	DD	FLAT:?AddRenderFrame@ioWnd@@UAEXABVioHashString@@PAVioUIRenderFrame@@@Z
	DD	FLAT:?AddRenderImage@ioWnd@@UAEXABVioHashString@@PAVioUIRenderImage@@@Z
	DD	FLAT:?AddTooltipHelp@ioWnd@@UAEXABVioHashString@@00@Z
	DD	FLAT:?ParseExtraInfo@ioWnd@@UAEXAAVioXMLElement@@@Z
	DD	FLAT:?AddNamedRenderImage@ioWnd@@UAEXABVioHashString@@PAVioUIRenderImage@@@Z
	DD	FLAT:?RemoveNamedRenderImage@ioWnd@@UAEXABVioHashString@@@Z
	DD	FLAT:?GetNamedRenderImage@ioWnd@@UBEPAVioUIRenderImage@@ABVioHashString@@@Z
	DD	FLAT:?SetWindowAlpha@ioWnd@@UAEXH@Z
	DD	FLAT:?SetActive@ioWnd@@UAEXXZ
	DD	FLAT:?SetInActive@ioWnd@@UAEXXZ
	DD	FLAT:?ClearElementImageList@ioWnd@@UAEXXZ
	DD	FLAT:?SetSize@ioWnd@@UAEXHH@Z
	DD	FLAT:?SetPositionToDefault@ioWnd@@UAEXHH_N0@Z
	DD	FLAT:?IsNeedProcess@ioWnd@@UBE_NXZ
	DD	FLAT:?IsCanMouseReaction@ioWnd@@UBE_NXZ
	DD	FLAT:?AddChild@ioWnd@@UAEXPAV1@@Z
	DD	FLAT:?DeleteChild@ioWnd@@UAEXK@Z
	DD	FLAT:?DeleteAllChild@ioWnd@@UAEXXZ
	DD	FLAT:?OnRenderShowAndHide@ioWnd@@MAE_NXZ
	DD	FLAT:?OnRenderShowAndHideByDefault@ioWnd@@MAE_NK@Z
	DD	FLAT:?OnRenderShowAndHideByTop@ioWnd@@MAE_NK@Z
	DD	FLAT:?OnRenderShowAndHideByDown@ioWnd@@MAE_NK@Z
	DD	FLAT:?OnRender@ioWnd@@MAEXXZ
	DD	FLAT:?OnRenderAfterChild@ioWnd@@MAEXXZ
	DD	FLAT:?OnProcess@ioWnd@@MAEXM@Z
	DD	FLAT:?OnMouseProcess@ioWnd@@MAEXABVioMouse@@@Z
	DD	FLAT:?CheckFrameReSize@ioWnd@@MAEXHHHH@Z
	DD	FLAT:?RenderImageList@ioWnd@@MAEXHHW4UIRenderType@@@Z
	DD	FLAT:?iwm_create@ioWnd@@UAEXXZ
	DD	FLAT:?iwm_destroy@ioWnd@@UAEXXZ
	DD	FLAT:?iwm_lbuttondown@ioWnd@@UAEXABVioMouse@@@Z
	DD	FLAT:?iwm_lbuttonup@ioWnd@@UAEXABVioMouse@@@Z
	DD	FLAT:?iwm_lbuttonDBLCLK@ioWnd@@UAEXABVioMouse@@@Z
	DD	FLAT:?iwm_rbuttondown@ioWnd@@UAEXABVioMouse@@@Z
	DD	FLAT:?iwm_rbuttonup@ioWnd@@UAEXABVioMouse@@@Z
	DD	FLAT:?iwm_command@GameOptionSettingKeyTab@@UAEXPAVioWnd@@HK@Z
	DD	FLAT:?iwm_mouseover@ioWnd@@UAEXABVioMouse@@@Z
	DD	FLAT:?iwm_mousemove@ioWnd@@UAEXABVioMouse@@@Z
	DD	FLAT:?iwm_mouseleave@ioWnd@@UAEXABVioMouse@@@Z
	DD	FLAT:?iwm_vscroll@GameOptionSettingKeyTab@@UAEXKH@Z
	DD	FLAT:?iwm_wheel@GameOptionSettingKeyTab@@UAEXH@Z
	DD	FLAT:?iwm_show@GameOptionSettingKeyTab@@UAEXXZ
	DD	FLAT:?iwm_hide@GameOptionSettingKeyTab@@UAEXXZ
	DD	FLAT:?iwm_esc@ioWnd@@UAE_NXZ
	DD	FLAT:?iwm_spacebar@ioWnd@@UAE_NXZ
	DD	FLAT:?iwm_gototop@ioWnd@@UAEXXZ
	DD	FLAT:?iwm_dragenter@ioWnd@@UAE?AW4IWDropEffect@@PAVioDragItem@@ABVioMouse@@@Z
	DD	FLAT:?iwm_dragover@ioWnd@@UAE?AW4IWDropEffect@@PAVioDragItem@@ABVioMouse@@@Z
	DD	FLAT:?iwm_dragleave@ioWnd@@UAEXXZ
	DD	FLAT:?iwm_dropitem@ioWnd@@UAE_NPAVioDragItem@@ABVioMouse@@PAV1@@Z
	DD	FLAT:?iwm_dropdone@ioWnd@@UAEXPAVioDragItem@@PAV1@_N@Z
	DD	FLAT:?IsEXType@ioWnd@@UBE_NXZ
	DD	FLAT:?GetWndType@ioWnd@@UBEKXZ
	DD	FLAT:?RenderWnd@ioWnd@@UAEXXZ
	DD	FLAT:?SetIDEX@ioWnd@@UAEXAAK_N@Z
	DD	FLAT:?ParseXML@ioWnd@@UAEXAAVioXMLElement@@@Z
	DD	FLAT:?GetHeaderFileName@ioWnd@@UAEPBDXZ
	DD	FLAT:?GetTemplateName@ioWnd@@UAEPBDXZ
	DD	FLAT:?GetDefClassName@ioWnd@@UBEPBDXZ
	DD	FLAT:?_Clone@ioWnd@@UAEPAV1@XZ
	DD	FLAT:?Copy@ioWnd@@UAEXPAV1@@Z
	DD	FLAT:?Save@ioWnd@@UAE_NAAVioXMLElement@@@Z
	DD	FLAT:?SetSaveData@ioWnd@@UAEXAAVioXMLElement@@@Z
	DD	FLAT:?SetPosX@ioWnd@@UAEXH@Z
	DD	FLAT:?SetPosY@ioWnd@@UAEXH@Z
	DD	FLAT:?SetWidth@ioWnd@@UAEXH@Z
	DD	FLAT:?SetHeight@ioWnd@@UAEXH@Z
	DD	FLAT:?GetNumFixedRenderFrame@ioWnd@@UBEHXZ
	DD	FLAT:?GetFixedRenderFrameType@ioWnd@@UAEPBDH@Z
	DD	FLAT:?GetRenderFrame@ioWnd@@UAEPAPAVioUIRenderElement@@PBD@Z
	DD	FLAT:?GetNumFixedRenderImage@ioWnd@@UBEHXZ
	DD	FLAT:?GetFixedRenderImageType@ioWnd@@UAEPBDH@Z
	DD	FLAT:?GetRenderImage@ioWnd@@UAEPAPAVioUIRenderElement@@PBD@Z
	DD	FLAT:?AddEffect@ioWnd@@UAEXABVioHashString@@PAVioUI3DEffectRender@@@Z
	DD	FLAT:?GetEffect@ioWnd@@UAEPAVioUI3DEffectRender@@VioHashString@@@Z
	DD	FLAT:??_EGameOptionSettingKeyTab@@UAEPAXI@Z
CONST	ENDS
;	COMDAT xdata$x
xdata$x	SEGMENT
__unwindtable$??0GameOptionSettingKeyTab@@QAE@XZ DD 0ffffffffH
	DD	FLAT:__unwindfunclet$??0GameOptionSettingKeyTab@@QAE@XZ$0
	DD	00H
	DD	FLAT:__unwindfunclet$??0GameOptionSettingKeyTab@@QAE@XZ$1
	DD	01H
	DD	FLAT:__unwindfunclet$??0GameOptionSettingKeyTab@@QAE@XZ$2
__ehfuncinfo$??0GameOptionSettingKeyTab@@QAE@XZ DD 019930522H
	DD	03H
	DD	FLAT:__unwindtable$??0GameOptionSettingKeyTab@@QAE@XZ
	DD	2 DUP(00H)
	DD	2 DUP(00H)
	DD	00H
	DD	01H
; Function compile flags: /Ogsp
; File d:\lost saga for developer\youtube\tutorial\source\src\lsclient\gui\gameoptionsettingtab.cpp
xdata$x	ENDS
;	COMDAT ??0GameOptionSettingKeyTab@@QAE@XZ
_TEXT	SEGMENT
_this$ = -20						; size = 4
$T553420 = -16						; size = 4
__$EHRec$ = -12						; size = 12
??0GameOptionSettingKeyTab@@QAE@XZ PROC			; GameOptionSettingKeyTab::GameOptionSettingKeyTab, COMDAT
; _this$ = ecx

; 1038 : {

  00000	6a 08		 push	 8
  00002	b8 00 00 00 00	 mov	 eax, __ehhandler$??0GameOptionSettingKeyTab@@QAE@XZ
  00007	e8 00 00 00 00	 call	 __EH_prolog3
  0000c	8b f1		 mov	 esi, ecx
  0000e	89 75 ec	 mov	 DWORD PTR _this$[ebp], esi
  00011	ff 15 00 00 00
	00		 call	 DWORD PTR __imp_??0ioWnd@@QAE@XZ
  00017	83 65 fc 00	 and	 DWORD PTR __$EHRec$[ebp+8], 0
  0001b	8d 8e 64 01 00
	00		 lea	 ecx, DWORD PTR [esi+356]
  00021	c7 06 00 00 00
	00		 mov	 DWORD PTR [esi], OFFSET ??_7GameOptionSettingKeyTab@@6B@
  00027	e8 00 00 00 00	 call	 ??0CKeyInfo@@QAE@XZ	; CKeyInfo::CKeyInfo
  0002c	33 c0		 xor	 eax, eax
  0002e	89 86 90 01 00
	00		 mov	 DWORD PTR [esi+400], eax
  00034	89 86 94 01 00
	00		 mov	 DWORD PTR [esi+404], eax
  0003a	89 86 98 01 00
	00		 mov	 DWORD PTR [esi+408], eax

; 1039 : 	m_eSelectKeyType = CKeyInfo::KTA_NONE;

  00040	83 8e 8c 01 00
	00 ff		 or	 DWORD PTR [esi+396], -1

; 1040 : 	m_iCurPage = 0;
; 1041 : 	m_vWholeItemType.reserve(SettingKeyItemWnd::IT_MAX);

  00047	6a 58		 push	 88			; 00000058H
  00049	8d 8e 90 01 00
	00		 lea	 ecx, DWORD PTR [esi+400]
  0004f	c6 45 fc 02	 mov	 BYTE PTR __$EHRec$[ebp+8], 2
  00053	89 86 60 01 00
	00		 mov	 DWORD PTR [esi+352], eax
  00059	e8 00 00 00 00	 call	 ?reserve@?$vector@W4ItemType@SettingKeyItemWnd@@V?$allocator@W4ItemType@SettingKeyItemWnd@@@std@@@std@@QAEXI@Z ; std::vector<enum SettingKeyItemWnd::ItemType,std::allocator<enum SettingKeyItemWnd::ItemType> >::reserve

; 1042 : 	m_KeyInfo.Load();

  0005e	8d 8e 64 01 00
	00		 lea	 ecx, DWORD PTR [esi+356]
  00064	e8 00 00 00 00	 call	 ?Load@CKeyInfo@@QAEXXZ	; CKeyInfo::Load

; 1043 : 
; 1044 : 	for (int i = 0; i < SettingKeyItemWnd::IT_MAX ; i++)

  00069	33 db		 xor	 ebx, ebx
$LL3@GameOption@4:

; 1045 : 	{
; 1046 : 		m_vWholeItemType.push_back((SettingKeyItemWnd::ItemType)i);

  0006b	8d 45 f0	 lea	 eax, DWORD PTR $T553420[ebp]
  0006e	50		 push	 eax
  0006f	8d 8e 90 01 00
	00		 lea	 ecx, DWORD PTR [esi+400]
  00075	89 5d f0	 mov	 DWORD PTR $T553420[ebp], ebx
  00078	e8 00 00 00 00	 call	 ?push_back@?$vector@W4ItemType@SettingKeyItemWnd@@V?$allocator@W4ItemType@SettingKeyItemWnd@@@std@@@std@@QAEX$$QAW4ItemType@SettingKeyItemWnd@@@Z ; std::vector<enum SettingKeyItemWnd::ItemType,std::allocator<enum SettingKeyItemWnd::ItemType> >::push_back
  0007d	43		 inc	 ebx
  0007e	83 fb 58	 cmp	 ebx, 88			; 00000058H
  00081	7c e8		 jl	 SHORT $LL3@GameOption@4

; 1047 : 	}
; 1048 : }

  00083	8b c6		 mov	 eax, esi
  00085	e8 00 00 00 00	 call	 __EH_epilog3
  0008a	c3		 ret	 0
_TEXT	ENDS
;	COMDAT text$x
text$x	SEGMENT
__unwindfunclet$??0GameOptionSettingKeyTab@@QAE@XZ$0:
  00000	8b 4d ec	 mov	 ecx, DWORD PTR _this$[ebp]
  00003	ff 25 00 00 00
	00		 jmp	 DWORD PTR __imp_??1ioWnd@@UAE@XZ
__unwindfunclet$??0GameOptionSettingKeyTab@@QAE@XZ$1:
  00009	8b 4d ec	 mov	 ecx, DWORD PTR _this$[ebp]
  0000c	81 c1 64 01 00
	00		 add	 ecx, 356		; 00000164H
  00012	e9 00 00 00 00	 jmp	 ??1CKeyInfo@@UAE@XZ	; CKeyInfo::~CKeyInfo
__unwindfunclet$??0GameOptionSettingKeyTab@@QAE@XZ$2:
  00017	8b 4d ec	 mov	 ecx, DWORD PTR _this$[ebp]
  0001a	81 c1 90 01 00
	00		 add	 ecx, 400		; 00000190H
  00020	e9 00 00 00 00	 jmp	 ??1?$vector@W4ItemType@SettingKeyItemWnd@@V?$allocator@W4ItemType@SettingKeyItemWnd@@@std@@@std@@QAE@XZ ; std::vector<enum SettingKeyItemWnd::ItemType,std::allocator<enum SettingKeyItemWnd::ItemType> >::~vector<enum SettingKeyItemWnd::ItemType,std::allocator<enum SettingKeyItemWnd::ItemType> >
__ehhandler$??0GameOptionSettingKeyTab@@QAE@XZ:
  00025	8b 54 24 08	 mov	 edx, DWORD PTR [esp+8]
  00029	8d 42 0c	 lea	 eax, DWORD PTR [edx+12]
  0002c	8b 4a e8	 mov	 ecx, DWORD PTR [edx-24]
  0002f	33 c8		 xor	 ecx, eax
  00031	e8 00 00 00 00	 call	 @__security_check_cookie@4
  00036	b8 00 00 00 00	 mov	 eax, OFFSET __ehfuncinfo$??0GameOptionSettingKeyTab@@QAE@XZ
  0003b	e9 00 00 00 00	 jmp	 ___CxxFrameHandler3
text$x	ENDS
??0GameOptionSettingKeyTab@@QAE@XZ ENDP			; GameOptionSettingKeyTab::GameOptionSettingKeyTab
PUBLIC	??1GameOptionSettingKeyTab@@UAE@XZ		; GameOptionSettingKeyTab::~GameOptionSettingKeyTab
;	COMDAT xdata$x
; File c:\program files (x86)\microsoft visual studio 10.0\vc\include\vector
xdata$x	SEGMENT
__unwindtable$??1GameOptionSettingKeyTab@@UAE@XZ DD 0ffffffffH
	DD	FLAT:__unwindfunclet$??1GameOptionSettingKeyTab@@UAE@XZ$0
	DD	00H
	DD	FLAT:__unwindfunclet$??1GameOptionSettingKeyTab@@UAE@XZ$1
__ehfuncinfo$??1GameOptionSettingKeyTab@@UAE@XZ DD 019930522H
	DD	02H
	DD	FLAT:__unwindtable$??1GameOptionSettingKeyTab@@UAE@XZ
	DD	2 DUP(00H)
	DD	2 DUP(00H)
	DD	00H
	DD	01H
; Function compile flags: /Ogsp
; File d:\lost saga for developer\youtube\tutorial\source\src\lsclient\gui\gameoptionsettingtab.cpp
xdata$x	ENDS
;	COMDAT ??1GameOptionSettingKeyTab@@UAE@XZ
_TEXT	SEGMENT
$T553523 = -20						; size = 4
_this$ = -16						; size = 4
__$EHRec$ = -12						; size = 12
??1GameOptionSettingKeyTab@@UAE@XZ PROC			; GameOptionSettingKeyTab::~GameOptionSettingKeyTab, COMDAT
; _this$ = ecx

; 1051 : {

  00000	6a 08		 push	 8
  00002	b8 00 00 00 00	 mov	 eax, __ehhandler$??1GameOptionSettingKeyTab@@UAE@XZ
  00007	e8 00 00 00 00	 call	 __EH_prolog3
  0000c	8b f1		 mov	 esi, ecx
  0000e	89 75 f0	 mov	 DWORD PTR _this$[ebp], esi
  00011	c7 06 00 00 00
	00		 mov	 DWORD PTR [esi], OFFSET ??_7GameOptionSettingKeyTab@@6B@

; 1052 : 	m_vWholeItemType.clear();

  00017	8b 86 94 01 00
	00		 mov	 eax, DWORD PTR [esi+404]
  0001d	8b 8e 90 01 00
	00		 mov	 ecx, DWORD PTR [esi+400]
  00023	50		 push	 eax
  00024	51		 push	 ecx
  00025	8d 45 ec	 lea	 eax, DWORD PTR $T553523[ebp]
  00028	50		 push	 eax
  00029	8d 8e 90 01 00
	00		 lea	 ecx, DWORD PTR [esi+400]
  0002f	c7 45 fc 01 00
	00 00		 mov	 DWORD PTR __$EHRec$[ebp+8], 1
  00036	e8 00 00 00 00	 call	 ?erase@?$vector@W4ItemType@SettingKeyItemWnd@@V?$allocator@W4ItemType@SettingKeyItemWnd@@@std@@@std@@QAE?AV?$_Vector_iterator@V?$_Vector_val@W4ItemType@SettingKeyItemWnd@@V?$allocator@W4ItemType@SettingKeyItemWnd@@@std@@@std@@@2@V?$_Vector_const_iterator@V?$_Vector_val@W4ItemType@SettingKeyItemWnd@@V?$allocator@W4ItemType@SettingKeyItemWnd@@@std@@@std@@@2@0@Z ; std::vector<enum SettingKeyItemWnd::ItemType,std::allocator<enum SettingKeyItemWnd::ItemType> >::erase

; 1053 : }

  0003b	8d 8e 90 01 00
	00		 lea	 ecx, DWORD PTR [esi+400]
  00041	e8 00 00 00 00	 call	 ?_Tidy@?$vector@W4ItemType@SettingKeyItemWnd@@V?$allocator@W4ItemType@SettingKeyItemWnd@@@std@@@std@@IAEXXZ ; std::vector<enum SettingKeyItemWnd::ItemType,std::allocator<enum SettingKeyItemWnd::ItemType> >::_Tidy
  00046	8d 8e 64 01 00
	00		 lea	 ecx, DWORD PTR [esi+356]
  0004c	c6 45 fc 00	 mov	 BYTE PTR __$EHRec$[ebp+8], 0
  00050	e8 00 00 00 00	 call	 ??1CKeyInfo@@UAE@XZ	; CKeyInfo::~CKeyInfo
  00055	83 4d fc ff	 or	 DWORD PTR __$EHRec$[ebp+8], -1
  00059	8b ce		 mov	 ecx, esi
  0005b	ff 15 00 00 00
	00		 call	 DWORD PTR __imp_??1ioWnd@@UAE@XZ
  00061	e8 00 00 00 00	 call	 __EH_epilog3
  00066	c3		 ret	 0
_TEXT	ENDS
;	COMDAT text$x
text$x	SEGMENT
__unwindfunclet$??1GameOptionSettingKeyTab@@UAE@XZ$0:
  00000	8b 4d f0	 mov	 ecx, DWORD PTR _this$[ebp]
  00003	ff 25 00 00 00
	00		 jmp	 DWORD PTR __imp_??1ioWnd@@UAE@XZ
__unwindfunclet$??1GameOptionSettingKeyTab@@UAE@XZ$1:
  00009	8b 4d f0	 mov	 ecx, DWORD PTR _this$[ebp]
  0000c	81 c1 64 01 00
	00		 add	 ecx, 356		; 00000164H
  00012	e9 00 00 00 00	 jmp	 ??1CKeyInfo@@UAE@XZ	; CKeyInfo::~CKeyInfo
__ehhandler$??1GameOptionSettingKeyTab@@UAE@XZ:
  00017	8b 54 24 08	 mov	 edx, DWORD PTR [esp+8]
  0001b	8d 42 0c	 lea	 eax, DWORD PTR [edx+12]
  0001e	8b 4a e8	 mov	 ecx, DWORD PTR [edx-24]
  00021	33 c8		 xor	 ecx, eax
  00023	e8 00 00 00 00	 call	 @__security_check_cookie@4
  00028	b8 00 00 00 00	 mov	 eax, OFFSET __ehfuncinfo$??1GameOptionSettingKeyTab@@UAE@XZ
  0002d	e9 00 00 00 00	 jmp	 ___CxxFrameHandler3
text$x	ENDS
??1GameOptionSettingKeyTab@@UAE@XZ ENDP			; GameOptionSettingKeyTab::~GameOptionSettingKeyTab
PUBLIC	?assign@?$basic_string@DU?$char_traits@D@std@@V?$allocator@D@2@@std@@QAEAAV12@ABV12@@Z ; std::basic_string<char,std::char_traits<char>,std::allocator<char> >::assign
; Function compile flags: /Ogsp
; File c:\program files (x86)\microsoft visual studio 10.0\vc\include\xstring
;	COMDAT ?assign@?$basic_string@DU?$char_traits@D@std@@V?$allocator@D@2@@std@@QAEAAV12@ABV12@@Z
_TEXT	SEGMENT
__Right$ = 8						; size = 4
?assign@?$basic_string@DU?$char_traits@D@std@@V?$allocator@D@2@@std@@QAEAAV12@ABV12@@Z PROC ; std::basic_string<char,std::char_traits<char>,std::allocator<char> >::assign, COMDAT
; _this$ = ecx

; 887  : 		{	// assign _Right

  00000	55		 push	 ebp
  00001	8b ec		 mov	 ebp, esp

; 888  : 		return (assign(_Right, 0, npos));

  00003	6a ff		 push	 -1
  00005	6a 00		 push	 0
  00007	ff 75 08	 push	 DWORD PTR __Right$[ebp]
  0000a	e8 00 00 00 00	 call	 ?assign@?$basic_string@DU?$char_traits@D@std@@V?$allocator@D@2@@std@@QAEAAV12@ABV12@II@Z ; std::basic_string<char,std::char_traits<char>,std::allocator<char> >::assign

; 889  : 		}

  0000f	5d		 pop	 ebp
  00010	c2 04 00	 ret	 4
?assign@?$basic_string@DU?$char_traits@D@std@@V?$allocator@D@2@@std@@QAEAAV12@ABV12@@Z ENDP ; std::basic_string<char,std::char_traits<char>,std::allocator<char> >::assign
_TEXT	ENDS
PUBLIC	?assign@?$basic_string@DU?$char_traits@D@std@@V?$allocator@D@2@@std@@QAEAAV12@PBD@Z ; std::basic_string<char,std::char_traits<char>,std::allocator<char> >::assign
; Function compile flags: /Ogsp
;	COMDAT ?assign@?$basic_string@DU?$char_traits@D@std@@V?$allocator@D@2@@std@@QAEAAV12@PBD@Z
_TEXT	SEGMENT
__Ptr$ = 8						; size = 4
?assign@?$basic_string@DU?$char_traits@D@std@@V?$allocator@D@2@@std@@QAEAAV12@PBD@Z PROC ; std::basic_string<char,std::char_traits<char>,std::allocator<char> >::assign, COMDAT
; _this$ = ecx

; 929  : 		{	// assign [_Ptr, <null>)

  00000	55		 push	 ebp
  00001	8b ec		 mov	 ebp, esp

; 930  : 		_DEBUG_POINTER(_Ptr);
; 931  : 		return (assign(_Ptr, _Traits::length(_Ptr)));

  00003	8b 45 08	 mov	 eax, DWORD PTR __Ptr$[ebp]
  00006	8d 50 01	 lea	 edx, DWORD PTR [eax+1]
  00009	53		 push	 ebx
$LL5@assign@3:
  0000a	8a 18		 mov	 bl, BYTE PTR [eax]
  0000c	40		 inc	 eax
  0000d	84 db		 test	 bl, bl
  0000f	75 f9		 jne	 SHORT $LL5@assign@3
  00011	2b c2		 sub	 eax, edx
  00013	50		 push	 eax
  00014	ff 75 08	 push	 DWORD PTR __Ptr$[ebp]
  00017	e8 00 00 00 00	 call	 ?assign@?$basic_string@DU?$char_traits@D@std@@V?$allocator@D@2@@std@@QAEAAV12@PBDI@Z ; std::basic_string<char,std::char_traits<char>,std::allocator<char> >::assign
  0001c	5b		 pop	 ebx

; 932  : 		}

  0001d	5d		 pop	 ebp
  0001e	c2 04 00	 ret	 4
?assign@?$basic_string@DU?$char_traits@D@std@@V?$allocator@D@2@@std@@QAEAAV12@PBD@Z ENDP ; std::basic_string<char,std::char_traits<char>,std::allocator<char> >::assign
_TEXT	ENDS
PUBLIC	?destroy@?$allocator@V?$basic_string@DU?$char_traits@D@std@@V?$allocator@D@2@@std@@@std@@QAEXPAV?$basic_string@DU?$char_traits@D@std@@V?$allocator@D@2@@2@@Z ; std::allocator<std::basic_string<char,std::char_traits<char>,std::allocator<char> > >::destroy
; Function compile flags: /Ogsp
; File c:\program files (x86)\microsoft visual studio 10.0\vc\include\xmemory
;	COMDAT ?destroy@?$allocator@V?$basic_string@DU?$char_traits@D@std@@V?$allocator@D@2@@std@@@std@@QAEXPAV?$basic_string@DU?$char_traits@D@std@@V?$allocator@D@2@@2@@Z
_TEXT	SEGMENT
__Ptr$ = 8						; size = 4
?destroy@?$allocator@V?$basic_string@DU?$char_traits@D@std@@V?$allocator@D@2@@std@@@std@@QAEXPAV?$basic_string@DU?$char_traits@D@std@@V?$allocator@D@2@@2@@Z PROC ; std::allocator<std::basic_string<char,std::char_traits<char>,std::allocator<char> > >::destroy, COMDAT
; _this$ = ecx

; 212  : 		{	// destroy object at _Ptr

  00000	55		 push	 ebp
  00001	8b ec		 mov	 ebp, esp

; 213  : 		_Destroy(_Ptr);

  00003	8b 4d 08	 mov	 ecx, DWORD PTR __Ptr$[ebp]
  00006	6a 00		 push	 0
  00008	6a 01		 push	 1
  0000a	e8 00 00 00 00	 call	 ?_Tidy@?$basic_string@DU?$char_traits@D@std@@V?$allocator@D@2@@std@@QAEX_NI@Z ; std::basic_string<char,std::char_traits<char>,std::allocator<char> >::_Tidy

; 214  : 		}

  0000f	5d		 pop	 ebp
  00010	c2 04 00	 ret	 4
?destroy@?$allocator@V?$basic_string@DU?$char_traits@D@std@@V?$allocator@D@2@@std@@@std@@QAEXPAV?$basic_string@DU?$char_traits@D@std@@V?$allocator@D@2@@2@@Z ENDP ; std::allocator<std::basic_string<char,std::char_traits<char>,std::allocator<char> > >::destroy
; Function compile flags: /Ogsp
_TEXT	ENDS
;	COMDAT ??_GGameOptionSettingKeyTab@@UAEPAXI@Z
_TEXT	SEGMENT
___flags$ = 8						; size = 4
??_GGameOptionSettingKeyTab@@UAEPAXI@Z PROC		; GameOptionSettingKeyTab::`scalar deleting destructor', COMDAT
; _this$ = ecx
  00000	55		 push	 ebp
  00001	8b ec		 mov	 ebp, esp
  00003	56		 push	 esi
  00004	8b f1		 mov	 esi, ecx
  00006	e8 00 00 00 00	 call	 ??1GameOptionSettingKeyTab@@UAE@XZ ; GameOptionSettingKeyTab::~GameOptionSettingKeyTab
  0000b	f6 45 08 01	 test	 BYTE PTR ___flags$[ebp], 1
  0000f	74 07		 je	 SHORT $LN1@scalar@13
  00011	56		 push	 esi
  00012	e8 00 00 00 00	 call	 ??3@YAXPAX@Z		; operator delete
  00017	59		 pop	 ecx
$LN1@scalar@13:
  00018	8b c6		 mov	 eax, esi
  0001a	5e		 pop	 esi
  0001b	5d		 pop	 ebp
  0001c	c2 04 00	 ret	 4
??_GGameOptionSettingKeyTab@@UAEPAXI@Z ENDP		; GameOptionSettingKeyTab::`scalar deleting destructor'
_TEXT	ENDS
PUBLIC	??0?$basic_string@DU?$char_traits@D@std@@V?$allocator@D@2@@std@@QAE@PBD@Z ; std::basic_string<char,std::char_traits<char>,std::allocator<char> >::basic_string<char,std::char_traits<char>,std::allocator<char> >
; Function compile flags: /Ogsp
; File c:\program files (x86)\microsoft visual studio 10.0\vc\include\xstring
;	COMDAT ??0?$basic_string@DU?$char_traits@D@std@@V?$allocator@D@2@@std@@QAE@PBD@Z
_TEXT	SEGMENT
__Ptr$ = 8						; size = 4
??0?$basic_string@DU?$char_traits@D@std@@V?$allocator@D@2@@std@@QAE@PBD@Z PROC ; std::basic_string<char,std::char_traits<char>,std::allocator<char> >::basic_string<char,std::char_traits<char>,std::allocator<char> >, COMDAT
; _this$ = ecx

; 592  : 		{	// construct from [_Ptr, <null>)

  00000	55		 push	 ebp
  00001	8b ec		 mov	 ebp, esp
  00003	56		 push	 esi

; 593  : 		_Tidy();
; 594  : 		assign(_Ptr);

  00004	ff 75 08	 push	 DWORD PTR __Ptr$[ebp]
  00007	8b f1		 mov	 esi, ecx
  00009	83 66 10 00	 and	 DWORD PTR [esi+16], 0
  0000d	c7 46 14 0f 00
	00 00		 mov	 DWORD PTR [esi+20], 15	; 0000000fH
  00014	c6 06 00	 mov	 BYTE PTR [esi], 0
  00017	e8 00 00 00 00	 call	 ?assign@?$basic_string@DU?$char_traits@D@std@@V?$allocator@D@2@@std@@QAEAAV12@PBD@Z ; std::basic_string<char,std::char_traits<char>,std::allocator<char> >::assign

; 595  : 		}

  0001c	8b c6		 mov	 eax, esi
  0001e	5e		 pop	 esi
  0001f	5d		 pop	 ebp
  00020	c2 04 00	 ret	 4
??0?$basic_string@DU?$char_traits@D@std@@V?$allocator@D@2@@std@@QAE@PBD@Z ENDP ; std::basic_string<char,std::char_traits<char>,std::allocator<char> >::basic_string<char,std::char_traits<char>,std::allocator<char> >
_TEXT	ENDS
PUBLIC	??4?$basic_string@DU?$char_traits@D@std@@V?$allocator@D@2@@std@@QAEAAV01@ABV01@@Z ; std::basic_string<char,std::char_traits<char>,std::allocator<char> >::operator=
; Function compile flags: /Ogsp
;	COMDAT ??4?$basic_string@DU?$char_traits@D@std@@V?$allocator@D@2@@std@@QAEAAV01@ABV01@@Z
_TEXT	SEGMENT
__Right$ = 8						; size = 4
??4?$basic_string@DU?$char_traits@D@std@@V?$allocator@D@2@@std@@QAEAAV01@ABV01@@Z PROC ; std::basic_string<char,std::char_traits<char>,std::allocator<char> >::operator=, COMDAT
; _this$ = ecx

; 763  : 		{	// assign _Right

  00000	55		 push	 ebp
  00001	8b ec		 mov	 ebp, esp

; 764  : 		return (assign(_Right));

  00003	6a ff		 push	 -1
  00005	6a 00		 push	 0
  00007	ff 75 08	 push	 DWORD PTR __Right$[ebp]
  0000a	e8 00 00 00 00	 call	 ?assign@?$basic_string@DU?$char_traits@D@std@@V?$allocator@D@2@@std@@QAEAAV12@ABV12@II@Z ; std::basic_string<char,std::char_traits<char>,std::allocator<char> >::assign

; 765  : 		}

  0000f	5d		 pop	 ebp
  00010	c2 04 00	 ret	 4
??4?$basic_string@DU?$char_traits@D@std@@V?$allocator@D@2@@std@@QAEAAV01@ABV01@@Z ENDP ; std::basic_string<char,std::char_traits<char>,std::allocator<char> >::operator=
_TEXT	ENDS
PUBLIC	?assign@?$basic_string@DU?$char_traits@D@std@@V?$allocator@D@2@@std@@QAEAAV12@$$QAV12@@Z ; std::basic_string<char,std::char_traits<char>,std::allocator<char> >::assign
; Function compile flags: /Ogsp
;	COMDAT ?assign@?$basic_string@DU?$char_traits@D@std@@V?$allocator@D@2@@std@@QAEAAV12@$$QAV12@@Z
_TEXT	SEGMENT
__Right$ = 8						; size = 4
?assign@?$basic_string@DU?$char_traits@D@std@@V?$allocator@D@2@@std@@QAEAAV12@$$QAV12@@Z PROC ; std::basic_string<char,std::char_traits<char>,std::allocator<char> >::assign, COMDAT
; _this$ = ecx

; 713  : 		{	// assign by moving _Right

  00000	55		 push	 ebp
  00001	8b ec		 mov	 ebp, esp
  00003	56		 push	 esi

; 714  : 		if (this == &_Right)

  00004	8b 75 08	 mov	 esi, DWORD PTR __Right$[ebp]
  00007	57		 push	 edi
  00008	8b f9		 mov	 edi, ecx
  0000a	3b fe		 cmp	 edi, esi
  0000c	74 3c		 je	 SHORT $LN3@assign@4

; 715  : 			;
; 716  : 		else if (get_allocator() != _Right.get_allocator()
; 717  : 			&& this->_BUF_SIZE <= _Right._Myres)
; 718  : 			*this = _Right;
; 719  : 		else
; 720  : 			{	// not same, clear this and steal from _Right
; 721  : 			_Tidy(true);

  0000e	6a 00		 push	 0
  00010	6a 01		 push	 1
  00012	e8 00 00 00 00	 call	 ?_Tidy@?$basic_string@DU?$char_traits@D@std@@V?$allocator@D@2@@std@@QAEX_NI@Z ; std::basic_string<char,std::char_traits<char>,std::allocator<char> >::_Tidy

; 722  : 			if (_Right._Myres < this->_BUF_SIZE)

  00017	83 7e 14 10	 cmp	 DWORD PTR [esi+20], 16	; 00000010H
  0001b	73 12		 jae	 SHORT $LN2@assign@4

; 723  : 				_Traits::move(this->_Bx._Buf, _Right._Bx._Buf,
; 724  : 					_Right._Mysize + 1);

  0001d	8b 46 10	 mov	 eax, DWORD PTR [esi+16]
  00020	40		 inc	 eax
  00021	50		 push	 eax
  00022	56		 push	 esi
  00023	57		 push	 edi
  00024	ff 15 00 00 00
	00		 call	 DWORD PTR __imp__memmove
  0002a	83 c4 0c	 add	 esp, 12			; 0000000cH

; 725  : 			else

  0002d	eb 07		 jmp	 SHORT $LN1@assign@4
$LN2@assign@4:

; 726  : 				{	// copy pointer
; 727  : 				this->_Bx._Ptr = _Right._Bx._Ptr;

  0002f	8b 06		 mov	 eax, DWORD PTR [esi]
  00031	89 07		 mov	 DWORD PTR [edi], eax

; 728  : 				_Right._Bx._Ptr = 0;

  00033	83 26 00	 and	 DWORD PTR [esi], 0
$LN1@assign@4:

; 729  : 				}
; 730  : 			this->_Mysize = _Right._Mysize;

  00036	8b 46 10	 mov	 eax, DWORD PTR [esi+16]
  00039	89 47 10	 mov	 DWORD PTR [edi+16], eax

; 731  : 			this->_Myres = _Right._Myres;

  0003c	8b 46 14	 mov	 eax, DWORD PTR [esi+20]
  0003f	89 47 14	 mov	 DWORD PTR [edi+20], eax

; 732  : 
; 733  : 			_Right._Mysize = 0;

  00042	83 66 10 00	 and	 DWORD PTR [esi+16], 0

; 734  : 			_Right._Myres = 0;

  00046	83 66 14 00	 and	 DWORD PTR [esi+20], 0
$LN3@assign@4:

; 735  : 			}
; 736  : 		return (*this);

  0004a	8b c7		 mov	 eax, edi
  0004c	5f		 pop	 edi
  0004d	5e		 pop	 esi

; 737  : 		}

  0004e	5d		 pop	 ebp
  0004f	c2 04 00	 ret	 4
?assign@?$basic_string@DU?$char_traits@D@std@@V?$allocator@D@2@@std@@QAEAAV12@$$QAV12@@Z ENDP ; std::basic_string<char,std::char_traits<char>,std::allocator<char> >::assign
_TEXT	ENDS
PUBLIC	??$_Dest_val@V?$allocator@V?$basic_string@DU?$char_traits@D@std@@V?$allocator@D@2@@std@@@std@@V?$basic_string@DU?$char_traits@D@std@@V?$allocator@D@2@@2@@std@@YAXAAV?$allocator@V?$basic_string@DU?$char_traits@D@std@@V?$allocator@D@2@@std@@@0@PAV?$basic_string@DU?$char_traits@D@std@@V?$allocator@D@2@@0@@Z ; std::_Dest_val<std::allocator<std::basic_string<char,std::char_traits<char>,std::allocator<char> > >,std::basic_string<char,std::char_traits<char>,std::allocator<char> > >
; Function compile flags: /Ogsp
; File c:\program files (x86)\microsoft visual studio 10.0\vc\include\xmemory
;	COMDAT ??$_Dest_val@V?$allocator@V?$basic_string@DU?$char_traits@D@std@@V?$allocator@D@2@@std@@@std@@V?$basic_string@DU?$char_traits@D@std@@V?$allocator@D@2@@2@@std@@YAXAAV?$allocator@V?$basic_string@DU?$char_traits@D@std@@V?$allocator@D@2@@std@@@0@PAV?$basic_string@DU?$char_traits@D@std@@V?$allocator@D@2@@0@@Z
_TEXT	SEGMENT
__Alval$ = 8						; size = 4
__Pdest$ = 12						; size = 4
??$_Dest_val@V?$allocator@V?$basic_string@DU?$char_traits@D@std@@V?$allocator@D@2@@std@@@std@@V?$basic_string@DU?$char_traits@D@std@@V?$allocator@D@2@@2@@std@@YAXAAV?$allocator@V?$basic_string@DU?$char_traits@D@std@@V?$allocator@D@2@@std@@@0@PAV?$basic_string@DU?$char_traits@D@std@@V?$allocator@D@2@@0@@Z PROC ; std::_Dest_val<std::allocator<std::basic_string<char,std::char_traits<char>,std::allocator<char> > >,std::basic_string<char,std::char_traits<char>,std::allocator<char> > >, COMDAT

; 286  : 	{	// destroy using allocator

  00000	55		 push	 ebp
  00001	8b ec		 mov	 ebp, esp

; 287  : 	_Alval.destroy(_Pdest);

  00003	8b 4d 0c	 mov	 ecx, DWORD PTR __Pdest$[ebp]
  00006	6a 00		 push	 0
  00008	6a 01		 push	 1
  0000a	e8 00 00 00 00	 call	 ?_Tidy@?$basic_string@DU?$char_traits@D@std@@V?$allocator@D@2@@std@@QAEX_NI@Z ; std::basic_string<char,std::char_traits<char>,std::allocator<char> >::_Tidy

; 288  : 	}

  0000f	5d		 pop	 ebp
  00010	c3		 ret	 0
??$_Dest_val@V?$allocator@V?$basic_string@DU?$char_traits@D@std@@V?$allocator@D@2@@std@@@std@@V?$basic_string@DU?$char_traits@D@std@@V?$allocator@D@2@@2@@std@@YAXAAV?$allocator@V?$basic_string@DU?$char_traits@D@std@@V?$allocator@D@2@@std@@@0@PAV?$basic_string@DU?$char_traits@D@std@@V?$allocator@D@2@@0@@Z ENDP ; std::_Dest_val<std::allocator<std::basic_string<char,std::char_traits<char>,std::allocator<char> > >,std::basic_string<char,std::char_traits<char>,std::allocator<char> > >
_TEXT	ENDS
PUBLIC	??0?$basic_string@DU?$char_traits@D@std@@V?$allocator@D@2@@std@@QAE@$$QAV01@@Z ; std::basic_string<char,std::char_traits<char>,std::allocator<char> >::basic_string<char,std::char_traits<char>,std::allocator<char> >
; Function compile flags: /Ogsp
; File c:\program files (x86)\microsoft visual studio 10.0\vc\include\xstring
;	COMDAT ??0?$basic_string@DU?$char_traits@D@std@@V?$allocator@D@2@@std@@QAE@$$QAV01@@Z
_TEXT	SEGMENT
__Right$ = 8						; size = 4
??0?$basic_string@DU?$char_traits@D@std@@V?$allocator@D@2@@std@@QAE@$$QAV01@@Z PROC ; std::basic_string<char,std::char_traits<char>,std::allocator<char> >::basic_string<char,std::char_traits<char>,std::allocator<char> >, COMDAT
; _this$ = ecx

; 702  : 		{	// construct by moving _Right

  00000	55		 push	 ebp
  00001	8b ec		 mov	 ebp, esp
  00003	56		 push	 esi

; 703  : 		_Tidy();
; 704  : 		assign(_STD forward<_Myt>(_Right));

  00004	ff 75 08	 push	 DWORD PTR __Right$[ebp]
  00007	8b f1		 mov	 esi, ecx
  00009	83 66 10 00	 and	 DWORD PTR [esi+16], 0
  0000d	c7 46 14 0f 00
	00 00		 mov	 DWORD PTR [esi+20], 15	; 0000000fH
  00014	c6 06 00	 mov	 BYTE PTR [esi], 0
  00017	e8 00 00 00 00	 call	 ?assign@?$basic_string@DU?$char_traits@D@std@@V?$allocator@D@2@@std@@QAEAAV12@$$QAV12@@Z ; std::basic_string<char,std::char_traits<char>,std::allocator<char> >::assign

; 705  : 		}

  0001c	8b c6		 mov	 eax, esi
  0001e	5e		 pop	 esi
  0001f	5d		 pop	 ebp
  00020	c2 04 00	 ret	 4
??0?$basic_string@DU?$char_traits@D@std@@V?$allocator@D@2@@std@@QAE@$$QAV01@@Z ENDP ; std::basic_string<char,std::char_traits<char>,std::allocator<char> >::basic_string<char,std::char_traits<char>,std::allocator<char> >
_TEXT	ENDS
PUBLIC	??$_Destroy_range@V?$allocator@V?$basic_string@DU?$char_traits@D@std@@V?$allocator@D@2@@std@@@std@@@std@@YAXPAV?$basic_string@DU?$char_traits@D@std@@V?$allocator@D@2@@0@0AAV?$allocator@V?$basic_string@DU?$char_traits@D@std@@V?$allocator@D@2@@std@@@0@U_Nonscalar_ptr_iterator_tag@0@@Z ; std::_Destroy_range<std::allocator<std::basic_string<char,std::char_traits<char>,std::allocator<char> > > >
; Function compile flags: /Ogsp
; File c:\program files (x86)\microsoft visual studio 10.0\vc\include\xmemory
;	COMDAT ??$_Destroy_range@V?$allocator@V?$basic_string@DU?$char_traits@D@std@@V?$allocator@D@2@@std@@@std@@@std@@YAXPAV?$basic_string@DU?$char_traits@D@std@@V?$allocator@D@2@@0@0AAV?$allocator@V?$basic_string@DU?$char_traits@D@std@@V?$allocator@D@2@@std@@@0@U_Nonscalar_ptr_iterator_tag@0@@Z
_TEXT	SEGMENT
__First$ = 8						; size = 4
__Last$ = 12						; size = 4
__Al$ = 16						; size = 4
___formal$ = 20						; size = 1
??$_Destroy_range@V?$allocator@V?$basic_string@DU?$char_traits@D@std@@V?$allocator@D@2@@std@@@std@@@std@@YAXPAV?$basic_string@DU?$char_traits@D@std@@V?$allocator@D@2@@0@0AAV?$allocator@V?$basic_string@DU?$char_traits@D@std@@V?$allocator@D@2@@std@@@0@U_Nonscalar_ptr_iterator_tag@0@@Z PROC ; std::_Destroy_range<std::allocator<std::basic_string<char,std::char_traits<char>,std::allocator<char> > > >, COMDAT

; 95   : 	{	// destroy [_First, _Last), arbitrary type

  00000	55		 push	 ebp
  00001	8b ec		 mov	 ebp, esp
  00003	56		 push	 esi

; 96   : 	for (; _First != _Last; ++_First)

  00004	8b 75 08	 mov	 esi, DWORD PTR __First$[ebp]
  00007	eb 0e		 jmp	 SHORT $LN21@Destroy_ra
$LL3@Destroy_ra:

; 97   : 		_Dest_val(_Al, _First);

  00009	6a 00		 push	 0
  0000b	6a 01		 push	 1
  0000d	8b ce		 mov	 ecx, esi
  0000f	e8 00 00 00 00	 call	 ?_Tidy@?$basic_string@DU?$char_traits@D@std@@V?$allocator@D@2@@std@@QAEX_NI@Z ; std::basic_string<char,std::char_traits<char>,std::allocator<char> >::_Tidy
  00014	83 c6 1c	 add	 esi, 28			; 0000001cH
$LN21@Destroy_ra:

; 96   : 	for (; _First != _Last; ++_First)

  00017	3b 75 0c	 cmp	 esi, DWORD PTR __Last$[ebp]
  0001a	75 ed		 jne	 SHORT $LL3@Destroy_ra
  0001c	5e		 pop	 esi

; 98   : 	}

  0001d	5d		 pop	 ebp
  0001e	c3		 ret	 0
??$_Destroy_range@V?$allocator@V?$basic_string@DU?$char_traits@D@std@@V?$allocator@D@2@@std@@@std@@@std@@YAXPAV?$basic_string@DU?$char_traits@D@std@@V?$allocator@D@2@@0@0AAV?$allocator@V?$basic_string@DU?$char_traits@D@std@@V?$allocator@D@2@@std@@@0@U_Nonscalar_ptr_iterator_tag@0@@Z ENDP ; std::_Destroy_range<std::allocator<std::basic_string<char,std::char_traits<char>,std::allocator<char> > > >
_TEXT	ENDS
PUBLIC	?construct@?$allocator@V?$basic_string@DU?$char_traits@D@std@@V?$allocator@D@2@@std@@@std@@QAEXPAV?$basic_string@DU?$char_traits@D@std@@V?$allocator@D@2@@2@$$QAV32@@Z ; std::allocator<std::basic_string<char,std::char_traits<char>,std::allocator<char> > >::construct
;	COMDAT xdata$x
; File c:\program files (x86)\microsoft visual studio 10.0\vc\include\utility
xdata$x	SEGMENT
__unwindtable$?construct@?$allocator@V?$basic_string@DU?$char_traits@D@std@@V?$allocator@D@2@@std@@@std@@QAEXPAV?$basic_string@DU?$char_traits@D@std@@V?$allocator@D@2@@2@$$QAV32@@Z DD 0ffffffffH
	DD	FLAT:__unwindfunclet$?construct@?$allocator@V?$basic_string@DU?$char_traits@D@std@@V?$allocator@D@2@@std@@@std@@QAEXPAV?$basic_string@DU?$char_traits@D@std@@V?$allocator@D@2@@2@$$QAV32@@Z$0
__ehfuncinfo$?construct@?$allocator@V?$basic_string@DU?$char_traits@D@std@@V?$allocator@D@2@@std@@@std@@QAEXPAV?$basic_string@DU?$char_traits@D@std@@V?$allocator@D@2@@2@$$QAV32@@Z DD 019930522H
	DD	01H
	DD	FLAT:__unwindtable$?construct@?$allocator@V?$basic_string@DU?$char_traits@D@std@@V?$allocator@D@2@@std@@@std@@QAEXPAV?$basic_string@DU?$char_traits@D@std@@V?$allocator@D@2@@2@$$QAV32@@Z
	DD	2 DUP(00H)
	DD	2 DUP(00H)
	DD	00H
	DD	01H
; Function compile flags: /Ogsp
; File c:\program files (x86)\microsoft visual studio 10.0\vc\include\xmemory
xdata$x	ENDS
;	COMDAT ?construct@?$allocator@V?$basic_string@DU?$char_traits@D@std@@V?$allocator@D@2@@std@@@std@@QAEXPAV?$basic_string@DU?$char_traits@D@std@@V?$allocator@D@2@@2@$$QAV32@@Z
_TEXT	SEGMENT
$T553875 = -16						; size = 4
__$EHRec$ = -12						; size = 12
__Ptr$ = 8						; size = 4
__Val$ = 12						; size = 4
?construct@?$allocator@V?$basic_string@DU?$char_traits@D@std@@V?$allocator@D@2@@std@@@std@@QAEXPAV?$basic_string@DU?$char_traits@D@std@@V?$allocator@D@2@@2@$$QAV32@@Z PROC ; std::allocator<std::basic_string<char,std::char_traits<char>,std::allocator<char> > >::construct, COMDAT
; _this$ = ecx

; 201  : 		{	// construct object at _Ptr with value _Val

  00000	6a 04		 push	 4
  00002	b8 00 00 00 00	 mov	 eax, __ehhandler$?construct@?$allocator@V?$basic_string@DU?$char_traits@D@std@@V?$allocator@D@2@@std@@@std@@QAEXPAV?$basic_string@DU?$char_traits@D@std@@V?$allocator@D@2@@2@$$QAV32@@Z
  00007	e8 00 00 00 00	 call	 __EH_prolog3

; 202  : 		::new ((void _FARQ *)_Ptr) _Ty(_STD forward<_Ty>(_Val));

  0000c	8b 4d 08	 mov	 ecx, DWORD PTR __Ptr$[ebp]
  0000f	89 4d f0	 mov	 DWORD PTR $T553875[ebp], ecx
  00012	83 65 fc 00	 and	 DWORD PTR __$EHRec$[ebp+8], 0
  00016	85 c9		 test	 ecx, ecx
  00018	74 08		 je	 SHORT $LN3@construct@2
  0001a	ff 75 0c	 push	 DWORD PTR __Val$[ebp]
  0001d	e8 00 00 00 00	 call	 ??0?$basic_string@DU?$char_traits@D@std@@V?$allocator@D@2@@std@@QAE@$$QAV01@@Z ; std::basic_string<char,std::char_traits<char>,std::allocator<char> >::basic_string<char,std::char_traits<char>,std::allocator<char> >
$LN3@construct@2:

; 203  : 		}

  00022	e8 00 00 00 00	 call	 __EH_epilog3
  00027	c2 08 00	 ret	 8
_TEXT	ENDS
;	COMDAT text$x
text$x	SEGMENT
__unwindfunclet$?construct@?$allocator@V?$basic_string@DU?$char_traits@D@std@@V?$allocator@D@2@@std@@@std@@QAEXPAV?$basic_string@DU?$char_traits@D@std@@V?$allocator@D@2@@2@$$QAV32@@Z$0:
  00000	ff 75 08	 push	 DWORD PTR __Ptr$[ebp]
  00003	ff 75 f0	 push	 DWORD PTR $T553875[ebp]
  00006	e8 00 00 00 00	 call	 ??3@YAXPAX0@Z		; operator delete
  0000b	59		 pop	 ecx
  0000c	59		 pop	 ecx
  0000d	c3		 ret	 0
__ehhandler$?construct@?$allocator@V?$basic_string@DU?$char_traits@D@std@@V?$allocator@D@2@@std@@@std@@QAEXPAV?$basic_string@DU?$char_traits@D@std@@V?$allocator@D@2@@2@$$QAV32@@Z:
  0000e	8b 54 24 08	 mov	 edx, DWORD PTR [esp+8]
  00012	8d 42 0c	 lea	 eax, DWORD PTR [edx+12]
  00015	8b 4a ec	 mov	 ecx, DWORD PTR [edx-20]
  00018	33 c8		 xor	 ecx, eax
  0001a	e8 00 00 00 00	 call	 @__security_check_cookie@4
  0001f	b8 00 00 00 00	 mov	 eax, OFFSET __ehfuncinfo$?construct@?$allocator@V?$basic_string@DU?$char_traits@D@std@@V?$allocator@D@2@@std@@@std@@QAEXPAV?$basic_string@DU?$char_traits@D@std@@V?$allocator@D@2@@2@$$QAV32@@Z
  00024	e9 00 00 00 00	 jmp	 ___CxxFrameHandler3
text$x	ENDS
?construct@?$allocator@V?$basic_string@DU?$char_traits@D@std@@V?$allocator@D@2@@std@@@std@@QAEXPAV?$basic_string@DU?$char_traits@D@std@@V?$allocator@D@2@@2@$$QAV32@@Z ENDP ; std::allocator<std::basic_string<char,std::char_traits<char>,std::allocator<char> > >::construct
PUBLIC	??$_Destroy_range@V?$allocator@V?$basic_string@DU?$char_traits@D@std@@V?$allocator@D@2@@std@@@std@@@std@@YAXPAV?$basic_string@DU?$char_traits@D@std@@V?$allocator@D@2@@0@0AAV?$allocator@V?$basic_string@DU?$char_traits@D@std@@V?$allocator@D@2@@std@@@0@@Z ; std::_Destroy_range<std::allocator<std::basic_string<char,std::char_traits<char>,std::allocator<char> > > >
; Function compile flags: /Ogsp
;	COMDAT ??$_Destroy_range@V?$allocator@V?$basic_string@DU?$char_traits@D@std@@V?$allocator@D@2@@std@@@std@@@std@@YAXPAV?$basic_string@DU?$char_traits@D@std@@V?$allocator@D@2@@0@0AAV?$allocator@V?$basic_string@DU?$char_traits@D@std@@V?$allocator@D@2@@std@@@0@@Z
_TEXT	SEGMENT
__Cat$553896 = -4					; size = 1
__First$ = 8						; size = 4
__Last$ = 12						; size = 4
__Al$ = 16						; size = 4
??$_Destroy_range@V?$allocator@V?$basic_string@DU?$char_traits@D@std@@V?$allocator@D@2@@std@@@std@@@std@@YAXPAV?$basic_string@DU?$char_traits@D@std@@V?$allocator@D@2@@0@0AAV?$allocator@V?$basic_string@DU?$char_traits@D@std@@V?$allocator@D@2@@std@@@0@@Z PROC ; std::_Destroy_range<std::allocator<std::basic_string<char,std::char_traits<char>,std::allocator<char> > > >, COMDAT

; 87   : 	{	// destroy [_First, _Last)

  00000	55		 push	 ebp
  00001	8b ec		 mov	 ebp, esp
  00003	51		 push	 ecx

; 88   : 	_Destroy_range(_First, _Last, _Al, _Ptr_cat(_First, _Last));

  00004	ff 75 fc	 push	 DWORD PTR __Cat$553896[ebp]
  00007	ff 75 10	 push	 DWORD PTR __Al$[ebp]
  0000a	ff 75 0c	 push	 DWORD PTR __Last$[ebp]
  0000d	ff 75 08	 push	 DWORD PTR __First$[ebp]
  00010	e8 00 00 00 00	 call	 ??$_Destroy_range@V?$allocator@V?$basic_string@DU?$char_traits@D@std@@V?$allocator@D@2@@std@@@std@@@std@@YAXPAV?$basic_string@DU?$char_traits@D@std@@V?$allocator@D@2@@0@0AAV?$allocator@V?$basic_string@DU?$char_traits@D@std@@V?$allocator@D@2@@std@@@0@U_Nonscalar_ptr_iterator_tag@0@@Z ; std::_Destroy_range<std::allocator<std::basic_string<char,std::char_traits<char>,std::allocator<char> > > >
  00015	83 c4 10	 add	 esp, 16			; 00000010H

; 89   : 	}

  00018	c9		 leave
  00019	c3		 ret	 0
??$_Destroy_range@V?$allocator@V?$basic_string@DU?$char_traits@D@std@@V?$allocator@D@2@@std@@@std@@@std@@YAXPAV?$basic_string@DU?$char_traits@D@std@@V?$allocator@D@2@@0@0AAV?$allocator@V?$basic_string@DU?$char_traits@D@std@@V?$allocator@D@2@@std@@@0@@Z ENDP ; std::_Destroy_range<std::allocator<std::basic_string<char,std::char_traits<char>,std::allocator<char> > > >
_TEXT	ENDS
PUBLIC	??$_Cons_val@V?$allocator@V?$basic_string@DU?$char_traits@D@std@@V?$allocator@D@2@@std@@@std@@V?$basic_string@DU?$char_traits@D@std@@V?$allocator@D@2@@2@V32@@std@@YAXAAV?$allocator@V?$basic_string@DU?$char_traits@D@std@@V?$allocator@D@2@@std@@@0@PAV?$basic_string@DU?$char_traits@D@std@@V?$allocator@D@2@@0@$$QAV20@@Z ; std::_Cons_val<std::allocator<std::basic_string<char,std::char_traits<char>,std::allocator<char> > >,std::basic_string<char,std::char_traits<char>,std::allocator<char> >,std::basic_string<char,std::char_traits<char>,std::allocator<char> > >
;	COMDAT xdata$x
; File c:\program files (x86)\microsoft visual studio 10.0\vc\include\utility
xdata$x	SEGMENT
__unwindtable$??$_Cons_val@V?$allocator@V?$basic_string@DU?$char_traits@D@std@@V?$allocator@D@2@@std@@@std@@V?$basic_string@DU?$char_traits@D@std@@V?$allocator@D@2@@2@V32@@std@@YAXAAV?$allocator@V?$basic_string@DU?$char_traits@D@std@@V?$allocator@D@2@@std@@@0@PAV?$basic_string@DU?$char_traits@D@std@@V?$allocator@D@2@@0@$$QAV20@@Z DD 0ffffffffH
	DD	FLAT:__unwindfunclet$??$_Cons_val@V?$allocator@V?$basic_string@DU?$char_traits@D@std@@V?$allocator@D@2@@std@@@std@@V?$basic_string@DU?$char_traits@D@std@@V?$allocator@D@2@@2@V32@@std@@YAXAAV?$allocator@V?$basic_string@DU?$char_traits@D@std@@V?$allocator@D@2@@std@@@0@PAV?$basic_string@DU?$char_traits@D@std@@V?$allocator@D@2@@0@$$QAV20@@Z$0
__ehfuncinfo$??$_Cons_val@V?$allocator@V?$basic_string@DU?$char_traits@D@std@@V?$allocator@D@2@@std@@@std@@V?$basic_string@DU?$char_traits@D@std@@V?$allocator@D@2@@2@V32@@std@@YAXAAV?$allocator@V?$basic_string@DU?$char_traits@D@std@@V?$allocator@D@2@@std@@@0@PAV?$basic_string@DU?$char_traits@D@std@@V?$allocator@D@2@@0@$$QAV20@@Z DD 019930522H
	DD	01H
	DD	FLAT:__unwindtable$??$_Cons_val@V?$allocator@V?$basic_string@DU?$char_traits@D@std@@V?$allocator@D@2@@std@@@std@@V?$basic_string@DU?$char_traits@D@std@@V?$allocator@D@2@@2@V32@@std@@YAXAAV?$allocator@V?$basic_string@DU?$char_traits@D@std@@V?$allocator@D@2@@std@@@0@PAV?$basic_string@DU?$char_traits@D@std@@V?$allocator@D@2@@0@$$QAV20@@Z
	DD	2 DUP(00H)
	DD	2 DUP(00H)
	DD	00H
	DD	01H
; Function compile flags: /Ogsp
; File c:\program files (x86)\microsoft visual studio 10.0\vc\include\xmemory
xdata$x	ENDS
;	COMDAT ??$_Cons_val@V?$allocator@V?$basic_string@DU?$char_traits@D@std@@V?$allocator@D@2@@std@@@std@@V?$basic_string@DU?$char_traits@D@std@@V?$allocator@D@2@@2@V32@@std@@YAXAAV?$allocator@V?$basic_string@DU?$char_traits@D@std@@V?$allocator@D@2@@std@@@0@PAV?$basic_string@DU?$char_traits@D@std@@V?$allocator@D@2@@0@$$QAV20@@Z
_TEXT	SEGMENT
$T553918 = -16						; size = 4
__$EHRec$ = -12						; size = 12
__Alval$ = 8						; size = 4
__Pdest$ = 12						; size = 4
__Src$ = 16						; size = 4
??$_Cons_val@V?$allocator@V?$basic_string@DU?$char_traits@D@std@@V?$allocator@D@2@@std@@@std@@V?$basic_string@DU?$char_traits@D@std@@V?$allocator@D@2@@2@V32@@std@@YAXAAV?$allocator@V?$basic_string@DU?$char_traits@D@std@@V?$allocator@D@2@@std@@@0@PAV?$basic_string@DU?$char_traits@D@std@@V?$allocator@D@2@@0@$$QAV20@@Z PROC ; std::_Cons_val<std::allocator<std::basic_string<char,std::char_traits<char>,std::allocator<char> > >,std::basic_string<char,std::char_traits<char>,std::allocator<char> >,std::basic_string<char,std::char_traits<char>,std::allocator<char> > >, COMDAT

; 279  : 	{	// construct using allocator

  00000	6a 04		 push	 4
  00002	b8 00 00 00 00	 mov	 eax, __ehhandler$??$_Cons_val@V?$allocator@V?$basic_string@DU?$char_traits@D@std@@V?$allocator@D@2@@std@@@std@@V?$basic_string@DU?$char_traits@D@std@@V?$allocator@D@2@@2@V32@@std@@YAXAAV?$allocator@V?$basic_string@DU?$char_traits@D@std@@V?$allocator@D@2@@std@@@0@PAV?$basic_string@DU?$char_traits@D@std@@V?$allocator@D@2@@0@$$QAV20@@Z
  00007	e8 00 00 00 00	 call	 __EH_prolog3

; 280  : 	_Alval.construct(_Pdest, _STD forward<_Ty2>(_Src));

  0000c	8b 4d 0c	 mov	 ecx, DWORD PTR __Pdest$[ebp]
  0000f	89 4d f0	 mov	 DWORD PTR $T553918[ebp], ecx
  00012	83 65 fc 00	 and	 DWORD PTR __$EHRec$[ebp+8], 0
  00016	85 c9		 test	 ecx, ecx
  00018	74 08		 je	 SHORT $LN7@Cons_val@2
  0001a	ff 75 10	 push	 DWORD PTR __Src$[ebp]
  0001d	e8 00 00 00 00	 call	 ??0?$basic_string@DU?$char_traits@D@std@@V?$allocator@D@2@@std@@QAE@$$QAV01@@Z ; std::basic_string<char,std::char_traits<char>,std::allocator<char> >::basic_string<char,std::char_traits<char>,std::allocator<char> >
$LN7@Cons_val@2:

; 281  : 	}

  00022	e8 00 00 00 00	 call	 __EH_epilog3
  00027	c3		 ret	 0
_TEXT	ENDS
;	COMDAT text$x
text$x	SEGMENT
__unwindfunclet$??$_Cons_val@V?$allocator@V?$basic_string@DU?$char_traits@D@std@@V?$allocator@D@2@@std@@@std@@V?$basic_string@DU?$char_traits@D@std@@V?$allocator@D@2@@2@V32@@std@@YAXAAV?$allocator@V?$basic_string@DU?$char_traits@D@std@@V?$allocator@D@2@@std@@@0@PAV?$basic_string@DU?$char_traits@D@std@@V?$allocator@D@2@@0@$$QAV20@@Z$0:
  00000	ff 75 0c	 push	 DWORD PTR __Pdest$[ebp]
  00003	ff 75 f0	 push	 DWORD PTR $T553918[ebp]
  00006	e8 00 00 00 00	 call	 ??3@YAXPAX0@Z		; operator delete
  0000b	59		 pop	 ecx
  0000c	59		 pop	 ecx
  0000d	c3		 ret	 0
__ehhandler$??$_Cons_val@V?$allocator@V?$basic_string@DU?$char_traits@D@std@@V?$allocator@D@2@@std@@@std@@V?$basic_string@DU?$char_traits@D@std@@V?$allocator@D@2@@2@V32@@std@@YAXAAV?$allocator@V?$basic_string@DU?$char_traits@D@std@@V?$allocator@D@2@@std@@@0@PAV?$basic_string@DU?$char_traits@D@std@@V?$allocator@D@2@@0@$$QAV20@@Z:
  0000e	8b 54 24 08	 mov	 edx, DWORD PTR [esp+8]
  00012	8d 42 0c	 lea	 eax, DWORD PTR [edx+12]
  00015	8b 4a ec	 mov	 ecx, DWORD PTR [edx-20]
  00018	33 c8		 xor	 ecx, eax
  0001a	e8 00 00 00 00	 call	 @__security_check_cookie@4
  0001f	b8 00 00 00 00	 mov	 eax, OFFSET __ehfuncinfo$??$_Cons_val@V?$allocator@V?$basic_string@DU?$char_traits@D@std@@V?$allocator@D@2@@std@@@std@@V?$basic_string@DU?$char_traits@D@std@@V?$allocator@D@2@@2@V32@@std@@YAXAAV?$allocator@V?$basic_string@DU?$char_traits@D@std@@V?$allocator@D@2@@std@@@0@PAV?$basic_string@DU?$char_traits@D@std@@V?$allocator@D@2@@0@$$QAV20@@Z
  00024	e9 00 00 00 00	 jmp	 ___CxxFrameHandler3
text$x	ENDS
??$_Cons_val@V?$allocator@V?$basic_string@DU?$char_traits@D@std@@V?$allocator@D@2@@std@@@std@@V?$basic_string@DU?$char_traits@D@std@@V?$allocator@D@2@@2@V32@@std@@YAXAAV?$allocator@V?$basic_string@DU?$char_traits@D@std@@V?$allocator@D@2@@std@@@0@PAV?$basic_string@DU?$char_traits@D@std@@V?$allocator@D@2@@0@$$QAV20@@Z ENDP ; std::_Cons_val<std::allocator<std::basic_string<char,std::char_traits<char>,std::allocator<char> > >,std::basic_string<char,std::char_traits<char>,std::allocator<char> >,std::basic_string<char,std::char_traits<char>,std::allocator<char> > >
PUBLIC	??$_Uninit_move@PAV?$basic_string@DU?$char_traits@D@std@@V?$allocator@D@2@@std@@PAV12@V?$allocator@V?$basic_string@DU?$char_traits@D@std@@V?$allocator@D@2@@std@@@2@V12@@std@@YAPAV?$basic_string@DU?$char_traits@D@std@@V?$allocator@D@2@@0@PAV10@00AAV?$allocator@V?$basic_string@DU?$char_traits@D@std@@V?$allocator@D@2@@std@@@0@0U_Nonscalar_ptr_iterator_tag@0@@Z ; std::_Uninit_move<std::basic_string<char,std::char_traits<char>,std::allocator<char> > *,std::basic_string<char,std::char_traits<char>,std::allocator<char> > *,std::allocator<std::basic_string<char,std::char_traits<char>,std::allocator<char> > >,std::basic_string<char,std::char_traits<char>,std::allocator<char> > >
;	COMDAT xdata$x
; File c:\program files (x86)\microsoft visual studio 10.0\vc\include\xstring
xdata$x	SEGMENT
__catchsym$??$_Uninit_move@PAV?$basic_string@DU?$char_traits@D@std@@V?$allocator@D@2@@std@@PAV12@V?$allocator@V?$basic_string@DU?$char_traits@D@std@@V?$allocator@D@2@@std@@@2@V12@@std@@YAPAV?$basic_string@DU?$char_traits@D@std@@V?$allocator@D@2@@0@PAV10@00AAV?$allocator@V?$basic_string@DU?$char_traits@D@std@@V?$allocator@D@2@@std@@@0@0U_Nonscalar_ptr_iterator_tag@0@@Z$2 DD 040H
	DD	00H
	DD	00H
	DD	FLAT:__catch$??$_Uninit_move@PAV?$basic_string@DU?$char_traits@D@std@@V?$allocator@D@2@@std@@PAV12@V?$allocator@V?$basic_string@DU?$char_traits@D@std@@V?$allocator@D@2@@std@@@2@V12@@std@@YAPAV?$basic_string@DU?$char_traits@D@std@@V?$allocator@D@2@@0@PAV10@00AAV?$allocator@V?$basic_string@DU?$char_traits@D@std@@V?$allocator@D@2@@std@@@0@0U_Nonscalar_ptr_iterator_tag@0@@Z$0
__unwindtable$??$_Uninit_move@PAV?$basic_string@DU?$char_traits@D@std@@V?$allocator@D@2@@std@@PAV12@V?$allocator@V?$basic_string@DU?$char_traits@D@std@@V?$allocator@D@2@@std@@@2@V12@@std@@YAPAV?$basic_string@DU?$char_traits@D@std@@V?$allocator@D@2@@0@PAV10@00AAV?$allocator@V?$basic_string@DU?$char_traits@D@std@@V?$allocator@D@2@@std@@@0@0U_Nonscalar_ptr_iterator_tag@0@@Z DD 0ffffffffH
	DD	00H
	DD	0ffffffffH
	DD	00H
__tryblocktable$??$_Uninit_move@PAV?$basic_string@DU?$char_traits@D@std@@V?$allocator@D@2@@std@@PAV12@V?$allocator@V?$basic_string@DU?$char_traits@D@std@@V?$allocator@D@2@@std@@@2@V12@@std@@YAPAV?$basic_string@DU?$char_traits@D@std@@V?$allocator@D@2@@0@PAV10@00AAV?$allocator@V?$basic_string@DU?$char_traits@D@std@@V?$allocator@D@2@@std@@@0@0U_Nonscalar_ptr_iterator_tag@0@@Z DD 00H
	DD	00H
	DD	01H
	DD	01H
	DD	FLAT:__catchsym$??$_Uninit_move@PAV?$basic_string@DU?$char_traits@D@std@@V?$allocator@D@2@@std@@PAV12@V?$allocator@V?$basic_string@DU?$char_traits@D@std@@V?$allocator@D@2@@std@@@2@V12@@std@@YAPAV?$basic_string@DU?$char_traits@D@std@@V?$allocator@D@2@@0@PAV10@00AAV?$allocator@V?$basic_string@DU?$char_traits@D@std@@V?$allocator@D@2@@std@@@0@0U_Nonscalar_ptr_iterator_tag@0@@Z$2
__ehfuncinfo$??$_Uninit_move@PAV?$basic_string@DU?$char_traits@D@std@@V?$allocator@D@2@@std@@PAV12@V?$allocator@V?$basic_string@DU?$char_traits@D@std@@V?$allocator@D@2@@std@@@2@V12@@std@@YAPAV?$basic_string@DU?$char_traits@D@std@@V?$allocator@D@2@@0@PAV10@00AAV?$allocator@V?$basic_string@DU?$char_traits@D@std@@V?$allocator@D@2@@std@@@0@0U_Nonscalar_ptr_iterator_tag@0@@Z DD 019930522H
	DD	02H
	DD	FLAT:__unwindtable$??$_Uninit_move@PAV?$basic_string@DU?$char_traits@D@std@@V?$allocator@D@2@@std@@PAV12@V?$allocator@V?$basic_string@DU?$char_traits@D@std@@V?$allocator@D@2@@std@@@2@V12@@std@@YAPAV?$basic_string@DU?$char_traits@D@std@@V?$allocator@D@2@@0@PAV10@00AAV?$allocator@V?$basic_string@DU?$char_traits@D@std@@V?$allocator@D@2@@std@@@0@0U_Nonscalar_ptr_iterator_tag@0@@Z
	DD	01H
	DD	FLAT:__tryblocktable$??$_Uninit_move@PAV?$basic_string@DU?$char_traits@D@std@@V?$allocator@D@2@@std@@PAV12@V?$allocator@V?$basic_string@DU?$char_traits@D@std@@V?$allocator@D@2@@std@@@2@V12@@std@@YAPAV?$basic_string@DU?$char_traits@D@std@@V?$allocator@D@2@@0@PAV10@00AAV?$allocator@V?$basic_string@DU?$char_traits@D@std@@V?$allocator@D@2@@std@@@0@0U_Nonscalar_ptr_iterator_tag@0@@Z
	DD	2 DUP(00H)
	DD	00H
	DD	01H
; Function compile flags: /Ogsp
; File c:\program files (x86)\microsoft visual studio 10.0\vc\include\memory
xdata$x	ENDS
;	COMDAT ??$_Uninit_move@PAV?$basic_string@DU?$char_traits@D@std@@V?$allocator@D@2@@std@@PAV12@V?$allocator@V?$basic_string@DU?$char_traits@D@std@@V?$allocator@D@2@@std@@@2@V12@@std@@YAPAV?$basic_string@DU?$char_traits@D@std@@V?$allocator@D@2@@0@PAV10@00AAV?$allocator@V?$basic_string@DU?$char_traits@D@std@@V?$allocator@D@2@@std@@@0@0U_Nonscalar_ptr_iterator_tag@0@@Z
_TEXT	SEGMENT
__Next$ = -20						; size = 4
__$EHRec$ = -16						; size = 16
__First$ = 8						; size = 4
__Last$ = 12						; size = 4
__Dest$ = 16						; size = 4
__Al$ = 20						; size = 4
___formal$ = 24						; size = 4
___formal$ = 28						; size = 1
??$_Uninit_move@PAV?$basic_string@DU?$char_traits@D@std@@V?$allocator@D@2@@std@@PAV12@V?$allocator@V?$basic_string@DU?$char_traits@D@std@@V?$allocator@D@2@@std@@@2@V12@@std@@YAPAV?$basic_string@DU?$char_traits@D@std@@V?$allocator@D@2@@0@PAV10@00AAV?$allocator@V?$basic_string@DU?$char_traits@D@std@@V?$allocator@D@2@@std@@@0@0U_Nonscalar_ptr_iterator_tag@0@@Z PROC ; std::_Uninit_move<std::basic_string<char,std::char_traits<char>,std::allocator<char> > *,std::basic_string<char,std::char_traits<char>,std::allocator<char> > *,std::allocator<std::basic_string<char,std::char_traits<char>,std::allocator<char> > >,std::basic_string<char,std::char_traits<char>,std::allocator<char> > >, COMDAT

; 424  : 	{	// move [_First, _Last) to raw _Dest, using _Al, arbitrary type

  00000	6a 08		 push	 8
  00002	b8 00 00 00 00	 mov	 eax, __ehhandler$??$_Uninit_move@PAV?$basic_string@DU?$char_traits@D@std@@V?$allocator@D@2@@std@@PAV12@V?$allocator@V?$basic_string@DU?$char_traits@D@std@@V?$allocator@D@2@@std@@@2@V12@@std@@YAPAV?$basic_string@DU?$char_traits@D@std@@V?$allocator@D@2@@0@PAV10@00AAV?$allocator@V?$basic_string@DU?$char_traits@D@std@@V?$allocator@D@2@@std@@@0@0U_Nonscalar_ptr_iterator_tag@0@@Z
  00007	e8 00 00 00 00	 call	 __EH_prolog3_catch

; 425  : 	_DEBUG_RANGE(_First, _Last);
; 426  : 	_DEBUG_POINTER(_Dest);
; 427  : 	_FwdIt _Next = _Dest;

  0000c	8b 45 10	 mov	 eax, DWORD PTR __Dest$[ebp]

; 428  : 
; 429  : 	_TRY_BEGIN

  0000f	83 65 fc 00	 and	 DWORD PTR __$EHRec$[ebp+12], 0
  00013	8b 75 08	 mov	 esi, DWORD PTR __First$[ebp]
  00016	89 45 ec	 mov	 DWORD PTR __Next$[ebp], eax
$LL6@Uninit_mov:

; 430  : 	for (; _First != _Last; ++_Dest, ++_First)

  00019	3b 75 0c	 cmp	 esi, DWORD PTR __Last$[ebp]
  0001c	74 37		 je	 SHORT $LN4@Uninit_mov

; 431  : 		_Cons_val(_Al, _Dest, (_Valty &&)*_First);

  0001e	56		 push	 esi
  0001f	ff 75 10	 push	 DWORD PTR __Dest$[ebp]
  00022	ff 75 14	 push	 DWORD PTR __Al$[ebp]
  00025	e8 00 00 00 00	 call	 ??$_Cons_val@V?$allocator@V?$basic_string@DU?$char_traits@D@std@@V?$allocator@D@2@@std@@@std@@V?$basic_string@DU?$char_traits@D@std@@V?$allocator@D@2@@2@V32@@std@@YAXAAV?$allocator@V?$basic_string@DU?$char_traits@D@std@@V?$allocator@D@2@@std@@@0@PAV?$basic_string@DU?$char_traits@D@std@@V?$allocator@D@2@@0@$$QAV20@@Z ; std::_Cons_val<std::allocator<std::basic_string<char,std::char_traits<char>,std::allocator<char> > >,std::basic_string<char,std::char_traits<char>,std::allocator<char> >,std::basic_string<char,std::char_traits<char>,std::allocator<char> > >
  0002a	83 45 10 1c	 add	 DWORD PTR __Dest$[ebp], 28 ; 0000001cH
  0002e	83 c4 0c	 add	 esp, 12			; 0000000cH
  00031	83 c6 1c	 add	 esi, 28			; 0000001cH
  00034	eb e3		 jmp	 SHORT $LL6@Uninit_mov
__catch$??$_Uninit_move@PAV?$basic_string@DU?$char_traits@D@std@@V?$allocator@D@2@@std@@PAV12@V?$allocator@V?$basic_string@DU?$char_traits@D@std@@V?$allocator@D@2@@std@@@2@V12@@std@@YAPAV?$basic_string@DU?$char_traits@D@std@@V?$allocator@D@2@@0@PAV10@00AAV?$allocator@V?$basic_string@DU?$char_traits@D@std@@V?$allocator@D@2@@std@@@0@0U_Nonscalar_ptr_iterator_tag@0@@Z$0:

; 432  : 	_CATCH_ALL
; 433  : 	for (; _Next != _Dest; ++_Next)

  00036	8b 75 ec	 mov	 esi, DWORD PTR __Next$[ebp]
  00039	eb 0c		 jmp	 SHORT $LN34@Uninit_mov
$LL3@Uninit_mov:

; 434  : 		_Dest_val(_Al, _Next);

  0003b	6a 01		 push	 1
  0003d	8b ce		 mov	 ecx, esi
  0003f	e8 00 00 00 00	 call	 ?_Tidy@?$basic_string@DU?$char_traits@D@std@@V?$allocator@D@2@@std@@QAEX_NI@Z ; std::basic_string<char,std::char_traits<char>,std::allocator<char> >::_Tidy
  00044	83 c6 1c	 add	 esi, 28			; 0000001cH
$LN34@Uninit_mov:

; 435  : 	_RERAISE;

  00047	6a 00		 push	 0
  00049	3b 75 10	 cmp	 esi, DWORD PTR __Dest$[ebp]
  0004c	75 ed		 jne	 SHORT $LL3@Uninit_mov
  0004e	6a 00		 push	 0
  00050	e8 00 00 00 00	 call	 __CxxThrowException@8
$LN35@Uninit_mov:
$LN4@Uninit_mov:

; 436  : 	_CATCH_END
; 437  : 	return (_Dest);

  00055	8b 45 10	 mov	 eax, DWORD PTR __Dest$[ebp]

; 438  : 	}

  00058	e8 00 00 00 00	 call	 __EH_epilog3
  0005d	c3		 ret	 0
$LN33@Uninit_mov:
_TEXT	ENDS
;	COMDAT text$x
text$x	SEGMENT
__ehhandler$??$_Uninit_move@PAV?$basic_string@DU?$char_traits@D@std@@V?$allocator@D@2@@std@@PAV12@V?$allocator@V?$basic_string@DU?$char_traits@D@std@@V?$allocator@D@2@@std@@@2@V12@@std@@YAPAV?$basic_string@DU?$char_traits@D@std@@V?$allocator@D@2@@0@PAV10@00AAV?$allocator@V?$basic_string@DU?$char_traits@D@std@@V?$allocator@D@2@@std@@@0@0U_Nonscalar_ptr_iterator_tag@0@@Z:
  00000	8b 54 24 08	 mov	 edx, DWORD PTR [esp+8]
  00004	8d 42 0c	 lea	 eax, DWORD PTR [edx+12]
  00007	8b 4a e8	 mov	 ecx, DWORD PTR [edx-24]
  0000a	33 c8		 xor	 ecx, eax
  0000c	e8 00 00 00 00	 call	 @__security_check_cookie@4
  00011	b8 00 00 00 00	 mov	 eax, OFFSET __ehfuncinfo$??$_Uninit_move@PAV?$basic_string@DU?$char_traits@D@std@@V?$allocator@D@2@@std@@PAV12@V?$allocator@V?$basic_string@DU?$char_traits@D@std@@V?$allocator@D@2@@std@@@2@V12@@std@@YAPAV?$basic_string@DU?$char_traits@D@std@@V?$allocator@D@2@@0@PAV10@00AAV?$allocator@V?$basic_string@DU?$char_traits@D@std@@V?$allocator@D@2@@std@@@0@0U_Nonscalar_ptr_iterator_tag@0@@Z
  00016	e9 00 00 00 00	 jmp	 ___CxxFrameHandler3
text$x	ENDS
??$_Uninit_move@PAV?$basic_string@DU?$char_traits@D@std@@V?$allocator@D@2@@std@@PAV12@V?$allocator@V?$basic_string@DU?$char_traits@D@std@@V?$allocator@D@2@@std@@@2@V12@@std@@YAPAV?$basic_string@DU?$char_traits@D@std@@V?$allocator@D@2@@0@PAV10@00AAV?$allocator@V?$basic_string@DU?$char_traits@D@std@@V?$allocator@D@2@@std@@@0@0U_Nonscalar_ptr_iterator_tag@0@@Z ENDP ; std::_Uninit_move<std::basic_string<char,std::char_traits<char>,std::allocator<char> > *,std::basic_string<char,std::char_traits<char>,std::allocator<char> > *,std::allocator<std::basic_string<char,std::char_traits<char>,std::allocator<char> > >,std::basic_string<char,std::char_traits<char>,std::allocator<char> > >
PUBLIC	?_Destroy@?$vector@V?$basic_string@DU?$char_traits@D@std@@V?$allocator@D@2@@std@@V?$allocator@V?$basic_string@DU?$char_traits@D@std@@V?$allocator@D@2@@std@@@2@@std@@IAEXPAV?$basic_string@DU?$char_traits@D@std@@V?$allocator@D@2@@2@0@Z ; std::vector<std::basic_string<char,std::char_traits<char>,std::allocator<char> >,std::allocator<std::basic_string<char,std::char_traits<char>,std::allocator<char> > > >::_Destroy
; Function compile flags: /Ogsp
; File c:\program files (x86)\microsoft visual studio 10.0\vc\include\vector
;	COMDAT ?_Destroy@?$vector@V?$basic_string@DU?$char_traits@D@std@@V?$allocator@D@2@@std@@V?$allocator@V?$basic_string@DU?$char_traits@D@std@@V?$allocator@D@2@@std@@@2@@std@@IAEXPAV?$basic_string@DU?$char_traits@D@std@@V?$allocator@D@2@@2@0@Z
_TEXT	SEGMENT
__First$ = 8						; size = 4
__Cat$554017 = 12					; size = 1
__Last$ = 12						; size = 4
?_Destroy@?$vector@V?$basic_string@DU?$char_traits@D@std@@V?$allocator@D@2@@std@@V?$allocator@V?$basic_string@DU?$char_traits@D@std@@V?$allocator@D@2@@std@@@2@@std@@IAEXPAV?$basic_string@DU?$char_traits@D@std@@V?$allocator@D@2@@2@0@Z PROC ; std::vector<std::basic_string<char,std::char_traits<char>,std::allocator<char> >,std::allocator<std::basic_string<char,std::char_traits<char>,std::allocator<char> > > >::_Destroy, COMDAT
; _this$ = ecx

; 1269 : 		{	// destroy [_First, _Last) using allocator

  00000	55		 push	 ebp
  00001	8b ec		 mov	 ebp, esp

; 1270 : 		_Destroy_range(_First, _Last, this->_Alval);

  00003	ff 75 0c	 push	 DWORD PTR __Cat$554017[ebp]
  00006	83 c1 0c	 add	 ecx, 12			; 0000000cH
  00009	51		 push	 ecx
  0000a	ff 75 0c	 push	 DWORD PTR __Last$[ebp]
  0000d	ff 75 08	 push	 DWORD PTR __First$[ebp]
  00010	e8 00 00 00 00	 call	 ??$_Destroy_range@V?$allocator@V?$basic_string@DU?$char_traits@D@std@@V?$allocator@D@2@@std@@@std@@@std@@YAXPAV?$basic_string@DU?$char_traits@D@std@@V?$allocator@D@2@@0@0AAV?$allocator@V?$basic_string@DU?$char_traits@D@std@@V?$allocator@D@2@@std@@@0@U_Nonscalar_ptr_iterator_tag@0@@Z ; std::_Destroy_range<std::allocator<std::basic_string<char,std::char_traits<char>,std::allocator<char> > > >
  00015	83 c4 10	 add	 esp, 16			; 00000010H

; 1271 : 		}

  00018	5d		 pop	 ebp
  00019	c2 08 00	 ret	 8
?_Destroy@?$vector@V?$basic_string@DU?$char_traits@D@std@@V?$allocator@D@2@@std@@V?$allocator@V?$basic_string@DU?$char_traits@D@std@@V?$allocator@D@2@@std@@@2@@std@@IAEXPAV?$basic_string@DU?$char_traits@D@std@@V?$allocator@D@2@@2@0@Z ENDP ; std::vector<std::basic_string<char,std::char_traits<char>,std::allocator<char> >,std::allocator<std::basic_string<char,std::char_traits<char>,std::allocator<char> > > >::_Destroy
_TEXT	ENDS
PUBLIC	??$_Uninitialized_move@PAV?$basic_string@DU?$char_traits@D@std@@V?$allocator@D@2@@std@@PAV12@V?$allocator@V?$basic_string@DU?$char_traits@D@std@@V?$allocator@D@2@@std@@@2@@std@@YAPAV?$basic_string@DU?$char_traits@D@std@@V?$allocator@D@2@@0@PAV10@00AAV?$allocator@V?$basic_string@DU?$char_traits@D@std@@V?$allocator@D@2@@std@@@0@@Z ; std::_Uninitialized_move<std::basic_string<char,std::char_traits<char>,std::allocator<char> > *,std::basic_string<char,std::char_traits<char>,std::allocator<char> > *,std::allocator<std::basic_string<char,std::char_traits<char>,std::allocator<char> > > >
; Function compile flags: /Ogsp
; File c:\program files (x86)\microsoft visual studio 10.0\vc\include\memory
;	COMDAT ??$_Uninitialized_move@PAV?$basic_string@DU?$char_traits@D@std@@V?$allocator@D@2@@std@@PAV12@V?$allocator@V?$basic_string@DU?$char_traits@D@std@@V?$allocator@D@2@@std@@@2@@std@@YAPAV?$basic_string@DU?$char_traits@D@std@@V?$allocator@D@2@@0@PAV10@00AAV?$allocator@V?$basic_string@DU?$char_traits@D@std@@V?$allocator@D@2@@std@@@0@@Z
_TEXT	SEGMENT
__Cat$554025 = -4					; size = 1
__First$ = 8						; size = 4
__Last$ = 12						; size = 4
__Dest$ = 16						; size = 4
__Al$ = 20						; size = 4
??$_Uninitialized_move@PAV?$basic_string@DU?$char_traits@D@std@@V?$allocator@D@2@@std@@PAV12@V?$allocator@V?$basic_string@DU?$char_traits@D@std@@V?$allocator@D@2@@std@@@2@@std@@YAPAV?$basic_string@DU?$char_traits@D@std@@V?$allocator@D@2@@0@PAV10@00AAV?$allocator@V?$basic_string@DU?$char_traits@D@std@@V?$allocator@D@2@@std@@@0@@Z PROC ; std::_Uninitialized_move<std::basic_string<char,std::char_traits<char>,std::allocator<char> > *,std::basic_string<char,std::char_traits<char>,std::allocator<char> > *,std::allocator<std::basic_string<char,std::char_traits<char>,std::allocator<char> > > >, COMDAT

; 469  : 	{	// move [_First, _Last) to raw _Dest, using _Al

  00000	55		 push	 ebp
  00001	8b ec		 mov	 ebp, esp
  00003	51		 push	 ecx

; 470  : 	return (_Uninit_move(_First, _Last, _Dest, _Al,
; 471  : 		_Val_type(_First), _Ptr_cat(_First, _Dest)));

  00004	ff 75 fc	 push	 DWORD PTR __Cat$554025[ebp]
  00007	6a 00		 push	 0
  00009	ff 75 14	 push	 DWORD PTR __Al$[ebp]
  0000c	ff 75 10	 push	 DWORD PTR __Dest$[ebp]
  0000f	ff 75 0c	 push	 DWORD PTR __Last$[ebp]
  00012	ff 75 08	 push	 DWORD PTR __First$[ebp]
  00015	e8 00 00 00 00	 call	 ??$_Uninit_move@PAV?$basic_string@DU?$char_traits@D@std@@V?$allocator@D@2@@std@@PAV12@V?$allocator@V?$basic_string@DU?$char_traits@D@std@@V?$allocator@D@2@@std@@@2@V12@@std@@YAPAV?$basic_string@DU?$char_traits@D@std@@V?$allocator@D@2@@0@PAV10@00AAV?$allocator@V?$basic_string@DU?$char_traits@D@std@@V?$allocator@D@2@@std@@@0@0U_Nonscalar_ptr_iterator_tag@0@@Z ; std::_Uninit_move<std::basic_string<char,std::char_traits<char>,std::allocator<char> > *,std::basic_string<char,std::char_traits<char>,std::allocator<char> > *,std::allocator<std::basic_string<char,std::char_traits<char>,std::allocator<char> > >,std::basic_string<char,std::char_traits<char>,std::allocator<char> > >
  0001a	83 c4 18	 add	 esp, 24			; 00000018H

; 472  : 	}

  0001d	c9		 leave
  0001e	c3		 ret	 0
??$_Uninitialized_move@PAV?$basic_string@DU?$char_traits@D@std@@V?$allocator@D@2@@std@@PAV12@V?$allocator@V?$basic_string@DU?$char_traits@D@std@@V?$allocator@D@2@@std@@@2@@std@@YAPAV?$basic_string@DU?$char_traits@D@std@@V?$allocator@D@2@@0@PAV10@00AAV?$allocator@V?$basic_string@DU?$char_traits@D@std@@V?$allocator@D@2@@std@@@0@@Z ENDP ; std::_Uninitialized_move<std::basic_string<char,std::char_traits<char>,std::allocator<char> > *,std::basic_string<char,std::char_traits<char>,std::allocator<char> > *,std::allocator<std::basic_string<char,std::char_traits<char>,std::allocator<char> > > >
_TEXT	ENDS
PUBLIC	?_Tidy@?$vector@V?$basic_string@DU?$char_traits@D@std@@V?$allocator@D@2@@std@@V?$allocator@V?$basic_string@DU?$char_traits@D@std@@V?$allocator@D@2@@std@@@2@@std@@IAEXXZ ; std::vector<std::basic_string<char,std::char_traits<char>,std::allocator<char> >,std::allocator<std::basic_string<char,std::char_traits<char>,std::allocator<char> > > >::_Tidy
; Function compile flags: /Ogsp
; File c:\program files (x86)\microsoft visual studio 10.0\vc\include\vector
;	COMDAT ?_Tidy@?$vector@V?$basic_string@DU?$char_traits@D@std@@V?$allocator@D@2@@std@@V?$allocator@V?$basic_string@DU?$char_traits@D@std@@V?$allocator@D@2@@std@@@2@@std@@IAEXXZ
_TEXT	SEGMENT
__Cat$554048 = -4					; size = 1
?_Tidy@?$vector@V?$basic_string@DU?$char_traits@D@std@@V?$allocator@D@2@@std@@V?$allocator@V?$basic_string@DU?$char_traits@D@std@@V?$allocator@D@2@@std@@@2@@std@@IAEXXZ PROC ; std::vector<std::basic_string<char,std::char_traits<char>,std::allocator<char> >,std::allocator<std::basic_string<char,std::char_traits<char>,std::allocator<char> > > >::_Tidy, COMDAT
; _this$ = ecx

; 1301 : 		{	// free all storage

  00000	55		 push	 ebp
  00001	8b ec		 mov	 ebp, esp
  00003	51		 push	 ecx
  00004	56		 push	 esi
  00005	8b f1		 mov	 esi, ecx

; 1302 : 		if (this->_Myfirst != 0)

  00007	83 3e 00	 cmp	 DWORD PTR [esi], 0
  0000a	74 21		 je	 SHORT $LN10@Tidy@3

; 1303 : 			{	// something to free, destroy and deallocate it
; 1304 : 			this->_Orphan_all();

  0000c	ff 15 00 00 00
	00		 call	 DWORD PTR __imp_?_Orphan_all@_Container_base0@std@@QAEXXZ

; 1305 : 			_Destroy(this->_Myfirst, this->_Mylast);

  00012	ff 75 fc	 push	 DWORD PTR __Cat$554048[ebp]
  00015	8d 46 0c	 lea	 eax, DWORD PTR [esi+12]
  00018	50		 push	 eax
  00019	ff 76 04	 push	 DWORD PTR [esi+4]
  0001c	ff 36		 push	 DWORD PTR [esi]
  0001e	e8 00 00 00 00	 call	 ??$_Destroy_range@V?$allocator@V?$basic_string@DU?$char_traits@D@std@@V?$allocator@D@2@@std@@@std@@@std@@YAXPAV?$basic_string@DU?$char_traits@D@std@@V?$allocator@D@2@@0@0AAV?$allocator@V?$basic_string@DU?$char_traits@D@std@@V?$allocator@D@2@@std@@@0@U_Nonscalar_ptr_iterator_tag@0@@Z ; std::_Destroy_range<std::allocator<std::basic_string<char,std::char_traits<char>,std::allocator<char> > > >

; 1306 : 			this->_Alval.deallocate(this->_Myfirst,
; 1307 : 				this->_Myend - this->_Myfirst);

  00023	ff 36		 push	 DWORD PTR [esi]
  00025	e8 00 00 00 00	 call	 ??3@YAXPAX@Z		; operator delete
  0002a	83 c4 14	 add	 esp, 20			; 00000014H
$LN10@Tidy@3:

; 1308 : 			}
; 1309 : 		this->_Myfirst = 0;

  0002d	83 26 00	 and	 DWORD PTR [esi], 0

; 1310 : 		this->_Mylast = 0;

  00030	83 66 04 00	 and	 DWORD PTR [esi+4], 0

; 1311 : 		this->_Myend = 0;

  00034	83 66 08 00	 and	 DWORD PTR [esi+8], 0
  00038	5e		 pop	 esi

; 1312 : 		}

  00039	c9		 leave
  0003a	c3		 ret	 0
?_Tidy@?$vector@V?$basic_string@DU?$char_traits@D@std@@V?$allocator@D@2@@std@@V?$allocator@V?$basic_string@DU?$char_traits@D@std@@V?$allocator@D@2@@std@@@2@@std@@IAEXXZ ENDP ; std::vector<std::basic_string<char,std::char_traits<char>,std::allocator<char> >,std::allocator<std::basic_string<char,std::char_traits<char>,std::allocator<char> > > >::_Tidy
_TEXT	ENDS
PUBLIC	??$_Umove@PAV?$basic_string@DU?$char_traits@D@std@@V?$allocator@D@2@@std@@@?$vector@V?$basic_string@DU?$char_traits@D@std@@V?$allocator@D@2@@std@@V?$allocator@V?$basic_string@DU?$char_traits@D@std@@V?$allocator@D@2@@std@@@2@@std@@IAEPAV?$basic_string@DU?$char_traits@D@std@@V?$allocator@D@2@@1@PAV21@00@Z ; std::vector<std::basic_string<char,std::char_traits<char>,std::allocator<char> >,std::allocator<std::basic_string<char,std::char_traits<char>,std::allocator<char> > > >::_Umove<std::basic_string<char,std::char_traits<char>,std::allocator<char> > *>
; Function compile flags: /Ogsp
;	COMDAT ??$_Umove@PAV?$basic_string@DU?$char_traits@D@std@@V?$allocator@D@2@@std@@@?$vector@V?$basic_string@DU?$char_traits@D@std@@V?$allocator@D@2@@std@@V?$allocator@V?$basic_string@DU?$char_traits@D@std@@V?$allocator@D@2@@std@@@2@@std@@IAEPAV?$basic_string@DU?$char_traits@D@std@@V?$allocator@D@2@@1@PAV21@00@Z
_TEXT	SEGMENT
__First$ = 8						; size = 4
__Last$ = 12						; size = 4
__Ptr$ = 16						; size = 4
??$_Umove@PAV?$basic_string@DU?$char_traits@D@std@@V?$allocator@D@2@@std@@@?$vector@V?$basic_string@DU?$char_traits@D@std@@V?$allocator@D@2@@std@@V?$allocator@V?$basic_string@DU?$char_traits@D@std@@V?$allocator@D@2@@std@@@2@@std@@IAEPAV?$basic_string@DU?$char_traits@D@std@@V?$allocator@D@2@@1@PAV21@00@Z PROC ; std::vector<std::basic_string<char,std::char_traits<char>,std::allocator<char> >,std::allocator<std::basic_string<char,std::char_traits<char>,std::allocator<char> > > >::_Umove<std::basic_string<char,std::char_traits<char>,std::allocator<char> > *>, COMDAT
; _this$ = ecx

; 1322 : 		pointer _Umove(_Iter _First, _Iter _Last, pointer _Ptr)

  00000	55		 push	 ebp
  00001	8b ec		 mov	 ebp, esp

; 1323 : 		{	// move initializing [_First, _Last), using allocator
; 1324 : 		return (_Uninitialized_move(_First, _Last,
; 1325 : 			_Ptr, this->_Alval));

  00003	83 c1 0c	 add	 ecx, 12			; 0000000cH
  00006	51		 push	 ecx
  00007	ff 75 10	 push	 DWORD PTR __Ptr$[ebp]
  0000a	ff 75 0c	 push	 DWORD PTR __Last$[ebp]
  0000d	ff 75 08	 push	 DWORD PTR __First$[ebp]
  00010	e8 00 00 00 00	 call	 ??$_Uninitialized_move@PAV?$basic_string@DU?$char_traits@D@std@@V?$allocator@D@2@@std@@PAV12@V?$allocator@V?$basic_string@DU?$char_traits@D@std@@V?$allocator@D@2@@std@@@2@@std@@YAPAV?$basic_string@DU?$char_traits@D@std@@V?$allocator@D@2@@0@PAV10@00AAV?$allocator@V?$basic_string@DU?$char_traits@D@std@@V?$allocator@D@2@@std@@@0@@Z ; std::_Uninitialized_move<std::basic_string<char,std::char_traits<char>,std::allocator<char> > *,std::basic_string<char,std::char_traits<char>,std::allocator<char> > *,std::allocator<std::basic_string<char,std::char_traits<char>,std::allocator<char> > > >
  00015	83 c4 10	 add	 esp, 16			; 00000010H

; 1326 : 		}

  00018	5d		 pop	 ebp
  00019	c2 0c 00	 ret	 12			; 0000000cH
??$_Umove@PAV?$basic_string@DU?$char_traits@D@std@@V?$allocator@D@2@@std@@@?$vector@V?$basic_string@DU?$char_traits@D@std@@V?$allocator@D@2@@std@@V?$allocator@V?$basic_string@DU?$char_traits@D@std@@V?$allocator@D@2@@std@@@2@@std@@IAEPAV?$basic_string@DU?$char_traits@D@std@@V?$allocator@D@2@@1@PAV21@00@Z ENDP ; std::vector<std::basic_string<char,std::char_traits<char>,std::allocator<char> >,std::allocator<std::basic_string<char,std::char_traits<char>,std::allocator<char> > > >::_Umove<std::basic_string<char,std::char_traits<char>,std::allocator<char> > *>
_TEXT	ENDS
PUBLIC	??1?$vector@V?$basic_string@DU?$char_traits@D@std@@V?$allocator@D@2@@std@@V?$allocator@V?$basic_string@DU?$char_traits@D@std@@V?$allocator@D@2@@std@@@2@@std@@QAE@XZ ; std::vector<std::basic_string<char,std::char_traits<char>,std::allocator<char> >,std::allocator<std::basic_string<char,std::char_traits<char>,std::allocator<char> > > >::~vector<std::basic_string<char,std::char_traits<char>,std::allocator<char> >,std::allocator<std::basic_string<char,std::char_traits<char>,std::allocator<char> > > >
; Function compile flags: /Ogsp
;	COMDAT ??1?$vector@V?$basic_string@DU?$char_traits@D@std@@V?$allocator@D@2@@std@@V?$allocator@V?$basic_string@DU?$char_traits@D@std@@V?$allocator@D@2@@std@@@2@@std@@QAE@XZ
_TEXT	SEGMENT
??1?$vector@V?$basic_string@DU?$char_traits@D@std@@V?$allocator@D@2@@std@@V?$allocator@V?$basic_string@DU?$char_traits@D@std@@V?$allocator@D@2@@std@@@2@@std@@QAE@XZ PROC ; std::vector<std::basic_string<char,std::char_traits<char>,std::allocator<char> >,std::allocator<std::basic_string<char,std::char_traits<char>,std::allocator<char> > > >::~vector<std::basic_string<char,std::char_traits<char>,std::allocator<char> >,std::allocator<std::basic_string<char,std::char_traits<char>,std::allocator<char> > > >, COMDAT
; _this$ = ecx

; 705  : 		_Tidy();

  00000	e9 00 00 00 00	 jmp	 ?_Tidy@?$vector@V?$basic_string@DU?$char_traits@D@std@@V?$allocator@D@2@@std@@V?$allocator@V?$basic_string@DU?$char_traits@D@std@@V?$allocator@D@2@@std@@@2@@std@@IAEXXZ ; std::vector<std::basic_string<char,std::char_traits<char>,std::allocator<char> >,std::allocator<std::basic_string<char,std::char_traits<char>,std::allocator<char> > > >::_Tidy
??1?$vector@V?$basic_string@DU?$char_traits@D@std@@V?$allocator@D@2@@std@@V?$allocator@V?$basic_string@DU?$char_traits@D@std@@V?$allocator@D@2@@std@@@2@@std@@QAE@XZ ENDP ; std::vector<std::basic_string<char,std::char_traits<char>,std::allocator<char> >,std::allocator<std::basic_string<char,std::char_traits<char>,std::allocator<char> > > >::~vector<std::basic_string<char,std::char_traits<char>,std::allocator<char> >,std::allocator<std::basic_string<char,std::char_traits<char>,std::allocator<char> > > >
_TEXT	ENDS
PUBLIC	?reserve@?$vector@V?$basic_string@DU?$char_traits@D@std@@V?$allocator@D@2@@std@@V?$allocator@V?$basic_string@DU?$char_traits@D@std@@V?$allocator@D@2@@std@@@2@@std@@QAEXI@Z ; std::vector<std::basic_string<char,std::char_traits<char>,std::allocator<char> >,std::allocator<std::basic_string<char,std::char_traits<char>,std::allocator<char> > > >::reserve
;	COMDAT xdata$x
; File c:\program files (x86)\microsoft visual studio 10.0\vc\include\xmemory
xdata$x	SEGMENT
__catchsym$?reserve@?$vector@V?$basic_string@DU?$char_traits@D@std@@V?$allocator@D@2@@std@@V?$allocator@V?$basic_string@DU?$char_traits@D@std@@V?$allocator@D@2@@std@@@2@@std@@QAEXI@Z$2 DD 040H
	DD	00H
	DD	00H
	DD	FLAT:__catch$?reserve@?$vector@V?$basic_string@DU?$char_traits@D@std@@V?$allocator@D@2@@std@@V?$allocator@V?$basic_string@DU?$char_traits@D@std@@V?$allocator@D@2@@std@@@2@@std@@QAEXI@Z$0
__unwindtable$?reserve@?$vector@V?$basic_string@DU?$char_traits@D@std@@V?$allocator@D@2@@std@@V?$allocator@V?$basic_string@DU?$char_traits@D@std@@V?$allocator@D@2@@std@@@2@@std@@QAEXI@Z DD 0ffffffffH
	DD	00H
	DD	0ffffffffH
	DD	00H
__tryblocktable$?reserve@?$vector@V?$basic_string@DU?$char_traits@D@std@@V?$allocator@D@2@@std@@V?$allocator@V?$basic_string@DU?$char_traits@D@std@@V?$allocator@D@2@@std@@@2@@std@@QAEXI@Z DD 00H
	DD	00H
	DD	01H
	DD	01H
	DD	FLAT:__catchsym$?reserve@?$vector@V?$basic_string@DU?$char_traits@D@std@@V?$allocator@D@2@@std@@V?$allocator@V?$basic_string@DU?$char_traits@D@std@@V?$allocator@D@2@@std@@@2@@std@@QAEXI@Z$2
__ehfuncinfo$?reserve@?$vector@V?$basic_string@DU?$char_traits@D@std@@V?$allocator@D@2@@std@@V?$allocator@V?$basic_string@DU?$char_traits@D@std@@V?$allocator@D@2@@std@@@2@@std@@QAEXI@Z DD 019930522H
	DD	02H
	DD	FLAT:__unwindtable$?reserve@?$vector@V?$basic_string@DU?$char_traits@D@std@@V?$allocator@D@2@@std@@V?$allocator@V?$basic_string@DU?$char_traits@D@std@@V?$allocator@D@2@@std@@@2@@std@@QAEXI@Z
	DD	01H
	DD	FLAT:__tryblocktable$?reserve@?$vector@V?$basic_string@DU?$char_traits@D@std@@V?$allocator@D@2@@std@@V?$allocator@V?$basic_string@DU?$char_traits@D@std@@V?$allocator@D@2@@std@@@2@@std@@QAEXI@Z
	DD	2 DUP(00H)
	DD	00H
	DD	01H
; Function compile flags: /Ogsp
; File c:\program files (x86)\microsoft visual studio 10.0\vc\include\vector
xdata$x	ENDS
;	COMDAT ?reserve@?$vector@V?$basic_string@DU?$char_traits@D@std@@V?$allocator@D@2@@std@@V?$allocator@V?$basic_string@DU?$char_traits@D@std@@V?$allocator@D@2@@std@@@2@@std@@QAEXI@Z
_TEXT	SEGMENT
__$EHRec$ = -16						; size = 16
__Cat$554128 = 8					; size = 1
__Ptr$547355 = 8					; size = 4
__Count$ = 8						; size = 4
?reserve@?$vector@V?$basic_string@DU?$char_traits@D@std@@V?$allocator@D@2@@std@@V?$allocator@V?$basic_string@DU?$char_traits@D@std@@V?$allocator@D@2@@std@@@2@@std@@QAEXI@Z PROC ; std::vector<std::basic_string<char,std::char_traits<char>,std::allocator<char> >,std::allocator<std::basic_string<char,std::char_traits<char>,std::allocator<char> > > >::reserve, COMDAT
; _this$ = ecx

; 746  : 		{	// determine new minimum length of allocated storage

  00000	6a 04		 push	 4
  00002	b8 00 00 00 00	 mov	 eax, __ehhandler$?reserve@?$vector@V?$basic_string@DU?$char_traits@D@std@@V?$allocator@D@2@@std@@V?$allocator@V?$basic_string@DU?$char_traits@D@std@@V?$allocator@D@2@@std@@@2@@std@@QAEXI@Z
  00007	e8 00 00 00 00	 call	 __EH_prolog3_catch
  0000c	8b f1		 mov	 esi, ecx

; 747  : 		if (max_size() < _Count)

  0000e	8b 5d 08	 mov	 ebx, DWORD PTR __Count$[ebp]
  00011	81 fb 49 92 24
	09		 cmp	 ebx, 153391689		; 09249249H
  00017	76 0b		 jbe	 SHORT $LN5@reserve@2

; 748  : 			_Xlen();	// result too long

  00019	68 00 00 00 00	 push	 OFFSET ??_C@_0BD@OLBABOEK@vector?$DMT?$DO?5too?5long?$AA@
  0001e	ff 15 00 00 00
	00		 call	 DWORD PTR __imp_?_Xlength_error@std@@YAXPBD@Z
$LN42@reserve@2:
$LN5@reserve@2:

; 749  : 		else if (capacity() < _Count)

  00024	8b 46 08	 mov	 eax, DWORD PTR [esi+8]
  00027	2b 06		 sub	 eax, DWORD PTR [esi]
  00029	6a 1c		 push	 28			; 0000001cH
  0002b	99		 cdq
  0002c	59		 pop	 ecx
  0002d	f7 f9		 idiv	 ecx
  0002f	3b c3		 cmp	 eax, ebx
  00031	73 73		 jae	 SHORT $LN3@reserve@2

; 750  : 			{	// not enough room, reallocate
; 751  : 			pointer _Ptr = this->_Alval.allocate(_Count);

  00033	6a 00		 push	 0
  00035	53		 push	 ebx
  00036	e8 00 00 00 00	 call	 ??$_Allocate@V?$basic_string@DU?$char_traits@D@std@@V?$allocator@D@2@@std@@@std@@YAPAV?$basic_string@DU?$char_traits@D@std@@V?$allocator@D@2@@0@IPAV10@@Z ; std::_Allocate<std::basic_string<char,std::char_traits<char>,std::allocator<char> > >

; 752  : 
; 753  : 			_TRY_BEGIN
; 754  : 			_Umove(this->_Myfirst, this->_Mylast, _Ptr);

  0003b	8b 0e		 mov	 ecx, DWORD PTR [esi]
  0003d	83 65 fc 00	 and	 DWORD PTR __$EHRec$[ebp+12], 0
  00041	8d 56 0c	 lea	 edx, DWORD PTR [esi+12]
  00044	52		 push	 edx
  00045	89 45 08	 mov	 DWORD PTR __Ptr$547355[ebp], eax
  00048	ff 75 08	 push	 DWORD PTR __Ptr$547355[ebp]
  0004b	8b 46 04	 mov	 eax, DWORD PTR [esi+4]
  0004e	50		 push	 eax
  0004f	51		 push	 ecx
  00050	e8 00 00 00 00	 call	 ??$_Uninitialized_move@PAV?$basic_string@DU?$char_traits@D@std@@V?$allocator@D@2@@std@@PAV12@V?$allocator@V?$basic_string@DU?$char_traits@D@std@@V?$allocator@D@2@@std@@@2@@std@@YAPAV?$basic_string@DU?$char_traits@D@std@@V?$allocator@D@2@@0@PAV10@00AAV?$allocator@V?$basic_string@DU?$char_traits@D@std@@V?$allocator@D@2@@std@@@0@@Z ; std::_Uninitialized_move<std::basic_string<char,std::char_traits<char>,std::allocator<char> > *,std::basic_string<char,std::char_traits<char>,std::allocator<char> > *,std::allocator<std::basic_string<char,std::char_traits<char>,std::allocator<char> > > >

; 758  : 			_CATCH_END
; 759  : 
; 760  : 			size_type _Size = size();

  00055	8b 0e		 mov	 ecx, DWORD PTR [esi]
  00057	8b 46 04	 mov	 eax, DWORD PTR [esi+4]
  0005a	83 c4 18	 add	 esp, 24			; 00000018H
  0005d	2b c1		 sub	 eax, ecx
  0005f	6a 1c		 push	 28			; 0000001cH
  00061	99		 cdq
  00062	5f		 pop	 edi
  00063	f7 ff		 idiv	 edi
  00065	83 4d fc ff	 or	 DWORD PTR __$EHRec$[ebp+12], -1
  00069	8b f8		 mov	 edi, eax
  0006b	85 c9		 test	 ecx, ecx
  0006d	74 1a		 je	 SHORT $LN37@reserve@2

; 761  : 			if (this->_Myfirst != 0)
; 762  : 				{	// destroy and deallocate old array
; 763  : 				_Destroy(this->_Myfirst, this->_Mylast);

  0006f	ff 75 08	 push	 DWORD PTR __Cat$554128[ebp]
  00072	8d 46 0c	 lea	 eax, DWORD PTR [esi+12]
  00075	50		 push	 eax
  00076	ff 76 04	 push	 DWORD PTR [esi+4]
  00079	51		 push	 ecx
  0007a	e8 00 00 00 00	 call	 ??$_Destroy_range@V?$allocator@V?$basic_string@DU?$char_traits@D@std@@V?$allocator@D@2@@std@@@std@@@std@@YAXPAV?$basic_string@DU?$char_traits@D@std@@V?$allocator@D@2@@0@0AAV?$allocator@V?$basic_string@DU?$char_traits@D@std@@V?$allocator@D@2@@std@@@0@U_Nonscalar_ptr_iterator_tag@0@@Z ; std::_Destroy_range<std::allocator<std::basic_string<char,std::char_traits<char>,std::allocator<char> > > >

; 764  : 				this->_Alval.deallocate(this->_Myfirst,
; 765  : 					this->_Myend - this->_Myfirst);

  0007f	ff 36		 push	 DWORD PTR [esi]
  00081	e8 00 00 00 00	 call	 ??3@YAXPAX@Z		; operator delete
  00086	83 c4 14	 add	 esp, 20			; 00000014H
$LN37@reserve@2:

; 766  : 				}
; 767  : 
; 768  : 			this->_Orphan_all();

  00089	8b ce		 mov	 ecx, esi
  0008b	ff 15 00 00 00
	00		 call	 DWORD PTR __imp_?_Orphan_all@_Container_base0@std@@QAEXXZ

; 769  : 			this->_Myend = _Ptr + _Count;

  00091	6b db 1c	 imul	 ebx, 28			; 0000001cH

; 770  : 			this->_Mylast = _Ptr + _Size;

  00094	6b ff 1c	 imul	 edi, 28			; 0000001cH
  00097	8b 45 08	 mov	 eax, DWORD PTR __Ptr$547355[ebp]
  0009a	03 d8		 add	 ebx, eax
  0009c	03 f8		 add	 edi, eax
  0009e	89 5e 08	 mov	 DWORD PTR [esi+8], ebx
  000a1	89 7e 04	 mov	 DWORD PTR [esi+4], edi

; 771  : 			this->_Myfirst = _Ptr;

  000a4	89 06		 mov	 DWORD PTR [esi], eax
$LN3@reserve@2:

; 772  : 			}
; 773  : 		}

  000a6	e8 00 00 00 00	 call	 __EH_epilog3
  000ab	c2 04 00	 ret	 4
__catch$?reserve@?$vector@V?$basic_string@DU?$char_traits@D@std@@V?$allocator@D@2@@std@@V?$allocator@V?$basic_string@DU?$char_traits@D@std@@V?$allocator@D@2@@std@@@2@@std@@QAEXI@Z$0:

; 755  : 			_CATCH_ALL
; 756  : 			this->_Alval.deallocate(_Ptr, _Count);

  000ae	ff 75 08	 push	 DWORD PTR __Ptr$547355[ebp]
  000b1	e8 00 00 00 00	 call	 ??3@YAXPAX@Z		; operator delete
  000b6	59		 pop	 ecx

; 757  : 			_RERAISE;

  000b7	6a 00		 push	 0
  000b9	6a 00		 push	 0
  000bb	e8 00 00 00 00	 call	 __CxxThrowException@8
$LN43@reserve@2:
$LN41@reserve@2:
  000c0	cc		 int	 3
_TEXT	ENDS
;	COMDAT text$x
text$x	SEGMENT
__ehhandler$?reserve@?$vector@V?$basic_string@DU?$char_traits@D@std@@V?$allocator@D@2@@std@@V?$allocator@V?$basic_string@DU?$char_traits@D@std@@V?$allocator@D@2@@std@@@2@@std@@QAEXI@Z:
  00000	8b 54 24 08	 mov	 edx, DWORD PTR [esp+8]
  00004	8d 42 0c	 lea	 eax, DWORD PTR [edx+12]
  00007	8b 4a ec	 mov	 ecx, DWORD PTR [edx-20]
  0000a	33 c8		 xor	 ecx, eax
  0000c	e8 00 00 00 00	 call	 @__security_check_cookie@4
  00011	b8 00 00 00 00	 mov	 eax, OFFSET __ehfuncinfo$?reserve@?$vector@V?$basic_string@DU?$char_traits@D@std@@V?$allocator@D@2@@std@@V?$allocator@V?$basic_string@DU?$char_traits@D@std@@V?$allocator@D@2@@std@@@2@@std@@QAEXI@Z
  00016	e9 00 00 00 00	 jmp	 ___CxxFrameHandler3
text$x	ENDS
?reserve@?$vector@V?$basic_string@DU?$char_traits@D@std@@V?$allocator@D@2@@std@@V?$allocator@V?$basic_string@DU?$char_traits@D@std@@V?$allocator@D@2@@std@@@2@@std@@QAEXI@Z ENDP ; std::vector<std::basic_string<char,std::char_traits<char>,std::allocator<char> >,std::allocator<std::basic_string<char,std::char_traits<char>,std::allocator<char> > > >::reserve
PUBLIC	?_Reserve@?$vector@V?$basic_string@DU?$char_traits@D@std@@V?$allocator@D@2@@std@@V?$allocator@V?$basic_string@DU?$char_traits@D@std@@V?$allocator@D@2@@std@@@2@@std@@IAEXI@Z ; std::vector<std::basic_string<char,std::char_traits<char>,std::allocator<char> >,std::allocator<std::basic_string<char,std::char_traits<char>,std::allocator<char> > > >::_Reserve
; Function compile flags: /Ogsp
;	COMDAT ?_Reserve@?$vector@V?$basic_string@DU?$char_traits@D@std@@V?$allocator@D@2@@std@@V?$allocator@V?$basic_string@DU?$char_traits@D@std@@V?$allocator@D@2@@std@@@2@@std@@IAEXI@Z
_TEXT	SEGMENT
__Count$ = 8						; size = 4
?_Reserve@?$vector@V?$basic_string@DU?$char_traits@D@std@@V?$allocator@D@2@@std@@V?$allocator@V?$basic_string@DU?$char_traits@D@std@@V?$allocator@D@2@@std@@@2@@std@@IAEXI@Z PROC ; std::vector<std::basic_string<char,std::char_traits<char>,std::allocator<char> >,std::allocator<std::basic_string<char,std::char_traits<char>,std::allocator<char> > > >::_Reserve, COMDAT
; _this$ = ecx

; 1290 : 		{	// ensure room for _Count new elements, grow exponentially

  00000	55		 push	 ebp
  00001	8b ec		 mov	 ebp, esp
  00003	56		 push	 esi
  00004	8b f1		 mov	 esi, ecx

; 1291 : 		size_type _Size = size();

  00006	8b 0e		 mov	 ecx, DWORD PTR [esi]
  00008	8b 46 04	 mov	 eax, DWORD PTR [esi+4]
  0000b	2b c1		 sub	 eax, ecx
  0000d	57		 push	 edi
  0000e	99		 cdq
  0000f	6a 1c		 push	 28			; 0000001cH
  00011	5f		 pop	 edi
  00012	f7 ff		 idiv	 edi
  00014	8b f8		 mov	 edi, eax

; 1292 : 		if (max_size() - _Count < _Size)

  00016	b8 49 92 24 09	 mov	 eax, 153391689		; 09249249H
  0001b	2b 45 08	 sub	 eax, DWORD PTR __Count$[ebp]
  0001e	3b c7		 cmp	 eax, edi
  00020	73 0b		 jae	 SHORT $LN4@Reserve@2

; 1293 : 			_Xlen();

  00022	68 00 00 00 00	 push	 OFFSET ??_C@_0BD@OLBABOEK@vector?$DMT?$DO?5too?5long?$AA@
  00027	ff 15 00 00 00
	00		 call	 DWORD PTR __imp_?_Xlength_error@std@@YAXPBD@Z
$LN21@Reserve@2:
$LN4@Reserve@2:

; 1294 : 		else if ((_Size += _Count) <= capacity())

  0002d	8b 46 08	 mov	 eax, DWORD PTR [esi+8]
  00030	2b c1		 sub	 eax, ecx
  00032	6a 1c		 push	 28			; 0000001cH
  00034	99		 cdq
  00035	59		 pop	 ecx
  00036	f7 f9		 idiv	 ecx
  00038	03 7d 08	 add	 edi, DWORD PTR __Count$[ebp]
  0003b	3b f8		 cmp	 edi, eax
  0003d	76 10		 jbe	 SHORT $LN1@Reserve@2

; 1295 : 			;
; 1296 : 		else
; 1297 : 			reserve(_Grow_to(_Size));

  0003f	57		 push	 edi
  00040	8b ce		 mov	 ecx, esi
  00042	e8 00 00 00 00	 call	 ?_Grow_to@?$vector@V?$basic_string@DU?$char_traits@D@std@@V?$allocator@D@2@@std@@V?$allocator@V?$basic_string@DU?$char_traits@D@std@@V?$allocator@D@2@@std@@@2@@std@@IBEII@Z ; std::vector<std::basic_string<char,std::char_traits<char>,std::allocator<char> >,std::allocator<std::basic_string<char,std::char_traits<char>,std::allocator<char> > > >::_Grow_to
  00047	50		 push	 eax
  00048	8b ce		 mov	 ecx, esi
  0004a	e8 00 00 00 00	 call	 ?reserve@?$vector@V?$basic_string@DU?$char_traits@D@std@@V?$allocator@D@2@@std@@V?$allocator@V?$basic_string@DU?$char_traits@D@std@@V?$allocator@D@2@@std@@@2@@std@@QAEXI@Z ; std::vector<std::basic_string<char,std::char_traits<char>,std::allocator<char> >,std::allocator<std::basic_string<char,std::char_traits<char>,std::allocator<char> > > >::reserve
$LN1@Reserve@2:
  0004f	5f		 pop	 edi
  00050	5e		 pop	 esi

; 1298 : 		}

  00051	5d		 pop	 ebp
  00052	c2 04 00	 ret	 4
$LN20@Reserve@2:
?_Reserve@?$vector@V?$basic_string@DU?$char_traits@D@std@@V?$allocator@D@2@@std@@V?$allocator@V?$basic_string@DU?$char_traits@D@std@@V?$allocator@D@2@@std@@@2@@std@@IAEXI@Z ENDP ; std::vector<std::basic_string<char,std::char_traits<char>,std::allocator<char> >,std::allocator<std::basic_string<char,std::char_traits<char>,std::allocator<char> > > >::_Reserve
_TEXT	ENDS
PUBLIC	?push_back@?$vector@V?$basic_string@DU?$char_traits@D@std@@V?$allocator@D@2@@std@@V?$allocator@V?$basic_string@DU?$char_traits@D@std@@V?$allocator@D@2@@std@@@2@@std@@QAEX$$QAV?$basic_string@DU?$char_traits@D@std@@V?$allocator@D@2@@2@@Z ; std::vector<std::basic_string<char,std::char_traits<char>,std::allocator<char> >,std::allocator<std::basic_string<char,std::char_traits<char>,std::allocator<char> > > >::push_back
; Function compile flags: /Ogsp
;	COMDAT ?push_back@?$vector@V?$basic_string@DU?$char_traits@D@std@@V?$allocator@D@2@@std@@V?$allocator@V?$basic_string@DU?$char_traits@D@std@@V?$allocator@D@2@@std@@@2@@std@@QAEX$$QAV?$basic_string@DU?$char_traits@D@std@@V?$allocator@D@2@@2@@Z
_TEXT	SEGMENT
__Val$ = 8						; size = 4
?push_back@?$vector@V?$basic_string@DU?$char_traits@D@std@@V?$allocator@D@2@@std@@V?$allocator@V?$basic_string@DU?$char_traits@D@std@@V?$allocator@D@2@@std@@@2@@std@@QAEX$$QAV?$basic_string@DU?$char_traits@D@std@@V?$allocator@D@2@@2@@Z PROC ; std::vector<std::basic_string<char,std::char_traits<char>,std::allocator<char> >,std::allocator<std::basic_string<char,std::char_traits<char>,std::allocator<char> > > >::push_back, COMDAT
; _this$ = ecx

; 631  : 		{	// insert element at end

  00000	55		 push	 ebp
  00001	8b ec		 mov	 ebp, esp
  00003	56		 push	 esi
  00004	8b f1		 mov	 esi, ecx

; 632  : 		if (_Inside(_STD addressof(_Val)))

  00006	8b 4e 04	 mov	 ecx, DWORD PTR [esi+4]
  00009	57		 push	 edi
  0000a	8b 7d 08	 mov	 edi, DWORD PTR __Val$[ebp]
  0000d	3b f9		 cmp	 edi, ecx
  0000f	73 27		 jae	 SHORT $LN4@push_back@2
  00011	8b 16		 mov	 edx, DWORD PTR [esi]
  00013	3b d7		 cmp	 edx, edi
  00015	77 21		 ja	 SHORT $LN4@push_back@2

; 633  : 			{	// push back an element
; 634  : 			size_type _Idx = _STD addressof(_Val) - this->_Myfirst;

  00017	8b c7		 mov	 eax, edi
  00019	2b c2		 sub	 eax, edx
  0001b	6a 1c		 push	 28			; 0000001cH
  0001d	99		 cdq
  0001e	5f		 pop	 edi
  0001f	f7 ff		 idiv	 edi
  00021	8b f8		 mov	 edi, eax

; 635  : 			if (this->_Mylast == this->_Myend)

  00023	3b 4e 08	 cmp	 ecx, DWORD PTR [esi+8]
  00026	75 09		 jne	 SHORT $LN3@push_back@2

; 636  : 				_Reserve(1);

  00028	6a 01		 push	 1
  0002a	8b ce		 mov	 ecx, esi
  0002c	e8 00 00 00 00	 call	 ?_Reserve@?$vector@V?$basic_string@DU?$char_traits@D@std@@V?$allocator@D@2@@std@@V?$allocator@V?$basic_string@DU?$char_traits@D@std@@V?$allocator@D@2@@std@@@2@@std@@IAEXI@Z ; std::vector<std::basic_string<char,std::char_traits<char>,std::allocator<char> >,std::allocator<std::basic_string<char,std::char_traits<char>,std::allocator<char> > > >::_Reserve
$LN3@push_back@2:

; 637  : 			_Orphan_range(this->_Mylast, this->_Mylast);
; 638  : 			_Cons_val(this->_Alval,
; 639  : 				this->_Mylast,
; 640  : 				_STD forward<_Ty>(this->_Myfirst[_Idx]));

  00031	6b ff 1c	 imul	 edi, 28			; 0000001cH
  00034	03 3e		 add	 edi, DWORD PTR [esi]

; 641  : 			++this->_Mylast;
; 642  : 			}
; 643  : 		else

  00036	eb 0e		 jmp	 SHORT $LN1@push_back@2
$LN4@push_back@2:

; 644  : 			{	// push back a non-element
; 645  : 			if (this->_Mylast == this->_Myend)

  00038	3b 4e 08	 cmp	 ecx, DWORD PTR [esi+8]
  0003b	75 09		 jne	 SHORT $LN1@push_back@2

; 646  : 				_Reserve(1);

  0003d	6a 01		 push	 1
  0003f	8b ce		 mov	 ecx, esi
  00041	e8 00 00 00 00	 call	 ?_Reserve@?$vector@V?$basic_string@DU?$char_traits@D@std@@V?$allocator@D@2@@std@@V?$allocator@V?$basic_string@DU?$char_traits@D@std@@V?$allocator@D@2@@std@@@2@@std@@IAEXI@Z ; std::vector<std::basic_string<char,std::char_traits<char>,std::allocator<char> >,std::allocator<std::basic_string<char,std::char_traits<char>,std::allocator<char> > > >::_Reserve
$LN1@push_back@2:

; 647  : 			_Orphan_range(this->_Mylast, this->_Mylast);
; 648  : 			_Cons_val(this->_Alval,
; 649  : 				this->_Mylast,
; 650  : 				_STD forward<_Ty>(_Val));

  00046	57		 push	 edi
  00047	ff 76 04	 push	 DWORD PTR [esi+4]
  0004a	8d 46 0c	 lea	 eax, DWORD PTR [esi+12]
  0004d	50		 push	 eax
  0004e	e8 00 00 00 00	 call	 ??$_Cons_val@V?$allocator@V?$basic_string@DU?$char_traits@D@std@@V?$allocator@D@2@@std@@@std@@V?$basic_string@DU?$char_traits@D@std@@V?$allocator@D@2@@2@V32@@std@@YAXAAV?$allocator@V?$basic_string@DU?$char_traits@D@std@@V?$allocator@D@2@@std@@@0@PAV?$basic_string@DU?$char_traits@D@std@@V?$allocator@D@2@@0@$$QAV20@@Z ; std::_Cons_val<std::allocator<std::basic_string<char,std::char_traits<char>,std::allocator<char> > >,std::basic_string<char,std::char_traits<char>,std::allocator<char> >,std::basic_string<char,std::char_traits<char>,std::allocator<char> > >
  00053	83 c4 0c	 add	 esp, 12			; 0000000cH

; 651  : 			++this->_Mylast;

  00056	83 46 04 1c	 add	 DWORD PTR [esi+4], 28	; 0000001cH
  0005a	5f		 pop	 edi
  0005b	5e		 pop	 esi

; 652  : 			}
; 653  : 		}

  0005c	5d		 pop	 ebp
  0005d	c2 04 00	 ret	 4
?push_back@?$vector@V?$basic_string@DU?$char_traits@D@std@@V?$allocator@D@2@@std@@V?$allocator@V?$basic_string@DU?$char_traits@D@std@@V?$allocator@D@2@@std@@@2@@std@@QAEX$$QAV?$basic_string@DU?$char_traits@D@std@@V?$allocator@D@2@@2@@Z ENDP ; std::vector<std::basic_string<char,std::char_traits<char>,std::allocator<char> >,std::allocator<std::basic_string<char,std::char_traits<char>,std::allocator<char> > > >::push_back
_TEXT	ENDS
PUBLIC	_pOpenWnd$GSCopy$
PUBLIC	?OpenScreenShotList@GameOptionMovieScreenShotTab@@IAEXPAVioWnd@@@Z ; GameOptionMovieScreenShotTab::OpenScreenShotList
EXTRN	?OpenList@StringSelectList@@QAEXPAVioWnd@@AAV?$vector@V?$basic_string@DU?$char_traits@D@std@@V?$allocator@D@2@@std@@V?$allocator@V?$basic_string@DU?$char_traits@D@std@@V?$allocator@D@2@@std@@@2@@std@@HK@Z:PROC ; StringSelectList::OpenList
;	COMDAT xdata$x
xdata$x	SEGMENT
__unwindtable$?OpenScreenShotList@GameOptionMovieScreenShotTab@@IAEXPAVioWnd@@@Z DD 0ffffffffH
	DD	FLAT:__unwindfunclet$?OpenScreenShotList@GameOptionMovieScreenShotTab@@IAEXPAVioWnd@@@Z$0
	DD	00H
	DD	FLAT:__unwindfunclet$?OpenScreenShotList@GameOptionMovieScreenShotTab@@IAEXPAVioWnd@@@Z$1
	DD	00H
	DD	FLAT:__unwindfunclet$?OpenScreenShotList@GameOptionMovieScreenShotTab@@IAEXPAVioWnd@@@Z$2
__ehfuncinfo$?OpenScreenShotList@GameOptionMovieScreenShotTab@@IAEXPAVioWnd@@@Z DD 019930522H
	DD	03H
	DD	FLAT:__unwindtable$?OpenScreenShotList@GameOptionMovieScreenShotTab@@IAEXPAVioWnd@@@Z
	DD	2 DUP(00H)
	DD	2 DUP(00H)
	DD	00H
	DD	01H
; Function compile flags: /Ogsp
; File d:\lost saga for developer\youtube\tutorial\source\src\lsclient\gui\gameoptionsettingtab.cpp
xdata$x	ENDS
;	COMDAT ?OpenScreenShotList@GameOptionMovieScreenShotTab@@IAEXPAVioWnd@@@Z
_TEXT	SEGMENT
_pOpenWnd$GSCopy$ = -68					; size = 4
_vNameList$547148 = -64					; size = 16
_pList$ = -48						; size = 4
$T547150 = -44						; size = 28
$T547149 = -44						; size = 28
__$EHRec$ = -12						; size = 12
_pOpenWnd$ = 8						; size = 4
?OpenScreenShotList@GameOptionMovieScreenShotTab@@IAEXPAVioWnd@@@Z PROC ; GameOptionMovieScreenShotTab::OpenScreenShotList, COMDAT
; _this$ = ecx

; 2773 : {

  00000	6a 38		 push	 56			; 00000038H
  00002	b8 00 00 00 00	 mov	 eax, __ehhandler$?OpenScreenShotList@GameOptionMovieScreenShotTab@@IAEXPAVioWnd@@@Z
  00007	e8 00 00 00 00	 call	 __EH_prolog3_GS
  0000c	8b 45 08	 mov	 eax, DWORD PTR _pOpenWnd$[ebp]

; 2774 : 	StringSelectList *pList = (StringSelectList*)FindChildWnd( ID_SCREEN_SHOT_RESOLUTION_LIST );

  0000f	68 7e 0e 00 00	 push	 3710			; 00000e7eH
  00014	8b f9		 mov	 edi, ecx
  00016	89 45 bc	 mov	 DWORD PTR _pOpenWnd$GSCopy$[ebp], eax
  00019	ff 15 00 00 00
	00		 call	 DWORD PTR __imp_?FindChildWnd@ioWnd@@QAEPAV1@K@Z

; 2775 : 	if( pList )

  0001f	33 db		 xor	 ebx, ebx
  00021	89 45 d0	 mov	 DWORD PTR _pList$[ebp], eax
  00024	3b c3		 cmp	 eax, ebx
  00026	0f 84 b1 00 00
	00		 je	 $LN83@OpenScreen

; 2776 : 	{
; 2777 : 		StringVector vNameList;

  0002c	89 5d c0	 mov	 DWORD PTR _vNameList$547148[ebp], ebx
  0002f	89 5d c4	 mov	 DWORD PTR _vNameList$547148[ebp+4], ebx
  00032	89 5d c8	 mov	 DWORD PTR _vNameList$547148[ebp+8], ebx

; 2778 : 		vNameList.reserve( 2 );

  00035	6a 02		 push	 2
  00037	8d 4d c0	 lea	 ecx, DWORD PTR _vNameList$547148[ebp]
  0003a	89 5d fc	 mov	 DWORD PTR __$EHRec$[ebp+8], ebx
  0003d	e8 00 00 00 00	 call	 ?reserve@?$vector@V?$basic_string@DU?$char_traits@D@std@@V?$allocator@D@2@@std@@V?$allocator@V?$basic_string@DU?$char_traits@D@std@@V?$allocator@D@2@@std@@@2@@std@@QAEXI@Z ; std::vector<std::basic_string<char,std::char_traits<char>,std::allocator<char> >,std::allocator<std::basic_string<char,std::char_traits<char>,std::allocator<char> > > >::reserve

; 2779 : 		vNameList.push_back( std::string( "JPG" ) );

  00042	6a 0f		 push	 15			; 0000000fH
  00044	5e		 pop	 esi
  00045	6a 03		 push	 3
  00047	68 00 00 00 00	 push	 OFFSET ??_C@_03PJJGGPMI@JPG?$AA@
  0004c	8d 4d d4	 lea	 ecx, DWORD PTR $T547149[ebp]
  0004f	89 75 e8	 mov	 DWORD PTR $T547149[ebp+20], esi
  00052	89 5d e4	 mov	 DWORD PTR $T547149[ebp+16], ebx
  00055	88 5d d4	 mov	 BYTE PTR $T547149[ebp], bl
  00058	e8 00 00 00 00	 call	 ?assign@?$basic_string@DU?$char_traits@D@std@@V?$allocator@D@2@@std@@QAEAAV12@PBDI@Z ; std::basic_string<char,std::char_traits<char>,std::allocator<char> >::assign
  0005d	8d 45 d4	 lea	 eax, DWORD PTR $T547149[ebp]
  00060	50		 push	 eax
  00061	8d 4d c0	 lea	 ecx, DWORD PTR _vNameList$547148[ebp]
  00064	c6 45 fc 01	 mov	 BYTE PTR __$EHRec$[ebp+8], 1
  00068	e8 00 00 00 00	 call	 ?push_back@?$vector@V?$basic_string@DU?$char_traits@D@std@@V?$allocator@D@2@@std@@V?$allocator@V?$basic_string@DU?$char_traits@D@std@@V?$allocator@D@2@@std@@@2@@std@@QAEX$$QAV?$basic_string@DU?$char_traits@D@std@@V?$allocator@D@2@@2@@Z ; std::vector<std::basic_string<char,std::char_traits<char>,std::allocator<char> >,std::allocator<std::basic_string<char,std::char_traits<char>,std::allocator<char> > > >::push_back
  0006d	53		 push	 ebx
  0006e	6a 01		 push	 1
  00070	8d 4d d4	 lea	 ecx, DWORD PTR $T547149[ebp]
  00073	88 5d fc	 mov	 BYTE PTR __$EHRec$[ebp+8], bl
  00076	e8 00 00 00 00	 call	 ?_Tidy@?$basic_string@DU?$char_traits@D@std@@V?$allocator@D@2@@std@@QAEX_NI@Z ; std::basic_string<char,std::char_traits<char>,std::allocator<char> >::_Tidy

; 2780 : 		vNameList.push_back( std::string( "BMP" ) );

  0007b	6a 03		 push	 3
  0007d	68 00 00 00 00	 push	 OFFSET ??_C@_03CNFPPDJC@BMP?$AA@
  00082	8d 4d d4	 lea	 ecx, DWORD PTR $T547150[ebp]
  00085	89 75 e8	 mov	 DWORD PTR $T547150[ebp+20], esi
  00088	89 5d e4	 mov	 DWORD PTR $T547150[ebp+16], ebx
  0008b	88 5d d4	 mov	 BYTE PTR $T547150[ebp], bl
  0008e	e8 00 00 00 00	 call	 ?assign@?$basic_string@DU?$char_traits@D@std@@V?$allocator@D@2@@std@@QAEAAV12@PBDI@Z ; std::basic_string<char,std::char_traits<char>,std::allocator<char> >::assign
  00093	8d 45 d4	 lea	 eax, DWORD PTR $T547150[ebp]
  00096	50		 push	 eax
  00097	8d 4d c0	 lea	 ecx, DWORD PTR _vNameList$547148[ebp]
  0009a	c6 45 fc 02	 mov	 BYTE PTR __$EHRec$[ebp+8], 2
  0009e	e8 00 00 00 00	 call	 ?push_back@?$vector@V?$basic_string@DU?$char_traits@D@std@@V?$allocator@D@2@@std@@V?$allocator@V?$basic_string@DU?$char_traits@D@std@@V?$allocator@D@2@@std@@@2@@std@@QAEX$$QAV?$basic_string@DU?$char_traits@D@std@@V?$allocator@D@2@@2@@Z ; std::vector<std::basic_string<char,std::char_traits<char>,std::allocator<char> >,std::allocator<std::basic_string<char,std::char_traits<char>,std::allocator<char> > > >::push_back
  000a3	53		 push	 ebx
  000a4	6a 01		 push	 1
  000a6	8d 4d d4	 lea	 ecx, DWORD PTR $T547150[ebp]
  000a9	88 5d fc	 mov	 BYTE PTR __$EHRec$[ebp+8], bl
  000ac	e8 00 00 00 00	 call	 ?_Tidy@?$basic_string@DU?$char_traits@D@std@@V?$allocator@D@2@@std@@QAEX_NI@Z ; std::basic_string<char,std::char_traits<char>,std::allocator<char> >::_Tidy

; 2781 : 		pList->OpenList( pOpenWnd, vNameList, (int)(!m_CurrentOption.m_bScreenShotFormatJPG), IO_RESOLUTION_CHANGE );

  000b1	8b 4d d0	 mov	 ecx, DWORD PTR _pList$[ebp]
  000b4	33 c0		 xor	 eax, eax
  000b6	38 9f c0 01 00
	00		 cmp	 BYTE PTR [edi+448], bl
  000bc	68 0a 10 00 00	 push	 4106			; 0000100aH
  000c1	0f 94 c0	 sete	 al
  000c4	50		 push	 eax
  000c5	8d 45 c0	 lea	 eax, DWORD PTR _vNameList$547148[ebp]
  000c8	50		 push	 eax
  000c9	ff 75 bc	 push	 DWORD PTR _pOpenWnd$GSCopy$[ebp]
  000cc	e8 00 00 00 00	 call	 ?OpenList@StringSelectList@@QAEXPAVioWnd@@AAV?$vector@V?$basic_string@DU?$char_traits@D@std@@V?$allocator@D@2@@std@@V?$allocator@V?$basic_string@DU?$char_traits@D@std@@V?$allocator@D@2@@std@@@2@@std@@HK@Z ; StringSelectList::OpenList

; 2782 : 	}

  000d1	83 4d fc ff	 or	 DWORD PTR __$EHRec$[ebp+8], -1
  000d5	8d 4d c0	 lea	 ecx, DWORD PTR _vNameList$547148[ebp]
  000d8	e8 00 00 00 00	 call	 ?_Tidy@?$vector@V?$basic_string@DU?$char_traits@D@std@@V?$allocator@D@2@@std@@V?$allocator@V?$basic_string@DU?$char_traits@D@std@@V?$allocator@D@2@@std@@@2@@std@@IAEXXZ ; std::vector<std::basic_string<char,std::char_traits<char>,std::allocator<char> >,std::allocator<std::basic_string<char,std::char_traits<char>,std::allocator<char> > > >::_Tidy
$LN83@OpenScreen:

; 2783 : }

  000dd	e8 00 00 00 00	 call	 __EH_epilog3_GS
  000e2	c2 04 00	 ret	 4
_TEXT	ENDS
;	COMDAT text$x
text$x	SEGMENT
__unwindfunclet$?OpenScreenShotList@GameOptionMovieScreenShotTab@@IAEXPAVioWnd@@@Z$0:
  00000	8d 4d c0	 lea	 ecx, DWORD PTR _vNameList$547148[ebp]
  00003	e9 00 00 00 00	 jmp	 ??1?$vector@V?$basic_string@DU?$char_traits@D@std@@V?$allocator@D@2@@std@@V?$allocator@V?$basic_string@DU?$char_traits@D@std@@V?$allocator@D@2@@std@@@2@@std@@QAE@XZ ; std::vector<std::basic_string<char,std::char_traits<char>,std::allocator<char> >,std::allocator<std::basic_string<char,std::char_traits<char>,std::allocator<char> > > >::~vector<std::basic_string<char,std::char_traits<char>,std::allocator<char> >,std::allocator<std::basic_string<char,std::char_traits<char>,std::allocator<char> > > >
__unwindfunclet$?OpenScreenShotList@GameOptionMovieScreenShotTab@@IAEXPAVioWnd@@@Z$1:
  00008	8d 4d d4	 lea	 ecx, DWORD PTR $T547149[ebp]
  0000b	e9 00 00 00 00	 jmp	 ??1?$basic_string@DU?$char_traits@D@std@@V?$allocator@D@2@@std@@QAE@XZ ; std::basic_string<char,std::char_traits<char>,std::allocator<char> >::~basic_string<char,std::char_traits<char>,std::allocator<char> >
__unwindfunclet$?OpenScreenShotList@GameOptionMovieScreenShotTab@@IAEXPAVioWnd@@@Z$2:
  00010	8d 4d d4	 lea	 ecx, DWORD PTR $T547150[ebp]
  00013	e9 00 00 00 00	 jmp	 ??1?$basic_string@DU?$char_traits@D@std@@V?$allocator@D@2@@std@@QAE@XZ ; std::basic_string<char,std::char_traits<char>,std::allocator<char> >::~basic_string<char,std::char_traits<char>,std::allocator<char> >
__ehhandler$?OpenScreenShotList@GameOptionMovieScreenShotTab@@IAEXPAVioWnd@@@Z:
  00018	8b 54 24 08	 mov	 edx, DWORD PTR [esp+8]
  0001c	8d 42 0c	 lea	 eax, DWORD PTR [edx+12]
  0001f	8b 4a b8	 mov	 ecx, DWORD PTR [edx-72]
  00022	33 c8		 xor	 ecx, eax
  00024	e8 00 00 00 00	 call	 @__security_check_cookie@4
  00029	8b 4a fc	 mov	 ecx, DWORD PTR [edx-4]
  0002c	33 c8		 xor	 ecx, eax
  0002e	e8 00 00 00 00	 call	 @__security_check_cookie@4
  00033	b8 00 00 00 00	 mov	 eax, OFFSET __ehfuncinfo$?OpenScreenShotList@GameOptionMovieScreenShotTab@@IAEXPAVioWnd@@@Z
  00038	e9 00 00 00 00	 jmp	 ___CxxFrameHandler3
text$x	ENDS
?OpenScreenShotList@GameOptionMovieScreenShotTab@@IAEXPAVioWnd@@@Z ENDP ; GameOptionMovieScreenShotTab::OpenScreenShotList
PUBLIC	??_C@_0CK@MCCIHPPH@GameOptionMovieScreenShotTab?3?3iw@ ; `string'
EXTRN	?SetNoneUIMode@ioSP2GUIManager@@QAEX_N@Z:PROC	; ioSP2GUIManager::SetNoneUIMode
EXTRN	?CheckMouseControlMode@ioApplication@@QAEX_N@Z:PROC ; ioApplication::CheckMouseControlMode
EXTRN	?GetModeType@ioPlayStage@@QBE?AW4ModeType@@XZ:PROC ; ioPlayStage::GetModeType
EXTRN	__imp_?GetLocalType@ioLocalManagerParent@@SA?AW4LocalType@1@XZ:PROC
;	COMDAT ??_C@_0CK@MCCIHPPH@GameOptionMovieScreenShotTab?3?3iw@
; File d:\lost saga for developer\youtube\tutorial\source\src\lsclient\iomyroommode.h
CONST	SEGMENT
??_C@_0CK@MCCIHPPH@GameOptionMovieScreenShotTab?3?3iw@ DB 'GameOptionMovi'
	DB	'eScreenShotTab::iwm_command', 00H		; `string'
CONST	ENDS
;	COMDAT xdata$x
xdata$x	SEGMENT
__unwindtable$?iwm_command@GameOptionMovieScreenShotTab@@UAEXPAVioWnd@@HK@Z DD 0ffffffffH
	DD	FLAT:__unwindfunclet$?iwm_command@GameOptionMovieScreenShotTab@@UAEXPAVioWnd@@HK@Z$0
__ehfuncinfo$?iwm_command@GameOptionMovieScreenShotTab@@UAEXPAVioWnd@@HK@Z DD 019930522H
	DD	01H
	DD	FLAT:__unwindtable$?iwm_command@GameOptionMovieScreenShotTab@@UAEXPAVioWnd@@HK@Z
	DD	2 DUP(00H)
	DD	2 DUP(00H)
	DD	00H
	DD	01H
; Function compile flags: /Ogsp
; File d:\lost saga for developer\youtube\tutorial\source\src\lsclient\gui\gameoptionsettingtab.cpp
xdata$x	ENDS
;	COMDAT ?iwm_command@GameOptionMovieScreenShotTab@@UAEXPAVioWnd@@HK@Z
_TEXT	SEGMENT
_szText$547076 = -28					; size = 16
__$EHRec$ = -12						; size = 12
_pWnd$ = 8						; size = 4
_cmd$ = 12						; size = 4
_param$ = 16						; size = 4
?iwm_command@GameOptionMovieScreenShotTab@@UAEXPAVioWnd@@HK@Z PROC ; GameOptionMovieScreenShotTab::iwm_command, COMDAT
; _this$ = ecx

; 2414 : {

  00000	6a 10		 push	 16			; 00000010H
  00002	b8 00 00 00 00	 mov	 eax, __ehhandler$?iwm_command@GameOptionMovieScreenShotTab@@UAEXPAVioWnd@@HK@Z
  00007	e8 00 00 00 00	 call	 __EH_prolog3
  0000c	8b f1		 mov	 esi, ecx

; 2415 : 	DWORD dwID = pWnd->GetID();

  0000e	8b 7d 08	 mov	 edi, DWORD PTR _pWnd$[ebp]
  00011	8b cf		 mov	 ecx, edi
  00013	ff 15 00 00 00
	00		 call	 DWORD PTR __imp_?GetID@ioWnd@@QBEKXZ

; 2416 : 
; 2417 : 	switch( dwID )

  00019	83 f8 78	 cmp	 eax, 120		; 00000078H
  0001c	0f 87 2d 03 00
	00		 ja	 $LN75@iwm_comman@8
  00022	0f 84 16 03 00
	00		 je	 $LN30@iwm_comman@8
  00028	83 f8 69	 cmp	 eax, 105		; 00000069H
  0002b	0f 87 1c 02 00
	00		 ja	 $LN76@iwm_comman@8
  00031	0f 84 d6 01 00
	00		 je	 $LN65@iwm_comman@8
  00037	48		 dec	 eax
  00038	0f 84 89 01 00
	00		 je	 $LN24@iwm_comman@8
  0003e	48		 dec	 eax
  0003f	0f 84 76 01 00
	00		 je	 $LN19@iwm_comman@8
  00045	48		 dec	 eax
  00046	0f 84 3f 01 00
	00		 je	 $LN21@iwm_comman@8
  0004c	48		 dec	 eax
  0004d	74 64		 je	 SHORT $LN16@iwm_comman@8
  0004f	83 e8 63	 sub	 eax, 99			; 00000063H
  00052	0f 85 37 05 00
	00		 jne	 $LN39@iwm_comman@8

; 2418 : 	{	
; 2419 : 	case ID_MOVIE_SIZE_BTN:
; 2420 : 		if( cmd == IOBN_BTNUP )

  00058	83 7d 0c 11	 cmp	 DWORD PTR _cmd$[ebp], 17 ; 00000011H
  0005c	75 15		 jne	 SHORT $LN69@iwm_comman@8

; 2421 : 		{
; 2422 : 			OpenResolutionList( pWnd, ioMovieMaker::MO_SIZE, m_CurrentOption.m_iMovieSizeType );

  0005e	ff b6 e4 01 00
	00		 push	 DWORD PTR [esi+484]
  00064	6a 01		 push	 1
$LN98@iwm_comman@8:
  00066	57		 push	 edi
  00067	8b ce		 mov	 ecx, esi
  00069	e8 00 00 00 00	 call	 ?OpenResolutionList@GameOptionMovieScreenShotTab@@IAEXPAVioWnd@@HH@Z ; GameOptionMovieScreenShotTab::OpenResolutionList
  0006e	e9 1c 05 00 00	 jmp	 $LN39@iwm_comman@8
$LN69@iwm_comman@8:

; 2423 : 		}
; 2424 : 		else if( cmd == IO_RESOLUTION_CHANGE )

  00073	81 7d 0c 0a 10
	00 00		 cmp	 DWORD PTR _cmd$[ebp], 4106 ; 0000100aH
  0007a	0f 85 0f 05 00
	00		 jne	 $LN39@iwm_comman@8

; 2425 : 		{
; 2426 : 			if( m_CurrentOption.m_iMovieSizeType != param )

  00080	8b 5d 10	 mov	 ebx, DWORD PTR _param$[ebp]
  00083	39 9e e4 01 00
	00		 cmp	 DWORD PTR [esi+484], ebx
  00089	74 0a		 je	 SHORT $LN66@iwm_comman@8

; 2427 : 				SetChildActive( ID_APPLY );

  0008b	6a 03		 push	 3
  0008d	8b ce		 mov	 ecx, esi
  0008f	ff 15 00 00 00
	00		 call	 DWORD PTR __imp_?SetChildActive@ioWnd@@QAEXK@Z
$LN66@iwm_comman@8:

; 2428 : 
; 2429 : 			m_CurrentOption.m_iMovieSizeType   = param;

  00095	89 9e e4 01 00
	00		 mov	 DWORD PTR [esi+484], ebx
$LN95@iwm_comman@8:

; 2430 : 			UpdateEditBtn(true);

  0009b	6a 01		 push	 1
  0009d	8b ce		 mov	 ecx, esi
  0009f	e8 00 00 00 00	 call	 ?UpdateEditBtn@GameOptionMovieScreenShotTab@@IAEX_N@Z ; GameOptionMovieScreenShotTab::UpdateEditBtn

; 2431 : 			UpdateByCurrentOption();

  000a4	8b 06		 mov	 eax, DWORD PTR [esi]
  000a6	8b ce		 mov	 ecx, esi
  000a8	ff 90 30 01 00
	00		 call	 DWORD PTR [eax+304]

; 2432 : 		}
; 2433 : 		break;

  000ae	e9 dc 04 00 00	 jmp	 $LN39@iwm_comman@8
$LN16@iwm_comman@8:

; 2600 : 	case ID_DEFAULT:
; 2601 : 		if ( cmd == IOBN_BTNUP )

  000b3	83 7d 0c 11	 cmp	 DWORD PTR _cmd$[ebp], 17 ; 00000011H
  000b7	0f 85 d2 04 00
	00		 jne	 $LN39@iwm_comman@8

; 2602 : 		{
; 2603 : 			m_CurrentOption.m_bScreenShotFormatJPG = true;	

  000bd	33 db		 xor	 ebx, ebx
  000bf	43		 inc	 ebx
  000c0	88 9e c0 01 00
	00		 mov	 BYTE PTR [esi+448], bl

; 2604 : 
; 2605 : 			//    
; 2606 : 			if( ioLocalManager::GetLocalType() == ioLocalManager::LCT_TAIWAN )

  000c6	ff 15 00 00 00
	00		 call	 DWORD PTR __imp_?GetLocalType@ioLocalManagerParent@@SA?AW4LocalType@1@XZ
  000cc	33 c9		 xor	 ecx, ecx
  000ce	bf 10 9c 1a 1f	 mov	 edi, 521837584		; 1f1a9c10H
  000d3	3b c7		 cmp	 eax, edi
  000d5	0f 95 c1	 setne	 cl

; 2607 : 				m_CurrentOption.m_iMovieSizeType   = ioMovieMaker::SIZE_TYPE_1;
; 2608 : 			else
; 2609 : 				m_CurrentOption.m_iMovieSizeType   = ioMovieMaker::SIZE_DEF;
; 2610 : 
; 2611 : 			m_CurrentOption.m_iMovieFrameType  = ioMovieMaker::FRAME_DEF;

  000d8	89 9e e8 01 00
	00		 mov	 DWORD PTR [esi+488], ebx

; 2612 : 			m_CurrentOption.m_iMovieQualityType= ioMovieMaker::QUALITY_DEF;

  000de	c7 86 ec 01 00
	00 03 00 00 00	 mov	 DWORD PTR [esi+492], 3

; 2613 : 			m_CurrentOption.m_iMovieSoundType  = ioMovieMaker::SOUND_DEF;

  000e8	c7 86 f0 01 00
	00 02 00 00 00	 mov	 DWORD PTR [esi+496], 2

; 2614 : 			m_CurrentOption.m_iMovieCodec      = ioMovieMaker::CODEC_DEF;

  000f2	89 9e e0 01 00
	00		 mov	 DWORD PTR [esi+480], ebx

; 2615 : 			m_CurrentOption.m_bNoUIModeTeamCircleShow = false;

  000f8	c6 86 cd 01 00
	00 00		 mov	 BYTE PTR [esi+461], 0
  000ff	41		 inc	 ecx
  00100	89 8e e4 01 00
	00		 mov	 DWORD PTR [esi+484], ecx

; 2616 : 
; 2617 : 			//    
; 2618 : 			if( ioLocalManager::GetLocalType() == ioLocalManager::LCT_TAIWAN )

  00106	ff 15 00 00 00
	00		 call	 DWORD PTR __imp_?GetLocalType@ioLocalManagerParent@@SA?AW4LocalType@1@XZ
  0010c	3b c7		 cmp	 eax, edi
  0010e	75 0e		 jne	 SHORT $LN12@iwm_comman@8

; 2619 : 			{
; 2620 : 				m_CurrentOption.m_bNoUIModeIDShow = true;

  00110	88 9e ce 01 00
	00		 mov	 BYTE PTR [esi+462], bl

; 2621 : 				m_CurrentOption.m_bNoUIModeHPShow = true;

  00116	88 9e cf 01 00
	00		 mov	 BYTE PTR [esi+463], bl

; 2622 : 			}
; 2623 : 			else

  0011c	eb 09		 jmp	 SHORT $LN11@iwm_comman@8
$LN12@iwm_comman@8:

; 2624 : 			{
; 2625 : 				m_CurrentOption.m_bNoUIModeIDShow = false;

  0011e	66 c7 86 ce 01
	00 00 00 00	 mov	 WORD PTR [esi+462], 0
$LN11@iwm_comman@8:

; 2626 : 				m_CurrentOption.m_bNoUIModeHPShow = false;
; 2627 : 			}
; 2628 : 			
; 2629 : 			m_CurrentOption.m_bNoUIModeChatBubbleShow = false;
; 2630 : 			m_CurrentOption.m_bMovieModeUIHide= true;
; 2631 : 
; 2632 : 			ioHashString szText;

  00127	8d 4d e4	 lea	 ecx, DWORD PTR _szText$547076[ebp]
  0012a	c6 86 d0 01 00
	00 00		 mov	 BYTE PTR [esi+464], 0
  00131	88 9e d1 01 00
	00		 mov	 BYTE PTR [esi+465], bl
  00137	ff 15 00 00 00
	00		 call	 DWORD PTR __imp_??0ioHashString@@QAE@XZ
  0013d	83 65 fc 00	 and	 DWORD PTR __$EHRec$[ebp+8], 0

; 2633 : 			GetDefaultScreenShotFolderName( szText );

  00141	8d 45 e4	 lea	 eax, DWORD PTR _szText$547076[ebp]
  00144	50		 push	 eax
  00145	8b ce		 mov	 ecx, esi
  00147	e8 00 00 00 00	 call	 ?GetDefaultScreenShotFolderName@GameOptionMovieScreenShotTab@@QAEXAAVioHashString@@@Z ; GameOptionMovieScreenShotTab::GetDefaultScreenShotFolderName

; 2634 : 			SetTextEditBtn( szText.c_str() );

  0014c	8d 4d e4	 lea	 ecx, DWORD PTR _szText$547076[ebp]
  0014f	ff 15 00 00 00
	00		 call	 DWORD PTR __imp_?c_str@ioHashString@@QBEPBDXZ
  00155	50		 push	 eax
  00156	8b ce		 mov	 ecx, esi
  00158	e8 00 00 00 00	 call	 ?SetTextEditBtn@GameOptionMovieScreenShotTab@@IAEXPBD@Z ; GameOptionMovieScreenShotTab::SetTextEditBtn

; 2635 : 			UpdateEditBtn( true );

  0015d	53		 push	 ebx
  0015e	8b ce		 mov	 ecx, esi
  00160	e8 00 00 00 00	 call	 ?UpdateEditBtn@GameOptionMovieScreenShotTab@@IAEX_N@Z ; GameOptionMovieScreenShotTab::UpdateEditBtn

; 2636 : 
; 2637 : 			UpdateByCurrentOption();

  00165	8b 06		 mov	 eax, DWORD PTR [esi]
  00167	8b ce		 mov	 ecx, esi
  00169	ff 90 30 01 00
	00		 call	 DWORD PTR [eax+304]

; 2638 : 			SetChildActive( ID_APPLY );

  0016f	6a 03		 push	 3
  00171	8b ce		 mov	 ecx, esi
  00173	ff 15 00 00 00
	00		 call	 DWORD PTR __imp_?SetChildActive@ioWnd@@QAEXK@Z

; 2639 : 		}

  00179	83 4d fc ff	 or	 DWORD PTR __$EHRec$[ebp+8], -1
  0017d	8d 4d e4	 lea	 ecx, DWORD PTR _szText$547076[ebp]
  00180	ff 15 00 00 00
	00		 call	 DWORD PTR __imp_??1ioHashString@@QAE@XZ

; 2640 : 		break;

  00186	e9 04 04 00 00	 jmp	 $LN39@iwm_comman@8
$LN21@iwm_comman@8:

; 2583 : 	case ID_APPLY:
; 2584 : 		if ( cmd == IOBN_BTNUP )

  0018b	83 7d 0c 11	 cmp	 DWORD PTR _cmd$[ebp], 17 ; 00000011H
  0018f	0f 85 fa 03 00
	00		 jne	 $LN39@iwm_comman@8

; 2585 : 		{
; 2586 : 			UpdateEditBtn(true);

  00195	6a 01		 push	 1
  00197	8b ce		 mov	 ecx, esi
  00199	e8 00 00 00 00	 call	 ?UpdateEditBtn@GameOptionMovieScreenShotTab@@IAEX_N@Z ; GameOptionMovieScreenShotTab::UpdateEditBtn

; 2587 : 			SetOptionSavePath();

  0019e	8b ce		 mov	 ecx, esi
  001a0	e8 00 00 00 00	 call	 ?SetOptionSavePath@GameOptionMovieScreenShotTab@@IAEXXZ ; GameOptionMovieScreenShotTab::SetOptionSavePath

; 2588 : 			Save();

  001a5	8b ce		 mov	 ecx, esi
  001a7	e8 00 00 00 00	 call	 ?ApplyChangedOption@GameOptionBasicWnd@@IAE_NXZ ; GameOptionBasicWnd::ApplyChangedOption

; 2589 : 
; 2590 : 			SetChildInActive( ID_APPLY );

  001ac	6a 03		 push	 3
  001ae	8b ce		 mov	 ecx, esi
  001b0	ff 15 00 00 00
	00		 call	 DWORD PTR __imp_?SetChildInActive@ioWnd@@QAEXK@Z

; 2591 : 		}
; 2592 : 		break;

  001b6	e9 d4 03 00 00	 jmp	 $LN39@iwm_comman@8
$LN19@iwm_comman@8:

; 2593 : 	case ID_CANCEL:
; 2594 : 		if( cmd == IOBN_BTNUP )

  001bb	83 7d 0c 11	 cmp	 DWORD PTR _cmd$[ebp], 17 ; 00000011H
  001bf	0f 85 ca 03 00
	00		 jne	 $LN39@iwm_comman@8

; 2595 : 		{
; 2596 : 			if( GetParent() )
; 2597 : 				GetParent()->HideWnd();
; 2598 : 		}
; 2599 : 		break;

  001c5	eb 21		 jmp	 SHORT $LN96@iwm_comman@8
$LN24@iwm_comman@8:

; 2572 : 	case ID_SAVE:
; 2573 : 		if ( cmd == IOBN_BTNUP )

  001c7	83 7d 0c 11	 cmp	 DWORD PTR _cmd$[ebp], 17 ; 00000011H
  001cb	0f 85 be 03 00
	00		 jne	 $LN39@iwm_comman@8

; 2574 : 		{
; 2575 : 			UpdateEditBtn(true);

  001d1	6a 01		 push	 1
  001d3	8b ce		 mov	 ecx, esi
  001d5	e8 00 00 00 00	 call	 ?UpdateEditBtn@GameOptionMovieScreenShotTab@@IAEX_N@Z ; GameOptionMovieScreenShotTab::UpdateEditBtn

; 2576 : 			SetOptionSavePath();

  001da	8b ce		 mov	 ecx, esi
  001dc	e8 00 00 00 00	 call	 ?SetOptionSavePath@GameOptionMovieScreenShotTab@@IAEXXZ ; GameOptionMovieScreenShotTab::SetOptionSavePath

; 2577 : 			Save();

  001e1	8b ce		 mov	 ecx, esi
  001e3	e8 00 00 00 00	 call	 ?ApplyChangedOption@GameOptionBasicWnd@@IAE_NXZ ; GameOptionBasicWnd::ApplyChangedOption
$LN96@iwm_comman@8:

; 2578 : 
; 2579 : 			if( GetParent() )

  001e8	8b ce		 mov	 ecx, esi
  001ea	ff 15 00 00 00
	00		 call	 DWORD PTR __imp_?GetParent@ioWnd@@QAEPAV1@XZ
  001f0	85 c0		 test	 eax, eax
  001f2	0f 84 97 03 00
	00		 je	 $LN39@iwm_comman@8

; 2580 : 				GetParent()->HideWnd();

  001f8	8b ce		 mov	 ecx, esi
  001fa	ff 15 00 00 00
	00		 call	 DWORD PTR __imp_?GetParent@ioWnd@@QAEPAV1@XZ
  00200	8b c8		 mov	 ecx, eax
  00202	ff 15 00 00 00
	00		 call	 DWORD PTR __imp_?HideWnd@ioWnd@@QAEXXZ

; 2581 : 		}
; 2582 : 		break;

  00208	e9 82 03 00 00	 jmp	 $LN39@iwm_comman@8
$LN65@iwm_comman@8:

; 2434 : 	case ID_MOVIE_FRAME_BTN:
; 2435 : 		if( cmd == IOBN_BTNUP )

  0020d	83 7d 0c 11	 cmp	 DWORD PTR _cmd$[ebp], 17 ; 00000011H
  00211	75 0d		 jne	 SHORT $LN64@iwm_comman@8

; 2436 : 		{
; 2437 : 			OpenResolutionList( pWnd, ioMovieMaker::MO_FRAME, m_CurrentOption.m_iMovieFrameType );

  00213	ff b6 e8 01 00
	00		 push	 DWORD PTR [esi+488]
  00219	6a 02		 push	 2
  0021b	e9 46 fe ff ff	 jmp	 $LN98@iwm_comman@8
$LN64@iwm_comman@8:

; 2438 : 		}
; 2439 : 		else if( cmd == IO_RESOLUTION_CHANGE )

  00220	81 7d 0c 0a 10
	00 00		 cmp	 DWORD PTR _cmd$[ebp], 4106 ; 0000100aH
  00227	0f 85 62 03 00
	00		 jne	 $LN39@iwm_comman@8

; 2440 : 		{
; 2441 : 			if( m_CurrentOption.m_iMovieFrameType != param )

  0022d	8b 5d 10	 mov	 ebx, DWORD PTR _param$[ebp]
  00230	39 9e e8 01 00
	00		 cmp	 DWORD PTR [esi+488], ebx
  00236	74 0a		 je	 SHORT $LN61@iwm_comman@8

; 2442 : 				SetChildActive( ID_APPLY );

  00238	6a 03		 push	 3
  0023a	8b ce		 mov	 ecx, esi
  0023c	ff 15 00 00 00
	00		 call	 DWORD PTR __imp_?SetChildActive@ioWnd@@QAEXK@Z
$LN61@iwm_comman@8:

; 2443 : 
; 2444 : 			m_CurrentOption.m_iMovieFrameType  = param;

  00242	89 9e e8 01 00
	00		 mov	 DWORD PTR [esi+488], ebx

; 2445 : 			UpdateEditBtn(true);
; 2446 : 			UpdateByCurrentOption();
; 2447 : 		}
; 2448 : 		break;

  00248	e9 4e fe ff ff	 jmp	 $LN95@iwm_comman@8
$LN76@iwm_comman@8:

; 2416 : 
; 2417 : 	switch( dwID )

  0024d	83 e8 6b	 sub	 eax, 107		; 0000006bH
  00250	0f 84 a8 00 00
	00		 je	 $LN60@iwm_comman@8
  00256	48		 dec	 eax
  00257	48		 dec	 eax
  00258	74 64		 je	 SHORT $LN55@iwm_comman@8
  0025a	48		 dec	 eax
  0025b	48		 dec	 eax
  0025c	74 20		 je	 SHORT $LN50@iwm_comman@8
  0025e	83 e8 04	 sub	 eax, 4
  00261	0f 85 28 03 00
	00		 jne	 $LN39@iwm_comman@8

; 2494 : 	case ID_SCREENSHOT_BTN:
; 2495 : 		if( cmd == IOBN_BTNUP )

  00267	83 7d 0c 11	 cmp	 DWORD PTR _cmd$[ebp], 17 ; 00000011H
  0026b	0f 85 1e 03 00
	00		 jne	 $LN39@iwm_comman@8

; 2496 : 		{
; 2497 : 			OpenScreenShotList( pWnd );

  00271	57		 push	 edi
  00272	8b ce		 mov	 ecx, esi
  00274	e8 00 00 00 00	 call	 ?OpenScreenShotList@GameOptionMovieScreenShotTab@@IAEXPAVioWnd@@@Z ; GameOptionMovieScreenShotTab::OpenScreenShotList

; 2498 : 		}
; 2499 : 		break;

  00279	e9 11 03 00 00	 jmp	 $LN39@iwm_comman@8
$LN50@iwm_comman@8:

; 2479 : 	case ID_MOVIE_CODEC_BTN:
; 2480 : 		if( cmd == IOBN_BTNUP )

  0027e	83 7d 0c 11	 cmp	 DWORD PTR _cmd$[ebp], 17 ; 00000011H
  00282	75 0d		 jne	 SHORT $LN49@iwm_comman@8

; 2481 : 		{
; 2482 : 			OpenResolutionList( pWnd, ioMovieMaker::MO_CODEC, m_CurrentOption.m_iMovieCodec );

  00284	ff b6 e0 01 00
	00		 push	 DWORD PTR [esi+480]
  0028a	6a 05		 push	 5
  0028c	e9 d5 fd ff ff	 jmp	 $LN98@iwm_comman@8
$LN49@iwm_comman@8:

; 2483 : 		}
; 2484 : 		else if( cmd == IO_RESOLUTION_CHANGE )

  00291	81 7d 0c 0a 10
	00 00		 cmp	 DWORD PTR _cmd$[ebp], 4106 ; 0000100aH
  00298	0f 85 f1 02 00
	00		 jne	 $LN39@iwm_comman@8

; 2485 : 		{
; 2486 : 			if( m_CurrentOption.m_iMovieCodec != param )

  0029e	8b 5d 10	 mov	 ebx, DWORD PTR _param$[ebp]
  002a1	39 9e e0 01 00
	00		 cmp	 DWORD PTR [esi+480], ebx
  002a7	74 0a		 je	 SHORT $LN46@iwm_comman@8

; 2487 : 				SetChildActive( ID_APPLY );

  002a9	6a 03		 push	 3
  002ab	8b ce		 mov	 ecx, esi
  002ad	ff 15 00 00 00
	00		 call	 DWORD PTR __imp_?SetChildActive@ioWnd@@QAEXK@Z
$LN46@iwm_comman@8:

; 2488 : 
; 2489 : 			m_CurrentOption.m_iMovieCodec  = param;

  002b3	89 9e e0 01 00
	00		 mov	 DWORD PTR [esi+480], ebx

; 2490 : 			UpdateEditBtn(true);
; 2491 : 			UpdateByCurrentOption();
; 2492 : 		}
; 2493 : 		break;

  002b9	e9 dd fd ff ff	 jmp	 $LN95@iwm_comman@8
$LN55@iwm_comman@8:

; 2464 : 	case ID_MOVIE_SOUND_BTN:
; 2465 : 		if( cmd == IOBN_BTNUP )

  002be	83 7d 0c 11	 cmp	 DWORD PTR _cmd$[ebp], 17 ; 00000011H
  002c2	75 0d		 jne	 SHORT $LN54@iwm_comman@8

; 2466 : 		{
; 2467 : 			OpenResolutionList( pWnd, ioMovieMaker::MO_SOUND, m_CurrentOption.m_iMovieSoundType );

  002c4	ff b6 f0 01 00
	00		 push	 DWORD PTR [esi+496]
  002ca	6a 04		 push	 4
  002cc	e9 95 fd ff ff	 jmp	 $LN98@iwm_comman@8
$LN54@iwm_comman@8:

; 2468 : 		}
; 2469 : 		else if( cmd == IO_RESOLUTION_CHANGE )

  002d1	81 7d 0c 0a 10
	00 00		 cmp	 DWORD PTR _cmd$[ebp], 4106 ; 0000100aH
  002d8	0f 85 b1 02 00
	00		 jne	 $LN39@iwm_comman@8

; 2470 : 		{
; 2471 : 			if( m_CurrentOption.m_iMovieSoundType != param )

  002de	8b 5d 10	 mov	 ebx, DWORD PTR _param$[ebp]
  002e1	39 9e f0 01 00
	00		 cmp	 DWORD PTR [esi+496], ebx
  002e7	74 0a		 je	 SHORT $LN51@iwm_comman@8

; 2472 : 				SetChildActive( ID_APPLY );

  002e9	6a 03		 push	 3
  002eb	8b ce		 mov	 ecx, esi
  002ed	ff 15 00 00 00
	00		 call	 DWORD PTR __imp_?SetChildActive@ioWnd@@QAEXK@Z
$LN51@iwm_comman@8:

; 2473 : 
; 2474 : 			m_CurrentOption.m_iMovieSoundType  = param;

  002f3	89 9e f0 01 00
	00		 mov	 DWORD PTR [esi+496], ebx

; 2475 : 			UpdateEditBtn(true);
; 2476 : 			UpdateByCurrentOption();
; 2477 : 		}
; 2478 : 		break;

  002f9	e9 9d fd ff ff	 jmp	 $LN95@iwm_comman@8
$LN60@iwm_comman@8:

; 2449 : 	case ID_MOVIE_QUALITY_BTN:
; 2450 : 		if( cmd == IOBN_BTNUP )

  002fe	83 7d 0c 11	 cmp	 DWORD PTR _cmd$[ebp], 17 ; 00000011H
  00302	75 0d		 jne	 SHORT $LN59@iwm_comman@8

; 2451 : 		{
; 2452 : 			OpenResolutionList( pWnd, ioMovieMaker::MO_QUALITY, m_CurrentOption.m_iMovieQualityType );

  00304	ff b6 ec 01 00
	00		 push	 DWORD PTR [esi+492]
  0030a	6a 03		 push	 3
  0030c	e9 55 fd ff ff	 jmp	 $LN98@iwm_comman@8
$LN59@iwm_comman@8:

; 2453 : 		}
; 2454 : 		else if( cmd == IO_RESOLUTION_CHANGE )

  00311	81 7d 0c 0a 10
	00 00		 cmp	 DWORD PTR _cmd$[ebp], 4106 ; 0000100aH
  00318	0f 85 71 02 00
	00		 jne	 $LN39@iwm_comman@8

; 2455 : 		{
; 2456 : 			if( m_CurrentOption.m_iMovieQualityType != param )

  0031e	8b 5d 10	 mov	 ebx, DWORD PTR _param$[ebp]
  00321	39 9e ec 01 00
	00		 cmp	 DWORD PTR [esi+492], ebx
  00327	74 0a		 je	 SHORT $LN56@iwm_comman@8

; 2457 : 				SetChildActive( ID_APPLY );

  00329	6a 03		 push	 3
  0032b	8b ce		 mov	 ecx, esi
  0032d	ff 15 00 00 00
	00		 call	 DWORD PTR __imp_?SetChildActive@ioWnd@@QAEXK@Z
$LN56@iwm_comman@8:

; 2458 : 
; 2459 : 			m_CurrentOption.m_iMovieQualityType= param;

  00333	89 9e ec 01 00
	00		 mov	 DWORD PTR [esi+492], ebx

; 2460 : 			UpdateEditBtn(true);
; 2461 : 			UpdateByCurrentOption();
; 2462 : 		}
; 2463 : 		break;

  00339	e9 5d fd ff ff	 jmp	 $LN95@iwm_comman@8
$LN30@iwm_comman@8:

; 2555 : 	case ID_SCREENSHOT_PATH_BTN:
; 2556 : 		if( cmd == IOBN_BTNUP )

  0033e	83 7d 0c 11	 cmp	 DWORD PTR _cmd$[ebp], 17 ; 00000011H
  00342	0f 85 47 02 00
	00		 jne	 $LN39@iwm_comman@8

; 2557 : 		{
; 2558 : 			UpdateEditBtn(false);

  00348	6a 00		 push	 0

; 2559 : 			SetChildActive( ID_APPLY );
; 2560 : 		}
; 2561 : 		break;	

  0034a	e9 2f 02 00 00	 jmp	 $LN92@iwm_comman@8
$LN75@iwm_comman@8:

; 2416 : 
; 2417 : 	switch( dwID )

  0034f	83 f8 7f	 cmp	 eax, 127		; 0000007fH
  00352	0f 87 83 01 00
	00		 ja	 $LN77@iwm_comman@8
  00358	0f 84 5e 01 00
	00		 je	 $LN36@iwm_comman@8
  0035e	83 e8 79	 sub	 eax, 121		; 00000079H
  00361	0f 84 33 01 00
	00		 je	 $LN28@iwm_comman@8
  00367	48		 dec	 eax
  00368	48		 dec	 eax
  00369	0f 84 94 00 00
	00		 je	 $LN10@iwm_comman@8
  0036f	48		 dec	 eax
  00370	74 26		 je	 SHORT $LN5@iwm_comman@8
  00372	48		 dec	 eax
  00373	48		 dec	 eax
  00374	0f 85 15 02 00
	00		 jne	 $LN39@iwm_comman@8

; 2521 : 		}
; 2522 : 		break;
; 2523 : 	case ID_NAME_SHOW_BTN:
; 2524 : 		if( cmd == IOBN_BTNUP )

  0037a	83 7d 0c 11	 cmp	 DWORD PTR _cmd$[ebp], 17 ; 00000011H
  0037e	0f 85 0b 02 00
	00		 jne	 $LN39@iwm_comman@8

; 2525 : 		{
; 2526 : 			m_CurrentOption.m_bNoUIModeIDShow = !m_CurrentOption.m_bNoUIModeIDShow;

  00384	38 86 ce 01 00
	00		 cmp	 BYTE PTR [esi+462], al
  0038a	0f 94 c1	 sete	 cl
  0038d	88 8e ce 01 00
	00		 mov	 BYTE PTR [esi+462], cl

; 2527 : 			UpdateEditBtn(true);
; 2528 : 			SetChildActive( ID_APPLY );
; 2529 : 		}
; 2530 : 		break;

  00393	e9 e4 01 00 00	 jmp	 $LN93@iwm_comman@8
$LN5@iwm_comman@8:

; 2662 : 	case ID_MOVIE_MODE_BTN:
; 2663 : 		if( cmd == IOBN_BTNUP )

  00398	83 7d 0c 11	 cmp	 DWORD PTR _cmd$[ebp], 17 ; 00000011H
  0039c	0f 85 ed 01 00
	00		 jne	 $LN39@iwm_comman@8

; 2664 : 		{
; 2665 : 			///    
; 2666 : 			ioPlayStage * pPlayStage = ToPlayStage( g_App.GetGameStage() );

  003a2	e8 00 00 00 00	 call	 ?GetSingleton@ioApplication@@SAAAV1@XZ ; ioApplication::GetSingleton
  003a7	ff b0 28 01 00
	00		 push	 DWORD PTR [eax+296]
  003ad	e8 00 00 00 00	 call	 ?ToPlayStage@@YAPAVioPlayStage@@PAVioGameStage@@@Z ; ToPlayStage

; 2667 : 			if(pPlayStage)

  003b2	33 db		 xor	 ebx, ebx
  003b4	59		 pop	 ecx
  003b5	3b c3		 cmp	 eax, ebx
  003b7	0f 84 d2 01 00
	00		 je	 $LN39@iwm_comman@8

; 2668 : 			{
; 2669 : 				if( pPlayStage->GetModeType() == MT_MYROOM )

  003bd	8b c8		 mov	 ecx, eax
  003bf	e8 00 00 00 00	 call	 ?GetModeType@ioPlayStage@@QBE?AW4ModeType@@XZ ; ioPlayStage::GetModeType
  003c4	83 f8 18	 cmp	 eax, 24			; 00000018H
  003c7	75 0e		 jne	 SHORT $LN1@iwm_comman@8

; 2670 : 				{
; 2671 : 					if( ioMyRoomMode::GetMyRoomType() != MRT_PRACTICE )

  003c9	83 3d 00 00 00
	00 03		 cmp	 DWORD PTR ?m_eMyRoomType@ioMyRoomMode@@1W4MyRoomType@@A, 3 ; ioMyRoomMode::m_eMyRoomType
  003d0	74 05		 je	 SHORT $LN1@iwm_comman@8

; 2672 : 					{
; 2673 : 						g_GUIMgr.SetMsgBox( MB_OK, NULL, STR(2) );

  003d2	53		 push	 ebx
  003d3	6a 02		 push	 2

; 2674 : 						return;

  003d5	eb 69		 jmp	 SHORT $LN97@iwm_comman@8
$LN1@iwm_comman@8:

; 2675 : 					}
; 2676 : 				}
; 2677 : 
; 2678 : 				iwm_command( FindChildWnd( ID_SAVE ), cmd, 0 );

  003d7	8b 3e		 mov	 edi, DWORD PTR [esi]
  003d9	53		 push	 ebx
  003da	33 db		 xor	 ebx, ebx
  003dc	6a 11		 push	 17			; 00000011H
  003de	43		 inc	 ebx
  003df	53		 push	 ebx
  003e0	8b ce		 mov	 ecx, esi
  003e2	ff 15 00 00 00
	00		 call	 DWORD PTR __imp_?FindChildWnd@ioWnd@@QAEPAV1@K@Z
  003e8	50		 push	 eax
  003e9	8b ce		 mov	 ecx, esi
  003eb	ff 97 8c 00 00
	00		 call	 DWORD PTR [edi+140]

; 2679 : 				g_App.CheckMouseControlMode( true );

  003f1	53		 push	 ebx
  003f2	e8 00 00 00 00	 call	 ?GetSingleton@ioApplication@@SAAAV1@XZ ; ioApplication::GetSingleton
  003f7	8b c8		 mov	 ecx, eax
  003f9	e8 00 00 00 00	 call	 ?CheckMouseControlMode@ioApplication@@QAEX_N@Z ; ioApplication::CheckMouseControlMode

; 2680 : 			}
; 2681 : 		}
; 2682 : 		break;

  003fe	e9 8c 01 00 00	 jmp	 $LN39@iwm_comman@8
$LN10@iwm_comman@8:

; 2641 : 	case ID_SCREENSHOT_MODE_BTN:
; 2642 : 		if( cmd == IOBN_BTNUP )

  00403	83 7d 0c 11	 cmp	 DWORD PTR _cmd$[ebp], 17 ; 00000011H
  00407	0f 85 82 01 00
	00		 jne	 $LN39@iwm_comman@8

; 2643 : 		{
; 2644 : 			///     
; 2645 : 			ioPlayStage * pPlayStage = ToPlayStage( g_App.GetGameStage() );

  0040d	e8 00 00 00 00	 call	 ?GetSingleton@ioApplication@@SAAAV1@XZ ; ioApplication::GetSingleton
  00412	ff b0 28 01 00
	00		 push	 DWORD PTR [eax+296]
  00418	e8 00 00 00 00	 call	 ?ToPlayStage@@YAPAVioPlayStage@@PAVioGameStage@@@Z ; ToPlayStage

; 2646 : 			if(pPlayStage)

  0041d	33 db		 xor	 ebx, ebx
  0041f	59		 pop	 ecx
  00420	3b c3		 cmp	 eax, ebx
  00422	0f 84 67 01 00
	00		 je	 $LN39@iwm_comman@8

; 2647 : 			{
; 2648 : 				if( pPlayStage->GetModeType() == MT_MYROOM )

  00428	8b c8		 mov	 ecx, eax
  0042a	e8 00 00 00 00	 call	 ?GetModeType@ioPlayStage@@QBE?AW4ModeType@@XZ ; ioPlayStage::GetModeType
  0042f	83 f8 18	 cmp	 eax, 24			; 00000018H
  00432	75 3a		 jne	 SHORT $LN6@iwm_comman@8

; 2649 : 				{
; 2650 : 					if( ioMyRoomMode::GetMyRoomType() != MRT_PRACTICE )

  00434	83 3d 00 00 00
	00 03		 cmp	 DWORD PTR ?m_eMyRoomType@ioMyRoomMode@@1W4MyRoomType@@A, 3 ; ioMyRoomMode::m_eMyRoomType
  0043b	74 31		 je	 SHORT $LN6@iwm_comman@8

; 2651 : 					{
; 2652 : 						g_GUIMgr.SetMsgBox( MB_OK, NULL, STR(1) );

  0043d	53		 push	 ebx
  0043e	6a 01		 push	 1
$LN97@iwm_comman@8:
  00440	68 00 00 00 00	 push	 OFFSET ??_C@_00CNPNBAHC@?$AA@
  00445	68 00 00 00 00	 push	 OFFSET ??_C@_0CK@MCCIHPPH@GameOptionMovieScreenShotTab?3?3iw@
  0044a	ff 15 00 00 00
	00		 call	 DWORD PTR __imp_?GetSingleton@ioStringManager@@SAAAV1@XZ
  00450	8b c8		 mov	 ecx, eax
  00452	ff 15 00 00 00
	00		 call	 DWORD PTR __imp_?GetString@ioStringManager@@QAEPADPBD0HW4FileNamePrefix@1@@Z
  00458	50		 push	 eax
  00459	53		 push	 ebx
  0045a	53		 push	 ebx
  0045b	e8 00 00 00 00	 call	 ?GetSingleton@ioSP2GUIManager@@SAAAV1@XZ ; ioSP2GUIManager::GetSingleton
  00460	50		 push	 eax
  00461	e8 00 00 00 00	 call	 ?SetMsgBox@ioSP2GUIManager@@QAAXHPAVioWnd@@PBDZZ ; ioSP2GUIManager::SetMsgBox
  00466	83 c4 10	 add	 esp, 16			; 00000010H

; 2653 : 						return;

  00469	e9 21 01 00 00	 jmp	 $LN39@iwm_comman@8
$LN6@iwm_comman@8:

; 2654 : 					}
; 2655 : 				}
; 2656 : 
; 2657 : 				iwm_command( FindChildWnd( ID_SAVE ), cmd, 0 );

  0046e	8b 3e		 mov	 edi, DWORD PTR [esi]
  00470	53		 push	 ebx
  00471	33 db		 xor	 ebx, ebx
  00473	6a 11		 push	 17			; 00000011H
  00475	43		 inc	 ebx
  00476	53		 push	 ebx
  00477	8b ce		 mov	 ecx, esi
  00479	ff 15 00 00 00
	00		 call	 DWORD PTR __imp_?FindChildWnd@ioWnd@@QAEPAV1@K@Z
  0047f	50		 push	 eax
  00480	8b ce		 mov	 ecx, esi
  00482	ff 97 8c 00 00
	00		 call	 DWORD PTR [edi+140]

; 2658 : 				g_GUIMgr.SetNoneUIMode( true );

  00488	53		 push	 ebx
  00489	e8 00 00 00 00	 call	 ?GetSingleton@ioSP2GUIManager@@SAAAV1@XZ ; ioSP2GUIManager::GetSingleton
  0048e	8b c8		 mov	 ecx, eax
  00490	e8 00 00 00 00	 call	 ?SetNoneUIMode@ioSP2GUIManager@@QAEX_N@Z ; ioSP2GUIManager::SetNoneUIMode

; 2659 : 			}
; 2660 : 		}
; 2661 : 		break;

  00495	e9 f5 00 00 00	 jmp	 $LN39@iwm_comman@8
$LN28@iwm_comman@8:

; 2562 : 	case ID_SCREENSHOT_PATH_EDIT:
; 2563 : 		if( cmd == IOED_INPUT )

  0049a	83 7d 0c 22	 cmp	 DWORD PTR _cmd$[ebp], 34 ; 00000022H
  0049e	0f 85 eb 00 00
	00		 jne	 $LN39@iwm_comman@8

; 2564 : 		{
; 2565 : 			if( param == 0 || param == 1)

  004a4	33 db		 xor	 ebx, ebx
  004a6	43		 inc	 ebx
  004a7	83 7d 10 00	 cmp	 DWORD PTR _param$[ebp], 0
  004ab	74 09		 je	 SHORT $LN25@iwm_comman@8
  004ad	39 5d 10	 cmp	 DWORD PTR _param$[ebp], ebx
  004b0	0f 85 d9 00 00
	00		 jne	 $LN39@iwm_comman@8
$LN25@iwm_comman@8:

; 2566 : 			{
; 2567 : 				UpdateEditBtn(true);

  004b6	53		 push	 ebx

; 2568 : 				SetChildActive( ID_APPLY );
; 2569 : 			}
; 2570 : 		}
; 2571 : 		break;

  004b7	e9 c2 00 00 00	 jmp	 $LN92@iwm_comman@8
$LN36@iwm_comman@8:

; 2531 : 	case ID_HP_SHOW_BTN:
; 2532 : 		if( cmd == IOBN_BTNUP )

  004bc	83 7d 0c 11	 cmp	 DWORD PTR _cmd$[ebp], 17 ; 00000011H
  004c0	0f 85 c9 00 00
	00		 jne	 $LN39@iwm_comman@8

; 2533 : 		{
; 2534 : 			m_CurrentOption.m_bNoUIModeHPShow = !m_CurrentOption.m_bNoUIModeHPShow;

  004c6	80 be cf 01 00
	00 00		 cmp	 BYTE PTR [esi+463], 0
  004cd	0f 94 c1	 sete	 cl
  004d0	88 8e cf 01 00
	00		 mov	 BYTE PTR [esi+463], cl

; 2535 : 			UpdateEditBtn(true);
; 2536 : 			SetChildActive( ID_APPLY );
; 2537 : 		}
; 2538 : 		break;

  004d6	e9 a1 00 00 00	 jmp	 $LN93@iwm_comman@8
$LN77@iwm_comman@8:

; 2416 : 
; 2417 : 	switch( dwID )

  004db	2d 80 00 00 00	 sub	 eax, 128		; 00000080H
  004e0	0f 84 80 00 00
	00		 je	 $LN40@iwm_comman@8
  004e6	48		 dec	 eax
  004e7	74 65		 je	 SHORT $LN34@iwm_comman@8
  004e9	48		 dec	 eax
  004ea	74 4a		 je	 SHORT $LN32@iwm_comman@8
  004ec	2d fc 0d 00 00	 sub	 eax, 3580		; 00000dfcH
  004f1	0f 85 98 00 00
	00		 jne	 $LN39@iwm_comman@8

; 2500 : 	case ID_SCREEN_SHOT_RESOLUTION_LIST:
; 2501 : 		if( cmd == IO_RESOLUTION_CHANGE )

  004f7	81 7d 0c 0a 10
	00 00		 cmp	 DWORD PTR _cmd$[ebp], 4106 ; 0000100aH
  004fe	0f 85 8b 00 00
	00		 jne	 $LN39@iwm_comman@8

; 2502 : 		{
; 2503 : 			pWnd->HideWnd();

  00504	8b cf		 mov	 ecx, edi
  00506	ff 15 00 00 00
	00		 call	 DWORD PTR __imp_?HideWnd@ioWnd@@QAEXXZ

; 2504 : 
; 2505 : 			bool bScreenShotFormatJPG = ( (param == 0) ? true : false );

  0050c	83 7d 10 00	 cmp	 DWORD PTR _param$[ebp], 0
  00510	0f 94 c1	 sete	 cl

; 2506 : 			if( m_CurrentOption.m_bScreenShotFormatJPG == bScreenShotFormatJPG )

  00513	38 8e c0 01 00
	00		 cmp	 BYTE PTR [esi+448], cl
  00519	74 74		 je	 SHORT $LN39@iwm_comman@8

; 2507 : 				return;
; 2508 : 
; 2509 : 			m_CurrentOption.m_bScreenShotFormatJPG = bScreenShotFormatJPG;

  0051b	88 8e c0 01 00
	00		 mov	 BYTE PTR [esi+448], cl

; 2510 : 			UpdateEditBtn(true);

  00521	6a 01		 push	 1
  00523	8b ce		 mov	 ecx, esi
  00525	e8 00 00 00 00	 call	 ?UpdateEditBtn@GameOptionMovieScreenShotTab@@IAEX_N@Z ; GameOptionMovieScreenShotTab::UpdateEditBtn

; 2511 : 			UpdateByCurrentOption();

  0052a	8b 06		 mov	 eax, DWORD PTR [esi]
  0052c	8b ce		 mov	 ecx, esi
  0052e	ff 90 30 01 00
	00		 call	 DWORD PTR [eax+304]

; 2512 : 			SetChildActive( ID_APPLY );
; 2513 : 		}
; 2514 : 		break;

  00534	eb 4f		 jmp	 SHORT $LN94@iwm_comman@8
$LN32@iwm_comman@8:

; 2547 : 	case ID_MOVIE_MODE_UI_SHOW_BTN:
; 2548 : 		if( cmd == IOBN_BTNUP )

  00536	83 7d 0c 11	 cmp	 DWORD PTR _cmd$[ebp], 17 ; 00000011H
  0053a	75 53		 jne	 SHORT $LN39@iwm_comman@8

; 2549 : 		{
; 2550 : 			m_CurrentOption.m_bMovieModeUIHide = !m_CurrentOption.m_bMovieModeUIHide;

  0053c	80 be d1 01 00
	00 00		 cmp	 BYTE PTR [esi+465], 0
  00543	0f 94 c1	 sete	 cl
  00546	88 8e d1 01 00
	00		 mov	 BYTE PTR [esi+465], cl

; 2551 : 			UpdateEditBtn(true);
; 2552 : 			SetChildActive( ID_APPLY );
; 2553 : 		}
; 2554 : 		break;

  0054c	eb 2e		 jmp	 SHORT $LN93@iwm_comman@8
$LN34@iwm_comman@8:

; 2539 : 	case ID_CHAT_BUBBLE_BTN:
; 2540 : 		if( cmd == IOBN_BTNUP )

  0054e	83 7d 0c 11	 cmp	 DWORD PTR _cmd$[ebp], 17 ; 00000011H
  00552	75 3b		 jne	 SHORT $LN39@iwm_comman@8

; 2541 : 		{
; 2542 : 			m_CurrentOption.m_bNoUIModeChatBubbleShow = !m_CurrentOption.m_bNoUIModeChatBubbleShow;

  00554	80 be d0 01 00
	00 00		 cmp	 BYTE PTR [esi+464], 0
  0055b	0f 94 c1	 sete	 cl
  0055e	88 8e d0 01 00
	00		 mov	 BYTE PTR [esi+464], cl

; 2543 : 			UpdateEditBtn(true);
; 2544 : 			SetChildActive( ID_APPLY );
; 2545 : 		}
; 2546 : 		break;

  00564	eb 16		 jmp	 SHORT $LN93@iwm_comman@8
$LN40@iwm_comman@8:

; 2515 : 	case ID_TEAMCIRCLE_SHOW_BTN:
; 2516 : 		if( cmd == IOBN_BTNUP )

  00566	83 7d 0c 11	 cmp	 DWORD PTR _cmd$[ebp], 17 ; 00000011H
  0056a	75 23		 jne	 SHORT $LN39@iwm_comman@8

; 2517 : 		{
; 2518 : 			m_CurrentOption.m_bNoUIModeTeamCircleShow = !m_CurrentOption.m_bNoUIModeTeamCircleShow;

  0056c	80 be cd 01 00
	00 00		 cmp	 BYTE PTR [esi+461], 0
  00573	0f 94 c1	 sete	 cl
  00576	88 8e cd 01 00
	00		 mov	 BYTE PTR [esi+461], cl
$LN93@iwm_comman@8:

; 2519 : 			UpdateEditBtn(true);

  0057c	6a 01		 push	 1
$LN92@iwm_comman@8:
  0057e	8b ce		 mov	 ecx, esi
  00580	e8 00 00 00 00	 call	 ?UpdateEditBtn@GameOptionMovieScreenShotTab@@IAEX_N@Z ; GameOptionMovieScreenShotTab::UpdateEditBtn
$LN94@iwm_comman@8:

; 2520 : 			SetChildActive( ID_APPLY );

  00585	6a 03		 push	 3
  00587	8b ce		 mov	 ecx, esi
  00589	ff 15 00 00 00
	00		 call	 DWORD PTR __imp_?SetChildActive@ioWnd@@QAEXK@Z
$LN39@iwm_comman@8:

; 2683 : 	}
; 2684 : }

  0058f	e8 00 00 00 00	 call	 __EH_epilog3
  00594	c2 0c 00	 ret	 12			; 0000000cH
_TEXT	ENDS
;	COMDAT text$x
text$x	SEGMENT
__unwindfunclet$?iwm_command@GameOptionMovieScreenShotTab@@UAEXPAVioWnd@@HK@Z$0:
  00000	8d 4d e4	 lea	 ecx, DWORD PTR _szText$547076[ebp]
  00003	ff 25 00 00 00
	00		 jmp	 DWORD PTR __imp_??1ioHashString@@QAE@XZ
__ehhandler$?iwm_command@GameOptionMovieScreenShotTab@@UAEXPAVioWnd@@HK@Z:
  00009	8b 54 24 08	 mov	 edx, DWORD PTR [esp+8]
  0000d	8d 42 0c	 lea	 eax, DWORD PTR [edx+12]
  00010	8b 4a e0	 mov	 ecx, DWORD PTR [edx-32]
  00013	33 c8		 xor	 ecx, eax
  00015	e8 00 00 00 00	 call	 @__security_check_cookie@4
  0001a	b8 00 00 00 00	 mov	 eax, OFFSET __ehfuncinfo$?iwm_command@GameOptionMovieScreenShotTab@@UAEXPAVioWnd@@HK@Z
  0001f	e9 00 00 00 00	 jmp	 ___CxxFrameHandler3
text$x	ENDS
?iwm_command@GameOptionMovieScreenShotTab@@UAEXPAVioWnd@@HK@Z ENDP ; GameOptionMovieScreenShotTab::iwm_command
END
