; Listing generated by Microsoft (R) Optimizing Compiler Version 16.00.30319.01 

	TITLE	D:\Lost Saga For Developer\Youtube\Tutorial\Source\src\LSClient\GUI\GameOptionSettingJoyKeyTab.cpp
	.686P
	.XMM
	include listing.inc
	.model	flat

INCLUDELIB MSVCRT
INCLUDELIB OLDNAMES

PUBLIC	?_EEM_DS@?$deque@UD3DXVECTOR3@@V?$allocator@UD3DXVECTOR3@@@std@@@std@@2HB ; std::deque<D3DXVECTOR3,std::allocator<D3DXVECTOR3> >::_EEM_DS
;	COMDAT ?_EEM_DS@?$deque@UD3DXVECTOR3@@V?$allocator@UD3DXVECTOR3@@@std@@@std@@2HB
CONST	SEGMENT
?_EEM_DS@?$deque@UD3DXVECTOR3@@V?$allocator@UD3DXVECTOR3@@@std@@@std@@2HB DD 01H ; std::deque<D3DXVECTOR3,std::allocator<D3DXVECTOR3> >::_EEM_DS
CONST	ENDS
PUBLIC	??_R0?AVioGameStage@@@8				; ioGameStage `RTTI Type Descriptor'
PUBLIC	??_R0?AVioPlayStage@@@8				; ioPlayStage `RTTI Type Descriptor'
PUBLIC	?ToPlayStage@@YAPAVioPlayStage@@PAVioGameStage@@@Z ; ToPlayStage
EXTRN	___RTDynamicCast:PROC
EXTRN	??_7type_info@@6B@:QWORD			; type_info::`vftable'
;	COMDAT ??_R0?AVioGameStage@@@8
; File d:\lost saga for developer\youtube\tutorial\source\src\lsclient\ioplaystage.h
_DATA	SEGMENT
??_R0?AVioGameStage@@@8 DD FLAT:??_7type_info@@6B@	; ioGameStage `RTTI Type Descriptor'
	DD	00H
	DB	'.?AVioGameStage@@', 00H
_DATA	ENDS
;	COMDAT ??_R0?AVioPlayStage@@@8
_DATA	SEGMENT
??_R0?AVioPlayStage@@@8 DD FLAT:??_7type_info@@6B@	; ioPlayStage `RTTI Type Descriptor'
	DD	00H
	DB	'.?AVioPlayStage@@', 00H
; Function compile flags: /Ogsp
_DATA	ENDS
;	COMDAT ?ToPlayStage@@YAPAVioPlayStage@@PAVioGameStage@@@Z
_TEXT	SEGMENT
_pStage$ = 8						; size = 4
?ToPlayStage@@YAPAVioPlayStage@@PAVioGameStage@@@Z PROC	; ToPlayStage, COMDAT

; 1762 : {

  00000	55		 push	 ebp
  00001	8b ec		 mov	 ebp, esp
  00003	56		 push	 esi

; 1763 : 	if( !pStage || pStage->GetTypeID() != ioGameStage::GS_PLAY )

  00004	8b 75 08	 mov	 esi, DWORD PTR _pStage$[ebp]
  00007	85 f6		 test	 esi, esi
  00009	74 25		 je	 SHORT $LN1@ToPlayStag
  0000b	8b 06		 mov	 eax, DWORD PTR [esi]
  0000d	8b ce		 mov	 ecx, esi
  0000f	ff 50 18	 call	 DWORD PTR [eax+24]
  00012	83 f8 04	 cmp	 eax, 4
  00015	75 19		 jne	 SHORT $LN1@ToPlayStag

; 1765 : 
; 1766 : 	return dynamic_cast< ioPlayStage* >( pStage );

  00017	6a 00		 push	 0
  00019	68 00 00 00 00	 push	 OFFSET ??_R0?AVioPlayStage@@@8
  0001e	68 00 00 00 00	 push	 OFFSET ??_R0?AVioGameStage@@@8
  00023	6a 00		 push	 0
  00025	56		 push	 esi
  00026	e8 00 00 00 00	 call	 ___RTDynamicCast
  0002b	83 c4 14	 add	 esp, 20			; 00000014H
  0002e	eb 02		 jmp	 SHORT $LN3@ToPlayStag
$LN1@ToPlayStag:

; 1764 : 		return NULL;

  00030	33 c0		 xor	 eax, eax
$LN3@ToPlayStag:
  00032	5e		 pop	 esi

; 1767 : }

  00033	5d		 pop	 ebp
  00034	c3		 ret	 0
?ToPlayStage@@YAPAVioPlayStage@@PAVioGameStage@@@Z ENDP	; ToPlayStage
_TEXT	ENDS
PUBLIC	??_7bad_alloc@std@@6B@				; std::bad_alloc::`vftable'
PUBLIC	??0bad_alloc@std@@QAE@PBD@Z			; std::bad_alloc::bad_alloc
PUBLIC	??_R4bad_alloc@std@@6B@				; std::bad_alloc::`RTTI Complete Object Locator'
PUBLIC	??_R0?AVbad_alloc@std@@@8			; std::bad_alloc `RTTI Type Descriptor'
PUBLIC	??_R3bad_alloc@std@@8				; std::bad_alloc::`RTTI Class Hierarchy Descriptor'
PUBLIC	??_R2bad_alloc@std@@8				; std::bad_alloc::`RTTI Base Class Array'
PUBLIC	??_R1A@?0A@EA@bad_alloc@std@@8			; std::bad_alloc::`RTTI Base Class Descriptor at (0,-1,0,64)'
PUBLIC	??_R1A@?0A@EA@exception@std@@8			; std::exception::`RTTI Base Class Descriptor at (0,-1,0,64)'
PUBLIC	??_R0?AVexception@std@@@8			; std::exception `RTTI Type Descriptor'
PUBLIC	??_R3exception@std@@8				; std::exception::`RTTI Class Hierarchy Descriptor'
PUBLIC	??_R2exception@std@@8				; std::exception::`RTTI Base Class Array'
EXTRN	__imp_??0exception@std@@QAE@ABQBD@Z:PROC
EXTRN	??_Ebad_alloc@std@@UAEPAXI@Z:PROC		; std::bad_alloc::`vector deleting destructor'
EXTRN	?what@exception@std@@UBEPBDXZ:PROC		; std::exception::what
;	COMDAT ??_R2exception@std@@8
; File c:\program files (x86)\microsoft visual studio 10.0\vc\include\exception
rdata$r	SEGMENT
??_R2exception@std@@8 DD FLAT:??_R1A@?0A@EA@exception@std@@8 ; std::exception::`RTTI Base Class Array'
rdata$r	ENDS
;	COMDAT ??_R3exception@std@@8
rdata$r	SEGMENT
??_R3exception@std@@8 DD 00H				; std::exception::`RTTI Class Hierarchy Descriptor'
	DD	00H
	DD	01H
	DD	FLAT:??_R2exception@std@@8
rdata$r	ENDS
;	COMDAT ??_R0?AVexception@std@@@8
_DATA	SEGMENT
??_R0?AVexception@std@@@8 DD FLAT:??_7type_info@@6B@	; std::exception `RTTI Type Descriptor'
	DD	00H
	DB	'.?AVexception@std@@', 00H
_DATA	ENDS
;	COMDAT ??_R1A@?0A@EA@exception@std@@8
rdata$r	SEGMENT
??_R1A@?0A@EA@exception@std@@8 DD FLAT:??_R0?AVexception@std@@@8 ; std::exception::`RTTI Base Class Descriptor at (0,-1,0,64)'
	DD	00H
	DD	00H
	DD	0ffffffffH
	DD	00H
	DD	040H
	DD	FLAT:??_R3exception@std@@8
rdata$r	ENDS
;	COMDAT ??_R1A@?0A@EA@bad_alloc@std@@8
rdata$r	SEGMENT
??_R1A@?0A@EA@bad_alloc@std@@8 DD FLAT:??_R0?AVbad_alloc@std@@@8 ; std::bad_alloc::`RTTI Base Class Descriptor at (0,-1,0,64)'
	DD	01H
	DD	00H
	DD	0ffffffffH
	DD	00H
	DD	040H
	DD	FLAT:??_R3bad_alloc@std@@8
rdata$r	ENDS
;	COMDAT ??_R2bad_alloc@std@@8
rdata$r	SEGMENT
??_R2bad_alloc@std@@8 DD FLAT:??_R1A@?0A@EA@bad_alloc@std@@8 ; std::bad_alloc::`RTTI Base Class Array'
	DD	FLAT:??_R1A@?0A@EA@exception@std@@8
rdata$r	ENDS
;	COMDAT ??_R3bad_alloc@std@@8
rdata$r	SEGMENT
??_R3bad_alloc@std@@8 DD 00H				; std::bad_alloc::`RTTI Class Hierarchy Descriptor'
	DD	00H
	DD	02H
	DD	FLAT:??_R2bad_alloc@std@@8
rdata$r	ENDS
;	COMDAT ??_R0?AVbad_alloc@std@@@8
_DATA	SEGMENT
??_R0?AVbad_alloc@std@@@8 DD FLAT:??_7type_info@@6B@	; std::bad_alloc `RTTI Type Descriptor'
	DD	00H
	DB	'.?AVbad_alloc@std@@', 00H
_DATA	ENDS
;	COMDAT ??_R4bad_alloc@std@@6B@
rdata$r	SEGMENT
??_R4bad_alloc@std@@6B@ DD 00H				; std::bad_alloc::`RTTI Complete Object Locator'
	DD	00H
	DD	00H
	DD	FLAT:??_R0?AVbad_alloc@std@@@8
	DD	FLAT:??_R3bad_alloc@std@@8
rdata$r	ENDS
;	COMDAT ??_7bad_alloc@std@@6B@
CONST	SEGMENT
??_7bad_alloc@std@@6B@ DD FLAT:??_R4bad_alloc@std@@6B@	; std::bad_alloc::`vftable'
	DD	FLAT:??_Ebad_alloc@std@@UAEPAXI@Z
	DD	FLAT:?what@exception@std@@UBEPBDXZ
; Function compile flags: /Ogsp
CONST	ENDS
;	COMDAT ??0bad_alloc@std@@QAE@PBD@Z
_TEXT	SEGMENT
__Message$ = 8						; size = 4
??0bad_alloc@std@@QAE@PBD@Z PROC			; std::bad_alloc::bad_alloc, COMDAT
; _this$ = ecx

; 345  : 		{	// construct from message string

  00000	55		 push	 ebp
  00001	8b ec		 mov	 ebp, esp
  00003	56		 push	 esi
  00004	8d 45 08	 lea	 eax, DWORD PTR __Message$[ebp]
  00007	50		 push	 eax
  00008	8b f1		 mov	 esi, ecx
  0000a	ff 15 00 00 00
	00		 call	 DWORD PTR __imp_??0exception@std@@QAE@ABQBD@Z
  00010	c7 06 00 00 00
	00		 mov	 DWORD PTR [esi], OFFSET ??_7bad_alloc@std@@6B@

; 346  : 		}

  00016	8b c6		 mov	 eax, esi
  00018	5e		 pop	 esi
  00019	5d		 pop	 ebp
  0001a	c2 04 00	 ret	 4
??0bad_alloc@std@@QAE@PBD@Z ENDP			; std::bad_alloc::bad_alloc
_TEXT	ENDS
PUBLIC	??1bad_alloc@std@@UAE@XZ			; std::bad_alloc::~bad_alloc
EXTRN	__imp_??1exception@std@@UAE@XZ:PROC
; Function compile flags: /Ogsp
;	COMDAT ??1bad_alloc@std@@UAE@XZ
_TEXT	SEGMENT
??1bad_alloc@std@@UAE@XZ PROC				; std::bad_alloc::~bad_alloc, COMDAT
; _this$ = ecx

; 354  : 		{	// destroy the object

  00000	c7 01 00 00 00
	00		 mov	 DWORD PTR [ecx], OFFSET ??_7bad_alloc@std@@6B@

; 355  : 		}

  00006	ff 25 00 00 00
	00		 jmp	 DWORD PTR __imp_??1exception@std@@UAE@XZ
??1bad_alloc@std@@UAE@XZ ENDP				; std::bad_alloc::~bad_alloc
_TEXT	ENDS
EXTRN	??3@YAXPAX@Z:PROC				; operator delete
; Function compile flags: /Ogsp
;	COMDAT ??_Gbad_alloc@std@@UAEPAXI@Z
_TEXT	SEGMENT
___flags$ = 8						; size = 4
??_Gbad_alloc@std@@UAEPAXI@Z PROC			; std::bad_alloc::`scalar deleting destructor', COMDAT
; _this$ = ecx
  00000	55		 push	 ebp
  00001	8b ec		 mov	 ebp, esp
  00003	56		 push	 esi
  00004	8b f1		 mov	 esi, ecx
  00006	c7 06 00 00 00
	00		 mov	 DWORD PTR [esi], OFFSET ??_7bad_alloc@std@@6B@
  0000c	ff 15 00 00 00
	00		 call	 DWORD PTR __imp_??1exception@std@@UAE@XZ
  00012	f6 45 08 01	 test	 BYTE PTR ___flags$[ebp], 1
  00016	74 07		 je	 SHORT $LN1@scalar
  00018	56		 push	 esi
  00019	e8 00 00 00 00	 call	 ??3@YAXPAX@Z		; operator delete
  0001e	59		 pop	 ecx
$LN1@scalar:
  0001f	8b c6		 mov	 eax, esi
  00021	5e		 pop	 esi
  00022	5d		 pop	 ebp
  00023	c2 04 00	 ret	 4
??_Gbad_alloc@std@@UAEPAXI@Z ENDP			; std::bad_alloc::`scalar deleting destructor'
_TEXT	ENDS
PUBLIC	??2@YAPAXIPAX@Z					; operator new
; Function compile flags: /Ogsp
; File c:\program files (x86)\microsoft visual studio 10.0\vc\include\new
;	COMDAT ??2@YAPAXIPAX@Z
_TEXT	SEGMENT
___formal$ = 8						; size = 4
__Where$ = 12						; size = 4
??2@YAPAXIPAX@Z PROC					; operator new, COMDAT

; 56   : 	{	// construct array with placement at _Where

  00000	55		 push	 ebp
  00001	8b ec		 mov	 ebp, esp

; 57   : 	return (_Where);

  00003	8b 45 0c	 mov	 eax, DWORD PTR __Where$[ebp]

; 58   : 	}

  00006	5d		 pop	 ebp
  00007	c3		 ret	 0
??2@YAPAXIPAX@Z ENDP					; operator new
_TEXT	ENDS
PUBLIC	??3@YAXPAX0@Z					; operator delete
; Function compile flags: /Ogsp
;	COMDAT ??3@YAXPAX0@Z
_TEXT	SEGMENT
___formal$ = 8						; size = 4
___formal$ = 12						; size = 4
??3@YAXPAX0@Z PROC					; operator delete, COMDAT

; 62   : 	}

  00000	c3		 ret	 0
??3@YAXPAX0@Z ENDP					; operator delete
_TEXT	ENDS
PUBLIC	?_Adopt@_Iterator_base0@std@@QAEXPBX@Z		; std::_Iterator_base0::_Adopt
; Function compile flags: /Ogsp
; File c:\program files (x86)\microsoft visual studio 10.0\vc\include\xutility
;	COMDAT ?_Adopt@_Iterator_base0@std@@QAEXPBX@Z
_TEXT	SEGMENT
___formal$ = 8						; size = 4
?_Adopt@_Iterator_base0@std@@QAEXPBX@Z PROC		; std::_Iterator_base0::_Adopt, COMDAT
; _this$ = ecx

; 49   : 		}

  00000	c2 04 00	 ret	 4
?_Adopt@_Iterator_base0@std@@QAEXPBX@Z ENDP		; std::_Iterator_base0::_Adopt
_TEXT	ENDS
PUBLIC	??_7SettingJoyBtn@@6B@				; SettingJoyBtn::`vftable'
PUBLIC	??0SettingJoyBtn@@QAE@XZ			; SettingJoyBtn::SettingJoyBtn
PUBLIC	??_R4SettingJoyBtn@@6B@				; SettingJoyBtn::`RTTI Complete Object Locator'
PUBLIC	??_R0?AVSettingJoyBtn@@@8			; SettingJoyBtn `RTTI Type Descriptor'
PUBLIC	??_R3SettingJoyBtn@@8				; SettingJoyBtn::`RTTI Class Hierarchy Descriptor'
PUBLIC	??_R2SettingJoyBtn@@8				; SettingJoyBtn::`RTTI Base Class Array'
PUBLIC	??_R1A@?0A@EA@SettingJoyBtn@@8			; SettingJoyBtn::`RTTI Base Class Descriptor at (0,-1,0,64)'
PUBLIC	??_R1A@?0A@EA@ioButton@@8			; ioButton::`RTTI Base Class Descriptor at (0,-1,0,64)'
PUBLIC	??_R0?AVioButton@@@8				; ioButton `RTTI Type Descriptor'
PUBLIC	??_R3ioButton@@8				; ioButton::`RTTI Class Hierarchy Descriptor'
PUBLIC	??_R2ioButton@@8				; ioButton::`RTTI Base Class Array'
PUBLIC	??_R1A@?0A@EA@ioWnd@@8				; ioWnd::`RTTI Base Class Descriptor at (0,-1,0,64)'
PUBLIC	??_R0?AVioWnd@@@8				; ioWnd `RTTI Type Descriptor'
PUBLIC	??_R3ioWnd@@8					; ioWnd::`RTTI Class Hierarchy Descriptor'
PUBLIC	??_R2ioWnd@@8					; ioWnd::`RTTI Base Class Array'
EXTRN	__imp_??0ioButton@@QAE@XZ:PROC
EXTRN	?AddRenderFrame@ioButton@@UAEXABVioHashString@@PAVioUIRenderFrame@@@Z:PROC ; ioButton::AddRenderFrame
EXTRN	?AddRenderImage@ioButton@@UAEXABVioHashString@@PAVioUIRenderImage@@@Z:PROC ; ioButton::AddRenderImage
EXTRN	?AddTooltipHelp@ioWnd@@UAEXABVioHashString@@00@Z:PROC ; ioWnd::AddTooltipHelp
EXTRN	?ParseExtraInfo@ioButton@@UAEXAAVioXMLElement@@@Z:PROC ; ioButton::ParseExtraInfo
EXTRN	?AddNamedRenderImage@ioWnd@@UAEXABVioHashString@@PAVioUIRenderImage@@@Z:PROC ; ioWnd::AddNamedRenderImage
EXTRN	?RemoveNamedRenderImage@ioWnd@@UAEXABVioHashString@@@Z:PROC ; ioWnd::RemoveNamedRenderImage
EXTRN	?GetNamedRenderImage@ioWnd@@UBEPAVioUIRenderImage@@ABVioHashString@@@Z:PROC ; ioWnd::GetNamedRenderImage
EXTRN	?SetWindowAlpha@ioButton@@UAEXH@Z:PROC		; ioButton::SetWindowAlpha
EXTRN	?SetActive@ioWnd@@UAEXXZ:PROC			; ioWnd::SetActive
EXTRN	?SetInActive@ioWnd@@UAEXXZ:PROC			; ioWnd::SetInActive
EXTRN	?ClearElementImageList@ioWnd@@UAEXXZ:PROC	; ioWnd::ClearElementImageList
EXTRN	?SetSize@ioWnd@@UAEXHH@Z:PROC			; ioWnd::SetSize
EXTRN	?SetPositionToDefault@ioWnd@@UAEXHH_N0@Z:PROC	; ioWnd::SetPositionToDefault
EXTRN	?IsNeedProcess@ioWnd@@UBE_NXZ:PROC		; ioWnd::IsNeedProcess
EXTRN	?IsCanMouseReaction@ioWnd@@UBE_NXZ:PROC		; ioWnd::IsCanMouseReaction
EXTRN	?AddChild@ioWnd@@UAEXPAV1@@Z:PROC		; ioWnd::AddChild
EXTRN	?DeleteChild@ioWnd@@UAEXK@Z:PROC		; ioWnd::DeleteChild
EXTRN	?DeleteAllChild@ioWnd@@UAEXXZ:PROC		; ioWnd::DeleteAllChild
EXTRN	?OnRenderShowAndHide@ioWnd@@MAE_NXZ:PROC	; ioWnd::OnRenderShowAndHide
EXTRN	?OnRenderShowAndHideByDefault@ioWnd@@MAE_NK@Z:PROC ; ioWnd::OnRenderShowAndHideByDefault
EXTRN	?OnRenderShowAndHideByTop@ioWnd@@MAE_NK@Z:PROC	; ioWnd::OnRenderShowAndHideByTop
EXTRN	?OnRenderShowAndHideByDown@ioWnd@@MAE_NK@Z:PROC	; ioWnd::OnRenderShowAndHideByDown
EXTRN	?OnRender@ioButton@@MAEXXZ:PROC			; ioButton::OnRender
EXTRN	?OnRenderAfterChild@ioWnd@@MAEXXZ:PROC		; ioWnd::OnRenderAfterChild
EXTRN	?OnProcess@ioWnd@@MAEXM@Z:PROC			; ioWnd::OnProcess
EXTRN	?OnMouseProcess@ioWnd@@MAEXABVioMouse@@@Z:PROC	; ioWnd::OnMouseProcess
EXTRN	?CheckFrameReSize@ioButton@@MAEXHHHH@Z:PROC	; ioButton::CheckFrameReSize
EXTRN	?RenderImageList@ioWnd@@MAEXHHW4UIRenderType@@@Z:PROC ; ioWnd::RenderImageList
EXTRN	?iwm_create@ioWnd@@UAEXXZ:PROC			; ioWnd::iwm_create
EXTRN	?iwm_destroy@ioWnd@@UAEXXZ:PROC			; ioWnd::iwm_destroy
EXTRN	?iwm_lbuttondown@ioButton@@UAEXABVioMouse@@@Z:PROC ; ioButton::iwm_lbuttondown
EXTRN	?iwm_lbuttonup@ioButton@@UAEXABVioMouse@@@Z:PROC ; ioButton::iwm_lbuttonup
EXTRN	?iwm_lbuttonDBLCLK@ioButton@@UAEXABVioMouse@@@Z:PROC ; ioButton::iwm_lbuttonDBLCLK
EXTRN	?iwm_rbuttondown@ioButton@@UAEXABVioMouse@@@Z:PROC ; ioButton::iwm_rbuttondown
EXTRN	?iwm_rbuttonup@ioButton@@UAEXABVioMouse@@@Z:PROC ; ioButton::iwm_rbuttonup
EXTRN	?iwm_command@ioWnd@@UAEXPAV1@HK@Z:PROC		; ioWnd::iwm_command
EXTRN	?iwm_mouseover@ioButton@@UAEXABVioMouse@@@Z:PROC ; ioButton::iwm_mouseover
EXTRN	?iwm_mousemove@ioWnd@@UAEXABVioMouse@@@Z:PROC	; ioWnd::iwm_mousemove
EXTRN	?iwm_mouseleave@ioWnd@@UAEXABVioMouse@@@Z:PROC	; ioWnd::iwm_mouseleave
EXTRN	?iwm_vscroll@ioWnd@@UAEXKH@Z:PROC		; ioWnd::iwm_vscroll
EXTRN	?iwm_wheel@ioWnd@@UAEXH@Z:PROC			; ioWnd::iwm_wheel
EXTRN	?iwm_show@ioWnd@@UAEXXZ:PROC			; ioWnd::iwm_show
EXTRN	?iwm_hide@ioWnd@@UAEXXZ:PROC			; ioWnd::iwm_hide
EXTRN	?iwm_esc@ioWnd@@UAE_NXZ:PROC			; ioWnd::iwm_esc
EXTRN	?iwm_spacebar@ioWnd@@UAE_NXZ:PROC		; ioWnd::iwm_spacebar
EXTRN	?iwm_gototop@ioWnd@@UAEXXZ:PROC			; ioWnd::iwm_gototop
EXTRN	?iwm_dragenter@ioWnd@@UAE?AW4IWDropEffect@@PAVioDragItem@@ABVioMouse@@@Z:PROC ; ioWnd::iwm_dragenter
EXTRN	?iwm_dragover@ioWnd@@UAE?AW4IWDropEffect@@PAVioDragItem@@ABVioMouse@@@Z:PROC ; ioWnd::iwm_dragover
EXTRN	?iwm_dragleave@ioWnd@@UAEXXZ:PROC		; ioWnd::iwm_dragleave
EXTRN	?iwm_dropitem@ioWnd@@UAE_NPAVioDragItem@@ABVioMouse@@PAV1@@Z:PROC ; ioWnd::iwm_dropitem
EXTRN	?iwm_dropdone@ioWnd@@UAEXPAVioDragItem@@PAV1@_N@Z:PROC ; ioWnd::iwm_dropdone
EXTRN	?IsEXType@ioWnd@@UBE_NXZ:PROC			; ioWnd::IsEXType
EXTRN	?GetWndType@ioButton@@UBEKXZ:PROC		; ioButton::GetWndType
EXTRN	?RenderWnd@ioWnd@@UAEXXZ:PROC			; ioWnd::RenderWnd
EXTRN	?SetIDEX@ioWnd@@UAEXAAK_N@Z:PROC		; ioWnd::SetIDEX
EXTRN	?ParseXML@ioWnd@@UAEXAAVioXMLElement@@@Z:PROC	; ioWnd::ParseXML
EXTRN	?GetHeaderFileName@ioButton@@UAEPBDXZ:PROC	; ioButton::GetHeaderFileName
EXTRN	?GetTemplateName@ioButton@@UAEPBDXZ:PROC	; ioButton::GetTemplateName
EXTRN	?GetDefClassName@ioButton@@UBEPBDXZ:PROC	; ioButton::GetDefClassName
EXTRN	?_Clone@ioButton@@UAEPAVioWnd@@XZ:PROC		; ioButton::_Clone
EXTRN	?Copy@ioButton@@UAEXPAVioWnd@@@Z:PROC		; ioButton::Copy
EXTRN	?Save@ioWnd@@UAE_NAAVioXMLElement@@@Z:PROC	; ioWnd::Save
EXTRN	?SetSaveData@ioButton@@UAEXAAVioXMLElement@@@Z:PROC ; ioButton::SetSaveData
EXTRN	?SetPosX@ioWnd@@UAEXH@Z:PROC			; ioWnd::SetPosX
EXTRN	?SetPosY@ioWnd@@UAEXH@Z:PROC			; ioWnd::SetPosY
EXTRN	?SetWidth@ioWnd@@UAEXH@Z:PROC			; ioWnd::SetWidth
EXTRN	?SetHeight@ioWnd@@UAEXH@Z:PROC			; ioWnd::SetHeight
EXTRN	?GetNumFixedRenderFrame@ioButton@@UBEHXZ:PROC	; ioButton::GetNumFixedRenderFrame
EXTRN	?GetFixedRenderFrameType@ioButton@@UAEPBDH@Z:PROC ; ioButton::GetFixedRenderFrameType
EXTRN	?GetRenderFrame@ioButton@@UAEPAPAVioUIRenderElement@@PBD@Z:PROC ; ioButton::GetRenderFrame
EXTRN	?GetNumFixedRenderImage@ioButton@@UBEHXZ:PROC	; ioButton::GetNumFixedRenderImage
EXTRN	?GetFixedRenderImageType@ioButton@@UAEPBDH@Z:PROC ; ioButton::GetFixedRenderImageType
EXTRN	?GetRenderImage@ioButton@@UAEPAPAVioUIRenderElement@@PBD@Z:PROC ; ioButton::GetRenderImage
EXTRN	?AddEffect@ioWnd@@UAEXABVioHashString@@PAVioUI3DEffectRender@@@Z:PROC ; ioWnd::AddEffect
EXTRN	?GetEffect@ioWnd@@UAEPAVioUI3DEffectRender@@VioHashString@@@Z:PROC ; ioWnd::GetEffect
EXTRN	??_ESettingJoyBtn@@UAEPAXI@Z:PROC		; SettingJoyBtn::`vector deleting destructor'
EXTRN	?OnDrawNormal@ioButton@@MAEXHH@Z:PROC		; ioButton::OnDrawNormal
EXTRN	?OnDrawOvered@ioButton@@MAEXHH@Z:PROC		; ioButton::OnDrawOvered
EXTRN	?OnDrawOveredAdd@ioButton@@MAEXHH@Z:PROC	; ioButton::OnDrawOveredAdd
EXTRN	?OnDrawPushed@ioButton@@MAEXHH@Z:PROC		; ioButton::OnDrawPushed
EXTRN	?OnDrawDisabled@ioButton@@MAEXHH@Z:PROC		; ioButton::OnDrawDisabled
EXTRN	?OnDrawExDisabledNormal@ioButton@@MAEXHH@Z:PROC	; ioButton::OnDrawExDisabledNormal
EXTRN	?OnDrawExDisabledOvered@ioButton@@MAEXHH@Z:PROC	; ioButton::OnDrawExDisabledOvered
EXTRN	?OnDrawExDisabledPushed@ioButton@@MAEXHH@Z:PROC	; ioButton::OnDrawExDisabledPushed
EXTRN	?OnDrawBack@ioButton@@MAEXHH@Z:PROC		; ioButton::OnDrawBack
EXTRN	?OnDrawNormalList@ioButton@@MAEXHH@Z:PROC	; ioButton::OnDrawNormalList
EXTRN	?OnDrawDisableList@ioButton@@MAEXHH@Z:PROC	; ioButton::OnDrawDisableList
;	COMDAT ??_R2ioWnd@@8
; File d:\lost saga for developer\youtube\tutorial\source\src\lsclient\gui\gameoptionsettingjoykeytab.cpp
rdata$r	SEGMENT
??_R2ioWnd@@8 DD FLAT:??_R1A@?0A@EA@ioWnd@@8		; ioWnd::`RTTI Base Class Array'
rdata$r	ENDS
;	COMDAT ??_R3ioWnd@@8
rdata$r	SEGMENT
??_R3ioWnd@@8 DD 00H					; ioWnd::`RTTI Class Hierarchy Descriptor'
	DD	00H
	DD	01H
	DD	FLAT:??_R2ioWnd@@8
rdata$r	ENDS
;	COMDAT ??_R0?AVioWnd@@@8
_DATA	SEGMENT
??_R0?AVioWnd@@@8 DD FLAT:??_7type_info@@6B@		; ioWnd `RTTI Type Descriptor'
	DD	00H
	DB	'.?AVioWnd@@', 00H
_DATA	ENDS
;	COMDAT ??_R1A@?0A@EA@ioWnd@@8
rdata$r	SEGMENT
??_R1A@?0A@EA@ioWnd@@8 DD FLAT:??_R0?AVioWnd@@@8	; ioWnd::`RTTI Base Class Descriptor at (0,-1,0,64)'
	DD	00H
	DD	00H
	DD	0ffffffffH
	DD	00H
	DD	040H
	DD	FLAT:??_R3ioWnd@@8
rdata$r	ENDS
;	COMDAT ??_R2ioButton@@8
rdata$r	SEGMENT
??_R2ioButton@@8 DD FLAT:??_R1A@?0A@EA@ioButton@@8	; ioButton::`RTTI Base Class Array'
	DD	FLAT:??_R1A@?0A@EA@ioWnd@@8
rdata$r	ENDS
;	COMDAT ??_R3ioButton@@8
rdata$r	SEGMENT
??_R3ioButton@@8 DD 00H					; ioButton::`RTTI Class Hierarchy Descriptor'
	DD	00H
	DD	02H
	DD	FLAT:??_R2ioButton@@8
rdata$r	ENDS
;	COMDAT ??_R0?AVioButton@@@8
_DATA	SEGMENT
??_R0?AVioButton@@@8 DD FLAT:??_7type_info@@6B@		; ioButton `RTTI Type Descriptor'
	DD	00H
	DB	'.?AVioButton@@', 00H
_DATA	ENDS
;	COMDAT ??_R1A@?0A@EA@ioButton@@8
rdata$r	SEGMENT
??_R1A@?0A@EA@ioButton@@8 DD FLAT:??_R0?AVioButton@@@8	; ioButton::`RTTI Base Class Descriptor at (0,-1,0,64)'
	DD	01H
	DD	00H
	DD	0ffffffffH
	DD	00H
	DD	040H
	DD	FLAT:??_R3ioButton@@8
rdata$r	ENDS
;	COMDAT ??_R1A@?0A@EA@SettingJoyBtn@@8
rdata$r	SEGMENT
??_R1A@?0A@EA@SettingJoyBtn@@8 DD FLAT:??_R0?AVSettingJoyBtn@@@8 ; SettingJoyBtn::`RTTI Base Class Descriptor at (0,-1,0,64)'
	DD	02H
	DD	00H
	DD	0ffffffffH
	DD	00H
	DD	040H
	DD	FLAT:??_R3SettingJoyBtn@@8
rdata$r	ENDS
;	COMDAT ??_R2SettingJoyBtn@@8
rdata$r	SEGMENT
??_R2SettingJoyBtn@@8 DD FLAT:??_R1A@?0A@EA@SettingJoyBtn@@8 ; SettingJoyBtn::`RTTI Base Class Array'
	DD	FLAT:??_R1A@?0A@EA@ioButton@@8
	DD	FLAT:??_R1A@?0A@EA@ioWnd@@8
rdata$r	ENDS
;	COMDAT ??_R3SettingJoyBtn@@8
rdata$r	SEGMENT
??_R3SettingJoyBtn@@8 DD 00H				; SettingJoyBtn::`RTTI Class Hierarchy Descriptor'
	DD	00H
	DD	03H
	DD	FLAT:??_R2SettingJoyBtn@@8
rdata$r	ENDS
;	COMDAT ??_R0?AVSettingJoyBtn@@@8
_DATA	SEGMENT
??_R0?AVSettingJoyBtn@@@8 DD FLAT:??_7type_info@@6B@	; SettingJoyBtn `RTTI Type Descriptor'
	DD	00H
	DB	'.?AVSettingJoyBtn@@', 00H
_DATA	ENDS
;	COMDAT ??_R4SettingJoyBtn@@6B@
rdata$r	SEGMENT
??_R4SettingJoyBtn@@6B@ DD 00H				; SettingJoyBtn::`RTTI Complete Object Locator'
	DD	00H
	DD	00H
	DD	FLAT:??_R0?AVSettingJoyBtn@@@8
	DD	FLAT:??_R3SettingJoyBtn@@8
rdata$r	ENDS
;	COMDAT ??_7SettingJoyBtn@@6B@
CONST	SEGMENT
??_7SettingJoyBtn@@6B@ DD FLAT:??_R4SettingJoyBtn@@6B@	; SettingJoyBtn::`vftable'
	DD	FLAT:?AddRenderFrame@ioButton@@UAEXABVioHashString@@PAVioUIRenderFrame@@@Z
	DD	FLAT:?AddRenderImage@ioButton@@UAEXABVioHashString@@PAVioUIRenderImage@@@Z
	DD	FLAT:?AddTooltipHelp@ioWnd@@UAEXABVioHashString@@00@Z
	DD	FLAT:?ParseExtraInfo@ioButton@@UAEXAAVioXMLElement@@@Z
	DD	FLAT:?AddNamedRenderImage@ioWnd@@UAEXABVioHashString@@PAVioUIRenderImage@@@Z
	DD	FLAT:?RemoveNamedRenderImage@ioWnd@@UAEXABVioHashString@@@Z
	DD	FLAT:?GetNamedRenderImage@ioWnd@@UBEPAVioUIRenderImage@@ABVioHashString@@@Z
	DD	FLAT:?SetWindowAlpha@ioButton@@UAEXH@Z
	DD	FLAT:?SetActive@ioWnd@@UAEXXZ
	DD	FLAT:?SetInActive@ioWnd@@UAEXXZ
	DD	FLAT:?ClearElementImageList@ioWnd@@UAEXXZ
	DD	FLAT:?SetSize@ioWnd@@UAEXHH@Z
	DD	FLAT:?SetPositionToDefault@ioWnd@@UAEXHH_N0@Z
	DD	FLAT:?IsNeedProcess@ioWnd@@UBE_NXZ
	DD	FLAT:?IsCanMouseReaction@ioWnd@@UBE_NXZ
	DD	FLAT:?AddChild@ioWnd@@UAEXPAV1@@Z
	DD	FLAT:?DeleteChild@ioWnd@@UAEXK@Z
	DD	FLAT:?DeleteAllChild@ioWnd@@UAEXXZ
	DD	FLAT:?OnRenderShowAndHide@ioWnd@@MAE_NXZ
	DD	FLAT:?OnRenderShowAndHideByDefault@ioWnd@@MAE_NK@Z
	DD	FLAT:?OnRenderShowAndHideByTop@ioWnd@@MAE_NK@Z
	DD	FLAT:?OnRenderShowAndHideByDown@ioWnd@@MAE_NK@Z
	DD	FLAT:?OnRender@ioButton@@MAEXXZ
	DD	FLAT:?OnRenderAfterChild@ioWnd@@MAEXXZ
	DD	FLAT:?OnProcess@ioWnd@@MAEXM@Z
	DD	FLAT:?OnMouseProcess@ioWnd@@MAEXABVioMouse@@@Z
	DD	FLAT:?CheckFrameReSize@ioButton@@MAEXHHHH@Z
	DD	FLAT:?RenderImageList@ioWnd@@MAEXHHW4UIRenderType@@@Z
	DD	FLAT:?iwm_create@ioWnd@@UAEXXZ
	DD	FLAT:?iwm_destroy@ioWnd@@UAEXXZ
	DD	FLAT:?iwm_lbuttondown@ioButton@@UAEXABVioMouse@@@Z
	DD	FLAT:?iwm_lbuttonup@ioButton@@UAEXABVioMouse@@@Z
	DD	FLAT:?iwm_lbuttonDBLCLK@ioButton@@UAEXABVioMouse@@@Z
	DD	FLAT:?iwm_rbuttondown@ioButton@@UAEXABVioMouse@@@Z
	DD	FLAT:?iwm_rbuttonup@ioButton@@UAEXABVioMouse@@@Z
	DD	FLAT:?iwm_command@ioWnd@@UAEXPAV1@HK@Z
	DD	FLAT:?iwm_mouseover@ioButton@@UAEXABVioMouse@@@Z
	DD	FLAT:?iwm_mousemove@ioWnd@@UAEXABVioMouse@@@Z
	DD	FLAT:?iwm_mouseleave@ioWnd@@UAEXABVioMouse@@@Z
	DD	FLAT:?iwm_vscroll@ioWnd@@UAEXKH@Z
	DD	FLAT:?iwm_wheel@ioWnd@@UAEXH@Z
	DD	FLAT:?iwm_show@ioWnd@@UAEXXZ
	DD	FLAT:?iwm_hide@ioWnd@@UAEXXZ
	DD	FLAT:?iwm_esc@ioWnd@@UAE_NXZ
	DD	FLAT:?iwm_spacebar@ioWnd@@UAE_NXZ
	DD	FLAT:?iwm_gototop@ioWnd@@UAEXXZ
	DD	FLAT:?iwm_dragenter@ioWnd@@UAE?AW4IWDropEffect@@PAVioDragItem@@ABVioMouse@@@Z
	DD	FLAT:?iwm_dragover@ioWnd@@UAE?AW4IWDropEffect@@PAVioDragItem@@ABVioMouse@@@Z
	DD	FLAT:?iwm_dragleave@ioWnd@@UAEXXZ
	DD	FLAT:?iwm_dropitem@ioWnd@@UAE_NPAVioDragItem@@ABVioMouse@@PAV1@@Z
	DD	FLAT:?iwm_dropdone@ioWnd@@UAEXPAVioDragItem@@PAV1@_N@Z
	DD	FLAT:?IsEXType@ioWnd@@UBE_NXZ
	DD	FLAT:?GetWndType@ioButton@@UBEKXZ
	DD	FLAT:?RenderWnd@ioWnd@@UAEXXZ
	DD	FLAT:?SetIDEX@ioWnd@@UAEXAAK_N@Z
	DD	FLAT:?ParseXML@ioWnd@@UAEXAAVioXMLElement@@@Z
	DD	FLAT:?GetHeaderFileName@ioButton@@UAEPBDXZ
	DD	FLAT:?GetTemplateName@ioButton@@UAEPBDXZ
	DD	FLAT:?GetDefClassName@ioButton@@UBEPBDXZ
	DD	FLAT:?_Clone@ioButton@@UAEPAVioWnd@@XZ
	DD	FLAT:?Copy@ioButton@@UAEXPAVioWnd@@@Z
	DD	FLAT:?Save@ioWnd@@UAE_NAAVioXMLElement@@@Z
	DD	FLAT:?SetSaveData@ioButton@@UAEXAAVioXMLElement@@@Z
	DD	FLAT:?SetPosX@ioWnd@@UAEXH@Z
	DD	FLAT:?SetPosY@ioWnd@@UAEXH@Z
	DD	FLAT:?SetWidth@ioWnd@@UAEXH@Z
	DD	FLAT:?SetHeight@ioWnd@@UAEXH@Z
	DD	FLAT:?GetNumFixedRenderFrame@ioButton@@UBEHXZ
	DD	FLAT:?GetFixedRenderFrameType@ioButton@@UAEPBDH@Z
	DD	FLAT:?GetRenderFrame@ioButton@@UAEPAPAVioUIRenderElement@@PBD@Z
	DD	FLAT:?GetNumFixedRenderImage@ioButton@@UBEHXZ
	DD	FLAT:?GetFixedRenderImageType@ioButton@@UAEPBDH@Z
	DD	FLAT:?GetRenderImage@ioButton@@UAEPAPAVioUIRenderElement@@PBD@Z
	DD	FLAT:?AddEffect@ioWnd@@UAEXABVioHashString@@PAVioUI3DEffectRender@@@Z
	DD	FLAT:?GetEffect@ioWnd@@UAEPAVioUI3DEffectRender@@VioHashString@@@Z
	DD	FLAT:??_ESettingJoyBtn@@UAEPAXI@Z
	DD	FLAT:?OnDrawNormal@ioButton@@MAEXHH@Z
	DD	FLAT:?OnDrawOvered@ioButton@@MAEXHH@Z
	DD	FLAT:?OnDrawOveredAdd@ioButton@@MAEXHH@Z
	DD	FLAT:?OnDrawPushed@ioButton@@MAEXHH@Z
	DD	FLAT:?OnDrawDisabled@ioButton@@MAEXHH@Z
	DD	FLAT:?OnDrawExDisabledNormal@ioButton@@MAEXHH@Z
	DD	FLAT:?OnDrawExDisabledOvered@ioButton@@MAEXHH@Z
	DD	FLAT:?OnDrawExDisabledPushed@ioButton@@MAEXHH@Z
	DD	FLAT:?OnDrawBack@ioButton@@MAEXHH@Z
	DD	FLAT:?OnDrawNormalList@ioButton@@MAEXHH@Z
	DD	FLAT:?OnDrawDisableList@ioButton@@MAEXHH@Z
; Function compile flags: /Ogsp
CONST	ENDS
;	COMDAT ??0SettingJoyBtn@@QAE@XZ
_TEXT	SEGMENT
??0SettingJoyBtn@@QAE@XZ PROC				; SettingJoyBtn::SettingJoyBtn, COMDAT
; _this$ = ecx

; 40   : {

  00000	56		 push	 esi
  00001	8b f1		 mov	 esi, ecx
  00003	ff 15 00 00 00
	00		 call	 DWORD PTR __imp_??0ioButton@@QAE@XZ

; 41   : 	m_eKeyType = CJoyKeyInfo::JTA_NONE;

  00009	83 8e fc 01 00
	00 ff		 or	 DWORD PTR [esi+508], -1

; 42   : 	m_wKey     = KEY_NULL;

  00010	33 c0		 xor	 eax, eax
  00012	66 89 86 00 02
	00 00		 mov	 WORD PTR [esi+512], ax
  00019	c7 06 00 00 00
	00		 mov	 DWORD PTR [esi], OFFSET ??_7SettingJoyBtn@@6B@

; 43   : }

  0001f	8b c6		 mov	 eax, esi
  00021	5e		 pop	 esi
  00022	c3		 ret	 0
??0SettingJoyBtn@@QAE@XZ ENDP				; SettingJoyBtn::SettingJoyBtn
_TEXT	ENDS
PUBLIC	??1SettingJoyBtn@@UAE@XZ			; SettingJoyBtn::~SettingJoyBtn
EXTRN	__imp_??1ioButton@@UAE@XZ:PROC
; Function compile flags: /Ogsp
;	COMDAT ??1SettingJoyBtn@@UAE@XZ
_TEXT	SEGMENT
??1SettingJoyBtn@@UAE@XZ PROC				; SettingJoyBtn::~SettingJoyBtn, COMDAT
; _this$ = ecx

; 46   : {

  00000	c7 01 00 00 00
	00		 mov	 DWORD PTR [ecx], OFFSET ??_7SettingJoyBtn@@6B@

; 47   : 
; 48   : }

  00006	ff 25 00 00 00
	00		 jmp	 DWORD PTR __imp_??1ioButton@@UAE@XZ
??1SettingJoyBtn@@UAE@XZ ENDP				; SettingJoyBtn::~SettingJoyBtn
_TEXT	ENDS
PUBLIC	?SetKeyType@SettingJoyBtn@@QAEXW4KeyTypeArray@CJoyKeyInfo@@@Z ; SettingJoyBtn::SetKeyType
; Function compile flags: /Ogsp
;	COMDAT ?SetKeyType@SettingJoyBtn@@QAEXW4KeyTypeArray@CJoyKeyInfo@@@Z
_TEXT	SEGMENT
_eKeyType$ = 8						; size = 4
?SetKeyType@SettingJoyBtn@@QAEXW4KeyTypeArray@CJoyKeyInfo@@@Z PROC ; SettingJoyBtn::SetKeyType, COMDAT
; _this$ = ecx

; 51   : {

  00000	55		 push	 ebp
  00001	8b ec		 mov	 ebp, esp

; 52   : 	m_eKeyType = eKeyType;

  00003	8b 45 08	 mov	 eax, DWORD PTR _eKeyType$[ebp]
  00006	89 81 fc 01 00
	00		 mov	 DWORD PTR [ecx+508], eax

; 53   : }

  0000c	5d		 pop	 ebp
  0000d	c2 04 00	 ret	 4
?SetKeyType@SettingJoyBtn@@QAEXW4KeyTypeArray@CJoyKeyInfo@@@Z ENDP ; SettingJoyBtn::SetKeyType
_TEXT	ENDS
PUBLIC	?GetKeyType@SettingJoyBtn@@QAE?AW4KeyTypeArray@CJoyKeyInfo@@XZ ; SettingJoyBtn::GetKeyType
; Function compile flags: /Ogsp
;	COMDAT ?GetKeyType@SettingJoyBtn@@QAE?AW4KeyTypeArray@CJoyKeyInfo@@XZ
_TEXT	SEGMENT
?GetKeyType@SettingJoyBtn@@QAE?AW4KeyTypeArray@CJoyKeyInfo@@XZ PROC ; SettingJoyBtn::GetKeyType, COMDAT
; _this$ = ecx

; 57   : 	return m_eKeyType;

  00000	8b 81 fc 01 00
	00		 mov	 eax, DWORD PTR [ecx+508]

; 58   : }

  00006	c3		 ret	 0
?GetKeyType@SettingJoyBtn@@QAE?AW4KeyTypeArray@CJoyKeyInfo@@XZ ENDP ; SettingJoyBtn::GetKeyType
_TEXT	ENDS
PUBLIC	??_C@_0BJ@LGDEMIFA@SettingJoyBtn?3?3SetSelect?$AA@ ; `string'
PUBLIC	??_C@_00CNPNBAHC@?$AA@				; `string'
PUBLIC	?SetSelect@SettingJoyBtn@@QAEXXZ		; SettingJoyBtn::SetSelect
EXTRN	__imp_?SetText@ioUITitle@@QAEXPBD0@Z:PROC
EXTRN	__imp_?GetString@ioStringManager@@QAEPADPBD0HW4FileNamePrefix@1@@Z:PROC
EXTRN	__imp_?GetSingleton@ioStringManager@@SAAAV1@XZ:PROC
EXTRN	__imp_?SetAllColor@ioUITitle@@QAEXKK@Z:PROC
EXTRN	__imp_?IsDisabled@ioButton@@QBE_NXZ:PROC
;	COMDAT ??_C@_0BJ@LGDEMIFA@SettingJoyBtn?3?3SetSelect?$AA@
CONST	SEGMENT
??_C@_0BJ@LGDEMIFA@SettingJoyBtn?3?3SetSelect?$AA@ DB 'SettingJoyBtn::Set'
	DB	'Select', 00H				; `string'
CONST	ENDS
;	COMDAT ??_C@_00CNPNBAHC@?$AA@
CONST	SEGMENT
??_C@_00CNPNBAHC@?$AA@ DB 00H				; `string'
; Function compile flags: /Ogsp
CONST	ENDS
;	COMDAT ?SetSelect@SettingJoyBtn@@QAEXXZ
_TEXT	SEGMENT
?SetSelect@SettingJoyBtn@@QAEXXZ PROC			; SettingJoyBtn::SetSelect, COMDAT
; _this$ = ecx

; 61   : {

  00000	56		 push	 esi
  00001	8b f1		 mov	 esi, ecx

; 62   : 	if(m_pUITitle)

  00003	83 7e 3c 00	 cmp	 DWORD PTR [esi+60], 0
  00007	74 4c		 je	 SHORT $LN3@SetSelect

; 63   : 	{
; 64   : 		if(IsDisabled())

  00009	ff 15 00 00 00
	00		 call	 DWORD PTR __imp_?IsDisabled@ioButton@@QBE_NXZ

; 65   : 			m_pUITitle->SetAllColor(0xFFA7A7A7, 0xFF000000);

  0000f	8b 4e 3c	 mov	 ecx, DWORD PTR [esi+60]
  00012	68 00 00 00 ff	 push	 -16777216		; ff000000H
  00017	84 c0		 test	 al, al
  00019	74 07		 je	 SHORT $LN2@SetSelect
  0001b	68 a7 a7 a7 ff	 push	 -5789785		; ffa7a7a7H

; 66   : 		else

  00020	eb 05		 jmp	 SHORT $LN6@SetSelect
$LN2@SetSelect:

; 67   : 			m_pUITitle->SetAllColor( 0xFF117222, 0xFF000000 );

  00022	68 22 72 11 ff	 push	 -15633886		; ff117222H
$LN6@SetSelect:
  00027	ff 15 00 00 00
	00		 call	 DWORD PTR __imp_?SetAllColor@ioUITitle@@QAEXKK@Z

; 68   : 		m_pUITitle->SetText(STR(1), "");

  0002d	b8 00 00 00 00	 mov	 eax, OFFSET ??_C@_00CNPNBAHC@?$AA@
  00032	50		 push	 eax
  00033	6a 00		 push	 0
  00035	6a 01		 push	 1
  00037	50		 push	 eax
  00038	68 00 00 00 00	 push	 OFFSET ??_C@_0BJ@LGDEMIFA@SettingJoyBtn?3?3SetSelect?$AA@
  0003d	ff 15 00 00 00
	00		 call	 DWORD PTR __imp_?GetSingleton@ioStringManager@@SAAAV1@XZ
  00043	8b c8		 mov	 ecx, eax
  00045	ff 15 00 00 00
	00		 call	 DWORD PTR __imp_?GetString@ioStringManager@@QAEPADPBD0HW4FileNamePrefix@1@@Z
  0004b	8b 4e 3c	 mov	 ecx, DWORD PTR [esi+60]
  0004e	50		 push	 eax
  0004f	ff 15 00 00 00
	00		 call	 DWORD PTR __imp_?SetText@ioUITitle@@QAEXPBD0@Z
$LN3@SetSelect:
  00055	5e		 pop	 esi

; 69   : 
; 70   : 	}
; 71   : }

  00056	c3		 ret	 0
?SetSelect@SettingJoyBtn@@QAEXXZ ENDP			; SettingJoyBtn::SetSelect
_TEXT	ENDS
PUBLIC	?UnSelect@SettingJoyBtn@@QAEXM@Z		; SettingJoyBtn::UnSelect
EXTRN	__imp_?SetPrintTextStyle@ioUITitle@@QAEXW4PrintTextStyle@1@@Z:PROC
EXTRN	__imp_?SetWidthCutSize@ioUITitle@@QAEXM@Z:PROC
EXTRN	?GetKeyText@ioKeyManager@@QAEPBDG@Z:PROC	; ioKeyManager::GetKeyText
EXTRN	?GetSingleton@ioKeyManager@@SAAAV1@XZ:PROC	; ioKeyManager::GetSingleton
EXTRN	__fltused:DWORD
; Function compile flags: /Ogsp
;	COMDAT ?UnSelect@SettingJoyBtn@@QAEXM@Z
_TEXT	SEGMENT
_fWidthCutSize$ = 8					; size = 4
?UnSelect@SettingJoyBtn@@QAEXM@Z PROC			; SettingJoyBtn::UnSelect, COMDAT
; _this$ = ecx

; 74   : {

  00000	55		 push	 ebp
  00001	8b ec		 mov	 ebp, esp
  00003	56		 push	 esi
  00004	8b f1		 mov	 esi, ecx

; 75   : 	if(m_pUITitle)

  00006	83 7e 3c 00	 cmp	 DWORD PTR [esi+60], 0
  0000a	74 66		 je	 SHORT $LN3@UnSelect

; 76   : 	{
; 77   : 		if( IsDisabled() )

  0000c	ff 15 00 00 00
	00		 call	 DWORD PTR __imp_?IsDisabled@ioButton@@QBE_NXZ

; 78   : 			m_pUITitle->SetAllColor(0xFFA7A7A7, 0xFF000000);

  00012	8b 4e 3c	 mov	 ecx, DWORD PTR [esi+60]
  00015	68 00 00 00 ff	 push	 -16777216		; ff000000H
  0001a	84 c0		 test	 al, al
  0001c	74 07		 je	 SHORT $LN2@UnSelect
  0001e	68 a7 a7 a7 ff	 push	 -5789785		; ffa7a7a7H

; 79   : 		else

  00023	eb 05		 jmp	 SHORT $LN6@UnSelect
$LN2@UnSelect:

; 80   : 			m_pUITitle->SetAllColor( 0xFF3A3A3A, 0xFF000000 );

  00025	68 3a 3a 3a ff	 push	 -12961222		; ff3a3a3aH
$LN6@UnSelect:
  0002a	ff 15 00 00 00
	00		 call	 DWORD PTR __imp_?SetAllColor@ioUITitle@@QAEXKK@Z

; 81   : 		m_pUITitle->SetText( g_KeyManager.GetKeyText(m_wKey) , "");

  00030	0f b7 86 00 02
	00 00		 movzx	 eax, WORD PTR [esi+512]
  00037	68 00 00 00 00	 push	 OFFSET ??_C@_00CNPNBAHC@?$AA@
  0003c	50		 push	 eax
  0003d	e8 00 00 00 00	 call	 ?GetSingleton@ioKeyManager@@SAAAV1@XZ ; ioKeyManager::GetSingleton
  00042	8b c8		 mov	 ecx, eax
  00044	e8 00 00 00 00	 call	 ?GetKeyText@ioKeyManager@@QAEPBDG@Z ; ioKeyManager::GetKeyText
  00049	8b 4e 3c	 mov	 ecx, DWORD PTR [esi+60]
  0004c	50		 push	 eax
  0004d	ff 15 00 00 00
	00		 call	 DWORD PTR __imp_?SetText@ioUITitle@@QAEXPBD0@Z

; 82   : 		m_pUITitle->SetWidthCutSize( fWidthCutSize );

  00053	f3 0f 10 45 08	 movss	 xmm0, DWORD PTR _fWidthCutSize$[ebp]
  00058	51		 push	 ecx
  00059	8b 4e 3c	 mov	 ecx, DWORD PTR [esi+60]
  0005c	f3 0f 11 04 24	 movss	 DWORD PTR [esp], xmm0
  00061	ff 15 00 00 00
	00		 call	 DWORD PTR __imp_?SetWidthCutSize@ioUITitle@@QAEXM@Z

; 83   : 		m_pUITitle->SetPrintTextStyle( ioUITitle::PTS_WIDTHCUT );

  00067	8b 4e 3c	 mov	 ecx, DWORD PTR [esi+60]
  0006a	6a 02		 push	 2
  0006c	ff 15 00 00 00
	00		 call	 DWORD PTR __imp_?SetPrintTextStyle@ioUITitle@@QAEXW4PrintTextStyle@1@@Z
$LN3@UnSelect:
  00072	5e		 pop	 esi

; 84   : 	}
; 85   : }

  00073	5d		 pop	 ebp
  00074	c2 04 00	 ret	 4
?UnSelect@SettingJoyBtn@@QAEXM@Z ENDP			; SettingJoyBtn::UnSelect
_TEXT	ENDS
PUBLIC	?SetKeyValue@SettingJoyBtn@@QAEXG@Z		; SettingJoyBtn::SetKeyValue
; Function compile flags: /Ogsp
;	COMDAT ?SetKeyValue@SettingJoyBtn@@QAEXG@Z
_TEXT	SEGMENT
_wKey$ = 8						; size = 2
?SetKeyValue@SettingJoyBtn@@QAEXG@Z PROC		; SettingJoyBtn::SetKeyValue, COMDAT
; _this$ = ecx

; 88   : {

  00000	55		 push	 ebp
  00001	8b ec		 mov	 ebp, esp

; 89   : 	m_wKey = wKey;

  00003	66 8b 45 08	 mov	 ax, WORD PTR _wKey$[ebp]
  00007	66 89 81 00 02
	00 00		 mov	 WORD PTR [ecx+512], ax

; 90   : }

  0000e	5d		 pop	 ebp
  0000f	c2 04 00	 ret	 4
?SetKeyValue@SettingJoyBtn@@QAEXG@Z ENDP		; SettingJoyBtn::SetKeyValue
_TEXT	ENDS
PUBLIC	??_7SettingJoyKeyItemWnd@@6B@			; SettingJoyKeyItemWnd::`vftable'
PUBLIC	??0SettingJoyKeyItemWnd@@QAE@XZ			; SettingJoyKeyItemWnd::SettingJoyKeyItemWnd
PUBLIC	??_R4SettingJoyKeyItemWnd@@6B@			; SettingJoyKeyItemWnd::`RTTI Complete Object Locator'
PUBLIC	??_R0?AVSettingJoyKeyItemWnd@@@8		; SettingJoyKeyItemWnd `RTTI Type Descriptor'
PUBLIC	??_R3SettingJoyKeyItemWnd@@8			; SettingJoyKeyItemWnd::`RTTI Class Hierarchy Descriptor'
PUBLIC	??_R2SettingJoyKeyItemWnd@@8			; SettingJoyKeyItemWnd::`RTTI Base Class Array'
PUBLIC	??_R1A@?0A@EA@SettingJoyKeyItemWnd@@8		; SettingJoyKeyItemWnd::`RTTI Base Class Descriptor at (0,-1,0,64)'
PUBLIC	?AddRenderImage@SettingJoyKeyItemWnd@@MAEXABVioHashString@@PAVioUIRenderImage@@@Z ; SettingJoyKeyItemWnd::AddRenderImage
PUBLIC	?SetActive@SettingJoyKeyItemWnd@@UAEXXZ		; SettingJoyKeyItemWnd::SetActive
PUBLIC	?SetInActive@SettingJoyKeyItemWnd@@UAEXXZ	; SettingJoyKeyItemWnd::SetInActive
PUBLIC	?OnRender@SettingJoyKeyItemWnd@@MAEXXZ		; SettingJoyKeyItemWnd::OnRender
PUBLIC	?iwm_command@SettingJoyKeyItemWnd@@MAEXPAVioWnd@@HK@Z ; SettingJoyKeyItemWnd::iwm_command
EXTRN	__imp_??0ioWnd@@QAE@XZ:PROC
EXTRN	?AddRenderFrame@ioWnd@@UAEXABVioHashString@@PAVioUIRenderFrame@@@Z:PROC ; ioWnd::AddRenderFrame
EXTRN	?ParseExtraInfo@ioWnd@@UAEXAAVioXMLElement@@@Z:PROC ; ioWnd::ParseExtraInfo
EXTRN	?SetWindowAlpha@ioWnd@@UAEXH@Z:PROC		; ioWnd::SetWindowAlpha
EXTRN	?CheckFrameReSize@ioWnd@@MAEXHHHH@Z:PROC	; ioWnd::CheckFrameReSize
EXTRN	?iwm_lbuttondown@ioWnd@@UAEXABVioMouse@@@Z:PROC	; ioWnd::iwm_lbuttondown
EXTRN	?iwm_lbuttonup@ioWnd@@UAEXABVioMouse@@@Z:PROC	; ioWnd::iwm_lbuttonup
EXTRN	?iwm_lbuttonDBLCLK@ioWnd@@UAEXABVioMouse@@@Z:PROC ; ioWnd::iwm_lbuttonDBLCLK
EXTRN	?iwm_rbuttondown@ioWnd@@UAEXABVioMouse@@@Z:PROC	; ioWnd::iwm_rbuttondown
EXTRN	?iwm_rbuttonup@ioWnd@@UAEXABVioMouse@@@Z:PROC	; ioWnd::iwm_rbuttonup
EXTRN	?iwm_mouseover@ioWnd@@UAEXABVioMouse@@@Z:PROC	; ioWnd::iwm_mouseover
EXTRN	?GetWndType@ioWnd@@UBEKXZ:PROC			; ioWnd::GetWndType
EXTRN	?GetHeaderFileName@ioWnd@@UAEPBDXZ:PROC		; ioWnd::GetHeaderFileName
EXTRN	?GetTemplateName@ioWnd@@UAEPBDXZ:PROC		; ioWnd::GetTemplateName
EXTRN	?GetDefClassName@ioWnd@@UBEPBDXZ:PROC		; ioWnd::GetDefClassName
EXTRN	?_Clone@ioWnd@@UAEPAV1@XZ:PROC			; ioWnd::_Clone
EXTRN	?Copy@ioWnd@@UAEXPAV1@@Z:PROC			; ioWnd::Copy
EXTRN	?SetSaveData@ioWnd@@UAEXAAVioXMLElement@@@Z:PROC ; ioWnd::SetSaveData
EXTRN	?GetNumFixedRenderFrame@ioWnd@@UBEHXZ:PROC	; ioWnd::GetNumFixedRenderFrame
EXTRN	?GetFixedRenderFrameType@ioWnd@@UAEPBDH@Z:PROC	; ioWnd::GetFixedRenderFrameType
EXTRN	?GetRenderFrame@ioWnd@@UAEPAPAVioUIRenderElement@@PBD@Z:PROC ; ioWnd::GetRenderFrame
EXTRN	?GetNumFixedRenderImage@ioWnd@@UBEHXZ:PROC	; ioWnd::GetNumFixedRenderImage
EXTRN	?GetFixedRenderImageType@ioWnd@@UAEPBDH@Z:PROC	; ioWnd::GetFixedRenderImageType
EXTRN	?GetRenderImage@ioWnd@@UAEPAPAVioUIRenderElement@@PBD@Z:PROC ; ioWnd::GetRenderImage
EXTRN	??_ESettingJoyKeyItemWnd@@UAEPAXI@Z:PROC	; SettingJoyKeyItemWnd::`vector deleting destructor'
;	COMDAT ??_R1A@?0A@EA@SettingJoyKeyItemWnd@@8
rdata$r	SEGMENT
??_R1A@?0A@EA@SettingJoyKeyItemWnd@@8 DD FLAT:??_R0?AVSettingJoyKeyItemWnd@@@8 ; SettingJoyKeyItemWnd::`RTTI Base Class Descriptor at (0,-1,0,64)'
	DD	01H
	DD	00H
	DD	0ffffffffH
	DD	00H
	DD	040H
	DD	FLAT:??_R3SettingJoyKeyItemWnd@@8
rdata$r	ENDS
;	COMDAT ??_R2SettingJoyKeyItemWnd@@8
rdata$r	SEGMENT
??_R2SettingJoyKeyItemWnd@@8 DD FLAT:??_R1A@?0A@EA@SettingJoyKeyItemWnd@@8 ; SettingJoyKeyItemWnd::`RTTI Base Class Array'
	DD	FLAT:??_R1A@?0A@EA@ioWnd@@8
rdata$r	ENDS
;	COMDAT ??_R3SettingJoyKeyItemWnd@@8
rdata$r	SEGMENT
??_R3SettingJoyKeyItemWnd@@8 DD 00H			; SettingJoyKeyItemWnd::`RTTI Class Hierarchy Descriptor'
	DD	00H
	DD	02H
	DD	FLAT:??_R2SettingJoyKeyItemWnd@@8
rdata$r	ENDS
;	COMDAT ??_R0?AVSettingJoyKeyItemWnd@@@8
_DATA	SEGMENT
??_R0?AVSettingJoyKeyItemWnd@@@8 DD FLAT:??_7type_info@@6B@ ; SettingJoyKeyItemWnd `RTTI Type Descriptor'
	DD	00H
	DB	'.?AVSettingJoyKeyItemWnd@@', 00H
_DATA	ENDS
;	COMDAT ??_R4SettingJoyKeyItemWnd@@6B@
rdata$r	SEGMENT
??_R4SettingJoyKeyItemWnd@@6B@ DD 00H			; SettingJoyKeyItemWnd::`RTTI Complete Object Locator'
	DD	00H
	DD	00H
	DD	FLAT:??_R0?AVSettingJoyKeyItemWnd@@@8
	DD	FLAT:??_R3SettingJoyKeyItemWnd@@8
rdata$r	ENDS
;	COMDAT ??_7SettingJoyKeyItemWnd@@6B@
CONST	SEGMENT
??_7SettingJoyKeyItemWnd@@6B@ DD FLAT:??_R4SettingJoyKeyItemWnd@@6B@ ; SettingJoyKeyItemWnd::`vftable'
	DD	FLAT:?AddRenderFrame@ioWnd@@UAEXABVioHashString@@PAVioUIRenderFrame@@@Z
	DD	FLAT:?AddRenderImage@SettingJoyKeyItemWnd@@MAEXABVioHashString@@PAVioUIRenderImage@@@Z
	DD	FLAT:?AddTooltipHelp@ioWnd@@UAEXABVioHashString@@00@Z
	DD	FLAT:?ParseExtraInfo@ioWnd@@UAEXAAVioXMLElement@@@Z
	DD	FLAT:?AddNamedRenderImage@ioWnd@@UAEXABVioHashString@@PAVioUIRenderImage@@@Z
	DD	FLAT:?RemoveNamedRenderImage@ioWnd@@UAEXABVioHashString@@@Z
	DD	FLAT:?GetNamedRenderImage@ioWnd@@UBEPAVioUIRenderImage@@ABVioHashString@@@Z
	DD	FLAT:?SetWindowAlpha@ioWnd@@UAEXH@Z
	DD	FLAT:?SetActive@SettingJoyKeyItemWnd@@UAEXXZ
	DD	FLAT:?SetInActive@SettingJoyKeyItemWnd@@UAEXXZ
	DD	FLAT:?ClearElementImageList@ioWnd@@UAEXXZ
	DD	FLAT:?SetSize@ioWnd@@UAEXHH@Z
	DD	FLAT:?SetPositionToDefault@ioWnd@@UAEXHH_N0@Z
	DD	FLAT:?IsNeedProcess@ioWnd@@UBE_NXZ
	DD	FLAT:?IsCanMouseReaction@ioWnd@@UBE_NXZ
	DD	FLAT:?AddChild@ioWnd@@UAEXPAV1@@Z
	DD	FLAT:?DeleteChild@ioWnd@@UAEXK@Z
	DD	FLAT:?DeleteAllChild@ioWnd@@UAEXXZ
	DD	FLAT:?OnRenderShowAndHide@ioWnd@@MAE_NXZ
	DD	FLAT:?OnRenderShowAndHideByDefault@ioWnd@@MAE_NK@Z
	DD	FLAT:?OnRenderShowAndHideByTop@ioWnd@@MAE_NK@Z
	DD	FLAT:?OnRenderShowAndHideByDown@ioWnd@@MAE_NK@Z
	DD	FLAT:?OnRender@SettingJoyKeyItemWnd@@MAEXXZ
	DD	FLAT:?OnRenderAfterChild@ioWnd@@MAEXXZ
	DD	FLAT:?OnProcess@ioWnd@@MAEXM@Z
	DD	FLAT:?OnMouseProcess@ioWnd@@MAEXABVioMouse@@@Z
	DD	FLAT:?CheckFrameReSize@ioWnd@@MAEXHHHH@Z
	DD	FLAT:?RenderImageList@ioWnd@@MAEXHHW4UIRenderType@@@Z
	DD	FLAT:?iwm_create@ioWnd@@UAEXXZ
	DD	FLAT:?iwm_destroy@ioWnd@@UAEXXZ
	DD	FLAT:?iwm_lbuttondown@ioWnd@@UAEXABVioMouse@@@Z
	DD	FLAT:?iwm_lbuttonup@ioWnd@@UAEXABVioMouse@@@Z
	DD	FLAT:?iwm_lbuttonDBLCLK@ioWnd@@UAEXABVioMouse@@@Z
	DD	FLAT:?iwm_rbuttondown@ioWnd@@UAEXABVioMouse@@@Z
	DD	FLAT:?iwm_rbuttonup@ioWnd@@UAEXABVioMouse@@@Z
	DD	FLAT:?iwm_command@SettingJoyKeyItemWnd@@MAEXPAVioWnd@@HK@Z
	DD	FLAT:?iwm_mouseover@ioWnd@@UAEXABVioMouse@@@Z
	DD	FLAT:?iwm_mousemove@ioWnd@@UAEXABVioMouse@@@Z
	DD	FLAT:?iwm_mouseleave@ioWnd@@UAEXABVioMouse@@@Z
	DD	FLAT:?iwm_vscroll@ioWnd@@UAEXKH@Z
	DD	FLAT:?iwm_wheel@ioWnd@@UAEXH@Z
	DD	FLAT:?iwm_show@ioWnd@@UAEXXZ
	DD	FLAT:?iwm_hide@ioWnd@@UAEXXZ
	DD	FLAT:?iwm_esc@ioWnd@@UAE_NXZ
	DD	FLAT:?iwm_spacebar@ioWnd@@UAE_NXZ
	DD	FLAT:?iwm_gototop@ioWnd@@UAEXXZ
	DD	FLAT:?iwm_dragenter@ioWnd@@UAE?AW4IWDropEffect@@PAVioDragItem@@ABVioMouse@@@Z
	DD	FLAT:?iwm_dragover@ioWnd@@UAE?AW4IWDropEffect@@PAVioDragItem@@ABVioMouse@@@Z
	DD	FLAT:?iwm_dragleave@ioWnd@@UAEXXZ
	DD	FLAT:?iwm_dropitem@ioWnd@@UAE_NPAVioDragItem@@ABVioMouse@@PAV1@@Z
	DD	FLAT:?iwm_dropdone@ioWnd@@UAEXPAVioDragItem@@PAV1@_N@Z
	DD	FLAT:?IsEXType@ioWnd@@UBE_NXZ
	DD	FLAT:?GetWndType@ioWnd@@UBEKXZ
	DD	FLAT:?RenderWnd@ioWnd@@UAEXXZ
	DD	FLAT:?SetIDEX@ioWnd@@UAEXAAK_N@Z
	DD	FLAT:?ParseXML@ioWnd@@UAEXAAVioXMLElement@@@Z
	DD	FLAT:?GetHeaderFileName@ioWnd@@UAEPBDXZ
	DD	FLAT:?GetTemplateName@ioWnd@@UAEPBDXZ
	DD	FLAT:?GetDefClassName@ioWnd@@UBEPBDXZ
	DD	FLAT:?_Clone@ioWnd@@UAEPAV1@XZ
	DD	FLAT:?Copy@ioWnd@@UAEXPAV1@@Z
	DD	FLAT:?Save@ioWnd@@UAE_NAAVioXMLElement@@@Z
	DD	FLAT:?SetSaveData@ioWnd@@UAEXAAVioXMLElement@@@Z
	DD	FLAT:?SetPosX@ioWnd@@UAEXH@Z
	DD	FLAT:?SetPosY@ioWnd@@UAEXH@Z
	DD	FLAT:?SetWidth@ioWnd@@UAEXH@Z
	DD	FLAT:?SetHeight@ioWnd@@UAEXH@Z
	DD	FLAT:?GetNumFixedRenderFrame@ioWnd@@UBEHXZ
	DD	FLAT:?GetFixedRenderFrameType@ioWnd@@UAEPBDH@Z
	DD	FLAT:?GetRenderFrame@ioWnd@@UAEPAPAVioUIRenderElement@@PBD@Z
	DD	FLAT:?GetNumFixedRenderImage@ioWnd@@UBEHXZ
	DD	FLAT:?GetFixedRenderImageType@ioWnd@@UAEPBDH@Z
	DD	FLAT:?GetRenderImage@ioWnd@@UAEPAPAVioUIRenderElement@@PBD@Z
	DD	FLAT:?AddEffect@ioWnd@@UAEXABVioHashString@@PAVioUI3DEffectRender@@@Z
	DD	FLAT:?GetEffect@ioWnd@@UAEPAVioUI3DEffectRender@@VioHashString@@@Z
	DD	FLAT:??_ESettingJoyKeyItemWnd@@UAEPAXI@Z
; Function compile flags: /Ogsp
CONST	ENDS
;	COMDAT ??0SettingJoyKeyItemWnd@@QAE@XZ
_TEXT	SEGMENT
??0SettingJoyKeyItemWnd@@QAE@XZ PROC			; SettingJoyKeyItemWnd::SettingJoyKeyItemWnd, COMDAT
; _this$ = ecx

; 93   : {

  00000	56		 push	 esi
  00001	8b f1		 mov	 esi, ecx
  00003	ff 15 00 00 00
	00		 call	 DWORD PTR __imp_??0ioWnd@@QAE@XZ

; 94   : 	m_eType = IT_NONE;

  00009	83 8e 68 01 00
	00 ff		 or	 DWORD PTR [esi+360], -1

; 95   : 	
; 96   : 	m_pIconBack   = NULL;

  00010	83 a6 60 01 00
	00 00		 and	 DWORD PTR [esi+352], 0

; 97   : 	m_pIconJoypad = NULL;

  00017	83 a6 64 01 00
	00 00		 and	 DWORD PTR [esi+356], 0
  0001e	c7 06 00 00 00
	00		 mov	 DWORD PTR [esi], OFFSET ??_7SettingJoyKeyItemWnd@@6B@

; 98   : }

  00024	8b c6		 mov	 eax, esi
  00026	5e		 pop	 esi
  00027	c3		 ret	 0
??0SettingJoyKeyItemWnd@@QAE@XZ ENDP			; SettingJoyKeyItemWnd::SettingJoyKeyItemWnd
_TEXT	ENDS
PUBLIC	??1SettingJoyKeyItemWnd@@UAE@XZ			; SettingJoyKeyItemWnd::~SettingJoyKeyItemWnd
EXTRN	__imp_??1ioWnd@@UAE@XZ:PROC
EXTRN	___CxxFrameHandler3:PROC
EXTRN	@__security_check_cookie@4:PROC
EXTRN	__EH_epilog3:PROC
EXTRN	__EH_prolog3:PROC
;	COMDAT xdata$x
xdata$x	SEGMENT
__unwindtable$??1SettingJoyKeyItemWnd@@UAE@XZ DD 0ffffffffH
	DD	FLAT:__unwindfunclet$??1SettingJoyKeyItemWnd@@UAE@XZ$0
__ehfuncinfo$??1SettingJoyKeyItemWnd@@UAE@XZ DD 019930522H
	DD	01H
	DD	FLAT:__unwindtable$??1SettingJoyKeyItemWnd@@UAE@XZ
	DD	2 DUP(00H)
	DD	2 DUP(00H)
	DD	00H
	DD	01H
; Function compile flags: /Ogsp
xdata$x	ENDS
;	COMDAT ??1SettingJoyKeyItemWnd@@UAE@XZ
_TEXT	SEGMENT
_this$ = -16						; size = 4
__$EHRec$ = -12						; size = 12
??1SettingJoyKeyItemWnd@@UAE@XZ PROC			; SettingJoyKeyItemWnd::~SettingJoyKeyItemWnd, COMDAT
; _this$ = ecx

; 101  : {

  00000	6a 04		 push	 4
  00002	b8 00 00 00 00	 mov	 eax, __ehhandler$??1SettingJoyKeyItemWnd@@UAE@XZ
  00007	e8 00 00 00 00	 call	 __EH_prolog3
  0000c	8b f9		 mov	 edi, ecx
  0000e	89 7d f0	 mov	 DWORD PTR _this$[ebp], edi
  00011	c7 07 00 00 00
	00		 mov	 DWORD PTR [edi], OFFSET ??_7SettingJoyKeyItemWnd@@6B@

; 102  : 	SAFEDELETE( m_pIconBack );

  00017	8b 8f 60 01 00
	00		 mov	 ecx, DWORD PTR [edi+352]
  0001d	83 65 fc 00	 and	 DWORD PTR __$EHRec$[ebp+8], 0
  00021	85 c9		 test	 ecx, ecx
  00023	74 0e		 je	 SHORT $LN2@SettingJoy
  00025	8b 01		 mov	 eax, DWORD PTR [ecx]
  00027	6a 01		 push	 1
  00029	ff 50 40	 call	 DWORD PTR [eax+64]
  0002c	83 a7 60 01 00
	00 00		 and	 DWORD PTR [edi+352], 0
$LN2@SettingJoy:

; 103  : 	SAFEDELETE( m_pIconJoypad );

  00033	8b 8f 64 01 00
	00		 mov	 ecx, DWORD PTR [edi+356]
  00039	85 c9		 test	 ecx, ecx
  0003b	74 0e		 je	 SHORT $LN1@SettingJoy
  0003d	8b 01		 mov	 eax, DWORD PTR [ecx]
  0003f	6a 01		 push	 1
  00041	ff 50 40	 call	 DWORD PTR [eax+64]
  00044	83 a7 64 01 00
	00 00		 and	 DWORD PTR [edi+356], 0
$LN1@SettingJoy:

; 104  : }

  0004b	83 4d fc ff	 or	 DWORD PTR __$EHRec$[ebp+8], -1
  0004f	8b cf		 mov	 ecx, edi
  00051	ff 15 00 00 00
	00		 call	 DWORD PTR __imp_??1ioWnd@@UAE@XZ
  00057	e8 00 00 00 00	 call	 __EH_epilog3
  0005c	c3		 ret	 0
_TEXT	ENDS
;	COMDAT text$x
text$x	SEGMENT
__unwindfunclet$??1SettingJoyKeyItemWnd@@UAE@XZ$0:
  00000	8b 4d f0	 mov	 ecx, DWORD PTR _this$[ebp]
  00003	ff 25 00 00 00
	00		 jmp	 DWORD PTR __imp_??1ioWnd@@UAE@XZ
__ehhandler$??1SettingJoyKeyItemWnd@@UAE@XZ:
  00009	8b 54 24 08	 mov	 edx, DWORD PTR [esp+8]
  0000d	8d 42 0c	 lea	 eax, DWORD PTR [edx+12]
  00010	8b 4a ec	 mov	 ecx, DWORD PTR [edx-20]
  00013	33 c8		 xor	 ecx, eax
  00015	e8 00 00 00 00	 call	 @__security_check_cookie@4
  0001a	b8 00 00 00 00	 mov	 eax, OFFSET __ehfuncinfo$??1SettingJoyKeyItemWnd@@UAE@XZ
  0001f	e9 00 00 00 00	 jmp	 ___CxxFrameHandler3
text$x	ENDS
??1SettingJoyKeyItemWnd@@UAE@XZ ENDP			; SettingJoyKeyItemWnd::~SettingJoyKeyItemWnd
PUBLIC	__real@43160000
PUBLIC	__real@43a00000
PUBLIC	?UnSelect@SettingJoyKeyItemWnd@@QAEXXZ		; SettingJoyKeyItemWnd::UnSelect
EXTRN	__imp_?IsShow@ioWnd@@QBE_NXZ:PROC
EXTRN	__imp_?FindChildWnd@ioWnd@@QAEPAV1@K@Z:PROC
;	COMDAT __real@43160000
CONST	SEGMENT
__real@43160000 DD 043160000r			; 150
CONST	ENDS
;	COMDAT __real@43a00000
CONST	SEGMENT
__real@43a00000 DD 043a00000r			; 320
; Function compile flags: /Ogsp
CONST	ENDS
;	COMDAT ?UnSelect@SettingJoyKeyItemWnd@@QAEXXZ
_TEXT	SEGMENT
?UnSelect@SettingJoyKeyItemWnd@@QAEXXZ PROC		; SettingJoyKeyItemWnd::UnSelect, COMDAT
; _this$ = ecx

; 170  : {

  00000	53		 push	 ebx
  00001	56		 push	 esi
  00002	57		 push	 edi

; 171  : 	for (int i = ID_SMALL_FIRST_BTN; i < ID_BIG_BTN + 1 ; i++)

  00003	33 ff		 xor	 edi, edi
  00005	8b d9		 mov	 ebx, ecx
  00007	47		 inc	 edi
$LL6@UnSelect@2:

; 172  : 	{
; 173  : 		SettingJoyBtn *pBtn = dynamic_cast<SettingJoyBtn*> ( FindChildWnd(i) );

  00008	6a 00		 push	 0
  0000a	68 00 00 00 00	 push	 OFFSET ??_R0?AVSettingJoyBtn@@@8
  0000f	68 00 00 00 00	 push	 OFFSET ??_R0?AVioWnd@@@8
  00014	6a 00		 push	 0
  00016	57		 push	 edi
  00017	8b cb		 mov	 ecx, ebx
  00019	ff 15 00 00 00
	00		 call	 DWORD PTR __imp_?FindChildWnd@ioWnd@@QAEPAV1@K@Z
  0001f	50		 push	 eax
  00020	e8 00 00 00 00	 call	 ___RTDynamicCast
  00025	8b f0		 mov	 esi, eax
  00027	83 c4 14	 add	 esp, 20			; 00000014H

; 174  : 		if( pBtn && pBtn->IsShow() )

  0002a	85 f6		 test	 esi, esi
  0002c	74 30		 je	 SHORT $LN5@UnSelect@2
  0002e	8b ce		 mov	 ecx, esi
  00030	ff 15 00 00 00
	00		 call	 DWORD PTR __imp_?IsShow@ioWnd@@QBE_NXZ
  00036	84 c0		 test	 al, al
  00038	74 24		 je	 SHORT $LN5@UnSelect@2

; 175  : 		{
; 176  : 			if(i == ID_BIG_BTN )
; 177  : 				pBtn->UnSelect( 320.0f );

  0003a	51		 push	 ecx
  0003b	8b ce		 mov	 ecx, esi
  0003d	83 ff 03	 cmp	 edi, 3
  00040	75 0a		 jne	 SHORT $LN2@UnSelect@2
  00042	f3 0f 10 05 00
	00 00 00	 movss	 xmm0, DWORD PTR __real@43a00000

; 178  : 			else

  0004a	eb 08		 jmp	 SHORT $LN11@UnSelect@2
$LN2@UnSelect@2:

; 179  : 				pBtn->UnSelect( 150.0f );

  0004c	f3 0f 10 05 00
	00 00 00	 movss	 xmm0, DWORD PTR __real@43160000
$LN11@UnSelect@2:
  00054	f3 0f 11 04 24	 movss	 DWORD PTR [esp], xmm0
  00059	e8 00 00 00 00	 call	 ?UnSelect@SettingJoyBtn@@QAEXM@Z ; SettingJoyBtn::UnSelect
$LN5@UnSelect@2:

; 171  : 	for (int i = ID_SMALL_FIRST_BTN; i < ID_BIG_BTN + 1 ; i++)

  0005e	47		 inc	 edi
  0005f	83 ff 04	 cmp	 edi, 4
  00062	7c a4		 jl	 SHORT $LL6@UnSelect@2

; 180  : 		}
; 181  : 	}
; 182  : }

  00064	5f		 pop	 edi
  00065	5e		 pop	 esi
  00066	5b		 pop	 ebx
  00067	c3		 ret	 0
?UnSelect@SettingJoyKeyItemWnd@@QAEXXZ ENDP		; SettingJoyKeyItemWnd::UnSelect
_TEXT	ENDS
PUBLIC	?SetSelect@SettingJoyKeyItemWnd@@QAEXW4KeyTypeArray@CJoyKeyInfo@@@Z ; SettingJoyKeyItemWnd::SetSelect
; Function compile flags: /Ogsp
;	COMDAT ?SetSelect@SettingJoyKeyItemWnd@@QAEXW4KeyTypeArray@CJoyKeyInfo@@@Z
_TEXT	SEGMENT
_eKeyType$ = 8						; size = 4
?SetSelect@SettingJoyKeyItemWnd@@QAEXW4KeyTypeArray@CJoyKeyInfo@@@Z PROC ; SettingJoyKeyItemWnd::SetSelect, COMDAT
; _this$ = ecx

; 185  : {

  00000	55		 push	 ebp
  00001	8b ec		 mov	 ebp, esp
  00003	53		 push	 ebx
  00004	56		 push	 esi
  00005	57		 push	 edi

; 186  : 	for (int i = ID_SMALL_FIRST_BTN; i < ID_BIG_BTN + 1 ; i++)

  00006	33 ff		 xor	 edi, edi
  00008	8b d9		 mov	 ebx, ecx
  0000a	47		 inc	 edi
$LL5@SetSelect@2:

; 187  : 	{
; 188  : 		SettingJoyBtn *pBtn = dynamic_cast<SettingJoyBtn*> ( FindChildWnd(i) );

  0000b	6a 00		 push	 0
  0000d	68 00 00 00 00	 push	 OFFSET ??_R0?AVSettingJoyBtn@@@8
  00012	68 00 00 00 00	 push	 OFFSET ??_R0?AVioWnd@@@8
  00017	6a 00		 push	 0
  00019	57		 push	 edi
  0001a	8b cb		 mov	 ecx, ebx
  0001c	ff 15 00 00 00
	00		 call	 DWORD PTR __imp_?FindChildWnd@ioWnd@@QAEPAV1@K@Z
  00022	50		 push	 eax
  00023	e8 00 00 00 00	 call	 ___RTDynamicCast
  00028	8b f0		 mov	 esi, eax
  0002a	83 c4 14	 add	 esp, 20			; 00000014H

; 189  : 		if( pBtn && pBtn->IsShow() )

  0002d	85 f6		 test	 esi, esi
  0002f	74 17		 je	 SHORT $LN4@SetSelect@2
  00031	8b ce		 mov	 ecx, esi
  00033	ff 15 00 00 00
	00		 call	 DWORD PTR __imp_?IsShow@ioWnd@@QBE_NXZ
  00039	84 c0		 test	 al, al
  0003b	74 0b		 je	 SHORT $LN4@SetSelect@2

; 190  : 		{	
; 191  : 			if( pBtn->GetKeyType() == eKeyType )

  0003d	8b 86 fc 01 00
	00		 mov	 eax, DWORD PTR [esi+508]
  00043	3b 45 08	 cmp	 eax, DWORD PTR _eKeyType$[ebp]
  00046	74 08		 je	 SHORT $LN11@SetSelect@2
$LN4@SetSelect@2:

; 186  : 	for (int i = ID_SMALL_FIRST_BTN; i < ID_BIG_BTN + 1 ; i++)

  00048	47		 inc	 edi
  00049	83 ff 04	 cmp	 edi, 4
  0004c	7c bd		 jl	 SHORT $LL5@SetSelect@2

; 190  : 		{	
; 191  : 			if( pBtn->GetKeyType() == eKeyType )

  0004e	eb 07		 jmp	 SHORT $LN3@SetSelect@2
$LN11@SetSelect@2:

; 192  : 			{
; 193  : 				pBtn->SetSelect();

  00050	8b ce		 mov	 ecx, esi
  00052	e8 00 00 00 00	 call	 ?SetSelect@SettingJoyBtn@@QAEXXZ ; SettingJoyBtn::SetSelect
$LN3@SetSelect@2:
  00057	5f		 pop	 edi
  00058	5e		 pop	 esi
  00059	5b		 pop	 ebx

; 194  : 				break;
; 195  : 			}
; 196  : 		}
; 197  : 	}
; 198  : }

  0005a	5d		 pop	 ebp
  0005b	c2 04 00	 ret	 4
?SetSelect@SettingJoyKeyItemWnd@@QAEXW4KeyTypeArray@CJoyKeyInfo@@@Z ENDP ; SettingJoyKeyItemWnd::SetSelect
_TEXT	ENDS
PUBLIC	__real@3e99999a
EXTRN	__imp_?GetDerivedPosY@ioWnd@@QBEHXZ:PROC
EXTRN	__imp_?GetDerivedPosX@ioWnd@@QBEHXZ:PROC
EXTRN	__imp_?OnRender@ioWnd@@MAEXXZ:PROC
;	COMDAT __real@3e99999a
CONST	SEGMENT
__real@3e99999a DD 03e99999ar			; 0.3
; Function compile flags: /Ogsp
CONST	ENDS
;	COMDAT ?OnRender@SettingJoyKeyItemWnd@@MAEXXZ
_TEXT	SEGMENT
?OnRender@SettingJoyKeyItemWnd@@MAEXXZ PROC		; SettingJoyKeyItemWnd::OnRender, COMDAT
; _this$ = ecx

; 201  : {

  00000	56		 push	 esi
  00001	8b f1		 mov	 esi, ecx

; 202  : 	ioWnd::OnRender();

  00003	ff 15 00 00 00
	00		 call	 DWORD PTR __imp_?OnRender@ioWnd@@MAEXXZ

; 203  : 
; 204  : 	if( m_eType == IT_TITLE_BASIC   ||
; 205  : 		m_eType == IT_TITLE_SKILL ||
; 206  : 		m_eType == IT_TITLE_SOLDIER )

  00009	8b 86 68 01 00
	00		 mov	 eax, DWORD PTR [esi+360]
  0000f	85 c0		 test	 eax, eax
  00011	74 0e		 je	 SHORT $LN3@OnRender
  00013	83 f8 08	 cmp	 eax, 8
  00016	74 09		 je	 SHORT $LN3@OnRender
  00018	83 f8 0d	 cmp	 eax, 13			; 0000000dH
  0001b	0f 85 c1 00 00
	00		 jne	 $LN1@OnRender
$LN3@OnRender:
  00021	53		 push	 ebx
  00022	57		 push	 edi

; 207  : 	{
; 208  : 
; 209  : 		//  
; 210  : 		int iXPos = GetDerivedPosX();

  00023	8b ce		 mov	 ecx, esi
  00025	ff 15 00 00 00
	00		 call	 DWORD PTR __imp_?GetDerivedPosX@ioWnd@@QBEHXZ

; 211  : 		int iYPos = GetDerivedPosY();

  0002b	8b ce		 mov	 ecx, esi
  0002d	8b f8		 mov	 edi, eax
  0002f	ff 15 00 00 00
	00		 call	 DWORD PTR __imp_?GetDerivedPosY@ioWnd@@QBEHXZ

; 212  : 		if( m_pIconBack )

  00035	83 be 60 01 00
	00 00		 cmp	 DWORD PTR [esi+352], 0
  0003c	8b d8		 mov	 ebx, eax
  0003e	74 4c		 je	 SHORT $LN2@OnRender

; 213  : 		{
; 214  : 			m_pIconBack->SetScale( 0.30f );

  00040	8b 8e 60 01 00
	00		 mov	 ecx, DWORD PTR [esi+352]
  00046	f3 0f 10 05 00
	00 00 00	 movss	 xmm0, DWORD PTR __real@3e99999a
  0004e	8b 01		 mov	 eax, DWORD PTR [ecx]
  00050	51		 push	 ecx
  00051	f3 0f 11 04 24	 movss	 DWORD PTR [esp], xmm0
  00056	ff 50 1c	 call	 DWORD PTR [eax+28]

; 215  : 			m_pIconBack->Render( iXPos + 13, iYPos + 12, UI_RENDER_MULTIPLY, TFO_BILINEAR );

  00059	8b 8e 60 01 00
	00		 mov	 ecx, DWORD PTR [esi+352]
  0005f	8b 01		 mov	 eax, DWORD PTR [ecx]
  00061	6a 00		 push	 0
  00063	6a 00		 push	 0
  00065	6a 01		 push	 1
  00067	6a 08		 push	 8
  00069	0f 57 c0	 xorps	 xmm0, xmm0
  0006c	51		 push	 ecx
  0006d	8d 53 0c	 lea	 edx, DWORD PTR [ebx+12]
  00070	f3 0f 2a c2	 cvtsi2ss xmm0, edx
  00074	51		 push	 ecx
  00075	f3 0f 11 44 24
	04		 movss	 DWORD PTR [esp+4], xmm0
  0007b	8d 57 0d	 lea	 edx, DWORD PTR [edi+13]
  0007e	0f 57 c0	 xorps	 xmm0, xmm0
  00081	f3 0f 2a c2	 cvtsi2ss xmm0, edx
  00085	f3 0f 11 04 24	 movss	 DWORD PTR [esp], xmm0
  0008a	ff 10		 call	 DWORD PTR [eax]
$LN2@OnRender:

; 216  : 		}
; 217  : 		if( m_pIconJoypad )

  0008c	83 be 64 01 00
	00 00		 cmp	 DWORD PTR [esi+356], 0
  00093	74 4b		 je	 SHORT $LN7@OnRender

; 218  : 		{
; 219  : 			m_pIconJoypad->SetScale( 0.30f );

  00095	8b 8e 64 01 00
	00		 mov	 ecx, DWORD PTR [esi+356]
  0009b	f3 0f 10 05 00
	00 00 00	 movss	 xmm0, DWORD PTR __real@3e99999a
  000a3	8b 01		 mov	 eax, DWORD PTR [ecx]
  000a5	51		 push	 ecx
  000a6	f3 0f 11 04 24	 movss	 DWORD PTR [esp], xmm0
  000ab	ff 50 1c	 call	 DWORD PTR [eax+28]

; 220  : 			m_pIconJoypad->Render( iXPos + 13, iYPos + 12, UI_RENDER_NORMAL, TFO_BILINEAR );

  000ae	8b 8e 64 01 00
	00		 mov	 ecx, DWORD PTR [esi+356]
  000b4	8b 11		 mov	 edx, DWORD PTR [ecx]
  000b6	33 c0		 xor	 eax, eax
  000b8	50		 push	 eax
  000b9	50		 push	 eax
  000ba	6a 01		 push	 1
  000bc	50		 push	 eax
  000bd	0f 57 c0	 xorps	 xmm0, xmm0
  000c0	51		 push	 ecx
  000c1	83 c3 0c	 add	 ebx, 12			; 0000000cH
  000c4	f3 0f 2a c3	 cvtsi2ss xmm0, ebx
  000c8	51		 push	 ecx
  000c9	f3 0f 11 44 24
	04		 movss	 DWORD PTR [esp+4], xmm0
  000cf	83 c7 0d	 add	 edi, 13			; 0000000dH
  000d2	0f 57 c0	 xorps	 xmm0, xmm0
  000d5	f3 0f 2a c7	 cvtsi2ss xmm0, edi
  000d9	f3 0f 11 04 24	 movss	 DWORD PTR [esp], xmm0
  000de	ff 12		 call	 DWORD PTR [edx]
$LN7@OnRender:
  000e0	5f		 pop	 edi
  000e1	5b		 pop	 ebx
$LN1@OnRender:
  000e2	5e		 pop	 esi

; 221  : 		}
; 222  : 	}
; 223  : }

  000e3	c3		 ret	 0
?OnRender@SettingJoyKeyItemWnd@@MAEXXZ ENDP		; SettingJoyKeyItemWnd::OnRender
_TEXT	ENDS
PUBLIC	??_C@_02PKFBDMAF@SD?$AA@			; `string'
PUBLIC	??_C@_03HPMAFFD@ASD?$AA@			; `string'
PUBLIC	??_C@_02OFPDELBL@AD?$AA@			; `string'
PUBLIC	??_C@_02OAHAMPIN@AS?$AA@			; `string'
PUBLIC	??_C@_0CC@KNMOMGJF@SettingJoyKeyItemWnd?3?3SetHelpTex@ ; `string'
PUBLIC	?SetHelpText@SettingJoyKeyItemWnd@@IAEXXZ	; SettingJoyKeyItemWnd::SetHelpText
EXTRN	__imp_?SetStyle@ioUITitle@@QAEXW4TextStyle@@@Z:PROC
EXTRN	__imp_?SetSize@ioUITitle@@QAEXH@Z:PROC
EXTRN	__imp_?SetOffset@ioUITitle@@QAEXHH@Z:PROC
;	COMDAT ??_C@_02PKFBDMAF@SD?$AA@
CONST	SEGMENT
??_C@_02PKFBDMAF@SD?$AA@ DB 'SD', 00H			; `string'
CONST	ENDS
;	COMDAT ??_C@_03HPMAFFD@ASD?$AA@
CONST	SEGMENT
??_C@_03HPMAFFD@ASD?$AA@ DB 'ASD', 00H			; `string'
CONST	ENDS
;	COMDAT ??_C@_02OFPDELBL@AD?$AA@
CONST	SEGMENT
??_C@_02OFPDELBL@AD?$AA@ DB 'AD', 00H			; `string'
CONST	ENDS
;	COMDAT ??_C@_02OAHAMPIN@AS?$AA@
CONST	SEGMENT
??_C@_02OAHAMPIN@AS?$AA@ DB 'AS', 00H			; `string'
CONST	ENDS
;	COMDAT ??_C@_0CC@KNMOMGJF@SettingJoyKeyItemWnd?3?3SetHelpTex@
CONST	SEGMENT
??_C@_0CC@KNMOMGJF@SettingJoyKeyItemWnd?3?3SetHelpTex@ DB 'SettingJoyKeyI'
	DB	'temWnd::SetHelpText', 00H			; `string'
; Function compile flags: /Ogsp
CONST	ENDS
;	COMDAT ?SetHelpText@SettingJoyKeyItemWnd@@IAEXXZ
_TEXT	SEGMENT
?SetHelpText@SettingJoyKeyItemWnd@@IAEXXZ PROC		; SettingJoyKeyItemWnd::SetHelpText, COMDAT
; _this$ = ecx

; 226  : {

  00000	53		 push	 ebx
  00001	56		 push	 esi
  00002	8b f1		 mov	 esi, ecx

; 227  : 	if( !m_pUITitle ) return;

  00004	8b 4e 3c	 mov	 ecx, DWORD PTR [esi+60]
  00007	33 db		 xor	 ebx, ebx
  00009	3b cb		 cmp	 ecx, ebx
  0000b	0f 84 ef 09 00
	00		 je	 $LN1@SetHelpTex

; 228  : 
; 229  : 	if(m_eType == IT_TITLE_BASIC)

  00011	8b 86 68 01 00
	00		 mov	 eax, DWORD PTR [esi+360]
  00017	3b c3		 cmp	 eax, ebx
  00019	75 5e		 jne	 SHORT $LN99@SetHelpTex

; 230  : 	{
; 231  : 		m_pUITitle->SetOffset( 27, 4 );

  0001b	6a 04		 push	 4
  0001d	6a 1b		 push	 27			; 0000001bH
  0001f	ff 15 00 00 00
	00		 call	 DWORD PTR __imp_?SetOffset@ioUITitle@@QAEXHH@Z

; 232  : 		m_pUITitle->SetSize( 15 );

  00025	8b 4e 3c	 mov	 ecx, DWORD PTR [esi+60]
  00028	6a 0f		 push	 15			; 0000000fH
  0002a	ff 15 00 00 00
	00		 call	 DWORD PTR __imp_?SetSize@ioUITitle@@QAEXH@Z

; 233  : 		m_pUITitle->SetStyle( TS_NORMAL );

  00030	8b 4e 3c	 mov	 ecx, DWORD PTR [esi+60]
  00033	53		 push	 ebx
  00034	ff 15 00 00 00
	00		 call	 DWORD PTR __imp_?SetStyle@ioUITitle@@QAEXW4TextStyle@@@Z

; 234  : 		m_pUITitle->SetText(STR(1), "");

  0003a	b8 00 00 00 00	 mov	 eax, OFFSET ??_C@_00CNPNBAHC@?$AA@
  0003f	50		 push	 eax
  00040	53		 push	 ebx
  00041	6a 01		 push	 1
  00043	50		 push	 eax
  00044	68 00 00 00 00	 push	 OFFSET ??_C@_0CC@KNMOMGJF@SettingJoyKeyItemWnd?3?3SetHelpTex@
  00049	ff 15 00 00 00
	00		 call	 DWORD PTR __imp_?GetSingleton@ioStringManager@@SAAAV1@XZ
  0004f	8b c8		 mov	 ecx, eax
  00051	ff 15 00 00 00
	00		 call	 DWORD PTR __imp_?GetString@ioStringManager@@QAEPADPBD0HW4FileNamePrefix@1@@Z
  00057	8b 4e 3c	 mov	 ecx, DWORD PTR [esi+60]
  0005a	50		 push	 eax
  0005b	ff 15 00 00 00
	00		 call	 DWORD PTR __imp_?SetText@ioUITitle@@QAEXPBD0@Z

; 235  : 		m_pUITitle->SetAllColor( 0xFF3A3A3A, 0xFF000000 );

  00061	8b 4e 3c	 mov	 ecx, DWORD PTR [esi+60]
  00064	68 00 00 00 ff	 push	 -16777216		; ff000000H
  00069	68 3a 3a 3a ff	 push	 -12961222		; ff3a3a3aH
  0006e	ff 15 00 00 00
	00		 call	 DWORD PTR __imp_?SetAllColor@ioUITitle@@QAEXKK@Z
  00074	e9 87 09 00 00	 jmp	 $LN1@SetHelpTex
$LN99@SetHelpTex:
  00079	57		 push	 edi

; 236  : 	}
; 237  : 	else if(m_eType == IT_UP)
; 238  : 	{
; 239  : 		m_pUITitle->SetOffset( 4, 4 );

  0007a	6a 04		 push	 4
  0007c	5f		 pop	 edi
  0007d	83 f8 01	 cmp	 eax, 1
  00080	75 2b		 jne	 SHORT $LN97@SetHelpTex
  00082	57		 push	 edi
  00083	57		 push	 edi
  00084	ff 15 00 00 00
	00		 call	 DWORD PTR __imp_?SetOffset@ioUITitle@@QAEXHH@Z

; 240  : 		m_pUITitle->SetSize(14);

  0008a	8b 4e 3c	 mov	 ecx, DWORD PTR [esi+60]
  0008d	6a 0e		 push	 14			; 0000000eH
  0008f	ff 15 00 00 00
	00		 call	 DWORD PTR __imp_?SetSize@ioUITitle@@QAEXH@Z

; 241  : 		m_pUITitle->SetStyle( TS_NORMAL );

  00095	8b 4e 3c	 mov	 ecx, DWORD PTR [esi+60]
  00098	53		 push	 ebx
  00099	ff 15 00 00 00
	00		 call	 DWORD PTR __imp_?SetStyle@ioUITitle@@QAEXW4TextStyle@@@Z

; 242  : 		m_pUITitle->SetText(STR(2), "");

  0009f	b8 00 00 00 00	 mov	 eax, OFFSET ??_C@_00CNPNBAHC@?$AA@
  000a4	50		 push	 eax
  000a5	53		 push	 ebx
  000a6	6a 02		 push	 2

; 243  : 		m_pUITitle->SetAllColor( 0xFF6E6E6E, 0xFF000000 );

  000a8	e9 21 09 00 00	 jmp	 $LN104@SetHelpTex
$LN97@SetHelpTex:

; 244  : 	}
; 245  : 	else if(m_eType == IT_DOWN)

  000ad	83 f8 02	 cmp	 eax, 2
  000b0	75 2b		 jne	 SHORT $LN95@SetHelpTex

; 246  : 	{
; 247  : 		m_pUITitle->SetOffset( 4, 4 );

  000b2	57		 push	 edi
  000b3	57		 push	 edi
  000b4	ff 15 00 00 00
	00		 call	 DWORD PTR __imp_?SetOffset@ioUITitle@@QAEXHH@Z

; 248  : 		m_pUITitle->SetSize(14);

  000ba	8b 4e 3c	 mov	 ecx, DWORD PTR [esi+60]
  000bd	6a 0e		 push	 14			; 0000000eH
  000bf	ff 15 00 00 00
	00		 call	 DWORD PTR __imp_?SetSize@ioUITitle@@QAEXH@Z

; 249  : 		m_pUITitle->SetStyle( TS_NORMAL );

  000c5	8b 4e 3c	 mov	 ecx, DWORD PTR [esi+60]
  000c8	53		 push	 ebx
  000c9	ff 15 00 00 00
	00		 call	 DWORD PTR __imp_?SetStyle@ioUITitle@@QAEXW4TextStyle@@@Z

; 250  : 		m_pUITitle->SetText(STR(3), "");

  000cf	b8 00 00 00 00	 mov	 eax, OFFSET ??_C@_00CNPNBAHC@?$AA@
  000d4	50		 push	 eax
  000d5	53		 push	 ebx
  000d6	6a 03		 push	 3

; 251  : 		m_pUITitle->SetAllColor( 0xFF6E6E6E, 0xFF000000 );

  000d8	e9 f1 08 00 00	 jmp	 $LN104@SetHelpTex
$LN95@SetHelpTex:

; 252  : 	}
; 253  : 	else if(m_eType == IT_LEFT)

  000dd	83 f8 03	 cmp	 eax, 3
  000e0	75 2a		 jne	 SHORT $LN93@SetHelpTex

; 254  : 	{
; 255  : 		m_pUITitle->SetOffset( 4, 4 );

  000e2	57		 push	 edi
  000e3	57		 push	 edi
  000e4	ff 15 00 00 00
	00		 call	 DWORD PTR __imp_?SetOffset@ioUITitle@@QAEXHH@Z

; 256  : 		m_pUITitle->SetSize(14);

  000ea	8b 4e 3c	 mov	 ecx, DWORD PTR [esi+60]
  000ed	6a 0e		 push	 14			; 0000000eH
  000ef	ff 15 00 00 00
	00		 call	 DWORD PTR __imp_?SetSize@ioUITitle@@QAEXH@Z

; 257  : 		m_pUITitle->SetStyle( TS_NORMAL );

  000f5	8b 4e 3c	 mov	 ecx, DWORD PTR [esi+60]
  000f8	53		 push	 ebx
  000f9	ff 15 00 00 00
	00		 call	 DWORD PTR __imp_?SetStyle@ioUITitle@@QAEXW4TextStyle@@@Z

; 258  : 		m_pUITitle->SetText(STR(4), "");

  000ff	b8 00 00 00 00	 mov	 eax, OFFSET ??_C@_00CNPNBAHC@?$AA@
  00104	50		 push	 eax
  00105	53		 push	 ebx
  00106	57		 push	 edi

; 259  : 		m_pUITitle->SetAllColor( 0xFF6E6E6E, 0xFF000000 );

  00107	e9 c2 08 00 00	 jmp	 $LN104@SetHelpTex
$LN93@SetHelpTex:

; 260  : 	}
; 261  : 	else if(m_eType == IT_RIGHT)

  0010c	3b c7		 cmp	 eax, edi
  0010e	75 2b		 jne	 SHORT $LN91@SetHelpTex

; 262  : 	{
; 263  : 		m_pUITitle->SetOffset( 4, 4 );

  00110	57		 push	 edi
  00111	57		 push	 edi
  00112	ff 15 00 00 00
	00		 call	 DWORD PTR __imp_?SetOffset@ioUITitle@@QAEXHH@Z

; 264  : 		m_pUITitle->SetSize(14);

  00118	8b 4e 3c	 mov	 ecx, DWORD PTR [esi+60]
  0011b	6a 0e		 push	 14			; 0000000eH
  0011d	ff 15 00 00 00
	00		 call	 DWORD PTR __imp_?SetSize@ioUITitle@@QAEXH@Z

; 265  : 		m_pUITitle->SetStyle( TS_NORMAL );

  00123	8b 4e 3c	 mov	 ecx, DWORD PTR [esi+60]
  00126	53		 push	 ebx
  00127	ff 15 00 00 00
	00		 call	 DWORD PTR __imp_?SetStyle@ioUITitle@@QAEXW4TextStyle@@@Z

; 266  : 		m_pUITitle->SetText(STR(5), "");

  0012d	b8 00 00 00 00	 mov	 eax, OFFSET ??_C@_00CNPNBAHC@?$AA@
  00132	50		 push	 eax
  00133	53		 push	 ebx
  00134	6a 05		 push	 5

; 267  : 		m_pUITitle->SetAllColor( 0xFF6E6E6E, 0xFF000000 );

  00136	e9 93 08 00 00	 jmp	 $LN104@SetHelpTex
$LN91@SetHelpTex:

; 268  : 	}
; 269  : 	else if(m_eType == IT_ATTACK)

  0013b	83 f8 05	 cmp	 eax, 5
  0013e	75 2b		 jne	 SHORT $LN89@SetHelpTex

; 270  : 	{
; 271  : 		m_pUITitle->SetOffset( 4, 4 );

  00140	57		 push	 edi
  00141	57		 push	 edi
  00142	ff 15 00 00 00
	00		 call	 DWORD PTR __imp_?SetOffset@ioUITitle@@QAEXHH@Z

; 272  : 		m_pUITitle->SetSize(14);

  00148	8b 4e 3c	 mov	 ecx, DWORD PTR [esi+60]
  0014b	6a 0e		 push	 14			; 0000000eH
  0014d	ff 15 00 00 00
	00		 call	 DWORD PTR __imp_?SetSize@ioUITitle@@QAEXH@Z

; 273  : 		m_pUITitle->SetStyle( TS_NORMAL );

  00153	8b 4e 3c	 mov	 ecx, DWORD PTR [esi+60]
  00156	53		 push	 ebx
  00157	ff 15 00 00 00
	00		 call	 DWORD PTR __imp_?SetStyle@ioUITitle@@QAEXW4TextStyle@@@Z

; 274  : 		m_pUITitle->SetText(STR(6), "");

  0015d	b8 00 00 00 00	 mov	 eax, OFFSET ??_C@_00CNPNBAHC@?$AA@
  00162	50		 push	 eax
  00163	53		 push	 ebx
  00164	6a 06		 push	 6

; 275  : 		m_pUITitle->SetAllColor( 0xFF6E6E6E, 0xFF000000 );

  00166	e9 63 08 00 00	 jmp	 $LN104@SetHelpTex
$LN89@SetHelpTex:

; 276  : 	}
; 277  : 	else if(m_eType == IT_DEFENSE)

  0016b	83 f8 06	 cmp	 eax, 6
  0016e	75 2b		 jne	 SHORT $LN87@SetHelpTex

; 278  : 	{
; 279  : 		m_pUITitle->SetOffset( 4, 4 );

  00170	57		 push	 edi
  00171	57		 push	 edi
  00172	ff 15 00 00 00
	00		 call	 DWORD PTR __imp_?SetOffset@ioUITitle@@QAEXHH@Z

; 280  : 		m_pUITitle->SetSize(14);

  00178	8b 4e 3c	 mov	 ecx, DWORD PTR [esi+60]
  0017b	6a 0e		 push	 14			; 0000000eH
  0017d	ff 15 00 00 00
	00		 call	 DWORD PTR __imp_?SetSize@ioUITitle@@QAEXH@Z

; 281  : 		m_pUITitle->SetStyle( TS_NORMAL );

  00183	8b 4e 3c	 mov	 ecx, DWORD PTR [esi+60]
  00186	53		 push	 ebx
  00187	ff 15 00 00 00
	00		 call	 DWORD PTR __imp_?SetStyle@ioUITitle@@QAEXW4TextStyle@@@Z

; 282  : 		m_pUITitle->SetText(STR(7), "");

  0018d	b8 00 00 00 00	 mov	 eax, OFFSET ??_C@_00CNPNBAHC@?$AA@
  00192	50		 push	 eax
  00193	53		 push	 ebx
  00194	6a 07		 push	 7

; 283  : 		m_pUITitle->SetAllColor( 0xFF6E6E6E, 0xFF000000 );

  00196	e9 33 08 00 00	 jmp	 $LN104@SetHelpTex
$LN87@SetHelpTex:

; 284  : 	}
; 285  : 	else if(m_eType == IT_JUMP)

  0019b	83 f8 07	 cmp	 eax, 7
  0019e	75 2b		 jne	 SHORT $LN85@SetHelpTex

; 286  : 	{
; 287  : 		m_pUITitle->SetOffset( 4, 4 );

  001a0	57		 push	 edi
  001a1	57		 push	 edi
  001a2	ff 15 00 00 00
	00		 call	 DWORD PTR __imp_?SetOffset@ioUITitle@@QAEXHH@Z

; 288  : 		m_pUITitle->SetSize(14);

  001a8	8b 4e 3c	 mov	 ecx, DWORD PTR [esi+60]
  001ab	6a 0e		 push	 14			; 0000000eH
  001ad	ff 15 00 00 00
	00		 call	 DWORD PTR __imp_?SetSize@ioUITitle@@QAEXH@Z

; 289  : 		m_pUITitle->SetStyle( TS_NORMAL );

  001b3	8b 4e 3c	 mov	 ecx, DWORD PTR [esi+60]
  001b6	53		 push	 ebx
  001b7	ff 15 00 00 00
	00		 call	 DWORD PTR __imp_?SetStyle@ioUITitle@@QAEXW4TextStyle@@@Z

; 290  : 		m_pUITitle->SetText(STR(8), "");

  001bd	b8 00 00 00 00	 mov	 eax, OFFSET ??_C@_00CNPNBAHC@?$AA@
  001c2	50		 push	 eax
  001c3	53		 push	 ebx
  001c4	6a 08		 push	 8

; 291  : 		m_pUITitle->SetAllColor( 0xFF6E6E6E, 0xFF000000 );

  001c6	e9 03 08 00 00	 jmp	 $LN104@SetHelpTex
$LN85@SetHelpTex:

; 292  : 	}
; 293  : 	else if(m_eType == IT_TITLE_SKILL)

  001cb	83 f8 08	 cmp	 eax, 8
  001ce	75 54		 jne	 SHORT $LN83@SetHelpTex

; 294  : 	{
; 295  : 		m_pUITitle->SetOffset( 27, 4 );

  001d0	57		 push	 edi
  001d1	6a 1b		 push	 27			; 0000001bH
  001d3	ff 15 00 00 00
	00		 call	 DWORD PTR __imp_?SetOffset@ioUITitle@@QAEXHH@Z

; 296  : 		m_pUITitle->SetSize( 15 );

  001d9	8b 4e 3c	 mov	 ecx, DWORD PTR [esi+60]
  001dc	6a 0f		 push	 15			; 0000000fH
  001de	ff 15 00 00 00
	00		 call	 DWORD PTR __imp_?SetSize@ioUITitle@@QAEXH@Z

; 297  : 		m_pUITitle->SetStyle( TS_NORMAL );

  001e4	8b 4e 3c	 mov	 ecx, DWORD PTR [esi+60]
  001e7	53		 push	 ebx
  001e8	ff 15 00 00 00
	00		 call	 DWORD PTR __imp_?SetStyle@ioUITitle@@QAEXW4TextStyle@@@Z

; 298  : 		m_pUITitle->SetText(STR(9), "");

  001ee	b8 00 00 00 00	 mov	 eax, OFFSET ??_C@_00CNPNBAHC@?$AA@
  001f3	50		 push	 eax
  001f4	53		 push	 ebx
  001f5	6a 09		 push	 9
$LN107@SetHelpTex:
  001f7	50		 push	 eax
  001f8	68 00 00 00 00	 push	 OFFSET ??_C@_0CC@KNMOMGJF@SettingJoyKeyItemWnd?3?3SetHelpTex@
  001fd	ff 15 00 00 00
	00		 call	 DWORD PTR __imp_?GetSingleton@ioStringManager@@SAAAV1@XZ
  00203	8b c8		 mov	 ecx, eax
  00205	ff 15 00 00 00
	00		 call	 DWORD PTR __imp_?GetString@ioStringManager@@QAEPADPBD0HW4FileNamePrefix@1@@Z
  0020b	8b 4e 3c	 mov	 ecx, DWORD PTR [esi+60]
  0020e	50		 push	 eax
  0020f	ff 15 00 00 00
	00		 call	 DWORD PTR __imp_?SetText@ioUITitle@@QAEXPBD0@Z

; 299  : 		m_pUITitle->SetAllColor( 0xFF3A3A3A, 0xFF000000 );

  00215	68 00 00 00 ff	 push	 -16777216		; ff000000H
  0021a	68 3a 3a 3a ff	 push	 -12961222		; ff3a3a3aH
  0021f	e9 d2 07 00 00	 jmp	 $LN105@SetHelpTex
$LN83@SetHelpTex:

; 300  : 	}
; 301  : 	else if(m_eType == IT_CLOAK_SKILL)

  00224	83 f8 09	 cmp	 eax, 9
  00227	75 2c		 jne	 SHORT $LN81@SetHelpTex

; 302  : 	{
; 303  : 		m_pUITitle->SetOffset( 4, 4 );

  00229	57		 push	 edi
  0022a	57		 push	 edi
  0022b	ff 15 00 00 00
	00		 call	 DWORD PTR __imp_?SetOffset@ioUITitle@@QAEXHH@Z

; 304  : 		m_pUITitle->SetSize(14);

  00231	8b 4e 3c	 mov	 ecx, DWORD PTR [esi+60]
  00234	6a 0e		 push	 14			; 0000000eH
  00236	ff 15 00 00 00
	00		 call	 DWORD PTR __imp_?SetSize@ioUITitle@@QAEXH@Z

; 305  : 		m_pUITitle->SetStyle( TS_NORMAL );

  0023c	8b 4e 3c	 mov	 ecx, DWORD PTR [esi+60]
  0023f	53		 push	 ebx
  00240	ff 15 00 00 00
	00		 call	 DWORD PTR __imp_?SetStyle@ioUITitle@@QAEXW4TextStyle@@@Z

; 306  : 		m_pUITitle->SetText( "AS", "");

  00246	68 00 00 00 00	 push	 OFFSET ??_C@_00CNPNBAHC@?$AA@
  0024b	68 00 00 00 00	 push	 OFFSET ??_C@_02OAHAMPIN@AS?$AA@

; 307  : 		m_pUITitle->SetAllColor( 0xFF6E6E6E, 0xFF000000 );

  00250	e9 8e 07 00 00	 jmp	 $LN106@SetHelpTex
$LN81@SetHelpTex:

; 308  : 	}
; 309  : 	else if(m_eType == IT_HELM_SKILL)

  00255	83 f8 0a	 cmp	 eax, 10			; 0000000aH
  00258	75 2c		 jne	 SHORT $LN79@SetHelpTex

; 310  : 	{
; 311  : 		m_pUITitle->SetOffset( 4, 4 );

  0025a	57		 push	 edi
  0025b	57		 push	 edi
  0025c	ff 15 00 00 00
	00		 call	 DWORD PTR __imp_?SetOffset@ioUITitle@@QAEXHH@Z

; 312  : 		m_pUITitle->SetSize(14);

  00262	8b 4e 3c	 mov	 ecx, DWORD PTR [esi+60]
  00265	6a 0e		 push	 14			; 0000000eH
  00267	ff 15 00 00 00
	00		 call	 DWORD PTR __imp_?SetSize@ioUITitle@@QAEXH@Z

; 313  : 		m_pUITitle->SetStyle( TS_NORMAL );

  0026d	8b 4e 3c	 mov	 ecx, DWORD PTR [esi+60]
  00270	53		 push	 ebx
  00271	ff 15 00 00 00
	00		 call	 DWORD PTR __imp_?SetStyle@ioUITitle@@QAEXW4TextStyle@@@Z

; 314  : 		m_pUITitle->SetText( "AD", "");

  00277	68 00 00 00 00	 push	 OFFSET ??_C@_00CNPNBAHC@?$AA@
  0027c	68 00 00 00 00	 push	 OFFSET ??_C@_02OFPDELBL@AD?$AA@

; 315  : 		m_pUITitle->SetAllColor( 0xFF6E6E6E, 0xFF000000 );

  00281	e9 5d 07 00 00	 jmp	 $LN106@SetHelpTex
$LN79@SetHelpTex:

; 316  : 	}
; 317  : 	else if(m_eType == IT_ARMOR_SKILL)

  00286	83 f8 0b	 cmp	 eax, 11			; 0000000bH
  00289	75 2c		 jne	 SHORT $LN77@SetHelpTex

; 318  : 	{
; 319  : 		m_pUITitle->SetOffset( 4, 4 );

  0028b	57		 push	 edi
  0028c	57		 push	 edi
  0028d	ff 15 00 00 00
	00		 call	 DWORD PTR __imp_?SetOffset@ioUITitle@@QAEXHH@Z

; 320  : 		m_pUITitle->SetSize(14);

  00293	8b 4e 3c	 mov	 ecx, DWORD PTR [esi+60]
  00296	6a 0e		 push	 14			; 0000000eH
  00298	ff 15 00 00 00
	00		 call	 DWORD PTR __imp_?SetSize@ioUITitle@@QAEXH@Z

; 321  : 		m_pUITitle->SetStyle( TS_NORMAL );

  0029e	8b 4e 3c	 mov	 ecx, DWORD PTR [esi+60]
  002a1	53		 push	 ebx
  002a2	ff 15 00 00 00
	00		 call	 DWORD PTR __imp_?SetStyle@ioUITitle@@QAEXW4TextStyle@@@Z

; 322  : 		m_pUITitle->SetText( "ASD", "");

  002a8	68 00 00 00 00	 push	 OFFSET ??_C@_00CNPNBAHC@?$AA@
  002ad	68 00 00 00 00	 push	 OFFSET ??_C@_03HPMAFFD@ASD?$AA@

; 323  : 		m_pUITitle->SetAllColor( 0xFF6E6E6E, 0xFF000000 );

  002b2	e9 2c 07 00 00	 jmp	 $LN106@SetHelpTex
$LN77@SetHelpTex:

; 324  : 	}
; 325  : 	else if(m_eType == IT_WEAPON_SKILL)

  002b7	83 f8 0c	 cmp	 eax, 12			; 0000000cH
  002ba	75 2c		 jne	 SHORT $LN75@SetHelpTex

; 326  : 	{
; 327  : 		m_pUITitle->SetOffset( 4, 4 );

  002bc	57		 push	 edi
  002bd	57		 push	 edi
  002be	ff 15 00 00 00
	00		 call	 DWORD PTR __imp_?SetOffset@ioUITitle@@QAEXHH@Z

; 328  : 		m_pUITitle->SetSize(14);

  002c4	8b 4e 3c	 mov	 ecx, DWORD PTR [esi+60]
  002c7	6a 0e		 push	 14			; 0000000eH
  002c9	ff 15 00 00 00
	00		 call	 DWORD PTR __imp_?SetSize@ioUITitle@@QAEXH@Z

; 329  : 		m_pUITitle->SetStyle( TS_NORMAL );

  002cf	8b 4e 3c	 mov	 ecx, DWORD PTR [esi+60]
  002d2	53		 push	 ebx
  002d3	ff 15 00 00 00
	00		 call	 DWORD PTR __imp_?SetStyle@ioUITitle@@QAEXW4TextStyle@@@Z

; 330  : 		m_pUITitle->SetText( "SD", "");

  002d9	68 00 00 00 00	 push	 OFFSET ??_C@_00CNPNBAHC@?$AA@
  002de	68 00 00 00 00	 push	 OFFSET ??_C@_02PKFBDMAF@SD?$AA@

; 331  : 		m_pUITitle->SetAllColor( 0xFF6E6E6E, 0xFF000000 );

  002e3	e9 fb 06 00 00	 jmp	 $LN106@SetHelpTex
$LN75@SetHelpTex:

; 332  : 	}
; 333  : 	else if(m_eType == IT_TITLE_SOLDIER)

  002e8	83 f8 0d	 cmp	 eax, 13			; 0000000dH
  002eb	75 2c		 jne	 SHORT $LN73@SetHelpTex

; 334  : 	{
; 335  : 		m_pUITitle->SetOffset( 27, 4 );

  002ed	57		 push	 edi
  002ee	6a 1b		 push	 27			; 0000001bH
  002f0	ff 15 00 00 00
	00		 call	 DWORD PTR __imp_?SetOffset@ioUITitle@@QAEXHH@Z

; 336  : 		m_pUITitle->SetSize( 15 );

  002f6	8b 4e 3c	 mov	 ecx, DWORD PTR [esi+60]
  002f9	6a 0f		 push	 15			; 0000000fH
  002fb	ff 15 00 00 00
	00		 call	 DWORD PTR __imp_?SetSize@ioUITitle@@QAEXH@Z

; 337  : 		m_pUITitle->SetStyle( TS_NORMAL );

  00301	8b 4e 3c	 mov	 ecx, DWORD PTR [esi+60]
  00304	53		 push	 ebx
  00305	ff 15 00 00 00
	00		 call	 DWORD PTR __imp_?SetStyle@ioUITitle@@QAEXW4TextStyle@@@Z

; 338  : 		m_pUITitle->SetText(STR(10), "");

  0030b	b8 00 00 00 00	 mov	 eax, OFFSET ??_C@_00CNPNBAHC@?$AA@
  00310	50		 push	 eax
  00311	53		 push	 ebx
  00312	6a 0a		 push	 10			; 0000000aH

; 339  : 		m_pUITitle->SetAllColor( 0xFF3A3A3A, 0xFF000000 );

  00314	e9 de fe ff ff	 jmp	 $LN107@SetHelpTex
$LN73@SetHelpTex:

; 340  : 	}
; 341  : 	else if(m_eType == IT_SOLDIER1)

  00319	83 f8 0e	 cmp	 eax, 14			; 0000000eH
  0031c	75 2b		 jne	 SHORT $LN71@SetHelpTex

; 342  : 	{
; 343  : 		m_pUITitle->SetOffset( 4, 4 );

  0031e	57		 push	 edi
  0031f	57		 push	 edi
  00320	ff 15 00 00 00
	00		 call	 DWORD PTR __imp_?SetOffset@ioUITitle@@QAEXHH@Z

; 344  : 		m_pUITitle->SetSize(14);

  00326	8b 4e 3c	 mov	 ecx, DWORD PTR [esi+60]
  00329	6a 0e		 push	 14			; 0000000eH
  0032b	ff 15 00 00 00
	00		 call	 DWORD PTR __imp_?SetSize@ioUITitle@@QAEXH@Z

; 345  : 		m_pUITitle->SetStyle( TS_NORMAL );

  00331	8b 4e 3c	 mov	 ecx, DWORD PTR [esi+60]
  00334	53		 push	 ebx
  00335	ff 15 00 00 00
	00		 call	 DWORD PTR __imp_?SetStyle@ioUITitle@@QAEXW4TextStyle@@@Z

; 346  : 		m_pUITitle->SetText(STR(11), "");

  0033b	b8 00 00 00 00	 mov	 eax, OFFSET ??_C@_00CNPNBAHC@?$AA@
  00340	50		 push	 eax
  00341	53		 push	 ebx
  00342	6a 0b		 push	 11			; 0000000bH

; 347  : 		m_pUITitle->SetAllColor( 0xFF6E6E6E, 0xFF000000 );

  00344	e9 85 06 00 00	 jmp	 $LN104@SetHelpTex
$LN71@SetHelpTex:

; 348  : 	}
; 349  : 	else if(m_eType == IT_SOLDIER2)

  00349	83 f8 0f	 cmp	 eax, 15			; 0000000fH
  0034c	75 2b		 jne	 SHORT $LN69@SetHelpTex

; 350  : 	{
; 351  : 		m_pUITitle->SetOffset( 4, 4 );

  0034e	57		 push	 edi
  0034f	57		 push	 edi
  00350	ff 15 00 00 00
	00		 call	 DWORD PTR __imp_?SetOffset@ioUITitle@@QAEXHH@Z

; 352  : 		m_pUITitle->SetSize(14);

  00356	8b 4e 3c	 mov	 ecx, DWORD PTR [esi+60]
  00359	6a 0e		 push	 14			; 0000000eH
  0035b	ff 15 00 00 00
	00		 call	 DWORD PTR __imp_?SetSize@ioUITitle@@QAEXH@Z

; 353  : 		m_pUITitle->SetStyle( TS_NORMAL );

  00361	8b 4e 3c	 mov	 ecx, DWORD PTR [esi+60]
  00364	53		 push	 ebx
  00365	ff 15 00 00 00
	00		 call	 DWORD PTR __imp_?SetStyle@ioUITitle@@QAEXW4TextStyle@@@Z

; 354  : 		m_pUITitle->SetText(STR(12), "");

  0036b	b8 00 00 00 00	 mov	 eax, OFFSET ??_C@_00CNPNBAHC@?$AA@
  00370	50		 push	 eax
  00371	53		 push	 ebx
  00372	6a 0c		 push	 12			; 0000000cH

; 355  : 		m_pUITitle->SetAllColor( 0xFF6E6E6E, 0xFF000000 );

  00374	e9 55 06 00 00	 jmp	 $LN104@SetHelpTex
$LN69@SetHelpTex:

; 356  : 	}
; 357  : 	else if(m_eType == IT_SOLDIER3)

  00379	83 f8 10	 cmp	 eax, 16			; 00000010H
  0037c	75 2b		 jne	 SHORT $LN67@SetHelpTex

; 358  : 	{
; 359  : 		m_pUITitle->SetOffset( 4, 4 );

  0037e	57		 push	 edi
  0037f	57		 push	 edi
  00380	ff 15 00 00 00
	00		 call	 DWORD PTR __imp_?SetOffset@ioUITitle@@QAEXHH@Z

; 360  : 		m_pUITitle->SetSize(14);

  00386	8b 4e 3c	 mov	 ecx, DWORD PTR [esi+60]
  00389	6a 0e		 push	 14			; 0000000eH
  0038b	ff 15 00 00 00
	00		 call	 DWORD PTR __imp_?SetSize@ioUITitle@@QAEXH@Z

; 361  : 		m_pUITitle->SetStyle( TS_NORMAL );

  00391	8b 4e 3c	 mov	 ecx, DWORD PTR [esi+60]
  00394	53		 push	 ebx
  00395	ff 15 00 00 00
	00		 call	 DWORD PTR __imp_?SetStyle@ioUITitle@@QAEXW4TextStyle@@@Z

; 362  : 		m_pUITitle->SetText(STR(13), "");

  0039b	b8 00 00 00 00	 mov	 eax, OFFSET ??_C@_00CNPNBAHC@?$AA@
  003a0	50		 push	 eax
  003a1	53		 push	 ebx
  003a2	6a 0d		 push	 13			; 0000000dH

; 363  : 		m_pUITitle->SetAllColor( 0xFF6E6E6E, 0xFF000000 );

  003a4	e9 25 06 00 00	 jmp	 $LN104@SetHelpTex
$LN67@SetHelpTex:

; 364  : 	}
; 365  : 	else if(m_eType == IT_SOLDIER4)

  003a9	83 f8 11	 cmp	 eax, 17			; 00000011H
  003ac	75 2b		 jne	 SHORT $LN65@SetHelpTex

; 366  : 	{
; 367  : 		m_pUITitle->SetOffset( 4, 4 );

  003ae	57		 push	 edi
  003af	57		 push	 edi
  003b0	ff 15 00 00 00
	00		 call	 DWORD PTR __imp_?SetOffset@ioUITitle@@QAEXHH@Z

; 368  : 		m_pUITitle->SetSize(14);

  003b6	8b 4e 3c	 mov	 ecx, DWORD PTR [esi+60]
  003b9	6a 0e		 push	 14			; 0000000eH
  003bb	ff 15 00 00 00
	00		 call	 DWORD PTR __imp_?SetSize@ioUITitle@@QAEXH@Z

; 369  : 		m_pUITitle->SetStyle( TS_NORMAL );

  003c1	8b 4e 3c	 mov	 ecx, DWORD PTR [esi+60]
  003c4	53		 push	 ebx
  003c5	ff 15 00 00 00
	00		 call	 DWORD PTR __imp_?SetStyle@ioUITitle@@QAEXW4TextStyle@@@Z

; 370  : 		m_pUITitle->SetText(STR(14), "");

  003cb	b8 00 00 00 00	 mov	 eax, OFFSET ??_C@_00CNPNBAHC@?$AA@
  003d0	50		 push	 eax
  003d1	53		 push	 ebx
  003d2	6a 0e		 push	 14			; 0000000eH

; 371  : 		m_pUITitle->SetAllColor( 0xFF6E6E6E, 0xFF000000 );

  003d4	e9 f5 05 00 00	 jmp	 $LN104@SetHelpTex
$LN65@SetHelpTex:

; 372  : 	}
; 373  : 	else if(m_eType == IT_SOLDIER5)

  003d9	83 f8 12	 cmp	 eax, 18			; 00000012H
  003dc	75 2b		 jne	 SHORT $LN63@SetHelpTex

; 374  : 	{
; 375  : 		m_pUITitle->SetOffset( 4, 4 );

  003de	57		 push	 edi
  003df	57		 push	 edi
  003e0	ff 15 00 00 00
	00		 call	 DWORD PTR __imp_?SetOffset@ioUITitle@@QAEXHH@Z

; 376  : 		m_pUITitle->SetSize(14);

  003e6	8b 4e 3c	 mov	 ecx, DWORD PTR [esi+60]
  003e9	6a 0e		 push	 14			; 0000000eH
  003eb	ff 15 00 00 00
	00		 call	 DWORD PTR __imp_?SetSize@ioUITitle@@QAEXH@Z

; 377  : 		m_pUITitle->SetStyle( TS_NORMAL );

  003f1	8b 4e 3c	 mov	 ecx, DWORD PTR [esi+60]
  003f4	53		 push	 ebx
  003f5	ff 15 00 00 00
	00		 call	 DWORD PTR __imp_?SetStyle@ioUITitle@@QAEXW4TextStyle@@@Z

; 378  : 		m_pUITitle->SetText(STR(15), "");

  003fb	b8 00 00 00 00	 mov	 eax, OFFSET ??_C@_00CNPNBAHC@?$AA@
  00400	50		 push	 eax
  00401	53		 push	 ebx
  00402	6a 0f		 push	 15			; 0000000fH

; 379  : 		m_pUITitle->SetAllColor( 0xFF6E6E6E, 0xFF000000 );

  00404	e9 c5 05 00 00	 jmp	 $LN104@SetHelpTex
$LN63@SetHelpTex:

; 380  : 	}
; 381  : 	else if(m_eType == IT_SOLDIER6)

  00409	83 f8 13	 cmp	 eax, 19			; 00000013H
  0040c	75 2b		 jne	 SHORT $LN61@SetHelpTex

; 382  : 	{
; 383  : 		m_pUITitle->SetOffset( 4, 4 );

  0040e	57		 push	 edi
  0040f	57		 push	 edi
  00410	ff 15 00 00 00
	00		 call	 DWORD PTR __imp_?SetOffset@ioUITitle@@QAEXHH@Z

; 384  : 		m_pUITitle->SetSize(14);

  00416	8b 4e 3c	 mov	 ecx, DWORD PTR [esi+60]
  00419	6a 0e		 push	 14			; 0000000eH
  0041b	ff 15 00 00 00
	00		 call	 DWORD PTR __imp_?SetSize@ioUITitle@@QAEXH@Z

; 385  : 		m_pUITitle->SetStyle( TS_NORMAL );

  00421	8b 4e 3c	 mov	 ecx, DWORD PTR [esi+60]
  00424	53		 push	 ebx
  00425	ff 15 00 00 00
	00		 call	 DWORD PTR __imp_?SetStyle@ioUITitle@@QAEXW4TextStyle@@@Z

; 386  : 		m_pUITitle->SetText(STR(16), "");

  0042b	b8 00 00 00 00	 mov	 eax, OFFSET ??_C@_00CNPNBAHC@?$AA@
  00430	50		 push	 eax
  00431	53		 push	 ebx
  00432	6a 10		 push	 16			; 00000010H

; 387  : 		m_pUITitle->SetAllColor( 0xFF6E6E6E, 0xFF000000 );

  00434	e9 95 05 00 00	 jmp	 $LN104@SetHelpTex
$LN61@SetHelpTex:

; 388  : 	}
; 389  : 	else if(m_eType == IT_SOLDIER7)

  00439	83 f8 14	 cmp	 eax, 20			; 00000014H
  0043c	75 2b		 jne	 SHORT $LN59@SetHelpTex

; 390  : 	{
; 391  : 		m_pUITitle->SetOffset( 4, 4 );

  0043e	57		 push	 edi
  0043f	57		 push	 edi
  00440	ff 15 00 00 00
	00		 call	 DWORD PTR __imp_?SetOffset@ioUITitle@@QAEXHH@Z

; 392  : 		m_pUITitle->SetSize(14);

  00446	8b 4e 3c	 mov	 ecx, DWORD PTR [esi+60]
  00449	6a 0e		 push	 14			; 0000000eH
  0044b	ff 15 00 00 00
	00		 call	 DWORD PTR __imp_?SetSize@ioUITitle@@QAEXH@Z

; 393  : 		m_pUITitle->SetStyle( TS_NORMAL );

  00451	8b 4e 3c	 mov	 ecx, DWORD PTR [esi+60]
  00454	53		 push	 ebx
  00455	ff 15 00 00 00
	00		 call	 DWORD PTR __imp_?SetStyle@ioUITitle@@QAEXW4TextStyle@@@Z

; 394  : 		m_pUITitle->SetText(STR(17), "");

  0045b	b8 00 00 00 00	 mov	 eax, OFFSET ??_C@_00CNPNBAHC@?$AA@
  00460	50		 push	 eax
  00461	53		 push	 ebx
  00462	6a 11		 push	 17			; 00000011H

; 395  : 		m_pUITitle->SetAllColor( 0xFF6E6E6E, 0xFF000000 );

  00464	e9 65 05 00 00	 jmp	 $LN104@SetHelpTex
$LN59@SetHelpTex:

; 396  : 	}
; 397  : 	else if(m_eType == IT_SOLDIER8)

  00469	83 f8 15	 cmp	 eax, 21			; 00000015H
  0046c	75 2b		 jne	 SHORT $LN57@SetHelpTex

; 398  : 	{
; 399  : 		m_pUITitle->SetOffset( 4, 4 );

  0046e	57		 push	 edi
  0046f	57		 push	 edi
  00470	ff 15 00 00 00
	00		 call	 DWORD PTR __imp_?SetOffset@ioUITitle@@QAEXHH@Z

; 400  : 		m_pUITitle->SetSize(14);

  00476	8b 4e 3c	 mov	 ecx, DWORD PTR [esi+60]
  00479	6a 0e		 push	 14			; 0000000eH
  0047b	ff 15 00 00 00
	00		 call	 DWORD PTR __imp_?SetSize@ioUITitle@@QAEXH@Z

; 401  : 		m_pUITitle->SetStyle( TS_NORMAL );

  00481	8b 4e 3c	 mov	 ecx, DWORD PTR [esi+60]
  00484	53		 push	 ebx
  00485	ff 15 00 00 00
	00		 call	 DWORD PTR __imp_?SetStyle@ioUITitle@@QAEXW4TextStyle@@@Z

; 402  : 		m_pUITitle->SetText(STR(18), "");

  0048b	b8 00 00 00 00	 mov	 eax, OFFSET ??_C@_00CNPNBAHC@?$AA@
  00490	50		 push	 eax
  00491	53		 push	 ebx
  00492	6a 12		 push	 18			; 00000012H

; 403  : 		m_pUITitle->SetAllColor( 0xFF6E6E6E, 0xFF000000 );

  00494	e9 35 05 00 00	 jmp	 $LN104@SetHelpTex
$LN57@SetHelpTex:

; 404  : 	}
; 405  : 	else if(m_eType == IT_SOLDIER9)

  00499	83 f8 16	 cmp	 eax, 22			; 00000016H
  0049c	75 2b		 jne	 SHORT $LN55@SetHelpTex

; 406  : 	{
; 407  : 		m_pUITitle->SetOffset( 4, 4 );

  0049e	57		 push	 edi
  0049f	57		 push	 edi
  004a0	ff 15 00 00 00
	00		 call	 DWORD PTR __imp_?SetOffset@ioUITitle@@QAEXHH@Z

; 408  : 		m_pUITitle->SetSize(14);

  004a6	8b 4e 3c	 mov	 ecx, DWORD PTR [esi+60]
  004a9	6a 0e		 push	 14			; 0000000eH
  004ab	ff 15 00 00 00
	00		 call	 DWORD PTR __imp_?SetSize@ioUITitle@@QAEXH@Z

; 409  : 		m_pUITitle->SetStyle( TS_NORMAL );

  004b1	8b 4e 3c	 mov	 ecx, DWORD PTR [esi+60]
  004b4	53		 push	 ebx
  004b5	ff 15 00 00 00
	00		 call	 DWORD PTR __imp_?SetStyle@ioUITitle@@QAEXW4TextStyle@@@Z

; 410  : 		m_pUITitle->SetText(STR(19), "");

  004bb	b8 00 00 00 00	 mov	 eax, OFFSET ??_C@_00CNPNBAHC@?$AA@
  004c0	50		 push	 eax
  004c1	53		 push	 ebx
  004c2	6a 13		 push	 19			; 00000013H

; 411  : 		m_pUITitle->SetAllColor( 0xFF6E6E6E, 0xFF000000 );

  004c4	e9 05 05 00 00	 jmp	 $LN104@SetHelpTex
$LN55@SetHelpTex:

; 412  : 	}
; 413  : 	else if(m_eType == IT_SOLDIER10)

  004c9	83 f8 17	 cmp	 eax, 23			; 00000017H
  004cc	75 2b		 jne	 SHORT $LN53@SetHelpTex

; 414  : 	{
; 415  : 		m_pUITitle->SetOffset( 4, 4 );

  004ce	57		 push	 edi
  004cf	57		 push	 edi
  004d0	ff 15 00 00 00
	00		 call	 DWORD PTR __imp_?SetOffset@ioUITitle@@QAEXHH@Z

; 416  : 		m_pUITitle->SetSize(14);

  004d6	8b 4e 3c	 mov	 ecx, DWORD PTR [esi+60]
  004d9	6a 0e		 push	 14			; 0000000eH
  004db	ff 15 00 00 00
	00		 call	 DWORD PTR __imp_?SetSize@ioUITitle@@QAEXH@Z

; 417  : 		m_pUITitle->SetStyle( TS_NORMAL );

  004e1	8b 4e 3c	 mov	 ecx, DWORD PTR [esi+60]
  004e4	53		 push	 ebx
  004e5	ff 15 00 00 00
	00		 call	 DWORD PTR __imp_?SetStyle@ioUITitle@@QAEXW4TextStyle@@@Z

; 418  : 		m_pUITitle->SetText(STR(20), "");

  004eb	b8 00 00 00 00	 mov	 eax, OFFSET ??_C@_00CNPNBAHC@?$AA@
  004f0	50		 push	 eax
  004f1	53		 push	 ebx
  004f2	6a 14		 push	 20			; 00000014H

; 419  : 		m_pUITitle->SetAllColor( 0xFF6E6E6E, 0xFF000000 );

  004f4	e9 d5 04 00 00	 jmp	 $LN104@SetHelpTex
$LN53@SetHelpTex:

; 420  : 	}
; 421  : 	else if(m_eType == IT_SOLDIER11)

  004f9	83 f8 18	 cmp	 eax, 24			; 00000018H
  004fc	75 2b		 jne	 SHORT $LN51@SetHelpTex

; 422  : 	{
; 423  : 		m_pUITitle->SetOffset( 4, 4 );

  004fe	57		 push	 edi
  004ff	57		 push	 edi
  00500	ff 15 00 00 00
	00		 call	 DWORD PTR __imp_?SetOffset@ioUITitle@@QAEXHH@Z

; 424  : 		m_pUITitle->SetSize(14);

  00506	8b 4e 3c	 mov	 ecx, DWORD PTR [esi+60]
  00509	6a 0e		 push	 14			; 0000000eH
  0050b	ff 15 00 00 00
	00		 call	 DWORD PTR __imp_?SetSize@ioUITitle@@QAEXH@Z

; 425  : 		m_pUITitle->SetStyle( TS_NORMAL );

  00511	8b 4e 3c	 mov	 ecx, DWORD PTR [esi+60]
  00514	53		 push	 ebx
  00515	ff 15 00 00 00
	00		 call	 DWORD PTR __imp_?SetStyle@ioUITitle@@QAEXW4TextStyle@@@Z

; 426  : 		m_pUITitle->SetText(STR(21), "");

  0051b	b8 00 00 00 00	 mov	 eax, OFFSET ??_C@_00CNPNBAHC@?$AA@
  00520	50		 push	 eax
  00521	53		 push	 ebx
  00522	6a 15		 push	 21			; 00000015H

; 427  : 		m_pUITitle->SetAllColor( 0xFF6E6E6E, 0xFF000000 );

  00524	e9 a5 04 00 00	 jmp	 $LN104@SetHelpTex
$LN51@SetHelpTex:

; 428  : 	}
; 429  : 	else if(m_eType == IT_SOLDIER12)

  00529	83 f8 19	 cmp	 eax, 25			; 00000019H
  0052c	75 2b		 jne	 SHORT $LN49@SetHelpTex

; 430  : 	{
; 431  : 		m_pUITitle->SetOffset( 4, 4 );

  0052e	57		 push	 edi
  0052f	57		 push	 edi
  00530	ff 15 00 00 00
	00		 call	 DWORD PTR __imp_?SetOffset@ioUITitle@@QAEXHH@Z

; 432  : 		m_pUITitle->SetSize(14);

  00536	8b 4e 3c	 mov	 ecx, DWORD PTR [esi+60]
  00539	6a 0e		 push	 14			; 0000000eH
  0053b	ff 15 00 00 00
	00		 call	 DWORD PTR __imp_?SetSize@ioUITitle@@QAEXH@Z

; 433  : 		m_pUITitle->SetStyle( TS_NORMAL );

  00541	8b 4e 3c	 mov	 ecx, DWORD PTR [esi+60]
  00544	53		 push	 ebx
  00545	ff 15 00 00 00
	00		 call	 DWORD PTR __imp_?SetStyle@ioUITitle@@QAEXW4TextStyle@@@Z

; 434  : 		m_pUITitle->SetText(STR(22), "");

  0054b	b8 00 00 00 00	 mov	 eax, OFFSET ??_C@_00CNPNBAHC@?$AA@
  00550	50		 push	 eax
  00551	53		 push	 ebx
  00552	6a 16		 push	 22			; 00000016H

; 435  : 		m_pUITitle->SetAllColor( 0xFF6E6E6E, 0xFF000000 );

  00554	e9 75 04 00 00	 jmp	 $LN104@SetHelpTex
$LN49@SetHelpTex:

; 436  : 	}
; 437  : 	else if(m_eType == IT_SOLDIER13)

  00559	83 f8 1a	 cmp	 eax, 26			; 0000001aH
  0055c	75 2b		 jne	 SHORT $LN47@SetHelpTex

; 438  : 	{
; 439  : 		m_pUITitle->SetOffset( 4, 4 );

  0055e	57		 push	 edi
  0055f	57		 push	 edi
  00560	ff 15 00 00 00
	00		 call	 DWORD PTR __imp_?SetOffset@ioUITitle@@QAEXHH@Z

; 440  : 		m_pUITitle->SetSize(14);

  00566	8b 4e 3c	 mov	 ecx, DWORD PTR [esi+60]
  00569	6a 0e		 push	 14			; 0000000eH
  0056b	ff 15 00 00 00
	00		 call	 DWORD PTR __imp_?SetSize@ioUITitle@@QAEXH@Z

; 441  : 		m_pUITitle->SetStyle( TS_NORMAL );

  00571	8b 4e 3c	 mov	 ecx, DWORD PTR [esi+60]
  00574	53		 push	 ebx
  00575	ff 15 00 00 00
	00		 call	 DWORD PTR __imp_?SetStyle@ioUITitle@@QAEXW4TextStyle@@@Z

; 442  : 		m_pUITitle->SetText( STR(23), "");

  0057b	b8 00 00 00 00	 mov	 eax, OFFSET ??_C@_00CNPNBAHC@?$AA@
  00580	50		 push	 eax
  00581	53		 push	 ebx
  00582	6a 17		 push	 23			; 00000017H

; 443  : 		m_pUITitle->SetAllColor( 0xFF6E6E6E, 0xFF000000 );

  00584	e9 45 04 00 00	 jmp	 $LN104@SetHelpTex
$LN47@SetHelpTex:

; 444  : 	}
; 445  : 	else if(m_eType == IT_SOLDIER14)

  00589	83 f8 1b	 cmp	 eax, 27			; 0000001bH
  0058c	75 2b		 jne	 SHORT $LN45@SetHelpTex

; 446  : 	{
; 447  : 		m_pUITitle->SetOffset( 4, 4 );

  0058e	57		 push	 edi
  0058f	57		 push	 edi
  00590	ff 15 00 00 00
	00		 call	 DWORD PTR __imp_?SetOffset@ioUITitle@@QAEXHH@Z

; 448  : 		m_pUITitle->SetSize(14);

  00596	8b 4e 3c	 mov	 ecx, DWORD PTR [esi+60]
  00599	6a 0e		 push	 14			; 0000000eH
  0059b	ff 15 00 00 00
	00		 call	 DWORD PTR __imp_?SetSize@ioUITitle@@QAEXH@Z

; 449  : 		m_pUITitle->SetStyle( TS_NORMAL );

  005a1	8b 4e 3c	 mov	 ecx, DWORD PTR [esi+60]
  005a4	53		 push	 ebx
  005a5	ff 15 00 00 00
	00		 call	 DWORD PTR __imp_?SetStyle@ioUITitle@@QAEXW4TextStyle@@@Z

; 450  : 		m_pUITitle->SetText( STR(24), "");

  005ab	b8 00 00 00 00	 mov	 eax, OFFSET ??_C@_00CNPNBAHC@?$AA@
  005b0	50		 push	 eax
  005b1	53		 push	 ebx
  005b2	6a 18		 push	 24			; 00000018H

; 451  : 		m_pUITitle->SetAllColor( 0xFF6E6E6E, 0xFF000000 );

  005b4	e9 15 04 00 00	 jmp	 $LN104@SetHelpTex
$LN45@SetHelpTex:

; 452  : 	}
; 453  : 	else if(m_eType == IT_SOLDIER15)

  005b9	83 f8 1c	 cmp	 eax, 28			; 0000001cH
  005bc	75 2b		 jne	 SHORT $LN43@SetHelpTex

; 454  : 	{
; 455  : 		m_pUITitle->SetOffset( 4, 4 );

  005be	57		 push	 edi
  005bf	57		 push	 edi
  005c0	ff 15 00 00 00
	00		 call	 DWORD PTR __imp_?SetOffset@ioUITitle@@QAEXHH@Z

; 456  : 		m_pUITitle->SetSize(14);

  005c6	8b 4e 3c	 mov	 ecx, DWORD PTR [esi+60]
  005c9	6a 0e		 push	 14			; 0000000eH
  005cb	ff 15 00 00 00
	00		 call	 DWORD PTR __imp_?SetSize@ioUITitle@@QAEXH@Z

; 457  : 		m_pUITitle->SetStyle( TS_NORMAL );

  005d1	8b 4e 3c	 mov	 ecx, DWORD PTR [esi+60]
  005d4	53		 push	 ebx
  005d5	ff 15 00 00 00
	00		 call	 DWORD PTR __imp_?SetStyle@ioUITitle@@QAEXW4TextStyle@@@Z

; 458  : 		m_pUITitle->SetText( STR(25), "");

  005db	b8 00 00 00 00	 mov	 eax, OFFSET ??_C@_00CNPNBAHC@?$AA@
  005e0	50		 push	 eax
  005e1	53		 push	 ebx
  005e2	6a 19		 push	 25			; 00000019H

; 459  : 		m_pUITitle->SetAllColor( 0xFF6E6E6E, 0xFF000000 );

  005e4	e9 e5 03 00 00	 jmp	 $LN104@SetHelpTex
$LN43@SetHelpTex:

; 460  : 	}
; 461  : 	else if(m_eType == IT_SOLDIER16)

  005e9	83 f8 1d	 cmp	 eax, 29			; 0000001dH
  005ec	75 2b		 jne	 SHORT $LN41@SetHelpTex

; 462  : 	{
; 463  : 		m_pUITitle->SetOffset( 4, 4 );

  005ee	57		 push	 edi
  005ef	57		 push	 edi
  005f0	ff 15 00 00 00
	00		 call	 DWORD PTR __imp_?SetOffset@ioUITitle@@QAEXHH@Z

; 464  : 		m_pUITitle->SetSize(14);

  005f6	8b 4e 3c	 mov	 ecx, DWORD PTR [esi+60]
  005f9	6a 0e		 push	 14			; 0000000eH
  005fb	ff 15 00 00 00
	00		 call	 DWORD PTR __imp_?SetSize@ioUITitle@@QAEXH@Z

; 465  : 		m_pUITitle->SetStyle( TS_NORMAL );

  00601	8b 4e 3c	 mov	 ecx, DWORD PTR [esi+60]
  00604	53		 push	 ebx
  00605	ff 15 00 00 00
	00		 call	 DWORD PTR __imp_?SetStyle@ioUITitle@@QAEXW4TextStyle@@@Z

; 466  : 		m_pUITitle->SetText( STR(26), "");

  0060b	b8 00 00 00 00	 mov	 eax, OFFSET ??_C@_00CNPNBAHC@?$AA@
  00610	50		 push	 eax
  00611	53		 push	 ebx
  00612	6a 1a		 push	 26			; 0000001aH

; 467  : 		m_pUITitle->SetAllColor( 0xFF6E6E6E, 0xFF000000 );

  00614	e9 b5 03 00 00	 jmp	 $LN104@SetHelpTex
$LN41@SetHelpTex:

; 468  : 	}
; 469  : 	else if(m_eType == IT_SOLDIER17)

  00619	83 f8 1e	 cmp	 eax, 30			; 0000001eH
  0061c	75 2b		 jne	 SHORT $LN39@SetHelpTex

; 470  : 	{
; 471  : 		m_pUITitle->SetOffset( 4, 4 );

  0061e	57		 push	 edi
  0061f	57		 push	 edi
  00620	ff 15 00 00 00
	00		 call	 DWORD PTR __imp_?SetOffset@ioUITitle@@QAEXHH@Z

; 472  : 		m_pUITitle->SetSize(14);

  00626	8b 4e 3c	 mov	 ecx, DWORD PTR [esi+60]
  00629	6a 0e		 push	 14			; 0000000eH
  0062b	ff 15 00 00 00
	00		 call	 DWORD PTR __imp_?SetSize@ioUITitle@@QAEXH@Z

; 473  : 		m_pUITitle->SetStyle( TS_NORMAL );

  00631	8b 4e 3c	 mov	 ecx, DWORD PTR [esi+60]
  00634	53		 push	 ebx
  00635	ff 15 00 00 00
	00		 call	 DWORD PTR __imp_?SetStyle@ioUITitle@@QAEXW4TextStyle@@@Z

; 474  : 		m_pUITitle->SetText( STR(27), "");

  0063b	b8 00 00 00 00	 mov	 eax, OFFSET ??_C@_00CNPNBAHC@?$AA@
  00640	50		 push	 eax
  00641	53		 push	 ebx
  00642	6a 1b		 push	 27			; 0000001bH

; 475  : 		m_pUITitle->SetAllColor( 0xFF6E6E6E, 0xFF000000 );

  00644	e9 85 03 00 00	 jmp	 $LN104@SetHelpTex
$LN39@SetHelpTex:

; 476  : 	}
; 477  : 	else if(m_eType == IT_SOLDIER18)

  00649	83 f8 1f	 cmp	 eax, 31			; 0000001fH
  0064c	75 2b		 jne	 SHORT $LN37@SetHelpTex

; 478  : 	{
; 479  : 		m_pUITitle->SetOffset( 4, 4 );

  0064e	57		 push	 edi
  0064f	57		 push	 edi
  00650	ff 15 00 00 00
	00		 call	 DWORD PTR __imp_?SetOffset@ioUITitle@@QAEXHH@Z

; 480  : 		m_pUITitle->SetSize(14);

  00656	8b 4e 3c	 mov	 ecx, DWORD PTR [esi+60]
  00659	6a 0e		 push	 14			; 0000000eH
  0065b	ff 15 00 00 00
	00		 call	 DWORD PTR __imp_?SetSize@ioUITitle@@QAEXH@Z

; 481  : 		m_pUITitle->SetStyle( TS_NORMAL );

  00661	8b 4e 3c	 mov	 ecx, DWORD PTR [esi+60]
  00664	53		 push	 ebx
  00665	ff 15 00 00 00
	00		 call	 DWORD PTR __imp_?SetStyle@ioUITitle@@QAEXW4TextStyle@@@Z

; 482  : 		m_pUITitle->SetText( STR(28), "");

  0066b	b8 00 00 00 00	 mov	 eax, OFFSET ??_C@_00CNPNBAHC@?$AA@
  00670	50		 push	 eax
  00671	53		 push	 ebx
  00672	6a 1c		 push	 28			; 0000001cH

; 483  : 		m_pUITitle->SetAllColor( 0xFF6E6E6E, 0xFF000000 );

  00674	e9 55 03 00 00	 jmp	 $LN104@SetHelpTex
$LN37@SetHelpTex:

; 484  : 	}
; 485  : 	else if(m_eType == IT_SOLDIER19)

  00679	83 f8 20	 cmp	 eax, 32			; 00000020H
  0067c	75 2b		 jne	 SHORT $LN35@SetHelpTex

; 486  : 	{
; 487  : 		m_pUITitle->SetOffset( 4, 4 );

  0067e	57		 push	 edi
  0067f	57		 push	 edi
  00680	ff 15 00 00 00
	00		 call	 DWORD PTR __imp_?SetOffset@ioUITitle@@QAEXHH@Z

; 488  : 		m_pUITitle->SetSize(14);

  00686	8b 4e 3c	 mov	 ecx, DWORD PTR [esi+60]
  00689	6a 0e		 push	 14			; 0000000eH
  0068b	ff 15 00 00 00
	00		 call	 DWORD PTR __imp_?SetSize@ioUITitle@@QAEXH@Z

; 489  : 		m_pUITitle->SetStyle( TS_NORMAL );

  00691	8b 4e 3c	 mov	 ecx, DWORD PTR [esi+60]
  00694	53		 push	 ebx
  00695	ff 15 00 00 00
	00		 call	 DWORD PTR __imp_?SetStyle@ioUITitle@@QAEXW4TextStyle@@@Z

; 490  : 		m_pUITitle->SetText( STR(29), "");

  0069b	b8 00 00 00 00	 mov	 eax, OFFSET ??_C@_00CNPNBAHC@?$AA@
  006a0	50		 push	 eax
  006a1	53		 push	 ebx
  006a2	6a 1d		 push	 29			; 0000001dH

; 491  : 		m_pUITitle->SetAllColor( 0xFF6E6E6E, 0xFF000000 );

  006a4	e9 25 03 00 00	 jmp	 $LN104@SetHelpTex
$LN35@SetHelpTex:

; 492  : 	}
; 493  : 	else if(m_eType == IT_SOLDIER20)

  006a9	83 f8 21	 cmp	 eax, 33			; 00000021H
  006ac	75 2b		 jne	 SHORT $LN33@SetHelpTex

; 494  : 	{
; 495  : 		m_pUITitle->SetOffset( 4, 4 );

  006ae	57		 push	 edi
  006af	57		 push	 edi
  006b0	ff 15 00 00 00
	00		 call	 DWORD PTR __imp_?SetOffset@ioUITitle@@QAEXHH@Z

; 496  : 		m_pUITitle->SetSize(14);

  006b6	8b 4e 3c	 mov	 ecx, DWORD PTR [esi+60]
  006b9	6a 0e		 push	 14			; 0000000eH
  006bb	ff 15 00 00 00
	00		 call	 DWORD PTR __imp_?SetSize@ioUITitle@@QAEXH@Z

; 497  : 		m_pUITitle->SetStyle( TS_NORMAL );

  006c1	8b 4e 3c	 mov	 ecx, DWORD PTR [esi+60]
  006c4	53		 push	 ebx
  006c5	ff 15 00 00 00
	00		 call	 DWORD PTR __imp_?SetStyle@ioUITitle@@QAEXW4TextStyle@@@Z

; 498  : 		m_pUITitle->SetText( STR(30), "");

  006cb	b8 00 00 00 00	 mov	 eax, OFFSET ??_C@_00CNPNBAHC@?$AA@
  006d0	50		 push	 eax
  006d1	53		 push	 ebx
  006d2	6a 1e		 push	 30			; 0000001eH

; 499  : 		m_pUITitle->SetAllColor( 0xFF6E6E6E, 0xFF000000 );

  006d4	e9 f5 02 00 00	 jmp	 $LN104@SetHelpTex
$LN33@SetHelpTex:

; 500  : 	}
; 501  : 	else if(m_eType == IT_SOLDIER21)

  006d9	83 f8 22	 cmp	 eax, 34			; 00000022H
  006dc	75 2b		 jne	 SHORT $LN31@SetHelpTex

; 502  : 	{
; 503  : 		m_pUITitle->SetOffset( 4, 4 );

  006de	57		 push	 edi
  006df	57		 push	 edi
  006e0	ff 15 00 00 00
	00		 call	 DWORD PTR __imp_?SetOffset@ioUITitle@@QAEXHH@Z

; 504  : 		m_pUITitle->SetSize(14);

  006e6	8b 4e 3c	 mov	 ecx, DWORD PTR [esi+60]
  006e9	6a 0e		 push	 14			; 0000000eH
  006eb	ff 15 00 00 00
	00		 call	 DWORD PTR __imp_?SetSize@ioUITitle@@QAEXH@Z

; 505  : 		m_pUITitle->SetStyle( TS_NORMAL );

  006f1	8b 4e 3c	 mov	 ecx, DWORD PTR [esi+60]
  006f4	53		 push	 ebx
  006f5	ff 15 00 00 00
	00		 call	 DWORD PTR __imp_?SetStyle@ioUITitle@@QAEXW4TextStyle@@@Z

; 506  : 		m_pUITitle->SetText( STR(31), "");

  006fb	b8 00 00 00 00	 mov	 eax, OFFSET ??_C@_00CNPNBAHC@?$AA@
  00700	50		 push	 eax
  00701	53		 push	 ebx
  00702	6a 1f		 push	 31			; 0000001fH

; 507  : 		m_pUITitle->SetAllColor( 0xFF6E6E6E, 0xFF000000 );

  00704	e9 c5 02 00 00	 jmp	 $LN104@SetHelpTex
$LN31@SetHelpTex:

; 508  : 	}
; 509  : 	else if(m_eType == IT_SOLDIER22)

  00709	83 f8 23	 cmp	 eax, 35			; 00000023H
  0070c	75 2b		 jne	 SHORT $LN29@SetHelpTex

; 510  : 	{
; 511  : 		m_pUITitle->SetOffset( 4, 4 );

  0070e	57		 push	 edi
  0070f	57		 push	 edi
  00710	ff 15 00 00 00
	00		 call	 DWORD PTR __imp_?SetOffset@ioUITitle@@QAEXHH@Z

; 512  : 		m_pUITitle->SetSize(14);

  00716	8b 4e 3c	 mov	 ecx, DWORD PTR [esi+60]
  00719	6a 0e		 push	 14			; 0000000eH
  0071b	ff 15 00 00 00
	00		 call	 DWORD PTR __imp_?SetSize@ioUITitle@@QAEXH@Z

; 513  : 		m_pUITitle->SetStyle( TS_NORMAL );

  00721	8b 4e 3c	 mov	 ecx, DWORD PTR [esi+60]
  00724	53		 push	 ebx
  00725	ff 15 00 00 00
	00		 call	 DWORD PTR __imp_?SetStyle@ioUITitle@@QAEXW4TextStyle@@@Z

; 514  : 		m_pUITitle->SetText( STR(32), "");

  0072b	b8 00 00 00 00	 mov	 eax, OFFSET ??_C@_00CNPNBAHC@?$AA@
  00730	50		 push	 eax
  00731	53		 push	 ebx
  00732	6a 20		 push	 32			; 00000020H

; 515  : 		m_pUITitle->SetAllColor( 0xFF6E6E6E, 0xFF000000 );

  00734	e9 95 02 00 00	 jmp	 $LN104@SetHelpTex
$LN29@SetHelpTex:

; 516  : 	}
; 517  : 	else if(m_eType == IT_SOLDIER23)

  00739	83 f8 24	 cmp	 eax, 36			; 00000024H
  0073c	75 2b		 jne	 SHORT $LN27@SetHelpTex

; 518  : 	{
; 519  : 		m_pUITitle->SetOffset( 4, 4 );

  0073e	57		 push	 edi
  0073f	57		 push	 edi
  00740	ff 15 00 00 00
	00		 call	 DWORD PTR __imp_?SetOffset@ioUITitle@@QAEXHH@Z

; 520  : 		m_pUITitle->SetSize(14);

  00746	8b 4e 3c	 mov	 ecx, DWORD PTR [esi+60]
  00749	6a 0e		 push	 14			; 0000000eH
  0074b	ff 15 00 00 00
	00		 call	 DWORD PTR __imp_?SetSize@ioUITitle@@QAEXH@Z

; 521  : 		m_pUITitle->SetStyle( TS_NORMAL );

  00751	8b 4e 3c	 mov	 ecx, DWORD PTR [esi+60]
  00754	53		 push	 ebx
  00755	ff 15 00 00 00
	00		 call	 DWORD PTR __imp_?SetStyle@ioUITitle@@QAEXW4TextStyle@@@Z

; 522  : 		m_pUITitle->SetText( STR(33), "");

  0075b	b8 00 00 00 00	 mov	 eax, OFFSET ??_C@_00CNPNBAHC@?$AA@
  00760	50		 push	 eax
  00761	53		 push	 ebx
  00762	6a 21		 push	 33			; 00000021H

; 523  : 		m_pUITitle->SetAllColor( 0xFF6E6E6E, 0xFF000000 );

  00764	e9 65 02 00 00	 jmp	 $LN104@SetHelpTex
$LN27@SetHelpTex:

; 524  : 	}
; 525  : 	else if(m_eType == IT_SOLDIER24)

  00769	83 f8 25	 cmp	 eax, 37			; 00000025H
  0076c	75 2b		 jne	 SHORT $LN25@SetHelpTex

; 526  : 	{
; 527  : 		m_pUITitle->SetOffset( 4, 4 );

  0076e	57		 push	 edi
  0076f	57		 push	 edi
  00770	ff 15 00 00 00
	00		 call	 DWORD PTR __imp_?SetOffset@ioUITitle@@QAEXHH@Z

; 528  : 		m_pUITitle->SetSize(14);

  00776	8b 4e 3c	 mov	 ecx, DWORD PTR [esi+60]
  00779	6a 0e		 push	 14			; 0000000eH
  0077b	ff 15 00 00 00
	00		 call	 DWORD PTR __imp_?SetSize@ioUITitle@@QAEXH@Z

; 529  : 		m_pUITitle->SetStyle( TS_NORMAL );

  00781	8b 4e 3c	 mov	 ecx, DWORD PTR [esi+60]
  00784	53		 push	 ebx
  00785	ff 15 00 00 00
	00		 call	 DWORD PTR __imp_?SetStyle@ioUITitle@@QAEXW4TextStyle@@@Z

; 530  : 		m_pUITitle->SetText( STR(34), "");

  0078b	b8 00 00 00 00	 mov	 eax, OFFSET ??_C@_00CNPNBAHC@?$AA@
  00790	50		 push	 eax
  00791	53		 push	 ebx
  00792	6a 22		 push	 34			; 00000022H

; 531  : 		m_pUITitle->SetAllColor( 0xFF6E6E6E, 0xFF000000 );

  00794	e9 35 02 00 00	 jmp	 $LN104@SetHelpTex
$LN25@SetHelpTex:

; 532  : 	}
; 533  : 	else if(m_eType == IT_SOLDIER25)

  00799	83 f8 26	 cmp	 eax, 38			; 00000026H
  0079c	75 2b		 jne	 SHORT $LN23@SetHelpTex

; 534  : 	{
; 535  : 		m_pUITitle->SetOffset( 4, 4 );

  0079e	57		 push	 edi
  0079f	57		 push	 edi
  007a0	ff 15 00 00 00
	00		 call	 DWORD PTR __imp_?SetOffset@ioUITitle@@QAEXHH@Z

; 536  : 		m_pUITitle->SetSize(14);

  007a6	8b 4e 3c	 mov	 ecx, DWORD PTR [esi+60]
  007a9	6a 0e		 push	 14			; 0000000eH
  007ab	ff 15 00 00 00
	00		 call	 DWORD PTR __imp_?SetSize@ioUITitle@@QAEXH@Z

; 537  : 		m_pUITitle->SetStyle( TS_NORMAL );

  007b1	8b 4e 3c	 mov	 ecx, DWORD PTR [esi+60]
  007b4	53		 push	 ebx
  007b5	ff 15 00 00 00
	00		 call	 DWORD PTR __imp_?SetStyle@ioUITitle@@QAEXW4TextStyle@@@Z

; 538  : 		m_pUITitle->SetText( STR(35), "");

  007bb	b8 00 00 00 00	 mov	 eax, OFFSET ??_C@_00CNPNBAHC@?$AA@
  007c0	50		 push	 eax
  007c1	53		 push	 ebx
  007c2	6a 23		 push	 35			; 00000023H

; 539  : 		m_pUITitle->SetAllColor( 0xFF6E6E6E, 0xFF000000 );

  007c4	e9 05 02 00 00	 jmp	 $LN104@SetHelpTex
$LN23@SetHelpTex:

; 540  : 	}
; 541  : 	else if(m_eType == IT_SOLDIER26)

  007c9	83 f8 27	 cmp	 eax, 39			; 00000027H
  007cc	75 2b		 jne	 SHORT $LN21@SetHelpTex

; 542  : 	{
; 543  : 		m_pUITitle->SetOffset( 4, 4 );

  007ce	57		 push	 edi
  007cf	57		 push	 edi
  007d0	ff 15 00 00 00
	00		 call	 DWORD PTR __imp_?SetOffset@ioUITitle@@QAEXHH@Z

; 544  : 		m_pUITitle->SetSize(14);

  007d6	8b 4e 3c	 mov	 ecx, DWORD PTR [esi+60]
  007d9	6a 0e		 push	 14			; 0000000eH
  007db	ff 15 00 00 00
	00		 call	 DWORD PTR __imp_?SetSize@ioUITitle@@QAEXH@Z

; 545  : 		m_pUITitle->SetStyle( TS_NORMAL );

  007e1	8b 4e 3c	 mov	 ecx, DWORD PTR [esi+60]
  007e4	53		 push	 ebx
  007e5	ff 15 00 00 00
	00		 call	 DWORD PTR __imp_?SetStyle@ioUITitle@@QAEXW4TextStyle@@@Z

; 546  : 		m_pUITitle->SetText( STR(36), "");

  007eb	b8 00 00 00 00	 mov	 eax, OFFSET ??_C@_00CNPNBAHC@?$AA@
  007f0	50		 push	 eax
  007f1	53		 push	 ebx
  007f2	6a 24		 push	 36			; 00000024H

; 547  : 		m_pUITitle->SetAllColor( 0xFF6E6E6E, 0xFF000000 );

  007f4	e9 d5 01 00 00	 jmp	 $LN104@SetHelpTex
$LN21@SetHelpTex:

; 548  : 	}
; 549  : 	else if(m_eType == IT_SOLDIER27)

  007f9	83 f8 28	 cmp	 eax, 40			; 00000028H
  007fc	75 2b		 jne	 SHORT $LN19@SetHelpTex

; 550  : 	{
; 551  : 		m_pUITitle->SetOffset( 4, 4 );

  007fe	57		 push	 edi
  007ff	57		 push	 edi
  00800	ff 15 00 00 00
	00		 call	 DWORD PTR __imp_?SetOffset@ioUITitle@@QAEXHH@Z

; 552  : 		m_pUITitle->SetSize(14);

  00806	8b 4e 3c	 mov	 ecx, DWORD PTR [esi+60]
  00809	6a 0e		 push	 14			; 0000000eH
  0080b	ff 15 00 00 00
	00		 call	 DWORD PTR __imp_?SetSize@ioUITitle@@QAEXH@Z

; 553  : 		m_pUITitle->SetStyle( TS_NORMAL );

  00811	8b 4e 3c	 mov	 ecx, DWORD PTR [esi+60]
  00814	53		 push	 ebx
  00815	ff 15 00 00 00
	00		 call	 DWORD PTR __imp_?SetStyle@ioUITitle@@QAEXW4TextStyle@@@Z

; 554  : 		m_pUITitle->SetText( STR(37), "");

  0081b	b8 00 00 00 00	 mov	 eax, OFFSET ??_C@_00CNPNBAHC@?$AA@
  00820	50		 push	 eax
  00821	53		 push	 ebx
  00822	6a 25		 push	 37			; 00000025H

; 555  : 		m_pUITitle->SetAllColor( 0xFF6E6E6E, 0xFF000000 );

  00824	e9 a5 01 00 00	 jmp	 $LN104@SetHelpTex
$LN19@SetHelpTex:

; 556  : 	}
; 557  : 	else if(m_eType == IT_SOLDIER28)

  00829	83 f8 29	 cmp	 eax, 41			; 00000029H
  0082c	75 2b		 jne	 SHORT $LN17@SetHelpTex

; 558  : 	{
; 559  : 		m_pUITitle->SetOffset( 4, 4 );

  0082e	57		 push	 edi
  0082f	57		 push	 edi
  00830	ff 15 00 00 00
	00		 call	 DWORD PTR __imp_?SetOffset@ioUITitle@@QAEXHH@Z

; 560  : 		m_pUITitle->SetSize(14);

  00836	8b 4e 3c	 mov	 ecx, DWORD PTR [esi+60]
  00839	6a 0e		 push	 14			; 0000000eH
  0083b	ff 15 00 00 00
	00		 call	 DWORD PTR __imp_?SetSize@ioUITitle@@QAEXH@Z

; 561  : 		m_pUITitle->SetStyle( TS_NORMAL );

  00841	8b 4e 3c	 mov	 ecx, DWORD PTR [esi+60]
  00844	53		 push	 ebx
  00845	ff 15 00 00 00
	00		 call	 DWORD PTR __imp_?SetStyle@ioUITitle@@QAEXW4TextStyle@@@Z

; 562  : 		m_pUITitle->SetText( STR(38), "");

  0084b	b8 00 00 00 00	 mov	 eax, OFFSET ??_C@_00CNPNBAHC@?$AA@
  00850	50		 push	 eax
  00851	53		 push	 ebx
  00852	6a 26		 push	 38			; 00000026H

; 563  : 		m_pUITitle->SetAllColor( 0xFF6E6E6E, 0xFF000000 );

  00854	e9 75 01 00 00	 jmp	 $LN104@SetHelpTex
$LN17@SetHelpTex:

; 564  : 	}
; 565  : 	else if(m_eType == IT_SOLDIER29)

  00859	83 f8 2a	 cmp	 eax, 42			; 0000002aH
  0085c	75 2b		 jne	 SHORT $LN15@SetHelpTex

; 566  : 	{
; 567  : 		m_pUITitle->SetOffset( 4, 4 );

  0085e	57		 push	 edi
  0085f	57		 push	 edi
  00860	ff 15 00 00 00
	00		 call	 DWORD PTR __imp_?SetOffset@ioUITitle@@QAEXHH@Z

; 568  : 		m_pUITitle->SetSize(14);

  00866	8b 4e 3c	 mov	 ecx, DWORD PTR [esi+60]
  00869	6a 0e		 push	 14			; 0000000eH
  0086b	ff 15 00 00 00
	00		 call	 DWORD PTR __imp_?SetSize@ioUITitle@@QAEXH@Z

; 569  : 		m_pUITitle->SetStyle( TS_NORMAL );

  00871	8b 4e 3c	 mov	 ecx, DWORD PTR [esi+60]
  00874	53		 push	 ebx
  00875	ff 15 00 00 00
	00		 call	 DWORD PTR __imp_?SetStyle@ioUITitle@@QAEXW4TextStyle@@@Z

; 570  : 		m_pUITitle->SetText( STR(39), "");

  0087b	b8 00 00 00 00	 mov	 eax, OFFSET ??_C@_00CNPNBAHC@?$AA@
  00880	50		 push	 eax
  00881	53		 push	 ebx
  00882	6a 27		 push	 39			; 00000027H

; 571  : 		m_pUITitle->SetAllColor( 0xFF6E6E6E, 0xFF000000 );

  00884	e9 45 01 00 00	 jmp	 $LN104@SetHelpTex
$LN15@SetHelpTex:

; 572  : 	}
; 573  : 	else if(m_eType == IT_SOLDIER30)

  00889	83 f8 2b	 cmp	 eax, 43			; 0000002bH
  0088c	75 2b		 jne	 SHORT $LN13@SetHelpTex

; 574  : 	{
; 575  : 		m_pUITitle->SetOffset( 4, 4 );

  0088e	57		 push	 edi
  0088f	57		 push	 edi
  00890	ff 15 00 00 00
	00		 call	 DWORD PTR __imp_?SetOffset@ioUITitle@@QAEXHH@Z

; 576  : 		m_pUITitle->SetSize(14);

  00896	8b 4e 3c	 mov	 ecx, DWORD PTR [esi+60]
  00899	6a 0e		 push	 14			; 0000000eH
  0089b	ff 15 00 00 00
	00		 call	 DWORD PTR __imp_?SetSize@ioUITitle@@QAEXH@Z

; 577  : 		m_pUITitle->SetStyle( TS_NORMAL );

  008a1	8b 4e 3c	 mov	 ecx, DWORD PTR [esi+60]
  008a4	53		 push	 ebx
  008a5	ff 15 00 00 00
	00		 call	 DWORD PTR __imp_?SetStyle@ioUITitle@@QAEXW4TextStyle@@@Z

; 578  : 		m_pUITitle->SetText( STR(40), "");

  008ab	b8 00 00 00 00	 mov	 eax, OFFSET ??_C@_00CNPNBAHC@?$AA@
  008b0	50		 push	 eax
  008b1	53		 push	 ebx
  008b2	6a 28		 push	 40			; 00000028H

; 579  : 		m_pUITitle->SetAllColor( 0xFF6E6E6E, 0xFF000000 );

  008b4	e9 15 01 00 00	 jmp	 $LN104@SetHelpTex
$LN13@SetHelpTex:

; 580  : 	}
; 581  : 	else if(m_eType == IT_SOLDIER31)

  008b9	83 f8 2c	 cmp	 eax, 44			; 0000002cH
  008bc	75 2b		 jne	 SHORT $LN11@SetHelpTex

; 582  : 	{
; 583  : 		m_pUITitle->SetOffset( 4, 4 );

  008be	57		 push	 edi
  008bf	57		 push	 edi
  008c0	ff 15 00 00 00
	00		 call	 DWORD PTR __imp_?SetOffset@ioUITitle@@QAEXHH@Z

; 584  : 		m_pUITitle->SetSize(14);

  008c6	8b 4e 3c	 mov	 ecx, DWORD PTR [esi+60]
  008c9	6a 0e		 push	 14			; 0000000eH
  008cb	ff 15 00 00 00
	00		 call	 DWORD PTR __imp_?SetSize@ioUITitle@@QAEXH@Z

; 585  : 		m_pUITitle->SetStyle( TS_NORMAL );

  008d1	8b 4e 3c	 mov	 ecx, DWORD PTR [esi+60]
  008d4	53		 push	 ebx
  008d5	ff 15 00 00 00
	00		 call	 DWORD PTR __imp_?SetStyle@ioUITitle@@QAEXW4TextStyle@@@Z

; 586  : 		m_pUITitle->SetText( STR(41), "");

  008db	b8 00 00 00 00	 mov	 eax, OFFSET ??_C@_00CNPNBAHC@?$AA@
  008e0	50		 push	 eax
  008e1	53		 push	 ebx
  008e2	6a 29		 push	 41			; 00000029H

; 587  : 		m_pUITitle->SetAllColor( 0xFF6E6E6E, 0xFF000000 );

  008e4	e9 e5 00 00 00	 jmp	 $LN104@SetHelpTex
$LN11@SetHelpTex:

; 588  : 	}
; 589  : 	else if(m_eType == IT_SOLDIER32)

  008e9	83 f8 2d	 cmp	 eax, 45			; 0000002dH
  008ec	75 2b		 jne	 SHORT $LN9@SetHelpTex

; 590  : 	{
; 591  : 		m_pUITitle->SetOffset( 4, 4 );

  008ee	57		 push	 edi
  008ef	57		 push	 edi
  008f0	ff 15 00 00 00
	00		 call	 DWORD PTR __imp_?SetOffset@ioUITitle@@QAEXHH@Z

; 592  : 		m_pUITitle->SetSize(14);

  008f6	8b 4e 3c	 mov	 ecx, DWORD PTR [esi+60]
  008f9	6a 0e		 push	 14			; 0000000eH
  008fb	ff 15 00 00 00
	00		 call	 DWORD PTR __imp_?SetSize@ioUITitle@@QAEXH@Z

; 593  : 		m_pUITitle->SetStyle( TS_NORMAL );

  00901	8b 4e 3c	 mov	 ecx, DWORD PTR [esi+60]
  00904	53		 push	 ebx
  00905	ff 15 00 00 00
	00		 call	 DWORD PTR __imp_?SetStyle@ioUITitle@@QAEXW4TextStyle@@@Z

; 594  : 		m_pUITitle->SetText( STR(42), "");

  0090b	b8 00 00 00 00	 mov	 eax, OFFSET ??_C@_00CNPNBAHC@?$AA@
  00910	50		 push	 eax
  00911	53		 push	 ebx
  00912	6a 2a		 push	 42			; 0000002aH

; 595  : 		m_pUITitle->SetAllColor( 0xFF6E6E6E, 0xFF000000 );

  00914	e9 b5 00 00 00	 jmp	 $LN104@SetHelpTex
$LN9@SetHelpTex:

; 596  : 	}
; 597  : 	else if(m_eType == IT_SOLDIER33)

  00919	83 f8 2e	 cmp	 eax, 46			; 0000002eH
  0091c	75 2b		 jne	 SHORT $LN7@SetHelpTex

; 598  : 	{
; 599  : 		m_pUITitle->SetOffset( 4, 4 );

  0091e	57		 push	 edi
  0091f	57		 push	 edi
  00920	ff 15 00 00 00
	00		 call	 DWORD PTR __imp_?SetOffset@ioUITitle@@QAEXHH@Z

; 600  : 		m_pUITitle->SetSize(14);

  00926	8b 4e 3c	 mov	 ecx, DWORD PTR [esi+60]
  00929	6a 0e		 push	 14			; 0000000eH
  0092b	ff 15 00 00 00
	00		 call	 DWORD PTR __imp_?SetSize@ioUITitle@@QAEXH@Z

; 601  : 		m_pUITitle->SetStyle( TS_NORMAL );

  00931	8b 4e 3c	 mov	 ecx, DWORD PTR [esi+60]
  00934	53		 push	 ebx
  00935	ff 15 00 00 00
	00		 call	 DWORD PTR __imp_?SetStyle@ioUITitle@@QAEXW4TextStyle@@@Z

; 602  : 		m_pUITitle->SetText( STR(43), "");

  0093b	b8 00 00 00 00	 mov	 eax, OFFSET ??_C@_00CNPNBAHC@?$AA@
  00940	50		 push	 eax
  00941	53		 push	 ebx
  00942	6a 2b		 push	 43			; 0000002bH

; 603  : 		m_pUITitle->SetAllColor( 0xFF6E6E6E, 0xFF000000 );

  00944	e9 85 00 00 00	 jmp	 $LN104@SetHelpTex
$LN7@SetHelpTex:

; 604  : 	}
; 605  : 	else if(m_eType == IT_SOLDIER34)

  00949	83 f8 2f	 cmp	 eax, 47			; 0000002fH
  0094c	75 28		 jne	 SHORT $LN5@SetHelpTex

; 606  : 	{
; 607  : 		m_pUITitle->SetOffset( 4, 4 );

  0094e	57		 push	 edi
  0094f	57		 push	 edi
  00950	ff 15 00 00 00
	00		 call	 DWORD PTR __imp_?SetOffset@ioUITitle@@QAEXHH@Z

; 608  : 		m_pUITitle->SetSize(14);

  00956	8b 4e 3c	 mov	 ecx, DWORD PTR [esi+60]
  00959	6a 0e		 push	 14			; 0000000eH
  0095b	ff 15 00 00 00
	00		 call	 DWORD PTR __imp_?SetSize@ioUITitle@@QAEXH@Z

; 609  : 		m_pUITitle->SetStyle( TS_NORMAL );

  00961	8b 4e 3c	 mov	 ecx, DWORD PTR [esi+60]
  00964	53		 push	 ebx
  00965	ff 15 00 00 00
	00		 call	 DWORD PTR __imp_?SetStyle@ioUITitle@@QAEXW4TextStyle@@@Z

; 610  : 		m_pUITitle->SetText( STR(44), "");

  0096b	b8 00 00 00 00	 mov	 eax, OFFSET ??_C@_00CNPNBAHC@?$AA@
  00970	50		 push	 eax
  00971	53		 push	 ebx
  00972	6a 2c		 push	 44			; 0000002cH

; 611  : 		m_pUITitle->SetAllColor( 0xFF6E6E6E, 0xFF000000 );

  00974	eb 58		 jmp	 SHORT $LN104@SetHelpTex
$LN5@SetHelpTex:

; 612  : 	}
; 613  : 	else if(m_eType == IT_SOLDIER35)

  00976	83 f8 30	 cmp	 eax, 48			; 00000030H
  00979	75 28		 jne	 SHORT $LN3@SetHelpTex

; 614  : 	{
; 615  : 		m_pUITitle->SetOffset( 4, 4 );

  0097b	57		 push	 edi
  0097c	57		 push	 edi
  0097d	ff 15 00 00 00
	00		 call	 DWORD PTR __imp_?SetOffset@ioUITitle@@QAEXHH@Z

; 616  : 		m_pUITitle->SetSize(14);

  00983	8b 4e 3c	 mov	 ecx, DWORD PTR [esi+60]
  00986	6a 0e		 push	 14			; 0000000eH
  00988	ff 15 00 00 00
	00		 call	 DWORD PTR __imp_?SetSize@ioUITitle@@QAEXH@Z

; 617  : 		m_pUITitle->SetStyle( TS_NORMAL );

  0098e	8b 4e 3c	 mov	 ecx, DWORD PTR [esi+60]
  00991	53		 push	 ebx
  00992	ff 15 00 00 00
	00		 call	 DWORD PTR __imp_?SetStyle@ioUITitle@@QAEXW4TextStyle@@@Z

; 618  : 		m_pUITitle->SetText( STR(45), "");

  00998	b8 00 00 00 00	 mov	 eax, OFFSET ??_C@_00CNPNBAHC@?$AA@
  0099d	50		 push	 eax
  0099e	53		 push	 ebx
  0099f	6a 2d		 push	 45			; 0000002dH

; 619  : 		m_pUITitle->SetAllColor( 0xFF6E6E6E, 0xFF000000 );

  009a1	eb 2b		 jmp	 SHORT $LN104@SetHelpTex
$LN3@SetHelpTex:

; 620  : 	}
; 621  : 	else if(m_eType == IT_SOLDIER36)

  009a3	83 f8 31	 cmp	 eax, 49			; 00000031H
  009a6	75 57		 jne	 SHORT $LN103@SetHelpTex

; 622  : 	{
; 623  : 		m_pUITitle->SetOffset( 4, 4 );

  009a8	57		 push	 edi
  009a9	57		 push	 edi
  009aa	ff 15 00 00 00
	00		 call	 DWORD PTR __imp_?SetOffset@ioUITitle@@QAEXHH@Z

; 624  : 		m_pUITitle->SetSize(14);

  009b0	8b 4e 3c	 mov	 ecx, DWORD PTR [esi+60]
  009b3	6a 0e		 push	 14			; 0000000eH
  009b5	ff 15 00 00 00
	00		 call	 DWORD PTR __imp_?SetSize@ioUITitle@@QAEXH@Z

; 625  : 		m_pUITitle->SetStyle( TS_NORMAL );

  009bb	8b 4e 3c	 mov	 ecx, DWORD PTR [esi+60]
  009be	53		 push	 ebx
  009bf	ff 15 00 00 00
	00		 call	 DWORD PTR __imp_?SetStyle@ioUITitle@@QAEXW4TextStyle@@@Z

; 626  : 		m_pUITitle->SetText( STR(46), "");

  009c5	b8 00 00 00 00	 mov	 eax, OFFSET ??_C@_00CNPNBAHC@?$AA@
  009ca	50		 push	 eax
  009cb	53		 push	 ebx
  009cc	6a 2e		 push	 46			; 0000002eH
$LN104@SetHelpTex:
  009ce	50		 push	 eax
  009cf	68 00 00 00 00	 push	 OFFSET ??_C@_0CC@KNMOMGJF@SettingJoyKeyItemWnd?3?3SetHelpTex@
  009d4	ff 15 00 00 00
	00		 call	 DWORD PTR __imp_?GetSingleton@ioStringManager@@SAAAV1@XZ
  009da	8b c8		 mov	 ecx, eax
  009dc	ff 15 00 00 00
	00		 call	 DWORD PTR __imp_?GetString@ioStringManager@@QAEPADPBD0HW4FileNamePrefix@1@@Z
  009e2	50		 push	 eax
$LN106@SetHelpTex:
  009e3	8b 4e 3c	 mov	 ecx, DWORD PTR [esi+60]
  009e6	ff 15 00 00 00
	00		 call	 DWORD PTR __imp_?SetText@ioUITitle@@QAEXPBD0@Z

; 627  : 		m_pUITitle->SetAllColor( 0xFF6E6E6E, 0xFF000000 );

  009ec	68 00 00 00 ff	 push	 -16777216		; ff000000H
  009f1	68 6e 6e 6e ff	 push	 -9539986		; ff6e6e6eH
$LN105@SetHelpTex:
  009f6	8b 4e 3c	 mov	 ecx, DWORD PTR [esi+60]
  009f9	ff 15 00 00 00
	00		 call	 DWORD PTR __imp_?SetAllColor@ioUITitle@@QAEXKK@Z
$LN103@SetHelpTex:
  009ff	5f		 pop	 edi
$LN1@SetHelpTex:
  00a00	5e		 pop	 esi
  00a01	5b		 pop	 ebx

; 628  : 	}
; 629  : }

  00a02	c3		 ret	 0
?SetHelpText@SettingJoyKeyItemWnd@@IAEXXZ ENDP		; SettingJoyKeyItemWnd::SetHelpText
_TEXT	ENDS
EXTRN	__imp_?GetParent@ioWnd@@QAEPAV1@XZ:PROC
EXTRN	__imp_?GetID@ioWnd@@QBEKXZ:PROC
; Function compile flags: /Ogsp
;	COMDAT ?iwm_command@SettingJoyKeyItemWnd@@MAEXPAVioWnd@@HK@Z
_TEXT	SEGMENT
_pWnd$ = 8						; size = 4
_cmd$ = 12						; size = 4
_param$ = 16						; size = 4
?iwm_command@SettingJoyKeyItemWnd@@MAEXPAVioWnd@@HK@Z PROC ; SettingJoyKeyItemWnd::iwm_command, COMDAT
; _this$ = ecx

; 632  : {

  00000	55		 push	 ebp
  00001	8b ec		 mov	 ebp, esp
  00003	57		 push	 edi
  00004	8b f9		 mov	 edi, ecx

; 633  : 	DWORD dwID = pWnd->GetID();

  00006	8b 4d 08	 mov	 ecx, DWORD PTR _pWnd$[ebp]
  00009	ff 15 00 00 00
	00		 call	 DWORD PTR __imp_?GetID@ioWnd@@QBEKXZ

; 634  : 
; 635  : 	switch( dwID )

  0000f	48		 dec	 eax
  00010	83 f8 02	 cmp	 eax, 2
  00013	77 4e		 ja	 SHORT $LN1@iwm_comman

; 636  : 	{
; 637  : 	case ID_BIG_BTN:
; 638  : 	case ID_SMALL_FIRST_BTN:
; 639  : 	case ID_SMALL_SECOND_BTN:
; 640  : 		if( cmd == IOBN_BTNUP )

  00015	83 7d 0c 11	 cmp	 DWORD PTR _cmd$[ebp], 17 ; 00000011H
  00019	75 48		 jne	 SHORT $LN1@iwm_comman

; 641  : 		{
; 642  : 			if( GetParent() )

  0001b	8b cf		 mov	 ecx, edi
  0001d	ff 15 00 00 00
	00		 call	 DWORD PTR __imp_?GetParent@ioWnd@@QAEPAV1@XZ
  00023	85 c0		 test	 eax, eax
  00025	74 3c		 je	 SHORT $LN1@iwm_comman

; 643  : 			{
; 644  : 				SettingJoyBtn *pBtn = dynamic_cast<SettingJoyBtn*> (pWnd);

  00027	56		 push	 esi
  00028	6a 00		 push	 0
  0002a	68 00 00 00 00	 push	 OFFSET ??_R0?AVSettingJoyBtn@@@8
  0002f	68 00 00 00 00	 push	 OFFSET ??_R0?AVioWnd@@@8
  00034	6a 00		 push	 0
  00036	ff 75 08	 push	 DWORD PTR _pWnd$[ebp]
  00039	e8 00 00 00 00	 call	 ___RTDynamicCast
  0003e	8b f0		 mov	 esi, eax
  00040	83 c4 14	 add	 esp, 20			; 00000014H

; 645  : 				if(pBtn)

  00043	85 f6		 test	 esi, esi
  00045	74 1b		 je	 SHORT $LN11@iwm_comman

; 646  : 				{
; 647  : 					GetParent()->iwm_command( this , cmd, pBtn->GetKeyType());

  00047	8b cf		 mov	 ecx, edi
  00049	ff 15 00 00 00
	00		 call	 DWORD PTR __imp_?GetParent@ioWnd@@QAEPAV1@XZ
  0004f	ff b6 fc 01 00
	00		 push	 DWORD PTR [esi+508]
  00055	8b 10		 mov	 edx, DWORD PTR [eax]
  00057	6a 11		 push	 17			; 00000011H
  00059	57		 push	 edi
  0005a	8b c8		 mov	 ecx, eax
  0005c	ff 92 8c 00 00
	00		 call	 DWORD PTR [edx+140]
$LN11@iwm_comman:
  00062	5e		 pop	 esi
$LN1@iwm_comman:
  00063	5f		 pop	 edi

; 648  : 				}
; 649  : 			}
; 650  : 		}
; 651  : 		break;
; 652  : 	}
; 653  : }

  00064	5d		 pop	 ebp
  00065	c2 0c 00	 ret	 12			; 0000000cH
?iwm_command@SettingJoyKeyItemWnd@@MAEXPAVioWnd@@HK@Z ENDP ; SettingJoyKeyItemWnd::iwm_command
_TEXT	ENDS
EXTRN	__imp_?SetChildActive@ioWnd@@QAEXK@Z:PROC
; Function compile flags: /Ogsp
;	COMDAT ?SetActive@SettingJoyKeyItemWnd@@UAEXXZ
_TEXT	SEGMENT
?SetActive@SettingJoyKeyItemWnd@@UAEXXZ PROC		; SettingJoyKeyItemWnd::SetActive, COMDAT
; _this$ = ecx

; 656  : {

  00000	56		 push	 esi

; 657  : 	m_dwStyle &= ~IWS_INACTIVE;
; 658  : 
; 659  : 	SetChildActive(ID_SMALL_FIRST_BTN);

  00001	8b 35 00 00 00
	00		 mov	 esi, DWORD PTR __imp_?SetChildActive@ioWnd@@QAEXK@Z
  00007	57		 push	 edi
  00008	8b f9		 mov	 edi, ecx
  0000a	83 67 18 fd	 and	 DWORD PTR [edi+24], -3	; fffffffdH
  0000e	6a 01		 push	 1
  00010	ff d6		 call	 esi

; 660  : 	SetChildActive(ID_SMALL_SECOND_BTN);

  00012	6a 02		 push	 2
  00014	8b cf		 mov	 ecx, edi
  00016	ff d6		 call	 esi

; 661  : 	SetChildActive(ID_BIG_BTN);

  00018	6a 03		 push	 3
  0001a	8b cf		 mov	 ecx, edi
  0001c	ff d6		 call	 esi
  0001e	5f		 pop	 edi
  0001f	5e		 pop	 esi

; 662  : }

  00020	c3		 ret	 0
?SetActive@SettingJoyKeyItemWnd@@UAEXXZ ENDP		; SettingJoyKeyItemWnd::SetActive
_TEXT	ENDS
EXTRN	__imp_?SetChildInActive@ioWnd@@QAEXK@Z:PROC
; Function compile flags: /Ogsp
;	COMDAT ?SetInActive@SettingJoyKeyItemWnd@@UAEXXZ
_TEXT	SEGMENT
?SetInActive@SettingJoyKeyItemWnd@@UAEXXZ PROC		; SettingJoyKeyItemWnd::SetInActive, COMDAT
; _this$ = ecx

; 665  : {

  00000	56		 push	 esi

; 666  : 	m_dwStyle |= IWS_INACTIVE;
; 667  : 
; 668  : 	SetChildInActive(ID_SMALL_FIRST_BTN);

  00001	8b 35 00 00 00
	00		 mov	 esi, DWORD PTR __imp_?SetChildInActive@ioWnd@@QAEXK@Z
  00007	57		 push	 edi
  00008	8b f9		 mov	 edi, ecx
  0000a	83 4f 18 02	 or	 DWORD PTR [edi+24], 2
  0000e	6a 01		 push	 1
  00010	ff d6		 call	 esi

; 669  : 	SetChildInActive(ID_SMALL_SECOND_BTN);

  00012	6a 02		 push	 2
  00014	8b cf		 mov	 ecx, edi
  00016	ff d6		 call	 esi

; 670  : 	SetChildInActive(ID_BIG_BTN);

  00018	6a 03		 push	 3
  0001a	8b cf		 mov	 ecx, edi
  0001c	ff d6		 call	 esi
  0001e	5f		 pop	 edi
  0001f	5e		 pop	 esi

; 671  : }

  00020	c3		 ret	 0
?SetInActive@SettingJoyKeyItemWnd@@UAEXXZ ENDP		; SettingJoyKeyItemWnd::SetInActive
_TEXT	ENDS
PUBLIC	?iwm_hide@GameOptionSettingJoyKeyTab@@UAEXXZ	; GameOptionSettingJoyKeyTab::iwm_hide
; Function compile flags: /Ogsp
;	COMDAT ?iwm_hide@GameOptionSettingJoyKeyTab@@UAEXXZ
_TEXT	SEGMENT
?iwm_hide@GameOptionSettingJoyKeyTab@@UAEXXZ PROC	; GameOptionSettingJoyKeyTab::iwm_hide, COMDAT
; _this$ = ecx

; 736  : 	m_eSelectKeyType = CJoyKeyInfo::JTA_NONE;

  00000	83 89 28 02 00
	00 ff		 or	 DWORD PTR [ecx+552], -1

; 737  : }

  00007	c3		 ret	 0
?iwm_hide@GameOptionSettingJoyKeyTab@@UAEXXZ ENDP	; GameOptionSettingJoyKeyTab::iwm_hide
_TEXT	ENDS
PUBLIC	?iwm_wheel@GameOptionSettingJoyKeyTab@@UAEXH@Z	; GameOptionSettingJoyKeyTab::iwm_wheel
EXTRN	__imp_?iwm_wheel@ioWnd@@UAEXH@Z:PROC
; Function compile flags: /Ogsp
;	COMDAT ?iwm_wheel@GameOptionSettingJoyKeyTab@@UAEXH@Z
_TEXT	SEGMENT
_zDelta$ = 8						; size = 4
?iwm_wheel@GameOptionSettingJoyKeyTab@@UAEXH@Z PROC	; GameOptionSettingJoyKeyTab::iwm_wheel, COMDAT
; _this$ = ecx

; 745  : {

  00000	55		 push	 ebp
  00001	8b ec		 mov	 ebp, esp
  00003	56		 push	 esi
  00004	8b f1		 mov	 esi, ecx

; 746  : 	if( !IsShow() )

  00006	ff 15 00 00 00
	00		 call	 DWORD PTR __imp_?IsShow@ioWnd@@QBE_NXZ
  0000c	84 c0		 test	 al, al
  0000e	75 0d		 jne	 SHORT $LN7@iwm_wheel

; 747  : 		ioWnd::iwm_wheel( zDelta );

  00010	ff 75 08	 push	 DWORD PTR _zDelta$[ebp]
  00013	8b ce		 mov	 ecx, esi
  00015	ff 15 00 00 00
	00		 call	 DWORD PTR __imp_?iwm_wheel@ioWnd@@UAEXH@Z

; 748  : 	else

  0001b	eb 49		 jmp	 SHORT $LN1@iwm_wheel
$LN7@iwm_wheel:

; 749  : 	{ 
; 750  : 		//        .
; 751  : 		if( zDelta == WHEEL_DELTA )

  0001d	83 7d 08 78	 cmp	 DWORD PTR _zDelta$[ebp], 120 ; 00000078H
  00021	75 1a		 jne	 SHORT $LN5@iwm_wheel

; 752  : 		{
; 753  : 			ioScroll *pScroll = (ioScroll*)FindChildWnd( ID_VERT_SCROLL );

  00023	68 e9 03 00 00	 push	 1001			; 000003e9H
  00028	8b ce		 mov	 ecx, esi
  0002a	ff 15 00 00 00
	00		 call	 DWORD PTR __imp_?FindChildWnd@ioWnd@@QAEPAV1@K@Z

; 754  : 			if( pScroll )

  00030	85 c0		 test	 eax, eax
  00032	74 32		 je	 SHORT $LN1@iwm_wheel

; 755  : 				pScroll->SetScrollPos( m_iCurPage - 1 );

  00034	8b 8e 0c 02 00
	00		 mov	 ecx, DWORD PTR [esi+524]
  0003a	49		 dec	 ecx

; 756  : 		}

  0003b	eb 1e		 jmp	 SHORT $LN10@iwm_wheel
$LN5@iwm_wheel:

; 757  : 		else if( zDelta == -WHEEL_DELTA )

  0003d	83 7d 08 88	 cmp	 DWORD PTR _zDelta$[ebp], -120 ; ffffff88H
  00041	75 23		 jne	 SHORT $LN1@iwm_wheel

; 758  : 		{
; 759  : 			ioScroll *pScroll = (ioScroll*)FindChildWnd( ID_VERT_SCROLL );

  00043	68 e9 03 00 00	 push	 1001			; 000003e9H
  00048	8b ce		 mov	 ecx, esi
  0004a	ff 15 00 00 00
	00		 call	 DWORD PTR __imp_?FindChildWnd@ioWnd@@QAEPAV1@K@Z

; 760  : 			if( pScroll )

  00050	85 c0		 test	 eax, eax
  00052	74 12		 je	 SHORT $LN1@iwm_wheel

; 761  : 				pScroll->SetScrollPos( m_iCurPage + 1 );

  00054	8b 8e 0c 02 00
	00		 mov	 ecx, DWORD PTR [esi+524]
  0005a	41		 inc	 ecx
$LN10@iwm_wheel:
  0005b	8b 10		 mov	 edx, DWORD PTR [eax]
  0005d	51		 push	 ecx
  0005e	8b c8		 mov	 ecx, eax
  00060	ff 92 38 01 00
	00		 call	 DWORD PTR [edx+312]
$LN1@iwm_wheel:
  00066	5e		 pop	 esi

; 762  : 		}
; 763  : 	}
; 764  : }

  00067	5d		 pop	 ebp
  00068	c2 04 00	 ret	 4
?iwm_wheel@GameOptionSettingJoyKeyTab@@UAEXH@Z ENDP	; GameOptionSettingJoyKeyTab::iwm_wheel
_TEXT	ENDS
PUBLIC	?GetKeyType@GameOptionSettingJoyKeyTab@@IAEXW4ItemType@SettingJoyKeyItemWnd@@AAW4KeyTypeArray@CJoyKeyInfo@@@Z ; GameOptionSettingJoyKeyTab::GetKeyType
; Function compile flags: /Ogsp
;	COMDAT ?GetKeyType@GameOptionSettingJoyKeyTab@@IAEXW4ItemType@SettingJoyKeyItemWnd@@AAW4KeyTypeArray@CJoyKeyInfo@@@Z
_TEXT	SEGMENT
_eItemType$ = 8						; size = 4
_reFirstKeyType$ = 12					; size = 4
?GetKeyType@GameOptionSettingJoyKeyTab@@IAEXW4ItemType@SettingJoyKeyItemWnd@@AAW4KeyTypeArray@CJoyKeyInfo@@@Z PROC ; GameOptionSettingJoyKeyTab::GetKeyType, COMDAT
; _this$ = ecx

; 900  : {

  00000	55		 push	 ebp
  00001	8b ec		 mov	 ebp, esp

; 901  : 	reFirstKeyType = CJoyKeyInfo::JTA_NONE;

  00003	8b 45 0c	 mov	 eax, DWORD PTR _reFirstKeyType$[ebp]
  00006	83 08 ff	 or	 DWORD PTR [eax], -1

; 902  : 	
; 903  : 	switch( eItemType )

  00009	8b 4d 08	 mov	 ecx, DWORD PTR _eItemType$[ebp]
  0000c	49		 dec	 ecx
  0000d	83 f9 30	 cmp	 ecx, 48			; 00000030H
  00010	0f 87 d4 01 00
	00		 ja	 $LN48@GetKeyType
  00016	ff 24 8d 00 00
	00 00		 jmp	 DWORD PTR $LN52@GetKeyType[ecx*4]
$LN47@GetKeyType:

; 904  : 	{
; 905  : 	case SettingJoyKeyItemWnd::IT_UP:
; 906  : 		reFirstKeyType  = CJoyKeyInfo::JTA_UP;

  0001d	83 20 00	 and	 DWORD PTR [eax], 0

; 907  : 		break;

  00020	e9 c5 01 00 00	 jmp	 $LN48@GetKeyType
$LN46@GetKeyType:

; 908  : 	case SettingJoyKeyItemWnd::IT_DOWN:
; 909  : 		reFirstKeyType  = CJoyKeyInfo::JTA_DOWN;

  00025	c7 00 01 00 00
	00		 mov	 DWORD PTR [eax], 1

; 910  : 		break;

  0002b	e9 ba 01 00 00	 jmp	 $LN48@GetKeyType
$LN45@GetKeyType:

; 911  : 	case SettingJoyKeyItemWnd::IT_LEFT:
; 912  : 		reFirstKeyType  = CJoyKeyInfo::JTA_LEFT;

  00030	c7 00 02 00 00
	00		 mov	 DWORD PTR [eax], 2

; 913  : 	    break;

  00036	e9 af 01 00 00	 jmp	 $LN48@GetKeyType
$LN44@GetKeyType:

; 914  : 	case SettingJoyKeyItemWnd::IT_RIGHT:
; 915  : 		reFirstKeyType  = CJoyKeyInfo::JTA_RIGHT;

  0003b	c7 00 03 00 00
	00		 mov	 DWORD PTR [eax], 3

; 916  : 	    break;

  00041	e9 a4 01 00 00	 jmp	 $LN48@GetKeyType
$LN43@GetKeyType:

; 917  : 	case SettingJoyKeyItemWnd::IT_ATTACK:
; 918  : 		reFirstKeyType  = CJoyKeyInfo::JTA_ATTACK;

  00046	c7 00 04 00 00
	00		 mov	 DWORD PTR [eax], 4

; 919  : 		break;

  0004c	e9 99 01 00 00	 jmp	 $LN48@GetKeyType
$LN42@GetKeyType:

; 920  : 	case SettingJoyKeyItemWnd::IT_DEFENSE:
; 921  : 		reFirstKeyType  = CJoyKeyInfo::JTA_DEFENSE;

  00051	c7 00 05 00 00
	00		 mov	 DWORD PTR [eax], 5

; 922  : 		break;

  00057	e9 8e 01 00 00	 jmp	 $LN48@GetKeyType
$LN41@GetKeyType:

; 923  : 	case SettingJoyKeyItemWnd::IT_JUMP:
; 924  : 		reFirstKeyType  = CJoyKeyInfo::JTA_JUMP;

  0005c	c7 00 06 00 00
	00		 mov	 DWORD PTR [eax], 6

; 925  : 	    break;

  00062	e9 83 01 00 00	 jmp	 $LN48@GetKeyType
$LN40@GetKeyType:

; 926  : 	case SettingJoyKeyItemWnd::IT_CLOAK_SKILL:
; 927  : 		reFirstKeyType = CJoyKeyInfo::JTA_CLOAK_SKILL;

  00067	c7 00 07 00 00
	00		 mov	 DWORD PTR [eax], 7

; 928  : 		break;

  0006d	e9 78 01 00 00	 jmp	 $LN48@GetKeyType
$LN39@GetKeyType:

; 929  : 	case SettingJoyKeyItemWnd::IT_HELM_SKILL:
; 930  : 		reFirstKeyType = CJoyKeyInfo::JTA_HELM_SKILL;

  00072	c7 00 08 00 00
	00		 mov	 DWORD PTR [eax], 8

; 931  : 		break;

  00078	e9 6d 01 00 00	 jmp	 $LN48@GetKeyType
$LN38@GetKeyType:

; 932  : 	case SettingJoyKeyItemWnd::IT_ARMOR_SKILL:
; 933  : 		reFirstKeyType = CJoyKeyInfo::JTA_ARMOR_SKILL;

  0007d	c7 00 09 00 00
	00		 mov	 DWORD PTR [eax], 9

; 934  : 		break;

  00083	e9 62 01 00 00	 jmp	 $LN48@GetKeyType
$LN37@GetKeyType:

; 935  : 	case SettingJoyKeyItemWnd::IT_WEAPON_SKILL:
; 936  : 		reFirstKeyType = CJoyKeyInfo::JTA_WEAPON_SKILL;

  00088	c7 00 0a 00 00
	00		 mov	 DWORD PTR [eax], 10	; 0000000aH

; 937  : 		break;

  0008e	e9 57 01 00 00	 jmp	 $LN48@GetKeyType
$LN36@GetKeyType:

; 938  : 	case SettingJoyKeyItemWnd::IT_SOLDIER1:
; 939  : 		reFirstKeyType  = CJoyKeyInfo::JTA_SOLDIER1;

  00093	c7 00 0b 00 00
	00		 mov	 DWORD PTR [eax], 11	; 0000000bH

; 940  : 		break;

  00099	e9 4c 01 00 00	 jmp	 $LN48@GetKeyType
$LN35@GetKeyType:

; 941  : 	case SettingJoyKeyItemWnd::IT_SOLDIER2:
; 942  : 		reFirstKeyType  = CJoyKeyInfo::JTA_SOLDIER2;

  0009e	c7 00 0c 00 00
	00		 mov	 DWORD PTR [eax], 12	; 0000000cH

; 943  : 		break;

  000a4	e9 41 01 00 00	 jmp	 $LN48@GetKeyType
$LN34@GetKeyType:

; 944  : 	case SettingJoyKeyItemWnd::IT_SOLDIER3:
; 945  : 		reFirstKeyType  = CJoyKeyInfo::JTA_SOLDIER3;

  000a9	c7 00 0d 00 00
	00		 mov	 DWORD PTR [eax], 13	; 0000000dH

; 946  : 		break;

  000af	e9 36 01 00 00	 jmp	 $LN48@GetKeyType
$LN33@GetKeyType:

; 947  : 	case SettingJoyKeyItemWnd::IT_SOLDIER4:
; 948  : 		reFirstKeyType  = CJoyKeyInfo::JTA_SOLDIER4;

  000b4	c7 00 0e 00 00
	00		 mov	 DWORD PTR [eax], 14	; 0000000eH

; 949  : 		break;

  000ba	e9 2b 01 00 00	 jmp	 $LN48@GetKeyType
$LN32@GetKeyType:

; 950  : 	case SettingJoyKeyItemWnd::IT_SOLDIER5:
; 951  : 		reFirstKeyType  = CJoyKeyInfo::JTA_SOLDIER5;

  000bf	c7 00 0f 00 00
	00		 mov	 DWORD PTR [eax], 15	; 0000000fH

; 952  : 		break;

  000c5	e9 20 01 00 00	 jmp	 $LN48@GetKeyType
$LN31@GetKeyType:

; 953  : 	case SettingJoyKeyItemWnd::IT_SOLDIER6:
; 954  : 		reFirstKeyType  = CJoyKeyInfo::JTA_SOLDIER6;

  000ca	c7 00 10 00 00
	00		 mov	 DWORD PTR [eax], 16	; 00000010H

; 955  : 		break;

  000d0	e9 15 01 00 00	 jmp	 $LN48@GetKeyType
$LN30@GetKeyType:

; 956  : 	case SettingJoyKeyItemWnd::IT_SOLDIER7:
; 957  : 		reFirstKeyType  = CJoyKeyInfo::JTA_SOLDIER7;

  000d5	c7 00 11 00 00
	00		 mov	 DWORD PTR [eax], 17	; 00000011H

; 958  : 		break;

  000db	e9 0a 01 00 00	 jmp	 $LN48@GetKeyType
$LN29@GetKeyType:

; 959  : 	case SettingJoyKeyItemWnd::IT_SOLDIER8:
; 960  : 		reFirstKeyType  = CJoyKeyInfo::JTA_SOLDIER8;

  000e0	c7 00 12 00 00
	00		 mov	 DWORD PTR [eax], 18	; 00000012H

; 961  : 		break;

  000e6	e9 ff 00 00 00	 jmp	 $LN48@GetKeyType
$LN28@GetKeyType:

; 962  : 	case SettingJoyKeyItemWnd::IT_SOLDIER9:
; 963  : 		reFirstKeyType  = CJoyKeyInfo::JTA_SOLDIER9;

  000eb	c7 00 13 00 00
	00		 mov	 DWORD PTR [eax], 19	; 00000013H

; 964  : 		break;

  000f1	e9 f4 00 00 00	 jmp	 $LN48@GetKeyType
$LN27@GetKeyType:

; 965  : 	case SettingJoyKeyItemWnd::IT_SOLDIER10:
; 966  : 		reFirstKeyType  = CJoyKeyInfo::JTA_SOLDIER10;

  000f6	c7 00 14 00 00
	00		 mov	 DWORD PTR [eax], 20	; 00000014H

; 967  : 		break;

  000fc	e9 e9 00 00 00	 jmp	 $LN48@GetKeyType
$LN26@GetKeyType:

; 968  : 	case SettingJoyKeyItemWnd::IT_SOLDIER11:
; 969  : 		reFirstKeyType  = CJoyKeyInfo::JTA_SOLDIER11;

  00101	c7 00 15 00 00
	00		 mov	 DWORD PTR [eax], 21	; 00000015H

; 970  : 		break;

  00107	e9 de 00 00 00	 jmp	 $LN48@GetKeyType
$LN25@GetKeyType:

; 971  : 	case SettingJoyKeyItemWnd::IT_SOLDIER12:
; 972  : 		reFirstKeyType  = CJoyKeyInfo::JTA_SOLDIER12;

  0010c	c7 00 16 00 00
	00		 mov	 DWORD PTR [eax], 22	; 00000016H

; 973  : 		break;

  00112	e9 d3 00 00 00	 jmp	 $LN48@GetKeyType
$LN24@GetKeyType:

; 974  : 	case SettingJoyKeyItemWnd::IT_SOLDIER13:
; 975  : 		reFirstKeyType  = CJoyKeyInfo::JTA_SOLDIER13;

  00117	c7 00 17 00 00
	00		 mov	 DWORD PTR [eax], 23	; 00000017H

; 976  : 		break;

  0011d	e9 c8 00 00 00	 jmp	 $LN48@GetKeyType
$LN23@GetKeyType:

; 977  : 	case SettingJoyKeyItemWnd::IT_SOLDIER14:
; 978  : 		reFirstKeyType  = CJoyKeyInfo::JTA_SOLDIER14;

  00122	c7 00 18 00 00
	00		 mov	 DWORD PTR [eax], 24	; 00000018H

; 979  : 		break;

  00128	e9 bd 00 00 00	 jmp	 $LN48@GetKeyType
$LN22@GetKeyType:

; 980  : 	case SettingJoyKeyItemWnd::IT_SOLDIER15:
; 981  : 		reFirstKeyType  = CJoyKeyInfo::JTA_SOLDIER15;

  0012d	c7 00 19 00 00
	00		 mov	 DWORD PTR [eax], 25	; 00000019H

; 982  : 		break;

  00133	e9 b2 00 00 00	 jmp	 $LN48@GetKeyType
$LN21@GetKeyType:

; 983  : 	case SettingJoyKeyItemWnd::IT_SOLDIER16:
; 984  : 		reFirstKeyType  = CJoyKeyInfo::JTA_SOLDIER16;

  00138	c7 00 1a 00 00
	00		 mov	 DWORD PTR [eax], 26	; 0000001aH

; 985  : 		break;

  0013e	e9 a7 00 00 00	 jmp	 $LN48@GetKeyType
$LN20@GetKeyType:

; 986  : 	case SettingJoyKeyItemWnd::IT_SOLDIER17:
; 987  : 		reFirstKeyType  = CJoyKeyInfo::JTA_SOLDIER17;

  00143	c7 00 1b 00 00
	00		 mov	 DWORD PTR [eax], 27	; 0000001bH

; 988  : 		break;

  00149	e9 9c 00 00 00	 jmp	 $LN48@GetKeyType
$LN19@GetKeyType:

; 989  : 	case SettingJoyKeyItemWnd::IT_SOLDIER18:
; 990  : 		reFirstKeyType  = CJoyKeyInfo::JTA_SOLDIER18;

  0014e	c7 00 1c 00 00
	00		 mov	 DWORD PTR [eax], 28	; 0000001cH

; 991  : 		break;

  00154	e9 91 00 00 00	 jmp	 $LN48@GetKeyType
$LN18@GetKeyType:

; 992  : 	case SettingJoyKeyItemWnd::IT_SOLDIER19:
; 993  : 		reFirstKeyType  = CJoyKeyInfo::JTA_SOLDIER19;

  00159	c7 00 1d 00 00
	00		 mov	 DWORD PTR [eax], 29	; 0000001dH

; 994  : 		break;

  0015f	e9 86 00 00 00	 jmp	 $LN48@GetKeyType
$LN17@GetKeyType:

; 995  : 	case SettingJoyKeyItemWnd::IT_SOLDIER20:
; 996  : 		reFirstKeyType  = CJoyKeyInfo::JTA_SOLDIER20;

  00164	c7 00 1e 00 00
	00		 mov	 DWORD PTR [eax], 30	; 0000001eH

; 997  : 		break;

  0016a	eb 7e		 jmp	 SHORT $LN48@GetKeyType
$LN16@GetKeyType:

; 998  : 	case SettingJoyKeyItemWnd::IT_SOLDIER21:
; 999  : 		reFirstKeyType  = CJoyKeyInfo::JTA_SOLDIER21;

  0016c	c7 00 1f 00 00
	00		 mov	 DWORD PTR [eax], 31	; 0000001fH

; 1000 : 		break;

  00172	eb 76		 jmp	 SHORT $LN48@GetKeyType
$LN15@GetKeyType:

; 1001 : 	case SettingJoyKeyItemWnd::IT_SOLDIER22:
; 1002 : 		reFirstKeyType  = CJoyKeyInfo::JTA_SOLDIER22;

  00174	c7 00 20 00 00
	00		 mov	 DWORD PTR [eax], 32	; 00000020H

; 1003 : 		break;

  0017a	eb 6e		 jmp	 SHORT $LN48@GetKeyType
$LN14@GetKeyType:

; 1004 : 	case SettingJoyKeyItemWnd::IT_SOLDIER23:
; 1005 : 		reFirstKeyType  = CJoyKeyInfo::JTA_SOLDIER23;

  0017c	c7 00 21 00 00
	00		 mov	 DWORD PTR [eax], 33	; 00000021H

; 1006 : 		break;

  00182	eb 66		 jmp	 SHORT $LN48@GetKeyType
$LN13@GetKeyType:

; 1007 : 	case SettingJoyKeyItemWnd::IT_SOLDIER24:
; 1008 : 		reFirstKeyType  = CJoyKeyInfo::JTA_SOLDIER24;

  00184	c7 00 22 00 00
	00		 mov	 DWORD PTR [eax], 34	; 00000022H

; 1009 : 		break;

  0018a	eb 5e		 jmp	 SHORT $LN48@GetKeyType
$LN12@GetKeyType:

; 1010 : 	case SettingJoyKeyItemWnd::IT_SOLDIER25:
; 1011 : 		reFirstKeyType  = CJoyKeyInfo::JTA_SOLDIER25;

  0018c	c7 00 23 00 00
	00		 mov	 DWORD PTR [eax], 35	; 00000023H

; 1012 : 		break;

  00192	eb 56		 jmp	 SHORT $LN48@GetKeyType
$LN11@GetKeyType:

; 1013 : 	case SettingJoyKeyItemWnd::IT_SOLDIER26:
; 1014 : 		reFirstKeyType  = CJoyKeyInfo::JTA_SOLDIER26;

  00194	c7 00 24 00 00
	00		 mov	 DWORD PTR [eax], 36	; 00000024H

; 1015 : 		break;

  0019a	eb 4e		 jmp	 SHORT $LN48@GetKeyType
$LN10@GetKeyType:

; 1016 : 	case SettingJoyKeyItemWnd::IT_SOLDIER27:
; 1017 : 		reFirstKeyType  = CJoyKeyInfo::JTA_SOLDIER27;

  0019c	c7 00 25 00 00
	00		 mov	 DWORD PTR [eax], 37	; 00000025H

; 1018 : 		break;

  001a2	eb 46		 jmp	 SHORT $LN48@GetKeyType
$LN9@GetKeyType:

; 1019 : 	case SettingJoyKeyItemWnd::IT_SOLDIER28:
; 1020 : 		reFirstKeyType  = CJoyKeyInfo::JTA_SOLDIER28;

  001a4	c7 00 26 00 00
	00		 mov	 DWORD PTR [eax], 38	; 00000026H

; 1021 : 		break;

  001aa	eb 3e		 jmp	 SHORT $LN48@GetKeyType
$LN8@GetKeyType:

; 1022 : 	case SettingJoyKeyItemWnd::IT_SOLDIER29:
; 1023 : 		reFirstKeyType  = CJoyKeyInfo::JTA_SOLDIER29;

  001ac	c7 00 27 00 00
	00		 mov	 DWORD PTR [eax], 39	; 00000027H

; 1024 : 		break;

  001b2	eb 36		 jmp	 SHORT $LN48@GetKeyType
$LN7@GetKeyType:

; 1025 : 	case SettingJoyKeyItemWnd::IT_SOLDIER30:
; 1026 : 		reFirstKeyType  = CJoyKeyInfo::JTA_SOLDIER30;

  001b4	c7 00 28 00 00
	00		 mov	 DWORD PTR [eax], 40	; 00000028H

; 1027 : 		break;

  001ba	eb 2e		 jmp	 SHORT $LN48@GetKeyType
$LN6@GetKeyType:

; 1028 : 	case SettingJoyKeyItemWnd::IT_SOLDIER31:
; 1029 : 		reFirstKeyType  = CJoyKeyInfo::JTA_SOLDIER31;

  001bc	c7 00 29 00 00
	00		 mov	 DWORD PTR [eax], 41	; 00000029H

; 1030 : 		break;

  001c2	eb 26		 jmp	 SHORT $LN48@GetKeyType
$LN5@GetKeyType:

; 1031 : 	case SettingJoyKeyItemWnd::IT_SOLDIER32:
; 1032 : 		reFirstKeyType  = CJoyKeyInfo::JTA_SOLDIER32;

  001c4	c7 00 2a 00 00
	00		 mov	 DWORD PTR [eax], 42	; 0000002aH

; 1033 : 		break;

  001ca	eb 1e		 jmp	 SHORT $LN48@GetKeyType
$LN4@GetKeyType:

; 1034 : 	case SettingJoyKeyItemWnd::IT_SOLDIER33:
; 1035 : 		reFirstKeyType  = CJoyKeyInfo::JTA_SOLDIER33;

  001cc	c7 00 2b 00 00
	00		 mov	 DWORD PTR [eax], 43	; 0000002bH

; 1036 : 		break;

  001d2	eb 16		 jmp	 SHORT $LN48@GetKeyType
$LN3@GetKeyType:

; 1037 : 	case SettingJoyKeyItemWnd::IT_SOLDIER34:
; 1038 : 		reFirstKeyType  = CJoyKeyInfo::JTA_SOLDIER34;

  001d4	c7 00 2c 00 00
	00		 mov	 DWORD PTR [eax], 44	; 0000002cH

; 1039 : 		break;

  001da	eb 0e		 jmp	 SHORT $LN48@GetKeyType
$LN2@GetKeyType:

; 1040 : 	case SettingJoyKeyItemWnd::IT_SOLDIER35:
; 1041 : 		reFirstKeyType  = CJoyKeyInfo::JTA_SOLDIER35;

  001dc	c7 00 2d 00 00
	00		 mov	 DWORD PTR [eax], 45	; 0000002dH

; 1042 : 		break;

  001e2	eb 06		 jmp	 SHORT $LN48@GetKeyType
$LN1@GetKeyType:

; 1043 : 	case SettingJoyKeyItemWnd::IT_SOLDIER36:
; 1044 : 		reFirstKeyType  = CJoyKeyInfo::JTA_SOLDIER36;

  001e4	c7 00 2e 00 00
	00		 mov	 DWORD PTR [eax], 46	; 0000002eH
$LN48@GetKeyType:

; 1045 : 		break;
; 1046 : 	}
; 1047 : }

  001ea	5d		 pop	 ebp
  001eb	c2 08 00	 ret	 8
  001ee	8b ff		 npad	 2
$LN52@GetKeyType:
  001f0	00 00 00 00	 DD	 $LN47@GetKeyType
  001f4	00 00 00 00	 DD	 $LN46@GetKeyType
  001f8	00 00 00 00	 DD	 $LN45@GetKeyType
  001fc	00 00 00 00	 DD	 $LN44@GetKeyType
  00200	00 00 00 00	 DD	 $LN43@GetKeyType
  00204	00 00 00 00	 DD	 $LN42@GetKeyType
  00208	00 00 00 00	 DD	 $LN41@GetKeyType
  0020c	00 00 00 00	 DD	 $LN48@GetKeyType
  00210	00 00 00 00	 DD	 $LN40@GetKeyType
  00214	00 00 00 00	 DD	 $LN39@GetKeyType
  00218	00 00 00 00	 DD	 $LN38@GetKeyType
  0021c	00 00 00 00	 DD	 $LN37@GetKeyType
  00220	00 00 00 00	 DD	 $LN48@GetKeyType
  00224	00 00 00 00	 DD	 $LN36@GetKeyType
  00228	00 00 00 00	 DD	 $LN35@GetKeyType
  0022c	00 00 00 00	 DD	 $LN34@GetKeyType
  00230	00 00 00 00	 DD	 $LN33@GetKeyType
  00234	00 00 00 00	 DD	 $LN32@GetKeyType
  00238	00 00 00 00	 DD	 $LN31@GetKeyType
  0023c	00 00 00 00	 DD	 $LN30@GetKeyType
  00240	00 00 00 00	 DD	 $LN29@GetKeyType
  00244	00 00 00 00	 DD	 $LN28@GetKeyType
  00248	00 00 00 00	 DD	 $LN27@GetKeyType
  0024c	00 00 00 00	 DD	 $LN26@GetKeyType
  00250	00 00 00 00	 DD	 $LN25@GetKeyType
  00254	00 00 00 00	 DD	 $LN24@GetKeyType
  00258	00 00 00 00	 DD	 $LN23@GetKeyType
  0025c	00 00 00 00	 DD	 $LN22@GetKeyType
  00260	00 00 00 00	 DD	 $LN21@GetKeyType
  00264	00 00 00 00	 DD	 $LN20@GetKeyType
  00268	00 00 00 00	 DD	 $LN19@GetKeyType
  0026c	00 00 00 00	 DD	 $LN18@GetKeyType
  00270	00 00 00 00	 DD	 $LN17@GetKeyType
  00274	00 00 00 00	 DD	 $LN16@GetKeyType
  00278	00 00 00 00	 DD	 $LN15@GetKeyType
  0027c	00 00 00 00	 DD	 $LN14@GetKeyType
  00280	00 00 00 00	 DD	 $LN13@GetKeyType
  00284	00 00 00 00	 DD	 $LN12@GetKeyType
  00288	00 00 00 00	 DD	 $LN11@GetKeyType
  0028c	00 00 00 00	 DD	 $LN10@GetKeyType
  00290	00 00 00 00	 DD	 $LN9@GetKeyType
  00294	00 00 00 00	 DD	 $LN8@GetKeyType
  00298	00 00 00 00	 DD	 $LN7@GetKeyType
  0029c	00 00 00 00	 DD	 $LN6@GetKeyType
  002a0	00 00 00 00	 DD	 $LN5@GetKeyType
  002a4	00 00 00 00	 DD	 $LN4@GetKeyType
  002a8	00 00 00 00	 DD	 $LN3@GetKeyType
  002ac	00 00 00 00	 DD	 $LN2@GetKeyType
  002b0	00 00 00 00	 DD	 $LN1@GetKeyType
?GetKeyType@GameOptionSettingJoyKeyTab@@IAEXW4ItemType@SettingJoyKeyItemWnd@@AAW4KeyTypeArray@CJoyKeyInfo@@@Z ENDP ; GameOptionSettingJoyKeyTab::GetKeyType
_TEXT	ENDS
PUBLIC	?SetSelect@GameOptionSettingJoyKeyTab@@IAEXW4KeyTypeArray@CJoyKeyInfo@@@Z ; GameOptionSettingJoyKeyTab::SetSelect
; Function compile flags: /Ogsp
;	COMDAT ?SetSelect@GameOptionSettingJoyKeyTab@@IAEXW4KeyTypeArray@CJoyKeyInfo@@@Z
_TEXT	SEGMENT
_eKeyType$ = 8						; size = 4
?SetSelect@GameOptionSettingJoyKeyTab@@IAEXW4KeyTypeArray@CJoyKeyInfo@@@Z PROC ; GameOptionSettingJoyKeyTab::SetSelect, COMDAT
; _this$ = ecx

; 1083 : {

  00000	55		 push	 ebp
  00001	8b ec		 mov	 ebp, esp
  00003	53		 push	 ebx
  00004	56		 push	 esi
  00005	57		 push	 edi
  00006	8b d9		 mov	 ebx, ecx

; 1084 : 	for (int i = 0; i < MAX_SHOW_ITEM_WND ; i++)

  00008	33 f6		 xor	 esi, esi
$LL9@SetSelect@3:

; 1085 : 	{
; 1086 : 		SettingJoyKeyItemWnd *pChild = dynamic_cast<SettingJoyKeyItemWnd*> ( FindChildWnd( ID_SETTING_KEY_ITEM_WND1 + i ) );

  0000a	6a 00		 push	 0
  0000c	68 00 00 00 00	 push	 OFFSET ??_R0?AVSettingJoyKeyItemWnd@@@8
  00011	68 00 00 00 00	 push	 OFFSET ??_R0?AVioWnd@@@8
  00016	6a 00		 push	 0
  00018	8d 46 65	 lea	 eax, DWORD PTR [esi+101]
  0001b	50		 push	 eax
  0001c	8b cb		 mov	 ecx, ebx
  0001e	ff 15 00 00 00
	00		 call	 DWORD PTR __imp_?FindChildWnd@ioWnd@@QAEPAV1@K@Z
  00024	50		 push	 eax
  00025	e8 00 00 00 00	 call	 ___RTDynamicCast
  0002a	8b f8		 mov	 edi, eax
  0002c	83 c4 14	 add	 esp, 20			; 00000014H

; 1087 : 		if(pChild)

  0002f	85 ff		 test	 edi, edi
  00031	74 11		 je	 SHORT $LN3@SetSelect@3

; 1088 : 		{
; 1089 : 			pChild->UnSelect();

  00033	8b cf		 mov	 ecx, edi
  00035	e8 00 00 00 00	 call	 ?UnSelect@SettingJoyKeyItemWnd@@QAEXXZ ; SettingJoyKeyItemWnd::UnSelect

; 1090 : 			pChild->SetSelect( eKeyType );

  0003a	ff 75 08	 push	 DWORD PTR _eKeyType$[ebp]
  0003d	8b cf		 mov	 ecx, edi
  0003f	e8 00 00 00 00	 call	 ?SetSelect@SettingJoyKeyItemWnd@@QAEXW4KeyTypeArray@CJoyKeyInfo@@@Z ; SettingJoyKeyItemWnd::SetSelect
$LN3@SetSelect@3:

; 1084 : 	for (int i = 0; i < MAX_SHOW_ITEM_WND ; i++)

  00044	46		 inc	 esi
  00045	83 fe 0b	 cmp	 esi, 11			; 0000000bH
  00048	7c c0		 jl	 SHORT $LL9@SetSelect@3
  0004a	5f		 pop	 edi
  0004b	5e		 pop	 esi
  0004c	5b		 pop	 ebx

; 1091 : 		}
; 1092 : 	}
; 1093 : }

  0004d	5d		 pop	 ebp
  0004e	c2 04 00	 ret	 4
?SetSelect@GameOptionSettingJoyKeyTab@@IAEXW4KeyTypeArray@CJoyKeyInfo@@@Z ENDP ; GameOptionSettingJoyKeyTab::SetSelect
_TEXT	ENDS
PUBLIC	??1ioINILoader_e@@QAE@XZ			; ioINILoader_e::~ioINILoader_e
EXTRN	__imp_??1ioINILoader@@QAE@XZ:PROC
; Function compile flags: /Ogsp
;	COMDAT ??1ioINILoader_e@@QAE@XZ
_TEXT	SEGMENT
??1ioINILoader_e@@QAE@XZ PROC				; ioINILoader_e::~ioINILoader_e, COMDAT
; _this$ = ecx
  00000	ff 25 00 00 00
	00		 jmp	 DWORD PTR __imp_??1ioINILoader@@QAE@XZ
??1ioINILoader_e@@QAE@XZ ENDP				; ioINILoader_e::~ioINILoader_e
_TEXT	ENDS
PUBLIC	?CheckUseJoyPad@GameOptionSettingJoyKeyTab@@IAEXXZ ; GameOptionSettingJoyKeyTab::CheckUseJoyPad
; Function compile flags: /Ogsp
;	COMDAT ?CheckUseJoyPad@GameOptionSettingJoyKeyTab@@IAEXXZ
_TEXT	SEGMENT
?CheckUseJoyPad@GameOptionSettingJoyKeyTab@@IAEXXZ PROC	; GameOptionSettingJoyKeyTab::CheckUseJoyPad, COMDAT
; _this$ = ecx

; 1218 : {

  00000	56		 push	 esi

; 1219 : 	if( m_CurrentOption.m_bUseJoyPad )
; 1220 : 	{
; 1221 : 		SetChildActive(ID_SETTING_KEY_ITEM_WND1);

  00001	8b 35 00 00 00
	00		 mov	 esi, DWORD PTR __imp_?SetChildActive@ioWnd@@QAEXK@Z
  00007	57		 push	 edi
  00008	8b f9		 mov	 edi, ecx
  0000a	80 bf c7 01 00
	00 00		 cmp	 BYTE PTR [edi+455], 0
  00011	6a 65		 push	 101			; 00000065H
  00013	75 06		 jne	 SHORT $LN6@CheckUseJo

; 1222 : 		SetChildActive(ID_SETTING_KEY_ITEM_WND2);
; 1223 : 		SetChildActive(ID_SETTING_KEY_ITEM_WND3);
; 1224 : 		SetChildActive(ID_SETTING_KEY_ITEM_WND4);
; 1225 : 		SetChildActive(ID_SETTING_KEY_ITEM_WND5);
; 1226 : 		SetChildActive(ID_SETTING_KEY_ITEM_WND6);
; 1227 : 		SetChildActive(ID_SETTING_KEY_ITEM_WND7);
; 1228 : 		SetChildActive(ID_SETTING_KEY_ITEM_WND8);
; 1229 : 		SetChildActive(ID_SETTING_KEY_ITEM_WND9);
; 1230 : 		SetChildActive(ID_SETTING_KEY_ITEM_WND10);
; 1231 : 		SetChildActive(ID_SETTING_KEY_ITEM_WND11);
; 1232 : 	}
; 1233 : 	else
; 1234 : 	{
; 1235 : 		SetChildInActive(ID_SETTING_KEY_ITEM_WND1);

  00015	8b 35 00 00 00
	00		 mov	 esi, DWORD PTR __imp_?SetChildInActive@ioWnd@@QAEXK@Z
$LN6@CheckUseJo:
  0001b	ff d6		 call	 esi

; 1236 : 		SetChildInActive(ID_SETTING_KEY_ITEM_WND2);

  0001d	6a 66		 push	 102			; 00000066H
  0001f	8b cf		 mov	 ecx, edi
  00021	ff d6		 call	 esi

; 1237 : 		SetChildInActive(ID_SETTING_KEY_ITEM_WND3);

  00023	6a 67		 push	 103			; 00000067H
  00025	8b cf		 mov	 ecx, edi
  00027	ff d6		 call	 esi

; 1238 : 		SetChildInActive(ID_SETTING_KEY_ITEM_WND4);

  00029	6a 68		 push	 104			; 00000068H
  0002b	8b cf		 mov	 ecx, edi
  0002d	ff d6		 call	 esi

; 1239 : 		SetChildInActive(ID_SETTING_KEY_ITEM_WND5);

  0002f	6a 69		 push	 105			; 00000069H
  00031	8b cf		 mov	 ecx, edi
  00033	ff d6		 call	 esi

; 1240 : 		SetChildInActive(ID_SETTING_KEY_ITEM_WND6);

  00035	6a 6a		 push	 106			; 0000006aH
  00037	8b cf		 mov	 ecx, edi
  00039	ff d6		 call	 esi

; 1241 : 		SetChildInActive(ID_SETTING_KEY_ITEM_WND7);

  0003b	6a 6b		 push	 107			; 0000006bH
  0003d	8b cf		 mov	 ecx, edi
  0003f	ff d6		 call	 esi

; 1242 : 		SetChildInActive(ID_SETTING_KEY_ITEM_WND8);

  00041	6a 6c		 push	 108			; 0000006cH
  00043	8b cf		 mov	 ecx, edi
  00045	ff d6		 call	 esi

; 1243 : 		SetChildInActive(ID_SETTING_KEY_ITEM_WND9);

  00047	6a 6d		 push	 109			; 0000006dH
  00049	8b cf		 mov	 ecx, edi
  0004b	ff d6		 call	 esi

; 1244 : 		SetChildInActive(ID_SETTING_KEY_ITEM_WND10);

  0004d	6a 6e		 push	 110			; 0000006eH
  0004f	8b cf		 mov	 ecx, edi
  00051	ff d6		 call	 esi

; 1245 : 		SetChildInActive(ID_SETTING_KEY_ITEM_WND11);

  00053	6a 6f		 push	 111			; 0000006fH
  00055	8b cf		 mov	 ecx, edi
  00057	ff d6		 call	 esi
  00059	5f		 pop	 edi
  0005a	5e		 pop	 esi

; 1246 : 	}
; 1247 : }

  0005b	c3		 ret	 0
?CheckUseJoyPad@GameOptionSettingJoyKeyTab@@IAEXXZ ENDP	; GameOptionSettingJoyKeyTab::CheckUseJoyPad
_TEXT	ENDS
PUBLIC	__real@3f333333
PUBLIC	??_C@_0CF@BLCJKLBJ@GameOptionSettingJoyKeyTab?3?3OnRe@ ; `string'
PUBLIC	?OnRender@GameOptionSettingJoyKeyTab@@MAEXXZ	; GameOptionSettingJoyKeyTab::OnRender
EXTRN	__imp_?PrintText@ioFontManager@@QAAXMMMPBDZZ:PROC
EXTRN	__imp_?SetTextColor@ioFontManager@@QAEXK@Z:PROC
EXTRN	__imp_?SetBkColor@ioFontManager@@QAEXHHH@Z:PROC
EXTRN	__imp_?SetTextStyle@ioFontManager@@QAEXW4TextStyle@@@Z:PROC
EXTRN	__imp_?SetAlignType@ioFontManager@@QAEXW4TextAlignType@@@Z:PROC
EXTRN	__imp_?GetSingleton@ioFontManager@@SAAAV1@XZ:PROC
;	COMDAT __real@3f333333
CONST	SEGMENT
__real@3f333333 DD 03f333333r			; 0.7
CONST	ENDS
;	COMDAT ??_C@_0CF@BLCJKLBJ@GameOptionSettingJoyKeyTab?3?3OnRe@
CONST	SEGMENT
??_C@_0CF@BLCJKLBJ@GameOptionSettingJoyKeyTab?3?3OnRe@ DB 'GameOptionSett'
	DB	'ingJoyKeyTab::OnRender', 00H		; `string'
; Function compile flags: /Ogsp
CONST	ENDS
;	COMDAT ?OnRender@GameOptionSettingJoyKeyTab@@MAEXXZ
_TEXT	SEGMENT
_iYPos$ = -4						; size = 4
?OnRender@GameOptionSettingJoyKeyTab@@MAEXXZ PROC	; GameOptionSettingJoyKeyTab::OnRender, COMDAT
; _this$ = ecx

; 1250 : {

  00000	55		 push	 ebp
  00001	8b ec		 mov	 ebp, esp
  00003	51		 push	 ecx
  00004	53		 push	 ebx
  00005	56		 push	 esi
  00006	57		 push	 edi
  00007	8b f1		 mov	 esi, ecx

; 1251 : 	GameOptionBasicWnd::OnRender();

  00009	ff 15 00 00 00
	00		 call	 DWORD PTR __imp_?OnRender@ioWnd@@MAEXXZ

; 1252 : 
; 1253 : 	//  
; 1254 : 	int iXPos = GetDerivedPosX();

  0000f	8b ce		 mov	 ecx, esi
  00011	ff 15 00 00 00
	00		 call	 DWORD PTR __imp_?GetDerivedPosX@ioWnd@@QBEHXZ

; 1255 : 	int iYPos = GetDerivedPosY();

  00017	8b ce		 mov	 ecx, esi
  00019	8b d8		 mov	 ebx, eax
  0001b	ff 15 00 00 00
	00		 call	 DWORD PTR __imp_?GetDerivedPosY@ioWnd@@QBEHXZ

; 1256 : 	if( m_pIconBack )

  00021	33 ff		 xor	 edi, edi
  00023	89 45 fc	 mov	 DWORD PTR _iYPos$[ebp], eax
  00026	39 be 04 02 00
	00		 cmp	 DWORD PTR [esi+516], edi
  0002c	74 4d		 je	 SHORT $LN5@OnRender@2

; 1257 : 	{
; 1258 : 		m_pIconBack->SetScale( 0.30f );

  0002e	8b 8e 04 02 00
	00		 mov	 ecx, DWORD PTR [esi+516]
  00034	f3 0f 10 05 00
	00 00 00	 movss	 xmm0, DWORD PTR __real@3e99999a
  0003c	8b 01		 mov	 eax, DWORD PTR [ecx]
  0003e	51		 push	 ecx
  0003f	f3 0f 11 04 24	 movss	 DWORD PTR [esp], xmm0
  00044	ff 50 1c	 call	 DWORD PTR [eax+28]

; 1259 : 		m_pIconBack->Render( iXPos + 30, iYPos + 27, UI_RENDER_MULTIPLY, TFO_BILINEAR );

  00047	8b 8e 04 02 00
	00		 mov	 ecx, DWORD PTR [esi+516]
  0004d	8b 55 fc	 mov	 edx, DWORD PTR _iYPos$[ebp]
  00050	8b 01		 mov	 eax, DWORD PTR [ecx]
  00052	57		 push	 edi
  00053	57		 push	 edi
  00054	6a 01		 push	 1
  00056	6a 08		 push	 8
  00058	83 c2 1b	 add	 edx, 27			; 0000001bH
  0005b	0f 57 c0	 xorps	 xmm0, xmm0
  0005e	f3 0f 2a c2	 cvtsi2ss xmm0, edx
  00062	51		 push	 ecx
  00063	51		 push	 ecx
  00064	f3 0f 11 44 24
	04		 movss	 DWORD PTR [esp+4], xmm0
  0006a	8d 53 1e	 lea	 edx, DWORD PTR [ebx+30]
  0006d	0f 57 c0	 xorps	 xmm0, xmm0
  00070	f3 0f 2a c2	 cvtsi2ss xmm0, edx
  00074	f3 0f 11 04 24	 movss	 DWORD PTR [esp], xmm0
  00079	ff 10		 call	 DWORD PTR [eax]
$LN5@OnRender@2:

; 1260 : 	}
; 1261 : 	if( m_pIconJoypad )

  0007b	39 be 08 02 00
	00		 cmp	 DWORD PTR [esi+520], edi
  00081	74 4c		 je	 SHORT $LN1@OnRender@2

; 1262 : 	{
; 1263 : 		m_pIconJoypad->SetScale( 0.30f );

  00083	8b 8e 08 02 00
	00		 mov	 ecx, DWORD PTR [esi+520]
  00089	f3 0f 10 05 00
	00 00 00	 movss	 xmm0, DWORD PTR __real@3e99999a
  00091	8b 01		 mov	 eax, DWORD PTR [ecx]
  00093	51		 push	 ecx
  00094	f3 0f 11 04 24	 movss	 DWORD PTR [esp], xmm0
  00099	ff 50 1c	 call	 DWORD PTR [eax+28]

; 1264 : 		m_pIconJoypad->Render( iXPos + 30, iYPos + 27, UI_RENDER_NORMAL, TFO_BILINEAR );

  0009c	8b 8e 08 02 00
	00		 mov	 ecx, DWORD PTR [esi+520]
  000a2	8b 55 fc	 mov	 edx, DWORD PTR _iYPos$[ebp]
  000a5	8b 01		 mov	 eax, DWORD PTR [ecx]
  000a7	57		 push	 edi
  000a8	57		 push	 edi
  000a9	6a 01		 push	 1
  000ab	57		 push	 edi
  000ac	83 c2 1b	 add	 edx, 27			; 0000001bH
  000af	0f 57 c0	 xorps	 xmm0, xmm0
  000b2	f3 0f 2a c2	 cvtsi2ss xmm0, edx
  000b6	51		 push	 ecx
  000b7	51		 push	 ecx
  000b8	f3 0f 11 44 24
	04		 movss	 DWORD PTR [esp+4], xmm0
  000be	8d 53 1e	 lea	 edx, DWORD PTR [ebx+30]
  000c1	0f 57 c0	 xorps	 xmm0, xmm0
  000c4	f3 0f 2a c2	 cvtsi2ss xmm0, edx
  000c8	f3 0f 11 04 24	 movss	 DWORD PTR [esp], xmm0
  000cd	ff 10		 call	 DWORD PTR [eax]
$LN1@OnRender@2:

; 1265 : 	}
; 1266 : 
; 1267 : 	g_FontMgr.SetAlignType( TAT_LEFT );

  000cf	8b 35 00 00 00
	00		 mov	 esi, DWORD PTR __imp_?GetSingleton@ioFontManager@@SAAAV1@XZ
  000d5	57		 push	 edi
  000d6	ff d6		 call	 esi
  000d8	8b c8		 mov	 ecx, eax
  000da	ff 15 00 00 00
	00		 call	 DWORD PTR __imp_?SetAlignType@ioFontManager@@QAEXW4TextAlignType@@@Z

; 1268 : 	g_FontMgr.SetTextStyle( TS_NORMAL );

  000e0	57		 push	 edi
  000e1	ff d6		 call	 esi
  000e3	8b c8		 mov	 ecx, eax
  000e5	ff 15 00 00 00
	00		 call	 DWORD PTR __imp_?SetTextStyle@ioFontManager@@QAEXW4TextStyle@@@Z

; 1269 : 	g_FontMgr.SetBkColor( 0, 0, 0 );

  000eb	57		 push	 edi
  000ec	57		 push	 edi
  000ed	57		 push	 edi
  000ee	ff d6		 call	 esi
  000f0	8b c8		 mov	 ecx, eax
  000f2	ff 15 00 00 00
	00		 call	 DWORD PTR __imp_?SetBkColor@ioFontManager@@QAEXHHH@Z

; 1270 : 	g_FontMgr.SetTextColor( TCT_DEFAULT_DARKGRAY );

  000f8	68 3a 3a 3a ff	 push	 -12961222		; ff3a3a3aH
  000fd	ff d6		 call	 esi
  000ff	8b c8		 mov	 ecx, eax
  00101	ff 15 00 00 00
	00		 call	 DWORD PTR __imp_?SetTextColor@ioFontManager@@QAEXK@Z

; 1271 : 	g_FontMgr.PrintText( iXPos + 44, iYPos + 19, FONT_SIZE_14, STR(1) );

  00107	57		 push	 edi
  00108	6a 01		 push	 1
  0010a	68 00 00 00 00	 push	 OFFSET ??_C@_00CNPNBAHC@?$AA@
  0010f	68 00 00 00 00	 push	 OFFSET ??_C@_0CF@BLCJKLBJ@GameOptionSettingJoyKeyTab?3?3OnRe@
  00114	ff 15 00 00 00
	00		 call	 DWORD PTR __imp_?GetSingleton@ioStringManager@@SAAAV1@XZ
  0011a	8b c8		 mov	 ecx, eax
  0011c	ff 15 00 00 00
	00		 call	 DWORD PTR __imp_?GetString@ioStringManager@@QAEPADPBD0HW4FileNamePrefix@1@@Z
  00122	f3 0f 10 05 00
	00 00 00	 movss	 xmm0, DWORD PTR __real@3f333333
  0012a	50		 push	 eax
  0012b	8b 45 fc	 mov	 eax, DWORD PTR _iYPos$[ebp]
  0012e	83 ec 0c	 sub	 esp, 12			; 0000000cH
  00131	f3 0f 11 44 24
	08		 movss	 DWORD PTR [esp+8], xmm0
  00137	83 c0 13	 add	 eax, 19			; 00000013H
  0013a	0f 57 c0	 xorps	 xmm0, xmm0
  0013d	f3 0f 2a c0	 cvtsi2ss xmm0, eax
  00141	f3 0f 11 44 24
	04		 movss	 DWORD PTR [esp+4], xmm0
  00147	8d 43 2c	 lea	 eax, DWORD PTR [ebx+44]
  0014a	0f 57 c0	 xorps	 xmm0, xmm0
  0014d	f3 0f 2a c0	 cvtsi2ss xmm0, eax
  00151	f3 0f 11 04 24	 movss	 DWORD PTR [esp], xmm0
  00156	ff d6		 call	 esi
  00158	50		 push	 eax
  00159	ff 15 00 00 00
	00		 call	 DWORD PTR __imp_?PrintText@ioFontManager@@QAAXMMMPBDZZ
  0015f	83 c4 14	 add	 esp, 20			; 00000014H

; 1272 : 	g_FontMgr.SetTextColor( TCT_DEFAULT_GRAY );

  00162	68 6e 6e 6e ff	 push	 -9539986		; ff6e6e6eH
  00167	ff d6		 call	 esi
  00169	8b c8		 mov	 ecx, eax
  0016b	ff 15 00 00 00
	00		 call	 DWORD PTR __imp_?SetTextColor@ioFontManager@@QAEXK@Z

; 1273 : 	g_FontMgr.PrintText( iXPos + 21, iYPos + 43, FONT_SIZE_14, STR(2) );

  00171	57		 push	 edi
  00172	6a 02		 push	 2
  00174	68 00 00 00 00	 push	 OFFSET ??_C@_00CNPNBAHC@?$AA@
  00179	68 00 00 00 00	 push	 OFFSET ??_C@_0CF@BLCJKLBJ@GameOptionSettingJoyKeyTab?3?3OnRe@
  0017e	ff 15 00 00 00
	00		 call	 DWORD PTR __imp_?GetSingleton@ioStringManager@@SAAAV1@XZ
  00184	8b c8		 mov	 ecx, eax
  00186	ff 15 00 00 00
	00		 call	 DWORD PTR __imp_?GetString@ioStringManager@@QAEPADPBD0HW4FileNamePrefix@1@@Z
  0018c	f3 0f 10 05 00
	00 00 00	 movss	 xmm0, DWORD PTR __real@3f333333
  00194	50		 push	 eax
  00195	8b 45 fc	 mov	 eax, DWORD PTR _iYPos$[ebp]
  00198	83 ec 0c	 sub	 esp, 12			; 0000000cH
  0019b	f3 0f 11 44 24
	08		 movss	 DWORD PTR [esp+8], xmm0
  001a1	0f 57 c0	 xorps	 xmm0, xmm0
  001a4	83 c0 2b	 add	 eax, 43			; 0000002bH
  001a7	f3 0f 2a c0	 cvtsi2ss xmm0, eax
  001ab	f3 0f 11 44 24
	04		 movss	 DWORD PTR [esp+4], xmm0
  001b1	83 c3 15	 add	 ebx, 21			; 00000015H
  001b4	0f 57 c0	 xorps	 xmm0, xmm0
  001b7	f3 0f 2a c3	 cvtsi2ss xmm0, ebx
  001bb	f3 0f 11 04 24	 movss	 DWORD PTR [esp], xmm0
  001c0	ff d6		 call	 esi
  001c2	50		 push	 eax
  001c3	ff 15 00 00 00
	00		 call	 DWORD PTR __imp_?PrintText@ioFontManager@@QAAXMMMPBDZZ
  001c9	83 c4 14	 add	 esp, 20			; 00000014H
  001cc	5f		 pop	 edi
  001cd	5e		 pop	 esi
  001ce	5b		 pop	 ebx

; 1274 : }

  001cf	c9		 leave
  001d0	c3		 ret	 0
?OnRender@GameOptionSettingJoyKeyTab@@MAEXXZ ENDP	; GameOptionSettingJoyKeyTab::OnRender
_TEXT	ENDS
PUBLIC	?size@?$vector@W4ItemType@SettingJoyKeyItemWnd@@V?$allocator@W4ItemType@SettingJoyKeyItemWnd@@@std@@@std@@QBEIXZ ; std::vector<enum SettingJoyKeyItemWnd::ItemType,std::allocator<enum SettingJoyKeyItemWnd::ItemType> >::size
; Function compile flags: /Ogsp
; File c:\program files (x86)\microsoft visual studio 10.0\vc\include\vector
;	COMDAT ?size@?$vector@W4ItemType@SettingJoyKeyItemWnd@@V?$allocator@W4ItemType@SettingJoyKeyItemWnd@@@std@@@std@@QBEIXZ
_TEXT	SEGMENT
?size@?$vector@W4ItemType@SettingJoyKeyItemWnd@@V?$allocator@W4ItemType@SettingJoyKeyItemWnd@@@std@@@std@@QBEIXZ PROC ; std::vector<enum SettingJoyKeyItemWnd::ItemType,std::allocator<enum SettingJoyKeyItemWnd::ItemType> >::size, COMDAT
; _this$ = ecx

; 879  : 		return (this->_Mylast - this->_Myfirst);

  00000	8b 41 04	 mov	 eax, DWORD PTR [ecx+4]
  00003	2b 01		 sub	 eax, DWORD PTR [ecx]
  00005	c1 f8 02	 sar	 eax, 2

; 880  : 		}

  00008	c3		 ret	 0
?size@?$vector@W4ItemType@SettingJoyKeyItemWnd@@V?$allocator@W4ItemType@SettingJoyKeyItemWnd@@@std@@@std@@QBEIXZ ENDP ; std::vector<enum SettingJoyKeyItemWnd::ItemType,std::allocator<enum SettingJoyKeyItemWnd::ItemType> >::size
_TEXT	ENDS
PUBLIC	??A?$vector@W4ItemType@SettingJoyKeyItemWnd@@V?$allocator@W4ItemType@SettingJoyKeyItemWnd@@@std@@@std@@QAEAAW4ItemType@SettingJoyKeyItemWnd@@I@Z ; std::vector<enum SettingJoyKeyItemWnd::ItemType,std::allocator<enum SettingJoyKeyItemWnd::ItemType> >::operator[]
; Function compile flags: /Ogsp
;	COMDAT ??A?$vector@W4ItemType@SettingJoyKeyItemWnd@@V?$allocator@W4ItemType@SettingJoyKeyItemWnd@@@std@@@std@@QAEAAW4ItemType@SettingJoyKeyItemWnd@@I@Z
_TEXT	SEGMENT
__Pos$ = 8						; size = 4
??A?$vector@W4ItemType@SettingJoyKeyItemWnd@@V?$allocator@W4ItemType@SettingJoyKeyItemWnd@@@std@@@std@@QAEAAW4ItemType@SettingJoyKeyItemWnd@@I@Z PROC ; std::vector<enum SettingJoyKeyItemWnd::ItemType,std::allocator<enum SettingJoyKeyItemWnd::ItemType> >::operator[], COMDAT
; _this$ = ecx

; 928  : 		{	// subscript mutable sequence

  00000	55		 push	 ebp
  00001	8b ec		 mov	 ebp, esp

; 929  :  #if _ITERATOR_DEBUG_LEVEL == 2
; 930  : 		if (size() <= _Pos)
; 931  : 			{	// report error
; 932  : 			_DEBUG_ERROR("vector subscript out of range");
; 933  : 			_SCL_SECURE_OUT_OF_RANGE;
; 934  : 			}
; 935  : 
; 936  :  #elif _ITERATOR_DEBUG_LEVEL == 1
; 937  : 		_SCL_SECURE_VALIDATE_RANGE(_Pos < size());
; 938  :  #endif /* _ITERATOR_DEBUG_LEVEL */
; 939  : 
; 940  : 		return (*(this->_Myfirst + _Pos));

  00003	8b 01		 mov	 eax, DWORD PTR [ecx]
  00005	8b 4d 08	 mov	 ecx, DWORD PTR __Pos$[ebp]
  00008	8d 04 88	 lea	 eax, DWORD PTR [eax+ecx*4]

; 941  : 		}

  0000b	5d		 pop	 ebp
  0000c	c2 04 00	 ret	 4
??A?$vector@W4ItemType@SettingJoyKeyItemWnd@@V?$allocator@W4ItemType@SettingJoyKeyItemWnd@@@std@@@std@@QAEAAW4ItemType@SettingJoyKeyItemWnd@@I@Z ENDP ; std::vector<enum SettingJoyKeyItemWnd::ItemType,std::allocator<enum SettingJoyKeyItemWnd::ItemType> >::operator[]
_TEXT	ENDS
PUBLIC	?capacity@?$vector@W4ItemType@SettingJoyKeyItemWnd@@V?$allocator@W4ItemType@SettingJoyKeyItemWnd@@@std@@@std@@QBEIXZ ; std::vector<enum SettingJoyKeyItemWnd::ItemType,std::allocator<enum SettingJoyKeyItemWnd::ItemType> >::capacity
; Function compile flags: /Ogsp
;	COMDAT ?capacity@?$vector@W4ItemType@SettingJoyKeyItemWnd@@V?$allocator@W4ItemType@SettingJoyKeyItemWnd@@@std@@@std@@QBEIXZ
_TEXT	SEGMENT
?capacity@?$vector@W4ItemType@SettingJoyKeyItemWnd@@V?$allocator@W4ItemType@SettingJoyKeyItemWnd@@@std@@@std@@QBEIXZ PROC ; std::vector<enum SettingJoyKeyItemWnd::ItemType,std::allocator<enum SettingJoyKeyItemWnd::ItemType> >::capacity, COMDAT
; _this$ = ecx

; 777  : 		return (this->_Myend - this->_Myfirst);

  00000	8b 41 08	 mov	 eax, DWORD PTR [ecx+8]
  00003	2b 01		 sub	 eax, DWORD PTR [ecx]
  00005	c1 f8 02	 sar	 eax, 2

; 778  : 		}

  00008	c3		 ret	 0
?capacity@?$vector@W4ItemType@SettingJoyKeyItemWnd@@V?$allocator@W4ItemType@SettingJoyKeyItemWnd@@@std@@@std@@QBEIXZ ENDP ; std::vector<enum SettingJoyKeyItemWnd::ItemType,std::allocator<enum SettingJoyKeyItemWnd::ItemType> >::capacity
_TEXT	ENDS
PUBLIC	?_Inside@?$vector@W4ItemType@SettingJoyKeyItemWnd@@V?$allocator@W4ItemType@SettingJoyKeyItemWnd@@@std@@@std@@IBE_NPBW4ItemType@SettingJoyKeyItemWnd@@@Z ; std::vector<enum SettingJoyKeyItemWnd::ItemType,std::allocator<enum SettingJoyKeyItemWnd::ItemType> >::_Inside
; Function compile flags: /Ogsp
;	COMDAT ?_Inside@?$vector@W4ItemType@SettingJoyKeyItemWnd@@V?$allocator@W4ItemType@SettingJoyKeyItemWnd@@@std@@@std@@IBE_NPBW4ItemType@SettingJoyKeyItemWnd@@@Z
_TEXT	SEGMENT
__Ptr$ = 8						; size = 4
?_Inside@?$vector@W4ItemType@SettingJoyKeyItemWnd@@V?$allocator@W4ItemType@SettingJoyKeyItemWnd@@@std@@@std@@IBE_NPBW4ItemType@SettingJoyKeyItemWnd@@@Z PROC ; std::vector<enum SettingJoyKeyItemWnd::ItemType,std::allocator<enum SettingJoyKeyItemWnd::ItemType> >::_Inside, COMDAT
; _this$ = ecx

; 1285 : 		{	// test if _Ptr points inside vector

  00000	55		 push	 ebp
  00001	8b ec		 mov	 ebp, esp

; 1286 : 		return (_Ptr < this->_Mylast && this->_Myfirst <= _Ptr);

  00003	8b 45 08	 mov	 eax, DWORD PTR __Ptr$[ebp]
  00006	3b 41 04	 cmp	 eax, DWORD PTR [ecx+4]
  00009	73 09		 jae	 SHORT $LN3@Inside
  0000b	39 01		 cmp	 DWORD PTR [ecx], eax
  0000d	77 05		 ja	 SHORT $LN3@Inside
  0000f	33 c0		 xor	 eax, eax
  00011	40		 inc	 eax
  00012	eb 02		 jmp	 SHORT $LN4@Inside
$LN3@Inside:
  00014	33 c0		 xor	 eax, eax
$LN4@Inside:

; 1287 : 		}

  00016	5d		 pop	 ebp
  00017	c2 04 00	 ret	 4
?_Inside@?$vector@W4ItemType@SettingJoyKeyItemWnd@@V?$allocator@W4ItemType@SettingJoyKeyItemWnd@@@std@@@std@@IBE_NPBW4ItemType@SettingJoyKeyItemWnd@@@Z ENDP ; std::vector<enum SettingJoyKeyItemWnd::ItemType,std::allocator<enum SettingJoyKeyItemWnd::ItemType> >::_Inside
_TEXT	ENDS
PUBLIC	??_C@_0BD@OLBABOEK@vector?$DMT?$DO?5too?5long?$AA@ ; `string'
PUBLIC	?_Xlen@?$vector@W4ItemType@SettingJoyKeyItemWnd@@V?$allocator@W4ItemType@SettingJoyKeyItemWnd@@@std@@@std@@IBEXXZ ; std::vector<enum SettingJoyKeyItemWnd::ItemType,std::allocator<enum SettingJoyKeyItemWnd::ItemType> >::_Xlen
EXTRN	__imp_?_Xlength_error@std@@YAXPBD@Z:PROC
;	COMDAT ??_C@_0BD@OLBABOEK@vector?$DMT?$DO?5too?5long?$AA@
CONST	SEGMENT
??_C@_0BD@OLBABOEK@vector?$DMT?$DO?5too?5long?$AA@ DB 'vector<T> too long'
	DB	00H						; `string'
; Function compile flags: /Ogsp
CONST	ENDS
;	COMDAT ?_Xlen@?$vector@W4ItemType@SettingJoyKeyItemWnd@@V?$allocator@W4ItemType@SettingJoyKeyItemWnd@@@std@@@std@@IBEXXZ
_TEXT	SEGMENT
?_Xlen@?$vector@W4ItemType@SettingJoyKeyItemWnd@@V?$allocator@W4ItemType@SettingJoyKeyItemWnd@@@std@@@std@@IBEXXZ PROC ; std::vector<enum SettingJoyKeyItemWnd::ItemType,std::allocator<enum SettingJoyKeyItemWnd::ItemType> >::_Xlen, COMDAT
; _this$ = ecx

; 1427 : 		_Xlength_error("vector<T> too long");

  00000	68 00 00 00 00	 push	 OFFSET ??_C@_0BD@OLBABOEK@vector?$DMT?$DO?5too?5long?$AA@
  00005	ff 15 00 00 00
	00		 call	 DWORD PTR __imp_?_Xlength_error@std@@YAXPBD@Z
$LN4@Xlen:
$LN3@Xlen:
  0000b	cc		 int	 3
?_Xlen@?$vector@W4ItemType@SettingJoyKeyItemWnd@@V?$allocator@W4ItemType@SettingJoyKeyItemWnd@@@std@@@std@@IBEXXZ ENDP ; std::vector<enum SettingJoyKeyItemWnd::ItemType,std::allocator<enum SettingJoyKeyItemWnd::ItemType> >::_Xlen
_TEXT	ENDS
PUBLIC	?_Orphan_range@?$vector@W4ItemType@SettingJoyKeyItemWnd@@V?$allocator@W4ItemType@SettingJoyKeyItemWnd@@@std@@@std@@IBEXPAW4ItemType@SettingJoyKeyItemWnd@@0@Z ; std::vector<enum SettingJoyKeyItemWnd::ItemType,std::allocator<enum SettingJoyKeyItemWnd::ItemType> >::_Orphan_range
; Function compile flags: /Ogsp
;	COMDAT ?_Orphan_range@?$vector@W4ItemType@SettingJoyKeyItemWnd@@V?$allocator@W4ItemType@SettingJoyKeyItemWnd@@@std@@@std@@IBEXPAW4ItemType@SettingJoyKeyItemWnd@@0@Z
_TEXT	SEGMENT
___formal$ = 8						; size = 4
___formal$ = 12						; size = 4
?_Orphan_range@?$vector@W4ItemType@SettingJoyKeyItemWnd@@V?$allocator@W4ItemType@SettingJoyKeyItemWnd@@@std@@@std@@IBEXPAW4ItemType@SettingJoyKeyItemWnd@@0@Z PROC ; std::vector<enum SettingJoyKeyItemWnd::ItemType,std::allocator<enum SettingJoyKeyItemWnd::ItemType> >::_Orphan_range, COMDAT
; _this$ = ecx

; 1454 : 		}

  00000	c2 08 00	 ret	 8
?_Orphan_range@?$vector@W4ItemType@SettingJoyKeyItemWnd@@V?$allocator@W4ItemType@SettingJoyKeyItemWnd@@@std@@@std@@IBEXPAW4ItemType@SettingJoyKeyItemWnd@@0@Z ENDP ; std::vector<enum SettingJoyKeyItemWnd::ItemType,std::allocator<enum SettingJoyKeyItemWnd::ItemType> >::_Orphan_range
_TEXT	ENDS
PUBLIC	??1?$_Vector_val@W4ItemType@SettingJoyKeyItemWnd@@V?$allocator@W4ItemType@SettingJoyKeyItemWnd@@@std@@@std@@QAE@XZ ; std::_Vector_val<enum SettingJoyKeyItemWnd::ItemType,std::allocator<enum SettingJoyKeyItemWnd::ItemType> >::~_Vector_val<enum SettingJoyKeyItemWnd::ItemType,std::allocator<enum SettingJoyKeyItemWnd::ItemType> >
; Function compile flags: /Ogsp
;	COMDAT ??1?$_Vector_val@W4ItemType@SettingJoyKeyItemWnd@@V?$allocator@W4ItemType@SettingJoyKeyItemWnd@@@std@@@std@@QAE@XZ
_TEXT	SEGMENT
??1?$_Vector_val@W4ItemType@SettingJoyKeyItemWnd@@V?$allocator@W4ItemType@SettingJoyKeyItemWnd@@@std@@@std@@QAE@XZ PROC ; std::_Vector_val<enum SettingJoyKeyItemWnd::ItemType,std::allocator<enum SettingJoyKeyItemWnd::ItemType> >::~_Vector_val<enum SettingJoyKeyItemWnd::ItemType,std::allocator<enum SettingJoyKeyItemWnd::ItemType> >, COMDAT
; _this$ = ecx

; 434  : 		}

  00000	c3		 ret	 0
??1?$_Vector_val@W4ItemType@SettingJoyKeyItemWnd@@V?$allocator@W4ItemType@SettingJoyKeyItemWnd@@@std@@@std@@QAE@XZ ENDP ; std::_Vector_val<enum SettingJoyKeyItemWnd::ItemType,std::allocator<enum SettingJoyKeyItemWnd::ItemType> >::~_Vector_val<enum SettingJoyKeyItemWnd::ItemType,std::allocator<enum SettingJoyKeyItemWnd::ItemType> >
_TEXT	ENDS
PUBLIC	??0?$allocator@W4ItemType@SettingJoyKeyItemWnd@@@std@@QAE@XZ ; std::allocator<enum SettingJoyKeyItemWnd::ItemType>::allocator<enum SettingJoyKeyItemWnd::ItemType>
; Function compile flags: /Ogsp
; File c:\program files (x86)\microsoft visual studio 10.0\vc\include\xmemory
;	COMDAT ??0?$allocator@W4ItemType@SettingJoyKeyItemWnd@@@std@@QAE@XZ
_TEXT	SEGMENT
??0?$allocator@W4ItemType@SettingJoyKeyItemWnd@@@std@@QAE@XZ PROC ; std::allocator<enum SettingJoyKeyItemWnd::ItemType>::allocator<enum SettingJoyKeyItemWnd::ItemType>, COMDAT
; _this$ = ecx

; 161  : 	_ALLOCATOR() _THROW0()

  00000	8b c1		 mov	 eax, ecx

; 162  : 		{	// construct default allocator (do nothing)
; 163  : 		}

  00002	c3		 ret	 0
??0?$allocator@W4ItemType@SettingJoyKeyItemWnd@@@std@@QAE@XZ ENDP ; std::allocator<enum SettingJoyKeyItemWnd::ItemType>::allocator<enum SettingJoyKeyItemWnd::ItemType>
_TEXT	ENDS
PUBLIC	?deallocate@?$allocator@W4ItemType@SettingJoyKeyItemWnd@@@std@@QAEXPAW4ItemType@SettingJoyKeyItemWnd@@I@Z ; std::allocator<enum SettingJoyKeyItemWnd::ItemType>::deallocate
; Function compile flags: /Ogsp
;	COMDAT ?deallocate@?$allocator@W4ItemType@SettingJoyKeyItemWnd@@@std@@QAEXPAW4ItemType@SettingJoyKeyItemWnd@@I@Z
_TEXT	SEGMENT
__Ptr$ = 8						; size = 4
___formal$ = 12						; size = 4
?deallocate@?$allocator@W4ItemType@SettingJoyKeyItemWnd@@@std@@QAEXPAW4ItemType@SettingJoyKeyItemWnd@@I@Z PROC ; std::allocator<enum SettingJoyKeyItemWnd::ItemType>::deallocate, COMDAT
; _this$ = ecx

; 181  : 		{	// deallocate object at _Ptr, ignore size

  00000	55		 push	 ebp
  00001	8b ec		 mov	 ebp, esp

; 182  : 		::operator delete(_Ptr);

  00003	ff 75 08	 push	 DWORD PTR __Ptr$[ebp]
  00006	e8 00 00 00 00	 call	 ??3@YAXPAX@Z		; operator delete
  0000b	59		 pop	 ecx

; 183  : 		}

  0000c	5d		 pop	 ebp
  0000d	c2 08 00	 ret	 8
?deallocate@?$allocator@W4ItemType@SettingJoyKeyItemWnd@@@std@@QAEXPAW4ItemType@SettingJoyKeyItemWnd@@I@Z ENDP ; std::allocator<enum SettingJoyKeyItemWnd::ItemType>::deallocate
_TEXT	ENDS
PUBLIC	??0?$allocator@W4ItemType@SettingJoyKeyItemWnd@@@std@@QAE@ABV01@@Z ; std::allocator<enum SettingJoyKeyItemWnd::ItemType>::allocator<enum SettingJoyKeyItemWnd::ItemType>
; Function compile flags: /Ogsp
;	COMDAT ??0?$allocator@W4ItemType@SettingJoyKeyItemWnd@@@std@@QAE@ABV01@@Z
_TEXT	SEGMENT
___formal$ = 8						; size = 4
??0?$allocator@W4ItemType@SettingJoyKeyItemWnd@@@std@@QAE@ABV01@@Z PROC ; std::allocator<enum SettingJoyKeyItemWnd::ItemType>::allocator<enum SettingJoyKeyItemWnd::ItemType>, COMDAT
; _this$ = ecx

; 165  : 	_ALLOCATOR(const _ALLOCATOR<_Ty>&) _THROW0()

  00000	8b c1		 mov	 eax, ecx

; 166  : 		{	// construct by copying (do nothing)
; 167  : 		}

  00002	c2 04 00	 ret	 4
??0?$allocator@W4ItemType@SettingJoyKeyItemWnd@@@std@@QAE@ABV01@@Z ENDP ; std::allocator<enum SettingJoyKeyItemWnd::ItemType>::allocator<enum SettingJoyKeyItemWnd::ItemType>
_TEXT	ENDS
PUBLIC	?max_size@?$allocator@W4ItemType@SettingJoyKeyItemWnd@@@std@@QBEIXZ ; std::allocator<enum SettingJoyKeyItemWnd::ItemType>::max_size
; Function compile flags: /Ogsp
;	COMDAT ?max_size@?$allocator@W4ItemType@SettingJoyKeyItemWnd@@@std@@QBEIXZ
_TEXT	SEGMENT
?max_size@?$allocator@W4ItemType@SettingJoyKeyItemWnd@@@std@@QBEIXZ PROC ; std::allocator<enum SettingJoyKeyItemWnd::ItemType>::max_size, COMDAT
; _this$ = ecx

; 218  : 		_SIZT _Count = (_SIZT)(-1) / sizeof (_Ty);
; 219  : 		return (0 < _Count ? _Count : 1);

  00000	b8 ff ff ff 3f	 mov	 eax, 1073741823		; 3fffffffH

; 220  : 		}

  00005	c3		 ret	 0
?max_size@?$allocator@W4ItemType@SettingJoyKeyItemWnd@@@std@@QBEIXZ ENDP ; std::allocator<enum SettingJoyKeyItemWnd::ItemType>::max_size
_TEXT	ENDS
PUBLIC	??0?$_Vector_const_iterator@V?$_Vector_val@W4ItemType@SettingJoyKeyItemWnd@@V?$allocator@W4ItemType@SettingJoyKeyItemWnd@@@std@@@std@@@std@@QAE@PAW4ItemType@SettingJoyKeyItemWnd@@PBU_Container_base0@1@@Z ; std::_Vector_const_iterator<std::_Vector_val<enum SettingJoyKeyItemWnd::ItemType,std::allocator<enum SettingJoyKeyItemWnd::ItemType> > >::_Vector_const_iterator<std::_Vector_val<enum SettingJoyKeyItemWnd::ItemType,std::allocator<enum SettingJoyKeyItemWnd::ItemType> > >
; Function compile flags: /Ogsp
; File c:\program files (x86)\microsoft visual studio 10.0\vc\include\vector
;	COMDAT ??0?$_Vector_const_iterator@V?$_Vector_val@W4ItemType@SettingJoyKeyItemWnd@@V?$allocator@W4ItemType@SettingJoyKeyItemWnd@@@std@@@std@@@std@@QAE@PAW4ItemType@SettingJoyKeyItemWnd@@PBU_Container_base0@1@@Z
_TEXT	SEGMENT
__Parg$ = 8						; size = 4
__Pvector$ = 12						; size = 4
??0?$_Vector_const_iterator@V?$_Vector_val@W4ItemType@SettingJoyKeyItemWnd@@V?$allocator@W4ItemType@SettingJoyKeyItemWnd@@@std@@@std@@@std@@QAE@PAW4ItemType@SettingJoyKeyItemWnd@@PBU_Container_base0@1@@Z PROC ; std::_Vector_const_iterator<std::_Vector_val<enum SettingJoyKeyItemWnd::ItemType,std::allocator<enum SettingJoyKeyItemWnd::ItemType> > >::_Vector_const_iterator<std::_Vector_val<enum SettingJoyKeyItemWnd::ItemType,std::allocator<enum SettingJoyKeyItemWnd::ItemType> > >, COMDAT
; _this$ = ecx

; 45   : 		{	// construct with pointer _Parg

  00000	55		 push	 ebp
  00001	8b ec		 mov	 ebp, esp
  00003	8b c1		 mov	 eax, ecx
  00005	8b 4d 08	 mov	 ecx, DWORD PTR __Parg$[ebp]
  00008	89 08		 mov	 DWORD PTR [eax], ecx

; 46   : 		this->_Adopt(_Pvector);
; 47   : 		}

  0000a	5d		 pop	 ebp
  0000b	c2 08 00	 ret	 8
??0?$_Vector_const_iterator@V?$_Vector_val@W4ItemType@SettingJoyKeyItemWnd@@V?$allocator@W4ItemType@SettingJoyKeyItemWnd@@@std@@@std@@@std@@QAE@PAW4ItemType@SettingJoyKeyItemWnd@@PBU_Container_base0@1@@Z ENDP ; std::_Vector_const_iterator<std::_Vector_val<enum SettingJoyKeyItemWnd::ItemType,std::allocator<enum SettingJoyKeyItemWnd::ItemType> > >::_Vector_const_iterator<std::_Vector_val<enum SettingJoyKeyItemWnd::ItemType,std::allocator<enum SettingJoyKeyItemWnd::ItemType> > >
_TEXT	ENDS
PUBLIC	?_Compat@?$_Vector_const_iterator@V?$_Vector_val@W4ItemType@SettingJoyKeyItemWnd@@V?$allocator@W4ItemType@SettingJoyKeyItemWnd@@@std@@@std@@@std@@QBEXABV12@@Z ; std::_Vector_const_iterator<std::_Vector_val<enum SettingJoyKeyItemWnd::ItemType,std::allocator<enum SettingJoyKeyItemWnd::ItemType> > >::_Compat
; Function compile flags: /Ogsp
;	COMDAT ?_Compat@?$_Vector_const_iterator@V?$_Vector_val@W4ItemType@SettingJoyKeyItemWnd@@V?$allocator@W4ItemType@SettingJoyKeyItemWnd@@@std@@@std@@@std@@QBEXABV12@@Z
_TEXT	SEGMENT
___formal$ = 8						; size = 4
?_Compat@?$_Vector_const_iterator@V?$_Vector_val@W4ItemType@SettingJoyKeyItemWnd@@V?$allocator@W4ItemType@SettingJoyKeyItemWnd@@@std@@@std@@@std@@QBEXABV12@@Z PROC ; std::_Vector_const_iterator<std::_Vector_val<enum SettingJoyKeyItemWnd::ItemType,std::allocator<enum SettingJoyKeyItemWnd::ItemType> > >::_Compat, COMDAT
; _this$ = ecx

; 253  : 		}

  00000	c2 04 00	 ret	 4
?_Compat@?$_Vector_const_iterator@V?$_Vector_val@W4ItemType@SettingJoyKeyItemWnd@@V?$allocator@W4ItemType@SettingJoyKeyItemWnd@@@std@@@std@@@std@@QBEXABV12@@Z ENDP ; std::_Vector_const_iterator<std::_Vector_val<enum SettingJoyKeyItemWnd::ItemType,std::allocator<enum SettingJoyKeyItemWnd::ItemType> > >::_Compat
_TEXT	ENDS
PUBLIC	??$addressof@W4ItemType@SettingJoyKeyItemWnd@@@std@@YAPAW4ItemType@SettingJoyKeyItemWnd@@AAW412@@Z ; std::addressof<enum SettingJoyKeyItemWnd::ItemType>
; Function compile flags: /Ogsp
; File c:\program files (x86)\microsoft visual studio 10.0\vc\include\xmemory
;	COMDAT ??$addressof@W4ItemType@SettingJoyKeyItemWnd@@@std@@YAPAW4ItemType@SettingJoyKeyItemWnd@@AAW412@@Z
_TEXT	SEGMENT
__Val$ = 8						; size = 4
??$addressof@W4ItemType@SettingJoyKeyItemWnd@@@std@@YAPAW4ItemType@SettingJoyKeyItemWnd@@AAW412@@Z PROC ; std::addressof<enum SettingJoyKeyItemWnd::ItemType>, COMDAT

; 110  : 	{	// return address of _Val

  00000	55		 push	 ebp
  00001	8b ec		 mov	 ebp, esp

; 111  : 	return ((_Ty *) &(char&)_Val);

  00003	8b 45 08	 mov	 eax, DWORD PTR __Val$[ebp]

; 112  : 	}

  00006	5d		 pop	 ebp
  00007	c3		 ret	 0
??$addressof@W4ItemType@SettingJoyKeyItemWnd@@@std@@YAPAW4ItemType@SettingJoyKeyItemWnd@@AAW412@@Z ENDP ; std::addressof<enum SettingJoyKeyItemWnd::ItemType>
_TEXT	ENDS
PUBLIC	??$forward@W4ItemType@SettingJoyKeyItemWnd@@@std@@YA$$QAW4ItemType@SettingJoyKeyItemWnd@@AAW412@@Z ; std::forward<enum SettingJoyKeyItemWnd::ItemType>
; Function compile flags: /Ogsp
; File c:\program files (x86)\microsoft visual studio 10.0\vc\include\utility
;	COMDAT ??$forward@W4ItemType@SettingJoyKeyItemWnd@@@std@@YA$$QAW4ItemType@SettingJoyKeyItemWnd@@AAW412@@Z
_TEXT	SEGMENT
__Arg$ = 8						; size = 4
??$forward@W4ItemType@SettingJoyKeyItemWnd@@@std@@YA$$QAW4ItemType@SettingJoyKeyItemWnd@@AAW412@@Z PROC ; std::forward<enum SettingJoyKeyItemWnd::ItemType>, COMDAT

; 78   : 	{	// forward _Arg, given explicitly specified type parameter

  00000	55		 push	 ebp
  00001	8b ec		 mov	 ebp, esp

; 79   : 	return ((_Ty&&)_Arg);

  00003	8b 45 08	 mov	 eax, DWORD PTR __Arg$[ebp]

; 80   : 	}

  00006	5d		 pop	 ebp
  00007	c3		 ret	 0
??$forward@W4ItemType@SettingJoyKeyItemWnd@@@std@@YA$$QAW4ItemType@SettingJoyKeyItemWnd@@AAW412@@Z ENDP ; std::forward<enum SettingJoyKeyItemWnd::ItemType>
_TEXT	ENDS
PUBLIC	__TI2?AVbad_alloc@std@@
PUBLIC	??$_Allocate@W4ItemType@SettingJoyKeyItemWnd@@@std@@YAPAW4ItemType@SettingJoyKeyItemWnd@@IPAW412@@Z ; std::_Allocate<enum SettingJoyKeyItemWnd::ItemType>
PUBLIC	__CTA2?AVbad_alloc@std@@
PUBLIC	__CT??_R0?AVbad_alloc@std@@@8??0bad_alloc@std@@QAE@ABV01@@Z12
PUBLIC	??0bad_alloc@std@@QAE@ABV01@@Z			; std::bad_alloc::bad_alloc
PUBLIC	__CT??_R0?AVexception@std@@@8??0exception@std@@QAE@ABV01@@Z12
EXTRN	??2@YAPAXI@Z:PROC				; operator new
EXTRN	__CxxThrowException@8:PROC
EXTRN	??0exception@std@@QAE@ABV01@@Z:PROC		; std::exception::exception
;	COMDAT __CT??_R0?AVexception@std@@@8??0exception@std@@QAE@ABV01@@Z12
; File c:\program files (x86)\microsoft visual studio 10.0\vc\include\exception
xdata$x	SEGMENT
__CT??_R0?AVexception@std@@@8??0exception@std@@QAE@ABV01@@Z12 DD 00H
	DD	FLAT:??_R0?AVexception@std@@@8
	DD	00H
	DD	0ffffffffH
	ORG $+4
	DD	0cH
	DD	FLAT:??0exception@std@@QAE@ABV01@@Z
xdata$x	ENDS
;	COMDAT __CT??_R0?AVbad_alloc@std@@@8??0bad_alloc@std@@QAE@ABV01@@Z12
xdata$x	SEGMENT
__CT??_R0?AVbad_alloc@std@@@8??0bad_alloc@std@@QAE@ABV01@@Z12 DD 00H
	DD	FLAT:??_R0?AVbad_alloc@std@@@8
	DD	00H
	DD	0ffffffffH
	ORG $+4
	DD	0cH
	DD	FLAT:??0bad_alloc@std@@QAE@ABV01@@Z
xdata$x	ENDS
;	COMDAT __CTA2?AVbad_alloc@std@@
xdata$x	SEGMENT
__CTA2?AVbad_alloc@std@@ DD 02H
	DD	FLAT:__CT??_R0?AVbad_alloc@std@@@8??0bad_alloc@std@@QAE@ABV01@@Z12
	DD	FLAT:__CT??_R0?AVexception@std@@@8??0exception@std@@QAE@ABV01@@Z12
xdata$x	ENDS
;	COMDAT __TI2?AVbad_alloc@std@@
xdata$x	SEGMENT
__TI2?AVbad_alloc@std@@ DD 00H
	DD	FLAT:??1bad_alloc@std@@UAE@XZ
	DD	00H
	DD	FLAT:__CTA2?AVbad_alloc@std@@
; Function compile flags: /Ogsp
; File c:\program files (x86)\microsoft visual studio 10.0\vc\include\xmemory
xdata$x	ENDS
;	COMDAT ??$_Allocate@W4ItemType@SettingJoyKeyItemWnd@@@std@@YAPAW4ItemType@SettingJoyKeyItemWnd@@IPAW412@@Z
_TEXT	SEGMENT
$T546310 = -12						; size = 12
$T546315 = 8						; size = 4
__Count$ = 8						; size = 4
___formal$ = 12						; size = 4
??$_Allocate@W4ItemType@SettingJoyKeyItemWnd@@@std@@YAPAW4ItemType@SettingJoyKeyItemWnd@@IPAW412@@Z PROC ; std::_Allocate<enum SettingJoyKeyItemWnd::ItemType>, COMDAT

; 30   : 	{	// allocate storage for _Count elements of type _Ty

  00000	55		 push	 ebp
  00001	8b ec		 mov	 ebp, esp

; 31   : 	void *_Ptr = 0;
; 32   : 
; 33   : 	if (_Count <= 0)

  00003	8b 4d 08	 mov	 ecx, DWORD PTR __Count$[ebp]
  00006	83 ec 0c	 sub	 esp, 12			; 0000000cH
  00009	33 c0		 xor	 eax, eax
  0000b	85 c9		 test	 ecx, ecx

; 34   : 		_Count = 0;
; 35   : 	else if (((_SIZT)(-1) / sizeof (_Ty) < _Count)

  0000d	74 3e		 je	 SHORT $LN5@Allocate

; 36   : 		|| (_Ptr = ::operator new(_Count * sizeof (_Ty))) == 0)

  0000f	81 f9 ff ff ff
	3f		 cmp	 ecx, 1073741823		; 3fffffffH
  00015	77 10		 ja	 SHORT $LN1@Allocate
  00017	8b c1		 mov	 eax, ecx
  00019	c1 e0 02	 shl	 eax, 2
  0001c	50		 push	 eax
  0001d	e8 00 00 00 00	 call	 ??2@YAPAXI@Z		; operator new
  00022	59		 pop	 ecx
  00023	85 c0		 test	 eax, eax

; 38   : 
; 39   : 	return ((_Ty _FARQ *)_Ptr);

  00025	75 26		 jne	 SHORT $LN5@Allocate
$LN1@Allocate:

; 37   : 		_THROW_NCEE(bad_alloc, 0);

  00027	83 65 08 00	 and	 DWORD PTR $T546315[ebp], 0
  0002b	8d 45 08	 lea	 eax, DWORD PTR $T546315[ebp]
  0002e	50		 push	 eax
  0002f	8d 4d f4	 lea	 ecx, DWORD PTR $T546310[ebp]
  00032	ff 15 00 00 00
	00		 call	 DWORD PTR __imp_??0exception@std@@QAE@ABQBD@Z
  00038	68 00 00 00 00	 push	 OFFSET __TI2?AVbad_alloc@std@@
  0003d	8d 45 f4	 lea	 eax, DWORD PTR $T546310[ebp]
  00040	50		 push	 eax
  00041	c7 45 f4 00 00
	00 00		 mov	 DWORD PTR $T546310[ebp], OFFSET ??_7bad_alloc@std@@6B@
  00048	e8 00 00 00 00	 call	 __CxxThrowException@8
$LN10@Allocate:
$LN5@Allocate:

; 40   : 	}

  0004d	c9		 leave
  0004e	c3		 ret	 0
$LN9@Allocate:
??$_Allocate@W4ItemType@SettingJoyKeyItemWnd@@@std@@YAPAW4ItemType@SettingJoyKeyItemWnd@@IPAW412@@Z ENDP ; std::_Allocate<enum SettingJoyKeyItemWnd::ItemType>
_TEXT	ENDS
PUBLIC	?construct@?$allocator@W4ItemType@SettingJoyKeyItemWnd@@@std@@QAEXPAW4ItemType@SettingJoyKeyItemWnd@@$$QAW434@@Z ; std::allocator<enum SettingJoyKeyItemWnd::ItemType>::construct
; Function compile flags: /Ogsp
;	COMDAT ?construct@?$allocator@W4ItemType@SettingJoyKeyItemWnd@@@std@@QAEXPAW4ItemType@SettingJoyKeyItemWnd@@$$QAW434@@Z
_TEXT	SEGMENT
__Ptr$ = 8						; size = 4
__Val$ = 12						; size = 4
?construct@?$allocator@W4ItemType@SettingJoyKeyItemWnd@@@std@@QAEXPAW4ItemType@SettingJoyKeyItemWnd@@$$QAW434@@Z PROC ; std::allocator<enum SettingJoyKeyItemWnd::ItemType>::construct, COMDAT
; _this$ = ecx

; 201  : 		{	// construct object at _Ptr with value _Val

  00000	55		 push	 ebp
  00001	8b ec		 mov	 ebp, esp

; 202  : 		::new ((void _FARQ *)_Ptr) _Ty(_STD forward<_Ty>(_Val));

  00003	8b 45 08	 mov	 eax, DWORD PTR __Ptr$[ebp]
  00006	85 c0		 test	 eax, eax
  00008	74 07		 je	 SHORT $LN3@construct
  0000a	8b 4d 0c	 mov	 ecx, DWORD PTR __Val$[ebp]
  0000d	8b 09		 mov	 ecx, DWORD PTR [ecx]
  0000f	89 08		 mov	 DWORD PTR [eax], ecx
$LN3@construct:

; 203  : 		}

  00011	5d		 pop	 ebp
  00012	c2 08 00	 ret	 8
?construct@?$allocator@W4ItemType@SettingJoyKeyItemWnd@@@std@@QAEXPAW4ItemType@SettingJoyKeyItemWnd@@$$QAW434@@Z ENDP ; std::allocator<enum SettingJoyKeyItemWnd::ItemType>::construct
_TEXT	ENDS
PUBLIC	??$_Ptr_cat@W4ItemType@SettingJoyKeyItemWnd@@W412@@std@@YA?AU_Scalar_ptr_iterator_tag@0@PAW4ItemType@SettingJoyKeyItemWnd@@0@Z ; std::_Ptr_cat<enum SettingJoyKeyItemWnd::ItemType,enum SettingJoyKeyItemWnd::ItemType>
; Function compile flags: /Ogsp
; File c:\program files (x86)\microsoft visual studio 10.0\vc\include\xutility
;	COMDAT ??$_Ptr_cat@W4ItemType@SettingJoyKeyItemWnd@@W412@@std@@YA?AU_Scalar_ptr_iterator_tag@0@PAW4ItemType@SettingJoyKeyItemWnd@@0@Z
_TEXT	SEGMENT
__Cat$ = -1						; size = 1
___formal$ = 8						; size = 4
___formal$ = 12						; size = 4
??$_Ptr_cat@W4ItemType@SettingJoyKeyItemWnd@@W412@@std@@YA?AU_Scalar_ptr_iterator_tag@0@PAW4ItemType@SettingJoyKeyItemWnd@@0@Z PROC ; std::_Ptr_cat<enum SettingJoyKeyItemWnd::ItemType,enum SettingJoyKeyItemWnd::ItemType>, COMDAT

; 516  : 	{	// return pointer category from pointers

  00000	55		 push	 ebp
  00001	8b ec		 mov	 ebp, esp
  00003	51		 push	 ecx

; 517  : 	typename _Ptr_cat_helper<_Elem1, _Elem2>::_Type _Cat;
; 518  : 	return (_Cat);

  00004	8a 45 ff	 mov	 al, BYTE PTR __Cat$[ebp]

; 519  : 	}

  00007	c9		 leave
  00008	c3		 ret	 0
??$_Ptr_cat@W4ItemType@SettingJoyKeyItemWnd@@W412@@std@@YA?AU_Scalar_ptr_iterator_tag@0@PAW4ItemType@SettingJoyKeyItemWnd@@0@Z ENDP ; std::_Ptr_cat<enum SettingJoyKeyItemWnd::ItemType,enum SettingJoyKeyItemWnd::ItemType>
_TEXT	ENDS
PUBLIC	??$_Move@PAW4ItemType@SettingJoyKeyItemWnd@@PAW412@@std@@YAPAW4ItemType@SettingJoyKeyItemWnd@@PAW412@00U_Scalar_ptr_iterator_tag@0@@Z ; std::_Move<enum SettingJoyKeyItemWnd::ItemType *,enum SettingJoyKeyItemWnd::ItemType *>
EXTRN	__imp__memmove:PROC
; Function compile flags: /Ogsp
;	COMDAT ??$_Move@PAW4ItemType@SettingJoyKeyItemWnd@@PAW412@@std@@YAPAW4ItemType@SettingJoyKeyItemWnd@@PAW412@00U_Scalar_ptr_iterator_tag@0@@Z
_TEXT	SEGMENT
__First$ = 8						; size = 4
__Last$ = 12						; size = 4
__Dest$ = 16						; size = 4
___formal$ = 20						; size = 1
??$_Move@PAW4ItemType@SettingJoyKeyItemWnd@@PAW412@@std@@YAPAW4ItemType@SettingJoyKeyItemWnd@@PAW412@00U_Scalar_ptr_iterator_tag@0@@Z PROC ; std::_Move<enum SettingJoyKeyItemWnd::ItemType *,enum SettingJoyKeyItemWnd::ItemType *>, COMDAT

; 2522 : 	{	// move [_First, _Last) to [_Dest, ...), pointers to scalars

  00000	55		 push	 ebp
  00001	8b ec		 mov	 ebp, esp
  00003	56		 push	 esi

; 2523 : 	ptrdiff_t _Count = _Last - _First;

  00004	8b 75 0c	 mov	 esi, DWORD PTR __Last$[ebp]
  00007	2b 75 08	 sub	 esi, DWORD PTR __First$[ebp]
  0000a	57		 push	 edi

; 2524 : 	_CSTD memmove(&*_Dest, &*_First,
; 2525 : 		_Count * sizeof (*_First));

  0000b	8b 7d 10	 mov	 edi, DWORD PTR __Dest$[ebp]
  0000e	c1 fe 02	 sar	 esi, 2
  00011	c1 e6 02	 shl	 esi, 2
  00014	56		 push	 esi
  00015	ff 75 08	 push	 DWORD PTR __First$[ebp]
  00018	57		 push	 edi
  00019	ff 15 00 00 00
	00		 call	 DWORD PTR __imp__memmove
  0001f	83 c4 0c	 add	 esp, 12			; 0000000cH

; 2526 : 	return (_Dest + _Count);

  00022	8d 04 3e	 lea	 eax, DWORD PTR [esi+edi]
  00025	5f		 pop	 edi
  00026	5e		 pop	 esi

; 2527 : 	}

  00027	5d		 pop	 ebp
  00028	c3		 ret	 0
??$_Move@PAW4ItemType@SettingJoyKeyItemWnd@@PAW412@@std@@YAPAW4ItemType@SettingJoyKeyItemWnd@@PAW412@00U_Scalar_ptr_iterator_tag@0@@Z ENDP ; std::_Move<enum SettingJoyKeyItemWnd::ItemType *,enum SettingJoyKeyItemWnd::ItemType *>
_TEXT	ENDS
PUBLIC	??$_Destroy_range@V?$allocator@W4ItemType@SettingJoyKeyItemWnd@@@std@@@std@@YAXPAW4ItemType@SettingJoyKeyItemWnd@@0AAV?$allocator@W4ItemType@SettingJoyKeyItemWnd@@@0@U_Scalar_ptr_iterator_tag@0@@Z ; std::_Destroy_range<std::allocator<enum SettingJoyKeyItemWnd::ItemType> >
; Function compile flags: /Ogsp
; File c:\program files (x86)\microsoft visual studio 10.0\vc\include\xmemory
;	COMDAT ??$_Destroy_range@V?$allocator@W4ItemType@SettingJoyKeyItemWnd@@@std@@@std@@YAXPAW4ItemType@SettingJoyKeyItemWnd@@0AAV?$allocator@W4ItemType@SettingJoyKeyItemWnd@@@0@U_Scalar_ptr_iterator_tag@0@@Z
_TEXT	SEGMENT
__First$ = 8						; size = 4
__Last$ = 12						; size = 4
__Al$ = 16						; size = 4
___formal$ = 20						; size = 1
??$_Destroy_range@V?$allocator@W4ItemType@SettingJoyKeyItemWnd@@@std@@@std@@YAXPAW4ItemType@SettingJoyKeyItemWnd@@0AAV?$allocator@W4ItemType@SettingJoyKeyItemWnd@@@0@U_Scalar_ptr_iterator_tag@0@@Z PROC ; std::_Destroy_range<std::allocator<enum SettingJoyKeyItemWnd::ItemType> >, COMDAT

; 105  : 	}

  00000	c3		 ret	 0
??$_Destroy_range@V?$allocator@W4ItemType@SettingJoyKeyItemWnd@@@std@@@std@@YAXPAW4ItemType@SettingJoyKeyItemWnd@@0AAV?$allocator@W4ItemType@SettingJoyKeyItemWnd@@@0@U_Scalar_ptr_iterator_tag@0@@Z ENDP ; std::_Destroy_range<std::allocator<enum SettingJoyKeyItemWnd::ItemType> >
_TEXT	ENDS
PUBLIC	??$_Val_type@PAW4ItemType@SettingJoyKeyItemWnd@@@std@@YAPAW4ItemType@SettingJoyKeyItemWnd@@PAW412@@Z ; std::_Val_type<enum SettingJoyKeyItemWnd::ItemType *>
; Function compile flags: /Ogsp
; File c:\program files (x86)\microsoft visual studio 10.0\vc\include\xutility
;	COMDAT ??$_Val_type@PAW4ItemType@SettingJoyKeyItemWnd@@@std@@YAPAW4ItemType@SettingJoyKeyItemWnd@@PAW412@@Z
_TEXT	SEGMENT
___formal$ = 8						; size = 4
??$_Val_type@PAW4ItemType@SettingJoyKeyItemWnd@@@std@@YAPAW4ItemType@SettingJoyKeyItemWnd@@PAW412@@Z PROC ; std::_Val_type<enum SettingJoyKeyItemWnd::ItemType *>, COMDAT

; 790  : 	return (0);

  00000	33 c0		 xor	 eax, eax

; 791  : 	}

  00002	c3		 ret	 0
??$_Val_type@PAW4ItemType@SettingJoyKeyItemWnd@@@std@@YAPAW4ItemType@SettingJoyKeyItemWnd@@PAW412@@Z ENDP ; std::_Val_type<enum SettingJoyKeyItemWnd::ItemType *>
_TEXT	ENDS
PUBLIC	??$_Uninit_move@W4ItemType@SettingJoyKeyItemWnd@@W412@W412@@std@@YAPAW4ItemType@SettingJoyKeyItemWnd@@PAW412@00AAV?$allocator@W4ItemType@SettingJoyKeyItemWnd@@@0@0U_Scalar_ptr_iterator_tag@0@@Z ; std::_Uninit_move<enum SettingJoyKeyItemWnd::ItemType,enum SettingJoyKeyItemWnd::ItemType,enum SettingJoyKeyItemWnd::ItemType>
; Function compile flags: /Ogsp
; File c:\program files (x86)\microsoft visual studio 10.0\vc\include\memory
;	COMDAT ??$_Uninit_move@W4ItemType@SettingJoyKeyItemWnd@@W412@W412@@std@@YAPAW4ItemType@SettingJoyKeyItemWnd@@PAW412@00AAV?$allocator@W4ItemType@SettingJoyKeyItemWnd@@@0@0U_Scalar_ptr_iterator_tag@0@@Z
_TEXT	SEGMENT
__First$ = 8						; size = 4
__Last$ = 12						; size = 4
__Dest$ = 16						; size = 4
___formal$ = 20						; size = 4
___formal$ = 24						; size = 4
___formal$ = 28						; size = 1
??$_Uninit_move@W4ItemType@SettingJoyKeyItemWnd@@W412@W412@@std@@YAPAW4ItemType@SettingJoyKeyItemWnd@@PAW412@00AAV?$allocator@W4ItemType@SettingJoyKeyItemWnd@@@0@0U_Scalar_ptr_iterator_tag@0@@Z PROC ; std::_Uninit_move<enum SettingJoyKeyItemWnd::ItemType,enum SettingJoyKeyItemWnd::ItemType,enum SettingJoyKeyItemWnd::ItemType>, COMDAT

; 456  : 	{	// move [_First, _Last) to raw _Dest, scalar type

  00000	55		 push	 ebp
  00001	8b ec		 mov	 ebp, esp
  00003	56		 push	 esi

; 457  : 	_DEBUG_RANGE(_First, _Last);
; 458  : 	_DEBUG_POINTER(_Dest);
; 459  : 	size_t _Count = (size_t)(_Last - _First);

  00004	8b 75 0c	 mov	 esi, DWORD PTR __Last$[ebp]
  00007	2b 75 08	 sub	 esi, DWORD PTR __First$[ebp]
  0000a	c1 fe 02	 sar	 esi, 2

; 460  : 	return ((_Ty2 *)_CSTD memmove(&*_Dest, &*_First,
; 461  : 		_Count * sizeof (*_First)) + _Count);	// NB: non-overlapping move

  0000d	c1 e6 02	 shl	 esi, 2
  00010	56		 push	 esi
  00011	ff 75 08	 push	 DWORD PTR __First$[ebp]
  00014	ff 75 10	 push	 DWORD PTR __Dest$[ebp]
  00017	ff 15 00 00 00
	00		 call	 DWORD PTR __imp__memmove
  0001d	83 c4 0c	 add	 esp, 12			; 0000000cH
  00020	03 c6		 add	 eax, esi
  00022	5e		 pop	 esi

; 462  : 	}

  00023	5d		 pop	 ebp
  00024	c3		 ret	 0
??$_Uninit_move@W4ItemType@SettingJoyKeyItemWnd@@W412@W412@@std@@YAPAW4ItemType@SettingJoyKeyItemWnd@@PAW412@00AAV?$allocator@W4ItemType@SettingJoyKeyItemWnd@@@0@0U_Scalar_ptr_iterator_tag@0@@Z ENDP ; std::_Uninit_move<enum SettingJoyKeyItemWnd::ItemType,enum SettingJoyKeyItemWnd::ItemType,enum SettingJoyKeyItemWnd::ItemType>
_TEXT	ENDS
PUBLIC	?_DECSTR@@YAXPADH@Z				; _DECSTR
; Function compile flags: /Ogsp
; File d:\lost saga for developer\youtube\tutorial\source\src\lsclient\stringprotect.h
;	COMDAT ?_DECSTR@@YAXPADH@Z
_TEXT	SEGMENT
_s$ = 8							; size = 4
_l$ = 12						; size = 4
?_DECSTR@@YAXPADH@Z PROC				; _DECSTR, COMDAT

; 40   : __forceinline void _DECSTR(char* s, int l){int i=0,l4=(l-1)/4,*p=(int*)s;s[l-1]=0;for(;i<l4;++i)*(p++)^=0xEAEBECED;for(i=l4*4;i<l-1;++i)s[i]^=0xED-i%4;}

  00000	55		 push	 ebp
  00001	8b ec		 mov	 ebp, esp
  00003	8b 4d 0c	 mov	 ecx, DWORD PTR _l$[ebp]
  00006	56		 push	 esi
  00007	8b 75 08	 mov	 esi, DWORD PTR _s$[ebp]
  0000a	57		 push	 edi
  0000b	8d 79 ff	 lea	 edi, DWORD PTR [ecx-1]
  0000e	8b c7		 mov	 eax, edi
  00010	99		 cdq
  00011	83 e2 03	 and	 edx, 3
  00014	03 c2		 add	 eax, edx
  00016	c1 f8 02	 sar	 eax, 2
  00019	8b d6		 mov	 edx, esi
  0001b	c6 44 0e ff 00	 mov	 BYTE PTR [esi+ecx-1], 0
  00020	85 c0		 test	 eax, eax
  00022	7e 0e		 jle	 SHORT $LN4@DECSTR
  00024	8b c8		 mov	 ecx, eax
$LL6@DECSTR:
  00026	81 32 ed ec eb
	ea		 xor	 DWORD PTR [edx], -353637139 ; eaebecedH
  0002c	83 c2 04	 add	 edx, 4
  0002f	49		 dec	 ecx
  00030	75 f4		 jne	 SHORT $LL6@DECSTR
$LN4@DECSTR:
  00032	c1 e0 02	 shl	 eax, 2
  00035	eb 17		 jmp	 SHORT $LN14@DECSTR
$LL3@DECSTR:
  00037	8b c8		 mov	 ecx, eax
  00039	81 e1 03 00 00
	80		 and	 ecx, -2147483645	; 80000003H
  0003f	79 05		 jns	 SHORT $LN13@DECSTR
  00041	49		 dec	 ecx
  00042	83 c9 fc	 or	 ecx, -4			; fffffffcH
  00045	41		 inc	 ecx
$LN13@DECSTR:
  00046	b2 ed		 mov	 dl, -19			; ffffffedH
  00048	2a d1		 sub	 dl, cl
  0004a	30 14 30	 xor	 BYTE PTR [eax+esi], dl
  0004d	40		 inc	 eax
$LN14@DECSTR:
  0004e	3b c7		 cmp	 eax, edi
  00050	7c e5		 jl	 SHORT $LL3@DECSTR
  00052	5f		 pop	 edi
  00053	5e		 pop	 esi
  00054	5d		 pop	 ebp
  00055	c3		 ret	 0
?_DECSTR@@YAXPADH@Z ENDP				; _DECSTR
_TEXT	ENDS
PUBLIC	?GetSpec@Setting@@SA?AW4Spec@1@XZ		; Setting::GetSpec
EXTRN	?m_DefaultSpec@Setting@@1W4Spec@1@A:DWORD	; Setting::m_DefaultSpec
; Function compile flags: /Ogsp
; File d:\lost saga for developer\youtube\tutorial\source\src\lsclient\setting.h
;	COMDAT ?GetSpec@Setting@@SA?AW4Spec@1@XZ
_TEXT	SEGMENT
?GetSpec@Setting@@SA?AW4Spec@1@XZ PROC			; Setting::GetSpec, COMDAT

; 188  : 	static Spec GetSpec() { return m_DefaultSpec; }

  00000	a1 00 00 00 00	 mov	 eax, DWORD PTR ?m_DefaultSpec@Setting@@1W4Spec@1@A ; Setting::m_DefaultSpec
  00005	c3		 ret	 0
?GetSpec@Setting@@SA?AW4Spec@1@XZ ENDP			; Setting::GetSpec
_TEXT	ENDS
PUBLIC	?GetSettingOption@Setting@@SAABUSettingOption@@XZ ; Setting::GetSettingOption
EXTRN	?m_Option@Setting@@1USettingOption@@A:BYTE	; Setting::m_Option
; Function compile flags: /Ogsp
;	COMDAT ?GetSettingOption@Setting@@SAABUSettingOption@@XZ
_TEXT	SEGMENT
?GetSettingOption@Setting@@SAABUSettingOption@@XZ PROC	; Setting::GetSettingOption, COMDAT

; 193  : 	static const SettingOption& GetSettingOption() { return m_Option; }

  00000	b8 00 00 00 00	 mov	 eax, OFFSET ?m_Option@Setting@@1USettingOption@@A ; Setting::m_Option
  00005	c3		 ret	 0
?GetSettingOption@Setting@@SAABUSettingOption@@XZ ENDP	; Setting::GetSettingOption
_TEXT	ENDS
PUBLIC	??4SettingOption@@QAEAAU0@ABU0@@Z		; SettingOption::operator=
EXTRN	__imp_??4ioHashString@@QAEAAV0@ABV0@@Z:PROC
; Function compile flags: /Ogsp
;	COMDAT ??4SettingOption@@QAEAAU0@ABU0@@Z
_TEXT	SEGMENT
___that$ = 8						; size = 4
??4SettingOption@@QAEAAU0@ABU0@@Z PROC			; SettingOption::operator=, COMDAT
; _this$ = ecx
  00000	55		 push	 ebp
  00001	8b ec		 mov	 ebp, esp
  00003	56		 push	 esi
  00004	8b f1		 mov	 esi, ecx
  00006	57		 push	 edi
  00007	8b 7d 08	 mov	 edi, DWORD PTR ___that$[ebp]
  0000a	8a 07		 mov	 al, BYTE PTR [edi]
  0000c	88 06		 mov	 BYTE PTR [esi], al
  0000e	8a 47 01	 mov	 al, BYTE PTR [edi+1]
  00011	88 46 01	 mov	 BYTE PTR [esi+1], al
  00014	8a 47 02	 mov	 al, BYTE PTR [edi+2]
  00017	88 46 02	 mov	 BYTE PTR [esi+2], al
  0001a	8a 47 03	 mov	 al, BYTE PTR [edi+3]
  0001d	88 46 03	 mov	 BYTE PTR [esi+3], al
  00020	8a 47 04	 mov	 al, BYTE PTR [edi+4]
  00023	88 46 04	 mov	 BYTE PTR [esi+4], al
  00026	8a 47 05	 mov	 al, BYTE PTR [edi+5]
  00029	88 46 05	 mov	 BYTE PTR [esi+5], al
  0002c	8a 47 06	 mov	 al, BYTE PTR [edi+6]
  0002f	88 46 06	 mov	 BYTE PTR [esi+6], al
  00032	8a 47 07	 mov	 al, BYTE PTR [edi+7]
  00035	88 46 07	 mov	 BYTE PTR [esi+7], al
  00038	8a 47 08	 mov	 al, BYTE PTR [edi+8]
  0003b	88 46 08	 mov	 BYTE PTR [esi+8], al
  0003e	8a 47 09	 mov	 al, BYTE PTR [edi+9]
  00041	88 46 09	 mov	 BYTE PTR [esi+9], al
  00044	8a 47 0a	 mov	 al, BYTE PTR [edi+10]
  00047	88 46 0a	 mov	 BYTE PTR [esi+10], al
  0004a	8b 47 0c	 mov	 eax, DWORD PTR [edi+12]
  0004d	89 46 0c	 mov	 DWORD PTR [esi+12], eax
  00050	8b 47 10	 mov	 eax, DWORD PTR [edi+16]
  00053	89 46 10	 mov	 DWORD PTR [esi+16], eax
  00056	8b 47 14	 mov	 eax, DWORD PTR [edi+20]
  00059	89 46 14	 mov	 DWORD PTR [esi+20], eax
  0005c	8b 47 18	 mov	 eax, DWORD PTR [edi+24]
  0005f	89 46 18	 mov	 DWORD PTR [esi+24], eax
  00062	8b 47 1c	 mov	 eax, DWORD PTR [edi+28]
  00065	89 46 1c	 mov	 DWORD PTR [esi+28], eax
  00068	8b 47 20	 mov	 eax, DWORD PTR [edi+32]
  0006b	89 46 20	 mov	 DWORD PTR [esi+32], eax
  0006e	8b 47 24	 mov	 eax, DWORD PTR [edi+36]
  00071	89 46 24	 mov	 DWORD PTR [esi+36], eax
  00074	8b 47 28	 mov	 eax, DWORD PTR [edi+40]
  00077	89 46 28	 mov	 DWORD PTR [esi+40], eax
  0007a	8b 47 2c	 mov	 eax, DWORD PTR [edi+44]
  0007d	89 46 2c	 mov	 DWORD PTR [esi+44], eax
  00080	8b 47 30	 mov	 eax, DWORD PTR [edi+48]
  00083	89 46 30	 mov	 DWORD PTR [esi+48], eax
  00086	8b 47 34	 mov	 eax, DWORD PTR [edi+52]
  00089	89 46 34	 mov	 DWORD PTR [esi+52], eax
  0008c	8b 47 38	 mov	 eax, DWORD PTR [edi+56]
  0008f	89 46 38	 mov	 DWORD PTR [esi+56], eax
  00092	8b 47 3c	 mov	 eax, DWORD PTR [edi+60]
  00095	89 46 3c	 mov	 DWORD PTR [esi+60], eax
  00098	8a 47 40	 mov	 al, BYTE PTR [edi+64]
  0009b	88 46 40	 mov	 BYTE PTR [esi+64], al
  0009e	8a 47 41	 mov	 al, BYTE PTR [edi+65]
  000a1	88 46 41	 mov	 BYTE PTR [esi+65], al
  000a4	8a 47 42	 mov	 al, BYTE PTR [edi+66]
  000a7	88 46 42	 mov	 BYTE PTR [esi+66], al
  000aa	8a 47 43	 mov	 al, BYTE PTR [edi+67]
  000ad	88 46 43	 mov	 BYTE PTR [esi+67], al
  000b0	8a 47 44	 mov	 al, BYTE PTR [edi+68]
  000b3	88 46 44	 mov	 BYTE PTR [esi+68], al
  000b6	8a 47 45	 mov	 al, BYTE PTR [edi+69]
  000b9	88 46 45	 mov	 BYTE PTR [esi+69], al
  000bc	8a 47 46	 mov	 al, BYTE PTR [edi+70]
  000bf	88 46 46	 mov	 BYTE PTR [esi+70], al
  000c2	8a 47 47	 mov	 al, BYTE PTR [edi+71]
  000c5	88 46 47	 mov	 BYTE PTR [esi+71], al
  000c8	8a 47 48	 mov	 al, BYTE PTR [edi+72]
  000cb	88 46 48	 mov	 BYTE PTR [esi+72], al
  000ce	8a 47 49	 mov	 al, BYTE PTR [edi+73]
  000d1	88 46 49	 mov	 BYTE PTR [esi+73], al
  000d4	8a 47 4a	 mov	 al, BYTE PTR [edi+74]
  000d7	88 46 4a	 mov	 BYTE PTR [esi+74], al
  000da	8d 47 4c	 lea	 eax, DWORD PTR [edi+76]
  000dd	50		 push	 eax
  000de	8d 4e 4c	 lea	 ecx, DWORD PTR [esi+76]
  000e1	ff 15 00 00 00
	00		 call	 DWORD PTR __imp_??4ioHashString@@QAEAAV0@ABV0@@Z
  000e7	8a 47 5c	 mov	 al, BYTE PTR [edi+92]
  000ea	88 46 5c	 mov	 BYTE PTR [esi+92], al
  000ed	8a 47 5d	 mov	 al, BYTE PTR [edi+93]
  000f0	88 46 5d	 mov	 BYTE PTR [esi+93], al
  000f3	8a 47 5e	 mov	 al, BYTE PTR [edi+94]
  000f6	88 46 5e	 mov	 BYTE PTR [esi+94], al
  000f9	8a 47 5f	 mov	 al, BYTE PTR [edi+95]
  000fc	88 46 5f	 mov	 BYTE PTR [esi+95], al
  000ff	8a 47 60	 mov	 al, BYTE PTR [edi+96]
  00102	88 46 60	 mov	 BYTE PTR [esi+96], al
  00105	8a 47 61	 mov	 al, BYTE PTR [edi+97]
  00108	88 46 61	 mov	 BYTE PTR [esi+97], al
  0010b	8a 47 62	 mov	 al, BYTE PTR [edi+98]
  0010e	88 46 62	 mov	 BYTE PTR [esi+98], al
  00111	8a 47 63	 mov	 al, BYTE PTR [edi+99]
  00114	88 46 63	 mov	 BYTE PTR [esi+99], al
  00117	8a 47 64	 mov	 al, BYTE PTR [edi+100]
  0011a	88 46 64	 mov	 BYTE PTR [esi+100], al
  0011d	8a 47 65	 mov	 al, BYTE PTR [edi+101]
  00120	88 46 65	 mov	 BYTE PTR [esi+101], al
  00123	8a 47 66	 mov	 al, BYTE PTR [edi+102]
  00126	88 46 66	 mov	 BYTE PTR [esi+102], al
  00129	8a 47 67	 mov	 al, BYTE PTR [edi+103]
  0012c	88 46 67	 mov	 BYTE PTR [esi+103], al
  0012f	8a 47 68	 mov	 al, BYTE PTR [edi+104]
  00132	88 46 68	 mov	 BYTE PTR [esi+104], al
  00135	8a 47 69	 mov	 al, BYTE PTR [edi+105]
  00138	88 46 69	 mov	 BYTE PTR [esi+105], al
  0013b	8a 47 6a	 mov	 al, BYTE PTR [edi+106]
  0013e	88 46 6a	 mov	 BYTE PTR [esi+106], al
  00141	8a 47 6b	 mov	 al, BYTE PTR [edi+107]
  00144	88 46 6b	 mov	 BYTE PTR [esi+107], al
  00147	8a 47 6c	 mov	 al, BYTE PTR [edi+108]
  0014a	88 46 6c	 mov	 BYTE PTR [esi+108], al
  0014d	8a 47 6d	 mov	 al, BYTE PTR [edi+109]
  00150	88 46 6d	 mov	 BYTE PTR [esi+109], al
  00153	8a 47 6e	 mov	 al, BYTE PTR [edi+110]
  00156	88 46 6e	 mov	 BYTE PTR [esi+110], al
  00159	8a 47 6f	 mov	 al, BYTE PTR [edi+111]
  0015c	88 46 6f	 mov	 BYTE PTR [esi+111], al
  0015f	8a 47 70	 mov	 al, BYTE PTR [edi+112]
  00162	88 46 70	 mov	 BYTE PTR [esi+112], al
  00165	8a 47 71	 mov	 al, BYTE PTR [edi+113]
  00168	88 46 71	 mov	 BYTE PTR [esi+113], al
  0016b	8a 47 72	 mov	 al, BYTE PTR [edi+114]
  0016e	88 46 72	 mov	 BYTE PTR [esi+114], al
  00171	8b 47 74	 mov	 eax, DWORD PTR [edi+116]
  00174	89 46 74	 mov	 DWORD PTR [esi+116], eax
  00177	8b 47 78	 mov	 eax, DWORD PTR [edi+120]
  0017a	89 46 78	 mov	 DWORD PTR [esi+120], eax
  0017d	8b 47 7c	 mov	 eax, DWORD PTR [edi+124]
  00180	89 46 7c	 mov	 DWORD PTR [esi+124], eax
  00183	8b 87 80 00 00
	00		 mov	 eax, DWORD PTR [edi+128]
  00189	89 86 80 00 00
	00		 mov	 DWORD PTR [esi+128], eax
  0018f	8b 87 84 00 00
	00		 mov	 eax, DWORD PTR [edi+132]
  00195	89 86 84 00 00
	00		 mov	 DWORD PTR [esi+132], eax
  0019b	8b 87 88 00 00
	00		 mov	 eax, DWORD PTR [edi+136]
  001a1	89 86 88 00 00
	00		 mov	 DWORD PTR [esi+136], eax
  001a7	8b 87 8c 00 00
	00		 mov	 eax, DWORD PTR [edi+140]
  001ad	89 86 8c 00 00
	00		 mov	 DWORD PTR [esi+140], eax
  001b3	8a 87 90 00 00
	00		 mov	 al, BYTE PTR [edi+144]
  001b9	88 86 90 00 00
	00		 mov	 BYTE PTR [esi+144], al
  001bf	8a 87 91 00 00
	00		 mov	 al, BYTE PTR [edi+145]
  001c5	88 86 91 00 00
	00		 mov	 BYTE PTR [esi+145], al
  001cb	8b 87 94 00 00
	00		 mov	 eax, DWORD PTR [edi+148]
  001d1	89 86 94 00 00
	00		 mov	 DWORD PTR [esi+148], eax
  001d7	8a 87 98 00 00
	00		 mov	 al, BYTE PTR [edi+152]
  001dd	88 86 98 00 00
	00		 mov	 BYTE PTR [esi+152], al
  001e3	8a 87 99 00 00
	00		 mov	 al, BYTE PTR [edi+153]
  001e9	88 86 99 00 00
	00		 mov	 BYTE PTR [esi+153], al
  001ef	8a 87 9a 00 00
	00		 mov	 al, BYTE PTR [edi+154]
  001f5	88 86 9a 00 00
	00		 mov	 BYTE PTR [esi+154], al
  001fb	8b 87 9c 00 00
	00		 mov	 eax, DWORD PTR [edi+156]
  00201	89 86 9c 00 00
	00		 mov	 DWORD PTR [esi+156], eax
  00207	5f		 pop	 edi
  00208	8b c6		 mov	 eax, esi
  0020a	5e		 pop	 esi
  0020b	5d		 pop	 ebp
  0020c	c2 04 00	 ret	 4
??4SettingOption@@QAEAAU0@ABU0@@Z ENDP			; SettingOption::operator=
_TEXT	ENDS
PUBLIC	?GetGameStage@ioApplication@@QBEPAVioGameStage@@XZ ; ioApplication::GetGameStage
; Function compile flags: /Ogsp
; File d:\lost saga for developer\youtube\tutorial\source\src\lsclient\ioapplication.h
;	COMDAT ?GetGameStage@ioApplication@@QBEPAVioGameStage@@XZ
_TEXT	SEGMENT
?GetGameStage@ioApplication@@QBEPAVioGameStage@@XZ PROC	; ioApplication::GetGameStage, COMDAT
; _this$ = ecx

; 685  : 	ioGameStage * GetGameStage() const { return m_pGameStage; }

  00000	8b 81 28 01 00
	00		 mov	 eax, DWORD PTR [ecx+296]
  00006	c3		 ret	 0
?GetGameStage@ioApplication@@QBEPAVioGameStage@@XZ ENDP	; ioApplication::GetGameStage
_TEXT	ENDS
PUBLIC	?empty@?$vector@UtagTextPiece@ioComplexStringPrinter@@V?$allocator@UtagTextPiece@ioComplexStringPrinter@@@std@@@std@@QBE_NXZ ; std::vector<ioComplexStringPrinter::tagTextPiece,std::allocator<ioComplexStringPrinter::tagTextPiece> >::empty
; Function compile flags: /Ogsp
; File c:\program files (x86)\microsoft visual studio 10.0\vc\include\vector
;	COMDAT ?empty@?$vector@UtagTextPiece@ioComplexStringPrinter@@V?$allocator@UtagTextPiece@ioComplexStringPrinter@@@std@@@std@@QBE_NXZ
_TEXT	SEGMENT
?empty@?$vector@UtagTextPiece@ioComplexStringPrinter@@V?$allocator@UtagTextPiece@ioComplexStringPrinter@@@std@@@std@@QBE_NXZ PROC ; std::vector<ioComplexStringPrinter::tagTextPiece,std::allocator<ioComplexStringPrinter::tagTextPiece> >::empty, COMDAT
; _this$ = ecx

; 889  : 		return (this->_Myfirst == this->_Mylast);

  00000	8b 01		 mov	 eax, DWORD PTR [ecx]
  00002	2b 41 04	 sub	 eax, DWORD PTR [ecx+4]
  00005	f7 d8		 neg	 eax
  00007	1b c0		 sbb	 eax, eax
  00009	40		 inc	 eax

; 890  : 		}

  0000a	c3		 ret	 0
?empty@?$vector@UtagTextPiece@ioComplexStringPrinter@@V?$allocator@UtagTextPiece@ioComplexStringPrinter@@@std@@@std@@QBE_NXZ ENDP ; std::vector<ioComplexStringPrinter::tagTextPiece,std::allocator<ioComplexStringPrinter::tagTextPiece> >::empty
_TEXT	ENDS
EXTRN	__imp_??0exception@std@@QAE@ABV01@@Z:PROC
; Function compile flags: /Ogsp
;	COMDAT ??0bad_alloc@std@@QAE@ABV01@@Z
_TEXT	SEGMENT
___that$ = 8						; size = 4
??0bad_alloc@std@@QAE@ABV01@@Z PROC			; std::bad_alloc::bad_alloc, COMDAT
; _this$ = ecx
  00000	55		 push	 ebp
  00001	8b ec		 mov	 ebp, esp
  00003	56		 push	 esi
  00004	ff 75 08	 push	 DWORD PTR ___that$[ebp]
  00007	8b f1		 mov	 esi, ecx
  00009	ff 15 00 00 00
	00		 call	 DWORD PTR __imp_??0exception@std@@QAE@ABV01@@Z
  0000f	c7 06 00 00 00
	00		 mov	 DWORD PTR [esi], OFFSET ??_7bad_alloc@std@@6B@
  00015	8b c6		 mov	 eax, esi
  00017	5e		 pop	 esi
  00018	5d		 pop	 ebp
  00019	c2 04 00	 ret	 4
??0bad_alloc@std@@QAE@ABV01@@Z ENDP			; std::bad_alloc::bad_alloc
; Function compile flags: /Ogsp
_TEXT	ENDS
;	COMDAT ??_GSettingJoyBtn@@UAEPAXI@Z
_TEXT	SEGMENT
___flags$ = 8						; size = 4
??_GSettingJoyBtn@@UAEPAXI@Z PROC			; SettingJoyBtn::`scalar deleting destructor', COMDAT
; _this$ = ecx
  00000	55		 push	 ebp
  00001	8b ec		 mov	 ebp, esp
  00003	56		 push	 esi
  00004	8b f1		 mov	 esi, ecx
  00006	e8 00 00 00 00	 call	 ??1SettingJoyBtn@@UAE@XZ ; SettingJoyBtn::~SettingJoyBtn
  0000b	f6 45 08 01	 test	 BYTE PTR ___flags$[ebp], 1
  0000f	74 07		 je	 SHORT $LN1@scalar@2
  00011	56		 push	 esi
  00012	e8 00 00 00 00	 call	 ??3@YAXPAX@Z		; operator delete
  00017	59		 pop	 ecx
$LN1@scalar@2:
  00018	8b c6		 mov	 eax, esi
  0001a	5e		 pop	 esi
  0001b	5d		 pop	 ebp
  0001c	c2 04 00	 ret	 4
??_GSettingJoyBtn@@UAEPAXI@Z ENDP			; SettingJoyBtn::`scalar deleting destructor'
; Function compile flags: /Ogsp
_TEXT	ENDS
;	COMDAT ??_GSettingJoyKeyItemWnd@@UAEPAXI@Z
_TEXT	SEGMENT
___flags$ = 8						; size = 4
??_GSettingJoyKeyItemWnd@@UAEPAXI@Z PROC		; SettingJoyKeyItemWnd::`scalar deleting destructor', COMDAT
; _this$ = ecx
  00000	55		 push	 ebp
  00001	8b ec		 mov	 ebp, esp
  00003	56		 push	 esi
  00004	8b f1		 mov	 esi, ecx
  00006	e8 00 00 00 00	 call	 ??1SettingJoyKeyItemWnd@@UAE@XZ ; SettingJoyKeyItemWnd::~SettingJoyKeyItemWnd
  0000b	f6 45 08 01	 test	 BYTE PTR ___flags$[ebp], 1
  0000f	74 07		 je	 SHORT $LN1@scalar@3
  00011	56		 push	 esi
  00012	e8 00 00 00 00	 call	 ??3@YAXPAX@Z		; operator delete
  00017	59		 pop	 ecx
$LN1@scalar@3:
  00018	8b c6		 mov	 eax, esi
  0001a	5e		 pop	 esi
  0001b	5d		 pop	 ebp
  0001c	c2 04 00	 ret	 4
??_GSettingJoyKeyItemWnd@@UAEPAXI@Z ENDP		; SettingJoyKeyItemWnd::`scalar deleting destructor'
_TEXT	ENDS
PUBLIC	?SetItem@SettingJoyKeyItemWnd@@QAEXW4ItemType@1@W4KeyTypeArray@CJoyKeyInfo@@G@Z ; SettingJoyKeyItemWnd::SetItem
EXTRN	__imp_?HideChildWnd@ioWnd@@QAEXK_N@Z:PROC
EXTRN	__imp_?ShowChildWnd@ioWnd@@QAEXK_N@Z:PROC
; Function compile flags: /Ogsp
; File d:\lost saga for developer\youtube\tutorial\source\src\lsclient\gui\gameoptionsettingjoykeytab.cpp
;	COMDAT ?SetItem@SettingJoyKeyItemWnd@@QAEXW4ItemType@1@W4KeyTypeArray@CJoyKeyInfo@@G@Z
_TEXT	SEGMENT
_eItemType$ = 8						; size = 4
_eFirstKeyType$ = 12					; size = 4
_wFirstKey$ = 16					; size = 2
?SetItem@SettingJoyKeyItemWnd@@QAEXW4ItemType@1@W4KeyTypeArray@CJoyKeyInfo@@G@Z PROC ; SettingJoyKeyItemWnd::SetItem, COMDAT
; _this$ = ecx

; 128  : {

  00000	55		 push	 ebp
  00001	8b ec		 mov	 ebp, esp

; 129  : 	m_eType = eItemType;

  00003	8b 45 08	 mov	 eax, DWORD PTR _eItemType$[ebp]
  00006	53		 push	 ebx
  00007	56		 push	 esi
  00008	57		 push	 edi

; 130  : 
; 131  : 	if( m_eType == IT_TITLE_BASIC   ||
; 132  : 		m_eType == IT_TITLE_SKILL   ||
; 133  : 		m_eType == IT_TITLE_SOLDIER )

  00009	33 ff		 xor	 edi, edi
  0000b	8b f1		 mov	 esi, ecx
  0000d	89 86 68 01 00
	00		 mov	 DWORD PTR [esi+360], eax
  00013	3b c7		 cmp	 eax, edi
  00015	74 60		 je	 SHORT $LN6@SetItem
  00017	83 f8 08	 cmp	 eax, 8
  0001a	74 5b		 je	 SHORT $LN6@SetItem
  0001c	83 f8 0d	 cmp	 eax, 13			; 0000000dH
  0001f	74 56		 je	 SHORT $LN6@SetItem

; 138  : 	}
; 139  :     //  Second key   ( IT_UP ~ IT_RIGHT )
; 140  : 	else if( COMPARE(m_eType, IT_ATTACK, IT_JUMP+1) )
; 141  : 	{
; 142  : 		ShowChildWnd( ID_BIG_BTN );

  00021	57		 push	 edi
  00022	6a 03		 push	 3
  00024	ff 15 00 00 00
	00		 call	 DWORD PTR __imp_?ShowChildWnd@ioWnd@@QAEXK_N@Z

; 143  : 		HideChildWnd( ID_SMALL_FIRST_BTN );

  0002a	8b 1d 00 00 00
	00		 mov	 ebx, DWORD PTR __imp_?HideChildWnd@ioWnd@@QAEXK_N@Z
  00030	57		 push	 edi
  00031	6a 01		 push	 1
  00033	8b ce		 mov	 ecx, esi
  00035	ff d3		 call	 ebx

; 144  : 		HideChildWnd( ID_SMALL_SECOND_BTN );

  00037	57		 push	 edi
  00038	6a 02		 push	 2
  0003a	8b ce		 mov	 ecx, esi
  0003c	ff d3		 call	 ebx

; 145  : 
; 146  : 		SettingJoyBtn *pBtn = dynamic_cast<SettingJoyBtn*> ( FindChildWnd(ID_BIG_BTN) );

  0003e	57		 push	 edi
  0003f	68 00 00 00 00	 push	 OFFSET ??_R0?AVSettingJoyBtn@@@8
  00044	68 00 00 00 00	 push	 OFFSET ??_R0?AVioWnd@@@8
  00049	57		 push	 edi
  0004a	6a 03		 push	 3
  0004c	8b ce		 mov	 ecx, esi
  0004e	ff 15 00 00 00
	00		 call	 DWORD PTR __imp_?FindChildWnd@ioWnd@@QAEPAV1@K@Z
  00054	50		 push	 eax
  00055	e8 00 00 00 00	 call	 ___RTDynamicCast
  0005a	83 c4 14	 add	 esp, 20			; 00000014H

; 147  : 		if(pBtn)

  0005d	3b c7		 cmp	 eax, edi
  0005f	74 2f		 je	 SHORT $LN16@SetItem

; 148  : 		{
; 149  : 			pBtn->SetKeyType(eFirstKeyType);

  00061	8b 4d 0c	 mov	 ecx, DWORD PTR _eFirstKeyType$[ebp]
  00064	89 88 fc 01 00
	00		 mov	 DWORD PTR [eax+508], ecx

; 150  : 			pBtn->SetKeyValue(wFirstKey);

  0006a	66 8b 4d 10	 mov	 cx, WORD PTR _wFirstKey$[ebp]
  0006e	66 89 88 00 02
	00 00		 mov	 WORD PTR [eax+512], cx

; 151  : 		}
; 152  : 	}
; 153  : 	else

  00075	eb 19		 jmp	 SHORT $LN16@SetItem
$LN6@SetItem:

; 134  : 	{
; 135  : 		HideChildWnd( ID_BIG_BTN );

  00077	8b 1d 00 00 00
	00		 mov	 ebx, DWORD PTR __imp_?HideChildWnd@ioWnd@@QAEXK_N@Z
  0007d	57		 push	 edi
  0007e	6a 03		 push	 3
  00080	ff d3		 call	 ebx

; 136  : 		HideChildWnd( ID_SMALL_FIRST_BTN );

  00082	57		 push	 edi
  00083	6a 01		 push	 1
  00085	8b ce		 mov	 ecx, esi
  00087	ff d3		 call	 ebx

; 137  : 		HideChildWnd( ID_SMALL_SECOND_BTN );

  00089	57		 push	 edi
  0008a	6a 02		 push	 2
  0008c	8b ce		 mov	 ecx, esi
  0008e	ff d3		 call	 ebx

; 154  : 	{
; 155  : 		ShowChildWnd( ID_BIG_BTN );
; 156  : 		HideChildWnd( ID_SMALL_FIRST_BTN );
; 157  : 		HideChildWnd( ID_SMALL_SECOND_BTN );
; 158  : 
; 159  : 		SettingJoyBtn *pBtn = dynamic_cast<SettingJoyBtn*> ( FindChildWnd(ID_BIG_BTN) );
; 160  : 		if(pBtn)
; 161  : 		{
; 162  : 			pBtn->SetKeyType(eFirstKeyType);
; 163  : 			pBtn->SetKeyValue(wFirstKey);

$LN16@SetItem:

; 164  : 		}
; 165  : 	}	
; 166  : 
; 167  : 	SetHelpText();

  00090	8b ce		 mov	 ecx, esi
  00092	e8 00 00 00 00	 call	 ?SetHelpText@SettingJoyKeyItemWnd@@IAEXXZ ; SettingJoyKeyItemWnd::SetHelpText
  00097	5f		 pop	 edi
  00098	5e		 pop	 esi
  00099	5b		 pop	 ebx

; 168  : }

  0009a	5d		 pop	 ebp
  0009b	c2 0c 00	 ret	 12			; 0000000cH
?SetItem@SettingJoyKeyItemWnd@@QAEXW4ItemType@1@W4KeyTypeArray@CJoyKeyInfo@@G@Z ENDP ; SettingJoyKeyItemWnd::SetItem
_TEXT	ENDS
PUBLIC	?GetItemType@GameOptionSettingJoyKeyTab@@IAE?AW4ItemType@SettingJoyKeyItemWnd@@H@Z ; GameOptionSettingJoyKeyTab::GetItemType
; Function compile flags: /Ogsp
;	COMDAT ?GetItemType@GameOptionSettingJoyKeyTab@@IAE?AW4ItemType@SettingJoyKeyItemWnd@@H@Z
_TEXT	SEGMENT
_iPage$ = 8						; size = 4
?GetItemType@GameOptionSettingJoyKeyTab@@IAE?AW4ItemType@SettingJoyKeyItemWnd@@H@Z PROC ; GameOptionSettingJoyKeyTab::GetItemType, COMDAT
; _this$ = ecx

; 891  : {

  00000	55		 push	 ebp
  00001	8b ec		 mov	 ebp, esp

; 892  : 	if( !COMPARE(iPage, 0, (int) m_vWholeItemType.size()) )

  00003	8b 55 08	 mov	 edx, DWORD PTR _iPage$[ebp]
  00006	85 d2		 test	 edx, edx
  00008	78 19		 js	 SHORT $LN1@GetItemTyp
  0000a	8d 81 2c 02 00
	00		 lea	 eax, DWORD PTR [ecx+556]
  00010	8b 48 04	 mov	 ecx, DWORD PTR [eax+4]
  00013	2b 08		 sub	 ecx, DWORD PTR [eax]
  00015	c1 f9 02	 sar	 ecx, 2
  00018	3b d1		 cmp	 edx, ecx
  0001a	7d 07		 jge	 SHORT $LN1@GetItemTyp

; 894  : 
; 895  : 	return m_vWholeItemType[iPage];

  0001c	8b 00		 mov	 eax, DWORD PTR [eax]
  0001e	8b 04 90	 mov	 eax, DWORD PTR [eax+edx*4]
  00021	eb 03		 jmp	 SHORT $LN3@GetItemTyp
$LN1@GetItemTyp:

; 893  : 		return SettingJoyKeyItemWnd::IT_NONE;

  00023	83 c8 ff	 or	 eax, -1
$LN3@GetItemTyp:

; 896  : }

  00026	5d		 pop	 ebp
  00027	c2 04 00	 ret	 4
?GetItemType@GameOptionSettingJoyKeyTab@@IAE?AW4ItemType@SettingJoyKeyItemWnd@@H@Z ENDP ; GameOptionSettingJoyKeyTab::GetItemType
_TEXT	ENDS
PUBLIC	??_C@_0BN@MHJEGNIG@?$FL?$CFs?$FN?5Can?8t?5Get?5PlayStage?$CB?$CB?$CB?$CB?$AA@ ; `string'
PUBLIC	??_C@_0CB@LONKILIG@GameOptionSettingJoyKeyTab?3?3Save@ ; `string'
PUBLIC	?Save@GameOptionSettingJoyKeyTab@@QAEXXZ	; GameOptionSettingJoyKeyTab::Save
EXTRN	__imp_?PrintTimeAndLog@CLog@@QAAXHPADZZ:PROC
EXTRN	__imp_?LOG@@3VCLog@@A:BYTE
EXTRN	?SetUpJoyKeyValue@ioBaseChar@@QAEXABUtagUseKeyValue@ioUserKeyInput@@@Z:PROC ; ioBaseChar::SetUpJoyKeyValue
EXTRN	?GetJoyGameKey@ioKeyManager@@QAEXAAUtagUseKeyValue@ioUserKeyInput@@@Z:PROC ; ioKeyManager::GetJoyGameKey
EXTRN	?SetDefaultJoyKey@tagUseKeyValue@ioUserKeyInput@@QAEXXZ:PROC ; ioUserKeyInput::tagUseKeyValue::SetDefaultJoyKey
EXTRN	??0tagUseKeyValue@ioUserKeyInput@@QAE@XZ:PROC	; ioUserKeyInput::tagUseKeyValue::tagUseKeyValue
EXTRN	?GetOwnerChar@ioPlayStage@@QAEPAVioBaseChar@@XZ:PROC ; ioPlayStage::GetOwnerChar
EXTRN	?GetSingleton@ioApplication@@SAAAV1@XZ:PROC	; ioApplication::GetSingleton
EXTRN	?SaveJoyKey@ioKeyManager@@QAEXXZ:PROC		; ioKeyManager::SaveJoyKey
EXTRN	?SetCustomJoyKey@ioKeyManager@@QAE_NAAVCJoyKeyInfo@@@Z:PROC ; ioKeyManager::SetCustomJoyKey
EXTRN	?ApplyChangedOption@GameOptionBasicWnd@@IAE_NXZ:PROC ; GameOptionBasicWnd::ApplyChangedOption
;	COMDAT ??_C@_0BN@MHJEGNIG@?$FL?$CFs?$FN?5Can?8t?5Get?5PlayStage?$CB?$CB?$CB?$CB?$AA@
; File d:\lost saga for developer\youtube\tutorial\source\src\lsclient\ioapplication.h
CONST	SEGMENT
??_C@_0BN@MHJEGNIG@?$FL?$CFs?$FN?5Can?8t?5Get?5PlayStage?$CB?$CB?$CB?$CB?$AA@ DB '['
	DB	'%s] Can''t Get PlayStage!!!!', 00H		; `string'
CONST	ENDS
;	COMDAT ??_C@_0CB@LONKILIG@GameOptionSettingJoyKeyTab?3?3Save@
CONST	SEGMENT
??_C@_0CB@LONKILIG@GameOptionSettingJoyKeyTab?3?3Save@ DB 'GameOptionSett'
	DB	'ingJoyKeyTab::Save', 00H			; `string'
; Function compile flags: /Ogsp
; File d:\lost saga for developer\youtube\tutorial\source\src\lsclient\gui\gameoptionsettingjoykeytab.cpp
CONST	ENDS
;	COMDAT ?Save@GameOptionSettingJoyKeyTab@@QAEXXZ
_TEXT	SEGMENT
_kKeys$544108 = -32					; size = 30
?Save@GameOptionSettingJoyKeyTab@@QAEXXZ PROC		; GameOptionSettingJoyKeyTab::Save, COMDAT
; _this$ = ecx

; 1143 : {

  00000	55		 push	 ebp
  00001	8b ec		 mov	 ebp, esp
  00003	83 ec 20	 sub	 esp, 32			; 00000020H
  00006	56		 push	 esi
  00007	8b f1		 mov	 esi, ecx

; 1144 : 	//   
; 1145 : 	ApplyChangedOption();

  00009	e8 00 00 00 00	 call	 ?ApplyChangedOption@GameOptionBasicWnd@@IAE_NXZ ; GameOptionBasicWnd::ApplyChangedOption

; 1146 : 
; 1147 : 	if( g_KeyManager.SetCustomJoyKey( m_KeyInfo ) )

  0000e	81 c6 10 02 00
	00		 add	 esi, 528		; 00000210H
  00014	56		 push	 esi
  00015	e8 00 00 00 00	 call	 ?GetSingleton@ioKeyManager@@SAAAV1@XZ ; ioKeyManager::GetSingleton
  0001a	8b c8		 mov	 ecx, eax
  0001c	e8 00 00 00 00	 call	 ?SetCustomJoyKey@ioKeyManager@@QAE_NAAVCJoyKeyInfo@@@Z ; ioKeyManager::SetCustomJoyKey
  00021	84 c0		 test	 al, al
  00023	74 0c		 je	 SHORT $LN4@Save

; 1148 : 	{
; 1149 : 		g_KeyManager.SaveJoyKey();

  00025	e8 00 00 00 00	 call	 ?GetSingleton@ioKeyManager@@SAAAV1@XZ ; ioKeyManager::GetSingleton
  0002a	8b c8		 mov	 ecx, eax
  0002c	e8 00 00 00 00	 call	 ?SaveJoyKey@ioKeyManager@@QAEXXZ ; ioKeyManager::SaveJoyKey
$LN4@Save:

; 1150 : 	}
; 1151 : 
; 1152 : 	///      
; 1153 : 	ioPlayStage * pPlayStage = ToPlayStage( g_App.GetGameStage() );

  00031	e8 00 00 00 00	 call	 ?GetSingleton@ioApplication@@SAAAV1@XZ ; ioApplication::GetSingleton
  00036	ff b0 28 01 00
	00		 push	 DWORD PTR [eax+296]
  0003c	e8 00 00 00 00	 call	 ?ToPlayStage@@YAPAVioPlayStage@@PAVioGameStage@@@Z ; ToPlayStage
  00041	59		 pop	 ecx

; 1154 : 	if(pPlayStage)

  00042	85 c0		 test	 eax, eax
  00044	74 3a		 je	 SHORT $LN3@Save

; 1155 : 	{
; 1156 : 		ioBaseChar *pOnwer = pPlayStage->GetOwnerChar();

  00046	8b c8		 mov	 ecx, eax
  00048	e8 00 00 00 00	 call	 ?GetOwnerChar@ioPlayStage@@QAEPAVioBaseChar@@XZ ; ioPlayStage::GetOwnerChar
  0004d	8b f0		 mov	 esi, eax

; 1157 : 		if(pOnwer)

  0004f	85 f6		 test	 esi, esi
  00051	74 48		 je	 SHORT $LN1@Save

; 1158 : 		{
; 1159 : 			ioUserKeyInput::UseKeyValue kKeys;

  00053	8d 4d e0	 lea	 ecx, DWORD PTR _kKeys$544108[ebp]
  00056	e8 00 00 00 00	 call	 ??0tagUseKeyValue@ioUserKeyInput@@QAE@XZ ; ioUserKeyInput::tagUseKeyValue::tagUseKeyValue

; 1160 : 			kKeys.SetDefaultJoyKey();

  0005b	8d 4d e0	 lea	 ecx, DWORD PTR _kKeys$544108[ebp]
  0005e	e8 00 00 00 00	 call	 ?SetDefaultJoyKey@tagUseKeyValue@ioUserKeyInput@@QAEXXZ ; ioUserKeyInput::tagUseKeyValue::SetDefaultJoyKey

; 1161 : 
; 1162 : 			g_KeyManager.GetJoyGameKey(kKeys);

  00063	8d 45 e0	 lea	 eax, DWORD PTR _kKeys$544108[ebp]
  00066	50		 push	 eax
  00067	e8 00 00 00 00	 call	 ?GetSingleton@ioKeyManager@@SAAAV1@XZ ; ioKeyManager::GetSingleton
  0006c	8b c8		 mov	 ecx, eax
  0006e	e8 00 00 00 00	 call	 ?GetJoyGameKey@ioKeyManager@@QAEXAAUtagUseKeyValue@ioUserKeyInput@@@Z ; ioKeyManager::GetJoyGameKey

; 1163 : 
; 1164 : 			pOnwer->SetUpJoyKeyValue( kKeys );

  00073	8d 45 e0	 lea	 eax, DWORD PTR _kKeys$544108[ebp]
  00076	50		 push	 eax
  00077	8b ce		 mov	 ecx, esi
  00079	e8 00 00 00 00	 call	 ?SetUpJoyKeyValue@ioBaseChar@@QAEXABUtagUseKeyValue@ioUserKeyInput@@@Z ; ioBaseChar::SetUpJoyKeyValue

; 1165 : 		}
; 1166 : 	}
; 1167 : 	else

  0007e	eb 1b		 jmp	 SHORT $LN1@Save
$LN3@Save:

; 1168 : 	{
; 1169 : 		LOG.PrintTimeAndLog(0, "[%s] Can't Get PlayStage!!!!", __FUNCTION__);

  00080	68 00 00 00 00	 push	 OFFSET ??_C@_0CB@LONKILIG@GameOptionSettingJoyKeyTab?3?3Save@
  00085	68 00 00 00 00	 push	 OFFSET ??_C@_0BN@MHJEGNIG@?$FL?$CFs?$FN?5Can?8t?5Get?5PlayStage?$CB?$CB?$CB?$CB?$AA@
  0008a	6a 00		 push	 0
  0008c	ff 35 00 00 00
	00		 push	 DWORD PTR __imp_?LOG@@3VCLog@@A
  00092	ff 15 00 00 00
	00		 call	 DWORD PTR __imp_?PrintTimeAndLog@CLog@@QAAXHPADZZ
  00098	83 c4 10	 add	 esp, 16			; 00000010H
$LN1@Save:
  0009b	5e		 pop	 esi

; 1170 : 	}
; 1171 : }

  0009c	c9		 leave
  0009d	c3		 ret	 0
?Save@GameOptionSettingJoyKeyTab@@QAEXXZ ENDP		; GameOptionSettingJoyKeyTab::Save
_TEXT	ENDS
PUBLIC	?max_size@?$vector@W4ItemType@SettingJoyKeyItemWnd@@V?$allocator@W4ItemType@SettingJoyKeyItemWnd@@@std@@@std@@QBEIXZ ; std::vector<enum SettingJoyKeyItemWnd::ItemType,std::allocator<enum SettingJoyKeyItemWnd::ItemType> >::max_size
; Function compile flags: /Ogsp
; File c:\program files (x86)\microsoft visual studio 10.0\vc\include\vector
;	COMDAT ?max_size@?$vector@W4ItemType@SettingJoyKeyItemWnd@@V?$allocator@W4ItemType@SettingJoyKeyItemWnd@@@std@@@std@@QBEIXZ
_TEXT	SEGMENT
?max_size@?$vector@W4ItemType@SettingJoyKeyItemWnd@@V?$allocator@W4ItemType@SettingJoyKeyItemWnd@@@std@@@std@@QBEIXZ PROC ; std::vector<enum SettingJoyKeyItemWnd::ItemType,std::allocator<enum SettingJoyKeyItemWnd::ItemType> >::max_size, COMDAT
; _this$ = ecx

; 884  : 		return (this->_Alval.max_size());

  00000	b8 ff ff ff 3f	 mov	 eax, 1073741823		; 3fffffffH

; 885  : 		}

  00005	c3		 ret	 0
?max_size@?$vector@W4ItemType@SettingJoyKeyItemWnd@@V?$allocator@W4ItemType@SettingJoyKeyItemWnd@@@std@@@std@@QBEIXZ ENDP ; std::vector<enum SettingJoyKeyItemWnd::ItemType,std::allocator<enum SettingJoyKeyItemWnd::ItemType> >::max_size
_TEXT	ENDS
PUBLIC	??0?$_Vector_val@W4ItemType@SettingJoyKeyItemWnd@@V?$allocator@W4ItemType@SettingJoyKeyItemWnd@@@std@@@std@@QAE@V?$allocator@W4ItemType@SettingJoyKeyItemWnd@@@1@@Z ; std::_Vector_val<enum SettingJoyKeyItemWnd::ItemType,std::allocator<enum SettingJoyKeyItemWnd::ItemType> >::_Vector_val<enum SettingJoyKeyItemWnd::ItemType,std::allocator<enum SettingJoyKeyItemWnd::ItemType> >
; Function compile flags: /Ogsp
;	COMDAT ??0?$_Vector_val@W4ItemType@SettingJoyKeyItemWnd@@V?$allocator@W4ItemType@SettingJoyKeyItemWnd@@@std@@@std@@QAE@V?$allocator@W4ItemType@SettingJoyKeyItemWnd@@@1@@Z
_TEXT	SEGMENT
__Al$ = 8						; size = 1
??0?$_Vector_val@W4ItemType@SettingJoyKeyItemWnd@@V?$allocator@W4ItemType@SettingJoyKeyItemWnd@@@std@@@std@@QAE@V?$allocator@W4ItemType@SettingJoyKeyItemWnd@@@1@@Z PROC ; std::_Vector_val<enum SettingJoyKeyItemWnd::ItemType,std::allocator<enum SettingJoyKeyItemWnd::ItemType> >::_Vector_val<enum SettingJoyKeyItemWnd::ItemType,std::allocator<enum SettingJoyKeyItemWnd::ItemType> >, COMDAT
; _this$ = ecx

; 426  : 		{	// construct allocator from _Al

  00000	8b c1		 mov	 eax, ecx

; 427  : 		_Myfirst = 0;

  00002	33 c9		 xor	 ecx, ecx
  00004	89 08		 mov	 DWORD PTR [eax], ecx

; 428  : 		_Mylast = 0;

  00006	89 48 04	 mov	 DWORD PTR [eax+4], ecx

; 429  : 		_Myend = 0;

  00009	89 48 08	 mov	 DWORD PTR [eax+8], ecx

; 430  : 		}

  0000c	c2 04 00	 ret	 4
??0?$_Vector_val@W4ItemType@SettingJoyKeyItemWnd@@V?$allocator@W4ItemType@SettingJoyKeyItemWnd@@@std@@@std@@QAE@V?$allocator@W4ItemType@SettingJoyKeyItemWnd@@@1@@Z ENDP ; std::_Vector_val<enum SettingJoyKeyItemWnd::ItemType,std::allocator<enum SettingJoyKeyItemWnd::ItemType> >::_Vector_val<enum SettingJoyKeyItemWnd::ItemType,std::allocator<enum SettingJoyKeyItemWnd::ItemType> >
_TEXT	ENDS
PUBLIC	?allocate@?$allocator@W4ItemType@SettingJoyKeyItemWnd@@@std@@QAEPAW4ItemType@SettingJoyKeyItemWnd@@I@Z ; std::allocator<enum SettingJoyKeyItemWnd::ItemType>::allocate
; Function compile flags: /Ogsp
; File c:\program files (x86)\microsoft visual studio 10.0\vc\include\xmemory
;	COMDAT ?allocate@?$allocator@W4ItemType@SettingJoyKeyItemWnd@@@std@@QAEPAW4ItemType@SettingJoyKeyItemWnd@@I@Z
_TEXT	SEGMENT
__Count$ = 8						; size = 4
?allocate@?$allocator@W4ItemType@SettingJoyKeyItemWnd@@@std@@QAEPAW4ItemType@SettingJoyKeyItemWnd@@I@Z PROC ; std::allocator<enum SettingJoyKeyItemWnd::ItemType>::allocate, COMDAT
; _this$ = ecx

; 186  : 		{	// allocate array of _Count elements

  00000	55		 push	 ebp
  00001	8b ec		 mov	 ebp, esp

; 187  : 		return (_Allocate(_Count, (pointer)0));

  00003	6a 00		 push	 0
  00005	ff 75 08	 push	 DWORD PTR __Count$[ebp]
  00008	e8 00 00 00 00	 call	 ??$_Allocate@W4ItemType@SettingJoyKeyItemWnd@@@std@@YAPAW4ItemType@SettingJoyKeyItemWnd@@IPAW412@@Z ; std::_Allocate<enum SettingJoyKeyItemWnd::ItemType>
  0000d	59		 pop	 ecx
  0000e	59		 pop	 ecx

; 188  : 		}

  0000f	5d		 pop	 ebp
  00010	c2 04 00	 ret	 4
?allocate@?$allocator@W4ItemType@SettingJoyKeyItemWnd@@@std@@QAEPAW4ItemType@SettingJoyKeyItemWnd@@I@Z ENDP ; std::allocator<enum SettingJoyKeyItemWnd::ItemType>::allocate
_TEXT	ENDS
PUBLIC	?_Grow_to@?$vector@W4ItemType@SettingJoyKeyItemWnd@@V?$allocator@W4ItemType@SettingJoyKeyItemWnd@@@std@@@std@@IBEII@Z ; std::vector<enum SettingJoyKeyItemWnd::ItemType,std::allocator<enum SettingJoyKeyItemWnd::ItemType> >::_Grow_to
; Function compile flags: /Ogsp
; File c:\program files (x86)\microsoft visual studio 10.0\vc\include\vector
;	COMDAT ?_Grow_to@?$vector@W4ItemType@SettingJoyKeyItemWnd@@V?$allocator@W4ItemType@SettingJoyKeyItemWnd@@@std@@@std@@IBEII@Z
_TEXT	SEGMENT
__Count$ = 8						; size = 4
?_Grow_to@?$vector@W4ItemType@SettingJoyKeyItemWnd@@V?$allocator@W4ItemType@SettingJoyKeyItemWnd@@@std@@@std@@IBEII@Z PROC ; std::vector<enum SettingJoyKeyItemWnd::ItemType,std::allocator<enum SettingJoyKeyItemWnd::ItemType> >::_Grow_to, COMDAT
; _this$ = ecx

; 1274 : 		{	// grow by 50% or at least to _Count

  00000	55		 push	 ebp
  00001	8b ec		 mov	 ebp, esp

; 1275 : 		size_type _Capacity = capacity();

  00003	8b 41 08	 mov	 eax, DWORD PTR [ecx+8]
  00006	2b 01		 sub	 eax, DWORD PTR [ecx]

; 1276 : 
; 1277 : 		_Capacity = max_size() - _Capacity / 2 < _Capacity
; 1278 : 			? 0 : _Capacity + _Capacity / 2;	// try to grow by 50%

  00008	ba ff ff ff 3f	 mov	 edx, 1073741823		; 3fffffffH
  0000d	c1 f8 02	 sar	 eax, 2
  00010	8b c8		 mov	 ecx, eax
  00012	d1 e9		 shr	 ecx, 1
  00014	2b d1		 sub	 edx, ecx
  00016	3b d0		 cmp	 edx, eax
  00018	73 04		 jae	 SHORT $LN4@Grow_to
  0001a	33 c0		 xor	 eax, eax
  0001c	eb 02		 jmp	 SHORT $LN5@Grow_to
$LN4@Grow_to:
  0001e	03 c1		 add	 eax, ecx
$LN5@Grow_to:

; 1279 : 		if (_Capacity < _Count)

  00020	3b 45 08	 cmp	 eax, DWORD PTR __Count$[ebp]

; 1280 : 			_Capacity = _Count;

  00023	0f 42 45 08	 cmovb	 eax, DWORD PTR __Count$[ebp]

; 1281 : 		return (_Capacity);
; 1282 : 		}

  00027	5d		 pop	 ebp
  00028	c2 04 00	 ret	 4
?_Grow_to@?$vector@W4ItemType@SettingJoyKeyItemWnd@@V?$allocator@W4ItemType@SettingJoyKeyItemWnd@@@std@@@std@@IBEII@Z ENDP ; std::vector<enum SettingJoyKeyItemWnd::ItemType,std::allocator<enum SettingJoyKeyItemWnd::ItemType> >::_Grow_to
_TEXT	ENDS
PUBLIC	??0?$_Vector_iterator@V?$_Vector_val@W4ItemType@SettingJoyKeyItemWnd@@V?$allocator@W4ItemType@SettingJoyKeyItemWnd@@@std@@@std@@@std@@QAE@PAW4ItemType@SettingJoyKeyItemWnd@@PBU_Container_base0@1@@Z ; std::_Vector_iterator<std::_Vector_val<enum SettingJoyKeyItemWnd::ItemType,std::allocator<enum SettingJoyKeyItemWnd::ItemType> > >::_Vector_iterator<std::_Vector_val<enum SettingJoyKeyItemWnd::ItemType,std::allocator<enum SettingJoyKeyItemWnd::ItemType> > >
; Function compile flags: /Ogsp
;	COMDAT ??0?$_Vector_iterator@V?$_Vector_val@W4ItemType@SettingJoyKeyItemWnd@@V?$allocator@W4ItemType@SettingJoyKeyItemWnd@@@std@@@std@@@std@@QAE@PAW4ItemType@SettingJoyKeyItemWnd@@PBU_Container_base0@1@@Z
_TEXT	SEGMENT
__Parg$ = 8						; size = 4
__Pvector$ = 12						; size = 4
??0?$_Vector_iterator@V?$_Vector_val@W4ItemType@SettingJoyKeyItemWnd@@V?$allocator@W4ItemType@SettingJoyKeyItemWnd@@@std@@@std@@@std@@QAE@PAW4ItemType@SettingJoyKeyItemWnd@@PBU_Container_base0@1@@Z PROC ; std::_Vector_iterator<std::_Vector_val<enum SettingJoyKeyItemWnd::ItemType,std::allocator<enum SettingJoyKeyItemWnd::ItemType> > >::_Vector_iterator<std::_Vector_val<enum SettingJoyKeyItemWnd::ItemType,std::allocator<enum SettingJoyKeyItemWnd::ItemType> > >, COMDAT
; _this$ = ecx

; 304  : 		{	// construct with pointer _Parg

  00000	55		 push	 ebp
  00001	8b ec		 mov	 ebp, esp
  00003	8b c1		 mov	 eax, ecx
  00005	8b 4d 08	 mov	 ecx, DWORD PTR __Parg$[ebp]
  00008	89 08		 mov	 DWORD PTR [eax], ecx

; 305  : 		}

  0000a	5d		 pop	 ebp
  0000b	c2 08 00	 ret	 8
??0?$_Vector_iterator@V?$_Vector_val@W4ItemType@SettingJoyKeyItemWnd@@V?$allocator@W4ItemType@SettingJoyKeyItemWnd@@@std@@@std@@@std@@QAE@PAW4ItemType@SettingJoyKeyItemWnd@@PBU_Container_base0@1@@Z ENDP ; std::_Vector_iterator<std::_Vector_val<enum SettingJoyKeyItemWnd::ItemType,std::allocator<enum SettingJoyKeyItemWnd::ItemType> > >::_Vector_iterator<std::_Vector_val<enum SettingJoyKeyItemWnd::ItemType,std::allocator<enum SettingJoyKeyItemWnd::ItemType> > >
_TEXT	ENDS
PUBLIC	??8?$_Vector_const_iterator@V?$_Vector_val@W4ItemType@SettingJoyKeyItemWnd@@V?$allocator@W4ItemType@SettingJoyKeyItemWnd@@@std@@@std@@@std@@QBE_NABV01@@Z ; std::_Vector_const_iterator<std::_Vector_val<enum SettingJoyKeyItemWnd::ItemType,std::allocator<enum SettingJoyKeyItemWnd::ItemType> > >::operator==
; Function compile flags: /Ogsp
;	COMDAT ??8?$_Vector_const_iterator@V?$_Vector_val@W4ItemType@SettingJoyKeyItemWnd@@V?$allocator@W4ItemType@SettingJoyKeyItemWnd@@@std@@@std@@@std@@QBE_NABV01@@Z
_TEXT	SEGMENT
__Right$ = 8						; size = 4
??8?$_Vector_const_iterator@V?$_Vector_val@W4ItemType@SettingJoyKeyItemWnd@@V?$allocator@W4ItemType@SettingJoyKeyItemWnd@@@std@@@std@@@std@@QBE_NABV01@@Z PROC ; std::_Vector_const_iterator<std::_Vector_val<enum SettingJoyKeyItemWnd::ItemType,std::allocator<enum SettingJoyKeyItemWnd::ItemType> > >::operator==, COMDAT
; _this$ = ecx

; 201  : 		{	// test for iterator equality

  00000	55		 push	 ebp
  00001	8b ec		 mov	 ebp, esp

; 202  : 		_Compat(_Right);
; 203  : 		return (this->_Ptr == _Right._Ptr);

  00003	8b 01		 mov	 eax, DWORD PTR [ecx]
  00005	8b 4d 08	 mov	 ecx, DWORD PTR __Right$[ebp]
  00008	2b 01		 sub	 eax, DWORD PTR [ecx]
  0000a	f7 d8		 neg	 eax
  0000c	1b c0		 sbb	 eax, eax
  0000e	40		 inc	 eax

; 204  : 		}

  0000f	5d		 pop	 ebp
  00010	c2 04 00	 ret	 4
??8?$_Vector_const_iterator@V?$_Vector_val@W4ItemType@SettingJoyKeyItemWnd@@V?$allocator@W4ItemType@SettingJoyKeyItemWnd@@@std@@@std@@@std@@QBE_NABV01@@Z ENDP ; std::_Vector_const_iterator<std::_Vector_val<enum SettingJoyKeyItemWnd::ItemType,std::allocator<enum SettingJoyKeyItemWnd::ItemType> > >::operator==
_TEXT	ENDS
PUBLIC	__$ArrayPad$
PUBLIC	??$?8$08@@YA_NABVioHashString@@AAY08$$CBD@Z	; operator==<9>
EXTRN	__imp_?c_str@ioHashString@@QBEPBDXZ:PROC
EXTRN	___security_cookie:DWORD
; Function compile flags: /Ogsp
; File d:\lost saga for developer\youtube\tutorial\source\src\io3dengine\iohashstring.h
;	COMDAT ??$?8$08@@YA_NABVioHashString@@AAY08$$CBD@Z
_TEXT	SEGMENT
__t$ = -20						; size = 9
__$ArrayPad$ = -4					; size = 4
_lhs$ = 8						; size = 4
_t$ = 12						; size = 4
??$?8$08@@YA_NABVioHashString@@AAY08$$CBD@Z PROC	; operator==<9>, COMDAT

; 146  : {

  00000	55		 push	 ebp
  00001	8b ec		 mov	 ebp, esp
  00003	83 ec 14	 sub	 esp, 20			; 00000014H
  00006	a1 00 00 00 00	 mov	 eax, DWORD PTR ___security_cookie
  0000b	33 c5		 xor	 eax, ebp
  0000d	89 45 fc	 mov	 DWORD PTR __$ArrayPad$[ebp], eax
  00010	8b 45 0c	 mov	 eax, DWORD PTR _t$[ebp]

; 147  : 	_ENCSTR(t, _t); return ( strcmp( lhs.c_str(), _t ) == 0 );

  00013	8a 10		 mov	 dl, BYTE PTR [eax]
  00015	8b 4d 08	 mov	 ecx, DWORD PTR _lhs$[ebp]
  00018	84 d2		 test	 dl, dl
  0001a	0f 84 ee 00 00
	00		 je	 $LN96@operator
  00020	80 f2 ed	 xor	 dl, -19			; ffffffedH
  00023	88 55 ec	 mov	 BYTE PTR __t$[ebp], dl
  00026	8a 50 01	 mov	 dl, BYTE PTR [eax+1]
  00029	84 d2		 test	 dl, dl
  0002b	0f 84 d7 00 00
	00		 je	 $LN95@operator
  00031	80 f2 ec	 xor	 dl, -20			; ffffffecH
  00034	88 55 ed	 mov	 BYTE PTR __t$[ebp+1], dl
  00037	8a 50 02	 mov	 dl, BYTE PTR [eax+2]
  0003a	84 d2		 test	 dl, dl
  0003c	0f 84 c0 00 00
	00		 je	 $LN94@operator
  00042	80 f2 eb	 xor	 dl, -21			; ffffffebH
  00045	88 55 ee	 mov	 BYTE PTR __t$[ebp+2], dl
  00048	8a 50 03	 mov	 dl, BYTE PTR [eax+3]
  0004b	84 d2		 test	 dl, dl
  0004d	0f 84 a9 00 00
	00		 je	 $LN93@operator
  00053	80 f2 ea	 xor	 dl, -22			; ffffffeaH
  00056	88 55 ef	 mov	 BYTE PTR __t$[ebp+3], dl
  00059	8a 50 04	 mov	 dl, BYTE PTR [eax+4]
  0005c	84 d2		 test	 dl, dl
  0005e	0f 84 92 00 00
	00		 je	 $LN92@operator
  00064	80 f2 ed	 xor	 dl, -19			; ffffffedH
  00067	88 55 f0	 mov	 BYTE PTR __t$[ebp+4], dl
  0006a	8a 50 05	 mov	 dl, BYTE PTR [eax+5]
  0006d	84 d2		 test	 dl, dl
  0006f	74 7f		 je	 SHORT $LN91@operator
  00071	80 f2 ec	 xor	 dl, -20			; ffffffecH
  00074	88 55 f1	 mov	 BYTE PTR __t$[ebp+5], dl
  00077	8a 50 06	 mov	 dl, BYTE PTR [eax+6]
  0007a	84 d2		 test	 dl, dl
  0007c	74 6c		 je	 SHORT $LN90@operator
  0007e	80 f2 eb	 xor	 dl, -21			; ffffffebH
  00081	88 55 f2	 mov	 BYTE PTR __t$[ebp+6], dl
  00084	8a 50 07	 mov	 dl, BYTE PTR [eax+7]
  00087	84 d2		 test	 dl, dl
  00089	74 59		 je	 SHORT $LN89@operator
  0008b	80 f2 ea	 xor	 dl, -22			; ffffffeaH
  0008e	80 78 08 00	 cmp	 BYTE PTR [eax+8], 0
  00092	88 55 f3	 mov	 BYTE PTR __t$[ebp+7], dl
  00095	74 7b		 je	 SHORT $LN1@operator
  00097	8a 50 09	 mov	 dl, BYTE PTR [eax+9]
  0009a	84 d2		 test	 dl, dl
  0009c	74 40		 je	 SHORT $LN87@operator
  0009e	80 f2 ec	 xor	 dl, -20			; ffffffecH
  000a1	88 55 f5	 mov	 BYTE PTR __t$[ebp+9], dl
  000a4	8a 50 0a	 mov	 dl, BYTE PTR [eax+10]
  000a7	84 d2		 test	 dl, dl
  000a9	74 2d		 je	 SHORT $LN86@operator
  000ab	80 f2 eb	 xor	 dl, -21			; ffffffebH
  000ae	88 55 f6	 mov	 BYTE PTR __t$[ebp+10], dl
  000b1	8a 50 0b	 mov	 dl, BYTE PTR [eax+11]
  000b4	84 d2		 test	 dl, dl
  000b6	74 1a		 je	 SHORT $LN85@operator
  000b8	8a 40 0c	 mov	 al, BYTE PTR [eax+12]
  000bb	80 f2 ea	 xor	 dl, -22			; ffffffeaH
  000be	88 55 f7	 mov	 BYTE PTR __t$[ebp+11], dl
  000c1	84 c0		 test	 al, al
  000c3	74 07		 je	 SHORT $LN84@operator
  000c5	34 ed		 xor	 al, -19			; ffffffedH
  000c7	88 45 f8	 mov	 BYTE PTR __t$[ebp+12], al
  000ca	eb 46		 jmp	 SHORT $LN1@operator
$LN84@operator:
  000cc	c6 45 f8 ed	 mov	 BYTE PTR __t$[ebp+12], -19 ; ffffffedH
  000d0	eb 40		 jmp	 SHORT $LN1@operator
$LN85@operator:
  000d2	c6 45 f7 ea	 mov	 BYTE PTR __t$[ebp+11], -22 ; ffffffeaH
  000d6	eb 3a		 jmp	 SHORT $LN1@operator
$LN86@operator:
  000d8	c6 45 f6 eb	 mov	 BYTE PTR __t$[ebp+10], -21 ; ffffffebH
  000dc	eb 34		 jmp	 SHORT $LN1@operator
$LN87@operator:
  000de	c6 45 f5 ec	 mov	 BYTE PTR __t$[ebp+9], -20 ; ffffffecH
  000e2	eb 2e		 jmp	 SHORT $LN1@operator
$LN89@operator:
  000e4	c6 45 f3 ea	 mov	 BYTE PTR __t$[ebp+7], -22 ; ffffffeaH
  000e8	eb 28		 jmp	 SHORT $LN1@operator
$LN90@operator:
  000ea	c6 45 f2 eb	 mov	 BYTE PTR __t$[ebp+6], -21 ; ffffffebH
  000ee	eb 22		 jmp	 SHORT $LN1@operator
$LN91@operator:
  000f0	c6 45 f1 ec	 mov	 BYTE PTR __t$[ebp+5], -20 ; ffffffecH
  000f4	eb 1c		 jmp	 SHORT $LN1@operator
$LN92@operator:
  000f6	c6 45 f0 ed	 mov	 BYTE PTR __t$[ebp+4], -19 ; ffffffedH
  000fa	eb 16		 jmp	 SHORT $LN1@operator
$LN93@operator:
  000fc	c6 45 ef ea	 mov	 BYTE PTR __t$[ebp+3], -22 ; ffffffeaH
  00100	eb 10		 jmp	 SHORT $LN1@operator
$LN94@operator:
  00102	c6 45 ee eb	 mov	 BYTE PTR __t$[ebp+2], -21 ; ffffffebH
  00106	eb 0a		 jmp	 SHORT $LN1@operator
$LN95@operator:
  00108	c6 45 ed ec	 mov	 BYTE PTR __t$[ebp+1], -20 ; ffffffecH
  0010c	eb 04		 jmp	 SHORT $LN1@operator
$LN96@operator:
  0010e	c6 45 ec ed	 mov	 BYTE PTR __t$[ebp], -19	; ffffffedH
$LN1@operator:
  00112	6a 02		 push	 2
  00114	8d 45 ec	 lea	 eax, DWORD PTR __t$[ebp]
  00117	c6 45 f4 00	 mov	 BYTE PTR __t$[ebp+8], 0
  0011b	5a		 pop	 edx
$LL104@operator:
  0011c	81 30 ed ec eb
	ea		 xor	 DWORD PTR [eax], -353637139 ; eaebecedH
  00122	83 c0 04	 add	 eax, 4
  00125	4a		 dec	 edx
  00126	75 f4		 jne	 SHORT $LL104@operator
  00128	56		 push	 esi
  00129	8d 75 ec	 lea	 esi, DWORD PTR __t$[ebp]
  0012c	ff 15 00 00 00
	00		 call	 DWORD PTR __imp_?c_str@ioHashString@@QBEPBDXZ
$LL111@operator:
  00132	8a 08		 mov	 cl, BYTE PTR [eax]
  00134	3a 0e		 cmp	 cl, BYTE PTR [esi]
  00136	75 1a		 jne	 SHORT $LN112@operator
  00138	84 c9		 test	 cl, cl
  0013a	74 12		 je	 SHORT $LN113@operator
  0013c	8a 48 01	 mov	 cl, BYTE PTR [eax+1]
  0013f	3a 4e 01	 cmp	 cl, BYTE PTR [esi+1]
  00142	75 0e		 jne	 SHORT $LN112@operator
  00144	83 c0 02	 add	 eax, 2
  00147	83 c6 02	 add	 esi, 2
  0014a	84 c9		 test	 cl, cl
  0014c	75 e4		 jne	 SHORT $LL111@operator
$LN113@operator:
  0014e	33 c0		 xor	 eax, eax
  00150	eb 05		 jmp	 SHORT $LN114@operator
$LN112@operator:
  00152	1b c0		 sbb	 eax, eax
  00154	83 d8 ff	 sbb	 eax, -1
$LN114@operator:
  00157	33 c9		 xor	 ecx, ecx
  00159	85 c0		 test	 eax, eax
  0015b	0f 94 c0	 sete	 al

; 148  : }

  0015e	8b 4d fc	 mov	 ecx, DWORD PTR __$ArrayPad$[ebp]
  00161	33 cd		 xor	 ecx, ebp
  00163	5e		 pop	 esi
  00164	e8 00 00 00 00	 call	 @__security_check_cookie@4
  00169	c9		 leave
  0016a	c3		 ret	 0
??$?8$08@@YA_NABVioHashString@@AAY08$$CBD@Z ENDP	; operator==<9>
_TEXT	ENDS
PUBLIC	__$ArrayPad$
PUBLIC	??$?8$0L@@@YA_NABVioHashString@@AAY0L@$$CBD@Z	; operator==<11>
; Function compile flags: /Ogsp
;	COMDAT ??$?8$0L@@@YA_NABVioHashString@@AAY0L@$$CBD@Z
_TEXT	SEGMENT
__t$ = -20						; size = 11
__$ArrayPad$ = -4					; size = 4
_lhs$ = 8						; size = 4
_t$ = 12						; size = 4
??$?8$0L@@@YA_NABVioHashString@@AAY0L@$$CBD@Z PROC	; operator==<11>, COMDAT

; 146  : {

  00000	55		 push	 ebp
  00001	8b ec		 mov	 ebp, esp
  00003	83 ec 14	 sub	 esp, 20			; 00000014H
  00006	a1 00 00 00 00	 mov	 eax, DWORD PTR ___security_cookie
  0000b	33 c5		 xor	 eax, ebp
  0000d	89 45 fc	 mov	 DWORD PTR __$ArrayPad$[ebp], eax
  00010	8b 45 0c	 mov	 eax, DWORD PTR _t$[ebp]

; 147  : 	_ENCSTR(t, _t); return ( strcmp( lhs.c_str(), _t ) == 0 );

  00013	8a 10		 mov	 dl, BYTE PTR [eax]
  00015	56		 push	 esi
  00016	57		 push	 edi
  00017	8b 7d 08	 mov	 edi, DWORD PTR _lhs$[ebp]
  0001a	84 d2		 test	 dl, dl
  0001c	0f 84 24 01 00
	00		 je	 $LN96@operator@2
  00022	80 f2 ed	 xor	 dl, -19			; ffffffedH
  00025	88 55 ec	 mov	 BYTE PTR __t$[ebp], dl
  00028	8a 50 01	 mov	 dl, BYTE PTR [eax+1]
  0002b	84 d2		 test	 dl, dl
  0002d	0f 84 0d 01 00
	00		 je	 $LN95@operator@2
  00033	80 f2 ec	 xor	 dl, -20			; ffffffecH
  00036	88 55 ed	 mov	 BYTE PTR __t$[ebp+1], dl
  00039	8a 50 02	 mov	 dl, BYTE PTR [eax+2]
  0003c	84 d2		 test	 dl, dl
  0003e	0f 84 f6 00 00
	00		 je	 $LN94@operator@2
  00044	80 f2 eb	 xor	 dl, -21			; ffffffebH
  00047	88 55 ee	 mov	 BYTE PTR __t$[ebp+2], dl
  0004a	8a 50 03	 mov	 dl, BYTE PTR [eax+3]
  0004d	84 d2		 test	 dl, dl
  0004f	0f 84 df 00 00
	00		 je	 $LN93@operator@2
  00055	80 f2 ea	 xor	 dl, -22			; ffffffeaH
  00058	88 55 ef	 mov	 BYTE PTR __t$[ebp+3], dl
  0005b	8a 50 04	 mov	 dl, BYTE PTR [eax+4]
  0005e	84 d2		 test	 dl, dl
  00060	0f 84 c8 00 00
	00		 je	 $LN92@operator@2
  00066	80 f2 ed	 xor	 dl, -19			; ffffffedH
  00069	88 55 f0	 mov	 BYTE PTR __t$[ebp+4], dl
  0006c	8a 50 05	 mov	 dl, BYTE PTR [eax+5]
  0006f	84 d2		 test	 dl, dl
  00071	0f 84 b1 00 00
	00		 je	 $LN91@operator@2
  00077	80 f2 ec	 xor	 dl, -20			; ffffffecH
  0007a	88 55 f1	 mov	 BYTE PTR __t$[ebp+5], dl
  0007d	8a 50 06	 mov	 dl, BYTE PTR [eax+6]
  00080	84 d2		 test	 dl, dl
  00082	0f 84 9a 00 00
	00		 je	 $LN90@operator@2
  00088	80 f2 eb	 xor	 dl, -21			; ffffffebH
  0008b	88 55 f2	 mov	 BYTE PTR __t$[ebp+6], dl
  0008e	8a 50 07	 mov	 dl, BYTE PTR [eax+7]
  00091	84 d2		 test	 dl, dl
  00093	0f 84 83 00 00
	00		 je	 $LN89@operator@2
  00099	80 f2 ea	 xor	 dl, -22			; ffffffeaH
  0009c	88 55 f3	 mov	 BYTE PTR __t$[ebp+7], dl
  0009f	8a 50 08	 mov	 dl, BYTE PTR [eax+8]
  000a2	84 d2		 test	 dl, dl
  000a4	74 70		 je	 SHORT $LN88@operator@2
  000a6	80 f2 ed	 xor	 dl, -19			; ffffffedH
  000a9	88 55 f4	 mov	 BYTE PTR __t$[ebp+8], dl
  000ac	8a 50 09	 mov	 dl, BYTE PTR [eax+9]
  000af	84 d2		 test	 dl, dl
  000b1	74 5d		 je	 SHORT $LN87@operator@2
  000b3	80 f2 ec	 xor	 dl, -20			; ffffffecH
  000b6	80 78 0a 00	 cmp	 BYTE PTR [eax+10], 0
  000ba	88 55 f5	 mov	 BYTE PTR __t$[ebp+9], dl
  000bd	0f 84 87 00 00
	00		 je	 $LN1@operator@2
  000c3	8a 50 0b	 mov	 dl, BYTE PTR [eax+11]
  000c6	84 d2		 test	 dl, dl
  000c8	74 40		 je	 SHORT $LN85@operator@2
  000ca	80 f2 ea	 xor	 dl, -22			; ffffffeaH
  000cd	88 55 f7	 mov	 BYTE PTR __t$[ebp+11], dl
  000d0	8a 50 0c	 mov	 dl, BYTE PTR [eax+12]
  000d3	84 d2		 test	 dl, dl
  000d5	74 2d		 je	 SHORT $LN84@operator@2
  000d7	80 f2 ed	 xor	 dl, -19			; ffffffedH
  000da	88 55 f8	 mov	 BYTE PTR __t$[ebp+12], dl
  000dd	8a 50 0d	 mov	 dl, BYTE PTR [eax+13]
  000e0	84 d2		 test	 dl, dl
  000e2	74 1a		 je	 SHORT $LN83@operator@2
  000e4	8a 40 0e	 mov	 al, BYTE PTR [eax+14]
  000e7	80 f2 ec	 xor	 dl, -20			; ffffffecH
  000ea	88 55 f9	 mov	 BYTE PTR __t$[ebp+13], dl
  000ed	84 c0		 test	 al, al
  000ef	74 07		 je	 SHORT $LN82@operator@2
  000f1	34 eb		 xor	 al, -21			; ffffffebH
  000f3	88 45 fa	 mov	 BYTE PTR __t$[ebp+14], al
  000f6	eb 52		 jmp	 SHORT $LN1@operator@2
$LN82@operator@2:
  000f8	c6 45 fa eb	 mov	 BYTE PTR __t$[ebp+14], -21 ; ffffffebH
  000fc	eb 4c		 jmp	 SHORT $LN1@operator@2
$LN83@operator@2:
  000fe	c6 45 f9 ec	 mov	 BYTE PTR __t$[ebp+13], -20 ; ffffffecH
  00102	eb 46		 jmp	 SHORT $LN1@operator@2
$LN84@operator@2:
  00104	c6 45 f8 ed	 mov	 BYTE PTR __t$[ebp+12], -19 ; ffffffedH
  00108	eb 40		 jmp	 SHORT $LN1@operator@2
$LN85@operator@2:
  0010a	c6 45 f7 ea	 mov	 BYTE PTR __t$[ebp+11], -22 ; ffffffeaH
  0010e	eb 3a		 jmp	 SHORT $LN1@operator@2
$LN87@operator@2:
  00110	c6 45 f5 ec	 mov	 BYTE PTR __t$[ebp+9], -20 ; ffffffecH
  00114	eb 34		 jmp	 SHORT $LN1@operator@2
$LN88@operator@2:
  00116	c6 45 f4 ed	 mov	 BYTE PTR __t$[ebp+8], -19 ; ffffffedH
  0011a	eb 2e		 jmp	 SHORT $LN1@operator@2
$LN89@operator@2:
  0011c	c6 45 f3 ea	 mov	 BYTE PTR __t$[ebp+7], -22 ; ffffffeaH
  00120	eb 28		 jmp	 SHORT $LN1@operator@2
$LN90@operator@2:
  00122	c6 45 f2 eb	 mov	 BYTE PTR __t$[ebp+6], -21 ; ffffffebH
  00126	eb 22		 jmp	 SHORT $LN1@operator@2
$LN91@operator@2:
  00128	c6 45 f1 ec	 mov	 BYTE PTR __t$[ebp+5], -20 ; ffffffecH
  0012c	eb 1c		 jmp	 SHORT $LN1@operator@2
$LN92@operator@2:
  0012e	c6 45 f0 ed	 mov	 BYTE PTR __t$[ebp+4], -19 ; ffffffedH
  00132	eb 16		 jmp	 SHORT $LN1@operator@2
$LN93@operator@2:
  00134	c6 45 ef ea	 mov	 BYTE PTR __t$[ebp+3], -22 ; ffffffeaH
  00138	eb 10		 jmp	 SHORT $LN1@operator@2
$LN94@operator@2:
  0013a	c6 45 ee eb	 mov	 BYTE PTR __t$[ebp+2], -21 ; ffffffebH
  0013e	eb 0a		 jmp	 SHORT $LN1@operator@2
$LN95@operator@2:
  00140	c6 45 ed ec	 mov	 BYTE PTR __t$[ebp+1], -20 ; ffffffecH
  00144	eb 04		 jmp	 SHORT $LN1@operator@2
$LN96@operator@2:
  00146	c6 45 ec ed	 mov	 BYTE PTR __t$[ebp], -19	; ffffffedH
$LN1@operator@2:
  0014a	6a 02		 push	 2
  0014c	8d 45 ec	 lea	 eax, DWORD PTR __t$[ebp]
  0014f	c6 45 f6 00	 mov	 BYTE PTR __t$[ebp+10], 0
  00153	5a		 pop	 edx
$LL104@operator@2:
  00154	81 30 ed ec eb
	ea		 xor	 DWORD PTR [eax], -353637139 ; eaebecedH
  0015a	83 c0 04	 add	 eax, 4
  0015d	4a		 dec	 edx
  0015e	75 f4		 jne	 SHORT $LL104@operator@2
  00160	6a 08		 push	 8
  00162	58		 pop	 eax
$LL101@operator@2:
  00163	8b c8		 mov	 ecx, eax
  00165	81 e1 03 00 00
	80		 and	 ecx, -2147483645	; 80000003H
  0016b	79 05		 jns	 SHORT $LN115@operator@2
  0016d	49		 dec	 ecx
  0016e	83 c9 fc	 or	 ecx, -4			; fffffffcH
  00171	41		 inc	 ecx
$LN115@operator@2:
  00172	b2 ed		 mov	 dl, -19			; ffffffedH
  00174	2a d1		 sub	 dl, cl
  00176	30 54 05 ec	 xor	 BYTE PTR __t$[ebp+eax], dl
  0017a	40		 inc	 eax
  0017b	83 f8 0a	 cmp	 eax, 10			; 0000000aH
  0017e	7c e3		 jl	 SHORT $LL101@operator@2
  00180	8b cf		 mov	 ecx, edi
  00182	8d 75 ec	 lea	 esi, DWORD PTR __t$[ebp]
  00185	ff 15 00 00 00
	00		 call	 DWORD PTR __imp_?c_str@ioHashString@@QBEPBDXZ
$LL111@operator@2:
  0018b	8a 08		 mov	 cl, BYTE PTR [eax]
  0018d	3a 0e		 cmp	 cl, BYTE PTR [esi]
  0018f	75 1a		 jne	 SHORT $LN112@operator@2
  00191	84 c9		 test	 cl, cl
  00193	74 12		 je	 SHORT $LN113@operator@2
  00195	8a 48 01	 mov	 cl, BYTE PTR [eax+1]
  00198	3a 4e 01	 cmp	 cl, BYTE PTR [esi+1]
  0019b	75 0e		 jne	 SHORT $LN112@operator@2
  0019d	83 c0 02	 add	 eax, 2
  001a0	83 c6 02	 add	 esi, 2
  001a3	84 c9		 test	 cl, cl
  001a5	75 e4		 jne	 SHORT $LL111@operator@2
$LN113@operator@2:
  001a7	33 c0		 xor	 eax, eax
  001a9	eb 05		 jmp	 SHORT $LN114@operator@2
$LN112@operator@2:
  001ab	1b c0		 sbb	 eax, eax
  001ad	83 d8 ff	 sbb	 eax, -1
$LN114@operator@2:
  001b0	33 c9		 xor	 ecx, ecx
  001b2	85 c0		 test	 eax, eax
  001b4	0f 94 c0	 sete	 al

; 148  : }

  001b7	8b 4d fc	 mov	 ecx, DWORD PTR __$ArrayPad$[ebp]
  001ba	5f		 pop	 edi
  001bb	33 cd		 xor	 ecx, ebp
  001bd	5e		 pop	 esi
  001be	e8 00 00 00 00	 call	 @__security_check_cookie@4
  001c3	c9		 leave
  001c4	c3		 ret	 0
??$?8$0L@@@YA_NABVioHashString@@AAY0L@$$CBD@Z ENDP	; operator==<11>
_TEXT	ENDS
PUBLIC	__$ArrayPad$
PUBLIC	??$SetTitle_e@$0N@@ioINILoader@@QAEXAAY0N@$$CBD@Z ; ioINILoader::SetTitle_e<13>
EXTRN	__imp_?SetTitle@ioINILoader@@QAEXPBD@Z:PROC
; Function compile flags: /Ogsp
; File d:\lost saga for developer\youtube\tutorial\source\src\io3dengine\ioiniloader.h
;	COMDAT ??$SetTitle_e@$0N@@ioINILoader@@QAEXAAY0N@$$CBD@Z
_TEXT	SEGMENT
__t$ = -24						; size = 13
__$ArrayPad$ = -4					; size = 4
_t$ = 8							; size = 4
??$SetTitle_e@$0N@@ioINILoader@@QAEXAAY0N@$$CBD@Z PROC	; ioINILoader::SetTitle_e<13>, COMDAT
; _this$ = ecx

; 188  : 	{

  00000	55		 push	 ebp
  00001	8b ec		 mov	 ebp, esp
  00003	83 ec 18	 sub	 esp, 24			; 00000018H
  00006	a1 00 00 00 00	 mov	 eax, DWORD PTR ___security_cookie
  0000b	33 c5		 xor	 eax, ebp
  0000d	89 45 fc	 mov	 DWORD PTR __$ArrayPad$[ebp], eax
  00010	8b 45 08	 mov	 eax, DWORD PTR _t$[ebp]

; 189  : 		_ENCSTR(t, _t);

  00013	8a 10		 mov	 dl, BYTE PTR [eax]
  00015	56		 push	 esi
  00016	8b f1		 mov	 esi, ecx
  00018	84 d2		 test	 dl, dl
  0001a	0f 84 4d 01 00
	00		 je	 $LN96@SetTitle_e
  00020	80 f2 ed	 xor	 dl, -19			; ffffffedH
  00023	88 55 e8	 mov	 BYTE PTR __t$[ebp], dl
  00026	8a 50 01	 mov	 dl, BYTE PTR [eax+1]
  00029	84 d2		 test	 dl, dl
  0002b	0f 84 36 01 00
	00		 je	 $LN95@SetTitle_e
  00031	b1 ec		 mov	 cl, -20			; ffffffecH
  00033	32 d1		 xor	 dl, cl
  00035	88 55 e9	 mov	 BYTE PTR __t$[ebp+1], dl
  00038	8a 50 02	 mov	 dl, BYTE PTR [eax+2]
  0003b	84 d2		 test	 dl, dl
  0003d	0f 84 1e 01 00
	00		 je	 $LN94@SetTitle_e
  00043	80 f2 eb	 xor	 dl, -21			; ffffffebH
  00046	88 55 ea	 mov	 BYTE PTR __t$[ebp+2], dl
  00049	8a 50 03	 mov	 dl, BYTE PTR [eax+3]
  0004c	84 d2		 test	 dl, dl
  0004e	0f 84 07 01 00
	00		 je	 $LN93@SetTitle_e
  00054	80 f2 ea	 xor	 dl, -22			; ffffffeaH
  00057	88 55 eb	 mov	 BYTE PTR __t$[ebp+3], dl
  0005a	8a 50 04	 mov	 dl, BYTE PTR [eax+4]
  0005d	84 d2		 test	 dl, dl
  0005f	0f 84 f0 00 00
	00		 je	 $LN92@SetTitle_e
  00065	80 f2 ed	 xor	 dl, -19			; ffffffedH
  00068	88 55 ec	 mov	 BYTE PTR __t$[ebp+4], dl
  0006b	8a 50 05	 mov	 dl, BYTE PTR [eax+5]
  0006e	84 d2		 test	 dl, dl
  00070	0f 84 da 00 00
	00		 je	 $LN91@SetTitle_e
  00076	32 d1		 xor	 dl, cl
  00078	88 55 ed	 mov	 BYTE PTR __t$[ebp+5], dl
  0007b	8a 50 06	 mov	 dl, BYTE PTR [eax+6]
  0007e	84 d2		 test	 dl, dl
  00080	0f 84 c4 00 00
	00		 je	 $LN90@SetTitle_e
  00086	80 f2 eb	 xor	 dl, -21			; ffffffebH
  00089	88 55 ee	 mov	 BYTE PTR __t$[ebp+6], dl
  0008c	8a 50 07	 mov	 dl, BYTE PTR [eax+7]
  0008f	84 d2		 test	 dl, dl
  00091	0f 84 ad 00 00
	00		 je	 $LN89@SetTitle_e
  00097	80 f2 ea	 xor	 dl, -22			; ffffffeaH
  0009a	88 55 ef	 mov	 BYTE PTR __t$[ebp+7], dl
  0009d	8a 50 08	 mov	 dl, BYTE PTR [eax+8]
  000a0	84 d2		 test	 dl, dl
  000a2	0f 84 96 00 00
	00		 je	 $LN88@SetTitle_e
  000a8	80 f2 ed	 xor	 dl, -19			; ffffffedH
  000ab	88 55 f0	 mov	 BYTE PTR __t$[ebp+8], dl
  000ae	8a 50 09	 mov	 dl, BYTE PTR [eax+9]
  000b1	84 d2		 test	 dl, dl
  000b3	0f 84 80 00 00
	00		 je	 $LN87@SetTitle_e
  000b9	32 d1		 xor	 dl, cl
  000bb	88 55 f1	 mov	 BYTE PTR __t$[ebp+9], dl
  000be	8a 50 0a	 mov	 dl, BYTE PTR [eax+10]
  000c1	84 d2		 test	 dl, dl
  000c3	74 6e		 je	 SHORT $LN86@SetTitle_e
  000c5	80 f2 eb	 xor	 dl, -21			; ffffffebH
  000c8	88 55 f2	 mov	 BYTE PTR __t$[ebp+10], dl
  000cb	8a 50 0b	 mov	 dl, BYTE PTR [eax+11]
  000ce	84 d2		 test	 dl, dl
  000d0	74 5b		 je	 SHORT $LN85@SetTitle_e
  000d2	80 f2 ea	 xor	 dl, -22			; ffffffeaH
  000d5	80 78 0c 00	 cmp	 BYTE PTR [eax+12], 0
  000d9	88 55 f3	 mov	 BYTE PTR __t$[ebp+11], dl
  000dc	0f 84 8f 00 00
	00		 je	 $LN1@SetTitle_e
  000e2	8a 50 0d	 mov	 dl, BYTE PTR [eax+13]
  000e5	84 d2		 test	 dl, dl
  000e7	74 3f		 je	 SHORT $LN83@SetTitle_e
  000e9	32 d1		 xor	 dl, cl
  000eb	88 55 f5	 mov	 BYTE PTR __t$[ebp+13], dl
  000ee	8a 50 0e	 mov	 dl, BYTE PTR [eax+14]
  000f1	84 d2		 test	 dl, dl
  000f3	74 2d		 je	 SHORT $LN82@SetTitle_e
  000f5	80 f2 eb	 xor	 dl, -21			; ffffffebH
  000f8	88 55 f6	 mov	 BYTE PTR __t$[ebp+14], dl
  000fb	8a 50 0f	 mov	 dl, BYTE PTR [eax+15]
  000fe	84 d2		 test	 dl, dl
  00100	74 1a		 je	 SHORT $LN81@SetTitle_e
  00102	8a 40 10	 mov	 al, BYTE PTR [eax+16]
  00105	80 f2 ea	 xor	 dl, -22			; ffffffeaH
  00108	88 55 f7	 mov	 BYTE PTR __t$[ebp+15], dl
  0010b	84 c0		 test	 al, al
  0010d	74 07		 je	 SHORT $LN80@SetTitle_e
  0010f	34 ed		 xor	 al, -19			; ffffffedH
  00111	88 45 f8	 mov	 BYTE PTR __t$[ebp+16], al
  00114	eb 5b		 jmp	 SHORT $LN1@SetTitle_e
$LN80@SetTitle_e:
  00116	c6 45 f8 ed	 mov	 BYTE PTR __t$[ebp+16], -19 ; ffffffedH
  0011a	eb 55		 jmp	 SHORT $LN1@SetTitle_e
$LN81@SetTitle_e:
  0011c	c6 45 f7 ea	 mov	 BYTE PTR __t$[ebp+15], -22 ; ffffffeaH
  00120	eb 4f		 jmp	 SHORT $LN1@SetTitle_e
$LN82@SetTitle_e:
  00122	c6 45 f6 eb	 mov	 BYTE PTR __t$[ebp+14], -21 ; ffffffebH
  00126	eb 49		 jmp	 SHORT $LN1@SetTitle_e
$LN83@SetTitle_e:
  00128	88 4d f5	 mov	 BYTE PTR __t$[ebp+13], cl
  0012b	eb 44		 jmp	 SHORT $LN1@SetTitle_e
$LN85@SetTitle_e:
  0012d	c6 45 f3 ea	 mov	 BYTE PTR __t$[ebp+11], -22 ; ffffffeaH
  00131	eb 3e		 jmp	 SHORT $LN1@SetTitle_e
$LN86@SetTitle_e:
  00133	c6 45 f2 eb	 mov	 BYTE PTR __t$[ebp+10], -21 ; ffffffebH
  00137	eb 38		 jmp	 SHORT $LN1@SetTitle_e
$LN87@SetTitle_e:
  00139	88 4d f1	 mov	 BYTE PTR __t$[ebp+9], cl
  0013c	eb 33		 jmp	 SHORT $LN1@SetTitle_e
$LN88@SetTitle_e:
  0013e	c6 45 f0 ed	 mov	 BYTE PTR __t$[ebp+8], -19 ; ffffffedH
  00142	eb 2d		 jmp	 SHORT $LN1@SetTitle_e
$LN89@SetTitle_e:
  00144	c6 45 ef ea	 mov	 BYTE PTR __t$[ebp+7], -22 ; ffffffeaH
  00148	eb 27		 jmp	 SHORT $LN1@SetTitle_e
$LN90@SetTitle_e:
  0014a	c6 45 ee eb	 mov	 BYTE PTR __t$[ebp+6], -21 ; ffffffebH
  0014e	eb 21		 jmp	 SHORT $LN1@SetTitle_e
$LN91@SetTitle_e:
  00150	88 4d ed	 mov	 BYTE PTR __t$[ebp+5], cl
  00153	eb 1c		 jmp	 SHORT $LN1@SetTitle_e
$LN92@SetTitle_e:
  00155	c6 45 ec ed	 mov	 BYTE PTR __t$[ebp+4], -19 ; ffffffedH
  00159	eb 16		 jmp	 SHORT $LN1@SetTitle_e
$LN93@SetTitle_e:
  0015b	c6 45 eb ea	 mov	 BYTE PTR __t$[ebp+3], -22 ; ffffffeaH
  0015f	eb 10		 jmp	 SHORT $LN1@SetTitle_e
$LN94@SetTitle_e:
  00161	c6 45 ea eb	 mov	 BYTE PTR __t$[ebp+2], -21 ; ffffffebH
  00165	eb 0a		 jmp	 SHORT $LN1@SetTitle_e
$LN95@SetTitle_e:
  00167	c6 45 e9 ec	 mov	 BYTE PTR __t$[ebp+1], -20 ; ffffffecH
  0016b	eb 04		 jmp	 SHORT $LN1@SetTitle_e
$LN96@SetTitle_e:
  0016d	c6 45 e8 ed	 mov	 BYTE PTR __t$[ebp], -19	; ffffffedH
$LN1@SetTitle_e:
  00171	6a 03		 push	 3
  00173	8d 45 e8	 lea	 eax, DWORD PTR __t$[ebp]
  00176	c6 45 f4 00	 mov	 BYTE PTR __t$[ebp+12], 0
  0017a	5a		 pop	 edx
$LL104@SetTitle_e:
  0017b	81 30 ed ec eb
	ea		 xor	 DWORD PTR [eax], -353637139 ; eaebecedH
  00181	83 c0 04	 add	 eax, 4
  00184	4a		 dec	 edx
  00185	75 f4		 jne	 SHORT $LL104@SetTitle_e

; 190  : 		SetTitle(_t);

  00187	8d 45 e8	 lea	 eax, DWORD PTR __t$[ebp]
  0018a	50		 push	 eax
  0018b	8b ce		 mov	 ecx, esi
  0018d	ff 15 00 00 00
	00		 call	 DWORD PTR __imp_?SetTitle@ioINILoader@@QAEXPBD@Z

; 191  : 	}

  00193	8b 4d fc	 mov	 ecx, DWORD PTR __$ArrayPad$[ebp]
  00196	33 cd		 xor	 ecx, ebp
  00198	5e		 pop	 esi
  00199	e8 00 00 00 00	 call	 @__security_check_cookie@4
  0019e	c9		 leave
  0019f	c2 04 00	 ret	 4
??$SetTitle_e@$0N@@ioINILoader@@QAEXAAY0N@$$CBD@Z ENDP	; ioINILoader::SetTitle_e<13>
_TEXT	ENDS
PUBLIC	??$_Cons_val@V?$allocator@W4ItemType@SettingJoyKeyItemWnd@@@std@@W4ItemType@SettingJoyKeyItemWnd@@W434@@std@@YAXAAV?$allocator@W4ItemType@SettingJoyKeyItemWnd@@@0@PAW4ItemType@SettingJoyKeyItemWnd@@$$QAW423@@Z ; std::_Cons_val<std::allocator<enum SettingJoyKeyItemWnd::ItemType>,enum SettingJoyKeyItemWnd::ItemType,enum SettingJoyKeyItemWnd::ItemType>
; Function compile flags: /Ogsp
; File c:\program files (x86)\microsoft visual studio 10.0\vc\include\xmemory
;	COMDAT ??$_Cons_val@V?$allocator@W4ItemType@SettingJoyKeyItemWnd@@@std@@W4ItemType@SettingJoyKeyItemWnd@@W434@@std@@YAXAAV?$allocator@W4ItemType@SettingJoyKeyItemWnd@@@0@PAW4ItemType@SettingJoyKeyItemWnd@@$$QAW423@@Z
_TEXT	SEGMENT
__Alval$ = 8						; size = 4
__Pdest$ = 12						; size = 4
__Src$ = 16						; size = 4
??$_Cons_val@V?$allocator@W4ItemType@SettingJoyKeyItemWnd@@@std@@W4ItemType@SettingJoyKeyItemWnd@@W434@@std@@YAXAAV?$allocator@W4ItemType@SettingJoyKeyItemWnd@@@0@PAW4ItemType@SettingJoyKeyItemWnd@@$$QAW423@@Z PROC ; std::_Cons_val<std::allocator<enum SettingJoyKeyItemWnd::ItemType>,enum SettingJoyKeyItemWnd::ItemType,enum SettingJoyKeyItemWnd::ItemType>, COMDAT

; 279  : 	{	// construct using allocator

  00000	55		 push	 ebp
  00001	8b ec		 mov	 ebp, esp

; 280  : 	_Alval.construct(_Pdest, _STD forward<_Ty2>(_Src));

  00003	8b 45 0c	 mov	 eax, DWORD PTR __Pdest$[ebp]
  00006	85 c0		 test	 eax, eax
  00008	74 07		 je	 SHORT $LN7@Cons_val
  0000a	8b 4d 10	 mov	 ecx, DWORD PTR __Src$[ebp]
  0000d	8b 09		 mov	 ecx, DWORD PTR [ecx]
  0000f	89 08		 mov	 DWORD PTR [eax], ecx
$LN7@Cons_val:

; 281  : 	}

  00011	5d		 pop	 ebp
  00012	c3		 ret	 0
??$_Cons_val@V?$allocator@W4ItemType@SettingJoyKeyItemWnd@@@std@@W4ItemType@SettingJoyKeyItemWnd@@W434@@std@@YAXAAV?$allocator@W4ItemType@SettingJoyKeyItemWnd@@@0@PAW4ItemType@SettingJoyKeyItemWnd@@$$QAW423@@Z ENDP ; std::_Cons_val<std::allocator<enum SettingJoyKeyItemWnd::ItemType>,enum SettingJoyKeyItemWnd::ItemType,enum SettingJoyKeyItemWnd::ItemType>
_TEXT	ENDS
PUBLIC	??$_Move@PAW4ItemType@SettingJoyKeyItemWnd@@PAW412@@std@@YAPAW4ItemType@SettingJoyKeyItemWnd@@PAW412@00@Z ; std::_Move<enum SettingJoyKeyItemWnd::ItemType *,enum SettingJoyKeyItemWnd::ItemType *>
; Function compile flags: /Ogsp
; File c:\program files (x86)\microsoft visual studio 10.0\vc\include\xutility
;	COMDAT ??$_Move@PAW4ItemType@SettingJoyKeyItemWnd@@PAW412@@std@@YAPAW4ItemType@SettingJoyKeyItemWnd@@PAW412@00@Z
_TEXT	SEGMENT
__Cat$546563 = -4					; size = 1
__First$ = 8						; size = 4
__Last$ = 12						; size = 4
__Dest$ = 16						; size = 4
??$_Move@PAW4ItemType@SettingJoyKeyItemWnd@@PAW412@@std@@YAPAW4ItemType@SettingJoyKeyItemWnd@@PAW412@00@Z PROC ; std::_Move<enum SettingJoyKeyItemWnd::ItemType *,enum SettingJoyKeyItemWnd::ItemType *>, COMDAT

; 2533 : 	{	// move [_First, _Last) to [_Dest, ...), unchecked

  00000	55		 push	 ebp
  00001	8b ec		 mov	 ebp, esp
  00003	51		 push	 ecx

; 2534 : 	return (_Move(_First, _Last,
; 2535 : 		_Dest, _Ptr_cat(_First, _Dest)));

  00004	ff 75 fc	 push	 DWORD PTR __Cat$546563[ebp]
  00007	ff 75 10	 push	 DWORD PTR __Dest$[ebp]
  0000a	ff 75 0c	 push	 DWORD PTR __Last$[ebp]
  0000d	ff 75 08	 push	 DWORD PTR __First$[ebp]
  00010	e8 00 00 00 00	 call	 ??$_Move@PAW4ItemType@SettingJoyKeyItemWnd@@PAW412@@std@@YAPAW4ItemType@SettingJoyKeyItemWnd@@PAW412@00U_Scalar_ptr_iterator_tag@0@@Z ; std::_Move<enum SettingJoyKeyItemWnd::ItemType *,enum SettingJoyKeyItemWnd::ItemType *>
  00015	83 c4 10	 add	 esp, 16			; 00000010H

; 2536 : 	}

  00018	c9		 leave
  00019	c3		 ret	 0
??$_Move@PAW4ItemType@SettingJoyKeyItemWnd@@PAW412@@std@@YAPAW4ItemType@SettingJoyKeyItemWnd@@PAW412@00@Z ENDP ; std::_Move<enum SettingJoyKeyItemWnd::ItemType *,enum SettingJoyKeyItemWnd::ItemType *>
_TEXT	ENDS
PUBLIC	??$_Destroy_range@V?$allocator@W4ItemType@SettingJoyKeyItemWnd@@@std@@@std@@YAXPAW4ItemType@SettingJoyKeyItemWnd@@0AAV?$allocator@W4ItemType@SettingJoyKeyItemWnd@@@0@@Z ; std::_Destroy_range<std::allocator<enum SettingJoyKeyItemWnd::ItemType> >
; Function compile flags: /Ogsp
; File c:\program files (x86)\microsoft visual studio 10.0\vc\include\xmemory
;	COMDAT ??$_Destroy_range@V?$allocator@W4ItemType@SettingJoyKeyItemWnd@@@std@@@std@@YAXPAW4ItemType@SettingJoyKeyItemWnd@@0AAV?$allocator@W4ItemType@SettingJoyKeyItemWnd@@@0@@Z
_TEXT	SEGMENT
__First$ = 8						; size = 4
__Last$ = 12						; size = 4
__Al$ = 16						; size = 4
??$_Destroy_range@V?$allocator@W4ItemType@SettingJoyKeyItemWnd@@@std@@@std@@YAXPAW4ItemType@SettingJoyKeyItemWnd@@0AAV?$allocator@W4ItemType@SettingJoyKeyItemWnd@@@0@@Z PROC ; std::_Destroy_range<std::allocator<enum SettingJoyKeyItemWnd::ItemType> >, COMDAT

; 88   : 	_Destroy_range(_First, _Last, _Al, _Ptr_cat(_First, _Last));
; 89   : 	}

  00000	c3		 ret	 0
??$_Destroy_range@V?$allocator@W4ItemType@SettingJoyKeyItemWnd@@@std@@@std@@YAXPAW4ItemType@SettingJoyKeyItemWnd@@0AAV?$allocator@W4ItemType@SettingJoyKeyItemWnd@@@0@@Z ENDP ; std::_Destroy_range<std::allocator<enum SettingJoyKeyItemWnd::ItemType> >
_TEXT	ENDS
PUBLIC	??$encodeString@$0BO@@ioINILoader_e@@AAEPADAAY0BO@$$CBDPAD@Z ; ioINILoader_e::encodeString<30>
; Function compile flags: /Ogsp
; File d:\lost saga for developer\youtube\tutorial\source\src\io3dengine\ioiniloader.h
;	COMDAT ??$encodeString@$0BO@@ioINILoader_e@@AAEPADAAY0BO@$$CBDPAD@Z
_TEXT	SEGMENT
_s$ = 8							; size = 4
_e$ = 12						; size = 4
??$encodeString@$0BO@@ioINILoader_e@@AAEPADAAY0BO@$$CBDPAD@Z PROC ; ioINILoader_e::encodeString<30>, COMDAT
; _this$ = ecx

; 215  : 	{

  00000	55		 push	 ebp
  00001	8b ec		 mov	 ebp, esp

; 216  : 		__ENCSTR(s, e);

  00003	8b 4d 08	 mov	 ecx, DWORD PTR _s$[ebp]
  00006	8a 11		 mov	 dl, BYTE PTR [ecx]
  00008	8b 45 0c	 mov	 eax, DWORD PTR _e$[ebp]
  0000b	53		 push	 ebx
  0000c	84 d2		 test	 dl, dl
  0000e	0f 84 6a 04 00
	00		 je	 $LN96@encodeStri
  00014	80 f2 ed	 xor	 dl, -19			; ffffffedH
  00017	88 10		 mov	 BYTE PTR [eax], dl
  00019	8a 51 01	 mov	 dl, BYTE PTR [ecx+1]
  0001c	84 d2		 test	 dl, dl
  0001e	0f 84 54 04 00
	00		 je	 $LN95@encodeStri
  00024	80 f2 ec	 xor	 dl, -20			; ffffffecH
  00027	88 50 01	 mov	 BYTE PTR [eax+1], dl
  0002a	8a 51 02	 mov	 dl, BYTE PTR [ecx+2]
  0002d	84 d2		 test	 dl, dl
  0002f	0f 84 3d 04 00
	00		 je	 $LN94@encodeStri
  00035	b3 eb		 mov	 bl, -21			; ffffffebH
  00037	32 d3		 xor	 dl, bl
  00039	88 50 02	 mov	 BYTE PTR [eax+2], dl
  0003c	8a 51 03	 mov	 dl, BYTE PTR [ecx+3]
  0003f	84 d2		 test	 dl, dl
  00041	0f 84 25 04 00
	00		 je	 $LN93@encodeStri
  00047	80 f2 ea	 xor	 dl, -22			; ffffffeaH
  0004a	88 50 03	 mov	 BYTE PTR [eax+3], dl
  0004d	8a 51 04	 mov	 dl, BYTE PTR [ecx+4]
  00050	84 d2		 test	 dl, dl
  00052	0f 84 0e 04 00
	00		 je	 $LN92@encodeStri
  00058	80 f2 ed	 xor	 dl, -19			; ffffffedH
  0005b	88 50 04	 mov	 BYTE PTR [eax+4], dl
  0005e	8a 51 05	 mov	 dl, BYTE PTR [ecx+5]
  00061	84 d2		 test	 dl, dl
  00063	0f 84 f7 03 00
	00		 je	 $LN91@encodeStri
  00069	80 f2 ec	 xor	 dl, -20			; ffffffecH
  0006c	88 50 05	 mov	 BYTE PTR [eax+5], dl
  0006f	8a 51 06	 mov	 dl, BYTE PTR [ecx+6]
  00072	84 d2		 test	 dl, dl
  00074	0f 84 e1 03 00
	00		 je	 $LN90@encodeStri
  0007a	32 d3		 xor	 dl, bl
  0007c	88 50 06	 mov	 BYTE PTR [eax+6], dl
  0007f	8a 51 07	 mov	 dl, BYTE PTR [ecx+7]
  00082	84 d2		 test	 dl, dl
  00084	0f 84 cb 03 00
	00		 je	 $LN89@encodeStri
  0008a	80 f2 ea	 xor	 dl, -22			; ffffffeaH
  0008d	88 50 07	 mov	 BYTE PTR [eax+7], dl
  00090	8a 51 08	 mov	 dl, BYTE PTR [ecx+8]
  00093	84 d2		 test	 dl, dl
  00095	0f 84 b4 03 00
	00		 je	 $LN88@encodeStri
  0009b	80 f2 ed	 xor	 dl, -19			; ffffffedH
  0009e	88 50 08	 mov	 BYTE PTR [eax+8], dl
  000a1	8a 51 09	 mov	 dl, BYTE PTR [ecx+9]
  000a4	84 d2		 test	 dl, dl
  000a6	0f 84 9d 03 00
	00		 je	 $LN87@encodeStri
  000ac	80 f2 ec	 xor	 dl, -20			; ffffffecH
  000af	88 50 09	 mov	 BYTE PTR [eax+9], dl
  000b2	8a 51 0a	 mov	 dl, BYTE PTR [ecx+10]
  000b5	84 d2		 test	 dl, dl
  000b7	0f 84 87 03 00
	00		 je	 $LN86@encodeStri
  000bd	32 d3		 xor	 dl, bl
  000bf	88 50 0a	 mov	 BYTE PTR [eax+10], dl
  000c2	8a 51 0b	 mov	 dl, BYTE PTR [ecx+11]
  000c5	84 d2		 test	 dl, dl
  000c7	0f 84 71 03 00
	00		 je	 $LN85@encodeStri
  000cd	80 f2 ea	 xor	 dl, -22			; ffffffeaH
  000d0	88 50 0b	 mov	 BYTE PTR [eax+11], dl
  000d3	8a 51 0c	 mov	 dl, BYTE PTR [ecx+12]
  000d6	84 d2		 test	 dl, dl
  000d8	0f 84 5a 03 00
	00		 je	 $LN84@encodeStri
  000de	80 f2 ed	 xor	 dl, -19			; ffffffedH
  000e1	88 50 0c	 mov	 BYTE PTR [eax+12], dl
  000e4	8a 51 0d	 mov	 dl, BYTE PTR [ecx+13]
  000e7	84 d2		 test	 dl, dl
  000e9	0f 84 43 03 00
	00		 je	 $LN83@encodeStri
  000ef	80 f2 ec	 xor	 dl, -20			; ffffffecH
  000f2	88 50 0d	 mov	 BYTE PTR [eax+13], dl
  000f5	8a 51 0e	 mov	 dl, BYTE PTR [ecx+14]
  000f8	84 d2		 test	 dl, dl
  000fa	0f 84 2d 03 00
	00		 je	 $LN82@encodeStri
  00100	32 d3		 xor	 dl, bl
  00102	88 50 0e	 mov	 BYTE PTR [eax+14], dl
  00105	8a 51 0f	 mov	 dl, BYTE PTR [ecx+15]
  00108	84 d2		 test	 dl, dl
  0010a	0f 84 17 03 00
	00		 je	 $LN81@encodeStri
  00110	80 f2 ea	 xor	 dl, -22			; ffffffeaH
  00113	88 50 0f	 mov	 BYTE PTR [eax+15], dl
  00116	8a 51 10	 mov	 dl, BYTE PTR [ecx+16]
  00119	84 d2		 test	 dl, dl
  0011b	0f 84 00 03 00
	00		 je	 $LN80@encodeStri
  00121	80 f2 ed	 xor	 dl, -19			; ffffffedH
  00124	88 50 10	 mov	 BYTE PTR [eax+16], dl
  00127	8a 51 11	 mov	 dl, BYTE PTR [ecx+17]
  0012a	84 d2		 test	 dl, dl
  0012c	0f 84 e9 02 00
	00		 je	 $LN79@encodeStri
  00132	80 f2 ec	 xor	 dl, -20			; ffffffecH
  00135	88 50 11	 mov	 BYTE PTR [eax+17], dl
  00138	8a 51 12	 mov	 dl, BYTE PTR [ecx+18]
  0013b	84 d2		 test	 dl, dl
  0013d	0f 84 d3 02 00
	00		 je	 $LN78@encodeStri
  00143	32 d3		 xor	 dl, bl
  00145	88 50 12	 mov	 BYTE PTR [eax+18], dl
  00148	8a 51 13	 mov	 dl, BYTE PTR [ecx+19]
  0014b	84 d2		 test	 dl, dl
  0014d	0f 84 bd 02 00
	00		 je	 $LN77@encodeStri
  00153	80 f2 ea	 xor	 dl, -22			; ffffffeaH
  00156	88 50 13	 mov	 BYTE PTR [eax+19], dl
  00159	8a 51 14	 mov	 dl, BYTE PTR [ecx+20]
  0015c	84 d2		 test	 dl, dl
  0015e	0f 84 a6 02 00
	00		 je	 $LN76@encodeStri
  00164	80 f2 ed	 xor	 dl, -19			; ffffffedH
  00167	88 50 14	 mov	 BYTE PTR [eax+20], dl
  0016a	8a 51 15	 mov	 dl, BYTE PTR [ecx+21]
  0016d	84 d2		 test	 dl, dl
  0016f	0f 84 8f 02 00
	00		 je	 $LN75@encodeStri
  00175	80 f2 ec	 xor	 dl, -20			; ffffffecH
  00178	88 50 15	 mov	 BYTE PTR [eax+21], dl
  0017b	8a 51 16	 mov	 dl, BYTE PTR [ecx+22]
  0017e	84 d2		 test	 dl, dl
  00180	0f 84 79 02 00
	00		 je	 $LN74@encodeStri
  00186	32 d3		 xor	 dl, bl
  00188	88 50 16	 mov	 BYTE PTR [eax+22], dl
  0018b	8a 51 17	 mov	 dl, BYTE PTR [ecx+23]
  0018e	84 d2		 test	 dl, dl
  00190	0f 84 60 02 00
	00		 je	 $LN73@encodeStri
  00196	80 f2 ea	 xor	 dl, -22			; ffffffeaH
  00199	88 50 17	 mov	 BYTE PTR [eax+23], dl
  0019c	8a 51 18	 mov	 dl, BYTE PTR [ecx+24]
  0019f	84 d2		 test	 dl, dl
  001a1	0f 84 46 02 00
	00		 je	 $LN72@encodeStri
  001a7	80 f2 ed	 xor	 dl, -19			; ffffffedH
  001aa	88 50 18	 mov	 BYTE PTR [eax+24], dl
  001ad	8a 51 19	 mov	 dl, BYTE PTR [ecx+25]
  001b0	84 d2		 test	 dl, dl
  001b2	0f 84 2c 02 00
	00		 je	 $LN71@encodeStri
  001b8	80 f2 ec	 xor	 dl, -20			; ffffffecH
  001bb	88 50 19	 mov	 BYTE PTR [eax+25], dl
  001be	8a 51 1a	 mov	 dl, BYTE PTR [ecx+26]
  001c1	84 d2		 test	 dl, dl
  001c3	0f 84 13 02 00
	00		 je	 $LN70@encodeStri
  001c9	32 d3		 xor	 dl, bl
  001cb	88 50 1a	 mov	 BYTE PTR [eax+26], dl
  001ce	8a 51 1b	 mov	 dl, BYTE PTR [ecx+27]
  001d1	84 d2		 test	 dl, dl
  001d3	0f 84 fa 01 00
	00		 je	 $LN69@encodeStri
  001d9	80 f2 ea	 xor	 dl, -22			; ffffffeaH
  001dc	88 50 1b	 mov	 BYTE PTR [eax+27], dl
  001df	8a 51 1c	 mov	 dl, BYTE PTR [ecx+28]
  001e2	84 d2		 test	 dl, dl
  001e4	0f 84 e0 01 00
	00		 je	 $LN68@encodeStri
  001ea	80 f2 ed	 xor	 dl, -19			; ffffffedH
  001ed	88 50 1c	 mov	 BYTE PTR [eax+28], dl
  001f0	8a 51 1d	 mov	 dl, BYTE PTR [ecx+29]
  001f3	84 d2		 test	 dl, dl
  001f5	0f 84 c6 01 00
	00		 je	 $LN67@encodeStri
  001fb	80 f2 ec	 xor	 dl, -20			; ffffffecH
  001fe	88 50 1d	 mov	 BYTE PTR [eax+29], dl
  00201	8a 51 1e	 mov	 dl, BYTE PTR [ecx+30]
  00204	84 d2		 test	 dl, dl
  00206	0f 84 ad 01 00
	00		 je	 $LN66@encodeStri
  0020c	32 d3		 xor	 dl, bl
  0020e	88 50 1e	 mov	 BYTE PTR [eax+30], dl
  00211	8a 51 1f	 mov	 dl, BYTE PTR [ecx+31]
  00214	84 d2		 test	 dl, dl
  00216	0f 84 94 01 00
	00		 je	 $LN65@encodeStri
  0021c	80 f2 ea	 xor	 dl, -22			; ffffffeaH
  0021f	88 50 1f	 mov	 BYTE PTR [eax+31], dl
  00222	8a 51 20	 mov	 dl, BYTE PTR [ecx+32]
  00225	84 d2		 test	 dl, dl
  00227	0f 84 7a 01 00
	00		 je	 $LN64@encodeStri
  0022d	80 f2 ed	 xor	 dl, -19			; ffffffedH
  00230	88 50 20	 mov	 BYTE PTR [eax+32], dl
  00233	8a 51 21	 mov	 dl, BYTE PTR [ecx+33]
  00236	84 d2		 test	 dl, dl
  00238	0f 84 60 01 00
	00		 je	 $LN63@encodeStri
  0023e	80 f2 ec	 xor	 dl, -20			; ffffffecH
  00241	88 50 21	 mov	 BYTE PTR [eax+33], dl
  00244	8a 51 22	 mov	 dl, BYTE PTR [ecx+34]
  00247	84 d2		 test	 dl, dl
  00249	0f 84 47 01 00
	00		 je	 $LN62@encodeStri
  0024f	32 d3		 xor	 dl, bl
  00251	88 50 22	 mov	 BYTE PTR [eax+34], dl
  00254	8a 51 23	 mov	 dl, BYTE PTR [ecx+35]
  00257	84 d2		 test	 dl, dl
  00259	0f 84 2e 01 00
	00		 je	 $LN61@encodeStri
  0025f	80 f2 ea	 xor	 dl, -22			; ffffffeaH
  00262	88 50 23	 mov	 BYTE PTR [eax+35], dl
  00265	8a 51 24	 mov	 dl, BYTE PTR [ecx+36]
  00268	84 d2		 test	 dl, dl
  0026a	0f 84 14 01 00
	00		 je	 $LN60@encodeStri
  00270	80 f2 ed	 xor	 dl, -19			; ffffffedH
  00273	88 50 24	 mov	 BYTE PTR [eax+36], dl
  00276	8a 51 25	 mov	 dl, BYTE PTR [ecx+37]
  00279	84 d2		 test	 dl, dl
  0027b	0f 84 fa 00 00
	00		 je	 $LN59@encodeStri
  00281	80 f2 ec	 xor	 dl, -20			; ffffffecH
  00284	88 50 25	 mov	 BYTE PTR [eax+37], dl
  00287	8a 51 26	 mov	 dl, BYTE PTR [ecx+38]
  0028a	84 d2		 test	 dl, dl
  0028c	0f 84 e1 00 00
	00		 je	 $LN58@encodeStri
  00292	32 d3		 xor	 dl, bl
  00294	88 50 26	 mov	 BYTE PTR [eax+38], dl
  00297	8a 51 27	 mov	 dl, BYTE PTR [ecx+39]
  0029a	84 d2		 test	 dl, dl
  0029c	0f 84 c8 00 00
	00		 je	 $LN57@encodeStri
  002a2	80 f2 ea	 xor	 dl, -22			; ffffffeaH
  002a5	88 50 27	 mov	 BYTE PTR [eax+39], dl
  002a8	8a 51 28	 mov	 dl, BYTE PTR [ecx+40]
  002ab	84 d2		 test	 dl, dl
  002ad	0f 84 ae 00 00
	00		 je	 $LN56@encodeStri
  002b3	80 f2 ed	 xor	 dl, -19			; ffffffedH
  002b6	88 50 28	 mov	 BYTE PTR [eax+40], dl
  002b9	8a 51 29	 mov	 dl, BYTE PTR [ecx+41]
  002bc	84 d2		 test	 dl, dl
  002be	0f 84 94 00 00
	00		 je	 $LN55@encodeStri
  002c4	80 f2 ec	 xor	 dl, -20			; ffffffecH
  002c7	88 50 29	 mov	 BYTE PTR [eax+41], dl
  002ca	8a 51 2a	 mov	 dl, BYTE PTR [ecx+42]
  002cd	84 d2		 test	 dl, dl
  002cf	74 7f		 je	 SHORT $LN54@encodeStri
  002d1	32 d3		 xor	 dl, bl
  002d3	88 50 2a	 mov	 BYTE PTR [eax+42], dl
  002d6	8a 51 2b	 mov	 dl, BYTE PTR [ecx+43]
  002d9	84 d2		 test	 dl, dl
  002db	74 6a		 je	 SHORT $LN53@encodeStri
  002dd	80 f2 ea	 xor	 dl, -22			; ffffffeaH
  002e0	88 50 2b	 mov	 BYTE PTR [eax+43], dl
  002e3	8a 51 2c	 mov	 dl, BYTE PTR [ecx+44]
  002e6	84 d2		 test	 dl, dl
  002e8	74 54		 je	 SHORT $LN52@encodeStri
  002ea	80 f2 ed	 xor	 dl, -19			; ffffffedH
  002ed	88 50 2c	 mov	 BYTE PTR [eax+44], dl
  002f0	8a 51 2d	 mov	 dl, BYTE PTR [ecx+45]
  002f3	84 d2		 test	 dl, dl
  002f5	74 3e		 je	 SHORT $LN51@encodeStri
  002f7	80 f2 ec	 xor	 dl, -20			; ffffffecH
  002fa	88 50 2d	 mov	 BYTE PTR [eax+45], dl
  002fd	8a 51 2e	 mov	 dl, BYTE PTR [ecx+46]
  00300	84 d2		 test	 dl, dl
  00302	74 29		 je	 SHORT $LN50@encodeStri
  00304	32 d3		 xor	 dl, bl
  00306	88 50 2e	 mov	 BYTE PTR [eax+46], dl
  00309	8a 51 2f	 mov	 dl, BYTE PTR [ecx+47]
  0030c	84 d2		 test	 dl, dl
  0030e	74 14		 je	 SHORT $LN49@encodeStri
  00310	80 f2 ea	 xor	 dl, -22			; ffffffeaH
  00313	88 50 2f	 mov	 BYTE PTR [eax+47], dl
  00316	8a 49 30	 mov	 cl, BYTE PTR [ecx+48]
  00319	80 f1 ed	 xor	 cl, -19			; ffffffedH
  0031c	88 48 30	 mov	 BYTE PTR [eax+48], cl
  0031f	e9 5d 01 00 00	 jmp	 $LN1@encodeStri
$LN49@encodeStri:
  00324	c6 40 2f ea	 mov	 BYTE PTR [eax+47], -22	; ffffffeaH
  00328	e9 54 01 00 00	 jmp	 $LN1@encodeStri
$LN50@encodeStri:
  0032d	88 58 2e	 mov	 BYTE PTR [eax+46], bl
  00330	e9 4c 01 00 00	 jmp	 $LN1@encodeStri
$LN51@encodeStri:
  00335	c6 40 2d ec	 mov	 BYTE PTR [eax+45], -20	; ffffffecH
  00339	e9 43 01 00 00	 jmp	 $LN1@encodeStri
$LN52@encodeStri:
  0033e	c6 40 2c ed	 mov	 BYTE PTR [eax+44], -19	; ffffffedH
  00342	e9 3a 01 00 00	 jmp	 $LN1@encodeStri
$LN53@encodeStri:
  00347	c6 40 2b ea	 mov	 BYTE PTR [eax+43], -22	; ffffffeaH
  0034b	e9 31 01 00 00	 jmp	 $LN1@encodeStri
$LN54@encodeStri:
  00350	88 58 2a	 mov	 BYTE PTR [eax+42], bl
  00353	e9 29 01 00 00	 jmp	 $LN1@encodeStri
$LN55@encodeStri:
  00358	c6 40 29 ec	 mov	 BYTE PTR [eax+41], -20	; ffffffecH
  0035c	e9 20 01 00 00	 jmp	 $LN1@encodeStri
$LN56@encodeStri:
  00361	c6 40 28 ed	 mov	 BYTE PTR [eax+40], -19	; ffffffedH
  00365	e9 17 01 00 00	 jmp	 $LN1@encodeStri
$LN57@encodeStri:
  0036a	c6 40 27 ea	 mov	 BYTE PTR [eax+39], -22	; ffffffeaH
  0036e	e9 0e 01 00 00	 jmp	 $LN1@encodeStri
$LN58@encodeStri:
  00373	88 58 26	 mov	 BYTE PTR [eax+38], bl
  00376	e9 06 01 00 00	 jmp	 $LN1@encodeStri
$LN59@encodeStri:
  0037b	c6 40 25 ec	 mov	 BYTE PTR [eax+37], -20	; ffffffecH
  0037f	e9 fd 00 00 00	 jmp	 $LN1@encodeStri
$LN60@encodeStri:
  00384	c6 40 24 ed	 mov	 BYTE PTR [eax+36], -19	; ffffffedH
  00388	e9 f4 00 00 00	 jmp	 $LN1@encodeStri
$LN61@encodeStri:
  0038d	c6 40 23 ea	 mov	 BYTE PTR [eax+35], -22	; ffffffeaH
  00391	e9 eb 00 00 00	 jmp	 $LN1@encodeStri
$LN62@encodeStri:
  00396	88 58 22	 mov	 BYTE PTR [eax+34], bl
  00399	e9 e3 00 00 00	 jmp	 $LN1@encodeStri
$LN63@encodeStri:
  0039e	c6 40 21 ec	 mov	 BYTE PTR [eax+33], -20	; ffffffecH
  003a2	e9 da 00 00 00	 jmp	 $LN1@encodeStri
$LN64@encodeStri:
  003a7	c6 40 20 ed	 mov	 BYTE PTR [eax+32], -19	; ffffffedH
  003ab	e9 d1 00 00 00	 jmp	 $LN1@encodeStri
$LN65@encodeStri:
  003b0	c6 40 1f ea	 mov	 BYTE PTR [eax+31], -22	; ffffffeaH
  003b4	e9 c8 00 00 00	 jmp	 $LN1@encodeStri
$LN66@encodeStri:
  003b9	88 58 1e	 mov	 BYTE PTR [eax+30], bl
  003bc	e9 c0 00 00 00	 jmp	 $LN1@encodeStri
$LN67@encodeStri:
  003c1	c6 40 1d ec	 mov	 BYTE PTR [eax+29], -20	; ffffffecH
  003c5	e9 b7 00 00 00	 jmp	 $LN1@encodeStri
$LN68@encodeStri:
  003ca	c6 40 1c ed	 mov	 BYTE PTR [eax+28], -19	; ffffffedH
  003ce	e9 ae 00 00 00	 jmp	 $LN1@encodeStri
$LN69@encodeStri:
  003d3	c6 40 1b ea	 mov	 BYTE PTR [eax+27], -22	; ffffffeaH
  003d7	e9 a5 00 00 00	 jmp	 $LN1@encodeStri
$LN70@encodeStri:
  003dc	88 58 1a	 mov	 BYTE PTR [eax+26], bl
  003df	e9 9d 00 00 00	 jmp	 $LN1@encodeStri
$LN71@encodeStri:
  003e4	c6 40 19 ec	 mov	 BYTE PTR [eax+25], -20	; ffffffecH
  003e8	e9 94 00 00 00	 jmp	 $LN1@encodeStri
$LN72@encodeStri:
  003ed	c6 40 18 ed	 mov	 BYTE PTR [eax+24], -19	; ffffffedH
  003f1	e9 8b 00 00 00	 jmp	 $LN1@encodeStri
$LN73@encodeStri:
  003f6	c6 40 17 ea	 mov	 BYTE PTR [eax+23], -22	; ffffffeaH
  003fa	e9 82 00 00 00	 jmp	 $LN1@encodeStri
$LN74@encodeStri:
  003ff	88 58 16	 mov	 BYTE PTR [eax+22], bl
  00402	eb 7d		 jmp	 SHORT $LN1@encodeStri
$LN75@encodeStri:
  00404	c6 40 15 ec	 mov	 BYTE PTR [eax+21], -20	; ffffffecH
  00408	eb 77		 jmp	 SHORT $LN1@encodeStri
$LN76@encodeStri:
  0040a	c6 40 14 ed	 mov	 BYTE PTR [eax+20], -19	; ffffffedH
  0040e	eb 71		 jmp	 SHORT $LN1@encodeStri
$LN77@encodeStri:
  00410	c6 40 13 ea	 mov	 BYTE PTR [eax+19], -22	; ffffffeaH
  00414	eb 6b		 jmp	 SHORT $LN1@encodeStri
$LN78@encodeStri:
  00416	88 58 12	 mov	 BYTE PTR [eax+18], bl
  00419	eb 66		 jmp	 SHORT $LN1@encodeStri
$LN79@encodeStri:
  0041b	c6 40 11 ec	 mov	 BYTE PTR [eax+17], -20	; ffffffecH
  0041f	eb 60		 jmp	 SHORT $LN1@encodeStri
$LN80@encodeStri:
  00421	c6 40 10 ed	 mov	 BYTE PTR [eax+16], -19	; ffffffedH
  00425	eb 5a		 jmp	 SHORT $LN1@encodeStri
$LN81@encodeStri:
  00427	c6 40 0f ea	 mov	 BYTE PTR [eax+15], -22	; ffffffeaH
  0042b	eb 54		 jmp	 SHORT $LN1@encodeStri
$LN82@encodeStri:
  0042d	88 58 0e	 mov	 BYTE PTR [eax+14], bl
  00430	eb 4f		 jmp	 SHORT $LN1@encodeStri
$LN83@encodeStri:
  00432	c6 40 0d ec	 mov	 BYTE PTR [eax+13], -20	; ffffffecH
  00436	eb 49		 jmp	 SHORT $LN1@encodeStri
$LN84@encodeStri:
  00438	c6 40 0c ed	 mov	 BYTE PTR [eax+12], -19	; ffffffedH
  0043c	eb 43		 jmp	 SHORT $LN1@encodeStri
$LN85@encodeStri:
  0043e	c6 40 0b ea	 mov	 BYTE PTR [eax+11], -22	; ffffffeaH
  00442	eb 3d		 jmp	 SHORT $LN1@encodeStri
$LN86@encodeStri:
  00444	88 58 0a	 mov	 BYTE PTR [eax+10], bl
  00447	eb 38		 jmp	 SHORT $LN1@encodeStri
$LN87@encodeStri:
  00449	c6 40 09 ec	 mov	 BYTE PTR [eax+9], -20	; ffffffecH
  0044d	eb 32		 jmp	 SHORT $LN1@encodeStri
$LN88@encodeStri:
  0044f	c6 40 08 ed	 mov	 BYTE PTR [eax+8], -19	; ffffffedH
  00453	eb 2c		 jmp	 SHORT $LN1@encodeStri
$LN89@encodeStri:
  00455	c6 40 07 ea	 mov	 BYTE PTR [eax+7], -22	; ffffffeaH
  00459	eb 26		 jmp	 SHORT $LN1@encodeStri
$LN90@encodeStri:
  0045b	88 58 06	 mov	 BYTE PTR [eax+6], bl
  0045e	eb 21		 jmp	 SHORT $LN1@encodeStri
$LN91@encodeStri:
  00460	c6 40 05 ec	 mov	 BYTE PTR [eax+5], -20	; ffffffecH
  00464	eb 1b		 jmp	 SHORT $LN1@encodeStri
$LN92@encodeStri:
  00466	c6 40 04 ed	 mov	 BYTE PTR [eax+4], -19	; ffffffedH
  0046a	eb 15		 jmp	 SHORT $LN1@encodeStri
$LN93@encodeStri:
  0046c	c6 40 03 ea	 mov	 BYTE PTR [eax+3], -22	; ffffffeaH
  00470	eb 0f		 jmp	 SHORT $LN1@encodeStri
$LN94@encodeStri:
  00472	c6 40 02 eb	 mov	 BYTE PTR [eax+2], -21	; ffffffebH
  00476	eb 09		 jmp	 SHORT $LN1@encodeStri
$LN95@encodeStri:
  00478	c6 40 01 ec	 mov	 BYTE PTR [eax+1], -20	; ffffffecH
  0047c	eb 03		 jmp	 SHORT $LN1@encodeStri
$LN96@encodeStri:
  0047e	c6 00 ed	 mov	 BYTE PTR [eax], -19	; ffffffedH
$LN1@encodeStri:
  00481	6a 07		 push	 7
  00483	5a		 pop	 edx
  00484	8b c8		 mov	 ecx, eax
  00486	c6 40 1d 00	 mov	 BYTE PTR [eax+29], 0
  0048a	5b		 pop	 ebx
$LL104@encodeStri:
  0048b	81 31 ed ec eb
	ea		 xor	 DWORD PTR [ecx], -353637139 ; eaebecedH
  00491	83 c1 04	 add	 ecx, 4
  00494	4a		 dec	 edx
  00495	75 f4		 jne	 SHORT $LL104@encodeStri
  00497	80 70 1c ed	 xor	 BYTE PTR [eax+28], -19	; ffffffedH

; 217  : 		return e;
; 218  : 	}

  0049b	5d		 pop	 ebp
  0049c	c2 08 00	 ret	 8
??$encodeString@$0BO@@ioINILoader_e@@AAEPADAAY0BO@$$CBDPAD@Z ENDP ; ioINILoader_e::encodeString<30>
_TEXT	ENDS
PUBLIC	??$_Uninitialized_move@PAW4ItemType@SettingJoyKeyItemWnd@@PAW412@V?$allocator@W4ItemType@SettingJoyKeyItemWnd@@@std@@@std@@YAPAW4ItemType@SettingJoyKeyItemWnd@@PAW412@00AAV?$allocator@W4ItemType@SettingJoyKeyItemWnd@@@0@@Z ; std::_Uninitialized_move<enum SettingJoyKeyItemWnd::ItemType *,enum SettingJoyKeyItemWnd::ItemType *,std::allocator<enum SettingJoyKeyItemWnd::ItemType> >
; Function compile flags: /Ogsp
; File c:\program files (x86)\microsoft visual studio 10.0\vc\include\memory
;	COMDAT ??$_Uninitialized_move@PAW4ItemType@SettingJoyKeyItemWnd@@PAW412@V?$allocator@W4ItemType@SettingJoyKeyItemWnd@@@std@@@std@@YAPAW4ItemType@SettingJoyKeyItemWnd@@PAW412@00AAV?$allocator@W4ItemType@SettingJoyKeyItemWnd@@@0@@Z
_TEXT	SEGMENT
__First$ = 8						; size = 4
__Last$ = 12						; size = 4
__Dest$ = 16						; size = 4
__Al$ = 20						; size = 4
??$_Uninitialized_move@PAW4ItemType@SettingJoyKeyItemWnd@@PAW412@V?$allocator@W4ItemType@SettingJoyKeyItemWnd@@@std@@@std@@YAPAW4ItemType@SettingJoyKeyItemWnd@@PAW412@00AAV?$allocator@W4ItemType@SettingJoyKeyItemWnd@@@0@@Z PROC ; std::_Uninitialized_move<enum SettingJoyKeyItemWnd::ItemType *,enum SettingJoyKeyItemWnd::ItemType *,std::allocator<enum SettingJoyKeyItemWnd::ItemType> >, COMDAT

; 469  : 	{	// move [_First, _Last) to raw _Dest, using _Al

  00000	55		 push	 ebp
  00001	8b ec		 mov	 ebp, esp
  00003	56		 push	 esi

; 470  : 	return (_Uninit_move(_First, _Last, _Dest, _Al,
; 471  : 		_Val_type(_First), _Ptr_cat(_First, _Dest)));

  00004	8b 75 0c	 mov	 esi, DWORD PTR __Last$[ebp]
  00007	2b 75 08	 sub	 esi, DWORD PTR __First$[ebp]
  0000a	c1 fe 02	 sar	 esi, 2
  0000d	c1 e6 02	 shl	 esi, 2
  00010	56		 push	 esi
  00011	ff 75 08	 push	 DWORD PTR __First$[ebp]
  00014	ff 75 10	 push	 DWORD PTR __Dest$[ebp]
  00017	ff 15 00 00 00
	00		 call	 DWORD PTR __imp__memmove
  0001d	83 c4 0c	 add	 esp, 12			; 0000000cH
  00020	03 c6		 add	 eax, esi
  00022	5e		 pop	 esi

; 472  : 	}

  00023	5d		 pop	 ebp
  00024	c3		 ret	 0
??$_Uninitialized_move@PAW4ItemType@SettingJoyKeyItemWnd@@PAW412@V?$allocator@W4ItemType@SettingJoyKeyItemWnd@@@std@@@std@@YAPAW4ItemType@SettingJoyKeyItemWnd@@PAW412@00AAV?$allocator@W4ItemType@SettingJoyKeyItemWnd@@@0@@Z ENDP ; std::_Uninitialized_move<enum SettingJoyKeyItemWnd::ItemType *,enum SettingJoyKeyItemWnd::ItemType *,std::allocator<enum SettingJoyKeyItemWnd::ItemType> >
_TEXT	ENDS
PUBLIC	?IsEmpty@ioComplexStringPrinter@@QBE_NXZ	; ioComplexStringPrinter::IsEmpty
; Function compile flags: /Ogsp
; File d:\lost saga for developer\youtube\tutorial\source\src\lsclient\iocomplexstringprinter.h
;	COMDAT ?IsEmpty@ioComplexStringPrinter@@QBE_NXZ
_TEXT	SEGMENT
?IsEmpty@ioComplexStringPrinter@@QBE_NXZ PROC		; ioComplexStringPrinter::IsEmpty, COMDAT
; _this$ = ecx

; 124  : 	inline bool IsEmpty() const { return m_vPieceList.empty(); }

  00000	8b 41 0c	 mov	 eax, DWORD PTR [ecx+12]
  00003	2b 41 10	 sub	 eax, DWORD PTR [ecx+16]
  00006	f7 d8		 neg	 eax
  00008	1b c0		 sbb	 eax, eax
  0000a	40		 inc	 eax
  0000b	c3		 ret	 0
?IsEmpty@ioComplexStringPrinter@@QBE_NXZ ENDP		; ioComplexStringPrinter::IsEmpty
_TEXT	ENDS
PUBLIC	_szType$GSCopy$
PUBLIC	_pImage$GSCopy$
PUBLIC	_this$GSCopy$
PUBLIC	__$ArrayPad$
EXTRN	__imp_?AddRenderImage@ioWnd@@UAEXABVioHashString@@PAVioUIRenderImage@@@Z:PROC
; Function compile flags: /Ogsp
; File d:\lost saga for developer\youtube\tutorial\source\src\lsclient\gui\gameoptionsettingjoykeytab.cpp
;	COMDAT ?AddRenderImage@SettingJoyKeyItemWnd@@MAEXABVioHashString@@PAVioUIRenderImage@@@Z
_TEXT	SEGMENT
_szType$GSCopy$ = -32					; size = 4
_pImage$GSCopy$ = -28					; size = 4
_this$GSCopy$ = -24					; size = 4
__t$546852 = -20					; size = 11
__t$546653 = -20					; size = 9
__$ArrayPad$ = -4					; size = 4
_szType$ = 8						; size = 4
_pImage$ = 12						; size = 4
?AddRenderImage@SettingJoyKeyItemWnd@@MAEXABVioHashString@@PAVioUIRenderImage@@@Z PROC ; SettingJoyKeyItemWnd::AddRenderImage, COMDAT
; _this$ = ecx

; 107  : {

  00000	55		 push	 ebp
  00001	8b ec		 mov	 ebp, esp
  00003	83 ec 20	 sub	 esp, 32			; 00000020H
  00006	a1 00 00 00 00	 mov	 eax, DWORD PTR ___security_cookie
  0000b	33 c5		 xor	 eax, ebp
  0000d	89 45 fc	 mov	 DWORD PTR __$ArrayPad$[ebp], eax
  00010	8b 45 0c	 mov	 eax, DWORD PTR _pImage$[ebp]
  00013	8b 55 08	 mov	 edx, DWORD PTR _szType$[ebp]
  00016	53		 push	 ebx
  00017	56		 push	 esi
  00018	57		 push	 edi

; 108  : 	if( szType == "IconBack" )

  00019	6a 02		 push	 2
  0001b	5b		 pop	 ebx
  0001c	89 4d e8	 mov	 DWORD PTR _this$GSCopy$[ebp], ecx

; 112  : 	}
; 113  : 	else if( szType == "IconJoypad" )

  0001f	89 45 e4	 mov	 DWORD PTR _pImage$GSCopy$[ebp], eax
  00022	89 55 e0	 mov	 DWORD PTR _szType$GSCopy$[ebp], edx
  00025	c7 45 ec a4 8f
	84 84		 mov	 DWORD PTR __t$546653[ebp], -2071687260 ; 84848fa4H
  0002c	c7 45 f0 af 8d
	88 81		 mov	 DWORD PTR __t$546653[ebp+4], -2121757265 ; 81888dafH
  00033	8d 45 ec	 lea	 eax, DWORD PTR __t$546653[ebp]
  00036	c6 45 f4 00	 mov	 BYTE PTR __t$546653[ebp+8], 0
  0003a	8b cb		 mov	 ecx, ebx
  0003c	bf ed ec eb ea	 mov	 edi, -353637139		; eaebecedH
$LL116@AddRenderI:

; 108  : 	if( szType == "IconBack" )

  00041	31 38		 xor	 DWORD PTR [eax], edi
  00043	83 c0 04	 add	 eax, 4
  00046	49		 dec	 ecx
  00047	75 f8		 jne	 SHORT $LL116@AddRenderI
  00049	8b ca		 mov	 ecx, edx
  0004b	8d 75 ec	 lea	 esi, DWORD PTR __t$546653[ebp]
  0004e	ff 15 00 00 00
	00		 call	 DWORD PTR __imp_?c_str@ioHashString@@QBEPBDXZ
$LL234@AddRenderI:
  00054	8a 08		 mov	 cl, BYTE PTR [eax]
  00056	3a 0e		 cmp	 cl, BYTE PTR [esi]
  00058	75 18		 jne	 SHORT $LN235@AddRenderI
  0005a	84 c9		 test	 cl, cl
  0005c	74 10		 je	 SHORT $LN236@AddRenderI
  0005e	8a 48 01	 mov	 cl, BYTE PTR [eax+1]
  00061	3a 4e 01	 cmp	 cl, BYTE PTR [esi+1]
  00064	75 0c		 jne	 SHORT $LN235@AddRenderI
  00066	03 c3		 add	 eax, ebx
  00068	03 f3		 add	 esi, ebx
  0006a	84 c9		 test	 cl, cl
  0006c	75 e6		 jne	 SHORT $LL234@AddRenderI
$LN236@AddRenderI:
  0006e	33 c0		 xor	 eax, eax
  00070	eb 05		 jmp	 SHORT $LN237@AddRenderI
$LN235@AddRenderI:
  00072	1b c0		 sbb	 eax, eax
  00074	83 d8 ff	 sbb	 eax, -1
$LN237@AddRenderI:
  00077	85 c0		 test	 eax, eax
  00079	75 29		 jne	 SHORT $LN233@AddRenderI

; 109  : 	{
; 110  : 		SAFEDELETE( m_pIconBack );

  0007b	8b 75 e8	 mov	 esi, DWORD PTR _this$GSCopy$[ebp]
  0007e	8b 8e 60 01 00
	00		 mov	 ecx, DWORD PTR [esi+352]
  00084	85 c9		 test	 ecx, ecx
  00086	74 0e		 je	 SHORT $LN5@AddRenderI
  00088	8b 01		 mov	 eax, DWORD PTR [ecx]
  0008a	6a 01		 push	 1
  0008c	ff 50 40	 call	 DWORD PTR [eax+64]
  0008f	83 a6 60 01 00
	00 00		 and	 DWORD PTR [esi+352], 0
$LN5@AddRenderI:

; 111  : 		m_pIconBack = pImage;

  00096	8b 45 e4	 mov	 eax, DWORD PTR _pImage$GSCopy$[ebp]
  00099	89 86 60 01 00
	00		 mov	 DWORD PTR [esi+352], eax
  0009f	e9 ad 00 00 00	 jmp	 $LN1@AddRenderI
$LN233@AddRenderI:

; 112  : 	}
; 113  : 	else if( szType == "IconJoypad" )

  000a4	c7 45 ec a4 8f
	84 84		 mov	 DWORD PTR __t$546852[ebp], -2071687260 ; 84848fa4H
  000ab	c7 45 f0 a7 83
	92 9a		 mov	 DWORD PTR __t$546852[ebp+4], -1701674073 ; 9a9283a7H
  000b2	66 c7 45 f4 8c
	88		 mov	 WORD PTR __t$546852[ebp+8], 34956 ; 0000888cH
  000b8	8d 45 ec	 lea	 eax, DWORD PTR __t$546852[ebp]
  000bb	c6 45 f6 00	 mov	 BYTE PTR __t$546852[ebp+10], 0
  000bf	8b cb		 mov	 ecx, ebx
$LL222@AddRenderI:
  000c1	31 38		 xor	 DWORD PTR [eax], edi
  000c3	83 c0 04	 add	 eax, 4
  000c6	49		 dec	 ecx
  000c7	75 f8		 jne	 SHORT $LL222@AddRenderI
  000c9	6a 08		 push	 8
  000cb	58		 pop	 eax
$LL219@AddRenderI:
  000cc	8b c8		 mov	 ecx, eax
  000ce	81 e1 03 00 00
	80		 and	 ecx, -2147483645	; 80000003H
  000d4	79 05		 jns	 SHORT $LN242@AddRenderI
  000d6	49		 dec	 ecx
  000d7	83 c9 fc	 or	 ecx, -4			; fffffffcH
  000da	41		 inc	 ecx
$LN242@AddRenderI:
  000db	b2 ed		 mov	 dl, -19			; ffffffedH
  000dd	2a d1		 sub	 dl, cl
  000df	30 54 05 ec	 xor	 BYTE PTR __t$546852[ebp+eax], dl
  000e3	40		 inc	 eax
  000e4	83 f8 0a	 cmp	 eax, 10			; 0000000aH
  000e7	7c e3		 jl	 SHORT $LL219@AddRenderI
  000e9	8b 4d e0	 mov	 ecx, DWORD PTR _szType$GSCopy$[ebp]
  000ec	8d 75 ec	 lea	 esi, DWORD PTR __t$546852[ebp]
  000ef	ff 15 00 00 00
	00		 call	 DWORD PTR __imp_?c_str@ioHashString@@QBEPBDXZ
$LL238@AddRenderI:
  000f5	8a 08		 mov	 cl, BYTE PTR [eax]
  000f7	3a 0e		 cmp	 cl, BYTE PTR [esi]
  000f9	75 18		 jne	 SHORT $LN239@AddRenderI
  000fb	84 c9		 test	 cl, cl
  000fd	74 10		 je	 SHORT $LN240@AddRenderI
  000ff	8a 48 01	 mov	 cl, BYTE PTR [eax+1]
  00102	3a 4e 01	 cmp	 cl, BYTE PTR [esi+1]
  00105	75 0c		 jne	 SHORT $LN239@AddRenderI
  00107	03 c3		 add	 eax, ebx
  00109	03 f3		 add	 esi, ebx
  0010b	84 c9		 test	 cl, cl
  0010d	75 e6		 jne	 SHORT $LL238@AddRenderI
$LN240@AddRenderI:
  0010f	33 c0		 xor	 eax, eax
  00111	eb 05		 jmp	 SHORT $LN241@AddRenderI
$LN239@AddRenderI:
  00113	1b c0		 sbb	 eax, eax
  00115	83 d8 ff	 sbb	 eax, -1
$LN241@AddRenderI:
  00118	85 c0		 test	 eax, eax
  0011a	75 26		 jne	 SHORT $LN3@AddRenderI

; 114  : 	{
; 115  : 		SAFEDELETE( m_pIconJoypad );

  0011c	8b 75 e8	 mov	 esi, DWORD PTR _this$GSCopy$[ebp]
  0011f	8b 8e 64 01 00
	00		 mov	 ecx, DWORD PTR [esi+356]
  00125	85 c9		 test	 ecx, ecx
  00127	74 0e		 je	 SHORT $LN2@AddRenderI
  00129	8b 01		 mov	 eax, DWORD PTR [ecx]
  0012b	6a 01		 push	 1
  0012d	ff 50 40	 call	 DWORD PTR [eax+64]
  00130	83 a6 64 01 00
	00 00		 and	 DWORD PTR [esi+356], 0
$LN2@AddRenderI:

; 116  : 		m_pIconJoypad = pImage;

  00137	8b 45 e4	 mov	 eax, DWORD PTR _pImage$GSCopy$[ebp]
  0013a	89 86 64 01 00
	00		 mov	 DWORD PTR [esi+356], eax

; 117  : 
; 118  : 	}
; 119  : 	else

  00140	eb 0f		 jmp	 SHORT $LN1@AddRenderI
$LN3@AddRenderI:

; 120  : 	{
; 121  : 		ioWnd::AddRenderImage( szType, pImage );

  00142	ff 75 e4	 push	 DWORD PTR _pImage$GSCopy$[ebp]
  00145	8b 4d e8	 mov	 ecx, DWORD PTR _this$GSCopy$[ebp]
  00148	ff 75 e0	 push	 DWORD PTR _szType$GSCopy$[ebp]
  0014b	ff 15 00 00 00
	00		 call	 DWORD PTR __imp_?AddRenderImage@ioWnd@@UAEXABVioHashString@@PAVioUIRenderImage@@@Z
$LN1@AddRenderI:

; 122  : 	}
; 123  : }

  00151	8b 4d fc	 mov	 ecx, DWORD PTR __$ArrayPad$[ebp]
  00154	5f		 pop	 edi
  00155	5e		 pop	 esi
  00156	33 cd		 xor	 ecx, ebp
  00158	5b		 pop	 ebx
  00159	e8 00 00 00 00	 call	 @__security_check_cookie@4
  0015e	c9		 leave
  0015f	c2 08 00	 ret	 8
?AddRenderImage@SettingJoyKeyItemWnd@@MAEXABVioHashString@@PAVioUIRenderImage@@@Z ENDP ; SettingJoyKeyItemWnd::AddRenderImage
_TEXT	ENDS
PUBLIC	_szType$GSCopy$
PUBLIC	_pImage$GSCopy$
PUBLIC	_this$GSCopy$
PUBLIC	__$ArrayPad$
PUBLIC	?AddRenderImage@GameOptionSettingJoyKeyTab@@MAEXABVioHashString@@PAVioUIRenderImage@@@Z ; GameOptionSettingJoyKeyTab::AddRenderImage
; Function compile flags: /Ogsp
;	COMDAT ?AddRenderImage@GameOptionSettingJoyKeyTab@@MAEXABVioHashString@@PAVioUIRenderImage@@@Z
_TEXT	SEGMENT
_szType$GSCopy$ = -32					; size = 4
_pImage$GSCopy$ = -28					; size = 4
_this$GSCopy$ = -24					; size = 4
__t$547133 = -20					; size = 11
__t$546934 = -20					; size = 9
__$ArrayPad$ = -4					; size = 4
_szType$ = 8						; size = 4
_pImage$ = 12						; size = 4
?AddRenderImage@GameOptionSettingJoyKeyTab@@MAEXABVioHashString@@PAVioUIRenderImage@@@Z PROC ; GameOptionSettingJoyKeyTab::AddRenderImage, COMDAT
; _this$ = ecx

; 699  : {

  00000	55		 push	 ebp
  00001	8b ec		 mov	 ebp, esp
  00003	83 ec 20	 sub	 esp, 32			; 00000020H
  00006	a1 00 00 00 00	 mov	 eax, DWORD PTR ___security_cookie
  0000b	33 c5		 xor	 eax, ebp
  0000d	89 45 fc	 mov	 DWORD PTR __$ArrayPad$[ebp], eax
  00010	8b 45 0c	 mov	 eax, DWORD PTR _pImage$[ebp]
  00013	8b 55 08	 mov	 edx, DWORD PTR _szType$[ebp]
  00016	53		 push	 ebx
  00017	56		 push	 esi
  00018	57		 push	 edi

; 700  : 	if( szType == "IconBack" )

  00019	6a 02		 push	 2
  0001b	5b		 pop	 ebx
  0001c	89 4d e8	 mov	 DWORD PTR _this$GSCopy$[ebp], ecx

; 704  : 	}
; 705  : 	else if( szType == "IconJoypad" )

  0001f	89 45 e4	 mov	 DWORD PTR _pImage$GSCopy$[ebp], eax
  00022	89 55 e0	 mov	 DWORD PTR _szType$GSCopy$[ebp], edx
  00025	c7 45 ec a4 8f
	84 84		 mov	 DWORD PTR __t$546934[ebp], -2071687260 ; 84848fa4H
  0002c	c7 45 f0 af 8d
	88 81		 mov	 DWORD PTR __t$546934[ebp+4], -2121757265 ; 81888dafH
  00033	8d 45 ec	 lea	 eax, DWORD PTR __t$546934[ebp]
  00036	c6 45 f4 00	 mov	 BYTE PTR __t$546934[ebp+8], 0
  0003a	8b cb		 mov	 ecx, ebx
  0003c	bf ed ec eb ea	 mov	 edi, -353637139		; eaebecedH
$LL116@AddRenderI@2:

; 700  : 	if( szType == "IconBack" )

  00041	31 38		 xor	 DWORD PTR [eax], edi
  00043	83 c0 04	 add	 eax, 4
  00046	49		 dec	 ecx
  00047	75 f8		 jne	 SHORT $LL116@AddRenderI@2
  00049	8b ca		 mov	 ecx, edx
  0004b	8d 75 ec	 lea	 esi, DWORD PTR __t$546934[ebp]
  0004e	ff 15 00 00 00
	00		 call	 DWORD PTR __imp_?c_str@ioHashString@@QBEPBDXZ
$LL234@AddRenderI@2:
  00054	8a 08		 mov	 cl, BYTE PTR [eax]
  00056	3a 0e		 cmp	 cl, BYTE PTR [esi]
  00058	75 18		 jne	 SHORT $LN235@AddRenderI@2
  0005a	84 c9		 test	 cl, cl
  0005c	74 10		 je	 SHORT $LN236@AddRenderI@2
  0005e	8a 48 01	 mov	 cl, BYTE PTR [eax+1]
  00061	3a 4e 01	 cmp	 cl, BYTE PTR [esi+1]
  00064	75 0c		 jne	 SHORT $LN235@AddRenderI@2
  00066	03 c3		 add	 eax, ebx
  00068	03 f3		 add	 esi, ebx
  0006a	84 c9		 test	 cl, cl
  0006c	75 e6		 jne	 SHORT $LL234@AddRenderI@2
$LN236@AddRenderI@2:
  0006e	33 c0		 xor	 eax, eax
  00070	eb 05		 jmp	 SHORT $LN237@AddRenderI@2
$LN235@AddRenderI@2:
  00072	1b c0		 sbb	 eax, eax
  00074	83 d8 ff	 sbb	 eax, -1
$LN237@AddRenderI@2:
  00077	85 c0		 test	 eax, eax
  00079	75 29		 jne	 SHORT $LN233@AddRenderI@2

; 701  : 	{
; 702  : 		SAFEDELETE( m_pIconBack );

  0007b	8b 75 e8	 mov	 esi, DWORD PTR _this$GSCopy$[ebp]
  0007e	8b 8e 04 02 00
	00		 mov	 ecx, DWORD PTR [esi+516]
  00084	85 c9		 test	 ecx, ecx
  00086	74 0e		 je	 SHORT $LN5@AddRenderI@2
  00088	8b 01		 mov	 eax, DWORD PTR [ecx]
  0008a	6a 01		 push	 1
  0008c	ff 50 40	 call	 DWORD PTR [eax+64]
  0008f	83 a6 04 02 00
	00 00		 and	 DWORD PTR [esi+516], 0
$LN5@AddRenderI@2:

; 703  : 		m_pIconBack = pImage;

  00096	8b 45 e4	 mov	 eax, DWORD PTR _pImage$GSCopy$[ebp]
  00099	89 86 04 02 00
	00		 mov	 DWORD PTR [esi+516], eax
  0009f	e9 ad 00 00 00	 jmp	 $LN1@AddRenderI@2
$LN233@AddRenderI@2:

; 704  : 	}
; 705  : 	else if( szType == "IconJoypad" )

  000a4	c7 45 ec a4 8f
	84 84		 mov	 DWORD PTR __t$547133[ebp], -2071687260 ; 84848fa4H
  000ab	c7 45 f0 a7 83
	92 9a		 mov	 DWORD PTR __t$547133[ebp+4], -1701674073 ; 9a9283a7H
  000b2	66 c7 45 f4 8c
	88		 mov	 WORD PTR __t$547133[ebp+8], 34956 ; 0000888cH
  000b8	8d 45 ec	 lea	 eax, DWORD PTR __t$547133[ebp]
  000bb	c6 45 f6 00	 mov	 BYTE PTR __t$547133[ebp+10], 0
  000bf	8b cb		 mov	 ecx, ebx
$LL222@AddRenderI@2:
  000c1	31 38		 xor	 DWORD PTR [eax], edi
  000c3	83 c0 04	 add	 eax, 4
  000c6	49		 dec	 ecx
  000c7	75 f8		 jne	 SHORT $LL222@AddRenderI@2
  000c9	6a 08		 push	 8
  000cb	58		 pop	 eax
$LL219@AddRenderI@2:
  000cc	8b c8		 mov	 ecx, eax
  000ce	81 e1 03 00 00
	80		 and	 ecx, -2147483645	; 80000003H
  000d4	79 05		 jns	 SHORT $LN242@AddRenderI@2
  000d6	49		 dec	 ecx
  000d7	83 c9 fc	 or	 ecx, -4			; fffffffcH
  000da	41		 inc	 ecx
$LN242@AddRenderI@2:
  000db	b2 ed		 mov	 dl, -19			; ffffffedH
  000dd	2a d1		 sub	 dl, cl
  000df	30 54 05 ec	 xor	 BYTE PTR __t$547133[ebp+eax], dl
  000e3	40		 inc	 eax
  000e4	83 f8 0a	 cmp	 eax, 10			; 0000000aH
  000e7	7c e3		 jl	 SHORT $LL219@AddRenderI@2
  000e9	8b 4d e0	 mov	 ecx, DWORD PTR _szType$GSCopy$[ebp]
  000ec	8d 75 ec	 lea	 esi, DWORD PTR __t$547133[ebp]
  000ef	ff 15 00 00 00
	00		 call	 DWORD PTR __imp_?c_str@ioHashString@@QBEPBDXZ
$LL238@AddRenderI@2:
  000f5	8a 08		 mov	 cl, BYTE PTR [eax]
  000f7	3a 0e		 cmp	 cl, BYTE PTR [esi]
  000f9	75 18		 jne	 SHORT $LN239@AddRenderI@2
  000fb	84 c9		 test	 cl, cl
  000fd	74 10		 je	 SHORT $LN240@AddRenderI@2
  000ff	8a 48 01	 mov	 cl, BYTE PTR [eax+1]
  00102	3a 4e 01	 cmp	 cl, BYTE PTR [esi+1]
  00105	75 0c		 jne	 SHORT $LN239@AddRenderI@2
  00107	03 c3		 add	 eax, ebx
  00109	03 f3		 add	 esi, ebx
  0010b	84 c9		 test	 cl, cl
  0010d	75 e6		 jne	 SHORT $LL238@AddRenderI@2
$LN240@AddRenderI@2:
  0010f	33 c0		 xor	 eax, eax
  00111	eb 05		 jmp	 SHORT $LN241@AddRenderI@2
$LN239@AddRenderI@2:
  00113	1b c0		 sbb	 eax, eax
  00115	83 d8 ff	 sbb	 eax, -1
$LN241@AddRenderI@2:
  00118	85 c0		 test	 eax, eax
  0011a	75 26		 jne	 SHORT $LN3@AddRenderI@2

; 706  : 	{
; 707  : 		SAFEDELETE( m_pIconJoypad );

  0011c	8b 75 e8	 mov	 esi, DWORD PTR _this$GSCopy$[ebp]
  0011f	8b 8e 08 02 00
	00		 mov	 ecx, DWORD PTR [esi+520]
  00125	85 c9		 test	 ecx, ecx
  00127	74 0e		 je	 SHORT $LN2@AddRenderI@2
  00129	8b 01		 mov	 eax, DWORD PTR [ecx]
  0012b	6a 01		 push	 1
  0012d	ff 50 40	 call	 DWORD PTR [eax+64]
  00130	83 a6 08 02 00
	00 00		 and	 DWORD PTR [esi+520], 0
$LN2@AddRenderI@2:

; 708  : 		m_pIconJoypad = pImage;

  00137	8b 45 e4	 mov	 eax, DWORD PTR _pImage$GSCopy$[ebp]
  0013a	89 86 08 02 00
	00		 mov	 DWORD PTR [esi+520], eax

; 709  : 
; 710  : 	}
; 711  : 	else

  00140	eb 0f		 jmp	 SHORT $LN1@AddRenderI@2
$LN3@AddRenderI@2:

; 712  : 	{
; 713  : 		GameOptionBasicWnd::AddRenderImage( szType, pImage );

  00142	ff 75 e4	 push	 DWORD PTR _pImage$GSCopy$[ebp]
  00145	8b 4d e8	 mov	 ecx, DWORD PTR _this$GSCopy$[ebp]
  00148	ff 75 e0	 push	 DWORD PTR _szType$GSCopy$[ebp]
  0014b	ff 15 00 00 00
	00		 call	 DWORD PTR __imp_?AddRenderImage@ioWnd@@UAEXABVioHashString@@PAVioUIRenderImage@@@Z
$LN1@AddRenderI@2:

; 714  : 	}
; 715  : }

  00151	8b 4d fc	 mov	 ecx, DWORD PTR __$ArrayPad$[ebp]
  00154	5f		 pop	 edi
  00155	5e		 pop	 esi
  00156	33 cd		 xor	 ecx, ebp
  00158	5b		 pop	 ebx
  00159	e8 00 00 00 00	 call	 @__security_check_cookie@4
  0015e	c9		 leave
  0015f	c2 08 00	 ret	 8
?AddRenderImage@GameOptionSettingJoyKeyTab@@MAEXABVioHashString@@PAVioUIRenderImage@@@Z ENDP ; GameOptionSettingJoyKeyTab::AddRenderImage
_TEXT	ENDS
PUBLIC	?UpdateSetPage@GameOptionSettingJoyKeyTab@@IAEXH@Z ; GameOptionSettingJoyKeyTab::UpdateSetPage
EXTRN	?GetKey@CJoyKeyInfo@@QAEGW4KeyTypeArray@1@@Z:PROC ; CJoyKeyInfo::GetKey
; Function compile flags: /Ogsp
;	COMDAT ?UpdateSetPage@GameOptionSettingJoyKeyTab@@IAEXH@Z
_TEXT	SEGMENT
_eItemType$543671 = -4					; size = 4
_eFirsKeyType$543672 = 8				; size = 4
_iNewPage$ = 8						; size = 4
?UpdateSetPage@GameOptionSettingJoyKeyTab@@IAEXH@Z PROC	; GameOptionSettingJoyKeyTab::UpdateSetPage, COMDAT
; _this$ = ecx

; 870  : {

  00000	55		 push	 ebp
  00001	8b ec		 mov	 ebp, esp
  00003	51		 push	 ecx

; 871  : 	m_iCurPage = iNewPage;

  00004	8b 45 08	 mov	 eax, DWORD PTR _iNewPage$[ebp]
  00007	53		 push	 ebx
  00008	56		 push	 esi
  00009	8b f1		 mov	 esi, ecx

; 872  : 	m_eSelectKeyType = CJoyKeyInfo::JTA_NONE;

  0000b	83 8e 28 02 00
	00 ff		 or	 DWORD PTR [esi+552], -1
  00012	57		 push	 edi
  00013	89 86 0c 02 00
	00		 mov	 DWORD PTR [esi+524], eax

; 873  : 
; 874  : 	for (int i = 0; i < MAX_SHOW_ITEM_WND ; i++)

  00019	33 ff		 xor	 edi, edi
$LL9@UpdateSetP:

; 875  : 	{
; 876  : 		SettingJoyKeyItemWnd *pChild = dynamic_cast<SettingJoyKeyItemWnd*> ( FindChildWnd( ID_SETTING_KEY_ITEM_WND1 + i ) );

  0001b	6a 00		 push	 0
  0001d	68 00 00 00 00	 push	 OFFSET ??_R0?AVSettingJoyKeyItemWnd@@@8
  00022	68 00 00 00 00	 push	 OFFSET ??_R0?AVioWnd@@@8
  00027	6a 00		 push	 0
  00029	8d 47 65	 lea	 eax, DWORD PTR [edi+101]
  0002c	50		 push	 eax
  0002d	8b ce		 mov	 ecx, esi
  0002f	ff 15 00 00 00
	00		 call	 DWORD PTR __imp_?FindChildWnd@ioWnd@@QAEPAV1@K@Z
  00035	50		 push	 eax
  00036	e8 00 00 00 00	 call	 ___RTDynamicCast
  0003b	8b d8		 mov	 ebx, eax
  0003d	83 c4 14	 add	 esp, 20			; 00000014H

; 877  : 		if(pChild)

  00040	85 db		 test	 ebx, ebx
  00042	74 49		 je	 SHORT $LN3@UpdateSetP

; 878  : 		{
; 879  : 			SettingJoyKeyItemWnd::ItemType eItemType = GetItemType( m_iCurPage + i);

  00044	8b 86 0c 02 00
	00		 mov	 eax, DWORD PTR [esi+524]
  0004a	03 c7		 add	 eax, edi
  0004c	50		 push	 eax
  0004d	8b ce		 mov	 ecx, esi
  0004f	e8 00 00 00 00	 call	 ?GetItemType@GameOptionSettingJoyKeyTab@@IAE?AW4ItemType@SettingJoyKeyItemWnd@@H@Z ; GameOptionSettingJoyKeyTab::GetItemType

; 880  : 			CJoyKeyInfo::KeyTypeArray eFirsKeyType = CJoyKeyInfo::JTA_NONE;

  00054	83 4d 08 ff	 or	 DWORD PTR _eFirsKeyType$543672[ebp], -1

; 881  : 			GetKeyType( eItemType, eFirsKeyType );

  00058	8d 4d 08	 lea	 ecx, DWORD PTR _eFirsKeyType$543672[ebp]
  0005b	51		 push	 ecx
  0005c	50		 push	 eax
  0005d	8b ce		 mov	 ecx, esi
  0005f	89 45 fc	 mov	 DWORD PTR _eItemType$543671[ebp], eax
  00062	e8 00 00 00 00	 call	 ?GetKeyType@GameOptionSettingJoyKeyTab@@IAEXW4ItemType@SettingJoyKeyItemWnd@@AAW4KeyTypeArray@CJoyKeyInfo@@@Z ; GameOptionSettingJoyKeyTab::GetKeyType

; 882  : 			pChild->SetItem(eItemType,
; 883  : 				            eFirsKeyType,
; 884  : 							m_KeyInfo.GetKey(eFirsKeyType) );

  00067	ff 75 08	 push	 DWORD PTR _eFirsKeyType$543672[ebp]
  0006a	8d 8e 10 02 00
	00		 lea	 ecx, DWORD PTR [esi+528]
  00070	e8 00 00 00 00	 call	 ?GetKey@CJoyKeyInfo@@QAEGW4KeyTypeArray@1@@Z ; CJoyKeyInfo::GetKey
  00075	0f b7 c0	 movzx	 eax, ax
  00078	50		 push	 eax
  00079	ff 75 08	 push	 DWORD PTR _eFirsKeyType$543672[ebp]
  0007c	8b cb		 mov	 ecx, ebx
  0007e	ff 75 fc	 push	 DWORD PTR _eItemType$543671[ebp]
  00081	e8 00 00 00 00	 call	 ?SetItem@SettingJoyKeyItemWnd@@QAEXW4ItemType@1@W4KeyTypeArray@CJoyKeyInfo@@G@Z ; SettingJoyKeyItemWnd::SetItem

; 885  : 			pChild->UnSelect();

  00086	8b cb		 mov	 ecx, ebx
  00088	e8 00 00 00 00	 call	 ?UnSelect@SettingJoyKeyItemWnd@@QAEXXZ ; SettingJoyKeyItemWnd::UnSelect
$LN3@UpdateSetP:

; 873  : 
; 874  : 	for (int i = 0; i < MAX_SHOW_ITEM_WND ; i++)

  0008d	47		 inc	 edi
  0008e	83 ff 0b	 cmp	 edi, 11			; 0000000bH
  00091	7c 88		 jl	 SHORT $LL9@UpdateSetP
  00093	5f		 pop	 edi
  00094	5e		 pop	 esi
  00095	5b		 pop	 ebx

; 886  : 		}
; 887  : 	}
; 888  : }

  00096	c9		 leave
  00097	c2 04 00	 ret	 4
?UpdateSetPage@GameOptionSettingJoyKeyTab@@IAEXH@Z ENDP	; GameOptionSettingJoyKeyTab::UpdateSetPage
_TEXT	ENDS
PUBLIC	?ChangeKeyValue@GameOptionSettingJoyKeyTab@@IAEXG@Z ; GameOptionSettingJoyKeyTab::ChangeKeyValue
EXTRN	?SetKey@CJoyKeyInfo@@QAE_NW4KeyTypeArray@1@G@Z:PROC ; CJoyKeyInfo::SetKey
EXTRN	?GetEqual@CJoyKeyInfo@@QAE?AW4KeyTypeArray@1@G@Z:PROC ; CJoyKeyInfo::GetEqual
EXTRN	?IsRightKey@CJoyKeyInfo@@QAE_NG@Z:PROC		; CJoyKeyInfo::IsRightKey
; Function compile flags: /Ogsp
;	COMDAT ?ChangeKeyValue@GameOptionSettingJoyKeyTab@@IAEXG@Z
_TEXT	SEGMENT
_wKey$ = 8						; size = 2
?ChangeKeyValue@GameOptionSettingJoyKeyTab@@IAEXG@Z PROC ; GameOptionSettingJoyKeyTab::ChangeKeyValue, COMDAT
; _this$ = ecx

; 1050 : {

  00000	55		 push	 ebp
  00001	8b ec		 mov	 ebp, esp
  00003	56		 push	 esi
  00004	57		 push	 edi

; 1051 : 	if( !m_KeyInfo.IsRightKey(wKey) )

  00005	ff 75 08	 push	 DWORD PTR _wKey$[ebp]
  00008	8b f1		 mov	 esi, ecx
  0000a	8d 8e 10 02 00
	00		 lea	 ecx, DWORD PTR [esi+528]
  00010	e8 00 00 00 00	 call	 ?IsRightKey@CJoyKeyInfo@@QAE_NG@Z ; CJoyKeyInfo::IsRightKey
  00015	84 c0		 test	 al, al
  00017	75 38		 jne	 SHORT $LN11@ChangeKeyV

; 1052 : 	{
; 1053 : 		for (int i = 0; i < MAX_SHOW_ITEM_WND ; i++)

  00019	33 ff		 xor	 edi, edi
$LL10@ChangeKeyV:

; 1054 : 		{
; 1055 : 			SettingJoyKeyItemWnd *pChild = dynamic_cast<SettingJoyKeyItemWnd*> ( FindChildWnd( ID_SETTING_KEY_ITEM_WND1 + i ) );

  0001b	6a 00		 push	 0
  0001d	68 00 00 00 00	 push	 OFFSET ??_R0?AVSettingJoyKeyItemWnd@@@8
  00022	68 00 00 00 00	 push	 OFFSET ??_R0?AVioWnd@@@8
  00027	6a 00		 push	 0
  00029	8d 47 65	 lea	 eax, DWORD PTR [edi+101]
  0002c	50		 push	 eax
  0002d	8b ce		 mov	 ecx, esi
  0002f	ff 15 00 00 00
	00		 call	 DWORD PTR __imp_?FindChildWnd@ioWnd@@QAEPAV1@K@Z
  00035	50		 push	 eax
  00036	e8 00 00 00 00	 call	 ___RTDynamicCast
  0003b	83 c4 14	 add	 esp, 20			; 00000014H

; 1056 : 			if(pChild)

  0003e	85 c0		 test	 eax, eax
  00040	74 07		 je	 SHORT $LN9@ChangeKeyV

; 1057 : 				pChild->UnSelect();

  00042	8b c8		 mov	 ecx, eax
  00044	e8 00 00 00 00	 call	 ?UnSelect@SettingJoyKeyItemWnd@@QAEXXZ ; SettingJoyKeyItemWnd::UnSelect
$LN9@ChangeKeyV:

; 1052 : 	{
; 1053 : 		for (int i = 0; i < MAX_SHOW_ITEM_WND ; i++)

  00049	47		 inc	 edi
  0004a	83 ff 0b	 cmp	 edi, 11			; 0000000bH
  0004d	7c cc		 jl	 SHORT $LL10@ChangeKeyV

; 1058 : 		}
; 1059 : 	}
; 1060 : 	else

  0004f	eb 69		 jmp	 SHORT $LN1@ChangeKeyV
$LN11@ChangeKeyV:
  00051	53		 push	 ebx

; 1061 : 	{
; 1062 : 		CJoyKeyInfo::KeyTypeArray eEqualKeyType = m_KeyInfo.GetEqual( wKey );

  00052	ff 75 08	 push	 DWORD PTR _wKey$[ebp]
  00055	8d 8e 10 02 00
	00		 lea	 ecx, DWORD PTR [esi+528]
  0005b	e8 00 00 00 00	 call	 ?GetEqual@CJoyKeyInfo@@QAE?AW4KeyTypeArray@1@G@Z ; CJoyKeyInfo::GetEqual
  00060	8b d8		 mov	 ebx, eax

; 1063 : 		if( eEqualKeyType == CJoyKeyInfo::JTA_NONE )

  00062	83 fb ff	 cmp	 ebx, -1
  00065	75 0b		 jne	 SHORT $LN5@ChangeKeyV

; 1064 : 		{
; 1065 : 			m_KeyInfo.SetKey( m_eSelectKeyType, wKey );

  00067	ff 75 08	 push	 DWORD PTR _wKey$[ebp]
  0006a	ff b6 28 02 00
	00		 push	 DWORD PTR [esi+552]

; 1066 : 			UpdateSetPage(m_iCurPage);

  00070	eb 2f		 jmp	 SHORT $LN17@ChangeKeyV
$LN5@ChangeKeyV:

; 1067 : 		}
; 1068 : 		else if( m_eSelectKeyType == eEqualKeyType )

  00072	8b 86 28 02 00
	00		 mov	 eax, DWORD PTR [esi+552]
  00078	3b c3		 cmp	 eax, ebx

; 1069 : 		{
; 1070 : 			UpdateSetPage(m_iCurPage);

  0007a	74 30		 je	 SHORT $LN18@ChangeKeyV

; 1071 : 		}
; 1072 : 		else if( m_eSelectKeyType != eEqualKeyType )
; 1073 : 		{
; 1074 : 			WORD wSelectKey = m_KeyInfo.GetKey(m_eSelectKeyType);

  0007c	50		 push	 eax
  0007d	8d 8e 10 02 00
	00		 lea	 ecx, DWORD PTR [esi+528]
  00083	e8 00 00 00 00	 call	 ?GetKey@CJoyKeyInfo@@QAEGW4KeyTypeArray@1@@Z ; CJoyKeyInfo::GetKey
  00088	0f b7 c0	 movzx	 eax, ax

; 1075 : 			m_KeyInfo.SetKey( eEqualKeyType, wSelectKey);

  0008b	50		 push	 eax
  0008c	53		 push	 ebx
  0008d	8d 8e 10 02 00
	00		 lea	 ecx, DWORD PTR [esi+528]
  00093	e8 00 00 00 00	 call	 ?SetKey@CJoyKeyInfo@@QAE_NW4KeyTypeArray@1@G@Z ; CJoyKeyInfo::SetKey

; 1076 : 			m_KeyInfo.SetKey( m_eSelectKeyType, wKey );

  00098	ff 75 08	 push	 DWORD PTR _wKey$[ebp]
  0009b	ff b6 28 02 00
	00		 push	 DWORD PTR [esi+552]
$LN17@ChangeKeyV:
  000a1	8d 8e 10 02 00
	00		 lea	 ecx, DWORD PTR [esi+528]
  000a7	e8 00 00 00 00	 call	 ?SetKey@CJoyKeyInfo@@QAE_NW4KeyTypeArray@1@G@Z ; CJoyKeyInfo::SetKey
$LN18@ChangeKeyV:

; 1077 : 			UpdateSetPage(m_iCurPage);

  000ac	ff b6 0c 02 00
	00		 push	 DWORD PTR [esi+524]
  000b2	8b ce		 mov	 ecx, esi
  000b4	e8 00 00 00 00	 call	 ?UpdateSetPage@GameOptionSettingJoyKeyTab@@IAEXH@Z ; GameOptionSettingJoyKeyTab::UpdateSetPage
  000b9	5b		 pop	 ebx
$LN1@ChangeKeyV:
  000ba	5f		 pop	 edi
  000bb	5e		 pop	 esi

; 1078 : 		}
; 1079 : 	}
; 1080 : }

  000bc	5d		 pop	 ebp
  000bd	c2 04 00	 ret	 4
?ChangeKeyValue@GameOptionSettingJoyKeyTab@@IAEXG@Z ENDP ; GameOptionSettingJoyKeyTab::ChangeKeyValue
_TEXT	ENDS
PUBLIC	?SetUseJoyPad@GameOptionSettingJoyKeyTab@@IAEXK@Z ; GameOptionSettingJoyKeyTab::SetUseJoyPad
EXTRN	??_M@YGXPAXIHP6EX0@Z@Z:PROC			; `eh vector destructor iterator'
EXTRN	?SetPrevMsgListBox@ioSP2GUIManager@@QAEXPAVioWnd@@H0PAVioComplexStringPrinter@@@Z:PROC ; ioSP2GUIManager::SetPrevMsgListBox
EXTRN	?GetSingleton@ioSP2GUIManager@@SAAAV1@XZ:PROC	; ioSP2GUIManager::GetSingleton
EXTRN	?CopyFullText@ioComplexStringPrinter@@QBEXAAV1@@Z:PROC ; ioComplexStringPrinter::CopyFullText
EXTRN	??_L@YGXPAXIHP6EX0@Z1@Z:PROC			; `eh vector constructor iterator'
EXTRN	??0ioComplexStringPrinter@@QAE@XZ:PROC		; ioComplexStringPrinter::ioComplexStringPrinter
EXTRN	??1ioComplexStringPrinter@@QAE@XZ:PROC		; ioComplexStringPrinter::~ioComplexStringPrinter
EXTRN	__imp_?CheckRadioButton@ioWnd@@QAEXKKK@Z:PROC
EXTRN	__EH_epilog3_GS:PROC
EXTRN	__EH_prolog3_GS:PROC
;	COMDAT xdata$x
; File c:\program files (x86)\microsoft visual studio 10.0\vc\include\vector
xdata$x	SEGMENT
__unwindtable$?SetUseJoyPad@GameOptionSettingJoyKeyTab@@IAEXK@Z DD 0ffffffffH
	DD	FLAT:__unwindfunclet$?SetUseJoyPad@GameOptionSettingJoyKeyTab@@IAEXK@Z$0
__ehfuncinfo$?SetUseJoyPad@GameOptionSettingJoyKeyTab@@IAEXK@Z DD 019930522H
	DD	01H
	DD	FLAT:__unwindtable$?SetUseJoyPad@GameOptionSettingJoyKeyTab@@IAEXK@Z
	DD	2 DUP(00H)
	DD	2 DUP(00H)
	DD	00H
	DD	01H
; Function compile flags: /Ogsp
; File d:\lost saga for developer\youtube\tutorial\source\src\lsclient\gui\gameoptionsettingjoykeytab.cpp
xdata$x	ENDS
;	COMDAT ?SetUseJoyPad@GameOptionSettingJoyKeyTab@@IAEXK@Z
_TEXT	SEGMENT
_i$544128 = -404					; size = 4
_kPrinter$544124 = -400					; size = 384
__$EHRec$ = -12						; size = 12
_dwID$ = 8						; size = 4
?SetUseJoyPad@GameOptionSettingJoyKeyTab@@IAEXK@Z PROC	; GameOptionSettingJoyKeyTab::SetUseJoyPad, COMDAT
; _this$ = ecx

; 1174 : {

  00000	68 88 01 00 00	 push	 392			; 00000188H
  00005	b8 00 00 00 00	 mov	 eax, __ehhandler$?SetUseJoyPad@GameOptionSettingJoyKeyTab@@IAEXK@Z
  0000a	e8 00 00 00 00	 call	 __EH_prolog3_GS

; 1175 : 	CheckRadioButton( ID_USE_CHECK, ID_UNUSED_CHECK, dwID );

  0000f	ff 75 08	 push	 DWORD PTR _dwID$[ebp]
  00012	8b f1		 mov	 esi, ecx
  00014	6a 0c		 push	 12			; 0000000cH
  00016	6a 0b		 push	 11			; 0000000bH
  00018	ff 15 00 00 00
	00		 call	 DWORD PTR __imp_?CheckRadioButton@ioWnd@@QAEXKKK@Z

; 1176 : 	
; 1177 : 	bool bPrevUseJoyPad = m_CurrentOption.m_bUseJoyPad;
; 1178 : 	switch( dwID )

  0001e	8b 45 08	 mov	 eax, DWORD PTR _dwID$[ebp]
  00021	83 e8 0b	 sub	 eax, 11			; 0000000bH
  00024	8a 9e c7 01 00
	00		 mov	 bl, BYTE PTR [esi+455]
  0002a	74 0b		 je	 SHORT $LN7@SetUseJoyP
  0002c	48		 dec	 eax
  0002d	75 0f		 jne	 SHORT $LN8@SetUseJoyP

; 1183 : 		}
; 1184 : 		break;
; 1185 : 	case ID_UNUSED_CHECK:
; 1186 : 		{
; 1187 : 			m_CurrentOption.m_bUseJoyPad = false;

  0002f	88 86 c7 01 00
	00		 mov	 BYTE PTR [esi+455], al

; 1188 : 		}
; 1189 : 		break;

  00035	eb 07		 jmp	 SHORT $LN8@SetUseJoyP
$LN7@SetUseJoyP:

; 1179 : 	{
; 1180 : 	case ID_USE_CHECK:
; 1181 : 		{
; 1182 : 			m_CurrentOption.m_bUseJoyPad = true;

  00037	c6 86 c7 01 00
	00 01		 mov	 BYTE PTR [esi+455], 1
$LN8@SetUseJoyP:

; 1190 : 	}
; 1191 : 	CheckUseJoyPad();

  0003e	8b ce		 mov	 ecx, esi
  00040	e8 00 00 00 00	 call	 ?CheckUseJoyPad@GameOptionSettingJoyKeyTab@@IAEXXZ ; GameOptionSettingJoyKeyTab::CheckUseJoyPad

; 1192 : 	UpdateSetPage( m_iCurPage );

  00045	ff b6 0c 02 00
	00		 push	 DWORD PTR [esi+524]
  0004b	8b ce		 mov	 ecx, esi
  0004d	e8 00 00 00 00	 call	 ?UpdateSetPage@GameOptionSettingJoyKeyTab@@IAEXH@Z ; GameOptionSettingJoyKeyTab::UpdateSetPage

; 1193 : 
; 1194 : 	//
; 1195 : 	if( !bPrevUseJoyPad && m_CurrentOption.m_bUseJoyPad )

  00052	84 db		 test	 bl, bl
  00054	0f 85 90 00 00
	00		 jne	 $LN5@SetUseJoyP
  0005a	38 9e c7 01 00
	00		 cmp	 BYTE PTR [esi+455], bl
  00060	0f 84 84 00 00
	00		 je	 $LN5@SetUseJoyP

; 1196 : 	{
; 1197 : 		ioComplexStringPrinter kPrinter[MAX_MSG_LIST_SIZE];

  00066	bf 00 00 00 00	 mov	 edi, OFFSET ??1ioComplexStringPrinter@@QAE@XZ ; ioComplexStringPrinter::~ioComplexStringPrinter
  0006b	57		 push	 edi
  0006c	68 00 00 00 00	 push	 OFFSET ??0ioComplexStringPrinter@@QAE@XZ ; ioComplexStringPrinter::ioComplexStringPrinter
  00071	6a 0c		 push	 12			; 0000000cH
  00073	6a 20		 push	 32			; 00000020H
  00075	8d 85 70 fe ff
	ff		 lea	 eax, DWORD PTR _kPrinter$544124[ebp]
  0007b	50		 push	 eax
  0007c	e8 00 00 00 00	 call	 ??_L@YGXPAXIHP6EX0@Z1@Z
  00081	83 65 fc 00	 and	 DWORD PTR __$EHRec$[ebp+8], 0

; 1198 : 		for( int i=0;i < 3;i++ )

  00085	83 a5 6c fe ff
	ff 00		 and	 DWORD PTR _i$544128[ebp], 0
  0008c	8d 9d 70 fe ff
	ff		 lea	 ebx, DWORD PTR _kPrinter$544124[ebp]
  00092	81 c6 48 02 00
	00		 add	 esi, 584		; 00000248H
$LN4@SetUseJoyP:

; 1199 : 		{
; 1200 : 			if( m_Warning[i].IsEmpty() )

  00098	8b 06		 mov	 eax, DWORD PTR [esi]
  0009a	3b 46 04	 cmp	 eax, DWORD PTR [esi+4]
  0009d	74 1e		 je	 SHORT $LN18@SetUseJoyP

; 1201 : 				break;
; 1202 : 
; 1203 : 			m_Warning[i].CopyFullText( kPrinter[i] );

  0009f	53		 push	 ebx
  000a0	8d 4e f4	 lea	 ecx, DWORD PTR [esi-12]
  000a3	e8 00 00 00 00	 call	 ?CopyFullText@ioComplexStringPrinter@@QBEXAAV1@@Z ; ioComplexStringPrinter::CopyFullText
  000a8	ff 85 6c fe ff
	ff		 inc	 DWORD PTR _i$544128[ebp]
  000ae	83 c3 20	 add	 ebx, 32			; 00000020H
  000b1	83 c6 20	 add	 esi, 32			; 00000020H
  000b4	83 bd 6c fe ff
	ff 03		 cmp	 DWORD PTR _i$544128[ebp], 3
  000bb	7c db		 jl	 SHORT $LN4@SetUseJoyP
$LN18@SetUseJoyP:

; 1204 : 		}
; 1205 : 		g_GUIMgr.SetPrevMsgListBox( NULL, MB_OK, NULL, kPrinter );

  000bd	8d 85 70 fe ff
	ff		 lea	 eax, DWORD PTR _kPrinter$544124[ebp]
  000c3	50		 push	 eax
  000c4	33 c0		 xor	 eax, eax
  000c6	50		 push	 eax
  000c7	50		 push	 eax
  000c8	50		 push	 eax
  000c9	e8 00 00 00 00	 call	 ?GetSingleton@ioSP2GUIManager@@SAAAV1@XZ ; ioSP2GUIManager::GetSingleton
  000ce	8b c8		 mov	 ecx, eax
  000d0	e8 00 00 00 00	 call	 ?SetPrevMsgListBox@ioSP2GUIManager@@QAEXPAVioWnd@@H0PAVioComplexStringPrinter@@@Z ; ioSP2GUIManager::SetPrevMsgListBox

; 1206 : 	}

  000d5	83 4d fc ff	 or	 DWORD PTR __$EHRec$[ebp+8], -1
  000d9	57		 push	 edi
  000da	6a 0c		 push	 12			; 0000000cH
  000dc	6a 20		 push	 32			; 00000020H
  000de	8d 85 70 fe ff
	ff		 lea	 eax, DWORD PTR _kPrinter$544124[ebp]
  000e4	50		 push	 eax
  000e5	e8 00 00 00 00	 call	 ??_M@YGXPAXIHP6EX0@Z@Z
$LN5@SetUseJoyP:

; 1207 : }

  000ea	e8 00 00 00 00	 call	 __EH_epilog3_GS
  000ef	c2 04 00	 ret	 4
_TEXT	ENDS
;	COMDAT text$x
text$x	SEGMENT
__unwindfunclet$?SetUseJoyPad@GameOptionSettingJoyKeyTab@@IAEXK@Z$0:
  00000	68 00 00 00 00	 push	 OFFSET ??1ioComplexStringPrinter@@QAE@XZ ; ioComplexStringPrinter::~ioComplexStringPrinter
  00005	6a 0c		 push	 12			; 0000000cH
  00007	6a 20		 push	 32			; 00000020H
  00009	8d 85 70 fe ff
	ff		 lea	 eax, DWORD PTR _kPrinter$544124[ebp]
  0000f	50		 push	 eax
  00010	e8 00 00 00 00	 call	 ??_M@YGXPAXIHP6EX0@Z@Z
  00015	c3		 ret	 0
__ehhandler$?SetUseJoyPad@GameOptionSettingJoyKeyTab@@IAEXK@Z:
  00016	8b 54 24 08	 mov	 edx, DWORD PTR [esp+8]
  0001a	8d 42 0c	 lea	 eax, DWORD PTR [edx+12]
  0001d	8b 8a 68 fe ff
	ff		 mov	 ecx, DWORD PTR [edx-408]
  00023	33 c8		 xor	 ecx, eax
  00025	e8 00 00 00 00	 call	 @__security_check_cookie@4
  0002a	8b 4a fc	 mov	 ecx, DWORD PTR [edx-4]
  0002d	33 c8		 xor	 ecx, eax
  0002f	e8 00 00 00 00	 call	 @__security_check_cookie@4
  00034	b8 00 00 00 00	 mov	 eax, OFFSET __ehfuncinfo$?SetUseJoyPad@GameOptionSettingJoyKeyTab@@IAEXK@Z
  00039	e9 00 00 00 00	 jmp	 ___CxxFrameHandler3
text$x	ENDS
?SetUseJoyPad@GameOptionSettingJoyKeyTab@@IAEXK@Z ENDP	; GameOptionSettingJoyKeyTab::SetUseJoyPad
PUBLIC	?UpdateByCurrentOption@GameOptionSettingJoyKeyTab@@MAEXXZ ; GameOptionSettingJoyKeyTab::UpdateByCurrentOption
; Function compile flags: /Ogsp
;	COMDAT ?UpdateByCurrentOption@GameOptionSettingJoyKeyTab@@MAEXXZ
_TEXT	SEGMENT
?UpdateByCurrentOption@GameOptionSettingJoyKeyTab@@MAEXXZ PROC ; GameOptionSettingJoyKeyTab::UpdateByCurrentOption, COMDAT
; _this$ = ecx

; 1211 : 	if( m_CurrentOption.m_bUseJoyPad )

  00000	80 b9 c7 01 00
	00 00		 cmp	 BYTE PTR [ecx+455], 0
  00007	74 04		 je	 SHORT $LN2@UpdateByCu

; 1212 : 		SetUseJoyPad( ID_USE_CHECK );

  00009	6a 0b		 push	 11			; 0000000bH

; 1213 : 	else

  0000b	eb 02		 jmp	 SHORT $LN5@UpdateByCu
$LN2@UpdateByCu:

; 1214 : 		SetUseJoyPad( ID_UNUSED_CHECK );

  0000d	6a 0c		 push	 12			; 0000000cH
$LN5@UpdateByCu:
  0000f	e8 00 00 00 00	 call	 ?SetUseJoyPad@GameOptionSettingJoyKeyTab@@IAEXK@Z ; GameOptionSettingJoyKeyTab::SetUseJoyPad

; 1215 : }

  00014	c3		 ret	 0
?UpdateByCurrentOption@GameOptionSettingJoyKeyTab@@MAEXXZ ENDP ; GameOptionSettingJoyKeyTab::UpdateByCurrentOption
_TEXT	ENDS
PUBLIC	??0?$vector@W4ItemType@SettingJoyKeyItemWnd@@V?$allocator@W4ItemType@SettingJoyKeyItemWnd@@@std@@@std@@QAE@XZ ; std::vector<enum SettingJoyKeyItemWnd::ItemType,std::allocator<enum SettingJoyKeyItemWnd::ItemType> >::vector<enum SettingJoyKeyItemWnd::ItemType,std::allocator<enum SettingJoyKeyItemWnd::ItemType> >
; Function compile flags: /Ogsp
; File c:\program files (x86)\microsoft visual studio 10.0\vc\include\vector
;	COMDAT ??0?$vector@W4ItemType@SettingJoyKeyItemWnd@@V?$allocator@W4ItemType@SettingJoyKeyItemWnd@@@std@@@std@@QAE@XZ
_TEXT	SEGMENT
??0?$vector@W4ItemType@SettingJoyKeyItemWnd@@V?$allocator@W4ItemType@SettingJoyKeyItemWnd@@@std@@@std@@QAE@XZ PROC ; std::vector<enum SettingJoyKeyItemWnd::ItemType,std::allocator<enum SettingJoyKeyItemWnd::ItemType> >::vector<enum SettingJoyKeyItemWnd::ItemType,std::allocator<enum SettingJoyKeyItemWnd::ItemType> >, COMDAT
; _this$ = ecx

; 507  : 		{	// construct empty vector

  00000	8b c1		 mov	 eax, ecx
  00002	33 c9		 xor	 ecx, ecx
  00004	89 08		 mov	 DWORD PTR [eax], ecx
  00006	89 48 04	 mov	 DWORD PTR [eax+4], ecx
  00009	89 48 08	 mov	 DWORD PTR [eax+8], ecx

; 508  : 		}

  0000c	c3		 ret	 0
??0?$vector@W4ItemType@SettingJoyKeyItemWnd@@V?$allocator@W4ItemType@SettingJoyKeyItemWnd@@@std@@@std@@QAE@XZ ENDP ; std::vector<enum SettingJoyKeyItemWnd::ItemType,std::allocator<enum SettingJoyKeyItemWnd::ItemType> >::vector<enum SettingJoyKeyItemWnd::ItemType,std::allocator<enum SettingJoyKeyItemWnd::ItemType> >
_TEXT	ENDS
PUBLIC	?begin@?$vector@W4ItemType@SettingJoyKeyItemWnd@@V?$allocator@W4ItemType@SettingJoyKeyItemWnd@@@std@@@std@@QAE?AV?$_Vector_iterator@V?$_Vector_val@W4ItemType@SettingJoyKeyItemWnd@@V?$allocator@W4ItemType@SettingJoyKeyItemWnd@@@std@@@std@@@2@XZ ; std::vector<enum SettingJoyKeyItemWnd::ItemType,std::allocator<enum SettingJoyKeyItemWnd::ItemType> >::begin
; Function compile flags: /Ogsp
;	COMDAT ?begin@?$vector@W4ItemType@SettingJoyKeyItemWnd@@V?$allocator@W4ItemType@SettingJoyKeyItemWnd@@@std@@@std@@QAE?AV?$_Vector_iterator@V?$_Vector_val@W4ItemType@SettingJoyKeyItemWnd@@V?$allocator@W4ItemType@SettingJoyKeyItemWnd@@@std@@@std@@@2@XZ
_TEXT	SEGMENT
___$ReturnUdt$ = 8					; size = 4
?begin@?$vector@W4ItemType@SettingJoyKeyItemWnd@@V?$allocator@W4ItemType@SettingJoyKeyItemWnd@@@std@@@std@@QAE?AV?$_Vector_iterator@V?$_Vector_val@W4ItemType@SettingJoyKeyItemWnd@@V?$allocator@W4ItemType@SettingJoyKeyItemWnd@@@std@@@std@@@2@XZ PROC ; std::vector<enum SettingJoyKeyItemWnd::ItemType,std::allocator<enum SettingJoyKeyItemWnd::ItemType> >::begin, COMDAT
; _this$ = ecx

; 781  : 		{	// return iterator for beginning of mutable sequence

  00000	55		 push	 ebp
  00001	8b ec		 mov	 ebp, esp

; 782  : 		return (iterator(this->_Myfirst, this));

  00003	8b 09		 mov	 ecx, DWORD PTR [ecx]
  00005	8b 45 08	 mov	 eax, DWORD PTR ___$ReturnUdt$[ebp]
  00008	89 08		 mov	 DWORD PTR [eax], ecx

; 783  : 		}

  0000a	5d		 pop	 ebp
  0000b	c2 04 00	 ret	 4
?begin@?$vector@W4ItemType@SettingJoyKeyItemWnd@@V?$allocator@W4ItemType@SettingJoyKeyItemWnd@@@std@@@std@@QAE?AV?$_Vector_iterator@V?$_Vector_val@W4ItemType@SettingJoyKeyItemWnd@@V?$allocator@W4ItemType@SettingJoyKeyItemWnd@@@std@@@std@@@2@XZ ENDP ; std::vector<enum SettingJoyKeyItemWnd::ItemType,std::allocator<enum SettingJoyKeyItemWnd::ItemType> >::begin
_TEXT	ENDS
PUBLIC	?end@?$vector@W4ItemType@SettingJoyKeyItemWnd@@V?$allocator@W4ItemType@SettingJoyKeyItemWnd@@@std@@@std@@QAE?AV?$_Vector_iterator@V?$_Vector_val@W4ItemType@SettingJoyKeyItemWnd@@V?$allocator@W4ItemType@SettingJoyKeyItemWnd@@@std@@@std@@@2@XZ ; std::vector<enum SettingJoyKeyItemWnd::ItemType,std::allocator<enum SettingJoyKeyItemWnd::ItemType> >::end
; Function compile flags: /Ogsp
;	COMDAT ?end@?$vector@W4ItemType@SettingJoyKeyItemWnd@@V?$allocator@W4ItemType@SettingJoyKeyItemWnd@@@std@@@std@@QAE?AV?$_Vector_iterator@V?$_Vector_val@W4ItemType@SettingJoyKeyItemWnd@@V?$allocator@W4ItemType@SettingJoyKeyItemWnd@@@std@@@std@@@2@XZ
_TEXT	SEGMENT
___$ReturnUdt$ = 8					; size = 4
?end@?$vector@W4ItemType@SettingJoyKeyItemWnd@@V?$allocator@W4ItemType@SettingJoyKeyItemWnd@@@std@@@std@@QAE?AV?$_Vector_iterator@V?$_Vector_val@W4ItemType@SettingJoyKeyItemWnd@@V?$allocator@W4ItemType@SettingJoyKeyItemWnd@@@std@@@std@@@2@XZ PROC ; std::vector<enum SettingJoyKeyItemWnd::ItemType,std::allocator<enum SettingJoyKeyItemWnd::ItemType> >::end, COMDAT
; _this$ = ecx

; 791  : 		{	// return iterator for end of mutable sequence

  00000	55		 push	 ebp
  00001	8b ec		 mov	 ebp, esp

; 792  : 		return (iterator(this->_Mylast, this));

  00003	8b 49 04	 mov	 ecx, DWORD PTR [ecx+4]
  00006	8b 45 08	 mov	 eax, DWORD PTR ___$ReturnUdt$[ebp]
  00009	89 08		 mov	 DWORD PTR [eax], ecx

; 793  : 		}

  0000b	5d		 pop	 ebp
  0000c	c2 04 00	 ret	 4
?end@?$vector@W4ItemType@SettingJoyKeyItemWnd@@V?$allocator@W4ItemType@SettingJoyKeyItemWnd@@@std@@@std@@QAE?AV?$_Vector_iterator@V?$_Vector_val@W4ItemType@SettingJoyKeyItemWnd@@V?$allocator@W4ItemType@SettingJoyKeyItemWnd@@@std@@@std@@@2@XZ ENDP ; std::vector<enum SettingJoyKeyItemWnd::ItemType,std::allocator<enum SettingJoyKeyItemWnd::ItemType> >::end
_TEXT	ENDS
PUBLIC	?_Destroy@?$vector@W4ItemType@SettingJoyKeyItemWnd@@V?$allocator@W4ItemType@SettingJoyKeyItemWnd@@@std@@@std@@IAEXPAW4ItemType@SettingJoyKeyItemWnd@@0@Z ; std::vector<enum SettingJoyKeyItemWnd::ItemType,std::allocator<enum SettingJoyKeyItemWnd::ItemType> >::_Destroy
; Function compile flags: /Ogsp
;	COMDAT ?_Destroy@?$vector@W4ItemType@SettingJoyKeyItemWnd@@V?$allocator@W4ItemType@SettingJoyKeyItemWnd@@@std@@@std@@IAEXPAW4ItemType@SettingJoyKeyItemWnd@@0@Z
_TEXT	SEGMENT
__First$ = 8						; size = 4
__Last$ = 12						; size = 4
?_Destroy@?$vector@W4ItemType@SettingJoyKeyItemWnd@@V?$allocator@W4ItemType@SettingJoyKeyItemWnd@@@std@@@std@@IAEXPAW4ItemType@SettingJoyKeyItemWnd@@0@Z PROC ; std::vector<enum SettingJoyKeyItemWnd::ItemType,std::allocator<enum SettingJoyKeyItemWnd::ItemType> >::_Destroy, COMDAT
; _this$ = ecx

; 1270 : 		_Destroy_range(_First, _Last, this->_Alval);
; 1271 : 		}

  00000	c2 08 00	 ret	 8
?_Destroy@?$vector@W4ItemType@SettingJoyKeyItemWnd@@V?$allocator@W4ItemType@SettingJoyKeyItemWnd@@@std@@@std@@IAEXPAW4ItemType@SettingJoyKeyItemWnd@@0@Z ENDP ; std::vector<enum SettingJoyKeyItemWnd::ItemType,std::allocator<enum SettingJoyKeyItemWnd::ItemType> >::_Destroy
_TEXT	ENDS
PUBLIC	?_Tidy@?$vector@W4ItemType@SettingJoyKeyItemWnd@@V?$allocator@W4ItemType@SettingJoyKeyItemWnd@@@std@@@std@@IAEXXZ ; std::vector<enum SettingJoyKeyItemWnd::ItemType,std::allocator<enum SettingJoyKeyItemWnd::ItemType> >::_Tidy
EXTRN	__imp_?_Orphan_all@_Container_base0@std@@QAEXXZ:PROC
; Function compile flags: /Ogsp
;	COMDAT ?_Tidy@?$vector@W4ItemType@SettingJoyKeyItemWnd@@V?$allocator@W4ItemType@SettingJoyKeyItemWnd@@@std@@@std@@IAEXXZ
_TEXT	SEGMENT
?_Tidy@?$vector@W4ItemType@SettingJoyKeyItemWnd@@V?$allocator@W4ItemType@SettingJoyKeyItemWnd@@@std@@@std@@IAEXXZ PROC ; std::vector<enum SettingJoyKeyItemWnd::ItemType,std::allocator<enum SettingJoyKeyItemWnd::ItemType> >::_Tidy, COMDAT
; _this$ = ecx

; 1301 : 		{	// free all storage

  00000	56		 push	 esi
  00001	8b f1		 mov	 esi, ecx

; 1302 : 		if (this->_Myfirst != 0)

  00003	83 3e 00	 cmp	 DWORD PTR [esi], 0
  00006	74 0e		 je	 SHORT $LN12@Tidy

; 1303 : 			{	// something to free, destroy and deallocate it
; 1304 : 			this->_Orphan_all();

  00008	ff 15 00 00 00
	00		 call	 DWORD PTR __imp_?_Orphan_all@_Container_base0@std@@QAEXXZ

; 1305 : 			_Destroy(this->_Myfirst, this->_Mylast);
; 1306 : 			this->_Alval.deallocate(this->_Myfirst,
; 1307 : 				this->_Myend - this->_Myfirst);

  0000e	ff 36		 push	 DWORD PTR [esi]
  00010	e8 00 00 00 00	 call	 ??3@YAXPAX@Z		; operator delete
  00015	59		 pop	 ecx
$LN12@Tidy:

; 1308 : 			}
; 1309 : 		this->_Myfirst = 0;

  00016	83 26 00	 and	 DWORD PTR [esi], 0

; 1310 : 		this->_Mylast = 0;

  00019	83 66 04 00	 and	 DWORD PTR [esi+4], 0

; 1311 : 		this->_Myend = 0;

  0001d	83 66 08 00	 and	 DWORD PTR [esi+8], 0
  00021	5e		 pop	 esi

; 1312 : 		}

  00022	c3		 ret	 0
?_Tidy@?$vector@W4ItemType@SettingJoyKeyItemWnd@@V?$allocator@W4ItemType@SettingJoyKeyItemWnd@@@std@@@std@@IAEXXZ ENDP ; std::vector<enum SettingJoyKeyItemWnd::ItemType,std::allocator<enum SettingJoyKeyItemWnd::ItemType> >::_Tidy
_TEXT	ENDS
PUBLIC	?_Make_iter@?$vector@W4ItemType@SettingJoyKeyItemWnd@@V?$allocator@W4ItemType@SettingJoyKeyItemWnd@@@std@@@std@@QBE?AV?$_Vector_iterator@V?$_Vector_val@W4ItemType@SettingJoyKeyItemWnd@@V?$allocator@W4ItemType@SettingJoyKeyItemWnd@@@std@@@std@@@2@V?$_Vector_const_iterator@V?$_Vector_val@W4ItemType@SettingJoyKeyItemWnd@@V?$allocator@W4ItemType@SettingJoyKeyItemWnd@@@std@@@std@@@2@@Z ; std::vector<enum SettingJoyKeyItemWnd::ItemType,std::allocator<enum SettingJoyKeyItemWnd::ItemType> >::_Make_iter
; Function compile flags: /Ogsp
;	COMDAT ?_Make_iter@?$vector@W4ItemType@SettingJoyKeyItemWnd@@V?$allocator@W4ItemType@SettingJoyKeyItemWnd@@@std@@@std@@QBE?AV?$_Vector_iterator@V?$_Vector_val@W4ItemType@SettingJoyKeyItemWnd@@V?$allocator@W4ItemType@SettingJoyKeyItemWnd@@@std@@@std@@@2@V?$_Vector_const_iterator@V?$_Vector_val@W4ItemType@SettingJoyKeyItemWnd@@V?$allocator@W4ItemType@SettingJoyKeyItemWnd@@@std@@@std@@@2@@Z
_TEXT	SEGMENT
___$ReturnUdt$ = 8					; size = 4
__Where$ = 12						; size = 4
?_Make_iter@?$vector@W4ItemType@SettingJoyKeyItemWnd@@V?$allocator@W4ItemType@SettingJoyKeyItemWnd@@@std@@@std@@QBE?AV?$_Vector_iterator@V?$_Vector_val@W4ItemType@SettingJoyKeyItemWnd@@V?$allocator@W4ItemType@SettingJoyKeyItemWnd@@@std@@@std@@@2@V?$_Vector_const_iterator@V?$_Vector_val@W4ItemType@SettingJoyKeyItemWnd@@V?$allocator@W4ItemType@SettingJoyKeyItemWnd@@@std@@@std@@@2@@Z PROC ; std::vector<enum SettingJoyKeyItemWnd::ItemType,std::allocator<enum SettingJoyKeyItemWnd::ItemType> >::_Make_iter, COMDAT
; _this$ = ecx

; 801  : 		{	// make iterator from const_iterator

  00000	55		 push	 ebp
  00001	8b ec		 mov	 ebp, esp

; 802  : 		return (iterator(_Where._Ptr, this));

  00003	8b 45 08	 mov	 eax, DWORD PTR ___$ReturnUdt$[ebp]
  00006	8b 4d 0c	 mov	 ecx, DWORD PTR __Where$[ebp]
  00009	89 08		 mov	 DWORD PTR [eax], ecx

; 803  : 		}

  0000b	5d		 pop	 ebp
  0000c	c2 08 00	 ret	 8
?_Make_iter@?$vector@W4ItemType@SettingJoyKeyItemWnd@@V?$allocator@W4ItemType@SettingJoyKeyItemWnd@@@std@@@std@@QBE?AV?$_Vector_iterator@V?$_Vector_val@W4ItemType@SettingJoyKeyItemWnd@@V?$allocator@W4ItemType@SettingJoyKeyItemWnd@@@std@@@std@@@2@V?$_Vector_const_iterator@V?$_Vector_val@W4ItemType@SettingJoyKeyItemWnd@@V?$allocator@W4ItemType@SettingJoyKeyItemWnd@@@std@@@std@@@2@@Z ENDP ; std::vector<enum SettingJoyKeyItemWnd::ItemType,std::allocator<enum SettingJoyKeyItemWnd::ItemType> >::_Make_iter
_TEXT	ENDS
PUBLIC	??9?$_Vector_const_iterator@V?$_Vector_val@W4ItemType@SettingJoyKeyItemWnd@@V?$allocator@W4ItemType@SettingJoyKeyItemWnd@@@std@@@std@@@std@@QBE_NABV01@@Z ; std::_Vector_const_iterator<std::_Vector_val<enum SettingJoyKeyItemWnd::ItemType,std::allocator<enum SettingJoyKeyItemWnd::ItemType> > >::operator!=
; Function compile flags: /Ogsp
;	COMDAT ??9?$_Vector_const_iterator@V?$_Vector_val@W4ItemType@SettingJoyKeyItemWnd@@V?$allocator@W4ItemType@SettingJoyKeyItemWnd@@@std@@@std@@@std@@QBE_NABV01@@Z
_TEXT	SEGMENT
__Right$ = 8						; size = 4
??9?$_Vector_const_iterator@V?$_Vector_val@W4ItemType@SettingJoyKeyItemWnd@@V?$allocator@W4ItemType@SettingJoyKeyItemWnd@@@std@@@std@@@std@@QBE_NABV01@@Z PROC ; std::_Vector_const_iterator<std::_Vector_val<enum SettingJoyKeyItemWnd::ItemType,std::allocator<enum SettingJoyKeyItemWnd::ItemType> > >::operator!=, COMDAT
; _this$ = ecx

; 207  : 		{	// test for iterator inequality

  00000	55		 push	 ebp
  00001	8b ec		 mov	 ebp, esp

; 208  : 		return (!(*this == _Right));

  00003	8b 01		 mov	 eax, DWORD PTR [ecx]
  00005	8b 55 08	 mov	 edx, DWORD PTR __Right$[ebp]
  00008	33 c9		 xor	 ecx, ecx
  0000a	3b 02		 cmp	 eax, DWORD PTR [edx]
  0000c	0f 95 c0	 setne	 al

; 209  : 		}

  0000f	5d		 pop	 ebp
  00010	c2 04 00	 ret	 4
??9?$_Vector_const_iterator@V?$_Vector_val@W4ItemType@SettingJoyKeyItemWnd@@V?$allocator@W4ItemType@SettingJoyKeyItemWnd@@@std@@@std@@@std@@QBE_NABV01@@Z ENDP ; std::_Vector_const_iterator<std::_Vector_val<enum SettingJoyKeyItemWnd::ItemType,std::allocator<enum SettingJoyKeyItemWnd::ItemType> > >::operator!=
_TEXT	ENDS
PUBLIC	??$?0$0BO@@ioINILoader_e@@QAE@AAY0BO@$$CBD_N@Z	; ioINILoader_e::ioINILoader_e<30>
EXTRN	__imp_??0ioINILoader@@QAE@PBD_N@Z:PROC
; Function compile flags: /Ogsp
; File d:\lost saga for developer\youtube\tutorial\source\src\io3dengine\ioiniloader.h
;	COMDAT ??$?0$0BO@@ioINILoader_e@@QAE@AAY0BO@$$CBD_N@Z
_TEXT	SEGMENT
_fn$ = 8						; size = 4
_b$ = 12						; size = 1
??$?0$0BO@@ioINILoader_e@@QAE@AAY0BO@$$CBD_N@Z PROC	; ioINILoader_e::ioINILoader_e<30>, COMDAT
; _this$ = ecx

; 224  : 	{

  00000	55		 push	 ebp
  00001	8b ec		 mov	 ebp, esp
  00003	53		 push	 ebx
  00004	56		 push	 esi
  00005	8b f1		 mov	 esi, ecx
  00007	8b 4d 08	 mov	 ecx, DWORD PTR _fn$[ebp]
  0000a	8a 11		 mov	 dl, BYTE PTR [ecx]
  0000c	8d 86 50 03 00
	00		 lea	 eax, DWORD PTR [esi+848]
  00012	84 d2		 test	 dl, dl
  00014	0f 84 6a 04 00
	00		 je	 $LN99@ioINILoade
  0001a	80 f2 ed	 xor	 dl, -19			; ffffffedH
  0001d	88 10		 mov	 BYTE PTR [eax], dl
  0001f	8a 51 01	 mov	 dl, BYTE PTR [ecx+1]
  00022	84 d2		 test	 dl, dl
  00024	0f 84 54 04 00
	00		 je	 $LN98@ioINILoade
  0002a	80 f2 ec	 xor	 dl, -20			; ffffffecH
  0002d	88 50 01	 mov	 BYTE PTR [eax+1], dl
  00030	8a 51 02	 mov	 dl, BYTE PTR [ecx+2]
  00033	84 d2		 test	 dl, dl
  00035	0f 84 3d 04 00
	00		 je	 $LN97@ioINILoade
  0003b	b3 eb		 mov	 bl, -21			; ffffffebH
  0003d	32 d3		 xor	 dl, bl
  0003f	88 50 02	 mov	 BYTE PTR [eax+2], dl
  00042	8a 51 03	 mov	 dl, BYTE PTR [ecx+3]
  00045	84 d2		 test	 dl, dl
  00047	0f 84 25 04 00
	00		 je	 $LN96@ioINILoade
  0004d	80 f2 ea	 xor	 dl, -22			; ffffffeaH
  00050	88 50 03	 mov	 BYTE PTR [eax+3], dl
  00053	8a 51 04	 mov	 dl, BYTE PTR [ecx+4]
  00056	84 d2		 test	 dl, dl
  00058	0f 84 0e 04 00
	00		 je	 $LN95@ioINILoade
  0005e	80 f2 ed	 xor	 dl, -19			; ffffffedH
  00061	88 50 04	 mov	 BYTE PTR [eax+4], dl
  00064	8a 51 05	 mov	 dl, BYTE PTR [ecx+5]
  00067	84 d2		 test	 dl, dl
  00069	0f 84 f7 03 00
	00		 je	 $LN94@ioINILoade
  0006f	80 f2 ec	 xor	 dl, -20			; ffffffecH
  00072	88 50 05	 mov	 BYTE PTR [eax+5], dl
  00075	8a 51 06	 mov	 dl, BYTE PTR [ecx+6]
  00078	84 d2		 test	 dl, dl
  0007a	0f 84 e1 03 00
	00		 je	 $LN93@ioINILoade
  00080	32 d3		 xor	 dl, bl
  00082	88 50 06	 mov	 BYTE PTR [eax+6], dl
  00085	8a 51 07	 mov	 dl, BYTE PTR [ecx+7]
  00088	84 d2		 test	 dl, dl
  0008a	0f 84 cb 03 00
	00		 je	 $LN92@ioINILoade
  00090	80 f2 ea	 xor	 dl, -22			; ffffffeaH
  00093	88 50 07	 mov	 BYTE PTR [eax+7], dl
  00096	8a 51 08	 mov	 dl, BYTE PTR [ecx+8]
  00099	84 d2		 test	 dl, dl
  0009b	0f 84 b4 03 00
	00		 je	 $LN91@ioINILoade
  000a1	80 f2 ed	 xor	 dl, -19			; ffffffedH
  000a4	88 50 08	 mov	 BYTE PTR [eax+8], dl
  000a7	8a 51 09	 mov	 dl, BYTE PTR [ecx+9]
  000aa	84 d2		 test	 dl, dl
  000ac	0f 84 9d 03 00
	00		 je	 $LN90@ioINILoade
  000b2	80 f2 ec	 xor	 dl, -20			; ffffffecH
  000b5	88 50 09	 mov	 BYTE PTR [eax+9], dl
  000b8	8a 51 0a	 mov	 dl, BYTE PTR [ecx+10]
  000bb	84 d2		 test	 dl, dl
  000bd	0f 84 87 03 00
	00		 je	 $LN89@ioINILoade
  000c3	32 d3		 xor	 dl, bl
  000c5	88 50 0a	 mov	 BYTE PTR [eax+10], dl
  000c8	8a 51 0b	 mov	 dl, BYTE PTR [ecx+11]
  000cb	84 d2		 test	 dl, dl
  000cd	0f 84 71 03 00
	00		 je	 $LN88@ioINILoade
  000d3	80 f2 ea	 xor	 dl, -22			; ffffffeaH
  000d6	88 50 0b	 mov	 BYTE PTR [eax+11], dl
  000d9	8a 51 0c	 mov	 dl, BYTE PTR [ecx+12]
  000dc	84 d2		 test	 dl, dl
  000de	0f 84 5a 03 00
	00		 je	 $LN87@ioINILoade
  000e4	80 f2 ed	 xor	 dl, -19			; ffffffedH
  000e7	88 50 0c	 mov	 BYTE PTR [eax+12], dl
  000ea	8a 51 0d	 mov	 dl, BYTE PTR [ecx+13]
  000ed	84 d2		 test	 dl, dl
  000ef	0f 84 43 03 00
	00		 je	 $LN86@ioINILoade
  000f5	80 f2 ec	 xor	 dl, -20			; ffffffecH
  000f8	88 50 0d	 mov	 BYTE PTR [eax+13], dl
  000fb	8a 51 0e	 mov	 dl, BYTE PTR [ecx+14]
  000fe	84 d2		 test	 dl, dl
  00100	0f 84 2d 03 00
	00		 je	 $LN85@ioINILoade
  00106	32 d3		 xor	 dl, bl
  00108	88 50 0e	 mov	 BYTE PTR [eax+14], dl
  0010b	8a 51 0f	 mov	 dl, BYTE PTR [ecx+15]
  0010e	84 d2		 test	 dl, dl
  00110	0f 84 17 03 00
	00		 je	 $LN84@ioINILoade
  00116	80 f2 ea	 xor	 dl, -22			; ffffffeaH
  00119	88 50 0f	 mov	 BYTE PTR [eax+15], dl
  0011c	8a 51 10	 mov	 dl, BYTE PTR [ecx+16]
  0011f	84 d2		 test	 dl, dl
  00121	0f 84 00 03 00
	00		 je	 $LN83@ioINILoade
  00127	80 f2 ed	 xor	 dl, -19			; ffffffedH
  0012a	88 50 10	 mov	 BYTE PTR [eax+16], dl
  0012d	8a 51 11	 mov	 dl, BYTE PTR [ecx+17]
  00130	84 d2		 test	 dl, dl
  00132	0f 84 e9 02 00
	00		 je	 $LN82@ioINILoade
  00138	80 f2 ec	 xor	 dl, -20			; ffffffecH
  0013b	88 50 11	 mov	 BYTE PTR [eax+17], dl
  0013e	8a 51 12	 mov	 dl, BYTE PTR [ecx+18]
  00141	84 d2		 test	 dl, dl
  00143	0f 84 d3 02 00
	00		 je	 $LN81@ioINILoade
  00149	32 d3		 xor	 dl, bl
  0014b	88 50 12	 mov	 BYTE PTR [eax+18], dl
  0014e	8a 51 13	 mov	 dl, BYTE PTR [ecx+19]
  00151	84 d2		 test	 dl, dl
  00153	0f 84 bd 02 00
	00		 je	 $LN80@ioINILoade
  00159	80 f2 ea	 xor	 dl, -22			; ffffffeaH
  0015c	88 50 13	 mov	 BYTE PTR [eax+19], dl
  0015f	8a 51 14	 mov	 dl, BYTE PTR [ecx+20]
  00162	84 d2		 test	 dl, dl
  00164	0f 84 a6 02 00
	00		 je	 $LN79@ioINILoade
  0016a	80 f2 ed	 xor	 dl, -19			; ffffffedH
  0016d	88 50 14	 mov	 BYTE PTR [eax+20], dl
  00170	8a 51 15	 mov	 dl, BYTE PTR [ecx+21]
  00173	84 d2		 test	 dl, dl
  00175	0f 84 8f 02 00
	00		 je	 $LN78@ioINILoade
  0017b	80 f2 ec	 xor	 dl, -20			; ffffffecH
  0017e	88 50 15	 mov	 BYTE PTR [eax+21], dl
  00181	8a 51 16	 mov	 dl, BYTE PTR [ecx+22]
  00184	84 d2		 test	 dl, dl
  00186	0f 84 79 02 00
	00		 je	 $LN77@ioINILoade
  0018c	32 d3		 xor	 dl, bl
  0018e	88 50 16	 mov	 BYTE PTR [eax+22], dl
  00191	8a 51 17	 mov	 dl, BYTE PTR [ecx+23]
  00194	84 d2		 test	 dl, dl
  00196	0f 84 60 02 00
	00		 je	 $LN76@ioINILoade
  0019c	80 f2 ea	 xor	 dl, -22			; ffffffeaH
  0019f	88 50 17	 mov	 BYTE PTR [eax+23], dl
  001a2	8a 51 18	 mov	 dl, BYTE PTR [ecx+24]
  001a5	84 d2		 test	 dl, dl
  001a7	0f 84 46 02 00
	00		 je	 $LN75@ioINILoade
  001ad	80 f2 ed	 xor	 dl, -19			; ffffffedH
  001b0	88 50 18	 mov	 BYTE PTR [eax+24], dl
  001b3	8a 51 19	 mov	 dl, BYTE PTR [ecx+25]
  001b6	84 d2		 test	 dl, dl
  001b8	0f 84 2c 02 00
	00		 je	 $LN74@ioINILoade
  001be	80 f2 ec	 xor	 dl, -20			; ffffffecH
  001c1	88 50 19	 mov	 BYTE PTR [eax+25], dl
  001c4	8a 51 1a	 mov	 dl, BYTE PTR [ecx+26]
  001c7	84 d2		 test	 dl, dl
  001c9	0f 84 13 02 00
	00		 je	 $LN73@ioINILoade
  001cf	32 d3		 xor	 dl, bl
  001d1	88 50 1a	 mov	 BYTE PTR [eax+26], dl
  001d4	8a 51 1b	 mov	 dl, BYTE PTR [ecx+27]
  001d7	84 d2		 test	 dl, dl
  001d9	0f 84 fa 01 00
	00		 je	 $LN72@ioINILoade
  001df	80 f2 ea	 xor	 dl, -22			; ffffffeaH
  001e2	88 50 1b	 mov	 BYTE PTR [eax+27], dl
  001e5	8a 51 1c	 mov	 dl, BYTE PTR [ecx+28]
  001e8	84 d2		 test	 dl, dl
  001ea	0f 84 e0 01 00
	00		 je	 $LN71@ioINILoade
  001f0	80 f2 ed	 xor	 dl, -19			; ffffffedH
  001f3	88 50 1c	 mov	 BYTE PTR [eax+28], dl
  001f6	8a 51 1d	 mov	 dl, BYTE PTR [ecx+29]
  001f9	84 d2		 test	 dl, dl
  001fb	0f 84 c6 01 00
	00		 je	 $LN70@ioINILoade
  00201	80 f2 ec	 xor	 dl, -20			; ffffffecH
  00204	88 50 1d	 mov	 BYTE PTR [eax+29], dl
  00207	8a 51 1e	 mov	 dl, BYTE PTR [ecx+30]
  0020a	84 d2		 test	 dl, dl
  0020c	0f 84 ad 01 00
	00		 je	 $LN69@ioINILoade
  00212	32 d3		 xor	 dl, bl
  00214	88 50 1e	 mov	 BYTE PTR [eax+30], dl
  00217	8a 51 1f	 mov	 dl, BYTE PTR [ecx+31]
  0021a	84 d2		 test	 dl, dl
  0021c	0f 84 94 01 00
	00		 je	 $LN68@ioINILoade
  00222	80 f2 ea	 xor	 dl, -22			; ffffffeaH
  00225	88 50 1f	 mov	 BYTE PTR [eax+31], dl
  00228	8a 51 20	 mov	 dl, BYTE PTR [ecx+32]
  0022b	84 d2		 test	 dl, dl
  0022d	0f 84 7a 01 00
	00		 je	 $LN67@ioINILoade
  00233	80 f2 ed	 xor	 dl, -19			; ffffffedH
  00236	88 50 20	 mov	 BYTE PTR [eax+32], dl
  00239	8a 51 21	 mov	 dl, BYTE PTR [ecx+33]
  0023c	84 d2		 test	 dl, dl
  0023e	0f 84 60 01 00
	00		 je	 $LN66@ioINILoade
  00244	80 f2 ec	 xor	 dl, -20			; ffffffecH
  00247	88 50 21	 mov	 BYTE PTR [eax+33], dl
  0024a	8a 51 22	 mov	 dl, BYTE PTR [ecx+34]
  0024d	84 d2		 test	 dl, dl
  0024f	0f 84 47 01 00
	00		 je	 $LN65@ioINILoade
  00255	32 d3		 xor	 dl, bl
  00257	88 50 22	 mov	 BYTE PTR [eax+34], dl
  0025a	8a 51 23	 mov	 dl, BYTE PTR [ecx+35]
  0025d	84 d2		 test	 dl, dl
  0025f	0f 84 2e 01 00
	00		 je	 $LN64@ioINILoade
  00265	80 f2 ea	 xor	 dl, -22			; ffffffeaH
  00268	88 50 23	 mov	 BYTE PTR [eax+35], dl
  0026b	8a 51 24	 mov	 dl, BYTE PTR [ecx+36]
  0026e	84 d2		 test	 dl, dl
  00270	0f 84 14 01 00
	00		 je	 $LN63@ioINILoade
  00276	80 f2 ed	 xor	 dl, -19			; ffffffedH
  00279	88 50 24	 mov	 BYTE PTR [eax+36], dl
  0027c	8a 51 25	 mov	 dl, BYTE PTR [ecx+37]
  0027f	84 d2		 test	 dl, dl
  00281	0f 84 fa 00 00
	00		 je	 $LN62@ioINILoade
  00287	80 f2 ec	 xor	 dl, -20			; ffffffecH
  0028a	88 50 25	 mov	 BYTE PTR [eax+37], dl
  0028d	8a 51 26	 mov	 dl, BYTE PTR [ecx+38]
  00290	84 d2		 test	 dl, dl
  00292	0f 84 e1 00 00
	00		 je	 $LN61@ioINILoade
  00298	32 d3		 xor	 dl, bl
  0029a	88 50 26	 mov	 BYTE PTR [eax+38], dl
  0029d	8a 51 27	 mov	 dl, BYTE PTR [ecx+39]
  002a0	84 d2		 test	 dl, dl
  002a2	0f 84 c8 00 00
	00		 je	 $LN60@ioINILoade
  002a8	80 f2 ea	 xor	 dl, -22			; ffffffeaH
  002ab	88 50 27	 mov	 BYTE PTR [eax+39], dl
  002ae	8a 51 28	 mov	 dl, BYTE PTR [ecx+40]
  002b1	84 d2		 test	 dl, dl
  002b3	0f 84 ae 00 00
	00		 je	 $LN59@ioINILoade
  002b9	80 f2 ed	 xor	 dl, -19			; ffffffedH
  002bc	88 50 28	 mov	 BYTE PTR [eax+40], dl
  002bf	8a 51 29	 mov	 dl, BYTE PTR [ecx+41]
  002c2	84 d2		 test	 dl, dl
  002c4	0f 84 94 00 00
	00		 je	 $LN58@ioINILoade
  002ca	80 f2 ec	 xor	 dl, -20			; ffffffecH
  002cd	88 50 29	 mov	 BYTE PTR [eax+41], dl
  002d0	8a 51 2a	 mov	 dl, BYTE PTR [ecx+42]
  002d3	84 d2		 test	 dl, dl
  002d5	74 7f		 je	 SHORT $LN57@ioINILoade
  002d7	32 d3		 xor	 dl, bl
  002d9	88 50 2a	 mov	 BYTE PTR [eax+42], dl
  002dc	8a 51 2b	 mov	 dl, BYTE PTR [ecx+43]
  002df	84 d2		 test	 dl, dl
  002e1	74 6a		 je	 SHORT $LN56@ioINILoade
  002e3	80 f2 ea	 xor	 dl, -22			; ffffffeaH
  002e6	88 50 2b	 mov	 BYTE PTR [eax+43], dl
  002e9	8a 51 2c	 mov	 dl, BYTE PTR [ecx+44]
  002ec	84 d2		 test	 dl, dl
  002ee	74 54		 je	 SHORT $LN55@ioINILoade
  002f0	80 f2 ed	 xor	 dl, -19			; ffffffedH
  002f3	88 50 2c	 mov	 BYTE PTR [eax+44], dl
  002f6	8a 51 2d	 mov	 dl, BYTE PTR [ecx+45]
  002f9	84 d2		 test	 dl, dl
  002fb	74 3e		 je	 SHORT $LN54@ioINILoade
  002fd	80 f2 ec	 xor	 dl, -20			; ffffffecH
  00300	88 50 2d	 mov	 BYTE PTR [eax+45], dl
  00303	8a 51 2e	 mov	 dl, BYTE PTR [ecx+46]
  00306	84 d2		 test	 dl, dl
  00308	74 29		 je	 SHORT $LN53@ioINILoade
  0030a	32 d3		 xor	 dl, bl
  0030c	88 50 2e	 mov	 BYTE PTR [eax+46], dl
  0030f	8a 51 2f	 mov	 dl, BYTE PTR [ecx+47]
  00312	84 d2		 test	 dl, dl
  00314	74 14		 je	 SHORT $LN52@ioINILoade
  00316	80 f2 ea	 xor	 dl, -22			; ffffffeaH
  00319	88 50 2f	 mov	 BYTE PTR [eax+47], dl
  0031c	8a 49 30	 mov	 cl, BYTE PTR [ecx+48]
  0031f	80 f1 ed	 xor	 cl, -19			; ffffffedH
  00322	88 48 30	 mov	 BYTE PTR [eax+48], cl
  00325	e9 5d 01 00 00	 jmp	 $LN4@ioINILoade
$LN52@ioINILoade:
  0032a	c6 40 2f ea	 mov	 BYTE PTR [eax+47], -22	; ffffffeaH
  0032e	e9 54 01 00 00	 jmp	 $LN4@ioINILoade
$LN53@ioINILoade:
  00333	88 58 2e	 mov	 BYTE PTR [eax+46], bl
  00336	e9 4c 01 00 00	 jmp	 $LN4@ioINILoade
$LN54@ioINILoade:
  0033b	c6 40 2d ec	 mov	 BYTE PTR [eax+45], -20	; ffffffecH
  0033f	e9 43 01 00 00	 jmp	 $LN4@ioINILoade
$LN55@ioINILoade:
  00344	c6 40 2c ed	 mov	 BYTE PTR [eax+44], -19	; ffffffedH
  00348	e9 3a 01 00 00	 jmp	 $LN4@ioINILoade
$LN56@ioINILoade:
  0034d	c6 40 2b ea	 mov	 BYTE PTR [eax+43], -22	; ffffffeaH
  00351	e9 31 01 00 00	 jmp	 $LN4@ioINILoade
$LN57@ioINILoade:
  00356	88 58 2a	 mov	 BYTE PTR [eax+42], bl
  00359	e9 29 01 00 00	 jmp	 $LN4@ioINILoade
$LN58@ioINILoade:
  0035e	c6 40 29 ec	 mov	 BYTE PTR [eax+41], -20	; ffffffecH
  00362	e9 20 01 00 00	 jmp	 $LN4@ioINILoade
$LN59@ioINILoade:
  00367	c6 40 28 ed	 mov	 BYTE PTR [eax+40], -19	; ffffffedH
  0036b	e9 17 01 00 00	 jmp	 $LN4@ioINILoade
$LN60@ioINILoade:
  00370	c6 40 27 ea	 mov	 BYTE PTR [eax+39], -22	; ffffffeaH
  00374	e9 0e 01 00 00	 jmp	 $LN4@ioINILoade
$LN61@ioINILoade:
  00379	88 58 26	 mov	 BYTE PTR [eax+38], bl
  0037c	e9 06 01 00 00	 jmp	 $LN4@ioINILoade
$LN62@ioINILoade:
  00381	c6 40 25 ec	 mov	 BYTE PTR [eax+37], -20	; ffffffecH
  00385	e9 fd 00 00 00	 jmp	 $LN4@ioINILoade
$LN63@ioINILoade:
  0038a	c6 40 24 ed	 mov	 BYTE PTR [eax+36], -19	; ffffffedH
  0038e	e9 f4 00 00 00	 jmp	 $LN4@ioINILoade
$LN64@ioINILoade:
  00393	c6 40 23 ea	 mov	 BYTE PTR [eax+35], -22	; ffffffeaH
  00397	e9 eb 00 00 00	 jmp	 $LN4@ioINILoade
$LN65@ioINILoade:
  0039c	88 58 22	 mov	 BYTE PTR [eax+34], bl
  0039f	e9 e3 00 00 00	 jmp	 $LN4@ioINILoade
$LN66@ioINILoade:
  003a4	c6 40 21 ec	 mov	 BYTE PTR [eax+33], -20	; ffffffecH
  003a8	e9 da 00 00 00	 jmp	 $LN4@ioINILoade
$LN67@ioINILoade:
  003ad	c6 40 20 ed	 mov	 BYTE PTR [eax+32], -19	; ffffffedH
  003b1	e9 d1 00 00 00	 jmp	 $LN4@ioINILoade
$LN68@ioINILoade:
  003b6	c6 40 1f ea	 mov	 BYTE PTR [eax+31], -22	; ffffffeaH
  003ba	e9 c8 00 00 00	 jmp	 $LN4@ioINILoade
$LN69@ioINILoade:
  003bf	88 58 1e	 mov	 BYTE PTR [eax+30], bl
  003c2	e9 c0 00 00 00	 jmp	 $LN4@ioINILoade
$LN70@ioINILoade:
  003c7	c6 40 1d ec	 mov	 BYTE PTR [eax+29], -20	; ffffffecH
  003cb	e9 b7 00 00 00	 jmp	 $LN4@ioINILoade
$LN71@ioINILoade:
  003d0	c6 40 1c ed	 mov	 BYTE PTR [eax+28], -19	; ffffffedH
  003d4	e9 ae 00 00 00	 jmp	 $LN4@ioINILoade
$LN72@ioINILoade:
  003d9	c6 40 1b ea	 mov	 BYTE PTR [eax+27], -22	; ffffffeaH
  003dd	e9 a5 00 00 00	 jmp	 $LN4@ioINILoade
$LN73@ioINILoade:
  003e2	88 58 1a	 mov	 BYTE PTR [eax+26], bl
  003e5	e9 9d 00 00 00	 jmp	 $LN4@ioINILoade
$LN74@ioINILoade:
  003ea	c6 40 19 ec	 mov	 BYTE PTR [eax+25], -20	; ffffffecH
  003ee	e9 94 00 00 00	 jmp	 $LN4@ioINILoade
$LN75@ioINILoade:
  003f3	c6 40 18 ed	 mov	 BYTE PTR [eax+24], -19	; ffffffedH
  003f7	e9 8b 00 00 00	 jmp	 $LN4@ioINILoade
$LN76@ioINILoade:
  003fc	c6 40 17 ea	 mov	 BYTE PTR [eax+23], -22	; ffffffeaH
  00400	e9 82 00 00 00	 jmp	 $LN4@ioINILoade
$LN77@ioINILoade:
  00405	88 58 16	 mov	 BYTE PTR [eax+22], bl
  00408	eb 7d		 jmp	 SHORT $LN4@ioINILoade
$LN78@ioINILoade:
  0040a	c6 40 15 ec	 mov	 BYTE PTR [eax+21], -20	; ffffffecH
  0040e	eb 77		 jmp	 SHORT $LN4@ioINILoade
$LN79@ioINILoade:
  00410	c6 40 14 ed	 mov	 BYTE PTR [eax+20], -19	; ffffffedH
  00414	eb 71		 jmp	 SHORT $LN4@ioINILoade
$LN80@ioINILoade:
  00416	c6 40 13 ea	 mov	 BYTE PTR [eax+19], -22	; ffffffeaH
  0041a	eb 6b		 jmp	 SHORT $LN4@ioINILoade
$LN81@ioINILoade:
  0041c	88 58 12	 mov	 BYTE PTR [eax+18], bl
  0041f	eb 66		 jmp	 SHORT $LN4@ioINILoade
$LN82@ioINILoade:
  00421	c6 40 11 ec	 mov	 BYTE PTR [eax+17], -20	; ffffffecH
  00425	eb 60		 jmp	 SHORT $LN4@ioINILoade
$LN83@ioINILoade:
  00427	c6 40 10 ed	 mov	 BYTE PTR [eax+16], -19	; ffffffedH
  0042b	eb 5a		 jmp	 SHORT $LN4@ioINILoade
$LN84@ioINILoade:
  0042d	c6 40 0f ea	 mov	 BYTE PTR [eax+15], -22	; ffffffeaH
  00431	eb 54		 jmp	 SHORT $LN4@ioINILoade
$LN85@ioINILoade:
  00433	88 58 0e	 mov	 BYTE PTR [eax+14], bl
  00436	eb 4f		 jmp	 SHORT $LN4@ioINILoade
$LN86@ioINILoade:
  00438	c6 40 0d ec	 mov	 BYTE PTR [eax+13], -20	; ffffffecH
  0043c	eb 49		 jmp	 SHORT $LN4@ioINILoade
$LN87@ioINILoade:
  0043e	c6 40 0c ed	 mov	 BYTE PTR [eax+12], -19	; ffffffedH
  00442	eb 43		 jmp	 SHORT $LN4@ioINILoade
$LN88@ioINILoade:
  00444	c6 40 0b ea	 mov	 BYTE PTR [eax+11], -22	; ffffffeaH
  00448	eb 3d		 jmp	 SHORT $LN4@ioINILoade
$LN89@ioINILoade:
  0044a	88 58 0a	 mov	 BYTE PTR [eax+10], bl
  0044d	eb 38		 jmp	 SHORT $LN4@ioINILoade
$LN90@ioINILoade:
  0044f	c6 40 09 ec	 mov	 BYTE PTR [eax+9], -20	; ffffffecH
  00453	eb 32		 jmp	 SHORT $LN4@ioINILoade
$LN91@ioINILoade:
  00455	c6 40 08 ed	 mov	 BYTE PTR [eax+8], -19	; ffffffedH
  00459	eb 2c		 jmp	 SHORT $LN4@ioINILoade
$LN92@ioINILoade:
  0045b	c6 40 07 ea	 mov	 BYTE PTR [eax+7], -22	; ffffffeaH
  0045f	eb 26		 jmp	 SHORT $LN4@ioINILoade
$LN93@ioINILoade:
  00461	88 58 06	 mov	 BYTE PTR [eax+6], bl
  00464	eb 21		 jmp	 SHORT $LN4@ioINILoade
$LN94@ioINILoade:
  00466	c6 40 05 ec	 mov	 BYTE PTR [eax+5], -20	; ffffffecH
  0046a	eb 1b		 jmp	 SHORT $LN4@ioINILoade
$LN95@ioINILoade:
  0046c	c6 40 04 ed	 mov	 BYTE PTR [eax+4], -19	; ffffffedH
  00470	eb 15		 jmp	 SHORT $LN4@ioINILoade
$LN96@ioINILoade:
  00472	c6 40 03 ea	 mov	 BYTE PTR [eax+3], -22	; ffffffeaH
  00476	eb 0f		 jmp	 SHORT $LN4@ioINILoade
$LN97@ioINILoade:
  00478	c6 40 02 eb	 mov	 BYTE PTR [eax+2], -21	; ffffffebH
  0047c	eb 09		 jmp	 SHORT $LN4@ioINILoade
$LN98@ioINILoade:
  0047e	c6 40 01 ec	 mov	 BYTE PTR [eax+1], -20	; ffffffecH
  00482	eb 03		 jmp	 SHORT $LN4@ioINILoade
$LN99@ioINILoade:
  00484	c6 00 ed	 mov	 BYTE PTR [eax], -19	; ffffffedH
$LN4@ioINILoade:
  00487	6a 07		 push	 7
  00489	8b c8		 mov	 ecx, eax
  0048b	c6 40 1d 00	 mov	 BYTE PTR [eax+29], 0
  0048f	5a		 pop	 edx
$LL107@ioINILoade:
  00490	81 31 ed ec eb
	ea		 xor	 DWORD PTR [ecx], -353637139 ; eaebecedH
  00496	83 c1 04	 add	 ecx, 4
  00499	4a		 dec	 edx
  0049a	75 f4		 jne	 SHORT $LL107@ioINILoade
  0049c	ff 75 0c	 push	 DWORD PTR _b$[ebp]
  0049f	80 70 1c ed	 xor	 BYTE PTR [eax+28], -19	; ffffffedH
  004a3	50		 push	 eax
  004a4	8b ce		 mov	 ecx, esi
  004a6	ff 15 00 00 00
	00		 call	 DWORD PTR __imp_??0ioINILoader@@QAE@PBD_N@Z

; 225  : 	}

  004ac	8b c6		 mov	 eax, esi
  004ae	5e		 pop	 esi
  004af	5b		 pop	 ebx
  004b0	5d		 pop	 ebp
  004b1	c2 08 00	 ret	 8
??$?0$0BO@@ioINILoader_e@@QAE@AAY0BO@$$CBD_N@Z ENDP	; ioINILoader_e::ioINILoader_e<30>
_TEXT	ENDS
PUBLIC	??$_Umove@PAW4ItemType@SettingJoyKeyItemWnd@@@?$vector@W4ItemType@SettingJoyKeyItemWnd@@V?$allocator@W4ItemType@SettingJoyKeyItemWnd@@@std@@@std@@IAEPAW4ItemType@SettingJoyKeyItemWnd@@PAW423@00@Z ; std::vector<enum SettingJoyKeyItemWnd::ItemType,std::allocator<enum SettingJoyKeyItemWnd::ItemType> >::_Umove<enum SettingJoyKeyItemWnd::ItemType *>
; Function compile flags: /Ogsp
; File c:\program files (x86)\microsoft visual studio 10.0\vc\include\vector
;	COMDAT ??$_Umove@PAW4ItemType@SettingJoyKeyItemWnd@@@?$vector@W4ItemType@SettingJoyKeyItemWnd@@V?$allocator@W4ItemType@SettingJoyKeyItemWnd@@@std@@@std@@IAEPAW4ItemType@SettingJoyKeyItemWnd@@PAW423@00@Z
_TEXT	SEGMENT
__First$ = 8						; size = 4
__Last$ = 12						; size = 4
__Ptr$ = 16						; size = 4
??$_Umove@PAW4ItemType@SettingJoyKeyItemWnd@@@?$vector@W4ItemType@SettingJoyKeyItemWnd@@V?$allocator@W4ItemType@SettingJoyKeyItemWnd@@@std@@@std@@IAEPAW4ItemType@SettingJoyKeyItemWnd@@PAW423@00@Z PROC ; std::vector<enum SettingJoyKeyItemWnd::ItemType,std::allocator<enum SettingJoyKeyItemWnd::ItemType> >::_Umove<enum SettingJoyKeyItemWnd::ItemType *>, COMDAT
; _this$ = ecx

; 1322 : 		pointer _Umove(_Iter _First, _Iter _Last, pointer _Ptr)

  00000	55		 push	 ebp
  00001	8b ec		 mov	 ebp, esp

; 1323 : 		{	// move initializing [_First, _Last), using allocator
; 1324 : 		return (_Uninitialized_move(_First, _Last,
; 1325 : 			_Ptr, this->_Alval));

  00003	83 c1 0c	 add	 ecx, 12			; 0000000cH
  00006	51		 push	 ecx
  00007	ff 75 10	 push	 DWORD PTR __Ptr$[ebp]
  0000a	ff 75 0c	 push	 DWORD PTR __Last$[ebp]
  0000d	ff 75 08	 push	 DWORD PTR __First$[ebp]
  00010	e8 00 00 00 00	 call	 ??$_Uninitialized_move@PAW4ItemType@SettingJoyKeyItemWnd@@PAW412@V?$allocator@W4ItemType@SettingJoyKeyItemWnd@@@std@@@std@@YAPAW4ItemType@SettingJoyKeyItemWnd@@PAW412@00AAV?$allocator@W4ItemType@SettingJoyKeyItemWnd@@@0@@Z ; std::_Uninitialized_move<enum SettingJoyKeyItemWnd::ItemType *,enum SettingJoyKeyItemWnd::ItemType *,std::allocator<enum SettingJoyKeyItemWnd::ItemType> >
  00015	83 c4 10	 add	 esp, 16			; 00000010H

; 1326 : 		}

  00018	5d		 pop	 ebp
  00019	c2 0c 00	 ret	 12			; 0000000cH
??$_Umove@PAW4ItemType@SettingJoyKeyItemWnd@@@?$vector@W4ItemType@SettingJoyKeyItemWnd@@V?$allocator@W4ItemType@SettingJoyKeyItemWnd@@@std@@@std@@IAEPAW4ItemType@SettingJoyKeyItemWnd@@PAW423@00@Z ENDP ; std::vector<enum SettingJoyKeyItemWnd::ItemType,std::allocator<enum SettingJoyKeyItemWnd::ItemType> >::_Umove<enum SettingJoyKeyItemWnd::ItemType *>
_TEXT	ENDS
PUBLIC	?iwm_show@GameOptionSettingJoyKeyTab@@UAEXXZ	; GameOptionSettingJoyKeyTab::iwm_show
EXTRN	?iwm_show@GameOptionBasicWnd@@UAEXXZ:PROC	; GameOptionBasicWnd::iwm_show
; Function compile flags: /Ogsp
; File d:\lost saga for developer\youtube\tutorial\source\src\lsclient\gui\gameoptionsettingjoykeytab.cpp
;	COMDAT ?iwm_show@GameOptionSettingJoyKeyTab@@UAEXXZ
_TEXT	SEGMENT
?iwm_show@GameOptionSettingJoyKeyTab@@UAEXXZ PROC	; GameOptionSettingJoyKeyTab::iwm_show, COMDAT
; _this$ = ecx

; 718  : {

  00000	56		 push	 esi
  00001	57		 push	 edi
  00002	8b f1		 mov	 esi, ecx

; 719  : 	GameOptionBasicWnd::iwm_show();

  00004	e8 00 00 00 00	 call	 ?iwm_show@GameOptionBasicWnd@@UAEXXZ ; GameOptionBasicWnd::iwm_show

; 720  : 
; 721  : 	UpdateByCurrentOption();

  00009	8b 06		 mov	 eax, DWORD PTR [esi]
  0000b	8b ce		 mov	 ecx, esi
  0000d	ff 90 30 01 00
	00		 call	 DWORD PTR [eax+304]

; 722  : 	CheckUseJoyPad();

  00013	8b ce		 mov	 ecx, esi
  00015	e8 00 00 00 00	 call	 ?CheckUseJoyPad@GameOptionSettingJoyKeyTab@@IAEXXZ ; GameOptionSettingJoyKeyTab::CheckUseJoyPad

; 723  : 
; 724  : 	UpdateSetPage( m_iCurPage );

  0001a	ff b6 0c 02 00
	00		 push	 DWORD PTR [esi+524]
  00020	8b ce		 mov	 ecx, esi
  00022	e8 00 00 00 00	 call	 ?UpdateSetPage@GameOptionSettingJoyKeyTab@@IAEXH@Z ; GameOptionSettingJoyKeyTab::UpdateSetPage

; 725  : 	ioScroll *pScroll = (ioScroll*)FindChildWnd( ID_VERT_SCROLL );

  00027	68 e9 03 00 00	 push	 1001			; 000003e9H
  0002c	8b ce		 mov	 ecx, esi
  0002e	ff 15 00 00 00
	00		 call	 DWORD PTR __imp_?FindChildWnd@ioWnd@@QAEPAV1@K@Z
  00034	8b f8		 mov	 edi, eax

; 726  : 	if( pScroll )

  00036	85 ff		 test	 edi, edi
  00038	74 1e		 je	 SHORT $LN1@iwm_show

; 727  : 	{
; 728  : 		pScroll->SetScrollRange( 0, SettingJoyKeyItemWnd::IT_MAX );

  0003a	8b 07		 mov	 eax, DWORD PTR [edi]
  0003c	6a 32		 push	 50			; 00000032H
  0003e	6a 00		 push	 0
  00040	8b cf		 mov	 ecx, edi
  00042	ff 90 30 01 00
	00		 call	 DWORD PTR [eax+304]

; 729  : 		pScroll->SetScrollPos( m_iCurPage );

  00048	ff b6 0c 02 00
	00		 push	 DWORD PTR [esi+524]
  0004e	8b 07		 mov	 eax, DWORD PTR [edi]
  00050	8b cf		 mov	 ecx, edi
  00052	ff 90 38 01 00
	00		 call	 DWORD PTR [eax+312]
$LN1@iwm_show:

; 730  : 	}
; 731  : 	SetChildInActive( ID_APPLY );

  00058	6a 03		 push	 3
  0005a	8b ce		 mov	 ecx, esi
  0005c	ff 15 00 00 00
	00		 call	 DWORD PTR __imp_?SetChildInActive@ioWnd@@QAEXK@Z
  00062	5f		 pop	 edi
  00063	5e		 pop	 esi

; 732  : }

  00064	c3		 ret	 0
?iwm_show@GameOptionSettingJoyKeyTab@@UAEXXZ ENDP	; GameOptionSettingJoyKeyTab::iwm_show
_TEXT	ENDS
PUBLIC	?iwm_vscroll@GameOptionSettingJoyKeyTab@@UAEXKH@Z ; GameOptionSettingJoyKeyTab::iwm_vscroll
; Function compile flags: /Ogsp
;	COMDAT ?iwm_vscroll@GameOptionSettingJoyKeyTab@@UAEXKH@Z
_TEXT	SEGMENT
_dwID$ = 8						; size = 4
_curPos$ = 12						; size = 4
?iwm_vscroll@GameOptionSettingJoyKeyTab@@UAEXKH@Z PROC	; GameOptionSettingJoyKeyTab::iwm_vscroll, COMDAT
; _this$ = ecx

; 740  : {

  00000	55		 push	 ebp
  00001	8b ec		 mov	 ebp, esp

; 741  : 	UpdateSetPage( curPos );

  00003	ff 75 0c	 push	 DWORD PTR _curPos$[ebp]
  00006	e8 00 00 00 00	 call	 ?UpdateSetPage@GameOptionSettingJoyKeyTab@@IAEXH@Z ; GameOptionSettingJoyKeyTab::UpdateSetPage

; 742  : }

  0000b	5d		 pop	 ebp
  0000c	c2 08 00	 ret	 8
?iwm_vscroll@GameOptionSettingJoyKeyTab@@UAEXKH@Z ENDP	; GameOptionSettingJoyKeyTab::iwm_vscroll
_TEXT	ENDS
PUBLIC	?iwm_command@GameOptionSettingJoyKeyTab@@UAEXPAVioWnd@@HK@Z ; GameOptionSettingJoyKeyTab::iwm_command
EXTRN	?GetJoyDefault@ioKeyManager@@QAEXAAVCJoyKeyInfo@@@Z:PROC ; ioKeyManager::GetJoyDefault
EXTRN	__imp_?HideWnd@ioWnd@@QAEXXZ:PROC
; Function compile flags: /Ogsp
;	COMDAT ?iwm_command@GameOptionSettingJoyKeyTab@@UAEXPAVioWnd@@HK@Z
_TEXT	SEGMENT
_pWnd$ = 8						; size = 4
_cmd$ = 12						; size = 4
_param$ = 16						; size = 4
?iwm_command@GameOptionSettingJoyKeyTab@@UAEXPAVioWnd@@HK@Z PROC ; GameOptionSettingJoyKeyTab::iwm_command, COMDAT
; _this$ = ecx

; 767  : {

  00000	55		 push	 ebp
  00001	8b ec		 mov	 ebp, esp
  00003	56		 push	 esi
  00004	8b f1		 mov	 esi, ecx

; 768  : 	DWORD dwID = pWnd->GetID();

  00006	8b 4d 08	 mov	 ecx, DWORD PTR _pWnd$[ebp]
  00009	ff 15 00 00 00
	00		 call	 DWORD PTR __imp_?GetID@ioWnd@@QBEKXZ

; 769  : 
; 770  : 	switch( dwID )

  0000f	83 f8 04	 cmp	 eax, 4
  00012	0f 87 d3 00 00
	00		 ja	 $LN19@iwm_comman@2
  00018	0f 84 8d 00 00
	00		 je	 $LN2@iwm_comman@2
  0001e	48		 dec	 eax
  0001f	74 54		 je	 SHORT $LN10@iwm_comman@2
  00021	48		 dec	 eax
  00022	74 45		 je	 SHORT $LN7@iwm_comman@2
  00024	48		 dec	 eax
  00025	0f 85 05 01 00
	00		 jne	 $LN11@iwm_comman@2

; 813  : 	case ID_APPLY:
; 814  : 		if( cmd == IOBN_BTNUP )

  0002b	83 7d 0c 11	 cmp	 DWORD PTR _cmd$[ebp], 17 ; 00000011H
  0002f	0f 85 fb 00 00
	00		 jne	 $LN11@iwm_comman@2

; 815  : 		{
; 816  : 			Save();

  00035	8b ce		 mov	 ecx, esi
  00037	e8 00 00 00 00	 call	 ?Save@GameOptionSettingJoyKeyTab@@QAEXXZ ; GameOptionSettingJoyKeyTab::Save

; 817  : 			UpdateByCurrentOption();

  0003c	8b 06		 mov	 eax, DWORD PTR [esi]
  0003e	8b ce		 mov	 ecx, esi
  00040	ff 90 30 01 00
	00		 call	 DWORD PTR [eax+304]

; 818  : 			CheckUseJoyPad();

  00046	8b ce		 mov	 ecx, esi
  00048	e8 00 00 00 00	 call	 ?CheckUseJoyPad@GameOptionSettingJoyKeyTab@@IAEXXZ ; GameOptionSettingJoyKeyTab::CheckUseJoyPad

; 819  : 			UpdateSetPage( m_iCurPage );

  0004d	ff b6 0c 02 00
	00		 push	 DWORD PTR [esi+524]
  00053	8b ce		 mov	 ecx, esi
  00055	e8 00 00 00 00	 call	 ?UpdateSetPage@GameOptionSettingJoyKeyTab@@IAEXH@Z ; GameOptionSettingJoyKeyTab::UpdateSetPage

; 820  : 			SetChildInActive( ID_APPLY );

  0005a	6a 03		 push	 3
  0005c	8b ce		 mov	 ecx, esi
  0005e	ff 15 00 00 00
	00		 call	 DWORD PTR __imp_?SetChildInActive@ioWnd@@QAEXK@Z

; 821  : 		}
; 822  : 		break;

  00064	e9 c7 00 00 00	 jmp	 $LN11@iwm_comman@2
$LN7@iwm_comman@2:

; 806  : 	case ID_CANCEL:
; 807  : 		if( cmd == IOBN_BTNUP )

  00069	83 7d 0c 11	 cmp	 DWORD PTR _cmd$[ebp], 17 ; 00000011H
  0006d	0f 85 bd 00 00
	00		 jne	 $LN11@iwm_comman@2

; 808  : 		{
; 809  : 			if( GetParent() )
; 810  : 				GetParent()->HideWnd();
; 811  : 		}
; 812  : 		break;

  00073	eb 11		 jmp	 SHORT $LN21@iwm_comman@2
$LN10@iwm_comman@2:

; 796  : 		}
; 797  : 		break;
; 798  : 	case ID_SAVE:
; 799  : 		if( cmd == IOBN_BTNUP )

  00075	83 7d 0c 11	 cmp	 DWORD PTR _cmd$[ebp], 17 ; 00000011H
  00079	0f 85 b1 00 00
	00		 jne	 $LN11@iwm_comman@2

; 800  : 		{
; 801  : 			Save();

  0007f	8b ce		 mov	 ecx, esi
  00081	e8 00 00 00 00	 call	 ?Save@GameOptionSettingJoyKeyTab@@QAEXXZ ; GameOptionSettingJoyKeyTab::Save
$LN21@iwm_comman@2:

; 802  : 			if( GetParent() )

  00086	8b ce		 mov	 ecx, esi
  00088	ff 15 00 00 00
	00		 call	 DWORD PTR __imp_?GetParent@ioWnd@@QAEPAV1@XZ
  0008e	85 c0		 test	 eax, eax
  00090	0f 84 9a 00 00
	00		 je	 $LN11@iwm_comman@2

; 803  : 				GetParent()->HideWnd();

  00096	8b ce		 mov	 ecx, esi
  00098	ff 15 00 00 00
	00		 call	 DWORD PTR __imp_?GetParent@ioWnd@@QAEPAV1@XZ
  0009e	8b c8		 mov	 ecx, eax
  000a0	ff 15 00 00 00
	00		 call	 DWORD PTR __imp_?HideWnd@ioWnd@@QAEXXZ

; 804  : 		}
; 805  : 		break;

  000a6	e9 85 00 00 00	 jmp	 $LN11@iwm_comman@2
$LN2@iwm_comman@2:

; 823  : 	case ID_DEFAULT:
; 824  : 		if( cmd == IOBN_BTNUP )

  000ab	83 7d 0c 11	 cmp	 DWORD PTR _cmd$[ebp], 17 ; 00000011H
  000af	75 7f		 jne	 SHORT $LN11@iwm_comman@2

; 825  : 		{
; 826  : 			m_CurrentOption.m_bUseJoyPad = false;
; 827  : 			UpdateByCurrentOption();

  000b1	8b 06		 mov	 eax, DWORD PTR [esi]
  000b3	8b ce		 mov	 ecx, esi
  000b5	c6 86 c7 01 00
	00 00		 mov	 BYTE PTR [esi+455], 0
  000bc	ff 90 30 01 00
	00		 call	 DWORD PTR [eax+304]

; 828  : 
; 829  : 			CheckUseJoyPad();

  000c2	8b ce		 mov	 ecx, esi
  000c4	e8 00 00 00 00	 call	 ?CheckUseJoyPad@GameOptionSettingJoyKeyTab@@IAEXXZ ; GameOptionSettingJoyKeyTab::CheckUseJoyPad

; 830  : 
; 831  : 			g_KeyManager.GetJoyDefault( m_KeyInfo );

  000c9	8d 86 10 02 00
	00		 lea	 eax, DWORD PTR [esi+528]
  000cf	50		 push	 eax
  000d0	e8 00 00 00 00	 call	 ?GetSingleton@ioKeyManager@@SAAAV1@XZ ; ioKeyManager::GetSingleton
  000d5	8b c8		 mov	 ecx, eax
  000d7	e8 00 00 00 00	 call	 ?GetJoyDefault@ioKeyManager@@QAEXAAVCJoyKeyInfo@@@Z ; ioKeyManager::GetJoyDefault

; 832  : 			UpdateSetPage( m_iCurPage );

  000dc	ff b6 0c 02 00
	00		 push	 DWORD PTR [esi+524]
  000e2	8b ce		 mov	 ecx, esi
  000e4	e8 00 00 00 00	 call	 ?UpdateSetPage@GameOptionSettingJoyKeyTab@@IAEXH@Z ; GameOptionSettingJoyKeyTab::UpdateSetPage

; 833  : 		}
; 834  : 		break;

  000e9	eb 45		 jmp	 SHORT $LN11@iwm_comman@2
$LN19@iwm_comman@2:

; 769  : 
; 770  : 	switch( dwID )

  000eb	83 f8 0b	 cmp	 eax, 11			; 0000000bH
  000ee	72 40		 jb	 SHORT $LN11@iwm_comman@2
  000f0	83 f8 0c	 cmp	 eax, 12			; 0000000cH
  000f3	76 23		 jbe	 SHORT $LN12@iwm_comman@2
  000f5	83 f8 64	 cmp	 eax, 100		; 00000064H
  000f8	76 36		 jbe	 SHORT $LN11@iwm_comman@2
  000fa	83 f8 6f	 cmp	 eax, 111		; 0000006fH
  000fd	77 31		 ja	 SHORT $LN11@iwm_comman@2

; 771  : 	{
; 772  : 	case ID_SETTING_KEY_ITEM_WND1:
; 773  : 	case ID_SETTING_KEY_ITEM_WND2:
; 774  : 	case ID_SETTING_KEY_ITEM_WND3:
; 775  : 	case ID_SETTING_KEY_ITEM_WND4:
; 776  : 	case ID_SETTING_KEY_ITEM_WND5:
; 777  : 	case ID_SETTING_KEY_ITEM_WND6:
; 778  : 	case ID_SETTING_KEY_ITEM_WND7:
; 779  : 	case ID_SETTING_KEY_ITEM_WND8:
; 780  : 	case ID_SETTING_KEY_ITEM_WND9:
; 781  : 	case ID_SETTING_KEY_ITEM_WND10:
; 782  : 	case ID_SETTING_KEY_ITEM_WND11:
; 783  : 		if( cmd == IOBN_BTNUP )

  000ff	83 7d 0c 11	 cmp	 DWORD PTR _cmd$[ebp], 17 ; 00000011H
  00103	75 2b		 jne	 SHORT $LN11@iwm_comman@2

; 784  : 		{
; 785  : 			m_eSelectKeyType = (CJoyKeyInfo::KeyTypeArray) param;

  00105	8b 45 10	 mov	 eax, DWORD PTR _param$[ebp]

; 786  : 			SetSelect( m_eSelectKeyType );

  00108	50		 push	 eax
  00109	8b ce		 mov	 ecx, esi
  0010b	89 86 28 02 00
	00		 mov	 DWORD PTR [esi+552], eax
  00111	e8 00 00 00 00	 call	 ?SetSelect@GameOptionSettingJoyKeyTab@@IAEXW4KeyTypeArray@CJoyKeyInfo@@@Z ; GameOptionSettingJoyKeyTab::SetSelect

; 787  : 			SetChildActive( ID_APPLY );
; 788  : 		}
; 789  : 		break;

  00116	eb 0e		 jmp	 SHORT $LN20@iwm_comman@2
$LN12@iwm_comman@2:

; 790  : 	case ID_USE_CHECK:
; 791  : 	case ID_UNUSED_CHECK:
; 792  : 		if( cmd == IOBN_BTNDOWN )

  00118	83 7d 0c 10	 cmp	 DWORD PTR _cmd$[ebp], 16 ; 00000010H
  0011c	75 12		 jne	 SHORT $LN11@iwm_comman@2

; 793  : 		{
; 794  : 			SetUseJoyPad( dwID );

  0011e	50		 push	 eax
  0011f	8b ce		 mov	 ecx, esi
  00121	e8 00 00 00 00	 call	 ?SetUseJoyPad@GameOptionSettingJoyKeyTab@@IAEXK@Z ; GameOptionSettingJoyKeyTab::SetUseJoyPad
$LN20@iwm_comman@2:

; 795  : 			SetChildActive( ID_APPLY );

  00126	6a 03		 push	 3
  00128	8b ce		 mov	 ecx, esi
  0012a	ff 15 00 00 00
	00		 call	 DWORD PTR __imp_?SetChildActive@ioWnd@@QAEXK@Z
$LN11@iwm_comman@2:
  00130	5e		 pop	 esi

; 835  : 	}
; 836  : }

  00131	5d		 pop	 ebp
  00132	c2 0c 00	 ret	 12			; 0000000cH
?iwm_command@GameOptionSettingJoyKeyTab@@UAEXPAVioWnd@@HK@Z ENDP ; GameOptionSettingJoyKeyTab::iwm_command
_TEXT	ENDS
PUBLIC	?OnProcess@GameOptionSettingJoyKeyTab@@MAEXM@Z	; GameOptionSettingJoyKeyTab::OnProcess
EXTRN	?IsKeyPress@CDirectInput@@QAI_NG@Z:PROC		; CDirectInput::IsKeyPress
EXTRN	?GetSingleton@CDirectInput@@SAAAV1@XZ:PROC	; CDirectInput::GetSingleton
; Function compile flags: /Ogsp
;	COMDAT ?OnProcess@GameOptionSettingJoyKeyTab@@MAEXM@Z
_TEXT	SEGMENT
_fTimePerSec$ = 8					; size = 4
?OnProcess@GameOptionSettingJoyKeyTab@@MAEXM@Z PROC	; GameOptionSettingJoyKeyTab::OnProcess, COMDAT
; _this$ = ecx

; 839  : {

  00000	57		 push	 edi
  00001	8b f9		 mov	 edi, ecx

; 840  : 	if( !IsShow() ) return;

  00003	ff 15 00 00 00
	00		 call	 DWORD PTR __imp_?IsShow@ioWnd@@QBE_NXZ
  00009	84 c0		 test	 al, al
  0000b	0f 84 cc 00 00
	00		 je	 $LN1@OnProcess

; 841  : 	if( m_eSelectKeyType == CJoyKeyInfo::JTA_NONE ) return;

  00011	83 bf 28 02 00
	00 ff		 cmp	 DWORD PTR [edi+552], -1
  00018	0f 84 bf 00 00
	00		 je	 $LN1@OnProcess

; 842  : 
; 843  : 	//   
; 844  : 	for( WORD i=KEY_LSTICKLEFT; i<KEY_NUMKEYS; i++)

  0001e	56		 push	 esi
  0001f	be 04 01 00 00	 mov	 esi, 260		; 00000104H
$LL9@OnProcess:

; 845  : 	{
; 846  : 		if( g_Input.IsKeyPress( i ) )

  00024	e8 00 00 00 00	 call	 ?GetSingleton@CDirectInput@@SAAAV1@XZ ; CDirectInput::GetSingleton
  00029	8b d6		 mov	 edx, esi
  0002b	8b c8		 mov	 ecx, eax
  0002d	e8 00 00 00 00	 call	 ?IsKeyPress@CDirectInput@@QAI_NG@Z ; CDirectInput::IsKeyPress
  00032	84 c0		 test	 al, al
  00034	75 0d		 jne	 SHORT $LN15@OnProcess

; 842  : 
; 843  : 	//   
; 844  : 	for( WORD i=KEY_LSTICKLEFT; i<KEY_NUMKEYS; i++)

  00036	46		 inc	 esi
  00037	b8 1c 01 00 00	 mov	 eax, 284		; 0000011cH
  0003c	66 3b f0	 cmp	 si, ax
  0003f	72 e3		 jb	 SHORT $LL9@OnProcess

; 845  : 	{
; 846  : 		if( g_Input.IsKeyPress( i ) )

  00041	eb 08		 jmp	 SHORT $LN7@OnProcess
$LN15@OnProcess:

; 847  : 		{
; 848  : 			ChangeKeyValue( i );

  00043	56		 push	 esi
  00044	8b cf		 mov	 ecx, edi
  00046	e8 00 00 00 00	 call	 ?ChangeKeyValue@GameOptionSettingJoyKeyTab@@IAEXG@Z ; GameOptionSettingJoyKeyTab::ChangeKeyValue
$LN7@OnProcess:

; 849  : 			break;
; 850  : 		}
; 851  : 	}
; 852  : 
; 853  : 	if( g_Input.IsKeyPress( KEY_NULL ) )

  0004b	e8 00 00 00 00	 call	 ?GetSingleton@CDirectInput@@SAAAV1@XZ ; CDirectInput::GetSingleton
  00050	33 d2		 xor	 edx, edx
  00052	8b c8		 mov	 ecx, eax
  00054	e8 00 00 00 00	 call	 ?IsKeyPress@CDirectInput@@QAI_NG@Z ; CDirectInput::IsKeyPress
  00059	84 c0		 test	 al, al
  0005b	74 09		 je	 SHORT $LN5@OnProcess

; 854  : 		ChangeKeyValue( KEY_NULL );

  0005d	6a 00		 push	 0
  0005f	8b cf		 mov	 ecx, edi
  00061	e8 00 00 00 00	 call	 ?ChangeKeyValue@GameOptionSettingJoyKeyTab@@IAEXG@Z ; GameOptionSettingJoyKeyTab::ChangeKeyValue
$LN5@OnProcess:

; 855  : 
; 856  : 	if( g_Input.IsKeyPress( KEY_ENTER ) )

  00066	e8 00 00 00 00	 call	 ?GetSingleton@CDirectInput@@SAAAV1@XZ ; CDirectInput::GetSingleton
  0006b	6a 0d		 push	 13			; 0000000dH
  0006d	5a		 pop	 edx
  0006e	8b c8		 mov	 ecx, eax
  00070	e8 00 00 00 00	 call	 ?IsKeyPress@CDirectInput@@QAI_NG@Z ; CDirectInput::IsKeyPress
  00075	84 c0		 test	 al, al
  00077	74 09		 je	 SHORT $LN4@OnProcess

; 857  : 		ChangeKeyValue( KEY_ENTER );

  00079	6a 0d		 push	 13			; 0000000dH
  0007b	8b cf		 mov	 ecx, edi
  0007d	e8 00 00 00 00	 call	 ?ChangeKeyValue@GameOptionSettingJoyKeyTab@@IAEXG@Z ; GameOptionSettingJoyKeyTab::ChangeKeyValue
$LN4@OnProcess:

; 858  : 
; 859  : 	if( g_Input.IsKeyPress( KEY_ESCAPE ) )

  00082	e8 00 00 00 00	 call	 ?GetSingleton@CDirectInput@@SAAAV1@XZ ; CDirectInput::GetSingleton
  00087	6a 1b		 push	 27			; 0000001bH
  00089	5a		 pop	 edx
  0008a	8b c8		 mov	 ecx, eax
  0008c	e8 00 00 00 00	 call	 ?IsKeyPress@CDirectInput@@QAI_NG@Z ; CDirectInput::IsKeyPress
  00091	84 c0		 test	 al, al
  00093	74 09		 je	 SHORT $LN3@OnProcess

; 860  : 		ChangeKeyValue( KEY_ESCAPE );

  00095	6a 1b		 push	 27			; 0000001bH
  00097	8b cf		 mov	 ecx, edi
  00099	e8 00 00 00 00	 call	 ?ChangeKeyValue@GameOptionSettingJoyKeyTab@@IAEXG@Z ; GameOptionSettingJoyKeyTab::ChangeKeyValue
$LN3@OnProcess:

; 861  : 
; 862  : 	if( g_Input.IsKeyPress( KEY_LWIN ) )

  0009e	e8 00 00 00 00	 call	 ?GetSingleton@CDirectInput@@SAAAV1@XZ ; CDirectInput::GetSingleton
  000a3	be b1 00 00 00	 mov	 esi, 177		; 000000b1H
  000a8	8b d6		 mov	 edx, esi
  000aa	8b c8		 mov	 ecx, eax
  000ac	e8 00 00 00 00	 call	 ?IsKeyPress@CDirectInput@@QAI_NG@Z ; CDirectInput::IsKeyPress
  000b1	84 c0		 test	 al, al
  000b3	74 08		 je	 SHORT $LN2@OnProcess

; 863  : 		ChangeKeyValue( KEY_LWIN );

  000b5	56		 push	 esi
  000b6	8b cf		 mov	 ecx, edi
  000b8	e8 00 00 00 00	 call	 ?ChangeKeyValue@GameOptionSettingJoyKeyTab@@IAEXG@Z ; GameOptionSettingJoyKeyTab::ChangeKeyValue
$LN2@OnProcess:

; 864  : 
; 865  : 	if( g_Input.IsKeyPress( KEY_RWIN ) )

  000bd	e8 00 00 00 00	 call	 ?GetSingleton@CDirectInput@@SAAAV1@XZ ; CDirectInput::GetSingleton
  000c2	be b2 00 00 00	 mov	 esi, 178		; 000000b2H
  000c7	8b d6		 mov	 edx, esi
  000c9	8b c8		 mov	 ecx, eax
  000cb	e8 00 00 00 00	 call	 ?IsKeyPress@CDirectInput@@QAI_NG@Z ; CDirectInput::IsKeyPress
  000d0	84 c0		 test	 al, al
  000d2	74 08		 je	 SHORT $LN17@OnProcess

; 866  : 		ChangeKeyValue( KEY_RWIN );

  000d4	56		 push	 esi
  000d5	8b cf		 mov	 ecx, edi
  000d7	e8 00 00 00 00	 call	 ?ChangeKeyValue@GameOptionSettingJoyKeyTab@@IAEXG@Z ; GameOptionSettingJoyKeyTab::ChangeKeyValue
$LN17@OnProcess:
  000dc	5e		 pop	 esi
$LN1@OnProcess:
  000dd	5f		 pop	 edi

; 867  : }

  000de	c2 04 00	 ret	 4
?OnProcess@GameOptionSettingJoyKeyTab@@MAEXM@Z ENDP	; GameOptionSettingJoyKeyTab::OnProcess
_TEXT	ENDS
PUBLIC	__real@3f400000
PUBLIC	?Init@GameOptionSettingJoyKeyTab@@QAEXXZ	; GameOptionSettingJoyKeyTab::Init
EXTRN	?AddTextPiece@ioComplexStringPrinter@@QAAXMPBDZZ:PROC ; ioComplexStringPrinter::AddTextPiece
EXTRN	?ChangeCharSet@Help@@YAXPADDD@Z:PROC		; Help::ChangeCharSet
EXTRN	?SetTextColor@ioComplexStringPrinter@@QAEXK@Z:PROC ; ioComplexStringPrinter::SetTextColor
EXTRN	__imp__strtoul:PROC
EXTRN	__imp_?LoadStringA@ioINILoader@@QAEXPBD0PADH@Z:PROC
EXTRN	__imp__wsprintfA:PROC
EXTRN	?SetBkColor@ioComplexStringPrinter@@QAEXHHH@Z:PROC ; ioComplexStringPrinter::SetBkColor
EXTRN	?SetTextStyle@ioComplexStringPrinter@@QAEXW4TextStyle@@@Z:PROC ; ioComplexStringPrinter::SetTextStyle
EXTRN	?ClearList@ioComplexStringPrinter@@QAEXXZ:PROC	; ioComplexStringPrinter::ClearList
EXTRN	?GetJoyCurrent@ioKeyManager@@QAEXAAVCJoyKeyInfo@@@Z:PROC ; ioKeyManager::GetJoyCurrent
EXTRN	_memset:PROC
;	COMDAT __real@3f400000
CONST	SEGMENT
__real@3f400000 DD 03f400000r			; 0.75
CONST	ENDS
;	COMDAT xdata$x
xdata$x	SEGMENT
__unwindtable$?Init@GameOptionSettingJoyKeyTab@@QAEXXZ DD 0ffffffffH
	DD	FLAT:__unwindfunclet$?Init@GameOptionSettingJoyKeyTab@@QAEXXZ$0
__ehfuncinfo$?Init@GameOptionSettingJoyKeyTab@@QAEXXZ DD 019930522H
	DD	01H
	DD	FLAT:__unwindtable$?Init@GameOptionSettingJoyKeyTab@@QAEXXZ
	DD	2 DUP(00H)
	DD	2 DUP(00H)
	DD	00H
	DD	01H
; Function compile flags: /Ogsp
xdata$x	ENDS
;	COMDAT ?Init@GameOptionSettingJoyKeyTab@@QAEXXZ
_TEXT	SEGMENT
_pTemp$543943 = -1496					; size = 4
tv1721 = -1492						; size = 4
tv3098 = -1488						; size = 4
tv3846 = -1484						; size = 4
tv3872 = -1480						; size = 4
_kLoader$ = -1476					; size = 912
_szKey$ = -564						; size = 260
_szBuf$ = -304						; size = 260
___encStr$543948 = -44					; size = 22
___encStr$543793 = -44					; size = 23
__t$547765 = -36					; size = 13
__$EHRec$ = -12						; size = 12
?Init@GameOptionSettingJoyKeyTab@@QAEXXZ PROC		; GameOptionSettingJoyKeyTab::Init, COMDAT
; _this$ = ecx

; 1096 : {

  00000	68 cc 05 00 00	 push	 1484			; 000005ccH
  00005	b8 00 00 00 00	 mov	 eax, __ehhandler$?Init@GameOptionSettingJoyKeyTab@@QAEXXZ
  0000a	e8 00 00 00 00	 call	 __EH_prolog3_GS

; 1097 : 	m_DefaultSpec   = Setting::GetSpec();

  0000f	a1 00 00 00 00	 mov	 eax, DWORD PTR ?m_DefaultSpec@Setting@@1W4Spec@1@A ; Setting::m_DefaultSpec
  00014	8b f1		 mov	 esi, ecx

; 1098 : 	m_CurrentOption = Setting::GetSettingOption();

  00016	68 00 00 00 00	 push	 OFFSET ?m_Option@Setting@@1USettingOption@@A ; Setting::m_Option
  0001b	8d 8e 64 01 00
	00		 lea	 ecx, DWORD PTR [esi+356]
  00021	89 86 60 01 00
	00		 mov	 DWORD PTR [esi+352], eax
  00027	e8 00 00 00 00	 call	 ??4SettingOption@@QAEAAU0@ABU0@@Z

; 1099 : 
; 1100 : 	g_KeyManager.GetJoyCurrent(m_KeyInfo);

  0002c	8d 86 10 02 00
	00		 lea	 eax, DWORD PTR [esi+528]
  00032	50		 push	 eax
  00033	e8 00 00 00 00	 call	 ?GetSingleton@ioKeyManager@@SAAAV1@XZ ; ioKeyManager::GetSingleton
  00038	8b c8		 mov	 ecx, eax
  0003a	e8 00 00 00 00	 call	 ?GetJoyCurrent@ioKeyManager@@QAEXAAVCJoyKeyInfo@@@Z ; ioKeyManager::GetJoyCurrent

; 1101 : 	m_iCurPage = 0;

  0003f	33 db		 xor	 ebx, ebx

; 1102 : 
; 1103 : 	//
; 1104 : 	ioINILoader_e kLoader( "config/sp2_default_joykey.ini" );

  00041	6a 07		 push	 7
  00043	89 9e 0c 02 00
	00		 mov	 DWORD PTR [esi+524], ebx
  00049	c7 85 8c fd ff
	ff 8e 83 85 8c	 mov	 DWORD PTR _kLoader$[ebp+848], -1937407090 ; 8c85838eH
  00053	c7 85 90 fd ff
	ff 84 8b c4 99	 mov	 DWORD PTR _kLoader$[ebp+852], -1715172476 ; 99c48b84H
  0005d	c7 85 94 fd ff
	ff 9d de b4 8e	 mov	 DWORD PTR _kLoader$[ebp+856], -1900749155 ; 8eb4de9dH
  00067	c7 85 98 fd ff
	ff 88 8a 8a 9f	 mov	 DWORD PTR _kLoader$[ebp+860], -1618310520 ; 9f8a8a88H
  00071	c7 85 9c fd ff
	ff 81 98 b4 80	 mov	 DWORD PTR _kLoader$[ebp+864], -2135648127 ; 80b49881H
  0007b	c7 85 a0 fd ff
	ff 82 95 80 8f	 mov	 DWORD PTR _kLoader$[ebp+868], -1887398526 ; 8f809582H
  00085	c7 85 a4 fd ff
	ff 94 c2 82 84	 mov	 DWORD PTR _kLoader$[ebp+872], -2071805292 ; 8482c294H
  0008f	8d 85 8c fd ff
	ff		 lea	 eax, DWORD PTR _kLoader$[ebp+848]
  00095	66 c7 85 a8 fd
	ff ff 84 00	 mov	 WORD PTR _kLoader$[ebp+876], 132 ; 00000084H
  0009e	59		 pop	 ecx
$LL319@Init:
  0009f	81 30 ed ec eb
	ea		 xor	 DWORD PTR [eax], -353637139 ; eaebecedH
  000a5	83 c0 04	 add	 eax, 4
  000a8	49		 dec	 ecx
  000a9	75 f4		 jne	 SHORT $LL319@Init
  000ab	80 b5 a8 fd ff
	ff ed		 xor	 BYTE PTR _kLoader$[ebp+876], -19 ; ffffffedH
  000b2	6a 01		 push	 1
  000b4	8d 85 8c fd ff
	ff		 lea	 eax, DWORD PTR _kLoader$[ebp+848]
  000ba	50		 push	 eax
  000bb	8d 8d 3c fa ff
	ff		 lea	 ecx, DWORD PTR _kLoader$[ebp]
  000c1	ff 15 00 00 00
	00		 call	 DWORD PTR __imp_??0ioINILoader@@QAE@PBD_N@Z
  000c7	6a 03		 push	 3
  000c9	89 5d fc	 mov	 DWORD PTR __$EHRec$[ebp+8], ebx

; 1105 : 	kLoader.SetTitle_e( "warning_desc" );

  000cc	c7 45 dc 9a 8d
	99 84		 mov	 DWORD PTR __t$547765[ebp], -2070311526 ; 84998d9aH
  000d3	c7 45 e0 84 82
	8c b5		 mov	 DWORD PTR __t$547765[ebp+4], -1249082748 ; b58c8284H
  000da	c7 45 e4 89 89
	98 89		 mov	 DWORD PTR __t$547765[ebp+8], -1986492023 ; 89988989H
  000e1	8d 45 dc	 lea	 eax, DWORD PTR __t$547765[ebp]
  000e4	88 5d e8	 mov	 BYTE PTR __t$547765[ebp+12], bl
  000e7	59		 pop	 ecx
$LL425@Init:
  000e8	81 30 ed ec eb
	ea		 xor	 DWORD PTR [eax], -353637139 ; eaebecedH
  000ee	83 c0 04	 add	 eax, 4
  000f1	49		 dec	 ecx
  000f2	75 f4		 jne	 SHORT $LL425@Init
  000f4	8d 45 dc	 lea	 eax, DWORD PTR __t$547765[ebp]
  000f7	50		 push	 eax
  000f8	8d 8d 3c fa ff
	ff		 lea	 ecx, DWORD PTR _kLoader$[ebp]
  000fe	ff 15 00 00 00
	00		 call	 DWORD PTR __imp_?SetTitle@ioINILoader@@QAEXPBD@Z

; 1106 : 
; 1107 : 	m_Warning[0].ClearList();

  00104	8d be 3c 02 00
	00		 lea	 edi, DWORD PTR [esi+572]
  0010a	8b cf		 mov	 ecx, edi
  0010c	e8 00 00 00 00	 call	 ?ClearList@ioComplexStringPrinter@@QAEXXZ ; ioComplexStringPrinter::ClearList

; 1108 : 	m_Warning[1].ClearList();

  00111	8d 8e 5c 02 00
	00		 lea	 ecx, DWORD PTR [esi+604]
  00117	e8 00 00 00 00	 call	 ?ClearList@ioComplexStringPrinter@@QAEXXZ ; ioComplexStringPrinter::ClearList

; 1109 : 	m_Warning[2].ClearList();

  0011c	8d 8e 7c 02 00
	00		 lea	 ecx, DWORD PTR [esi+636]
  00122	e8 00 00 00 00	 call	 ?ClearList@ioComplexStringPrinter@@QAEXXZ ; ioComplexStringPrinter::ClearList

; 1110 : 
; 1111 : 	char szBuf[MAX_PATH] = "";

  00127	be 03 01 00 00	 mov	 esi, 259		; 00000103H
  0012c	56		 push	 esi
  0012d	8d 85 d1 fe ff
	ff		 lea	 eax, DWORD PTR _szBuf$[ebp+1]
  00133	53		 push	 ebx
  00134	50		 push	 eax
  00135	88 9d d0 fe ff
	ff		 mov	 BYTE PTR _szBuf$[ebp], bl
  0013b	e8 00 00 00 00	 call	 _memset

; 1112 : 	char szKey[MAX_PATH] = "";

  00140	56		 push	 esi
  00141	8d 85 cd fd ff
	ff		 lea	 eax, DWORD PTR _szKey$[ebp+1]
  00147	53		 push	 ebx
  00148	50		 push	 eax
  00149	88 9d cc fd ff
	ff		 mov	 BYTE PTR _szKey$[ebp], bl
  0014f	e8 00 00 00 00	 call	 _memset
  00154	83 c4 18	 add	 esp, 24			; 00000018H

; 1113 : 
; 1114 : 	int i, j;
; 1115 : 	for( i=0; i < 3; ++i )

  00157	33 f6		 xor	 esi, esi
  00159	89 bd 38 fa ff
	ff		 mov	 DWORD PTR tv3872[ebp], edi
$LN205@Init:

; 1116 : 	{
; 1117 : 		m_Warning[i].SetTextStyle( TS_NORMAL );

  0015f	8b 8d 38 fa ff
	ff		 mov	 ecx, DWORD PTR tv3872[ebp]
  00165	53		 push	 ebx
  00166	e8 00 00 00 00	 call	 ?SetTextStyle@ioComplexStringPrinter@@QAEXW4TextStyle@@@Z ; ioComplexStringPrinter::SetTextStyle

; 1118 : 		m_Warning[i].SetBkColor( 0, 0, 0 );

  0016b	8b 8d 38 fa ff
	ff		 mov	 ecx, DWORD PTR tv3872[ebp]
  00171	53		 push	 ebx
  00172	53		 push	 ebx
  00173	53		 push	 ebx
  00174	e8 00 00 00 00	 call	 ?SetBkColor@ioComplexStringPrinter@@QAEXHHH@Z ; ioComplexStringPrinter::SetBkColor
  00179	46		 inc	 esi
  0017a	89 b5 30 fa ff
	ff		 mov	 DWORD PTR tv3098[ebp], esi
  00180	c7 85 34 fa ff
	ff 01 00 00 00	 mov	 DWORD PTR tv3846[ebp], 1
  0018a	c7 85 2c fa ff
	ff 0a 00 00 00	 mov	 DWORD PTR tv1721[ebp], 10 ; 0000000aH
$LN202@Init:

; 1121 : 		{
; 1122 : 			wsprintf_e( szKey, "warning_desc%d_color%d", i+1, j+1 );

  00194	6a 05		 push	 5
  00196	c7 45 d4 9a 8d
	99 84		 mov	 DWORD PTR ___encStr$543793[ebp], -2070311526 ; 84998d9aH
  0019d	c7 45 d8 84 82
	8c b5		 mov	 DWORD PTR ___encStr$543793[ebp+4], -1249082748 ; b58c8284H
  001a4	c7 45 dc 89 89
	98 89		 mov	 DWORD PTR ___encStr$543793[ebp+8], -1986492023 ; 89988989H
  001ab	c7 45 e0 c8 88
	b4 89		 mov	 DWORD PTR ___encStr$543793[ebp+12], -1984657208 ; 89b488c8H
  001b2	c7 45 e4 82 80
	84 98		 mov	 DWORD PTR ___encStr$543793[ebp+16], -1736146814 ; 98848082H
  001b9	66 c7 45 e8 c8
	88		 mov	 WORD PTR ___encStr$543793[ebp+20], 35016 ; 000088c8H
  001bf	8d 45 d4	 lea	 eax, DWORD PTR ___encStr$543793[ebp]
  001c2	88 5d ea	 mov	 BYTE PTR ___encStr$543793[ebp+22], bl
  001c5	59		 pop	 ecx
$LL433@Init:
  001c6	81 30 ed ec eb
	ea		 xor	 DWORD PTR [eax], -353637139 ; eaebecedH
  001cc	83 c0 04	 add	 eax, 4
  001cf	49		 dec	 ecx
  001d0	75 f4		 jne	 SHORT $LL433@Init
  001d2	6a 14		 push	 20			; 00000014H
  001d4	5e		 pop	 esi
$LL430@Init:
  001d5	8b c6		 mov	 eax, esi
  001d7	25 03 00 00 80	 and	 eax, -2147483645	; 80000003H
  001dc	79 05		 jns	 SHORT $LN471@Init
  001de	48		 dec	 eax
  001df	83 c8 fc	 or	 eax, -4			; fffffffcH
  001e2	40		 inc	 eax
$LN471@Init:
  001e3	b1 ed		 mov	 cl, -19			; ffffffedH
  001e5	2a c8		 sub	 cl, al
  001e7	30 4c 35 d4	 xor	 BYTE PTR ___encStr$543793[ebp+esi], cl
  001eb	46		 inc	 esi
  001ec	83 fe 16	 cmp	 esi, 22			; 00000016H
  001ef	7c e4		 jl	 SHORT $LL430@Init
  001f1	ff b5 34 fa ff
	ff		 push	 DWORD PTR tv3846[ebp]
  001f7	8b 35 00 00 00
	00		 mov	 esi, DWORD PTR __imp__wsprintfA
  001fd	ff b5 30 fa ff
	ff		 push	 DWORD PTR tv3098[ebp]
  00203	8d 45 d4	 lea	 eax, DWORD PTR ___encStr$543793[ebp]
  00206	50		 push	 eax
  00207	8d 85 cc fd ff
	ff		 lea	 eax, DWORD PTR _szKey$[ebp]
  0020d	50		 push	 eax
  0020e	ff d6		 call	 esi
  00210	83 c4 10	 add	 esp, 16			; 00000010H

; 1123 : 			kLoader.LoadString( szKey, "", szBuf, MAX_PATH );

  00213	68 04 01 00 00	 push	 260			; 00000104H
  00218	8d 85 d0 fe ff
	ff		 lea	 eax, DWORD PTR _szBuf$[ebp]
  0021e	50		 push	 eax
  0021f	bf 00 00 00 00	 mov	 edi, OFFSET ??_C@_00CNPNBAHC@?$AA@
  00224	57		 push	 edi
  00225	8d 85 cc fd ff
	ff		 lea	 eax, DWORD PTR _szKey$[ebp]
  0022b	50		 push	 eax
  0022c	8d 8d 3c fa ff
	ff		 lea	 ecx, DWORD PTR _kLoader$[ebp]
  00232	ff 15 00 00 00
	00		 call	 DWORD PTR __imp_?LoadStringA@ioINILoader@@QAEXPBD0PADH@Z

; 1124 : 
; 1125 : 			char *pTemp = NULL;
; 1126 : 			DWORD dwColor = strtoul( szBuf, &pTemp, 16 );

  00238	6a 10		 push	 16			; 00000010H
  0023a	8d 85 28 fa ff
	ff		 lea	 eax, DWORD PTR _pTemp$543943[ebp]
  00240	50		 push	 eax
  00241	8d 85 d0 fe ff
	ff		 lea	 eax, DWORD PTR _szBuf$[ebp]
  00247	50		 push	 eax
  00248	89 9d 28 fa ff
	ff		 mov	 DWORD PTR _pTemp$543943[ebp], ebx
  0024e	ff 15 00 00 00
	00		 call	 DWORD PTR __imp__strtoul

; 1127 : 			m_Warning[i].SetTextColor( dwColor );

  00254	8b 8d 38 fa ff
	ff		 mov	 ecx, DWORD PTR tv3872[ebp]
  0025a	83 c4 0c	 add	 esp, 12			; 0000000cH
  0025d	50		 push	 eax
  0025e	e8 00 00 00 00	 call	 ?SetTextColor@ioComplexStringPrinter@@QAEXK@Z ; ioComplexStringPrinter::SetTextColor
  00263	6a 05		 push	 5

; 1128 : 
; 1129 : 			wsprintf_e( szKey, "warning_desc%d_text%d", i+1, j+1 );  

  00265	c7 45 d4 9a 8d
	99 84		 mov	 DWORD PTR ___encStr$543948[ebp], -2070311526 ; 84998d9aH
  0026c	c7 45 d8 84 82
	8c b5		 mov	 DWORD PTR ___encStr$543948[ebp+4], -1249082748 ; b58c8284H
  00273	c7 45 dc 89 89
	98 89		 mov	 DWORD PTR ___encStr$543948[ebp+8], -1986492023 ; 89988989H
  0027a	c7 45 e0 c8 88
	b4 9e		 mov	 DWORD PTR ___encStr$543948[ebp+12], -1632335672 ; 9eb488c8H
  00281	c7 45 e4 88 94
	9f cf		 mov	 DWORD PTR ___encStr$543948[ebp+16], -811625336 ; cf9f9488H
  00288	8d 45 d4	 lea	 eax, DWORD PTR ___encStr$543948[ebp]
  0028b	66 c7 45 e8 89
	00		 mov	 WORD PTR ___encStr$543948[ebp+20], 137 ; 00000089H
  00291	59		 pop	 ecx
$LL441@Init:
  00292	81 30 ed ec eb
	ea		 xor	 DWORD PTR [eax], -353637139 ; eaebecedH
  00298	83 c0 04	 add	 eax, 4
  0029b	49		 dec	 ecx
  0029c	75 f4		 jne	 SHORT $LL441@Init
  0029e	ff b5 34 fa ff
	ff		 push	 DWORD PTR tv3846[ebp]
  002a4	80 75 e8 ed	 xor	 BYTE PTR ___encStr$543948[ebp+20], -19 ; ffffffedH
  002a8	ff b5 30 fa ff
	ff		 push	 DWORD PTR tv3098[ebp]
  002ae	8d 45 d4	 lea	 eax, DWORD PTR ___encStr$543948[ebp]
  002b1	50		 push	 eax
  002b2	8d 85 cc fd ff
	ff		 lea	 eax, DWORD PTR _szKey$[ebp]
  002b8	50		 push	 eax
  002b9	ff d6		 call	 esi
  002bb	83 c4 10	 add	 esp, 16			; 00000010H

; 1130 : 			kLoader.LoadString( szKey, "", szBuf, MAX_PATH );

  002be	68 04 01 00 00	 push	 260			; 00000104H
  002c3	8d 85 d0 fe ff
	ff		 lea	 eax, DWORD PTR _szBuf$[ebp]
  002c9	50		 push	 eax
  002ca	57		 push	 edi
  002cb	8d 85 cc fd ff
	ff		 lea	 eax, DWORD PTR _szKey$[ebp]
  002d1	50		 push	 eax
  002d2	8d 8d 3c fa ff
	ff		 lea	 ecx, DWORD PTR _kLoader$[ebp]
  002d8	ff 15 00 00 00
	00		 call	 DWORD PTR __imp_?LoadStringA@ioINILoader@@QAEXPBD0PADH@Z

; 1131 : 
; 1132 : 			if( strcmp( szBuf, "" ) == 0 )

  002de	33 c9		 xor	 ecx, ecx
  002e0	41		 inc	 ecx
  002e1	8d b5 d0 fe ff
	ff		 lea	 esi, DWORD PTR _szBuf$[ebp]
  002e7	33 c0		 xor	 eax, eax
  002e9	f3 a6		 repe cmpsb
  002eb	74 36		 je	 SHORT $LN201@Init

; 1133 : 				continue;
; 1134 : 
; 1135 : 			Help::ChangeCharSet( szBuf, '#', ' ' );

  002ed	6a 20		 push	 32			; 00000020H
  002ef	8d 85 d0 fe ff
	ff		 lea	 eax, DWORD PTR _szBuf$[ebp]
  002f5	6a 23		 push	 35			; 00000023H
  002f7	50		 push	 eax
  002f8	e8 00 00 00 00	 call	 ?ChangeCharSet@Help@@YAXPADDD@Z ; Help::ChangeCharSet

; 1136 : 			m_Warning[i].AddTextPiece( FONT_SIZE_15, szBuf );

  002fd	f3 0f 10 05 00
	00 00 00	 movss	 xmm0, DWORD PTR __real@3f400000
  00305	83 c4 0c	 add	 esp, 12			; 0000000cH
  00308	8d 85 d0 fe ff
	ff		 lea	 eax, DWORD PTR _szBuf$[ebp]
  0030e	50		 push	 eax
  0030f	51		 push	 ecx
  00310	f3 0f 11 04 24	 movss	 DWORD PTR [esp], xmm0
  00315	ff b5 38 fa ff
	ff		 push	 DWORD PTR tv3872[ebp]
  0031b	e8 00 00 00 00	 call	 ?AddTextPiece@ioComplexStringPrinter@@QAAXMPBDZZ ; ioComplexStringPrinter::AddTextPiece
  00320	83 c4 0c	 add	 esp, 12			; 0000000cH
$LN201@Init:

; 1119 : 
; 1120 : 		for( j=0; j < 10; ++j )

  00323	ff 85 34 fa ff
	ff		 inc	 DWORD PTR tv3846[ebp]
  00329	ff 8d 2c fa ff
	ff		 dec	 DWORD PTR tv1721[ebp]
  0032f	0f 85 5f fe ff
	ff		 jne	 $LN202@Init

; 1113 : 
; 1114 : 	int i, j;
; 1115 : 	for( i=0; i < 3; ++i )

  00335	8b b5 30 fa ff
	ff		 mov	 esi, DWORD PTR tv3098[ebp]
  0033b	83 85 38 fa ff
	ff 20		 add	 DWORD PTR tv3872[ebp], 32 ; 00000020H
  00342	83 fe 03	 cmp	 esi, 3
  00345	0f 8c 14 fe ff
	ff		 jl	 $LN205@Init

; 1137 : 		}
; 1138 : 	}
; 1139 : 	//
; 1140 : }

  0034b	83 4d fc ff	 or	 DWORD PTR __$EHRec$[ebp+8], -1
  0034f	8d 8d 3c fa ff
	ff		 lea	 ecx, DWORD PTR _kLoader$[ebp]
  00355	ff 15 00 00 00
	00		 call	 DWORD PTR __imp_??1ioINILoader@@QAE@XZ
  0035b	e8 00 00 00 00	 call	 __EH_epilog3_GS
  00360	c3		 ret	 0
_TEXT	ENDS
;	COMDAT text$x
text$x	SEGMENT
__unwindfunclet$?Init@GameOptionSettingJoyKeyTab@@QAEXXZ$0:
  00000	8d 8d 3c fa ff
	ff		 lea	 ecx, DWORD PTR _kLoader$[ebp]
  00006	e9 00 00 00 00	 jmp	 ??1ioINILoader_e@@QAE@XZ
__ehhandler$?Init@GameOptionSettingJoyKeyTab@@QAEXXZ:
  0000b	8b 54 24 08	 mov	 edx, DWORD PTR [esp+8]
  0000f	8d 42 0c	 lea	 eax, DWORD PTR [edx+12]
  00012	8b 8a 24 fa ff
	ff		 mov	 ecx, DWORD PTR [edx-1500]
  00018	33 c8		 xor	 ecx, eax
  0001a	e8 00 00 00 00	 call	 @__security_check_cookie@4
  0001f	8b 4a fc	 mov	 ecx, DWORD PTR [edx-4]
  00022	33 c8		 xor	 ecx, eax
  00024	e8 00 00 00 00	 call	 @__security_check_cookie@4
  00029	b8 00 00 00 00	 mov	 eax, OFFSET __ehfuncinfo$?Init@GameOptionSettingJoyKeyTab@@QAEXXZ
  0002e	e9 00 00 00 00	 jmp	 ___CxxFrameHandler3
text$x	ENDS
?Init@GameOptionSettingJoyKeyTab@@QAEXXZ ENDP		; GameOptionSettingJoyKeyTab::Init
PUBLIC	??1?$vector@W4ItemType@SettingJoyKeyItemWnd@@V?$allocator@W4ItemType@SettingJoyKeyItemWnd@@@std@@@std@@QAE@XZ ; std::vector<enum SettingJoyKeyItemWnd::ItemType,std::allocator<enum SettingJoyKeyItemWnd::ItemType> >::~vector<enum SettingJoyKeyItemWnd::ItemType,std::allocator<enum SettingJoyKeyItemWnd::ItemType> >
; Function compile flags: /Ogsp
; File c:\program files (x86)\microsoft visual studio 10.0\vc\include\vector
;	COMDAT ??1?$vector@W4ItemType@SettingJoyKeyItemWnd@@V?$allocator@W4ItemType@SettingJoyKeyItemWnd@@@std@@@std@@QAE@XZ
_TEXT	SEGMENT
??1?$vector@W4ItemType@SettingJoyKeyItemWnd@@V?$allocator@W4ItemType@SettingJoyKeyItemWnd@@@std@@@std@@QAE@XZ PROC ; std::vector<enum SettingJoyKeyItemWnd::ItemType,std::allocator<enum SettingJoyKeyItemWnd::ItemType> >::~vector<enum SettingJoyKeyItemWnd::ItemType,std::allocator<enum SettingJoyKeyItemWnd::ItemType> >, COMDAT
; _this$ = ecx

; 705  : 		_Tidy();

  00000	e9 00 00 00 00	 jmp	 ?_Tidy@?$vector@W4ItemType@SettingJoyKeyItemWnd@@V?$allocator@W4ItemType@SettingJoyKeyItemWnd@@@std@@@std@@IAEXXZ ; std::vector<enum SettingJoyKeyItemWnd::ItemType,std::allocator<enum SettingJoyKeyItemWnd::ItemType> >::_Tidy
??1?$vector@W4ItemType@SettingJoyKeyItemWnd@@V?$allocator@W4ItemType@SettingJoyKeyItemWnd@@@std@@@std@@QAE@XZ ENDP ; std::vector<enum SettingJoyKeyItemWnd::ItemType,std::allocator<enum SettingJoyKeyItemWnd::ItemType> >::~vector<enum SettingJoyKeyItemWnd::ItemType,std::allocator<enum SettingJoyKeyItemWnd::ItemType> >
_TEXT	ENDS
PUBLIC	?reserve@?$vector@W4ItemType@SettingJoyKeyItemWnd@@V?$allocator@W4ItemType@SettingJoyKeyItemWnd@@@std@@@std@@QAEXI@Z ; std::vector<enum SettingJoyKeyItemWnd::ItemType,std::allocator<enum SettingJoyKeyItemWnd::ItemType> >::reserve
; Function compile flags: /Ogsp
;	COMDAT ?reserve@?$vector@W4ItemType@SettingJoyKeyItemWnd@@V?$allocator@W4ItemType@SettingJoyKeyItemWnd@@@std@@@std@@QAEXI@Z
_TEXT	SEGMENT
__Count$ = 8						; size = 4
?reserve@?$vector@W4ItemType@SettingJoyKeyItemWnd@@V?$allocator@W4ItemType@SettingJoyKeyItemWnd@@@std@@@std@@QAEXI@Z PROC ; std::vector<enum SettingJoyKeyItemWnd::ItemType,std::allocator<enum SettingJoyKeyItemWnd::ItemType> >::reserve, COMDAT
; _this$ = ecx

; 746  : 		{	// determine new minimum length of allocated storage

  00000	55		 push	 ebp
  00001	8b ec		 mov	 ebp, esp

; 747  : 		if (max_size() < _Count)

  00003	81 7d 08 ff ff
	ff 3f		 cmp	 DWORD PTR __Count$[ebp], 1073741823 ; 3fffffffH
  0000a	56		 push	 esi
  0000b	8b f1		 mov	 esi, ecx
  0000d	76 0b		 jbe	 SHORT $LN5@reserve

; 748  : 			_Xlen();	// result too long

  0000f	68 00 00 00 00	 push	 OFFSET ??_C@_0BD@OLBABOEK@vector?$DMT?$DO?5too?5long?$AA@
  00014	ff 15 00 00 00
	00		 call	 DWORD PTR __imp_?_Xlength_error@std@@YAXPBD@Z
$LN43@reserve:
$LN5@reserve:

; 749  : 		else if (capacity() < _Count)

  0001a	8b 46 08	 mov	 eax, DWORD PTR [esi+8]
  0001d	2b 06		 sub	 eax, DWORD PTR [esi]
  0001f	c1 f8 02	 sar	 eax, 2
  00022	3b 45 08	 cmp	 eax, DWORD PTR __Count$[ebp]
  00025	73 52		 jae	 SHORT $LN3@reserve

; 750  : 			{	// not enough room, reallocate
; 751  : 			pointer _Ptr = this->_Alval.allocate(_Count);

  00027	53		 push	 ebx
  00028	57		 push	 edi
  00029	6a 00		 push	 0
  0002b	ff 75 08	 push	 DWORD PTR __Count$[ebp]
  0002e	e8 00 00 00 00	 call	 ??$_Allocate@W4ItemType@SettingJoyKeyItemWnd@@@std@@YAPAW4ItemType@SettingJoyKeyItemWnd@@IPAW412@@Z ; std::_Allocate<enum SettingJoyKeyItemWnd::ItemType>

; 752  : 
; 753  : 			_TRY_BEGIN
; 754  : 			_Umove(this->_Myfirst, this->_Mylast, _Ptr);

  00033	8b 0e		 mov	 ecx, DWORD PTR [esi]
  00035	8d 56 0c	 lea	 edx, DWORD PTR [esi+12]
  00038	52		 push	 edx
  00039	8b d8		 mov	 ebx, eax
  0003b	8b 46 04	 mov	 eax, DWORD PTR [esi+4]
  0003e	53		 push	 ebx
  0003f	50		 push	 eax
  00040	51		 push	 ecx
  00041	e8 00 00 00 00	 call	 ??$_Uninitialized_move@PAW4ItemType@SettingJoyKeyItemWnd@@PAW412@V?$allocator@W4ItemType@SettingJoyKeyItemWnd@@@std@@@std@@YAPAW4ItemType@SettingJoyKeyItemWnd@@PAW412@00AAV?$allocator@W4ItemType@SettingJoyKeyItemWnd@@@0@@Z ; std::_Uninitialized_move<enum SettingJoyKeyItemWnd::ItemType *,enum SettingJoyKeyItemWnd::ItemType *,std::allocator<enum SettingJoyKeyItemWnd::ItemType> >

; 755  : 			_CATCH_ALL
; 756  : 			this->_Alval.deallocate(_Ptr, _Count);
; 757  : 			_RERAISE;
; 758  : 			_CATCH_END
; 759  : 
; 760  : 			size_type _Size = size();

  00046	8b 06		 mov	 eax, DWORD PTR [esi]
  00048	8b 7e 04	 mov	 edi, DWORD PTR [esi+4]
  0004b	2b f8		 sub	 edi, eax
  0004d	83 c4 18	 add	 esp, 24			; 00000018H
  00050	c1 ff 02	 sar	 edi, 2

; 761  : 			if (this->_Myfirst != 0)

  00053	85 c0		 test	 eax, eax
  00055	74 07		 je	 SHORT $LN39@reserve

; 762  : 				{	// destroy and deallocate old array
; 763  : 				_Destroy(this->_Myfirst, this->_Mylast);
; 764  : 				this->_Alval.deallocate(this->_Myfirst,
; 765  : 					this->_Myend - this->_Myfirst);

  00057	50		 push	 eax
  00058	e8 00 00 00 00	 call	 ??3@YAXPAX@Z		; operator delete
  0005d	59		 pop	 ecx
$LN39@reserve:

; 766  : 				}
; 767  : 
; 768  : 			this->_Orphan_all();

  0005e	8b ce		 mov	 ecx, esi
  00060	ff 15 00 00 00
	00		 call	 DWORD PTR __imp_?_Orphan_all@_Container_base0@std@@QAEXXZ

; 769  : 			this->_Myend = _Ptr + _Count;

  00066	8b 45 08	 mov	 eax, DWORD PTR __Count$[ebp]
  00069	8d 04 83	 lea	 eax, DWORD PTR [ebx+eax*4]
  0006c	89 46 08	 mov	 DWORD PTR [esi+8], eax

; 770  : 			this->_Mylast = _Ptr + _Size;

  0006f	8d 04 bb	 lea	 eax, DWORD PTR [ebx+edi*4]
  00072	5f		 pop	 edi

; 771  : 			this->_Myfirst = _Ptr;

  00073	89 1e		 mov	 DWORD PTR [esi], ebx
  00075	89 46 04	 mov	 DWORD PTR [esi+4], eax
  00078	5b		 pop	 ebx
$LN3@reserve:
  00079	5e		 pop	 esi

; 772  : 			}
; 773  : 		}

  0007a	5d		 pop	 ebp
  0007b	c2 04 00	 ret	 4
$LN42@reserve:
?reserve@?$vector@W4ItemType@SettingJoyKeyItemWnd@@V?$allocator@W4ItemType@SettingJoyKeyItemWnd@@@std@@@std@@QAEXI@Z ENDP ; std::vector<enum SettingJoyKeyItemWnd::ItemType,std::allocator<enum SettingJoyKeyItemWnd::ItemType> >::reserve
_TEXT	ENDS
PUBLIC	?erase@?$vector@W4ItemType@SettingJoyKeyItemWnd@@V?$allocator@W4ItemType@SettingJoyKeyItemWnd@@@std@@@std@@QAE?AV?$_Vector_iterator@V?$_Vector_val@W4ItemType@SettingJoyKeyItemWnd@@V?$allocator@W4ItemType@SettingJoyKeyItemWnd@@@std@@@std@@@2@V?$_Vector_const_iterator@V?$_Vector_val@W4ItemType@SettingJoyKeyItemWnd@@V?$allocator@W4ItemType@SettingJoyKeyItemWnd@@@std@@@std@@@2@0@Z ; std::vector<enum SettingJoyKeyItemWnd::ItemType,std::allocator<enum SettingJoyKeyItemWnd::ItemType> >::erase
; Function compile flags: /Ogsp
;	COMDAT ?erase@?$vector@W4ItemType@SettingJoyKeyItemWnd@@V?$allocator@W4ItemType@SettingJoyKeyItemWnd@@@std@@@std@@QAE?AV?$_Vector_iterator@V?$_Vector_val@W4ItemType@SettingJoyKeyItemWnd@@V?$allocator@W4ItemType@SettingJoyKeyItemWnd@@@std@@@std@@@2@V?$_Vector_const_iterator@V?$_Vector_val@W4ItemType@SettingJoyKeyItemWnd@@V?$allocator@W4ItemType@SettingJoyKeyItemWnd@@@std@@@std@@@2@0@Z
_TEXT	SEGMENT
___$ReturnUdt$ = 8					; size = 4
__First_arg$ = 12					; size = 4
__Cat$548100 = 16					; size = 1
__Last_arg$ = 16					; size = 4
?erase@?$vector@W4ItemType@SettingJoyKeyItemWnd@@V?$allocator@W4ItemType@SettingJoyKeyItemWnd@@@std@@@std@@QAE?AV?$_Vector_iterator@V?$_Vector_val@W4ItemType@SettingJoyKeyItemWnd@@V?$allocator@W4ItemType@SettingJoyKeyItemWnd@@@std@@@std@@@2@V?$_Vector_const_iterator@V?$_Vector_val@W4ItemType@SettingJoyKeyItemWnd@@V?$allocator@W4ItemType@SettingJoyKeyItemWnd@@@std@@@std@@@2@0@Z PROC ; std::vector<enum SettingJoyKeyItemWnd::ItemType,std::allocator<enum SettingJoyKeyItemWnd::ItemType> >::erase, COMDAT
; _this$ = ecx

; 1190 : 		{	// erase [_First, _Last)

  00000	55		 push	 ebp
  00001	8b ec		 mov	 ebp, esp

; 1191 : 		iterator _First = _Make_iter(_First_arg);

  00003	8b 45 0c	 mov	 eax, DWORD PTR __First_arg$[ebp]
  00006	56		 push	 esi
  00007	57		 push	 edi
  00008	8b 7d 08	 mov	 edi, DWORD PTR ___$ReturnUdt$[ebp]
  0000b	8b f1		 mov	 esi, ecx
  0000d	89 07		 mov	 DWORD PTR [edi], eax

; 1192 : 		iterator _Last = _Make_iter(_Last_arg);
; 1193 : 
; 1194 : 		if (_First != _Last)

  0000f	3b 45 10	 cmp	 eax, DWORD PTR __Last_arg$[ebp]
  00012	74 16		 je	 SHORT $LN1@erase

; 1195 : 			{	// worth doing, copy down over hole
; 1196 :  #if _ITERATOR_DEBUG_LEVEL == 2
; 1197 : 			if (_Last < _First || _VICONT(_First) != this
; 1198 : 				|| _VIPTR(_First) < this->_Myfirst
; 1199 : 				|| this->_Mylast < _VIPTR(_Last))
; 1200 : 				_DEBUG_ERROR("vector erase iterator outside range");
; 1201 : 			pointer _Ptr = _Move(_VIPTR(_Last), this->_Mylast,
; 1202 : 				_VIPTR(_First));
; 1203 : 			_Orphan_range(_VIPTR(_First), this->_Mylast);
; 1204 : 
; 1205 :  #else /* _ITERATOR_DEBUG_LEVEL == 2 */
; 1206 : 			pointer _Ptr = _Move(_VIPTR(_Last), this->_Mylast,
; 1207 : 				_VIPTR(_First));

  00014	ff 75 10	 push	 DWORD PTR __Cat$548100[ebp]
  00017	8b 4e 04	 mov	 ecx, DWORD PTR [esi+4]
  0001a	50		 push	 eax
  0001b	51		 push	 ecx
  0001c	ff 75 10	 push	 DWORD PTR __Last_arg$[ebp]
  0001f	e8 00 00 00 00	 call	 ??$_Move@PAW4ItemType@SettingJoyKeyItemWnd@@PAW412@@std@@YAPAW4ItemType@SettingJoyKeyItemWnd@@PAW412@00U_Scalar_ptr_iterator_tag@0@@Z ; std::_Move<enum SettingJoyKeyItemWnd::ItemType *,enum SettingJoyKeyItemWnd::ItemType *>
  00024	83 c4 10	 add	 esp, 16			; 00000010H

; 1208 :  #endif /* _ITERATOR_DEBUG_LEVEL == 2 */
; 1209 : 
; 1210 : 			_Destroy(_Ptr, this->_Mylast);
; 1211 : 			this->_Mylast = _Ptr;

  00027	89 46 04	 mov	 DWORD PTR [esi+4], eax
$LN1@erase:

; 1212 : 			}
; 1213 : 		return (_First);

  0002a	8b c7		 mov	 eax, edi
  0002c	5f		 pop	 edi
  0002d	5e		 pop	 esi

; 1214 : 		}

  0002e	5d		 pop	 ebp
  0002f	c2 0c 00	 ret	 12			; 0000000cH
?erase@?$vector@W4ItemType@SettingJoyKeyItemWnd@@V?$allocator@W4ItemType@SettingJoyKeyItemWnd@@@std@@@std@@QAE?AV?$_Vector_iterator@V?$_Vector_val@W4ItemType@SettingJoyKeyItemWnd@@V?$allocator@W4ItemType@SettingJoyKeyItemWnd@@@std@@@std@@@2@V?$_Vector_const_iterator@V?$_Vector_val@W4ItemType@SettingJoyKeyItemWnd@@V?$allocator@W4ItemType@SettingJoyKeyItemWnd@@@std@@@std@@@2@0@Z ENDP ; std::vector<enum SettingJoyKeyItemWnd::ItemType,std::allocator<enum SettingJoyKeyItemWnd::ItemType> >::erase
_TEXT	ENDS
PUBLIC	?_Reserve@?$vector@W4ItemType@SettingJoyKeyItemWnd@@V?$allocator@W4ItemType@SettingJoyKeyItemWnd@@@std@@@std@@IAEXI@Z ; std::vector<enum SettingJoyKeyItemWnd::ItemType,std::allocator<enum SettingJoyKeyItemWnd::ItemType> >::_Reserve
; Function compile flags: /Ogsp
;	COMDAT ?_Reserve@?$vector@W4ItemType@SettingJoyKeyItemWnd@@V?$allocator@W4ItemType@SettingJoyKeyItemWnd@@@std@@@std@@IAEXI@Z
_TEXT	SEGMENT
__Count$ = 8						; size = 4
?_Reserve@?$vector@W4ItemType@SettingJoyKeyItemWnd@@V?$allocator@W4ItemType@SettingJoyKeyItemWnd@@@std@@@std@@IAEXI@Z PROC ; std::vector<enum SettingJoyKeyItemWnd::ItemType,std::allocator<enum SettingJoyKeyItemWnd::ItemType> >::_Reserve, COMDAT
; _this$ = ecx

; 1290 : 		{	// ensure room for _Count new elements, grow exponentially

  00000	55		 push	 ebp
  00001	8b ec		 mov	 ebp, esp
  00003	56		 push	 esi
  00004	8b f1		 mov	 esi, ecx

; 1291 : 		size_type _Size = size();

  00006	8b 0e		 mov	 ecx, DWORD PTR [esi]
  00008	8b 46 04	 mov	 eax, DWORD PTR [esi+4]
  0000b	2b c1		 sub	 eax, ecx

; 1292 : 		if (max_size() - _Count < _Size)

  0000d	ba ff ff ff 3f	 mov	 edx, 1073741823		; 3fffffffH
  00012	2b 55 08	 sub	 edx, DWORD PTR __Count$[ebp]
  00015	c1 f8 02	 sar	 eax, 2
  00018	3b d0		 cmp	 edx, eax
  0001a	73 0b		 jae	 SHORT $LN4@Reserve

; 1293 : 			_Xlen();

  0001c	68 00 00 00 00	 push	 OFFSET ??_C@_0BD@OLBABOEK@vector?$DMT?$DO?5too?5long?$AA@
  00021	ff 15 00 00 00
	00		 call	 DWORD PTR __imp_?_Xlength_error@std@@YAXPBD@Z
$LN21@Reserve:
$LN4@Reserve:

; 1294 : 		else if ((_Size += _Count) <= capacity())

  00027	8b 56 08	 mov	 edx, DWORD PTR [esi+8]
  0002a	03 45 08	 add	 eax, DWORD PTR __Count$[ebp]
  0002d	2b d1		 sub	 edx, ecx
  0002f	c1 fa 02	 sar	 edx, 2
  00032	3b c2		 cmp	 eax, edx
  00034	76 10		 jbe	 SHORT $LN1@Reserve

; 1295 : 			;
; 1296 : 		else
; 1297 : 			reserve(_Grow_to(_Size));

  00036	50		 push	 eax
  00037	8b ce		 mov	 ecx, esi
  00039	e8 00 00 00 00	 call	 ?_Grow_to@?$vector@W4ItemType@SettingJoyKeyItemWnd@@V?$allocator@W4ItemType@SettingJoyKeyItemWnd@@@std@@@std@@IBEII@Z ; std::vector<enum SettingJoyKeyItemWnd::ItemType,std::allocator<enum SettingJoyKeyItemWnd::ItemType> >::_Grow_to
  0003e	50		 push	 eax
  0003f	8b ce		 mov	 ecx, esi
  00041	e8 00 00 00 00	 call	 ?reserve@?$vector@W4ItemType@SettingJoyKeyItemWnd@@V?$allocator@W4ItemType@SettingJoyKeyItemWnd@@@std@@@std@@QAEXI@Z ; std::vector<enum SettingJoyKeyItemWnd::ItemType,std::allocator<enum SettingJoyKeyItemWnd::ItemType> >::reserve
$LN1@Reserve:
  00046	5e		 pop	 esi

; 1298 : 		}

  00047	5d		 pop	 ebp
  00048	c2 04 00	 ret	 4
$LN20@Reserve:
?_Reserve@?$vector@W4ItemType@SettingJoyKeyItemWnd@@V?$allocator@W4ItemType@SettingJoyKeyItemWnd@@@std@@@std@@IAEXI@Z ENDP ; std::vector<enum SettingJoyKeyItemWnd::ItemType,std::allocator<enum SettingJoyKeyItemWnd::ItemType> >::_Reserve
_TEXT	ENDS
PUBLIC	?push_back@?$vector@W4ItemType@SettingJoyKeyItemWnd@@V?$allocator@W4ItemType@SettingJoyKeyItemWnd@@@std@@@std@@QAEX$$QAW4ItemType@SettingJoyKeyItemWnd@@@Z ; std::vector<enum SettingJoyKeyItemWnd::ItemType,std::allocator<enum SettingJoyKeyItemWnd::ItemType> >::push_back
; Function compile flags: /Ogsp
;	COMDAT ?push_back@?$vector@W4ItemType@SettingJoyKeyItemWnd@@V?$allocator@W4ItemType@SettingJoyKeyItemWnd@@@std@@@std@@QAEX$$QAW4ItemType@SettingJoyKeyItemWnd@@@Z
_TEXT	SEGMENT
__Val$ = 8						; size = 4
?push_back@?$vector@W4ItemType@SettingJoyKeyItemWnd@@V?$allocator@W4ItemType@SettingJoyKeyItemWnd@@@std@@@std@@QAEX$$QAW4ItemType@SettingJoyKeyItemWnd@@@Z PROC ; std::vector<enum SettingJoyKeyItemWnd::ItemType,std::allocator<enum SettingJoyKeyItemWnd::ItemType> >::push_back, COMDAT
; _this$ = ecx

; 631  : 		{	// insert element at end

  00000	55		 push	 ebp
  00001	8b ec		 mov	 ebp, esp
  00003	56		 push	 esi
  00004	8b f1		 mov	 esi, ecx

; 632  : 		if (_Inside(_STD addressof(_Val)))

  00006	8b 46 04	 mov	 eax, DWORD PTR [esi+4]
  00009	57		 push	 edi
  0000a	8b 7d 08	 mov	 edi, DWORD PTR __Val$[ebp]
  0000d	3b f8		 cmp	 edi, eax
  0000f	73 27		 jae	 SHORT $LN4@push_back
  00011	8b 0e		 mov	 ecx, DWORD PTR [esi]
  00013	3b cf		 cmp	 ecx, edi
  00015	77 21		 ja	 SHORT $LN4@push_back

; 633  : 			{	// push back an element
; 634  : 			size_type _Idx = _STD addressof(_Val) - this->_Myfirst;

  00017	2b f9		 sub	 edi, ecx
  00019	c1 ff 02	 sar	 edi, 2

; 635  : 			if (this->_Mylast == this->_Myend)

  0001c	3b 46 08	 cmp	 eax, DWORD PTR [esi+8]
  0001f	75 09		 jne	 SHORT $LN3@push_back

; 636  : 				_Reserve(1);

  00021	6a 01		 push	 1
  00023	8b ce		 mov	 ecx, esi
  00025	e8 00 00 00 00	 call	 ?_Reserve@?$vector@W4ItemType@SettingJoyKeyItemWnd@@V?$allocator@W4ItemType@SettingJoyKeyItemWnd@@@std@@@std@@IAEXI@Z ; std::vector<enum SettingJoyKeyItemWnd::ItemType,std::allocator<enum SettingJoyKeyItemWnd::ItemType> >::_Reserve
$LN3@push_back:

; 637  : 			_Orphan_range(this->_Mylast, this->_Mylast);
; 638  : 			_Cons_val(this->_Alval,
; 639  : 				this->_Mylast,
; 640  : 				_STD forward<_Ty>(this->_Myfirst[_Idx]));

  0002a	8b 46 04	 mov	 eax, DWORD PTR [esi+4]
  0002d	85 c0		 test	 eax, eax
  0002f	74 20		 je	 SHORT $LN41@push_back
  00031	8b 0e		 mov	 ecx, DWORD PTR [esi]
  00033	8b 0c b9	 mov	 ecx, DWORD PTR [ecx+edi*4]

; 641  : 			++this->_Mylast;
; 642  : 			}
; 643  : 		else

  00036	eb 17		 jmp	 SHORT $LN48@push_back
$LN4@push_back:

; 644  : 			{	// push back a non-element
; 645  : 			if (this->_Mylast == this->_Myend)

  00038	3b 46 08	 cmp	 eax, DWORD PTR [esi+8]
  0003b	75 09		 jne	 SHORT $LN1@push_back

; 646  : 				_Reserve(1);

  0003d	6a 01		 push	 1
  0003f	8b ce		 mov	 ecx, esi
  00041	e8 00 00 00 00	 call	 ?_Reserve@?$vector@W4ItemType@SettingJoyKeyItemWnd@@V?$allocator@W4ItemType@SettingJoyKeyItemWnd@@@std@@@std@@IAEXI@Z ; std::vector<enum SettingJoyKeyItemWnd::ItemType,std::allocator<enum SettingJoyKeyItemWnd::ItemType> >::_Reserve
$LN1@push_back:

; 647  : 			_Orphan_range(this->_Mylast, this->_Mylast);
; 648  : 			_Cons_val(this->_Alval,
; 649  : 				this->_Mylast,
; 650  : 				_STD forward<_Ty>(_Val));

  00046	8b 46 04	 mov	 eax, DWORD PTR [esi+4]
  00049	85 c0		 test	 eax, eax
  0004b	74 04		 je	 SHORT $LN41@push_back
  0004d	8b 0f		 mov	 ecx, DWORD PTR [edi]
$LN48@push_back:
  0004f	89 08		 mov	 DWORD PTR [eax], ecx
$LN41@push_back:

; 651  : 			++this->_Mylast;

  00051	83 46 04 04	 add	 DWORD PTR [esi+4], 4
  00055	5f		 pop	 edi
  00056	5e		 pop	 esi

; 652  : 			}
; 653  : 		}

  00057	5d		 pop	 ebp
  00058	c2 04 00	 ret	 4
?push_back@?$vector@W4ItemType@SettingJoyKeyItemWnd@@V?$allocator@W4ItemType@SettingJoyKeyItemWnd@@@std@@@std@@QAEX$$QAW4ItemType@SettingJoyKeyItemWnd@@@Z ENDP ; std::vector<enum SettingJoyKeyItemWnd::ItemType,std::allocator<enum SettingJoyKeyItemWnd::ItemType> >::push_back
_TEXT	ENDS
PUBLIC	?clear@?$vector@W4ItemType@SettingJoyKeyItemWnd@@V?$allocator@W4ItemType@SettingJoyKeyItemWnd@@@std@@@std@@QAEXXZ ; std::vector<enum SettingJoyKeyItemWnd::ItemType,std::allocator<enum SettingJoyKeyItemWnd::ItemType> >::clear
; Function compile flags: /Ogsp
;	COMDAT ?clear@?$vector@W4ItemType@SettingJoyKeyItemWnd@@V?$allocator@W4ItemType@SettingJoyKeyItemWnd@@@std@@@std@@QAEXXZ
_TEXT	SEGMENT
$T548279 = -4						; size = 4
?clear@?$vector@W4ItemType@SettingJoyKeyItemWnd@@V?$allocator@W4ItemType@SettingJoyKeyItemWnd@@@std@@@std@@QAEXXZ PROC ; std::vector<enum SettingJoyKeyItemWnd::ItemType,std::allocator<enum SettingJoyKeyItemWnd::ItemType> >::clear, COMDAT
; _this$ = ecx

; 1217 : 		{	// erase all

  00000	55		 push	 ebp
  00001	8b ec		 mov	 ebp, esp
  00003	51		 push	 ecx

; 1218 : 		erase(begin(), end());

  00004	8b 41 04	 mov	 eax, DWORD PTR [ecx+4]
  00007	8b 11		 mov	 edx, DWORD PTR [ecx]
  00009	50		 push	 eax
  0000a	52		 push	 edx
  0000b	8d 45 fc	 lea	 eax, DWORD PTR $T548279[ebp]
  0000e	50		 push	 eax
  0000f	e8 00 00 00 00	 call	 ?erase@?$vector@W4ItemType@SettingJoyKeyItemWnd@@V?$allocator@W4ItemType@SettingJoyKeyItemWnd@@@std@@@std@@QAE?AV?$_Vector_iterator@V?$_Vector_val@W4ItemType@SettingJoyKeyItemWnd@@V?$allocator@W4ItemType@SettingJoyKeyItemWnd@@@std@@@std@@@2@V?$_Vector_const_iterator@V?$_Vector_val@W4ItemType@SettingJoyKeyItemWnd@@V?$allocator@W4ItemType@SettingJoyKeyItemWnd@@@std@@@std@@@2@0@Z ; std::vector<enum SettingJoyKeyItemWnd::ItemType,std::allocator<enum SettingJoyKeyItemWnd::ItemType> >::erase

; 1219 : 		}

  00014	c9		 leave
  00015	c3		 ret	 0
?clear@?$vector@W4ItemType@SettingJoyKeyItemWnd@@V?$allocator@W4ItemType@SettingJoyKeyItemWnd@@@std@@@std@@QAEXXZ ENDP ; std::vector<enum SettingJoyKeyItemWnd::ItemType,std::allocator<enum SettingJoyKeyItemWnd::ItemType> >::clear
_TEXT	ENDS
PUBLIC	??_7GameOptionSettingJoyKeyTab@@6B@		; GameOptionSettingJoyKeyTab::`vftable'
PUBLIC	??0GameOptionSettingJoyKeyTab@@QAE@XZ		; GameOptionSettingJoyKeyTab::GameOptionSettingJoyKeyTab
PUBLIC	??_R4GameOptionSettingJoyKeyTab@@6B@		; GameOptionSettingJoyKeyTab::`RTTI Complete Object Locator'
PUBLIC	??_R0?AVGameOptionSettingJoyKeyTab@@@8		; GameOptionSettingJoyKeyTab `RTTI Type Descriptor'
PUBLIC	??_R3GameOptionSettingJoyKeyTab@@8		; GameOptionSettingJoyKeyTab::`RTTI Class Hierarchy Descriptor'
PUBLIC	??_R2GameOptionSettingJoyKeyTab@@8		; GameOptionSettingJoyKeyTab::`RTTI Base Class Array'
PUBLIC	??_R1A@?0A@EA@GameOptionSettingJoyKeyTab@@8	; GameOptionSettingJoyKeyTab::`RTTI Base Class Descriptor at (0,-1,0,64)'
PUBLIC	??_R1A@?0A@EA@GameOptionBasicWnd@@8		; GameOptionBasicWnd::`RTTI Base Class Descriptor at (0,-1,0,64)'
PUBLIC	??_R0?AVGameOptionBasicWnd@@@8			; GameOptionBasicWnd `RTTI Type Descriptor'
PUBLIC	??_R3GameOptionBasicWnd@@8			; GameOptionBasicWnd::`RTTI Class Hierarchy Descriptor'
PUBLIC	??_R2GameOptionBasicWnd@@8			; GameOptionBasicWnd::`RTTI Base Class Array'
EXTRN	??1CJoyKeyInfo@@UAE@XZ:PROC			; CJoyKeyInfo::~CJoyKeyInfo
EXTRN	??1GameOptionBasicWnd@@UAE@XZ:PROC		; GameOptionBasicWnd::~GameOptionBasicWnd
EXTRN	?Load@CJoyKeyInfo@@QAEXXZ:PROC			; CJoyKeyInfo::Load
EXTRN	??0CJoyKeyInfo@@QAE@XZ:PROC			; CJoyKeyInfo::CJoyKeyInfo
EXTRN	??0GameOptionBasicWnd@@QAE@XZ:PROC		; GameOptionBasicWnd::GameOptionBasicWnd
EXTRN	??_EGameOptionSettingJoyKeyTab@@UAEPAXI@Z:PROC	; GameOptionSettingJoyKeyTab::`vector deleting destructor'
EXTRN	?CheckResolutionChange@GameOptionBasicWnd@@MAE_NABUSettingOption@@@Z:PROC ; GameOptionBasicWnd::CheckResolutionChange
;	COMDAT ??_R2GameOptionBasicWnd@@8
; File c:\program files (x86)\microsoft visual studio 10.0\vc\include\xmemory
rdata$r	SEGMENT
??_R2GameOptionBasicWnd@@8 DD FLAT:??_R1A@?0A@EA@GameOptionBasicWnd@@8 ; GameOptionBasicWnd::`RTTI Base Class Array'
	DD	FLAT:??_R1A@?0A@EA@ioWnd@@8
rdata$r	ENDS
;	COMDAT ??_R3GameOptionBasicWnd@@8
rdata$r	SEGMENT
??_R3GameOptionBasicWnd@@8 DD 00H			; GameOptionBasicWnd::`RTTI Class Hierarchy Descriptor'
	DD	00H
	DD	02H
	DD	FLAT:??_R2GameOptionBasicWnd@@8
rdata$r	ENDS
;	COMDAT ??_R0?AVGameOptionBasicWnd@@@8
_DATA	SEGMENT
??_R0?AVGameOptionBasicWnd@@@8 DD FLAT:??_7type_info@@6B@ ; GameOptionBasicWnd `RTTI Type Descriptor'
	DD	00H
	DB	'.?AVGameOptionBasicWnd@@', 00H
_DATA	ENDS
;	COMDAT ??_R1A@?0A@EA@GameOptionBasicWnd@@8
rdata$r	SEGMENT
??_R1A@?0A@EA@GameOptionBasicWnd@@8 DD FLAT:??_R0?AVGameOptionBasicWnd@@@8 ; GameOptionBasicWnd::`RTTI Base Class Descriptor at (0,-1,0,64)'
	DD	01H
	DD	00H
	DD	0ffffffffH
	DD	00H
	DD	040H
	DD	FLAT:??_R3GameOptionBasicWnd@@8
rdata$r	ENDS
;	COMDAT ??_R1A@?0A@EA@GameOptionSettingJoyKeyTab@@8
rdata$r	SEGMENT
??_R1A@?0A@EA@GameOptionSettingJoyKeyTab@@8 DD FLAT:??_R0?AVGameOptionSettingJoyKeyTab@@@8 ; GameOptionSettingJoyKeyTab::`RTTI Base Class Descriptor at (0,-1,0,64)'
	DD	02H
	DD	00H
	DD	0ffffffffH
	DD	00H
	DD	040H
	DD	FLAT:??_R3GameOptionSettingJoyKeyTab@@8
rdata$r	ENDS
;	COMDAT ??_R2GameOptionSettingJoyKeyTab@@8
rdata$r	SEGMENT
??_R2GameOptionSettingJoyKeyTab@@8 DD FLAT:??_R1A@?0A@EA@GameOptionSettingJoyKeyTab@@8 ; GameOptionSettingJoyKeyTab::`RTTI Base Class Array'
	DD	FLAT:??_R1A@?0A@EA@GameOptionBasicWnd@@8
	DD	FLAT:??_R1A@?0A@EA@ioWnd@@8
rdata$r	ENDS
;	COMDAT ??_R3GameOptionSettingJoyKeyTab@@8
rdata$r	SEGMENT
??_R3GameOptionSettingJoyKeyTab@@8 DD 00H		; GameOptionSettingJoyKeyTab::`RTTI Class Hierarchy Descriptor'
	DD	00H
	DD	03H
	DD	FLAT:??_R2GameOptionSettingJoyKeyTab@@8
rdata$r	ENDS
;	COMDAT ??_R0?AVGameOptionSettingJoyKeyTab@@@8
_DATA	SEGMENT
??_R0?AVGameOptionSettingJoyKeyTab@@@8 DD FLAT:??_7type_info@@6B@ ; GameOptionSettingJoyKeyTab `RTTI Type Descriptor'
	DD	00H
	DB	'.?AVGameOptionSettingJoyKeyTab@@', 00H
_DATA	ENDS
;	COMDAT ??_R4GameOptionSettingJoyKeyTab@@6B@
rdata$r	SEGMENT
??_R4GameOptionSettingJoyKeyTab@@6B@ DD 00H		; GameOptionSettingJoyKeyTab::`RTTI Complete Object Locator'
	DD	00H
	DD	00H
	DD	FLAT:??_R0?AVGameOptionSettingJoyKeyTab@@@8
	DD	FLAT:??_R3GameOptionSettingJoyKeyTab@@8
rdata$r	ENDS
;	COMDAT ??_7GameOptionSettingJoyKeyTab@@6B@
CONST	SEGMENT
??_7GameOptionSettingJoyKeyTab@@6B@ DD FLAT:??_R4GameOptionSettingJoyKeyTab@@6B@ ; GameOptionSettingJoyKeyTab::`vftable'
	DD	FLAT:?AddRenderFrame@ioWnd@@UAEXABVioHashString@@PAVioUIRenderFrame@@@Z
	DD	FLAT:?AddRenderImage@GameOptionSettingJoyKeyTab@@MAEXABVioHashString@@PAVioUIRenderImage@@@Z
	DD	FLAT:?AddTooltipHelp@ioWnd@@UAEXABVioHashString@@00@Z
	DD	FLAT:?ParseExtraInfo@ioWnd@@UAEXAAVioXMLElement@@@Z
	DD	FLAT:?AddNamedRenderImage@ioWnd@@UAEXABVioHashString@@PAVioUIRenderImage@@@Z
	DD	FLAT:?RemoveNamedRenderImage@ioWnd@@UAEXABVioHashString@@@Z
	DD	FLAT:?GetNamedRenderImage@ioWnd@@UBEPAVioUIRenderImage@@ABVioHashString@@@Z
	DD	FLAT:?SetWindowAlpha@ioWnd@@UAEXH@Z
	DD	FLAT:?SetActive@ioWnd@@UAEXXZ
	DD	FLAT:?SetInActive@ioWnd@@UAEXXZ
	DD	FLAT:?ClearElementImageList@ioWnd@@UAEXXZ
	DD	FLAT:?SetSize@ioWnd@@UAEXHH@Z
	DD	FLAT:?SetPositionToDefault@ioWnd@@UAEXHH_N0@Z
	DD	FLAT:?IsNeedProcess@ioWnd@@UBE_NXZ
	DD	FLAT:?IsCanMouseReaction@ioWnd@@UBE_NXZ
	DD	FLAT:?AddChild@ioWnd@@UAEXPAV1@@Z
	DD	FLAT:?DeleteChild@ioWnd@@UAEXK@Z
	DD	FLAT:?DeleteAllChild@ioWnd@@UAEXXZ
	DD	FLAT:?OnRenderShowAndHide@ioWnd@@MAE_NXZ
	DD	FLAT:?OnRenderShowAndHideByDefault@ioWnd@@MAE_NK@Z
	DD	FLAT:?OnRenderShowAndHideByTop@ioWnd@@MAE_NK@Z
	DD	FLAT:?OnRenderShowAndHideByDown@ioWnd@@MAE_NK@Z
	DD	FLAT:?OnRender@GameOptionSettingJoyKeyTab@@MAEXXZ
	DD	FLAT:?OnRenderAfterChild@ioWnd@@MAEXXZ
	DD	FLAT:?OnProcess@GameOptionSettingJoyKeyTab@@MAEXM@Z
	DD	FLAT:?OnMouseProcess@ioWnd@@MAEXABVioMouse@@@Z
	DD	FLAT:?CheckFrameReSize@ioWnd@@MAEXHHHH@Z
	DD	FLAT:?RenderImageList@ioWnd@@MAEXHHW4UIRenderType@@@Z
	DD	FLAT:?iwm_create@ioWnd@@UAEXXZ
	DD	FLAT:?iwm_destroy@ioWnd@@UAEXXZ
	DD	FLAT:?iwm_lbuttondown@ioWnd@@UAEXABVioMouse@@@Z
	DD	FLAT:?iwm_lbuttonup@ioWnd@@UAEXABVioMouse@@@Z
	DD	FLAT:?iwm_lbuttonDBLCLK@ioWnd@@UAEXABVioMouse@@@Z
	DD	FLAT:?iwm_rbuttondown@ioWnd@@UAEXABVioMouse@@@Z
	DD	FLAT:?iwm_rbuttonup@ioWnd@@UAEXABVioMouse@@@Z
	DD	FLAT:?iwm_command@GameOptionSettingJoyKeyTab@@UAEXPAVioWnd@@HK@Z
	DD	FLAT:?iwm_mouseover@ioWnd@@UAEXABVioMouse@@@Z
	DD	FLAT:?iwm_mousemove@ioWnd@@UAEXABVioMouse@@@Z
	DD	FLAT:?iwm_mouseleave@ioWnd@@UAEXABVioMouse@@@Z
	DD	FLAT:?iwm_vscroll@GameOptionSettingJoyKeyTab@@UAEXKH@Z
	DD	FLAT:?iwm_wheel@GameOptionSettingJoyKeyTab@@UAEXH@Z
	DD	FLAT:?iwm_show@GameOptionSettingJoyKeyTab@@UAEXXZ
	DD	FLAT:?iwm_hide@GameOptionSettingJoyKeyTab@@UAEXXZ
	DD	FLAT:?iwm_esc@ioWnd@@UAE_NXZ
	DD	FLAT:?iwm_spacebar@ioWnd@@UAE_NXZ
	DD	FLAT:?iwm_gototop@ioWnd@@UAEXXZ
	DD	FLAT:?iwm_dragenter@ioWnd@@UAE?AW4IWDropEffect@@PAVioDragItem@@ABVioMouse@@@Z
	DD	FLAT:?iwm_dragover@ioWnd@@UAE?AW4IWDropEffect@@PAVioDragItem@@ABVioMouse@@@Z
	DD	FLAT:?iwm_dragleave@ioWnd@@UAEXXZ
	DD	FLAT:?iwm_dropitem@ioWnd@@UAE_NPAVioDragItem@@ABVioMouse@@PAV1@@Z
	DD	FLAT:?iwm_dropdone@ioWnd@@UAEXPAVioDragItem@@PAV1@_N@Z
	DD	FLAT:?IsEXType@ioWnd@@UBE_NXZ
	DD	FLAT:?GetWndType@ioWnd@@UBEKXZ
	DD	FLAT:?RenderWnd@ioWnd@@UAEXXZ
	DD	FLAT:?SetIDEX@ioWnd@@UAEXAAK_N@Z
	DD	FLAT:?ParseXML@ioWnd@@UAEXAAVioXMLElement@@@Z
	DD	FLAT:?GetHeaderFileName@ioWnd@@UAEPBDXZ
	DD	FLAT:?GetTemplateName@ioWnd@@UAEPBDXZ
	DD	FLAT:?GetDefClassName@ioWnd@@UBEPBDXZ
	DD	FLAT:?_Clone@ioWnd@@UAEPAV1@XZ
	DD	FLAT:?Copy@ioWnd@@UAEXPAV1@@Z
	DD	FLAT:?Save@ioWnd@@UAE_NAAVioXMLElement@@@Z
	DD	FLAT:?SetSaveData@ioWnd@@UAEXAAVioXMLElement@@@Z
	DD	FLAT:?SetPosX@ioWnd@@UAEXH@Z
	DD	FLAT:?SetPosY@ioWnd@@UAEXH@Z
	DD	FLAT:?SetWidth@ioWnd@@UAEXH@Z
	DD	FLAT:?SetHeight@ioWnd@@UAEXH@Z
	DD	FLAT:?GetNumFixedRenderFrame@ioWnd@@UBEHXZ
	DD	FLAT:?GetFixedRenderFrameType@ioWnd@@UAEPBDH@Z
	DD	FLAT:?GetRenderFrame@ioWnd@@UAEPAPAVioUIRenderElement@@PBD@Z
	DD	FLAT:?GetNumFixedRenderImage@ioWnd@@UBEHXZ
	DD	FLAT:?GetFixedRenderImageType@ioWnd@@UAEPBDH@Z
	DD	FLAT:?GetRenderImage@ioWnd@@UAEPAPAVioUIRenderElement@@PBD@Z
	DD	FLAT:?AddEffect@ioWnd@@UAEXABVioHashString@@PAVioUI3DEffectRender@@@Z
	DD	FLAT:?GetEffect@ioWnd@@UAEPAVioUI3DEffectRender@@VioHashString@@@Z
	DD	FLAT:??_EGameOptionSettingJoyKeyTab@@UAEPAXI@Z
	DD	FLAT:?UpdateByCurrentOption@GameOptionSettingJoyKeyTab@@MAEXXZ
	DD	FLAT:?CheckResolutionChange@GameOptionBasicWnd@@MAE_NABUSettingOption@@@Z
CONST	ENDS
;	COMDAT xdata$x
xdata$x	SEGMENT
__unwindtable$??0GameOptionSettingJoyKeyTab@@QAE@XZ DD 0ffffffffH
	DD	FLAT:__unwindfunclet$??0GameOptionSettingJoyKeyTab@@QAE@XZ$0
	DD	00H
	DD	FLAT:__unwindfunclet$??0GameOptionSettingJoyKeyTab@@QAE@XZ$1
	DD	01H
	DD	FLAT:__unwindfunclet$??0GameOptionSettingJoyKeyTab@@QAE@XZ$2
	DD	02H
	DD	FLAT:__unwindfunclet$??0GameOptionSettingJoyKeyTab@@QAE@XZ$3
__ehfuncinfo$??0GameOptionSettingJoyKeyTab@@QAE@XZ DD 019930522H
	DD	04H
	DD	FLAT:__unwindtable$??0GameOptionSettingJoyKeyTab@@QAE@XZ
	DD	2 DUP(00H)
	DD	2 DUP(00H)
	DD	00H
	DD	01H
; Function compile flags: /Ogsp
; File d:\lost saga for developer\youtube\tutorial\source\src\lsclient\gui\gameoptionsettingjoykeytab.cpp
xdata$x	ENDS
;	COMDAT ??0GameOptionSettingJoyKeyTab@@QAE@XZ
_TEXT	SEGMENT
_this$ = -20						; size = 4
$T548332 = -16						; size = 4
__$EHRec$ = -12						; size = 12
??0GameOptionSettingJoyKeyTab@@QAE@XZ PROC		; GameOptionSettingJoyKeyTab::GameOptionSettingJoyKeyTab, COMDAT
; _this$ = ecx

; 676  : {

  00000	6a 08		 push	 8
  00002	b8 00 00 00 00	 mov	 eax, __ehhandler$??0GameOptionSettingJoyKeyTab@@QAE@XZ
  00007	e8 00 00 00 00	 call	 __EH_prolog3
  0000c	8b f1		 mov	 esi, ecx
  0000e	89 75 ec	 mov	 DWORD PTR _this$[ebp], esi
  00011	e8 00 00 00 00	 call	 ??0GameOptionBasicWnd@@QAE@XZ ; GameOptionBasicWnd::GameOptionBasicWnd
  00016	33 db		 xor	 ebx, ebx
  00018	8d 8e 10 02 00
	00		 lea	 ecx, DWORD PTR [esi+528]
  0001e	89 5d fc	 mov	 DWORD PTR __$EHRec$[ebp+8], ebx
  00021	c7 06 00 00 00
	00		 mov	 DWORD PTR [esi], OFFSET ??_7GameOptionSettingJoyKeyTab@@6B@
  00027	e8 00 00 00 00	 call	 ??0CJoyKeyInfo@@QAE@XZ	; CJoyKeyInfo::CJoyKeyInfo
  0002c	89 9e 2c 02 00
	00		 mov	 DWORD PTR [esi+556], ebx
  00032	89 9e 30 02 00
	00		 mov	 DWORD PTR [esi+560], ebx
  00038	89 9e 34 02 00
	00		 mov	 DWORD PTR [esi+564], ebx
  0003e	68 00 00 00 00	 push	 OFFSET ??1ioComplexStringPrinter@@QAE@XZ ; ioComplexStringPrinter::~ioComplexStringPrinter
  00043	68 00 00 00 00	 push	 OFFSET ??0ioComplexStringPrinter@@QAE@XZ ; ioComplexStringPrinter::ioComplexStringPrinter
  00048	6a 03		 push	 3
  0004a	6a 20		 push	 32			; 00000020H
  0004c	8d 86 3c 02 00
	00		 lea	 eax, DWORD PTR [esi+572]
  00052	50		 push	 eax
  00053	c6 45 fc 02	 mov	 BYTE PTR __$EHRec$[ebp+8], 2
  00057	e8 00 00 00 00	 call	 ??_L@YGXPAXIHP6EX0@Z1@Z

; 677  : 	m_pIconBack	  = NULL;
; 678  : 	m_pIconJoypad = NULL;
; 679  : 
; 680  : 	m_eSelectKeyType = CJoyKeyInfo::JTA_NONE;

  0005c	83 8e 28 02 00
	00 ff		 or	 DWORD PTR [esi+552], -1

; 681  : 	m_iCurPage = 0;
; 682  : 	m_vWholeItemType.reserve(SettingJoyKeyItemWnd::IT_MAX);

  00063	6a 32		 push	 50			; 00000032H
  00065	8d 8e 2c 02 00
	00		 lea	 ecx, DWORD PTR [esi+556]
  0006b	c6 45 fc 03	 mov	 BYTE PTR __$EHRec$[ebp+8], 3
  0006f	89 9e 04 02 00
	00		 mov	 DWORD PTR [esi+516], ebx
  00075	89 9e 08 02 00
	00		 mov	 DWORD PTR [esi+520], ebx
  0007b	89 9e 0c 02 00
	00		 mov	 DWORD PTR [esi+524], ebx
  00081	e8 00 00 00 00	 call	 ?reserve@?$vector@W4ItemType@SettingJoyKeyItemWnd@@V?$allocator@W4ItemType@SettingJoyKeyItemWnd@@@std@@@std@@QAEXI@Z ; std::vector<enum SettingJoyKeyItemWnd::ItemType,std::allocator<enum SettingJoyKeyItemWnd::ItemType> >::reserve

; 683  : 	m_KeyInfo.Load();

  00086	8d 8e 10 02 00
	00		 lea	 ecx, DWORD PTR [esi+528]
  0008c	e8 00 00 00 00	 call	 ?Load@CJoyKeyInfo@@QAEXXZ ; CJoyKeyInfo::Load
$LL3@GameOption:

; 684  : 
; 685  : 	for (int i = 0; i < SettingJoyKeyItemWnd::IT_MAX ; i++)
; 686  : 	{
; 687  : 		m_vWholeItemType.push_back((SettingJoyKeyItemWnd::ItemType)i);

  00091	8d 45 f0	 lea	 eax, DWORD PTR $T548332[ebp]
  00094	50		 push	 eax
  00095	8d 8e 2c 02 00
	00		 lea	 ecx, DWORD PTR [esi+556]
  0009b	89 5d f0	 mov	 DWORD PTR $T548332[ebp], ebx
  0009e	e8 00 00 00 00	 call	 ?push_back@?$vector@W4ItemType@SettingJoyKeyItemWnd@@V?$allocator@W4ItemType@SettingJoyKeyItemWnd@@@std@@@std@@QAEX$$QAW4ItemType@SettingJoyKeyItemWnd@@@Z ; std::vector<enum SettingJoyKeyItemWnd::ItemType,std::allocator<enum SettingJoyKeyItemWnd::ItemType> >::push_back
  000a3	43		 inc	 ebx
  000a4	83 fb 32	 cmp	 ebx, 50			; 00000032H
  000a7	7c e8		 jl	 SHORT $LL3@GameOption

; 688  : 	}
; 689  : }

  000a9	8b c6		 mov	 eax, esi
  000ab	e8 00 00 00 00	 call	 __EH_epilog3
  000b0	c3		 ret	 0
_TEXT	ENDS
;	COMDAT text$x
text$x	SEGMENT
__unwindfunclet$??0GameOptionSettingJoyKeyTab@@QAE@XZ$0:
  00000	8b 4d ec	 mov	 ecx, DWORD PTR _this$[ebp]
  00003	e9 00 00 00 00	 jmp	 ??1GameOptionBasicWnd@@UAE@XZ ; GameOptionBasicWnd::~GameOptionBasicWnd
__unwindfunclet$??0GameOptionSettingJoyKeyTab@@QAE@XZ$1:
  00008	8b 4d ec	 mov	 ecx, DWORD PTR _this$[ebp]
  0000b	81 c1 10 02 00
	00		 add	 ecx, 528		; 00000210H
  00011	e9 00 00 00 00	 jmp	 ??1CJoyKeyInfo@@UAE@XZ	; CJoyKeyInfo::~CJoyKeyInfo
__unwindfunclet$??0GameOptionSettingJoyKeyTab@@QAE@XZ$2:
  00016	8b 4d ec	 mov	 ecx, DWORD PTR _this$[ebp]
  00019	81 c1 2c 02 00
	00		 add	 ecx, 556		; 0000022cH
  0001f	e9 00 00 00 00	 jmp	 ??1?$vector@W4ItemType@SettingJoyKeyItemWnd@@V?$allocator@W4ItemType@SettingJoyKeyItemWnd@@@std@@@std@@QAE@XZ ; std::vector<enum SettingJoyKeyItemWnd::ItemType,std::allocator<enum SettingJoyKeyItemWnd::ItemType> >::~vector<enum SettingJoyKeyItemWnd::ItemType,std::allocator<enum SettingJoyKeyItemWnd::ItemType> >
__unwindfunclet$??0GameOptionSettingJoyKeyTab@@QAE@XZ$3:
  00024	68 00 00 00 00	 push	 OFFSET ??1ioComplexStringPrinter@@QAE@XZ ; ioComplexStringPrinter::~ioComplexStringPrinter
  00029	6a 03		 push	 3
  0002b	6a 20		 push	 32			; 00000020H
  0002d	8b 45 ec	 mov	 eax, DWORD PTR _this$[ebp]
  00030	05 3c 02 00 00	 add	 eax, 572		; 0000023cH
  00035	50		 push	 eax
  00036	e8 00 00 00 00	 call	 ??_M@YGXPAXIHP6EX0@Z@Z
  0003b	c3		 ret	 0
__ehhandler$??0GameOptionSettingJoyKeyTab@@QAE@XZ:
  0003c	8b 54 24 08	 mov	 edx, DWORD PTR [esp+8]
  00040	8d 42 0c	 lea	 eax, DWORD PTR [edx+12]
  00043	8b 4a e8	 mov	 ecx, DWORD PTR [edx-24]
  00046	33 c8		 xor	 ecx, eax
  00048	e8 00 00 00 00	 call	 @__security_check_cookie@4
  0004d	b8 00 00 00 00	 mov	 eax, OFFSET __ehfuncinfo$??0GameOptionSettingJoyKeyTab@@QAE@XZ
  00052	e9 00 00 00 00	 jmp	 ___CxxFrameHandler3
text$x	ENDS
??0GameOptionSettingJoyKeyTab@@QAE@XZ ENDP		; GameOptionSettingJoyKeyTab::GameOptionSettingJoyKeyTab
PUBLIC	??1GameOptionSettingJoyKeyTab@@UAE@XZ		; GameOptionSettingJoyKeyTab::~GameOptionSettingJoyKeyTab
;	COMDAT xdata$x
; File c:\program files (x86)\microsoft visual studio 10.0\vc\include\vector
xdata$x	SEGMENT
__unwindtable$??1GameOptionSettingJoyKeyTab@@UAE@XZ DD 0ffffffffH
	DD	FLAT:__unwindfunclet$??1GameOptionSettingJoyKeyTab@@UAE@XZ$0
	DD	00H
	DD	FLAT:__unwindfunclet$??1GameOptionSettingJoyKeyTab@@UAE@XZ$1
	DD	01H
	DD	FLAT:__unwindfunclet$??1GameOptionSettingJoyKeyTab@@UAE@XZ$2
	DD	02H
	DD	FLAT:__unwindfunclet$??1GameOptionSettingJoyKeyTab@@UAE@XZ$3
__ehfuncinfo$??1GameOptionSettingJoyKeyTab@@UAE@XZ DD 019930522H
	DD	04H
	DD	FLAT:__unwindtable$??1GameOptionSettingJoyKeyTab@@UAE@XZ
	DD	2 DUP(00H)
	DD	2 DUP(00H)
	DD	00H
	DD	01H
; Function compile flags: /Ogsp
; File d:\lost saga for developer\youtube\tutorial\source\src\lsclient\gui\gameoptionsettingjoykeytab.cpp
xdata$x	ENDS
;	COMDAT ??1GameOptionSettingJoyKeyTab@@UAE@XZ
_TEXT	SEGMENT
$T548446 = -20						; size = 4
_this$ = -16						; size = 4
__$EHRec$ = -12						; size = 12
??1GameOptionSettingJoyKeyTab@@UAE@XZ PROC		; GameOptionSettingJoyKeyTab::~GameOptionSettingJoyKeyTab, COMDAT
; _this$ = ecx

; 692  : {

  00000	6a 08		 push	 8
  00002	b8 00 00 00 00	 mov	 eax, __ehhandler$??1GameOptionSettingJoyKeyTab@@UAE@XZ
  00007	e8 00 00 00 00	 call	 __EH_prolog3
  0000c	8b f1		 mov	 esi, ecx
  0000e	89 75 f0	 mov	 DWORD PTR _this$[ebp], esi
  00011	c7 06 00 00 00
	00		 mov	 DWORD PTR [esi], OFFSET ??_7GameOptionSettingJoyKeyTab@@6B@

; 693  : 	SAFEDELETE( m_pIconBack );

  00017	8b 8e 04 02 00
	00		 mov	 ecx, DWORD PTR [esi+516]
  0001d	c7 45 fc 03 00
	00 00		 mov	 DWORD PTR __$EHRec$[ebp+8], 3
  00024	85 c9		 test	 ecx, ecx
  00026	74 0e		 je	 SHORT $LN2@GameOption@2
  00028	8b 01		 mov	 eax, DWORD PTR [ecx]
  0002a	6a 01		 push	 1
  0002c	ff 50 40	 call	 DWORD PTR [eax+64]
  0002f	83 a6 04 02 00
	00 00		 and	 DWORD PTR [esi+516], 0
$LN2@GameOption@2:

; 694  : 	SAFEDELETE( m_pIconJoypad );

  00036	8b 8e 08 02 00
	00		 mov	 ecx, DWORD PTR [esi+520]
  0003c	85 c9		 test	 ecx, ecx
  0003e	74 0e		 je	 SHORT $LN1@GameOption@2
  00040	8b 01		 mov	 eax, DWORD PTR [ecx]
  00042	6a 01		 push	 1
  00044	ff 50 40	 call	 DWORD PTR [eax+64]
  00047	83 a6 08 02 00
	00 00		 and	 DWORD PTR [esi+520], 0
$LN1@GameOption@2:

; 695  : 	m_vWholeItemType.clear();

  0004e	8b 86 30 02 00
	00		 mov	 eax, DWORD PTR [esi+560]
  00054	8b 8e 2c 02 00
	00		 mov	 ecx, DWORD PTR [esi+556]
  0005a	50		 push	 eax
  0005b	51		 push	 ecx
  0005c	8d 45 ec	 lea	 eax, DWORD PTR $T548446[ebp]
  0005f	50		 push	 eax
  00060	8d 8e 2c 02 00
	00		 lea	 ecx, DWORD PTR [esi+556]
  00066	e8 00 00 00 00	 call	 ?erase@?$vector@W4ItemType@SettingJoyKeyItemWnd@@V?$allocator@W4ItemType@SettingJoyKeyItemWnd@@@std@@@std@@QAE?AV?$_Vector_iterator@V?$_Vector_val@W4ItemType@SettingJoyKeyItemWnd@@V?$allocator@W4ItemType@SettingJoyKeyItemWnd@@@std@@@std@@@2@V?$_Vector_const_iterator@V?$_Vector_val@W4ItemType@SettingJoyKeyItemWnd@@V?$allocator@W4ItemType@SettingJoyKeyItemWnd@@@std@@@std@@@2@0@Z ; std::vector<enum SettingJoyKeyItemWnd::ItemType,std::allocator<enum SettingJoyKeyItemWnd::ItemType> >::erase

; 696  : }

  0006b	68 00 00 00 00	 push	 OFFSET ??1ioComplexStringPrinter@@QAE@XZ ; ioComplexStringPrinter::~ioComplexStringPrinter
  00070	6a 03		 push	 3
  00072	6a 20		 push	 32			; 00000020H
  00074	8d 86 3c 02 00
	00		 lea	 eax, DWORD PTR [esi+572]
  0007a	50		 push	 eax
  0007b	c6 45 fc 02	 mov	 BYTE PTR __$EHRec$[ebp+8], 2
  0007f	e8 00 00 00 00	 call	 ??_M@YGXPAXIHP6EX0@Z@Z
  00084	8d 8e 2c 02 00
	00		 lea	 ecx, DWORD PTR [esi+556]
  0008a	c6 45 fc 01	 mov	 BYTE PTR __$EHRec$[ebp+8], 1
  0008e	e8 00 00 00 00	 call	 ?_Tidy@?$vector@W4ItemType@SettingJoyKeyItemWnd@@V?$allocator@W4ItemType@SettingJoyKeyItemWnd@@@std@@@std@@IAEXXZ ; std::vector<enum SettingJoyKeyItemWnd::ItemType,std::allocator<enum SettingJoyKeyItemWnd::ItemType> >::_Tidy
  00093	8d 8e 10 02 00
	00		 lea	 ecx, DWORD PTR [esi+528]
  00099	c6 45 fc 00	 mov	 BYTE PTR __$EHRec$[ebp+8], 0
  0009d	e8 00 00 00 00	 call	 ??1CJoyKeyInfo@@UAE@XZ	; CJoyKeyInfo::~CJoyKeyInfo
  000a2	83 4d fc ff	 or	 DWORD PTR __$EHRec$[ebp+8], -1
  000a6	8b ce		 mov	 ecx, esi
  000a8	e8 00 00 00 00	 call	 ??1GameOptionBasicWnd@@UAE@XZ ; GameOptionBasicWnd::~GameOptionBasicWnd
  000ad	e8 00 00 00 00	 call	 __EH_epilog3
  000b2	c3		 ret	 0
_TEXT	ENDS
;	COMDAT text$x
text$x	SEGMENT
__unwindfunclet$??1GameOptionSettingJoyKeyTab@@UAE@XZ$0:
  00000	8b 4d f0	 mov	 ecx, DWORD PTR _this$[ebp]
  00003	e9 00 00 00 00	 jmp	 ??1GameOptionBasicWnd@@UAE@XZ ; GameOptionBasicWnd::~GameOptionBasicWnd
__unwindfunclet$??1GameOptionSettingJoyKeyTab@@UAE@XZ$1:
  00008	8b 4d f0	 mov	 ecx, DWORD PTR _this$[ebp]
  0000b	81 c1 10 02 00
	00		 add	 ecx, 528		; 00000210H
  00011	e9 00 00 00 00	 jmp	 ??1CJoyKeyInfo@@UAE@XZ	; CJoyKeyInfo::~CJoyKeyInfo
__unwindfunclet$??1GameOptionSettingJoyKeyTab@@UAE@XZ$2:
  00016	8b 4d f0	 mov	 ecx, DWORD PTR _this$[ebp]
  00019	81 c1 2c 02 00
	00		 add	 ecx, 556		; 0000022cH
  0001f	e9 00 00 00 00	 jmp	 ??1?$vector@W4ItemType@SettingJoyKeyItemWnd@@V?$allocator@W4ItemType@SettingJoyKeyItemWnd@@@std@@@std@@QAE@XZ ; std::vector<enum SettingJoyKeyItemWnd::ItemType,std::allocator<enum SettingJoyKeyItemWnd::ItemType> >::~vector<enum SettingJoyKeyItemWnd::ItemType,std::allocator<enum SettingJoyKeyItemWnd::ItemType> >
__unwindfunclet$??1GameOptionSettingJoyKeyTab@@UAE@XZ$3:
  00024	68 00 00 00 00	 push	 OFFSET ??1ioComplexStringPrinter@@QAE@XZ ; ioComplexStringPrinter::~ioComplexStringPrinter
  00029	6a 03		 push	 3
  0002b	6a 20		 push	 32			; 00000020H
  0002d	8b 45 f0	 mov	 eax, DWORD PTR _this$[ebp]
  00030	05 3c 02 00 00	 add	 eax, 572		; 0000023cH
  00035	50		 push	 eax
  00036	e8 00 00 00 00	 call	 ??_M@YGXPAXIHP6EX0@Z@Z
  0003b	c3		 ret	 0
__ehhandler$??1GameOptionSettingJoyKeyTab@@UAE@XZ:
  0003c	8b 54 24 08	 mov	 edx, DWORD PTR [esp+8]
  00040	8d 42 0c	 lea	 eax, DWORD PTR [edx+12]
  00043	8b 4a e8	 mov	 ecx, DWORD PTR [edx-24]
  00046	33 c8		 xor	 ecx, eax
  00048	e8 00 00 00 00	 call	 @__security_check_cookie@4
  0004d	b8 00 00 00 00	 mov	 eax, OFFSET __ehfuncinfo$??1GameOptionSettingJoyKeyTab@@UAE@XZ
  00052	e9 00 00 00 00	 jmp	 ___CxxFrameHandler3
text$x	ENDS
??1GameOptionSettingJoyKeyTab@@UAE@XZ ENDP		; GameOptionSettingJoyKeyTab::~GameOptionSettingJoyKeyTab
; Function compile flags: /Ogsp
;	COMDAT ??_GGameOptionSettingJoyKeyTab@@UAEPAXI@Z
_TEXT	SEGMENT
___flags$ = 8						; size = 4
??_GGameOptionSettingJoyKeyTab@@UAEPAXI@Z PROC		; GameOptionSettingJoyKeyTab::`scalar deleting destructor', COMDAT
; _this$ = ecx
  00000	55		 push	 ebp
  00001	8b ec		 mov	 ebp, esp
  00003	56		 push	 esi
  00004	8b f1		 mov	 esi, ecx
  00006	e8 00 00 00 00	 call	 ??1GameOptionSettingJoyKeyTab@@UAE@XZ ; GameOptionSettingJoyKeyTab::~GameOptionSettingJoyKeyTab
  0000b	f6 45 08 01	 test	 BYTE PTR ___flags$[ebp], 1
  0000f	74 07		 je	 SHORT $LN1@scalar@4
  00011	56		 push	 esi
  00012	e8 00 00 00 00	 call	 ??3@YAXPAX@Z		; operator delete
  00017	59		 pop	 ecx
$LN1@scalar@4:
  00018	8b c6		 mov	 eax, esi
  0001a	5e		 pop	 esi
  0001b	5d		 pop	 ebp
  0001c	c2 04 00	 ret	 4
??_GGameOptionSettingJoyKeyTab@@UAEPAXI@Z ENDP		; GameOptionSettingJoyKeyTab::`scalar deleting destructor'
_TEXT	ENDS
END
