; Listing generated by Microsoft (R) Optimizing Compiler Version 16.00.30319.01 

	TITLE	D:\Lost Saga For Developer\Youtube\Tutorial\Source\src\LSClient\GUI\GashaponWnd.cpp
	.686P
	.XMM
	include listing.inc
	.model	flat

INCLUDELIB MSVCRT
INCLUDELIB OLDNAMES

PUBLIC	?_VBITS@?$vector@_NV?$allocator@_N@std@@@std@@2HB ; std::vector<bool,std::allocator<bool> >::_VBITS
;	COMDAT ?_VBITS@?$vector@_NV?$allocator@_N@std@@@std@@2HB
CONST	SEGMENT
?_VBITS@?$vector@_NV?$allocator@_N@std@@@std@@2HB DD 020H ; std::vector<bool,std::allocator<bool> >::_VBITS
CONST	ENDS
PUBLIC	?return1@@YAIXZ					; return1
; Function compile flags: /Ogsp
; File d:\lost saga for developer\youtube\tutorial\source\src\lsclient\stdafx.h
;	COMDAT ?return1@@YAIXZ
_TEXT	SEGMENT
?return1@@YAIXZ PROC					; return1, COMDAT

; 17   : 	__forceinline unsigned int return1() { __asm mov eax, 1 };

  00000	b8 01 00 00 00	 mov	 eax, 1
  00005	c3		 ret	 0
?return1@@YAIXZ ENDP					; return1
_TEXT	ENDS
PUBLIC	?return1000@@YAIXZ				; return1000
; Function compile flags: /Ogsp
;	COMDAT ?return1000@@YAIXZ
_TEXT	SEGMENT
?return1000@@YAIXZ PROC					; return1000, COMDAT

; 29   : 	__forceinline unsigned int return1000() { __asm mov eax, 1000 };

  00000	b8 e8 03 00 00	 mov	 eax, 1000		; 000003e8H
  00005	c3		 ret	 0
?return1000@@YAIXZ ENDP					; return1000
_TEXT	ENDS
PUBLIC	?GetPresentTypeList@GashaponPresentListWnd@@SAAAV?$vector@HV?$allocator@H@std@@@std@@XZ ; GashaponPresentListWnd::GetPresentTypeList
EXTRN	?m_vPresentTypeList@GashaponPresentListWnd@@1V?$vector@HV?$allocator@H@std@@@std@@A:BYTE ; GashaponPresentListWnd::m_vPresentTypeList
; Function compile flags: /Ogsp
; File d:\lost saga for developer\youtube\tutorial\source\src\lsclient\gui\gashaponpresentlistwnd.h
;	COMDAT ?GetPresentTypeList@GashaponPresentListWnd@@SAAAV?$vector@HV?$allocator@H@std@@@std@@XZ
_TEXT	SEGMENT
?GetPresentTypeList@GashaponPresentListWnd@@SAAAV?$vector@HV?$allocator@H@std@@@std@@XZ PROC ; GashaponPresentListWnd::GetPresentTypeList, COMDAT

; 84   : 	static IntVec &GetPresentTypeList()   { return m_vPresentTypeList; }

  00000	b8 00 00 00 00	 mov	 eax, OFFSET ?m_vPresentTypeList@GashaponPresentListWnd@@1V?$vector@HV?$allocator@H@std@@@std@@A ; GashaponPresentListWnd::m_vPresentTypeList
  00005	c3		 ret	 0
?GetPresentTypeList@GashaponPresentListWnd@@SAAAV?$vector@HV?$allocator@H@std@@@std@@XZ ENDP ; GashaponPresentListWnd::GetPresentTypeList
_TEXT	ENDS
PUBLIC	?GetPresentValue1List@GashaponPresentListWnd@@SAAAV?$vector@HV?$allocator@H@std@@@std@@XZ ; GashaponPresentListWnd::GetPresentValue1List
EXTRN	?m_vPresentValue1List@GashaponPresentListWnd@@1V?$vector@HV?$allocator@H@std@@@std@@A:BYTE ; GashaponPresentListWnd::m_vPresentValue1List
; Function compile flags: /Ogsp
;	COMDAT ?GetPresentValue1List@GashaponPresentListWnd@@SAAAV?$vector@HV?$allocator@H@std@@@std@@XZ
_TEXT	SEGMENT
?GetPresentValue1List@GashaponPresentListWnd@@SAAAV?$vector@HV?$allocator@H@std@@@std@@XZ PROC ; GashaponPresentListWnd::GetPresentValue1List, COMDAT

; 85   : 	static IntVec &GetPresentValue1List() { return m_vPresentValue1List; }

  00000	b8 00 00 00 00	 mov	 eax, OFFSET ?m_vPresentValue1List@GashaponPresentListWnd@@1V?$vector@HV?$allocator@H@std@@@std@@A ; GashaponPresentListWnd::m_vPresentValue1List
  00005	c3		 ret	 0
?GetPresentValue1List@GashaponPresentListWnd@@SAAAV?$vector@HV?$allocator@H@std@@@std@@XZ ENDP ; GashaponPresentListWnd::GetPresentValue1List
_TEXT	ENDS
PUBLIC	?GetPresentValue2List@GashaponPresentListWnd@@SAAAV?$vector@HV?$allocator@H@std@@@std@@XZ ; GashaponPresentListWnd::GetPresentValue2List
EXTRN	?m_vPresentValue2List@GashaponPresentListWnd@@1V?$vector@HV?$allocator@H@std@@@std@@A:BYTE ; GashaponPresentListWnd::m_vPresentValue2List
; Function compile flags: /Ogsp
;	COMDAT ?GetPresentValue2List@GashaponPresentListWnd@@SAAAV?$vector@HV?$allocator@H@std@@@std@@XZ
_TEXT	SEGMENT
?GetPresentValue2List@GashaponPresentListWnd@@SAAAV?$vector@HV?$allocator@H@std@@@std@@XZ PROC ; GashaponPresentListWnd::GetPresentValue2List, COMDAT

; 86   : 	static IntVec &GetPresentValue2List() { return m_vPresentValue2List; }

  00000	b8 00 00 00 00	 mov	 eax, OFFSET ?m_vPresentValue2List@GashaponPresentListWnd@@1V?$vector@HV?$allocator@H@std@@@std@@A ; GashaponPresentListWnd::m_vPresentValue2List
  00005	c3		 ret	 0
?GetPresentValue2List@GashaponPresentListWnd@@SAAAV?$vector@HV?$allocator@H@std@@@std@@XZ ENDP ; GashaponPresentListWnd::GetPresentValue2List
_TEXT	ENDS
PUBLIC	?GetPresentValue3List@GashaponPresentListWnd@@SAAAV?$vector@HV?$allocator@H@std@@@std@@XZ ; GashaponPresentListWnd::GetPresentValue3List
EXTRN	?m_vPresentValue3List@GashaponPresentListWnd@@1V?$vector@HV?$allocator@H@std@@@std@@A:BYTE ; GashaponPresentListWnd::m_vPresentValue3List
; Function compile flags: /Ogsp
;	COMDAT ?GetPresentValue3List@GashaponPresentListWnd@@SAAAV?$vector@HV?$allocator@H@std@@@std@@XZ
_TEXT	SEGMENT
?GetPresentValue3List@GashaponPresentListWnd@@SAAAV?$vector@HV?$allocator@H@std@@@std@@XZ PROC ; GashaponPresentListWnd::GetPresentValue3List, COMDAT

; 87   : 	static IntVec &GetPresentValue3List() { return m_vPresentValue3List; }

  00000	b8 00 00 00 00	 mov	 eax, OFFSET ?m_vPresentValue3List@GashaponPresentListWnd@@1V?$vector@HV?$allocator@H@std@@@std@@A ; GashaponPresentListWnd::m_vPresentValue3List
  00005	c3		 ret	 0
?GetPresentValue3List@GashaponPresentListWnd@@SAAAV?$vector@HV?$allocator@H@std@@@std@@XZ ENDP ; GashaponPresentListWnd::GetPresentValue3List
_TEXT	ENDS
PUBLIC	?GetPresentValue4List@GashaponPresentListWnd@@SAAAV?$vector@HV?$allocator@H@std@@@std@@XZ ; GashaponPresentListWnd::GetPresentValue4List
EXTRN	?m_vPresentValue4List@GashaponPresentListWnd@@1V?$vector@HV?$allocator@H@std@@@std@@A:BYTE ; GashaponPresentListWnd::m_vPresentValue4List
; Function compile flags: /Ogsp
;	COMDAT ?GetPresentValue4List@GashaponPresentListWnd@@SAAAV?$vector@HV?$allocator@H@std@@@std@@XZ
_TEXT	SEGMENT
?GetPresentValue4List@GashaponPresentListWnd@@SAAAV?$vector@HV?$allocator@H@std@@@std@@XZ PROC ; GashaponPresentListWnd::GetPresentValue4List, COMDAT

; 88   : 	static IntVec &GetPresentValue4List() { return m_vPresentValue4List; }

  00000	b8 00 00 00 00	 mov	 eax, OFFSET ?m_vPresentValue4List@GashaponPresentListWnd@@1V?$vector@HV?$allocator@H@std@@@std@@A ; GashaponPresentListWnd::m_vPresentValue4List
  00005	c3		 ret	 0
?GetPresentValue4List@GashaponPresentListWnd@@SAAAV?$vector@HV?$allocator@H@std@@@std@@XZ ENDP ; GashaponPresentListWnd::GetPresentValue4List
_TEXT	ENDS
PUBLIC	??_7bad_alloc@std@@6B@				; std::bad_alloc::`vftable'
PUBLIC	??0bad_alloc@std@@QAE@PBD@Z			; std::bad_alloc::bad_alloc
PUBLIC	??_R4bad_alloc@std@@6B@				; std::bad_alloc::`RTTI Complete Object Locator'
PUBLIC	??_R0?AVbad_alloc@std@@@8			; std::bad_alloc `RTTI Type Descriptor'
PUBLIC	??_R3bad_alloc@std@@8				; std::bad_alloc::`RTTI Class Hierarchy Descriptor'
PUBLIC	??_R2bad_alloc@std@@8				; std::bad_alloc::`RTTI Base Class Array'
PUBLIC	??_R1A@?0A@EA@bad_alloc@std@@8			; std::bad_alloc::`RTTI Base Class Descriptor at (0,-1,0,64)'
PUBLIC	??_R1A@?0A@EA@exception@std@@8			; std::exception::`RTTI Base Class Descriptor at (0,-1,0,64)'
PUBLIC	??_R0?AVexception@std@@@8			; std::exception `RTTI Type Descriptor'
PUBLIC	??_R3exception@std@@8				; std::exception::`RTTI Class Hierarchy Descriptor'
PUBLIC	??_R2exception@std@@8				; std::exception::`RTTI Base Class Array'
EXTRN	__imp_??0exception@std@@QAE@ABQBD@Z:PROC
EXTRN	??_7type_info@@6B@:QWORD			; type_info::`vftable'
EXTRN	??_Ebad_alloc@std@@UAEPAXI@Z:PROC		; std::bad_alloc::`vector deleting destructor'
EXTRN	?what@exception@std@@UBEPBDXZ:PROC		; std::exception::what
;	COMDAT ??_R2exception@std@@8
; File c:\program files (x86)\microsoft visual studio 10.0\vc\include\exception
rdata$r	SEGMENT
??_R2exception@std@@8 DD FLAT:??_R1A@?0A@EA@exception@std@@8 ; std::exception::`RTTI Base Class Array'
rdata$r	ENDS
;	COMDAT ??_R3exception@std@@8
rdata$r	SEGMENT
??_R3exception@std@@8 DD 00H				; std::exception::`RTTI Class Hierarchy Descriptor'
	DD	00H
	DD	01H
	DD	FLAT:??_R2exception@std@@8
rdata$r	ENDS
;	COMDAT ??_R0?AVexception@std@@@8
_DATA	SEGMENT
??_R0?AVexception@std@@@8 DD FLAT:??_7type_info@@6B@	; std::exception `RTTI Type Descriptor'
	DD	00H
	DB	'.?AVexception@std@@', 00H
_DATA	ENDS
;	COMDAT ??_R1A@?0A@EA@exception@std@@8
rdata$r	SEGMENT
??_R1A@?0A@EA@exception@std@@8 DD FLAT:??_R0?AVexception@std@@@8 ; std::exception::`RTTI Base Class Descriptor at (0,-1,0,64)'
	DD	00H
	DD	00H
	DD	0ffffffffH
	DD	00H
	DD	040H
	DD	FLAT:??_R3exception@std@@8
rdata$r	ENDS
;	COMDAT ??_R1A@?0A@EA@bad_alloc@std@@8
rdata$r	SEGMENT
??_R1A@?0A@EA@bad_alloc@std@@8 DD FLAT:??_R0?AVbad_alloc@std@@@8 ; std::bad_alloc::`RTTI Base Class Descriptor at (0,-1,0,64)'
	DD	01H
	DD	00H
	DD	0ffffffffH
	DD	00H
	DD	040H
	DD	FLAT:??_R3bad_alloc@std@@8
rdata$r	ENDS
;	COMDAT ??_R2bad_alloc@std@@8
rdata$r	SEGMENT
??_R2bad_alloc@std@@8 DD FLAT:??_R1A@?0A@EA@bad_alloc@std@@8 ; std::bad_alloc::`RTTI Base Class Array'
	DD	FLAT:??_R1A@?0A@EA@exception@std@@8
rdata$r	ENDS
;	COMDAT ??_R3bad_alloc@std@@8
rdata$r	SEGMENT
??_R3bad_alloc@std@@8 DD 00H				; std::bad_alloc::`RTTI Class Hierarchy Descriptor'
	DD	00H
	DD	02H
	DD	FLAT:??_R2bad_alloc@std@@8
rdata$r	ENDS
;	COMDAT ??_R0?AVbad_alloc@std@@@8
_DATA	SEGMENT
??_R0?AVbad_alloc@std@@@8 DD FLAT:??_7type_info@@6B@	; std::bad_alloc `RTTI Type Descriptor'
	DD	00H
	DB	'.?AVbad_alloc@std@@', 00H
_DATA	ENDS
;	COMDAT ??_R4bad_alloc@std@@6B@
rdata$r	SEGMENT
??_R4bad_alloc@std@@6B@ DD 00H				; std::bad_alloc::`RTTI Complete Object Locator'
	DD	00H
	DD	00H
	DD	FLAT:??_R0?AVbad_alloc@std@@@8
	DD	FLAT:??_R3bad_alloc@std@@8
rdata$r	ENDS
;	COMDAT ??_7bad_alloc@std@@6B@
CONST	SEGMENT
??_7bad_alloc@std@@6B@ DD FLAT:??_R4bad_alloc@std@@6B@	; std::bad_alloc::`vftable'
	DD	FLAT:??_Ebad_alloc@std@@UAEPAXI@Z
	DD	FLAT:?what@exception@std@@UBEPBDXZ
; Function compile flags: /Ogsp
CONST	ENDS
;	COMDAT ??0bad_alloc@std@@QAE@PBD@Z
_TEXT	SEGMENT
__Message$ = 8						; size = 4
??0bad_alloc@std@@QAE@PBD@Z PROC			; std::bad_alloc::bad_alloc, COMDAT
; _this$ = ecx

; 345  : 		{	// construct from message string

  00000	55		 push	 ebp
  00001	8b ec		 mov	 ebp, esp
  00003	56		 push	 esi
  00004	8d 45 08	 lea	 eax, DWORD PTR __Message$[ebp]
  00007	50		 push	 eax
  00008	8b f1		 mov	 esi, ecx
  0000a	ff 15 00 00 00
	00		 call	 DWORD PTR __imp_??0exception@std@@QAE@ABQBD@Z
  00010	c7 06 00 00 00
	00		 mov	 DWORD PTR [esi], OFFSET ??_7bad_alloc@std@@6B@

; 346  : 		}

  00016	8b c6		 mov	 eax, esi
  00018	5e		 pop	 esi
  00019	5d		 pop	 ebp
  0001a	c2 04 00	 ret	 4
??0bad_alloc@std@@QAE@PBD@Z ENDP			; std::bad_alloc::bad_alloc
_TEXT	ENDS
PUBLIC	??1bad_alloc@std@@UAE@XZ			; std::bad_alloc::~bad_alloc
EXTRN	__imp_??1exception@std@@UAE@XZ:PROC
; Function compile flags: /Ogsp
;	COMDAT ??1bad_alloc@std@@UAE@XZ
_TEXT	SEGMENT
??1bad_alloc@std@@UAE@XZ PROC				; std::bad_alloc::~bad_alloc, COMDAT
; _this$ = ecx

; 354  : 		{	// destroy the object

  00000	c7 01 00 00 00
	00		 mov	 DWORD PTR [ecx], OFFSET ??_7bad_alloc@std@@6B@

; 355  : 		}

  00006	ff 25 00 00 00
	00		 jmp	 DWORD PTR __imp_??1exception@std@@UAE@XZ
??1bad_alloc@std@@UAE@XZ ENDP				; std::bad_alloc::~bad_alloc
_TEXT	ENDS
EXTRN	??3@YAXPAX@Z:PROC				; operator delete
; Function compile flags: /Ogsp
;	COMDAT ??_Gbad_alloc@std@@UAEPAXI@Z
_TEXT	SEGMENT
___flags$ = 8						; size = 4
??_Gbad_alloc@std@@UAEPAXI@Z PROC			; std::bad_alloc::`scalar deleting destructor', COMDAT
; _this$ = ecx
  00000	55		 push	 ebp
  00001	8b ec		 mov	 ebp, esp
  00003	56		 push	 esi
  00004	8b f1		 mov	 esi, ecx
  00006	c7 06 00 00 00
	00		 mov	 DWORD PTR [esi], OFFSET ??_7bad_alloc@std@@6B@
  0000c	ff 15 00 00 00
	00		 call	 DWORD PTR __imp_??1exception@std@@UAE@XZ
  00012	f6 45 08 01	 test	 BYTE PTR ___flags$[ebp], 1
  00016	74 07		 je	 SHORT $LN1@scalar
  00018	56		 push	 esi
  00019	e8 00 00 00 00	 call	 ??3@YAXPAX@Z		; operator delete
  0001e	59		 pop	 ecx
$LN1@scalar:
  0001f	8b c6		 mov	 eax, esi
  00021	5e		 pop	 esi
  00022	5d		 pop	 ebp
  00023	c2 04 00	 ret	 4
??_Gbad_alloc@std@@UAEPAXI@Z ENDP			; std::bad_alloc::`scalar deleting destructor'
_TEXT	ENDS
PUBLIC	??2@YAPAXIPAX@Z					; operator new
; Function compile flags: /Ogsp
; File c:\program files (x86)\microsoft visual studio 10.0\vc\include\new
;	COMDAT ??2@YAPAXIPAX@Z
_TEXT	SEGMENT
___formal$ = 8						; size = 4
__Where$ = 12						; size = 4
??2@YAPAXIPAX@Z PROC					; operator new, COMDAT

; 56   : 	{	// construct array with placement at _Where

  00000	55		 push	 ebp
  00001	8b ec		 mov	 ebp, esp

; 57   : 	return (_Where);

  00003	8b 45 0c	 mov	 eax, DWORD PTR __Where$[ebp]

; 58   : 	}

  00006	5d		 pop	 ebp
  00007	c3		 ret	 0
??2@YAPAXIPAX@Z ENDP					; operator new
_TEXT	ENDS
PUBLIC	??3@YAXPAX0@Z					; operator delete
; Function compile flags: /Ogsp
;	COMDAT ??3@YAXPAX0@Z
_TEXT	SEGMENT
___formal$ = 8						; size = 4
___formal$ = 12						; size = 4
??3@YAXPAX0@Z PROC					; operator delete, COMDAT

; 62   : 	}

  00000	c3		 ret	 0
??3@YAXPAX0@Z ENDP					; operator delete
_TEXT	ENDS
PUBLIC	?_Adopt@_Iterator_base0@std@@QAEXPBX@Z		; std::_Iterator_base0::_Adopt
; Function compile flags: /Ogsp
; File c:\program files (x86)\microsoft visual studio 10.0\vc\include\xutility
;	COMDAT ?_Adopt@_Iterator_base0@std@@QAEXPBX@Z
_TEXT	SEGMENT
___formal$ = 8						; size = 4
?_Adopt@_Iterator_base0@std@@QAEXPBX@Z PROC		; std::_Iterator_base0::_Adopt, COMDAT
; _this$ = ecx

; 49   : 		}

  00000	c2 04 00	 ret	 4
?_Adopt@_Iterator_base0@std@@QAEXPBX@Z ENDP		; std::_Iterator_base0::_Adopt
_TEXT	ENDS
PUBLIC	?_Getcont@_Iterator_base0@std@@QBEPBU_Container_base0@2@XZ ; std::_Iterator_base0::_Getcont
; Function compile flags: /Ogsp
;	COMDAT ?_Getcont@_Iterator_base0@std@@QBEPBU_Container_base0@2@XZ
_TEXT	SEGMENT
?_Getcont@_Iterator_base0@std@@QBEPBU_Container_base0@2@XZ PROC ; std::_Iterator_base0::_Getcont, COMDAT
; _this$ = ecx

; 53   : 		return (0);

  00000	33 c0		 xor	 eax, eax

; 54   : 		}

  00002	c3		 ret	 0
?_Getcont@_Iterator_base0@std@@QBEPBU_Container_base0@2@XZ ENDP ; std::_Iterator_base0::_Getcont
_TEXT	ENDS
PUBLIC	?iwm_hide@GashaponWnd@@UAEXXZ			; GashaponWnd::iwm_hide
EXTRN	__imp_?StopSound@ioSoundManager@@QAEXABVioHashString@@K@Z:PROC
EXTRN	__imp_?GetSingleton@ioSoundManager@@SAAAV1@XZ:PROC
EXTRN	__imp_?IsEmpty@ioHashString@@QBE_NXZ:PROC
; Function compile flags: /Ogsp
; File d:\lost saga for developer\youtube\tutorial\source\src\lsclient\gui\gashaponwnd.cpp
;	COMDAT ?iwm_hide@GashaponWnd@@UAEXXZ
_TEXT	SEGMENT
?iwm_hide@GashaponWnd@@UAEXXZ PROC			; GashaponWnd::iwm_hide, COMDAT
; _this$ = ecx

; 631  : {

  00000	56		 push	 esi

; 632  : 	if( !m_szRollingSound.IsEmpty() )

  00001	8d b1 b8 83 03
	00		 lea	 esi, DWORD PTR [ecx+230328]
  00007	8b ce		 mov	 ecx, esi
  00009	ff 15 00 00 00
	00		 call	 DWORD PTR __imp_?IsEmpty@ioHashString@@QBE_NXZ
  0000f	84 c0		 test	 al, al
  00011	75 11		 jne	 SHORT $LN1@iwm_hide

; 633  : 	{
; 634  : 		g_SoundMgr.StopSound( m_szRollingSound, 0 );

  00013	6a 00		 push	 0
  00015	56		 push	 esi
  00016	ff 15 00 00 00
	00		 call	 DWORD PTR __imp_?GetSingleton@ioSoundManager@@SAAAV1@XZ
  0001c	8b c8		 mov	 ecx, eax
  0001e	ff 15 00 00 00
	00		 call	 DWORD PTR __imp_?StopSound@ioSoundManager@@QAEXABVioHashString@@K@Z
$LN1@iwm_hide:
  00024	5e		 pop	 esi

; 635  : 	}
; 636  : }

  00025	c3		 ret	 0
?iwm_hide@GashaponWnd@@UAEXXZ ENDP			; GashaponWnd::iwm_hide
_TEXT	ENDS
PUBLIC	?OnResultInfo@GashaponWnd@@QAEXFHHHH_NH@Z	; GashaponWnd::OnResultInfo
; Function compile flags: /Ogsp
;	COMDAT ?OnResultInfo@GashaponWnd@@QAEXFHHHH_NH@Z
_TEXT	SEGMENT
_iPresentType$ = 8					; size = 2
_iPresentValue1$ = 12					; size = 4
_iPresentValue2$ = 16					; size = 4
_iPresentValue3$ = 20					; size = 4
_iPresentValue4$ = 24					; size = 4
_bAlram$ = 28						; size = 1
_iPresentPeso$ = 32					; size = 4
?OnResultInfo@GashaponWnd@@QAEXFHHHH_NH@Z PROC		; GashaponWnd::OnResultInfo, COMDAT
; _this$ = ecx

; 787  : {

  00000	55		 push	 ebp
  00001	8b ec		 mov	 ebp, esp

; 788  : 	m_bResult   = true;
; 789  : 
; 790  : 	m_iPresentType   = iPresentType;

  00003	66 8b 45 08	 mov	 ax, WORD PTR _iPresentType$[ebp]
  00007	66 89 81 6c 83
	03 00		 mov	 WORD PTR [ecx+230252], ax

; 791  : 	m_iPresentValue1 = iPresentValue1;

  0000e	8b 45 0c	 mov	 eax, DWORD PTR _iPresentValue1$[ebp]
  00011	89 81 70 83 03
	00		 mov	 DWORD PTR [ecx+230256], eax

; 792  : 	m_iPresentValue2 = iPresentValue2;

  00017	8b 45 10	 mov	 eax, DWORD PTR _iPresentValue2$[ebp]
  0001a	89 81 74 83 03
	00		 mov	 DWORD PTR [ecx+230260], eax

; 793  : 	m_iPresentValue3 = iPresentValue3;

  00020	8b 45 14	 mov	 eax, DWORD PTR _iPresentValue3$[ebp]
  00023	89 81 78 83 03
	00		 mov	 DWORD PTR [ecx+230264], eax

; 794  : 	m_iPresentValue4 = iPresentValue4;

  00029	8b 45 18	 mov	 eax, DWORD PTR _iPresentValue4$[ebp]
  0002c	89 81 7c 83 03
	00		 mov	 DWORD PTR [ecx+230268], eax

; 795  : 	m_bAlarm         = bAlram;

  00032	8a 45 1c	 mov	 al, BYTE PTR _bAlram$[ebp]
  00035	88 81 80 83 03
	00		 mov	 BYTE PTR [ecx+230272], al

; 796  : 	m_iPresentPeso   = iPresentPeso;

  0003b	8b 45 20	 mov	 eax, DWORD PTR _iPresentPeso$[ebp]
  0003e	c6 81 88 83 03
	00 01		 mov	 BYTE PTR [ecx+230280], 1
  00045	89 81 84 83 03
	00		 mov	 DWORD PTR [ecx+230276], eax

; 797  : }

  0004b	5d		 pop	 ebp
  0004c	c2 1c 00	 ret	 28			; 0000001cH
?OnResultInfo@GashaponWnd@@QAEXFHHHH_NH@Z ENDP		; GashaponWnd::OnResultInfo
_TEXT	ENDS
PUBLIC	?GetGashaponArray@GashaponWnd@@IAEHXZ		; GashaponWnd::GetGashaponArray
; Function compile flags: /Ogsp
;	COMDAT ?GetGashaponArray@GashaponWnd@@IAEHXZ
_TEXT	SEGMENT
?GetGashaponArray@GashaponWnd@@IAEHXZ PROC		; GashaponWnd::GetGashaponArray, COMDAT
; _this$ = ecx

; 1056 : 	if( m_dwEtcItemType == ioEtcItem::EIT_ETC_GASHAPON )

  00000	8b 81 08 a7 04
	00		 mov	 eax, DWORD PTR [ecx+304904]
  00006	3d 56 42 0f 00	 cmp	 eax, 1000022		; 000f4256H

; 1057 : 	{
; 1058 : 		return 0;

  0000b	0f 84 a0 00 00
	00		 je	 $LN1@GetGashapo

; 1059 : 	}
; 1060 : 	else if( COMPARE( m_dwEtcItemType, ioEtcItem::EIT_ETC_GASHAPON2,  ioEtcItem::EIT_ETC_GASHAPON13 + 1) )

  00011	3d 62 42 0f 00	 cmp	 eax, 1000034		; 000f4262H
  00016	72 0d		 jb	 SHORT $LN15@GetGashapo
  00018	3d 6e 42 0f 00	 cmp	 eax, 1000046		; 000f426eH
  0001d	73 06		 jae	 SHORT $LN15@GetGashapo

; 1061 : 	{
; 1062 : 		return 1 + ( m_dwEtcItemType - ioEtcItem::EIT_ETC_GASHAPON2 );

  0001f	05 9f bd f0 ff	 add	 eax, -1000033		; fff0bd9fH

; 1094 : }

  00024	c3		 ret	 0
$LN15@GetGashapo:

; 1063 : 	}
; 1064 : 	else if( COMPARE( m_dwEtcItemType, ioEtcItem::EIT_ETC_GASHAPON14, ioEtcItem::EIT_ETC_GASHAPON53 + 1) )

  00025	3d 75 42 0f 00	 cmp	 eax, 1000053		; 000f4275H
  0002a	72 0d		 jb	 SHORT $LN13@GetGashapo
  0002c	3d 9d 42 0f 00	 cmp	 eax, 1000093		; 000f429dH
  00031	73 06		 jae	 SHORT $LN13@GetGashapo

; 1065 : 	{
; 1066 : 		return 13 + ( m_dwEtcItemType - ioEtcItem::EIT_ETC_GASHAPON14 );

  00033	05 98 bd f0 ff	 add	 eax, -1000040		; fff0bd98H

; 1094 : }

  00038	c3		 ret	 0
$LN13@GetGashapo:

; 1067 : 	}
; 1068 : 	else if( COMPARE( m_dwEtcItemType, ioEtcItem::EIT_ETC_GASHAPON54, ioEtcItem::EIT_ETC_GASHAPON253 + 1 ) )

  00039	3d 4d 44 0f 00	 cmp	 eax, 1000525		; 000f444dH
  0003e	72 0d		 jb	 SHORT $LN11@GetGashapo
  00040	3d 15 45 0f 00	 cmp	 eax, 1000725		; 000f4515H
  00045	73 06		 jae	 SHORT $LN11@GetGashapo

; 1069 : 	{
; 1070 : 		return 53 + ( m_dwEtcItemType - ioEtcItem::EIT_ETC_GASHAPON54 );

  00047	05 e8 bb f0 ff	 add	 eax, -1000472		; fff0bbe8H

; 1094 : }

  0004c	c3		 ret	 0
$LN11@GetGashapo:

; 1071 : 	}
; 1072 : 	else if( COMPARE( m_dwEtcItemType, ioEtcItem::EIT_ETC_ITEM_TIME_GASHAPON1, ioEtcItem::EIT_ETC_ITEM_TIME_GASHAPON100 + 1 ) )

  0004d	3d e9 4c 4c 00	 cmp	 eax, 5000425		; 004c4ce9H
  00052	72 0d		 jb	 SHORT $LN9@GetGashapo
  00054	3d 4d 4d 4c 00	 cmp	 eax, 5000525		; 004c4d4dH
  00059	73 06		 jae	 SHORT $LN9@GetGashapo

; 1073 : 	{
; 1074 : 		return 253 + m_dwEtcItemType - ioEtcItem::EIT_ETC_ITEM_TIME_GASHAPON1 ;

  0005b	05 14 b4 b3 ff	 add	 eax, -5000172		; ffb3b414H

; 1094 : }

  00060	c3		 ret	 0
$LN9@GetGashapo:

; 1075 : 	}
; 1076 : 	else if( COMPARE( m_dwEtcItemType, ioEtcItem::EIT_ETC_GASHAPON254, ioEtcItem::EIT_ETC_GASHAPON553 + 1 ) )

  00061	3d 0a 50 0f 00	 cmp	 eax, 1003530		; 000f500aH
  00066	72 0d		 jb	 SHORT $LN7@GetGashapo
  00068	3d 36 51 0f 00	 cmp	 eax, 1003830		; 000f5136H
  0006d	73 06		 jae	 SHORT $LN7@GetGashapo

; 1077 : 	{
; 1078 : 		return 353 + ( m_dwEtcItemType - ioEtcItem::EIT_ETC_GASHAPON254 );

  0006f	05 57 b1 f0 ff	 add	 eax, -1003177		; fff0b157H

; 1094 : }

  00074	c3		 ret	 0
$LN7@GetGashapo:

; 1079 : 	}
; 1080 : 	else if( COMPARE( m_dwEtcItemType, ioEtcItem::EIT_ETC_ITEM_TIME_GASHAPON101, ioEtcItem::EIT_ETC_ITEM_TIME_GASHAPON300 + 1 ) )

  00075	3d 36 5a 4c 00	 cmp	 eax, 5003830		; 004c5a36H
  0007a	72 0d		 jb	 SHORT $LN5@GetGashapo
  0007c	3d fe 5a 4c 00	 cmp	 eax, 5004030		; 004c5afeH
  00081	73 06		 jae	 SHORT $LN5@GetGashapo

; 1081 : 	{
; 1082 : 		return 653 + ( m_dwEtcItemType - ioEtcItem::EIT_ETC_ITEM_TIME_GASHAPON101 );	

  00083	05 57 a8 b3 ff	 add	 eax, -5003177		; ffb3a857H

; 1094 : }

  00088	c3		 ret	 0
$LN5@GetGashapo:

; 1083 : 	}
; 1084 : 	else if( COMPARE( m_dwEtcItemType, ioEtcItem::EIT_ETC_GASHAPON554, ioEtcItem::EIT_ETC_GASHAPON853 + 1 ) )

  00089	3d 6f 59 0f 00	 cmp	 eax, 1005935		; 000f596fH
  0008e	72 0d		 jb	 SHORT $LN3@GetGashapo
  00090	3d 9b 5a 0f 00	 cmp	 eax, 1006235		; 000f5a9bH
  00095	73 06		 jae	 SHORT $LN3@GetGashapo

; 1085 : 	{
; 1086 : 		return 953 + ( m_dwEtcItemType - ioEtcItem::EIT_ETC_GASHAPON554 );

  00097	05 4a aa f0 ff	 add	 eax, -1004982		; fff0aa4aH

; 1094 : }

  0009c	c3		 ret	 0
$LN3@GetGashapo:

; 1087 : 	}
; 1088 : 	else if( COMPARE( m_dwEtcItemType, ioEtcItem::EIT_ETC_ITEM_TIME_GASHAPON301, ioEtcItem::EIT_ETC_ITEM_TIME_GASHAPON600 + 1 ) )

  0009d	3d 9b 63 4c 00	 cmp	 eax, 5006235		; 004c639bH
  000a2	72 0d		 jb	 SHORT $LN1@GetGashapo
  000a4	3d c7 64 4c 00	 cmp	 eax, 5006535		; 004c64c7H
  000a9	73 06		 jae	 SHORT $LN1@GetGashapo

; 1089 : 	{
; 1090 : 		return 1253 + ( m_dwEtcItemType - ioEtcItem::EIT_ETC_ITEM_TIME_GASHAPON301 );

  000ab	05 4a a1 b3 ff	 add	 eax, -5004982		; ffb3a14aH

; 1094 : }

  000b0	c3		 ret	 0
$LN1@GetGashapo:

; 1091 : 	}
; 1092 : 
; 1093 : 	return 0;

  000b1	33 c0		 xor	 eax, eax

; 1094 : }

  000b3	c3		 ret	 0
?GetGashaponArray@GashaponWnd@@IAEHXZ ENDP		; GashaponWnd::GetGashaponArray
_TEXT	ENDS
PUBLIC	?IsRolling@GashaponWnd@@QAE_NXZ			; GashaponWnd::IsRolling
; Function compile flags: /Ogsp
;	COMDAT ?IsRolling@GashaponWnd@@QAE_NXZ
_TEXT	SEGMENT
?IsRolling@GashaponWnd@@QAE_NXZ PROC			; GashaponWnd::IsRolling, COMDAT
; _this$ = ecx

; 1119 : 	if( m_bResult && !m_bFinalResult )

  00000	80 b9 88 83 03
	00 00		 cmp	 BYTE PTR [ecx+230280], 0
  00007	74 0c		 je	 SHORT $LN1@IsRolling
  00009	80 b9 89 83 03
	00 00		 cmp	 BYTE PTR [ecx+230281], 0
  00010	75 03		 jne	 SHORT $LN1@IsRolling

; 1120 : 		return true;

  00012	b0 01		 mov	 al, 1

; 1123 : }

  00014	c3		 ret	 0
$LN1@IsRolling:

; 1121 : 
; 1122 : 	return false;

  00015	32 c0		 xor	 al, al

; 1123 : }

  00017	c3		 ret	 0
?IsRolling@GashaponWnd@@QAE_NXZ ENDP			; GashaponWnd::IsRolling
_TEXT	ENDS
PUBLIC	??A?$vector@VioHashString@@V?$allocator@VioHashString@@@std@@@std@@QAEAAVioHashString@@I@Z ; std::vector<ioHashString,std::allocator<ioHashString> >::operator[]
; Function compile flags: /Ogsp
; File c:\program files (x86)\microsoft visual studio 10.0\vc\include\vector
;	COMDAT ??A?$vector@VioHashString@@V?$allocator@VioHashString@@@std@@@std@@QAEAAVioHashString@@I@Z
_TEXT	SEGMENT
__Pos$ = 8						; size = 4
??A?$vector@VioHashString@@V?$allocator@VioHashString@@@std@@@std@@QAEAAVioHashString@@I@Z PROC ; std::vector<ioHashString,std::allocator<ioHashString> >::operator[], COMDAT
; _this$ = ecx

; 928  : 		{	// subscript mutable sequence

  00000	55		 push	 ebp
  00001	8b ec		 mov	 ebp, esp

; 929  :  #if _ITERATOR_DEBUG_LEVEL == 2
; 930  : 		if (size() <= _Pos)
; 931  : 			{	// report error
; 932  : 			_DEBUG_ERROR("vector subscript out of range");
; 933  : 			_SCL_SECURE_OUT_OF_RANGE;
; 934  : 			}
; 935  : 
; 936  :  #elif _ITERATOR_DEBUG_LEVEL == 1
; 937  : 		_SCL_SECURE_VALIDATE_RANGE(_Pos < size());
; 938  :  #endif /* _ITERATOR_DEBUG_LEVEL */
; 939  : 
; 940  : 		return (*(this->_Myfirst + _Pos));

  00003	8b 45 08	 mov	 eax, DWORD PTR __Pos$[ebp]
  00006	c1 e0 04	 shl	 eax, 4
  00009	03 01		 add	 eax, DWORD PTR [ecx]

; 941  : 		}

  0000b	5d		 pop	 ebp
  0000c	c2 04 00	 ret	 4
??A?$vector@VioHashString@@V?$allocator@VioHashString@@@std@@@std@@QAEAAVioHashString@@I@Z ENDP ; std::vector<ioHashString,std::allocator<ioHashString> >::operator[]
_TEXT	ENDS
PUBLIC	?GetSingleton@?$Singleton@VioEtcItemManager@@@@SAAAVioEtcItemManager@@XZ ; Singleton<ioEtcItemManager>::GetSingleton
EXTRN	?ms_Singleton@?$Singleton@VioEtcItemManager@@@@1PAVioEtcItemManager@@A:DWORD ; Singleton<ioEtcItemManager>::ms_Singleton
; Function compile flags: /Ogsp
; File d:\lost saga for developer\youtube\tutorial\source\src\io3dengine\iosingleton.h
;	COMDAT ?GetSingleton@?$Singleton@VioEtcItemManager@@@@SAAAVioEtcItemManager@@XZ
_TEXT	SEGMENT
?GetSingleton@?$Singleton@VioEtcItemManager@@@@SAAAVioEtcItemManager@@XZ PROC ; Singleton<ioEtcItemManager>::GetSingleton, COMDAT

; 42   : 		assert( ms_Singleton );
; 43   : 		return (*ms_Singleton);

  00000	a1 00 00 00 00	 mov	 eax, DWORD PTR ?ms_Singleton@?$Singleton@VioEtcItemManager@@@@1PAVioEtcItemManager@@A ; Singleton<ioEtcItemManager>::ms_Singleton

; 44   : 	}

  00005	c3		 ret	 0
?GetSingleton@?$Singleton@VioEtcItemManager@@@@SAAAVioEtcItemManager@@XZ ENDP ; Singleton<ioEtcItemManager>::GetSingleton
_TEXT	ENDS
PUBLIC	?capacity@?$vector@VioHashString@@V?$allocator@VioHashString@@@std@@@std@@QBEIXZ ; std::vector<ioHashString,std::allocator<ioHashString> >::capacity
; Function compile flags: /Ogsp
; File c:\program files (x86)\microsoft visual studio 10.0\vc\include\vector
;	COMDAT ?capacity@?$vector@VioHashString@@V?$allocator@VioHashString@@@std@@@std@@QBEIXZ
_TEXT	SEGMENT
?capacity@?$vector@VioHashString@@V?$allocator@VioHashString@@@std@@@std@@QBEIXZ PROC ; std::vector<ioHashString,std::allocator<ioHashString> >::capacity, COMDAT
; _this$ = ecx

; 777  : 		return (this->_Myend - this->_Myfirst);

  00000	8b 41 08	 mov	 eax, DWORD PTR [ecx+8]
  00003	2b 01		 sub	 eax, DWORD PTR [ecx]
  00005	c1 f8 04	 sar	 eax, 4

; 778  : 		}

  00008	c3		 ret	 0
?capacity@?$vector@VioHashString@@V?$allocator@VioHashString@@@std@@@std@@QBEIXZ ENDP ; std::vector<ioHashString,std::allocator<ioHashString> >::capacity
_TEXT	ENDS
PUBLIC	?_Inside@?$vector@VioHashString@@V?$allocator@VioHashString@@@std@@@std@@IBE_NPBVioHashString@@@Z ; std::vector<ioHashString,std::allocator<ioHashString> >::_Inside
; Function compile flags: /Ogsp
;	COMDAT ?_Inside@?$vector@VioHashString@@V?$allocator@VioHashString@@@std@@@std@@IBE_NPBVioHashString@@@Z
_TEXT	SEGMENT
__Ptr$ = 8						; size = 4
?_Inside@?$vector@VioHashString@@V?$allocator@VioHashString@@@std@@@std@@IBE_NPBVioHashString@@@Z PROC ; std::vector<ioHashString,std::allocator<ioHashString> >::_Inside, COMDAT
; _this$ = ecx

; 1285 : 		{	// test if _Ptr points inside vector

  00000	55		 push	 ebp
  00001	8b ec		 mov	 ebp, esp

; 1286 : 		return (_Ptr < this->_Mylast && this->_Myfirst <= _Ptr);

  00003	8b 45 08	 mov	 eax, DWORD PTR __Ptr$[ebp]
  00006	3b 41 04	 cmp	 eax, DWORD PTR [ecx+4]
  00009	73 09		 jae	 SHORT $LN3@Inside
  0000b	39 01		 cmp	 DWORD PTR [ecx], eax
  0000d	77 05		 ja	 SHORT $LN3@Inside
  0000f	33 c0		 xor	 eax, eax
  00011	40		 inc	 eax
  00012	eb 02		 jmp	 SHORT $LN4@Inside
$LN3@Inside:
  00014	33 c0		 xor	 eax, eax
$LN4@Inside:

; 1287 : 		}

  00016	5d		 pop	 ebp
  00017	c2 04 00	 ret	 4
?_Inside@?$vector@VioHashString@@V?$allocator@VioHashString@@@std@@@std@@IBE_NPBVioHashString@@@Z ENDP ; std::vector<ioHashString,std::allocator<ioHashString> >::_Inside
_TEXT	ENDS
PUBLIC	?_Orphan_range@?$vector@VioHashString@@V?$allocator@VioHashString@@@std@@@std@@IBEXPAVioHashString@@0@Z ; std::vector<ioHashString,std::allocator<ioHashString> >::_Orphan_range
; Function compile flags: /Ogsp
;	COMDAT ?_Orphan_range@?$vector@VioHashString@@V?$allocator@VioHashString@@@std@@@std@@IBEXPAVioHashString@@0@Z
_TEXT	SEGMENT
___formal$ = 8						; size = 4
___formal$ = 12						; size = 4
?_Orphan_range@?$vector@VioHashString@@V?$allocator@VioHashString@@@std@@@std@@IBEXPAVioHashString@@0@Z PROC ; std::vector<ioHashString,std::allocator<ioHashString> >::_Orphan_range, COMDAT
; _this$ = ecx

; 1454 : 		}

  00000	c2 08 00	 ret	 8
?_Orphan_range@?$vector@VioHashString@@V?$allocator@VioHashString@@@std@@@std@@IBEXPAVioHashString@@0@Z ENDP ; std::vector<ioHashString,std::allocator<ioHashString> >::_Orphan_range
_TEXT	ENDS
PUBLIC	?_Inside@?$vector@HV?$allocator@H@std@@@std@@IBE_NPBH@Z ; std::vector<int,std::allocator<int> >::_Inside
; Function compile flags: /Ogsp
;	COMDAT ?_Inside@?$vector@HV?$allocator@H@std@@@std@@IBE_NPBH@Z
_TEXT	SEGMENT
__Ptr$ = 8						; size = 4
?_Inside@?$vector@HV?$allocator@H@std@@@std@@IBE_NPBH@Z PROC ; std::vector<int,std::allocator<int> >::_Inside, COMDAT
; _this$ = ecx

; 1285 : 		{	// test if _Ptr points inside vector

  00000	55		 push	 ebp
  00001	8b ec		 mov	 ebp, esp

; 1286 : 		return (_Ptr < this->_Mylast && this->_Myfirst <= _Ptr);

  00003	8b 45 08	 mov	 eax, DWORD PTR __Ptr$[ebp]
  00006	3b 41 04	 cmp	 eax, DWORD PTR [ecx+4]
  00009	73 09		 jae	 SHORT $LN3@Inside@2
  0000b	39 01		 cmp	 DWORD PTR [ecx], eax
  0000d	77 05		 ja	 SHORT $LN3@Inside@2
  0000f	33 c0		 xor	 eax, eax
  00011	40		 inc	 eax
  00012	eb 02		 jmp	 SHORT $LN4@Inside@2
$LN3@Inside@2:
  00014	33 c0		 xor	 eax, eax
$LN4@Inside@2:

; 1287 : 		}

  00016	5d		 pop	 ebp
  00017	c2 04 00	 ret	 4
?_Inside@?$vector@HV?$allocator@H@std@@@std@@IBE_NPBH@Z ENDP ; std::vector<int,std::allocator<int> >::_Inside
_TEXT	ENDS
PUBLIC	?_Orphan_range@?$vector@HV?$allocator@H@std@@@std@@IBEXPAH0@Z ; std::vector<int,std::allocator<int> >::_Orphan_range
; Function compile flags: /Ogsp
;	COMDAT ?_Orphan_range@?$vector@HV?$allocator@H@std@@@std@@IBEXPAH0@Z
_TEXT	SEGMENT
___formal$ = 8						; size = 4
___formal$ = 12						; size = 4
?_Orphan_range@?$vector@HV?$allocator@H@std@@@std@@IBEXPAH0@Z PROC ; std::vector<int,std::allocator<int> >::_Orphan_range, COMDAT
; _this$ = ecx

; 1454 : 		}

  00000	c2 08 00	 ret	 8
?_Orphan_range@?$vector@HV?$allocator@H@std@@@std@@IBEXPAH0@Z ENDP ; std::vector<int,std::allocator<int> >::_Orphan_range
_TEXT	ENDS
PUBLIC	??0?$allocator@_N@std@@QAE@XZ			; std::allocator<bool>::allocator<bool>
; Function compile flags: /Ogsp
; File c:\program files (x86)\microsoft visual studio 10.0\vc\include\xmemory
;	COMDAT ??0?$allocator@_N@std@@QAE@XZ
_TEXT	SEGMENT
??0?$allocator@_N@std@@QAE@XZ PROC			; std::allocator<bool>::allocator<bool>, COMDAT
; _this$ = ecx

; 161  : 	_ALLOCATOR() _THROW0()

  00000	8b c1		 mov	 eax, ecx

; 162  : 		{	// construct default allocator (do nothing)
; 163  : 		}

  00002	c3		 ret	 0
??0?$allocator@_N@std@@QAE@XZ ENDP			; std::allocator<bool>::allocator<bool>
_TEXT	ENDS
PUBLIC	?_Getptr@?$_Vb_reference@V?$allocator@_N@std@@@std@@QBEPBIXZ ; std::_Vb_reference<std::allocator<bool> >::_Getptr
; Function compile flags: /Ogsp
; File c:\program files (x86)\microsoft visual studio 10.0\vc\include\vector
;	COMDAT ?_Getptr@?$_Vb_reference@V?$allocator@_N@std@@@std@@QBEPBIXZ
_TEXT	SEGMENT
?_Getptr@?$_Vb_reference@V?$allocator@_N@std@@@std@@QBEPBIXZ PROC ; std::_Vb_reference<std::allocator<bool> >::_Getptr, COMDAT
; _this$ = ecx

; 1634 :  #if _ITERATOR_DEBUG_LEVEL == 2
; 1635 : 		if (this->_Getcont() == 0
; 1636 : 			|| this->_Myptr == 0
; 1637 : 			|| 0 <= this->_Valid(0))
; 1638 : 			{	// report error
; 1639 : 			_DEBUG_ERROR("vector<bool> iterator not dereferencable");
; 1640 : 			_SCL_SECURE_OUT_OF_RANGE;
; 1641 : 			}
; 1642 : 
; 1643 :  #elif _ITERATOR_DEBUG_LEVEL == 1
; 1644 : 		_SCL_SECURE_VALIDATE(this->_Getcont() != 0 && this->_Myptr != 0);
; 1645 : 		_SCL_SECURE_VALIDATE_RANGE(this->_Valid(0) < 0);
; 1646 :  #endif /* _ITERATOR_DEBUG_LEVEL */
; 1647 : 
; 1648 : 		return (this->_Myptr);

  00000	8b 01		 mov	 eax, DWORD PTR [ecx]

; 1649 : 		}

  00002	c3		 ret	 0
?_Getptr@?$_Vb_reference@V?$allocator@_N@std@@@std@@QBEPBIXZ ENDP ; std::_Vb_reference<std::allocator<bool> >::_Getptr
_TEXT	ENDS
PUBLIC	?_Mask@?$_Vb_reference@V?$allocator@_N@std@@@std@@IBEIXZ ; std::_Vb_reference<std::allocator<bool> >::_Mask
; Function compile flags: /Ogsp
;	COMDAT ?_Mask@?$_Vb_reference@V?$allocator@_N@std@@@std@@IBEIXZ
_TEXT	SEGMENT
?_Mask@?$_Vb_reference@V?$allocator@_N@std@@@std@@IBEIXZ PROC ; std::_Vb_reference<std::allocator<bool> >::_Mask, COMDAT
; _this$ = ecx

; 1654 : 		return ((_Vbase)(1 << this->_Myoff));

  00000	8b 49 04	 mov	 ecx, DWORD PTR [ecx+4]
  00003	33 c0		 xor	 eax, eax
  00005	40		 inc	 eax
  00006	d3 e0		 shl	 eax, cl

; 1655 : 		}

  00008	c3		 ret	 0
?_Mask@?$_Vb_reference@V?$allocator@_N@std@@@std@@IBEIXZ ENDP ; std::_Vb_reference<std::allocator<bool> >::_Mask
_TEXT	ENDS
PUBLIC	?_Nw@?$_Vb_val@V?$allocator@_N@std@@@std@@SAII@Z ; std::_Vb_val<std::allocator<bool> >::_Nw
; Function compile flags: /Ogsp
;	COMDAT ?_Nw@?$_Vb_val@V?$allocator@_N@std@@@std@@SAII@Z
_TEXT	SEGMENT
__Count$ = 8						; size = 4
?_Nw@?$_Vb_val@V?$allocator@_N@std@@@std@@SAII@Z PROC	; std::_Vb_val<std::allocator<bool> >::_Nw, COMDAT

; 2052 : 		{	// return number of base words from number of bits

  00000	55		 push	 ebp
  00001	8b ec		 mov	 ebp, esp

; 2053 : 		return ((_Count + _VBITS - 1) / _VBITS);

  00003	8b 45 08	 mov	 eax, DWORD PTR __Count$[ebp]
  00006	83 c0 1f	 add	 eax, 31			; 0000001fH
  00009	c1 e8 05	 shr	 eax, 5

; 2054 : 		}

  0000c	5d		 pop	 ebp
  0000d	c3		 ret	 0
?_Nw@?$_Vb_val@V?$allocator@_N@std@@@std@@SAII@Z ENDP	; std::_Vb_val<std::allocator<bool> >::_Nw
_TEXT	ENDS
PUBLIC	??_C@_0BG@EOMJEIFA@vector?$DMbool?$DO?5too?5long?$AA@ ; `string'
PUBLIC	?_Xlen@?$vector@_NV?$allocator@_N@std@@@std@@QBEXXZ ; std::vector<bool,std::allocator<bool> >::_Xlen
EXTRN	__imp_?_Xlength_error@std@@YAXPBD@Z:PROC
;	COMDAT ??_C@_0BG@EOMJEIFA@vector?$DMbool?$DO?5too?5long?$AA@
CONST	SEGMENT
??_C@_0BG@EOMJEIFA@vector?$DMbool?$DO?5too?5long?$AA@ DB 'vector<bool> to'
	DB	'o long', 00H				; `string'
; Function compile flags: /Ogsp
CONST	ENDS
;	COMDAT ?_Xlen@?$vector@_NV?$allocator@_N@std@@@std@@QBEXXZ
_TEXT	SEGMENT
?_Xlen@?$vector@_NV?$allocator@_N@std@@@std@@QBEXXZ PROC ; std::vector<bool,std::allocator<bool> >::_Xlen, COMDAT
; _this$ = ecx

; 2625 : 		_Xlength_error("vector<bool> too long");

  00000	68 00 00 00 00	 push	 OFFSET ??_C@_0BG@EOMJEIFA@vector?$DMbool?$DO?5too?5long?$AA@
  00005	ff 15 00 00 00
	00		 call	 DWORD PTR __imp_?_Xlength_error@std@@YAXPBD@Z
$LN4@Xlen:
$LN3@Xlen:
  0000b	cc		 int	 3
?_Xlen@?$vector@_NV?$allocator@_N@std@@@std@@QBEXXZ ENDP ; std::vector<bool,std::allocator<bool> >::_Xlen
_TEXT	ENDS
PUBLIC	??0?$allocator@I@std@@QAE@ABV01@@Z		; std::allocator<unsigned int>::allocator<unsigned int>
; Function compile flags: /Ogsp
; File c:\program files (x86)\microsoft visual studio 10.0\vc\include\xmemory
;	COMDAT ??0?$allocator@I@std@@QAE@ABV01@@Z
_TEXT	SEGMENT
___formal$ = 8						; size = 4
??0?$allocator@I@std@@QAE@ABV01@@Z PROC			; std::allocator<unsigned int>::allocator<unsigned int>, COMDAT
; _this$ = ecx

; 165  : 	_ALLOCATOR(const _ALLOCATOR<_Ty>&) _THROW0()

  00000	8b c1		 mov	 eax, ecx

; 166  : 		{	// construct by copying (do nothing)
; 167  : 		}

  00002	c2 04 00	 ret	 4
??0?$allocator@I@std@@QAE@ABV01@@Z ENDP			; std::allocator<unsigned int>::allocator<unsigned int>
_TEXT	ENDS
PUBLIC	?size@?$vector@IV?$allocator@I@std@@@std@@QBEIXZ ; std::vector<unsigned int,std::allocator<unsigned int> >::size
; Function compile flags: /Ogsp
; File c:\program files (x86)\microsoft visual studio 10.0\vc\include\vector
;	COMDAT ?size@?$vector@IV?$allocator@I@std@@@std@@QBEIXZ
_TEXT	SEGMENT
?size@?$vector@IV?$allocator@I@std@@@std@@QBEIXZ PROC	; std::vector<unsigned int,std::allocator<unsigned int> >::size, COMDAT
; _this$ = ecx

; 879  : 		return (this->_Mylast - this->_Myfirst);

  00000	8b 41 04	 mov	 eax, DWORD PTR [ecx+4]
  00003	2b 01		 sub	 eax, DWORD PTR [ecx]
  00005	c1 f8 02	 sar	 eax, 2

; 880  : 		}

  00008	c3		 ret	 0
?size@?$vector@IV?$allocator@I@std@@@std@@QBEIXZ ENDP	; std::vector<unsigned int,std::allocator<unsigned int> >::size
_TEXT	ENDS
PUBLIC	??A?$vector@IV?$allocator@I@std@@@std@@QAEAAII@Z ; std::vector<unsigned int,std::allocator<unsigned int> >::operator[]
; Function compile flags: /Ogsp
;	COMDAT ??A?$vector@IV?$allocator@I@std@@@std@@QAEAAII@Z
_TEXT	SEGMENT
__Pos$ = 8						; size = 4
??A?$vector@IV?$allocator@I@std@@@std@@QAEAAII@Z PROC	; std::vector<unsigned int,std::allocator<unsigned int> >::operator[], COMDAT
; _this$ = ecx

; 928  : 		{	// subscript mutable sequence

  00000	55		 push	 ebp
  00001	8b ec		 mov	 ebp, esp

; 929  :  #if _ITERATOR_DEBUG_LEVEL == 2
; 930  : 		if (size() <= _Pos)
; 931  : 			{	// report error
; 932  : 			_DEBUG_ERROR("vector subscript out of range");
; 933  : 			_SCL_SECURE_OUT_OF_RANGE;
; 934  : 			}
; 935  : 
; 936  :  #elif _ITERATOR_DEBUG_LEVEL == 1
; 937  : 		_SCL_SECURE_VALIDATE_RANGE(_Pos < size());
; 938  :  #endif /* _ITERATOR_DEBUG_LEVEL */
; 939  : 
; 940  : 		return (*(this->_Myfirst + _Pos));

  00003	8b 01		 mov	 eax, DWORD PTR [ecx]
  00005	8b 4d 08	 mov	 ecx, DWORD PTR __Pos$[ebp]
  00008	8d 04 88	 lea	 eax, DWORD PTR [eax+ecx*4]

; 941  : 		}

  0000b	5d		 pop	 ebp
  0000c	c2 04 00	 ret	 4
??A?$vector@IV?$allocator@I@std@@@std@@QAEAAII@Z ENDP	; std::vector<unsigned int,std::allocator<unsigned int> >::operator[]
_TEXT	ENDS
PUBLIC	??0?$_Vector_val@IV?$allocator@I@std@@@std@@QAE@V?$allocator@I@1@@Z ; std::_Vector_val<unsigned int,std::allocator<unsigned int> >::_Vector_val<unsigned int,std::allocator<unsigned int> >
; Function compile flags: /Ogsp
;	COMDAT ??0?$_Vector_val@IV?$allocator@I@std@@@std@@QAE@V?$allocator@I@1@@Z
_TEXT	SEGMENT
__Al$ = 8						; size = 1
??0?$_Vector_val@IV?$allocator@I@std@@@std@@QAE@V?$allocator@I@1@@Z PROC ; std::_Vector_val<unsigned int,std::allocator<unsigned int> >::_Vector_val<unsigned int,std::allocator<unsigned int> >, COMDAT
; _this$ = ecx

; 426  : 		{	// construct allocator from _Al

  00000	8b c1		 mov	 eax, ecx

; 427  : 		_Myfirst = 0;

  00002	33 c9		 xor	 ecx, ecx
  00004	89 08		 mov	 DWORD PTR [eax], ecx

; 428  : 		_Mylast = 0;

  00006	89 48 04	 mov	 DWORD PTR [eax+4], ecx

; 429  : 		_Myend = 0;

  00009	89 48 08	 mov	 DWORD PTR [eax+8], ecx

; 430  : 		}

  0000c	c2 04 00	 ret	 4
??0?$_Vector_val@IV?$allocator@I@std@@@std@@QAE@V?$allocator@I@1@@Z ENDP ; std::_Vector_val<unsigned int,std::allocator<unsigned int> >::_Vector_val<unsigned int,std::allocator<unsigned int> >
_TEXT	ENDS
PUBLIC	??1?$_Vector_val@IV?$allocator@I@std@@@std@@QAE@XZ ; std::_Vector_val<unsigned int,std::allocator<unsigned int> >::~_Vector_val<unsigned int,std::allocator<unsigned int> >
; Function compile flags: /Ogsp
;	COMDAT ??1?$_Vector_val@IV?$allocator@I@std@@@std@@QAE@XZ
_TEXT	SEGMENT
??1?$_Vector_val@IV?$allocator@I@std@@@std@@QAE@XZ PROC	; std::_Vector_val<unsigned int,std::allocator<unsigned int> >::~_Vector_val<unsigned int,std::allocator<unsigned int> >, COMDAT
; _this$ = ecx

; 434  : 		}

  00000	c3		 ret	 0
??1?$_Vector_val@IV?$allocator@I@std@@@std@@QAE@XZ ENDP	; std::_Vector_val<unsigned int,std::allocator<unsigned int> >::~_Vector_val<unsigned int,std::allocator<unsigned int> >
_TEXT	ENDS
PUBLIC	??0?$_Vb_iter_base@V?$allocator@_N@std@@@std@@QAE@PBIIPBU_Container_base0@1@@Z ; std::_Vb_iter_base<std::allocator<bool> >::_Vb_iter_base<std::allocator<bool> >
; Function compile flags: /Ogsp
;	COMDAT ??0?$_Vb_iter_base@V?$allocator@_N@std@@@std@@QAE@PBIIPBU_Container_base0@1@@Z
_TEXT	SEGMENT
__Ptr$ = 8						; size = 4
__Off$ = 12						; size = 4
__Mypvbool$ = 16					; size = 4
??0?$_Vb_iter_base@V?$allocator@_N@std@@@std@@QAE@PBIIPBU_Container_base0@1@@Z PROC ; std::_Vb_iter_base<std::allocator<bool> >::_Vb_iter_base<std::allocator<bool> >, COMDAT
; _this$ = ecx

; 1561 : 		{	// construct with offset and pointer

  00000	55		 push	 ebp
  00001	8b ec		 mov	 ebp, esp
  00003	8b c1		 mov	 eax, ecx
  00005	8b 4d 08	 mov	 ecx, DWORD PTR __Ptr$[ebp]
  00008	89 08		 mov	 DWORD PTR [eax], ecx
  0000a	8b 4d 0c	 mov	 ecx, DWORD PTR __Off$[ebp]
  0000d	89 48 04	 mov	 DWORD PTR [eax+4], ecx

; 1562 : 		this->_Adopt(_Mypvbool);
; 1563 : 		}

  00010	5d		 pop	 ebp
  00011	c2 0c 00	 ret	 12			; 0000000cH
??0?$_Vb_iter_base@V?$allocator@_N@std@@@std@@QAE@PBIIPBU_Container_base0@1@@Z ENDP ; std::_Vb_iter_base<std::allocator<bool> >::_Vb_iter_base<std::allocator<bool> >
_TEXT	ENDS
PUBLIC	??0?$_Vb_const_iterator@V?$allocator@_N@std@@@std@@QAE@PBIPBU_Container_base0@1@@Z ; std::_Vb_const_iterator<std::allocator<bool> >::_Vb_const_iterator<std::allocator<bool> >
; Function compile flags: /Ogsp
;	COMDAT ??0?$_Vb_const_iterator@V?$allocator@_N@std@@@std@@QAE@PBIPBU_Container_base0@1@@Z
_TEXT	SEGMENT
__Ptr$ = 8						; size = 4
__Mypvbool$ = 12					; size = 4
??0?$_Vb_const_iterator@V?$allocator@_N@std@@@std@@QAE@PBIPBU_Container_base0@1@@Z PROC ; std::_Vb_const_iterator<std::allocator<bool> >::_Vb_const_iterator<std::allocator<bool> >, COMDAT
; _this$ = ecx

; 1692 : 		{	// construct with offset and pointer

  00000	55		 push	 ebp
  00001	8b ec		 mov	 ebp, esp
  00003	8b c1		 mov	 eax, ecx
  00005	8b 4d 08	 mov	 ecx, DWORD PTR __Ptr$[ebp]
  00008	83 60 04 00	 and	 DWORD PTR [eax+4], 0
  0000c	89 08		 mov	 DWORD PTR [eax], ecx

; 1693 : 		}

  0000e	5d		 pop	 ebp
  0000f	c2 08 00	 ret	 8
??0?$_Vb_const_iterator@V?$allocator@_N@std@@@std@@QAE@PBIPBU_Container_base0@1@@Z ENDP ; std::_Vb_const_iterator<std::allocator<bool> >::_Vb_const_iterator<std::allocator<bool> >
_TEXT	ENDS
PUBLIC	??Y?$_Vb_const_iterator@V?$allocator@_N@std@@@std@@QAEAAV01@H@Z ; std::_Vb_const_iterator<std::allocator<bool> >::operator+=
; Function compile flags: /Ogsp
;	COMDAT ??Y?$_Vb_const_iterator@V?$allocator@_N@std@@@std@@QAEAAV01@H@Z
_TEXT	SEGMENT
__Off$ = 8						; size = 4
??Y?$_Vb_const_iterator@V?$allocator@_N@std@@@std@@QAEAAV01@H@Z PROC ; std::_Vb_const_iterator<std::allocator<bool> >::operator+=, COMDAT
; _this$ = ecx

; 1727 : 		{	// increment by integer

  00000	55		 push	 ebp
  00001	8b ec		 mov	 ebp, esp
  00003	8b c1		 mov	 eax, ecx

; 1728 : 		if (_Off < 0 && this->_Myoff < 0 - (size_type)_Off)

  00005	8b 4d 08	 mov	 ecx, DWORD PTR __Off$[ebp]
  00008	56		 push	 esi
  00009	85 c9		 test	 ecx, ecx
  0000b	79 21		 jns	 SHORT $LN2@operator
  0000d	8b 50 04	 mov	 edx, DWORD PTR [eax+4]
  00010	8b f1		 mov	 esi, ecx
  00012	f7 de		 neg	 esi
  00014	3b d6		 cmp	 edx, esi
  00016	73 16		 jae	 SHORT $LN2@operator

; 1729 : 			{	/* add negative increment */
; 1730 : 			this->_Myoff += _Off;

  00018	03 ca		 add	 ecx, edx

; 1731 : 			this->_Myptr -= 1 + ((size_type)(-1) - this->_Myoff) / _VBITS;

  0001a	83 ca ff	 or	 edx, -1
  0001d	2b d1		 sub	 edx, ecx
  0001f	c1 ea 05	 shr	 edx, 5
  00022	6a fc		 push	 -4			; fffffffcH
  00024	c1 e2 02	 shl	 edx, 2
  00027	5e		 pop	 esi
  00028	2b f2		 sub	 esi, edx
  0002a	01 30		 add	 DWORD PTR [eax], esi

; 1732 : 			this->_Myoff %= _VBITS;
; 1733 : 			}
; 1734 : 		else

  0002c	eb 0d		 jmp	 SHORT $LN5@operator
$LN2@operator:

; 1735 : 			{	/* add non-negative increment */
; 1736 : 			this->_Myoff += _Off;

  0002e	03 48 04	 add	 ecx, DWORD PTR [eax+4]

; 1737 : 			this->_Myptr += this->_Myoff / _VBITS;

  00031	8b d1		 mov	 edx, ecx
  00033	c1 ea 05	 shr	 edx, 5
  00036	c1 e2 02	 shl	 edx, 2
  00039	01 10		 add	 DWORD PTR [eax], edx
$LN5@operator:

; 1738 : 			this->_Myoff %= _VBITS;

  0003b	83 e1 1f	 and	 ecx, 31			; 0000001fH
  0003e	89 48 04	 mov	 DWORD PTR [eax+4], ecx
  00041	5e		 pop	 esi

; 1739 : 			}
; 1740 : 		return (*this);
; 1741 : 		}

  00042	5d		 pop	 ebp
  00043	c2 04 00	 ret	 4
??Y?$_Vb_const_iterator@V?$allocator@_N@std@@@std@@QAEAAV01@H@Z ENDP ; std::_Vb_const_iterator<std::allocator<bool> >::operator+=
_TEXT	ENDS
PUBLIC	?_Compat@?$_Vb_const_iterator@V?$allocator@_N@std@@@std@@QBEXABV12@@Z ; std::_Vb_const_iterator<std::allocator<bool> >::_Compat
; Function compile flags: /Ogsp
;	COMDAT ?_Compat@?$_Vb_const_iterator@V?$allocator@_N@std@@@std@@QBEXABV12@@Z
_TEXT	SEGMENT
___formal$ = 8						; size = 4
?_Compat@?$_Vb_const_iterator@V?$allocator@_N@std@@@std@@QBEXABV12@@Z PROC ; std::_Vb_const_iterator<std::allocator<bool> >::_Compat, COMDAT
; _this$ = ecx

; 1827 : 		}

  00000	c2 04 00	 ret	 4
?_Compat@?$_Vb_const_iterator@V?$allocator@_N@std@@@std@@QBEXABV12@@Z ENDP ; std::_Vb_const_iterator<std::allocator<bool> >::_Compat
_TEXT	ENDS
PUBLIC	?size@?$vector@_NV?$allocator@_N@std@@@std@@QBEIXZ ; std::vector<bool,std::allocator<bool> >::size
; Function compile flags: /Ogsp
;	COMDAT ?size@?$vector@_NV?$allocator@_N@std@@@std@@QBEIXZ
_TEXT	SEGMENT
?size@?$vector@_NV?$allocator@_N@std@@@std@@QBEIXZ PROC	; std::vector<bool,std::allocator<bool> >::size, COMDAT
; _this$ = ecx

; 2297 : 		return (this->_Mysize);

  00000	8b 41 10	 mov	 eax, DWORD PTR [ecx+16]

; 2298 : 		}

  00003	c3		 ret	 0
?size@?$vector@_NV?$allocator@_N@std@@@std@@QBEIXZ ENDP	; std::vector<bool,std::allocator<bool> >::size
_TEXT	ENDS
PUBLIC	?deallocate@?$allocator@I@std@@QAEXPAII@Z	; std::allocator<unsigned int>::deallocate
; Function compile flags: /Ogsp
; File c:\program files (x86)\microsoft visual studio 10.0\vc\include\xmemory
;	COMDAT ?deallocate@?$allocator@I@std@@QAEXPAII@Z
_TEXT	SEGMENT
__Ptr$ = 8						; size = 4
___formal$ = 12						; size = 4
?deallocate@?$allocator@I@std@@QAEXPAII@Z PROC		; std::allocator<unsigned int>::deallocate, COMDAT
; _this$ = ecx

; 181  : 		{	// deallocate object at _Ptr, ignore size

  00000	55		 push	 ebp
  00001	8b ec		 mov	 ebp, esp

; 182  : 		::operator delete(_Ptr);

  00003	ff 75 08	 push	 DWORD PTR __Ptr$[ebp]
  00006	e8 00 00 00 00	 call	 ??3@YAXPAX@Z		; operator delete
  0000b	59		 pop	 ecx

; 183  : 		}

  0000c	5d		 pop	 ebp
  0000d	c2 08 00	 ret	 8
?deallocate@?$allocator@I@std@@QAEXPAII@Z ENDP		; std::allocator<unsigned int>::deallocate
_TEXT	ENDS
PUBLIC	?max_size@?$allocator@I@std@@QBEIXZ		; std::allocator<unsigned int>::max_size
; Function compile flags: /Ogsp
;	COMDAT ?max_size@?$allocator@I@std@@QBEIXZ
_TEXT	SEGMENT
?max_size@?$allocator@I@std@@QBEIXZ PROC		; std::allocator<unsigned int>::max_size, COMDAT
; _this$ = ecx

; 218  : 		_SIZT _Count = (_SIZT)(-1) / sizeof (_Ty);
; 219  : 		return (0 < _Count ? _Count : 1);

  00000	b8 ff ff ff 3f	 mov	 eax, 1073741823		; 3fffffffH

; 220  : 		}

  00005	c3		 ret	 0
?max_size@?$allocator@I@std@@QBEIXZ ENDP		; std::allocator<unsigned int>::max_size
_TEXT	ENDS
PUBLIC	??_C@_0BD@OLBABOEK@vector?$DMT?$DO?5too?5long?$AA@ ; `string'
PUBLIC	?_Xlen@?$vector@IV?$allocator@I@std@@@std@@IBEXXZ ; std::vector<unsigned int,std::allocator<unsigned int> >::_Xlen
;	COMDAT ??_C@_0BD@OLBABOEK@vector?$DMT?$DO?5too?5long?$AA@
; File c:\program files (x86)\microsoft visual studio 10.0\vc\include\vector
CONST	SEGMENT
??_C@_0BD@OLBABOEK@vector?$DMT?$DO?5too?5long?$AA@ DB 'vector<T> too long'
	DB	00H						; `string'
; Function compile flags: /Ogsp
CONST	ENDS
;	COMDAT ?_Xlen@?$vector@IV?$allocator@I@std@@@std@@IBEXXZ
_TEXT	SEGMENT
?_Xlen@?$vector@IV?$allocator@I@std@@@std@@IBEXXZ PROC	; std::vector<unsigned int,std::allocator<unsigned int> >::_Xlen, COMDAT
; _this$ = ecx

; 1427 : 		_Xlength_error("vector<T> too long");

  00000	68 00 00 00 00	 push	 OFFSET ??_C@_0BD@OLBABOEK@vector?$DMT?$DO?5too?5long?$AA@
  00005	ff 15 00 00 00
	00		 call	 DWORD PTR __imp_?_Xlength_error@std@@YAXPBD@Z
$LN4@Xlen@2:
$LN3@Xlen@2:
  0000b	cc		 int	 3
?_Xlen@?$vector@IV?$allocator@I@std@@@std@@IBEXXZ ENDP	; std::vector<unsigned int,std::allocator<unsigned int> >::_Xlen
_TEXT	ENDS
PUBLIC	??0?$_Vector_const_iterator@V?$_Vector_val@IV?$allocator@I@std@@@std@@@std@@QAE@PAIPBU_Container_base0@1@@Z ; std::_Vector_const_iterator<std::_Vector_val<unsigned int,std::allocator<unsigned int> > >::_Vector_const_iterator<std::_Vector_val<unsigned int,std::allocator<unsigned int> > >
; Function compile flags: /Ogsp
;	COMDAT ??0?$_Vector_const_iterator@V?$_Vector_val@IV?$allocator@I@std@@@std@@@std@@QAE@PAIPBU_Container_base0@1@@Z
_TEXT	SEGMENT
__Parg$ = 8						; size = 4
__Pvector$ = 12						; size = 4
??0?$_Vector_const_iterator@V?$_Vector_val@IV?$allocator@I@std@@@std@@@std@@QAE@PAIPBU_Container_base0@1@@Z PROC ; std::_Vector_const_iterator<std::_Vector_val<unsigned int,std::allocator<unsigned int> > >::_Vector_const_iterator<std::_Vector_val<unsigned int,std::allocator<unsigned int> > >, COMDAT
; _this$ = ecx

; 45   : 		{	// construct with pointer _Parg

  00000	55		 push	 ebp
  00001	8b ec		 mov	 ebp, esp
  00003	8b c1		 mov	 eax, ecx
  00005	8b 4d 08	 mov	 ecx, DWORD PTR __Parg$[ebp]
  00008	89 08		 mov	 DWORD PTR [eax], ecx

; 46   : 		this->_Adopt(_Pvector);
; 47   : 		}

  0000a	5d		 pop	 ebp
  0000b	c2 08 00	 ret	 8
??0?$_Vector_const_iterator@V?$_Vector_val@IV?$allocator@I@std@@@std@@@std@@QAE@PAIPBU_Container_base0@1@@Z ENDP ; std::_Vector_const_iterator<std::_Vector_val<unsigned int,std::allocator<unsigned int> > >::_Vector_const_iterator<std::_Vector_val<unsigned int,std::allocator<unsigned int> > >
_TEXT	ENDS
PUBLIC	??Y?$_Vector_const_iterator@V?$_Vector_val@IV?$allocator@I@std@@@std@@@std@@QAEAAV01@H@Z ; std::_Vector_const_iterator<std::_Vector_val<unsigned int,std::allocator<unsigned int> > >::operator+=
; Function compile flags: /Ogsp
;	COMDAT ??Y?$_Vector_const_iterator@V?$_Vector_val@IV?$allocator@I@std@@@std@@@std@@QAEAAV01@H@Z
_TEXT	SEGMENT
__Off$ = 8						; size = 4
??Y?$_Vector_const_iterator@V?$_Vector_val@IV?$allocator@I@std@@@std@@@std@@QAEAAV01@H@Z PROC ; std::_Vector_const_iterator<std::_Vector_val<unsigned int,std::allocator<unsigned int> > >::operator+=, COMDAT
; _this$ = ecx

; 151  : 		{	// increment by integer

  00000	55		 push	 ebp
  00001	8b ec		 mov	 ebp, esp
  00003	8b c1		 mov	 eax, ecx

; 152  :  #if _ITERATOR_DEBUG_LEVEL == 2
; 153  : 		if (this->_Getcont() == 0
; 154  : 			|| this->_Ptr + _Off < ((_Myvec *)this->_Getcont())->_Myfirst
; 155  : 			|| ((_Myvec *)this->_Getcont())->_Mylast < this->_Ptr + _Off)
; 156  : 			{	// report error
; 157  : 			_DEBUG_ERROR("vector iterator + offset out of range");
; 158  : 			_SCL_SECURE_OUT_OF_RANGE;
; 159  : 			}
; 160  : 
; 161  :  #elif _ITERATOR_DEBUG_LEVEL == 1
; 162  : 		_SCL_SECURE_VALIDATE(this->_Getcont() != 0);
; 163  : 		_SCL_SECURE_VALIDATE_RANGE(
; 164  : 			((_Myvec *)this->_Getcont())->_Myfirst <= this->_Ptr + _Off
; 165  : 			&& this->_Ptr + _Off <= ((_Myvec *)this->_Getcont())->_Mylast);
; 166  :  #endif /* _ITERATOR_DEBUG_LEVEL */
; 167  : 
; 168  : 		_Ptr += _Off;

  00005	8b 4d 08	 mov	 ecx, DWORD PTR __Off$[ebp]
  00008	c1 e1 02	 shl	 ecx, 2
  0000b	01 08		 add	 DWORD PTR [eax], ecx

; 169  : 		return (*this);
; 170  : 		}

  0000d	5d		 pop	 ebp
  0000e	c2 04 00	 ret	 4
??Y?$_Vector_const_iterator@V?$_Vector_val@IV?$allocator@I@std@@@std@@@std@@QAEAAV01@H@Z ENDP ; std::_Vector_const_iterator<std::_Vector_val<unsigned int,std::allocator<unsigned int> > >::operator+=
_TEXT	ENDS
PUBLIC	?capacity@?$vector@IV?$allocator@I@std@@@std@@QBEIXZ ; std::vector<unsigned int,std::allocator<unsigned int> >::capacity
; Function compile flags: /Ogsp
;	COMDAT ?capacity@?$vector@IV?$allocator@I@std@@@std@@QBEIXZ
_TEXT	SEGMENT
?capacity@?$vector@IV?$allocator@I@std@@@std@@QBEIXZ PROC ; std::vector<unsigned int,std::allocator<unsigned int> >::capacity, COMDAT
; _this$ = ecx

; 777  : 		return (this->_Myend - this->_Myfirst);

  00000	8b 41 08	 mov	 eax, DWORD PTR [ecx+8]
  00003	2b 01		 sub	 eax, DWORD PTR [ecx]
  00005	c1 f8 02	 sar	 eax, 2

; 778  : 		}

  00008	c3		 ret	 0
?capacity@?$vector@IV?$allocator@I@std@@@std@@QBEIXZ ENDP ; std::vector<unsigned int,std::allocator<unsigned int> >::capacity
_TEXT	ENDS
PUBLIC	?_Orphan_range@?$vector@IV?$allocator@I@std@@@std@@IBEXPAI0@Z ; std::vector<unsigned int,std::allocator<unsigned int> >::_Orphan_range
; Function compile flags: /Ogsp
;	COMDAT ?_Orphan_range@?$vector@IV?$allocator@I@std@@@std@@IBEXPAI0@Z
_TEXT	SEGMENT
___formal$ = 8						; size = 4
___formal$ = 12						; size = 4
?_Orphan_range@?$vector@IV?$allocator@I@std@@@std@@IBEXPAI0@Z PROC ; std::vector<unsigned int,std::allocator<unsigned int> >::_Orphan_range, COMDAT
; _this$ = ecx

; 1454 : 		}

  00000	c2 08 00	 ret	 8
?_Orphan_range@?$vector@IV?$allocator@I@std@@@std@@IBEXPAI0@Z ENDP ; std::vector<unsigned int,std::allocator<unsigned int> >::_Orphan_range
_TEXT	ENDS
PUBLIC	?_Compat@?$_Vector_const_iterator@V?$_Vector_val@IV?$allocator@I@std@@@std@@@std@@QBEXABV12@@Z ; std::_Vector_const_iterator<std::_Vector_val<unsigned int,std::allocator<unsigned int> > >::_Compat
; Function compile flags: /Ogsp
;	COMDAT ?_Compat@?$_Vector_const_iterator@V?$_Vector_val@IV?$allocator@I@std@@@std@@@std@@QBEXABV12@@Z
_TEXT	SEGMENT
___formal$ = 8						; size = 4
?_Compat@?$_Vector_const_iterator@V?$_Vector_val@IV?$allocator@I@std@@@std@@@std@@QBEXABV12@@Z PROC ; std::_Vector_const_iterator<std::_Vector_val<unsigned int,std::allocator<unsigned int> > >::_Compat, COMDAT
; _this$ = ecx

; 253  : 		}

  00000	c2 04 00	 ret	 4
?_Compat@?$_Vector_const_iterator@V?$_Vector_val@IV?$allocator@I@std@@@std@@@std@@QBEXABV12@@Z ENDP ; std::_Vector_const_iterator<std::_Vector_val<unsigned int,std::allocator<unsigned int> > >::_Compat
_TEXT	ENDS
PUBLIC	??$addressof@$$CBVioHashString@@@std@@YAPBVioHashString@@ABV1@@Z ; std::addressof<ioHashString const >
; Function compile flags: /Ogsp
; File c:\program files (x86)\microsoft visual studio 10.0\vc\include\xmemory
;	COMDAT ??$addressof@$$CBVioHashString@@@std@@YAPBVioHashString@@ABV1@@Z
_TEXT	SEGMENT
__Val$ = 8						; size = 4
??$addressof@$$CBVioHashString@@@std@@YAPBVioHashString@@ABV1@@Z PROC ; std::addressof<ioHashString const >, COMDAT

; 110  : 	{	// return address of _Val

  00000	55		 push	 ebp
  00001	8b ec		 mov	 ebp, esp

; 111  : 	return ((_Ty *) &(char&)_Val);

  00003	8b 45 08	 mov	 eax, DWORD PTR __Val$[ebp]

; 112  : 	}

  00006	5d		 pop	 ebp
  00007	c3		 ret	 0
??$addressof@$$CBVioHashString@@@std@@YAPBVioHashString@@ABV1@@Z ENDP ; std::addressof<ioHashString const >
_TEXT	ENDS
PUBLIC	??$addressof@H@std@@YAPAHAAH@Z			; std::addressof<int>
; Function compile flags: /Ogsp
;	COMDAT ??$addressof@H@std@@YAPAHAAH@Z
_TEXT	SEGMENT
__Val$ = 8						; size = 4
??$addressof@H@std@@YAPAHAAH@Z PROC			; std::addressof<int>, COMDAT

; 110  : 	{	// return address of _Val

  00000	55		 push	 ebp
  00001	8b ec		 mov	 ebp, esp

; 111  : 	return ((_Ty *) &(char&)_Val);

  00003	8b 45 08	 mov	 eax, DWORD PTR __Val$[ebp]

; 112  : 	}

  00006	5d		 pop	 ebp
  00007	c3		 ret	 0
??$addressof@H@std@@YAPAHAAH@Z ENDP			; std::addressof<int>
_TEXT	ENDS
PUBLIC	??$addressof@$$CBH@std@@YAPBHABH@Z		; std::addressof<int const >
; Function compile flags: /Ogsp
;	COMDAT ??$addressof@$$CBH@std@@YAPBHABH@Z
_TEXT	SEGMENT
__Val$ = 8						; size = 4
??$addressof@$$CBH@std@@YAPBHABH@Z PROC			; std::addressof<int const >, COMDAT

; 110  : 	{	// return address of _Val

  00000	55		 push	 ebp
  00001	8b ec		 mov	 ebp, esp

; 111  : 	return ((_Ty *) &(char&)_Val);

  00003	8b 45 08	 mov	 eax, DWORD PTR __Val$[ebp]

; 112  : 	}

  00006	5d		 pop	 ebp
  00007	c3		 ret	 0
??$addressof@$$CBH@std@@YAPBHABH@Z ENDP			; std::addressof<int const >
_TEXT	ENDS
PUBLIC	??$?0_N@?$allocator@I@std@@QAE@ABV?$allocator@_N@1@@Z ; std::allocator<unsigned int>::allocator<unsigned int><bool>
; Function compile flags: /Ogsp
;	COMDAT ??$?0_N@?$allocator@I@std@@QAE@ABV?$allocator@_N@1@@Z
_TEXT	SEGMENT
___formal$ = 8						; size = 4
??$?0_N@?$allocator@I@std@@QAE@ABV?$allocator@_N@1@@Z PROC ; std::allocator<unsigned int>::allocator<unsigned int><bool>, COMDAT
; _this$ = ecx

; 170  : 		_ALLOCATOR(const _ALLOCATOR<_Other>&) _THROW0()

  00000	8b c1		 mov	 eax, ecx

; 171  : 		{	// construct from a related allocator (do nothing)
; 172  : 		}

  00002	c2 04 00	 ret	 4
??$?0_N@?$allocator@I@std@@QAE@ABV?$allocator@_N@1@@Z ENDP ; std::allocator<unsigned int>::allocator<unsigned int><bool>
_TEXT	ENDS
PUBLIC	??$addressof@$$CBI@std@@YAPBIABI@Z		; std::addressof<unsigned int const >
; Function compile flags: /Ogsp
;	COMDAT ??$addressof@$$CBI@std@@YAPBIABI@Z
_TEXT	SEGMENT
__Val$ = 8						; size = 4
??$addressof@$$CBI@std@@YAPBIABI@Z PROC			; std::addressof<unsigned int const >, COMDAT

; 110  : 	{	// return address of _Val

  00000	55		 push	 ebp
  00001	8b ec		 mov	 ebp, esp

; 111  : 	return ((_Ty *) &(char&)_Val);

  00003	8b 45 08	 mov	 eax, DWORD PTR __Val$[ebp]

; 112  : 	}

  00006	5d		 pop	 ebp
  00007	c3		 ret	 0
??$addressof@$$CBI@std@@YAPBIABI@Z ENDP			; std::addressof<unsigned int const >
_TEXT	ENDS
PUBLIC	__TI2?AVbad_alloc@std@@
PUBLIC	??$_Allocate@I@std@@YAPAIIPAI@Z			; std::_Allocate<unsigned int>
PUBLIC	__CTA2?AVbad_alloc@std@@
PUBLIC	__CT??_R0?AVbad_alloc@std@@@8??0bad_alloc@std@@QAE@ABV01@@Z12
PUBLIC	??0bad_alloc@std@@QAE@ABV01@@Z			; std::bad_alloc::bad_alloc
PUBLIC	__CT??_R0?AVexception@std@@@8??0exception@std@@QAE@ABV01@@Z12
EXTRN	??2@YAPAXI@Z:PROC				; operator new
EXTRN	__CxxThrowException@8:PROC
EXTRN	??0exception@std@@QAE@ABV01@@Z:PROC		; std::exception::exception
;	COMDAT __CT??_R0?AVexception@std@@@8??0exception@std@@QAE@ABV01@@Z12
; File c:\program files (x86)\microsoft visual studio 10.0\vc\include\exception
xdata$x	SEGMENT
__CT??_R0?AVexception@std@@@8??0exception@std@@QAE@ABV01@@Z12 DD 00H
	DD	FLAT:??_R0?AVexception@std@@@8
	DD	00H
	DD	0ffffffffH
	ORG $+4
	DD	0cH
	DD	FLAT:??0exception@std@@QAE@ABV01@@Z
xdata$x	ENDS
;	COMDAT __CT??_R0?AVbad_alloc@std@@@8??0bad_alloc@std@@QAE@ABV01@@Z12
xdata$x	SEGMENT
__CT??_R0?AVbad_alloc@std@@@8??0bad_alloc@std@@QAE@ABV01@@Z12 DD 00H
	DD	FLAT:??_R0?AVbad_alloc@std@@@8
	DD	00H
	DD	0ffffffffH
	ORG $+4
	DD	0cH
	DD	FLAT:??0bad_alloc@std@@QAE@ABV01@@Z
xdata$x	ENDS
;	COMDAT __CTA2?AVbad_alloc@std@@
xdata$x	SEGMENT
__CTA2?AVbad_alloc@std@@ DD 02H
	DD	FLAT:__CT??_R0?AVbad_alloc@std@@@8??0bad_alloc@std@@QAE@ABV01@@Z12
	DD	FLAT:__CT??_R0?AVexception@std@@@8??0exception@std@@QAE@ABV01@@Z12
xdata$x	ENDS
;	COMDAT __TI2?AVbad_alloc@std@@
xdata$x	SEGMENT
__TI2?AVbad_alloc@std@@ DD 00H
	DD	FLAT:??1bad_alloc@std@@UAE@XZ
	DD	00H
	DD	FLAT:__CTA2?AVbad_alloc@std@@
; Function compile flags: /Ogsp
; File c:\program files (x86)\microsoft visual studio 10.0\vc\include\xmemory
xdata$x	ENDS
;	COMDAT ??$_Allocate@I@std@@YAPAIIPAI@Z
_TEXT	SEGMENT
$T519930 = -12						; size = 12
$T519935 = 8						; size = 4
__Count$ = 8						; size = 4
___formal$ = 12						; size = 4
??$_Allocate@I@std@@YAPAIIPAI@Z PROC			; std::_Allocate<unsigned int>, COMDAT

; 30   : 	{	// allocate storage for _Count elements of type _Ty

  00000	55		 push	 ebp
  00001	8b ec		 mov	 ebp, esp

; 31   : 	void *_Ptr = 0;
; 32   : 
; 33   : 	if (_Count <= 0)

  00003	8b 4d 08	 mov	 ecx, DWORD PTR __Count$[ebp]
  00006	83 ec 0c	 sub	 esp, 12			; 0000000cH
  00009	33 c0		 xor	 eax, eax
  0000b	85 c9		 test	 ecx, ecx

; 34   : 		_Count = 0;
; 35   : 	else if (((_SIZT)(-1) / sizeof (_Ty) < _Count)

  0000d	74 3e		 je	 SHORT $LN5@Allocate

; 36   : 		|| (_Ptr = ::operator new(_Count * sizeof (_Ty))) == 0)

  0000f	81 f9 ff ff ff
	3f		 cmp	 ecx, 1073741823		; 3fffffffH
  00015	77 10		 ja	 SHORT $LN1@Allocate
  00017	8b c1		 mov	 eax, ecx
  00019	c1 e0 02	 shl	 eax, 2
  0001c	50		 push	 eax
  0001d	e8 00 00 00 00	 call	 ??2@YAPAXI@Z		; operator new
  00022	59		 pop	 ecx
  00023	85 c0		 test	 eax, eax

; 38   : 
; 39   : 	return ((_Ty _FARQ *)_Ptr);

  00025	75 26		 jne	 SHORT $LN5@Allocate
$LN1@Allocate:

; 37   : 		_THROW_NCEE(bad_alloc, 0);

  00027	83 65 08 00	 and	 DWORD PTR $T519935[ebp], 0
  0002b	8d 45 08	 lea	 eax, DWORD PTR $T519935[ebp]
  0002e	50		 push	 eax
  0002f	8d 4d f4	 lea	 ecx, DWORD PTR $T519930[ebp]
  00032	ff 15 00 00 00
	00		 call	 DWORD PTR __imp_??0exception@std@@QAE@ABQBD@Z
  00038	68 00 00 00 00	 push	 OFFSET __TI2?AVbad_alloc@std@@
  0003d	8d 45 f4	 lea	 eax, DWORD PTR $T519930[ebp]
  00040	50		 push	 eax
  00041	c7 45 f4 00 00
	00 00		 mov	 DWORD PTR $T519930[ebp], OFFSET ??_7bad_alloc@std@@6B@
  00048	e8 00 00 00 00	 call	 __CxxThrowException@8
$LN10@Allocate:
$LN5@Allocate:

; 40   : 	}

  0004d	c9		 leave
  0004e	c3		 ret	 0
$LN9@Allocate:
??$_Allocate@I@std@@YAPAIIPAI@Z ENDP			; std::_Allocate<unsigned int>
_TEXT	ENDS
PUBLIC	??$addressof@I@std@@YAPAIAAI@Z			; std::addressof<unsigned int>
; Function compile flags: /Ogsp
;	COMDAT ??$addressof@I@std@@YAPAIAAI@Z
_TEXT	SEGMENT
__Val$ = 8						; size = 4
??$addressof@I@std@@YAPAIAAI@Z PROC			; std::addressof<unsigned int>, COMDAT

; 110  : 	{	// return address of _Val

  00000	55		 push	 ebp
  00001	8b ec		 mov	 ebp, esp

; 111  : 	return ((_Ty *) &(char&)_Val);

  00003	8b 45 08	 mov	 eax, DWORD PTR __Val$[ebp]

; 112  : 	}

  00006	5d		 pop	 ebp
  00007	c3		 ret	 0
??$addressof@I@std@@YAPAIAAI@Z ENDP			; std::addressof<unsigned int>
_TEXT	ENDS
PUBLIC	??$forward@ABH@std@@YAABHABH@Z			; std::forward<int const &>
; Function compile flags: /Ogsp
; File c:\program files (x86)\microsoft visual studio 10.0\vc\include\utility
;	COMDAT ??$forward@ABH@std@@YAABHABH@Z
_TEXT	SEGMENT
__Arg$ = 8						; size = 4
??$forward@ABH@std@@YAABHABH@Z PROC			; std::forward<int const &>, COMDAT

; 78   : 	{	// forward _Arg, given explicitly specified type parameter

  00000	55		 push	 ebp
  00001	8b ec		 mov	 ebp, esp

; 79   : 	return ((_Ty&&)_Arg);

  00003	8b 45 08	 mov	 eax, DWORD PTR __Arg$[ebp]

; 80   : 	}

  00006	5d		 pop	 ebp
  00007	c3		 ret	 0
??$forward@ABH@std@@YAABHABH@Z ENDP			; std::forward<int const &>
_TEXT	ENDS
PUBLIC	??$_Unchecked@V?$_Vb_iterator@V?$allocator@_N@std@@@std@@@std@@YA?AV?$_Vb_iterator@V?$allocator@_N@std@@@0@V10@@Z ; std::_Unchecked<std::_Vb_iterator<std::allocator<bool> > >
; Function compile flags: /Ogsp
; File c:\program files (x86)\microsoft visual studio 10.0\vc\include\xutility
;	COMDAT ??$_Unchecked@V?$_Vb_iterator@V?$allocator@_N@std@@@std@@@std@@YA?AV?$_Vb_iterator@V?$allocator@_N@std@@@0@V10@@Z
_TEXT	SEGMENT
___$ReturnUdt$ = 8					; size = 4
__Src$ = 12						; size = 8
??$_Unchecked@V?$_Vb_iterator@V?$allocator@_N@std@@@std@@@std@@YA?AV?$_Vb_iterator@V?$allocator@_N@std@@@0@V10@@Z PROC ; std::_Unchecked<std::_Vb_iterator<std::allocator<bool> > >, COMDAT

; 266  : 	{	// construct unchecked from checked, generic

  00000	55		 push	 ebp
  00001	8b ec		 mov	 ebp, esp

; 267  : 	return (_Src);

  00003	8b 4d 0c	 mov	 ecx, DWORD PTR __Src$[ebp]
  00006	8b 45 08	 mov	 eax, DWORD PTR ___$ReturnUdt$[ebp]
  00009	89 08		 mov	 DWORD PTR [eax], ecx
  0000b	8b 4d 10	 mov	 ecx, DWORD PTR __Src$[ebp+4]
  0000e	89 48 04	 mov	 DWORD PTR [eax+4], ecx

; 268  : 	}

  00011	5d		 pop	 ebp
  00012	c3		 ret	 0
??$_Unchecked@V?$_Vb_iterator@V?$allocator@_N@std@@@std@@@std@@YA?AV?$_Vb_iterator@V?$allocator@_N@std@@@0@V10@@Z ENDP ; std::_Unchecked<std::_Vb_iterator<std::allocator<bool> > >
_TEXT	ENDS
PUBLIC	??$_Rechecked@V?$_Vb_iterator@V?$allocator@_N@std@@@std@@V12@@std@@YAAAV?$_Vb_iterator@V?$allocator@_N@std@@@0@AAV10@V10@@Z ; std::_Rechecked<std::_Vb_iterator<std::allocator<bool> >,std::_Vb_iterator<std::allocator<bool> > >
; Function compile flags: /Ogsp
;	COMDAT ??$_Rechecked@V?$_Vb_iterator@V?$allocator@_N@std@@@std@@V12@@std@@YAAAV?$_Vb_iterator@V?$allocator@_N@std@@@0@AAV10@V10@@Z
_TEXT	SEGMENT
__Dest$ = 8						; size = 4
__Src$ = 12						; size = 8
??$_Rechecked@V?$_Vb_iterator@V?$allocator@_N@std@@@std@@V12@@std@@YAAAV?$_Vb_iterator@V?$allocator@_N@std@@@0@AAV10@V10@@Z PROC ; std::_Rechecked<std::_Vb_iterator<std::allocator<bool> >,std::_Vb_iterator<std::allocator<bool> > >, COMDAT

; 274  : 	{	// reset checked from unchecked, generic

  00000	55		 push	 ebp
  00001	8b ec		 mov	 ebp, esp

; 275  : 	_Dest = _Src;

  00003	8b 4d 0c	 mov	 ecx, DWORD PTR __Src$[ebp]
  00006	8b 45 08	 mov	 eax, DWORD PTR __Dest$[ebp]
  00009	89 08		 mov	 DWORD PTR [eax], ecx
  0000b	8b 4d 10	 mov	 ecx, DWORD PTR __Src$[ebp+4]
  0000e	89 48 04	 mov	 DWORD PTR [eax+4], ecx

; 276  : 	return (_Dest);
; 277  : 	}

  00011	5d		 pop	 ebp
  00012	c3		 ret	 0
??$_Rechecked@V?$_Vb_iterator@V?$allocator@_N@std@@@std@@V12@@std@@YAAAV?$_Vb_iterator@V?$allocator@_N@std@@@0@AAV10@V10@@Z ENDP ; std::_Rechecked<std::_Vb_iterator<std::allocator<bool> >,std::_Vb_iterator<std::allocator<bool> > >
_TEXT	ENDS
PUBLIC	??$_Ptr_cat@II@std@@YA?AU_Scalar_ptr_iterator_tag@0@PAI0@Z ; std::_Ptr_cat<unsigned int,unsigned int>
; Function compile flags: /Ogsp
;	COMDAT ??$_Ptr_cat@II@std@@YA?AU_Scalar_ptr_iterator_tag@0@PAI0@Z
_TEXT	SEGMENT
__Cat$ = -1						; size = 1
___formal$ = 8						; size = 4
___formal$ = 12						; size = 4
??$_Ptr_cat@II@std@@YA?AU_Scalar_ptr_iterator_tag@0@PAI0@Z PROC ; std::_Ptr_cat<unsigned int,unsigned int>, COMDAT

; 516  : 	{	// return pointer category from pointers

  00000	55		 push	 ebp
  00001	8b ec		 mov	 ebp, esp
  00003	51		 push	 ecx

; 517  : 	typename _Ptr_cat_helper<_Elem1, _Elem2>::_Type _Cat;
; 518  : 	return (_Cat);

  00004	8a 45 ff	 mov	 al, BYTE PTR __Cat$[ebp]

; 519  : 	}

  00007	c9		 leave
  00008	c3		 ret	 0
??$_Ptr_cat@II@std@@YA?AU_Scalar_ptr_iterator_tag@0@PAI0@Z ENDP ; std::_Ptr_cat<unsigned int,unsigned int>
_TEXT	ENDS
PUBLIC	??$_Move@PAIPAI@std@@YAPAIPAI00U_Scalar_ptr_iterator_tag@0@@Z ; std::_Move<unsigned int *,unsigned int *>
EXTRN	__imp__memmove:PROC
; Function compile flags: /Ogsp
;	COMDAT ??$_Move@PAIPAI@std@@YAPAIPAI00U_Scalar_ptr_iterator_tag@0@@Z
_TEXT	SEGMENT
__First$ = 8						; size = 4
__Last$ = 12						; size = 4
__Dest$ = 16						; size = 4
___formal$ = 20						; size = 1
??$_Move@PAIPAI@std@@YAPAIPAI00U_Scalar_ptr_iterator_tag@0@@Z PROC ; std::_Move<unsigned int *,unsigned int *>, COMDAT

; 2522 : 	{	// move [_First, _Last) to [_Dest, ...), pointers to scalars

  00000	55		 push	 ebp
  00001	8b ec		 mov	 ebp, esp
  00003	56		 push	 esi

; 2523 : 	ptrdiff_t _Count = _Last - _First;

  00004	8b 75 0c	 mov	 esi, DWORD PTR __Last$[ebp]
  00007	2b 75 08	 sub	 esi, DWORD PTR __First$[ebp]
  0000a	57		 push	 edi

; 2524 : 	_CSTD memmove(&*_Dest, &*_First,
; 2525 : 		_Count * sizeof (*_First));

  0000b	8b 7d 10	 mov	 edi, DWORD PTR __Dest$[ebp]
  0000e	c1 fe 02	 sar	 esi, 2
  00011	c1 e6 02	 shl	 esi, 2
  00014	56		 push	 esi
  00015	ff 75 08	 push	 DWORD PTR __First$[ebp]
  00018	57		 push	 edi
  00019	ff 15 00 00 00
	00		 call	 DWORD PTR __imp__memmove
  0001f	83 c4 0c	 add	 esp, 12			; 0000000cH

; 2526 : 	return (_Dest + _Count);

  00022	8d 04 3e	 lea	 eax, DWORD PTR [esi+edi]
  00025	5f		 pop	 edi
  00026	5e		 pop	 esi

; 2527 : 	}

  00027	5d		 pop	 ebp
  00028	c3		 ret	 0
??$_Move@PAIPAI@std@@YAPAIPAI00U_Scalar_ptr_iterator_tag@0@@Z ENDP ; std::_Move<unsigned int *,unsigned int *>
_TEXT	ENDS
PUBLIC	??$_Destroy_range@V?$allocator@I@std@@@std@@YAXPAI0AAV?$allocator@I@0@U_Scalar_ptr_iterator_tag@0@@Z ; std::_Destroy_range<std::allocator<unsigned int> >
; Function compile flags: /Ogsp
; File c:\program files (x86)\microsoft visual studio 10.0\vc\include\xmemory
;	COMDAT ??$_Destroy_range@V?$allocator@I@std@@@std@@YAXPAI0AAV?$allocator@I@0@U_Scalar_ptr_iterator_tag@0@@Z
_TEXT	SEGMENT
__First$ = 8						; size = 4
__Last$ = 12						; size = 4
__Al$ = 16						; size = 4
___formal$ = 20						; size = 1
??$_Destroy_range@V?$allocator@I@std@@@std@@YAXPAI0AAV?$allocator@I@0@U_Scalar_ptr_iterator_tag@0@@Z PROC ; std::_Destroy_range<std::allocator<unsigned int> >, COMDAT

; 105  : 	}

  00000	c3		 ret	 0
??$_Destroy_range@V?$allocator@I@std@@@std@@YAXPAI0AAV?$allocator@I@0@U_Scalar_ptr_iterator_tag@0@@Z ENDP ; std::_Destroy_range<std::allocator<unsigned int> >
_TEXT	ENDS
PUBLIC	??$_Val_type@PAI@std@@YAPAIPAI@Z		; std::_Val_type<unsigned int *>
; Function compile flags: /Ogsp
; File c:\program files (x86)\microsoft visual studio 10.0\vc\include\xutility
;	COMDAT ??$_Val_type@PAI@std@@YAPAIPAI@Z
_TEXT	SEGMENT
___formal$ = 8						; size = 4
??$_Val_type@PAI@std@@YAPAIPAI@Z PROC			; std::_Val_type<unsigned int *>, COMDAT

; 790  : 	return (0);

  00000	33 c0		 xor	 eax, eax

; 791  : 	}

  00002	c3		 ret	 0
??$_Val_type@PAI@std@@YAPAIPAI@Z ENDP			; std::_Val_type<unsigned int *>
_TEXT	ENDS
PUBLIC	??$_Unchecked@PAI@std@@YAPAIPAI@Z		; std::_Unchecked<unsigned int *>
; Function compile flags: /Ogsp
;	COMDAT ??$_Unchecked@PAI@std@@YAPAIPAI@Z
_TEXT	SEGMENT
__Src$ = 8						; size = 4
??$_Unchecked@PAI@std@@YAPAIPAI@Z PROC			; std::_Unchecked<unsigned int *>, COMDAT

; 266  : 	{	// construct unchecked from checked, generic

  00000	55		 push	 ebp
  00001	8b ec		 mov	 ebp, esp

; 267  : 	return (_Src);

  00003	8b 45 08	 mov	 eax, DWORD PTR __Src$[ebp]

; 268  : 	}

  00006	5d		 pop	 ebp
  00007	c3		 ret	 0
??$_Unchecked@PAI@std@@YAPAIPAI@Z ENDP			; std::_Unchecked<unsigned int *>
_TEXT	ENDS
PUBLIC	??$_Fill@PAII@std@@YAXPAI0ABI@Z			; std::_Fill<unsigned int *,unsigned int>
; Function compile flags: /Ogsp
;	COMDAT ??$_Fill@PAII@std@@YAXPAI0ABI@Z
_TEXT	SEGMENT
__First$ = 8						; size = 4
__Last$ = 12						; size = 4
__Val$ = 16						; size = 4
??$_Fill@PAII@std@@YAXPAI0ABI@Z PROC			; std::_Fill<unsigned int *,unsigned int>, COMDAT

; 2690 : 	{	// copy _Val through [_First, _Last)

  00000	55		 push	 ebp
  00001	8b ec		 mov	 ebp, esp

; 2691 : 	for (; _First != _Last; ++_First)

  00003	8b 45 08	 mov	 eax, DWORD PTR __First$[ebp]
  00006	eb 0a		 jmp	 SHORT $LN8@Fill
$LL3@Fill:

; 2692 : 		*_First = _Val;

  00008	8b 4d 10	 mov	 ecx, DWORD PTR __Val$[ebp]
  0000b	8b 09		 mov	 ecx, DWORD PTR [ecx]
  0000d	89 08		 mov	 DWORD PTR [eax], ecx
  0000f	83 c0 04	 add	 eax, 4
$LN8@Fill:

; 2691 : 	for (; _First != _Last; ++_First)

  00012	3b 45 0c	 cmp	 eax, DWORD PTR __Last$[ebp]
  00015	75 f1		 jne	 SHORT $LL3@Fill

; 2693 : 	}

  00017	5d		 pop	 ebp
  00018	c3		 ret	 0
??$_Fill@PAII@std@@YAXPAI0ABI@Z ENDP			; std::_Fill<unsigned int *,unsigned int>
_TEXT	ENDS
PUBLIC	??$_Copy_backward@PAIPAI@std@@YAPAIPAI00U_Scalar_ptr_iterator_tag@0@@Z ; std::_Copy_backward<unsigned int *,unsigned int *>
; Function compile flags: /Ogsp
;	COMDAT ??$_Copy_backward@PAIPAI@std@@YAPAIPAI00U_Scalar_ptr_iterator_tag@0@@Z
_TEXT	SEGMENT
__First$ = 8						; size = 4
__Last$ = 12						; size = 4
__Dest$ = 16						; size = 4
___formal$ = 20						; size = 1
??$_Copy_backward@PAIPAI@std@@YAPAIPAI00U_Scalar_ptr_iterator_tag@0@@Z PROC ; std::_Copy_backward<unsigned int *,unsigned int *>, COMDAT

; 2448 : 	{	// copy [_First, _Last) backwards to [..., _Dest), pointers to scalars

  00000	55		 push	 ebp
  00001	8b ec		 mov	 ebp, esp

; 2449 : 	ptrdiff_t _Count = _Last - _First;

  00003	8b 45 0c	 mov	 eax, DWORD PTR __Last$[ebp]
  00006	2b 45 08	 sub	 eax, DWORD PTR __First$[ebp]
  00009	56		 push	 esi

; 2450 : 	_CSTD memmove(&*_Dest - _Count, &*_First,
; 2451 : 		_Count * sizeof (*_First));

  0000a	8b 75 10	 mov	 esi, DWORD PTR __Dest$[ebp]
  0000d	83 e0 fc	 and	 eax, -4			; fffffffcH
  00010	50		 push	 eax
  00011	ff 75 08	 push	 DWORD PTR __First$[ebp]
  00014	2b f0		 sub	 esi, eax
  00016	56		 push	 esi
  00017	ff 15 00 00 00
	00		 call	 DWORD PTR __imp__memmove
  0001d	83 c4 0c	 add	 esp, 12			; 0000000cH

; 2452 : 	return (_Dest - _Count);

  00020	8b c6		 mov	 eax, esi
  00022	5e		 pop	 esi

; 2453 : 	}

  00023	5d		 pop	 ebp
  00024	c3		 ret	 0
??$_Copy_backward@PAIPAI@std@@YAPAIPAI00U_Scalar_ptr_iterator_tag@0@@Z ENDP ; std::_Copy_backward<unsigned int *,unsigned int *>
_TEXT	ENDS
PUBLIC	??$_Construct@HABH@std@@YAXPAHABH@Z		; std::_Construct<int,int const &>
; Function compile flags: /Ogsp
; File c:\program files (x86)\microsoft visual studio 10.0\vc\include\xmemory
;	COMDAT ??$_Construct@HABH@std@@YAXPAHABH@Z
_TEXT	SEGMENT
__Ptr$ = 8						; size = 4
__Val$ = 12						; size = 4
??$_Construct@HABH@std@@YAXPAHABH@Z PROC		; std::_Construct<int,int const &>, COMDAT

; 46   : 	{	// construct object at _Ptr with value _Val

  00000	55		 push	 ebp
  00001	8b ec		 mov	 ebp, esp

; 47   : 	void _FARQ *_Vptr = _Ptr;
; 48   : 	::new (_Vptr) _Ty1(_STD forward<_Ty2>(_Val));

  00003	8b 45 08	 mov	 eax, DWORD PTR __Ptr$[ebp]
  00006	85 c0		 test	 eax, eax
  00008	74 07		 je	 SHORT $LN3@Construct
  0000a	8b 4d 0c	 mov	 ecx, DWORD PTR __Val$[ebp]
  0000d	8b 09		 mov	 ecx, DWORD PTR [ecx]
  0000f	89 08		 mov	 DWORD PTR [eax], ecx
$LN3@Construct:

; 49   : 	}

  00011	5d		 pop	 ebp
  00012	c3		 ret	 0
??$_Construct@HABH@std@@YAXPAHABH@Z ENDP		; std::_Construct<int,int const &>
_TEXT	ENDS
PUBLIC	??4?$_Vb_reference@V?$allocator@_N@std@@@std@@QAEAAV01@_N@Z ; std::_Vb_reference<std::allocator<bool> >::operator=
; Function compile flags: /Ogsp
; File c:\program files (x86)\microsoft visual studio 10.0\vc\include\vector
;	COMDAT ??4?$_Vb_reference@V?$allocator@_N@std@@@std@@QAEAAV01@_N@Z
_TEXT	SEGMENT
__Val$ = 8						; size = 1
??4?$_Vb_reference@V?$allocator@_N@std@@@std@@QAEAAV01@_N@Z PROC ; std::_Vb_reference<std::allocator<bool> >::operator=, COMDAT
; _this$ = ecx

; 1609 : 		{	// assign _Val to bit

  00000	55		 push	 ebp
  00001	8b ec		 mov	 ebp, esp
  00003	56		 push	 esi

; 1610 : 		if (_Val)
; 1611 : 			*(_Vbase *)_Getptr() |= _Mask();

  00004	33 f6		 xor	 esi, esi
  00006	8b c1		 mov	 eax, ecx
  00008	8b 48 04	 mov	 ecx, DWORD PTR [eax+4]
  0000b	8b 10		 mov	 edx, DWORD PTR [eax]
  0000d	46		 inc	 esi
  0000e	d3 e6		 shl	 esi, cl
  00010	80 7d 08 00	 cmp	 BYTE PTR __Val$[ebp], 0
  00014	74 04		 je	 SHORT $LN2@operator@2
  00016	09 32		 or	 DWORD PTR [edx], esi

; 1612 : 		else

  00018	eb 04		 jmp	 SHORT $LN1@operator@2
$LN2@operator@2:

; 1613 : 			*(_Vbase *)_Getptr() &= ~_Mask();

  0001a	f7 d6		 not	 esi
  0001c	21 32		 and	 DWORD PTR [edx], esi
$LN1@operator@2:
  0001e	5e		 pop	 esi

; 1614 : 		return (*this);
; 1615 : 		}

  0001f	5d		 pop	 ebp
  00020	c2 04 00	 ret	 4
??4?$_Vb_reference@V?$allocator@_N@std@@@std@@QAEAAV01@_N@Z ENDP ; std::_Vb_reference<std::allocator<bool> >::operator=
_TEXT	ENDS
PUBLIC	?_Inc@?$_Vb_const_iterator@V?$allocator@_N@std@@@std@@QAEXXZ ; std::_Vb_const_iterator<std::allocator<bool> >::_Inc
; Function compile flags: /Ogsp
;	COMDAT ?_Inc@?$_Vb_const_iterator@V?$allocator@_N@std@@@std@@QAEXXZ
_TEXT	SEGMENT
?_Inc@?$_Vb_const_iterator@V?$allocator@_N@std@@@std@@QAEXXZ PROC ; std::_Vb_const_iterator<std::allocator<bool> >::_Inc, COMDAT
; _this$ = ecx

; 1855 : 		if (this->_Myoff < _VBITS - 1)

  00000	8b 41 04	 mov	 eax, DWORD PTR [ecx+4]
  00003	83 f8 1f	 cmp	 eax, 31			; 0000001fH
  00006	73 05		 jae	 SHORT $LN2@Inc

; 1856 : 			++this->_Myoff;

  00008	40		 inc	 eax
  00009	89 41 04	 mov	 DWORD PTR [ecx+4], eax

; 1873 : 			}
; 1874 : 		}

  0000c	c3		 ret	 0
$LN2@Inc:

; 1857 : 		else
; 1858 : 			{	// move to next word
; 1859 :  #if _ITERATOR_DEBUG_LEVEL == 2
; 1860 : 			if (this->_Getcont() == 0 || 0 < this->_Valid(1))
; 1861 : 				{	// report error
; 1862 : 				_DEBUG_ERROR("vector<bool> iterator not incrementable");
; 1863 : 				_SCL_SECURE_OUT_OF_RANGE;
; 1864 : 				}
; 1865 : 
; 1866 :  #elif _ITERATOR_DEBUG_LEVEL == 1
; 1867 : 			_SCL_SECURE_VALIDATE(this->_Getcont() != 0);
; 1868 : 			_SCL_SECURE_VALIDATE_RANGE(this->_Valid(1) <= 0);
; 1869 :  #endif /* _ITERATOR_DEBUG_LEVEL */
; 1870 : 
; 1871 : 			this->_Myoff = 0;

  0000d	83 61 04 00	 and	 DWORD PTR [ecx+4], 0

; 1872 : 			++this->_Myptr;

  00011	83 01 04	 add	 DWORD PTR [ecx], 4

; 1873 : 			}
; 1874 : 		}

  00014	c3		 ret	 0
?_Inc@?$_Vb_const_iterator@V?$allocator@_N@std@@@std@@QAEXXZ ENDP ; std::_Vb_const_iterator<std::allocator<bool> >::_Inc
_TEXT	ENDS
PUBLIC	??$_Val_type@PAVioHashString@@@std@@YAPAVioHashString@@PAV1@@Z ; std::_Val_type<ioHashString *>
; Function compile flags: /Ogsp
; File c:\program files (x86)\microsoft visual studio 10.0\vc\include\xutility
;	COMDAT ??$_Val_type@PAVioHashString@@@std@@YAPAVioHashString@@PAV1@@Z
_TEXT	SEGMENT
___formal$ = 8						; size = 4
??$_Val_type@PAVioHashString@@@std@@YAPAVioHashString@@PAV1@@Z PROC ; std::_Val_type<ioHashString *>, COMDAT

; 790  : 	return (0);

  00000	33 c0		 xor	 eax, eax

; 791  : 	}

  00002	c3		 ret	 0
??$_Val_type@PAVioHashString@@@std@@YAPAVioHashString@@PAV1@@Z ENDP ; std::_Val_type<ioHashString *>
_TEXT	ENDS
PUBLIC	??$_Ptr_cat@V?$_Vb_iterator@V?$allocator@_N@std@@@std@@V12@@std@@YA?AU_Nonscalar_ptr_iterator_tag@0@AAV?$_Vb_iterator@V?$allocator@_N@std@@@0@0@Z ; std::_Ptr_cat<std::_Vb_iterator<std::allocator<bool> >,std::_Vb_iterator<std::allocator<bool> > >
; Function compile flags: /Ogsp
;	COMDAT ??$_Ptr_cat@V?$_Vb_iterator@V?$allocator@_N@std@@@std@@V12@@std@@YA?AU_Nonscalar_ptr_iterator_tag@0@AAV?$_Vb_iterator@V?$allocator@_N@std@@@0@0@Z
_TEXT	SEGMENT
__Cat$ = -1						; size = 1
___formal$ = 8						; size = 4
___formal$ = 12						; size = 4
??$_Ptr_cat@V?$_Vb_iterator@V?$allocator@_N@std@@@std@@V12@@std@@YA?AU_Nonscalar_ptr_iterator_tag@0@AAV?$_Vb_iterator@V?$allocator@_N@std@@@0@0@Z PROC ; std::_Ptr_cat<std::_Vb_iterator<std::allocator<bool> >,std::_Vb_iterator<std::allocator<bool> > >, COMDAT

; 485  : 	{	// return pointer category from arbitrary arguments

  00000	55		 push	 ebp
  00001	8b ec		 mov	 ebp, esp
  00003	51		 push	 ecx

; 486  : 	_Nonscalar_ptr_iterator_tag _Cat;
; 487  : 	return (_Cat);

  00004	8a 45 ff	 mov	 al, BYTE PTR __Cat$[ebp]

; 488  : 	}

  00007	c9		 leave
  00008	c3		 ret	 0
??$_Ptr_cat@V?$_Vb_iterator@V?$allocator@_N@std@@@std@@V12@@std@@YA?AU_Nonscalar_ptr_iterator_tag@0@AAV?$_Vb_iterator@V?$allocator@_N@std@@@0@0@Z ENDP ; std::_Ptr_cat<std::_Vb_iterator<std::allocator<bool> >,std::_Vb_iterator<std::allocator<bool> > >
_TEXT	ENDS
PUBLIC	??$_Fill_n@PAIII@std@@YAXPAIIABI@Z		; std::_Fill_n<unsigned int *,unsigned int,unsigned int>
; Function compile flags: /Ogsp
;	COMDAT ??$_Fill_n@PAIII@std@@YAXPAIIABI@Z
_TEXT	SEGMENT
__Dest$ = 8						; size = 4
__Count$ = 12						; size = 4
__Val$ = 16						; size = 4
??$_Fill_n@PAIII@std@@YAXPAIIABI@Z PROC			; std::_Fill_n<unsigned int *,unsigned int,unsigned int>, COMDAT

; 2723 : 	{	// copy _Val _Count times through [_Dest, ...)

  00000	55		 push	 ebp
  00001	8b ec		 mov	 ebp, esp

; 2724 : 	for (; 0 < _Count; --_Count, ++_Dest)

  00003	83 7d 0c 00	 cmp	 DWORD PTR __Count$[ebp], 0
  00007	76 16		 jbe	 SHORT $LN1@Fill_n
  00009	8b 45 08	 mov	 eax, DWORD PTR __Dest$[ebp]
$LL3@Fill_n:

; 2725 : 		*_Dest = _Val;

  0000c	8b 4d 10	 mov	 ecx, DWORD PTR __Val$[ebp]
  0000f	8b 09		 mov	 ecx, DWORD PTR [ecx]
  00011	ff 4d 0c	 dec	 DWORD PTR __Count$[ebp]
  00014	89 08		 mov	 DWORD PTR [eax], ecx
  00016	83 c0 04	 add	 eax, 4
  00019	83 7d 0c 00	 cmp	 DWORD PTR __Count$[ebp], 0
  0001d	77 ed		 ja	 SHORT $LL3@Fill_n
$LN1@Fill_n:

; 2726 : 	}

  0001f	5d		 pop	 ebp
  00020	c3		 ret	 0
??$_Fill_n@PAIII@std@@YAXPAIIABI@Z ENDP			; std::_Fill_n<unsigned int *,unsigned int,unsigned int>
_TEXT	ENDS
PUBLIC	??$_Uninit_move@III@std@@YAPAIPAI00AAV?$allocator@I@0@0U_Scalar_ptr_iterator_tag@0@@Z ; std::_Uninit_move<unsigned int,unsigned int,unsigned int>
; Function compile flags: /Ogsp
; File c:\program files (x86)\microsoft visual studio 10.0\vc\include\memory
;	COMDAT ??$_Uninit_move@III@std@@YAPAIPAI00AAV?$allocator@I@0@0U_Scalar_ptr_iterator_tag@0@@Z
_TEXT	SEGMENT
__First$ = 8						; size = 4
__Last$ = 12						; size = 4
__Dest$ = 16						; size = 4
___formal$ = 20						; size = 4
___formal$ = 24						; size = 4
___formal$ = 28						; size = 1
??$_Uninit_move@III@std@@YAPAIPAI00AAV?$allocator@I@0@0U_Scalar_ptr_iterator_tag@0@@Z PROC ; std::_Uninit_move<unsigned int,unsigned int,unsigned int>, COMDAT

; 456  : 	{	// move [_First, _Last) to raw _Dest, scalar type

  00000	55		 push	 ebp
  00001	8b ec		 mov	 ebp, esp
  00003	56		 push	 esi

; 457  : 	_DEBUG_RANGE(_First, _Last);
; 458  : 	_DEBUG_POINTER(_Dest);
; 459  : 	size_t _Count = (size_t)(_Last - _First);

  00004	8b 75 0c	 mov	 esi, DWORD PTR __Last$[ebp]
  00007	2b 75 08	 sub	 esi, DWORD PTR __First$[ebp]
  0000a	c1 fe 02	 sar	 esi, 2

; 460  : 	return ((_Ty2 *)_CSTD memmove(&*_Dest, &*_First,
; 461  : 		_Count * sizeof (*_First)) + _Count);	// NB: non-overlapping move

  0000d	c1 e6 02	 shl	 esi, 2
  00010	56		 push	 esi
  00011	ff 75 08	 push	 DWORD PTR __First$[ebp]
  00014	ff 75 10	 push	 DWORD PTR __Dest$[ebp]
  00017	ff 15 00 00 00
	00		 call	 DWORD PTR __imp__memmove
  0001d	83 c4 0c	 add	 esp, 12			; 0000000cH
  00020	03 c6		 add	 eax, esi
  00022	5e		 pop	 esi

; 462  : 	}

  00023	5d		 pop	 ebp
  00024	c3		 ret	 0
??$_Uninit_move@III@std@@YAPAIPAI00AAV?$allocator@I@0@0U_Scalar_ptr_iterator_tag@0@@Z ENDP ; std::_Uninit_move<unsigned int,unsigned int,unsigned int>
_TEXT	ENDS
PUBLIC	?_Dec@?$_Vb_const_iterator@V?$allocator@_N@std@@@std@@QAEXXZ ; std::_Vb_const_iterator<std::allocator<bool> >::_Dec
; Function compile flags: /Ogsp
; File c:\program files (x86)\microsoft visual studio 10.0\vc\include\vector
;	COMDAT ?_Dec@?$_Vb_const_iterator@V?$allocator@_N@std@@@std@@QAEXXZ
_TEXT	SEGMENT
?_Dec@?$_Vb_const_iterator@V?$allocator@_N@std@@@std@@QAEXXZ PROC ; std::_Vb_const_iterator<std::allocator<bool> >::_Dec, COMDAT
; _this$ = ecx

; 1832 : 		if (this->_Myoff != 0)

  00000	8b 41 04	 mov	 eax, DWORD PTR [ecx+4]
  00003	85 c0		 test	 eax, eax
  00005	74 05		 je	 SHORT $LN2@Dec

; 1833 : 			--this->_Myoff;

  00007	48		 dec	 eax
  00008	89 41 04	 mov	 DWORD PTR [ecx+4], eax

; 1850 : 			}
; 1851 : 		}

  0000b	c3		 ret	 0
$LN2@Dec:

; 1834 : 		else
; 1835 : 			{	// move to previous word
; 1836 :  #if _ITERATOR_DEBUG_LEVEL == 2
; 1837 : 			if (this->_Getcont() == 0 || 0 < this->_Valid((size_type)-1))
; 1838 : 				{	// report error
; 1839 : 				_DEBUG_ERROR("vector<bool> iterator not decrementable");
; 1840 : 				_SCL_SECURE_OUT_OF_RANGE;
; 1841 : 				}
; 1842 : 
; 1843 :  #elif _ITERATOR_DEBUG_LEVEL == 1
; 1844 : 			_SCL_SECURE_VALIDATE(this->_Getcont() != 0);
; 1845 : 			_SCL_SECURE_VALIDATE_RANGE(this->_Valid((size_type)-1) <= 0);
; 1846 :  #endif /* _ITERATOR_DEBUG_LEVEL */
; 1847 : 
; 1848 : 			this->_Myoff = _VBITS - 1;
; 1849 : 			--this->_Myptr;

  0000c	83 01 fc	 add	 DWORD PTR [ecx], -4	; fffffffcH
  0000f	c7 41 04 1f 00
	00 00		 mov	 DWORD PTR [ecx+4], 31	; 0000001fH

; 1850 : 			}
; 1851 : 		}

  00016	c3		 ret	 0
?_Dec@?$_Vb_const_iterator@V?$allocator@_N@std@@@std@@QAEXXZ ENDP ; std::_Vb_const_iterator<std::allocator<bool> >::_Dec
_TEXT	ENDS
PUBLIC	??$forward@VioHashString@@@std@@YA$$QAVioHashString@@AAV1@@Z ; std::forward<ioHashString>
; Function compile flags: /Ogsp
; File c:\program files (x86)\microsoft visual studio 10.0\vc\include\utility
;	COMDAT ??$forward@VioHashString@@@std@@YA$$QAVioHashString@@AAV1@@Z
_TEXT	SEGMENT
__Arg$ = 8						; size = 4
??$forward@VioHashString@@@std@@YA$$QAVioHashString@@AAV1@@Z PROC ; std::forward<ioHashString>, COMDAT

; 78   : 	{	// forward _Arg, given explicitly specified type parameter

  00000	55		 push	 ebp
  00001	8b ec		 mov	 ebp, esp

; 79   : 	return ((_Ty&&)_Arg);

  00003	8b 45 08	 mov	 eax, DWORD PTR __Arg$[ebp]

; 80   : 	}

  00006	5d		 pop	 ebp
  00007	c3		 ret	 0
??$forward@VioHashString@@@std@@YA$$QAVioHashString@@AAV1@@Z ENDP ; std::forward<ioHashString>
; Function compile flags: /Ogsp
; File c:\program files (x86)\microsoft sdks\windows\v7.0a\include\strsafe.h
_TEXT	ENDS
;	COMDAT ?StringValidateDestA@@YGJPBDII@Z
_TEXT	SEGMENT
_cchMax$ = 8						; size = 4
?StringValidateDestA@@YGJPBDII@Z PROC			; StringValidateDestA, COMDAT
; _cchDest$ = ecx

; 8721 : {

  00000	55		 push	 ebp
  00001	8b ec		 mov	 ebp, esp

; 8722 :     HRESULT hr = S_OK;

  00003	33 c0		 xor	 eax, eax

; 8723 : 
; 8724 :     if ((cchDest == 0) || (cchDest > cchMax))

  00005	85 c9		 test	 ecx, ecx
  00007	74 05		 je	 SHORT $LN1@StringVali
  00009	3b 4d 08	 cmp	 ecx, DWORD PTR _cchMax$[ebp]
  0000c	76 05		 jbe	 SHORT $LN2@StringVali
$LN1@StringVali:

; 8725 :     {
; 8726 :         hr = STRSAFE_E_INVALID_PARAMETER;

  0000e	b8 57 00 07 80	 mov	 eax, -2147024809	; 80070057H
$LN2@StringVali:

; 8727 :     }
; 8728 : 
; 8729 :     return hr;
; 8730 : }

  00013	5d		 pop	 ebp
  00014	c2 04 00	 ret	 4
?StringValidateDestA@@YGJPBDII@Z ENDP			; StringValidateDestA
_TEXT	ENDS
EXTRN	__imp___vsnprintf:PROC
; Function compile flags: /Ogsp
;	COMDAT ?StringVPrintfWorkerA@@YGJPADIPAIPBD0@Z
_TEXT	SEGMENT
_pcchNewDestLength$ = 8					; size = 4
_pszFormat$ = 12					; size = 4
_argList$ = 16						; size = 4
?StringVPrintfWorkerA@@YGJPADIPAIPBD0@Z PROC		; StringVPrintfWorkerA, COMDAT
; _pszDest$ = edi
; _cchDest$ = eax

; 9029 : {

  00000	55		 push	 ebp
  00001	8b ec		 mov	 ebp, esp
  00003	53		 push	 ebx
  00004	56		 push	 esi

; 9030 :     HRESULT hr = S_OK;
; 9031 :     int iRet;
; 9032 :     size_t cchMax;
; 9033 :     size_t cchNewDestLength = 0;
; 9034 : 
; 9035 :     // leave the last space for the null terminator
; 9036 :     cchMax = cchDest - 1;
; 9037 : 
; 9038 : #if (STRSAFE_USE_SECURE_CRT == 1) && !defined(STRSAFE_LIB_IMPL)
; 9039 :     iRet = _vsnprintf_s(pszDest, cchDest, cchMax, pszFormat, argList);
; 9040 : #else
; 9041 :     #pragma warning(push)
; 9042 :     #pragma warning(disable: __WARNING_BANNED_API_USAGE)// "STRSAFE not included"
; 9043 :     iRet = _vsnprintf(pszDest, cchMax, pszFormat, argList);

  00005	ff 75 10	 push	 DWORD PTR _argList$[ebp]
  00008	8d 70 ff	 lea	 esi, DWORD PTR [eax-1]
  0000b	ff 75 0c	 push	 DWORD PTR _pszFormat$[ebp]
  0000e	33 db		 xor	 ebx, ebx
  00010	56		 push	 esi
  00011	57		 push	 edi
  00012	ff 15 00 00 00
	00		 call	 DWORD PTR __imp___vsnprintf
  00018	83 c4 10	 add	 esp, 16			; 00000010H

; 9044 :     #pragma warning(pop)
; 9045 : #endif
; 9046 :     // ASSERT((iRet < 0) || (((size_t)iRet) <= cchMax));
; 9047 : 
; 9048 :     if ((iRet < 0) || (((size_t)iRet) > cchMax))

  0001b	85 c0		 test	 eax, eax
  0001d	78 0b		 js	 SHORT $LN5@StringVPri
  0001f	3b c6		 cmp	 eax, esi
  00021	77 07		 ja	 SHORT $LN5@StringVPri

; 9058 :     }
; 9059 :     else if (((size_t)iRet) == cchMax)

  00023	75 0f		 jne	 SHORT $LN2@StringVPri

; 9060 :     {
; 9061 :         // need to null terminate the string
; 9062 :         pszDest += cchMax;
; 9063 :         *pszDest = '\0';

  00025	88 1c 3e	 mov	 BYTE PTR [esi+edi], bl

; 9064 : 
; 9065 :         cchNewDestLength = cchMax;
; 9066 :     }
; 9067 :     else

  00028	eb 08		 jmp	 SHORT $LN9@StringVPri
$LN5@StringVPri:

; 9049 :     {
; 9050 :         // need to null terminate the string
; 9051 :         pszDest += cchMax;
; 9052 :         *pszDest = '\0';

  0002a	88 1c 3e	 mov	 BYTE PTR [esi+edi], bl

; 9055 : 
; 9056 :         // we have truncated pszDest
; 9057 :         hr = STRSAFE_E_INSUFFICIENT_BUFFER;

  0002d	bb 7a 00 07 80	 mov	 ebx, -2147024774	; 8007007aH
$LN9@StringVPri:

; 9053 : 
; 9054 :         cchNewDestLength = cchMax;

  00032	8b c6		 mov	 eax, esi
$LN2@StringVPri:

; 9068 :     {
; 9069 :         cchNewDestLength = (size_t)iRet;
; 9070 :     }
; 9071 : 
; 9072 :     if (pcchNewDestLength)

  00034	8b 4d 08	 mov	 ecx, DWORD PTR _pcchNewDestLength$[ebp]
  00037	85 c9		 test	 ecx, ecx
  00039	74 02		 je	 SHORT $LN1@StringVPri

; 9073 :     {
; 9074 :         *pcchNewDestLength = cchNewDestLength;

  0003b	89 01		 mov	 DWORD PTR [ecx], eax
$LN1@StringVPri:
  0003d	5e		 pop	 esi

; 9075 :     }
; 9076 : 
; 9077 :     return hr;

  0003e	8b c3		 mov	 eax, ebx
  00040	5b		 pop	 ebx

; 9078 : }

  00041	5d		 pop	 ebp
  00042	c2 0c 00	 ret	 12			; 0000000cH
?StringVPrintfWorkerA@@YGJPADIPAIPBD0@Z ENDP		; StringVPrintfWorkerA
_TEXT	ENDS
PUBLIC	?_DECSTR@@YAXPADH@Z				; _DECSTR
; Function compile flags: /Ogsp
; File d:\lost saga for developer\youtube\tutorial\source\src\lsclient\stringprotect.h
;	COMDAT ?_DECSTR@@YAXPADH@Z
_TEXT	SEGMENT
_s$ = 8							; size = 4
_l$ = 12						; size = 4
?_DECSTR@@YAXPADH@Z PROC				; _DECSTR, COMDAT

; 40   : __forceinline void _DECSTR(char* s, int l){int i=0,l4=(l-1)/4,*p=(int*)s;s[l-1]=0;for(;i<l4;++i)*(p++)^=0xEAEBECED;for(i=l4*4;i<l-1;++i)s[i]^=0xED-i%4;}

  00000	55		 push	 ebp
  00001	8b ec		 mov	 ebp, esp
  00003	8b 4d 0c	 mov	 ecx, DWORD PTR _l$[ebp]
  00006	56		 push	 esi
  00007	8b 75 08	 mov	 esi, DWORD PTR _s$[ebp]
  0000a	57		 push	 edi
  0000b	8d 79 ff	 lea	 edi, DWORD PTR [ecx-1]
  0000e	8b c7		 mov	 eax, edi
  00010	99		 cdq
  00011	83 e2 03	 and	 edx, 3
  00014	03 c2		 add	 eax, edx
  00016	c1 f8 02	 sar	 eax, 2
  00019	8b d6		 mov	 edx, esi
  0001b	c6 44 0e ff 00	 mov	 BYTE PTR [esi+ecx-1], 0
  00020	85 c0		 test	 eax, eax
  00022	7e 0e		 jle	 SHORT $LN4@DECSTR
  00024	8b c8		 mov	 ecx, eax
$LL6@DECSTR:
  00026	81 32 ed ec eb
	ea		 xor	 DWORD PTR [edx], -353637139 ; eaebecedH
  0002c	83 c2 04	 add	 edx, 4
  0002f	49		 dec	 ecx
  00030	75 f4		 jne	 SHORT $LL6@DECSTR
$LN4@DECSTR:
  00032	c1 e0 02	 shl	 eax, 2
  00035	eb 17		 jmp	 SHORT $LN14@DECSTR
$LL3@DECSTR:
  00037	8b c8		 mov	 ecx, eax
  00039	81 e1 03 00 00
	80		 and	 ecx, -2147483645	; 80000003H
  0003f	79 05		 jns	 SHORT $LN13@DECSTR
  00041	49		 dec	 ecx
  00042	83 c9 fc	 or	 ecx, -4			; fffffffcH
  00045	41		 inc	 ecx
$LN13@DECSTR:
  00046	b2 ed		 mov	 dl, -19			; ffffffedH
  00048	2a d1		 sub	 dl, cl
  0004a	30 14 30	 xor	 BYTE PTR [eax+esi], dl
  0004d	40		 inc	 eax
$LN14@DECSTR:
  0004e	3b c7		 cmp	 eax, edi
  00050	7c e5		 jl	 SHORT $LL3@DECSTR
  00052	5f		 pop	 edi
  00053	5e		 pop	 esi
  00054	5d		 pop	 ebp
  00055	c3		 ret	 0
?_DECSTR@@YAXPADH@Z ENDP				; _DECSTR
_TEXT	ENDS
PUBLIC	?GetGradeType@CostumeShopInfo@@QBEHXZ		; CostumeShopInfo::GetGradeType
; Function compile flags: /Ogsp
; File d:\lost saga for developer\youtube\tutorial\source\src\lsclient\iocostumeshopinfomanager.h
;	COMDAT ?GetGradeType@CostumeShopInfo@@QBEHXZ
_TEXT	SEGMENT
?GetGradeType@CostumeShopInfo@@QBEHXZ PROC		; CostumeShopInfo::GetGradeType, COMDAT
; _this$ = ecx

; 60   : 	inline int GetGradeType() const { return m_nGradeType; }

  00000	8b 41 0c	 mov	 eax, DWORD PTR [ecx+12]
  00003	c3		 ret	 0
?GetGradeType@CostumeShopInfo@@QBEHXZ ENDP		; CostumeShopInfo::GetGradeType
_TEXT	ENDS
PUBLIC	?GetIconName@CostumeShopInfo@@QAEAAVioHashString@@XZ ; CostumeShopInfo::GetIconName
; Function compile flags: /Ogsp
;	COMDAT ?GetIconName@CostumeShopInfo@@QAEAAVioHashString@@XZ
_TEXT	SEGMENT
?GetIconName@CostumeShopInfo@@QAEAAVioHashString@@XZ PROC ; CostumeShopInfo::GetIconName, COMDAT
; _this$ = ecx

; 64   : 	inline ioHashString &GetIconName() { return m_szIconName; }

  00000	8d 41 50	 lea	 eax, DWORD PTR [ecx+80]
  00003	c3		 ret	 0
?GetIconName@CostumeShopInfo@@QAEAAVioHashString@@XZ ENDP ; CostumeShopInfo::GetIconName
_TEXT	ENDS
PUBLIC	?GetItemLargeIconName@ioItem@@QBEABVioHashString@@XZ ; ioItem::GetItemLargeIconName
; Function compile flags: /Ogsp
; File d:\lost saga for developer\youtube\tutorial\source\src\lsclient\ioitem.h
;	COMDAT ?GetItemLargeIconName@ioItem@@QBEABVioHashString@@XZ
_TEXT	SEGMENT
?GetItemLargeIconName@ioItem@@QBEABVioHashString@@XZ PROC ; ioItem::GetItemLargeIconName, COMDAT
; _this$ = ecx

; 288  : 	inline const ioHashString& GetItemLargeIconName() const { return m_ItemLargeIconFile; }

  00000	8d 81 14 02 00
	00		 lea	 eax, DWORD PTR [ecx+532]
  00006	c3		 ret	 0
?GetItemLargeIconName@ioItem@@QBEABVioHashString@@XZ ENDP ; ioItem::GetItemLargeIconName
_TEXT	ENDS
PUBLIC	?GetGradeType@ioItem@@QBEHXZ			; ioItem::GetGradeType
; Function compile flags: /Ogsp
;	COMDAT ?GetGradeType@ioItem@@QBEHXZ
_TEXT	SEGMENT
?GetGradeType@ioItem@@QBEHXZ PROC			; ioItem::GetGradeType, COMDAT
; _this$ = ecx

; 445  : 	inline int GetGradeType() const { return m_nGradeType; }

  00000	8b 81 20 06 00
	00		 mov	 eax, DWORD PTR [ecx+1568]
  00006	c3		 ret	 0
?GetGradeType@ioItem@@QBEHXZ ENDP			; ioItem::GetGradeType
_TEXT	ENDS
PUBLIC	??0ETCITEMSLOT@ioUserEtcItem@@QAE@XZ		; ioUserEtcItem::ETCITEMSLOT::ETCITEMSLOT
; Function compile flags: /Ogsp
; File d:\lost saga for developer\youtube\tutorial\source\src\lsclient\iouseretcitem.h
;	COMDAT ??0ETCITEMSLOT@ioUserEtcItem@@QAE@XZ
_TEXT	SEGMENT
??0ETCITEMSLOT@ioUserEtcItem@@QAE@XZ PROC		; ioUserEtcItem::ETCITEMSLOT::ETCITEMSLOT, COMDAT
; _this$ = ecx

; 22   : 		ETCITEMSLOT()

  00000	8b c1		 mov	 eax, ecx

; 23   : 		{
; 24   : 			m_iType   = 0;

  00002	33 c9		 xor	 ecx, ecx
  00004	89 08		 mov	 DWORD PTR [eax], ecx

; 25   : 			m_iValue1 = 0;

  00006	89 48 04	 mov	 DWORD PTR [eax+4], ecx

; 26   : 			m_iValue2 = 0;

  00009	89 48 08	 mov	 DWORD PTR [eax+8], ecx

; 27   : 		}

  0000c	c3		 ret	 0
??0ETCITEMSLOT@ioUserEtcItem@@QAE@XZ ENDP		; ioUserEtcItem::ETCITEMSLOT::ETCITEMSLOT
_TEXT	ENDS
PUBLIC	?GetInventorySubManual@ioEtcItem@@QBEHXZ	; ioEtcItem::GetInventorySubManual
; Function compile flags: /Ogsp
; File d:\lost saga for developer\youtube\tutorial\source\src\lsclient\ioetcitem.h
;	COMDAT ?GetInventorySubManual@ioEtcItem@@QBEHXZ
_TEXT	SEGMENT
?GetInventorySubManual@ioEtcItem@@QBEHXZ PROC		; ioEtcItem::GetInventorySubManual, COMDAT
; _this$ = ecx

; 435  : 	inline int     GetInventorySubManual() const { return m_iInventorySubManual; }

  00000	8b 41 4c	 mov	 eax, DWORD PTR [ecx+76]
  00003	c3		 ret	 0
?GetInventorySubManual@ioEtcItem@@QBEHXZ ENDP		; ioEtcItem::GetInventorySubManual
_TEXT	ENDS
PUBLIC	?GetGradeType@ioEtcItem@@QBEHXZ			; ioEtcItem::GetGradeType
; Function compile flags: /Ogsp
;	COMDAT ?GetGradeType@ioEtcItem@@QBEHXZ
_TEXT	SEGMENT
?GetGradeType@ioEtcItem@@QBEHXZ PROC			; ioEtcItem::GetGradeType, COMDAT
; _this$ = ecx

; 440  : 	inline int GetGradeType() const { return m_nGradeType; }

  00000	8b 81 84 01 00
	00		 mov	 eax, DWORD PTR [ecx+388]
  00006	c3		 ret	 0
?GetGradeType@ioEtcItem@@QBEHXZ ENDP			; ioEtcItem::GetGradeType
_TEXT	ENDS
PUBLIC	?GetIconName@ioEtcItem@@QBEABVioHashString@@XZ	; ioEtcItem::GetIconName
; Function compile flags: /Ogsp
;	COMDAT ?GetIconName@ioEtcItem@@QBEABVioHashString@@XZ
_TEXT	SEGMENT
?GetIconName@ioEtcItem@@QBEABVioHashString@@XZ PROC	; ioEtcItem::GetIconName, COMDAT
; _this$ = ecx

; 467  : 	inline const ioHashString& GetIconName() const { return m_IconName; }

  00000	8d 81 60 01 00
	00		 lea	 eax, DWORD PTR [ecx+352]
  00006	c3		 ret	 0
?GetIconName@ioEtcItem@@QBEABVioHashString@@XZ ENDP	; ioEtcItem::GetIconName
_TEXT	ENDS
PUBLIC	?GetIconName@RandomMachineInfo@@QBEABVioHashString@@XZ ; RandomMachineInfo::GetIconName
; Function compile flags: /Ogsp
; File d:\lost saga for developer\youtube\tutorial\source\src\lsclient\ioextraiteminfomanager.h
;	COMDAT ?GetIconName@RandomMachineInfo@@QBEABVioHashString@@XZ
_TEXT	SEGMENT
?GetIconName@RandomMachineInfo@@QBEABVioHashString@@XZ PROC ; RandomMachineInfo::GetIconName, COMDAT
; _this$ = ecx

; 117  : 	inline const ioHashString& GetIconName() const { return m_IconName; }

  00000	8d 41 18	 lea	 eax, DWORD PTR [ecx+24]
  00003	c3		 ret	 0
?GetIconName@RandomMachineInfo@@QBEABVioHashString@@XZ ENDP ; RandomMachineInfo::GetIconName
_TEXT	ENDS
PUBLIC	?GetGradeType@RandomMachineInfo@@QBEHXZ		; RandomMachineInfo::GetGradeType
; Function compile flags: /Ogsp
;	COMDAT ?GetGradeType@RandomMachineInfo@@QBEHXZ
_TEXT	SEGMENT
?GetGradeType@RandomMachineInfo@@QBEHXZ PROC		; RandomMachineInfo::GetGradeType, COMDAT
; _this$ = ecx

; 131  : 	inline int GetGradeType() const { return m_nGradeType; }

  00000	8b 81 8c 00 00
	00		 mov	 eax, DWORD PTR [ecx+140]
  00006	c3		 ret	 0
?GetGradeType@RandomMachineInfo@@QBEHXZ ENDP		; RandomMachineInfo::GetGradeType
_TEXT	ENDS
PUBLIC	?GetPublicID@ioMyInfo@@QBEABVioHashString@@XZ	; ioMyInfo::GetPublicID
; Function compile flags: /Ogsp
; File d:\lost saga for developer\youtube\tutorial\source\src\lsclient\iomyinfo.h
;	COMDAT ?GetPublicID@ioMyInfo@@QBEABVioHashString@@XZ
_TEXT	SEGMENT
?GetPublicID@ioMyInfo@@QBEABVioHashString@@XZ PROC	; ioMyInfo::GetPublicID, COMDAT
; _this$ = ecx

; 517  : 	const ioHashString& GetPublicID() const { return m_user_data.m_public_id; }    

  00000	8d 41 1c	 lea	 eax, DWORD PTR [ecx+28]
  00003	c3		 ret	 0
?GetPublicID@ioMyInfo@@QBEABVioHashString@@XZ ENDP	; ioMyInfo::GetPublicID
_TEXT	ENDS
PUBLIC	?GetUserEtcItem@ioMyInfo@@QAEPAVioUserEtcItem@@XZ ; ioMyInfo::GetUserEtcItem
; Function compile flags: /Ogsp
;	COMDAT ?GetUserEtcItem@ioMyInfo@@QAEPAVioUserEtcItem@@XZ
_TEXT	SEGMENT
?GetUserEtcItem@ioMyInfo@@QAEPAVioUserEtcItem@@XZ PROC	; ioMyInfo::GetUserEtcItem, COMDAT
; _this$ = ecx

; 635  : 	ioUserEtcItem* GetUserEtcItem() { return &m_UserEtcItem; }

  00000	8d 81 44 01 00
	00		 lea	 eax, DWORD PTR [ecx+324]
  00006	c3		 ret	 0
?GetUserEtcItem@ioMyInfo@@QAEPAVioUserEtcItem@@XZ ENDP	; ioMyInfo::GetUserEtcItem
_TEXT	ENDS
PUBLIC	?size@?$vector@VioHashString@@V?$allocator@VioHashString@@@std@@@std@@QBEIXZ ; std::vector<ioHashString,std::allocator<ioHashString> >::size
; Function compile flags: /Ogsp
; File c:\program files (x86)\microsoft visual studio 10.0\vc\include\vector
;	COMDAT ?size@?$vector@VioHashString@@V?$allocator@VioHashString@@@std@@@std@@QBEIXZ
_TEXT	SEGMENT
?size@?$vector@VioHashString@@V?$allocator@VioHashString@@@std@@@std@@QBEIXZ PROC ; std::vector<ioHashString,std::allocator<ioHashString> >::size, COMDAT
; _this$ = ecx

; 879  : 		return (this->_Mylast - this->_Myfirst);

  00000	8b 41 04	 mov	 eax, DWORD PTR [ecx+4]
  00003	2b 01		 sub	 eax, DWORD PTR [ecx]
  00005	c1 f8 04	 sar	 eax, 4

; 880  : 		}

  00008	c3		 ret	 0
?size@?$vector@VioHashString@@V?$allocator@VioHashString@@@std@@@std@@QBEIXZ ENDP ; std::vector<ioHashString,std::allocator<ioHashString> >::size
_TEXT	ENDS
PUBLIC	?size@?$vector@HV?$allocator@H@std@@@std@@QBEIXZ ; std::vector<int,std::allocator<int> >::size
; Function compile flags: /Ogsp
;	COMDAT ?size@?$vector@HV?$allocator@H@std@@@std@@QBEIXZ
_TEXT	SEGMENT
?size@?$vector@HV?$allocator@H@std@@@std@@QBEIXZ PROC	; std::vector<int,std::allocator<int> >::size, COMDAT
; _this$ = ecx

; 879  : 		return (this->_Mylast - this->_Myfirst);

  00000	8b 41 04	 mov	 eax, DWORD PTR [ecx+4]
  00003	2b 01		 sub	 eax, DWORD PTR [ecx]
  00005	c1 f8 02	 sar	 eax, 2

; 880  : 		}

  00008	c3		 ret	 0
?size@?$vector@HV?$allocator@H@std@@@std@@QBEIXZ ENDP	; std::vector<int,std::allocator<int> >::size
_TEXT	ENDS
PUBLIC	?empty@?$vector@HV?$allocator@H@std@@@std@@QBE_NXZ ; std::vector<int,std::allocator<int> >::empty
; Function compile flags: /Ogsp
;	COMDAT ?empty@?$vector@HV?$allocator@H@std@@@std@@QBE_NXZ
_TEXT	SEGMENT
?empty@?$vector@HV?$allocator@H@std@@@std@@QBE_NXZ PROC	; std::vector<int,std::allocator<int> >::empty, COMDAT
; _this$ = ecx

; 889  : 		return (this->_Myfirst == this->_Mylast);

  00000	8b 01		 mov	 eax, DWORD PTR [ecx]
  00002	2b 41 04	 sub	 eax, DWORD PTR [ecx+4]
  00005	f7 d8		 neg	 eax
  00007	1b c0		 sbb	 eax, eax
  00009	40		 inc	 eax

; 890  : 		}

  0000a	c3		 ret	 0
?empty@?$vector@HV?$allocator@H@std@@@std@@QBE_NXZ ENDP	; std::vector<int,std::allocator<int> >::empty
_TEXT	ENDS
PUBLIC	??A?$vector@HV?$allocator@H@std@@@std@@QAEAAHI@Z ; std::vector<int,std::allocator<int> >::operator[]
; Function compile flags: /Ogsp
;	COMDAT ??A?$vector@HV?$allocator@H@std@@@std@@QAEAAHI@Z
_TEXT	SEGMENT
__Pos$ = 8						; size = 4
??A?$vector@HV?$allocator@H@std@@@std@@QAEAAHI@Z PROC	; std::vector<int,std::allocator<int> >::operator[], COMDAT
; _this$ = ecx

; 928  : 		{	// subscript mutable sequence

  00000	55		 push	 ebp
  00001	8b ec		 mov	 ebp, esp

; 929  :  #if _ITERATOR_DEBUG_LEVEL == 2
; 930  : 		if (size() <= _Pos)
; 931  : 			{	// report error
; 932  : 			_DEBUG_ERROR("vector subscript out of range");
; 933  : 			_SCL_SECURE_OUT_OF_RANGE;
; 934  : 			}
; 935  : 
; 936  :  #elif _ITERATOR_DEBUG_LEVEL == 1
; 937  : 		_SCL_SECURE_VALIDATE_RANGE(_Pos < size());
; 938  :  #endif /* _ITERATOR_DEBUG_LEVEL */
; 939  : 
; 940  : 		return (*(this->_Myfirst + _Pos));

  00003	8b 01		 mov	 eax, DWORD PTR [ecx]
  00005	8b 4d 08	 mov	 ecx, DWORD PTR __Pos$[ebp]
  00008	8d 04 88	 lea	 eax, DWORD PTR [eax+ecx*4]

; 941  : 		}

  0000b	5d		 pop	 ebp
  0000c	c2 04 00	 ret	 4
??A?$vector@HV?$allocator@H@std@@@std@@QAEAAHI@Z ENDP	; std::vector<int,std::allocator<int> >::operator[]
_TEXT	ENDS
PUBLIC	??0?$allocator@H@std@@QAE@XZ			; std::allocator<int>::allocator<int>
; Function compile flags: /Ogsp
; File c:\program files (x86)\microsoft visual studio 10.0\vc\include\xmemory
;	COMDAT ??0?$allocator@H@std@@QAE@XZ
_TEXT	SEGMENT
??0?$allocator@H@std@@QAE@XZ PROC			; std::allocator<int>::allocator<int>, COMDAT
; _this$ = ecx

; 161  : 	_ALLOCATOR() _THROW0()

  00000	8b c1		 mov	 eax, ecx

; 162  : 		{	// construct default allocator (do nothing)
; 163  : 		}

  00002	c3		 ret	 0
??0?$allocator@H@std@@QAE@XZ ENDP			; std::allocator<int>::allocator<int>
_TEXT	ENDS
PUBLIC	??1?$_Vector_val@VioHashString@@V?$allocator@VioHashString@@@std@@@std@@QAE@XZ ; std::_Vector_val<ioHashString,std::allocator<ioHashString> >::~_Vector_val<ioHashString,std::allocator<ioHashString> >
; Function compile flags: /Ogsp
; File c:\program files (x86)\microsoft visual studio 10.0\vc\include\vector
;	COMDAT ??1?$_Vector_val@VioHashString@@V?$allocator@VioHashString@@@std@@@std@@QAE@XZ
_TEXT	SEGMENT
??1?$_Vector_val@VioHashString@@V?$allocator@VioHashString@@@std@@@std@@QAE@XZ PROC ; std::_Vector_val<ioHashString,std::allocator<ioHashString> >::~_Vector_val<ioHashString,std::allocator<ioHashString> >, COMDAT
; _this$ = ecx

; 434  : 		}

  00000	c3		 ret	 0
??1?$_Vector_val@VioHashString@@V?$allocator@VioHashString@@@std@@@std@@QAE@XZ ENDP ; std::_Vector_val<ioHashString,std::allocator<ioHashString> >::~_Vector_val<ioHashString,std::allocator<ioHashString> >
_TEXT	ENDS
PUBLIC	??0?$allocator@VioHashString@@@std@@QAE@XZ	; std::allocator<ioHashString>::allocator<ioHashString>
; Function compile flags: /Ogsp
; File c:\program files (x86)\microsoft visual studio 10.0\vc\include\xmemory
;	COMDAT ??0?$allocator@VioHashString@@@std@@QAE@XZ
_TEXT	SEGMENT
??0?$allocator@VioHashString@@@std@@QAE@XZ PROC		; std::allocator<ioHashString>::allocator<ioHashString>, COMDAT
; _this$ = ecx

; 161  : 	_ALLOCATOR() _THROW0()

  00000	8b c1		 mov	 eax, ecx

; 162  : 		{	// construct default allocator (do nothing)
; 163  : 		}

  00002	c3		 ret	 0
??0?$allocator@VioHashString@@@std@@QAE@XZ ENDP		; std::allocator<ioHashString>::allocator<ioHashString>
_TEXT	ENDS
PUBLIC	??0?$allocator@VioHashString@@@std@@QAE@ABV01@@Z ; std::allocator<ioHashString>::allocator<ioHashString>
; Function compile flags: /Ogsp
;	COMDAT ??0?$allocator@VioHashString@@@std@@QAE@ABV01@@Z
_TEXT	SEGMENT
___formal$ = 8						; size = 4
??0?$allocator@VioHashString@@@std@@QAE@ABV01@@Z PROC	; std::allocator<ioHashString>::allocator<ioHashString>, COMDAT
; _this$ = ecx

; 165  : 	_ALLOCATOR(const _ALLOCATOR<_Ty>&) _THROW0()

  00000	8b c1		 mov	 eax, ecx

; 166  : 		{	// construct by copying (do nothing)
; 167  : 		}

  00002	c2 04 00	 ret	 4
??0?$allocator@VioHashString@@@std@@QAE@ABV01@@Z ENDP	; std::allocator<ioHashString>::allocator<ioHashString>
_TEXT	ENDS
PUBLIC	??1?$_Vector_val@HV?$allocator@H@std@@@std@@QAE@XZ ; std::_Vector_val<int,std::allocator<int> >::~_Vector_val<int,std::allocator<int> >
; Function compile flags: /Ogsp
; File c:\program files (x86)\microsoft visual studio 10.0\vc\include\vector
;	COMDAT ??1?$_Vector_val@HV?$allocator@H@std@@@std@@QAE@XZ
_TEXT	SEGMENT
??1?$_Vector_val@HV?$allocator@H@std@@@std@@QAE@XZ PROC	; std::_Vector_val<int,std::allocator<int> >::~_Vector_val<int,std::allocator<int> >, COMDAT
; _this$ = ecx

; 434  : 		}

  00000	c3		 ret	 0
??1?$_Vector_val@HV?$allocator@H@std@@@std@@QAE@XZ ENDP	; std::_Vector_val<int,std::allocator<int> >::~_Vector_val<int,std::allocator<int> >
_TEXT	ENDS
PUBLIC	??0?$_Vector_const_iterator@V?$_Vector_val@HV?$allocator@H@std@@@std@@@std@@QAE@PAHPBU_Container_base0@1@@Z ; std::_Vector_const_iterator<std::_Vector_val<int,std::allocator<int> > >::_Vector_const_iterator<std::_Vector_val<int,std::allocator<int> > >
; Function compile flags: /Ogsp
;	COMDAT ??0?$_Vector_const_iterator@V?$_Vector_val@HV?$allocator@H@std@@@std@@@std@@QAE@PAHPBU_Container_base0@1@@Z
_TEXT	SEGMENT
__Parg$ = 8						; size = 4
__Pvector$ = 12						; size = 4
??0?$_Vector_const_iterator@V?$_Vector_val@HV?$allocator@H@std@@@std@@@std@@QAE@PAHPBU_Container_base0@1@@Z PROC ; std::_Vector_const_iterator<std::_Vector_val<int,std::allocator<int> > >::_Vector_const_iterator<std::_Vector_val<int,std::allocator<int> > >, COMDAT
; _this$ = ecx

; 45   : 		{	// construct with pointer _Parg

  00000	55		 push	 ebp
  00001	8b ec		 mov	 ebp, esp
  00003	8b c1		 mov	 eax, ecx
  00005	8b 4d 08	 mov	 ecx, DWORD PTR __Parg$[ebp]
  00008	89 08		 mov	 DWORD PTR [eax], ecx

; 46   : 		this->_Adopt(_Pvector);
; 47   : 		}

  0000a	5d		 pop	 ebp
  0000b	c2 08 00	 ret	 8
??0?$_Vector_const_iterator@V?$_Vector_val@HV?$allocator@H@std@@@std@@@std@@QAE@PAHPBU_Container_base0@1@@Z ENDP ; std::_Vector_const_iterator<std::_Vector_val<int,std::allocator<int> > >::_Vector_const_iterator<std::_Vector_val<int,std::allocator<int> > >
_TEXT	ENDS
PUBLIC	??0?$_Vector_iterator@V?$_Vector_val@HV?$allocator@H@std@@@std@@@std@@QAE@PAHPBU_Container_base0@1@@Z ; std::_Vector_iterator<std::_Vector_val<int,std::allocator<int> > >::_Vector_iterator<std::_Vector_val<int,std::allocator<int> > >
; Function compile flags: /Ogsp
;	COMDAT ??0?$_Vector_iterator@V?$_Vector_val@HV?$allocator@H@std@@@std@@@std@@QAE@PAHPBU_Container_base0@1@@Z
_TEXT	SEGMENT
__Parg$ = 8						; size = 4
__Pvector$ = 12						; size = 4
??0?$_Vector_iterator@V?$_Vector_val@HV?$allocator@H@std@@@std@@@std@@QAE@PAHPBU_Container_base0@1@@Z PROC ; std::_Vector_iterator<std::_Vector_val<int,std::allocator<int> > >::_Vector_iterator<std::_Vector_val<int,std::allocator<int> > >, COMDAT
; _this$ = ecx

; 304  : 		{	// construct with pointer _Parg

  00000	55		 push	 ebp
  00001	8b ec		 mov	 ebp, esp
  00003	8b c1		 mov	 eax, ecx
  00005	8b 4d 08	 mov	 ecx, DWORD PTR __Parg$[ebp]
  00008	89 08		 mov	 DWORD PTR [eax], ecx

; 305  : 		}

  0000a	5d		 pop	 ebp
  0000b	c2 08 00	 ret	 8
??0?$_Vector_iterator@V?$_Vector_val@HV?$allocator@H@std@@@std@@@std@@QAE@PAHPBU_Container_base0@1@@Z ENDP ; std::_Vector_iterator<std::_Vector_val<int,std::allocator<int> > >::_Vector_iterator<std::_Vector_val<int,std::allocator<int> > >
_TEXT	ENDS
PUBLIC	??0?$allocator@H@std@@QAE@ABV01@@Z		; std::allocator<int>::allocator<int>
; Function compile flags: /Ogsp
; File c:\program files (x86)\microsoft visual studio 10.0\vc\include\xmemory
;	COMDAT ??0?$allocator@H@std@@QAE@ABV01@@Z
_TEXT	SEGMENT
___formal$ = 8						; size = 4
??0?$allocator@H@std@@QAE@ABV01@@Z PROC			; std::allocator<int>::allocator<int>, COMDAT
; _this$ = ecx

; 165  : 	_ALLOCATOR(const _ALLOCATOR<_Ty>&) _THROW0()

  00000	8b c1		 mov	 eax, ecx

; 166  : 		{	// construct by copying (do nothing)
; 167  : 		}

  00002	c2 04 00	 ret	 4
??0?$allocator@H@std@@QAE@ABV01@@Z ENDP			; std::allocator<int>::allocator<int>
_TEXT	ENDS
PUBLIC	?deallocate@?$allocator@H@std@@QAEXPAHI@Z	; std::allocator<int>::deallocate
; Function compile flags: /Ogsp
;	COMDAT ?deallocate@?$allocator@H@std@@QAEXPAHI@Z
_TEXT	SEGMENT
__Ptr$ = 8						; size = 4
___formal$ = 12						; size = 4
?deallocate@?$allocator@H@std@@QAEXPAHI@Z PROC		; std::allocator<int>::deallocate, COMDAT
; _this$ = ecx

; 181  : 		{	// deallocate object at _Ptr, ignore size

  00000	55		 push	 ebp
  00001	8b ec		 mov	 ebp, esp

; 182  : 		::operator delete(_Ptr);

  00003	ff 75 08	 push	 DWORD PTR __Ptr$[ebp]
  00006	e8 00 00 00 00	 call	 ??3@YAXPAX@Z		; operator delete
  0000b	59		 pop	 ecx

; 183  : 		}

  0000c	5d		 pop	 ebp
  0000d	c2 08 00	 ret	 8
?deallocate@?$allocator@H@std@@QAEXPAHI@Z ENDP		; std::allocator<int>::deallocate
_TEXT	ENDS
PUBLIC	?_Xlen@?$vector@VioHashString@@V?$allocator@VioHashString@@@std@@@std@@IBEXXZ ; std::vector<ioHashString,std::allocator<ioHashString> >::_Xlen
; Function compile flags: /Ogsp
; File c:\program files (x86)\microsoft visual studio 10.0\vc\include\vector
;	COMDAT ?_Xlen@?$vector@VioHashString@@V?$allocator@VioHashString@@@std@@@std@@IBEXXZ
_TEXT	SEGMENT
?_Xlen@?$vector@VioHashString@@V?$allocator@VioHashString@@@std@@@std@@IBEXXZ PROC ; std::vector<ioHashString,std::allocator<ioHashString> >::_Xlen, COMDAT
; _this$ = ecx

; 1427 : 		_Xlength_error("vector<T> too long");

  00000	68 00 00 00 00	 push	 OFFSET ??_C@_0BD@OLBABOEK@vector?$DMT?$DO?5too?5long?$AA@
  00005	ff 15 00 00 00
	00		 call	 DWORD PTR __imp_?_Xlength_error@std@@YAXPBD@Z
$LN4@Xlen@3:
$LN3@Xlen@3:
  0000b	cc		 int	 3
?_Xlen@?$vector@VioHashString@@V?$allocator@VioHashString@@@std@@@std@@IBEXXZ ENDP ; std::vector<ioHashString,std::allocator<ioHashString> >::_Xlen
_TEXT	ENDS
PUBLIC	?deallocate@?$allocator@VioHashString@@@std@@QAEXPAVioHashString@@I@Z ; std::allocator<ioHashString>::deallocate
; Function compile flags: /Ogsp
; File c:\program files (x86)\microsoft visual studio 10.0\vc\include\xmemory
;	COMDAT ?deallocate@?$allocator@VioHashString@@@std@@QAEXPAVioHashString@@I@Z
_TEXT	SEGMENT
__Ptr$ = 8						; size = 4
___formal$ = 12						; size = 4
?deallocate@?$allocator@VioHashString@@@std@@QAEXPAVioHashString@@I@Z PROC ; std::allocator<ioHashString>::deallocate, COMDAT
; _this$ = ecx

; 181  : 		{	// deallocate object at _Ptr, ignore size

  00000	55		 push	 ebp
  00001	8b ec		 mov	 ebp, esp

; 182  : 		::operator delete(_Ptr);

  00003	ff 75 08	 push	 DWORD PTR __Ptr$[ebp]
  00006	e8 00 00 00 00	 call	 ??3@YAXPAX@Z		; operator delete
  0000b	59		 pop	 ecx

; 183  : 		}

  0000c	5d		 pop	 ebp
  0000d	c2 08 00	 ret	 8
?deallocate@?$allocator@VioHashString@@@std@@QAEXPAVioHashString@@I@Z ENDP ; std::allocator<ioHashString>::deallocate
_TEXT	ENDS
PUBLIC	?capacity@?$vector@HV?$allocator@H@std@@@std@@QBEIXZ ; std::vector<int,std::allocator<int> >::capacity
; Function compile flags: /Ogsp
; File c:\program files (x86)\microsoft visual studio 10.0\vc\include\vector
;	COMDAT ?capacity@?$vector@HV?$allocator@H@std@@@std@@QBEIXZ
_TEXT	SEGMENT
?capacity@?$vector@HV?$allocator@H@std@@@std@@QBEIXZ PROC ; std::vector<int,std::allocator<int> >::capacity, COMDAT
; _this$ = ecx

; 777  : 		return (this->_Myend - this->_Myfirst);

  00000	8b 41 08	 mov	 eax, DWORD PTR [ecx+8]
  00003	2b 01		 sub	 eax, DWORD PTR [ecx]
  00005	c1 f8 02	 sar	 eax, 2

; 778  : 		}

  00008	c3		 ret	 0
?capacity@?$vector@HV?$allocator@H@std@@@std@@QBEIXZ ENDP ; std::vector<int,std::allocator<int> >::capacity
_TEXT	ENDS
PUBLIC	?_Make_iter@?$vector@HV?$allocator@H@std@@@std@@QBE?AV?$_Vector_iterator@V?$_Vector_val@HV?$allocator@H@std@@@std@@@2@V?$_Vector_const_iterator@V?$_Vector_val@HV?$allocator@H@std@@@std@@@2@@Z ; std::vector<int,std::allocator<int> >::_Make_iter
; Function compile flags: /Ogsp
;	COMDAT ?_Make_iter@?$vector@HV?$allocator@H@std@@@std@@QBE?AV?$_Vector_iterator@V?$_Vector_val@HV?$allocator@H@std@@@std@@@2@V?$_Vector_const_iterator@V?$_Vector_val@HV?$allocator@H@std@@@std@@@2@@Z
_TEXT	SEGMENT
___$ReturnUdt$ = 8					; size = 4
__Where$ = 12						; size = 4
?_Make_iter@?$vector@HV?$allocator@H@std@@@std@@QBE?AV?$_Vector_iterator@V?$_Vector_val@HV?$allocator@H@std@@@std@@@2@V?$_Vector_const_iterator@V?$_Vector_val@HV?$allocator@H@std@@@std@@@2@@Z PROC ; std::vector<int,std::allocator<int> >::_Make_iter, COMDAT
; _this$ = ecx

; 801  : 		{	// make iterator from const_iterator

  00000	55		 push	 ebp
  00001	8b ec		 mov	 ebp, esp

; 802  : 		return (iterator(_Where._Ptr, this));

  00003	8b 45 08	 mov	 eax, DWORD PTR ___$ReturnUdt$[ebp]
  00006	8b 4d 0c	 mov	 ecx, DWORD PTR __Where$[ebp]
  00009	89 08		 mov	 DWORD PTR [eax], ecx

; 803  : 		}

  0000b	5d		 pop	 ebp
  0000c	c2 08 00	 ret	 8
?_Make_iter@?$vector@HV?$allocator@H@std@@@std@@QBE?AV?$_Vector_iterator@V?$_Vector_val@HV?$allocator@H@std@@@std@@@2@V?$_Vector_const_iterator@V?$_Vector_val@HV?$allocator@H@std@@@std@@@2@@Z ENDP ; std::vector<int,std::allocator<int> >::_Make_iter
_TEXT	ENDS
PUBLIC	?_Xlen@?$vector@HV?$allocator@H@std@@@std@@IBEXXZ ; std::vector<int,std::allocator<int> >::_Xlen
; Function compile flags: /Ogsp
;	COMDAT ?_Xlen@?$vector@HV?$allocator@H@std@@@std@@IBEXXZ
_TEXT	SEGMENT
?_Xlen@?$vector@HV?$allocator@H@std@@@std@@IBEXXZ PROC	; std::vector<int,std::allocator<int> >::_Xlen, COMDAT
; _this$ = ecx

; 1427 : 		_Xlength_error("vector<T> too long");

  00000	68 00 00 00 00	 push	 OFFSET ??_C@_0BD@OLBABOEK@vector?$DMT?$DO?5too?5long?$AA@
  00005	ff 15 00 00 00
	00		 call	 DWORD PTR __imp_?_Xlength_error@std@@YAXPBD@Z
$LN4@Xlen@4:
$LN3@Xlen@4:
  0000b	cc		 int	 3
?_Xlen@?$vector@HV?$allocator@H@std@@@std@@IBEXXZ ENDP	; std::vector<int,std::allocator<int> >::_Xlen
_TEXT	ENDS
PUBLIC	??0?$_Vector_const_iterator@V?$_Vector_val@VioHashString@@V?$allocator@VioHashString@@@std@@@std@@@std@@QAE@PAVioHashString@@PBU_Container_base0@1@@Z ; std::_Vector_const_iterator<std::_Vector_val<ioHashString,std::allocator<ioHashString> > >::_Vector_const_iterator<std::_Vector_val<ioHashString,std::allocator<ioHashString> > >
; Function compile flags: /Ogsp
;	COMDAT ??0?$_Vector_const_iterator@V?$_Vector_val@VioHashString@@V?$allocator@VioHashString@@@std@@@std@@@std@@QAE@PAVioHashString@@PBU_Container_base0@1@@Z
_TEXT	SEGMENT
__Parg$ = 8						; size = 4
__Pvector$ = 12						; size = 4
??0?$_Vector_const_iterator@V?$_Vector_val@VioHashString@@V?$allocator@VioHashString@@@std@@@std@@@std@@QAE@PAVioHashString@@PBU_Container_base0@1@@Z PROC ; std::_Vector_const_iterator<std::_Vector_val<ioHashString,std::allocator<ioHashString> > >::_Vector_const_iterator<std::_Vector_val<ioHashString,std::allocator<ioHashString> > >, COMDAT
; _this$ = ecx

; 45   : 		{	// construct with pointer _Parg

  00000	55		 push	 ebp
  00001	8b ec		 mov	 ebp, esp
  00003	8b c1		 mov	 eax, ecx
  00005	8b 4d 08	 mov	 ecx, DWORD PTR __Parg$[ebp]
  00008	89 08		 mov	 DWORD PTR [eax], ecx

; 46   : 		this->_Adopt(_Pvector);
; 47   : 		}

  0000a	5d		 pop	 ebp
  0000b	c2 08 00	 ret	 8
??0?$_Vector_const_iterator@V?$_Vector_val@VioHashString@@V?$allocator@VioHashString@@@std@@@std@@@std@@QAE@PAVioHashString@@PBU_Container_base0@1@@Z ENDP ; std::_Vector_const_iterator<std::_Vector_val<ioHashString,std::allocator<ioHashString> > >::_Vector_const_iterator<std::_Vector_val<ioHashString,std::allocator<ioHashString> > >
_TEXT	ENDS
PUBLIC	??0?$_Vector_iterator@V?$_Vector_val@VioHashString@@V?$allocator@VioHashString@@@std@@@std@@@std@@QAE@PAVioHashString@@PBU_Container_base0@1@@Z ; std::_Vector_iterator<std::_Vector_val<ioHashString,std::allocator<ioHashString> > >::_Vector_iterator<std::_Vector_val<ioHashString,std::allocator<ioHashString> > >
; Function compile flags: /Ogsp
;	COMDAT ??0?$_Vector_iterator@V?$_Vector_val@VioHashString@@V?$allocator@VioHashString@@@std@@@std@@@std@@QAE@PAVioHashString@@PBU_Container_base0@1@@Z
_TEXT	SEGMENT
__Parg$ = 8						; size = 4
__Pvector$ = 12						; size = 4
??0?$_Vector_iterator@V?$_Vector_val@VioHashString@@V?$allocator@VioHashString@@@std@@@std@@@std@@QAE@PAVioHashString@@PBU_Container_base0@1@@Z PROC ; std::_Vector_iterator<std::_Vector_val<ioHashString,std::allocator<ioHashString> > >::_Vector_iterator<std::_Vector_val<ioHashString,std::allocator<ioHashString> > >, COMDAT
; _this$ = ecx

; 304  : 		{	// construct with pointer _Parg

  00000	55		 push	 ebp
  00001	8b ec		 mov	 ebp, esp
  00003	8b c1		 mov	 eax, ecx
  00005	8b 4d 08	 mov	 ecx, DWORD PTR __Parg$[ebp]
  00008	89 08		 mov	 DWORD PTR [eax], ecx

; 305  : 		}

  0000a	5d		 pop	 ebp
  0000b	c2 08 00	 ret	 8
??0?$_Vector_iterator@V?$_Vector_val@VioHashString@@V?$allocator@VioHashString@@@std@@@std@@@std@@QAE@PAVioHashString@@PBU_Container_base0@1@@Z ENDP ; std::_Vector_iterator<std::_Vector_val<ioHashString,std::allocator<ioHashString> > >::_Vector_iterator<std::_Vector_val<ioHashString,std::allocator<ioHashString> > >
_TEXT	ENDS
PUBLIC	?max_size@?$allocator@H@std@@QBEIXZ		; std::allocator<int>::max_size
; Function compile flags: /Ogsp
; File c:\program files (x86)\microsoft visual studio 10.0\vc\include\xmemory
;	COMDAT ?max_size@?$allocator@H@std@@QBEIXZ
_TEXT	SEGMENT
?max_size@?$allocator@H@std@@QBEIXZ PROC		; std::allocator<int>::max_size, COMDAT
; _this$ = ecx

; 218  : 		_SIZT _Count = (_SIZT)(-1) / sizeof (_Ty);
; 219  : 		return (0 < _Count ? _Count : 1);

  00000	b8 ff ff ff 3f	 mov	 eax, 1073741823		; 3fffffffH

; 220  : 		}

  00005	c3		 ret	 0
?max_size@?$allocator@H@std@@QBEIXZ ENDP		; std::allocator<int>::max_size
_TEXT	ENDS
PUBLIC	?max_size@?$allocator@VioHashString@@@std@@QBEIXZ ; std::allocator<ioHashString>::max_size
; Function compile flags: /Ogsp
;	COMDAT ?max_size@?$allocator@VioHashString@@@std@@QBEIXZ
_TEXT	SEGMENT
?max_size@?$allocator@VioHashString@@@std@@QBEIXZ PROC	; std::allocator<ioHashString>::max_size, COMDAT
; _this$ = ecx

; 218  : 		_SIZT _Count = (_SIZT)(-1) / sizeof (_Ty);
; 219  : 		return (0 < _Count ? _Count : 1);

  00000	b8 ff ff ff 0f	 mov	 eax, 268435455		; 0fffffffH

; 220  : 		}

  00005	c3		 ret	 0
?max_size@?$allocator@VioHashString@@@std@@QBEIXZ ENDP	; std::allocator<ioHashString>::max_size
_TEXT	ENDS
PUBLIC	?_Compat@?$_Vector_const_iterator@V?$_Vector_val@HV?$allocator@H@std@@@std@@@std@@QBEXABV12@@Z ; std::_Vector_const_iterator<std::_Vector_val<int,std::allocator<int> > >::_Compat
; Function compile flags: /Ogsp
; File c:\program files (x86)\microsoft visual studio 10.0\vc\include\vector
;	COMDAT ?_Compat@?$_Vector_const_iterator@V?$_Vector_val@HV?$allocator@H@std@@@std@@@std@@QBEXABV12@@Z
_TEXT	SEGMENT
___formal$ = 8						; size = 4
?_Compat@?$_Vector_const_iterator@V?$_Vector_val@HV?$allocator@H@std@@@std@@@std@@QBEXABV12@@Z PROC ; std::_Vector_const_iterator<std::_Vector_val<int,std::allocator<int> > >::_Compat, COMDAT
; _this$ = ecx

; 253  : 		}

  00000	c2 04 00	 ret	 4
?_Compat@?$_Vector_const_iterator@V?$_Vector_val@HV?$allocator@H@std@@@std@@@std@@QBEXABV12@@Z ENDP ; std::_Vector_const_iterator<std::_Vector_val<int,std::allocator<int> > >::_Compat
_TEXT	ENDS
PUBLIC	?_Compat@?$_Vector_const_iterator@V?$_Vector_val@VioHashString@@V?$allocator@VioHashString@@@std@@@std@@@std@@QBEXABV12@@Z ; std::_Vector_const_iterator<std::_Vector_val<ioHashString,std::allocator<ioHashString> > >::_Compat
; Function compile flags: /Ogsp
;	COMDAT ?_Compat@?$_Vector_const_iterator@V?$_Vector_val@VioHashString@@V?$allocator@VioHashString@@@std@@@std@@@std@@QBEXABV12@@Z
_TEXT	SEGMENT
___formal$ = 8						; size = 4
?_Compat@?$_Vector_const_iterator@V?$_Vector_val@VioHashString@@V?$allocator@VioHashString@@@std@@@std@@@std@@QBEXABV12@@Z PROC ; std::_Vector_const_iterator<std::_Vector_val<ioHashString,std::allocator<ioHashString> > >::_Compat, COMDAT
; _this$ = ecx

; 253  : 		}

  00000	c2 04 00	 ret	 4
?_Compat@?$_Vector_const_iterator@V?$_Vector_val@VioHashString@@V?$allocator@VioHashString@@@std@@@std@@@std@@QBEXABV12@@Z ENDP ; std::_Vector_const_iterator<std::_Vector_val<ioHashString,std::allocator<ioHashString> > >::_Compat
_TEXT	ENDS
PUBLIC	??$_Allocate@VioHashString@@@std@@YAPAVioHashString@@IPAV1@@Z ; std::_Allocate<ioHashString>
; Function compile flags: /Ogsp
; File c:\program files (x86)\microsoft visual studio 10.0\vc\include\xmemory
;	COMDAT ??$_Allocate@VioHashString@@@std@@YAPAVioHashString@@IPAV1@@Z
_TEXT	SEGMENT
$T520173 = -12						; size = 12
$T520177 = 8						; size = 4
__Count$ = 8						; size = 4
___formal$ = 12						; size = 4
??$_Allocate@VioHashString@@@std@@YAPAVioHashString@@IPAV1@@Z PROC ; std::_Allocate<ioHashString>, COMDAT

; 30   : 	{	// allocate storage for _Count elements of type _Ty

  00000	55		 push	 ebp
  00001	8b ec		 mov	 ebp, esp

; 31   : 	void *_Ptr = 0;
; 32   : 
; 33   : 	if (_Count <= 0)

  00003	8b 4d 08	 mov	 ecx, DWORD PTR __Count$[ebp]
  00006	83 ec 0c	 sub	 esp, 12			; 0000000cH
  00009	33 c0		 xor	 eax, eax
  0000b	85 c9		 test	 ecx, ecx

; 34   : 		_Count = 0;
; 35   : 	else if (((_SIZT)(-1) / sizeof (_Ty) < _Count)

  0000d	74 3c		 je	 SHORT $LN5@Allocate@2

; 36   : 		|| (_Ptr = ::operator new(_Count * sizeof (_Ty))) == 0)

  0000f	81 f9 ff ff ff
	0f		 cmp	 ecx, 268435455		; 0fffffffH
  00015	77 0e		 ja	 SHORT $LN1@Allocate@2
  00017	c1 e1 04	 shl	 ecx, 4
  0001a	51		 push	 ecx
  0001b	e8 00 00 00 00	 call	 ??2@YAPAXI@Z		; operator new
  00020	59		 pop	 ecx
  00021	85 c0		 test	 eax, eax

; 38   : 
; 39   : 	return ((_Ty _FARQ *)_Ptr);

  00023	75 26		 jne	 SHORT $LN5@Allocate@2
$LN1@Allocate@2:

; 37   : 		_THROW_NCEE(bad_alloc, 0);

  00025	83 65 08 00	 and	 DWORD PTR $T520177[ebp], 0
  00029	8d 45 08	 lea	 eax, DWORD PTR $T520177[ebp]
  0002c	50		 push	 eax
  0002d	8d 4d f4	 lea	 ecx, DWORD PTR $T520173[ebp]
  00030	ff 15 00 00 00
	00		 call	 DWORD PTR __imp_??0exception@std@@QAE@ABQBD@Z
  00036	68 00 00 00 00	 push	 OFFSET __TI2?AVbad_alloc@std@@
  0003b	8d 45 f4	 lea	 eax, DWORD PTR $T520173[ebp]
  0003e	50		 push	 eax
  0003f	c7 45 f4 00 00
	00 00		 mov	 DWORD PTR $T520173[ebp], OFFSET ??_7bad_alloc@std@@6B@
  00046	e8 00 00 00 00	 call	 __CxxThrowException@8
$LN10@Allocate@2:
$LN5@Allocate@2:

; 40   : 	}

  0004b	c9		 leave
  0004c	c3		 ret	 0
$LN9@Allocate@2:
??$_Allocate@VioHashString@@@std@@YAPAVioHashString@@IPAV1@@Z ENDP ; std::_Allocate<ioHashString>
_TEXT	ENDS
PUBLIC	??$_Allocate@H@std@@YAPAHIPAH@Z			; std::_Allocate<int>
; Function compile flags: /Ogsp
;	COMDAT ??$_Allocate@H@std@@YAPAHIPAH@Z
_TEXT	SEGMENT
$T520182 = -12						; size = 12
$T520186 = 8						; size = 4
__Count$ = 8						; size = 4
___formal$ = 12						; size = 4
??$_Allocate@H@std@@YAPAHIPAH@Z PROC			; std::_Allocate<int>, COMDAT

; 30   : 	{	// allocate storage for _Count elements of type _Ty

  00000	55		 push	 ebp
  00001	8b ec		 mov	 ebp, esp

; 31   : 	void *_Ptr = 0;
; 32   : 
; 33   : 	if (_Count <= 0)

  00003	8b 4d 08	 mov	 ecx, DWORD PTR __Count$[ebp]
  00006	83 ec 0c	 sub	 esp, 12			; 0000000cH
  00009	33 c0		 xor	 eax, eax
  0000b	85 c9		 test	 ecx, ecx

; 34   : 		_Count = 0;
; 35   : 	else if (((_SIZT)(-1) / sizeof (_Ty) < _Count)

  0000d	74 3e		 je	 SHORT $LN5@Allocate@3

; 36   : 		|| (_Ptr = ::operator new(_Count * sizeof (_Ty))) == 0)

  0000f	81 f9 ff ff ff
	3f		 cmp	 ecx, 1073741823		; 3fffffffH
  00015	77 10		 ja	 SHORT $LN1@Allocate@3
  00017	8b c1		 mov	 eax, ecx
  00019	c1 e0 02	 shl	 eax, 2
  0001c	50		 push	 eax
  0001d	e8 00 00 00 00	 call	 ??2@YAPAXI@Z		; operator new
  00022	59		 pop	 ecx
  00023	85 c0		 test	 eax, eax

; 38   : 
; 39   : 	return ((_Ty _FARQ *)_Ptr);

  00025	75 26		 jne	 SHORT $LN5@Allocate@3
$LN1@Allocate@3:

; 37   : 		_THROW_NCEE(bad_alloc, 0);

  00027	83 65 08 00	 and	 DWORD PTR $T520186[ebp], 0
  0002b	8d 45 08	 lea	 eax, DWORD PTR $T520186[ebp]
  0002e	50		 push	 eax
  0002f	8d 4d f4	 lea	 ecx, DWORD PTR $T520182[ebp]
  00032	ff 15 00 00 00
	00		 call	 DWORD PTR __imp_??0exception@std@@QAE@ABQBD@Z
  00038	68 00 00 00 00	 push	 OFFSET __TI2?AVbad_alloc@std@@
  0003d	8d 45 f4	 lea	 eax, DWORD PTR $T520182[ebp]
  00040	50		 push	 eax
  00041	c7 45 f4 00 00
	00 00		 mov	 DWORD PTR $T520182[ebp], OFFSET ??_7bad_alloc@std@@6B@
  00048	e8 00 00 00 00	 call	 __CxxThrowException@8
$LN10@Allocate@3:
$LN5@Allocate@3:

; 40   : 	}

  0004d	c9		 leave
  0004e	c3		 ret	 0
$LN9@Allocate@3:
??$_Allocate@H@std@@YAPAHIPAH@Z ENDP			; std::_Allocate<int>
_TEXT	ENDS
EXTRN	__imp_??0exception@std@@QAE@ABV01@@Z:PROC
; Function compile flags: /Ogsp
;	COMDAT ??0bad_alloc@std@@QAE@ABV01@@Z
_TEXT	SEGMENT
___that$ = 8						; size = 4
??0bad_alloc@std@@QAE@ABV01@@Z PROC			; std::bad_alloc::bad_alloc, COMDAT
; _this$ = ecx
  00000	55		 push	 ebp
  00001	8b ec		 mov	 ebp, esp
  00003	56		 push	 esi
  00004	ff 75 08	 push	 DWORD PTR ___that$[ebp]
  00007	8b f1		 mov	 esi, ecx
  00009	ff 15 00 00 00
	00		 call	 DWORD PTR __imp_??0exception@std@@QAE@ABV01@@Z
  0000f	c7 06 00 00 00
	00		 mov	 DWORD PTR [esi], OFFSET ??_7bad_alloc@std@@6B@
  00015	8b c6		 mov	 eax, esi
  00017	5e		 pop	 esi
  00018	5d		 pop	 ebp
  00019	c2 04 00	 ret	 4
??0bad_alloc@std@@QAE@ABV01@@Z ENDP			; std::bad_alloc::bad_alloc
_TEXT	ENDS
PUBLIC	??$forward@ABVioHashString@@@std@@YAABVioHashString@@ABV1@@Z ; std::forward<ioHashString const &>
; Function compile flags: /Ogsp
; File c:\program files (x86)\microsoft visual studio 10.0\vc\include\utility
;	COMDAT ??$forward@ABVioHashString@@@std@@YAABVioHashString@@ABV1@@Z
_TEXT	SEGMENT
__Arg$ = 8						; size = 4
??$forward@ABVioHashString@@@std@@YAABVioHashString@@ABV1@@Z PROC ; std::forward<ioHashString const &>, COMDAT

; 78   : 	{	// forward _Arg, given explicitly specified type parameter

  00000	55		 push	 ebp
  00001	8b ec		 mov	 ebp, esp

; 79   : 	return ((_Ty&&)_Arg);

  00003	8b 45 08	 mov	 eax, DWORD PTR __Arg$[ebp]

; 80   : 	}

  00006	5d		 pop	 ebp
  00007	c3		 ret	 0
??$forward@ABVioHashString@@@std@@YAABVioHashString@@ABV1@@Z ENDP ; std::forward<ioHashString const &>
_TEXT	ENDS
PUBLIC	??$forward@AAVioHashString@@@std@@YAAAVioHashString@@AAV1@@Z ; std::forward<ioHashString &>
; Function compile flags: /Ogsp
;	COMDAT ??$forward@AAVioHashString@@@std@@YAAAVioHashString@@AAV1@@Z
_TEXT	SEGMENT
__Arg$ = 8						; size = 4
??$forward@AAVioHashString@@@std@@YAAAVioHashString@@AAV1@@Z PROC ; std::forward<ioHashString &>, COMDAT

; 78   : 	{	// forward _Arg, given explicitly specified type parameter

  00000	55		 push	 ebp
  00001	8b ec		 mov	 ebp, esp

; 79   : 	return ((_Ty&&)_Arg);

  00003	8b 45 08	 mov	 eax, DWORD PTR __Arg$[ebp]

; 80   : 	}

  00006	5d		 pop	 ebp
  00007	c3		 ret	 0
??$forward@AAVioHashString@@@std@@YAAAVioHashString@@AAV1@@Z ENDP ; std::forward<ioHashString &>
_TEXT	ENDS
PUBLIC	??$forward@AAH@std@@YAAAHAAH@Z			; std::forward<int &>
; Function compile flags: /Ogsp
;	COMDAT ??$forward@AAH@std@@YAAAHAAH@Z
_TEXT	SEGMENT
__Arg$ = 8						; size = 4
??$forward@AAH@std@@YAAAHAAH@Z PROC			; std::forward<int &>, COMDAT

; 78   : 	{	// forward _Arg, given explicitly specified type parameter

  00000	55		 push	 ebp
  00001	8b ec		 mov	 ebp, esp

; 79   : 	return ((_Ty&&)_Arg);

  00003	8b 45 08	 mov	 eax, DWORD PTR __Arg$[ebp]

; 80   : 	}

  00006	5d		 pop	 ebp
  00007	c3		 ret	 0
??$forward@AAH@std@@YAAAHAAH@Z ENDP			; std::forward<int &>
_TEXT	ENDS
PUBLIC	??$_Val_type@PAH@std@@YAPAHPAH@Z		; std::_Val_type<int *>
; Function compile flags: /Ogsp
; File c:\program files (x86)\microsoft visual studio 10.0\vc\include\xutility
;	COMDAT ??$_Val_type@PAH@std@@YAPAHPAH@Z
_TEXT	SEGMENT
___formal$ = 8						; size = 4
??$_Val_type@PAH@std@@YAPAHPAH@Z PROC			; std::_Val_type<int *>, COMDAT

; 790  : 	return (0);

  00000	33 c0		 xor	 eax, eax

; 791  : 	}

  00002	c3		 ret	 0
??$_Val_type@PAH@std@@YAPAHPAH@Z ENDP			; std::_Val_type<int *>
_TEXT	ENDS
PUBLIC	??$_Ptr_cat@HH@std@@YA?AU_Scalar_ptr_iterator_tag@0@PAH0@Z ; std::_Ptr_cat<int,int>
; Function compile flags: /Ogsp
;	COMDAT ??$_Ptr_cat@HH@std@@YA?AU_Scalar_ptr_iterator_tag@0@PAH0@Z
_TEXT	SEGMENT
__Cat$ = -1						; size = 1
___formal$ = 8						; size = 4
___formal$ = 12						; size = 4
??$_Ptr_cat@HH@std@@YA?AU_Scalar_ptr_iterator_tag@0@PAH0@Z PROC ; std::_Ptr_cat<int,int>, COMDAT

; 516  : 	{	// return pointer category from pointers

  00000	55		 push	 ebp
  00001	8b ec		 mov	 ebp, esp
  00003	51		 push	 ecx

; 517  : 	typename _Ptr_cat_helper<_Elem1, _Elem2>::_Type _Cat;
; 518  : 	return (_Cat);

  00004	8a 45 ff	 mov	 al, BYTE PTR __Cat$[ebp]

; 519  : 	}

  00007	c9		 leave
  00008	c3		 ret	 0
??$_Ptr_cat@HH@std@@YA?AU_Scalar_ptr_iterator_tag@0@PAH0@Z ENDP ; std::_Ptr_cat<int,int>
_TEXT	ENDS
PUBLIC	??$_Ptr_cat@VioHashString@@V1@@std@@YA?AU_Nonscalar_ptr_iterator_tag@0@PAVioHashString@@0@Z ; std::_Ptr_cat<ioHashString,ioHashString>
; Function compile flags: /Ogsp
;	COMDAT ??$_Ptr_cat@VioHashString@@V1@@std@@YA?AU_Nonscalar_ptr_iterator_tag@0@PAVioHashString@@0@Z
_TEXT	SEGMENT
__Cat$ = -1						; size = 1
___formal$ = 8						; size = 4
___formal$ = 12						; size = 4
??$_Ptr_cat@VioHashString@@V1@@std@@YA?AU_Nonscalar_ptr_iterator_tag@0@PAVioHashString@@0@Z PROC ; std::_Ptr_cat<ioHashString,ioHashString>, COMDAT

; 516  : 	{	// return pointer category from pointers

  00000	55		 push	 ebp
  00001	8b ec		 mov	 ebp, esp
  00003	51		 push	 ecx

; 517  : 	typename _Ptr_cat_helper<_Elem1, _Elem2>::_Type _Cat;
; 518  : 	return (_Cat);

  00004	8a 45 ff	 mov	 al, BYTE PTR __Cat$[ebp]

; 519  : 	}

  00007	c9		 leave
  00008	c3		 ret	 0
??$_Ptr_cat@VioHashString@@V1@@std@@YA?AU_Nonscalar_ptr_iterator_tag@0@PAVioHashString@@0@Z ENDP ; std::_Ptr_cat<ioHashString,ioHashString>
_TEXT	ENDS
PUBLIC	??$_Move@PAHPAH@std@@YAPAHPAH00U_Scalar_ptr_iterator_tag@0@@Z ; std::_Move<int *,int *>
; Function compile flags: /Ogsp
;	COMDAT ??$_Move@PAHPAH@std@@YAPAHPAH00U_Scalar_ptr_iterator_tag@0@@Z
_TEXT	SEGMENT
__First$ = 8						; size = 4
__Last$ = 12						; size = 4
__Dest$ = 16						; size = 4
___formal$ = 20						; size = 1
??$_Move@PAHPAH@std@@YAPAHPAH00U_Scalar_ptr_iterator_tag@0@@Z PROC ; std::_Move<int *,int *>, COMDAT

; 2522 : 	{	// move [_First, _Last) to [_Dest, ...), pointers to scalars

  00000	55		 push	 ebp
  00001	8b ec		 mov	 ebp, esp
  00003	56		 push	 esi

; 2523 : 	ptrdiff_t _Count = _Last - _First;

  00004	8b 75 0c	 mov	 esi, DWORD PTR __Last$[ebp]
  00007	2b 75 08	 sub	 esi, DWORD PTR __First$[ebp]
  0000a	57		 push	 edi

; 2524 : 	_CSTD memmove(&*_Dest, &*_First,
; 2525 : 		_Count * sizeof (*_First));

  0000b	8b 7d 10	 mov	 edi, DWORD PTR __Dest$[ebp]
  0000e	c1 fe 02	 sar	 esi, 2
  00011	c1 e6 02	 shl	 esi, 2
  00014	56		 push	 esi
  00015	ff 75 08	 push	 DWORD PTR __First$[ebp]
  00018	57		 push	 edi
  00019	ff 15 00 00 00
	00		 call	 DWORD PTR __imp__memmove
  0001f	83 c4 0c	 add	 esp, 12			; 0000000cH

; 2526 : 	return (_Dest + _Count);

  00022	8d 04 3e	 lea	 eax, DWORD PTR [esi+edi]
  00025	5f		 pop	 edi
  00026	5e		 pop	 esi

; 2527 : 	}

  00027	5d		 pop	 ebp
  00028	c3		 ret	 0
??$_Move@PAHPAH@std@@YAPAHPAH00U_Scalar_ptr_iterator_tag@0@@Z ENDP ; std::_Move<int *,int *>
_TEXT	ENDS
PUBLIC	??$_Destroy_range@V?$allocator@H@std@@@std@@YAXPAH0AAV?$allocator@H@0@U_Scalar_ptr_iterator_tag@0@@Z ; std::_Destroy_range<std::allocator<int> >
; Function compile flags: /Ogsp
; File c:\program files (x86)\microsoft visual studio 10.0\vc\include\xmemory
;	COMDAT ??$_Destroy_range@V?$allocator@H@std@@@std@@YAXPAH0AAV?$allocator@H@0@U_Scalar_ptr_iterator_tag@0@@Z
_TEXT	SEGMENT
__First$ = 8						; size = 4
__Last$ = 12						; size = 4
__Al$ = 16						; size = 4
___formal$ = 20						; size = 1
??$_Destroy_range@V?$allocator@H@std@@@std@@YAXPAH0AAV?$allocator@H@0@U_Scalar_ptr_iterator_tag@0@@Z PROC ; std::_Destroy_range<std::allocator<int> >, COMDAT

; 105  : 	}

  00000	c3		 ret	 0
??$_Destroy_range@V?$allocator@H@std@@@std@@YAXPAH0AAV?$allocator@H@0@U_Scalar_ptr_iterator_tag@0@@Z ENDP ; std::_Destroy_range<std::allocator<int> >
_TEXT	ENDS
PUBLIC	??$move@AAVioHashString@@@std@@YA$$QAVioHashString@@AAV1@@Z ; std::move<ioHashString &>
; Function compile flags: /Ogsp
; File c:\program files (x86)\microsoft visual studio 10.0\vc\include\utility
;	COMDAT ??$move@AAVioHashString@@@std@@YA$$QAVioHashString@@AAV1@@Z
_TEXT	SEGMENT
__Arg$ = 8						; size = 4
??$move@AAVioHashString@@@std@@YA$$QAVioHashString@@AAV1@@Z PROC ; std::move<ioHashString &>, COMDAT

; 86   : 	{	// forward _Arg as movable

  00000	55		 push	 ebp
  00001	8b ec		 mov	 ebp, esp

; 87   : 	return ((typename tr1::_Remove_reference<_Ty>::_Type&&)_Arg);

  00003	8b 45 08	 mov	 eax, DWORD PTR __Arg$[ebp]

; 88   : 	}

  00006	5d		 pop	 ebp
  00007	c3		 ret	 0
??$move@AAVioHashString@@@std@@YA$$QAVioHashString@@AAV1@@Z ENDP ; std::move<ioHashString &>
_TEXT	ENDS
PUBLIC	??$_Uninit_move@HHH@std@@YAPAHPAH00AAV?$allocator@H@0@0U_Scalar_ptr_iterator_tag@0@@Z ; std::_Uninit_move<int,int,int>
; Function compile flags: /Ogsp
; File c:\program files (x86)\microsoft visual studio 10.0\vc\include\memory
;	COMDAT ??$_Uninit_move@HHH@std@@YAPAHPAH00AAV?$allocator@H@0@0U_Scalar_ptr_iterator_tag@0@@Z
_TEXT	SEGMENT
__First$ = 8						; size = 4
__Last$ = 12						; size = 4
__Dest$ = 16						; size = 4
___formal$ = 20						; size = 4
___formal$ = 24						; size = 4
___formal$ = 28						; size = 1
??$_Uninit_move@HHH@std@@YAPAHPAH00AAV?$allocator@H@0@0U_Scalar_ptr_iterator_tag@0@@Z PROC ; std::_Uninit_move<int,int,int>, COMDAT

; 456  : 	{	// move [_First, _Last) to raw _Dest, scalar type

  00000	55		 push	 ebp
  00001	8b ec		 mov	 ebp, esp
  00003	56		 push	 esi

; 457  : 	_DEBUG_RANGE(_First, _Last);
; 458  : 	_DEBUG_POINTER(_Dest);
; 459  : 	size_t _Count = (size_t)(_Last - _First);

  00004	8b 75 0c	 mov	 esi, DWORD PTR __Last$[ebp]
  00007	2b 75 08	 sub	 esi, DWORD PTR __First$[ebp]
  0000a	c1 fe 02	 sar	 esi, 2

; 460  : 	return ((_Ty2 *)_CSTD memmove(&*_Dest, &*_First,
; 461  : 		_Count * sizeof (*_First)) + _Count);	// NB: non-overlapping move

  0000d	c1 e6 02	 shl	 esi, 2
  00010	56		 push	 esi
  00011	ff 75 08	 push	 DWORD PTR __First$[ebp]
  00014	ff 75 10	 push	 DWORD PTR __Dest$[ebp]
  00017	ff 15 00 00 00
	00		 call	 DWORD PTR __imp__memmove
  0001d	83 c4 0c	 add	 esp, 12			; 0000000cH
  00020	03 c6		 add	 eax, esi
  00022	5e		 pop	 esi

; 462  : 	}

  00023	5d		 pop	 ebp
  00024	c3		 ret	 0
??$_Uninit_move@HHH@std@@YAPAHPAH00AAV?$allocator@H@0@0U_Scalar_ptr_iterator_tag@0@@Z ENDP ; std::_Uninit_move<int,int,int>
_TEXT	ENDS
PUBLIC	??_GioHashString@@QAEPAXI@Z			; ioHashString::`scalar deleting destructor'
EXTRN	__imp_??1ioHashString@@QAE@XZ:PROC
; Function compile flags: /Ogsp
;	COMDAT ??_GioHashString@@QAEPAXI@Z
_TEXT	SEGMENT
___flags$ = 8						; size = 4
??_GioHashString@@QAEPAXI@Z PROC			; ioHashString::`scalar deleting destructor', COMDAT
; _this$ = ecx
  00000	55		 push	 ebp
  00001	8b ec		 mov	 ebp, esp
  00003	56		 push	 esi
  00004	8b f1		 mov	 esi, ecx
  00006	ff 15 00 00 00
	00		 call	 DWORD PTR __imp_??1ioHashString@@QAE@XZ
  0000c	f6 45 08 01	 test	 BYTE PTR ___flags$[ebp], 1
  00010	74 07		 je	 SHORT $LN1@scalar@2
  00012	56		 push	 esi
  00013	e8 00 00 00 00	 call	 ??3@YAXPAX@Z		; operator delete
  00018	59		 pop	 ecx
$LN1@scalar@2:
  00019	8b c6		 mov	 eax, esi
  0001b	5e		 pop	 esi
  0001c	5d		 pop	 ebp
  0001d	c2 04 00	 ret	 4
??_GioHashString@@QAEPAXI@Z ENDP			; ioHashString::`scalar deleting destructor'
_TEXT	ENDS
PUBLIC	??$forward@H@std@@YA$$QAHAAH@Z			; std::forward<int>
; Function compile flags: /Ogsp
; File c:\program files (x86)\microsoft visual studio 10.0\vc\include\utility
;	COMDAT ??$forward@H@std@@YA$$QAHAAH@Z
_TEXT	SEGMENT
__Arg$ = 8						; size = 4
??$forward@H@std@@YA$$QAHAAH@Z PROC			; std::forward<int>, COMDAT

; 78   : 	{	// forward _Arg, given explicitly specified type parameter

  00000	55		 push	 ebp
  00001	8b ec		 mov	 ebp, esp

; 79   : 	return ((_Ty&&)_Arg);

  00003	8b 45 08	 mov	 eax, DWORD PTR __Arg$[ebp]

; 80   : 	}

  00006	5d		 pop	 ebp
  00007	c3		 ret	 0
??$forward@H@std@@YA$$QAHAAH@Z ENDP			; std::forward<int>
_TEXT	ENDS
PUBLIC	??$_Construct@VioHashString@@ABV1@@std@@YAXPAVioHashString@@ABV1@@Z ; std::_Construct<ioHashString,ioHashString const &>
EXTRN	__imp_??0ioHashString@@QAE@ABV0@@Z:PROC
EXTRN	___CxxFrameHandler3:PROC
EXTRN	@__security_check_cookie@4:PROC
EXTRN	__EH_epilog3:PROC
EXTRN	__EH_prolog3:PROC
;	COMDAT xdata$x
xdata$x	SEGMENT
__unwindtable$??$_Construct@VioHashString@@ABV1@@std@@YAXPAVioHashString@@ABV1@@Z DD 0ffffffffH
	DD	FLAT:__unwindfunclet$??$_Construct@VioHashString@@ABV1@@std@@YAXPAVioHashString@@ABV1@@Z$0
__ehfuncinfo$??$_Construct@VioHashString@@ABV1@@std@@YAXPAVioHashString@@ABV1@@Z DD 019930522H
	DD	01H
	DD	FLAT:__unwindtable$??$_Construct@VioHashString@@ABV1@@std@@YAXPAVioHashString@@ABV1@@Z
	DD	2 DUP(00H)
	DD	2 DUP(00H)
	DD	00H
	DD	01H
; Function compile flags: /Ogsp
; File c:\program files (x86)\microsoft visual studio 10.0\vc\include\xmemory
xdata$x	ENDS
;	COMDAT ??$_Construct@VioHashString@@ABV1@@std@@YAXPAVioHashString@@ABV1@@Z
_TEXT	SEGMENT
$T520221 = -16						; size = 4
__$EHRec$ = -12						; size = 12
__Vptr$ = 8						; size = 4
__Ptr$ = 8						; size = 4
__Val$ = 12						; size = 4
??$_Construct@VioHashString@@ABV1@@std@@YAXPAVioHashString@@ABV1@@Z PROC ; std::_Construct<ioHashString,ioHashString const &>, COMDAT

; 46   : 	{	// construct object at _Ptr with value _Val

  00000	6a 04		 push	 4
  00002	b8 00 00 00 00	 mov	 eax, __ehhandler$??$_Construct@VioHashString@@ABV1@@std@@YAXPAVioHashString@@ABV1@@Z
  00007	e8 00 00 00 00	 call	 __EH_prolog3

; 47   : 	void _FARQ *_Vptr = _Ptr;

  0000c	8b 4d 08	 mov	 ecx, DWORD PTR __Ptr$[ebp]
  0000f	89 4d 08	 mov	 DWORD PTR __Vptr$[ebp], ecx

; 48   : 	::new (_Vptr) _Ty1(_STD forward<_Ty2>(_Val));

  00012	89 4d f0	 mov	 DWORD PTR $T520221[ebp], ecx
  00015	83 65 fc 00	 and	 DWORD PTR __$EHRec$[ebp+8], 0
  00019	85 c9		 test	 ecx, ecx
  0001b	74 09		 je	 SHORT $LN3@Construct@2
  0001d	ff 75 0c	 push	 DWORD PTR __Val$[ebp]
  00020	ff 15 00 00 00
	00		 call	 DWORD PTR __imp_??0ioHashString@@QAE@ABV0@@Z
$LN3@Construct@2:

; 49   : 	}

  00026	e8 00 00 00 00	 call	 __EH_epilog3
  0002b	c3		 ret	 0
_TEXT	ENDS
;	COMDAT text$x
text$x	SEGMENT
__unwindfunclet$??$_Construct@VioHashString@@ABV1@@std@@YAXPAVioHashString@@ABV1@@Z$0:
  00000	ff 75 08	 push	 DWORD PTR __Vptr$[ebp]
  00003	ff 75 f0	 push	 DWORD PTR $T520221[ebp]
  00006	e8 00 00 00 00	 call	 ??3@YAXPAX0@Z		; operator delete
  0000b	59		 pop	 ecx
  0000c	59		 pop	 ecx
  0000d	c3		 ret	 0
__ehhandler$??$_Construct@VioHashString@@ABV1@@std@@YAXPAVioHashString@@ABV1@@Z:
  0000e	8b 54 24 08	 mov	 edx, DWORD PTR [esp+8]
  00012	8d 42 0c	 lea	 eax, DWORD PTR [edx+12]
  00015	8b 4a ec	 mov	 ecx, DWORD PTR [edx-20]
  00018	33 c8		 xor	 ecx, eax
  0001a	e8 00 00 00 00	 call	 @__security_check_cookie@4
  0001f	b8 00 00 00 00	 mov	 eax, OFFSET __ehfuncinfo$??$_Construct@VioHashString@@ABV1@@std@@YAXPAVioHashString@@ABV1@@Z
  00024	e9 00 00 00 00	 jmp	 ___CxxFrameHandler3
text$x	ENDS
??$_Construct@VioHashString@@ABV1@@std@@YAXPAVioHashString@@ABV1@@Z ENDP ; std::_Construct<ioHashString,ioHashString const &>
PUBLIC	?RollingEffect@GashaponWnd@@IAEXM@Z		; GashaponWnd::RollingEffect
EXTRN	__imp_?CreateImageByFullName@ioUIImageSetManager@@QAEPAVioUIRenderImage@@ABVioHashString@@_N@Z:PROC
EXTRN	__imp_?GetSingleton@ioUIImageSetManager@@SAAAV1@XZ:PROC
EXTRN	__imp_?GetLoopSec@ioFrameTimer@@QBEKXZ:PROC
EXTRN	__imp_?GetSingleton@ioFrameTimer@@SAAAV1@XZ:PROC
;	COMDAT xdata$x
; File c:\program files (x86)\microsoft visual studio 10.0\vc\include\vector
xdata$x	SEGMENT
__unwindtable$?RollingEffect@GashaponWnd@@IAEXM@Z DD 0ffffffffH
	DD	FLAT:__unwindfunclet$?RollingEffect@GashaponWnd@@IAEXM@Z$0
	DD	0ffffffffH
	DD	FLAT:__unwindfunclet$?RollingEffect@GashaponWnd@@IAEXM@Z$1
__ehfuncinfo$?RollingEffect@GashaponWnd@@IAEXM@Z DD 019930522H
	DD	02H
	DD	FLAT:__unwindtable$?RollingEffect@GashaponWnd@@IAEXM@Z
	DD	2 DUP(00H)
	DD	2 DUP(00H)
	DD	00H
	DD	01H
; Function compile flags: /Ogsp
; File d:\lost saga for developer\youtube\tutorial\source\src\lsclient\gui\gashaponwnd.cpp
xdata$x	ENDS
;	COMDAT ?RollingEffect@GashaponWnd@@IAEXM@Z
_TEXT	SEGMENT
_szEffect$515682 = -48					; size = 16
_szEffect$515672 = -32					; size = 16
_dwCurTime$ = -16					; size = 4
__$EHRec$ = -12						; size = 12
_fTimePerSec$ = 8					; size = 4
?RollingEffect@GashaponWnd@@IAEXM@Z PROC		; GashaponWnd::RollingEffect, COMDAT
; _this$ = ecx

; 418  : {

  00000	6a 24		 push	 36			; 00000024H
  00002	b8 00 00 00 00	 mov	 eax, __ehhandler$?RollingEffect@GashaponWnd@@IAEXM@Z
  00007	e8 00 00 00 00	 call	 __EH_prolog3
  0000c	8b f1		 mov	 esi, ecx

; 419  : 	DWORD dwCurTime = FRAMEGETTIME();

  0000e	ff 15 00 00 00
	00		 call	 DWORD PTR __imp_?GetSingleton@ioFrameTimer@@SAAAV1@XZ
  00014	8b c8		 mov	 ecx, eax
  00016	ff 15 00 00 00
	00		 call	 DWORD PTR __imp_?GetLoopSec@ioFrameTimer@@QBEKXZ

; 420  : 
; 421  : 	int iEffectListCnt = m_vRollingEffect.size();

  0001c	8b be 50 83 03
	00		 mov	 edi, DWORD PTR [esi+230224]
  00022	2b be 4c 83 03
	00		 sub	 edi, DWORD PTR [esi+230220]

; 422  : 	if( m_bFinalResult )

  00028	8a 8e 89 83 03
	00		 mov	 cl, BYTE PTR [esi+230281]
  0002e	c1 ff 04	 sar	 edi, 4
  00031	89 45 f0	 mov	 DWORD PTR _dwCurTime$[ebp], eax
  00034	84 c9		 test	 cl, cl
  00036	74 0f		 je	 SHORT $LN19@RollingEff

; 423  : 		iEffectListCnt = m_vEndEfffect.size();

  00038	8b be 60 83 03
	00		 mov	 edi, DWORD PTR [esi+230240]
  0003e	2b be 5c 83 03
	00		 sub	 edi, DWORD PTR [esi+230236]
  00044	c1 ff 04	 sar	 edi, 4
$LN19@RollingEff:

; 424  : 
; 425  : 	if( iEffectListCnt == 0 )

  00047	33 db		 xor	 ebx, ebx
  00049	3b fb		 cmp	 edi, ebx
  0004b	75 20		 jne	 SHORT $LN18@RollingEff
$LN42@RollingEff:

; 426  : 	{
; 427  : 		SAFEDELETE( m_pEffect );

  0004d	8b 8e 64 01 00
	00		 mov	 ecx, DWORD PTR [esi+356]
  00053	3b cb		 cmp	 ecx, ebx
  00055	0f 84 60 01 00
	00		 je	 $LN6@RollingEff
  0005b	8b 01		 mov	 eax, DWORD PTR [ecx]
  0005d	6a 01		 push	 1
  0005f	ff 50 40	 call	 DWORD PTR [eax+64]
  00062	89 9e 64 01 00
	00		 mov	 DWORD PTR [esi+356], ebx

; 428  : 		return;

  00068	e9 4e 01 00 00	 jmp	 $LN6@RollingEff
$LN18@RollingEff:

; 429  : 	}
; 430  : 
; 431  : 	if( m_bFinalResult )

  0006d	84 c9		 test	 cl, cl
  0006f	0f 84 9f 00 00
	00		 je	 $LN16@RollingEff

; 432  : 	{
; 433  : 		if( m_iCurEffectArray == iEffectListCnt-1 )

  00075	8d 47 ff	 lea	 eax, DWORD PTR [edi-1]
  00078	39 86 ac 83 03
	00		 cmp	 DWORD PTR [esi+230316], eax

; 434  : 		{
; 435  : 			SAFEDELETE( m_pEffect );
; 436  : 			return;

  0007e	74 cd		 je	 SHORT $LN42@RollingEff

; 437  : 		}
; 438  : 
; 439  : 		if( m_dwRollingEffectCheckTime == 0 || dwCurTime - m_dwRollingEffectCheckTime > m_dwRollingEffectTime )		// 

  00080	8b 86 b4 83 03
	00		 mov	 eax, DWORD PTR [esi+230324]
  00086	3b c3		 cmp	 eax, ebx
  00088	74 11		 je	 SHORT $LN12@RollingEff
  0008a	8b 4d f0	 mov	 ecx, DWORD PTR _dwCurTime$[ebp]
  0008d	2b c8		 sub	 ecx, eax
  0008f	3b 8e b0 83 03
	00		 cmp	 ecx, DWORD PTR [esi+230320]
  00095	0f 86 20 01 00
	00		 jbe	 $LN6@RollingEff
$LN12@RollingEff:

; 440  : 		{
; 441  : 			SAFEDELETE( m_pEffect );

  0009b	8b 8e 64 01 00
	00		 mov	 ecx, DWORD PTR [esi+356]
  000a1	3b cb		 cmp	 ecx, ebx
  000a3	74 0d		 je	 SHORT $LN11@RollingEff
  000a5	8b 01		 mov	 eax, DWORD PTR [ecx]
  000a7	6a 01		 push	 1
  000a9	ff 50 40	 call	 DWORD PTR [eax+64]
  000ac	89 9e 64 01 00
	00		 mov	 DWORD PTR [esi+356], ebx
$LN11@RollingEff:

; 442  : 
; 443  : 			m_iCurEffectArray++;

  000b2	ff 86 ac 83 03
	00		 inc	 DWORD PTR [esi+230316]
  000b8	8b 86 ac 83 03
	00		 mov	 eax, DWORD PTR [esi+230316]

; 444  : 
; 445  : 			if( !COMPARE( m_iCurEffectArray, 0, iEffectListCnt ) )

  000be	78 04		 js	 SHORT $LN9@RollingEff
  000c0	3b c7		 cmp	 eax, edi
  000c2	7c 06		 jl	 SHORT $LN10@RollingEff
$LN9@RollingEff:

; 446  : 				m_iCurEffectArray = 0;

  000c4	89 9e ac 83 03
	00		 mov	 DWORD PTR [esi+230316], ebx
$LN10@RollingEff:

; 447  : 
; 448  : 			ioHashString szEffect = m_vEndEfffect[m_iCurEffectArray];

  000ca	8b 86 ac 83 03
	00		 mov	 eax, DWORD PTR [esi+230316]
  000d0	c1 e0 04	 shl	 eax, 4
  000d3	03 86 5c 83 03
	00		 add	 eax, DWORD PTR [esi+230236]
  000d9	8d 4d e0	 lea	 ecx, DWORD PTR _szEffect$515672[ebp]
  000dc	50		 push	 eax
  000dd	ff 15 00 00 00
	00		 call	 DWORD PTR __imp_??0ioHashString@@QAE@ABV0@@Z

; 449  : 
; 450  : 			if( !szEffect.IsEmpty() )

  000e3	8d 4d e0	 lea	 ecx, DWORD PTR _szEffect$515672[ebp]
  000e6	89 5d fc	 mov	 DWORD PTR __$EHRec$[ebp+8], ebx
  000e9	ff 15 00 00 00
	00		 call	 DWORD PTR __imp_?IsEmpty@ioHashString@@QBE_NXZ
  000ef	84 c0		 test	 al, al
  000f1	75 19		 jne	 SHORT $LN8@RollingEff

; 451  : 			{
; 452  : 				m_pEffect = g_UIImageSetMgr.CreateImageByFullName( szEffect );

  000f3	8d 45 e0	 lea	 eax, DWORD PTR _szEffect$515672[ebp]
  000f6	53		 push	 ebx
  000f7	50		 push	 eax
  000f8	ff 15 00 00 00
	00		 call	 DWORD PTR __imp_?GetSingleton@ioUIImageSetManager@@SAAAV1@XZ
  000fe	8b c8		 mov	 ecx, eax
  00100	ff 15 00 00 00
	00		 call	 DWORD PTR __imp_?CreateImageByFullName@ioUIImageSetManager@@QAEPAVioUIRenderImage@@ABVioHashString@@_N@Z
  00106	89 86 64 01 00
	00		 mov	 DWORD PTR [esi+356], eax
$LN8@RollingEff:

; 453  : 			}
; 454  : 
; 455  : 			m_dwRollingEffectCheckTime = dwCurTime;
; 456  : 		}

  0010c	8d 4d e0	 lea	 ecx, DWORD PTR _szEffect$515672[ebp]

; 457  : 	}
; 458  : 	else

  0010f	e9 94 00 00 00	 jmp	 $LN41@RollingEff
$LN16@RollingEff:

; 459  : 	{
; 460  : 		if( m_dwRollingEffectCheckTime == 0 || dwCurTime - m_dwRollingEffectCheckTime > m_dwRollingEffectTime )		// 

  00114	8b 86 b4 83 03
	00		 mov	 eax, DWORD PTR [esi+230324]
  0011a	3b c3		 cmp	 eax, ebx
  0011c	74 11		 je	 SHORT $LN5@RollingEff
  0011e	8b 4d f0	 mov	 ecx, DWORD PTR _dwCurTime$[ebp]
  00121	2b c8		 sub	 ecx, eax
  00123	3b 8e b0 83 03
	00		 cmp	 ecx, DWORD PTR [esi+230320]
  00129	0f 86 8c 00 00
	00		 jbe	 $LN6@RollingEff
$LN5@RollingEff:

; 461  : 		{
; 462  : 			SAFEDELETE( m_pEffect );

  0012f	8b 8e 64 01 00
	00		 mov	 ecx, DWORD PTR [esi+356]
  00135	33 db		 xor	 ebx, ebx
  00137	43		 inc	 ebx
  00138	85 c9		 test	 ecx, ecx
  0013a	74 0d		 je	 SHORT $LN4@RollingEff
  0013c	8b 01		 mov	 eax, DWORD PTR [ecx]
  0013e	53		 push	 ebx
  0013f	ff 50 40	 call	 DWORD PTR [eax+64]
  00142	83 a6 64 01 00
	00 00		 and	 DWORD PTR [esi+356], 0
$LN4@RollingEff:

; 463  : 
; 464  : 			m_iCurEffectArray++;

  00149	ff 86 ac 83 03
	00		 inc	 DWORD PTR [esi+230316]
  0014f	8b 8e ac 83 03
	00		 mov	 ecx, DWORD PTR [esi+230316]

; 465  : 
; 466  : 			if( !COMPARE( m_iCurEffectArray, 0, iEffectListCnt ) )

  00155	78 04		 js	 SHORT $LN2@RollingEff
  00157	3b cf		 cmp	 ecx, edi
  00159	7c 07		 jl	 SHORT $LN3@RollingEff
$LN2@RollingEff:

; 467  : 				m_iCurEffectArray = 0;

  0015b	83 a6 ac 83 03
	00 00		 and	 DWORD PTR [esi+230316], 0
$LN3@RollingEff:

; 468  : 
; 469  : 			ioHashString szEffect = m_vRollingEffect[m_iCurEffectArray];

  00162	8b 86 ac 83 03
	00		 mov	 eax, DWORD PTR [esi+230316]
  00168	c1 e0 04	 shl	 eax, 4
  0016b	03 86 4c 83 03
	00		 add	 eax, DWORD PTR [esi+230220]
  00171	8d 4d d0	 lea	 ecx, DWORD PTR _szEffect$515682[ebp]
  00174	50		 push	 eax
  00175	ff 15 00 00 00
	00		 call	 DWORD PTR __imp_??0ioHashString@@QAE@ABV0@@Z

; 470  : 
; 471  : 			if( !szEffect.IsEmpty() )

  0017b	8d 4d d0	 lea	 ecx, DWORD PTR _szEffect$515682[ebp]
  0017e	89 5d fc	 mov	 DWORD PTR __$EHRec$[ebp+8], ebx
  00181	ff 15 00 00 00
	00		 call	 DWORD PTR __imp_?IsEmpty@ioHashString@@QBE_NXZ
  00187	84 c0		 test	 al, al
  00189	75 1a		 jne	 SHORT $LN1@RollingEff

; 472  : 			{
; 473  : 				m_pEffect = g_UIImageSetMgr.CreateImageByFullName( szEffect );

  0018b	8d 45 d0	 lea	 eax, DWORD PTR _szEffect$515682[ebp]
  0018e	6a 00		 push	 0
  00190	50		 push	 eax
  00191	ff 15 00 00 00
	00		 call	 DWORD PTR __imp_?GetSingleton@ioUIImageSetManager@@SAAAV1@XZ
  00197	8b c8		 mov	 ecx, eax
  00199	ff 15 00 00 00
	00		 call	 DWORD PTR __imp_?CreateImageByFullName@ioUIImageSetManager@@QAEPAVioUIRenderImage@@ABVioHashString@@_N@Z
  0019f	89 86 64 01 00
	00		 mov	 DWORD PTR [esi+356], eax
$LN1@RollingEff:

; 477  : 		}

  001a5	8d 4d d0	 lea	 ecx, DWORD PTR _szEffect$515682[ebp]
$LN41@RollingEff:

; 474  : 			}
; 475  : 
; 476  : 			m_dwRollingEffectCheckTime = dwCurTime;

  001a8	8b 45 f0	 mov	 eax, DWORD PTR _dwCurTime$[ebp]

; 477  : 		}

  001ab	83 4d fc ff	 or	 DWORD PTR __$EHRec$[ebp+8], -1
  001af	89 86 b4 83 03
	00		 mov	 DWORD PTR [esi+230324], eax
  001b5	ff 15 00 00 00
	00		 call	 DWORD PTR __imp_??1ioHashString@@QAE@XZ
$LN6@RollingEff:

; 478  : 	}
; 479  : }

  001bb	e8 00 00 00 00	 call	 __EH_epilog3
  001c0	c2 04 00	 ret	 4
_TEXT	ENDS
;	COMDAT text$x
text$x	SEGMENT
__unwindfunclet$?RollingEffect@GashaponWnd@@IAEXM@Z$0:
  00000	8d 4d e0	 lea	 ecx, DWORD PTR _szEffect$515672[ebp]
  00003	ff 25 00 00 00
	00		 jmp	 DWORD PTR __imp_??1ioHashString@@QAE@XZ
__unwindfunclet$?RollingEffect@GashaponWnd@@IAEXM@Z$1:
  00009	8d 4d d0	 lea	 ecx, DWORD PTR _szEffect$515682[ebp]
  0000c	ff 25 00 00 00
	00		 jmp	 DWORD PTR __imp_??1ioHashString@@QAE@XZ
__ehhandler$?RollingEffect@GashaponWnd@@IAEXM@Z:
  00012	8b 54 24 08	 mov	 edx, DWORD PTR [esp+8]
  00016	8d 42 0c	 lea	 eax, DWORD PTR [edx+12]
  00019	8b 4a cc	 mov	 ecx, DWORD PTR [edx-52]
  0001c	33 c8		 xor	 ecx, eax
  0001e	e8 00 00 00 00	 call	 @__security_check_cookie@4
  00023	b8 00 00 00 00	 mov	 eax, OFFSET __ehfuncinfo$?RollingEffect@GashaponWnd@@IAEXM@Z
  00028	e9 00 00 00 00	 jmp	 ___CxxFrameHandler3
text$x	ENDS
?RollingEffect@GashaponWnd@@IAEXM@Z ENDP		; GashaponWnd::RollingEffect
PUBLIC	??_C@_0BJ@MBKFFGIH@?$CFs?5pEtcItem?5?$DN?$DN?5NULL?5?3?5?$CFd?$AA@ ; `string'
PUBLIC	??_C@_0BJ@HGEPJOLF@GashaponWnd?3?3iwm_command?$AA@ ; `string'
PUBLIC	??_R0?AVioWnd@@@8				; ioWnd `RTTI Type Descriptor'
PUBLIC	??_R0?AVMyInventoryWnd@@@8			; MyInventoryWnd `RTTI Type Descriptor'
PUBLIC	?iwm_command@GashaponWnd@@UAEXPAVioWnd@@HK@Z	; GashaponWnd::iwm_command
EXTRN	__imp_?PrintTimeAndLog@CLog@@QAAXHPADZZ:PROC
EXTRN	__imp_?LOG@@3VCLog@@A:BYTE
EXTRN	?FindEtcItem@ioEtcItemManager@@QAEPAVioEtcItem@@K@Z:PROC ; ioEtcItemManager::FindEtcItem
EXTRN	?GetSingleton@ioMyInfo@@SAAAV1@XZ:PROC		; ioMyInfo::GetSingleton
EXTRN	?ShowPresentTabDirect@MyInventoryWnd@@QAEXXZ:PROC ; MyInventoryWnd::ShowPresentTabDirect
EXTRN	__imp_?FindWnd@ioGUIManager@@QAEPAVioWnd@@K@Z:PROC
EXTRN	?GetSingleton@ioSP2GUIManager@@SAAAV1@XZ:PROC	; ioSP2GUIManager::GetSingleton
EXTRN	__imp_?HideWnd@ioWnd@@QAEXXZ:PROC
EXTRN	__imp_?GetID@ioWnd@@QBEKXZ:PROC
EXTRN	___RTDynamicCast:PROC
;	COMDAT ??_C@_0BJ@MBKFFGIH@?$CFs?5pEtcItem?5?$DN?$DN?5NULL?5?3?5?$CFd?$AA@
; File d:\lost saga for developer\youtube\tutorial\source\src\io3dengine\iosingleton.h
CONST	SEGMENT
??_C@_0BJ@MBKFFGIH@?$CFs?5pEtcItem?5?$DN?$DN?5NULL?5?3?5?$CFd?$AA@ DB '%s'
	DB	' pEtcItem == NULL : %d', 00H		; `string'
CONST	ENDS
;	COMDAT ??_C@_0BJ@HGEPJOLF@GashaponWnd?3?3iwm_command?$AA@
CONST	SEGMENT
??_C@_0BJ@HGEPJOLF@GashaponWnd?3?3iwm_command?$AA@ DB 'GashaponWnd::iwm_c'
	DB	'ommand', 00H				; `string'
CONST	ENDS
;	COMDAT ??_R0?AVioWnd@@@8
_DATA	SEGMENT
??_R0?AVioWnd@@@8 DD FLAT:??_7type_info@@6B@		; ioWnd `RTTI Type Descriptor'
	DD	00H
	DB	'.?AVioWnd@@', 00H
_DATA	ENDS
;	COMDAT ??_R0?AVMyInventoryWnd@@@8
_DATA	SEGMENT
??_R0?AVMyInventoryWnd@@@8 DD FLAT:??_7type_info@@6B@	; MyInventoryWnd `RTTI Type Descriptor'
	DD	00H
	DB	'.?AVMyInventoryWnd@@', 00H
; Function compile flags: /Ogsp
; File d:\lost saga for developer\youtube\tutorial\source\src\lsclient\gui\gashaponwnd.cpp
_DATA	ENDS
;	COMDAT ?iwm_command@GashaponWnd@@UAEXPAVioWnd@@HK@Z
_TEXT	SEGMENT
_pWnd$ = 8						; size = 4
_cmd$ = 12						; size = 4
_param$ = 16						; size = 4
?iwm_command@GashaponWnd@@UAEXPAVioWnd@@HK@Z PROC	; GashaponWnd::iwm_command, COMDAT
; _this$ = ecx

; 639  : {

  00000	55		 push	 ebp
  00001	8b ec		 mov	 ebp, esp
  00003	56		 push	 esi
  00004	8b f1		 mov	 esi, ecx

; 640  : 	DWORD dwID = pWnd->GetID();

  00006	8b 4d 08	 mov	 ecx, DWORD PTR _pWnd$[ebp]
  00009	ff 15 00 00 00
	00		 call	 DWORD PTR __imp_?GetID@ioWnd@@QBEKXZ

; 641  : 
; 642  : 	switch( dwID )

  0000f	48		 dec	 eax
  00010	48		 dec	 eax
  00011	74 4f		 je	 SHORT $LN4@iwm_comman
  00013	48		 dec	 eax
  00014	0f 85 b2 00 00
	00		 jne	 $LN2@iwm_comman

; 643  : 	{
; 644  : 	case ID_GO:
; 645  : 		if( cmd == IOBN_BTNUP )

  0001a	83 7d 0c 11	 cmp	 DWORD PTR _cmd$[ebp], 17 ; 00000011H
  0001e	0f 85 a8 00 00
	00		 jne	 $LN2@iwm_comman

; 646  : 		{
; 647  : 			HideWnd();

  00024	8b ce		 mov	 ecx, esi
  00026	ff 15 00 00 00
	00		 call	 DWORD PTR __imp_?HideWnd@ioWnd@@QAEXXZ

; 648  : 
; 649  : 			MyInventoryWnd *pInvenWnd = dynamic_cast<MyInventoryWnd*>(g_GUIMgr.FindWnd(MY_INVENTORY_WND));

  0002c	6a 00		 push	 0
  0002e	68 00 00 00 00	 push	 OFFSET ??_R0?AVMyInventoryWnd@@@8
  00033	68 00 00 00 00	 push	 OFFSET ??_R0?AVioWnd@@@8
  00038	6a 00		 push	 0
  0003a	68 96 17 00 00	 push	 6038			; 00001796H
  0003f	e8 00 00 00 00	 call	 ?GetSingleton@ioSP2GUIManager@@SAAAV1@XZ ; ioSP2GUIManager::GetSingleton
  00044	8b c8		 mov	 ecx, eax
  00046	ff 15 00 00 00
	00		 call	 DWORD PTR __imp_?FindWnd@ioGUIManager@@QAEPAVioWnd@@K@Z
  0004c	50		 push	 eax
  0004d	e8 00 00 00 00	 call	 ___RTDynamicCast
  00052	83 c4 14	 add	 esp, 20			; 00000014H

; 650  : 			if( pInvenWnd )

  00055	85 c0		 test	 eax, eax
  00057	74 73		 je	 SHORT $LN2@iwm_comman

; 651  : 			{
; 652  : 				pInvenWnd->ShowPresentTabDirect();

  00059	8b c8		 mov	 ecx, eax
  0005b	e8 00 00 00 00	 call	 ?ShowPresentTabDirect@MyInventoryWnd@@QAEXXZ ; MyInventoryWnd::ShowPresentTabDirect

; 653  : 			}
; 654  : 		}
; 655  : 		break;

  00060	eb 6a		 jmp	 SHORT $LN2@iwm_comman
$LN4@iwm_comman:

; 656  : 	case ID_USE:
; 657  : 		if( cmd == IOBN_BTNUP )

  00062	83 7d 0c 11	 cmp	 DWORD PTR _cmd$[ebp], 17 ; 00000011H
  00066	75 64		 jne	 SHORT $LN2@iwm_comman

; 658  : 		{
; 659  : 			ioUserEtcItem *pUserEtcItem =  g_MyInfo.GetUserEtcItem();

  00068	53		 push	 ebx
  00069	e8 00 00 00 00	 call	 ?GetSingleton@ioMyInfo@@SAAAV1@XZ ; ioMyInfo::GetSingleton
  0006e	8b d8		 mov	 ebx, eax
  00070	81 c3 44 01 00
	00		 add	 ebx, 324		; 00000144H

; 660  : 			if( pUserEtcItem )

  00076	74 53		 je	 SHORT $LN16@iwm_comman

; 661  : 			{
; 662  : 				ioEtcItem *pEtcItem = g_EtcItemMgr.FindEtcItem( m_dwPossessEtcItemType );

  00078	8b 0d 00 00 00
	00		 mov	 ecx, DWORD PTR ?ms_Singleton@?$Singleton@VioEtcItemManager@@@@1PAVioEtcItemManager@@A ; Singleton<ioEtcItemManager>::ms_Singleton
  0007e	57		 push	 edi
  0007f	ff b6 0c a7 04
	00		 push	 DWORD PTR [esi+304908]
  00085	e8 00 00 00 00	 call	 ?FindEtcItem@ioEtcItemManager@@QAEPAVioEtcItem@@K@Z ; ioEtcItemManager::FindEtcItem
  0008a	8b f8		 mov	 edi, eax

; 663  : 				if( !pEtcItem )

  0008c	85 ff		 test	 edi, edi
  0008e	75 22		 jne	 SHORT $LN1@iwm_comman

; 664  : 				{
; 665  : 					LOG.PrintTimeAndLog( 0, "%s pEtcItem == NULL : %d", __FUNCTION__, m_dwPossessEtcItemType );

  00090	ff b6 0c a7 04
	00		 push	 DWORD PTR [esi+304908]
  00096	68 00 00 00 00	 push	 OFFSET ??_C@_0BJ@HGEPJOLF@GashaponWnd?3?3iwm_command?$AA@
  0009b	68 00 00 00 00	 push	 OFFSET ??_C@_0BJ@MBKFFGIH@?$CFs?5pEtcItem?5?$DN?$DN?5NULL?5?3?5?$CFd?$AA@
  000a0	50		 push	 eax
  000a1	ff 35 00 00 00
	00		 push	 DWORD PTR __imp_?LOG@@3VCLog@@A
  000a7	ff 15 00 00 00
	00		 call	 DWORD PTR __imp_?PrintTimeAndLog@CLog@@QAAXHPADZZ
  000ad	83 c4 14	 add	 esp, 20			; 00000014H

; 666  : 					return;

  000b0	eb 18		 jmp	 SHORT $LN17@iwm_comman
$LN1@iwm_comman:

; 667  : 				}
; 668  : 				HideWnd();

  000b2	8b ce		 mov	 ecx, esi
  000b4	ff 15 00 00 00
	00		 call	 DWORD PTR __imp_?HideWnd@ioWnd@@QAEXXZ

; 669  : 
; 670  : 				pEtcItem->OnUseBtnPush( m_dwPossessEtcItemType, pUserEtcItem );

  000ba	8b 07		 mov	 eax, DWORD PTR [edi]
  000bc	6a 01		 push	 1
  000be	53		 push	 ebx
  000bf	ff b6 0c a7 04
	00		 push	 DWORD PTR [esi+304908]
  000c5	8b cf		 mov	 ecx, edi
  000c7	ff 50 20	 call	 DWORD PTR [eax+32]
$LN17@iwm_comman:
  000ca	5f		 pop	 edi
$LN16@iwm_comman:
  000cb	5b		 pop	 ebx
$LN2@iwm_comman:
  000cc	5e		 pop	 esi

; 671  : 			}
; 672  : 		}
; 673  : 		break;
; 674  : 	}
; 675  : }

  000cd	5d		 pop	 ebp
  000ce	c2 0c 00	 ret	 12			; 0000000cH
?iwm_command@GashaponWnd@@UAEXPAVioWnd@@HK@Z ENDP	; GashaponWnd::iwm_command
_TEXT	ENDS
PUBLIC	??_R0?AVioButton@@@8				; ioButton `RTTI Type Descriptor'
PUBLIC	?ReBatchButton@GashaponWnd@@IAEXH@Z		; GashaponWnd::ReBatchButton
EXTRN	__imp_?SetChildInActive@ioWnd@@QAEXK@Z:PROC
EXTRN	__imp_?ShowChildWnd@ioWnd@@QAEXK_N@Z:PROC
EXTRN	__imp_?ShowWnd@ioWnd@@QAEXXZ:PROC
EXTRN	__imp_?SetOffset@ioUITitle@@QAEXHH@Z:PROC
EXTRN	__imp_?GetTextYOffSet@ioUITitle@@QBEHXZ:PROC
EXTRN	__imp_?GetTitle@ioWnd@@QBEPAVioUITitle@@XZ:PROC
EXTRN	__imp_?SetWndPos@ioWnd@@QAEXHH@Z:PROC
EXTRN	__imp_?GetYPos@ioWnd@@QBEHXZ:PROC
EXTRN	__imp_?GetHeight@ioWnd@@QBEHXZ:PROC
EXTRN	__imp_?FindChildWnd@ioWnd@@QAEPAV1@K@Z:PROC
EXTRN	?GetEtcItem@ioUserEtcItem@@QAE_NHAAUETCITEMSLOT@1@@Z:PROC ; ioUserEtcItem::GetEtcItem
EXTRN	?IsShowPresentTab@MyInventoryWnd@@QAE_NXZ:PROC	; MyInventoryWnd::IsShowPresentTab
EXTRN	__imp_?HideChildWnd@ioWnd@@QAEXK_N@Z:PROC
;	COMDAT ??_R0?AVioButton@@@8
; File d:\lost saga for developer\youtube\tutorial\source\src\lsclient\iouseretcitem.h
_DATA	SEGMENT
??_R0?AVioButton@@@8 DD FLAT:??_7type_info@@6B@		; ioButton `RTTI Type Descriptor'
	DD	00H
	DB	'.?AVioButton@@', 00H
; Function compile flags: /Ogsp
; File d:\lost saga for developer\youtube\tutorial\source\src\lsclient\gui\gashaponwnd.cpp
_DATA	ENDS
;	COMDAT ?ReBatchButton@GashaponWnd@@IAEXH@Z
_TEXT	SEGMENT
_kSlot$515784 = -16					; size = 12
_this$ = -4						; size = 4
tv504 = 8						; size = 4
_pTitle$515796 = 8					; size = 4
_iType$ = 8						; size = 4
_bPresentShow$515772 = 11				; size = 1
?ReBatchButton@GashaponWnd@@IAEXH@Z PROC		; GashaponWnd::ReBatchButton, COMDAT
; _this$ = ecx

; 678  : {

  00000	55		 push	 ebp
  00001	8b ec		 mov	 ebp, esp
  00003	83 ec 10	 sub	 esp, 16			; 00000010H

; 679  : 	enum
; 680  : 	{
; 681  : 		ONE_BTN_SIZE	= 204,
; 682  : 		TWO_BTN_SIZE	= 102,
; 683  : 
; 684  : 		ONE_BTN_X		= 27,
; 685  : 		TWO_BTN_X		= 131,
; 686  : 
; 687  : 		ONE_TEXT_X		= 102,
; 688  : 		TWO_TEXT_X		= 51,
; 689  : 	};
; 690  : 
; 691  : 	switch( iType )

  00006	8b 45 08	 mov	 eax, DWORD PTR _iType$[ebp]
  00009	48		 dec	 eax
  0000a	53		 push	 ebx
  0000b	56		 push	 esi
  0000c	57		 push	 edi
  0000d	8b f9		 mov	 edi, ecx
  0000f	89 7d fc	 mov	 DWORD PTR _this$[ebp], edi
  00012	0f 84 f1 01 00
	00		 je	 $LN16@ReBatchBut
  00018	48		 dec	 eax
  00019	0f 85 13 02 00
	00		 jne	 $LN17@ReBatchBut

; 699  : 		break;
; 700  : 	case RESULT_BTN:
; 701  : 		HideChildWnd(ID_ROLLING);

  0001f	8b 35 00 00 00
	00		 mov	 esi, DWORD PTR __imp_?HideChildWnd@ioWnd@@QAEXK_N@Z
  00025	33 db		 xor	 ebx, ebx
  00027	53		 push	 ebx
  00028	6a 01		 push	 1
  0002a	ff d6		 call	 esi

; 702  : 		HideChildWnd(ID_USE);

  0002c	53		 push	 ebx
  0002d	6a 02		 push	 2
  0002f	8b cf		 mov	 ecx, edi
  00031	ff d6		 call	 esi

; 703  : 		HideChildWnd(ID_GO);

  00033	53		 push	 ebx
  00034	6a 03		 push	 3
  00036	8b cf		 mov	 ecx, edi
  00038	ff d6		 call	 esi

; 704  : 
; 705  : 		bool bPresentShow = false;
; 706  : 		//        --
; 707  : 		MyInventoryWnd *pMyInventoryWnd = dynamic_cast<MyInventoryWnd*>( g_GUIMgr.FindWnd( MY_INVENTORY_WND ) );

  0003a	53		 push	 ebx
  0003b	68 00 00 00 00	 push	 OFFSET ??_R0?AVMyInventoryWnd@@@8
  00040	be 00 00 00 00	 mov	 esi, OFFSET ??_R0?AVioWnd@@@8
  00045	56		 push	 esi
  00046	53		 push	 ebx
  00047	68 96 17 00 00	 push	 6038			; 00001796H
  0004c	88 5d 0b	 mov	 BYTE PTR _bPresentShow$515772[ebp], bl
  0004f	e8 00 00 00 00	 call	 ?GetSingleton@ioSP2GUIManager@@SAAAV1@XZ ; ioSP2GUIManager::GetSingleton
  00054	8b c8		 mov	 ecx, eax
  00056	ff 15 00 00 00
	00		 call	 DWORD PTR __imp_?FindWnd@ioGUIManager@@QAEPAVioWnd@@K@Z
  0005c	50		 push	 eax
  0005d	e8 00 00 00 00	 call	 ___RTDynamicCast
  00062	83 c4 14	 add	 esp, 20			; 00000014H

; 708  : 		if( pMyInventoryWnd && pMyInventoryWnd->IsShowPresentTab() )

  00065	3b c3		 cmp	 eax, ebx
  00067	74 0f		 je	 SHORT $LN14@ReBatchBut
  00069	8b c8		 mov	 ecx, eax
  0006b	e8 00 00 00 00	 call	 ?IsShowPresentTab@MyInventoryWnd@@QAE_NXZ ; MyInventoryWnd::IsShowPresentTab
  00070	84 c0		 test	 al, al
  00072	74 04		 je	 SHORT $LN14@ReBatchBut

; 709  : 			bPresentShow = true;

  00074	c6 45 0b 01	 mov	 BYTE PTR _bPresentShow$515772[ebp], 1
$LN14@ReBatchBut:

; 710  : 
; 711  : 		// 
; 712  : 		ioUserEtcItem *pUserEtcItem = g_MyInfo.GetUserEtcItem();

  00078	e8 00 00 00 00	 call	 ?GetSingleton@ioMyInfo@@SAAAV1@XZ ; ioMyInfo::GetSingleton
  0007d	05 44 01 00 00	 add	 eax, 324		; 00000144H

; 713  : 		if( bPresentShow || !pUserEtcItem )

  00082	38 5d 0b	 cmp	 BYTE PTR _bPresentShow$515772[ebp], bl
  00085	0f 85 0a 01 00
	00		 jne	 $LN12@ReBatchBut
  0008b	3b c3		 cmp	 eax, ebx
  0008d	0f 84 02 01 00
	00		 je	 $LN12@ReBatchBut

; 730  : 		}
; 731  : 
; 732  : 		ioUserEtcItem::ETCITEMSLOT kSlot;
; 733  : 		if( bPresentShow || !pUserEtcItem->GetEtcItem( m_dwPossessEtcItemType, kSlot) )

  00093	8d 4d f0	 lea	 ecx, DWORD PTR _kSlot$515784[ebp]
  00096	51		 push	 ecx
  00097	ff b7 0c a7 04
	00		 push	 DWORD PTR [edi+304908]
  0009d	8b c8		 mov	 ecx, eax
  0009f	89 5d f0	 mov	 DWORD PTR _kSlot$515784[ebp], ebx
  000a2	89 5d f4	 mov	 DWORD PTR _kSlot$515784[ebp+4], ebx
  000a5	89 5d f8	 mov	 DWORD PTR _kSlot$515784[ebp+8], ebx
  000a8	e8 00 00 00 00	 call	 ?GetEtcItem@ioUserEtcItem@@QAE_NHAAUETCITEMSLOT@1@@Z ; ioUserEtcItem::GetEtcItem

; 734  : 		{
; 735  : 			ioButton *pButton = dynamic_cast<ioButton*>(FindChildWnd(ID_GO));
; 736  : 			if( pButton )
; 737  : 			{
; 738  : 				pButton->SetSize( ONE_BTN_SIZE, pButton->GetHeight() );
; 739  : 				pButton->SetWndPos( ONE_BTN_X, pButton->GetYPos() );
; 740  : 
; 741  : 				ioUITitle *pTitle =  pButton->GetTitle();
; 742  : 				if( pTitle )
; 743  : 				{
; 744  : 					pTitle->SetOffset( ONE_TEXT_X, pTitle->GetTextYOffSet() );
; 745  : 				}
; 746  : 
; 747  : 				pButton->ShowWnd();
; 748  : 			}
; 749  : 		}
; 750  : 		else
; 751  : 		{
; 752  : 			ioButton *pButton = dynamic_cast<ioButton*>(FindChildWnd(ID_USE));

  000ad	53		 push	 ebx
  000ae	68 00 00 00 00	 push	 OFFSET ??_R0?AVioButton@@@8
  000b3	56		 push	 esi
  000b4	8b cf		 mov	 ecx, edi
  000b6	53		 push	 ebx
  000b7	84 c0		 test	 al, al
  000b9	0f 84 e0 00 00
	00		 je	 $LN8@ReBatchBut
  000bf	6a 02		 push	 2
  000c1	ff 15 00 00 00
	00		 call	 DWORD PTR __imp_?FindChildWnd@ioWnd@@QAEPAV1@K@Z
  000c7	50		 push	 eax
  000c8	e8 00 00 00 00	 call	 ___RTDynamicCast
  000cd	8b f8		 mov	 edi, eax
  000cf	83 c4 14	 add	 esp, 20			; 00000014H

; 753  : 			if( pButton )

  000d2	3b fb		 cmp	 edi, ebx
  000d4	74 56		 je	 SHORT $LN25@ReBatchBut

; 754  : 			{
; 755  : 				pButton->SetSize( TWO_BTN_SIZE, pButton->GetHeight() );

  000d6	8b 07		 mov	 eax, DWORD PTR [edi]
  000d8	8b cf		 mov	 ecx, edi
  000da	89 45 08	 mov	 DWORD PTR tv504[ebp], eax
  000dd	ff 15 00 00 00
	00		 call	 DWORD PTR __imp_?GetHeight@ioWnd@@QBEHXZ
  000e3	50		 push	 eax
  000e4	8b 45 08	 mov	 eax, DWORD PTR tv504[ebp]
  000e7	6a 66		 push	 102			; 00000066H
  000e9	8b cf		 mov	 ecx, edi
  000eb	ff 50 2c	 call	 DWORD PTR [eax+44]

; 756  : 				pButton->SetWndPos( ONE_BTN_X, pButton->GetYPos() );

  000ee	8b cf		 mov	 ecx, edi
  000f0	ff 15 00 00 00
	00		 call	 DWORD PTR __imp_?GetYPos@ioWnd@@QBEHXZ
  000f6	50		 push	 eax
  000f7	6a 1b		 push	 27			; 0000001bH
  000f9	8b cf		 mov	 ecx, edi
  000fb	ff 15 00 00 00
	00		 call	 DWORD PTR __imp_?SetWndPos@ioWnd@@QAEXHH@Z

; 757  : 
; 758  : 				ioUITitle *pTitle =  pButton->GetTitle();

  00101	8b cf		 mov	 ecx, edi
  00103	ff 15 00 00 00
	00		 call	 DWORD PTR __imp_?GetTitle@ioWnd@@QBEPAVioUITitle@@XZ
  00109	8b c8		 mov	 ecx, eax
  0010b	89 4d 08	 mov	 DWORD PTR _pTitle$515796[ebp], ecx

; 759  : 				if( pTitle )

  0010e	3b cb		 cmp	 ecx, ebx
  00110	74 12		 je	 SHORT $LN3@ReBatchBut

; 760  : 				{
; 761  : 					pTitle->SetOffset( TWO_TEXT_X, pTitle->GetTextYOffSet() );

  00112	ff 15 00 00 00
	00		 call	 DWORD PTR __imp_?GetTextYOffSet@ioUITitle@@QBEHXZ
  00118	8b 4d 08	 mov	 ecx, DWORD PTR _pTitle$515796[ebp]
  0011b	50		 push	 eax
  0011c	6a 33		 push	 51			; 00000033H
  0011e	ff 15 00 00 00
	00		 call	 DWORD PTR __imp_?SetOffset@ioUITitle@@QAEXHH@Z
$LN3@ReBatchBut:

; 762  : 				}
; 763  : 
; 764  : 				pButton->ShowWnd();

  00124	8b cf		 mov	 ecx, edi
  00126	ff 15 00 00 00
	00		 call	 DWORD PTR __imp_?ShowWnd@ioWnd@@QAEXXZ
$LN25@ReBatchBut:

; 765  : 			}
; 766  : 
; 767  : 			pButton = dynamic_cast<ioButton*>(FindChildWnd(ID_GO));

  0012c	8b 4d fc	 mov	 ecx, DWORD PTR _this$[ebp]
  0012f	53		 push	 ebx
  00130	68 00 00 00 00	 push	 OFFSET ??_R0?AVioButton@@@8
  00135	56		 push	 esi
  00136	53		 push	 ebx
  00137	6a 03		 push	 3
  00139	ff 15 00 00 00
	00		 call	 DWORD PTR __imp_?FindChildWnd@ioWnd@@QAEPAV1@K@Z
  0013f	50		 push	 eax
  00140	e8 00 00 00 00	 call	 ___RTDynamicCast
  00145	8b f0		 mov	 esi, eax
  00147	83 c4 14	 add	 esp, 20			; 00000014H

; 768  : 			if( pButton )

  0014a	3b f3		 cmp	 esi, ebx
  0014c	0f 84 e0 00 00
	00		 je	 $LN17@ReBatchBut

; 769  : 			{
; 770  : 				pButton->SetSize( TWO_BTN_SIZE, pButton->GetHeight() );

  00152	8b 3e		 mov	 edi, DWORD PTR [esi]
  00154	8b ce		 mov	 ecx, esi
  00156	ff 15 00 00 00
	00		 call	 DWORD PTR __imp_?GetHeight@ioWnd@@QBEHXZ
  0015c	50		 push	 eax
  0015d	6a 66		 push	 102			; 00000066H
  0015f	8b ce		 mov	 ecx, esi
  00161	ff 57 2c	 call	 DWORD PTR [edi+44]

; 771  : 				pButton->SetWndPos( TWO_BTN_X, pButton->GetYPos() );

  00164	8b ce		 mov	 ecx, esi
  00166	ff 15 00 00 00
	00		 call	 DWORD PTR __imp_?GetYPos@ioWnd@@QBEHXZ
  0016c	50		 push	 eax
  0016d	68 83 00 00 00	 push	 131			; 00000083H
  00172	8b ce		 mov	 ecx, esi
  00174	ff 15 00 00 00
	00		 call	 DWORD PTR __imp_?SetWndPos@ioWnd@@QAEXHH@Z

; 772  : 
; 773  : 				ioUITitle *pTitle =  pButton->GetTitle();

  0017a	8b ce		 mov	 ecx, esi
  0017c	ff 15 00 00 00
	00		 call	 DWORD PTR __imp_?GetTitle@ioWnd@@QBEPAVioUITitle@@XZ
  00182	8b f8		 mov	 edi, eax

; 774  : 				if( pTitle )

  00184	3b fb		 cmp	 edi, ebx
  00186	74 77		 je	 SHORT $LN10@ReBatchBut

; 775  : 				{
; 776  : 					pTitle->SetOffset( TWO_TEXT_X, pTitle->GetTextYOffSet() );

  00188	8b cf		 mov	 ecx, edi
  0018a	ff 15 00 00 00
	00		 call	 DWORD PTR __imp_?GetTextYOffSet@ioUITitle@@QBEHXZ
  00190	50		 push	 eax
  00191	6a 33		 push	 51			; 00000033H

; 777  : 				}
; 778  : 
; 779  : 				pButton->ShowWnd();

  00193	eb 62		 jmp	 SHORT $LN27@ReBatchBut
$LN12@ReBatchBut:

; 714  : 		{
; 715  : 			ioButton *pButton = dynamic_cast<ioButton*>(FindChildWnd(ID_GO));

  00195	53		 push	 ebx
  00196	68 00 00 00 00	 push	 OFFSET ??_R0?AVioButton@@@8
  0019b	56		 push	 esi
  0019c	53		 push	 ebx
  0019d	8b cf		 mov	 ecx, edi
$LN8@ReBatchBut:
  0019f	6a 03		 push	 3
  001a1	ff 15 00 00 00
	00		 call	 DWORD PTR __imp_?FindChildWnd@ioWnd@@QAEPAV1@K@Z
  001a7	50		 push	 eax
  001a8	e8 00 00 00 00	 call	 ___RTDynamicCast
  001ad	8b f0		 mov	 esi, eax
  001af	83 c4 14	 add	 esp, 20			; 00000014H

; 716  : 			if( pButton )

  001b2	3b f3		 cmp	 esi, ebx
  001b4	74 7c		 je	 SHORT $LN17@ReBatchBut

; 717  : 			{
; 718  : 				pButton->SetSize( ONE_BTN_SIZE, pButton->GetHeight() );

  001b6	8b 3e		 mov	 edi, DWORD PTR [esi]
  001b8	8b ce		 mov	 ecx, esi
  001ba	ff 15 00 00 00
	00		 call	 DWORD PTR __imp_?GetHeight@ioWnd@@QBEHXZ
  001c0	50		 push	 eax
  001c1	68 cc 00 00 00	 push	 204			; 000000ccH
  001c6	8b ce		 mov	 ecx, esi
  001c8	ff 57 2c	 call	 DWORD PTR [edi+44]

; 719  : 				pButton->SetWndPos( ONE_BTN_X, pButton->GetYPos() );

  001cb	8b ce		 mov	 ecx, esi
  001cd	ff 15 00 00 00
	00		 call	 DWORD PTR __imp_?GetYPos@ioWnd@@QBEHXZ
  001d3	50		 push	 eax
  001d4	6a 1b		 push	 27			; 0000001bH
  001d6	8b ce		 mov	 ecx, esi
  001d8	ff 15 00 00 00
	00		 call	 DWORD PTR __imp_?SetWndPos@ioWnd@@QAEXHH@Z

; 720  : 
; 721  : 				ioUITitle *pTitle =  pButton->GetTitle();

  001de	8b ce		 mov	 ecx, esi
  001e0	ff 15 00 00 00
	00		 call	 DWORD PTR __imp_?GetTitle@ioWnd@@QBEPAVioUITitle@@XZ
  001e6	8b f8		 mov	 edi, eax

; 722  : 				if( pTitle )

  001e8	3b fb		 cmp	 edi, ebx
  001ea	74 13		 je	 SHORT $LN10@ReBatchBut

; 723  : 				{
; 724  : 					pTitle->SetOffset( ONE_TEXT_X, pTitle->GetTextYOffSet() );

  001ec	8b cf		 mov	 ecx, edi
  001ee	ff 15 00 00 00
	00		 call	 DWORD PTR __imp_?GetTextYOffSet@ioUITitle@@QBEHXZ
  001f4	50		 push	 eax
  001f5	6a 66		 push	 102			; 00000066H
$LN27@ReBatchBut:
  001f7	8b cf		 mov	 ecx, edi
  001f9	ff 15 00 00 00
	00		 call	 DWORD PTR __imp_?SetOffset@ioUITitle@@QAEXHH@Z
$LN10@ReBatchBut:

; 725  : 				}
; 726  : 
; 727  : 				pButton->ShowWnd();

  001ff	8b ce		 mov	 ecx, esi
  00201	ff 15 00 00 00
	00		 call	 DWORD PTR __imp_?ShowWnd@ioWnd@@QAEXXZ

; 728  : 			}
; 729  : 			break;

  00207	eb 29		 jmp	 SHORT $LN17@ReBatchBut
$LN16@ReBatchBut:

; 692  : 	{
; 693  : 	case ROLLING_BTN:
; 694  : 		ShowChildWnd(ID_ROLLING);

  00209	33 db		 xor	 ebx, ebx
  0020b	53		 push	 ebx
  0020c	6a 01		 push	 1
  0020e	ff 15 00 00 00
	00		 call	 DWORD PTR __imp_?ShowChildWnd@ioWnd@@QAEXK_N@Z

; 695  : 		SetChildInActive(ID_ROLLING);

  00214	6a 01		 push	 1
  00216	8b cf		 mov	 ecx, edi
  00218	ff 15 00 00 00
	00		 call	 DWORD PTR __imp_?SetChildInActive@ioWnd@@QAEXK@Z

; 696  : 
; 697  : 		HideChildWnd(ID_USE);

  0021e	8b 35 00 00 00
	00		 mov	 esi, DWORD PTR __imp_?HideChildWnd@ioWnd@@QAEXK_N@Z
  00224	53		 push	 ebx
  00225	6a 02		 push	 2
  00227	8b cf		 mov	 ecx, edi
  00229	ff d6		 call	 esi

; 698  : 		HideChildWnd(ID_GO);

  0022b	53		 push	 ebx
  0022c	6a 03		 push	 3
  0022e	8b cf		 mov	 ecx, edi
  00230	ff d6		 call	 esi
$LN17@ReBatchBut:
  00232	5f		 pop	 edi
  00233	5e		 pop	 esi
  00234	5b		 pop	 ebx

; 780  : 			}
; 781  : 		}
; 782  : 		break;
; 783  : 	}
; 784  : }

  00235	c9		 leave
  00236	c2 04 00	 ret	 4
?ReBatchButton@GashaponWnd@@IAEXH@Z ENDP		; GashaponWnd::ReBatchButton
_TEXT	ENDS
PUBLIC	??_C@_0BD@HEINEDGN@UIIconPack101?$CDCash?$AA@	; `string'
PUBLIC	??_C@_0BH@FLBLIBDA@UIIconPack13?$CDquest_001?$AA@ ; `string'
PUBLIC	??_C@_0CA@DKGEIMHF@GashaponWnd?3?3GetPresentIconName?$AA@ ; `string'
PUBLIC	??_C@_0BH@HADGNCPD@UIIconPack13?$CDquest_002?$AA@ ; `string'
PUBLIC	__real@4f800000
PUBLIC	?GetPresentIconName@GashaponWnd@@IAEXAAVioHashString@@HHH@Z ; GashaponWnd::GetPresentIconName
EXTRN	?GetCostumeMachineInfo@ioCostumeShopInfoManager@@QAEPAVCostumeShopInfo@@H@Z:PROC ; ioCostumeShopInfoManager::GetCostumeMachineInfo
EXTRN	?GetSingleton@ioCostumeShopInfoManager@@SAAAV1@XZ:PROC ; ioCostumeShopInfoManager::GetSingleton
EXTRN	?GetCostumeIcon@ioCostumeInfoManager@@QAE?AVioHashString@@H@Z:PROC ; ioCostumeInfoManager::GetCostumeIcon
EXTRN	?GetSingleton@ioCostumeInfoManager@@SAAAV1@XZ:PROC ; ioCostumeInfoManager::GetSingleton
EXTRN	?GetPetIcon@ioPetInfoManager@@QAE?AVioHashString@@HW4PetRankType@@@Z:PROC ; ioPetInfoManager::GetPetIcon
EXTRN	?GetSingleton@ioPetInfoManager@@SAAAV1@XZ:PROC	; ioPetInfoManager::GetSingleton
EXTRN	?GetAlchemicItemIcon@ioAlchemicMgr@@QAE?AVioHashString@@H@Z:PROC ; ioAlchemicMgr::GetAlchemicItemIcon
EXTRN	?GetSingleton@ioAlchemicMgr@@SAAAV1@XZ:PROC	; ioAlchemicMgr::GetSingleton
EXTRN	?GetItemInfo@ioMedalItemInfoManager@@QAEPBUItemInfo@1@H@Z:PROC ; ioMedalItemInfoManager::GetItemInfo
EXTRN	?GetSingleton@ioMedalItemInfoManager@@SAAAV1@XZ:PROC ; ioMedalItemInfoManager::GetSingleton
EXTRN	?GetRandomMachineInfo@ioExtraItemInfoManager@@QAEPAVRandomMachineInfo@@H@Z:PROC ; ioExtraItemInfoManager::GetRandomMachineInfo
EXTRN	?GetSingleton@ioExtraItemInfoManager@@SAAAV1@XZ:PROC ; ioExtraItemInfoManager::GetSingleton
EXTRN	?GetItemConst@ioItemMaker@@QBEPBVioItem@@KABVioHashString@@@Z:PROC ; ioItemMaker::GetItemConst
EXTRN	?GetSingleton@ioItemMaker@@SAAAV1@XZ:PROC	; ioItemMaker::GetSingleton
EXTRN	__imp_??0ioHashString@@QAE@PBD@Z:PROC
EXTRN	?GetDecoData@ioDecorationPrice@@QAEABUtagDecoData@@HHH@Z:PROC ; ioDecorationPrice::GetDecoData
EXTRN	?GetSingleton@ioDecorationPrice@@SAAAV1@XZ:PROC	; ioDecorationPrice::GetSingleton
EXTRN	__imp_??4ioHashString@@QAEAAV0@ABV0@@Z:PROC
EXTRN	?GetMySoldierIconName@ioMyInfo@@QAEAAVioHashString@@H@Z:PROC ; ioMyInfo::GetMySoldierIconName
EXTRN	__imp_?Clear@ioHashString@@QAEXXZ:PROC
EXTRN	__fltused:DWORD
EXTRN	__ftol2_sse:PROC
;	COMDAT ??_C@_0BD@HEINEDGN@UIIconPack101?$CDCash?$AA@
; File d:\lost saga for developer\youtube\tutorial\source\src\lsclient\iocostumeshopinfomanager.h
CONST	SEGMENT
??_C@_0BD@HEINEDGN@UIIconPack101?$CDCash?$AA@ DB 'UIIconPack101#Cash', 00H ; `string'
CONST	ENDS
;	COMDAT ??_C@_0BH@FLBLIBDA@UIIconPack13?$CDquest_001?$AA@
CONST	SEGMENT
??_C@_0BH@FLBLIBDA@UIIconPack13?$CDquest_001?$AA@ DB 'UIIconPack13#quest_'
	DB	'001', 00H					; `string'
CONST	ENDS
;	COMDAT ??_C@_0CA@DKGEIMHF@GashaponWnd?3?3GetPresentIconName?$AA@
CONST	SEGMENT
??_C@_0CA@DKGEIMHF@GashaponWnd?3?3GetPresentIconName?$AA@ DB 'GashaponWnd'
	DB	'::GetPresentIconName', 00H			; `string'
CONST	ENDS
;	COMDAT ??_C@_0BH@HADGNCPD@UIIconPack13?$CDquest_002?$AA@
CONST	SEGMENT
??_C@_0BH@HADGNCPD@UIIconPack13?$CDquest_002?$AA@ DB 'UIIconPack13#quest_'
	DB	'002', 00H					; `string'
CONST	ENDS
;	COMDAT __real@4f800000
CONST	SEGMENT
__real@4f800000 DD 04f800000r			; 4.29497e+009
CONST	ENDS
;	COMDAT xdata$x
xdata$x	SEGMENT
__ehfuncinfo$?GetPresentIconName@GashaponWnd@@IAEXAAVioHashString@@HHH@Z DD 019930522H
	DD	07H
	DD	FLAT:__unwindtable$?GetPresentIconName@GashaponWnd@@IAEXAAVioHashString@@HHH@Z
	DD	2 DUP(00H)
	DD	2 DUP(00H)
	DD	00H
	DD	01H
__unwindtable$?GetPresentIconName@GashaponWnd@@IAEXAAVioHashString@@HHH@Z DD 0ffffffffH
	DD	FLAT:__unwindfunclet$?GetPresentIconName@GashaponWnd@@IAEXAAVioHashString@@HHH@Z$0
	DD	0ffffffffH
	DD	FLAT:__unwindfunclet$?GetPresentIconName@GashaponWnd@@IAEXAAVioHashString@@HHH@Z$1
	DD	0ffffffffH
	DD	FLAT:__unwindfunclet$?GetPresentIconName@GashaponWnd@@IAEXAAVioHashString@@HHH@Z$2
	DD	0ffffffffH
	DD	FLAT:__unwindfunclet$?GetPresentIconName@GashaponWnd@@IAEXAAVioHashString@@HHH@Z$3
	DD	0ffffffffH
	DD	FLAT:__unwindfunclet$?GetPresentIconName@GashaponWnd@@IAEXAAVioHashString@@HHH@Z$4
	DD	0ffffffffH
	DD	FLAT:__unwindfunclet$?GetPresentIconName@GashaponWnd@@IAEXAAVioHashString@@HHH@Z$5
	DD	0ffffffffH
	DD	FLAT:__unwindfunclet$?GetPresentIconName@GashaponWnd@@IAEXAAVioHashString@@HHH@Z$6
; Function compile flags: /Ogsp
; File d:\lost saga for developer\youtube\tutorial\source\src\lsclient\gui\gashaponwnd.cpp
xdata$x	ENDS
;	COMDAT ?GetPresentIconName@GashaponWnd@@IAEXAAVioHashString@@HHH@Z
_TEXT	SEGMENT
$T520320 = -124						; size = 16
$T520319 = -108						; size = 16
$T520318 = -92						; size = 16
$T520317 = -76						; size = 16
$T520316 = -60						; size = 16
$T520314 = -44						; size = 16
$T520315 = -28						; size = 16
__$EHRec$ = -12						; size = 12
_rszIconName$ = 8					; size = 4
_iPresentType$ = 12					; size = 4
tv351 = 16						; size = 4
tv348 = 16						; size = 4
tv322 = 16						; size = 4
tv319 = 16						; size = 4
_iPresentValue1$ = 16					; size = 4
_iPresentValue2$ = 20					; size = 4
?GetPresentIconName@GashaponWnd@@IAEXAAVioHashString@@HHH@Z PROC ; GashaponWnd::GetPresentIconName, COMDAT
; _this$ = ecx

; 867  : {

  00000	6a 70		 push	 112			; 00000070H
  00002	b8 00 00 00 00	 mov	 eax, __ehhandler$?GetPresentIconName@GashaponWnd@@IAEXAAVioHashString@@HHH@Z
  00007	e8 00 00 00 00	 call	 __EH_prolog3

; 868  : 	rszIconName.Clear();

  0000c	8b 75 08	 mov	 esi, DWORD PTR _rszIconName$[ebp]
  0000f	8b ce		 mov	 ecx, esi
  00011	ff 15 00 00 00
	00		 call	 DWORD PTR __imp_?Clear@ioHashString@@QAEXXZ

; 869  : 
; 870  : 	switch( iPresentType )

  00017	8b 45 0c	 mov	 eax, DWORD PTR _iPresentType$[ebp]
  0001a	48		 dec	 eax
  0001b	83 f8 0e	 cmp	 eax, 14			; 0000000eH
  0001e	0f 87 64 02 00
	00		 ja	 $LN20@GetPresent
  00024	ff 24 85 00 00
	00 00		 jmp	 DWORD PTR $LN53@GetPresent[eax*4]
$LN19@GetPresent:

; 871  : 	{
; 872  : 	case PRESENT_SOLDIER:
; 873  : 		{
; 874  : 			rszIconName = g_MyInfo.GetMySoldierIconName( iPresentValue1 );

  0002b	ff 75 10	 push	 DWORD PTR _iPresentValue1$[ebp]
  0002e	e8 00 00 00 00	 call	 ?GetSingleton@ioMyInfo@@SAAAV1@XZ ; ioMyInfo::GetSingleton
  00033	8b c8		 mov	 ecx, eax
  00035	e8 00 00 00 00	 call	 ?GetMySoldierIconName@ioMyInfo@@QAEAAVioHashString@@H@Z ; ioMyInfo::GetMySoldierIconName
$LN49@GetPresent:
  0003a	50		 push	 eax
$LN50@GetPresent:
  0003b	8b ce		 mov	 ecx, esi
  0003d	ff 15 00 00 00
	00		 call	 DWORD PTR __imp_??4ioHashString@@QAEAAV0@ABV0@@Z

; 875  : 		}
; 876  : 		break;

  00043	e9 40 02 00 00	 jmp	 $LN20@GetPresent
$LN18@GetPresent:

; 877  : 	case PRESENT_DECORATION:
; 878  : 		{
; 879  : 			int iClassType = iPresentValue1 / 100000;
; 880  : 			int iSexType   = (iPresentValue1 % 100000) / FLOAT1000;

  00048	b8 e8 03 00 00	 mov	 eax, 1000		; 000003e8H
  0004d	8b c8		 mov	 ecx, eax

; 881  : 			int iDecoType  = iPresentValue1 % 1000;

  0004f	8b 45 10	 mov	 eax, DWORD PTR _iPresentValue1$[ebp]
  00052	99		 cdq
  00053	bf e8 03 00 00	 mov	 edi, 1000		; 000003e8H
  00058	f7 ff		 idiv	 edi

; 882  : 			const DecoData &kData = g_DecorationPrice.GetDecoData( iSexType, iDecoType, iPresentValue2 );

  0005a	ff 75 14	 push	 DWORD PTR _iPresentValue2$[ebp]
  0005d	8b 45 10	 mov	 eax, DWORD PTR _iPresentValue1$[ebp]
  00060	bf a0 86 01 00	 mov	 edi, 100000		; 000186a0H
  00065	52		 push	 edx
  00066	99		 cdq
  00067	f7 ff		 idiv	 edi
  00069	89 55 10	 mov	 DWORD PTR tv351[ebp], edx
  0006c	db 45 10	 fild	 DWORD PTR tv351[ebp]
  0006f	89 4d 10	 mov	 DWORD PTR tv348[ebp], ecx
  00072	db 45 10	 fild	 DWORD PTR tv348[ebp]
$LN52@GetPresent:
  00075	85 c9		 test	 ecx, ecx
  00077	79 06		 jns	 SHORT $LN46@GetPresent
  00079	d8 05 00 00 00
	00		 fadd	 DWORD PTR __real@4f800000
$LN46@GetPresent:

; 877  : 	case PRESENT_DECORATION:
; 878  : 		{
; 879  : 			int iClassType = iPresentValue1 / 100000;
; 880  : 			int iSexType   = (iPresentValue1 % 100000) / FLOAT1000;

  0007f	de f9		 fdivp	 ST(1), ST(0)

; 882  : 			const DecoData &kData = g_DecorationPrice.GetDecoData( iSexType, iDecoType, iPresentValue2 );

  00081	e8 00 00 00 00	 call	 __ftol2_sse
  00086	50		 push	 eax
  00087	e8 00 00 00 00	 call	 ?GetSingleton@ioDecorationPrice@@SAAAV1@XZ ; ioDecorationPrice::GetSingleton
  0008c	8b c8		 mov	 ecx, eax
  0008e	e8 00 00 00 00	 call	 ?GetDecoData@ioDecorationPrice@@QAEABUtagDecoData@@HHH@Z ; ioDecorationPrice::GetDecoData

; 883  : 			rszIconName = kData.m_szIcon;

  00093	83 c0 10	 add	 eax, 16			; 00000010H

; 884  : 		}
; 885  : 		break;

  00096	eb a2		 jmp	 SHORT $LN49@GetPresent
$LN17@GetPresent:

; 886  : 	case PRESENT_ETC_ITEM:
; 887  : 		{
; 888  : 			ioEtcItem *pEtcItem = g_EtcItemMgr.FindEtcItem( iPresentValue1 );

  00098	ff 75 10	 push	 DWORD PTR _iPresentValue1$[ebp]
  0009b	8b 0d 00 00 00
	00		 mov	 ecx, DWORD PTR ?ms_Singleton@?$Singleton@VioEtcItemManager@@@@1PAVioEtcItemManager@@A ; Singleton<ioEtcItemManager>::ms_Singleton
  000a1	e8 00 00 00 00	 call	 ?FindEtcItem@ioEtcItemManager@@QAEPAVioEtcItem@@K@Z ; ioEtcItemManager::FindEtcItem

; 889  : 			if( pEtcItem )

  000a6	85 c0		 test	 eax, eax
  000a8	0f 84 da 01 00
	00		 je	 $LN20@GetPresent

; 890  : 			{
; 891  : 				rszIconName = pEtcItem->GetIconName();

  000ae	05 60 01 00 00	 add	 eax, 352		; 00000160H

; 892  : 			}			
; 893  : 		}
; 894  : 		break;

  000b3	eb 85		 jmp	 SHORT $LN49@GetPresent
$LN15@GetPresent:

; 895  : 	case PRESENT_PESO:
; 896  : 		{
; 897  : 			rszIconName = ioHashString( "UIIconPack13#quest_002" );

  000b5	68 00 00 00 00	 push	 OFFSET ??_C@_0BH@HADGNCPD@UIIconPack13?$CDquest_002?$AA@
  000ba	8d 4d d4	 lea	 ecx, DWORD PTR $T520314[ebp]
  000bd	ff 15 00 00 00
	00		 call	 DWORD PTR __imp_??0ioHashString@@QAE@PBD@Z
  000c3	83 65 fc 00	 and	 DWORD PTR __$EHRec$[ebp+8], 0
  000c7	50		 push	 eax
  000c8	8b ce		 mov	 ecx, esi
  000ca	ff 15 00 00 00
	00		 call	 DWORD PTR __imp_??4ioHashString@@QAEAAV0@ABV0@@Z
  000d0	8d 4d d4	 lea	 ecx, DWORD PTR $T520314[ebp]

; 898  : 		}
; 899  : 		break;

  000d3	e9 a6 01 00 00	 jmp	 $LN48@GetPresent
$LN14@GetPresent:

; 900  : 	case PRESENT_EXTRAITEM:
; 901  : 	case PRESENT_ACCESSORY:
; 902  : 		{
; 903  : 			const ioItem *pItem = g_ItemMaker.GetItemConst( iPresentValue1, __FUNCTION__ );

  000d8	68 00 00 00 00	 push	 OFFSET ??_C@_0CA@DKGEIMHF@GashaponWnd?3?3GetPresentIconName?$AA@
  000dd	8d 4d e4	 lea	 ecx, DWORD PTR $T520315[ebp]
  000e0	ff 15 00 00 00
	00		 call	 DWORD PTR __imp_??0ioHashString@@QAE@PBD@Z
  000e6	8d 45 e4	 lea	 eax, DWORD PTR $T520315[ebp]
  000e9	50		 push	 eax
  000ea	ff 75 10	 push	 DWORD PTR _iPresentValue1$[ebp]
  000ed	c7 45 fc 01 00
	00 00		 mov	 DWORD PTR __$EHRec$[ebp+8], 1
  000f4	e8 00 00 00 00	 call	 ?GetSingleton@ioItemMaker@@SAAAV1@XZ ; ioItemMaker::GetSingleton
  000f9	8b c8		 mov	 ecx, eax
  000fb	e8 00 00 00 00	 call	 ?GetItemConst@ioItemMaker@@QBEPBVioItem@@KABVioHashString@@@Z ; ioItemMaker::GetItemConst
  00100	83 4d fc ff	 or	 DWORD PTR __$EHRec$[ebp+8], -1
  00104	8d 4d e4	 lea	 ecx, DWORD PTR $T520315[ebp]
  00107	8b f8		 mov	 edi, eax
  00109	ff 15 00 00 00
	00		 call	 DWORD PTR __imp_??1ioHashString@@QAE@XZ

; 904  : 			if( pItem )

  0010f	85 ff		 test	 edi, edi
  00111	0f 84 71 01 00
	00		 je	 $LN20@GetPresent

; 905  : 			{
; 906  : 				rszIconName = pItem->GetItemLargeIconName();

  00117	81 c7 14 02 00
	00		 add	 edi, 532		; 00000214H
  0011d	57		 push	 edi

; 907  : 			}
; 908  : 		}
; 909  : 		break;

  0011e	e9 18 ff ff ff	 jmp	 $LN50@GetPresent
$LN12@GetPresent:

; 910  : 	case PRESENT_EXTRAITEM_BOX:
; 911  : 		{
; 912  : 			RandomMachineInfo *pInfo = g_ExtraItemInfoMgr.GetRandomMachineInfo( iPresentValue1 );

  00123	ff 75 10	 push	 DWORD PTR _iPresentValue1$[ebp]
  00126	e8 00 00 00 00	 call	 ?GetSingleton@ioExtraItemInfoManager@@SAAAV1@XZ ; ioExtraItemInfoManager::GetSingleton
  0012b	8b c8		 mov	 ecx, eax
  0012d	e8 00 00 00 00	 call	 ?GetRandomMachineInfo@ioExtraItemInfoManager@@QAEPAVRandomMachineInfo@@H@Z ; ioExtraItemInfoManager::GetRandomMachineInfo

; 913  : 			if( pInfo )

  00132	85 c0		 test	 eax, eax
  00134	0f 84 4e 01 00
	00		 je	 $LN20@GetPresent

; 914  : 			{
; 915  : 				rszIconName = pInfo->GetIconName();

  0013a	83 c0 18	 add	 eax, 24			; 00000018H

; 916  : 			}
; 917  : 		}
; 918  : 		break;

  0013d	e9 f8 fe ff ff	 jmp	 $LN49@GetPresent
$LN10@GetPresent:

; 919  : 	case PRESENT_RANDOM_DECO:
; 920  : 		{
; 921  : 			int iClassType = iPresentValue1 / 100000;
; 922  : 			int iSexType   = (iPresentValue1 % 100000) / FLOAT1000;

  00142	b8 e8 03 00 00	 mov	 eax, 1000		; 000003e8H
  00147	8b c8		 mov	 ecx, eax

; 923  : 			int iDecoType  = iPresentValue1 % 1000;

  00149	8b 45 10	 mov	 eax, DWORD PTR _iPresentValue1$[ebp]
  0014c	99		 cdq
  0014d	bf e8 03 00 00	 mov	 edi, 1000		; 000003e8H
  00152	f7 ff		 idiv	 edi

; 924  : 			const DecoData &kData = g_DecorationPrice.GetDecoData( iSexType, iDecoType, iPresentValue2 );

  00154	ff 75 14	 push	 DWORD PTR _iPresentValue2$[ebp]
  00157	8b 45 10	 mov	 eax, DWORD PTR _iPresentValue1$[ebp]
  0015a	bf a0 86 01 00	 mov	 edi, 100000		; 000186a0H
  0015f	52		 push	 edx
  00160	99		 cdq
  00161	f7 ff		 idiv	 edi
  00163	89 55 10	 mov	 DWORD PTR tv322[ebp], edx
  00166	db 45 10	 fild	 DWORD PTR tv322[ebp]
  00169	89 4d 10	 mov	 DWORD PTR tv319[ebp], ecx
  0016c	db 45 10	 fild	 DWORD PTR tv319[ebp]

; 925  : 			rszIconName = kData.m_szIcon;
; 926  : 		}
; 927  : 		break;

  0016f	e9 01 ff ff ff	 jmp	 $LN52@GetPresent
$LN9@GetPresent:

; 928  : 	case PRESENT_GRADE_EXP:
; 929  : 		{
; 930  : 			rszIconName = ioHashString( "UIIconPack13#quest_001" );

  00174	68 00 00 00 00	 push	 OFFSET ??_C@_0BH@FLBLIBDA@UIIconPack13?$CDquest_001?$AA@
  00179	8d 4d c4	 lea	 ecx, DWORD PTR $T520316[ebp]
  0017c	ff 15 00 00 00
	00		 call	 DWORD PTR __imp_??0ioHashString@@QAE@PBD@Z
  00182	50		 push	 eax
  00183	8b ce		 mov	 ecx, esi
  00185	c7 45 fc 02 00
	00 00		 mov	 DWORD PTR __$EHRec$[ebp+8], 2
  0018c	ff 15 00 00 00
	00		 call	 DWORD PTR __imp_??4ioHashString@@QAEAAV0@ABV0@@Z
  00192	8d 4d c4	 lea	 ecx, DWORD PTR $T520316[ebp]

; 931  : 		}
; 932  : 		break;

  00195	e9 e4 00 00 00	 jmp	 $LN48@GetPresent
$LN8@GetPresent:

; 933  : 	case PRESENT_MEDALITEM:
; 934  : 		{
; 935  : 			const ioMedalItemInfoManager::ItemInfo *pItem = g_MedalItemMgr.GetItemInfo( iPresentValue1 );

  0019a	ff 75 10	 push	 DWORD PTR _iPresentValue1$[ebp]
  0019d	e8 00 00 00 00	 call	 ?GetSingleton@ioMedalItemInfoManager@@SAAAV1@XZ ; ioMedalItemInfoManager::GetSingleton
  001a2	8b c8		 mov	 ecx, eax
  001a4	e8 00 00 00 00	 call	 ?GetItemInfo@ioMedalItemInfoManager@@QAEPBUItemInfo@1@H@Z ; ioMedalItemInfoManager::GetItemInfo

; 936  : 			if( pItem )

  001a9	85 c0		 test	 eax, eax
  001ab	0f 84 d7 00 00
	00		 je	 $LN20@GetPresent

; 937  : 			{
; 938  : 				rszIconName = pItem->m_sIcon;

  001b1	05 a8 01 00 00	 add	 eax, 424		; 000001a8H

; 939  : 			}
; 940  : 		}
; 941  : 		break;

  001b6	e9 7f fe ff ff	 jmp	 $LN49@GetPresent
$LN6@GetPresent:

; 942  : 	case PRESENT_ALCHEMIC_ITEM:
; 943  : 		{
; 944  : 			rszIconName = g_AlchemicMgr.GetAlchemicItemIcon( iPresentValue1 );

  001bb	ff 75 10	 push	 DWORD PTR _iPresentValue1$[ebp]
  001be	8d 45 b4	 lea	 eax, DWORD PTR $T520317[ebp]
  001c1	50		 push	 eax
  001c2	e8 00 00 00 00	 call	 ?GetSingleton@ioAlchemicMgr@@SAAAV1@XZ ; ioAlchemicMgr::GetSingleton
  001c7	8b c8		 mov	 ecx, eax
  001c9	e8 00 00 00 00	 call	 ?GetAlchemicItemIcon@ioAlchemicMgr@@QAE?AVioHashString@@H@Z ; ioAlchemicMgr::GetAlchemicItemIcon
  001ce	50		 push	 eax
  001cf	8b ce		 mov	 ecx, esi
  001d1	c7 45 fc 03 00
	00 00		 mov	 DWORD PTR __$EHRec$[ebp+8], 3
  001d8	ff 15 00 00 00
	00		 call	 DWORD PTR __imp_??4ioHashString@@QAEAAV0@ABV0@@Z
  001de	8d 4d b4	 lea	 ecx, DWORD PTR $T520317[ebp]

; 945  : 		}
; 946  : 		break;

  001e1	e9 98 00 00 00	 jmp	 $LN48@GetPresent
$LN5@GetPresent:

; 947  : 	case PRESENT_PET:
; 948  : 		{
; 949  : 			int nPetRank = iPresentValue2%10000;

  001e6	8b 45 14	 mov	 eax, DWORD PTR _iPresentValue2$[ebp]
  001e9	99		 cdq
  001ea	b9 10 27 00 00	 mov	 ecx, 10000		; 00002710H
  001ef	f7 f9		 idiv	 ecx

; 950  : 			rszIconName = g_PetInfoMgr.GetPetIcon( iPresentValue1, (PetRankType)nPetRank );

  001f1	8d 45 a4	 lea	 eax, DWORD PTR $T520318[ebp]
  001f4	52		 push	 edx
  001f5	ff 75 10	 push	 DWORD PTR _iPresentValue1$[ebp]
  001f8	50		 push	 eax
  001f9	e8 00 00 00 00	 call	 ?GetSingleton@ioPetInfoManager@@SAAAV1@XZ ; ioPetInfoManager::GetSingleton
  001fe	8b c8		 mov	 ecx, eax
  00200	e8 00 00 00 00	 call	 ?GetPetIcon@ioPetInfoManager@@QAE?AVioHashString@@HW4PetRankType@@@Z ; ioPetInfoManager::GetPetIcon
  00205	50		 push	 eax
  00206	8b ce		 mov	 ecx, esi
  00208	c7 45 fc 04 00
	00 00		 mov	 DWORD PTR __$EHRec$[ebp+8], 4
  0020f	ff 15 00 00 00
	00		 call	 DWORD PTR __imp_??4ioHashString@@QAEAAV0@ABV0@@Z
  00215	8d 4d a4	 lea	 ecx, DWORD PTR $T520318[ebp]

; 951  : 		}
; 952  : 		break;

  00218	eb 64		 jmp	 SHORT $LN48@GetPresent
$LN4@GetPresent:

; 953  : 	case PRESENT_COSTUME:
; 954  : 		{
; 955  : 			// UI  ()
; 956  : 			rszIconName = g_CostumeInfoMgr.GetCostumeIcon( iPresentValue1 );

  0021a	ff 75 10	 push	 DWORD PTR _iPresentValue1$[ebp]
  0021d	8d 45 94	 lea	 eax, DWORD PTR $T520319[ebp]
  00220	50		 push	 eax
  00221	e8 00 00 00 00	 call	 ?GetSingleton@ioCostumeInfoManager@@SAAAV1@XZ ; ioCostumeInfoManager::GetSingleton
  00226	8b c8		 mov	 ecx, eax
  00228	e8 00 00 00 00	 call	 ?GetCostumeIcon@ioCostumeInfoManager@@QAE?AVioHashString@@H@Z ; ioCostumeInfoManager::GetCostumeIcon
  0022d	50		 push	 eax
  0022e	8b ce		 mov	 ecx, esi
  00230	c7 45 fc 05 00
	00 00		 mov	 DWORD PTR __$EHRec$[ebp+8], 5
  00237	ff 15 00 00 00
	00		 call	 DWORD PTR __imp_??4ioHashString@@QAEAAV0@ABV0@@Z
  0023d	8d 4d 94	 lea	 ecx, DWORD PTR $T520319[ebp]

; 957  : 		}
; 958  : 		break;

  00240	eb 3c		 jmp	 SHORT $LN48@GetPresent
$LN3@GetPresent:

; 959  : 	case PRESENT_COSTUME_BOX:
; 960  : 		{
; 961  : 			CostumeShopInfo *pInfo = g_CostumeShopInfoMgr.GetCostumeMachineInfo( iPresentValue1 );

  00242	ff 75 10	 push	 DWORD PTR _iPresentValue1$[ebp]
  00245	e8 00 00 00 00	 call	 ?GetSingleton@ioCostumeShopInfoManager@@SAAAV1@XZ ; ioCostumeShopInfoManager::GetSingleton
  0024a	8b c8		 mov	 ecx, eax
  0024c	e8 00 00 00 00	 call	 ?GetCostumeMachineInfo@ioCostumeShopInfoManager@@QAEPAVCostumeShopInfo@@H@Z ; ioCostumeShopInfoManager::GetCostumeMachineInfo

; 962  : 			if( pInfo )

  00251	85 c0		 test	 eax, eax
  00253	74 33		 je	 SHORT $LN20@GetPresent

; 963  : 				rszIconName = pInfo->GetIconName();

  00255	83 c0 50	 add	 eax, 80			; 00000050H

; 964  : 		}
; 965  : 		break;

  00258	e9 dd fd ff ff	 jmp	 $LN49@GetPresent
$LN1@GetPresent:

; 966  : 	case PRESENT_BONUS_CASH:
; 967  : 		{
; 968  : 			rszIconName = ioHashString( "UIIconPack101#Cash" );

  0025d	68 00 00 00 00	 push	 OFFSET ??_C@_0BD@HEINEDGN@UIIconPack101?$CDCash?$AA@
  00262	8d 4d 84	 lea	 ecx, DWORD PTR $T520320[ebp]
  00265	ff 15 00 00 00
	00		 call	 DWORD PTR __imp_??0ioHashString@@QAE@PBD@Z
  0026b	50		 push	 eax
  0026c	8b ce		 mov	 ecx, esi
  0026e	c7 45 fc 06 00
	00 00		 mov	 DWORD PTR __$EHRec$[ebp+8], 6
  00275	ff 15 00 00 00
	00		 call	 DWORD PTR __imp_??4ioHashString@@QAEAAV0@ABV0@@Z
  0027b	8d 4d 84	 lea	 ecx, DWORD PTR $T520320[ebp]
$LN48@GetPresent:
  0027e	83 4d fc ff	 or	 DWORD PTR __$EHRec$[ebp+8], -1
  00282	ff 15 00 00 00
	00		 call	 DWORD PTR __imp_??1ioHashString@@QAE@XZ
$LN20@GetPresent:

; 969  : 		}
; 970  : 		break;
; 971  : 	}
; 972  : }

  00288	e8 00 00 00 00	 call	 __EH_epilog3
  0028d	c2 10 00	 ret	 16			; 00000010H
$LN53@GetPresent:
  00290	00 00 00 00	 DD	 $LN19@GetPresent
  00294	00 00 00 00	 DD	 $LN18@GetPresent
  00298	00 00 00 00	 DD	 $LN17@GetPresent
  0029c	00 00 00 00	 DD	 $LN15@GetPresent
  002a0	00 00 00 00	 DD	 $LN14@GetPresent
  002a4	00 00 00 00	 DD	 $LN12@GetPresent
  002a8	00 00 00 00	 DD	 $LN10@GetPresent
  002ac	00 00 00 00	 DD	 $LN9@GetPresent
  002b0	00 00 00 00	 DD	 $LN8@GetPresent
  002b4	00 00 00 00	 DD	 $LN6@GetPresent
  002b8	00 00 00 00	 DD	 $LN5@GetPresent
  002bc	00 00 00 00	 DD	 $LN4@GetPresent
  002c0	00 00 00 00	 DD	 $LN1@GetPresent
  002c4	00 00 00 00	 DD	 $LN14@GetPresent
  002c8	00 00 00 00	 DD	 $LN3@GetPresent
_TEXT	ENDS
;	COMDAT text$x
text$x	SEGMENT
__unwindfunclet$?GetPresentIconName@GashaponWnd@@IAEXAAVioHashString@@HHH@Z$0:
  00000	8d 4d d4	 lea	 ecx, DWORD PTR $T520314[ebp]
  00003	ff 25 00 00 00
	00		 jmp	 DWORD PTR __imp_??1ioHashString@@QAE@XZ
__unwindfunclet$?GetPresentIconName@GashaponWnd@@IAEXAAVioHashString@@HHH@Z$1:
  00009	8d 4d e4	 lea	 ecx, DWORD PTR $T520315[ebp]
  0000c	ff 25 00 00 00
	00		 jmp	 DWORD PTR __imp_??1ioHashString@@QAE@XZ
__unwindfunclet$?GetPresentIconName@GashaponWnd@@IAEXAAVioHashString@@HHH@Z$2:
  00012	8d 4d c4	 lea	 ecx, DWORD PTR $T520316[ebp]
  00015	ff 25 00 00 00
	00		 jmp	 DWORD PTR __imp_??1ioHashString@@QAE@XZ
__unwindfunclet$?GetPresentIconName@GashaponWnd@@IAEXAAVioHashString@@HHH@Z$3:
  0001b	8d 4d b4	 lea	 ecx, DWORD PTR $T520317[ebp]
  0001e	ff 25 00 00 00
	00		 jmp	 DWORD PTR __imp_??1ioHashString@@QAE@XZ
__unwindfunclet$?GetPresentIconName@GashaponWnd@@IAEXAAVioHashString@@HHH@Z$4:
  00024	8d 4d a4	 lea	 ecx, DWORD PTR $T520318[ebp]
  00027	ff 25 00 00 00
	00		 jmp	 DWORD PTR __imp_??1ioHashString@@QAE@XZ
__unwindfunclet$?GetPresentIconName@GashaponWnd@@IAEXAAVioHashString@@HHH@Z$5:
  0002d	8d 4d 94	 lea	 ecx, DWORD PTR $T520319[ebp]
  00030	ff 25 00 00 00
	00		 jmp	 DWORD PTR __imp_??1ioHashString@@QAE@XZ
__unwindfunclet$?GetPresentIconName@GashaponWnd@@IAEXAAVioHashString@@HHH@Z$6:
  00036	8d 4d 84	 lea	 ecx, DWORD PTR $T520320[ebp]
  00039	ff 25 00 00 00
	00		 jmp	 DWORD PTR __imp_??1ioHashString@@QAE@XZ
__ehhandler$?GetPresentIconName@GashaponWnd@@IAEXAAVioHashString@@HHH@Z:
  0003f	8b 54 24 08	 mov	 edx, DWORD PTR [esp+8]
  00043	8d 42 0c	 lea	 eax, DWORD PTR [edx+12]
  00046	8b 4a 80	 mov	 ecx, DWORD PTR [edx-128]
  00049	33 c8		 xor	 ecx, eax
  0004b	e8 00 00 00 00	 call	 @__security_check_cookie@4
  00050	b8 00 00 00 00	 mov	 eax, OFFSET __ehfuncinfo$?GetPresentIconName@GashaponWnd@@IAEXAAVioHashString@@HHH@Z
  00055	e9 00 00 00 00	 jmp	 ___CxxFrameHandler3
text$x	ENDS
?GetPresentIconName@GashaponWnd@@IAEXAAVioHashString@@HHH@Z ENDP ; GashaponWnd::GetPresentIconName
PUBLIC	??_C@_0BN@BMKMIKLH@GashaponWnd?3?3GetPresentGrade?$AA@ ; `string'
PUBLIC	?GetPresentGrade@GashaponWnd@@IAEHHH@Z		; GashaponWnd::GetPresentGrade
EXTRN	?GetPowerUpGradeType@ioUIImageRenderManager@@QAEHH@Z:PROC ; ioUIImageRenderManager::GetPowerUpGradeType
EXTRN	?GetSingleton@ioUIImageRenderManager@@SAAAV1@XZ:PROC ; ioUIImageRenderManager::GetSingleton
EXTRN	?GetGradeType@ioCostumeInfoManager@@QAEHH@Z:PROC ; ioCostumeInfoManager::GetGradeType
;	COMDAT ??_C@_0BN@BMKMIKLH@GashaponWnd?3?3GetPresentGrade?$AA@
; File d:\lost saga for developer\youtube\tutorial\source\src\lsclient\ioetcitem.h
CONST	SEGMENT
??_C@_0BN@BMKMIKLH@GashaponWnd?3?3GetPresentGrade?$AA@ DB 'GashaponWnd::G'
	DB	'etPresentGrade', 00H			; `string'
CONST	ENDS
;	COMDAT xdata$x
xdata$x	SEGMENT
__unwindtable$?GetPresentGrade@GashaponWnd@@IAEHHH@Z DD 0ffffffffH
	DD	FLAT:__unwindfunclet$?GetPresentGrade@GashaponWnd@@IAEHHH@Z$0
__ehfuncinfo$?GetPresentGrade@GashaponWnd@@IAEHHH@Z DD 019930522H
	DD	01H
	DD	FLAT:__unwindtable$?GetPresentGrade@GashaponWnd@@IAEHHH@Z
	DD	2 DUP(00H)
	DD	2 DUP(00H)
	DD	00H
	DD	01H
; Function compile flags: /Ogsp
; File d:\lost saga for developer\youtube\tutorial\source\src\lsclient\gui\gashaponwnd.cpp
xdata$x	ENDS
;	COMDAT ?GetPresentGrade@GashaponWnd@@IAEHHH@Z
_TEXT	SEGMENT
$T520372 = -28						; size = 16
__$EHRec$ = -12						; size = 12
_nPresentType$ = 8					; size = 4
_nPresentCode$ = 12					; size = 4
?GetPresentGrade@GashaponWnd@@IAEHHH@Z PROC		; GashaponWnd::GetPresentGrade, COMDAT
; _this$ = ecx

; 1009 : {

  00000	6a 10		 push	 16			; 00000010H
  00002	b8 00 00 00 00	 mov	 eax, __ehhandler$?GetPresentGrade@GashaponWnd@@IAEHHH@Z
  00007	e8 00 00 00 00	 call	 __EH_prolog3

; 1010 : 	switch( nPresentType )

  0000c	8b 45 08	 mov	 eax, DWORD PTR _nPresentType$[ebp]
  0000f	48		 dec	 eax
  00010	0f 84 cb 00 00
	00		 je	 $LN10@GetPresent@2
  00016	48		 dec	 eax
  00017	48		 dec	 eax
  00018	0f 84 a5 00 00
	00		 je	 $LN2@GetPresent@2
  0001e	48		 dec	 eax
  0001f	48		 dec	 eax
  00020	74 61		 je	 SHORT $LN9@GetPresent@2
  00022	48		 dec	 eax
  00023	74 43		 je	 SHORT $LN7@GetPresent@2
  00025	83 e8 06	 sub	 eax, 6
  00028	74 2a		 je	 SHORT $LN5@GetPresent@2
  0002a	48		 dec	 eax
  0002b	48		 dec	 eax
  0002c	74 55		 je	 SHORT $LN9@GetPresent@2
  0002e	48		 dec	 eax
  0002f	0f 85 a8 00 00
	00		 jne	 $LN1@GetPresent@2

; 1033 : 		}
; 1034 : 		break;
; 1035 : 	case PRESENT_COSTUME_BOX:
; 1036 : 		{
; 1037 : 			CostumeShopInfo *pInfo = g_CostumeShopInfoMgr.GetCostumeMachineInfo( nPresentCode );

  00035	ff 75 0c	 push	 DWORD PTR _nPresentCode$[ebp]
  00038	e8 00 00 00 00	 call	 ?GetSingleton@ioCostumeShopInfoManager@@SAAAV1@XZ ; ioCostumeShopInfoManager::GetSingleton
  0003d	8b c8		 mov	 ecx, eax
  0003f	e8 00 00 00 00	 call	 ?GetCostumeMachineInfo@ioCostumeShopInfoManager@@QAEPAVCostumeShopInfo@@H@Z ; ioCostumeShopInfoManager::GetCostumeMachineInfo

; 1038 : 			if( pInfo )

  00044	85 c0		 test	 eax, eax
  00046	0f 84 91 00 00
	00		 je	 $LN1@GetPresent@2

; 1039 : 				return pInfo->GetGradeType();

  0004c	8b 40 0c	 mov	 eax, DWORD PTR [eax+12]
  0004f	e9 9c 00 00 00	 jmp	 $LN13@GetPresent@2
$LN5@GetPresent@2:

; 1028 : 		}
; 1029 : 		break;
; 1030 : 	case PRESENT_COSTUME:
; 1031 : 		{
; 1032 : 			return g_CostumeInfoMgr.GetGradeType( nPresentCode );

  00054	ff 75 0c	 push	 DWORD PTR _nPresentCode$[ebp]
  00057	e8 00 00 00 00	 call	 ?GetSingleton@ioCostumeInfoManager@@SAAAV1@XZ ; ioCostumeInfoManager::GetSingleton
  0005c	8b c8		 mov	 ecx, eax
  0005e	e8 00 00 00 00	 call	 ?GetGradeType@ioCostumeInfoManager@@QAEHH@Z ; ioCostumeInfoManager::GetGradeType
  00063	e9 88 00 00 00	 jmp	 $LN13@GetPresent@2
$LN7@GetPresent@2:

; 1021 : 		}
; 1022 : 		break;
; 1023 : 	case PRESENT_EXTRAITEM_BOX:
; 1024 : 		{
; 1025 : 			RandomMachineInfo *pInfo = g_ExtraItemInfoMgr.GetRandomMachineInfo( nPresentCode );

  00068	ff 75 0c	 push	 DWORD PTR _nPresentCode$[ebp]
  0006b	e8 00 00 00 00	 call	 ?GetSingleton@ioExtraItemInfoManager@@SAAAV1@XZ ; ioExtraItemInfoManager::GetSingleton
  00070	8b c8		 mov	 ecx, eax
  00072	e8 00 00 00 00	 call	 ?GetRandomMachineInfo@ioExtraItemInfoManager@@QAEPAVRandomMachineInfo@@H@Z ; ioExtraItemInfoManager::GetRandomMachineInfo

; 1026 : 			if( pInfo )

  00077	85 c0		 test	 eax, eax
  00079	74 62		 je	 SHORT $LN1@GetPresent@2

; 1027 : 				return pInfo->GetGradeType();

  0007b	8b 80 8c 00 00
	00		 mov	 eax, DWORD PTR [eax+140]
  00081	eb 6d		 jmp	 SHORT $LN13@GetPresent@2
$LN9@GetPresent@2:

; 1014 : 		break;
; 1015 : 	case PRESENT_EXTRAITEM:
; 1016 : 	case PRESENT_ACCESSORY:
; 1017 : 		{
; 1018 : 			const ioItem *pItem = g_ItemMaker.GetItemConst( nPresentCode, __FUNCTION__ );

  00083	68 00 00 00 00	 push	 OFFSET ??_C@_0BN@BMKMIKLH@GashaponWnd?3?3GetPresentGrade?$AA@
  00088	8d 4d e4	 lea	 ecx, DWORD PTR $T520372[ebp]
  0008b	ff 15 00 00 00
	00		 call	 DWORD PTR __imp_??0ioHashString@@QAE@PBD@Z
  00091	83 65 fc 00	 and	 DWORD PTR __$EHRec$[ebp+8], 0
  00095	8d 45 e4	 lea	 eax, DWORD PTR $T520372[ebp]
  00098	50		 push	 eax
  00099	ff 75 0c	 push	 DWORD PTR _nPresentCode$[ebp]
  0009c	e8 00 00 00 00	 call	 ?GetSingleton@ioItemMaker@@SAAAV1@XZ ; ioItemMaker::GetSingleton
  000a1	8b c8		 mov	 ecx, eax
  000a3	e8 00 00 00 00	 call	 ?GetItemConst@ioItemMaker@@QBEPBVioItem@@KABVioHashString@@@Z ; ioItemMaker::GetItemConst
  000a8	83 4d fc ff	 or	 DWORD PTR __$EHRec$[ebp+8], -1
  000ac	8d 4d e4	 lea	 ecx, DWORD PTR $T520372[ebp]
  000af	8b f0		 mov	 esi, eax
  000b1	ff 15 00 00 00
	00		 call	 DWORD PTR __imp_??1ioHashString@@QAE@XZ

; 1019 : 			if( pItem )

  000b7	85 f6		 test	 esi, esi
  000b9	74 22		 je	 SHORT $LN1@GetPresent@2

; 1020 : 				return pItem->GetGradeType();

  000bb	8b 86 20 06 00
	00		 mov	 eax, DWORD PTR [esi+1568]
  000c1	eb 2d		 jmp	 SHORT $LN13@GetPresent@2
$LN2@GetPresent@2:

; 1040 : 		}
; 1041 : 		break;
; 1042 : 	case PRESENT_ETC_ITEM:
; 1043 : 		{
; 1044 : 			ioEtcItem *pEtcItem = g_EtcItemMgr.FindEtcItem( nPresentCode );

  000c3	ff 75 0c	 push	 DWORD PTR _nPresentCode$[ebp]
  000c6	8b 0d 00 00 00
	00		 mov	 ecx, DWORD PTR ?ms_Singleton@?$Singleton@VioEtcItemManager@@@@1PAVioEtcItemManager@@A ; Singleton<ioEtcItemManager>::ms_Singleton
  000cc	e8 00 00 00 00	 call	 ?FindEtcItem@ioEtcItemManager@@QAEPAVioEtcItem@@K@Z ; ioEtcItemManager::FindEtcItem

; 1045 : 			if( pEtcItem ) 

  000d1	85 c0		 test	 eax, eax
  000d3	74 08		 je	 SHORT $LN1@GetPresent@2

; 1046 : 				return pEtcItem->GetGradeType();

  000d5	8b 80 84 01 00
	00		 mov	 eax, DWORD PTR [eax+388]
  000db	eb 13		 jmp	 SHORT $LN13@GetPresent@2
$LN1@GetPresent@2:

; 1047 : 		}
; 1048 : 		break;
; 1049 : 	}
; 1050 : 
; 1051 : 	return 0;

  000dd	33 c0		 xor	 eax, eax
  000df	eb 0f		 jmp	 SHORT $LN13@GetPresent@2
$LN10@GetPresent@2:

; 1011 : 	{
; 1012 : 	case PRESENT_SOLDIER:
; 1013 : 		return g_UIImageRenderMgr.GetPowerUpGradeType( nPresentCode );

  000e1	ff 75 0c	 push	 DWORD PTR _nPresentCode$[ebp]
  000e4	e8 00 00 00 00	 call	 ?GetSingleton@ioUIImageRenderManager@@SAAAV1@XZ ; ioUIImageRenderManager::GetSingleton
  000e9	8b c8		 mov	 ecx, eax
  000eb	e8 00 00 00 00	 call	 ?GetPowerUpGradeType@ioUIImageRenderManager@@QAEHH@Z ; ioUIImageRenderManager::GetPowerUpGradeType
$LN13@GetPresent@2:

; 1052 : }

  000f0	e8 00 00 00 00	 call	 __EH_epilog3
  000f5	c2 08 00	 ret	 8
_TEXT	ENDS
;	COMDAT text$x
text$x	SEGMENT
__unwindfunclet$?GetPresentGrade@GashaponWnd@@IAEHHH@Z$0:
  00000	8d 4d e4	 lea	 ecx, DWORD PTR $T520372[ebp]
  00003	ff 25 00 00 00
	00		 jmp	 DWORD PTR __imp_??1ioHashString@@QAE@XZ
__ehhandler$?GetPresentGrade@GashaponWnd@@IAEHHH@Z:
  00009	8b 54 24 08	 mov	 edx, DWORD PTR [esp+8]
  0000d	8d 42 0c	 lea	 eax, DWORD PTR [edx+12]
  00010	8b 4a e0	 mov	 ecx, DWORD PTR [edx-32]
  00013	33 c8		 xor	 ecx, eax
  00015	e8 00 00 00 00	 call	 @__security_check_cookie@4
  0001a	b8 00 00 00 00	 mov	 eax, OFFSET __ehfuncinfo$?GetPresentGrade@GashaponWnd@@IAEHHH@Z
  0001f	e9 00 00 00 00	 jmp	 ___CxxFrameHandler3
text$x	ENDS
?GetPresentGrade@GashaponWnd@@IAEHHH@Z ENDP		; GashaponWnd::GetPresentGrade
PUBLIC	__real@434c0000
PUBLIC	?PrintManual@GashaponWnd@@IAEXHHM@Z		; GashaponWnd::PrintManual
EXTRN	??1ioComplexStringPrinter@@QAE@XZ:PROC		; ioComplexStringPrinter::~ioComplexStringPrinter
EXTRN	?ClearList@ioComplexStringPrinter@@QAEXXZ:PROC	; ioComplexStringPrinter::ClearList
EXTRN	?PrintFullTextWidthCut@ioComplexStringPrinter@@QAEXMMW4TextAlignType@@ME@Z:PROC ; ioComplexStringPrinter::PrintFullTextWidthCut
EXTRN	??0ioComplexStringPrinter@@QAE@XZ:PROC		; ioComplexStringPrinter::ioComplexStringPrinter
;	COMDAT __real@434c0000
; File d:\lost saga for developer\youtube\tutorial\source\src\lsclient\ioetcitem.h
CONST	SEGMENT
__real@434c0000 DD 0434c0000r			; 204
CONST	ENDS
;	COMDAT xdata$x
xdata$x	SEGMENT
__unwindtable$?PrintManual@GashaponWnd@@IAEXHHM@Z DD 0ffffffffH
	DD	FLAT:__unwindfunclet$?PrintManual@GashaponWnd@@IAEXHHM@Z$0
__ehfuncinfo$?PrintManual@GashaponWnd@@IAEXHHM@Z DD 019930522H
	DD	01H
	DD	FLAT:__unwindtable$?PrintManual@GashaponWnd@@IAEXHHM@Z
	DD	2 DUP(00H)
	DD	2 DUP(00H)
	DD	00H
	DD	01H
; Function compile flags: /Ogsp
; File d:\lost saga for developer\youtube\tutorial\source\src\lsclient\gui\gashaponwnd.cpp
xdata$x	ENDS
;	COMDAT ?PrintManual@GashaponWnd@@IAEXHHM@Z
_TEXT	SEGMENT
_kPrinter$ = -48					; size = 32
_iMaxLine$ = -16					; size = 4
__$EHRec$ = -12						; size = 12
tv196 = 8						; size = 4
_a_iXPos$ = 8						; size = 4
_a_iYPos$ = 12						; size = 4
_fScale$ = 16						; size = 4
?PrintManual@GashaponWnd@@IAEXHHM@Z PROC		; GashaponWnd::PrintManual, COMDAT
; _this$ = ecx

; 1097 : {

  00000	6a 24		 push	 36			; 00000024H
  00002	b8 00 00 00 00	 mov	 eax, __ehhandler$?PrintManual@GashaponWnd@@IAEXHHM@Z
  00007	e8 00 00 00 00	 call	 __EH_prolog3
  0000c	8b f1		 mov	 esi, ecx

; 1098 : 	if( !m_pManual )

  0000e	83 be 74 01 00
	00 00		 cmp	 DWORD PTR [esi+372], 0
  00015	0f 84 c9 00 00
	00		 je	 $LN6@PrintManua

; 1099 : 		return;
; 1100 : 
; 1101 : 	ioEtcItem *pItem = pItem = g_EtcItemMgr.FindEtcItem( m_dwEtcItemType );

  0001b	ff b6 08 a7 04
	00		 push	 DWORD PTR [esi+304904]
  00021	8b 0d 00 00 00
	00		 mov	 ecx, DWORD PTR ?ms_Singleton@?$Singleton@VioEtcItemManager@@@@1PAVioEtcItemManager@@A ; Singleton<ioEtcItemManager>::ms_Singleton
  00027	e8 00 00 00 00	 call	 ?FindEtcItem@ioEtcItemManager@@QAEPAVioEtcItem@@K@Z ; ioEtcItemManager::FindEtcItem

; 1102 : 
; 1103 : 	if( !pItem ) return;

  0002c	85 c0		 test	 eax, eax
  0002e	0f 84 b0 00 00
	00		 je	 $LN6@PrintManua

; 1104 : 
; 1105 : 	int iSubManual = pItem->GetInventorySubManual() - 1;

  00034	8b 78 4c	 mov	 edi, DWORD PTR [eax+76]

; 1106 : 	ioComplexStringPrinter kPrinter;

  00037	8d 4d d0	 lea	 ecx, DWORD PTR _kPrinter$[ebp]
  0003a	4f		 dec	 edi
  0003b	e8 00 00 00 00	 call	 ??0ioComplexStringPrinter@@QAE@XZ ; ioComplexStringPrinter::ioComplexStringPrinter

; 1107 : 	int iMaxLine = m_pManual->GetMaxLine( iSubManual );

  00040	8b 8e 74 01 00
	00		 mov	 ecx, DWORD PTR [esi+372]
  00046	8b 01		 mov	 eax, DWORD PTR [ecx]
  00048	83 65 fc 00	 and	 DWORD PTR __$EHRec$[ebp+8], 0
  0004c	57		 push	 edi
  0004d	ff 50 08	 call	 DWORD PTR [eax+8]

; 1108 : 	for(int iLine = 1; iLine < iMaxLine; iLine++)

  00050	33 db		 xor	 ebx, ebx
  00052	43		 inc	 ebx
  00053	89 45 f0	 mov	 DWORD PTR _iMaxLine$[ebp], eax
  00056	3b c3		 cmp	 eax, ebx
  00058	7e 7e		 jle	 SHORT $LN1@PrintManua
  0005a	66 0f 6e 45 08	 movd	 xmm0, DWORD PTR _a_iXPos$[ebp]
  0005f	0f 5b c0	 cvtdq2ps xmm0, xmm0
  00062	f3 0f 11 45 08	 movss	 DWORD PTR tv196[ebp], xmm0
$LL3@PrintManua:

; 1109 : 	{
; 1110 : 		m_pManual->SetPrinter( iSubManual, iLine, fScale, kPrinter);

  00067	8b 8e 74 01 00
	00		 mov	 ecx, DWORD PTR [esi+372]
  0006d	f3 0f 10 45 10	 movss	 xmm0, DWORD PTR _fScale$[ebp]
  00072	8b 01		 mov	 eax, DWORD PTR [ecx]
  00074	8d 55 d0	 lea	 edx, DWORD PTR _kPrinter$[ebp]
  00077	52		 push	 edx
  00078	51		 push	 ecx
  00079	f3 0f 11 04 24	 movss	 DWORD PTR [esp], xmm0
  0007e	53		 push	 ebx
  0007f	57		 push	 edi
  00080	ff 50 10	 call	 DWORD PTR [eax+16]

; 1111 : 		a_iYPos += m_pManual->GetSpaceLine( iSubManual, iLine);

  00083	8b 8e 74 01 00
	00		 mov	 ecx, DWORD PTR [esi+372]
  00089	8b 01		 mov	 eax, DWORD PTR [ecx]
  0008b	53		 push	 ebx
  0008c	57		 push	 edi
  0008d	ff 50 0c	 call	 DWORD PTR [eax+12]

; 1112 : 		kPrinter.PrintFullTextWidthCut( a_iXPos, a_iYPos, TAT_LEFT, DESC_WIDTH );

  00090	f3 0f 10 05 00
	00 00 00	 movss	 xmm0, DWORD PTR __real@434c0000
  00098	01 45 0c	 add	 DWORD PTR _a_iYPos$[ebp], eax
  0009b	68 ff 00 00 00	 push	 255			; 000000ffH
  000a0	51		 push	 ecx
  000a1	f3 0f 11 04 24	 movss	 DWORD PTR [esp], xmm0
  000a6	66 0f 6e 45 0c	 movd	 xmm0, DWORD PTR _a_iYPos$[ebp]
  000ab	6a 00		 push	 0
  000ad	51		 push	 ecx
  000ae	51		 push	 ecx
  000af	0f 5b c0	 cvtdq2ps xmm0, xmm0
  000b2	f3 0f 11 44 24
	04		 movss	 DWORD PTR [esp+4], xmm0
  000b8	f3 0f 10 45 08	 movss	 xmm0, DWORD PTR tv196[ebp]
  000bd	8d 4d d0	 lea	 ecx, DWORD PTR _kPrinter$[ebp]
  000c0	f3 0f 11 04 24	 movss	 DWORD PTR [esp], xmm0
  000c5	e8 00 00 00 00	 call	 ?PrintFullTextWidthCut@ioComplexStringPrinter@@QAEXMMW4TextAlignType@@ME@Z ; ioComplexStringPrinter::PrintFullTextWidthCut

; 1113 : 		kPrinter.ClearList();

  000ca	8d 4d d0	 lea	 ecx, DWORD PTR _kPrinter$[ebp]
  000cd	e8 00 00 00 00	 call	 ?ClearList@ioComplexStringPrinter@@QAEXXZ ; ioComplexStringPrinter::ClearList
  000d2	43		 inc	 ebx
  000d3	3b 5d f0	 cmp	 ebx, DWORD PTR _iMaxLine$[ebp]
  000d6	7c 8f		 jl	 SHORT $LL3@PrintManua
$LN1@PrintManua:

; 1114 : 	}
; 1115 : }

  000d8	83 4d fc ff	 or	 DWORD PTR __$EHRec$[ebp+8], -1
  000dc	8d 4d d0	 lea	 ecx, DWORD PTR _kPrinter$[ebp]
  000df	e8 00 00 00 00	 call	 ??1ioComplexStringPrinter@@QAE@XZ ; ioComplexStringPrinter::~ioComplexStringPrinter
$LN6@PrintManua:
  000e4	e8 00 00 00 00	 call	 __EH_epilog3
  000e9	c2 0c 00	 ret	 12			; 0000000cH
_TEXT	ENDS
;	COMDAT text$x
text$x	SEGMENT
__unwindfunclet$?PrintManual@GashaponWnd@@IAEXHHM@Z$0:
  00000	8d 4d d0	 lea	 ecx, DWORD PTR _kPrinter$[ebp]
  00003	e9 00 00 00 00	 jmp	 ??1ioComplexStringPrinter@@QAE@XZ ; ioComplexStringPrinter::~ioComplexStringPrinter
__ehhandler$?PrintManual@GashaponWnd@@IAEXHHM@Z:
  00008	8b 54 24 08	 mov	 edx, DWORD PTR [esp+8]
  0000c	8d 42 0c	 lea	 eax, DWORD PTR [edx+12]
  0000f	8b 4a cc	 mov	 ecx, DWORD PTR [edx-52]
  00012	33 c8		 xor	 ecx, eax
  00014	e8 00 00 00 00	 call	 @__security_check_cookie@4
  00019	b8 00 00 00 00	 mov	 eax, OFFSET __ehfuncinfo$?PrintManual@GashaponWnd@@IAEXHHM@Z
  0001e	e9 00 00 00 00	 jmp	 ___CxxFrameHandler3
text$x	ENDS
?PrintManual@GashaponWnd@@IAEXHHM@Z ENDP		; GashaponWnd::PrintManual
PUBLIC	??B?$_Vb_reference@V?$allocator@_N@std@@@std@@QBE_NXZ ; std::_Vb_reference<std::allocator<bool> >::operator bool
; Function compile flags: /Ogsp
; File c:\program files (x86)\microsoft visual studio 10.0\vc\include\vector
;	COMDAT ??B?$_Vb_reference@V?$allocator@_N@std@@@std@@QBE_NXZ
_TEXT	SEGMENT
??B?$_Vb_reference@V?$allocator@_N@std@@@std@@QBE_NXZ PROC ; std::_Vb_reference<std::allocator<bool> >::operator bool, COMDAT
; _this$ = ecx

; 1629 : 		return ((*_Getptr() & _Mask()) != 0);

  00000	33 c0		 xor	 eax, eax
  00002	40		 inc	 eax
  00003	8b d1		 mov	 edx, ecx
  00005	8b 4a 04	 mov	 ecx, DWORD PTR [edx+4]
  00008	d3 e0		 shl	 eax, cl
  0000a	8b 0a		 mov	 ecx, DWORD PTR [edx]
  0000c	23 01		 and	 eax, DWORD PTR [ecx]
  0000e	f7 d8		 neg	 eax
  00010	1b c0		 sbb	 eax, eax
  00012	f7 d8		 neg	 eax

; 1630 : 		}

  00014	c3		 ret	 0
??B?$_Vb_reference@V?$allocator@_N@std@@@std@@QBE_NXZ ENDP ; std::_Vb_reference<std::allocator<bool> >::operator bool
_TEXT	ENDS
PUBLIC	??0?$_Vb_reference@V?$allocator@_N@std@@@std@@QAE@ABV?$_Vb_iter_base@V?$allocator@_N@std@@@1@@Z ; std::_Vb_reference<std::allocator<bool> >::_Vb_reference<std::allocator<bool> >
; Function compile flags: /Ogsp
;	COMDAT ??0?$_Vb_reference@V?$allocator@_N@std@@@std@@QAE@ABV?$_Vb_iter_base@V?$allocator@_N@std@@@1@@Z
_TEXT	SEGMENT
__Right$ = 8						; size = 4
??0?$_Vb_reference@V?$allocator@_N@std@@@std@@QAE@ABV?$_Vb_iter_base@V?$allocator@_N@std@@@1@@Z PROC ; std::_Vb_reference<std::allocator<bool> >::_Vb_reference<std::allocator<bool> >, COMDAT
; _this$ = ecx

; 1600 : 		{	// construct with base

  00000	55		 push	 ebp
  00001	8b ec		 mov	 ebp, esp
  00003	8b c1		 mov	 eax, ecx
  00005	8b 4d 08	 mov	 ecx, DWORD PTR __Right$[ebp]
  00008	8b 51 04	 mov	 edx, DWORD PTR [ecx+4]
  0000b	8b 09		 mov	 ecx, DWORD PTR [ecx]
  0000d	89 08		 mov	 DWORD PTR [eax], ecx
  0000f	89 50 04	 mov	 DWORD PTR [eax+4], edx

; 1601 : 		}

  00012	5d		 pop	 ebp
  00013	c2 04 00	 ret	 4
??0?$_Vb_reference@V?$allocator@_N@std@@@std@@QAE@ABV?$_Vb_iter_base@V?$allocator@_N@std@@@1@@Z ENDP ; std::_Vb_reference<std::allocator<bool> >::_Vb_reference<std::allocator<bool> >
_TEXT	ENDS
PUBLIC	??0?$_Vb_iterator@V?$allocator@_N@std@@@std@@QAE@PAIPAU_Container_base0@1@@Z ; std::_Vb_iterator<std::allocator<bool> >::_Vb_iterator<std::allocator<bool> >
; Function compile flags: /Ogsp
;	COMDAT ??0?$_Vb_iterator@V?$allocator@_N@std@@@std@@QAE@PAIPAU_Container_base0@1@@Z
_TEXT	SEGMENT
__Ptr$ = 8						; size = 4
__Mypvbool$ = 12					; size = 4
??0?$_Vb_iterator@V?$allocator@_N@std@@@std@@QAE@PAIPAU_Container_base0@1@@Z PROC ; std::_Vb_iterator<std::allocator<bool> >::_Vb_iterator<std::allocator<bool> >, COMDAT
; _this$ = ecx

; 1916 : 		{	// construct with offset and pointer

  00000	55		 push	 ebp
  00001	8b ec		 mov	 ebp, esp
  00003	8b c1		 mov	 eax, ecx
  00005	8b 4d 08	 mov	 ecx, DWORD PTR __Ptr$[ebp]
  00008	83 60 04 00	 and	 DWORD PTR [eax+4], 0
  0000c	89 08		 mov	 DWORD PTR [eax], ecx

; 1917 : 		}

  0000e	5d		 pop	 ebp
  0000f	c2 08 00	 ret	 8
??0?$_Vb_iterator@V?$allocator@_N@std@@@std@@QAE@PAIPAU_Container_base0@1@@Z ENDP ; std::_Vb_iterator<std::allocator<bool> >::_Vb_iterator<std::allocator<bool> >
_TEXT	ENDS
PUBLIC	??Y?$_Vb_iterator@V?$allocator@_N@std@@@std@@QAEAAV01@H@Z ; std::_Vb_iterator<std::allocator<bool> >::operator+=
; Function compile flags: /Ogsp
;	COMDAT ??Y?$_Vb_iterator@V?$allocator@_N@std@@@std@@QAEAAV01@H@Z
_TEXT	SEGMENT
__Off$ = 8						; size = 4
??Y?$_Vb_iterator@V?$allocator@_N@std@@@std@@QAEAAV01@H@Z PROC ; std::_Vb_iterator<std::allocator<bool> >::operator+=, COMDAT
; _this$ = ecx

; 1951 : 		{	// increment by integer

  00000	55		 push	 ebp
  00001	8b ec		 mov	 ebp, esp
  00003	56		 push	 esi

; 1952 : 		*(_Mybase *)this += _Off;

  00004	ff 75 08	 push	 DWORD PTR __Off$[ebp]
  00007	8b f1		 mov	 esi, ecx
  00009	e8 00 00 00 00	 call	 ??Y?$_Vb_const_iterator@V?$allocator@_N@std@@@std@@QAEAAV01@H@Z ; std::_Vb_const_iterator<std::allocator<bool> >::operator+=

; 1953 : 		return (*this);

  0000e	8b c6		 mov	 eax, esi
  00010	5e		 pop	 esi

; 1954 : 		}

  00011	5d		 pop	 ebp
  00012	c2 04 00	 ret	 4
??Y?$_Vb_iterator@V?$allocator@_N@std@@@std@@QAEAAV01@H@Z ENDP ; std::_Vb_iterator<std::allocator<bool> >::operator+=
_TEXT	ENDS
PUBLIC	??G?$_Vb_const_iterator@V?$allocator@_N@std@@@std@@QBEHABV01@@Z ; std::_Vb_const_iterator<std::allocator<bool> >::operator-
; Function compile flags: /Ogsp
;	COMDAT ??G?$_Vb_const_iterator@V?$allocator@_N@std@@@std@@QBEHABV01@@Z
_TEXT	SEGMENT
__Right$ = 8						; size = 4
??G?$_Vb_const_iterator@V?$allocator@_N@std@@@std@@QBEHABV01@@Z PROC ; std::_Vb_const_iterator<std::allocator<bool> >::operator-, COMDAT
; _this$ = ecx

; 1762 : 		{	// return difference of iterators

  00000	55		 push	 ebp
  00001	8b ec		 mov	 ebp, esp

; 1763 : 		_Compat(_Right);
; 1764 : 		return (_VBITS * (this->_Myptr - _Right._Myptr)
; 1765 : 			+ (difference_type)this->_Myoff
; 1766 : 			- (difference_type)_Right._Myoff);

  00003	8b 55 08	 mov	 edx, DWORD PTR __Right$[ebp]
  00006	8b 01		 mov	 eax, DWORD PTR [ecx]
  00008	2b 02		 sub	 eax, DWORD PTR [edx]
  0000a	c1 f8 02	 sar	 eax, 2
  0000d	c1 e0 05	 shl	 eax, 5
  00010	2b 42 04	 sub	 eax, DWORD PTR [edx+4]
  00013	03 41 04	 add	 eax, DWORD PTR [ecx+4]

; 1767 : 		}

  00016	5d		 pop	 ebp
  00017	c2 04 00	 ret	 4
??G?$_Vb_const_iterator@V?$allocator@_N@std@@@std@@QBEHABV01@@Z ENDP ; std::_Vb_const_iterator<std::allocator<bool> >::operator-
_TEXT	ENDS
PUBLIC	??8?$_Vb_const_iterator@V?$allocator@_N@std@@@std@@QBE_NABV01@@Z ; std::_Vb_const_iterator<std::allocator<bool> >::operator==
; Function compile flags: /Ogsp
;	COMDAT ??8?$_Vb_const_iterator@V?$allocator@_N@std@@@std@@QBE_NABV01@@Z
_TEXT	SEGMENT
__Right$ = 8						; size = 4
??8?$_Vb_const_iterator@V?$allocator@_N@std@@@std@@QBE_NABV01@@Z PROC ; std::_Vb_const_iterator<std::allocator<bool> >::operator==, COMDAT
; _this$ = ecx

; 1775 : 		{	// test for iterator equality

  00000	55		 push	 ebp
  00001	8b ec		 mov	 ebp, esp

; 1776 : 		_Compat(_Right);
; 1777 : 		return (this->_Myptr == _Right._Myptr
; 1778 : 			&& this->_Myoff == _Right._Myoff);

  00003	8b 11		 mov	 edx, DWORD PTR [ecx]
  00005	8b 45 08	 mov	 eax, DWORD PTR __Right$[ebp]
  00008	3b 10		 cmp	 edx, DWORD PTR [eax]
  0000a	75 0d		 jne	 SHORT $LN3@operator@3
  0000c	8b 49 04	 mov	 ecx, DWORD PTR [ecx+4]
  0000f	3b 48 04	 cmp	 ecx, DWORD PTR [eax+4]
  00012	75 05		 jne	 SHORT $LN3@operator@3
  00014	33 c0		 xor	 eax, eax
  00016	40		 inc	 eax
  00017	eb 02		 jmp	 SHORT $LN4@operator@3
$LN3@operator@3:
  00019	33 c0		 xor	 eax, eax
$LN4@operator@3:

; 1779 : 		}

  0001b	5d		 pop	 ebp
  0001c	c2 04 00	 ret	 4
??8?$_Vb_const_iterator@V?$allocator@_N@std@@@std@@QBE_NABV01@@Z ENDP ; std::_Vb_const_iterator<std::allocator<bool> >::operator==
_TEXT	ENDS
PUBLIC	?max_size@?$vector@IV?$allocator@I@std@@@std@@QBEIXZ ; std::vector<unsigned int,std::allocator<unsigned int> >::max_size
; Function compile flags: /Ogsp
;	COMDAT ?max_size@?$vector@IV?$allocator@I@std@@@std@@QBEIXZ
_TEXT	SEGMENT
?max_size@?$vector@IV?$allocator@I@std@@@std@@QBEIXZ PROC ; std::vector<unsigned int,std::allocator<unsigned int> >::max_size, COMDAT
; _this$ = ecx

; 884  : 		return (this->_Alval.max_size());

  00000	b8 ff ff ff 3f	 mov	 eax, 1073741823		; 3fffffffH

; 885  : 		}

  00005	c3		 ret	 0
?max_size@?$vector@IV?$allocator@I@std@@@std@@QBEIXZ ENDP ; std::vector<unsigned int,std::allocator<unsigned int> >::max_size
_TEXT	ENDS
PUBLIC	??0?$_Vector_iterator@V?$_Vector_val@IV?$allocator@I@std@@@std@@@std@@QAE@PAIPBU_Container_base0@1@@Z ; std::_Vector_iterator<std::_Vector_val<unsigned int,std::allocator<unsigned int> > >::_Vector_iterator<std::_Vector_val<unsigned int,std::allocator<unsigned int> > >
; Function compile flags: /Ogsp
;	COMDAT ??0?$_Vector_iterator@V?$_Vector_val@IV?$allocator@I@std@@@std@@@std@@QAE@PAIPBU_Container_base0@1@@Z
_TEXT	SEGMENT
__Parg$ = 8						; size = 4
__Pvector$ = 12						; size = 4
??0?$_Vector_iterator@V?$_Vector_val@IV?$allocator@I@std@@@std@@@std@@QAE@PAIPBU_Container_base0@1@@Z PROC ; std::_Vector_iterator<std::_Vector_val<unsigned int,std::allocator<unsigned int> > >::_Vector_iterator<std::_Vector_val<unsigned int,std::allocator<unsigned int> > >, COMDAT
; _this$ = ecx

; 304  : 		{	// construct with pointer _Parg

  00000	55		 push	 ebp
  00001	8b ec		 mov	 ebp, esp
  00003	8b c1		 mov	 eax, ecx
  00005	8b 4d 08	 mov	 ecx, DWORD PTR __Parg$[ebp]
  00008	89 08		 mov	 DWORD PTR [eax], ecx

; 305  : 		}

  0000a	5d		 pop	 ebp
  0000b	c2 08 00	 ret	 8
??0?$_Vector_iterator@V?$_Vector_val@IV?$allocator@I@std@@@std@@@std@@QAE@PAIPBU_Container_base0@1@@Z ENDP ; std::_Vector_iterator<std::_Vector_val<unsigned int,std::allocator<unsigned int> > >::_Vector_iterator<std::_Vector_val<unsigned int,std::allocator<unsigned int> > >
_TEXT	ENDS
PUBLIC	??Y?$_Vector_iterator@V?$_Vector_val@IV?$allocator@I@std@@@std@@@std@@QAEAAV01@H@Z ; std::_Vector_iterator<std::_Vector_val<unsigned int,std::allocator<unsigned int> > >::operator+=
; Function compile flags: /Ogsp
;	COMDAT ??Y?$_Vector_iterator@V?$_Vector_val@IV?$allocator@I@std@@@std@@@std@@QAEAAV01@H@Z
_TEXT	SEGMENT
__Off$ = 8						; size = 4
??Y?$_Vector_iterator@V?$_Vector_val@IV?$allocator@I@std@@@std@@@std@@QAEAAV01@H@Z PROC ; std::_Vector_iterator<std::_Vector_val<unsigned int,std::allocator<unsigned int> > >::operator+=, COMDAT
; _this$ = ecx

; 357  : 		{	// increment by integer

  00000	55		 push	 ebp
  00001	8b ec		 mov	 ebp, esp
  00003	8b c1		 mov	 eax, ecx

; 358  : 		*(_Mybase *)this += _Off;

  00005	8b 4d 08	 mov	 ecx, DWORD PTR __Off$[ebp]
  00008	c1 e1 02	 shl	 ecx, 2
  0000b	01 08		 add	 DWORD PTR [eax], ecx

; 359  : 		return (*this);
; 360  : 		}

  0000d	5d		 pop	 ebp
  0000e	c2 04 00	 ret	 4
??Y?$_Vector_iterator@V?$_Vector_val@IV?$allocator@I@std@@@std@@@std@@QAEAAV01@H@Z ENDP ; std::_Vector_iterator<std::_Vector_val<unsigned int,std::allocator<unsigned int> > >::operator+=
_TEXT	ENDS
PUBLIC	?allocate@?$allocator@I@std@@QAEPAII@Z		; std::allocator<unsigned int>::allocate
; Function compile flags: /Ogsp
; File c:\program files (x86)\microsoft visual studio 10.0\vc\include\xmemory
;	COMDAT ?allocate@?$allocator@I@std@@QAEPAII@Z
_TEXT	SEGMENT
__Count$ = 8						; size = 4
?allocate@?$allocator@I@std@@QAEPAII@Z PROC		; std::allocator<unsigned int>::allocate, COMDAT
; _this$ = ecx

; 186  : 		{	// allocate array of _Count elements

  00000	55		 push	 ebp
  00001	8b ec		 mov	 ebp, esp

; 187  : 		return (_Allocate(_Count, (pointer)0));

  00003	6a 00		 push	 0
  00005	ff 75 08	 push	 DWORD PTR __Count$[ebp]
  00008	e8 00 00 00 00	 call	 ??$_Allocate@I@std@@YAPAIIPAI@Z ; std::_Allocate<unsigned int>
  0000d	59		 pop	 ecx
  0000e	59		 pop	 ecx

; 188  : 		}

  0000f	5d		 pop	 ebp
  00010	c2 04 00	 ret	 4
?allocate@?$allocator@I@std@@QAEPAII@Z ENDP		; std::allocator<unsigned int>::allocate
_TEXT	ENDS
PUBLIC	??8?$_Vector_const_iterator@V?$_Vector_val@IV?$allocator@I@std@@@std@@@std@@QBE_NABV01@@Z ; std::_Vector_const_iterator<std::_Vector_val<unsigned int,std::allocator<unsigned int> > >::operator==
; Function compile flags: /Ogsp
; File c:\program files (x86)\microsoft visual studio 10.0\vc\include\vector
;	COMDAT ??8?$_Vector_const_iterator@V?$_Vector_val@IV?$allocator@I@std@@@std@@@std@@QBE_NABV01@@Z
_TEXT	SEGMENT
__Right$ = 8						; size = 4
??8?$_Vector_const_iterator@V?$_Vector_val@IV?$allocator@I@std@@@std@@@std@@QBE_NABV01@@Z PROC ; std::_Vector_const_iterator<std::_Vector_val<unsigned int,std::allocator<unsigned int> > >::operator==, COMDAT
; _this$ = ecx

; 201  : 		{	// test for iterator equality

  00000	55		 push	 ebp
  00001	8b ec		 mov	 ebp, esp

; 202  : 		_Compat(_Right);
; 203  : 		return (this->_Ptr == _Right._Ptr);

  00003	8b 01		 mov	 eax, DWORD PTR [ecx]
  00005	8b 4d 08	 mov	 ecx, DWORD PTR __Right$[ebp]
  00008	2b 01		 sub	 eax, DWORD PTR [ecx]
  0000a	f7 d8		 neg	 eax
  0000c	1b c0		 sbb	 eax, eax
  0000e	40		 inc	 eax

; 204  : 		}

  0000f	5d		 pop	 ebp
  00010	c2 04 00	 ret	 4
??8?$_Vector_const_iterator@V?$_Vector_val@IV?$allocator@I@std@@@std@@@std@@QBE_NABV01@@Z ENDP ; std::_Vector_const_iterator<std::_Vector_val<unsigned int,std::allocator<unsigned int> > >::operator==
_TEXT	ENDS
PUBLIC	?_Grow_to@?$vector@IV?$allocator@I@std@@@std@@IBEII@Z ; std::vector<unsigned int,std::allocator<unsigned int> >::_Grow_to
; Function compile flags: /Ogsp
;	COMDAT ?_Grow_to@?$vector@IV?$allocator@I@std@@@std@@IBEII@Z
_TEXT	SEGMENT
__Count$ = 8						; size = 4
?_Grow_to@?$vector@IV?$allocator@I@std@@@std@@IBEII@Z PROC ; std::vector<unsigned int,std::allocator<unsigned int> >::_Grow_to, COMDAT
; _this$ = ecx

; 1274 : 		{	// grow by 50% or at least to _Count

  00000	55		 push	 ebp
  00001	8b ec		 mov	 ebp, esp

; 1275 : 		size_type _Capacity = capacity();

  00003	8b 41 08	 mov	 eax, DWORD PTR [ecx+8]
  00006	2b 01		 sub	 eax, DWORD PTR [ecx]

; 1276 : 
; 1277 : 		_Capacity = max_size() - _Capacity / 2 < _Capacity
; 1278 : 			? 0 : _Capacity + _Capacity / 2;	// try to grow by 50%

  00008	ba ff ff ff 3f	 mov	 edx, 1073741823		; 3fffffffH
  0000d	c1 f8 02	 sar	 eax, 2
  00010	8b c8		 mov	 ecx, eax
  00012	d1 e9		 shr	 ecx, 1
  00014	2b d1		 sub	 edx, ecx
  00016	3b d0		 cmp	 edx, eax
  00018	73 04		 jae	 SHORT $LN4@Grow_to
  0001a	33 c0		 xor	 eax, eax
  0001c	eb 02		 jmp	 SHORT $LN5@Grow_to
$LN4@Grow_to:
  0001e	03 c1		 add	 eax, ecx
$LN5@Grow_to:

; 1279 : 		if (_Capacity < _Count)

  00020	3b 45 08	 cmp	 eax, DWORD PTR __Count$[ebp]

; 1280 : 			_Capacity = _Count;

  00023	0f 42 45 08	 cmovb	 eax, DWORD PTR __Count$[ebp]

; 1281 : 		return (_Capacity);
; 1282 : 		}

  00027	5d		 pop	 ebp
  00028	c2 04 00	 ret	 4
?_Grow_to@?$vector@IV?$allocator@I@std@@@std@@IBEII@Z ENDP ; std::vector<unsigned int,std::allocator<unsigned int> >::_Grow_to
_TEXT	ENDS
PUBLIC	__$ArrayPad$
PUBLIC	??$?8$0M@@@YA_NABVioHashString@@AAY0M@$$CBD@Z	; operator==<12>
EXTRN	__imp_?c_str@ioHashString@@QBEPBDXZ:PROC
EXTRN	___security_cookie:DWORD
; Function compile flags: /Ogsp
; File d:\lost saga for developer\youtube\tutorial\source\src\io3dengine\iohashstring.h
;	COMDAT ??$?8$0M@@@YA_NABVioHashString@@AAY0M@$$CBD@Z
_TEXT	SEGMENT
__t$ = -20						; size = 12
__$ArrayPad$ = -4					; size = 4
_lhs$ = 8						; size = 4
_t$ = 12						; size = 4
??$?8$0M@@@YA_NABVioHashString@@AAY0M@$$CBD@Z PROC	; operator==<12>, COMDAT

; 146  : {

  00000	55		 push	 ebp
  00001	8b ec		 mov	 ebp, esp
  00003	83 ec 14	 sub	 esp, 20			; 00000014H
  00006	a1 00 00 00 00	 mov	 eax, DWORD PTR ___security_cookie
  0000b	33 c5		 xor	 eax, ebp
  0000d	89 45 fc	 mov	 DWORD PTR __$ArrayPad$[ebp], eax
  00010	8b 45 0c	 mov	 eax, DWORD PTR _t$[ebp]

; 147  : 	_ENCSTR(t, _t); return ( strcmp( lhs.c_str(), _t ) == 0 );

  00013	8a 10		 mov	 dl, BYTE PTR [eax]
  00015	56		 push	 esi
  00016	57		 push	 edi
  00017	8b 7d 08	 mov	 edi, DWORD PTR _lhs$[ebp]
  0001a	84 d2		 test	 dl, dl
  0001c	0f 84 32 01 00
	00		 je	 $LN96@operator@4
  00022	80 f2 ed	 xor	 dl, -19			; ffffffedH
  00025	88 55 ec	 mov	 BYTE PTR __t$[ebp], dl
  00028	8a 50 01	 mov	 dl, BYTE PTR [eax+1]
  0002b	84 d2		 test	 dl, dl
  0002d	0f 84 1b 01 00
	00		 je	 $LN95@operator@4
  00033	80 f2 ec	 xor	 dl, -20			; ffffffecH
  00036	88 55 ed	 mov	 BYTE PTR __t$[ebp+1], dl
  00039	8a 50 02	 mov	 dl, BYTE PTR [eax+2]
  0003c	84 d2		 test	 dl, dl
  0003e	0f 84 04 01 00
	00		 je	 $LN94@operator@4
  00044	b1 eb		 mov	 cl, -21			; ffffffebH
  00046	32 d1		 xor	 dl, cl
  00048	88 55 ee	 mov	 BYTE PTR __t$[ebp+2], dl
  0004b	8a 50 03	 mov	 dl, BYTE PTR [eax+3]
  0004e	84 d2		 test	 dl, dl
  00050	0f 84 ec 00 00
	00		 je	 $LN93@operator@4
  00056	80 f2 ea	 xor	 dl, -22			; ffffffeaH
  00059	88 55 ef	 mov	 BYTE PTR __t$[ebp+3], dl
  0005c	8a 50 04	 mov	 dl, BYTE PTR [eax+4]
  0005f	84 d2		 test	 dl, dl
  00061	0f 84 d5 00 00
	00		 je	 $LN92@operator@4
  00067	80 f2 ed	 xor	 dl, -19			; ffffffedH
  0006a	88 55 f0	 mov	 BYTE PTR __t$[ebp+4], dl
  0006d	8a 50 05	 mov	 dl, BYTE PTR [eax+5]
  00070	84 d2		 test	 dl, dl
  00072	0f 84 be 00 00
	00		 je	 $LN91@operator@4
  00078	80 f2 ec	 xor	 dl, -20			; ffffffecH
  0007b	88 55 f1	 mov	 BYTE PTR __t$[ebp+5], dl
  0007e	8a 50 06	 mov	 dl, BYTE PTR [eax+6]
  00081	84 d2		 test	 dl, dl
  00083	0f 84 a8 00 00
	00		 je	 $LN90@operator@4
  00089	32 d1		 xor	 dl, cl
  0008b	88 55 f2	 mov	 BYTE PTR __t$[ebp+6], dl
  0008e	8a 50 07	 mov	 dl, BYTE PTR [eax+7]
  00091	84 d2		 test	 dl, dl
  00093	0f 84 92 00 00
	00		 je	 $LN89@operator@4
  00099	80 f2 ea	 xor	 dl, -22			; ffffffeaH
  0009c	88 55 f3	 mov	 BYTE PTR __t$[ebp+7], dl
  0009f	8a 50 08	 mov	 dl, BYTE PTR [eax+8]
  000a2	84 d2		 test	 dl, dl
  000a4	74 7f		 je	 SHORT $LN88@operator@4
  000a6	80 f2 ed	 xor	 dl, -19			; ffffffedH
  000a9	88 55 f4	 mov	 BYTE PTR __t$[ebp+8], dl
  000ac	8a 50 09	 mov	 dl, BYTE PTR [eax+9]
  000af	84 d2		 test	 dl, dl
  000b1	74 6c		 je	 SHORT $LN87@operator@4
  000b3	80 f2 ec	 xor	 dl, -20			; ffffffecH
  000b6	88 55 f5	 mov	 BYTE PTR __t$[ebp+9], dl
  000b9	8a 50 0a	 mov	 dl, BYTE PTR [eax+10]
  000bc	84 d2		 test	 dl, dl
  000be	74 5a		 je	 SHORT $LN86@operator@4
  000c0	32 d1		 xor	 dl, cl
  000c2	80 78 0b 00	 cmp	 BYTE PTR [eax+11], 0
  000c6	88 55 f6	 mov	 BYTE PTR __t$[ebp+10], dl
  000c9	0f 84 89 00 00
	00		 je	 $LN1@operator@4
  000cf	8a 50 0c	 mov	 dl, BYTE PTR [eax+12]
  000d2	84 d2		 test	 dl, dl
  000d4	74 3e		 je	 SHORT $LN84@operator@4
  000d6	80 f2 ed	 xor	 dl, -19			; ffffffedH
  000d9	88 55 f8	 mov	 BYTE PTR __t$[ebp+12], dl
  000dc	8a 50 0d	 mov	 dl, BYTE PTR [eax+13]
  000df	84 d2		 test	 dl, dl
  000e1	74 2b		 je	 SHORT $LN83@operator@4
  000e3	80 f2 ec	 xor	 dl, -20			; ffffffecH
  000e6	88 55 f9	 mov	 BYTE PTR __t$[ebp+13], dl
  000e9	8a 50 0e	 mov	 dl, BYTE PTR [eax+14]
  000ec	84 d2		 test	 dl, dl
  000ee	74 19		 je	 SHORT $LN82@operator@4
  000f0	8a 40 0f	 mov	 al, BYTE PTR [eax+15]
  000f3	32 d1		 xor	 dl, cl
  000f5	88 55 fa	 mov	 BYTE PTR __t$[ebp+14], dl
  000f8	84 c0		 test	 al, al
  000fa	74 07		 je	 SHORT $LN81@operator@4
  000fc	34 ea		 xor	 al, -22			; ffffffeaH
  000fe	88 45 fb	 mov	 BYTE PTR __t$[ebp+15], al
  00101	eb 55		 jmp	 SHORT $LN1@operator@4
$LN81@operator@4:
  00103	c6 45 fb ea	 mov	 BYTE PTR __t$[ebp+15], -22 ; ffffffeaH
  00107	eb 4f		 jmp	 SHORT $LN1@operator@4
$LN82@operator@4:
  00109	88 4d fa	 mov	 BYTE PTR __t$[ebp+14], cl
  0010c	eb 4a		 jmp	 SHORT $LN1@operator@4
$LN83@operator@4:
  0010e	c6 45 f9 ec	 mov	 BYTE PTR __t$[ebp+13], -20 ; ffffffecH
  00112	eb 44		 jmp	 SHORT $LN1@operator@4
$LN84@operator@4:
  00114	c6 45 f8 ed	 mov	 BYTE PTR __t$[ebp+12], -19 ; ffffffedH
  00118	eb 3e		 jmp	 SHORT $LN1@operator@4
$LN86@operator@4:
  0011a	88 4d f6	 mov	 BYTE PTR __t$[ebp+10], cl
  0011d	eb 39		 jmp	 SHORT $LN1@operator@4
$LN87@operator@4:
  0011f	c6 45 f5 ec	 mov	 BYTE PTR __t$[ebp+9], -20 ; ffffffecH
  00123	eb 33		 jmp	 SHORT $LN1@operator@4
$LN88@operator@4:
  00125	c6 45 f4 ed	 mov	 BYTE PTR __t$[ebp+8], -19 ; ffffffedH
  00129	eb 2d		 jmp	 SHORT $LN1@operator@4
$LN89@operator@4:
  0012b	c6 45 f3 ea	 mov	 BYTE PTR __t$[ebp+7], -22 ; ffffffeaH
  0012f	eb 27		 jmp	 SHORT $LN1@operator@4
$LN90@operator@4:
  00131	88 4d f2	 mov	 BYTE PTR __t$[ebp+6], cl
  00134	eb 22		 jmp	 SHORT $LN1@operator@4
$LN91@operator@4:
  00136	c6 45 f1 ec	 mov	 BYTE PTR __t$[ebp+5], -20 ; ffffffecH
  0013a	eb 1c		 jmp	 SHORT $LN1@operator@4
$LN92@operator@4:
  0013c	c6 45 f0 ed	 mov	 BYTE PTR __t$[ebp+4], -19 ; ffffffedH
  00140	eb 16		 jmp	 SHORT $LN1@operator@4
$LN93@operator@4:
  00142	c6 45 ef ea	 mov	 BYTE PTR __t$[ebp+3], -22 ; ffffffeaH
  00146	eb 10		 jmp	 SHORT $LN1@operator@4
$LN94@operator@4:
  00148	c6 45 ee eb	 mov	 BYTE PTR __t$[ebp+2], -21 ; ffffffebH
  0014c	eb 0a		 jmp	 SHORT $LN1@operator@4
$LN95@operator@4:
  0014e	c6 45 ed ec	 mov	 BYTE PTR __t$[ebp+1], -20 ; ffffffecH
  00152	eb 04		 jmp	 SHORT $LN1@operator@4
$LN96@operator@4:
  00154	c6 45 ec ed	 mov	 BYTE PTR __t$[ebp], -19	; ffffffedH
$LN1@operator@4:
  00158	6a 02		 push	 2
  0015a	8d 45 ec	 lea	 eax, DWORD PTR __t$[ebp]
  0015d	c6 45 f7 00	 mov	 BYTE PTR __t$[ebp+11], 0
  00161	5a		 pop	 edx
$LL104@operator@4:
  00162	81 30 ed ec eb
	ea		 xor	 DWORD PTR [eax], -353637139 ; eaebecedH
  00168	83 c0 04	 add	 eax, 4
  0016b	4a		 dec	 edx
  0016c	75 f4		 jne	 SHORT $LL104@operator@4
  0016e	6a 08		 push	 8
  00170	58		 pop	 eax
$LL101@operator@4:
  00171	8b c8		 mov	 ecx, eax
  00173	81 e1 03 00 00
	80		 and	 ecx, -2147483645	; 80000003H
  00179	79 05		 jns	 SHORT $LN115@operator@4
  0017b	49		 dec	 ecx
  0017c	83 c9 fc	 or	 ecx, -4			; fffffffcH
  0017f	41		 inc	 ecx
$LN115@operator@4:
  00180	b2 ed		 mov	 dl, -19			; ffffffedH
  00182	2a d1		 sub	 dl, cl
  00184	30 54 05 ec	 xor	 BYTE PTR __t$[ebp+eax], dl
  00188	40		 inc	 eax
  00189	83 f8 0b	 cmp	 eax, 11			; 0000000bH
  0018c	7c e3		 jl	 SHORT $LL101@operator@4
  0018e	8b cf		 mov	 ecx, edi
  00190	8d 75 ec	 lea	 esi, DWORD PTR __t$[ebp]
  00193	ff 15 00 00 00
	00		 call	 DWORD PTR __imp_?c_str@ioHashString@@QBEPBDXZ
$LL111@operator@4:
  00199	8a 08		 mov	 cl, BYTE PTR [eax]
  0019b	3a 0e		 cmp	 cl, BYTE PTR [esi]
  0019d	75 1a		 jne	 SHORT $LN112@operator@4
  0019f	84 c9		 test	 cl, cl
  001a1	74 12		 je	 SHORT $LN113@operator@4
  001a3	8a 48 01	 mov	 cl, BYTE PTR [eax+1]
  001a6	3a 4e 01	 cmp	 cl, BYTE PTR [esi+1]
  001a9	75 0e		 jne	 SHORT $LN112@operator@4
  001ab	83 c0 02	 add	 eax, 2
  001ae	83 c6 02	 add	 esi, 2
  001b1	84 c9		 test	 cl, cl
  001b3	75 e4		 jne	 SHORT $LL111@operator@4
$LN113@operator@4:
  001b5	33 c0		 xor	 eax, eax
  001b7	eb 05		 jmp	 SHORT $LN114@operator@4
$LN112@operator@4:
  001b9	1b c0		 sbb	 eax, eax
  001bb	83 d8 ff	 sbb	 eax, -1
$LN114@operator@4:
  001be	33 c9		 xor	 ecx, ecx
  001c0	85 c0		 test	 eax, eax
  001c2	0f 94 c0	 sete	 al

; 148  : }

  001c5	8b 4d fc	 mov	 ecx, DWORD PTR __$ArrayPad$[ebp]
  001c8	5f		 pop	 edi
  001c9	33 cd		 xor	 ecx, ebp
  001cb	5e		 pop	 esi
  001cc	e8 00 00 00 00	 call	 @__security_check_cookie@4
  001d1	c9		 leave
  001d2	c3		 ret	 0
??$?8$0M@@@YA_NABVioHashString@@AAY0M@$$CBD@Z ENDP	; operator==<12>
_TEXT	ENDS
PUBLIC	__$ArrayPad$
PUBLIC	??$?8$0BC@@@YA_NABVioHashString@@AAY0BC@$$CBD@Z	; operator==<18>
; Function compile flags: /Ogsp
;	COMDAT ??$?8$0BC@@@YA_NABVioHashString@@AAY0BC@$$CBD@Z
_TEXT	SEGMENT
__t$ = -28						; size = 18
__$ArrayPad$ = -4					; size = 4
_lhs$ = 8						; size = 4
_t$ = 12						; size = 4
??$?8$0BC@@@YA_NABVioHashString@@AAY0BC@$$CBD@Z PROC	; operator==<18>, COMDAT

; 146  : {

  00000	55		 push	 ebp
  00001	8b ec		 mov	 ebp, esp
  00003	83 ec 1c	 sub	 esp, 28			; 0000001cH
  00006	a1 00 00 00 00	 mov	 eax, DWORD PTR ___security_cookie
  0000b	33 c5		 xor	 eax, ebp
  0000d	89 45 fc	 mov	 DWORD PTR __$ArrayPad$[ebp], eax
  00010	8b 45 0c	 mov	 eax, DWORD PTR _t$[ebp]

; 147  : 	_ENCSTR(t, _t); return ( strcmp( lhs.c_str(), _t ) == 0 );

  00013	8a 10		 mov	 dl, BYTE PTR [eax]
  00015	56		 push	 esi
  00016	57		 push	 edi
  00017	8b 7d 08	 mov	 edi, DWORD PTR _lhs$[ebp]
  0001a	84 d2		 test	 dl, dl
  0001c	0f 84 be 01 00
	00		 je	 $LN96@operator@5
  00022	80 f2 ed	 xor	 dl, -19			; ffffffedH
  00025	88 55 e4	 mov	 BYTE PTR __t$[ebp], dl
  00028	8a 50 01	 mov	 dl, BYTE PTR [eax+1]
  0002b	84 d2		 test	 dl, dl
  0002d	0f 84 a7 01 00
	00		 je	 $LN95@operator@5
  00033	80 f2 ec	 xor	 dl, -20			; ffffffecH
  00036	88 55 e5	 mov	 BYTE PTR __t$[ebp+1], dl
  00039	8a 50 02	 mov	 dl, BYTE PTR [eax+2]
  0003c	84 d2		 test	 dl, dl
  0003e	0f 84 90 01 00
	00		 je	 $LN94@operator@5
  00044	b1 eb		 mov	 cl, -21			; ffffffebH
  00046	32 d1		 xor	 dl, cl
  00048	88 55 e6	 mov	 BYTE PTR __t$[ebp+2], dl
  0004b	8a 50 03	 mov	 dl, BYTE PTR [eax+3]
  0004e	84 d2		 test	 dl, dl
  00050	0f 84 78 01 00
	00		 je	 $LN93@operator@5
  00056	80 f2 ea	 xor	 dl, -22			; ffffffeaH
  00059	88 55 e7	 mov	 BYTE PTR __t$[ebp+3], dl
  0005c	8a 50 04	 mov	 dl, BYTE PTR [eax+4]
  0005f	84 d2		 test	 dl, dl
  00061	0f 84 61 01 00
	00		 je	 $LN92@operator@5
  00067	80 f2 ed	 xor	 dl, -19			; ffffffedH
  0006a	88 55 e8	 mov	 BYTE PTR __t$[ebp+4], dl
  0006d	8a 50 05	 mov	 dl, BYTE PTR [eax+5]
  00070	84 d2		 test	 dl, dl
  00072	0f 84 4a 01 00
	00		 je	 $LN91@operator@5
  00078	80 f2 ec	 xor	 dl, -20			; ffffffecH
  0007b	88 55 e9	 mov	 BYTE PTR __t$[ebp+5], dl
  0007e	8a 50 06	 mov	 dl, BYTE PTR [eax+6]
  00081	84 d2		 test	 dl, dl
  00083	0f 84 34 01 00
	00		 je	 $LN90@operator@5
  00089	32 d1		 xor	 dl, cl
  0008b	88 55 ea	 mov	 BYTE PTR __t$[ebp+6], dl
  0008e	8a 50 07	 mov	 dl, BYTE PTR [eax+7]
  00091	84 d2		 test	 dl, dl
  00093	0f 84 1e 01 00
	00		 je	 $LN89@operator@5
  00099	80 f2 ea	 xor	 dl, -22			; ffffffeaH
  0009c	88 55 eb	 mov	 BYTE PTR __t$[ebp+7], dl
  0009f	8a 50 08	 mov	 dl, BYTE PTR [eax+8]
  000a2	84 d2		 test	 dl, dl
  000a4	0f 84 07 01 00
	00		 je	 $LN88@operator@5
  000aa	80 f2 ed	 xor	 dl, -19			; ffffffedH
  000ad	88 55 ec	 mov	 BYTE PTR __t$[ebp+8], dl
  000b0	8a 50 09	 mov	 dl, BYTE PTR [eax+9]
  000b3	84 d2		 test	 dl, dl
  000b5	0f 84 f0 00 00
	00		 je	 $LN87@operator@5
  000bb	80 f2 ec	 xor	 dl, -20			; ffffffecH
  000be	88 55 ed	 mov	 BYTE PTR __t$[ebp+9], dl
  000c1	8a 50 0a	 mov	 dl, BYTE PTR [eax+10]
  000c4	84 d2		 test	 dl, dl
  000c6	0f 84 da 00 00
	00		 je	 $LN86@operator@5
  000cc	32 d1		 xor	 dl, cl
  000ce	88 55 ee	 mov	 BYTE PTR __t$[ebp+10], dl
  000d1	8a 50 0b	 mov	 dl, BYTE PTR [eax+11]
  000d4	84 d2		 test	 dl, dl
  000d6	0f 84 c4 00 00
	00		 je	 $LN85@operator@5
  000dc	80 f2 ea	 xor	 dl, -22			; ffffffeaH
  000df	88 55 ef	 mov	 BYTE PTR __t$[ebp+11], dl
  000e2	8a 50 0c	 mov	 dl, BYTE PTR [eax+12]
  000e5	84 d2		 test	 dl, dl
  000e7	0f 84 ad 00 00
	00		 je	 $LN84@operator@5
  000ed	80 f2 ed	 xor	 dl, -19			; ffffffedH
  000f0	88 55 f0	 mov	 BYTE PTR __t$[ebp+12], dl
  000f3	8a 50 0d	 mov	 dl, BYTE PTR [eax+13]
  000f6	84 d2		 test	 dl, dl
  000f8	0f 84 96 00 00
	00		 je	 $LN83@operator@5
  000fe	80 f2 ec	 xor	 dl, -20			; ffffffecH
  00101	88 55 f1	 mov	 BYTE PTR __t$[ebp+13], dl
  00104	8a 50 0e	 mov	 dl, BYTE PTR [eax+14]
  00107	84 d2		 test	 dl, dl
  00109	0f 84 80 00 00
	00		 je	 $LN82@operator@5
  0010f	32 d1		 xor	 dl, cl
  00111	88 55 f2	 mov	 BYTE PTR __t$[ebp+14], dl
  00114	8a 50 0f	 mov	 dl, BYTE PTR [eax+15]
  00117	84 d2		 test	 dl, dl
  00119	74 6e		 je	 SHORT $LN81@operator@5
  0011b	80 f2 ea	 xor	 dl, -22			; ffffffeaH
  0011e	88 55 f3	 mov	 BYTE PTR __t$[ebp+15], dl
  00121	8a 50 10	 mov	 dl, BYTE PTR [eax+16]
  00124	84 d2		 test	 dl, dl
  00126	74 5b		 je	 SHORT $LN80@operator@5
  00128	80 f2 ed	 xor	 dl, -19			; ffffffedH
  0012b	80 78 11 00	 cmp	 BYTE PTR [eax+17], 0
  0012f	88 55 f4	 mov	 BYTE PTR __t$[ebp+16], dl
  00132	0f 84 ac 00 00
	00		 je	 $LN1@operator@5
  00138	8a 50 12	 mov	 dl, BYTE PTR [eax+18]
  0013b	84 d2		 test	 dl, dl
  0013d	74 3f		 je	 SHORT $LN78@operator@5
  0013f	32 d1		 xor	 dl, cl
  00141	88 55 f6	 mov	 BYTE PTR __t$[ebp+18], dl
  00144	8a 50 13	 mov	 dl, BYTE PTR [eax+19]
  00147	84 d2		 test	 dl, dl
  00149	74 2d		 je	 SHORT $LN77@operator@5
  0014b	80 f2 ea	 xor	 dl, -22			; ffffffeaH
  0014e	88 55 f7	 mov	 BYTE PTR __t$[ebp+19], dl
  00151	8a 50 14	 mov	 dl, BYTE PTR [eax+20]
  00154	84 d2		 test	 dl, dl
  00156	74 1a		 je	 SHORT $LN76@operator@5
  00158	8a 40 15	 mov	 al, BYTE PTR [eax+21]
  0015b	80 f2 ed	 xor	 dl, -19			; ffffffedH
  0015e	88 55 f8	 mov	 BYTE PTR __t$[ebp+20], dl
  00161	84 c0		 test	 al, al
  00163	74 07		 je	 SHORT $LN75@operator@5
  00165	34 ec		 xor	 al, -20			; ffffffecH
  00167	88 45 f9	 mov	 BYTE PTR __t$[ebp+21], al
  0016a	eb 78		 jmp	 SHORT $LN1@operator@5
$LN75@operator@5:
  0016c	c6 45 f9 ec	 mov	 BYTE PTR __t$[ebp+21], -20 ; ffffffecH
  00170	eb 72		 jmp	 SHORT $LN1@operator@5
$LN76@operator@5:
  00172	c6 45 f8 ed	 mov	 BYTE PTR __t$[ebp+20], -19 ; ffffffedH
  00176	eb 6c		 jmp	 SHORT $LN1@operator@5
$LN77@operator@5:
  00178	c6 45 f7 ea	 mov	 BYTE PTR __t$[ebp+19], -22 ; ffffffeaH
  0017c	eb 66		 jmp	 SHORT $LN1@operator@5
$LN78@operator@5:
  0017e	88 4d f6	 mov	 BYTE PTR __t$[ebp+18], cl
  00181	eb 61		 jmp	 SHORT $LN1@operator@5
$LN80@operator@5:
  00183	c6 45 f4 ed	 mov	 BYTE PTR __t$[ebp+16], -19 ; ffffffedH
  00187	eb 5b		 jmp	 SHORT $LN1@operator@5
$LN81@operator@5:
  00189	c6 45 f3 ea	 mov	 BYTE PTR __t$[ebp+15], -22 ; ffffffeaH
  0018d	eb 55		 jmp	 SHORT $LN1@operator@5
$LN82@operator@5:
  0018f	88 4d f2	 mov	 BYTE PTR __t$[ebp+14], cl
  00192	eb 50		 jmp	 SHORT $LN1@operator@5
$LN83@operator@5:
  00194	c6 45 f1 ec	 mov	 BYTE PTR __t$[ebp+13], -20 ; ffffffecH
  00198	eb 4a		 jmp	 SHORT $LN1@operator@5
$LN84@operator@5:
  0019a	c6 45 f0 ed	 mov	 BYTE PTR __t$[ebp+12], -19 ; ffffffedH
  0019e	eb 44		 jmp	 SHORT $LN1@operator@5
$LN85@operator@5:
  001a0	c6 45 ef ea	 mov	 BYTE PTR __t$[ebp+11], -22 ; ffffffeaH
  001a4	eb 3e		 jmp	 SHORT $LN1@operator@5
$LN86@operator@5:
  001a6	88 4d ee	 mov	 BYTE PTR __t$[ebp+10], cl
  001a9	eb 39		 jmp	 SHORT $LN1@operator@5
$LN87@operator@5:
  001ab	c6 45 ed ec	 mov	 BYTE PTR __t$[ebp+9], -20 ; ffffffecH
  001af	eb 33		 jmp	 SHORT $LN1@operator@5
$LN88@operator@5:
  001b1	c6 45 ec ed	 mov	 BYTE PTR __t$[ebp+8], -19 ; ffffffedH
  001b5	eb 2d		 jmp	 SHORT $LN1@operator@5
$LN89@operator@5:
  001b7	c6 45 eb ea	 mov	 BYTE PTR __t$[ebp+7], -22 ; ffffffeaH
  001bb	eb 27		 jmp	 SHORT $LN1@operator@5
$LN90@operator@5:
  001bd	88 4d ea	 mov	 BYTE PTR __t$[ebp+6], cl
  001c0	eb 22		 jmp	 SHORT $LN1@operator@5
$LN91@operator@5:
  001c2	c6 45 e9 ec	 mov	 BYTE PTR __t$[ebp+5], -20 ; ffffffecH
  001c6	eb 1c		 jmp	 SHORT $LN1@operator@5
$LN92@operator@5:
  001c8	c6 45 e8 ed	 mov	 BYTE PTR __t$[ebp+4], -19 ; ffffffedH
  001cc	eb 16		 jmp	 SHORT $LN1@operator@5
$LN93@operator@5:
  001ce	c6 45 e7 ea	 mov	 BYTE PTR __t$[ebp+3], -22 ; ffffffeaH
  001d2	eb 10		 jmp	 SHORT $LN1@operator@5
$LN94@operator@5:
  001d4	c6 45 e6 eb	 mov	 BYTE PTR __t$[ebp+2], -21 ; ffffffebH
  001d8	eb 0a		 jmp	 SHORT $LN1@operator@5
$LN95@operator@5:
  001da	c6 45 e5 ec	 mov	 BYTE PTR __t$[ebp+1], -20 ; ffffffecH
  001de	eb 04		 jmp	 SHORT $LN1@operator@5
$LN96@operator@5:
  001e0	c6 45 e4 ed	 mov	 BYTE PTR __t$[ebp], -19	; ffffffedH
$LN1@operator@5:
  001e4	6a 04		 push	 4
  001e6	8d 45 e4	 lea	 eax, DWORD PTR __t$[ebp]
  001e9	c6 45 f5 00	 mov	 BYTE PTR __t$[ebp+17], 0
  001ed	5a		 pop	 edx
$LL104@operator@5:
  001ee	81 30 ed ec eb
	ea		 xor	 DWORD PTR [eax], -353637139 ; eaebecedH
  001f4	83 c0 04	 add	 eax, 4
  001f7	4a		 dec	 edx
  001f8	75 f4		 jne	 SHORT $LL104@operator@5
  001fa	80 75 f4 ed	 xor	 BYTE PTR __t$[ebp+16], -19 ; ffffffedH
  001fe	8b cf		 mov	 ecx, edi
  00200	8d 75 e4	 lea	 esi, DWORD PTR __t$[ebp]
  00203	ff 15 00 00 00
	00		 call	 DWORD PTR __imp_?c_str@ioHashString@@QBEPBDXZ
$LL111@operator@5:
  00209	8a 08		 mov	 cl, BYTE PTR [eax]
  0020b	3a 0e		 cmp	 cl, BYTE PTR [esi]
  0020d	75 1a		 jne	 SHORT $LN112@operator@5
  0020f	84 c9		 test	 cl, cl
  00211	74 12		 je	 SHORT $LN113@operator@5
  00213	8a 48 01	 mov	 cl, BYTE PTR [eax+1]
  00216	3a 4e 01	 cmp	 cl, BYTE PTR [esi+1]
  00219	75 0e		 jne	 SHORT $LN112@operator@5
  0021b	83 c0 02	 add	 eax, 2
  0021e	83 c6 02	 add	 esi, 2
  00221	84 c9		 test	 cl, cl
  00223	75 e4		 jne	 SHORT $LL111@operator@5
$LN113@operator@5:
  00225	33 c0		 xor	 eax, eax
  00227	eb 05		 jmp	 SHORT $LN114@operator@5
$LN112@operator@5:
  00229	1b c0		 sbb	 eax, eax
  0022b	83 d8 ff	 sbb	 eax, -1
$LN114@operator@5:
  0022e	33 c9		 xor	 ecx, ecx
  00230	85 c0		 test	 eax, eax
  00232	0f 94 c0	 sete	 al

; 148  : }

  00235	8b 4d fc	 mov	 ecx, DWORD PTR __$ArrayPad$[ebp]
  00238	5f		 pop	 edi
  00239	33 cd		 xor	 ecx, ebp
  0023b	5e		 pop	 esi
  0023c	e8 00 00 00 00	 call	 @__security_check_cookie@4
  00241	c9		 leave
  00242	c3		 ret	 0
??$?8$0BC@@@YA_NABVioHashString@@AAY0BC@$$CBD@Z ENDP	; operator==<18>
_TEXT	ENDS
PUBLIC	__$ArrayPad$
PUBLIC	??$?8$0O@@@YA_NABVioHashString@@AAY0O@$$CBD@Z	; operator==<14>
; Function compile flags: /Ogsp
;	COMDAT ??$?8$0O@@@YA_NABVioHashString@@AAY0O@$$CBD@Z
_TEXT	SEGMENT
__t$ = -24						; size = 14
__$ArrayPad$ = -4					; size = 4
_lhs$ = 8						; size = 4
_t$ = 12						; size = 4
??$?8$0O@@@YA_NABVioHashString@@AAY0O@$$CBD@Z PROC	; operator==<14>, COMDAT

; 146  : {

  00000	55		 push	 ebp
  00001	8b ec		 mov	 ebp, esp
  00003	83 ec 18	 sub	 esp, 24			; 00000018H
  00006	a1 00 00 00 00	 mov	 eax, DWORD PTR ___security_cookie
  0000b	33 c5		 xor	 eax, ebp
  0000d	89 45 fc	 mov	 DWORD PTR __$ArrayPad$[ebp], eax
  00010	8b 45 0c	 mov	 eax, DWORD PTR _t$[ebp]

; 147  : 	_ENCSTR(t, _t); return ( strcmp( lhs.c_str(), _t ) == 0 );

  00013	8a 10		 mov	 dl, BYTE PTR [eax]
  00015	56		 push	 esi
  00016	57		 push	 edi
  00017	8b 7d 08	 mov	 edi, DWORD PTR _lhs$[ebp]
  0001a	84 d2		 test	 dl, dl
  0001c	0f 84 64 01 00
	00		 je	 $LN96@operator@6
  00022	80 f2 ed	 xor	 dl, -19			; ffffffedH
  00025	88 55 e8	 mov	 BYTE PTR __t$[ebp], dl
  00028	8a 50 01	 mov	 dl, BYTE PTR [eax+1]
  0002b	84 d2		 test	 dl, dl
  0002d	0f 84 4d 01 00
	00		 je	 $LN95@operator@6
  00033	80 f2 ec	 xor	 dl, -20			; ffffffecH
  00036	88 55 e9	 mov	 BYTE PTR __t$[ebp+1], dl
  00039	8a 50 02	 mov	 dl, BYTE PTR [eax+2]
  0003c	84 d2		 test	 dl, dl
  0003e	0f 84 36 01 00
	00		 je	 $LN94@operator@6
  00044	b1 eb		 mov	 cl, -21			; ffffffebH
  00046	32 d1		 xor	 dl, cl
  00048	88 55 ea	 mov	 BYTE PTR __t$[ebp+2], dl
  0004b	8a 50 03	 mov	 dl, BYTE PTR [eax+3]
  0004e	84 d2		 test	 dl, dl
  00050	0f 84 1e 01 00
	00		 je	 $LN93@operator@6
  00056	80 f2 ea	 xor	 dl, -22			; ffffffeaH
  00059	88 55 eb	 mov	 BYTE PTR __t$[ebp+3], dl
  0005c	8a 50 04	 mov	 dl, BYTE PTR [eax+4]
  0005f	84 d2		 test	 dl, dl
  00061	0f 84 07 01 00
	00		 je	 $LN92@operator@6
  00067	80 f2 ed	 xor	 dl, -19			; ffffffedH
  0006a	88 55 ec	 mov	 BYTE PTR __t$[ebp+4], dl
  0006d	8a 50 05	 mov	 dl, BYTE PTR [eax+5]
  00070	84 d2		 test	 dl, dl
  00072	0f 84 f0 00 00
	00		 je	 $LN91@operator@6
  00078	80 f2 ec	 xor	 dl, -20			; ffffffecH
  0007b	88 55 ed	 mov	 BYTE PTR __t$[ebp+5], dl
  0007e	8a 50 06	 mov	 dl, BYTE PTR [eax+6]
  00081	84 d2		 test	 dl, dl
  00083	0f 84 da 00 00
	00		 je	 $LN90@operator@6
  00089	32 d1		 xor	 dl, cl
  0008b	88 55 ee	 mov	 BYTE PTR __t$[ebp+6], dl
  0008e	8a 50 07	 mov	 dl, BYTE PTR [eax+7]
  00091	84 d2		 test	 dl, dl
  00093	0f 84 c4 00 00
	00		 je	 $LN89@operator@6
  00099	80 f2 ea	 xor	 dl, -22			; ffffffeaH
  0009c	88 55 ef	 mov	 BYTE PTR __t$[ebp+7], dl
  0009f	8a 50 08	 mov	 dl, BYTE PTR [eax+8]
  000a2	84 d2		 test	 dl, dl
  000a4	0f 84 ad 00 00
	00		 je	 $LN88@operator@6
  000aa	80 f2 ed	 xor	 dl, -19			; ffffffedH
  000ad	88 55 f0	 mov	 BYTE PTR __t$[ebp+8], dl
  000b0	8a 50 09	 mov	 dl, BYTE PTR [eax+9]
  000b3	84 d2		 test	 dl, dl
  000b5	0f 84 96 00 00
	00		 je	 $LN87@operator@6
  000bb	80 f2 ec	 xor	 dl, -20			; ffffffecH
  000be	88 55 f1	 mov	 BYTE PTR __t$[ebp+9], dl
  000c1	8a 50 0a	 mov	 dl, BYTE PTR [eax+10]
  000c4	84 d2		 test	 dl, dl
  000c6	0f 84 80 00 00
	00		 je	 $LN86@operator@6
  000cc	32 d1		 xor	 dl, cl
  000ce	88 55 f2	 mov	 BYTE PTR __t$[ebp+10], dl
  000d1	8a 50 0b	 mov	 dl, BYTE PTR [eax+11]
  000d4	84 d2		 test	 dl, dl
  000d6	74 6e		 je	 SHORT $LN85@operator@6
  000d8	80 f2 ea	 xor	 dl, -22			; ffffffeaH
  000db	88 55 f3	 mov	 BYTE PTR __t$[ebp+11], dl
  000de	8a 50 0c	 mov	 dl, BYTE PTR [eax+12]
  000e1	84 d2		 test	 dl, dl
  000e3	74 5b		 je	 SHORT $LN84@operator@6
  000e5	80 f2 ed	 xor	 dl, -19			; ffffffedH
  000e8	80 78 0d 00	 cmp	 BYTE PTR [eax+13], 0
  000ec	88 55 f4	 mov	 BYTE PTR __t$[ebp+12], dl
  000ef	0f 84 95 00 00
	00		 je	 $LN1@operator@6
  000f5	8a 50 0e	 mov	 dl, BYTE PTR [eax+14]
  000f8	84 d2		 test	 dl, dl
  000fa	74 3f		 je	 SHORT $LN82@operator@6
  000fc	32 d1		 xor	 dl, cl
  000fe	88 55 f6	 mov	 BYTE PTR __t$[ebp+14], dl
  00101	8a 50 0f	 mov	 dl, BYTE PTR [eax+15]
  00104	84 d2		 test	 dl, dl
  00106	74 2d		 je	 SHORT $LN81@operator@6
  00108	80 f2 ea	 xor	 dl, -22			; ffffffeaH
  0010b	88 55 f7	 mov	 BYTE PTR __t$[ebp+15], dl
  0010e	8a 50 10	 mov	 dl, BYTE PTR [eax+16]
  00111	84 d2		 test	 dl, dl
  00113	74 1a		 je	 SHORT $LN80@operator@6
  00115	8a 40 11	 mov	 al, BYTE PTR [eax+17]
  00118	80 f2 ed	 xor	 dl, -19			; ffffffedH
  0011b	88 55 f8	 mov	 BYTE PTR __t$[ebp+16], dl
  0011e	84 c0		 test	 al, al
  00120	74 07		 je	 SHORT $LN79@operator@6
  00122	34 ec		 xor	 al, -20			; ffffffecH
  00124	88 45 f9	 mov	 BYTE PTR __t$[ebp+17], al
  00127	eb 61		 jmp	 SHORT $LN1@operator@6
$LN79@operator@6:
  00129	c6 45 f9 ec	 mov	 BYTE PTR __t$[ebp+17], -20 ; ffffffecH
  0012d	eb 5b		 jmp	 SHORT $LN1@operator@6
$LN80@operator@6:
  0012f	c6 45 f8 ed	 mov	 BYTE PTR __t$[ebp+16], -19 ; ffffffedH
  00133	eb 55		 jmp	 SHORT $LN1@operator@6
$LN81@operator@6:
  00135	c6 45 f7 ea	 mov	 BYTE PTR __t$[ebp+15], -22 ; ffffffeaH
  00139	eb 4f		 jmp	 SHORT $LN1@operator@6
$LN82@operator@6:
  0013b	88 4d f6	 mov	 BYTE PTR __t$[ebp+14], cl
  0013e	eb 4a		 jmp	 SHORT $LN1@operator@6
$LN84@operator@6:
  00140	c6 45 f4 ed	 mov	 BYTE PTR __t$[ebp+12], -19 ; ffffffedH
  00144	eb 44		 jmp	 SHORT $LN1@operator@6
$LN85@operator@6:
  00146	c6 45 f3 ea	 mov	 BYTE PTR __t$[ebp+11], -22 ; ffffffeaH
  0014a	eb 3e		 jmp	 SHORT $LN1@operator@6
$LN86@operator@6:
  0014c	88 4d f2	 mov	 BYTE PTR __t$[ebp+10], cl
  0014f	eb 39		 jmp	 SHORT $LN1@operator@6
$LN87@operator@6:
  00151	c6 45 f1 ec	 mov	 BYTE PTR __t$[ebp+9], -20 ; ffffffecH
  00155	eb 33		 jmp	 SHORT $LN1@operator@6
$LN88@operator@6:
  00157	c6 45 f0 ed	 mov	 BYTE PTR __t$[ebp+8], -19 ; ffffffedH
  0015b	eb 2d		 jmp	 SHORT $LN1@operator@6
$LN89@operator@6:
  0015d	c6 45 ef ea	 mov	 BYTE PTR __t$[ebp+7], -22 ; ffffffeaH
  00161	eb 27		 jmp	 SHORT $LN1@operator@6
$LN90@operator@6:
  00163	88 4d ee	 mov	 BYTE PTR __t$[ebp+6], cl
  00166	eb 22		 jmp	 SHORT $LN1@operator@6
$LN91@operator@6:
  00168	c6 45 ed ec	 mov	 BYTE PTR __t$[ebp+5], -20 ; ffffffecH
  0016c	eb 1c		 jmp	 SHORT $LN1@operator@6
$LN92@operator@6:
  0016e	c6 45 ec ed	 mov	 BYTE PTR __t$[ebp+4], -19 ; ffffffedH
  00172	eb 16		 jmp	 SHORT $LN1@operator@6
$LN93@operator@6:
  00174	c6 45 eb ea	 mov	 BYTE PTR __t$[ebp+3], -22 ; ffffffeaH
  00178	eb 10		 jmp	 SHORT $LN1@operator@6
$LN94@operator@6:
  0017a	c6 45 ea eb	 mov	 BYTE PTR __t$[ebp+2], -21 ; ffffffebH
  0017e	eb 0a		 jmp	 SHORT $LN1@operator@6
$LN95@operator@6:
  00180	c6 45 e9 ec	 mov	 BYTE PTR __t$[ebp+1], -20 ; ffffffecH
  00184	eb 04		 jmp	 SHORT $LN1@operator@6
$LN96@operator@6:
  00186	c6 45 e8 ed	 mov	 BYTE PTR __t$[ebp], -19	; ffffffedH
$LN1@operator@6:
  0018a	6a 03		 push	 3
  0018c	8d 45 e8	 lea	 eax, DWORD PTR __t$[ebp]
  0018f	c6 45 f5 00	 mov	 BYTE PTR __t$[ebp+13], 0
  00193	5a		 pop	 edx
$LL104@operator@6:
  00194	81 30 ed ec eb
	ea		 xor	 DWORD PTR [eax], -353637139 ; eaebecedH
  0019a	83 c0 04	 add	 eax, 4
  0019d	4a		 dec	 edx
  0019e	75 f4		 jne	 SHORT $LL104@operator@6
  001a0	80 75 f4 ed	 xor	 BYTE PTR __t$[ebp+12], -19 ; ffffffedH
  001a4	8b cf		 mov	 ecx, edi
  001a6	8d 75 e8	 lea	 esi, DWORD PTR __t$[ebp]
  001a9	ff 15 00 00 00
	00		 call	 DWORD PTR __imp_?c_str@ioHashString@@QBEPBDXZ
$LL111@operator@6:
  001af	8a 08		 mov	 cl, BYTE PTR [eax]
  001b1	3a 0e		 cmp	 cl, BYTE PTR [esi]
  001b3	75 1a		 jne	 SHORT $LN112@operator@6
  001b5	84 c9		 test	 cl, cl
  001b7	74 12		 je	 SHORT $LN113@operator@6
  001b9	8a 48 01	 mov	 cl, BYTE PTR [eax+1]
  001bc	3a 4e 01	 cmp	 cl, BYTE PTR [esi+1]
  001bf	75 0e		 jne	 SHORT $LN112@operator@6
  001c1	83 c0 02	 add	 eax, 2
  001c4	83 c6 02	 add	 esi, 2
  001c7	84 c9		 test	 cl, cl
  001c9	75 e4		 jne	 SHORT $LL111@operator@6
$LN113@operator@6:
  001cb	33 c0		 xor	 eax, eax
  001cd	eb 05		 jmp	 SHORT $LN114@operator@6
$LN112@operator@6:
  001cf	1b c0		 sbb	 eax, eax
  001d1	83 d8 ff	 sbb	 eax, -1
$LN114@operator@6:
  001d4	33 c9		 xor	 ecx, ecx
  001d6	85 c0		 test	 eax, eax
  001d8	0f 94 c0	 sete	 al

; 148  : }

  001db	8b 4d fc	 mov	 ecx, DWORD PTR __$ArrayPad$[ebp]
  001de	5f		 pop	 edi
  001df	33 cd		 xor	 ecx, ebp
  001e1	5e		 pop	 esi
  001e2	e8 00 00 00 00	 call	 @__security_check_cookie@4
  001e7	c9		 leave
  001e8	c3		 ret	 0
??$?8$0O@@@YA_NABVioHashString@@AAY0O@$$CBD@Z ENDP	; operator==<14>
_TEXT	ENDS
PUBLIC	__$ArrayPad$
PUBLIC	??$GetIntAttribute_e@$0N@@ioXMLElement@@QBEHAAY0N@$$CBD@Z ; ioXMLElement::GetIntAttribute_e<13>
EXTRN	__imp_?GetIntAttribute@ioXMLElement@@QBEHPBD@Z:PROC
; Function compile flags: /Ogsp
; File d:\lost saga for developer\youtube\tutorial\source\src\io3dengine\ioxmlelement.h
;	COMDAT ??$GetIntAttribute_e@$0N@@ioXMLElement@@QBEHAAY0N@$$CBD@Z
_TEXT	SEGMENT
__k$ = -24						; size = 13
__$ArrayPad$ = -4					; size = 4
_k$ = 8							; size = 4
??$GetIntAttribute_e@$0N@@ioXMLElement@@QBEHAAY0N@$$CBD@Z PROC ; ioXMLElement::GetIntAttribute_e<13>, COMDAT
; _this$ = ecx

; 86   : 	{

  00000	55		 push	 ebp
  00001	8b ec		 mov	 ebp, esp
  00003	83 ec 18	 sub	 esp, 24			; 00000018H
  00006	a1 00 00 00 00	 mov	 eax, DWORD PTR ___security_cookie
  0000b	33 c5		 xor	 eax, ebp
  0000d	89 45 fc	 mov	 DWORD PTR __$ArrayPad$[ebp], eax
  00010	8b 45 08	 mov	 eax, DWORD PTR _k$[ebp]

; 87   : 		_ENCSTR(k, _k);

  00013	8a 10		 mov	 dl, BYTE PTR [eax]
  00015	56		 push	 esi
  00016	8b f1		 mov	 esi, ecx
  00018	84 d2		 test	 dl, dl
  0001a	0f 84 4d 01 00
	00		 je	 $LN96@GetIntAttr
  00020	80 f2 ed	 xor	 dl, -19			; ffffffedH
  00023	88 55 e8	 mov	 BYTE PTR __k$[ebp], dl
  00026	8a 50 01	 mov	 dl, BYTE PTR [eax+1]
  00029	84 d2		 test	 dl, dl
  0002b	0f 84 36 01 00
	00		 je	 $LN95@GetIntAttr
  00031	b1 ec		 mov	 cl, -20			; ffffffecH
  00033	32 d1		 xor	 dl, cl
  00035	88 55 e9	 mov	 BYTE PTR __k$[ebp+1], dl
  00038	8a 50 02	 mov	 dl, BYTE PTR [eax+2]
  0003b	84 d2		 test	 dl, dl
  0003d	0f 84 1e 01 00
	00		 je	 $LN94@GetIntAttr
  00043	80 f2 eb	 xor	 dl, -21			; ffffffebH
  00046	88 55 ea	 mov	 BYTE PTR __k$[ebp+2], dl
  00049	8a 50 03	 mov	 dl, BYTE PTR [eax+3]
  0004c	84 d2		 test	 dl, dl
  0004e	0f 84 07 01 00
	00		 je	 $LN93@GetIntAttr
  00054	80 f2 ea	 xor	 dl, -22			; ffffffeaH
  00057	88 55 eb	 mov	 BYTE PTR __k$[ebp+3], dl
  0005a	8a 50 04	 mov	 dl, BYTE PTR [eax+4]
  0005d	84 d2		 test	 dl, dl
  0005f	0f 84 f0 00 00
	00		 je	 $LN92@GetIntAttr
  00065	80 f2 ed	 xor	 dl, -19			; ffffffedH
  00068	88 55 ec	 mov	 BYTE PTR __k$[ebp+4], dl
  0006b	8a 50 05	 mov	 dl, BYTE PTR [eax+5]
  0006e	84 d2		 test	 dl, dl
  00070	0f 84 da 00 00
	00		 je	 $LN91@GetIntAttr
  00076	32 d1		 xor	 dl, cl
  00078	88 55 ed	 mov	 BYTE PTR __k$[ebp+5], dl
  0007b	8a 50 06	 mov	 dl, BYTE PTR [eax+6]
  0007e	84 d2		 test	 dl, dl
  00080	0f 84 c4 00 00
	00		 je	 $LN90@GetIntAttr
  00086	80 f2 eb	 xor	 dl, -21			; ffffffebH
  00089	88 55 ee	 mov	 BYTE PTR __k$[ebp+6], dl
  0008c	8a 50 07	 mov	 dl, BYTE PTR [eax+7]
  0008f	84 d2		 test	 dl, dl
  00091	0f 84 ad 00 00
	00		 je	 $LN89@GetIntAttr
  00097	80 f2 ea	 xor	 dl, -22			; ffffffeaH
  0009a	88 55 ef	 mov	 BYTE PTR __k$[ebp+7], dl
  0009d	8a 50 08	 mov	 dl, BYTE PTR [eax+8]
  000a0	84 d2		 test	 dl, dl
  000a2	0f 84 96 00 00
	00		 je	 $LN88@GetIntAttr
  000a8	80 f2 ed	 xor	 dl, -19			; ffffffedH
  000ab	88 55 f0	 mov	 BYTE PTR __k$[ebp+8], dl
  000ae	8a 50 09	 mov	 dl, BYTE PTR [eax+9]
  000b1	84 d2		 test	 dl, dl
  000b3	0f 84 80 00 00
	00		 je	 $LN87@GetIntAttr
  000b9	32 d1		 xor	 dl, cl
  000bb	88 55 f1	 mov	 BYTE PTR __k$[ebp+9], dl
  000be	8a 50 0a	 mov	 dl, BYTE PTR [eax+10]
  000c1	84 d2		 test	 dl, dl
  000c3	74 6e		 je	 SHORT $LN86@GetIntAttr
  000c5	80 f2 eb	 xor	 dl, -21			; ffffffebH
  000c8	88 55 f2	 mov	 BYTE PTR __k$[ebp+10], dl
  000cb	8a 50 0b	 mov	 dl, BYTE PTR [eax+11]
  000ce	84 d2		 test	 dl, dl
  000d0	74 5b		 je	 SHORT $LN85@GetIntAttr
  000d2	80 f2 ea	 xor	 dl, -22			; ffffffeaH
  000d5	80 78 0c 00	 cmp	 BYTE PTR [eax+12], 0
  000d9	88 55 f3	 mov	 BYTE PTR __k$[ebp+11], dl
  000dc	0f 84 8f 00 00
	00		 je	 $LN1@GetIntAttr
  000e2	8a 50 0d	 mov	 dl, BYTE PTR [eax+13]
  000e5	84 d2		 test	 dl, dl
  000e7	74 3f		 je	 SHORT $LN83@GetIntAttr
  000e9	32 d1		 xor	 dl, cl
  000eb	88 55 f5	 mov	 BYTE PTR __k$[ebp+13], dl
  000ee	8a 50 0e	 mov	 dl, BYTE PTR [eax+14]
  000f1	84 d2		 test	 dl, dl
  000f3	74 2d		 je	 SHORT $LN82@GetIntAttr
  000f5	80 f2 eb	 xor	 dl, -21			; ffffffebH
  000f8	88 55 f6	 mov	 BYTE PTR __k$[ebp+14], dl
  000fb	8a 50 0f	 mov	 dl, BYTE PTR [eax+15]
  000fe	84 d2		 test	 dl, dl
  00100	74 1a		 je	 SHORT $LN81@GetIntAttr
  00102	8a 40 10	 mov	 al, BYTE PTR [eax+16]
  00105	80 f2 ea	 xor	 dl, -22			; ffffffeaH
  00108	88 55 f7	 mov	 BYTE PTR __k$[ebp+15], dl
  0010b	84 c0		 test	 al, al
  0010d	74 07		 je	 SHORT $LN80@GetIntAttr
  0010f	34 ed		 xor	 al, -19			; ffffffedH
  00111	88 45 f8	 mov	 BYTE PTR __k$[ebp+16], al
  00114	eb 5b		 jmp	 SHORT $LN1@GetIntAttr
$LN80@GetIntAttr:
  00116	c6 45 f8 ed	 mov	 BYTE PTR __k$[ebp+16], -19 ; ffffffedH
  0011a	eb 55		 jmp	 SHORT $LN1@GetIntAttr
$LN81@GetIntAttr:
  0011c	c6 45 f7 ea	 mov	 BYTE PTR __k$[ebp+15], -22 ; ffffffeaH
  00120	eb 4f		 jmp	 SHORT $LN1@GetIntAttr
$LN82@GetIntAttr:
  00122	c6 45 f6 eb	 mov	 BYTE PTR __k$[ebp+14], -21 ; ffffffebH
  00126	eb 49		 jmp	 SHORT $LN1@GetIntAttr
$LN83@GetIntAttr:
  00128	88 4d f5	 mov	 BYTE PTR __k$[ebp+13], cl
  0012b	eb 44		 jmp	 SHORT $LN1@GetIntAttr
$LN85@GetIntAttr:
  0012d	c6 45 f3 ea	 mov	 BYTE PTR __k$[ebp+11], -22 ; ffffffeaH
  00131	eb 3e		 jmp	 SHORT $LN1@GetIntAttr
$LN86@GetIntAttr:
  00133	c6 45 f2 eb	 mov	 BYTE PTR __k$[ebp+10], -21 ; ffffffebH
  00137	eb 38		 jmp	 SHORT $LN1@GetIntAttr
$LN87@GetIntAttr:
  00139	88 4d f1	 mov	 BYTE PTR __k$[ebp+9], cl
  0013c	eb 33		 jmp	 SHORT $LN1@GetIntAttr
$LN88@GetIntAttr:
  0013e	c6 45 f0 ed	 mov	 BYTE PTR __k$[ebp+8], -19 ; ffffffedH
  00142	eb 2d		 jmp	 SHORT $LN1@GetIntAttr
$LN89@GetIntAttr:
  00144	c6 45 ef ea	 mov	 BYTE PTR __k$[ebp+7], -22 ; ffffffeaH
  00148	eb 27		 jmp	 SHORT $LN1@GetIntAttr
$LN90@GetIntAttr:
  0014a	c6 45 ee eb	 mov	 BYTE PTR __k$[ebp+6], -21 ; ffffffebH
  0014e	eb 21		 jmp	 SHORT $LN1@GetIntAttr
$LN91@GetIntAttr:
  00150	88 4d ed	 mov	 BYTE PTR __k$[ebp+5], cl
  00153	eb 1c		 jmp	 SHORT $LN1@GetIntAttr
$LN92@GetIntAttr:
  00155	c6 45 ec ed	 mov	 BYTE PTR __k$[ebp+4], -19 ; ffffffedH
  00159	eb 16		 jmp	 SHORT $LN1@GetIntAttr
$LN93@GetIntAttr:
  0015b	c6 45 eb ea	 mov	 BYTE PTR __k$[ebp+3], -22 ; ffffffeaH
  0015f	eb 10		 jmp	 SHORT $LN1@GetIntAttr
$LN94@GetIntAttr:
  00161	c6 45 ea eb	 mov	 BYTE PTR __k$[ebp+2], -21 ; ffffffebH
  00165	eb 0a		 jmp	 SHORT $LN1@GetIntAttr
$LN95@GetIntAttr:
  00167	c6 45 e9 ec	 mov	 BYTE PTR __k$[ebp+1], -20 ; ffffffecH
  0016b	eb 04		 jmp	 SHORT $LN1@GetIntAttr
$LN96@GetIntAttr:
  0016d	c6 45 e8 ed	 mov	 BYTE PTR __k$[ebp], -19	; ffffffedH
$LN1@GetIntAttr:
  00171	6a 03		 push	 3
  00173	8d 45 e8	 lea	 eax, DWORD PTR __k$[ebp]
  00176	c6 45 f4 00	 mov	 BYTE PTR __k$[ebp+12], 0
  0017a	5a		 pop	 edx
$LL104@GetIntAttr:
  0017b	81 30 ed ec eb
	ea		 xor	 DWORD PTR [eax], -353637139 ; eaebecedH
  00181	83 c0 04	 add	 eax, 4
  00184	4a		 dec	 edx
  00185	75 f4		 jne	 SHORT $LL104@GetIntAttr

; 88   : 		return GetIntAttribute(_k);

  00187	8d 45 e8	 lea	 eax, DWORD PTR __k$[ebp]
  0018a	50		 push	 eax
  0018b	8b ce		 mov	 ecx, esi
  0018d	ff 15 00 00 00
	00		 call	 DWORD PTR __imp_?GetIntAttribute@ioXMLElement@@QBEHPBD@Z

; 89   : 	}

  00193	8b 4d fc	 mov	 ecx, DWORD PTR __$ArrayPad$[ebp]
  00196	33 cd		 xor	 ecx, ebp
  00198	5e		 pop	 esi
  00199	e8 00 00 00 00	 call	 @__security_check_cookie@4
  0019e	c9		 leave
  0019f	c2 04 00	 ret	 4
??$GetIntAttribute_e@$0N@@ioXMLElement@@QBEHAAY0N@$$CBD@Z ENDP ; ioXMLElement::GetIntAttribute_e<13>
_TEXT	ENDS
PUBLIC	__$ArrayPad$
PUBLIC	??$GetIntAttribute_e@$0BD@@ioXMLElement@@QBEHAAY0BD@$$CBD@Z ; ioXMLElement::GetIntAttribute_e<19>
; Function compile flags: /Ogsp
;	COMDAT ??$GetIntAttribute_e@$0BD@@ioXMLElement@@QBEHAAY0BD@$$CBD@Z
_TEXT	SEGMENT
__k$ = -28						; size = 19
__$ArrayPad$ = -4					; size = 4
_k$ = 8							; size = 4
??$GetIntAttribute_e@$0BD@@ioXMLElement@@QBEHAAY0BD@$$CBD@Z PROC ; ioXMLElement::GetIntAttribute_e<19>, COMDAT
; _this$ = ecx

; 86   : 	{

  00000	55		 push	 ebp
  00001	8b ec		 mov	 ebp, esp
  00003	83 ec 1c	 sub	 esp, 28			; 0000001cH
  00006	a1 00 00 00 00	 mov	 eax, DWORD PTR ___security_cookie
  0000b	33 c5		 xor	 eax, ebp
  0000d	89 45 fc	 mov	 DWORD PTR __$ArrayPad$[ebp], eax
  00010	8b 45 08	 mov	 eax, DWORD PTR _k$[ebp]

; 87   : 		_ENCSTR(k, _k);

  00013	8a 10		 mov	 dl, BYTE PTR [eax]
  00015	56		 push	 esi
  00016	8b f1		 mov	 esi, ecx
  00018	84 d2		 test	 dl, dl
  0001a	0f 84 cf 01 00
	00		 je	 $LN96@GetIntAttr@2
  00020	80 f2 ed	 xor	 dl, -19			; ffffffedH
  00023	88 55 e4	 mov	 BYTE PTR __k$[ebp], dl
  00026	8a 50 01	 mov	 dl, BYTE PTR [eax+1]
  00029	84 d2		 test	 dl, dl
  0002b	0f 84 b8 01 00
	00		 je	 $LN95@GetIntAttr@2
  00031	b1 ec		 mov	 cl, -20			; ffffffecH
  00033	32 d1		 xor	 dl, cl
  00035	88 55 e5	 mov	 BYTE PTR __k$[ebp+1], dl
  00038	8a 50 02	 mov	 dl, BYTE PTR [eax+2]
  0003b	84 d2		 test	 dl, dl
  0003d	0f 84 a0 01 00
	00		 je	 $LN94@GetIntAttr@2
  00043	80 f2 eb	 xor	 dl, -21			; ffffffebH
  00046	88 55 e6	 mov	 BYTE PTR __k$[ebp+2], dl
  00049	8a 50 03	 mov	 dl, BYTE PTR [eax+3]
  0004c	84 d2		 test	 dl, dl
  0004e	0f 84 89 01 00
	00		 je	 $LN93@GetIntAttr@2
  00054	80 f2 ea	 xor	 dl, -22			; ffffffeaH
  00057	88 55 e7	 mov	 BYTE PTR __k$[ebp+3], dl
  0005a	8a 50 04	 mov	 dl, BYTE PTR [eax+4]
  0005d	84 d2		 test	 dl, dl
  0005f	0f 84 72 01 00
	00		 je	 $LN92@GetIntAttr@2
  00065	80 f2 ed	 xor	 dl, -19			; ffffffedH
  00068	88 55 e8	 mov	 BYTE PTR __k$[ebp+4], dl
  0006b	8a 50 05	 mov	 dl, BYTE PTR [eax+5]
  0006e	84 d2		 test	 dl, dl
  00070	0f 84 5c 01 00
	00		 je	 $LN91@GetIntAttr@2
  00076	32 d1		 xor	 dl, cl
  00078	88 55 e9	 mov	 BYTE PTR __k$[ebp+5], dl
  0007b	8a 50 06	 mov	 dl, BYTE PTR [eax+6]
  0007e	84 d2		 test	 dl, dl
  00080	0f 84 46 01 00
	00		 je	 $LN90@GetIntAttr@2
  00086	80 f2 eb	 xor	 dl, -21			; ffffffebH
  00089	88 55 ea	 mov	 BYTE PTR __k$[ebp+6], dl
  0008c	8a 50 07	 mov	 dl, BYTE PTR [eax+7]
  0008f	84 d2		 test	 dl, dl
  00091	0f 84 2f 01 00
	00		 je	 $LN89@GetIntAttr@2
  00097	80 f2 ea	 xor	 dl, -22			; ffffffeaH
  0009a	88 55 eb	 mov	 BYTE PTR __k$[ebp+7], dl
  0009d	8a 50 08	 mov	 dl, BYTE PTR [eax+8]
  000a0	84 d2		 test	 dl, dl
  000a2	0f 84 18 01 00
	00		 je	 $LN88@GetIntAttr@2
  000a8	80 f2 ed	 xor	 dl, -19			; ffffffedH
  000ab	88 55 ec	 mov	 BYTE PTR __k$[ebp+8], dl
  000ae	8a 50 09	 mov	 dl, BYTE PTR [eax+9]
  000b1	84 d2		 test	 dl, dl
  000b3	0f 84 02 01 00
	00		 je	 $LN87@GetIntAttr@2
  000b9	32 d1		 xor	 dl, cl
  000bb	88 55 ed	 mov	 BYTE PTR __k$[ebp+9], dl
  000be	8a 50 0a	 mov	 dl, BYTE PTR [eax+10]
  000c1	84 d2		 test	 dl, dl
  000c3	0f 84 ec 00 00
	00		 je	 $LN86@GetIntAttr@2
  000c9	80 f2 eb	 xor	 dl, -21			; ffffffebH
  000cc	88 55 ee	 mov	 BYTE PTR __k$[ebp+10], dl
  000cf	8a 50 0b	 mov	 dl, BYTE PTR [eax+11]
  000d2	84 d2		 test	 dl, dl
  000d4	0f 84 d5 00 00
	00		 je	 $LN85@GetIntAttr@2
  000da	80 f2 ea	 xor	 dl, -22			; ffffffeaH
  000dd	88 55 ef	 mov	 BYTE PTR __k$[ebp+11], dl
  000e0	8a 50 0c	 mov	 dl, BYTE PTR [eax+12]
  000e3	84 d2		 test	 dl, dl
  000e5	0f 84 be 00 00
	00		 je	 $LN84@GetIntAttr@2
  000eb	80 f2 ed	 xor	 dl, -19			; ffffffedH
  000ee	88 55 f0	 mov	 BYTE PTR __k$[ebp+12], dl
  000f1	8a 50 0d	 mov	 dl, BYTE PTR [eax+13]
  000f4	84 d2		 test	 dl, dl
  000f6	0f 84 a8 00 00
	00		 je	 $LN83@GetIntAttr@2
  000fc	32 d1		 xor	 dl, cl
  000fe	88 55 f1	 mov	 BYTE PTR __k$[ebp+13], dl
  00101	8a 50 0e	 mov	 dl, BYTE PTR [eax+14]
  00104	84 d2		 test	 dl, dl
  00106	0f 84 92 00 00
	00		 je	 $LN82@GetIntAttr@2
  0010c	80 f2 eb	 xor	 dl, -21			; ffffffebH
  0010f	88 55 f2	 mov	 BYTE PTR __k$[ebp+14], dl
  00112	8a 50 0f	 mov	 dl, BYTE PTR [eax+15]
  00115	84 d2		 test	 dl, dl
  00117	74 7f		 je	 SHORT $LN81@GetIntAttr@2
  00119	80 f2 ea	 xor	 dl, -22			; ffffffeaH
  0011c	88 55 f3	 mov	 BYTE PTR __k$[ebp+15], dl
  0011f	8a 50 10	 mov	 dl, BYTE PTR [eax+16]
  00122	84 d2		 test	 dl, dl
  00124	74 6c		 je	 SHORT $LN80@GetIntAttr@2
  00126	80 f2 ed	 xor	 dl, -19			; ffffffedH
  00129	88 55 f4	 mov	 BYTE PTR __k$[ebp+16], dl
  0012c	8a 50 11	 mov	 dl, BYTE PTR [eax+17]
  0012f	84 d2		 test	 dl, dl
  00131	74 5a		 je	 SHORT $LN79@GetIntAttr@2
  00133	32 d1		 xor	 dl, cl
  00135	80 78 12 00	 cmp	 BYTE PTR [eax+18], 0
  00139	88 55 f5	 mov	 BYTE PTR __k$[ebp+17], dl
  0013c	0f 84 b1 00 00
	00		 je	 $LN1@GetIntAttr@2
  00142	8a 50 13	 mov	 dl, BYTE PTR [eax+19]
  00145	84 d2		 test	 dl, dl
  00147	74 3e		 je	 SHORT $LN77@GetIntAttr@2
  00149	80 f2 ea	 xor	 dl, -22			; ffffffeaH
  0014c	88 55 f7	 mov	 BYTE PTR __k$[ebp+19], dl
  0014f	8a 50 14	 mov	 dl, BYTE PTR [eax+20]
  00152	84 d2		 test	 dl, dl
  00154	74 2b		 je	 SHORT $LN76@GetIntAttr@2
  00156	80 f2 ed	 xor	 dl, -19			; ffffffedH
  00159	88 55 f8	 mov	 BYTE PTR __k$[ebp+20], dl
  0015c	8a 50 15	 mov	 dl, BYTE PTR [eax+21]
  0015f	84 d2		 test	 dl, dl
  00161	74 19		 je	 SHORT $LN75@GetIntAttr@2
  00163	8a 40 16	 mov	 al, BYTE PTR [eax+22]
  00166	32 d1		 xor	 dl, cl
  00168	88 55 f9	 mov	 BYTE PTR __k$[ebp+21], dl
  0016b	84 c0		 test	 al, al
  0016d	74 07		 je	 SHORT $LN74@GetIntAttr@2
  0016f	34 eb		 xor	 al, -21			; ffffffebH
  00171	88 45 fa	 mov	 BYTE PTR __k$[ebp+22], al
  00174	eb 7d		 jmp	 SHORT $LN1@GetIntAttr@2
$LN74@GetIntAttr@2:
  00176	c6 45 fa eb	 mov	 BYTE PTR __k$[ebp+22], -21 ; ffffffebH
  0017a	eb 77		 jmp	 SHORT $LN1@GetIntAttr@2
$LN75@GetIntAttr@2:
  0017c	88 4d f9	 mov	 BYTE PTR __k$[ebp+21], cl
  0017f	eb 72		 jmp	 SHORT $LN1@GetIntAttr@2
$LN76@GetIntAttr@2:
  00181	c6 45 f8 ed	 mov	 BYTE PTR __k$[ebp+20], -19 ; ffffffedH
  00185	eb 6c		 jmp	 SHORT $LN1@GetIntAttr@2
$LN77@GetIntAttr@2:
  00187	c6 45 f7 ea	 mov	 BYTE PTR __k$[ebp+19], -22 ; ffffffeaH
  0018b	eb 66		 jmp	 SHORT $LN1@GetIntAttr@2
$LN79@GetIntAttr@2:
  0018d	88 4d f5	 mov	 BYTE PTR __k$[ebp+17], cl
  00190	eb 61		 jmp	 SHORT $LN1@GetIntAttr@2
$LN80@GetIntAttr@2:
  00192	c6 45 f4 ed	 mov	 BYTE PTR __k$[ebp+16], -19 ; ffffffedH
  00196	eb 5b		 jmp	 SHORT $LN1@GetIntAttr@2
$LN81@GetIntAttr@2:
  00198	c6 45 f3 ea	 mov	 BYTE PTR __k$[ebp+15], -22 ; ffffffeaH
  0019c	eb 55		 jmp	 SHORT $LN1@GetIntAttr@2
$LN82@GetIntAttr@2:
  0019e	c6 45 f2 eb	 mov	 BYTE PTR __k$[ebp+14], -21 ; ffffffebH
  001a2	eb 4f		 jmp	 SHORT $LN1@GetIntAttr@2
$LN83@GetIntAttr@2:
  001a4	88 4d f1	 mov	 BYTE PTR __k$[ebp+13], cl
  001a7	eb 4a		 jmp	 SHORT $LN1@GetIntAttr@2
$LN84@GetIntAttr@2:
  001a9	c6 45 f0 ed	 mov	 BYTE PTR __k$[ebp+12], -19 ; ffffffedH
  001ad	eb 44		 jmp	 SHORT $LN1@GetIntAttr@2
$LN85@GetIntAttr@2:
  001af	c6 45 ef ea	 mov	 BYTE PTR __k$[ebp+11], -22 ; ffffffeaH
  001b3	eb 3e		 jmp	 SHORT $LN1@GetIntAttr@2
$LN86@GetIntAttr@2:
  001b5	c6 45 ee eb	 mov	 BYTE PTR __k$[ebp+10], -21 ; ffffffebH
  001b9	eb 38		 jmp	 SHORT $LN1@GetIntAttr@2
$LN87@GetIntAttr@2:
  001bb	88 4d ed	 mov	 BYTE PTR __k$[ebp+9], cl
  001be	eb 33		 jmp	 SHORT $LN1@GetIntAttr@2
$LN88@GetIntAttr@2:
  001c0	c6 45 ec ed	 mov	 BYTE PTR __k$[ebp+8], -19 ; ffffffedH
  001c4	eb 2d		 jmp	 SHORT $LN1@GetIntAttr@2
$LN89@GetIntAttr@2:
  001c6	c6 45 eb ea	 mov	 BYTE PTR __k$[ebp+7], -22 ; ffffffeaH
  001ca	eb 27		 jmp	 SHORT $LN1@GetIntAttr@2
$LN90@GetIntAttr@2:
  001cc	c6 45 ea eb	 mov	 BYTE PTR __k$[ebp+6], -21 ; ffffffebH
  001d0	eb 21		 jmp	 SHORT $LN1@GetIntAttr@2
$LN91@GetIntAttr@2:
  001d2	88 4d e9	 mov	 BYTE PTR __k$[ebp+5], cl
  001d5	eb 1c		 jmp	 SHORT $LN1@GetIntAttr@2
$LN92@GetIntAttr@2:
  001d7	c6 45 e8 ed	 mov	 BYTE PTR __k$[ebp+4], -19 ; ffffffedH
  001db	eb 16		 jmp	 SHORT $LN1@GetIntAttr@2
$LN93@GetIntAttr@2:
  001dd	c6 45 e7 ea	 mov	 BYTE PTR __k$[ebp+3], -22 ; ffffffeaH
  001e1	eb 10		 jmp	 SHORT $LN1@GetIntAttr@2
$LN94@GetIntAttr@2:
  001e3	c6 45 e6 eb	 mov	 BYTE PTR __k$[ebp+2], -21 ; ffffffebH
  001e7	eb 0a		 jmp	 SHORT $LN1@GetIntAttr@2
$LN95@GetIntAttr@2:
  001e9	c6 45 e5 ec	 mov	 BYTE PTR __k$[ebp+1], -20 ; ffffffecH
  001ed	eb 04		 jmp	 SHORT $LN1@GetIntAttr@2
$LN96@GetIntAttr@2:
  001ef	c6 45 e4 ed	 mov	 BYTE PTR __k$[ebp], -19	; ffffffedH
$LN1@GetIntAttr@2:
  001f3	6a 04		 push	 4
  001f5	8d 45 e4	 lea	 eax, DWORD PTR __k$[ebp]
  001f8	c6 45 f6 00	 mov	 BYTE PTR __k$[ebp+18], 0
  001fc	5a		 pop	 edx
$LL104@GetIntAttr@2:
  001fd	81 30 ed ec eb
	ea		 xor	 DWORD PTR [eax], -353637139 ; eaebecedH
  00203	83 c0 04	 add	 eax, 4
  00206	4a		 dec	 edx
  00207	75 f4		 jne	 SHORT $LL104@GetIntAttr@2
  00209	6a 10		 push	 16			; 00000010H
  0020b	58		 pop	 eax
$LL101@GetIntAttr@2:
  0020c	8b c8		 mov	 ecx, eax
  0020e	81 e1 03 00 00
	80		 and	 ecx, -2147483645	; 80000003H
  00214	79 05		 jns	 SHORT $LN111@GetIntAttr@2
  00216	49		 dec	 ecx
  00217	83 c9 fc	 or	 ecx, -4			; fffffffcH
  0021a	41		 inc	 ecx
$LN111@GetIntAttr@2:
  0021b	b2 ed		 mov	 dl, -19			; ffffffedH
  0021d	2a d1		 sub	 dl, cl
  0021f	30 54 05 e4	 xor	 BYTE PTR __k$[ebp+eax], dl
  00223	40		 inc	 eax
  00224	83 f8 12	 cmp	 eax, 18			; 00000012H
  00227	7c e3		 jl	 SHORT $LL101@GetIntAttr@2

; 88   : 		return GetIntAttribute(_k);

  00229	8d 45 e4	 lea	 eax, DWORD PTR __k$[ebp]
  0022c	50		 push	 eax
  0022d	8b ce		 mov	 ecx, esi
  0022f	ff 15 00 00 00
	00		 call	 DWORD PTR __imp_?GetIntAttribute@ioXMLElement@@QBEHPBD@Z

; 89   : 	}

  00235	8b 4d fc	 mov	 ecx, DWORD PTR __$ArrayPad$[ebp]
  00238	33 cd		 xor	 ecx, ebp
  0023a	5e		 pop	 esi
  0023b	e8 00 00 00 00	 call	 @__security_check_cookie@4
  00240	c9		 leave
  00241	c2 04 00	 ret	 4
??$GetIntAttribute_e@$0BD@@ioXMLElement@@QBEHAAY0BD@$$CBD@Z ENDP ; ioXMLElement::GetIntAttribute_e<19>
_TEXT	ENDS
PUBLIC	__$ArrayPad$
PUBLIC	??$GetFloatAttribute_e@$0L@@ioXMLElement@@QBEMAAY0L@$$CBD@Z ; ioXMLElement::GetFloatAttribute_e<11>
EXTRN	__imp_?GetFloatAttribute@ioXMLElement@@QBEMPBD@Z:PROC
; Function compile flags: /Ogsp
;	COMDAT ??$GetFloatAttribute_e@$0L@@ioXMLElement@@QBEMAAY0L@$$CBD@Z
_TEXT	SEGMENT
__k$ = -20						; size = 11
__$ArrayPad$ = -4					; size = 4
_k$ = 8							; size = 4
??$GetFloatAttribute_e@$0L@@ioXMLElement@@QBEMAAY0L@$$CBD@Z PROC ; ioXMLElement::GetFloatAttribute_e<11>, COMDAT
; _this$ = ecx

; 100  : 	{

  00000	55		 push	 ebp
  00001	8b ec		 mov	 ebp, esp
  00003	83 ec 14	 sub	 esp, 20			; 00000014H
  00006	a1 00 00 00 00	 mov	 eax, DWORD PTR ___security_cookie
  0000b	33 c5		 xor	 eax, ebp
  0000d	89 45 fc	 mov	 DWORD PTR __$ArrayPad$[ebp], eax
  00010	8b 45 08	 mov	 eax, DWORD PTR _k$[ebp]

; 101  : 		_ENCSTR(k, _k);

  00013	8a 10		 mov	 dl, BYTE PTR [eax]
  00015	56		 push	 esi
  00016	8b f1		 mov	 esi, ecx
  00018	84 d2		 test	 dl, dl
  0001a	0f 84 24 01 00
	00		 je	 $LN96@GetFloatAt
  00020	80 f2 ed	 xor	 dl, -19			; ffffffedH
  00023	88 55 ec	 mov	 BYTE PTR __k$[ebp], dl
  00026	8a 50 01	 mov	 dl, BYTE PTR [eax+1]
  00029	84 d2		 test	 dl, dl
  0002b	0f 84 0d 01 00
	00		 je	 $LN95@GetFloatAt
  00031	80 f2 ec	 xor	 dl, -20			; ffffffecH
  00034	88 55 ed	 mov	 BYTE PTR __k$[ebp+1], dl
  00037	8a 50 02	 mov	 dl, BYTE PTR [eax+2]
  0003a	84 d2		 test	 dl, dl
  0003c	0f 84 f6 00 00
	00		 je	 $LN94@GetFloatAt
  00042	80 f2 eb	 xor	 dl, -21			; ffffffebH
  00045	88 55 ee	 mov	 BYTE PTR __k$[ebp+2], dl
  00048	8a 50 03	 mov	 dl, BYTE PTR [eax+3]
  0004b	84 d2		 test	 dl, dl
  0004d	0f 84 df 00 00
	00		 je	 $LN93@GetFloatAt
  00053	80 f2 ea	 xor	 dl, -22			; ffffffeaH
  00056	88 55 ef	 mov	 BYTE PTR __k$[ebp+3], dl
  00059	8a 50 04	 mov	 dl, BYTE PTR [eax+4]
  0005c	84 d2		 test	 dl, dl
  0005e	0f 84 c8 00 00
	00		 je	 $LN92@GetFloatAt
  00064	80 f2 ed	 xor	 dl, -19			; ffffffedH
  00067	88 55 f0	 mov	 BYTE PTR __k$[ebp+4], dl
  0006a	8a 50 05	 mov	 dl, BYTE PTR [eax+5]
  0006d	84 d2		 test	 dl, dl
  0006f	0f 84 b1 00 00
	00		 je	 $LN91@GetFloatAt
  00075	80 f2 ec	 xor	 dl, -20			; ffffffecH
  00078	88 55 f1	 mov	 BYTE PTR __k$[ebp+5], dl
  0007b	8a 50 06	 mov	 dl, BYTE PTR [eax+6]
  0007e	84 d2		 test	 dl, dl
  00080	0f 84 9a 00 00
	00		 je	 $LN90@GetFloatAt
  00086	80 f2 eb	 xor	 dl, -21			; ffffffebH
  00089	88 55 f2	 mov	 BYTE PTR __k$[ebp+6], dl
  0008c	8a 50 07	 mov	 dl, BYTE PTR [eax+7]
  0008f	84 d2		 test	 dl, dl
  00091	0f 84 83 00 00
	00		 je	 $LN89@GetFloatAt
  00097	80 f2 ea	 xor	 dl, -22			; ffffffeaH
  0009a	88 55 f3	 mov	 BYTE PTR __k$[ebp+7], dl
  0009d	8a 50 08	 mov	 dl, BYTE PTR [eax+8]
  000a0	84 d2		 test	 dl, dl
  000a2	74 70		 je	 SHORT $LN88@GetFloatAt
  000a4	80 f2 ed	 xor	 dl, -19			; ffffffedH
  000a7	88 55 f4	 mov	 BYTE PTR __k$[ebp+8], dl
  000aa	8a 50 09	 mov	 dl, BYTE PTR [eax+9]
  000ad	84 d2		 test	 dl, dl
  000af	74 5d		 je	 SHORT $LN87@GetFloatAt
  000b1	80 f2 ec	 xor	 dl, -20			; ffffffecH
  000b4	80 78 0a 00	 cmp	 BYTE PTR [eax+10], 0
  000b8	88 55 f5	 mov	 BYTE PTR __k$[ebp+9], dl
  000bb	0f 84 87 00 00
	00		 je	 $LN1@GetFloatAt
  000c1	8a 50 0b	 mov	 dl, BYTE PTR [eax+11]
  000c4	84 d2		 test	 dl, dl
  000c6	74 40		 je	 SHORT $LN85@GetFloatAt
  000c8	80 f2 ea	 xor	 dl, -22			; ffffffeaH
  000cb	88 55 f7	 mov	 BYTE PTR __k$[ebp+11], dl
  000ce	8a 50 0c	 mov	 dl, BYTE PTR [eax+12]
  000d1	84 d2		 test	 dl, dl
  000d3	74 2d		 je	 SHORT $LN84@GetFloatAt
  000d5	80 f2 ed	 xor	 dl, -19			; ffffffedH
  000d8	88 55 f8	 mov	 BYTE PTR __k$[ebp+12], dl
  000db	8a 50 0d	 mov	 dl, BYTE PTR [eax+13]
  000de	84 d2		 test	 dl, dl
  000e0	74 1a		 je	 SHORT $LN83@GetFloatAt
  000e2	8a 40 0e	 mov	 al, BYTE PTR [eax+14]
  000e5	80 f2 ec	 xor	 dl, -20			; ffffffecH
  000e8	88 55 f9	 mov	 BYTE PTR __k$[ebp+13], dl
  000eb	84 c0		 test	 al, al
  000ed	74 07		 je	 SHORT $LN82@GetFloatAt
  000ef	34 eb		 xor	 al, -21			; ffffffebH
  000f1	88 45 fa	 mov	 BYTE PTR __k$[ebp+14], al
  000f4	eb 52		 jmp	 SHORT $LN1@GetFloatAt
$LN82@GetFloatAt:
  000f6	c6 45 fa eb	 mov	 BYTE PTR __k$[ebp+14], -21 ; ffffffebH
  000fa	eb 4c		 jmp	 SHORT $LN1@GetFloatAt
$LN83@GetFloatAt:
  000fc	c6 45 f9 ec	 mov	 BYTE PTR __k$[ebp+13], -20 ; ffffffecH
  00100	eb 46		 jmp	 SHORT $LN1@GetFloatAt
$LN84@GetFloatAt:
  00102	c6 45 f8 ed	 mov	 BYTE PTR __k$[ebp+12], -19 ; ffffffedH
  00106	eb 40		 jmp	 SHORT $LN1@GetFloatAt
$LN85@GetFloatAt:
  00108	c6 45 f7 ea	 mov	 BYTE PTR __k$[ebp+11], -22 ; ffffffeaH
  0010c	eb 3a		 jmp	 SHORT $LN1@GetFloatAt
$LN87@GetFloatAt:
  0010e	c6 45 f5 ec	 mov	 BYTE PTR __k$[ebp+9], -20 ; ffffffecH
  00112	eb 34		 jmp	 SHORT $LN1@GetFloatAt
$LN88@GetFloatAt:
  00114	c6 45 f4 ed	 mov	 BYTE PTR __k$[ebp+8], -19 ; ffffffedH
  00118	eb 2e		 jmp	 SHORT $LN1@GetFloatAt
$LN89@GetFloatAt:
  0011a	c6 45 f3 ea	 mov	 BYTE PTR __k$[ebp+7], -22 ; ffffffeaH
  0011e	eb 28		 jmp	 SHORT $LN1@GetFloatAt
$LN90@GetFloatAt:
  00120	c6 45 f2 eb	 mov	 BYTE PTR __k$[ebp+6], -21 ; ffffffebH
  00124	eb 22		 jmp	 SHORT $LN1@GetFloatAt
$LN91@GetFloatAt:
  00126	c6 45 f1 ec	 mov	 BYTE PTR __k$[ebp+5], -20 ; ffffffecH
  0012a	eb 1c		 jmp	 SHORT $LN1@GetFloatAt
$LN92@GetFloatAt:
  0012c	c6 45 f0 ed	 mov	 BYTE PTR __k$[ebp+4], -19 ; ffffffedH
  00130	eb 16		 jmp	 SHORT $LN1@GetFloatAt
$LN93@GetFloatAt:
  00132	c6 45 ef ea	 mov	 BYTE PTR __k$[ebp+3], -22 ; ffffffeaH
  00136	eb 10		 jmp	 SHORT $LN1@GetFloatAt
$LN94@GetFloatAt:
  00138	c6 45 ee eb	 mov	 BYTE PTR __k$[ebp+2], -21 ; ffffffebH
  0013c	eb 0a		 jmp	 SHORT $LN1@GetFloatAt
$LN95@GetFloatAt:
  0013e	c6 45 ed ec	 mov	 BYTE PTR __k$[ebp+1], -20 ; ffffffecH
  00142	eb 04		 jmp	 SHORT $LN1@GetFloatAt
$LN96@GetFloatAt:
  00144	c6 45 ec ed	 mov	 BYTE PTR __k$[ebp], -19	; ffffffedH
$LN1@GetFloatAt:
  00148	6a 02		 push	 2
  0014a	8d 45 ec	 lea	 eax, DWORD PTR __k$[ebp]
  0014d	c6 45 f6 00	 mov	 BYTE PTR __k$[ebp+10], 0
  00151	5a		 pop	 edx
$LL104@GetFloatAt:
  00152	81 30 ed ec eb
	ea		 xor	 DWORD PTR [eax], -353637139 ; eaebecedH
  00158	83 c0 04	 add	 eax, 4
  0015b	4a		 dec	 edx
  0015c	75 f4		 jne	 SHORT $LL104@GetFloatAt
  0015e	6a 08		 push	 8
  00160	58		 pop	 eax
$LL101@GetFloatAt:
  00161	8b c8		 mov	 ecx, eax
  00163	81 e1 03 00 00
	80		 and	 ecx, -2147483645	; 80000003H
  00169	79 05		 jns	 SHORT $LN111@GetFloatAt
  0016b	49		 dec	 ecx
  0016c	83 c9 fc	 or	 ecx, -4			; fffffffcH
  0016f	41		 inc	 ecx
$LN111@GetFloatAt:
  00170	b2 ed		 mov	 dl, -19			; ffffffedH
  00172	2a d1		 sub	 dl, cl
  00174	30 54 05 ec	 xor	 BYTE PTR __k$[ebp+eax], dl
  00178	40		 inc	 eax
  00179	83 f8 0a	 cmp	 eax, 10			; 0000000aH
  0017c	7c e3		 jl	 SHORT $LL101@GetFloatAt

; 102  : 		return GetFloatAttribute(_k);

  0017e	8d 45 ec	 lea	 eax, DWORD PTR __k$[ebp]
  00181	50		 push	 eax
  00182	8b ce		 mov	 ecx, esi
  00184	ff 15 00 00 00
	00		 call	 DWORD PTR __imp_?GetFloatAttribute@ioXMLElement@@QBEMPBD@Z

; 103  : 	}

  0018a	8b 4d fc	 mov	 ecx, DWORD PTR __$ArrayPad$[ebp]
  0018d	33 cd		 xor	 ecx, ebp
  0018f	5e		 pop	 esi
  00190	e8 00 00 00 00	 call	 @__security_check_cookie@4
  00195	c9		 leave
  00196	c2 04 00	 ret	 4
??$GetFloatAttribute_e@$0L@@ioXMLElement@@QBEMAAY0L@$$CBD@Z ENDP ; ioXMLElement::GetFloatAttribute_e<11>
_TEXT	ENDS
PUBLIC	__$ArrayPad$
PUBLIC	??$GetIntAttribute_e@$0BA@@ioXMLElement@@QBEHAAY0BA@$$CBD@Z ; ioXMLElement::GetIntAttribute_e<16>
; Function compile flags: /Ogsp
;	COMDAT ??$GetIntAttribute_e@$0BA@@ioXMLElement@@QBEHAAY0BA@$$CBD@Z
_TEXT	SEGMENT
__k$ = -24						; size = 16
__$ArrayPad$ = -4					; size = 4
_k$ = 8							; size = 4
??$GetIntAttribute_e@$0BA@@ioXMLElement@@QBEHAAY0BA@$$CBD@Z PROC ; ioXMLElement::GetIntAttribute_e<16>, COMDAT
; _this$ = ecx

; 86   : 	{

  00000	55		 push	 ebp
  00001	8b ec		 mov	 ebp, esp
  00003	83 ec 18	 sub	 esp, 24			; 00000018H
  00006	a1 00 00 00 00	 mov	 eax, DWORD PTR ___security_cookie
  0000b	33 c5		 xor	 eax, ebp
  0000d	89 45 fc	 mov	 DWORD PTR __$ArrayPad$[ebp], eax
  00010	8b 45 08	 mov	 eax, DWORD PTR _k$[ebp]

; 87   : 		_ENCSTR(k, _k);

  00013	8a 10		 mov	 dl, BYTE PTR [eax]
  00015	56		 push	 esi
  00016	8b f1		 mov	 esi, ecx
  00018	84 d2		 test	 dl, dl
  0001a	0f 84 8c 01 00
	00		 je	 $LN96@GetIntAttr@3
  00020	80 f2 ed	 xor	 dl, -19			; ffffffedH
  00023	88 55 e8	 mov	 BYTE PTR __k$[ebp], dl
  00026	8a 50 01	 mov	 dl, BYTE PTR [eax+1]
  00029	84 d2		 test	 dl, dl
  0002b	0f 84 75 01 00
	00		 je	 $LN95@GetIntAttr@3
  00031	80 f2 ec	 xor	 dl, -20			; ffffffecH
  00034	88 55 e9	 mov	 BYTE PTR __k$[ebp+1], dl
  00037	8a 50 02	 mov	 dl, BYTE PTR [eax+2]
  0003a	84 d2		 test	 dl, dl
  0003c	0f 84 5e 01 00
	00		 je	 $LN94@GetIntAttr@3
  00042	b1 eb		 mov	 cl, -21			; ffffffebH
  00044	32 d1		 xor	 dl, cl
  00046	88 55 ea	 mov	 BYTE PTR __k$[ebp+2], dl
  00049	8a 50 03	 mov	 dl, BYTE PTR [eax+3]
  0004c	84 d2		 test	 dl, dl
  0004e	0f 84 46 01 00
	00		 je	 $LN93@GetIntAttr@3
  00054	80 f2 ea	 xor	 dl, -22			; ffffffeaH
  00057	88 55 eb	 mov	 BYTE PTR __k$[ebp+3], dl
  0005a	8a 50 04	 mov	 dl, BYTE PTR [eax+4]
  0005d	84 d2		 test	 dl, dl
  0005f	0f 84 2f 01 00
	00		 je	 $LN92@GetIntAttr@3
  00065	80 f2 ed	 xor	 dl, -19			; ffffffedH
  00068	88 55 ec	 mov	 BYTE PTR __k$[ebp+4], dl
  0006b	8a 50 05	 mov	 dl, BYTE PTR [eax+5]
  0006e	84 d2		 test	 dl, dl
  00070	0f 84 18 01 00
	00		 je	 $LN91@GetIntAttr@3
  00076	80 f2 ec	 xor	 dl, -20			; ffffffecH
  00079	88 55 ed	 mov	 BYTE PTR __k$[ebp+5], dl
  0007c	8a 50 06	 mov	 dl, BYTE PTR [eax+6]
  0007f	84 d2		 test	 dl, dl
  00081	0f 84 02 01 00
	00		 je	 $LN90@GetIntAttr@3
  00087	32 d1		 xor	 dl, cl
  00089	88 55 ee	 mov	 BYTE PTR __k$[ebp+6], dl
  0008c	8a 50 07	 mov	 dl, BYTE PTR [eax+7]
  0008f	84 d2		 test	 dl, dl
  00091	0f 84 ec 00 00
	00		 je	 $LN89@GetIntAttr@3
  00097	80 f2 ea	 xor	 dl, -22			; ffffffeaH
  0009a	88 55 ef	 mov	 BYTE PTR __k$[ebp+7], dl
  0009d	8a 50 08	 mov	 dl, BYTE PTR [eax+8]
  000a0	84 d2		 test	 dl, dl
  000a2	0f 84 d5 00 00
	00		 je	 $LN88@GetIntAttr@3
  000a8	80 f2 ed	 xor	 dl, -19			; ffffffedH
  000ab	88 55 f0	 mov	 BYTE PTR __k$[ebp+8], dl
  000ae	8a 50 09	 mov	 dl, BYTE PTR [eax+9]
  000b1	84 d2		 test	 dl, dl
  000b3	0f 84 be 00 00
	00		 je	 $LN87@GetIntAttr@3
  000b9	80 f2 ec	 xor	 dl, -20			; ffffffecH
  000bc	88 55 f1	 mov	 BYTE PTR __k$[ebp+9], dl
  000bf	8a 50 0a	 mov	 dl, BYTE PTR [eax+10]
  000c2	84 d2		 test	 dl, dl
  000c4	0f 84 a8 00 00
	00		 je	 $LN86@GetIntAttr@3
  000ca	32 d1		 xor	 dl, cl
  000cc	88 55 f2	 mov	 BYTE PTR __k$[ebp+10], dl
  000cf	8a 50 0b	 mov	 dl, BYTE PTR [eax+11]
  000d2	84 d2		 test	 dl, dl
  000d4	0f 84 92 00 00
	00		 je	 $LN85@GetIntAttr@3
  000da	80 f2 ea	 xor	 dl, -22			; ffffffeaH
  000dd	88 55 f3	 mov	 BYTE PTR __k$[ebp+11], dl
  000e0	8a 50 0c	 mov	 dl, BYTE PTR [eax+12]
  000e3	84 d2		 test	 dl, dl
  000e5	74 7f		 je	 SHORT $LN84@GetIntAttr@3
  000e7	80 f2 ed	 xor	 dl, -19			; ffffffedH
  000ea	88 55 f4	 mov	 BYTE PTR __k$[ebp+12], dl
  000ed	8a 50 0d	 mov	 dl, BYTE PTR [eax+13]
  000f0	84 d2		 test	 dl, dl
  000f2	74 6c		 je	 SHORT $LN83@GetIntAttr@3
  000f4	80 f2 ec	 xor	 dl, -20			; ffffffecH
  000f7	88 55 f5	 mov	 BYTE PTR __k$[ebp+13], dl
  000fa	8a 50 0e	 mov	 dl, BYTE PTR [eax+14]
  000fd	84 d2		 test	 dl, dl
  000ff	74 5a		 je	 SHORT $LN82@GetIntAttr@3
  00101	32 d1		 xor	 dl, cl
  00103	80 78 0f 00	 cmp	 BYTE PTR [eax+15], 0
  00107	88 55 f6	 mov	 BYTE PTR __k$[ebp+14], dl
  0010a	0f 84 a0 00 00
	00		 je	 $LN1@GetIntAttr@3
  00110	8a 50 10	 mov	 dl, BYTE PTR [eax+16]
  00113	84 d2		 test	 dl, dl
  00115	74 3e		 je	 SHORT $LN80@GetIntAttr@3
  00117	80 f2 ed	 xor	 dl, -19			; ffffffedH
  0011a	88 55 f8	 mov	 BYTE PTR __k$[ebp+16], dl
  0011d	8a 50 11	 mov	 dl, BYTE PTR [eax+17]
  00120	84 d2		 test	 dl, dl
  00122	74 2b		 je	 SHORT $LN79@GetIntAttr@3
  00124	80 f2 ec	 xor	 dl, -20			; ffffffecH
  00127	88 55 f9	 mov	 BYTE PTR __k$[ebp+17], dl
  0012a	8a 50 12	 mov	 dl, BYTE PTR [eax+18]
  0012d	84 d2		 test	 dl, dl
  0012f	74 19		 je	 SHORT $LN78@GetIntAttr@3
  00131	8a 40 13	 mov	 al, BYTE PTR [eax+19]
  00134	32 d1		 xor	 dl, cl
  00136	88 55 fa	 mov	 BYTE PTR __k$[ebp+18], dl
  00139	84 c0		 test	 al, al
  0013b	74 07		 je	 SHORT $LN77@GetIntAttr@3
  0013d	34 ea		 xor	 al, -22			; ffffffeaH
  0013f	88 45 fb	 mov	 BYTE PTR __k$[ebp+19], al
  00142	eb 6c		 jmp	 SHORT $LN1@GetIntAttr@3
$LN77@GetIntAttr@3:
  00144	c6 45 fb ea	 mov	 BYTE PTR __k$[ebp+19], -22 ; ffffffeaH
  00148	eb 66		 jmp	 SHORT $LN1@GetIntAttr@3
$LN78@GetIntAttr@3:
  0014a	88 4d fa	 mov	 BYTE PTR __k$[ebp+18], cl
  0014d	eb 61		 jmp	 SHORT $LN1@GetIntAttr@3
$LN79@GetIntAttr@3:
  0014f	c6 45 f9 ec	 mov	 BYTE PTR __k$[ebp+17], -20 ; ffffffecH
  00153	eb 5b		 jmp	 SHORT $LN1@GetIntAttr@3
$LN80@GetIntAttr@3:
  00155	c6 45 f8 ed	 mov	 BYTE PTR __k$[ebp+16], -19 ; ffffffedH
  00159	eb 55		 jmp	 SHORT $LN1@GetIntAttr@3
$LN82@GetIntAttr@3:
  0015b	88 4d f6	 mov	 BYTE PTR __k$[ebp+14], cl
  0015e	eb 50		 jmp	 SHORT $LN1@GetIntAttr@3
$LN83@GetIntAttr@3:
  00160	c6 45 f5 ec	 mov	 BYTE PTR __k$[ebp+13], -20 ; ffffffecH
  00164	eb 4a		 jmp	 SHORT $LN1@GetIntAttr@3
$LN84@GetIntAttr@3:
  00166	c6 45 f4 ed	 mov	 BYTE PTR __k$[ebp+12], -19 ; ffffffedH
  0016a	eb 44		 jmp	 SHORT $LN1@GetIntAttr@3
$LN85@GetIntAttr@3:
  0016c	c6 45 f3 ea	 mov	 BYTE PTR __k$[ebp+11], -22 ; ffffffeaH
  00170	eb 3e		 jmp	 SHORT $LN1@GetIntAttr@3
$LN86@GetIntAttr@3:
  00172	88 4d f2	 mov	 BYTE PTR __k$[ebp+10], cl
  00175	eb 39		 jmp	 SHORT $LN1@GetIntAttr@3
$LN87@GetIntAttr@3:
  00177	c6 45 f1 ec	 mov	 BYTE PTR __k$[ebp+9], -20 ; ffffffecH
  0017b	eb 33		 jmp	 SHORT $LN1@GetIntAttr@3
$LN88@GetIntAttr@3:
  0017d	c6 45 f0 ed	 mov	 BYTE PTR __k$[ebp+8], -19 ; ffffffedH
  00181	eb 2d		 jmp	 SHORT $LN1@GetIntAttr@3
$LN89@GetIntAttr@3:
  00183	c6 45 ef ea	 mov	 BYTE PTR __k$[ebp+7], -22 ; ffffffeaH
  00187	eb 27		 jmp	 SHORT $LN1@GetIntAttr@3
$LN90@GetIntAttr@3:
  00189	88 4d ee	 mov	 BYTE PTR __k$[ebp+6], cl
  0018c	eb 22		 jmp	 SHORT $LN1@GetIntAttr@3
$LN91@GetIntAttr@3:
  0018e	c6 45 ed ec	 mov	 BYTE PTR __k$[ebp+5], -20 ; ffffffecH
  00192	eb 1c		 jmp	 SHORT $LN1@GetIntAttr@3
$LN92@GetIntAttr@3:
  00194	c6 45 ec ed	 mov	 BYTE PTR __k$[ebp+4], -19 ; ffffffedH
  00198	eb 16		 jmp	 SHORT $LN1@GetIntAttr@3
$LN93@GetIntAttr@3:
  0019a	c6 45 eb ea	 mov	 BYTE PTR __k$[ebp+3], -22 ; ffffffeaH
  0019e	eb 10		 jmp	 SHORT $LN1@GetIntAttr@3
$LN94@GetIntAttr@3:
  001a0	c6 45 ea eb	 mov	 BYTE PTR __k$[ebp+2], -21 ; ffffffebH
  001a4	eb 0a		 jmp	 SHORT $LN1@GetIntAttr@3
$LN95@GetIntAttr@3:
  001a6	c6 45 e9 ec	 mov	 BYTE PTR __k$[ebp+1], -20 ; ffffffecH
  001aa	eb 04		 jmp	 SHORT $LN1@GetIntAttr@3
$LN96@GetIntAttr@3:
  001ac	c6 45 e8 ed	 mov	 BYTE PTR __k$[ebp], -19	; ffffffedH
$LN1@GetIntAttr@3:
  001b0	6a 03		 push	 3
  001b2	8d 45 e8	 lea	 eax, DWORD PTR __k$[ebp]
  001b5	c6 45 f7 00	 mov	 BYTE PTR __k$[ebp+15], 0
  001b9	5a		 pop	 edx
$LL104@GetIntAttr@3:
  001ba	81 30 ed ec eb
	ea		 xor	 DWORD PTR [eax], -353637139 ; eaebecedH
  001c0	83 c0 04	 add	 eax, 4
  001c3	4a		 dec	 edx
  001c4	75 f4		 jne	 SHORT $LL104@GetIntAttr@3
  001c6	6a 0c		 push	 12			; 0000000cH
  001c8	58		 pop	 eax
$LL101@GetIntAttr@3:
  001c9	8b c8		 mov	 ecx, eax
  001cb	81 e1 03 00 00
	80		 and	 ecx, -2147483645	; 80000003H
  001d1	79 05		 jns	 SHORT $LN111@GetIntAttr@3
  001d3	49		 dec	 ecx
  001d4	83 c9 fc	 or	 ecx, -4			; fffffffcH
  001d7	41		 inc	 ecx
$LN111@GetIntAttr@3:
  001d8	b2 ed		 mov	 dl, -19			; ffffffedH
  001da	2a d1		 sub	 dl, cl
  001dc	30 54 05 e8	 xor	 BYTE PTR __k$[ebp+eax], dl
  001e0	40		 inc	 eax
  001e1	83 f8 0f	 cmp	 eax, 15			; 0000000fH
  001e4	7c e3		 jl	 SHORT $LL101@GetIntAttr@3

; 88   : 		return GetIntAttribute(_k);

  001e6	8d 45 e8	 lea	 eax, DWORD PTR __k$[ebp]
  001e9	50		 push	 eax
  001ea	8b ce		 mov	 ecx, esi
  001ec	ff 15 00 00 00
	00		 call	 DWORD PTR __imp_?GetIntAttribute@ioXMLElement@@QBEHPBD@Z

; 89   : 	}

  001f2	8b 4d fc	 mov	 ecx, DWORD PTR __$ArrayPad$[ebp]
  001f5	33 cd		 xor	 ecx, ebp
  001f7	5e		 pop	 esi
  001f8	e8 00 00 00 00	 call	 @__security_check_cookie@4
  001fd	c9		 leave
  001fe	c2 04 00	 ret	 4
??$GetIntAttribute_e@$0BA@@ioXMLElement@@QBEHAAY0BA@$$CBD@Z ENDP ; ioXMLElement::GetIntAttribute_e<16>
_TEXT	ENDS
PUBLIC	__$ArrayPad$
PUBLIC	??$GetStringAttribute_e@$0O@@ioXMLElement@@QBEPBDAAY0O@$$CBD@Z ; ioXMLElement::GetStringAttribute_e<14>
EXTRN	__imp_?GetStringAttribute@ioXMLElement@@QBEPBDPBD@Z:PROC
; Function compile flags: /Ogsp
;	COMDAT ??$GetStringAttribute_e@$0O@@ioXMLElement@@QBEPBDAAY0O@$$CBD@Z
_TEXT	SEGMENT
__k$ = -24						; size = 14
__$ArrayPad$ = -4					; size = 4
_k$ = 8							; size = 4
??$GetStringAttribute_e@$0O@@ioXMLElement@@QBEPBDAAY0O@$$CBD@Z PROC ; ioXMLElement::GetStringAttribute_e<14>, COMDAT
; _this$ = ecx

; 107  : 	{

  00000	55		 push	 ebp
  00001	8b ec		 mov	 ebp, esp
  00003	83 ec 18	 sub	 esp, 24			; 00000018H
  00006	a1 00 00 00 00	 mov	 eax, DWORD PTR ___security_cookie
  0000b	33 c5		 xor	 eax, ebp
  0000d	89 45 fc	 mov	 DWORD PTR __$ArrayPad$[ebp], eax
  00010	8b 45 08	 mov	 eax, DWORD PTR _k$[ebp]

; 108  : 		_ENCSTR(k, _k);

  00013	8a 10		 mov	 dl, BYTE PTR [eax]
  00015	56		 push	 esi
  00016	8b f1		 mov	 esi, ecx
  00018	84 d2		 test	 dl, dl
  0001a	0f 84 64 01 00
	00		 je	 $LN96@GetStringA
  00020	80 f2 ed	 xor	 dl, -19			; ffffffedH
  00023	88 55 e8	 mov	 BYTE PTR __k$[ebp], dl
  00026	8a 50 01	 mov	 dl, BYTE PTR [eax+1]
  00029	84 d2		 test	 dl, dl
  0002b	0f 84 4d 01 00
	00		 je	 $LN95@GetStringA
  00031	80 f2 ec	 xor	 dl, -20			; ffffffecH
  00034	88 55 e9	 mov	 BYTE PTR __k$[ebp+1], dl
  00037	8a 50 02	 mov	 dl, BYTE PTR [eax+2]
  0003a	84 d2		 test	 dl, dl
  0003c	0f 84 36 01 00
	00		 je	 $LN94@GetStringA
  00042	b1 eb		 mov	 cl, -21			; ffffffebH
  00044	32 d1		 xor	 dl, cl
  00046	88 55 ea	 mov	 BYTE PTR __k$[ebp+2], dl
  00049	8a 50 03	 mov	 dl, BYTE PTR [eax+3]
  0004c	84 d2		 test	 dl, dl
  0004e	0f 84 1e 01 00
	00		 je	 $LN93@GetStringA
  00054	80 f2 ea	 xor	 dl, -22			; ffffffeaH
  00057	88 55 eb	 mov	 BYTE PTR __k$[ebp+3], dl
  0005a	8a 50 04	 mov	 dl, BYTE PTR [eax+4]
  0005d	84 d2		 test	 dl, dl
  0005f	0f 84 07 01 00
	00		 je	 $LN92@GetStringA
  00065	80 f2 ed	 xor	 dl, -19			; ffffffedH
  00068	88 55 ec	 mov	 BYTE PTR __k$[ebp+4], dl
  0006b	8a 50 05	 mov	 dl, BYTE PTR [eax+5]
  0006e	84 d2		 test	 dl, dl
  00070	0f 84 f0 00 00
	00		 je	 $LN91@GetStringA
  00076	80 f2 ec	 xor	 dl, -20			; ffffffecH
  00079	88 55 ed	 mov	 BYTE PTR __k$[ebp+5], dl
  0007c	8a 50 06	 mov	 dl, BYTE PTR [eax+6]
  0007f	84 d2		 test	 dl, dl
  00081	0f 84 da 00 00
	00		 je	 $LN90@GetStringA
  00087	32 d1		 xor	 dl, cl
  00089	88 55 ee	 mov	 BYTE PTR __k$[ebp+6], dl
  0008c	8a 50 07	 mov	 dl, BYTE PTR [eax+7]
  0008f	84 d2		 test	 dl, dl
  00091	0f 84 c4 00 00
	00		 je	 $LN89@GetStringA
  00097	80 f2 ea	 xor	 dl, -22			; ffffffeaH
  0009a	88 55 ef	 mov	 BYTE PTR __k$[ebp+7], dl
  0009d	8a 50 08	 mov	 dl, BYTE PTR [eax+8]
  000a0	84 d2		 test	 dl, dl
  000a2	0f 84 ad 00 00
	00		 je	 $LN88@GetStringA
  000a8	80 f2 ed	 xor	 dl, -19			; ffffffedH
  000ab	88 55 f0	 mov	 BYTE PTR __k$[ebp+8], dl
  000ae	8a 50 09	 mov	 dl, BYTE PTR [eax+9]
  000b1	84 d2		 test	 dl, dl
  000b3	0f 84 96 00 00
	00		 je	 $LN87@GetStringA
  000b9	80 f2 ec	 xor	 dl, -20			; ffffffecH
  000bc	88 55 f1	 mov	 BYTE PTR __k$[ebp+9], dl
  000bf	8a 50 0a	 mov	 dl, BYTE PTR [eax+10]
  000c2	84 d2		 test	 dl, dl
  000c4	0f 84 80 00 00
	00		 je	 $LN86@GetStringA
  000ca	32 d1		 xor	 dl, cl
  000cc	88 55 f2	 mov	 BYTE PTR __k$[ebp+10], dl
  000cf	8a 50 0b	 mov	 dl, BYTE PTR [eax+11]
  000d2	84 d2		 test	 dl, dl
  000d4	74 6e		 je	 SHORT $LN85@GetStringA
  000d6	80 f2 ea	 xor	 dl, -22			; ffffffeaH
  000d9	88 55 f3	 mov	 BYTE PTR __k$[ebp+11], dl
  000dc	8a 50 0c	 mov	 dl, BYTE PTR [eax+12]
  000df	84 d2		 test	 dl, dl
  000e1	74 5b		 je	 SHORT $LN84@GetStringA
  000e3	80 f2 ed	 xor	 dl, -19			; ffffffedH
  000e6	80 78 0d 00	 cmp	 BYTE PTR [eax+13], 0
  000ea	88 55 f4	 mov	 BYTE PTR __k$[ebp+12], dl
  000ed	0f 84 95 00 00
	00		 je	 $LN1@GetStringA
  000f3	8a 50 0e	 mov	 dl, BYTE PTR [eax+14]
  000f6	84 d2		 test	 dl, dl
  000f8	74 3f		 je	 SHORT $LN82@GetStringA
  000fa	32 d1		 xor	 dl, cl
  000fc	88 55 f6	 mov	 BYTE PTR __k$[ebp+14], dl
  000ff	8a 50 0f	 mov	 dl, BYTE PTR [eax+15]
  00102	84 d2		 test	 dl, dl
  00104	74 2d		 je	 SHORT $LN81@GetStringA
  00106	80 f2 ea	 xor	 dl, -22			; ffffffeaH
  00109	88 55 f7	 mov	 BYTE PTR __k$[ebp+15], dl
  0010c	8a 50 10	 mov	 dl, BYTE PTR [eax+16]
  0010f	84 d2		 test	 dl, dl
  00111	74 1a		 je	 SHORT $LN80@GetStringA
  00113	8a 40 11	 mov	 al, BYTE PTR [eax+17]
  00116	80 f2 ed	 xor	 dl, -19			; ffffffedH
  00119	88 55 f8	 mov	 BYTE PTR __k$[ebp+16], dl
  0011c	84 c0		 test	 al, al
  0011e	74 07		 je	 SHORT $LN79@GetStringA
  00120	34 ec		 xor	 al, -20			; ffffffecH
  00122	88 45 f9	 mov	 BYTE PTR __k$[ebp+17], al
  00125	eb 61		 jmp	 SHORT $LN1@GetStringA
$LN79@GetStringA:
  00127	c6 45 f9 ec	 mov	 BYTE PTR __k$[ebp+17], -20 ; ffffffecH
  0012b	eb 5b		 jmp	 SHORT $LN1@GetStringA
$LN80@GetStringA:
  0012d	c6 45 f8 ed	 mov	 BYTE PTR __k$[ebp+16], -19 ; ffffffedH
  00131	eb 55		 jmp	 SHORT $LN1@GetStringA
$LN81@GetStringA:
  00133	c6 45 f7 ea	 mov	 BYTE PTR __k$[ebp+15], -22 ; ffffffeaH
  00137	eb 4f		 jmp	 SHORT $LN1@GetStringA
$LN82@GetStringA:
  00139	88 4d f6	 mov	 BYTE PTR __k$[ebp+14], cl
  0013c	eb 4a		 jmp	 SHORT $LN1@GetStringA
$LN84@GetStringA:
  0013e	c6 45 f4 ed	 mov	 BYTE PTR __k$[ebp+12], -19 ; ffffffedH
  00142	eb 44		 jmp	 SHORT $LN1@GetStringA
$LN85@GetStringA:
  00144	c6 45 f3 ea	 mov	 BYTE PTR __k$[ebp+11], -22 ; ffffffeaH
  00148	eb 3e		 jmp	 SHORT $LN1@GetStringA
$LN86@GetStringA:
  0014a	88 4d f2	 mov	 BYTE PTR __k$[ebp+10], cl
  0014d	eb 39		 jmp	 SHORT $LN1@GetStringA
$LN87@GetStringA:
  0014f	c6 45 f1 ec	 mov	 BYTE PTR __k$[ebp+9], -20 ; ffffffecH
  00153	eb 33		 jmp	 SHORT $LN1@GetStringA
$LN88@GetStringA:
  00155	c6 45 f0 ed	 mov	 BYTE PTR __k$[ebp+8], -19 ; ffffffedH
  00159	eb 2d		 jmp	 SHORT $LN1@GetStringA
$LN89@GetStringA:
  0015b	c6 45 ef ea	 mov	 BYTE PTR __k$[ebp+7], -22 ; ffffffeaH
  0015f	eb 27		 jmp	 SHORT $LN1@GetStringA
$LN90@GetStringA:
  00161	88 4d ee	 mov	 BYTE PTR __k$[ebp+6], cl
  00164	eb 22		 jmp	 SHORT $LN1@GetStringA
$LN91@GetStringA:
  00166	c6 45 ed ec	 mov	 BYTE PTR __k$[ebp+5], -20 ; ffffffecH
  0016a	eb 1c		 jmp	 SHORT $LN1@GetStringA
$LN92@GetStringA:
  0016c	c6 45 ec ed	 mov	 BYTE PTR __k$[ebp+4], -19 ; ffffffedH
  00170	eb 16		 jmp	 SHORT $LN1@GetStringA
$LN93@GetStringA:
  00172	c6 45 eb ea	 mov	 BYTE PTR __k$[ebp+3], -22 ; ffffffeaH
  00176	eb 10		 jmp	 SHORT $LN1@GetStringA
$LN94@GetStringA:
  00178	c6 45 ea eb	 mov	 BYTE PTR __k$[ebp+2], -21 ; ffffffebH
  0017c	eb 0a		 jmp	 SHORT $LN1@GetStringA
$LN95@GetStringA:
  0017e	c6 45 e9 ec	 mov	 BYTE PTR __k$[ebp+1], -20 ; ffffffecH
  00182	eb 04		 jmp	 SHORT $LN1@GetStringA
$LN96@GetStringA:
  00184	c6 45 e8 ed	 mov	 BYTE PTR __k$[ebp], -19	; ffffffedH
$LN1@GetStringA:
  00188	6a 03		 push	 3
  0018a	8d 45 e8	 lea	 eax, DWORD PTR __k$[ebp]
  0018d	c6 45 f5 00	 mov	 BYTE PTR __k$[ebp+13], 0
  00191	5a		 pop	 edx
$LL104@GetStringA:
  00192	81 30 ed ec eb
	ea		 xor	 DWORD PTR [eax], -353637139 ; eaebecedH
  00198	83 c0 04	 add	 eax, 4
  0019b	4a		 dec	 edx
  0019c	75 f4		 jne	 SHORT $LL104@GetStringA
  0019e	80 75 f4 ed	 xor	 BYTE PTR __k$[ebp+12], -19 ; ffffffedH

; 109  : 		return GetStringAttribute(_k);

  001a2	8d 45 e8	 lea	 eax, DWORD PTR __k$[ebp]
  001a5	50		 push	 eax
  001a6	8b ce		 mov	 ecx, esi
  001a8	ff 15 00 00 00
	00		 call	 DWORD PTR __imp_?GetStringAttribute@ioXMLElement@@QBEPBDPBD@Z

; 110  : 	}

  001ae	8b 4d fc	 mov	 ecx, DWORD PTR __$ArrayPad$[ebp]
  001b1	33 cd		 xor	 ecx, ebp
  001b3	5e		 pop	 esi
  001b4	e8 00 00 00 00	 call	 @__security_check_cookie@4
  001b9	c9		 leave
  001ba	c2 04 00	 ret	 4
??$GetStringAttribute_e@$0O@@ioXMLElement@@QBEPBDAAY0O@$$CBD@Z ENDP ; ioXMLElement::GetStringAttribute_e<14>
_TEXT	ENDS
PUBLIC	__$ArrayPad$
PUBLIC	??$GetStringAttribute_e@$0N@@ioXMLElement@@QBEPBDAAY0N@$$CBD@Z ; ioXMLElement::GetStringAttribute_e<13>
; Function compile flags: /Ogsp
;	COMDAT ??$GetStringAttribute_e@$0N@@ioXMLElement@@QBEPBDAAY0N@$$CBD@Z
_TEXT	SEGMENT
__k$ = -24						; size = 13
__$ArrayPad$ = -4					; size = 4
_k$ = 8							; size = 4
??$GetStringAttribute_e@$0N@@ioXMLElement@@QBEPBDAAY0N@$$CBD@Z PROC ; ioXMLElement::GetStringAttribute_e<13>, COMDAT
; _this$ = ecx

; 107  : 	{

  00000	55		 push	 ebp
  00001	8b ec		 mov	 ebp, esp
  00003	83 ec 18	 sub	 esp, 24			; 00000018H
  00006	a1 00 00 00 00	 mov	 eax, DWORD PTR ___security_cookie
  0000b	33 c5		 xor	 eax, ebp
  0000d	89 45 fc	 mov	 DWORD PTR __$ArrayPad$[ebp], eax
  00010	8b 45 08	 mov	 eax, DWORD PTR _k$[ebp]

; 108  : 		_ENCSTR(k, _k);

  00013	8a 10		 mov	 dl, BYTE PTR [eax]
  00015	56		 push	 esi
  00016	8b f1		 mov	 esi, ecx
  00018	84 d2		 test	 dl, dl
  0001a	0f 84 4d 01 00
	00		 je	 $LN96@GetStringA@2
  00020	80 f2 ed	 xor	 dl, -19			; ffffffedH
  00023	88 55 e8	 mov	 BYTE PTR __k$[ebp], dl
  00026	8a 50 01	 mov	 dl, BYTE PTR [eax+1]
  00029	84 d2		 test	 dl, dl
  0002b	0f 84 36 01 00
	00		 je	 $LN95@GetStringA@2
  00031	b1 ec		 mov	 cl, -20			; ffffffecH
  00033	32 d1		 xor	 dl, cl
  00035	88 55 e9	 mov	 BYTE PTR __k$[ebp+1], dl
  00038	8a 50 02	 mov	 dl, BYTE PTR [eax+2]
  0003b	84 d2		 test	 dl, dl
  0003d	0f 84 1e 01 00
	00		 je	 $LN94@GetStringA@2
  00043	80 f2 eb	 xor	 dl, -21			; ffffffebH
  00046	88 55 ea	 mov	 BYTE PTR __k$[ebp+2], dl
  00049	8a 50 03	 mov	 dl, BYTE PTR [eax+3]
  0004c	84 d2		 test	 dl, dl
  0004e	0f 84 07 01 00
	00		 je	 $LN93@GetStringA@2
  00054	80 f2 ea	 xor	 dl, -22			; ffffffeaH
  00057	88 55 eb	 mov	 BYTE PTR __k$[ebp+3], dl
  0005a	8a 50 04	 mov	 dl, BYTE PTR [eax+4]
  0005d	84 d2		 test	 dl, dl
  0005f	0f 84 f0 00 00
	00		 je	 $LN92@GetStringA@2
  00065	80 f2 ed	 xor	 dl, -19			; ffffffedH
  00068	88 55 ec	 mov	 BYTE PTR __k$[ebp+4], dl
  0006b	8a 50 05	 mov	 dl, BYTE PTR [eax+5]
  0006e	84 d2		 test	 dl, dl
  00070	0f 84 da 00 00
	00		 je	 $LN91@GetStringA@2
  00076	32 d1		 xor	 dl, cl
  00078	88 55 ed	 mov	 BYTE PTR __k$[ebp+5], dl
  0007b	8a 50 06	 mov	 dl, BYTE PTR [eax+6]
  0007e	84 d2		 test	 dl, dl
  00080	0f 84 c4 00 00
	00		 je	 $LN90@GetStringA@2
  00086	80 f2 eb	 xor	 dl, -21			; ffffffebH
  00089	88 55 ee	 mov	 BYTE PTR __k$[ebp+6], dl
  0008c	8a 50 07	 mov	 dl, BYTE PTR [eax+7]
  0008f	84 d2		 test	 dl, dl
  00091	0f 84 ad 00 00
	00		 je	 $LN89@GetStringA@2
  00097	80 f2 ea	 xor	 dl, -22			; ffffffeaH
  0009a	88 55 ef	 mov	 BYTE PTR __k$[ebp+7], dl
  0009d	8a 50 08	 mov	 dl, BYTE PTR [eax+8]
  000a0	84 d2		 test	 dl, dl
  000a2	0f 84 96 00 00
	00		 je	 $LN88@GetStringA@2
  000a8	80 f2 ed	 xor	 dl, -19			; ffffffedH
  000ab	88 55 f0	 mov	 BYTE PTR __k$[ebp+8], dl
  000ae	8a 50 09	 mov	 dl, BYTE PTR [eax+9]
  000b1	84 d2		 test	 dl, dl
  000b3	0f 84 80 00 00
	00		 je	 $LN87@GetStringA@2
  000b9	32 d1		 xor	 dl, cl
  000bb	88 55 f1	 mov	 BYTE PTR __k$[ebp+9], dl
  000be	8a 50 0a	 mov	 dl, BYTE PTR [eax+10]
  000c1	84 d2		 test	 dl, dl
  000c3	74 6e		 je	 SHORT $LN86@GetStringA@2
  000c5	80 f2 eb	 xor	 dl, -21			; ffffffebH
  000c8	88 55 f2	 mov	 BYTE PTR __k$[ebp+10], dl
  000cb	8a 50 0b	 mov	 dl, BYTE PTR [eax+11]
  000ce	84 d2		 test	 dl, dl
  000d0	74 5b		 je	 SHORT $LN85@GetStringA@2
  000d2	80 f2 ea	 xor	 dl, -22			; ffffffeaH
  000d5	80 78 0c 00	 cmp	 BYTE PTR [eax+12], 0
  000d9	88 55 f3	 mov	 BYTE PTR __k$[ebp+11], dl
  000dc	0f 84 8f 00 00
	00		 je	 $LN1@GetStringA@2
  000e2	8a 50 0d	 mov	 dl, BYTE PTR [eax+13]
  000e5	84 d2		 test	 dl, dl
  000e7	74 3f		 je	 SHORT $LN83@GetStringA@2
  000e9	32 d1		 xor	 dl, cl
  000eb	88 55 f5	 mov	 BYTE PTR __k$[ebp+13], dl
  000ee	8a 50 0e	 mov	 dl, BYTE PTR [eax+14]
  000f1	84 d2		 test	 dl, dl
  000f3	74 2d		 je	 SHORT $LN82@GetStringA@2
  000f5	80 f2 eb	 xor	 dl, -21			; ffffffebH
  000f8	88 55 f6	 mov	 BYTE PTR __k$[ebp+14], dl
  000fb	8a 50 0f	 mov	 dl, BYTE PTR [eax+15]
  000fe	84 d2		 test	 dl, dl
  00100	74 1a		 je	 SHORT $LN81@GetStringA@2
  00102	8a 40 10	 mov	 al, BYTE PTR [eax+16]
  00105	80 f2 ea	 xor	 dl, -22			; ffffffeaH
  00108	88 55 f7	 mov	 BYTE PTR __k$[ebp+15], dl
  0010b	84 c0		 test	 al, al
  0010d	74 07		 je	 SHORT $LN80@GetStringA@2
  0010f	34 ed		 xor	 al, -19			; ffffffedH
  00111	88 45 f8	 mov	 BYTE PTR __k$[ebp+16], al
  00114	eb 5b		 jmp	 SHORT $LN1@GetStringA@2
$LN80@GetStringA@2:
  00116	c6 45 f8 ed	 mov	 BYTE PTR __k$[ebp+16], -19 ; ffffffedH
  0011a	eb 55		 jmp	 SHORT $LN1@GetStringA@2
$LN81@GetStringA@2:
  0011c	c6 45 f7 ea	 mov	 BYTE PTR __k$[ebp+15], -22 ; ffffffeaH
  00120	eb 4f		 jmp	 SHORT $LN1@GetStringA@2
$LN82@GetStringA@2:
  00122	c6 45 f6 eb	 mov	 BYTE PTR __k$[ebp+14], -21 ; ffffffebH
  00126	eb 49		 jmp	 SHORT $LN1@GetStringA@2
$LN83@GetStringA@2:
  00128	88 4d f5	 mov	 BYTE PTR __k$[ebp+13], cl
  0012b	eb 44		 jmp	 SHORT $LN1@GetStringA@2
$LN85@GetStringA@2:
  0012d	c6 45 f3 ea	 mov	 BYTE PTR __k$[ebp+11], -22 ; ffffffeaH
  00131	eb 3e		 jmp	 SHORT $LN1@GetStringA@2
$LN86@GetStringA@2:
  00133	c6 45 f2 eb	 mov	 BYTE PTR __k$[ebp+10], -21 ; ffffffebH
  00137	eb 38		 jmp	 SHORT $LN1@GetStringA@2
$LN87@GetStringA@2:
  00139	88 4d f1	 mov	 BYTE PTR __k$[ebp+9], cl
  0013c	eb 33		 jmp	 SHORT $LN1@GetStringA@2
$LN88@GetStringA@2:
  0013e	c6 45 f0 ed	 mov	 BYTE PTR __k$[ebp+8], -19 ; ffffffedH
  00142	eb 2d		 jmp	 SHORT $LN1@GetStringA@2
$LN89@GetStringA@2:
  00144	c6 45 ef ea	 mov	 BYTE PTR __k$[ebp+7], -22 ; ffffffeaH
  00148	eb 27		 jmp	 SHORT $LN1@GetStringA@2
$LN90@GetStringA@2:
  0014a	c6 45 ee eb	 mov	 BYTE PTR __k$[ebp+6], -21 ; ffffffebH
  0014e	eb 21		 jmp	 SHORT $LN1@GetStringA@2
$LN91@GetStringA@2:
  00150	88 4d ed	 mov	 BYTE PTR __k$[ebp+5], cl
  00153	eb 1c		 jmp	 SHORT $LN1@GetStringA@2
$LN92@GetStringA@2:
  00155	c6 45 ec ed	 mov	 BYTE PTR __k$[ebp+4], -19 ; ffffffedH
  00159	eb 16		 jmp	 SHORT $LN1@GetStringA@2
$LN93@GetStringA@2:
  0015b	c6 45 eb ea	 mov	 BYTE PTR __k$[ebp+3], -22 ; ffffffeaH
  0015f	eb 10		 jmp	 SHORT $LN1@GetStringA@2
$LN94@GetStringA@2:
  00161	c6 45 ea eb	 mov	 BYTE PTR __k$[ebp+2], -21 ; ffffffebH
  00165	eb 0a		 jmp	 SHORT $LN1@GetStringA@2
$LN95@GetStringA@2:
  00167	c6 45 e9 ec	 mov	 BYTE PTR __k$[ebp+1], -20 ; ffffffecH
  0016b	eb 04		 jmp	 SHORT $LN1@GetStringA@2
$LN96@GetStringA@2:
  0016d	c6 45 e8 ed	 mov	 BYTE PTR __k$[ebp], -19	; ffffffedH
$LN1@GetStringA@2:
  00171	6a 03		 push	 3
  00173	8d 45 e8	 lea	 eax, DWORD PTR __k$[ebp]
  00176	c6 45 f4 00	 mov	 BYTE PTR __k$[ebp+12], 0
  0017a	5a		 pop	 edx
$LL104@GetStringA@2:
  0017b	81 30 ed ec eb
	ea		 xor	 DWORD PTR [eax], -353637139 ; eaebecedH
  00181	83 c0 04	 add	 eax, 4
  00184	4a		 dec	 edx
  00185	75 f4		 jne	 SHORT $LL104@GetStringA@2

; 109  : 		return GetStringAttribute(_k);

  00187	8d 45 e8	 lea	 eax, DWORD PTR __k$[ebp]
  0018a	50		 push	 eax
  0018b	8b ce		 mov	 ecx, esi
  0018d	ff 15 00 00 00
	00		 call	 DWORD PTR __imp_?GetStringAttribute@ioXMLElement@@QBEPBDPBD@Z

; 110  : 	}

  00193	8b 4d fc	 mov	 ecx, DWORD PTR __$ArrayPad$[ebp]
  00196	33 cd		 xor	 ecx, ebp
  00198	5e		 pop	 esi
  00199	e8 00 00 00 00	 call	 @__security_check_cookie@4
  0019e	c9		 leave
  0019f	c2 04 00	 ret	 4
??$GetStringAttribute_e@$0N@@ioXMLElement@@QBEPBDAAY0N@$$CBD@Z ENDP ; ioXMLElement::GetStringAttribute_e<13>
_TEXT	ENDS
PUBLIC	??$?8$00@ioHashString@@QAE_NAAY00$$CBD@Z	; ioHashString::operator==<1>
; Function compile flags: /Ogsp
; File d:\lost saga for developer\youtube\tutorial\source\src\io3dengine\iohashstring.h
;	COMDAT ??$?8$00@ioHashString@@QAE_NAAY00$$CBD@Z
_TEXT	SEGMENT
__t$ = -5						; size = 1
_t$ = 8							; size = 4
??$?8$00@ioHashString@@QAE_NAAY00$$CBD@Z PROC		; ioHashString::operator==<1>, COMDAT
; _this$ = ecx

; 127  : 	{

  00000	55		 push	 ebp
  00001	8b ec		 mov	 ebp, esp
  00003	51		 push	 ecx
  00004	51		 push	 ecx

; 128  : 		_ENCSTR(t, _t); return ( strcmp( m_pString, _t ) == 0 );

  00005	8b 45 08	 mov	 eax, DWORD PTR _t$[ebp]
  00008	80 38 00	 cmp	 BYTE PTR [eax], 0
  0000b	74 4b		 je	 SHORT $LN2@operator@7
  0000d	8a 50 01	 mov	 dl, BYTE PTR [eax+1]
  00010	84 d2		 test	 dl, dl
  00012	74 40		 je	 SHORT $LN95@operator@7
  00014	80 f2 ec	 xor	 dl, -20			; ffffffecH
  00017	88 55 fc	 mov	 BYTE PTR __t$[ebp+1], dl
  0001a	8a 50 02	 mov	 dl, BYTE PTR [eax+2]
  0001d	84 d2		 test	 dl, dl
  0001f	74 2d		 je	 SHORT $LN94@operator@7
  00021	80 f2 eb	 xor	 dl, -21			; ffffffebH
  00024	88 55 fd	 mov	 BYTE PTR __t$[ebp+2], dl
  00027	8a 50 03	 mov	 dl, BYTE PTR [eax+3]
  0002a	84 d2		 test	 dl, dl
  0002c	74 1a		 je	 SHORT $LN93@operator@7
  0002e	8a 40 04	 mov	 al, BYTE PTR [eax+4]
  00031	80 f2 ea	 xor	 dl, -22			; ffffffeaH
  00034	88 55 fe	 mov	 BYTE PTR __t$[ebp+3], dl
  00037	84 c0		 test	 al, al
  00039	74 07		 je	 SHORT $LN92@operator@7
  0003b	34 ed		 xor	 al, -19			; ffffffedH
  0003d	88 45 ff	 mov	 BYTE PTR __t$[ebp+4], al
  00040	eb 16		 jmp	 SHORT $LN2@operator@7
$LN92@operator@7:
  00042	c6 45 ff ed	 mov	 BYTE PTR __t$[ebp+4], -19 ; ffffffedH
  00046	eb 10		 jmp	 SHORT $LN2@operator@7
$LN93@operator@7:
  00048	c6 45 fe ea	 mov	 BYTE PTR __t$[ebp+3], -22 ; ffffffeaH
  0004c	eb 0a		 jmp	 SHORT $LN2@operator@7
$LN94@operator@7:
  0004e	c6 45 fd eb	 mov	 BYTE PTR __t$[ebp+2], -21 ; ffffffebH
  00052	eb 04		 jmp	 SHORT $LN2@operator@7
$LN95@operator@7:
  00054	c6 45 fc ec	 mov	 BYTE PTR __t$[ebp+1], -20 ; ffffffecH
$LN2@operator@7:
  00058	8b 01		 mov	 eax, DWORD PTR [ecx]
  0005a	c6 45 fb 00	 mov	 BYTE PTR __t$[ebp], 0
  0005e	8d 55 fb	 lea	 edx, DWORD PTR __t$[ebp]
$LL111@operator@7:
  00061	8a 08		 mov	 cl, BYTE PTR [eax]
  00063	3a 0a		 cmp	 cl, BYTE PTR [edx]
  00065	75 1a		 jne	 SHORT $LN112@operator@7
  00067	84 c9		 test	 cl, cl
  00069	74 12		 je	 SHORT $LN113@operator@7
  0006b	8a 48 01	 mov	 cl, BYTE PTR [eax+1]
  0006e	3a 4a 01	 cmp	 cl, BYTE PTR [edx+1]
  00071	75 0e		 jne	 SHORT $LN112@operator@7
  00073	83 c0 02	 add	 eax, 2
  00076	83 c2 02	 add	 edx, 2
  00079	84 c9		 test	 cl, cl
  0007b	75 e4		 jne	 SHORT $LL111@operator@7
$LN113@operator@7:
  0007d	33 c0		 xor	 eax, eax
  0007f	eb 05		 jmp	 SHORT $LN114@operator@7
$LN112@operator@7:
  00081	1b c0		 sbb	 eax, eax
  00083	83 d8 ff	 sbb	 eax, -1
$LN114@operator@7:
  00086	33 c9		 xor	 ecx, ecx
  00088	85 c0		 test	 eax, eax
  0008a	0f 94 c0	 sete	 al

; 129  : 	}

  0008d	c9		 leave
  0008e	c2 04 00	 ret	 4
??$?8$00@ioHashString@@QAE_NAAY00$$CBD@Z ENDP		; ioHashString::operator==<1>
_TEXT	ENDS
PUBLIC	__$ArrayPad$
PUBLIC	??$GetIntAttribute_e@$0P@@ioXMLElement@@QBEHAAY0P@$$CBD@Z ; ioXMLElement::GetIntAttribute_e<15>
; Function compile flags: /Ogsp
; File d:\lost saga for developer\youtube\tutorial\source\src\io3dengine\ioxmlelement.h
;	COMDAT ??$GetIntAttribute_e@$0P@@ioXMLElement@@QBEHAAY0P@$$CBD@Z
_TEXT	SEGMENT
__k$ = -24						; size = 15
__$ArrayPad$ = -4					; size = 4
_k$ = 8							; size = 4
??$GetIntAttribute_e@$0P@@ioXMLElement@@QBEHAAY0P@$$CBD@Z PROC ; ioXMLElement::GetIntAttribute_e<15>, COMDAT
; _this$ = ecx

; 86   : 	{

  00000	55		 push	 ebp
  00001	8b ec		 mov	 ebp, esp
  00003	83 ec 18	 sub	 esp, 24			; 00000018H
  00006	a1 00 00 00 00	 mov	 eax, DWORD PTR ___security_cookie
  0000b	33 c5		 xor	 eax, ebp
  0000d	89 45 fc	 mov	 DWORD PTR __$ArrayPad$[ebp], eax
  00010	8b 45 08	 mov	 eax, DWORD PTR _k$[ebp]

; 87   : 		_ENCSTR(k, _k);

  00013	8a 10		 mov	 dl, BYTE PTR [eax]
  00015	56		 push	 esi
  00016	8b f1		 mov	 esi, ecx
  00018	84 d2		 test	 dl, dl
  0001a	0f 84 75 01 00
	00		 je	 $LN96@GetIntAttr@4
  00020	80 f2 ed	 xor	 dl, -19			; ffffffedH
  00023	88 55 e8	 mov	 BYTE PTR __k$[ebp], dl
  00026	8a 50 01	 mov	 dl, BYTE PTR [eax+1]
  00029	84 d2		 test	 dl, dl
  0002b	0f 84 5e 01 00
	00		 je	 $LN95@GetIntAttr@4
  00031	b1 ec		 mov	 cl, -20			; ffffffecH
  00033	32 d1		 xor	 dl, cl
  00035	88 55 e9	 mov	 BYTE PTR __k$[ebp+1], dl
  00038	8a 50 02	 mov	 dl, BYTE PTR [eax+2]
  0003b	84 d2		 test	 dl, dl
  0003d	0f 84 46 01 00
	00		 je	 $LN94@GetIntAttr@4
  00043	80 f2 eb	 xor	 dl, -21			; ffffffebH
  00046	88 55 ea	 mov	 BYTE PTR __k$[ebp+2], dl
  00049	8a 50 03	 mov	 dl, BYTE PTR [eax+3]
  0004c	84 d2		 test	 dl, dl
  0004e	0f 84 2f 01 00
	00		 je	 $LN93@GetIntAttr@4
  00054	80 f2 ea	 xor	 dl, -22			; ffffffeaH
  00057	88 55 eb	 mov	 BYTE PTR __k$[ebp+3], dl
  0005a	8a 50 04	 mov	 dl, BYTE PTR [eax+4]
  0005d	84 d2		 test	 dl, dl
  0005f	0f 84 18 01 00
	00		 je	 $LN92@GetIntAttr@4
  00065	80 f2 ed	 xor	 dl, -19			; ffffffedH
  00068	88 55 ec	 mov	 BYTE PTR __k$[ebp+4], dl
  0006b	8a 50 05	 mov	 dl, BYTE PTR [eax+5]
  0006e	84 d2		 test	 dl, dl
  00070	0f 84 02 01 00
	00		 je	 $LN91@GetIntAttr@4
  00076	32 d1		 xor	 dl, cl
  00078	88 55 ed	 mov	 BYTE PTR __k$[ebp+5], dl
  0007b	8a 50 06	 mov	 dl, BYTE PTR [eax+6]
  0007e	84 d2		 test	 dl, dl
  00080	0f 84 ec 00 00
	00		 je	 $LN90@GetIntAttr@4
  00086	80 f2 eb	 xor	 dl, -21			; ffffffebH
  00089	88 55 ee	 mov	 BYTE PTR __k$[ebp+6], dl
  0008c	8a 50 07	 mov	 dl, BYTE PTR [eax+7]
  0008f	84 d2		 test	 dl, dl
  00091	0f 84 d5 00 00
	00		 je	 $LN89@GetIntAttr@4
  00097	80 f2 ea	 xor	 dl, -22			; ffffffeaH
  0009a	88 55 ef	 mov	 BYTE PTR __k$[ebp+7], dl
  0009d	8a 50 08	 mov	 dl, BYTE PTR [eax+8]
  000a0	84 d2		 test	 dl, dl
  000a2	0f 84 be 00 00
	00		 je	 $LN88@GetIntAttr@4
  000a8	80 f2 ed	 xor	 dl, -19			; ffffffedH
  000ab	88 55 f0	 mov	 BYTE PTR __k$[ebp+8], dl
  000ae	8a 50 09	 mov	 dl, BYTE PTR [eax+9]
  000b1	84 d2		 test	 dl, dl
  000b3	0f 84 a8 00 00
	00		 je	 $LN87@GetIntAttr@4
  000b9	32 d1		 xor	 dl, cl
  000bb	88 55 f1	 mov	 BYTE PTR __k$[ebp+9], dl
  000be	8a 50 0a	 mov	 dl, BYTE PTR [eax+10]
  000c1	84 d2		 test	 dl, dl
  000c3	0f 84 92 00 00
	00		 je	 $LN86@GetIntAttr@4
  000c9	80 f2 eb	 xor	 dl, -21			; ffffffebH
  000cc	88 55 f2	 mov	 BYTE PTR __k$[ebp+10], dl
  000cf	8a 50 0b	 mov	 dl, BYTE PTR [eax+11]
  000d2	84 d2		 test	 dl, dl
  000d4	74 7f		 je	 SHORT $LN85@GetIntAttr@4
  000d6	80 f2 ea	 xor	 dl, -22			; ffffffeaH
  000d9	88 55 f3	 mov	 BYTE PTR __k$[ebp+11], dl
  000dc	8a 50 0c	 mov	 dl, BYTE PTR [eax+12]
  000df	84 d2		 test	 dl, dl
  000e1	74 6c		 je	 SHORT $LN84@GetIntAttr@4
  000e3	80 f2 ed	 xor	 dl, -19			; ffffffedH
  000e6	88 55 f4	 mov	 BYTE PTR __k$[ebp+12], dl
  000e9	8a 50 0d	 mov	 dl, BYTE PTR [eax+13]
  000ec	84 d2		 test	 dl, dl
  000ee	74 5a		 je	 SHORT $LN83@GetIntAttr@4
  000f0	32 d1		 xor	 dl, cl
  000f2	80 78 0e 00	 cmp	 BYTE PTR [eax+14], 0
  000f6	88 55 f5	 mov	 BYTE PTR __k$[ebp+13], dl
  000f9	0f 84 9a 00 00
	00		 je	 $LN1@GetIntAttr@4
  000ff	8a 50 0f	 mov	 dl, BYTE PTR [eax+15]
  00102	84 d2		 test	 dl, dl
  00104	74 3e		 je	 SHORT $LN81@GetIntAttr@4
  00106	80 f2 ea	 xor	 dl, -22			; ffffffeaH
  00109	88 55 f7	 mov	 BYTE PTR __k$[ebp+15], dl
  0010c	8a 50 10	 mov	 dl, BYTE PTR [eax+16]
  0010f	84 d2		 test	 dl, dl
  00111	74 2b		 je	 SHORT $LN80@GetIntAttr@4
  00113	80 f2 ed	 xor	 dl, -19			; ffffffedH
  00116	88 55 f8	 mov	 BYTE PTR __k$[ebp+16], dl
  00119	8a 50 11	 mov	 dl, BYTE PTR [eax+17]
  0011c	84 d2		 test	 dl, dl
  0011e	74 19		 je	 SHORT $LN79@GetIntAttr@4
  00120	8a 40 12	 mov	 al, BYTE PTR [eax+18]
  00123	32 d1		 xor	 dl, cl
  00125	88 55 f9	 mov	 BYTE PTR __k$[ebp+17], dl
  00128	84 c0		 test	 al, al
  0012a	74 07		 je	 SHORT $LN78@GetIntAttr@4
  0012c	34 eb		 xor	 al, -21			; ffffffebH
  0012e	88 45 fa	 mov	 BYTE PTR __k$[ebp+18], al
  00131	eb 66		 jmp	 SHORT $LN1@GetIntAttr@4
$LN78@GetIntAttr@4:
  00133	c6 45 fa eb	 mov	 BYTE PTR __k$[ebp+18], -21 ; ffffffebH
  00137	eb 60		 jmp	 SHORT $LN1@GetIntAttr@4
$LN79@GetIntAttr@4:
  00139	88 4d f9	 mov	 BYTE PTR __k$[ebp+17], cl
  0013c	eb 5b		 jmp	 SHORT $LN1@GetIntAttr@4
$LN80@GetIntAttr@4:
  0013e	c6 45 f8 ed	 mov	 BYTE PTR __k$[ebp+16], -19 ; ffffffedH
  00142	eb 55		 jmp	 SHORT $LN1@GetIntAttr@4
$LN81@GetIntAttr@4:
  00144	c6 45 f7 ea	 mov	 BYTE PTR __k$[ebp+15], -22 ; ffffffeaH
  00148	eb 4f		 jmp	 SHORT $LN1@GetIntAttr@4
$LN83@GetIntAttr@4:
  0014a	88 4d f5	 mov	 BYTE PTR __k$[ebp+13], cl
  0014d	eb 4a		 jmp	 SHORT $LN1@GetIntAttr@4
$LN84@GetIntAttr@4:
  0014f	c6 45 f4 ed	 mov	 BYTE PTR __k$[ebp+12], -19 ; ffffffedH
  00153	eb 44		 jmp	 SHORT $LN1@GetIntAttr@4
$LN85@GetIntAttr@4:
  00155	c6 45 f3 ea	 mov	 BYTE PTR __k$[ebp+11], -22 ; ffffffeaH
  00159	eb 3e		 jmp	 SHORT $LN1@GetIntAttr@4
$LN86@GetIntAttr@4:
  0015b	c6 45 f2 eb	 mov	 BYTE PTR __k$[ebp+10], -21 ; ffffffebH
  0015f	eb 38		 jmp	 SHORT $LN1@GetIntAttr@4
$LN87@GetIntAttr@4:
  00161	88 4d f1	 mov	 BYTE PTR __k$[ebp+9], cl
  00164	eb 33		 jmp	 SHORT $LN1@GetIntAttr@4
$LN88@GetIntAttr@4:
  00166	c6 45 f0 ed	 mov	 BYTE PTR __k$[ebp+8], -19 ; ffffffedH
  0016a	eb 2d		 jmp	 SHORT $LN1@GetIntAttr@4
$LN89@GetIntAttr@4:
  0016c	c6 45 ef ea	 mov	 BYTE PTR __k$[ebp+7], -22 ; ffffffeaH
  00170	eb 27		 jmp	 SHORT $LN1@GetIntAttr@4
$LN90@GetIntAttr@4:
  00172	c6 45 ee eb	 mov	 BYTE PTR __k$[ebp+6], -21 ; ffffffebH
  00176	eb 21		 jmp	 SHORT $LN1@GetIntAttr@4
$LN91@GetIntAttr@4:
  00178	88 4d ed	 mov	 BYTE PTR __k$[ebp+5], cl
  0017b	eb 1c		 jmp	 SHORT $LN1@GetIntAttr@4
$LN92@GetIntAttr@4:
  0017d	c6 45 ec ed	 mov	 BYTE PTR __k$[ebp+4], -19 ; ffffffedH
  00181	eb 16		 jmp	 SHORT $LN1@GetIntAttr@4
$LN93@GetIntAttr@4:
  00183	c6 45 eb ea	 mov	 BYTE PTR __k$[ebp+3], -22 ; ffffffeaH
  00187	eb 10		 jmp	 SHORT $LN1@GetIntAttr@4
$LN94@GetIntAttr@4:
  00189	c6 45 ea eb	 mov	 BYTE PTR __k$[ebp+2], -21 ; ffffffebH
  0018d	eb 0a		 jmp	 SHORT $LN1@GetIntAttr@4
$LN95@GetIntAttr@4:
  0018f	c6 45 e9 ec	 mov	 BYTE PTR __k$[ebp+1], -20 ; ffffffecH
  00193	eb 04		 jmp	 SHORT $LN1@GetIntAttr@4
$LN96@GetIntAttr@4:
  00195	c6 45 e8 ed	 mov	 BYTE PTR __k$[ebp], -19	; ffffffedH
$LN1@GetIntAttr@4:
  00199	6a 03		 push	 3
  0019b	8d 45 e8	 lea	 eax, DWORD PTR __k$[ebp]
  0019e	c6 45 f6 00	 mov	 BYTE PTR __k$[ebp+14], 0
  001a2	5a		 pop	 edx
$LL104@GetIntAttr@4:
  001a3	81 30 ed ec eb
	ea		 xor	 DWORD PTR [eax], -353637139 ; eaebecedH
  001a9	83 c0 04	 add	 eax, 4
  001ac	4a		 dec	 edx
  001ad	75 f4		 jne	 SHORT $LL104@GetIntAttr@4
  001af	6a 0c		 push	 12			; 0000000cH
  001b1	58		 pop	 eax
$LL101@GetIntAttr@4:
  001b2	8b c8		 mov	 ecx, eax
  001b4	81 e1 03 00 00
	80		 and	 ecx, -2147483645	; 80000003H
  001ba	79 05		 jns	 SHORT $LN111@GetIntAttr@4
  001bc	49		 dec	 ecx
  001bd	83 c9 fc	 or	 ecx, -4			; fffffffcH
  001c0	41		 inc	 ecx
$LN111@GetIntAttr@4:
  001c1	b2 ed		 mov	 dl, -19			; ffffffedH
  001c3	2a d1		 sub	 dl, cl
  001c5	30 54 05 e8	 xor	 BYTE PTR __k$[ebp+eax], dl
  001c9	40		 inc	 eax
  001ca	83 f8 0e	 cmp	 eax, 14			; 0000000eH
  001cd	7c e3		 jl	 SHORT $LL101@GetIntAttr@4

; 88   : 		return GetIntAttribute(_k);

  001cf	8d 45 e8	 lea	 eax, DWORD PTR __k$[ebp]
  001d2	50		 push	 eax
  001d3	8b ce		 mov	 ecx, esi
  001d5	ff 15 00 00 00
	00		 call	 DWORD PTR __imp_?GetIntAttribute@ioXMLElement@@QBEHPBD@Z

; 89   : 	}

  001db	8b 4d fc	 mov	 ecx, DWORD PTR __$ArrayPad$[ebp]
  001de	33 cd		 xor	 ecx, ebp
  001e0	5e		 pop	 esi
  001e1	e8 00 00 00 00	 call	 @__security_check_cookie@4
  001e6	c9		 leave
  001e7	c2 04 00	 ret	 4
??$GetIntAttribute_e@$0P@@ioXMLElement@@QBEHAAY0P@$$CBD@Z ENDP ; ioXMLElement::GetIntAttribute_e<15>
_TEXT	ENDS
PUBLIC	??$_Move@PAIPAI@std@@YAPAIPAI00@Z		; std::_Move<unsigned int *,unsigned int *>
; Function compile flags: /Ogsp
; File c:\program files (x86)\microsoft visual studio 10.0\vc\include\xutility
;	COMDAT ??$_Move@PAIPAI@std@@YAPAIPAI00@Z
_TEXT	SEGMENT
__Cat$520789 = -4					; size = 1
__First$ = 8						; size = 4
__Last$ = 12						; size = 4
__Dest$ = 16						; size = 4
??$_Move@PAIPAI@std@@YAPAIPAI00@Z PROC			; std::_Move<unsigned int *,unsigned int *>, COMDAT

; 2533 : 	{	// move [_First, _Last) to [_Dest, ...), unchecked

  00000	55		 push	 ebp
  00001	8b ec		 mov	 ebp, esp
  00003	51		 push	 ecx

; 2534 : 	return (_Move(_First, _Last,
; 2535 : 		_Dest, _Ptr_cat(_First, _Dest)));

  00004	ff 75 fc	 push	 DWORD PTR __Cat$520789[ebp]
  00007	ff 75 10	 push	 DWORD PTR __Dest$[ebp]
  0000a	ff 75 0c	 push	 DWORD PTR __Last$[ebp]
  0000d	ff 75 08	 push	 DWORD PTR __First$[ebp]
  00010	e8 00 00 00 00	 call	 ??$_Move@PAIPAI@std@@YAPAIPAI00U_Scalar_ptr_iterator_tag@0@@Z ; std::_Move<unsigned int *,unsigned int *>
  00015	83 c4 10	 add	 esp, 16			; 00000010H

; 2536 : 	}

  00018	c9		 leave
  00019	c3		 ret	 0
??$_Move@PAIPAI@std@@YAPAIPAI00@Z ENDP			; std::_Move<unsigned int *,unsigned int *>
_TEXT	ENDS
PUBLIC	??$_Destroy_range@V?$allocator@I@std@@@std@@YAXPAI0AAV?$allocator@I@0@@Z ; std::_Destroy_range<std::allocator<unsigned int> >
; Function compile flags: /Ogsp
; File c:\program files (x86)\microsoft visual studio 10.0\vc\include\xmemory
;	COMDAT ??$_Destroy_range@V?$allocator@I@std@@@std@@YAXPAI0AAV?$allocator@I@0@@Z
_TEXT	SEGMENT
__First$ = 8						; size = 4
__Last$ = 12						; size = 4
__Al$ = 16						; size = 4
??$_Destroy_range@V?$allocator@I@std@@@std@@YAXPAI0AAV?$allocator@I@0@@Z PROC ; std::_Destroy_range<std::allocator<unsigned int> >, COMDAT

; 88   : 	_Destroy_range(_First, _Last, _Al, _Ptr_cat(_First, _Last));
; 89   : 	}

  00000	c3		 ret	 0
??$_Destroy_range@V?$allocator@I@std@@@std@@YAXPAI0AAV?$allocator@I@0@@Z ENDP ; std::_Destroy_range<std::allocator<unsigned int> >
_TEXT	ENDS
PUBLIC	??$fill@PAII@std@@YAXPAI0ABI@Z			; std::fill<unsigned int *,unsigned int>
; Function compile flags: /Ogsp
; File c:\program files (x86)\microsoft visual studio 10.0\vc\include\xutility
;	COMDAT ??$fill@PAII@std@@YAXPAI0ABI@Z
_TEXT	SEGMENT
__First$ = 8						; size = 4
__Last$ = 12						; size = 4
__Val$ = 16						; size = 4
??$fill@PAII@std@@YAXPAI0ABI@Z PROC			; std::fill<unsigned int *,unsigned int>, COMDAT

; 2713 : 	{	// copy _Val through [_First, _Last)

  00000	55		 push	 ebp
  00001	8b ec		 mov	 ebp, esp

; 2714 : 	_DEBUG_RANGE(_First, _Last);
; 2715 : 	_Fill(_Unchecked(_First), _Unchecked(_Last), _Val);

  00003	8b 45 08	 mov	 eax, DWORD PTR __First$[ebp]
  00006	eb 0a		 jmp	 SHORT $LN14@fill
$LL9@fill:
  00008	8b 4d 10	 mov	 ecx, DWORD PTR __Val$[ebp]
  0000b	8b 09		 mov	 ecx, DWORD PTR [ecx]
  0000d	89 08		 mov	 DWORD PTR [eax], ecx
  0000f	83 c0 04	 add	 eax, 4
$LN14@fill:
  00012	3b 45 0c	 cmp	 eax, DWORD PTR __Last$[ebp]
  00015	75 f1		 jne	 SHORT $LL9@fill

; 2716 : 	}

  00017	5d		 pop	 ebp
  00018	c3		 ret	 0
??$fill@PAII@std@@YAXPAI0ABI@Z ENDP			; std::fill<unsigned int *,unsigned int>
_TEXT	ENDS
PUBLIC	??$_Copy_backward@PAIPAI@std@@YAPAIPAI00@Z	; std::_Copy_backward<unsigned int *,unsigned int *>
; Function compile flags: /Ogsp
;	COMDAT ??$_Copy_backward@PAIPAI@std@@YAPAIPAI00@Z
_TEXT	SEGMENT
__Cat$520825 = -4					; size = 1
__First$ = 8						; size = 4
__Last$ = 12						; size = 4
__Dest$ = 16						; size = 4
??$_Copy_backward@PAIPAI@std@@YAPAIPAI00@Z PROC		; std::_Copy_backward<unsigned int *,unsigned int *>, COMDAT

; 2459 : 	{	// copy [_First, _Last) backwards to [..., _Dest), unchecked

  00000	55		 push	 ebp
  00001	8b ec		 mov	 ebp, esp
  00003	51		 push	 ecx

; 2460 : 	return (_Copy_backward(_First, _Last,
; 2461 : 		_Dest, _Ptr_cat(_First, _Dest)));

  00004	ff 75 fc	 push	 DWORD PTR __Cat$520825[ebp]
  00007	ff 75 10	 push	 DWORD PTR __Dest$[ebp]
  0000a	ff 75 0c	 push	 DWORD PTR __Last$[ebp]
  0000d	ff 75 08	 push	 DWORD PTR __First$[ebp]
  00010	e8 00 00 00 00	 call	 ??$_Copy_backward@PAIPAI@std@@YAPAIPAI00U_Scalar_ptr_iterator_tag@0@@Z ; std::_Copy_backward<unsigned int *,unsigned int *>
  00015	83 c4 10	 add	 esp, 16			; 00000010H

; 2462 : 	}

  00018	c9		 leave
  00019	c3		 ret	 0
??$_Copy_backward@PAIPAI@std@@YAPAIPAI00@Z ENDP		; std::_Copy_backward<unsigned int *,unsigned int *>
_TEXT	ENDS
PUBLIC	?construct@?$allocator@H@std@@QAEXPAHABH@Z	; std::allocator<int>::construct
; Function compile flags: /Ogsp
; File c:\program files (x86)\microsoft visual studio 10.0\vc\include\xmemory
;	COMDAT ?construct@?$allocator@H@std@@QAEXPAHABH@Z
_TEXT	SEGMENT
__Ptr$ = 8						; size = 4
__Val$ = 12						; size = 4
?construct@?$allocator@H@std@@QAEXPAHABH@Z PROC		; std::allocator<int>::construct, COMDAT
; _this$ = ecx

; 196  : 		{	// construct object at _Ptr with value _Val

  00000	55		 push	 ebp
  00001	8b ec		 mov	 ebp, esp

; 197  : 		_Construct(_Ptr, _Val);

  00003	8b 45 08	 mov	 eax, DWORD PTR __Ptr$[ebp]
  00006	85 c0		 test	 eax, eax
  00008	74 07		 je	 SHORT $LN5@construct
  0000a	8b 4d 0c	 mov	 ecx, DWORD PTR __Val$[ebp]
  0000d	8b 09		 mov	 ecx, DWORD PTR [ecx]
  0000f	89 08		 mov	 DWORD PTR [eax], ecx
$LN5@construct:

; 198  : 		}

  00011	5d		 pop	 ebp
  00012	c2 08 00	 ret	 8
?construct@?$allocator@H@std@@QAEXPAHABH@Z ENDP		; std::allocator<int>::construct
_TEXT	ENDS
PUBLIC	?construct@?$allocator@H@std@@QAEXPAH$$QAH@Z	; std::allocator<int>::construct
; Function compile flags: /Ogsp
;	COMDAT ?construct@?$allocator@H@std@@QAEXPAH$$QAH@Z
_TEXT	SEGMENT
__Ptr$ = 8						; size = 4
__Val$ = 12						; size = 4
?construct@?$allocator@H@std@@QAEXPAH$$QAH@Z PROC	; std::allocator<int>::construct, COMDAT
; _this$ = ecx

; 201  : 		{	// construct object at _Ptr with value _Val

  00000	55		 push	 ebp
  00001	8b ec		 mov	 ebp, esp

; 202  : 		::new ((void _FARQ *)_Ptr) _Ty(_STD forward<_Ty>(_Val));

  00003	8b 45 08	 mov	 eax, DWORD PTR __Ptr$[ebp]
  00006	85 c0		 test	 eax, eax
  00008	74 07		 je	 SHORT $LN3@construct@2
  0000a	8b 4d 0c	 mov	 ecx, DWORD PTR __Val$[ebp]
  0000d	8b 09		 mov	 ecx, DWORD PTR [ecx]
  0000f	89 08		 mov	 DWORD PTR [eax], ecx
$LN3@construct@2:

; 203  : 		}

  00011	5d		 pop	 ebp
  00012	c2 08 00	 ret	 8
?construct@?$allocator@H@std@@QAEXPAH$$QAH@Z ENDP	; std::allocator<int>::construct
_TEXT	ENDS
PUBLIC	??$construct@AAVioHashString@@@?$allocator@VioHashString@@@std@@QAEXPAVioHashString@@AAV2@@Z ; std::allocator<ioHashString>::construct<ioHashString &>
;	COMDAT xdata$x
; File c:\program files (x86)\microsoft visual studio 10.0\vc\include\utility
xdata$x	SEGMENT
__unwindtable$??$construct@AAVioHashString@@@?$allocator@VioHashString@@@std@@QAEXPAVioHashString@@AAV2@@Z DD 0ffffffffH
	DD	FLAT:__unwindfunclet$??$construct@AAVioHashString@@@?$allocator@VioHashString@@@std@@QAEXPAVioHashString@@AAV2@@Z$0
__ehfuncinfo$??$construct@AAVioHashString@@@?$allocator@VioHashString@@@std@@QAEXPAVioHashString@@AAV2@@Z DD 019930522H
	DD	01H
	DD	FLAT:__unwindtable$??$construct@AAVioHashString@@@?$allocator@VioHashString@@@std@@QAEXPAVioHashString@@AAV2@@Z
	DD	2 DUP(00H)
	DD	2 DUP(00H)
	DD	00H
	DD	01H
; Function compile flags: /Ogsp
; File c:\program files (x86)\microsoft visual studio 10.0\vc\include\xmemory
xdata$x	ENDS
;	COMDAT ??$construct@AAVioHashString@@@?$allocator@VioHashString@@@std@@QAEXPAVioHashString@@AAV2@@Z
_TEXT	SEGMENT
$T520866 = -16						; size = 4
__$EHRec$ = -12						; size = 12
__Ptr$ = 8						; size = 4
__Val$ = 12						; size = 4
??$construct@AAVioHashString@@@?$allocator@VioHashString@@@std@@QAEXPAVioHashString@@AAV2@@Z PROC ; std::allocator<ioHashString>::construct<ioHashString &>, COMDAT
; _this$ = ecx

; 206  : 		void construct(pointer _Ptr, _Other&& _Val)

  00000	6a 04		 push	 4
  00002	b8 00 00 00 00	 mov	 eax, __ehhandler$??$construct@AAVioHashString@@@?$allocator@VioHashString@@@std@@QAEXPAVioHashString@@AAV2@@Z
  00007	e8 00 00 00 00	 call	 __EH_prolog3

; 207  : 		{	// construct object at _Ptr with value _Val
; 208  : 		::new ((void _FARQ *)_Ptr) _Ty(_STD forward<_Other>(_Val));

  0000c	8b 4d 08	 mov	 ecx, DWORD PTR __Ptr$[ebp]
  0000f	89 4d f0	 mov	 DWORD PTR $T520866[ebp], ecx
  00012	83 65 fc 00	 and	 DWORD PTR __$EHRec$[ebp+8], 0
  00016	85 c9		 test	 ecx, ecx
  00018	74 09		 je	 SHORT $LN3@construct@3
  0001a	ff 75 0c	 push	 DWORD PTR __Val$[ebp]
  0001d	ff 15 00 00 00
	00		 call	 DWORD PTR __imp_??0ioHashString@@QAE@ABV0@@Z
$LN3@construct@3:

; 209  : 		}

  00023	e8 00 00 00 00	 call	 __EH_epilog3
  00028	c2 08 00	 ret	 8
_TEXT	ENDS
;	COMDAT text$x
text$x	SEGMENT
__unwindfunclet$??$construct@AAVioHashString@@@?$allocator@VioHashString@@@std@@QAEXPAVioHashString@@AAV2@@Z$0:
  00000	ff 75 08	 push	 DWORD PTR __Ptr$[ebp]
  00003	ff 75 f0	 push	 DWORD PTR $T520866[ebp]
  00006	e8 00 00 00 00	 call	 ??3@YAXPAX0@Z		; operator delete
  0000b	59		 pop	 ecx
  0000c	59		 pop	 ecx
  0000d	c3		 ret	 0
__ehhandler$??$construct@AAVioHashString@@@?$allocator@VioHashString@@@std@@QAEXPAVioHashString@@AAV2@@Z:
  0000e	8b 54 24 08	 mov	 edx, DWORD PTR [esp+8]
  00012	8d 42 0c	 lea	 eax, DWORD PTR [edx+12]
  00015	8b 4a ec	 mov	 ecx, DWORD PTR [edx-20]
  00018	33 c8		 xor	 ecx, eax
  0001a	e8 00 00 00 00	 call	 @__security_check_cookie@4
  0001f	b8 00 00 00 00	 mov	 eax, OFFSET __ehfuncinfo$??$construct@AAVioHashString@@@?$allocator@VioHashString@@@std@@QAEXPAVioHashString@@AAV2@@Z
  00024	e9 00 00 00 00	 jmp	 ___CxxFrameHandler3
text$x	ENDS
??$construct@AAVioHashString@@@?$allocator@VioHashString@@@std@@QAEXPAVioHashString@@AAV2@@Z ENDP ; std::allocator<ioHashString>::construct<ioHashString &>
PUBLIC	??$construct@AAH@?$allocator@H@std@@QAEXPAHAAH@Z ; std::allocator<int>::construct<int &>
; Function compile flags: /Ogsp
;	COMDAT ??$construct@AAH@?$allocator@H@std@@QAEXPAHAAH@Z
_TEXT	SEGMENT
__Ptr$ = 8						; size = 4
__Val$ = 12						; size = 4
??$construct@AAH@?$allocator@H@std@@QAEXPAHAAH@Z PROC	; std::allocator<int>::construct<int &>, COMDAT
; _this$ = ecx

; 206  : 		void construct(pointer _Ptr, _Other&& _Val)

  00000	55		 push	 ebp
  00001	8b ec		 mov	 ebp, esp

; 207  : 		{	// construct object at _Ptr with value _Val
; 208  : 		::new ((void _FARQ *)_Ptr) _Ty(_STD forward<_Other>(_Val));

  00003	8b 45 08	 mov	 eax, DWORD PTR __Ptr$[ebp]
  00006	85 c0		 test	 eax, eax
  00008	74 07		 je	 SHORT $LN3@construct@4
  0000a	8b 4d 0c	 mov	 ecx, DWORD PTR __Val$[ebp]
  0000d	8b 09		 mov	 ecx, DWORD PTR [ecx]
  0000f	89 08		 mov	 DWORD PTR [eax], ecx
$LN3@construct@4:

; 209  : 		}

  00011	5d		 pop	 ebp
  00012	c2 08 00	 ret	 8
??$construct@AAH@?$allocator@H@std@@QAEXPAHAAH@Z ENDP	; std::allocator<int>::construct<int &>
_TEXT	ENDS
PUBLIC	??$_Uninit_fill_n@IIII@std@@YAXPAIIPBIAAV?$allocator@I@0@0U_Scalar_ptr_iterator_tag@0@@Z ; std::_Uninit_fill_n<unsigned int,unsigned int,unsigned int,unsigned int>
; Function compile flags: /Ogsp
; File c:\program files (x86)\microsoft visual studio 10.0\vc\include\memory
;	COMDAT ??$_Uninit_fill_n@IIII@std@@YAXPAIIPBIAAV?$allocator@I@0@0U_Scalar_ptr_iterator_tag@0@@Z
_TEXT	SEGMENT
__First$ = 8						; size = 4
__Count$ = 12						; size = 4
__Pval$ = 16						; size = 4
___formal$ = 20						; size = 4
___formal$ = 24						; size = 4
___formal$ = 28						; size = 1
??$_Uninit_fill_n@IIII@std@@YAXPAIIPBIAAV?$allocator@I@0@0U_Scalar_ptr_iterator_tag@0@@Z PROC ; std::_Uninit_fill_n<unsigned int,unsigned int,unsigned int,unsigned int>, COMDAT

; 596  : 	{	// copy _Count * *_Pval to raw _First, using _Al, scalar type

  00000	55		 push	 ebp
  00001	8b ec		 mov	 ebp, esp

; 597  : 	_Fill_n(_First, _Count, *_Pval);

  00003	ff 75 10	 push	 DWORD PTR __Pval$[ebp]
  00006	ff 75 0c	 push	 DWORD PTR __Count$[ebp]
  00009	ff 75 08	 push	 DWORD PTR __First$[ebp]
  0000c	e8 00 00 00 00	 call	 ??$_Fill_n@PAIII@std@@YAXPAIIABI@Z ; std::_Fill_n<unsigned int *,unsigned int,unsigned int>
  00011	83 c4 0c	 add	 esp, 12			; 0000000cH

; 598  : 	}

  00014	5d		 pop	 ebp
  00015	c3		 ret	 0
??$_Uninit_fill_n@IIII@std@@YAXPAIIPBIAAV?$allocator@I@0@0U_Scalar_ptr_iterator_tag@0@@Z ENDP ; std::_Uninit_fill_n<unsigned int,unsigned int,unsigned int,unsigned int>
_TEXT	ENDS
PUBLIC	??$_Uninitialized_move@PAIPAIV?$allocator@I@std@@@std@@YAPAIPAI00AAV?$allocator@I@0@@Z ; std::_Uninitialized_move<unsigned int *,unsigned int *,std::allocator<unsigned int> >
; Function compile flags: /Ogsp
;	COMDAT ??$_Uninitialized_move@PAIPAIV?$allocator@I@std@@@std@@YAPAIPAI00AAV?$allocator@I@0@@Z
_TEXT	SEGMENT
__First$ = 8						; size = 4
__Last$ = 12						; size = 4
__Dest$ = 16						; size = 4
__Al$ = 20						; size = 4
??$_Uninitialized_move@PAIPAIV?$allocator@I@std@@@std@@YAPAIPAI00AAV?$allocator@I@0@@Z PROC ; std::_Uninitialized_move<unsigned int *,unsigned int *,std::allocator<unsigned int> >, COMDAT

; 469  : 	{	// move [_First, _Last) to raw _Dest, using _Al

  00000	55		 push	 ebp
  00001	8b ec		 mov	 ebp, esp
  00003	56		 push	 esi

; 470  : 	return (_Uninit_move(_First, _Last, _Dest, _Al,
; 471  : 		_Val_type(_First), _Ptr_cat(_First, _Dest)));

  00004	8b 75 0c	 mov	 esi, DWORD PTR __Last$[ebp]
  00007	2b 75 08	 sub	 esi, DWORD PTR __First$[ebp]
  0000a	c1 fe 02	 sar	 esi, 2
  0000d	c1 e6 02	 shl	 esi, 2
  00010	56		 push	 esi
  00011	ff 75 08	 push	 DWORD PTR __First$[ebp]
  00014	ff 75 10	 push	 DWORD PTR __Dest$[ebp]
  00017	ff 15 00 00 00
	00		 call	 DWORD PTR __imp__memmove
  0001d	83 c4 0c	 add	 esp, 12			; 0000000cH
  00020	03 c6		 add	 eax, esi
  00022	5e		 pop	 esi

; 472  : 	}

  00023	5d		 pop	 ebp
  00024	c3		 ret	 0
??$_Uninitialized_move@PAIPAIV?$allocator@I@std@@@std@@YAPAIPAI00AAV?$allocator@I@0@@Z ENDP ; std::_Uninitialized_move<unsigned int *,unsigned int *,std::allocator<unsigned int> >
_TEXT	ENDS
PUBLIC	??E?$_Vb_const_iterator@V?$allocator@_N@std@@@std@@QAEAAV01@XZ ; std::_Vb_const_iterator<std::allocator<bool> >::operator++
; Function compile flags: /Ogsp
; File c:\program files (x86)\microsoft visual studio 10.0\vc\include\vector
;	COMDAT ??E?$_Vb_const_iterator@V?$allocator@_N@std@@@std@@QAEAAV01@XZ
_TEXT	SEGMENT
??E?$_Vb_const_iterator@V?$allocator@_N@std@@@std@@QAEAAV01@XZ PROC ; std::_Vb_const_iterator<std::allocator<bool> >::operator++, COMDAT
; _this$ = ecx

; 1701 : 		{	// preincrement

  00000	56		 push	 esi
  00001	8b f1		 mov	 esi, ecx

; 1702 : 		_Inc();

  00003	e8 00 00 00 00	 call	 ?_Inc@?$_Vb_const_iterator@V?$allocator@_N@std@@@std@@QAEXXZ ; std::_Vb_const_iterator<std::allocator<bool> >::_Inc

; 1703 : 		return (*this);

  00008	8b c6		 mov	 eax, esi
  0000a	5e		 pop	 esi

; 1704 : 		}

  0000b	c3		 ret	 0
??E?$_Vb_const_iterator@V?$allocator@_N@std@@@std@@QAEAAV01@XZ ENDP ; std::_Vb_const_iterator<std::allocator<bool> >::operator++
_TEXT	ENDS
PUBLIC	??4?$_Vb_reference@V?$allocator@_N@std@@@std@@QAEAAV01@ABV01@@Z ; std::_Vb_reference<std::allocator<bool> >::operator=
; Function compile flags: /Ogsp
;	COMDAT ??4?$_Vb_reference@V?$allocator@_N@std@@@std@@QAEAAV01@ABV01@@Z
_TEXT	SEGMENT
$T520930 = 8						; size = 1
__Right$ = 8						; size = 4
??4?$_Vb_reference@V?$allocator@_N@std@@@std@@QAEAAV01@ABV01@@Z PROC ; std::_Vb_reference<std::allocator<bool> >::operator=, COMDAT
; _this$ = ecx

; 1604 : 		{	// assign _Vb_reference _Right to bit

  00000	55		 push	 ebp
  00001	8b ec		 mov	 ebp, esp

; 1605 : 		return (*this = bool(_Right));

  00003	8b 45 08	 mov	 eax, DWORD PTR __Right$[ebp]
  00006	56		 push	 esi
  00007	33 f6		 xor	 esi, esi
  00009	8b d1		 mov	 edx, ecx
  0000b	8b 48 04	 mov	 ecx, DWORD PTR [eax+4]
  0000e	8b 00		 mov	 eax, DWORD PTR [eax]
  00010	46		 inc	 esi
  00011	d3 e6		 shl	 esi, cl
  00013	8b ca		 mov	 ecx, edx
  00015	85 30		 test	 esi, DWORD PTR [eax]
  00017	0f 95 c0	 setne	 al
  0001a	88 45 08	 mov	 BYTE PTR $T520930[ebp], al
  0001d	ff 75 08	 push	 DWORD PTR $T520930[ebp]
  00020	e8 00 00 00 00	 call	 ??4?$_Vb_reference@V?$allocator@_N@std@@@std@@QAEAAV01@_N@Z ; std::_Vb_reference<std::allocator<bool> >::operator=
  00025	5e		 pop	 esi

; 1606 : 		}

  00026	5d		 pop	 ebp
  00027	c2 04 00	 ret	 4
??4?$_Vb_reference@V?$allocator@_N@std@@@std@@QAEAAV01@ABV01@@Z ENDP ; std::_Vb_reference<std::allocator<bool> >::operator=
_TEXT	ENDS
PUBLIC	??F?$_Vb_const_iterator@V?$allocator@_N@std@@@std@@QAEAAV01@XZ ; std::_Vb_const_iterator<std::allocator<bool> >::operator--
; Function compile flags: /Ogsp
;	COMDAT ??F?$_Vb_const_iterator@V?$allocator@_N@std@@@std@@QAEAAV01@XZ
_TEXT	SEGMENT
??F?$_Vb_const_iterator@V?$allocator@_N@std@@@std@@QAEAAV01@XZ PROC ; std::_Vb_const_iterator<std::allocator<bool> >::operator--, COMDAT
; _this$ = ecx

; 1714 : 		{	// predecrement

  00000	56		 push	 esi
  00001	8b f1		 mov	 esi, ecx

; 1715 : 		_Dec();

  00003	e8 00 00 00 00	 call	 ?_Dec@?$_Vb_const_iterator@V?$allocator@_N@std@@@std@@QAEXXZ ; std::_Vb_const_iterator<std::allocator<bool> >::_Dec

; 1716 : 		return (*this);

  00008	8b c6		 mov	 eax, esi
  0000a	5e		 pop	 esi

; 1717 : 		}

  0000b	c3		 ret	 0
??F?$_Vb_const_iterator@V?$allocator@_N@std@@@std@@QAEAAV01@XZ ENDP ; std::_Vb_const_iterator<std::allocator<bool> >::operator--
_TEXT	ENDS
PUBLIC	?construct@?$allocator@VioHashString@@@std@@QAEXPAVioHashString@@$$QAV3@@Z ; std::allocator<ioHashString>::construct
;	COMDAT xdata$x
; File c:\program files (x86)\microsoft visual studio 10.0\vc\include\utility
xdata$x	SEGMENT
__unwindtable$?construct@?$allocator@VioHashString@@@std@@QAEXPAVioHashString@@$$QAV3@@Z DD 0ffffffffH
	DD	FLAT:__unwindfunclet$?construct@?$allocator@VioHashString@@@std@@QAEXPAVioHashString@@$$QAV3@@Z$0
__ehfuncinfo$?construct@?$allocator@VioHashString@@@std@@QAEXPAVioHashString@@$$QAV3@@Z DD 019930522H
	DD	01H
	DD	FLAT:__unwindtable$?construct@?$allocator@VioHashString@@@std@@QAEXPAVioHashString@@$$QAV3@@Z
	DD	2 DUP(00H)
	DD	2 DUP(00H)
	DD	00H
	DD	01H
; Function compile flags: /Ogsp
; File c:\program files (x86)\microsoft visual studio 10.0\vc\include\xmemory
xdata$x	ENDS
;	COMDAT ?construct@?$allocator@VioHashString@@@std@@QAEXPAVioHashString@@$$QAV3@@Z
_TEXT	SEGMENT
$T520937 = -16						; size = 4
__$EHRec$ = -12						; size = 12
__Ptr$ = 8						; size = 4
__Val$ = 12						; size = 4
?construct@?$allocator@VioHashString@@@std@@QAEXPAVioHashString@@$$QAV3@@Z PROC ; std::allocator<ioHashString>::construct, COMDAT
; _this$ = ecx

; 201  : 		{	// construct object at _Ptr with value _Val

  00000	6a 04		 push	 4
  00002	b8 00 00 00 00	 mov	 eax, __ehhandler$?construct@?$allocator@VioHashString@@@std@@QAEXPAVioHashString@@$$QAV3@@Z
  00007	e8 00 00 00 00	 call	 __EH_prolog3

; 202  : 		::new ((void _FARQ *)_Ptr) _Ty(_STD forward<_Ty>(_Val));

  0000c	8b 4d 08	 mov	 ecx, DWORD PTR __Ptr$[ebp]
  0000f	89 4d f0	 mov	 DWORD PTR $T520937[ebp], ecx
  00012	83 65 fc 00	 and	 DWORD PTR __$EHRec$[ebp+8], 0
  00016	85 c9		 test	 ecx, ecx
  00018	74 09		 je	 SHORT $LN3@construct@5
  0001a	ff 75 0c	 push	 DWORD PTR __Val$[ebp]
  0001d	ff 15 00 00 00
	00		 call	 DWORD PTR __imp_??0ioHashString@@QAE@ABV0@@Z
$LN3@construct@5:

; 203  : 		}

  00023	e8 00 00 00 00	 call	 __EH_epilog3
  00028	c2 08 00	 ret	 8
_TEXT	ENDS
;	COMDAT text$x
text$x	SEGMENT
__unwindfunclet$?construct@?$allocator@VioHashString@@@std@@QAEXPAVioHashString@@$$QAV3@@Z$0:
  00000	ff 75 08	 push	 DWORD PTR __Ptr$[ebp]
  00003	ff 75 f0	 push	 DWORD PTR $T520937[ebp]
  00006	e8 00 00 00 00	 call	 ??3@YAXPAX0@Z		; operator delete
  0000b	59		 pop	 ecx
  0000c	59		 pop	 ecx
  0000d	c3		 ret	 0
__ehhandler$?construct@?$allocator@VioHashString@@@std@@QAEXPAVioHashString@@$$QAV3@@Z:
  0000e	8b 54 24 08	 mov	 edx, DWORD PTR [esp+8]
  00012	8d 42 0c	 lea	 eax, DWORD PTR [edx+12]
  00015	8b 4a ec	 mov	 ecx, DWORD PTR [edx-20]
  00018	33 c8		 xor	 ecx, eax
  0001a	e8 00 00 00 00	 call	 @__security_check_cookie@4
  0001f	b8 00 00 00 00	 mov	 eax, OFFSET __ehfuncinfo$?construct@?$allocator@VioHashString@@@std@@QAEXPAVioHashString@@$$QAV3@@Z
  00024	e9 00 00 00 00	 jmp	 ___CxxFrameHandler3
text$x	ENDS
?construct@?$allocator@VioHashString@@@std@@QAEXPAVioHashString@@$$QAV3@@Z ENDP ; std::allocator<ioHashString>::construct
PUBLIC	?StringCbPrintfA@@YAJPADIPBDZZ			; StringCbPrintfA
; Function compile flags: /Ogsp
; File c:\program files (x86)\microsoft sdks\windows\v7.0a\include\strsafe.h
;	COMDAT ?StringCbPrintfA@@YAJPADIPBDZZ
_TEXT	SEGMENT
_pszDest$ = 8						; size = 4
_cbDest$ = 12						; size = 4
_pszFormat$ = 16					; size = 4
?StringCbPrintfA@@YAJPADIPBDZZ PROC			; StringCbPrintfA, COMDAT

; 4767 : {

  00000	55		 push	 ebp
  00001	8b ec		 mov	 ebp, esp

; 4768 :     HRESULT hr;
; 4769 :     size_t cchDest = cbDest / sizeof(char);
; 4770 : 
; 4771 :     hr = StringValidateDestA(pszDest, cchDest, STRSAFE_MAX_CCH);

  00003	8b 4d 0c	 mov	 ecx, DWORD PTR _cbDest$[ebp]
  00006	33 c0		 xor	 eax, eax
  00008	85 c9		 test	 ecx, ecx
  0000a	74 08		 je	 SHORT $LN4@StringCbPr
  0000c	81 f9 ff ff ff
	7f		 cmp	 ecx, 2147483647		; 7fffffffH
  00012	76 05		 jbe	 SHORT $LN5@StringCbPr
$LN4@StringCbPr:
  00014	b8 57 00 07 80	 mov	 eax, -2147024809	; 80070057H
$LN5@StringCbPr:

; 4772 :     
; 4773 :     if (SUCCEEDED(hr))

  00019	85 c0		 test	 eax, eax
  0001b	78 39		 js	 SHORT $LN1@StringCbPr

; 4774 :     {
; 4775 :         va_list argList;
; 4776 : 
; 4777 :         va_start(argList, pszFormat);
; 4778 : 
; 4779 :         hr = StringVPrintfWorkerA(pszDest,
; 4780 :                                   cchDest,
; 4781 :                                   NULL,
; 4782 :                                   pszFormat,
; 4783 :                                   argList);

  0001d	53		 push	 ebx
  0001e	56		 push	 esi
  0001f	57		 push	 edi
  00020	8b 7d 08	 mov	 edi, DWORD PTR _pszDest$[ebp]
  00023	8d 45 14	 lea	 eax, DWORD PTR _pszFormat$[ebp+4]
  00026	50		 push	 eax
  00027	ff 75 10	 push	 DWORD PTR _pszFormat$[ebp]
  0002a	8d 71 ff	 lea	 esi, DWORD PTR [ecx-1]
  0002d	56		 push	 esi
  0002e	57		 push	 edi
  0002f	33 db		 xor	 ebx, ebx
  00031	ff 15 00 00 00
	00		 call	 DWORD PTR __imp___vsnprintf
  00037	83 c4 10	 add	 esp, 16			; 00000010H
  0003a	85 c0		 test	 eax, eax
  0003c	78 0b		 js	 SHORT $LN12@StringCbPr
  0003e	3b c6		 cmp	 eax, esi
  00040	77 07		 ja	 SHORT $LN12@StringCbPr
  00042	75 0d		 jne	 SHORT $LN9@StringCbPr
  00044	88 1c 3e	 mov	 BYTE PTR [esi+edi], bl
  00047	eb 08		 jmp	 SHORT $LN9@StringCbPr
$LN12@StringCbPr:
  00049	88 1c 3e	 mov	 BYTE PTR [esi+edi], bl
  0004c	bb 7a 00 07 80	 mov	 ebx, -2147024774	; 8007007aH
$LN9@StringCbPr:
  00051	5f		 pop	 edi
  00052	5e		 pop	 esi
  00053	8b c3		 mov	 eax, ebx
  00055	5b		 pop	 ebx
$LN1@StringCbPr:

; 4784 : 
; 4785 :         va_end(argList);
; 4786 :     }
; 4787 : 
; 4788 :     return hr;
; 4789 : }

  00056	5d		 pop	 ebp
  00057	c3		 ret	 0
?StringCbPrintfA@@YAJPADIPBDZZ ENDP			; StringCbPrintfA
_TEXT	ENDS
PUBLIC	?begin@?$vector@HV?$allocator@H@std@@@std@@QAE?AV?$_Vector_iterator@V?$_Vector_val@HV?$allocator@H@std@@@std@@@2@XZ ; std::vector<int,std::allocator<int> >::begin
; Function compile flags: /Ogsp
; File c:\program files (x86)\microsoft visual studio 10.0\vc\include\vector
;	COMDAT ?begin@?$vector@HV?$allocator@H@std@@@std@@QAE?AV?$_Vector_iterator@V?$_Vector_val@HV?$allocator@H@std@@@std@@@2@XZ
_TEXT	SEGMENT
___$ReturnUdt$ = 8					; size = 4
?begin@?$vector@HV?$allocator@H@std@@@std@@QAE?AV?$_Vector_iterator@V?$_Vector_val@HV?$allocator@H@std@@@std@@@2@XZ PROC ; std::vector<int,std::allocator<int> >::begin, COMDAT
; _this$ = ecx

; 781  : 		{	// return iterator for beginning of mutable sequence

  00000	55		 push	 ebp
  00001	8b ec		 mov	 ebp, esp

; 782  : 		return (iterator(this->_Myfirst, this));

  00003	8b 09		 mov	 ecx, DWORD PTR [ecx]
  00005	8b 45 08	 mov	 eax, DWORD PTR ___$ReturnUdt$[ebp]
  00008	89 08		 mov	 DWORD PTR [eax], ecx

; 783  : 		}

  0000a	5d		 pop	 ebp
  0000b	c2 04 00	 ret	 4
?begin@?$vector@HV?$allocator@H@std@@@std@@QAE?AV?$_Vector_iterator@V?$_Vector_val@HV?$allocator@H@std@@@std@@@2@XZ ENDP ; std::vector<int,std::allocator<int> >::begin
_TEXT	ENDS
PUBLIC	?begin@?$vector@VioHashString@@V?$allocator@VioHashString@@@std@@@std@@QAE?AV?$_Vector_iterator@V?$_Vector_val@VioHashString@@V?$allocator@VioHashString@@@std@@@std@@@2@XZ ; std::vector<ioHashString,std::allocator<ioHashString> >::begin
; Function compile flags: /Ogsp
;	COMDAT ?begin@?$vector@VioHashString@@V?$allocator@VioHashString@@@std@@@std@@QAE?AV?$_Vector_iterator@V?$_Vector_val@VioHashString@@V?$allocator@VioHashString@@@std@@@std@@@2@XZ
_TEXT	SEGMENT
___$ReturnUdt$ = 8					; size = 4
?begin@?$vector@VioHashString@@V?$allocator@VioHashString@@@std@@@std@@QAE?AV?$_Vector_iterator@V?$_Vector_val@VioHashString@@V?$allocator@VioHashString@@@std@@@std@@@2@XZ PROC ; std::vector<ioHashString,std::allocator<ioHashString> >::begin, COMDAT
; _this$ = ecx

; 781  : 		{	// return iterator for beginning of mutable sequence

  00000	55		 push	 ebp
  00001	8b ec		 mov	 ebp, esp

; 782  : 		return (iterator(this->_Myfirst, this));

  00003	8b 09		 mov	 ecx, DWORD PTR [ecx]
  00005	8b 45 08	 mov	 eax, DWORD PTR ___$ReturnUdt$[ebp]
  00008	89 08		 mov	 DWORD PTR [eax], ecx

; 783  : 		}

  0000a	5d		 pop	 ebp
  0000b	c2 04 00	 ret	 4
?begin@?$vector@VioHashString@@V?$allocator@VioHashString@@@std@@@std@@QAE?AV?$_Vector_iterator@V?$_Vector_val@VioHashString@@V?$allocator@VioHashString@@@std@@@std@@@2@XZ ENDP ; std::vector<ioHashString,std::allocator<ioHashString> >::begin
_TEXT	ENDS
PUBLIC	?end@?$vector@VioHashString@@V?$allocator@VioHashString@@@std@@@std@@QAE?AV?$_Vector_iterator@V?$_Vector_val@VioHashString@@V?$allocator@VioHashString@@@std@@@std@@@2@XZ ; std::vector<ioHashString,std::allocator<ioHashString> >::end
; Function compile flags: /Ogsp
;	COMDAT ?end@?$vector@VioHashString@@V?$allocator@VioHashString@@@std@@@std@@QAE?AV?$_Vector_iterator@V?$_Vector_val@VioHashString@@V?$allocator@VioHashString@@@std@@@std@@@2@XZ
_TEXT	SEGMENT
___$ReturnUdt$ = 8					; size = 4
?end@?$vector@VioHashString@@V?$allocator@VioHashString@@@std@@@std@@QAE?AV?$_Vector_iterator@V?$_Vector_val@VioHashString@@V?$allocator@VioHashString@@@std@@@std@@@2@XZ PROC ; std::vector<ioHashString,std::allocator<ioHashString> >::end, COMDAT
; _this$ = ecx

; 791  : 		{	// return iterator for end of mutable sequence

  00000	55		 push	 ebp
  00001	8b ec		 mov	 ebp, esp

; 792  : 		return (iterator(this->_Mylast, this));

  00003	8b 49 04	 mov	 ecx, DWORD PTR [ecx+4]
  00006	8b 45 08	 mov	 eax, DWORD PTR ___$ReturnUdt$[ebp]
  00009	89 08		 mov	 DWORD PTR [eax], ecx

; 793  : 		}

  0000b	5d		 pop	 ebp
  0000c	c2 04 00	 ret	 4
?end@?$vector@VioHashString@@V?$allocator@VioHashString@@@std@@@std@@QAE?AV?$_Vector_iterator@V?$_Vector_val@VioHashString@@V?$allocator@VioHashString@@@std@@@std@@@2@XZ ENDP ; std::vector<ioHashString,std::allocator<ioHashString> >::end
_TEXT	ENDS
PUBLIC	??0?$_Vector_val@VioHashString@@V?$allocator@VioHashString@@@std@@@std@@QAE@V?$allocator@VioHashString@@@1@@Z ; std::_Vector_val<ioHashString,std::allocator<ioHashString> >::_Vector_val<ioHashString,std::allocator<ioHashString> >
; Function compile flags: /Ogsp
;	COMDAT ??0?$_Vector_val@VioHashString@@V?$allocator@VioHashString@@@std@@@std@@QAE@V?$allocator@VioHashString@@@1@@Z
_TEXT	SEGMENT
__Al$ = 8						; size = 1
??0?$_Vector_val@VioHashString@@V?$allocator@VioHashString@@@std@@@std@@QAE@V?$allocator@VioHashString@@@1@@Z PROC ; std::_Vector_val<ioHashString,std::allocator<ioHashString> >::_Vector_val<ioHashString,std::allocator<ioHashString> >, COMDAT
; _this$ = ecx

; 426  : 		{	// construct allocator from _Al

  00000	8b c1		 mov	 eax, ecx

; 427  : 		_Myfirst = 0;

  00002	33 c9		 xor	 ecx, ecx
  00004	89 08		 mov	 DWORD PTR [eax], ecx

; 428  : 		_Mylast = 0;

  00006	89 48 04	 mov	 DWORD PTR [eax+4], ecx

; 429  : 		_Myend = 0;

  00009	89 48 08	 mov	 DWORD PTR [eax+8], ecx

; 430  : 		}

  0000c	c2 04 00	 ret	 4
??0?$_Vector_val@VioHashString@@V?$allocator@VioHashString@@@std@@@std@@QAE@V?$allocator@VioHashString@@@1@@Z ENDP ; std::_Vector_val<ioHashString,std::allocator<ioHashString> >::_Vector_val<ioHashString,std::allocator<ioHashString> >
_TEXT	ENDS
PUBLIC	?end@?$vector@HV?$allocator@H@std@@@std@@QAE?AV?$_Vector_iterator@V?$_Vector_val@HV?$allocator@H@std@@@std@@@2@XZ ; std::vector<int,std::allocator<int> >::end
; Function compile flags: /Ogsp
;	COMDAT ?end@?$vector@HV?$allocator@H@std@@@std@@QAE?AV?$_Vector_iterator@V?$_Vector_val@HV?$allocator@H@std@@@std@@@2@XZ
_TEXT	SEGMENT
___$ReturnUdt$ = 8					; size = 4
?end@?$vector@HV?$allocator@H@std@@@std@@QAE?AV?$_Vector_iterator@V?$_Vector_val@HV?$allocator@H@std@@@std@@@2@XZ PROC ; std::vector<int,std::allocator<int> >::end, COMDAT
; _this$ = ecx

; 791  : 		{	// return iterator for end of mutable sequence

  00000	55		 push	 ebp
  00001	8b ec		 mov	 ebp, esp

; 792  : 		return (iterator(this->_Mylast, this));

  00003	8b 49 04	 mov	 ecx, DWORD PTR [ecx+4]
  00006	8b 45 08	 mov	 eax, DWORD PTR ___$ReturnUdt$[ebp]
  00009	89 08		 mov	 DWORD PTR [eax], ecx

; 793  : 		}

  0000b	5d		 pop	 ebp
  0000c	c2 04 00	 ret	 4
?end@?$vector@HV?$allocator@H@std@@@std@@QAE?AV?$_Vector_iterator@V?$_Vector_val@HV?$allocator@H@std@@@std@@@2@XZ ENDP ; std::vector<int,std::allocator<int> >::end
_TEXT	ENDS
PUBLIC	??0?$_Vector_val@HV?$allocator@H@std@@@std@@QAE@V?$allocator@H@1@@Z ; std::_Vector_val<int,std::allocator<int> >::_Vector_val<int,std::allocator<int> >
; Function compile flags: /Ogsp
;	COMDAT ??0?$_Vector_val@HV?$allocator@H@std@@@std@@QAE@V?$allocator@H@1@@Z
_TEXT	SEGMENT
__Al$ = 8						; size = 1
??0?$_Vector_val@HV?$allocator@H@std@@@std@@QAE@V?$allocator@H@1@@Z PROC ; std::_Vector_val<int,std::allocator<int> >::_Vector_val<int,std::allocator<int> >, COMDAT
; _this$ = ecx

; 426  : 		{	// construct allocator from _Al

  00000	8b c1		 mov	 eax, ecx

; 427  : 		_Myfirst = 0;

  00002	33 c9		 xor	 ecx, ecx
  00004	89 08		 mov	 DWORD PTR [eax], ecx

; 428  : 		_Mylast = 0;

  00006	89 48 04	 mov	 DWORD PTR [eax+4], ecx

; 429  : 		_Myend = 0;

  00009	89 48 08	 mov	 DWORD PTR [eax+8], ecx

; 430  : 		}

  0000c	c2 04 00	 ret	 4
??0?$_Vector_val@HV?$allocator@H@std@@@std@@QAE@V?$allocator@H@1@@Z ENDP ; std::_Vector_val<int,std::allocator<int> >::_Vector_val<int,std::allocator<int> >
_TEXT	ENDS
PUBLIC	?_Make_iter@?$vector@VioHashString@@V?$allocator@VioHashString@@@std@@@std@@QBE?AV?$_Vector_iterator@V?$_Vector_val@VioHashString@@V?$allocator@VioHashString@@@std@@@std@@@2@V?$_Vector_const_iterator@V?$_Vector_val@VioHashString@@V?$allocator@VioHashString@@@std@@@std@@@2@@Z ; std::vector<ioHashString,std::allocator<ioHashString> >::_Make_iter
; Function compile flags: /Ogsp
;	COMDAT ?_Make_iter@?$vector@VioHashString@@V?$allocator@VioHashString@@@std@@@std@@QBE?AV?$_Vector_iterator@V?$_Vector_val@VioHashString@@V?$allocator@VioHashString@@@std@@@std@@@2@V?$_Vector_const_iterator@V?$_Vector_val@VioHashString@@V?$allocator@VioHashString@@@std@@@std@@@2@@Z
_TEXT	SEGMENT
___$ReturnUdt$ = 8					; size = 4
__Where$ = 12						; size = 4
?_Make_iter@?$vector@VioHashString@@V?$allocator@VioHashString@@@std@@@std@@QBE?AV?$_Vector_iterator@V?$_Vector_val@VioHashString@@V?$allocator@VioHashString@@@std@@@std@@@2@V?$_Vector_const_iterator@V?$_Vector_val@VioHashString@@V?$allocator@VioHashString@@@std@@@std@@@2@@Z PROC ; std::vector<ioHashString,std::allocator<ioHashString> >::_Make_iter, COMDAT
; _this$ = ecx

; 801  : 		{	// make iterator from const_iterator

  00000	55		 push	 ebp
  00001	8b ec		 mov	 ebp, esp

; 802  : 		return (iterator(_Where._Ptr, this));

  00003	8b 45 08	 mov	 eax, DWORD PTR ___$ReturnUdt$[ebp]
  00006	8b 4d 0c	 mov	 ecx, DWORD PTR __Where$[ebp]
  00009	89 08		 mov	 DWORD PTR [eax], ecx

; 803  : 		}

  0000b	5d		 pop	 ebp
  0000c	c2 08 00	 ret	 8
?_Make_iter@?$vector@VioHashString@@V?$allocator@VioHashString@@@std@@@std@@QBE?AV?$_Vector_iterator@V?$_Vector_val@VioHashString@@V?$allocator@VioHashString@@@std@@@std@@@2@V?$_Vector_const_iterator@V?$_Vector_val@VioHashString@@V?$allocator@VioHashString@@@std@@@std@@@2@@Z ENDP ; std::vector<ioHashString,std::allocator<ioHashString> >::_Make_iter
_TEXT	ENDS
PUBLIC	?max_size@?$vector@VioHashString@@V?$allocator@VioHashString@@@std@@@std@@QBEIXZ ; std::vector<ioHashString,std::allocator<ioHashString> >::max_size
; Function compile flags: /Ogsp
;	COMDAT ?max_size@?$vector@VioHashString@@V?$allocator@VioHashString@@@std@@@std@@QBEIXZ
_TEXT	SEGMENT
?max_size@?$vector@VioHashString@@V?$allocator@VioHashString@@@std@@@std@@QBEIXZ PROC ; std::vector<ioHashString,std::allocator<ioHashString> >::max_size, COMDAT
; _this$ = ecx

; 884  : 		return (this->_Alval.max_size());

  00000	b8 ff ff ff 0f	 mov	 eax, 268435455		; 0fffffffH

; 885  : 		}

  00005	c3		 ret	 0
?max_size@?$vector@VioHashString@@V?$allocator@VioHashString@@@std@@@std@@QBEIXZ ENDP ; std::vector<ioHashString,std::allocator<ioHashString> >::max_size
_TEXT	ENDS
PUBLIC	?allocate@?$allocator@VioHashString@@@std@@QAEPAVioHashString@@I@Z ; std::allocator<ioHashString>::allocate
; Function compile flags: /Ogsp
; File c:\program files (x86)\microsoft visual studio 10.0\vc\include\xmemory
;	COMDAT ?allocate@?$allocator@VioHashString@@@std@@QAEPAVioHashString@@I@Z
_TEXT	SEGMENT
__Count$ = 8						; size = 4
?allocate@?$allocator@VioHashString@@@std@@QAEPAVioHashString@@I@Z PROC ; std::allocator<ioHashString>::allocate, COMDAT
; _this$ = ecx

; 186  : 		{	// allocate array of _Count elements

  00000	55		 push	 ebp
  00001	8b ec		 mov	 ebp, esp

; 187  : 		return (_Allocate(_Count, (pointer)0));

  00003	6a 00		 push	 0
  00005	ff 75 08	 push	 DWORD PTR __Count$[ebp]
  00008	e8 00 00 00 00	 call	 ??$_Allocate@VioHashString@@@std@@YAPAVioHashString@@IPAV1@@Z ; std::_Allocate<ioHashString>
  0000d	59		 pop	 ecx
  0000e	59		 pop	 ecx

; 188  : 		}

  0000f	5d		 pop	 ebp
  00010	c2 04 00	 ret	 4
?allocate@?$allocator@VioHashString@@@std@@QAEPAVioHashString@@I@Z ENDP ; std::allocator<ioHashString>::allocate
_TEXT	ENDS
PUBLIC	?max_size@?$vector@HV?$allocator@H@std@@@std@@QBEIXZ ; std::vector<int,std::allocator<int> >::max_size
; Function compile flags: /Ogsp
; File c:\program files (x86)\microsoft visual studio 10.0\vc\include\vector
;	COMDAT ?max_size@?$vector@HV?$allocator@H@std@@@std@@QBEIXZ
_TEXT	SEGMENT
?max_size@?$vector@HV?$allocator@H@std@@@std@@QBEIXZ PROC ; std::vector<int,std::allocator<int> >::max_size, COMDAT
; _this$ = ecx

; 884  : 		return (this->_Alval.max_size());

  00000	b8 ff ff ff 3f	 mov	 eax, 1073741823		; 3fffffffH

; 885  : 		}

  00005	c3		 ret	 0
?max_size@?$vector@HV?$allocator@H@std@@@std@@QBEIXZ ENDP ; std::vector<int,std::allocator<int> >::max_size
_TEXT	ENDS
PUBLIC	?_Grow_to@?$vector@HV?$allocator@H@std@@@std@@IBEII@Z ; std::vector<int,std::allocator<int> >::_Grow_to
; Function compile flags: /Ogsp
;	COMDAT ?_Grow_to@?$vector@HV?$allocator@H@std@@@std@@IBEII@Z
_TEXT	SEGMENT
__Count$ = 8						; size = 4
?_Grow_to@?$vector@HV?$allocator@H@std@@@std@@IBEII@Z PROC ; std::vector<int,std::allocator<int> >::_Grow_to, COMDAT
; _this$ = ecx

; 1274 : 		{	// grow by 50% or at least to _Count

  00000	55		 push	 ebp
  00001	8b ec		 mov	 ebp, esp

; 1275 : 		size_type _Capacity = capacity();

  00003	8b 41 08	 mov	 eax, DWORD PTR [ecx+8]
  00006	2b 01		 sub	 eax, DWORD PTR [ecx]

; 1276 : 
; 1277 : 		_Capacity = max_size() - _Capacity / 2 < _Capacity
; 1278 : 			? 0 : _Capacity + _Capacity / 2;	// try to grow by 50%

  00008	ba ff ff ff 3f	 mov	 edx, 1073741823		; 3fffffffH
  0000d	c1 f8 02	 sar	 eax, 2
  00010	8b c8		 mov	 ecx, eax
  00012	d1 e9		 shr	 ecx, 1
  00014	2b d1		 sub	 edx, ecx
  00016	3b d0		 cmp	 edx, eax
  00018	73 04		 jae	 SHORT $LN4@Grow_to@2
  0001a	33 c0		 xor	 eax, eax
  0001c	eb 02		 jmp	 SHORT $LN5@Grow_to@2
$LN4@Grow_to@2:
  0001e	03 c1		 add	 eax, ecx
$LN5@Grow_to@2:

; 1279 : 		if (_Capacity < _Count)

  00020	3b 45 08	 cmp	 eax, DWORD PTR __Count$[ebp]

; 1280 : 			_Capacity = _Count;

  00023	0f 42 45 08	 cmovb	 eax, DWORD PTR __Count$[ebp]

; 1281 : 		return (_Capacity);
; 1282 : 		}

  00027	5d		 pop	 ebp
  00028	c2 04 00	 ret	 4
?_Grow_to@?$vector@HV?$allocator@H@std@@@std@@IBEII@Z ENDP ; std::vector<int,std::allocator<int> >::_Grow_to
_TEXT	ENDS
PUBLIC	?allocate@?$allocator@H@std@@QAEPAHI@Z		; std::allocator<int>::allocate
; Function compile flags: /Ogsp
; File c:\program files (x86)\microsoft visual studio 10.0\vc\include\xmemory
;	COMDAT ?allocate@?$allocator@H@std@@QAEPAHI@Z
_TEXT	SEGMENT
__Count$ = 8						; size = 4
?allocate@?$allocator@H@std@@QAEPAHI@Z PROC		; std::allocator<int>::allocate, COMDAT
; _this$ = ecx

; 186  : 		{	// allocate array of _Count elements

  00000	55		 push	 ebp
  00001	8b ec		 mov	 ebp, esp

; 187  : 		return (_Allocate(_Count, (pointer)0));

  00003	6a 00		 push	 0
  00005	ff 75 08	 push	 DWORD PTR __Count$[ebp]
  00008	e8 00 00 00 00	 call	 ??$_Allocate@H@std@@YAPAHIPAH@Z ; std::_Allocate<int>
  0000d	59		 pop	 ecx
  0000e	59		 pop	 ecx

; 188  : 		}

  0000f	5d		 pop	 ebp
  00010	c2 04 00	 ret	 4
?allocate@?$allocator@H@std@@QAEPAHI@Z ENDP		; std::allocator<int>::allocate
_TEXT	ENDS
PUBLIC	??8?$_Vector_const_iterator@V?$_Vector_val@HV?$allocator@H@std@@@std@@@std@@QBE_NABV01@@Z ; std::_Vector_const_iterator<std::_Vector_val<int,std::allocator<int> > >::operator==
; Function compile flags: /Ogsp
; File c:\program files (x86)\microsoft visual studio 10.0\vc\include\vector
;	COMDAT ??8?$_Vector_const_iterator@V?$_Vector_val@HV?$allocator@H@std@@@std@@@std@@QBE_NABV01@@Z
_TEXT	SEGMENT
__Right$ = 8						; size = 4
??8?$_Vector_const_iterator@V?$_Vector_val@HV?$allocator@H@std@@@std@@@std@@QBE_NABV01@@Z PROC ; std::_Vector_const_iterator<std::_Vector_val<int,std::allocator<int> > >::operator==, COMDAT
; _this$ = ecx

; 201  : 		{	// test for iterator equality

  00000	55		 push	 ebp
  00001	8b ec		 mov	 ebp, esp

; 202  : 		_Compat(_Right);
; 203  : 		return (this->_Ptr == _Right._Ptr);

  00003	8b 01		 mov	 eax, DWORD PTR [ecx]
  00005	8b 4d 08	 mov	 ecx, DWORD PTR __Right$[ebp]
  00008	2b 01		 sub	 eax, DWORD PTR [ecx]
  0000a	f7 d8		 neg	 eax
  0000c	1b c0		 sbb	 eax, eax
  0000e	40		 inc	 eax

; 204  : 		}

  0000f	5d		 pop	 ebp
  00010	c2 04 00	 ret	 4
??8?$_Vector_const_iterator@V?$_Vector_val@HV?$allocator@H@std@@@std@@@std@@QBE_NABV01@@Z ENDP ; std::_Vector_const_iterator<std::_Vector_val<int,std::allocator<int> > >::operator==
_TEXT	ENDS
PUBLIC	??8?$_Vector_const_iterator@V?$_Vector_val@VioHashString@@V?$allocator@VioHashString@@@std@@@std@@@std@@QBE_NABV01@@Z ; std::_Vector_const_iterator<std::_Vector_val<ioHashString,std::allocator<ioHashString> > >::operator==
; Function compile flags: /Ogsp
;	COMDAT ??8?$_Vector_const_iterator@V?$_Vector_val@VioHashString@@V?$allocator@VioHashString@@@std@@@std@@@std@@QBE_NABV01@@Z
_TEXT	SEGMENT
__Right$ = 8						; size = 4
??8?$_Vector_const_iterator@V?$_Vector_val@VioHashString@@V?$allocator@VioHashString@@@std@@@std@@@std@@QBE_NABV01@@Z PROC ; std::_Vector_const_iterator<std::_Vector_val<ioHashString,std::allocator<ioHashString> > >::operator==, COMDAT
; _this$ = ecx

; 201  : 		{	// test for iterator equality

  00000	55		 push	 ebp
  00001	8b ec		 mov	 ebp, esp

; 202  : 		_Compat(_Right);
; 203  : 		return (this->_Ptr == _Right._Ptr);

  00003	8b 01		 mov	 eax, DWORD PTR [ecx]
  00005	8b 4d 08	 mov	 ecx, DWORD PTR __Right$[ebp]
  00008	2b 01		 sub	 eax, DWORD PTR [ecx]
  0000a	f7 d8		 neg	 eax
  0000c	1b c0		 sbb	 eax, eax
  0000e	40		 inc	 eax

; 204  : 		}

  0000f	5d		 pop	 ebp
  00010	c2 04 00	 ret	 4
??8?$_Vector_const_iterator@V?$_Vector_val@VioHashString@@V?$allocator@VioHashString@@@std@@@std@@@std@@QBE_NABV01@@Z ENDP ; std::_Vector_const_iterator<std::_Vector_val<ioHashString,std::allocator<ioHashString> > >::operator==
_TEXT	ENDS
PUBLIC	??$_Move@PAHPAH@std@@YAPAHPAH00@Z		; std::_Move<int *,int *>
; Function compile flags: /Ogsp
; File c:\program files (x86)\microsoft visual studio 10.0\vc\include\xutility
;	COMDAT ??$_Move@PAHPAH@std@@YAPAHPAH00@Z
_TEXT	SEGMENT
__Cat$521141 = -4					; size = 1
__First$ = 8						; size = 4
__Last$ = 12						; size = 4
__Dest$ = 16						; size = 4
??$_Move@PAHPAH@std@@YAPAHPAH00@Z PROC			; std::_Move<int *,int *>, COMDAT

; 2533 : 	{	// move [_First, _Last) to [_Dest, ...), unchecked

  00000	55		 push	 ebp
  00001	8b ec		 mov	 ebp, esp
  00003	51		 push	 ecx

; 2534 : 	return (_Move(_First, _Last,
; 2535 : 		_Dest, _Ptr_cat(_First, _Dest)));

  00004	ff 75 fc	 push	 DWORD PTR __Cat$521141[ebp]
  00007	ff 75 10	 push	 DWORD PTR __Dest$[ebp]
  0000a	ff 75 0c	 push	 DWORD PTR __Last$[ebp]
  0000d	ff 75 08	 push	 DWORD PTR __First$[ebp]
  00010	e8 00 00 00 00	 call	 ??$_Move@PAHPAH@std@@YAPAHPAH00U_Scalar_ptr_iterator_tag@0@@Z ; std::_Move<int *,int *>
  00015	83 c4 10	 add	 esp, 16			; 00000010H

; 2536 : 	}

  00018	c9		 leave
  00019	c3		 ret	 0
??$_Move@PAHPAH@std@@YAPAHPAH00@Z ENDP			; std::_Move<int *,int *>
_TEXT	ENDS
PUBLIC	??$_Destroy_range@V?$allocator@H@std@@@std@@YAXPAH0AAV?$allocator@H@0@@Z ; std::_Destroy_range<std::allocator<int> >
; Function compile flags: /Ogsp
; File c:\program files (x86)\microsoft visual studio 10.0\vc\include\xmemory
;	COMDAT ??$_Destroy_range@V?$allocator@H@std@@@std@@YAXPAH0AAV?$allocator@H@0@@Z
_TEXT	SEGMENT
__First$ = 8						; size = 4
__Last$ = 12						; size = 4
__Al$ = 16						; size = 4
??$_Destroy_range@V?$allocator@H@std@@@std@@YAXPAH0AAV?$allocator@H@0@@Z PROC ; std::_Destroy_range<std::allocator<int> >, COMDAT

; 88   : 	_Destroy_range(_First, _Last, _Al, _Ptr_cat(_First, _Last));
; 89   : 	}

  00000	c3		 ret	 0
??$_Destroy_range@V?$allocator@H@std@@@std@@YAXPAH0AAV?$allocator@H@0@@Z ENDP ; std::_Destroy_range<std::allocator<int> >
_TEXT	ENDS
PUBLIC	??$_Move@PAVioHashString@@PAV1@@std@@YAPAVioHashString@@PAV1@00U_Nonscalar_ptr_iterator_tag@0@@Z ; std::_Move<ioHashString *,ioHashString *>
; Function compile flags: /Ogsp
; File c:\program files (x86)\microsoft visual studio 10.0\vc\include\xutility
;	COMDAT ??$_Move@PAVioHashString@@PAV1@@std@@YAPAVioHashString@@PAV1@00U_Nonscalar_ptr_iterator_tag@0@@Z
_TEXT	SEGMENT
__First$ = 8						; size = 4
__Last$ = 12						; size = 4
__Dest$ = 16						; size = 4
___formal$ = 20						; size = 1
??$_Move@PAVioHashString@@PAV1@@std@@YAPAVioHashString@@PAV1@00U_Nonscalar_ptr_iterator_tag@0@@Z PROC ; std::_Move<ioHashString *,ioHashString *>, COMDAT

; 2512 : 	{	// move [_First, _Last) to [_Dest, ...), arbitrary iterators

  00000	55		 push	 ebp
  00001	8b ec		 mov	 ebp, esp
  00003	56		 push	 esi

; 2513 : 	for (; _First != _Last; ++_Dest, ++_First)

  00004	8b 75 08	 mov	 esi, DWORD PTR __First$[ebp]
  00007	eb 11		 jmp	 SHORT $LN11@Move
$LL3@Move:

; 2514 : 		*_Dest = _STD move(*_First);

  00009	8b 4d 10	 mov	 ecx, DWORD PTR __Dest$[ebp]
  0000c	56		 push	 esi
  0000d	ff 15 00 00 00
	00		 call	 DWORD PTR __imp_??4ioHashString@@QAEAAV0@ABV0@@Z
  00013	83 45 10 10	 add	 DWORD PTR __Dest$[ebp], 16 ; 00000010H
  00017	83 c6 10	 add	 esi, 16			; 00000010H
$LN11@Move:

; 2513 : 	for (; _First != _Last; ++_Dest, ++_First)

  0001a	3b 75 0c	 cmp	 esi, DWORD PTR __Last$[ebp]
  0001d	75 ea		 jne	 SHORT $LL3@Move

; 2515 : 	return (_Dest);

  0001f	8b 45 10	 mov	 eax, DWORD PTR __Dest$[ebp]
  00022	5e		 pop	 esi

; 2516 : 	}

  00023	5d		 pop	 ebp
  00024	c3		 ret	 0
??$_Move@PAVioHashString@@PAV1@@std@@YAPAVioHashString@@PAV1@00U_Nonscalar_ptr_iterator_tag@0@@Z ENDP ; std::_Move<ioHashString *,ioHashString *>
_TEXT	ENDS
PUBLIC	??$_Uninitialized_move@PAHPAHV?$allocator@H@std@@@std@@YAPAHPAH00AAV?$allocator@H@0@@Z ; std::_Uninitialized_move<int *,int *,std::allocator<int> >
; Function compile flags: /Ogsp
; File c:\program files (x86)\microsoft visual studio 10.0\vc\include\memory
;	COMDAT ??$_Uninitialized_move@PAHPAHV?$allocator@H@std@@@std@@YAPAHPAH00AAV?$allocator@H@0@@Z
_TEXT	SEGMENT
__First$ = 8						; size = 4
__Last$ = 12						; size = 4
__Dest$ = 16						; size = 4
__Al$ = 20						; size = 4
??$_Uninitialized_move@PAHPAHV?$allocator@H@std@@@std@@YAPAHPAH00AAV?$allocator@H@0@@Z PROC ; std::_Uninitialized_move<int *,int *,std::allocator<int> >, COMDAT

; 469  : 	{	// move [_First, _Last) to raw _Dest, using _Al

  00000	55		 push	 ebp
  00001	8b ec		 mov	 ebp, esp
  00003	56		 push	 esi

; 470  : 	return (_Uninit_move(_First, _Last, _Dest, _Al,
; 471  : 		_Val_type(_First), _Ptr_cat(_First, _Dest)));

  00004	8b 75 0c	 mov	 esi, DWORD PTR __Last$[ebp]
  00007	2b 75 08	 sub	 esi, DWORD PTR __First$[ebp]
  0000a	c1 fe 02	 sar	 esi, 2
  0000d	c1 e6 02	 shl	 esi, 2
  00010	56		 push	 esi
  00011	ff 75 08	 push	 DWORD PTR __First$[ebp]
  00014	ff 75 10	 push	 DWORD PTR __Dest$[ebp]
  00017	ff 15 00 00 00
	00		 call	 DWORD PTR __imp__memmove
  0001d	83 c4 0c	 add	 esp, 12			; 0000000cH
  00020	03 c6		 add	 eax, esi
  00022	5e		 pop	 esi

; 472  : 	}

  00023	5d		 pop	 ebp
  00024	c3		 ret	 0
??$_Uninitialized_move@PAHPAHV?$allocator@H@std@@@std@@YAPAHPAH00AAV?$allocator@H@0@@Z ENDP ; std::_Uninitialized_move<int *,int *,std::allocator<int> >
_TEXT	ENDS
PUBLIC	??$_Destroy@VioHashString@@@std@@YAXPAVioHashString@@@Z ; std::_Destroy<ioHashString>
; Function compile flags: /Ogsp
; File c:\program files (x86)\microsoft visual studio 10.0\vc\include\xmemory
;	COMDAT ??$_Destroy@VioHashString@@@std@@YAXPAVioHashString@@@Z
_TEXT	SEGMENT
__Ptr$ = 8						; size = 4
??$_Destroy@VioHashString@@@std@@YAXPAVioHashString@@@Z PROC ; std::_Destroy<ioHashString>, COMDAT

; 62   : 	{	// destroy object at _Ptr

  00000	55		 push	 ebp
  00001	8b ec		 mov	 ebp, esp

; 63   : 	_Ptr->~_Ty();

  00003	8b 4d 08	 mov	 ecx, DWORD PTR __Ptr$[ebp]

; 64   : 	}

  00006	5d		 pop	 ebp

; 63   : 	_Ptr->~_Ty();

  00007	ff 25 00 00 00
	00		 jmp	 DWORD PTR __imp_??1ioHashString@@QAE@XZ
??$_Destroy@VioHashString@@@std@@YAXPAVioHashString@@@Z ENDP ; std::_Destroy<ioHashString>
_TEXT	ENDS
PUBLIC	?construct@?$allocator@VioHashString@@@std@@QAEXPAVioHashString@@ABV3@@Z ; std::allocator<ioHashString>::construct
; Function compile flags: /Ogsp
;	COMDAT ?construct@?$allocator@VioHashString@@@std@@QAEXPAVioHashString@@ABV3@@Z
_TEXT	SEGMENT
__Ptr$ = 8						; size = 4
__Val$ = 12						; size = 4
?construct@?$allocator@VioHashString@@@std@@QAEXPAVioHashString@@ABV3@@Z PROC ; std::allocator<ioHashString>::construct, COMDAT
; _this$ = ecx

; 196  : 		{	// construct object at _Ptr with value _Val

  00000	55		 push	 ebp
  00001	8b ec		 mov	 ebp, esp

; 197  : 		_Construct(_Ptr, _Val);

  00003	ff 75 0c	 push	 DWORD PTR __Val$[ebp]
  00006	ff 75 08	 push	 DWORD PTR __Ptr$[ebp]
  00009	e8 00 00 00 00	 call	 ??$_Construct@VioHashString@@ABV1@@std@@YAXPAVioHashString@@ABV1@@Z ; std::_Construct<ioHashString,ioHashString const &>
  0000e	59		 pop	 ecx
  0000f	59		 pop	 ecx

; 198  : 		}

  00010	5d		 pop	 ebp
  00011	c2 08 00	 ret	 8
?construct@?$allocator@VioHashString@@@std@@QAEXPAVioHashString@@ABV3@@Z ENDP ; std::allocator<ioHashString>::construct
_TEXT	ENDS
PUBLIC	_pImage$GSCopy$
PUBLIC	_this$GSCopy$
PUBLIC	_szType$GSCopy$
PUBLIC	__$ArrayPad$
PUBLIC	?AddRenderImage@GashaponWnd@@UAEXABVioHashString@@PAVioUIRenderImage@@@Z ; GashaponWnd::AddRenderImage
EXTRN	__imp_?AddRenderImage@ioWnd@@UAEXABVioHashString@@PAVioUIRenderImage@@@Z:PROC
; Function compile flags: /Ogsp
; File d:\lost saga for developer\youtube\tutorial\source\src\lsclient\gui\gashaponwnd.cpp
;	COMDAT ?AddRenderImage@GashaponWnd@@UAEXABVioHashString@@PAVioUIRenderImage@@@Z
_TEXT	SEGMENT
_pImage$GSCopy$ = -40					; size = 4
_this$GSCopy$ = -36					; size = 4
_szType$GSCopy$ = -32					; size = 4
__t$521353 = -28					; size = 18
__t$521545 = -24					; size = 14
__t$521215 = -24					; size = 12
__$ArrayPad$ = -4					; size = 4
_szType$ = 8						; size = 4
_pImage$ = 12						; size = 4
?AddRenderImage@GashaponWnd@@UAEXABVioHashString@@PAVioUIRenderImage@@@Z PROC ; GashaponWnd::AddRenderImage, COMDAT
; _this$ = ecx

; 104  : {

  00000	55		 push	 ebp
  00001	8b ec		 mov	 ebp, esp
  00003	83 ec 28	 sub	 esp, 40			; 00000028H
  00006	a1 00 00 00 00	 mov	 eax, DWORD PTR ___security_cookie
  0000b	33 c5		 xor	 eax, ebp
  0000d	89 45 fc	 mov	 DWORD PTR __$ArrayPad$[ebp], eax
  00010	8b 45 08	 mov	 eax, DWORD PTR _szType$[ebp]
  00013	53		 push	 ebx
  00014	56		 push	 esi
  00015	57		 push	 edi

; 114  : 	}
; 115  : 	else if( szType == "costume_image" )

  00016	89 45 e0	 mov	 DWORD PTR _szType$GSCopy$[ebp], eax
  00019	8b 45 0c	 mov	 eax, DWORD PTR _pImage$[ebp]
  0001c	6a 02		 push	 2
  0001e	89 4d dc	 mov	 DWORD PTR _this$GSCopy$[ebp], ecx
  00021	89 45 d8	 mov	 DWORD PTR _pImage$GSCopy$[ebp], eax
  00024	c7 45 e8 8f 8d
	88 81		 mov	 DWORD PTR __t$521215[ebp], -2121757297 ; 81888d8fH
  0002b	c7 45 ec b2 89
	8d 8c		 mov	 DWORD PTR __t$521215[ebp+4], -1936881230 ; 8c8d89b2H
  00032	8d 45 e8	 lea	 eax, DWORD PTR __t$521215[ebp]
  00035	33 db		 xor	 ebx, ebx
  00037	c7 45 f0 88 8f
	9f 00		 mov	 DWORD PTR __t$521215[ebp+8], 10456968 ; 009f8f88H
  0003e	59		 pop	 ecx
  0003f	bf ed ec eb ea	 mov	 edi, -353637139		; eaebecedH
$LL121@AddRenderI:

; 105  : 	if( szType == "back_effect" )

  00044	31 38		 xor	 DWORD PTR [eax], edi
  00046	83 c0 04	 add	 eax, 4
  00049	49		 dec	 ecx
  0004a	75 f8		 jne	 SHORT $LL121@AddRenderI
  0004c	6a 08		 push	 8
  0004e	58		 pop	 eax
$LL118@AddRenderI:
  0004f	8b c8		 mov	 ecx, eax
  00051	81 e1 03 00 00
	80		 and	 ecx, -2147483645	; 80000003H
  00057	79 05		 jns	 SHORT $LN362@AddRenderI
  00059	49		 dec	 ecx
  0005a	83 c9 fc	 or	 ecx, -4			; fffffffcH
  0005d	41		 inc	 ecx
$LN362@AddRenderI:
  0005e	b2 ed		 mov	 dl, -19			; ffffffedH
  00060	2a d1		 sub	 dl, cl
  00062	30 54 05 e8	 xor	 BYTE PTR __t$521215[ebp+eax], dl
  00066	40		 inc	 eax
  00067	83 f8 0b	 cmp	 eax, 11			; 0000000bH
  0006a	7c e3		 jl	 SHORT $LL118@AddRenderI
  0006c	8b 4d e0	 mov	 ecx, DWORD PTR _szType$GSCopy$[ebp]
  0006f	8d 75 e8	 lea	 esi, DWORD PTR __t$521215[ebp]
  00072	ff 15 00 00 00
	00		 call	 DWORD PTR __imp_?c_str@ioHashString@@QBEPBDXZ
$LL350@AddRenderI:
  00078	8a 08		 mov	 cl, BYTE PTR [eax]
  0007a	3a 0e		 cmp	 cl, BYTE PTR [esi]
  0007c	75 1a		 jne	 SHORT $LN351@AddRenderI
  0007e	3a cb		 cmp	 cl, bl
  00080	74 12		 je	 SHORT $LN352@AddRenderI
  00082	8a 48 01	 mov	 cl, BYTE PTR [eax+1]
  00085	3a 4e 01	 cmp	 cl, BYTE PTR [esi+1]
  00088	75 0e		 jne	 SHORT $LN351@AddRenderI
  0008a	83 c0 02	 add	 eax, 2
  0008d	83 c6 02	 add	 esi, 2
  00090	3a cb		 cmp	 cl, bl
  00092	75 e4		 jne	 SHORT $LL350@AddRenderI
$LN352@AddRenderI:
  00094	33 c0		 xor	 eax, eax
  00096	eb 05		 jmp	 SHORT $LN353@AddRenderI
$LN351@AddRenderI:
  00098	1b c0		 sbb	 eax, eax
  0009a	83 d8 ff	 sbb	 eax, -1
$LN353@AddRenderI:
  0009d	3b c3		 cmp	 eax, ebx
  0009f	75 28		 jne	 SHORT $LN348@AddRenderI

; 106  : 	{
; 107  : 		SAFEDELETE( m_pBackEffect );

  000a1	8b 75 dc	 mov	 esi, DWORD PTR _this$GSCopy$[ebp]
  000a4	8b 8e 68 01 00
	00		 mov	 ecx, DWORD PTR [esi+360]
  000aa	3b cb		 cmp	 ecx, ebx
  000ac	74 0d		 je	 SHORT $LN8@AddRenderI
  000ae	8b 01		 mov	 eax, DWORD PTR [ecx]
  000b0	6a 01		 push	 1
  000b2	ff 50 40	 call	 DWORD PTR [eax+64]
  000b5	89 9e 68 01 00
	00		 mov	 DWORD PTR [esi+360], ebx
$LN8@AddRenderI:

; 108  : 		m_pBackEffect = pImage;

  000bb	8b 45 d8	 mov	 eax, DWORD PTR _pImage$GSCopy$[ebp]
  000be	89 86 68 01 00
	00		 mov	 DWORD PTR [esi+360], eax
  000c4	e9 27 01 00 00	 jmp	 $LN1@AddRenderI
$LN348@AddRenderI:

; 109  : 	}
; 110  : 	else if( szType == "final_back_effect" )

  000c9	6a 04		 push	 4
  000cb	c7 45 e4 8b 85
	85 8b		 mov	 DWORD PTR __t$521353[ebp], -1954183797 ; 8b85858bH
  000d2	c7 45 e8 81 b3
	89 8b		 mov	 DWORD PTR __t$521353[ebp+4], -1953909887 ; 8b89b381H
  000d9	c7 45 ec 8e 87
	b4 8f		 mov	 DWORD PTR __t$521353[ebp+8], -1883994226 ; 8fb4878eH
  000e0	c7 45 f0 8b 8a
	8e 89		 mov	 DWORD PTR __t$521353[ebp+12], -1987147125 ; 898e8a8bH
  000e7	8d 45 e4	 lea	 eax, DWORD PTR __t$521353[ebp]
  000ea	66 c7 45 f4 99
	00		 mov	 WORD PTR __t$521353[ebp+16], 153 ; 00000099H
  000f0	59		 pop	 ecx
$LL227@AddRenderI:
  000f1	31 38		 xor	 DWORD PTR [eax], edi
  000f3	83 c0 04	 add	 eax, 4
  000f6	49		 dec	 ecx
  000f7	75 f8		 jne	 SHORT $LL227@AddRenderI
  000f9	8b 4d e0	 mov	 ecx, DWORD PTR _szType$GSCopy$[ebp]
  000fc	80 75 f4 ed	 xor	 BYTE PTR __t$521353[ebp+16], -19 ; ffffffedH
  00100	8d 75 e4	 lea	 esi, DWORD PTR __t$521353[ebp]
  00103	ff 15 00 00 00
	00		 call	 DWORD PTR __imp_?c_str@ioHashString@@QBEPBDXZ
$LL354@AddRenderI:
  00109	8a 08		 mov	 cl, BYTE PTR [eax]
  0010b	3a 0e		 cmp	 cl, BYTE PTR [esi]
  0010d	75 1a		 jne	 SHORT $LN355@AddRenderI
  0010f	3a cb		 cmp	 cl, bl
  00111	74 12		 je	 SHORT $LN356@AddRenderI
  00113	8a 48 01	 mov	 cl, BYTE PTR [eax+1]
  00116	3a 4e 01	 cmp	 cl, BYTE PTR [esi+1]
  00119	75 0e		 jne	 SHORT $LN355@AddRenderI
  0011b	83 c0 02	 add	 eax, 2
  0011e	83 c6 02	 add	 esi, 2
  00121	3a cb		 cmp	 cl, bl
  00123	75 e4		 jne	 SHORT $LL354@AddRenderI
$LN356@AddRenderI:
  00125	33 c0		 xor	 eax, eax
  00127	eb 05		 jmp	 SHORT $LN357@AddRenderI
$LN355@AddRenderI:
  00129	1b c0		 sbb	 eax, eax
  0012b	83 d8 ff	 sbb	 eax, -1
$LN357@AddRenderI:
  0012e	3b c3		 cmp	 eax, ebx
  00130	75 28		 jne	 SHORT $LN349@AddRenderI

; 111  : 	{
; 112  : 		SAFEDELETE( m_pFinalBackEffect );

  00132	8b 75 dc	 mov	 esi, DWORD PTR _this$GSCopy$[ebp]
  00135	8b 8e 6c 01 00
	00		 mov	 ecx, DWORD PTR [esi+364]
  0013b	3b cb		 cmp	 ecx, ebx
  0013d	74 0d		 je	 SHORT $LN5@AddRenderI
  0013f	8b 01		 mov	 eax, DWORD PTR [ecx]
  00141	6a 01		 push	 1
  00143	ff 50 40	 call	 DWORD PTR [eax+64]
  00146	89 9e 6c 01 00
	00		 mov	 DWORD PTR [esi+364], ebx
$LN5@AddRenderI:

; 113  : 		m_pFinalBackEffect = pImage;

  0014c	8b 45 d8	 mov	 eax, DWORD PTR _pImage$GSCopy$[ebp]
  0014f	89 86 6c 01 00
	00		 mov	 DWORD PTR [esi+364], eax
  00155	e9 96 00 00 00	 jmp	 $LN1@AddRenderI
$LN349@AddRenderI:

; 114  : 	}
; 115  : 	else if( szType == "costume_image" )

  0015a	6a 03		 push	 3
  0015c	c7 45 e8 8e 83
	98 9e		 mov	 DWORD PTR __t$521545[ebp], -1634172018 ; 9e98838eH
  00163	c7 45 ec 98 81
	8e b5		 mov	 DWORD PTR __t$521545[ebp+4], -1248951912 ; b58e8198H
  0016a	c7 45 f0 84 81
	8a 8d		 mov	 DWORD PTR __t$521545[ebp+8], -1920302716 ; 8d8a8184H
  00171	8d 45 e8	 lea	 eax, DWORD PTR __t$521545[ebp]
  00174	66 c7 45 f4 88
	00		 mov	 WORD PTR __t$521545[ebp+12], 136 ; 00000088H
  0017a	59		 pop	 ecx
$LL333@AddRenderI:
  0017b	31 38		 xor	 DWORD PTR [eax], edi
  0017d	83 c0 04	 add	 eax, 4
  00180	49		 dec	 ecx
  00181	75 f8		 jne	 SHORT $LL333@AddRenderI
  00183	8b 4d e0	 mov	 ecx, DWORD PTR _szType$GSCopy$[ebp]
  00186	80 75 f4 ed	 xor	 BYTE PTR __t$521545[ebp+12], -19 ; ffffffedH
  0018a	8d 75 e8	 lea	 esi, DWORD PTR __t$521545[ebp]
  0018d	ff 15 00 00 00
	00		 call	 DWORD PTR __imp_?c_str@ioHashString@@QBEPBDXZ
$LL358@AddRenderI:
  00193	8a 08		 mov	 cl, BYTE PTR [eax]
  00195	3a 0e		 cmp	 cl, BYTE PTR [esi]
  00197	75 1a		 jne	 SHORT $LN359@AddRenderI
  00199	3a cb		 cmp	 cl, bl
  0019b	74 12		 je	 SHORT $LN360@AddRenderI
  0019d	8a 48 01	 mov	 cl, BYTE PTR [eax+1]
  001a0	3a 4e 01	 cmp	 cl, BYTE PTR [esi+1]
  001a3	75 0e		 jne	 SHORT $LN359@AddRenderI
  001a5	83 c0 02	 add	 eax, 2
  001a8	83 c6 02	 add	 esi, 2
  001ab	3a cb		 cmp	 cl, bl
  001ad	75 e4		 jne	 SHORT $LL358@AddRenderI
$LN360@AddRenderI:
  001af	33 c0		 xor	 eax, eax
  001b1	eb 05		 jmp	 SHORT $LN361@AddRenderI
$LN359@AddRenderI:
  001b3	1b c0		 sbb	 eax, eax
  001b5	83 d8 ff	 sbb	 eax, -1
$LN361@AddRenderI:
  001b8	3b c3		 cmp	 eax, ebx
  001ba	75 25		 jne	 SHORT $LN3@AddRenderI

; 116  : 	{
; 117  : 		SAFEDELETE( m_pCostumeMark );

  001bc	8b 75 dc	 mov	 esi, DWORD PTR _this$GSCopy$[ebp]
  001bf	8b 8e 70 01 00
	00		 mov	 ecx, DWORD PTR [esi+368]
  001c5	3b cb		 cmp	 ecx, ebx
  001c7	74 0d		 je	 SHORT $LN2@AddRenderI
  001c9	8b 01		 mov	 eax, DWORD PTR [ecx]
  001cb	6a 01		 push	 1
  001cd	ff 50 40	 call	 DWORD PTR [eax+64]
  001d0	89 9e 70 01 00
	00		 mov	 DWORD PTR [esi+368], ebx
$LN2@AddRenderI:

; 118  : 		m_pCostumeMark = pImage;

  001d6	8b 45 d8	 mov	 eax, DWORD PTR _pImage$GSCopy$[ebp]
  001d9	89 86 70 01 00
	00		 mov	 DWORD PTR [esi+368], eax

; 119  : 	}
; 120  : 	else

  001df	eb 0f		 jmp	 SHORT $LN1@AddRenderI
$LN3@AddRenderI:

; 121  : 		ioWnd::AddRenderImage( szType, pImage );

  001e1	ff 75 d8	 push	 DWORD PTR _pImage$GSCopy$[ebp]
  001e4	8b 4d dc	 mov	 ecx, DWORD PTR _this$GSCopy$[ebp]
  001e7	ff 75 e0	 push	 DWORD PTR _szType$GSCopy$[ebp]
  001ea	ff 15 00 00 00
	00		 call	 DWORD PTR __imp_?AddRenderImage@ioWnd@@UAEXABVioHashString@@PAVioUIRenderImage@@@Z
$LN1@AddRenderI:

; 122  : }

  001f0	8b 4d fc	 mov	 ecx, DWORD PTR __$ArrayPad$[ebp]
  001f3	5f		 pop	 edi
  001f4	5e		 pop	 esi
  001f5	33 cd		 xor	 ecx, ebp
  001f7	5b		 pop	 ebx
  001f8	e8 00 00 00 00	 call	 @__security_check_cookie@4
  001fd	c9		 leave
  001fe	c2 08 00	 ret	 8
?AddRenderImage@GashaponWnd@@UAEXABVioHashString@@PAVioUIRenderImage@@@Z ENDP ; GashaponWnd::AddRenderImage
_TEXT	ENDS
PUBLIC	??_C@_00CNPNBAHC@?$AA@				; `string'
PUBLIC	__real@3f800000
PUBLIC	?ShowRandomBox@GashaponWnd@@QAEXKK@Z		; GashaponWnd::ShowRandomBox
EXTRN	__imp_?PlaySoundA@ioSoundManager@@QAEKABVioHashString@@HK@Z:PROC
EXTRN	__imp_?SetTitleText@ioWnd@@QAEXPBD0H@Z:PROC
EXTRN	?GetSingletonPtr@ioEtcInvenSubManualMgr@@SAPAV1@XZ:PROC ; ioEtcInvenSubManualMgr::GetSingletonPtr
;	COMDAT ??_C@_00CNPNBAHC@?$AA@
CONST	SEGMENT
??_C@_00CNPNBAHC@?$AA@ DB 00H				; `string'
CONST	ENDS
;	COMDAT __real@3f800000
CONST	SEGMENT
__real@3f800000 DD 03f800000r			; 1
; Function compile flags: /Ogsp
CONST	ENDS
;	COMDAT ?ShowRandomBox@GashaponWnd@@QAEXKK@Z
_TEXT	SEGMENT
_dwPossessEtcItemType$ = 8				; size = 4
_dwEtcItemType$ = 12					; size = 4
?ShowRandomBox@GashaponWnd@@QAEXKK@Z PROC		; GashaponWnd::ShowRandomBox, COMDAT
; _this$ = ecx

; 240  : {

  00000	55		 push	 ebp
  00001	8b ec		 mov	 ebp, esp

; 241  : 	m_dwEtcItemType = dwEtcItemType;

  00003	8b 45 0c	 mov	 eax, DWORD PTR _dwEtcItemType$[ebp]
  00006	53		 push	 ebx
  00007	56		 push	 esi
  00008	8b f1		 mov	 esi, ecx
  0000a	89 86 08 a7 04
	00		 mov	 DWORD PTR [esi+304904], eax

; 242  : 	m_dwPossessEtcItemType = dwPossessEtcItemType;

  00010	8b 45 08	 mov	 eax, DWORD PTR _dwPossessEtcItemType$[ebp]
  00013	57		 push	 edi
  00014	89 86 0c a7 04
	00		 mov	 DWORD PTR [esi+304908], eax

; 243  : 	m_pManual = ioEtcInvenSubManualMgr::GetSingletonPtr();

  0001a	e8 00 00 00 00	 call	 ?GetSingletonPtr@ioEtcInvenSubManualMgr@@SAPAV1@XZ ; ioEtcInvenSubManualMgr::GetSingletonPtr

; 244  : 
; 245  : 	ShowWnd();

  0001f	8b ce		 mov	 ecx, esi
  00021	89 86 74 01 00
	00		 mov	 DWORD PTR [esi+372], eax
  00027	ff 15 00 00 00
	00		 call	 DWORD PTR __imp_?ShowWnd@ioWnd@@QAEXXZ

; 246  : 
; 247  : 	m_bResult = false;
; 248  : 	m_bFinalResult = false;
; 249  : 	m_iPresentType   = 0;
; 250  : 	m_iPresentValue1 = 0;
; 251  : 	m_iPresentValue2 = 0;
; 252  : 	m_iPresentValue3 = 0;
; 253  : 	m_iPresentValue4 = 0;
; 254  : 	m_bAlarm         = false;
; 255  : 	m_iPresentPeso   = 0;
; 256  : 	m_bIsCostume = false;
; 257  : 	m_nGradeType = 0;
; 258  : 	m_fGradeScale = 1.0f;

  0002d	f3 0f 10 05 00
	00 00 00	 movss	 xmm0, DWORD PTR __real@3f800000
  00035	33 db		 xor	 ebx, ebx
  00037	33 c0		 xor	 eax, eax
  00039	66 89 9e 88 83
	03 00		 mov	 WORD PTR [esi+230280], bx
  00040	66 89 86 6c 83
	03 00		 mov	 WORD PTR [esi+230252], ax
  00047	89 9e 70 83 03
	00		 mov	 DWORD PTR [esi+230256], ebx
  0004d	89 9e 74 83 03
	00		 mov	 DWORD PTR [esi+230260], ebx
  00053	89 9e 78 83 03
	00		 mov	 DWORD PTR [esi+230264], ebx
  00059	89 9e 7c 83 03
	00		 mov	 DWORD PTR [esi+230268], ebx
  0005f	88 9e 80 83 03
	00		 mov	 BYTE PTR [esi+230272], bl
  00065	89 9e 84 83 03
	00		 mov	 DWORD PTR [esi+230276], ebx
  0006b	88 9e 10 a7 04
	00		 mov	 BYTE PTR [esi+304912], bl
  00071	89 9e 14 a7 04
	00		 mov	 DWORD PTR [esi+304916], ebx
  00077	f3 0f 11 86 18
	a7 04 00	 movss	 DWORD PTR [esi+304920], xmm0

; 259  : 
; 260  : 	DWORD dwCurTime = FRAMEGETTIME();

  0007f	ff 15 00 00 00
	00		 call	 DWORD PTR __imp_?GetSingleton@ioFrameTimer@@SAAAV1@XZ
  00085	8b c8		 mov	 ecx, eax
  00087	ff 15 00 00 00
	00		 call	 DWORD PTR __imp_?GetLoopSec@ioFrameTimer@@QBEKXZ

; 261  : 	m_dwRollingEndTime = dwCurTime + m_dwRollingTotalTime;

  0008d	8b 8e 98 83 03
	00		 mov	 ecx, DWORD PTR [esi+230296]

; 262  : 	m_dwRollingCheckTime = 0;
; 263  : 	m_dwRollingEffectCheckTime = 0;
; 264  : 
; 265  : 	m_iCurIconArray = -1;

  00093	83 8e 9c 83 03
	00 ff		 or	 DWORD PTR [esi+230300], -1

; 266  : 	m_iCurEffectArray = -1;

  0009a	83 8e ac 83 03
	00 ff		 or	 DWORD PTR [esi+230316], -1
  000a1	03 c8		 add	 ecx, eax
  000a3	89 8e a4 83 03
	00		 mov	 DWORD PTR [esi+230308], ecx

; 267  : 
; 268  : 	SAFEDELETE(m_pIcon);

  000a9	8b 8e 60 01 00
	00		 mov	 ecx, DWORD PTR [esi+352]
  000af	89 9e a0 83 03
	00		 mov	 DWORD PTR [esi+230304], ebx
  000b5	89 9e b4 83 03
	00		 mov	 DWORD PTR [esi+230324], ebx
  000bb	3b cb		 cmp	 ecx, ebx
  000bd	74 0d		 je	 SHORT $LN4@ShowRandom
  000bf	8b 01		 mov	 eax, DWORD PTR [ecx]
  000c1	6a 01		 push	 1
  000c3	ff 50 40	 call	 DWORD PTR [eax+64]
  000c6	89 9e 60 01 00
	00		 mov	 DWORD PTR [esi+352], ebx
$LN4@ShowRandom:

; 269  : 	SAFEDELETE(m_pEffect);

  000cc	8b 8e 64 01 00
	00		 mov	 ecx, DWORD PTR [esi+356]
  000d2	3b cb		 cmp	 ecx, ebx
  000d4	74 0d		 je	 SHORT $LN11@ShowRandom
  000d6	8b 01		 mov	 eax, DWORD PTR [ecx]
  000d8	6a 01		 push	 1
  000da	ff 50 40	 call	 DWORD PTR [eax+64]
  000dd	89 9e 64 01 00
	00		 mov	 DWORD PTR [esi+356], ebx
$LN11@ShowRandom:

; 270  : 
; 271  : 	ReBatchButton( ROLLING_BTN );

  000e3	6a 01		 push	 1
  000e5	8b ce		 mov	 ecx, esi
  000e7	e8 00 00 00 00	 call	 ?ReBatchButton@GashaponWnd@@IAEXH@Z ; GashaponWnd::ReBatchButton

; 272  : 
; 273  : 	if(  !m_szTitle[GetGashaponArray()].IsEmpty() )

  000ec	8b ce		 mov	 ecx, esi
  000ee	e8 00 00 00 00	 call	 ?GetGashaponArray@GashaponWnd@@IAEHXZ ; GashaponWnd::GetGashaponArray
  000f3	03 c0		 add	 eax, eax
  000f5	8d 8c c6 f8 45
	04 00		 lea	 ecx, DWORD PTR [esi+eax*8+280056]
  000fc	ff 15 00 00 00
	00		 call	 DWORD PTR __imp_?IsEmpty@ioHashString@@QBE_NXZ
  00102	84 c0		 test	 al, al
  00104	75 25		 jne	 SHORT $LN2@ShowRandom

; 274  : 		SetTitleText( m_szTitle[GetGashaponArray()].c_str() );

  00106	53		 push	 ebx
  00107	68 00 00 00 00	 push	 OFFSET ??_C@_00CNPNBAHC@?$AA@
  0010c	8b ce		 mov	 ecx, esi
  0010e	e8 00 00 00 00	 call	 ?GetGashaponArray@GashaponWnd@@IAEHXZ ; GashaponWnd::GetGashaponArray
  00113	03 c0		 add	 eax, eax
  00115	8d 8c c6 f8 45
	04 00		 lea	 ecx, DWORD PTR [esi+eax*8+280056]
  0011c	ff 15 00 00 00
	00		 call	 DWORD PTR __imp_?c_str@ioHashString@@QBEPBDXZ
  00122	50		 push	 eax
  00123	8b ce		 mov	 ecx, esi
  00125	ff 15 00 00 00
	00		 call	 DWORD PTR __imp_?SetTitleText@ioWnd@@QAEXPBD0H@Z
$LN2@ShowRandom:

; 275  : 
; 276  : 	if( !m_szRollingSound.IsEmpty() )

  0012b	81 c6 b8 83 03
	00		 add	 esi, 230328		; 000383b8H
  00131	8b ce		 mov	 ecx, esi
  00133	ff 15 00 00 00
	00		 call	 DWORD PTR __imp_?IsEmpty@ioHashString@@QBE_NXZ
  00139	84 c0		 test	 al, al
  0013b	75 12		 jne	 SHORT $LN1@ShowRandom

; 277  : 		g_SoundMgr.PlaySound( m_szRollingSound, DSBVOLUME_MAX, PSM_LOOP | PSM_THREAD );

  0013d	6a 06		 push	 6
  0013f	53		 push	 ebx
  00140	56		 push	 esi
  00141	ff 15 00 00 00
	00		 call	 DWORD PTR __imp_?GetSingleton@ioSoundManager@@SAAAV1@XZ
  00147	8b c8		 mov	 ecx, eax
  00149	ff 15 00 00 00
	00		 call	 DWORD PTR __imp_?PlaySoundA@ioSoundManager@@QAEKABVioHashString@@HK@Z
$LN1@ShowRandom:
  0014f	5f		 pop	 edi
  00150	5e		 pop	 esi
  00151	5b		 pop	 ebx

; 278  : }

  00152	5d		 pop	 ebp
  00153	c2 08 00	 ret	 8
?ShowRandomBox@GashaponWnd@@QAEXKK@Z ENDP		; GashaponWnd::ShowRandomBox
_TEXT	ENDS
PUBLIC	??_C@_0BG@LDMGGMMP@GashaponWnd?3?3OnRender?$AA@	; `string'
PUBLIC	__real@3f59999a
PUBLIC	__real@3f19999a
PUBLIC	__real@40000000
PUBLIC	?OnRender@GashaponWnd@@MAEXXZ			; GashaponWnd::OnRender
EXTRN	??_M@YGXPAXIHP6EX0@Z@Z:PROC			; `eh vector destructor iterator'
EXTRN	?PrintFullText@ioComplexStringPrinter@@QAEXMMW4TextAlignType@@E@Z:PROC ; ioComplexStringPrinter::PrintFullText
EXTRN	?AddTextPiece@ioComplexStringPrinter@@QAAXMPBDZZ:PROC ; ioComplexStringPrinter::AddTextPiece
EXTRN	?SetTextColor@ioComplexStringPrinter@@QAEXK@Z:PROC ; ioComplexStringPrinter::SetTextColor
EXTRN	?SetBkColor@ioComplexStringPrinter@@QAEXHHH@Z:PROC ; ioComplexStringPrinter::SetBkColor
EXTRN	?SetTextStyle@ioComplexStringPrinter@@QAEXW4TextStyle@@@Z:PROC ; ioComplexStringPrinter::SetTextStyle
EXTRN	__imp_??4ioHashString@@QAEAAV0@PBD@Z:PROC
EXTRN	__imp_?SafeSprintf@@YAXPADHPBD1H@Z:PROC
EXTRN	?GetPresentValue2Text@ioPresentMgr@@QAEABVioHashString@@FHH@Z:PROC ; ioPresentMgr::GetPresentValue2Text
EXTRN	?GetPresentValue1Text@ioPresentMgr@@QAEABVioHashString@@FHH@Z:PROC ; ioPresentMgr::GetPresentValue1Text
EXTRN	?GetSingleton@ioPresentMgr@@SAAAV1@XZ:PROC	; ioPresentMgr::GetSingleton
EXTRN	??_L@YGXPAXIHP6EX0@Z1@Z:PROC			; `eh vector constructor iterator'
EXTRN	__imp_?PrintText@ioFontManager@@QAAXMMMPBDZZ:PROC
EXTRN	__imp_?GetString@ioStringManager@@QAEPADPBD0HW4FileNamePrefix@1@@Z:PROC
EXTRN	__imp_?GetSingleton@ioStringManager@@SAAAV1@XZ:PROC
EXTRN	__imp_?SetTextColor@ioFontManager@@QAEXK@Z:PROC
EXTRN	__imp_?SetBkColor@ioFontManager@@QAEXHHH@Z:PROC
EXTRN	__imp_?SetAlignType@ioFontManager@@QAEXW4TextAlignType@@@Z:PROC
EXTRN	__imp_?SetTextStyle@ioFontManager@@QAEXW4TextStyle@@@Z:PROC
EXTRN	__imp_?GetSingleton@ioFontManager@@SAAAV1@XZ:PROC
EXTRN	?RenderGradeIconBack@ioUIImageRenderManager@@QAEXHHHMW4UIRenderType@@W4TextureFilterOption@@HHH_N0@Z:PROC ; ioUIImageRenderManager::RenderGradeIconBack
EXTRN	__imp_?GetDerivedPosY@ioWnd@@QBEHXZ:PROC
EXTRN	__imp_?GetDerivedPosX@ioWnd@@QBEHXZ:PROC
EXTRN	__imp_?OnRender@ioWnd@@MAEXXZ:PROC
EXTRN	__EH_epilog3_GS:PROC
EXTRN	__EH_prolog3_GS:PROC
EXTRN	_memset:PROC
;	COMDAT ??_C@_0BG@LDMGGMMP@GashaponWnd?3?3OnRender?$AA@
CONST	SEGMENT
??_C@_0BG@LDMGGMMP@GashaponWnd?3?3OnRender?$AA@ DB 'GashaponWnd::OnRender'
	DB	00H						; `string'
CONST	ENDS
;	COMDAT __real@3f59999a
CONST	SEGMENT
__real@3f59999a DD 03f59999ar			; 0.85
CONST	ENDS
;	COMDAT __real@3f19999a
CONST	SEGMENT
__real@3f19999a DD 03f19999ar			; 0.6
CONST	ENDS
;	COMDAT __real@40000000
CONST	SEGMENT
__real@40000000 DD 040000000r			; 2
CONST	ENDS
;	COMDAT xdata$x
xdata$x	SEGMENT
__unwindtable$?OnRender@GashaponWnd@@MAEXXZ DD 0ffffffffH
	DD	FLAT:__unwindfunclet$?OnRender@GashaponWnd@@MAEXXZ$0
	DD	00H
	DD	FLAT:__unwindfunclet$?OnRender@GashaponWnd@@MAEXXZ$1
	DD	01H
	DD	FLAT:__unwindfunclet$?OnRender@GashaponWnd@@MAEXXZ$2
__ehfuncinfo$?OnRender@GashaponWnd@@MAEXXZ DD 019930522H
	DD	03H
	DD	FLAT:__unwindtable$?OnRender@GashaponWnd@@MAEXXZ
	DD	2 DUP(00H)
	DD	2 DUP(00H)
	DD	00H
	DD	01H
; Function compile flags: /Ogsp
xdata$x	ENDS
;	COMDAT ?OnRender@GashaponWnd@@MAEXXZ
_TEXT	SEGMENT
_kPrinter$ = -400					; size = 64
_szName$ = -336						; size = 16
_szDesc$ = -320						; size = 16
tv591 = -304						; size = 4
tv590 = -304						; size = 4
_iYPos$ = -300						; size = 4
tv661 = -296						; size = 4
_iXPos$ = -296						; size = 4
_szBuf$515724 = -292					; size = 260
_szHack1$ = -32						; size = 6
_szHack2$ = -24						; size = 6
__$EHRec$ = -12						; size = 12
?OnRender@GashaponWnd@@MAEXXZ PROC			; GashaponWnd::OnRender, COMDAT
; _this$ = ecx

; 482  : {

  00000	68 84 01 00 00	 push	 388			; 00000184H
  00005	b8 00 00 00 00	 mov	 eax, __ehhandler$?OnRender@GashaponWnd@@MAEXXZ
  0000a	e8 00 00 00 00	 call	 __EH_prolog3_GS
  0000f	8b f9		 mov	 edi, ecx

; 483  : 	ioWnd::OnRender();

  00011	ff 15 00 00 00
	00		 call	 DWORD PTR __imp_?OnRender@ioWnd@@MAEXXZ

; 484  : 
; 485  : 	int iXPos = GetDerivedPosX();

  00017	8b cf		 mov	 ecx, edi
  00019	ff 15 00 00 00
	00		 call	 DWORD PTR __imp_?GetDerivedPosX@ioWnd@@QBEHXZ

; 486  : 	int iYPos = GetDerivedPosY();

  0001f	8b cf		 mov	 ecx, edi
  00021	89 85 d8 fe ff
	ff		 mov	 DWORD PTR _iXPos$[ebp], eax
  00027	ff 15 00 00 00
	00		 call	 DWORD PTR __imp_?GetDerivedPosY@ioWnd@@QBEHXZ

; 487  : 
; 488  : 	enum
; 489  : 	{
; 490  : 		ICON_X		= 129,
; 491  : 		ICON_Y		= 105,
; 492  : 
; 493  : 		DESC_BIG_X	= 129,
; 494  : 		DESC_BIG_Y	= 152,
; 495  : 
; 496  : 		DESC_X		= 27,
; 497  : 		DESC_Y		= 206,
; 498  : 
; 499  : 		FINAL_DESC_X	= 128,
; 500  : 		FINAL_DESC_Y	= 421,
; 501  : 	};
; 502  : 
; 503  : 	// Back
; 504  : 	if( m_bFinalResult )

  0002d	33 db		 xor	 ebx, ebx
  0002f	8b f0		 mov	 esi, eax
  00031	89 b5 d4 fe ff
	ff		 mov	 DWORD PTR _iYPos$[ebp], esi
  00037	38 9f 89 83 03
	00		 cmp	 BYTE PTR [edi+230281], bl
  0003d	74 10		 je	 SHORT $LN14@OnRender

; 505  : 	{
; 506  : 		if( m_pFinalBackEffect )

  0003f	39 9f 6c 01 00
	00		 cmp	 DWORD PTR [edi+364], ebx
  00045	74 49		 je	 SHORT $LN11@OnRender

; 507  : 			m_pFinalBackEffect->Render( iXPos+ICON_X, iYPos+ICON_Y, UI_RENDER_MULTIPLY );

  00047	8b 8f 6c 01 00
	00		 mov	 ecx, DWORD PTR [edi+364]

; 508  : 	}
; 509  : 	else

  0004d	eb 0e		 jmp	 SHORT $LN23@OnRender
$LN14@OnRender:

; 510  : 	{
; 511  : 		if( m_pBackEffect )

  0004f	39 9f 68 01 00
	00		 cmp	 DWORD PTR [edi+360], ebx
  00055	74 39		 je	 SHORT $LN11@OnRender

; 512  : 			m_pBackEffect->Render( iXPos+ICON_X, iYPos+ICON_Y, UI_RENDER_MULTIPLY );

  00057	8b 8f 68 01 00
	00		 mov	 ecx, DWORD PTR [edi+360]
$LN23@OnRender:
  0005d	8b 01		 mov	 eax, DWORD PTR [ecx]
  0005f	53		 push	 ebx
  00060	53		 push	 ebx
  00061	53		 push	 ebx
  00062	6a 08		 push	 8
  00064	0f 57 c0	 xorps	 xmm0, xmm0
  00067	8d 56 69	 lea	 edx, DWORD PTR [esi+105]
  0006a	f3 0f 2a c2	 cvtsi2ss xmm0, edx
  0006e	8b 95 d8 fe ff
	ff		 mov	 edx, DWORD PTR _iXPos$[ebp]
  00074	51		 push	 ecx
  00075	51		 push	 ecx
  00076	f3 0f 11 44 24
	04		 movss	 DWORD PTR [esp+4], xmm0
  0007c	81 c2 81 00 00
	00		 add	 edx, 129		; 00000081H
  00082	0f 57 c0	 xorps	 xmm0, xmm0
  00085	f3 0f 2a c2	 cvtsi2ss xmm0, edx
  00089	f3 0f 11 04 24	 movss	 DWORD PTR [esp], xmm0
  0008e	ff 10		 call	 DWORD PTR [eax]
$LN11@OnRender:

; 513  : 	}
; 514  : 
; 515  : 	g_UIImageRenderMgr.RenderGradeIconBack( m_nGradeType, iXPos+ICON_X, iYPos+ICON_Y, m_fGradeScale );

  00090	8b 8d d8 fe ff
	ff		 mov	 ecx, DWORD PTR _iXPos$[ebp]
  00096	f3 0f 10 87 18
	a7 04 00	 movss	 xmm0, DWORD PTR [edi+304920]
  0009e	53		 push	 ebx
  0009f	53		 push	 ebx
  000a0	b8 ff 00 00 00	 mov	 eax, 255		; 000000ffH
  000a5	50		 push	 eax
  000a6	50		 push	 eax
  000a7	50		 push	 eax
  000a8	53		 push	 ebx
  000a9	81 c1 81 00 00
	00		 add	 ecx, 129		; 00000081H
  000af	53		 push	 ebx
  000b0	51		 push	 ecx
  000b1	f3 0f 11 04 24	 movss	 DWORD PTR [esp], xmm0
  000b6	83 c6 69	 add	 esi, 105		; 00000069H
  000b9	56		 push	 esi
  000ba	51		 push	 ecx
  000bb	ff b7 14 a7 04
	00		 push	 DWORD PTR [edi+304916]
  000c1	89 8d d0 fe ff
	ff		 mov	 DWORD PTR tv590[ebp], ecx
  000c7	e8 00 00 00 00	 call	 ?GetSingleton@ioUIImageRenderManager@@SAAAV1@XZ ; ioUIImageRenderManager::GetSingleton
  000cc	8b c8		 mov	 ecx, eax
  000ce	e8 00 00 00 00	 call	 ?RenderGradeIconBack@ioUIImageRenderManager@@QAEXHHHMW4UIRenderType@@W4TextureFilterOption@@HHH_N0@Z ; ioUIImageRenderManager::RenderGradeIconBack

; 516  : 
; 517  : 	// Icon
; 518  : 	if( m_pIcon )

  000d3	39 9f 60 01 00
	00		 cmp	 DWORD PTR [edi+352], ebx
  000d9	74 30		 je	 SHORT $LN10@OnRender

; 519  : 	{
; 520  : 		m_pIcon->Render( iXPos+ICON_X, iYPos+ICON_Y, UI_RENDER_NORMAL, TFO_BILINEAR );

  000db	8b 87 60 01 00
	00		 mov	 eax, DWORD PTR [edi+352]
  000e1	8b 10		 mov	 edx, DWORD PTR [eax]
  000e3	53		 push	 ebx
  000e4	53		 push	 ebx
  000e5	6a 01		 push	 1
  000e7	53		 push	 ebx
  000e8	51		 push	 ecx
  000e9	0f 57 c0	 xorps	 xmm0, xmm0
  000ec	51		 push	 ecx
  000ed	f3 0f 2a c6	 cvtsi2ss xmm0, esi
  000f1	f3 0f 11 44 24
	04		 movss	 DWORD PTR [esp+4], xmm0
  000f7	66 0f 6e 85 d0
	fe ff ff	 movd	 xmm0, DWORD PTR tv590[ebp]
  000ff	0f 5b c0	 cvtdq2ps xmm0, xmm0
  00102	8b c8		 mov	 ecx, eax
  00104	f3 0f 11 04 24	 movss	 DWORD PTR [esp], xmm0
  00109	ff 12		 call	 DWORD PTR [edx]
$LN10@OnRender:

; 521  : 	}
; 522  : 
; 523  : 	// UI  ( )
; 524  : 	if( m_bIsCostume && m_pCostumeMark )

  0010b	38 9f 10 a7 04
	00		 cmp	 BYTE PTR [edi+304912], bl
  00111	74 36		 je	 SHORT $LN9@OnRender
  00113	39 9f 70 01 00
	00		 cmp	 DWORD PTR [edi+368], ebx
  00119	74 2e		 je	 SHORT $LN9@OnRender

; 525  : 		m_pCostumeMark->Render( iXPos+ICON_X, iYPos+ICON_Y, UI_RENDER_NORMAL, TFO_BILINEAR );

  0011b	8b 8f 70 01 00
	00		 mov	 ecx, DWORD PTR [edi+368]
  00121	8b 01		 mov	 eax, DWORD PTR [ecx]
  00123	53		 push	 ebx
  00124	53		 push	 ebx
  00125	6a 01		 push	 1
  00127	53		 push	 ebx
  00128	0f 57 c0	 xorps	 xmm0, xmm0
  0012b	51		 push	 ecx
  0012c	f3 0f 2a c6	 cvtsi2ss xmm0, esi
  00130	51		 push	 ecx
  00131	f3 0f 11 44 24
	04		 movss	 DWORD PTR [esp+4], xmm0
  00137	66 0f 6e 85 d0
	fe ff ff	 movd	 xmm0, DWORD PTR tv590[ebp]
  0013f	0f 5b c0	 cvtdq2ps xmm0, xmm0
  00142	f3 0f 11 04 24	 movss	 DWORD PTR [esp], xmm0
  00147	ff 10		 call	 DWORD PTR [eax]
$LN9@OnRender:

; 526  : 
; 527  : 	// Effect
; 528  : 	if( m_pEffect )

  00149	39 9f 64 01 00
	00		 cmp	 DWORD PTR [edi+356], ebx
  0014f	74 47		 je	 SHORT $LN8@OnRender

; 529  : 	{
; 530  : 		m_pEffect->SetScale( 2.0f );

  00151	8b 8f 64 01 00
	00		 mov	 ecx, DWORD PTR [edi+356]
  00157	f3 0f 10 05 00
	00 00 00	 movss	 xmm0, DWORD PTR __real@40000000
  0015f	8b 01		 mov	 eax, DWORD PTR [ecx]
  00161	51		 push	 ecx
  00162	f3 0f 11 04 24	 movss	 DWORD PTR [esp], xmm0
  00167	ff 50 1c	 call	 DWORD PTR [eax+28]

; 531  : 		m_pEffect->Render( iXPos+ICON_X, iYPos+ICON_Y, UI_RENDER_ADD );

  0016a	8b 8f 64 01 00
	00		 mov	 ecx, DWORD PTR [edi+356]
  00170	8b 01		 mov	 eax, DWORD PTR [ecx]
  00172	53		 push	 ebx
  00173	53		 push	 ebx
  00174	53		 push	 ebx
  00175	6a 03		 push	 3
  00177	0f 57 c0	 xorps	 xmm0, xmm0
  0017a	51		 push	 ecx
  0017b	f3 0f 2a c6	 cvtsi2ss xmm0, esi
  0017f	51		 push	 ecx
  00180	f3 0f 11 44 24
	04		 movss	 DWORD PTR [esp+4], xmm0
  00186	66 0f 6e 85 d0
	fe ff ff	 movd	 xmm0, DWORD PTR tv590[ebp]
  0018e	0f 5b c0	 cvtdq2ps xmm0, xmm0
  00191	f3 0f 11 04 24	 movss	 DWORD PTR [esp], xmm0
  00196	ff 10		 call	 DWORD PTR [eax]
$LN8@OnRender:

; 532  : 	}
; 533  : 
; 534  : 	if( m_bFinalResult )

  00198	38 9f 89 83 03
	00		 cmp	 BYTE PTR [edi+230281], bl
  0019e	0f 84 b9 00 00
	00		 je	 $LN7@OnRender

; 535  : 	{
; 536  : 		PrintManual( iXPos+DESC_X, iYPos+DESC_Y, FONT_SIZE_12 );

  001a4	8b 85 d4 fe ff
	ff		 mov	 eax, DWORD PTR _iYPos$[ebp]
  001aa	f3 0f 10 05 00
	00 00 00	 movss	 xmm0, DWORD PTR __real@3f19999a
  001b2	51		 push	 ecx
  001b3	05 ce 00 00 00	 add	 eax, 206		; 000000ceH
  001b8	f3 0f 11 04 24	 movss	 DWORD PTR [esp], xmm0
  001bd	50		 push	 eax
  001be	8b 85 d8 fe ff
	ff		 mov	 eax, DWORD PTR _iXPos$[ebp]
  001c4	83 c0 1b	 add	 eax, 27			; 0000001bH
  001c7	50		 push	 eax
  001c8	8b cf		 mov	 ecx, edi
  001ca	e8 00 00 00 00	 call	 ?PrintManual@GashaponWnd@@IAEXHHM@Z ; GashaponWnd::PrintManual

; 537  : 
; 538  : 		g_FontMgr.SetTextStyle( TS_NORMAL );

  001cf	8b 35 00 00 00
	00		 mov	 esi, DWORD PTR __imp_?GetSingleton@ioFontManager@@SAAAV1@XZ
  001d5	53		 push	 ebx
  001d6	ff d6		 call	 esi
  001d8	8b c8		 mov	 ecx, eax
  001da	ff 15 00 00 00
	00		 call	 DWORD PTR __imp_?SetTextStyle@ioFontManager@@QAEXW4TextStyle@@@Z

; 539  : 		g_FontMgr.SetAlignType( TAT_CENTER );

  001e0	6a 01		 push	 1
  001e2	ff d6		 call	 esi
  001e4	8b c8		 mov	 ecx, eax
  001e6	ff 15 00 00 00
	00		 call	 DWORD PTR __imp_?SetAlignType@ioFontManager@@QAEXW4TextAlignType@@@Z

; 540  : 		g_FontMgr.SetBkColor( 0, 0, 0 );

  001ec	53		 push	 ebx
  001ed	53		 push	 ebx
  001ee	53		 push	 ebx
  001ef	ff d6		 call	 esi
  001f1	8b c8		 mov	 ecx, eax
  001f3	ff 15 00 00 00
	00		 call	 DWORD PTR __imp_?SetBkColor@ioFontManager@@QAEXHHH@Z

; 541  : 		g_FontMgr.SetTextColor( TCT_DEFAULT_GREEN );

  001f9	68 22 72 11 ff	 push	 -15633886		; ff117222H
  001fe	ff d6		 call	 esi
  00200	8b c8		 mov	 ecx, eax
  00202	ff 15 00 00 00
	00		 call	 DWORD PTR __imp_?SetTextColor@ioFontManager@@QAEXK@Z

; 542  : 		g_FontMgr.PrintText( iXPos+FINAL_DESC_X, iYPos+FINAL_DESC_Y, FONT_SIZE_17, m_szDesc1[GetGashaponArray()].c_str() );

  00208	8b cf		 mov	 ecx, edi
  0020a	e8 00 00 00 00	 call	 ?GetGashaponArray@GashaponWnd@@IAEHXZ ; GashaponWnd::GetGashaponArray
  0020f	03 c0		 add	 eax, eax
  00211	8d 8c c7 d8 83
	03 00		 lea	 ecx, DWORD PTR [edi+eax*8+230360]
  00218	ff 15 00 00 00
	00		 call	 DWORD PTR __imp_?c_str@ioHashString@@QBEPBDXZ
  0021e	f3 0f 10 05 00
	00 00 00	 movss	 xmm0, DWORD PTR __real@3f59999a
  00226	50		 push	 eax
  00227	8b 85 d4 fe ff
	ff		 mov	 eax, DWORD PTR _iYPos$[ebp]
  0022d	83 ec 0c	 sub	 esp, 12			; 0000000cH
  00230	f3 0f 11 44 24
	08		 movss	 DWORD PTR [esp+8], xmm0
  00236	05 a5 01 00 00	 add	 eax, 421		; 000001a5H
  0023b	0f 57 c0	 xorps	 xmm0, xmm0
  0023e	f3 0f 2a c0	 cvtsi2ss xmm0, eax
  00242	8b 85 d8 fe ff
	ff		 mov	 eax, DWORD PTR _iXPos$[ebp]
  00248	f3 0f 11 44 24
	04		 movss	 DWORD PTR [esp+4], xmm0
  0024e	83 e8 80	 sub	 eax, -128		; ffffff80H
  00251	0f 57 c0	 xorps	 xmm0, xmm0
  00254	f3 0f 2a c0	 cvtsi2ss xmm0, eax

; 543  : 	}
; 544  : 	else

  00258	e9 2d 01 00 00	 jmp	 $LN24@OnRender
$LN7@OnRender:

; 545  : 	{
; 546  : 		g_FontMgr.SetTextStyle( TS_NORMAL );

  0025d	8b 35 00 00 00
	00		 mov	 esi, DWORD PTR __imp_?GetSingleton@ioFontManager@@SAAAV1@XZ
  00263	53		 push	 ebx
  00264	ff d6		 call	 esi
  00266	8b c8		 mov	 ecx, eax
  00268	ff 15 00 00 00
	00		 call	 DWORD PTR __imp_?SetTextStyle@ioFontManager@@QAEXW4TextStyle@@@Z

; 547  : 		g_FontMgr.SetAlignType( TAT_LEFT );

  0026e	53		 push	 ebx
  0026f	ff d6		 call	 esi
  00271	8b c8		 mov	 ecx, eax
  00273	ff 15 00 00 00
	00		 call	 DWORD PTR __imp_?SetAlignType@ioFontManager@@QAEXW4TextAlignType@@@Z

; 548  : 		g_FontMgr.SetBkColor( 0, 0, 0 );

  00279	53		 push	 ebx
  0027a	53		 push	 ebx
  0027b	53		 push	 ebx
  0027c	ff d6		 call	 esi
  0027e	8b c8		 mov	 ecx, eax
  00280	ff 15 00 00 00
	00		 call	 DWORD PTR __imp_?SetBkColor@ioFontManager@@QAEXHHH@Z

; 549  : 		g_FontMgr.SetTextColor( TCT_DEFAULT_LIGHTGRAY );

  00286	68 a7 a7 a7 ff	 push	 -5789785		; ffa7a7a7H
  0028b	ff d6		 call	 esi
  0028d	8b c8		 mov	 ecx, eax
  0028f	ff 15 00 00 00
	00		 call	 DWORD PTR __imp_?SetTextColor@ioFontManager@@QAEXK@Z

; 550  : 		g_FontMgr.PrintText( iXPos+DESC_X, iYPos+DESC_Y, FONT_SIZE_12, STR(6) );

  00295	8b 85 d8 fe ff
	ff		 mov	 eax, DWORD PTR _iXPos$[ebp]
  0029b	53		 push	 ebx
  0029c	6a 06		 push	 6
  0029e	83 c0 1b	 add	 eax, 27			; 0000001bH
  002a1	0f 57 c0	 xorps	 xmm0, xmm0
  002a4	68 00 00 00 00	 push	 OFFSET ??_C@_00CNPNBAHC@?$AA@
  002a9	f3 0f 2a c0	 cvtsi2ss xmm0, eax
  002ad	68 00 00 00 00	 push	 OFFSET ??_C@_0BG@LDMGGMMP@GashaponWnd?3?3OnRender?$AA@
  002b2	f3 0f 11 85 d8
	fe ff ff	 movss	 DWORD PTR tv661[ebp], xmm0
  002ba	ff 15 00 00 00
	00		 call	 DWORD PTR __imp_?GetSingleton@ioStringManager@@SAAAV1@XZ
  002c0	8b c8		 mov	 ecx, eax
  002c2	ff 15 00 00 00
	00		 call	 DWORD PTR __imp_?GetString@ioStringManager@@QAEPADPBD0HW4FileNamePrefix@1@@Z
  002c8	f3 0f 10 05 00
	00 00 00	 movss	 xmm0, DWORD PTR __real@3f19999a
  002d0	50		 push	 eax
  002d1	8b 85 d4 fe ff
	ff		 mov	 eax, DWORD PTR _iYPos$[ebp]
  002d7	83 ec 0c	 sub	 esp, 12			; 0000000cH
  002da	f3 0f 11 44 24
	08		 movss	 DWORD PTR [esp+8], xmm0
  002e0	05 ce 00 00 00	 add	 eax, 206		; 000000ceH
  002e5	0f 57 c0	 xorps	 xmm0, xmm0
  002e8	f3 0f 2a c0	 cvtsi2ss xmm0, eax
  002ec	f3 0f 11 44 24
	04		 movss	 DWORD PTR [esp+4], xmm0
  002f2	f3 0f 10 85 d8
	fe ff ff	 movss	 xmm0, DWORD PTR tv661[ebp]
  002fa	f3 0f 11 04 24	 movss	 DWORD PTR [esp], xmm0
  002ff	ff d6		 call	 esi
  00301	50		 push	 eax
  00302	ff 15 00 00 00
	00		 call	 DWORD PTR __imp_?PrintText@ioFontManager@@QAAXMMMPBDZZ
  00308	83 c4 14	 add	 esp, 20			; 00000014H

; 551  : 
; 552  : 		g_FontMgr.SetTextStyle( TS_NORMAL );

  0030b	53		 push	 ebx
  0030c	ff d6		 call	 esi
  0030e	8b c8		 mov	 ecx, eax
  00310	ff 15 00 00 00
	00		 call	 DWORD PTR __imp_?SetTextStyle@ioFontManager@@QAEXW4TextStyle@@@Z

; 553  : 		g_FontMgr.SetAlignType( TAT_LEFT );

  00316	53		 push	 ebx
  00317	ff d6		 call	 esi
  00319	8b c8		 mov	 ecx, eax
  0031b	ff 15 00 00 00
	00		 call	 DWORD PTR __imp_?SetAlignType@ioFontManager@@QAEXW4TextAlignType@@@Z

; 554  : 		g_FontMgr.SetBkColor( 0, 0, 0 );

  00321	53		 push	 ebx
  00322	53		 push	 ebx
  00323	53		 push	 ebx
  00324	ff d6		 call	 esi
  00326	8b c8		 mov	 ecx, eax
  00328	ff 15 00 00 00
	00		 call	 DWORD PTR __imp_?SetBkColor@ioFontManager@@QAEXHHH@Z

; 555  : 		g_FontMgr.SetTextColor( TCT_DEFAULT_LIGHTGRAY );

  0032e	68 a7 a7 a7 ff	 push	 -5789785		; ffa7a7a7H
  00333	ff d6		 call	 esi
  00335	8b c8		 mov	 ecx, eax
  00337	ff 15 00 00 00
	00		 call	 DWORD PTR __imp_?SetTextColor@ioFontManager@@QAEXK@Z

; 556  : 		g_FontMgr.PrintText( iXPos+DESC_X, iYPos+DESC_Y+18, FONT_SIZE_12, STR(7) );

  0033d	53		 push	 ebx
  0033e	6a 07		 push	 7
  00340	68 00 00 00 00	 push	 OFFSET ??_C@_00CNPNBAHC@?$AA@
  00345	68 00 00 00 00	 push	 OFFSET ??_C@_0BG@LDMGGMMP@GashaponWnd?3?3OnRender?$AA@
  0034a	ff 15 00 00 00
	00		 call	 DWORD PTR __imp_?GetSingleton@ioStringManager@@SAAAV1@XZ
  00350	8b c8		 mov	 ecx, eax
  00352	ff 15 00 00 00
	00		 call	 DWORD PTR __imp_?GetString@ioStringManager@@QAEPADPBD0HW4FileNamePrefix@1@@Z
  00358	f3 0f 10 05 00
	00 00 00	 movss	 xmm0, DWORD PTR __real@3f19999a
  00360	50		 push	 eax
  00361	8b 85 d4 fe ff
	ff		 mov	 eax, DWORD PTR _iYPos$[ebp]
  00367	83 ec 0c	 sub	 esp, 12			; 0000000cH
  0036a	f3 0f 11 44 24
	08		 movss	 DWORD PTR [esp+8], xmm0
  00370	05 e0 00 00 00	 add	 eax, 224		; 000000e0H
  00375	0f 57 c0	 xorps	 xmm0, xmm0
  00378	f3 0f 2a c0	 cvtsi2ss xmm0, eax
  0037c	f3 0f 11 44 24
	04		 movss	 DWORD PTR [esp+4], xmm0
  00382	f3 0f 10 85 d8
	fe ff ff	 movss	 xmm0, DWORD PTR tv661[ebp]
$LN24@OnRender:
  0038a	f3 0f 11 04 24	 movss	 DWORD PTR [esp], xmm0
  0038f	ff d6		 call	 esi
  00391	50		 push	 eax
  00392	ff 15 00 00 00
	00		 call	 DWORD PTR __imp_?PrintText@ioFontManager@@QAAXMMMPBDZZ
  00398	83 c4 14	 add	 esp, 20			; 00000014H

; 557  : 	}
; 558  : 
; 559  : 	/*
; 560  : 	ioHashString sRolling;
; 561  : 	ioHashString sEndRolling;
; 562  : 	if( m_dwEtcItemType == ioEtcItem::EIT_ETC_GASHAPON )
; 563  : 	{
; 564  : 		sRolling    = STR(1);
; 565  : 		sEndRolling = STR(2);
; 566  : 	}
; 567  : 	else
; 568  : 	{
; 569  : 		sRolling    = STR(4);
; 570  : 		sEndRolling = STR(5);
; 571  : 	}
; 572  : 
; 573  : 	// Text
; 574  : 	g_FontMgr.SetTextStyle( TS_OUTLINE_FULL_2X );
; 575  : 	g_FontMgr.SetBkColor( 0, 0, 0 );
; 576  : 	g_FontMgr.SetAlignType( TAT_CENTER );
; 577  : 	if( m_bFinalResult )
; 578  : 	{
; 579  : 		g_FontMgr.SetTextColor( 0, 150, 255 );
; 580  : 		g_FontMgr.PrintText( iXPos + DESC_BIG_X, iYPos + DESC_BIG_Y, FLOAT1, sRolling.c_str() );
; 581  : 	}
; 582  : 	else if( !m_bFinalResult )
; 583  : 	{
; 584  : 		g_FontMgr.SetTextColor( TCT_DEFAULT_DARKGRAY );
; 585  : 		g_FontMgr.PrintText( iXPos + DESC_BIG_X, iYPos + DESC_BIG_Y, FLOAT1, sEndRolling.c_str() );
; 586  : 	}
; 587  : 	*/
; 588  : 
; 589  : 		// Text
; 590  : 	ioComplexStringPrinter kPrinter[2];

  0039b	68 00 00 00 00	 push	 OFFSET ??1ioComplexStringPrinter@@QAE@XZ ; ioComplexStringPrinter::~ioComplexStringPrinter
  003a0	68 00 00 00 00	 push	 OFFSET ??0ioComplexStringPrinter@@QAE@XZ ; ioComplexStringPrinter::ioComplexStringPrinter
  003a5	6a 02		 push	 2
  003a7	6a 20		 push	 32			; 00000020H
  003a9	8d 85 70 fe ff
	ff		 lea	 eax, DWORD PTR _kPrinter$[ebp]
  003af	50		 push	 eax
  003b0	e8 00 00 00 00	 call	 ??_L@YGXPAXIHP6EX0@Z1@Z

; 591  : 
; 592  : 	char szHack1[] = {'?','?','?','?','?','\0'};
; 593  : 	char szHack2[] = {'?','?','?','?','?','\0'};
; 594  : 	ioHashString szName = szHack1;

  003b5	8b 35 00 00 00
	00		 mov	 esi, DWORD PTR __imp_??0ioHashString@@QAE@PBD@Z
  003bb	8d 45 e0	 lea	 eax, DWORD PTR _szHack1$[ebp]
  003be	50		 push	 eax
  003bf	8d 8d b0 fe ff
	ff		 lea	 ecx, DWORD PTR _szName$[ebp]
  003c5	89 5d fc	 mov	 DWORD PTR __$EHRec$[ebp+8], ebx
  003c8	c7 45 e0 3f 3f
	3f 3f		 mov	 DWORD PTR _szHack1$[ebp], 1061109567 ; 3f3f3f3fH
  003cf	66 c7 45 e4 3f
	00		 mov	 WORD PTR _szHack1$[ebp+4], 63 ; 0000003fH
  003d5	c7 45 e8 3f 3f
	3f 3f		 mov	 DWORD PTR _szHack2$[ebp], 1061109567 ; 3f3f3f3fH
  003dc	66 c7 45 ec 3f
	00		 mov	 WORD PTR _szHack2$[ebp+4], 63 ; 0000003fH
  003e2	ff d6		 call	 esi

; 595  : 	ioHashString szDesc = szHack2;

  003e4	8d 45 e8	 lea	 eax, DWORD PTR _szHack2$[ebp]
  003e7	50		 push	 eax
  003e8	8d 8d c0 fe ff
	ff		 lea	 ecx, DWORD PTR _szDesc$[ebp]
  003ee	c6 45 fc 01	 mov	 BYTE PTR __$EHRec$[ebp+8], 1
  003f2	ff d6		 call	 esi
  003f4	c6 45 fc 02	 mov	 BYTE PTR __$EHRec$[ebp+8], 2

; 596  : 
; 597  : 	if( m_bFinalResult )

  003f8	38 9f 89 83 03
	00		 cmp	 BYTE PTR [edi+230281], bl
  003fe	0f 84 4e 01 00
	00		 je	 $LN1@OnRender

; 598  : 	{
; 599  : 		if(  !g_PresentMgr.GetPresentValue1Text( m_iPresentType, m_iPresentValue1, m_iPresentValue2 ).IsEmpty() )

  00404	ff b7 74 83 03
	00		 push	 DWORD PTR [edi+230260]
  0040a	0f b7 87 6c 83
	03 00		 movzx	 eax, WORD PTR [edi+230252]
  00411	ff b7 70 83 03
	00		 push	 DWORD PTR [edi+230256]
  00417	50		 push	 eax
  00418	e8 00 00 00 00	 call	 ?GetSingleton@ioPresentMgr@@SAAAV1@XZ ; ioPresentMgr::GetSingleton
  0041d	8b c8		 mov	 ecx, eax
  0041f	e8 00 00 00 00	 call	 ?GetPresentValue1Text@ioPresentMgr@@QAEABVioHashString@@FHH@Z ; ioPresentMgr::GetPresentValue1Text
  00424	8b c8		 mov	 ecx, eax
  00426	ff 15 00 00 00
	00		 call	 DWORD PTR __imp_?IsEmpty@ioHashString@@QBE_NXZ
  0042c	84 c0		 test	 al, al
  0042e	75 2d		 jne	 SHORT $LN4@OnRender

; 600  : 			szName = g_PresentMgr.GetPresentValue1Text( m_iPresentType, m_iPresentValue1, m_iPresentValue2 );

  00430	ff b7 74 83 03
	00		 push	 DWORD PTR [edi+230260]
  00436	0f b7 87 6c 83
	03 00		 movzx	 eax, WORD PTR [edi+230252]
  0043d	ff b7 70 83 03
	00		 push	 DWORD PTR [edi+230256]
  00443	50		 push	 eax
  00444	e8 00 00 00 00	 call	 ?GetSingleton@ioPresentMgr@@SAAAV1@XZ ; ioPresentMgr::GetSingleton
  00449	8b c8		 mov	 ecx, eax
  0044b	e8 00 00 00 00	 call	 ?GetPresentValue1Text@ioPresentMgr@@QAEABVioHashString@@FHH@Z ; ioPresentMgr::GetPresentValue1Text
  00450	50		 push	 eax
  00451	8d 8d b0 fe ff
	ff		 lea	 ecx, DWORD PTR _szName$[ebp]
  00457	ff 15 00 00 00
	00		 call	 DWORD PTR __imp_??4ioHashString@@QAEAAV0@ABV0@@Z
$LN4@OnRender:

; 601  : 
; 602  : 		if(  !g_PresentMgr.GetPresentValue2Text( m_iPresentType, m_iPresentValue1, m_iPresentValue2 ).IsEmpty() )

  0045d	ff b7 74 83 03
	00		 push	 DWORD PTR [edi+230260]
  00463	0f b7 87 6c 83
	03 00		 movzx	 eax, WORD PTR [edi+230252]
  0046a	ff b7 70 83 03
	00		 push	 DWORD PTR [edi+230256]
  00470	50		 push	 eax
  00471	e8 00 00 00 00	 call	 ?GetSingleton@ioPresentMgr@@SAAAV1@XZ ; ioPresentMgr::GetSingleton
  00476	8b c8		 mov	 ecx, eax
  00478	e8 00 00 00 00	 call	 ?GetPresentValue2Text@ioPresentMgr@@QAEABVioHashString@@FHH@Z ; ioPresentMgr::GetPresentValue2Text
  0047d	8b c8		 mov	 ecx, eax
  0047f	ff 15 00 00 00
	00		 call	 DWORD PTR __imp_?IsEmpty@ioHashString@@QBE_NXZ
  00485	84 c0		 test	 al, al
  00487	0f 85 c5 00 00
	00		 jne	 $LN1@OnRender

; 603  : 		{
; 604  : 			if( m_iPresentPeso == 0 )

  0048d	8b b7 84 83 03
	00		 mov	 esi, DWORD PTR [edi+230276]
  00493	3b f3		 cmp	 esi, ebx
  00495	75 32		 jne	 SHORT $LN2@OnRender

; 605  : 				szDesc = g_PresentMgr.GetPresentValue2Text( m_iPresentType, m_iPresentValue1, m_iPresentValue2 );

  00497	ff b7 74 83 03
	00		 push	 DWORD PTR [edi+230260]
  0049d	0f b7 87 6c 83
	03 00		 movzx	 eax, WORD PTR [edi+230252]
  004a4	ff b7 70 83 03
	00		 push	 DWORD PTR [edi+230256]
  004aa	50		 push	 eax
  004ab	e8 00 00 00 00	 call	 ?GetSingleton@ioPresentMgr@@SAAAV1@XZ ; ioPresentMgr::GetSingleton
  004b0	8b c8		 mov	 ecx, eax
  004b2	e8 00 00 00 00	 call	 ?GetPresentValue2Text@ioPresentMgr@@QAEABVioHashString@@FHH@Z ; ioPresentMgr::GetPresentValue2Text
  004b7	50		 push	 eax
  004b8	8d 8d c0 fe ff
	ff		 lea	 ecx, DWORD PTR _szDesc$[ebp]
  004be	ff 15 00 00 00
	00		 call	 DWORD PTR __imp_??4ioHashString@@QAEAAV0@ABV0@@Z

; 606  : 			else

  004c4	e9 89 00 00 00	 jmp	 $LN1@OnRender
$LN2@OnRender:

; 607  : 			{
; 608  : 				char szBuf[MAX_PATH] = "";

  004c9	68 03 01 00 00	 push	 259			; 00000103H
  004ce	8d 85 dd fe ff
	ff		 lea	 eax, DWORD PTR _szBuf$515724[ebp+1]
  004d4	53		 push	 ebx
  004d5	50		 push	 eax
  004d6	88 9d dc fe ff
	ff		 mov	 BYTE PTR _szBuf$515724[ebp], bl
  004dc	e8 00 00 00 00	 call	 _memset

; 609  : 				SafeSprintf( szBuf, sizeof( szBuf ), STR(3), g_PresentMgr.GetPresentValue2Text( m_iPresentType, m_iPresentValue1, m_iPresentValue2 ).c_str(), m_iPresentPeso );

  004e1	0f b7 87 6c 83
	03 00		 movzx	 eax, WORD PTR [edi+230252]
  004e8	83 c4 0c	 add	 esp, 12			; 0000000cH
  004eb	56		 push	 esi
  004ec	ff b7 74 83 03
	00		 push	 DWORD PTR [edi+230260]
  004f2	ff b7 70 83 03
	00		 push	 DWORD PTR [edi+230256]
  004f8	50		 push	 eax
  004f9	e8 00 00 00 00	 call	 ?GetSingleton@ioPresentMgr@@SAAAV1@XZ ; ioPresentMgr::GetSingleton
  004fe	8b c8		 mov	 ecx, eax
  00500	e8 00 00 00 00	 call	 ?GetPresentValue2Text@ioPresentMgr@@QAEABVioHashString@@FHH@Z ; ioPresentMgr::GetPresentValue2Text
  00505	8b c8		 mov	 ecx, eax
  00507	ff 15 00 00 00
	00		 call	 DWORD PTR __imp_?c_str@ioHashString@@QBEPBDXZ
  0050d	50		 push	 eax
  0050e	53		 push	 ebx
  0050f	6a 03		 push	 3
  00511	68 00 00 00 00	 push	 OFFSET ??_C@_00CNPNBAHC@?$AA@
  00516	68 00 00 00 00	 push	 OFFSET ??_C@_0BG@LDMGGMMP@GashaponWnd?3?3OnRender?$AA@
  0051b	ff 15 00 00 00
	00		 call	 DWORD PTR __imp_?GetSingleton@ioStringManager@@SAAAV1@XZ
  00521	8b c8		 mov	 ecx, eax
  00523	ff 15 00 00 00
	00		 call	 DWORD PTR __imp_?GetString@ioStringManager@@QAEPADPBD0HW4FileNamePrefix@1@@Z
  00529	50		 push	 eax
  0052a	8d 85 dc fe ff
	ff		 lea	 eax, DWORD PTR _szBuf$515724[ebp]
  00530	68 04 01 00 00	 push	 260			; 00000104H
  00535	50		 push	 eax
  00536	ff 15 00 00 00
	00		 call	 DWORD PTR __imp_?SafeSprintf@@YAXPADHPBD1H@Z
  0053c	83 c4 14	 add	 esp, 20			; 00000014H

; 610  : 				szDesc = szBuf;

  0053f	8d 85 dc fe ff
	ff		 lea	 eax, DWORD PTR _szBuf$515724[ebp]
  00545	50		 push	 eax
  00546	8d 8d c0 fe ff
	ff		 lea	 ecx, DWORD PTR _szDesc$[ebp]
  0054c	ff 15 00 00 00
	00		 call	 DWORD PTR __imp_??4ioHashString@@QAEAAV0@PBD@Z
$LN1@OnRender:

; 611  : 			}
; 612  : 
; 613  : 		}
; 614  : 	}
; 615  : 
; 616  : 	// Name
; 617  : 	kPrinter[0].SetTextStyle( TS_NORMAL );

  00552	53		 push	 ebx
  00553	8d 8d 70 fe ff
	ff		 lea	 ecx, DWORD PTR _kPrinter$[ebp]
  00559	e8 00 00 00 00	 call	 ?SetTextStyle@ioComplexStringPrinter@@QAEXW4TextStyle@@@Z ; ioComplexStringPrinter::SetTextStyle

; 618  : 	kPrinter[0].SetBkColor( 0, 0, 0 );	

  0055e	53		 push	 ebx
  0055f	53		 push	 ebx
  00560	53		 push	 ebx
  00561	8d 8d 70 fe ff
	ff		 lea	 ecx, DWORD PTR _kPrinter$[ebp]
  00567	e8 00 00 00 00	 call	 ?SetBkColor@ioComplexStringPrinter@@QAEXHHH@Z ; ioComplexStringPrinter::SetBkColor

; 619  : 	kPrinter[0].SetTextColor( TCT_DEFAULT_DARKGRAY );

  0056c	bf 3a 3a 3a ff	 mov	 edi, -12961222		; ff3a3a3aH
  00571	57		 push	 edi
  00572	8d 8d 70 fe ff
	ff		 lea	 ecx, DWORD PTR _kPrinter$[ebp]
  00578	e8 00 00 00 00	 call	 ?SetTextColor@ioComplexStringPrinter@@QAEXK@Z ; ioComplexStringPrinter::SetTextColor

; 620  : 	kPrinter[0].AddTextPiece( FONT_SIZE_17, szName.c_str() );

  0057d	8d 8d b0 fe ff
	ff		 lea	 ecx, DWORD PTR _szName$[ebp]
  00583	ff 15 00 00 00
	00		 call	 DWORD PTR __imp_?c_str@ioHashString@@QBEPBDXZ
  00589	f3 0f 10 05 00
	00 00 00	 movss	 xmm0, DWORD PTR __real@3f59999a
  00591	50		 push	 eax
  00592	51		 push	 ecx
  00593	8d 85 70 fe ff
	ff		 lea	 eax, DWORD PTR _kPrinter$[ebp]
  00599	f3 0f 11 04 24	 movss	 DWORD PTR [esp], xmm0
  0059e	50		 push	 eax
  0059f	e8 00 00 00 00	 call	 ?AddTextPiece@ioComplexStringPrinter@@QAAXMPBDZZ ; ioComplexStringPrinter::AddTextPiece

; 621  : 	kPrinter[0].PrintFullText( iXPos+DESC_BIG_X, iYPos+DESC_BIG_Y, TAT_CENTER );

  005a4	8b 85 d4 fe ff
	ff		 mov	 eax, DWORD PTR _iYPos$[ebp]
  005aa	66 0f 6e 85 d0
	fe ff ff	 movd	 xmm0, DWORD PTR tv590[ebp]
  005b2	83 c4 0c	 add	 esp, 12			; 0000000cH
  005b5	be ff 00 00 00	 mov	 esi, 255		; 000000ffH
  005ba	56		 push	 esi
  005bb	6a 01		 push	 1
  005bd	51		 push	 ecx
  005be	51		 push	 ecx
  005bf	05 98 00 00 00	 add	 eax, 152		; 00000098H
  005c4	0f 57 c9	 xorps	 xmm1, xmm1
  005c7	0f 5b c0	 cvtdq2ps xmm0, xmm0
  005ca	f3 0f 2a c8	 cvtsi2ss xmm1, eax
  005ce	f3 0f 11 4c 24
	04		 movss	 DWORD PTR [esp+4], xmm1
  005d4	8d 8d 70 fe ff
	ff		 lea	 ecx, DWORD PTR _kPrinter$[ebp]
  005da	f3 0f 11 85 d0
	fe ff ff	 movss	 DWORD PTR tv591[ebp], xmm0
  005e2	f3 0f 11 04 24	 movss	 DWORD PTR [esp], xmm0
  005e7	e8 00 00 00 00	 call	 ?PrintFullText@ioComplexStringPrinter@@QAEXMMW4TextAlignType@@E@Z ; ioComplexStringPrinter::PrintFullText

; 622  : 
; 623  : 	kPrinter[1].SetTextStyle( TS_NORMAL );

  005ec	53		 push	 ebx
  005ed	8d 8d 90 fe ff
	ff		 lea	 ecx, DWORD PTR _kPrinter$[ebp+32]
  005f3	e8 00 00 00 00	 call	 ?SetTextStyle@ioComplexStringPrinter@@QAEXW4TextStyle@@@Z ; ioComplexStringPrinter::SetTextStyle

; 624  : 	kPrinter[1].SetBkColor( 0, 0, 0 );	

  005f8	53		 push	 ebx
  005f9	53		 push	 ebx
  005fa	53		 push	 ebx
  005fb	8d 8d 90 fe ff
	ff		 lea	 ecx, DWORD PTR _kPrinter$[ebp+32]
  00601	e8 00 00 00 00	 call	 ?SetBkColor@ioComplexStringPrinter@@QAEXHHH@Z ; ioComplexStringPrinter::SetBkColor

; 625  : 	kPrinter[1].SetTextColor( TCT_DEFAULT_DARKGRAY );

  00606	57		 push	 edi
  00607	8d 8d 90 fe ff
	ff		 lea	 ecx, DWORD PTR _kPrinter$[ebp+32]
  0060d	e8 00 00 00 00	 call	 ?SetTextColor@ioComplexStringPrinter@@QAEXK@Z ; ioComplexStringPrinter::SetTextColor

; 626  : 	kPrinter[1].AddTextPiece( FONT_SIZE_17, szDesc.c_str() );

  00612	8d 8d c0 fe ff
	ff		 lea	 ecx, DWORD PTR _szDesc$[ebp]
  00618	ff 15 00 00 00
	00		 call	 DWORD PTR __imp_?c_str@ioHashString@@QBEPBDXZ
  0061e	f3 0f 10 05 00
	00 00 00	 movss	 xmm0, DWORD PTR __real@3f59999a
  00626	50		 push	 eax
  00627	51		 push	 ecx
  00628	8d 85 90 fe ff
	ff		 lea	 eax, DWORD PTR _kPrinter$[ebp+32]
  0062e	f3 0f 11 04 24	 movss	 DWORD PTR [esp], xmm0
  00633	50		 push	 eax
  00634	e8 00 00 00 00	 call	 ?AddTextPiece@ioComplexStringPrinter@@QAAXMPBDZZ ; ioComplexStringPrinter::AddTextPiece

; 627  : 	kPrinter[1].PrintFullText( iXPos+DESC_BIG_X, iYPos+DESC_BIG_Y+23, TAT_CENTER );

  00639	8b 85 d4 fe ff
	ff		 mov	 eax, DWORD PTR _iYPos$[ebp]
  0063f	83 c4 0c	 add	 esp, 12			; 0000000cH
  00642	56		 push	 esi
  00643	6a 01		 push	 1
  00645	51		 push	 ecx
  00646	51		 push	 ecx
  00647	05 af 00 00 00	 add	 eax, 175		; 000000afH
  0064c	0f 57 c0	 xorps	 xmm0, xmm0
  0064f	f3 0f 2a c0	 cvtsi2ss xmm0, eax
  00653	f3 0f 11 44 24
	04		 movss	 DWORD PTR [esp+4], xmm0
  00659	f3 0f 10 85 d0
	fe ff ff	 movss	 xmm0, DWORD PTR tv591[ebp]
  00661	8d 8d 90 fe ff
	ff		 lea	 ecx, DWORD PTR _kPrinter$[ebp+32]
  00667	f3 0f 11 04 24	 movss	 DWORD PTR [esp], xmm0
  0066c	e8 00 00 00 00	 call	 ?PrintFullText@ioComplexStringPrinter@@QAEXMMW4TextAlignType@@E@Z ; ioComplexStringPrinter::PrintFullText

; 628  : }

  00671	8b 3d 00 00 00
	00		 mov	 edi, DWORD PTR __imp_??1ioHashString@@QAE@XZ
  00677	8d 8d c0 fe ff
	ff		 lea	 ecx, DWORD PTR _szDesc$[ebp]
  0067d	c6 45 fc 01	 mov	 BYTE PTR __$EHRec$[ebp+8], 1
  00681	ff d7		 call	 edi
  00683	8d 8d b0 fe ff
	ff		 lea	 ecx, DWORD PTR _szName$[ebp]
  00689	88 5d fc	 mov	 BYTE PTR __$EHRec$[ebp+8], bl
  0068c	ff d7		 call	 edi
  0068e	83 4d fc ff	 or	 DWORD PTR __$EHRec$[ebp+8], -1
  00692	68 00 00 00 00	 push	 OFFSET ??1ioComplexStringPrinter@@QAE@XZ ; ioComplexStringPrinter::~ioComplexStringPrinter
  00697	6a 02		 push	 2
  00699	6a 20		 push	 32			; 00000020H
  0069b	8d 85 70 fe ff
	ff		 lea	 eax, DWORD PTR _kPrinter$[ebp]
  006a1	50		 push	 eax
  006a2	e8 00 00 00 00	 call	 ??_M@YGXPAXIHP6EX0@Z@Z
  006a7	e8 00 00 00 00	 call	 __EH_epilog3_GS
  006ac	c3		 ret	 0
_TEXT	ENDS
;	COMDAT text$x
text$x	SEGMENT
__unwindfunclet$?OnRender@GashaponWnd@@MAEXXZ$0:
  00000	68 00 00 00 00	 push	 OFFSET ??1ioComplexStringPrinter@@QAE@XZ ; ioComplexStringPrinter::~ioComplexStringPrinter
  00005	6a 02		 push	 2
  00007	6a 20		 push	 32			; 00000020H
  00009	8d 85 70 fe ff
	ff		 lea	 eax, DWORD PTR _kPrinter$[ebp]
  0000f	50		 push	 eax
  00010	e8 00 00 00 00	 call	 ??_M@YGXPAXIHP6EX0@Z@Z
  00015	c3		 ret	 0
__unwindfunclet$?OnRender@GashaponWnd@@MAEXXZ$1:
  00016	8d 8d b0 fe ff
	ff		 lea	 ecx, DWORD PTR _szName$[ebp]
  0001c	ff 25 00 00 00
	00		 jmp	 DWORD PTR __imp_??1ioHashString@@QAE@XZ
__unwindfunclet$?OnRender@GashaponWnd@@MAEXXZ$2:
  00022	8d 8d c0 fe ff
	ff		 lea	 ecx, DWORD PTR _szDesc$[ebp]
  00028	ff 25 00 00 00
	00		 jmp	 DWORD PTR __imp_??1ioHashString@@QAE@XZ
__ehhandler$?OnRender@GashaponWnd@@MAEXXZ:
  0002e	8b 54 24 08	 mov	 edx, DWORD PTR [esp+8]
  00032	8d 42 0c	 lea	 eax, DWORD PTR [edx+12]
  00035	8b 8a 6c fe ff
	ff		 mov	 ecx, DWORD PTR [edx-404]
  0003b	33 c8		 xor	 ecx, eax
  0003d	e8 00 00 00 00	 call	 @__security_check_cookie@4
  00042	8b 4a fc	 mov	 ecx, DWORD PTR [edx-4]
  00045	33 c8		 xor	 ecx, eax
  00047	e8 00 00 00 00	 call	 @__security_check_cookie@4
  0004c	b8 00 00 00 00	 mov	 eax, OFFSET __ehfuncinfo$?OnRender@GashaponWnd@@MAEXXZ
  00051	e9 00 00 00 00	 jmp	 ___CxxFrameHandler3
text$x	ENDS
?OnRender@GashaponWnd@@MAEXXZ ENDP			; GashaponWnd::OnRender
PUBLIC	?SetPresentIcon@GashaponWnd@@IAEXXZ		; GashaponWnd::SetPresentIcon
EXTRN	__imp_??0ioHashString@@QAE@XZ:PROC
;	COMDAT xdata$x
; File c:\program files (x86)\microsoft visual studio 10.0\vc\include\vector
xdata$x	SEGMENT
__unwindtable$?SetPresentIcon@GashaponWnd@@IAEXXZ DD 0ffffffffH
	DD	FLAT:__unwindfunclet$?SetPresentIcon@GashaponWnd@@IAEXXZ$0
__ehfuncinfo$?SetPresentIcon@GashaponWnd@@IAEXXZ DD 019930522H
	DD	01H
	DD	FLAT:__unwindtable$?SetPresentIcon@GashaponWnd@@IAEXXZ
	DD	2 DUP(00H)
	DD	2 DUP(00H)
	DD	00H
	DD	01H
; Function compile flags: /Ogsp
; File d:\lost saga for developer\youtube\tutorial\source\src\lsclient\gui\gashaponwnd.cpp
xdata$x	ENDS
;	COMDAT ?SetPresentIcon@GashaponWnd@@IAEXXZ
_TEXT	SEGMENT
_szIconName$ = -48					; size = 16
_iValue4Size$ = -32					; size = 4
_iValue3Size$ = -28					; size = 4
_iIconSize$ = -24					; size = 4
_iValue2Size$ = -20					; size = 4
_i$515830 = -16						; size = 4
__$EHRec$ = -12						; size = 12
?SetPresentIcon@GashaponWnd@@IAEXXZ PROC		; GashaponWnd::SetPresentIcon, COMDAT
; _this$ = ecx

; 806  : {

  00000	6a 24		 push	 36			; 00000024H
  00002	b8 00 00 00 00	 mov	 eax, __ehhandler$?SetPresentIcon@GashaponWnd@@IAEXXZ
  00007	e8 00 00 00 00	 call	 __EH_prolog3
  0000c	8b f1		 mov	 esi, ecx

; 807  : 	SAFEDELETE( m_pIcon );

  0000e	8b 8e 60 01 00
	00		 mov	 ecx, DWORD PTR [esi+352]
  00014	85 c9		 test	 ecx, ecx
  00016	74 0e		 je	 SHORT $LN19@SetPresent
  00018	8b 01		 mov	 eax, DWORD PTR [ecx]
  0001a	6a 01		 push	 1
  0001c	ff 50 40	 call	 DWORD PTR [eax+64]
  0001f	83 a6 60 01 00
	00 00		 and	 DWORD PTR [esi+352], 0
$LN19@SetPresent:

; 808  : 	m_bIsCostume = false;
; 809  : 
; 810  : 	bool bIconChange = false;
; 811  : 	ioHashString szIconName;

  00026	8d 4d d0	 lea	 ecx, DWORD PTR _szIconName$[ebp]
  00029	c6 86 10 a7 04
	00 00		 mov	 BYTE PTR [esi+304912], 0
  00030	ff 15 00 00 00
	00		 call	 DWORD PTR __imp_??0ioHashString@@QAE@XZ
  00036	83 65 fc 00	 and	 DWORD PTR __$EHRec$[ebp+8], 0

; 812  : 
; 813  : 	// change icon
; 814  : 	int iMax = m_vIconChangePresentTypeVec[GetGashaponArray()].size();

  0003a	8b ce		 mov	 ecx, esi
  0003c	e8 00 00 00 00	 call	 ?GetGashaponArray@GashaponWnd@@IAEHXZ ; GashaponWnd::GetGashaponArray
  00041	03 c0		 add	 eax, eax
  00043	8d 84 c6 ec 3c
	01 00		 lea	 eax, DWORD PTR [esi+eax*8+81132]
  0004a	8b 50 04	 mov	 edx, DWORD PTR [eax+4]
  0004d	2b 10		 sub	 edx, DWORD PTR [eax]
  0004f	c1 fa 02	 sar	 edx, 2

; 815  : 	int iValue1Size = m_vIconChangePresentValue1Vec[GetGashaponArray()].size();

  00052	e8 00 00 00 00	 call	 ?GetGashaponArray@GashaponWnd@@IAEHXZ ; GashaponWnd::GetGashaponArray
  00057	03 c0		 add	 eax, eax
  00059	8d 84 c6 fc 9d
	01 00		 lea	 eax, DWORD PTR [esi+eax*8+105980]
  00060	8b 78 04	 mov	 edi, DWORD PTR [eax+4]
  00063	2b 38		 sub	 edi, DWORD PTR [eax]
  00065	c1 ff 02	 sar	 edi, 2

; 816  : 	int iValue2Size = m_vIconChangePresentValue2Vec[GetGashaponArray()].size();

  00068	e8 00 00 00 00	 call	 ?GetGashaponArray@GashaponWnd@@IAEHXZ ; GashaponWnd::GetGashaponArray
  0006d	03 c0		 add	 eax, eax
  0006f	8d 84 c6 0c ff
	01 00		 lea	 eax, DWORD PTR [esi+eax*8+130828]
  00076	8b 58 04	 mov	 ebx, DWORD PTR [eax+4]
  00079	2b 18		 sub	 ebx, DWORD PTR [eax]
  0007b	c1 fb 02	 sar	 ebx, 2
  0007e	89 5d ec	 mov	 DWORD PTR _iValue2Size$[ebp], ebx

; 817  : 	int iValue3Size = m_vIconChangePresentValue3Vec[GetGashaponArray()].size();

  00081	e8 00 00 00 00	 call	 ?GetGashaponArray@GashaponWnd@@IAEHXZ ; GashaponWnd::GetGashaponArray
  00086	03 c0		 add	 eax, eax
  00088	8d 8c c6 1c 60
	02 00		 lea	 ecx, DWORD PTR [esi+eax*8+155676]
  0008f	8b 41 04	 mov	 eax, DWORD PTR [ecx+4]
  00092	2b 01		 sub	 eax, DWORD PTR [ecx]

; 818  : 	int iValue4Size = m_vIconChangePresentValue4Vec[GetGashaponArray()].size();

  00094	8b ce		 mov	 ecx, esi
  00096	c1 f8 02	 sar	 eax, 2
  00099	89 45 e4	 mov	 DWORD PTR _iValue3Size$[ebp], eax
  0009c	e8 00 00 00 00	 call	 ?GetGashaponArray@GashaponWnd@@IAEHXZ ; GashaponWnd::GetGashaponArray
  000a1	03 c0		 add	 eax, eax
  000a3	8d 8c c6 2c c1
	02 00		 lea	 ecx, DWORD PTR [esi+eax*8+180524]
  000aa	8b 41 04	 mov	 eax, DWORD PTR [ecx+4]
  000ad	2b 01		 sub	 eax, DWORD PTR [ecx]

; 819  : 	int iIconSize = m_vIconChangeIconVec[GetGashaponArray()].size();

  000af	8b ce		 mov	 ecx, esi
  000b1	c1 f8 02	 sar	 eax, 2
  000b4	89 45 e0	 mov	 DWORD PTR _iValue4Size$[ebp], eax
  000b7	e8 00 00 00 00	 call	 ?GetGashaponArray@GashaponWnd@@IAEHXZ ; GashaponWnd::GetGashaponArray
  000bc	03 c0		 add	 eax, eax
  000be	8d 8c c6 3c 22
	03 00		 lea	 ecx, DWORD PTR [esi+eax*8+205372]
  000c5	8b 41 04	 mov	 eax, DWORD PTR [ecx+4]
  000c8	2b 01		 sub	 eax, DWORD PTR [ecx]

; 820  : 
; 821  : 	for (int i = 0; i < iMax ; i++)

  000ca	33 c9		 xor	 ecx, ecx
  000cc	c1 f8 04	 sar	 eax, 4
  000cf	89 45 e8	 mov	 DWORD PTR _iIconSize$[ebp], eax
  000d2	89 4d f0	 mov	 DWORD PTR _i$515830[ebp], ecx
  000d5	85 d2		 test	 edx, edx
  000d7	0f 8e 07 01 00
	00		 jle	 $LN56@SetPresent
  000dd	eb 09		 jmp	 SHORT $LN18@SetPresent
$LL57@SetPresent:
  000df	8b 5d ec	 mov	 ebx, DWORD PTR _iValue2Size$[ebp]
  000e2	8b 45 e8	 mov	 eax, DWORD PTR _iIconSize$[ebp]
  000e5	8b 4d f0	 mov	 ecx, DWORD PTR _i$515830[ebp]
$LN18@SetPresent:

; 822  : 	{
; 823  : 		if( i >= iValue1Size )

  000e8	3b cf		 cmp	 ecx, edi
  000ea	0f 8d f4 00 00
	00		 jge	 $LN56@SetPresent

; 824  : 			break;
; 825  : 		if( i >= iValue2Size )

  000f0	3b cb		 cmp	 ecx, ebx
  000f2	0f 8d ec 00 00
	00		 jge	 $LN56@SetPresent

; 826  : 			break;
; 827  : 		if( i >= iValue3Size )

  000f8	3b 4d e4	 cmp	 ecx, DWORD PTR _iValue3Size$[ebp]
  000fb	0f 8d e3 00 00
	00		 jge	 $LN56@SetPresent

; 828  : 			break;
; 829  : 		if( i >= iValue4Size )

  00101	3b 4d e0	 cmp	 ecx, DWORD PTR _iValue4Size$[ebp]
  00104	0f 8d da 00 00
	00		 jge	 $LN56@SetPresent

; 830  : 			break;
; 831  : 		if( i >= iIconSize )

  0010a	3b c8		 cmp	 ecx, eax
  0010c	0f 8d d2 00 00
	00		 jge	 $LN56@SetPresent

; 832  : 			break;
; 833  : 
; 834  : 		if( m_iPresentType   != m_vIconChangePresentTypeVec[GetGashaponArray()][i] )

  00112	8b ce		 mov	 ecx, esi
  00114	e8 00 00 00 00	 call	 ?GetGashaponArray@GashaponWnd@@IAEHXZ ; GashaponWnd::GetGashaponArray
  00119	0f bf 8e 6c 83
	03 00		 movsx	 ecx, WORD PTR [esi+230252]
  00120	8b 5d f0	 mov	 ebx, DWORD PTR _i$515830[ebp]
  00123	03 c0		 add	 eax, eax
  00125	8d 84 c6 ec 3c
	01 00		 lea	 eax, DWORD PTR [esi+eax*8+81132]
  0012c	8b 00		 mov	 eax, DWORD PTR [eax]
  0012e	3b 0c 98	 cmp	 ecx, DWORD PTR [eax+ebx*4]
  00131	75 74		 jne	 SHORT $LN17@SetPresent

; 835  : 			continue;
; 836  : 		if( m_iPresentValue1 != m_vIconChangePresentValue1Vec[GetGashaponArray()][i] )

  00133	8b ce		 mov	 ecx, esi
  00135	e8 00 00 00 00	 call	 ?GetGashaponArray@GashaponWnd@@IAEHXZ ; GashaponWnd::GetGashaponArray
  0013a	8b 8e 70 83 03
	00		 mov	 ecx, DWORD PTR [esi+230256]
  00140	03 c0		 add	 eax, eax
  00142	8d 84 c6 fc 9d
	01 00		 lea	 eax, DWORD PTR [esi+eax*8+105980]
  00149	8b 00		 mov	 eax, DWORD PTR [eax]
  0014b	3b 0c 98	 cmp	 ecx, DWORD PTR [eax+ebx*4]
  0014e	75 57		 jne	 SHORT $LN17@SetPresent

; 837  : 			continue;
; 838  : 		if( m_iPresentValue2 != m_vIconChangePresentValue2Vec[GetGashaponArray()][i] )

  00150	8b ce		 mov	 ecx, esi
  00152	e8 00 00 00 00	 call	 ?GetGashaponArray@GashaponWnd@@IAEHXZ ; GashaponWnd::GetGashaponArray
  00157	8b 8e 74 83 03
	00		 mov	 ecx, DWORD PTR [esi+230260]
  0015d	03 c0		 add	 eax, eax
  0015f	8d 84 c6 0c ff
	01 00		 lea	 eax, DWORD PTR [esi+eax*8+130828]
  00166	8b 00		 mov	 eax, DWORD PTR [eax]
  00168	3b 0c 98	 cmp	 ecx, DWORD PTR [eax+ebx*4]
  0016b	75 3a		 jne	 SHORT $LN17@SetPresent

; 839  : 			continue;
; 840  : 		if( m_iPresentValue3 != m_vIconChangePresentValue3Vec[GetGashaponArray()][i] )

  0016d	8b ce		 mov	 ecx, esi
  0016f	e8 00 00 00 00	 call	 ?GetGashaponArray@GashaponWnd@@IAEHXZ ; GashaponWnd::GetGashaponArray
  00174	8b 8e 78 83 03
	00		 mov	 ecx, DWORD PTR [esi+230264]
  0017a	03 c0		 add	 eax, eax
  0017c	8d 84 c6 1c 60
	02 00		 lea	 eax, DWORD PTR [esi+eax*8+155676]
  00183	8b 00		 mov	 eax, DWORD PTR [eax]
  00185	3b 0c 98	 cmp	 ecx, DWORD PTR [eax+ebx*4]
  00188	75 1d		 jne	 SHORT $LN17@SetPresent

; 841  : 			continue;
; 842  : 		if( m_iPresentValue4 != m_vIconChangePresentValue4Vec[GetGashaponArray()][i] )

  0018a	8b ce		 mov	 ecx, esi
  0018c	e8 00 00 00 00	 call	 ?GetGashaponArray@GashaponWnd@@IAEHXZ ; GashaponWnd::GetGashaponArray
  00191	8b 8e 7c 83 03
	00		 mov	 ecx, DWORD PTR [esi+230268]
  00197	03 c0		 add	 eax, eax
  00199	8d 84 c6 2c c1
	02 00		 lea	 eax, DWORD PTR [esi+eax*8+180524]
  001a0	8b 00		 mov	 eax, DWORD PTR [eax]
  001a2	3b 0c 98	 cmp	 ecx, DWORD PTR [eax+ebx*4]
  001a5	74 0e		 je	 SHORT $LN6@SetPresent
$LN17@SetPresent:

; 820  : 
; 821  : 	for (int i = 0; i < iMax ; i++)

  001a7	ff 45 f0	 inc	 DWORD PTR _i$515830[ebp]
  001aa	39 55 f0	 cmp	 DWORD PTR _i$515830[ebp], edx
  001ad	0f 8c 2c ff ff
	ff		 jl	 $LL57@SetPresent

; 830  : 			break;
; 831  : 		if( i >= iIconSize )

  001b3	eb 2f		 jmp	 SHORT $LN56@SetPresent
$LN6@SetPresent:

; 843  : 			continue;
; 844  : 
; 845  : 		szIconName  = m_vIconChangeIconVec[GetGashaponArray()][i];

  001b5	8b ce		 mov	 ecx, esi
  001b7	e8 00 00 00 00	 call	 ?GetGashaponArray@GashaponWnd@@IAEHXZ ; GashaponWnd::GetGashaponArray
  001bc	03 c0		 add	 eax, eax
  001be	8d 8c c6 3c 22
	03 00		 lea	 ecx, DWORD PTR [esi+eax*8+205372]
  001c5	8b 45 f0	 mov	 eax, DWORD PTR _i$515830[ebp]
  001c8	c1 e0 04	 shl	 eax, 4
  001cb	03 01		 add	 eax, DWORD PTR [ecx]
  001cd	8d 4d d0	 lea	 ecx, DWORD PTR _szIconName$[ebp]
  001d0	50		 push	 eax
  001d1	ff 15 00 00 00
	00		 call	 DWORD PTR __imp_??4ioHashString@@QAEAAV0@ABV0@@Z

; 846  : 		if( !szIconName.IsEmpty() )

  001d7	8d 4d d0	 lea	 ecx, DWORD PTR _szIconName$[ebp]
  001da	ff 15 00 00 00
	00		 call	 DWORD PTR __imp_?IsEmpty@ioHashString@@QBE_NXZ
  001e0	84 c0		 test	 al, al
  001e2	74 1f		 je	 SHORT $LN4@SetPresent
$LN56@SetPresent:

; 847  : 			bIconChange = true;
; 848  : 		break;
; 849  : 	}
; 850  : 
; 851  : 	if( !bIconChange )
; 852  : 		GetPresentIconName( szIconName, m_iPresentType, m_iPresentValue1, m_iPresentValue2 );

  001e4	ff b6 74 83 03
	00		 push	 DWORD PTR [esi+230260]
  001ea	0f bf 86 6c 83
	03 00		 movsx	 eax, WORD PTR [esi+230252]
  001f1	ff b6 70 83 03
	00		 push	 DWORD PTR [esi+230256]
  001f7	8b ce		 mov	 ecx, esi
  001f9	50		 push	 eax
  001fa	8d 45 d0	 lea	 eax, DWORD PTR _szIconName$[ebp]
  001fd	50		 push	 eax
  001fe	e8 00 00 00 00	 call	 ?GetPresentIconName@GashaponWnd@@IAEXAAVioHashString@@HHH@Z ; GashaponWnd::GetPresentIconName
$LN4@SetPresent:

; 853  : 
; 854  : 	if( !szIconName.IsEmpty() )

  00203	8d 4d d0	 lea	 ecx, DWORD PTR _szIconName$[ebp]
  00206	ff 15 00 00 00
	00		 call	 DWORD PTR __imp_?IsEmpty@ioHashString@@QBE_NXZ
  0020c	84 c0		 test	 al, al
  0020e	75 1a		 jne	 SHORT $LN3@SetPresent

; 855  : 	{
; 856  : 		m_pIcon = g_UIImageSetMgr.CreateImageByFullName( szIconName );

  00210	8d 45 d0	 lea	 eax, DWORD PTR _szIconName$[ebp]
  00213	6a 00		 push	 0
  00215	50		 push	 eax
  00216	ff 15 00 00 00
	00		 call	 DWORD PTR __imp_?GetSingleton@ioUIImageSetManager@@SAAAV1@XZ
  0021c	8b c8		 mov	 ecx, eax
  0021e	ff 15 00 00 00
	00		 call	 DWORD PTR __imp_?CreateImageByFullName@ioUIImageSetManager@@QAEPAVioUIRenderImage@@ABVioHashString@@_N@Z
  00224	89 86 60 01 00
	00		 mov	 DWORD PTR [esi+352], eax
$LN3@SetPresent:

; 857  : 	}
; 858  : 
; 859  : 	if ( m_iPresentType == PRESENT_COSTUME || m_iPresentType == PRESENT_COSTUME_BOX )

  0022a	0f b7 86 6c 83
	03 00		 movzx	 eax, WORD PTR [esi+230252]
  00231	66 83 f8 0c	 cmp	 ax, 12			; 0000000cH
  00235	74 06		 je	 SHORT $LN1@SetPresent
  00237	66 83 f8 0f	 cmp	 ax, 15			; 0000000fH
  0023b	75 07		 jne	 SHORT $LN2@SetPresent
$LN1@SetPresent:

; 860  : 		m_bIsCostume = true;

  0023d	c6 86 10 a7 04
	00 01		 mov	 BYTE PTR [esi+304912], 1
$LN2@SetPresent:

; 861  : 
; 862  : 	m_nGradeType = GetPresentGrade( m_iPresentType, m_iPresentValue1 );

  00244	ff b6 70 83 03
	00		 push	 DWORD PTR [esi+230256]
  0024a	98		 cwde
  0024b	50		 push	 eax
  0024c	8b ce		 mov	 ecx, esi
  0024e	e8 00 00 00 00	 call	 ?GetPresentGrade@GashaponWnd@@IAEHHH@Z ; GashaponWnd::GetPresentGrade

; 863  : 	m_fGradeScale = 1.0f;

  00253	f3 0f 10 05 00
	00 00 00	 movss	 xmm0, DWORD PTR __real@3f800000

; 864  : }

  0025b	83 4d fc ff	 or	 DWORD PTR __$EHRec$[ebp+8], -1
  0025f	8d 4d d0	 lea	 ecx, DWORD PTR _szIconName$[ebp]
  00262	89 86 14 a7 04
	00		 mov	 DWORD PTR [esi+304916], eax
  00268	f3 0f 11 86 18
	a7 04 00	 movss	 DWORD PTR [esi+304920], xmm0
  00270	ff 15 00 00 00
	00		 call	 DWORD PTR __imp_??1ioHashString@@QAE@XZ
  00276	e8 00 00 00 00	 call	 __EH_epilog3
  0027b	c3		 ret	 0
_TEXT	ENDS
;	COMDAT text$x
text$x	SEGMENT
__unwindfunclet$?SetPresentIcon@GashaponWnd@@IAEXXZ$0:
  00000	8d 4d d0	 lea	 ecx, DWORD PTR _szIconName$[ebp]
  00003	ff 25 00 00 00
	00		 jmp	 DWORD PTR __imp_??1ioHashString@@QAE@XZ
__ehhandler$?SetPresentIcon@GashaponWnd@@IAEXXZ:
  00009	8b 54 24 08	 mov	 edx, DWORD PTR [esp+8]
  0000d	8d 42 0c	 lea	 eax, DWORD PTR [edx+12]
  00010	8b 4a cc	 mov	 ecx, DWORD PTR [edx-52]
  00013	33 c8		 xor	 ecx, eax
  00015	e8 00 00 00 00	 call	 @__security_check_cookie@4
  0001a	b8 00 00 00 00	 mov	 eax, OFFSET __ehfuncinfo$?SetPresentIcon@GashaponWnd@@IAEXXZ
  0001f	e9 00 00 00 00	 jmp	 ___CxxFrameHandler3
text$x	ENDS
?SetPresentIcon@GashaponWnd@@IAEXXZ ENDP		; GashaponWnd::SetPresentIcon
PUBLIC	?begin@?$vector@_NV?$allocator@_N@std@@@std@@QAE?AV?$_Vb_iterator@V?$allocator@_N@std@@@2@XZ ; std::vector<bool,std::allocator<bool> >::begin
; Function compile flags: /Ogsp
; File c:\program files (x86)\microsoft visual studio 10.0\vc\include\vector
;	COMDAT ?begin@?$vector@_NV?$allocator@_N@std@@@std@@QAE?AV?$_Vb_iterator@V?$allocator@_N@std@@@2@XZ
_TEXT	SEGMENT
___$ReturnUdt$ = 8					; size = 4
?begin@?$vector@_NV?$allocator@_N@std@@@std@@QAE?AV?$_Vb_iterator@V?$allocator@_N@std@@@2@XZ PROC ; std::vector<bool,std::allocator<bool> >::begin, COMDAT
; _this$ = ecx

; 2206 : 		{	// return iterator for beginning of mutable sequence

  00000	55		 push	 ebp
  00001	8b ec		 mov	 ebp, esp

; 2207 : 		return (iterator((_Vbase *)this->_Myvec._Myfirst, this));

  00003	8b 45 08	 mov	 eax, DWORD PTR ___$ReturnUdt$[ebp]
  00006	8b 09		 mov	 ecx, DWORD PTR [ecx]
  00008	83 60 04 00	 and	 DWORD PTR [eax+4], 0
  0000c	89 08		 mov	 DWORD PTR [eax], ecx

; 2208 : 		}

  0000e	5d		 pop	 ebp
  0000f	c2 04 00	 ret	 4
?begin@?$vector@_NV?$allocator@_N@std@@@std@@QAE?AV?$_Vb_iterator@V?$allocator@_N@std@@@2@XZ ENDP ; std::vector<bool,std::allocator<bool> >::begin
_TEXT	ENDS
PUBLIC	?end@?$vector@_NV?$allocator@_N@std@@@std@@QAE?AV?$_Vb_iterator@V?$allocator@_N@std@@@2@XZ ; std::vector<bool,std::allocator<bool> >::end
; Function compile flags: /Ogsp
;	COMDAT ?end@?$vector@_NV?$allocator@_N@std@@@std@@QAE?AV?$_Vb_iterator@V?$allocator@_N@std@@@2@XZ
_TEXT	SEGMENT
___$ReturnUdt$ = 8					; size = 4
?end@?$vector@_NV?$allocator@_N@std@@@std@@QAE?AV?$_Vb_iterator@V?$allocator@_N@std@@@2@XZ PROC ; std::vector<bool,std::allocator<bool> >::end, COMDAT
; _this$ = ecx

; 2216 : 		{	// return iterator for end of mutable sequence

  00000	55		 push	 ebp
  00001	8b ec		 mov	 ebp, esp

; 2217 : 		iterator _Tmp = begin();

  00003	8b 01		 mov	 eax, DWORD PTR [ecx]
  00005	56		 push	 esi
  00006	8b 75 08	 mov	 esi, DWORD PTR ___$ReturnUdt$[ebp]
  00009	83 66 04 00	 and	 DWORD PTR [esi+4], 0
  0000d	89 06		 mov	 DWORD PTR [esi], eax

; 2218 : 		if (0 < this->_Mysize)

  0000f	8b 49 10	 mov	 ecx, DWORD PTR [ecx+16]
  00012	85 c9		 test	 ecx, ecx
  00014	74 08		 je	 SHORT $LN14@end

; 2219 : 			_Tmp += this->_Mysize;

  00016	51		 push	 ecx
  00017	8b ce		 mov	 ecx, esi
  00019	e8 00 00 00 00	 call	 ??Y?$_Vb_const_iterator@V?$allocator@_N@std@@@std@@QAEAAV01@H@Z ; std::_Vb_const_iterator<std::allocator<bool> >::operator+=
$LN14@end:

; 2220 : 		return (_Tmp);

  0001e	8b c6		 mov	 eax, esi
  00020	5e		 pop	 esi

; 2221 : 		}

  00021	5d		 pop	 ebp
  00022	c2 04 00	 ret	 4
?end@?$vector@_NV?$allocator@_N@std@@@std@@QAE?AV?$_Vb_iterator@V?$allocator@_N@std@@@2@XZ ENDP ; std::vector<bool,std::allocator<bool> >::end
_TEXT	ENDS
PUBLIC	??D?$_Vb_iterator@V?$allocator@_N@std@@@std@@QBE?AV?$_Vb_reference@V?$allocator@_N@std@@@1@XZ ; std::_Vb_iterator<std::allocator<bool> >::operator*
; Function compile flags: /Ogsp
;	COMDAT ??D?$_Vb_iterator@V?$allocator@_N@std@@@std@@QBE?AV?$_Vb_reference@V?$allocator@_N@std@@@1@XZ
_TEXT	SEGMENT
___$ReturnUdt$ = 8					; size = 4
??D?$_Vb_iterator@V?$allocator@_N@std@@@std@@QBE?AV?$_Vb_reference@V?$allocator@_N@std@@@1@XZ PROC ; std::_Vb_iterator<std::allocator<bool> >::operator*, COMDAT
; _this$ = ecx

; 1920 : 		{	// return (reference to) designated object

  00000	55		 push	 ebp
  00001	8b ec		 mov	 ebp, esp

; 1921 : 		return (_Reft(*this));

  00003	8b 11		 mov	 edx, DWORD PTR [ecx]
  00005	8b 45 08	 mov	 eax, DWORD PTR ___$ReturnUdt$[ebp]
  00008	8b 49 04	 mov	 ecx, DWORD PTR [ecx+4]
  0000b	89 10		 mov	 DWORD PTR [eax], edx
  0000d	89 48 04	 mov	 DWORD PTR [eax+4], ecx

; 1922 : 		}

  00010	5d		 pop	 ebp
  00011	c2 04 00	 ret	 4
??D?$_Vb_iterator@V?$allocator@_N@std@@@std@@QBE?AV?$_Vb_reference@V?$allocator@_N@std@@@1@XZ ENDP ; std::_Vb_iterator<std::allocator<bool> >::operator*
_TEXT	ENDS
PUBLIC	??H?$_Vb_iterator@V?$allocator@_N@std@@@std@@QBE?AV01@H@Z ; std::_Vb_iterator<std::allocator<bool> >::operator+
; Function compile flags: /Ogsp
;	COMDAT ??H?$_Vb_iterator@V?$allocator@_N@std@@@std@@QBE?AV01@H@Z
_TEXT	SEGMENT
__Tmp$ = -8						; size = 8
___$ReturnUdt$ = 8					; size = 4
__Off$ = 12						; size = 4
??H?$_Vb_iterator@V?$allocator@_N@std@@@std@@QBE?AV01@H@Z PROC ; std::_Vb_iterator<std::allocator<bool> >::operator+, COMDAT
; _this$ = ecx

; 1957 : 		{	// return this + integer

  00000	55		 push	 ebp
  00001	8b ec		 mov	 ebp, esp
  00003	51		 push	 ecx
  00004	51		 push	 ecx

; 1958 : 		_Mytype _Tmp = *this;

  00005	8b 01		 mov	 eax, DWORD PTR [ecx]

; 1959 : 		return (_Tmp += _Off);

  00007	ff 75 0c	 push	 DWORD PTR __Off$[ebp]
  0000a	89 45 f8	 mov	 DWORD PTR __Tmp$[ebp], eax
  0000d	8b 41 04	 mov	 eax, DWORD PTR [ecx+4]
  00010	8d 4d f8	 lea	 ecx, DWORD PTR __Tmp$[ebp]
  00013	89 45 fc	 mov	 DWORD PTR __Tmp$[ebp+4], eax
  00016	e8 00 00 00 00	 call	 ??Y?$_Vb_const_iterator@V?$allocator@_N@std@@@std@@QAEAAV01@H@Z ; std::_Vb_const_iterator<std::allocator<bool> >::operator+=
  0001b	8b 4d f8	 mov	 ecx, DWORD PTR __Tmp$[ebp]
  0001e	8b 45 08	 mov	 eax, DWORD PTR ___$ReturnUdt$[ebp]
  00021	89 08		 mov	 DWORD PTR [eax], ecx
  00023	8b 4d fc	 mov	 ecx, DWORD PTR __Tmp$[ebp+4]
  00026	89 48 04	 mov	 DWORD PTR [eax+4], ecx

; 1960 : 		}

  00029	c9		 leave
  0002a	c2 08 00	 ret	 8
??H?$_Vb_iterator@V?$allocator@_N@std@@@std@@QBE?AV01@H@Z ENDP ; std::_Vb_iterator<std::allocator<bool> >::operator+
_TEXT	ENDS
PUBLIC	?_Grow_to@?$vector@VioHashString@@V?$allocator@VioHashString@@@std@@@std@@IBEII@Z ; std::vector<ioHashString,std::allocator<ioHashString> >::_Grow_to
; Function compile flags: /Ogsp
;	COMDAT ?_Grow_to@?$vector@VioHashString@@V?$allocator@VioHashString@@@std@@@std@@IBEII@Z
_TEXT	SEGMENT
__Count$ = 8						; size = 4
?_Grow_to@?$vector@VioHashString@@V?$allocator@VioHashString@@@std@@@std@@IBEII@Z PROC ; std::vector<ioHashString,std::allocator<ioHashString> >::_Grow_to, COMDAT
; _this$ = ecx

; 1274 : 		{	// grow by 50% or at least to _Count

  00000	55		 push	 ebp
  00001	8b ec		 mov	 ebp, esp

; 1275 : 		size_type _Capacity = capacity();

  00003	8b 41 08	 mov	 eax, DWORD PTR [ecx+8]
  00006	2b 01		 sub	 eax, DWORD PTR [ecx]

; 1276 : 
; 1277 : 		_Capacity = max_size() - _Capacity / 2 < _Capacity
; 1278 : 			? 0 : _Capacity + _Capacity / 2;	// try to grow by 50%

  00008	ba ff ff ff 0f	 mov	 edx, 268435455		; 0fffffffH
  0000d	c1 f8 04	 sar	 eax, 4
  00010	8b c8		 mov	 ecx, eax
  00012	d1 e9		 shr	 ecx, 1
  00014	2b d1		 sub	 edx, ecx
  00016	3b d0		 cmp	 edx, eax
  00018	73 04		 jae	 SHORT $LN4@Grow_to@3
  0001a	33 c0		 xor	 eax, eax
  0001c	eb 02		 jmp	 SHORT $LN5@Grow_to@3
$LN4@Grow_to@3:
  0001e	03 c1		 add	 eax, ecx
$LN5@Grow_to@3:

; 1279 : 		if (_Capacity < _Count)

  00020	3b 45 08	 cmp	 eax, DWORD PTR __Count$[ebp]

; 1280 : 			_Capacity = _Count;

  00023	0f 42 45 08	 cmovb	 eax, DWORD PTR __Count$[ebp]

; 1281 : 		return (_Capacity);
; 1282 : 		}

  00027	5d		 pop	 ebp
  00028	c2 04 00	 ret	 4
?_Grow_to@?$vector@VioHashString@@V?$allocator@VioHashString@@@std@@@std@@IBEII@Z ENDP ; std::vector<ioHashString,std::allocator<ioHashString> >::_Grow_to
_TEXT	ENDS
PUBLIC	?_Make_iter@?$vector@_NV?$allocator@_N@std@@@std@@QAE?AV?$_Vb_iterator@V?$allocator@_N@std@@@2@V?$_Vb_const_iterator@V?$allocator@_N@std@@@2@@Z ; std::vector<bool,std::allocator<bool> >::_Make_iter
; Function compile flags: /Ogsp
;	COMDAT ?_Make_iter@?$vector@_NV?$allocator@_N@std@@@std@@QAE?AV?$_Vb_iterator@V?$allocator@_N@std@@@2@V?$_Vb_const_iterator@V?$allocator@_N@std@@@2@@Z
_TEXT	SEGMENT
___$ReturnUdt$ = 8					; size = 4
__Where$ = 12						; size = 8
?_Make_iter@?$vector@_NV?$allocator@_N@std@@@std@@QAE?AV?$_Vb_iterator@V?$allocator@_N@std@@@2@V?$_Vb_const_iterator@V?$allocator@_N@std@@@2@@Z PROC ; std::vector<bool,std::allocator<bool> >::_Make_iter, COMDAT
; _this$ = ecx

; 2260 : 		{	// make iterator from const_iterator

  00000	55		 push	 ebp
  00001	8b ec		 mov	 ebp, esp

; 2261 : 		iterator _Tmp = begin();

  00003	8b 01		 mov	 eax, DWORD PTR [ecx]
  00005	56		 push	 esi
  00006	8b 75 08	 mov	 esi, DWORD PTR ___$ReturnUdt$[ebp]
  00009	83 66 04 00	 and	 DWORD PTR [esi+4], 0
  0000d	89 06		 mov	 DWORD PTR [esi], eax

; 2262 : 		if (0 < this->_Mysize)

  0000f	83 79 10 00	 cmp	 DWORD PTR [ecx+16], 0
  00013	76 18		 jbe	 SHORT $LN28@Make_iter

; 2263 : 			_Tmp += _Where - begin();

  00015	8b 09		 mov	 ecx, DWORD PTR [ecx]
  00017	8b 45 0c	 mov	 eax, DWORD PTR __Where$[ebp]
  0001a	2b c1		 sub	 eax, ecx
  0001c	c1 f8 02	 sar	 eax, 2
  0001f	c1 e0 05	 shl	 eax, 5
  00022	03 45 10	 add	 eax, DWORD PTR __Where$[ebp+4]
  00025	8b ce		 mov	 ecx, esi
  00027	50		 push	 eax
  00028	e8 00 00 00 00	 call	 ??Y?$_Vb_const_iterator@V?$allocator@_N@std@@@std@@QAEAAV01@H@Z ; std::_Vb_const_iterator<std::allocator<bool> >::operator+=
$LN28@Make_iter:

; 2264 : 		return (_Tmp);

  0002d	8b c6		 mov	 eax, esi
  0002f	5e		 pop	 esi

; 2265 : 		}

  00030	5d		 pop	 ebp
  00031	c2 0c 00	 ret	 12			; 0000000cH
?_Make_iter@?$vector@_NV?$allocator@_N@std@@@std@@QAE?AV?$_Vb_iterator@V?$allocator@_N@std@@@2@V?$_Vb_const_iterator@V?$allocator@_N@std@@@2@@Z ENDP ; std::vector<bool,std::allocator<bool> >::_Make_iter
_TEXT	ENDS
PUBLIC	??G?$_Vb_iterator@V?$allocator@_N@std@@@std@@QBEHABV?$_Vb_const_iterator@V?$allocator@_N@std@@@1@@Z ; std::_Vb_iterator<std::allocator<bool> >::operator-
; Function compile flags: /Ogsp
;	COMDAT ??G?$_Vb_iterator@V?$allocator@_N@std@@@std@@QBEHABV?$_Vb_const_iterator@V?$allocator@_N@std@@@1@@Z
_TEXT	SEGMENT
__Right$ = 8						; size = 4
??G?$_Vb_iterator@V?$allocator@_N@std@@@std@@QBEHABV?$_Vb_const_iterator@V?$allocator@_N@std@@@1@@Z PROC ; std::_Vb_iterator<std::allocator<bool> >::operator-, COMDAT
; _this$ = ecx

; 1974 : 		{	// return difference of iterators

  00000	55		 push	 ebp
  00001	8b ec		 mov	 ebp, esp

; 1975 : 		return (*(_Mybase *)this - _Right);

  00003	8b 55 08	 mov	 edx, DWORD PTR __Right$[ebp]
  00006	8b 01		 mov	 eax, DWORD PTR [ecx]
  00008	2b 02		 sub	 eax, DWORD PTR [edx]
  0000a	c1 f8 02	 sar	 eax, 2
  0000d	c1 e0 05	 shl	 eax, 5
  00010	2b 42 04	 sub	 eax, DWORD PTR [edx+4]
  00013	03 41 04	 add	 eax, DWORD PTR [ecx+4]

; 1976 : 		}

  00016	5d		 pop	 ebp
  00017	c2 04 00	 ret	 4
??G?$_Vb_iterator@V?$allocator@_N@std@@@std@@QBEHABV?$_Vb_const_iterator@V?$allocator@_N@std@@@1@@Z ENDP ; std::_Vb_iterator<std::allocator<bool> >::operator-
_TEXT	ENDS
PUBLIC	??9?$_Vb_const_iterator@V?$allocator@_N@std@@@std@@QBE_NABV01@@Z ; std::_Vb_const_iterator<std::allocator<bool> >::operator!=
; Function compile flags: /Ogsp
;	COMDAT ??9?$_Vb_const_iterator@V?$allocator@_N@std@@@std@@QBE_NABV01@@Z
_TEXT	SEGMENT
__Right$ = 8						; size = 4
??9?$_Vb_const_iterator@V?$allocator@_N@std@@@std@@QBE_NABV01@@Z PROC ; std::_Vb_const_iterator<std::allocator<bool> >::operator!=, COMDAT
; _this$ = ecx

; 1782 : 		{	// test for iterator inequality

  00000	55		 push	 ebp
  00001	8b ec		 mov	 ebp, esp

; 1783 : 		return (!(*this == _Right));

  00003	ff 75 08	 push	 DWORD PTR __Right$[ebp]
  00006	e8 00 00 00 00	 call	 ??8?$_Vb_const_iterator@V?$allocator@_N@std@@@std@@QBE_NABV01@@Z ; std::_Vb_const_iterator<std::allocator<bool> >::operator==
  0000b	33 c9		 xor	 ecx, ecx
  0000d	84 c0		 test	 al, al
  0000f	0f 94 c0	 sete	 al

; 1784 : 		}

  00012	5d		 pop	 ebp
  00013	c2 04 00	 ret	 4
??9?$_Vb_const_iterator@V?$allocator@_N@std@@@std@@QBE_NABV01@@Z ENDP ; std::_Vb_const_iterator<std::allocator<bool> >::operator!=
_TEXT	ENDS
PUBLIC	?max_size@?$vector@_NV?$allocator@_N@std@@@std@@QBEIXZ ; std::vector<bool,std::allocator<bool> >::max_size
; Function compile flags: /Ogsp
;	COMDAT ?max_size@?$vector@_NV?$allocator@_N@std@@@std@@QBEIXZ
_TEXT	SEGMENT
?max_size@?$vector@_NV?$allocator@_N@std@@@std@@QBEIXZ PROC ; std::vector<bool,std::allocator<bool> >::max_size, COMDAT
; _this$ = ecx

; 2302 : 		const size_type _Maxsize = this->_Myvec.max_size();
; 2303 : 		return (_Maxsize < (size_type)(-1) / _VBITS
; 2304 : 			? _Maxsize * _VBITS : (size_type)(-1));

  00000	83 c8 ff	 or	 eax, -1

; 2305 : 		}

  00003	c3		 ret	 0
?max_size@?$vector@_NV?$allocator@_N@std@@@std@@QBEIXZ ENDP ; std::vector<bool,std::allocator<bool> >::max_size
_TEXT	ENDS
PUBLIC	?begin@?$vector@IV?$allocator@I@std@@@std@@QAE?AV?$_Vector_iterator@V?$_Vector_val@IV?$allocator@I@std@@@std@@@2@XZ ; std::vector<unsigned int,std::allocator<unsigned int> >::begin
; Function compile flags: /Ogsp
;	COMDAT ?begin@?$vector@IV?$allocator@I@std@@@std@@QAE?AV?$_Vector_iterator@V?$_Vector_val@IV?$allocator@I@std@@@std@@@2@XZ
_TEXT	SEGMENT
___$ReturnUdt$ = 8					; size = 4
?begin@?$vector@IV?$allocator@I@std@@@std@@QAE?AV?$_Vector_iterator@V?$_Vector_val@IV?$allocator@I@std@@@std@@@2@XZ PROC ; std::vector<unsigned int,std::allocator<unsigned int> >::begin, COMDAT
; _this$ = ecx

; 781  : 		{	// return iterator for beginning of mutable sequence

  00000	55		 push	 ebp
  00001	8b ec		 mov	 ebp, esp

; 782  : 		return (iterator(this->_Myfirst, this));

  00003	8b 09		 mov	 ecx, DWORD PTR [ecx]
  00005	8b 45 08	 mov	 eax, DWORD PTR ___$ReturnUdt$[ebp]
  00008	89 08		 mov	 DWORD PTR [eax], ecx

; 783  : 		}

  0000a	5d		 pop	 ebp
  0000b	c2 04 00	 ret	 4
?begin@?$vector@IV?$allocator@I@std@@@std@@QAE?AV?$_Vector_iterator@V?$_Vector_val@IV?$allocator@I@std@@@std@@@2@XZ ENDP ; std::vector<unsigned int,std::allocator<unsigned int> >::begin
_TEXT	ENDS
PUBLIC	?end@?$vector@IV?$allocator@I@std@@@std@@QAE?AV?$_Vector_iterator@V?$_Vector_val@IV?$allocator@I@std@@@std@@@2@XZ ; std::vector<unsigned int,std::allocator<unsigned int> >::end
; Function compile flags: /Ogsp
;	COMDAT ?end@?$vector@IV?$allocator@I@std@@@std@@QAE?AV?$_Vector_iterator@V?$_Vector_val@IV?$allocator@I@std@@@std@@@2@XZ
_TEXT	SEGMENT
___$ReturnUdt$ = 8					; size = 4
?end@?$vector@IV?$allocator@I@std@@@std@@QAE?AV?$_Vector_iterator@V?$_Vector_val@IV?$allocator@I@std@@@std@@@2@XZ PROC ; std::vector<unsigned int,std::allocator<unsigned int> >::end, COMDAT
; _this$ = ecx

; 791  : 		{	// return iterator for end of mutable sequence

  00000	55		 push	 ebp
  00001	8b ec		 mov	 ebp, esp

; 792  : 		return (iterator(this->_Mylast, this));

  00003	8b 49 04	 mov	 ecx, DWORD PTR [ecx+4]
  00006	8b 45 08	 mov	 eax, DWORD PTR ___$ReturnUdt$[ebp]
  00009	89 08		 mov	 DWORD PTR [eax], ecx

; 793  : 		}

  0000b	5d		 pop	 ebp
  0000c	c2 04 00	 ret	 4
?end@?$vector@IV?$allocator@I@std@@@std@@QAE?AV?$_Vector_iterator@V?$_Vector_val@IV?$allocator@I@std@@@std@@@2@XZ ENDP ; std::vector<unsigned int,std::allocator<unsigned int> >::end
_TEXT	ENDS
PUBLIC	??H?$_Vector_iterator@V?$_Vector_val@IV?$allocator@I@std@@@std@@@std@@QBE?AV01@H@Z ; std::_Vector_iterator<std::_Vector_val<unsigned int,std::allocator<unsigned int> > >::operator+
; Function compile flags: /Ogsp
;	COMDAT ??H?$_Vector_iterator@V?$_Vector_val@IV?$allocator@I@std@@@std@@@std@@QBE?AV01@H@Z
_TEXT	SEGMENT
___$ReturnUdt$ = 8					; size = 4
__Off$ = 12						; size = 4
??H?$_Vector_iterator@V?$_Vector_val@IV?$allocator@I@std@@@std@@@std@@QBE?AV01@H@Z PROC ; std::_Vector_iterator<std::_Vector_val<unsigned int,std::allocator<unsigned int> > >::operator+, COMDAT
; _this$ = ecx

; 363  : 		{	// return this + integer

  00000	55		 push	 ebp
  00001	8b ec		 mov	 ebp, esp

; 364  : 		_Myiter _Tmp = *this;
; 365  : 		return (_Tmp += _Off);

  00003	8b 01		 mov	 eax, DWORD PTR [ecx]
  00005	8b 4d 0c	 mov	 ecx, DWORD PTR __Off$[ebp]
  00008	8d 0c 88	 lea	 ecx, DWORD PTR [eax+ecx*4]
  0000b	8b 45 08	 mov	 eax, DWORD PTR ___$ReturnUdt$[ebp]
  0000e	89 08		 mov	 DWORD PTR [eax], ecx

; 366  : 		}

  00010	5d		 pop	 ebp
  00011	c2 08 00	 ret	 8
??H?$_Vector_iterator@V?$_Vector_val@IV?$allocator@I@std@@@std@@@std@@QBE?AV01@H@Z ENDP ; std::_Vector_iterator<std::_Vector_val<unsigned int,std::allocator<unsigned int> > >::operator+
_TEXT	ENDS
PUBLIC	?_Make_iter@?$vector@IV?$allocator@I@std@@@std@@QBE?AV?$_Vector_iterator@V?$_Vector_val@IV?$allocator@I@std@@@std@@@2@V?$_Vector_const_iterator@V?$_Vector_val@IV?$allocator@I@std@@@std@@@2@@Z ; std::vector<unsigned int,std::allocator<unsigned int> >::_Make_iter
; Function compile flags: /Ogsp
;	COMDAT ?_Make_iter@?$vector@IV?$allocator@I@std@@@std@@QBE?AV?$_Vector_iterator@V?$_Vector_val@IV?$allocator@I@std@@@std@@@2@V?$_Vector_const_iterator@V?$_Vector_val@IV?$allocator@I@std@@@std@@@2@@Z
_TEXT	SEGMENT
___$ReturnUdt$ = 8					; size = 4
__Where$ = 12						; size = 4
?_Make_iter@?$vector@IV?$allocator@I@std@@@std@@QBE?AV?$_Vector_iterator@V?$_Vector_val@IV?$allocator@I@std@@@std@@@2@V?$_Vector_const_iterator@V?$_Vector_val@IV?$allocator@I@std@@@std@@@2@@Z PROC ; std::vector<unsigned int,std::allocator<unsigned int> >::_Make_iter, COMDAT
; _this$ = ecx

; 801  : 		{	// make iterator from const_iterator

  00000	55		 push	 ebp
  00001	8b ec		 mov	 ebp, esp

; 802  : 		return (iterator(_Where._Ptr, this));

  00003	8b 45 08	 mov	 eax, DWORD PTR ___$ReturnUdt$[ebp]
  00006	8b 4d 0c	 mov	 ecx, DWORD PTR __Where$[ebp]
  00009	89 08		 mov	 DWORD PTR [eax], ecx

; 803  : 		}

  0000b	5d		 pop	 ebp
  0000c	c2 08 00	 ret	 8
?_Make_iter@?$vector@IV?$allocator@I@std@@@std@@QBE?AV?$_Vector_iterator@V?$_Vector_val@IV?$allocator@I@std@@@std@@@2@V?$_Vector_const_iterator@V?$_Vector_val@IV?$allocator@I@std@@@std@@@2@@Z ENDP ; std::vector<unsigned int,std::allocator<unsigned int> >::_Make_iter
_TEXT	ENDS
PUBLIC	?_Buy@?$vector@IV?$allocator@I@std@@@std@@IAE_NI@Z ; std::vector<unsigned int,std::allocator<unsigned int> >::_Buy
; Function compile flags: /Ogsp
;	COMDAT ?_Buy@?$vector@IV?$allocator@I@std@@@std@@IAE_NI@Z
_TEXT	SEGMENT
__Capacity$ = 8						; size = 4
?_Buy@?$vector@IV?$allocator@I@std@@@std@@IAE_NI@Z PROC	; std::vector<unsigned int,std::allocator<unsigned int> >::_Buy, COMDAT
; _this$ = ecx

; 1250 : 		{	// allocate array with _Capacity elements

  00000	55		 push	 ebp
  00001	8b ec		 mov	 ebp, esp
  00003	56		 push	 esi

; 1251 : 		this->_Myfirst = 0;

  00004	33 c0		 xor	 eax, eax
  00006	57		 push	 edi

; 1252 : 		this->_Mylast = 0;
; 1253 : 		this->_Myend = 0;
; 1254 : 
; 1255 : 		if (_Capacity == 0)

  00007	8b 7d 08	 mov	 edi, DWORD PTR __Capacity$[ebp]
  0000a	8b f1		 mov	 esi, ecx
  0000c	89 06		 mov	 DWORD PTR [esi], eax
  0000e	89 46 04	 mov	 DWORD PTR [esi+4], eax
  00011	89 46 08	 mov	 DWORD PTR [esi+8], eax
  00014	3b f8		 cmp	 edi, eax
  00016	75 04		 jne	 SHORT $LN4@Buy

; 1256 : 			return (false);

  00018	32 c0		 xor	 al, al
  0001a	eb 29		 jmp	 SHORT $LN5@Buy
$LN4@Buy:

; 1257 : 		else if (max_size() < _Capacity)

  0001c	81 ff ff ff ff
	3f		 cmp	 edi, 1073741823		; 3fffffffH
  00022	76 0b		 jbe	 SHORT $LN2@Buy

; 1258 : 			_Xlen();	// result too long

  00024	68 00 00 00 00	 push	 OFFSET ??_C@_0BD@OLBABOEK@vector?$DMT?$DO?5too?5long?$AA@
  00029	ff 15 00 00 00
	00		 call	 DWORD PTR __imp_?_Xlength_error@std@@YAXPBD@Z
$LN19@Buy:
$LN2@Buy:

; 1259 : 		else
; 1260 : 			{	// nonempty array, allocate storage
; 1261 : 			this->_Myfirst = this->_Alval.allocate(_Capacity);

  0002f	50		 push	 eax
  00030	57		 push	 edi
  00031	e8 00 00 00 00	 call	 ??$_Allocate@I@std@@YAPAIIPAI@Z ; std::_Allocate<unsigned int>
  00036	89 06		 mov	 DWORD PTR [esi], eax

; 1262 : 			this->_Mylast = this->_Myfirst;

  00038	89 46 04	 mov	 DWORD PTR [esi+4], eax

; 1263 : 			this->_Myend = this->_Myfirst + _Capacity;

  0003b	8d 04 b8	 lea	 eax, DWORD PTR [eax+edi*4]
  0003e	59		 pop	 ecx
  0003f	89 46 08	 mov	 DWORD PTR [esi+8], eax
  00042	59		 pop	 ecx

; 1264 : 			}
; 1265 : 		return (true);

  00043	b0 01		 mov	 al, 1
$LN5@Buy:
  00045	5f		 pop	 edi
  00046	5e		 pop	 esi

; 1266 : 		}

  00047	5d		 pop	 ebp
  00048	c2 04 00	 ret	 4
$LN18@Buy:
?_Buy@?$vector@IV?$allocator@I@std@@@std@@IAE_NI@Z ENDP	; std::vector<unsigned int,std::allocator<unsigned int> >::_Buy
_TEXT	ENDS
PUBLIC	?_Destroy@?$vector@IV?$allocator@I@std@@@std@@IAEXPAI0@Z ; std::vector<unsigned int,std::allocator<unsigned int> >::_Destroy
; Function compile flags: /Ogsp
;	COMDAT ?_Destroy@?$vector@IV?$allocator@I@std@@@std@@IAEXPAI0@Z
_TEXT	SEGMENT
__First$ = 8						; size = 4
__Last$ = 12						; size = 4
?_Destroy@?$vector@IV?$allocator@I@std@@@std@@IAEXPAI0@Z PROC ; std::vector<unsigned int,std::allocator<unsigned int> >::_Destroy, COMDAT
; _this$ = ecx

; 1270 : 		_Destroy_range(_First, _Last, this->_Alval);
; 1271 : 		}

  00000	c2 08 00	 ret	 8
?_Destroy@?$vector@IV?$allocator@I@std@@@std@@IAEXPAI0@Z ENDP ; std::vector<unsigned int,std::allocator<unsigned int> >::_Destroy
_TEXT	ENDS
PUBLIC	??9?$_Vector_const_iterator@V?$_Vector_val@IV?$allocator@I@std@@@std@@@std@@QBE_NABV01@@Z ; std::_Vector_const_iterator<std::_Vector_val<unsigned int,std::allocator<unsigned int> > >::operator!=
; Function compile flags: /Ogsp
;	COMDAT ??9?$_Vector_const_iterator@V?$_Vector_val@IV?$allocator@I@std@@@std@@@std@@QBE_NABV01@@Z
_TEXT	SEGMENT
__Right$ = 8						; size = 4
??9?$_Vector_const_iterator@V?$_Vector_val@IV?$allocator@I@std@@@std@@@std@@QBE_NABV01@@Z PROC ; std::_Vector_const_iterator<std::_Vector_val<unsigned int,std::allocator<unsigned int> > >::operator!=, COMDAT
; _this$ = ecx

; 207  : 		{	// test for iterator inequality

  00000	55		 push	 ebp
  00001	8b ec		 mov	 ebp, esp

; 208  : 		return (!(*this == _Right));

  00003	8b 01		 mov	 eax, DWORD PTR [ecx]
  00005	8b 55 08	 mov	 edx, DWORD PTR __Right$[ebp]
  00008	33 c9		 xor	 ecx, ecx
  0000a	3b 02		 cmp	 eax, DWORD PTR [edx]
  0000c	0f 95 c0	 setne	 al

; 209  : 		}

  0000f	5d		 pop	 ebp
  00010	c2 04 00	 ret	 4
??9?$_Vector_const_iterator@V?$_Vector_val@IV?$allocator@I@std@@@std@@@std@@QBE_NABV01@@Z ENDP ; std::_Vector_const_iterator<std::_Vector_val<unsigned int,std::allocator<unsigned int> > >::operator!=
_TEXT	ENDS
PUBLIC	??$_Cons_val@V?$allocator@VioHashString@@@std@@VioHashString@@AAV3@@std@@YAXAAV?$allocator@VioHashString@@@0@PAVioHashString@@AAV2@@Z ; std::_Cons_val<std::allocator<ioHashString>,ioHashString,ioHashString &>
; Function compile flags: /Ogsp
; File c:\program files (x86)\microsoft visual studio 10.0\vc\include\xmemory
;	COMDAT ??$_Cons_val@V?$allocator@VioHashString@@@std@@VioHashString@@AAV3@@std@@YAXAAV?$allocator@VioHashString@@@0@PAVioHashString@@AAV2@@Z
_TEXT	SEGMENT
__Alval$ = 8						; size = 4
__Pdest$ = 12						; size = 4
__Src$ = 16						; size = 4
??$_Cons_val@V?$allocator@VioHashString@@@std@@VioHashString@@AAV3@@std@@YAXAAV?$allocator@VioHashString@@@0@PAVioHashString@@AAV2@@Z PROC ; std::_Cons_val<std::allocator<ioHashString>,ioHashString,ioHashString &>, COMDAT

; 279  : 	{	// construct using allocator

  00000	55		 push	 ebp
  00001	8b ec		 mov	 ebp, esp

; 280  : 	_Alval.construct(_Pdest, _STD forward<_Ty2>(_Src));

  00003	ff 75 10	 push	 DWORD PTR __Src$[ebp]
  00006	8b 4d 08	 mov	 ecx, DWORD PTR __Alval$[ebp]
  00009	ff 75 0c	 push	 DWORD PTR __Pdest$[ebp]
  0000c	e8 00 00 00 00	 call	 ??$construct@AAVioHashString@@@?$allocator@VioHashString@@@std@@QAEXPAVioHashString@@AAV2@@Z ; std::allocator<ioHashString>::construct<ioHashString &>

; 281  : 	}

  00011	5d		 pop	 ebp
  00012	c3		 ret	 0
??$_Cons_val@V?$allocator@VioHashString@@@std@@VioHashString@@AAV3@@std@@YAXAAV?$allocator@VioHashString@@@0@PAVioHashString@@AAV2@@Z ENDP ; std::_Cons_val<std::allocator<ioHashString>,ioHashString,ioHashString &>
_TEXT	ENDS
PUBLIC	??$_Cons_val@V?$allocator@H@std@@HH@std@@YAXAAV?$allocator@H@0@PAH$$QAH@Z ; std::_Cons_val<std::allocator<int>,int,int>
; Function compile flags: /Ogsp
;	COMDAT ??$_Cons_val@V?$allocator@H@std@@HH@std@@YAXAAV?$allocator@H@0@PAH$$QAH@Z
_TEXT	SEGMENT
__Alval$ = 8						; size = 4
__Pdest$ = 12						; size = 4
__Src$ = 16						; size = 4
??$_Cons_val@V?$allocator@H@std@@HH@std@@YAXAAV?$allocator@H@0@PAH$$QAH@Z PROC ; std::_Cons_val<std::allocator<int>,int,int>, COMDAT

; 279  : 	{	// construct using allocator

  00000	55		 push	 ebp
  00001	8b ec		 mov	 ebp, esp

; 280  : 	_Alval.construct(_Pdest, _STD forward<_Ty2>(_Src));

  00003	8b 45 0c	 mov	 eax, DWORD PTR __Pdest$[ebp]
  00006	85 c0		 test	 eax, eax
  00008	74 07		 je	 SHORT $LN7@Cons_val
  0000a	8b 4d 10	 mov	 ecx, DWORD PTR __Src$[ebp]
  0000d	8b 09		 mov	 ecx, DWORD PTR [ecx]
  0000f	89 08		 mov	 DWORD PTR [eax], ecx
$LN7@Cons_val:

; 281  : 	}

  00011	5d		 pop	 ebp
  00012	c3		 ret	 0
??$_Cons_val@V?$allocator@H@std@@HH@std@@YAXAAV?$allocator@H@0@PAH$$QAH@Z ENDP ; std::_Cons_val<std::allocator<int>,int,int>
_TEXT	ENDS
PUBLIC	??$_Cons_val@V?$allocator@H@std@@HAAH@std@@YAXAAV?$allocator@H@0@PAHAAH@Z ; std::_Cons_val<std::allocator<int>,int,int &>
; Function compile flags: /Ogsp
;	COMDAT ??$_Cons_val@V?$allocator@H@std@@HAAH@std@@YAXAAV?$allocator@H@0@PAHAAH@Z
_TEXT	SEGMENT
__Alval$ = 8						; size = 4
__Pdest$ = 12						; size = 4
__Src$ = 16						; size = 4
??$_Cons_val@V?$allocator@H@std@@HAAH@std@@YAXAAV?$allocator@H@0@PAHAAH@Z PROC ; std::_Cons_val<std::allocator<int>,int,int &>, COMDAT

; 279  : 	{	// construct using allocator

  00000	55		 push	 ebp
  00001	8b ec		 mov	 ebp, esp

; 280  : 	_Alval.construct(_Pdest, _STD forward<_Ty2>(_Src));

  00003	8b 45 0c	 mov	 eax, DWORD PTR __Pdest$[ebp]
  00006	85 c0		 test	 eax, eax
  00008	74 07		 je	 SHORT $LN7@Cons_val@2
  0000a	8b 4d 10	 mov	 ecx, DWORD PTR __Src$[ebp]
  0000d	8b 09		 mov	 ecx, DWORD PTR [ecx]
  0000f	89 08		 mov	 DWORD PTR [eax], ecx
$LN7@Cons_val@2:

; 281  : 	}

  00011	5d		 pop	 ebp
  00012	c3		 ret	 0
??$_Cons_val@V?$allocator@H@std@@HAAH@std@@YAXAAV?$allocator@H@0@PAHAAH@Z ENDP ; std::_Cons_val<std::allocator<int>,int,int &>
_TEXT	ENDS
PUBLIC	??$_Cons_val@V?$allocator@H@std@@HABH@std@@YAXAAV?$allocator@H@0@PAHABH@Z ; std::_Cons_val<std::allocator<int>,int,int const &>
; Function compile flags: /Ogsp
;	COMDAT ??$_Cons_val@V?$allocator@H@std@@HABH@std@@YAXAAV?$allocator@H@0@PAHABH@Z
_TEXT	SEGMENT
__Alval$ = 8						; size = 4
__Pdest$ = 12						; size = 4
__Src$ = 16						; size = 4
??$_Cons_val@V?$allocator@H@std@@HABH@std@@YAXAAV?$allocator@H@0@PAHABH@Z PROC ; std::_Cons_val<std::allocator<int>,int,int const &>, COMDAT

; 279  : 	{	// construct using allocator

  00000	55		 push	 ebp
  00001	8b ec		 mov	 ebp, esp

; 280  : 	_Alval.construct(_Pdest, _STD forward<_Ty2>(_Src));

  00003	8b 45 0c	 mov	 eax, DWORD PTR __Pdest$[ebp]
  00006	85 c0		 test	 eax, eax
  00008	74 07		 je	 SHORT $LN9@Cons_val@3
  0000a	8b 4d 10	 mov	 ecx, DWORD PTR __Src$[ebp]
  0000d	8b 09		 mov	 ecx, DWORD PTR [ecx]
  0000f	89 08		 mov	 DWORD PTR [eax], ecx
$LN9@Cons_val@3:

; 281  : 	}

  00011	5d		 pop	 ebp
  00012	c3		 ret	 0
??$_Cons_val@V?$allocator@H@std@@HABH@std@@YAXAAV?$allocator@H@0@PAHABH@Z ENDP ; std::_Cons_val<std::allocator<int>,int,int const &>
_TEXT	ENDS
PUBLIC	??$_Uninitialized_fill_n@PAIIIV?$allocator@I@std@@@std@@YAXPAIIPBIAAV?$allocator@I@0@@Z ; std::_Uninitialized_fill_n<unsigned int *,unsigned int,unsigned int,std::allocator<unsigned int> >
; Function compile flags: /Ogsp
; File c:\program files (x86)\microsoft visual studio 10.0\vc\include\memory
;	COMDAT ??$_Uninitialized_fill_n@PAIIIV?$allocator@I@std@@@std@@YAXPAIIPBIAAV?$allocator@I@0@@Z
_TEXT	SEGMENT
__First$ = 8						; size = 4
__Count$ = 12						; size = 4
__Pval$ = 16						; size = 4
__Al$ = 20						; size = 4
??$_Uninitialized_fill_n@PAIIIV?$allocator@I@std@@@std@@YAXPAIIPBIAAV?$allocator@I@0@@Z PROC ; std::_Uninitialized_fill_n<unsigned int *,unsigned int,unsigned int,std::allocator<unsigned int> >, COMDAT

; 606  : 	{	// copy _Count * *_Pval to raw _First, using _Al

  00000	55		 push	 ebp
  00001	8b ec		 mov	 ebp, esp

; 607  : 	_Uninit_fill_n(_First, _Count, _Pval, _Al,
; 608  : 		_Val_type(_First), _Ptr_cat(_First, _First));

  00003	ff 75 10	 push	 DWORD PTR __Pval$[ebp]
  00006	ff 75 0c	 push	 DWORD PTR __Count$[ebp]
  00009	ff 75 08	 push	 DWORD PTR __First$[ebp]
  0000c	e8 00 00 00 00	 call	 ??$_Fill_n@PAIII@std@@YAXPAIIABI@Z ; std::_Fill_n<unsigned int *,unsigned int,unsigned int>
  00011	83 c4 0c	 add	 esp, 12			; 0000000cH

; 609  : 	}

  00014	5d		 pop	 ebp
  00015	c3		 ret	 0
??$_Uninitialized_fill_n@PAIIIV?$allocator@I@std@@@std@@YAXPAIIPBIAAV?$allocator@I@0@@Z ENDP ; std::_Uninitialized_fill_n<unsigned int *,unsigned int,unsigned int,std::allocator<unsigned int> >
_TEXT	ENDS
PUBLIC	??$_Umove@PAI@?$vector@IV?$allocator@I@std@@@std@@IAEPAIPAI00@Z ; std::vector<unsigned int,std::allocator<unsigned int> >::_Umove<unsigned int *>
; Function compile flags: /Ogsp
; File c:\program files (x86)\microsoft visual studio 10.0\vc\include\vector
;	COMDAT ??$_Umove@PAI@?$vector@IV?$allocator@I@std@@@std@@IAEPAIPAI00@Z
_TEXT	SEGMENT
__First$ = 8						; size = 4
__Last$ = 12						; size = 4
__Ptr$ = 16						; size = 4
??$_Umove@PAI@?$vector@IV?$allocator@I@std@@@std@@IAEPAIPAI00@Z PROC ; std::vector<unsigned int,std::allocator<unsigned int> >::_Umove<unsigned int *>, COMDAT
; _this$ = ecx

; 1322 : 		pointer _Umove(_Iter _First, _Iter _Last, pointer _Ptr)

  00000	55		 push	 ebp
  00001	8b ec		 mov	 ebp, esp

; 1323 : 		{	// move initializing [_First, _Last), using allocator
; 1324 : 		return (_Uninitialized_move(_First, _Last,
; 1325 : 			_Ptr, this->_Alval));

  00003	83 c1 0c	 add	 ecx, 12			; 0000000cH
  00006	51		 push	 ecx
  00007	ff 75 10	 push	 DWORD PTR __Ptr$[ebp]
  0000a	ff 75 0c	 push	 DWORD PTR __Last$[ebp]
  0000d	ff 75 08	 push	 DWORD PTR __First$[ebp]
  00010	e8 00 00 00 00	 call	 ??$_Uninitialized_move@PAIPAIV?$allocator@I@std@@@std@@YAPAIPAI00AAV?$allocator@I@0@@Z ; std::_Uninitialized_move<unsigned int *,unsigned int *,std::allocator<unsigned int> >
  00015	83 c4 10	 add	 esp, 16			; 00000010H

; 1326 : 		}

  00018	5d		 pop	 ebp
  00019	c2 0c 00	 ret	 12			; 0000000cH
??$_Umove@PAI@?$vector@IV?$allocator@I@std@@@std@@IAEPAIPAI00@Z ENDP ; std::vector<unsigned int,std::allocator<unsigned int> >::_Umove<unsigned int *>
_TEXT	ENDS
PUBLIC	??E?$_Vb_iterator@V?$allocator@_N@std@@@std@@QAEAAV01@XZ ; std::_Vb_iterator<std::allocator<bool> >::operator++
; Function compile flags: /Ogsp
;	COMDAT ??E?$_Vb_iterator@V?$allocator@_N@std@@@std@@QAEAAV01@XZ
_TEXT	SEGMENT
??E?$_Vb_iterator@V?$allocator@_N@std@@@std@@QAEAAV01@XZ PROC ; std::_Vb_iterator<std::allocator<bool> >::operator++, COMDAT
; _this$ = ecx

; 1925 : 		{	// preincrement

  00000	56		 push	 esi
  00001	8b f1		 mov	 esi, ecx

; 1926 : 		++*(_Mybase *)this;

  00003	e8 00 00 00 00	 call	 ?_Inc@?$_Vb_const_iterator@V?$allocator@_N@std@@@std@@QAEXXZ ; std::_Vb_const_iterator<std::allocator<bool> >::_Inc

; 1927 : 		return (*this);

  00008	8b c6		 mov	 eax, esi
  0000a	5e		 pop	 esi

; 1928 : 		}

  0000b	c3		 ret	 0
??E?$_Vb_iterator@V?$allocator@_N@std@@@std@@QAEAAV01@XZ ENDP ; std::_Vb_iterator<std::allocator<bool> >::operator++
_TEXT	ENDS
PUBLIC	??$_Copy_impl@V?$_Vb_iterator@V?$allocator@_N@std@@@std@@V12@@std@@YA?AV?$_Vb_iterator@V?$allocator@_N@std@@@0@V10@00U_Nonscalar_ptr_iterator_tag@0@@Z ; std::_Copy_impl<std::_Vb_iterator<std::allocator<bool> >,std::_Vb_iterator<std::allocator<bool> > >
; Function compile flags: /Ogsp
; File c:\program files (x86)\microsoft visual studio 10.0\vc\include\xutility
;	COMDAT ??$_Copy_impl@V?$_Vb_iterator@V?$allocator@_N@std@@@std@@V12@@std@@YA?AV?$_Vb_iterator@V?$allocator@_N@std@@@0@V10@00U_Nonscalar_ptr_iterator_tag@0@@Z
_TEXT	SEGMENT
$T522197 = -16						; size = 8
$T522198 = -8						; size = 8
___$ReturnUdt$ = 8					; size = 4
__First$ = 12						; size = 8
__Last$ = 20						; size = 8
__Dest$ = 28						; size = 8
___formal$ = 36						; size = 1
??$_Copy_impl@V?$_Vb_iterator@V?$allocator@_N@std@@@std@@V12@@std@@YA?AV?$_Vb_iterator@V?$allocator@_N@std@@@0@V10@00U_Nonscalar_ptr_iterator_tag@0@@Z PROC ; std::_Copy_impl<std::_Vb_iterator<std::allocator<bool> >,std::_Vb_iterator<std::allocator<bool> > >, COMDAT

; 2142 : 	{	// copy [_First, _Last) to [_Dest, ...), arbitrary iterators

  00000	55		 push	 ebp
  00001	8b ec		 mov	 ebp, esp
  00003	83 ec 10	 sub	 esp, 16			; 00000010H

; 2143 : 	for (; _First != _Last; ++_Dest, ++_First)

$LL18@Copy_impl:
  00006	8b 45 0c	 mov	 eax, DWORD PTR __First$[ebp]
  00009	3b 45 14	 cmp	 eax, DWORD PTR __Last$[ebp]
  0000c	75 08		 jne	 SHORT $LN26@Copy_impl
  0000e	8b 4d 10	 mov	 ecx, DWORD PTR __First$[ebp+4]
  00011	3b 4d 18	 cmp	 ecx, DWORD PTR __Last$[ebp+4]
  00014	74 49		 je	 SHORT $LN51@Copy_impl
$LN26@Copy_impl:

; 2144 : 		*_Dest = *_First;

  00016	89 45 f8	 mov	 DWORD PTR $T522198[ebp], eax
  00019	8b 45 10	 mov	 eax, DWORD PTR __First$[ebp+4]
  0001c	89 45 fc	 mov	 DWORD PTR $T522198[ebp+4], eax
  0001f	8b 45 1c	 mov	 eax, DWORD PTR __Dest$[ebp]
  00022	89 45 f0	 mov	 DWORD PTR $T522197[ebp], eax
  00025	8b 45 20	 mov	 eax, DWORD PTR __Dest$[ebp+4]
  00028	89 45 f4	 mov	 DWORD PTR $T522197[ebp+4], eax
  0002b	8d 45 f8	 lea	 eax, DWORD PTR $T522198[ebp]
  0002e	50		 push	 eax
  0002f	8d 4d f0	 lea	 ecx, DWORD PTR $T522197[ebp]
  00032	e8 00 00 00 00	 call	 ??4?$_Vb_reference@V?$allocator@_N@std@@@std@@QAEAAV01@ABV01@@Z ; std::_Vb_reference<std::allocator<bool> >::operator=
  00037	83 7d 20 1f	 cmp	 DWORD PTR __Dest$[ebp+4], 31 ; 0000001fH
  0003b	73 05		 jae	 SHORT $LN11@Copy_impl

; 2143 : 	for (; _First != _Last; ++_Dest, ++_First)

  0003d	ff 45 20	 inc	 DWORD PTR __Dest$[ebp+4]
  00040	eb 08		 jmp	 SHORT $LN10@Copy_impl
$LN11@Copy_impl:
  00042	83 65 20 00	 and	 DWORD PTR __Dest$[ebp+4], 0
  00046	83 45 1c 04	 add	 DWORD PTR __Dest$[ebp], 4
$LN10@Copy_impl:
  0004a	83 7d 10 1f	 cmp	 DWORD PTR __First$[ebp+4], 31 ; 0000001fH
  0004e	73 05		 jae	 SHORT $LN19@Copy_impl
  00050	ff 45 10	 inc	 DWORD PTR __First$[ebp+4]
  00053	eb b1		 jmp	 SHORT $LL18@Copy_impl
$LN19@Copy_impl:
  00055	83 65 10 00	 and	 DWORD PTR __First$[ebp+4], 0
  00059	83 45 0c 04	 add	 DWORD PTR __First$[ebp], 4
  0005d	eb a7		 jmp	 SHORT $LL18@Copy_impl
$LN51@Copy_impl:

; 2145 : 	return (_Dest);

  0005f	8b 45 08	 mov	 eax, DWORD PTR ___$ReturnUdt$[ebp]
  00062	8b 4d 1c	 mov	 ecx, DWORD PTR __Dest$[ebp]
  00065	89 08		 mov	 DWORD PTR [eax], ecx
  00067	8b 4d 20	 mov	 ecx, DWORD PTR __Dest$[ebp+4]
  0006a	89 48 04	 mov	 DWORD PTR [eax+4], ecx

; 2146 : 	}

  0006d	c9		 leave
  0006e	c3		 ret	 0
??$_Copy_impl@V?$_Vb_iterator@V?$allocator@_N@std@@@std@@V12@@std@@YA?AV?$_Vb_iterator@V?$allocator@_N@std@@@0@V10@00U_Nonscalar_ptr_iterator_tag@0@@Z ENDP ; std::_Copy_impl<std::_Vb_iterator<std::allocator<bool> >,std::_Vb_iterator<std::allocator<bool> > >
_TEXT	ENDS
PUBLIC	??F?$_Vb_iterator@V?$allocator@_N@std@@@std@@QAEAAV01@XZ ; std::_Vb_iterator<std::allocator<bool> >::operator--
; Function compile flags: /Ogsp
; File c:\program files (x86)\microsoft visual studio 10.0\vc\include\vector
;	COMDAT ??F?$_Vb_iterator@V?$allocator@_N@std@@@std@@QAEAAV01@XZ
_TEXT	SEGMENT
??F?$_Vb_iterator@V?$allocator@_N@std@@@std@@QAEAAV01@XZ PROC ; std::_Vb_iterator<std::allocator<bool> >::operator--, COMDAT
; _this$ = ecx

; 1938 : 		{	// predecrement

  00000	56		 push	 esi
  00001	8b f1		 mov	 esi, ecx

; 1939 : 		--*(_Mybase *)this;

  00003	e8 00 00 00 00	 call	 ?_Dec@?$_Vb_const_iterator@V?$allocator@_N@std@@@std@@QAEXXZ ; std::_Vb_const_iterator<std::allocator<bool> >::_Dec

; 1940 : 		return (*this);

  00008	8b c6		 mov	 eax, esi
  0000a	5e		 pop	 esi

; 1941 : 		}

  0000b	c3		 ret	 0
??F?$_Vb_iterator@V?$allocator@_N@std@@@std@@QAEAAV01@XZ ENDP ; std::_Vb_iterator<std::allocator<bool> >::operator--
_TEXT	ENDS
PUBLIC	??$_Cons_val@V?$allocator@VioHashString@@@std@@VioHashString@@V3@@std@@YAXAAV?$allocator@VioHashString@@@0@PAVioHashString@@$$QAV2@@Z ; std::_Cons_val<std::allocator<ioHashString>,ioHashString,ioHashString>
; Function compile flags: /Ogsp
; File c:\program files (x86)\microsoft visual studio 10.0\vc\include\xmemory
;	COMDAT ??$_Cons_val@V?$allocator@VioHashString@@@std@@VioHashString@@V3@@std@@YAXAAV?$allocator@VioHashString@@@0@PAVioHashString@@$$QAV2@@Z
_TEXT	SEGMENT
__Alval$ = 8						; size = 4
__Pdest$ = 12						; size = 4
__Src$ = 16						; size = 4
??$_Cons_val@V?$allocator@VioHashString@@@std@@VioHashString@@V3@@std@@YAXAAV?$allocator@VioHashString@@@0@PAVioHashString@@$$QAV2@@Z PROC ; std::_Cons_val<std::allocator<ioHashString>,ioHashString,ioHashString>, COMDAT

; 279  : 	{	// construct using allocator

  00000	55		 push	 ebp
  00001	8b ec		 mov	 ebp, esp

; 280  : 	_Alval.construct(_Pdest, _STD forward<_Ty2>(_Src));

  00003	ff 75 10	 push	 DWORD PTR __Src$[ebp]
  00006	8b 4d 08	 mov	 ecx, DWORD PTR __Alval$[ebp]
  00009	ff 75 0c	 push	 DWORD PTR __Pdest$[ebp]
  0000c	e8 00 00 00 00	 call	 ?construct@?$allocator@VioHashString@@@std@@QAEXPAVioHashString@@$$QAV3@@Z ; std::allocator<ioHashString>::construct

; 281  : 	}

  00011	5d		 pop	 ebp
  00012	c3		 ret	 0
??$_Cons_val@V?$allocator@VioHashString@@@std@@VioHashString@@V3@@std@@YAXAAV?$allocator@VioHashString@@@0@PAVioHashString@@$$QAV2@@Z ENDP ; std::_Cons_val<std::allocator<ioHashString>,ioHashString,ioHashString>
_TEXT	ENDS
PUBLIC	??0?$vector@VioHashString@@V?$allocator@VioHashString@@@std@@@std@@QAE@XZ ; std::vector<ioHashString,std::allocator<ioHashString> >::vector<ioHashString,std::allocator<ioHashString> >
; Function compile flags: /Ogsp
; File c:\program files (x86)\microsoft visual studio 10.0\vc\include\vector
;	COMDAT ??0?$vector@VioHashString@@V?$allocator@VioHashString@@@std@@@std@@QAE@XZ
_TEXT	SEGMENT
??0?$vector@VioHashString@@V?$allocator@VioHashString@@@std@@@std@@QAE@XZ PROC ; std::vector<ioHashString,std::allocator<ioHashString> >::vector<ioHashString,std::allocator<ioHashString> >, COMDAT
; _this$ = ecx

; 507  : 		{	// construct empty vector

  00000	8b c1		 mov	 eax, ecx
  00002	33 c9		 xor	 ecx, ecx
  00004	89 08		 mov	 DWORD PTR [eax], ecx
  00006	89 48 04	 mov	 DWORD PTR [eax+4], ecx
  00009	89 48 08	 mov	 DWORD PTR [eax+8], ecx

; 508  : 		}

  0000c	c3		 ret	 0
??0?$vector@VioHashString@@V?$allocator@VioHashString@@@std@@@std@@QAE@XZ ENDP ; std::vector<ioHashString,std::allocator<ioHashString> >::vector<ioHashString,std::allocator<ioHashString> >
_TEXT	ENDS
PUBLIC	??0?$vector@HV?$allocator@H@std@@@std@@QAE@XZ	; std::vector<int,std::allocator<int> >::vector<int,std::allocator<int> >
; Function compile flags: /Ogsp
;	COMDAT ??0?$vector@HV?$allocator@H@std@@@std@@QAE@XZ
_TEXT	SEGMENT
??0?$vector@HV?$allocator@H@std@@@std@@QAE@XZ PROC	; std::vector<int,std::allocator<int> >::vector<int,std::allocator<int> >, COMDAT
; _this$ = ecx

; 507  : 		{	// construct empty vector

  00000	8b c1		 mov	 eax, ecx
  00002	33 c9		 xor	 ecx, ecx
  00004	89 08		 mov	 DWORD PTR [eax], ecx
  00006	89 48 04	 mov	 DWORD PTR [eax+4], ecx
  00009	89 48 08	 mov	 DWORD PTR [eax+8], ecx

; 508  : 		}

  0000c	c3		 ret	 0
??0?$vector@HV?$allocator@H@std@@@std@@QAE@XZ ENDP	; std::vector<int,std::allocator<int> >::vector<int,std::allocator<int> >
_TEXT	ENDS
PUBLIC	?_Destroy@?$vector@HV?$allocator@H@std@@@std@@IAEXPAH0@Z ; std::vector<int,std::allocator<int> >::_Destroy
; Function compile flags: /Ogsp
;	COMDAT ?_Destroy@?$vector@HV?$allocator@H@std@@@std@@IAEXPAH0@Z
_TEXT	SEGMENT
__First$ = 8						; size = 4
__Last$ = 12						; size = 4
?_Destroy@?$vector@HV?$allocator@H@std@@@std@@IAEXPAH0@Z PROC ; std::vector<int,std::allocator<int> >::_Destroy, COMDAT
; _this$ = ecx

; 1270 : 		_Destroy_range(_First, _Last, this->_Alval);
; 1271 : 		}

  00000	c2 08 00	 ret	 8
?_Destroy@?$vector@HV?$allocator@H@std@@@std@@IAEXPAH0@Z ENDP ; std::vector<int,std::allocator<int> >::_Destroy
_TEXT	ENDS
PUBLIC	??9?$_Vector_const_iterator@V?$_Vector_val@HV?$allocator@H@std@@@std@@@std@@QBE_NABV01@@Z ; std::_Vector_const_iterator<std::_Vector_val<int,std::allocator<int> > >::operator!=
; Function compile flags: /Ogsp
;	COMDAT ??9?$_Vector_const_iterator@V?$_Vector_val@HV?$allocator@H@std@@@std@@@std@@QBE_NABV01@@Z
_TEXT	SEGMENT
__Right$ = 8						; size = 4
??9?$_Vector_const_iterator@V?$_Vector_val@HV?$allocator@H@std@@@std@@@std@@QBE_NABV01@@Z PROC ; std::_Vector_const_iterator<std::_Vector_val<int,std::allocator<int> > >::operator!=, COMDAT
; _this$ = ecx

; 207  : 		{	// test for iterator inequality

  00000	55		 push	 ebp
  00001	8b ec		 mov	 ebp, esp

; 208  : 		return (!(*this == _Right));

  00003	8b 01		 mov	 eax, DWORD PTR [ecx]
  00005	8b 55 08	 mov	 edx, DWORD PTR __Right$[ebp]
  00008	33 c9		 xor	 ecx, ecx
  0000a	3b 02		 cmp	 eax, DWORD PTR [edx]
  0000c	0f 95 c0	 setne	 al

; 209  : 		}

  0000f	5d		 pop	 ebp
  00010	c2 04 00	 ret	 4
??9?$_Vector_const_iterator@V?$_Vector_val@HV?$allocator@H@std@@@std@@@std@@QBE_NABV01@@Z ENDP ; std::_Vector_const_iterator<std::_Vector_val<int,std::allocator<int> > >::operator!=
_TEXT	ENDS
PUBLIC	??9?$_Vector_const_iterator@V?$_Vector_val@VioHashString@@V?$allocator@VioHashString@@@std@@@std@@@std@@QBE_NABV01@@Z ; std::_Vector_const_iterator<std::_Vector_val<ioHashString,std::allocator<ioHashString> > >::operator!=
; Function compile flags: /Ogsp
;	COMDAT ??9?$_Vector_const_iterator@V?$_Vector_val@VioHashString@@V?$allocator@VioHashString@@@std@@@std@@@std@@QBE_NABV01@@Z
_TEXT	SEGMENT
__Right$ = 8						; size = 4
??9?$_Vector_const_iterator@V?$_Vector_val@VioHashString@@V?$allocator@VioHashString@@@std@@@std@@@std@@QBE_NABV01@@Z PROC ; std::_Vector_const_iterator<std::_Vector_val<ioHashString,std::allocator<ioHashString> > >::operator!=, COMDAT
; _this$ = ecx

; 207  : 		{	// test for iterator inequality

  00000	55		 push	 ebp
  00001	8b ec		 mov	 ebp, esp

; 208  : 		return (!(*this == _Right));

  00003	8b 01		 mov	 eax, DWORD PTR [ecx]
  00005	8b 55 08	 mov	 edx, DWORD PTR __Right$[ebp]
  00008	33 c9		 xor	 ecx, ecx
  0000a	3b 02		 cmp	 eax, DWORD PTR [edx]
  0000c	0f 95 c0	 setne	 al

; 209  : 		}

  0000f	5d		 pop	 ebp
  00010	c2 04 00	 ret	 4
??9?$_Vector_const_iterator@V?$_Vector_val@VioHashString@@V?$allocator@VioHashString@@@std@@@std@@@std@@QBE_NABV01@@Z ENDP ; std::_Vector_const_iterator<std::_Vector_val<ioHashString,std::allocator<ioHashString> > >::operator!=
_TEXT	ENDS
PUBLIC	??$_Move@PAVioHashString@@PAV1@@std@@YAPAVioHashString@@PAV1@00@Z ; std::_Move<ioHashString *,ioHashString *>
; Function compile flags: /Ogsp
; File c:\program files (x86)\microsoft visual studio 10.0\vc\include\xutility
;	COMDAT ??$_Move@PAVioHashString@@PAV1@@std@@YAPAVioHashString@@PAV1@00@Z
_TEXT	SEGMENT
__Cat$522422 = -4					; size = 1
__First$ = 8						; size = 4
__Last$ = 12						; size = 4
__Dest$ = 16						; size = 4
??$_Move@PAVioHashString@@PAV1@@std@@YAPAVioHashString@@PAV1@00@Z PROC ; std::_Move<ioHashString *,ioHashString *>, COMDAT

; 2533 : 	{	// move [_First, _Last) to [_Dest, ...), unchecked

  00000	55		 push	 ebp
  00001	8b ec		 mov	 ebp, esp
  00003	51		 push	 ecx

; 2534 : 	return (_Move(_First, _Last,
; 2535 : 		_Dest, _Ptr_cat(_First, _Dest)));

  00004	ff 75 fc	 push	 DWORD PTR __Cat$522422[ebp]
  00007	ff 75 10	 push	 DWORD PTR __Dest$[ebp]
  0000a	ff 75 0c	 push	 DWORD PTR __Last$[ebp]
  0000d	ff 75 08	 push	 DWORD PTR __First$[ebp]
  00010	e8 00 00 00 00	 call	 ??$_Move@PAVioHashString@@PAV1@@std@@YAPAVioHashString@@PAV1@00U_Nonscalar_ptr_iterator_tag@0@@Z ; std::_Move<ioHashString *,ioHashString *>
  00015	83 c4 10	 add	 esp, 16			; 00000010H

; 2536 : 	}

  00018	c9		 leave
  00019	c3		 ret	 0
??$_Move@PAVioHashString@@PAV1@@std@@YAPAVioHashString@@PAV1@00@Z ENDP ; std::_Move<ioHashString *,ioHashString *>
_TEXT	ENDS
PUBLIC	??$_Umove@PAH@?$vector@HV?$allocator@H@std@@@std@@IAEPAHPAH00@Z ; std::vector<int,std::allocator<int> >::_Umove<int *>
; Function compile flags: /Ogsp
; File c:\program files (x86)\microsoft visual studio 10.0\vc\include\vector
;	COMDAT ??$_Umove@PAH@?$vector@HV?$allocator@H@std@@@std@@IAEPAHPAH00@Z
_TEXT	SEGMENT
__First$ = 8						; size = 4
__Last$ = 12						; size = 4
__Ptr$ = 16						; size = 4
??$_Umove@PAH@?$vector@HV?$allocator@H@std@@@std@@IAEPAHPAH00@Z PROC ; std::vector<int,std::allocator<int> >::_Umove<int *>, COMDAT
; _this$ = ecx

; 1322 : 		pointer _Umove(_Iter _First, _Iter _Last, pointer _Ptr)

  00000	55		 push	 ebp
  00001	8b ec		 mov	 ebp, esp

; 1323 : 		{	// move initializing [_First, _Last), using allocator
; 1324 : 		return (_Uninitialized_move(_First, _Last,
; 1325 : 			_Ptr, this->_Alval));

  00003	83 c1 0c	 add	 ecx, 12			; 0000000cH
  00006	51		 push	 ecx
  00007	ff 75 10	 push	 DWORD PTR __Ptr$[ebp]
  0000a	ff 75 0c	 push	 DWORD PTR __Last$[ebp]
  0000d	ff 75 08	 push	 DWORD PTR __First$[ebp]
  00010	e8 00 00 00 00	 call	 ??$_Uninitialized_move@PAHPAHV?$allocator@H@std@@@std@@YAPAHPAH00AAV?$allocator@H@0@@Z ; std::_Uninitialized_move<int *,int *,std::allocator<int> >
  00015	83 c4 10	 add	 esp, 16			; 00000010H

; 1326 : 		}

  00018	5d		 pop	 ebp
  00019	c2 0c 00	 ret	 12			; 0000000cH
??$_Umove@PAH@?$vector@HV?$allocator@H@std@@@std@@IAEPAHPAH00@Z ENDP ; std::vector<int,std::allocator<int> >::_Umove<int *>
_TEXT	ENDS
PUBLIC	?destroy@?$allocator@VioHashString@@@std@@QAEXPAVioHashString@@@Z ; std::allocator<ioHashString>::destroy
; Function compile flags: /Ogsp
; File c:\program files (x86)\microsoft visual studio 10.0\vc\include\xmemory
;	COMDAT ?destroy@?$allocator@VioHashString@@@std@@QAEXPAVioHashString@@@Z
_TEXT	SEGMENT
__Ptr$ = 8						; size = 4
?destroy@?$allocator@VioHashString@@@std@@QAEXPAVioHashString@@@Z PROC ; std::allocator<ioHashString>::destroy, COMDAT
; _this$ = ecx

; 212  : 		{	// destroy object at _Ptr

  00000	55		 push	 ebp
  00001	8b ec		 mov	 ebp, esp

; 213  : 		_Destroy(_Ptr);

  00003	8b 4d 08	 mov	 ecx, DWORD PTR __Ptr$[ebp]
  00006	ff 15 00 00 00
	00		 call	 DWORD PTR __imp_??1ioHashString@@QAE@XZ

; 214  : 		}

  0000c	5d		 pop	 ebp
  0000d	c2 04 00	 ret	 4
?destroy@?$allocator@VioHashString@@@std@@QAEXPAVioHashString@@@Z ENDP ; std::allocator<ioHashString>::destroy
_TEXT	ENDS
PUBLIC	??$_Cons_val@V?$allocator@VioHashString@@@std@@VioHashString@@ABV3@@std@@YAXAAV?$allocator@VioHashString@@@0@PAVioHashString@@ABV2@@Z ; std::_Cons_val<std::allocator<ioHashString>,ioHashString,ioHashString const &>
; Function compile flags: /Ogsp
;	COMDAT ??$_Cons_val@V?$allocator@VioHashString@@@std@@VioHashString@@ABV3@@std@@YAXAAV?$allocator@VioHashString@@@0@PAVioHashString@@ABV2@@Z
_TEXT	SEGMENT
__Alval$ = 8						; size = 4
__Pdest$ = 12						; size = 4
__Src$ = 16						; size = 4
??$_Cons_val@V?$allocator@VioHashString@@@std@@VioHashString@@ABV3@@std@@YAXAAV?$allocator@VioHashString@@@0@PAVioHashString@@ABV2@@Z PROC ; std::_Cons_val<std::allocator<ioHashString>,ioHashString,ioHashString const &>, COMDAT

; 279  : 	{	// construct using allocator

  00000	55		 push	 ebp
  00001	8b ec		 mov	 ebp, esp

; 280  : 	_Alval.construct(_Pdest, _STD forward<_Ty2>(_Src));

  00003	ff 75 10	 push	 DWORD PTR __Src$[ebp]
  00006	ff 75 0c	 push	 DWORD PTR __Pdest$[ebp]
  00009	e8 00 00 00 00	 call	 ??$_Construct@VioHashString@@ABV1@@std@@YAXPAVioHashString@@ABV1@@Z ; std::_Construct<ioHashString,ioHashString const &>
  0000e	59		 pop	 ecx
  0000f	59		 pop	 ecx

; 281  : 	}

  00010	5d		 pop	 ebp
  00011	c3		 ret	 0
??$_Cons_val@V?$allocator@VioHashString@@@std@@VioHashString@@ABV3@@std@@YAXAAV?$allocator@VioHashString@@@0@PAVioHashString@@ABV2@@Z ENDP ; std::_Cons_val<std::allocator<ioHashString>,ioHashString,ioHashString const &>
_TEXT	ENDS
PUBLIC	??A?$vector@_NV?$allocator@_N@std@@@std@@QAE?AV?$_Vb_reference@V?$allocator@_N@std@@@1@I@Z ; std::vector<bool,std::allocator<bool> >::operator[]
; Function compile flags: /Ogsp
; File c:\program files (x86)\microsoft visual studio 10.0\vc\include\vector
;	COMDAT ??A?$vector@_NV?$allocator@_N@std@@@std@@QAE?AV?$_Vb_reference@V?$allocator@_N@std@@@1@I@Z
_TEXT	SEGMENT
$T522448 = -16						; size = 8
$T522447 = -8						; size = 8
___$ReturnUdt$ = 8					; size = 4
__Off$ = 12						; size = 4
??A?$vector@_NV?$allocator@_N@std@@@std@@QAE?AV?$_Vb_reference@V?$allocator@_N@std@@@1@I@Z PROC ; std::vector<bool,std::allocator<bool> >::operator[], COMDAT
; _this$ = ecx

; 2337 : 		{	// subscript mutable sequence

  00000	55		 push	 ebp
  00001	8b ec		 mov	 ebp, esp
  00003	83 ec 10	 sub	 esp, 16			; 00000010H

; 2338 : 		return (*(begin() + _Off));

  00006	8b 01		 mov	 eax, DWORD PTR [ecx]
  00008	ff 75 0c	 push	 DWORD PTR __Off$[ebp]
  0000b	83 65 fc 00	 and	 DWORD PTR $T522447[ebp+4], 0
  0000f	89 45 f8	 mov	 DWORD PTR $T522447[ebp], eax
  00012	8d 45 f0	 lea	 eax, DWORD PTR $T522448[ebp]
  00015	50		 push	 eax
  00016	8d 4d f8	 lea	 ecx, DWORD PTR $T522447[ebp]
  00019	e8 00 00 00 00	 call	 ??H?$_Vb_iterator@V?$allocator@_N@std@@@std@@QBE?AV01@H@Z ; std::_Vb_iterator<std::allocator<bool> >::operator+
  0001e	8b 10		 mov	 edx, DWORD PTR [eax]
  00020	8b 4d 08	 mov	 ecx, DWORD PTR ___$ReturnUdt$[ebp]
  00023	8b 40 04	 mov	 eax, DWORD PTR [eax+4]
  00026	89 41 04	 mov	 DWORD PTR [ecx+4], eax
  00029	89 11		 mov	 DWORD PTR [ecx], edx
  0002b	8b c1		 mov	 eax, ecx

; 2339 : 		}

  0002d	c9		 leave
  0002e	c2 08 00	 ret	 8
??A?$vector@_NV?$allocator@_N@std@@@std@@QAE?AV?$_Vb_reference@V?$allocator@_N@std@@@1@I@Z ENDP ; std::vector<bool,std::allocator<bool> >::operator[]
_TEXT	ENDS
PUBLIC	?erase@?$vector@IV?$allocator@I@std@@@std@@QAE?AV?$_Vector_iterator@V?$_Vector_val@IV?$allocator@I@std@@@std@@@2@V?$_Vector_const_iterator@V?$_Vector_val@IV?$allocator@I@std@@@std@@@2@0@Z ; std::vector<unsigned int,std::allocator<unsigned int> >::erase
; Function compile flags: /Ogsp
;	COMDAT ?erase@?$vector@IV?$allocator@I@std@@@std@@QAE?AV?$_Vector_iterator@V?$_Vector_val@IV?$allocator@I@std@@@std@@@2@V?$_Vector_const_iterator@V?$_Vector_val@IV?$allocator@I@std@@@std@@@2@0@Z
_TEXT	SEGMENT
___$ReturnUdt$ = 8					; size = 4
__First_arg$ = 12					; size = 4
__Cat$522594 = 16					; size = 1
__Last_arg$ = 16					; size = 4
?erase@?$vector@IV?$allocator@I@std@@@std@@QAE?AV?$_Vector_iterator@V?$_Vector_val@IV?$allocator@I@std@@@std@@@2@V?$_Vector_const_iterator@V?$_Vector_val@IV?$allocator@I@std@@@std@@@2@0@Z PROC ; std::vector<unsigned int,std::allocator<unsigned int> >::erase, COMDAT
; _this$ = ecx

; 1190 : 		{	// erase [_First, _Last)

  00000	55		 push	 ebp
  00001	8b ec		 mov	 ebp, esp

; 1191 : 		iterator _First = _Make_iter(_First_arg);

  00003	8b 45 0c	 mov	 eax, DWORD PTR __First_arg$[ebp]
  00006	56		 push	 esi
  00007	57		 push	 edi
  00008	8b 7d 08	 mov	 edi, DWORD PTR ___$ReturnUdt$[ebp]
  0000b	8b f1		 mov	 esi, ecx
  0000d	89 07		 mov	 DWORD PTR [edi], eax

; 1192 : 		iterator _Last = _Make_iter(_Last_arg);
; 1193 : 
; 1194 : 		if (_First != _Last)

  0000f	3b 45 10	 cmp	 eax, DWORD PTR __Last_arg$[ebp]
  00012	74 16		 je	 SHORT $LN1@erase

; 1195 : 			{	// worth doing, copy down over hole
; 1196 :  #if _ITERATOR_DEBUG_LEVEL == 2
; 1197 : 			if (_Last < _First || _VICONT(_First) != this
; 1198 : 				|| _VIPTR(_First) < this->_Myfirst
; 1199 : 				|| this->_Mylast < _VIPTR(_Last))
; 1200 : 				_DEBUG_ERROR("vector erase iterator outside range");
; 1201 : 			pointer _Ptr = _Move(_VIPTR(_Last), this->_Mylast,
; 1202 : 				_VIPTR(_First));
; 1203 : 			_Orphan_range(_VIPTR(_First), this->_Mylast);
; 1204 : 
; 1205 :  #else /* _ITERATOR_DEBUG_LEVEL == 2 */
; 1206 : 			pointer _Ptr = _Move(_VIPTR(_Last), this->_Mylast,
; 1207 : 				_VIPTR(_First));

  00014	ff 75 10	 push	 DWORD PTR __Cat$522594[ebp]
  00017	8b 4e 04	 mov	 ecx, DWORD PTR [esi+4]
  0001a	50		 push	 eax
  0001b	51		 push	 ecx
  0001c	ff 75 10	 push	 DWORD PTR __Last_arg$[ebp]
  0001f	e8 00 00 00 00	 call	 ??$_Move@PAIPAI@std@@YAPAIPAI00U_Scalar_ptr_iterator_tag@0@@Z ; std::_Move<unsigned int *,unsigned int *>
  00024	83 c4 10	 add	 esp, 16			; 00000010H

; 1208 :  #endif /* _ITERATOR_DEBUG_LEVEL == 2 */
; 1209 : 
; 1210 : 			_Destroy(_Ptr, this->_Mylast);
; 1211 : 			this->_Mylast = _Ptr;

  00027	89 46 04	 mov	 DWORD PTR [esi+4], eax
$LN1@erase:

; 1212 : 			}
; 1213 : 		return (_First);

  0002a	8b c7		 mov	 eax, edi
  0002c	5f		 pop	 edi
  0002d	5e		 pop	 esi

; 1214 : 		}

  0002e	5d		 pop	 ebp
  0002f	c2 0c 00	 ret	 12			; 0000000cH
?erase@?$vector@IV?$allocator@I@std@@@std@@QAE?AV?$_Vector_iterator@V?$_Vector_val@IV?$allocator@I@std@@@std@@@2@V?$_Vector_const_iterator@V?$_Vector_val@IV?$allocator@I@std@@@std@@@2@0@Z ENDP ; std::vector<unsigned int,std::allocator<unsigned int> >::erase
_TEXT	ENDS
PUBLIC	?_Tidy@?$vector@IV?$allocator@I@std@@@std@@IAEXXZ ; std::vector<unsigned int,std::allocator<unsigned int> >::_Tidy
EXTRN	__imp_?_Orphan_all@_Container_base0@std@@QAEXXZ:PROC
; Function compile flags: /Ogsp
;	COMDAT ?_Tidy@?$vector@IV?$allocator@I@std@@@std@@IAEXXZ
_TEXT	SEGMENT
?_Tidy@?$vector@IV?$allocator@I@std@@@std@@IAEXXZ PROC	; std::vector<unsigned int,std::allocator<unsigned int> >::_Tidy, COMDAT
; _this$ = ecx

; 1301 : 		{	// free all storage

  00000	56		 push	 esi
  00001	8b f1		 mov	 esi, ecx

; 1302 : 		if (this->_Myfirst != 0)

  00003	83 3e 00	 cmp	 DWORD PTR [esi], 0
  00006	74 0e		 je	 SHORT $LN12@Tidy

; 1303 : 			{	// something to free, destroy and deallocate it
; 1304 : 			this->_Orphan_all();

  00008	ff 15 00 00 00
	00		 call	 DWORD PTR __imp_?_Orphan_all@_Container_base0@std@@QAEXXZ

; 1305 : 			_Destroy(this->_Myfirst, this->_Mylast);
; 1306 : 			this->_Alval.deallocate(this->_Myfirst,
; 1307 : 				this->_Myend - this->_Myfirst);

  0000e	ff 36		 push	 DWORD PTR [esi]
  00010	e8 00 00 00 00	 call	 ??3@YAXPAX@Z		; operator delete
  00015	59		 pop	 ecx
$LN12@Tidy:

; 1308 : 			}
; 1309 : 		this->_Myfirst = 0;

  00016	83 26 00	 and	 DWORD PTR [esi], 0

; 1310 : 		this->_Mylast = 0;

  00019	83 66 04 00	 and	 DWORD PTR [esi+4], 0

; 1311 : 		this->_Myend = 0;

  0001d	83 66 08 00	 and	 DWORD PTR [esi+8], 0
  00021	5e		 pop	 esi

; 1312 : 		}

  00022	c3		 ret	 0
?_Tidy@?$vector@IV?$allocator@I@std@@@std@@IAEXXZ ENDP	; std::vector<unsigned int,std::allocator<unsigned int> >::_Tidy
_TEXT	ENDS
PUBLIC	?_Ufill@?$vector@IV?$allocator@I@std@@@std@@IAEPAIPAIIPBI@Z ; std::vector<unsigned int,std::allocator<unsigned int> >::_Ufill
; Function compile flags: /Ogsp
;	COMDAT ?_Ufill@?$vector@IV?$allocator@I@std@@@std@@IAEPAIPAIIPBI@Z
_TEXT	SEGMENT
__Ptr$ = 8						; size = 4
__Count$ = 12						; size = 4
__Pval$ = 16						; size = 4
?_Ufill@?$vector@IV?$allocator@I@std@@@std@@IAEPAIPAIIPBI@Z PROC ; std::vector<unsigned int,std::allocator<unsigned int> >::_Ufill, COMDAT
; _this$ = ecx

; 1420 : 		{	// copy initializing _Count * _Val, using allocator

  00000	55		 push	 ebp
  00001	8b ec		 mov	 ebp, esp
  00003	56		 push	 esi

; 1421 : 		_Uninitialized_fill_n(_Ptr, _Count, _Pval, this->_Alval);

  00004	8b 75 0c	 mov	 esi, DWORD PTR __Count$[ebp]
  00007	57		 push	 edi
  00008	ff 75 10	 push	 DWORD PTR __Pval$[ebp]
  0000b	8b 7d 08	 mov	 edi, DWORD PTR __Ptr$[ebp]
  0000e	56		 push	 esi
  0000f	57		 push	 edi
  00010	e8 00 00 00 00	 call	 ??$_Fill_n@PAIII@std@@YAXPAIIABI@Z ; std::_Fill_n<unsigned int *,unsigned int,unsigned int>
  00015	83 c4 0c	 add	 esp, 12			; 0000000cH

; 1422 : 		return (_Ptr + _Count);

  00018	8d 04 b7	 lea	 eax, DWORD PTR [edi+esi*4]
  0001b	5f		 pop	 edi
  0001c	5e		 pop	 esi

; 1423 : 		}

  0001d	5d		 pop	 ebp
  0001e	c2 0c 00	 ret	 12			; 0000000cH
?_Ufill@?$vector@IV?$allocator@I@std@@@std@@IAEPAIPAIIPBI@Z ENDP ; std::vector<unsigned int,std::allocator<unsigned int> >::_Ufill
_TEXT	ENDS
PUBLIC	?_Insert_n@?$vector@IV?$allocator@I@std@@@std@@IAEXV?$_Vector_const_iterator@V?$_Vector_val@IV?$allocator@I@std@@@std@@@2@IABI@Z ; std::vector<unsigned int,std::allocator<unsigned int> >::_Insert_n
; Function compile flags: /Ogsp
;	COMDAT ?_Insert_n@?$vector@IV?$allocator@I@std@@@std@@IAEXV?$_Vector_const_iterator@V?$_Vector_val@IV?$allocator@I@std@@@std@@@2@IABI@Z
_TEXT	SEGMENT
__Capacity$516731 = -4					; size = 4
__Cat$522993 = 8					; size = 1
__Where$ = 8						; size = 4
tv580 = 12						; size = 4
__Newvec$516732 = 12					; size = 4
__Count$ = 12						; size = 4
tv621 = 16						; size = 4
__Tmp$516747 = 16					; size = 4
__Val$ = 16						; size = 4
?_Insert_n@?$vector@IV?$allocator@I@std@@@std@@IAEXV?$_Vector_const_iterator@V?$_Vector_val@IV?$allocator@I@std@@@std@@@2@IABI@Z PROC ; std::vector<unsigned int,std::allocator<unsigned int> >::_Insert_n, COMDAT
; _this$ = ecx

; 1330 : 		{	// insert _Count * _Val at _Where

  00000	55		 push	 ebp
  00001	8b ec		 mov	 ebp, esp
  00003	51		 push	 ecx
  00004	53		 push	 ebx

; 1331 :  #if _ITERATOR_DEBUG_LEVEL == 2
; 1332 : 		if (_VICONT(_Where) != this
; 1333 : 			|| _VIPTR(_Where) < this->_Myfirst
; 1334 : 			|| this->_Mylast < _VIPTR(_Where))
; 1335 : 			_DEBUG_ERROR("vector insert iterator outside range");
; 1336 :  #endif /* _ITERATOR_DEBUG_LEVEL == 2 */
; 1337 : 
; 1338 : 		if (_Count == 0)

  00005	8b 5d 0c	 mov	 ebx, DWORD PTR __Count$[ebp]
  00008	56		 push	 esi
  00009	8b f1		 mov	 esi, ecx
  0000b	85 db		 test	 ebx, ebx
  0000d	0f 84 71 01 00
	00		 je	 $LN138@Insert_n

; 1339 : 			;
; 1340 : 		else if (max_size() - size() < _Count)

  00013	8b 4e 04	 mov	 ecx, DWORD PTR [esi+4]
  00016	8b 16		 mov	 edx, DWORD PTR [esi]
  00018	8b c1		 mov	 eax, ecx
  0001a	2b c2		 sub	 eax, edx
  0001c	57		 push	 edi
  0001d	c1 f8 02	 sar	 eax, 2
  00020	bf ff ff ff 3f	 mov	 edi, 1073741823		; 3fffffffH
  00025	2b f8		 sub	 edi, eax
  00027	89 4d 0c	 mov	 DWORD PTR tv580[ebp], ecx
  0002a	3b fb		 cmp	 edi, ebx
  0002c	73 0b		 jae	 SHORT $LN11@Insert_n

; 1341 : 			_Xlen();	// result too long

  0002e	68 00 00 00 00	 push	 OFFSET ??_C@_0BD@OLBABOEK@vector?$DMT?$DO?5too?5long?$AA@
  00033	ff 15 00 00 00
	00		 call	 DWORD PTR __imp_?_Xlength_error@std@@YAXPBD@Z
$LN153@Insert_n:
$LN11@Insert_n:

; 1342 : 		else if (capacity() < size() + _Count)

  00039	8b 7e 08	 mov	 edi, DWORD PTR [esi+8]
  0003c	2b fa		 sub	 edi, edx
  0003e	03 c3		 add	 eax, ebx
  00040	c1 ff 02	 sar	 edi, 2
  00043	3b f8		 cmp	 edi, eax
  00045	0f 83 8f 00 00
	00		 jae	 $LN9@Insert_n

; 1343 : 			{	// not enough room, reallocate
; 1344 : 			size_type _Capacity = _Grow_to(size() + _Count);

  0004b	50		 push	 eax
  0004c	8b ce		 mov	 ecx, esi
  0004e	e8 00 00 00 00	 call	 ?_Grow_to@?$vector@IV?$allocator@I@std@@@std@@IBEII@Z ; std::vector<unsigned int,std::allocator<unsigned int> >::_Grow_to

; 1345 : 			pointer _Newvec = this->_Alval.allocate(_Capacity);

  00053	6a 00		 push	 0
  00055	50		 push	 eax
  00056	89 45 fc	 mov	 DWORD PTR __Capacity$516731[ebp], eax
  00059	e8 00 00 00 00	 call	 ??$_Allocate@I@std@@YAPAIIPAI@Z ; std::_Allocate<unsigned int>

; 1346 : 			size_type _Whereoff = _VIPTR(_Where) - this->_Myfirst;

  0005e	8b 7d 08	 mov	 edi, DWORD PTR __Where$[ebp]
  00061	2b 3e		 sub	 edi, DWORD PTR [esi]

; 1347 : 			int _Ncopied = 0;
; 1348 : 
; 1349 : 			_TRY_BEGIN
; 1350 : 			_Ufill(_Newvec + _Whereoff, _Count,
; 1351 : 				_STD addressof(_Val));	// add new stuff

  00063	ff 75 10	 push	 DWORD PTR __Val$[ebp]
  00066	89 45 0c	 mov	 DWORD PTR __Newvec$516732[ebp], eax
  00069	c1 ff 02	 sar	 edi, 2
  0006c	8d 04 b8	 lea	 eax, DWORD PTR [eax+edi*4]
  0006f	53		 push	 ebx
  00070	50		 push	 eax
  00071	e8 00 00 00 00	 call	 ??$_Fill_n@PAIII@std@@YAXPAIIABI@Z ; std::_Fill_n<unsigned int *,unsigned int,unsigned int>

; 1352 : 			++_Ncopied;
; 1353 : 			_Umove(this->_Myfirst, _VIPTR(_Where),
; 1354 : 				_Newvec);	// copy prefix

  00076	8b 0e		 mov	 ecx, DWORD PTR [esi]
  00078	8d 46 0c	 lea	 eax, DWORD PTR [esi+12]
  0007b	50		 push	 eax
  0007c	ff 75 0c	 push	 DWORD PTR __Newvec$516732[ebp]
  0007f	ff 75 08	 push	 DWORD PTR __Where$[ebp]
  00082	51		 push	 ecx
  00083	e8 00 00 00 00	 call	 ??$_Uninitialized_move@PAIPAIV?$allocator@I@std@@@std@@YAPAIPAI00AAV?$allocator@I@0@@Z ; std::_Uninitialized_move<unsigned int *,unsigned int *,std::allocator<unsigned int> >

; 1355 : 			++_Ncopied;
; 1356 : 			_Umove(_VIPTR(_Where), this->_Mylast,
; 1357 : 				_Newvec + (_Whereoff + _Count));	// copy suffix

  00088	8b 4e 04	 mov	 ecx, DWORD PTR [esi+4]
  0008b	8d 46 0c	 lea	 eax, DWORD PTR [esi+12]
  0008e	50		 push	 eax
  0008f	8d 04 1f	 lea	 eax, DWORD PTR [edi+ebx]
  00092	8b 7d 0c	 mov	 edi, DWORD PTR __Newvec$516732[ebp]
  00095	8d 04 87	 lea	 eax, DWORD PTR [edi+eax*4]
  00098	50		 push	 eax
  00099	51		 push	 ecx
  0009a	ff 75 08	 push	 DWORD PTR __Where$[ebp]
  0009d	e8 00 00 00 00	 call	 ??$_Uninitialized_move@PAIPAIV?$allocator@I@std@@@std@@YAPAIPAI00AAV?$allocator@I@0@@Z ; std::_Uninitialized_move<unsigned int *,unsigned int *,std::allocator<unsigned int> >

; 1358 : 			_CATCH_ALL
; 1359 : 			if (1 < _Ncopied)
; 1360 : 				_Destroy(_Newvec, _Newvec + _Whereoff);
; 1361 : 			if (0 < _Ncopied)
; 1362 : 				_Destroy(_Newvec + _Whereoff, _Newvec + _Whereoff + _Count);
; 1363 : 			this->_Alval.deallocate(_Newvec, _Capacity);
; 1364 : 			_RERAISE;
; 1365 : 			_CATCH_END
; 1366 : 
; 1367 : 			_Count += size();

  000a2	8b 06		 mov	 eax, DWORD PTR [esi]
  000a4	8b 4e 04	 mov	 ecx, DWORD PTR [esi+4]
  000a7	2b c8		 sub	 ecx, eax
  000a9	c1 f9 02	 sar	 ecx, 2
  000ac	83 c4 34	 add	 esp, 52			; 00000034H
  000af	03 d9		 add	 ebx, ecx

; 1368 : 			if (this->_Myfirst != 0)

  000b1	85 c0		 test	 eax, eax
  000b3	74 07		 je	 SHORT $LN87@Insert_n

; 1369 : 				{	// destroy and deallocate old array
; 1370 : 				_Destroy(this->_Myfirst, this->_Mylast);
; 1371 : 				this->_Alval.deallocate(this->_Myfirst,
; 1372 : 					this->_Myend - this->_Myfirst);

  000b5	50		 push	 eax
  000b6	e8 00 00 00 00	 call	 ??3@YAXPAX@Z		; operator delete
  000bb	59		 pop	 ecx
$LN87@Insert_n:

; 1373 : 				}
; 1374 : 
; 1375 : 			this->_Orphan_all();

  000bc	8b ce		 mov	 ecx, esi
  000be	ff 15 00 00 00
	00		 call	 DWORD PTR __imp_?_Orphan_all@_Container_base0@std@@QAEXXZ

; 1376 : 			this->_Myend = _Newvec + _Capacity;

  000c4	8b 45 fc	 mov	 eax, DWORD PTR __Capacity$516731[ebp]
  000c7	8d 04 87	 lea	 eax, DWORD PTR [edi+eax*4]
  000ca	89 46 08	 mov	 DWORD PTR [esi+8], eax

; 1377 : 			this->_Mylast = _Newvec + _Count;

  000cd	8d 04 9f	 lea	 eax, DWORD PTR [edi+ebx*4]
  000d0	89 46 04	 mov	 DWORD PTR [esi+4], eax

; 1378 : 			this->_Myfirst = _Newvec;

  000d3	89 3e		 mov	 DWORD PTR [esi], edi

; 1379 : 			}
; 1380 : 		else if ((size_type)(this->_Mylast - _VIPTR(_Where))

  000d5	e9 a9 00 00 00	 jmp	 $LN149@Insert_n
$LN9@Insert_n:

; 1381 : 			< _Count)

  000da	8b 45 08	 mov	 eax, DWORD PTR __Where$[ebp]
  000dd	8b d1		 mov	 edx, ecx
  000df	2b d0		 sub	 edx, eax
  000e1	c1 fa 02	 sar	 edx, 2
  000e4	3b d3		 cmp	 edx, ebx
  000e6	73 52		 jae	 SHORT $LN3@Insert_n

; 1382 : 			{	// new stuff spills off end
; 1383 : 			_Ty _Tmp = _Val;	// in case _Val is in sequence

  000e8	8b 55 10	 mov	 edx, DWORD PTR __Val$[ebp]
  000eb	8b 12		 mov	 edx, DWORD PTR [edx]
  000ed	89 55 10	 mov	 DWORD PTR __Tmp$516747[ebp], edx

; 1384 : 
; 1385 : 			_Umove(_VIPTR(_Where), this->_Mylast,
; 1386 : 				_VIPTR(_Where) + _Count);	// copy suffix

  000f0	8b fb		 mov	 edi, ebx
  000f2	8d 56 0c	 lea	 edx, DWORD PTR [esi+12]
  000f5	52		 push	 edx
  000f6	c1 e7 02	 shl	 edi, 2
  000f9	8d 14 07	 lea	 edx, DWORD PTR [edi+eax]
  000fc	52		 push	 edx
  000fd	51		 push	 ecx
  000fe	50		 push	 eax
  000ff	e8 00 00 00 00	 call	 ??$_Uninitialized_move@PAIPAIV?$allocator@I@std@@@std@@YAPAIPAI00AAV?$allocator@I@0@@Z ; std::_Uninitialized_move<unsigned int *,unsigned int *,std::allocator<unsigned int> >

; 1387 : 
; 1388 : 			_TRY_BEGIN
; 1389 : 			_Ufill(this->_Mylast,
; 1390 : 				_Count - (this->_Mylast - _VIPTR(_Where)),
; 1391 : 				_STD addressof(_Tmp));	// insert new stuff off end

  00104	8b 46 04	 mov	 eax, DWORD PTR [esi+4]
  00107	8d 4d 10	 lea	 ecx, DWORD PTR __Tmp$516747[ebp]
  0010a	51		 push	 ecx
  0010b	8b c8		 mov	 ecx, eax
  0010d	2b 4d 08	 sub	 ecx, DWORD PTR __Where$[ebp]
  00110	c1 f9 02	 sar	 ecx, 2
  00113	2b d9		 sub	 ebx, ecx
  00115	53		 push	 ebx
  00116	50		 push	 eax
  00117	e8 00 00 00 00	 call	 ??$_Fill_n@PAIII@std@@YAXPAIIABI@Z ; std::_Fill_n<unsigned int *,unsigned int,unsigned int>

; 1392 : 			_CATCH_ALL
; 1393 : 			_Destroy(_VIPTR(_Where) + _Count,
; 1394 : 				this->_Mylast + _Count);
; 1395 : 			_RERAISE;
; 1396 : 			_CATCH_END
; 1397 : 
; 1398 : 			this->_Mylast += _Count;

  0011c	01 7e 04	 add	 DWORD PTR [esi+4], edi
  0011f	8b 76 04	 mov	 esi, DWORD PTR [esi+4]

; 1399 : 			_Orphan_range(_VIPTR(_Where), this->_Mylast);
; 1400 : 			_STD fill(_VIPTR(_Where), this->_Mylast - _Count,
; 1401 : 				_Tmp);	// insert up to old end

  00122	8b 45 08	 mov	 eax, DWORD PTR __Where$[ebp]
  00125	83 c4 1c	 add	 esp, 28			; 0000001cH
  00128	2b f7		 sub	 esi, edi
  0012a	eb 08		 jmp	 SHORT $LN151@Insert_n
$LL121@Insert_n:
  0012c	8b 4d 10	 mov	 ecx, DWORD PTR __Tmp$516747[ebp]
  0012f	89 08		 mov	 DWORD PTR [eax], ecx
  00131	83 c0 04	 add	 eax, 4
$LN151@Insert_n:
  00134	3b c6		 cmp	 eax, esi
  00136	75 f4		 jne	 SHORT $LL121@Insert_n

; 1402 : 			}
; 1403 : 		else

  00138	eb 49		 jmp	 SHORT $LN149@Insert_n
$LN3@Insert_n:

; 1404 : 			{	// new stuff can all be assigned
; 1405 : 			_Ty _Tmp = _Val;	// in case _Val is in sequence

  0013a	8b 45 10	 mov	 eax, DWORD PTR __Val$[ebp]
  0013d	8b 38		 mov	 edi, DWORD PTR [eax]

; 1406 : 
; 1407 : 			pointer _Oldend = this->_Mylast;
; 1408 : 			this->_Mylast = _Umove(_Oldend - _Count, _Oldend,
; 1409 : 				this->_Mylast);	// copy suffix

  0013f	8d 46 0c	 lea	 eax, DWORD PTR [esi+12]
  00142	50		 push	 eax
  00143	51		 push	 ecx
  00144	c1 e3 02	 shl	 ebx, 2
  00147	89 4d 10	 mov	 DWORD PTR tv621[ebp], ecx
  0014a	29 5d 10	 sub	 DWORD PTR tv621[ebp], ebx
  0014d	51		 push	 ecx
  0014e	ff 75 10	 push	 DWORD PTR tv621[ebp]
  00151	e8 00 00 00 00	 call	 ??$_Uninitialized_move@PAIPAIV?$allocator@I@std@@@std@@YAPAIPAI00AAV?$allocator@I@0@@Z ; std::_Uninitialized_move<unsigned int *,unsigned int *,std::allocator<unsigned int> >

; 1410 : 
; 1411 : 			_Orphan_range(_VIPTR(_Where), this->_Mylast);
; 1412 : 			_STD _Copy_backward(_VIPTR(_Where), _Oldend - _Count,
; 1413 : 				_Oldend);	// copy hole

  00156	ff 75 08	 push	 DWORD PTR __Cat$522993[ebp]
  00159	89 46 04	 mov	 DWORD PTR [esi+4], eax
  0015c	ff 75 0c	 push	 DWORD PTR tv580[ebp]
  0015f	ff 75 10	 push	 DWORD PTR tv621[ebp]
  00162	ff 75 08	 push	 DWORD PTR __Where$[ebp]
  00165	e8 00 00 00 00	 call	 ??$_Copy_backward@PAIPAI@std@@YAPAIPAI00U_Scalar_ptr_iterator_tag@0@@Z ; std::_Copy_backward<unsigned int *,unsigned int *>

; 1414 : 			_STD fill(_VIPTR(_Where),
; 1415 : 				_VIPTR(_Where) + _Count, _Tmp);	// insert into hole

  0016a	8b 45 08	 mov	 eax, DWORD PTR __Where$[ebp]
  0016d	83 c4 20	 add	 esp, 32			; 00000020H
  00170	8d 0c 03	 lea	 ecx, DWORD PTR [ebx+eax]
  00173	eb 0a		 jmp	 SHORT $LN152@Insert_n
$LL140@Insert_n:
  00175	89 38		 mov	 DWORD PTR [eax], edi
  00177	8b 4d 08	 mov	 ecx, DWORD PTR __Where$[ebp]
  0017a	83 c0 04	 add	 eax, 4
  0017d	03 cb		 add	 ecx, ebx
$LN152@Insert_n:
  0017f	3b c1		 cmp	 eax, ecx
  00181	75 f2		 jne	 SHORT $LL140@Insert_n
$LN149@Insert_n:
  00183	5f		 pop	 edi
$LN138@Insert_n:
  00184	5e		 pop	 esi
  00185	5b		 pop	 ebx

; 1416 : 			}
; 1417 : 		}

  00186	c9		 leave
  00187	c2 0c 00	 ret	 12			; 0000000cH
$LN150@Insert_n:
?_Insert_n@?$vector@IV?$allocator@I@std@@@std@@IAEXV?$_Vector_const_iterator@V?$_Vector_val@IV?$allocator@I@std@@@std@@@2@IABI@Z ENDP ; std::vector<unsigned int,std::allocator<unsigned int> >::_Insert_n
_TEXT	ENDS
PUBLIC	??$_Copy_impl@V?$_Vb_iterator@V?$allocator@_N@std@@@std@@V12@@std@@YA?AV?$_Vb_iterator@V?$allocator@_N@std@@@0@V10@00@Z ; std::_Copy_impl<std::_Vb_iterator<std::allocator<bool> >,std::_Vb_iterator<std::allocator<bool> > >
; Function compile flags: /Ogsp
; File c:\program files (x86)\microsoft visual studio 10.0\vc\include\xutility
;	COMDAT ??$_Copy_impl@V?$_Vb_iterator@V?$allocator@_N@std@@@std@@V12@@std@@YA?AV?$_Vb_iterator@V?$allocator@_N@std@@@0@V10@00@Z
_TEXT	SEGMENT
__Cat$523038 = 8					; size = 1
___$ReturnUdt$ = 8					; size = 4
__First$ = 12						; size = 8
__Last$ = 20						; size = 8
__Dest$ = 28						; size = 8
??$_Copy_impl@V?$_Vb_iterator@V?$allocator@_N@std@@@std@@V12@@std@@YA?AV?$_Vb_iterator@V?$allocator@_N@std@@@0@V10@00@Z PROC ; std::_Copy_impl<std::_Vb_iterator<std::allocator<bool> >,std::_Vb_iterator<std::allocator<bool> > >, COMDAT

; 2163 : 	{	// copy [_First, _Last) to [_Dest, ...)

  00000	55		 push	 ebp
  00001	8b ec		 mov	 ebp, esp

; 2164 : 	return (_Copy_impl(_First, _Last,
; 2165 : 		_Dest, _Ptr_cat(_First, _Dest)));

  00003	ff 75 08	 push	 DWORD PTR __Cat$523038[ebp]
  00006	ff 75 20	 push	 DWORD PTR __Dest$[ebp+4]
  00009	ff 75 1c	 push	 DWORD PTR __Dest$[ebp]
  0000c	ff 75 18	 push	 DWORD PTR __Last$[ebp+4]
  0000f	ff 75 14	 push	 DWORD PTR __Last$[ebp]
  00012	ff 75 10	 push	 DWORD PTR __First$[ebp+4]
  00015	ff 75 0c	 push	 DWORD PTR __First$[ebp]
  00018	ff 75 08	 push	 DWORD PTR ___$ReturnUdt$[ebp]
  0001b	e8 00 00 00 00	 call	 ??$_Copy_impl@V?$_Vb_iterator@V?$allocator@_N@std@@@std@@V12@@std@@YA?AV?$_Vb_iterator@V?$allocator@_N@std@@@0@V10@00U_Nonscalar_ptr_iterator_tag@0@@Z ; std::_Copy_impl<std::_Vb_iterator<std::allocator<bool> >,std::_Vb_iterator<std::allocator<bool> > >
  00020	8b 45 08	 mov	 eax, DWORD PTR ___$ReturnUdt$[ebp]
  00023	83 c4 20	 add	 esp, 32			; 00000020H

; 2166 : 	}

  00026	5d		 pop	 ebp
  00027	c3		 ret	 0
??$_Copy_impl@V?$_Vb_iterator@V?$allocator@_N@std@@@std@@V12@@std@@YA?AV?$_Vb_iterator@V?$allocator@_N@std@@@0@V10@00@Z ENDP ; std::_Copy_impl<std::_Vb_iterator<std::allocator<bool> >,std::_Vb_iterator<std::allocator<bool> > >
_TEXT	ENDS
PUBLIC	??$_Fill@V?$_Vb_iterator@V?$allocator@_N@std@@@std@@_N@std@@YAXV?$_Vb_iterator@V?$allocator@_N@std@@@0@0AB_N@Z ; std::_Fill<std::_Vb_iterator<std::allocator<bool> >,bool>
; Function compile flags: /Ogsp
;	COMDAT ??$_Fill@V?$_Vb_iterator@V?$allocator@_N@std@@@std@@_N@std@@YAXV?$_Vb_iterator@V?$allocator@_N@std@@@0@0AB_N@Z
_TEXT	SEGMENT
__First$ = 8						; size = 8
__Last$ = 16						; size = 8
__Val$ = 24						; size = 4
??$_Fill@V?$_Vb_iterator@V?$allocator@_N@std@@@std@@_N@std@@YAXV?$_Vb_iterator@V?$allocator@_N@std@@@0@0AB_N@Z PROC ; std::_Fill<std::_Vb_iterator<std::allocator<bool> >,bool>, COMDAT

; 2690 : 	{	// copy _Val through [_First, _Last)

  00000	55		 push	 ebp
  00001	8b ec		 mov	 ebp, esp
  00003	8b 45 08	 mov	 eax, DWORD PTR __First$[ebp]

; 2691 : 	for (; _First != _Last; ++_First)

$LL10@Fill@2:
  00006	3b 45 10	 cmp	 eax, DWORD PTR __Last$[ebp]
  00009	75 08		 jne	 SHORT $LN18@Fill@2
  0000b	8b 4d 0c	 mov	 ecx, DWORD PTR __First$[ebp+4]
  0000e	3b 4d 14	 cmp	 ecx, DWORD PTR __Last$[ebp+4]
  00011	74 34		 je	 SHORT $LN45@Fill@2
$LN18@Fill@2:

; 2692 : 		*_First = _Val;

  00013	8b 4d 18	 mov	 ecx, DWORD PTR __Val$[ebp]
  00016	33 d2		 xor	 edx, edx
  00018	42		 inc	 edx
  00019	80 39 00	 cmp	 BYTE PTR [ecx], 0
  0001c	8b 4d 0c	 mov	 ecx, DWORD PTR __First$[ebp+4]
  0001f	74 06		 je	 SHORT $LN33@Fill@2
  00021	d3 e2		 shl	 edx, cl
  00023	09 10		 or	 DWORD PTR [eax], edx
  00025	eb 06		 jmp	 SHORT $LN2@Fill@2
$LN33@Fill@2:
  00027	d3 e2		 shl	 edx, cl
  00029	f7 d2		 not	 edx
  0002b	21 10		 and	 DWORD PTR [eax], edx
$LN2@Fill@2:

; 2691 : 	for (; _First != _Last; ++_First)

  0002d	83 7d 0c 1f	 cmp	 DWORD PTR __First$[ebp+4], 31 ; 0000001fH
  00031	8b 45 08	 mov	 eax, DWORD PTR __First$[ebp]
  00034	73 05		 jae	 SHORT $LN11@Fill@2
  00036	ff 45 0c	 inc	 DWORD PTR __First$[ebp+4]
  00039	eb cb		 jmp	 SHORT $LL10@Fill@2
$LN11@Fill@2:
  0003b	83 65 0c 00	 and	 DWORD PTR __First$[ebp+4], 0
  0003f	83 c0 04	 add	 eax, 4
  00042	89 45 08	 mov	 DWORD PTR __First$[ebp], eax
  00045	eb bf		 jmp	 SHORT $LL10@Fill@2
$LN45@Fill@2:

; 2693 : 	}

  00047	5d		 pop	 ebp
  00048	c3		 ret	 0
??$_Fill@V?$_Vb_iterator@V?$allocator@_N@std@@@std@@_N@std@@YAXV?$_Vb_iterator@V?$allocator@_N@std@@@0@0AB_N@Z ENDP ; std::_Fill<std::_Vb_iterator<std::allocator<bool> >,bool>
_TEXT	ENDS
PUBLIC	??$_Copy_backward@V?$_Vb_iterator@V?$allocator@_N@std@@@std@@V12@@std@@YA?AV?$_Vb_iterator@V?$allocator@_N@std@@@0@V10@00U_Nonscalar_ptr_iterator_tag@0@@Z ; std::_Copy_backward<std::_Vb_iterator<std::allocator<bool> >,std::_Vb_iterator<std::allocator<bool> > >
; Function compile flags: /Ogsp
;	COMDAT ??$_Copy_backward@V?$_Vb_iterator@V?$allocator@_N@std@@@std@@V12@@std@@YA?AV?$_Vb_iterator@V?$allocator@_N@std@@@0@V10@00U_Nonscalar_ptr_iterator_tag@0@@Z
_TEXT	SEGMENT
$T523148 = -16						; size = 8
$T523149 = -8						; size = 8
___$ReturnUdt$ = 8					; size = 4
__First$ = 12						; size = 8
__Last$ = 20						; size = 8
__Dest$ = 28						; size = 8
___formal$ = 36						; size = 1
??$_Copy_backward@V?$_Vb_iterator@V?$allocator@_N@std@@@std@@V12@@std@@YA?AV?$_Vb_iterator@V?$allocator@_N@std@@@0@V10@00U_Nonscalar_ptr_iterator_tag@0@@Z PROC ; std::_Copy_backward<std::_Vb_iterator<std::allocator<bool> >,std::_Vb_iterator<std::allocator<bool> > >, COMDAT

; 2438 : 	{	// copy [_First, _Last) backwards to [..., _Dest), arbitrary iterators

  00000	55		 push	 ebp
  00001	8b ec		 mov	 ebp, esp
  00003	83 ec 10	 sub	 esp, 16			; 00000010H
$LL2@Copy_backw:

; 2439 : 	while (_First != _Last)

  00006	8b 45 0c	 mov	 eax, DWORD PTR __First$[ebp]
  00009	3b 45 14	 cmp	 eax, DWORD PTR __Last$[ebp]
  0000c	75 08		 jne	 SHORT $LN9@Copy_backw
  0000e	8b 45 10	 mov	 eax, DWORD PTR __First$[ebp+4]
  00011	3b 45 18	 cmp	 eax, DWORD PTR __Last$[ebp+4]
  00014	74 36		 je	 SHORT $LN42@Copy_backw
$LN9@Copy_backw:

; 2440 : 		*--_Dest = *--_Last;

  00016	8d 4d 14	 lea	 ecx, DWORD PTR __Last$[ebp]
  00019	e8 00 00 00 00	 call	 ?_Dec@?$_Vb_const_iterator@V?$allocator@_N@std@@@std@@QAEXXZ ; std::_Vb_const_iterator<std::allocator<bool> >::_Dec
  0001e	8b 45 14	 mov	 eax, DWORD PTR __Last$[ebp]
  00021	89 45 f8	 mov	 DWORD PTR $T523149[ebp], eax
  00024	8b 45 18	 mov	 eax, DWORD PTR __Last$[ebp+4]
  00027	8d 4d 1c	 lea	 ecx, DWORD PTR __Dest$[ebp]
  0002a	89 45 fc	 mov	 DWORD PTR $T523149[ebp+4], eax
  0002d	e8 00 00 00 00	 call	 ?_Dec@?$_Vb_const_iterator@V?$allocator@_N@std@@@std@@QAEXXZ ; std::_Vb_const_iterator<std::allocator<bool> >::_Dec
  00032	8b 45 1c	 mov	 eax, DWORD PTR __Dest$[ebp]
  00035	89 45 f0	 mov	 DWORD PTR $T523148[ebp], eax
  00038	8b 45 20	 mov	 eax, DWORD PTR __Dest$[ebp+4]
  0003b	89 45 f4	 mov	 DWORD PTR $T523148[ebp+4], eax
  0003e	8d 45 f8	 lea	 eax, DWORD PTR $T523149[ebp]
  00041	50		 push	 eax
  00042	8d 4d f0	 lea	 ecx, DWORD PTR $T523148[ebp]
  00045	e8 00 00 00 00	 call	 ??4?$_Vb_reference@V?$allocator@_N@std@@@std@@QAEAAV01@ABV01@@Z ; std::_Vb_reference<std::allocator<bool> >::operator=
  0004a	eb ba		 jmp	 SHORT $LL2@Copy_backw
$LN42@Copy_backw:

; 2441 : 	return (_Dest);

  0004c	8b 4d 1c	 mov	 ecx, DWORD PTR __Dest$[ebp]
  0004f	8b 45 08	 mov	 eax, DWORD PTR ___$ReturnUdt$[ebp]
  00052	89 08		 mov	 DWORD PTR [eax], ecx
  00054	8b 4d 20	 mov	 ecx, DWORD PTR __Dest$[ebp+4]
  00057	89 48 04	 mov	 DWORD PTR [eax+4], ecx

; 2442 : 	}

  0005a	c9		 leave
  0005b	c3		 ret	 0
??$_Copy_backward@V?$_Vb_iterator@V?$allocator@_N@std@@@std@@V12@@std@@YA?AV?$_Vb_iterator@V?$allocator@_N@std@@@0@V10@00U_Nonscalar_ptr_iterator_tag@0@@Z ENDP ; std::_Copy_backward<std::_Vb_iterator<std::allocator<bool> >,std::_Vb_iterator<std::allocator<bool> > >
_TEXT	ENDS
PUBLIC	?erase@?$vector@HV?$allocator@H@std@@@std@@QAE?AV?$_Vector_iterator@V?$_Vector_val@HV?$allocator@H@std@@@std@@@2@V?$_Vector_const_iterator@V?$_Vector_val@HV?$allocator@H@std@@@std@@@2@0@Z ; std::vector<int,std::allocator<int> >::erase
; Function compile flags: /Ogsp
; File c:\program files (x86)\microsoft visual studio 10.0\vc\include\vector
;	COMDAT ?erase@?$vector@HV?$allocator@H@std@@@std@@QAE?AV?$_Vector_iterator@V?$_Vector_val@HV?$allocator@H@std@@@std@@@2@V?$_Vector_const_iterator@V?$_Vector_val@HV?$allocator@H@std@@@std@@@2@0@Z
_TEXT	SEGMENT
___$ReturnUdt$ = 8					; size = 4
__First_arg$ = 12					; size = 4
__Cat$523330 = 16					; size = 1
__Last_arg$ = 16					; size = 4
?erase@?$vector@HV?$allocator@H@std@@@std@@QAE?AV?$_Vector_iterator@V?$_Vector_val@HV?$allocator@H@std@@@std@@@2@V?$_Vector_const_iterator@V?$_Vector_val@HV?$allocator@H@std@@@std@@@2@0@Z PROC ; std::vector<int,std::allocator<int> >::erase, COMDAT
; _this$ = ecx

; 1190 : 		{	// erase [_First, _Last)

  00000	55		 push	 ebp
  00001	8b ec		 mov	 ebp, esp

; 1191 : 		iterator _First = _Make_iter(_First_arg);

  00003	8b 45 0c	 mov	 eax, DWORD PTR __First_arg$[ebp]
  00006	56		 push	 esi
  00007	57		 push	 edi
  00008	8b 7d 08	 mov	 edi, DWORD PTR ___$ReturnUdt$[ebp]
  0000b	8b f1		 mov	 esi, ecx
  0000d	89 07		 mov	 DWORD PTR [edi], eax

; 1192 : 		iterator _Last = _Make_iter(_Last_arg);
; 1193 : 
; 1194 : 		if (_First != _Last)

  0000f	3b 45 10	 cmp	 eax, DWORD PTR __Last_arg$[ebp]
  00012	74 16		 je	 SHORT $LN1@erase@2

; 1195 : 			{	// worth doing, copy down over hole
; 1196 :  #if _ITERATOR_DEBUG_LEVEL == 2
; 1197 : 			if (_Last < _First || _VICONT(_First) != this
; 1198 : 				|| _VIPTR(_First) < this->_Myfirst
; 1199 : 				|| this->_Mylast < _VIPTR(_Last))
; 1200 : 				_DEBUG_ERROR("vector erase iterator outside range");
; 1201 : 			pointer _Ptr = _Move(_VIPTR(_Last), this->_Mylast,
; 1202 : 				_VIPTR(_First));
; 1203 : 			_Orphan_range(_VIPTR(_First), this->_Mylast);
; 1204 : 
; 1205 :  #else /* _ITERATOR_DEBUG_LEVEL == 2 */
; 1206 : 			pointer _Ptr = _Move(_VIPTR(_Last), this->_Mylast,
; 1207 : 				_VIPTR(_First));

  00014	ff 75 10	 push	 DWORD PTR __Cat$523330[ebp]
  00017	8b 4e 04	 mov	 ecx, DWORD PTR [esi+4]
  0001a	50		 push	 eax
  0001b	51		 push	 ecx
  0001c	ff 75 10	 push	 DWORD PTR __Last_arg$[ebp]
  0001f	e8 00 00 00 00	 call	 ??$_Move@PAHPAH@std@@YAPAHPAH00U_Scalar_ptr_iterator_tag@0@@Z ; std::_Move<int *,int *>
  00024	83 c4 10	 add	 esp, 16			; 00000010H

; 1208 :  #endif /* _ITERATOR_DEBUG_LEVEL == 2 */
; 1209 : 
; 1210 : 			_Destroy(_Ptr, this->_Mylast);
; 1211 : 			this->_Mylast = _Ptr;

  00027	89 46 04	 mov	 DWORD PTR [esi+4], eax
$LN1@erase@2:

; 1212 : 			}
; 1213 : 		return (_First);

  0002a	8b c7		 mov	 eax, edi
  0002c	5f		 pop	 edi
  0002d	5e		 pop	 esi

; 1214 : 		}

  0002e	5d		 pop	 ebp
  0002f	c2 0c 00	 ret	 12			; 0000000cH
?erase@?$vector@HV?$allocator@H@std@@@std@@QAE?AV?$_Vector_iterator@V?$_Vector_val@HV?$allocator@H@std@@@std@@@2@V?$_Vector_const_iterator@V?$_Vector_val@HV?$allocator@H@std@@@std@@@2@0@Z ENDP ; std::vector<int,std::allocator<int> >::erase
_TEXT	ENDS
PUBLIC	?_Tidy@?$vector@HV?$allocator@H@std@@@std@@IAEXXZ ; std::vector<int,std::allocator<int> >::_Tidy
; Function compile flags: /Ogsp
;	COMDAT ?_Tidy@?$vector@HV?$allocator@H@std@@@std@@IAEXXZ
_TEXT	SEGMENT
?_Tidy@?$vector@HV?$allocator@H@std@@@std@@IAEXXZ PROC	; std::vector<int,std::allocator<int> >::_Tidy, COMDAT
; _this$ = ecx

; 1301 : 		{	// free all storage

  00000	56		 push	 esi
  00001	8b f1		 mov	 esi, ecx

; 1302 : 		if (this->_Myfirst != 0)

  00003	83 3e 00	 cmp	 DWORD PTR [esi], 0
  00006	74 0e		 je	 SHORT $LN12@Tidy@2

; 1303 : 			{	// something to free, destroy and deallocate it
; 1304 : 			this->_Orphan_all();

  00008	ff 15 00 00 00
	00		 call	 DWORD PTR __imp_?_Orphan_all@_Container_base0@std@@QAEXXZ

; 1305 : 			_Destroy(this->_Myfirst, this->_Mylast);
; 1306 : 			this->_Alval.deallocate(this->_Myfirst,
; 1307 : 				this->_Myend - this->_Myfirst);

  0000e	ff 36		 push	 DWORD PTR [esi]
  00010	e8 00 00 00 00	 call	 ??3@YAXPAX@Z		; operator delete
  00015	59		 pop	 ecx
$LN12@Tidy@2:

; 1308 : 			}
; 1309 : 		this->_Myfirst = 0;

  00016	83 26 00	 and	 DWORD PTR [esi], 0

; 1310 : 		this->_Mylast = 0;

  00019	83 66 04 00	 and	 DWORD PTR [esi+4], 0

; 1311 : 		this->_Myend = 0;

  0001d	83 66 08 00	 and	 DWORD PTR [esi+8], 0
  00021	5e		 pop	 esi

; 1312 : 		}

  00022	c3		 ret	 0
?_Tidy@?$vector@HV?$allocator@H@std@@@std@@IAEXXZ ENDP	; std::vector<int,std::allocator<int> >::_Tidy
_TEXT	ENDS
PUBLIC	?reserve@?$vector@HV?$allocator@H@std@@@std@@QAEXI@Z ; std::vector<int,std::allocator<int> >::reserve
; Function compile flags: /Ogsp
;	COMDAT ?reserve@?$vector@HV?$allocator@H@std@@@std@@QAEXI@Z
_TEXT	SEGMENT
__Count$ = 8						; size = 4
?reserve@?$vector@HV?$allocator@H@std@@@std@@QAEXI@Z PROC ; std::vector<int,std::allocator<int> >::reserve, COMDAT
; _this$ = ecx

; 746  : 		{	// determine new minimum length of allocated storage

  00000	55		 push	 ebp
  00001	8b ec		 mov	 ebp, esp

; 747  : 		if (max_size() < _Count)

  00003	81 7d 08 ff ff
	ff 3f		 cmp	 DWORD PTR __Count$[ebp], 1073741823 ; 3fffffffH
  0000a	56		 push	 esi
  0000b	8b f1		 mov	 esi, ecx
  0000d	76 0b		 jbe	 SHORT $LN5@reserve

; 748  : 			_Xlen();	// result too long

  0000f	68 00 00 00 00	 push	 OFFSET ??_C@_0BD@OLBABOEK@vector?$DMT?$DO?5too?5long?$AA@
  00014	ff 15 00 00 00
	00		 call	 DWORD PTR __imp_?_Xlength_error@std@@YAXPBD@Z
$LN43@reserve:
$LN5@reserve:

; 749  : 		else if (capacity() < _Count)

  0001a	8b 46 08	 mov	 eax, DWORD PTR [esi+8]
  0001d	2b 06		 sub	 eax, DWORD PTR [esi]
  0001f	c1 f8 02	 sar	 eax, 2
  00022	3b 45 08	 cmp	 eax, DWORD PTR __Count$[ebp]
  00025	73 52		 jae	 SHORT $LN3@reserve

; 750  : 			{	// not enough room, reallocate
; 751  : 			pointer _Ptr = this->_Alval.allocate(_Count);

  00027	53		 push	 ebx
  00028	57		 push	 edi
  00029	6a 00		 push	 0
  0002b	ff 75 08	 push	 DWORD PTR __Count$[ebp]
  0002e	e8 00 00 00 00	 call	 ??$_Allocate@H@std@@YAPAHIPAH@Z ; std::_Allocate<int>

; 752  : 
; 753  : 			_TRY_BEGIN
; 754  : 			_Umove(this->_Myfirst, this->_Mylast, _Ptr);

  00033	8b 0e		 mov	 ecx, DWORD PTR [esi]
  00035	8d 56 0c	 lea	 edx, DWORD PTR [esi+12]
  00038	52		 push	 edx
  00039	8b d8		 mov	 ebx, eax
  0003b	8b 46 04	 mov	 eax, DWORD PTR [esi+4]
  0003e	53		 push	 ebx
  0003f	50		 push	 eax
  00040	51		 push	 ecx
  00041	e8 00 00 00 00	 call	 ??$_Uninitialized_move@PAHPAHV?$allocator@H@std@@@std@@YAPAHPAH00AAV?$allocator@H@0@@Z ; std::_Uninitialized_move<int *,int *,std::allocator<int> >

; 755  : 			_CATCH_ALL
; 756  : 			this->_Alval.deallocate(_Ptr, _Count);
; 757  : 			_RERAISE;
; 758  : 			_CATCH_END
; 759  : 
; 760  : 			size_type _Size = size();

  00046	8b 06		 mov	 eax, DWORD PTR [esi]
  00048	8b 7e 04	 mov	 edi, DWORD PTR [esi+4]
  0004b	2b f8		 sub	 edi, eax
  0004d	83 c4 18	 add	 esp, 24			; 00000018H
  00050	c1 ff 02	 sar	 edi, 2

; 761  : 			if (this->_Myfirst != 0)

  00053	85 c0		 test	 eax, eax
  00055	74 07		 je	 SHORT $LN39@reserve

; 762  : 				{	// destroy and deallocate old array
; 763  : 				_Destroy(this->_Myfirst, this->_Mylast);
; 764  : 				this->_Alval.deallocate(this->_Myfirst,
; 765  : 					this->_Myend - this->_Myfirst);

  00057	50		 push	 eax
  00058	e8 00 00 00 00	 call	 ??3@YAXPAX@Z		; operator delete
  0005d	59		 pop	 ecx
$LN39@reserve:

; 766  : 				}
; 767  : 
; 768  : 			this->_Orphan_all();

  0005e	8b ce		 mov	 ecx, esi
  00060	ff 15 00 00 00
	00		 call	 DWORD PTR __imp_?_Orphan_all@_Container_base0@std@@QAEXXZ

; 769  : 			this->_Myend = _Ptr + _Count;

  00066	8b 45 08	 mov	 eax, DWORD PTR __Count$[ebp]
  00069	8d 04 83	 lea	 eax, DWORD PTR [ebx+eax*4]
  0006c	89 46 08	 mov	 DWORD PTR [esi+8], eax

; 770  : 			this->_Mylast = _Ptr + _Size;

  0006f	8d 04 bb	 lea	 eax, DWORD PTR [ebx+edi*4]
  00072	5f		 pop	 edi

; 771  : 			this->_Myfirst = _Ptr;

  00073	89 1e		 mov	 DWORD PTR [esi], ebx
  00075	89 46 04	 mov	 DWORD PTR [esi+4], eax
  00078	5b		 pop	 ebx
$LN3@reserve:
  00079	5e		 pop	 esi

; 772  : 			}
; 773  : 		}

  0007a	5d		 pop	 ebp
  0007b	c2 04 00	 ret	 4
$LN42@reserve:
?reserve@?$vector@HV?$allocator@H@std@@@std@@QAEXI@Z ENDP ; std::vector<int,std::allocator<int> >::reserve
_TEXT	ENDS
PUBLIC	??$_Dest_val@V?$allocator@VioHashString@@@std@@VioHashString@@@std@@YAXAAV?$allocator@VioHashString@@@0@PAVioHashString@@@Z ; std::_Dest_val<std::allocator<ioHashString>,ioHashString>
; Function compile flags: /Ogsp
; File c:\program files (x86)\microsoft visual studio 10.0\vc\include\xmemory
;	COMDAT ??$_Dest_val@V?$allocator@VioHashString@@@std@@VioHashString@@@std@@YAXAAV?$allocator@VioHashString@@@0@PAVioHashString@@@Z
_TEXT	SEGMENT
__Alval$ = 8						; size = 4
__Pdest$ = 12						; size = 4
??$_Dest_val@V?$allocator@VioHashString@@@std@@VioHashString@@@std@@YAXAAV?$allocator@VioHashString@@@0@PAVioHashString@@@Z PROC ; std::_Dest_val<std::allocator<ioHashString>,ioHashString>, COMDAT

; 286  : 	{	// destroy using allocator

  00000	55		 push	 ebp
  00001	8b ec		 mov	 ebp, esp

; 287  : 	_Alval.destroy(_Pdest);

  00003	8b 4d 0c	 mov	 ecx, DWORD PTR __Pdest$[ebp]

; 288  : 	}

  00006	5d		 pop	 ebp

; 287  : 	_Alval.destroy(_Pdest);

  00007	ff 25 00 00 00
	00		 jmp	 DWORD PTR __imp_??1ioHashString@@QAE@XZ
??$_Dest_val@V?$allocator@VioHashString@@@std@@VioHashString@@@std@@YAXAAV?$allocator@VioHashString@@@0@PAVioHashString@@@Z ENDP ; std::_Dest_val<std::allocator<ioHashString>,ioHashString>
_TEXT	ENDS
PUBLIC	__$ArrayPad$
PUBLIC	?RollingIcon@GashaponWnd@@IAEXM@Z		; GashaponWnd::RollingIcon
EXTRN	??1SP2Packet@@UAE@XZ:PROC			; SP2Packet::~SP2Packet
EXTRN	?SendToServer@TCPNetwork@@YAXAAVSP2Packet@@@Z:PROC ; TCPNetwork::SendToServer
EXTRN	??6SP2Packet@@QAEAAV0@F@Z:PROC			; SP2Packet::operator<<
EXTRN	??6SP2Packet@@QAEAAV0@ABVioHashString@@@Z:PROC	; SP2Packet::operator<<
EXTRN	??6SP2Packet@@QAEAAV0@H@Z:PROC			; SP2Packet::operator<<
EXTRN	??0SP2Packet@@QAE@K@Z:PROC			; SP2Packet::SP2Packet
EXTRN	?UpdateTab@MyInventoryWnd@@QAEX_N00@Z:PROC	; MyInventoryWnd::UpdateTab
EXTRN	?PlaySoundA@ioExtendSoundManager@@QAEXW4ExSoundType@ExSound@@@Z:PROC ; ioExtendSoundManager::PlaySoundA
EXTRN	?IsSound@ioExtendSoundManager@@QAE_NW4ExSoundType@ExSound@@@Z:PROC ; ioExtendSoundManager::IsSound
EXTRN	?GetSingleton@ioExtendSoundManager@@SAAAV1@XZ:PROC ; ioExtendSoundManager::GetSingleton
EXTRN	__chkstk:PROC
;	COMDAT xdata$x
; File c:\program files (x86)\microsoft visual studio 10.0\vc\include\vector
xdata$x	SEGMENT
__unwindtable$?RollingIcon@GashaponWnd@@IAEXM@Z DD 0ffffffffH
	DD	FLAT:__unwindfunclet$?RollingIcon@GashaponWnd@@IAEXM@Z$0
	DD	0ffffffffH
	DD	FLAT:__unwindfunclet$?RollingIcon@GashaponWnd@@IAEXM@Z$1
__ehfuncinfo$?RollingIcon@GashaponWnd@@IAEXM@Z DD 019930522H
	DD	02H
	DD	FLAT:__unwindtable$?RollingIcon@GashaponWnd@@IAEXM@Z
	DD	2 DUP(00H)
	DD	2 DUP(00H)
	DD	00H
	DD	01H
; Function compile flags: /Ogsp
; File d:\lost saga for developer\youtube\tutorial\source\src\lsclient\gui\gashaponwnd.cpp
xdata$x	ENDS
;	COMDAT ?RollingIcon@GashaponWnd@@IAEXM@Z
_TEXT	SEGMENT
_szCurIcon$515580 = -32836				; size = 16
$T523508 = -32820					; size = 8
tv776 = -32816						; size = 4
tv771 = -32816						; size = 4
tv790 = -32812						; size = 4
tv785 = -32812						; size = 4
tv782 = -32812						; size = 4
tv721 = -32812						; size = 4
_fScaleRate$515533 = -32812				; size = 4
_fScale$515529 = -32812					; size = 4
_kPacket$515568 = -32808				; size = 32792
__$ArrayPad$ = -16					; size = 4
__$EHRec$ = -12						; size = 12
_fTimePerSec$ = 8					; size = 4
?RollingIcon@GashaponWnd@@IAEXM@Z PROC			; GashaponWnd::RollingIcon, COMDAT
; _this$ = ecx

; 291  : {

  00000	55		 push	 ebp
  00001	8b ec		 mov	 ebp, esp
  00003	6a ff		 push	 -1
  00005	68 00 00 00 00	 push	 __ehhandler$?RollingIcon@GashaponWnd@@IAEXM@Z
  0000a	64 a1 00 00 00
	00		 mov	 eax, DWORD PTR fs:0
  00010	50		 push	 eax
  00011	b8 38 80 00 00	 mov	 eax, 32824		; 00008038H
  00016	e8 00 00 00 00	 call	 __chkstk
  0001b	a1 00 00 00 00	 mov	 eax, DWORD PTR ___security_cookie
  00020	33 c5		 xor	 eax, ebp
  00022	89 45 f0	 mov	 DWORD PTR __$ArrayPad$[ebp], eax
  00025	53		 push	 ebx
  00026	56		 push	 esi
  00027	57		 push	 edi
  00028	50		 push	 eax
  00029	8d 45 f4	 lea	 eax, DWORD PTR __$EHRec$[ebp]
  0002c	64 a3 00 00 00
	00		 mov	 DWORD PTR fs:0, eax
  00032	8b f1		 mov	 esi, ecx

; 292  : 	DWORD dwCurTime = FRAMEGETTIME();

  00034	ff 15 00 00 00
	00		 call	 DWORD PTR __imp_?GetSingleton@ioFrameTimer@@SAAAV1@XZ
  0003a	8b c8		 mov	 ecx, eax
  0003c	ff 15 00 00 00
	00		 call	 DWORD PTR __imp_?GetLoopSec@ioFrameTimer@@QBEKXZ

; 293  : 
; 294  : 	if( m_bResult && m_dwRollingEndTime < dwCurTime  )			// RollingEnd

  00042	80 be 88 83 03
	00 00		 cmp	 BYTE PTR [esi+230280], 0
  00049	8b d8		 mov	 ebx, eax
  0004b	0f 84 57 03 00
	00		 je	 $LN37@RollingIco
  00051	39 9e a4 83 03
	00		 cmp	 DWORD PTR [esi+230308], ebx
  00057	0f 83 4b 03 00
	00		 jae	 $LN37@RollingIco

; 295  : 	{
; 296  : 		// Icon 
; 297  : 		if( !m_bFinalResult )		//    

  0005d	80 be 89 83 03
	00 00		 cmp	 BYTE PTR [esi+230281], 0
  00064	75 0d		 jne	 SHORT $LN36@RollingIco

; 298  : 		{
; 299  : 			SetPresentIcon();

  00066	8b ce		 mov	 ecx, esi
  00068	e8 00 00 00 00	 call	 ?SetPresentIcon@GashaponWnd@@IAEXXZ ; GashaponWnd::SetPresentIcon

; 300  : 			m_dwScaleStartTime = dwCurTime;

  0006d	89 9e a8 83 03
	00		 mov	 DWORD PTR [esi+230312], ebx
$LN36@RollingIco:

; 301  : 		}
; 302  : 
; 303  : 		// IconScale 
; 304  : 		float fScale = FLOAT1;

  00073	b8 01 00 00 00	 mov	 eax, 1
  00078	89 85 d4 7f ff
	ff		 mov	 DWORD PTR tv790[ebp], eax
  0007e	db 85 d4 7f ff
	ff		 fild	 DWORD PTR tv790[ebp]
  00084	85 c0		 test	 eax, eax
  00086	79 06		 jns	 SHORT $LN69@RollingIco
  00088	d8 05 00 00 00
	00		 fadd	 DWORD PTR __real@4f800000
$LN69@RollingIco:

; 305  : 		m_fGradeScale = 1.0f;
; 306  : 		DWORD dwGapTime = dwCurTime - m_dwScaleStartTime;

  0008e	2b 9e a8 83 03
	00		 sub	 ebx, DWORD PTR [esi+230312]
  00094	d9 9d d4 7f ff
	ff		 fstp	 DWORD PTR _fScale$515529[ebp]

; 307  : 		if( dwGapTime < m_dwIconScaleTime )

  0009a	8b 86 90 83 03
	00		 mov	 eax, DWORD PTR [esi+230288]
  000a0	f3 0f 10 05 00
	00 00 00	 movss	 xmm0, DWORD PTR __real@3f800000
  000a8	f3 0f 11 86 18
	a7 04 00	 movss	 DWORD PTR [esi+304920], xmm0
  000b0	3b d8		 cmp	 ebx, eax
  000b2	0f 83 92 00 00
	00		 jae	 $LN35@RollingIco

; 308  : 		{
; 309  : 			float fScaleRate = (float)dwGapTime / (float)m_dwIconScaleTime;

  000b8	89 9d d4 7f ff
	ff		 mov	 DWORD PTR tv785[ebp], ebx
  000be	db 85 d4 7f ff
	ff		 fild	 DWORD PTR tv785[ebp]
  000c4	85 db		 test	 ebx, ebx
  000c6	79 06		 jns	 SHORT $LN70@RollingIco
  000c8	d8 05 00 00 00
	00		 fadd	 DWORD PTR __real@4f800000
$LN70@RollingIco:
  000ce	89 85 d4 7f ff
	ff		 mov	 DWORD PTR tv782[ebp], eax
  000d4	db 85 d4 7f ff
	ff		 fild	 DWORD PTR tv782[ebp]
  000da	85 c0		 test	 eax, eax
  000dc	79 06		 jns	 SHORT $LN71@RollingIco
  000de	d8 05 00 00 00
	00		 fadd	 DWORD PTR __real@4f800000
$LN71@RollingIco:
  000e4	de f9		 fdivp	 ST(1), ST(0)
  000e6	d9 9d d4 7f ff
	ff		 fstp	 DWORD PTR _fScaleRate$515533[ebp]

; 310  : 			fScale = m_fIconScale * ( FLOAT1 - fScaleRate ) + FLOAT1 * fScaleRate;

  000ec	b8 01 00 00 00	 mov	 eax, 1
  000f1	8b c8		 mov	 ecx, eax
  000f3	b8 01 00 00 00	 mov	 eax, 1
  000f8	89 8d d0 7f ff
	ff		 mov	 DWORD PTR tv776[ebp], ecx
  000fe	db 85 d0 7f ff
	ff		 fild	 DWORD PTR tv776[ebp]
  00104	85 c9		 test	 ecx, ecx
  00106	79 06		 jns	 SHORT $LN72@RollingIco
  00108	d8 05 00 00 00
	00		 fadd	 DWORD PTR __real@4f800000
$LN72@RollingIco:
  0010e	d8 a5 d4 7f ff
	ff		 fsub	 DWORD PTR _fScaleRate$515533[ebp]
  00114	89 85 d0 7f ff
	ff		 mov	 DWORD PTR tv771[ebp], eax
  0011a	d8 8e 8c 83 03
	00		 fmul	 DWORD PTR [esi+230284]
  00120	db 85 d0 7f ff
	ff		 fild	 DWORD PTR tv771[ebp]
  00126	85 c0		 test	 eax, eax
  00128	79 06		 jns	 SHORT $LN73@RollingIco
  0012a	d8 05 00 00 00
	00		 fadd	 DWORD PTR __real@4f800000
$LN73@RollingIco:
  00130	d8 8d d4 7f ff
	ff		 fmul	 DWORD PTR _fScaleRate$515533[ebp]
  00136	de c1		 faddp	 ST(1), ST(0)
  00138	d9 9d d4 7f ff
	ff		 fstp	 DWORD PTR _fScale$515529[ebp]

; 311  : 			m_fGradeScale = fScale;

  0013e	d9 85 d4 7f ff
	ff		 fld	 DWORD PTR _fScale$515529[ebp]
  00144	d9 9e 18 a7 04
	00		 fstp	 DWORD PTR [esi+304920]
$LN35@RollingIco:

; 312  : 		}
; 313  : 
; 314  : 		if( m_pIcon )

  0014a	8b 8e 60 01 00
	00		 mov	 ecx, DWORD PTR [esi+352]
  00150	85 c9		 test	 ecx, ecx
  00152	74 13		 je	 SHORT $LN34@RollingIco

; 315  : 			m_pIcon->SetScale( fScale );

  00154	f3 0f 10 85 d4
	7f ff ff	 movss	 xmm0, DWORD PTR _fScale$515529[ebp]
  0015c	8b 01		 mov	 eax, DWORD PTR [ecx]
  0015e	51		 push	 ecx
  0015f	f3 0f 11 04 24	 movss	 DWORD PTR [esp], xmm0
  00164	ff 50 1c	 call	 DWORD PTR [eax+28]
$LN34@RollingIco:

; 316  : 
; 317  : 		if ( m_pCostumeMark )

  00167	8b 8e 70 01 00
	00		 mov	 ecx, DWORD PTR [esi+368]
  0016d	85 c9		 test	 ecx, ecx
  0016f	74 13		 je	 SHORT $LN33@RollingIco

; 318  : 			m_pCostumeMark->SetScale( fScale );

  00171	f3 0f 10 85 d4
	7f ff ff	 movss	 xmm0, DWORD PTR _fScale$515529[ebp]
  00179	8b 01		 mov	 eax, DWORD PTR [ecx]
  0017b	51		 push	 ecx
  0017c	f3 0f 11 04 24	 movss	 DWORD PTR [esp], xmm0
  00181	ff 50 1c	 call	 DWORD PTR [eax+28]
$LN33@RollingIco:

; 319  : 
; 320  : 		if( !m_bFinalResult )

  00184	80 be 89 83 03
	00 00		 cmp	 BYTE PTR [esi+230281], 0
  0018b	0f 85 6c 03 00
	00		 jne	 $LN6@RollingIco

; 321  : 		{
; 322  : 			m_bFinalResult = true;
; 323  : 			ReBatchButton( RESULT_BTN );

  00191	6a 02		 push	 2
  00193	8b ce		 mov	 ecx, esi
  00195	c6 86 89 83 03
	00 01		 mov	 BYTE PTR [esi+230281], 1
  0019c	e8 00 00 00 00	 call	 ?ReBatchButton@GashaponWnd@@IAEXH@Z ; GashaponWnd::ReBatchButton

; 324  : 
; 325  : 			if( !m_szRollingSound.IsEmpty() )

  001a1	8d 9e b8 83 03
	00		 lea	 ebx, DWORD PTR [esi+230328]
  001a7	8b cb		 mov	 ecx, ebx
  001a9	ff 15 00 00 00
	00		 call	 DWORD PTR __imp_?IsEmpty@ioHashString@@QBE_NXZ
  001af	8b 3d 00 00 00
	00		 mov	 edi, DWORD PTR __imp_?GetSingleton@ioSoundManager@@SAAAV1@XZ
  001b5	84 c0		 test	 al, al
  001b7	75 0d		 jne	 SHORT $LN31@RollingIco

; 326  : 				g_SoundMgr.StopSound( m_szRollingSound, 0 );

  001b9	6a 00		 push	 0
  001bb	53		 push	 ebx
  001bc	ff d7		 call	 edi
  001be	8b c8		 mov	 ecx, eax
  001c0	ff 15 00 00 00
	00		 call	 DWORD PTR __imp_?StopSound@ioSoundManager@@QAEXABVioHashString@@K@Z
$LN31@RollingIco:

; 327  : 
; 328  : 			if( g_ExSoundMgr.IsSound( ExSound::EST_GASHAPON_GET ) )

  001c6	6a 0a		 push	 10			; 0000000aH
  001c8	e8 00 00 00 00	 call	 ?GetSingleton@ioExtendSoundManager@@SAAAV1@XZ ; ioExtendSoundManager::GetSingleton
  001cd	8b c8		 mov	 ecx, eax
  001cf	e8 00 00 00 00	 call	 ?IsSound@ioExtendSoundManager@@QAE_NW4ExSoundType@ExSound@@@Z ; ioExtendSoundManager::IsSound
  001d4	84 c0		 test	 al, al
  001d6	74 10		 je	 SHORT $LN30@RollingIco

; 329  : 			{
; 330  : 				g_ExSoundMgr.PlaySound( ExSound::EST_GASHAPON_GET );

  001d8	6a 0a		 push	 10			; 0000000aH
  001da	e8 00 00 00 00	 call	 ?GetSingleton@ioExtendSoundManager@@SAAAV1@XZ ; ioExtendSoundManager::GetSingleton
  001df	8b c8		 mov	 ecx, eax
  001e1	e8 00 00 00 00	 call	 ?PlaySoundA@ioExtendSoundManager@@QAEXW4ExSoundType@ExSound@@@Z ; ioExtendSoundManager::PlaySoundA

; 331  : 			}
; 332  : 			else

  001e6	eb 21		 jmp	 SHORT $LN28@RollingIco
$LN30@RollingIco:

; 333  : 			{
; 334  : 				if( !m_szResultSound.IsEmpty() )

  001e8	8d 9e c8 83 03
	00		 lea	 ebx, DWORD PTR [esi+230344]
  001ee	8b cb		 mov	 ecx, ebx
  001f0	ff 15 00 00 00
	00		 call	 DWORD PTR __imp_?IsEmpty@ioHashString@@QBE_NXZ
  001f6	84 c0		 test	 al, al
  001f8	75 0f		 jne	 SHORT $LN28@RollingIco

; 335  : 					g_SoundMgr.PlaySound( m_szResultSound );

  001fa	6a 04		 push	 4
  001fc	6a 00		 push	 0
  001fe	53		 push	 ebx
  001ff	ff d7		 call	 edi
  00201	8b c8		 mov	 ecx, eax
  00203	ff 15 00 00 00
	00		 call	 DWORD PTR __imp_?PlaySoundA@ioSoundManager@@QAEKABVioHashString@@HK@Z
$LN28@RollingIco:

; 336  : 			}
; 337  : 
; 338  : 			m_iCurEffectArray = -1;

  00209	83 8e ac 83 03
	00 ff		 or	 DWORD PTR [esi+230316], -1

; 339  : 			m_dwRollingEffectCheckTime = 0;

  00210	33 db		 xor	 ebx, ebx

; 340  : 
; 341  : 			//  
; 342  : 			MyInventoryWnd *pMyInventoryWnd = dynamic_cast<MyInventoryWnd*>( g_GUIMgr.FindWnd( MY_INVENTORY_WND ) );

  00212	53		 push	 ebx
  00213	68 00 00 00 00	 push	 OFFSET ??_R0?AVMyInventoryWnd@@@8
  00218	68 00 00 00 00	 push	 OFFSET ??_R0?AVioWnd@@@8
  0021d	53		 push	 ebx
  0021e	68 96 17 00 00	 push	 6038			; 00001796H
  00223	89 9e b4 83 03
	00		 mov	 DWORD PTR [esi+230324], ebx
  00229	e8 00 00 00 00	 call	 ?GetSingleton@ioSP2GUIManager@@SAAAV1@XZ ; ioSP2GUIManager::GetSingleton
  0022e	8b c8		 mov	 ecx, eax
  00230	ff 15 00 00 00
	00		 call	 DWORD PTR __imp_?FindWnd@ioGUIManager@@QAEPAVioWnd@@K@Z
  00236	50		 push	 eax
  00237	e8 00 00 00 00	 call	 ___RTDynamicCast
  0023c	8b f8		 mov	 edi, eax
  0023e	83 c4 14	 add	 esp, 20			; 00000014H

; 343  : 			if( pMyInventoryWnd && pMyInventoryWnd->IsShowPresentTab() )

  00241	3b fb		 cmp	 edi, ebx
  00243	74 16		 je	 SHORT $LN27@RollingIco
  00245	8b cf		 mov	 ecx, edi
  00247	e8 00 00 00 00	 call	 ?IsShowPresentTab@MyInventoryWnd@@QAE_NXZ ; MyInventoryWnd::IsShowPresentTab
  0024c	84 c0		 test	 al, al
  0024e	74 0b		 je	 SHORT $LN27@RollingIco

; 344  : 				pMyInventoryWnd->UpdateTab( false, false );

  00250	6a 01		 push	 1
  00252	53		 push	 ebx
  00253	53		 push	 ebx
  00254	8b cf		 mov	 ecx, edi
  00256	e8 00 00 00 00	 call	 ?UpdateTab@MyInventoryWnd@@QAEX_N00@Z ; MyInventoryWnd::UpdateTab
$LN27@RollingIco:

; 345  : 
; 346  : 			if( m_bAlarm )

  0025b	38 9e 80 83 03
	00		 cmp	 BYTE PTR [esi+230272], bl
  00261	0f 84 96 02 00
	00		 je	 $LN6@RollingIco

; 347  : 			{
; 348  : 				int iMsgType = UDP_SERVER_ALARM_GASHAPON1_PRESENT;
; 349  : 				if( m_dwEtcItemType == ioEtcItem::EIT_ETC_GASHAPON )

  00267	8b 86 08 a7 04
	00		 mov	 eax, DWORD PTR [esi+304904]
  0026d	6a 11		 push	 17			; 00000011H
  0026f	5f		 pop	 edi
  00270	3d 56 42 0f 00	 cmp	 eax, 1000022		; 000f4256H

; 350  : 				{
; 351  : 					iMsgType = UDP_SERVER_ALARM_GASHAPON1_PRESENT;

  00275	0f 84 b4 00 00
	00		 je	 $LN9@RollingIco

; 352  : 				}
; 353  : 				else if( COMPARE( m_dwEtcItemType, ioEtcItem::EIT_ETC_GASHAPON2, ioEtcItem::EIT_ETC_GASHAPON13 + 1 ) )

  0027b	3d 62 42 0f 00	 cmp	 eax, 1000034		; 000f4262H
  00280	72 12		 jb	 SHORT $LN23@RollingIco
  00282	3d 6e 42 0f 00	 cmp	 eax, 1000046		; 000f426eH
  00287	73 0b		 jae	 SHORT $LN23@RollingIco

; 354  : 				{
; 355  : 					iMsgType = UDP_SERVER_ALARM_GASHAPON2_PRESENT + ( m_dwEtcItemType - ioEtcItem::EIT_ETC_GASHAPON2 );

  00289	8d b8 b0 bd f0
	ff		 lea	 edi, DWORD PTR [eax-1000016]
  0028f	e9 9b 00 00 00	 jmp	 $LN9@RollingIco
$LN23@RollingIco:

; 356  : 				}
; 357  : 				else if( COMPARE( m_dwEtcItemType, ioEtcItem::EIT_ETC_GASHAPON14, ioEtcItem::EIT_ETC_GASHAPON53 + 1 ) )

  00294	3d 75 42 0f 00	 cmp	 eax, 1000053		; 000f4275H
  00299	72 12		 jb	 SHORT $LN21@RollingIco
  0029b	3d 9d 42 0f 00	 cmp	 eax, 1000093		; 000f429dH
  002a0	73 0b		 jae	 SHORT $LN21@RollingIco

; 358  : 				{
; 359  : 					iMsgType = UDP_SERVER_ALARM_GASHAPON14_PRESENT + ( m_dwEtcItemType - ioEtcItem::EIT_ETC_GASHAPON14 );

  002a2	8d b8 a9 bd f0
	ff		 lea	 edi, DWORD PTR [eax-1000023]
  002a8	e9 82 00 00 00	 jmp	 $LN9@RollingIco
$LN21@RollingIco:

; 360  : 				}
; 361  : 				else if( COMPARE( m_dwEtcItemType, ioEtcItem::EIT_ETC_GASHAPON54, ioEtcItem::EIT_ETC_GASHAPON253 + 1 ) )

  002ad	3d 4d 44 0f 00	 cmp	 eax, 1000525		; 000f444dH
  002b2	72 0f		 jb	 SHORT $LN19@RollingIco
  002b4	3d 15 45 0f 00	 cmp	 eax, 1000725		; 000f4515H
  002b9	73 08		 jae	 SHORT $LN19@RollingIco

; 362  : 				{
; 363  : 					iMsgType = UDP_SERVER_ALARM_GASHAPON54_PRESENT + ( m_dwEtcItemType - ioEtcItem::EIT_ETC_GASHAPON54 );

  002bb	8d b8 fa bb f0
	ff		 lea	 edi, DWORD PTR [eax-1000454]
  002c1	eb 6c		 jmp	 SHORT $LN9@RollingIco
$LN19@RollingIco:

; 364  : 				}
; 365  : 				else if( COMPARE( m_dwEtcItemType, ioEtcItem::EIT_ETC_GASHAPON254, ioEtcItem::EIT_ETC_GASHAPON553 + 1 ) )

  002c3	3d 0a 50 0f 00	 cmp	 eax, 1003530		; 000f500aH
  002c8	72 0f		 jb	 SHORT $LN17@RollingIco
  002ca	3d 36 51 0f 00	 cmp	 eax, 1003830		; 000f5136H
  002cf	73 08		 jae	 SHORT $LN17@RollingIco

; 366  : 				{
; 367  : 					iMsgType = UDP_SERVER_ALARM_GASHAPON254_PRESENT + ( m_dwEtcItemType - ioEtcItem::EIT_ETC_GASHAPON254 );

  002d1	8d b8 35 b2 f0
	ff		 lea	 edi, DWORD PTR [eax-1002955]
  002d7	eb 56		 jmp	 SHORT $LN9@RollingIco
$LN17@RollingIco:

; 368  : 				}
; 369  : 				else if( COMPARE( m_dwEtcItemType, ioEtcItem::EIT_ETC_GASHAPON554, ioEtcItem::EIT_ETC_GASHAPON853 + 1 ) )

  002d9	3d 6f 59 0f 00	 cmp	 eax, 1005935		; 000f596fH
  002de	72 0f		 jb	 SHORT $LN15@RollingIco
  002e0	3d 9b 5a 0f 00	 cmp	 eax, 1006235		; 000f5a9bH
  002e5	73 08		 jae	 SHORT $LN15@RollingIco

; 370  : 				{
; 371  : 					iMsgType = UDP_SERVER_ALARM_GASHAPON554_PRESENT + ( m_dwEtcItemType - ioEtcItem::EIT_ETC_GASHAPON554 );

  002e7	8d b8 fd a9 f0
	ff		 lea	 edi, DWORD PTR [eax-1005059]
  002ed	eb 40		 jmp	 SHORT $LN9@RollingIco
$LN15@RollingIco:

; 372  : 				}
; 373  : 				else if( COMPARE( m_dwEtcItemType, ioEtcItem::EIT_ETC_ITEM_TIME_GASHAPON1, ioEtcItem::EIT_ETC_ITEM_TIME_GASHAPON100 + 1 ) )

  002ef	3d e9 4c 4c 00	 cmp	 eax, 5000425		; 004c4ce9H
  002f4	72 0f		 jb	 SHORT $LN13@RollingIco
  002f6	3d 4d 4d 4c 00	 cmp	 eax, 5000525		; 004c4d4dH
  002fb	73 08		 jae	 SHORT $LN13@RollingIco

; 374  : 				{
; 375  : 					iMsgType = UDP_SERVER_ALARM_TIME_GASHAPON1_PRESENT + ( m_dwEtcItemType - ioEtcItem::EIT_ETC_ITEM_TIME_GASHAPON1 );

  002fd	8d b8 26 b4 b3
	ff		 lea	 edi, DWORD PTR [eax-5000154]
  00303	eb 2a		 jmp	 SHORT $LN9@RollingIco
$LN13@RollingIco:

; 376  : 				}
; 377  : 				else if( COMPARE( m_dwEtcItemType, ioEtcItem::EIT_ETC_ITEM_TIME_GASHAPON101, ioEtcItem::EIT_ETC_ITEM_TIME_GASHAPON300 + 1 ) )

  00305	3d 36 5a 4c 00	 cmp	 eax, 5003830		; 004c5a36H
  0030a	72 0f		 jb	 SHORT $LN11@RollingIco
  0030c	3d fe 5a 4c 00	 cmp	 eax, 5004030		; 004c5afeH
  00311	73 08		 jae	 SHORT $LN11@RollingIco

; 378  : 				{
; 379  : 					iMsgType = UDP_SERVER_ALARM_TIME_GASHAPON101_PRESENT + ( m_dwEtcItemType - ioEtcItem::EIT_ETC_ITEM_TIME_GASHAPON101 );

  00313	8d b8 3f a7 b3
	ff		 lea	 edi, DWORD PTR [eax-5003457]
  00319	eb 14		 jmp	 SHORT $LN9@RollingIco
$LN11@RollingIco:

; 380  : 				}
; 381  : 				else if( COMPARE( m_dwEtcItemType, ioEtcItem::EIT_ETC_ITEM_TIME_GASHAPON301, ioEtcItem::EIT_ETC_ITEM_TIME_GASHAPON600 + 1 ) )

  0031b	3d 9b 63 4c 00	 cmp	 eax, 5006235		; 004c639bH
  00320	72 0d		 jb	 SHORT $LN9@RollingIco
  00322	3d c7 64 4c 00	 cmp	 eax, 5006535		; 004c64c7H
  00327	73 06		 jae	 SHORT $LN9@RollingIco

; 382  : 				{
; 383  : 					iMsgType = UDP_SERVER_ALARM_TIME_GASHAPON301_PRESENT + ( m_dwEtcItemType - ioEtcItem::EIT_ETC_ITEM_TIME_GASHAPON301 );

  00329	8d b8 fd a0 b3
	ff		 lea	 edi, DWORD PTR [eax-5005059]
$LN9@RollingIco:

; 384  : 				}
; 385  : 
; 386  : 				SP2Packet kPacket( CTPK_SERVER_ALARM_MSG );

  0032f	68 82 01 00 00	 push	 386			; 00000182H
  00334	8d 8d d8 7f ff
	ff		 lea	 ecx, DWORD PTR _kPacket$515568[ebp]
  0033a	e8 00 00 00 00	 call	 ??0SP2Packet@@QAE@K@Z	; SP2Packet::SP2Packet
  0033f	89 5d fc	 mov	 DWORD PTR __$EHRec$[ebp+8], ebx

; 387  : 				kPacket << iMsgType << g_MyInfo.GetPublicID() << m_iPresentType << m_iPresentValue1 << m_iPresentValue2;

  00342	e8 00 00 00 00	 call	 ?GetSingleton@ioMyInfo@@SAAAV1@XZ ; ioMyInfo::GetSingleton
  00347	ff b6 74 83 03
	00		 push	 DWORD PTR [esi+230260]
  0034d	0f b7 8e 6c 83
	03 00		 movzx	 ecx, WORD PTR [esi+230252]
  00354	ff b6 70 83 03
	00		 push	 DWORD PTR [esi+230256]
  0035a	83 c0 1c	 add	 eax, 28			; 0000001cH
  0035d	51		 push	 ecx
  0035e	50		 push	 eax
  0035f	57		 push	 edi
  00360	8d 8d d8 7f ff
	ff		 lea	 ecx, DWORD PTR _kPacket$515568[ebp]
  00366	e8 00 00 00 00	 call	 ??6SP2Packet@@QAEAAV0@H@Z ; SP2Packet::operator<<
  0036b	8b c8		 mov	 ecx, eax
  0036d	e8 00 00 00 00	 call	 ??6SP2Packet@@QAEAAV0@ABVioHashString@@@Z ; SP2Packet::operator<<
  00372	8b c8		 mov	 ecx, eax
  00374	e8 00 00 00 00	 call	 ??6SP2Packet@@QAEAAV0@F@Z ; SP2Packet::operator<<
  00379	8b c8		 mov	 ecx, eax
  0037b	e8 00 00 00 00	 call	 ??6SP2Packet@@QAEAAV0@H@Z ; SP2Packet::operator<<
  00380	8b c8		 mov	 ecx, eax
  00382	e8 00 00 00 00	 call	 ??6SP2Packet@@QAEAAV0@H@Z ; SP2Packet::operator<<

; 388  : 				TCPNetwork::SendToServer( kPacket );

  00387	8d 85 d8 7f ff
	ff		 lea	 eax, DWORD PTR _kPacket$515568[ebp]
  0038d	50		 push	 eax
  0038e	e8 00 00 00 00	 call	 ?SendToServer@TCPNetwork@@YAXAAVSP2Packet@@@Z ; TCPNetwork::SendToServer

; 389  : 			}

  00393	83 4d fc ff	 or	 DWORD PTR __$EHRec$[ebp+8], -1
  00397	59		 pop	 ecx
  00398	8d 8d d8 7f ff
	ff		 lea	 ecx, DWORD PTR _kPacket$515568[ebp]
  0039e	e8 00 00 00 00	 call	 ??1SP2Packet@@UAE@XZ	; SP2Packet::~SP2Packet

; 390  : 		}
; 391  : 	}

  003a3	e9 55 01 00 00	 jmp	 $LN6@RollingIco
$LN37@RollingIco:

; 392  : 	else if( (int)m_vIconList[GetGashaponArray()].size() > 0 )				// Rolling

  003a8	8b ce		 mov	 ecx, esi
  003aa	e8 00 00 00 00	 call	 ?GetGashaponArray@GashaponWnd@@IAEHXZ ; GashaponWnd::GetGashaponArray
  003af	03 c0		 add	 eax, eax
  003b1	8d 84 c6 78 01
	00 00		 lea	 eax, DWORD PTR [esi+eax*8+376]
  003b8	8b 48 04	 mov	 ecx, DWORD PTR [eax+4]
  003bb	2b 08		 sub	 ecx, DWORD PTR [eax]
  003bd	f7 c1 f0 ff ff
	ff		 test	 ecx, -16		; fffffff0H
  003c3	0f 8e 34 01 00
	00		 jle	 $LN6@RollingIco

; 393  : 	{
; 394  : 		if( m_dwRollingCheckTime == 0 || dwCurTime - m_dwRollingCheckTime > m_dwRollingTime )		// 

  003c9	8b 86 a0 83 03
	00		 mov	 eax, DWORD PTR [esi+230304]
  003cf	33 ff		 xor	 edi, edi
  003d1	3b c7		 cmp	 eax, edi
  003d3	74 10		 je	 SHORT $LN5@RollingIco
  003d5	8b cb		 mov	 ecx, ebx
  003d7	2b c8		 sub	 ecx, eax
  003d9	3b 8e 94 83 03
	00		 cmp	 ecx, DWORD PTR [esi+230292]
  003df	0f 86 18 01 00
	00		 jbe	 $LN6@RollingIco
$LN5@RollingIco:

; 395  : 		{
; 396  : 			SAFEDELETE( m_pIcon );

  003e5	8b 8e 60 01 00
	00		 mov	 ecx, DWORD PTR [esi+352]
  003eb	3b cf		 cmp	 ecx, edi
  003ed	74 0d		 je	 SHORT $LN4@RollingIco
  003ef	8b 01		 mov	 eax, DWORD PTR [ecx]
  003f1	6a 01		 push	 1
  003f3	ff 50 40	 call	 DWORD PTR [eax+64]
  003f6	89 be 60 01 00
	00		 mov	 DWORD PTR [esi+352], edi
$LN4@RollingIco:

; 397  : 
; 398  : 			m_iCurIconArray++;

  003fc	ff 86 9c 83 03
	00		 inc	 DWORD PTR [esi+230300]
  00402	8b 96 9c 83 03
	00		 mov	 edx, DWORD PTR [esi+230300]

; 399  : 
; 400  : 			if( !COMPARE( m_iCurIconArray, 0, (int)m_vIconList[GetGashaponArray()].size() ) )

  00408	78 1c		 js	 SHORT $LN2@RollingIco
  0040a	8b ce		 mov	 ecx, esi
  0040c	e8 00 00 00 00	 call	 ?GetGashaponArray@GashaponWnd@@IAEHXZ ; GashaponWnd::GetGashaponArray
  00411	03 c0		 add	 eax, eax
  00413	8d 84 c6 78 01
	00 00		 lea	 eax, DWORD PTR [esi+eax*8+376]
  0041a	8b 48 04	 mov	 ecx, DWORD PTR [eax+4]
  0041d	2b 08		 sub	 ecx, DWORD PTR [eax]
  0041f	c1 f9 04	 sar	 ecx, 4
  00422	3b d1		 cmp	 edx, ecx
  00424	7c 06		 jl	 SHORT $LN3@RollingIco
$LN2@RollingIco:

; 401  : 				m_iCurIconArray = 0;

  00426	89 be 9c 83 03
	00		 mov	 DWORD PTR [esi+230300], edi
$LN3@RollingIco:

; 402  : 
; 403  : 			ioHashString szCurIcon = m_vIconList[GetGashaponArray()][m_iCurIconArray];

  0042c	8b ce		 mov	 ecx, esi
  0042e	e8 00 00 00 00	 call	 ?GetGashaponArray@GashaponWnd@@IAEHXZ ; GashaponWnd::GetGashaponArray
  00433	03 c0		 add	 eax, eax
  00435	8d 8c c6 78 01
	00 00		 lea	 ecx, DWORD PTR [esi+eax*8+376]
  0043c	8b 86 9c 83 03
	00		 mov	 eax, DWORD PTR [esi+230300]
  00442	c1 e0 04	 shl	 eax, 4
  00445	03 01		 add	 eax, DWORD PTR [ecx]
  00447	8d 8d bc 7f ff
	ff		 lea	 ecx, DWORD PTR _szCurIcon$515580[ebp]
  0044d	50		 push	 eax
  0044e	ff 15 00 00 00
	00		 call	 DWORD PTR __imp_??0ioHashString@@QAE@ABV0@@Z

; 404  : 			if( !szCurIcon.IsEmpty() )

  00454	8d 8d bc 7f ff
	ff		 lea	 ecx, DWORD PTR _szCurIcon$515580[ebp]
  0045a	c7 45 fc 01 00
	00 00		 mov	 DWORD PTR __$EHRec$[ebp+8], 1
  00461	ff 15 00 00 00
	00		 call	 DWORD PTR __imp_?IsEmpty@ioHashString@@QBE_NXZ
  00467	84 c0		 test	 al, al
  00469	75 7c		 jne	 SHORT $LN1@RollingIco

; 405  : 			{
; 406  : 				m_pIcon = g_UIImageSetMgr.CreateImageByFullName( szCurIcon );

  0046b	8d 85 bc 7f ff
	ff		 lea	 eax, DWORD PTR _szCurIcon$515580[ebp]
  00471	57		 push	 edi
  00472	50		 push	 eax
  00473	ff 15 00 00 00
	00		 call	 DWORD PTR __imp_?GetSingleton@ioUIImageSetManager@@SAAAV1@XZ
  00479	8b c8		 mov	 ecx, eax
  0047b	ff 15 00 00 00
	00		 call	 DWORD PTR __imp_?CreateImageByFullName@ioUIImageSetManager@@QAEPAVioUIRenderImage@@ABVioHashString@@_N@Z

; 407  : 
; 408  : 				m_bIsCostume = m_vCostumeList[GetGashaponArray()][m_iCurIconArray];

  00481	8b be 9c 83 03
	00		 mov	 edi, DWORD PTR [esi+230300]
  00487	89 86 60 01 00
	00		 mov	 DWORD PTR [esi+352], eax
  0048d	57		 push	 edi
  0048e	8d 85 cc 7f ff
	ff		 lea	 eax, DWORD PTR $T523508[ebp]
  00494	50		 push	 eax
  00495	8b ce		 mov	 ecx, esi
  00497	e8 00 00 00 00	 call	 ?GetGashaponArray@GashaponWnd@@IAEHXZ ; GashaponWnd::GetGashaponArray
  0049c	6b c0 14	 imul	 eax, 20			; 00000014H
  0049f	8d 8c 30 88 62
	00 00		 lea	 ecx, DWORD PTR [eax+esi+25224]
  004a6	e8 00 00 00 00	 call	 ??A?$vector@_NV?$allocator@_N@std@@@std@@QAE?AV?$_Vb_reference@V?$allocator@_N@std@@@1@I@Z ; std::vector<bool,std::allocator<bool> >::operator[]
  004ab	8b 10		 mov	 edx, DWORD PTR [eax]
  004ad	33 c9		 xor	 ecx, ecx
  004af	41		 inc	 ecx
  004b0	89 8d d4 7f ff
	ff		 mov	 DWORD PTR tv721[ebp], ecx
  004b6	8b 48 04	 mov	 ecx, DWORD PTR [eax+4]
  004b9	8b 85 d4 7f ff
	ff		 mov	 eax, DWORD PTR tv721[ebp]
  004bf	d3 e0		 shl	 eax, cl

; 409  : 				m_nGradeType = m_vGradeTypeList[GetGashaponArray()][m_iCurIconArray];

  004c1	8b ce		 mov	 ecx, esi
  004c3	85 02		 test	 eax, DWORD PTR [edx]
  004c5	0f 95 c0	 setne	 al
  004c8	88 86 10 a7 04
	00		 mov	 BYTE PTR [esi+304912], al
  004ce	e8 00 00 00 00	 call	 ?GetGashaponArray@GashaponWnd@@IAEHXZ ; GashaponWnd::GetGashaponArray
  004d3	03 c0		 add	 eax, eax
  004d5	8d 84 c6 dc db
	00 00		 lea	 eax, DWORD PTR [esi+eax*8+56284]
  004dc	8b 00		 mov	 eax, DWORD PTR [eax]
  004de	8b 04 b8	 mov	 eax, DWORD PTR [eax+edi*4]
  004e1	89 86 14 a7 04
	00		 mov	 DWORD PTR [esi+304916], eax
$LN1@RollingIco:

; 410  : 			}
; 411  : 
; 412  : 			m_dwRollingCheckTime = dwCurTime;
; 413  : 		}

  004e7	83 4d fc ff	 or	 DWORD PTR __$EHRec$[ebp+8], -1
  004eb	8d 8d bc 7f ff
	ff		 lea	 ecx, DWORD PTR _szCurIcon$515580[ebp]
  004f1	89 9e a0 83 03
	00		 mov	 DWORD PTR [esi+230304], ebx
  004f7	ff 15 00 00 00
	00		 call	 DWORD PTR __imp_??1ioHashString@@QAE@XZ
$LN6@RollingIco:

; 414  : 	}
; 415  : }

  004fd	8b 4d f4	 mov	 ecx, DWORD PTR __$EHRec$[ebp]
  00500	64 89 0d 00 00
	00 00		 mov	 DWORD PTR fs:0, ecx
  00507	59		 pop	 ecx
  00508	5f		 pop	 edi
  00509	5e		 pop	 esi
  0050a	5b		 pop	 ebx
  0050b	8b 4d f0	 mov	 ecx, DWORD PTR __$ArrayPad$[ebp]
  0050e	33 cd		 xor	 ecx, ebp
  00510	e8 00 00 00 00	 call	 @__security_check_cookie@4
  00515	c9		 leave
  00516	c2 04 00	 ret	 4
_TEXT	ENDS
;	COMDAT text$x
text$x	SEGMENT
__unwindfunclet$?RollingIcon@GashaponWnd@@IAEXM@Z$0:
  00000	8d 8d d8 7f ff
	ff		 lea	 ecx, DWORD PTR _kPacket$515568[ebp]
  00006	e9 00 00 00 00	 jmp	 ??1SP2Packet@@UAE@XZ	; SP2Packet::~SP2Packet
__unwindfunclet$?RollingIcon@GashaponWnd@@IAEXM@Z$1:
  0000b	8d 8d bc 7f ff
	ff		 lea	 ecx, DWORD PTR _szCurIcon$515580[ebp]
  00011	ff 25 00 00 00
	00		 jmp	 DWORD PTR __imp_??1ioHashString@@QAE@XZ
__ehhandler$?RollingIcon@GashaponWnd@@IAEXM@Z:
  00017	8b 54 24 08	 mov	 edx, DWORD PTR [esp+8]
  0001b	8d 42 0c	 lea	 eax, DWORD PTR [edx+12]
  0001e	8b 8a b8 7f ff
	ff		 mov	 ecx, DWORD PTR [edx-32840]
  00024	33 c8		 xor	 ecx, eax
  00026	e8 00 00 00 00	 call	 @__security_check_cookie@4
  0002b	8b 4a fc	 mov	 ecx, DWORD PTR [edx-4]
  0002e	33 c8		 xor	 ecx, eax
  00030	e8 00 00 00 00	 call	 @__security_check_cookie@4
  00035	b8 00 00 00 00	 mov	 eax, OFFSET __ehfuncinfo$?RollingIcon@GashaponWnd@@IAEXM@Z
  0003a	e9 00 00 00 00	 jmp	 ___CxxFrameHandler3
text$x	ENDS
?RollingIcon@GashaponWnd@@IAEXM@Z ENDP			; GashaponWnd::RollingIcon
PUBLIC	?_Trim@?$vector@_NV?$allocator@_N@std@@@std@@QAEXI@Z ; std::vector<bool,std::allocator<bool> >::_Trim
; Function compile flags: /Ogsp
; File c:\program files (x86)\microsoft visual studio 10.0\vc\include\vector
;	COMDAT ?_Trim@?$vector@_NV?$allocator@_N@std@@@std@@QAEXI@Z
_TEXT	SEGMENT
$T523581 = 8						; size = 4
__Size$ = 8						; size = 4
?_Trim@?$vector@_NV?$allocator@_N@std@@@std@@QAEXI@Z PROC ; std::vector<bool,std::allocator<bool> >::_Trim, COMDAT
; _this$ = ecx

; 2609 : 		{	// trim base vector to exact length in bits

  00000	55		 push	 ebp
  00001	8b ec		 mov	 ebp, esp
  00003	53		 push	 ebx

; 2610 : 		if (max_size() < _Size)

  00004	8b 5d 08	 mov	 ebx, DWORD PTR __Size$[ebp]
  00007	56		 push	 esi
  00008	57		 push	 edi
  00009	8b f9		 mov	 edi, ecx
  0000b	83 fb ff	 cmp	 ebx, -1
  0000e	76 0b		 jbe	 SHORT $LN3@Trim

; 2611 : 			_Xlen();	// result too long

  00010	68 00 00 00 00	 push	 OFFSET ??_C@_0BG@EOMJEIFA@vector?$DMbool?$DO?5too?5long?$AA@
  00015	ff 15 00 00 00
	00		 call	 DWORD PTR __imp_?_Xlength_error@std@@YAXPBD@Z
$LN48@Trim:
$LN3@Trim:

; 2612 : 		size_type _Words = this->_Nw(_Size);
; 2613 : 
; 2614 : 		if (_Words < this->_Myvec.size())

  0001b	8b 4f 04	 mov	 ecx, DWORD PTR [edi+4]
  0001e	8b 07		 mov	 eax, DWORD PTR [edi]
  00020	8b d1		 mov	 edx, ecx
  00022	2b d0		 sub	 edx, eax
  00024	8d 73 1f	 lea	 esi, DWORD PTR [ebx+31]
  00027	c1 ee 05	 shr	 esi, 5
  0002a	c1 fa 02	 sar	 edx, 2
  0002d	3b f2		 cmp	 esi, edx
  0002f	73 10		 jae	 SHORT $LN2@Trim

; 2615 : 			this->_Myvec.erase(this->_Myvec.begin() + _Words,
; 2616 : 				this->_Myvec.end());

  00031	51		 push	 ecx
  00032	8d 04 b0	 lea	 eax, DWORD PTR [eax+esi*4]
  00035	50		 push	 eax
  00036	8d 45 08	 lea	 eax, DWORD PTR $T523581[ebp]
  00039	50		 push	 eax
  0003a	8b cf		 mov	 ecx, edi
  0003c	e8 00 00 00 00	 call	 ?erase@?$vector@IV?$allocator@I@std@@@std@@QAE?AV?$_Vector_iterator@V?$_Vector_val@IV?$allocator@I@std@@@std@@@2@V?$_Vector_const_iterator@V?$_Vector_val@IV?$allocator@I@std@@@std@@@2@0@Z ; std::vector<unsigned int,std::allocator<unsigned int> >::erase
$LN2@Trim:

; 2617 : 		this->_Mysize = _Size;

  00041	89 5f 10	 mov	 DWORD PTR [edi+16], ebx

; 2618 : 		_Size %= _VBITS;

  00044	83 e3 1f	 and	 ebx, 31			; 0000001fH

; 2619 : 		if (0 < _Size)

  00047	76 10		 jbe	 SHORT $LN1@Trim

; 2620 : 			this->_Myvec[_Words - 1] &= (_Vbase)((1 << _Size) - 1);

  00049	8b 07		 mov	 eax, DWORD PTR [edi]
  0004b	33 d2		 xor	 edx, edx
  0004d	42		 inc	 edx
  0004e	8b cb		 mov	 ecx, ebx
  00050	d3 e2		 shl	 edx, cl
  00052	8d 44 b0 fc	 lea	 eax, DWORD PTR [eax+esi*4-4]
  00056	4a		 dec	 edx
  00057	21 10		 and	 DWORD PTR [eax], edx
$LN1@Trim:
  00059	5f		 pop	 edi
  0005a	5e		 pop	 esi
  0005b	5b		 pop	 ebx

; 2621 : 		}

  0005c	5d		 pop	 ebp
  0005d	c2 04 00	 ret	 4
$LN47@Trim:
?_Trim@?$vector@_NV?$allocator@_N@std@@@std@@QAEXI@Z ENDP ; std::vector<bool,std::allocator<bool> >::_Trim
_TEXT	ENDS
PUBLIC	??1?$vector@IV?$allocator@I@std@@@std@@QAE@XZ	; std::vector<unsigned int,std::allocator<unsigned int> >::~vector<unsigned int,std::allocator<unsigned int> >
; Function compile flags: /Ogsp
;	COMDAT ??1?$vector@IV?$allocator@I@std@@@std@@QAE@XZ
_TEXT	SEGMENT
??1?$vector@IV?$allocator@I@std@@@std@@QAE@XZ PROC	; std::vector<unsigned int,std::allocator<unsigned int> >::~vector<unsigned int,std::allocator<unsigned int> >, COMDAT
; _this$ = ecx

; 705  : 		_Tidy();

  00000	e9 00 00 00 00	 jmp	 ?_Tidy@?$vector@IV?$allocator@I@std@@@std@@IAEXXZ ; std::vector<unsigned int,std::allocator<unsigned int> >::_Tidy
??1?$vector@IV?$allocator@I@std@@@std@@QAE@XZ ENDP	; std::vector<unsigned int,std::allocator<unsigned int> >::~vector<unsigned int,std::allocator<unsigned int> >
_TEXT	ENDS
PUBLIC	?_Construct_n@?$vector@IV?$allocator@I@std@@@std@@QAEXIPBI@Z ; std::vector<unsigned int,std::allocator<unsigned int> >::_Construct_n
; Function compile flags: /Ogsp
;	COMDAT ?_Construct_n@?$vector@IV?$allocator@I@std@@@std@@QAEXIPBI@Z
_TEXT	SEGMENT
__Count$ = 8						; size = 4
__Pval$ = 12						; size = 4
?_Construct_n@?$vector@IV?$allocator@I@std@@@std@@QAEXIPBI@Z PROC ; std::vector<unsigned int,std::allocator<unsigned int> >::_Construct_n, COMDAT
; _this$ = ecx

; 581  : 		{	// construct from _Count * *_Pval

  00000	55		 push	 ebp
  00001	8b ec		 mov	 ebp, esp
  00003	53		 push	 ebx

; 582  : 		if (_Buy(_Count))

  00004	8b 5d 08	 mov	 ebx, DWORD PTR __Count$[ebp]
  00007	56		 push	 esi
  00008	53		 push	 ebx
  00009	8b f1		 mov	 esi, ecx
  0000b	e8 00 00 00 00	 call	 ?_Buy@?$vector@IV?$allocator@I@std@@@std@@IAE_NI@Z ; std::vector<unsigned int,std::allocator<unsigned int> >::_Buy
  00010	84 c0		 test	 al, al
  00012	74 17		 je	 SHORT $LN7@Construct_

; 583  : 			{	// nonzero, fill it
; 584  : 			_TRY_BEGIN
; 585  : 			this->_Mylast = _Ufill(this->_Myfirst, _Count, _Pval);

  00014	57		 push	 edi
  00015	ff 75 0c	 push	 DWORD PTR __Pval$[ebp]
  00018	8b 3e		 mov	 edi, DWORD PTR [esi]
  0001a	53		 push	 ebx
  0001b	57		 push	 edi
  0001c	e8 00 00 00 00	 call	 ??$_Fill_n@PAIII@std@@YAXPAIIABI@Z ; std::_Fill_n<unsigned int *,unsigned int,unsigned int>
  00021	8d 04 9f	 lea	 eax, DWORD PTR [edi+ebx*4]
  00024	83 c4 0c	 add	 esp, 12			; 0000000cH
  00027	89 46 04	 mov	 DWORD PTR [esi+4], eax
  0002a	5f		 pop	 edi
$LN7@Construct_:
  0002b	5e		 pop	 esi
  0002c	5b		 pop	 ebx

; 586  : 			_CATCH_ALL
; 587  : 			_Tidy();
; 588  : 			_RERAISE;
; 589  : 			_CATCH_END
; 590  : 			}
; 591  : 		}

  0002d	5d		 pop	 ebp
  0002e	c2 08 00	 ret	 8
?_Construct_n@?$vector@IV?$allocator@I@std@@@std@@QAEXIPBI@Z ENDP ; std::vector<unsigned int,std::allocator<unsigned int> >::_Construct_n
_TEXT	ENDS
PUBLIC	?resize@?$vector@IV?$allocator@I@std@@@std@@QAEXII@Z ; std::vector<unsigned int,std::allocator<unsigned int> >::resize
; Function compile flags: /Ogsp
;	COMDAT ?resize@?$vector@IV?$allocator@I@std@@@std@@QAEXII@Z
_TEXT	SEGMENT
$T523755 = 8						; size = 4
__Newsize$ = 8						; size = 4
__Val$ = 12						; size = 4
?resize@?$vector@IV?$allocator@I@std@@@std@@QAEXII@Z PROC ; std::vector<unsigned int,std::allocator<unsigned int> >::resize, COMDAT
; _this$ = ecx

; 870  : 		{	// determine new length, padding with _Val elements as needed

  00000	55		 push	 ebp
  00001	8b ec		 mov	 ebp, esp

; 871  : 		if (size() < _Newsize)

  00003	8b 55 08	 mov	 edx, DWORD PTR __Newsize$[ebp]
  00006	56		 push	 esi
  00007	8b 31		 mov	 esi, DWORD PTR [ecx]
  00009	57		 push	 edi
  0000a	8b 79 04	 mov	 edi, DWORD PTR [ecx+4]
  0000d	8b c7		 mov	 eax, edi
  0000f	2b c6		 sub	 eax, esi
  00011	c1 f8 02	 sar	 eax, 2
  00014	3b d0		 cmp	 edx, eax
  00016	76 0f		 jbe	 SHORT $LN42@resize@2

; 872  : 			_Insert_n(end(), _Newsize - size(), _Val);

  00018	8d 75 0c	 lea	 esi, DWORD PTR __Val$[ebp]
  0001b	56		 push	 esi
  0001c	2b d0		 sub	 edx, eax
  0001e	52		 push	 edx
  0001f	57		 push	 edi
  00020	e8 00 00 00 00	 call	 ?_Insert_n@?$vector@IV?$allocator@I@std@@@std@@IAEXV?$_Vector_const_iterator@V?$_Vector_val@IV?$allocator@I@std@@@std@@@2@IABI@Z ; std::vector<unsigned int,std::allocator<unsigned int> >::_Insert_n

; 873  : 		else if (_Newsize < size())

  00025	eb 10		 jmp	 SHORT $LN1@resize@2
$LN42@resize@2:
  00027	73 0e		 jae	 SHORT $LN1@resize@2

; 874  : 			erase(begin() + _Newsize, end());

  00029	8d 04 96	 lea	 eax, DWORD PTR [esi+edx*4]
  0002c	57		 push	 edi
  0002d	50		 push	 eax
  0002e	8d 45 08	 lea	 eax, DWORD PTR $T523755[ebp]
  00031	50		 push	 eax
  00032	e8 00 00 00 00	 call	 ?erase@?$vector@IV?$allocator@I@std@@@std@@QAE?AV?$_Vector_iterator@V?$_Vector_val@IV?$allocator@I@std@@@std@@@2@V?$_Vector_const_iterator@V?$_Vector_val@IV?$allocator@I@std@@@std@@@2@0@Z ; std::vector<unsigned int,std::allocator<unsigned int> >::erase
$LN1@resize@2:
  00037	5f		 pop	 edi
  00038	5e		 pop	 esi

; 875  : 		}

  00039	5d		 pop	 ebp
  0003a	c2 08 00	 ret	 8
?resize@?$vector@IV?$allocator@I@std@@@std@@QAEXII@Z ENDP ; std::vector<unsigned int,std::allocator<unsigned int> >::resize
_TEXT	ENDS
PUBLIC	??$copy@V?$_Vb_iterator@V?$allocator@_N@std@@@std@@V12@@std@@YA?AV?$_Vb_iterator@V?$allocator@_N@std@@@0@V10@00@Z ; std::copy<std::_Vb_iterator<std::allocator<bool> >,std::_Vb_iterator<std::allocator<bool> > >
; Function compile flags: /Ogsp
; File c:\program files (x86)\microsoft visual studio 10.0\vc\include\xutility
;	COMDAT ??$copy@V?$_Vb_iterator@V?$allocator@_N@std@@@std@@V12@@std@@YA?AV?$_Vb_iterator@V?$allocator@_N@std@@@0@V10@00@Z
_TEXT	SEGMENT
$T523862 = -8						; size = 8
___$ReturnUdt$ = 8					; size = 4
__First$ = 12						; size = 8
__Last$ = 20						; size = 8
__Dest$ = 28						; size = 8
??$copy@V?$_Vb_iterator@V?$allocator@_N@std@@@std@@V12@@std@@YA?AV?$_Vb_iterator@V?$allocator@_N@std@@@0@V10@00@Z PROC ; std::copy<std::_Vb_iterator<std::allocator<bool> >,std::_Vb_iterator<std::allocator<bool> > >, COMDAT

; 2173 : 	{	// copy [_First, _Last) to [_Dest, ...)

  00000	55		 push	 ebp
  00001	8b ec		 mov	 ebp, esp
  00003	51		 push	 ecx
  00004	51		 push	 ecx

; 2174 : 	return (_Rechecked(_Dest,
; 2175 : 		_Copy_impl(_Unchecked(_First), _Unchecked(_Last),
; 2176 : 			_Unchecked(_Dest))));

  00005	ff 75 20	 push	 DWORD PTR __Dest$[ebp+4]
  00008	8d 45 f8	 lea	 eax, DWORD PTR $T523862[ebp]
  0000b	ff 75 1c	 push	 DWORD PTR __Dest$[ebp]
  0000e	ff 75 18	 push	 DWORD PTR __Last$[ebp+4]
  00011	ff 75 14	 push	 DWORD PTR __Last$[ebp]
  00014	ff 75 10	 push	 DWORD PTR __First$[ebp+4]
  00017	ff 75 0c	 push	 DWORD PTR __First$[ebp]
  0001a	50		 push	 eax
  0001b	e8 00 00 00 00	 call	 ??$_Copy_impl@V?$_Vb_iterator@V?$allocator@_N@std@@@std@@V12@@std@@YA?AV?$_Vb_iterator@V?$allocator@_N@std@@@0@V10@00@Z ; std::_Copy_impl<std::_Vb_iterator<std::allocator<bool> >,std::_Vb_iterator<std::allocator<bool> > >
  00020	8b 08		 mov	 ecx, DWORD PTR [eax]
  00022	89 4d 1c	 mov	 DWORD PTR __Dest$[ebp], ecx
  00025	8b 48 04	 mov	 ecx, DWORD PTR [eax+4]
  00028	89 4d 20	 mov	 DWORD PTR __Dest$[ebp+4], ecx
  0002b	8b 10		 mov	 edx, DWORD PTR [eax]
  0002d	8b 4d 08	 mov	 ecx, DWORD PTR ___$ReturnUdt$[ebp]
  00030	8b 40 04	 mov	 eax, DWORD PTR [eax+4]
  00033	89 41 04	 mov	 DWORD PTR [ecx+4], eax
  00036	83 c4 1c	 add	 esp, 28			; 0000001cH
  00039	89 11		 mov	 DWORD PTR [ecx], edx
  0003b	8b c1		 mov	 eax, ecx

; 2177 : 	}

  0003d	c9		 leave
  0003e	c3		 ret	 0
??$copy@V?$_Vb_iterator@V?$allocator@_N@std@@@std@@V12@@std@@YA?AV?$_Vb_iterator@V?$allocator@_N@std@@@0@V10@00@Z ENDP ; std::copy<std::_Vb_iterator<std::allocator<bool> >,std::_Vb_iterator<std::allocator<bool> > >
_TEXT	ENDS
PUBLIC	??$fill@V?$_Vb_iterator@V?$allocator@_N@std@@@std@@_N@std@@YAXV?$_Vb_iterator@V?$allocator@_N@std@@@0@0AB_N@Z ; std::fill<std::_Vb_iterator<std::allocator<bool> >,bool>
; Function compile flags: /Ogsp
;	COMDAT ??$fill@V?$_Vb_iterator@V?$allocator@_N@std@@@std@@_N@std@@YAXV?$_Vb_iterator@V?$allocator@_N@std@@@0@0AB_N@Z
_TEXT	SEGMENT
__First$ = 8						; size = 8
__Last$ = 16						; size = 8
__Val$ = 24						; size = 4
??$fill@V?$_Vb_iterator@V?$allocator@_N@std@@@std@@_N@std@@YAXV?$_Vb_iterator@V?$allocator@_N@std@@@0@0AB_N@Z PROC ; std::fill<std::_Vb_iterator<std::allocator<bool> >,bool>, COMDAT

; 2713 : 	{	// copy _Val through [_First, _Last)

  00000	55		 push	 ebp
  00001	8b ec		 mov	 ebp, esp

; 2714 : 	_DEBUG_RANGE(_First, _Last);
; 2715 : 	_Fill(_Unchecked(_First), _Unchecked(_Last), _Val);

  00003	ff 75 18	 push	 DWORD PTR __Val$[ebp]
  00006	ff 75 14	 push	 DWORD PTR __Last$[ebp+4]
  00009	ff 75 10	 push	 DWORD PTR __Last$[ebp]
  0000c	ff 75 0c	 push	 DWORD PTR __First$[ebp+4]
  0000f	ff 75 08	 push	 DWORD PTR __First$[ebp]
  00012	e8 00 00 00 00	 call	 ??$_Fill@V?$_Vb_iterator@V?$allocator@_N@std@@@std@@_N@std@@YAXV?$_Vb_iterator@V?$allocator@_N@std@@@0@0AB_N@Z ; std::_Fill<std::_Vb_iterator<std::allocator<bool> >,bool>
  00017	83 c4 14	 add	 esp, 20			; 00000014H

; 2716 : 	}

  0001a	5d		 pop	 ebp
  0001b	c3		 ret	 0
??$fill@V?$_Vb_iterator@V?$allocator@_N@std@@@std@@_N@std@@YAXV?$_Vb_iterator@V?$allocator@_N@std@@@0@0AB_N@Z ENDP ; std::fill<std::_Vb_iterator<std::allocator<bool> >,bool>
_TEXT	ENDS
PUBLIC	??$_Copy_backward@V?$_Vb_iterator@V?$allocator@_N@std@@@std@@V12@@std@@YA?AV?$_Vb_iterator@V?$allocator@_N@std@@@0@V10@00@Z ; std::_Copy_backward<std::_Vb_iterator<std::allocator<bool> >,std::_Vb_iterator<std::allocator<bool> > >
; Function compile flags: /Ogsp
;	COMDAT ??$_Copy_backward@V?$_Vb_iterator@V?$allocator@_N@std@@@std@@V12@@std@@YA?AV?$_Vb_iterator@V?$allocator@_N@std@@@0@V10@00@Z
_TEXT	SEGMENT
__Cat$523892 = 8					; size = 1
___$ReturnUdt$ = 8					; size = 4
__First$ = 12						; size = 8
__Last$ = 20						; size = 8
__Dest$ = 28						; size = 8
??$_Copy_backward@V?$_Vb_iterator@V?$allocator@_N@std@@@std@@V12@@std@@YA?AV?$_Vb_iterator@V?$allocator@_N@std@@@0@V10@00@Z PROC ; std::_Copy_backward<std::_Vb_iterator<std::allocator<bool> >,std::_Vb_iterator<std::allocator<bool> > >, COMDAT

; 2459 : 	{	// copy [_First, _Last) backwards to [..., _Dest), unchecked

  00000	55		 push	 ebp
  00001	8b ec		 mov	 ebp, esp

; 2460 : 	return (_Copy_backward(_First, _Last,
; 2461 : 		_Dest, _Ptr_cat(_First, _Dest)));

  00003	ff 75 08	 push	 DWORD PTR __Cat$523892[ebp]
  00006	ff 75 20	 push	 DWORD PTR __Dest$[ebp+4]
  00009	ff 75 1c	 push	 DWORD PTR __Dest$[ebp]
  0000c	ff 75 18	 push	 DWORD PTR __Last$[ebp+4]
  0000f	ff 75 14	 push	 DWORD PTR __Last$[ebp]
  00012	ff 75 10	 push	 DWORD PTR __First$[ebp+4]
  00015	ff 75 0c	 push	 DWORD PTR __First$[ebp]
  00018	ff 75 08	 push	 DWORD PTR ___$ReturnUdt$[ebp]
  0001b	e8 00 00 00 00	 call	 ??$_Copy_backward@V?$_Vb_iterator@V?$allocator@_N@std@@@std@@V12@@std@@YA?AV?$_Vb_iterator@V?$allocator@_N@std@@@0@V10@00U_Nonscalar_ptr_iterator_tag@0@@Z ; std::_Copy_backward<std::_Vb_iterator<std::allocator<bool> >,std::_Vb_iterator<std::allocator<bool> > >
  00020	8b 45 08	 mov	 eax, DWORD PTR ___$ReturnUdt$[ebp]
  00023	83 c4 20	 add	 esp, 32			; 00000020H

; 2462 : 	}

  00026	5d		 pop	 ebp
  00027	c3		 ret	 0
??$_Copy_backward@V?$_Vb_iterator@V?$allocator@_N@std@@@std@@V12@@std@@YA?AV?$_Vb_iterator@V?$allocator@_N@std@@@0@V10@00@Z ENDP ; std::_Copy_backward<std::_Vb_iterator<std::allocator<bool> >,std::_Vb_iterator<std::allocator<bool> > >
_TEXT	ENDS
PUBLIC	??$_Uninit_move@PAVioHashString@@PAV1@V?$allocator@VioHashString@@@std@@V1@@std@@YAPAVioHashString@@PAV1@00AAV?$allocator@VioHashString@@@0@0U_Nonscalar_ptr_iterator_tag@0@@Z ; std::_Uninit_move<ioHashString *,ioHashString *,std::allocator<ioHashString>,ioHashString>
EXTRN	__EH_prolog3_catch:PROC
;	COMDAT xdata$x
; File c:\program files (x86)\microsoft visual studio 10.0\vc\include\vector
xdata$x	SEGMENT
__catchsym$??$_Uninit_move@PAVioHashString@@PAV1@V?$allocator@VioHashString@@@std@@V1@@std@@YAPAVioHashString@@PAV1@00AAV?$allocator@VioHashString@@@0@0U_Nonscalar_ptr_iterator_tag@0@@Z$2 DD 040H
	DD	00H
	DD	00H
	DD	FLAT:__catch$??$_Uninit_move@PAVioHashString@@PAV1@V?$allocator@VioHashString@@@std@@V1@@std@@YAPAVioHashString@@PAV1@00AAV?$allocator@VioHashString@@@0@0U_Nonscalar_ptr_iterator_tag@0@@Z$0
__unwindtable$??$_Uninit_move@PAVioHashString@@PAV1@V?$allocator@VioHashString@@@std@@V1@@std@@YAPAVioHashString@@PAV1@00AAV?$allocator@VioHashString@@@0@0U_Nonscalar_ptr_iterator_tag@0@@Z DD 0ffffffffH
	DD	00H
	DD	0ffffffffH
	DD	00H
__tryblocktable$??$_Uninit_move@PAVioHashString@@PAV1@V?$allocator@VioHashString@@@std@@V1@@std@@YAPAVioHashString@@PAV1@00AAV?$allocator@VioHashString@@@0@0U_Nonscalar_ptr_iterator_tag@0@@Z DD 00H
	DD	00H
	DD	01H
	DD	01H
	DD	FLAT:__catchsym$??$_Uninit_move@PAVioHashString@@PAV1@V?$allocator@VioHashString@@@std@@V1@@std@@YAPAVioHashString@@PAV1@00AAV?$allocator@VioHashString@@@0@0U_Nonscalar_ptr_iterator_tag@0@@Z$2
__ehfuncinfo$??$_Uninit_move@PAVioHashString@@PAV1@V?$allocator@VioHashString@@@std@@V1@@std@@YAPAVioHashString@@PAV1@00AAV?$allocator@VioHashString@@@0@0U_Nonscalar_ptr_iterator_tag@0@@Z DD 019930522H
	DD	02H
	DD	FLAT:__unwindtable$??$_Uninit_move@PAVioHashString@@PAV1@V?$allocator@VioHashString@@@std@@V1@@std@@YAPAVioHashString@@PAV1@00AAV?$allocator@VioHashString@@@0@0U_Nonscalar_ptr_iterator_tag@0@@Z
	DD	01H
	DD	FLAT:__tryblocktable$??$_Uninit_move@PAVioHashString@@PAV1@V?$allocator@VioHashString@@@std@@V1@@std@@YAPAVioHashString@@PAV1@00AAV?$allocator@VioHashString@@@0@0U_Nonscalar_ptr_iterator_tag@0@@Z
	DD	2 DUP(00H)
	DD	00H
	DD	01H
; Function compile flags: /Ogsp
; File c:\program files (x86)\microsoft visual studio 10.0\vc\include\memory
xdata$x	ENDS
;	COMDAT ??$_Uninit_move@PAVioHashString@@PAV1@V?$allocator@VioHashString@@@std@@V1@@std@@YAPAVioHashString@@PAV1@00AAV?$allocator@VioHashString@@@0@0U_Nonscalar_ptr_iterator_tag@0@@Z
_TEXT	SEGMENT
__Next$ = -20						; size = 4
__$EHRec$ = -16						; size = 16
__First$ = 8						; size = 4
__Last$ = 12						; size = 4
__Dest$ = 16						; size = 4
__Al$ = 20						; size = 4
___formal$ = 24						; size = 4
___formal$ = 28						; size = 1
??$_Uninit_move@PAVioHashString@@PAV1@V?$allocator@VioHashString@@@std@@V1@@std@@YAPAVioHashString@@PAV1@00AAV?$allocator@VioHashString@@@0@0U_Nonscalar_ptr_iterator_tag@0@@Z PROC ; std::_Uninit_move<ioHashString *,ioHashString *,std::allocator<ioHashString>,ioHashString>, COMDAT

; 424  : 	{	// move [_First, _Last) to raw _Dest, using _Al, arbitrary type

  00000	6a 08		 push	 8
  00002	b8 00 00 00 00	 mov	 eax, __ehhandler$??$_Uninit_move@PAVioHashString@@PAV1@V?$allocator@VioHashString@@@std@@V1@@std@@YAPAVioHashString@@PAV1@00AAV?$allocator@VioHashString@@@0@0U_Nonscalar_ptr_iterator_tag@0@@Z
  00007	e8 00 00 00 00	 call	 __EH_prolog3_catch

; 425  : 	_DEBUG_RANGE(_First, _Last);
; 426  : 	_DEBUG_POINTER(_Dest);
; 427  : 	_FwdIt _Next = _Dest;

  0000c	8b 45 10	 mov	 eax, DWORD PTR __Dest$[ebp]

; 428  : 
; 429  : 	_TRY_BEGIN

  0000f	83 65 fc 00	 and	 DWORD PTR __$EHRec$[ebp+12], 0
  00013	8b 75 08	 mov	 esi, DWORD PTR __First$[ebp]
  00016	89 45 ec	 mov	 DWORD PTR __Next$[ebp], eax
$LL6@Uninit_mov:

; 430  : 	for (; _First != _Last; ++_Dest, ++_First)

  00019	3b 75 0c	 cmp	 esi, DWORD PTR __Last$[ebp]
  0001c	74 33		 je	 SHORT $LN4@Uninit_mov

; 431  : 		_Cons_val(_Al, _Dest, (_Valty &&)*_First);

  0001e	8b 4d 14	 mov	 ecx, DWORD PTR __Al$[ebp]
  00021	56		 push	 esi
  00022	ff 75 10	 push	 DWORD PTR __Dest$[ebp]
  00025	e8 00 00 00 00	 call	 ?construct@?$allocator@VioHashString@@@std@@QAEXPAVioHashString@@$$QAV3@@Z ; std::allocator<ioHashString>::construct
  0002a	83 45 10 10	 add	 DWORD PTR __Dest$[ebp], 16 ; 00000010H
  0002e	83 c6 10	 add	 esi, 16			; 00000010H
  00031	eb e6		 jmp	 SHORT $LL6@Uninit_mov
__catch$??$_Uninit_move@PAVioHashString@@PAV1@V?$allocator@VioHashString@@@std@@V1@@std@@YAPAVioHashString@@PAV1@00AAV?$allocator@VioHashString@@@0@0U_Nonscalar_ptr_iterator_tag@0@@Z$0:

; 432  : 	_CATCH_ALL
; 433  : 	for (; _Next != _Dest; ++_Next)

  00033	8b 75 ec	 mov	 esi, DWORD PTR __Next$[ebp]
  00036	eb 0b		 jmp	 SHORT $LN33@Uninit_mov
$LL3@Uninit_mov:

; 434  : 		_Dest_val(_Al, _Next);

  00038	8b ce		 mov	 ecx, esi
  0003a	ff 15 00 00 00
	00		 call	 DWORD PTR __imp_??1ioHashString@@QAE@XZ
  00040	83 c6 10	 add	 esi, 16			; 00000010H
$LN33@Uninit_mov:

; 432  : 	_CATCH_ALL
; 433  : 	for (; _Next != _Dest; ++_Next)

  00043	3b 75 10	 cmp	 esi, DWORD PTR __Dest$[ebp]
  00046	75 f0		 jne	 SHORT $LL3@Uninit_mov

; 435  : 	_RERAISE;

  00048	6a 00		 push	 0
  0004a	6a 00		 push	 0
  0004c	e8 00 00 00 00	 call	 __CxxThrowException@8
$LN34@Uninit_mov:
$LN4@Uninit_mov:

; 436  : 	_CATCH_END
; 437  : 	return (_Dest);

  00051	8b 45 10	 mov	 eax, DWORD PTR __Dest$[ebp]

; 438  : 	}

  00054	e8 00 00 00 00	 call	 __EH_epilog3
  00059	c3		 ret	 0
$LN32@Uninit_mov:
_TEXT	ENDS
;	COMDAT text$x
text$x	SEGMENT
__ehhandler$??$_Uninit_move@PAVioHashString@@PAV1@V?$allocator@VioHashString@@@std@@V1@@std@@YAPAVioHashString@@PAV1@00AAV?$allocator@VioHashString@@@0@0U_Nonscalar_ptr_iterator_tag@0@@Z:
  00000	8b 54 24 08	 mov	 edx, DWORD PTR [esp+8]
  00004	8d 42 0c	 lea	 eax, DWORD PTR [edx+12]
  00007	8b 4a e8	 mov	 ecx, DWORD PTR [edx-24]
  0000a	33 c8		 xor	 ecx, eax
  0000c	e8 00 00 00 00	 call	 @__security_check_cookie@4
  00011	b8 00 00 00 00	 mov	 eax, OFFSET __ehfuncinfo$??$_Uninit_move@PAVioHashString@@PAV1@V?$allocator@VioHashString@@@std@@V1@@std@@YAPAVioHashString@@PAV1@00AAV?$allocator@VioHashString@@@0@0U_Nonscalar_ptr_iterator_tag@0@@Z
  00016	e9 00 00 00 00	 jmp	 ___CxxFrameHandler3
text$x	ENDS
??$_Uninit_move@PAVioHashString@@PAV1@V?$allocator@VioHashString@@@std@@V1@@std@@YAPAVioHashString@@PAV1@00AAV?$allocator@VioHashString@@@0@0U_Nonscalar_ptr_iterator_tag@0@@Z ENDP ; std::_Uninit_move<ioHashString *,ioHashString *,std::allocator<ioHashString>,ioHashString>
PUBLIC	??1?$vector@HV?$allocator@H@std@@@std@@QAE@XZ	; std::vector<int,std::allocator<int> >::~vector<int,std::allocator<int> >
; Function compile flags: /Ogsp
; File c:\program files (x86)\microsoft visual studio 10.0\vc\include\vector
;	COMDAT ??1?$vector@HV?$allocator@H@std@@@std@@QAE@XZ
_TEXT	SEGMENT
??1?$vector@HV?$allocator@H@std@@@std@@QAE@XZ PROC	; std::vector<int,std::allocator<int> >::~vector<int,std::allocator<int> >, COMDAT
; _this$ = ecx

; 705  : 		_Tidy();

  00000	e9 00 00 00 00	 jmp	 ?_Tidy@?$vector@HV?$allocator@H@std@@@std@@IAEXXZ ; std::vector<int,std::allocator<int> >::_Tidy
??1?$vector@HV?$allocator@H@std@@@std@@QAE@XZ ENDP	; std::vector<int,std::allocator<int> >::~vector<int,std::allocator<int> >
_TEXT	ENDS
PUBLIC	?clear@?$vector@HV?$allocator@H@std@@@std@@QAEXXZ ; std::vector<int,std::allocator<int> >::clear
; Function compile flags: /Ogsp
;	COMDAT ?clear@?$vector@HV?$allocator@H@std@@@std@@QAEXXZ
_TEXT	SEGMENT
$T523964 = -4						; size = 4
?clear@?$vector@HV?$allocator@H@std@@@std@@QAEXXZ PROC	; std::vector<int,std::allocator<int> >::clear, COMDAT
; _this$ = ecx

; 1217 : 		{	// erase all

  00000	55		 push	 ebp
  00001	8b ec		 mov	 ebp, esp
  00003	51		 push	 ecx

; 1218 : 		erase(begin(), end());

  00004	8b 41 04	 mov	 eax, DWORD PTR [ecx+4]
  00007	8b 11		 mov	 edx, DWORD PTR [ecx]
  00009	50		 push	 eax
  0000a	52		 push	 edx
  0000b	8d 45 fc	 lea	 eax, DWORD PTR $T523964[ebp]
  0000e	50		 push	 eax
  0000f	e8 00 00 00 00	 call	 ?erase@?$vector@HV?$allocator@H@std@@@std@@QAE?AV?$_Vector_iterator@V?$_Vector_val@HV?$allocator@H@std@@@std@@@2@V?$_Vector_const_iterator@V?$_Vector_val@HV?$allocator@H@std@@@std@@@2@0@Z ; std::vector<int,std::allocator<int> >::erase

; 1219 : 		}

  00014	c9		 leave
  00015	c3		 ret	 0
?clear@?$vector@HV?$allocator@H@std@@@std@@QAEXXZ ENDP	; std::vector<int,std::allocator<int> >::clear
_TEXT	ENDS
PUBLIC	?_Reserve@?$vector@HV?$allocator@H@std@@@std@@IAEXI@Z ; std::vector<int,std::allocator<int> >::_Reserve
; Function compile flags: /Ogsp
;	COMDAT ?_Reserve@?$vector@HV?$allocator@H@std@@@std@@IAEXI@Z
_TEXT	SEGMENT
__Count$ = 8						; size = 4
?_Reserve@?$vector@HV?$allocator@H@std@@@std@@IAEXI@Z PROC ; std::vector<int,std::allocator<int> >::_Reserve, COMDAT
; _this$ = ecx

; 1290 : 		{	// ensure room for _Count new elements, grow exponentially

  00000	55		 push	 ebp
  00001	8b ec		 mov	 ebp, esp
  00003	56		 push	 esi
  00004	8b f1		 mov	 esi, ecx

; 1291 : 		size_type _Size = size();

  00006	8b 0e		 mov	 ecx, DWORD PTR [esi]
  00008	8b 46 04	 mov	 eax, DWORD PTR [esi+4]
  0000b	2b c1		 sub	 eax, ecx

; 1292 : 		if (max_size() - _Count < _Size)

  0000d	ba ff ff ff 3f	 mov	 edx, 1073741823		; 3fffffffH
  00012	2b 55 08	 sub	 edx, DWORD PTR __Count$[ebp]
  00015	c1 f8 02	 sar	 eax, 2
  00018	3b d0		 cmp	 edx, eax
  0001a	73 0b		 jae	 SHORT $LN4@Reserve

; 1293 : 			_Xlen();

  0001c	68 00 00 00 00	 push	 OFFSET ??_C@_0BD@OLBABOEK@vector?$DMT?$DO?5too?5long?$AA@
  00021	ff 15 00 00 00
	00		 call	 DWORD PTR __imp_?_Xlength_error@std@@YAXPBD@Z
$LN21@Reserve:
$LN4@Reserve:

; 1294 : 		else if ((_Size += _Count) <= capacity())

  00027	8b 56 08	 mov	 edx, DWORD PTR [esi+8]
  0002a	03 45 08	 add	 eax, DWORD PTR __Count$[ebp]
  0002d	2b d1		 sub	 edx, ecx
  0002f	c1 fa 02	 sar	 edx, 2
  00032	3b c2		 cmp	 eax, edx
  00034	76 10		 jbe	 SHORT $LN1@Reserve

; 1295 : 			;
; 1296 : 		else
; 1297 : 			reserve(_Grow_to(_Size));

  00036	50		 push	 eax
  00037	8b ce		 mov	 ecx, esi
  00039	e8 00 00 00 00	 call	 ?_Grow_to@?$vector@HV?$allocator@H@std@@@std@@IBEII@Z ; std::vector<int,std::allocator<int> >::_Grow_to
  0003e	50		 push	 eax
  0003f	8b ce		 mov	 ecx, esi
  00041	e8 00 00 00 00	 call	 ?reserve@?$vector@HV?$allocator@H@std@@@std@@QAEXI@Z ; std::vector<int,std::allocator<int> >::reserve
$LN1@Reserve:
  00046	5e		 pop	 esi

; 1298 : 		}

  00047	5d		 pop	 ebp
  00048	c2 04 00	 ret	 4
$LN20@Reserve:
?_Reserve@?$vector@HV?$allocator@H@std@@@std@@IAEXI@Z ENDP ; std::vector<int,std::allocator<int> >::_Reserve
_TEXT	ENDS
PUBLIC	??$_Destroy_range@V?$allocator@VioHashString@@@std@@@std@@YAXPAVioHashString@@0AAV?$allocator@VioHashString@@@0@U_Nonscalar_ptr_iterator_tag@0@@Z ; std::_Destroy_range<std::allocator<ioHashString> >
; Function compile flags: /Ogsp
; File c:\program files (x86)\microsoft visual studio 10.0\vc\include\xmemory
;	COMDAT ??$_Destroy_range@V?$allocator@VioHashString@@@std@@@std@@YAXPAVioHashString@@0AAV?$allocator@VioHashString@@@0@U_Nonscalar_ptr_iterator_tag@0@@Z
_TEXT	SEGMENT
__First$ = 8						; size = 4
__Last$ = 12						; size = 4
__Al$ = 16						; size = 4
___formal$ = 20						; size = 1
??$_Destroy_range@V?$allocator@VioHashString@@@std@@@std@@YAXPAVioHashString@@0AAV?$allocator@VioHashString@@@0@U_Nonscalar_ptr_iterator_tag@0@@Z PROC ; std::_Destroy_range<std::allocator<ioHashString> >, COMDAT

; 95   : 	{	// destroy [_First, _Last), arbitrary type

  00000	55		 push	 ebp
  00001	8b ec		 mov	 ebp, esp
  00003	56		 push	 esi

; 96   : 	for (; _First != _Last; ++_First)

  00004	8b 75 08	 mov	 esi, DWORD PTR __First$[ebp]
  00007	eb 0b		 jmp	 SHORT $LN17@Destroy_ra
$LL3@Destroy_ra:

; 97   : 		_Dest_val(_Al, _First);

  00009	8b ce		 mov	 ecx, esi
  0000b	ff 15 00 00 00
	00		 call	 DWORD PTR __imp_??1ioHashString@@QAE@XZ
  00011	83 c6 10	 add	 esi, 16			; 00000010H
$LN17@Destroy_ra:

; 96   : 	for (; _First != _Last; ++_First)

  00014	3b 75 0c	 cmp	 esi, DWORD PTR __Last$[ebp]
  00017	75 f0		 jne	 SHORT $LL3@Destroy_ra
  00019	5e		 pop	 esi

; 98   : 	}

  0001a	5d		 pop	 ebp
  0001b	c3		 ret	 0
??$_Destroy_range@V?$allocator@VioHashString@@@std@@@std@@YAXPAVioHashString@@0AAV?$allocator@VioHashString@@@0@U_Nonscalar_ptr_iterator_tag@0@@Z ENDP ; std::_Destroy_range<std::allocator<ioHashString> >
_TEXT	ENDS
PUBLIC	?OnProcess@GashaponWnd@@MAEXM@Z			; GashaponWnd::OnProcess
EXTRN	__imp_?OnProcess@ioWnd@@MAEXM@Z:PROC
EXTRN	__imp_?IsShow@ioWnd@@QBE_NXZ:PROC
; Function compile flags: /Ogsp
; File d:\lost saga for developer\youtube\tutorial\source\src\lsclient\gui\gashaponwnd.cpp
;	COMDAT ?OnProcess@GashaponWnd@@MAEXM@Z
_TEXT	SEGMENT
_fTimePerSec$ = 8					; size = 4
?OnProcess@GashaponWnd@@MAEXM@Z PROC			; GashaponWnd::OnProcess, COMDAT
; _this$ = ecx

; 281  : {

  00000	55		 push	 ebp
  00001	8b ec		 mov	 ebp, esp
  00003	56		 push	 esi
  00004	8b f1		 mov	 esi, ecx

; 282  : 	if( !IsShow() ) return;

  00006	ff 15 00 00 00
	00		 call	 DWORD PTR __imp_?IsShow@ioWnd@@QBE_NXZ
  0000c	84 c0		 test	 al, al
  0000e	74 37		 je	 SHORT $LN2@OnProcess

; 283  : 
; 284  : 	ioWnd::OnProcess( fTimePerSec );

  00010	f3 0f 10 45 08	 movss	 xmm0, DWORD PTR _fTimePerSec$[ebp]
  00015	51		 push	 ecx
  00016	8b ce		 mov	 ecx, esi
  00018	f3 0f 11 04 24	 movss	 DWORD PTR [esp], xmm0
  0001d	ff 15 00 00 00
	00		 call	 DWORD PTR __imp_?OnProcess@ioWnd@@MAEXM@Z

; 285  : 
; 286  : 	RollingIcon( fTimePerSec );

  00023	f3 0f 10 45 08	 movss	 xmm0, DWORD PTR _fTimePerSec$[ebp]
  00028	51		 push	 ecx
  00029	8b ce		 mov	 ecx, esi
  0002b	f3 0f 11 04 24	 movss	 DWORD PTR [esp], xmm0
  00030	e8 00 00 00 00	 call	 ?RollingIcon@GashaponWnd@@IAEXM@Z ; GashaponWnd::RollingIcon

; 287  : 	RollingEffect( fTimePerSec );

  00035	f3 0f 10 45 08	 movss	 xmm0, DWORD PTR _fTimePerSec$[ebp]
  0003a	51		 push	 ecx
  0003b	8b ce		 mov	 ecx, esi
  0003d	f3 0f 11 04 24	 movss	 DWORD PTR [esp], xmm0
  00042	e8 00 00 00 00	 call	 ?RollingEffect@GashaponWnd@@IAEXM@Z ; GashaponWnd::RollingEffect
$LN2@OnProcess:
  00047	5e		 pop	 esi

; 288  : }

  00048	5d		 pop	 ebp
  00049	c2 04 00	 ret	 4
?OnProcess@GashaponWnd@@MAEXM@Z ENDP			; GashaponWnd::OnProcess
_TEXT	ENDS
PUBLIC	?push_back@?$vector@HV?$allocator@H@std@@@std@@QAEX$$QAH@Z ; std::vector<int,std::allocator<int> >::push_back
; Function compile flags: /Ogsp
; File c:\program files (x86)\microsoft visual studio 10.0\vc\include\vector
;	COMDAT ?push_back@?$vector@HV?$allocator@H@std@@@std@@QAEX$$QAH@Z
_TEXT	SEGMENT
__Val$ = 8						; size = 4
?push_back@?$vector@HV?$allocator@H@std@@@std@@QAEX$$QAH@Z PROC ; std::vector<int,std::allocator<int> >::push_back, COMDAT
; _this$ = ecx

; 631  : 		{	// insert element at end

  00000	55		 push	 ebp
  00001	8b ec		 mov	 ebp, esp
  00003	56		 push	 esi
  00004	8b f1		 mov	 esi, ecx

; 632  : 		if (_Inside(_STD addressof(_Val)))

  00006	8b 46 04	 mov	 eax, DWORD PTR [esi+4]
  00009	57		 push	 edi
  0000a	8b 7d 08	 mov	 edi, DWORD PTR __Val$[ebp]
  0000d	3b f8		 cmp	 edi, eax
  0000f	73 27		 jae	 SHORT $LN4@push_back
  00011	8b 0e		 mov	 ecx, DWORD PTR [esi]
  00013	3b cf		 cmp	 ecx, edi
  00015	77 21		 ja	 SHORT $LN4@push_back

; 633  : 			{	// push back an element
; 634  : 			size_type _Idx = _STD addressof(_Val) - this->_Myfirst;

  00017	2b f9		 sub	 edi, ecx
  00019	c1 ff 02	 sar	 edi, 2

; 635  : 			if (this->_Mylast == this->_Myend)

  0001c	3b 46 08	 cmp	 eax, DWORD PTR [esi+8]
  0001f	75 09		 jne	 SHORT $LN3@push_back

; 636  : 				_Reserve(1);

  00021	6a 01		 push	 1
  00023	8b ce		 mov	 ecx, esi
  00025	e8 00 00 00 00	 call	 ?_Reserve@?$vector@HV?$allocator@H@std@@@std@@IAEXI@Z ; std::vector<int,std::allocator<int> >::_Reserve
$LN3@push_back:

; 637  : 			_Orphan_range(this->_Mylast, this->_Mylast);
; 638  : 			_Cons_val(this->_Alval,
; 639  : 				this->_Mylast,
; 640  : 				_STD forward<_Ty>(this->_Myfirst[_Idx]));

  0002a	8b 46 04	 mov	 eax, DWORD PTR [esi+4]
  0002d	85 c0		 test	 eax, eax
  0002f	74 20		 je	 SHORT $LN41@push_back
  00031	8b 0e		 mov	 ecx, DWORD PTR [esi]
  00033	8b 0c b9	 mov	 ecx, DWORD PTR [ecx+edi*4]

; 641  : 			++this->_Mylast;
; 642  : 			}
; 643  : 		else

  00036	eb 17		 jmp	 SHORT $LN48@push_back
$LN4@push_back:

; 644  : 			{	// push back a non-element
; 645  : 			if (this->_Mylast == this->_Myend)

  00038	3b 46 08	 cmp	 eax, DWORD PTR [esi+8]
  0003b	75 09		 jne	 SHORT $LN1@push_back

; 646  : 				_Reserve(1);

  0003d	6a 01		 push	 1
  0003f	8b ce		 mov	 ecx, esi
  00041	e8 00 00 00 00	 call	 ?_Reserve@?$vector@HV?$allocator@H@std@@@std@@IAEXI@Z ; std::vector<int,std::allocator<int> >::_Reserve
$LN1@push_back:

; 647  : 			_Orphan_range(this->_Mylast, this->_Mylast);
; 648  : 			_Cons_val(this->_Alval,
; 649  : 				this->_Mylast,
; 650  : 				_STD forward<_Ty>(_Val));

  00046	8b 46 04	 mov	 eax, DWORD PTR [esi+4]
  00049	85 c0		 test	 eax, eax
  0004b	74 04		 je	 SHORT $LN41@push_back
  0004d	8b 0f		 mov	 ecx, DWORD PTR [edi]
$LN48@push_back:
  0004f	89 08		 mov	 DWORD PTR [eax], ecx
$LN41@push_back:

; 651  : 			++this->_Mylast;

  00051	83 46 04 04	 add	 DWORD PTR [esi+4], 4
  00055	5f		 pop	 edi
  00056	5e		 pop	 esi

; 652  : 			}
; 653  : 		}

  00057	5d		 pop	 ebp
  00058	c2 04 00	 ret	 4
?push_back@?$vector@HV?$allocator@H@std@@@std@@QAEX$$QAH@Z ENDP ; std::vector<int,std::allocator<int> >::push_back
_TEXT	ENDS
PUBLIC	?push_back@?$vector@HV?$allocator@H@std@@@std@@QAEXABH@Z ; std::vector<int,std::allocator<int> >::push_back
; Function compile flags: /Ogsp
;	COMDAT ?push_back@?$vector@HV?$allocator@H@std@@@std@@QAEXABH@Z
_TEXT	SEGMENT
__Val$ = 8						; size = 4
?push_back@?$vector@HV?$allocator@H@std@@@std@@QAEXABH@Z PROC ; std::vector<int,std::allocator<int> >::push_back, COMDAT
; _this$ = ecx

; 976  : 		{	// insert element at end

  00000	55		 push	 ebp
  00001	8b ec		 mov	 ebp, esp
  00003	56		 push	 esi
  00004	8b f1		 mov	 esi, ecx

; 977  : 		if (_Inside(_STD addressof(_Val)))

  00006	8b 46 04	 mov	 eax, DWORD PTR [esi+4]
  00009	57		 push	 edi
  0000a	8b 7d 08	 mov	 edi, DWORD PTR __Val$[ebp]
  0000d	3b f8		 cmp	 edi, eax
  0000f	73 27		 jae	 SHORT $LN4@push_back@2
  00011	8b 0e		 mov	 ecx, DWORD PTR [esi]
  00013	3b cf		 cmp	 ecx, edi
  00015	77 21		 ja	 SHORT $LN4@push_back@2

; 978  : 			{	// push back an element
; 979  : 			size_type _Idx = _STD addressof(_Val) - this->_Myfirst;

  00017	2b f9		 sub	 edi, ecx
  00019	c1 ff 02	 sar	 edi, 2

; 980  : 			if (this->_Mylast == this->_Myend)

  0001c	3b 46 08	 cmp	 eax, DWORD PTR [esi+8]
  0001f	75 09		 jne	 SHORT $LN3@push_back@2

; 981  : 				_Reserve(1);

  00021	6a 01		 push	 1
  00023	8b ce		 mov	 ecx, esi
  00025	e8 00 00 00 00	 call	 ?_Reserve@?$vector@HV?$allocator@H@std@@@std@@IAEXI@Z ; std::vector<int,std::allocator<int> >::_Reserve
$LN3@push_back@2:

; 982  : 			_Orphan_range(this->_Mylast, this->_Mylast);
; 983  : 			_Cons_val(this->_Alval,
; 984  : 				this->_Mylast,
; 985  : 				this->_Myfirst[_Idx]);

  0002a	8b 46 04	 mov	 eax, DWORD PTR [esi+4]
  0002d	85 c0		 test	 eax, eax
  0002f	74 20		 je	 SHORT $LN39@push_back@2
  00031	8b 0e		 mov	 ecx, DWORD PTR [esi]
  00033	8b 0c b9	 mov	 ecx, DWORD PTR [ecx+edi*4]

; 986  : 			++this->_Mylast;
; 987  : 			}
; 988  : 		else

  00036	eb 17		 jmp	 SHORT $LN46@push_back@2
$LN4@push_back@2:

; 989  : 			{	// push back a non-element
; 990  : 			if (this->_Mylast == this->_Myend)

  00038	3b 46 08	 cmp	 eax, DWORD PTR [esi+8]
  0003b	75 09		 jne	 SHORT $LN1@push_back@2

; 991  : 				_Reserve(1);

  0003d	6a 01		 push	 1
  0003f	8b ce		 mov	 ecx, esi
  00041	e8 00 00 00 00	 call	 ?_Reserve@?$vector@HV?$allocator@H@std@@@std@@IAEXI@Z ; std::vector<int,std::allocator<int> >::_Reserve
$LN1@push_back@2:

; 992  : 			_Orphan_range(this->_Mylast, this->_Mylast);
; 993  : 			_Cons_val(this->_Alval,
; 994  : 				this->_Mylast,
; 995  : 				_Val);

  00046	8b 46 04	 mov	 eax, DWORD PTR [esi+4]
  00049	85 c0		 test	 eax, eax
  0004b	74 04		 je	 SHORT $LN39@push_back@2
  0004d	8b 0f		 mov	 ecx, DWORD PTR [edi]
$LN46@push_back@2:
  0004f	89 08		 mov	 DWORD PTR [eax], ecx
$LN39@push_back@2:

; 996  : 			++this->_Mylast;

  00051	83 46 04 04	 add	 DWORD PTR [esi+4], 4
  00055	5f		 pop	 edi
  00056	5e		 pop	 esi

; 997  : 			}
; 998  : 		}

  00057	5d		 pop	 ebp
  00058	c2 04 00	 ret	 4
?push_back@?$vector@HV?$allocator@H@std@@@std@@QAEXABH@Z ENDP ; std::vector<int,std::allocator<int> >::push_back
_TEXT	ENDS
PUBLIC	?erase@?$vector@_NV?$allocator@_N@std@@@std@@QAE?AV?$_Vb_iterator@V?$allocator@_N@std@@@2@V?$_Vb_const_iterator@V?$allocator@_N@std@@@2@0@Z ; std::vector<bool,std::allocator<bool> >::erase
; Function compile flags: /Ogsp
;	COMDAT ?erase@?$vector@_NV?$allocator@_N@std@@@std@@QAE?AV?$_Vb_iterator@V?$allocator@_N@std@@@2@V?$_Vb_const_iterator@V?$allocator@_N@std@@@2@0@Z
_TEXT	SEGMENT
$T524315 = -24						; size = 8
__Next$516277 = -16					; size = 8
__First$ = -16						; size = 8
__Last$ = -8						; size = 8
___$ReturnUdt$ = 8					; size = 4
$T524317 = 12						; size = 8
__First_arg$ = 12					; size = 8
__Last_arg$ = 20					; size = 8
?erase@?$vector@_NV?$allocator@_N@std@@@std@@QAE?AV?$_Vb_iterator@V?$allocator@_N@std@@@2@V?$_Vb_const_iterator@V?$allocator@_N@std@@@2@0@Z PROC ; std::vector<bool,std::allocator<bool> >::erase, COMDAT
; _this$ = ecx

; 2464 : 		{	// erase [_First, _Last)

  00000	55		 push	 ebp
  00001	8b ec		 mov	 ebp, esp
  00003	83 ec 18	 sub	 esp, 24			; 00000018H
  00006	53		 push	 ebx
  00007	56		 push	 esi
  00008	57		 push	 edi

; 2465 : 		iterator _First = _Make_iter(_First_arg);

  00009	ff 75 10	 push	 DWORD PTR __First_arg$[ebp+4]
  0000c	8d 45 f0	 lea	 eax, DWORD PTR __First$[ebp]
  0000f	ff 75 0c	 push	 DWORD PTR __First_arg$[ebp]
  00012	8b f1		 mov	 esi, ecx
  00014	50		 push	 eax
  00015	e8 00 00 00 00	 call	 ?_Make_iter@?$vector@_NV?$allocator@_N@std@@@std@@QAE?AV?$_Vb_iterator@V?$allocator@_N@std@@@2@V?$_Vb_const_iterator@V?$allocator@_N@std@@@2@@Z ; std::vector<bool,std::allocator<bool> >::_Make_iter

; 2466 : 		iterator _Last = _Make_iter(_Last_arg);

  0001a	ff 75 18	 push	 DWORD PTR __Last_arg$[ebp+4]
  0001d	8d 45 f8	 lea	 eax, DWORD PTR __Last$[ebp]
  00020	ff 75 14	 push	 DWORD PTR __Last_arg$[ebp]
  00023	8b ce		 mov	 ecx, esi
  00025	50		 push	 eax
  00026	e8 00 00 00 00	 call	 ?_Make_iter@?$vector@_NV?$allocator@_N@std@@@std@@QAE?AV?$_Vb_iterator@V?$allocator@_N@std@@@2@V?$_Vb_const_iterator@V?$allocator@_N@std@@@2@@Z ; std::vector<bool,std::allocator<bool> >::_Make_iter

; 2467 : 		size_type _Off = _First - begin();

  0002b	8b 4d f0	 mov	 ecx, DWORD PTR __First$[ebp]
  0002e	8b 5d f4	 mov	 ebx, DWORD PTR __First$[ebp+4]
  00031	8b f9		 mov	 edi, ecx
  00033	2b 3e		 sub	 edi, DWORD PTR [esi]
  00035	c1 ff 02	 sar	 edi, 2
  00038	c1 e7 05	 shl	 edi, 5
  0003b	03 fb		 add	 edi, ebx

; 2468 : 
; 2469 : 		if (_First != _Last)

  0003d	3b 4d f8	 cmp	 ecx, DWORD PTR __Last$[ebp]
  00040	75 05		 jne	 SHORT $LN24@erase@3
  00042	3b 5d fc	 cmp	 ebx, DWORD PTR __Last$[ebp+4]
  00045	74 3c		 je	 SHORT $LN1@erase@3
$LN24@erase@3:

; 2470 : 			{	// worth doing, copy down over hole
; 2471 :  #if _ITERATOR_DEBUG_LEVEL == 2
; 2472 : 			if (_Last < _First || end() < _Last)
; 2473 : 				_DEBUG_ERROR("vector<bool> erase iterator outside range");
; 2474 : 			iterator _Next = _STD copy(_Last, end(), _First);
; 2475 : 			size_type _Newsize = _Next - begin();
; 2476 : 			_Orphan_range(_Newsize, this->_Mysize);
; 2477 : 			_Trim(_Newsize);
; 2478 : 
; 2479 :  #else /* _ITERATOR_DEBUG_LEVEL == 2 */
; 2480 : 			iterator _Next = _STD copy(_Last, end(), _First);

  00047	8d 45 e8	 lea	 eax, DWORD PTR $T524315[ebp]
  0004a	50		 push	 eax
  0004b	8b ce		 mov	 ecx, esi
  0004d	e8 00 00 00 00	 call	 ?end@?$vector@_NV?$allocator@_N@std@@@std@@QAE?AV?$_Vb_iterator@V?$allocator@_N@std@@@2@XZ ; std::vector<bool,std::allocator<bool> >::end
  00052	53		 push	 ebx
  00053	ff 75 f0	 push	 DWORD PTR __First$[ebp]
  00056	ff 70 04	 push	 DWORD PTR [eax+4]
  00059	ff 30		 push	 DWORD PTR [eax]
  0005b	8d 45 f0	 lea	 eax, DWORD PTR __Next$516277[ebp]
  0005e	ff 75 fc	 push	 DWORD PTR __Last$[ebp+4]
  00061	ff 75 f8	 push	 DWORD PTR __Last$[ebp]
  00064	50		 push	 eax
  00065	e8 00 00 00 00	 call	 ??$copy@V?$_Vb_iterator@V?$allocator@_N@std@@@std@@V12@@std@@YA?AV?$_Vb_iterator@V?$allocator@_N@std@@@0@V10@00@Z ; std::copy<std::_Vb_iterator<std::allocator<bool> >,std::_Vb_iterator<std::allocator<bool> > >

; 2481 : 			_Trim(_Next - begin());

  0006a	8b 4d f0	 mov	 ecx, DWORD PTR __Next$516277[ebp]
  0006d	2b 0e		 sub	 ecx, DWORD PTR [esi]
  0006f	83 c4 1c	 add	 esp, 28			; 0000001cH
  00072	c1 f9 02	 sar	 ecx, 2
  00075	c1 e1 05	 shl	 ecx, 5
  00078	03 4d f4	 add	 ecx, DWORD PTR __Next$516277[ebp+4]
  0007b	51		 push	 ecx
  0007c	8b ce		 mov	 ecx, esi
  0007e	e8 00 00 00 00	 call	 ?_Trim@?$vector@_NV?$allocator@_N@std@@@std@@QAEXI@Z ; std::vector<bool,std::allocator<bool> >::_Trim
$LN1@erase@3:

; 2482 :  #endif /* _ITERATOR_DEBUG_LEVEL == 2 */
; 2483 : 			}
; 2484 : 		return (begin() + _Off);

  00083	8b 06		 mov	 eax, DWORD PTR [esi]
  00085	83 65 10 00	 and	 DWORD PTR $T524317[ebp+4], 0
  00089	57		 push	 edi
  0008a	ff 75 08	 push	 DWORD PTR ___$ReturnUdt$[ebp]
  0008d	8d 4d 0c	 lea	 ecx, DWORD PTR $T524317[ebp]
  00090	89 45 0c	 mov	 DWORD PTR $T524317[ebp], eax
  00093	e8 00 00 00 00	 call	 ??H?$_Vb_iterator@V?$allocator@_N@std@@@std@@QBE?AV01@H@Z ; std::_Vb_iterator<std::allocator<bool> >::operator+
  00098	8b 45 08	 mov	 eax, DWORD PTR ___$ReturnUdt$[ebp]
  0009b	5f		 pop	 edi
  0009c	5e		 pop	 esi
  0009d	5b		 pop	 ebx

; 2485 : 		}

  0009e	c9		 leave
  0009f	c2 14 00	 ret	 20			; 00000014H
?erase@?$vector@_NV?$allocator@_N@std@@@std@@QAE?AV?$_Vb_iterator@V?$allocator@_N@std@@@2@V?$_Vb_const_iterator@V?$allocator@_N@std@@@2@0@Z ENDP ; std::vector<bool,std::allocator<bool> >::erase
_TEXT	ENDS
PUBLIC	??1?$_Vb_val@V?$allocator@_N@std@@@std@@QAE@XZ	; std::_Vb_val<std::allocator<bool> >::~_Vb_val<std::allocator<bool> >
; Function compile flags: /Ogsp
;	COMDAT ??1?$_Vb_val@V?$allocator@_N@std@@@std@@QAE@XZ
_TEXT	SEGMENT
??1?$_Vb_val@V?$allocator@_N@std@@@std@@QAE@XZ PROC	; std::_Vb_val<std::allocator<bool> >::~_Vb_val<std::allocator<bool> >, COMDAT
; _this$ = ecx

; 2015 : 		}

  00000	e9 00 00 00 00	 jmp	 ?_Tidy@?$vector@IV?$allocator@I@std@@@std@@IAEXXZ ; std::vector<unsigned int,std::allocator<unsigned int> >::_Tidy
??1?$_Vb_val@V?$allocator@_N@std@@@std@@QAE@XZ ENDP	; std::_Vb_val<std::allocator<bool> >::~_Vb_val<std::allocator<bool> >
_TEXT	ENDS
PUBLIC	??0?$vector@IV?$allocator@I@std@@@std@@QAE@IABIABV?$allocator@I@1@@Z ; std::vector<unsigned int,std::allocator<unsigned int> >::vector<unsigned int,std::allocator<unsigned int> >
; Function compile flags: /Ogsp
;	COMDAT ??0?$vector@IV?$allocator@I@std@@@std@@QAE@IABIABV?$allocator@I@1@@Z
_TEXT	SEGMENT
__Count$ = 8						; size = 4
__Val$ = 12						; size = 4
__Al$ = 16						; size = 4
??0?$vector@IV?$allocator@I@std@@@std@@QAE@IABIABV?$allocator@I@1@@Z PROC ; std::vector<unsigned int,std::allocator<unsigned int> >::vector<unsigned int,std::allocator<unsigned int> >, COMDAT
; _this$ = ecx

; 529  : 		{	// construct from _Count * _Val, with allocator

  00000	55		 push	 ebp
  00001	8b ec		 mov	 ebp, esp
  00003	56		 push	 esi

; 530  : 		_Construct_n(_Count, _STD addressof(_Val));

  00004	ff 75 0c	 push	 DWORD PTR __Val$[ebp]
  00007	8b f1		 mov	 esi, ecx
  00009	ff 75 08	 push	 DWORD PTR __Count$[ebp]
  0000c	33 c0		 xor	 eax, eax
  0000e	89 06		 mov	 DWORD PTR [esi], eax
  00010	89 46 04	 mov	 DWORD PTR [esi+4], eax
  00013	89 46 08	 mov	 DWORD PTR [esi+8], eax
  00016	e8 00 00 00 00	 call	 ?_Construct_n@?$vector@IV?$allocator@I@std@@@std@@QAEXIPBI@Z ; std::vector<unsigned int,std::allocator<unsigned int> >::_Construct_n

; 531  : 		}

  0001b	8b c6		 mov	 eax, esi
  0001d	5e		 pop	 esi
  0001e	5d		 pop	 ebp
  0001f	c2 0c 00	 ret	 12			; 0000000cH
??0?$vector@IV?$allocator@I@std@@@std@@QAE@IABIABV?$allocator@I@1@@Z ENDP ; std::vector<unsigned int,std::allocator<unsigned int> >::vector<unsigned int,std::allocator<unsigned int> >
_TEXT	ENDS
PUBLIC	??$copy_backward@V?$_Vb_iterator@V?$allocator@_N@std@@@std@@V12@@std@@YA?AV?$_Vb_iterator@V?$allocator@_N@std@@@0@V10@00@Z ; std::copy_backward<std::_Vb_iterator<std::allocator<bool> >,std::_Vb_iterator<std::allocator<bool> > >
; Function compile flags: /Ogsp
; File c:\program files (x86)\microsoft visual studio 10.0\vc\include\xutility
;	COMDAT ??$copy_backward@V?$_Vb_iterator@V?$allocator@_N@std@@@std@@V12@@std@@YA?AV?$_Vb_iterator@V?$allocator@_N@std@@@0@V10@00@Z
_TEXT	SEGMENT
$T524514 = -8						; size = 8
___$ReturnUdt$ = 8					; size = 4
__First$ = 12						; size = 8
__Last$ = 20						; size = 8
__Dest$ = 28						; size = 8
??$copy_backward@V?$_Vb_iterator@V?$allocator@_N@std@@@std@@V12@@std@@YA?AV?$_Vb_iterator@V?$allocator@_N@std@@@0@V10@00@Z PROC ; std::copy_backward<std::_Vb_iterator<std::allocator<bool> >,std::_Vb_iterator<std::allocator<bool> > >, COMDAT

; 2469 : 	{	// copy [_First, _Last) backwards to [..., _Dest)

  00000	55		 push	 ebp
  00001	8b ec		 mov	 ebp, esp
  00003	51		 push	 ecx
  00004	51		 push	 ecx

; 2470 : 	return (_Rechecked(_Dest,
; 2471 : 		_Copy_backward(_Unchecked(_First), _Unchecked(_Last),
; 2472 : 			_Unchecked(_Dest))));

  00005	ff 75 20	 push	 DWORD PTR __Dest$[ebp+4]
  00008	8d 45 f8	 lea	 eax, DWORD PTR $T524514[ebp]
  0000b	ff 75 1c	 push	 DWORD PTR __Dest$[ebp]
  0000e	ff 75 18	 push	 DWORD PTR __Last$[ebp+4]
  00011	ff 75 14	 push	 DWORD PTR __Last$[ebp]
  00014	ff 75 10	 push	 DWORD PTR __First$[ebp+4]
  00017	ff 75 0c	 push	 DWORD PTR __First$[ebp]
  0001a	50		 push	 eax
  0001b	e8 00 00 00 00	 call	 ??$_Copy_backward@V?$_Vb_iterator@V?$allocator@_N@std@@@std@@V12@@std@@YA?AV?$_Vb_iterator@V?$allocator@_N@std@@@0@V10@00@Z ; std::_Copy_backward<std::_Vb_iterator<std::allocator<bool> >,std::_Vb_iterator<std::allocator<bool> > >
  00020	8b 08		 mov	 ecx, DWORD PTR [eax]
  00022	89 4d 1c	 mov	 DWORD PTR __Dest$[ebp], ecx
  00025	8b 48 04	 mov	 ecx, DWORD PTR [eax+4]
  00028	89 4d 20	 mov	 DWORD PTR __Dest$[ebp+4], ecx
  0002b	8b 10		 mov	 edx, DWORD PTR [eax]
  0002d	8b 4d 08	 mov	 ecx, DWORD PTR ___$ReturnUdt$[ebp]
  00030	8b 40 04	 mov	 eax, DWORD PTR [eax+4]
  00033	89 41 04	 mov	 DWORD PTR [ecx+4], eax
  00036	83 c4 1c	 add	 esp, 28			; 0000001cH
  00039	89 11		 mov	 DWORD PTR [ecx], edx
  0003b	8b c1		 mov	 eax, ecx

; 2473 : 	}

  0003d	c9		 leave
  0003e	c3		 ret	 0
??$copy_backward@V?$_Vb_iterator@V?$allocator@_N@std@@@std@@V12@@std@@YA?AV?$_Vb_iterator@V?$allocator@_N@std@@@0@V10@00@Z ENDP ; std::copy_backward<std::_Vb_iterator<std::allocator<bool> >,std::_Vb_iterator<std::allocator<bool> > >
_TEXT	ENDS
PUBLIC	??$_Uninitialized_move@PAVioHashString@@PAV1@V?$allocator@VioHashString@@@std@@@std@@YAPAVioHashString@@PAV1@00AAV?$allocator@VioHashString@@@0@@Z ; std::_Uninitialized_move<ioHashString *,ioHashString *,std::allocator<ioHashString> >
; Function compile flags: /Ogsp
; File c:\program files (x86)\microsoft visual studio 10.0\vc\include\memory
;	COMDAT ??$_Uninitialized_move@PAVioHashString@@PAV1@V?$allocator@VioHashString@@@std@@@std@@YAPAVioHashString@@PAV1@00AAV?$allocator@VioHashString@@@0@@Z
_TEXT	SEGMENT
__Cat$524534 = -4					; size = 1
__First$ = 8						; size = 4
__Last$ = 12						; size = 4
__Dest$ = 16						; size = 4
__Al$ = 20						; size = 4
??$_Uninitialized_move@PAVioHashString@@PAV1@V?$allocator@VioHashString@@@std@@@std@@YAPAVioHashString@@PAV1@00AAV?$allocator@VioHashString@@@0@@Z PROC ; std::_Uninitialized_move<ioHashString *,ioHashString *,std::allocator<ioHashString> >, COMDAT

; 469  : 	{	// move [_First, _Last) to raw _Dest, using _Al

  00000	55		 push	 ebp
  00001	8b ec		 mov	 ebp, esp
  00003	51		 push	 ecx

; 470  : 	return (_Uninit_move(_First, _Last, _Dest, _Al,
; 471  : 		_Val_type(_First), _Ptr_cat(_First, _Dest)));

  00004	ff 75 fc	 push	 DWORD PTR __Cat$524534[ebp]
  00007	6a 00		 push	 0
  00009	ff 75 14	 push	 DWORD PTR __Al$[ebp]
  0000c	ff 75 10	 push	 DWORD PTR __Dest$[ebp]
  0000f	ff 75 0c	 push	 DWORD PTR __Last$[ebp]
  00012	ff 75 08	 push	 DWORD PTR __First$[ebp]
  00015	e8 00 00 00 00	 call	 ??$_Uninit_move@PAVioHashString@@PAV1@V?$allocator@VioHashString@@@std@@V1@@std@@YAPAVioHashString@@PAV1@00AAV?$allocator@VioHashString@@@0@0U_Nonscalar_ptr_iterator_tag@0@@Z ; std::_Uninit_move<ioHashString *,ioHashString *,std::allocator<ioHashString>,ioHashString>
  0001a	83 c4 18	 add	 esp, 24			; 00000018H

; 472  : 	}

  0001d	c9		 leave
  0001e	c3		 ret	 0
??$_Uninitialized_move@PAVioHashString@@PAV1@V?$allocator@VioHashString@@@std@@@std@@YAPAVioHashString@@PAV1@00AAV?$allocator@VioHashString@@@0@@Z ENDP ; std::_Uninitialized_move<ioHashString *,ioHashString *,std::allocator<ioHashString> >
_TEXT	ENDS
PUBLIC	??$_Destroy_range@V?$allocator@VioHashString@@@std@@@std@@YAXPAVioHashString@@0AAV?$allocator@VioHashString@@@0@@Z ; std::_Destroy_range<std::allocator<ioHashString> >
; Function compile flags: /Ogsp
; File c:\program files (x86)\microsoft visual studio 10.0\vc\include\xmemory
;	COMDAT ??$_Destroy_range@V?$allocator@VioHashString@@@std@@@std@@YAXPAVioHashString@@0AAV?$allocator@VioHashString@@@0@@Z
_TEXT	SEGMENT
__First$ = 8						; size = 4
__Last$ = 12						; size = 4
__Al$ = 16						; size = 4
??$_Destroy_range@V?$allocator@VioHashString@@@std@@@std@@YAXPAVioHashString@@0AAV?$allocator@VioHashString@@@0@@Z PROC ; std::_Destroy_range<std::allocator<ioHashString> >, COMDAT

; 87   : 	{	// destroy [_First, _Last)

  00000	55		 push	 ebp
  00001	8b ec		 mov	 ebp, esp
  00003	56		 push	 esi

; 88   : 	_Destroy_range(_First, _Last, _Al, _Ptr_cat(_First, _Last));

  00004	8b 75 08	 mov	 esi, DWORD PTR __First$[ebp]
  00007	eb 0b		 jmp	 SHORT $LN21@Destroy_ra@2
$LL7@Destroy_ra@2:
  00009	8b ce		 mov	 ecx, esi
  0000b	ff 15 00 00 00
	00		 call	 DWORD PTR __imp_??1ioHashString@@QAE@XZ
  00011	83 c6 10	 add	 esi, 16			; 00000010H
$LN21@Destroy_ra@2:
  00014	3b 75 0c	 cmp	 esi, DWORD PTR __Last$[ebp]
  00017	75 f0		 jne	 SHORT $LL7@Destroy_ra@2
  00019	5e		 pop	 esi

; 89   : 	}

  0001a	5d		 pop	 ebp
  0001b	c3		 ret	 0
??$_Destroy_range@V?$allocator@VioHashString@@@std@@@std@@YAXPAVioHashString@@0AAV?$allocator@VioHashString@@@0@@Z ENDP ; std::_Destroy_range<std::allocator<ioHashString> >
_TEXT	ENDS
PUBLIC	??1?$vector@_NV?$allocator@_N@std@@@std@@QAE@XZ	; std::vector<bool,std::allocator<bool> >::~vector<bool,std::allocator<bool> >
; Function compile flags: /Ogsp
; File c:\program files (x86)\microsoft visual studio 10.0\vc\include\vector
;	COMDAT ??1?$vector@_NV?$allocator@_N@std@@@std@@QAE@XZ
_TEXT	SEGMENT
??1?$vector@_NV?$allocator@_N@std@@@std@@QAE@XZ PROC	; std::vector<bool,std::allocator<bool> >::~vector<bool,std::allocator<bool> >, COMDAT
; _this$ = ecx

; 2185 : 		this->_Mysize = 0;

  00000	83 61 10 00	 and	 DWORD PTR [ecx+16], 0

; 2186 : 		}

  00004	e9 00 00 00 00	 jmp	 ?_Tidy@?$vector@IV?$allocator@I@std@@@std@@IAEXXZ ; std::vector<unsigned int,std::allocator<unsigned int> >::_Tidy
??1?$vector@_NV?$allocator@_N@std@@@std@@QAE@XZ ENDP	; std::vector<bool,std::allocator<bool> >::~vector<bool,std::allocator<bool> >
_TEXT	ENDS
PUBLIC	?clear@?$vector@_NV?$allocator@_N@std@@@std@@QAEXXZ ; std::vector<bool,std::allocator<bool> >::clear
; Function compile flags: /Ogsp
;	COMDAT ?clear@?$vector@_NV?$allocator@_N@std@@@std@@QAEXXZ
_TEXT	SEGMENT
$T524619 = -16						; size = 8
$T524616 = -8						; size = 8
?clear@?$vector@_NV?$allocator@_N@std@@@std@@QAEXXZ PROC ; std::vector<bool,std::allocator<bool> >::clear, COMDAT
; _this$ = ecx

; 2488 : 		{	// erase all elements

  00000	55		 push	 ebp
  00001	8b ec		 mov	 ebp, esp
  00003	83 ec 10	 sub	 esp, 16			; 00000010H
  00006	56		 push	 esi

; 2489 : 		erase(begin(), end());

  00007	8d 45 f8	 lea	 eax, DWORD PTR $T524616[ebp]
  0000a	50		 push	 eax
  0000b	8b f1		 mov	 esi, ecx
  0000d	e8 00 00 00 00	 call	 ?end@?$vector@_NV?$allocator@_N@std@@@std@@QAE?AV?$_Vb_iterator@V?$allocator@_N@std@@@2@XZ ; std::vector<bool,std::allocator<bool> >::end
  00012	ff 70 04	 push	 DWORD PTR [eax+4]
  00015	8b 0e		 mov	 ecx, DWORD PTR [esi]
  00017	ff 30		 push	 DWORD PTR [eax]
  00019	33 d2		 xor	 edx, edx
  0001b	52		 push	 edx
  0001c	51		 push	 ecx
  0001d	8d 45 f0	 lea	 eax, DWORD PTR $T524619[ebp]
  00020	50		 push	 eax
  00021	8b ce		 mov	 ecx, esi
  00023	e8 00 00 00 00	 call	 ?erase@?$vector@_NV?$allocator@_N@std@@@std@@QAE?AV?$_Vb_iterator@V?$allocator@_N@std@@@2@V?$_Vb_const_iterator@V?$allocator@_N@std@@@2@0@Z ; std::vector<bool,std::allocator<bool> >::erase
  00028	5e		 pop	 esi

; 2490 : 		}

  00029	c9		 leave
  0002a	c3		 ret	 0
?clear@?$vector@_NV?$allocator@_N@std@@@std@@QAEXXZ ENDP ; std::vector<bool,std::allocator<bool> >::clear
_TEXT	ENDS
PUBLIC	??0?$_Vb_val@V?$allocator@_N@std@@@std@@QAE@I_NV?$allocator@_N@1@@Z ; std::_Vb_val<std::allocator<bool> >::_Vb_val<std::allocator<bool> >
; Function compile flags: /Ogsp
;	COMDAT ??0?$_Vb_val@V?$allocator@_N@std@@@std@@QAE@I_NV?$allocator@_N@1@@Z
_TEXT	SEGMENT
__Count$ = 8						; size = 4
$T524659 = 12						; size = 4
__Val$ = 12						; size = 1
__Al$ = 16						; size = 1
??0?$_Vb_val@V?$allocator@_N@std@@@std@@QAE@I_NV?$allocator@_N@1@@Z PROC ; std::_Vb_val<std::allocator<bool> >::_Vb_val<std::allocator<bool> >, COMDAT
; _this$ = ecx

; 2009 : 		{	// construct _Count * _Val elements with allocator _Al

  00000	55		 push	 ebp
  00001	8b ec		 mov	 ebp, esp
  00003	33 c0		 xor	 eax, eax
  00005	53		 push	 ebx
  00006	33 db		 xor	 ebx, ebx
  00008	38 5d 0c	 cmp	 BYTE PTR __Val$[ebp], bl
  0000b	56		 push	 esi
  0000c	0f 94 c0	 sete	 al
  0000f	8b f1		 mov	 esi, ecx
  00011	89 1e		 mov	 DWORD PTR [esi], ebx
  00013	89 5e 04	 mov	 DWORD PTR [esi+4], ebx
  00016	89 5e 08	 mov	 DWORD PTR [esi+8], ebx
  00019	48		 dec	 eax
  0001a	89 45 0c	 mov	 DWORD PTR $T524659[ebp], eax
  0001d	8d 45 0c	 lea	 eax, DWORD PTR $T524659[ebp]
  00020	50		 push	 eax
  00021	8b 45 08	 mov	 eax, DWORD PTR __Count$[ebp]
  00024	83 c0 1f	 add	 eax, 31			; 0000001fH
  00027	c1 e8 05	 shr	 eax, 5
  0002a	50		 push	 eax
  0002b	e8 00 00 00 00	 call	 ?_Construct_n@?$vector@IV?$allocator@I@std@@@std@@QAEXIPBI@Z ; std::vector<unsigned int,std::allocator<unsigned int> >::_Construct_n

; 2010 : 		_Mysize = 0;

  00030	89 5e 10	 mov	 DWORD PTR [esi+16], ebx

; 2011 : 		}

  00033	8b c6		 mov	 eax, esi
  00035	5e		 pop	 esi
  00036	5b		 pop	 ebx
  00037	5d		 pop	 ebp
  00038	c2 0c 00	 ret	 12			; 0000000cH
??0?$_Vb_val@V?$allocator@_N@std@@@std@@QAE@I_NV?$allocator@_N@1@@Z ENDP ; std::_Vb_val<std::allocator<bool> >::_Vb_val<std::allocator<bool> >
_TEXT	ENDS
PUBLIC	?_Insert_x@?$vector@_NV?$allocator@_N@std@@@std@@QAEIV?$_Vb_const_iterator@V?$allocator@_N@std@@@2@I@Z ; std::vector<bool,std::allocator<bool> >::_Insert_x
; Function compile flags: /Ogsp
;	COMDAT ?_Insert_x@?$vector@_NV?$allocator@_N@std@@@std@@QAEIV?$_Vb_const_iterator@V?$allocator@_N@std@@@2@I@Z
_TEXT	SEGMENT
$T524701 = -32						; size = 8
$T524699 = -24						; size = 8
$T524702 = -16						; size = 8
__Oldend$516548 = -16					; size = 8
$T524700 = -8						; size = 8
__Where$ = 8						; size = 8
__Count$ = 16						; size = 4
?_Insert_x@?$vector@_NV?$allocator@_N@std@@@std@@QAEIV?$_Vb_const_iterator@V?$allocator@_N@std@@@2@I@Z PROC ; std::vector<bool,std::allocator<bool> >::_Insert_x, COMDAT
; _this$ = ecx

; 2546 : 		{	// make room to insert _Count elements at _Where

  00000	55		 push	 ebp
  00001	8b ec		 mov	 ebp, esp
  00003	83 ec 20	 sub	 esp, 32			; 00000020H
  00006	53		 push	 ebx

; 2547 : 		size_type _Off = _Where - begin();
; 2548 : 
; 2549 :  #if _ITERATOR_DEBUG_LEVEL == 2
; 2550 : 		if (end() < _Where)
; 2551 : 			_DEBUG_ERROR("vector<bool> insert iterator outside range");
; 2552 : 		bool _Realloc = capacity() - size() < _Count;
; 2553 :  #endif /* _ITERATOR_DEBUG_LEVEL == 2 */
; 2554 : 
; 2555 : 		if (_Count == 0)

  00007	8b 5d 10	 mov	 ebx, DWORD PTR __Count$[ebp]
  0000a	56		 push	 esi
  0000b	57		 push	 edi
  0000c	8b 7d 08	 mov	 edi, DWORD PTR __Where$[ebp]
  0000f	8b f1		 mov	 esi, ecx
  00011	2b 3e		 sub	 edi, DWORD PTR [esi]
  00013	c1 ff 02	 sar	 edi, 2
  00016	c1 e7 05	 shl	 edi, 5
  00019	03 7d 0c	 add	 edi, DWORD PTR __Where$[ebp+4]
  0001c	85 db		 test	 ebx, ebx
  0001e	0f 84 85 00 00
	00		 je	 $LN1@Insert_x

; 2556 : 			;
; 2557 : 		else if (max_size() - size() < _Count)

  00024	8b 46 10	 mov	 eax, DWORD PTR [esi+16]
  00027	83 c9 ff	 or	 ecx, -1
  0002a	2b c8		 sub	 ecx, eax
  0002c	3b cb		 cmp	 ecx, ebx
  0002e	73 0b		 jae	 SHORT $LN4@Insert_x

; 2558 : 			_Xlen();	// result too long

  00030	68 00 00 00 00	 push	 OFFSET ??_C@_0BG@EOMJEIFA@vector?$DMbool?$DO?5too?5long?$AA@
  00035	ff 15 00 00 00
	00		 call	 DWORD PTR __imp_?_Xlength_error@std@@YAXPBD@Z
$LN55@Insert_x:
$LN4@Insert_x:

; 2559 : 		else
; 2560 : 			{	// worth doing
; 2561 : 			this->_Myvec.resize(this->_Nw(size() + _Count), 0);

  0003b	8d 44 18 1f	 lea	 eax, DWORD PTR [eax+ebx+31]
  0003f	6a 00		 push	 0
  00041	c1 e8 05	 shr	 eax, 5
  00044	50		 push	 eax
  00045	8b ce		 mov	 ecx, esi
  00047	e8 00 00 00 00	 call	 ?resize@?$vector@IV?$allocator@I@std@@@std@@QAEXII@Z ; std::vector<unsigned int,std::allocator<unsigned int> >::resize

; 2562 : 			if (size() == 0)

  0004c	83 7e 10 00	 cmp	 DWORD PTR [esi+16], 0
  00050	75 05		 jne	 SHORT $LN2@Insert_x

; 2563 : 				this->_Mysize += _Count;

  00052	89 5e 10	 mov	 DWORD PTR [esi+16], ebx

; 2564 : 			else

  00055	eb 52		 jmp	 SHORT $LN1@Insert_x
$LN2@Insert_x:

; 2565 : 				{	// make room and copy down suffix
; 2566 : 				iterator _Oldend = end();

  00057	8d 45 f0	 lea	 eax, DWORD PTR __Oldend$516548[ebp]
  0005a	50		 push	 eax
  0005b	8b ce		 mov	 ecx, esi
  0005d	e8 00 00 00 00	 call	 ?end@?$vector@_NV?$allocator@_N@std@@@std@@QAE?AV?$_Vb_iterator@V?$allocator@_N@std@@@2@XZ ; std::vector<bool,std::allocator<bool> >::end

; 2567 : 				this->_Mysize += _Count;

  00062	8b 46 10	 mov	 eax, DWORD PTR [esi+16]

; 2568 : 				_STD copy_backward(begin() + _Off, _Oldend, end());

  00065	83 65 fc 00	 and	 DWORD PTR $T524700[ebp+4], 0
  00069	03 c3		 add	 eax, ebx
  0006b	89 46 10	 mov	 DWORD PTR [esi+16], eax
  0006e	8b 06		 mov	 eax, DWORD PTR [esi]
  00070	89 45 f8	 mov	 DWORD PTR $T524700[ebp], eax
  00073	8d 45 e8	 lea	 eax, DWORD PTR $T524699[ebp]
  00076	50		 push	 eax
  00077	8b ce		 mov	 ecx, esi
  00079	e8 00 00 00 00	 call	 ?end@?$vector@_NV?$allocator@_N@std@@@std@@QAE?AV?$_Vb_iterator@V?$allocator@_N@std@@@2@XZ ; std::vector<bool,std::allocator<bool> >::end
  0007e	8b f0		 mov	 esi, eax
  00080	57		 push	 edi
  00081	8d 45 e0	 lea	 eax, DWORD PTR $T524701[ebp]
  00084	50		 push	 eax
  00085	8d 4d f8	 lea	 ecx, DWORD PTR $T524700[ebp]
  00088	e8 00 00 00 00	 call	 ??H?$_Vb_iterator@V?$allocator@_N@std@@@std@@QBE?AV01@H@Z ; std::_Vb_iterator<std::allocator<bool> >::operator+
  0008d	ff 76 04	 push	 DWORD PTR [esi+4]
  00090	ff 36		 push	 DWORD PTR [esi]
  00092	ff 75 f4	 push	 DWORD PTR __Oldend$516548[ebp+4]
  00095	ff 75 f0	 push	 DWORD PTR __Oldend$516548[ebp]
  00098	ff 70 04	 push	 DWORD PTR [eax+4]
  0009b	ff 30		 push	 DWORD PTR [eax]
  0009d	8d 45 f0	 lea	 eax, DWORD PTR $T524702[ebp]
  000a0	50		 push	 eax
  000a1	e8 00 00 00 00	 call	 ??$copy_backward@V?$_Vb_iterator@V?$allocator@_N@std@@@std@@V12@@std@@YA?AV?$_Vb_iterator@V?$allocator@_N@std@@@0@V10@00@Z ; std::copy_backward<std::_Vb_iterator<std::allocator<bool> >,std::_Vb_iterator<std::allocator<bool> > >
  000a6	83 c4 1c	 add	 esp, 28			; 0000001cH
$LN1@Insert_x:

; 2569 : 				}
; 2570 : 
; 2571 :  #if _ITERATOR_DEBUG_LEVEL == 2
; 2572 : 			_Orphan_range(_Realloc ? 0 : _Off, this->_Mysize);
; 2573 :  #endif /* _ITERATOR_DEBUG_LEVEL == 2 */
; 2574 : 			}
; 2575 : 		return (_Off);

  000a9	8b c7		 mov	 eax, edi
  000ab	5f		 pop	 edi
  000ac	5e		 pop	 esi
  000ad	5b		 pop	 ebx

; 2576 : 		}

  000ae	c9		 leave
  000af	c2 0c 00	 ret	 12			; 0000000cH
$LN54@Insert_x:
?_Insert_x@?$vector@_NV?$allocator@_N@std@@@std@@QAEIV?$_Vb_const_iterator@V?$allocator@_N@std@@@2@I@Z ENDP ; std::vector<bool,std::allocator<bool> >::_Insert_x
_TEXT	ENDS
PUBLIC	??$_Umove@PAVioHashString@@@?$vector@VioHashString@@V?$allocator@VioHashString@@@std@@@std@@IAEPAVioHashString@@PAV2@00@Z ; std::vector<ioHashString,std::allocator<ioHashString> >::_Umove<ioHashString *>
; Function compile flags: /Ogsp
;	COMDAT ??$_Umove@PAVioHashString@@@?$vector@VioHashString@@V?$allocator@VioHashString@@@std@@@std@@IAEPAVioHashString@@PAV2@00@Z
_TEXT	SEGMENT
__First$ = 8						; size = 4
__Last$ = 12						; size = 4
__Ptr$ = 16						; size = 4
??$_Umove@PAVioHashString@@@?$vector@VioHashString@@V?$allocator@VioHashString@@@std@@@std@@IAEPAVioHashString@@PAV2@00@Z PROC ; std::vector<ioHashString,std::allocator<ioHashString> >::_Umove<ioHashString *>, COMDAT
; _this$ = ecx

; 1322 : 		pointer _Umove(_Iter _First, _Iter _Last, pointer _Ptr)

  00000	55		 push	 ebp
  00001	8b ec		 mov	 ebp, esp

; 1323 : 		{	// move initializing [_First, _Last), using allocator
; 1324 : 		return (_Uninitialized_move(_First, _Last,
; 1325 : 			_Ptr, this->_Alval));

  00003	83 c1 0c	 add	 ecx, 12			; 0000000cH
  00006	51		 push	 ecx
  00007	ff 75 10	 push	 DWORD PTR __Ptr$[ebp]
  0000a	ff 75 0c	 push	 DWORD PTR __Last$[ebp]
  0000d	ff 75 08	 push	 DWORD PTR __First$[ebp]
  00010	e8 00 00 00 00	 call	 ??$_Uninitialized_move@PAVioHashString@@PAV1@V?$allocator@VioHashString@@@std@@@std@@YAPAVioHashString@@PAV1@00AAV?$allocator@VioHashString@@@0@@Z ; std::_Uninitialized_move<ioHashString *,ioHashString *,std::allocator<ioHashString> >
  00015	83 c4 10	 add	 esp, 16			; 00000010H

; 1326 : 		}

  00018	5d		 pop	 ebp
  00019	c2 0c 00	 ret	 12			; 0000000cH
??$_Umove@PAVioHashString@@@?$vector@VioHashString@@V?$allocator@VioHashString@@@std@@@std@@IAEPAVioHashString@@PAV2@00@Z ENDP ; std::vector<ioHashString,std::allocator<ioHashString> >::_Umove<ioHashString *>
_TEXT	ENDS
PUBLIC	?_Destroy@?$vector@VioHashString@@V?$allocator@VioHashString@@@std@@@std@@IAEXPAVioHashString@@0@Z ; std::vector<ioHashString,std::allocator<ioHashString> >::_Destroy
; Function compile flags: /Ogsp
;	COMDAT ?_Destroy@?$vector@VioHashString@@V?$allocator@VioHashString@@@std@@@std@@IAEXPAVioHashString@@0@Z
_TEXT	SEGMENT
__First$ = 8						; size = 4
__Last$ = 12						; size = 4
?_Destroy@?$vector@VioHashString@@V?$allocator@VioHashString@@@std@@@std@@IAEXPAVioHashString@@0@Z PROC ; std::vector<ioHashString,std::allocator<ioHashString> >::_Destroy, COMDAT
; _this$ = ecx

; 1269 : 		{	// destroy [_First, _Last) using allocator

  00000	55		 push	 ebp
  00001	8b ec		 mov	 ebp, esp
  00003	56		 push	 esi

; 1270 : 		_Destroy_range(_First, _Last, this->_Alval);

  00004	8b 75 08	 mov	 esi, DWORD PTR __First$[ebp]
  00007	eb 0b		 jmp	 SHORT $LN23@Destroy
$LL9@Destroy:
  00009	8b ce		 mov	 ecx, esi
  0000b	ff 15 00 00 00
	00		 call	 DWORD PTR __imp_??1ioHashString@@QAE@XZ
  00011	83 c6 10	 add	 esi, 16			; 00000010H
$LN23@Destroy:
  00014	3b 75 0c	 cmp	 esi, DWORD PTR __Last$[ebp]
  00017	75 f0		 jne	 SHORT $LL9@Destroy
  00019	5e		 pop	 esi

; 1271 : 		}

  0001a	5d		 pop	 ebp
  0001b	c2 08 00	 ret	 8
?_Destroy@?$vector@VioHashString@@V?$allocator@VioHashString@@@std@@@std@@IAEXPAVioHashString@@0@Z ENDP ; std::vector<ioHashString,std::allocator<ioHashString> >::_Destroy
_TEXT	ENDS
PUBLIC	?reserve@?$vector@VioHashString@@V?$allocator@VioHashString@@@std@@@std@@QAEXI@Z ; std::vector<ioHashString,std::allocator<ioHashString> >::reserve
;	COMDAT xdata$x
; File c:\program files (x86)\microsoft visual studio 10.0\vc\include\xmemory
xdata$x	SEGMENT
__catchsym$?reserve@?$vector@VioHashString@@V?$allocator@VioHashString@@@std@@@std@@QAEXI@Z$2 DD 040H
	DD	00H
	DD	00H
	DD	FLAT:__catch$?reserve@?$vector@VioHashString@@V?$allocator@VioHashString@@@std@@@std@@QAEXI@Z$0
__unwindtable$?reserve@?$vector@VioHashString@@V?$allocator@VioHashString@@@std@@@std@@QAEXI@Z DD 0ffffffffH
	DD	00H
	DD	0ffffffffH
	DD	00H
__tryblocktable$?reserve@?$vector@VioHashString@@V?$allocator@VioHashString@@@std@@@std@@QAEXI@Z DD 00H
	DD	00H
	DD	01H
	DD	01H
	DD	FLAT:__catchsym$?reserve@?$vector@VioHashString@@V?$allocator@VioHashString@@@std@@@std@@QAEXI@Z$2
__ehfuncinfo$?reserve@?$vector@VioHashString@@V?$allocator@VioHashString@@@std@@@std@@QAEXI@Z DD 019930522H
	DD	02H
	DD	FLAT:__unwindtable$?reserve@?$vector@VioHashString@@V?$allocator@VioHashString@@@std@@@std@@QAEXI@Z
	DD	01H
	DD	FLAT:__tryblocktable$?reserve@?$vector@VioHashString@@V?$allocator@VioHashString@@@std@@@std@@QAEXI@Z
	DD	2 DUP(00H)
	DD	00H
	DD	01H
; Function compile flags: /Ogsp
; File c:\program files (x86)\microsoft visual studio 10.0\vc\include\vector
xdata$x	ENDS
;	COMDAT ?reserve@?$vector@VioHashString@@V?$allocator@VioHashString@@@std@@@std@@QAEXI@Z
_TEXT	SEGMENT
tv300 = -24						; size = 4
__Ptr$515999 = -20					; size = 4
__$EHRec$ = -16						; size = 16
$T525005 = 8						; size = 4
__Count$ = 8						; size = 4
?reserve@?$vector@VioHashString@@V?$allocator@VioHashString@@@std@@@std@@QAEXI@Z PROC ; std::vector<ioHashString,std::allocator<ioHashString> >::reserve, COMDAT
; _this$ = ecx

; 746  : 		{	// determine new minimum length of allocated storage

  00000	6a 0c		 push	 12			; 0000000cH
  00002	b8 00 00 00 00	 mov	 eax, __ehhandler$?reserve@?$vector@VioHashString@@V?$allocator@VioHashString@@@std@@@std@@QAEXI@Z
  00007	e8 00 00 00 00	 call	 __EH_prolog3_catch
  0000c	8b f1		 mov	 esi, ecx

; 747  : 		if (max_size() < _Count)

  0000e	8b 5d 08	 mov	 ebx, DWORD PTR __Count$[ebp]
  00011	81 fb ff ff ff
	0f		 cmp	 ebx, 268435455		; 0fffffffH
  00017	76 0b		 jbe	 SHORT $LN5@reserve@2

; 748  : 			_Xlen();	// result too long

  00019	68 00 00 00 00	 push	 OFFSET ??_C@_0BD@OLBABOEK@vector?$DMT?$DO?5too?5long?$AA@
  0001e	ff 15 00 00 00
	00		 call	 DWORD PTR __imp_?_Xlength_error@std@@YAXPBD@Z
$LN59@reserve@2:
$LN5@reserve@2:

; 749  : 		else if (capacity() < _Count)

  00024	8b 46 08	 mov	 eax, DWORD PTR [esi+8]
  00027	2b 06		 sub	 eax, DWORD PTR [esi]
  00029	c1 f8 04	 sar	 eax, 4
  0002c	3b c3		 cmp	 eax, ebx
  0002e	73 7a		 jae	 SHORT $LN3@reserve@2

; 750  : 			{	// not enough room, reallocate
; 751  : 			pointer _Ptr = this->_Alval.allocate(_Count);

  00030	6a 00		 push	 0
  00032	53		 push	 ebx
  00033	e8 00 00 00 00	 call	 ??$_Allocate@VioHashString@@@std@@YAPAVioHashString@@IPAV1@@Z ; std::_Allocate<ioHashString>

; 752  : 
; 753  : 			_TRY_BEGIN
; 754  : 			_Umove(this->_Myfirst, this->_Mylast, _Ptr);

  00038	8b 0e		 mov	 ecx, DWORD PTR [esi]
  0003a	83 65 fc 00	 and	 DWORD PTR __$EHRec$[ebp+12], 0
  0003e	8d 56 0c	 lea	 edx, DWORD PTR [esi+12]
  00041	52		 push	 edx
  00042	89 45 ec	 mov	 DWORD PTR __Ptr$515999[ebp], eax
  00045	ff 75 ec	 push	 DWORD PTR __Ptr$515999[ebp]
  00048	8b 46 04	 mov	 eax, DWORD PTR [esi+4]
  0004b	50		 push	 eax
  0004c	51		 push	 ecx
  0004d	e8 00 00 00 00	 call	 ??$_Uninitialized_move@PAVioHashString@@PAV1@V?$allocator@VioHashString@@@std@@@std@@YAPAVioHashString@@PAV1@00AAV?$allocator@VioHashString@@@0@@Z ; std::_Uninitialized_move<ioHashString *,ioHashString *,std::allocator<ioHashString> >

; 758  : 			_CATCH_END
; 759  : 
; 760  : 			size_type _Size = size();

  00052	8b 4e 04	 mov	 ecx, DWORD PTR [esi+4]
  00055	8b 06		 mov	 eax, DWORD PTR [esi]
  00057	83 4d fc ff	 or	 DWORD PTR __$EHRec$[ebp+12], -1
  0005b	8b f9		 mov	 edi, ecx
  0005d	83 c4 18	 add	 esp, 24			; 00000018H
  00060	2b f8		 sub	 edi, eax
  00062	89 4d e8	 mov	 DWORD PTR tv300[ebp], ecx
  00065	85 c0		 test	 eax, eax
  00067	74 24		 je	 SHORT $LN51@reserve@2

; 761  : 			if (this->_Myfirst != 0)
; 762  : 				{	// destroy and deallocate old array
; 763  : 				_Destroy(this->_Myfirst, this->_Mylast);

  00069	89 45 08	 mov	 DWORD PTR $T525005[ebp], eax
  0006c	3b c1		 cmp	 eax, ecx
  0006e	74 15		 je	 SHORT $LN37@reserve@2
$LN39@reserve@2:
  00070	8b 4d 08	 mov	 ecx, DWORD PTR $T525005[ebp]
  00073	ff 15 00 00 00
	00		 call	 DWORD PTR __imp_??1ioHashString@@QAE@XZ
  00079	83 45 08 10	 add	 DWORD PTR $T525005[ebp], 16 ; 00000010H
  0007d	8b 45 08	 mov	 eax, DWORD PTR $T525005[ebp]
  00080	3b 45 e8	 cmp	 eax, DWORD PTR tv300[ebp]
  00083	75 eb		 jne	 SHORT $LN39@reserve@2
$LN37@reserve@2:

; 764  : 				this->_Alval.deallocate(this->_Myfirst,
; 765  : 					this->_Myend - this->_Myfirst);

  00085	ff 36		 push	 DWORD PTR [esi]
  00087	e8 00 00 00 00	 call	 ??3@YAXPAX@Z		; operator delete
  0008c	59		 pop	 ecx
$LN51@reserve@2:

; 766  : 				}
; 767  : 
; 768  : 			this->_Orphan_all();

  0008d	8b ce		 mov	 ecx, esi
  0008f	ff 15 00 00 00
	00		 call	 DWORD PTR __imp_?_Orphan_all@_Container_base0@std@@QAEXXZ

; 769  : 			this->_Myend = _Ptr + _Count;

  00095	8b 45 ec	 mov	 eax, DWORD PTR __Ptr$515999[ebp]
  00098	c1 e3 04	 shl	 ebx, 4
  0009b	03 d8		 add	 ebx, eax

; 770  : 			this->_Mylast = _Ptr + _Size;

  0009d	83 e7 f0	 and	 edi, -16		; fffffff0H
  000a0	03 f8		 add	 edi, eax
  000a2	89 5e 08	 mov	 DWORD PTR [esi+8], ebx
  000a5	89 7e 04	 mov	 DWORD PTR [esi+4], edi

; 771  : 			this->_Myfirst = _Ptr;

  000a8	89 06		 mov	 DWORD PTR [esi], eax
$LN3@reserve@2:

; 772  : 			}
; 773  : 		}

  000aa	e8 00 00 00 00	 call	 __EH_epilog3
  000af	c2 04 00	 ret	 4
__catch$?reserve@?$vector@VioHashString@@V?$allocator@VioHashString@@@std@@@std@@QAEXI@Z$0:

; 755  : 			_CATCH_ALL
; 756  : 			this->_Alval.deallocate(_Ptr, _Count);

  000b2	ff 75 ec	 push	 DWORD PTR __Ptr$515999[ebp]
  000b5	e8 00 00 00 00	 call	 ??3@YAXPAX@Z		; operator delete
  000ba	59		 pop	 ecx

; 757  : 			_RERAISE;

  000bb	6a 00		 push	 0
  000bd	6a 00		 push	 0
  000bf	e8 00 00 00 00	 call	 __CxxThrowException@8
$LN60@reserve@2:
$LN58@reserve@2:
  000c4	cc		 int	 3
_TEXT	ENDS
;	COMDAT text$x
text$x	SEGMENT
__ehhandler$?reserve@?$vector@VioHashString@@V?$allocator@VioHashString@@@std@@@std@@QAEXI@Z:
  00000	8b 54 24 08	 mov	 edx, DWORD PTR [esp+8]
  00004	8d 42 0c	 lea	 eax, DWORD PTR [edx+12]
  00007	8b 4a e4	 mov	 ecx, DWORD PTR [edx-28]
  0000a	33 c8		 xor	 ecx, eax
  0000c	e8 00 00 00 00	 call	 @__security_check_cookie@4
  00011	b8 00 00 00 00	 mov	 eax, OFFSET __ehfuncinfo$?reserve@?$vector@VioHashString@@V?$allocator@VioHashString@@@std@@@std@@QAEXI@Z
  00016	e9 00 00 00 00	 jmp	 ___CxxFrameHandler3
text$x	ENDS
?reserve@?$vector@VioHashString@@V?$allocator@VioHashString@@@std@@@std@@QAEXI@Z ENDP ; std::vector<ioHashString,std::allocator<ioHashString> >::reserve
PUBLIC	??0?$vector@_NV?$allocator@_N@std@@@std@@QAE@XZ	; std::vector<bool,std::allocator<bool> >::vector<bool,std::allocator<bool> >
; Function compile flags: /Ogsp
;	COMDAT ??0?$vector@_NV?$allocator@_N@std@@@std@@QAE@XZ
_TEXT	SEGMENT
$T525120 = -4						; size = 4
??0?$vector@_NV?$allocator@_N@std@@@std@@QAE@XZ PROC	; std::vector<bool,std::allocator<bool> >::vector<bool,std::allocator<bool> >, COMDAT
; _this$ = ecx

; 2097 : 		{	// construct empty vector

  00000	55		 push	 ebp
  00001	8b ec		 mov	 ebp, esp
  00003	51		 push	 ecx
  00004	56		 push	 esi
  00005	57		 push	 edi
  00006	33 ff		 xor	 edi, edi
  00008	8d 45 fc	 lea	 eax, DWORD PTR $T525120[ebp]
  0000b	8b f1		 mov	 esi, ecx
  0000d	50		 push	 eax
  0000e	57		 push	 edi
  0000f	89 7d fc	 mov	 DWORD PTR $T525120[ebp], edi
  00012	89 3e		 mov	 DWORD PTR [esi], edi
  00014	89 7e 04	 mov	 DWORD PTR [esi+4], edi
  00017	89 7e 08	 mov	 DWORD PTR [esi+8], edi
  0001a	e8 00 00 00 00	 call	 ?_Construct_n@?$vector@IV?$allocator@I@std@@@std@@QAEXIPBI@Z ; std::vector<unsigned int,std::allocator<unsigned int> >::_Construct_n
  0001f	89 7e 10	 mov	 DWORD PTR [esi+16], edi
  00022	5f		 pop	 edi

; 2098 : 		}

  00023	8b c6		 mov	 eax, esi
  00025	5e		 pop	 esi
  00026	c9		 leave
  00027	c3		 ret	 0
??0?$vector@_NV?$allocator@_N@std@@@std@@QAE@XZ ENDP	; std::vector<bool,std::allocator<bool> >::vector<bool,std::allocator<bool> >
_TEXT	ENDS
PUBLIC	?_Reserve@?$vector@VioHashString@@V?$allocator@VioHashString@@@std@@@std@@IAEXI@Z ; std::vector<ioHashString,std::allocator<ioHashString> >::_Reserve
; Function compile flags: /Ogsp
;	COMDAT ?_Reserve@?$vector@VioHashString@@V?$allocator@VioHashString@@@std@@@std@@IAEXI@Z
_TEXT	SEGMENT
__Count$ = 8						; size = 4
?_Reserve@?$vector@VioHashString@@V?$allocator@VioHashString@@@std@@@std@@IAEXI@Z PROC ; std::vector<ioHashString,std::allocator<ioHashString> >::_Reserve, COMDAT
; _this$ = ecx

; 1290 : 		{	// ensure room for _Count new elements, grow exponentially

  00000	55		 push	 ebp
  00001	8b ec		 mov	 ebp, esp
  00003	56		 push	 esi
  00004	8b f1		 mov	 esi, ecx

; 1291 : 		size_type _Size = size();

  00006	8b 0e		 mov	 ecx, DWORD PTR [esi]
  00008	8b 46 04	 mov	 eax, DWORD PTR [esi+4]
  0000b	2b c1		 sub	 eax, ecx

; 1292 : 		if (max_size() - _Count < _Size)

  0000d	ba ff ff ff 0f	 mov	 edx, 268435455		; 0fffffffH
  00012	2b 55 08	 sub	 edx, DWORD PTR __Count$[ebp]
  00015	c1 f8 04	 sar	 eax, 4
  00018	3b d0		 cmp	 edx, eax
  0001a	73 0b		 jae	 SHORT $LN4@Reserve@2

; 1293 : 			_Xlen();

  0001c	68 00 00 00 00	 push	 OFFSET ??_C@_0BD@OLBABOEK@vector?$DMT?$DO?5too?5long?$AA@
  00021	ff 15 00 00 00
	00		 call	 DWORD PTR __imp_?_Xlength_error@std@@YAXPBD@Z
$LN21@Reserve@2:
$LN4@Reserve@2:

; 1294 : 		else if ((_Size += _Count) <= capacity())

  00027	8b 56 08	 mov	 edx, DWORD PTR [esi+8]
  0002a	03 45 08	 add	 eax, DWORD PTR __Count$[ebp]
  0002d	2b d1		 sub	 edx, ecx
  0002f	c1 fa 04	 sar	 edx, 4
  00032	3b c2		 cmp	 eax, edx
  00034	76 10		 jbe	 SHORT $LN1@Reserve@2

; 1295 : 			;
; 1296 : 		else
; 1297 : 			reserve(_Grow_to(_Size));

  00036	50		 push	 eax
  00037	8b ce		 mov	 ecx, esi
  00039	e8 00 00 00 00	 call	 ?_Grow_to@?$vector@VioHashString@@V?$allocator@VioHashString@@@std@@@std@@IBEII@Z ; std::vector<ioHashString,std::allocator<ioHashString> >::_Grow_to
  0003e	50		 push	 eax
  0003f	8b ce		 mov	 ecx, esi
  00041	e8 00 00 00 00	 call	 ?reserve@?$vector@VioHashString@@V?$allocator@VioHashString@@@std@@@std@@QAEXI@Z ; std::vector<ioHashString,std::allocator<ioHashString> >::reserve
$LN1@Reserve@2:
  00046	5e		 pop	 esi

; 1298 : 		}

  00047	5d		 pop	 ebp
  00048	c2 04 00	 ret	 4
$LN20@Reserve@2:
?_Reserve@?$vector@VioHashString@@V?$allocator@VioHashString@@@std@@@std@@IAEXI@Z ENDP ; std::vector<ioHashString,std::allocator<ioHashString> >::_Reserve
_TEXT	ENDS
PUBLIC	?_Insert_n@?$vector@_NV?$allocator@_N@std@@@std@@QAEXV?$_Vb_const_iterator@V?$allocator@_N@std@@@2@I_N@Z ; std::vector<bool,std::allocator<bool> >::_Insert_n
; Function compile flags: /Ogsp
;	COMDAT ?_Insert_n@?$vector@_NV?$allocator@_N@std@@@std@@QAEXV?$_Vb_const_iterator@V?$allocator@_N@std@@@2@I_N@Z
_TEXT	SEGMENT
$T525170 = -24						; size = 8
$T525171 = -16						; size = 8
$T525172 = -8						; size = 8
$T525169 = -8						; size = 8
__Where$ = 8						; size = 8
__Count$ = 16						; size = 4
__Val$ = 20						; size = 1
?_Insert_n@?$vector@_NV?$allocator@_N@std@@@std@@QAEXV?$_Vb_const_iterator@V?$allocator@_N@std@@@2@I_N@Z PROC ; std::vector<bool,std::allocator<bool> >::_Insert_n, COMDAT
; _this$ = ecx

; 2540 : 		{	// insert _Count * _Val at _Where

  00000	55		 push	 ebp
  00001	8b ec		 mov	 ebp, esp
  00003	83 ec 18	 sub	 esp, 24			; 00000018H
  00006	53		 push	 ebx

; 2541 : 		size_type _Off = _Insert_x(_Where, _Count);

  00007	8b 5d 10	 mov	 ebx, DWORD PTR __Count$[ebp]
  0000a	56		 push	 esi
  0000b	57		 push	 edi
  0000c	53		 push	 ebx
  0000d	ff 75 0c	 push	 DWORD PTR __Where$[ebp+4]
  00010	8b f1		 mov	 esi, ecx
  00012	ff 75 08	 push	 DWORD PTR __Where$[ebp]
  00015	e8 00 00 00 00	 call	 ?_Insert_x@?$vector@_NV?$allocator@_N@std@@@std@@QAEIV?$_Vb_const_iterator@V?$allocator@_N@std@@@2@I@Z ; std::vector<bool,std::allocator<bool> >::_Insert_x

; 2542 : 		_STD fill(begin() + _Off, begin() + (_Off + _Count), _Val);

  0001a	83 65 fc 00	 and	 DWORD PTR $T525169[ebp+4], 0
  0001e	83 65 f4 00	 and	 DWORD PTR $T525171[ebp+4], 0
  00022	8b f8		 mov	 edi, eax
  00024	8b 06		 mov	 eax, DWORD PTR [esi]
  00026	89 45 f8	 mov	 DWORD PTR $T525169[ebp], eax
  00029	89 45 f0	 mov	 DWORD PTR $T525171[ebp], eax
  0002c	8d 04 1f	 lea	 eax, DWORD PTR [edi+ebx]
  0002f	50		 push	 eax
  00030	8d 45 e8	 lea	 eax, DWORD PTR $T525170[ebp]
  00033	50		 push	 eax
  00034	8d 4d f8	 lea	 ecx, DWORD PTR $T525169[ebp]
  00037	e8 00 00 00 00	 call	 ??H?$_Vb_iterator@V?$allocator@_N@std@@@std@@QBE?AV01@H@Z ; std::_Vb_iterator<std::allocator<bool> >::operator+
  0003c	8b 30		 mov	 esi, DWORD PTR [eax]
  0003e	8b 58 04	 mov	 ebx, DWORD PTR [eax+4]
  00041	57		 push	 edi
  00042	8d 45 f8	 lea	 eax, DWORD PTR $T525172[ebp]
  00045	50		 push	 eax
  00046	8d 4d f0	 lea	 ecx, DWORD PTR $T525171[ebp]
  00049	e8 00 00 00 00	 call	 ??H?$_Vb_iterator@V?$allocator@_N@std@@@std@@QBE?AV01@H@Z ; std::_Vb_iterator<std::allocator<bool> >::operator+
  0004e	8d 4d 14	 lea	 ecx, DWORD PTR __Val$[ebp]
  00051	51		 push	 ecx
  00052	53		 push	 ebx
  00053	56		 push	 esi
  00054	ff 70 04	 push	 DWORD PTR [eax+4]
  00057	ff 30		 push	 DWORD PTR [eax]
  00059	e8 00 00 00 00	 call	 ??$_Fill@V?$_Vb_iterator@V?$allocator@_N@std@@@std@@_N@std@@YAXV?$_Vb_iterator@V?$allocator@_N@std@@@0@0AB_N@Z ; std::_Fill<std::_Vb_iterator<std::allocator<bool> >,bool>
  0005e	83 c4 14	 add	 esp, 20			; 00000014H
  00061	5f		 pop	 edi
  00062	5e		 pop	 esi
  00063	5b		 pop	 ebx

; 2543 : 		}

  00064	c9		 leave
  00065	c2 10 00	 ret	 16			; 00000010H
?_Insert_n@?$vector@_NV?$allocator@_N@std@@@std@@QAEXV?$_Vb_const_iterator@V?$allocator@_N@std@@@2@I_N@Z ENDP ; std::vector<bool,std::allocator<bool> >::_Insert_n
_TEXT	ENDS
PUBLIC	?erase@?$vector@VioHashString@@V?$allocator@VioHashString@@@std@@@std@@QAE?AV?$_Vector_iterator@V?$_Vector_val@VioHashString@@V?$allocator@VioHashString@@@std@@@std@@@2@V?$_Vector_const_iterator@V?$_Vector_val@VioHashString@@V?$allocator@VioHashString@@@std@@@std@@@2@0@Z ; std::vector<ioHashString,std::allocator<ioHashString> >::erase
; Function compile flags: /Ogsp
;	COMDAT ?erase@?$vector@VioHashString@@V?$allocator@VioHashString@@@std@@@std@@QAE?AV?$_Vector_iterator@V?$_Vector_val@VioHashString@@V?$allocator@VioHashString@@@std@@@std@@@2@V?$_Vector_const_iterator@V?$_Vector_val@VioHashString@@V?$allocator@VioHashString@@@std@@@std@@@2@0@Z
_TEXT	SEGMENT
$T525394 = -4						; size = 4
___$ReturnUdt$ = 8					; size = 4
__First_arg$ = 12					; size = 4
__Cat$525339 = 16					; size = 1
__Last_arg$ = 16					; size = 4
?erase@?$vector@VioHashString@@V?$allocator@VioHashString@@@std@@@std@@QAE?AV?$_Vector_iterator@V?$_Vector_val@VioHashString@@V?$allocator@VioHashString@@@std@@@std@@@2@V?$_Vector_const_iterator@V?$_Vector_val@VioHashString@@V?$allocator@VioHashString@@@std@@@std@@@2@0@Z PROC ; std::vector<ioHashString,std::allocator<ioHashString> >::erase, COMDAT
; _this$ = ecx

; 1190 : 		{	// erase [_First, _Last)

  00000	55		 push	 ebp
  00001	8b ec		 mov	 ebp, esp
  00003	51		 push	 ecx

; 1191 : 		iterator _First = _Make_iter(_First_arg);

  00004	8b 45 08	 mov	 eax, DWORD PTR ___$ReturnUdt$[ebp]
  00007	56		 push	 esi
  00008	8b f1		 mov	 esi, ecx
  0000a	8b 4d 0c	 mov	 ecx, DWORD PTR __First_arg$[ebp]
  0000d	89 08		 mov	 DWORD PTR [eax], ecx

; 1192 : 		iterator _Last = _Make_iter(_Last_arg);
; 1193 : 
; 1194 : 		if (_First != _Last)

  0000f	3b 4d 10	 cmp	 ecx, DWORD PTR __Last_arg$[ebp]
  00012	74 38		 je	 SHORT $LN1@erase@4

; 1195 : 			{	// worth doing, copy down over hole
; 1196 :  #if _ITERATOR_DEBUG_LEVEL == 2
; 1197 : 			if (_Last < _First || _VICONT(_First) != this
; 1198 : 				|| _VIPTR(_First) < this->_Myfirst
; 1199 : 				|| this->_Mylast < _VIPTR(_Last))
; 1200 : 				_DEBUG_ERROR("vector erase iterator outside range");
; 1201 : 			pointer _Ptr = _Move(_VIPTR(_Last), this->_Mylast,
; 1202 : 				_VIPTR(_First));
; 1203 : 			_Orphan_range(_VIPTR(_First), this->_Mylast);
; 1204 : 
; 1205 :  #else /* _ITERATOR_DEBUG_LEVEL == 2 */
; 1206 : 			pointer _Ptr = _Move(_VIPTR(_Last), this->_Mylast,
; 1207 : 				_VIPTR(_First));

  00014	8b 46 04	 mov	 eax, DWORD PTR [esi+4]
  00017	53		 push	 ebx
  00018	57		 push	 edi
  00019	ff 75 10	 push	 DWORD PTR __Cat$525339[ebp]
  0001c	51		 push	 ecx
  0001d	50		 push	 eax
  0001e	ff 75 10	 push	 DWORD PTR __Last_arg$[ebp]
  00021	e8 00 00 00 00	 call	 ??$_Move@PAVioHashString@@PAV1@@std@@YAPAVioHashString@@PAV1@00U_Nonscalar_ptr_iterator_tag@0@@Z ; std::_Move<ioHashString *,ioHashString *>

; 1208 :  #endif /* _ITERATOR_DEBUG_LEVEL == 2 */
; 1209 : 
; 1210 : 			_Destroy(_Ptr, this->_Mylast);

  00026	8b 7e 04	 mov	 edi, DWORD PTR [esi+4]
  00029	8b d8		 mov	 ebx, eax
  0002b	83 c4 10	 add	 esp, 16			; 00000010H
  0002e	89 5d fc	 mov	 DWORD PTR $T525394[ebp], ebx
  00031	3b df		 cmp	 ebx, edi
  00033	74 12		 je	 SHORT $LN36@erase@4
$LL52@erase@4:
  00035	8b 4d fc	 mov	 ecx, DWORD PTR $T525394[ebp]
  00038	ff 15 00 00 00
	00		 call	 DWORD PTR __imp_??1ioHashString@@QAE@XZ
  0003e	83 45 fc 10	 add	 DWORD PTR $T525394[ebp], 16 ; 00000010H
  00042	39 7d fc	 cmp	 DWORD PTR $T525394[ebp], edi
  00045	75 ee		 jne	 SHORT $LL52@erase@4
$LN36@erase@4:

; 1211 : 			this->_Mylast = _Ptr;

  00047	5f		 pop	 edi
  00048	89 5e 04	 mov	 DWORD PTR [esi+4], ebx
  0004b	5b		 pop	 ebx
$LN1@erase@4:

; 1212 : 			}
; 1213 : 		return (_First);

  0004c	8b 45 08	 mov	 eax, DWORD PTR ___$ReturnUdt$[ebp]
  0004f	5e		 pop	 esi

; 1214 : 		}

  00050	c9		 leave
  00051	c2 0c 00	 ret	 12			; 0000000cH
?erase@?$vector@VioHashString@@V?$allocator@VioHashString@@@std@@@std@@QAE?AV?$_Vector_iterator@V?$_Vector_val@VioHashString@@V?$allocator@VioHashString@@@std@@@std@@@2@V?$_Vector_const_iterator@V?$_Vector_val@VioHashString@@V?$allocator@VioHashString@@@std@@@std@@@2@0@Z ENDP ; std::vector<ioHashString,std::allocator<ioHashString> >::erase
_TEXT	ENDS
PUBLIC	?_Tidy@?$vector@VioHashString@@V?$allocator@VioHashString@@@std@@@std@@IAEXXZ ; std::vector<ioHashString,std::allocator<ioHashString> >::_Tidy
; Function compile flags: /Ogsp
;	COMDAT ?_Tidy@?$vector@VioHashString@@V?$allocator@VioHashString@@@std@@@std@@IAEXXZ
_TEXT	SEGMENT
?_Tidy@?$vector@VioHashString@@V?$allocator@VioHashString@@@std@@@std@@IAEXXZ PROC ; std::vector<ioHashString,std::allocator<ioHashString> >::_Tidy, COMDAT
; _this$ = ecx

; 1301 : 		{	// free all storage

  00000	56		 push	 esi
  00001	8b f1		 mov	 esi, ecx

; 1302 : 		if (this->_Myfirst != 0)

  00003	83 3e 00	 cmp	 DWORD PTR [esi], 0
  00006	74 28		 je	 SHORT $LN24@Tidy@3

; 1303 : 			{	// something to free, destroy and deallocate it
; 1304 : 			this->_Orphan_all();

  00008	53		 push	 ebx
  00009	57		 push	 edi
  0000a	ff 15 00 00 00
	00		 call	 DWORD PTR __imp_?_Orphan_all@_Container_base0@std@@QAEXXZ

; 1305 : 			_Destroy(this->_Myfirst, this->_Mylast);

  00010	8b 5e 04	 mov	 ebx, DWORD PTR [esi+4]
  00013	8b 3e		 mov	 edi, DWORD PTR [esi]
  00015	eb 0b		 jmp	 SHORT $LN28@Tidy@3
$LL12@Tidy@3:
  00017	8b cf		 mov	 ecx, edi
  00019	ff 15 00 00 00
	00		 call	 DWORD PTR __imp_??1ioHashString@@QAE@XZ
  0001f	83 c7 10	 add	 edi, 16			; 00000010H
$LN28@Tidy@3:
  00022	3b fb		 cmp	 edi, ebx
  00024	75 f1		 jne	 SHORT $LL12@Tidy@3

; 1306 : 			this->_Alval.deallocate(this->_Myfirst,
; 1307 : 				this->_Myend - this->_Myfirst);

  00026	ff 36		 push	 DWORD PTR [esi]
  00028	e8 00 00 00 00	 call	 ??3@YAXPAX@Z		; operator delete
  0002d	59		 pop	 ecx
  0002e	5f		 pop	 edi
  0002f	5b		 pop	 ebx
$LN24@Tidy@3:

; 1308 : 			}
; 1309 : 		this->_Myfirst = 0;

  00030	33 c0		 xor	 eax, eax
  00032	89 06		 mov	 DWORD PTR [esi], eax

; 1310 : 		this->_Mylast = 0;

  00034	89 46 04	 mov	 DWORD PTR [esi+4], eax

; 1311 : 		this->_Myend = 0;

  00037	89 46 08	 mov	 DWORD PTR [esi+8], eax
  0003a	5e		 pop	 esi

; 1312 : 		}

  0003b	c3		 ret	 0
?_Tidy@?$vector@VioHashString@@V?$allocator@VioHashString@@@std@@@std@@IAEXXZ ENDP ; std::vector<ioHashString,std::allocator<ioHashString> >::_Tidy
_TEXT	ENDS
PUBLIC	?push_back@?$vector@VioHashString@@V?$allocator@VioHashString@@@std@@@std@@QAEXABVioHashString@@@Z ; std::vector<ioHashString,std::allocator<ioHashString> >::push_back
; Function compile flags: /Ogsp
;	COMDAT ?push_back@?$vector@VioHashString@@V?$allocator@VioHashString@@@std@@@std@@QAEXABVioHashString@@@Z
_TEXT	SEGMENT
__Val$ = 8						; size = 4
?push_back@?$vector@VioHashString@@V?$allocator@VioHashString@@@std@@@std@@QAEXABVioHashString@@@Z PROC ; std::vector<ioHashString,std::allocator<ioHashString> >::push_back, COMDAT
; _this$ = ecx

; 976  : 		{	// insert element at end

  00000	55		 push	 ebp
  00001	8b ec		 mov	 ebp, esp
  00003	56		 push	 esi
  00004	8b f1		 mov	 esi, ecx

; 977  : 		if (_Inside(_STD addressof(_Val)))

  00006	8b 46 04	 mov	 eax, DWORD PTR [esi+4]
  00009	57		 push	 edi
  0000a	8b 7d 08	 mov	 edi, DWORD PTR __Val$[ebp]
  0000d	3b f8		 cmp	 edi, eax
  0000f	73 29		 jae	 SHORT $LN4@push_back@3
  00011	8b 0e		 mov	 ecx, DWORD PTR [esi]
  00013	3b cf		 cmp	 ecx, edi
  00015	77 23		 ja	 SHORT $LN4@push_back@3

; 978  : 			{	// push back an element
; 979  : 			size_type _Idx = _STD addressof(_Val) - this->_Myfirst;

  00017	2b f9		 sub	 edi, ecx

; 980  : 			if (this->_Mylast == this->_Myend)

  00019	3b 46 08	 cmp	 eax, DWORD PTR [esi+8]
  0001c	75 09		 jne	 SHORT $LN3@push_back@3

; 981  : 				_Reserve(1);

  0001e	6a 01		 push	 1
  00020	8b ce		 mov	 ecx, esi
  00022	e8 00 00 00 00	 call	 ?_Reserve@?$vector@VioHashString@@V?$allocator@VioHashString@@@std@@@std@@IAEXI@Z ; std::vector<ioHashString,std::allocator<ioHashString> >::_Reserve
$LN3@push_back@3:

; 982  : 			_Orphan_range(this->_Mylast, this->_Mylast);
; 983  : 			_Cons_val(this->_Alval,
; 984  : 				this->_Mylast,
; 985  : 				this->_Myfirst[_Idx]);

  00027	83 e7 f0	 and	 edi, -16		; fffffff0H
  0002a	03 3e		 add	 edi, DWORD PTR [esi]
  0002c	8d 4e 0c	 lea	 ecx, DWORD PTR [esi+12]
  0002f	57		 push	 edi
  00030	ff 76 04	 push	 DWORD PTR [esi+4]
  00033	e8 00 00 00 00	 call	 ??$construct@AAVioHashString@@@?$allocator@VioHashString@@@std@@QAEXPAVioHashString@@AAV2@@Z ; std::allocator<ioHashString>::construct<ioHashString &>

; 986  : 			++this->_Mylast;
; 987  : 			}
; 988  : 		else

  00038	eb 19		 jmp	 SHORT $LN30@push_back@3
$LN4@push_back@3:

; 989  : 			{	// push back a non-element
; 990  : 			if (this->_Mylast == this->_Myend)

  0003a	3b 46 08	 cmp	 eax, DWORD PTR [esi+8]
  0003d	75 09		 jne	 SHORT $LN1@push_back@3

; 991  : 				_Reserve(1);

  0003f	6a 01		 push	 1
  00041	8b ce		 mov	 ecx, esi
  00043	e8 00 00 00 00	 call	 ?_Reserve@?$vector@VioHashString@@V?$allocator@VioHashString@@@std@@@std@@IAEXI@Z ; std::vector<ioHashString,std::allocator<ioHashString> >::_Reserve
$LN1@push_back@3:

; 992  : 			_Orphan_range(this->_Mylast, this->_Mylast);
; 993  : 			_Cons_val(this->_Alval,
; 994  : 				this->_Mylast,
; 995  : 				_Val);

  00048	57		 push	 edi
  00049	ff 76 04	 push	 DWORD PTR [esi+4]
  0004c	e8 00 00 00 00	 call	 ??$_Construct@VioHashString@@ABV1@@std@@YAXPAVioHashString@@ABV1@@Z ; std::_Construct<ioHashString,ioHashString const &>
  00051	59		 pop	 ecx
  00052	59		 pop	 ecx
$LN30@push_back@3:

; 996  : 			++this->_Mylast;

  00053	83 46 04 10	 add	 DWORD PTR [esi+4], 16	; 00000010H
  00057	5f		 pop	 edi
  00058	5e		 pop	 esi

; 997  : 			}
; 998  : 		}

  00059	5d		 pop	 ebp
  0005a	c2 04 00	 ret	 4
?push_back@?$vector@VioHashString@@V?$allocator@VioHashString@@@std@@@std@@QAEXABVioHashString@@@Z ENDP ; std::vector<ioHashString,std::allocator<ioHashString> >::push_back
_TEXT	ENDS
PUBLIC	?insert@?$vector@_NV?$allocator@_N@std@@@std@@QAE?AV?$_Vb_iterator@V?$allocator@_N@std@@@2@V?$_Vb_const_iterator@V?$allocator@_N@std@@@2@_N@Z ; std::vector<bool,std::allocator<bool> >::insert
; Function compile flags: /Ogsp
;	COMDAT ?insert@?$vector@_NV?$allocator@_N@std@@@std@@QAE?AV?$_Vb_iterator@V?$allocator@_N@std@@@2@V?$_Vb_const_iterator@V?$allocator@_N@std@@@2@_N@Z
_TEXT	SEGMENT
___$ReturnUdt$ = 8					; size = 4
$T525597 = 12						; size = 8
__Where$ = 12						; size = 8
__Val$ = 20						; size = 1
?insert@?$vector@_NV?$allocator@_N@std@@@std@@QAE?AV?$_Vb_iterator@V?$allocator@_N@std@@@2@V?$_Vb_const_iterator@V?$allocator@_N@std@@@2@_N@Z PROC ; std::vector<bool,std::allocator<bool> >::insert, COMDAT
; _this$ = ecx

; 2397 : 		{	// insert _Val at _Where

  00000	55		 push	 ebp
  00001	8b ec		 mov	 ebp, esp
  00003	56		 push	 esi

; 2398 : 		size_type _Off = _Where - begin();

  00004	8b 75 0c	 mov	 esi, DWORD PTR __Where$[ebp]
  00007	57		 push	 edi

; 2399 : 		_Insert_n(_Where, (size_type)1, _Val);

  00008	ff 75 14	 push	 DWORD PTR __Val$[ebp]
  0000b	8b f9		 mov	 edi, ecx
  0000d	2b 37		 sub	 esi, DWORD PTR [edi]
  0000f	6a 01		 push	 1
  00011	ff 75 10	 push	 DWORD PTR __Where$[ebp+4]
  00014	c1 fe 02	 sar	 esi, 2
  00017	ff 75 0c	 push	 DWORD PTR __Where$[ebp]
  0001a	c1 e6 05	 shl	 esi, 5
  0001d	03 75 10	 add	 esi, DWORD PTR __Where$[ebp+4]
  00020	e8 00 00 00 00	 call	 ?_Insert_n@?$vector@_NV?$allocator@_N@std@@@std@@QAEXV?$_Vb_const_iterator@V?$allocator@_N@std@@@2@I_N@Z ; std::vector<bool,std::allocator<bool> >::_Insert_n

; 2400 : 		return (begin() + _Off);

  00025	8b 07		 mov	 eax, DWORD PTR [edi]
  00027	83 65 10 00	 and	 DWORD PTR $T525597[ebp+4], 0
  0002b	56		 push	 esi
  0002c	ff 75 08	 push	 DWORD PTR ___$ReturnUdt$[ebp]
  0002f	8d 4d 0c	 lea	 ecx, DWORD PTR $T525597[ebp]
  00032	89 45 0c	 mov	 DWORD PTR $T525597[ebp], eax
  00035	e8 00 00 00 00	 call	 ??H?$_Vb_iterator@V?$allocator@_N@std@@@std@@QBE?AV01@H@Z ; std::_Vb_iterator<std::allocator<bool> >::operator+
  0003a	8b 45 08	 mov	 eax, DWORD PTR ___$ReturnUdt$[ebp]
  0003d	5f		 pop	 edi
  0003e	5e		 pop	 esi

; 2401 : 		}

  0003f	5d		 pop	 ebp
  00040	c2 10 00	 ret	 16			; 00000010H
?insert@?$vector@_NV?$allocator@_N@std@@@std@@QAE?AV?$_Vb_iterator@V?$allocator@_N@std@@@2@V?$_Vb_const_iterator@V?$allocator@_N@std@@@2@_N@Z ENDP ; std::vector<bool,std::allocator<bool> >::insert
_TEXT	ENDS
PUBLIC	??1?$vector@VioHashString@@V?$allocator@VioHashString@@@std@@@std@@QAE@XZ ; std::vector<ioHashString,std::allocator<ioHashString> >::~vector<ioHashString,std::allocator<ioHashString> >
; Function compile flags: /Ogsp
;	COMDAT ??1?$vector@VioHashString@@V?$allocator@VioHashString@@@std@@@std@@QAE@XZ
_TEXT	SEGMENT
??1?$vector@VioHashString@@V?$allocator@VioHashString@@@std@@@std@@QAE@XZ PROC ; std::vector<ioHashString,std::allocator<ioHashString> >::~vector<ioHashString,std::allocator<ioHashString> >, COMDAT
; _this$ = ecx

; 705  : 		_Tidy();

  00000	e9 00 00 00 00	 jmp	 ?_Tidy@?$vector@VioHashString@@V?$allocator@VioHashString@@@std@@@std@@IAEXXZ ; std::vector<ioHashString,std::allocator<ioHashString> >::_Tidy
??1?$vector@VioHashString@@V?$allocator@VioHashString@@@std@@@std@@QAE@XZ ENDP ; std::vector<ioHashString,std::allocator<ioHashString> >::~vector<ioHashString,std::allocator<ioHashString> >
_TEXT	ENDS
PUBLIC	?clear@?$vector@VioHashString@@V?$allocator@VioHashString@@@std@@@std@@QAEXXZ ; std::vector<ioHashString,std::allocator<ioHashString> >::clear
; Function compile flags: /Ogsp
;	COMDAT ?clear@?$vector@VioHashString@@V?$allocator@VioHashString@@@std@@@std@@QAEXXZ
_TEXT	SEGMENT
$T525691 = -4						; size = 4
?clear@?$vector@VioHashString@@V?$allocator@VioHashString@@@std@@@std@@QAEXXZ PROC ; std::vector<ioHashString,std::allocator<ioHashString> >::clear, COMDAT
; _this$ = ecx

; 1217 : 		{	// erase all

  00000	55		 push	 ebp
  00001	8b ec		 mov	 ebp, esp
  00003	51		 push	 ecx

; 1218 : 		erase(begin(), end());

  00004	8b 41 04	 mov	 eax, DWORD PTR [ecx+4]
  00007	8b 11		 mov	 edx, DWORD PTR [ecx]
  00009	50		 push	 eax
  0000a	52		 push	 edx
  0000b	8d 45 fc	 lea	 eax, DWORD PTR $T525691[ebp]
  0000e	50		 push	 eax
  0000f	e8 00 00 00 00	 call	 ?erase@?$vector@VioHashString@@V?$allocator@VioHashString@@@std@@@std@@QAE?AV?$_Vector_iterator@V?$_Vector_val@VioHashString@@V?$allocator@VioHashString@@@std@@@std@@@2@V?$_Vector_const_iterator@V?$_Vector_val@VioHashString@@V?$allocator@VioHashString@@@std@@@std@@@2@0@Z ; std::vector<ioHashString,std::allocator<ioHashString> >::erase

; 1219 : 		}

  00014	c9		 leave
  00015	c3		 ret	 0
?clear@?$vector@VioHashString@@V?$allocator@VioHashString@@@std@@@std@@QAEXXZ ENDP ; std::vector<ioHashString,std::allocator<ioHashString> >::clear
_TEXT	ENDS
PUBLIC	??_7GashaponWnd@@6B@				; GashaponWnd::`vftable'
PUBLIC	??0GashaponWnd@@QAE@XZ				; GashaponWnd::GashaponWnd
PUBLIC	??_R4GashaponWnd@@6B@				; GashaponWnd::`RTTI Complete Object Locator'
PUBLIC	??_R0?AVGashaponWnd@@@8				; GashaponWnd `RTTI Type Descriptor'
PUBLIC	??_R3GashaponWnd@@8				; GashaponWnd::`RTTI Class Hierarchy Descriptor'
PUBLIC	??_R2GashaponWnd@@8				; GashaponWnd::`RTTI Base Class Array'
PUBLIC	??_R1A@?0A@EA@GashaponWnd@@8			; GashaponWnd::`RTTI Base Class Descriptor at (0,-1,0,64)'
PUBLIC	??_R1A@?0A@EA@ioWnd@@8				; ioWnd::`RTTI Base Class Descriptor at (0,-1,0,64)'
PUBLIC	??_R3ioWnd@@8					; ioWnd::`RTTI Class Hierarchy Descriptor'
PUBLIC	??_R2ioWnd@@8					; ioWnd::`RTTI Base Class Array'
PUBLIC	?ParseExtraInfo@GashaponWnd@@UAEXAAVioXMLElement@@@Z ; GashaponWnd::ParseExtraInfo
PUBLIC	?iwm_show@GashaponWnd@@UAEXXZ			; GashaponWnd::iwm_show
EXTRN	__imp_??1ioWnd@@UAE@XZ:PROC
EXTRN	__imp_??0ioWnd@@QAE@XZ:PROC
EXTRN	?AddRenderFrame@ioWnd@@UAEXABVioHashString@@PAVioUIRenderFrame@@@Z:PROC ; ioWnd::AddRenderFrame
EXTRN	?AddTooltipHelp@ioWnd@@UAEXABVioHashString@@00@Z:PROC ; ioWnd::AddTooltipHelp
EXTRN	?AddNamedRenderImage@ioWnd@@UAEXABVioHashString@@PAVioUIRenderImage@@@Z:PROC ; ioWnd::AddNamedRenderImage
EXTRN	?RemoveNamedRenderImage@ioWnd@@UAEXABVioHashString@@@Z:PROC ; ioWnd::RemoveNamedRenderImage
EXTRN	?GetNamedRenderImage@ioWnd@@UBEPAVioUIRenderImage@@ABVioHashString@@@Z:PROC ; ioWnd::GetNamedRenderImage
EXTRN	?SetWindowAlpha@ioWnd@@UAEXH@Z:PROC		; ioWnd::SetWindowAlpha
EXTRN	?SetActive@ioWnd@@UAEXXZ:PROC			; ioWnd::SetActive
EXTRN	?SetInActive@ioWnd@@UAEXXZ:PROC			; ioWnd::SetInActive
EXTRN	?ClearElementImageList@ioWnd@@UAEXXZ:PROC	; ioWnd::ClearElementImageList
EXTRN	?SetSize@ioWnd@@UAEXHH@Z:PROC			; ioWnd::SetSize
EXTRN	?SetPositionToDefault@ioWnd@@UAEXHH_N0@Z:PROC	; ioWnd::SetPositionToDefault
EXTRN	?IsNeedProcess@ioWnd@@UBE_NXZ:PROC		; ioWnd::IsNeedProcess
EXTRN	?IsCanMouseReaction@ioWnd@@UBE_NXZ:PROC		; ioWnd::IsCanMouseReaction
EXTRN	?AddChild@ioWnd@@UAEXPAV1@@Z:PROC		; ioWnd::AddChild
EXTRN	?DeleteChild@ioWnd@@UAEXK@Z:PROC		; ioWnd::DeleteChild
EXTRN	?DeleteAllChild@ioWnd@@UAEXXZ:PROC		; ioWnd::DeleteAllChild
EXTRN	?OnRenderShowAndHide@ioWnd@@MAE_NXZ:PROC	; ioWnd::OnRenderShowAndHide
EXTRN	?OnRenderShowAndHideByDefault@ioWnd@@MAE_NK@Z:PROC ; ioWnd::OnRenderShowAndHideByDefault
EXTRN	?OnRenderShowAndHideByTop@ioWnd@@MAE_NK@Z:PROC	; ioWnd::OnRenderShowAndHideByTop
EXTRN	?OnRenderShowAndHideByDown@ioWnd@@MAE_NK@Z:PROC	; ioWnd::OnRenderShowAndHideByDown
EXTRN	?OnRenderAfterChild@ioWnd@@MAEXXZ:PROC		; ioWnd::OnRenderAfterChild
EXTRN	?OnMouseProcess@ioWnd@@MAEXABVioMouse@@@Z:PROC	; ioWnd::OnMouseProcess
EXTRN	?CheckFrameReSize@ioWnd@@MAEXHHHH@Z:PROC	; ioWnd::CheckFrameReSize
EXTRN	?RenderImageList@ioWnd@@MAEXHHW4UIRenderType@@@Z:PROC ; ioWnd::RenderImageList
EXTRN	?iwm_create@ioWnd@@UAEXXZ:PROC			; ioWnd::iwm_create
EXTRN	?iwm_destroy@ioWnd@@UAEXXZ:PROC			; ioWnd::iwm_destroy
EXTRN	?iwm_lbuttondown@ioWnd@@UAEXABVioMouse@@@Z:PROC	; ioWnd::iwm_lbuttondown
EXTRN	?iwm_lbuttonup@ioWnd@@UAEXABVioMouse@@@Z:PROC	; ioWnd::iwm_lbuttonup
EXTRN	?iwm_lbuttonDBLCLK@ioWnd@@UAEXABVioMouse@@@Z:PROC ; ioWnd::iwm_lbuttonDBLCLK
EXTRN	?iwm_rbuttondown@ioWnd@@UAEXABVioMouse@@@Z:PROC	; ioWnd::iwm_rbuttondown
EXTRN	?iwm_rbuttonup@ioWnd@@UAEXABVioMouse@@@Z:PROC	; ioWnd::iwm_rbuttonup
EXTRN	?iwm_mouseover@ioWnd@@UAEXABVioMouse@@@Z:PROC	; ioWnd::iwm_mouseover
EXTRN	?iwm_mousemove@ioWnd@@UAEXABVioMouse@@@Z:PROC	; ioWnd::iwm_mousemove
EXTRN	?iwm_mouseleave@ioWnd@@UAEXABVioMouse@@@Z:PROC	; ioWnd::iwm_mouseleave
EXTRN	?iwm_vscroll@ioWnd@@UAEXKH@Z:PROC		; ioWnd::iwm_vscroll
EXTRN	?iwm_wheel@ioWnd@@UAEXH@Z:PROC			; ioWnd::iwm_wheel
EXTRN	?iwm_esc@ioWnd@@UAE_NXZ:PROC			; ioWnd::iwm_esc
EXTRN	?iwm_spacebar@ioWnd@@UAE_NXZ:PROC		; ioWnd::iwm_spacebar
EXTRN	?iwm_gototop@ioWnd@@UAEXXZ:PROC			; ioWnd::iwm_gototop
EXTRN	?iwm_dragenter@ioWnd@@UAE?AW4IWDropEffect@@PAVioDragItem@@ABVioMouse@@@Z:PROC ; ioWnd::iwm_dragenter
EXTRN	?iwm_dragover@ioWnd@@UAE?AW4IWDropEffect@@PAVioDragItem@@ABVioMouse@@@Z:PROC ; ioWnd::iwm_dragover
EXTRN	?iwm_dragleave@ioWnd@@UAEXXZ:PROC		; ioWnd::iwm_dragleave
EXTRN	?iwm_dropitem@ioWnd@@UAE_NPAVioDragItem@@ABVioMouse@@PAV1@@Z:PROC ; ioWnd::iwm_dropitem
EXTRN	?iwm_dropdone@ioWnd@@UAEXPAVioDragItem@@PAV1@_N@Z:PROC ; ioWnd::iwm_dropdone
EXTRN	?IsEXType@ioWnd@@UBE_NXZ:PROC			; ioWnd::IsEXType
EXTRN	?GetWndType@ioWnd@@UBEKXZ:PROC			; ioWnd::GetWndType
EXTRN	?RenderWnd@ioWnd@@UAEXXZ:PROC			; ioWnd::RenderWnd
EXTRN	?SetIDEX@ioWnd@@UAEXAAK_N@Z:PROC		; ioWnd::SetIDEX
EXTRN	?ParseXML@ioWnd@@UAEXAAVioXMLElement@@@Z:PROC	; ioWnd::ParseXML
EXTRN	?GetHeaderFileName@ioWnd@@UAEPBDXZ:PROC		; ioWnd::GetHeaderFileName
EXTRN	?GetTemplateName@ioWnd@@UAEPBDXZ:PROC		; ioWnd::GetTemplateName
EXTRN	?GetDefClassName@ioWnd@@UBEPBDXZ:PROC		; ioWnd::GetDefClassName
EXTRN	?_Clone@ioWnd@@UAEPAV1@XZ:PROC			; ioWnd::_Clone
EXTRN	?Copy@ioWnd@@UAEXPAV1@@Z:PROC			; ioWnd::Copy
EXTRN	?Save@ioWnd@@UAE_NAAVioXMLElement@@@Z:PROC	; ioWnd::Save
EXTRN	?SetSaveData@ioWnd@@UAEXAAVioXMLElement@@@Z:PROC ; ioWnd::SetSaveData
EXTRN	?SetPosX@ioWnd@@UAEXH@Z:PROC			; ioWnd::SetPosX
EXTRN	?SetPosY@ioWnd@@UAEXH@Z:PROC			; ioWnd::SetPosY
EXTRN	?SetWidth@ioWnd@@UAEXH@Z:PROC			; ioWnd::SetWidth
EXTRN	?SetHeight@ioWnd@@UAEXH@Z:PROC			; ioWnd::SetHeight
EXTRN	?GetNumFixedRenderFrame@ioWnd@@UBEHXZ:PROC	; ioWnd::GetNumFixedRenderFrame
EXTRN	?GetFixedRenderFrameType@ioWnd@@UAEPBDH@Z:PROC	; ioWnd::GetFixedRenderFrameType
EXTRN	?GetRenderFrame@ioWnd@@UAEPAPAVioUIRenderElement@@PBD@Z:PROC ; ioWnd::GetRenderFrame
EXTRN	?GetNumFixedRenderImage@ioWnd@@UBEHXZ:PROC	; ioWnd::GetNumFixedRenderImage
EXTRN	?GetFixedRenderImageType@ioWnd@@UAEPBDH@Z:PROC	; ioWnd::GetFixedRenderImageType
EXTRN	?GetRenderImage@ioWnd@@UAEPAPAVioUIRenderElement@@PBD@Z:PROC ; ioWnd::GetRenderImage
EXTRN	?AddEffect@ioWnd@@UAEXABVioHashString@@PAVioUI3DEffectRender@@@Z:PROC ; ioWnd::AddEffect
EXTRN	?GetEffect@ioWnd@@UAEPAVioUI3DEffectRender@@VioHashString@@@Z:PROC ; ioWnd::GetEffect
EXTRN	??_EGashaponWnd@@UAEPAXI@Z:PROC			; GashaponWnd::`vector deleting destructor'
;	COMDAT ??_R2ioWnd@@8
; File c:\program files (x86)\microsoft visual studio 10.0\vc\include\xmemory
rdata$r	SEGMENT
??_R2ioWnd@@8 DD FLAT:??_R1A@?0A@EA@ioWnd@@8		; ioWnd::`RTTI Base Class Array'
rdata$r	ENDS
;	COMDAT ??_R3ioWnd@@8
rdata$r	SEGMENT
??_R3ioWnd@@8 DD 00H					; ioWnd::`RTTI Class Hierarchy Descriptor'
	DD	00H
	DD	01H
	DD	FLAT:??_R2ioWnd@@8
rdata$r	ENDS
;	COMDAT ??_R1A@?0A@EA@ioWnd@@8
rdata$r	SEGMENT
??_R1A@?0A@EA@ioWnd@@8 DD FLAT:??_R0?AVioWnd@@@8	; ioWnd::`RTTI Base Class Descriptor at (0,-1,0,64)'
	DD	00H
	DD	00H
	DD	0ffffffffH
	DD	00H
	DD	040H
	DD	FLAT:??_R3ioWnd@@8
rdata$r	ENDS
;	COMDAT ??_R1A@?0A@EA@GashaponWnd@@8
rdata$r	SEGMENT
??_R1A@?0A@EA@GashaponWnd@@8 DD FLAT:??_R0?AVGashaponWnd@@@8 ; GashaponWnd::`RTTI Base Class Descriptor at (0,-1,0,64)'
	DD	01H
	DD	00H
	DD	0ffffffffH
	DD	00H
	DD	040H
	DD	FLAT:??_R3GashaponWnd@@8
rdata$r	ENDS
;	COMDAT ??_R2GashaponWnd@@8
rdata$r	SEGMENT
??_R2GashaponWnd@@8 DD FLAT:??_R1A@?0A@EA@GashaponWnd@@8 ; GashaponWnd::`RTTI Base Class Array'
	DD	FLAT:??_R1A@?0A@EA@ioWnd@@8
rdata$r	ENDS
;	COMDAT ??_R3GashaponWnd@@8
rdata$r	SEGMENT
??_R3GashaponWnd@@8 DD 00H				; GashaponWnd::`RTTI Class Hierarchy Descriptor'
	DD	00H
	DD	02H
	DD	FLAT:??_R2GashaponWnd@@8
rdata$r	ENDS
;	COMDAT ??_R0?AVGashaponWnd@@@8
_DATA	SEGMENT
??_R0?AVGashaponWnd@@@8 DD FLAT:??_7type_info@@6B@	; GashaponWnd `RTTI Type Descriptor'
	DD	00H
	DB	'.?AVGashaponWnd@@', 00H
_DATA	ENDS
;	COMDAT ??_R4GashaponWnd@@6B@
rdata$r	SEGMENT
??_R4GashaponWnd@@6B@ DD 00H				; GashaponWnd::`RTTI Complete Object Locator'
	DD	00H
	DD	00H
	DD	FLAT:??_R0?AVGashaponWnd@@@8
	DD	FLAT:??_R3GashaponWnd@@8
rdata$r	ENDS
;	COMDAT ??_7GashaponWnd@@6B@
CONST	SEGMENT
??_7GashaponWnd@@6B@ DD FLAT:??_R4GashaponWnd@@6B@	; GashaponWnd::`vftable'
	DD	FLAT:?AddRenderFrame@ioWnd@@UAEXABVioHashString@@PAVioUIRenderFrame@@@Z
	DD	FLAT:?AddRenderImage@GashaponWnd@@UAEXABVioHashString@@PAVioUIRenderImage@@@Z
	DD	FLAT:?AddTooltipHelp@ioWnd@@UAEXABVioHashString@@00@Z
	DD	FLAT:?ParseExtraInfo@GashaponWnd@@UAEXAAVioXMLElement@@@Z
	DD	FLAT:?AddNamedRenderImage@ioWnd@@UAEXABVioHashString@@PAVioUIRenderImage@@@Z
	DD	FLAT:?RemoveNamedRenderImage@ioWnd@@UAEXABVioHashString@@@Z
	DD	FLAT:?GetNamedRenderImage@ioWnd@@UBEPAVioUIRenderImage@@ABVioHashString@@@Z
	DD	FLAT:?SetWindowAlpha@ioWnd@@UAEXH@Z
	DD	FLAT:?SetActive@ioWnd@@UAEXXZ
	DD	FLAT:?SetInActive@ioWnd@@UAEXXZ
	DD	FLAT:?ClearElementImageList@ioWnd@@UAEXXZ
	DD	FLAT:?SetSize@ioWnd@@UAEXHH@Z
	DD	FLAT:?SetPositionToDefault@ioWnd@@UAEXHH_N0@Z
	DD	FLAT:?IsNeedProcess@ioWnd@@UBE_NXZ
	DD	FLAT:?IsCanMouseReaction@ioWnd@@UBE_NXZ
	DD	FLAT:?AddChild@ioWnd@@UAEXPAV1@@Z
	DD	FLAT:?DeleteChild@ioWnd@@UAEXK@Z
	DD	FLAT:?DeleteAllChild@ioWnd@@UAEXXZ
	DD	FLAT:?OnRenderShowAndHide@ioWnd@@MAE_NXZ
	DD	FLAT:?OnRenderShowAndHideByDefault@ioWnd@@MAE_NK@Z
	DD	FLAT:?OnRenderShowAndHideByTop@ioWnd@@MAE_NK@Z
	DD	FLAT:?OnRenderShowAndHideByDown@ioWnd@@MAE_NK@Z
	DD	FLAT:?OnRender@GashaponWnd@@MAEXXZ
	DD	FLAT:?OnRenderAfterChild@ioWnd@@MAEXXZ
	DD	FLAT:?OnProcess@GashaponWnd@@MAEXM@Z
	DD	FLAT:?OnMouseProcess@ioWnd@@MAEXABVioMouse@@@Z
	DD	FLAT:?CheckFrameReSize@ioWnd@@MAEXHHHH@Z
	DD	FLAT:?RenderImageList@ioWnd@@MAEXHHW4UIRenderType@@@Z
	DD	FLAT:?iwm_create@ioWnd@@UAEXXZ
	DD	FLAT:?iwm_destroy@ioWnd@@UAEXXZ
	DD	FLAT:?iwm_lbuttondown@ioWnd@@UAEXABVioMouse@@@Z
	DD	FLAT:?iwm_lbuttonup@ioWnd@@UAEXABVioMouse@@@Z
	DD	FLAT:?iwm_lbuttonDBLCLK@ioWnd@@UAEXABVioMouse@@@Z
	DD	FLAT:?iwm_rbuttondown@ioWnd@@UAEXABVioMouse@@@Z
	DD	FLAT:?iwm_rbuttonup@ioWnd@@UAEXABVioMouse@@@Z
	DD	FLAT:?iwm_command@GashaponWnd@@UAEXPAVioWnd@@HK@Z
	DD	FLAT:?iwm_mouseover@ioWnd@@UAEXABVioMouse@@@Z
	DD	FLAT:?iwm_mousemove@ioWnd@@UAEXABVioMouse@@@Z
	DD	FLAT:?iwm_mouseleave@ioWnd@@UAEXABVioMouse@@@Z
	DD	FLAT:?iwm_vscroll@ioWnd@@UAEXKH@Z
	DD	FLAT:?iwm_wheel@ioWnd@@UAEXH@Z
	DD	FLAT:?iwm_show@GashaponWnd@@UAEXXZ
	DD	FLAT:?iwm_hide@GashaponWnd@@UAEXXZ
	DD	FLAT:?iwm_esc@ioWnd@@UAE_NXZ
	DD	FLAT:?iwm_spacebar@ioWnd@@UAE_NXZ
	DD	FLAT:?iwm_gototop@ioWnd@@UAEXXZ
	DD	FLAT:?iwm_dragenter@ioWnd@@UAE?AW4IWDropEffect@@PAVioDragItem@@ABVioMouse@@@Z
	DD	FLAT:?iwm_dragover@ioWnd@@UAE?AW4IWDropEffect@@PAVioDragItem@@ABVioMouse@@@Z
	DD	FLAT:?iwm_dragleave@ioWnd@@UAEXXZ
	DD	FLAT:?iwm_dropitem@ioWnd@@UAE_NPAVioDragItem@@ABVioMouse@@PAV1@@Z
	DD	FLAT:?iwm_dropdone@ioWnd@@UAEXPAVioDragItem@@PAV1@_N@Z
	DD	FLAT:?IsEXType@ioWnd@@UBE_NXZ
	DD	FLAT:?GetWndType@ioWnd@@UBEKXZ
	DD	FLAT:?RenderWnd@ioWnd@@UAEXXZ
	DD	FLAT:?SetIDEX@ioWnd@@UAEXAAK_N@Z
	DD	FLAT:?ParseXML@ioWnd@@UAEXAAVioXMLElement@@@Z
	DD	FLAT:?GetHeaderFileName@ioWnd@@UAEPBDXZ
	DD	FLAT:?GetTemplateName@ioWnd@@UAEPBDXZ
	DD	FLAT:?GetDefClassName@ioWnd@@UBEPBDXZ
	DD	FLAT:?_Clone@ioWnd@@UAEPAV1@XZ
	DD	FLAT:?Copy@ioWnd@@UAEXPAV1@@Z
	DD	FLAT:?Save@ioWnd@@UAE_NAAVioXMLElement@@@Z
	DD	FLAT:?SetSaveData@ioWnd@@UAEXAAVioXMLElement@@@Z
	DD	FLAT:?SetPosX@ioWnd@@UAEXH@Z
	DD	FLAT:?SetPosY@ioWnd@@UAEXH@Z
	DD	FLAT:?SetWidth@ioWnd@@UAEXH@Z
	DD	FLAT:?SetHeight@ioWnd@@UAEXH@Z
	DD	FLAT:?GetNumFixedRenderFrame@ioWnd@@UBEHXZ
	DD	FLAT:?GetFixedRenderFrameType@ioWnd@@UAEPBDH@Z
	DD	FLAT:?GetRenderFrame@ioWnd@@UAEPAPAVioUIRenderElement@@PBD@Z
	DD	FLAT:?GetNumFixedRenderImage@ioWnd@@UBEHXZ
	DD	FLAT:?GetFixedRenderImageType@ioWnd@@UAEPBDH@Z
	DD	FLAT:?GetRenderImage@ioWnd@@UAEPAPAVioUIRenderElement@@PBD@Z
	DD	FLAT:?AddEffect@ioWnd@@UAEXABVioHashString@@PAVioUI3DEffectRender@@@Z
	DD	FLAT:?GetEffect@ioWnd@@UAEPAVioUI3DEffectRender@@VioHashString@@@Z
	DD	FLAT:??_EGashaponWnd@@UAEPAXI@Z
CONST	ENDS
;	COMDAT xdata$x
xdata$x	SEGMENT
__ehfuncinfo$??0GashaponWnd@@QAE@XZ DD 019930522H
	DD	010H
	DD	FLAT:__unwindtable$??0GashaponWnd@@QAE@XZ
	DD	2 DUP(00H)
	DD	2 DUP(00H)
	DD	00H
	DD	01H
__unwindtable$??0GashaponWnd@@QAE@XZ DD 0ffffffffH
	DD	FLAT:__unwindfunclet$??0GashaponWnd@@QAE@XZ$0
	DD	00H
	DD	FLAT:__unwindfunclet$??0GashaponWnd@@QAE@XZ$1
	DD	01H
	DD	FLAT:__unwindfunclet$??0GashaponWnd@@QAE@XZ$2
	DD	02H
	DD	FLAT:__unwindfunclet$??0GashaponWnd@@QAE@XZ$3
	DD	03H
	DD	FLAT:__unwindfunclet$??0GashaponWnd@@QAE@XZ$4
	DD	04H
	DD	FLAT:__unwindfunclet$??0GashaponWnd@@QAE@XZ$5
	DD	05H
	DD	FLAT:__unwindfunclet$??0GashaponWnd@@QAE@XZ$6
	DD	06H
	DD	FLAT:__unwindfunclet$??0GashaponWnd@@QAE@XZ$7
	DD	07H
	DD	FLAT:__unwindfunclet$??0GashaponWnd@@QAE@XZ$8
	DD	08H
	DD	FLAT:__unwindfunclet$??0GashaponWnd@@QAE@XZ$9
	DD	09H
	DD	FLAT:__unwindfunclet$??0GashaponWnd@@QAE@XZ$10
	DD	0aH
	DD	FLAT:__unwindfunclet$??0GashaponWnd@@QAE@XZ$11
	DD	0bH
	DD	FLAT:__unwindfunclet$??0GashaponWnd@@QAE@XZ$12
	DD	0cH
	DD	FLAT:__unwindfunclet$??0GashaponWnd@@QAE@XZ$13
	DD	0dH
	DD	FLAT:__unwindfunclet$??0GashaponWnd@@QAE@XZ$14
	DD	0eH
	DD	FLAT:__unwindfunclet$??0GashaponWnd@@QAE@XZ$15
; Function compile flags: /Ogsp
; File d:\lost saga for developer\youtube\tutorial\source\src\lsclient\gui\gashaponwnd.cpp
xdata$x	ENDS
;	COMDAT ??0GashaponWnd@@QAE@XZ
_TEXT	SEGMENT
_this$ = -16						; size = 4
__$EHRec$ = -12						; size = 12
??0GashaponWnd@@QAE@XZ PROC				; GashaponWnd::GashaponWnd, COMDAT
; _this$ = ecx

; 52   : {

  00000	6a 04		 push	 4
  00002	b8 00 00 00 00	 mov	 eax, __ehhandler$??0GashaponWnd@@QAE@XZ
  00007	e8 00 00 00 00	 call	 __EH_prolog3
  0000c	8b f1		 mov	 esi, ecx
  0000e	89 75 f0	 mov	 DWORD PTR _this$[ebp], esi
  00011	ff 15 00 00 00
	00		 call	 DWORD PTR __imp_??0ioWnd@@QAE@XZ
  00017	68 00 00 00 00	 push	 OFFSET ??1?$vector@VioHashString@@V?$allocator@VioHashString@@@std@@@std@@QAE@XZ ; std::vector<ioHashString,std::allocator<ioHashString> >::~vector<ioHashString,std::allocator<ioHashString> >
  0001c	68 00 00 00 00	 push	 OFFSET ??0?$vector@VioHashString@@V?$allocator@VioHashString@@@std@@@std@@QAE@XZ ; std::vector<ioHashString,std::allocator<ioHashString> >::vector<ioHashString,std::allocator<ioHashString> >
  00021	bf 11 06 00 00	 mov	 edi, 1553		; 00000611H
  00026	57		 push	 edi
  00027	6a 10		 push	 16			; 00000010H
  00029	8d 86 78 01 00
	00		 lea	 eax, DWORD PTR [esi+376]
  0002f	33 db		 xor	 ebx, ebx
  00031	50		 push	 eax
  00032	89 5d fc	 mov	 DWORD PTR __$EHRec$[ebp+8], ebx
  00035	c7 06 00 00 00
	00		 mov	 DWORD PTR [esi], OFFSET ??_7GashaponWnd@@6B@
  0003b	e8 00 00 00 00	 call	 ??_L@YGXPAXIHP6EX0@Z1@Z
  00040	68 00 00 00 00	 push	 OFFSET ??1?$vector@_NV?$allocator@_N@std@@@std@@QAE@XZ ; std::vector<bool,std::allocator<bool> >::~vector<bool,std::allocator<bool> >
  00045	68 00 00 00 00	 push	 OFFSET ??0?$vector@_NV?$allocator@_N@std@@@std@@QAE@XZ ; std::vector<bool,std::allocator<bool> >::vector<bool,std::allocator<bool> >
  0004a	57		 push	 edi
  0004b	6a 14		 push	 20			; 00000014H
  0004d	8d 86 88 62 00
	00		 lea	 eax, DWORD PTR [esi+25224]
  00053	50		 push	 eax
  00054	c6 45 fc 01	 mov	 BYTE PTR __$EHRec$[ebp+8], 1
  00058	e8 00 00 00 00	 call	 ??_L@YGXPAXIHP6EX0@Z1@Z
  0005d	68 00 00 00 00	 push	 OFFSET ??1?$vector@HV?$allocator@H@std@@@std@@QAE@XZ ; std::vector<int,std::allocator<int> >::~vector<int,std::allocator<int> >
  00062	68 00 00 00 00	 push	 OFFSET ??0?$vector@HV?$allocator@H@std@@@std@@QAE@XZ ; std::vector<int,std::allocator<int> >::vector<int,std::allocator<int> >
  00067	57		 push	 edi
  00068	6a 10		 push	 16			; 00000010H
  0006a	8d 86 dc db 00
	00		 lea	 eax, DWORD PTR [esi+56284]
  00070	50		 push	 eax
  00071	c6 45 fc 02	 mov	 BYTE PTR __$EHRec$[ebp+8], 2
  00075	e8 00 00 00 00	 call	 ??_L@YGXPAXIHP6EX0@Z1@Z
  0007a	68 00 00 00 00	 push	 OFFSET ??1?$vector@HV?$allocator@H@std@@@std@@QAE@XZ ; std::vector<int,std::allocator<int> >::~vector<int,std::allocator<int> >
  0007f	68 00 00 00 00	 push	 OFFSET ??0?$vector@HV?$allocator@H@std@@@std@@QAE@XZ ; std::vector<int,std::allocator<int> >::vector<int,std::allocator<int> >
  00084	57		 push	 edi
  00085	6a 10		 push	 16			; 00000010H
  00087	8d 86 ec 3c 01
	00		 lea	 eax, DWORD PTR [esi+81132]
  0008d	50		 push	 eax
  0008e	c6 45 fc 03	 mov	 BYTE PTR __$EHRec$[ebp+8], 3
  00092	e8 00 00 00 00	 call	 ??_L@YGXPAXIHP6EX0@Z1@Z
  00097	68 00 00 00 00	 push	 OFFSET ??1?$vector@HV?$allocator@H@std@@@std@@QAE@XZ ; std::vector<int,std::allocator<int> >::~vector<int,std::allocator<int> >
  0009c	68 00 00 00 00	 push	 OFFSET ??0?$vector@HV?$allocator@H@std@@@std@@QAE@XZ ; std::vector<int,std::allocator<int> >::vector<int,std::allocator<int> >
  000a1	57		 push	 edi
  000a2	6a 10		 push	 16			; 00000010H
  000a4	8d 86 fc 9d 01
	00		 lea	 eax, DWORD PTR [esi+105980]
  000aa	50		 push	 eax
  000ab	c6 45 fc 04	 mov	 BYTE PTR __$EHRec$[ebp+8], 4
  000af	e8 00 00 00 00	 call	 ??_L@YGXPAXIHP6EX0@Z1@Z
  000b4	68 00 00 00 00	 push	 OFFSET ??1?$vector@HV?$allocator@H@std@@@std@@QAE@XZ ; std::vector<int,std::allocator<int> >::~vector<int,std::allocator<int> >
  000b9	68 00 00 00 00	 push	 OFFSET ??0?$vector@HV?$allocator@H@std@@@std@@QAE@XZ ; std::vector<int,std::allocator<int> >::vector<int,std::allocator<int> >
  000be	57		 push	 edi
  000bf	6a 10		 push	 16			; 00000010H
  000c1	8d 86 0c ff 01
	00		 lea	 eax, DWORD PTR [esi+130828]
  000c7	50		 push	 eax
  000c8	c6 45 fc 05	 mov	 BYTE PTR __$EHRec$[ebp+8], 5
  000cc	e8 00 00 00 00	 call	 ??_L@YGXPAXIHP6EX0@Z1@Z
  000d1	68 00 00 00 00	 push	 OFFSET ??1?$vector@HV?$allocator@H@std@@@std@@QAE@XZ ; std::vector<int,std::allocator<int> >::~vector<int,std::allocator<int> >
  000d6	68 00 00 00 00	 push	 OFFSET ??0?$vector@HV?$allocator@H@std@@@std@@QAE@XZ ; std::vector<int,std::allocator<int> >::vector<int,std::allocator<int> >
  000db	57		 push	 edi
  000dc	6a 10		 push	 16			; 00000010H
  000de	8d 86 1c 60 02
	00		 lea	 eax, DWORD PTR [esi+155676]
  000e4	50		 push	 eax
  000e5	c6 45 fc 06	 mov	 BYTE PTR __$EHRec$[ebp+8], 6
  000e9	e8 00 00 00 00	 call	 ??_L@YGXPAXIHP6EX0@Z1@Z
  000ee	68 00 00 00 00	 push	 OFFSET ??1?$vector@HV?$allocator@H@std@@@std@@QAE@XZ ; std::vector<int,std::allocator<int> >::~vector<int,std::allocator<int> >
  000f3	68 00 00 00 00	 push	 OFFSET ??0?$vector@HV?$allocator@H@std@@@std@@QAE@XZ ; std::vector<int,std::allocator<int> >::vector<int,std::allocator<int> >
  000f8	57		 push	 edi
  000f9	6a 10		 push	 16			; 00000010H
  000fb	8d 86 2c c1 02
	00		 lea	 eax, DWORD PTR [esi+180524]
  00101	50		 push	 eax
  00102	c6 45 fc 07	 mov	 BYTE PTR __$EHRec$[ebp+8], 7
  00106	e8 00 00 00 00	 call	 ??_L@YGXPAXIHP6EX0@Z1@Z
  0010b	68 00 00 00 00	 push	 OFFSET ??1?$vector@VioHashString@@V?$allocator@VioHashString@@@std@@@std@@QAE@XZ ; std::vector<ioHashString,std::allocator<ioHashString> >::~vector<ioHashString,std::allocator<ioHashString> >
  00110	68 00 00 00 00	 push	 OFFSET ??0?$vector@VioHashString@@V?$allocator@VioHashString@@@std@@@std@@QAE@XZ ; std::vector<ioHashString,std::allocator<ioHashString> >::vector<ioHashString,std::allocator<ioHashString> >
  00115	c6 45 fc 08	 mov	 BYTE PTR __$EHRec$[ebp+8], 8
  00119	57		 push	 edi
  0011a	6a 10		 push	 16			; 00000010H
  0011c	8d 86 3c 22 03
	00		 lea	 eax, DWORD PTR [esi+205372]
  00122	50		 push	 eax
  00123	e8 00 00 00 00	 call	 ??_L@YGXPAXIHP6EX0@Z1@Z
  00128	89 9e 4c 83 03
	00		 mov	 DWORD PTR [esi+230220], ebx
  0012e	89 9e 50 83 03
	00		 mov	 DWORD PTR [esi+230224], ebx
  00134	89 9e 54 83 03
	00		 mov	 DWORD PTR [esi+230228], ebx
  0013a	89 9e 5c 83 03
	00		 mov	 DWORD PTR [esi+230236], ebx
  00140	89 9e 60 83 03
	00		 mov	 DWORD PTR [esi+230240], ebx
  00146	89 9e 64 83 03
	00		 mov	 DWORD PTR [esi+230244], ebx
  0014c	8d 8e b8 83 03
	00		 lea	 ecx, DWORD PTR [esi+230328]
  00152	c6 45 fc 0b	 mov	 BYTE PTR __$EHRec$[ebp+8], 11 ; 0000000bH
  00156	ff 15 00 00 00
	00		 call	 DWORD PTR __imp_??0ioHashString@@QAE@XZ
  0015c	8d 8e c8 83 03
	00		 lea	 ecx, DWORD PTR [esi+230344]
  00162	c6 45 fc 0c	 mov	 BYTE PTR __$EHRec$[ebp+8], 12 ; 0000000cH
  00166	ff 15 00 00 00
	00		 call	 DWORD PTR __imp_??0ioHashString@@QAE@XZ
  0016c	ff 35 00 00 00
	00		 push	 DWORD PTR __imp_??1ioHashString@@QAE@XZ
  00172	8d 86 d8 83 03
	00		 lea	 eax, DWORD PTR [esi+230360]
  00178	ff 35 00 00 00
	00		 push	 DWORD PTR __imp_??0ioHashString@@QAE@XZ
  0017e	c6 45 fc 0d	 mov	 BYTE PTR __$EHRec$[ebp+8], 13 ; 0000000dH
  00182	57		 push	 edi
  00183	6a 10		 push	 16			; 00000010H
  00185	50		 push	 eax
  00186	e8 00 00 00 00	 call	 ??_L@YGXPAXIHP6EX0@Z1@Z
  0018b	ff 35 00 00 00
	00		 push	 DWORD PTR __imp_??1ioHashString@@QAE@XZ
  00191	8d 86 e8 e4 03
	00		 lea	 eax, DWORD PTR [esi+255208]
  00197	ff 35 00 00 00
	00		 push	 DWORD PTR __imp_??0ioHashString@@QAE@XZ
  0019d	c6 45 fc 0e	 mov	 BYTE PTR __$EHRec$[ebp+8], 14 ; 0000000eH
  001a1	57		 push	 edi
  001a2	6a 10		 push	 16			; 00000010H
  001a4	50		 push	 eax
  001a5	e8 00 00 00 00	 call	 ??_L@YGXPAXIHP6EX0@Z1@Z
  001aa	ff 35 00 00 00
	00		 push	 DWORD PTR __imp_??1ioHashString@@QAE@XZ
  001b0	8d 86 f8 45 04
	00		 lea	 eax, DWORD PTR [esi+280056]
  001b6	ff 35 00 00 00
	00		 push	 DWORD PTR __imp_??0ioHashString@@QAE@XZ
  001bc	c6 45 fc 0f	 mov	 BYTE PTR __$EHRec$[ebp+8], 15 ; 0000000fH
  001c0	57		 push	 edi
  001c1	6a 10		 push	 16			; 00000010H
  001c3	50		 push	 eax
  001c4	e8 00 00 00 00	 call	 ??_L@YGXPAXIHP6EX0@Z1@Z

; 53   : 	m_pIcon	= NULL;
; 54   : 	m_pEffect = NULL;
; 55   : 
; 56   : 	m_pBackEffect = NULL;
; 57   : 	m_pFinalBackEffect = NULL;
; 58   : 	m_pCostumeMark = NULL;
; 59   : 
; 60   : 	m_pManual = NULL;
; 61   : 
; 62   : 	m_bResult = false;
; 63   : 	m_bFinalResult = false;
; 64   : 
; 65   : 	m_iPresentType   = 0;
; 66   : 	m_iPresentValue1 = 0;
; 67   : 	m_iPresentValue2 = 0;
; 68   : 	m_iPresentValue3 = 0;
; 69   : 	m_iPresentValue4 = 0;
; 70   : 	m_bAlarm         = false;
; 71   : 	m_iPresentPeso   = 0;
; 72   : 
; 73   : 	m_dwEtcItemType  = 0;
; 74   : 	m_dwPossessEtcItemType = 0;
; 75   : 	m_bIsCostume = false;
; 76   : 	m_nGradeType = 0;
; 77   : 	m_fGradeScale = 1.0f;

  001c9	f3 0f 10 05 00
	00 00 00	 movss	 xmm0, DWORD PTR __real@3f800000
  001d1	33 c0		 xor	 eax, eax
  001d3	66 89 86 6c 83
	03 00		 mov	 WORD PTR [esi+230252], ax
  001da	89 9e 60 01 00
	00		 mov	 DWORD PTR [esi+352], ebx
  001e0	89 9e 64 01 00
	00		 mov	 DWORD PTR [esi+356], ebx
  001e6	89 9e 68 01 00
	00		 mov	 DWORD PTR [esi+360], ebx
  001ec	89 9e 6c 01 00
	00		 mov	 DWORD PTR [esi+364], ebx
  001f2	89 9e 70 01 00
	00		 mov	 DWORD PTR [esi+368], ebx
  001f8	89 9e 74 01 00
	00		 mov	 DWORD PTR [esi+372], ebx
  001fe	66 89 9e 88 83
	03 00		 mov	 WORD PTR [esi+230280], bx
  00205	89 9e 70 83 03
	00		 mov	 DWORD PTR [esi+230256], ebx
  0020b	89 9e 74 83 03
	00		 mov	 DWORD PTR [esi+230260], ebx
  00211	89 9e 78 83 03
	00		 mov	 DWORD PTR [esi+230264], ebx
  00217	89 9e 7c 83 03
	00		 mov	 DWORD PTR [esi+230268], ebx
  0021d	88 9e 80 83 03
	00		 mov	 BYTE PTR [esi+230272], bl
  00223	89 9e 84 83 03
	00		 mov	 DWORD PTR [esi+230276], ebx
  00229	89 9e 08 a7 04
	00		 mov	 DWORD PTR [esi+304904], ebx
  0022f	89 9e 0c a7 04
	00		 mov	 DWORD PTR [esi+304908], ebx
  00235	88 9e 10 a7 04
	00		 mov	 BYTE PTR [esi+304912], bl
  0023b	89 9e 14 a7 04
	00		 mov	 DWORD PTR [esi+304916], ebx
  00241	f3 0f 11 86 18
	a7 04 00	 movss	 DWORD PTR [esi+304920], xmm0

; 78   : }

  00249	8b c6		 mov	 eax, esi
  0024b	e8 00 00 00 00	 call	 __EH_epilog3
  00250	c3		 ret	 0
_TEXT	ENDS
;	COMDAT text$x
text$x	SEGMENT
__unwindfunclet$??0GashaponWnd@@QAE@XZ$0:
  00000	8b 4d f0	 mov	 ecx, DWORD PTR _this$[ebp]
  00003	ff 25 00 00 00
	00		 jmp	 DWORD PTR __imp_??1ioWnd@@UAE@XZ
__unwindfunclet$??0GashaponWnd@@QAE@XZ$1:
  00009	68 00 00 00 00	 push	 OFFSET ??1?$vector@VioHashString@@V?$allocator@VioHashString@@@std@@@std@@QAE@XZ ; std::vector<ioHashString,std::allocator<ioHashString> >::~vector<ioHashString,std::allocator<ioHashString> >
  0000e	68 11 06 00 00	 push	 1553			; 00000611H
  00013	6a 10		 push	 16			; 00000010H
  00015	8b 45 f0	 mov	 eax, DWORD PTR _this$[ebp]
  00018	05 78 01 00 00	 add	 eax, 376		; 00000178H
  0001d	50		 push	 eax
  0001e	e8 00 00 00 00	 call	 ??_M@YGXPAXIHP6EX0@Z@Z
  00023	c3		 ret	 0
__unwindfunclet$??0GashaponWnd@@QAE@XZ$2:
  00024	68 00 00 00 00	 push	 OFFSET ??1?$vector@_NV?$allocator@_N@std@@@std@@QAE@XZ ; std::vector<bool,std::allocator<bool> >::~vector<bool,std::allocator<bool> >
  00029	68 11 06 00 00	 push	 1553			; 00000611H
  0002e	6a 14		 push	 20			; 00000014H
  00030	8b 45 f0	 mov	 eax, DWORD PTR _this$[ebp]
  00033	05 88 62 00 00	 add	 eax, 25224		; 00006288H
  00038	50		 push	 eax
  00039	e8 00 00 00 00	 call	 ??_M@YGXPAXIHP6EX0@Z@Z
  0003e	c3		 ret	 0
__unwindfunclet$??0GashaponWnd@@QAE@XZ$3:
  0003f	68 00 00 00 00	 push	 OFFSET ??1?$vector@HV?$allocator@H@std@@@std@@QAE@XZ ; std::vector<int,std::allocator<int> >::~vector<int,std::allocator<int> >
  00044	68 11 06 00 00	 push	 1553			; 00000611H
  00049	6a 10		 push	 16			; 00000010H
  0004b	8b 45 f0	 mov	 eax, DWORD PTR _this$[ebp]
  0004e	05 dc db 00 00	 add	 eax, 56284		; 0000dbdcH
  00053	50		 push	 eax
  00054	e8 00 00 00 00	 call	 ??_M@YGXPAXIHP6EX0@Z@Z
  00059	c3		 ret	 0
__unwindfunclet$??0GashaponWnd@@QAE@XZ$4:
  0005a	68 00 00 00 00	 push	 OFFSET ??1?$vector@HV?$allocator@H@std@@@std@@QAE@XZ ; std::vector<int,std::allocator<int> >::~vector<int,std::allocator<int> >
  0005f	68 11 06 00 00	 push	 1553			; 00000611H
  00064	6a 10		 push	 16			; 00000010H
  00066	8b 45 f0	 mov	 eax, DWORD PTR _this$[ebp]
  00069	05 ec 3c 01 00	 add	 eax, 81132		; 00013cecH
  0006e	50		 push	 eax
  0006f	e8 00 00 00 00	 call	 ??_M@YGXPAXIHP6EX0@Z@Z
  00074	c3		 ret	 0
__unwindfunclet$??0GashaponWnd@@QAE@XZ$5:
  00075	68 00 00 00 00	 push	 OFFSET ??1?$vector@HV?$allocator@H@std@@@std@@QAE@XZ ; std::vector<int,std::allocator<int> >::~vector<int,std::allocator<int> >
  0007a	68 11 06 00 00	 push	 1553			; 00000611H
  0007f	6a 10		 push	 16			; 00000010H
  00081	8b 45 f0	 mov	 eax, DWORD PTR _this$[ebp]
  00084	05 fc 9d 01 00	 add	 eax, 105980		; 00019dfcH
  00089	50		 push	 eax
  0008a	e8 00 00 00 00	 call	 ??_M@YGXPAXIHP6EX0@Z@Z
  0008f	c3		 ret	 0
__unwindfunclet$??0GashaponWnd@@QAE@XZ$6:
  00090	68 00 00 00 00	 push	 OFFSET ??1?$vector@HV?$allocator@H@std@@@std@@QAE@XZ ; std::vector<int,std::allocator<int> >::~vector<int,std::allocator<int> >
  00095	68 11 06 00 00	 push	 1553			; 00000611H
  0009a	6a 10		 push	 16			; 00000010H
  0009c	8b 45 f0	 mov	 eax, DWORD PTR _this$[ebp]
  0009f	05 0c ff 01 00	 add	 eax, 130828		; 0001ff0cH
  000a4	50		 push	 eax
  000a5	e8 00 00 00 00	 call	 ??_M@YGXPAXIHP6EX0@Z@Z
  000aa	c3		 ret	 0
__unwindfunclet$??0GashaponWnd@@QAE@XZ$7:
  000ab	68 00 00 00 00	 push	 OFFSET ??1?$vector@HV?$allocator@H@std@@@std@@QAE@XZ ; std::vector<int,std::allocator<int> >::~vector<int,std::allocator<int> >
  000b0	68 11 06 00 00	 push	 1553			; 00000611H
  000b5	6a 10		 push	 16			; 00000010H
  000b7	8b 45 f0	 mov	 eax, DWORD PTR _this$[ebp]
  000ba	05 1c 60 02 00	 add	 eax, 155676		; 0002601cH
  000bf	50		 push	 eax
  000c0	e8 00 00 00 00	 call	 ??_M@YGXPAXIHP6EX0@Z@Z
  000c5	c3		 ret	 0
__unwindfunclet$??0GashaponWnd@@QAE@XZ$8:
  000c6	68 00 00 00 00	 push	 OFFSET ??1?$vector@HV?$allocator@H@std@@@std@@QAE@XZ ; std::vector<int,std::allocator<int> >::~vector<int,std::allocator<int> >
  000cb	68 11 06 00 00	 push	 1553			; 00000611H
  000d0	6a 10		 push	 16			; 00000010H
  000d2	8b 45 f0	 mov	 eax, DWORD PTR _this$[ebp]
  000d5	05 2c c1 02 00	 add	 eax, 180524		; 0002c12cH
  000da	50		 push	 eax
  000db	e8 00 00 00 00	 call	 ??_M@YGXPAXIHP6EX0@Z@Z
  000e0	c3		 ret	 0
__unwindfunclet$??0GashaponWnd@@QAE@XZ$9:
  000e1	68 00 00 00 00	 push	 OFFSET ??1?$vector@VioHashString@@V?$allocator@VioHashString@@@std@@@std@@QAE@XZ ; std::vector<ioHashString,std::allocator<ioHashString> >::~vector<ioHashString,std::allocator<ioHashString> >
  000e6	68 11 06 00 00	 push	 1553			; 00000611H
  000eb	6a 10		 push	 16			; 00000010H
  000ed	8b 45 f0	 mov	 eax, DWORD PTR _this$[ebp]
  000f0	05 3c 22 03 00	 add	 eax, 205372		; 0003223cH
  000f5	50		 push	 eax
  000f6	e8 00 00 00 00	 call	 ??_M@YGXPAXIHP6EX0@Z@Z
  000fb	c3		 ret	 0
__unwindfunclet$??0GashaponWnd@@QAE@XZ$10:
  000fc	8b 4d f0	 mov	 ecx, DWORD PTR _this$[ebp]
  000ff	81 c1 4c 83 03
	00		 add	 ecx, 230220		; 0003834cH
  00105	e9 00 00 00 00	 jmp	 ??1?$vector@VioHashString@@V?$allocator@VioHashString@@@std@@@std@@QAE@XZ ; std::vector<ioHashString,std::allocator<ioHashString> >::~vector<ioHashString,std::allocator<ioHashString> >
__unwindfunclet$??0GashaponWnd@@QAE@XZ$11:
  0010a	8b 4d f0	 mov	 ecx, DWORD PTR _this$[ebp]
  0010d	81 c1 5c 83 03
	00		 add	 ecx, 230236		; 0003835cH
  00113	e9 00 00 00 00	 jmp	 ??1?$vector@VioHashString@@V?$allocator@VioHashString@@@std@@@std@@QAE@XZ ; std::vector<ioHashString,std::allocator<ioHashString> >::~vector<ioHashString,std::allocator<ioHashString> >
__unwindfunclet$??0GashaponWnd@@QAE@XZ$12:
  00118	8b 4d f0	 mov	 ecx, DWORD PTR _this$[ebp]
  0011b	81 c1 b8 83 03
	00		 add	 ecx, 230328		; 000383b8H
  00121	ff 25 00 00 00
	00		 jmp	 DWORD PTR __imp_??1ioHashString@@QAE@XZ
__unwindfunclet$??0GashaponWnd@@QAE@XZ$13:
  00127	8b 4d f0	 mov	 ecx, DWORD PTR _this$[ebp]
  0012a	81 c1 c8 83 03
	00		 add	 ecx, 230344		; 000383c8H
  00130	ff 25 00 00 00
	00		 jmp	 DWORD PTR __imp_??1ioHashString@@QAE@XZ
__unwindfunclet$??0GashaponWnd@@QAE@XZ$14:
  00136	ff 35 00 00 00
	00		 push	 DWORD PTR __imp_??1ioHashString@@QAE@XZ
  0013c	68 11 06 00 00	 push	 1553			; 00000611H
  00141	6a 10		 push	 16			; 00000010H
  00143	8b 45 f0	 mov	 eax, DWORD PTR _this$[ebp]
  00146	05 d8 83 03 00	 add	 eax, 230360		; 000383d8H
  0014b	50		 push	 eax
  0014c	e8 00 00 00 00	 call	 ??_M@YGXPAXIHP6EX0@Z@Z
  00151	c3		 ret	 0
__unwindfunclet$??0GashaponWnd@@QAE@XZ$15:
  00152	ff 35 00 00 00
	00		 push	 DWORD PTR __imp_??1ioHashString@@QAE@XZ
  00158	68 11 06 00 00	 push	 1553			; 00000611H
  0015d	6a 10		 push	 16			; 00000010H
  0015f	8b 45 f0	 mov	 eax, DWORD PTR _this$[ebp]
  00162	05 e8 e4 03 00	 add	 eax, 255208		; 0003e4e8H
  00167	50		 push	 eax
  00168	e8 00 00 00 00	 call	 ??_M@YGXPAXIHP6EX0@Z@Z
  0016d	c3		 ret	 0
__ehhandler$??0GashaponWnd@@QAE@XZ:
  0016e	8b 54 24 08	 mov	 edx, DWORD PTR [esp+8]
  00172	8d 42 0c	 lea	 eax, DWORD PTR [edx+12]
  00175	8b 4a ec	 mov	 ecx, DWORD PTR [edx-20]
  00178	33 c8		 xor	 ecx, eax
  0017a	e8 00 00 00 00	 call	 @__security_check_cookie@4
  0017f	b8 00 00 00 00	 mov	 eax, OFFSET __ehfuncinfo$??0GashaponWnd@@QAE@XZ
  00184	e9 00 00 00 00	 jmp	 ___CxxFrameHandler3
text$x	ENDS
??0GashaponWnd@@QAE@XZ ENDP				; GashaponWnd::GashaponWnd
PUBLIC	??1GashaponWnd@@UAE@XZ				; GashaponWnd::~GashaponWnd
;	COMDAT xdata$x
; File c:\program files (x86)\microsoft visual studio 10.0\vc\include\vector
xdata$x	SEGMENT
__ehfuncinfo$??1GashaponWnd@@UAE@XZ DD 019930522H
	DD	011H
	DD	FLAT:__unwindtable$??1GashaponWnd@@UAE@XZ
	DD	2 DUP(00H)
	DD	2 DUP(00H)
	DD	00H
	DD	01H
__unwindtable$??1GashaponWnd@@UAE@XZ DD 0ffffffffH
	DD	FLAT:__unwindfunclet$??1GashaponWnd@@UAE@XZ$0
	DD	00H
	DD	FLAT:__unwindfunclet$??1GashaponWnd@@UAE@XZ$1
	DD	01H
	DD	FLAT:__unwindfunclet$??1GashaponWnd@@UAE@XZ$2
	DD	02H
	DD	FLAT:__unwindfunclet$??1GashaponWnd@@UAE@XZ$3
	DD	03H
	DD	FLAT:__unwindfunclet$??1GashaponWnd@@UAE@XZ$4
	DD	04H
	DD	FLAT:__unwindfunclet$??1GashaponWnd@@UAE@XZ$5
	DD	05H
	DD	FLAT:__unwindfunclet$??1GashaponWnd@@UAE@XZ$6
	DD	06H
	DD	FLAT:__unwindfunclet$??1GashaponWnd@@UAE@XZ$7
	DD	07H
	DD	FLAT:__unwindfunclet$??1GashaponWnd@@UAE@XZ$8
	DD	08H
	DD	FLAT:__unwindfunclet$??1GashaponWnd@@UAE@XZ$9
	DD	09H
	DD	FLAT:__unwindfunclet$??1GashaponWnd@@UAE@XZ$10
	DD	0aH
	DD	FLAT:__unwindfunclet$??1GashaponWnd@@UAE@XZ$11
	DD	0bH
	DD	FLAT:__unwindfunclet$??1GashaponWnd@@UAE@XZ$12
	DD	0cH
	DD	FLAT:__unwindfunclet$??1GashaponWnd@@UAE@XZ$13
	DD	0dH
	DD	FLAT:__unwindfunclet$??1GashaponWnd@@UAE@XZ$14
	DD	0eH
	DD	FLAT:__unwindfunclet$??1GashaponWnd@@UAE@XZ$15
	DD	0fH
	DD	FLAT:__unwindfunclet$??1GashaponWnd@@UAE@XZ$16
; Function compile flags: /Ogsp
; File d:\lost saga for developer\youtube\tutorial\source\src\lsclient\gui\gashaponwnd.cpp
xdata$x	ENDS
;	COMDAT ??1GashaponWnd@@UAE@XZ
_TEXT	SEGMENT
$T526478 = -56						; size = 4
$T526397 = -52						; size = 4
$T526318 = -48						; size = 4
$T526238 = -44						; size = 4
$T526158 = -40						; size = 4
$T526078 = -36						; size = 4
$T525998 = -32						; size = 4
$T525918 = -28						; size = 4
_this$ = -24						; size = 4
tv526 = -20						; size = 4
tv1187 = -16						; size = 4
__$EHRec$ = -12						; size = 12
??1GashaponWnd@@UAE@XZ PROC				; GashaponWnd::~GashaponWnd, COMDAT
; _this$ = ecx

; 81   : {

  00000	6a 2c		 push	 44			; 0000002cH
  00002	b8 00 00 00 00	 mov	 eax, __ehhandler$??1GashaponWnd@@UAE@XZ
  00007	e8 00 00 00 00	 call	 __EH_prolog3
  0000c	8b f9		 mov	 edi, ecx
  0000e	89 7d e8	 mov	 DWORD PTR _this$[ebp], edi
  00011	c7 07 00 00 00
	00		 mov	 DWORD PTR [edi], OFFSET ??_7GashaponWnd@@6B@

; 82   : 	SAFEDELETE(m_pBackEffect);

  00017	8b 8f 68 01 00
	00		 mov	 ecx, DWORD PTR [edi+360]
  0001d	33 db		 xor	 ebx, ebx
  0001f	c7 45 fc 10 00
	00 00		 mov	 DWORD PTR __$EHRec$[ebp+8], 16 ; 00000010H
  00026	3b cb		 cmp	 ecx, ebx
  00028	74 0d		 je	 SHORT $LN8@GashaponWn
  0002a	8b 01		 mov	 eax, DWORD PTR [ecx]
  0002c	6a 01		 push	 1
  0002e	ff 50 40	 call	 DWORD PTR [eax+64]
  00031	89 9f 68 01 00
	00		 mov	 DWORD PTR [edi+360], ebx
$LN8@GashaponWn:

; 83   : 	SAFEDELETE(m_pFinalBackEffect);

  00037	8b 8f 6c 01 00
	00		 mov	 ecx, DWORD PTR [edi+364]
  0003d	3b cb		 cmp	 ecx, ebx
  0003f	74 0d		 je	 SHORT $LN7@GashaponWn
  00041	8b 01		 mov	 eax, DWORD PTR [ecx]
  00043	6a 01		 push	 1
  00045	ff 50 40	 call	 DWORD PTR [eax+64]
  00048	89 9f 6c 01 00
	00		 mov	 DWORD PTR [edi+364], ebx
$LN7@GashaponWn:

; 84   : 
; 85   : 	SAFEDELETE(m_pIcon);

  0004e	8b 8f 60 01 00
	00		 mov	 ecx, DWORD PTR [edi+352]
  00054	3b cb		 cmp	 ecx, ebx
  00056	74 0d		 je	 SHORT $LN6@GashaponWn
  00058	8b 01		 mov	 eax, DWORD PTR [ecx]
  0005a	6a 01		 push	 1
  0005c	ff 50 40	 call	 DWORD PTR [eax+64]
  0005f	89 9f 60 01 00
	00		 mov	 DWORD PTR [edi+352], ebx
$LN6@GashaponWn:

; 86   : 	SAFEDELETE(m_pEffect);

  00065	8b 8f 64 01 00
	00		 mov	 ecx, DWORD PTR [edi+356]
  0006b	3b cb		 cmp	 ecx, ebx
  0006d	74 0d		 je	 SHORT $LN5@GashaponWn
  0006f	8b 01		 mov	 eax, DWORD PTR [ecx]
  00071	6a 01		 push	 1
  00073	ff 50 40	 call	 DWORD PTR [eax+64]
  00076	89 9f 64 01 00
	00		 mov	 DWORD PTR [edi+356], ebx
$LN5@GashaponWn:

; 87   : 	SAFEDELETE( m_pCostumeMark );

  0007c	8b 8f 70 01 00
	00		 mov	 ecx, DWORD PTR [edi+368]
  00082	3b cb		 cmp	 ecx, ebx
  00084	74 0d		 je	 SHORT $LN4@GashaponWn
  00086	8b 01		 mov	 eax, DWORD PTR [ecx]
  00088	6a 01		 push	 1
  0008a	ff 50 40	 call	 DWORD PTR [eax+64]
  0008d	89 9f 70 01 00
	00		 mov	 DWORD PTR [edi+368], ebx
$LN4@GashaponWn:

; 88   : 
; 89   : 	for (int i = 0; i < MAX_GASHAPON ; i++)

  00093	8d 87 88 62 00
	00		 lea	 eax, DWORD PTR [edi+25224]
  00099	bb 11 06 00 00	 mov	 ebx, 1553		; 00000611H
  0009e	89 45 f0	 mov	 DWORD PTR tv1187[ebp], eax
  000a1	8d b7 e0 db 00
	00		 lea	 esi, DWORD PTR [edi+56288]
  000a7	89 5d ec	 mov	 DWORD PTR tv526[ebp], ebx
$LL3@GashaponWn:

; 90   : 	{
; 91   : 		m_vIconList[i].clear();

  000aa	8b 86 9c 25 ff
	ff		 mov	 eax, DWORD PTR [esi-55908]
  000b0	8d 8e 98 25 ff
	ff		 lea	 ecx, DWORD PTR [esi-55912]
  000b6	8b 11		 mov	 edx, DWORD PTR [ecx]
  000b8	50		 push	 eax
  000b9	52		 push	 edx
  000ba	8d 45 e4	 lea	 eax, DWORD PTR $T525918[ebp]
  000bd	50		 push	 eax
  000be	e8 00 00 00 00	 call	 ?erase@?$vector@VioHashString@@V?$allocator@VioHashString@@@std@@@std@@QAE?AV?$_Vector_iterator@V?$_Vector_val@VioHashString@@V?$allocator@VioHashString@@@std@@@std@@@2@V?$_Vector_const_iterator@V?$_Vector_val@VioHashString@@V?$allocator@VioHashString@@@std@@@std@@@2@0@Z ; std::vector<ioHashString,std::allocator<ioHashString> >::erase

; 92   : 		m_vCostumeList[i].clear();

  000c3	8b 4d f0	 mov	 ecx, DWORD PTR tv1187[ebp]
  000c6	e8 00 00 00 00	 call	 ?clear@?$vector@_NV?$allocator@_N@std@@@std@@QAEXXZ ; std::vector<bool,std::allocator<bool> >::clear

; 93   : 		m_vGradeTypeList[i].clear();

  000cb	8b 06		 mov	 eax, DWORD PTR [esi]
  000cd	8d 4e fc	 lea	 ecx, DWORD PTR [esi-4]
  000d0	8b 11		 mov	 edx, DWORD PTR [ecx]
  000d2	50		 push	 eax
  000d3	52		 push	 edx
  000d4	8d 45 e0	 lea	 eax, DWORD PTR $T525998[ebp]
  000d7	50		 push	 eax
  000d8	e8 00 00 00 00	 call	 ?erase@?$vector@HV?$allocator@H@std@@@std@@QAE?AV?$_Vector_iterator@V?$_Vector_val@HV?$allocator@H@std@@@std@@@2@V?$_Vector_const_iterator@V?$_Vector_val@HV?$allocator@H@std@@@std@@@2@0@Z ; std::vector<int,std::allocator<int> >::erase

; 94   : 		m_vIconChangePresentTypeVec[i].clear();

  000dd	8b 86 10 61 00
	00		 mov	 eax, DWORD PTR [esi+24848]
  000e3	8d 8e 0c 61 00
	00		 lea	 ecx, DWORD PTR [esi+24844]
  000e9	8b 11		 mov	 edx, DWORD PTR [ecx]
  000eb	50		 push	 eax
  000ec	52		 push	 edx
  000ed	8d 45 dc	 lea	 eax, DWORD PTR $T526078[ebp]
  000f0	50		 push	 eax
  000f1	e8 00 00 00 00	 call	 ?erase@?$vector@HV?$allocator@H@std@@@std@@QAE?AV?$_Vector_iterator@V?$_Vector_val@HV?$allocator@H@std@@@std@@@2@V?$_Vector_const_iterator@V?$_Vector_val@HV?$allocator@H@std@@@std@@@2@0@Z ; std::vector<int,std::allocator<int> >::erase

; 95   : 		m_vIconChangePresentValue1Vec[i].clear();

  000f6	8b 86 20 c2 00
	00		 mov	 eax, DWORD PTR [esi+49696]
  000fc	8d 8e 1c c2 00
	00		 lea	 ecx, DWORD PTR [esi+49692]
  00102	8b 11		 mov	 edx, DWORD PTR [ecx]
  00104	50		 push	 eax
  00105	52		 push	 edx
  00106	8d 45 d8	 lea	 eax, DWORD PTR $T526158[ebp]
  00109	50		 push	 eax
  0010a	e8 00 00 00 00	 call	 ?erase@?$vector@HV?$allocator@H@std@@@std@@QAE?AV?$_Vector_iterator@V?$_Vector_val@HV?$allocator@H@std@@@std@@@2@V?$_Vector_const_iterator@V?$_Vector_val@HV?$allocator@H@std@@@std@@@2@0@Z ; std::vector<int,std::allocator<int> >::erase

; 96   : 		m_vIconChangePresentValue2Vec[i].clear();

  0010f	8b 86 30 23 01
	00		 mov	 eax, DWORD PTR [esi+74544]
  00115	8d 8e 2c 23 01
	00		 lea	 ecx, DWORD PTR [esi+74540]
  0011b	8b 11		 mov	 edx, DWORD PTR [ecx]
  0011d	50		 push	 eax
  0011e	52		 push	 edx
  0011f	8d 45 d4	 lea	 eax, DWORD PTR $T526238[ebp]
  00122	50		 push	 eax
  00123	e8 00 00 00 00	 call	 ?erase@?$vector@HV?$allocator@H@std@@@std@@QAE?AV?$_Vector_iterator@V?$_Vector_val@HV?$allocator@H@std@@@std@@@2@V?$_Vector_const_iterator@V?$_Vector_val@HV?$allocator@H@std@@@std@@@2@0@Z ; std::vector<int,std::allocator<int> >::erase

; 97   : 		m_vIconChangePresentValue3Vec[i].clear();

  00128	8b 86 40 84 01
	00		 mov	 eax, DWORD PTR [esi+99392]
  0012e	8d 8e 3c 84 01
	00		 lea	 ecx, DWORD PTR [esi+99388]
  00134	8b 11		 mov	 edx, DWORD PTR [ecx]
  00136	50		 push	 eax
  00137	52		 push	 edx
  00138	8d 45 d0	 lea	 eax, DWORD PTR $T526318[ebp]
  0013b	50		 push	 eax
  0013c	e8 00 00 00 00	 call	 ?erase@?$vector@HV?$allocator@H@std@@@std@@QAE?AV?$_Vector_iterator@V?$_Vector_val@HV?$allocator@H@std@@@std@@@2@V?$_Vector_const_iterator@V?$_Vector_val@HV?$allocator@H@std@@@std@@@2@0@Z ; std::vector<int,std::allocator<int> >::erase

; 98   : 		m_vIconChangePresentValue4Vec[i].clear();

  00141	8b 86 50 e5 01
	00		 mov	 eax, DWORD PTR [esi+124240]
  00147	8d 8e 4c e5 01
	00		 lea	 ecx, DWORD PTR [esi+124236]
  0014d	8b 11		 mov	 edx, DWORD PTR [ecx]
  0014f	50		 push	 eax
  00150	52		 push	 edx
  00151	8d 45 cc	 lea	 eax, DWORD PTR $T526397[ebp]
  00154	50		 push	 eax
  00155	e8 00 00 00 00	 call	 ?erase@?$vector@HV?$allocator@H@std@@@std@@QAE?AV?$_Vector_iterator@V?$_Vector_val@HV?$allocator@H@std@@@std@@@2@V?$_Vector_const_iterator@V?$_Vector_val@HV?$allocator@H@std@@@std@@@2@0@Z ; std::vector<int,std::allocator<int> >::erase

; 99   : 		m_vIconChangeIconVec[i].clear();

  0015a	8b 86 60 46 02
	00		 mov	 eax, DWORD PTR [esi+149088]
  00160	8d 8e 5c 46 02
	00		 lea	 ecx, DWORD PTR [esi+149084]
  00166	8b 11		 mov	 edx, DWORD PTR [ecx]
  00168	50		 push	 eax
  00169	52		 push	 edx
  0016a	8d 45 c8	 lea	 eax, DWORD PTR $T526478[ebp]
  0016d	50		 push	 eax
  0016e	e8 00 00 00 00	 call	 ?erase@?$vector@VioHashString@@V?$allocator@VioHashString@@@std@@@std@@QAE?AV?$_Vector_iterator@V?$_Vector_val@VioHashString@@V?$allocator@VioHashString@@@std@@@std@@@2@V?$_Vector_const_iterator@V?$_Vector_val@VioHashString@@V?$allocator@VioHashString@@@std@@@std@@@2@0@Z ; std::vector<ioHashString,std::allocator<ioHashString> >::erase
  00173	83 45 f0 14	 add	 DWORD PTR tv1187[ebp], 20 ; 00000014H
  00177	83 c6 10	 add	 esi, 16			; 00000010H
  0017a	ff 4d ec	 dec	 DWORD PTR tv526[ebp]
  0017d	0f 85 27 ff ff
	ff		 jne	 $LL3@GashaponWn

; 100  : 	}
; 101  : }

  00183	8b 35 00 00 00
	00		 mov	 esi, DWORD PTR __imp_??1ioHashString@@QAE@XZ
  00189	56		 push	 esi
  0018a	53		 push	 ebx
  0018b	6a 10		 push	 16			; 00000010H
  0018d	8d 87 f8 45 04
	00		 lea	 eax, DWORD PTR [edi+280056]
  00193	50		 push	 eax
  00194	c6 45 fc 0f	 mov	 BYTE PTR __$EHRec$[ebp+8], 15 ; 0000000fH
  00198	e8 00 00 00 00	 call	 ??_M@YGXPAXIHP6EX0@Z@Z
  0019d	56		 push	 esi
  0019e	53		 push	 ebx
  0019f	6a 10		 push	 16			; 00000010H
  001a1	8d 87 e8 e4 03
	00		 lea	 eax, DWORD PTR [edi+255208]
  001a7	50		 push	 eax
  001a8	c6 45 fc 0e	 mov	 BYTE PTR __$EHRec$[ebp+8], 14 ; 0000000eH
  001ac	e8 00 00 00 00	 call	 ??_M@YGXPAXIHP6EX0@Z@Z
  001b1	56		 push	 esi
  001b2	53		 push	 ebx
  001b3	6a 10		 push	 16			; 00000010H
  001b5	8d 87 d8 83 03
	00		 lea	 eax, DWORD PTR [edi+230360]
  001bb	50		 push	 eax
  001bc	c6 45 fc 0d	 mov	 BYTE PTR __$EHRec$[ebp+8], 13 ; 0000000dH
  001c0	e8 00 00 00 00	 call	 ??_M@YGXPAXIHP6EX0@Z@Z
  001c5	8d 8f c8 83 03
	00		 lea	 ecx, DWORD PTR [edi+230344]
  001cb	c6 45 fc 0c	 mov	 BYTE PTR __$EHRec$[ebp+8], 12 ; 0000000cH
  001cf	ff d6		 call	 esi
  001d1	8d 8f b8 83 03
	00		 lea	 ecx, DWORD PTR [edi+230328]
  001d7	c6 45 fc 0b	 mov	 BYTE PTR __$EHRec$[ebp+8], 11 ; 0000000bH
  001db	ff d6		 call	 esi
  001dd	8d 8f 5c 83 03
	00		 lea	 ecx, DWORD PTR [edi+230236]
  001e3	c6 45 fc 0a	 mov	 BYTE PTR __$EHRec$[ebp+8], 10 ; 0000000aH
  001e7	e8 00 00 00 00	 call	 ?_Tidy@?$vector@VioHashString@@V?$allocator@VioHashString@@@std@@@std@@IAEXXZ ; std::vector<ioHashString,std::allocator<ioHashString> >::_Tidy
  001ec	8d 8f 4c 83 03
	00		 lea	 ecx, DWORD PTR [edi+230220]
  001f2	c6 45 fc 09	 mov	 BYTE PTR __$EHRec$[ebp+8], 9
  001f6	e8 00 00 00 00	 call	 ?_Tidy@?$vector@VioHashString@@V?$allocator@VioHashString@@@std@@@std@@IAEXXZ ; std::vector<ioHashString,std::allocator<ioHashString> >::_Tidy
  001fb	68 00 00 00 00	 push	 OFFSET ??1?$vector@VioHashString@@V?$allocator@VioHashString@@@std@@@std@@QAE@XZ ; std::vector<ioHashString,std::allocator<ioHashString> >::~vector<ioHashString,std::allocator<ioHashString> >
  00200	53		 push	 ebx
  00201	6a 10		 push	 16			; 00000010H
  00203	8d 87 3c 22 03
	00		 lea	 eax, DWORD PTR [edi+205372]
  00209	50		 push	 eax
  0020a	c6 45 fc 08	 mov	 BYTE PTR __$EHRec$[ebp+8], 8
  0020e	e8 00 00 00 00	 call	 ??_M@YGXPAXIHP6EX0@Z@Z
  00213	be 00 00 00 00	 mov	 esi, OFFSET ??1?$vector@HV?$allocator@H@std@@@std@@QAE@XZ ; std::vector<int,std::allocator<int> >::~vector<int,std::allocator<int> >
  00218	56		 push	 esi
  00219	53		 push	 ebx
  0021a	6a 10		 push	 16			; 00000010H
  0021c	8d 87 2c c1 02
	00		 lea	 eax, DWORD PTR [edi+180524]
  00222	50		 push	 eax
  00223	c6 45 fc 07	 mov	 BYTE PTR __$EHRec$[ebp+8], 7
  00227	e8 00 00 00 00	 call	 ??_M@YGXPAXIHP6EX0@Z@Z
  0022c	56		 push	 esi
  0022d	53		 push	 ebx
  0022e	6a 10		 push	 16			; 00000010H
  00230	8d 87 1c 60 02
	00		 lea	 eax, DWORD PTR [edi+155676]
  00236	50		 push	 eax
  00237	c6 45 fc 06	 mov	 BYTE PTR __$EHRec$[ebp+8], 6
  0023b	e8 00 00 00 00	 call	 ??_M@YGXPAXIHP6EX0@Z@Z
  00240	56		 push	 esi
  00241	53		 push	 ebx
  00242	6a 10		 push	 16			; 00000010H
  00244	8d 87 0c ff 01
	00		 lea	 eax, DWORD PTR [edi+130828]
  0024a	50		 push	 eax
  0024b	c6 45 fc 05	 mov	 BYTE PTR __$EHRec$[ebp+8], 5
  0024f	e8 00 00 00 00	 call	 ??_M@YGXPAXIHP6EX0@Z@Z
  00254	56		 push	 esi
  00255	53		 push	 ebx
  00256	6a 10		 push	 16			; 00000010H
  00258	8d 87 fc 9d 01
	00		 lea	 eax, DWORD PTR [edi+105980]
  0025e	50		 push	 eax
  0025f	c6 45 fc 04	 mov	 BYTE PTR __$EHRec$[ebp+8], 4
  00263	e8 00 00 00 00	 call	 ??_M@YGXPAXIHP6EX0@Z@Z
  00268	56		 push	 esi
  00269	53		 push	 ebx
  0026a	6a 10		 push	 16			; 00000010H
  0026c	8d 87 ec 3c 01
	00		 lea	 eax, DWORD PTR [edi+81132]
  00272	50		 push	 eax
  00273	c6 45 fc 03	 mov	 BYTE PTR __$EHRec$[ebp+8], 3
  00277	e8 00 00 00 00	 call	 ??_M@YGXPAXIHP6EX0@Z@Z
  0027c	56		 push	 esi
  0027d	53		 push	 ebx
  0027e	c6 45 fc 02	 mov	 BYTE PTR __$EHRec$[ebp+8], 2
  00282	6a 10		 push	 16			; 00000010H
  00284	8d 87 dc db 00
	00		 lea	 eax, DWORD PTR [edi+56284]
  0028a	50		 push	 eax
  0028b	e8 00 00 00 00	 call	 ??_M@YGXPAXIHP6EX0@Z@Z
  00290	68 00 00 00 00	 push	 OFFSET ??1?$vector@_NV?$allocator@_N@std@@@std@@QAE@XZ ; std::vector<bool,std::allocator<bool> >::~vector<bool,std::allocator<bool> >
  00295	53		 push	 ebx
  00296	6a 14		 push	 20			; 00000014H
  00298	8d 87 88 62 00
	00		 lea	 eax, DWORD PTR [edi+25224]
  0029e	50		 push	 eax
  0029f	c6 45 fc 01	 mov	 BYTE PTR __$EHRec$[ebp+8], 1
  002a3	e8 00 00 00 00	 call	 ??_M@YGXPAXIHP6EX0@Z@Z
  002a8	68 00 00 00 00	 push	 OFFSET ??1?$vector@VioHashString@@V?$allocator@VioHashString@@@std@@@std@@QAE@XZ ; std::vector<ioHashString,std::allocator<ioHashString> >::~vector<ioHashString,std::allocator<ioHashString> >
  002ad	53		 push	 ebx
  002ae	6a 10		 push	 16			; 00000010H
  002b0	8d 87 78 01 00
	00		 lea	 eax, DWORD PTR [edi+376]
  002b6	50		 push	 eax
  002b7	c6 45 fc 00	 mov	 BYTE PTR __$EHRec$[ebp+8], 0
  002bb	e8 00 00 00 00	 call	 ??_M@YGXPAXIHP6EX0@Z@Z
  002c0	83 4d fc ff	 or	 DWORD PTR __$EHRec$[ebp+8], -1
  002c4	8b cf		 mov	 ecx, edi
  002c6	ff 15 00 00 00
	00		 call	 DWORD PTR __imp_??1ioWnd@@UAE@XZ
  002cc	e8 00 00 00 00	 call	 __EH_epilog3
  002d1	c3		 ret	 0
_TEXT	ENDS
;	COMDAT text$x
text$x	SEGMENT
__unwindfunclet$??1GashaponWnd@@UAE@XZ$0:
  00000	8b 4d e8	 mov	 ecx, DWORD PTR _this$[ebp]
  00003	ff 25 00 00 00
	00		 jmp	 DWORD PTR __imp_??1ioWnd@@UAE@XZ
__unwindfunclet$??1GashaponWnd@@UAE@XZ$1:
  00009	68 00 00 00 00	 push	 OFFSET ??1?$vector@VioHashString@@V?$allocator@VioHashString@@@std@@@std@@QAE@XZ ; std::vector<ioHashString,std::allocator<ioHashString> >::~vector<ioHashString,std::allocator<ioHashString> >
  0000e	68 11 06 00 00	 push	 1553			; 00000611H
  00013	6a 10		 push	 16			; 00000010H
  00015	8b 45 e8	 mov	 eax, DWORD PTR _this$[ebp]
  00018	05 78 01 00 00	 add	 eax, 376		; 00000178H
  0001d	50		 push	 eax
  0001e	e8 00 00 00 00	 call	 ??_M@YGXPAXIHP6EX0@Z@Z
  00023	c3		 ret	 0
__unwindfunclet$??1GashaponWnd@@UAE@XZ$2:
  00024	68 00 00 00 00	 push	 OFFSET ??1?$vector@_NV?$allocator@_N@std@@@std@@QAE@XZ ; std::vector<bool,std::allocator<bool> >::~vector<bool,std::allocator<bool> >
  00029	68 11 06 00 00	 push	 1553			; 00000611H
  0002e	6a 14		 push	 20			; 00000014H
  00030	8b 45 e8	 mov	 eax, DWORD PTR _this$[ebp]
  00033	05 88 62 00 00	 add	 eax, 25224		; 00006288H
  00038	50		 push	 eax
  00039	e8 00 00 00 00	 call	 ??_M@YGXPAXIHP6EX0@Z@Z
  0003e	c3		 ret	 0
__unwindfunclet$??1GashaponWnd@@UAE@XZ$3:
  0003f	68 00 00 00 00	 push	 OFFSET ??1?$vector@HV?$allocator@H@std@@@std@@QAE@XZ ; std::vector<int,std::allocator<int> >::~vector<int,std::allocator<int> >
  00044	68 11 06 00 00	 push	 1553			; 00000611H
  00049	6a 10		 push	 16			; 00000010H
  0004b	8b 45 e8	 mov	 eax, DWORD PTR _this$[ebp]
  0004e	05 dc db 00 00	 add	 eax, 56284		; 0000dbdcH
  00053	50		 push	 eax
  00054	e8 00 00 00 00	 call	 ??_M@YGXPAXIHP6EX0@Z@Z
  00059	c3		 ret	 0
__unwindfunclet$??1GashaponWnd@@UAE@XZ$4:
  0005a	68 00 00 00 00	 push	 OFFSET ??1?$vector@HV?$allocator@H@std@@@std@@QAE@XZ ; std::vector<int,std::allocator<int> >::~vector<int,std::allocator<int> >
  0005f	68 11 06 00 00	 push	 1553			; 00000611H
  00064	6a 10		 push	 16			; 00000010H
  00066	8b 45 e8	 mov	 eax, DWORD PTR _this$[ebp]
  00069	05 ec 3c 01 00	 add	 eax, 81132		; 00013cecH
  0006e	50		 push	 eax
  0006f	e8 00 00 00 00	 call	 ??_M@YGXPAXIHP6EX0@Z@Z
  00074	c3		 ret	 0
__unwindfunclet$??1GashaponWnd@@UAE@XZ$5:
  00075	68 00 00 00 00	 push	 OFFSET ??1?$vector@HV?$allocator@H@std@@@std@@QAE@XZ ; std::vector<int,std::allocator<int> >::~vector<int,std::allocator<int> >
  0007a	68 11 06 00 00	 push	 1553			; 00000611H
  0007f	6a 10		 push	 16			; 00000010H
  00081	8b 45 e8	 mov	 eax, DWORD PTR _this$[ebp]
  00084	05 fc 9d 01 00	 add	 eax, 105980		; 00019dfcH
  00089	50		 push	 eax
  0008a	e8 00 00 00 00	 call	 ??_M@YGXPAXIHP6EX0@Z@Z
  0008f	c3		 ret	 0
__unwindfunclet$??1GashaponWnd@@UAE@XZ$6:
  00090	68 00 00 00 00	 push	 OFFSET ??1?$vector@HV?$allocator@H@std@@@std@@QAE@XZ ; std::vector<int,std::allocator<int> >::~vector<int,std::allocator<int> >
  00095	68 11 06 00 00	 push	 1553			; 00000611H
  0009a	6a 10		 push	 16			; 00000010H
  0009c	8b 45 e8	 mov	 eax, DWORD PTR _this$[ebp]
  0009f	05 0c ff 01 00	 add	 eax, 130828		; 0001ff0cH
  000a4	50		 push	 eax
  000a5	e8 00 00 00 00	 call	 ??_M@YGXPAXIHP6EX0@Z@Z
  000aa	c3		 ret	 0
__unwindfunclet$??1GashaponWnd@@UAE@XZ$7:
  000ab	68 00 00 00 00	 push	 OFFSET ??1?$vector@HV?$allocator@H@std@@@std@@QAE@XZ ; std::vector<int,std::allocator<int> >::~vector<int,std::allocator<int> >
  000b0	68 11 06 00 00	 push	 1553			; 00000611H
  000b5	6a 10		 push	 16			; 00000010H
  000b7	8b 45 e8	 mov	 eax, DWORD PTR _this$[ebp]
  000ba	05 1c 60 02 00	 add	 eax, 155676		; 0002601cH
  000bf	50		 push	 eax
  000c0	e8 00 00 00 00	 call	 ??_M@YGXPAXIHP6EX0@Z@Z
  000c5	c3		 ret	 0
__unwindfunclet$??1GashaponWnd@@UAE@XZ$8:
  000c6	68 00 00 00 00	 push	 OFFSET ??1?$vector@HV?$allocator@H@std@@@std@@QAE@XZ ; std::vector<int,std::allocator<int> >::~vector<int,std::allocator<int> >
  000cb	68 11 06 00 00	 push	 1553			; 00000611H
  000d0	6a 10		 push	 16			; 00000010H
  000d2	8b 45 e8	 mov	 eax, DWORD PTR _this$[ebp]
  000d5	05 2c c1 02 00	 add	 eax, 180524		; 0002c12cH
  000da	50		 push	 eax
  000db	e8 00 00 00 00	 call	 ??_M@YGXPAXIHP6EX0@Z@Z
  000e0	c3		 ret	 0
__unwindfunclet$??1GashaponWnd@@UAE@XZ$9:
  000e1	68 00 00 00 00	 push	 OFFSET ??1?$vector@VioHashString@@V?$allocator@VioHashString@@@std@@@std@@QAE@XZ ; std::vector<ioHashString,std::allocator<ioHashString> >::~vector<ioHashString,std::allocator<ioHashString> >
  000e6	68 11 06 00 00	 push	 1553			; 00000611H
  000eb	6a 10		 push	 16			; 00000010H
  000ed	8b 45 e8	 mov	 eax, DWORD PTR _this$[ebp]
  000f0	05 3c 22 03 00	 add	 eax, 205372		; 0003223cH
  000f5	50		 push	 eax
  000f6	e8 00 00 00 00	 call	 ??_M@YGXPAXIHP6EX0@Z@Z
  000fb	c3		 ret	 0
__unwindfunclet$??1GashaponWnd@@UAE@XZ$10:
  000fc	8b 4d e8	 mov	 ecx, DWORD PTR _this$[ebp]
  000ff	81 c1 4c 83 03
	00		 add	 ecx, 230220		; 0003834cH
  00105	e9 00 00 00 00	 jmp	 ??1?$vector@VioHashString@@V?$allocator@VioHashString@@@std@@@std@@QAE@XZ ; std::vector<ioHashString,std::allocator<ioHashString> >::~vector<ioHashString,std::allocator<ioHashString> >
__unwindfunclet$??1GashaponWnd@@UAE@XZ$11:
  0010a	8b 4d e8	 mov	 ecx, DWORD PTR _this$[ebp]
  0010d	81 c1 5c 83 03
	00		 add	 ecx, 230236		; 0003835cH
  00113	e9 00 00 00 00	 jmp	 ??1?$vector@VioHashString@@V?$allocator@VioHashString@@@std@@@std@@QAE@XZ ; std::vector<ioHashString,std::allocator<ioHashString> >::~vector<ioHashString,std::allocator<ioHashString> >
__unwindfunclet$??1GashaponWnd@@UAE@XZ$12:
  00118	8b 4d e8	 mov	 ecx, DWORD PTR _this$[ebp]
  0011b	81 c1 b8 83 03
	00		 add	 ecx, 230328		; 000383b8H
  00121	ff 25 00 00 00
	00		 jmp	 DWORD PTR __imp_??1ioHashString@@QAE@XZ
__unwindfunclet$??1GashaponWnd@@UAE@XZ$13:
  00127	8b 4d e8	 mov	 ecx, DWORD PTR _this$[ebp]
  0012a	81 c1 c8 83 03
	00		 add	 ecx, 230344		; 000383c8H
  00130	ff 25 00 00 00
	00		 jmp	 DWORD PTR __imp_??1ioHashString@@QAE@XZ
__unwindfunclet$??1GashaponWnd@@UAE@XZ$14:
  00136	ff 35 00 00 00
	00		 push	 DWORD PTR __imp_??1ioHashString@@QAE@XZ
  0013c	68 11 06 00 00	 push	 1553			; 00000611H
  00141	6a 10		 push	 16			; 00000010H
  00143	8b 45 e8	 mov	 eax, DWORD PTR _this$[ebp]
  00146	05 d8 83 03 00	 add	 eax, 230360		; 000383d8H
  0014b	50		 push	 eax
  0014c	e8 00 00 00 00	 call	 ??_M@YGXPAXIHP6EX0@Z@Z
  00151	c3		 ret	 0
__unwindfunclet$??1GashaponWnd@@UAE@XZ$15:
  00152	ff 35 00 00 00
	00		 push	 DWORD PTR __imp_??1ioHashString@@QAE@XZ
  00158	68 11 06 00 00	 push	 1553			; 00000611H
  0015d	6a 10		 push	 16			; 00000010H
  0015f	8b 45 e8	 mov	 eax, DWORD PTR _this$[ebp]
  00162	05 e8 e4 03 00	 add	 eax, 255208		; 0003e4e8H
  00167	50		 push	 eax
  00168	e8 00 00 00 00	 call	 ??_M@YGXPAXIHP6EX0@Z@Z
  0016d	c3		 ret	 0
__unwindfunclet$??1GashaponWnd@@UAE@XZ$16:
  0016e	ff 35 00 00 00
	00		 push	 DWORD PTR __imp_??1ioHashString@@QAE@XZ
  00174	68 11 06 00 00	 push	 1553			; 00000611H
  00179	6a 10		 push	 16			; 00000010H
  0017b	8b 45 e8	 mov	 eax, DWORD PTR _this$[ebp]
  0017e	05 f8 45 04 00	 add	 eax, 280056		; 000445f8H
  00183	50		 push	 eax
  00184	e8 00 00 00 00	 call	 ??_M@YGXPAXIHP6EX0@Z@Z
  00189	c3		 ret	 0
__ehhandler$??1GashaponWnd@@UAE@XZ:
  0018a	8b 54 24 08	 mov	 edx, DWORD PTR [esp+8]
  0018e	8d 42 0c	 lea	 eax, DWORD PTR [edx+12]
  00191	8b 4a c4	 mov	 ecx, DWORD PTR [edx-60]
  00194	33 c8		 xor	 ecx, eax
  00196	e8 00 00 00 00	 call	 @__security_check_cookie@4
  0019b	b8 00 00 00 00	 mov	 eax, OFFSET __ehfuncinfo$??1GashaponWnd@@UAE@XZ
  001a0	e9 00 00 00 00	 jmp	 ___CxxFrameHandler3
text$x	ENDS
??1GashaponWnd@@UAE@XZ ENDP				; GashaponWnd::~GashaponWnd
PUBLIC	?push_back@?$vector@_NV?$allocator@_N@std@@@std@@QAEX_N@Z ; std::vector<bool,std::allocator<bool> >::push_back
; Function compile flags: /Ogsp
; File c:\program files (x86)\microsoft visual studio 10.0\vc\include\vector
;	COMDAT ?push_back@?$vector@_NV?$allocator@_N@std@@@std@@QAEX_N@Z
_TEXT	SEGMENT
$T526525 = -16						; size = 8
$T526524 = -8						; size = 8
__Val$ = 8						; size = 1
?push_back@?$vector@_NV?$allocator@_N@std@@@std@@QAEX_N@Z PROC ; std::vector<bool,std::allocator<bool> >::push_back, COMDAT
; _this$ = ecx

; 2362 : 		{	// insert element at end

  00000	55		 push	 ebp
  00001	8b ec		 mov	 ebp, esp
  00003	83 ec 10	 sub	 esp, 16			; 00000010H
  00006	56		 push	 esi

; 2363 : 		insert(end(), _Val);

  00007	8d 45 f8	 lea	 eax, DWORD PTR $T526524[ebp]
  0000a	50		 push	 eax
  0000b	8b f1		 mov	 esi, ecx
  0000d	e8 00 00 00 00	 call	 ?end@?$vector@_NV?$allocator@_N@std@@@std@@QAE?AV?$_Vb_iterator@V?$allocator@_N@std@@@2@XZ ; std::vector<bool,std::allocator<bool> >::end
  00012	ff 75 08	 push	 DWORD PTR __Val$[ebp]
  00015	8b ce		 mov	 ecx, esi
  00017	ff 70 04	 push	 DWORD PTR [eax+4]
  0001a	ff 30		 push	 DWORD PTR [eax]
  0001c	8d 45 f0	 lea	 eax, DWORD PTR $T526525[ebp]
  0001f	50		 push	 eax
  00020	e8 00 00 00 00	 call	 ?insert@?$vector@_NV?$allocator@_N@std@@@std@@QAE?AV?$_Vb_iterator@V?$allocator@_N@std@@@2@V?$_Vb_const_iterator@V?$allocator@_N@std@@@2@_N@Z ; std::vector<bool,std::allocator<bool> >::insert
  00025	5e		 pop	 esi

; 2364 : 		}

  00026	c9		 leave
  00027	c2 04 00	 ret	 4
?push_back@?$vector@_NV?$allocator@_N@std@@@std@@QAEX_N@Z ENDP ; std::vector<bool,std::allocator<bool> >::push_back
; Function compile flags: /Ogsp
_TEXT	ENDS
;	COMDAT ??_GGashaponWnd@@UAEPAXI@Z
_TEXT	SEGMENT
___flags$ = 8						; size = 4
??_GGashaponWnd@@UAEPAXI@Z PROC				; GashaponWnd::`scalar deleting destructor', COMDAT
; _this$ = ecx
  00000	55		 push	 ebp
  00001	8b ec		 mov	 ebp, esp
  00003	56		 push	 esi
  00004	8b f1		 mov	 esi, ecx
  00006	e8 00 00 00 00	 call	 ??1GashaponWnd@@UAE@XZ	; GashaponWnd::~GashaponWnd
  0000b	f6 45 08 01	 test	 BYTE PTR ___flags$[ebp], 1
  0000f	74 07		 je	 SHORT $LN1@scalar@3
  00011	56		 push	 esi
  00012	e8 00 00 00 00	 call	 ??3@YAXPAX@Z		; operator delete
  00017	59		 pop	 ecx
$LN1@scalar@3:
  00018	8b c6		 mov	 eax, esi
  0001a	5e		 pop	 esi
  0001b	5d		 pop	 ebp
  0001c	c2 04 00	 ret	 4
??_GGashaponWnd@@UAEPAXI@Z ENDP				; GashaponWnd::`scalar deleting destructor'
_TEXT	ENDS
PUBLIC	_this$GSCopy$
PUBLIC	_xElement$GSCopy$
EXTRN	__imp_?GetBoolAttribute@ioXMLElement@@QBE_NPBD@Z:PROC
;	COMDAT xdata$x
; File d:\lost saga for developer\youtube\tutorial\source\src\lsclient\stringprotect.h
xdata$x	SEGMENT
__unwindtable$?ParseExtraInfo@GashaponWnd@@UAEXAAVioXMLElement@@@Z DD 0ffffffffH
	DD	FLAT:__unwindfunclet$?ParseExtraInfo@GashaponWnd@@UAEXAAVioXMLElement@@@Z$0
	DD	0ffffffffH
	DD	FLAT:__unwindfunclet$?ParseExtraInfo@GashaponWnd@@UAEXAAVioXMLElement@@@Z$1
	DD	0ffffffffH
	DD	FLAT:__unwindfunclet$?ParseExtraInfo@GashaponWnd@@UAEXAAVioXMLElement@@@Z$2
	DD	0ffffffffH
	DD	FLAT:__unwindfunclet$?ParseExtraInfo@GashaponWnd@@UAEXAAVioXMLElement@@@Z$3
__ehfuncinfo$?ParseExtraInfo@GashaponWnd@@UAEXAAVioXMLElement@@@Z DD 019930522H
	DD	04H
	DD	FLAT:__unwindtable$?ParseExtraInfo@GashaponWnd@@UAEXAAVioXMLElement@@@Z
	DD	2 DUP(00H)
	DD	2 DUP(00H)
	DD	00H
	DD	01H
; Function compile flags: /Ogsp
; File d:\lost saga for developer\youtube\tutorial\source\src\lsclient\gui\gashaponwnd.cpp
xdata$x	ENDS
;	COMDAT ?ParseExtraInfo@GashaponWnd@@UAEXAAVioXMLElement@@@Z
_TEXT	SEGMENT
_szIconName$515502 = -2020				; size = 16
_szEffect$514724 = -2004				; size = 16
_szEffect$514561 = -1988				; size = 16
_szIconName$514085 = -1972				; size = 16
__t$527877 = -1955					; size = 1
__t$527462 = -1950					; size = 1
__t$528137 = -1945					; size = 1
_bIsCostume$514247 = -1940				; size = 1
tv20635 = -1936						; size = 4
_this$GSCopy$ = -1932					; size = 4
tv17956 = -1928						; size = 4
_iMax$514883 = -1928					; size = 4
_nGradeType$514400 = -1928				; size = 4
tv11474 = -1924						; size = 4
tv4562 = -1924						; size = 4
_i$514404 = -1924					; size = 4
tv20580 = -1920						; size = 4
_iMax$ = -1920						; size = 4
tv17877 = -1916						; size = 4
tv17858 = -1916						; size = 4
$T526534 = -1916					; size = 4
$T526533 = -1916					; size = 4
$T526532 = -1916					; size = 4
$T526531 = -1916					; size = 4
_iPresentType$515040 = -1916				; size = 4
_iMax$513927 = -1916					; size = 4
tv20882 = -1912						; size = 4
tv20589 = -1912						; size = 4
tv20873 = -1908						; size = 4
tv20641 = -1908						; size = 4
_xElement$GSCopy$ = -1904				; size = 4
_szName$514408 = -1900					; size = 260
_szName$514571 = -1640					; size = 260
_szName$513932 = -1380					; size = 260
_szName$513317 = -1120					; size = 260
_szName$514730 = -860					; size = 260
__k$527192 = -600					; size = 13
__k$526554 = -580					; size = 13
___encStr$515353 = -560					; size = 25
___encStr$514891 = -528					; size = 25
___encStr$513778 = -496					; size = 25
___encStr$514734 = -464					; size = 27
___encStr$515045 = -432					; size = 27
__k$527067 = -400					; size = 14
__k$526929 = -380					; size = 16
__k$527642 = -360					; size = 19
___encStr$514412 = -336					; size = 18
__k$526679 = -312					; size = 19
___encStr$513936 = -288					; size = 24
__k$527524 = -260					; size = 16
___encStr$514098 = -240					; size = 22
___encStr$514575 = -212					; size = 14
___encStr$513626 = -192					; size = 22
___encStr$515198 = -164					; size = 27
___encStr$514251 = -132					; size = 20
__k$526804 = -108					; size = 11
___encStr$513321 = -92					; size = 22
___encStr$513474 = -64					; size = 22
__k$527896 = -36					; size = 15
__$EHRec$ = -12						; size = 12
_xElement$ = 8						; size = 4
?ParseExtraInfo@GashaponWnd@@UAEXAAVioXMLElement@@@Z PROC ; GashaponWnd::ParseExtraInfo, COMDAT
; _this$ = ecx

; 125  : {

  00000	68 d8 07 00 00	 push	 2008			; 000007d8H
  00005	b8 00 00 00 00	 mov	 eax, __ehhandler$?ParseExtraInfo@GashaponWnd@@UAEXAAVioXMLElement@@@Z
  0000a	e8 00 00 00 00	 call	 __EH_prolog3_GS

; 131  : 
; 132  : 	m_szRollingSound = xElement.GetStringAttribute_e( "Rolling_Sound" );

  0000f	8b 45 08	 mov	 eax, DWORD PTR _xElement$[ebp]
  00012	8b f1		 mov	 esi, ecx
  00014	33 db		 xor	 ebx, ebx
  00016	6a 03		 push	 3
  00018	89 85 90 f8 ff
	ff		 mov	 DWORD PTR _xElement$GSCopy$[ebp], eax

; 134  : 
; 135  : 	for (int iGashaponCnt = 0; iGashaponCnt < MAX_GASHAPON ; iGashaponCnt++)

  0001e	89 b5 74 f8 ff
	ff		 mov	 DWORD PTR _this$GSCopy$[ebp], esi
  00024	c7 85 bc fd ff
	ff bf 83 87 86	 mov	 DWORD PTR __k$526554[ebp], -2037939265 ; 868783bfH
  0002e	c7 85 c0 fd ff
	ff 84 82 8c b5	 mov	 DWORD PTR __k$526554[ebp+4], -1249082748 ; b58c8284H
  00038	c7 85 c4 fd ff
	ff b9 85 86 8f	 mov	 DWORD PTR __k$526554[ebp+8], -1887009351 ; 8f8685b9H
  00042	8d 85 bc fd ff
	ff		 lea	 eax, DWORD PTR __k$526554[ebp]
  00048	88 9d c8 fd ff
	ff		 mov	 BYTE PTR __k$526554[ebp+12], bl
  0004e	59		 pop	 ecx
$LL1518@ParseExtra:

; 126  : 	m_dwRollingTime = xElement.GetIntAttribute_e( "Rolling_Time" );

  0004f	81 30 ed ec eb
	ea		 xor	 DWORD PTR [eax], -353637139 ; eaebecedH
  00055	83 c0 04	 add	 eax, 4
  00058	49		 dec	 ecx
  00059	75 f4		 jne	 SHORT $LL1518@ParseExtra
  0005b	8b 8d 90 f8 ff
	ff		 mov	 ecx, DWORD PTR _xElement$GSCopy$[ebp]
  00061	8b 3d 00 00 00
	00		 mov	 edi, DWORD PTR __imp_?GetIntAttribute@ioXMLElement@@QBEHPBD@Z
  00067	8d 85 bc fd ff
	ff		 lea	 eax, DWORD PTR __k$526554[ebp]
  0006d	50		 push	 eax
  0006e	ff d7		 call	 edi
  00070	89 86 94 83 03
	00		 mov	 DWORD PTR [esi+230292], eax
  00076	6a 04		 push	 4

; 127  : 	m_dwRollingTotalTime = xElement.GetIntAttribute_e( "Rolling_Total_Time" );

  00078	c7 85 c8 fe ff
	ff bf 83 87 86	 mov	 DWORD PTR __k$526679[ebp], -2037939265 ; 868783bfH
  00082	c7 85 cc fe ff
	ff 84 82 8c b5	 mov	 DWORD PTR __k$526679[ebp+4], -1249082748 ; b58c8284H
  0008c	c7 85 d0 fe ff
	ff b9 83 9f 8b	 mov	 DWORD PTR __k$526679[ebp+8], -1952480327 ; 8b9f83b9H
  00096	c7 85 d4 fe ff
	ff 81 b3 bf 83	 mov	 DWORD PTR __k$526679[ebp+12], -2084588671 ; 83bfb381H
  000a0	66 c7 85 d8 fe
	ff ff 80 89	 mov	 WORD PTR __k$526679[ebp+16], 35200 ; 00008980H
  000a9	8d 85 c8 fe ff
	ff		 lea	 eax, DWORD PTR __k$526679[ebp]
  000af	88 9d da fe ff
	ff		 mov	 BYTE PTR __k$526679[ebp+18], bl
  000b5	59		 pop	 ecx
$LL1624@ParseExtra:
  000b6	81 30 ed ec eb
	ea		 xor	 DWORD PTR [eax], -353637139 ; eaebecedH
  000bc	83 c0 04	 add	 eax, 4
  000bf	49		 dec	 ecx
  000c0	75 f4		 jne	 SHORT $LL1624@ParseExtra
  000c2	6a 10		 push	 16			; 00000010H
  000c4	58		 pop	 eax
$LL1621@ParseExtra:
  000c5	8b c8		 mov	 ecx, eax
  000c7	81 e1 03 00 00
	80		 and	 ecx, -2147483645	; 80000003H
  000cd	79 05		 jns	 SHORT $LN2935@ParseExtra
  000cf	49		 dec	 ecx
  000d0	83 c9 fc	 or	 ecx, -4			; fffffffcH
  000d3	41		 inc	 ecx
$LN2935@ParseExtra:
  000d4	b2 ed		 mov	 dl, -19			; ffffffedH
  000d6	2a d1		 sub	 dl, cl
  000d8	30 94 05 c8 fe
	ff ff		 xor	 BYTE PTR __k$526679[ebp+eax], dl
  000df	40		 inc	 eax
  000e0	83 f8 12	 cmp	 eax, 18			; 00000012H
  000e3	7c e0		 jl	 SHORT $LL1621@ParseExtra
  000e5	8b 8d 90 f8 ff
	ff		 mov	 ecx, DWORD PTR _xElement$GSCopy$[ebp]
  000eb	8d 85 c8 fe ff
	ff		 lea	 eax, DWORD PTR __k$526679[ebp]
  000f1	50		 push	 eax
  000f2	ff d7		 call	 edi
  000f4	89 86 98 83 03
	00		 mov	 DWORD PTR [esi+230296], eax
  000fa	6a 02		 push	 2

; 128  : 
; 129  : 	m_fIconScale = xElement.GetFloatAttribute_e( "Icon_Scale" );

  000fc	c7 45 94 a4 8f
	84 84		 mov	 DWORD PTR __k$526804[ebp], -2071687260 ; 84848fa4H
  00103	c7 45 98 b2 bf
	88 8b		 mov	 DWORD PTR __k$526804[ebp+4], -1953972302 ; 8b88bfb2H
  0010a	66 c7 45 9c 81
	89		 mov	 WORD PTR __k$526804[ebp+8], 35201 ; 00008981H
  00110	8d 45 94	 lea	 eax, DWORD PTR __k$526804[ebp]
  00113	88 5d 9e	 mov	 BYTE PTR __k$526804[ebp+10], bl
  00116	59		 pop	 ecx
$LL1730@ParseExtra:
  00117	81 30 ed ec eb
	ea		 xor	 DWORD PTR [eax], -353637139 ; eaebecedH
  0011d	83 c0 04	 add	 eax, 4
  00120	49		 dec	 ecx
  00121	75 f4		 jne	 SHORT $LL1730@ParseExtra
  00123	6a 08		 push	 8
  00125	58		 pop	 eax
$LL1727@ParseExtra:
  00126	8b c8		 mov	 ecx, eax
  00128	81 e1 03 00 00
	80		 and	 ecx, -2147483645	; 80000003H
  0012e	79 05		 jns	 SHORT $LN2936@ParseExtra
  00130	49		 dec	 ecx
  00131	83 c9 fc	 or	 ecx, -4			; fffffffcH
  00134	41		 inc	 ecx
$LN2936@ParseExtra:
  00135	b2 ed		 mov	 dl, -19			; ffffffedH
  00137	2a d1		 sub	 dl, cl
  00139	30 54 05 94	 xor	 BYTE PTR __k$526804[ebp+eax], dl
  0013d	40		 inc	 eax
  0013e	83 f8 0a	 cmp	 eax, 10			; 0000000aH
  00141	7c e3		 jl	 SHORT $LL1727@ParseExtra
  00143	8b 8d 90 f8 ff
	ff		 mov	 ecx, DWORD PTR _xElement$GSCopy$[ebp]
  00149	8d 45 94	 lea	 eax, DWORD PTR __k$526804[ebp]
  0014c	50		 push	 eax
  0014d	ff 15 00 00 00
	00		 call	 DWORD PTR __imp_?GetFloatAttribute@ioXMLElement@@QBEMPBD@Z
  00153	d9 9e 8c 83 03
	00		 fstp	 DWORD PTR [esi+230284]
  00159	6a 03		 push	 3

; 130  : 	m_dwIconScaleTime = xElement.GetIntAttribute_e( "Icon_Scale_Time" );

  0015b	c7 85 84 fe ff
	ff a4 8f 84 84	 mov	 DWORD PTR __k$526929[ebp], -2071687260 ; 84848fa4H
  00165	c7 85 88 fe ff
	ff b2 bf 88 8b	 mov	 DWORD PTR __k$526929[ebp+4], -1953972302 ; 8b88bfb2H
  0016f	c7 85 8c fe ff
	ff 81 89 b4 be	 mov	 DWORD PTR __k$526929[ebp+8], -1095464575 ; beb48981H
  00179	8d 85 84 fe ff
	ff		 lea	 eax, DWORD PTR __k$526929[ebp]
  0017f	c7 85 90 fe ff
	ff 84 81 8e 00	 mov	 DWORD PTR __k$526929[ebp+12], 9339268 ; 008e8184H
  00189	59		 pop	 ecx
$LL1836@ParseExtra:
  0018a	81 30 ed ec eb
	ea		 xor	 DWORD PTR [eax], -353637139 ; eaebecedH
  00190	83 c0 04	 add	 eax, 4
  00193	49		 dec	 ecx
  00194	75 f4		 jne	 SHORT $LL1836@ParseExtra
  00196	6a 0c		 push	 12			; 0000000cH
  00198	58		 pop	 eax
$LL1833@ParseExtra:
  00199	8b c8		 mov	 ecx, eax
  0019b	81 e1 03 00 00
	80		 and	 ecx, -2147483645	; 80000003H
  001a1	79 05		 jns	 SHORT $LN2937@ParseExtra
  001a3	49		 dec	 ecx
  001a4	83 c9 fc	 or	 ecx, -4			; fffffffcH
  001a7	41		 inc	 ecx
$LN2937@ParseExtra:
  001a8	b2 ed		 mov	 dl, -19			; ffffffedH
  001aa	2a d1		 sub	 dl, cl
  001ac	30 94 05 84 fe
	ff ff		 xor	 BYTE PTR __k$526929[ebp+eax], dl
  001b3	40		 inc	 eax
  001b4	83 f8 0f	 cmp	 eax, 15			; 0000000fH
  001b7	7c e0		 jl	 SHORT $LL1833@ParseExtra
  001b9	8b 8d 90 f8 ff
	ff		 mov	 ecx, DWORD PTR _xElement$GSCopy$[ebp]
  001bf	8d 85 84 fe ff
	ff		 lea	 eax, DWORD PTR __k$526929[ebp]
  001c5	50		 push	 eax
  001c6	ff d7		 call	 edi
  001c8	89 86 90 83 03
	00		 mov	 DWORD PTR [esi+230288], eax
  001ce	6a 03		 push	 3

; 131  : 
; 132  : 	m_szRollingSound = xElement.GetStringAttribute_e( "Rolling_Sound" );

  001d0	c7 85 70 fe ff
	ff bf 83 87 86	 mov	 DWORD PTR __k$527067[ebp], -2037939265 ; 868783bfH
  001da	c7 85 74 fe ff
	ff 84 82 8c b5	 mov	 DWORD PTR __k$527067[ebp+4], -1249082748 ; b58c8284H
  001e4	c7 85 78 fe ff
	ff be 83 9e 84	 mov	 DWORD PTR __k$527067[ebp+8], -2069986370 ; 849e83beH
  001ee	8d 85 70 fe ff
	ff		 lea	 eax, DWORD PTR __k$527067[ebp]
  001f4	66 c7 85 7c fe
	ff ff 89 00	 mov	 WORD PTR __k$527067[ebp+12], 137 ; 00000089H
  001fd	59		 pop	 ecx
$LL1942@ParseExtra:
  001fe	81 30 ed ec eb
	ea		 xor	 DWORD PTR [eax], -353637139 ; eaebecedH
  00204	83 c0 04	 add	 eax, 4
  00207	49		 dec	 ecx
  00208	75 f4		 jne	 SHORT $LL1942@ParseExtra
  0020a	8b 8d 90 f8 ff
	ff		 mov	 ecx, DWORD PTR _xElement$GSCopy$[ebp]
  00210	80 b5 7c fe ff
	ff ed		 xor	 BYTE PTR __k$527067[ebp+12], -19 ; ffffffedH
  00217	8d 85 70 fe ff
	ff		 lea	 eax, DWORD PTR __k$527067[ebp]
  0021d	50		 push	 eax
  0021e	ff 15 00 00 00
	00		 call	 DWORD PTR __imp_?GetStringAttribute@ioXMLElement@@QBEPBDPBD@Z
  00224	8b 3d 00 00 00
	00		 mov	 edi, DWORD PTR __imp_??4ioHashString@@QAEAAV0@PBD@Z
  0022a	50		 push	 eax
  0022b	8d 8e b8 83 03
	00		 lea	 ecx, DWORD PTR [esi+230328]
  00231	ff d7		 call	 edi
  00233	6a 03		 push	 3

; 133  : 	m_szResultSound = xElement.GetStringAttribute_e( "Result_Sound" );

  00235	c7 85 a8 fd ff
	ff bf 89 98 9f	 mov	 DWORD PTR __k$527192[ebp], -1617393217 ; 9f9889bfH
  0023f	c7 85 ac fd ff
	ff 81 98 b4 b9	 mov	 DWORD PTR __k$527192[ebp+4], -1179346815 ; b9b49881H
  00249	c7 85 b0 fd ff
	ff 82 99 85 8e	 mov	 DWORD PTR __k$527192[ebp+8], -1903847038 ; 8e859982H
  00253	8d 85 a8 fd ff
	ff		 lea	 eax, DWORD PTR __k$527192[ebp]
  00259	88 9d b4 fd ff
	ff		 mov	 BYTE PTR __k$527192[ebp+12], bl
  0025f	59		 pop	 ecx
$LL2048@ParseExtra:
  00260	81 30 ed ec eb
	ea		 xor	 DWORD PTR [eax], -353637139 ; eaebecedH
  00266	83 c0 04	 add	 eax, 4
  00269	49		 dec	 ecx
  0026a	75 f4		 jne	 SHORT $LL2048@ParseExtra
  0026c	8b 8d 90 f8 ff
	ff		 mov	 ecx, DWORD PTR _xElement$GSCopy$[ebp]
  00272	8d 85 a8 fd ff
	ff		 lea	 eax, DWORD PTR __k$527192[ebp]
  00278	50		 push	 eax
  00279	ff 15 00 00 00
	00		 call	 DWORD PTR __imp_?GetStringAttribute@ioXMLElement@@QBEPBDPBD@Z
  0027f	50		 push	 eax
  00280	8d 8e c8 83 03
	00		 lea	 ecx, DWORD PTR [esi+230344]
  00286	ff d7		 call	 edi
  00288	8d 86 88 62 00
	00		 lea	 eax, DWORD PTR [esi+25224]
  0028e	81 c6 e8 e4 03
	00		 add	 esi, 255208		; 0003e4e8H
  00294	89 b5 8c f8 ff
	ff		 mov	 DWORD PTR tv20641[ebp], esi
  0029a	c7 85 88 f8 ff
	ff 01 00 00 00	 mov	 DWORD PTR tv20589[ebp], 1
  002a4	89 85 70 f8 ff
	ff		 mov	 DWORD PTR tv20635[ebp], eax
  002aa	c7 85 7c f8 ff
	ff 11 06 00 00	 mov	 DWORD PTR tv11474[ebp], 1553 ; 00000611H
  002b4	be 04 01 00 00	 mov	 esi, 260		; 00000104H
$LL1408@ParseExtra:

; 136  : 	{
; 137  : 		char szName[MAX_PATH]="";

  002b9	68 03 01 00 00	 push	 259			; 00000103H
  002be	8d 85 a1 fb ff
	ff		 lea	 eax, DWORD PTR _szName$513317[ebp+1]
  002c4	53		 push	 ebx
  002c5	50		 push	 eax
  002c6	88 9d a0 fb ff
	ff		 mov	 BYTE PTR _szName$513317[ebp], bl
  002cc	e8 00 00 00 00	 call	 _memset
  002d1	83 c4 0c	 add	 esp, 12			; 0000000cH
  002d4	6a 05		 push	 5

; 138  : 		StringCbPrintf_e( szName, sizeof( szName ), "Gashapon%d_Desc1_Text", iGashaponCnt+1 );

  002d6	c7 45 a4 aa 8d
	98 82		 mov	 DWORD PTR ___encStr$513321[ebp], -2103931478 ; 82988daaH
  002dd	c7 45 a8 8c 9c
	84 84		 mov	 DWORD PTR ___encStr$513321[ebp+4], -2071683956 ; 84849c8cH
  002e4	c7 45 ac c8 88
	b4 ae		 mov	 DWORD PTR ___encStr$513321[ebp+8], -1363900216 ; aeb488c8H
  002eb	c7 45 b0 88 9f
	88 db		 mov	 DWORD PTR ___encStr$513321[ebp+12], -611803256 ; db889f88H
  002f2	c7 45 b4 b2 b8
	8e 92		 mov	 DWORD PTR ___encStr$513321[ebp+16], -1836140366 ; 928eb8b2H
  002f9	8d 45 a4	 lea	 eax, DWORD PTR ___encStr$513321[ebp]
  002fc	66 c7 45 b8 99
	00		 mov	 WORD PTR ___encStr$513321[ebp+20], 153 ; 00000099H
  00302	59		 pop	 ecx
$LL2056@ParseExtra:
  00303	81 30 ed ec eb
	ea		 xor	 DWORD PTR [eax], -353637139 ; eaebecedH
  00309	83 c0 04	 add	 eax, 4
  0030c	49		 dec	 ecx
  0030d	75 f4		 jne	 SHORT $LL2056@ParseExtra
  0030f	ff b5 88 f8 ff
	ff		 push	 DWORD PTR tv20589[ebp]
  00315	80 75 b8 ed	 xor	 BYTE PTR ___encStr$513321[ebp+20], -19 ; ffffffedH
  00319	8d 45 a4	 lea	 eax, DWORD PTR ___encStr$513321[ebp]
  0031c	50		 push	 eax
  0031d	8d 85 a0 fb ff
	ff		 lea	 eax, DWORD PTR _szName$513317[ebp]
  00323	56		 push	 esi
  00324	50		 push	 eax
  00325	e8 00 00 00 00	 call	 ?StringCbPrintfA@@YAJPADIPBDZZ ; StringCbPrintfA

; 139  : 		m_szDesc1[iGashaponCnt] = xElement.GetStringAttribute( szName );

  0032a	8b 8d 90 f8 ff
	ff		 mov	 ecx, DWORD PTR _xElement$GSCopy$[ebp]
  00330	83 c4 10	 add	 esp, 16			; 00000010H
  00333	8d 85 a0 fb ff
	ff		 lea	 eax, DWORD PTR _szName$513317[ebp]
  00339	50		 push	 eax
  0033a	ff 15 00 00 00
	00		 call	 DWORD PTR __imp_?GetStringAttribute@ioXMLElement@@QBEPBDPBD@Z
  00340	8b 8d 8c f8 ff
	ff		 mov	 ecx, DWORD PTR tv20641[ebp]
  00346	50		 push	 eax
  00347	81 c1 f0 9e ff
	ff		 add	 ecx, -24848		; ffff9ef0H
  0034d	ff d7		 call	 edi
  0034f	6a 05		 push	 5

; 140  : 		StringCbPrintf_e( szName, sizeof( szName ), "Gashapon%d_Desc2_Text", iGashaponCnt+1 );

  00351	c7 45 c0 aa 8d
	98 82		 mov	 DWORD PTR ___encStr$513474[ebp], -2103931478 ; 82988daaH
  00358	c7 45 c4 8c 9c
	84 84		 mov	 DWORD PTR ___encStr$513474[ebp+4], -2071683956 ; 84849c8cH
  0035f	c7 45 c8 c8 88
	b4 ae		 mov	 DWORD PTR ___encStr$513474[ebp+8], -1363900216 ; aeb488c8H
  00366	c7 45 cc 88 9f
	88 d8		 mov	 DWORD PTR ___encStr$513474[ebp+12], -662134904 ; d8889f88H
  0036d	c7 45 d0 b2 b8
	8e 92		 mov	 DWORD PTR ___encStr$513474[ebp+16], -1836140366 ; 928eb8b2H
  00374	8d 45 c0	 lea	 eax, DWORD PTR ___encStr$513474[ebp]
  00377	66 c7 45 d4 99
	00		 mov	 WORD PTR ___encStr$513474[ebp+20], 153 ; 00000099H
  0037d	59		 pop	 ecx
$LL2064@ParseExtra:
  0037e	81 30 ed ec eb
	ea		 xor	 DWORD PTR [eax], -353637139 ; eaebecedH
  00384	83 c0 04	 add	 eax, 4
  00387	49		 dec	 ecx
  00388	75 f4		 jne	 SHORT $LL2064@ParseExtra
  0038a	ff b5 88 f8 ff
	ff		 push	 DWORD PTR tv20589[ebp]
  00390	80 75 d4 ed	 xor	 BYTE PTR ___encStr$513474[ebp+20], -19 ; ffffffedH
  00394	8d 45 c0	 lea	 eax, DWORD PTR ___encStr$513474[ebp]
  00397	50		 push	 eax
  00398	8d 85 a0 fb ff
	ff		 lea	 eax, DWORD PTR _szName$513317[ebp]
  0039e	56		 push	 esi
  0039f	50		 push	 eax
  003a0	e8 00 00 00 00	 call	 ?StringCbPrintfA@@YAJPADIPBDZZ ; StringCbPrintfA

; 141  : 		m_szDesc2[iGashaponCnt] = xElement.GetStringAttribute( szName );

  003a5	8b 8d 90 f8 ff
	ff		 mov	 ecx, DWORD PTR _xElement$GSCopy$[ebp]
  003ab	83 c4 10	 add	 esp, 16			; 00000010H
  003ae	8d 85 a0 fb ff
	ff		 lea	 eax, DWORD PTR _szName$513317[ebp]
  003b4	50		 push	 eax
  003b5	ff 15 00 00 00
	00		 call	 DWORD PTR __imp_?GetStringAttribute@ioXMLElement@@QBEPBDPBD@Z
  003bb	8b 8d 8c f8 ff
	ff		 mov	 ecx, DWORD PTR tv20641[ebp]
  003c1	50		 push	 eax
  003c2	ff d7		 call	 edi
  003c4	6a 05		 push	 5

; 142  : 		StringCbPrintf_e( szName, sizeof( szName ), "Gashapon%d_Title_Text", iGashaponCnt+1 );

  003c6	c7 85 40 ff ff
	ff aa 8d 98 82	 mov	 DWORD PTR ___encStr$513626[ebp], -2103931478 ; 82988daaH
  003d0	c7 85 44 ff ff
	ff 8c 9c 84 84	 mov	 DWORD PTR ___encStr$513626[ebp+4], -2071683956 ; 84849c8cH
  003da	c7 85 48 ff ff
	ff c8 88 b4 be	 mov	 DWORD PTR ___encStr$513626[ebp+8], -1095464760 ; beb488c8H
  003e4	c7 85 4c ff ff
	ff 84 98 87 8f	 mov	 DWORD PTR ___encStr$513626[ebp+12], -1886939004 ; 8f879884H
  003ee	c7 85 50 ff ff
	ff b2 b8 8e 92	 mov	 DWORD PTR ___encStr$513626[ebp+16], -1836140366 ; 928eb8b2H
  003f8	8d 85 40 ff ff
	ff		 lea	 eax, DWORD PTR ___encStr$513626[ebp]
  003fe	66 c7 85 54 ff
	ff ff 99 00	 mov	 WORD PTR ___encStr$513626[ebp+20], 153 ; 00000099H
  00407	59		 pop	 ecx
$LL2072@ParseExtra:
  00408	81 30 ed ec eb
	ea		 xor	 DWORD PTR [eax], -353637139 ; eaebecedH
  0040e	83 c0 04	 add	 eax, 4
  00411	49		 dec	 ecx
  00412	75 f4		 jne	 SHORT $LL2072@ParseExtra
  00414	ff b5 88 f8 ff
	ff		 push	 DWORD PTR tv20589[ebp]
  0041a	80 b5 54 ff ff
	ff ed		 xor	 BYTE PTR ___encStr$513626[ebp+20], -19 ; ffffffedH
  00421	8d 85 40 ff ff
	ff		 lea	 eax, DWORD PTR ___encStr$513626[ebp]
  00427	50		 push	 eax
  00428	8d 85 a0 fb ff
	ff		 lea	 eax, DWORD PTR _szName$513317[ebp]
  0042e	56		 push	 esi
  0042f	50		 push	 eax
  00430	e8 00 00 00 00	 call	 ?StringCbPrintfA@@YAJPADIPBDZZ ; StringCbPrintfA

; 143  : 		m_szTitle[iGashaponCnt] = xElement.GetStringAttribute( szName );

  00435	8b 8d 90 f8 ff
	ff		 mov	 ecx, DWORD PTR _xElement$GSCopy$[ebp]
  0043b	83 c4 10	 add	 esp, 16			; 00000010H
  0043e	8d 85 a0 fb ff
	ff		 lea	 eax, DWORD PTR _szName$513317[ebp]
  00444	50		 push	 eax
  00445	ff 15 00 00 00
	00		 call	 DWORD PTR __imp_?GetStringAttribute@ioXMLElement@@QBEPBDPBD@Z
  0044b	8b 8d 8c f8 ff
	ff		 mov	 ecx, DWORD PTR tv20641[ebp]
  00451	50		 push	 eax
  00452	81 c1 10 61 00
	00		 add	 ecx, 24848		; 00006110H
  00458	ff d7		 call	 edi

; 144  : 
; 145  : 		m_vIconList[iGashaponCnt].clear();

  0045a	8b 8d 8c f8 ff
	ff		 mov	 ecx, DWORD PTR tv20641[ebp]
  00460	81 c1 90 1c fc
	ff		 add	 ecx, -254832		; fffc1c90H
  00466	e8 00 00 00 00	 call	 ?clear@?$vector@VioHashString@@V?$allocator@VioHashString@@@std@@@std@@QAEXXZ ; std::vector<ioHashString,std::allocator<ioHashString> >::clear

; 146  : 		m_vCostumeList[iGashaponCnt].clear();

  0046b	8b 8d 70 f8 ff
	ff		 mov	 ecx, DWORD PTR tv20635[ebp]
  00471	e8 00 00 00 00	 call	 ?clear@?$vector@_NV?$allocator@_N@std@@@std@@QAEXXZ ; std::vector<bool,std::allocator<bool> >::clear

; 147  : 		m_vGradeTypeList[iGashaponCnt].clear();

  00476	8b 8d 8c f8 ff
	ff		 mov	 ecx, DWORD PTR tv20641[ebp]
  0047c	81 c1 f4 f6 fc
	ff		 add	 ecx, -198924		; fffcf6f4H
  00482	e8 00 00 00 00	 call	 ?clear@?$vector@HV?$allocator@H@std@@@std@@QAEXXZ ; std::vector<int,std::allocator<int> >::clear
  00487	6a 06		 push	 6

; 148  : 		StringCbPrintf_e( szName, sizeof( szName ), "Gashapon%d_Max_Icon_Name", iGashaponCnt+1 );

  00489	c7 85 10 fe ff
	ff aa 8d 98 82	 mov	 DWORD PTR ___encStr$513778[ebp], -2103931478 ; 82988daaH
  00493	c7 85 14 fe ff
	ff 8c 9c 84 84	 mov	 DWORD PTR ___encStr$513778[ebp+4], -2071683956 ; 84849c8cH
  0049d	c7 85 18 fe ff
	ff c8 88 b4 a7	 mov	 DWORD PTR ___encStr$513778[ebp+8], -1481340728 ; a7b488c8H
  004a7	c7 85 1c fe ff
	ff 8c 94 b4 a3	 mov	 DWORD PTR ___encStr$513778[ebp+12], -1548446580 ; a3b4948cH
  004b1	c7 85 20 fe ff
	ff 8e 83 85 b5	 mov	 DWORD PTR ___encStr$513778[ebp+16], -1249541234 ; b585838eH
  004bb	c7 85 24 fe ff
	ff a3 8d 86 8f	 mov	 DWORD PTR ___encStr$513778[ebp+20], -1887007325 ; 8f868da3H
  004c5	8d 85 10 fe ff
	ff		 lea	 eax, DWORD PTR ___encStr$513778[ebp]
  004cb	88 9d 28 fe ff
	ff		 mov	 BYTE PTR ___encStr$513778[ebp+24], bl
  004d1	59		 pop	 ecx
$LL2080@ParseExtra:
  004d2	81 30 ed ec eb
	ea		 xor	 DWORD PTR [eax], -353637139 ; eaebecedH
  004d8	83 c0 04	 add	 eax, 4
  004db	49		 dec	 ecx
  004dc	75 f4		 jne	 SHORT $LL2080@ParseExtra
  004de	ff b5 88 f8 ff
	ff		 push	 DWORD PTR tv20589[ebp]
  004e4	8d 85 10 fe ff
	ff		 lea	 eax, DWORD PTR ___encStr$513778[ebp]
  004ea	50		 push	 eax
  004eb	8d 85 a0 fb ff
	ff		 lea	 eax, DWORD PTR _szName$513317[ebp]
  004f1	56		 push	 esi
  004f2	50		 push	 eax
  004f3	e8 00 00 00 00	 call	 ?StringCbPrintfA@@YAJPADIPBDZZ ; StringCbPrintfA

; 149  : 		int iMax = xElement.GetIntAttribute( szName );

  004f8	8b 8d 90 f8 ff
	ff		 mov	 ecx, DWORD PTR _xElement$GSCopy$[ebp]
  004fe	83 c4 10	 add	 esp, 16			; 00000010H
  00501	8d 85 a0 fb ff
	ff		 lea	 eax, DWORD PTR _szName$513317[ebp]
  00507	50		 push	 eax
  00508	ff 15 00 00 00
	00		 call	 DWORD PTR __imp_?GetIntAttribute@ioXMLElement@@QBEHPBD@Z
  0050e	89 85 84 f8 ff
	ff		 mov	 DWORD PTR _iMax$513927[ebp], eax

; 150  : 		for (int i = 0; i < iMax ; i++)

  00514	3b c3		 cmp	 eax, ebx
  00516	0f 8e c7 02 00
	00		 jle	 $LN1407@ParseExtra

; 148  : 		StringCbPrintf_e( szName, sizeof( szName ), "Gashapon%d_Max_Icon_Name", iGashaponCnt+1 );

  0051c	c7 85 80 f8 ff
	ff 01 00 00 00	 mov	 DWORD PTR tv20580[ebp], 1
$LL1009@ParseExtra:

; 151  : 		{
; 152  : 			char szName[MAX_PATH]="";

  00526	68 03 01 00 00	 push	 259			; 00000103H
  0052b	8d 85 9d fa ff
	ff		 lea	 eax, DWORD PTR _szName$513932[ebp+1]
  00531	53		 push	 ebx
  00532	50		 push	 eax
  00533	88 9d 9c fa ff
	ff		 mov	 BYTE PTR _szName$513932[ebp], bl
  00539	e8 00 00 00 00	 call	 _memset
  0053e	83 c4 0c	 add	 esp, 12			; 0000000cH
  00541	6a 05		 push	 5

; 153  : 			StringCbPrintf_e( szName, sizeof( szName ), "Gashapon%d_Icon_Name_%d", iGashaponCnt+1, i+1 );

  00543	c7 85 e0 fe ff
	ff aa 8d 98 82	 mov	 DWORD PTR ___encStr$513936[ebp], -2103931478 ; 82988daaH
  0054d	c7 85 e4 fe ff
	ff 8c 9c 84 84	 mov	 DWORD PTR ___encStr$513936[ebp+4], -2071683956 ; 84849c8cH
  00557	c7 85 e8 fe ff
	ff c8 88 b4 a3	 mov	 DWORD PTR ___encStr$513936[ebp+8], -1548449592 ; a3b488c8H
  00561	c7 85 ec fe ff
	ff 8e 83 85 b5	 mov	 DWORD PTR ___encStr$513936[ebp+12], -1249541234 ; b585838eH
  0056b	c7 85 f0 fe ff
	ff a3 8d 86 8f	 mov	 DWORD PTR ___encStr$513936[ebp+16], -1887007325 ; 8f868da3H
  00575	8d 85 e0 fe ff
	ff		 lea	 eax, DWORD PTR ___encStr$513936[ebp]
  0057b	c7 85 f4 fe ff
	ff b2 c9 8f 00	 mov	 DWORD PTR ___encStr$513936[ebp+20], 9423282 ; 008fc9b2H
  00585	59		 pop	 ecx
$LL2088@ParseExtra:
  00586	81 30 ed ec eb
	ea		 xor	 DWORD PTR [eax], -353637139 ; eaebecedH
  0058c	83 c0 04	 add	 eax, 4
  0058f	49		 dec	 ecx
  00590	75 f4		 jne	 SHORT $LL2088@ParseExtra
  00592	6a 14		 push	 20			; 00000014H
  00594	58		 pop	 eax
$LL2085@ParseExtra:
  00595	8b c8		 mov	 ecx, eax
  00597	81 e1 03 00 00
	80		 and	 ecx, -2147483645	; 80000003H
  0059d	79 05		 jns	 SHORT $LN2938@ParseExtra
  0059f	49		 dec	 ecx
  005a0	83 c9 fc	 or	 ecx, -4			; fffffffcH
  005a3	41		 inc	 ecx
$LN2938@ParseExtra:
  005a4	b2 ed		 mov	 dl, -19			; ffffffedH
  005a6	2a d1		 sub	 dl, cl
  005a8	30 94 05 e0 fe
	ff ff		 xor	 BYTE PTR ___encStr$513936[ebp+eax], dl
  005af	40		 inc	 eax
  005b0	83 f8 17	 cmp	 eax, 23			; 00000017H
  005b3	7c e0		 jl	 SHORT $LL2085@ParseExtra
  005b5	ff b5 80 f8 ff
	ff		 push	 DWORD PTR tv20580[ebp]
  005bb	8d 85 e0 fe ff
	ff		 lea	 eax, DWORD PTR ___encStr$513936[ebp]
  005c1	ff b5 88 f8 ff
	ff		 push	 DWORD PTR tv20589[ebp]
  005c7	50		 push	 eax
  005c8	8d 85 9c fa ff
	ff		 lea	 eax, DWORD PTR _szName$513932[ebp]
  005ce	56		 push	 esi
  005cf	50		 push	 eax
  005d0	e8 00 00 00 00	 call	 ?StringCbPrintfA@@YAJPADIPBDZZ ; StringCbPrintfA

; 154  : 			ioHashString szIconName = xElement.GetStringAttribute( szName );

  005d5	8b 8d 90 f8 ff
	ff		 mov	 ecx, DWORD PTR _xElement$GSCopy$[ebp]
  005db	83 c4 14	 add	 esp, 20			; 00000014H
  005de	8d 85 9c fa ff
	ff		 lea	 eax, DWORD PTR _szName$513932[ebp]
  005e4	50		 push	 eax
  005e5	ff 15 00 00 00
	00		 call	 DWORD PTR __imp_?GetStringAttribute@ioXMLElement@@QBEPBDPBD@Z
  005eb	50		 push	 eax
  005ec	8d 8d 4c f8 ff
	ff		 lea	 ecx, DWORD PTR _szIconName$514085[ebp]
  005f2	ff 15 00 00 00
	00		 call	 DWORD PTR __imp_??0ioHashString@@QAE@PBD@Z

; 155  : 			if( szIconName == "" )

  005f8	8b 85 4c f8 ff
	ff		 mov	 eax, DWORD PTR _szIconName$514085[ebp]
  005fe	89 5d fc	 mov	 DWORD PTR __$EHRec$[ebp+8], ebx
  00601	88 9d 62 f8 ff
	ff		 mov	 BYTE PTR __t$527462[ebp], bl
  00607	8d 8d 62 f8 ff
	ff		 lea	 ecx, DWORD PTR __t$527462[ebp]
$LL2919@ParseExtra:
  0060d	8a 10		 mov	 dl, BYTE PTR [eax]
  0060f	3a 11		 cmp	 dl, BYTE PTR [ecx]
  00611	75 1a		 jne	 SHORT $LN2920@ParseExtra
  00613	3a d3		 cmp	 dl, bl
  00615	74 12		 je	 SHORT $LN2921@ParseExtra
  00617	8a 50 01	 mov	 dl, BYTE PTR [eax+1]
  0061a	3a 51 01	 cmp	 dl, BYTE PTR [ecx+1]
  0061d	75 0e		 jne	 SHORT $LN2920@ParseExtra
  0061f	83 c0 02	 add	 eax, 2
  00622	83 c1 02	 add	 ecx, 2
  00625	3a d3		 cmp	 dl, bl
  00627	75 e4		 jne	 SHORT $LL2919@ParseExtra
$LN2921@ParseExtra:
  00629	33 c0		 xor	 eax, eax
  0062b	eb 05		 jmp	 SHORT $LN2922@ParseExtra
$LN2920@ParseExtra:
  0062d	1b c0		 sbb	 eax, eax
  0062f	83 d8 ff	 sbb	 eax, -1
$LN2922@ParseExtra:
  00632	3b c3		 cmp	 eax, ebx
  00634	0f 84 99 01 00
	00		 je	 $LN2857@ParseExtra

; 157  : 			m_vIconList[iGashaponCnt].push_back( szIconName );

  0063a	8b 8d 8c f8 ff
	ff		 mov	 ecx, DWORD PTR tv20641[ebp]
  00640	8d 85 4c f8 ff
	ff		 lea	 eax, DWORD PTR _szIconName$514085[ebp]
  00646	50		 push	 eax
  00647	81 c1 90 1c fc
	ff		 add	 ecx, -254832		; fffc1c90H
  0064d	e8 00 00 00 00	 call	 ?push_back@?$vector@VioHashString@@V?$allocator@VioHashString@@@std@@@std@@QAEXABVioHashString@@@Z ; std::vector<ioHashString,std::allocator<ioHashString> >::push_back
  00652	6a 05		 push	 5

; 158  : 
; 159  : 			StringCbPrintf_e( szName, sizeof( szName ), "Gashapon%d_Costume_%d", iGashaponCnt+1, i+1 );

  00654	c7 85 10 ff ff
	ff aa 8d 98 82	 mov	 DWORD PTR ___encStr$514098[ebp], -2103931478 ; 82988daaH
  0065e	c7 85 14 ff ff
	ff 8c 9c 84 84	 mov	 DWORD PTR ___encStr$514098[ebp+4], -2071683956 ; 84849c8cH
  00668	c7 85 18 ff ff
	ff c8 88 b4 a9	 mov	 DWORD PTR ___encStr$514098[ebp+8], -1447786296 ; a9b488c8H
  00672	c7 85 1c ff ff
	ff 82 9f 9f 9f	 mov	 DWORD PTR ___encStr$514098[ebp+12], -1616928894 ; 9f9f9f82H
  0067c	c7 85 20 ff ff
	ff 80 89 b4 cf	 mov	 DWORD PTR ___encStr$514098[ebp+16], -810251904 ; cfb48980H
  00686	8d 85 10 ff ff
	ff		 lea	 eax, DWORD PTR ___encStr$514098[ebp]
  0068c	66 c7 85 24 ff
	ff ff 89 00	 mov	 WORD PTR ___encStr$514098[ebp+20], 137 ; 00000089H
  00695	59		 pop	 ecx
$LL2202@ParseExtra:
  00696	81 30 ed ec eb
	ea		 xor	 DWORD PTR [eax], -353637139 ; eaebecedH
  0069c	83 c0 04	 add	 eax, 4
  0069f	49		 dec	 ecx
  006a0	75 f4		 jne	 SHORT $LL2202@ParseExtra
  006a2	ff b5 80 f8 ff
	ff		 push	 DWORD PTR tv20580[ebp]
  006a8	80 b5 24 ff ff
	ff ed		 xor	 BYTE PTR ___encStr$514098[ebp+20], -19 ; ffffffedH
  006af	ff b5 88 f8 ff
	ff		 push	 DWORD PTR tv20589[ebp]
  006b5	8d 85 10 ff ff
	ff		 lea	 eax, DWORD PTR ___encStr$514098[ebp]
  006bb	50		 push	 eax
  006bc	8d 85 9c fa ff
	ff		 lea	 eax, DWORD PTR _szName$513932[ebp]
  006c2	56		 push	 esi
  006c3	50		 push	 eax
  006c4	e8 00 00 00 00	 call	 ?StringCbPrintfA@@YAJPADIPBDZZ ; StringCbPrintfA

; 160  : 			bool bIsCostume = xElement.GetBoolAttribute( szName );

  006c9	8b 8d 90 f8 ff
	ff		 mov	 ecx, DWORD PTR _xElement$GSCopy$[ebp]
  006cf	83 c4 14	 add	 esp, 20			; 00000014H
  006d2	8d 85 9c fa ff
	ff		 lea	 eax, DWORD PTR _szName$513932[ebp]
  006d8	50		 push	 eax
  006d9	ff 15 00 00 00
	00		 call	 DWORD PTR __imp_?GetBoolAttribute@ioXMLElement@@QBE_NPBD@Z

; 161  : 			m_vCostumeList[iGashaponCnt].push_back( bIsCostume );

  006df	8b 8d 70 f8 ff
	ff		 mov	 ecx, DWORD PTR tv20635[ebp]
  006e5	88 85 6c f8 ff
	ff		 mov	 BYTE PTR _bIsCostume$514247[ebp], al
  006eb	ff b5 6c f8 ff
	ff		 push	 DWORD PTR _bIsCostume$514247[ebp]
  006f1	e8 00 00 00 00	 call	 ?push_back@?$vector@_NV?$allocator@_N@std@@@std@@QAEX_N@Z ; std::vector<bool,std::allocator<bool> >::push_back
  006f6	6a 04		 push	 4

; 162  : 
; 163  : 			StringCbPrintf_e( szName, sizeof( szName ), "Gashapon%d_Grade_%d", iGashaponCnt+1, i+1 );

  006f8	c7 85 7c ff ff
	ff aa 8d 98 82	 mov	 DWORD PTR ___encStr$514251[ebp], -2103931478 ; 82988daaH
  00702	c7 45 80 8c 9c
	84 84		 mov	 DWORD PTR ___encStr$514251[ebp+4], -2071683956 ; 84849c8cH
  00709	c7 45 84 c8 88
	b4 ad		 mov	 DWORD PTR ___encStr$514251[ebp+8], -1380677432 ; adb488c8H
  00710	c7 45 88 9f 8d
	8f 8f		 mov	 DWORD PTR ___encStr$514251[ebp+12], -1886417505 ; 8f8f8d9fH
  00717	8d 85 7c ff ff
	ff		 lea	 eax, DWORD PTR ___encStr$514251[ebp]
  0071d	c7 45 8c b2 c9
	8f 00		 mov	 DWORD PTR ___encStr$514251[ebp+16], 9423282 ; 008fc9b2H
  00724	59		 pop	 ecx
$LL2210@ParseExtra:
  00725	81 30 ed ec eb
	ea		 xor	 DWORD PTR [eax], -353637139 ; eaebecedH
  0072b	83 c0 04	 add	 eax, 4
  0072e	49		 dec	 ecx
  0072f	75 f4		 jne	 SHORT $LL2210@ParseExtra
  00731	6a 10		 push	 16			; 00000010H
  00733	58		 pop	 eax
$LL2207@ParseExtra:
  00734	8b c8		 mov	 ecx, eax
  00736	81 e1 03 00 00
	80		 and	 ecx, -2147483645	; 80000003H
  0073c	79 05		 jns	 SHORT $LN2939@ParseExtra
  0073e	49		 dec	 ecx
  0073f	83 c9 fc	 or	 ecx, -4			; fffffffcH
  00742	41		 inc	 ecx
$LN2939@ParseExtra:
  00743	b2 ed		 mov	 dl, -19			; ffffffedH
  00745	2a d1		 sub	 dl, cl
  00747	30 94 05 7c ff
	ff ff		 xor	 BYTE PTR ___encStr$514251[ebp+eax], dl
  0074e	40		 inc	 eax
  0074f	83 f8 13	 cmp	 eax, 19			; 00000013H
  00752	7c e0		 jl	 SHORT $LL2207@ParseExtra
  00754	ff b5 80 f8 ff
	ff		 push	 DWORD PTR tv20580[ebp]
  0075a	8d 85 7c ff ff
	ff		 lea	 eax, DWORD PTR ___encStr$514251[ebp]
  00760	ff b5 88 f8 ff
	ff		 push	 DWORD PTR tv20589[ebp]
  00766	50		 push	 eax
  00767	8d 85 9c fa ff
	ff		 lea	 eax, DWORD PTR _szName$513932[ebp]
  0076d	56		 push	 esi
  0076e	50		 push	 eax
  0076f	e8 00 00 00 00	 call	 ?StringCbPrintfA@@YAJPADIPBDZZ ; StringCbPrintfA

; 164  : 			int nGradeType = xElement.GetIntAttribute( szName );

  00774	8b 8d 90 f8 ff
	ff		 mov	 ecx, DWORD PTR _xElement$GSCopy$[ebp]
  0077a	83 c4 14	 add	 esp, 20			; 00000014H
  0077d	8d 85 9c fa ff
	ff		 lea	 eax, DWORD PTR _szName$513932[ebp]
  00783	50		 push	 eax
  00784	ff 15 00 00 00
	00		 call	 DWORD PTR __imp_?GetIntAttribute@ioXMLElement@@QBEHPBD@Z

; 165  : 			m_vGradeTypeList[iGashaponCnt].push_back( nGradeType );

  0078a	8b 8d 8c f8 ff
	ff		 mov	 ecx, DWORD PTR tv20641[ebp]
  00790	89 85 78 f8 ff
	ff		 mov	 DWORD PTR _nGradeType$514400[ebp], eax
  00796	8d 85 78 f8 ff
	ff		 lea	 eax, DWORD PTR _nGradeType$514400[ebp]
  0079c	50		 push	 eax
  0079d	81 c1 f4 f6 fc
	ff		 add	 ecx, -198924		; fffcf6f4H
  007a3	e8 00 00 00 00	 call	 ?push_back@?$vector@HV?$allocator@H@std@@@std@@QAEXABH@Z ; std::vector<int,std::allocator<int> >::push_back

; 166  : 		}	

  007a8	83 4d fc ff	 or	 DWORD PTR __$EHRec$[ebp+8], -1
  007ac	8d 8d 4c f8 ff
	ff		 lea	 ecx, DWORD PTR _szIconName$514085[ebp]
  007b2	ff 15 00 00 00
	00		 call	 DWORD PTR __imp_??1ioHashString@@QAE@XZ
  007b8	ff 85 80 f8 ff
	ff		 inc	 DWORD PTR tv20580[ebp]
  007be	8b 85 80 f8 ff
	ff		 mov	 eax, DWORD PTR tv20580[ebp]
  007c4	48		 dec	 eax
  007c5	3b 85 84 f8 ff
	ff		 cmp	 eax, DWORD PTR _iMax$513927[ebp]
  007cb	0f 8c 55 fd ff
	ff		 jl	 $LL1009@ParseExtra

; 216  : 			if( iPresentType == 0 )

  007d1	eb 10		 jmp	 SHORT $LN1407@ParseExtra
$LN2857@ParseExtra:

; 156  : 				break;

  007d3	83 4d fc ff	 or	 DWORD PTR __$EHRec$[ebp+8], -1
  007d7	8d 8d 4c f8 ff
	ff		 lea	 ecx, DWORD PTR _szIconName$514085[ebp]
  007dd	ff 15 00 00 00
	00		 call	 DWORD PTR __imp_??1ioHashString@@QAE@XZ
$LN1407@ParseExtra:

; 134  : 
; 135  : 	for (int iGashaponCnt = 0; iGashaponCnt < MAX_GASHAPON ; iGashaponCnt++)

  007e3	83 85 70 f8 ff
	ff 14		 add	 DWORD PTR tv20635[ebp], 20 ; 00000014H
  007ea	ff 85 88 f8 ff
	ff		 inc	 DWORD PTR tv20589[ebp]
  007f0	83 85 8c f8 ff
	ff 10		 add	 DWORD PTR tv20641[ebp], 16 ; 00000010H
  007f7	ff 8d 7c f8 ff
	ff		 dec	 DWORD PTR tv11474[ebp]
  007fd	0f 85 b6 fa ff
	ff		 jne	 $LL1408@ParseExtra

; 167  : 	}
; 168  : 
; 169  : 
; 170  : 	m_dwRollingEffectTime = xElement.GetIntAttribute_e( "Effect_Gap_Time" );

  00803	6a 03		 push	 3
  00805	c7 85 fc fe ff
	ff a8 8a 8d 8f	 mov	 DWORD PTR __k$527524[ebp], -1886549336 ; 8f8d8aa8H
  0080f	c7 85 00 ff ff
	ff 8e 98 b4 ad	 mov	 DWORD PTR __k$527524[ebp+4], -1380673394 ; adb4988eH
  00819	c7 85 04 ff ff
	ff 8c 9c b4 be	 mov	 DWORD PTR __k$527524[ebp+8], -1095459700 ; beb49c8cH
  00823	8d 85 fc fe ff
	ff		 lea	 eax, DWORD PTR __k$527524[ebp]
  00829	c7 85 08 ff ff
	ff 84 81 8e 00	 mov	 DWORD PTR __k$527524[ebp+12], 9339268 ; 008e8184H
  00833	59		 pop	 ecx
$LL2316@ParseExtra:
  00834	81 30 ed ec eb
	ea		 xor	 DWORD PTR [eax], -353637139 ; eaebecedH
  0083a	83 c0 04	 add	 eax, 4
  0083d	49		 dec	 ecx
  0083e	75 f4		 jne	 SHORT $LL2316@ParseExtra
  00840	6a 0c		 push	 12			; 0000000cH
  00842	5f		 pop	 edi
$LL2313@ParseExtra:
  00843	8b c7		 mov	 eax, edi
  00845	25 03 00 00 80	 and	 eax, -2147483645	; 80000003H
  0084a	79 05		 jns	 SHORT $LN2940@ParseExtra
  0084c	48		 dec	 eax
  0084d	83 c8 fc	 or	 eax, -4			; fffffffcH
  00850	40		 inc	 eax
$LN2940@ParseExtra:
  00851	b1 ed		 mov	 cl, -19			; ffffffedH
  00853	2a c8		 sub	 cl, al
  00855	30 8c 3d fc fe
	ff ff		 xor	 BYTE PTR __k$527524[ebp+edi], cl
  0085c	47		 inc	 edi
  0085d	83 ff 0f	 cmp	 edi, 15			; 0000000fH
  00860	7c e1		 jl	 SHORT $LL2313@ParseExtra
  00862	8b 8d 90 f8 ff
	ff		 mov	 ecx, DWORD PTR _xElement$GSCopy$[ebp]
  00868	8d 85 fc fe ff
	ff		 lea	 eax, DWORD PTR __k$527524[ebp]
  0086e	50		 push	 eax
  0086f	ff 15 00 00 00
	00		 call	 DWORD PTR __imp_?GetIntAttribute@ioXMLElement@@QBEHPBD@Z
  00875	8b bd 74 f8 ff
	ff		 mov	 edi, DWORD PTR _this$GSCopy$[ebp]

; 171  : 	m_vRollingEffect.clear();

  0087b	8d 8f 4c 83 03
	00		 lea	 ecx, DWORD PTR [edi+230220]
  00881	89 87 b0 83 03
	00		 mov	 DWORD PTR [edi+230320], eax
  00887	e8 00 00 00 00	 call	 ?clear@?$vector@VioHashString@@V?$allocator@VioHashString@@@std@@@std@@QAEXXZ ; std::vector<ioHashString,std::allocator<ioHashString> >::clear
  0088c	6a 04		 push	 4

; 172  : 
; 173  : 	int iMax = xElement.GetIntAttribute_e( "Max_Rolling_Effect" );

  0088e	c7 85 98 fe ff
	ff a0 8d 93 b5	 mov	 DWORD PTR __k$527642[ebp], -1248621152 ; b5938da0H
  00898	c7 85 9c fe ff
	ff bf 83 87 86	 mov	 DWORD PTR __k$527642[ebp+4], -2037939265 ; 868783bfH
  008a2	c7 85 a0 fe ff
	ff 84 82 8c b5	 mov	 DWORD PTR __k$527642[ebp+8], -1249082748 ; b58c8284H
  008ac	c7 85 a4 fe ff
	ff a8 8a 8d 8f	 mov	 DWORD PTR __k$527642[ebp+12], -1886549336 ; 8f8d8aa8H
  008b6	66 c7 85 a8 fe
	ff ff 8e 98	 mov	 WORD PTR __k$527642[ebp+16], 39054 ; 0000988eH
  008bf	8d 85 98 fe ff
	ff		 lea	 eax, DWORD PTR __k$527642[ebp]
  008c5	88 9d aa fe ff
	ff		 mov	 BYTE PTR __k$527642[ebp+18], bl
  008cb	59		 pop	 ecx
$LL2422@ParseExtra:
  008cc	81 30 ed ec eb
	ea		 xor	 DWORD PTR [eax], -353637139 ; eaebecedH
  008d2	83 c0 04	 add	 eax, 4
  008d5	49		 dec	 ecx
  008d6	75 f4		 jne	 SHORT $LL2422@ParseExtra
  008d8	6a 10		 push	 16			; 00000010H
  008da	58		 pop	 eax
$LL2419@ParseExtra:
  008db	8b c8		 mov	 ecx, eax
  008dd	81 e1 03 00 00
	80		 and	 ecx, -2147483645	; 80000003H
  008e3	79 05		 jns	 SHORT $LN2941@ParseExtra
  008e5	49		 dec	 ecx
  008e6	83 c9 fc	 or	 ecx, -4			; fffffffcH
  008e9	41		 inc	 ecx
$LN2941@ParseExtra:
  008ea	b2 ed		 mov	 dl, -19			; ffffffedH
  008ec	2a d1		 sub	 dl, cl
  008ee	30 94 05 98 fe
	ff ff		 xor	 BYTE PTR __k$527642[ebp+eax], dl
  008f5	40		 inc	 eax
  008f6	83 f8 12	 cmp	 eax, 18			; 00000012H
  008f9	7c e0		 jl	 SHORT $LL2419@ParseExtra
  008fb	8b 8d 90 f8 ff
	ff		 mov	 ecx, DWORD PTR _xElement$GSCopy$[ebp]
  00901	8d 85 98 fe ff
	ff		 lea	 eax, DWORD PTR __k$527642[ebp]
  00907	50		 push	 eax
  00908	ff 15 00 00 00
	00		 call	 DWORD PTR __imp_?GetIntAttribute@ioXMLElement@@QBEHPBD@Z

; 174  : 	m_vRollingEffect.reserve( iMax );

  0090e	50		 push	 eax
  0090f	8d 8f 4c 83 03
	00		 lea	 ecx, DWORD PTR [edi+230220]
  00915	89 85 80 f8 ff
	ff		 mov	 DWORD PTR _iMax$[ebp], eax
  0091b	e8 00 00 00 00	 call	 ?reserve@?$vector@VioHashString@@V?$allocator@VioHashString@@@std@@@std@@QAEXI@Z ; std::vector<ioHashString,std::allocator<ioHashString> >::reserve

; 175  : 	for (int i = 0; i < iMax ; i++)

  00920	89 9d 7c f8 ff
	ff		 mov	 DWORD PTR _i$514404[ebp], ebx
  00926	39 9d 80 f8 ff
	ff		 cmp	 DWORD PTR _iMax$[ebp], ebx
  0092c	0f 8e 47 01 00
	00		 jle	 $LN706@ParseExtra
$LN708@ParseExtra:

; 176  : 	{
; 177  : 		char szName[MAX_PATH]="";

  00932	68 03 01 00 00	 push	 259			; 00000103H
  00937	8d 85 95 f8 ff
	ff		 lea	 eax, DWORD PTR _szName$514408[ebp+1]
  0093d	53		 push	 ebx
  0093e	50		 push	 eax
  0093f	88 9d 94 f8 ff
	ff		 mov	 BYTE PTR _szName$514408[ebp], bl
  00945	e8 00 00 00 00	 call	 _memset
  0094a	83 c4 0c	 add	 esp, 12			; 0000000cH
  0094d	6a 04		 push	 4

; 178  : 		StringCbPrintf_e( szName, sizeof( szName ), "Rolling_Effect_%d", i+1 );

  0094f	c7 85 b0 fe ff
	ff bf 83 87 86	 mov	 DWORD PTR ___encStr$514412[ebp], -2037939265 ; 868783bfH
  00959	c7 85 b4 fe ff
	ff 84 82 8c b5	 mov	 DWORD PTR ___encStr$514412[ebp+4], -1249082748 ; b58c8284H
  00963	c7 85 b8 fe ff
	ff a8 8a 8d 8f	 mov	 DWORD PTR ___encStr$514412[ebp+8], -1886549336 ; 8f8d8aa8H
  0096d	c7 85 bc fe ff
	ff 8e 98 b4 cf	 mov	 DWORD PTR ___encStr$514412[ebp+12], -810248050 ; cfb4988eH
  00977	8d 85 b0 fe ff
	ff		 lea	 eax, DWORD PTR ___encStr$514412[ebp]
  0097d	66 c7 85 c0 fe
	ff ff 89 00	 mov	 WORD PTR ___encStr$514412[ebp+16], 137 ; 00000089H
  00986	59		 pop	 ecx
$LL2430@ParseExtra:
  00987	81 30 ed ec eb
	ea		 xor	 DWORD PTR [eax], -353637139 ; eaebecedH
  0098d	83 c0 04	 add	 eax, 4
  00990	49		 dec	 ecx
  00991	75 f4		 jne	 SHORT $LL2430@ParseExtra
  00993	80 b5 c0 fe ff
	ff ed		 xor	 BYTE PTR ___encStr$514412[ebp+16], -19 ; ffffffedH
  0099a	8b 85 7c f8 ff
	ff		 mov	 eax, DWORD PTR _i$514404[ebp]
  009a0	40		 inc	 eax
  009a1	50		 push	 eax
  009a2	89 85 84 f8 ff
	ff		 mov	 DWORD PTR tv17858[ebp], eax
  009a8	8d 85 b0 fe ff
	ff		 lea	 eax, DWORD PTR ___encStr$514412[ebp]
  009ae	50		 push	 eax
  009af	8d 85 94 f8 ff
	ff		 lea	 eax, DWORD PTR _szName$514408[ebp]
  009b5	56		 push	 esi
  009b6	50		 push	 eax
  009b7	e8 00 00 00 00	 call	 ?StringCbPrintfA@@YAJPADIPBDZZ ; StringCbPrintfA

; 179  : 		ioHashString szEffect = xElement.GetStringAttribute( szName );

  009bc	8b 8d 90 f8 ff
	ff		 mov	 ecx, DWORD PTR _xElement$GSCopy$[ebp]
  009c2	83 c4 10	 add	 esp, 16			; 00000010H
  009c5	8d 85 94 f8 ff
	ff		 lea	 eax, DWORD PTR _szName$514408[ebp]
  009cb	50		 push	 eax
  009cc	ff 15 00 00 00
	00		 call	 DWORD PTR __imp_?GetStringAttribute@ioXMLElement@@QBEPBDPBD@Z
  009d2	50		 push	 eax
  009d3	8d 8d 3c f8 ff
	ff		 lea	 ecx, DWORD PTR _szEffect$514561[ebp]
  009d9	ff 15 00 00 00
	00		 call	 DWORD PTR __imp_??0ioHashString@@QAE@PBD@Z

; 180  : 		if( szEffect == "" )

  009df	8b 85 3c f8 ff
	ff		 mov	 eax, DWORD PTR _szEffect$514561[ebp]
  009e5	c7 45 fc 01 00
	00 00		 mov	 DWORD PTR __$EHRec$[ebp+8], 1
  009ec	88 9d 5d f8 ff
	ff		 mov	 BYTE PTR __t$527877[ebp], bl
  009f2	8d bd 5d f8 ff
	ff		 lea	 edi, DWORD PTR __t$527877[ebp]
$LL2923@ParseExtra:
  009f8	8a 08		 mov	 cl, BYTE PTR [eax]
  009fa	3a 0f		 cmp	 cl, BYTE PTR [edi]
  009fc	75 1a		 jne	 SHORT $LN2924@ParseExtra
  009fe	3a cb		 cmp	 cl, bl
  00a00	74 12		 je	 SHORT $LN2925@ParseExtra
  00a02	8a 48 01	 mov	 cl, BYTE PTR [eax+1]
  00a05	3a 4f 01	 cmp	 cl, BYTE PTR [edi+1]
  00a08	75 0e		 jne	 SHORT $LN2924@ParseExtra
  00a0a	83 c0 02	 add	 eax, 2
  00a0d	83 c7 02	 add	 edi, 2
  00a10	3a cb		 cmp	 cl, bl
  00a12	75 e4		 jne	 SHORT $LL2923@ParseExtra
$LN2925@ParseExtra:
  00a14	33 c0		 xor	 eax, eax
  00a16	eb 05		 jmp	 SHORT $LN2926@ParseExtra
$LN2924@ParseExtra:
  00a18	1b c0		 sbb	 eax, eax
  00a1a	83 d8 ff	 sbb	 eax, -1
$LN2926@ParseExtra:
  00a1d	3b c3		 cmp	 eax, ebx
  00a1f	74 42		 je	 SHORT $LN2858@ParseExtra

; 182  : 		m_vRollingEffect.push_back( szEffect );

  00a21	8b bd 74 f8 ff
	ff		 mov	 edi, DWORD PTR _this$GSCopy$[ebp]
  00a27	8d 85 3c f8 ff
	ff		 lea	 eax, DWORD PTR _szEffect$514561[ebp]
  00a2d	50		 push	 eax
  00a2e	8d 8f 4c 83 03
	00		 lea	 ecx, DWORD PTR [edi+230220]
  00a34	e8 00 00 00 00	 call	 ?push_back@?$vector@VioHashString@@V?$allocator@VioHashString@@@std@@@std@@QAEXABVioHashString@@@Z ; std::vector<ioHashString,std::allocator<ioHashString> >::push_back

; 183  : 	}

  00a39	83 4d fc ff	 or	 DWORD PTR __$EHRec$[ebp+8], -1
  00a3d	8d 8d 3c f8 ff
	ff		 lea	 ecx, DWORD PTR _szEffect$514561[ebp]
  00a43	ff 15 00 00 00
	00		 call	 DWORD PTR __imp_??1ioHashString@@QAE@XZ
  00a49	8b 85 84 f8 ff
	ff		 mov	 eax, DWORD PTR tv17858[ebp]
  00a4f	89 85 7c f8 ff
	ff		 mov	 DWORD PTR _i$514404[ebp], eax
  00a55	3b 85 80 f8 ff
	ff		 cmp	 eax, DWORD PTR _iMax$[ebp]
  00a5b	0f 8c d1 fe ff
	ff		 jl	 $LN708@ParseExtra

; 216  : 			if( iPresentType == 0 )

  00a61	eb 16		 jmp	 SHORT $LN706@ParseExtra
$LN2858@ParseExtra:

; 181  : 			break;

  00a63	83 4d fc ff	 or	 DWORD PTR __$EHRec$[ebp+8], -1
  00a67	8d 8d 3c f8 ff
	ff		 lea	 ecx, DWORD PTR _szEffect$514561[ebp]
  00a6d	ff 15 00 00 00
	00		 call	 DWORD PTR __imp_??1ioHashString@@QAE@XZ
  00a73	8b bd 74 f8 ff
	ff		 mov	 edi, DWORD PTR _this$GSCopy$[ebp]
$LN706@ParseExtra:

; 184  : 
; 185  : 	m_vEndEfffect.clear();

  00a79	81 c7 5c 83 03
	00		 add	 edi, 230236		; 0003835cH
  00a7f	8b cf		 mov	 ecx, edi
  00a81	89 bd 84 f8 ff
	ff		 mov	 DWORD PTR tv17877[ebp], edi
  00a87	e8 00 00 00 00	 call	 ?clear@?$vector@VioHashString@@V?$allocator@VioHashString@@@std@@@std@@QAEXXZ ; std::vector<ioHashString,std::allocator<ioHashString> >::clear
  00a8c	6a 03		 push	 3

; 186  : 	iMax = xElement.GetIntAttribute_e( "Max_End_Effect" );

  00a8e	c7 45 dc a0 8d
	93 b5		 mov	 DWORD PTR __k$527896[ebp], -1248621152 ; b5938da0H
  00a95	c7 45 e0 a8 82
	8f b5		 mov	 DWORD PTR __k$527896[ebp+4], -1248886104 ; b58f82a8H
  00a9c	c7 45 e4 a8 8a
	8d 8f		 mov	 DWORD PTR __k$527896[ebp+8], -1886549336 ; 8f8d8aa8H
  00aa3	66 c7 45 e8 8e
	98		 mov	 WORD PTR __k$527896[ebp+12], 39054 ; 0000988eH
  00aa9	8d 45 dc	 lea	 eax, DWORD PTR __k$527896[ebp]
  00aac	88 5d ea	 mov	 BYTE PTR __k$527896[ebp+14], bl
  00aaf	59		 pop	 ecx
$LL2642@ParseExtra:
  00ab0	81 30 ed ec eb
	ea		 xor	 DWORD PTR [eax], -353637139 ; eaebecedH
  00ab6	83 c0 04	 add	 eax, 4
  00ab9	49		 dec	 ecx
  00aba	75 f4		 jne	 SHORT $LL2642@ParseExtra
  00abc	6a 0c		 push	 12			; 0000000cH
  00abe	58		 pop	 eax
$LL2639@ParseExtra:
  00abf	8b c8		 mov	 ecx, eax
  00ac1	81 e1 03 00 00
	80		 and	 ecx, -2147483645	; 80000003H
  00ac7	79 05		 jns	 SHORT $LN2942@ParseExtra
  00ac9	49		 dec	 ecx
  00aca	83 c9 fc	 or	 ecx, -4			; fffffffcH
  00acd	41		 inc	 ecx
$LN2942@ParseExtra:
  00ace	b2 ed		 mov	 dl, -19			; ffffffedH
  00ad0	2a d1		 sub	 dl, cl
  00ad2	30 54 05 dc	 xor	 BYTE PTR __k$527896[ebp+eax], dl
  00ad6	40		 inc	 eax
  00ad7	83 f8 0e	 cmp	 eax, 14			; 0000000eH
  00ada	7c e3		 jl	 SHORT $LL2639@ParseExtra
  00adc	8b 8d 90 f8 ff
	ff		 mov	 ecx, DWORD PTR _xElement$GSCopy$[ebp]
  00ae2	8d 45 dc	 lea	 eax, DWORD PTR __k$527896[ebp]
  00ae5	50		 push	 eax
  00ae6	ff 15 00 00 00
	00		 call	 DWORD PTR __imp_?GetIntAttribute@ioXMLElement@@QBEHPBD@Z

; 187  : 	m_vEndEfffect.reserve( iMax );

  00aec	50		 push	 eax
  00aed	8b cf		 mov	 ecx, edi
  00aef	89 85 80 f8 ff
	ff		 mov	 DWORD PTR _iMax$[ebp], eax
  00af5	e8 00 00 00 00	 call	 ?reserve@?$vector@VioHashString@@V?$allocator@VioHashString@@@std@@@std@@QAEXI@Z ; std::vector<ioHashString,std::allocator<ioHashString> >::reserve

; 188  : 	for (int i = 0; i < iMax ; i++)

  00afa	33 ff		 xor	 edi, edi
  00afc	39 9d 80 f8 ff
	ff		 cmp	 DWORD PTR _iMax$[ebp], ebx
  00b02	0f 8e 27 01 00
	00		 jle	 $LN603@ParseExtra
$LN605@ParseExtra:

; 189  : 	{
; 190  : 		char szName[MAX_PATH]="";

  00b08	68 03 01 00 00	 push	 259			; 00000103H
  00b0d	8d 85 99 f9 ff
	ff		 lea	 eax, DWORD PTR _szName$514571[ebp+1]
  00b13	53		 push	 ebx
  00b14	50		 push	 eax
  00b15	88 9d 98 f9 ff
	ff		 mov	 BYTE PTR _szName$514571[ebp], bl
  00b1b	e8 00 00 00 00	 call	 _memset
  00b20	83 c4 0c	 add	 esp, 12			; 0000000cH
  00b23	6a 03		 push	 3

; 191  : 		StringCbPrintf_e( szName, sizeof( szName ), "End_Effect_%d", i+1 );

  00b25	c7 85 2c ff ff
	ff a8 82 8f b5	 mov	 DWORD PTR ___encStr$514575[ebp], -1248886104 ; b58f82a8H
  00b2f	c7 85 30 ff ff
	ff a8 8a 8d 8f	 mov	 DWORD PTR ___encStr$514575[ebp+4], -1886549336 ; 8f8d8aa8H
  00b39	c7 85 34 ff ff
	ff 8e 98 b4 cf	 mov	 DWORD PTR ___encStr$514575[ebp+8], -810248050 ; cfb4988eH
  00b43	8d 85 2c ff ff
	ff		 lea	 eax, DWORD PTR ___encStr$514575[ebp]
  00b49	66 c7 85 38 ff
	ff ff 89 00	 mov	 WORD PTR ___encStr$514575[ebp+12], 137 ; 00000089H
  00b52	59		 pop	 ecx
$LL2650@ParseExtra:
  00b53	81 30 ed ec eb
	ea		 xor	 DWORD PTR [eax], -353637139 ; eaebecedH
  00b59	83 c0 04	 add	 eax, 4
  00b5c	49		 dec	 ecx
  00b5d	75 f4		 jne	 SHORT $LL2650@ParseExtra
  00b5f	80 b5 38 ff ff
	ff ed		 xor	 BYTE PTR ___encStr$514575[ebp+12], -19 ; ffffffedH
  00b66	8d 47 01	 lea	 eax, DWORD PTR [edi+1]
  00b69	50		 push	 eax
  00b6a	89 85 78 f8 ff
	ff		 mov	 DWORD PTR tv17956[ebp], eax
  00b70	8d 85 2c ff ff
	ff		 lea	 eax, DWORD PTR ___encStr$514575[ebp]
  00b76	50		 push	 eax
  00b77	8d 85 98 f9 ff
	ff		 lea	 eax, DWORD PTR _szName$514571[ebp]
  00b7d	56		 push	 esi
  00b7e	50		 push	 eax
  00b7f	e8 00 00 00 00	 call	 ?StringCbPrintfA@@YAJPADIPBDZZ ; StringCbPrintfA

; 192  : 		ioHashString szEffect = xElement.GetStringAttribute( szName );

  00b84	8b 8d 90 f8 ff
	ff		 mov	 ecx, DWORD PTR _xElement$GSCopy$[ebp]
  00b8a	83 c4 10	 add	 esp, 16			; 00000010H
  00b8d	8d 85 98 f9 ff
	ff		 lea	 eax, DWORD PTR _szName$514571[ebp]
  00b93	50		 push	 eax
  00b94	ff 15 00 00 00
	00		 call	 DWORD PTR __imp_?GetStringAttribute@ioXMLElement@@QBEPBDPBD@Z
  00b9a	50		 push	 eax
  00b9b	8d 8d 2c f8 ff
	ff		 lea	 ecx, DWORD PTR _szEffect$514724[ebp]
  00ba1	ff 15 00 00 00
	00		 call	 DWORD PTR __imp_??0ioHashString@@QAE@PBD@Z

; 193  : 		if( szEffect == "" )

  00ba7	8b 85 2c f8 ff
	ff		 mov	 eax, DWORD PTR _szEffect$514724[ebp]
  00bad	c7 45 fc 02 00
	00 00		 mov	 DWORD PTR __$EHRec$[ebp+8], 2
  00bb4	88 9d 67 f8 ff
	ff		 mov	 BYTE PTR __t$528137[ebp], bl
  00bba	8d bd 67 f8 ff
	ff		 lea	 edi, DWORD PTR __t$528137[ebp]
$LL2927@ParseExtra:
  00bc0	8a 08		 mov	 cl, BYTE PTR [eax]
  00bc2	3a 0f		 cmp	 cl, BYTE PTR [edi]
  00bc4	75 1a		 jne	 SHORT $LN2928@ParseExtra
  00bc6	3a cb		 cmp	 cl, bl
  00bc8	74 12		 je	 SHORT $LN2929@ParseExtra
  00bca	8a 48 01	 mov	 cl, BYTE PTR [eax+1]
  00bcd	3a 4f 01	 cmp	 cl, BYTE PTR [edi+1]
  00bd0	75 0e		 jne	 SHORT $LN2928@ParseExtra
  00bd2	83 c0 02	 add	 eax, 2
  00bd5	83 c7 02	 add	 edi, 2
  00bd8	3a cb		 cmp	 cl, bl
  00bda	75 e4		 jne	 SHORT $LL2927@ParseExtra
$LN2929@ParseExtra:
  00bdc	33 c0		 xor	 eax, eax
  00bde	eb 05		 jmp	 SHORT $LN2930@ParseExtra
$LN2928@ParseExtra:
  00be0	1b c0		 sbb	 eax, eax
  00be2	83 d8 ff	 sbb	 eax, -1
$LN2930@ParseExtra:
  00be5	3b c3		 cmp	 eax, ebx
  00be7	74 36		 je	 SHORT $LN2859@ParseExtra

; 195  : 		m_vEndEfffect.push_back( szEffect );

  00be9	8b 8d 84 f8 ff
	ff		 mov	 ecx, DWORD PTR tv17877[ebp]
  00bef	8d 85 2c f8 ff
	ff		 lea	 eax, DWORD PTR _szEffect$514724[ebp]
  00bf5	50		 push	 eax
  00bf6	e8 00 00 00 00	 call	 ?push_back@?$vector@VioHashString@@V?$allocator@VioHashString@@@std@@@std@@QAEXABVioHashString@@@Z ; std::vector<ioHashString,std::allocator<ioHashString> >::push_back

; 196  : 	}

  00bfb	83 4d fc ff	 or	 DWORD PTR __$EHRec$[ebp+8], -1
  00bff	8d 8d 2c f8 ff
	ff		 lea	 ecx, DWORD PTR _szEffect$514724[ebp]
  00c05	ff 15 00 00 00
	00		 call	 DWORD PTR __imp_??1ioHashString@@QAE@XZ
  00c0b	8b bd 78 f8 ff
	ff		 mov	 edi, DWORD PTR tv17956[ebp]
  00c11	3b bd 80 f8 ff
	ff		 cmp	 edi, DWORD PTR _iMax$[ebp]
  00c17	0f 8c eb fe ff
	ff		 jl	 $LN605@ParseExtra

; 216  : 			if( iPresentType == 0 )

  00c1d	eb 10		 jmp	 SHORT $LN603@ParseExtra
$LN2859@ParseExtra:

; 194  : 			break;

  00c1f	83 4d fc ff	 or	 DWORD PTR __$EHRec$[ebp+8], -1
  00c23	8d 8d 2c f8 ff
	ff		 lea	 ecx, DWORD PTR _szEffect$514724[ebp]
  00c29	ff 15 00 00 00
	00		 call	 DWORD PTR __imp_??1ioHashString@@QAE@XZ
$LN603@ParseExtra:

; 197  : 
; 198  : 	// icon change
; 199  : 	for (int iGashaponCnt = 0; iGashaponCnt < MAX_GASHAPON ; iGashaponCnt++)

  00c2f	8b bd 74 f8 ff
	ff		 mov	 edi, DWORD PTR _this$GSCopy$[ebp]
  00c35	c7 85 88 f8 ff
	ff 01 00 00 00	 mov	 DWORD PTR tv20882[ebp], 1
  00c3f	81 c7 fc 9d 01
	00		 add	 edi, 105980		; 00019dfcH
  00c45	c7 85 7c f8 ff
	ff 11 06 00 00	 mov	 DWORD PTR tv4562[ebp], 1553 ; 00000611H
$LL502@ParseExtra:

; 200  : 	{
; 201  : 		char szName[MAX_PATH]="";

  00c4f	68 03 01 00 00	 push	 259			; 00000103H
  00c54	8d 85 a5 fc ff
	ff		 lea	 eax, DWORD PTR _szName$514730[ebp+1]
  00c5a	53		 push	 ebx
  00c5b	50		 push	 eax
  00c5c	88 9d a4 fc ff
	ff		 mov	 BYTE PTR _szName$514730[ebp], bl
  00c62	e8 00 00 00 00	 call	 _memset
  00c67	83 c4 0c	 add	 esp, 12			; 0000000cH

; 202  : 		m_vIconChangePresentTypeVec[iGashaponCnt].clear();

  00c6a	8d 8f f0 9e ff
	ff		 lea	 ecx, DWORD PTR [edi-24848]
  00c70	e8 00 00 00 00	 call	 ?clear@?$vector@HV?$allocator@H@std@@@std@@QAEXXZ ; std::vector<int,std::allocator<int> >::clear

; 203  : 		m_vIconChangePresentValue1Vec[iGashaponCnt].clear();

  00c75	8b cf		 mov	 ecx, edi
  00c77	e8 00 00 00 00	 call	 ?clear@?$vector@HV?$allocator@H@std@@@std@@QAEXXZ ; std::vector<int,std::allocator<int> >::clear

; 204  : 		m_vIconChangePresentValue2Vec[iGashaponCnt].clear();

  00c7c	8d 8f 10 61 00
	00		 lea	 ecx, DWORD PTR [edi+24848]
  00c82	e8 00 00 00 00	 call	 ?clear@?$vector@HV?$allocator@H@std@@@std@@QAEXXZ ; std::vector<int,std::allocator<int> >::clear

; 205  : 		m_vIconChangePresentValue3Vec[iGashaponCnt].clear();

  00c87	8d 8f 20 c2 00
	00		 lea	 ecx, DWORD PTR [edi+49696]
  00c8d	e8 00 00 00 00	 call	 ?clear@?$vector@HV?$allocator@H@std@@@std@@QAEXXZ ; std::vector<int,std::allocator<int> >::clear

; 206  : 		m_vIconChangePresentValue4Vec[iGashaponCnt].clear();

  00c92	8d 8f 30 23 01
	00		 lea	 ecx, DWORD PTR [edi+74544]
  00c98	e8 00 00 00 00	 call	 ?clear@?$vector@HV?$allocator@H@std@@@std@@QAEXXZ ; std::vector<int,std::allocator<int> >::clear

; 207  : 		m_vIconChangeIconVec[iGashaponCnt].clear();

  00c9d	8d 8f 40 84 01
	00		 lea	 ecx, DWORD PTR [edi+99392]
  00ca3	e8 00 00 00 00	 call	 ?clear@?$vector@VioHashString@@V?$allocator@VioHashString@@@std@@@std@@QAEXXZ ; std::vector<ioHashString,std::allocator<ioHashString> >::clear
  00ca8	6a 06		 push	 6

; 208  : 
; 209  : 		StringCbPrintf_e( szName, sizeof( szName ), "Gashapon%d_Max_Change_Icon", iGashaponCnt+1 );

  00caa	c7 85 30 fe ff
	ff aa 8d 98 82	 mov	 DWORD PTR ___encStr$514734[ebp], -2103931478 ; 82988daaH
  00cb4	c7 85 34 fe ff
	ff 8c 9c 84 84	 mov	 DWORD PTR ___encStr$514734[ebp+4], -2071683956 ; 84849c8cH
  00cbe	c7 85 38 fe ff
	ff c8 88 b4 a7	 mov	 DWORD PTR ___encStr$514734[ebp+8], -1481340728 ; a7b488c8H
  00cc8	c7 85 3c fe ff
	ff 8c 94 b4 a9	 mov	 DWORD PTR ___encStr$514734[ebp+12], -1447783284 ; a9b4948cH
  00cd2	c7 85 40 fe ff
	ff 85 8d 85 8d	 mov	 DWORD PTR ___encStr$514734[ebp+16], -1920627323 ; 8d858d85H
  00cdc	c7 85 44 fe ff
	ff 88 b3 a2 89	 mov	 DWORD PTR ___encStr$514734[ebp+20], -1985825912 ; 89a2b388H
  00ce6	66 c7 85 48 fe
	ff ff 82 82	 mov	 WORD PTR ___encStr$514734[ebp+24], 33410 ; 00008282H
  00cef	8d 85 30 fe ff
	ff		 lea	 eax, DWORD PTR ___encStr$514734[ebp]
  00cf5	88 9d 4a fe ff
	ff		 mov	 BYTE PTR ___encStr$514734[ebp+26], bl
  00cfb	59		 pop	 ecx
$LL2764@ParseExtra:
  00cfc	81 30 ed ec eb
	ea		 xor	 DWORD PTR [eax], -353637139 ; eaebecedH
  00d02	83 c0 04	 add	 eax, 4
  00d05	49		 dec	 ecx
  00d06	75 f4		 jne	 SHORT $LL2764@ParseExtra
  00d08	6a 18		 push	 24			; 00000018H
  00d0a	58		 pop	 eax
$LL2761@ParseExtra:
  00d0b	8b c8		 mov	 ecx, eax
  00d0d	81 e1 03 00 00
	80		 and	 ecx, -2147483645	; 80000003H
  00d13	79 05		 jns	 SHORT $LN2943@ParseExtra
  00d15	49		 dec	 ecx
  00d16	83 c9 fc	 or	 ecx, -4			; fffffffcH
  00d19	41		 inc	 ecx
$LN2943@ParseExtra:
  00d1a	b2 ed		 mov	 dl, -19			; ffffffedH
  00d1c	2a d1		 sub	 dl, cl
  00d1e	30 94 05 30 fe
	ff ff		 xor	 BYTE PTR ___encStr$514734[ebp+eax], dl
  00d25	40		 inc	 eax
  00d26	83 f8 1a	 cmp	 eax, 26			; 0000001aH
  00d29	7c e0		 jl	 SHORT $LL2761@ParseExtra
  00d2b	ff b5 88 f8 ff
	ff		 push	 DWORD PTR tv20882[ebp]
  00d31	8d 85 30 fe ff
	ff		 lea	 eax, DWORD PTR ___encStr$514734[ebp]
  00d37	50		 push	 eax
  00d38	8d 85 a4 fc ff
	ff		 lea	 eax, DWORD PTR _szName$514730[ebp]
  00d3e	56		 push	 esi
  00d3f	50		 push	 eax
  00d40	e8 00 00 00 00	 call	 ?StringCbPrintfA@@YAJPADIPBDZZ ; StringCbPrintfA

; 210  : 		int iMax = xElement.GetIntAttribute( szName );

  00d45	8b 8d 90 f8 ff
	ff		 mov	 ecx, DWORD PTR _xElement$GSCopy$[ebp]
  00d4b	83 c4 10	 add	 esp, 16			; 00000010H
  00d4e	8d 85 a4 fc ff
	ff		 lea	 eax, DWORD PTR _szName$514730[ebp]
  00d54	50		 push	 eax
  00d55	ff 15 00 00 00
	00		 call	 DWORD PTR __imp_?GetIntAttribute@ioXMLElement@@QBEHPBD@Z
  00d5b	89 85 78 f8 ff
	ff		 mov	 DWORD PTR _iMax$514883[ebp], eax

; 211  : 		for (int i = 0; i < iMax ; i++)

  00d61	3b c3		 cmp	 eax, ebx
  00d63	0f 8e a5 03 00
	00		 jle	 $LN501@ParseExtra

; 208  : 
; 209  : 		StringCbPrintf_e( szName, sizeof( szName ), "Gashapon%d_Max_Change_Icon", iGashaponCnt+1 );

  00d69	c7 85 8c f8 ff
	ff 01 00 00 00	 mov	 DWORD PTR tv20873[ebp], 1
$LL400@ParseExtra:

; 212  : 		{
; 213  : 			ZeroMemory( szName, sizeof( szName ) );

  00d73	56		 push	 esi
  00d74	8d 85 a4 fc ff
	ff		 lea	 eax, DWORD PTR _szName$514730[ebp]
  00d7a	53		 push	 ebx
  00d7b	50		 push	 eax
  00d7c	e8 00 00 00 00	 call	 _memset
  00d81	83 c4 0c	 add	 esp, 12			; 0000000cH
  00d84	6a 06		 push	 6

; 214  : 			StringCbPrintf_e( szName, sizeof( szName ), "Gashapon%d_Change%d_Type", iGashaponCnt+1, i+1 );

  00d86	c7 85 f0 fd ff
	ff aa 8d 98 82	 mov	 DWORD PTR ___encStr$514891[ebp], -2103931478 ; 82988daaH
  00d90	c7 85 f4 fd ff
	ff 8c 9c 84 84	 mov	 DWORD PTR ___encStr$514891[ebp+4], -2071683956 ; 84849c8cH
  00d9a	c7 85 f8 fd ff
	ff c8 88 b4 a9	 mov	 DWORD PTR ___encStr$514891[ebp+8], -1447786296 ; a9b488c8H
  00da4	c7 85 fc fd ff
	ff 85 8d 85 8d	 mov	 DWORD PTR ___encStr$514891[ebp+12], -1920627323 ; 8d858d85H
  00dae	c7 85 00 fe ff
	ff 88 c9 8f b5	 mov	 DWORD PTR ___encStr$514891[ebp+16], -1248867960 ; b58fc988H
  00db8	c7 85 04 fe ff
	ff b9 95 9b 8f	 mov	 DWORD PTR ___encStr$514891[ebp+20], -1885628999 ; 8f9b95b9H
  00dc2	8d 85 f0 fd ff
	ff		 lea	 eax, DWORD PTR ___encStr$514891[ebp]
  00dc8	88 9d 08 fe ff
	ff		 mov	 BYTE PTR ___encStr$514891[ebp+24], bl
  00dce	59		 pop	 ecx
$LL2772@ParseExtra:
  00dcf	81 30 ed ec eb
	ea		 xor	 DWORD PTR [eax], -353637139 ; eaebecedH
  00dd5	83 c0 04	 add	 eax, 4
  00dd8	49		 dec	 ecx
  00dd9	75 f4		 jne	 SHORT $LL2772@ParseExtra
  00ddb	ff b5 8c f8 ff
	ff		 push	 DWORD PTR tv20873[ebp]
  00de1	8d 85 f0 fd ff
	ff		 lea	 eax, DWORD PTR ___encStr$514891[ebp]
  00de7	ff b5 88 f8 ff
	ff		 push	 DWORD PTR tv20882[ebp]
  00ded	50		 push	 eax
  00dee	8d 85 a4 fc ff
	ff		 lea	 eax, DWORD PTR _szName$514730[ebp]
  00df4	56		 push	 esi
  00df5	50		 push	 eax
  00df6	e8 00 00 00 00	 call	 ?StringCbPrintfA@@YAJPADIPBDZZ ; StringCbPrintfA

; 215  : 			int iPresentType = xElement.GetIntAttribute( szName );

  00dfb	8b 8d 90 f8 ff
	ff		 mov	 ecx, DWORD PTR _xElement$GSCopy$[ebp]
  00e01	83 c4 14	 add	 esp, 20			; 00000014H
  00e04	8d 85 a4 fc ff
	ff		 lea	 eax, DWORD PTR _szName$514730[ebp]
  00e0a	50		 push	 eax
  00e0b	ff 15 00 00 00
	00		 call	 DWORD PTR __imp_?GetIntAttribute@ioXMLElement@@QBEHPBD@Z
  00e11	89 85 84 f8 ff
	ff		 mov	 DWORD PTR _iPresentType$515040[ebp], eax

; 216  : 			if( iPresentType == 0 )

  00e17	3b c3		 cmp	 eax, ebx
  00e19	0f 84 ef 02 00
	00		 je	 $LN501@ParseExtra

; 217  : 				break;
; 218  : 			m_vIconChangePresentTypeVec[iGashaponCnt].push_back( iPresentType );

  00e1f	8d 85 84 f8 ff
	ff		 lea	 eax, DWORD PTR _iPresentType$515040[ebp]
  00e25	50		 push	 eax
  00e26	8d 8f f0 9e ff
	ff		 lea	 ecx, DWORD PTR [edi-24848]
  00e2c	e8 00 00 00 00	 call	 ?push_back@?$vector@HV?$allocator@H@std@@@std@@QAEXABH@Z ; std::vector<int,std::allocator<int> >::push_back

; 219  : 
; 220  : 			ZeroMemory( szName, sizeof( szName ) );

  00e31	56		 push	 esi
  00e32	8d 85 a4 fc ff
	ff		 lea	 eax, DWORD PTR _szName$514730[ebp]
  00e38	53		 push	 ebx
  00e39	50		 push	 eax
  00e3a	e8 00 00 00 00	 call	 _memset
  00e3f	83 c4 0c	 add	 esp, 12			; 0000000cH
  00e42	6a 06		 push	 6

; 221  : 			StringCbPrintf_e( szName, sizeof( szName ), "Gashapon%d_Change%d_Value1", iGashaponCnt+1, i+1 );

  00e44	c7 85 50 fe ff
	ff aa 8d 98 82	 mov	 DWORD PTR ___encStr$515045[ebp], -2103931478 ; 82988daaH
  00e4e	c7 85 54 fe ff
	ff 8c 9c 84 84	 mov	 DWORD PTR ___encStr$515045[ebp+4], -2071683956 ; 84849c8cH
  00e58	c7 85 58 fe ff
	ff c8 88 b4 a9	 mov	 DWORD PTR ___encStr$515045[ebp+8], -1447786296 ; a9b488c8H
  00e62	c7 85 5c fe ff
	ff 85 8d 85 8d	 mov	 DWORD PTR ___encStr$515045[ebp+12], -1920627323 ; 8d858d85H
  00e6c	c7 85 60 fe ff
	ff 88 c9 8f b5	 mov	 DWORD PTR ___encStr$515045[ebp+16], -1248867960 ; b58fc988H
  00e76	c7 85 64 fe ff
	ff bb 8d 87 9f	 mov	 DWORD PTR ___encStr$515045[ebp+20], -1618506309 ; 9f878dbbH
  00e80	66 c7 85 68 fe
	ff ff 88 dd	 mov	 WORD PTR ___encStr$515045[ebp+24], 56712 ; 0000dd88H
  00e89	8d 85 50 fe ff
	ff		 lea	 eax, DWORD PTR ___encStr$515045[ebp]
  00e8f	88 9d 6a fe ff
	ff		 mov	 BYTE PTR ___encStr$515045[ebp+26], bl
  00e95	59		 pop	 ecx
$LL2780@ParseExtra:
  00e96	81 30 ed ec eb
	ea		 xor	 DWORD PTR [eax], -353637139 ; eaebecedH
  00e9c	83 c0 04	 add	 eax, 4
  00e9f	49		 dec	 ecx
  00ea0	75 f4		 jne	 SHORT $LL2780@ParseExtra
  00ea2	6a 18		 push	 24			; 00000018H
  00ea4	58		 pop	 eax
$LL2777@ParseExtra:
  00ea5	8b c8		 mov	 ecx, eax
  00ea7	81 e1 03 00 00
	80		 and	 ecx, -2147483645	; 80000003H
  00ead	79 05		 jns	 SHORT $LN2944@ParseExtra
  00eaf	49		 dec	 ecx
  00eb0	83 c9 fc	 or	 ecx, -4			; fffffffcH
  00eb3	41		 inc	 ecx
$LN2944@ParseExtra:
  00eb4	b2 ed		 mov	 dl, -19			; ffffffedH
  00eb6	2a d1		 sub	 dl, cl
  00eb8	30 94 05 50 fe
	ff ff		 xor	 BYTE PTR ___encStr$515045[ebp+eax], dl
  00ebf	40		 inc	 eax
  00ec0	83 f8 1a	 cmp	 eax, 26			; 0000001aH
  00ec3	7c e0		 jl	 SHORT $LL2777@ParseExtra
  00ec5	ff b5 8c f8 ff
	ff		 push	 DWORD PTR tv20873[ebp]
  00ecb	8d 85 50 fe ff
	ff		 lea	 eax, DWORD PTR ___encStr$515045[ebp]
  00ed1	ff b5 88 f8 ff
	ff		 push	 DWORD PTR tv20882[ebp]
  00ed7	50		 push	 eax
  00ed8	8d 85 a4 fc ff
	ff		 lea	 eax, DWORD PTR _szName$514730[ebp]
  00ede	56		 push	 esi
  00edf	50		 push	 eax
  00ee0	e8 00 00 00 00	 call	 ?StringCbPrintfA@@YAJPADIPBDZZ ; StringCbPrintfA

; 222  : 			m_vIconChangePresentValue1Vec[iGashaponCnt].push_back( xElement.GetIntAttribute( szName ) );

  00ee5	8b 8d 90 f8 ff
	ff		 mov	 ecx, DWORD PTR _xElement$GSCopy$[ebp]
  00eeb	83 c4 14	 add	 esp, 20			; 00000014H
  00eee	8d 85 a4 fc ff
	ff		 lea	 eax, DWORD PTR _szName$514730[ebp]
  00ef4	50		 push	 eax
  00ef5	ff 15 00 00 00
	00		 call	 DWORD PTR __imp_?GetIntAttribute@ioXMLElement@@QBEHPBD@Z
  00efb	89 85 84 f8 ff
	ff		 mov	 DWORD PTR $T526531[ebp], eax
  00f01	8d 85 84 f8 ff
	ff		 lea	 eax, DWORD PTR $T526531[ebp]
  00f07	50		 push	 eax
  00f08	8b cf		 mov	 ecx, edi
  00f0a	e8 00 00 00 00	 call	 ?push_back@?$vector@HV?$allocator@H@std@@@std@@QAEX$$QAH@Z ; std::vector<int,std::allocator<int> >::push_back

; 223  : 
; 224  : 			ZeroMemory( szName, sizeof( szName ) );

  00f0f	56		 push	 esi
  00f10	8d 85 a4 fc ff
	ff		 lea	 eax, DWORD PTR _szName$514730[ebp]
  00f16	53		 push	 ebx
  00f17	50		 push	 eax
  00f18	e8 00 00 00 00	 call	 _memset
  00f1d	83 c4 0c	 add	 esp, 12			; 0000000cH
  00f20	6a 06		 push	 6

; 225  : 			StringCbPrintf_e( szName, sizeof( szName ), "Gashapon%d_Change%d_Value2", iGashaponCnt+1, i+1 );

  00f22	c7 85 5c ff ff
	ff aa 8d 98 82	 mov	 DWORD PTR ___encStr$515198[ebp], -2103931478 ; 82988daaH
  00f2c	c7 85 60 ff ff
	ff 8c 9c 84 84	 mov	 DWORD PTR ___encStr$515198[ebp+4], -2071683956 ; 84849c8cH
  00f36	c7 85 64 ff ff
	ff c8 88 b4 a9	 mov	 DWORD PTR ___encStr$515198[ebp+8], -1447786296 ; a9b488c8H
  00f40	c7 85 68 ff ff
	ff 85 8d 85 8d	 mov	 DWORD PTR ___encStr$515198[ebp+12], -1920627323 ; 8d858d85H
  00f4a	c7 85 6c ff ff
	ff 88 c9 8f b5	 mov	 DWORD PTR ___encStr$515198[ebp+16], -1248867960 ; b58fc988H
  00f54	c7 85 70 ff ff
	ff bb 8d 87 9f	 mov	 DWORD PTR ___encStr$515198[ebp+20], -1618506309 ; 9f878dbbH
  00f5e	66 c7 85 74 ff
	ff ff 88 de	 mov	 WORD PTR ___encStr$515198[ebp+24], 56968 ; 0000de88H
  00f67	8d 85 5c ff ff
	ff		 lea	 eax, DWORD PTR ___encStr$515198[ebp]
  00f6d	88 9d 76 ff ff
	ff		 mov	 BYTE PTR ___encStr$515198[ebp+26], bl
  00f73	59		 pop	 ecx
$LL2788@ParseExtra:
  00f74	81 30 ed ec eb
	ea		 xor	 DWORD PTR [eax], -353637139 ; eaebecedH
  00f7a	83 c0 04	 add	 eax, 4
  00f7d	49		 dec	 ecx
  00f7e	75 f4		 jne	 SHORT $LL2788@ParseExtra
  00f80	6a 18		 push	 24			; 00000018H
  00f82	58		 pop	 eax
$LL2785@ParseExtra:
  00f83	8b c8		 mov	 ecx, eax
  00f85	81 e1 03 00 00
	80		 and	 ecx, -2147483645	; 80000003H
  00f8b	79 05		 jns	 SHORT $LN2945@ParseExtra
  00f8d	49		 dec	 ecx
  00f8e	83 c9 fc	 or	 ecx, -4			; fffffffcH
  00f91	41		 inc	 ecx
$LN2945@ParseExtra:
  00f92	b2 ed		 mov	 dl, -19			; ffffffedH
  00f94	2a d1		 sub	 dl, cl
  00f96	30 94 05 5c ff
	ff ff		 xor	 BYTE PTR ___encStr$515198[ebp+eax], dl
  00f9d	40		 inc	 eax
  00f9e	83 f8 1a	 cmp	 eax, 26			; 0000001aH
  00fa1	7c e0		 jl	 SHORT $LL2785@ParseExtra
  00fa3	ff b5 8c f8 ff
	ff		 push	 DWORD PTR tv20873[ebp]
  00fa9	8d 85 5c ff ff
	ff		 lea	 eax, DWORD PTR ___encStr$515198[ebp]
  00faf	ff b5 88 f8 ff
	ff		 push	 DWORD PTR tv20882[ebp]
  00fb5	50		 push	 eax
  00fb6	8d 85 a4 fc ff
	ff		 lea	 eax, DWORD PTR _szName$514730[ebp]
  00fbc	56		 push	 esi
  00fbd	50		 push	 eax
  00fbe	e8 00 00 00 00	 call	 ?StringCbPrintfA@@YAJPADIPBDZZ ; StringCbPrintfA

; 226  : 			m_vIconChangePresentValue2Vec[iGashaponCnt].push_back( xElement.GetIntAttribute( szName ) );

  00fc3	8b 8d 90 f8 ff
	ff		 mov	 ecx, DWORD PTR _xElement$GSCopy$[ebp]
  00fc9	83 c4 14	 add	 esp, 20			; 00000014H
  00fcc	8d 85 a4 fc ff
	ff		 lea	 eax, DWORD PTR _szName$514730[ebp]
  00fd2	50		 push	 eax
  00fd3	ff 15 00 00 00
	00		 call	 DWORD PTR __imp_?GetIntAttribute@ioXMLElement@@QBEHPBD@Z
  00fd9	89 85 84 f8 ff
	ff		 mov	 DWORD PTR $T526532[ebp], eax
  00fdf	8d 85 84 f8 ff
	ff		 lea	 eax, DWORD PTR $T526532[ebp]
  00fe5	50		 push	 eax
  00fe6	8d 8f 10 61 00
	00		 lea	 ecx, DWORD PTR [edi+24848]
  00fec	e8 00 00 00 00	 call	 ?push_back@?$vector@HV?$allocator@H@std@@@std@@QAEX$$QAH@Z ; std::vector<int,std::allocator<int> >::push_back

; 227  : 
; 228  : 			m_vIconChangePresentValue3Vec[iGashaponCnt].push_back( 0 );

  00ff1	8d 85 84 f8 ff
	ff		 lea	 eax, DWORD PTR $T526533[ebp]
  00ff7	50		 push	 eax
  00ff8	8d 8f 20 c2 00
	00		 lea	 ecx, DWORD PTR [edi+49696]
  00ffe	89 9d 84 f8 ff
	ff		 mov	 DWORD PTR $T526533[ebp], ebx
  01004	e8 00 00 00 00	 call	 ?push_back@?$vector@HV?$allocator@H@std@@@std@@QAEX$$QAH@Z ; std::vector<int,std::allocator<int> >::push_back

; 229  : 			m_vIconChangePresentValue4Vec[iGashaponCnt].push_back( 0 );

  01009	8d 85 84 f8 ff
	ff		 lea	 eax, DWORD PTR $T526534[ebp]
  0100f	50		 push	 eax
  01010	8d 8f 30 23 01
	00		 lea	 ecx, DWORD PTR [edi+74544]
  01016	89 9d 84 f8 ff
	ff		 mov	 DWORD PTR $T526534[ebp], ebx
  0101c	e8 00 00 00 00	 call	 ?push_back@?$vector@HV?$allocator@H@std@@@std@@QAEX$$QAH@Z ; std::vector<int,std::allocator<int> >::push_back

; 230  : 
; 231  : 			ZeroMemory( szName, sizeof( szName ) );

  01021	56		 push	 esi
  01022	8d 85 a4 fc ff
	ff		 lea	 eax, DWORD PTR _szName$514730[ebp]
  01028	53		 push	 ebx
  01029	50		 push	 eax
  0102a	e8 00 00 00 00	 call	 _memset
  0102f	83 c4 0c	 add	 esp, 12			; 0000000cH
  01032	6a 06		 push	 6

; 232  : 			StringCbPrintf_e( szName, sizeof( szName ), "Gashapon%d_Change%d_Icon", iGashaponCnt+1, i+1 );

  01034	c7 85 d0 fd ff
	ff aa 8d 98 82	 mov	 DWORD PTR ___encStr$515353[ebp], -2103931478 ; 82988daaH
  0103e	c7 85 d4 fd ff
	ff 8c 9c 84 84	 mov	 DWORD PTR ___encStr$515353[ebp+4], -2071683956 ; 84849c8cH
  01048	c7 85 d8 fd ff
	ff c8 88 b4 a9	 mov	 DWORD PTR ___encStr$515353[ebp+8], -1447786296 ; a9b488c8H
  01052	c7 85 dc fd ff
	ff 85 8d 85 8d	 mov	 DWORD PTR ___encStr$515353[ebp+12], -1920627323 ; 8d858d85H
  0105c	c7 85 e0 fd ff
	ff 88 c9 8f b5	 mov	 DWORD PTR ___encStr$515353[ebp+16], -1248867960 ; b58fc988H
  01066	c7 85 e4 fd ff
	ff a4 8f 84 84	 mov	 DWORD PTR ___encStr$515353[ebp+20], -2071687260 ; 84848fa4H
  01070	8d 85 d0 fd ff
	ff		 lea	 eax, DWORD PTR ___encStr$515353[ebp]
  01076	88 9d e8 fd ff
	ff		 mov	 BYTE PTR ___encStr$515353[ebp+24], bl
  0107c	59		 pop	 ecx
$LL2796@ParseExtra:
  0107d	81 30 ed ec eb
	ea		 xor	 DWORD PTR [eax], -353637139 ; eaebecedH
  01083	83 c0 04	 add	 eax, 4
  01086	49		 dec	 ecx
  01087	75 f4		 jne	 SHORT $LL2796@ParseExtra
  01089	ff b5 8c f8 ff
	ff		 push	 DWORD PTR tv20873[ebp]
  0108f	8d 85 d0 fd ff
	ff		 lea	 eax, DWORD PTR ___encStr$515353[ebp]
  01095	ff b5 88 f8 ff
	ff		 push	 DWORD PTR tv20882[ebp]
  0109b	50		 push	 eax
  0109c	8d 85 a4 fc ff
	ff		 lea	 eax, DWORD PTR _szName$514730[ebp]
  010a2	56		 push	 esi
  010a3	50		 push	 eax
  010a4	e8 00 00 00 00	 call	 ?StringCbPrintfA@@YAJPADIPBDZZ ; StringCbPrintfA

; 233  : 			ioHashString szIconName = xElement.GetStringAttribute( szName );

  010a9	8b 8d 90 f8 ff
	ff		 mov	 ecx, DWORD PTR _xElement$GSCopy$[ebp]
  010af	83 c4 14	 add	 esp, 20			; 00000014H
  010b2	8d 85 a4 fc ff
	ff		 lea	 eax, DWORD PTR _szName$514730[ebp]
  010b8	50		 push	 eax
  010b9	ff 15 00 00 00
	00		 call	 DWORD PTR __imp_?GetStringAttribute@ioXMLElement@@QBEPBDPBD@Z
  010bf	50		 push	 eax
  010c0	8d 8d 1c f8 ff
	ff		 lea	 ecx, DWORD PTR _szIconName$515502[ebp]
  010c6	ff 15 00 00 00
	00		 call	 DWORD PTR __imp_??0ioHashString@@QAE@PBD@Z

; 234  : 			m_vIconChangeIconVec[iGashaponCnt].push_back( szIconName );

  010cc	8d 85 1c f8 ff
	ff		 lea	 eax, DWORD PTR _szIconName$515502[ebp]
  010d2	50		 push	 eax
  010d3	8d 8f 40 84 01
	00		 lea	 ecx, DWORD PTR [edi+99392]
  010d9	c7 45 fc 03 00
	00 00		 mov	 DWORD PTR __$EHRec$[ebp+8], 3
  010e0	e8 00 00 00 00	 call	 ?push_back@?$vector@VioHashString@@V?$allocator@VioHashString@@@std@@@std@@QAEXABVioHashString@@@Z ; std::vector<ioHashString,std::allocator<ioHashString> >::push_back

; 235  : 		}	

  010e5	83 4d fc ff	 or	 DWORD PTR __$EHRec$[ebp+8], -1
  010e9	8d 8d 1c f8 ff
	ff		 lea	 ecx, DWORD PTR _szIconName$515502[ebp]
  010ef	ff 15 00 00 00
	00		 call	 DWORD PTR __imp_??1ioHashString@@QAE@XZ
  010f5	ff 85 8c f8 ff
	ff		 inc	 DWORD PTR tv20873[ebp]
  010fb	8b 85 8c f8 ff
	ff		 mov	 eax, DWORD PTR tv20873[ebp]
  01101	48		 dec	 eax
  01102	3b 85 78 f8 ff
	ff		 cmp	 eax, DWORD PTR _iMax$514883[ebp]
  01108	0f 8c 65 fc ff
	ff		 jl	 $LL400@ParseExtra
$LN501@ParseExtra:

; 197  : 
; 198  : 	// icon change
; 199  : 	for (int iGashaponCnt = 0; iGashaponCnt < MAX_GASHAPON ; iGashaponCnt++)

  0110e	ff 85 88 f8 ff
	ff		 inc	 DWORD PTR tv20882[ebp]
  01114	83 c7 10	 add	 edi, 16			; 00000010H
  01117	ff 8d 7c f8 ff
	ff		 dec	 DWORD PTR tv4562[ebp]
  0111d	0f 85 2c fb ff
	ff		 jne	 $LL502@ParseExtra

; 236  : 	}
; 237  : }

  01123	e8 00 00 00 00	 call	 __EH_epilog3_GS
  01128	c2 04 00	 ret	 4
_TEXT	ENDS
;	COMDAT text$x
text$x	SEGMENT
__unwindfunclet$?ParseExtraInfo@GashaponWnd@@UAEXAAVioXMLElement@@@Z$0:
  00000	8d 8d 4c f8 ff
	ff		 lea	 ecx, DWORD PTR _szIconName$514085[ebp]
  00006	ff 25 00 00 00
	00		 jmp	 DWORD PTR __imp_??1ioHashString@@QAE@XZ
__unwindfunclet$?ParseExtraInfo@GashaponWnd@@UAEXAAVioXMLElement@@@Z$1:
  0000c	8d 8d 3c f8 ff
	ff		 lea	 ecx, DWORD PTR _szEffect$514561[ebp]
  00012	ff 25 00 00 00
	00		 jmp	 DWORD PTR __imp_??1ioHashString@@QAE@XZ
__unwindfunclet$?ParseExtraInfo@GashaponWnd@@UAEXAAVioXMLElement@@@Z$2:
  00018	8d 8d 2c f8 ff
	ff		 lea	 ecx, DWORD PTR _szEffect$514724[ebp]
  0001e	ff 25 00 00 00
	00		 jmp	 DWORD PTR __imp_??1ioHashString@@QAE@XZ
__unwindfunclet$?ParseExtraInfo@GashaponWnd@@UAEXAAVioXMLElement@@@Z$3:
  00024	8d 8d 1c f8 ff
	ff		 lea	 ecx, DWORD PTR _szIconName$515502[ebp]
  0002a	ff 25 00 00 00
	00		 jmp	 DWORD PTR __imp_??1ioHashString@@QAE@XZ
__ehhandler$?ParseExtraInfo@GashaponWnd@@UAEXAAVioXMLElement@@@Z:
  00030	8b 54 24 08	 mov	 edx, DWORD PTR [esp+8]
  00034	8d 42 0c	 lea	 eax, DWORD PTR [edx+12]
  00037	8b 8a 18 f8 ff
	ff		 mov	 ecx, DWORD PTR [edx-2024]
  0003d	33 c8		 xor	 ecx, eax
  0003f	e8 00 00 00 00	 call	 @__security_check_cookie@4
  00044	8b 4a fc	 mov	 ecx, DWORD PTR [edx-4]
  00047	33 c8		 xor	 ecx, eax
  00049	e8 00 00 00 00	 call	 @__security_check_cookie@4
  0004e	b8 00 00 00 00	 mov	 eax, OFFSET __ehfuncinfo$?ParseExtraInfo@GashaponWnd@@UAEXAAVioXMLElement@@@Z
  00053	e9 00 00 00 00	 jmp	 ___CxxFrameHandler3
text$x	ENDS
?ParseExtraInfo@GashaponWnd@@UAEXAAVioXMLElement@@@Z ENDP ; GashaponWnd::ParseExtraInfo
PUBLIC	??_C@_0BJ@BIKFFKJG@?$CFs?5Size?5Error?5?$FL?$CFd?1?$CFd?1?$CFd?$FN?$AA@ ; `string'
PUBLIC	??_C@_0BN@OFPHEFIF@GashaponWnd?3?3SetGashaponList?$AA@ ; `string'
PUBLIC	?SetGashaponList@GashaponWnd@@IAEXAAV?$vector@HV?$allocator@H@std@@@std@@0000@Z ; GashaponWnd::SetGashaponList
;	COMDAT ??_C@_0BJ@BIKFFKJG@?$CFs?5Size?5Error?5?$FL?$CFd?1?$CFd?1?$CFd?$FN?$AA@
; File c:\program files (x86)\microsoft visual studio 10.0\vc\include\vector
CONST	SEGMENT
??_C@_0BJ@BIKFFKJG@?$CFs?5Size?5Error?5?$FL?$CFd?1?$CFd?1?$CFd?$FN?$AA@ DB '%'
	DB	's Size Error [%d/%d/%d]', 00H		; `string'
CONST	ENDS
;	COMDAT ??_C@_0BN@OFPHEFIF@GashaponWnd?3?3SetGashaponList?$AA@
CONST	SEGMENT
??_C@_0BN@OFPHEFIF@GashaponWnd?3?3SetGashaponList?$AA@ DB 'GashaponWnd::S'
	DB	'etGashaponList', 00H			; `string'
CONST	ENDS
;	COMDAT xdata$x
xdata$x	SEGMENT
__unwindtable$?SetGashaponList@GashaponWnd@@IAEXAAV?$vector@HV?$allocator@H@std@@@std@@0000@Z DD 0ffffffffH
	DD	FLAT:__unwindfunclet$?SetGashaponList@GashaponWnd@@IAEXAAV?$vector@HV?$allocator@H@std@@@std@@0000@Z$0
__ehfuncinfo$?SetGashaponList@GashaponWnd@@IAEXAAV?$vector@HV?$allocator@H@std@@@std@@0000@Z DD 019930522H
	DD	01H
	DD	FLAT:__unwindtable$?SetGashaponList@GashaponWnd@@IAEXAAV?$vector@HV?$allocator@H@std@@@std@@0000@Z
	DD	2 DUP(00H)
	DD	2 DUP(00H)
	DD	00H
	DD	01H
; Function compile flags: /Ogsp
; File d:\lost saga for developer\youtube\tutorial\source\src\lsclient\gui\gashaponwnd.cpp
xdata$x	ENDS
;	COMDAT ?SetGashaponList@GashaponWnd@@IAEXAAV?$vector@HV?$allocator@H@std@@@std@@0000@Z
_TEXT	SEGMENT
_szIconName$515924 = -32				; size = 16
$T528499 = -16						; size = 4
$T528433 = -16						; size = 4
__$EHRec$ = -12						; size = 12
_rPresentTypeList$ = 8					; size = 4
_rPresentValue1List$ = 12				; size = 4
_rPresentValue2List$ = 16				; size = 4
_i$515920 = 20						; size = 4
_rPresentValue3List$ = 20				; size = 4
_nGradeType$515928 = 24					; size = 4
_rPresentValue4List$ = 24				; size = 4
?SetGashaponList@GashaponWnd@@IAEXAAV?$vector@HV?$allocator@H@std@@@std@@0000@Z PROC ; GashaponWnd::SetGashaponList, COMDAT
; _this$ = ecx

; 975  : {

  00000	6a 14		 push	 20			; 00000014H
  00002	b8 00 00 00 00	 mov	 eax, __ehhandler$?SetGashaponList@GashaponWnd@@IAEXAAV?$vector@HV?$allocator@H@std@@@std@@0000@Z
  00007	e8 00 00 00 00	 call	 __EH_prolog3
  0000c	8b f9		 mov	 edi, ecx

; 976  : 	//    13   
; 977  : 	m_vIconList[13].clear();

  0000e	8d 8f 48 02 00
	00		 lea	 ecx, DWORD PTR [edi+584]
  00014	8b 41 04	 mov	 eax, DWORD PTR [ecx+4]
  00017	8b 11		 mov	 edx, DWORD PTR [ecx]
  00019	50		 push	 eax
  0001a	52		 push	 edx
  0001b	8d 45 f0	 lea	 eax, DWORD PTR $T528433[ebp]
  0001e	50		 push	 eax
  0001f	e8 00 00 00 00	 call	 ?erase@?$vector@VioHashString@@V?$allocator@VioHashString@@@std@@@std@@QAE?AV?$_Vector_iterator@V?$_Vector_val@VioHashString@@V?$allocator@VioHashString@@@std@@@std@@@2@V?$_Vector_const_iterator@V?$_Vector_val@VioHashString@@V?$allocator@VioHashString@@@std@@@std@@@2@0@Z ; std::vector<ioHashString,std::allocator<ioHashString> >::erase

; 978  : 	m_vCostumeList[13].clear();

  00024	8d 8f 8c 63 00
	00		 lea	 ecx, DWORD PTR [edi+25484]
  0002a	e8 00 00 00 00	 call	 ?clear@?$vector@_NV?$allocator@_N@std@@@std@@QAEXXZ ; std::vector<bool,std::allocator<bool> >::clear

; 979  : 	m_vGradeTypeList[13].clear();

  0002f	8d 8f ac dc 00
	00		 lea	 ecx, DWORD PTR [edi+56492]
  00035	8b 41 04	 mov	 eax, DWORD PTR [ecx+4]
  00038	8b 11		 mov	 edx, DWORD PTR [ecx]
  0003a	50		 push	 eax
  0003b	52		 push	 edx
  0003c	8d 45 f0	 lea	 eax, DWORD PTR $T528499[ebp]
  0003f	50		 push	 eax
  00040	e8 00 00 00 00	 call	 ?erase@?$vector@HV?$allocator@H@std@@@std@@QAE?AV?$_Vector_iterator@V?$_Vector_val@HV?$allocator@H@std@@@std@@@2@V?$_Vector_const_iterator@V?$_Vector_val@HV?$allocator@H@std@@@std@@@2@0@Z ; std::vector<int,std::allocator<int> >::erase

; 980  : 
; 981  : 	int iSize = rPresentTypeList.size();

  00045	8b 45 08	 mov	 eax, DWORD PTR _rPresentTypeList$[ebp]
  00048	8b 70 04	 mov	 esi, DWORD PTR [eax+4]
  0004b	2b 30		 sub	 esi, DWORD PTR [eax]

; 982  : 
; 983  : 	if( iSize != rPresentValue1List.size() || 
; 984  : 		iSize != rPresentValue2List.size() ||
; 985  : 		iSize != rPresentValue3List.size() || 
; 986  : 		iSize != rPresentValue4List.size() )

  0004d	8b 4d 0c	 mov	 ecx, DWORD PTR _rPresentValue1List$[ebp]
  00050	8b 41 04	 mov	 eax, DWORD PTR [ecx+4]
  00053	2b 01		 sub	 eax, DWORD PTR [ecx]
  00055	8b 4d 10	 mov	 ecx, DWORD PTR _rPresentValue2List$[ebp]
  00058	c1 fe 02	 sar	 esi, 2
  0005b	c1 f8 02	 sar	 eax, 2
  0005e	3b f0		 cmp	 esi, eax
  00060	0f 85 f4 00 00
	00		 jne	 $LN7@SetGashapo
  00066	8b 51 04	 mov	 edx, DWORD PTR [ecx+4]
  00069	2b 11		 sub	 edx, DWORD PTR [ecx]
  0006b	c1 fa 02	 sar	 edx, 2
  0006e	3b f2		 cmp	 esi, edx
  00070	0f 85 e4 00 00
	00		 jne	 $LN7@SetGashapo
  00076	8b 55 14	 mov	 edx, DWORD PTR _rPresentValue3List$[ebp]
  00079	8b 5a 04	 mov	 ebx, DWORD PTR [edx+4]
  0007c	2b 1a		 sub	 ebx, DWORD PTR [edx]
  0007e	c1 fb 02	 sar	 ebx, 2
  00081	3b f3		 cmp	 esi, ebx
  00083	0f 85 d1 00 00
	00		 jne	 $LN7@SetGashapo
  00089	8b 55 18	 mov	 edx, DWORD PTR _rPresentValue4List$[ebp]
  0008c	8b 5a 04	 mov	 ebx, DWORD PTR [edx+4]
  0008f	2b 1a		 sub	 ebx, DWORD PTR [edx]
  00091	c1 fb 02	 sar	 ebx, 2
  00094	3b f3		 cmp	 esi, ebx
  00096	0f 85 be 00 00
	00		 jne	 $LN7@SetGashapo

; 989  : 		return;
; 990  : 	}
; 991  : 
; 992  : 	for (int i = 0; i < iSize ; i++)

  0009c	83 65 14 00	 and	 DWORD PTR _i$515920[ebp], 0
  000a0	85 f6		 test	 esi, esi
  000a2	0f 8e d8 00 00
	00		 jle	 $LN4@SetGashapo
$LN6@SetGashapo:

; 993  : 	{
; 994  : 		ioHashString szIconName;

  000a8	8d 4d e0	 lea	 ecx, DWORD PTR _szIconName$515924[ebp]
  000ab	ff 15 00 00 00
	00		 call	 DWORD PTR __imp_??0ioHashString@@QAE@XZ
  000b1	8b 5d 14	 mov	 ebx, DWORD PTR _i$515920[ebp]

; 995  : 		GetPresentIconName( szIconName, rPresentTypeList[i], rPresentValue1List[i], rPresentValue2List[i] );

  000b4	8b 45 10	 mov	 eax, DWORD PTR _rPresentValue2List$[ebp]
  000b7	8b 00		 mov	 eax, DWORD PTR [eax]
  000b9	ff 34 98	 push	 DWORD PTR [eax+ebx*4]
  000bc	8b 45 0c	 mov	 eax, DWORD PTR _rPresentValue1List$[ebp]
  000bf	8b 00		 mov	 eax, DWORD PTR [eax]
  000c1	ff 34 98	 push	 DWORD PTR [eax+ebx*4]
  000c4	8b 45 08	 mov	 eax, DWORD PTR _rPresentTypeList$[ebp]
  000c7	8b 00		 mov	 eax, DWORD PTR [eax]
  000c9	ff 34 98	 push	 DWORD PTR [eax+ebx*4]
  000cc	83 65 fc 00	 and	 DWORD PTR __$EHRec$[ebp+8], 0
  000d0	8d 45 e0	 lea	 eax, DWORD PTR _szIconName$515924[ebp]
  000d3	50		 push	 eax
  000d4	8b cf		 mov	 ecx, edi
  000d6	e8 00 00 00 00	 call	 ?GetPresentIconName@GashaponWnd@@IAEXAAVioHashString@@HHH@Z ; GashaponWnd::GetPresentIconName

; 996  : 		if( szIconName.IsEmpty() )

  000db	8d 4d e0	 lea	 ecx, DWORD PTR _szIconName$515924[ebp]
  000de	ff 15 00 00 00
	00		 call	 DWORD PTR __imp_?IsEmpty@ioHashString@@QBE_NXZ
  000e4	84 c0		 test	 al, al

; 997  : 			continue;

  000e6	75 57		 jne	 SHORT $LN81@SetGashapo

; 998  : 		m_vIconList[13].push_back( szIconName );

  000e8	8d 45 e0	 lea	 eax, DWORD PTR _szIconName$515924[ebp]
  000eb	50		 push	 eax
  000ec	8d 8f 48 02 00
	00		 lea	 ecx, DWORD PTR [edi+584]
  000f2	e8 00 00 00 00	 call	 ?push_back@?$vector@VioHashString@@V?$allocator@VioHashString@@@std@@@std@@QAEXABVioHashString@@@Z ; std::vector<ioHashString,std::allocator<ioHashString> >::push_back

; 999  : 		
; 1000 : 		if ( rPresentTypeList[i] == PRESENT_COSTUME || rPresentTypeList[i] == PRESENT_COSTUME_BOX )

  000f7	8b 45 08	 mov	 eax, DWORD PTR _rPresentTypeList$[ebp]
  000fa	8b 00		 mov	 eax, DWORD PTR [eax]
  000fc	8b 04 98	 mov	 eax, DWORD PTR [eax+ebx*4]
  000ff	83 f8 0c	 cmp	 eax, 12			; 0000000cH
  00102	74 05		 je	 SHORT $LN1@SetGashapo
  00104	83 f8 0f	 cmp	 eax, 15			; 0000000fH
  00107	75 0d		 jne	 SHORT $LN2@SetGashapo
$LN1@SetGashapo:

; 1001 : 			m_vCostumeList[13].push_back( true );

  00109	6a 01		 push	 1
  0010b	8d 8f 8c 63 00
	00		 lea	 ecx, DWORD PTR [edi+25484]
  00111	e8 00 00 00 00	 call	 ?push_back@?$vector@_NV?$allocator@_N@std@@@std@@QAEX_N@Z ; std::vector<bool,std::allocator<bool> >::push_back
$LN2@SetGashapo:

; 989  : 		return;
; 990  : 	}
; 991  : 
; 992  : 	for (int i = 0; i < iSize ; i++)

  00116	8b 45 0c	 mov	 eax, DWORD PTR _rPresentValue1List$[ebp]
  00119	8b 00		 mov	 eax, DWORD PTR [eax]
  0011b	8b 4d 08	 mov	 ecx, DWORD PTR _rPresentTypeList$[ebp]
  0011e	8b 09		 mov	 ecx, DWORD PTR [ecx]

; 1002 : 
; 1003 : 		int nGradeType = GetPresentGrade( rPresentTypeList[i], rPresentValue1List[i] );

  00120	ff 34 98	 push	 DWORD PTR [eax+ebx*4]
  00123	ff 34 99	 push	 DWORD PTR [ecx+ebx*4]
  00126	8b cf		 mov	 ecx, edi
  00128	e8 00 00 00 00	 call	 ?GetPresentGrade@GashaponWnd@@IAEHHH@Z ; GashaponWnd::GetPresentGrade
  0012d	89 45 18	 mov	 DWORD PTR _nGradeType$515928[ebp], eax

; 1004 : 		m_vGradeTypeList[13].push_back( nGradeType );

  00130	8d 45 18	 lea	 eax, DWORD PTR _nGradeType$515928[ebp]
  00133	50		 push	 eax
  00134	8d 8f ac dc 00
	00		 lea	 ecx, DWORD PTR [edi+56492]
  0013a	e8 00 00 00 00	 call	 ?push_back@?$vector@HV?$allocator@H@std@@@std@@QAEXABH@Z ; std::vector<int,std::allocator<int> >::push_back
$LN81@SetGashapo:

; 1005 : 	}

  0013f	83 4d fc ff	 or	 DWORD PTR __$EHRec$[ebp+8], -1
  00143	8d 4d e0	 lea	 ecx, DWORD PTR _szIconName$515924[ebp]
  00146	ff 15 00 00 00
	00		 call	 DWORD PTR __imp_??1ioHashString@@QAE@XZ
  0014c	ff 45 14	 inc	 DWORD PTR _i$515920[ebp]
  0014f	39 75 14	 cmp	 DWORD PTR _i$515920[ebp], esi
  00152	0f 8c 50 ff ff
	ff		 jl	 $LN6@SetGashapo

; 982  : 
; 983  : 	if( iSize != rPresentValue1List.size() || 
; 984  : 		iSize != rPresentValue2List.size() ||
; 985  : 		iSize != rPresentValue3List.size() || 
; 986  : 		iSize != rPresentValue4List.size() )

  00158	eb 26		 jmp	 SHORT $LN4@SetGashapo
$LN7@SetGashapo:

; 987  : 	{
; 988  : 		LOG.PrintTimeAndLog( 0, "%s Size Error [%d/%d/%d]", __FUNCTION__, iSize, rPresentValue1List.size(), rPresentValue2List.size() );

  0015a	8b 51 04	 mov	 edx, DWORD PTR [ecx+4]
  0015d	2b 11		 sub	 edx, DWORD PTR [ecx]
  0015f	c1 fa 02	 sar	 edx, 2
  00162	52		 push	 edx
  00163	50		 push	 eax
  00164	56		 push	 esi
  00165	68 00 00 00 00	 push	 OFFSET ??_C@_0BN@OFPHEFIF@GashaponWnd?3?3SetGashaponList?$AA@
  0016a	68 00 00 00 00	 push	 OFFSET ??_C@_0BJ@BIKFFKJG@?$CFs?5Size?5Error?5?$FL?$CFd?1?$CFd?1?$CFd?$FN?$AA@
  0016f	6a 00		 push	 0
  00171	ff 35 00 00 00
	00		 push	 DWORD PTR __imp_?LOG@@3VCLog@@A
  00177	ff 15 00 00 00
	00		 call	 DWORD PTR __imp_?PrintTimeAndLog@CLog@@QAAXHPADZZ
  0017d	83 c4 1c	 add	 esp, 28			; 0000001cH
$LN4@SetGashapo:

; 1006 : }

  00180	e8 00 00 00 00	 call	 __EH_epilog3
  00185	c2 14 00	 ret	 20			; 00000014H
_TEXT	ENDS
;	COMDAT text$x
text$x	SEGMENT
__unwindfunclet$?SetGashaponList@GashaponWnd@@IAEXAAV?$vector@HV?$allocator@H@std@@@std@@0000@Z$0:
  00000	8d 4d e0	 lea	 ecx, DWORD PTR _szIconName$515924[ebp]
  00003	ff 25 00 00 00
	00		 jmp	 DWORD PTR __imp_??1ioHashString@@QAE@XZ
__ehhandler$?SetGashaponList@GashaponWnd@@IAEXAAV?$vector@HV?$allocator@H@std@@@std@@0000@Z:
  00009	8b 54 24 08	 mov	 edx, DWORD PTR [esp+8]
  0000d	8d 42 0c	 lea	 eax, DWORD PTR [edx+12]
  00010	8b 4a dc	 mov	 ecx, DWORD PTR [edx-36]
  00013	33 c8		 xor	 ecx, eax
  00015	e8 00 00 00 00	 call	 @__security_check_cookie@4
  0001a	b8 00 00 00 00	 mov	 eax, OFFSET __ehfuncinfo$?SetGashaponList@GashaponWnd@@IAEXAAV?$vector@HV?$allocator@H@std@@@std@@0000@Z
  0001f	e9 00 00 00 00	 jmp	 ___CxxFrameHandler3
text$x	ENDS
?SetGashaponList@GashaponWnd@@IAEXAAV?$vector@HV?$allocator@H@std@@@std@@0000@Z ENDP ; GashaponWnd::SetGashaponList
; Function compile flags: /Ogsp
;	COMDAT ?iwm_show@GashaponWnd@@UAEXXZ
_TEXT	SEGMENT
?iwm_show@GashaponWnd@@UAEXXZ PROC			; GashaponWnd::iwm_show, COMDAT
; _this$ = ecx

; 801  : 	if( !GashaponPresentListWnd::GetPresentTypeList().empty() )

  00000	a1 00 00 00 00	 mov	 eax, DWORD PTR ?m_vPresentTypeList@GashaponPresentListWnd@@1V?$vector@HV?$allocator@H@std@@@std@@A
  00005	3b 05 04 00 00
	00		 cmp	 eax, DWORD PTR ?m_vPresentTypeList@GashaponPresentListWnd@@1V?$vector@HV?$allocator@H@std@@@std@@A+4
  0000b	74 1e		 je	 SHORT $LN1@iwm_show

; 802  : 		SetGashaponList( GashaponPresentListWnd::GetPresentTypeList(), GashaponPresentListWnd::GetPresentValue1List(), GashaponPresentListWnd::GetPresentValue2List(), GashaponPresentListWnd::GetPresentValue3List(), GashaponPresentListWnd::GetPresentValue4List() );

  0000d	68 00 00 00 00	 push	 OFFSET ?m_vPresentValue4List@GashaponPresentListWnd@@1V?$vector@HV?$allocator@H@std@@@std@@A ; GashaponPresentListWnd::m_vPresentValue4List
  00012	68 00 00 00 00	 push	 OFFSET ?m_vPresentValue3List@GashaponPresentListWnd@@1V?$vector@HV?$allocator@H@std@@@std@@A ; GashaponPresentListWnd::m_vPresentValue3List
  00017	68 00 00 00 00	 push	 OFFSET ?m_vPresentValue2List@GashaponPresentListWnd@@1V?$vector@HV?$allocator@H@std@@@std@@A ; GashaponPresentListWnd::m_vPresentValue2List
  0001c	68 00 00 00 00	 push	 OFFSET ?m_vPresentValue1List@GashaponPresentListWnd@@1V?$vector@HV?$allocator@H@std@@@std@@A ; GashaponPresentListWnd::m_vPresentValue1List
  00021	68 00 00 00 00	 push	 OFFSET ?m_vPresentTypeList@GashaponPresentListWnd@@1V?$vector@HV?$allocator@H@std@@@std@@A ; GashaponPresentListWnd::m_vPresentTypeList
  00026	e8 00 00 00 00	 call	 ?SetGashaponList@GashaponWnd@@IAEXAAV?$vector@HV?$allocator@H@std@@@std@@0000@Z ; GashaponWnd::SetGashaponList
$LN1@iwm_show:

; 803  : }

  0002b	c3		 ret	 0
?iwm_show@GashaponWnd@@UAEXXZ ENDP			; GashaponWnd::iwm_show
_TEXT	ENDS
END
