; Listing generated by Microsoft (R) Optimizing Compiler Version 16.00.30319.01 

	TITLE	D:\Lost Saga For Developer\Youtube\Tutorial\Source\src\LSClient\GUI\GrowthDownDoneWnd.cpp
	.686P
	.XMM
	include listing.inc
	.model	flat

INCLUDELIB MSVCRT
INCLUDELIB OLDNAMES

PUBLIC	??_7GrowthDownDoneWnd@@6B@			; GrowthDownDoneWnd::`vftable'
PUBLIC	??0GrowthDownDoneWnd@@QAE@XZ			; GrowthDownDoneWnd::GrowthDownDoneWnd
PUBLIC	??_R4GrowthDownDoneWnd@@6B@			; GrowthDownDoneWnd::`RTTI Complete Object Locator'
PUBLIC	??_R0?AVGrowthDownDoneWnd@@@8			; GrowthDownDoneWnd `RTTI Type Descriptor'
PUBLIC	??_R3GrowthDownDoneWnd@@8			; GrowthDownDoneWnd::`RTTI Class Hierarchy Descriptor'
PUBLIC	??_R2GrowthDownDoneWnd@@8			; GrowthDownDoneWnd::`RTTI Base Class Array'
PUBLIC	??_R1A@?0A@EA@GrowthDownDoneWnd@@8		; GrowthDownDoneWnd::`RTTI Base Class Descriptor at (0,-1,0,64)'
PUBLIC	??_R1A@?0A@EA@ioWnd@@8				; ioWnd::`RTTI Base Class Descriptor at (0,-1,0,64)'
PUBLIC	??_R0?AVioWnd@@@8				; ioWnd `RTTI Type Descriptor'
PUBLIC	??_R3ioWnd@@8					; ioWnd::`RTTI Class Hierarchy Descriptor'
PUBLIC	??_R2ioWnd@@8					; ioWnd::`RTTI Base Class Array'
PUBLIC	?AddRenderImage@GrowthDownDoneWnd@@UAEXABVioHashString@@PAVioUIRenderImage@@@Z ; GrowthDownDoneWnd::AddRenderImage
PUBLIC	?OnRender@GrowthDownDoneWnd@@MAEXXZ		; GrowthDownDoneWnd::OnRender
PUBLIC	?iwm_command@GrowthDownDoneWnd@@UAEXPAVioWnd@@HK@Z ; GrowthDownDoneWnd::iwm_command
EXTRN	??_M@YGXPAXIHP6EX0@Z@Z:PROC			; `eh vector destructor iterator'
EXTRN	__imp_??1ioWnd@@UAE@XZ:PROC
EXTRN	?ClearList@ioComplexStringPrinter@@QAEXXZ:PROC	; ioComplexStringPrinter::ClearList
EXTRN	??_L@YGXPAXIHP6EX0@Z1@Z:PROC			; `eh vector constructor iterator'
EXTRN	??0ioComplexStringPrinter@@QAE@XZ:PROC		; ioComplexStringPrinter::ioComplexStringPrinter
EXTRN	??1ioComplexStringPrinter@@QAE@XZ:PROC		; ioComplexStringPrinter::~ioComplexStringPrinter
EXTRN	__imp_??0ioWnd@@QAE@XZ:PROC
EXTRN	___CxxFrameHandler3:PROC
EXTRN	@__security_check_cookie@4:PROC
EXTRN	__EH_epilog3:PROC
EXTRN	__EH_prolog3:PROC
EXTRN	??_7type_info@@6B@:QWORD			; type_info::`vftable'
EXTRN	?AddRenderFrame@ioWnd@@UAEXABVioHashString@@PAVioUIRenderFrame@@@Z:PROC ; ioWnd::AddRenderFrame
EXTRN	?AddTooltipHelp@ioWnd@@UAEXABVioHashString@@00@Z:PROC ; ioWnd::AddTooltipHelp
EXTRN	?ParseExtraInfo@ioWnd@@UAEXAAVioXMLElement@@@Z:PROC ; ioWnd::ParseExtraInfo
EXTRN	?AddNamedRenderImage@ioWnd@@UAEXABVioHashString@@PAVioUIRenderImage@@@Z:PROC ; ioWnd::AddNamedRenderImage
EXTRN	?RemoveNamedRenderImage@ioWnd@@UAEXABVioHashString@@@Z:PROC ; ioWnd::RemoveNamedRenderImage
EXTRN	?GetNamedRenderImage@ioWnd@@UBEPAVioUIRenderImage@@ABVioHashString@@@Z:PROC ; ioWnd::GetNamedRenderImage
EXTRN	?SetWindowAlpha@ioWnd@@UAEXH@Z:PROC		; ioWnd::SetWindowAlpha
EXTRN	?SetActive@ioWnd@@UAEXXZ:PROC			; ioWnd::SetActive
EXTRN	?SetInActive@ioWnd@@UAEXXZ:PROC			; ioWnd::SetInActive
EXTRN	?ClearElementImageList@ioWnd@@UAEXXZ:PROC	; ioWnd::ClearElementImageList
EXTRN	?SetSize@ioWnd@@UAEXHH@Z:PROC			; ioWnd::SetSize
EXTRN	?SetPositionToDefault@ioWnd@@UAEXHH_N0@Z:PROC	; ioWnd::SetPositionToDefault
EXTRN	?IsNeedProcess@ioWnd@@UBE_NXZ:PROC		; ioWnd::IsNeedProcess
EXTRN	?IsCanMouseReaction@ioWnd@@UBE_NXZ:PROC		; ioWnd::IsCanMouseReaction
EXTRN	?AddChild@ioWnd@@UAEXPAV1@@Z:PROC		; ioWnd::AddChild
EXTRN	?DeleteChild@ioWnd@@UAEXK@Z:PROC		; ioWnd::DeleteChild
EXTRN	?DeleteAllChild@ioWnd@@UAEXXZ:PROC		; ioWnd::DeleteAllChild
EXTRN	?OnRenderShowAndHide@ioWnd@@MAE_NXZ:PROC	; ioWnd::OnRenderShowAndHide
EXTRN	?OnRenderShowAndHideByDefault@ioWnd@@MAE_NK@Z:PROC ; ioWnd::OnRenderShowAndHideByDefault
EXTRN	?OnRenderShowAndHideByTop@ioWnd@@MAE_NK@Z:PROC	; ioWnd::OnRenderShowAndHideByTop
EXTRN	?OnRenderShowAndHideByDown@ioWnd@@MAE_NK@Z:PROC	; ioWnd::OnRenderShowAndHideByDown
EXTRN	?OnRenderAfterChild@ioWnd@@MAEXXZ:PROC		; ioWnd::OnRenderAfterChild
EXTRN	?OnProcess@ioWnd@@MAEXM@Z:PROC			; ioWnd::OnProcess
EXTRN	?OnMouseProcess@ioWnd@@MAEXABVioMouse@@@Z:PROC	; ioWnd::OnMouseProcess
EXTRN	?CheckFrameReSize@ioWnd@@MAEXHHHH@Z:PROC	; ioWnd::CheckFrameReSize
EXTRN	?RenderImageList@ioWnd@@MAEXHHW4UIRenderType@@@Z:PROC ; ioWnd::RenderImageList
EXTRN	?iwm_create@ioWnd@@UAEXXZ:PROC			; ioWnd::iwm_create
EXTRN	?iwm_destroy@ioWnd@@UAEXXZ:PROC			; ioWnd::iwm_destroy
EXTRN	?iwm_lbuttondown@ioWnd@@UAEXABVioMouse@@@Z:PROC	; ioWnd::iwm_lbuttondown
EXTRN	?iwm_lbuttonup@ioWnd@@UAEXABVioMouse@@@Z:PROC	; ioWnd::iwm_lbuttonup
EXTRN	?iwm_lbuttonDBLCLK@ioWnd@@UAEXABVioMouse@@@Z:PROC ; ioWnd::iwm_lbuttonDBLCLK
EXTRN	?iwm_rbuttondown@ioWnd@@UAEXABVioMouse@@@Z:PROC	; ioWnd::iwm_rbuttondown
EXTRN	?iwm_rbuttonup@ioWnd@@UAEXABVioMouse@@@Z:PROC	; ioWnd::iwm_rbuttonup
EXTRN	?iwm_mouseover@ioWnd@@UAEXABVioMouse@@@Z:PROC	; ioWnd::iwm_mouseover
EXTRN	?iwm_mousemove@ioWnd@@UAEXABVioMouse@@@Z:PROC	; ioWnd::iwm_mousemove
EXTRN	?iwm_mouseleave@ioWnd@@UAEXABVioMouse@@@Z:PROC	; ioWnd::iwm_mouseleave
EXTRN	?iwm_vscroll@ioWnd@@UAEXKH@Z:PROC		; ioWnd::iwm_vscroll
EXTRN	?iwm_wheel@ioWnd@@UAEXH@Z:PROC			; ioWnd::iwm_wheel
EXTRN	?iwm_show@ioWnd@@UAEXXZ:PROC			; ioWnd::iwm_show
EXTRN	?iwm_hide@ioWnd@@UAEXXZ:PROC			; ioWnd::iwm_hide
EXTRN	?iwm_esc@ioWnd@@UAE_NXZ:PROC			; ioWnd::iwm_esc
EXTRN	?iwm_spacebar@ioWnd@@UAE_NXZ:PROC		; ioWnd::iwm_spacebar
EXTRN	?iwm_gototop@ioWnd@@UAEXXZ:PROC			; ioWnd::iwm_gototop
EXTRN	?iwm_dragenter@ioWnd@@UAE?AW4IWDropEffect@@PAVioDragItem@@ABVioMouse@@@Z:PROC ; ioWnd::iwm_dragenter
EXTRN	?iwm_dragover@ioWnd@@UAE?AW4IWDropEffect@@PAVioDragItem@@ABVioMouse@@@Z:PROC ; ioWnd::iwm_dragover
EXTRN	?iwm_dragleave@ioWnd@@UAEXXZ:PROC		; ioWnd::iwm_dragleave
EXTRN	?iwm_dropitem@ioWnd@@UAE_NPAVioDragItem@@ABVioMouse@@PAV1@@Z:PROC ; ioWnd::iwm_dropitem
EXTRN	?iwm_dropdone@ioWnd@@UAEXPAVioDragItem@@PAV1@_N@Z:PROC ; ioWnd::iwm_dropdone
EXTRN	?IsEXType@ioWnd@@UBE_NXZ:PROC			; ioWnd::IsEXType
EXTRN	?GetWndType@ioWnd@@UBEKXZ:PROC			; ioWnd::GetWndType
EXTRN	?RenderWnd@ioWnd@@UAEXXZ:PROC			; ioWnd::RenderWnd
EXTRN	?SetIDEX@ioWnd@@UAEXAAK_N@Z:PROC		; ioWnd::SetIDEX
EXTRN	?ParseXML@ioWnd@@UAEXAAVioXMLElement@@@Z:PROC	; ioWnd::ParseXML
EXTRN	?GetHeaderFileName@ioWnd@@UAEPBDXZ:PROC		; ioWnd::GetHeaderFileName
EXTRN	?GetTemplateName@ioWnd@@UAEPBDXZ:PROC		; ioWnd::GetTemplateName
EXTRN	?GetDefClassName@ioWnd@@UBEPBDXZ:PROC		; ioWnd::GetDefClassName
EXTRN	?_Clone@ioWnd@@UAEPAV1@XZ:PROC			; ioWnd::_Clone
EXTRN	?Copy@ioWnd@@UAEXPAV1@@Z:PROC			; ioWnd::Copy
EXTRN	?Save@ioWnd@@UAE_NAAVioXMLElement@@@Z:PROC	; ioWnd::Save
EXTRN	?SetSaveData@ioWnd@@UAEXAAVioXMLElement@@@Z:PROC ; ioWnd::SetSaveData
EXTRN	?SetPosX@ioWnd@@UAEXH@Z:PROC			; ioWnd::SetPosX
EXTRN	?SetPosY@ioWnd@@UAEXH@Z:PROC			; ioWnd::SetPosY
EXTRN	?SetWidth@ioWnd@@UAEXH@Z:PROC			; ioWnd::SetWidth
EXTRN	?SetHeight@ioWnd@@UAEXH@Z:PROC			; ioWnd::SetHeight
EXTRN	?GetNumFixedRenderFrame@ioWnd@@UBEHXZ:PROC	; ioWnd::GetNumFixedRenderFrame
EXTRN	?GetFixedRenderFrameType@ioWnd@@UAEPBDH@Z:PROC	; ioWnd::GetFixedRenderFrameType
EXTRN	?GetRenderFrame@ioWnd@@UAEPAPAVioUIRenderElement@@PBD@Z:PROC ; ioWnd::GetRenderFrame
EXTRN	?GetNumFixedRenderImage@ioWnd@@UBEHXZ:PROC	; ioWnd::GetNumFixedRenderImage
EXTRN	?GetFixedRenderImageType@ioWnd@@UAEPBDH@Z:PROC	; ioWnd::GetFixedRenderImageType
EXTRN	?GetRenderImage@ioWnd@@UAEPAPAVioUIRenderElement@@PBD@Z:PROC ; ioWnd::GetRenderImage
EXTRN	?AddEffect@ioWnd@@UAEXABVioHashString@@PAVioUI3DEffectRender@@@Z:PROC ; ioWnd::AddEffect
EXTRN	?GetEffect@ioWnd@@UAEPAVioUI3DEffectRender@@VioHashString@@@Z:PROC ; ioWnd::GetEffect
EXTRN	??_EGrowthDownDoneWnd@@UAEPAXI@Z:PROC		; GrowthDownDoneWnd::`vector deleting destructor'
;	COMDAT ??_R2ioWnd@@8
; File d:\lost saga for developer\youtube\tutorial\source\src\lsclient\gui\growthdowndonewnd.cpp
rdata$r	SEGMENT
??_R2ioWnd@@8 DD FLAT:??_R1A@?0A@EA@ioWnd@@8		; ioWnd::`RTTI Base Class Array'
rdata$r	ENDS
;	COMDAT ??_R3ioWnd@@8
rdata$r	SEGMENT
??_R3ioWnd@@8 DD 00H					; ioWnd::`RTTI Class Hierarchy Descriptor'
	DD	00H
	DD	01H
	DD	FLAT:??_R2ioWnd@@8
rdata$r	ENDS
;	COMDAT ??_R0?AVioWnd@@@8
_DATA	SEGMENT
??_R0?AVioWnd@@@8 DD FLAT:??_7type_info@@6B@		; ioWnd `RTTI Type Descriptor'
	DD	00H
	DB	'.?AVioWnd@@', 00H
_DATA	ENDS
;	COMDAT ??_R1A@?0A@EA@ioWnd@@8
rdata$r	SEGMENT
??_R1A@?0A@EA@ioWnd@@8 DD FLAT:??_R0?AVioWnd@@@8	; ioWnd::`RTTI Base Class Descriptor at (0,-1,0,64)'
	DD	00H
	DD	00H
	DD	0ffffffffH
	DD	00H
	DD	040H
	DD	FLAT:??_R3ioWnd@@8
rdata$r	ENDS
;	COMDAT ??_R1A@?0A@EA@GrowthDownDoneWnd@@8
rdata$r	SEGMENT
??_R1A@?0A@EA@GrowthDownDoneWnd@@8 DD FLAT:??_R0?AVGrowthDownDoneWnd@@@8 ; GrowthDownDoneWnd::`RTTI Base Class Descriptor at (0,-1,0,64)'
	DD	01H
	DD	00H
	DD	0ffffffffH
	DD	00H
	DD	040H
	DD	FLAT:??_R3GrowthDownDoneWnd@@8
rdata$r	ENDS
;	COMDAT ??_R2GrowthDownDoneWnd@@8
rdata$r	SEGMENT
??_R2GrowthDownDoneWnd@@8 DD FLAT:??_R1A@?0A@EA@GrowthDownDoneWnd@@8 ; GrowthDownDoneWnd::`RTTI Base Class Array'
	DD	FLAT:??_R1A@?0A@EA@ioWnd@@8
rdata$r	ENDS
;	COMDAT ??_R3GrowthDownDoneWnd@@8
rdata$r	SEGMENT
??_R3GrowthDownDoneWnd@@8 DD 00H			; GrowthDownDoneWnd::`RTTI Class Hierarchy Descriptor'
	DD	00H
	DD	02H
	DD	FLAT:??_R2GrowthDownDoneWnd@@8
rdata$r	ENDS
;	COMDAT ??_R0?AVGrowthDownDoneWnd@@@8
_DATA	SEGMENT
??_R0?AVGrowthDownDoneWnd@@@8 DD FLAT:??_7type_info@@6B@ ; GrowthDownDoneWnd `RTTI Type Descriptor'
	DD	00H
	DB	'.?AVGrowthDownDoneWnd@@', 00H
_DATA	ENDS
;	COMDAT ??_R4GrowthDownDoneWnd@@6B@
rdata$r	SEGMENT
??_R4GrowthDownDoneWnd@@6B@ DD 00H			; GrowthDownDoneWnd::`RTTI Complete Object Locator'
	DD	00H
	DD	00H
	DD	FLAT:??_R0?AVGrowthDownDoneWnd@@@8
	DD	FLAT:??_R3GrowthDownDoneWnd@@8
rdata$r	ENDS
;	COMDAT ??_7GrowthDownDoneWnd@@6B@
CONST	SEGMENT
??_7GrowthDownDoneWnd@@6B@ DD FLAT:??_R4GrowthDownDoneWnd@@6B@ ; GrowthDownDoneWnd::`vftable'
	DD	FLAT:?AddRenderFrame@ioWnd@@UAEXABVioHashString@@PAVioUIRenderFrame@@@Z
	DD	FLAT:?AddRenderImage@GrowthDownDoneWnd@@UAEXABVioHashString@@PAVioUIRenderImage@@@Z
	DD	FLAT:?AddTooltipHelp@ioWnd@@UAEXABVioHashString@@00@Z
	DD	FLAT:?ParseExtraInfo@ioWnd@@UAEXAAVioXMLElement@@@Z
	DD	FLAT:?AddNamedRenderImage@ioWnd@@UAEXABVioHashString@@PAVioUIRenderImage@@@Z
	DD	FLAT:?RemoveNamedRenderImage@ioWnd@@UAEXABVioHashString@@@Z
	DD	FLAT:?GetNamedRenderImage@ioWnd@@UBEPAVioUIRenderImage@@ABVioHashString@@@Z
	DD	FLAT:?SetWindowAlpha@ioWnd@@UAEXH@Z
	DD	FLAT:?SetActive@ioWnd@@UAEXXZ
	DD	FLAT:?SetInActive@ioWnd@@UAEXXZ
	DD	FLAT:?ClearElementImageList@ioWnd@@UAEXXZ
	DD	FLAT:?SetSize@ioWnd@@UAEXHH@Z
	DD	FLAT:?SetPositionToDefault@ioWnd@@UAEXHH_N0@Z
	DD	FLAT:?IsNeedProcess@ioWnd@@UBE_NXZ
	DD	FLAT:?IsCanMouseReaction@ioWnd@@UBE_NXZ
	DD	FLAT:?AddChild@ioWnd@@UAEXPAV1@@Z
	DD	FLAT:?DeleteChild@ioWnd@@UAEXK@Z
	DD	FLAT:?DeleteAllChild@ioWnd@@UAEXXZ
	DD	FLAT:?OnRenderShowAndHide@ioWnd@@MAE_NXZ
	DD	FLAT:?OnRenderShowAndHideByDefault@ioWnd@@MAE_NK@Z
	DD	FLAT:?OnRenderShowAndHideByTop@ioWnd@@MAE_NK@Z
	DD	FLAT:?OnRenderShowAndHideByDown@ioWnd@@MAE_NK@Z
	DD	FLAT:?OnRender@GrowthDownDoneWnd@@MAEXXZ
	DD	FLAT:?OnRenderAfterChild@ioWnd@@MAEXXZ
	DD	FLAT:?OnProcess@ioWnd@@MAEXM@Z
	DD	FLAT:?OnMouseProcess@ioWnd@@MAEXABVioMouse@@@Z
	DD	FLAT:?CheckFrameReSize@ioWnd@@MAEXHHHH@Z
	DD	FLAT:?RenderImageList@ioWnd@@MAEXHHW4UIRenderType@@@Z
	DD	FLAT:?iwm_create@ioWnd@@UAEXXZ
	DD	FLAT:?iwm_destroy@ioWnd@@UAEXXZ
	DD	FLAT:?iwm_lbuttondown@ioWnd@@UAEXABVioMouse@@@Z
	DD	FLAT:?iwm_lbuttonup@ioWnd@@UAEXABVioMouse@@@Z
	DD	FLAT:?iwm_lbuttonDBLCLK@ioWnd@@UAEXABVioMouse@@@Z
	DD	FLAT:?iwm_rbuttondown@ioWnd@@UAEXABVioMouse@@@Z
	DD	FLAT:?iwm_rbuttonup@ioWnd@@UAEXABVioMouse@@@Z
	DD	FLAT:?iwm_command@GrowthDownDoneWnd@@UAEXPAVioWnd@@HK@Z
	DD	FLAT:?iwm_mouseover@ioWnd@@UAEXABVioMouse@@@Z
	DD	FLAT:?iwm_mousemove@ioWnd@@UAEXABVioMouse@@@Z
	DD	FLAT:?iwm_mouseleave@ioWnd@@UAEXABVioMouse@@@Z
	DD	FLAT:?iwm_vscroll@ioWnd@@UAEXKH@Z
	DD	FLAT:?iwm_wheel@ioWnd@@UAEXH@Z
	DD	FLAT:?iwm_show@ioWnd@@UAEXXZ
	DD	FLAT:?iwm_hide@ioWnd@@UAEXXZ
	DD	FLAT:?iwm_esc@ioWnd@@UAE_NXZ
	DD	FLAT:?iwm_spacebar@ioWnd@@UAE_NXZ
	DD	FLAT:?iwm_gototop@ioWnd@@UAEXXZ
	DD	FLAT:?iwm_dragenter@ioWnd@@UAE?AW4IWDropEffect@@PAVioDragItem@@ABVioMouse@@@Z
	DD	FLAT:?iwm_dragover@ioWnd@@UAE?AW4IWDropEffect@@PAVioDragItem@@ABVioMouse@@@Z
	DD	FLAT:?iwm_dragleave@ioWnd@@UAEXXZ
	DD	FLAT:?iwm_dropitem@ioWnd@@UAE_NPAVioDragItem@@ABVioMouse@@PAV1@@Z
	DD	FLAT:?iwm_dropdone@ioWnd@@UAEXPAVioDragItem@@PAV1@_N@Z
	DD	FLAT:?IsEXType@ioWnd@@UBE_NXZ
	DD	FLAT:?GetWndType@ioWnd@@UBEKXZ
	DD	FLAT:?RenderWnd@ioWnd@@UAEXXZ
	DD	FLAT:?SetIDEX@ioWnd@@UAEXAAK_N@Z
	DD	FLAT:?ParseXML@ioWnd@@UAEXAAVioXMLElement@@@Z
	DD	FLAT:?GetHeaderFileName@ioWnd@@UAEPBDXZ
	DD	FLAT:?GetTemplateName@ioWnd@@UAEPBDXZ
	DD	FLAT:?GetDefClassName@ioWnd@@UBEPBDXZ
	DD	FLAT:?_Clone@ioWnd@@UAEPAV1@XZ
	DD	FLAT:?Copy@ioWnd@@UAEXPAV1@@Z
	DD	FLAT:?Save@ioWnd@@UAE_NAAVioXMLElement@@@Z
	DD	FLAT:?SetSaveData@ioWnd@@UAEXAAVioXMLElement@@@Z
	DD	FLAT:?SetPosX@ioWnd@@UAEXH@Z
	DD	FLAT:?SetPosY@ioWnd@@UAEXH@Z
	DD	FLAT:?SetWidth@ioWnd@@UAEXH@Z
	DD	FLAT:?SetHeight@ioWnd@@UAEXH@Z
	DD	FLAT:?GetNumFixedRenderFrame@ioWnd@@UBEHXZ
	DD	FLAT:?GetFixedRenderFrameType@ioWnd@@UAEPBDH@Z
	DD	FLAT:?GetRenderFrame@ioWnd@@UAEPAPAVioUIRenderElement@@PBD@Z
	DD	FLAT:?GetNumFixedRenderImage@ioWnd@@UBEHXZ
	DD	FLAT:?GetFixedRenderImageType@ioWnd@@UAEPBDH@Z
	DD	FLAT:?GetRenderImage@ioWnd@@UAEPAPAVioUIRenderElement@@PBD@Z
	DD	FLAT:?AddEffect@ioWnd@@UAEXABVioHashString@@PAVioUI3DEffectRender@@@Z
	DD	FLAT:?GetEffect@ioWnd@@UAEPAVioUI3DEffectRender@@VioHashString@@@Z
	DD	FLAT:??_EGrowthDownDoneWnd@@UAEPAXI@Z
CONST	ENDS
;	COMDAT xdata$x
xdata$x	SEGMENT
__unwindtable$??0GrowthDownDoneWnd@@QAE@XZ DD 0ffffffffH
	DD	FLAT:__unwindfunclet$??0GrowthDownDoneWnd@@QAE@XZ$0
	DD	00H
	DD	FLAT:__unwindfunclet$??0GrowthDownDoneWnd@@QAE@XZ$1
__ehfuncinfo$??0GrowthDownDoneWnd@@QAE@XZ DD 019930522H
	DD	02H
	DD	FLAT:__unwindtable$??0GrowthDownDoneWnd@@QAE@XZ
	DD	2 DUP(00H)
	DD	2 DUP(00H)
	DD	00H
	DD	01H
; Function compile flags: /Ogsp
xdata$x	ENDS
;	COMDAT ??0GrowthDownDoneWnd@@QAE@XZ
_TEXT	SEGMENT
_this$ = -16						; size = 4
__$EHRec$ = -12						; size = 12
??0GrowthDownDoneWnd@@QAE@XZ PROC			; GrowthDownDoneWnd::GrowthDownDoneWnd, COMDAT
; _this$ = ecx

; 35   : {

  00000	6a 04		 push	 4
  00002	b8 00 00 00 00	 mov	 eax, __ehhandler$??0GrowthDownDoneWnd@@QAE@XZ
  00007	e8 00 00 00 00	 call	 __EH_prolog3
  0000c	8b f1		 mov	 esi, ecx
  0000e	89 75 f0	 mov	 DWORD PTR _this$[ebp], esi
  00011	ff 15 00 00 00
	00		 call	 DWORD PTR __imp_??0ioWnd@@QAE@XZ
  00017	68 00 00 00 00	 push	 OFFSET ??1ioComplexStringPrinter@@QAE@XZ ; ioComplexStringPrinter::~ioComplexStringPrinter
  0001c	68 00 00 00 00	 push	 OFFSET ??0ioComplexStringPrinter@@QAE@XZ ; ioComplexStringPrinter::ioComplexStringPrinter
  00021	6a 02		 push	 2
  00023	6a 20		 push	 32			; 00000020H
  00025	8d 9e 74 01 00
	00		 lea	 ebx, DWORD PTR [esi+372]
  0002b	33 ff		 xor	 edi, edi
  0002d	53		 push	 ebx
  0002e	89 7d fc	 mov	 DWORD PTR __$EHRec$[ebp+8], edi
  00031	c7 06 00 00 00
	00		 mov	 DWORD PTR [esi], OFFSET ??_7GrowthDownDoneWnd@@6B@
  00037	e8 00 00 00 00	 call	 ??_L@YGXPAXIHP6EX0@Z1@Z

; 36   : 	m_pIcon = NULL;
; 37   : 	m_pBackEffect = NULL;
; 38   : 	m_pPointImg = NULL;
; 39   : 
; 40   : 	m_iClassType = 0;
; 41   : 	m_iReturnPoint = 0;
; 42   : 
; 43   : 	m_Desc[0].ClearList();

  0003c	8b cb		 mov	 ecx, ebx
  0003e	c6 45 fc 01	 mov	 BYTE PTR __$EHRec$[ebp+8], 1
  00042	89 be 68 01 00
	00		 mov	 DWORD PTR [esi+360], edi
  00048	89 be 6c 01 00
	00		 mov	 DWORD PTR [esi+364], edi
  0004e	89 be 70 01 00
	00		 mov	 DWORD PTR [esi+368], edi
  00054	89 be 60 01 00
	00		 mov	 DWORD PTR [esi+352], edi
  0005a	89 be 64 01 00
	00		 mov	 DWORD PTR [esi+356], edi
  00060	e8 00 00 00 00	 call	 ?ClearList@ioComplexStringPrinter@@QAEXXZ ; ioComplexStringPrinter::ClearList

; 44   : 	m_Desc[1].ClearList();

  00065	8d 8e 94 01 00
	00		 lea	 ecx, DWORD PTR [esi+404]
  0006b	e8 00 00 00 00	 call	 ?ClearList@ioComplexStringPrinter@@QAEXXZ ; ioComplexStringPrinter::ClearList

; 45   : }

  00070	8b c6		 mov	 eax, esi
  00072	e8 00 00 00 00	 call	 __EH_epilog3
  00077	c3		 ret	 0
_TEXT	ENDS
;	COMDAT text$x
text$x	SEGMENT
__unwindfunclet$??0GrowthDownDoneWnd@@QAE@XZ$0:
  00000	8b 4d f0	 mov	 ecx, DWORD PTR _this$[ebp]
  00003	ff 25 00 00 00
	00		 jmp	 DWORD PTR __imp_??1ioWnd@@UAE@XZ
__unwindfunclet$??0GrowthDownDoneWnd@@QAE@XZ$1:
  00009	68 00 00 00 00	 push	 OFFSET ??1ioComplexStringPrinter@@QAE@XZ ; ioComplexStringPrinter::~ioComplexStringPrinter
  0000e	6a 02		 push	 2
  00010	6a 20		 push	 32			; 00000020H
  00012	8b 45 f0	 mov	 eax, DWORD PTR _this$[ebp]
  00015	05 74 01 00 00	 add	 eax, 372		; 00000174H
  0001a	50		 push	 eax
  0001b	e8 00 00 00 00	 call	 ??_M@YGXPAXIHP6EX0@Z@Z
  00020	c3		 ret	 0
__ehhandler$??0GrowthDownDoneWnd@@QAE@XZ:
  00021	8b 54 24 08	 mov	 edx, DWORD PTR [esp+8]
  00025	8d 42 0c	 lea	 eax, DWORD PTR [edx+12]
  00028	8b 4a ec	 mov	 ecx, DWORD PTR [edx-20]
  0002b	33 c8		 xor	 ecx, eax
  0002d	e8 00 00 00 00	 call	 @__security_check_cookie@4
  00032	b8 00 00 00 00	 mov	 eax, OFFSET __ehfuncinfo$??0GrowthDownDoneWnd@@QAE@XZ
  00037	e9 00 00 00 00	 jmp	 ___CxxFrameHandler3
text$x	ENDS
??0GrowthDownDoneWnd@@QAE@XZ ENDP			; GrowthDownDoneWnd::GrowthDownDoneWnd
PUBLIC	??1GrowthDownDoneWnd@@UAE@XZ			; GrowthDownDoneWnd::~GrowthDownDoneWnd
;	COMDAT xdata$x
xdata$x	SEGMENT
__unwindtable$??1GrowthDownDoneWnd@@UAE@XZ DD 0ffffffffH
	DD	FLAT:__unwindfunclet$??1GrowthDownDoneWnd@@UAE@XZ$0
	DD	00H
	DD	FLAT:__unwindfunclet$??1GrowthDownDoneWnd@@UAE@XZ$1
__ehfuncinfo$??1GrowthDownDoneWnd@@UAE@XZ DD 019930522H
	DD	02H
	DD	FLAT:__unwindtable$??1GrowthDownDoneWnd@@UAE@XZ
	DD	2 DUP(00H)
	DD	2 DUP(00H)
	DD	00H
	DD	01H
; Function compile flags: /Ogsp
xdata$x	ENDS
;	COMDAT ??1GrowthDownDoneWnd@@UAE@XZ
_TEXT	SEGMENT
_this$ = -16						; size = 4
__$EHRec$ = -12						; size = 12
??1GrowthDownDoneWnd@@UAE@XZ PROC			; GrowthDownDoneWnd::~GrowthDownDoneWnd, COMDAT
; _this$ = ecx

; 48   : {

  00000	6a 04		 push	 4
  00002	b8 00 00 00 00	 mov	 eax, __ehhandler$??1GrowthDownDoneWnd@@UAE@XZ
  00007	e8 00 00 00 00	 call	 __EH_prolog3
  0000c	8b f1		 mov	 esi, ecx
  0000e	89 75 f0	 mov	 DWORD PTR _this$[ebp], esi
  00011	c7 06 00 00 00
	00		 mov	 DWORD PTR [esi], OFFSET ??_7GrowthDownDoneWnd@@6B@

; 49   : 	SAFEDELETE(m_pIcon);

  00017	8b 8e 68 01 00
	00		 mov	 ecx, DWORD PTR [esi+360]
  0001d	33 db		 xor	 ebx, ebx
  0001f	43		 inc	 ebx
  00020	89 5d fc	 mov	 DWORD PTR __$EHRec$[ebp+8], ebx
  00023	85 c9		 test	 ecx, ecx
  00025	74 0d		 je	 SHORT $LN3@GrowthDown
  00027	8b 01		 mov	 eax, DWORD PTR [ecx]
  00029	53		 push	 ebx
  0002a	ff 50 40	 call	 DWORD PTR [eax+64]
  0002d	83 a6 68 01 00
	00 00		 and	 DWORD PTR [esi+360], 0
$LN3@GrowthDown:

; 50   : 	SAFEDELETE(m_pBackEffect);

  00034	8b 8e 6c 01 00
	00		 mov	 ecx, DWORD PTR [esi+364]
  0003a	85 c9		 test	 ecx, ecx
  0003c	74 0d		 je	 SHORT $LN2@GrowthDown
  0003e	8b 01		 mov	 eax, DWORD PTR [ecx]
  00040	53		 push	 ebx
  00041	ff 50 40	 call	 DWORD PTR [eax+64]
  00044	83 a6 6c 01 00
	00 00		 and	 DWORD PTR [esi+364], 0
$LN2@GrowthDown:

; 51   : 	SAFEDELETE(m_pPointImg);

  0004b	8b 8e 70 01 00
	00		 mov	 ecx, DWORD PTR [esi+368]
  00051	85 c9		 test	 ecx, ecx
  00053	74 0d		 je	 SHORT $LN1@GrowthDown
  00055	8b 01		 mov	 eax, DWORD PTR [ecx]
  00057	53		 push	 ebx
  00058	ff 50 40	 call	 DWORD PTR [eax+64]
  0005b	83 a6 70 01 00
	00 00		 and	 DWORD PTR [esi+368], 0
$LN1@GrowthDown:

; 52   : }

  00062	68 00 00 00 00	 push	 OFFSET ??1ioComplexStringPrinter@@QAE@XZ ; ioComplexStringPrinter::~ioComplexStringPrinter
  00067	6a 02		 push	 2
  00069	6a 20		 push	 32			; 00000020H
  0006b	8d 86 74 01 00
	00		 lea	 eax, DWORD PTR [esi+372]
  00071	50		 push	 eax
  00072	c6 45 fc 00	 mov	 BYTE PTR __$EHRec$[ebp+8], 0
  00076	e8 00 00 00 00	 call	 ??_M@YGXPAXIHP6EX0@Z@Z
  0007b	83 4d fc ff	 or	 DWORD PTR __$EHRec$[ebp+8], -1
  0007f	8b ce		 mov	 ecx, esi
  00081	ff 15 00 00 00
	00		 call	 DWORD PTR __imp_??1ioWnd@@UAE@XZ
  00087	e8 00 00 00 00	 call	 __EH_epilog3
  0008c	c3		 ret	 0
_TEXT	ENDS
;	COMDAT text$x
text$x	SEGMENT
__unwindfunclet$??1GrowthDownDoneWnd@@UAE@XZ$0:
  00000	8b 4d f0	 mov	 ecx, DWORD PTR _this$[ebp]
  00003	ff 25 00 00 00
	00		 jmp	 DWORD PTR __imp_??1ioWnd@@UAE@XZ
__unwindfunclet$??1GrowthDownDoneWnd@@UAE@XZ$1:
  00009	68 00 00 00 00	 push	 OFFSET ??1ioComplexStringPrinter@@QAE@XZ ; ioComplexStringPrinter::~ioComplexStringPrinter
  0000e	6a 02		 push	 2
  00010	6a 20		 push	 32			; 00000020H
  00012	8b 45 f0	 mov	 eax, DWORD PTR _this$[ebp]
  00015	05 74 01 00 00	 add	 eax, 372		; 00000174H
  0001a	50		 push	 eax
  0001b	e8 00 00 00 00	 call	 ??_M@YGXPAXIHP6EX0@Z@Z
  00020	c3		 ret	 0
__ehhandler$??1GrowthDownDoneWnd@@UAE@XZ:
  00021	8b 54 24 08	 mov	 edx, DWORD PTR [esp+8]
  00025	8d 42 0c	 lea	 eax, DWORD PTR [edx+12]
  00028	8b 4a ec	 mov	 ecx, DWORD PTR [edx-20]
  0002b	33 c8		 xor	 ecx, eax
  0002d	e8 00 00 00 00	 call	 @__security_check_cookie@4
  00032	b8 00 00 00 00	 mov	 eax, OFFSET __ehfuncinfo$??1GrowthDownDoneWnd@@UAE@XZ
  00037	e9 00 00 00 00	 jmp	 ___CxxFrameHandler3
text$x	ENDS
??1GrowthDownDoneWnd@@UAE@XZ ENDP			; GrowthDownDoneWnd::~GrowthDownDoneWnd
PUBLIC	??_7GrowthAllDownDoneWnd@@6B@			; GrowthAllDownDoneWnd::`vftable'
PUBLIC	??0GrowthAllDownDoneWnd@@QAE@XZ			; GrowthAllDownDoneWnd::GrowthAllDownDoneWnd
PUBLIC	??_R4GrowthAllDownDoneWnd@@6B@			; GrowthAllDownDoneWnd::`RTTI Complete Object Locator'
PUBLIC	??_R0?AVGrowthAllDownDoneWnd@@@8		; GrowthAllDownDoneWnd `RTTI Type Descriptor'
PUBLIC	??_R3GrowthAllDownDoneWnd@@8			; GrowthAllDownDoneWnd::`RTTI Class Hierarchy Descriptor'
PUBLIC	??_R2GrowthAllDownDoneWnd@@8			; GrowthAllDownDoneWnd::`RTTI Base Class Array'
PUBLIC	??_R1A@?0A@EA@GrowthAllDownDoneWnd@@8		; GrowthAllDownDoneWnd::`RTTI Base Class Descriptor at (0,-1,0,64)'
PUBLIC	?AddRenderImage@GrowthAllDownDoneWnd@@UAEXABVioHashString@@PAVioUIRenderImage@@@Z ; GrowthAllDownDoneWnd::AddRenderImage
PUBLIC	?OnRender@GrowthAllDownDoneWnd@@MAEXXZ		; GrowthAllDownDoneWnd::OnRender
PUBLIC	?iwm_command@GrowthAllDownDoneWnd@@UAEXPAVioWnd@@HK@Z ; GrowthAllDownDoneWnd::iwm_command
EXTRN	??_EGrowthAllDownDoneWnd@@UAEPAXI@Z:PROC	; GrowthAllDownDoneWnd::`vector deleting destructor'
;	COMDAT ??_R1A@?0A@EA@GrowthAllDownDoneWnd@@8
rdata$r	SEGMENT
??_R1A@?0A@EA@GrowthAllDownDoneWnd@@8 DD FLAT:??_R0?AVGrowthAllDownDoneWnd@@@8 ; GrowthAllDownDoneWnd::`RTTI Base Class Descriptor at (0,-1,0,64)'
	DD	01H
	DD	00H
	DD	0ffffffffH
	DD	00H
	DD	040H
	DD	FLAT:??_R3GrowthAllDownDoneWnd@@8
rdata$r	ENDS
;	COMDAT ??_R2GrowthAllDownDoneWnd@@8
rdata$r	SEGMENT
??_R2GrowthAllDownDoneWnd@@8 DD FLAT:??_R1A@?0A@EA@GrowthAllDownDoneWnd@@8 ; GrowthAllDownDoneWnd::`RTTI Base Class Array'
	DD	FLAT:??_R1A@?0A@EA@ioWnd@@8
rdata$r	ENDS
;	COMDAT ??_R3GrowthAllDownDoneWnd@@8
rdata$r	SEGMENT
??_R3GrowthAllDownDoneWnd@@8 DD 00H			; GrowthAllDownDoneWnd::`RTTI Class Hierarchy Descriptor'
	DD	00H
	DD	02H
	DD	FLAT:??_R2GrowthAllDownDoneWnd@@8
rdata$r	ENDS
;	COMDAT ??_R0?AVGrowthAllDownDoneWnd@@@8
_DATA	SEGMENT
??_R0?AVGrowthAllDownDoneWnd@@@8 DD FLAT:??_7type_info@@6B@ ; GrowthAllDownDoneWnd `RTTI Type Descriptor'
	DD	00H
	DB	'.?AVGrowthAllDownDoneWnd@@', 00H
_DATA	ENDS
;	COMDAT ??_R4GrowthAllDownDoneWnd@@6B@
rdata$r	SEGMENT
??_R4GrowthAllDownDoneWnd@@6B@ DD 00H			; GrowthAllDownDoneWnd::`RTTI Complete Object Locator'
	DD	00H
	DD	00H
	DD	FLAT:??_R0?AVGrowthAllDownDoneWnd@@@8
	DD	FLAT:??_R3GrowthAllDownDoneWnd@@8
rdata$r	ENDS
;	COMDAT ??_7GrowthAllDownDoneWnd@@6B@
CONST	SEGMENT
??_7GrowthAllDownDoneWnd@@6B@ DD FLAT:??_R4GrowthAllDownDoneWnd@@6B@ ; GrowthAllDownDoneWnd::`vftable'
	DD	FLAT:?AddRenderFrame@ioWnd@@UAEXABVioHashString@@PAVioUIRenderFrame@@@Z
	DD	FLAT:?AddRenderImage@GrowthAllDownDoneWnd@@UAEXABVioHashString@@PAVioUIRenderImage@@@Z
	DD	FLAT:?AddTooltipHelp@ioWnd@@UAEXABVioHashString@@00@Z
	DD	FLAT:?ParseExtraInfo@ioWnd@@UAEXAAVioXMLElement@@@Z
	DD	FLAT:?AddNamedRenderImage@ioWnd@@UAEXABVioHashString@@PAVioUIRenderImage@@@Z
	DD	FLAT:?RemoveNamedRenderImage@ioWnd@@UAEXABVioHashString@@@Z
	DD	FLAT:?GetNamedRenderImage@ioWnd@@UBEPAVioUIRenderImage@@ABVioHashString@@@Z
	DD	FLAT:?SetWindowAlpha@ioWnd@@UAEXH@Z
	DD	FLAT:?SetActive@ioWnd@@UAEXXZ
	DD	FLAT:?SetInActive@ioWnd@@UAEXXZ
	DD	FLAT:?ClearElementImageList@ioWnd@@UAEXXZ
	DD	FLAT:?SetSize@ioWnd@@UAEXHH@Z
	DD	FLAT:?SetPositionToDefault@ioWnd@@UAEXHH_N0@Z
	DD	FLAT:?IsNeedProcess@ioWnd@@UBE_NXZ
	DD	FLAT:?IsCanMouseReaction@ioWnd@@UBE_NXZ
	DD	FLAT:?AddChild@ioWnd@@UAEXPAV1@@Z
	DD	FLAT:?DeleteChild@ioWnd@@UAEXK@Z
	DD	FLAT:?DeleteAllChild@ioWnd@@UAEXXZ
	DD	FLAT:?OnRenderShowAndHide@ioWnd@@MAE_NXZ
	DD	FLAT:?OnRenderShowAndHideByDefault@ioWnd@@MAE_NK@Z
	DD	FLAT:?OnRenderShowAndHideByTop@ioWnd@@MAE_NK@Z
	DD	FLAT:?OnRenderShowAndHideByDown@ioWnd@@MAE_NK@Z
	DD	FLAT:?OnRender@GrowthAllDownDoneWnd@@MAEXXZ
	DD	FLAT:?OnRenderAfterChild@ioWnd@@MAEXXZ
	DD	FLAT:?OnProcess@ioWnd@@MAEXM@Z
	DD	FLAT:?OnMouseProcess@ioWnd@@MAEXABVioMouse@@@Z
	DD	FLAT:?CheckFrameReSize@ioWnd@@MAEXHHHH@Z
	DD	FLAT:?RenderImageList@ioWnd@@MAEXHHW4UIRenderType@@@Z
	DD	FLAT:?iwm_create@ioWnd@@UAEXXZ
	DD	FLAT:?iwm_destroy@ioWnd@@UAEXXZ
	DD	FLAT:?iwm_lbuttondown@ioWnd@@UAEXABVioMouse@@@Z
	DD	FLAT:?iwm_lbuttonup@ioWnd@@UAEXABVioMouse@@@Z
	DD	FLAT:?iwm_lbuttonDBLCLK@ioWnd@@UAEXABVioMouse@@@Z
	DD	FLAT:?iwm_rbuttondown@ioWnd@@UAEXABVioMouse@@@Z
	DD	FLAT:?iwm_rbuttonup@ioWnd@@UAEXABVioMouse@@@Z
	DD	FLAT:?iwm_command@GrowthAllDownDoneWnd@@UAEXPAVioWnd@@HK@Z
	DD	FLAT:?iwm_mouseover@ioWnd@@UAEXABVioMouse@@@Z
	DD	FLAT:?iwm_mousemove@ioWnd@@UAEXABVioMouse@@@Z
	DD	FLAT:?iwm_mouseleave@ioWnd@@UAEXABVioMouse@@@Z
	DD	FLAT:?iwm_vscroll@ioWnd@@UAEXKH@Z
	DD	FLAT:?iwm_wheel@ioWnd@@UAEXH@Z
	DD	FLAT:?iwm_show@ioWnd@@UAEXXZ
	DD	FLAT:?iwm_hide@ioWnd@@UAEXXZ
	DD	FLAT:?iwm_esc@ioWnd@@UAE_NXZ
	DD	FLAT:?iwm_spacebar@ioWnd@@UAE_NXZ
	DD	FLAT:?iwm_gototop@ioWnd@@UAEXXZ
	DD	FLAT:?iwm_dragenter@ioWnd@@UAE?AW4IWDropEffect@@PAVioDragItem@@ABVioMouse@@@Z
	DD	FLAT:?iwm_dragover@ioWnd@@UAE?AW4IWDropEffect@@PAVioDragItem@@ABVioMouse@@@Z
	DD	FLAT:?iwm_dragleave@ioWnd@@UAEXXZ
	DD	FLAT:?iwm_dropitem@ioWnd@@UAE_NPAVioDragItem@@ABVioMouse@@PAV1@@Z
	DD	FLAT:?iwm_dropdone@ioWnd@@UAEXPAVioDragItem@@PAV1@_N@Z
	DD	FLAT:?IsEXType@ioWnd@@UBE_NXZ
	DD	FLAT:?GetWndType@ioWnd@@UBEKXZ
	DD	FLAT:?RenderWnd@ioWnd@@UAEXXZ
	DD	FLAT:?SetIDEX@ioWnd@@UAEXAAK_N@Z
	DD	FLAT:?ParseXML@ioWnd@@UAEXAAVioXMLElement@@@Z
	DD	FLAT:?GetHeaderFileName@ioWnd@@UAEPBDXZ
	DD	FLAT:?GetTemplateName@ioWnd@@UAEPBDXZ
	DD	FLAT:?GetDefClassName@ioWnd@@UBEPBDXZ
	DD	FLAT:?_Clone@ioWnd@@UAEPAV1@XZ
	DD	FLAT:?Copy@ioWnd@@UAEXPAV1@@Z
	DD	FLAT:?Save@ioWnd@@UAE_NAAVioXMLElement@@@Z
	DD	FLAT:?SetSaveData@ioWnd@@UAEXAAVioXMLElement@@@Z
	DD	FLAT:?SetPosX@ioWnd@@UAEXH@Z
	DD	FLAT:?SetPosY@ioWnd@@UAEXH@Z
	DD	FLAT:?SetWidth@ioWnd@@UAEXH@Z
	DD	FLAT:?SetHeight@ioWnd@@UAEXH@Z
	DD	FLAT:?GetNumFixedRenderFrame@ioWnd@@UBEHXZ
	DD	FLAT:?GetFixedRenderFrameType@ioWnd@@UAEPBDH@Z
	DD	FLAT:?GetRenderFrame@ioWnd@@UAEPAPAVioUIRenderElement@@PBD@Z
	DD	FLAT:?GetNumFixedRenderImage@ioWnd@@UBEHXZ
	DD	FLAT:?GetFixedRenderImageType@ioWnd@@UAEPBDH@Z
	DD	FLAT:?GetRenderImage@ioWnd@@UAEPAPAVioUIRenderElement@@PBD@Z
	DD	FLAT:?AddEffect@ioWnd@@UAEXABVioHashString@@PAVioUI3DEffectRender@@@Z
	DD	FLAT:?GetEffect@ioWnd@@UAEPAVioUI3DEffectRender@@VioHashString@@@Z
	DD	FLAT:??_EGrowthAllDownDoneWnd@@UAEPAXI@Z
CONST	ENDS
;	COMDAT xdata$x
xdata$x	SEGMENT
__unwindtable$??0GrowthAllDownDoneWnd@@QAE@XZ DD 0ffffffffH
	DD	FLAT:__unwindfunclet$??0GrowthAllDownDoneWnd@@QAE@XZ$0
	DD	00H
	DD	FLAT:__unwindfunclet$??0GrowthAllDownDoneWnd@@QAE@XZ$1
__ehfuncinfo$??0GrowthAllDownDoneWnd@@QAE@XZ DD 019930522H
	DD	02H
	DD	FLAT:__unwindtable$??0GrowthAllDownDoneWnd@@QAE@XZ
	DD	2 DUP(00H)
	DD	2 DUP(00H)
	DD	00H
	DD	01H
; Function compile flags: /Ogsp
xdata$x	ENDS
;	COMDAT ??0GrowthAllDownDoneWnd@@QAE@XZ
_TEXT	SEGMENT
_this$ = -16						; size = 4
__$EHRec$ = -12						; size = 12
??0GrowthAllDownDoneWnd@@QAE@XZ PROC			; GrowthAllDownDoneWnd::GrowthAllDownDoneWnd, COMDAT
; _this$ = ecx

; 283  : {

  00000	6a 04		 push	 4
  00002	b8 00 00 00 00	 mov	 eax, __ehhandler$??0GrowthAllDownDoneWnd@@QAE@XZ
  00007	e8 00 00 00 00	 call	 __EH_prolog3
  0000c	8b f1		 mov	 esi, ecx
  0000e	89 75 f0	 mov	 DWORD PTR _this$[ebp], esi
  00011	ff 15 00 00 00
	00		 call	 DWORD PTR __imp_??0ioWnd@@QAE@XZ
  00017	68 00 00 00 00	 push	 OFFSET ??1ioComplexStringPrinter@@QAE@XZ ; ioComplexStringPrinter::~ioComplexStringPrinter
  0001c	68 00 00 00 00	 push	 OFFSET ??0ioComplexStringPrinter@@QAE@XZ ; ioComplexStringPrinter::ioComplexStringPrinter
  00021	6a 06		 push	 6
  00023	6a 20		 push	 32			; 00000020H
  00025	33 db		 xor	 ebx, ebx
  00027	8d be 78 01 00
	00		 lea	 edi, DWORD PTR [esi+376]
  0002d	57		 push	 edi
  0002e	89 5d fc	 mov	 DWORD PTR __$EHRec$[ebp+8], ebx
  00031	c7 06 00 00 00
	00		 mov	 DWORD PTR [esi], OFFSET ??_7GrowthAllDownDoneWnd@@6B@
  00037	e8 00 00 00 00	 call	 ??_L@YGXPAXIHP6EX0@Z1@Z
  0003c	6a 06		 push	 6

; 284  : 	m_pIcon = NULL;

  0003e	89 9e 70 01 00
	00		 mov	 DWORD PTR [esi+368], ebx

; 285  : 	m_pBackEffect = NULL;

  00044	89 9e 74 01 00
	00		 mov	 DWORD PTR [esi+372], ebx

; 286  : 
; 287  : 	m_iClassType = 0;

  0004a	89 9e 60 01 00
	00		 mov	 DWORD PTR [esi+352], ebx

; 288  : 	m_iReturnPoint = 0;

  00050	89 9e 64 01 00
	00		 mov	 DWORD PTR [esi+356], ebx
  00056	c6 45 fc 01	 mov	 BYTE PTR __$EHRec$[ebp+8], 1
  0005a	5b		 pop	 ebx
$LL3@GrowthAllD:

; 289  : 
; 290  : 	for (int i = 0; i < MAX_DESC ; i++)
; 291  : 	{
; 292  : 		m_Desc[i].ClearList();	

  0005b	8b cf		 mov	 ecx, edi
  0005d	e8 00 00 00 00	 call	 ?ClearList@ioComplexStringPrinter@@QAEXXZ ; ioComplexStringPrinter::ClearList
  00062	83 c7 20	 add	 edi, 32			; 00000020H
  00065	4b		 dec	 ebx
  00066	75 f3		 jne	 SHORT $LL3@GrowthAllD

; 293  : 	}
; 294  : }

  00068	8b c6		 mov	 eax, esi
  0006a	e8 00 00 00 00	 call	 __EH_epilog3
  0006f	c3		 ret	 0
_TEXT	ENDS
;	COMDAT text$x
text$x	SEGMENT
__unwindfunclet$??0GrowthAllDownDoneWnd@@QAE@XZ$0:
  00000	8b 4d f0	 mov	 ecx, DWORD PTR _this$[ebp]
  00003	ff 25 00 00 00
	00		 jmp	 DWORD PTR __imp_??1ioWnd@@UAE@XZ
__unwindfunclet$??0GrowthAllDownDoneWnd@@QAE@XZ$1:
  00009	68 00 00 00 00	 push	 OFFSET ??1ioComplexStringPrinter@@QAE@XZ ; ioComplexStringPrinter::~ioComplexStringPrinter
  0000e	6a 06		 push	 6
  00010	6a 20		 push	 32			; 00000020H
  00012	8b 45 f0	 mov	 eax, DWORD PTR _this$[ebp]
  00015	05 78 01 00 00	 add	 eax, 376		; 00000178H
  0001a	50		 push	 eax
  0001b	e8 00 00 00 00	 call	 ??_M@YGXPAXIHP6EX0@Z@Z
  00020	c3		 ret	 0
__ehhandler$??0GrowthAllDownDoneWnd@@QAE@XZ:
  00021	8b 54 24 08	 mov	 edx, DWORD PTR [esp+8]
  00025	8d 42 0c	 lea	 eax, DWORD PTR [edx+12]
  00028	8b 4a ec	 mov	 ecx, DWORD PTR [edx-20]
  0002b	33 c8		 xor	 ecx, eax
  0002d	e8 00 00 00 00	 call	 @__security_check_cookie@4
  00032	b8 00 00 00 00	 mov	 eax, OFFSET __ehfuncinfo$??0GrowthAllDownDoneWnd@@QAE@XZ
  00037	e9 00 00 00 00	 jmp	 ___CxxFrameHandler3
text$x	ENDS
??0GrowthAllDownDoneWnd@@QAE@XZ ENDP			; GrowthAllDownDoneWnd::GrowthAllDownDoneWnd
PUBLIC	??1GrowthAllDownDoneWnd@@UAE@XZ			; GrowthAllDownDoneWnd::~GrowthAllDownDoneWnd
;	COMDAT xdata$x
xdata$x	SEGMENT
__unwindtable$??1GrowthAllDownDoneWnd@@UAE@XZ DD 0ffffffffH
	DD	FLAT:__unwindfunclet$??1GrowthAllDownDoneWnd@@UAE@XZ$0
	DD	00H
	DD	FLAT:__unwindfunclet$??1GrowthAllDownDoneWnd@@UAE@XZ$1
__ehfuncinfo$??1GrowthAllDownDoneWnd@@UAE@XZ DD 019930522H
	DD	02H
	DD	FLAT:__unwindtable$??1GrowthAllDownDoneWnd@@UAE@XZ
	DD	2 DUP(00H)
	DD	2 DUP(00H)
	DD	00H
	DD	01H
; Function compile flags: /Ogsp
xdata$x	ENDS
;	COMDAT ??1GrowthAllDownDoneWnd@@UAE@XZ
_TEXT	SEGMENT
_this$ = -16						; size = 4
__$EHRec$ = -12						; size = 12
??1GrowthAllDownDoneWnd@@UAE@XZ PROC			; GrowthAllDownDoneWnd::~GrowthAllDownDoneWnd, COMDAT
; _this$ = ecx

; 297  : {

  00000	6a 04		 push	 4
  00002	b8 00 00 00 00	 mov	 eax, __ehhandler$??1GrowthAllDownDoneWnd@@UAE@XZ
  00007	e8 00 00 00 00	 call	 __EH_prolog3
  0000c	8b f1		 mov	 esi, ecx
  0000e	89 75 f0	 mov	 DWORD PTR _this$[ebp], esi
  00011	c7 06 00 00 00
	00		 mov	 DWORD PTR [esi], OFFSET ??_7GrowthAllDownDoneWnd@@6B@

; 298  : 	SAFEDELETE(m_pIcon);

  00017	8b 8e 70 01 00
	00		 mov	 ecx, DWORD PTR [esi+368]
  0001d	c7 45 fc 01 00
	00 00		 mov	 DWORD PTR __$EHRec$[ebp+8], 1
  00024	85 c9		 test	 ecx, ecx
  00026	74 0e		 je	 SHORT $LN2@GrowthAllD@2
  00028	8b 01		 mov	 eax, DWORD PTR [ecx]
  0002a	6a 01		 push	 1
  0002c	ff 50 40	 call	 DWORD PTR [eax+64]
  0002f	83 a6 70 01 00
	00 00		 and	 DWORD PTR [esi+368], 0
$LN2@GrowthAllD@2:

; 299  : 	SAFEDELETE(m_pBackEffect);

  00036	8b 8e 74 01 00
	00		 mov	 ecx, DWORD PTR [esi+372]
  0003c	85 c9		 test	 ecx, ecx
  0003e	74 0e		 je	 SHORT $LN1@GrowthAllD@2
  00040	8b 01		 mov	 eax, DWORD PTR [ecx]
  00042	6a 01		 push	 1
  00044	ff 50 40	 call	 DWORD PTR [eax+64]
  00047	83 a6 74 01 00
	00 00		 and	 DWORD PTR [esi+372], 0
$LN1@GrowthAllD@2:

; 300  : }

  0004e	68 00 00 00 00	 push	 OFFSET ??1ioComplexStringPrinter@@QAE@XZ ; ioComplexStringPrinter::~ioComplexStringPrinter
  00053	6a 06		 push	 6
  00055	6a 20		 push	 32			; 00000020H
  00057	8d 86 78 01 00
	00		 lea	 eax, DWORD PTR [esi+376]
  0005d	50		 push	 eax
  0005e	c6 45 fc 00	 mov	 BYTE PTR __$EHRec$[ebp+8], 0
  00062	e8 00 00 00 00	 call	 ??_M@YGXPAXIHP6EX0@Z@Z
  00067	83 4d fc ff	 or	 DWORD PTR __$EHRec$[ebp+8], -1
  0006b	8b ce		 mov	 ecx, esi
  0006d	ff 15 00 00 00
	00		 call	 DWORD PTR __imp_??1ioWnd@@UAE@XZ
  00073	e8 00 00 00 00	 call	 __EH_epilog3
  00078	c3		 ret	 0
_TEXT	ENDS
;	COMDAT text$x
text$x	SEGMENT
__unwindfunclet$??1GrowthAllDownDoneWnd@@UAE@XZ$0:
  00000	8b 4d f0	 mov	 ecx, DWORD PTR _this$[ebp]
  00003	ff 25 00 00 00
	00		 jmp	 DWORD PTR __imp_??1ioWnd@@UAE@XZ
__unwindfunclet$??1GrowthAllDownDoneWnd@@UAE@XZ$1:
  00009	68 00 00 00 00	 push	 OFFSET ??1ioComplexStringPrinter@@QAE@XZ ; ioComplexStringPrinter::~ioComplexStringPrinter
  0000e	6a 06		 push	 6
  00010	6a 20		 push	 32			; 00000020H
  00012	8b 45 f0	 mov	 eax, DWORD PTR _this$[ebp]
  00015	05 78 01 00 00	 add	 eax, 376		; 00000178H
  0001a	50		 push	 eax
  0001b	e8 00 00 00 00	 call	 ??_M@YGXPAXIHP6EX0@Z@Z
  00020	c3		 ret	 0
__ehhandler$??1GrowthAllDownDoneWnd@@UAE@XZ:
  00021	8b 54 24 08	 mov	 edx, DWORD PTR [esp+8]
  00025	8d 42 0c	 lea	 eax, DWORD PTR [edx+12]
  00028	8b 4a ec	 mov	 ecx, DWORD PTR [edx-20]
  0002b	33 c8		 xor	 ecx, eax
  0002d	e8 00 00 00 00	 call	 @__security_check_cookie@4
  00032	b8 00 00 00 00	 mov	 eax, OFFSET __ehfuncinfo$??1GrowthAllDownDoneWnd@@UAE@XZ
  00037	e9 00 00 00 00	 jmp	 ___CxxFrameHandler3
text$x	ENDS
??1GrowthAllDownDoneWnd@@UAE@XZ ENDP			; GrowthAllDownDoneWnd::~GrowthAllDownDoneWnd
EXTRN	?PrintFullText@ioComplexStringPrinter@@QAEXMMW4TextAlignType@@E@Z:PROC ; ioComplexStringPrinter::PrintFullText
EXTRN	__imp_?GetDerivedPosY@ioWnd@@QBEHXZ:PROC
EXTRN	__imp_?GetDerivedPosX@ioWnd@@QBEHXZ:PROC
EXTRN	__imp_?OnRender@ioWnd@@MAEXXZ:PROC
EXTRN	__fltused:DWORD
; Function compile flags: /Ogsp
;	COMDAT ?OnRender@GrowthAllDownDoneWnd@@MAEXXZ
_TEXT	SEGMENT
tv267 = -8						; size = 4
tv154 = -8						; size = 4
tv289 = -4						; size = 4
_iXPos$ = -4						; size = 4
?OnRender@GrowthAllDownDoneWnd@@MAEXXZ PROC		; GrowthAllDownDoneWnd::OnRender, COMDAT
; _this$ = ecx

; 507  : {

  00000	55		 push	 ebp
  00001	8b ec		 mov	 ebp, esp
  00003	51		 push	 ecx
  00004	51		 push	 ecx
  00005	53		 push	 ebx
  00006	56		 push	 esi
  00007	57		 push	 edi
  00008	8b f1		 mov	 esi, ecx

; 508  : 	ioWnd::OnRender();

  0000a	ff 15 00 00 00
	00		 call	 DWORD PTR __imp_?OnRender@ioWnd@@MAEXXZ

; 509  : 
; 510  : 	int iXPos = GetDerivedPosX();

  00010	8b ce		 mov	 ecx, esi
  00012	ff 15 00 00 00
	00		 call	 DWORD PTR __imp_?GetDerivedPosX@ioWnd@@QBEHXZ
  00018	8b f8		 mov	 edi, eax

; 511  : 	int iYPos = GetDerivedPosY();

  0001a	8b ce		 mov	 ecx, esi
  0001c	89 7d fc	 mov	 DWORD PTR _iXPos$[ebp], edi
  0001f	ff 15 00 00 00
	00		 call	 DWORD PTR __imp_?GetDerivedPosY@ioWnd@@QBEHXZ

; 512  : 
; 513  : 	enum
; 514  : 	{
; 515  : 		ICON_X		= 129,
; 516  : 		ICON_Y		= 105,
; 517  : 
; 518  : 		DESC_BIG_X	= 129,
; 519  : 		DESC_BIG_Y	= 152,
; 520  : 		BIG_GAP     = 23,
; 521  : 
; 522  : 		DESC_X		= 27,
; 523  : 		DESC_Y		= 206,
; 524  : 		DESC_GAP    = 18,
; 525  : 
; 526  : 		END_X       = 129,
; 527  : 		END_Y       = 421,
; 528  : 	};
; 529  : 
; 530  : 	// Back
; 531  : 	if( m_pBackEffect )

  00025	33 d2		 xor	 edx, edx
  00027	8b d8		 mov	 ebx, eax
  00029	39 96 74 01 00
	00		 cmp	 DWORD PTR [esi+372], edx
  0002f	74 39		 je	 SHORT $LN2@OnRender

; 532  : 	{
; 533  : 		m_pBackEffect->Render( iXPos+ICON_X, iYPos+ICON_Y, UI_RENDER_MULTIPLY );

  00031	8b 86 74 01 00
	00		 mov	 eax, DWORD PTR [esi+372]
  00037	8b 08		 mov	 ecx, DWORD PTR [eax]
  00039	52		 push	 edx
  0003a	52		 push	 edx
  0003b	52		 push	 edx
  0003c	6a 08		 push	 8
  0003e	51		 push	 ecx
  0003f	0f 57 c0	 xorps	 xmm0, xmm0
  00042	51		 push	 ecx
  00043	8d 53 69	 lea	 edx, DWORD PTR [ebx+105]
  00046	f3 0f 2a c2	 cvtsi2ss xmm0, edx
  0004a	f3 0f 11 44 24
	04		 movss	 DWORD PTR [esp+4], xmm0
  00050	8d 97 81 00 00
	00		 lea	 edx, DWORD PTR [edi+129]
  00056	0f 57 c0	 xorps	 xmm0, xmm0
  00059	8b c8		 mov	 ecx, eax
  0005b	8b 00		 mov	 eax, DWORD PTR [eax]
  0005d	f3 0f 2a c2	 cvtsi2ss xmm0, edx
  00061	f3 0f 11 04 24	 movss	 DWORD PTR [esp], xmm0
  00066	ff 10		 call	 DWORD PTR [eax]
  00068	33 d2		 xor	 edx, edx
$LN2@OnRender:

; 534  : 	}
; 535  : 
; 536  : 	// Icon
; 537  : 	if( m_pIcon )

  0006a	39 96 70 01 00
	00		 cmp	 DWORD PTR [esi+368], edx
  00070	74 33		 je	 SHORT $LN1@OnRender

; 538  : 	{
; 539  : 		m_pIcon->Render( iXPos+ICON_X, iYPos+ICON_Y, UI_RENDER_NORMAL, TFO_BILINEAR );

  00072	8b 8e 70 01 00
	00		 mov	 ecx, DWORD PTR [esi+368]
  00078	8b 01		 mov	 eax, DWORD PTR [ecx]
  0007a	52		 push	 edx
  0007b	52		 push	 edx
  0007c	6a 01		 push	 1
  0007e	52		 push	 edx
  0007f	0f 57 c0	 xorps	 xmm0, xmm0
  00082	51		 push	 ecx
  00083	8d 53 69	 lea	 edx, DWORD PTR [ebx+105]
  00086	f3 0f 2a c2	 cvtsi2ss xmm0, edx
  0008a	51		 push	 ecx
  0008b	f3 0f 11 44 24
	04		 movss	 DWORD PTR [esp+4], xmm0
  00091	8d 97 81 00 00
	00		 lea	 edx, DWORD PTR [edi+129]
  00097	0f 57 c0	 xorps	 xmm0, xmm0
  0009a	f3 0f 2a c2	 cvtsi2ss xmm0, edx
  0009e	f3 0f 11 04 24	 movss	 DWORD PTR [esp], xmm0
  000a3	ff 10		 call	 DWORD PTR [eax]
$LN1@OnRender:

; 540  : 	}
; 541  : 
; 542  : 	// Desc
; 543  : 	m_Desc[0].PrintFullText( iXPos+DESC_BIG_X, iYPos+DESC_BIG_Y, TAT_CENTER );

  000a5	81 c7 81 00 00
	00		 add	 edi, 129		; 00000081H
  000ab	0f 57 c0	 xorps	 xmm0, xmm0
  000ae	f3 0f 2a c7	 cvtsi2ss xmm0, edi
  000b2	bf ff 00 00 00	 mov	 edi, 255		; 000000ffH
  000b7	57		 push	 edi
  000b8	6a 01		 push	 1
  000ba	51		 push	 ecx
  000bb	51		 push	 ecx
  000bc	8d 83 98 00 00
	00		 lea	 eax, DWORD PTR [ebx+152]
  000c2	0f 57 c9	 xorps	 xmm1, xmm1
  000c5	f3 0f 2a c8	 cvtsi2ss xmm1, eax
  000c9	f3 0f 11 4c 24
	04		 movss	 DWORD PTR [esp+4], xmm1
  000cf	8d 8e 78 01 00
	00		 lea	 ecx, DWORD PTR [esi+376]
  000d5	f3 0f 11 45 f8	 movss	 DWORD PTR tv267[ebp], xmm0
  000da	f3 0f 11 04 24	 movss	 DWORD PTR [esp], xmm0
  000df	e8 00 00 00 00	 call	 ?PrintFullText@ioComplexStringPrinter@@QAEXMMW4TextAlignType@@E@Z ; ioComplexStringPrinter::PrintFullText

; 544  : 	m_Desc[1].PrintFullText( iXPos+DESC_BIG_X, iYPos+DESC_BIG_Y+BIG_GAP, TAT_CENTER );

  000e4	57		 push	 edi
  000e5	6a 01		 push	 1
  000e7	51		 push	 ecx
  000e8	51		 push	 ecx
  000e9	8d 83 af 00 00
	00		 lea	 eax, DWORD PTR [ebx+175]
  000ef	0f 57 c0	 xorps	 xmm0, xmm0
  000f2	f3 0f 2a c0	 cvtsi2ss xmm0, eax
  000f6	f3 0f 11 44 24
	04		 movss	 DWORD PTR [esp+4], xmm0
  000fc	f3 0f 10 45 f8	 movss	 xmm0, DWORD PTR tv267[ebp]
  00101	8d 8e 98 01 00
	00		 lea	 ecx, DWORD PTR [esi+408]
  00107	f3 0f 11 04 24	 movss	 DWORD PTR [esp], xmm0
  0010c	e8 00 00 00 00	 call	 ?PrintFullText@ioComplexStringPrinter@@QAEXMMW4TextAlignType@@E@Z ; ioComplexStringPrinter::PrintFullText

; 545  : 	m_Desc[2].PrintFullText( iXPos+DESC_X, iYPos+DESC_Y, TAT_LEFT );

  00111	8b 45 fc	 mov	 eax, DWORD PTR _iXPos$[ebp]
  00114	57		 push	 edi
  00115	83 c0 1b	 add	 eax, 27			; 0000001bH
  00118	6a 00		 push	 0
  0011a	0f 57 c0	 xorps	 xmm0, xmm0
  0011d	f3 0f 2a c0	 cvtsi2ss xmm0, eax
  00121	51		 push	 ecx
  00122	51		 push	 ecx
  00123	8d 83 ce 00 00
	00		 lea	 eax, DWORD PTR [ebx+206]
  00129	0f 57 c9	 xorps	 xmm1, xmm1
  0012c	f3 0f 2a c8	 cvtsi2ss xmm1, eax
  00130	f3 0f 11 4c 24
	04		 movss	 DWORD PTR [esp+4], xmm1
  00136	8d 8e b8 01 00
	00		 lea	 ecx, DWORD PTR [esi+440]
  0013c	f3 0f 11 45 fc	 movss	 DWORD PTR tv289[ebp], xmm0
  00141	f3 0f 11 04 24	 movss	 DWORD PTR [esp], xmm0
  00146	e8 00 00 00 00	 call	 ?PrintFullText@ioComplexStringPrinter@@QAEXMMW4TextAlignType@@E@Z ; ioComplexStringPrinter::PrintFullText

; 546  : 	m_Desc[3].PrintFullText( iXPos+DESC_X, iYPos+DESC_Y+DESC_GAP, TAT_LEFT );

  0014b	57		 push	 edi
  0014c	6a 00		 push	 0
  0014e	51		 push	 ecx
  0014f	51		 push	 ecx
  00150	8d 83 e0 00 00
	00		 lea	 eax, DWORD PTR [ebx+224]
  00156	0f 57 c0	 xorps	 xmm0, xmm0
  00159	f3 0f 2a c0	 cvtsi2ss xmm0, eax
  0015d	f3 0f 11 44 24
	04		 movss	 DWORD PTR [esp+4], xmm0
  00163	f3 0f 10 45 fc	 movss	 xmm0, DWORD PTR tv289[ebp]
  00168	8d 8e d8 01 00
	00		 lea	 ecx, DWORD PTR [esi+472]
  0016e	f3 0f 11 04 24	 movss	 DWORD PTR [esp], xmm0
  00173	e8 00 00 00 00	 call	 ?PrintFullText@ioComplexStringPrinter@@QAEXMMW4TextAlignType@@E@Z ; ioComplexStringPrinter::PrintFullText

; 547  : 	m_Desc[4].PrintFullText( iXPos+DESC_X, iYPos+DESC_Y+(DESC_GAP*2), TAT_LEFT );

  00178	57		 push	 edi
  00179	6a 00		 push	 0
  0017b	51		 push	 ecx
  0017c	51		 push	 ecx
  0017d	8d 83 f2 00 00
	00		 lea	 eax, DWORD PTR [ebx+242]
  00183	0f 57 c0	 xorps	 xmm0, xmm0
  00186	f3 0f 2a c0	 cvtsi2ss xmm0, eax
  0018a	f3 0f 11 44 24
	04		 movss	 DWORD PTR [esp+4], xmm0
  00190	f3 0f 10 45 fc	 movss	 xmm0, DWORD PTR tv289[ebp]
  00195	8d 8e f8 01 00
	00		 lea	 ecx, DWORD PTR [esi+504]
  0019b	f3 0f 11 04 24	 movss	 DWORD PTR [esp], xmm0
  001a0	e8 00 00 00 00	 call	 ?PrintFullText@ioComplexStringPrinter@@QAEXMMW4TextAlignType@@E@Z ; ioComplexStringPrinter::PrintFullText

; 548  : 	m_Desc[5].PrintFullText( iXPos+END_X, iYPos+END_Y, TAT_CENTER );

  001a5	57		 push	 edi
  001a6	6a 01		 push	 1
  001a8	51		 push	 ecx
  001a9	51		 push	 ecx
  001aa	81 c3 a5 01 00
	00		 add	 ebx, 421		; 000001a5H
  001b0	0f 57 c0	 xorps	 xmm0, xmm0
  001b3	f3 0f 2a c3	 cvtsi2ss xmm0, ebx
  001b7	f3 0f 11 44 24
	04		 movss	 DWORD PTR [esp+4], xmm0
  001bd	f3 0f 10 45 f8	 movss	 xmm0, DWORD PTR tv267[ebp]
  001c2	8d 8e 18 02 00
	00		 lea	 ecx, DWORD PTR [esi+536]
  001c8	f3 0f 11 04 24	 movss	 DWORD PTR [esp], xmm0
  001cd	e8 00 00 00 00	 call	 ?PrintFullText@ioComplexStringPrinter@@QAEXMMW4TextAlignType@@E@Z ; ioComplexStringPrinter::PrintFullText
  001d2	5f		 pop	 edi
  001d3	5e		 pop	 esi
  001d4	5b		 pop	 ebx

; 549  : }

  001d5	c9		 leave
  001d6	c3		 ret	 0
?OnRender@GrowthAllDownDoneWnd@@MAEXXZ ENDP		; GrowthAllDownDoneWnd::OnRender
_TEXT	ENDS
PUBLIC	?GetSingleton@?$Singleton@VioEtcItemManager@@@@SAAAVioEtcItemManager@@XZ ; Singleton<ioEtcItemManager>::GetSingleton
EXTRN	?ms_Singleton@?$Singleton@VioEtcItemManager@@@@1PAVioEtcItemManager@@A:DWORD ; Singleton<ioEtcItemManager>::ms_Singleton
; Function compile flags: /Ogsp
; File d:\lost saga for developer\youtube\tutorial\source\src\io3dengine\iosingleton.h
;	COMDAT ?GetSingleton@?$Singleton@VioEtcItemManager@@@@SAAAVioEtcItemManager@@XZ
_TEXT	SEGMENT
?GetSingleton@?$Singleton@VioEtcItemManager@@@@SAAAVioEtcItemManager@@XZ PROC ; Singleton<ioEtcItemManager>::GetSingleton, COMDAT

; 42   : 		assert( ms_Singleton );
; 43   : 		return (*ms_Singleton);

  00000	a1 00 00 00 00	 mov	 eax, DWORD PTR ?ms_Singleton@?$Singleton@VioEtcItemManager@@@@1PAVioEtcItemManager@@A ; Singleton<ioEtcItemManager>::ms_Singleton

; 44   : 	}

  00005	c3		 ret	 0
?GetSingleton@?$Singleton@VioEtcItemManager@@@@SAAAVioEtcItemManager@@XZ ENDP ; Singleton<ioEtcItemManager>::GetSingleton
_TEXT	ENDS
PUBLIC	?_DECSTR@@YAXPADH@Z				; _DECSTR
; Function compile flags: /Ogsp
; File d:\lost saga for developer\youtube\tutorial\source\src\lsclient\stringprotect.h
;	COMDAT ?_DECSTR@@YAXPADH@Z
_TEXT	SEGMENT
_s$ = 8							; size = 4
_l$ = 12						; size = 4
?_DECSTR@@YAXPADH@Z PROC				; _DECSTR, COMDAT

; 40   : __forceinline void _DECSTR(char* s, int l){int i=0,l4=(l-1)/4,*p=(int*)s;s[l-1]=0;for(;i<l4;++i)*(p++)^=0xEAEBECED;for(i=l4*4;i<l-1;++i)s[i]^=0xED-i%4;}

  00000	55		 push	 ebp
  00001	8b ec		 mov	 ebp, esp
  00003	8b 4d 0c	 mov	 ecx, DWORD PTR _l$[ebp]
  00006	56		 push	 esi
  00007	8b 75 08	 mov	 esi, DWORD PTR _s$[ebp]
  0000a	57		 push	 edi
  0000b	8d 79 ff	 lea	 edi, DWORD PTR [ecx-1]
  0000e	8b c7		 mov	 eax, edi
  00010	99		 cdq
  00011	83 e2 03	 and	 edx, 3
  00014	03 c2		 add	 eax, edx
  00016	c1 f8 02	 sar	 eax, 2
  00019	8b d6		 mov	 edx, esi
  0001b	c6 44 0e ff 00	 mov	 BYTE PTR [esi+ecx-1], 0
  00020	85 c0		 test	 eax, eax
  00022	7e 0e		 jle	 SHORT $LN4@DECSTR
  00024	8b c8		 mov	 ecx, eax
$LL6@DECSTR:
  00026	81 32 ed ec eb
	ea		 xor	 DWORD PTR [edx], -353637139 ; eaebecedH
  0002c	83 c2 04	 add	 edx, 4
  0002f	49		 dec	 ecx
  00030	75 f4		 jne	 SHORT $LL6@DECSTR
$LN4@DECSTR:
  00032	c1 e0 02	 shl	 eax, 2
  00035	eb 17		 jmp	 SHORT $LN14@DECSTR
$LL3@DECSTR:
  00037	8b c8		 mov	 ecx, eax
  00039	81 e1 03 00 00
	80		 and	 ecx, -2147483645	; 80000003H
  0003f	79 05		 jns	 SHORT $LN13@DECSTR
  00041	49		 dec	 ecx
  00042	83 c9 fc	 or	 ecx, -4			; fffffffcH
  00045	41		 inc	 ecx
$LN13@DECSTR:
  00046	b2 ed		 mov	 dl, -19			; ffffffedH
  00048	2a d1		 sub	 dl, cl
  0004a	30 14 30	 xor	 BYTE PTR [eax+esi], dl
  0004d	40		 inc	 eax
$LN14@DECSTR:
  0004e	3b c7		 cmp	 eax, edi
  00050	7c e5		 jl	 SHORT $LL3@DECSTR
  00052	5f		 pop	 edi
  00053	5e		 pop	 esi
  00054	5d		 pop	 ebp
  00055	c3		 ret	 0
?_DECSTR@@YAXPADH@Z ENDP				; _DECSTR
_TEXT	ENDS
PUBLIC	?GetFullWidth@ioComplexStringPrinter@@QBEMXZ	; ioComplexStringPrinter::GetFullWidth
; Function compile flags: /Ogsp
; File d:\lost saga for developer\youtube\tutorial\source\src\lsclient\iocomplexstringprinter.h
;	COMDAT ?GetFullWidth@ioComplexStringPrinter@@QBEMXZ
_TEXT	SEGMENT
?GetFullWidth@ioComplexStringPrinter@@QBEMXZ PROC	; ioComplexStringPrinter::GetFullWidth, COMDAT
; _this$ = ecx

; 125  : 	inline float GetFullWidth() const { return m_fFullWidth; }

  00000	d9 41 1c	 fld	 DWORD PTR [ecx+28]
  00003	c3		 ret	 0
?GetFullWidth@ioComplexStringPrinter@@QBEMXZ ENDP	; ioComplexStringPrinter::GetFullWidth
_TEXT	ENDS
PUBLIC	??0ETCITEMSLOT@ioUserEtcItem@@QAE@XZ		; ioUserEtcItem::ETCITEMSLOT::ETCITEMSLOT
; Function compile flags: /Ogsp
; File d:\lost saga for developer\youtube\tutorial\source\src\lsclient\iouseretcitem.h
;	COMDAT ??0ETCITEMSLOT@ioUserEtcItem@@QAE@XZ
_TEXT	SEGMENT
??0ETCITEMSLOT@ioUserEtcItem@@QAE@XZ PROC		; ioUserEtcItem::ETCITEMSLOT::ETCITEMSLOT, COMDAT
; _this$ = ecx

; 22   : 		ETCITEMSLOT()

  00000	8b c1		 mov	 eax, ecx

; 23   : 		{
; 24   : 			m_iType   = 0;

  00002	33 c9		 xor	 ecx, ecx
  00004	89 08		 mov	 DWORD PTR [eax], ecx

; 25   : 			m_iValue1 = 0;

  00006	89 48 04	 mov	 DWORD PTR [eax+4], ecx

; 26   : 			m_iValue2 = 0;

  00009	89 48 08	 mov	 DWORD PTR [eax+8], ecx

; 27   : 		}

  0000c	c3		 ret	 0
??0ETCITEMSLOT@ioUserEtcItem@@QAE@XZ ENDP		; ioUserEtcItem::ETCITEMSLOT::ETCITEMSLOT
_TEXT	ENDS
PUBLIC	?GetUserEtcItem@ioMyInfo@@QAEPAVioUserEtcItem@@XZ ; ioMyInfo::GetUserEtcItem
; Function compile flags: /Ogsp
; File d:\lost saga for developer\youtube\tutorial\source\src\lsclient\iomyinfo.h
;	COMDAT ?GetUserEtcItem@ioMyInfo@@QAEPAVioUserEtcItem@@XZ
_TEXT	SEGMENT
?GetUserEtcItem@ioMyInfo@@QAEPAVioUserEtcItem@@XZ PROC	; ioMyInfo::GetUserEtcItem, COMDAT
; _this$ = ecx

; 635  : 	ioUserEtcItem* GetUserEtcItem() { return &m_UserEtcItem; }

  00000	8d 81 44 01 00
	00		 lea	 eax, DWORD PTR [ecx+324]
  00006	c3		 ret	 0
?GetUserEtcItem@ioMyInfo@@QAEPAVioUserEtcItem@@XZ ENDP	; ioMyInfo::GetUserEtcItem
_TEXT	ENDS
PUBLIC	?empty@?$vector@UtagTextPiece@ioComplexStringPrinter@@V?$allocator@UtagTextPiece@ioComplexStringPrinter@@@std@@@std@@QBE_NXZ ; std::vector<ioComplexStringPrinter::tagTextPiece,std::allocator<ioComplexStringPrinter::tagTextPiece> >::empty
; Function compile flags: /Ogsp
; File c:\program files (x86)\microsoft visual studio 10.0\vc\include\vector
;	COMDAT ?empty@?$vector@UtagTextPiece@ioComplexStringPrinter@@V?$allocator@UtagTextPiece@ioComplexStringPrinter@@@std@@@std@@QBE_NXZ
_TEXT	SEGMENT
?empty@?$vector@UtagTextPiece@ioComplexStringPrinter@@V?$allocator@UtagTextPiece@ioComplexStringPrinter@@@std@@@std@@QBE_NXZ PROC ; std::vector<ioComplexStringPrinter::tagTextPiece,std::allocator<ioComplexStringPrinter::tagTextPiece> >::empty, COMDAT
; _this$ = ecx

; 889  : 		return (this->_Myfirst == this->_Mylast);

  00000	8b 01		 mov	 eax, DWORD PTR [ecx]
  00002	2b 41 04	 sub	 eax, DWORD PTR [ecx+4]
  00005	f7 d8		 neg	 eax
  00007	1b c0		 sbb	 eax, eax
  00009	40		 inc	 eax

; 890  : 		}

  0000a	c3		 ret	 0
?empty@?$vector@UtagTextPiece@ioComplexStringPrinter@@V?$allocator@UtagTextPiece@ioComplexStringPrinter@@@std@@@std@@QBE_NXZ ENDP ; std::vector<ioComplexStringPrinter::tagTextPiece,std::allocator<ioComplexStringPrinter::tagTextPiece> >::empty
_TEXT	ENDS
EXTRN	??3@YAXPAX@Z:PROC				; operator delete
; Function compile flags: /Ogsp
;	COMDAT ??_GGrowthDownDoneWnd@@UAEPAXI@Z
_TEXT	SEGMENT
___flags$ = 8						; size = 4
??_GGrowthDownDoneWnd@@UAEPAXI@Z PROC			; GrowthDownDoneWnd::`scalar deleting destructor', COMDAT
; _this$ = ecx
  00000	55		 push	 ebp
  00001	8b ec		 mov	 ebp, esp
  00003	56		 push	 esi
  00004	8b f1		 mov	 esi, ecx
  00006	e8 00 00 00 00	 call	 ??1GrowthDownDoneWnd@@UAE@XZ ; GrowthDownDoneWnd::~GrowthDownDoneWnd
  0000b	f6 45 08 01	 test	 BYTE PTR ___flags$[ebp], 1
  0000f	74 07		 je	 SHORT $LN1@scalar
  00011	56		 push	 esi
  00012	e8 00 00 00 00	 call	 ??3@YAXPAX@Z		; operator delete
  00017	59		 pop	 ecx
$LN1@scalar:
  00018	8b c6		 mov	 eax, esi
  0001a	5e		 pop	 esi
  0001b	5d		 pop	 ebp
  0001c	c2 04 00	 ret	 4
??_GGrowthDownDoneWnd@@UAEPAXI@Z ENDP			; GrowthDownDoneWnd::`scalar deleting destructor'
_TEXT	ENDS
PUBLIC	??_R0?AVioButton@@@8				; ioButton `RTTI Type Descriptor'
PUBLIC	?ReBatchButton@GrowthDownDoneWnd@@IAEXXZ	; GrowthDownDoneWnd::ReBatchButton
EXTRN	?GetEtcItem@ioUserEtcItem@@QAE_NHAAUETCITEMSLOT@1@@Z:PROC ; ioUserEtcItem::GetEtcItem
EXTRN	__imp_?ShowWnd@ioWnd@@QAEXXZ:PROC
EXTRN	__imp_?SetOffset@ioUITitle@@QAEXHH@Z:PROC
EXTRN	__imp_?GetTextYOffSet@ioUITitle@@QBEHXZ:PROC
EXTRN	__imp_?GetTitle@ioWnd@@QBEPAVioUITitle@@XZ:PROC
EXTRN	__imp_?SetWndPos@ioWnd@@QAEXHH@Z:PROC
EXTRN	__imp_?GetYPos@ioWnd@@QBEHXZ:PROC
EXTRN	__imp_?GetHeight@ioWnd@@QBEHXZ:PROC
EXTRN	__imp_?FindChildWnd@ioWnd@@QAEPAV1@K@Z:PROC
EXTRN	?GetSingleton@ioMyInfo@@SAAAV1@XZ:PROC		; ioMyInfo::GetSingleton
EXTRN	__imp_?HideChildWnd@ioWnd@@QAEXK_N@Z:PROC
EXTRN	___RTDynamicCast:PROC
;	COMDAT ??_R0?AVioButton@@@8
; File d:\lost saga for developer\youtube\tutorial\source\src\lsclient\iouseretcitem.h
_DATA	SEGMENT
??_R0?AVioButton@@@8 DD FLAT:??_7type_info@@6B@		; ioButton `RTTI Type Descriptor'
	DD	00H
	DB	'.?AVioButton@@', 00H
; Function compile flags: /Ogsp
; File d:\lost saga for developer\youtube\tutorial\source\src\lsclient\gui\growthdowndonewnd.cpp
_DATA	ENDS
;	COMDAT ?ReBatchButton@GrowthDownDoneWnd@@IAEXXZ
_TEXT	SEGMENT
_kSlot$ = -28						; size = 12
tv428 = -16						; size = 4
_pTitle$505446 = -16					; size = 4
_pUserEtcItem$ = -16					; size = 4
tv426 = -12						; size = 4
_pTitle$505433 = -12					; size = 4
_pButton$505443 = -8					; size = 4
_pButton$505430 = -8					; size = 4
_this$ = -4						; size = 4
?ReBatchButton@GrowthDownDoneWnd@@IAEXXZ PROC		; GrowthDownDoneWnd::ReBatchButton, COMDAT
; _this$ = ecx

; 102  : {

  00000	55		 push	 ebp
  00001	8b ec		 mov	 ebp, esp
  00003	83 ec 1c	 sub	 esp, 28			; 0000001cH
  00006	53		 push	 ebx
  00007	56		 push	 esi

; 103  : 	enum
; 104  : 	{
; 105  : 		ONE_BTN_SIZE	= 204,
; 106  : 		TWO_BTN_SIZE	= 102,
; 107  : 
; 108  : 		ONE_BTN_X		= 27,
; 109  : 		TWO_BTN_X		= 131,
; 110  : 
; 111  : 		ONE_TEXT_X		= 102,
; 112  : 		TWO_TEXT_X		= 51,
; 113  : 	};
; 114  : 
; 115  : 
; 116  : 	HideChildWnd(ID_USE);

  00008	8b 35 00 00 00
	00		 mov	 esi, DWORD PTR __imp_?HideChildWnd@ioWnd@@QAEXK_N@Z
  0000e	57		 push	 edi
  0000f	6a 00		 push	 0
  00011	6a 02		 push	 2
  00013	89 4d fc	 mov	 DWORD PTR _this$[ebp], ecx
  00016	ff d6		 call	 esi

; 117  : 	HideChildWnd(ID_GO);

  00018	8b 4d fc	 mov	 ecx, DWORD PTR _this$[ebp]
  0001b	6a 00		 push	 0
  0001d	6a 01		 push	 1
  0001f	ff d6		 call	 esi

; 118  : 
; 119  : 	// 
; 120  : 	ioUserEtcItem *pUserEtcItem = g_MyInfo.GetUserEtcItem();

  00021	e8 00 00 00 00	 call	 ?GetSingleton@ioMyInfo@@SAAAV1@XZ ; ioMyInfo::GetSingleton

; 121  : 	if( !pUserEtcItem )

  00026	8b 35 00 00 00
	00		 mov	 esi, DWORD PTR __imp_?FindChildWnd@ioWnd@@QAEPAV1@K@Z
  0002c	05 44 01 00 00	 add	 eax, 324		; 00000144H
  00031	89 45 f0	 mov	 DWORD PTR _pUserEtcItem$[ebp], eax
  00034	bb 00 00 00 00	 mov	 ebx, OFFSET ??_R0?AVioButton@@@8
  00039	bf 00 00 00 00	 mov	 edi, OFFSET ??_R0?AVioWnd@@@8
  0003e	75 7b		 jne	 SHORT $LN18@ReBatchBut

; 122  : 	{
; 123  : 		ioButton *pButton = dynamic_cast<ioButton*>(FindChildWnd(ID_GO));

  00040	8b 4d fc	 mov	 ecx, DWORD PTR _this$[ebp]
  00043	6a 00		 push	 0
  00045	53		 push	 ebx
  00046	57		 push	 edi
  00047	6a 00		 push	 0
  00049	6a 01		 push	 1
  0004b	ff d6		 call	 esi
  0004d	50		 push	 eax
  0004e	e8 00 00 00 00	 call	 ___RTDynamicCast
  00053	83 c4 14	 add	 esp, 20			; 00000014H
  00056	89 45 f8	 mov	 DWORD PTR _pButton$505430[ebp], eax

; 124  : 		if( pButton )

  00059	85 c0		 test	 eax, eax
  0005b	74 5e		 je	 SHORT $LN18@ReBatchBut

; 125  : 		{
; 126  : 			pButton->SetSize( ONE_BTN_SIZE, pButton->GetHeight() );

  0005d	8b 08		 mov	 ecx, DWORD PTR [eax]
  0005f	89 4d f4	 mov	 DWORD PTR tv426[ebp], ecx
  00062	8b c8		 mov	 ecx, eax
  00064	ff 15 00 00 00
	00		 call	 DWORD PTR __imp_?GetHeight@ioWnd@@QBEHXZ
  0006a	8b 4d f8	 mov	 ecx, DWORD PTR _pButton$505430[ebp]
  0006d	50		 push	 eax
  0006e	8b 45 f4	 mov	 eax, DWORD PTR tv426[ebp]
  00071	68 cc 00 00 00	 push	 204			; 000000ccH
  00076	ff 50 2c	 call	 DWORD PTR [eax+44]

; 127  : 			pButton->SetWndPos( ONE_BTN_X, pButton->GetYPos() );

  00079	8b 4d f8	 mov	 ecx, DWORD PTR _pButton$505430[ebp]
  0007c	ff 15 00 00 00
	00		 call	 DWORD PTR __imp_?GetYPos@ioWnd@@QBEHXZ
  00082	8b 4d f8	 mov	 ecx, DWORD PTR _pButton$505430[ebp]
  00085	50		 push	 eax
  00086	6a 1b		 push	 27			; 0000001bH
  00088	ff 15 00 00 00
	00		 call	 DWORD PTR __imp_?SetWndPos@ioWnd@@QAEXHH@Z

; 128  : 
; 129  : 			ioUITitle *pTitle =  pButton->GetTitle();

  0008e	8b 4d f8	 mov	 ecx, DWORD PTR _pButton$505430[ebp]
  00091	ff 15 00 00 00
	00		 call	 DWORD PTR __imp_?GetTitle@ioWnd@@QBEPAVioUITitle@@XZ
  00097	8b c8		 mov	 ecx, eax
  00099	89 4d f4	 mov	 DWORD PTR _pTitle$505433[ebp], ecx

; 130  : 			if( pTitle )

  0009c	85 c9		 test	 ecx, ecx
  0009e	74 12		 je	 SHORT $LN9@ReBatchBut

; 131  : 			{
; 132  : 				pTitle->SetOffset( ONE_TEXT_X, pTitle->GetTextYOffSet() );

  000a0	ff 15 00 00 00
	00		 call	 DWORD PTR __imp_?GetTextYOffSet@ioUITitle@@QBEHXZ
  000a6	8b 4d f4	 mov	 ecx, DWORD PTR _pTitle$505433[ebp]
  000a9	50		 push	 eax
  000aa	6a 66		 push	 102			; 00000066H
  000ac	ff 15 00 00 00
	00		 call	 DWORD PTR __imp_?SetOffset@ioUITitle@@QAEXHH@Z
$LN9@ReBatchBut:

; 133  : 			}
; 134  : 
; 135  : 			pButton->ShowWnd();

  000b2	8b 4d f8	 mov	 ecx, DWORD PTR _pButton$505430[ebp]
  000b5	ff 15 00 00 00
	00		 call	 DWORD PTR __imp_?ShowWnd@ioWnd@@QAEXXZ
$LN18@ReBatchBut:

; 136  : 		}
; 137  : 	}
; 138  : 
; 139  : 	ioUserEtcItem::ETCITEMSLOT kSlot;
; 140  : 	if( !pUserEtcItem->GetEtcItem( ioEtcItem::EIT_ETC_GROWTH_DOWN, kSlot) )

  000bb	8b 4d f0	 mov	 ecx, DWORD PTR _pUserEtcItem$[ebp]
  000be	33 c0		 xor	 eax, eax
  000c0	89 45 e4	 mov	 DWORD PTR _kSlot$[ebp], eax
  000c3	89 45 e8	 mov	 DWORD PTR _kSlot$[ebp+4], eax
  000c6	89 45 ec	 mov	 DWORD PTR _kSlot$[ebp+8], eax
  000c9	8d 45 e4	 lea	 eax, DWORD PTR _kSlot$[ebp]
  000cc	50		 push	 eax
  000cd	68 49 42 0f 00	 push	 1000009			; 000f4249H
  000d2	e8 00 00 00 00	 call	 ?GetEtcItem@ioUserEtcItem@@QAE_NHAAUETCITEMSLOT@1@@Z ; ioUserEtcItem::GetEtcItem

; 141  : 	{
; 142  : 		ioButton *pButton = dynamic_cast<ioButton*>(FindChildWnd(ID_GO));

  000d7	8b 4d fc	 mov	 ecx, DWORD PTR _this$[ebp]
  000da	6a 00		 push	 0
  000dc	53		 push	 ebx
  000dd	57		 push	 edi
  000de	6a 00		 push	 0
  000e0	84 c0		 test	 al, al
  000e2	75 61		 jne	 SHORT $LN8@ReBatchBut
  000e4	6a 01		 push	 1
  000e6	ff d6		 call	 esi
  000e8	50		 push	 eax
  000e9	e8 00 00 00 00	 call	 ___RTDynamicCast
  000ee	8b f0		 mov	 esi, eax
  000f0	83 c4 14	 add	 esp, 20			; 00000014H

; 143  : 		if( pButton )

  000f3	85 f6		 test	 esi, esi
  000f5	0f 84 26 01 00
	00		 je	 $LN2@ReBatchBut

; 144  : 		{
; 145  : 			pButton->SetSize( ONE_BTN_SIZE, pButton->GetHeight() );

  000fb	8b 3e		 mov	 edi, DWORD PTR [esi]
  000fd	8b ce		 mov	 ecx, esi
  000ff	ff 15 00 00 00
	00		 call	 DWORD PTR __imp_?GetHeight@ioWnd@@QBEHXZ
  00105	50		 push	 eax
  00106	68 cc 00 00 00	 push	 204			; 000000ccH
  0010b	8b ce		 mov	 ecx, esi
  0010d	ff 57 2c	 call	 DWORD PTR [edi+44]

; 146  : 			pButton->SetWndPos( ONE_BTN_X, pButton->GetYPos() );

  00110	8b ce		 mov	 ecx, esi
  00112	ff 15 00 00 00
	00		 call	 DWORD PTR __imp_?GetYPos@ioWnd@@QBEHXZ
  00118	50		 push	 eax
  00119	6a 1b		 push	 27			; 0000001bH
  0011b	8b ce		 mov	 ecx, esi
  0011d	ff 15 00 00 00
	00		 call	 DWORD PTR __imp_?SetWndPos@ioWnd@@QAEXHH@Z

; 147  : 
; 148  : 			ioUITitle *pTitle =  pButton->GetTitle();

  00123	8b ce		 mov	 ecx, esi
  00125	ff 15 00 00 00
	00		 call	 DWORD PTR __imp_?GetTitle@ioWnd@@QBEPAVioUITitle@@XZ
  0012b	8b f8		 mov	 edi, eax

; 149  : 			if( pTitle )

  0012d	85 ff		 test	 edi, edi
  0012f	0f 84 e4 00 00
	00		 je	 $LN1@ReBatchBut

; 150  : 			{
; 151  : 				pTitle->SetOffset( ONE_TEXT_X, pTitle->GetTextYOffSet() );

  00135	8b cf		 mov	 ecx, edi
  00137	ff 15 00 00 00
	00		 call	 DWORD PTR __imp_?GetTextYOffSet@ioUITitle@@QBEHXZ
  0013d	50		 push	 eax
  0013e	6a 66		 push	 102			; 00000066H

; 152  : 			}
; 153  : 
; 154  : 			pButton->ShowWnd();
; 155  : 		}
; 156  : 	}
; 157  : 	else

  00140	e9 cc 00 00 00	 jmp	 $LN20@ReBatchBut
$LN8@ReBatchBut:

; 158  : 	{
; 159  : 		ioButton *pButton = dynamic_cast<ioButton*>(FindChildWnd(ID_USE));

  00145	6a 02		 push	 2
  00147	ff d6		 call	 esi
  00149	50		 push	 eax
  0014a	e8 00 00 00 00	 call	 ___RTDynamicCast
  0014f	83 c4 14	 add	 esp, 20			; 00000014H
  00152	89 45 f8	 mov	 DWORD PTR _pButton$505443[ebp], eax

; 160  : 		if( pButton )

  00155	85 c0		 test	 eax, eax
  00157	74 5b		 je	 SHORT $LN4@ReBatchBut

; 161  : 		{
; 162  : 			pButton->SetSize( TWO_BTN_SIZE, pButton->GetHeight() );

  00159	8b 08		 mov	 ecx, DWORD PTR [eax]
  0015b	89 4d f0	 mov	 DWORD PTR tv428[ebp], ecx
  0015e	8b c8		 mov	 ecx, eax
  00160	ff 15 00 00 00
	00		 call	 DWORD PTR __imp_?GetHeight@ioWnd@@QBEHXZ
  00166	8b 4d f8	 mov	 ecx, DWORD PTR _pButton$505443[ebp]
  00169	50		 push	 eax
  0016a	8b 45 f0	 mov	 eax, DWORD PTR tv428[ebp]
  0016d	6a 66		 push	 102			; 00000066H
  0016f	ff 50 2c	 call	 DWORD PTR [eax+44]

; 163  : 			pButton->SetWndPos( ONE_BTN_X, pButton->GetYPos() );

  00172	8b 4d f8	 mov	 ecx, DWORD PTR _pButton$505443[ebp]
  00175	ff 15 00 00 00
	00		 call	 DWORD PTR __imp_?GetYPos@ioWnd@@QBEHXZ
  0017b	8b 4d f8	 mov	 ecx, DWORD PTR _pButton$505443[ebp]
  0017e	50		 push	 eax
  0017f	6a 1b		 push	 27			; 0000001bH
  00181	ff 15 00 00 00
	00		 call	 DWORD PTR __imp_?SetWndPos@ioWnd@@QAEXHH@Z

; 164  : 
; 165  : 			ioUITitle *pTitle =  pButton->GetTitle();

  00187	8b 4d f8	 mov	 ecx, DWORD PTR _pButton$505443[ebp]
  0018a	ff 15 00 00 00
	00		 call	 DWORD PTR __imp_?GetTitle@ioWnd@@QBEPAVioUITitle@@XZ
  00190	8b c8		 mov	 ecx, eax
  00192	89 4d f0	 mov	 DWORD PTR _pTitle$505446[ebp], ecx

; 166  : 			if( pTitle )

  00195	85 c9		 test	 ecx, ecx
  00197	74 12		 je	 SHORT $LN3@ReBatchBut

; 167  : 			{
; 168  : 				pTitle->SetOffset( TWO_TEXT_X, pTitle->GetTextYOffSet() );

  00199	ff 15 00 00 00
	00		 call	 DWORD PTR __imp_?GetTextYOffSet@ioUITitle@@QBEHXZ
  0019f	8b 4d f0	 mov	 ecx, DWORD PTR _pTitle$505446[ebp]
  001a2	50		 push	 eax
  001a3	6a 33		 push	 51			; 00000033H
  001a5	ff 15 00 00 00
	00		 call	 DWORD PTR __imp_?SetOffset@ioUITitle@@QAEXHH@Z
$LN3@ReBatchBut:

; 169  : 			}
; 170  : 
; 171  : 			pButton->ShowWnd();

  001ab	8b 4d f8	 mov	 ecx, DWORD PTR _pButton$505443[ebp]
  001ae	ff 15 00 00 00
	00		 call	 DWORD PTR __imp_?ShowWnd@ioWnd@@QAEXXZ
$LN4@ReBatchBut:

; 172  : 		}
; 173  : 
; 174  : 		pButton = dynamic_cast<ioButton*>(FindChildWnd(ID_GO));

  001b4	8b 4d fc	 mov	 ecx, DWORD PTR _this$[ebp]
  001b7	6a 00		 push	 0
  001b9	53		 push	 ebx
  001ba	57		 push	 edi
  001bb	6a 00		 push	 0
  001bd	6a 01		 push	 1
  001bf	ff d6		 call	 esi
  001c1	50		 push	 eax
  001c2	e8 00 00 00 00	 call	 ___RTDynamicCast
  001c7	8b f0		 mov	 esi, eax
  001c9	83 c4 14	 add	 esp, 20			; 00000014H

; 175  : 		if( pButton )

  001cc	85 f6		 test	 esi, esi
  001ce	74 51		 je	 SHORT $LN2@ReBatchBut

; 176  : 		{
; 177  : 			pButton->SetSize( TWO_BTN_SIZE, pButton->GetHeight() );

  001d0	8b 3e		 mov	 edi, DWORD PTR [esi]
  001d2	8b ce		 mov	 ecx, esi
  001d4	ff 15 00 00 00
	00		 call	 DWORD PTR __imp_?GetHeight@ioWnd@@QBEHXZ
  001da	50		 push	 eax
  001db	6a 66		 push	 102			; 00000066H
  001dd	8b ce		 mov	 ecx, esi
  001df	ff 57 2c	 call	 DWORD PTR [edi+44]

; 178  : 			pButton->SetWndPos( TWO_BTN_X, pButton->GetYPos() );

  001e2	8b ce		 mov	 ecx, esi
  001e4	ff 15 00 00 00
	00		 call	 DWORD PTR __imp_?GetYPos@ioWnd@@QBEHXZ
  001ea	50		 push	 eax
  001eb	68 83 00 00 00	 push	 131			; 00000083H
  001f0	8b ce		 mov	 ecx, esi
  001f2	ff 15 00 00 00
	00		 call	 DWORD PTR __imp_?SetWndPos@ioWnd@@QAEXHH@Z

; 179  : 
; 180  : 			ioUITitle *pTitle =  pButton->GetTitle();

  001f8	8b ce		 mov	 ecx, esi
  001fa	ff 15 00 00 00
	00		 call	 DWORD PTR __imp_?GetTitle@ioWnd@@QBEPAVioUITitle@@XZ
  00200	8b f8		 mov	 edi, eax

; 181  : 			if( pTitle )

  00202	85 ff		 test	 edi, edi
  00204	74 13		 je	 SHORT $LN1@ReBatchBut

; 182  : 			{
; 183  : 				pTitle->SetOffset( TWO_TEXT_X, pTitle->GetTextYOffSet() );

  00206	8b cf		 mov	 ecx, edi
  00208	ff 15 00 00 00
	00		 call	 DWORD PTR __imp_?GetTextYOffSet@ioUITitle@@QBEHXZ
  0020e	50		 push	 eax
  0020f	6a 33		 push	 51			; 00000033H
$LN20@ReBatchBut:
  00211	8b cf		 mov	 ecx, edi
  00213	ff 15 00 00 00
	00		 call	 DWORD PTR __imp_?SetOffset@ioUITitle@@QAEXHH@Z
$LN1@ReBatchBut:

; 184  : 			}
; 185  : 
; 186  : 			pButton->ShowWnd();

  00219	8b ce		 mov	 ecx, esi
  0021b	ff 15 00 00 00
	00		 call	 DWORD PTR __imp_?ShowWnd@ioWnd@@QAEXXZ
$LN2@ReBatchBut:
  00221	5f		 pop	 edi
  00222	5e		 pop	 esi
  00223	5b		 pop	 ebx

; 187  : 		}
; 188  : 	}
; 189  : }

  00224	c9		 leave
  00225	c3		 ret	 0
?ReBatchButton@GrowthDownDoneWnd@@IAEXXZ ENDP		; GrowthDownDoneWnd::ReBatchButton
_TEXT	ENDS
PUBLIC	??_R0?AVMyInventoryWnd@@@8			; MyInventoryWnd `RTTI Type Descriptor'
PUBLIC	??_C@_0BJ@MBKFFGIH@?$CFs?5pEtcItem?5?$DN?$DN?5NULL?5?3?5?$CFd?$AA@ ; `string'
PUBLIC	??_C@_0BP@COMBKMCA@GrowthDownDoneWnd?3?3iwm_command?$AA@ ; `string'
EXTRN	?ShowSoldierTabDirect@MyInventoryWnd@@QAEXH@Z:PROC ; MyInventoryWnd::ShowSoldierTabDirect
EXTRN	__imp_?FindWnd@ioGUIManager@@QAEPAVioWnd@@K@Z:PROC
EXTRN	?GetSingleton@ioSP2GUIManager@@SAAAV1@XZ:PROC	; ioSP2GUIManager::GetSingleton
EXTRN	__imp_?HideWnd@ioWnd@@QAEXXZ:PROC
EXTRN	__imp_?PrintTimeAndLog@CLog@@QAAXHPADZZ:PROC
EXTRN	__imp_?LOG@@3VCLog@@A:BYTE
EXTRN	?FindEtcItem@ioEtcItemManager@@QAEPAVioEtcItem@@K@Z:PROC ; ioEtcItemManager::FindEtcItem
EXTRN	__imp_?GetID@ioWnd@@QBEKXZ:PROC
;	COMDAT ??_R0?AVMyInventoryWnd@@@8
; File d:\lost saga for developer\youtube\tutorial\source\src\io3dengine\iosingleton.h
_DATA	SEGMENT
??_R0?AVMyInventoryWnd@@@8 DD FLAT:??_7type_info@@6B@	; MyInventoryWnd `RTTI Type Descriptor'
	DD	00H
	DB	'.?AVMyInventoryWnd@@', 00H
_DATA	ENDS
;	COMDAT ??_C@_0BJ@MBKFFGIH@?$CFs?5pEtcItem?5?$DN?$DN?5NULL?5?3?5?$CFd?$AA@
CONST	SEGMENT
??_C@_0BJ@MBKFFGIH@?$CFs?5pEtcItem?5?$DN?$DN?5NULL?5?3?5?$CFd?$AA@ DB '%s'
	DB	' pEtcItem == NULL : %d', 00H		; `string'
CONST	ENDS
;	COMDAT ??_C@_0BP@COMBKMCA@GrowthDownDoneWnd?3?3iwm_command?$AA@
CONST	SEGMENT
??_C@_0BP@COMBKMCA@GrowthDownDoneWnd?3?3iwm_command?$AA@ DB 'GrowthDownDo'
	DB	'neWnd::iwm_command', 00H			; `string'
; Function compile flags: /Ogsp
; File d:\lost saga for developer\youtube\tutorial\source\src\lsclient\gui\growthdowndonewnd.cpp
CONST	ENDS
;	COMDAT ?iwm_command@GrowthDownDoneWnd@@UAEXPAVioWnd@@HK@Z
_TEXT	SEGMENT
_pWnd$ = 8						; size = 4
_pUserEtcItem$505465 = 12				; size = 4
_cmd$ = 12						; size = 4
_param$ = 16						; size = 4
?iwm_command@GrowthDownDoneWnd@@UAEXPAVioWnd@@HK@Z PROC	; GrowthDownDoneWnd::iwm_command, COMDAT
; _this$ = ecx

; 192  : {

  00000	55		 push	 ebp
  00001	8b ec		 mov	 ebp, esp
  00003	53		 push	 ebx
  00004	56		 push	 esi
  00005	8b d9		 mov	 ebx, ecx

; 193  : 	DWORD dwID = pWnd->GetID();

  00007	8b 4d 08	 mov	 ecx, DWORD PTR _pWnd$[ebp]
  0000a	57		 push	 edi
  0000b	ff 15 00 00 00
	00		 call	 DWORD PTR __imp_?GetID@ioWnd@@QBEKXZ

; 194  : 	switch( dwID )

  00011	48		 dec	 eax
  00012	74 6f		 je	 SHORT $LN3@iwm_comman
  00014	48		 dec	 eax
  00015	0f 85 b0 00 00
	00		 jne	 $LN1@iwm_comman

; 195  : 	{
; 196  : 	case ID_USE:
; 197  : 		if( cmd == IOBN_BTNUP )

  0001b	83 7d 0c 11	 cmp	 DWORD PTR _cmd$[ebp], 17 ; 00000011H
  0001f	0f 85 a6 00 00
	00		 jne	 $LN1@iwm_comman

; 198  : 		{
; 199  : 			ioUserEtcItem *pUserEtcItem =  g_MyInfo.GetUserEtcItem();

  00025	e8 00 00 00 00	 call	 ?GetSingleton@ioMyInfo@@SAAAV1@XZ ; ioMyInfo::GetSingleton
  0002a	05 44 01 00 00	 add	 eax, 324		; 00000144H
  0002f	89 45 0c	 mov	 DWORD PTR _pUserEtcItem$505465[ebp], eax

; 200  : 			if( pUserEtcItem )

  00032	0f 84 93 00 00
	00		 je	 $LN1@iwm_comman

; 201  : 			{
; 202  : 				ioEtcItem *pEtcItem = g_EtcItemMgr.FindEtcItem( ioEtcItem::EIT_ETC_GROWTH_DOWN );

  00038	8b 0d 00 00 00
	00		 mov	 ecx, DWORD PTR ?ms_Singleton@?$Singleton@VioEtcItemManager@@@@1PAVioEtcItemManager@@A ; Singleton<ioEtcItemManager>::ms_Singleton
  0003e	be 49 42 0f 00	 mov	 esi, 1000009		; 000f4249H
  00043	56		 push	 esi
  00044	e8 00 00 00 00	 call	 ?FindEtcItem@ioEtcItemManager@@QAEPAVioEtcItem@@K@Z ; ioEtcItemManager::FindEtcItem
  00049	8b f8		 mov	 edi, eax

; 203  : 				if( !pEtcItem )

  0004b	85 ff		 test	 edi, edi
  0004d	75 1d		 jne	 SHORT $LN4@iwm_comman

; 204  : 				{
; 205  : 					LOG.PrintTimeAndLog( 0, "%s pEtcItem == NULL : %d", __FUNCTION__, ioEtcItem::EIT_ETC_GROWTH_DOWN );

  0004f	56		 push	 esi
  00050	68 00 00 00 00	 push	 OFFSET ??_C@_0BP@COMBKMCA@GrowthDownDoneWnd?3?3iwm_command?$AA@
  00055	68 00 00 00 00	 push	 OFFSET ??_C@_0BJ@MBKFFGIH@?$CFs?5pEtcItem?5?$DN?$DN?5NULL?5?3?5?$CFd?$AA@
  0005a	50		 push	 eax
  0005b	ff 35 00 00 00
	00		 push	 DWORD PTR __imp_?LOG@@3VCLog@@A
  00061	ff 15 00 00 00
	00		 call	 DWORD PTR __imp_?PrintTimeAndLog@CLog@@QAAXHPADZZ
  00067	83 c4 14	 add	 esp, 20			; 00000014H

; 206  : 					return;

  0006a	eb 5f		 jmp	 SHORT $LN1@iwm_comman
$LN4@iwm_comman:

; 207  : 				}
; 208  : 				HideWnd();

  0006c	8b cb		 mov	 ecx, ebx
  0006e	ff 15 00 00 00
	00		 call	 DWORD PTR __imp_?HideWnd@ioWnd@@QAEXXZ

; 209  : 
; 210  : 				pEtcItem->OnUseBtnPush( ioEtcItem::EIT_ETC_GROWTH_DOWN, pUserEtcItem );

  00074	8b 07		 mov	 eax, DWORD PTR [edi]
  00076	6a 01		 push	 1
  00078	ff 75 0c	 push	 DWORD PTR _pUserEtcItem$505465[ebp]
  0007b	8b cf		 mov	 ecx, edi
  0007d	56		 push	 esi
  0007e	ff 50 20	 call	 DWORD PTR [eax+32]

; 211  : 			}
; 212  : 		}
; 213  : 		break;

  00081	eb 48		 jmp	 SHORT $LN1@iwm_comman
$LN3@iwm_comman:

; 214  : 	case ID_GO:
; 215  : 		if( cmd == IOBN_BTNUP )

  00083	83 7d 0c 11	 cmp	 DWORD PTR _cmd$[ebp], 17 ; 00000011H
  00087	75 42		 jne	 SHORT $LN1@iwm_comman

; 216  : 		{
; 217  : 			HideWnd();

  00089	8b cb		 mov	 ecx, ebx
  0008b	ff 15 00 00 00
	00		 call	 DWORD PTR __imp_?HideWnd@ioWnd@@QAEXXZ

; 218  : 
; 219  : 			MyInventoryWnd *pInvenWnd = dynamic_cast<MyInventoryWnd*>(g_GUIMgr.FindWnd(MY_INVENTORY_WND));

  00091	6a 00		 push	 0
  00093	68 00 00 00 00	 push	 OFFSET ??_R0?AVMyInventoryWnd@@@8
  00098	68 00 00 00 00	 push	 OFFSET ??_R0?AVioWnd@@@8
  0009d	6a 00		 push	 0
  0009f	68 96 17 00 00	 push	 6038			; 00001796H
  000a4	e8 00 00 00 00	 call	 ?GetSingleton@ioSP2GUIManager@@SAAAV1@XZ ; ioSP2GUIManager::GetSingleton
  000a9	8b c8		 mov	 ecx, eax
  000ab	ff 15 00 00 00
	00		 call	 DWORD PTR __imp_?FindWnd@ioGUIManager@@QAEPAVioWnd@@K@Z
  000b1	50		 push	 eax
  000b2	e8 00 00 00 00	 call	 ___RTDynamicCast
  000b7	83 c4 14	 add	 esp, 20			; 00000014H

; 220  : 			if( pInvenWnd )

  000ba	85 c0		 test	 eax, eax
  000bc	74 0d		 je	 SHORT $LN1@iwm_comman

; 221  : 			{
; 222  : 				pInvenWnd->ShowSoldierTabDirect( m_iClassType );

  000be	ff b3 60 01 00
	00		 push	 DWORD PTR [ebx+352]
  000c4	8b c8		 mov	 ecx, eax
  000c6	e8 00 00 00 00	 call	 ?ShowSoldierTabDirect@MyInventoryWnd@@QAEXH@Z ; MyInventoryWnd::ShowSoldierTabDirect
$LN1@iwm_comman:
  000cb	5f		 pop	 edi
  000cc	5e		 pop	 esi
  000cd	5b		 pop	 ebx

; 223  : 			}
; 224  : 		}
; 225  : 		break;
; 226  : 	}
; 227  : }

  000ce	5d		 pop	 ebp
  000cf	c2 0c 00	 ret	 12			; 0000000cH
?iwm_command@GrowthDownDoneWnd@@UAEXPAVioWnd@@HK@Z ENDP	; GrowthDownDoneWnd::iwm_command
; Function compile flags: /Ogsp
_TEXT	ENDS
;	COMDAT ??_GGrowthAllDownDoneWnd@@UAEPAXI@Z
_TEXT	SEGMENT
___flags$ = 8						; size = 4
??_GGrowthAllDownDoneWnd@@UAEPAXI@Z PROC		; GrowthAllDownDoneWnd::`scalar deleting destructor', COMDAT
; _this$ = ecx
  00000	55		 push	 ebp
  00001	8b ec		 mov	 ebp, esp
  00003	56		 push	 esi
  00004	8b f1		 mov	 esi, ecx
  00006	e8 00 00 00 00	 call	 ??1GrowthAllDownDoneWnd@@UAE@XZ ; GrowthAllDownDoneWnd::~GrowthAllDownDoneWnd
  0000b	f6 45 08 01	 test	 BYTE PTR ___flags$[ebp], 1
  0000f	74 07		 je	 SHORT $LN1@scalar@2
  00011	56		 push	 esi
  00012	e8 00 00 00 00	 call	 ??3@YAXPAX@Z		; operator delete
  00017	59		 pop	 ecx
$LN1@scalar@2:
  00018	8b c6		 mov	 eax, esi
  0001a	5e		 pop	 esi
  0001b	5d		 pop	 ebp
  0001c	c2 04 00	 ret	 4
??_GGrowthAllDownDoneWnd@@UAEPAXI@Z ENDP		; GrowthAllDownDoneWnd::`scalar deleting destructor'
_TEXT	ENDS
PUBLIC	?ReBatchButton@GrowthAllDownDoneWnd@@IAEXXZ	; GrowthAllDownDoneWnd::ReBatchButton
; Function compile flags: /Ogsp
;	COMDAT ?ReBatchButton@GrowthAllDownDoneWnd@@IAEXXZ
_TEXT	SEGMENT
_kSlot$ = -28						; size = 12
tv428 = -16						; size = 4
_pTitle$505589 = -16					; size = 4
_pUserEtcItem$ = -16					; size = 4
tv426 = -12						; size = 4
_pTitle$505576 = -12					; size = 4
_pButton$505586 = -8					; size = 4
_pButton$505573 = -8					; size = 4
_this$ = -4						; size = 4
?ReBatchButton@GrowthAllDownDoneWnd@@IAEXXZ PROC	; GrowthAllDownDoneWnd::ReBatchButton, COMDAT
; _this$ = ecx

; 378  : {

  00000	55		 push	 ebp
  00001	8b ec		 mov	 ebp, esp
  00003	83 ec 1c	 sub	 esp, 28			; 0000001cH
  00006	53		 push	 ebx
  00007	56		 push	 esi

; 379  : 	enum
; 380  : 	{
; 381  : 		ONE_BTN_SIZE	= 204,
; 382  : 		TWO_BTN_SIZE	= 102,
; 383  : 
; 384  : 		ONE_BTN_X		= 27,
; 385  : 		TWO_BTN_X		= 131,
; 386  : 
; 387  : 		ONE_TEXT_X		= 102,
; 388  : 		TWO_TEXT_X		= 51,
; 389  : 	};
; 390  : 
; 391  : 
; 392  : 	HideChildWnd(ID_USE);

  00008	8b 35 00 00 00
	00		 mov	 esi, DWORD PTR __imp_?HideChildWnd@ioWnd@@QAEXK_N@Z
  0000e	57		 push	 edi
  0000f	6a 00		 push	 0
  00011	6a 02		 push	 2
  00013	89 4d fc	 mov	 DWORD PTR _this$[ebp], ecx
  00016	ff d6		 call	 esi

; 393  : 	HideChildWnd(ID_GO);

  00018	8b 4d fc	 mov	 ecx, DWORD PTR _this$[ebp]
  0001b	6a 00		 push	 0
  0001d	6a 01		 push	 1
  0001f	ff d6		 call	 esi

; 394  : 
; 395  : 	// 
; 396  : 	ioUserEtcItem *pUserEtcItem = g_MyInfo.GetUserEtcItem();

  00021	e8 00 00 00 00	 call	 ?GetSingleton@ioMyInfo@@SAAAV1@XZ ; ioMyInfo::GetSingleton

; 397  : 	if( !pUserEtcItem )

  00026	8b 35 00 00 00
	00		 mov	 esi, DWORD PTR __imp_?FindChildWnd@ioWnd@@QAEPAV1@K@Z
  0002c	05 44 01 00 00	 add	 eax, 324		; 00000144H
  00031	89 45 f0	 mov	 DWORD PTR _pUserEtcItem$[ebp], eax
  00034	bb 00 00 00 00	 mov	 ebx, OFFSET ??_R0?AVioButton@@@8
  00039	bf 00 00 00 00	 mov	 edi, OFFSET ??_R0?AVioWnd@@@8
  0003e	75 7b		 jne	 SHORT $LN18@ReBatchBut@2

; 398  : 	{
; 399  : 		ioButton *pButton = dynamic_cast<ioButton*>(FindChildWnd(ID_GO));

  00040	8b 4d fc	 mov	 ecx, DWORD PTR _this$[ebp]
  00043	6a 00		 push	 0
  00045	53		 push	 ebx
  00046	57		 push	 edi
  00047	6a 00		 push	 0
  00049	6a 01		 push	 1
  0004b	ff d6		 call	 esi
  0004d	50		 push	 eax
  0004e	e8 00 00 00 00	 call	 ___RTDynamicCast
  00053	83 c4 14	 add	 esp, 20			; 00000014H
  00056	89 45 f8	 mov	 DWORD PTR _pButton$505573[ebp], eax

; 400  : 		if( pButton )

  00059	85 c0		 test	 eax, eax
  0005b	74 5e		 je	 SHORT $LN18@ReBatchBut@2

; 401  : 		{
; 402  : 			pButton->SetSize( ONE_BTN_SIZE, pButton->GetHeight() );

  0005d	8b 08		 mov	 ecx, DWORD PTR [eax]
  0005f	89 4d f4	 mov	 DWORD PTR tv426[ebp], ecx
  00062	8b c8		 mov	 ecx, eax
  00064	ff 15 00 00 00
	00		 call	 DWORD PTR __imp_?GetHeight@ioWnd@@QBEHXZ
  0006a	8b 4d f8	 mov	 ecx, DWORD PTR _pButton$505573[ebp]
  0006d	50		 push	 eax
  0006e	8b 45 f4	 mov	 eax, DWORD PTR tv426[ebp]
  00071	68 cc 00 00 00	 push	 204			; 000000ccH
  00076	ff 50 2c	 call	 DWORD PTR [eax+44]

; 403  : 			pButton->SetWndPos( ONE_BTN_X, pButton->GetYPos() );

  00079	8b 4d f8	 mov	 ecx, DWORD PTR _pButton$505573[ebp]
  0007c	ff 15 00 00 00
	00		 call	 DWORD PTR __imp_?GetYPos@ioWnd@@QBEHXZ
  00082	8b 4d f8	 mov	 ecx, DWORD PTR _pButton$505573[ebp]
  00085	50		 push	 eax
  00086	6a 1b		 push	 27			; 0000001bH
  00088	ff 15 00 00 00
	00		 call	 DWORD PTR __imp_?SetWndPos@ioWnd@@QAEXHH@Z

; 404  : 
; 405  : 			ioUITitle *pTitle =  pButton->GetTitle();

  0008e	8b 4d f8	 mov	 ecx, DWORD PTR _pButton$505573[ebp]
  00091	ff 15 00 00 00
	00		 call	 DWORD PTR __imp_?GetTitle@ioWnd@@QBEPAVioUITitle@@XZ
  00097	8b c8		 mov	 ecx, eax
  00099	89 4d f4	 mov	 DWORD PTR _pTitle$505576[ebp], ecx

; 406  : 			if( pTitle )

  0009c	85 c9		 test	 ecx, ecx
  0009e	74 12		 je	 SHORT $LN9@ReBatchBut@2

; 407  : 			{
; 408  : 				pTitle->SetOffset( ONE_TEXT_X, pTitle->GetTextYOffSet() );

  000a0	ff 15 00 00 00
	00		 call	 DWORD PTR __imp_?GetTextYOffSet@ioUITitle@@QBEHXZ
  000a6	8b 4d f4	 mov	 ecx, DWORD PTR _pTitle$505576[ebp]
  000a9	50		 push	 eax
  000aa	6a 66		 push	 102			; 00000066H
  000ac	ff 15 00 00 00
	00		 call	 DWORD PTR __imp_?SetOffset@ioUITitle@@QAEXHH@Z
$LN9@ReBatchBut@2:

; 409  : 			}
; 410  : 
; 411  : 			pButton->ShowWnd();

  000b2	8b 4d f8	 mov	 ecx, DWORD PTR _pButton$505573[ebp]
  000b5	ff 15 00 00 00
	00		 call	 DWORD PTR __imp_?ShowWnd@ioWnd@@QAEXXZ
$LN18@ReBatchBut@2:

; 412  : 		}
; 413  : 	}
; 414  : 
; 415  : 	ioUserEtcItem::ETCITEMSLOT kSlot;
; 416  : 	if( !pUserEtcItem->GetEtcItem( ioEtcItem::EIT_ETC_GROWTH_ALL_DOWN, kSlot) )

  000bb	8b 4d f0	 mov	 ecx, DWORD PTR _pUserEtcItem$[ebp]
  000be	33 c0		 xor	 eax, eax
  000c0	89 45 e4	 mov	 DWORD PTR _kSlot$[ebp], eax
  000c3	89 45 e8	 mov	 DWORD PTR _kSlot$[ebp+4], eax
  000c6	89 45 ec	 mov	 DWORD PTR _kSlot$[ebp+8], eax
  000c9	8d 45 e4	 lea	 eax, DWORD PTR _kSlot$[ebp]
  000cc	50		 push	 eax
  000cd	68 ed 48 0f 00	 push	 1001709			; 000f48edH
  000d2	e8 00 00 00 00	 call	 ?GetEtcItem@ioUserEtcItem@@QAE_NHAAUETCITEMSLOT@1@@Z ; ioUserEtcItem::GetEtcItem

; 417  : 	{
; 418  : 		ioButton *pButton = dynamic_cast<ioButton*>(FindChildWnd(ID_GO));

  000d7	8b 4d fc	 mov	 ecx, DWORD PTR _this$[ebp]
  000da	6a 00		 push	 0
  000dc	53		 push	 ebx
  000dd	57		 push	 edi
  000de	6a 00		 push	 0
  000e0	84 c0		 test	 al, al
  000e2	75 61		 jne	 SHORT $LN8@ReBatchBut@2
  000e4	6a 01		 push	 1
  000e6	ff d6		 call	 esi
  000e8	50		 push	 eax
  000e9	e8 00 00 00 00	 call	 ___RTDynamicCast
  000ee	8b f0		 mov	 esi, eax
  000f0	83 c4 14	 add	 esp, 20			; 00000014H

; 419  : 		if( pButton )

  000f3	85 f6		 test	 esi, esi
  000f5	0f 84 26 01 00
	00		 je	 $LN2@ReBatchBut@2

; 420  : 		{
; 421  : 			pButton->SetSize( ONE_BTN_SIZE, pButton->GetHeight() );

  000fb	8b 3e		 mov	 edi, DWORD PTR [esi]
  000fd	8b ce		 mov	 ecx, esi
  000ff	ff 15 00 00 00
	00		 call	 DWORD PTR __imp_?GetHeight@ioWnd@@QBEHXZ
  00105	50		 push	 eax
  00106	68 cc 00 00 00	 push	 204			; 000000ccH
  0010b	8b ce		 mov	 ecx, esi
  0010d	ff 57 2c	 call	 DWORD PTR [edi+44]

; 422  : 			pButton->SetWndPos( ONE_BTN_X, pButton->GetYPos() );

  00110	8b ce		 mov	 ecx, esi
  00112	ff 15 00 00 00
	00		 call	 DWORD PTR __imp_?GetYPos@ioWnd@@QBEHXZ
  00118	50		 push	 eax
  00119	6a 1b		 push	 27			; 0000001bH
  0011b	8b ce		 mov	 ecx, esi
  0011d	ff 15 00 00 00
	00		 call	 DWORD PTR __imp_?SetWndPos@ioWnd@@QAEXHH@Z

; 423  : 
; 424  : 			ioUITitle *pTitle =  pButton->GetTitle();

  00123	8b ce		 mov	 ecx, esi
  00125	ff 15 00 00 00
	00		 call	 DWORD PTR __imp_?GetTitle@ioWnd@@QBEPAVioUITitle@@XZ
  0012b	8b f8		 mov	 edi, eax

; 425  : 			if( pTitle )

  0012d	85 ff		 test	 edi, edi
  0012f	0f 84 e4 00 00
	00		 je	 $LN1@ReBatchBut@2

; 426  : 			{
; 427  : 				pTitle->SetOffset( ONE_TEXT_X, pTitle->GetTextYOffSet() );

  00135	8b cf		 mov	 ecx, edi
  00137	ff 15 00 00 00
	00		 call	 DWORD PTR __imp_?GetTextYOffSet@ioUITitle@@QBEHXZ
  0013d	50		 push	 eax
  0013e	6a 66		 push	 102			; 00000066H

; 428  : 			}
; 429  : 
; 430  : 			pButton->ShowWnd();
; 431  : 		}
; 432  : 	}
; 433  : 	else

  00140	e9 cc 00 00 00	 jmp	 $LN20@ReBatchBut@2
$LN8@ReBatchBut@2:

; 434  : 	{
; 435  : 		ioButton *pButton = dynamic_cast<ioButton*>(FindChildWnd(ID_USE));

  00145	6a 02		 push	 2
  00147	ff d6		 call	 esi
  00149	50		 push	 eax
  0014a	e8 00 00 00 00	 call	 ___RTDynamicCast
  0014f	83 c4 14	 add	 esp, 20			; 00000014H
  00152	89 45 f8	 mov	 DWORD PTR _pButton$505586[ebp], eax

; 436  : 		if( pButton )

  00155	85 c0		 test	 eax, eax
  00157	74 5b		 je	 SHORT $LN4@ReBatchBut@2

; 437  : 		{
; 438  : 			pButton->SetSize( TWO_BTN_SIZE, pButton->GetHeight() );

  00159	8b 08		 mov	 ecx, DWORD PTR [eax]
  0015b	89 4d f0	 mov	 DWORD PTR tv428[ebp], ecx
  0015e	8b c8		 mov	 ecx, eax
  00160	ff 15 00 00 00
	00		 call	 DWORD PTR __imp_?GetHeight@ioWnd@@QBEHXZ
  00166	8b 4d f8	 mov	 ecx, DWORD PTR _pButton$505586[ebp]
  00169	50		 push	 eax
  0016a	8b 45 f0	 mov	 eax, DWORD PTR tv428[ebp]
  0016d	6a 66		 push	 102			; 00000066H
  0016f	ff 50 2c	 call	 DWORD PTR [eax+44]

; 439  : 			pButton->SetWndPos( ONE_BTN_X, pButton->GetYPos() );

  00172	8b 4d f8	 mov	 ecx, DWORD PTR _pButton$505586[ebp]
  00175	ff 15 00 00 00
	00		 call	 DWORD PTR __imp_?GetYPos@ioWnd@@QBEHXZ
  0017b	8b 4d f8	 mov	 ecx, DWORD PTR _pButton$505586[ebp]
  0017e	50		 push	 eax
  0017f	6a 1b		 push	 27			; 0000001bH
  00181	ff 15 00 00 00
	00		 call	 DWORD PTR __imp_?SetWndPos@ioWnd@@QAEXHH@Z

; 440  : 
; 441  : 			ioUITitle *pTitle =  pButton->GetTitle();

  00187	8b 4d f8	 mov	 ecx, DWORD PTR _pButton$505586[ebp]
  0018a	ff 15 00 00 00
	00		 call	 DWORD PTR __imp_?GetTitle@ioWnd@@QBEPAVioUITitle@@XZ
  00190	8b c8		 mov	 ecx, eax
  00192	89 4d f0	 mov	 DWORD PTR _pTitle$505589[ebp], ecx

; 442  : 			if( pTitle )

  00195	85 c9		 test	 ecx, ecx
  00197	74 12		 je	 SHORT $LN3@ReBatchBut@2

; 443  : 			{
; 444  : 				pTitle->SetOffset( TWO_TEXT_X, pTitle->GetTextYOffSet() );

  00199	ff 15 00 00 00
	00		 call	 DWORD PTR __imp_?GetTextYOffSet@ioUITitle@@QBEHXZ
  0019f	8b 4d f0	 mov	 ecx, DWORD PTR _pTitle$505589[ebp]
  001a2	50		 push	 eax
  001a3	6a 33		 push	 51			; 00000033H
  001a5	ff 15 00 00 00
	00		 call	 DWORD PTR __imp_?SetOffset@ioUITitle@@QAEXHH@Z
$LN3@ReBatchBut@2:

; 445  : 			}
; 446  : 
; 447  : 			pButton->ShowWnd();

  001ab	8b 4d f8	 mov	 ecx, DWORD PTR _pButton$505586[ebp]
  001ae	ff 15 00 00 00
	00		 call	 DWORD PTR __imp_?ShowWnd@ioWnd@@QAEXXZ
$LN4@ReBatchBut@2:

; 448  : 		}
; 449  : 
; 450  : 		pButton = dynamic_cast<ioButton*>(FindChildWnd(ID_GO));

  001b4	8b 4d fc	 mov	 ecx, DWORD PTR _this$[ebp]
  001b7	6a 00		 push	 0
  001b9	53		 push	 ebx
  001ba	57		 push	 edi
  001bb	6a 00		 push	 0
  001bd	6a 01		 push	 1
  001bf	ff d6		 call	 esi
  001c1	50		 push	 eax
  001c2	e8 00 00 00 00	 call	 ___RTDynamicCast
  001c7	8b f0		 mov	 esi, eax
  001c9	83 c4 14	 add	 esp, 20			; 00000014H

; 451  : 		if( pButton )

  001cc	85 f6		 test	 esi, esi
  001ce	74 51		 je	 SHORT $LN2@ReBatchBut@2

; 452  : 		{
; 453  : 			pButton->SetSize( TWO_BTN_SIZE, pButton->GetHeight() );

  001d0	8b 3e		 mov	 edi, DWORD PTR [esi]
  001d2	8b ce		 mov	 ecx, esi
  001d4	ff 15 00 00 00
	00		 call	 DWORD PTR __imp_?GetHeight@ioWnd@@QBEHXZ
  001da	50		 push	 eax
  001db	6a 66		 push	 102			; 00000066H
  001dd	8b ce		 mov	 ecx, esi
  001df	ff 57 2c	 call	 DWORD PTR [edi+44]

; 454  : 			pButton->SetWndPos( TWO_BTN_X, pButton->GetYPos() );

  001e2	8b ce		 mov	 ecx, esi
  001e4	ff 15 00 00 00
	00		 call	 DWORD PTR __imp_?GetYPos@ioWnd@@QBEHXZ
  001ea	50		 push	 eax
  001eb	68 83 00 00 00	 push	 131			; 00000083H
  001f0	8b ce		 mov	 ecx, esi
  001f2	ff 15 00 00 00
	00		 call	 DWORD PTR __imp_?SetWndPos@ioWnd@@QAEXHH@Z

; 455  : 
; 456  : 			ioUITitle *pTitle =  pButton->GetTitle();

  001f8	8b ce		 mov	 ecx, esi
  001fa	ff 15 00 00 00
	00		 call	 DWORD PTR __imp_?GetTitle@ioWnd@@QBEPAVioUITitle@@XZ
  00200	8b f8		 mov	 edi, eax

; 457  : 			if( pTitle )

  00202	85 ff		 test	 edi, edi
  00204	74 13		 je	 SHORT $LN1@ReBatchBut@2

; 458  : 			{
; 459  : 				pTitle->SetOffset( TWO_TEXT_X, pTitle->GetTextYOffSet() );

  00206	8b cf		 mov	 ecx, edi
  00208	ff 15 00 00 00
	00		 call	 DWORD PTR __imp_?GetTextYOffSet@ioUITitle@@QBEHXZ
  0020e	50		 push	 eax
  0020f	6a 33		 push	 51			; 00000033H
$LN20@ReBatchBut@2:
  00211	8b cf		 mov	 ecx, edi
  00213	ff 15 00 00 00
	00		 call	 DWORD PTR __imp_?SetOffset@ioUITitle@@QAEXHH@Z
$LN1@ReBatchBut@2:

; 460  : 			}
; 461  : 
; 462  : 			pButton->ShowWnd();

  00219	8b ce		 mov	 ecx, esi
  0021b	ff 15 00 00 00
	00		 call	 DWORD PTR __imp_?ShowWnd@ioWnd@@QAEXXZ
$LN2@ReBatchBut@2:
  00221	5f		 pop	 edi
  00222	5e		 pop	 esi
  00223	5b		 pop	 ebx

; 463  : 		}
; 464  : 	}
; 465  : }

  00224	c9		 leave
  00225	c3		 ret	 0
?ReBatchButton@GrowthAllDownDoneWnd@@IAEXXZ ENDP	; GrowthAllDownDoneWnd::ReBatchButton
_TEXT	ENDS
PUBLIC	??_C@_0CC@HKFHJJPL@GrowthAllDownDoneWnd?3?3iwm_comman@ ; `string'
;	COMDAT ??_C@_0CC@HKFHJJPL@GrowthAllDownDoneWnd?3?3iwm_comman@
; File d:\lost saga for developer\youtube\tutorial\source\src\io3dengine\iosingleton.h
CONST	SEGMENT
??_C@_0CC@HKFHJJPL@GrowthAllDownDoneWnd?3?3iwm_comman@ DB 'GrowthAllDownD'
	DB	'oneWnd::iwm_command', 00H			; `string'
; Function compile flags: /Ogsp
; File d:\lost saga for developer\youtube\tutorial\source\src\lsclient\gui\growthdowndonewnd.cpp
CONST	ENDS
;	COMDAT ?iwm_command@GrowthAllDownDoneWnd@@UAEXPAVioWnd@@HK@Z
_TEXT	SEGMENT
_pWnd$ = 8						; size = 4
_pUserEtcItem$505609 = 12				; size = 4
_cmd$ = 12						; size = 4
_param$ = 16						; size = 4
?iwm_command@GrowthAllDownDoneWnd@@UAEXPAVioWnd@@HK@Z PROC ; GrowthAllDownDoneWnd::iwm_command, COMDAT
; _this$ = ecx

; 468  : {

  00000	55		 push	 ebp
  00001	8b ec		 mov	 ebp, esp
  00003	53		 push	 ebx
  00004	56		 push	 esi
  00005	8b d9		 mov	 ebx, ecx

; 469  : 	DWORD dwID = pWnd->GetID();

  00007	8b 4d 08	 mov	 ecx, DWORD PTR _pWnd$[ebp]
  0000a	57		 push	 edi
  0000b	ff 15 00 00 00
	00		 call	 DWORD PTR __imp_?GetID@ioWnd@@QBEKXZ

; 470  : 	switch( dwID )

  00011	48		 dec	 eax
  00012	74 6f		 je	 SHORT $LN3@iwm_comman@2
  00014	48		 dec	 eax
  00015	0f 85 b0 00 00
	00		 jne	 $LN1@iwm_comman@2

; 471  : 	{
; 472  : 	case ID_USE:
; 473  : 		if( cmd == IOBN_BTNUP )

  0001b	83 7d 0c 11	 cmp	 DWORD PTR _cmd$[ebp], 17 ; 00000011H
  0001f	0f 85 a6 00 00
	00		 jne	 $LN1@iwm_comman@2

; 474  : 		{
; 475  : 			DWORD dwType = ioEtcItem::EIT_ETC_GROWTH_ALL_DOWN;
; 476  : 			ioUserEtcItem *pUserEtcItem =  g_MyInfo.GetUserEtcItem();

  00025	e8 00 00 00 00	 call	 ?GetSingleton@ioMyInfo@@SAAAV1@XZ ; ioMyInfo::GetSingleton
  0002a	05 44 01 00 00	 add	 eax, 324		; 00000144H
  0002f	89 45 0c	 mov	 DWORD PTR _pUserEtcItem$505609[ebp], eax

; 477  : 			if( pUserEtcItem )

  00032	0f 84 93 00 00
	00		 je	 $LN1@iwm_comman@2

; 478  : 			{
; 479  : 				ioEtcItem *pEtcItem = g_EtcItemMgr.FindEtcItem( dwType );

  00038	8b 0d 00 00 00
	00		 mov	 ecx, DWORD PTR ?ms_Singleton@?$Singleton@VioEtcItemManager@@@@1PAVioEtcItemManager@@A ; Singleton<ioEtcItemManager>::ms_Singleton
  0003e	be ed 48 0f 00	 mov	 esi, 1001709		; 000f48edH
  00043	56		 push	 esi
  00044	e8 00 00 00 00	 call	 ?FindEtcItem@ioEtcItemManager@@QAEPAVioEtcItem@@K@Z ; ioEtcItemManager::FindEtcItem
  00049	8b f8		 mov	 edi, eax

; 480  : 				if( !pEtcItem )

  0004b	85 ff		 test	 edi, edi
  0004d	75 1d		 jne	 SHORT $LN4@iwm_comman@2

; 481  : 				{
; 482  : 					LOG.PrintTimeAndLog( 0, "%s pEtcItem == NULL : %d", __FUNCTION__, dwType );

  0004f	56		 push	 esi
  00050	68 00 00 00 00	 push	 OFFSET ??_C@_0CC@HKFHJJPL@GrowthAllDownDoneWnd?3?3iwm_comman@
  00055	68 00 00 00 00	 push	 OFFSET ??_C@_0BJ@MBKFFGIH@?$CFs?5pEtcItem?5?$DN?$DN?5NULL?5?3?5?$CFd?$AA@
  0005a	50		 push	 eax
  0005b	ff 35 00 00 00
	00		 push	 DWORD PTR __imp_?LOG@@3VCLog@@A
  00061	ff 15 00 00 00
	00		 call	 DWORD PTR __imp_?PrintTimeAndLog@CLog@@QAAXHPADZZ
  00067	83 c4 14	 add	 esp, 20			; 00000014H

; 483  : 					return;

  0006a	eb 5f		 jmp	 SHORT $LN1@iwm_comman@2
$LN4@iwm_comman@2:

; 484  : 				}
; 485  : 				HideWnd();

  0006c	8b cb		 mov	 ecx, ebx
  0006e	ff 15 00 00 00
	00		 call	 DWORD PTR __imp_?HideWnd@ioWnd@@QAEXXZ

; 486  : 
; 487  : 				pEtcItem->OnUseBtnPush( dwType, pUserEtcItem );

  00074	8b 07		 mov	 eax, DWORD PTR [edi]
  00076	6a 01		 push	 1
  00078	ff 75 0c	 push	 DWORD PTR _pUserEtcItem$505609[ebp]
  0007b	8b cf		 mov	 ecx, edi
  0007d	56		 push	 esi
  0007e	ff 50 20	 call	 DWORD PTR [eax+32]

; 488  : 			}
; 489  : 		}
; 490  : 		break;

  00081	eb 48		 jmp	 SHORT $LN1@iwm_comman@2
$LN3@iwm_comman@2:

; 491  : 	case ID_GO:
; 492  : 		if( cmd == IOBN_BTNUP )

  00083	83 7d 0c 11	 cmp	 DWORD PTR _cmd$[ebp], 17 ; 00000011H
  00087	75 42		 jne	 SHORT $LN1@iwm_comman@2

; 493  : 		{
; 494  : 			HideWnd();

  00089	8b cb		 mov	 ecx, ebx
  0008b	ff 15 00 00 00
	00		 call	 DWORD PTR __imp_?HideWnd@ioWnd@@QAEXXZ

; 495  : 
; 496  : 			MyInventoryWnd *pInvenWnd = dynamic_cast<MyInventoryWnd*>(g_GUIMgr.FindWnd(MY_INVENTORY_WND));

  00091	6a 00		 push	 0
  00093	68 00 00 00 00	 push	 OFFSET ??_R0?AVMyInventoryWnd@@@8
  00098	68 00 00 00 00	 push	 OFFSET ??_R0?AVioWnd@@@8
  0009d	6a 00		 push	 0
  0009f	68 96 17 00 00	 push	 6038			; 00001796H
  000a4	e8 00 00 00 00	 call	 ?GetSingleton@ioSP2GUIManager@@SAAAV1@XZ ; ioSP2GUIManager::GetSingleton
  000a9	8b c8		 mov	 ecx, eax
  000ab	ff 15 00 00 00
	00		 call	 DWORD PTR __imp_?FindWnd@ioGUIManager@@QAEPAVioWnd@@K@Z
  000b1	50		 push	 eax
  000b2	e8 00 00 00 00	 call	 ___RTDynamicCast
  000b7	83 c4 14	 add	 esp, 20			; 00000014H

; 497  : 			if( pInvenWnd )

  000ba	85 c0		 test	 eax, eax
  000bc	74 0d		 je	 SHORT $LN1@iwm_comman@2

; 498  : 			{
; 499  : 				pInvenWnd->ShowSoldierTabDirect( m_iClassType );

  000be	ff b3 60 01 00
	00		 push	 DWORD PTR [ebx+352]
  000c4	8b c8		 mov	 ecx, eax
  000c6	e8 00 00 00 00	 call	 ?ShowSoldierTabDirect@MyInventoryWnd@@QAEXH@Z ; MyInventoryWnd::ShowSoldierTabDirect
$LN1@iwm_comman@2:
  000cb	5f		 pop	 edi
  000cc	5e		 pop	 esi
  000cd	5b		 pop	 ebx

; 500  : 			}
; 501  : 		}
; 502  : 		break;
; 503  : 	}
; 504  : }

  000ce	5d		 pop	 ebp
  000cf	c2 0c 00	 ret	 12			; 0000000cH
?iwm_command@GrowthAllDownDoneWnd@@UAEXPAVioWnd@@HK@Z ENDP ; GrowthAllDownDoneWnd::iwm_command
_TEXT	ENDS
PUBLIC	__$ArrayPad$
PUBLIC	??$?8$0M@@@YA_NABVioHashString@@AAY0M@$$CBD@Z	; operator==<12>
EXTRN	__imp_?c_str@ioHashString@@QBEPBDXZ:PROC
EXTRN	___security_cookie:DWORD
; Function compile flags: /Ogsp
; File d:\lost saga for developer\youtube\tutorial\source\src\io3dengine\iohashstring.h
;	COMDAT ??$?8$0M@@@YA_NABVioHashString@@AAY0M@$$CBD@Z
_TEXT	SEGMENT
__t$ = -20						; size = 12
__$ArrayPad$ = -4					; size = 4
_lhs$ = 8						; size = 4
_t$ = 12						; size = 4
??$?8$0M@@@YA_NABVioHashString@@AAY0M@$$CBD@Z PROC	; operator==<12>, COMDAT

; 146  : {

  00000	55		 push	 ebp
  00001	8b ec		 mov	 ebp, esp
  00003	83 ec 14	 sub	 esp, 20			; 00000014H
  00006	a1 00 00 00 00	 mov	 eax, DWORD PTR ___security_cookie
  0000b	33 c5		 xor	 eax, ebp
  0000d	89 45 fc	 mov	 DWORD PTR __$ArrayPad$[ebp], eax
  00010	8b 45 0c	 mov	 eax, DWORD PTR _t$[ebp]

; 147  : 	_ENCSTR(t, _t); return ( strcmp( lhs.c_str(), _t ) == 0 );

  00013	8a 10		 mov	 dl, BYTE PTR [eax]
  00015	56		 push	 esi
  00016	57		 push	 edi
  00017	8b 7d 08	 mov	 edi, DWORD PTR _lhs$[ebp]
  0001a	84 d2		 test	 dl, dl
  0001c	0f 84 32 01 00
	00		 je	 $LN96@operator
  00022	80 f2 ed	 xor	 dl, -19			; ffffffedH
  00025	88 55 ec	 mov	 BYTE PTR __t$[ebp], dl
  00028	8a 50 01	 mov	 dl, BYTE PTR [eax+1]
  0002b	84 d2		 test	 dl, dl
  0002d	0f 84 1b 01 00
	00		 je	 $LN95@operator
  00033	80 f2 ec	 xor	 dl, -20			; ffffffecH
  00036	88 55 ed	 mov	 BYTE PTR __t$[ebp+1], dl
  00039	8a 50 02	 mov	 dl, BYTE PTR [eax+2]
  0003c	84 d2		 test	 dl, dl
  0003e	0f 84 04 01 00
	00		 je	 $LN94@operator
  00044	b1 eb		 mov	 cl, -21			; ffffffebH
  00046	32 d1		 xor	 dl, cl
  00048	88 55 ee	 mov	 BYTE PTR __t$[ebp+2], dl
  0004b	8a 50 03	 mov	 dl, BYTE PTR [eax+3]
  0004e	84 d2		 test	 dl, dl
  00050	0f 84 ec 00 00
	00		 je	 $LN93@operator
  00056	80 f2 ea	 xor	 dl, -22			; ffffffeaH
  00059	88 55 ef	 mov	 BYTE PTR __t$[ebp+3], dl
  0005c	8a 50 04	 mov	 dl, BYTE PTR [eax+4]
  0005f	84 d2		 test	 dl, dl
  00061	0f 84 d5 00 00
	00		 je	 $LN92@operator
  00067	80 f2 ed	 xor	 dl, -19			; ffffffedH
  0006a	88 55 f0	 mov	 BYTE PTR __t$[ebp+4], dl
  0006d	8a 50 05	 mov	 dl, BYTE PTR [eax+5]
  00070	84 d2		 test	 dl, dl
  00072	0f 84 be 00 00
	00		 je	 $LN91@operator
  00078	80 f2 ec	 xor	 dl, -20			; ffffffecH
  0007b	88 55 f1	 mov	 BYTE PTR __t$[ebp+5], dl
  0007e	8a 50 06	 mov	 dl, BYTE PTR [eax+6]
  00081	84 d2		 test	 dl, dl
  00083	0f 84 a8 00 00
	00		 je	 $LN90@operator
  00089	32 d1		 xor	 dl, cl
  0008b	88 55 f2	 mov	 BYTE PTR __t$[ebp+6], dl
  0008e	8a 50 07	 mov	 dl, BYTE PTR [eax+7]
  00091	84 d2		 test	 dl, dl
  00093	0f 84 92 00 00
	00		 je	 $LN89@operator
  00099	80 f2 ea	 xor	 dl, -22			; ffffffeaH
  0009c	88 55 f3	 mov	 BYTE PTR __t$[ebp+7], dl
  0009f	8a 50 08	 mov	 dl, BYTE PTR [eax+8]
  000a2	84 d2		 test	 dl, dl
  000a4	74 7f		 je	 SHORT $LN88@operator
  000a6	80 f2 ed	 xor	 dl, -19			; ffffffedH
  000a9	88 55 f4	 mov	 BYTE PTR __t$[ebp+8], dl
  000ac	8a 50 09	 mov	 dl, BYTE PTR [eax+9]
  000af	84 d2		 test	 dl, dl
  000b1	74 6c		 je	 SHORT $LN87@operator
  000b3	80 f2 ec	 xor	 dl, -20			; ffffffecH
  000b6	88 55 f5	 mov	 BYTE PTR __t$[ebp+9], dl
  000b9	8a 50 0a	 mov	 dl, BYTE PTR [eax+10]
  000bc	84 d2		 test	 dl, dl
  000be	74 5a		 je	 SHORT $LN86@operator
  000c0	32 d1		 xor	 dl, cl
  000c2	80 78 0b 00	 cmp	 BYTE PTR [eax+11], 0
  000c6	88 55 f6	 mov	 BYTE PTR __t$[ebp+10], dl
  000c9	0f 84 89 00 00
	00		 je	 $LN1@operator
  000cf	8a 50 0c	 mov	 dl, BYTE PTR [eax+12]
  000d2	84 d2		 test	 dl, dl
  000d4	74 3e		 je	 SHORT $LN84@operator
  000d6	80 f2 ed	 xor	 dl, -19			; ffffffedH
  000d9	88 55 f8	 mov	 BYTE PTR __t$[ebp+12], dl
  000dc	8a 50 0d	 mov	 dl, BYTE PTR [eax+13]
  000df	84 d2		 test	 dl, dl
  000e1	74 2b		 je	 SHORT $LN83@operator
  000e3	80 f2 ec	 xor	 dl, -20			; ffffffecH
  000e6	88 55 f9	 mov	 BYTE PTR __t$[ebp+13], dl
  000e9	8a 50 0e	 mov	 dl, BYTE PTR [eax+14]
  000ec	84 d2		 test	 dl, dl
  000ee	74 19		 je	 SHORT $LN82@operator
  000f0	8a 40 0f	 mov	 al, BYTE PTR [eax+15]
  000f3	32 d1		 xor	 dl, cl
  000f5	88 55 fa	 mov	 BYTE PTR __t$[ebp+14], dl
  000f8	84 c0		 test	 al, al
  000fa	74 07		 je	 SHORT $LN81@operator
  000fc	34 ea		 xor	 al, -22			; ffffffeaH
  000fe	88 45 fb	 mov	 BYTE PTR __t$[ebp+15], al
  00101	eb 55		 jmp	 SHORT $LN1@operator
$LN81@operator:
  00103	c6 45 fb ea	 mov	 BYTE PTR __t$[ebp+15], -22 ; ffffffeaH
  00107	eb 4f		 jmp	 SHORT $LN1@operator
$LN82@operator:
  00109	88 4d fa	 mov	 BYTE PTR __t$[ebp+14], cl
  0010c	eb 4a		 jmp	 SHORT $LN1@operator
$LN83@operator:
  0010e	c6 45 f9 ec	 mov	 BYTE PTR __t$[ebp+13], -20 ; ffffffecH
  00112	eb 44		 jmp	 SHORT $LN1@operator
$LN84@operator:
  00114	c6 45 f8 ed	 mov	 BYTE PTR __t$[ebp+12], -19 ; ffffffedH
  00118	eb 3e		 jmp	 SHORT $LN1@operator
$LN86@operator:
  0011a	88 4d f6	 mov	 BYTE PTR __t$[ebp+10], cl
  0011d	eb 39		 jmp	 SHORT $LN1@operator
$LN87@operator:
  0011f	c6 45 f5 ec	 mov	 BYTE PTR __t$[ebp+9], -20 ; ffffffecH
  00123	eb 33		 jmp	 SHORT $LN1@operator
$LN88@operator:
  00125	c6 45 f4 ed	 mov	 BYTE PTR __t$[ebp+8], -19 ; ffffffedH
  00129	eb 2d		 jmp	 SHORT $LN1@operator
$LN89@operator:
  0012b	c6 45 f3 ea	 mov	 BYTE PTR __t$[ebp+7], -22 ; ffffffeaH
  0012f	eb 27		 jmp	 SHORT $LN1@operator
$LN90@operator:
  00131	88 4d f2	 mov	 BYTE PTR __t$[ebp+6], cl
  00134	eb 22		 jmp	 SHORT $LN1@operator
$LN91@operator:
  00136	c6 45 f1 ec	 mov	 BYTE PTR __t$[ebp+5], -20 ; ffffffecH
  0013a	eb 1c		 jmp	 SHORT $LN1@operator
$LN92@operator:
  0013c	c6 45 f0 ed	 mov	 BYTE PTR __t$[ebp+4], -19 ; ffffffedH
  00140	eb 16		 jmp	 SHORT $LN1@operator
$LN93@operator:
  00142	c6 45 ef ea	 mov	 BYTE PTR __t$[ebp+3], -22 ; ffffffeaH
  00146	eb 10		 jmp	 SHORT $LN1@operator
$LN94@operator:
  00148	c6 45 ee eb	 mov	 BYTE PTR __t$[ebp+2], -21 ; ffffffebH
  0014c	eb 0a		 jmp	 SHORT $LN1@operator
$LN95@operator:
  0014e	c6 45 ed ec	 mov	 BYTE PTR __t$[ebp+1], -20 ; ffffffecH
  00152	eb 04		 jmp	 SHORT $LN1@operator
$LN96@operator:
  00154	c6 45 ec ed	 mov	 BYTE PTR __t$[ebp], -19	; ffffffedH
$LN1@operator:
  00158	6a 02		 push	 2
  0015a	8d 45 ec	 lea	 eax, DWORD PTR __t$[ebp]
  0015d	c6 45 f7 00	 mov	 BYTE PTR __t$[ebp+11], 0
  00161	5a		 pop	 edx
$LL104@operator:
  00162	81 30 ed ec eb
	ea		 xor	 DWORD PTR [eax], -353637139 ; eaebecedH
  00168	83 c0 04	 add	 eax, 4
  0016b	4a		 dec	 edx
  0016c	75 f4		 jne	 SHORT $LL104@operator
  0016e	6a 08		 push	 8
  00170	58		 pop	 eax
$LL101@operator:
  00171	8b c8		 mov	 ecx, eax
  00173	81 e1 03 00 00
	80		 and	 ecx, -2147483645	; 80000003H
  00179	79 05		 jns	 SHORT $LN115@operator
  0017b	49		 dec	 ecx
  0017c	83 c9 fc	 or	 ecx, -4			; fffffffcH
  0017f	41		 inc	 ecx
$LN115@operator:
  00180	b2 ed		 mov	 dl, -19			; ffffffedH
  00182	2a d1		 sub	 dl, cl
  00184	30 54 05 ec	 xor	 BYTE PTR __t$[ebp+eax], dl
  00188	40		 inc	 eax
  00189	83 f8 0b	 cmp	 eax, 11			; 0000000bH
  0018c	7c e3		 jl	 SHORT $LL101@operator
  0018e	8b cf		 mov	 ecx, edi
  00190	8d 75 ec	 lea	 esi, DWORD PTR __t$[ebp]
  00193	ff 15 00 00 00
	00		 call	 DWORD PTR __imp_?c_str@ioHashString@@QBEPBDXZ
$LL111@operator:
  00199	8a 08		 mov	 cl, BYTE PTR [eax]
  0019b	3a 0e		 cmp	 cl, BYTE PTR [esi]
  0019d	75 1a		 jne	 SHORT $LN112@operator
  0019f	84 c9		 test	 cl, cl
  001a1	74 12		 je	 SHORT $LN113@operator
  001a3	8a 48 01	 mov	 cl, BYTE PTR [eax+1]
  001a6	3a 4e 01	 cmp	 cl, BYTE PTR [esi+1]
  001a9	75 0e		 jne	 SHORT $LN112@operator
  001ab	83 c0 02	 add	 eax, 2
  001ae	83 c6 02	 add	 esi, 2
  001b1	84 c9		 test	 cl, cl
  001b3	75 e4		 jne	 SHORT $LL111@operator
$LN113@operator:
  001b5	33 c0		 xor	 eax, eax
  001b7	eb 05		 jmp	 SHORT $LN114@operator
$LN112@operator:
  001b9	1b c0		 sbb	 eax, eax
  001bb	83 d8 ff	 sbb	 eax, -1
$LN114@operator:
  001be	33 c9		 xor	 ecx, ecx
  001c0	85 c0		 test	 eax, eax
  001c2	0f 94 c0	 sete	 al

; 148  : }

  001c5	8b 4d fc	 mov	 ecx, DWORD PTR __$ArrayPad$[ebp]
  001c8	5f		 pop	 edi
  001c9	33 cd		 xor	 ecx, ebp
  001cb	5e		 pop	 esi
  001cc	e8 00 00 00 00	 call	 @__security_check_cookie@4
  001d1	c9		 leave
  001d2	c3		 ret	 0
??$?8$0M@@@YA_NABVioHashString@@AAY0M@$$CBD@Z ENDP	; operator==<12>
_TEXT	ENDS
PUBLIC	__$ArrayPad$
PUBLIC	??$?8$07@@YA_NABVioHashString@@AAY07$$CBD@Z	; operator==<8>
; Function compile flags: /Ogsp
;	COMDAT ??$?8$07@@YA_NABVioHashString@@AAY07$$CBD@Z
_TEXT	SEGMENT
__t$ = -16						; size = 8
__$ArrayPad$ = -4					; size = 4
_lhs$ = 8						; size = 4
_t$ = 12						; size = 4
??$?8$07@@YA_NABVioHashString@@AAY07$$CBD@Z PROC	; operator==<8>, COMDAT

; 146  : {

  00000	55		 push	 ebp
  00001	8b ec		 mov	 ebp, esp
  00003	83 ec 10	 sub	 esp, 16			; 00000010H
  00006	a1 00 00 00 00	 mov	 eax, DWORD PTR ___security_cookie
  0000b	33 c5		 xor	 eax, ebp
  0000d	89 45 fc	 mov	 DWORD PTR __$ArrayPad$[ebp], eax
  00010	8b 45 0c	 mov	 eax, DWORD PTR _t$[ebp]

; 147  : 	_ENCSTR(t, _t); return ( strcmp( lhs.c_str(), _t ) == 0 );

  00013	8a 10		 mov	 dl, BYTE PTR [eax]
  00015	56		 push	 esi
  00016	57		 push	 edi
  00017	8b 7d 08	 mov	 edi, DWORD PTR _lhs$[ebp]
  0001a	84 d2		 test	 dl, dl
  0001c	0f 84 d7 00 00
	00		 je	 $LN96@operator@2
  00022	80 f2 ed	 xor	 dl, -19			; ffffffedH
  00025	88 55 f0	 mov	 BYTE PTR __t$[ebp], dl
  00028	8a 50 01	 mov	 dl, BYTE PTR [eax+1]
  0002b	84 d2		 test	 dl, dl
  0002d	0f 84 c0 00 00
	00		 je	 $LN95@operator@2
  00033	80 f2 ec	 xor	 dl, -20			; ffffffecH
  00036	88 55 f1	 mov	 BYTE PTR __t$[ebp+1], dl
  00039	8a 50 02	 mov	 dl, BYTE PTR [eax+2]
  0003c	84 d2		 test	 dl, dl
  0003e	0f 84 a9 00 00
	00		 je	 $LN94@operator@2
  00044	80 f2 eb	 xor	 dl, -21			; ffffffebH
  00047	88 55 f2	 mov	 BYTE PTR __t$[ebp+2], dl
  0004a	8a 50 03	 mov	 dl, BYTE PTR [eax+3]
  0004d	84 d2		 test	 dl, dl
  0004f	0f 84 92 00 00
	00		 je	 $LN93@operator@2
  00055	80 f2 ea	 xor	 dl, -22			; ffffffeaH
  00058	88 55 f3	 mov	 BYTE PTR __t$[ebp+3], dl
  0005b	8a 50 04	 mov	 dl, BYTE PTR [eax+4]
  0005e	84 d2		 test	 dl, dl
  00060	74 7f		 je	 SHORT $LN92@operator@2
  00062	80 f2 ed	 xor	 dl, -19			; ffffffedH
  00065	88 55 f4	 mov	 BYTE PTR __t$[ebp+4], dl
  00068	8a 50 05	 mov	 dl, BYTE PTR [eax+5]
  0006b	84 d2		 test	 dl, dl
  0006d	74 6c		 je	 SHORT $LN91@operator@2
  0006f	80 f2 ec	 xor	 dl, -20			; ffffffecH
  00072	88 55 f5	 mov	 BYTE PTR __t$[ebp+5], dl
  00075	8a 50 06	 mov	 dl, BYTE PTR [eax+6]
  00078	84 d2		 test	 dl, dl
  0007a	74 59		 je	 SHORT $LN90@operator@2
  0007c	80 f2 eb	 xor	 dl, -21			; ffffffebH
  0007f	80 78 07 00	 cmp	 BYTE PTR [eax+7], 0
  00083	88 55 f6	 mov	 BYTE PTR __t$[ebp+6], dl
  00086	74 75		 je	 SHORT $LN1@operator@2
  00088	8a 50 08	 mov	 dl, BYTE PTR [eax+8]
  0008b	84 d2		 test	 dl, dl
  0008d	74 40		 je	 SHORT $LN88@operator@2
  0008f	80 f2 ed	 xor	 dl, -19			; ffffffedH
  00092	88 55 f8	 mov	 BYTE PTR __t$[ebp+8], dl
  00095	8a 50 09	 mov	 dl, BYTE PTR [eax+9]
  00098	84 d2		 test	 dl, dl
  0009a	74 2d		 je	 SHORT $LN87@operator@2
  0009c	80 f2 ec	 xor	 dl, -20			; ffffffecH
  0009f	88 55 f9	 mov	 BYTE PTR __t$[ebp+9], dl
  000a2	8a 50 0a	 mov	 dl, BYTE PTR [eax+10]
  000a5	84 d2		 test	 dl, dl
  000a7	74 1a		 je	 SHORT $LN86@operator@2
  000a9	8a 40 0b	 mov	 al, BYTE PTR [eax+11]
  000ac	80 f2 eb	 xor	 dl, -21			; ffffffebH
  000af	88 55 fa	 mov	 BYTE PTR __t$[ebp+10], dl
  000b2	84 c0		 test	 al, al
  000b4	74 07		 je	 SHORT $LN85@operator@2
  000b6	34 ea		 xor	 al, -22			; ffffffeaH
  000b8	88 45 fb	 mov	 BYTE PTR __t$[ebp+11], al
  000bb	eb 40		 jmp	 SHORT $LN1@operator@2
$LN85@operator@2:
  000bd	c6 45 fb ea	 mov	 BYTE PTR __t$[ebp+11], -22 ; ffffffeaH
  000c1	eb 3a		 jmp	 SHORT $LN1@operator@2
$LN86@operator@2:
  000c3	c6 45 fa eb	 mov	 BYTE PTR __t$[ebp+10], -21 ; ffffffebH
  000c7	eb 34		 jmp	 SHORT $LN1@operator@2
$LN87@operator@2:
  000c9	c6 45 f9 ec	 mov	 BYTE PTR __t$[ebp+9], -20 ; ffffffecH
  000cd	eb 2e		 jmp	 SHORT $LN1@operator@2
$LN88@operator@2:
  000cf	c6 45 f8 ed	 mov	 BYTE PTR __t$[ebp+8], -19 ; ffffffedH
  000d3	eb 28		 jmp	 SHORT $LN1@operator@2
$LN90@operator@2:
  000d5	c6 45 f6 eb	 mov	 BYTE PTR __t$[ebp+6], -21 ; ffffffebH
  000d9	eb 22		 jmp	 SHORT $LN1@operator@2
$LN91@operator@2:
  000db	c6 45 f5 ec	 mov	 BYTE PTR __t$[ebp+5], -20 ; ffffffecH
  000df	eb 1c		 jmp	 SHORT $LN1@operator@2
$LN92@operator@2:
  000e1	c6 45 f4 ed	 mov	 BYTE PTR __t$[ebp+4], -19 ; ffffffedH
  000e5	eb 16		 jmp	 SHORT $LN1@operator@2
$LN93@operator@2:
  000e7	c6 45 f3 ea	 mov	 BYTE PTR __t$[ebp+3], -22 ; ffffffeaH
  000eb	eb 10		 jmp	 SHORT $LN1@operator@2
$LN94@operator@2:
  000ed	c6 45 f2 eb	 mov	 BYTE PTR __t$[ebp+2], -21 ; ffffffebH
  000f1	eb 0a		 jmp	 SHORT $LN1@operator@2
$LN95@operator@2:
  000f3	c6 45 f1 ec	 mov	 BYTE PTR __t$[ebp+1], -20 ; ffffffecH
  000f7	eb 04		 jmp	 SHORT $LN1@operator@2
$LN96@operator@2:
  000f9	c6 45 f0 ed	 mov	 BYTE PTR __t$[ebp], -19	; ffffffedH
$LN1@operator@2:
  000fd	81 75 f0 ed ec
	eb ea		 xor	 DWORD PTR __t$[ebp], -353637139 ; eaebecedH
  00104	6a 04		 push	 4
  00106	c6 45 f7 00	 mov	 BYTE PTR __t$[ebp+7], 0
  0010a	58		 pop	 eax
$LL101@operator@2:
  0010b	8b c8		 mov	 ecx, eax
  0010d	81 e1 03 00 00
	80		 and	 ecx, -2147483645	; 80000003H
  00113	79 05		 jns	 SHORT $LN115@operator@2
  00115	49		 dec	 ecx
  00116	83 c9 fc	 or	 ecx, -4			; fffffffcH
  00119	41		 inc	 ecx
$LN115@operator@2:
  0011a	b2 ed		 mov	 dl, -19			; ffffffedH
  0011c	2a d1		 sub	 dl, cl
  0011e	30 54 05 f0	 xor	 BYTE PTR __t$[ebp+eax], dl
  00122	40		 inc	 eax
  00123	83 f8 07	 cmp	 eax, 7
  00126	7c e3		 jl	 SHORT $LL101@operator@2
  00128	8b cf		 mov	 ecx, edi
  0012a	8d 75 f0	 lea	 esi, DWORD PTR __t$[ebp]
  0012d	ff 15 00 00 00
	00		 call	 DWORD PTR __imp_?c_str@ioHashString@@QBEPBDXZ
$LL111@operator@2:
  00133	8a 08		 mov	 cl, BYTE PTR [eax]
  00135	3a 0e		 cmp	 cl, BYTE PTR [esi]
  00137	75 1a		 jne	 SHORT $LN112@operator@2
  00139	84 c9		 test	 cl, cl
  0013b	74 12		 je	 SHORT $LN113@operator@2
  0013d	8a 48 01	 mov	 cl, BYTE PTR [eax+1]
  00140	3a 4e 01	 cmp	 cl, BYTE PTR [esi+1]
  00143	75 0e		 jne	 SHORT $LN112@operator@2
  00145	83 c0 02	 add	 eax, 2
  00148	83 c6 02	 add	 esi, 2
  0014b	84 c9		 test	 cl, cl
  0014d	75 e4		 jne	 SHORT $LL111@operator@2
$LN113@operator@2:
  0014f	33 c0		 xor	 eax, eax
  00151	eb 05		 jmp	 SHORT $LN114@operator@2
$LN112@operator@2:
  00153	1b c0		 sbb	 eax, eax
  00155	83 d8 ff	 sbb	 eax, -1
$LN114@operator@2:
  00158	33 c9		 xor	 ecx, ecx
  0015a	85 c0		 test	 eax, eax
  0015c	0f 94 c0	 sete	 al

; 148  : }

  0015f	8b 4d fc	 mov	 ecx, DWORD PTR __$ArrayPad$[ebp]
  00162	5f		 pop	 edi
  00163	33 cd		 xor	 ecx, ebp
  00165	5e		 pop	 esi
  00166	e8 00 00 00 00	 call	 @__security_check_cookie@4
  0016b	c9		 leave
  0016c	c3		 ret	 0
??$?8$07@@YA_NABVioHashString@@AAY07$$CBD@Z ENDP	; operator==<8>
_TEXT	ENDS
PUBLIC	?IsEmpty@ioComplexStringPrinter@@QBE_NXZ	; ioComplexStringPrinter::IsEmpty
; Function compile flags: /Ogsp
; File d:\lost saga for developer\youtube\tutorial\source\src\lsclient\iocomplexstringprinter.h
;	COMDAT ?IsEmpty@ioComplexStringPrinter@@QBE_NXZ
_TEXT	SEGMENT
?IsEmpty@ioComplexStringPrinter@@QBE_NXZ PROC		; ioComplexStringPrinter::IsEmpty, COMDAT
; _this$ = ecx

; 124  : 	inline bool IsEmpty() const { return m_vPieceList.empty(); }

  00000	8b 41 0c	 mov	 eax, DWORD PTR [ecx+12]
  00003	2b 41 10	 sub	 eax, DWORD PTR [ecx+16]
  00006	f7 d8		 neg	 eax
  00008	1b c0		 sbb	 eax, eax
  0000a	40		 inc	 eax
  0000b	c3		 ret	 0
?IsEmpty@ioComplexStringPrinter@@QBE_NXZ ENDP		; ioComplexStringPrinter::IsEmpty
_TEXT	ENDS
PUBLIC	__real@3f19999a
PUBLIC	??_C@_0CG@JGCHEEHN@GrowthDownDoneWnd?3?3ShowGrowthDow@ ; `string'
PUBLIC	??_C@_00CNPNBAHC@?$AA@				; `string'
PUBLIC	?ShowGrowthDownDone@GrowthDownDoneWnd@@QAEXHH@Z	; GrowthDownDoneWnd::ShowGrowthDownDone
EXTRN	__imp_??1ioHashString@@QAE@XZ:PROC
EXTRN	?AddTextPiece@ioComplexStringPrinter@@QAAXMPBDZZ:PROC ; ioComplexStringPrinter::AddTextPiece
EXTRN	?AddTextPiece@ioComplexStringPrinter@@QAEXMPBDH@Z:PROC ; ioComplexStringPrinter::AddTextPiece
EXTRN	?AddTextPiece@ioComplexStringPrinter@@QAEXMPBD0@Z:PROC ; ioComplexStringPrinter::AddTextPiece
EXTRN	__imp_?GetString@ioStringManager@@QAEPADPBD0HW4FileNamePrefix@1@@Z:PROC
EXTRN	__imp_?GetSingleton@ioStringManager@@SAAAV1@XZ:PROC
EXTRN	?SetTextColor@ioComplexStringPrinter@@QAEXK@Z:PROC ; ioComplexStringPrinter::SetTextColor
EXTRN	?SetBkColor@ioComplexStringPrinter@@QAEXHHH@Z:PROC ; ioComplexStringPrinter::SetBkColor
EXTRN	?SetTextStyle@ioComplexStringPrinter@@QAEXW4TextStyle@@@Z:PROC ; ioComplexStringPrinter::SetTextStyle
EXTRN	__imp_??0ioHashString@@QAE@PBD@Z:PROC
EXTRN	?GetClassNameA@ioMyInfo@@QAEPBDHH@Z:PROC	; ioMyInfo::GetClassNameA
EXTRN	?GetCharPowerUpGradeByClassType@ioMyInfo@@QAE?AW4PowerUpGradeType@@H@Z:PROC ; ioMyInfo::GetCharPowerUpGradeByClassType
EXTRN	__imp_?CreateImageByFullName@ioUIImageSetManager@@QAEPAVioUIRenderImage@@ABVioHashString@@_N@Z:PROC
EXTRN	__imp_?GetSingleton@ioUIImageSetManager@@SAAAV1@XZ:PROC
EXTRN	?GetMySoldierIconName@ioMyInfo@@QAEAAVioHashString@@H@Z:PROC ; ioMyInfo::GetMySoldierIconName
;	COMDAT __real@3f19999a
; File d:\lost saga for developer\youtube\tutorial\source\src\lsclient\gui\growthdowndonewnd.cpp
CONST	SEGMENT
__real@3f19999a DD 03f19999ar			; 0.6
CONST	ENDS
;	COMDAT ??_C@_0CG@JGCHEEHN@GrowthDownDoneWnd?3?3ShowGrowthDow@
CONST	SEGMENT
??_C@_0CG@JGCHEEHN@GrowthDownDoneWnd?3?3ShowGrowthDow@ DB 'GrowthDownDone'
	DB	'Wnd::ShowGrowthDownDone', 00H		; `string'
CONST	ENDS
;	COMDAT ??_C@_00CNPNBAHC@?$AA@
CONST	SEGMENT
??_C@_00CNPNBAHC@?$AA@ DB 00H				; `string'
CONST	ENDS
;	COMDAT xdata$x
xdata$x	SEGMENT
__unwindtable$?ShowGrowthDownDone@GrowthDownDoneWnd@@QAEXHH@Z DD 0ffffffffH
	DD	FLAT:__unwindfunclet$?ShowGrowthDownDone@GrowthDownDoneWnd@@QAEXHH@Z$0
__ehfuncinfo$?ShowGrowthDownDone@GrowthDownDoneWnd@@QAEXHH@Z DD 019930522H
	DD	01H
	DD	FLAT:__unwindtable$?ShowGrowthDownDone@GrowthDownDoneWnd@@QAEXHH@Z
	DD	2 DUP(00H)
	DD	2 DUP(00H)
	DD	00H
	DD	01H
; Function compile flags: /Ogsp
xdata$x	ENDS
;	COMDAT ?ShowGrowthDownDone@GrowthDownDoneWnd@@QAEXHH@Z
_TEXT	SEGMENT
_szName$ = -28						; size = 16
__$EHRec$ = -12						; size = 12
_iClassType$ = 8					; size = 4
_iReturnPoint$ = 12					; size = 4
?ShowGrowthDownDone@GrowthDownDoneWnd@@QAEXHH@Z PROC	; GrowthDownDoneWnd::ShowGrowthDownDone, COMDAT
; _this$ = ecx

; 55   : {

  00000	6a 10		 push	 16			; 00000010H
  00002	b8 00 00 00 00	 mov	 eax, __ehhandler$?ShowGrowthDownDone@GrowthDownDoneWnd@@QAEXHH@Z
  00007	e8 00 00 00 00	 call	 __EH_prolog3
  0000c	8b f1		 mov	 esi, ecx

; 56   : 	m_iClassType = iClassType;

  0000e	8b 45 08	 mov	 eax, DWORD PTR _iClassType$[ebp]

; 57   : 	m_iReturnPoint = iReturnPoint;
; 58   : 
; 59   : 	SAFEDELETE(m_pIcon);

  00011	8b 8e 68 01 00
	00		 mov	 ecx, DWORD PTR [esi+360]
  00017	89 86 60 01 00
	00		 mov	 DWORD PTR [esi+352], eax
  0001d	8b 45 0c	 mov	 eax, DWORD PTR _iReturnPoint$[ebp]
  00020	33 ff		 xor	 edi, edi
  00022	89 86 64 01 00
	00		 mov	 DWORD PTR [esi+356], eax
  00028	3b cf		 cmp	 ecx, edi
  0002a	74 0d		 je	 SHORT $LN1@ShowGrowth
  0002c	8b 01		 mov	 eax, DWORD PTR [ecx]
  0002e	6a 01		 push	 1
  00030	ff 50 40	 call	 DWORD PTR [eax+64]
  00033	89 be 68 01 00
	00		 mov	 DWORD PTR [esi+360], edi
$LN1@ShowGrowth:

; 60   : 	m_pIcon = g_UIImageSetMgr.CreateImageByFullName( g_MyInfo.GetMySoldierIconName( m_iClassType ) );

  00039	57		 push	 edi
  0003a	ff b6 60 01 00
	00		 push	 DWORD PTR [esi+352]
  00040	e8 00 00 00 00	 call	 ?GetSingleton@ioMyInfo@@SAAAV1@XZ ; ioMyInfo::GetSingleton
  00045	8b c8		 mov	 ecx, eax
  00047	e8 00 00 00 00	 call	 ?GetMySoldierIconName@ioMyInfo@@QAEAAVioHashString@@H@Z ; ioMyInfo::GetMySoldierIconName
  0004c	50		 push	 eax
  0004d	ff 15 00 00 00
	00		 call	 DWORD PTR __imp_?GetSingleton@ioUIImageSetManager@@SAAAV1@XZ
  00053	8b c8		 mov	 ecx, eax
  00055	ff 15 00 00 00
	00		 call	 DWORD PTR __imp_?CreateImageByFullName@ioUIImageSetManager@@QAEPAVioUIRenderImage@@ABVioHashString@@_N@Z

; 61   : 
; 62   : 	ReBatchButton();

  0005b	8b ce		 mov	 ecx, esi
  0005d	89 86 68 01 00
	00		 mov	 DWORD PTR [esi+360], eax
  00063	e8 00 00 00 00	 call	 ?ReBatchButton@GrowthDownDoneWnd@@IAEXXZ ; GrowthDownDoneWnd::ReBatchButton

; 63   : 
; 64   : 	m_Desc[0].ClearList();

  00068	8d 8e 74 01 00
	00		 lea	 ecx, DWORD PTR [esi+372]
  0006e	e8 00 00 00 00	 call	 ?ClearList@ioComplexStringPrinter@@QAEXXZ ; ioComplexStringPrinter::ClearList

; 65   : 	m_Desc[1].ClearList();

  00073	8d 8e 94 01 00
	00		 lea	 ecx, DWORD PTR [esi+404]
  00079	e8 00 00 00 00	 call	 ?ClearList@ioComplexStringPrinter@@QAEXXZ ; ioComplexStringPrinter::ClearList

; 66   : 
; 67   : 	ioHashString szName = g_MyInfo.GetClassName( m_iClassType, g_MyInfo.GetCharPowerUpGradeByClassType( m_iClassType ) );

  0007e	ff b6 60 01 00
	00		 push	 DWORD PTR [esi+352]
  00084	e8 00 00 00 00	 call	 ?GetSingleton@ioMyInfo@@SAAAV1@XZ ; ioMyInfo::GetSingleton
  00089	8b c8		 mov	 ecx, eax
  0008b	e8 00 00 00 00	 call	 ?GetCharPowerUpGradeByClassType@ioMyInfo@@QAE?AW4PowerUpGradeType@@H@Z ; ioMyInfo::GetCharPowerUpGradeByClassType
  00090	50		 push	 eax
  00091	ff b6 60 01 00
	00		 push	 DWORD PTR [esi+352]
  00097	e8 00 00 00 00	 call	 ?GetSingleton@ioMyInfo@@SAAAV1@XZ ; ioMyInfo::GetSingleton
  0009c	8b c8		 mov	 ecx, eax
  0009e	e8 00 00 00 00	 call	 ?GetClassNameA@ioMyInfo@@QAEPBDHH@Z ; ioMyInfo::GetClassNameA
  000a3	50		 push	 eax
  000a4	8d 4d e4	 lea	 ecx, DWORD PTR _szName$[ebp]
  000a7	ff 15 00 00 00
	00		 call	 DWORD PTR __imp_??0ioHashString@@QAE@PBD@Z

; 68   : 
; 69   : 	m_Desc[0].SetTextStyle( TS_NORMAL );

  000ad	57		 push	 edi
  000ae	8d 8e 74 01 00
	00		 lea	 ecx, DWORD PTR [esi+372]
  000b4	89 7d fc	 mov	 DWORD PTR __$EHRec$[ebp+8], edi
  000b7	e8 00 00 00 00	 call	 ?SetTextStyle@ioComplexStringPrinter@@QAEXW4TextStyle@@@Z ; ioComplexStringPrinter::SetTextStyle

; 70   : 	m_Desc[0].SetBkColor( 0, 0, 0 );	

  000bc	57		 push	 edi
  000bd	57		 push	 edi
  000be	57		 push	 edi
  000bf	8d 8e 74 01 00
	00		 lea	 ecx, DWORD PTR [esi+372]
  000c5	e8 00 00 00 00	 call	 ?SetBkColor@ioComplexStringPrinter@@QAEXHHH@Z ; ioComplexStringPrinter::SetBkColor

; 71   : 	m_Desc[0].SetTextColor( TCT_DEFAULT_DARKGRAY );

  000ca	68 3a 3a 3a ff	 push	 -12961222		; ff3a3a3aH
  000cf	8d 8e 74 01 00
	00		 lea	 ecx, DWORD PTR [esi+372]
  000d5	e8 00 00 00 00	 call	 ?SetTextColor@ioComplexStringPrinter@@QAEXK@Z ; ioComplexStringPrinter::SetTextColor

; 72   : 	m_Desc[0].AddTextPiece( FONT_SIZE_12, STR(1), szName.c_str() );

  000da	8d 4d e4	 lea	 ecx, DWORD PTR _szName$[ebp]
  000dd	ff 15 00 00 00
	00		 call	 DWORD PTR __imp_?c_str@ioHashString@@QBEPBDXZ
  000e3	8b 1d 00 00 00
	00		 mov	 ebx, DWORD PTR __imp_?GetSingleton@ioStringManager@@SAAAV1@XZ
  000e9	50		 push	 eax
  000ea	57		 push	 edi
  000eb	6a 01		 push	 1
  000ed	68 00 00 00 00	 push	 OFFSET ??_C@_00CNPNBAHC@?$AA@
  000f2	68 00 00 00 00	 push	 OFFSET ??_C@_0CG@JGCHEEHN@GrowthDownDoneWnd?3?3ShowGrowthDow@
  000f7	ff d3		 call	 ebx
  000f9	8b c8		 mov	 ecx, eax
  000fb	ff 15 00 00 00
	00		 call	 DWORD PTR __imp_?GetString@ioStringManager@@QAEPADPBD0HW4FileNamePrefix@1@@Z
  00101	f3 0f 10 05 00
	00 00 00	 movss	 xmm0, DWORD PTR __real@3f19999a
  00109	50		 push	 eax
  0010a	51		 push	 ecx
  0010b	8d 8e 74 01 00
	00		 lea	 ecx, DWORD PTR [esi+372]
  00111	f3 0f 11 04 24	 movss	 DWORD PTR [esp], xmm0
  00116	e8 00 00 00 00	 call	 ?AddTextPiece@ioComplexStringPrinter@@QAEXMPBD0@Z ; ioComplexStringPrinter::AddTextPiece

; 73   : 	m_Desc[0].SetTextColor( TCT_DEFAULT_RED );

  0011b	68 00 16 b9 ff	 push	 -4647424		; ffb91600H
  00120	8d 8e 74 01 00
	00		 lea	 ecx, DWORD PTR [esi+372]
  00126	e8 00 00 00 00	 call	 ?SetTextColor@ioComplexStringPrinter@@QAEXK@Z ; ioComplexStringPrinter::SetTextColor

; 74   : 	m_Desc[0].AddTextPiece( FONT_SIZE_12, STR(2), m_iReturnPoint );

  0012b	ff b6 64 01 00
	00		 push	 DWORD PTR [esi+356]
  00131	57		 push	 edi
  00132	6a 02		 push	 2
  00134	68 00 00 00 00	 push	 OFFSET ??_C@_00CNPNBAHC@?$AA@
  00139	68 00 00 00 00	 push	 OFFSET ??_C@_0CG@JGCHEEHN@GrowthDownDoneWnd?3?3ShowGrowthDow@
  0013e	ff d3		 call	 ebx
  00140	8b c8		 mov	 ecx, eax
  00142	ff 15 00 00 00
	00		 call	 DWORD PTR __imp_?GetString@ioStringManager@@QAEPADPBD0HW4FileNamePrefix@1@@Z
  00148	f3 0f 10 05 00
	00 00 00	 movss	 xmm0, DWORD PTR __real@3f19999a
  00150	50		 push	 eax
  00151	51		 push	 ecx
  00152	8d 8e 74 01 00
	00		 lea	 ecx, DWORD PTR [esi+372]
  00158	f3 0f 11 04 24	 movss	 DWORD PTR [esp], xmm0
  0015d	e8 00 00 00 00	 call	 ?AddTextPiece@ioComplexStringPrinter@@QAEXMPBDH@Z ; ioComplexStringPrinter::AddTextPiece

; 75   : 
; 76   : 	m_Desc[1].SetTextStyle( TS_NORMAL );

  00162	57		 push	 edi
  00163	8d 8e 94 01 00
	00		 lea	 ecx, DWORD PTR [esi+404]
  00169	e8 00 00 00 00	 call	 ?SetTextStyle@ioComplexStringPrinter@@QAEXW4TextStyle@@@Z ; ioComplexStringPrinter::SetTextStyle

; 77   : 	m_Desc[1].SetBkColor( 0, 0, 0 );

  0016e	57		 push	 edi
  0016f	57		 push	 edi
  00170	57		 push	 edi
  00171	8d 8e 94 01 00
	00		 lea	 ecx, DWORD PTR [esi+404]
  00177	e8 00 00 00 00	 call	 ?SetBkColor@ioComplexStringPrinter@@QAEXHHH@Z ; ioComplexStringPrinter::SetBkColor

; 78   : 	m_Desc[1].SetTextColor( TCT_DEFAULT_DARKGRAY );

  0017c	68 3a 3a 3a ff	 push	 -12961222		; ff3a3a3aH
  00181	8d 8e 94 01 00
	00		 lea	 ecx, DWORD PTR [esi+404]
  00187	e8 00 00 00 00	 call	 ?SetTextColor@ioComplexStringPrinter@@QAEXK@Z ; ioComplexStringPrinter::SetTextColor

; 79   : 	m_Desc[1].AddTextPiece( FONT_SIZE_12, STR(3) );

  0018c	57		 push	 edi
  0018d	6a 03		 push	 3
  0018f	68 00 00 00 00	 push	 OFFSET ??_C@_00CNPNBAHC@?$AA@
  00194	68 00 00 00 00	 push	 OFFSET ??_C@_0CG@JGCHEEHN@GrowthDownDoneWnd?3?3ShowGrowthDow@
  00199	ff d3		 call	 ebx
  0019b	8b c8		 mov	 ecx, eax
  0019d	ff 15 00 00 00
	00		 call	 DWORD PTR __imp_?GetString@ioStringManager@@QAEPADPBD0HW4FileNamePrefix@1@@Z
  001a3	f3 0f 10 05 00
	00 00 00	 movss	 xmm0, DWORD PTR __real@3f19999a
  001ab	50		 push	 eax
  001ac	51		 push	 ecx
  001ad	8d 86 94 01 00
	00		 lea	 eax, DWORD PTR [esi+404]
  001b3	f3 0f 11 04 24	 movss	 DWORD PTR [esp], xmm0
  001b8	50		 push	 eax
  001b9	e8 00 00 00 00	 call	 ?AddTextPiece@ioComplexStringPrinter@@QAAXMPBDZZ ; ioComplexStringPrinter::AddTextPiece
  001be	83 c4 0c	 add	 esp, 12			; 0000000cH

; 80   : 
; 81   : 
; 82   : 	ShowWnd();

  001c1	8b ce		 mov	 ecx, esi
  001c3	ff 15 00 00 00
	00		 call	 DWORD PTR __imp_?ShowWnd@ioWnd@@QAEXXZ

; 83   : }

  001c9	83 4d fc ff	 or	 DWORD PTR __$EHRec$[ebp+8], -1
  001cd	8d 4d e4	 lea	 ecx, DWORD PTR _szName$[ebp]
  001d0	ff 15 00 00 00
	00		 call	 DWORD PTR __imp_??1ioHashString@@QAE@XZ
  001d6	e8 00 00 00 00	 call	 __EH_epilog3
  001db	c2 08 00	 ret	 8
_TEXT	ENDS
;	COMDAT text$x
text$x	SEGMENT
__unwindfunclet$?ShowGrowthDownDone@GrowthDownDoneWnd@@QAEXHH@Z$0:
  00000	8d 4d e4	 lea	 ecx, DWORD PTR _szName$[ebp]
  00003	ff 25 00 00 00
	00		 jmp	 DWORD PTR __imp_??1ioHashString@@QAE@XZ
__ehhandler$?ShowGrowthDownDone@GrowthDownDoneWnd@@QAEXHH@Z:
  00009	8b 54 24 08	 mov	 edx, DWORD PTR [esp+8]
  0000d	8d 42 0c	 lea	 eax, DWORD PTR [edx+12]
  00010	8b 4a e0	 mov	 ecx, DWORD PTR [edx-32]
  00013	33 c8		 xor	 ecx, eax
  00015	e8 00 00 00 00	 call	 @__security_check_cookie@4
  0001a	b8 00 00 00 00	 mov	 eax, OFFSET __ehfuncinfo$?ShowGrowthDownDone@GrowthDownDoneWnd@@QAEXHH@Z
  0001f	e9 00 00 00 00	 jmp	 ___CxxFrameHandler3
text$x	ENDS
?ShowGrowthDownDone@GrowthDownDoneWnd@@QAEXHH@Z ENDP	; GrowthDownDoneWnd::ShowGrowthDownDone
PUBLIC	_pImage$GSCopy$
PUBLIC	_this$GSCopy$
PUBLIC	_szType$GSCopy$
PUBLIC	__$ArrayPad$
EXTRN	__imp_?AddRenderImage@ioWnd@@UAEXABVioHashString@@PAVioUIRenderImage@@@Z:PROC
; Function compile flags: /Ogsp
;	COMDAT ?AddRenderImage@GrowthDownDoneWnd@@UAEXABVioHashString@@PAVioUIRenderImage@@@Z
_TEXT	SEGMENT
_pImage$GSCopy$ = -32					; size = 4
_this$GSCopy$ = -28					; size = 4
_szType$GSCopy$ = -24					; size = 4
__t$506401 = -20					; size = 12
__t$506567 = -16					; size = 8
__$ArrayPad$ = -4					; size = 4
_szType$ = 8						; size = 4
_pImage$ = 12						; size = 4
?AddRenderImage@GrowthDownDoneWnd@@UAEXABVioHashString@@PAVioUIRenderImage@@@Z PROC ; GrowthDownDoneWnd::AddRenderImage, COMDAT
; _this$ = ecx

; 86   : {

  00000	55		 push	 ebp
  00001	8b ec		 mov	 ebp, esp
  00003	83 ec 20	 sub	 esp, 32			; 00000020H
  00006	a1 00 00 00 00	 mov	 eax, DWORD PTR ___security_cookie
  0000b	33 c5		 xor	 eax, ebp
  0000d	89 45 fc	 mov	 DWORD PTR __$ArrayPad$[ebp], eax
  00010	8b 45 08	 mov	 eax, DWORD PTR _szType$[ebp]
  00013	56		 push	 esi
  00014	57		 push	 edi

; 93   : 	{
; 94   : 		SAFEDELETE( m_pPointImg );

  00015	89 45 e8	 mov	 DWORD PTR _szType$GSCopy$[ebp], eax
  00018	8b 45 0c	 mov	 eax, DWORD PTR _pImage$[ebp]
  0001b	6a 02		 push	 2
  0001d	89 4d e4	 mov	 DWORD PTR _this$GSCopy$[ebp], ecx
  00020	89 45 e0	 mov	 DWORD PTR _pImage$GSCopy$[ebp], eax
  00023	c7 45 ec 8f 8d
	88 81		 mov	 DWORD PTR __t$506401[ebp], -2121757297 ; 81888d8fH
  0002a	c7 45 f0 b2 89
	8d 8c		 mov	 DWORD PTR __t$506401[ebp+4], -1936881230 ; 8c8d89b2H
  00031	8d 45 ec	 lea	 eax, DWORD PTR __t$506401[ebp]
  00034	c7 45 f4 88 8f
	9f 00		 mov	 DWORD PTR __t$506401[ebp+8], 10456968 ; 009f8f88H
  0003b	59		 pop	 ecx
  0003c	bf ed ec eb ea	 mov	 edi, -353637139		; eaebecedH
$LL116@AddRenderI:

; 87   : 	if( szType == "back_effect" )

  00041	31 38		 xor	 DWORD PTR [eax], edi
  00043	83 c0 04	 add	 eax, 4
  00046	49		 dec	 ecx
  00047	75 f8		 jne	 SHORT $LL116@AddRenderI
  00049	6a 08		 push	 8
  0004b	58		 pop	 eax
$LL113@AddRenderI:
  0004c	8b c8		 mov	 ecx, eax
  0004e	81 e1 03 00 00
	80		 and	 ecx, -2147483645	; 80000003H
  00054	79 05		 jns	 SHORT $LN242@AddRenderI
  00056	49		 dec	 ecx
  00057	83 c9 fc	 or	 ecx, -4			; fffffffcH
  0005a	41		 inc	 ecx
$LN242@AddRenderI:
  0005b	b2 ed		 mov	 dl, -19			; ffffffedH
  0005d	2a d1		 sub	 dl, cl
  0005f	30 54 05 ec	 xor	 BYTE PTR __t$506401[ebp+eax], dl
  00063	40		 inc	 eax
  00064	83 f8 0b	 cmp	 eax, 11			; 0000000bH
  00067	7c e3		 jl	 SHORT $LL113@AddRenderI
  00069	8b 4d e8	 mov	 ecx, DWORD PTR _szType$GSCopy$[ebp]
  0006c	8d 75 ec	 lea	 esi, DWORD PTR __t$506401[ebp]
  0006f	ff 15 00 00 00
	00		 call	 DWORD PTR __imp_?c_str@ioHashString@@QBEPBDXZ
$LL234@AddRenderI:
  00075	8a 08		 mov	 cl, BYTE PTR [eax]
  00077	3a 0e		 cmp	 cl, BYTE PTR [esi]
  00079	75 1a		 jne	 SHORT $LN235@AddRenderI
  0007b	84 c9		 test	 cl, cl
  0007d	74 12		 je	 SHORT $LN236@AddRenderI
  0007f	8a 48 01	 mov	 cl, BYTE PTR [eax+1]
  00082	3a 4e 01	 cmp	 cl, BYTE PTR [esi+1]
  00085	75 0e		 jne	 SHORT $LN235@AddRenderI
  00087	83 c0 02	 add	 eax, 2
  0008a	83 c6 02	 add	 esi, 2
  0008d	84 c9		 test	 cl, cl
  0008f	75 e4		 jne	 SHORT $LL234@AddRenderI
$LN236@AddRenderI:
  00091	33 c0		 xor	 eax, eax
  00093	eb 05		 jmp	 SHORT $LN237@AddRenderI
$LN235@AddRenderI:
  00095	1b c0		 sbb	 eax, eax
  00097	83 d8 ff	 sbb	 eax, -1
$LN237@AddRenderI:
  0009a	85 c0		 test	 eax, eax
  0009c	75 29		 jne	 SHORT $LN233@AddRenderI

; 88   : 	{
; 89   : 		SAFEDELETE( m_pBackEffect );

  0009e	8b 75 e4	 mov	 esi, DWORD PTR _this$GSCopy$[ebp]
  000a1	8b 8e 6c 01 00
	00		 mov	 ecx, DWORD PTR [esi+364]
  000a7	85 c9		 test	 ecx, ecx
  000a9	74 0e		 je	 SHORT $LN5@AddRenderI
  000ab	8b 01		 mov	 eax, DWORD PTR [ecx]
  000ad	6a 01		 push	 1
  000af	ff 50 40	 call	 DWORD PTR [eax+64]
  000b2	83 a6 6c 01 00
	00 00		 and	 DWORD PTR [esi+364], 0
$LN5@AddRenderI:

; 90   : 		m_pBackEffect = pImage;

  000b9	8b 45 e0	 mov	 eax, DWORD PTR _pImage$GSCopy$[ebp]
  000bc	89 86 6c 01 00
	00		 mov	 DWORD PTR [esi+364], eax
  000c2	e9 9b 00 00 00	 jmp	 $LN1@AddRenderI
$LN233@AddRenderI:

; 91   : 	}
; 92   : 	else if( szType == "P_Image" )

  000c7	6a 04		 push	 4
  000c9	c7 45 f0 bd b3
	a2 87		 mov	 DWORD PTR __t$506567[ebp], -2019380291 ; 87a2b3bdH
  000d0	31 7d f0	 xor	 DWORD PTR __t$506567[ebp], edi
  000d3	c7 45 f4 8c 8b
	8e 00		 mov	 DWORD PTR __t$506567[ebp+4], 9341836 ; 008e8b8cH
  000da	58		 pop	 eax
$LL219@AddRenderI:
  000db	8b c8		 mov	 ecx, eax
  000dd	81 e1 03 00 00
	80		 and	 ecx, -2147483645	; 80000003H
  000e3	79 05		 jns	 SHORT $LN243@AddRenderI
  000e5	49		 dec	 ecx
  000e6	83 c9 fc	 or	 ecx, -4			; fffffffcH
  000e9	41		 inc	 ecx
$LN243@AddRenderI:
  000ea	b2 ed		 mov	 dl, -19			; ffffffedH
  000ec	2a d1		 sub	 dl, cl
  000ee	30 54 05 f0	 xor	 BYTE PTR __t$506567[ebp+eax], dl
  000f2	40		 inc	 eax
  000f3	83 f8 07	 cmp	 eax, 7
  000f6	7c e3		 jl	 SHORT $LL219@AddRenderI
  000f8	8b 4d e8	 mov	 ecx, DWORD PTR _szType$GSCopy$[ebp]
  000fb	8d 75 f0	 lea	 esi, DWORD PTR __t$506567[ebp]
  000fe	ff 15 00 00 00
	00		 call	 DWORD PTR __imp_?c_str@ioHashString@@QBEPBDXZ
$LL238@AddRenderI:
  00104	8a 08		 mov	 cl, BYTE PTR [eax]
  00106	3a 0e		 cmp	 cl, BYTE PTR [esi]
  00108	75 1a		 jne	 SHORT $LN239@AddRenderI
  0010a	84 c9		 test	 cl, cl
  0010c	74 12		 je	 SHORT $LN240@AddRenderI
  0010e	8a 48 01	 mov	 cl, BYTE PTR [eax+1]
  00111	3a 4e 01	 cmp	 cl, BYTE PTR [esi+1]
  00114	75 0e		 jne	 SHORT $LN239@AddRenderI
  00116	83 c0 02	 add	 eax, 2
  00119	83 c6 02	 add	 esi, 2
  0011c	84 c9		 test	 cl, cl
  0011e	75 e4		 jne	 SHORT $LL238@AddRenderI
$LN240@AddRenderI:
  00120	33 c0		 xor	 eax, eax
  00122	eb 05		 jmp	 SHORT $LN241@AddRenderI
$LN239@AddRenderI:
  00124	1b c0		 sbb	 eax, eax
  00126	83 d8 ff	 sbb	 eax, -1
$LN241@AddRenderI:
  00129	85 c0		 test	 eax, eax
  0012b	75 26		 jne	 SHORT $LN3@AddRenderI

; 93   : 	{
; 94   : 		SAFEDELETE( m_pPointImg );

  0012d	8b 75 e4	 mov	 esi, DWORD PTR _this$GSCopy$[ebp]
  00130	8b 8e 70 01 00
	00		 mov	 ecx, DWORD PTR [esi+368]
  00136	85 c9		 test	 ecx, ecx
  00138	74 0e		 je	 SHORT $LN2@AddRenderI
  0013a	8b 01		 mov	 eax, DWORD PTR [ecx]
  0013c	6a 01		 push	 1
  0013e	ff 50 40	 call	 DWORD PTR [eax+64]
  00141	83 a6 70 01 00
	00 00		 and	 DWORD PTR [esi+368], 0
$LN2@AddRenderI:

; 95   : 		m_pPointImg = pImage;

  00148	8b 45 e0	 mov	 eax, DWORD PTR _pImage$GSCopy$[ebp]
  0014b	89 86 70 01 00
	00		 mov	 DWORD PTR [esi+368], eax

; 96   : 	}
; 97   : 	else

  00151	eb 0f		 jmp	 SHORT $LN1@AddRenderI
$LN3@AddRenderI:

; 98   : 		ioWnd::AddRenderImage( szType, pImage );

  00153	ff 75 e0	 push	 DWORD PTR _pImage$GSCopy$[ebp]
  00156	8b 4d e4	 mov	 ecx, DWORD PTR _this$GSCopy$[ebp]
  00159	ff 75 e8	 push	 DWORD PTR _szType$GSCopy$[ebp]
  0015c	ff 15 00 00 00
	00		 call	 DWORD PTR __imp_?AddRenderImage@ioWnd@@UAEXABVioHashString@@PAVioUIRenderImage@@@Z
$LN1@AddRenderI:

; 99   : }

  00162	8b 4d fc	 mov	 ecx, DWORD PTR __$ArrayPad$[ebp]
  00165	5f		 pop	 edi
  00166	33 cd		 xor	 ecx, ebp
  00168	5e		 pop	 esi
  00169	e8 00 00 00 00	 call	 @__security_check_cookie@4
  0016e	c9		 leave
  0016f	c2 08 00	 ret	 8
?AddRenderImage@GrowthDownDoneWnd@@UAEXABVioHashString@@PAVioUIRenderImage@@@Z ENDP ; GrowthDownDoneWnd::AddRenderImage
_TEXT	ENDS
PUBLIC	__real@3f59999a
PUBLIC	??_C@_0BM@NMOKEHNP@GrowthDownDoneWnd?3?3OnRender?$AA@ ; `string'
EXTRN	__imp_?PrintText@ioFontManager@@QAAXMMMPBDZZ:PROC
EXTRN	__imp_?SetTextColor@ioFontManager@@QAEXK@Z:PROC
EXTRN	__imp_?SetBkColor@ioFontManager@@QAEXHHH@Z:PROC
EXTRN	__imp_?SetAlignType@ioFontManager@@QAEXW4TextAlignType@@@Z:PROC
EXTRN	__imp_?SetTextStyle@ioFontManager@@QAEXW4TextStyle@@@Z:PROC
EXTRN	__imp_?GetSingleton@ioFontManager@@SAAAV1@XZ:PROC
;	COMDAT __real@3f59999a
; File c:\program files (x86)\microsoft visual studio 10.0\vc\include\vector
CONST	SEGMENT
__real@3f59999a DD 03f59999ar			; 0.85
CONST	ENDS
;	COMDAT ??_C@_0BM@NMOKEHNP@GrowthDownDoneWnd?3?3OnRender?$AA@
CONST	SEGMENT
??_C@_0BM@NMOKEHNP@GrowthDownDoneWnd?3?3OnRender?$AA@ DB 'GrowthDownDoneW'
	DB	'nd::OnRender', 00H				; `string'
; Function compile flags: /Ogsp
; File d:\lost saga for developer\youtube\tutorial\source\src\lsclient\gui\growthdowndonewnd.cpp
CONST	ENDS
;	COMDAT ?OnRender@GrowthDownDoneWnd@@MAEXXZ
_TEXT	SEGMENT
tv350 = -12						; size = 4
_iXPos$ = -8						; size = 4
_iYPos$ = -4						; size = 4
?OnRender@GrowthDownDoneWnd@@MAEXXZ PROC		; GrowthDownDoneWnd::OnRender, COMDAT
; _this$ = ecx

; 230  : {

  00000	55		 push	 ebp
  00001	8b ec		 mov	 ebp, esp
  00003	83 ec 0c	 sub	 esp, 12			; 0000000cH
  00006	53		 push	 ebx
  00007	56		 push	 esi
  00008	57		 push	 edi
  00009	8b f9		 mov	 edi, ecx

; 231  : 	ioWnd::OnRender();

  0000b	ff 15 00 00 00
	00		 call	 DWORD PTR __imp_?OnRender@ioWnd@@MAEXXZ

; 232  : 
; 233  : 	int iXPos = GetDerivedPosX();

  00011	8b cf		 mov	 ecx, edi
  00013	ff 15 00 00 00
	00		 call	 DWORD PTR __imp_?GetDerivedPosX@ioWnd@@QBEHXZ
  00019	8b f0		 mov	 esi, eax

; 234  : 	int iYPos = GetDerivedPosY();

  0001b	8b cf		 mov	 ecx, edi
  0001d	89 75 f8	 mov	 DWORD PTR _iXPos$[ebp], esi
  00020	ff 15 00 00 00
	00		 call	 DWORD PTR __imp_?GetDerivedPosY@ioWnd@@QBEHXZ

; 235  : 
; 236  : 	enum
; 237  : 	{
; 238  : 		ICON_X		= 129,
; 239  : 		ICON_Y		= 105,
; 240  : 
; 241  : 		DESC_BIG_X	= 129,
; 242  : 		DESC_BIG_Y	= 152,
; 243  : 
; 244  : 		DESC_X		= 27,
; 245  : 		DESC_Y		= 206,
; 246  : 	};
; 247  : 
; 248  : 	// Back
; 249  : 	if( m_pBackEffect )

  00026	33 db		 xor	 ebx, ebx
  00028	8b d0		 mov	 edx, eax
  0002a	89 55 fc	 mov	 DWORD PTR _iYPos$[ebp], edx
  0002d	39 9f 6c 01 00
	00		 cmp	 DWORD PTR [edi+364], ebx
  00033	74 3a		 je	 SHORT $LN5@OnRender@2

; 250  : 		m_pBackEffect->Render( iXPos+ICON_X, iYPos+ICON_Y, UI_RENDER_MULTIPLY );

  00035	8b 87 6c 01 00
	00		 mov	 eax, DWORD PTR [edi+364]
  0003b	8b 08		 mov	 ecx, DWORD PTR [eax]
  0003d	53		 push	 ebx
  0003e	53		 push	 ebx
  0003f	53		 push	 ebx
  00040	6a 08		 push	 8
  00042	51		 push	 ecx
  00043	83 c2 69	 add	 edx, 105		; 00000069H
  00046	0f 57 c0	 xorps	 xmm0, xmm0
  00049	f3 0f 2a c2	 cvtsi2ss xmm0, edx
  0004d	51		 push	 ecx
  0004e	f3 0f 11 44 24
	04		 movss	 DWORD PTR [esp+4], xmm0
  00054	8d 96 81 00 00
	00		 lea	 edx, DWORD PTR [esi+129]
  0005a	0f 57 c0	 xorps	 xmm0, xmm0
  0005d	8b c8		 mov	 ecx, eax
  0005f	8b 00		 mov	 eax, DWORD PTR [eax]
  00061	f3 0f 2a c2	 cvtsi2ss xmm0, edx
  00065	f3 0f 11 04 24	 movss	 DWORD PTR [esp], xmm0
  0006a	ff 10		 call	 DWORD PTR [eax]
  0006c	8b 55 fc	 mov	 edx, DWORD PTR _iYPos$[ebp]
$LN5@OnRender@2:

; 251  : 
; 252  : 	// Icon
; 253  : 	if( m_pIcon )

  0006f	39 9f 68 01 00
	00		 cmp	 DWORD PTR [edi+360], ebx
  00075	74 33		 je	 SHORT $LN4@OnRender@2

; 254  : 	{
; 255  : 		m_pIcon->Render( iXPos+ICON_X, iYPos+ICON_Y, UI_RENDER_NORMAL, TFO_BILINEAR );

  00077	8b 8f 68 01 00
	00		 mov	 ecx, DWORD PTR [edi+360]
  0007d	8b 01		 mov	 eax, DWORD PTR [ecx]
  0007f	53		 push	 ebx
  00080	53		 push	 ebx
  00081	6a 01		 push	 1
  00083	53		 push	 ebx
  00084	0f 57 c0	 xorps	 xmm0, xmm0
  00087	51		 push	 ecx
  00088	83 c2 69	 add	 edx, 105		; 00000069H
  0008b	f3 0f 2a c2	 cvtsi2ss xmm0, edx
  0008f	51		 push	 ecx
  00090	f3 0f 11 44 24
	04		 movss	 DWORD PTR [esp+4], xmm0
  00096	81 c6 81 00 00
	00		 add	 esi, 129		; 00000081H
  0009c	0f 57 c0	 xorps	 xmm0, xmm0
  0009f	f3 0f 2a c6	 cvtsi2ss xmm0, esi
  000a3	f3 0f 11 04 24	 movss	 DWORD PTR [esp], xmm0
  000a8	ff 10		 call	 DWORD PTR [eax]
$LN4@OnRender@2:

; 256  : 	}
; 257  : 
; 258  : 	// Title
; 259  : 	g_FontMgr.SetTextStyle( TS_NORMAL );

  000aa	8b 35 00 00 00
	00		 mov	 esi, DWORD PTR __imp_?GetSingleton@ioFontManager@@SAAAV1@XZ
  000b0	53		 push	 ebx
  000b1	ff d6		 call	 esi
  000b3	8b c8		 mov	 ecx, eax
  000b5	ff 15 00 00 00
	00		 call	 DWORD PTR __imp_?SetTextStyle@ioFontManager@@QAEXW4TextStyle@@@Z

; 260  : 	g_FontMgr.SetAlignType( TAT_CENTER );

  000bb	6a 01		 push	 1
  000bd	ff d6		 call	 esi
  000bf	8b c8		 mov	 ecx, eax
  000c1	ff 15 00 00 00
	00		 call	 DWORD PTR __imp_?SetAlignType@ioFontManager@@QAEXW4TextAlignType@@@Z

; 261  : 	g_FontMgr.SetBkColor( 0, 0, 0 );

  000c7	53		 push	 ebx
  000c8	53		 push	 ebx
  000c9	53		 push	 ebx
  000ca	ff d6		 call	 esi
  000cc	8b c8		 mov	 ecx, eax
  000ce	ff 15 00 00 00
	00		 call	 DWORD PTR __imp_?SetBkColor@ioFontManager@@QAEXHHH@Z

; 262  : 	g_FontMgr.SetTextColor( TCT_DEFAULT_DARKGRAY );

  000d4	68 3a 3a 3a ff	 push	 -12961222		; ff3a3a3aH
  000d9	ff d6		 call	 esi
  000db	8b c8		 mov	 ecx, eax
  000dd	ff 15 00 00 00
	00		 call	 DWORD PTR __imp_?SetTextColor@ioFontManager@@QAEXK@Z

; 263  : 	g_FontMgr.PrintText( iXPos+DESC_BIG_X, iYPos+DESC_BIG_Y, FONT_SIZE_17, STR(1) );

  000e3	53		 push	 ebx
  000e4	6a 01		 push	 1
  000e6	68 00 00 00 00	 push	 OFFSET ??_C@_00CNPNBAHC@?$AA@
  000eb	68 00 00 00 00	 push	 OFFSET ??_C@_0BM@NMOKEHNP@GrowthDownDoneWnd?3?3OnRender?$AA@
  000f0	ff 15 00 00 00
	00		 call	 DWORD PTR __imp_?GetSingleton@ioStringManager@@SAAAV1@XZ
  000f6	8b c8		 mov	 ecx, eax
  000f8	ff 15 00 00 00
	00		 call	 DWORD PTR __imp_?GetString@ioStringManager@@QAEPADPBD0HW4FileNamePrefix@1@@Z
  000fe	f3 0f 10 05 00
	00 00 00	 movss	 xmm0, DWORD PTR __real@3f59999a
  00106	50		 push	 eax
  00107	8b 45 fc	 mov	 eax, DWORD PTR _iYPos$[ebp]
  0010a	83 ec 0c	 sub	 esp, 12			; 0000000cH
  0010d	f3 0f 11 44 24
	08		 movss	 DWORD PTR [esp+8], xmm0
  00113	05 98 00 00 00	 add	 eax, 152		; 00000098H
  00118	0f 57 c0	 xorps	 xmm0, xmm0
  0011b	f3 0f 2a c0	 cvtsi2ss xmm0, eax
  0011f	8b 45 f8	 mov	 eax, DWORD PTR _iXPos$[ebp]
  00122	f3 0f 11 44 24
	04		 movss	 DWORD PTR [esp+4], xmm0
  00128	05 81 00 00 00	 add	 eax, 129		; 00000081H
  0012d	0f 57 c0	 xorps	 xmm0, xmm0
  00130	f3 0f 2a c0	 cvtsi2ss xmm0, eax
  00134	f3 0f 11 04 24	 movss	 DWORD PTR [esp], xmm0
  00139	ff d6		 call	 esi
  0013b	50		 push	 eax
  0013c	ff 15 00 00 00
	00		 call	 DWORD PTR __imp_?PrintText@ioFontManager@@QAAXMMMPBDZZ

; 264  : 
; 265  : 
; 266  : 	// Desc
; 267  : 	if( !m_Desc[0].IsEmpty() )

  00142	8b 8f 80 01 00
	00		 mov	 ecx, DWORD PTR [edi+384]

; 268  : 		m_Desc[0].PrintFullText( iXPos+DESC_X, iYPos+DESC_Y, TAT_LEFT );

  00148	8b 75 f8	 mov	 esi, DWORD PTR _iXPos$[ebp]
  0014b	83 c4 14	 add	 esp, 20			; 00000014H
  0014e	3b 8f 84 01 00
	00		 cmp	 ecx, DWORD PTR [edi+388]
  00154	74 37		 je	 SHORT $LN3@OnRender@2
  00156	8b 45 fc	 mov	 eax, DWORD PTR _iYPos$[ebp]
  00159	68 ff 00 00 00	 push	 255			; 000000ffH
  0015e	53		 push	 ebx
  0015f	51		 push	 ecx
  00160	05 ce 00 00 00	 add	 eax, 206		; 000000ceH
  00165	0f 57 c0	 xorps	 xmm0, xmm0
  00168	f3 0f 2a c0	 cvtsi2ss xmm0, eax
  0016c	51		 push	 ecx
  0016d	f3 0f 11 44 24
	04		 movss	 DWORD PTR [esp+4], xmm0
  00173	8d 46 1b	 lea	 eax, DWORD PTR [esi+27]
  00176	0f 57 c0	 xorps	 xmm0, xmm0
  00179	f3 0f 2a c0	 cvtsi2ss xmm0, eax
  0017d	8d 8f 74 01 00
	00		 lea	 ecx, DWORD PTR [edi+372]
  00183	f3 0f 11 04 24	 movss	 DWORD PTR [esp], xmm0
  00188	e8 00 00 00 00	 call	 ?PrintFullText@ioComplexStringPrinter@@QAEXMMW4TextAlignType@@E@Z ; ioComplexStringPrinter::PrintFullText
$LN3@OnRender@2:

; 269  : 
; 270  : 	if( m_pPointImg )

  0018d	39 9f 70 01 00
	00		 cmp	 DWORD PTR [edi+368], ebx
  00193	74 4b		 je	 SHORT $LN2@OnRender@2

; 271  : 	{
; 272  : 		float fSize = m_Desc[0].GetFullWidth();
; 273  : 
; 274  : 		m_pPointImg->Render( iXPos+DESC_X+fSize, iYPos+DESC_Y );

  00195	8b 8f 70 01 00
	00		 mov	 ecx, DWORD PTR [edi+368]
  0019b	8b 55 fc	 mov	 edx, DWORD PTR _iYPos$[ebp]
  0019e	f3 0f 10 8f 90
	01 00 00	 movss	 xmm1, DWORD PTR [edi+400]
  001a6	8b 01		 mov	 eax, DWORD PTR [ecx]
  001a8	53		 push	 ebx
  001a9	53		 push	 ebx
  001aa	53		 push	 ebx
  001ab	53		 push	 ebx
  001ac	0f 57 c0	 xorps	 xmm0, xmm0
  001af	81 c2 ce 00 00
	00		 add	 edx, 206		; 000000ceH
  001b5	f3 0f 2a c2	 cvtsi2ss xmm0, edx
  001b9	51		 push	 ecx
  001ba	51		 push	 ecx
  001bb	f3 0f 11 44 24
	04		 movss	 DWORD PTR [esp+4], xmm0
  001c1	0f 57 c0	 xorps	 xmm0, xmm0
  001c4	8d 56 1b	 lea	 edx, DWORD PTR [esi+27]
  001c7	f3 0f 2a c2	 cvtsi2ss xmm0, edx
  001cb	0f 5a c0	 cvtps2pd xmm0, xmm0
  001ce	0f 5a c9	 cvtps2pd xmm1, xmm1
  001d1	f2 0f 58 c1	 addsd	 xmm0, xmm1
  001d5	66 0f 5a c0	 cvtpd2ps xmm0, xmm0
  001d9	f3 0f 11 04 24	 movss	 DWORD PTR [esp], xmm0
  001de	ff 10		 call	 DWORD PTR [eax]
$LN2@OnRender@2:

; 275  : 	}
; 276  : 
; 277  : 	if( !m_Desc[1].IsEmpty() )

  001e0	8b 8f a0 01 00
	00		 mov	 ecx, DWORD PTR [edi+416]
  001e6	3b 8f a4 01 00
	00		 cmp	 ecx, DWORD PTR [edi+420]
  001ec	74 37		 je	 SHORT $LN1@OnRender@2

; 278  : 		m_Desc[1].PrintFullText( iXPos+DESC_X, iYPos+DESC_Y+18, TAT_LEFT );

  001ee	8b 45 fc	 mov	 eax, DWORD PTR _iYPos$[ebp]
  001f1	68 ff 00 00 00	 push	 255			; 000000ffH
  001f6	53		 push	 ebx
  001f7	51		 push	 ecx
  001f8	0f 57 c0	 xorps	 xmm0, xmm0
  001fb	51		 push	 ecx
  001fc	05 e0 00 00 00	 add	 eax, 224		; 000000e0H
  00201	f3 0f 2a c0	 cvtsi2ss xmm0, eax
  00205	f3 0f 11 44 24
	04		 movss	 DWORD PTR [esp+4], xmm0
  0020b	83 c6 1b	 add	 esi, 27			; 0000001bH
  0020e	0f 57 c0	 xorps	 xmm0, xmm0
  00211	f3 0f 2a c6	 cvtsi2ss xmm0, esi
  00215	8d 8f 94 01 00
	00		 lea	 ecx, DWORD PTR [edi+404]
  0021b	f3 0f 11 04 24	 movss	 DWORD PTR [esp], xmm0
  00220	e8 00 00 00 00	 call	 ?PrintFullText@ioComplexStringPrinter@@QAEXMMW4TextAlignType@@E@Z ; ioComplexStringPrinter::PrintFullText
$LN1@OnRender@2:
  00225	5f		 pop	 edi
  00226	5e		 pop	 esi
  00227	5b		 pop	 ebx

; 279  : }

  00228	c9		 leave
  00229	c3		 ret	 0
?OnRender@GrowthDownDoneWnd@@MAEXXZ ENDP		; GrowthDownDoneWnd::OnRender
_TEXT	ENDS
PUBLIC	??_C@_0CM@GMMOBCLN@GrowthAllDownDoneWnd?3?3ShowGrowth@ ; `string'
PUBLIC	_this$GSCopy$
PUBLIC	?ShowGrowthAllDownDone@GrowthAllDownDoneWnd@@QAEXHH_J@Z ; GrowthAllDownDoneWnd::ShowGrowthAllDownDone
EXTRN	?ConvertNumToStrComma@Help@@YAXHPADH@Z:PROC	; Help::ConvertNumToStrComma
EXTRN	__EH_epilog3_GS:PROC
EXTRN	__EH_prolog3_GS:PROC
EXTRN	_memset:PROC
;	COMDAT ??_C@_0CM@GMMOBCLN@GrowthAllDownDoneWnd?3?3ShowGrowth@
CONST	SEGMENT
??_C@_0CM@GMMOBCLN@GrowthAllDownDoneWnd?3?3ShowGrowth@ DB 'GrowthAllDownD'
	DB	'oneWnd::ShowGrowthAllDownDone', 00H		; `string'
CONST	ENDS
;	COMDAT xdata$x
xdata$x	SEGMENT
__unwindtable$?ShowGrowthAllDownDone@GrowthAllDownDoneWnd@@QAEXHH_J@Z DD 0ffffffffH
	DD	FLAT:__unwindfunclet$?ShowGrowthAllDownDone@GrowthAllDownDoneWnd@@QAEXHH_J@Z$0
__ehfuncinfo$?ShowGrowthAllDownDone@GrowthAllDownDoneWnd@@QAEXHH_J@Z DD 019930522H
	DD	01H
	DD	FLAT:__unwindtable$?ShowGrowthAllDownDone@GrowthAllDownDoneWnd@@QAEXHH_J@Z
	DD	2 DUP(00H)
	DD	2 DUP(00H)
	DD	00H
	DD	01H
; Function compile flags: /Ogsp
xdata$x	ENDS
;	COMDAT ?ShowGrowthAllDownDone@GrowthAllDownDoneWnd@@QAEXHH_J@Z
_TEXT	SEGMENT
_szName$ = -560						; size = 16
tv164 = -544						; size = 4
_this$GSCopy$ = -540					; size = 4
_szPoint$ = -536					; size = 260
_szPeso$ = -276						; size = 260
__$EHRec$ = -12						; size = 12
_iClassType$ = 8					; size = 4
_iReturnPoint$ = 12					; size = 4
_iReturnPeso$ = 16					; size = 8
?ShowGrowthAllDownDone@GrowthAllDownDoneWnd@@QAEXHH_J@Z PROC ; GrowthAllDownDoneWnd::ShowGrowthAllDownDone, COMDAT
; _this$ = ecx

; 303  : {

  00000	68 24 02 00 00	 push	 548			; 00000224H
  00005	b8 00 00 00 00	 mov	 eax, __ehhandler$?ShowGrowthAllDownDone@GrowthAllDownDoneWnd@@QAEXHH_J@Z
  0000a	e8 00 00 00 00	 call	 __EH_prolog3_GS

; 304  : 	m_iClassType   = iClassType;

  0000f	8b 45 08	 mov	 eax, DWORD PTR _iClassType$[ebp]
  00012	8b f1		 mov	 esi, ecx

; 305  : 	m_iReturnPoint = iReturnPoint;
; 306  : 	m_iReturnPeso  = iReturnPeso;
; 307  : 
; 308  : 	SAFEDELETE(m_pIcon);

  00014	8b 8e 70 01 00
	00		 mov	 ecx, DWORD PTR [esi+368]
  0001a	89 86 60 01 00
	00		 mov	 DWORD PTR [esi+352], eax
  00020	8b 45 0c	 mov	 eax, DWORD PTR _iReturnPoint$[ebp]
  00023	89 86 64 01 00
	00		 mov	 DWORD PTR [esi+356], eax
  00029	8b 45 10	 mov	 eax, DWORD PTR _iReturnPeso$[ebp]
  0002c	89 86 68 01 00
	00		 mov	 DWORD PTR [esi+360], eax
  00032	8b 45 14	 mov	 eax, DWORD PTR _iReturnPeso$[ebp+4]
  00035	33 db		 xor	 ebx, ebx

; 325  : 	if( iPeso < 0 )
; 326  : 		iPeso = 0;
; 327  : 	Help::ConvertNumToStrComma( iPeso, szPeso, sizeof( szPeso ) );

  00037	89 b5 e4 fd ff
	ff		 mov	 DWORD PTR _this$GSCopy$[ebp], esi
  0003d	89 86 6c 01 00
	00		 mov	 DWORD PTR [esi+364], eax
  00043	3b cb		 cmp	 ecx, ebx
  00045	74 0d		 je	 SHORT $LN5@ShowGrowth@2

; 305  : 	m_iReturnPoint = iReturnPoint;
; 306  : 	m_iReturnPeso  = iReturnPeso;
; 307  : 
; 308  : 	SAFEDELETE(m_pIcon);

  00047	8b 01		 mov	 eax, DWORD PTR [ecx]
  00049	6a 01		 push	 1
  0004b	ff 50 40	 call	 DWORD PTR [eax+64]
  0004e	89 9e 70 01 00
	00		 mov	 DWORD PTR [esi+368], ebx
$LN5@ShowGrowth@2:

; 309  : 	m_pIcon = g_UIImageSetMgr.CreateImageByFullName( g_MyInfo.GetMySoldierIconName( m_iClassType ) );

  00054	53		 push	 ebx
  00055	ff b6 60 01 00
	00		 push	 DWORD PTR [esi+352]
  0005b	e8 00 00 00 00	 call	 ?GetSingleton@ioMyInfo@@SAAAV1@XZ ; ioMyInfo::GetSingleton
  00060	8b c8		 mov	 ecx, eax
  00062	e8 00 00 00 00	 call	 ?GetMySoldierIconName@ioMyInfo@@QAEAAVioHashString@@H@Z ; ioMyInfo::GetMySoldierIconName
  00067	50		 push	 eax
  00068	ff 15 00 00 00
	00		 call	 DWORD PTR __imp_?GetSingleton@ioUIImageSetManager@@SAAAV1@XZ
  0006e	8b c8		 mov	 ecx, eax
  00070	ff 15 00 00 00
	00		 call	 DWORD PTR __imp_?CreateImageByFullName@ioUIImageSetManager@@QAEPAVioUIRenderImage@@ABVioHashString@@_N@Z

; 310  : 
; 311  : 	ReBatchButton();

  00076	8b ce		 mov	 ecx, esi
  00078	89 86 70 01 00
	00		 mov	 DWORD PTR [esi+368], eax
  0007e	e8 00 00 00 00	 call	 ?ReBatchButton@GrowthAllDownDoneWnd@@IAEXXZ ; GrowthAllDownDoneWnd::ReBatchButton
  00083	8d be 78 01 00
	00		 lea	 edi, DWORD PTR [esi+376]
  00089	c7 85 e0 fd ff
	ff 06 00 00 00	 mov	 DWORD PTR tv164[ebp], 6
$LL4@ShowGrowth@2:

; 312  : 
; 313  : 	for (int i = 0; i < MAX_DESC ; i++)
; 314  : 	{
; 315  : 		m_Desc[i].ClearList();	

  00093	8b cf		 mov	 ecx, edi
  00095	e8 00 00 00 00	 call	 ?ClearList@ioComplexStringPrinter@@QAEXXZ ; ioComplexStringPrinter::ClearList
  0009a	83 c7 20	 add	 edi, 32			; 00000020H
  0009d	ff 8d e0 fd ff
	ff		 dec	 DWORD PTR tv164[ebp]
  000a3	75 ee		 jne	 SHORT $LL4@ShowGrowth@2

; 316  : 	}
; 317  : 
; 318  : 	ioHashString szName = g_MyInfo.GetClassName( m_iClassType, g_MyInfo.GetCharPowerUpGradeByClassType( m_iClassType ) );

  000a5	ff b6 60 01 00
	00		 push	 DWORD PTR [esi+352]
  000ab	e8 00 00 00 00	 call	 ?GetSingleton@ioMyInfo@@SAAAV1@XZ ; ioMyInfo::GetSingleton
  000b0	8b c8		 mov	 ecx, eax
  000b2	e8 00 00 00 00	 call	 ?GetCharPowerUpGradeByClassType@ioMyInfo@@QAE?AW4PowerUpGradeType@@H@Z ; ioMyInfo::GetCharPowerUpGradeByClassType
  000b7	50		 push	 eax
  000b8	ff b6 60 01 00
	00		 push	 DWORD PTR [esi+352]
  000be	e8 00 00 00 00	 call	 ?GetSingleton@ioMyInfo@@SAAAV1@XZ ; ioMyInfo::GetSingleton
  000c3	8b c8		 mov	 ecx, eax
  000c5	e8 00 00 00 00	 call	 ?GetClassNameA@ioMyInfo@@QAEPBDHH@Z ; ioMyInfo::GetClassNameA
  000ca	50		 push	 eax
  000cb	8d 8d d0 fd ff
	ff		 lea	 ecx, DWORD PTR _szName$[ebp]
  000d1	ff 15 00 00 00
	00		 call	 DWORD PTR __imp_??0ioHashString@@QAE@PBD@Z

; 319  : 
; 320  : 	char szPoint[MAX_PATH]="";

  000d7	68 03 01 00 00	 push	 259			; 00000103H
  000dc	8d 85 e9 fd ff
	ff		 lea	 eax, DWORD PTR _szPoint$[ebp+1]
  000e2	53		 push	 ebx
  000e3	50		 push	 eax
  000e4	89 5d fc	 mov	 DWORD PTR __$EHRec$[ebp+8], ebx
  000e7	88 9d e8 fd ff
	ff		 mov	 BYTE PTR _szPoint$[ebp], bl
  000ed	e8 00 00 00 00	 call	 _memset

; 321  : 	Help::ConvertNumToStrComma( m_iReturnPoint, szPoint, sizeof( szPoint ) );

  000f2	bf 04 01 00 00	 mov	 edi, 260		; 00000104H
  000f7	57		 push	 edi
  000f8	8d 85 e8 fd ff
	ff		 lea	 eax, DWORD PTR _szPoint$[ebp]
  000fe	50		 push	 eax
  000ff	ff b6 64 01 00
	00		 push	 DWORD PTR [esi+356]
  00105	e8 00 00 00 00	 call	 ?ConvertNumToStrComma@Help@@YAXHPADH@Z ; Help::ConvertNumToStrComma

; 322  : 
; 323  : 	char szPeso[MAX_PATH]="";

  0010a	68 03 01 00 00	 push	 259			; 00000103H
  0010f	8d 85 ed fe ff
	ff		 lea	 eax, DWORD PTR _szPeso$[ebp+1]
  00115	53		 push	 ebx
  00116	50		 push	 eax
  00117	88 9d ec fe ff
	ff		 mov	 BYTE PTR _szPeso$[ebp], bl
  0011d	e8 00 00 00 00	 call	 _memset

; 324  : 	int iPeso = (int)m_iReturnPeso;

  00122	8b 86 68 01 00
	00		 mov	 eax, DWORD PTR [esi+360]
  00128	83 c4 24	 add	 esp, 36			; 00000024H

; 325  : 	if( iPeso < 0 )
; 326  : 		iPeso = 0;
; 327  : 	Help::ConvertNumToStrComma( iPeso, szPeso, sizeof( szPeso ) );

  0012b	57		 push	 edi
  0012c	8d 8d ec fe ff
	ff		 lea	 ecx, DWORD PTR _szPeso$[ebp]
  00132	3b c3		 cmp	 eax, ebx
  00134	51		 push	 ecx
  00135	0f 4c c3	 cmovl	 eax, ebx
  00138	50		 push	 eax
  00139	e8 00 00 00 00	 call	 ?ConvertNumToStrComma@Help@@YAXHPADH@Z ; Help::ConvertNumToStrComma
  0013e	83 c4 0c	 add	 esp, 12			; 0000000cH

; 328  : 
; 329  : 	m_Desc[0].SetTextStyle( TS_NORMAL );

  00141	53		 push	 ebx
  00142	8d 8e 78 01 00
	00		 lea	 ecx, DWORD PTR [esi+376]
  00148	e8 00 00 00 00	 call	 ?SetTextStyle@ioComplexStringPrinter@@QAEXW4TextStyle@@@Z ; ioComplexStringPrinter::SetTextStyle

; 330  : 	m_Desc[0].SetBkColor( 0, 0, 0 );	

  0014d	53		 push	 ebx
  0014e	53		 push	 ebx
  0014f	53		 push	 ebx
  00150	8d 8e 78 01 00
	00		 lea	 ecx, DWORD PTR [esi+376]
  00156	e8 00 00 00 00	 call	 ?SetBkColor@ioComplexStringPrinter@@QAEXHHH@Z ; ioComplexStringPrinter::SetBkColor

; 331  : 	m_Desc[0].SetTextColor( TCT_DEFAULT_DARKGRAY );

  0015b	bf 3a 3a 3a ff	 mov	 edi, -12961222		; ff3a3a3aH
  00160	57		 push	 edi
  00161	8d 8e 78 01 00
	00		 lea	 ecx, DWORD PTR [esi+376]
  00167	e8 00 00 00 00	 call	 ?SetTextColor@ioComplexStringPrinter@@QAEXK@Z ; ioComplexStringPrinter::SetTextColor

; 332  : 	m_Desc[0].AddTextPiece( FONT_SIZE_17, szName.c_str() );

  0016c	8d 8d d0 fd ff
	ff		 lea	 ecx, DWORD PTR _szName$[ebp]
  00172	ff 15 00 00 00
	00		 call	 DWORD PTR __imp_?c_str@ioHashString@@QBEPBDXZ
  00178	f3 0f 10 05 00
	00 00 00	 movss	 xmm0, DWORD PTR __real@3f59999a
  00180	50		 push	 eax
  00181	51		 push	 ecx
  00182	8d 86 78 01 00
	00		 lea	 eax, DWORD PTR [esi+376]
  00188	f3 0f 11 04 24	 movss	 DWORD PTR [esp], xmm0
  0018d	50		 push	 eax
  0018e	e8 00 00 00 00	 call	 ?AddTextPiece@ioComplexStringPrinter@@QAAXMPBDZZ ; ioComplexStringPrinter::AddTextPiece
  00193	83 c4 0c	 add	 esp, 12			; 0000000cH

; 333  : 
; 334  : 	m_Desc[1].SetTextStyle( TS_NORMAL );

  00196	81 c6 98 01 00
	00		 add	 esi, 408		; 00000198H
  0019c	53		 push	 ebx
  0019d	8b ce		 mov	 ecx, esi
  0019f	e8 00 00 00 00	 call	 ?SetTextStyle@ioComplexStringPrinter@@QAEXW4TextStyle@@@Z ; ioComplexStringPrinter::SetTextStyle

; 335  : 	m_Desc[1].SetBkColor( 0, 0, 0 );	

  001a4	53		 push	 ebx
  001a5	53		 push	 ebx
  001a6	53		 push	 ebx
  001a7	8b ce		 mov	 ecx, esi
  001a9	e8 00 00 00 00	 call	 ?SetBkColor@ioComplexStringPrinter@@QAEXHHH@Z ; ioComplexStringPrinter::SetBkColor

; 336  : 	m_Desc[1].SetTextColor( TCT_DEFAULT_DARKGRAY );

  001ae	57		 push	 edi
  001af	8b ce		 mov	 ecx, esi
  001b1	e8 00 00 00 00	 call	 ?SetTextColor@ioComplexStringPrinter@@QAEXK@Z ; ioComplexStringPrinter::SetTextColor

; 337  : 	m_Desc[1].AddTextPiece( FONT_SIZE_17, STR(8) );

  001b6	8b 35 00 00 00
	00		 mov	 esi, DWORD PTR __imp_?GetSingleton@ioStringManager@@SAAAV1@XZ
  001bc	53		 push	 ebx
  001bd	6a 08		 push	 8
  001bf	68 00 00 00 00	 push	 OFFSET ??_C@_00CNPNBAHC@?$AA@
  001c4	68 00 00 00 00	 push	 OFFSET ??_C@_0CM@GMMOBCLN@GrowthAllDownDoneWnd?3?3ShowGrowth@
  001c9	ff d6		 call	 esi
  001cb	8b 3d 00 00 00
	00		 mov	 edi, DWORD PTR __imp_?GetString@ioStringManager@@QAEPADPBD0HW4FileNamePrefix@1@@Z
  001d1	8b c8		 mov	 ecx, eax
  001d3	ff d7		 call	 edi
  001d5	f3 0f 10 05 00
	00 00 00	 movss	 xmm0, DWORD PTR __real@3f59999a
  001dd	50		 push	 eax
  001de	8b 85 e4 fd ff
	ff		 mov	 eax, DWORD PTR _this$GSCopy$[ebp]
  001e4	51		 push	 ecx
  001e5	05 98 01 00 00	 add	 eax, 408		; 00000198H
  001ea	f3 0f 11 04 24	 movss	 DWORD PTR [esp], xmm0
  001ef	50		 push	 eax
  001f0	e8 00 00 00 00	 call	 ?AddTextPiece@ioComplexStringPrinter@@QAAXMPBDZZ ; ioComplexStringPrinter::AddTextPiece

; 338  : 
; 339  : 	m_Desc[2].SetTextStyle( TS_NORMAL );

  001f5	8b 8d e4 fd ff
	ff		 mov	 ecx, DWORD PTR _this$GSCopy$[ebp]
  001fb	83 c4 0c	 add	 esp, 12			; 0000000cH
  001fe	81 c1 b8 01 00
	00		 add	 ecx, 440		; 000001b8H
  00204	53		 push	 ebx
  00205	e8 00 00 00 00	 call	 ?SetTextStyle@ioComplexStringPrinter@@QAEXW4TextStyle@@@Z ; ioComplexStringPrinter::SetTextStyle

; 340  : 	m_Desc[2].SetBkColor( 0, 0, 0 );	

  0020a	8b 8d e4 fd ff
	ff		 mov	 ecx, DWORD PTR _this$GSCopy$[ebp]
  00210	53		 push	 ebx
  00211	53		 push	 ebx
  00212	53		 push	 ebx
  00213	81 c1 b8 01 00
	00		 add	 ecx, 440		; 000001b8H
  00219	e8 00 00 00 00	 call	 ?SetBkColor@ioComplexStringPrinter@@QAEXHHH@Z ; ioComplexStringPrinter::SetBkColor

; 341  : 	m_Desc[2].SetTextColor( TCT_DEFAULT_DARKGRAY );

  0021e	8b 8d e4 fd ff
	ff		 mov	 ecx, DWORD PTR _this$GSCopy$[ebp]
  00224	68 3a 3a 3a ff	 push	 -12961222		; ff3a3a3aH
  00229	81 c1 b8 01 00
	00		 add	 ecx, 440		; 000001b8H
  0022f	e8 00 00 00 00	 call	 ?SetTextColor@ioComplexStringPrinter@@QAEXK@Z ; ioComplexStringPrinter::SetTextColor

; 342  : 	m_Desc[2].AddTextPiece( FONT_SIZE_12, STR(9) );

  00234	53		 push	 ebx
  00235	6a 09		 push	 9
  00237	68 00 00 00 00	 push	 OFFSET ??_C@_00CNPNBAHC@?$AA@
  0023c	68 00 00 00 00	 push	 OFFSET ??_C@_0CM@GMMOBCLN@GrowthAllDownDoneWnd?3?3ShowGrowth@
  00241	ff d6		 call	 esi
  00243	8b c8		 mov	 ecx, eax
  00245	ff d7		 call	 edi
  00247	f3 0f 10 05 00
	00 00 00	 movss	 xmm0, DWORD PTR __real@3f19999a
  0024f	50		 push	 eax
  00250	8b 85 e4 fd ff
	ff		 mov	 eax, DWORD PTR _this$GSCopy$[ebp]
  00256	51		 push	 ecx
  00257	05 b8 01 00 00	 add	 eax, 440		; 000001b8H
  0025c	f3 0f 11 04 24	 movss	 DWORD PTR [esp], xmm0
  00261	50		 push	 eax
  00262	e8 00 00 00 00	 call	 ?AddTextPiece@ioComplexStringPrinter@@QAAXMPBDZZ ; ioComplexStringPrinter::AddTextPiece

; 343  : 
; 344  : 	m_Desc[3].SetTextStyle( TS_NORMAL );

  00267	8b 8d e4 fd ff
	ff		 mov	 ecx, DWORD PTR _this$GSCopy$[ebp]
  0026d	83 c4 0c	 add	 esp, 12			; 0000000cH
  00270	81 c1 d8 01 00
	00		 add	 ecx, 472		; 000001d8H
  00276	53		 push	 ebx
  00277	e8 00 00 00 00	 call	 ?SetTextStyle@ioComplexStringPrinter@@QAEXW4TextStyle@@@Z ; ioComplexStringPrinter::SetTextStyle

; 345  : 	m_Desc[3].SetBkColor( 0, 0, 0 );	

  0027c	8b 8d e4 fd ff
	ff		 mov	 ecx, DWORD PTR _this$GSCopy$[ebp]
  00282	53		 push	 ebx
  00283	53		 push	 ebx
  00284	53		 push	 ebx
  00285	81 c1 d8 01 00
	00		 add	 ecx, 472		; 000001d8H
  0028b	e8 00 00 00 00	 call	 ?SetBkColor@ioComplexStringPrinter@@QAEXHHH@Z ; ioComplexStringPrinter::SetBkColor

; 346  : 	m_Desc[3].SetTextColor( TCT_DEFAULT_DARKGRAY );

  00290	8b 8d e4 fd ff
	ff		 mov	 ecx, DWORD PTR _this$GSCopy$[ebp]
  00296	68 3a 3a 3a ff	 push	 -12961222		; ff3a3a3aH
  0029b	81 c1 d8 01 00
	00		 add	 ecx, 472		; 000001d8H
  002a1	e8 00 00 00 00	 call	 ?SetTextColor@ioComplexStringPrinter@@QAEXK@Z ; ioComplexStringPrinter::SetTextColor

; 347  : 	m_Desc[3].AddTextPiece( FONT_SIZE_12, STR(10) );

  002a6	53		 push	 ebx
  002a7	6a 0a		 push	 10			; 0000000aH
  002a9	68 00 00 00 00	 push	 OFFSET ??_C@_00CNPNBAHC@?$AA@
  002ae	68 00 00 00 00	 push	 OFFSET ??_C@_0CM@GMMOBCLN@GrowthAllDownDoneWnd?3?3ShowGrowth@
  002b3	ff d6		 call	 esi
  002b5	8b c8		 mov	 ecx, eax
  002b7	ff d7		 call	 edi
  002b9	f3 0f 10 05 00
	00 00 00	 movss	 xmm0, DWORD PTR __real@3f19999a
  002c1	50		 push	 eax
  002c2	8b 85 e4 fd ff
	ff		 mov	 eax, DWORD PTR _this$GSCopy$[ebp]
  002c8	51		 push	 ecx
  002c9	05 d8 01 00 00	 add	 eax, 472		; 000001d8H
  002ce	f3 0f 11 04 24	 movss	 DWORD PTR [esp], xmm0
  002d3	50		 push	 eax
  002d4	e8 00 00 00 00	 call	 ?AddTextPiece@ioComplexStringPrinter@@QAAXMPBDZZ ; ioComplexStringPrinter::AddTextPiece

; 348  : 	m_Desc[3].SetTextColor( TCT_DEFAULT_RED );

  002d9	8b 8d e4 fd ff
	ff		 mov	 ecx, DWORD PTR _this$GSCopy$[ebp]
  002df	83 c4 0c	 add	 esp, 12			; 0000000cH
  002e2	68 00 16 b9 ff	 push	 -4647424		; ffb91600H
  002e7	81 c1 d8 01 00
	00		 add	 ecx, 472		; 000001d8H
  002ed	e8 00 00 00 00	 call	 ?SetTextColor@ioComplexStringPrinter@@QAEXK@Z ; ioComplexStringPrinter::SetTextColor

; 349  : 	m_Desc[3].AddTextPiece( FONT_SIZE_12, STR(11), szPoint );

  002f2	8d 85 e8 fd ff
	ff		 lea	 eax, DWORD PTR _szPoint$[ebp]
  002f8	50		 push	 eax
  002f9	53		 push	 ebx
  002fa	6a 0b		 push	 11			; 0000000bH
  002fc	68 00 00 00 00	 push	 OFFSET ??_C@_00CNPNBAHC@?$AA@
  00301	68 00 00 00 00	 push	 OFFSET ??_C@_0CM@GMMOBCLN@GrowthAllDownDoneWnd?3?3ShowGrowth@
  00306	ff d6		 call	 esi
  00308	8b c8		 mov	 ecx, eax
  0030a	ff d7		 call	 edi
  0030c	f3 0f 10 05 00
	00 00 00	 movss	 xmm0, DWORD PTR __real@3f19999a
  00314	50		 push	 eax
  00315	51		 push	 ecx
  00316	8b 8d e4 fd ff
	ff		 mov	 ecx, DWORD PTR _this$GSCopy$[ebp]
  0031c	81 c1 d8 01 00
	00		 add	 ecx, 472		; 000001d8H
  00322	f3 0f 11 04 24	 movss	 DWORD PTR [esp], xmm0
  00327	e8 00 00 00 00	 call	 ?AddTextPiece@ioComplexStringPrinter@@QAEXMPBD0@Z ; ioComplexStringPrinter::AddTextPiece

; 350  : 
; 351  : 	m_Desc[4].SetTextStyle( TS_NORMAL );

  0032c	8b 8d e4 fd ff
	ff		 mov	 ecx, DWORD PTR _this$GSCopy$[ebp]
  00332	81 c1 f8 01 00
	00		 add	 ecx, 504		; 000001f8H
  00338	53		 push	 ebx
  00339	e8 00 00 00 00	 call	 ?SetTextStyle@ioComplexStringPrinter@@QAEXW4TextStyle@@@Z ; ioComplexStringPrinter::SetTextStyle

; 352  : 	m_Desc[4].SetBkColor( 0, 0, 0 );

  0033e	8b 8d e4 fd ff
	ff		 mov	 ecx, DWORD PTR _this$GSCopy$[ebp]
  00344	53		 push	 ebx
  00345	53		 push	 ebx
  00346	53		 push	 ebx
  00347	81 c1 f8 01 00
	00		 add	 ecx, 504		; 000001f8H
  0034d	e8 00 00 00 00	 call	 ?SetBkColor@ioComplexStringPrinter@@QAEXHHH@Z ; ioComplexStringPrinter::SetBkColor

; 353  : 	m_Desc[4].SetTextColor( TCT_DEFAULT_DARKGRAY );

  00352	8b 8d e4 fd ff
	ff		 mov	 ecx, DWORD PTR _this$GSCopy$[ebp]
  00358	68 3a 3a 3a ff	 push	 -12961222		; ff3a3a3aH
  0035d	81 c1 f8 01 00
	00		 add	 ecx, 504		; 000001f8H
  00363	e8 00 00 00 00	 call	 ?SetTextColor@ioComplexStringPrinter@@QAEXK@Z ; ioComplexStringPrinter::SetTextColor

; 354  : 	m_Desc[4].AddTextPiece( FONT_SIZE_12, STR(12) );

  00368	53		 push	 ebx
  00369	6a 0c		 push	 12			; 0000000cH
  0036b	68 00 00 00 00	 push	 OFFSET ??_C@_00CNPNBAHC@?$AA@
  00370	68 00 00 00 00	 push	 OFFSET ??_C@_0CM@GMMOBCLN@GrowthAllDownDoneWnd?3?3ShowGrowth@
  00375	ff d6		 call	 esi
  00377	8b c8		 mov	 ecx, eax
  00379	ff d7		 call	 edi
  0037b	f3 0f 10 05 00
	00 00 00	 movss	 xmm0, DWORD PTR __real@3f19999a
  00383	50		 push	 eax
  00384	8b 85 e4 fd ff
	ff		 mov	 eax, DWORD PTR _this$GSCopy$[ebp]
  0038a	51		 push	 ecx
  0038b	05 f8 01 00 00	 add	 eax, 504		; 000001f8H
  00390	f3 0f 11 04 24	 movss	 DWORD PTR [esp], xmm0
  00395	50		 push	 eax
  00396	e8 00 00 00 00	 call	 ?AddTextPiece@ioComplexStringPrinter@@QAAXMPBDZZ ; ioComplexStringPrinter::AddTextPiece

; 355  : 	m_Desc[4].SetTextColor( TCT_DEFAULT_BLUE );

  0039b	8b 8d e4 fd ff
	ff		 mov	 ecx, DWORD PTR _this$GSCopy$[ebp]
  003a1	83 c4 0c	 add	 esp, 12			; 0000000cH
  003a4	68 b2 46 16 ff	 push	 -15317326		; ff1646b2H
  003a9	81 c1 f8 01 00
	00		 add	 ecx, 504		; 000001f8H
  003af	e8 00 00 00 00	 call	 ?SetTextColor@ioComplexStringPrinter@@QAEXK@Z ; ioComplexStringPrinter::SetTextColor

; 356  : 	m_Desc[4].AddTextPiece( FONT_SIZE_12, STR(13), szPeso );

  003b4	8d 85 ec fe ff
	ff		 lea	 eax, DWORD PTR _szPeso$[ebp]
  003ba	50		 push	 eax
  003bb	53		 push	 ebx
  003bc	6a 0d		 push	 13			; 0000000dH
  003be	68 00 00 00 00	 push	 OFFSET ??_C@_00CNPNBAHC@?$AA@
  003c3	68 00 00 00 00	 push	 OFFSET ??_C@_0CM@GMMOBCLN@GrowthAllDownDoneWnd?3?3ShowGrowth@
  003c8	ff d6		 call	 esi
  003ca	8b c8		 mov	 ecx, eax
  003cc	ff d7		 call	 edi
  003ce	f3 0f 10 05 00
	00 00 00	 movss	 xmm0, DWORD PTR __real@3f19999a
  003d6	50		 push	 eax
  003d7	51		 push	 ecx
  003d8	8b 8d e4 fd ff
	ff		 mov	 ecx, DWORD PTR _this$GSCopy$[ebp]
  003de	81 c1 f8 01 00
	00		 add	 ecx, 504		; 000001f8H
  003e4	f3 0f 11 04 24	 movss	 DWORD PTR [esp], xmm0
  003e9	e8 00 00 00 00	 call	 ?AddTextPiece@ioComplexStringPrinter@@QAEXMPBD0@Z ; ioComplexStringPrinter::AddTextPiece

; 357  : 
; 358  : 	m_Desc[5].SetTextStyle( TS_NORMAL );

  003ee	8b 8d e4 fd ff
	ff		 mov	 ecx, DWORD PTR _this$GSCopy$[ebp]
  003f4	81 c1 18 02 00
	00		 add	 ecx, 536		; 00000218H
  003fa	53		 push	 ebx
  003fb	e8 00 00 00 00	 call	 ?SetTextStyle@ioComplexStringPrinter@@QAEXW4TextStyle@@@Z ; ioComplexStringPrinter::SetTextStyle

; 359  : 	m_Desc[5].SetBkColor( 0, 0, 0 );

  00400	8b 8d e4 fd ff
	ff		 mov	 ecx, DWORD PTR _this$GSCopy$[ebp]
  00406	53		 push	 ebx
  00407	53		 push	 ebx
  00408	53		 push	 ebx
  00409	81 c1 18 02 00
	00		 add	 ecx, 536		; 00000218H
  0040f	e8 00 00 00 00	 call	 ?SetBkColor@ioComplexStringPrinter@@QAEXHHH@Z ; ioComplexStringPrinter::SetBkColor

; 360  : 	m_Desc[5].SetTextColor( TCT_DEFAULT_GREEN );

  00414	8b 8d e4 fd ff
	ff		 mov	 ecx, DWORD PTR _this$GSCopy$[ebp]
  0041a	68 22 72 11 ff	 push	 -15633886		; ff117222H
  0041f	81 c1 18 02 00
	00		 add	 ecx, 536		; 00000218H
  00425	e8 00 00 00 00	 call	 ?SetTextColor@ioComplexStringPrinter@@QAEXK@Z ; ioComplexStringPrinter::SetTextColor

; 361  : 	m_Desc[5].AddTextPiece( FONT_SIZE_17, STR(14) );

  0042a	53		 push	 ebx
  0042b	6a 0e		 push	 14			; 0000000eH
  0042d	68 00 00 00 00	 push	 OFFSET ??_C@_00CNPNBAHC@?$AA@
  00432	68 00 00 00 00	 push	 OFFSET ??_C@_0CM@GMMOBCLN@GrowthAllDownDoneWnd?3?3ShowGrowth@
  00437	ff d6		 call	 esi
  00439	8b c8		 mov	 ecx, eax
  0043b	ff d7		 call	 edi
  0043d	f3 0f 10 05 00
	00 00 00	 movss	 xmm0, DWORD PTR __real@3f59999a
  00445	50		 push	 eax
  00446	8b 85 e4 fd ff
	ff		 mov	 eax, DWORD PTR _this$GSCopy$[ebp]
  0044c	51		 push	 ecx
  0044d	05 18 02 00 00	 add	 eax, 536		; 00000218H
  00452	f3 0f 11 04 24	 movss	 DWORD PTR [esp], xmm0
  00457	50		 push	 eax
  00458	e8 00 00 00 00	 call	 ?AddTextPiece@ioComplexStringPrinter@@QAAXMPBDZZ ; ioComplexStringPrinter::AddTextPiece

; 362  : 
; 363  : 	ShowWnd();

  0045d	8b 8d e4 fd ff
	ff		 mov	 ecx, DWORD PTR _this$GSCopy$[ebp]
  00463	83 c4 0c	 add	 esp, 12			; 0000000cH
  00466	ff 15 00 00 00
	00		 call	 DWORD PTR __imp_?ShowWnd@ioWnd@@QAEXXZ

; 364  : }

  0046c	83 4d fc ff	 or	 DWORD PTR __$EHRec$[ebp+8], -1
  00470	8d 8d d0 fd ff
	ff		 lea	 ecx, DWORD PTR _szName$[ebp]
  00476	ff 15 00 00 00
	00		 call	 DWORD PTR __imp_??1ioHashString@@QAE@XZ
  0047c	e8 00 00 00 00	 call	 __EH_epilog3_GS
  00481	c2 10 00	 ret	 16			; 00000010H
_TEXT	ENDS
;	COMDAT text$x
text$x	SEGMENT
__unwindfunclet$?ShowGrowthAllDownDone@GrowthAllDownDoneWnd@@QAEXHH_J@Z$0:
  00000	8d 8d d0 fd ff
	ff		 lea	 ecx, DWORD PTR _szName$[ebp]
  00006	ff 25 00 00 00
	00		 jmp	 DWORD PTR __imp_??1ioHashString@@QAE@XZ
__ehhandler$?ShowGrowthAllDownDone@GrowthAllDownDoneWnd@@QAEXHH_J@Z:
  0000c	8b 54 24 08	 mov	 edx, DWORD PTR [esp+8]
  00010	8d 42 0c	 lea	 eax, DWORD PTR [edx+12]
  00013	8b 8a cc fd ff
	ff		 mov	 ecx, DWORD PTR [edx-564]
  00019	33 c8		 xor	 ecx, eax
  0001b	e8 00 00 00 00	 call	 @__security_check_cookie@4
  00020	8b 4a fc	 mov	 ecx, DWORD PTR [edx-4]
  00023	33 c8		 xor	 ecx, eax
  00025	e8 00 00 00 00	 call	 @__security_check_cookie@4
  0002a	b8 00 00 00 00	 mov	 eax, OFFSET __ehfuncinfo$?ShowGrowthAllDownDone@GrowthAllDownDoneWnd@@QAEXHH_J@Z
  0002f	e9 00 00 00 00	 jmp	 ___CxxFrameHandler3
text$x	ENDS
?ShowGrowthAllDownDone@GrowthAllDownDoneWnd@@QAEXHH_J@Z ENDP ; GrowthAllDownDoneWnd::ShowGrowthAllDownDone
PUBLIC	_this$GSCopy$
PUBLIC	__$ArrayPad$
; Function compile flags: /Ogsp
;	COMDAT ?AddRenderImage@GrowthAllDownDoneWnd@@UAEXABVioHashString@@PAVioUIRenderImage@@@Z
_TEXT	SEGMENT
_this$GSCopy$ = -24					; size = 4
__t$506712 = -20					; size = 12
__$ArrayPad$ = -4					; size = 4
_szType$ = 8						; size = 4
_pImage$ = 12						; size = 4
?AddRenderImage@GrowthAllDownDoneWnd@@UAEXABVioHashString@@PAVioUIRenderImage@@@Z PROC ; GrowthAllDownDoneWnd::AddRenderImage, COMDAT
; _this$ = ecx

; 367  : {

  00000	55		 push	 ebp
  00001	8b ec		 mov	 ebp, esp
  00003	83 ec 18	 sub	 esp, 24			; 00000018H
  00006	a1 00 00 00 00	 mov	 eax, DWORD PTR ___security_cookie
  0000b	33 c5		 xor	 eax, ebp
  0000d	89 45 fc	 mov	 DWORD PTR __$ArrayPad$[ebp], eax
  00010	53		 push	 ebx
  00011	8b 5d 0c	 mov	 ebx, DWORD PTR _pImage$[ebp]
  00014	56		 push	 esi
  00015	57		 push	 edi
  00016	8b 7d 08	 mov	 edi, DWORD PTR _szType$[ebp]

; 368  : 	if( szType == "back_effect" )

  00019	6a 02		 push	 2
  0001b	89 4d e8	 mov	 DWORD PTR _this$GSCopy$[ebp], ecx
  0001e	c7 45 ec 8f 8d
	88 81		 mov	 DWORD PTR __t$506712[ebp], -2121757297 ; 81888d8fH
  00025	c7 45 f0 b2 89
	8d 8c		 mov	 DWORD PTR __t$506712[ebp+4], -1936881230 ; 8c8d89b2H
  0002c	8d 45 ec	 lea	 eax, DWORD PTR __t$506712[ebp]
  0002f	c7 45 f4 88 8f
	9f 00		 mov	 DWORD PTR __t$506712[ebp+8], 10456968 ; 009f8f88H
  00036	59		 pop	 ecx
$LL111@AddRenderI@2:
  00037	81 30 ed ec eb
	ea		 xor	 DWORD PTR [eax], -353637139 ; eaebecedH
  0003d	83 c0 04	 add	 eax, 4
  00040	49		 dec	 ecx
  00041	75 f4		 jne	 SHORT $LL111@AddRenderI@2
  00043	6a 08		 push	 8
  00045	58		 pop	 eax
$LL108@AddRenderI@2:
  00046	8b c8		 mov	 ecx, eax
  00048	81 e1 03 00 00
	80		 and	 ecx, -2147483645	; 80000003H
  0004e	79 05		 jns	 SHORT $LN122@AddRenderI@2
  00050	49		 dec	 ecx
  00051	83 c9 fc	 or	 ecx, -4			; fffffffcH
  00054	41		 inc	 ecx
$LN122@AddRenderI@2:
  00055	b2 ed		 mov	 dl, -19			; ffffffedH
  00057	2a d1		 sub	 dl, cl
  00059	30 54 05 ec	 xor	 BYTE PTR __t$506712[ebp+eax], dl
  0005d	40		 inc	 eax
  0005e	83 f8 0b	 cmp	 eax, 11			; 0000000bH
  00061	7c e3		 jl	 SHORT $LL108@AddRenderI@2
  00063	8b cf		 mov	 ecx, edi
  00065	8d 75 ec	 lea	 esi, DWORD PTR __t$506712[ebp]
  00068	ff 15 00 00 00
	00		 call	 DWORD PTR __imp_?c_str@ioHashString@@QBEPBDXZ
$LL118@AddRenderI@2:
  0006e	8a 08		 mov	 cl, BYTE PTR [eax]
  00070	3a 0e		 cmp	 cl, BYTE PTR [esi]
  00072	75 1a		 jne	 SHORT $LN119@AddRenderI@2
  00074	84 c9		 test	 cl, cl
  00076	74 12		 je	 SHORT $LN120@AddRenderI@2
  00078	8a 48 01	 mov	 cl, BYTE PTR [eax+1]
  0007b	3a 4e 01	 cmp	 cl, BYTE PTR [esi+1]
  0007e	75 0e		 jne	 SHORT $LN119@AddRenderI@2
  00080	83 c0 02	 add	 eax, 2
  00083	83 c6 02	 add	 esi, 2
  00086	84 c9		 test	 cl, cl
  00088	75 e4		 jne	 SHORT $LL118@AddRenderI@2
$LN120@AddRenderI@2:
  0008a	33 c0		 xor	 eax, eax
  0008c	eb 05		 jmp	 SHORT $LN121@AddRenderI@2
$LN119@AddRenderI@2:
  0008e	1b c0		 sbb	 eax, eax
  00090	83 d8 ff	 sbb	 eax, -1
$LN121@AddRenderI@2:
  00093	85 c0		 test	 eax, eax
  00095	75 23		 jne	 SHORT $LN3@AddRenderI@2

; 369  : 	{
; 370  : 		SAFEDELETE( m_pBackEffect );

  00097	8b 75 e8	 mov	 esi, DWORD PTR _this$GSCopy$[ebp]
  0009a	8b 8e 74 01 00
	00		 mov	 ecx, DWORD PTR [esi+372]
  000a0	85 c9		 test	 ecx, ecx
  000a2	74 0e		 je	 SHORT $LN2@AddRenderI@2
  000a4	8b 01		 mov	 eax, DWORD PTR [ecx]
  000a6	6a 01		 push	 1
  000a8	ff 50 40	 call	 DWORD PTR [eax+64]
  000ab	83 a6 74 01 00
	00 00		 and	 DWORD PTR [esi+372], 0
$LN2@AddRenderI@2:

; 371  : 		m_pBackEffect = pImage;

  000b2	89 9e 74 01 00
	00		 mov	 DWORD PTR [esi+372], ebx

; 372  : 	}
; 373  : 	else

  000b8	eb 0b		 jmp	 SHORT $LN1@AddRenderI@2
$LN3@AddRenderI@2:

; 374  : 		ioWnd::AddRenderImage( szType, pImage );

  000ba	8b 4d e8	 mov	 ecx, DWORD PTR _this$GSCopy$[ebp]
  000bd	53		 push	 ebx
  000be	57		 push	 edi
  000bf	ff 15 00 00 00
	00		 call	 DWORD PTR __imp_?AddRenderImage@ioWnd@@UAEXABVioHashString@@PAVioUIRenderImage@@@Z
$LN1@AddRenderI@2:

; 375  : }

  000c5	8b 4d fc	 mov	 ecx, DWORD PTR __$ArrayPad$[ebp]
  000c8	5f		 pop	 edi
  000c9	5e		 pop	 esi
  000ca	33 cd		 xor	 ecx, ebp
  000cc	5b		 pop	 ebx
  000cd	e8 00 00 00 00	 call	 @__security_check_cookie@4
  000d2	c9		 leave
  000d3	c2 08 00	 ret	 8
?AddRenderImage@GrowthAllDownDoneWnd@@UAEXABVioHashString@@PAVioUIRenderImage@@@Z ENDP ; GrowthAllDownDoneWnd::AddRenderImage
_TEXT	ENDS
END
