; Listing generated by Microsoft (R) Optimizing Compiler Version 16.00.30319.01 

	TITLE	D:\Lost Saga For Developer\Youtube\Tutorial\Source\src\LSClient\GUI\GuildHomeAdminInfoListWnd.cpp
	.686P
	.XMM
	include listing.inc
	.model	flat

INCLUDELIB MSVCRT
INCLUDELIB OLDNAMES

PUBLIC	??_7GuildHomeAdminInfoListWnd@@6B@		; GuildHomeAdminInfoListWnd::`vftable'
PUBLIC	??0GuildHomeAdminInfoListWnd@@QAE@XZ		; GuildHomeAdminInfoListWnd::GuildHomeAdminInfoListWnd
PUBLIC	??_R4GuildHomeAdminInfoListWnd@@6B@		; GuildHomeAdminInfoListWnd::`RTTI Complete Object Locator'
PUBLIC	??_R0?AVGuildHomeAdminInfoListWnd@@@8		; GuildHomeAdminInfoListWnd `RTTI Type Descriptor'
PUBLIC	??_R3GuildHomeAdminInfoListWnd@@8		; GuildHomeAdminInfoListWnd::`RTTI Class Hierarchy Descriptor'
PUBLIC	??_R2GuildHomeAdminInfoListWnd@@8		; GuildHomeAdminInfoListWnd::`RTTI Base Class Array'
PUBLIC	??_R1A@?0A@EA@GuildHomeAdminInfoListWnd@@8	; GuildHomeAdminInfoListWnd::`RTTI Base Class Descriptor at (0,-1,0,64)'
PUBLIC	??_R1A@?0A@EA@ioWnd@@8				; ioWnd::`RTTI Base Class Descriptor at (0,-1,0,64)'
PUBLIC	??_R0?AVioWnd@@@8				; ioWnd `RTTI Type Descriptor'
PUBLIC	??_R3ioWnd@@8					; ioWnd::`RTTI Class Hierarchy Descriptor'
PUBLIC	??_R2ioWnd@@8					; ioWnd::`RTTI Base Class Array'
PUBLIC	?OnProcess@GuildHomeAdminInfoListWnd@@MAEXM@Z	; GuildHomeAdminInfoListWnd::OnProcess
PUBLIC	?iwm_show@GuildHomeAdminInfoListWnd@@MAEXXZ	; GuildHomeAdminInfoListWnd::iwm_show
EXTRN	__imp_??0ioWnd@@QAE@XZ:PROC
EXTRN	??_7type_info@@6B@:QWORD			; type_info::`vftable'
EXTRN	?AddRenderFrame@ioWnd@@UAEXABVioHashString@@PAVioUIRenderFrame@@@Z:PROC ; ioWnd::AddRenderFrame
EXTRN	?AddRenderImage@ioWnd@@UAEXABVioHashString@@PAVioUIRenderImage@@@Z:PROC ; ioWnd::AddRenderImage
EXTRN	?AddTooltipHelp@ioWnd@@UAEXABVioHashString@@00@Z:PROC ; ioWnd::AddTooltipHelp
EXTRN	?ParseExtraInfo@ioWnd@@UAEXAAVioXMLElement@@@Z:PROC ; ioWnd::ParseExtraInfo
EXTRN	?AddNamedRenderImage@ioWnd@@UAEXABVioHashString@@PAVioUIRenderImage@@@Z:PROC ; ioWnd::AddNamedRenderImage
EXTRN	?RemoveNamedRenderImage@ioWnd@@UAEXABVioHashString@@@Z:PROC ; ioWnd::RemoveNamedRenderImage
EXTRN	?GetNamedRenderImage@ioWnd@@UBEPAVioUIRenderImage@@ABVioHashString@@@Z:PROC ; ioWnd::GetNamedRenderImage
EXTRN	?SetWindowAlpha@ioWnd@@UAEXH@Z:PROC		; ioWnd::SetWindowAlpha
EXTRN	?SetActive@ioWnd@@UAEXXZ:PROC			; ioWnd::SetActive
EXTRN	?SetInActive@ioWnd@@UAEXXZ:PROC			; ioWnd::SetInActive
EXTRN	?ClearElementImageList@ioWnd@@UAEXXZ:PROC	; ioWnd::ClearElementImageList
EXTRN	?SetSize@ioWnd@@UAEXHH@Z:PROC			; ioWnd::SetSize
EXTRN	?SetPositionToDefault@ioWnd@@UAEXHH_N0@Z:PROC	; ioWnd::SetPositionToDefault
EXTRN	?IsNeedProcess@ioWnd@@UBE_NXZ:PROC		; ioWnd::IsNeedProcess
EXTRN	?IsCanMouseReaction@ioWnd@@UBE_NXZ:PROC		; ioWnd::IsCanMouseReaction
EXTRN	?AddChild@ioWnd@@UAEXPAV1@@Z:PROC		; ioWnd::AddChild
EXTRN	?DeleteChild@ioWnd@@UAEXK@Z:PROC		; ioWnd::DeleteChild
EXTRN	?DeleteAllChild@ioWnd@@UAEXXZ:PROC		; ioWnd::DeleteAllChild
EXTRN	?OnRenderShowAndHide@ioWnd@@MAE_NXZ:PROC	; ioWnd::OnRenderShowAndHide
EXTRN	?OnRenderShowAndHideByDefault@ioWnd@@MAE_NK@Z:PROC ; ioWnd::OnRenderShowAndHideByDefault
EXTRN	?OnRenderShowAndHideByTop@ioWnd@@MAE_NK@Z:PROC	; ioWnd::OnRenderShowAndHideByTop
EXTRN	?OnRenderShowAndHideByDown@ioWnd@@MAE_NK@Z:PROC	; ioWnd::OnRenderShowAndHideByDown
EXTRN	?OnRender@ioWnd@@MAEXXZ:PROC			; ioWnd::OnRender
EXTRN	?OnRenderAfterChild@ioWnd@@MAEXXZ:PROC		; ioWnd::OnRenderAfterChild
EXTRN	?OnMouseProcess@ioWnd@@MAEXABVioMouse@@@Z:PROC	; ioWnd::OnMouseProcess
EXTRN	?CheckFrameReSize@ioWnd@@MAEXHHHH@Z:PROC	; ioWnd::CheckFrameReSize
EXTRN	?RenderImageList@ioWnd@@MAEXHHW4UIRenderType@@@Z:PROC ; ioWnd::RenderImageList
EXTRN	?iwm_create@ioWnd@@UAEXXZ:PROC			; ioWnd::iwm_create
EXTRN	?iwm_destroy@ioWnd@@UAEXXZ:PROC			; ioWnd::iwm_destroy
EXTRN	?iwm_lbuttondown@ioWnd@@UAEXABVioMouse@@@Z:PROC	; ioWnd::iwm_lbuttondown
EXTRN	?iwm_lbuttonup@ioWnd@@UAEXABVioMouse@@@Z:PROC	; ioWnd::iwm_lbuttonup
EXTRN	?iwm_lbuttonDBLCLK@ioWnd@@UAEXABVioMouse@@@Z:PROC ; ioWnd::iwm_lbuttonDBLCLK
EXTRN	?iwm_rbuttondown@ioWnd@@UAEXABVioMouse@@@Z:PROC	; ioWnd::iwm_rbuttondown
EXTRN	?iwm_rbuttonup@ioWnd@@UAEXABVioMouse@@@Z:PROC	; ioWnd::iwm_rbuttonup
EXTRN	?iwm_command@ioWnd@@UAEXPAV1@HK@Z:PROC		; ioWnd::iwm_command
EXTRN	?iwm_mouseover@ioWnd@@UAEXABVioMouse@@@Z:PROC	; ioWnd::iwm_mouseover
EXTRN	?iwm_mousemove@ioWnd@@UAEXABVioMouse@@@Z:PROC	; ioWnd::iwm_mousemove
EXTRN	?iwm_mouseleave@ioWnd@@UAEXABVioMouse@@@Z:PROC	; ioWnd::iwm_mouseleave
EXTRN	?iwm_vscroll@ioWnd@@UAEXKH@Z:PROC		; ioWnd::iwm_vscroll
EXTRN	?iwm_wheel@ioWnd@@UAEXH@Z:PROC			; ioWnd::iwm_wheel
EXTRN	?iwm_hide@ioWnd@@UAEXXZ:PROC			; ioWnd::iwm_hide
EXTRN	?iwm_esc@ioWnd@@UAE_NXZ:PROC			; ioWnd::iwm_esc
EXTRN	?iwm_spacebar@ioWnd@@UAE_NXZ:PROC		; ioWnd::iwm_spacebar
EXTRN	?iwm_gototop@ioWnd@@UAEXXZ:PROC			; ioWnd::iwm_gototop
EXTRN	?iwm_dragenter@ioWnd@@UAE?AW4IWDropEffect@@PAVioDragItem@@ABVioMouse@@@Z:PROC ; ioWnd::iwm_dragenter
EXTRN	?iwm_dragover@ioWnd@@UAE?AW4IWDropEffect@@PAVioDragItem@@ABVioMouse@@@Z:PROC ; ioWnd::iwm_dragover
EXTRN	?iwm_dragleave@ioWnd@@UAEXXZ:PROC		; ioWnd::iwm_dragleave
EXTRN	?iwm_dropitem@ioWnd@@UAE_NPAVioDragItem@@ABVioMouse@@PAV1@@Z:PROC ; ioWnd::iwm_dropitem
EXTRN	?iwm_dropdone@ioWnd@@UAEXPAVioDragItem@@PAV1@_N@Z:PROC ; ioWnd::iwm_dropdone
EXTRN	?IsEXType@ioWnd@@UBE_NXZ:PROC			; ioWnd::IsEXType
EXTRN	?GetWndType@ioWnd@@UBEKXZ:PROC			; ioWnd::GetWndType
EXTRN	?RenderWnd@ioWnd@@UAEXXZ:PROC			; ioWnd::RenderWnd
EXTRN	?SetIDEX@ioWnd@@UAEXAAK_N@Z:PROC		; ioWnd::SetIDEX
EXTRN	?ParseXML@ioWnd@@UAEXAAVioXMLElement@@@Z:PROC	; ioWnd::ParseXML
EXTRN	?GetHeaderFileName@ioWnd@@UAEPBDXZ:PROC		; ioWnd::GetHeaderFileName
EXTRN	?GetTemplateName@ioWnd@@UAEPBDXZ:PROC		; ioWnd::GetTemplateName
EXTRN	?GetDefClassName@ioWnd@@UBEPBDXZ:PROC		; ioWnd::GetDefClassName
EXTRN	?_Clone@ioWnd@@UAEPAV1@XZ:PROC			; ioWnd::_Clone
EXTRN	?Copy@ioWnd@@UAEXPAV1@@Z:PROC			; ioWnd::Copy
EXTRN	?Save@ioWnd@@UAE_NAAVioXMLElement@@@Z:PROC	; ioWnd::Save
EXTRN	?SetSaveData@ioWnd@@UAEXAAVioXMLElement@@@Z:PROC ; ioWnd::SetSaveData
EXTRN	?SetPosX@ioWnd@@UAEXH@Z:PROC			; ioWnd::SetPosX
EXTRN	?SetPosY@ioWnd@@UAEXH@Z:PROC			; ioWnd::SetPosY
EXTRN	?SetWidth@ioWnd@@UAEXH@Z:PROC			; ioWnd::SetWidth
EXTRN	?SetHeight@ioWnd@@UAEXH@Z:PROC			; ioWnd::SetHeight
EXTRN	?GetNumFixedRenderFrame@ioWnd@@UBEHXZ:PROC	; ioWnd::GetNumFixedRenderFrame
EXTRN	?GetFixedRenderFrameType@ioWnd@@UAEPBDH@Z:PROC	; ioWnd::GetFixedRenderFrameType
EXTRN	?GetRenderFrame@ioWnd@@UAEPAPAVioUIRenderElement@@PBD@Z:PROC ; ioWnd::GetRenderFrame
EXTRN	?GetNumFixedRenderImage@ioWnd@@UBEHXZ:PROC	; ioWnd::GetNumFixedRenderImage
EXTRN	?GetFixedRenderImageType@ioWnd@@UAEPBDH@Z:PROC	; ioWnd::GetFixedRenderImageType
EXTRN	?GetRenderImage@ioWnd@@UAEPAPAVioUIRenderElement@@PBD@Z:PROC ; ioWnd::GetRenderImage
EXTRN	?AddEffect@ioWnd@@UAEXABVioHashString@@PAVioUI3DEffectRender@@@Z:PROC ; ioWnd::AddEffect
EXTRN	?GetEffect@ioWnd@@UAEPAVioUI3DEffectRender@@VioHashString@@@Z:PROC ; ioWnd::GetEffect
EXTRN	??_EGuildHomeAdminInfoListWnd@@UAEPAXI@Z:PROC	; GuildHomeAdminInfoListWnd::`vector deleting destructor'
;	COMDAT ??_R2ioWnd@@8
; File d:\lost saga for developer\youtube\tutorial\source\src\lsclient\gui\guildhomeadmininfolistwnd.cpp
rdata$r	SEGMENT
??_R2ioWnd@@8 DD FLAT:??_R1A@?0A@EA@ioWnd@@8		; ioWnd::`RTTI Base Class Array'
rdata$r	ENDS
;	COMDAT ??_R3ioWnd@@8
rdata$r	SEGMENT
??_R3ioWnd@@8 DD 00H					; ioWnd::`RTTI Class Hierarchy Descriptor'
	DD	00H
	DD	01H
	DD	FLAT:??_R2ioWnd@@8
rdata$r	ENDS
;	COMDAT ??_R0?AVioWnd@@@8
_DATA	SEGMENT
??_R0?AVioWnd@@@8 DD FLAT:??_7type_info@@6B@		; ioWnd `RTTI Type Descriptor'
	DD	00H
	DB	'.?AVioWnd@@', 00H
_DATA	ENDS
;	COMDAT ??_R1A@?0A@EA@ioWnd@@8
rdata$r	SEGMENT
??_R1A@?0A@EA@ioWnd@@8 DD FLAT:??_R0?AVioWnd@@@8	; ioWnd::`RTTI Base Class Descriptor at (0,-1,0,64)'
	DD	00H
	DD	00H
	DD	0ffffffffH
	DD	00H
	DD	040H
	DD	FLAT:??_R3ioWnd@@8
rdata$r	ENDS
;	COMDAT ??_R1A@?0A@EA@GuildHomeAdminInfoListWnd@@8
rdata$r	SEGMENT
??_R1A@?0A@EA@GuildHomeAdminInfoListWnd@@8 DD FLAT:??_R0?AVGuildHomeAdminInfoListWnd@@@8 ; GuildHomeAdminInfoListWnd::`RTTI Base Class Descriptor at (0,-1,0,64)'
	DD	01H
	DD	00H
	DD	0ffffffffH
	DD	00H
	DD	040H
	DD	FLAT:??_R3GuildHomeAdminInfoListWnd@@8
rdata$r	ENDS
;	COMDAT ??_R2GuildHomeAdminInfoListWnd@@8
rdata$r	SEGMENT
??_R2GuildHomeAdminInfoListWnd@@8 DD FLAT:??_R1A@?0A@EA@GuildHomeAdminInfoListWnd@@8 ; GuildHomeAdminInfoListWnd::`RTTI Base Class Array'
	DD	FLAT:??_R1A@?0A@EA@ioWnd@@8
rdata$r	ENDS
;	COMDAT ??_R3GuildHomeAdminInfoListWnd@@8
rdata$r	SEGMENT
??_R3GuildHomeAdminInfoListWnd@@8 DD 00H		; GuildHomeAdminInfoListWnd::`RTTI Class Hierarchy Descriptor'
	DD	00H
	DD	02H
	DD	FLAT:??_R2GuildHomeAdminInfoListWnd@@8
rdata$r	ENDS
;	COMDAT ??_R0?AVGuildHomeAdminInfoListWnd@@@8
_DATA	SEGMENT
??_R0?AVGuildHomeAdminInfoListWnd@@@8 DD FLAT:??_7type_info@@6B@ ; GuildHomeAdminInfoListWnd `RTTI Type Descriptor'
	DD	00H
	DB	'.?AVGuildHomeAdminInfoListWnd@@', 00H
_DATA	ENDS
;	COMDAT ??_R4GuildHomeAdminInfoListWnd@@6B@
rdata$r	SEGMENT
??_R4GuildHomeAdminInfoListWnd@@6B@ DD 00H		; GuildHomeAdminInfoListWnd::`RTTI Complete Object Locator'
	DD	00H
	DD	00H
	DD	FLAT:??_R0?AVGuildHomeAdminInfoListWnd@@@8
	DD	FLAT:??_R3GuildHomeAdminInfoListWnd@@8
rdata$r	ENDS
;	COMDAT ??_7GuildHomeAdminInfoListWnd@@6B@
CONST	SEGMENT
??_7GuildHomeAdminInfoListWnd@@6B@ DD FLAT:??_R4GuildHomeAdminInfoListWnd@@6B@ ; GuildHomeAdminInfoListWnd::`vftable'
	DD	FLAT:?AddRenderFrame@ioWnd@@UAEXABVioHashString@@PAVioUIRenderFrame@@@Z
	DD	FLAT:?AddRenderImage@ioWnd@@UAEXABVioHashString@@PAVioUIRenderImage@@@Z
	DD	FLAT:?AddTooltipHelp@ioWnd@@UAEXABVioHashString@@00@Z
	DD	FLAT:?ParseExtraInfo@ioWnd@@UAEXAAVioXMLElement@@@Z
	DD	FLAT:?AddNamedRenderImage@ioWnd@@UAEXABVioHashString@@PAVioUIRenderImage@@@Z
	DD	FLAT:?RemoveNamedRenderImage@ioWnd@@UAEXABVioHashString@@@Z
	DD	FLAT:?GetNamedRenderImage@ioWnd@@UBEPAVioUIRenderImage@@ABVioHashString@@@Z
	DD	FLAT:?SetWindowAlpha@ioWnd@@UAEXH@Z
	DD	FLAT:?SetActive@ioWnd@@UAEXXZ
	DD	FLAT:?SetInActive@ioWnd@@UAEXXZ
	DD	FLAT:?ClearElementImageList@ioWnd@@UAEXXZ
	DD	FLAT:?SetSize@ioWnd@@UAEXHH@Z
	DD	FLAT:?SetPositionToDefault@ioWnd@@UAEXHH_N0@Z
	DD	FLAT:?IsNeedProcess@ioWnd@@UBE_NXZ
	DD	FLAT:?IsCanMouseReaction@ioWnd@@UBE_NXZ
	DD	FLAT:?AddChild@ioWnd@@UAEXPAV1@@Z
	DD	FLAT:?DeleteChild@ioWnd@@UAEXK@Z
	DD	FLAT:?DeleteAllChild@ioWnd@@UAEXXZ
	DD	FLAT:?OnRenderShowAndHide@ioWnd@@MAE_NXZ
	DD	FLAT:?OnRenderShowAndHideByDefault@ioWnd@@MAE_NK@Z
	DD	FLAT:?OnRenderShowAndHideByTop@ioWnd@@MAE_NK@Z
	DD	FLAT:?OnRenderShowAndHideByDown@ioWnd@@MAE_NK@Z
	DD	FLAT:?OnRender@ioWnd@@MAEXXZ
	DD	FLAT:?OnRenderAfterChild@ioWnd@@MAEXXZ
	DD	FLAT:?OnProcess@GuildHomeAdminInfoListWnd@@MAEXM@Z
	DD	FLAT:?OnMouseProcess@ioWnd@@MAEXABVioMouse@@@Z
	DD	FLAT:?CheckFrameReSize@ioWnd@@MAEXHHHH@Z
	DD	FLAT:?RenderImageList@ioWnd@@MAEXHHW4UIRenderType@@@Z
	DD	FLAT:?iwm_create@ioWnd@@UAEXXZ
	DD	FLAT:?iwm_destroy@ioWnd@@UAEXXZ
	DD	FLAT:?iwm_lbuttondown@ioWnd@@UAEXABVioMouse@@@Z
	DD	FLAT:?iwm_lbuttonup@ioWnd@@UAEXABVioMouse@@@Z
	DD	FLAT:?iwm_lbuttonDBLCLK@ioWnd@@UAEXABVioMouse@@@Z
	DD	FLAT:?iwm_rbuttondown@ioWnd@@UAEXABVioMouse@@@Z
	DD	FLAT:?iwm_rbuttonup@ioWnd@@UAEXABVioMouse@@@Z
	DD	FLAT:?iwm_command@ioWnd@@UAEXPAV1@HK@Z
	DD	FLAT:?iwm_mouseover@ioWnd@@UAEXABVioMouse@@@Z
	DD	FLAT:?iwm_mousemove@ioWnd@@UAEXABVioMouse@@@Z
	DD	FLAT:?iwm_mouseleave@ioWnd@@UAEXABVioMouse@@@Z
	DD	FLAT:?iwm_vscroll@ioWnd@@UAEXKH@Z
	DD	FLAT:?iwm_wheel@ioWnd@@UAEXH@Z
	DD	FLAT:?iwm_show@GuildHomeAdminInfoListWnd@@MAEXXZ
	DD	FLAT:?iwm_hide@ioWnd@@UAEXXZ
	DD	FLAT:?iwm_esc@ioWnd@@UAE_NXZ
	DD	FLAT:?iwm_spacebar@ioWnd@@UAE_NXZ
	DD	FLAT:?iwm_gototop@ioWnd@@UAEXXZ
	DD	FLAT:?iwm_dragenter@ioWnd@@UAE?AW4IWDropEffect@@PAVioDragItem@@ABVioMouse@@@Z
	DD	FLAT:?iwm_dragover@ioWnd@@UAE?AW4IWDropEffect@@PAVioDragItem@@ABVioMouse@@@Z
	DD	FLAT:?iwm_dragleave@ioWnd@@UAEXXZ
	DD	FLAT:?iwm_dropitem@ioWnd@@UAE_NPAVioDragItem@@ABVioMouse@@PAV1@@Z
	DD	FLAT:?iwm_dropdone@ioWnd@@UAEXPAVioDragItem@@PAV1@_N@Z
	DD	FLAT:?IsEXType@ioWnd@@UBE_NXZ
	DD	FLAT:?GetWndType@ioWnd@@UBEKXZ
	DD	FLAT:?RenderWnd@ioWnd@@UAEXXZ
	DD	FLAT:?SetIDEX@ioWnd@@UAEXAAK_N@Z
	DD	FLAT:?ParseXML@ioWnd@@UAEXAAVioXMLElement@@@Z
	DD	FLAT:?GetHeaderFileName@ioWnd@@UAEPBDXZ
	DD	FLAT:?GetTemplateName@ioWnd@@UAEPBDXZ
	DD	FLAT:?GetDefClassName@ioWnd@@UBEPBDXZ
	DD	FLAT:?_Clone@ioWnd@@UAEPAV1@XZ
	DD	FLAT:?Copy@ioWnd@@UAEXPAV1@@Z
	DD	FLAT:?Save@ioWnd@@UAE_NAAVioXMLElement@@@Z
	DD	FLAT:?SetSaveData@ioWnd@@UAEXAAVioXMLElement@@@Z
	DD	FLAT:?SetPosX@ioWnd@@UAEXH@Z
	DD	FLAT:?SetPosY@ioWnd@@UAEXH@Z
	DD	FLAT:?SetWidth@ioWnd@@UAEXH@Z
	DD	FLAT:?SetHeight@ioWnd@@UAEXH@Z
	DD	FLAT:?GetNumFixedRenderFrame@ioWnd@@UBEHXZ
	DD	FLAT:?GetFixedRenderFrameType@ioWnd@@UAEPBDH@Z
	DD	FLAT:?GetRenderFrame@ioWnd@@UAEPAPAVioUIRenderElement@@PBD@Z
	DD	FLAT:?GetNumFixedRenderImage@ioWnd@@UBEHXZ
	DD	FLAT:?GetFixedRenderImageType@ioWnd@@UAEPBDH@Z
	DD	FLAT:?GetRenderImage@ioWnd@@UAEPAPAVioUIRenderElement@@PBD@Z
	DD	FLAT:?AddEffect@ioWnd@@UAEXABVioHashString@@PAVioUI3DEffectRender@@@Z
	DD	FLAT:?GetEffect@ioWnd@@UAEPAVioUI3DEffectRender@@VioHashString@@@Z
	DD	FLAT:??_EGuildHomeAdminInfoListWnd@@UAEPAXI@Z
; Function compile flags: /Ogsp
CONST	ENDS
;	COMDAT ??0GuildHomeAdminInfoListWnd@@QAE@XZ
_TEXT	SEGMENT
??0GuildHomeAdminInfoListWnd@@QAE@XZ PROC		; GuildHomeAdminInfoListWnd::GuildHomeAdminInfoListWnd, COMDAT
; _this$ = ecx

; 5    : {

  00000	56		 push	 esi
  00001	8b f1		 mov	 esi, ecx
  00003	ff 15 00 00 00
	00		 call	 DWORD PTR __imp_??0ioWnd@@QAE@XZ
  00009	83 a6 60 01 00
	00 00		 and	 DWORD PTR [esi+352], 0
  00010	c7 06 00 00 00
	00		 mov	 DWORD PTR [esi], OFFSET ??_7GuildHomeAdminInfoListWnd@@6B@

; 6    : }

  00016	8b c6		 mov	 eax, esi
  00018	5e		 pop	 esi
  00019	c3		 ret	 0
??0GuildHomeAdminInfoListWnd@@QAE@XZ ENDP		; GuildHomeAdminInfoListWnd::GuildHomeAdminInfoListWnd
_TEXT	ENDS
PUBLIC	??1GuildHomeAdminInfoListWnd@@UAE@XZ		; GuildHomeAdminInfoListWnd::~GuildHomeAdminInfoListWnd
EXTRN	__imp_??1ioWnd@@UAE@XZ:PROC
; Function compile flags: /Ogsp
;	COMDAT ??1GuildHomeAdminInfoListWnd@@UAE@XZ
_TEXT	SEGMENT
??1GuildHomeAdminInfoListWnd@@UAE@XZ PROC		; GuildHomeAdminInfoListWnd::~GuildHomeAdminInfoListWnd, COMDAT
; _this$ = ecx

; 9    : {

  00000	c7 01 00 00 00
	00		 mov	 DWORD PTR [ecx], OFFSET ??_7GuildHomeAdminInfoListWnd@@6B@

; 10   : 
; 11   : }

  00006	ff 25 00 00 00
	00		 jmp	 DWORD PTR __imp_??1ioWnd@@UAE@XZ
??1GuildHomeAdminInfoListWnd@@UAE@XZ ENDP		; GuildHomeAdminInfoListWnd::~GuildHomeAdminInfoListWnd
; Function compile flags: /Ogsp
_TEXT	ENDS
;	COMDAT ?iwm_show@GuildHomeAdminInfoListWnd@@MAEXXZ
_TEXT	SEGMENT
?iwm_show@GuildHomeAdminInfoListWnd@@MAEXXZ PROC	; GuildHomeAdminInfoListWnd::iwm_show, COMDAT
; _this$ = ecx

; 15   : }

  00000	c3		 ret	 0
?iwm_show@GuildHomeAdminInfoListWnd@@MAEXXZ ENDP	; GuildHomeAdminInfoListWnd::iwm_show
_TEXT	ENDS
PUBLIC	?UpdateUserList@GuildHomeAdminInfoListWnd@@QAEXPAVioGuildData@@@Z ; GuildHomeAdminInfoListWnd::UpdateUserList
; Function compile flags: /Ogsp
;	COMDAT ?UpdateUserList@GuildHomeAdminInfoListWnd@@QAEXPAVioGuildData@@@Z
_TEXT	SEGMENT
_pGuildData$ = 8					; size = 4
?UpdateUserList@GuildHomeAdminInfoListWnd@@QAEXPAVioGuildData@@@Z PROC ; GuildHomeAdminInfoListWnd::UpdateUserList, COMDAT
; _this$ = ecx

; 49   : {

  00000	55		 push	 ebp
  00001	8b ec		 mov	 ebp, esp

; 50   : 	m_pGuildData = pGuildData;

  00003	8b 45 08	 mov	 eax, DWORD PTR _pGuildData$[ebp]
  00006	89 81 60 01 00
	00		 mov	 DWORD PTR [ecx+352], eax

; 51   : }

  0000c	5d		 pop	 ebp
  0000d	c2 04 00	 ret	 4
?UpdateUserList@GuildHomeAdminInfoListWnd@@QAEXPAVioGuildData@@@Z ENDP ; GuildHomeAdminInfoListWnd::UpdateUserList
_TEXT	ENDS
PUBLIC	??_7GuildHomeAdminListBtn@@6B@			; GuildHomeAdminListBtn::`vftable'
PUBLIC	??0GuildHomeAdminListBtn@@QAE@XZ		; GuildHomeAdminListBtn::GuildHomeAdminListBtn
PUBLIC	??_R4GuildHomeAdminListBtn@@6B@			; GuildHomeAdminListBtn::`RTTI Complete Object Locator'
PUBLIC	??_R0?AVGuildHomeAdminListBtn@@@8		; GuildHomeAdminListBtn `RTTI Type Descriptor'
PUBLIC	??_R3GuildHomeAdminListBtn@@8			; GuildHomeAdminListBtn::`RTTI Class Hierarchy Descriptor'
PUBLIC	??_R2GuildHomeAdminListBtn@@8			; GuildHomeAdminListBtn::`RTTI Base Class Array'
PUBLIC	??_R1A@?0A@EA@GuildHomeAdminListBtn@@8		; GuildHomeAdminListBtn::`RTTI Base Class Descriptor at (0,-1,0,64)'
PUBLIC	??_R1A@?0A@EA@ioButton@@8			; ioButton::`RTTI Base Class Descriptor at (0,-1,0,64)'
PUBLIC	??_R0?AVioButton@@@8				; ioButton `RTTI Type Descriptor'
PUBLIC	??_R3ioButton@@8				; ioButton::`RTTI Class Hierarchy Descriptor'
PUBLIC	??_R2ioButton@@8				; ioButton::`RTTI Base Class Array'
PUBLIC	?AddRenderImage@GuildHomeAdminListBtn@@MAEXABVioHashString@@PAVioUIRenderImage@@@Z ; GuildHomeAdminListBtn::AddRenderImage
PUBLIC	?SetInActive@GuildHomeAdminListBtn@@UAEXXZ	; GuildHomeAdminListBtn::SetInActive
PUBLIC	?OnRender@GuildHomeAdminListBtn@@MAEXXZ		; GuildHomeAdminListBtn::OnRender
PUBLIC	?iwm_command@GuildHomeAdminListBtn@@UAEXPAVioWnd@@HK@Z ; GuildHomeAdminListBtn::iwm_command
EXTRN	__imp_??1ioHashString@@QAE@XZ:PROC
EXTRN	__imp_??1ioButton@@UAE@XZ:PROC
EXTRN	__imp_??0ioHashString@@QAE@XZ:PROC
EXTRN	__imp_??0ioButton@@QAE@XZ:PROC
EXTRN	___CxxFrameHandler3:PROC
EXTRN	@__security_check_cookie@4:PROC
EXTRN	__EH_epilog3:PROC
EXTRN	__EH_prolog3:PROC
EXTRN	?AddRenderFrame@ioButton@@UAEXABVioHashString@@PAVioUIRenderFrame@@@Z:PROC ; ioButton::AddRenderFrame
EXTRN	?ParseExtraInfo@ioButton@@UAEXAAVioXMLElement@@@Z:PROC ; ioButton::ParseExtraInfo
EXTRN	?SetWindowAlpha@ioButton@@UAEXH@Z:PROC		; ioButton::SetWindowAlpha
EXTRN	?OnProcess@ioWnd@@MAEXM@Z:PROC			; ioWnd::OnProcess
EXTRN	?CheckFrameReSize@ioButton@@MAEXHHHH@Z:PROC	; ioButton::CheckFrameReSize
EXTRN	?iwm_lbuttondown@ioButton@@UAEXABVioMouse@@@Z:PROC ; ioButton::iwm_lbuttondown
EXTRN	?iwm_lbuttonup@ioButton@@UAEXABVioMouse@@@Z:PROC ; ioButton::iwm_lbuttonup
EXTRN	?iwm_lbuttonDBLCLK@ioButton@@UAEXABVioMouse@@@Z:PROC ; ioButton::iwm_lbuttonDBLCLK
EXTRN	?iwm_rbuttondown@ioButton@@UAEXABVioMouse@@@Z:PROC ; ioButton::iwm_rbuttondown
EXTRN	?iwm_rbuttonup@ioButton@@UAEXABVioMouse@@@Z:PROC ; ioButton::iwm_rbuttonup
EXTRN	?iwm_mouseover@ioButton@@UAEXABVioMouse@@@Z:PROC ; ioButton::iwm_mouseover
EXTRN	?iwm_show@ioWnd@@UAEXXZ:PROC			; ioWnd::iwm_show
EXTRN	?GetWndType@ioButton@@UBEKXZ:PROC		; ioButton::GetWndType
EXTRN	?GetHeaderFileName@ioButton@@UAEPBDXZ:PROC	; ioButton::GetHeaderFileName
EXTRN	?GetTemplateName@ioButton@@UAEPBDXZ:PROC	; ioButton::GetTemplateName
EXTRN	?GetDefClassName@ioButton@@UBEPBDXZ:PROC	; ioButton::GetDefClassName
EXTRN	?_Clone@ioButton@@UAEPAVioWnd@@XZ:PROC		; ioButton::_Clone
EXTRN	?Copy@ioButton@@UAEXPAVioWnd@@@Z:PROC		; ioButton::Copy
EXTRN	?SetSaveData@ioButton@@UAEXAAVioXMLElement@@@Z:PROC ; ioButton::SetSaveData
EXTRN	?GetNumFixedRenderFrame@ioButton@@UBEHXZ:PROC	; ioButton::GetNumFixedRenderFrame
EXTRN	?GetFixedRenderFrameType@ioButton@@UAEPBDH@Z:PROC ; ioButton::GetFixedRenderFrameType
EXTRN	?GetRenderFrame@ioButton@@UAEPAPAVioUIRenderElement@@PBD@Z:PROC ; ioButton::GetRenderFrame
EXTRN	?GetNumFixedRenderImage@ioButton@@UBEHXZ:PROC	; ioButton::GetNumFixedRenderImage
EXTRN	?GetFixedRenderImageType@ioButton@@UAEPBDH@Z:PROC ; ioButton::GetFixedRenderImageType
EXTRN	?GetRenderImage@ioButton@@UAEPAPAVioUIRenderElement@@PBD@Z:PROC ; ioButton::GetRenderImage
EXTRN	??_EGuildHomeAdminListBtn@@UAEPAXI@Z:PROC	; GuildHomeAdminListBtn::`vector deleting destructor'
EXTRN	?OnDrawNormal@ioButton@@MAEXHH@Z:PROC		; ioButton::OnDrawNormal
EXTRN	?OnDrawOvered@ioButton@@MAEXHH@Z:PROC		; ioButton::OnDrawOvered
EXTRN	?OnDrawOveredAdd@ioButton@@MAEXHH@Z:PROC	; ioButton::OnDrawOveredAdd
EXTRN	?OnDrawPushed@ioButton@@MAEXHH@Z:PROC		; ioButton::OnDrawPushed
EXTRN	?OnDrawDisabled@ioButton@@MAEXHH@Z:PROC		; ioButton::OnDrawDisabled
EXTRN	?OnDrawExDisabledNormal@ioButton@@MAEXHH@Z:PROC	; ioButton::OnDrawExDisabledNormal
EXTRN	?OnDrawExDisabledOvered@ioButton@@MAEXHH@Z:PROC	; ioButton::OnDrawExDisabledOvered
EXTRN	?OnDrawExDisabledPushed@ioButton@@MAEXHH@Z:PROC	; ioButton::OnDrawExDisabledPushed
EXTRN	?OnDrawBack@ioButton@@MAEXHH@Z:PROC		; ioButton::OnDrawBack
EXTRN	?OnDrawNormalList@ioButton@@MAEXHH@Z:PROC	; ioButton::OnDrawNormalList
EXTRN	?OnDrawDisableList@ioButton@@MAEXHH@Z:PROC	; ioButton::OnDrawDisableList
;	COMDAT ??_R2ioButton@@8
rdata$r	SEGMENT
??_R2ioButton@@8 DD FLAT:??_R1A@?0A@EA@ioButton@@8	; ioButton::`RTTI Base Class Array'
	DD	FLAT:??_R1A@?0A@EA@ioWnd@@8
rdata$r	ENDS
;	COMDAT ??_R3ioButton@@8
rdata$r	SEGMENT
??_R3ioButton@@8 DD 00H					; ioButton::`RTTI Class Hierarchy Descriptor'
	DD	00H
	DD	02H
	DD	FLAT:??_R2ioButton@@8
rdata$r	ENDS
;	COMDAT ??_R0?AVioButton@@@8
_DATA	SEGMENT
??_R0?AVioButton@@@8 DD FLAT:??_7type_info@@6B@		; ioButton `RTTI Type Descriptor'
	DD	00H
	DB	'.?AVioButton@@', 00H
_DATA	ENDS
;	COMDAT ??_R1A@?0A@EA@ioButton@@8
rdata$r	SEGMENT
??_R1A@?0A@EA@ioButton@@8 DD FLAT:??_R0?AVioButton@@@8	; ioButton::`RTTI Base Class Descriptor at (0,-1,0,64)'
	DD	01H
	DD	00H
	DD	0ffffffffH
	DD	00H
	DD	040H
	DD	FLAT:??_R3ioButton@@8
rdata$r	ENDS
;	COMDAT ??_R1A@?0A@EA@GuildHomeAdminListBtn@@8
rdata$r	SEGMENT
??_R1A@?0A@EA@GuildHomeAdminListBtn@@8 DD FLAT:??_R0?AVGuildHomeAdminListBtn@@@8 ; GuildHomeAdminListBtn::`RTTI Base Class Descriptor at (0,-1,0,64)'
	DD	02H
	DD	00H
	DD	0ffffffffH
	DD	00H
	DD	040H
	DD	FLAT:??_R3GuildHomeAdminListBtn@@8
rdata$r	ENDS
;	COMDAT ??_R2GuildHomeAdminListBtn@@8
rdata$r	SEGMENT
??_R2GuildHomeAdminListBtn@@8 DD FLAT:??_R1A@?0A@EA@GuildHomeAdminListBtn@@8 ; GuildHomeAdminListBtn::`RTTI Base Class Array'
	DD	FLAT:??_R1A@?0A@EA@ioButton@@8
	DD	FLAT:??_R1A@?0A@EA@ioWnd@@8
rdata$r	ENDS
;	COMDAT ??_R3GuildHomeAdminListBtn@@8
rdata$r	SEGMENT
??_R3GuildHomeAdminListBtn@@8 DD 00H			; GuildHomeAdminListBtn::`RTTI Class Hierarchy Descriptor'
	DD	00H
	DD	03H
	DD	FLAT:??_R2GuildHomeAdminListBtn@@8
rdata$r	ENDS
;	COMDAT ??_R0?AVGuildHomeAdminListBtn@@@8
_DATA	SEGMENT
??_R0?AVGuildHomeAdminListBtn@@@8 DD FLAT:??_7type_info@@6B@ ; GuildHomeAdminListBtn `RTTI Type Descriptor'
	DD	00H
	DB	'.?AVGuildHomeAdminListBtn@@', 00H
_DATA	ENDS
;	COMDAT ??_R4GuildHomeAdminListBtn@@6B@
rdata$r	SEGMENT
??_R4GuildHomeAdminListBtn@@6B@ DD 00H			; GuildHomeAdminListBtn::`RTTI Complete Object Locator'
	DD	00H
	DD	00H
	DD	FLAT:??_R0?AVGuildHomeAdminListBtn@@@8
	DD	FLAT:??_R3GuildHomeAdminListBtn@@8
rdata$r	ENDS
;	COMDAT ??_7GuildHomeAdminListBtn@@6B@
CONST	SEGMENT
??_7GuildHomeAdminListBtn@@6B@ DD FLAT:??_R4GuildHomeAdminListBtn@@6B@ ; GuildHomeAdminListBtn::`vftable'
	DD	FLAT:?AddRenderFrame@ioButton@@UAEXABVioHashString@@PAVioUIRenderFrame@@@Z
	DD	FLAT:?AddRenderImage@GuildHomeAdminListBtn@@MAEXABVioHashString@@PAVioUIRenderImage@@@Z
	DD	FLAT:?AddTooltipHelp@ioWnd@@UAEXABVioHashString@@00@Z
	DD	FLAT:?ParseExtraInfo@ioButton@@UAEXAAVioXMLElement@@@Z
	DD	FLAT:?AddNamedRenderImage@ioWnd@@UAEXABVioHashString@@PAVioUIRenderImage@@@Z
	DD	FLAT:?RemoveNamedRenderImage@ioWnd@@UAEXABVioHashString@@@Z
	DD	FLAT:?GetNamedRenderImage@ioWnd@@UBEPAVioUIRenderImage@@ABVioHashString@@@Z
	DD	FLAT:?SetWindowAlpha@ioButton@@UAEXH@Z
	DD	FLAT:?SetActive@ioWnd@@UAEXXZ
	DD	FLAT:?SetInActive@GuildHomeAdminListBtn@@UAEXXZ
	DD	FLAT:?ClearElementImageList@ioWnd@@UAEXXZ
	DD	FLAT:?SetSize@ioWnd@@UAEXHH@Z
	DD	FLAT:?SetPositionToDefault@ioWnd@@UAEXHH_N0@Z
	DD	FLAT:?IsNeedProcess@ioWnd@@UBE_NXZ
	DD	FLAT:?IsCanMouseReaction@ioWnd@@UBE_NXZ
	DD	FLAT:?AddChild@ioWnd@@UAEXPAV1@@Z
	DD	FLAT:?DeleteChild@ioWnd@@UAEXK@Z
	DD	FLAT:?DeleteAllChild@ioWnd@@UAEXXZ
	DD	FLAT:?OnRenderShowAndHide@ioWnd@@MAE_NXZ
	DD	FLAT:?OnRenderShowAndHideByDefault@ioWnd@@MAE_NK@Z
	DD	FLAT:?OnRenderShowAndHideByTop@ioWnd@@MAE_NK@Z
	DD	FLAT:?OnRenderShowAndHideByDown@ioWnd@@MAE_NK@Z
	DD	FLAT:?OnRender@GuildHomeAdminListBtn@@MAEXXZ
	DD	FLAT:?OnRenderAfterChild@ioWnd@@MAEXXZ
	DD	FLAT:?OnProcess@ioWnd@@MAEXM@Z
	DD	FLAT:?OnMouseProcess@ioWnd@@MAEXABVioMouse@@@Z
	DD	FLAT:?CheckFrameReSize@ioButton@@MAEXHHHH@Z
	DD	FLAT:?RenderImageList@ioWnd@@MAEXHHW4UIRenderType@@@Z
	DD	FLAT:?iwm_create@ioWnd@@UAEXXZ
	DD	FLAT:?iwm_destroy@ioWnd@@UAEXXZ
	DD	FLAT:?iwm_lbuttondown@ioButton@@UAEXABVioMouse@@@Z
	DD	FLAT:?iwm_lbuttonup@ioButton@@UAEXABVioMouse@@@Z
	DD	FLAT:?iwm_lbuttonDBLCLK@ioButton@@UAEXABVioMouse@@@Z
	DD	FLAT:?iwm_rbuttondown@ioButton@@UAEXABVioMouse@@@Z
	DD	FLAT:?iwm_rbuttonup@ioButton@@UAEXABVioMouse@@@Z
	DD	FLAT:?iwm_command@GuildHomeAdminListBtn@@UAEXPAVioWnd@@HK@Z
	DD	FLAT:?iwm_mouseover@ioButton@@UAEXABVioMouse@@@Z
	DD	FLAT:?iwm_mousemove@ioWnd@@UAEXABVioMouse@@@Z
	DD	FLAT:?iwm_mouseleave@ioWnd@@UAEXABVioMouse@@@Z
	DD	FLAT:?iwm_vscroll@ioWnd@@UAEXKH@Z
	DD	FLAT:?iwm_wheel@ioWnd@@UAEXH@Z
	DD	FLAT:?iwm_show@ioWnd@@UAEXXZ
	DD	FLAT:?iwm_hide@ioWnd@@UAEXXZ
	DD	FLAT:?iwm_esc@ioWnd@@UAE_NXZ
	DD	FLAT:?iwm_spacebar@ioWnd@@UAE_NXZ
	DD	FLAT:?iwm_gototop@ioWnd@@UAEXXZ
	DD	FLAT:?iwm_dragenter@ioWnd@@UAE?AW4IWDropEffect@@PAVioDragItem@@ABVioMouse@@@Z
	DD	FLAT:?iwm_dragover@ioWnd@@UAE?AW4IWDropEffect@@PAVioDragItem@@ABVioMouse@@@Z
	DD	FLAT:?iwm_dragleave@ioWnd@@UAEXXZ
	DD	FLAT:?iwm_dropitem@ioWnd@@UAE_NPAVioDragItem@@ABVioMouse@@PAV1@@Z
	DD	FLAT:?iwm_dropdone@ioWnd@@UAEXPAVioDragItem@@PAV1@_N@Z
	DD	FLAT:?IsEXType@ioWnd@@UBE_NXZ
	DD	FLAT:?GetWndType@ioButton@@UBEKXZ
	DD	FLAT:?RenderWnd@ioWnd@@UAEXXZ
	DD	FLAT:?SetIDEX@ioWnd@@UAEXAAK_N@Z
	DD	FLAT:?ParseXML@ioWnd@@UAEXAAVioXMLElement@@@Z
	DD	FLAT:?GetHeaderFileName@ioButton@@UAEPBDXZ
	DD	FLAT:?GetTemplateName@ioButton@@UAEPBDXZ
	DD	FLAT:?GetDefClassName@ioButton@@UBEPBDXZ
	DD	FLAT:?_Clone@ioButton@@UAEPAVioWnd@@XZ
	DD	FLAT:?Copy@ioButton@@UAEXPAVioWnd@@@Z
	DD	FLAT:?Save@ioWnd@@UAE_NAAVioXMLElement@@@Z
	DD	FLAT:?SetSaveData@ioButton@@UAEXAAVioXMLElement@@@Z
	DD	FLAT:?SetPosX@ioWnd@@UAEXH@Z
	DD	FLAT:?SetPosY@ioWnd@@UAEXH@Z
	DD	FLAT:?SetWidth@ioWnd@@UAEXH@Z
	DD	FLAT:?SetHeight@ioWnd@@UAEXH@Z
	DD	FLAT:?GetNumFixedRenderFrame@ioButton@@UBEHXZ
	DD	FLAT:?GetFixedRenderFrameType@ioButton@@UAEPBDH@Z
	DD	FLAT:?GetRenderFrame@ioButton@@UAEPAPAVioUIRenderElement@@PBD@Z
	DD	FLAT:?GetNumFixedRenderImage@ioButton@@UBEHXZ
	DD	FLAT:?GetFixedRenderImageType@ioButton@@UAEPBDH@Z
	DD	FLAT:?GetRenderImage@ioButton@@UAEPAPAVioUIRenderElement@@PBD@Z
	DD	FLAT:?AddEffect@ioWnd@@UAEXABVioHashString@@PAVioUI3DEffectRender@@@Z
	DD	FLAT:?GetEffect@ioWnd@@UAEPAVioUI3DEffectRender@@VioHashString@@@Z
	DD	FLAT:??_EGuildHomeAdminListBtn@@UAEPAXI@Z
	DD	FLAT:?OnDrawNormal@ioButton@@MAEXHH@Z
	DD	FLAT:?OnDrawOvered@ioButton@@MAEXHH@Z
	DD	FLAT:?OnDrawOveredAdd@ioButton@@MAEXHH@Z
	DD	FLAT:?OnDrawPushed@ioButton@@MAEXHH@Z
	DD	FLAT:?OnDrawDisabled@ioButton@@MAEXHH@Z
	DD	FLAT:?OnDrawExDisabledNormal@ioButton@@MAEXHH@Z
	DD	FLAT:?OnDrawExDisabledOvered@ioButton@@MAEXHH@Z
	DD	FLAT:?OnDrawExDisabledPushed@ioButton@@MAEXHH@Z
	DD	FLAT:?OnDrawBack@ioButton@@MAEXHH@Z
	DD	FLAT:?OnDrawNormalList@ioButton@@MAEXHH@Z
	DD	FLAT:?OnDrawDisableList@ioButton@@MAEXHH@Z
CONST	ENDS
;	COMDAT xdata$x
xdata$x	SEGMENT
__unwindtable$??0GuildHomeAdminListBtn@@QAE@XZ DD 0ffffffffH
	DD	FLAT:__unwindfunclet$??0GuildHomeAdminListBtn@@QAE@XZ$0
	DD	00H
	DD	FLAT:__unwindfunclet$??0GuildHomeAdminListBtn@@QAE@XZ$1
__ehfuncinfo$??0GuildHomeAdminListBtn@@QAE@XZ DD 019930522H
	DD	02H
	DD	FLAT:__unwindtable$??0GuildHomeAdminListBtn@@QAE@XZ
	DD	2 DUP(00H)
	DD	2 DUP(00H)
	DD	00H
	DD	01H
; Function compile flags: /Ogsp
xdata$x	ENDS
;	COMDAT ??0GuildHomeAdminListBtn@@QAE@XZ
_TEXT	SEGMENT
_this$ = -16						; size = 4
__$EHRec$ = -12						; size = 12
??0GuildHomeAdminListBtn@@QAE@XZ PROC			; GuildHomeAdminListBtn::GuildHomeAdminListBtn, COMDAT
; _this$ = ecx

; 56   : {

  00000	6a 04		 push	 4
  00002	b8 00 00 00 00	 mov	 eax, __ehhandler$??0GuildHomeAdminListBtn@@QAE@XZ
  00007	e8 00 00 00 00	 call	 __EH_prolog3
  0000c	8b f1		 mov	 esi, ecx
  0000e	89 75 f0	 mov	 DWORD PTR _this$[ebp], esi
  00011	ff 15 00 00 00
	00		 call	 DWORD PTR __imp_??0ioButton@@QAE@XZ
  00017	8b 3d 00 00 00
	00		 mov	 edi, DWORD PTR __imp_??0ioHashString@@QAE@XZ
  0001d	83 65 fc 00	 and	 DWORD PTR __$EHRec$[ebp+8], 0
  00021	8d 8e 04 02 00
	00		 lea	 ecx, DWORD PTR [esi+516]
  00027	c7 06 00 00 00
	00		 mov	 DWORD PTR [esi], OFFSET ??_7GuildHomeAdminListBtn@@6B@
  0002d	ff d7		 call	 edi
  0002f	8d 8e 14 02 00
	00		 lea	 ecx, DWORD PTR [esi+532]
  00035	c6 45 fc 01	 mov	 BYTE PTR __$EHRec$[ebp+8], 1
  00039	ff d7		 call	 edi

; 57   : 	m_pMasterMark		= NULL;

  0003b	83 a6 fc 01 00
	00 00		 and	 DWORD PTR [esi+508], 0

; 58   : 	m_pSecondMasterMark = NULL;	

  00042	83 a6 00 02 00
	00 00		 and	 DWORD PTR [esi+512], 0

; 59   : }

  00049	8b c6		 mov	 eax, esi
  0004b	e8 00 00 00 00	 call	 __EH_epilog3
  00050	c3		 ret	 0
_TEXT	ENDS
;	COMDAT text$x
text$x	SEGMENT
__unwindfunclet$??0GuildHomeAdminListBtn@@QAE@XZ$0:
  00000	8b 4d f0	 mov	 ecx, DWORD PTR _this$[ebp]
  00003	ff 25 00 00 00
	00		 jmp	 DWORD PTR __imp_??1ioButton@@UAE@XZ
__unwindfunclet$??0GuildHomeAdminListBtn@@QAE@XZ$1:
  00009	8b 4d f0	 mov	 ecx, DWORD PTR _this$[ebp]
  0000c	81 c1 04 02 00
	00		 add	 ecx, 516		; 00000204H
  00012	ff 25 00 00 00
	00		 jmp	 DWORD PTR __imp_??1ioHashString@@QAE@XZ
__ehhandler$??0GuildHomeAdminListBtn@@QAE@XZ:
  00018	8b 54 24 08	 mov	 edx, DWORD PTR [esp+8]
  0001c	8d 42 0c	 lea	 eax, DWORD PTR [edx+12]
  0001f	8b 4a ec	 mov	 ecx, DWORD PTR [edx-20]
  00022	33 c8		 xor	 ecx, eax
  00024	e8 00 00 00 00	 call	 @__security_check_cookie@4
  00029	b8 00 00 00 00	 mov	 eax, OFFSET __ehfuncinfo$??0GuildHomeAdminListBtn@@QAE@XZ
  0002e	e9 00 00 00 00	 jmp	 ___CxxFrameHandler3
text$x	ENDS
??0GuildHomeAdminListBtn@@QAE@XZ ENDP			; GuildHomeAdminListBtn::GuildHomeAdminListBtn
PUBLIC	??1GuildHomeAdminListBtn@@UAE@XZ		; GuildHomeAdminListBtn::~GuildHomeAdminListBtn
;	COMDAT xdata$x
xdata$x	SEGMENT
__unwindtable$??1GuildHomeAdminListBtn@@UAE@XZ DD 0ffffffffH
	DD	FLAT:__unwindfunclet$??1GuildHomeAdminListBtn@@UAE@XZ$0
	DD	00H
	DD	FLAT:__unwindfunclet$??1GuildHomeAdminListBtn@@UAE@XZ$1
	DD	01H
	DD	FLAT:__unwindfunclet$??1GuildHomeAdminListBtn@@UAE@XZ$2
__ehfuncinfo$??1GuildHomeAdminListBtn@@UAE@XZ DD 019930522H
	DD	03H
	DD	FLAT:__unwindtable$??1GuildHomeAdminListBtn@@UAE@XZ
	DD	2 DUP(00H)
	DD	2 DUP(00H)
	DD	00H
	DD	01H
; Function compile flags: /Ogsp
xdata$x	ENDS
;	COMDAT ??1GuildHomeAdminListBtn@@UAE@XZ
_TEXT	SEGMENT
_this$ = -16						; size = 4
__$EHRec$ = -12						; size = 12
??1GuildHomeAdminListBtn@@UAE@XZ PROC			; GuildHomeAdminListBtn::~GuildHomeAdminListBtn, COMDAT
; _this$ = ecx

; 62   : {

  00000	6a 04		 push	 4
  00002	b8 00 00 00 00	 mov	 eax, __ehhandler$??1GuildHomeAdminListBtn@@UAE@XZ
  00007	e8 00 00 00 00	 call	 __EH_prolog3
  0000c	8b f1		 mov	 esi, ecx
  0000e	89 75 f0	 mov	 DWORD PTR _this$[ebp], esi
  00011	c7 06 00 00 00
	00		 mov	 DWORD PTR [esi], OFFSET ??_7GuildHomeAdminListBtn@@6B@

; 63   : 	SAFEDELETE( m_pMasterMark );

  00017	8b 8e fc 01 00
	00		 mov	 ecx, DWORD PTR [esi+508]
  0001d	c7 45 fc 02 00
	00 00		 mov	 DWORD PTR __$EHRec$[ebp+8], 2
  00024	85 c9		 test	 ecx, ecx
  00026	74 0e		 je	 SHORT $LN2@GuildHomeA
  00028	8b 01		 mov	 eax, DWORD PTR [ecx]
  0002a	6a 01		 push	 1
  0002c	ff 50 40	 call	 DWORD PTR [eax+64]
  0002f	83 a6 fc 01 00
	00 00		 and	 DWORD PTR [esi+508], 0
$LN2@GuildHomeA:

; 64   : 	SAFEDELETE( m_pSecondMasterMark );

  00036	8b 8e 00 02 00
	00		 mov	 ecx, DWORD PTR [esi+512]
  0003c	85 c9		 test	 ecx, ecx
  0003e	74 0e		 je	 SHORT $LN1@GuildHomeA
  00040	8b 01		 mov	 eax, DWORD PTR [ecx]
  00042	6a 01		 push	 1
  00044	ff 50 40	 call	 DWORD PTR [eax+64]
  00047	83 a6 00 02 00
	00 00		 and	 DWORD PTR [esi+512], 0
$LN1@GuildHomeA:

; 65   : }

  0004e	8b 3d 00 00 00
	00		 mov	 edi, DWORD PTR __imp_??1ioHashString@@QAE@XZ
  00054	8d 8e 14 02 00
	00		 lea	 ecx, DWORD PTR [esi+532]
  0005a	c6 45 fc 01	 mov	 BYTE PTR __$EHRec$[ebp+8], 1
  0005e	ff d7		 call	 edi
  00060	8d 8e 04 02 00
	00		 lea	 ecx, DWORD PTR [esi+516]
  00066	c6 45 fc 00	 mov	 BYTE PTR __$EHRec$[ebp+8], 0
  0006a	ff d7		 call	 edi
  0006c	83 4d fc ff	 or	 DWORD PTR __$EHRec$[ebp+8], -1
  00070	8b ce		 mov	 ecx, esi
  00072	ff 15 00 00 00
	00		 call	 DWORD PTR __imp_??1ioButton@@UAE@XZ
  00078	e8 00 00 00 00	 call	 __EH_epilog3
  0007d	c3		 ret	 0
_TEXT	ENDS
;	COMDAT text$x
text$x	SEGMENT
__unwindfunclet$??1GuildHomeAdminListBtn@@UAE@XZ$0:
  00000	8b 4d f0	 mov	 ecx, DWORD PTR _this$[ebp]
  00003	ff 25 00 00 00
	00		 jmp	 DWORD PTR __imp_??1ioButton@@UAE@XZ
__unwindfunclet$??1GuildHomeAdminListBtn@@UAE@XZ$1:
  00009	8b 4d f0	 mov	 ecx, DWORD PTR _this$[ebp]
  0000c	81 c1 04 02 00
	00		 add	 ecx, 516		; 00000204H
  00012	ff 25 00 00 00
	00		 jmp	 DWORD PTR __imp_??1ioHashString@@QAE@XZ
__unwindfunclet$??1GuildHomeAdminListBtn@@UAE@XZ$2:
  00018	8b 4d f0	 mov	 ecx, DWORD PTR _this$[ebp]
  0001b	81 c1 14 02 00
	00		 add	 ecx, 532		; 00000214H
  00021	ff 25 00 00 00
	00		 jmp	 DWORD PTR __imp_??1ioHashString@@QAE@XZ
__ehhandler$??1GuildHomeAdminListBtn@@UAE@XZ:
  00027	8b 54 24 08	 mov	 edx, DWORD PTR [esp+8]
  0002b	8d 42 0c	 lea	 eax, DWORD PTR [edx+12]
  0002e	8b 4a ec	 mov	 ecx, DWORD PTR [edx-20]
  00031	33 c8		 xor	 ecx, eax
  00033	e8 00 00 00 00	 call	 @__security_check_cookie@4
  00038	b8 00 00 00 00	 mov	 eax, OFFSET __ehfuncinfo$??1GuildHomeAdminListBtn@@UAE@XZ
  0003d	e9 00 00 00 00	 jmp	 ___CxxFrameHandler3
text$x	ENDS
??1GuildHomeAdminListBtn@@UAE@XZ ENDP			; GuildHomeAdminListBtn::~GuildHomeAdminListBtn
EXTRN	__imp_?SetInActive@ioWnd@@UAEXXZ:PROC
EXTRN	__imp_?HideChildWnd@ioWnd@@QAEXK_N@Z:PROC
; Function compile flags: /Ogsp
;	COMDAT ?SetInActive@GuildHomeAdminListBtn@@UAEXXZ
_TEXT	SEGMENT
?SetInActive@GuildHomeAdminListBtn@@UAEXXZ PROC		; GuildHomeAdminListBtn::SetInActive, COMDAT
; _this$ = ecx

; 132  : {

  00000	56		 push	 esi

; 133  : 	HideChildWnd( ID_CHECK_BOX );

  00001	6a 00		 push	 0
  00003	6a 01		 push	 1
  00005	8b f1		 mov	 esi, ecx
  00007	ff 15 00 00 00
	00		 call	 DWORD PTR __imp_?HideChildWnd@ioWnd@@QAEXK_N@Z

; 134  : 	ioWnd::SetInActive();

  0000d	8b ce		 mov	 ecx, esi
  0000f	5e		 pop	 esi
  00010	ff 25 00 00 00
	00		 jmp	 DWORD PTR __imp_?SetInActive@ioWnd@@UAEXXZ
?SetInActive@GuildHomeAdminListBtn@@UAEXXZ ENDP		; GuildHomeAdminListBtn::SetInActive
_TEXT	ENDS
PUBLIC	??_R0?AVioCheckButton@@@8			; ioCheckButton `RTTI Type Descriptor'
PUBLIC	??_C@_0CD@FDIDLDML@GuildHomeAdminListBtn?3?3iwm_comma@ ; `string'
PUBLIC	??_C@_00CNPNBAHC@?$AA@				; `string'
PUBLIC	__$ArrayPad$
EXTRN	??1SP2Packet@@UAE@XZ:PROC			; SP2Packet::~SP2Packet
EXTRN	?MouseBusy@TCPNetwork@@YAX_N@Z:PROC		; TCPNetwork::MouseBusy
EXTRN	?SendToServer@TCPNetwork@@YAXAAVSP2Packet@@@Z:PROC ; TCPNetwork::SendToServer
EXTRN	??6SP2Packet@@QAEAAV0@PBD@Z:PROC		; SP2Packet::operator<<
EXTRN	??6SP2Packet@@QAEAAV0@ABVioHashString@@@Z:PROC	; SP2Packet::operator<<
EXTRN	??6SP2Packet@@QAEAAV0@H@Z:PROC			; SP2Packet::operator<<
EXTRN	??0SP2Packet@@QAE@K@Z:PROC			; SP2Packet::SP2Packet
EXTRN	__imp_?SetCheck@ioCheckButton@@QAEX_N@Z:PROC
EXTRN	__imp_?FindChildWnd@ioWnd@@QAEPAV1@K@Z:PROC
EXTRN	?SetMsgBox@ioSP2GUIManager@@QAAXHPAVioWnd@@PBDZZ:PROC ; ioSP2GUIManager::SetMsgBox
EXTRN	?GetSingleton@ioSP2GUIManager@@SAAAV1@XZ:PROC	; ioSP2GUIManager::GetSingleton
EXTRN	__imp_?GetString@ioStringManager@@QAEPADPBD0HW4FileNamePrefix@1@@Z:PROC
EXTRN	__imp_?GetSingleton@ioStringManager@@SAAAV1@XZ:PROC
EXTRN	__imp_??8ioHashString@@QBE_NABV0@@Z:PROC
EXTRN	__imp_??0ioHashString@@QAE@PBD@Z:PROC
EXTRN	?GetLocal@ioLocalManager@@QAEPAVioLocalParent@@W4LocalType@ioLocalManagerParent@@@Z:PROC ; ioLocalManager::GetLocal
EXTRN	?GetSingleton@ioLocalManager@@SAAAV1@XZ:PROC	; ioLocalManager::GetSingleton
EXTRN	__imp_?GetLocalType@ioLocalManagerParent@@SA?AW4LocalType@1@XZ:PROC
EXTRN	__imp_?GetID@ioWnd@@QBEKXZ:PROC
EXTRN	___security_cookie:DWORD
EXTRN	__chkstk:PROC
EXTRN	___RTDynamicCast:PROC
;	COMDAT ??_R0?AVioCheckButton@@@8
_DATA	SEGMENT
??_R0?AVioCheckButton@@@8 DD FLAT:??_7type_info@@6B@	; ioCheckButton `RTTI Type Descriptor'
	DD	00H
	DB	'.?AVioCheckButton@@', 00H
_DATA	ENDS
;	COMDAT ??_C@_0CD@FDIDLDML@GuildHomeAdminListBtn?3?3iwm_comma@
CONST	SEGMENT
??_C@_0CD@FDIDLDML@GuildHomeAdminListBtn?3?3iwm_comma@ DB 'GuildHomeAdmin'
	DB	'ListBtn::iwm_command', 00H			; `string'
CONST	ENDS
;	COMDAT ??_C@_00CNPNBAHC@?$AA@
CONST	SEGMENT
??_C@_00CNPNBAHC@?$AA@ DB 00H				; `string'
CONST	ENDS
;	COMDAT xdata$x
xdata$x	SEGMENT
__ehfuncinfo$?iwm_command@GuildHomeAdminListBtn@@UAEXPAVioWnd@@HK@Z DD 019930522H
	DD	05H
	DD	FLAT:__unwindtable$?iwm_command@GuildHomeAdminListBtn@@UAEXPAVioWnd@@HK@Z
	DD	2 DUP(00H)
	DD	2 DUP(00H)
	DD	00H
	DD	01H
__unwindtable$?iwm_command@GuildHomeAdminListBtn@@UAEXPAVioWnd@@HK@Z DD 0ffffffffH
	DD	FLAT:__unwindfunclet$?iwm_command@GuildHomeAdminListBtn@@UAEXPAVioWnd@@HK@Z$0
	DD	00H
	DD	FLAT:__unwindfunclet$?iwm_command@GuildHomeAdminListBtn@@UAEXPAVioWnd@@HK@Z$1
	DD	0ffffffffH
	DD	FLAT:__unwindfunclet$?iwm_command@GuildHomeAdminListBtn@@UAEXPAVioWnd@@HK@Z$2
	DD	0ffffffffH
	DD	FLAT:__unwindfunclet$?iwm_command@GuildHomeAdminListBtn@@UAEXPAVioWnd@@HK@Z$3
	DD	0ffffffffH
	DD	FLAT:__unwindfunclet$?iwm_command@GuildHomeAdminListBtn@@UAEXPAVioWnd@@HK@Z$4
; Function compile flags: /Ogsp
xdata$x	ENDS
;	COMDAT ?iwm_command@GuildHomeAdminListBtn@@UAEXPAVioWnd@@HK@Z
_TEXT	SEGMENT
$T505913 = -65656					; size = 16
$T505908 = -65640					; size = 16
$T505907 = -65624					; size = 16
$T505914 = -65608					; size = 4
$T505912 = -65601					; size = 1
$T505906 = -65601					; size = 1
_kPacket$505276 = -65600				; size = 32792
_kPacket$505278 = -32808				; size = 32792
__$ArrayPad$ = -16					; size = 4
__$EHRec$ = -12						; size = 12
_pWnd$ = 8						; size = 4
_cmd$ = 12						; size = 4
_param$ = 16						; size = 4
?iwm_command@GuildHomeAdminListBtn@@UAEXPAVioWnd@@HK@Z PROC ; GuildHomeAdminListBtn::iwm_command, COMDAT
; _this$ = ecx

; 138  : {

  00000	55		 push	 ebp
  00001	8b ec		 mov	 ebp, esp
  00003	6a ff		 push	 -1
  00005	68 00 00 00 00	 push	 __ehhandler$?iwm_command@GuildHomeAdminListBtn@@UAEXPAVioWnd@@HK@Z
  0000a	64 a1 00 00 00
	00		 mov	 eax, DWORD PTR fs:0
  00010	50		 push	 eax
  00011	b8 6c 00 01 00	 mov	 eax, 65644		; 0001006cH
  00016	e8 00 00 00 00	 call	 __chkstk
  0001b	a1 00 00 00 00	 mov	 eax, DWORD PTR ___security_cookie
  00020	33 c5		 xor	 eax, ebp
  00022	89 45 f0	 mov	 DWORD PTR __$ArrayPad$[ebp], eax
  00025	53		 push	 ebx
  00026	56		 push	 esi
  00027	57		 push	 edi
  00028	50		 push	 eax
  00029	8d 45 f4	 lea	 eax, DWORD PTR __$EHRec$[ebp]
  0002c	64 a3 00 00 00
	00		 mov	 DWORD PTR fs:0, eax
  00032	83 a5 b8 ff fe
	ff 00		 and	 DWORD PTR $T505914[ebp], 0
  00039	8b d9		 mov	 ebx, ecx
  0003b	8b 4d 08	 mov	 ecx, DWORD PTR _pWnd$[ebp]

; 139  : 	DWORD dwID = pWnd->GetID();

  0003e	ff 15 00 00 00
	00		 call	 DWORD PTR __imp_?GetID@ioWnd@@QBEKXZ

; 140  : 	switch( dwID )

  00044	48		 dec	 eax
  00045	0f 85 5e 02 00
	00		 jne	 $LN1@iwm_comman

; 141  : 	{
; 142  : 	case ID_CHECK_BOX:
; 143  : 		if( cmd == IOBN_BTNUP )

  0004b	83 7d 0c 11	 cmp	 DWORD PTR _cmd$[ebp], 17 ; 00000011H
  0004f	0f 85 54 02 00
	00		 jne	 $LN1@iwm_comman

; 144  : 		{
; 145  : 			ioLocalParent *pLocal = g_LocalMgr.GetLocal( ioLocalManager::GetLocalType() );

  00055	ff 15 00 00 00
	00		 call	 DWORD PTR __imp_?GetLocalType@ioLocalManagerParent@@SA?AW4LocalType@1@XZ
  0005b	50		 push	 eax
  0005c	e8 00 00 00 00	 call	 ?GetSingleton@ioLocalManager@@SAAAV1@XZ ; ioLocalManager::GetSingleton
  00061	8b c8		 mov	 ecx, eax
  00063	e8 00 00 00 00	 call	 ?GetLocal@ioLocalManager@@QAEPAVioLocalParent@@W4LocalType@ioLocalManagerParent@@@Z ; ioLocalManager::GetLocal
  00068	8b f0		 mov	 esi, eax

; 146  : 			if( pLocal )

  0006a	85 f6		 test	 esi, esi
  0006c	0f 84 37 02 00
	00		 je	 $LN1@iwm_comman

; 147  : 			{
; 148  : 				if( m_UserPos == pLocal->GetGuildMasterPostion() || m_UserPos == pLocal->GetGuildSecondMasterPosition() )

  00072	8b 06		 mov	 eax, DWORD PTR [esi]
  00074	8b ce		 mov	 ecx, esi
  00076	ff 50 5c	 call	 DWORD PTR [eax+92]
  00079	8b 3d 00 00 00
	00		 mov	 edi, DWORD PTR __imp_??0ioHashString@@QAE@PBD@Z
  0007f	50		 push	 eax
  00080	8d 8d a8 ff fe
	ff		 lea	 ecx, DWORD PTR $T505907[ebp]
  00086	ff d7		 call	 edi
  00088	83 65 fc 00	 and	 DWORD PTR __$EHRec$[ebp+8], 0
  0008c	8d 85 a8 ff fe
	ff		 lea	 eax, DWORD PTR $T505907[ebp]
  00092	8d 8b 14 02 00
	00		 lea	 ecx, DWORD PTR [ebx+532]
  00098	50		 push	 eax
  00099	c7 85 b8 ff fe
	ff 01 00 00 00	 mov	 DWORD PTR $T505914[ebp], 1
  000a3	ff 15 00 00 00
	00		 call	 DWORD PTR __imp_??8ioHashString@@QBE_NABV0@@Z
  000a9	84 c0		 test	 al, al
  000ab	75 3f		 jne	 SHORT $LN13@iwm_comman
  000ad	8b 06		 mov	 eax, DWORD PTR [esi]
  000af	8b ce		 mov	 ecx, esi
  000b1	ff 50 60	 call	 DWORD PTR [eax+96]
  000b4	50		 push	 eax
  000b5	8d 8d 98 ff fe
	ff		 lea	 ecx, DWORD PTR $T505908[ebp]
  000bb	ff d7		 call	 edi
  000bd	8d 85 98 ff fe
	ff		 lea	 eax, DWORD PTR $T505908[ebp]
  000c3	50		 push	 eax
  000c4	8d 8b 14 02 00
	00		 lea	 ecx, DWORD PTR [ebx+532]
  000ca	c7 45 fc 01 00
	00 00		 mov	 DWORD PTR __$EHRec$[ebp+8], 1
  000d1	c7 85 b8 ff fe
	ff 03 00 00 00	 mov	 DWORD PTR $T505914[ebp], 3
  000db	ff 15 00 00 00
	00		 call	 DWORD PTR __imp_??8ioHashString@@QBE_NABV0@@Z
  000e1	c6 85 bf ff fe
	ff 00		 mov	 BYTE PTR $T505906[ebp], 0
  000e8	84 c0		 test	 al, al
  000ea	74 07		 je	 SHORT $LN14@iwm_comman
$LN13@iwm_comman:
  000ec	c6 85 bf ff fe
	ff 01		 mov	 BYTE PTR $T505906[ebp], 1
$LN14@iwm_comman:
  000f3	83 65 fc 00	 and	 DWORD PTR __$EHRec$[ebp+8], 0
  000f7	f6 85 b8 ff fe
	ff 02		 test	 BYTE PTR $T505914[ebp], 2
  000fe	74 13		 je	 SHORT $LN19@iwm_comman
  00100	83 a5 b8 ff fe
	ff fd		 and	 DWORD PTR $T505914[ebp], -3 ; fffffffdH
  00107	8d 8d 98 ff fe
	ff		 lea	 ecx, DWORD PTR $T505908[ebp]
  0010d	ff 15 00 00 00
	00		 call	 DWORD PTR __imp_??1ioHashString@@QAE@XZ
$LN19@iwm_comman:
  00113	83 4d fc ff	 or	 DWORD PTR __$EHRec$[ebp+8], -1
  00117	f6 85 b8 ff fe
	ff 01		 test	 BYTE PTR $T505914[ebp], 1
  0011e	74 0c		 je	 SHORT $LN20@iwm_comman
  00120	8d 8d a8 ff fe
	ff		 lea	 ecx, DWORD PTR $T505907[ebp]
  00126	ff 15 00 00 00
	00		 call	 DWORD PTR __imp_??1ioHashString@@QAE@XZ
$LN20@iwm_comman:
  0012c	80 bd bf ff fe
	ff 00		 cmp	 BYTE PTR $T505906[ebp], 0
  00133	74 65		 je	 SHORT $LN5@iwm_comman

; 149  : 				{
; 150  : 					g_GUIMgr.SetMsgBox( MB_OK, NULL, STR(1) );

  00135	6a 00		 push	 0
  00137	6a 01		 push	 1
  00139	68 00 00 00 00	 push	 OFFSET ??_C@_00CNPNBAHC@?$AA@
  0013e	68 00 00 00 00	 push	 OFFSET ??_C@_0CD@FDIDLDML@GuildHomeAdminListBtn?3?3iwm_comma@
  00143	ff 15 00 00 00
	00		 call	 DWORD PTR __imp_?GetSingleton@ioStringManager@@SAAAV1@XZ
  00149	8b c8		 mov	 ecx, eax
  0014b	ff 15 00 00 00
	00		 call	 DWORD PTR __imp_?GetString@ioStringManager@@QAEPADPBD0HW4FileNamePrefix@1@@Z
  00151	50		 push	 eax
  00152	33 f6		 xor	 esi, esi
  00154	56		 push	 esi
  00155	56		 push	 esi
  00156	e8 00 00 00 00	 call	 ?GetSingleton@ioSP2GUIManager@@SAAAV1@XZ ; ioSP2GUIManager::GetSingleton
  0015b	50		 push	 eax
  0015c	e8 00 00 00 00	 call	 ?SetMsgBox@ioSP2GUIManager@@QAAXHPAVioWnd@@PBDZZ ; ioSP2GUIManager::SetMsgBox
  00161	83 c4 10	 add	 esp, 16			; 00000010H

; 151  : 					ioCheckButton* pButton = dynamic_cast<ioCheckButton*>( FindChildWnd( ID_CHECK_BOX ) );

  00164	56		 push	 esi
  00165	68 00 00 00 00	 push	 OFFSET ??_R0?AVioCheckButton@@@8
  0016a	68 00 00 00 00	 push	 OFFSET ??_R0?AVioWnd@@@8
  0016f	56		 push	 esi
  00170	6a 01		 push	 1
  00172	8b cb		 mov	 ecx, ebx
  00174	ff 15 00 00 00
	00		 call	 DWORD PTR __imp_?FindChildWnd@ioWnd@@QAEPAV1@K@Z
  0017a	50		 push	 eax
  0017b	e8 00 00 00 00	 call	 ___RTDynamicCast
  00180	83 c4 14	 add	 esp, 20			; 00000014H

; 152  : 					if( pButton )

  00183	3b c6		 cmp	 eax, esi
  00185	0f 84 1e 01 00
	00		 je	 $LN1@iwm_comman

; 153  : 						pButton->SetCheck( true );

  0018b	6a 01		 push	 1
  0018d	8b c8		 mov	 ecx, eax
  0018f	ff 15 00 00 00
	00		 call	 DWORD PTR __imp_?SetCheck@ioCheckButton@@QAEX_N@Z

; 154  : 				}

  00195	e9 0f 01 00 00	 jmp	 $LN1@iwm_comman
$LN5@iwm_comman:

; 155  : 				else if( m_UserPos == pLocal->GetGuildAdminPosition() )

  0019a	8b 06		 mov	 eax, DWORD PTR [esi]
  0019c	8b ce		 mov	 ecx, esi
  0019e	ff 50 68	 call	 DWORD PTR [eax+104]
  001a1	50		 push	 eax
  001a2	8d 8d 88 ff fe
	ff		 lea	 ecx, DWORD PTR $T505913[ebp]
  001a8	ff d7		 call	 edi
  001aa	8d 85 88 ff fe
	ff		 lea	 eax, DWORD PTR $T505913[ebp]
  001b0	50		 push	 eax
  001b1	8d 8b 14 02 00
	00		 lea	 ecx, DWORD PTR [ebx+532]
  001b7	c7 45 fc 02 00
	00 00		 mov	 DWORD PTR __$EHRec$[ebp+8], 2
  001be	ff 15 00 00 00
	00		 call	 DWORD PTR __imp_??8ioHashString@@QBE_NABV0@@Z
  001c4	83 4d fc ff	 or	 DWORD PTR __$EHRec$[ebp+8], -1
  001c8	8d 8d 88 ff fe
	ff		 lea	 ecx, DWORD PTR $T505913[ebp]
  001ce	88 85 bf ff fe
	ff		 mov	 BYTE PTR $T505912[ebp], al
  001d4	ff 15 00 00 00
	00		 call	 DWORD PTR __imp_??1ioHashString@@QAE@XZ
  001da	80 bd bf ff fe
	ff 00		 cmp	 BYTE PTR $T505912[ebp], 0

; 156  : 				{
; 157  : 					SP2Packet kPacket( CTPK_GUILD_POSITION_CHANGE );

  001e1	68 33 01 00 00	 push	 307			; 00000133H
  001e6	74 5d		 je	 SHORT $LN2@iwm_comman
  001e8	8d 8d c0 ff fe
	ff		 lea	 ecx, DWORD PTR _kPacket$505276[ebp]
  001ee	e8 00 00 00 00	 call	 ??0SP2Packet@@QAE@K@Z	; SP2Packet::SP2Packet

; 158  : 					kPacket << m_dwUserIdx << m_UserID << pLocal->GetGuildGeneralPosition();

  001f3	8b 06		 mov	 eax, DWORD PTR [esi]
  001f5	8b ce		 mov	 ecx, esi
  001f7	c7 45 fc 03 00
	00 00		 mov	 DWORD PTR __$EHRec$[ebp+8], 3
  001fe	ff 50 64	 call	 DWORD PTR [eax+100]
  00201	50		 push	 eax
  00202	8d 83 04 02 00
	00		 lea	 eax, DWORD PTR [ebx+516]
  00208	50		 push	 eax
  00209	ff b3 28 02 00
	00		 push	 DWORD PTR [ebx+552]
  0020f	8d 8d c0 ff fe
	ff		 lea	 ecx, DWORD PTR _kPacket$505276[ebp]
  00215	e8 00 00 00 00	 call	 ??6SP2Packet@@QAEAAV0@H@Z ; SP2Packet::operator<<
  0021a	8b c8		 mov	 ecx, eax
  0021c	e8 00 00 00 00	 call	 ??6SP2Packet@@QAEAAV0@ABVioHashString@@@Z ; SP2Packet::operator<<
  00221	8b c8		 mov	 ecx, eax
  00223	e8 00 00 00 00	 call	 ??6SP2Packet@@QAEAAV0@PBD@Z ; SP2Packet::operator<<

; 159  : 					TCPNetwork::SendToServer( kPacket );

  00228	8d 85 c0 ff fe
	ff		 lea	 eax, DWORD PTR _kPacket$505276[ebp]
  0022e	50		 push	 eax
  0022f	e8 00 00 00 00	 call	 ?SendToServer@TCPNetwork@@YAXAAVSP2Packet@@@Z ; TCPNetwork::SendToServer

; 160  : 					TCPNetwork::MouseBusy( true );

  00234	6a 01		 push	 1
  00236	e8 00 00 00 00	 call	 ?MouseBusy@TCPNetwork@@YAX_N@Z ; TCPNetwork::MouseBusy
  0023b	59		 pop	 ecx
  0023c	59		 pop	 ecx

; 161  : 				}

  0023d	8d 8d c0 ff fe
	ff		 lea	 ecx, DWORD PTR _kPacket$505276[ebp]

; 162  : 				else

  00243	eb 5b		 jmp	 SHORT $LN25@iwm_comman
$LN2@iwm_comman:

; 163  : 				{
; 164  : 					SP2Packet kPacket( CTPK_GUILD_POSITION_CHANGE );

  00245	8d 8d d8 7f ff
	ff		 lea	 ecx, DWORD PTR _kPacket$505278[ebp]
  0024b	e8 00 00 00 00	 call	 ??0SP2Packet@@QAE@K@Z	; SP2Packet::SP2Packet

; 165  : 					kPacket << m_dwUserIdx << m_UserID << pLocal->GetGuildAdminPosition();

  00250	8b 06		 mov	 eax, DWORD PTR [esi]
  00252	8b ce		 mov	 ecx, esi
  00254	c7 45 fc 04 00
	00 00		 mov	 DWORD PTR __$EHRec$[ebp+8], 4
  0025b	ff 50 68	 call	 DWORD PTR [eax+104]
  0025e	50		 push	 eax
  0025f	8d 83 04 02 00
	00		 lea	 eax, DWORD PTR [ebx+516]
  00265	50		 push	 eax
  00266	ff b3 28 02 00
	00		 push	 DWORD PTR [ebx+552]
  0026c	8d 8d d8 7f ff
	ff		 lea	 ecx, DWORD PTR _kPacket$505278[ebp]
  00272	e8 00 00 00 00	 call	 ??6SP2Packet@@QAEAAV0@H@Z ; SP2Packet::operator<<
  00277	8b c8		 mov	 ecx, eax
  00279	e8 00 00 00 00	 call	 ??6SP2Packet@@QAEAAV0@ABVioHashString@@@Z ; SP2Packet::operator<<
  0027e	8b c8		 mov	 ecx, eax
  00280	e8 00 00 00 00	 call	 ??6SP2Packet@@QAEAAV0@PBD@Z ; SP2Packet::operator<<

; 166  : 					TCPNetwork::SendToServer( kPacket );

  00285	8d 85 d8 7f ff
	ff		 lea	 eax, DWORD PTR _kPacket$505278[ebp]
  0028b	50		 push	 eax
  0028c	e8 00 00 00 00	 call	 ?SendToServer@TCPNetwork@@YAXAAVSP2Packet@@@Z ; TCPNetwork::SendToServer

; 167  : 					TCPNetwork::MouseBusy( true );

  00291	6a 01		 push	 1
  00293	e8 00 00 00 00	 call	 ?MouseBusy@TCPNetwork@@YAX_N@Z ; TCPNetwork::MouseBusy
  00298	59		 pop	 ecx
  00299	59		 pop	 ecx

; 168  : 				}

  0029a	8d 8d d8 7f ff
	ff		 lea	 ecx, DWORD PTR _kPacket$505278[ebp]
$LN25@iwm_comman:
  002a0	83 4d fc ff	 or	 DWORD PTR __$EHRec$[ebp+8], -1
  002a4	e8 00 00 00 00	 call	 ??1SP2Packet@@UAE@XZ	; SP2Packet::~SP2Packet
$LN1@iwm_comman:

; 169  : 			}
; 170  : 		}
; 171  : 		break;
; 172  : 	}
; 173  : }

  002a9	8b 4d f4	 mov	 ecx, DWORD PTR __$EHRec$[ebp]
  002ac	64 89 0d 00 00
	00 00		 mov	 DWORD PTR fs:0, ecx
  002b3	59		 pop	 ecx
  002b4	5f		 pop	 edi
  002b5	5e		 pop	 esi
  002b6	5b		 pop	 ebx
  002b7	8b 4d f0	 mov	 ecx, DWORD PTR __$ArrayPad$[ebp]
  002ba	33 cd		 xor	 ecx, ebp
  002bc	e8 00 00 00 00	 call	 @__security_check_cookie@4
  002c1	c9		 leave
  002c2	c2 0c 00	 ret	 12			; 0000000cH
_TEXT	ENDS
;	COMDAT text$x
text$x	SEGMENT
__unwindfunclet$?iwm_command@GuildHomeAdminListBtn@@UAEXPAVioWnd@@HK@Z$0:
  00000	8b 85 b8 ff fe
	ff		 mov	 eax, DWORD PTR $T505914[ebp]
  00006	83 e0 01	 and	 eax, 1
  00009	0f 84 13 00 00
	00		 je	 $LN16@iwm_comman
  0000f	83 a5 b8 ff fe
	ff fe		 and	 DWORD PTR $T505914[ebp], -2 ; fffffffeH
  00016	8d 8d a8 ff fe
	ff		 lea	 ecx, DWORD PTR $T505907[ebp]
  0001c	ff 25 00 00 00
	00		 jmp	 DWORD PTR __imp_??1ioHashString@@QAE@XZ
$LN16@iwm_comman:
  00022	c3		 ret	 0
__unwindfunclet$?iwm_command@GuildHomeAdminListBtn@@UAEXPAVioWnd@@HK@Z$1:
  00023	8b 85 b8 ff fe
	ff		 mov	 eax, DWORD PTR $T505914[ebp]
  00029	83 e0 02	 and	 eax, 2
  0002c	0f 84 13 00 00
	00		 je	 $LN18@iwm_comman
  00032	83 a5 b8 ff fe
	ff fd		 and	 DWORD PTR $T505914[ebp], -3 ; fffffffdH
  00039	8d 8d 98 ff fe
	ff		 lea	 ecx, DWORD PTR $T505908[ebp]
  0003f	ff 25 00 00 00
	00		 jmp	 DWORD PTR __imp_??1ioHashString@@QAE@XZ
$LN18@iwm_comman:
  00045	c3		 ret	 0
__unwindfunclet$?iwm_command@GuildHomeAdminListBtn@@UAEXPAVioWnd@@HK@Z$2:
  00046	8d 8d 88 ff fe
	ff		 lea	 ecx, DWORD PTR $T505913[ebp]
  0004c	ff 25 00 00 00
	00		 jmp	 DWORD PTR __imp_??1ioHashString@@QAE@XZ
__unwindfunclet$?iwm_command@GuildHomeAdminListBtn@@UAEXPAVioWnd@@HK@Z$3:
  00052	8d 8d c0 ff fe
	ff		 lea	 ecx, DWORD PTR _kPacket$505276[ebp]
  00058	e9 00 00 00 00	 jmp	 ??1SP2Packet@@UAE@XZ	; SP2Packet::~SP2Packet
__unwindfunclet$?iwm_command@GuildHomeAdminListBtn@@UAEXPAVioWnd@@HK@Z$4:
  0005d	8d 8d d8 7f ff
	ff		 lea	 ecx, DWORD PTR _kPacket$505278[ebp]
  00063	e9 00 00 00 00	 jmp	 ??1SP2Packet@@UAE@XZ	; SP2Packet::~SP2Packet
__ehhandler$?iwm_command@GuildHomeAdminListBtn@@UAEXPAVioWnd@@HK@Z:
  00068	8b 54 24 08	 mov	 edx, DWORD PTR [esp+8]
  0006c	8d 42 0c	 lea	 eax, DWORD PTR [edx+12]
  0006f	8b 8a 84 ff fe
	ff		 mov	 ecx, DWORD PTR [edx-65660]
  00075	33 c8		 xor	 ecx, eax
  00077	e8 00 00 00 00	 call	 @__security_check_cookie@4
  0007c	8b 4a fc	 mov	 ecx, DWORD PTR [edx-4]
  0007f	33 c8		 xor	 ecx, eax
  00081	e8 00 00 00 00	 call	 @__security_check_cookie@4
  00086	b8 00 00 00 00	 mov	 eax, OFFSET __ehfuncinfo$?iwm_command@GuildHomeAdminListBtn@@UAEXPAVioWnd@@HK@Z
  0008b	e9 00 00 00 00	 jmp	 ___CxxFrameHandler3
text$x	ENDS
?iwm_command@GuildHomeAdminListBtn@@UAEXPAVioWnd@@HK@Z ENDP ; GuildHomeAdminListBtn::iwm_command
PUBLIC	__real@42ec0000
PUBLIC	__real@4051c00000000000
PUBLIC	__real@428e0000
PUBLIC	__real@4054000000000000
PUBLIC	__real@3f19999a
PUBLIC	__real@42a00000
EXTRN	__imp_?GetTextWidthCutSize@ioFontManager@@QAEMPBDW4TextStyle@@MM@Z:PROC
EXTRN	__imp_?PrintTextWidthCut@ioFontManager@@QAAXMMMMPBDZZ:PROC
EXTRN	__imp_?c_str@ioHashString@@QBEPBDXZ:PROC
EXTRN	__imp_?SetTextColor@ioFontManager@@QAEXK@Z:PROC
EXTRN	__imp_?SetAlignType@ioFontManager@@QAEXW4TextAlignType@@@Z:PROC
EXTRN	__imp_?SetTextStyle@ioFontManager@@QAEXW4TextStyle@@@Z:PROC
EXTRN	__imp_?SetBkColor@ioFontManager@@QAEXHHH@Z:PROC
EXTRN	__imp_?GetSingleton@ioFontManager@@SAAAV1@XZ:PROC
EXTRN	?RenderGrade@ioMyLevelMgr@@QAEXABVioHashString@@HHKW4TeamType@@W4UIRenderType@@K@Z:PROC ; ioMyLevelMgr::RenderGrade
EXTRN	?GetSingleton@ioMyLevelMgr@@SAAAV1@XZ:PROC	; ioMyLevelMgr::GetSingleton
EXTRN	__imp_?HasWndStyle@ioWnd@@QBE_NK@Z:PROC
EXTRN	__imp_?GetDerivedPosY@ioWnd@@QBEHXZ:PROC
EXTRN	__imp_?GetDerivedPosX@ioWnd@@QBEHXZ:PROC
EXTRN	__imp_?OnRender@ioButton@@MAEXXZ:PROC
EXTRN	__fltused:DWORD
;	COMDAT __real@42ec0000
CONST	SEGMENT
__real@42ec0000 DD 042ec0000r			; 118
CONST	ENDS
;	COMDAT __real@4051c00000000000
CONST	SEGMENT
__real@4051c00000000000 DQ 04051c00000000000r	; 71
CONST	ENDS
;	COMDAT __real@428e0000
CONST	SEGMENT
__real@428e0000 DD 0428e0000r			; 71
CONST	ENDS
;	COMDAT __real@4054000000000000
CONST	SEGMENT
__real@4054000000000000 DQ 04054000000000000r	; 80
CONST	ENDS
;	COMDAT __real@3f19999a
CONST	SEGMENT
__real@3f19999a DD 03f19999ar			; 0.6
CONST	ENDS
;	COMDAT __real@42a00000
CONST	SEGMENT
__real@42a00000 DD 042a00000r			; 80
CONST	ENDS
;	COMDAT xdata$x
xdata$x	SEGMENT
__unwindtable$?OnRender@GuildHomeAdminListBtn@@MAEXXZ DD 0ffffffffH
	DD	FLAT:__unwindfunclet$?OnRender@GuildHomeAdminListBtn@@MAEXXZ$0
	DD	0ffffffffH
	DD	FLAT:__unwindfunclet$?OnRender@GuildHomeAdminListBtn@@MAEXXZ$1
__ehfuncinfo$?OnRender@GuildHomeAdminListBtn@@MAEXXZ DD 019930522H
	DD	02H
	DD	FLAT:__unwindtable$?OnRender@GuildHomeAdminListBtn@@MAEXXZ
	DD	2 DUP(00H)
	DD	2 DUP(00H)
	DD	00H
	DD	01H
; Function compile flags: /Ogsp
xdata$x	ENDS
;	COMDAT ?OnRender@GuildHomeAdminListBtn@@MAEXXZ
_TEXT	SEGMENT
$T505942 = -64						; size = 16
$T505938 = -48						; size = 16
tv286 = -32						; size = 4
_pLocal$505286 = -32					; size = 4
_iXPos$ = -28						; size = 4
tv368 = -24						; size = 4
_iYPos$ = -24						; size = 4
tv358 = -20						; size = 4
tv207 = -20						; size = 4
$T505941 = -13						; size = 1
$T505937 = -13						; size = 1
__$EHRec$ = -12						; size = 12
?OnRender@GuildHomeAdminListBtn@@MAEXXZ PROC		; GuildHomeAdminListBtn::OnRender, COMDAT
; _this$ = ecx

; 176  : {

  00000	6a 34		 push	 52			; 00000034H
  00002	b8 00 00 00 00	 mov	 eax, __ehhandler$?OnRender@GuildHomeAdminListBtn@@MAEXXZ
  00007	e8 00 00 00 00	 call	 __EH_prolog3
  0000c	8b f9		 mov	 edi, ecx

; 177  : 	ioButton::OnRender();

  0000e	ff 15 00 00 00
	00		 call	 DWORD PTR __imp_?OnRender@ioButton@@MAEXXZ

; 178  : 
; 179  : 	int iXPos, iYPos;
; 180  : 	iXPos = GetDerivedPosX();

  00014	8b cf		 mov	 ecx, edi
  00016	ff 15 00 00 00
	00		 call	 DWORD PTR __imp_?GetDerivedPosX@ioWnd@@QBEHXZ
  0001c	8b f0		 mov	 esi, eax

; 181  : 	iYPos = GetDerivedPosY();

  0001e	8b cf		 mov	 ecx, edi
  00020	89 75 e4	 mov	 DWORD PTR _iXPos$[ebp], esi
  00023	ff 15 00 00 00
	00		 call	 DWORD PTR __imp_?GetDerivedPosY@ioWnd@@QBEHXZ

; 182  : 
; 183  : 	if( !HasWndStyle( IWS_INACTIVE ) )

  00029	6a 02		 push	 2
  0002b	8b cf		 mov	 ecx, edi
  0002d	89 45 e8	 mov	 DWORD PTR _iYPos$[ebp], eax
  00030	ff 15 00 00 00
	00		 call	 DWORD PTR __imp_?HasWndStyle@ioWnd@@QBE_NK@Z
  00036	84 c0		 test	 al, al
  00038	0f 85 6b 03 00
	00		 jne	 $LN1@OnRender

; 184  : 	{
; 185  : 		// 
; 186  : 		g_LevelMgr.RenderGrade( m_UserID, iXPos + 4, iYPos + 2, m_nUserLevel, TEAM_PRIVATE_1 );

  0003e	8b 4d e8	 mov	 ecx, DWORD PTR _iYPos$[ebp]
  00041	6a ff		 push	 -1
  00043	33 db		 xor	 ebx, ebx
  00045	53		 push	 ebx
  00046	6a 03		 push	 3
  00048	ff b7 24 02 00
	00		 push	 DWORD PTR [edi+548]
  0004e	83 c1 02	 add	 ecx, 2
  00051	51		 push	 ecx
  00052	8d 87 04 02 00
	00		 lea	 eax, DWORD PTR [edi+516]
  00058	83 c6 04	 add	 esi, 4
  0005b	56		 push	 esi
  0005c	50		 push	 eax
  0005d	89 45 ec	 mov	 DWORD PTR tv358[ebp], eax
  00060	e8 00 00 00 00	 call	 ?GetSingleton@ioMyLevelMgr@@SAAAV1@XZ ; ioMyLevelMgr::GetSingleton
  00065	8b c8		 mov	 ecx, eax
  00067	e8 00 00 00 00	 call	 ?RenderGrade@ioMyLevelMgr@@QAEXABVioHashString@@HHKW4TeamType@@W4UIRenderType@@K@Z ; ioMyLevelMgr::RenderGrade

; 187  : 		g_FontMgr.SetBkColor( 0, 0, 0 );

  0006c	8b 35 00 00 00
	00		 mov	 esi, DWORD PTR __imp_?GetSingleton@ioFontManager@@SAAAV1@XZ
  00072	53		 push	 ebx
  00073	53		 push	 ebx
  00074	53		 push	 ebx
  00075	ff d6		 call	 esi
  00077	8b c8		 mov	 ecx, eax
  00079	ff 15 00 00 00
	00		 call	 DWORD PTR __imp_?SetBkColor@ioFontManager@@QAEXHHH@Z

; 188  : 		g_FontMgr.SetTextStyle( TS_NORMAL );

  0007f	53		 push	 ebx
  00080	ff d6		 call	 esi
  00082	8b c8		 mov	 ecx, eax
  00084	ff 15 00 00 00
	00		 call	 DWORD PTR __imp_?SetTextStyle@ioFontManager@@QAEXW4TextStyle@@@Z

; 189  : 		g_FontMgr.SetAlignType( TAT_LEFT );

  0008a	53		 push	 ebx
  0008b	ff d6		 call	 esi
  0008d	8b c8		 mov	 ecx, eax
  0008f	ff 15 00 00 00
	00		 call	 DWORD PTR __imp_?SetAlignType@ioFontManager@@QAEXW4TextAlignType@@@Z

; 190  : 		g_FontMgr.SetTextColor( TCT_DEFAULT_DARKGRAY );

  00095	68 3a 3a 3a ff	 push	 -12961222		; ff3a3a3aH
  0009a	ff d6		 call	 esi
  0009c	8b c8		 mov	 ecx, eax
  0009e	ff 15 00 00 00
	00		 call	 DWORD PTR __imp_?SetTextColor@ioFontManager@@QAEXK@Z

; 191  : 	
; 192  : 
; 193  : 		//  / 
; 194  : 		ioLocalParent *pLocal = g_LocalMgr.GetLocal( ioLocalManager::GetLocalType() );

  000a4	ff 15 00 00 00
	00		 call	 DWORD PTR __imp_?GetLocalType@ioLocalManagerParent@@SA?AW4LocalType@1@XZ
  000aa	50		 push	 eax
  000ab	e8 00 00 00 00	 call	 ?GetSingleton@ioLocalManager@@SAAAV1@XZ ; ioLocalManager::GetSingleton
  000b0	8b c8		 mov	 ecx, eax
  000b2	e8 00 00 00 00	 call	 ?GetLocal@ioLocalManager@@QAEPAVioLocalParent@@W4LocalType@ioLocalManagerParent@@@Z ; ioLocalManager::GetLocal
  000b7	89 45 e0	 mov	 DWORD PTR _pLocal$505286[ebp], eax

; 195  : 		if( pLocal )

  000ba	3b c3		 cmp	 eax, ebx
  000bc	0f 84 e7 02 00
	00		 je	 $LN1@OnRender

; 196  : 		{
; 197  : 			if( m_UserPos == pLocal->GetGuildMasterPostion() )

  000c2	8b 10		 mov	 edx, DWORD PTR [eax]
  000c4	8b c8		 mov	 ecx, eax
  000c6	ff 52 5c	 call	 DWORD PTR [edx+92]
  000c9	50		 push	 eax
  000ca	8d 4d d0	 lea	 ecx, DWORD PTR $T505938[ebp]
  000cd	ff 15 00 00 00
	00		 call	 DWORD PTR __imp_??0ioHashString@@QAE@PBD@Z
  000d3	8d 45 d0	 lea	 eax, DWORD PTR $T505938[ebp]
  000d6	8d 8f 14 02 00
	00		 lea	 ecx, DWORD PTR [edi+532]
  000dc	50		 push	 eax
  000dd	89 5d fc	 mov	 DWORD PTR __$EHRec$[ebp+8], ebx
  000e0	ff 15 00 00 00
	00		 call	 DWORD PTR __imp_??8ioHashString@@QBE_NABV0@@Z
  000e6	83 4d fc ff	 or	 DWORD PTR __$EHRec$[ebp+8], -1
  000ea	8d 4d d0	 lea	 ecx, DWORD PTR $T505938[ebp]
  000ed	88 45 f3	 mov	 BYTE PTR $T505937[ebp], al
  000f0	ff 15 00 00 00
	00		 call	 DWORD PTR __imp_??1ioHashString@@QAE@XZ
  000f6	38 5d f3	 cmp	 BYTE PTR $T505937[ebp], bl
  000f9	0f 84 f3 00 00
	00		 je	 $LN6@OnRender

; 198  : 			{
; 199  : 				g_FontMgr.PrintTextWidthCut( iXPos + 23, iYPos + 3, FONT_SIZE_12, 80.0f, m_UserID.c_str() );

  000ff	8b 45 e8	 mov	 eax, DWORD PTR _iYPos$[ebp]
  00102	8b 4d ec	 mov	 ecx, DWORD PTR tv358[ebp]
  00105	83 c0 03	 add	 eax, 3
  00108	0f 57 c0	 xorps	 xmm0, xmm0
  0010b	f3 0f 2a c0	 cvtsi2ss xmm0, eax
  0010f	f3 0f 11 45 e8	 movss	 DWORD PTR tv368[ebp], xmm0
  00114	ff 15 00 00 00
	00		 call	 DWORD PTR __imp_?c_str@ioHashString@@QBEPBDXZ
  0011a	f3 0f 10 05 00
	00 00 00	 movss	 xmm0, DWORD PTR __real@42a00000
  00122	50		 push	 eax
  00123	8b 45 e4	 mov	 eax, DWORD PTR _iXPos$[ebp]
  00126	83 ec 10	 sub	 esp, 16			; 00000010H
  00129	f3 0f 11 44 24
	0c		 movss	 DWORD PTR [esp+12], xmm0
  0012f	f3 0f 10 05 00
	00 00 00	 movss	 xmm0, DWORD PTR __real@3f19999a
  00137	f3 0f 11 44 24
	08		 movss	 DWORD PTR [esp+8], xmm0
  0013d	f3 0f 10 45 e8	 movss	 xmm0, DWORD PTR tv368[ebp]
  00142	f3 0f 11 44 24
	04		 movss	 DWORD PTR [esp+4], xmm0
  00148	83 c0 17	 add	 eax, 23			; 00000017H
  0014b	0f 57 c0	 xorps	 xmm0, xmm0
  0014e	f3 0f 2a c0	 cvtsi2ss xmm0, eax
  00152	f3 0f 11 04 24	 movss	 DWORD PTR [esp], xmm0
  00157	ff d6		 call	 esi
  00159	50		 push	 eax
  0015a	ff 15 00 00 00
	00		 call	 DWORD PTR __imp_?PrintTextWidthCut@ioFontManager@@QAAXMMMMPBDZZ

; 200  : 				int iRealNameSize = min( 80.0f, g_FontMgr.GetTextWidthCutSize( m_UserID.c_str(), TS_NORMAL, FONT_SIZE_12, 80.0f ) );

  00160	f3 0f 10 05 00
	00 00 00	 movss	 xmm0, DWORD PTR __real@42a00000
  00168	8b 4d ec	 mov	 ecx, DWORD PTR tv358[ebp]
  0016b	83 c4 10	 add	 esp, 16			; 00000010H
  0016e	f3 0f 11 44 24
	04		 movss	 DWORD PTR [esp+4], xmm0
  00174	f3 0f 10 05 00
	00 00 00	 movss	 xmm0, DWORD PTR __real@3f19999a
  0017c	f3 0f 11 04 24	 movss	 DWORD PTR [esp], xmm0
  00181	53		 push	 ebx
  00182	ff 15 00 00 00
	00		 call	 DWORD PTR __imp_?c_str@ioHashString@@QBEPBDXZ
  00188	50		 push	 eax
  00189	ff d6		 call	 esi
  0018b	8b c8		 mov	 ecx, eax
  0018d	ff 15 00 00 00
	00		 call	 DWORD PTR __imp_?GetTextWidthCutSize@ioFontManager@@QAEMPBDW4TextStyle@@MM@Z
  00193	dd 05 00 00 00
	00		 fld	 QWORD PTR __real@4054000000000000
  00199	f3 0f 10 05 00
	00 00 00	 movss	 xmm0, DWORD PTR __real@42a00000
  001a1	d9 c9		 fxch	 ST(1)
  001a3	df f1		 fcomip	 ST(1)
  001a5	dd d8		 fstp	 ST(0)
  001a7	77 32		 ja	 SHORT $LN12@OnRender
  001a9	51		 push	 ecx
  001aa	51		 push	 ecx
  001ab	8b 4d ec	 mov	 ecx, DWORD PTR tv358[ebp]
  001ae	f3 0f 11 44 24
	04		 movss	 DWORD PTR [esp+4], xmm0
  001b4	f3 0f 10 05 00
	00 00 00	 movss	 xmm0, DWORD PTR __real@3f19999a
  001bc	f3 0f 11 04 24	 movss	 DWORD PTR [esp], xmm0
  001c1	53		 push	 ebx
  001c2	ff 15 00 00 00
	00		 call	 DWORD PTR __imp_?c_str@ioHashString@@QBEPBDXZ
  001c8	50		 push	 eax
  001c9	ff d6		 call	 esi
  001cb	8b c8		 mov	 ecx, eax
  001cd	ff 15 00 00 00
	00		 call	 DWORD PTR __imp_?GetTextWidthCutSize@ioFontManager@@QAEMPBDW4TextStyle@@MM@Z
  001d3	d9 5d ec	 fstp	 DWORD PTR tv207[ebp]
  001d6	f3 0f 10 45 ec	 movss	 xmm0, DWORD PTR tv207[ebp]
$LN12@OnRender:

; 201  : 				if( m_pMasterMark )

  001db	39 9f fc 01 00
	00		 cmp	 DWORD PTR [edi+508], ebx
  001e1	0f 84 c2 01 00
	00		 je	 $LN1@OnRender

; 202  : 					m_pMasterMark->Render( iXPos + 23 + iRealNameSize + 3, iYPos + 3 );

  001e7	8b 87 fc 01 00
	00		 mov	 eax, DWORD PTR [edi+508]

; 203  : 			}

  001ed	e9 30 01 00 00	 jmp	 $LN18@OnRender
$LN6@OnRender:

; 204  : 			else if( m_UserPos == pLocal->GetGuildSecondMasterPosition() )

  001f2	8b 4d e0	 mov	 ecx, DWORD PTR _pLocal$505286[ebp]
  001f5	8b 01		 mov	 eax, DWORD PTR [ecx]
  001f7	ff 50 60	 call	 DWORD PTR [eax+96]
  001fa	50		 push	 eax
  001fb	8d 4d c0	 lea	 ecx, DWORD PTR $T505942[ebp]
  001fe	ff 15 00 00 00
	00		 call	 DWORD PTR __imp_??0ioHashString@@QAE@PBD@Z
  00204	8d 45 c0	 lea	 eax, DWORD PTR $T505942[ebp]
  00207	50		 push	 eax
  00208	8d 8f 14 02 00
	00		 lea	 ecx, DWORD PTR [edi+532]
  0020e	c7 45 fc 01 00
	00 00		 mov	 DWORD PTR __$EHRec$[ebp+8], 1
  00215	ff 15 00 00 00
	00		 call	 DWORD PTR __imp_??8ioHashString@@QBE_NABV0@@Z
  0021b	83 4d fc ff	 or	 DWORD PTR __$EHRec$[ebp+8], -1
  0021f	8d 4d c0	 lea	 ecx, DWORD PTR $T505942[ebp]
  00222	88 45 f3	 mov	 BYTE PTR $T505941[ebp], al
  00225	ff 15 00 00 00
	00		 call	 DWORD PTR __imp_??1ioHashString@@QAE@XZ

; 205  : 			{
; 206  : 				g_FontMgr.PrintTextWidthCut( iXPos + 23, iYPos + 3, FONT_SIZE_12, 71.0f, m_UserID.c_str() );

  0022b	8b 4d ec	 mov	 ecx, DWORD PTR tv358[ebp]
  0022e	38 5d f3	 cmp	 BYTE PTR $T505941[ebp], bl
  00231	0f 84 1b 01 00
	00		 je	 $LN3@OnRender
  00237	8b 45 e8	 mov	 eax, DWORD PTR _iYPos$[ebp]
  0023a	83 c0 03	 add	 eax, 3
  0023d	0f 57 c0	 xorps	 xmm0, xmm0
  00240	f3 0f 2a c0	 cvtsi2ss xmm0, eax
  00244	f3 0f 11 45 e8	 movss	 DWORD PTR tv368[ebp], xmm0
  00249	ff 15 00 00 00
	00		 call	 DWORD PTR __imp_?c_str@ioHashString@@QBEPBDXZ
  0024f	f3 0f 10 05 00
	00 00 00	 movss	 xmm0, DWORD PTR __real@428e0000
  00257	50		 push	 eax
  00258	8b 45 e4	 mov	 eax, DWORD PTR _iXPos$[ebp]
  0025b	83 ec 10	 sub	 esp, 16			; 00000010H
  0025e	f3 0f 11 44 24
	0c		 movss	 DWORD PTR [esp+12], xmm0
  00264	f3 0f 10 05 00
	00 00 00	 movss	 xmm0, DWORD PTR __real@3f19999a
  0026c	f3 0f 11 44 24
	08		 movss	 DWORD PTR [esp+8], xmm0
  00272	f3 0f 10 45 e8	 movss	 xmm0, DWORD PTR tv368[ebp]
  00277	f3 0f 11 44 24
	04		 movss	 DWORD PTR [esp+4], xmm0
  0027d	83 c0 17	 add	 eax, 23			; 00000017H
  00280	0f 57 c0	 xorps	 xmm0, xmm0
  00283	f3 0f 2a c0	 cvtsi2ss xmm0, eax
  00287	f3 0f 11 04 24	 movss	 DWORD PTR [esp], xmm0
  0028c	ff d6		 call	 esi
  0028e	50		 push	 eax
  0028f	ff 15 00 00 00
	00		 call	 DWORD PTR __imp_?PrintTextWidthCut@ioFontManager@@QAAXMMMMPBDZZ

; 207  : 				int iRealNameSize = min( 71.0f, g_FontMgr.GetTextWidthCutSize( m_UserID.c_str(), TS_NORMAL, FONT_SIZE_12, 71.0f ) );

  00295	f3 0f 10 05 00
	00 00 00	 movss	 xmm0, DWORD PTR __real@428e0000
  0029d	8b 4d ec	 mov	 ecx, DWORD PTR tv358[ebp]
  002a0	83 c4 10	 add	 esp, 16			; 00000010H
  002a3	f3 0f 11 44 24
	04		 movss	 DWORD PTR [esp+4], xmm0
  002a9	f3 0f 10 05 00
	00 00 00	 movss	 xmm0, DWORD PTR __real@3f19999a
  002b1	f3 0f 11 04 24	 movss	 DWORD PTR [esp], xmm0
  002b6	53		 push	 ebx
  002b7	ff 15 00 00 00
	00		 call	 DWORD PTR __imp_?c_str@ioHashString@@QBEPBDXZ
  002bd	50		 push	 eax
  002be	ff d6		 call	 esi
  002c0	8b c8		 mov	 ecx, eax
  002c2	ff 15 00 00 00
	00		 call	 DWORD PTR __imp_?GetTextWidthCutSize@ioFontManager@@QAEMPBDW4TextStyle@@MM@Z
  002c8	dd 05 00 00 00
	00		 fld	 QWORD PTR __real@4051c00000000000
  002ce	f3 0f 10 05 00
	00 00 00	 movss	 xmm0, DWORD PTR __real@428e0000
  002d6	d9 c9		 fxch	 ST(1)
  002d8	df f1		 fcomip	 ST(1)
  002da	dd d8		 fstp	 ST(0)
  002dc	77 32		 ja	 SHORT $LN14@OnRender
  002de	51		 push	 ecx
  002df	51		 push	 ecx
  002e0	8b 4d ec	 mov	 ecx, DWORD PTR tv358[ebp]
  002e3	f3 0f 11 44 24
	04		 movss	 DWORD PTR [esp+4], xmm0
  002e9	f3 0f 10 05 00
	00 00 00	 movss	 xmm0, DWORD PTR __real@3f19999a
  002f1	f3 0f 11 04 24	 movss	 DWORD PTR [esp], xmm0
  002f6	53		 push	 ebx
  002f7	ff 15 00 00 00
	00		 call	 DWORD PTR __imp_?c_str@ioHashString@@QBEPBDXZ
  002fd	50		 push	 eax
  002fe	ff d6		 call	 esi
  00300	8b c8		 mov	 ecx, eax
  00302	ff 15 00 00 00
	00		 call	 DWORD PTR __imp_?GetTextWidthCutSize@ioFontManager@@QAEMPBDW4TextStyle@@MM@Z
  00308	d9 5d e0	 fstp	 DWORD PTR tv286[ebp]
  0030b	f3 0f 10 45 e0	 movss	 xmm0, DWORD PTR tv286[ebp]
$LN14@OnRender:

; 208  : 				if( m_pSecondMasterMark )

  00310	39 9f 00 02 00
	00		 cmp	 DWORD PTR [edi+512], ebx
  00316	0f 84 8d 00 00
	00		 je	 $LN1@OnRender

; 209  : 					m_pSecondMasterMark->Render( iXPos + 23 + iRealNameSize + 3, iYPos + 3 );

  0031c	8b 87 00 02 00
	00		 mov	 eax, DWORD PTR [edi+512]
$LN18@OnRender:
  00322	8b 75 e4	 mov	 esi, DWORD PTR _iXPos$[ebp]
  00325	f3 0f 10 4d e8	 movss	 xmm1, DWORD PTR tv368[ebp]
  0032a	8b 10		 mov	 edx, DWORD PTR [eax]
  0032c	53		 push	 ebx
  0032d	53		 push	 ebx
  0032e	53		 push	 ebx
  0032f	53		 push	 ebx
  00330	51		 push	 ecx
  00331	51		 push	 ecx
  00332	f3 0f 2c c8	 cvttss2si ecx, xmm0
  00336	8d 4c 31 1a	 lea	 ecx, DWORD PTR [ecx+esi+26]
  0033a	0f 57 c0	 xorps	 xmm0, xmm0
  0033d	f3 0f 2a c1	 cvtsi2ss xmm0, ecx
  00341	f3 0f 11 4c 24
	04		 movss	 DWORD PTR [esp+4], xmm1
  00347	8b c8		 mov	 ecx, eax
  00349	f3 0f 11 04 24	 movss	 DWORD PTR [esp], xmm0
  0034e	ff 12		 call	 DWORD PTR [edx]

; 210  : 			}
; 211  : 			else

  00350	eb 57		 jmp	 SHORT $LN1@OnRender
$LN3@OnRender:

; 212  : 			{
; 213  : 				g_FontMgr.PrintTextWidthCut( iXPos + 23, iYPos + 3, FONT_SIZE_12, 118.0f, m_UserID.c_str() );

  00352	ff 15 00 00 00
	00		 call	 DWORD PTR __imp_?c_str@ioHashString@@QBEPBDXZ
  00358	f3 0f 10 05 00
	00 00 00	 movss	 xmm0, DWORD PTR __real@42ec0000
  00360	50		 push	 eax
  00361	8b 45 e8	 mov	 eax, DWORD PTR _iYPos$[ebp]
  00364	83 ec 10	 sub	 esp, 16			; 00000010H
  00367	f3 0f 11 44 24
	0c		 movss	 DWORD PTR [esp+12], xmm0
  0036d	f3 0f 10 05 00
	00 00 00	 movss	 xmm0, DWORD PTR __real@3f19999a
  00375	f3 0f 11 44 24
	08		 movss	 DWORD PTR [esp+8], xmm0
  0037b	83 c0 03	 add	 eax, 3
  0037e	0f 57 c0	 xorps	 xmm0, xmm0
  00381	f3 0f 2a c0	 cvtsi2ss xmm0, eax
  00385	8b 45 e4	 mov	 eax, DWORD PTR _iXPos$[ebp]
  00388	f3 0f 11 44 24
	04		 movss	 DWORD PTR [esp+4], xmm0
  0038e	83 c0 17	 add	 eax, 23			; 00000017H
  00391	0f 57 c0	 xorps	 xmm0, xmm0
  00394	f3 0f 2a c0	 cvtsi2ss xmm0, eax
  00398	f3 0f 11 04 24	 movss	 DWORD PTR [esp], xmm0
  0039d	ff d6		 call	 esi
  0039f	50		 push	 eax
  003a0	ff 15 00 00 00
	00		 call	 DWORD PTR __imp_?PrintTextWidthCut@ioFontManager@@QAAXMMMMPBDZZ
  003a6	83 c4 18	 add	 esp, 24			; 00000018H
$LN1@OnRender:

; 214  : 			}
; 215  : 		}
; 216  : 	}
; 217  : }

  003a9	e8 00 00 00 00	 call	 __EH_epilog3
  003ae	c3		 ret	 0
_TEXT	ENDS
;	COMDAT text$x
text$x	SEGMENT
__unwindfunclet$?OnRender@GuildHomeAdminListBtn@@MAEXXZ$0:
  00000	8d 4d d0	 lea	 ecx, DWORD PTR $T505938[ebp]
  00003	ff 25 00 00 00
	00		 jmp	 DWORD PTR __imp_??1ioHashString@@QAE@XZ
__unwindfunclet$?OnRender@GuildHomeAdminListBtn@@MAEXXZ$1:
  00009	8d 4d c0	 lea	 ecx, DWORD PTR $T505942[ebp]
  0000c	ff 25 00 00 00
	00		 jmp	 DWORD PTR __imp_??1ioHashString@@QAE@XZ
__ehhandler$?OnRender@GuildHomeAdminListBtn@@MAEXXZ:
  00012	8b 54 24 08	 mov	 edx, DWORD PTR [esp+8]
  00016	8d 42 0c	 lea	 eax, DWORD PTR [edx+12]
  00019	8b 4a bc	 mov	 ecx, DWORD PTR [edx-68]
  0001c	33 c8		 xor	 ecx, eax
  0001e	e8 00 00 00 00	 call	 @__security_check_cookie@4
  00023	b8 00 00 00 00	 mov	 eax, OFFSET __ehfuncinfo$?OnRender@GuildHomeAdminListBtn@@MAEXXZ
  00028	e9 00 00 00 00	 jmp	 ___CxxFrameHandler3
text$x	ENDS
?OnRender@GuildHomeAdminListBtn@@MAEXXZ ENDP		; GuildHomeAdminListBtn::OnRender
PUBLIC	?_DECSTR@@YAXPADH@Z				; _DECSTR
; Function compile flags: /Ogsp
; File d:\lost saga for developer\youtube\tutorial\source\src\lsclient\stringprotect.h
;	COMDAT ?_DECSTR@@YAXPADH@Z
_TEXT	SEGMENT
_s$ = 8							; size = 4
_l$ = 12						; size = 4
?_DECSTR@@YAXPADH@Z PROC				; _DECSTR, COMDAT

; 40   : __forceinline void _DECSTR(char* s, int l){int i=0,l4=(l-1)/4,*p=(int*)s;s[l-1]=0;for(;i<l4;++i)*(p++)^=0xEAEBECED;for(i=l4*4;i<l-1;++i)s[i]^=0xED-i%4;}

  00000	55		 push	 ebp
  00001	8b ec		 mov	 ebp, esp
  00003	8b 4d 0c	 mov	 ecx, DWORD PTR _l$[ebp]
  00006	56		 push	 esi
  00007	8b 75 08	 mov	 esi, DWORD PTR _s$[ebp]
  0000a	57		 push	 edi
  0000b	8d 79 ff	 lea	 edi, DWORD PTR [ecx-1]
  0000e	8b c7		 mov	 eax, edi
  00010	99		 cdq
  00011	83 e2 03	 and	 edx, 3
  00014	03 c2		 add	 eax, edx
  00016	c1 f8 02	 sar	 eax, 2
  00019	8b d6		 mov	 edx, esi
  0001b	c6 44 0e ff 00	 mov	 BYTE PTR [esi+ecx-1], 0
  00020	85 c0		 test	 eax, eax
  00022	7e 0e		 jle	 SHORT $LN4@DECSTR
  00024	8b c8		 mov	 ecx, eax
$LL6@DECSTR:
  00026	81 32 ed ec eb
	ea		 xor	 DWORD PTR [edx], -353637139 ; eaebecedH
  0002c	83 c2 04	 add	 edx, 4
  0002f	49		 dec	 ecx
  00030	75 f4		 jne	 SHORT $LL6@DECSTR
$LN4@DECSTR:
  00032	c1 e0 02	 shl	 eax, 2
  00035	eb 17		 jmp	 SHORT $LN14@DECSTR
$LL3@DECSTR:
  00037	8b c8		 mov	 ecx, eax
  00039	81 e1 03 00 00
	80		 and	 ecx, -2147483645	; 80000003H
  0003f	79 05		 jns	 SHORT $LN13@DECSTR
  00041	49		 dec	 ecx
  00042	83 c9 fc	 or	 ecx, -4			; fffffffcH
  00045	41		 inc	 ecx
$LN13@DECSTR:
  00046	b2 ed		 mov	 dl, -19			; ffffffedH
  00048	2a d1		 sub	 dl, cl
  0004a	30 14 30	 xor	 BYTE PTR [eax+esi], dl
  0004d	40		 inc	 eax
$LN14@DECSTR:
  0004e	3b c7		 cmp	 eax, edi
  00050	7c e5		 jl	 SHORT $LL3@DECSTR
  00052	5f		 pop	 edi
  00053	5e		 pop	 esi
  00054	5d		 pop	 ebp
  00055	c3		 ret	 0
?_DECSTR@@YAXPADH@Z ENDP				; _DECSTR
_TEXT	ENDS
PUBLIC	?GetGuildIndex@ioGuildData@@QAEKXZ		; ioGuildData::GetGuildIndex
; Function compile flags: /Ogsp
; File d:\lost saga for developer\youtube\tutorial\source\src\lsclient\ioguildinfo.h
;	COMDAT ?GetGuildIndex@ioGuildData@@QAEKXZ
_TEXT	SEGMENT
?GetGuildIndex@ioGuildData@@QAEKXZ PROC			; ioGuildData::GetGuildIndex, COMDAT
; _this$ = ecx

; 90   : 	inline DWORD GetGuildIndex(){ return m_dwGuildIndex; }

  00000	8b 41 04	 mov	 eax, DWORD PTR [ecx+4]
  00003	c3		 ret	 0
?GetGuildIndex@ioGuildData@@QAEKXZ ENDP			; ioGuildData::GetGuildIndex
_TEXT	ENDS
EXTRN	??3@YAXPAX@Z:PROC				; operator delete
; Function compile flags: /Ogsp
;	COMDAT ??_GGuildHomeAdminInfoListWnd@@UAEPAXI@Z
_TEXT	SEGMENT
___flags$ = 8						; size = 4
??_GGuildHomeAdminInfoListWnd@@UAEPAXI@Z PROC		; GuildHomeAdminInfoListWnd::`scalar deleting destructor', COMDAT
; _this$ = ecx
  00000	55		 push	 ebp
  00001	8b ec		 mov	 ebp, esp
  00003	56		 push	 esi
  00004	8b f1		 mov	 esi, ecx
  00006	e8 00 00 00 00	 call	 ??1GuildHomeAdminInfoListWnd@@UAE@XZ ; GuildHomeAdminInfoListWnd::~GuildHomeAdminInfoListWnd
  0000b	f6 45 08 01	 test	 BYTE PTR ___flags$[ebp], 1
  0000f	74 07		 je	 SHORT $LN1@scalar
  00011	56		 push	 esi
  00012	e8 00 00 00 00	 call	 ??3@YAXPAX@Z		; operator delete
  00017	59		 pop	 ecx
$LN1@scalar:
  00018	8b c6		 mov	 eax, esi
  0001a	5e		 pop	 esi
  0001b	5d		 pop	 ebp
  0001c	c2 04 00	 ret	 4
??_GGuildHomeAdminInfoListWnd@@UAEPAXI@Z ENDP		; GuildHomeAdminInfoListWnd::`scalar deleting destructor'
; Function compile flags: /Ogsp
_TEXT	ENDS
;	COMDAT ??_GGuildHomeAdminListBtn@@UAEPAXI@Z
_TEXT	SEGMENT
___flags$ = 8						; size = 4
??_GGuildHomeAdminListBtn@@UAEPAXI@Z PROC		; GuildHomeAdminListBtn::`scalar deleting destructor', COMDAT
; _this$ = ecx
  00000	55		 push	 ebp
  00001	8b ec		 mov	 ebp, esp
  00003	56		 push	 esi
  00004	8b f1		 mov	 esi, ecx
  00006	e8 00 00 00 00	 call	 ??1GuildHomeAdminListBtn@@UAE@XZ ; GuildHomeAdminListBtn::~GuildHomeAdminListBtn
  0000b	f6 45 08 01	 test	 BYTE PTR ___flags$[ebp], 1
  0000f	74 07		 je	 SHORT $LN1@scalar@2
  00011	56		 push	 esi
  00012	e8 00 00 00 00	 call	 ??3@YAXPAX@Z		; operator delete
  00017	59		 pop	 ecx
$LN1@scalar@2:
  00018	8b c6		 mov	 eax, esi
  0001a	5e		 pop	 esi
  0001b	5d		 pop	 ebp
  0001c	c2 04 00	 ret	 4
??_GGuildHomeAdminListBtn@@UAEPAXI@Z ENDP		; GuildHomeAdminListBtn::`scalar deleting destructor'
_TEXT	ENDS
PUBLIC	?SetUserInfo@GuildHomeAdminListBtn@@QAEXPAVioGuildData@@ABVioHashString@@KH1@Z ; GuildHomeAdminListBtn::SetUserInfo
EXTRN	?IsGuildMaster@ioGuildInfo@@QAE_NXZ:PROC	; ioGuildInfo::IsGuildMaster
EXTRN	?IsMyGuild@ioGuildInfo@@QAE_NK@Z:PROC		; ioGuildInfo::IsMyGuild
EXTRN	?GetSingleton@ioGuildInfo@@SAAAV1@XZ:PROC	; ioGuildInfo::GetSingleton
EXTRN	__imp_?ShowChildWnd@ioWnd@@QAEXK_N@Z:PROC
EXTRN	__imp_??4ioHashString@@QAEAAV0@ABV0@@Z:PROC
;	COMDAT xdata$x
xdata$x	SEGMENT
__unwindtable$?SetUserInfo@GuildHomeAdminListBtn@@QAEXPAVioGuildData@@ABVioHashString@@KH1@Z DD 0ffffffffH
	DD	FLAT:__unwindfunclet$?SetUserInfo@GuildHomeAdminListBtn@@QAEXPAVioGuildData@@ABVioHashString@@KH1@Z$0
	DD	00H
	DD	FLAT:__unwindfunclet$?SetUserInfo@GuildHomeAdminListBtn@@QAEXPAVioGuildData@@ABVioHashString@@KH1@Z$1
	DD	01H
	DD	FLAT:__unwindfunclet$?SetUserInfo@GuildHomeAdminListBtn@@QAEXPAVioGuildData@@ABVioHashString@@KH1@Z$2
__ehfuncinfo$?SetUserInfo@GuildHomeAdminListBtn@@QAEXPAVioGuildData@@ABVioHashString@@KH1@Z DD 019930522H
	DD	03H
	DD	FLAT:__unwindtable$?SetUserInfo@GuildHomeAdminListBtn@@QAEXPAVioGuildData@@ABVioHashString@@KH1@Z
	DD	2 DUP(00H)
	DD	2 DUP(00H)
	DD	00H
	DD	01H
; Function compile flags: /Ogsp
; File d:\lost saga for developer\youtube\tutorial\source\src\lsclient\gui\guildhomeadmininfolistwnd.cpp
xdata$x	ENDS
;	COMDAT ?SetUserInfo@GuildHomeAdminListBtn@@QAEXPAVioGuildData@@ABVioHashString@@KH1@Z
_TEXT	SEGMENT
$T505985 = -64						; size = 16
$T505986 = -48						; size = 16
$T505988 = -32						; size = 16
$T505990 = -16						; size = 4
__$EHRec$ = -12						; size = 12
_pGuildData$ = 8					; size = 4
tv257 = 12						; size = 4
_UserID$ = 12						; size = 4
$T505984 = 15						; size = 1
_dwUserIdx$ = 16					; size = 4
_nUserLevel$ = 20					; size = 4
_pButton$ = 24						; size = 4
_szUserPos$ = 24					; size = 4
?SetUserInfo@GuildHomeAdminListBtn@@QAEXPAVioGuildData@@ABVioHashString@@KH1@Z PROC ; GuildHomeAdminListBtn::SetUserInfo, COMDAT
; _this$ = ecx

; 86   : {

  00000	6a 34		 push	 52			; 00000034H
  00002	b8 00 00 00 00	 mov	 eax, __ehhandler$?SetUserInfo@GuildHomeAdminListBtn@@QAEXPAVioGuildData@@ABVioHashString@@KH1@Z
  00007	e8 00 00 00 00	 call	 __EH_prolog3
  0000c	8b f1		 mov	 esi, ecx

; 87   : 	m_UserID		= UserID;

  0000e	ff 75 0c	 push	 DWORD PTR _UserID$[ebp]
  00011	33 db		 xor	 ebx, ebx
  00013	89 5d f0	 mov	 DWORD PTR $T505990[ebp], ebx
  00016	8b 3d 00 00 00
	00		 mov	 edi, DWORD PTR __imp_??4ioHashString@@QAEAAV0@ABV0@@Z
  0001c	8d 8e 04 02 00
	00		 lea	 ecx, DWORD PTR [esi+516]
  00022	ff d7		 call	 edi

; 88   : 	m_UserPos		= szUserPos; 

  00024	ff 75 18	 push	 DWORD PTR _szUserPos$[ebp]
  00027	8d 8e 14 02 00
	00		 lea	 ecx, DWORD PTR [esi+532]
  0002d	89 4d 0c	 mov	 DWORD PTR tv257[ebp], ecx
  00030	ff d7		 call	 edi

; 89   : 	m_nUserLevel	= nUserLevel;

  00032	8b 45 14	 mov	 eax, DWORD PTR _nUserLevel$[ebp]
  00035	89 86 24 02 00
	00		 mov	 DWORD PTR [esi+548], eax

; 90   : 	m_dwUserIdx		= dwUserIdx;

  0003b	8b 45 10	 mov	 eax, DWORD PTR _dwUserIdx$[ebp]

; 91   : 		
; 92   : 	if( HasWndStyle( IWS_INACTIVE ) )

  0003e	6a 02		 push	 2
  00040	8b ce		 mov	 ecx, esi
  00042	89 86 28 02 00
	00		 mov	 DWORD PTR [esi+552], eax
  00048	ff 15 00 00 00
	00		 call	 DWORD PTR __imp_?HasWndStyle@ioWnd@@QBE_NK@Z

; 93   : 		HideChildWnd( ID_CHECK_BOX );

  0004e	53		 push	 ebx
  0004f	43		 inc	 ebx
  00050	8b ce		 mov	 ecx, esi
  00052	53		 push	 ebx
  00053	84 c0		 test	 al, al
  00055	74 08		 je	 SHORT $LN10@SetUserInf
  00057	ff 15 00 00 00
	00		 call	 DWORD PTR __imp_?HideChildWnd@ioWnd@@QAEXK_N@Z

; 94   : 	else

  0005d	eb 06		 jmp	 SHORT $LN9@SetUserInf
$LN10@SetUserInf:

; 95   : 		ShowChildWnd( ID_CHECK_BOX );

  0005f	ff 15 00 00 00
	00		 call	 DWORD PTR __imp_?ShowChildWnd@ioWnd@@QAEXK_N@Z
$LN9@SetUserInf:

; 96   : 
; 97   : 	ioCheckButton* pButton = dynamic_cast<ioCheckButton*>( FindChildWnd( ID_CHECK_BOX ) );

  00065	6a 00		 push	 0
  00067	68 00 00 00 00	 push	 OFFSET ??_R0?AVioCheckButton@@@8
  0006c	68 00 00 00 00	 push	 OFFSET ??_R0?AVioWnd@@@8
  00071	6a 00		 push	 0
  00073	53		 push	 ebx
  00074	8b ce		 mov	 ecx, esi
  00076	ff 15 00 00 00
	00		 call	 DWORD PTR __imp_?FindChildWnd@ioWnd@@QAEPAV1@K@Z
  0007c	50		 push	 eax
  0007d	e8 00 00 00 00	 call	 ___RTDynamicCast
  00082	8b f8		 mov	 edi, eax
  00084	83 c4 14	 add	 esp, 20			; 00000014H
  00087	89 7d 18	 mov	 DWORD PTR _pButton$[ebp], edi

; 98   : 	if( pButton )

  0008a	85 ff		 test	 edi, edi
  0008c	0f 84 2d 01 00
	00		 je	 $LN1@SetUserInf

; 99   : 	{
; 100  : 		if( g_GuildInfo.IsMyGuild( pGuildData->GetGuildIndex() ) )

  00092	8b 45 08	 mov	 eax, DWORD PTR _pGuildData$[ebp]
  00095	ff 70 04	 push	 DWORD PTR [eax+4]
  00098	e8 00 00 00 00	 call	 ?GetSingleton@ioGuildInfo@@SAAAV1@XZ ; ioGuildInfo::GetSingleton
  0009d	8b c8		 mov	 ecx, eax
  0009f	e8 00 00 00 00	 call	 ?IsMyGuild@ioGuildInfo@@QAE_NK@Z ; ioGuildInfo::IsMyGuild
  000a4	84 c0		 test	 al, al
  000a6	0f 84 0c 01 00
	00		 je	 $LN7@SetUserInf

; 101  : 		{
; 102  : 			ioLocalParent *pLocal = g_LocalMgr.GetLocal( ioLocalManager::GetLocalType() );

  000ac	ff 15 00 00 00
	00		 call	 DWORD PTR __imp_?GetLocalType@ioLocalManagerParent@@SA?AW4LocalType@1@XZ
  000b2	50		 push	 eax
  000b3	e8 00 00 00 00	 call	 ?GetSingleton@ioLocalManager@@SAAAV1@XZ ; ioLocalManager::GetSingleton
  000b8	8b c8		 mov	 ecx, eax
  000ba	e8 00 00 00 00	 call	 ?GetLocal@ioLocalManager@@QAEPAVioLocalParent@@W4LocalType@ioLocalManagerParent@@@Z ; ioLocalManager::GetLocal
  000bf	8b f0		 mov	 esi, eax

; 103  : 			if( pLocal )

  000c1	85 f6		 test	 esi, esi
  000c3	0f 84 d6 00 00
	00		 je	 $LN4@SetUserInf

; 104  : 			{
; 105  : 				if( m_UserPos == pLocal->GetGuildAdminPosition() || m_UserPos == pLocal->GetGuildMasterPostion() || m_UserPos == pLocal->GetGuildSecondMasterPosition() )

  000c9	8b 06		 mov	 eax, DWORD PTR [esi]
  000cb	8b ce		 mov	 ecx, esi
  000cd	ff 50 68	 call	 DWORD PTR [eax+104]
  000d0	8b 3d 00 00 00
	00		 mov	 edi, DWORD PTR __imp_??0ioHashString@@QAE@PBD@Z
  000d6	50		 push	 eax
  000d7	8d 4d c0	 lea	 ecx, DWORD PTR $T505985[ebp]
  000da	ff d7		 call	 edi
  000dc	8b 4d 0c	 mov	 ecx, DWORD PTR tv257[ebp]
  000df	83 65 fc 00	 and	 DWORD PTR __$EHRec$[ebp+8], 0
  000e3	8d 45 c0	 lea	 eax, DWORD PTR $T505985[ebp]
  000e6	50		 push	 eax
  000e7	89 5d f0	 mov	 DWORD PTR $T505990[ebp], ebx
  000ea	ff 15 00 00 00
	00		 call	 DWORD PTR __imp_??8ioHashString@@QBE_NABV0@@Z
  000f0	84 c0		 test	 al, al
  000f2	75 58		 jne	 SHORT $LN13@SetUserInf
  000f4	8b 06		 mov	 eax, DWORD PTR [esi]
  000f6	8b ce		 mov	 ecx, esi
  000f8	ff 50 5c	 call	 DWORD PTR [eax+92]
  000fb	50		 push	 eax
  000fc	8d 4d d0	 lea	 ecx, DWORD PTR $T505986[ebp]
  000ff	ff d7		 call	 edi
  00101	8b 4d 0c	 mov	 ecx, DWORD PTR tv257[ebp]
  00104	8d 45 d0	 lea	 eax, DWORD PTR $T505986[ebp]
  00107	50		 push	 eax
  00108	89 5d fc	 mov	 DWORD PTR __$EHRec$[ebp+8], ebx
  0010b	c7 45 f0 03 00
	00 00		 mov	 DWORD PTR $T505990[ebp], 3
  00112	ff 15 00 00 00
	00		 call	 DWORD PTR __imp_??8ioHashString@@QBE_NABV0@@Z
  00118	84 c0		 test	 al, al
  0011a	75 30		 jne	 SHORT $LN13@SetUserInf
  0011c	8b 06		 mov	 eax, DWORD PTR [esi]
  0011e	8b ce		 mov	 ecx, esi
  00120	ff 50 60	 call	 DWORD PTR [eax+96]
  00123	50		 push	 eax
  00124	8d 4d e0	 lea	 ecx, DWORD PTR $T505988[ebp]
  00127	ff d7		 call	 edi
  00129	8b 4d 0c	 mov	 ecx, DWORD PTR tv257[ebp]
  0012c	8d 45 e0	 lea	 eax, DWORD PTR $T505988[ebp]
  0012f	50		 push	 eax
  00130	c7 45 fc 02 00
	00 00		 mov	 DWORD PTR __$EHRec$[ebp+8], 2
  00137	c7 45 f0 07 00
	00 00		 mov	 DWORD PTR $T505990[ebp], 7
  0013e	ff 15 00 00 00
	00		 call	 DWORD PTR __imp_??8ioHashString@@QBE_NABV0@@Z
  00144	c6 45 0f 00	 mov	 BYTE PTR $T505984[ebp], 0
  00148	84 c0		 test	 al, al
  0014a	74 03		 je	 SHORT $LN14@SetUserInf
$LN13@SetUserInf:
  0014c	88 5d 0f	 mov	 BYTE PTR $T505984[ebp], bl
$LN14@SetUserInf:
  0014f	f6 45 f0 04	 test	 BYTE PTR $T505990[ebp], 4
  00153	8b 35 00 00 00
	00		 mov	 esi, DWORD PTR __imp_??1ioHashString@@QAE@XZ
  00159	89 5d fc	 mov	 DWORD PTR __$EHRec$[ebp+8], ebx
  0015c	74 09		 je	 SHORT $LN21@SetUserInf
  0015e	83 65 f0 fb	 and	 DWORD PTR $T505990[ebp], -5 ; fffffffbH
  00162	8d 4d e0	 lea	 ecx, DWORD PTR $T505988[ebp]
  00165	ff d6		 call	 esi
$LN21@SetUserInf:
  00167	83 65 fc 00	 and	 DWORD PTR __$EHRec$[ebp+8], 0
  0016b	f6 45 f0 02	 test	 BYTE PTR $T505990[ebp], 2
  0016f	74 09		 je	 SHORT $LN22@SetUserInf
  00171	83 65 f0 fd	 and	 DWORD PTR $T505990[ebp], -3 ; fffffffdH
  00175	8d 4d d0	 lea	 ecx, DWORD PTR $T505986[ebp]
  00178	ff d6		 call	 esi
$LN22@SetUserInf:
  0017a	83 4d fc ff	 or	 DWORD PTR __$EHRec$[ebp+8], -1
  0017e	84 5d f0	 test	 BYTE PTR $T505990[ebp], bl
  00181	74 05		 je	 SHORT $LN23@SetUserInf
  00183	8d 4d c0	 lea	 ecx, DWORD PTR $T505985[ebp]
  00186	ff d6		 call	 esi
$LN23@SetUserInf:
  00188	80 7d 0f 00	 cmp	 BYTE PTR $T505984[ebp], 0

; 106  : 				{
; 107  : 					pButton->SetCheck( true );

  0018c	8b 4d 18	 mov	 ecx, DWORD PTR _pButton$[ebp]
  0018f	74 03		 je	 SHORT $LN5@SetUserInf
  00191	53		 push	 ebx

; 108  : 				}
; 109  : 				else

  00192	eb 02		 jmp	 SHORT $LN27@SetUserInf
$LN5@SetUserInf:

; 110  : 				{
; 111  : 					pButton->SetCheck( false );

  00194	6a 00		 push	 0
$LN27@SetUserInf:
  00196	ff 15 00 00 00
	00		 call	 DWORD PTR __imp_?SetCheck@ioCheckButton@@QAEX_N@Z
  0019c	8b 7d 18	 mov	 edi, DWORD PTR _pButton$[ebp]
$LN4@SetUserInf:

; 112  : 				}
; 113  : 			}
; 114  : 
; 115  : 			if( g_GuildInfo.IsGuildMaster() )

  0019f	e8 00 00 00 00	 call	 ?GetSingleton@ioGuildInfo@@SAAAV1@XZ ; ioGuildInfo::GetSingleton
  001a4	8b c8		 mov	 ecx, eax
  001a6	e8 00 00 00 00	 call	 ?IsGuildMaster@ioGuildInfo@@QAE_NXZ ; ioGuildInfo::IsGuildMaster
  001ab	84 c0		 test	 al, al

; 116  : 			{
; 117  : 				pButton->SetActive();

  001ad	8b 07		 mov	 eax, DWORD PTR [edi]
  001af	8b cf		 mov	 ecx, edi
  001b1	74 09		 je	 SHORT $LN3@SetUserInf
  001b3	ff 50 20	 call	 DWORD PTR [eax+32]

; 118  : 			}
; 119  : 			else

  001b6	eb 07		 jmp	 SHORT $LN1@SetUserInf
$LN7@SetUserInf:

; 120  : 			{
; 121  : 				pButton->SetInActive();
; 122  : 			}
; 123  : 		}
; 124  : 		else
; 125  : 		{
; 126  : 			pButton->SetInActive();

  001b8	8b 07		 mov	 eax, DWORD PTR [edi]
  001ba	8b cf		 mov	 ecx, edi
$LN3@SetUserInf:
  001bc	ff 50 24	 call	 DWORD PTR [eax+36]
$LN1@SetUserInf:

; 127  : 		}
; 128  : 	}
; 129  : }

  001bf	e8 00 00 00 00	 call	 __EH_epilog3
  001c4	c2 14 00	 ret	 20			; 00000014H
_TEXT	ENDS
;	COMDAT text$x
text$x	SEGMENT
__unwindfunclet$?SetUserInfo@GuildHomeAdminListBtn@@QAEXPAVioGuildData@@ABVioHashString@@KH1@Z$0:
  00000	8b 45 f0	 mov	 eax, DWORD PTR $T505990[ebp]
  00003	83 e0 01	 and	 eax, 1
  00006	0f 84 0d 00 00
	00		 je	 $LN16@SetUserInf
  0000c	83 65 f0 fe	 and	 DWORD PTR $T505990[ebp], -2 ; fffffffeH
  00010	8d 4d c0	 lea	 ecx, DWORD PTR $T505985[ebp]
  00013	ff 25 00 00 00
	00		 jmp	 DWORD PTR __imp_??1ioHashString@@QAE@XZ
$LN16@SetUserInf:
  00019	c3		 ret	 0
__unwindfunclet$?SetUserInfo@GuildHomeAdminListBtn@@QAEXPAVioGuildData@@ABVioHashString@@KH1@Z$1:
  0001a	8b 45 f0	 mov	 eax, DWORD PTR $T505990[ebp]
  0001d	83 e0 02	 and	 eax, 2
  00020	0f 84 0d 00 00
	00		 je	 $LN18@SetUserInf
  00026	83 65 f0 fd	 and	 DWORD PTR $T505990[ebp], -3 ; fffffffdH
  0002a	8d 4d d0	 lea	 ecx, DWORD PTR $T505986[ebp]
  0002d	ff 25 00 00 00
	00		 jmp	 DWORD PTR __imp_??1ioHashString@@QAE@XZ
$LN18@SetUserInf:
  00033	c3		 ret	 0
__unwindfunclet$?SetUserInfo@GuildHomeAdminListBtn@@QAEXPAVioGuildData@@ABVioHashString@@KH1@Z$2:
  00034	8b 45 f0	 mov	 eax, DWORD PTR $T505990[ebp]
  00037	83 e0 04	 and	 eax, 4
  0003a	0f 84 0d 00 00
	00		 je	 $LN20@SetUserInf
  00040	83 65 f0 fb	 and	 DWORD PTR $T505990[ebp], -5 ; fffffffbH
  00044	8d 4d e0	 lea	 ecx, DWORD PTR $T505988[ebp]
  00047	ff 25 00 00 00
	00		 jmp	 DWORD PTR __imp_??1ioHashString@@QAE@XZ
$LN20@SetUserInf:
  0004d	c3		 ret	 0
__ehhandler$?SetUserInfo@GuildHomeAdminListBtn@@QAEXPAVioGuildData@@ABVioHashString@@KH1@Z:
  0004e	8b 54 24 08	 mov	 edx, DWORD PTR [esp+8]
  00052	8d 42 0c	 lea	 eax, DWORD PTR [edx+12]
  00055	8b 4a bc	 mov	 ecx, DWORD PTR [edx-68]
  00058	33 c8		 xor	 ecx, eax
  0005a	e8 00 00 00 00	 call	 @__security_check_cookie@4
  0005f	b8 00 00 00 00	 mov	 eax, OFFSET __ehfuncinfo$?SetUserInfo@GuildHomeAdminListBtn@@QAEXPAVioGuildData@@ABVioHashString@@KH1@Z
  00064	e9 00 00 00 00	 jmp	 ___CxxFrameHandler3
text$x	ENDS
?SetUserInfo@GuildHomeAdminListBtn@@QAEXPAVioGuildData@@ABVioHashString@@KH1@Z ENDP ; GuildHomeAdminListBtn::SetUserInfo
PUBLIC	__$ArrayPad$
PUBLIC	??$?8$0L@@@YA_NABVioHashString@@AAY0L@$$CBD@Z	; operator==<11>
; Function compile flags: /Ogsp
; File d:\lost saga for developer\youtube\tutorial\source\src\io3dengine\iohashstring.h
;	COMDAT ??$?8$0L@@@YA_NABVioHashString@@AAY0L@$$CBD@Z
_TEXT	SEGMENT
__t$ = -20						; size = 11
__$ArrayPad$ = -4					; size = 4
_lhs$ = 8						; size = 4
_t$ = 12						; size = 4
??$?8$0L@@@YA_NABVioHashString@@AAY0L@$$CBD@Z PROC	; operator==<11>, COMDAT

; 146  : {

  00000	55		 push	 ebp
  00001	8b ec		 mov	 ebp, esp
  00003	83 ec 14	 sub	 esp, 20			; 00000014H
  00006	a1 00 00 00 00	 mov	 eax, DWORD PTR ___security_cookie
  0000b	33 c5		 xor	 eax, ebp
  0000d	89 45 fc	 mov	 DWORD PTR __$ArrayPad$[ebp], eax
  00010	8b 45 0c	 mov	 eax, DWORD PTR _t$[ebp]

; 147  : 	_ENCSTR(t, _t); return ( strcmp( lhs.c_str(), _t ) == 0 );

  00013	8a 10		 mov	 dl, BYTE PTR [eax]
  00015	56		 push	 esi
  00016	57		 push	 edi
  00017	8b 7d 08	 mov	 edi, DWORD PTR _lhs$[ebp]
  0001a	84 d2		 test	 dl, dl
  0001c	0f 84 24 01 00
	00		 je	 $LN96@operator
  00022	80 f2 ed	 xor	 dl, -19			; ffffffedH
  00025	88 55 ec	 mov	 BYTE PTR __t$[ebp], dl
  00028	8a 50 01	 mov	 dl, BYTE PTR [eax+1]
  0002b	84 d2		 test	 dl, dl
  0002d	0f 84 0d 01 00
	00		 je	 $LN95@operator
  00033	80 f2 ec	 xor	 dl, -20			; ffffffecH
  00036	88 55 ed	 mov	 BYTE PTR __t$[ebp+1], dl
  00039	8a 50 02	 mov	 dl, BYTE PTR [eax+2]
  0003c	84 d2		 test	 dl, dl
  0003e	0f 84 f6 00 00
	00		 je	 $LN94@operator
  00044	80 f2 eb	 xor	 dl, -21			; ffffffebH
  00047	88 55 ee	 mov	 BYTE PTR __t$[ebp+2], dl
  0004a	8a 50 03	 mov	 dl, BYTE PTR [eax+3]
  0004d	84 d2		 test	 dl, dl
  0004f	0f 84 df 00 00
	00		 je	 $LN93@operator
  00055	80 f2 ea	 xor	 dl, -22			; ffffffeaH
  00058	88 55 ef	 mov	 BYTE PTR __t$[ebp+3], dl
  0005b	8a 50 04	 mov	 dl, BYTE PTR [eax+4]
  0005e	84 d2		 test	 dl, dl
  00060	0f 84 c8 00 00
	00		 je	 $LN92@operator
  00066	80 f2 ed	 xor	 dl, -19			; ffffffedH
  00069	88 55 f0	 mov	 BYTE PTR __t$[ebp+4], dl
  0006c	8a 50 05	 mov	 dl, BYTE PTR [eax+5]
  0006f	84 d2		 test	 dl, dl
  00071	0f 84 b1 00 00
	00		 je	 $LN91@operator
  00077	80 f2 ec	 xor	 dl, -20			; ffffffecH
  0007a	88 55 f1	 mov	 BYTE PTR __t$[ebp+5], dl
  0007d	8a 50 06	 mov	 dl, BYTE PTR [eax+6]
  00080	84 d2		 test	 dl, dl
  00082	0f 84 9a 00 00
	00		 je	 $LN90@operator
  00088	80 f2 eb	 xor	 dl, -21			; ffffffebH
  0008b	88 55 f2	 mov	 BYTE PTR __t$[ebp+6], dl
  0008e	8a 50 07	 mov	 dl, BYTE PTR [eax+7]
  00091	84 d2		 test	 dl, dl
  00093	0f 84 83 00 00
	00		 je	 $LN89@operator
  00099	80 f2 ea	 xor	 dl, -22			; ffffffeaH
  0009c	88 55 f3	 mov	 BYTE PTR __t$[ebp+7], dl
  0009f	8a 50 08	 mov	 dl, BYTE PTR [eax+8]
  000a2	84 d2		 test	 dl, dl
  000a4	74 70		 je	 SHORT $LN88@operator
  000a6	80 f2 ed	 xor	 dl, -19			; ffffffedH
  000a9	88 55 f4	 mov	 BYTE PTR __t$[ebp+8], dl
  000ac	8a 50 09	 mov	 dl, BYTE PTR [eax+9]
  000af	84 d2		 test	 dl, dl
  000b1	74 5d		 je	 SHORT $LN87@operator
  000b3	80 f2 ec	 xor	 dl, -20			; ffffffecH
  000b6	80 78 0a 00	 cmp	 BYTE PTR [eax+10], 0
  000ba	88 55 f5	 mov	 BYTE PTR __t$[ebp+9], dl
  000bd	0f 84 87 00 00
	00		 je	 $LN1@operator
  000c3	8a 50 0b	 mov	 dl, BYTE PTR [eax+11]
  000c6	84 d2		 test	 dl, dl
  000c8	74 40		 je	 SHORT $LN85@operator
  000ca	80 f2 ea	 xor	 dl, -22			; ffffffeaH
  000cd	88 55 f7	 mov	 BYTE PTR __t$[ebp+11], dl
  000d0	8a 50 0c	 mov	 dl, BYTE PTR [eax+12]
  000d3	84 d2		 test	 dl, dl
  000d5	74 2d		 je	 SHORT $LN84@operator
  000d7	80 f2 ed	 xor	 dl, -19			; ffffffedH
  000da	88 55 f8	 mov	 BYTE PTR __t$[ebp+12], dl
  000dd	8a 50 0d	 mov	 dl, BYTE PTR [eax+13]
  000e0	84 d2		 test	 dl, dl
  000e2	74 1a		 je	 SHORT $LN83@operator
  000e4	8a 40 0e	 mov	 al, BYTE PTR [eax+14]
  000e7	80 f2 ec	 xor	 dl, -20			; ffffffecH
  000ea	88 55 f9	 mov	 BYTE PTR __t$[ebp+13], dl
  000ed	84 c0		 test	 al, al
  000ef	74 07		 je	 SHORT $LN82@operator
  000f1	34 eb		 xor	 al, -21			; ffffffebH
  000f3	88 45 fa	 mov	 BYTE PTR __t$[ebp+14], al
  000f6	eb 52		 jmp	 SHORT $LN1@operator
$LN82@operator:
  000f8	c6 45 fa eb	 mov	 BYTE PTR __t$[ebp+14], -21 ; ffffffebH
  000fc	eb 4c		 jmp	 SHORT $LN1@operator
$LN83@operator:
  000fe	c6 45 f9 ec	 mov	 BYTE PTR __t$[ebp+13], -20 ; ffffffecH
  00102	eb 46		 jmp	 SHORT $LN1@operator
$LN84@operator:
  00104	c6 45 f8 ed	 mov	 BYTE PTR __t$[ebp+12], -19 ; ffffffedH
  00108	eb 40		 jmp	 SHORT $LN1@operator
$LN85@operator:
  0010a	c6 45 f7 ea	 mov	 BYTE PTR __t$[ebp+11], -22 ; ffffffeaH
  0010e	eb 3a		 jmp	 SHORT $LN1@operator
$LN87@operator:
  00110	c6 45 f5 ec	 mov	 BYTE PTR __t$[ebp+9], -20 ; ffffffecH
  00114	eb 34		 jmp	 SHORT $LN1@operator
$LN88@operator:
  00116	c6 45 f4 ed	 mov	 BYTE PTR __t$[ebp+8], -19 ; ffffffedH
  0011a	eb 2e		 jmp	 SHORT $LN1@operator
$LN89@operator:
  0011c	c6 45 f3 ea	 mov	 BYTE PTR __t$[ebp+7], -22 ; ffffffeaH
  00120	eb 28		 jmp	 SHORT $LN1@operator
$LN90@operator:
  00122	c6 45 f2 eb	 mov	 BYTE PTR __t$[ebp+6], -21 ; ffffffebH
  00126	eb 22		 jmp	 SHORT $LN1@operator
$LN91@operator:
  00128	c6 45 f1 ec	 mov	 BYTE PTR __t$[ebp+5], -20 ; ffffffecH
  0012c	eb 1c		 jmp	 SHORT $LN1@operator
$LN92@operator:
  0012e	c6 45 f0 ed	 mov	 BYTE PTR __t$[ebp+4], -19 ; ffffffedH
  00132	eb 16		 jmp	 SHORT $LN1@operator
$LN93@operator:
  00134	c6 45 ef ea	 mov	 BYTE PTR __t$[ebp+3], -22 ; ffffffeaH
  00138	eb 10		 jmp	 SHORT $LN1@operator
$LN94@operator:
  0013a	c6 45 ee eb	 mov	 BYTE PTR __t$[ebp+2], -21 ; ffffffebH
  0013e	eb 0a		 jmp	 SHORT $LN1@operator
$LN95@operator:
  00140	c6 45 ed ec	 mov	 BYTE PTR __t$[ebp+1], -20 ; ffffffecH
  00144	eb 04		 jmp	 SHORT $LN1@operator
$LN96@operator:
  00146	c6 45 ec ed	 mov	 BYTE PTR __t$[ebp], -19	; ffffffedH
$LN1@operator:
  0014a	6a 02		 push	 2
  0014c	8d 45 ec	 lea	 eax, DWORD PTR __t$[ebp]
  0014f	c6 45 f6 00	 mov	 BYTE PTR __t$[ebp+10], 0
  00153	5a		 pop	 edx
$LL104@operator:
  00154	81 30 ed ec eb
	ea		 xor	 DWORD PTR [eax], -353637139 ; eaebecedH
  0015a	83 c0 04	 add	 eax, 4
  0015d	4a		 dec	 edx
  0015e	75 f4		 jne	 SHORT $LL104@operator
  00160	6a 08		 push	 8
  00162	58		 pop	 eax
$LL101@operator:
  00163	8b c8		 mov	 ecx, eax
  00165	81 e1 03 00 00
	80		 and	 ecx, -2147483645	; 80000003H
  0016b	79 05		 jns	 SHORT $LN115@operator
  0016d	49		 dec	 ecx
  0016e	83 c9 fc	 or	 ecx, -4			; fffffffcH
  00171	41		 inc	 ecx
$LN115@operator:
  00172	b2 ed		 mov	 dl, -19			; ffffffedH
  00174	2a d1		 sub	 dl, cl
  00176	30 54 05 ec	 xor	 BYTE PTR __t$[ebp+eax], dl
  0017a	40		 inc	 eax
  0017b	83 f8 0a	 cmp	 eax, 10			; 0000000aH
  0017e	7c e3		 jl	 SHORT $LL101@operator
  00180	8b cf		 mov	 ecx, edi
  00182	8d 75 ec	 lea	 esi, DWORD PTR __t$[ebp]
  00185	ff 15 00 00 00
	00		 call	 DWORD PTR __imp_?c_str@ioHashString@@QBEPBDXZ
$LL111@operator:
  0018b	8a 08		 mov	 cl, BYTE PTR [eax]
  0018d	3a 0e		 cmp	 cl, BYTE PTR [esi]
  0018f	75 1a		 jne	 SHORT $LN112@operator
  00191	84 c9		 test	 cl, cl
  00193	74 12		 je	 SHORT $LN113@operator
  00195	8a 48 01	 mov	 cl, BYTE PTR [eax+1]
  00198	3a 4e 01	 cmp	 cl, BYTE PTR [esi+1]
  0019b	75 0e		 jne	 SHORT $LN112@operator
  0019d	83 c0 02	 add	 eax, 2
  001a0	83 c6 02	 add	 esi, 2
  001a3	84 c9		 test	 cl, cl
  001a5	75 e4		 jne	 SHORT $LL111@operator
$LN113@operator:
  001a7	33 c0		 xor	 eax, eax
  001a9	eb 05		 jmp	 SHORT $LN114@operator
$LN112@operator:
  001ab	1b c0		 sbb	 eax, eax
  001ad	83 d8 ff	 sbb	 eax, -1
$LN114@operator:
  001b0	33 c9		 xor	 ecx, ecx
  001b2	85 c0		 test	 eax, eax
  001b4	0f 94 c0	 sete	 al

; 148  : }

  001b7	8b 4d fc	 mov	 ecx, DWORD PTR __$ArrayPad$[ebp]
  001ba	5f		 pop	 edi
  001bb	33 cd		 xor	 ecx, ebp
  001bd	5e		 pop	 esi
  001be	e8 00 00 00 00	 call	 @__security_check_cookie@4
  001c3	c9		 leave
  001c4	c3		 ret	 0
??$?8$0L@@@YA_NABVioHashString@@AAY0L@$$CBD@Z ENDP	; operator==<11>
_TEXT	ENDS
PUBLIC	__$ArrayPad$
PUBLIC	??$?8$0BB@@@YA_NABVioHashString@@AAY0BB@$$CBD@Z	; operator==<17>
; Function compile flags: /Ogsp
;	COMDAT ??$?8$0BB@@@YA_NABVioHashString@@AAY0BB@$$CBD@Z
_TEXT	SEGMENT
__t$ = -28						; size = 17
__$ArrayPad$ = -4					; size = 4
_lhs$ = 8						; size = 4
_t$ = 12						; size = 4
??$?8$0BB@@@YA_NABVioHashString@@AAY0BB@$$CBD@Z PROC	; operator==<17>, COMDAT

; 146  : {

  00000	55		 push	 ebp
  00001	8b ec		 mov	 ebp, esp
  00003	83 ec 1c	 sub	 esp, 28			; 0000001cH
  00006	a1 00 00 00 00	 mov	 eax, DWORD PTR ___security_cookie
  0000b	33 c5		 xor	 eax, ebp
  0000d	89 45 fc	 mov	 DWORD PTR __$ArrayPad$[ebp], eax
  00010	8b 45 0c	 mov	 eax, DWORD PTR _t$[ebp]

; 147  : 	_ENCSTR(t, _t); return ( strcmp( lhs.c_str(), _t ) == 0 );

  00013	8a 10		 mov	 dl, BYTE PTR [eax]
  00015	56		 push	 esi
  00016	57		 push	 edi
  00017	8b 7d 08	 mov	 edi, DWORD PTR _lhs$[ebp]
  0001a	84 d2		 test	 dl, dl
  0001c	0f 84 a7 01 00
	00		 je	 $LN96@operator@2
  00022	80 f2 ed	 xor	 dl, -19			; ffffffedH
  00025	88 55 e4	 mov	 BYTE PTR __t$[ebp], dl
  00028	8a 50 01	 mov	 dl, BYTE PTR [eax+1]
  0002b	84 d2		 test	 dl, dl
  0002d	0f 84 90 01 00
	00		 je	 $LN95@operator@2
  00033	b1 ec		 mov	 cl, -20			; ffffffecH
  00035	32 d1		 xor	 dl, cl
  00037	88 55 e5	 mov	 BYTE PTR __t$[ebp+1], dl
  0003a	8a 50 02	 mov	 dl, BYTE PTR [eax+2]
  0003d	84 d2		 test	 dl, dl
  0003f	0f 84 78 01 00
	00		 je	 $LN94@operator@2
  00045	80 f2 eb	 xor	 dl, -21			; ffffffebH
  00048	88 55 e6	 mov	 BYTE PTR __t$[ebp+2], dl
  0004b	8a 50 03	 mov	 dl, BYTE PTR [eax+3]
  0004e	84 d2		 test	 dl, dl
  00050	0f 84 61 01 00
	00		 je	 $LN93@operator@2
  00056	80 f2 ea	 xor	 dl, -22			; ffffffeaH
  00059	88 55 e7	 mov	 BYTE PTR __t$[ebp+3], dl
  0005c	8a 50 04	 mov	 dl, BYTE PTR [eax+4]
  0005f	84 d2		 test	 dl, dl
  00061	0f 84 4a 01 00
	00		 je	 $LN92@operator@2
  00067	80 f2 ed	 xor	 dl, -19			; ffffffedH
  0006a	88 55 e8	 mov	 BYTE PTR __t$[ebp+4], dl
  0006d	8a 50 05	 mov	 dl, BYTE PTR [eax+5]
  00070	84 d2		 test	 dl, dl
  00072	0f 84 34 01 00
	00		 je	 $LN91@operator@2
  00078	32 d1		 xor	 dl, cl
  0007a	88 55 e9	 mov	 BYTE PTR __t$[ebp+5], dl
  0007d	8a 50 06	 mov	 dl, BYTE PTR [eax+6]
  00080	84 d2		 test	 dl, dl
  00082	0f 84 1e 01 00
	00		 je	 $LN90@operator@2
  00088	80 f2 eb	 xor	 dl, -21			; ffffffebH
  0008b	88 55 ea	 mov	 BYTE PTR __t$[ebp+6], dl
  0008e	8a 50 07	 mov	 dl, BYTE PTR [eax+7]
  00091	84 d2		 test	 dl, dl
  00093	0f 84 07 01 00
	00		 je	 $LN89@operator@2
  00099	80 f2 ea	 xor	 dl, -22			; ffffffeaH
  0009c	88 55 eb	 mov	 BYTE PTR __t$[ebp+7], dl
  0009f	8a 50 08	 mov	 dl, BYTE PTR [eax+8]
  000a2	84 d2		 test	 dl, dl
  000a4	0f 84 f0 00 00
	00		 je	 $LN88@operator@2
  000aa	80 f2 ed	 xor	 dl, -19			; ffffffedH
  000ad	88 55 ec	 mov	 BYTE PTR __t$[ebp+8], dl
  000b0	8a 50 09	 mov	 dl, BYTE PTR [eax+9]
  000b3	84 d2		 test	 dl, dl
  000b5	0f 84 da 00 00
	00		 je	 $LN87@operator@2
  000bb	32 d1		 xor	 dl, cl
  000bd	88 55 ed	 mov	 BYTE PTR __t$[ebp+9], dl
  000c0	8a 50 0a	 mov	 dl, BYTE PTR [eax+10]
  000c3	84 d2		 test	 dl, dl
  000c5	0f 84 c4 00 00
	00		 je	 $LN86@operator@2
  000cb	80 f2 eb	 xor	 dl, -21			; ffffffebH
  000ce	88 55 ee	 mov	 BYTE PTR __t$[ebp+10], dl
  000d1	8a 50 0b	 mov	 dl, BYTE PTR [eax+11]
  000d4	84 d2		 test	 dl, dl
  000d6	0f 84 ad 00 00
	00		 je	 $LN85@operator@2
  000dc	80 f2 ea	 xor	 dl, -22			; ffffffeaH
  000df	88 55 ef	 mov	 BYTE PTR __t$[ebp+11], dl
  000e2	8a 50 0c	 mov	 dl, BYTE PTR [eax+12]
  000e5	84 d2		 test	 dl, dl
  000e7	0f 84 96 00 00
	00		 je	 $LN84@operator@2
  000ed	80 f2 ed	 xor	 dl, -19			; ffffffedH
  000f0	88 55 f0	 mov	 BYTE PTR __t$[ebp+12], dl
  000f3	8a 50 0d	 mov	 dl, BYTE PTR [eax+13]
  000f6	84 d2		 test	 dl, dl
  000f8	0f 84 80 00 00
	00		 je	 $LN83@operator@2
  000fe	32 d1		 xor	 dl, cl
  00100	88 55 f1	 mov	 BYTE PTR __t$[ebp+13], dl
  00103	8a 50 0e	 mov	 dl, BYTE PTR [eax+14]
  00106	84 d2		 test	 dl, dl
  00108	74 6e		 je	 SHORT $LN82@operator@2
  0010a	80 f2 eb	 xor	 dl, -21			; ffffffebH
  0010d	88 55 f2	 mov	 BYTE PTR __t$[ebp+14], dl
  00110	8a 50 0f	 mov	 dl, BYTE PTR [eax+15]
  00113	84 d2		 test	 dl, dl
  00115	74 5b		 je	 SHORT $LN81@operator@2
  00117	80 f2 ea	 xor	 dl, -22			; ffffffeaH
  0011a	80 78 10 00	 cmp	 BYTE PTR [eax+16], 0
  0011e	88 55 f3	 mov	 BYTE PTR __t$[ebp+15], dl
  00121	0f 84 a6 00 00
	00		 je	 $LN1@operator@2
  00127	8a 50 11	 mov	 dl, BYTE PTR [eax+17]
  0012a	84 d2		 test	 dl, dl
  0012c	74 3f		 je	 SHORT $LN79@operator@2
  0012e	32 d1		 xor	 dl, cl
  00130	88 55 f5	 mov	 BYTE PTR __t$[ebp+17], dl
  00133	8a 50 12	 mov	 dl, BYTE PTR [eax+18]
  00136	84 d2		 test	 dl, dl
  00138	74 2d		 je	 SHORT $LN78@operator@2
  0013a	80 f2 eb	 xor	 dl, -21			; ffffffebH
  0013d	88 55 f6	 mov	 BYTE PTR __t$[ebp+18], dl
  00140	8a 50 13	 mov	 dl, BYTE PTR [eax+19]
  00143	84 d2		 test	 dl, dl
  00145	74 1a		 je	 SHORT $LN77@operator@2
  00147	8a 40 14	 mov	 al, BYTE PTR [eax+20]
  0014a	80 f2 ea	 xor	 dl, -22			; ffffffeaH
  0014d	88 55 f7	 mov	 BYTE PTR __t$[ebp+19], dl
  00150	84 c0		 test	 al, al
  00152	74 07		 je	 SHORT $LN76@operator@2
  00154	34 ed		 xor	 al, -19			; ffffffedH
  00156	88 45 f8	 mov	 BYTE PTR __t$[ebp+20], al
  00159	eb 72		 jmp	 SHORT $LN1@operator@2
$LN76@operator@2:
  0015b	c6 45 f8 ed	 mov	 BYTE PTR __t$[ebp+20], -19 ; ffffffedH
  0015f	eb 6c		 jmp	 SHORT $LN1@operator@2
$LN77@operator@2:
  00161	c6 45 f7 ea	 mov	 BYTE PTR __t$[ebp+19], -22 ; ffffffeaH
  00165	eb 66		 jmp	 SHORT $LN1@operator@2
$LN78@operator@2:
  00167	c6 45 f6 eb	 mov	 BYTE PTR __t$[ebp+18], -21 ; ffffffebH
  0016b	eb 60		 jmp	 SHORT $LN1@operator@2
$LN79@operator@2:
  0016d	88 4d f5	 mov	 BYTE PTR __t$[ebp+17], cl
  00170	eb 5b		 jmp	 SHORT $LN1@operator@2
$LN81@operator@2:
  00172	c6 45 f3 ea	 mov	 BYTE PTR __t$[ebp+15], -22 ; ffffffeaH
  00176	eb 55		 jmp	 SHORT $LN1@operator@2
$LN82@operator@2:
  00178	c6 45 f2 eb	 mov	 BYTE PTR __t$[ebp+14], -21 ; ffffffebH
  0017c	eb 4f		 jmp	 SHORT $LN1@operator@2
$LN83@operator@2:
  0017e	88 4d f1	 mov	 BYTE PTR __t$[ebp+13], cl
  00181	eb 4a		 jmp	 SHORT $LN1@operator@2
$LN84@operator@2:
  00183	c6 45 f0 ed	 mov	 BYTE PTR __t$[ebp+12], -19 ; ffffffedH
  00187	eb 44		 jmp	 SHORT $LN1@operator@2
$LN85@operator@2:
  00189	c6 45 ef ea	 mov	 BYTE PTR __t$[ebp+11], -22 ; ffffffeaH
  0018d	eb 3e		 jmp	 SHORT $LN1@operator@2
$LN86@operator@2:
  0018f	c6 45 ee eb	 mov	 BYTE PTR __t$[ebp+10], -21 ; ffffffebH
  00193	eb 38		 jmp	 SHORT $LN1@operator@2
$LN87@operator@2:
  00195	88 4d ed	 mov	 BYTE PTR __t$[ebp+9], cl
  00198	eb 33		 jmp	 SHORT $LN1@operator@2
$LN88@operator@2:
  0019a	c6 45 ec ed	 mov	 BYTE PTR __t$[ebp+8], -19 ; ffffffedH
  0019e	eb 2d		 jmp	 SHORT $LN1@operator@2
$LN89@operator@2:
  001a0	c6 45 eb ea	 mov	 BYTE PTR __t$[ebp+7], -22 ; ffffffeaH
  001a4	eb 27		 jmp	 SHORT $LN1@operator@2
$LN90@operator@2:
  001a6	c6 45 ea eb	 mov	 BYTE PTR __t$[ebp+6], -21 ; ffffffebH
  001aa	eb 21		 jmp	 SHORT $LN1@operator@2
$LN91@operator@2:
  001ac	88 4d e9	 mov	 BYTE PTR __t$[ebp+5], cl
  001af	eb 1c		 jmp	 SHORT $LN1@operator@2
$LN92@operator@2:
  001b1	c6 45 e8 ed	 mov	 BYTE PTR __t$[ebp+4], -19 ; ffffffedH
  001b5	eb 16		 jmp	 SHORT $LN1@operator@2
$LN93@operator@2:
  001b7	c6 45 e7 ea	 mov	 BYTE PTR __t$[ebp+3], -22 ; ffffffeaH
  001bb	eb 10		 jmp	 SHORT $LN1@operator@2
$LN94@operator@2:
  001bd	c6 45 e6 eb	 mov	 BYTE PTR __t$[ebp+2], -21 ; ffffffebH
  001c1	eb 0a		 jmp	 SHORT $LN1@operator@2
$LN95@operator@2:
  001c3	c6 45 e5 ec	 mov	 BYTE PTR __t$[ebp+1], -20 ; ffffffecH
  001c7	eb 04		 jmp	 SHORT $LN1@operator@2
$LN96@operator@2:
  001c9	c6 45 e4 ed	 mov	 BYTE PTR __t$[ebp], -19	; ffffffedH
$LN1@operator@2:
  001cd	6a 04		 push	 4
  001cf	8d 45 e4	 lea	 eax, DWORD PTR __t$[ebp]
  001d2	c6 45 f4 00	 mov	 BYTE PTR __t$[ebp+16], 0
  001d6	5a		 pop	 edx
$LL104@operator@2:
  001d7	81 30 ed ec eb
	ea		 xor	 DWORD PTR [eax], -353637139 ; eaebecedH
  001dd	83 c0 04	 add	 eax, 4
  001e0	4a		 dec	 edx
  001e1	75 f4		 jne	 SHORT $LL104@operator@2
  001e3	8b cf		 mov	 ecx, edi
  001e5	8d 75 e4	 lea	 esi, DWORD PTR __t$[ebp]
  001e8	ff 15 00 00 00
	00		 call	 DWORD PTR __imp_?c_str@ioHashString@@QBEPBDXZ
$LL111@operator@2:
  001ee	8a 08		 mov	 cl, BYTE PTR [eax]
  001f0	3a 0e		 cmp	 cl, BYTE PTR [esi]
  001f2	75 1a		 jne	 SHORT $LN112@operator@2
  001f4	84 c9		 test	 cl, cl
  001f6	74 12		 je	 SHORT $LN113@operator@2
  001f8	8a 48 01	 mov	 cl, BYTE PTR [eax+1]
  001fb	3a 4e 01	 cmp	 cl, BYTE PTR [esi+1]
  001fe	75 0e		 jne	 SHORT $LN112@operator@2
  00200	83 c0 02	 add	 eax, 2
  00203	83 c6 02	 add	 esi, 2
  00206	84 c9		 test	 cl, cl
  00208	75 e4		 jne	 SHORT $LL111@operator@2
$LN113@operator@2:
  0020a	33 c0		 xor	 eax, eax
  0020c	eb 05		 jmp	 SHORT $LN114@operator@2
$LN112@operator@2:
  0020e	1b c0		 sbb	 eax, eax
  00210	83 d8 ff	 sbb	 eax, -1
$LN114@operator@2:
  00213	33 c9		 xor	 ecx, ecx
  00215	85 c0		 test	 eax, eax
  00217	0f 94 c0	 sete	 al

; 148  : }

  0021a	8b 4d fc	 mov	 ecx, DWORD PTR __$ArrayPad$[ebp]
  0021d	5f		 pop	 edi
  0021e	33 cd		 xor	 ecx, ebp
  00220	5e		 pop	 esi
  00221	e8 00 00 00 00	 call	 @__security_check_cookie@4
  00226	c9		 leave
  00227	c3		 ret	 0
??$?8$0BB@@@YA_NABVioHashString@@AAY0BB@$$CBD@Z ENDP	; operator==<17>
_TEXT	ENDS
PUBLIC	?Update@GuildHomeAdminInfoListWnd@@QAEXXZ	; GuildHomeAdminInfoListWnd::Update
EXTRN	__imp_?IsEmpty@ioHashString@@QBE_NXZ:PROC
EXTRN	?GetUserInfo@ioGuildData@@QAEXHAAK0AAHAAVioHashString@@2@Z:PROC ; ioGuildData::GetUserInfo
;	COMDAT xdata$x
; File d:\lost saga for developer\youtube\tutorial\source\src\lsclient\gui\guildhomeadmininfolistwnd.cpp
xdata$x	SEGMENT
__unwindtable$?Update@GuildHomeAdminInfoListWnd@@QAEXXZ DD 0ffffffffH
	DD	FLAT:__unwindfunclet$?Update@GuildHomeAdminInfoListWnd@@QAEXXZ$0
	DD	00H
	DD	FLAT:__unwindfunclet$?Update@GuildHomeAdminInfoListWnd@@QAEXXZ$1
__ehfuncinfo$?Update@GuildHomeAdminInfoListWnd@@QAEXXZ DD 019930522H
	DD	02H
	DD	FLAT:__unwindtable$?Update@GuildHomeAdminInfoListWnd@@QAEXXZ
	DD	2 DUP(00H)
	DD	2 DUP(00H)
	DD	00H
	DD	01H
; Function compile flags: /Ogsp
xdata$x	ENDS
;	COMDAT ?Update@GuildHomeAdminInfoListWnd@@QAEXXZ
_TEXT	SEGMENT
_szUserPos$505161 = -60					; size = 16
_szUserID$505160 = -44					; size = 16
_dwTableIdx$505157 = -28				; size = 4
_dwUserIdx$505158 = -24					; size = 4
_nUserLevel$505159 = -20				; size = 4
_i$505149 = -16						; size = 4
__$EHRec$ = -12						; size = 12
?Update@GuildHomeAdminInfoListWnd@@QAEXXZ PROC		; GuildHomeAdminInfoListWnd::Update, COMDAT
; _this$ = ecx

; 18   : {	

  00000	6a 30		 push	 48			; 00000030H
  00002	b8 00 00 00 00	 mov	 eax, __ehhandler$?Update@GuildHomeAdminInfoListWnd@@QAEXXZ
  00007	e8 00 00 00 00	 call	 __EH_prolog3
  0000c	8b f1		 mov	 esi, ecx

; 19   : 	if( m_pGuildData )

  0000e	83 be 60 01 00
	00 00		 cmp	 DWORD PTR [esi+352], 0
  00015	0f 84 ba 00 00
	00		 je	 $LN4@Update

; 20   : 	{
; 21   : 		for(int i = ID_USER_LIST_1; i <= ID_USER_LIST_32; ++i )

  0001b	83 65 f0 00	 and	 DWORD PTR _i$505149[ebp], 0
  0001f	8b 3d 00 00 00
	00		 mov	 edi, DWORD PTR __imp_??0ioHashString@@QAE@XZ
$LN6@Update:

; 22   : 		{
; 23   : 			GuildHomeAdminListBtn *pUserBtn = dynamic_cast<GuildHomeAdminListBtn*>( FindChildWnd( i ) );

  00025	6a 00		 push	 0
  00027	68 00 00 00 00	 push	 OFFSET ??_R0?AVGuildHomeAdminListBtn@@@8
  0002c	68 00 00 00 00	 push	 OFFSET ??_R0?AVioWnd@@@8
  00031	6a 00		 push	 0
  00033	ff 75 f0	 push	 DWORD PTR _i$505149[ebp]
  00036	8b ce		 mov	 ecx, esi
  00038	ff 15 00 00 00
	00		 call	 DWORD PTR __imp_?FindChildWnd@ioWnd@@QAEPAV1@K@Z
  0003e	50		 push	 eax
  0003f	e8 00 00 00 00	 call	 ___RTDynamicCast
  00044	8b d8		 mov	 ebx, eax
  00046	83 c4 14	 add	 esp, 20			; 00000014H

; 24   : 			if( pUserBtn )

  00049	85 db		 test	 ebx, ebx
  0004b	74 7b		 je	 SHORT $LN5@Update

; 25   : 			{
; 26   : 				DWORD dwTableIdx, dwUserIdx;
; 27   : 				int nUserLevel;
; 28   : 				ioHashString szUserID, szUserPos;

  0004d	8d 4d d4	 lea	 ecx, DWORD PTR _szUserID$505160[ebp]
  00050	ff d7		 call	 edi
  00052	83 65 fc 00	 and	 DWORD PTR __$EHRec$[ebp+8], 0
  00056	8d 4d c4	 lea	 ecx, DWORD PTR _szUserPos$505161[ebp]
  00059	ff d7		 call	 edi

; 29   : 				m_pGuildData->GetUserInfo( i, dwTableIdx, dwUserIdx, nUserLevel, szUserID, szUserPos );

  0005b	8b 8e 60 01 00
	00		 mov	 ecx, DWORD PTR [esi+352]
  00061	8d 45 c4	 lea	 eax, DWORD PTR _szUserPos$505161[ebp]
  00064	50		 push	 eax
  00065	8d 45 d4	 lea	 eax, DWORD PTR _szUserID$505160[ebp]
  00068	50		 push	 eax
  00069	8d 45 ec	 lea	 eax, DWORD PTR _nUserLevel$505159[ebp]
  0006c	50		 push	 eax
  0006d	8d 45 e8	 lea	 eax, DWORD PTR _dwUserIdx$505158[ebp]
  00070	50		 push	 eax
  00071	8d 45 e4	 lea	 eax, DWORD PTR _dwTableIdx$505157[ebp]
  00074	50		 push	 eax
  00075	ff 75 f0	 push	 DWORD PTR _i$505149[ebp]
  00078	c6 45 fc 01	 mov	 BYTE PTR __$EHRec$[ebp+8], 1
  0007c	e8 00 00 00 00	 call	 ?GetUserInfo@ioGuildData@@QAEXHAAK0AAHAAVioHashString@@2@Z ; ioGuildData::GetUserInfo

; 30   : 				if ( szUserID.IsEmpty() )

  00081	8d 4d d4	 lea	 ecx, DWORD PTR _szUserID$505160[ebp]
  00084	ff 15 00 00 00
	00		 call	 DWORD PTR __imp_?IsEmpty@ioHashString@@QBE_NXZ

; 31   : 				{
; 32   : 					pUserBtn->SetInActive();

  0008a	8b cb		 mov	 ecx, ebx
  0008c	84 c0		 test	 al, al
  0008e	74 07		 je	 SHORT $LN2@Update
  00090	8b 03		 mov	 eax, DWORD PTR [ebx]
  00092	ff 50 24	 call	 DWORD PTR [eax+36]

; 33   : 				}
; 34   : 				else

  00095	eb 19		 jmp	 SHORT $LN1@Update
$LN2@Update:

; 35   : 				{
; 36   : 					pUserBtn->SetUserInfo( m_pGuildData, szUserID, dwUserIdx, nUserLevel, szUserPos );

  00097	8d 45 c4	 lea	 eax, DWORD PTR _szUserPos$505161[ebp]
  0009a	50		 push	 eax
  0009b	ff 75 ec	 push	 DWORD PTR _nUserLevel$505159[ebp]
  0009e	8d 45 d4	 lea	 eax, DWORD PTR _szUserID$505160[ebp]
  000a1	ff 75 e8	 push	 DWORD PTR _dwUserIdx$505158[ebp]
  000a4	50		 push	 eax
  000a5	ff b6 60 01 00
	00		 push	 DWORD PTR [esi+352]
  000ab	e8 00 00 00 00	 call	 ?SetUserInfo@GuildHomeAdminListBtn@@QAEXPAVioGuildData@@ABVioHashString@@KH1@Z ; GuildHomeAdminListBtn::SetUserInfo
$LN1@Update:

; 37   : 				}
; 38   : 			}

  000b0	8b 1d 00 00 00
	00		 mov	 ebx, DWORD PTR __imp_??1ioHashString@@QAE@XZ
  000b6	8d 4d c4	 lea	 ecx, DWORD PTR _szUserPos$505161[ebp]
  000b9	c6 45 fc 00	 mov	 BYTE PTR __$EHRec$[ebp+8], 0
  000bd	ff d3		 call	 ebx
  000bf	83 4d fc ff	 or	 DWORD PTR __$EHRec$[ebp+8], -1
  000c3	8d 4d d4	 lea	 ecx, DWORD PTR _szUserID$505160[ebp]
  000c6	ff d3		 call	 ebx
$LN5@Update:

; 20   : 	{
; 21   : 		for(int i = ID_USER_LIST_1; i <= ID_USER_LIST_32; ++i )

  000c8	ff 45 f0	 inc	 DWORD PTR _i$505149[ebp]
  000cb	83 7d f0 1f	 cmp	 DWORD PTR _i$505149[ebp], 31 ; 0000001fH
  000cf	0f 8e 50 ff ff
	ff		 jle	 $LN6@Update
$LN4@Update:

; 39   : 		}
; 40   : 	}
; 41   : }

  000d5	e8 00 00 00 00	 call	 __EH_epilog3
  000da	c3		 ret	 0
_TEXT	ENDS
;	COMDAT text$x
text$x	SEGMENT
__unwindfunclet$?Update@GuildHomeAdminInfoListWnd@@QAEXXZ$0:
  00000	8d 4d d4	 lea	 ecx, DWORD PTR _szUserID$505160[ebp]
  00003	ff 25 00 00 00
	00		 jmp	 DWORD PTR __imp_??1ioHashString@@QAE@XZ
__unwindfunclet$?Update@GuildHomeAdminInfoListWnd@@QAEXXZ$1:
  00009	8d 4d c4	 lea	 ecx, DWORD PTR _szUserPos$505161[ebp]
  0000c	ff 25 00 00 00
	00		 jmp	 DWORD PTR __imp_??1ioHashString@@QAE@XZ
__ehhandler$?Update@GuildHomeAdminInfoListWnd@@QAEXXZ:
  00012	8b 54 24 08	 mov	 edx, DWORD PTR [esp+8]
  00016	8d 42 0c	 lea	 eax, DWORD PTR [edx+12]
  00019	8b 4a c0	 mov	 ecx, DWORD PTR [edx-64]
  0001c	33 c8		 xor	 ecx, eax
  0001e	e8 00 00 00 00	 call	 @__security_check_cookie@4
  00023	b8 00 00 00 00	 mov	 eax, OFFSET __ehfuncinfo$?Update@GuildHomeAdminInfoListWnd@@QAEXXZ
  00028	e9 00 00 00 00	 jmp	 ___CxxFrameHandler3
text$x	ENDS
?Update@GuildHomeAdminInfoListWnd@@QAEXXZ ENDP		; GuildHomeAdminInfoListWnd::Update
; Function compile flags: /Ogsp
;	COMDAT ?OnProcess@GuildHomeAdminInfoListWnd@@MAEXM@Z
_TEXT	SEGMENT
_fTimePerSec$ = 8					; size = 4
?OnProcess@GuildHomeAdminInfoListWnd@@MAEXM@Z PROC	; GuildHomeAdminInfoListWnd::OnProcess, COMDAT
; _this$ = ecx

; 45   : 	Update();

  00000	e8 00 00 00 00	 call	 ?Update@GuildHomeAdminInfoListWnd@@QAEXXZ ; GuildHomeAdminInfoListWnd::Update

; 46   : }

  00005	c2 04 00	 ret	 4
?OnProcess@GuildHomeAdminInfoListWnd@@MAEXM@Z ENDP	; GuildHomeAdminInfoListWnd::OnProcess
_TEXT	ENDS
PUBLIC	_pImage$GSCopy$
PUBLIC	_this$GSCopy$
PUBLIC	_szType$GSCopy$
PUBLIC	__$ArrayPad$
EXTRN	__imp_?AddRenderImage@ioButton@@UAEXABVioHashString@@PAVioUIRenderImage@@@Z:PROC
; Function compile flags: /Ogsp
;	COMDAT ?AddRenderImage@GuildHomeAdminListBtn@@MAEXABVioHashString@@PAVioUIRenderImage@@@Z
_TEXT	SEGMENT
_pImage$GSCopy$ = -40					; size = 4
_this$GSCopy$ = -36					; size = 4
_szType$GSCopy$ = -32					; size = 4
__t$506241 = -28					; size = 17
__t$506116 = -24					; size = 11
__$ArrayPad$ = -4					; size = 4
_szType$ = 8						; size = 4
_pImage$ = 12						; size = 4
?AddRenderImage@GuildHomeAdminListBtn@@MAEXABVioHashString@@PAVioUIRenderImage@@@Z PROC ; GuildHomeAdminListBtn::AddRenderImage, COMDAT
; _this$ = ecx

; 68   : {

  00000	55		 push	 ebp
  00001	8b ec		 mov	 ebp, esp
  00003	83 ec 28	 sub	 esp, 40			; 00000028H
  00006	a1 00 00 00 00	 mov	 eax, DWORD PTR ___security_cookie
  0000b	33 c5		 xor	 eax, ebp
  0000d	89 45 fc	 mov	 DWORD PTR __$ArrayPad$[ebp], eax
  00010	8b 45 08	 mov	 eax, DWORD PTR _szType$[ebp]
  00013	56		 push	 esi
  00014	57		 push	 edi

; 73   : 	}
; 74   : 	else if( szType == "SecondMasterMark" )

  00015	89 45 e0	 mov	 DWORD PTR _szType$GSCopy$[ebp], eax
  00018	8b 45 0c	 mov	 eax, DWORD PTR _pImage$[ebp]
  0001b	6a 02		 push	 2
  0001d	89 4d dc	 mov	 DWORD PTR _this$GSCopy$[ebp], ecx
  00020	89 45 d8	 mov	 DWORD PTR _pImage$GSCopy$[ebp], eax
  00023	c7 45 e8 a0 8d
	98 9e		 mov	 DWORD PTR __t$506116[ebp], -1634169440 ; 9e988da0H
  0002a	c7 45 ec 88 9e
	a6 8b		 mov	 DWORD PTR __t$506116[ebp+4], -1952014712 ; 8ba69e88H
  00031	66 c7 45 f0 9f
	87		 mov	 WORD PTR __t$506116[ebp+8], 34719 ; 0000879fH
  00037	8d 45 e8	 lea	 eax, DWORD PTR __t$506116[ebp]
  0003a	c6 45 f2 00	 mov	 BYTE PTR __t$506116[ebp+10], 0
  0003e	59		 pop	 ecx
  0003f	bf ed ec eb ea	 mov	 edi, -353637139		; eaebecedH
$LL116@AddRenderI:

; 69   : 	if( szType == "MasterMark" )

  00044	31 38		 xor	 DWORD PTR [eax], edi
  00046	83 c0 04	 add	 eax, 4
  00049	49		 dec	 ecx
  0004a	75 f8		 jne	 SHORT $LL116@AddRenderI
  0004c	6a 08		 push	 8
  0004e	58		 pop	 eax
$LL113@AddRenderI:
  0004f	8b c8		 mov	 ecx, eax
  00051	81 e1 03 00 00
	80		 and	 ecx, -2147483645	; 80000003H
  00057	79 05		 jns	 SHORT $LN242@AddRenderI
  00059	49		 dec	 ecx
  0005a	83 c9 fc	 or	 ecx, -4			; fffffffcH
  0005d	41		 inc	 ecx
$LN242@AddRenderI:
  0005e	b2 ed		 mov	 dl, -19			; ffffffedH
  00060	2a d1		 sub	 dl, cl
  00062	30 54 05 e8	 xor	 BYTE PTR __t$506116[ebp+eax], dl
  00066	40		 inc	 eax
  00067	83 f8 0a	 cmp	 eax, 10			; 0000000aH
  0006a	7c e3		 jl	 SHORT $LL113@AddRenderI
  0006c	8b 4d e0	 mov	 ecx, DWORD PTR _szType$GSCopy$[ebp]
  0006f	8d 75 e8	 lea	 esi, DWORD PTR __t$506116[ebp]
  00072	ff 15 00 00 00
	00		 call	 DWORD PTR __imp_?c_str@ioHashString@@QBEPBDXZ
$LL234@AddRenderI:
  00078	8a 08		 mov	 cl, BYTE PTR [eax]
  0007a	3a 0e		 cmp	 cl, BYTE PTR [esi]
  0007c	75 1a		 jne	 SHORT $LN235@AddRenderI
  0007e	84 c9		 test	 cl, cl
  00080	74 12		 je	 SHORT $LN236@AddRenderI
  00082	8a 48 01	 mov	 cl, BYTE PTR [eax+1]
  00085	3a 4e 01	 cmp	 cl, BYTE PTR [esi+1]
  00088	75 0e		 jne	 SHORT $LN235@AddRenderI
  0008a	83 c0 02	 add	 eax, 2
  0008d	83 c6 02	 add	 esi, 2
  00090	84 c9		 test	 cl, cl
  00092	75 e4		 jne	 SHORT $LL234@AddRenderI
$LN236@AddRenderI:
  00094	33 c0		 xor	 eax, eax
  00096	eb 05		 jmp	 SHORT $LN237@AddRenderI
$LN235@AddRenderI:
  00098	1b c0		 sbb	 eax, eax
  0009a	83 d8 ff	 sbb	 eax, -1
$LN237@AddRenderI:
  0009d	85 c0		 test	 eax, eax
  0009f	75 29		 jne	 SHORT $LN233@AddRenderI

; 70   : 	{
; 71   : 		SAFEDELETE( m_pMasterMark );

  000a1	8b 75 dc	 mov	 esi, DWORD PTR _this$GSCopy$[ebp]
  000a4	8b 8e fc 01 00
	00		 mov	 ecx, DWORD PTR [esi+508]
  000aa	85 c9		 test	 ecx, ecx
  000ac	74 0e		 je	 SHORT $LN5@AddRenderI
  000ae	8b 01		 mov	 eax, DWORD PTR [ecx]
  000b0	6a 01		 push	 1
  000b2	ff 50 40	 call	 DWORD PTR [eax+64]
  000b5	83 a6 fc 01 00
	00 00		 and	 DWORD PTR [esi+508], 0
$LN5@AddRenderI:

; 72   : 		m_pMasterMark = pImage;

  000bc	8b 45 d8	 mov	 eax, DWORD PTR _pImage$GSCopy$[ebp]
  000bf	89 86 fc 01 00
	00		 mov	 DWORD PTR [esi+508], eax
  000c5	e9 98 00 00 00	 jmp	 $LN1@AddRenderI
$LN233@AddRenderI:

; 73   : 	}
; 74   : 	else if( szType == "SecondMasterMark" )

  000ca	6a 04		 push	 4
  000cc	c7 45 e4 be 89
	88 85		 mov	 DWORD PTR __t$506241[ebp], -2054649410 ; 858889beH
  000d3	c7 45 e8 83 88
	a6 8b		 mov	 DWORD PTR __t$506241[ebp+4], -1952020349 ; 8ba68883H
  000da	c7 45 ec 9e 98
	8e 98		 mov	 DWORD PTR __t$506241[ebp+8], -1735485282 ; 988e989eH
  000e1	c7 45 f0 a0 8d
	99 81		 mov	 DWORD PTR __t$506241[ebp+12], -2120643168 ; 81998da0H
  000e8	8d 45 e4	 lea	 eax, DWORD PTR __t$506241[ebp]
  000eb	c6 45 f4 00	 mov	 BYTE PTR __t$506241[ebp+16], 0
  000ef	59		 pop	 ecx
$LL222@AddRenderI:
  000f0	31 38		 xor	 DWORD PTR [eax], edi
  000f2	83 c0 04	 add	 eax, 4
  000f5	49		 dec	 ecx
  000f6	75 f8		 jne	 SHORT $LL222@AddRenderI
  000f8	8b 4d e0	 mov	 ecx, DWORD PTR _szType$GSCopy$[ebp]
  000fb	8d 75 e4	 lea	 esi, DWORD PTR __t$506241[ebp]
  000fe	ff 15 00 00 00
	00		 call	 DWORD PTR __imp_?c_str@ioHashString@@QBEPBDXZ
$LL238@AddRenderI:
  00104	8a 08		 mov	 cl, BYTE PTR [eax]
  00106	3a 0e		 cmp	 cl, BYTE PTR [esi]
  00108	75 1a		 jne	 SHORT $LN239@AddRenderI
  0010a	84 c9		 test	 cl, cl
  0010c	74 12		 je	 SHORT $LN240@AddRenderI
  0010e	8a 48 01	 mov	 cl, BYTE PTR [eax+1]
  00111	3a 4e 01	 cmp	 cl, BYTE PTR [esi+1]
  00114	75 0e		 jne	 SHORT $LN239@AddRenderI
  00116	83 c0 02	 add	 eax, 2
  00119	83 c6 02	 add	 esi, 2
  0011c	84 c9		 test	 cl, cl
  0011e	75 e4		 jne	 SHORT $LL238@AddRenderI
$LN240@AddRenderI:
  00120	33 c0		 xor	 eax, eax
  00122	eb 05		 jmp	 SHORT $LN241@AddRenderI
$LN239@AddRenderI:
  00124	1b c0		 sbb	 eax, eax
  00126	83 d8 ff	 sbb	 eax, -1
$LN241@AddRenderI:
  00129	85 c0		 test	 eax, eax
  0012b	75 26		 jne	 SHORT $LN3@AddRenderI

; 75   : 	{
; 76   : 		SAFEDELETE( m_pSecondMasterMark );

  0012d	8b 75 dc	 mov	 esi, DWORD PTR _this$GSCopy$[ebp]
  00130	8b 8e 00 02 00
	00		 mov	 ecx, DWORD PTR [esi+512]
  00136	85 c9		 test	 ecx, ecx
  00138	74 0e		 je	 SHORT $LN2@AddRenderI
  0013a	8b 01		 mov	 eax, DWORD PTR [ecx]
  0013c	6a 01		 push	 1
  0013e	ff 50 40	 call	 DWORD PTR [eax+64]
  00141	83 a6 00 02 00
	00 00		 and	 DWORD PTR [esi+512], 0
$LN2@AddRenderI:

; 77   : 		m_pSecondMasterMark = pImage;

  00148	8b 45 d8	 mov	 eax, DWORD PTR _pImage$GSCopy$[ebp]
  0014b	89 86 00 02 00
	00		 mov	 DWORD PTR [esi+512], eax

; 78   : 	}
; 79   : 	else

  00151	eb 0f		 jmp	 SHORT $LN1@AddRenderI
$LN3@AddRenderI:

; 80   : 	{
; 81   : 		ioButton::AddRenderImage( szType, pImage );

  00153	ff 75 d8	 push	 DWORD PTR _pImage$GSCopy$[ebp]
  00156	8b 4d dc	 mov	 ecx, DWORD PTR _this$GSCopy$[ebp]
  00159	ff 75 e0	 push	 DWORD PTR _szType$GSCopy$[ebp]
  0015c	ff 15 00 00 00
	00		 call	 DWORD PTR __imp_?AddRenderImage@ioButton@@UAEXABVioHashString@@PAVioUIRenderImage@@@Z
$LN1@AddRenderI:

; 82   : 	}
; 83   : }

  00162	8b 4d fc	 mov	 ecx, DWORD PTR __$ArrayPad$[ebp]
  00165	5f		 pop	 edi
  00166	33 cd		 xor	 ecx, ebp
  00168	5e		 pop	 esi
  00169	e8 00 00 00 00	 call	 @__security_check_cookie@4
  0016e	c9		 leave
  0016f	c2 08 00	 ret	 8
?AddRenderImage@GuildHomeAdminListBtn@@MAEXABVioHashString@@PAVioUIRenderImage@@@Z ENDP ; GuildHomeAdminListBtn::AddRenderImage
_TEXT	ENDS
END
