; Listing generated by Microsoft (R) Optimizing Compiler Version 16.00.30319.01 

	TITLE	D:\Lost Saga For Developer\Youtube\Tutorial\Source\src\LSClient\GUI\GuildRewardWnd.cpp
	.686P
	.XMM
	include listing.inc
	.model	flat

INCLUDELIB MSVCRT
INCLUDELIB OLDNAMES

PUBLIC	?GetItemName@RewardItemListIconBtn@@QAEABVioHashString@@XZ ; RewardItemListIconBtn::GetItemName
; Function compile flags: /Ogsp
; File d:\lost saga for developer\youtube\tutorial\source\src\lsclient\gui\guildrewardwnd.h
;	COMDAT ?GetItemName@RewardItemListIconBtn@@QAEABVioHashString@@XZ
_TEXT	SEGMENT
?GetItemName@RewardItemListIconBtn@@QAEABVioHashString@@XZ PROC ; RewardItemListIconBtn::GetItemName, COMDAT
; _this$ = ecx

; 14   : 	const ioHashString& GetItemName() { return m_szItemName; }

  00000	8d 81 8c 02 00
	00		 lea	 eax, DWORD PTR [ecx+652]
  00006	c3		 ret	 0
?GetItemName@RewardItemListIconBtn@@QAEABVioHashString@@XZ ENDP ; RewardItemListIconBtn::GetItemName
_TEXT	ENDS
PUBLIC	??_7RewardItemListIconBtn@@6B@			; RewardItemListIconBtn::`vftable'
PUBLIC	??0RewardItemListIconBtn@@QAE@XZ		; RewardItemListIconBtn::RewardItemListIconBtn
PUBLIC	??_R4RewardItemListIconBtn@@6B@			; RewardItemListIconBtn::`RTTI Complete Object Locator'
PUBLIC	??_R0?AVRewardItemListIconBtn@@@8		; RewardItemListIconBtn `RTTI Type Descriptor'
PUBLIC	??_R3RewardItemListIconBtn@@8			; RewardItemListIconBtn::`RTTI Class Hierarchy Descriptor'
PUBLIC	??_R2RewardItemListIconBtn@@8			; RewardItemListIconBtn::`RTTI Base Class Array'
PUBLIC	??_R1A@?0A@EA@RewardItemListIconBtn@@8		; RewardItemListIconBtn::`RTTI Base Class Descriptor at (0,-1,0,64)'
PUBLIC	??_R1A@?0A@EA@NewShopIconBtn@@8			; NewShopIconBtn::`RTTI Base Class Descriptor at (0,-1,0,64)'
PUBLIC	??_R0?AVNewShopIconBtn@@@8			; NewShopIconBtn `RTTI Type Descriptor'
PUBLIC	??_R3NewShopIconBtn@@8				; NewShopIconBtn::`RTTI Class Hierarchy Descriptor'
PUBLIC	??_R2NewShopIconBtn@@8				; NewShopIconBtn::`RTTI Base Class Array'
PUBLIC	??_R1A@?0A@EA@ioButton@@8			; ioButton::`RTTI Base Class Descriptor at (0,-1,0,64)'
PUBLIC	??_R0?AVioButton@@@8				; ioButton `RTTI Type Descriptor'
PUBLIC	??_R3ioButton@@8				; ioButton::`RTTI Class Hierarchy Descriptor'
PUBLIC	??_R2ioButton@@8				; ioButton::`RTTI Base Class Array'
PUBLIC	??_R1A@?0A@EA@ioWnd@@8				; ioWnd::`RTTI Base Class Descriptor at (0,-1,0,64)'
PUBLIC	??_R0?AVioWnd@@@8				; ioWnd `RTTI Type Descriptor'
PUBLIC	??_R3ioWnd@@8					; ioWnd::`RTTI Class Hierarchy Descriptor'
PUBLIC	??_R2ioWnd@@8					; ioWnd::`RTTI Base Class Array'
PUBLIC	?OnRender@RewardItemListIconBtn@@MAEXXZ		; RewardItemListIconBtn::OnRender
EXTRN	__imp_??1ioHashString@@QAE@XZ:PROC
EXTRN	??1ioComplexStringPrinter@@QAE@XZ:PROC		; ioComplexStringPrinter::~ioComplexStringPrinter
EXTRN	??1NewShopIconBtn@@UAE@XZ:PROC			; NewShopIconBtn::~NewShopIconBtn
EXTRN	__imp_?Clear@ioHashString@@QAEXXZ:PROC
EXTRN	?ClearList@ioComplexStringPrinter@@QAEXXZ:PROC	; ioComplexStringPrinter::ClearList
EXTRN	__imp_??0ioHashString@@QAE@XZ:PROC
EXTRN	??0ioComplexStringPrinter@@QAE@XZ:PROC		; ioComplexStringPrinter::ioComplexStringPrinter
EXTRN	??0NewShopIconBtn@@QAE@XZ:PROC			; NewShopIconBtn::NewShopIconBtn
EXTRN	___CxxFrameHandler3:PROC
EXTRN	@__security_check_cookie@4:PROC
EXTRN	__EH_epilog3:PROC
EXTRN	__EH_prolog3:PROC
EXTRN	??_7type_info@@6B@:QWORD			; type_info::`vftable'
EXTRN	?AddRenderFrame@NewShopIconBtn@@UAEXABVioHashString@@PAVioUIRenderFrame@@@Z:PROC ; NewShopIconBtn::AddRenderFrame
EXTRN	?AddRenderImage@NewShopIconBtn@@UAEXABVioHashString@@PAVioUIRenderImage@@@Z:PROC ; NewShopIconBtn::AddRenderImage
EXTRN	?AddTooltipHelp@ioWnd@@UAEXABVioHashString@@00@Z:PROC ; ioWnd::AddTooltipHelp
EXTRN	?ParseExtraInfo@NewShopIconBtn@@UAEXAAVioXMLElement@@@Z:PROC ; NewShopIconBtn::ParseExtraInfo
EXTRN	?AddNamedRenderImage@ioWnd@@UAEXABVioHashString@@PAVioUIRenderImage@@@Z:PROC ; ioWnd::AddNamedRenderImage
EXTRN	?RemoveNamedRenderImage@ioWnd@@UAEXABVioHashString@@@Z:PROC ; ioWnd::RemoveNamedRenderImage
EXTRN	?GetNamedRenderImage@ioWnd@@UBEPAVioUIRenderImage@@ABVioHashString@@@Z:PROC ; ioWnd::GetNamedRenderImage
EXTRN	?SetWindowAlpha@ioButton@@UAEXH@Z:PROC		; ioButton::SetWindowAlpha
EXTRN	?SetActive@ioWnd@@UAEXXZ:PROC			; ioWnd::SetActive
EXTRN	?SetInActive@ioWnd@@UAEXXZ:PROC			; ioWnd::SetInActive
EXTRN	?ClearElementImageList@ioWnd@@UAEXXZ:PROC	; ioWnd::ClearElementImageList
EXTRN	?SetSize@ioWnd@@UAEXHH@Z:PROC			; ioWnd::SetSize
EXTRN	?SetPositionToDefault@ioWnd@@UAEXHH_N0@Z:PROC	; ioWnd::SetPositionToDefault
EXTRN	?IsNeedProcess@ioWnd@@UBE_NXZ:PROC		; ioWnd::IsNeedProcess
EXTRN	?IsCanMouseReaction@ioWnd@@UBE_NXZ:PROC		; ioWnd::IsCanMouseReaction
EXTRN	?AddChild@ioWnd@@UAEXPAV1@@Z:PROC		; ioWnd::AddChild
EXTRN	?DeleteChild@ioWnd@@UAEXK@Z:PROC		; ioWnd::DeleteChild
EXTRN	?DeleteAllChild@ioWnd@@UAEXXZ:PROC		; ioWnd::DeleteAllChild
EXTRN	?OnRenderShowAndHide@ioWnd@@MAE_NXZ:PROC	; ioWnd::OnRenderShowAndHide
EXTRN	?OnRenderShowAndHideByDefault@ioWnd@@MAE_NK@Z:PROC ; ioWnd::OnRenderShowAndHideByDefault
EXTRN	?OnRenderShowAndHideByTop@ioWnd@@MAE_NK@Z:PROC	; ioWnd::OnRenderShowAndHideByTop
EXTRN	?OnRenderShowAndHideByDown@ioWnd@@MAE_NK@Z:PROC	; ioWnd::OnRenderShowAndHideByDown
EXTRN	?OnRenderAfterChild@ioWnd@@MAEXXZ:PROC		; ioWnd::OnRenderAfterChild
EXTRN	?OnProcess@NewShopIconBtn@@MAEXM@Z:PROC		; NewShopIconBtn::OnProcess
EXTRN	?OnMouseProcess@ioWnd@@MAEXABVioMouse@@@Z:PROC	; ioWnd::OnMouseProcess
EXTRN	?CheckFrameReSize@ioButton@@MAEXHHHH@Z:PROC	; ioButton::CheckFrameReSize
EXTRN	?RenderImageList@ioWnd@@MAEXHHW4UIRenderType@@@Z:PROC ; ioWnd::RenderImageList
EXTRN	?iwm_create@ioWnd@@UAEXXZ:PROC			; ioWnd::iwm_create
EXTRN	?iwm_destroy@ioWnd@@UAEXXZ:PROC			; ioWnd::iwm_destroy
EXTRN	?iwm_lbuttondown@ioButton@@UAEXABVioMouse@@@Z:PROC ; ioButton::iwm_lbuttondown
EXTRN	?iwm_lbuttonup@ioButton@@UAEXABVioMouse@@@Z:PROC ; ioButton::iwm_lbuttonup
EXTRN	?iwm_lbuttonDBLCLK@ioButton@@UAEXABVioMouse@@@Z:PROC ; ioButton::iwm_lbuttonDBLCLK
EXTRN	?iwm_rbuttondown@ioButton@@UAEXABVioMouse@@@Z:PROC ; ioButton::iwm_rbuttondown
EXTRN	?iwm_rbuttonup@ioButton@@UAEXABVioMouse@@@Z:PROC ; ioButton::iwm_rbuttonup
EXTRN	?iwm_command@ioWnd@@UAEXPAV1@HK@Z:PROC		; ioWnd::iwm_command
EXTRN	?iwm_mouseover@ioButton@@UAEXABVioMouse@@@Z:PROC ; ioButton::iwm_mouseover
EXTRN	?iwm_mousemove@ioWnd@@UAEXABVioMouse@@@Z:PROC	; ioWnd::iwm_mousemove
EXTRN	?iwm_mouseleave@ioWnd@@UAEXABVioMouse@@@Z:PROC	; ioWnd::iwm_mouseleave
EXTRN	?iwm_vscroll@ioWnd@@UAEXKH@Z:PROC		; ioWnd::iwm_vscroll
EXTRN	?iwm_wheel@ioWnd@@UAEXH@Z:PROC			; ioWnd::iwm_wheel
EXTRN	?iwm_show@ioWnd@@UAEXXZ:PROC			; ioWnd::iwm_show
EXTRN	?iwm_hide@ioWnd@@UAEXXZ:PROC			; ioWnd::iwm_hide
EXTRN	?iwm_esc@ioWnd@@UAE_NXZ:PROC			; ioWnd::iwm_esc
EXTRN	?iwm_spacebar@ioWnd@@UAE_NXZ:PROC		; ioWnd::iwm_spacebar
EXTRN	?iwm_gototop@ioWnd@@UAEXXZ:PROC			; ioWnd::iwm_gototop
EXTRN	?iwm_dragenter@ioWnd@@UAE?AW4IWDropEffect@@PAVioDragItem@@ABVioMouse@@@Z:PROC ; ioWnd::iwm_dragenter
EXTRN	?iwm_dragover@ioWnd@@UAE?AW4IWDropEffect@@PAVioDragItem@@ABVioMouse@@@Z:PROC ; ioWnd::iwm_dragover
EXTRN	?iwm_dragleave@ioWnd@@UAEXXZ:PROC		; ioWnd::iwm_dragleave
EXTRN	?iwm_dropitem@ioWnd@@UAE_NPAVioDragItem@@ABVioMouse@@PAV1@@Z:PROC ; ioWnd::iwm_dropitem
EXTRN	?iwm_dropdone@ioWnd@@UAEXPAVioDragItem@@PAV1@_N@Z:PROC ; ioWnd::iwm_dropdone
EXTRN	?IsEXType@ioWnd@@UBE_NXZ:PROC			; ioWnd::IsEXType
EXTRN	?GetWndType@ioButton@@UBEKXZ:PROC		; ioButton::GetWndType
EXTRN	?RenderWnd@ioWnd@@UAEXXZ:PROC			; ioWnd::RenderWnd
EXTRN	?SetIDEX@ioWnd@@UAEXAAK_N@Z:PROC		; ioWnd::SetIDEX
EXTRN	?ParseXML@ioWnd@@UAEXAAVioXMLElement@@@Z:PROC	; ioWnd::ParseXML
EXTRN	?GetHeaderFileName@ioButton@@UAEPBDXZ:PROC	; ioButton::GetHeaderFileName
EXTRN	?GetTemplateName@ioButton@@UAEPBDXZ:PROC	; ioButton::GetTemplateName
EXTRN	?GetDefClassName@ioButton@@UBEPBDXZ:PROC	; ioButton::GetDefClassName
EXTRN	?_Clone@ioButton@@UAEPAVioWnd@@XZ:PROC		; ioButton::_Clone
EXTRN	?Copy@ioButton@@UAEXPAVioWnd@@@Z:PROC		; ioButton::Copy
EXTRN	?Save@ioWnd@@UAE_NAAVioXMLElement@@@Z:PROC	; ioWnd::Save
EXTRN	?SetSaveData@ioButton@@UAEXAAVioXMLElement@@@Z:PROC ; ioButton::SetSaveData
EXTRN	?SetPosX@ioWnd@@UAEXH@Z:PROC			; ioWnd::SetPosX
EXTRN	?SetPosY@ioWnd@@UAEXH@Z:PROC			; ioWnd::SetPosY
EXTRN	?SetWidth@ioWnd@@UAEXH@Z:PROC			; ioWnd::SetWidth
EXTRN	?SetHeight@ioWnd@@UAEXH@Z:PROC			; ioWnd::SetHeight
EXTRN	?GetNumFixedRenderFrame@ioButton@@UBEHXZ:PROC	; ioButton::GetNumFixedRenderFrame
EXTRN	?GetFixedRenderFrameType@ioButton@@UAEPBDH@Z:PROC ; ioButton::GetFixedRenderFrameType
EXTRN	?GetRenderFrame@ioButton@@UAEPAPAVioUIRenderElement@@PBD@Z:PROC ; ioButton::GetRenderFrame
EXTRN	?GetNumFixedRenderImage@ioButton@@UBEHXZ:PROC	; ioButton::GetNumFixedRenderImage
EXTRN	?GetFixedRenderImageType@ioButton@@UAEPBDH@Z:PROC ; ioButton::GetFixedRenderImageType
EXTRN	?GetRenderImage@ioButton@@UAEPAPAVioUIRenderElement@@PBD@Z:PROC ; ioButton::GetRenderImage
EXTRN	?AddEffect@ioWnd@@UAEXABVioHashString@@PAVioUI3DEffectRender@@@Z:PROC ; ioWnd::AddEffect
EXTRN	?GetEffect@ioWnd@@UAEPAVioUI3DEffectRender@@VioHashString@@@Z:PROC ; ioWnd::GetEffect
EXTRN	??_ERewardItemListIconBtn@@UAEPAXI@Z:PROC	; RewardItemListIconBtn::`vector deleting destructor'
EXTRN	?OnDrawNormal@NewShopIconBtn@@MAEXHH@Z:PROC	; NewShopIconBtn::OnDrawNormal
EXTRN	?OnDrawOvered@NewShopIconBtn@@MAEXHH@Z:PROC	; NewShopIconBtn::OnDrawOvered
EXTRN	?OnDrawOveredAdd@ioButton@@MAEXHH@Z:PROC	; ioButton::OnDrawOveredAdd
EXTRN	?OnDrawPushed@NewShopIconBtn@@MAEXHH@Z:PROC	; NewShopIconBtn::OnDrawPushed
EXTRN	?OnDrawDisabled@NewShopIconBtn@@MAEXHH@Z:PROC	; NewShopIconBtn::OnDrawDisabled
EXTRN	?OnDrawExDisabledNormal@ioButton@@MAEXHH@Z:PROC	; ioButton::OnDrawExDisabledNormal
EXTRN	?OnDrawExDisabledOvered@ioButton@@MAEXHH@Z:PROC	; ioButton::OnDrawExDisabledOvered
EXTRN	?OnDrawExDisabledPushed@ioButton@@MAEXHH@Z:PROC	; ioButton::OnDrawExDisabledPushed
EXTRN	?OnDrawBack@ioButton@@MAEXHH@Z:PROC		; ioButton::OnDrawBack
EXTRN	?OnDrawNormalList@ioButton@@MAEXHH@Z:PROC	; ioButton::OnDrawNormalList
EXTRN	?OnDrawDisableList@ioButton@@MAEXHH@Z:PROC	; ioButton::OnDrawDisableList
;	COMDAT ??_R2ioWnd@@8
; File d:\lost saga for developer\youtube\tutorial\source\src\lsclient\gui\guildrewardwnd.cpp
rdata$r	SEGMENT
??_R2ioWnd@@8 DD FLAT:??_R1A@?0A@EA@ioWnd@@8		; ioWnd::`RTTI Base Class Array'
rdata$r	ENDS
;	COMDAT ??_R3ioWnd@@8
rdata$r	SEGMENT
??_R3ioWnd@@8 DD 00H					; ioWnd::`RTTI Class Hierarchy Descriptor'
	DD	00H
	DD	01H
	DD	FLAT:??_R2ioWnd@@8
rdata$r	ENDS
;	COMDAT ??_R0?AVioWnd@@@8
_DATA	SEGMENT
??_R0?AVioWnd@@@8 DD FLAT:??_7type_info@@6B@		; ioWnd `RTTI Type Descriptor'
	DD	00H
	DB	'.?AVioWnd@@', 00H
_DATA	ENDS
;	COMDAT ??_R1A@?0A@EA@ioWnd@@8
rdata$r	SEGMENT
??_R1A@?0A@EA@ioWnd@@8 DD FLAT:??_R0?AVioWnd@@@8	; ioWnd::`RTTI Base Class Descriptor at (0,-1,0,64)'
	DD	00H
	DD	00H
	DD	0ffffffffH
	DD	00H
	DD	040H
	DD	FLAT:??_R3ioWnd@@8
rdata$r	ENDS
;	COMDAT ??_R2ioButton@@8
rdata$r	SEGMENT
??_R2ioButton@@8 DD FLAT:??_R1A@?0A@EA@ioButton@@8	; ioButton::`RTTI Base Class Array'
	DD	FLAT:??_R1A@?0A@EA@ioWnd@@8
rdata$r	ENDS
;	COMDAT ??_R3ioButton@@8
rdata$r	SEGMENT
??_R3ioButton@@8 DD 00H					; ioButton::`RTTI Class Hierarchy Descriptor'
	DD	00H
	DD	02H
	DD	FLAT:??_R2ioButton@@8
rdata$r	ENDS
;	COMDAT ??_R0?AVioButton@@@8
_DATA	SEGMENT
??_R0?AVioButton@@@8 DD FLAT:??_7type_info@@6B@		; ioButton `RTTI Type Descriptor'
	DD	00H
	DB	'.?AVioButton@@', 00H
_DATA	ENDS
;	COMDAT ??_R1A@?0A@EA@ioButton@@8
rdata$r	SEGMENT
??_R1A@?0A@EA@ioButton@@8 DD FLAT:??_R0?AVioButton@@@8	; ioButton::`RTTI Base Class Descriptor at (0,-1,0,64)'
	DD	01H
	DD	00H
	DD	0ffffffffH
	DD	00H
	DD	040H
	DD	FLAT:??_R3ioButton@@8
rdata$r	ENDS
;	COMDAT ??_R2NewShopIconBtn@@8
rdata$r	SEGMENT
??_R2NewShopIconBtn@@8 DD FLAT:??_R1A@?0A@EA@NewShopIconBtn@@8 ; NewShopIconBtn::`RTTI Base Class Array'
	DD	FLAT:??_R1A@?0A@EA@ioButton@@8
	DD	FLAT:??_R1A@?0A@EA@ioWnd@@8
rdata$r	ENDS
;	COMDAT ??_R3NewShopIconBtn@@8
rdata$r	SEGMENT
??_R3NewShopIconBtn@@8 DD 00H				; NewShopIconBtn::`RTTI Class Hierarchy Descriptor'
	DD	00H
	DD	03H
	DD	FLAT:??_R2NewShopIconBtn@@8
rdata$r	ENDS
;	COMDAT ??_R0?AVNewShopIconBtn@@@8
_DATA	SEGMENT
??_R0?AVNewShopIconBtn@@@8 DD FLAT:??_7type_info@@6B@	; NewShopIconBtn `RTTI Type Descriptor'
	DD	00H
	DB	'.?AVNewShopIconBtn@@', 00H
_DATA	ENDS
;	COMDAT ??_R1A@?0A@EA@NewShopIconBtn@@8
rdata$r	SEGMENT
??_R1A@?0A@EA@NewShopIconBtn@@8 DD FLAT:??_R0?AVNewShopIconBtn@@@8 ; NewShopIconBtn::`RTTI Base Class Descriptor at (0,-1,0,64)'
	DD	02H
	DD	00H
	DD	0ffffffffH
	DD	00H
	DD	040H
	DD	FLAT:??_R3NewShopIconBtn@@8
rdata$r	ENDS
;	COMDAT ??_R1A@?0A@EA@RewardItemListIconBtn@@8
rdata$r	SEGMENT
??_R1A@?0A@EA@RewardItemListIconBtn@@8 DD FLAT:??_R0?AVRewardItemListIconBtn@@@8 ; RewardItemListIconBtn::`RTTI Base Class Descriptor at (0,-1,0,64)'
	DD	03H
	DD	00H
	DD	0ffffffffH
	DD	00H
	DD	040H
	DD	FLAT:??_R3RewardItemListIconBtn@@8
rdata$r	ENDS
;	COMDAT ??_R2RewardItemListIconBtn@@8
rdata$r	SEGMENT
??_R2RewardItemListIconBtn@@8 DD FLAT:??_R1A@?0A@EA@RewardItemListIconBtn@@8 ; RewardItemListIconBtn::`RTTI Base Class Array'
	DD	FLAT:??_R1A@?0A@EA@NewShopIconBtn@@8
	DD	FLAT:??_R1A@?0A@EA@ioButton@@8
	DD	FLAT:??_R1A@?0A@EA@ioWnd@@8
rdata$r	ENDS
;	COMDAT ??_R3RewardItemListIconBtn@@8
rdata$r	SEGMENT
??_R3RewardItemListIconBtn@@8 DD 00H			; RewardItemListIconBtn::`RTTI Class Hierarchy Descriptor'
	DD	00H
	DD	04H
	DD	FLAT:??_R2RewardItemListIconBtn@@8
rdata$r	ENDS
;	COMDAT ??_R0?AVRewardItemListIconBtn@@@8
_DATA	SEGMENT
??_R0?AVRewardItemListIconBtn@@@8 DD FLAT:??_7type_info@@6B@ ; RewardItemListIconBtn `RTTI Type Descriptor'
	DD	00H
	DB	'.?AVRewardItemListIconBtn@@', 00H
_DATA	ENDS
;	COMDAT ??_R4RewardItemListIconBtn@@6B@
rdata$r	SEGMENT
??_R4RewardItemListIconBtn@@6B@ DD 00H			; RewardItemListIconBtn::`RTTI Complete Object Locator'
	DD	00H
	DD	00H
	DD	FLAT:??_R0?AVRewardItemListIconBtn@@@8
	DD	FLAT:??_R3RewardItemListIconBtn@@8
rdata$r	ENDS
;	COMDAT ??_7RewardItemListIconBtn@@6B@
CONST	SEGMENT
??_7RewardItemListIconBtn@@6B@ DD FLAT:??_R4RewardItemListIconBtn@@6B@ ; RewardItemListIconBtn::`vftable'
	DD	FLAT:?AddRenderFrame@NewShopIconBtn@@UAEXABVioHashString@@PAVioUIRenderFrame@@@Z
	DD	FLAT:?AddRenderImage@NewShopIconBtn@@UAEXABVioHashString@@PAVioUIRenderImage@@@Z
	DD	FLAT:?AddTooltipHelp@ioWnd@@UAEXABVioHashString@@00@Z
	DD	FLAT:?ParseExtraInfo@NewShopIconBtn@@UAEXAAVioXMLElement@@@Z
	DD	FLAT:?AddNamedRenderImage@ioWnd@@UAEXABVioHashString@@PAVioUIRenderImage@@@Z
	DD	FLAT:?RemoveNamedRenderImage@ioWnd@@UAEXABVioHashString@@@Z
	DD	FLAT:?GetNamedRenderImage@ioWnd@@UBEPAVioUIRenderImage@@ABVioHashString@@@Z
	DD	FLAT:?SetWindowAlpha@ioButton@@UAEXH@Z
	DD	FLAT:?SetActive@ioWnd@@UAEXXZ
	DD	FLAT:?SetInActive@ioWnd@@UAEXXZ
	DD	FLAT:?ClearElementImageList@ioWnd@@UAEXXZ
	DD	FLAT:?SetSize@ioWnd@@UAEXHH@Z
	DD	FLAT:?SetPositionToDefault@ioWnd@@UAEXHH_N0@Z
	DD	FLAT:?IsNeedProcess@ioWnd@@UBE_NXZ
	DD	FLAT:?IsCanMouseReaction@ioWnd@@UBE_NXZ
	DD	FLAT:?AddChild@ioWnd@@UAEXPAV1@@Z
	DD	FLAT:?DeleteChild@ioWnd@@UAEXK@Z
	DD	FLAT:?DeleteAllChild@ioWnd@@UAEXXZ
	DD	FLAT:?OnRenderShowAndHide@ioWnd@@MAE_NXZ
	DD	FLAT:?OnRenderShowAndHideByDefault@ioWnd@@MAE_NK@Z
	DD	FLAT:?OnRenderShowAndHideByTop@ioWnd@@MAE_NK@Z
	DD	FLAT:?OnRenderShowAndHideByDown@ioWnd@@MAE_NK@Z
	DD	FLAT:?OnRender@RewardItemListIconBtn@@MAEXXZ
	DD	FLAT:?OnRenderAfterChild@ioWnd@@MAEXXZ
	DD	FLAT:?OnProcess@NewShopIconBtn@@MAEXM@Z
	DD	FLAT:?OnMouseProcess@ioWnd@@MAEXABVioMouse@@@Z
	DD	FLAT:?CheckFrameReSize@ioButton@@MAEXHHHH@Z
	DD	FLAT:?RenderImageList@ioWnd@@MAEXHHW4UIRenderType@@@Z
	DD	FLAT:?iwm_create@ioWnd@@UAEXXZ
	DD	FLAT:?iwm_destroy@ioWnd@@UAEXXZ
	DD	FLAT:?iwm_lbuttondown@ioButton@@UAEXABVioMouse@@@Z
	DD	FLAT:?iwm_lbuttonup@ioButton@@UAEXABVioMouse@@@Z
	DD	FLAT:?iwm_lbuttonDBLCLK@ioButton@@UAEXABVioMouse@@@Z
	DD	FLAT:?iwm_rbuttondown@ioButton@@UAEXABVioMouse@@@Z
	DD	FLAT:?iwm_rbuttonup@ioButton@@UAEXABVioMouse@@@Z
	DD	FLAT:?iwm_command@ioWnd@@UAEXPAV1@HK@Z
	DD	FLAT:?iwm_mouseover@ioButton@@UAEXABVioMouse@@@Z
	DD	FLAT:?iwm_mousemove@ioWnd@@UAEXABVioMouse@@@Z
	DD	FLAT:?iwm_mouseleave@ioWnd@@UAEXABVioMouse@@@Z
	DD	FLAT:?iwm_vscroll@ioWnd@@UAEXKH@Z
	DD	FLAT:?iwm_wheel@ioWnd@@UAEXH@Z
	DD	FLAT:?iwm_show@ioWnd@@UAEXXZ
	DD	FLAT:?iwm_hide@ioWnd@@UAEXXZ
	DD	FLAT:?iwm_esc@ioWnd@@UAE_NXZ
	DD	FLAT:?iwm_spacebar@ioWnd@@UAE_NXZ
	DD	FLAT:?iwm_gototop@ioWnd@@UAEXXZ
	DD	FLAT:?iwm_dragenter@ioWnd@@UAE?AW4IWDropEffect@@PAVioDragItem@@ABVioMouse@@@Z
	DD	FLAT:?iwm_dragover@ioWnd@@UAE?AW4IWDropEffect@@PAVioDragItem@@ABVioMouse@@@Z
	DD	FLAT:?iwm_dragleave@ioWnd@@UAEXXZ
	DD	FLAT:?iwm_dropitem@ioWnd@@UAE_NPAVioDragItem@@ABVioMouse@@PAV1@@Z
	DD	FLAT:?iwm_dropdone@ioWnd@@UAEXPAVioDragItem@@PAV1@_N@Z
	DD	FLAT:?IsEXType@ioWnd@@UBE_NXZ
	DD	FLAT:?GetWndType@ioButton@@UBEKXZ
	DD	FLAT:?RenderWnd@ioWnd@@UAEXXZ
	DD	FLAT:?SetIDEX@ioWnd@@UAEXAAK_N@Z
	DD	FLAT:?ParseXML@ioWnd@@UAEXAAVioXMLElement@@@Z
	DD	FLAT:?GetHeaderFileName@ioButton@@UAEPBDXZ
	DD	FLAT:?GetTemplateName@ioButton@@UAEPBDXZ
	DD	FLAT:?GetDefClassName@ioButton@@UBEPBDXZ
	DD	FLAT:?_Clone@ioButton@@UAEPAVioWnd@@XZ
	DD	FLAT:?Copy@ioButton@@UAEXPAVioWnd@@@Z
	DD	FLAT:?Save@ioWnd@@UAE_NAAVioXMLElement@@@Z
	DD	FLAT:?SetSaveData@ioButton@@UAEXAAVioXMLElement@@@Z
	DD	FLAT:?SetPosX@ioWnd@@UAEXH@Z
	DD	FLAT:?SetPosY@ioWnd@@UAEXH@Z
	DD	FLAT:?SetWidth@ioWnd@@UAEXH@Z
	DD	FLAT:?SetHeight@ioWnd@@UAEXH@Z
	DD	FLAT:?GetNumFixedRenderFrame@ioButton@@UBEHXZ
	DD	FLAT:?GetFixedRenderFrameType@ioButton@@UAEPBDH@Z
	DD	FLAT:?GetRenderFrame@ioButton@@UAEPAPAVioUIRenderElement@@PBD@Z
	DD	FLAT:?GetNumFixedRenderImage@ioButton@@UBEHXZ
	DD	FLAT:?GetFixedRenderImageType@ioButton@@UAEPBDH@Z
	DD	FLAT:?GetRenderImage@ioButton@@UAEPAPAVioUIRenderElement@@PBD@Z
	DD	FLAT:?AddEffect@ioWnd@@UAEXABVioHashString@@PAVioUI3DEffectRender@@@Z
	DD	FLAT:?GetEffect@ioWnd@@UAEPAVioUI3DEffectRender@@VioHashString@@@Z
	DD	FLAT:??_ERewardItemListIconBtn@@UAEPAXI@Z
	DD	FLAT:?OnDrawNormal@NewShopIconBtn@@MAEXHH@Z
	DD	FLAT:?OnDrawOvered@NewShopIconBtn@@MAEXHH@Z
	DD	FLAT:?OnDrawOveredAdd@ioButton@@MAEXHH@Z
	DD	FLAT:?OnDrawPushed@NewShopIconBtn@@MAEXHH@Z
	DD	FLAT:?OnDrawDisabled@NewShopIconBtn@@MAEXHH@Z
	DD	FLAT:?OnDrawExDisabledNormal@ioButton@@MAEXHH@Z
	DD	FLAT:?OnDrawExDisabledOvered@ioButton@@MAEXHH@Z
	DD	FLAT:?OnDrawExDisabledPushed@ioButton@@MAEXHH@Z
	DD	FLAT:?OnDrawBack@ioButton@@MAEXHH@Z
	DD	FLAT:?OnDrawNormalList@ioButton@@MAEXHH@Z
	DD	FLAT:?OnDrawDisableList@ioButton@@MAEXHH@Z
CONST	ENDS
;	COMDAT xdata$x
xdata$x	SEGMENT
__unwindtable$??0RewardItemListIconBtn@@QAE@XZ DD 0ffffffffH
	DD	FLAT:__unwindfunclet$??0RewardItemListIconBtn@@QAE@XZ$0
	DD	00H
	DD	FLAT:__unwindfunclet$??0RewardItemListIconBtn@@QAE@XZ$1
	DD	01H
	DD	FLAT:__unwindfunclet$??0RewardItemListIconBtn@@QAE@XZ$2
__ehfuncinfo$??0RewardItemListIconBtn@@QAE@XZ DD 019930522H
	DD	03H
	DD	FLAT:__unwindtable$??0RewardItemListIconBtn@@QAE@XZ
	DD	2 DUP(00H)
	DD	2 DUP(00H)
	DD	00H
	DD	01H
; Function compile flags: /Ogsp
xdata$x	ENDS
;	COMDAT ??0RewardItemListIconBtn@@QAE@XZ
_TEXT	SEGMENT
_this$ = -16						; size = 4
__$EHRec$ = -12						; size = 12
??0RewardItemListIconBtn@@QAE@XZ PROC			; RewardItemListIconBtn::RewardItemListIconBtn, COMDAT
; _this$ = ecx

; 10   : {

  00000	6a 04		 push	 4
  00002	b8 00 00 00 00	 mov	 eax, __ehhandler$??0RewardItemListIconBtn@@QAE@XZ
  00007	e8 00 00 00 00	 call	 __EH_prolog3
  0000c	8b f1		 mov	 esi, ecx
  0000e	89 75 f0	 mov	 DWORD PTR _this$[ebp], esi
  00011	e8 00 00 00 00	 call	 ??0NewShopIconBtn@@QAE@XZ ; NewShopIconBtn::NewShopIconBtn
  00016	83 65 fc 00	 and	 DWORD PTR __$EHRec$[ebp+8], 0
  0001a	8d 8e 6c 02 00
	00		 lea	 ecx, DWORD PTR [esi+620]
  00020	c7 06 00 00 00
	00		 mov	 DWORD PTR [esi], OFFSET ??_7RewardItemListIconBtn@@6B@
  00026	e8 00 00 00 00	 call	 ??0ioComplexStringPrinter@@QAE@XZ ; ioComplexStringPrinter::ioComplexStringPrinter
  0002b	8d 8e 8c 02 00
	00		 lea	 ecx, DWORD PTR [esi+652]
  00031	c6 45 fc 01	 mov	 BYTE PTR __$EHRec$[ebp+8], 1
  00035	ff 15 00 00 00
	00		 call	 DWORD PTR __imp_??0ioHashString@@QAE@XZ

; 11   : 	m_ItemNamePrinter.ClearList();

  0003b	8d 8e 6c 02 00
	00		 lea	 ecx, DWORD PTR [esi+620]
  00041	c6 45 fc 02	 mov	 BYTE PTR __$EHRec$[ebp+8], 2
  00045	e8 00 00 00 00	 call	 ?ClearList@ioComplexStringPrinter@@QAEXXZ ; ioComplexStringPrinter::ClearList

; 12   : 	m_szItemName.Clear();

  0004a	8d 8e 8c 02 00
	00		 lea	 ecx, DWORD PTR [esi+652]
  00050	ff 15 00 00 00
	00		 call	 DWORD PTR __imp_?Clear@ioHashString@@QAEXXZ

; 13   : }

  00056	8b c6		 mov	 eax, esi
  00058	e8 00 00 00 00	 call	 __EH_epilog3
  0005d	c3		 ret	 0
_TEXT	ENDS
;	COMDAT text$x
text$x	SEGMENT
__unwindfunclet$??0RewardItemListIconBtn@@QAE@XZ$0:
  00000	8b 4d f0	 mov	 ecx, DWORD PTR _this$[ebp]
  00003	e9 00 00 00 00	 jmp	 ??1NewShopIconBtn@@UAE@XZ ; NewShopIconBtn::~NewShopIconBtn
__unwindfunclet$??0RewardItemListIconBtn@@QAE@XZ$1:
  00008	8b 4d f0	 mov	 ecx, DWORD PTR _this$[ebp]
  0000b	81 c1 6c 02 00
	00		 add	 ecx, 620		; 0000026cH
  00011	e9 00 00 00 00	 jmp	 ??1ioComplexStringPrinter@@QAE@XZ ; ioComplexStringPrinter::~ioComplexStringPrinter
__unwindfunclet$??0RewardItemListIconBtn@@QAE@XZ$2:
  00016	8b 4d f0	 mov	 ecx, DWORD PTR _this$[ebp]
  00019	81 c1 8c 02 00
	00		 add	 ecx, 652		; 0000028cH
  0001f	ff 25 00 00 00
	00		 jmp	 DWORD PTR __imp_??1ioHashString@@QAE@XZ
__ehhandler$??0RewardItemListIconBtn@@QAE@XZ:
  00025	8b 54 24 08	 mov	 edx, DWORD PTR [esp+8]
  00029	8d 42 0c	 lea	 eax, DWORD PTR [edx+12]
  0002c	8b 4a ec	 mov	 ecx, DWORD PTR [edx-20]
  0002f	33 c8		 xor	 ecx, eax
  00031	e8 00 00 00 00	 call	 @__security_check_cookie@4
  00036	b8 00 00 00 00	 mov	 eax, OFFSET __ehfuncinfo$??0RewardItemListIconBtn@@QAE@XZ
  0003b	e9 00 00 00 00	 jmp	 ___CxxFrameHandler3
text$x	ENDS
??0RewardItemListIconBtn@@QAE@XZ ENDP			; RewardItemListIconBtn::RewardItemListIconBtn
PUBLIC	??1RewardItemListIconBtn@@UAE@XZ		; RewardItemListIconBtn::~RewardItemListIconBtn
;	COMDAT xdata$x
xdata$x	SEGMENT
__unwindtable$??1RewardItemListIconBtn@@UAE@XZ DD 0ffffffffH
	DD	FLAT:__unwindfunclet$??1RewardItemListIconBtn@@UAE@XZ$0
	DD	00H
	DD	FLAT:__unwindfunclet$??1RewardItemListIconBtn@@UAE@XZ$1
__ehfuncinfo$??1RewardItemListIconBtn@@UAE@XZ DD 019930522H
	DD	02H
	DD	FLAT:__unwindtable$??1RewardItemListIconBtn@@UAE@XZ
	DD	2 DUP(00H)
	DD	2 DUP(00H)
	DD	00H
	DD	01H
; Function compile flags: /Ogsp
xdata$x	ENDS
;	COMDAT ??1RewardItemListIconBtn@@UAE@XZ
_TEXT	SEGMENT
_this$ = -16						; size = 4
__$EHRec$ = -12						; size = 12
??1RewardItemListIconBtn@@UAE@XZ PROC			; RewardItemListIconBtn::~RewardItemListIconBtn, COMDAT
; _this$ = ecx

; 16   : {

  00000	6a 04		 push	 4
  00002	b8 00 00 00 00	 mov	 eax, __ehhandler$??1RewardItemListIconBtn@@UAE@XZ
  00007	e8 00 00 00 00	 call	 __EH_prolog3
  0000c	8b f1		 mov	 esi, ecx
  0000e	89 75 f0	 mov	 DWORD PTR _this$[ebp], esi
  00011	c7 06 00 00 00
	00		 mov	 DWORD PTR [esi], OFFSET ??_7RewardItemListIconBtn@@6B@

; 17   : 
; 18   : }

  00017	8d 8e 8c 02 00
	00		 lea	 ecx, DWORD PTR [esi+652]
  0001d	c7 45 fc 01 00
	00 00		 mov	 DWORD PTR __$EHRec$[ebp+8], 1
  00024	ff 15 00 00 00
	00		 call	 DWORD PTR __imp_??1ioHashString@@QAE@XZ
  0002a	8d 8e 6c 02 00
	00		 lea	 ecx, DWORD PTR [esi+620]
  00030	c6 45 fc 00	 mov	 BYTE PTR __$EHRec$[ebp+8], 0
  00034	e8 00 00 00 00	 call	 ??1ioComplexStringPrinter@@QAE@XZ ; ioComplexStringPrinter::~ioComplexStringPrinter
  00039	83 4d fc ff	 or	 DWORD PTR __$EHRec$[ebp+8], -1
  0003d	8b ce		 mov	 ecx, esi
  0003f	e8 00 00 00 00	 call	 ??1NewShopIconBtn@@UAE@XZ ; NewShopIconBtn::~NewShopIconBtn
  00044	e8 00 00 00 00	 call	 __EH_epilog3
  00049	c3		 ret	 0
_TEXT	ENDS
;	COMDAT text$x
text$x	SEGMENT
__unwindfunclet$??1RewardItemListIconBtn@@UAE@XZ$0:
  00000	8b 4d f0	 mov	 ecx, DWORD PTR _this$[ebp]
  00003	e9 00 00 00 00	 jmp	 ??1NewShopIconBtn@@UAE@XZ ; NewShopIconBtn::~NewShopIconBtn
__unwindfunclet$??1RewardItemListIconBtn@@UAE@XZ$1:
  00008	8b 4d f0	 mov	 ecx, DWORD PTR _this$[ebp]
  0000b	81 c1 6c 02 00
	00		 add	 ecx, 620		; 0000026cH
  00011	e9 00 00 00 00	 jmp	 ??1ioComplexStringPrinter@@QAE@XZ ; ioComplexStringPrinter::~ioComplexStringPrinter
__ehhandler$??1RewardItemListIconBtn@@UAE@XZ:
  00016	8b 54 24 08	 mov	 edx, DWORD PTR [esp+8]
  0001a	8d 42 0c	 lea	 eax, DWORD PTR [edx+12]
  0001d	8b 4a ec	 mov	 ecx, DWORD PTR [edx-20]
  00020	33 c8		 xor	 ecx, eax
  00022	e8 00 00 00 00	 call	 @__security_check_cookie@4
  00027	b8 00 00 00 00	 mov	 eax, OFFSET __ehfuncinfo$??1RewardItemListIconBtn@@UAE@XZ
  0002c	e9 00 00 00 00	 jmp	 ___CxxFrameHandler3
text$x	ENDS
??1RewardItemListIconBtn@@UAE@XZ ENDP			; RewardItemListIconBtn::~RewardItemListIconBtn
PUBLIC	?AddRenderFrame@GuildPossibleRewardListWnd@@MAEXABVioHashString@@PAVioUIRenderFrame@@@Z ; GuildPossibleRewardListWnd::AddRenderFrame
EXTRN	__imp_?AddRenderFrame@ioWnd@@UAEXABVioHashString@@PAVioUIRenderFrame@@@Z:PROC
; Function compile flags: /Ogsp
;	COMDAT ?AddRenderFrame@GuildPossibleRewardListWnd@@MAEXABVioHashString@@PAVioUIRenderFrame@@@Z
_TEXT	SEGMENT
_szType$ = 8						; size = 4
_pFrame$ = 12						; size = 4
?AddRenderFrame@GuildPossibleRewardListWnd@@MAEXABVioHashString@@PAVioUIRenderFrame@@@Z PROC ; GuildPossibleRewardListWnd::AddRenderFrame, COMDAT
; _this$ = ecx

; 86   : {

  00000	55		 push	 ebp
  00001	8b ec		 mov	 ebp, esp

; 88   : }

  00003	5d		 pop	 ebp

; 87   : 	ioWnd::AddRenderFrame( szType, pFrame );

  00004	ff 25 00 00 00
	00		 jmp	 DWORD PTR __imp_?AddRenderFrame@ioWnd@@UAEXABVioHashString@@PAVioUIRenderFrame@@@Z
?AddRenderFrame@GuildPossibleRewardListWnd@@MAEXABVioHashString@@PAVioUIRenderFrame@@@Z ENDP ; GuildPossibleRewardListWnd::AddRenderFrame
_TEXT	ENDS
PUBLIC	?AddRenderImage@GuildPossibleRewardListWnd@@MAEXABVioHashString@@PAVioUIRenderImage@@@Z ; GuildPossibleRewardListWnd::AddRenderImage
EXTRN	__imp_?AddRenderImage@ioWnd@@UAEXABVioHashString@@PAVioUIRenderImage@@@Z:PROC
; Function compile flags: /Ogsp
;	COMDAT ?AddRenderImage@GuildPossibleRewardListWnd@@MAEXABVioHashString@@PAVioUIRenderImage@@@Z
_TEXT	SEGMENT
_szType$ = 8						; size = 4
_pImage$ = 12						; size = 4
?AddRenderImage@GuildPossibleRewardListWnd@@MAEXABVioHashString@@PAVioUIRenderImage@@@Z PROC ; GuildPossibleRewardListWnd::AddRenderImage, COMDAT
; _this$ = ecx

; 91   : {

  00000	55		 push	 ebp
  00001	8b ec		 mov	 ebp, esp

; 93   : }

  00003	5d		 pop	 ebp

; 92   : 	ioWnd::AddRenderImage( szType, pImage );

  00004	ff 25 00 00 00
	00		 jmp	 DWORD PTR __imp_?AddRenderImage@ioWnd@@UAEXABVioHashString@@PAVioUIRenderImage@@@Z
?AddRenderImage@GuildPossibleRewardListWnd@@MAEXABVioHashString@@PAVioUIRenderImage@@@Z ENDP ; GuildPossibleRewardListWnd::AddRenderImage
_TEXT	ENDS
PUBLIC	??_C@_09BIHLDLDN@RankTitle?$AA@			; `string'
PUBLIC	??_C@_0M@IMPOBNLI@AttendTitle?$AA@		; `string'
PUBLIC	?ParseExtraInfo@GuildPossibleRewardListWnd@@MAEXAAVioXMLElement@@@Z ; GuildPossibleRewardListWnd::ParseExtraInfo
EXTRN	__imp_??4ioHashString@@QAEAAV0@PBD@Z:PROC
EXTRN	__imp_?GetStringAttribute@ioXMLElement@@QBEPBDPBD@Z:PROC
;	COMDAT ??_C@_09BIHLDLDN@RankTitle?$AA@
CONST	SEGMENT
??_C@_09BIHLDLDN@RankTitle?$AA@ DB 'RankTitle', 00H	; `string'
CONST	ENDS
;	COMDAT ??_C@_0M@IMPOBNLI@AttendTitle?$AA@
CONST	SEGMENT
??_C@_0M@IMPOBNLI@AttendTitle?$AA@ DB 'AttendTitle', 00H ; `string'
; Function compile flags: /Ogsp
CONST	ENDS
;	COMDAT ?ParseExtraInfo@GuildPossibleRewardListWnd@@MAEXAAVioXMLElement@@@Z
_TEXT	SEGMENT
_xElement$ = 8						; size = 4
?ParseExtraInfo@GuildPossibleRewardListWnd@@MAEXAAVioXMLElement@@@Z PROC ; GuildPossibleRewardListWnd::ParseExtraInfo, COMDAT
; _this$ = ecx

; 96   : {

  00000	55		 push	 ebp
  00001	8b ec		 mov	 ebp, esp
  00003	53		 push	 ebx
  00004	56		 push	 esi

; 97   : 	m_szAttendTitleName = xElement.GetStringAttribute( "AttendTitle");

  00005	8b 35 00 00 00
	00		 mov	 esi, DWORD PTR __imp_?GetStringAttribute@ioXMLElement@@QBEPBDPBD@Z
  0000b	57		 push	 edi
  0000c	8b d9		 mov	 ebx, ecx
  0000e	8b 4d 08	 mov	 ecx, DWORD PTR _xElement$[ebp]
  00011	68 00 00 00 00	 push	 OFFSET ??_C@_0M@IMPOBNLI@AttendTitle?$AA@
  00016	ff d6		 call	 esi
  00018	8b 3d 00 00 00
	00		 mov	 edi, DWORD PTR __imp_??4ioHashString@@QAEAAV0@PBD@Z
  0001e	50		 push	 eax
  0001f	8d 8b 78 01 00
	00		 lea	 ecx, DWORD PTR [ebx+376]
  00025	ff d7		 call	 edi

; 98   : 	m_szRankTitleName = xElement.GetStringAttribute( "RankTitle");

  00027	8b 4d 08	 mov	 ecx, DWORD PTR _xElement$[ebp]
  0002a	68 00 00 00 00	 push	 OFFSET ??_C@_09BIHLDLDN@RankTitle?$AA@
  0002f	ff d6		 call	 esi
  00031	50		 push	 eax
  00032	8d 8b 88 01 00
	00		 lea	 ecx, DWORD PTR [ebx+392]
  00038	ff d7		 call	 edi
  0003a	5f		 pop	 edi
  0003b	5e		 pop	 esi
  0003c	5b		 pop	 ebx

; 99   : }

  0003d	5d		 pop	 ebp
  0003e	c2 04 00	 ret	 4
?ParseExtraInfo@GuildPossibleRewardListWnd@@MAEXAAVioXMLElement@@@Z ENDP ; GuildPossibleRewardListWnd::ParseExtraInfo
_TEXT	ENDS
PUBLIC	?ClearData@GuildPossibleRewardListWnd@@IAEXXZ	; GuildPossibleRewardListWnd::ClearData
; Function compile flags: /Ogsp
;	COMDAT ?ClearData@GuildPossibleRewardListWnd@@IAEXXZ
_TEXT	SEGMENT
?ClearData@GuildPossibleRewardListWnd@@IAEXXZ PROC	; GuildPossibleRewardListWnd::ClearData, COMDAT
; _this$ = ecx

; 102  : {

  00000	56		 push	 esi
  00001	8b f1		 mov	 esi, ecx

; 103  : 	m_iRewardType = 0;

  00003	33 c0		 xor	 eax, eax
  00005	57		 push	 edi

; 104  : 	m_dwCurRadioBtn = 0;
; 105  : 	m_iMaxPage = 0;
; 106  : 	m_iCurPage = 0;
; 107  : 	m_PagePrinter.ClearList();

  00006	8d 8e 98 01 00
	00		 lea	 ecx, DWORD PTR [esi+408]
  0000c	89 86 60 01 00
	00		 mov	 DWORD PTR [esi+352], eax
  00012	89 86 64 01 00
	00		 mov	 DWORD PTR [esi+356], eax
  00018	89 86 f8 01 00
	00		 mov	 DWORD PTR [esi+504], eax
  0001e	89 86 fc 01 00
	00		 mov	 DWORD PTR [esi+508], eax
  00024	e8 00 00 00 00	 call	 ?ClearList@ioComplexStringPrinter@@QAEXXZ ; ioComplexStringPrinter::ClearList
  00029	6a 02		 push	 2
  0002b	81 c6 b8 01 00
	00		 add	 esi, 440		; 000001b8H
  00031	5f		 pop	 edi
$LL3@ClearData:

; 108  : 
; 109  : 	for ( int i= 0 ; i<MAX_TEXT ; ++i )
; 110  : 		m_UnderLinePrinter[i].ClearList();

  00032	8b ce		 mov	 ecx, esi
  00034	e8 00 00 00 00	 call	 ?ClearList@ioComplexStringPrinter@@QAEXXZ ; ioComplexStringPrinter::ClearList
  00039	83 c6 20	 add	 esi, 32			; 00000020H
  0003c	4f		 dec	 edi
  0003d	75 f3		 jne	 SHORT $LL3@ClearData

; 111  : }

  0003f	5f		 pop	 edi
  00040	5e		 pop	 esi
  00041	c3		 ret	 0
?ClearData@GuildPossibleRewardListWnd@@IAEXXZ ENDP	; GuildPossibleRewardListWnd::ClearData
_TEXT	ENDS
PUBLIC	??_R0?AVGuildEnableRewardToolTip@@@8		; GuildEnableRewardToolTip `RTTI Type Descriptor'
PUBLIC	?iwm_hide@GuildPossibleRewardListWnd@@UAEXXZ	; GuildPossibleRewardListWnd::iwm_hide
EXTRN	__imp_?HideWnd@ioWnd@@QAEXXZ:PROC
EXTRN	__imp_?IsShow@ioWnd@@QBE_NXZ:PROC
EXTRN	__imp_?FindChildWnd@ioWnd@@QAEPAV1@K@Z:PROC
EXTRN	___RTDynamicCast:PROC
;	COMDAT ??_R0?AVGuildEnableRewardToolTip@@@8
_DATA	SEGMENT
??_R0?AVGuildEnableRewardToolTip@@@8 DD FLAT:??_7type_info@@6B@ ; GuildEnableRewardToolTip `RTTI Type Descriptor'
	DD	00H
	DB	'.?AVGuildEnableRewardToolTip@@', 00H
; Function compile flags: /Ogsp
_DATA	ENDS
;	COMDAT ?iwm_hide@GuildPossibleRewardListWnd@@UAEXXZ
_TEXT	SEGMENT
?iwm_hide@GuildPossibleRewardListWnd@@UAEXXZ PROC	; GuildPossibleRewardListWnd::iwm_hide, COMDAT
; _this$ = ecx

; 127  : {

  00000	56		 push	 esi
  00001	8b f1		 mov	 esi, ecx

; 128  : 	ClearData();

  00003	e8 00 00 00 00	 call	 ?ClearData@GuildPossibleRewardListWnd@@IAEXXZ ; GuildPossibleRewardListWnd::ClearData

; 129  : 	GuildEnableRewardToolTip *pToolTip = dynamic_cast<GuildEnableRewardToolTip*>( FindChildWnd( ID_TOOLTIP ) );

  00008	6a 00		 push	 0
  0000a	68 00 00 00 00	 push	 OFFSET ??_R0?AVGuildEnableRewardToolTip@@@8
  0000f	68 00 00 00 00	 push	 OFFSET ??_R0?AVioWnd@@@8
  00014	6a 00		 push	 0
  00016	68 c8 00 00 00	 push	 200			; 000000c8H
  0001b	8b ce		 mov	 ecx, esi
  0001d	ff 15 00 00 00
	00		 call	 DWORD PTR __imp_?FindChildWnd@ioWnd@@QAEPAV1@K@Z
  00023	50		 push	 eax
  00024	e8 00 00 00 00	 call	 ___RTDynamicCast
  00029	8b f0		 mov	 esi, eax
  0002b	83 c4 14	 add	 esp, 20			; 00000014H

; 130  : 	if ( pToolTip && pToolTip->IsShow() )

  0002e	85 f6		 test	 esi, esi
  00030	74 15		 je	 SHORT $LN1@iwm_hide
  00032	8b ce		 mov	 ecx, esi
  00034	ff 15 00 00 00
	00		 call	 DWORD PTR __imp_?IsShow@ioWnd@@QBE_NXZ
  0003a	84 c0		 test	 al, al
  0003c	74 09		 je	 SHORT $LN1@iwm_hide

; 131  : 		pToolTip->HideWnd();

  0003e	8b ce		 mov	 ecx, esi
  00040	5e		 pop	 esi
  00041	ff 25 00 00 00
	00		 jmp	 DWORD PTR __imp_?HideWnd@ioWnd@@QAEXXZ
$LN1@iwm_hide:
  00047	5e		 pop	 esi

; 132  : }

  00048	c3		 ret	 0
?iwm_hide@GuildPossibleRewardListWnd@@UAEXXZ ENDP	; GuildPossibleRewardListWnd::iwm_hide
_TEXT	ENDS
PUBLIC	?ShowRewardWnd@GuildPossibleRewardListWnd@@QAEXH@Z ; GuildPossibleRewardListWnd::ShowRewardWnd
EXTRN	__imp_?ShowWnd@ioWnd@@QAEXXZ:PROC
; Function compile flags: /Ogsp
;	COMDAT ?ShowRewardWnd@GuildPossibleRewardListWnd@@QAEXH@Z
_TEXT	SEGMENT
_iType$ = 8						; size = 4
?ShowRewardWnd@GuildPossibleRewardListWnd@@QAEXH@Z PROC	; GuildPossibleRewardListWnd::ShowRewardWnd, COMDAT
; _this$ = ecx

; 135  : {

  00000	55		 push	 ebp
  00001	8b ec		 mov	 ebp, esp
  00003	56		 push	 esi
  00004	8b f1		 mov	 esi, ecx

; 136  : 	ClearData();

  00006	e8 00 00 00 00	 call	 ?ClearData@GuildPossibleRewardListWnd@@IAEXXZ ; GuildPossibleRewardListWnd::ClearData

; 137  : 	m_iRewardType = iType;

  0000b	8b 45 08	 mov	 eax, DWORD PTR _iType$[ebp]

; 138  : 	ShowWnd();

  0000e	8b ce		 mov	 ecx, esi
  00010	89 86 60 01 00
	00		 mov	 DWORD PTR [esi+352], eax
  00016	ff 15 00 00 00
	00		 call	 DWORD PTR __imp_?ShowWnd@ioWnd@@QAEXXZ
  0001c	5e		 pop	 esi

; 139  : }

  0001d	5d		 pop	 ebp
  0001e	c2 04 00	 ret	 4
?ShowRewardWnd@GuildPossibleRewardListWnd@@QAEXH@Z ENDP	; GuildPossibleRewardListWnd::ShowRewardWnd
_TEXT	ENDS
PUBLIC	??_C@_0CC@DFNLJHJE@?$CFs?5?9?5is?5not?5exist?5RewardType?5?3?5?$CF@ ; `string'
PUBLIC	__real@3f266666
PUBLIC	??_C@_0CL@ODKFPPIK@GuildPossibleRewardListWnd?3?3SetT@ ; `string'
PUBLIC	??_C@_00CNPNBAHC@?$AA@				; `string'
PUBLIC	?SetTitleByType@GuildPossibleRewardListWnd@@IAEXXZ ; GuildPossibleRewardListWnd::SetTitleByType
EXTRN	__imp_?PrintTimeAndLog@CLog@@QAAXHPADZZ:PROC
EXTRN	__imp_?LOG@@3VCLog@@A:BYTE
EXTRN	?AddTextPiece@ioComplexStringPrinter@@QAAXMPBDZZ:PROC ; ioComplexStringPrinter::AddTextPiece
EXTRN	__imp_?GetString@ioStringManager@@QAEPADPBD0HW4FileNamePrefix@1@@Z:PROC
EXTRN	__imp_?GetSingleton@ioStringManager@@SAAAV1@XZ:PROC
EXTRN	?SetTextColor@ioComplexStringPrinter@@QAEXK@Z:PROC ; ioComplexStringPrinter::SetTextColor
EXTRN	__imp_?SetTitleText@ioWnd@@QAEXPBD0H@Z:PROC
EXTRN	__imp_?c_str@ioHashString@@QBEPBDXZ:PROC
EXTRN	?SetBkColor@ioComplexStringPrinter@@QAEXHHH@Z:PROC ; ioComplexStringPrinter::SetBkColor
EXTRN	?SetTextStyle@ioComplexStringPrinter@@QAEXW4TextStyle@@@Z:PROC ; ioComplexStringPrinter::SetTextStyle
EXTRN	__fltused:DWORD
;	COMDAT ??_C@_0CC@DFNLJHJE@?$CFs?5?9?5is?5not?5exist?5RewardType?5?3?5?$CF@
CONST	SEGMENT
??_C@_0CC@DFNLJHJE@?$CFs?5?9?5is?5not?5exist?5RewardType?5?3?5?$CF@ DB '%'
	DB	's - is not exist RewardType : %d', 00H	; `string'
CONST	ENDS
;	COMDAT __real@3f266666
CONST	SEGMENT
__real@3f266666 DD 03f266666r			; 0.65
CONST	ENDS
;	COMDAT ??_C@_0CL@ODKFPPIK@GuildPossibleRewardListWnd?3?3SetT@
CONST	SEGMENT
??_C@_0CL@ODKFPPIK@GuildPossibleRewardListWnd?3?3SetT@ DB 'GuildPossibleR'
	DB	'ewardListWnd::SetTitleByType', 00H		; `string'
CONST	ENDS
;	COMDAT ??_C@_00CNPNBAHC@?$AA@
CONST	SEGMENT
??_C@_00CNPNBAHC@?$AA@ DB 00H				; `string'
; Function compile flags: /Ogsp
CONST	ENDS
;	COMDAT ?SetTitleByType@GuildPossibleRewardListWnd@@IAEXXZ
_TEXT	SEGMENT
tv271 = -8						; size = 4
tv300 = -4						; size = 4
_this$ = -4						; size = 4
?SetTitleByType@GuildPossibleRewardListWnd@@IAEXXZ PROC	; GuildPossibleRewardListWnd::SetTitleByType, COMDAT
; _this$ = ecx

; 142  : {

  00000	55		 push	 ebp
  00001	8b ec		 mov	 ebp, esp
  00003	51		 push	 ecx
  00004	51		 push	 ecx
  00005	53		 push	 ebx
  00006	56		 push	 esi
  00007	57		 push	 edi
  00008	8b f9		 mov	 edi, ecx
  0000a	89 7d fc	 mov	 DWORD PTR _this$[ebp], edi

; 143  : 	for ( int i= 0 ; i<MAX_TEXT ; ++i )

  0000d	8d b7 b8 01 00
	00		 lea	 esi, DWORD PTR [edi+440]
  00013	c7 45 f8 02 00
	00 00		 mov	 DWORD PTR tv271[ebp], 2
$LL7@SetTitleBy:

; 144  : 	{
; 145  : 		m_UnderLinePrinter[i].SetTextStyle( TS_NORMAL);

  0001a	33 db		 xor	 ebx, ebx
  0001c	53		 push	 ebx
  0001d	8b ce		 mov	 ecx, esi
  0001f	e8 00 00 00 00	 call	 ?SetTextStyle@ioComplexStringPrinter@@QAEXW4TextStyle@@@Z ; ioComplexStringPrinter::SetTextStyle

; 146  : 		m_UnderLinePrinter[i].SetBkColor( 0, 0, 0 );

  00024	53		 push	 ebx
  00025	53		 push	 ebx
  00026	53		 push	 ebx
  00027	8b ce		 mov	 ecx, esi
  00029	e8 00 00 00 00	 call	 ?SetBkColor@ioComplexStringPrinter@@QAEXHHH@Z ; ioComplexStringPrinter::SetBkColor
  0002e	83 c6 20	 add	 esi, 32			; 00000020H
  00031	ff 4d f8	 dec	 DWORD PTR tv271[ebp]
  00034	75 e4		 jne	 SHORT $LL7@SetTitleBy

; 147  : 	}
; 148  : 
; 149  : 	if ( m_iRewardType == GuildInfoWnd::ATTEND_REWARD )

  00036	8b 87 60 01 00
	00		 mov	 eax, DWORD PTR [edi+352]
  0003c	83 f8 02	 cmp	 eax, 2
  0003f	0f 85 0b 01 00
	00		 jne	 $LN4@SetTitleBy

; 150  : 	{
; 151  : 		SetTitleText( m_szAttendTitleName.c_str() );

  00045	53		 push	 ebx
  00046	be 00 00 00 00	 mov	 esi, OFFSET ??_C@_00CNPNBAHC@?$AA@
  0004b	56		 push	 esi
  0004c	8d 8f 78 01 00
	00		 lea	 ecx, DWORD PTR [edi+376]
  00052	ff 15 00 00 00
	00		 call	 DWORD PTR __imp_?c_str@ioHashString@@QBEPBDXZ
  00058	50		 push	 eax
  00059	8b cf		 mov	 ecx, edi
  0005b	ff 15 00 00 00
	00		 call	 DWORD PTR __imp_?SetTitleText@ioWnd@@QAEXPBD0H@Z

; 152  : 
; 153  : 		m_UnderLinePrinter[0].SetTextColor( TCT_DEFAULT_DARKGRAY ); 

  00061	bb 3a 3a 3a ff	 mov	 ebx, -12961222		; ff3a3a3aH
  00066	53		 push	 ebx
  00067	8d 8f b8 01 00
	00		 lea	 ecx, DWORD PTR [edi+440]
  0006d	e8 00 00 00 00	 call	 ?SetTextColor@ioComplexStringPrinter@@QAEXK@Z ; ioComplexStringPrinter::SetTextColor

; 154  : 		m_UnderLinePrinter[0].AddTextPiece( FONT_SIZE_13, STR(1) );

  00072	6a 00		 push	 0
  00074	6a 01		 push	 1
  00076	56		 push	 esi
  00077	bf 00 00 00 00	 mov	 edi, OFFSET ??_C@_0CL@ODKFPPIK@GuildPossibleRewardListWnd?3?3SetT@
  0007c	57		 push	 edi
  0007d	ff 15 00 00 00
	00		 call	 DWORD PTR __imp_?GetSingleton@ioStringManager@@SAAAV1@XZ
  00083	8b c8		 mov	 ecx, eax
  00085	ff 15 00 00 00
	00		 call	 DWORD PTR __imp_?GetString@ioStringManager@@QAEPADPBD0HW4FileNamePrefix@1@@Z
  0008b	f3 0f 10 05 00
	00 00 00	 movss	 xmm0, DWORD PTR __real@3f266666
  00093	50		 push	 eax
  00094	8b 45 fc	 mov	 eax, DWORD PTR _this$[ebp]
  00097	51		 push	 ecx
  00098	05 b8 01 00 00	 add	 eax, 440		; 000001b8H
  0009d	f3 0f 11 04 24	 movss	 DWORD PTR [esp], xmm0
  000a2	50		 push	 eax
  000a3	e8 00 00 00 00	 call	 ?AddTextPiece@ioComplexStringPrinter@@QAAXMPBDZZ ; ioComplexStringPrinter::AddTextPiece

; 155  : 
; 156  : 		m_UnderLinePrinter[0].SetTextColor( TCT_DEFAULT_RED ); 

  000a8	8b 4d fc	 mov	 ecx, DWORD PTR _this$[ebp]
  000ab	83 c4 0c	 add	 esp, 12			; 0000000cH
  000ae	68 00 16 b9 ff	 push	 -4647424		; ffb91600H
  000b3	81 c1 b8 01 00
	00		 add	 ecx, 440		; 000001b8H
  000b9	e8 00 00 00 00	 call	 ?SetTextColor@ioComplexStringPrinter@@QAEXK@Z ; ioComplexStringPrinter::SetTextColor

; 157  : 		m_UnderLinePrinter[0].AddTextPiece( FONT_SIZE_13, STR(2) );

  000be	6a 00		 push	 0
  000c0	6a 02		 push	 2
  000c2	56		 push	 esi
  000c3	57		 push	 edi
  000c4	ff 15 00 00 00
	00		 call	 DWORD PTR __imp_?GetSingleton@ioStringManager@@SAAAV1@XZ
  000ca	8b c8		 mov	 ecx, eax
  000cc	ff 15 00 00 00
	00		 call	 DWORD PTR __imp_?GetString@ioStringManager@@QAEPADPBD0HW4FileNamePrefix@1@@Z
  000d2	f3 0f 10 05 00
	00 00 00	 movss	 xmm0, DWORD PTR __real@3f266666
  000da	50		 push	 eax
  000db	8b 45 fc	 mov	 eax, DWORD PTR _this$[ebp]
  000de	51		 push	 ecx
  000df	05 b8 01 00 00	 add	 eax, 440		; 000001b8H
  000e4	f3 0f 11 04 24	 movss	 DWORD PTR [esp], xmm0
  000e9	50		 push	 eax
  000ea	e8 00 00 00 00	 call	 ?AddTextPiece@ioComplexStringPrinter@@QAAXMPBDZZ ; ioComplexStringPrinter::AddTextPiece

; 158  : 
; 159  : 		m_UnderLinePrinter[0].SetTextColor( TCT_DEFAULT_DARKGRAY ); 

  000ef	8b 4d fc	 mov	 ecx, DWORD PTR _this$[ebp]
  000f2	83 c4 0c	 add	 esp, 12			; 0000000cH
  000f5	53		 push	 ebx
  000f6	81 c1 b8 01 00
	00		 add	 ecx, 440		; 000001b8H
  000fc	e8 00 00 00 00	 call	 ?SetTextColor@ioComplexStringPrinter@@QAEXK@Z ; ioComplexStringPrinter::SetTextColor

; 160  : 		m_UnderLinePrinter[0].AddTextPiece( FONT_SIZE_13, STR(3) );

  00101	6a 00		 push	 0
  00103	6a 03		 push	 3
  00105	56		 push	 esi
  00106	57		 push	 edi
  00107	ff 15 00 00 00
	00		 call	 DWORD PTR __imp_?GetSingleton@ioStringManager@@SAAAV1@XZ
  0010d	8b c8		 mov	 ecx, eax
  0010f	ff 15 00 00 00
	00		 call	 DWORD PTR __imp_?GetString@ioStringManager@@QAEPADPBD0HW4FileNamePrefix@1@@Z
  00115	f3 0f 10 05 00
	00 00 00	 movss	 xmm0, DWORD PTR __real@3f266666
  0011d	50		 push	 eax
  0011e	8b 45 fc	 mov	 eax, DWORD PTR _this$[ebp]
  00121	51		 push	 ecx
  00122	05 b8 01 00 00	 add	 eax, 440		; 000001b8H
  00127	f3 0f 11 04 24	 movss	 DWORD PTR [esp], xmm0
  0012c	50		 push	 eax
  0012d	e8 00 00 00 00	 call	 ?AddTextPiece@ioComplexStringPrinter@@QAAXMPBDZZ ; ioComplexStringPrinter::AddTextPiece

; 161  : 
; 162  : 		m_UnderLinePrinter[1].SetTextColor( TCT_DEFAULT_DARKGRAY ); 

  00132	8b 4d fc	 mov	 ecx, DWORD PTR _this$[ebp]
  00135	83 c4 0c	 add	 esp, 12			; 0000000cH
  00138	81 c1 d8 01 00
	00		 add	 ecx, 472		; 000001d8H
  0013e	53		 push	 ebx
  0013f	89 4d fc	 mov	 DWORD PTR tv300[ebp], ecx
  00142	e8 00 00 00 00	 call	 ?SetTextColor@ioComplexStringPrinter@@QAEXK@Z ; ioComplexStringPrinter::SetTextColor

; 163  : 		m_UnderLinePrinter[1].AddTextPiece( FONT_SIZE_13, STR(4) );

  00147	6a 00		 push	 0
  00149	6a 04		 push	 4
  0014b	e9 10 01 00 00	 jmp	 $LN12@SetTitleBy
$LN4@SetTitleBy:

; 164  : 	}
; 165  : 	else if ( m_iRewardType == GuildInfoWnd::RANK_REWARD )

  00150	83 f8 01	 cmp	 eax, 1
  00153	0f 85 33 01 00
	00		 jne	 $LN2@SetTitleBy

; 166  : 	{
; 167  : 		SetTitleText( m_szRankTitleName.c_str() );

  00159	6a 00		 push	 0
  0015b	be 00 00 00 00	 mov	 esi, OFFSET ??_C@_00CNPNBAHC@?$AA@
  00160	56		 push	 esi
  00161	8d 8f 88 01 00
	00		 lea	 ecx, DWORD PTR [edi+392]
  00167	ff 15 00 00 00
	00		 call	 DWORD PTR __imp_?c_str@ioHashString@@QBEPBDXZ
  0016d	50		 push	 eax
  0016e	8b cf		 mov	 ecx, edi
  00170	ff 15 00 00 00
	00		 call	 DWORD PTR __imp_?SetTitleText@ioWnd@@QAEXPBD0H@Z

; 168  : 
; 169  : 		m_UnderLinePrinter[0].SetTextColor( TCT_DEFAULT_DARKGRAY ); 

  00176	bb 3a 3a 3a ff	 mov	 ebx, -12961222		; ff3a3a3aH
  0017b	53		 push	 ebx
  0017c	8d 8f b8 01 00
	00		 lea	 ecx, DWORD PTR [edi+440]
  00182	e8 00 00 00 00	 call	 ?SetTextColor@ioComplexStringPrinter@@QAEXK@Z ; ioComplexStringPrinter::SetTextColor

; 170  : 		m_UnderLinePrinter[0].AddTextPiece( FONT_SIZE_13, STR(5) );

  00187	6a 00		 push	 0
  00189	6a 05		 push	 5
  0018b	56		 push	 esi
  0018c	bf 00 00 00 00	 mov	 edi, OFFSET ??_C@_0CL@ODKFPPIK@GuildPossibleRewardListWnd?3?3SetT@
  00191	57		 push	 edi
  00192	ff 15 00 00 00
	00		 call	 DWORD PTR __imp_?GetSingleton@ioStringManager@@SAAAV1@XZ
  00198	8b c8		 mov	 ecx, eax
  0019a	ff 15 00 00 00
	00		 call	 DWORD PTR __imp_?GetString@ioStringManager@@QAEPADPBD0HW4FileNamePrefix@1@@Z
  001a0	f3 0f 10 05 00
	00 00 00	 movss	 xmm0, DWORD PTR __real@3f266666
  001a8	50		 push	 eax
  001a9	8b 45 fc	 mov	 eax, DWORD PTR _this$[ebp]
  001ac	51		 push	 ecx
  001ad	05 b8 01 00 00	 add	 eax, 440		; 000001b8H
  001b2	f3 0f 11 04 24	 movss	 DWORD PTR [esp], xmm0
  001b7	50		 push	 eax
  001b8	e8 00 00 00 00	 call	 ?AddTextPiece@ioComplexStringPrinter@@QAAXMPBDZZ ; ioComplexStringPrinter::AddTextPiece

; 171  : 
; 172  : 		m_UnderLinePrinter[0].SetTextColor( TCT_DEFAULT_RED ); 

  001bd	8b 4d fc	 mov	 ecx, DWORD PTR _this$[ebp]
  001c0	83 c4 0c	 add	 esp, 12			; 0000000cH
  001c3	68 00 16 b9 ff	 push	 -4647424		; ffb91600H
  001c8	81 c1 b8 01 00
	00		 add	 ecx, 440		; 000001b8H
  001ce	e8 00 00 00 00	 call	 ?SetTextColor@ioComplexStringPrinter@@QAEXK@Z ; ioComplexStringPrinter::SetTextColor

; 173  : 		m_UnderLinePrinter[0].AddTextPiece( FONT_SIZE_13, STR(6) );

  001d3	6a 00		 push	 0
  001d5	6a 06		 push	 6
  001d7	56		 push	 esi
  001d8	57		 push	 edi
  001d9	ff 15 00 00 00
	00		 call	 DWORD PTR __imp_?GetSingleton@ioStringManager@@SAAAV1@XZ
  001df	8b c8		 mov	 ecx, eax
  001e1	ff 15 00 00 00
	00		 call	 DWORD PTR __imp_?GetString@ioStringManager@@QAEPADPBD0HW4FileNamePrefix@1@@Z
  001e7	f3 0f 10 05 00
	00 00 00	 movss	 xmm0, DWORD PTR __real@3f266666
  001ef	50		 push	 eax
  001f0	8b 45 fc	 mov	 eax, DWORD PTR _this$[ebp]
  001f3	51		 push	 ecx
  001f4	05 b8 01 00 00	 add	 eax, 440		; 000001b8H
  001f9	f3 0f 11 04 24	 movss	 DWORD PTR [esp], xmm0
  001fe	50		 push	 eax
  001ff	e8 00 00 00 00	 call	 ?AddTextPiece@ioComplexStringPrinter@@QAAXMPBDZZ ; ioComplexStringPrinter::AddTextPiece

; 174  : 
; 175  : 		m_UnderLinePrinter[0].SetTextColor( TCT_DEFAULT_DARKGRAY ); 

  00204	8b 4d fc	 mov	 ecx, DWORD PTR _this$[ebp]
  00207	83 c4 0c	 add	 esp, 12			; 0000000cH
  0020a	53		 push	 ebx
  0020b	81 c1 b8 01 00
	00		 add	 ecx, 440		; 000001b8H
  00211	e8 00 00 00 00	 call	 ?SetTextColor@ioComplexStringPrinter@@QAEXK@Z ; ioComplexStringPrinter::SetTextColor

; 176  : 		m_UnderLinePrinter[0].AddTextPiece( FONT_SIZE_13, STR(7) );

  00216	6a 00		 push	 0
  00218	6a 07		 push	 7
  0021a	56		 push	 esi
  0021b	57		 push	 edi
  0021c	ff 15 00 00 00
	00		 call	 DWORD PTR __imp_?GetSingleton@ioStringManager@@SAAAV1@XZ
  00222	8b c8		 mov	 ecx, eax
  00224	ff 15 00 00 00
	00		 call	 DWORD PTR __imp_?GetString@ioStringManager@@QAEPADPBD0HW4FileNamePrefix@1@@Z
  0022a	f3 0f 10 05 00
	00 00 00	 movss	 xmm0, DWORD PTR __real@3f266666
  00232	50		 push	 eax
  00233	8b 45 fc	 mov	 eax, DWORD PTR _this$[ebp]
  00236	51		 push	 ecx
  00237	05 b8 01 00 00	 add	 eax, 440		; 000001b8H
  0023c	f3 0f 11 04 24	 movss	 DWORD PTR [esp], xmm0
  00241	50		 push	 eax
  00242	e8 00 00 00 00	 call	 ?AddTextPiece@ioComplexStringPrinter@@QAAXMPBDZZ ; ioComplexStringPrinter::AddTextPiece

; 177  : 
; 178  : 		m_UnderLinePrinter[1].SetTextColor( TCT_DEFAULT_DARKGRAY ); 

  00247	8b 4d fc	 mov	 ecx, DWORD PTR _this$[ebp]
  0024a	83 c4 0c	 add	 esp, 12			; 0000000cH
  0024d	81 c1 d8 01 00
	00		 add	 ecx, 472		; 000001d8H
  00253	53		 push	 ebx
  00254	89 4d fc	 mov	 DWORD PTR tv300[ebp], ecx
  00257	e8 00 00 00 00	 call	 ?SetTextColor@ioComplexStringPrinter@@QAEXK@Z ; ioComplexStringPrinter::SetTextColor

; 179  : 		m_UnderLinePrinter[1].AddTextPiece( FONT_SIZE_13, STR(8) );

  0025c	6a 00		 push	 0
  0025e	6a 08		 push	 8
$LN12@SetTitleBy:
  00260	56		 push	 esi
  00261	57		 push	 edi
  00262	ff 15 00 00 00
	00		 call	 DWORD PTR __imp_?GetSingleton@ioStringManager@@SAAAV1@XZ
  00268	8b c8		 mov	 ecx, eax
  0026a	ff 15 00 00 00
	00		 call	 DWORD PTR __imp_?GetString@ioStringManager@@QAEPADPBD0HW4FileNamePrefix@1@@Z
  00270	f3 0f 10 05 00
	00 00 00	 movss	 xmm0, DWORD PTR __real@3f266666
  00278	50		 push	 eax
  00279	51		 push	 ecx
  0027a	f3 0f 11 04 24	 movss	 DWORD PTR [esp], xmm0
  0027f	ff 75 fc	 push	 DWORD PTR tv300[ebp]
  00282	e8 00 00 00 00	 call	 ?AddTextPiece@ioComplexStringPrinter@@QAAXMPBDZZ ; ioComplexStringPrinter::AddTextPiece
  00287	83 c4 0c	 add	 esp, 12			; 0000000cH

; 180  : 	}
; 181  : 	else

  0028a	eb 17		 jmp	 SHORT $LN1@SetTitleBy
$LN2@SetTitleBy:

; 182  : 		LOG.PrintTimeAndLog( 0, "%s - is not exist RewardType : %d", m_iRewardType );

  0028c	50		 push	 eax
  0028d	68 00 00 00 00	 push	 OFFSET ??_C@_0CC@DFNLJHJE@?$CFs?5?9?5is?5not?5exist?5RewardType?5?3?5?$CF@
  00292	6a 00		 push	 0
  00294	ff 35 00 00 00
	00		 push	 DWORD PTR __imp_?LOG@@3VCLog@@A
  0029a	ff 15 00 00 00
	00		 call	 DWORD PTR __imp_?PrintTimeAndLog@CLog@@QAAXHPADZZ
  002a0	83 c4 10	 add	 esp, 16			; 00000010H
$LN1@SetTitleBy:
  002a3	5f		 pop	 edi
  002a4	5e		 pop	 esi
  002a5	5b		 pop	 ebx

; 183  : }

  002a6	c9		 leave
  002a7	c3		 ret	 0
?SetTitleByType@GuildPossibleRewardListWnd@@IAEXXZ ENDP	; GuildPossibleRewardListWnd::SetTitleByType
_TEXT	ENDS
PUBLIC	??_7bad_alloc@std@@6B@				; std::bad_alloc::`vftable'
PUBLIC	??0bad_alloc@std@@QAE@PBD@Z			; std::bad_alloc::bad_alloc
PUBLIC	??_R4bad_alloc@std@@6B@				; std::bad_alloc::`RTTI Complete Object Locator'
PUBLIC	??_R0?AVbad_alloc@std@@@8			; std::bad_alloc `RTTI Type Descriptor'
PUBLIC	??_R3bad_alloc@std@@8				; std::bad_alloc::`RTTI Class Hierarchy Descriptor'
PUBLIC	??_R2bad_alloc@std@@8				; std::bad_alloc::`RTTI Base Class Array'
PUBLIC	??_R1A@?0A@EA@bad_alloc@std@@8			; std::bad_alloc::`RTTI Base Class Descriptor at (0,-1,0,64)'
PUBLIC	??_R1A@?0A@EA@exception@std@@8			; std::exception::`RTTI Base Class Descriptor at (0,-1,0,64)'
PUBLIC	??_R0?AVexception@std@@@8			; std::exception `RTTI Type Descriptor'
PUBLIC	??_R3exception@std@@8				; std::exception::`RTTI Class Hierarchy Descriptor'
PUBLIC	??_R2exception@std@@8				; std::exception::`RTTI Base Class Array'
EXTRN	__imp_??0exception@std@@QAE@ABQBD@Z:PROC
EXTRN	??_Ebad_alloc@std@@UAEPAXI@Z:PROC		; std::bad_alloc::`vector deleting destructor'
EXTRN	?what@exception@std@@UBEPBDXZ:PROC		; std::exception::what
;	COMDAT ??_R2exception@std@@8
; File c:\program files (x86)\microsoft visual studio 10.0\vc\include\exception
rdata$r	SEGMENT
??_R2exception@std@@8 DD FLAT:??_R1A@?0A@EA@exception@std@@8 ; std::exception::`RTTI Base Class Array'
rdata$r	ENDS
;	COMDAT ??_R3exception@std@@8
rdata$r	SEGMENT
??_R3exception@std@@8 DD 00H				; std::exception::`RTTI Class Hierarchy Descriptor'
	DD	00H
	DD	01H
	DD	FLAT:??_R2exception@std@@8
rdata$r	ENDS
;	COMDAT ??_R0?AVexception@std@@@8
_DATA	SEGMENT
??_R0?AVexception@std@@@8 DD FLAT:??_7type_info@@6B@	; std::exception `RTTI Type Descriptor'
	DD	00H
	DB	'.?AVexception@std@@', 00H
_DATA	ENDS
;	COMDAT ??_R1A@?0A@EA@exception@std@@8
rdata$r	SEGMENT
??_R1A@?0A@EA@exception@std@@8 DD FLAT:??_R0?AVexception@std@@@8 ; std::exception::`RTTI Base Class Descriptor at (0,-1,0,64)'
	DD	00H
	DD	00H
	DD	0ffffffffH
	DD	00H
	DD	040H
	DD	FLAT:??_R3exception@std@@8
rdata$r	ENDS
;	COMDAT ??_R1A@?0A@EA@bad_alloc@std@@8
rdata$r	SEGMENT
??_R1A@?0A@EA@bad_alloc@std@@8 DD FLAT:??_R0?AVbad_alloc@std@@@8 ; std::bad_alloc::`RTTI Base Class Descriptor at (0,-1,0,64)'
	DD	01H
	DD	00H
	DD	0ffffffffH
	DD	00H
	DD	040H
	DD	FLAT:??_R3bad_alloc@std@@8
rdata$r	ENDS
;	COMDAT ??_R2bad_alloc@std@@8
rdata$r	SEGMENT
??_R2bad_alloc@std@@8 DD FLAT:??_R1A@?0A@EA@bad_alloc@std@@8 ; std::bad_alloc::`RTTI Base Class Array'
	DD	FLAT:??_R1A@?0A@EA@exception@std@@8
rdata$r	ENDS
;	COMDAT ??_R3bad_alloc@std@@8
rdata$r	SEGMENT
??_R3bad_alloc@std@@8 DD 00H				; std::bad_alloc::`RTTI Class Hierarchy Descriptor'
	DD	00H
	DD	02H
	DD	FLAT:??_R2bad_alloc@std@@8
rdata$r	ENDS
;	COMDAT ??_R0?AVbad_alloc@std@@@8
_DATA	SEGMENT
??_R0?AVbad_alloc@std@@@8 DD FLAT:??_7type_info@@6B@	; std::bad_alloc `RTTI Type Descriptor'
	DD	00H
	DB	'.?AVbad_alloc@std@@', 00H
_DATA	ENDS
;	COMDAT ??_R4bad_alloc@std@@6B@
rdata$r	SEGMENT
??_R4bad_alloc@std@@6B@ DD 00H				; std::bad_alloc::`RTTI Complete Object Locator'
	DD	00H
	DD	00H
	DD	FLAT:??_R0?AVbad_alloc@std@@@8
	DD	FLAT:??_R3bad_alloc@std@@8
rdata$r	ENDS
;	COMDAT ??_7bad_alloc@std@@6B@
CONST	SEGMENT
??_7bad_alloc@std@@6B@ DD FLAT:??_R4bad_alloc@std@@6B@	; std::bad_alloc::`vftable'
	DD	FLAT:??_Ebad_alloc@std@@UAEPAXI@Z
	DD	FLAT:?what@exception@std@@UBEPBDXZ
; Function compile flags: /Ogsp
CONST	ENDS
;	COMDAT ??0bad_alloc@std@@QAE@PBD@Z
_TEXT	SEGMENT
__Message$ = 8						; size = 4
??0bad_alloc@std@@QAE@PBD@Z PROC			; std::bad_alloc::bad_alloc, COMDAT
; _this$ = ecx

; 345  : 		{	// construct from message string

  00000	55		 push	 ebp
  00001	8b ec		 mov	 ebp, esp
  00003	56		 push	 esi
  00004	8d 45 08	 lea	 eax, DWORD PTR __Message$[ebp]
  00007	50		 push	 eax
  00008	8b f1		 mov	 esi, ecx
  0000a	ff 15 00 00 00
	00		 call	 DWORD PTR __imp_??0exception@std@@QAE@ABQBD@Z
  00010	c7 06 00 00 00
	00		 mov	 DWORD PTR [esi], OFFSET ??_7bad_alloc@std@@6B@

; 346  : 		}

  00016	8b c6		 mov	 eax, esi
  00018	5e		 pop	 esi
  00019	5d		 pop	 ebp
  0001a	c2 04 00	 ret	 4
??0bad_alloc@std@@QAE@PBD@Z ENDP			; std::bad_alloc::bad_alloc
_TEXT	ENDS
PUBLIC	??1bad_alloc@std@@UAE@XZ			; std::bad_alloc::~bad_alloc
EXTRN	__imp_??1exception@std@@UAE@XZ:PROC
; Function compile flags: /Ogsp
;	COMDAT ??1bad_alloc@std@@UAE@XZ
_TEXT	SEGMENT
??1bad_alloc@std@@UAE@XZ PROC				; std::bad_alloc::~bad_alloc, COMDAT
; _this$ = ecx

; 354  : 		{	// destroy the object

  00000	c7 01 00 00 00
	00		 mov	 DWORD PTR [ecx], OFFSET ??_7bad_alloc@std@@6B@

; 355  : 		}

  00006	ff 25 00 00 00
	00		 jmp	 DWORD PTR __imp_??1exception@std@@UAE@XZ
??1bad_alloc@std@@UAE@XZ ENDP				; std::bad_alloc::~bad_alloc
_TEXT	ENDS
EXTRN	??3@YAXPAX@Z:PROC				; operator delete
; Function compile flags: /Ogsp
;	COMDAT ??_Gbad_alloc@std@@UAEPAXI@Z
_TEXT	SEGMENT
___flags$ = 8						; size = 4
??_Gbad_alloc@std@@UAEPAXI@Z PROC			; std::bad_alloc::`scalar deleting destructor', COMDAT
; _this$ = ecx
  00000	55		 push	 ebp
  00001	8b ec		 mov	 ebp, esp
  00003	56		 push	 esi
  00004	8b f1		 mov	 esi, ecx
  00006	c7 06 00 00 00
	00		 mov	 DWORD PTR [esi], OFFSET ??_7bad_alloc@std@@6B@
  0000c	ff 15 00 00 00
	00		 call	 DWORD PTR __imp_??1exception@std@@UAE@XZ
  00012	f6 45 08 01	 test	 BYTE PTR ___flags$[ebp], 1
  00016	74 07		 je	 SHORT $LN1@scalar
  00018	56		 push	 esi
  00019	e8 00 00 00 00	 call	 ??3@YAXPAX@Z		; operator delete
  0001e	59		 pop	 ecx
$LN1@scalar:
  0001f	8b c6		 mov	 eax, esi
  00021	5e		 pop	 esi
  00022	5d		 pop	 ebp
  00023	c2 04 00	 ret	 4
??_Gbad_alloc@std@@UAEPAXI@Z ENDP			; std::bad_alloc::`scalar deleting destructor'
_TEXT	ENDS
PUBLIC	??2@YAPAXIPAX@Z					; operator new
; Function compile flags: /Ogsp
; File c:\program files (x86)\microsoft visual studio 10.0\vc\include\new
;	COMDAT ??2@YAPAXIPAX@Z
_TEXT	SEGMENT
___formal$ = 8						; size = 4
__Where$ = 12						; size = 4
??2@YAPAXIPAX@Z PROC					; operator new, COMDAT

; 56   : 	{	// construct array with placement at _Where

  00000	55		 push	 ebp
  00001	8b ec		 mov	 ebp, esp

; 57   : 	return (_Where);

  00003	8b 45 0c	 mov	 eax, DWORD PTR __Where$[ebp]

; 58   : 	}

  00006	5d		 pop	 ebp
  00007	c3		 ret	 0
??2@YAPAXIPAX@Z ENDP					; operator new
_TEXT	ENDS
PUBLIC	??3@YAXPAX0@Z					; operator delete
; Function compile flags: /Ogsp
;	COMDAT ??3@YAXPAX0@Z
_TEXT	SEGMENT
___formal$ = 8						; size = 4
___formal$ = 12						; size = 4
??3@YAXPAX0@Z PROC					; operator delete, COMDAT

; 62   : 	}

  00000	c3		 ret	 0
??3@YAXPAX0@Z ENDP					; operator delete
_TEXT	ENDS
PUBLIC	??_7GuildAttendUserBtn@@6B@			; GuildAttendUserBtn::`vftable'
PUBLIC	??1GuildAttendUserBtn@@UAE@XZ			; GuildAttendUserBtn::~GuildAttendUserBtn
PUBLIC	??_R4GuildAttendUserBtn@@6B@			; GuildAttendUserBtn::`RTTI Complete Object Locator'
PUBLIC	??_R0?AVGuildAttendUserBtn@@@8			; GuildAttendUserBtn `RTTI Type Descriptor'
PUBLIC	??_R3GuildAttendUserBtn@@8			; GuildAttendUserBtn::`RTTI Class Hierarchy Descriptor'
PUBLIC	??_R2GuildAttendUserBtn@@8			; GuildAttendUserBtn::`RTTI Base Class Array'
PUBLIC	??_R1A@?0A@EA@GuildAttendUserBtn@@8		; GuildAttendUserBtn::`RTTI Base Class Descriptor at (0,-1,0,64)'
PUBLIC	?AddRenderImage@GuildAttendUserBtn@@MAEXABVioHashString@@PAVioUIRenderImage@@@Z ; GuildAttendUserBtn::AddRenderImage
PUBLIC	?OnRender@GuildAttendUserBtn@@MAEXXZ		; GuildAttendUserBtn::OnRender
EXTRN	__imp_??1ioButton@@UAE@XZ:PROC
EXTRN	?AddRenderFrame@ioButton@@UAEXABVioHashString@@PAVioUIRenderFrame@@@Z:PROC ; ioButton::AddRenderFrame
EXTRN	?ParseExtraInfo@ioButton@@UAEXAAVioXMLElement@@@Z:PROC ; ioButton::ParseExtraInfo
EXTRN	?OnProcess@ioWnd@@MAEXM@Z:PROC			; ioWnd::OnProcess
EXTRN	??_EGuildAttendUserBtn@@UAEPAXI@Z:PROC		; GuildAttendUserBtn::`vector deleting destructor'
EXTRN	?OnDrawNormal@ioButton@@MAEXHH@Z:PROC		; ioButton::OnDrawNormal
EXTRN	?OnDrawOvered@ioButton@@MAEXHH@Z:PROC		; ioButton::OnDrawOvered
EXTRN	?OnDrawPushed@ioButton@@MAEXHH@Z:PROC		; ioButton::OnDrawPushed
EXTRN	?OnDrawDisabled@ioButton@@MAEXHH@Z:PROC		; ioButton::OnDrawDisabled
;	COMDAT ??_R1A@?0A@EA@GuildAttendUserBtn@@8
; File d:\lost saga for developer\youtube\tutorial\source\src\lsclient\gui\guildrewardwnd.cpp
rdata$r	SEGMENT
??_R1A@?0A@EA@GuildAttendUserBtn@@8 DD FLAT:??_R0?AVGuildAttendUserBtn@@@8 ; GuildAttendUserBtn::`RTTI Base Class Descriptor at (0,-1,0,64)'
	DD	02H
	DD	00H
	DD	0ffffffffH
	DD	00H
	DD	040H
	DD	FLAT:??_R3GuildAttendUserBtn@@8
rdata$r	ENDS
;	COMDAT ??_R2GuildAttendUserBtn@@8
rdata$r	SEGMENT
??_R2GuildAttendUserBtn@@8 DD FLAT:??_R1A@?0A@EA@GuildAttendUserBtn@@8 ; GuildAttendUserBtn::`RTTI Base Class Array'
	DD	FLAT:??_R1A@?0A@EA@ioButton@@8
	DD	FLAT:??_R1A@?0A@EA@ioWnd@@8
rdata$r	ENDS
;	COMDAT ??_R3GuildAttendUserBtn@@8
rdata$r	SEGMENT
??_R3GuildAttendUserBtn@@8 DD 00H			; GuildAttendUserBtn::`RTTI Class Hierarchy Descriptor'
	DD	00H
	DD	03H
	DD	FLAT:??_R2GuildAttendUserBtn@@8
rdata$r	ENDS
;	COMDAT ??_R0?AVGuildAttendUserBtn@@@8
_DATA	SEGMENT
??_R0?AVGuildAttendUserBtn@@@8 DD FLAT:??_7type_info@@6B@ ; GuildAttendUserBtn `RTTI Type Descriptor'
	DD	00H
	DB	'.?AVGuildAttendUserBtn@@', 00H
_DATA	ENDS
;	COMDAT ??_R4GuildAttendUserBtn@@6B@
rdata$r	SEGMENT
??_R4GuildAttendUserBtn@@6B@ DD 00H			; GuildAttendUserBtn::`RTTI Complete Object Locator'
	DD	00H
	DD	00H
	DD	FLAT:??_R0?AVGuildAttendUserBtn@@@8
	DD	FLAT:??_R3GuildAttendUserBtn@@8
rdata$r	ENDS
;	COMDAT ??_7GuildAttendUserBtn@@6B@
CONST	SEGMENT
??_7GuildAttendUserBtn@@6B@ DD FLAT:??_R4GuildAttendUserBtn@@6B@ ; GuildAttendUserBtn::`vftable'
	DD	FLAT:?AddRenderFrame@ioButton@@UAEXABVioHashString@@PAVioUIRenderFrame@@@Z
	DD	FLAT:?AddRenderImage@GuildAttendUserBtn@@MAEXABVioHashString@@PAVioUIRenderImage@@@Z
	DD	FLAT:?AddTooltipHelp@ioWnd@@UAEXABVioHashString@@00@Z
	DD	FLAT:?ParseExtraInfo@ioButton@@UAEXAAVioXMLElement@@@Z
	DD	FLAT:?AddNamedRenderImage@ioWnd@@UAEXABVioHashString@@PAVioUIRenderImage@@@Z
	DD	FLAT:?RemoveNamedRenderImage@ioWnd@@UAEXABVioHashString@@@Z
	DD	FLAT:?GetNamedRenderImage@ioWnd@@UBEPAVioUIRenderImage@@ABVioHashString@@@Z
	DD	FLAT:?SetWindowAlpha@ioButton@@UAEXH@Z
	DD	FLAT:?SetActive@ioWnd@@UAEXXZ
	DD	FLAT:?SetInActive@ioWnd@@UAEXXZ
	DD	FLAT:?ClearElementImageList@ioWnd@@UAEXXZ
	DD	FLAT:?SetSize@ioWnd@@UAEXHH@Z
	DD	FLAT:?SetPositionToDefault@ioWnd@@UAEXHH_N0@Z
	DD	FLAT:?IsNeedProcess@ioWnd@@UBE_NXZ
	DD	FLAT:?IsCanMouseReaction@ioWnd@@UBE_NXZ
	DD	FLAT:?AddChild@ioWnd@@UAEXPAV1@@Z
	DD	FLAT:?DeleteChild@ioWnd@@UAEXK@Z
	DD	FLAT:?DeleteAllChild@ioWnd@@UAEXXZ
	DD	FLAT:?OnRenderShowAndHide@ioWnd@@MAE_NXZ
	DD	FLAT:?OnRenderShowAndHideByDefault@ioWnd@@MAE_NK@Z
	DD	FLAT:?OnRenderShowAndHideByTop@ioWnd@@MAE_NK@Z
	DD	FLAT:?OnRenderShowAndHideByDown@ioWnd@@MAE_NK@Z
	DD	FLAT:?OnRender@GuildAttendUserBtn@@MAEXXZ
	DD	FLAT:?OnRenderAfterChild@ioWnd@@MAEXXZ
	DD	FLAT:?OnProcess@ioWnd@@MAEXM@Z
	DD	FLAT:?OnMouseProcess@ioWnd@@MAEXABVioMouse@@@Z
	DD	FLAT:?CheckFrameReSize@ioButton@@MAEXHHHH@Z
	DD	FLAT:?RenderImageList@ioWnd@@MAEXHHW4UIRenderType@@@Z
	DD	FLAT:?iwm_create@ioWnd@@UAEXXZ
	DD	FLAT:?iwm_destroy@ioWnd@@UAEXXZ
	DD	FLAT:?iwm_lbuttondown@ioButton@@UAEXABVioMouse@@@Z
	DD	FLAT:?iwm_lbuttonup@ioButton@@UAEXABVioMouse@@@Z
	DD	FLAT:?iwm_lbuttonDBLCLK@ioButton@@UAEXABVioMouse@@@Z
	DD	FLAT:?iwm_rbuttondown@ioButton@@UAEXABVioMouse@@@Z
	DD	FLAT:?iwm_rbuttonup@ioButton@@UAEXABVioMouse@@@Z
	DD	FLAT:?iwm_command@ioWnd@@UAEXPAV1@HK@Z
	DD	FLAT:?iwm_mouseover@ioButton@@UAEXABVioMouse@@@Z
	DD	FLAT:?iwm_mousemove@ioWnd@@UAEXABVioMouse@@@Z
	DD	FLAT:?iwm_mouseleave@ioWnd@@UAEXABVioMouse@@@Z
	DD	FLAT:?iwm_vscroll@ioWnd@@UAEXKH@Z
	DD	FLAT:?iwm_wheel@ioWnd@@UAEXH@Z
	DD	FLAT:?iwm_show@ioWnd@@UAEXXZ
	DD	FLAT:?iwm_hide@ioWnd@@UAEXXZ
	DD	FLAT:?iwm_esc@ioWnd@@UAE_NXZ
	DD	FLAT:?iwm_spacebar@ioWnd@@UAE_NXZ
	DD	FLAT:?iwm_gototop@ioWnd@@UAEXXZ
	DD	FLAT:?iwm_dragenter@ioWnd@@UAE?AW4IWDropEffect@@PAVioDragItem@@ABVioMouse@@@Z
	DD	FLAT:?iwm_dragover@ioWnd@@UAE?AW4IWDropEffect@@PAVioDragItem@@ABVioMouse@@@Z
	DD	FLAT:?iwm_dragleave@ioWnd@@UAEXXZ
	DD	FLAT:?iwm_dropitem@ioWnd@@UAE_NPAVioDragItem@@ABVioMouse@@PAV1@@Z
	DD	FLAT:?iwm_dropdone@ioWnd@@UAEXPAVioDragItem@@PAV1@_N@Z
	DD	FLAT:?IsEXType@ioWnd@@UBE_NXZ
	DD	FLAT:?GetWndType@ioButton@@UBEKXZ
	DD	FLAT:?RenderWnd@ioWnd@@UAEXXZ
	DD	FLAT:?SetIDEX@ioWnd@@UAEXAAK_N@Z
	DD	FLAT:?ParseXML@ioWnd@@UAEXAAVioXMLElement@@@Z
	DD	FLAT:?GetHeaderFileName@ioButton@@UAEPBDXZ
	DD	FLAT:?GetTemplateName@ioButton@@UAEPBDXZ
	DD	FLAT:?GetDefClassName@ioButton@@UBEPBDXZ
	DD	FLAT:?_Clone@ioButton@@UAEPAVioWnd@@XZ
	DD	FLAT:?Copy@ioButton@@UAEXPAVioWnd@@@Z
	DD	FLAT:?Save@ioWnd@@UAE_NAAVioXMLElement@@@Z
	DD	FLAT:?SetSaveData@ioButton@@UAEXAAVioXMLElement@@@Z
	DD	FLAT:?SetPosX@ioWnd@@UAEXH@Z
	DD	FLAT:?SetPosY@ioWnd@@UAEXH@Z
	DD	FLAT:?SetWidth@ioWnd@@UAEXH@Z
	DD	FLAT:?SetHeight@ioWnd@@UAEXH@Z
	DD	FLAT:?GetNumFixedRenderFrame@ioButton@@UBEHXZ
	DD	FLAT:?GetFixedRenderFrameType@ioButton@@UAEPBDH@Z
	DD	FLAT:?GetRenderFrame@ioButton@@UAEPAPAVioUIRenderElement@@PBD@Z
	DD	FLAT:?GetNumFixedRenderImage@ioButton@@UBEHXZ
	DD	FLAT:?GetFixedRenderImageType@ioButton@@UAEPBDH@Z
	DD	FLAT:?GetRenderImage@ioButton@@UAEPAPAVioUIRenderElement@@PBD@Z
	DD	FLAT:?AddEffect@ioWnd@@UAEXABVioHashString@@PAVioUI3DEffectRender@@@Z
	DD	FLAT:?GetEffect@ioWnd@@UAEPAVioUI3DEffectRender@@VioHashString@@@Z
	DD	FLAT:??_EGuildAttendUserBtn@@UAEPAXI@Z
	DD	FLAT:?OnDrawNormal@ioButton@@MAEXHH@Z
	DD	FLAT:?OnDrawOvered@ioButton@@MAEXHH@Z
	DD	FLAT:?OnDrawOveredAdd@ioButton@@MAEXHH@Z
	DD	FLAT:?OnDrawPushed@ioButton@@MAEXHH@Z
	DD	FLAT:?OnDrawDisabled@ioButton@@MAEXHH@Z
	DD	FLAT:?OnDrawExDisabledNormal@ioButton@@MAEXHH@Z
	DD	FLAT:?OnDrawExDisabledOvered@ioButton@@MAEXHH@Z
	DD	FLAT:?OnDrawExDisabledPushed@ioButton@@MAEXHH@Z
	DD	FLAT:?OnDrawBack@ioButton@@MAEXHH@Z
	DD	FLAT:?OnDrawNormalList@ioButton@@MAEXHH@Z
	DD	FLAT:?OnDrawDisableList@ioButton@@MAEXHH@Z
CONST	ENDS
;	COMDAT xdata$x
xdata$x	SEGMENT
__unwindtable$??1GuildAttendUserBtn@@UAE@XZ DD 0ffffffffH
	DD	FLAT:__unwindfunclet$??1GuildAttendUserBtn@@UAE@XZ$0
	DD	00H
	DD	FLAT:__unwindfunclet$??1GuildAttendUserBtn@@UAE@XZ$1
__ehfuncinfo$??1GuildAttendUserBtn@@UAE@XZ DD 019930522H
	DD	02H
	DD	FLAT:__unwindtable$??1GuildAttendUserBtn@@UAE@XZ
	DD	2 DUP(00H)
	DD	2 DUP(00H)
	DD	00H
	DD	01H
; Function compile flags: /Ogsp
xdata$x	ENDS
;	COMDAT ??1GuildAttendUserBtn@@UAE@XZ
_TEXT	SEGMENT
_this$ = -16						; size = 4
__$EHRec$ = -12						; size = 12
??1GuildAttendUserBtn@@UAE@XZ PROC			; GuildAttendUserBtn::~GuildAttendUserBtn, COMDAT
; _this$ = ecx

; 401  : {

  00000	6a 04		 push	 4
  00002	b8 00 00 00 00	 mov	 eax, __ehhandler$??1GuildAttendUserBtn@@UAE@XZ
  00007	e8 00 00 00 00	 call	 __EH_prolog3
  0000c	8b f1		 mov	 esi, ecx
  0000e	89 75 f0	 mov	 DWORD PTR _this$[ebp], esi
  00011	c7 06 00 00 00
	00		 mov	 DWORD PTR [esi], OFFSET ??_7GuildAttendUserBtn@@6B@

; 402  : 	SAFEDELETE( m_pGrayAttendance );

  00017	8b 8e 18 02 00
	00		 mov	 ecx, DWORD PTR [esi+536]
  0001d	33 db		 xor	 ebx, ebx
  0001f	43		 inc	 ebx
  00020	89 5d fc	 mov	 DWORD PTR __$EHRec$[ebp+8], ebx
  00023	85 c9		 test	 ecx, ecx
  00025	74 0d		 je	 SHORT $LN3@GuildAtten
  00027	8b 01		 mov	 eax, DWORD PTR [ecx]
  00029	53		 push	 ebx
  0002a	ff 50 40	 call	 DWORD PTR [eax+64]
  0002d	83 a6 18 02 00
	00 00		 and	 DWORD PTR [esi+536], 0
$LN3@GuildAtten:

; 403  : 	SAFEDELETE( m_pRedAttendance );

  00034	8b 8e 1c 02 00
	00		 mov	 ecx, DWORD PTR [esi+540]
  0003a	85 c9		 test	 ecx, ecx
  0003c	74 0d		 je	 SHORT $LN2@GuildAtten
  0003e	8b 01		 mov	 eax, DWORD PTR [ecx]
  00040	53		 push	 ebx
  00041	ff 50 40	 call	 DWORD PTR [eax+64]
  00044	83 a6 1c 02 00
	00 00		 and	 DWORD PTR [esi+540], 0
$LN2@GuildAtten:

; 404  : 	SAFEDELETE( m_pGreenAttendance );

  0004b	8b 8e 20 02 00
	00		 mov	 ecx, DWORD PTR [esi+544]
  00051	85 c9		 test	 ecx, ecx
  00053	74 0d		 je	 SHORT $LN1@GuildAtten
  00055	8b 01		 mov	 eax, DWORD PTR [ecx]
  00057	53		 push	 ebx
  00058	ff 50 40	 call	 DWORD PTR [eax+64]
  0005b	83 a6 20 02 00
	00 00		 and	 DWORD PTR [esi+544], 0
$LN1@GuildAtten:

; 405  : }

  00062	8d 8e 00 02 00
	00		 lea	 ecx, DWORD PTR [esi+512]
  00068	c6 45 fc 00	 mov	 BYTE PTR __$EHRec$[ebp+8], 0
  0006c	ff 15 00 00 00
	00		 call	 DWORD PTR __imp_??1ioHashString@@QAE@XZ
  00072	83 4d fc ff	 or	 DWORD PTR __$EHRec$[ebp+8], -1
  00076	8b ce		 mov	 ecx, esi
  00078	ff 15 00 00 00
	00		 call	 DWORD PTR __imp_??1ioButton@@UAE@XZ
  0007e	e8 00 00 00 00	 call	 __EH_epilog3
  00083	c3		 ret	 0
_TEXT	ENDS
;	COMDAT text$x
text$x	SEGMENT
__unwindfunclet$??1GuildAttendUserBtn@@UAE@XZ$0:
  00000	8b 4d f0	 mov	 ecx, DWORD PTR _this$[ebp]
  00003	ff 25 00 00 00
	00		 jmp	 DWORD PTR __imp_??1ioButton@@UAE@XZ
__unwindfunclet$??1GuildAttendUserBtn@@UAE@XZ$1:
  00009	8b 4d f0	 mov	 ecx, DWORD PTR _this$[ebp]
  0000c	81 c1 00 02 00
	00		 add	 ecx, 512		; 00000200H
  00012	ff 25 00 00 00
	00		 jmp	 DWORD PTR __imp_??1ioHashString@@QAE@XZ
__ehhandler$??1GuildAttendUserBtn@@UAE@XZ:
  00018	8b 54 24 08	 mov	 edx, DWORD PTR [esp+8]
  0001c	8d 42 0c	 lea	 eax, DWORD PTR [edx+12]
  0001f	8b 4a ec	 mov	 ecx, DWORD PTR [edx-20]
  00022	33 c8		 xor	 ecx, eax
  00024	e8 00 00 00 00	 call	 @__security_check_cookie@4
  00029	b8 00 00 00 00	 mov	 eax, OFFSET __ehfuncinfo$??1GuildAttendUserBtn@@UAE@XZ
  0002e	e9 00 00 00 00	 jmp	 ___CxxFrameHandler3
text$x	ENDS
??1GuildAttendUserBtn@@UAE@XZ ENDP			; GuildAttendUserBtn::~GuildAttendUserBtn
PUBLIC	?ClearData@GuildAttendUserBtn@@IAEXXZ		; GuildAttendUserBtn::ClearData
; Function compile flags: /Ogsp
;	COMDAT ?ClearData@GuildAttendUserBtn@@IAEXXZ
_TEXT	SEGMENT
?ClearData@GuildAttendUserBtn@@IAEXXZ PROC		; GuildAttendUserBtn::ClearData, COMDAT
; _this$ = ecx

; 409  : 	m_dwBtnArray	= 0;

  00000	33 c0		 xor	 eax, eax
  00002	89 81 fc 01 00
	00		 mov	 DWORD PTR [ecx+508], eax

; 410  : 	m_bTodayAttend = false;

  00008	66 89 81 10 02
	00 00		 mov	 WORD PTR [ecx+528], ax

; 411  : 	m_bYesterdayAttend = false;
; 412  : 	m_iUserLevel = 0;

  0000f	89 81 14 02 00
	00		 mov	 DWORD PTR [ecx+532], eax

; 413  : }

  00015	c3		 ret	 0
?ClearData@GuildAttendUserBtn@@IAEXXZ ENDP		; GuildAttendUserBtn::ClearData
_TEXT	ENDS
PUBLIC	?MemberInfo@GuildAttendUserBtn@@QAEXHABVioHashString@@HAA_N1@Z ; GuildAttendUserBtn::MemberInfo
EXTRN	__imp_??4ioHashString@@QAEAAV0@ABV0@@Z:PROC
; Function compile flags: /Ogsp
;	COMDAT ?MemberInfo@GuildAttendUserBtn@@QAEXHABVioHashString@@HAA_N1@Z
_TEXT	SEGMENT
_iListArray$ = 8					; size = 4
_szUserID$ = 12						; size = 4
_iUserLevel$ = 16					; size = 4
_bTodayAttend$ = 20					; size = 4
_YesterdaybAttend$ = 24					; size = 4
?MemberInfo@GuildAttendUserBtn@@QAEXHABVioHashString@@HAA_N1@Z PROC ; GuildAttendUserBtn::MemberInfo, COMDAT
; _this$ = ecx

; 437  : {

  00000	55		 push	 ebp
  00001	8b ec		 mov	 ebp, esp
  00003	56		 push	 esi

; 438  : 	ClearData();
; 439  : 	m_szUserID      = szUserID;

  00004	ff 75 0c	 push	 DWORD PTR _szUserID$[ebp]
  00007	8b f1		 mov	 esi, ecx
  00009	33 c0		 xor	 eax, eax
  0000b	8d 8e 00 02 00
	00		 lea	 ecx, DWORD PTR [esi+512]
  00011	89 86 fc 01 00
	00		 mov	 DWORD PTR [esi+508], eax
  00017	66 89 86 10 02
	00 00		 mov	 WORD PTR [esi+528], ax
  0001e	89 86 14 02 00
	00		 mov	 DWORD PTR [esi+532], eax
  00024	ff 15 00 00 00
	00		 call	 DWORD PTR __imp_??4ioHashString@@QAEAAV0@ABV0@@Z

; 440  : 	m_bTodayAttend = bTodayAttend;

  0002a	8b 45 14	 mov	 eax, DWORD PTR _bTodayAttend$[ebp]
  0002d	8a 00		 mov	 al, BYTE PTR [eax]
  0002f	88 86 10 02 00
	00		 mov	 BYTE PTR [esi+528], al

; 441  : 	m_bYesterdayAttend = YesterdaybAttend;

  00035	8b 45 18	 mov	 eax, DWORD PTR _YesterdaybAttend$[ebp]
  00038	8a 00		 mov	 al, BYTE PTR [eax]
  0003a	88 86 11 02 00
	00		 mov	 BYTE PTR [esi+529], al

; 442  : 	m_iUserLevel	= iUserLevel;

  00040	8b 45 10	 mov	 eax, DWORD PTR _iUserLevel$[ebp]
  00043	89 86 14 02 00
	00		 mov	 DWORD PTR [esi+532], eax

; 443  : 	m_dwBtnArray    = iListArray + 1;

  00049	8b 45 08	 mov	 eax, DWORD PTR _iListArray$[ebp]
  0004c	40		 inc	 eax
  0004d	89 86 fc 01 00
	00		 mov	 DWORD PTR [esi+508], eax

; 444  : 	SetActive();

  00053	8b 06		 mov	 eax, DWORD PTR [esi]
  00055	8b ce		 mov	 ecx, esi
  00057	ff 50 20	 call	 DWORD PTR [eax+32]
  0005a	5e		 pop	 esi

; 445  : }

  0005b	5d		 pop	 ebp
  0005c	c2 14 00	 ret	 20			; 00000014H
?MemberInfo@GuildAttendUserBtn@@QAEXHABVioHashString@@HAA_N1@Z ENDP ; GuildAttendUserBtn::MemberInfo
_TEXT	ENDS
PUBLIC	??_C@_0BN@OABLCPKC@GuildAttendUserBtn?3?3OnRender?$AA@ ; `string'
PUBLIC	__real@3f19999a
PUBLIC	__real@42b40000
EXTRN	__imp_?PrintText@ioFontManager@@QAAXMMMPBDZZ:PROC
EXTRN	__imp_?PrintTextWidthCut@ioFontManager@@QAAXMMMMPBDZZ:PROC
EXTRN	__imp_?SetTextColor@ioFontManager@@QAEXK@Z:PROC
EXTRN	__imp_?SetAlignType@ioFontManager@@QAEXW4TextAlignType@@@Z:PROC
EXTRN	__imp_?SetTextStyle@ioFontManager@@QAEXW4TextStyle@@@Z:PROC
EXTRN	__imp_?SetBkColor@ioFontManager@@QAEXHHH@Z:PROC
EXTRN	__imp_?GetSingleton@ioFontManager@@SAAAV1@XZ:PROC
EXTRN	?RenderGrade@ioMyLevelMgr@@QAEXABVioHashString@@HHKW4TeamType@@W4UIRenderType@@K@Z:PROC ; ioMyLevelMgr::RenderGrade
EXTRN	?GetSingleton@ioMyLevelMgr@@SAAAV1@XZ:PROC	; ioMyLevelMgr::GetSingleton
EXTRN	__imp_?GetDerivedPosY@ioWnd@@QBEHXZ:PROC
EXTRN	__imp_?GetDerivedPosX@ioWnd@@QBEHXZ:PROC
EXTRN	__imp_?HasWndStyle@ioWnd@@QBE_NK@Z:PROC
EXTRN	__imp_?OnRender@ioButton@@MAEXXZ:PROC
;	COMDAT ??_C@_0BN@OABLCPKC@GuildAttendUserBtn?3?3OnRender?$AA@
CONST	SEGMENT
??_C@_0BN@OABLCPKC@GuildAttendUserBtn?3?3OnRender?$AA@ DB 'GuildAttendUse'
	DB	'rBtn::OnRender', 00H			; `string'
CONST	ENDS
;	COMDAT __real@3f19999a
CONST	SEGMENT
__real@3f19999a DD 03f19999ar			; 0.6
CONST	ENDS
;	COMDAT __real@42b40000
CONST	SEGMENT
__real@42b40000 DD 042b40000r			; 90
; Function compile flags: /Ogsp
CONST	ENDS
;	COMDAT ?OnRender@GuildAttendUserBtn@@MAEXXZ
_TEXT	SEGMENT
_this$ = -12						; size = 4
tv328 = -8						; size = 4
_iYPos$510299 = -4					; size = 4
?OnRender@GuildAttendUserBtn@@MAEXXZ PROC		; GuildAttendUserBtn::OnRender, COMDAT
; _this$ = ecx

; 448  : {

  00000	55		 push	 ebp
  00001	8b ec		 mov	 ebp, esp
  00003	83 ec 0c	 sub	 esp, 12			; 0000000cH
  00006	56		 push	 esi
  00007	8b f1		 mov	 esi, ecx
  00009	89 75 f4	 mov	 DWORD PTR _this$[ebp], esi

; 449  : 	ioButton::OnRender();

  0000c	ff 15 00 00 00
	00		 call	 DWORD PTR __imp_?OnRender@ioButton@@MAEXXZ

; 450  : 
; 451  : 	if( !HasWndStyle( IWS_INACTIVE ) )

  00012	6a 02		 push	 2
  00014	8b ce		 mov	 ecx, esi
  00016	ff 15 00 00 00
	00		 call	 DWORD PTR __imp_?HasWndStyle@ioWnd@@QBE_NK@Z
  0001c	84 c0		 test	 al, al
  0001e	0f 85 2e 02 00
	00		 jne	 $LN1@OnRender

; 452  : 	{
; 453  : 		int iXPos, iYPos;
; 454  : 		iXPos = GetDerivedPosX();

  00024	53		 push	 ebx
  00025	57		 push	 edi
  00026	8b ce		 mov	 ecx, esi
  00028	ff 15 00 00 00
	00		 call	 DWORD PTR __imp_?GetDerivedPosX@ioWnd@@QBEHXZ

; 455  : 		iYPos = GetDerivedPosY();

  0002e	8b ce		 mov	 ecx, esi
  00030	8b f8		 mov	 edi, eax
  00032	ff 15 00 00 00
	00		 call	 DWORD PTR __imp_?GetDerivedPosY@ioWnd@@QBEHXZ

; 456  : 
; 457  : 		enum
; 458  : 		{
; 459  : 			ID_X			= 23,
; 460  : 			YESTERDAY_X		= 134,
; 461  : 			TODAY_X			= 181,
; 462  : 			TEXT_Y			= 3,
; 463  : 			YESTER_ICON_X	= 118,
; 464  : 			TODAY_ICON_X	= 165,
; 465  : 
; 466  : 		};
; 467  : 
; 468  : 		// 
; 469  : 		g_LevelMgr.RenderGrade( m_szUserID, iXPos + 4, iYPos + 2, m_iUserLevel, TEAM_PRIVATE_1 );

  00038	6a ff		 push	 -1
  0003a	33 db		 xor	 ebx, ebx
  0003c	53		 push	 ebx
  0003d	6a 03		 push	 3
  0003f	ff b6 14 02 00
	00		 push	 DWORD PTR [esi+532]
  00045	89 45 fc	 mov	 DWORD PTR _iYPos$510299[ebp], eax
  00048	83 c0 02	 add	 eax, 2
  0004b	50		 push	 eax
  0004c	8d 47 04	 lea	 eax, DWORD PTR [edi+4]
  0004f	8d 8e 00 02 00
	00		 lea	 ecx, DWORD PTR [esi+512]
  00055	50		 push	 eax
  00056	51		 push	 ecx
  00057	e8 00 00 00 00	 call	 ?GetSingleton@ioMyLevelMgr@@SAAAV1@XZ ; ioMyLevelMgr::GetSingleton
  0005c	8b c8		 mov	 ecx, eax
  0005e	e8 00 00 00 00	 call	 ?RenderGrade@ioMyLevelMgr@@QAEXABVioHashString@@HHKW4TeamType@@W4UIRenderType@@K@Z ; ioMyLevelMgr::RenderGrade

; 470  : 		
; 471  : 		g_FontMgr.SetBkColor( 0, 0, 0 );

  00063	8b 35 00 00 00
	00		 mov	 esi, DWORD PTR __imp_?GetSingleton@ioFontManager@@SAAAV1@XZ
  00069	53		 push	 ebx
  0006a	53		 push	 ebx
  0006b	53		 push	 ebx
  0006c	ff d6		 call	 esi
  0006e	8b c8		 mov	 ecx, eax
  00070	ff 15 00 00 00
	00		 call	 DWORD PTR __imp_?SetBkColor@ioFontManager@@QAEXHHH@Z

; 472  : 		g_FontMgr.SetTextStyle( TS_NORMAL );

  00076	53		 push	 ebx
  00077	ff d6		 call	 esi
  00079	8b c8		 mov	 ecx, eax
  0007b	ff 15 00 00 00
	00		 call	 DWORD PTR __imp_?SetTextStyle@ioFontManager@@QAEXW4TextStyle@@@Z

; 473  : 		g_FontMgr.SetAlignType( TAT_LEFT );

  00081	53		 push	 ebx
  00082	ff d6		 call	 esi
  00084	8b c8		 mov	 ecx, eax
  00086	ff 15 00 00 00
	00		 call	 DWORD PTR __imp_?SetAlignType@ioFontManager@@QAEXW4TextAlignType@@@Z

; 474  : 		g_FontMgr.SetTextColor( TCT_DEFAULT_DARKGRAY );

  0008c	68 3a 3a 3a ff	 push	 -12961222		; ff3a3a3aH
  00091	ff d6		 call	 esi
  00093	8b c8		 mov	 ecx, eax
  00095	ff 15 00 00 00
	00		 call	 DWORD PTR __imp_?SetTextColor@ioFontManager@@QAEXK@Z

; 475  : 		//  
; 476  : 		g_FontMgr.PrintTextWidthCut( iXPos + ID_X, iYPos + TEXT_Y, FONT_SIZE_12, 90.0f, m_szUserID.c_str() );

  0009b	8b 45 fc	 mov	 eax, DWORD PTR _iYPos$510299[ebp]
  0009e	8b 4d f4	 mov	 ecx, DWORD PTR _this$[ebp]
  000a1	83 c0 03	 add	 eax, 3
  000a4	0f 57 c0	 xorps	 xmm0, xmm0
  000a7	f3 0f 2a c0	 cvtsi2ss xmm0, eax
  000ab	81 c1 00 02 00
	00		 add	 ecx, 512		; 00000200H
  000b1	f3 0f 11 45 f8	 movss	 DWORD PTR tv328[ebp], xmm0
  000b6	ff 15 00 00 00
	00		 call	 DWORD PTR __imp_?c_str@ioHashString@@QBEPBDXZ
  000bc	f3 0f 10 05 00
	00 00 00	 movss	 xmm0, DWORD PTR __real@42b40000
  000c4	50		 push	 eax
  000c5	83 ec 10	 sub	 esp, 16			; 00000010H
  000c8	f3 0f 11 44 24
	0c		 movss	 DWORD PTR [esp+12], xmm0
  000ce	f3 0f 10 05 00
	00 00 00	 movss	 xmm0, DWORD PTR __real@3f19999a
  000d6	f3 0f 11 44 24
	08		 movss	 DWORD PTR [esp+8], xmm0
  000dc	f3 0f 10 45 f8	 movss	 xmm0, DWORD PTR tv328[ebp]
  000e1	f3 0f 11 44 24
	04		 movss	 DWORD PTR [esp+4], xmm0
  000e7	8d 47 17	 lea	 eax, DWORD PTR [edi+23]
  000ea	0f 57 c0	 xorps	 xmm0, xmm0
  000ed	f3 0f 2a c0	 cvtsi2ss xmm0, eax
  000f1	f3 0f 11 04 24	 movss	 DWORD PTR [esp], xmm0
  000f6	ff d6		 call	 esi
  000f8	50		 push	 eax
  000f9	ff 15 00 00 00
	00		 call	 DWORD PTR __imp_?PrintTextWidthCut@ioFontManager@@QAAXMMMMPBDZZ
  000ff	83 c4 18	 add	 esp, 24			; 00000018H

; 477  : 		//Text
; 478  : 		g_FontMgr.PrintText( iXPos + YESTERDAY_X, iYPos + TEXT_Y, FONT_SIZE_12, STR(1));

  00102	53		 push	 ebx
  00103	6a 01		 push	 1
  00105	68 00 00 00 00	 push	 OFFSET ??_C@_00CNPNBAHC@?$AA@
  0010a	68 00 00 00 00	 push	 OFFSET ??_C@_0BN@OABLCPKC@GuildAttendUserBtn?3?3OnRender?$AA@
  0010f	ff 15 00 00 00
	00		 call	 DWORD PTR __imp_?GetSingleton@ioStringManager@@SAAAV1@XZ
  00115	8b c8		 mov	 ecx, eax
  00117	ff 15 00 00 00
	00		 call	 DWORD PTR __imp_?GetString@ioStringManager@@QAEPADPBD0HW4FileNamePrefix@1@@Z
  0011d	f3 0f 10 05 00
	00 00 00	 movss	 xmm0, DWORD PTR __real@3f19999a
  00125	50		 push	 eax
  00126	83 ec 0c	 sub	 esp, 12			; 0000000cH
  00129	f3 0f 11 44 24
	08		 movss	 DWORD PTR [esp+8], xmm0
  0012f	f3 0f 10 45 f8	 movss	 xmm0, DWORD PTR tv328[ebp]
  00134	f3 0f 11 44 24
	04		 movss	 DWORD PTR [esp+4], xmm0
  0013a	8d 87 86 00 00
	00		 lea	 eax, DWORD PTR [edi+134]
  00140	0f 57 c0	 xorps	 xmm0, xmm0
  00143	f3 0f 2a c0	 cvtsi2ss xmm0, eax
  00147	f3 0f 11 04 24	 movss	 DWORD PTR [esp], xmm0
  0014c	ff d6		 call	 esi
  0014e	50		 push	 eax
  0014f	ff 15 00 00 00
	00		 call	 DWORD PTR __imp_?PrintText@ioFontManager@@QAAXMMMPBDZZ
  00155	83 c4 14	 add	 esp, 20			; 00000014H

; 479  : 		g_FontMgr.PrintText( iXPos + TODAY_X, iYPos + TEXT_Y, FONT_SIZE_12, STR(2));

  00158	53		 push	 ebx
  00159	6a 02		 push	 2
  0015b	68 00 00 00 00	 push	 OFFSET ??_C@_00CNPNBAHC@?$AA@
  00160	68 00 00 00 00	 push	 OFFSET ??_C@_0BN@OABLCPKC@GuildAttendUserBtn?3?3OnRender?$AA@
  00165	ff 15 00 00 00
	00		 call	 DWORD PTR __imp_?GetSingleton@ioStringManager@@SAAAV1@XZ
  0016b	8b c8		 mov	 ecx, eax
  0016d	ff 15 00 00 00
	00		 call	 DWORD PTR __imp_?GetString@ioStringManager@@QAEPADPBD0HW4FileNamePrefix@1@@Z
  00173	f3 0f 10 05 00
	00 00 00	 movss	 xmm0, DWORD PTR __real@3f19999a
  0017b	50		 push	 eax
  0017c	83 ec 0c	 sub	 esp, 12			; 0000000cH
  0017f	f3 0f 11 44 24
	08		 movss	 DWORD PTR [esp+8], xmm0
  00185	f3 0f 10 45 f8	 movss	 xmm0, DWORD PTR tv328[ebp]
  0018a	f3 0f 11 44 24
	04		 movss	 DWORD PTR [esp+4], xmm0
  00190	8d 87 b5 00 00
	00		 lea	 eax, DWORD PTR [edi+181]
  00196	0f 57 c0	 xorps	 xmm0, xmm0
  00199	f3 0f 2a c0	 cvtsi2ss xmm0, eax
  0019d	f3 0f 11 04 24	 movss	 DWORD PTR [esp], xmm0
  001a2	ff d6		 call	 esi
  001a4	50		 push	 eax
  001a5	ff 15 00 00 00
	00		 call	 DWORD PTR __imp_?PrintText@ioFontManager@@QAAXMMMPBDZZ

; 480  : 
; 481  : 		//
; 482  : 		//  
; 483  : 		if ( m_bYesterdayAttend )

  001ab	8b 75 f4	 mov	 esi, DWORD PTR _this$[ebp]
  001ae	83 c4 14	 add	 esp, 20			; 00000014H
  001b1	38 9e 11 02 00
	00		 cmp	 BYTE PTR [esi+529], bl
  001b7	74 10		 je	 SHORT $LN8@OnRender

; 484  : 		{
; 485  : 			if ( m_pGreenAttendance )

  001b9	39 9e 20 02 00
	00		 cmp	 DWORD PTR [esi+544], ebx
  001bf	74 3e		 je	 SHORT $LN12@OnRender

; 486  : 				m_pGreenAttendance->Render( iXPos + YESTER_ICON_X, iYPos, UI_RENDER_NORMAL, TFO_BILINEAR );

  001c1	8b 8e 20 02 00
	00		 mov	 ecx, DWORD PTR [esi+544]

; 487  : 		}
; 488  : 		else

  001c7	eb 0e		 jmp	 SHORT $LN15@OnRender
$LN8@OnRender:

; 489  : 		{
; 490  : 			if ( m_pRedAttendance )

  001c9	39 9e 1c 02 00
	00		 cmp	 DWORD PTR [esi+540], ebx
  001cf	74 2e		 je	 SHORT $LN12@OnRender

; 491  : 				m_pRedAttendance->Render( iXPos + YESTER_ICON_X, iYPos, UI_RENDER_NORMAL, TFO_BILINEAR );

  001d1	8b 8e 1c 02 00
	00		 mov	 ecx, DWORD PTR [esi+540]
$LN15@OnRender:
  001d7	66 0f 6e 45 fc	 movd	 xmm0, DWORD PTR _iYPos$510299[ebp]
  001dc	8b 01		 mov	 eax, DWORD PTR [ecx]
  001de	53		 push	 ebx
  001df	53		 push	 ebx
  001e0	6a 01		 push	 1
  001e2	53		 push	 ebx
  001e3	51		 push	 ecx
  001e4	51		 push	 ecx
  001e5	0f 5b c0	 cvtdq2ps xmm0, xmm0
  001e8	f3 0f 11 44 24
	04		 movss	 DWORD PTR [esp+4], xmm0
  001ee	8d 57 76	 lea	 edx, DWORD PTR [edi+118]
  001f1	0f 57 c0	 xorps	 xmm0, xmm0
  001f4	f3 0f 2a c2	 cvtsi2ss xmm0, edx
  001f8	f3 0f 11 04 24	 movss	 DWORD PTR [esp], xmm0
  001fd	ff 10		 call	 DWORD PTR [eax]
$LN12@OnRender:

; 492  : 		}
; 493  : 
; 494  : 		//  
; 495  : 		if ( m_bTodayAttend )

  001ff	38 9e 10 02 00
	00		 cmp	 BYTE PTR [esi+528], bl
  00205	74 10		 je	 SHORT $LN4@OnRender

; 496  : 		{
; 497  : 			if ( m_pGreenAttendance )

  00207	39 9e 20 02 00
	00		 cmp	 DWORD PTR [esi+544], ebx
  0020d	74 41		 je	 SHORT $LN13@OnRender

; 498  : 				m_pGreenAttendance->Render( iXPos + TODAY_ICON_X, iYPos, UI_RENDER_NORMAL, TFO_BILINEAR );

  0020f	8b 8e 20 02 00
	00		 mov	 ecx, DWORD PTR [esi+544]

; 499  : 		}
; 500  : 		else

  00215	eb 0e		 jmp	 SHORT $LN16@OnRender
$LN4@OnRender:

; 501  : 		{
; 502  : 			if ( m_pGrayAttendance )

  00217	39 9e 18 02 00
	00		 cmp	 DWORD PTR [esi+536], ebx
  0021d	74 31		 je	 SHORT $LN13@OnRender

; 503  : 				m_pGrayAttendance->Render( iXPos + TODAY_ICON_X, iYPos, UI_RENDER_NORMAL, TFO_BILINEAR );

  0021f	8b 8e 18 02 00
	00		 mov	 ecx, DWORD PTR [esi+536]
$LN16@OnRender:
  00225	66 0f 6e 45 fc	 movd	 xmm0, DWORD PTR _iYPos$510299[ebp]
  0022a	8b 01		 mov	 eax, DWORD PTR [ecx]
  0022c	53		 push	 ebx
  0022d	53		 push	 ebx
  0022e	6a 01		 push	 1
  00230	53		 push	 ebx
  00231	51		 push	 ecx
  00232	51		 push	 ecx
  00233	0f 5b c0	 cvtdq2ps xmm0, xmm0
  00236	f3 0f 11 44 24
	04		 movss	 DWORD PTR [esp+4], xmm0
  0023c	81 c7 a5 00 00
	00		 add	 edi, 165		; 000000a5H
  00242	0f 57 c0	 xorps	 xmm0, xmm0
  00245	f3 0f 2a c7	 cvtsi2ss xmm0, edi
  00249	f3 0f 11 04 24	 movss	 DWORD PTR [esp], xmm0
  0024e	ff 10		 call	 DWORD PTR [eax]
$LN13@OnRender:
  00250	5f		 pop	 edi
  00251	5b		 pop	 ebx
$LN1@OnRender:
  00252	5e		 pop	 esi

; 504  : 		}
; 505  : 					
; 506  : 	}
; 507  : }

  00253	c9		 leave
  00254	c3		 ret	 0
?OnRender@GuildAttendUserBtn@@MAEXXZ ENDP		; GuildAttendUserBtn::OnRender
_TEXT	ENDS
PUBLIC	??_7GuildAttendInfoListWnd@@6B@			; GuildAttendInfoListWnd::`vftable'
PUBLIC	??0GuildAttendInfoListWnd@@QAE@XZ		; GuildAttendInfoListWnd::GuildAttendInfoListWnd
PUBLIC	??_R4GuildAttendInfoListWnd@@6B@		; GuildAttendInfoListWnd::`RTTI Complete Object Locator'
PUBLIC	??_R0?AVGuildAttendInfoListWnd@@@8		; GuildAttendInfoListWnd `RTTI Type Descriptor'
PUBLIC	??_R3GuildAttendInfoListWnd@@8			; GuildAttendInfoListWnd::`RTTI Class Hierarchy Descriptor'
PUBLIC	??_R2GuildAttendInfoListWnd@@8			; GuildAttendInfoListWnd::`RTTI Base Class Array'
PUBLIC	??_R1A@?0A@EA@GuildAttendInfoListWnd@@8		; GuildAttendInfoListWnd::`RTTI Base Class Descriptor at (0,-1,0,64)'
PUBLIC	?iwm_show@GuildAttendInfoListWnd@@MAEXXZ	; GuildAttendInfoListWnd::iwm_show
EXTRN	__imp_??0ioWnd@@QAE@XZ:PROC
EXTRN	?AddRenderFrame@ioWnd@@UAEXABVioHashString@@PAVioUIRenderFrame@@@Z:PROC ; ioWnd::AddRenderFrame
EXTRN	?AddRenderImage@ioWnd@@UAEXABVioHashString@@PAVioUIRenderImage@@@Z:PROC ; ioWnd::AddRenderImage
EXTRN	?ParseExtraInfo@ioWnd@@UAEXAAVioXMLElement@@@Z:PROC ; ioWnd::ParseExtraInfo
EXTRN	?SetWindowAlpha@ioWnd@@UAEXH@Z:PROC		; ioWnd::SetWindowAlpha
EXTRN	?OnRender@ioWnd@@MAEXXZ:PROC			; ioWnd::OnRender
EXTRN	?CheckFrameReSize@ioWnd@@MAEXHHHH@Z:PROC	; ioWnd::CheckFrameReSize
EXTRN	?iwm_lbuttondown@ioWnd@@UAEXABVioMouse@@@Z:PROC	; ioWnd::iwm_lbuttondown
EXTRN	?iwm_lbuttonup@ioWnd@@UAEXABVioMouse@@@Z:PROC	; ioWnd::iwm_lbuttonup
EXTRN	?iwm_lbuttonDBLCLK@ioWnd@@UAEXABVioMouse@@@Z:PROC ; ioWnd::iwm_lbuttonDBLCLK
EXTRN	?iwm_rbuttondown@ioWnd@@UAEXABVioMouse@@@Z:PROC	; ioWnd::iwm_rbuttondown
EXTRN	?iwm_rbuttonup@ioWnd@@UAEXABVioMouse@@@Z:PROC	; ioWnd::iwm_rbuttonup
EXTRN	?iwm_mouseover@ioWnd@@UAEXABVioMouse@@@Z:PROC	; ioWnd::iwm_mouseover
EXTRN	?GetWndType@ioWnd@@UBEKXZ:PROC			; ioWnd::GetWndType
EXTRN	?GetHeaderFileName@ioWnd@@UAEPBDXZ:PROC		; ioWnd::GetHeaderFileName
EXTRN	?GetTemplateName@ioWnd@@UAEPBDXZ:PROC		; ioWnd::GetTemplateName
EXTRN	?GetDefClassName@ioWnd@@UBEPBDXZ:PROC		; ioWnd::GetDefClassName
EXTRN	?_Clone@ioWnd@@UAEPAV1@XZ:PROC			; ioWnd::_Clone
EXTRN	?Copy@ioWnd@@UAEXPAV1@@Z:PROC			; ioWnd::Copy
EXTRN	?SetSaveData@ioWnd@@UAEXAAVioXMLElement@@@Z:PROC ; ioWnd::SetSaveData
EXTRN	?GetNumFixedRenderFrame@ioWnd@@UBEHXZ:PROC	; ioWnd::GetNumFixedRenderFrame
EXTRN	?GetFixedRenderFrameType@ioWnd@@UAEPBDH@Z:PROC	; ioWnd::GetFixedRenderFrameType
EXTRN	?GetRenderFrame@ioWnd@@UAEPAPAVioUIRenderElement@@PBD@Z:PROC ; ioWnd::GetRenderFrame
EXTRN	?GetNumFixedRenderImage@ioWnd@@UBEHXZ:PROC	; ioWnd::GetNumFixedRenderImage
EXTRN	?GetFixedRenderImageType@ioWnd@@UAEPBDH@Z:PROC	; ioWnd::GetFixedRenderImageType
EXTRN	?GetRenderImage@ioWnd@@UAEPAPAVioUIRenderElement@@PBD@Z:PROC ; ioWnd::GetRenderImage
EXTRN	??_EGuildAttendInfoListWnd@@UAEPAXI@Z:PROC	; GuildAttendInfoListWnd::`vector deleting destructor'
;	COMDAT ??_R1A@?0A@EA@GuildAttendInfoListWnd@@8
rdata$r	SEGMENT
??_R1A@?0A@EA@GuildAttendInfoListWnd@@8 DD FLAT:??_R0?AVGuildAttendInfoListWnd@@@8 ; GuildAttendInfoListWnd::`RTTI Base Class Descriptor at (0,-1,0,64)'
	DD	01H
	DD	00H
	DD	0ffffffffH
	DD	00H
	DD	040H
	DD	FLAT:??_R3GuildAttendInfoListWnd@@8
rdata$r	ENDS
;	COMDAT ??_R2GuildAttendInfoListWnd@@8
rdata$r	SEGMENT
??_R2GuildAttendInfoListWnd@@8 DD FLAT:??_R1A@?0A@EA@GuildAttendInfoListWnd@@8 ; GuildAttendInfoListWnd::`RTTI Base Class Array'
	DD	FLAT:??_R1A@?0A@EA@ioWnd@@8
rdata$r	ENDS
;	COMDAT ??_R3GuildAttendInfoListWnd@@8
rdata$r	SEGMENT
??_R3GuildAttendInfoListWnd@@8 DD 00H			; GuildAttendInfoListWnd::`RTTI Class Hierarchy Descriptor'
	DD	00H
	DD	02H
	DD	FLAT:??_R2GuildAttendInfoListWnd@@8
rdata$r	ENDS
;	COMDAT ??_R0?AVGuildAttendInfoListWnd@@@8
_DATA	SEGMENT
??_R0?AVGuildAttendInfoListWnd@@@8 DD FLAT:??_7type_info@@6B@ ; GuildAttendInfoListWnd `RTTI Type Descriptor'
	DD	00H
	DB	'.?AVGuildAttendInfoListWnd@@', 00H
_DATA	ENDS
;	COMDAT ??_R4GuildAttendInfoListWnd@@6B@
rdata$r	SEGMENT
??_R4GuildAttendInfoListWnd@@6B@ DD 00H			; GuildAttendInfoListWnd::`RTTI Complete Object Locator'
	DD	00H
	DD	00H
	DD	FLAT:??_R0?AVGuildAttendInfoListWnd@@@8
	DD	FLAT:??_R3GuildAttendInfoListWnd@@8
rdata$r	ENDS
;	COMDAT ??_7GuildAttendInfoListWnd@@6B@
CONST	SEGMENT
??_7GuildAttendInfoListWnd@@6B@ DD FLAT:??_R4GuildAttendInfoListWnd@@6B@ ; GuildAttendInfoListWnd::`vftable'
	DD	FLAT:?AddRenderFrame@ioWnd@@UAEXABVioHashString@@PAVioUIRenderFrame@@@Z
	DD	FLAT:?AddRenderImage@ioWnd@@UAEXABVioHashString@@PAVioUIRenderImage@@@Z
	DD	FLAT:?AddTooltipHelp@ioWnd@@UAEXABVioHashString@@00@Z
	DD	FLAT:?ParseExtraInfo@ioWnd@@UAEXAAVioXMLElement@@@Z
	DD	FLAT:?AddNamedRenderImage@ioWnd@@UAEXABVioHashString@@PAVioUIRenderImage@@@Z
	DD	FLAT:?RemoveNamedRenderImage@ioWnd@@UAEXABVioHashString@@@Z
	DD	FLAT:?GetNamedRenderImage@ioWnd@@UBEPAVioUIRenderImage@@ABVioHashString@@@Z
	DD	FLAT:?SetWindowAlpha@ioWnd@@UAEXH@Z
	DD	FLAT:?SetActive@ioWnd@@UAEXXZ
	DD	FLAT:?SetInActive@ioWnd@@UAEXXZ
	DD	FLAT:?ClearElementImageList@ioWnd@@UAEXXZ
	DD	FLAT:?SetSize@ioWnd@@UAEXHH@Z
	DD	FLAT:?SetPositionToDefault@ioWnd@@UAEXHH_N0@Z
	DD	FLAT:?IsNeedProcess@ioWnd@@UBE_NXZ
	DD	FLAT:?IsCanMouseReaction@ioWnd@@UBE_NXZ
	DD	FLAT:?AddChild@ioWnd@@UAEXPAV1@@Z
	DD	FLAT:?DeleteChild@ioWnd@@UAEXK@Z
	DD	FLAT:?DeleteAllChild@ioWnd@@UAEXXZ
	DD	FLAT:?OnRenderShowAndHide@ioWnd@@MAE_NXZ
	DD	FLAT:?OnRenderShowAndHideByDefault@ioWnd@@MAE_NK@Z
	DD	FLAT:?OnRenderShowAndHideByTop@ioWnd@@MAE_NK@Z
	DD	FLAT:?OnRenderShowAndHideByDown@ioWnd@@MAE_NK@Z
	DD	FLAT:?OnRender@ioWnd@@MAEXXZ
	DD	FLAT:?OnRenderAfterChild@ioWnd@@MAEXXZ
	DD	FLAT:?OnProcess@ioWnd@@MAEXM@Z
	DD	FLAT:?OnMouseProcess@ioWnd@@MAEXABVioMouse@@@Z
	DD	FLAT:?CheckFrameReSize@ioWnd@@MAEXHHHH@Z
	DD	FLAT:?RenderImageList@ioWnd@@MAEXHHW4UIRenderType@@@Z
	DD	FLAT:?iwm_create@ioWnd@@UAEXXZ
	DD	FLAT:?iwm_destroy@ioWnd@@UAEXXZ
	DD	FLAT:?iwm_lbuttondown@ioWnd@@UAEXABVioMouse@@@Z
	DD	FLAT:?iwm_lbuttonup@ioWnd@@UAEXABVioMouse@@@Z
	DD	FLAT:?iwm_lbuttonDBLCLK@ioWnd@@UAEXABVioMouse@@@Z
	DD	FLAT:?iwm_rbuttondown@ioWnd@@UAEXABVioMouse@@@Z
	DD	FLAT:?iwm_rbuttonup@ioWnd@@UAEXABVioMouse@@@Z
	DD	FLAT:?iwm_command@ioWnd@@UAEXPAV1@HK@Z
	DD	FLAT:?iwm_mouseover@ioWnd@@UAEXABVioMouse@@@Z
	DD	FLAT:?iwm_mousemove@ioWnd@@UAEXABVioMouse@@@Z
	DD	FLAT:?iwm_mouseleave@ioWnd@@UAEXABVioMouse@@@Z
	DD	FLAT:?iwm_vscroll@ioWnd@@UAEXKH@Z
	DD	FLAT:?iwm_wheel@ioWnd@@UAEXH@Z
	DD	FLAT:?iwm_show@GuildAttendInfoListWnd@@MAEXXZ
	DD	FLAT:?iwm_hide@ioWnd@@UAEXXZ
	DD	FLAT:?iwm_esc@ioWnd@@UAE_NXZ
	DD	FLAT:?iwm_spacebar@ioWnd@@UAE_NXZ
	DD	FLAT:?iwm_gototop@ioWnd@@UAEXXZ
	DD	FLAT:?iwm_dragenter@ioWnd@@UAE?AW4IWDropEffect@@PAVioDragItem@@ABVioMouse@@@Z
	DD	FLAT:?iwm_dragover@ioWnd@@UAE?AW4IWDropEffect@@PAVioDragItem@@ABVioMouse@@@Z
	DD	FLAT:?iwm_dragleave@ioWnd@@UAEXXZ
	DD	FLAT:?iwm_dropitem@ioWnd@@UAE_NPAVioDragItem@@ABVioMouse@@PAV1@@Z
	DD	FLAT:?iwm_dropdone@ioWnd@@UAEXPAVioDragItem@@PAV1@_N@Z
	DD	FLAT:?IsEXType@ioWnd@@UBE_NXZ
	DD	FLAT:?GetWndType@ioWnd@@UBEKXZ
	DD	FLAT:?RenderWnd@ioWnd@@UAEXXZ
	DD	FLAT:?SetIDEX@ioWnd@@UAEXAAK_N@Z
	DD	FLAT:?ParseXML@ioWnd@@UAEXAAVioXMLElement@@@Z
	DD	FLAT:?GetHeaderFileName@ioWnd@@UAEPBDXZ
	DD	FLAT:?GetTemplateName@ioWnd@@UAEPBDXZ
	DD	FLAT:?GetDefClassName@ioWnd@@UBEPBDXZ
	DD	FLAT:?_Clone@ioWnd@@UAEPAV1@XZ
	DD	FLAT:?Copy@ioWnd@@UAEXPAV1@@Z
	DD	FLAT:?Save@ioWnd@@UAE_NAAVioXMLElement@@@Z
	DD	FLAT:?SetSaveData@ioWnd@@UAEXAAVioXMLElement@@@Z
	DD	FLAT:?SetPosX@ioWnd@@UAEXH@Z
	DD	FLAT:?SetPosY@ioWnd@@UAEXH@Z
	DD	FLAT:?SetWidth@ioWnd@@UAEXH@Z
	DD	FLAT:?SetHeight@ioWnd@@UAEXH@Z
	DD	FLAT:?GetNumFixedRenderFrame@ioWnd@@UBEHXZ
	DD	FLAT:?GetFixedRenderFrameType@ioWnd@@UAEPBDH@Z
	DD	FLAT:?GetRenderFrame@ioWnd@@UAEPAPAVioUIRenderElement@@PBD@Z
	DD	FLAT:?GetNumFixedRenderImage@ioWnd@@UBEHXZ
	DD	FLAT:?GetFixedRenderImageType@ioWnd@@UAEPBDH@Z
	DD	FLAT:?GetRenderImage@ioWnd@@UAEPAPAVioUIRenderElement@@PBD@Z
	DD	FLAT:?AddEffect@ioWnd@@UAEXABVioHashString@@PAVioUI3DEffectRender@@@Z
	DD	FLAT:?GetEffect@ioWnd@@UAEPAVioUI3DEffectRender@@VioHashString@@@Z
	DD	FLAT:??_EGuildAttendInfoListWnd@@UAEPAXI@Z
; Function compile flags: /Ogsp
CONST	ENDS
;	COMDAT ??0GuildAttendInfoListWnd@@QAE@XZ
_TEXT	SEGMENT
??0GuildAttendInfoListWnd@@QAE@XZ PROC			; GuildAttendInfoListWnd::GuildAttendInfoListWnd, COMDAT
; _this$ = ecx

; 510  : {

  00000	56		 push	 esi
  00001	8b f1		 mov	 esi, ecx
  00003	ff 15 00 00 00
	00		 call	 DWORD PTR __imp_??0ioWnd@@QAE@XZ
  00009	c7 06 00 00 00
	00		 mov	 DWORD PTR [esi], OFFSET ??_7GuildAttendInfoListWnd@@6B@

; 511  : }

  0000f	8b c6		 mov	 eax, esi
  00011	5e		 pop	 esi
  00012	c3		 ret	 0
??0GuildAttendInfoListWnd@@QAE@XZ ENDP			; GuildAttendInfoListWnd::GuildAttendInfoListWnd
_TEXT	ENDS
PUBLIC	??1GuildAttendInfoListWnd@@UAE@XZ		; GuildAttendInfoListWnd::~GuildAttendInfoListWnd
EXTRN	__imp_??1ioWnd@@UAE@XZ:PROC
; Function compile flags: /Ogsp
;	COMDAT ??1GuildAttendInfoListWnd@@UAE@XZ
_TEXT	SEGMENT
??1GuildAttendInfoListWnd@@UAE@XZ PROC			; GuildAttendInfoListWnd::~GuildAttendInfoListWnd, COMDAT
; _this$ = ecx

; 514  : {

  00000	c7 01 00 00 00
	00		 mov	 DWORD PTR [ecx], OFFSET ??_7GuildAttendInfoListWnd@@6B@

; 515  : 
; 516  : }

  00006	ff 25 00 00 00
	00		 jmp	 DWORD PTR __imp_??1ioWnd@@UAE@XZ
??1GuildAttendInfoListWnd@@UAE@XZ ENDP			; GuildAttendInfoListWnd::~GuildAttendInfoListWnd
_TEXT	ENDS
PUBLIC	?UpdateUserList@GuildAttendInfoListWnd@@QAEXPAVioGuildData@@@Z ; GuildAttendInfoListWnd::UpdateUserList
EXTRN	__imp_?IsEmpty@ioHashString@@QBE_NXZ:PROC
EXTRN	?GetUserInfo@ioGuildData@@QAEXHAAVioHashString@@AAHAA_N2@Z:PROC ; ioGuildData::GetUserInfo
;	COMDAT xdata$x
xdata$x	SEGMENT
__unwindtable$?UpdateUserList@GuildAttendInfoListWnd@@QAEXPAVioGuildData@@@Z DD 0ffffffffH
	DD	FLAT:__unwindfunclet$?UpdateUserList@GuildAttendInfoListWnd@@QAEXPAVioGuildData@@@Z$0
	DD	00H
	DD	FLAT:__unwindfunclet$?UpdateUserList@GuildAttendInfoListWnd@@QAEXPAVioGuildData@@@Z$1
__ehfuncinfo$?UpdateUserList@GuildAttendInfoListWnd@@QAEXPAVioGuildData@@@Z DD 019930522H
	DD	02H
	DD	FLAT:__unwindtable$?UpdateUserList@GuildAttendInfoListWnd@@QAEXPAVioGuildData@@@Z
	DD	2 DUP(00H)
	DD	2 DUP(00H)
	DD	00H
	DD	01H
; Function compile flags: /Ogsp
xdata$x	ENDS
;	COMDAT ?UpdateUserList@GuildAttendInfoListWnd@@QAEXPAVioGuildData@@@Z
_TEXT	SEGMENT
_szUserPos$510351 = -56					; size = 16
_szUserID$510350 = -40					; size = 16
_iUserLevel$510349 = -24				; size = 4
_this$ = -20						; size = 4
_bTodayAttend$510352 = -14				; size = 1
_bYesterdayAttend$510353 = -13				; size = 1
__$EHRec$ = -12						; size = 12
_pGuildData$ = 8					; size = 4
?UpdateUserList@GuildAttendInfoListWnd@@QAEXPAVioGuildData@@@Z PROC ; GuildAttendInfoListWnd::UpdateUserList, COMDAT
; _this$ = ecx

; 530  : {

  00000	6a 2c		 push	 44			; 0000002cH
  00002	b8 00 00 00 00	 mov	 eax, __ehhandler$?UpdateUserList@GuildAttendInfoListWnd@@QAEXPAVioGuildData@@@Z
  00007	e8 00 00 00 00	 call	 __EH_prolog3
  0000c	89 4d ec	 mov	 DWORD PTR _this$[ebp], ecx

; 531  : 	if( pGuildData )

  0000f	33 db		 xor	 ebx, ebx
  00011	39 5d 08	 cmp	 DWORD PTR _pGuildData$[ebp], ebx
  00014	0f 84 a5 00 00
	00		 je	 $LN4@UpdateUser

; 532  : 	{
; 533  : 		for(int i = ID_USER_LIST_1;i < ID_USER_LIST_32 + 1;i++ )

  0001a	8b 35 00 00 00
	00		 mov	 esi, DWORD PTR __imp_??0ioHashString@@QAE@XZ
$LN6@UpdateUser:

; 534  : 		{
; 535  : 			GuildAttendUserBtn *pUserBtn = dynamic_cast<GuildAttendUserBtn*>(FindChildWnd( i ));

  00020	8b 4d ec	 mov	 ecx, DWORD PTR _this$[ebp]
  00023	6a 00		 push	 0
  00025	68 00 00 00 00	 push	 OFFSET ??_R0?AVGuildAttendUserBtn@@@8
  0002a	68 00 00 00 00	 push	 OFFSET ??_R0?AVioWnd@@@8
  0002f	6a 00		 push	 0
  00031	53		 push	 ebx
  00032	ff 15 00 00 00
	00		 call	 DWORD PTR __imp_?FindChildWnd@ioWnd@@QAEPAV1@K@Z
  00038	50		 push	 eax
  00039	e8 00 00 00 00	 call	 ___RTDynamicCast
  0003e	8b f8		 mov	 edi, eax
  00040	83 c4 14	 add	 esp, 20			; 00000014H

; 536  : 			if( pUserBtn )

  00043	85 ff		 test	 edi, edi
  00045	74 6e		 je	 SHORT $LN5@UpdateUser

; 537  : 			{
; 538  : 				int	  iUserLevel;
; 539  : 				ioHashString szUserID, szUserPos;

  00047	8d 4d d8	 lea	 ecx, DWORD PTR _szUserID$510350[ebp]
  0004a	ff d6		 call	 esi
  0004c	83 65 fc 00	 and	 DWORD PTR __$EHRec$[ebp+8], 0
  00050	8d 4d c8	 lea	 ecx, DWORD PTR _szUserPos$510351[ebp]
  00053	ff d6		 call	 esi

; 540  : 				bool bTodayAttend,bYesterdayAttend;
; 541  : 				pGuildData->GetUserInfo( i, szUserID,iUserLevel, bYesterdayAttend, bTodayAttend );

  00055	8b 4d 08	 mov	 ecx, DWORD PTR _pGuildData$[ebp]
  00058	8d 45 f2	 lea	 eax, DWORD PTR _bTodayAttend$510352[ebp]
  0005b	50		 push	 eax
  0005c	8d 45 f3	 lea	 eax, DWORD PTR _bYesterdayAttend$510353[ebp]
  0005f	50		 push	 eax
  00060	8d 45 e8	 lea	 eax, DWORD PTR _iUserLevel$510349[ebp]
  00063	50		 push	 eax
  00064	8d 45 d8	 lea	 eax, DWORD PTR _szUserID$510350[ebp]
  00067	50		 push	 eax
  00068	53		 push	 ebx
  00069	c6 45 fc 01	 mov	 BYTE PTR __$EHRec$[ebp+8], 1
  0006d	e8 00 00 00 00	 call	 ?GetUserInfo@ioGuildData@@QAEXHAAVioHashString@@AAHAA_N2@Z ; ioGuildData::GetUserInfo

; 542  : 				if ( szUserID.IsEmpty() )

  00072	8d 4d d8	 lea	 ecx, DWORD PTR _szUserID$510350[ebp]
  00075	ff 15 00 00 00
	00		 call	 DWORD PTR __imp_?IsEmpty@ioHashString@@QBE_NXZ

; 543  : 					pUserBtn->SetInActive();

  0007b	8b cf		 mov	 ecx, edi
  0007d	84 c0		 test	 al, al
  0007f	74 07		 je	 SHORT $LN2@UpdateUser
  00081	8b 07		 mov	 eax, DWORD PTR [edi]
  00083	ff 50 24	 call	 DWORD PTR [eax+36]

; 544  : 				else

  00086	eb 15		 jmp	 SHORT $LN1@UpdateUser
$LN2@UpdateUser:

; 545  : 					pUserBtn->MemberInfo( i, szUserID, iUserLevel, bTodayAttend, bYesterdayAttend  );

  00088	8d 45 f3	 lea	 eax, DWORD PTR _bYesterdayAttend$510353[ebp]
  0008b	50		 push	 eax
  0008c	8d 45 f2	 lea	 eax, DWORD PTR _bTodayAttend$510352[ebp]
  0008f	50		 push	 eax
  00090	ff 75 e8	 push	 DWORD PTR _iUserLevel$510349[ebp]
  00093	8d 45 d8	 lea	 eax, DWORD PTR _szUserID$510350[ebp]
  00096	50		 push	 eax
  00097	53		 push	 ebx
  00098	e8 00 00 00 00	 call	 ?MemberInfo@GuildAttendUserBtn@@QAEXHABVioHashString@@HAA_N1@Z ; GuildAttendUserBtn::MemberInfo
$LN1@UpdateUser:

; 546  : 			}

  0009d	8b 3d 00 00 00
	00		 mov	 edi, DWORD PTR __imp_??1ioHashString@@QAE@XZ
  000a3	8d 4d c8	 lea	 ecx, DWORD PTR _szUserPos$510351[ebp]
  000a6	c6 45 fc 00	 mov	 BYTE PTR __$EHRec$[ebp+8], 0
  000aa	ff d7		 call	 edi
  000ac	83 4d fc ff	 or	 DWORD PTR __$EHRec$[ebp+8], -1
  000b0	8d 4d d8	 lea	 ecx, DWORD PTR _szUserID$510350[ebp]
  000b3	ff d7		 call	 edi
$LN5@UpdateUser:

; 532  : 	{
; 533  : 		for(int i = ID_USER_LIST_1;i < ID_USER_LIST_32 + 1;i++ )

  000b5	43		 inc	 ebx
  000b6	83 fb 20	 cmp	 ebx, 32			; 00000020H
  000b9	0f 8c 61 ff ff
	ff		 jl	 $LN6@UpdateUser
$LN4@UpdateUser:

; 547  : 		}	
; 548  : 	}
; 549  : }

  000bf	e8 00 00 00 00	 call	 __EH_epilog3
  000c4	c2 04 00	 ret	 4
_TEXT	ENDS
;	COMDAT text$x
text$x	SEGMENT
__unwindfunclet$?UpdateUserList@GuildAttendInfoListWnd@@QAEXPAVioGuildData@@@Z$0:
  00000	8d 4d d8	 lea	 ecx, DWORD PTR _szUserID$510350[ebp]
  00003	ff 25 00 00 00
	00		 jmp	 DWORD PTR __imp_??1ioHashString@@QAE@XZ
__unwindfunclet$?UpdateUserList@GuildAttendInfoListWnd@@QAEXPAVioGuildData@@@Z$1:
  00009	8d 4d c8	 lea	 ecx, DWORD PTR _szUserPos$510351[ebp]
  0000c	ff 25 00 00 00
	00		 jmp	 DWORD PTR __imp_??1ioHashString@@QAE@XZ
__ehhandler$?UpdateUserList@GuildAttendInfoListWnd@@QAEXPAVioGuildData@@@Z:
  00012	8b 54 24 08	 mov	 edx, DWORD PTR [esp+8]
  00016	8d 42 0c	 lea	 eax, DWORD PTR [edx+12]
  00019	8b 4a c4	 mov	 ecx, DWORD PTR [edx-60]
  0001c	33 c8		 xor	 ecx, eax
  0001e	e8 00 00 00 00	 call	 @__security_check_cookie@4
  00023	b8 00 00 00 00	 mov	 eax, OFFSET __ehfuncinfo$?UpdateUserList@GuildAttendInfoListWnd@@QAEXPAVioGuildData@@@Z
  00028	e9 00 00 00 00	 jmp	 ___CxxFrameHandler3
text$x	ENDS
?UpdateUserList@GuildAttendInfoListWnd@@QAEXPAVioGuildData@@@Z ENDP ; GuildAttendInfoListWnd::UpdateUserList
PUBLIC	??_7GuildAttendRewardWnd@@6B@			; GuildAttendRewardWnd::`vftable'
PUBLIC	??0GuildAttendRewardWnd@@QAE@XZ			; GuildAttendRewardWnd::GuildAttendRewardWnd
PUBLIC	??_R4GuildAttendRewardWnd@@6B@			; GuildAttendRewardWnd::`RTTI Complete Object Locator'
PUBLIC	??_R0?AVGuildAttendRewardWnd@@@8		; GuildAttendRewardWnd `RTTI Type Descriptor'
PUBLIC	??_R3GuildAttendRewardWnd@@8			; GuildAttendRewardWnd::`RTTI Class Hierarchy Descriptor'
PUBLIC	??_R2GuildAttendRewardWnd@@8			; GuildAttendRewardWnd::`RTTI Base Class Array'
PUBLIC	??_R1A@?0A@EA@GuildAttendRewardWnd@@8		; GuildAttendRewardWnd::`RTTI Base Class Descriptor at (0,-1,0,64)'
PUBLIC	?OnRender@GuildAttendRewardWnd@@MAEXXZ		; GuildAttendRewardWnd::OnRender
PUBLIC	?iwm_command@GuildAttendRewardWnd@@UAEXPAVioWnd@@HK@Z ; GuildAttendRewardWnd::iwm_command
EXTRN	??_EGuildAttendRewardWnd@@UAEPAXI@Z:PROC	; GuildAttendRewardWnd::`vector deleting destructor'
;	COMDAT ??_R1A@?0A@EA@GuildAttendRewardWnd@@8
rdata$r	SEGMENT
??_R1A@?0A@EA@GuildAttendRewardWnd@@8 DD FLAT:??_R0?AVGuildAttendRewardWnd@@@8 ; GuildAttendRewardWnd::`RTTI Base Class Descriptor at (0,-1,0,64)'
	DD	01H
	DD	00H
	DD	0ffffffffH
	DD	00H
	DD	040H
	DD	FLAT:??_R3GuildAttendRewardWnd@@8
rdata$r	ENDS
;	COMDAT ??_R2GuildAttendRewardWnd@@8
rdata$r	SEGMENT
??_R2GuildAttendRewardWnd@@8 DD FLAT:??_R1A@?0A@EA@GuildAttendRewardWnd@@8 ; GuildAttendRewardWnd::`RTTI Base Class Array'
	DD	FLAT:??_R1A@?0A@EA@ioWnd@@8
rdata$r	ENDS
;	COMDAT ??_R3GuildAttendRewardWnd@@8
rdata$r	SEGMENT
??_R3GuildAttendRewardWnd@@8 DD 00H			; GuildAttendRewardWnd::`RTTI Class Hierarchy Descriptor'
	DD	00H
	DD	02H
	DD	FLAT:??_R2GuildAttendRewardWnd@@8
rdata$r	ENDS
;	COMDAT ??_R0?AVGuildAttendRewardWnd@@@8
_DATA	SEGMENT
??_R0?AVGuildAttendRewardWnd@@@8 DD FLAT:??_7type_info@@6B@ ; GuildAttendRewardWnd `RTTI Type Descriptor'
	DD	00H
	DB	'.?AVGuildAttendRewardWnd@@', 00H
_DATA	ENDS
;	COMDAT ??_R4GuildAttendRewardWnd@@6B@
rdata$r	SEGMENT
??_R4GuildAttendRewardWnd@@6B@ DD 00H			; GuildAttendRewardWnd::`RTTI Complete Object Locator'
	DD	00H
	DD	00H
	DD	FLAT:??_R0?AVGuildAttendRewardWnd@@@8
	DD	FLAT:??_R3GuildAttendRewardWnd@@8
rdata$r	ENDS
;	COMDAT ??_7GuildAttendRewardWnd@@6B@
CONST	SEGMENT
??_7GuildAttendRewardWnd@@6B@ DD FLAT:??_R4GuildAttendRewardWnd@@6B@ ; GuildAttendRewardWnd::`vftable'
	DD	FLAT:?AddRenderFrame@ioWnd@@UAEXABVioHashString@@PAVioUIRenderFrame@@@Z
	DD	FLAT:?AddRenderImage@ioWnd@@UAEXABVioHashString@@PAVioUIRenderImage@@@Z
	DD	FLAT:?AddTooltipHelp@ioWnd@@UAEXABVioHashString@@00@Z
	DD	FLAT:?ParseExtraInfo@ioWnd@@UAEXAAVioXMLElement@@@Z
	DD	FLAT:?AddNamedRenderImage@ioWnd@@UAEXABVioHashString@@PAVioUIRenderImage@@@Z
	DD	FLAT:?RemoveNamedRenderImage@ioWnd@@UAEXABVioHashString@@@Z
	DD	FLAT:?GetNamedRenderImage@ioWnd@@UBEPAVioUIRenderImage@@ABVioHashString@@@Z
	DD	FLAT:?SetWindowAlpha@ioWnd@@UAEXH@Z
	DD	FLAT:?SetActive@ioWnd@@UAEXXZ
	DD	FLAT:?SetInActive@ioWnd@@UAEXXZ
	DD	FLAT:?ClearElementImageList@ioWnd@@UAEXXZ
	DD	FLAT:?SetSize@ioWnd@@UAEXHH@Z
	DD	FLAT:?SetPositionToDefault@ioWnd@@UAEXHH_N0@Z
	DD	FLAT:?IsNeedProcess@ioWnd@@UBE_NXZ
	DD	FLAT:?IsCanMouseReaction@ioWnd@@UBE_NXZ
	DD	FLAT:?AddChild@ioWnd@@UAEXPAV1@@Z
	DD	FLAT:?DeleteChild@ioWnd@@UAEXK@Z
	DD	FLAT:?DeleteAllChild@ioWnd@@UAEXXZ
	DD	FLAT:?OnRenderShowAndHide@ioWnd@@MAE_NXZ
	DD	FLAT:?OnRenderShowAndHideByDefault@ioWnd@@MAE_NK@Z
	DD	FLAT:?OnRenderShowAndHideByTop@ioWnd@@MAE_NK@Z
	DD	FLAT:?OnRenderShowAndHideByDown@ioWnd@@MAE_NK@Z
	DD	FLAT:?OnRender@GuildAttendRewardWnd@@MAEXXZ
	DD	FLAT:?OnRenderAfterChild@ioWnd@@MAEXXZ
	DD	FLAT:?OnProcess@ioWnd@@MAEXM@Z
	DD	FLAT:?OnMouseProcess@ioWnd@@MAEXABVioMouse@@@Z
	DD	FLAT:?CheckFrameReSize@ioWnd@@MAEXHHHH@Z
	DD	FLAT:?RenderImageList@ioWnd@@MAEXHHW4UIRenderType@@@Z
	DD	FLAT:?iwm_create@ioWnd@@UAEXXZ
	DD	FLAT:?iwm_destroy@ioWnd@@UAEXXZ
	DD	FLAT:?iwm_lbuttondown@ioWnd@@UAEXABVioMouse@@@Z
	DD	FLAT:?iwm_lbuttonup@ioWnd@@UAEXABVioMouse@@@Z
	DD	FLAT:?iwm_lbuttonDBLCLK@ioWnd@@UAEXABVioMouse@@@Z
	DD	FLAT:?iwm_rbuttondown@ioWnd@@UAEXABVioMouse@@@Z
	DD	FLAT:?iwm_rbuttonup@ioWnd@@UAEXABVioMouse@@@Z
	DD	FLAT:?iwm_command@GuildAttendRewardWnd@@UAEXPAVioWnd@@HK@Z
	DD	FLAT:?iwm_mouseover@ioWnd@@UAEXABVioMouse@@@Z
	DD	FLAT:?iwm_mousemove@ioWnd@@UAEXABVioMouse@@@Z
	DD	FLAT:?iwm_mouseleave@ioWnd@@UAEXABVioMouse@@@Z
	DD	FLAT:?iwm_vscroll@ioWnd@@UAEXKH@Z
	DD	FLAT:?iwm_wheel@ioWnd@@UAEXH@Z
	DD	FLAT:?iwm_show@ioWnd@@UAEXXZ
	DD	FLAT:?iwm_hide@ioWnd@@UAEXXZ
	DD	FLAT:?iwm_esc@ioWnd@@UAE_NXZ
	DD	FLAT:?iwm_spacebar@ioWnd@@UAE_NXZ
	DD	FLAT:?iwm_gototop@ioWnd@@UAEXXZ
	DD	FLAT:?iwm_dragenter@ioWnd@@UAE?AW4IWDropEffect@@PAVioDragItem@@ABVioMouse@@@Z
	DD	FLAT:?iwm_dragover@ioWnd@@UAE?AW4IWDropEffect@@PAVioDragItem@@ABVioMouse@@@Z
	DD	FLAT:?iwm_dragleave@ioWnd@@UAEXXZ
	DD	FLAT:?iwm_dropitem@ioWnd@@UAE_NPAVioDragItem@@ABVioMouse@@PAV1@@Z
	DD	FLAT:?iwm_dropdone@ioWnd@@UAEXPAVioDragItem@@PAV1@_N@Z
	DD	FLAT:?IsEXType@ioWnd@@UBE_NXZ
	DD	FLAT:?GetWndType@ioWnd@@UBEKXZ
	DD	FLAT:?RenderWnd@ioWnd@@UAEXXZ
	DD	FLAT:?SetIDEX@ioWnd@@UAEXAAK_N@Z
	DD	FLAT:?ParseXML@ioWnd@@UAEXAAVioXMLElement@@@Z
	DD	FLAT:?GetHeaderFileName@ioWnd@@UAEPBDXZ
	DD	FLAT:?GetTemplateName@ioWnd@@UAEPBDXZ
	DD	FLAT:?GetDefClassName@ioWnd@@UBEPBDXZ
	DD	FLAT:?_Clone@ioWnd@@UAEPAV1@XZ
	DD	FLAT:?Copy@ioWnd@@UAEXPAV1@@Z
	DD	FLAT:?Save@ioWnd@@UAE_NAAVioXMLElement@@@Z
	DD	FLAT:?SetSaveData@ioWnd@@UAEXAAVioXMLElement@@@Z
	DD	FLAT:?SetPosX@ioWnd@@UAEXH@Z
	DD	FLAT:?SetPosY@ioWnd@@UAEXH@Z
	DD	FLAT:?SetWidth@ioWnd@@UAEXH@Z
	DD	FLAT:?SetHeight@ioWnd@@UAEXH@Z
	DD	FLAT:?GetNumFixedRenderFrame@ioWnd@@UBEHXZ
	DD	FLAT:?GetFixedRenderFrameType@ioWnd@@UAEPBDH@Z
	DD	FLAT:?GetRenderFrame@ioWnd@@UAEPAPAVioUIRenderElement@@PBD@Z
	DD	FLAT:?GetNumFixedRenderImage@ioWnd@@UBEHXZ
	DD	FLAT:?GetFixedRenderImageType@ioWnd@@UAEPBDH@Z
	DD	FLAT:?GetRenderImage@ioWnd@@UAEPAPAVioUIRenderElement@@PBD@Z
	DD	FLAT:?AddEffect@ioWnd@@UAEXABVioHashString@@PAVioUI3DEffectRender@@@Z
	DD	FLAT:?GetEffect@ioWnd@@UAEPAVioUI3DEffectRender@@VioHashString@@@Z
	DD	FLAT:??_EGuildAttendRewardWnd@@UAEPAXI@Z
CONST	ENDS
;	COMDAT xdata$x
xdata$x	SEGMENT
__unwindtable$??0GuildAttendRewardWnd@@QAE@XZ DD 0ffffffffH
	DD	FLAT:__unwindfunclet$??0GuildAttendRewardWnd@@QAE@XZ$0
	DD	00H
	DD	FLAT:__unwindfunclet$??0GuildAttendRewardWnd@@QAE@XZ$1
__ehfuncinfo$??0GuildAttendRewardWnd@@QAE@XZ DD 019930522H
	DD	02H
	DD	FLAT:__unwindtable$??0GuildAttendRewardWnd@@QAE@XZ
	DD	2 DUP(00H)
	DD	2 DUP(00H)
	DD	00H
	DD	01H
; Function compile flags: /Ogsp
xdata$x	ENDS
;	COMDAT ??0GuildAttendRewardWnd@@QAE@XZ
_TEXT	SEGMENT
_this$ = -16						; size = 4
__$EHRec$ = -12						; size = 12
??0GuildAttendRewardWnd@@QAE@XZ PROC			; GuildAttendRewardWnd::GuildAttendRewardWnd, COMDAT
; _this$ = ecx

; 553  : {

  00000	6a 04		 push	 4
  00002	b8 00 00 00 00	 mov	 eax, __ehhandler$??0GuildAttendRewardWnd@@QAE@XZ
  00007	e8 00 00 00 00	 call	 __EH_prolog3
  0000c	8b f1		 mov	 esi, ecx
  0000e	89 75 f0	 mov	 DWORD PTR _this$[ebp], esi
  00011	ff 15 00 00 00
	00		 call	 DWORD PTR __imp_??0ioWnd@@QAE@XZ
  00017	83 65 fc 00	 and	 DWORD PTR __$EHRec$[ebp+8], 0
  0001b	8d 8e 64 01 00
	00		 lea	 ecx, DWORD PTR [esi+356]
  00021	c7 06 00 00 00
	00		 mov	 DWORD PTR [esi], OFFSET ??_7GuildAttendRewardWnd@@6B@
  00027	e8 00 00 00 00	 call	 ??0ioComplexStringPrinter@@QAE@XZ ; ioComplexStringPrinter::ioComplexStringPrinter
  0002c	8d 8e 84 01 00
	00		 lea	 ecx, DWORD PTR [esi+388]
  00032	c6 45 fc 01	 mov	 BYTE PTR __$EHRec$[ebp+8], 1
  00036	e8 00 00 00 00	 call	 ??0ioComplexStringPrinter@@QAE@XZ ; ioComplexStringPrinter::ioComplexStringPrinter

; 554  : 	m_pItemIcon = NULL;

  0003b	83 a6 60 01 00
	00 00		 and	 DWORD PTR [esi+352], 0

; 555  : }

  00042	8b c6		 mov	 eax, esi
  00044	e8 00 00 00 00	 call	 __EH_epilog3
  00049	c3		 ret	 0
_TEXT	ENDS
;	COMDAT text$x
text$x	SEGMENT
__unwindfunclet$??0GuildAttendRewardWnd@@QAE@XZ$0:
  00000	8b 4d f0	 mov	 ecx, DWORD PTR _this$[ebp]
  00003	ff 25 00 00 00
	00		 jmp	 DWORD PTR __imp_??1ioWnd@@UAE@XZ
__unwindfunclet$??0GuildAttendRewardWnd@@QAE@XZ$1:
  00009	8b 4d f0	 mov	 ecx, DWORD PTR _this$[ebp]
  0000c	81 c1 64 01 00
	00		 add	 ecx, 356		; 00000164H
  00012	e9 00 00 00 00	 jmp	 ??1ioComplexStringPrinter@@QAE@XZ ; ioComplexStringPrinter::~ioComplexStringPrinter
__ehhandler$??0GuildAttendRewardWnd@@QAE@XZ:
  00017	8b 54 24 08	 mov	 edx, DWORD PTR [esp+8]
  0001b	8d 42 0c	 lea	 eax, DWORD PTR [edx+12]
  0001e	8b 4a ec	 mov	 ecx, DWORD PTR [edx-20]
  00021	33 c8		 xor	 ecx, eax
  00023	e8 00 00 00 00	 call	 @__security_check_cookie@4
  00028	b8 00 00 00 00	 mov	 eax, OFFSET __ehfuncinfo$??0GuildAttendRewardWnd@@QAE@XZ
  0002d	e9 00 00 00 00	 jmp	 ___CxxFrameHandler3
text$x	ENDS
??0GuildAttendRewardWnd@@QAE@XZ ENDP			; GuildAttendRewardWnd::GuildAttendRewardWnd
PUBLIC	??1GuildAttendRewardWnd@@UAE@XZ			; GuildAttendRewardWnd::~GuildAttendRewardWnd
;	COMDAT xdata$x
xdata$x	SEGMENT
__unwindtable$??1GuildAttendRewardWnd@@UAE@XZ DD 0ffffffffH
	DD	FLAT:__unwindfunclet$??1GuildAttendRewardWnd@@UAE@XZ$0
	DD	00H
	DD	FLAT:__unwindfunclet$??1GuildAttendRewardWnd@@UAE@XZ$1
	DD	01H
	DD	FLAT:__unwindfunclet$??1GuildAttendRewardWnd@@UAE@XZ$2
__ehfuncinfo$??1GuildAttendRewardWnd@@UAE@XZ DD 019930522H
	DD	03H
	DD	FLAT:__unwindtable$??1GuildAttendRewardWnd@@UAE@XZ
	DD	2 DUP(00H)
	DD	2 DUP(00H)
	DD	00H
	DD	01H
; Function compile flags: /Ogsp
xdata$x	ENDS
;	COMDAT ??1GuildAttendRewardWnd@@UAE@XZ
_TEXT	SEGMENT
_this$ = -16						; size = 4
__$EHRec$ = -12						; size = 12
??1GuildAttendRewardWnd@@UAE@XZ PROC			; GuildAttendRewardWnd::~GuildAttendRewardWnd, COMDAT
; _this$ = ecx

; 558  : {

  00000	6a 04		 push	 4
  00002	b8 00 00 00 00	 mov	 eax, __ehhandler$??1GuildAttendRewardWnd@@UAE@XZ
  00007	e8 00 00 00 00	 call	 __EH_prolog3
  0000c	8b f1		 mov	 esi, ecx
  0000e	89 75 f0	 mov	 DWORD PTR _this$[ebp], esi
  00011	c7 06 00 00 00
	00		 mov	 DWORD PTR [esi], OFFSET ??_7GuildAttendRewardWnd@@6B@

; 559  : 	SAFEDELETE( m_pItemIcon );

  00017	8b 8e 60 01 00
	00		 mov	 ecx, DWORD PTR [esi+352]
  0001d	c7 45 fc 02 00
	00 00		 mov	 DWORD PTR __$EHRec$[ebp+8], 2
  00024	85 c9		 test	 ecx, ecx
  00026	74 0e		 je	 SHORT $LN1@GuildAtten@2
  00028	8b 01		 mov	 eax, DWORD PTR [ecx]
  0002a	6a 01		 push	 1
  0002c	ff 50 40	 call	 DWORD PTR [eax+64]
  0002f	83 a6 60 01 00
	00 00		 and	 DWORD PTR [esi+352], 0
$LN1@GuildAtten@2:

; 560  : }

  00036	8d 8e 84 01 00
	00		 lea	 ecx, DWORD PTR [esi+388]
  0003c	c6 45 fc 01	 mov	 BYTE PTR __$EHRec$[ebp+8], 1
  00040	e8 00 00 00 00	 call	 ??1ioComplexStringPrinter@@QAE@XZ ; ioComplexStringPrinter::~ioComplexStringPrinter
  00045	8d 8e 64 01 00
	00		 lea	 ecx, DWORD PTR [esi+356]
  0004b	c6 45 fc 00	 mov	 BYTE PTR __$EHRec$[ebp+8], 0
  0004f	e8 00 00 00 00	 call	 ??1ioComplexStringPrinter@@QAE@XZ ; ioComplexStringPrinter::~ioComplexStringPrinter
  00054	83 4d fc ff	 or	 DWORD PTR __$EHRec$[ebp+8], -1
  00058	8b ce		 mov	 ecx, esi
  0005a	ff 15 00 00 00
	00		 call	 DWORD PTR __imp_??1ioWnd@@UAE@XZ
  00060	e8 00 00 00 00	 call	 __EH_epilog3
  00065	c3		 ret	 0
_TEXT	ENDS
;	COMDAT text$x
text$x	SEGMENT
__unwindfunclet$??1GuildAttendRewardWnd@@UAE@XZ$0:
  00000	8b 4d f0	 mov	 ecx, DWORD PTR _this$[ebp]
  00003	ff 25 00 00 00
	00		 jmp	 DWORD PTR __imp_??1ioWnd@@UAE@XZ
__unwindfunclet$??1GuildAttendRewardWnd@@UAE@XZ$1:
  00009	8b 4d f0	 mov	 ecx, DWORD PTR _this$[ebp]
  0000c	81 c1 64 01 00
	00		 add	 ecx, 356		; 00000164H
  00012	e9 00 00 00 00	 jmp	 ??1ioComplexStringPrinter@@QAE@XZ ; ioComplexStringPrinter::~ioComplexStringPrinter
__unwindfunclet$??1GuildAttendRewardWnd@@UAE@XZ$2:
  00017	8b 4d f0	 mov	 ecx, DWORD PTR _this$[ebp]
  0001a	81 c1 84 01 00
	00		 add	 ecx, 388		; 00000184H
  00020	e9 00 00 00 00	 jmp	 ??1ioComplexStringPrinter@@QAE@XZ ; ioComplexStringPrinter::~ioComplexStringPrinter
__ehhandler$??1GuildAttendRewardWnd@@UAE@XZ:
  00025	8b 54 24 08	 mov	 edx, DWORD PTR [esp+8]
  00029	8d 42 0c	 lea	 eax, DWORD PTR [edx+12]
  0002c	8b 4a ec	 mov	 ecx, DWORD PTR [edx-20]
  0002f	33 c8		 xor	 ecx, eax
  00031	e8 00 00 00 00	 call	 @__security_check_cookie@4
  00036	b8 00 00 00 00	 mov	 eax, OFFSET __ehfuncinfo$??1GuildAttendRewardWnd@@UAE@XZ
  0003b	e9 00 00 00 00	 jmp	 ___CxxFrameHandler3
text$x	ENDS
??1GuildAttendRewardWnd@@UAE@XZ ENDP			; GuildAttendRewardWnd::~GuildAttendRewardWnd
EXTRN	__imp_?GetID@ioWnd@@QBEKXZ:PROC
; Function compile flags: /Ogsp
;	COMDAT ?iwm_command@GuildAttendRewardWnd@@UAEXPAVioWnd@@HK@Z
_TEXT	SEGMENT
_pWnd$ = 8						; size = 4
_cmd$ = 12						; size = 4
_param$ = 16						; size = 4
?iwm_command@GuildAttendRewardWnd@@UAEXPAVioWnd@@HK@Z PROC ; GuildAttendRewardWnd::iwm_command, COMDAT
; _this$ = ecx

; 563  : {

  00000	55		 push	 ebp
  00001	8b ec		 mov	 ebp, esp
  00003	56		 push	 esi
  00004	8b f1		 mov	 esi, ecx

; 564  : 	DWORD dwID = pWnd->GetID();

  00006	8b 4d 08	 mov	 ecx, DWORD PTR _pWnd$[ebp]
  00009	ff 15 00 00 00
	00		 call	 DWORD PTR __imp_?GetID@ioWnd@@QBEKXZ

; 565  : 	switch( dwID )

  0000f	48		 dec	 eax
  00010	83 f8 01	 cmp	 eax, 1
  00013	77 0e		 ja	 SHORT $LN1@iwm_comman

; 566  : 	{
; 567  : 	case ID_X:
; 568  : 	case ID_OK:
; 569  : 		if( cmd == IOBN_BTNUP )

  00015	83 7d 0c 11	 cmp	 DWORD PTR _cmd$[ebp], 17 ; 00000011H
  00019	75 08		 jne	 SHORT $LN1@iwm_comman

; 570  : 		{
; 571  : 			HideWnd();

  0001b	8b ce		 mov	 ecx, esi
  0001d	ff 15 00 00 00
	00		 call	 DWORD PTR __imp_?HideWnd@ioWnd@@QAEXXZ
$LN1@iwm_comman:
  00023	5e		 pop	 esi

; 572  : 		}
; 573  : 		break;
; 574  : 	}
; 575  : }

  00024	5d		 pop	 ebp
  00025	c2 0c 00	 ret	 12			; 0000000cH
?iwm_command@GuildAttendRewardWnd@@UAEXPAVioWnd@@HK@Z ENDP ; GuildAttendRewardWnd::iwm_command
_TEXT	ENDS
PUBLIC	__real@3f59999a
PUBLIC	??_C@_0CN@OEGPEFNN@?$CFs?5?9?5Item?5Icon?5is?5not?5exist?5?9?5It@ ; `string'
PUBLIC	??_C@_0EK@OGPPCCIP@?$CFs?5?9?5Item?5Value?5is?5not?5exist?5?9?5P@ ; `string'
PUBLIC	??_C@_0CI@DEFHGHML@GuildAttendRewardWnd?3?3SettingRew@ ; `string'
PUBLIC	_iPresentValue2$GSCopy$
PUBLIC	_this$GSCopy$
PUBLIC	_iPresentValue1$GSCopy$
PUBLIC	_iPresentType$GSCopy$
PUBLIC	?SettingRewardInfo@GuildAttendRewardWnd@@QAEXEFHH@Z ; GuildAttendRewardWnd::SettingRewardInfo
EXTRN	__imp_?SafeSprintf@@YAXPADHPBD1@Z:PROC
EXTRN	?GetPresentValue1Text@ioPresentMgr@@QAEABVioHashString@@FHH@Z:PROC ; ioPresentMgr::GetPresentValue1Text
EXTRN	?AddTextPiece@ioComplexStringPrinter@@QAEXMPBDH@Z:PROC ; ioComplexStringPrinter::AddTextPiece
EXTRN	__imp_?CreateImageByFullName@ioUIImageSetManager@@QAEPAVioUIRenderImage@@ABVioHashString@@_N@Z:PROC
EXTRN	__imp_?GetSingleton@ioUIImageSetManager@@SAAAV1@XZ:PROC
EXTRN	__imp_??0ioHashString@@QAE@ABV0@@Z:PROC
EXTRN	?GetPresentIconText@ioPresentMgr@@QAEABVioHashString@@FHH@Z:PROC ; ioPresentMgr::GetPresentIconText
EXTRN	?GetSingleton@ioPresentMgr@@SAAAV1@XZ:PROC	; ioPresentMgr::GetSingleton
EXTRN	__EH_epilog3_GS:PROC
EXTRN	__EH_prolog3_GS:PROC
EXTRN	_memset:PROC
;	COMDAT __real@3f59999a
CONST	SEGMENT
__real@3f59999a DD 03f59999ar			; 0.85
CONST	ENDS
;	COMDAT ??_C@_0CN@OEGPEFNN@?$CFs?5?9?5Item?5Icon?5is?5not?5exist?5?9?5It@
CONST	SEGMENT
??_C@_0CN@OEGPEFNN@?$CFs?5?9?5Item?5Icon?5is?5not?5exist?5?9?5It@ DB '%s '
	DB	'- Item Icon is not exist - Item Name: %s,', 00H ; `string'
CONST	ENDS
;	COMDAT ??_C@_0EK@OGPPCCIP@?$CFs?5?9?5Item?5Value?5is?5not?5exist?5?9?5P@
CONST	SEGMENT
??_C@_0EK@OGPPCCIP@?$CFs?5?9?5Item?5Value?5is?5not?5exist?5?9?5P@ DB '%s '
	DB	'- Item Value is not exist - PresentType : %d, Value1 : %d, Va'
	DB	'lue2 : %d', 00H				; `string'
CONST	ENDS
;	COMDAT ??_C@_0CI@DEFHGHML@GuildAttendRewardWnd?3?3SettingRew@
CONST	SEGMENT
??_C@_0CI@DEFHGHML@GuildAttendRewardWnd?3?3SettingRew@ DB 'GuildAttendRew'
	DB	'ardWnd::SettingRewardInfo', 00H		; `string'
CONST	ENDS
;	COMDAT xdata$x
xdata$x	SEGMENT
__unwindtable$?SettingRewardInfo@GuildAttendRewardWnd@@QAEXEFHH@Z DD 0ffffffffH
	DD	FLAT:__unwindfunclet$?SettingRewardInfo@GuildAttendRewardWnd@@QAEXEFHH@Z$0
__ehfuncinfo$?SettingRewardInfo@GuildAttendRewardWnd@@QAEXEFHH@Z DD 019930522H
	DD	01H
	DD	FLAT:__unwindtable$?SettingRewardInfo@GuildAttendRewardWnd@@QAEXEFHH@Z
	DD	2 DUP(00H)
	DD	2 DUP(00H)
	DD	00H
	DD	01H
; Function compile flags: /Ogsp
xdata$x	ENDS
;	COMDAT ?SettingRewardInfo@GuildAttendRewardWnd@@QAEXEFHH@Z
_TEXT	SEGMENT
_szItemName$ = -308					; size = 16
_iPresentType$GSCopy$ = -292				; size = 2
_iPresentValue2$GSCopy$ = -288				; size = 4
_iPresentValue1$GSCopy$ = -284				; size = 4
_this$GSCopy$ = -280					; size = 4
_szBuf$ = -276						; size = 260
__$EHRec$ = -12						; size = 12
_btYesterdayAttendCount$ = 8				; size = 1
_iPresentType$ = 12					; size = 2
_iPresentValue1$ = 16					; size = 4
_iPresentValue2$ = 20					; size = 4
?SettingRewardInfo@GuildAttendRewardWnd@@QAEXEFHH@Z PROC ; GuildAttendRewardWnd::SettingRewardInfo, COMDAT
; _this$ = ecx

; 578  : {

  00000	68 28 01 00 00	 push	 296			; 00000128H
  00005	b8 00 00 00 00	 mov	 eax, __ehhandler$?SettingRewardInfo@GuildAttendRewardWnd@@QAEXEFHH@Z
  0000a	e8 00 00 00 00	 call	 __EH_prolog3_GS
  0000f	0f b7 45 0c	 movzx	 eax, WORD PTR _iPresentType$[ebp]
  00013	8b f1		 mov	 esi, ecx

; 614  : }

  00015	89 85 dc fe ff
	ff		 mov	 DWORD PTR _iPresentType$GSCopy$[ebp], eax
  0001b	8b 45 10	 mov	 eax, DWORD PTR _iPresentValue1$[ebp]
  0001e	89 85 e4 fe ff
	ff		 mov	 DWORD PTR _iPresentValue1$GSCopy$[ebp], eax
  00024	8b 45 14	 mov	 eax, DWORD PTR _iPresentValue2$[ebp]
  00027	8d 9e 64 01 00
	00		 lea	 ebx, DWORD PTR [esi+356]
  0002d	8b cb		 mov	 ecx, ebx
  0002f	89 b5 e8 fe ff
	ff		 mov	 DWORD PTR _this$GSCopy$[ebp], esi
  00035	89 85 e0 fe ff
	ff		 mov	 DWORD PTR _iPresentValue2$GSCopy$[ebp], eax
  0003b	e8 00 00 00 00	 call	 ?ClearList@ioComplexStringPrinter@@QAEXXZ ; ioComplexStringPrinter::ClearList
  00040	8d 8e 84 01 00
	00		 lea	 ecx, DWORD PTR [esi+388]
  00046	e8 00 00 00 00	 call	 ?ClearList@ioComplexStringPrinter@@QAEXXZ ; ioComplexStringPrinter::ClearList
  0004b	8b 8e 60 01 00
	00		 mov	 ecx, DWORD PTR [esi+352]
  00051	33 ff		 xor	 edi, edi
  00053	3b cf		 cmp	 ecx, edi
  00055	74 0d		 je	 SHORT $LN3@SettingRew

; 579  : 	m_AttendNumberPrinter.ClearList();
; 580  : 	m_ItemNamePrinter.ClearList();
; 581  : 	
; 582  : 	SAFEDELETE( m_pItemIcon );

  00057	8b 01		 mov	 eax, DWORD PTR [ecx]
  00059	6a 01		 push	 1
  0005b	ff 50 40	 call	 DWORD PTR [eax+64]
  0005e	89 be 60 01 00
	00		 mov	 DWORD PTR [esi+352], edi
$LN3@SettingRew:

; 583  : 
; 584  : 	ioHashString szItemName = g_PresentMgr.GetPresentIconText( iPresentType, iPresentValue1, iPresentValue2 );

  00064	ff b5 e0 fe ff
	ff		 push	 DWORD PTR _iPresentValue2$GSCopy$[ebp]
  0006a	ff b5 e4 fe ff
	ff		 push	 DWORD PTR _iPresentValue1$GSCopy$[ebp]
  00070	ff b5 dc fe ff
	ff		 push	 DWORD PTR _iPresentType$GSCopy$[ebp]
  00076	e8 00 00 00 00	 call	 ?GetSingleton@ioPresentMgr@@SAAAV1@XZ ; ioPresentMgr::GetSingleton
  0007b	8b c8		 mov	 ecx, eax
  0007d	e8 00 00 00 00	 call	 ?GetPresentIconText@ioPresentMgr@@QAEABVioHashString@@FHH@Z ; ioPresentMgr::GetPresentIconText
  00082	50		 push	 eax
  00083	8d 8d cc fe ff
	ff		 lea	 ecx, DWORD PTR _szItemName$[ebp]
  00089	ff 15 00 00 00
	00		 call	 DWORD PTR __imp_??0ioHashString@@QAE@ABV0@@Z

; 585  : 	if ( szItemName.IsEmpty() )

  0008f	8d 8d cc fe ff
	ff		 lea	 ecx, DWORD PTR _szItemName$[ebp]
  00095	89 7d fc	 mov	 DWORD PTR __$EHRec$[ebp+8], edi
  00098	ff 15 00 00 00
	00		 call	 DWORD PTR __imp_?IsEmpty@ioHashString@@QBE_NXZ
  0009e	84 c0		 test	 al, al
  000a0	74 33		 je	 SHORT $LN2@SettingRew

; 586  : 	{
; 587  : 		LOG.PrintTimeAndLog( 0, "%s - Item Value is not exist - PresentType : %d, Value1 : %d, Value2 : %d", __FUNCTION__, iPresentType, iPresentValue1, iPresentValue2 );

  000a2	ff b5 e0 fe ff
	ff		 push	 DWORD PTR _iPresentValue2$GSCopy$[ebp]
  000a8	0f bf 85 dc fe
	ff ff		 movsx	 eax, WORD PTR _iPresentType$GSCopy$[ebp]
  000af	ff b5 e4 fe ff
	ff		 push	 DWORD PTR _iPresentValue1$GSCopy$[ebp]
  000b5	50		 push	 eax
  000b6	68 00 00 00 00	 push	 OFFSET ??_C@_0CI@DEFHGHML@GuildAttendRewardWnd?3?3SettingRew@
  000bb	68 00 00 00 00	 push	 OFFSET ??_C@_0EK@OGPPCCIP@?$CFs?5?9?5Item?5Value?5is?5not?5exist?5?9?5P@
  000c0	57		 push	 edi
  000c1	ff 35 00 00 00
	00		 push	 DWORD PTR __imp_?LOG@@3VCLog@@A
  000c7	ff 15 00 00 00
	00		 call	 DWORD PTR __imp_?PrintTimeAndLog@CLog@@QAAXHPADZZ
  000cd	83 c4 1c	 add	 esp, 28			; 0000001cH

; 588  : 		return;

  000d0	e9 f5 01 00 00	 jmp	 $LN10@SettingRew
$LN2@SettingRew:

; 589  : 	}
; 590  : 
; 591  : 	m_pItemIcon = g_UIImageSetMgr.CreateImageByFullName( szItemName );

  000d5	8d 85 cc fe ff
	ff		 lea	 eax, DWORD PTR _szItemName$[ebp]
  000db	57		 push	 edi
  000dc	50		 push	 eax
  000dd	ff 15 00 00 00
	00		 call	 DWORD PTR __imp_?GetSingleton@ioUIImageSetManager@@SAAAV1@XZ
  000e3	8b c8		 mov	 ecx, eax
  000e5	ff 15 00 00 00
	00		 call	 DWORD PTR __imp_?CreateImageByFullName@ioUIImageSetManager@@QAEPAVioUIRenderImage@@ABVioHashString@@_N@Z
  000eb	89 86 60 01 00
	00		 mov	 DWORD PTR [esi+352], eax

; 592  : 	if ( !m_pItemIcon )

  000f1	be 00 00 00 00	 mov	 esi, OFFSET ??_C@_0CI@DEFHGHML@GuildAttendRewardWnd?3?3SettingRew@
  000f6	3b c7		 cmp	 eax, edi
  000f8	75 23		 jne	 SHORT $LN1@SettingRew

; 593  : 		LOG.PrintTimeAndLog( 0, "%s - Item Icon is not exist - Item Name: %s,", __FUNCTION__, szItemName.c_str() );

  000fa	8d 8d cc fe ff
	ff		 lea	 ecx, DWORD PTR _szItemName$[ebp]
  00100	ff 15 00 00 00
	00		 call	 DWORD PTR __imp_?c_str@ioHashString@@QBEPBDXZ
  00106	50		 push	 eax
  00107	56		 push	 esi
  00108	68 00 00 00 00	 push	 OFFSET ??_C@_0CN@OEGPEFNN@?$CFs?5?9?5Item?5Icon?5is?5not?5exist?5?9?5It@
  0010d	57		 push	 edi
  0010e	ff 35 00 00 00
	00		 push	 DWORD PTR __imp_?LOG@@3VCLog@@A
  00114	ff 15 00 00 00
	00		 call	 DWORD PTR __imp_?PrintTimeAndLog@CLog@@QAAXHPADZZ
  0011a	83 c4 14	 add	 esp, 20			; 00000014H
$LN1@SettingRew:

; 594  : 
; 595  : 	m_AttendNumberPrinter.SetTextStyle( TS_NORMAL );

  0011d	57		 push	 edi
  0011e	8b cb		 mov	 ecx, ebx
  00120	e8 00 00 00 00	 call	 ?SetTextStyle@ioComplexStringPrinter@@QAEXW4TextStyle@@@Z ; ioComplexStringPrinter::SetTextStyle

; 596  : 	m_AttendNumberPrinter.SetBkColor( 0, 0, 0 );

  00125	57		 push	 edi
  00126	57		 push	 edi
  00127	57		 push	 edi
  00128	8b cb		 mov	 ecx, ebx
  0012a	e8 00 00 00 00	 call	 ?SetBkColor@ioComplexStringPrinter@@QAEXHHH@Z ; ioComplexStringPrinter::SetBkColor

; 597  : 	m_AttendNumberPrinter.SetTextColor( TCT_DEFAULT_DARKGRAY );

  0012f	68 3a 3a 3a ff	 push	 -12961222		; ff3a3a3aH
  00134	8b cb		 mov	 ecx, ebx
  00136	e8 00 00 00 00	 call	 ?SetTextColor@ioComplexStringPrinter@@QAEXK@Z ; ioComplexStringPrinter::SetTextColor

; 598  : 	m_AttendNumberPrinter.AddTextPiece( FONT_SIZE_17, STR(1) );

  0013b	57		 push	 edi
  0013c	8b 3d 00 00 00
	00		 mov	 edi, DWORD PTR __imp_?GetSingleton@ioStringManager@@SAAAV1@XZ
  00142	6a 01		 push	 1
  00144	68 00 00 00 00	 push	 OFFSET ??_C@_00CNPNBAHC@?$AA@
  00149	56		 push	 esi
  0014a	ff d7		 call	 edi
  0014c	8b 1d 00 00 00
	00		 mov	 ebx, DWORD PTR __imp_?GetString@ioStringManager@@QAEPADPBD0HW4FileNamePrefix@1@@Z
  00152	8b c8		 mov	 ecx, eax
  00154	ff d3		 call	 ebx
  00156	f3 0f 10 05 00
	00 00 00	 movss	 xmm0, DWORD PTR __real@3f59999a
  0015e	50		 push	 eax
  0015f	8b 85 e8 fe ff
	ff		 mov	 eax, DWORD PTR _this$GSCopy$[ebp]
  00165	51		 push	 ecx
  00166	05 64 01 00 00	 add	 eax, 356		; 00000164H
  0016b	f3 0f 11 04 24	 movss	 DWORD PTR [esp], xmm0
  00170	50		 push	 eax
  00171	e8 00 00 00 00	 call	 ?AddTextPiece@ioComplexStringPrinter@@QAAXMPBDZZ ; ioComplexStringPrinter::AddTextPiece

; 599  : 	m_AttendNumberPrinter.SetTextColor( TCT_DEFAULT_GREEN );

  00176	8b 8d e8 fe ff
	ff		 mov	 ecx, DWORD PTR _this$GSCopy$[ebp]
  0017c	83 c4 0c	 add	 esp, 12			; 0000000cH
  0017f	68 22 72 11 ff	 push	 -15633886		; ff117222H
  00184	81 c1 64 01 00
	00		 add	 ecx, 356		; 00000164H
  0018a	e8 00 00 00 00	 call	 ?SetTextColor@ioComplexStringPrinter@@QAEXK@Z ; ioComplexStringPrinter::SetTextColor

; 600  : 	m_AttendNumberPrinter.AddTextPiece( FONT_SIZE_17, STR(2), btYesterdayAttendCount );

  0018f	0f b6 45 08	 movzx	 eax, BYTE PTR _btYesterdayAttendCount$[ebp]
  00193	50		 push	 eax
  00194	6a 00		 push	 0
  00196	6a 02		 push	 2
  00198	68 00 00 00 00	 push	 OFFSET ??_C@_00CNPNBAHC@?$AA@
  0019d	56		 push	 esi
  0019e	ff d7		 call	 edi
  001a0	8b c8		 mov	 ecx, eax
  001a2	ff d3		 call	 ebx
  001a4	f3 0f 10 05 00
	00 00 00	 movss	 xmm0, DWORD PTR __real@3f59999a
  001ac	50		 push	 eax
  001ad	51		 push	 ecx
  001ae	8b 8d e8 fe ff
	ff		 mov	 ecx, DWORD PTR _this$GSCopy$[ebp]
  001b4	81 c1 64 01 00
	00		 add	 ecx, 356		; 00000164H
  001ba	f3 0f 11 04 24	 movss	 DWORD PTR [esp], xmm0
  001bf	e8 00 00 00 00	 call	 ?AddTextPiece@ioComplexStringPrinter@@QAEXMPBDH@Z ; ioComplexStringPrinter::AddTextPiece

; 601  : 	m_AttendNumberPrinter.SetTextColor( TCT_DEFAULT_DARKGRAY );

  001c4	8b 8d e8 fe ff
	ff		 mov	 ecx, DWORD PTR _this$GSCopy$[ebp]
  001ca	68 3a 3a 3a ff	 push	 -12961222		; ff3a3a3aH
  001cf	81 c1 64 01 00
	00		 add	 ecx, 356		; 00000164H
  001d5	e8 00 00 00 00	 call	 ?SetTextColor@ioComplexStringPrinter@@QAEXK@Z ; ioComplexStringPrinter::SetTextColor

; 602  : 	m_AttendNumberPrinter.AddTextPiece( FONT_SIZE_17, STR(3) );

  001da	6a 00		 push	 0
  001dc	6a 03		 push	 3
  001de	68 00 00 00 00	 push	 OFFSET ??_C@_00CNPNBAHC@?$AA@
  001e3	56		 push	 esi
  001e4	ff d7		 call	 edi
  001e6	8b c8		 mov	 ecx, eax
  001e8	ff d3		 call	 ebx
  001ea	f3 0f 10 05 00
	00 00 00	 movss	 xmm0, DWORD PTR __real@3f59999a
  001f2	50		 push	 eax
  001f3	8b 85 e8 fe ff
	ff		 mov	 eax, DWORD PTR _this$GSCopy$[ebp]
  001f9	51		 push	 ecx
  001fa	05 64 01 00 00	 add	 eax, 356		; 00000164H
  001ff	f3 0f 11 04 24	 movss	 DWORD PTR [esp], xmm0
  00204	50		 push	 eax
  00205	e8 00 00 00 00	 call	 ?AddTextPiece@ioComplexStringPrinter@@QAAXMPBDZZ ; ioComplexStringPrinter::AddTextPiece

; 603  : 
; 604  : 
; 605  : 	char szBuf[MAX_PATH] = "";

  0020a	68 03 01 00 00	 push	 259			; 00000103H
  0020f	8d 85 ed fe ff
	ff		 lea	 eax, DWORD PTR _szBuf$[ebp+1]
  00215	6a 00		 push	 0
  00217	50		 push	 eax
  00218	c6 85 ec fe ff
	ff 00		 mov	 BYTE PTR _szBuf$[ebp], 0
  0021f	e8 00 00 00 00	 call	 _memset
  00224	83 c4 18	 add	 esp, 24			; 00000018H

; 606  : 	SafeSprintf( szBuf, sizeof(szBuf), STR(4), g_PresentMgr.GetPresentValue1Text( iPresentType, iPresentValue1, iPresentValue2 ).c_str() );

  00227	ff b5 e0 fe ff
	ff		 push	 DWORD PTR _iPresentValue2$GSCopy$[ebp]
  0022d	ff b5 e4 fe ff
	ff		 push	 DWORD PTR _iPresentValue1$GSCopy$[ebp]
  00233	ff b5 dc fe ff
	ff		 push	 DWORD PTR _iPresentType$GSCopy$[ebp]
  00239	e8 00 00 00 00	 call	 ?GetSingleton@ioPresentMgr@@SAAAV1@XZ ; ioPresentMgr::GetSingleton
  0023e	8b c8		 mov	 ecx, eax
  00240	e8 00 00 00 00	 call	 ?GetPresentValue1Text@ioPresentMgr@@QAEABVioHashString@@FHH@Z ; ioPresentMgr::GetPresentValue1Text
  00245	8b c8		 mov	 ecx, eax
  00247	ff 15 00 00 00
	00		 call	 DWORD PTR __imp_?c_str@ioHashString@@QBEPBDXZ
  0024d	50		 push	 eax
  0024e	6a 00		 push	 0
  00250	6a 04		 push	 4
  00252	68 00 00 00 00	 push	 OFFSET ??_C@_00CNPNBAHC@?$AA@
  00257	56		 push	 esi
  00258	ff d7		 call	 edi
  0025a	8b c8		 mov	 ecx, eax
  0025c	ff d3		 call	 ebx
  0025e	50		 push	 eax
  0025f	8d 85 ec fe ff
	ff		 lea	 eax, DWORD PTR _szBuf$[ebp]
  00265	68 04 01 00 00	 push	 260			; 00000104H
  0026a	50		 push	 eax
  0026b	ff 15 00 00 00
	00		 call	 DWORD PTR __imp_?SafeSprintf@@YAXPADHPBD1@Z

; 607  : 
; 608  : 	m_ItemNamePrinter.SetTextStyle( TS_NORMAL );

  00271	8b b5 e8 fe ff
	ff		 mov	 esi, DWORD PTR _this$GSCopy$[ebp]
  00277	83 c4 10	 add	 esp, 16			; 00000010H
  0027a	33 ff		 xor	 edi, edi
  0027c	81 c6 84 01 00
	00		 add	 esi, 388		; 00000184H
  00282	57		 push	 edi
  00283	8b ce		 mov	 ecx, esi
  00285	e8 00 00 00 00	 call	 ?SetTextStyle@ioComplexStringPrinter@@QAEXW4TextStyle@@@Z ; ioComplexStringPrinter::SetTextStyle

; 609  : 	m_ItemNamePrinter.SetBkColor( 0, 0, 0 );

  0028a	57		 push	 edi
  0028b	57		 push	 edi
  0028c	57		 push	 edi
  0028d	8b ce		 mov	 ecx, esi
  0028f	e8 00 00 00 00	 call	 ?SetBkColor@ioComplexStringPrinter@@QAEXHHH@Z ; ioComplexStringPrinter::SetBkColor

; 610  : 	m_ItemNamePrinter.SetTextColor( TCT_DEFAULT_GRAY );

  00294	68 6e 6e 6e ff	 push	 -9539986		; ff6e6e6eH
  00299	8b ce		 mov	 ecx, esi
  0029b	e8 00 00 00 00	 call	 ?SetTextColor@ioComplexStringPrinter@@QAEXK@Z ; ioComplexStringPrinter::SetTextColor

; 611  : 	m_ItemNamePrinter.AddTextPiece( FONT_SIZE_13, szBuf );

  002a0	f3 0f 10 05 00
	00 00 00	 movss	 xmm0, DWORD PTR __real@3f266666
  002a8	8d 85 ec fe ff
	ff		 lea	 eax, DWORD PTR _szBuf$[ebp]
  002ae	50		 push	 eax
  002af	51		 push	 ecx
  002b0	f3 0f 11 04 24	 movss	 DWORD PTR [esp], xmm0
  002b5	56		 push	 esi
  002b6	e8 00 00 00 00	 call	 ?AddTextPiece@ioComplexStringPrinter@@QAAXMPBDZZ ; ioComplexStringPrinter::AddTextPiece

; 612  : 
; 613  : 	ShowWnd();

  002bb	8b 8d e8 fe ff
	ff		 mov	 ecx, DWORD PTR _this$GSCopy$[ebp]
  002c1	83 c4 0c	 add	 esp, 12			; 0000000cH
  002c4	ff 15 00 00 00
	00		 call	 DWORD PTR __imp_?ShowWnd@ioWnd@@QAEXXZ
$LN10@SettingRew:

; 614  : }

  002ca	83 4d fc ff	 or	 DWORD PTR __$EHRec$[ebp+8], -1
  002ce	8d 8d cc fe ff
	ff		 lea	 ecx, DWORD PTR _szItemName$[ebp]
  002d4	ff 15 00 00 00
	00		 call	 DWORD PTR __imp_??1ioHashString@@QAE@XZ
  002da	e8 00 00 00 00	 call	 __EH_epilog3_GS
  002df	c2 10 00	 ret	 16			; 00000010H
_TEXT	ENDS
;	COMDAT text$x
text$x	SEGMENT
__unwindfunclet$?SettingRewardInfo@GuildAttendRewardWnd@@QAEXEFHH@Z$0:
  00000	8d 8d cc fe ff
	ff		 lea	 ecx, DWORD PTR _szItemName$[ebp]
  00006	ff 25 00 00 00
	00		 jmp	 DWORD PTR __imp_??1ioHashString@@QAE@XZ
__ehhandler$?SettingRewardInfo@GuildAttendRewardWnd@@QAEXEFHH@Z:
  0000c	8b 54 24 08	 mov	 edx, DWORD PTR [esp+8]
  00010	8d 42 0c	 lea	 eax, DWORD PTR [edx+12]
  00013	8b 8a c8 fe ff
	ff		 mov	 ecx, DWORD PTR [edx-312]
  00019	33 c8		 xor	 ecx, eax
  0001b	e8 00 00 00 00	 call	 @__security_check_cookie@4
  00020	8b 4a fc	 mov	 ecx, DWORD PTR [edx-4]
  00023	33 c8		 xor	 ecx, eax
  00025	e8 00 00 00 00	 call	 @__security_check_cookie@4
  0002a	b8 00 00 00 00	 mov	 eax, OFFSET __ehfuncinfo$?SettingRewardInfo@GuildAttendRewardWnd@@QAEXEFHH@Z
  0002f	e9 00 00 00 00	 jmp	 ___CxxFrameHandler3
text$x	ENDS
?SettingRewardInfo@GuildAttendRewardWnd@@QAEXEFHH@Z ENDP ; GuildAttendRewardWnd::SettingRewardInfo
PUBLIC	??_7GuildRankRewardWnd@@6B@			; GuildRankRewardWnd::`vftable'
PUBLIC	??0GuildRankRewardWnd@@QAE@XZ			; GuildRankRewardWnd::GuildRankRewardWnd
PUBLIC	??_R4GuildRankRewardWnd@@6B@			; GuildRankRewardWnd::`RTTI Complete Object Locator'
PUBLIC	??_R0?AVGuildRankRewardWnd@@@8			; GuildRankRewardWnd `RTTI Type Descriptor'
PUBLIC	??_R3GuildRankRewardWnd@@8			; GuildRankRewardWnd::`RTTI Class Hierarchy Descriptor'
PUBLIC	??_R2GuildRankRewardWnd@@8			; GuildRankRewardWnd::`RTTI Base Class Array'
PUBLIC	??_R1A@?0A@EA@GuildRankRewardWnd@@8		; GuildRankRewardWnd::`RTTI Base Class Descriptor at (0,-1,0,64)'
PUBLIC	?OnRender@GuildRankRewardWnd@@MAEXXZ		; GuildRankRewardWnd::OnRender
PUBLIC	?iwm_command@GuildRankRewardWnd@@UAEXPAVioWnd@@HK@Z ; GuildRankRewardWnd::iwm_command
EXTRN	??_EGuildRankRewardWnd@@UAEPAXI@Z:PROC		; GuildRankRewardWnd::`vector deleting destructor'
;	COMDAT ??_R1A@?0A@EA@GuildRankRewardWnd@@8
rdata$r	SEGMENT
??_R1A@?0A@EA@GuildRankRewardWnd@@8 DD FLAT:??_R0?AVGuildRankRewardWnd@@@8 ; GuildRankRewardWnd::`RTTI Base Class Descriptor at (0,-1,0,64)'
	DD	01H
	DD	00H
	DD	0ffffffffH
	DD	00H
	DD	040H
	DD	FLAT:??_R3GuildRankRewardWnd@@8
rdata$r	ENDS
;	COMDAT ??_R2GuildRankRewardWnd@@8
rdata$r	SEGMENT
??_R2GuildRankRewardWnd@@8 DD FLAT:??_R1A@?0A@EA@GuildRankRewardWnd@@8 ; GuildRankRewardWnd::`RTTI Base Class Array'
	DD	FLAT:??_R1A@?0A@EA@ioWnd@@8
rdata$r	ENDS
;	COMDAT ??_R3GuildRankRewardWnd@@8
rdata$r	SEGMENT
??_R3GuildRankRewardWnd@@8 DD 00H			; GuildRankRewardWnd::`RTTI Class Hierarchy Descriptor'
	DD	00H
	DD	02H
	DD	FLAT:??_R2GuildRankRewardWnd@@8
rdata$r	ENDS
;	COMDAT ??_R0?AVGuildRankRewardWnd@@@8
_DATA	SEGMENT
??_R0?AVGuildRankRewardWnd@@@8 DD FLAT:??_7type_info@@6B@ ; GuildRankRewardWnd `RTTI Type Descriptor'
	DD	00H
	DB	'.?AVGuildRankRewardWnd@@', 00H
_DATA	ENDS
;	COMDAT ??_R4GuildRankRewardWnd@@6B@
rdata$r	SEGMENT
??_R4GuildRankRewardWnd@@6B@ DD 00H			; GuildRankRewardWnd::`RTTI Complete Object Locator'
	DD	00H
	DD	00H
	DD	FLAT:??_R0?AVGuildRankRewardWnd@@@8
	DD	FLAT:??_R3GuildRankRewardWnd@@8
rdata$r	ENDS
;	COMDAT ??_7GuildRankRewardWnd@@6B@
CONST	SEGMENT
??_7GuildRankRewardWnd@@6B@ DD FLAT:??_R4GuildRankRewardWnd@@6B@ ; GuildRankRewardWnd::`vftable'
	DD	FLAT:?AddRenderFrame@ioWnd@@UAEXABVioHashString@@PAVioUIRenderFrame@@@Z
	DD	FLAT:?AddRenderImage@ioWnd@@UAEXABVioHashString@@PAVioUIRenderImage@@@Z
	DD	FLAT:?AddTooltipHelp@ioWnd@@UAEXABVioHashString@@00@Z
	DD	FLAT:?ParseExtraInfo@ioWnd@@UAEXAAVioXMLElement@@@Z
	DD	FLAT:?AddNamedRenderImage@ioWnd@@UAEXABVioHashString@@PAVioUIRenderImage@@@Z
	DD	FLAT:?RemoveNamedRenderImage@ioWnd@@UAEXABVioHashString@@@Z
	DD	FLAT:?GetNamedRenderImage@ioWnd@@UBEPAVioUIRenderImage@@ABVioHashString@@@Z
	DD	FLAT:?SetWindowAlpha@ioWnd@@UAEXH@Z
	DD	FLAT:?SetActive@ioWnd@@UAEXXZ
	DD	FLAT:?SetInActive@ioWnd@@UAEXXZ
	DD	FLAT:?ClearElementImageList@ioWnd@@UAEXXZ
	DD	FLAT:?SetSize@ioWnd@@UAEXHH@Z
	DD	FLAT:?SetPositionToDefault@ioWnd@@UAEXHH_N0@Z
	DD	FLAT:?IsNeedProcess@ioWnd@@UBE_NXZ
	DD	FLAT:?IsCanMouseReaction@ioWnd@@UBE_NXZ
	DD	FLAT:?AddChild@ioWnd@@UAEXPAV1@@Z
	DD	FLAT:?DeleteChild@ioWnd@@UAEXK@Z
	DD	FLAT:?DeleteAllChild@ioWnd@@UAEXXZ
	DD	FLAT:?OnRenderShowAndHide@ioWnd@@MAE_NXZ
	DD	FLAT:?OnRenderShowAndHideByDefault@ioWnd@@MAE_NK@Z
	DD	FLAT:?OnRenderShowAndHideByTop@ioWnd@@MAE_NK@Z
	DD	FLAT:?OnRenderShowAndHideByDown@ioWnd@@MAE_NK@Z
	DD	FLAT:?OnRender@GuildRankRewardWnd@@MAEXXZ
	DD	FLAT:?OnRenderAfterChild@ioWnd@@MAEXXZ
	DD	FLAT:?OnProcess@ioWnd@@MAEXM@Z
	DD	FLAT:?OnMouseProcess@ioWnd@@MAEXABVioMouse@@@Z
	DD	FLAT:?CheckFrameReSize@ioWnd@@MAEXHHHH@Z
	DD	FLAT:?RenderImageList@ioWnd@@MAEXHHW4UIRenderType@@@Z
	DD	FLAT:?iwm_create@ioWnd@@UAEXXZ
	DD	FLAT:?iwm_destroy@ioWnd@@UAEXXZ
	DD	FLAT:?iwm_lbuttondown@ioWnd@@UAEXABVioMouse@@@Z
	DD	FLAT:?iwm_lbuttonup@ioWnd@@UAEXABVioMouse@@@Z
	DD	FLAT:?iwm_lbuttonDBLCLK@ioWnd@@UAEXABVioMouse@@@Z
	DD	FLAT:?iwm_rbuttondown@ioWnd@@UAEXABVioMouse@@@Z
	DD	FLAT:?iwm_rbuttonup@ioWnd@@UAEXABVioMouse@@@Z
	DD	FLAT:?iwm_command@GuildRankRewardWnd@@UAEXPAVioWnd@@HK@Z
	DD	FLAT:?iwm_mouseover@ioWnd@@UAEXABVioMouse@@@Z
	DD	FLAT:?iwm_mousemove@ioWnd@@UAEXABVioMouse@@@Z
	DD	FLAT:?iwm_mouseleave@ioWnd@@UAEXABVioMouse@@@Z
	DD	FLAT:?iwm_vscroll@ioWnd@@UAEXKH@Z
	DD	FLAT:?iwm_wheel@ioWnd@@UAEXH@Z
	DD	FLAT:?iwm_show@ioWnd@@UAEXXZ
	DD	FLAT:?iwm_hide@ioWnd@@UAEXXZ
	DD	FLAT:?iwm_esc@ioWnd@@UAE_NXZ
	DD	FLAT:?iwm_spacebar@ioWnd@@UAE_NXZ
	DD	FLAT:?iwm_gototop@ioWnd@@UAEXXZ
	DD	FLAT:?iwm_dragenter@ioWnd@@UAE?AW4IWDropEffect@@PAVioDragItem@@ABVioMouse@@@Z
	DD	FLAT:?iwm_dragover@ioWnd@@UAE?AW4IWDropEffect@@PAVioDragItem@@ABVioMouse@@@Z
	DD	FLAT:?iwm_dragleave@ioWnd@@UAEXXZ
	DD	FLAT:?iwm_dropitem@ioWnd@@UAE_NPAVioDragItem@@ABVioMouse@@PAV1@@Z
	DD	FLAT:?iwm_dropdone@ioWnd@@UAEXPAVioDragItem@@PAV1@_N@Z
	DD	FLAT:?IsEXType@ioWnd@@UBE_NXZ
	DD	FLAT:?GetWndType@ioWnd@@UBEKXZ
	DD	FLAT:?RenderWnd@ioWnd@@UAEXXZ
	DD	FLAT:?SetIDEX@ioWnd@@UAEXAAK_N@Z
	DD	FLAT:?ParseXML@ioWnd@@UAEXAAVioXMLElement@@@Z
	DD	FLAT:?GetHeaderFileName@ioWnd@@UAEPBDXZ
	DD	FLAT:?GetTemplateName@ioWnd@@UAEPBDXZ
	DD	FLAT:?GetDefClassName@ioWnd@@UBEPBDXZ
	DD	FLAT:?_Clone@ioWnd@@UAEPAV1@XZ
	DD	FLAT:?Copy@ioWnd@@UAEXPAV1@@Z
	DD	FLAT:?Save@ioWnd@@UAE_NAAVioXMLElement@@@Z
	DD	FLAT:?SetSaveData@ioWnd@@UAEXAAVioXMLElement@@@Z
	DD	FLAT:?SetPosX@ioWnd@@UAEXH@Z
	DD	FLAT:?SetPosY@ioWnd@@UAEXH@Z
	DD	FLAT:?SetWidth@ioWnd@@UAEXH@Z
	DD	FLAT:?SetHeight@ioWnd@@UAEXH@Z
	DD	FLAT:?GetNumFixedRenderFrame@ioWnd@@UBEHXZ
	DD	FLAT:?GetFixedRenderFrameType@ioWnd@@UAEPBDH@Z
	DD	FLAT:?GetRenderFrame@ioWnd@@UAEPAPAVioUIRenderElement@@PBD@Z
	DD	FLAT:?GetNumFixedRenderImage@ioWnd@@UBEHXZ
	DD	FLAT:?GetFixedRenderImageType@ioWnd@@UAEPBDH@Z
	DD	FLAT:?GetRenderImage@ioWnd@@UAEPAPAVioUIRenderElement@@PBD@Z
	DD	FLAT:?AddEffect@ioWnd@@UAEXABVioHashString@@PAVioUI3DEffectRender@@@Z
	DD	FLAT:?GetEffect@ioWnd@@UAEPAVioUI3DEffectRender@@VioHashString@@@Z
	DD	FLAT:??_EGuildRankRewardWnd@@UAEPAXI@Z
CONST	ENDS
;	COMDAT xdata$x
xdata$x	SEGMENT
__unwindtable$??0GuildRankRewardWnd@@QAE@XZ DD 0ffffffffH
	DD	FLAT:__unwindfunclet$??0GuildRankRewardWnd@@QAE@XZ$0
	DD	00H
	DD	FLAT:__unwindfunclet$??0GuildRankRewardWnd@@QAE@XZ$1
__ehfuncinfo$??0GuildRankRewardWnd@@QAE@XZ DD 019930522H
	DD	02H
	DD	FLAT:__unwindtable$??0GuildRankRewardWnd@@QAE@XZ
	DD	2 DUP(00H)
	DD	2 DUP(00H)
	DD	00H
	DD	01H
; Function compile flags: /Ogsp
xdata$x	ENDS
;	COMDAT ??0GuildRankRewardWnd@@QAE@XZ
_TEXT	SEGMENT
_this$ = -16						; size = 4
__$EHRec$ = -12						; size = 12
??0GuildRankRewardWnd@@QAE@XZ PROC			; GuildRankRewardWnd::GuildRankRewardWnd, COMDAT
; _this$ = ecx

; 634  : {

  00000	6a 04		 push	 4
  00002	b8 00 00 00 00	 mov	 eax, __ehhandler$??0GuildRankRewardWnd@@QAE@XZ
  00007	e8 00 00 00 00	 call	 __EH_prolog3
  0000c	8b f1		 mov	 esi, ecx
  0000e	89 75 f0	 mov	 DWORD PTR _this$[ebp], esi
  00011	ff 15 00 00 00
	00		 call	 DWORD PTR __imp_??0ioWnd@@QAE@XZ
  00017	83 65 fc 00	 and	 DWORD PTR __$EHRec$[ebp+8], 0
  0001b	8d 8e 64 01 00
	00		 lea	 ecx, DWORD PTR [esi+356]
  00021	c7 06 00 00 00
	00		 mov	 DWORD PTR [esi], OFFSET ??_7GuildRankRewardWnd@@6B@
  00027	e8 00 00 00 00	 call	 ??0ioComplexStringPrinter@@QAE@XZ ; ioComplexStringPrinter::ioComplexStringPrinter
  0002c	8d 8e 84 01 00
	00		 lea	 ecx, DWORD PTR [esi+388]
  00032	c6 45 fc 01	 mov	 BYTE PTR __$EHRec$[ebp+8], 1
  00036	e8 00 00 00 00	 call	 ??0ioComplexStringPrinter@@QAE@XZ ; ioComplexStringPrinter::ioComplexStringPrinter

; 635  : 	m_pItemIcon = NULL;

  0003b	83 a6 60 01 00
	00 00		 and	 DWORD PTR [esi+352], 0

; 636  : }

  00042	8b c6		 mov	 eax, esi
  00044	e8 00 00 00 00	 call	 __EH_epilog3
  00049	c3		 ret	 0
_TEXT	ENDS
;	COMDAT text$x
text$x	SEGMENT
__unwindfunclet$??0GuildRankRewardWnd@@QAE@XZ$0:
  00000	8b 4d f0	 mov	 ecx, DWORD PTR _this$[ebp]
  00003	ff 25 00 00 00
	00		 jmp	 DWORD PTR __imp_??1ioWnd@@UAE@XZ
__unwindfunclet$??0GuildRankRewardWnd@@QAE@XZ$1:
  00009	8b 4d f0	 mov	 ecx, DWORD PTR _this$[ebp]
  0000c	81 c1 64 01 00
	00		 add	 ecx, 356		; 00000164H
  00012	e9 00 00 00 00	 jmp	 ??1ioComplexStringPrinter@@QAE@XZ ; ioComplexStringPrinter::~ioComplexStringPrinter
__ehhandler$??0GuildRankRewardWnd@@QAE@XZ:
  00017	8b 54 24 08	 mov	 edx, DWORD PTR [esp+8]
  0001b	8d 42 0c	 lea	 eax, DWORD PTR [edx+12]
  0001e	8b 4a ec	 mov	 ecx, DWORD PTR [edx-20]
  00021	33 c8		 xor	 ecx, eax
  00023	e8 00 00 00 00	 call	 @__security_check_cookie@4
  00028	b8 00 00 00 00	 mov	 eax, OFFSET __ehfuncinfo$??0GuildRankRewardWnd@@QAE@XZ
  0002d	e9 00 00 00 00	 jmp	 ___CxxFrameHandler3
text$x	ENDS
??0GuildRankRewardWnd@@QAE@XZ ENDP			; GuildRankRewardWnd::GuildRankRewardWnd
PUBLIC	??1GuildRankRewardWnd@@UAE@XZ			; GuildRankRewardWnd::~GuildRankRewardWnd
;	COMDAT xdata$x
xdata$x	SEGMENT
__unwindtable$??1GuildRankRewardWnd@@UAE@XZ DD 0ffffffffH
	DD	FLAT:__unwindfunclet$??1GuildRankRewardWnd@@UAE@XZ$0
	DD	00H
	DD	FLAT:__unwindfunclet$??1GuildRankRewardWnd@@UAE@XZ$1
	DD	01H
	DD	FLAT:__unwindfunclet$??1GuildRankRewardWnd@@UAE@XZ$2
__ehfuncinfo$??1GuildRankRewardWnd@@UAE@XZ DD 019930522H
	DD	03H
	DD	FLAT:__unwindtable$??1GuildRankRewardWnd@@UAE@XZ
	DD	2 DUP(00H)
	DD	2 DUP(00H)
	DD	00H
	DD	01H
; Function compile flags: /Ogsp
xdata$x	ENDS
;	COMDAT ??1GuildRankRewardWnd@@UAE@XZ
_TEXT	SEGMENT
_this$ = -16						; size = 4
__$EHRec$ = -12						; size = 12
??1GuildRankRewardWnd@@UAE@XZ PROC			; GuildRankRewardWnd::~GuildRankRewardWnd, COMDAT
; _this$ = ecx

; 639  : {

  00000	6a 04		 push	 4
  00002	b8 00 00 00 00	 mov	 eax, __ehhandler$??1GuildRankRewardWnd@@UAE@XZ
  00007	e8 00 00 00 00	 call	 __EH_prolog3
  0000c	8b f1		 mov	 esi, ecx
  0000e	89 75 f0	 mov	 DWORD PTR _this$[ebp], esi
  00011	c7 06 00 00 00
	00		 mov	 DWORD PTR [esi], OFFSET ??_7GuildRankRewardWnd@@6B@

; 640  : 	SAFEDELETE( m_pItemIcon );

  00017	8b 8e 60 01 00
	00		 mov	 ecx, DWORD PTR [esi+352]
  0001d	c7 45 fc 02 00
	00 00		 mov	 DWORD PTR __$EHRec$[ebp+8], 2
  00024	85 c9		 test	 ecx, ecx
  00026	74 0e		 je	 SHORT $LN1@GuildRankR
  00028	8b 01		 mov	 eax, DWORD PTR [ecx]
  0002a	6a 01		 push	 1
  0002c	ff 50 40	 call	 DWORD PTR [eax+64]
  0002f	83 a6 60 01 00
	00 00		 and	 DWORD PTR [esi+352], 0
$LN1@GuildRankR:

; 641  : }

  00036	8d 8e 84 01 00
	00		 lea	 ecx, DWORD PTR [esi+388]
  0003c	c6 45 fc 01	 mov	 BYTE PTR __$EHRec$[ebp+8], 1
  00040	e8 00 00 00 00	 call	 ??1ioComplexStringPrinter@@QAE@XZ ; ioComplexStringPrinter::~ioComplexStringPrinter
  00045	8d 8e 64 01 00
	00		 lea	 ecx, DWORD PTR [esi+356]
  0004b	c6 45 fc 00	 mov	 BYTE PTR __$EHRec$[ebp+8], 0
  0004f	e8 00 00 00 00	 call	 ??1ioComplexStringPrinter@@QAE@XZ ; ioComplexStringPrinter::~ioComplexStringPrinter
  00054	83 4d fc ff	 or	 DWORD PTR __$EHRec$[ebp+8], -1
  00058	8b ce		 mov	 ecx, esi
  0005a	ff 15 00 00 00
	00		 call	 DWORD PTR __imp_??1ioWnd@@UAE@XZ
  00060	e8 00 00 00 00	 call	 __EH_epilog3
  00065	c3		 ret	 0
_TEXT	ENDS
;	COMDAT text$x
text$x	SEGMENT
__unwindfunclet$??1GuildRankRewardWnd@@UAE@XZ$0:
  00000	8b 4d f0	 mov	 ecx, DWORD PTR _this$[ebp]
  00003	ff 25 00 00 00
	00		 jmp	 DWORD PTR __imp_??1ioWnd@@UAE@XZ
__unwindfunclet$??1GuildRankRewardWnd@@UAE@XZ$1:
  00009	8b 4d f0	 mov	 ecx, DWORD PTR _this$[ebp]
  0000c	81 c1 64 01 00
	00		 add	 ecx, 356		; 00000164H
  00012	e9 00 00 00 00	 jmp	 ??1ioComplexStringPrinter@@QAE@XZ ; ioComplexStringPrinter::~ioComplexStringPrinter
__unwindfunclet$??1GuildRankRewardWnd@@UAE@XZ$2:
  00017	8b 4d f0	 mov	 ecx, DWORD PTR _this$[ebp]
  0001a	81 c1 84 01 00
	00		 add	 ecx, 388		; 00000184H
  00020	e9 00 00 00 00	 jmp	 ??1ioComplexStringPrinter@@QAE@XZ ; ioComplexStringPrinter::~ioComplexStringPrinter
__ehhandler$??1GuildRankRewardWnd@@UAE@XZ:
  00025	8b 54 24 08	 mov	 edx, DWORD PTR [esp+8]
  00029	8d 42 0c	 lea	 eax, DWORD PTR [edx+12]
  0002c	8b 4a ec	 mov	 ecx, DWORD PTR [edx-20]
  0002f	33 c8		 xor	 ecx, eax
  00031	e8 00 00 00 00	 call	 @__security_check_cookie@4
  00036	b8 00 00 00 00	 mov	 eax, OFFSET __ehfuncinfo$??1GuildRankRewardWnd@@UAE@XZ
  0003b	e9 00 00 00 00	 jmp	 ___CxxFrameHandler3
text$x	ENDS
??1GuildRankRewardWnd@@UAE@XZ ENDP			; GuildRankRewardWnd::~GuildRankRewardWnd
PUBLIC	??_C@_0CG@IFIGCELP@GuildRankRewardWnd?3?3SettingRewar@ ; `string'
PUBLIC	_iPresentValue2$GSCopy$
PUBLIC	_this$GSCopy$
PUBLIC	_iPresentValue1$GSCopy$
PUBLIC	_iPresentType$GSCopy$
PUBLIC	?SettingRewardInfo@GuildRankRewardWnd@@QAEXHFHH@Z ; GuildRankRewardWnd::SettingRewardInfo
;	COMDAT ??_C@_0CG@IFIGCELP@GuildRankRewardWnd?3?3SettingRewar@
CONST	SEGMENT
??_C@_0CG@IFIGCELP@GuildRankRewardWnd?3?3SettingRewar@ DB 'GuildRankRewar'
	DB	'dWnd::SettingRewardInfo', 00H		; `string'
CONST	ENDS
;	COMDAT xdata$x
xdata$x	SEGMENT
__unwindtable$?SettingRewardInfo@GuildRankRewardWnd@@QAEXHFHH@Z DD 0ffffffffH
	DD	FLAT:__unwindfunclet$?SettingRewardInfo@GuildRankRewardWnd@@QAEXHFHH@Z$0
__ehfuncinfo$?SettingRewardInfo@GuildRankRewardWnd@@QAEXHFHH@Z DD 019930522H
	DD	01H
	DD	FLAT:__unwindtable$?SettingRewardInfo@GuildRankRewardWnd@@QAEXHFHH@Z
	DD	2 DUP(00H)
	DD	2 DUP(00H)
	DD	00H
	DD	01H
; Function compile flags: /Ogsp
xdata$x	ENDS
;	COMDAT ?SettingRewardInfo@GuildRankRewardWnd@@QAEXHFHH@Z
_TEXT	SEGMENT
_szItemName$ = -584					; size = 16
_iPresentValue1$GSCopy$ = -568				; size = 4
_iPresentValue2$GSCopy$ = -564				; size = 4
_iPresentType$GSCopy$ = -560				; size = 2
_this$GSCopy$ = -556					; size = 4
_szLevelText$ = -552					; size = 260
_szBuf$ = -292						; size = 260
_szLevel$ = -32						; size = 14
__$EHRec$ = -12						; size = 12
_iGuildLevel$ = 8					; size = 4
_iPresentType$ = 12					; size = 2
_iPresentValue1$ = 16					; size = 4
_iPresentValue2$ = 20					; size = 4
?SettingRewardInfo@GuildRankRewardWnd@@QAEXHFHH@Z PROC	; GuildRankRewardWnd::SettingRewardInfo, COMDAT
; _this$ = ecx

; 644  : {

  00000	68 3c 02 00 00	 push	 572			; 0000023cH
  00005	b8 00 00 00 00	 mov	 eax, __ehhandler$?SettingRewardInfo@GuildRankRewardWnd@@QAEXHFHH@Z
  0000a	e8 00 00 00 00	 call	 __EH_prolog3_GS
  0000f	0f b7 45 0c	 movzx	 eax, WORD PTR _iPresentType$[ebp]
  00013	8b 7d 08	 mov	 edi, DWORD PTR _iGuildLevel$[ebp]

; 687  : }

  00016	89 85 d0 fd ff
	ff		 mov	 DWORD PTR _iPresentType$GSCopy$[ebp], eax
  0001c	8b 45 10	 mov	 eax, DWORD PTR _iPresentValue1$[ebp]
  0001f	8b f1		 mov	 esi, ecx
  00021	89 85 c8 fd ff
	ff		 mov	 DWORD PTR _iPresentValue1$GSCopy$[ebp], eax
  00027	8b 45 14	 mov	 eax, DWORD PTR _iPresentValue2$[ebp]
  0002a	8d 8e 64 01 00
	00		 lea	 ecx, DWORD PTR [esi+356]
  00030	89 b5 d4 fd ff
	ff		 mov	 DWORD PTR _this$GSCopy$[ebp], esi
  00036	89 85 cc fd ff
	ff		 mov	 DWORD PTR _iPresentValue2$GSCopy$[ebp], eax
  0003c	e8 00 00 00 00	 call	 ?ClearList@ioComplexStringPrinter@@QAEXXZ ; ioComplexStringPrinter::ClearList
  00041	8d 8e 84 01 00
	00		 lea	 ecx, DWORD PTR [esi+388]
  00047	e8 00 00 00 00	 call	 ?ClearList@ioComplexStringPrinter@@QAEXXZ ; ioComplexStringPrinter::ClearList
  0004c	8b 8e 60 01 00
	00		 mov	 ecx, DWORD PTR [esi+352]
  00052	33 db		 xor	 ebx, ebx
  00054	3b cb		 cmp	 ecx, ebx
  00056	74 0d		 je	 SHORT $LN5@SettingRew@2

; 645  : 	m_GuildRankPrinter.ClearList();
; 646  : 	m_ItemNamePrinter.ClearList();
; 647  : 	SAFEDELETE( m_pItemIcon );

  00058	8b 01		 mov	 eax, DWORD PTR [ecx]
  0005a	6a 01		 push	 1
  0005c	ff 50 40	 call	 DWORD PTR [eax+64]
  0005f	89 9e 60 01 00
	00		 mov	 DWORD PTR [esi+352], ebx
$LN5@SettingRew@2:

; 648  : 
; 649  : 	ioHashString szItemName = g_PresentMgr.GetPresentIconText( iPresentType, iPresentValue1, iPresentValue2 );

  00065	ff b5 cc fd ff
	ff		 push	 DWORD PTR _iPresentValue2$GSCopy$[ebp]
  0006b	ff b5 c8 fd ff
	ff		 push	 DWORD PTR _iPresentValue1$GSCopy$[ebp]
  00071	ff b5 d0 fd ff
	ff		 push	 DWORD PTR _iPresentType$GSCopy$[ebp]
  00077	e8 00 00 00 00	 call	 ?GetSingleton@ioPresentMgr@@SAAAV1@XZ ; ioPresentMgr::GetSingleton
  0007c	8b c8		 mov	 ecx, eax
  0007e	e8 00 00 00 00	 call	 ?GetPresentIconText@ioPresentMgr@@QAEABVioHashString@@FHH@Z ; ioPresentMgr::GetPresentIconText
  00083	50		 push	 eax
  00084	8d 8d b8 fd ff
	ff		 lea	 ecx, DWORD PTR _szItemName$[ebp]
  0008a	ff 15 00 00 00
	00		 call	 DWORD PTR __imp_??0ioHashString@@QAE@ABV0@@Z

; 650  : 	if ( szItemName.IsEmpty() )

  00090	8d 8d b8 fd ff
	ff		 lea	 ecx, DWORD PTR _szItemName$[ebp]
  00096	89 5d fc	 mov	 DWORD PTR __$EHRec$[ebp+8], ebx
  00099	ff 15 00 00 00
	00		 call	 DWORD PTR __imp_?IsEmpty@ioHashString@@QBE_NXZ
  0009f	84 c0		 test	 al, al
  000a1	74 33		 je	 SHORT $LN4@SettingRew@2

; 651  : 	{
; 652  : 		LOG.PrintTimeAndLog( 0, "%s - Item Value is not exist - PresentType : %d, Value1 : %d, Value2 : %d", __FUNCTION__, iPresentType, iPresentValue1, iPresentValue2 );

  000a3	ff b5 cc fd ff
	ff		 push	 DWORD PTR _iPresentValue2$GSCopy$[ebp]
  000a9	0f bf 85 d0 fd
	ff ff		 movsx	 eax, WORD PTR _iPresentType$GSCopy$[ebp]
  000b0	ff b5 c8 fd ff
	ff		 push	 DWORD PTR _iPresentValue1$GSCopy$[ebp]
  000b6	50		 push	 eax
  000b7	68 00 00 00 00	 push	 OFFSET ??_C@_0CG@IFIGCELP@GuildRankRewardWnd?3?3SettingRewar@
  000bc	68 00 00 00 00	 push	 OFFSET ??_C@_0EK@OGPPCCIP@?$CFs?5?9?5Item?5Value?5is?5not?5exist?5?9?5P@
  000c1	53		 push	 ebx
  000c2	ff 35 00 00 00
	00		 push	 DWORD PTR __imp_?LOG@@3VCLog@@A
  000c8	ff 15 00 00 00
	00		 call	 DWORD PTR __imp_?PrintTimeAndLog@CLog@@QAAXHPADZZ
  000ce	83 c4 1c	 add	 esp, 28			; 0000001cH

; 653  : 		return;

  000d1	e9 8a 02 00 00	 jmp	 $LN1@SettingRew@2
$LN4@SettingRew@2:

; 654  : 	}
; 655  : 
; 656  : 	m_pItemIcon = g_UIImageSetMgr.CreateImageByFullName( szItemName );

  000d6	8d 85 b8 fd ff
	ff		 lea	 eax, DWORD PTR _szItemName$[ebp]
  000dc	53		 push	 ebx
  000dd	50		 push	 eax
  000de	ff 15 00 00 00
	00		 call	 DWORD PTR __imp_?GetSingleton@ioUIImageSetManager@@SAAAV1@XZ
  000e4	8b c8		 mov	 ecx, eax
  000e6	ff 15 00 00 00
	00		 call	 DWORD PTR __imp_?CreateImageByFullName@ioUIImageSetManager@@QAEPAVioUIRenderImage@@ABVioHashString@@_N@Z
  000ec	89 86 60 01 00
	00		 mov	 DWORD PTR [esi+352], eax

; 657  : 	if ( !m_pItemIcon )

  000f2	be 00 00 00 00	 mov	 esi, OFFSET ??_C@_0CG@IFIGCELP@GuildRankRewardWnd?3?3SettingRewar@
  000f7	3b c3		 cmp	 eax, ebx
  000f9	75 23		 jne	 SHORT $LN3@SettingRew@2

; 658  : 		LOG.PrintTimeAndLog( 0, "%s - Item Icon is not exist - Item Name: %s,", __FUNCTION__, szItemName.c_str() );

  000fb	8d 8d b8 fd ff
	ff		 lea	 ecx, DWORD PTR _szItemName$[ebp]
  00101	ff 15 00 00 00
	00		 call	 DWORD PTR __imp_?c_str@ioHashString@@QBEPBDXZ
  00107	50		 push	 eax
  00108	56		 push	 esi
  00109	68 00 00 00 00	 push	 OFFSET ??_C@_0CN@OEGPEFNN@?$CFs?5?9?5Item?5Icon?5is?5not?5exist?5?9?5It@
  0010e	53		 push	 ebx
  0010f	ff 35 00 00 00
	00		 push	 DWORD PTR __imp_?LOG@@3VCLog@@A
  00115	ff 15 00 00 00
	00		 call	 DWORD PTR __imp_?PrintTimeAndLog@CLog@@QAAXHPADZZ
  0011b	83 c4 14	 add	 esp, 20			; 00000014H
$LN3@SettingRew@2:

; 659  : 
; 660  : 	enum{ MAX_GUILD_LEVEL = 7, MAX_LEVEL = 2, };
; 661  : 	if ( !COMPARE( iGuildLevel, 0, MAX_GUILD_LEVEL + 1 ) )

  0011e	83 ff 07	 cmp	 edi, 7
  00121	0f 87 39 02 00
	00		 ja	 $LN1@SettingRew@2

; 663  : 
; 664  : 	char szLevelText[MAX_PATH] = "";

  00127	68 03 01 00 00	 push	 259			; 00000103H
  0012c	8d 85 d9 fd ff
	ff		 lea	 eax, DWORD PTR _szLevelText$[ebp+1]
  00132	53		 push	 ebx
  00133	50		 push	 eax
  00134	88 9d d8 fd ff
	ff		 mov	 BYTE PTR _szLevelText$[ebp], bl
  0013a	e8 00 00 00 00	 call	 _memset
  0013f	83 c4 0c	 add	 esp, 12			; 0000000cH

; 665  : 	char szLevel[MAX_GUILD_LEVEL][MAX_LEVEL] = { "F", "E", "D", "C", "B", "A", "S" };

  00142	6a 46		 push	 70			; 00000046H
  00144	58		 pop	 eax
  00145	6a 45		 push	 69			; 00000045H
  00147	66 89 45 e0	 mov	 WORD PTR _szLevel$[ebp], ax
  0014b	58		 pop	 eax
  0014c	6a 44		 push	 68			; 00000044H
  0014e	66 89 45 e2	 mov	 WORD PTR _szLevel$[ebp+2], ax
  00152	58		 pop	 eax
  00153	6a 43		 push	 67			; 00000043H
  00155	66 89 45 e4	 mov	 WORD PTR _szLevel$[ebp+4], ax
  00159	58		 pop	 eax
  0015a	6a 42		 push	 66			; 00000042H
  0015c	66 89 45 e6	 mov	 WORD PTR _szLevel$[ebp+6], ax
  00160	58		 pop	 eax
  00161	6a 41		 push	 65			; 00000041H
  00163	66 89 45 e8	 mov	 WORD PTR _szLevel$[ebp+8], ax
  00167	58		 pop	 eax
  00168	6a 53		 push	 83			; 00000053H
  0016a	66 89 45 ea	 mov	 WORD PTR _szLevel$[ebp+10], ax
  0016e	58		 pop	 eax
  0016f	66 89 45 ec	 mov	 WORD PTR _szLevel$[ebp+12], ax

; 666  : 	SafeSprintf( szLevelText, sizeof(szLevelText), STR(1), szLevel[iGuildLevel] );

  00173	8d 44 7d e0	 lea	 eax, DWORD PTR _szLevel$[ebp+edi*2]
  00177	8b 3d 00 00 00
	00		 mov	 edi, DWORD PTR __imp_?GetSingleton@ioStringManager@@SAAAV1@XZ
  0017d	50		 push	 eax
  0017e	53		 push	 ebx
  0017f	6a 01		 push	 1
  00181	68 00 00 00 00	 push	 OFFSET ??_C@_00CNPNBAHC@?$AA@
  00186	56		 push	 esi
  00187	ff d7		 call	 edi
  00189	8b c8		 mov	 ecx, eax
  0018b	ff 15 00 00 00
	00		 call	 DWORD PTR __imp_?GetString@ioStringManager@@QAEPADPBD0HW4FileNamePrefix@1@@Z
  00191	50		 push	 eax
  00192	8d 85 d8 fd ff
	ff		 lea	 eax, DWORD PTR _szLevelText$[ebp]
  00198	68 04 01 00 00	 push	 260			; 00000104H
  0019d	50		 push	 eax
  0019e	ff 15 00 00 00
	00		 call	 DWORD PTR __imp_?SafeSprintf@@YAXPADHPBD1@Z

; 667  : 
; 668  : 	m_GuildRankPrinter.SetTextStyle( TS_NORMAL );

  001a4	8b 8d d4 fd ff
	ff		 mov	 ecx, DWORD PTR _this$GSCopy$[ebp]
  001aa	83 c4 10	 add	 esp, 16			; 00000010H
  001ad	53		 push	 ebx
  001ae	81 c1 64 01 00
	00		 add	 ecx, 356		; 00000164H
  001b4	e8 00 00 00 00	 call	 ?SetTextStyle@ioComplexStringPrinter@@QAEXW4TextStyle@@@Z ; ioComplexStringPrinter::SetTextStyle

; 669  : 	m_GuildRankPrinter.SetBkColor( 0, 0, 0 );

  001b9	8b 8d d4 fd ff
	ff		 mov	 ecx, DWORD PTR _this$GSCopy$[ebp]
  001bf	53		 push	 ebx
  001c0	53		 push	 ebx
  001c1	53		 push	 ebx
  001c2	81 c1 64 01 00
	00		 add	 ecx, 356		; 00000164H
  001c8	e8 00 00 00 00	 call	 ?SetBkColor@ioComplexStringPrinter@@QAEXHHH@Z ; ioComplexStringPrinter::SetBkColor

; 670  : 	m_GuildRankPrinter.SetTextColor( TCT_DEFAULT_DARKGRAY );

  001cd	8b 8d d4 fd ff
	ff		 mov	 ecx, DWORD PTR _this$GSCopy$[ebp]
  001d3	68 3a 3a 3a ff	 push	 -12961222		; ff3a3a3aH
  001d8	81 c1 64 01 00
	00		 add	 ecx, 356		; 00000164H
  001de	e8 00 00 00 00	 call	 ?SetTextColor@ioComplexStringPrinter@@QAEXK@Z ; ioComplexStringPrinter::SetTextColor

; 671  : 	m_GuildRankPrinter.AddTextPiece( FONT_SIZE_17, STR(2) );

  001e3	53		 push	 ebx
  001e4	6a 02		 push	 2
  001e6	68 00 00 00 00	 push	 OFFSET ??_C@_00CNPNBAHC@?$AA@
  001eb	56		 push	 esi
  001ec	ff d7		 call	 edi
  001ee	8b c8		 mov	 ecx, eax
  001f0	ff 15 00 00 00
	00		 call	 DWORD PTR __imp_?GetString@ioStringManager@@QAEPADPBD0HW4FileNamePrefix@1@@Z
  001f6	f3 0f 10 05 00
	00 00 00	 movss	 xmm0, DWORD PTR __real@3f59999a
  001fe	50		 push	 eax
  001ff	8b 85 d4 fd ff
	ff		 mov	 eax, DWORD PTR _this$GSCopy$[ebp]
  00205	51		 push	 ecx
  00206	05 64 01 00 00	 add	 eax, 356		; 00000164H
  0020b	f3 0f 11 04 24	 movss	 DWORD PTR [esp], xmm0
  00210	50		 push	 eax
  00211	e8 00 00 00 00	 call	 ?AddTextPiece@ioComplexStringPrinter@@QAAXMPBDZZ ; ioComplexStringPrinter::AddTextPiece

; 672  : 	m_GuildRankPrinter.SetTextColor( TCT_DEFAULT_GREEN );

  00216	8b 8d d4 fd ff
	ff		 mov	 ecx, DWORD PTR _this$GSCopy$[ebp]
  0021c	83 c4 0c	 add	 esp, 12			; 0000000cH
  0021f	68 22 72 11 ff	 push	 -15633886		; ff117222H
  00224	81 c1 64 01 00
	00		 add	 ecx, 356		; 00000164H
  0022a	e8 00 00 00 00	 call	 ?SetTextColor@ioComplexStringPrinter@@QAEXK@Z ; ioComplexStringPrinter::SetTextColor

; 673  : 	m_GuildRankPrinter.AddTextPiece( FONT_SIZE_17, szLevelText );

  0022f	8d 85 d8 fd ff
	ff		 lea	 eax, DWORD PTR _szLevelText$[ebp]
  00235	50		 push	 eax
  00236	51		 push	 ecx
  00237	8b 85 d4 fd ff
	ff		 mov	 eax, DWORD PTR _this$GSCopy$[ebp]
  0023d	f3 0f 10 05 00
	00 00 00	 movss	 xmm0, DWORD PTR __real@3f59999a
  00245	05 64 01 00 00	 add	 eax, 356		; 00000164H
  0024a	f3 0f 11 04 24	 movss	 DWORD PTR [esp], xmm0
  0024f	50		 push	 eax
  00250	e8 00 00 00 00	 call	 ?AddTextPiece@ioComplexStringPrinter@@QAAXMPBDZZ ; ioComplexStringPrinter::AddTextPiece

; 674  : 	m_GuildRankPrinter.SetTextColor( TCT_DEFAULT_DARKGRAY );

  00255	8b 8d d4 fd ff
	ff		 mov	 ecx, DWORD PTR _this$GSCopy$[ebp]
  0025b	83 c4 0c	 add	 esp, 12			; 0000000cH
  0025e	68 3a 3a 3a ff	 push	 -12961222		; ff3a3a3aH
  00263	81 c1 64 01 00
	00		 add	 ecx, 356		; 00000164H
  00269	e8 00 00 00 00	 call	 ?SetTextColor@ioComplexStringPrinter@@QAEXK@Z ; ioComplexStringPrinter::SetTextColor

; 675  : 	m_GuildRankPrinter.AddTextPiece( FONT_SIZE_17, STR(3) );

  0026e	53		 push	 ebx
  0026f	6a 03		 push	 3
  00271	68 00 00 00 00	 push	 OFFSET ??_C@_00CNPNBAHC@?$AA@
  00276	56		 push	 esi
  00277	ff d7		 call	 edi
  00279	8b c8		 mov	 ecx, eax
  0027b	ff 15 00 00 00
	00		 call	 DWORD PTR __imp_?GetString@ioStringManager@@QAEPADPBD0HW4FileNamePrefix@1@@Z
  00281	f3 0f 10 05 00
	00 00 00	 movss	 xmm0, DWORD PTR __real@3f59999a
  00289	50		 push	 eax
  0028a	8b 85 d4 fd ff
	ff		 mov	 eax, DWORD PTR _this$GSCopy$[ebp]
  00290	51		 push	 ecx
  00291	05 64 01 00 00	 add	 eax, 356		; 00000164H
  00296	f3 0f 11 04 24	 movss	 DWORD PTR [esp], xmm0
  0029b	50		 push	 eax
  0029c	e8 00 00 00 00	 call	 ?AddTextPiece@ioComplexStringPrinter@@QAAXMPBDZZ ; ioComplexStringPrinter::AddTextPiece

; 676  : 
; 677  : 
; 678  : 	char szBuf[MAX_PATH] = "";

  002a1	68 03 01 00 00	 push	 259			; 00000103H
  002a6	8d 85 dd fe ff
	ff		 lea	 eax, DWORD PTR _szBuf$[ebp+1]
  002ac	53		 push	 ebx
  002ad	50		 push	 eax
  002ae	88 9d dc fe ff
	ff		 mov	 BYTE PTR _szBuf$[ebp], bl
  002b4	e8 00 00 00 00	 call	 _memset
  002b9	83 c4 18	 add	 esp, 24			; 00000018H

; 679  : 	SafeSprintf( szBuf, sizeof(szBuf), STR(4), g_PresentMgr.GetPresentValue1Text( iPresentType, iPresentValue1, iPresentValue2 ).c_str() );

  002bc	ff b5 cc fd ff
	ff		 push	 DWORD PTR _iPresentValue2$GSCopy$[ebp]
  002c2	ff b5 c8 fd ff
	ff		 push	 DWORD PTR _iPresentValue1$GSCopy$[ebp]
  002c8	ff b5 d0 fd ff
	ff		 push	 DWORD PTR _iPresentType$GSCopy$[ebp]
  002ce	e8 00 00 00 00	 call	 ?GetSingleton@ioPresentMgr@@SAAAV1@XZ ; ioPresentMgr::GetSingleton
  002d3	8b c8		 mov	 ecx, eax
  002d5	e8 00 00 00 00	 call	 ?GetPresentValue1Text@ioPresentMgr@@QAEABVioHashString@@FHH@Z ; ioPresentMgr::GetPresentValue1Text
  002da	8b c8		 mov	 ecx, eax
  002dc	ff 15 00 00 00
	00		 call	 DWORD PTR __imp_?c_str@ioHashString@@QBEPBDXZ
  002e2	50		 push	 eax
  002e3	53		 push	 ebx
  002e4	6a 04		 push	 4
  002e6	68 00 00 00 00	 push	 OFFSET ??_C@_00CNPNBAHC@?$AA@
  002eb	56		 push	 esi
  002ec	ff d7		 call	 edi
  002ee	8b c8		 mov	 ecx, eax
  002f0	ff 15 00 00 00
	00		 call	 DWORD PTR __imp_?GetString@ioStringManager@@QAEPADPBD0HW4FileNamePrefix@1@@Z
  002f6	50		 push	 eax
  002f7	8d 85 dc fe ff
	ff		 lea	 eax, DWORD PTR _szBuf$[ebp]
  002fd	68 04 01 00 00	 push	 260			; 00000104H
  00302	50		 push	 eax
  00303	ff 15 00 00 00
	00		 call	 DWORD PTR __imp_?SafeSprintf@@YAXPADHPBD1@Z

; 680  : 
; 681  : 	m_ItemNamePrinter.SetTextStyle( TS_NORMAL );

  00309	8b b5 d4 fd ff
	ff		 mov	 esi, DWORD PTR _this$GSCopy$[ebp]
  0030f	83 c4 10	 add	 esp, 16			; 00000010H
  00312	81 c6 84 01 00
	00		 add	 esi, 388		; 00000184H
  00318	53		 push	 ebx
  00319	8b ce		 mov	 ecx, esi
  0031b	e8 00 00 00 00	 call	 ?SetTextStyle@ioComplexStringPrinter@@QAEXW4TextStyle@@@Z ; ioComplexStringPrinter::SetTextStyle

; 682  : 	m_ItemNamePrinter.SetBkColor( 0, 0, 0 );

  00320	53		 push	 ebx
  00321	53		 push	 ebx
  00322	53		 push	 ebx
  00323	8b ce		 mov	 ecx, esi
  00325	e8 00 00 00 00	 call	 ?SetBkColor@ioComplexStringPrinter@@QAEXHHH@Z ; ioComplexStringPrinter::SetBkColor

; 683  : 	m_ItemNamePrinter.SetTextColor( TCT_DEFAULT_GRAY );

  0032a	68 6e 6e 6e ff	 push	 -9539986		; ff6e6e6eH
  0032f	8b ce		 mov	 ecx, esi
  00331	e8 00 00 00 00	 call	 ?SetTextColor@ioComplexStringPrinter@@QAEXK@Z ; ioComplexStringPrinter::SetTextColor

; 684  : 	m_ItemNamePrinter.AddTextPiece( FONT_SIZE_13, szBuf );

  00336	f3 0f 10 05 00
	00 00 00	 movss	 xmm0, DWORD PTR __real@3f266666
  0033e	8d 85 dc fe ff
	ff		 lea	 eax, DWORD PTR _szBuf$[ebp]
  00344	50		 push	 eax
  00345	51		 push	 ecx
  00346	f3 0f 11 04 24	 movss	 DWORD PTR [esp], xmm0
  0034b	56		 push	 esi
  0034c	e8 00 00 00 00	 call	 ?AddTextPiece@ioComplexStringPrinter@@QAAXMPBDZZ ; ioComplexStringPrinter::AddTextPiece

; 685  : 
; 686  : 	ShowWnd();

  00351	8b 8d d4 fd ff
	ff		 mov	 ecx, DWORD PTR _this$GSCopy$[ebp]
  00357	83 c4 0c	 add	 esp, 12			; 0000000cH
  0035a	ff 15 00 00 00
	00		 call	 DWORD PTR __imp_?ShowWnd@ioWnd@@QAEXXZ
$LN1@SettingRew@2:

; 662  : 		return;

  00360	83 4d fc ff	 or	 DWORD PTR __$EHRec$[ebp+8], -1
  00364	8d 8d b8 fd ff
	ff		 lea	 ecx, DWORD PTR _szItemName$[ebp]
  0036a	ff 15 00 00 00
	00		 call	 DWORD PTR __imp_??1ioHashString@@QAE@XZ

; 687  : }

  00370	e8 00 00 00 00	 call	 __EH_epilog3_GS
  00375	c2 10 00	 ret	 16			; 00000010H
_TEXT	ENDS
;	COMDAT text$x
text$x	SEGMENT
__unwindfunclet$?SettingRewardInfo@GuildRankRewardWnd@@QAEXHFHH@Z$0:
  00000	8d 8d b8 fd ff
	ff		 lea	 ecx, DWORD PTR _szItemName$[ebp]
  00006	ff 25 00 00 00
	00		 jmp	 DWORD PTR __imp_??1ioHashString@@QAE@XZ
__ehhandler$?SettingRewardInfo@GuildRankRewardWnd@@QAEXHFHH@Z:
  0000c	8b 54 24 08	 mov	 edx, DWORD PTR [esp+8]
  00010	8d 42 0c	 lea	 eax, DWORD PTR [edx+12]
  00013	8b 8a b4 fd ff
	ff		 mov	 ecx, DWORD PTR [edx-588]
  00019	33 c8		 xor	 ecx, eax
  0001b	e8 00 00 00 00	 call	 @__security_check_cookie@4
  00020	8b 4a fc	 mov	 ecx, DWORD PTR [edx-4]
  00023	33 c8		 xor	 ecx, eax
  00025	e8 00 00 00 00	 call	 @__security_check_cookie@4
  0002a	b8 00 00 00 00	 mov	 eax, OFFSET __ehfuncinfo$?SettingRewardInfo@GuildRankRewardWnd@@QAEXHFHH@Z
  0002f	e9 00 00 00 00	 jmp	 ___CxxFrameHandler3
text$x	ENDS
?SettingRewardInfo@GuildRankRewardWnd@@QAEXHFHH@Z ENDP	; GuildRankRewardWnd::SettingRewardInfo
PUBLIC	?_Adopt@_Iterator_base0@std@@QAEXPBX@Z		; std::_Iterator_base0::_Adopt
; Function compile flags: /Ogsp
; File c:\program files (x86)\microsoft visual studio 10.0\vc\include\xutility
;	COMDAT ?_Adopt@_Iterator_base0@std@@QAEXPBX@Z
_TEXT	SEGMENT
___formal$ = 8						; size = 4
?_Adopt@_Iterator_base0@std@@QAEXPBX@Z PROC		; std::_Iterator_base0::_Adopt, COMDAT
; _this$ = ecx

; 49   : 		}

  00000	c2 04 00	 ret	 4
?_Adopt@_Iterator_base0@std@@QAEXPBX@Z ENDP		; std::_Iterator_base0::_Adopt
; Function compile flags: /Ogsp
; File d:\lost saga for developer\youtube\tutorial\source\src\lsclient\gui\guildrewardwnd.cpp
_TEXT	ENDS
;	COMDAT ?iwm_command@GuildRankRewardWnd@@UAEXPAVioWnd@@HK@Z
_TEXT	SEGMENT
_pWnd$ = 8						; size = 4
_cmd$ = 12						; size = 4
_param$ = 16						; size = 4
?iwm_command@GuildRankRewardWnd@@UAEXPAVioWnd@@HK@Z PROC ; GuildRankRewardWnd::iwm_command, COMDAT
; _this$ = ecx

; 690  : {

  00000	55		 push	 ebp
  00001	8b ec		 mov	 ebp, esp
  00003	56		 push	 esi
  00004	8b f1		 mov	 esi, ecx

; 691  : 	DWORD dwID = pWnd->GetID();

  00006	8b 4d 08	 mov	 ecx, DWORD PTR _pWnd$[ebp]
  00009	ff 15 00 00 00
	00		 call	 DWORD PTR __imp_?GetID@ioWnd@@QBEKXZ

; 692  : 	switch( dwID )

  0000f	48		 dec	 eax
  00010	83 f8 01	 cmp	 eax, 1
  00013	77 0e		 ja	 SHORT $LN1@iwm_comman@2

; 693  : 	{
; 694  : 	case ID_X:
; 695  : 	case ID_OK:
; 696  : 		if( cmd == IOBN_BTNUP )

  00015	83 7d 0c 11	 cmp	 DWORD PTR _cmd$[ebp], 17 ; 00000011H
  00019	75 08		 jne	 SHORT $LN1@iwm_comman@2

; 697  : 		{
; 698  : 			HideWnd();

  0001b	8b ce		 mov	 ecx, esi
  0001d	ff 15 00 00 00
	00		 call	 DWORD PTR __imp_?HideWnd@ioWnd@@QAEXXZ
$LN1@iwm_comman@2:
  00023	5e		 pop	 esi

; 699  : 		}
; 700  : 		break;
; 701  : 	}
; 702  : }

  00024	5d		 pop	 ebp
  00025	c2 0c 00	 ret	 12			; 0000000cH
?iwm_command@GuildRankRewardWnd@@UAEXPAVioWnd@@HK@Z ENDP ; GuildRankRewardWnd::iwm_command
_TEXT	ENDS
PUBLIC	??_7GuildEnableRewardToolTip@@6B@		; GuildEnableRewardToolTip::`vftable'
PUBLIC	??0GuildEnableRewardToolTip@@QAE@XZ		; GuildEnableRewardToolTip::GuildEnableRewardToolTip
PUBLIC	??_R4GuildEnableRewardToolTip@@6B@		; GuildEnableRewardToolTip::`RTTI Complete Object Locator'
PUBLIC	??_R3GuildEnableRewardToolTip@@8		; GuildEnableRewardToolTip::`RTTI Class Hierarchy Descriptor'
PUBLIC	??_R2GuildEnableRewardToolTip@@8		; GuildEnableRewardToolTip::`RTTI Base Class Array'
PUBLIC	??_R1A@?0A@EA@GuildEnableRewardToolTip@@8	; GuildEnableRewardToolTip::`RTTI Base Class Descriptor at (0,-1,0,64)'
PUBLIC	?ParseExtraInfo@GuildEnableRewardToolTip@@UAEXAAVioXMLElement@@@Z ; GuildEnableRewardToolTip::ParseExtraInfo
PUBLIC	?OnRender@GuildEnableRewardToolTip@@MAEXXZ	; GuildEnableRewardToolTip::OnRender
PUBLIC	?OnProcess@GuildEnableRewardToolTip@@MAEXM@Z	; GuildEnableRewardToolTip::OnProcess
EXTRN	??_EGuildEnableRewardToolTip@@UAEPAXI@Z:PROC	; GuildEnableRewardToolTip::`vector deleting destructor'
;	COMDAT ??_R1A@?0A@EA@GuildEnableRewardToolTip@@8
rdata$r	SEGMENT
??_R1A@?0A@EA@GuildEnableRewardToolTip@@8 DD FLAT:??_R0?AVGuildEnableRewardToolTip@@@8 ; GuildEnableRewardToolTip::`RTTI Base Class Descriptor at (0,-1,0,64)'
	DD	01H
	DD	00H
	DD	0ffffffffH
	DD	00H
	DD	040H
	DD	FLAT:??_R3GuildEnableRewardToolTip@@8
rdata$r	ENDS
;	COMDAT ??_R2GuildEnableRewardToolTip@@8
rdata$r	SEGMENT
??_R2GuildEnableRewardToolTip@@8 DD FLAT:??_R1A@?0A@EA@GuildEnableRewardToolTip@@8 ; GuildEnableRewardToolTip::`RTTI Base Class Array'
	DD	FLAT:??_R1A@?0A@EA@ioWnd@@8
rdata$r	ENDS
;	COMDAT ??_R3GuildEnableRewardToolTip@@8
rdata$r	SEGMENT
??_R3GuildEnableRewardToolTip@@8 DD 00H			; GuildEnableRewardToolTip::`RTTI Class Hierarchy Descriptor'
	DD	00H
	DD	02H
	DD	FLAT:??_R2GuildEnableRewardToolTip@@8
rdata$r	ENDS
;	COMDAT ??_R4GuildEnableRewardToolTip@@6B@
rdata$r	SEGMENT
??_R4GuildEnableRewardToolTip@@6B@ DD 00H		; GuildEnableRewardToolTip::`RTTI Complete Object Locator'
	DD	00H
	DD	00H
	DD	FLAT:??_R0?AVGuildEnableRewardToolTip@@@8
	DD	FLAT:??_R3GuildEnableRewardToolTip@@8
rdata$r	ENDS
;	COMDAT ??_7GuildEnableRewardToolTip@@6B@
CONST	SEGMENT
??_7GuildEnableRewardToolTip@@6B@ DD FLAT:??_R4GuildEnableRewardToolTip@@6B@ ; GuildEnableRewardToolTip::`vftable'
	DD	FLAT:?AddRenderFrame@ioWnd@@UAEXABVioHashString@@PAVioUIRenderFrame@@@Z
	DD	FLAT:?AddRenderImage@ioWnd@@UAEXABVioHashString@@PAVioUIRenderImage@@@Z
	DD	FLAT:?AddTooltipHelp@ioWnd@@UAEXABVioHashString@@00@Z
	DD	FLAT:?ParseExtraInfo@GuildEnableRewardToolTip@@UAEXAAVioXMLElement@@@Z
	DD	FLAT:?AddNamedRenderImage@ioWnd@@UAEXABVioHashString@@PAVioUIRenderImage@@@Z
	DD	FLAT:?RemoveNamedRenderImage@ioWnd@@UAEXABVioHashString@@@Z
	DD	FLAT:?GetNamedRenderImage@ioWnd@@UBEPAVioUIRenderImage@@ABVioHashString@@@Z
	DD	FLAT:?SetWindowAlpha@ioWnd@@UAEXH@Z
	DD	FLAT:?SetActive@ioWnd@@UAEXXZ
	DD	FLAT:?SetInActive@ioWnd@@UAEXXZ
	DD	FLAT:?ClearElementImageList@ioWnd@@UAEXXZ
	DD	FLAT:?SetSize@ioWnd@@UAEXHH@Z
	DD	FLAT:?SetPositionToDefault@ioWnd@@UAEXHH_N0@Z
	DD	FLAT:?IsNeedProcess@ioWnd@@UBE_NXZ
	DD	FLAT:?IsCanMouseReaction@ioWnd@@UBE_NXZ
	DD	FLAT:?AddChild@ioWnd@@UAEXPAV1@@Z
	DD	FLAT:?DeleteChild@ioWnd@@UAEXK@Z
	DD	FLAT:?DeleteAllChild@ioWnd@@UAEXXZ
	DD	FLAT:?OnRenderShowAndHide@ioWnd@@MAE_NXZ
	DD	FLAT:?OnRenderShowAndHideByDefault@ioWnd@@MAE_NK@Z
	DD	FLAT:?OnRenderShowAndHideByTop@ioWnd@@MAE_NK@Z
	DD	FLAT:?OnRenderShowAndHideByDown@ioWnd@@MAE_NK@Z
	DD	FLAT:?OnRender@GuildEnableRewardToolTip@@MAEXXZ
	DD	FLAT:?OnRenderAfterChild@ioWnd@@MAEXXZ
	DD	FLAT:?OnProcess@GuildEnableRewardToolTip@@MAEXM@Z
	DD	FLAT:?OnMouseProcess@ioWnd@@MAEXABVioMouse@@@Z
	DD	FLAT:?CheckFrameReSize@ioWnd@@MAEXHHHH@Z
	DD	FLAT:?RenderImageList@ioWnd@@MAEXHHW4UIRenderType@@@Z
	DD	FLAT:?iwm_create@ioWnd@@UAEXXZ
	DD	FLAT:?iwm_destroy@ioWnd@@UAEXXZ
	DD	FLAT:?iwm_lbuttondown@ioWnd@@UAEXABVioMouse@@@Z
	DD	FLAT:?iwm_lbuttonup@ioWnd@@UAEXABVioMouse@@@Z
	DD	FLAT:?iwm_lbuttonDBLCLK@ioWnd@@UAEXABVioMouse@@@Z
	DD	FLAT:?iwm_rbuttondown@ioWnd@@UAEXABVioMouse@@@Z
	DD	FLAT:?iwm_rbuttonup@ioWnd@@UAEXABVioMouse@@@Z
	DD	FLAT:?iwm_command@ioWnd@@UAEXPAV1@HK@Z
	DD	FLAT:?iwm_mouseover@ioWnd@@UAEXABVioMouse@@@Z
	DD	FLAT:?iwm_mousemove@ioWnd@@UAEXABVioMouse@@@Z
	DD	FLAT:?iwm_mouseleave@ioWnd@@UAEXABVioMouse@@@Z
	DD	FLAT:?iwm_vscroll@ioWnd@@UAEXKH@Z
	DD	FLAT:?iwm_wheel@ioWnd@@UAEXH@Z
	DD	FLAT:?iwm_show@ioWnd@@UAEXXZ
	DD	FLAT:?iwm_hide@ioWnd@@UAEXXZ
	DD	FLAT:?iwm_esc@ioWnd@@UAE_NXZ
	DD	FLAT:?iwm_spacebar@ioWnd@@UAE_NXZ
	DD	FLAT:?iwm_gototop@ioWnd@@UAEXXZ
	DD	FLAT:?iwm_dragenter@ioWnd@@UAE?AW4IWDropEffect@@PAVioDragItem@@ABVioMouse@@@Z
	DD	FLAT:?iwm_dragover@ioWnd@@UAE?AW4IWDropEffect@@PAVioDragItem@@ABVioMouse@@@Z
	DD	FLAT:?iwm_dragleave@ioWnd@@UAEXXZ
	DD	FLAT:?iwm_dropitem@ioWnd@@UAE_NPAVioDragItem@@ABVioMouse@@PAV1@@Z
	DD	FLAT:?iwm_dropdone@ioWnd@@UAEXPAVioDragItem@@PAV1@_N@Z
	DD	FLAT:?IsEXType@ioWnd@@UBE_NXZ
	DD	FLAT:?GetWndType@ioWnd@@UBEKXZ
	DD	FLAT:?RenderWnd@ioWnd@@UAEXXZ
	DD	FLAT:?SetIDEX@ioWnd@@UAEXAAK_N@Z
	DD	FLAT:?ParseXML@ioWnd@@UAEXAAVioXMLElement@@@Z
	DD	FLAT:?GetHeaderFileName@ioWnd@@UAEPBDXZ
	DD	FLAT:?GetTemplateName@ioWnd@@UAEPBDXZ
	DD	FLAT:?GetDefClassName@ioWnd@@UBEPBDXZ
	DD	FLAT:?_Clone@ioWnd@@UAEPAV1@XZ
	DD	FLAT:?Copy@ioWnd@@UAEXPAV1@@Z
	DD	FLAT:?Save@ioWnd@@UAE_NAAVioXMLElement@@@Z
	DD	FLAT:?SetSaveData@ioWnd@@UAEXAAVioXMLElement@@@Z
	DD	FLAT:?SetPosX@ioWnd@@UAEXH@Z
	DD	FLAT:?SetPosY@ioWnd@@UAEXH@Z
	DD	FLAT:?SetWidth@ioWnd@@UAEXH@Z
	DD	FLAT:?SetHeight@ioWnd@@UAEXH@Z
	DD	FLAT:?GetNumFixedRenderFrame@ioWnd@@UBEHXZ
	DD	FLAT:?GetFixedRenderFrameType@ioWnd@@UAEPBDH@Z
	DD	FLAT:?GetRenderFrame@ioWnd@@UAEPAPAVioUIRenderElement@@PBD@Z
	DD	FLAT:?GetNumFixedRenderImage@ioWnd@@UBEHXZ
	DD	FLAT:?GetFixedRenderImageType@ioWnd@@UAEPBDH@Z
	DD	FLAT:?GetRenderImage@ioWnd@@UAEPAPAVioUIRenderElement@@PBD@Z
	DD	FLAT:?AddEffect@ioWnd@@UAEXABVioHashString@@PAVioUI3DEffectRender@@@Z
	DD	FLAT:?GetEffect@ioWnd@@UAEPAVioUI3DEffectRender@@VioHashString@@@Z
	DD	FLAT:??_EGuildEnableRewardToolTip@@UAEPAXI@Z
CONST	ENDS
;	COMDAT xdata$x
xdata$x	SEGMENT
__unwindtable$??0GuildEnableRewardToolTip@@QAE@XZ DD 0ffffffffH
	DD	FLAT:__unwindfunclet$??0GuildEnableRewardToolTip@@QAE@XZ$0
	DD	00H
	DD	FLAT:__unwindfunclet$??0GuildEnableRewardToolTip@@QAE@XZ$1
	DD	01H
	DD	FLAT:__unwindfunclet$??0GuildEnableRewardToolTip@@QAE@XZ$2
__ehfuncinfo$??0GuildEnableRewardToolTip@@QAE@XZ DD 019930522H
	DD	03H
	DD	FLAT:__unwindtable$??0GuildEnableRewardToolTip@@QAE@XZ
	DD	2 DUP(00H)
	DD	2 DUP(00H)
	DD	00H
	DD	01H
; Function compile flags: /Ogsp
xdata$x	ENDS
;	COMDAT ??0GuildEnableRewardToolTip@@QAE@XZ
_TEXT	SEGMENT
_this$ = -16						; size = 4
__$EHRec$ = -12						; size = 12
??0GuildEnableRewardToolTip@@QAE@XZ PROC		; GuildEnableRewardToolTip::GuildEnableRewardToolTip, COMDAT
; _this$ = ecx

; 722  : {

  00000	6a 04		 push	 4
  00002	b8 00 00 00 00	 mov	 eax, __ehhandler$??0GuildEnableRewardToolTip@@QAE@XZ
  00007	e8 00 00 00 00	 call	 __EH_prolog3
  0000c	8b f1		 mov	 esi, ecx
  0000e	89 75 f0	 mov	 DWORD PTR _this$[ebp], esi
  00011	ff 15 00 00 00
	00		 call	 DWORD PTR __imp_??0ioWnd@@QAE@XZ
  00017	83 65 fc 00	 and	 DWORD PTR __$EHRec$[ebp+8], 0
  0001b	8d 8e 60 01 00
	00		 lea	 ecx, DWORD PTR [esi+352]
  00021	c7 06 00 00 00
	00		 mov	 DWORD PTR [esi], OFFSET ??_7GuildEnableRewardToolTip@@6B@
  00027	e8 00 00 00 00	 call	 ??0ioComplexStringPrinter@@QAE@XZ ; ioComplexStringPrinter::ioComplexStringPrinter
  0002c	8d 8e 80 01 00
	00		 lea	 ecx, DWORD PTR [esi+384]
  00032	c6 45 fc 01	 mov	 BYTE PTR __$EHRec$[ebp+8], 1
  00036	ff 15 00 00 00
	00		 call	 DWORD PTR __imp_??0ioHashString@@QAE@XZ

; 723  : 	m_szPresentName.ClearList();

  0003c	8d 8e 60 01 00
	00		 lea	 ecx, DWORD PTR [esi+352]
  00042	c6 45 fc 02	 mov	 BYTE PTR __$EHRec$[ebp+8], 2
  00046	e8 00 00 00 00	 call	 ?ClearList@ioComplexStringPrinter@@QAEXXZ ; ioComplexStringPrinter::ClearList

; 724  : 	m_szRewardInfoOverSnd.Clear();

  0004b	8d 8e 80 01 00
	00		 lea	 ecx, DWORD PTR [esi+384]
  00051	ff 15 00 00 00
	00		 call	 DWORD PTR __imp_?Clear@ioHashString@@QAEXXZ

; 725  : }

  00057	8b c6		 mov	 eax, esi
  00059	e8 00 00 00 00	 call	 __EH_epilog3
  0005e	c3		 ret	 0
_TEXT	ENDS
;	COMDAT text$x
text$x	SEGMENT
__unwindfunclet$??0GuildEnableRewardToolTip@@QAE@XZ$0:
  00000	8b 4d f0	 mov	 ecx, DWORD PTR _this$[ebp]
  00003	ff 25 00 00 00
	00		 jmp	 DWORD PTR __imp_??1ioWnd@@UAE@XZ
__unwindfunclet$??0GuildEnableRewardToolTip@@QAE@XZ$1:
  00009	8b 4d f0	 mov	 ecx, DWORD PTR _this$[ebp]
  0000c	81 c1 60 01 00
	00		 add	 ecx, 352		; 00000160H
  00012	e9 00 00 00 00	 jmp	 ??1ioComplexStringPrinter@@QAE@XZ ; ioComplexStringPrinter::~ioComplexStringPrinter
__unwindfunclet$??0GuildEnableRewardToolTip@@QAE@XZ$2:
  00017	8b 4d f0	 mov	 ecx, DWORD PTR _this$[ebp]
  0001a	81 c1 80 01 00
	00		 add	 ecx, 384		; 00000180H
  00020	ff 25 00 00 00
	00		 jmp	 DWORD PTR __imp_??1ioHashString@@QAE@XZ
__ehhandler$??0GuildEnableRewardToolTip@@QAE@XZ:
  00026	8b 54 24 08	 mov	 edx, DWORD PTR [esp+8]
  0002a	8d 42 0c	 lea	 eax, DWORD PTR [edx+12]
  0002d	8b 4a ec	 mov	 ecx, DWORD PTR [edx-20]
  00030	33 c8		 xor	 ecx, eax
  00032	e8 00 00 00 00	 call	 @__security_check_cookie@4
  00037	b8 00 00 00 00	 mov	 eax, OFFSET __ehfuncinfo$??0GuildEnableRewardToolTip@@QAE@XZ
  0003c	e9 00 00 00 00	 jmp	 ___CxxFrameHandler3
text$x	ENDS
??0GuildEnableRewardToolTip@@QAE@XZ ENDP		; GuildEnableRewardToolTip::GuildEnableRewardToolTip
PUBLIC	??1GuildEnableRewardToolTip@@UAE@XZ		; GuildEnableRewardToolTip::~GuildEnableRewardToolTip
;	COMDAT xdata$x
xdata$x	SEGMENT
__unwindtable$??1GuildEnableRewardToolTip@@UAE@XZ DD 0ffffffffH
	DD	FLAT:__unwindfunclet$??1GuildEnableRewardToolTip@@UAE@XZ$0
	DD	00H
	DD	FLAT:__unwindfunclet$??1GuildEnableRewardToolTip@@UAE@XZ$1
	DD	01H
	DD	FLAT:__unwindfunclet$??1GuildEnableRewardToolTip@@UAE@XZ$2
__ehfuncinfo$??1GuildEnableRewardToolTip@@UAE@XZ DD 019930522H
	DD	03H
	DD	FLAT:__unwindtable$??1GuildEnableRewardToolTip@@UAE@XZ
	DD	2 DUP(00H)
	DD	2 DUP(00H)
	DD	00H
	DD	01H
; Function compile flags: /Ogsp
xdata$x	ENDS
;	COMDAT ??1GuildEnableRewardToolTip@@UAE@XZ
_TEXT	SEGMENT
_this$ = -16						; size = 4
__$EHRec$ = -12						; size = 12
??1GuildEnableRewardToolTip@@UAE@XZ PROC		; GuildEnableRewardToolTip::~GuildEnableRewardToolTip, COMDAT
; _this$ = ecx

; 728  : {

  00000	6a 04		 push	 4
  00002	b8 00 00 00 00	 mov	 eax, __ehhandler$??1GuildEnableRewardToolTip@@UAE@XZ
  00007	e8 00 00 00 00	 call	 __EH_prolog3
  0000c	8b f1		 mov	 esi, ecx
  0000e	89 75 f0	 mov	 DWORD PTR _this$[ebp], esi
  00011	c7 06 00 00 00
	00		 mov	 DWORD PTR [esi], OFFSET ??_7GuildEnableRewardToolTip@@6B@

; 729  : 	m_szPresentName.ClearList();

  00017	8d 8e 60 01 00
	00		 lea	 ecx, DWORD PTR [esi+352]
  0001d	c7 45 fc 02 00
	00 00		 mov	 DWORD PTR __$EHRec$[ebp+8], 2
  00024	e8 00 00 00 00	 call	 ?ClearList@ioComplexStringPrinter@@QAEXXZ ; ioComplexStringPrinter::ClearList

; 730  : 	m_szRewardInfoOverSnd.Clear();

  00029	8d 8e 80 01 00
	00		 lea	 ecx, DWORD PTR [esi+384]
  0002f	ff 15 00 00 00
	00		 call	 DWORD PTR __imp_?Clear@ioHashString@@QAEXXZ

; 731  : }

  00035	8d 8e 80 01 00
	00		 lea	 ecx, DWORD PTR [esi+384]
  0003b	c6 45 fc 01	 mov	 BYTE PTR __$EHRec$[ebp+8], 1
  0003f	ff 15 00 00 00
	00		 call	 DWORD PTR __imp_??1ioHashString@@QAE@XZ
  00045	8d 8e 60 01 00
	00		 lea	 ecx, DWORD PTR [esi+352]
  0004b	c6 45 fc 00	 mov	 BYTE PTR __$EHRec$[ebp+8], 0
  0004f	e8 00 00 00 00	 call	 ??1ioComplexStringPrinter@@QAE@XZ ; ioComplexStringPrinter::~ioComplexStringPrinter
  00054	83 4d fc ff	 or	 DWORD PTR __$EHRec$[ebp+8], -1
  00058	8b ce		 mov	 ecx, esi
  0005a	ff 15 00 00 00
	00		 call	 DWORD PTR __imp_??1ioWnd@@UAE@XZ
  00060	e8 00 00 00 00	 call	 __EH_epilog3
  00065	c3		 ret	 0
_TEXT	ENDS
;	COMDAT text$x
text$x	SEGMENT
__unwindfunclet$??1GuildEnableRewardToolTip@@UAE@XZ$0:
  00000	8b 4d f0	 mov	 ecx, DWORD PTR _this$[ebp]
  00003	ff 25 00 00 00
	00		 jmp	 DWORD PTR __imp_??1ioWnd@@UAE@XZ
__unwindfunclet$??1GuildEnableRewardToolTip@@UAE@XZ$1:
  00009	8b 4d f0	 mov	 ecx, DWORD PTR _this$[ebp]
  0000c	81 c1 60 01 00
	00		 add	 ecx, 352		; 00000160H
  00012	e9 00 00 00 00	 jmp	 ??1ioComplexStringPrinter@@QAE@XZ ; ioComplexStringPrinter::~ioComplexStringPrinter
__unwindfunclet$??1GuildEnableRewardToolTip@@UAE@XZ$2:
  00017	8b 4d f0	 mov	 ecx, DWORD PTR _this$[ebp]
  0001a	81 c1 80 01 00
	00		 add	 ecx, 384		; 00000180H
  00020	ff 25 00 00 00
	00		 jmp	 DWORD PTR __imp_??1ioHashString@@QAE@XZ
__ehhandler$??1GuildEnableRewardToolTip@@UAE@XZ:
  00026	8b 54 24 08	 mov	 edx, DWORD PTR [esp+8]
  0002a	8d 42 0c	 lea	 eax, DWORD PTR [edx+12]
  0002d	8b 4a ec	 mov	 ecx, DWORD PTR [edx-20]
  00030	33 c8		 xor	 ecx, eax
  00032	e8 00 00 00 00	 call	 @__security_check_cookie@4
  00037	b8 00 00 00 00	 mov	 eax, OFFSET __ehfuncinfo$??1GuildEnableRewardToolTip@@UAE@XZ
  0003c	e9 00 00 00 00	 jmp	 ___CxxFrameHandler3
text$x	ENDS
??1GuildEnableRewardToolTip@@UAE@XZ ENDP		; GuildEnableRewardToolTip::~GuildEnableRewardToolTip
PUBLIC	?size@?$vector@VGashaponPresent@@V?$allocator@VGashaponPresent@@@std@@@std@@QBEIXZ ; std::vector<GashaponPresent,std::allocator<GashaponPresent> >::size
; Function compile flags: /Ogsp
; File c:\program files (x86)\microsoft visual studio 10.0\vc\include\vector
;	COMDAT ?size@?$vector@VGashaponPresent@@V?$allocator@VGashaponPresent@@@std@@@std@@QBEIXZ
_TEXT	SEGMENT
?size@?$vector@VGashaponPresent@@V?$allocator@VGashaponPresent@@@std@@@std@@QBEIXZ PROC ; std::vector<GashaponPresent,std::allocator<GashaponPresent> >::size, COMDAT
; _this$ = ecx

; 879  : 		return (this->_Mylast - this->_Myfirst);

  00000	8b 41 04	 mov	 eax, DWORD PTR [ecx+4]
  00003	2b 01		 sub	 eax, DWORD PTR [ecx]
  00005	6a 14		 push	 20			; 00000014H
  00007	99		 cdq
  00008	59		 pop	 ecx
  00009	f7 f9		 idiv	 ecx

; 880  : 		}

  0000b	c3		 ret	 0
?size@?$vector@VGashaponPresent@@V?$allocator@VGashaponPresent@@@std@@@std@@QBEIXZ ENDP ; std::vector<GashaponPresent,std::allocator<GashaponPresent> >::size
_TEXT	ENDS
PUBLIC	??A?$vector@VGashaponPresent@@V?$allocator@VGashaponPresent@@@std@@@std@@QAEAAVGashaponPresent@@I@Z ; std::vector<GashaponPresent,std::allocator<GashaponPresent> >::operator[]
; Function compile flags: /Ogsp
;	COMDAT ??A?$vector@VGashaponPresent@@V?$allocator@VGashaponPresent@@@std@@@std@@QAEAAVGashaponPresent@@I@Z
_TEXT	SEGMENT
__Pos$ = 8						; size = 4
??A?$vector@VGashaponPresent@@V?$allocator@VGashaponPresent@@@std@@@std@@QAEAAVGashaponPresent@@I@Z PROC ; std::vector<GashaponPresent,std::allocator<GashaponPresent> >::operator[], COMDAT
; _this$ = ecx

; 928  : 		{	// subscript mutable sequence

  00000	55		 push	 ebp
  00001	8b ec		 mov	 ebp, esp

; 929  :  #if _ITERATOR_DEBUG_LEVEL == 2
; 930  : 		if (size() <= _Pos)
; 931  : 			{	// report error
; 932  : 			_DEBUG_ERROR("vector subscript out of range");
; 933  : 			_SCL_SECURE_OUT_OF_RANGE;
; 934  : 			}
; 935  : 
; 936  :  #elif _ITERATOR_DEBUG_LEVEL == 1
; 937  : 		_SCL_SECURE_VALIDATE_RANGE(_Pos < size());
; 938  :  #endif /* _ITERATOR_DEBUG_LEVEL */
; 939  : 
; 940  : 		return (*(this->_Myfirst + _Pos));

  00003	8b 45 08	 mov	 eax, DWORD PTR __Pos$[ebp]
  00006	6b c0 14	 imul	 eax, 20			; 00000014H
  00009	03 01		 add	 eax, DWORD PTR [ecx]

; 941  : 		}

  0000b	5d		 pop	 ebp
  0000c	c2 04 00	 ret	 4
??A?$vector@VGashaponPresent@@V?$allocator@VGashaponPresent@@@std@@@std@@QAEAAVGashaponPresent@@I@Z ENDP ; std::vector<GashaponPresent,std::allocator<GashaponPresent> >::operator[]
_TEXT	ENDS
PUBLIC	?capacity@?$vector@VGashaponPresent@@V?$allocator@VGashaponPresent@@@std@@@std@@QBEIXZ ; std::vector<GashaponPresent,std::allocator<GashaponPresent> >::capacity
; Function compile flags: /Ogsp
;	COMDAT ?capacity@?$vector@VGashaponPresent@@V?$allocator@VGashaponPresent@@@std@@@std@@QBEIXZ
_TEXT	SEGMENT
?capacity@?$vector@VGashaponPresent@@V?$allocator@VGashaponPresent@@@std@@@std@@QBEIXZ PROC ; std::vector<GashaponPresent,std::allocator<GashaponPresent> >::capacity, COMDAT
; _this$ = ecx

; 777  : 		return (this->_Myend - this->_Myfirst);

  00000	8b 41 08	 mov	 eax, DWORD PTR [ecx+8]
  00003	2b 01		 sub	 eax, DWORD PTR [ecx]
  00005	6a 14		 push	 20			; 00000014H
  00007	99		 cdq
  00008	59		 pop	 ecx
  00009	f7 f9		 idiv	 ecx

; 778  : 		}

  0000b	c3		 ret	 0
?capacity@?$vector@VGashaponPresent@@V?$allocator@VGashaponPresent@@@std@@@std@@QBEIXZ ENDP ; std::vector<GashaponPresent,std::allocator<GashaponPresent> >::capacity
_TEXT	ENDS
PUBLIC	??_C@_0BD@OLBABOEK@vector?$DMT?$DO?5too?5long?$AA@ ; `string'
PUBLIC	?_Xlen@?$vector@VGashaponPresent@@V?$allocator@VGashaponPresent@@@std@@@std@@IBEXXZ ; std::vector<GashaponPresent,std::allocator<GashaponPresent> >::_Xlen
EXTRN	__imp_?_Xlength_error@std@@YAXPBD@Z:PROC
;	COMDAT ??_C@_0BD@OLBABOEK@vector?$DMT?$DO?5too?5long?$AA@
CONST	SEGMENT
??_C@_0BD@OLBABOEK@vector?$DMT?$DO?5too?5long?$AA@ DB 'vector<T> too long'
	DB	00H						; `string'
; Function compile flags: /Ogsp
CONST	ENDS
;	COMDAT ?_Xlen@?$vector@VGashaponPresent@@V?$allocator@VGashaponPresent@@@std@@@std@@IBEXXZ
_TEXT	SEGMENT
?_Xlen@?$vector@VGashaponPresent@@V?$allocator@VGashaponPresent@@@std@@@std@@IBEXXZ PROC ; std::vector<GashaponPresent,std::allocator<GashaponPresent> >::_Xlen, COMDAT
; _this$ = ecx

; 1427 : 		_Xlength_error("vector<T> too long");

  00000	68 00 00 00 00	 push	 OFFSET ??_C@_0BD@OLBABOEK@vector?$DMT?$DO?5too?5long?$AA@
  00005	ff 15 00 00 00
	00		 call	 DWORD PTR __imp_?_Xlength_error@std@@YAXPBD@Z
$LN4@Xlen:
$LN3@Xlen:
  0000b	cc		 int	 3
?_Xlen@?$vector@VGashaponPresent@@V?$allocator@VGashaponPresent@@@std@@@std@@IBEXXZ ENDP ; std::vector<GashaponPresent,std::allocator<GashaponPresent> >::_Xlen
_TEXT	ENDS
PUBLIC	?max_size@?$allocator@VGashaponPresent@@@std@@QBEIXZ ; std::allocator<GashaponPresent>::max_size
; Function compile flags: /Ogsp
; File c:\program files (x86)\microsoft visual studio 10.0\vc\include\xmemory
;	COMDAT ?max_size@?$allocator@VGashaponPresent@@@std@@QBEIXZ
_TEXT	SEGMENT
?max_size@?$allocator@VGashaponPresent@@@std@@QBEIXZ PROC ; std::allocator<GashaponPresent>::max_size, COMDAT
; _this$ = ecx

; 218  : 		_SIZT _Count = (_SIZT)(-1) / sizeof (_Ty);
; 219  : 		return (0 < _Count ? _Count : 1);

  00000	b8 cc cc cc 0c	 mov	 eax, 214748364		; 0cccccccH

; 220  : 		}

  00005	c3		 ret	 0
?max_size@?$allocator@VGashaponPresent@@@std@@QBEIXZ ENDP ; std::allocator<GashaponPresent>::max_size
_TEXT	ENDS
PUBLIC	??0?$_Vector_const_iterator@V?$_Vector_val@VGashaponPresent@@V?$allocator@VGashaponPresent@@@std@@@std@@@std@@QAE@PAVGashaponPresent@@PBU_Container_base0@1@@Z ; std::_Vector_const_iterator<std::_Vector_val<GashaponPresent,std::allocator<GashaponPresent> > >::_Vector_const_iterator<std::_Vector_val<GashaponPresent,std::allocator<GashaponPresent> > >
; Function compile flags: /Ogsp
; File c:\program files (x86)\microsoft visual studio 10.0\vc\include\vector
;	COMDAT ??0?$_Vector_const_iterator@V?$_Vector_val@VGashaponPresent@@V?$allocator@VGashaponPresent@@@std@@@std@@@std@@QAE@PAVGashaponPresent@@PBU_Container_base0@1@@Z
_TEXT	SEGMENT
__Parg$ = 8						; size = 4
__Pvector$ = 12						; size = 4
??0?$_Vector_const_iterator@V?$_Vector_val@VGashaponPresent@@V?$allocator@VGashaponPresent@@@std@@@std@@@std@@QAE@PAVGashaponPresent@@PBU_Container_base0@1@@Z PROC ; std::_Vector_const_iterator<std::_Vector_val<GashaponPresent,std::allocator<GashaponPresent> > >::_Vector_const_iterator<std::_Vector_val<GashaponPresent,std::allocator<GashaponPresent> > >, COMDAT
; _this$ = ecx

; 45   : 		{	// construct with pointer _Parg

  00000	55		 push	 ebp
  00001	8b ec		 mov	 ebp, esp
  00003	8b c1		 mov	 eax, ecx
  00005	8b 4d 08	 mov	 ecx, DWORD PTR __Parg$[ebp]
  00008	89 08		 mov	 DWORD PTR [eax], ecx

; 46   : 		this->_Adopt(_Pvector);
; 47   : 		}

  0000a	5d		 pop	 ebp
  0000b	c2 08 00	 ret	 8
??0?$_Vector_const_iterator@V?$_Vector_val@VGashaponPresent@@V?$allocator@VGashaponPresent@@@std@@@std@@@std@@QAE@PAVGashaponPresent@@PBU_Container_base0@1@@Z ENDP ; std::_Vector_const_iterator<std::_Vector_val<GashaponPresent,std::allocator<GashaponPresent> > >::_Vector_const_iterator<std::_Vector_val<GashaponPresent,std::allocator<GashaponPresent> > >
_TEXT	ENDS
PUBLIC	?_Compat@?$_Vector_const_iterator@V?$_Vector_val@VGashaponPresent@@V?$allocator@VGashaponPresent@@@std@@@std@@@std@@QBEXABV12@@Z ; std::_Vector_const_iterator<std::_Vector_val<GashaponPresent,std::allocator<GashaponPresent> > >::_Compat
; Function compile flags: /Ogsp
;	COMDAT ?_Compat@?$_Vector_const_iterator@V?$_Vector_val@VGashaponPresent@@V?$allocator@VGashaponPresent@@@std@@@std@@@std@@QBEXABV12@@Z
_TEXT	SEGMENT
___formal$ = 8						; size = 4
?_Compat@?$_Vector_const_iterator@V?$_Vector_val@VGashaponPresent@@V?$allocator@VGashaponPresent@@@std@@@std@@@std@@QBEXABV12@@Z PROC ; std::_Vector_const_iterator<std::_Vector_val<GashaponPresent,std::allocator<GashaponPresent> > >::_Compat, COMDAT
; _this$ = ecx

; 253  : 		}

  00000	c2 04 00	 ret	 4
?_Compat@?$_Vector_const_iterator@V?$_Vector_val@VGashaponPresent@@V?$allocator@VGashaponPresent@@@std@@@std@@@std@@QBEXABV12@@Z ENDP ; std::_Vector_const_iterator<std::_Vector_val<GashaponPresent,std::allocator<GashaponPresent> > >::_Compat
_TEXT	ENDS
PUBLIC	??$sprintf_s@$0BAE@@@YAHAAY0BAE@DPBDZZ		; sprintf_s<260>
EXTRN	__imp__vsprintf_s:PROC
; Function compile flags: /Ogsp
; File c:\program files (x86)\microsoft visual studio 10.0\vc\include\stdio.h
;	COMDAT ??$sprintf_s@$0BAE@@@YAHAAY0BAE@DPBDZZ
_TEXT	SEGMENT
__Dest$ = 8						; size = 4
__Format$ = 12						; size = 4
??$sprintf_s@$0BAE@@@YAHAAY0BAE@DPBDZZ PROC		; sprintf_s<260>, COMDAT

; 323  : __DEFINE_CPP_OVERLOAD_SECURE_FUNC_0_1_ARGLIST(int, sprintf_s, vsprintf_s, _Deref_post_z_ char, _Dest, _In_z_ _Printf_format_string_ const char *, _Format)

  00000	55		 push	 ebp
  00001	8b ec		 mov	 ebp, esp
  00003	8d 45 10	 lea	 eax, DWORD PTR __Format$[ebp+4]
  00006	50		 push	 eax
  00007	ff 75 0c	 push	 DWORD PTR __Format$[ebp]
  0000a	68 04 01 00 00	 push	 260			; 00000104H
  0000f	ff 75 08	 push	 DWORD PTR __Dest$[ebp]
  00012	ff 15 00 00 00
	00		 call	 DWORD PTR __imp__vsprintf_s
  00018	83 c4 10	 add	 esp, 16			; 00000010H
  0001b	5d		 pop	 ebp
  0001c	c3		 ret	 0
??$sprintf_s@$0BAE@@@YAHAAY0BAE@DPBDZZ ENDP		; sprintf_s<260>
_TEXT	ENDS
PUBLIC	__TI2?AVbad_alloc@std@@
PUBLIC	??$_Allocate@VGashaponPresent@@@std@@YAPAVGashaponPresent@@IPAV1@@Z ; std::_Allocate<GashaponPresent>
PUBLIC	__CTA2?AVbad_alloc@std@@
PUBLIC	__CT??_R0?AVbad_alloc@std@@@8??0bad_alloc@std@@QAE@ABV01@@Z12
PUBLIC	??0bad_alloc@std@@QAE@ABV01@@Z			; std::bad_alloc::bad_alloc
PUBLIC	__CT??_R0?AVexception@std@@@8??0exception@std@@QAE@ABV01@@Z12
EXTRN	??2@YAPAXI@Z:PROC				; operator new
EXTRN	__CxxThrowException@8:PROC
EXTRN	??0exception@std@@QAE@ABV01@@Z:PROC		; std::exception::exception
;	COMDAT __CT??_R0?AVexception@std@@@8??0exception@std@@QAE@ABV01@@Z12
; File c:\program files (x86)\microsoft visual studio 10.0\vc\include\exception
xdata$x	SEGMENT
__CT??_R0?AVexception@std@@@8??0exception@std@@QAE@ABV01@@Z12 DD 00H
	DD	FLAT:??_R0?AVexception@std@@@8
	DD	00H
	DD	0ffffffffH
	ORG $+4
	DD	0cH
	DD	FLAT:??0exception@std@@QAE@ABV01@@Z
xdata$x	ENDS
;	COMDAT __CT??_R0?AVbad_alloc@std@@@8??0bad_alloc@std@@QAE@ABV01@@Z12
xdata$x	SEGMENT
__CT??_R0?AVbad_alloc@std@@@8??0bad_alloc@std@@QAE@ABV01@@Z12 DD 00H
	DD	FLAT:??_R0?AVbad_alloc@std@@@8
	DD	00H
	DD	0ffffffffH
	ORG $+4
	DD	0cH
	DD	FLAT:??0bad_alloc@std@@QAE@ABV01@@Z
xdata$x	ENDS
;	COMDAT __CTA2?AVbad_alloc@std@@
xdata$x	SEGMENT
__CTA2?AVbad_alloc@std@@ DD 02H
	DD	FLAT:__CT??_R0?AVbad_alloc@std@@@8??0bad_alloc@std@@QAE@ABV01@@Z12
	DD	FLAT:__CT??_R0?AVexception@std@@@8??0exception@std@@QAE@ABV01@@Z12
xdata$x	ENDS
;	COMDAT __TI2?AVbad_alloc@std@@
xdata$x	SEGMENT
__TI2?AVbad_alloc@std@@ DD 00H
	DD	FLAT:??1bad_alloc@std@@UAE@XZ
	DD	00H
	DD	FLAT:__CTA2?AVbad_alloc@std@@
; Function compile flags: /Ogsp
; File c:\program files (x86)\microsoft visual studio 10.0\vc\include\xmemory
xdata$x	ENDS
;	COMDAT ??$_Allocate@VGashaponPresent@@@std@@YAPAVGashaponPresent@@IPAV1@@Z
_TEXT	SEGMENT
$T512329 = -12						; size = 12
$T512334 = 8						; size = 4
__Count$ = 8						; size = 4
___formal$ = 12						; size = 4
??$_Allocate@VGashaponPresent@@@std@@YAPAVGashaponPresent@@IPAV1@@Z PROC ; std::_Allocate<GashaponPresent>, COMDAT

; 30   : 	{	// allocate storage for _Count elements of type _Ty

  00000	55		 push	 ebp
  00001	8b ec		 mov	 ebp, esp

; 31   : 	void *_Ptr = 0;
; 32   : 
; 33   : 	if (_Count <= 0)

  00003	8b 4d 08	 mov	 ecx, DWORD PTR __Count$[ebp]
  00006	83 ec 0c	 sub	 esp, 12			; 0000000cH
  00009	33 c0		 xor	 eax, eax
  0000b	85 c9		 test	 ecx, ecx

; 34   : 		_Count = 0;
; 35   : 	else if (((_SIZT)(-1) / sizeof (_Ty) < _Count)

  0000d	74 3c		 je	 SHORT $LN5@Allocate

; 36   : 		|| (_Ptr = ::operator new(_Count * sizeof (_Ty))) == 0)

  0000f	81 f9 cc cc cc
	0c		 cmp	 ecx, 214748364		; 0cccccccH
  00015	77 0e		 ja	 SHORT $LN1@Allocate
  00017	6b c9 14	 imul	 ecx, 20			; 00000014H
  0001a	51		 push	 ecx
  0001b	e8 00 00 00 00	 call	 ??2@YAPAXI@Z		; operator new
  00020	59		 pop	 ecx
  00021	85 c0		 test	 eax, eax

; 38   : 
; 39   : 	return ((_Ty _FARQ *)_Ptr);

  00023	75 26		 jne	 SHORT $LN5@Allocate
$LN1@Allocate:

; 37   : 		_THROW_NCEE(bad_alloc, 0);

  00025	83 65 08 00	 and	 DWORD PTR $T512334[ebp], 0
  00029	8d 45 08	 lea	 eax, DWORD PTR $T512334[ebp]
  0002c	50		 push	 eax
  0002d	8d 4d f4	 lea	 ecx, DWORD PTR $T512329[ebp]
  00030	ff 15 00 00 00
	00		 call	 DWORD PTR __imp_??0exception@std@@QAE@ABQBD@Z
  00036	68 00 00 00 00	 push	 OFFSET __TI2?AVbad_alloc@std@@
  0003b	8d 45 f4	 lea	 eax, DWORD PTR $T512329[ebp]
  0003e	50		 push	 eax
  0003f	c7 45 f4 00 00
	00 00		 mov	 DWORD PTR $T512329[ebp], OFFSET ??_7bad_alloc@std@@6B@
  00046	e8 00 00 00 00	 call	 __CxxThrowException@8
$LN10@Allocate:
$LN5@Allocate:

; 40   : 	}

  0004b	c9		 leave
  0004c	c3		 ret	 0
$LN9@Allocate:
??$_Allocate@VGashaponPresent@@@std@@YAPAVGashaponPresent@@IPAV1@@Z ENDP ; std::_Allocate<GashaponPresent>
_TEXT	ENDS
PUBLIC	??$_Copy_impl@PAVGashaponPresent@@PAV1@@std@@YAPAVGashaponPresent@@PAV1@00U_Nonscalar_ptr_iterator_tag@0@@Z ; std::_Copy_impl<GashaponPresent *,GashaponPresent *>
; Function compile flags: /Ogsp
; File c:\program files (x86)\microsoft visual studio 10.0\vc\include\xutility
;	COMDAT ??$_Copy_impl@PAVGashaponPresent@@PAV1@@std@@YAPAVGashaponPresent@@PAV1@00U_Nonscalar_ptr_iterator_tag@0@@Z
_TEXT	SEGMENT
__First$ = 8						; size = 4
__Last$ = 12						; size = 4
__Dest$ = 16						; size = 4
___formal$ = 20						; size = 1
??$_Copy_impl@PAVGashaponPresent@@PAV1@@std@@YAPAVGashaponPresent@@PAV1@00U_Nonscalar_ptr_iterator_tag@0@@Z PROC ; std::_Copy_impl<GashaponPresent *,GashaponPresent *>, COMDAT

; 2142 : 	{	// copy [_First, _Last) to [_Dest, ...), arbitrary iterators

  00000	55		 push	 ebp
  00001	8b ec		 mov	 ebp, esp

; 2143 : 	for (; _First != _Last; ++_Dest, ++_First)

  00003	8b 45 08	 mov	 eax, DWORD PTR __First$[ebp]
  00006	3b 45 0c	 cmp	 eax, DWORD PTR __Last$[ebp]
  00009	74 1a		 je	 SHORT $LN8@Copy_impl
  0000b	56		 push	 esi
  0000c	57		 push	 edi
$LL3@Copy_impl:

; 2144 : 		*_Dest = *_First;

  0000d	8b 7d 10	 mov	 edi, DWORD PTR __Dest$[ebp]
  00010	83 45 10 14	 add	 DWORD PTR __Dest$[ebp], 20 ; 00000014H
  00014	8b f0		 mov	 esi, eax
  00016	6a 05		 push	 5
  00018	83 c0 14	 add	 eax, 20			; 00000014H
  0001b	59		 pop	 ecx
  0001c	f3 a5		 rep movsd
  0001e	3b 45 0c	 cmp	 eax, DWORD PTR __Last$[ebp]
  00021	75 ea		 jne	 SHORT $LL3@Copy_impl
  00023	5f		 pop	 edi
  00024	5e		 pop	 esi
$LN8@Copy_impl:

; 2145 : 	return (_Dest);

  00025	8b 45 10	 mov	 eax, DWORD PTR __Dest$[ebp]

; 2146 : 	}

  00028	5d		 pop	 ebp
  00029	c3		 ret	 0
??$_Copy_impl@PAVGashaponPresent@@PAV1@@std@@YAPAVGashaponPresent@@PAV1@00U_Nonscalar_ptr_iterator_tag@0@@Z ENDP ; std::_Copy_impl<GashaponPresent *,GashaponPresent *>
_TEXT	ENDS
PUBLIC	??$move@AAVGashaponPresent@@@std@@YA$$QAVGashaponPresent@@AAV1@@Z ; std::move<GashaponPresent &>
; Function compile flags: /Ogsp
; File c:\program files (x86)\microsoft visual studio 10.0\vc\include\utility
;	COMDAT ??$move@AAVGashaponPresent@@@std@@YA$$QAVGashaponPresent@@AAV1@@Z
_TEXT	SEGMENT
__Arg$ = 8						; size = 4
??$move@AAVGashaponPresent@@@std@@YA$$QAVGashaponPresent@@AAV1@@Z PROC ; std::move<GashaponPresent &>, COMDAT

; 86   : 	{	// forward _Arg as movable

  00000	55		 push	 ebp
  00001	8b ec		 mov	 ebp, esp

; 87   : 	return ((typename tr1::_Remove_reference<_Ty>::_Type&&)_Arg);

  00003	8b 45 08	 mov	 eax, DWORD PTR __Arg$[ebp]

; 88   : 	}

  00006	5d		 pop	 ebp
  00007	c3		 ret	 0
??$move@AAVGashaponPresent@@@std@@YA$$QAVGashaponPresent@@AAV1@@Z ENDP ; std::move<GashaponPresent &>
_TEXT	ENDS
PUBLIC	??$forward@AAVGashaponPresent@@@std@@YAAAVGashaponPresent@@AAV1@@Z ; std::forward<GashaponPresent &>
; Function compile flags: /Ogsp
;	COMDAT ??$forward@AAVGashaponPresent@@@std@@YAAAVGashaponPresent@@AAV1@@Z
_TEXT	SEGMENT
__Arg$ = 8						; size = 4
??$forward@AAVGashaponPresent@@@std@@YAAAVGashaponPresent@@AAV1@@Z PROC ; std::forward<GashaponPresent &>, COMDAT

; 78   : 	{	// forward _Arg, given explicitly specified type parameter

  00000	55		 push	 ebp
  00001	8b ec		 mov	 ebp, esp

; 79   : 	return ((_Ty&&)_Arg);

  00003	8b 45 08	 mov	 eax, DWORD PTR __Arg$[ebp]

; 80   : 	}

  00006	5d		 pop	 ebp
  00007	c3		 ret	 0
??$forward@AAVGashaponPresent@@@std@@YAAAVGashaponPresent@@AAV1@@Z ENDP ; std::forward<GashaponPresent &>
_TEXT	ENDS
PUBLIC	??$construct@AAVGashaponPresent@@@?$allocator@VGashaponPresent@@@std@@QAEXPAVGashaponPresent@@AAV2@@Z ; std::allocator<GashaponPresent>::construct<GashaponPresent &>
; Function compile flags: /Ogsp
; File c:\program files (x86)\microsoft visual studio 10.0\vc\include\xmemory
;	COMDAT ??$construct@AAVGashaponPresent@@@?$allocator@VGashaponPresent@@@std@@QAEXPAVGashaponPresent@@AAV2@@Z
_TEXT	SEGMENT
__Ptr$ = 8						; size = 4
__Val$ = 12						; size = 4
??$construct@AAVGashaponPresent@@@?$allocator@VGashaponPresent@@@std@@QAEXPAVGashaponPresent@@AAV2@@Z PROC ; std::allocator<GashaponPresent>::construct<GashaponPresent &>, COMDAT
; _this$ = ecx

; 206  : 		void construct(pointer _Ptr, _Other&& _Val)

  00000	55		 push	 ebp
  00001	8b ec		 mov	 ebp, esp
  00003	57		 push	 edi

; 207  : 		{	// construct object at _Ptr with value _Val
; 208  : 		::new ((void _FARQ *)_Ptr) _Ty(_STD forward<_Other>(_Val));

  00004	8b 7d 08	 mov	 edi, DWORD PTR __Ptr$[ebp]
  00007	85 ff		 test	 edi, edi
  00009	74 0a		 je	 SHORT $LN3@construct
  0000b	56		 push	 esi
  0000c	8b 75 0c	 mov	 esi, DWORD PTR __Val$[ebp]
  0000f	6a 05		 push	 5
  00011	59		 pop	 ecx
  00012	f3 a5		 rep movsd
  00014	5e		 pop	 esi
$LN3@construct:
  00015	5f		 pop	 edi

; 209  : 		}

  00016	5d		 pop	 ebp
  00017	c2 08 00	 ret	 8
??$construct@AAVGashaponPresent@@@?$allocator@VGashaponPresent@@@std@@QAEXPAVGashaponPresent@@AAV2@@Z ENDP ; std::allocator<GashaponPresent>::construct<GashaponPresent &>
_TEXT	ENDS
PUBLIC	?GetTime@CTime@ATL@@QBE_JXZ			; ATL::CTime::GetTime
; Function compile flags: /Ogsp
; File c:\program files (x86)\microsoft visual studio 10.0\vc\atlmfc\include\atltime.inl
;	COMDAT ?GetTime@CTime@ATL@@QBE_JXZ
_TEXT	SEGMENT
?GetTime@CTime@ATL@@QBE_JXZ PROC			; ATL::CTime::GetTime, COMDAT
; _this$ = ecx

; 415  : 	return( m_time );

  00000	8b 01		 mov	 eax, DWORD PTR [ecx]
  00002	8b 51 04	 mov	 edx, DWORD PTR [ecx+4]

; 416  : }

  00005	c3		 ret	 0
?GetTime@CTime@ATL@@QBE_JXZ ENDP			; ATL::CTime::GetTime
_TEXT	ENDS
PUBLIC	?_DECSTR@@YAXPADH@Z				; _DECSTR
; Function compile flags: /Ogsp
; File d:\lost saga for developer\youtube\tutorial\source\src\lsclient\stringprotect.h
;	COMDAT ?_DECSTR@@YAXPADH@Z
_TEXT	SEGMENT
_s$ = 8							; size = 4
_l$ = 12						; size = 4
?_DECSTR@@YAXPADH@Z PROC				; _DECSTR, COMDAT

; 40   : __forceinline void _DECSTR(char* s, int l){int i=0,l4=(l-1)/4,*p=(int*)s;s[l-1]=0;for(;i<l4;++i)*(p++)^=0xEAEBECED;for(i=l4*4;i<l-1;++i)s[i]^=0xED-i%4;}

  00000	55		 push	 ebp
  00001	8b ec		 mov	 ebp, esp
  00003	8b 4d 0c	 mov	 ecx, DWORD PTR _l$[ebp]
  00006	56		 push	 esi
  00007	8b 75 08	 mov	 esi, DWORD PTR _s$[ebp]
  0000a	57		 push	 edi
  0000b	8d 79 ff	 lea	 edi, DWORD PTR [ecx-1]
  0000e	8b c7		 mov	 eax, edi
  00010	99		 cdq
  00011	83 e2 03	 and	 edx, 3
  00014	03 c2		 add	 eax, edx
  00016	c1 f8 02	 sar	 eax, 2
  00019	8b d6		 mov	 edx, esi
  0001b	c6 44 0e ff 00	 mov	 BYTE PTR [esi+ecx-1], 0
  00020	85 c0		 test	 eax, eax
  00022	7e 0e		 jle	 SHORT $LN4@DECSTR
  00024	8b c8		 mov	 ecx, eax
$LL6@DECSTR:
  00026	81 32 ed ec eb
	ea		 xor	 DWORD PTR [edx], -353637139 ; eaebecedH
  0002c	83 c2 04	 add	 edx, 4
  0002f	49		 dec	 ecx
  00030	75 f4		 jne	 SHORT $LL6@DECSTR
$LN4@DECSTR:
  00032	c1 e0 02	 shl	 eax, 2
  00035	eb 17		 jmp	 SHORT $LN14@DECSTR
$LL3@DECSTR:
  00037	8b c8		 mov	 ecx, eax
  00039	81 e1 03 00 00
	80		 and	 ecx, -2147483645	; 80000003H
  0003f	79 05		 jns	 SHORT $LN13@DECSTR
  00041	49		 dec	 ecx
  00042	83 c9 fc	 or	 ecx, -4			; fffffffcH
  00045	41		 inc	 ecx
$LN13@DECSTR:
  00046	b2 ed		 mov	 dl, -19			; ffffffedH
  00048	2a d1		 sub	 dl, cl
  0004a	30 14 30	 xor	 BYTE PTR [eax+esi], dl
  0004d	40		 inc	 eax
$LN14@DECSTR:
  0004e	3b c7		 cmp	 eax, edi
  00050	7c e5		 jl	 SHORT $LL3@DECSTR
  00052	5f		 pop	 edi
  00053	5e		 pop	 esi
  00054	5d		 pop	 ebp
  00055	c3		 ret	 0
?_DECSTR@@YAXPADH@Z ENDP				; _DECSTR
_TEXT	ENDS
PUBLIC	?GetFullWidth@ioComplexStringPrinter@@QBEMXZ	; ioComplexStringPrinter::GetFullWidth
; Function compile flags: /Ogsp
; File d:\lost saga for developer\youtube\tutorial\source\src\lsclient\iocomplexstringprinter.h
;	COMDAT ?GetFullWidth@ioComplexStringPrinter@@QBEMXZ
_TEXT	SEGMENT
?GetFullWidth@ioComplexStringPrinter@@QBEMXZ PROC	; ioComplexStringPrinter::GetFullWidth, COMDAT
; _this$ = ecx

; 125  : 	inline float GetFullWidth() const { return m_fFullWidth; }

  00000	d9 41 1c	 fld	 DWORD PTR [ecx+28]
  00003	c3		 ret	 0
?GetFullWidth@ioComplexStringPrinter@@QBEMXZ ENDP	; ioComplexStringPrinter::GetFullWidth
_TEXT	ENDS
PUBLIC	?GetMouse@ioApplication@@QAEPAVioLSMouse@@XZ	; ioApplication::GetMouse
; Function compile flags: /Ogsp
; File d:\lost saga for developer\youtube\tutorial\source\src\lsclient\ioapplication.h
;	COMDAT ?GetMouse@ioApplication@@QAEPAVioLSMouse@@XZ
_TEXT	SEGMENT
?GetMouse@ioApplication@@QAEPAVioLSMouse@@XZ PROC	; ioApplication::GetMouse, COMDAT
; _this$ = ecx

; 796  : 	inline ioLSMouse* GetMouse(){ return &m_Mouse;	}

  00000	8d 81 90 00 00
	00		 lea	 eax, DWORD PTR [ecx+144]
  00006	c3		 ret	 0
?GetMouse@ioApplication@@QAEPAVioLSMouse@@XZ ENDP	; ioApplication::GetMouse
_TEXT	ENDS
PUBLIC	?GetAttendInfoRequestTime@ioGuildInfo@@QAE_JXZ	; ioGuildInfo::GetAttendInfoRequestTime
; Function compile flags: /Ogsp
; File d:\lost saga for developer\youtube\tutorial\source\src\lsclient\ioguildinfo.h
;	COMDAT ?GetAttendInfoRequestTime@ioGuildInfo@@QAE_JXZ
_TEXT	SEGMENT
?GetAttendInfoRequestTime@ioGuildInfo@@QAE_JXZ PROC	; ioGuildInfo::GetAttendInfoRequestTime, COMDAT
; _this$ = ecx

; 365  : 	INT64 GetAttendInfoRequestTime() { return m_MemberAttendInfoRequestTime.GetTime(); }

  00000	8b 81 1c 01 00
	00		 mov	 eax, DWORD PTR [ecx+284]
  00006	8b 91 20 01 00
	00		 mov	 edx, DWORD PTR [ecx+288]
  0000c	c3		 ret	 0
?GetAttendInfoRequestTime@ioGuildInfo@@QAE_JXZ ENDP	; ioGuildInfo::GetAttendInfoRequestTime
_TEXT	ENDS
PUBLIC	?empty@?$vector@UtagTextPiece@ioComplexStringPrinter@@V?$allocator@UtagTextPiece@ioComplexStringPrinter@@@std@@@std@@QBE_NXZ ; std::vector<ioComplexStringPrinter::tagTextPiece,std::allocator<ioComplexStringPrinter::tagTextPiece> >::empty
; Function compile flags: /Ogsp
; File c:\program files (x86)\microsoft visual studio 10.0\vc\include\vector
;	COMDAT ?empty@?$vector@UtagTextPiece@ioComplexStringPrinter@@V?$allocator@UtagTextPiece@ioComplexStringPrinter@@@std@@@std@@QBE_NXZ
_TEXT	SEGMENT
?empty@?$vector@UtagTextPiece@ioComplexStringPrinter@@V?$allocator@UtagTextPiece@ioComplexStringPrinter@@@std@@@std@@QBE_NXZ PROC ; std::vector<ioComplexStringPrinter::tagTextPiece,std::allocator<ioComplexStringPrinter::tagTextPiece> >::empty, COMDAT
; _this$ = ecx

; 889  : 		return (this->_Myfirst == this->_Mylast);

  00000	8b 01		 mov	 eax, DWORD PTR [ecx]
  00002	2b 41 04	 sub	 eax, DWORD PTR [ecx+4]
  00005	f7 d8		 neg	 eax
  00007	1b c0		 sbb	 eax, eax
  00009	40		 inc	 eax

; 890  : 		}

  0000a	c3		 ret	 0
?empty@?$vector@UtagTextPiece@ioComplexStringPrinter@@V?$allocator@UtagTextPiece@ioComplexStringPrinter@@@std@@@std@@QBE_NXZ ENDP ; std::vector<ioComplexStringPrinter::tagTextPiece,std::allocator<ioComplexStringPrinter::tagTextPiece> >::empty
_TEXT	ENDS
PUBLIC	??1?$_Vector_val@VGashaponPresent@@V?$allocator@VGashaponPresent@@@std@@@std@@QAE@XZ ; std::_Vector_val<GashaponPresent,std::allocator<GashaponPresent> >::~_Vector_val<GashaponPresent,std::allocator<GashaponPresent> >
; Function compile flags: /Ogsp
;	COMDAT ??1?$_Vector_val@VGashaponPresent@@V?$allocator@VGashaponPresent@@@std@@@std@@QAE@XZ
_TEXT	SEGMENT
??1?$_Vector_val@VGashaponPresent@@V?$allocator@VGashaponPresent@@@std@@@std@@QAE@XZ PROC ; std::_Vector_val<GashaponPresent,std::allocator<GashaponPresent> >::~_Vector_val<GashaponPresent,std::allocator<GashaponPresent> >, COMDAT
; _this$ = ecx

; 434  : 		}

  00000	c3		 ret	 0
??1?$_Vector_val@VGashaponPresent@@V?$allocator@VGashaponPresent@@@std@@@std@@QAE@XZ ENDP ; std::_Vector_val<GashaponPresent,std::allocator<GashaponPresent> >::~_Vector_val<GashaponPresent,std::allocator<GashaponPresent> >
_TEXT	ENDS
PUBLIC	??0?$allocator@VGashaponPresent@@@std@@QAE@XZ	; std::allocator<GashaponPresent>::allocator<GashaponPresent>
; Function compile flags: /Ogsp
; File c:\program files (x86)\microsoft visual studio 10.0\vc\include\xmemory
;	COMDAT ??0?$allocator@VGashaponPresent@@@std@@QAE@XZ
_TEXT	SEGMENT
??0?$allocator@VGashaponPresent@@@std@@QAE@XZ PROC	; std::allocator<GashaponPresent>::allocator<GashaponPresent>, COMDAT
; _this$ = ecx

; 161  : 	_ALLOCATOR() _THROW0()

  00000	8b c1		 mov	 eax, ecx

; 162  : 		{	// construct default allocator (do nothing)
; 163  : 		}

  00002	c3		 ret	 0
??0?$allocator@VGashaponPresent@@@std@@QAE@XZ ENDP	; std::allocator<GashaponPresent>::allocator<GashaponPresent>
_TEXT	ENDS
PUBLIC	??0?$allocator@VGashaponPresent@@@std@@QAE@ABV01@@Z ; std::allocator<GashaponPresent>::allocator<GashaponPresent>
; Function compile flags: /Ogsp
;	COMDAT ??0?$allocator@VGashaponPresent@@@std@@QAE@ABV01@@Z
_TEXT	SEGMENT
___formal$ = 8						; size = 4
??0?$allocator@VGashaponPresent@@@std@@QAE@ABV01@@Z PROC ; std::allocator<GashaponPresent>::allocator<GashaponPresent>, COMDAT
; _this$ = ecx

; 165  : 	_ALLOCATOR(const _ALLOCATOR<_Ty>&) _THROW0()

  00000	8b c1		 mov	 eax, ecx

; 166  : 		{	// construct by copying (do nothing)
; 167  : 		}

  00002	c2 04 00	 ret	 4
??0?$allocator@VGashaponPresent@@@std@@QAE@ABV01@@Z ENDP ; std::allocator<GashaponPresent>::allocator<GashaponPresent>
_TEXT	ENDS
PUBLIC	?deallocate@?$allocator@VGashaponPresent@@@std@@QAEXPAVGashaponPresent@@I@Z ; std::allocator<GashaponPresent>::deallocate
; Function compile flags: /Ogsp
;	COMDAT ?deallocate@?$allocator@VGashaponPresent@@@std@@QAEXPAVGashaponPresent@@I@Z
_TEXT	SEGMENT
__Ptr$ = 8						; size = 4
___formal$ = 12						; size = 4
?deallocate@?$allocator@VGashaponPresent@@@std@@QAEXPAVGashaponPresent@@I@Z PROC ; std::allocator<GashaponPresent>::deallocate, COMDAT
; _this$ = ecx

; 181  : 		{	// deallocate object at _Ptr, ignore size

  00000	55		 push	 ebp
  00001	8b ec		 mov	 ebp, esp

; 182  : 		::operator delete(_Ptr);

  00003	ff 75 08	 push	 DWORD PTR __Ptr$[ebp]
  00006	e8 00 00 00 00	 call	 ??3@YAXPAX@Z		; operator delete
  0000b	59		 pop	 ecx

; 183  : 		}

  0000c	5d		 pop	 ebp
  0000d	c2 08 00	 ret	 8
?deallocate@?$allocator@VGashaponPresent@@@std@@QAEXPAVGashaponPresent@@I@Z ENDP ; std::allocator<GashaponPresent>::deallocate
_TEXT	ENDS
EXTRN	__imp_??0exception@std@@QAE@ABV01@@Z:PROC
; Function compile flags: /Ogsp
;	COMDAT ??0bad_alloc@std@@QAE@ABV01@@Z
_TEXT	SEGMENT
___that$ = 8						; size = 4
??0bad_alloc@std@@QAE@ABV01@@Z PROC			; std::bad_alloc::bad_alloc, COMDAT
; _this$ = ecx
  00000	55		 push	 ebp
  00001	8b ec		 mov	 ebp, esp
  00003	56		 push	 esi
  00004	ff 75 08	 push	 DWORD PTR ___that$[ebp]
  00007	8b f1		 mov	 esi, ecx
  00009	ff 15 00 00 00
	00		 call	 DWORD PTR __imp_??0exception@std@@QAE@ABV01@@Z
  0000f	c7 06 00 00 00
	00		 mov	 DWORD PTR [esi], OFFSET ??_7bad_alloc@std@@6B@
  00015	8b c6		 mov	 eax, esi
  00017	5e		 pop	 esi
  00018	5d		 pop	 ebp
  00019	c2 04 00	 ret	 4
??0bad_alloc@std@@QAE@ABV01@@Z ENDP			; std::bad_alloc::bad_alloc
_TEXT	ENDS
PUBLIC	??$_Ptr_cat@VGashaponPresent@@V1@@std@@YA?AU_Nonscalar_ptr_iterator_tag@0@PAVGashaponPresent@@0@Z ; std::_Ptr_cat<GashaponPresent,GashaponPresent>
; Function compile flags: /Ogsp
; File c:\program files (x86)\microsoft visual studio 10.0\vc\include\xutility
;	COMDAT ??$_Ptr_cat@VGashaponPresent@@V1@@std@@YA?AU_Nonscalar_ptr_iterator_tag@0@PAVGashaponPresent@@0@Z
_TEXT	SEGMENT
__Cat$ = -1						; size = 1
___formal$ = 8						; size = 4
___formal$ = 12						; size = 4
??$_Ptr_cat@VGashaponPresent@@V1@@std@@YA?AU_Nonscalar_ptr_iterator_tag@0@PAVGashaponPresent@@0@Z PROC ; std::_Ptr_cat<GashaponPresent,GashaponPresent>, COMDAT

; 516  : 	{	// return pointer category from pointers

  00000	55		 push	 ebp
  00001	8b ec		 mov	 ebp, esp
  00003	51		 push	 ecx

; 517  : 	typename _Ptr_cat_helper<_Elem1, _Elem2>::_Type _Cat;
; 518  : 	return (_Cat);

  00004	8a 45 ff	 mov	 al, BYTE PTR __Cat$[ebp]

; 519  : 	}

  00007	c9		 leave
  00008	c3		 ret	 0
??$_Ptr_cat@VGashaponPresent@@V1@@std@@YA?AU_Nonscalar_ptr_iterator_tag@0@PAVGashaponPresent@@0@Z ENDP ; std::_Ptr_cat<GashaponPresent,GashaponPresent>
_TEXT	ENDS
PUBLIC	??_GGashaponPresent@@QAEPAXI@Z			; GashaponPresent::`scalar deleting destructor'
EXTRN	??1GashaponPresent@@QAE@XZ:PROC			; GashaponPresent::~GashaponPresent
; Function compile flags: /Ogsp
;	COMDAT ??_GGashaponPresent@@QAEPAXI@Z
_TEXT	SEGMENT
___flags$ = 8						; size = 4
??_GGashaponPresent@@QAEPAXI@Z PROC			; GashaponPresent::`scalar deleting destructor', COMDAT
; _this$ = ecx
  00000	55		 push	 ebp
  00001	8b ec		 mov	 ebp, esp
  00003	56		 push	 esi
  00004	8b f1		 mov	 esi, ecx
  00006	e8 00 00 00 00	 call	 ??1GashaponPresent@@QAE@XZ ; GashaponPresent::~GashaponPresent
  0000b	f6 45 08 01	 test	 BYTE PTR ___flags$[ebp], 1
  0000f	74 07		 je	 SHORT $LN1@scalar@2
  00011	56		 push	 esi
  00012	e8 00 00 00 00	 call	 ??3@YAXPAX@Z		; operator delete
  00017	59		 pop	 ecx
$LN1@scalar@2:
  00018	8b c6		 mov	 eax, esi
  0001a	5e		 pop	 esi
  0001b	5d		 pop	 ebp
  0001c	c2 04 00	 ret	 4
??_GGashaponPresent@@QAEPAXI@Z ENDP			; GashaponPresent::`scalar deleting destructor'
; Function compile flags: /Ogsp
_TEXT	ENDS
;	COMDAT ??_GRewardItemListIconBtn@@UAEPAXI@Z
_TEXT	SEGMENT
___flags$ = 8						; size = 4
??_GRewardItemListIconBtn@@UAEPAXI@Z PROC		; RewardItemListIconBtn::`scalar deleting destructor', COMDAT
; _this$ = ecx
  00000	55		 push	 ebp
  00001	8b ec		 mov	 ebp, esp
  00003	56		 push	 esi
  00004	8b f1		 mov	 esi, ecx
  00006	e8 00 00 00 00	 call	 ??1RewardItemListIconBtn@@UAE@XZ ; RewardItemListIconBtn::~RewardItemListIconBtn
  0000b	f6 45 08 01	 test	 BYTE PTR ___flags$[ebp], 1
  0000f	74 07		 je	 SHORT $LN1@scalar@3
  00011	56		 push	 esi
  00012	e8 00 00 00 00	 call	 ??3@YAXPAX@Z		; operator delete
  00017	59		 pop	 ecx
$LN1@scalar@3:
  00018	8b c6		 mov	 eax, esi
  0001a	5e		 pop	 esi
  0001b	5d		 pop	 ebp
  0001c	c2 04 00	 ret	 4
??_GRewardItemListIconBtn@@UAEPAXI@Z ENDP		; RewardItemListIconBtn::`scalar deleting destructor'
_TEXT	ENDS
PUBLIC	??_C@_0BP@NFEAEGE@RewardItemListIconBtn?3?3SetItem?$AA@ ; `string'
PUBLIC	_iValue2$GSCopy$
PUBLIC	_iValue1$GSCopy$
PUBLIC	?SetItem@RewardItemListIconBtn@@QAEXHHH@Z	; RewardItemListIconBtn::SetItem
EXTRN	?GetPresentValue2Text@ioPresentMgr@@QAEABVioHashString@@FHH@Z:PROC ; ioPresentMgr::GetPresentValue2Text
EXTRN	?SetIcon@NewShopIconBtn@@QAE_NPAVioUIRenderImage@@@Z:PROC ; NewShopIconBtn::SetIcon
;	COMDAT ??_C@_0BP@NFEAEGE@RewardItemListIconBtn?3?3SetItem?$AA@
; File d:\lost saga for developer\youtube\tutorial\source\src\lsclient\stringprotect.h
CONST	SEGMENT
??_C@_0BP@NFEAEGE@RewardItemListIconBtn?3?3SetItem?$AA@ DB 'RewardItemLis'
	DB	'tIconBtn::SetItem', 00H			; `string'
CONST	ENDS
;	COMDAT xdata$x
xdata$x	SEGMENT
__unwindtable$?SetItem@RewardItemListIconBtn@@QAEXHHH@Z DD 0ffffffffH
	DD	FLAT:__unwindfunclet$?SetItem@RewardItemListIconBtn@@QAEXHHH@Z$0
__ehfuncinfo$?SetItem@RewardItemListIconBtn@@QAEXHHH@Z DD 019930522H
	DD	01H
	DD	FLAT:__unwindtable$?SetItem@RewardItemListIconBtn@@QAEXHHH@Z
	DD	2 DUP(00H)
	DD	2 DUP(00H)
	DD	00H
	DD	01H
; Function compile flags: /Ogsp
; File d:\lost saga for developer\youtube\tutorial\source\src\lsclient\gui\guildrewardwnd.cpp
xdata$x	ENDS
;	COMDAT ?SetItem@RewardItemListIconBtn@@QAEXHHH@Z
_TEXT	SEGMENT
_szItemName$ = -316					; size = 16
tv960 = -300						; size = 4
_iValue2$GSCopy$ = -296					; size = 4
_iValue1$GSCopy$ = -292					; size = 4
_szBuf$ = -288						; size = 260
___encStr$509853 = -28					; size = 6
__$EHRec$ = -12						; size = 12
_iPresentType$ = 8					; size = 4
_iValue1$ = 12						; size = 4
_iValue2$ = 16						; size = 4
?SetItem@RewardItemListIconBtn@@QAEXHHH@Z PROC		; RewardItemListIconBtn::SetItem, COMDAT
; _this$ = ecx

; 21   : {

  00000	68 30 01 00 00	 push	 304			; 00000130H
  00005	b8 00 00 00 00	 mov	 eax, __ehhandler$?SetItem@RewardItemListIconBtn@@QAEXHHH@Z
  0000a	e8 00 00 00 00	 call	 __EH_prolog3_GS
  0000f	8b 45 0c	 mov	 eax, DWORD PTR _iValue1$[ebp]

; 22   : 	char szBuf[MAX_PATH] = "";
; 23   : 	m_szItemName.Clear();

  00012	89 85 dc fe ff
	ff		 mov	 DWORD PTR _iValue1$GSCopy$[ebp], eax
  00018	8b 45 10	 mov	 eax, DWORD PTR _iValue2$[ebp]
  0001b	33 db		 xor	 ebx, ebx
  0001d	68 03 01 00 00	 push	 259			; 00000103H
  00022	89 85 d8 fe ff
	ff		 mov	 DWORD PTR _iValue2$GSCopy$[ebp], eax
  00028	8d 85 e1 fe ff
	ff		 lea	 eax, DWORD PTR _szBuf$[ebp+1]
  0002e	53		 push	 ebx
  0002f	50		 push	 eax
  00030	8b f1		 mov	 esi, ecx
  00032	88 9d e0 fe ff
	ff		 mov	 BYTE PTR _szBuf$[ebp], bl
  00038	e8 00 00 00 00	 call	 _memset
  0003d	8d 8e 8c 02 00
	00		 lea	 ecx, DWORD PTR [esi+652]
  00043	83 c4 0c	 add	 esp, 12			; 0000000cH
  00046	89 8d d4 fe ff
	ff		 mov	 DWORD PTR tv960[ebp], ecx
  0004c	ff 15 00 00 00
	00		 call	 DWORD PTR __imp_?Clear@ioHashString@@QAEXXZ

; 24   : 	m_ItemNamePrinter.ClearList();

  00052	8d be 6c 02 00
	00		 lea	 edi, DWORD PTR [esi+620]
  00058	8b cf		 mov	 ecx, edi
  0005a	e8 00 00 00 00	 call	 ?ClearList@ioComplexStringPrinter@@QAEXXZ ; ioComplexStringPrinter::ClearList

; 25   : 	if( iPresentType == 0 && iValue1 == 0 && iValue2 == 0 )

  0005f	39 5d 08	 cmp	 DWORD PTR _iPresentType$[ebp], ebx
  00062	75 14		 jne	 SHORT $LN105@SetItem
  00064	39 9d dc fe ff
	ff		 cmp	 DWORD PTR _iValue1$GSCopy$[ebp], ebx
  0006a	75 0c		 jne	 SHORT $LN105@SetItem
  0006c	39 9d d8 fe ff
	ff		 cmp	 DWORD PTR _iValue2$GSCopy$[ebp], ebx
  00072	0f 84 c1 01 00
	00		 je	 $LN106@SetItem
$LN105@SetItem:

; 26   : 		return;
; 27   : 
; 28   : 	ioHashString szItemName = g_PresentMgr.GetPresentIconText( iPresentType, iValue1, iValue2 );

  00078	ff b5 d8 fe ff
	ff		 push	 DWORD PTR _iValue2$GSCopy$[ebp]
  0007e	ff b5 dc fe ff
	ff		 push	 DWORD PTR _iValue1$GSCopy$[ebp]
  00084	ff 75 08	 push	 DWORD PTR _iPresentType$[ebp]
  00087	e8 00 00 00 00	 call	 ?GetSingleton@ioPresentMgr@@SAAAV1@XZ ; ioPresentMgr::GetSingleton
  0008c	8b c8		 mov	 ecx, eax
  0008e	e8 00 00 00 00	 call	 ?GetPresentIconText@ioPresentMgr@@QAEABVioHashString@@FHH@Z ; ioPresentMgr::GetPresentIconText
  00093	50		 push	 eax
  00094	8d 8d c4 fe ff
	ff		 lea	 ecx, DWORD PTR _szItemName$[ebp]
  0009a	ff 15 00 00 00
	00		 call	 DWORD PTR __imp_??0ioHashString@@QAE@ABV0@@Z

; 29   : 	if ( szItemName.IsEmpty() )

  000a0	8d 8d c4 fe ff
	ff		 lea	 ecx, DWORD PTR _szItemName$[ebp]
  000a6	89 5d fc	 mov	 DWORD PTR __$EHRec$[ebp+8], ebx
  000a9	ff 15 00 00 00
	00		 call	 DWORD PTR __imp_?IsEmpty@ioHashString@@QBE_NXZ
  000af	84 c0		 test	 al, al
  000b1	74 49		 je	 SHORT $LN104@SetItem

; 30   : 	{
; 31   : 		LOG.PrintTimeAndLog( 0, "%s - Item Value is not exist - PresentType : %d, Value1 : %d, Value2 : %d", __FUNCTION__, iPresentType, iValue1, iValue2 );

  000b3	ff b5 d8 fe ff
	ff		 push	 DWORD PTR _iValue2$GSCopy$[ebp]
  000b9	ff b5 dc fe ff
	ff		 push	 DWORD PTR _iValue1$GSCopy$[ebp]
  000bf	ff 75 08	 push	 DWORD PTR _iPresentType$[ebp]
  000c2	68 00 00 00 00	 push	 OFFSET ??_C@_0BP@NFEAEGE@RewardItemListIconBtn?3?3SetItem?$AA@
  000c7	68 00 00 00 00	 push	 OFFSET ??_C@_0EK@OGPPCCIP@?$CFs?5?9?5Item?5Value?5is?5not?5exist?5?9?5P@
  000cc	53		 push	 ebx
  000cd	ff 35 00 00 00
	00		 push	 DWORD PTR __imp_?LOG@@3VCLog@@A
  000d3	ff 15 00 00 00
	00		 call	 DWORD PTR __imp_?PrintTimeAndLog@CLog@@QAAXHPADZZ

; 32   : 		SAFEDELETE( m_pIcon );

  000d9	8b 8e 00 02 00
	00		 mov	 ecx, DWORD PTR [esi+512]
  000df	83 c4 1c	 add	 esp, 28			; 0000001cH
  000e2	3b cb		 cmp	 ecx, ebx
  000e4	0f 84 3f 01 00
	00		 je	 $LN103@SetItem
  000ea	8b 01		 mov	 eax, DWORD PTR [ecx]
  000ec	6a 01		 push	 1
  000ee	ff 50 40	 call	 DWORD PTR [eax+64]
  000f1	89 9e 00 02 00
	00		 mov	 DWORD PTR [esi+512], ebx

; 33   : 		return;

  000f7	e9 2d 01 00 00	 jmp	 $LN103@SetItem
$LN104@SetItem:

; 34   : 	}
; 35   : 
; 36   : 	ioUIRenderImage* pIcon = g_UIImageSetMgr.CreateImageByFullName( szItemName );

  000fc	8d 85 c4 fe ff
	ff		 lea	 eax, DWORD PTR _szItemName$[ebp]
  00102	53		 push	 ebx
  00103	50		 push	 eax
  00104	ff 15 00 00 00
	00		 call	 DWORD PTR __imp_?GetSingleton@ioUIImageSetManager@@SAAAV1@XZ
  0010a	8b c8		 mov	 ecx, eax
  0010c	ff 15 00 00 00
	00		 call	 DWORD PTR __imp_?CreateImageByFullName@ioUIImageSetManager@@QAEPAVioUIRenderImage@@ABVioHashString@@_N@Z

; 37   : 	if ( pIcon )

  00112	3b c3		 cmp	 eax, ebx
  00114	74 0a		 je	 SHORT $LN102@SetItem

; 38   : 		SetIcon( pIcon );

  00116	50		 push	 eax
  00117	8b ce		 mov	 ecx, esi
  00119	e8 00 00 00 00	 call	 ?SetIcon@NewShopIconBtn@@QAE_NPAVioUIRenderImage@@@Z ; NewShopIconBtn::SetIcon

; 39   : 	else

  0011e	eb 3e		 jmp	 SHORT $LN99@SetItem
$LN102@SetItem:

; 40   : 	{
; 41   : 		LOG.PrintTimeAndLog( 0, "%s - Item Icon is not exist - Item Name: %s,", __FUNCTION__, szItemName.c_str() );

  00120	8d 8d c4 fe ff
	ff		 lea	 ecx, DWORD PTR _szItemName$[ebp]
  00126	ff 15 00 00 00
	00		 call	 DWORD PTR __imp_?c_str@ioHashString@@QBEPBDXZ
  0012c	50		 push	 eax
  0012d	68 00 00 00 00	 push	 OFFSET ??_C@_0BP@NFEAEGE@RewardItemListIconBtn?3?3SetItem?$AA@
  00132	68 00 00 00 00	 push	 OFFSET ??_C@_0CN@OEGPEFNN@?$CFs?5?9?5Item?5Icon?5is?5not?5exist?5?9?5It@
  00137	53		 push	 ebx
  00138	ff 35 00 00 00
	00		 push	 DWORD PTR __imp_?LOG@@3VCLog@@A
  0013e	ff 15 00 00 00
	00		 call	 DWORD PTR __imp_?PrintTimeAndLog@CLog@@QAAXHPADZZ

; 42   : 		SAFEDELETE( m_pIcon );

  00144	8b 8e 00 02 00
	00		 mov	 ecx, DWORD PTR [esi+512]
  0014a	83 c4 14	 add	 esp, 20			; 00000014H
  0014d	3b cb		 cmp	 ecx, ebx
  0014f	74 0d		 je	 SHORT $LN99@SetItem
  00151	8b 01		 mov	 eax, DWORD PTR [ecx]
  00153	6a 01		 push	 1
  00155	ff 50 40	 call	 DWORD PTR [eax+64]
  00158	89 9e 00 02 00
	00		 mov	 DWORD PTR [esi+512], ebx
$LN99@SetItem:

; 43   : 	}
; 44   : 		
; 45   : 	sprintf_s_e( szBuf, "%s %s", g_PresentMgr.GetPresentValue1Text( iPresentType, iValue1, iValue2 ).c_str(),
; 46   : 		g_PresentMgr.GetPresentValue2Text( iPresentType, iValue1, iValue2 ).c_str() );

  0015e	ff b5 d8 fe ff
	ff		 push	 DWORD PTR _iValue2$GSCopy$[ebp]
  00164	c7 45 e4 c8 9f
	cb cf		 mov	 DWORD PTR ___encStr$509853[ebp], -808738872 ; cfcb9fc8H
  0016b	ff b5 dc fe ff
	ff		 push	 DWORD PTR _iValue1$GSCopy$[ebp]
  00171	81 75 e4 ed ec
	eb ea		 xor	 DWORD PTR ___encStr$509853[ebp], -353637139 ; eaebecedH
  00178	ff 75 08	 push	 DWORD PTR _iPresentType$[ebp]
  0017b	66 c7 45 e8 73
	00		 mov	 WORD PTR ___encStr$509853[ebp+4], 115 ; 00000073H
  00181	e8 00 00 00 00	 call	 ?GetSingleton@ioPresentMgr@@SAAAV1@XZ ; ioPresentMgr::GetSingleton
  00186	8b c8		 mov	 ecx, eax
  00188	e8 00 00 00 00	 call	 ?GetPresentValue2Text@ioPresentMgr@@QAEABVioHashString@@FHH@Z ; ioPresentMgr::GetPresentValue2Text
  0018d	8b c8		 mov	 ecx, eax
  0018f	ff 15 00 00 00
	00		 call	 DWORD PTR __imp_?c_str@ioHashString@@QBEPBDXZ
  00195	50		 push	 eax
  00196	ff b5 d8 fe ff
	ff		 push	 DWORD PTR _iValue2$GSCopy$[ebp]
  0019c	ff b5 dc fe ff
	ff		 push	 DWORD PTR _iValue1$GSCopy$[ebp]
  001a2	ff 75 08	 push	 DWORD PTR _iPresentType$[ebp]
  001a5	e8 00 00 00 00	 call	 ?GetSingleton@ioPresentMgr@@SAAAV1@XZ ; ioPresentMgr::GetSingleton
  001aa	8b c8		 mov	 ecx, eax
  001ac	e8 00 00 00 00	 call	 ?GetPresentValue1Text@ioPresentMgr@@QAEABVioHashString@@FHH@Z ; ioPresentMgr::GetPresentValue1Text
  001b1	8b c8		 mov	 ecx, eax
  001b3	ff 15 00 00 00
	00		 call	 DWORD PTR __imp_?c_str@ioHashString@@QBEPBDXZ
  001b9	50		 push	 eax
  001ba	8d 45 e4	 lea	 eax, DWORD PTR ___encStr$509853[ebp]
  001bd	50		 push	 eax
  001be	8d 85 e0 fe ff
	ff		 lea	 eax, DWORD PTR _szBuf$[ebp]
  001c4	50		 push	 eax
  001c5	e8 00 00 00 00	 call	 ??$sprintf_s@$0BAE@@@YAHAAY0BAE@DPBDZZ ; sprintf_s<260>

; 47   : 	
; 48   : 	m_szItemName = szBuf;

  001ca	8b 8d d4 fe ff
	ff		 mov	 ecx, DWORD PTR tv960[ebp]
  001d0	83 c4 10	 add	 esp, 16			; 00000010H
  001d3	8d 85 e0 fe ff
	ff		 lea	 eax, DWORD PTR _szBuf$[ebp]
  001d9	50		 push	 eax
  001da	ff 15 00 00 00
	00		 call	 DWORD PTR __imp_??4ioHashString@@QAEAAV0@PBD@Z

; 49   : 	m_ItemNamePrinter.ClearList();

  001e0	8b cf		 mov	 ecx, edi
  001e2	e8 00 00 00 00	 call	 ?ClearList@ioComplexStringPrinter@@QAEXXZ ; ioComplexStringPrinter::ClearList

; 50   : 	m_ItemNamePrinter.SetTextStyle( TS_NORMAL);

  001e7	53		 push	 ebx
  001e8	8b cf		 mov	 ecx, edi
  001ea	e8 00 00 00 00	 call	 ?SetTextStyle@ioComplexStringPrinter@@QAEXW4TextStyle@@@Z ; ioComplexStringPrinter::SetTextStyle

; 51   : 	m_ItemNamePrinter.SetBkColor( 0, 0, 0 );

  001ef	53		 push	 ebx
  001f0	53		 push	 ebx
  001f1	53		 push	 ebx
  001f2	8b cf		 mov	 ecx, edi
  001f4	e8 00 00 00 00	 call	 ?SetBkColor@ioComplexStringPrinter@@QAEXHHH@Z ; ioComplexStringPrinter::SetBkColor

; 52   : 	m_ItemNamePrinter.SetTextColor( TCT_DEFAULT_BLUE ); 

  001f9	68 b2 46 16 ff	 push	 -15317326		; ff1646b2H
  001fe	8b cf		 mov	 ecx, edi
  00200	e8 00 00 00 00	 call	 ?SetTextColor@ioComplexStringPrinter@@QAEXK@Z ; ioComplexStringPrinter::SetTextColor

; 53   : 	m_ItemNamePrinter.AddTextPiece( FONT_SIZE_13, m_szItemName.c_str() );

  00205	8b 8d d4 fe ff
	ff		 mov	 ecx, DWORD PTR tv960[ebp]
  0020b	ff 15 00 00 00
	00		 call	 DWORD PTR __imp_?c_str@ioHashString@@QBEPBDXZ
  00211	f3 0f 10 05 00
	00 00 00	 movss	 xmm0, DWORD PTR __real@3f266666
  00219	50		 push	 eax
  0021a	51		 push	 ecx
  0021b	f3 0f 11 04 24	 movss	 DWORD PTR [esp], xmm0
  00220	57		 push	 edi
  00221	e8 00 00 00 00	 call	 ?AddTextPiece@ioComplexStringPrinter@@QAAXMPBDZZ ; ioComplexStringPrinter::AddTextPiece
  00226	83 c4 0c	 add	 esp, 12			; 0000000cH
$LN103@SetItem:

; 54   : }

  00229	83 4d fc ff	 or	 DWORD PTR __$EHRec$[ebp+8], -1
  0022d	8d 8d c4 fe ff
	ff		 lea	 ecx, DWORD PTR _szItemName$[ebp]
  00233	ff 15 00 00 00
	00		 call	 DWORD PTR __imp_??1ioHashString@@QAE@XZ
$LN106@SetItem:
  00239	e8 00 00 00 00	 call	 __EH_epilog3_GS
  0023e	c2 0c 00	 ret	 12			; 0000000cH
_TEXT	ENDS
;	COMDAT text$x
text$x	SEGMENT
__unwindfunclet$?SetItem@RewardItemListIconBtn@@QAEXHHH@Z$0:
  00000	8d 8d c4 fe ff
	ff		 lea	 ecx, DWORD PTR _szItemName$[ebp]
  00006	ff 25 00 00 00
	00		 jmp	 DWORD PTR __imp_??1ioHashString@@QAE@XZ
__ehhandler$?SetItem@RewardItemListIconBtn@@QAEXHHH@Z:
  0000c	8b 54 24 08	 mov	 edx, DWORD PTR [esp+8]
  00010	8d 42 0c	 lea	 eax, DWORD PTR [edx+12]
  00013	8b 8a c0 fe ff
	ff		 mov	 ecx, DWORD PTR [edx-320]
  00019	33 c8		 xor	 ecx, eax
  0001b	e8 00 00 00 00	 call	 @__security_check_cookie@4
  00020	8b 4a fc	 mov	 ecx, DWORD PTR [edx-4]
  00023	33 c8		 xor	 ecx, eax
  00025	e8 00 00 00 00	 call	 @__security_check_cookie@4
  0002a	b8 00 00 00 00	 mov	 eax, OFFSET __ehfuncinfo$?SetItem@RewardItemListIconBtn@@QAEXHHH@Z
  0002f	e9 00 00 00 00	 jmp	 ___CxxFrameHandler3
text$x	ENDS
?SetItem@RewardItemListIconBtn@@QAEXHHH@Z ENDP		; RewardItemListIconBtn::SetItem
PUBLIC	?UpdateIcon@GuildPossibleRewardListWnd@@IAEXXZ	; GuildPossibleRewardListWnd::UpdateIcon
;	COMDAT xdata$x
; File c:\program files (x86)\microsoft visual studio 10.0\vc\include\vector
xdata$x	SEGMENT
__unwindtable$?UpdateIcon@GuildPossibleRewardListWnd@@IAEXXZ DD 0ffffffffH
	DD	FLAT:__unwindfunclet$?UpdateIcon@GuildPossibleRewardListWnd@@IAEXXZ$0
__ehfuncinfo$?UpdateIcon@GuildPossibleRewardListWnd@@IAEXXZ DD 019930522H
	DD	01H
	DD	FLAT:__unwindtable$?UpdateIcon@GuildPossibleRewardListWnd@@IAEXXZ
	DD	2 DUP(00H)
	DD	2 DUP(00H)
	DD	00H
	DD	01H
; Function compile flags: /Ogsp
; File d:\lost saga for developer\youtube\tutorial\source\src\lsclient\gui\guildrewardwnd.cpp
xdata$x	ENDS
;	COMDAT ?UpdateIcon@GuildPossibleRewardListWnd@@IAEXXZ
_TEXT	SEGMENT
_RewardItemInfo$510196 = -52				; size = 20
_this$ = -32						; size = 4
tv147 = -28						; size = 4
tv259 = -24						; size = 4
tv266 = -20						; size = 4
_pRewardBtn$510190 = -16				; size = 4
__$EHRec$ = -12						; size = 12
?UpdateIcon@GuildPossibleRewardListWnd@@IAEXXZ PROC	; GuildPossibleRewardListWnd::UpdateIcon, COMDAT
; _this$ = ecx

; 342  : {

  00000	6a 28		 push	 40			; 00000028H
  00002	b8 00 00 00 00	 mov	 eax, __ehhandler$?UpdateIcon@GuildPossibleRewardListWnd@@IAEXXZ
  00007	e8 00 00 00 00	 call	 __EH_prolog3
  0000c	8b f9		 mov	 edi, ecx
  0000e	89 7d e0	 mov	 DWORD PTR _this$[ebp], edi

; 343  : 	int iStartArray = m_iCurPage * MAX_ICON_BTN;

  00011	8b 9f fc 01 00
	00		 mov	 ebx, DWORD PTR [edi+508]
  00017	6b db 0c	 imul	 ebx, 12			; 0000000cH
  0001a	8b f3		 mov	 esi, ebx
  0001c	6b f6 14	 imul	 esi, 20			; 00000014H

; 344  : 	for ( int i=0 ; i<MAX_ICON_BTN ; ++i )

  0001f	c7 45 ec 64 00
	00 00		 mov	 DWORD PTR tv266[ebp], 100 ; 00000064H
  00026	29 5d ec	 sub	 DWORD PTR tv266[ebp], ebx
  00029	89 75 e8	 mov	 DWORD PTR tv259[ebp], esi
  0002c	c7 45 e4 0c 00
	00 00		 mov	 DWORD PTR tv147[ebp], 12 ; 0000000cH
  00033	eb 03		 jmp	 SHORT $LN7@UpdateIcon
$LL20@UpdateIcon:

; 343  : 	int iStartArray = m_iCurPage * MAX_ICON_BTN;

  00035	8b 7d e0	 mov	 edi, DWORD PTR _this$[ebp]
$LN7@UpdateIcon:

; 345  : 	{
; 346  : 		RewardItemListIconBtn* pRewardBtn = dynamic_cast<RewardItemListIconBtn*>( FindChildWnd( ID_ICON_BTN1 + i ) );

  00038	8b 45 ec	 mov	 eax, DWORD PTR tv266[ebp]
  0003b	6a 00		 push	 0
  0003d	68 00 00 00 00	 push	 OFFSET ??_R0?AVRewardItemListIconBtn@@@8
  00042	68 00 00 00 00	 push	 OFFSET ??_R0?AVioWnd@@@8
  00047	6a 00		 push	 0
  00049	03 c3		 add	 eax, ebx
  0004b	50		 push	 eax
  0004c	8b cf		 mov	 ecx, edi
  0004e	ff 15 00 00 00
	00		 call	 DWORD PTR __imp_?FindChildWnd@ioWnd@@QAEPAV1@K@Z
  00054	50		 push	 eax
  00055	e8 00 00 00 00	 call	 ___RTDynamicCast
  0005a	83 c4 14	 add	 esp, 20			; 00000014H
  0005d	89 45 f0	 mov	 DWORD PTR _pRewardBtn$510190[ebp], eax

; 347  : 		if ( !pRewardBtn )

  00060	85 c0		 test	 eax, eax
  00062	74 6d		 je	 SHORT $LN6@UpdateIcon

; 348  : 			continue;
; 349  : 
; 350  : 		int iCurArray = iStartArray + i;
; 351  : 		if( COMPARE( iCurArray, 0, (int)m_RewardItemVec.size() ) )

  00064	85 db		 test	 ebx, ebx
  00066	78 60		 js	 SHORT $LN3@UpdateIcon
  00068	8b 8f 68 01 00
	00		 mov	 ecx, DWORD PTR [edi+360]
  0006e	8b 87 6c 01 00
	00		 mov	 eax, DWORD PTR [edi+364]
  00074	2b c1		 sub	 eax, ecx
  00076	6a 14		 push	 20			; 00000014H
  00078	99		 cdq
  00079	5f		 pop	 edi
  0007a	f7 ff		 idiv	 edi
  0007c	3b d8		 cmp	 ebx, eax
  0007e	7d 48		 jge	 SHORT $LN3@UpdateIcon

; 352  : 		{
; 353  : 			GashaponPresent RewardItemInfo = m_RewardItemVec[ iCurArray ];

  00080	03 f1		 add	 esi, ecx
  00082	6a 05		 push	 5
  00084	59		 pop	 ecx
  00085	8d 7d cc	 lea	 edi, DWORD PTR _RewardItemInfo$510196[ebp]
  00088	f3 a5		 rep movsd

; 354  : 			pRewardBtn->SetItem( (int)RewardItemInfo.m_iType, RewardItemInfo.m_iValue1,RewardItemInfo.m_iValue2 );

  0008a	ff 75 d4	 push	 DWORD PTR _RewardItemInfo$510196[ebp+8]
  0008d	0f bf 45 cc	 movsx	 eax, WORD PTR _RewardItemInfo$510196[ebp]
  00091	ff 75 d0	 push	 DWORD PTR _RewardItemInfo$510196[ebp+4]
  00094	8b 4d f0	 mov	 ecx, DWORD PTR _pRewardBtn$510190[ebp]
  00097	83 65 fc 00	 and	 DWORD PTR __$EHRec$[ebp+8], 0
  0009b	50		 push	 eax
  0009c	e8 00 00 00 00	 call	 ?SetItem@RewardItemListIconBtn@@QAEXHHH@Z ; RewardItemListIconBtn::SetItem

; 355  : 			if ( !pRewardBtn->IsShow() )

  000a1	8b 4d f0	 mov	 ecx, DWORD PTR _pRewardBtn$510190[ebp]
  000a4	ff 15 00 00 00
	00		 call	 DWORD PTR __imp_?IsShow@ioWnd@@QBE_NXZ
  000aa	84 c0		 test	 al, al
  000ac	75 09		 jne	 SHORT $LN2@UpdateIcon

; 356  : 				pRewardBtn->ShowWnd();

  000ae	8b 4d f0	 mov	 ecx, DWORD PTR _pRewardBtn$510190[ebp]
  000b1	ff 15 00 00 00
	00		 call	 DWORD PTR __imp_?ShowWnd@ioWnd@@QAEXXZ
$LN2@UpdateIcon:

; 357  : 		}

  000b7	83 4d fc ff	 or	 DWORD PTR __$EHRec$[ebp+8], -1
  000bb	8d 4d cc	 lea	 ecx, DWORD PTR _RewardItemInfo$510196[ebp]
  000be	e8 00 00 00 00	 call	 ??1GashaponPresent@@QAE@XZ ; GashaponPresent::~GashaponPresent

; 358  : 		else

  000c3	8b 75 e8	 mov	 esi, DWORD PTR tv259[ebp]
  000c6	eb 09		 jmp	 SHORT $LN6@UpdateIcon
$LN3@UpdateIcon:

; 359  : 			pRewardBtn->HideWnd();

  000c8	8b 4d f0	 mov	 ecx, DWORD PTR _pRewardBtn$510190[ebp]
  000cb	ff 15 00 00 00
	00		 call	 DWORD PTR __imp_?HideWnd@ioWnd@@QAEXXZ
$LN6@UpdateIcon:

; 344  : 	for ( int i=0 ; i<MAX_ICON_BTN ; ++i )

  000d1	83 c6 14	 add	 esi, 20			; 00000014H
  000d4	43		 inc	 ebx
  000d5	ff 4d e4	 dec	 DWORD PTR tv147[ebp]
  000d8	89 75 e8	 mov	 DWORD PTR tv259[ebp], esi
  000db	0f 85 54 ff ff
	ff		 jne	 $LL20@UpdateIcon

; 360  : 	}
; 361  : }

  000e1	e8 00 00 00 00	 call	 __EH_epilog3
  000e6	c3		 ret	 0
_TEXT	ENDS
;	COMDAT text$x
text$x	SEGMENT
__unwindfunclet$?UpdateIcon@GuildPossibleRewardListWnd@@IAEXXZ$0:
  00000	8d 4d cc	 lea	 ecx, DWORD PTR _RewardItemInfo$510196[ebp]
  00003	e9 00 00 00 00	 jmp	 ??1GashaponPresent@@QAE@XZ ; GashaponPresent::~GashaponPresent
__ehhandler$?UpdateIcon@GuildPossibleRewardListWnd@@IAEXXZ:
  00008	8b 54 24 08	 mov	 edx, DWORD PTR [esp+8]
  0000c	8d 42 0c	 lea	 eax, DWORD PTR [edx+12]
  0000f	8b 4a c8	 mov	 ecx, DWORD PTR [edx-56]
  00012	33 c8		 xor	 ecx, eax
  00014	e8 00 00 00 00	 call	 @__security_check_cookie@4
  00019	b8 00 00 00 00	 mov	 eax, OFFSET __ehfuncinfo$?UpdateIcon@GuildPossibleRewardListWnd@@IAEXXZ
  0001e	e9 00 00 00 00	 jmp	 ___CxxFrameHandler3
text$x	ENDS
?UpdateIcon@GuildPossibleRewardListWnd@@IAEXXZ ENDP	; GuildPossibleRewardListWnd::UpdateIcon
PUBLIC	??0GuildAttendUserBtn@@QAE@XZ			; GuildAttendUserBtn::GuildAttendUserBtn
EXTRN	__imp_??0ioButton@@QAE@XZ:PROC
;	COMDAT xdata$x
xdata$x	SEGMENT
__unwindtable$??0GuildAttendUserBtn@@QAE@XZ DD 0ffffffffH
	DD	FLAT:__unwindfunclet$??0GuildAttendUserBtn@@QAE@XZ$0
__ehfuncinfo$??0GuildAttendUserBtn@@QAE@XZ DD 019930522H
	DD	01H
	DD	FLAT:__unwindtable$??0GuildAttendUserBtn@@QAE@XZ
	DD	2 DUP(00H)
	DD	2 DUP(00H)
	DD	00H
	DD	01H
; Function compile flags: /Ogsp
xdata$x	ENDS
;	COMDAT ??0GuildAttendUserBtn@@QAE@XZ
_TEXT	SEGMENT
_this$ = -16						; size = 4
__$EHRec$ = -12						; size = 12
??0GuildAttendUserBtn@@QAE@XZ PROC			; GuildAttendUserBtn::GuildAttendUserBtn, COMDAT
; _this$ = ecx

; 393  : {

  00000	6a 04		 push	 4
  00002	b8 00 00 00 00	 mov	 eax, __ehhandler$??0GuildAttendUserBtn@@QAE@XZ
  00007	e8 00 00 00 00	 call	 __EH_prolog3
  0000c	8b f1		 mov	 esi, ecx
  0000e	89 75 f0	 mov	 DWORD PTR _this$[ebp], esi
  00011	ff 15 00 00 00
	00		 call	 DWORD PTR __imp_??0ioButton@@QAE@XZ
  00017	33 db		 xor	 ebx, ebx
  00019	8d 8e 00 02 00
	00		 lea	 ecx, DWORD PTR [esi+512]
  0001f	89 5d fc	 mov	 DWORD PTR __$EHRec$[ebp+8], ebx
  00022	c7 06 00 00 00
	00		 mov	 DWORD PTR [esi], OFFSET ??_7GuildAttendUserBtn@@6B@
  00028	ff 15 00 00 00
	00		 call	 DWORD PTR __imp_??0ioHashString@@QAE@XZ

; 394  : 	ClearData();

  0002e	89 9e fc 01 00
	00		 mov	 DWORD PTR [esi+508], ebx
  00034	66 89 9e 10 02
	00 00		 mov	 WORD PTR [esi+528], bx
  0003b	89 9e 14 02 00
	00		 mov	 DWORD PTR [esi+532], ebx

; 395  : 	m_pGrayAttendance = NULL;

  00041	89 9e 18 02 00
	00		 mov	 DWORD PTR [esi+536], ebx

; 396  : 	m_pRedAttendance = NULL;

  00047	89 9e 1c 02 00
	00		 mov	 DWORD PTR [esi+540], ebx

; 397  : 	m_pGreenAttendance = NULL;

  0004d	89 9e 20 02 00
	00		 mov	 DWORD PTR [esi+544], ebx

; 398  : }

  00053	8b c6		 mov	 eax, esi
  00055	e8 00 00 00 00	 call	 __EH_epilog3
  0005a	c3		 ret	 0
_TEXT	ENDS
;	COMDAT text$x
text$x	SEGMENT
__unwindfunclet$??0GuildAttendUserBtn@@QAE@XZ$0:
  00000	8b 4d f0	 mov	 ecx, DWORD PTR _this$[ebp]
  00003	ff 25 00 00 00
	00		 jmp	 DWORD PTR __imp_??1ioButton@@UAE@XZ
__ehhandler$??0GuildAttendUserBtn@@QAE@XZ:
  00009	8b 54 24 08	 mov	 edx, DWORD PTR [esp+8]
  0000d	8d 42 0c	 lea	 eax, DWORD PTR [edx+12]
  00010	8b 4a ec	 mov	 ecx, DWORD PTR [edx-20]
  00013	33 c8		 xor	 ecx, eax
  00015	e8 00 00 00 00	 call	 @__security_check_cookie@4
  0001a	b8 00 00 00 00	 mov	 eax, OFFSET __ehfuncinfo$??0GuildAttendUserBtn@@QAE@XZ
  0001f	e9 00 00 00 00	 jmp	 ___CxxFrameHandler3
text$x	ENDS
??0GuildAttendUserBtn@@QAE@XZ ENDP			; GuildAttendUserBtn::GuildAttendUserBtn
; Function compile flags: /Ogsp
;	COMDAT ??_GGuildAttendUserBtn@@UAEPAXI@Z
_TEXT	SEGMENT
___flags$ = 8						; size = 4
??_GGuildAttendUserBtn@@UAEPAXI@Z PROC			; GuildAttendUserBtn::`scalar deleting destructor', COMDAT
; _this$ = ecx
  00000	55		 push	 ebp
  00001	8b ec		 mov	 ebp, esp
  00003	56		 push	 esi
  00004	8b f1		 mov	 esi, ecx
  00006	e8 00 00 00 00	 call	 ??1GuildAttendUserBtn@@UAE@XZ ; GuildAttendUserBtn::~GuildAttendUserBtn
  0000b	f6 45 08 01	 test	 BYTE PTR ___flags$[ebp], 1
  0000f	74 07		 je	 SHORT $LN1@scalar@4
  00011	56		 push	 esi
  00012	e8 00 00 00 00	 call	 ??3@YAXPAX@Z		; operator delete
  00017	59		 pop	 ecx
$LN1@scalar@4:
  00018	8b c6		 mov	 eax, esi
  0001a	5e		 pop	 esi
  0001b	5d		 pop	 ebp
  0001c	c2 04 00	 ret	 4
??_GGuildAttendUserBtn@@UAEPAXI@Z ENDP			; GuildAttendUserBtn::`scalar deleting destructor'
; Function compile flags: /Ogsp
_TEXT	ENDS
;	COMDAT ??_GGuildAttendInfoListWnd@@UAEPAXI@Z
_TEXT	SEGMENT
___flags$ = 8						; size = 4
??_GGuildAttendInfoListWnd@@UAEPAXI@Z PROC		; GuildAttendInfoListWnd::`scalar deleting destructor', COMDAT
; _this$ = ecx
  00000	55		 push	 ebp
  00001	8b ec		 mov	 ebp, esp
  00003	56		 push	 esi
  00004	8b f1		 mov	 esi, ecx
  00006	e8 00 00 00 00	 call	 ??1GuildAttendInfoListWnd@@UAE@XZ ; GuildAttendInfoListWnd::~GuildAttendInfoListWnd
  0000b	f6 45 08 01	 test	 BYTE PTR ___flags$[ebp], 1
  0000f	74 07		 je	 SHORT $LN1@scalar@5
  00011	56		 push	 esi
  00012	e8 00 00 00 00	 call	 ??3@YAXPAX@Z		; operator delete
  00017	59		 pop	 ecx
$LN1@scalar@5:
  00018	8b c6		 mov	 eax, esi
  0001a	5e		 pop	 esi
  0001b	5d		 pop	 ebp
  0001c	c2 04 00	 ret	 4
??_GGuildAttendInfoListWnd@@UAEPAXI@Z ENDP		; GuildAttendInfoListWnd::`scalar deleting destructor'
_TEXT	ENDS
PUBLIC	??_C@_0DK@NJHOKDMF@?$CFs?5?3?5Request?5CTPK_GUILD_MEMBER_A@ ; `string'
PUBLIC	??_C@_0CB@ENOFEBBD@GuildAttendInfoListWnd?3?3iwm_show@ ; `string'
PUBLIC	__$ArrayPad$
EXTRN	??1SP2Packet@@UAE@XZ:PROC			; SP2Packet::~SP2Packet
EXTRN	?MouseBusy@TCPNetwork@@YAX_N@Z:PROC		; TCPNetwork::MouseBusy
EXTRN	?SendToServer@TCPNetwork@@YAXAAVSP2Packet@@@Z:PROC ; TCPNetwork::SendToServer
EXTRN	??0SP2Packet@@QAE@K@Z:PROC			; SP2Packet::SP2Packet
EXTRN	?CheckMemberAttendInfoRequestTime@ioGuildInfo@@QAE_NXZ:PROC ; ioGuildInfo::CheckMemberAttendInfoRequestTime
EXTRN	?GetSingleton@ioGuildInfo@@SAAAV1@XZ:PROC	; ioGuildInfo::GetSingleton
EXTRN	___security_cookie:DWORD
EXTRN	__chkstk:PROC
;	COMDAT ??_C@_0DK@NJHOKDMF@?$CFs?5?3?5Request?5CTPK_GUILD_MEMBER_A@
; File c:\program files (x86)\microsoft visual studio 10.0\vc\atlmfc\include\atltime.inl
CONST	SEGMENT
??_C@_0DK@NJHOKDMF@?$CFs?5?3?5Request?5CTPK_GUILD_MEMBER_A@ DB '%s : Requ'
	DB	'est CTPK_GUILD_MEMBER_ATTEND_RENEWAL, Time : %d ', 00H ; `string'
CONST	ENDS
;	COMDAT ??_C@_0CB@ENOFEBBD@GuildAttendInfoListWnd?3?3iwm_show@
CONST	SEGMENT
??_C@_0CB@ENOFEBBD@GuildAttendInfoListWnd?3?3iwm_show@ DB 'GuildAttendInf'
	DB	'oListWnd::iwm_show', 00H			; `string'
CONST	ENDS
;	COMDAT xdata$x
xdata$x	SEGMENT
__unwindtable$?iwm_show@GuildAttendInfoListWnd@@MAEXXZ DD 0ffffffffH
	DD	FLAT:__unwindfunclet$?iwm_show@GuildAttendInfoListWnd@@MAEXXZ$0
__ehfuncinfo$?iwm_show@GuildAttendInfoListWnd@@MAEXXZ DD 019930522H
	DD	01H
	DD	FLAT:__unwindtable$?iwm_show@GuildAttendInfoListWnd@@MAEXXZ
	DD	2 DUP(00H)
	DD	2 DUP(00H)
	DD	00H
	DD	01H
; Function compile flags: /Ogsp
; File d:\lost saga for developer\youtube\tutorial\source\src\lsclient\gui\guildrewardwnd.cpp
xdata$x	ENDS
;	COMDAT ?iwm_show@GuildAttendInfoListWnd@@MAEXXZ
_TEXT	SEGMENT
_kPacket$510333 = -32808				; size = 32792
__$ArrayPad$ = -16					; size = 4
__$EHRec$ = -12						; size = 12
?iwm_show@GuildAttendInfoListWnd@@MAEXXZ PROC		; GuildAttendInfoListWnd::iwm_show, COMDAT
; _this$ = ecx

; 519  : {

  00000	55		 push	 ebp
  00001	8b ec		 mov	 ebp, esp
  00003	6a ff		 push	 -1
  00005	68 00 00 00 00	 push	 __ehhandler$?iwm_show@GuildAttendInfoListWnd@@MAEXXZ
  0000a	64 a1 00 00 00
	00		 mov	 eax, DWORD PTR fs:0
  00010	50		 push	 eax
  00011	b8 1c 80 00 00	 mov	 eax, 32796		; 0000801cH
  00016	e8 00 00 00 00	 call	 __chkstk
  0001b	a1 00 00 00 00	 mov	 eax, DWORD PTR ___security_cookie
  00020	33 c5		 xor	 eax, ebp
  00022	89 45 f0	 mov	 DWORD PTR __$ArrayPad$[ebp], eax
  00025	50		 push	 eax
  00026	8d 45 f4	 lea	 eax, DWORD PTR __$EHRec$[ebp]
  00029	64 a3 00 00 00
	00		 mov	 DWORD PTR fs:0, eax

; 520  : 	if( g_GuildInfo.CheckMemberAttendInfoRequestTime() )

  0002f	e8 00 00 00 00	 call	 ?GetSingleton@ioGuildInfo@@SAAAV1@XZ ; ioGuildInfo::GetSingleton
  00034	8b c8		 mov	 ecx, eax
  00036	e8 00 00 00 00	 call	 ?CheckMemberAttendInfoRequestTime@ioGuildInfo@@QAE_NXZ ; ioGuildInfo::CheckMemberAttendInfoRequestTime
  0003b	84 c0		 test	 al, al
  0003d	74 63		 je	 SHORT $LN1@iwm_show

; 521  : 	{
; 522  : 		SP2Packet kPacket( CTPK_GUILD_MEMBER_ATTEND_RENEWAL );

  0003f	68 49 03 00 00	 push	 841			; 00000349H
  00044	8d 8d d8 7f ff
	ff		 lea	 ecx, DWORD PTR _kPacket$510333[ebp]
  0004a	e8 00 00 00 00	 call	 ??0SP2Packet@@QAE@K@Z	; SP2Packet::SP2Packet
  0004f	83 65 fc 00	 and	 DWORD PTR __$EHRec$[ebp+8], 0

; 523  : 		TCPNetwork::SendToServer( kPacket );

  00053	8d 85 d8 7f ff
	ff		 lea	 eax, DWORD PTR _kPacket$510333[ebp]
  00059	50		 push	 eax
  0005a	e8 00 00 00 00	 call	 ?SendToServer@TCPNetwork@@YAXAAVSP2Packet@@@Z ; TCPNetwork::SendToServer

; 524  : 		TCPNetwork::MouseBusy( true );

  0005f	6a 01		 push	 1
  00061	e8 00 00 00 00	 call	 ?MouseBusy@TCPNetwork@@YAX_N@Z ; TCPNetwork::MouseBusy

; 525  : 		LOG.PrintTimeAndLog( 0, "%s : Request CTPK_GUILD_MEMBER_ATTEND_RENEWAL, Time : %d " ,__FUNCTION__, g_GuildInfo.GetAttendInfoRequestTime() );

  00066	e8 00 00 00 00	 call	 ?GetSingleton@ioGuildInfo@@SAAAV1@XZ ; ioGuildInfo::GetSingleton
  0006b	ff b0 20 01 00
	00		 push	 DWORD PTR [eax+288]
  00071	8b 88 1c 01 00
	00		 mov	 ecx, DWORD PTR [eax+284]
  00077	51		 push	 ecx
  00078	68 00 00 00 00	 push	 OFFSET ??_C@_0CB@ENOFEBBD@GuildAttendInfoListWnd?3?3iwm_show@
  0007d	68 00 00 00 00	 push	 OFFSET ??_C@_0DK@NJHOKDMF@?$CFs?5?3?5Request?5CTPK_GUILD_MEMBER_A@
  00082	6a 00		 push	 0
  00084	ff 35 00 00 00
	00		 push	 DWORD PTR __imp_?LOG@@3VCLog@@A
  0008a	ff 15 00 00 00
	00		 call	 DWORD PTR __imp_?PrintTimeAndLog@CLog@@QAAXHPADZZ

; 526  : 	}

  00090	83 4d fc ff	 or	 DWORD PTR __$EHRec$[ebp+8], -1
  00094	83 c4 20	 add	 esp, 32			; 00000020H
  00097	8d 8d d8 7f ff
	ff		 lea	 ecx, DWORD PTR _kPacket$510333[ebp]
  0009d	e8 00 00 00 00	 call	 ??1SP2Packet@@UAE@XZ	; SP2Packet::~SP2Packet
$LN1@iwm_show:

; 527  : }

  000a2	8b 4d f4	 mov	 ecx, DWORD PTR __$EHRec$[ebp]
  000a5	64 89 0d 00 00
	00 00		 mov	 DWORD PTR fs:0, ecx
  000ac	59		 pop	 ecx
  000ad	8b 4d f0	 mov	 ecx, DWORD PTR __$ArrayPad$[ebp]
  000b0	33 cd		 xor	 ecx, ebp
  000b2	e8 00 00 00 00	 call	 @__security_check_cookie@4
  000b7	c9		 leave
  000b8	c3		 ret	 0
_TEXT	ENDS
;	COMDAT text$x
text$x	SEGMENT
__unwindfunclet$?iwm_show@GuildAttendInfoListWnd@@MAEXXZ$0:
  00000	8d 8d d8 7f ff
	ff		 lea	 ecx, DWORD PTR _kPacket$510333[ebp]
  00006	e9 00 00 00 00	 jmp	 ??1SP2Packet@@UAE@XZ	; SP2Packet::~SP2Packet
__ehhandler$?iwm_show@GuildAttendInfoListWnd@@MAEXXZ:
  0000b	8b 54 24 08	 mov	 edx, DWORD PTR [esp+8]
  0000f	8d 42 0c	 lea	 eax, DWORD PTR [edx+12]
  00012	8b 8a e0 7f ff
	ff		 mov	 ecx, DWORD PTR [edx-32800]
  00018	33 c8		 xor	 ecx, eax
  0001a	e8 00 00 00 00	 call	 @__security_check_cookie@4
  0001f	8b 4a fc	 mov	 ecx, DWORD PTR [edx-4]
  00022	33 c8		 xor	 ecx, eax
  00024	e8 00 00 00 00	 call	 @__security_check_cookie@4
  00029	b8 00 00 00 00	 mov	 eax, OFFSET __ehfuncinfo$?iwm_show@GuildAttendInfoListWnd@@MAEXXZ
  0002e	e9 00 00 00 00	 jmp	 ___CxxFrameHandler3
text$x	ENDS
?iwm_show@GuildAttendInfoListWnd@@MAEXXZ ENDP		; GuildAttendInfoListWnd::iwm_show
; Function compile flags: /Ogsp
;	COMDAT ??_GGuildAttendRewardWnd@@UAEPAXI@Z
_TEXT	SEGMENT
___flags$ = 8						; size = 4
??_GGuildAttendRewardWnd@@UAEPAXI@Z PROC		; GuildAttendRewardWnd::`scalar deleting destructor', COMDAT
; _this$ = ecx
  00000	55		 push	 ebp
  00001	8b ec		 mov	 ebp, esp
  00003	56		 push	 esi
  00004	8b f1		 mov	 esi, ecx
  00006	e8 00 00 00 00	 call	 ??1GuildAttendRewardWnd@@UAE@XZ ; GuildAttendRewardWnd::~GuildAttendRewardWnd
  0000b	f6 45 08 01	 test	 BYTE PTR ___flags$[ebp], 1
  0000f	74 07		 je	 SHORT $LN1@scalar@6
  00011	56		 push	 esi
  00012	e8 00 00 00 00	 call	 ??3@YAXPAX@Z		; operator delete
  00017	59		 pop	 ecx
$LN1@scalar@6:
  00018	8b c6		 mov	 eax, esi
  0001a	5e		 pop	 esi
  0001b	5d		 pop	 ebp
  0001c	c2 04 00	 ret	 4
??_GGuildAttendRewardWnd@@UAEPAXI@Z ENDP		; GuildAttendRewardWnd::`scalar deleting destructor'
; Function compile flags: /Ogsp
_TEXT	ENDS
;	COMDAT ??_GGuildRankRewardWnd@@UAEPAXI@Z
_TEXT	SEGMENT
___flags$ = 8						; size = 4
??_GGuildRankRewardWnd@@UAEPAXI@Z PROC			; GuildRankRewardWnd::`scalar deleting destructor', COMDAT
; _this$ = ecx
  00000	55		 push	 ebp
  00001	8b ec		 mov	 ebp, esp
  00003	56		 push	 esi
  00004	8b f1		 mov	 esi, ecx
  00006	e8 00 00 00 00	 call	 ??1GuildRankRewardWnd@@UAE@XZ ; GuildRankRewardWnd::~GuildRankRewardWnd
  0000b	f6 45 08 01	 test	 BYTE PTR ___flags$[ebp], 1
  0000f	74 07		 je	 SHORT $LN1@scalar@7
  00011	56		 push	 esi
  00012	e8 00 00 00 00	 call	 ??3@YAXPAX@Z		; operator delete
  00017	59		 pop	 ecx
$LN1@scalar@7:
  00018	8b c6		 mov	 eax, esi
  0001a	5e		 pop	 esi
  0001b	5d		 pop	 ebp
  0001c	c2 04 00	 ret	 4
??_GGuildRankRewardWnd@@UAEPAXI@Z ENDP			; GuildRankRewardWnd::`scalar deleting destructor'
; Function compile flags: /Ogsp
_TEXT	ENDS
;	COMDAT ??_GGuildEnableRewardToolTip@@UAEPAXI@Z
_TEXT	SEGMENT
___flags$ = 8						; size = 4
??_GGuildEnableRewardToolTip@@UAEPAXI@Z PROC		; GuildEnableRewardToolTip::`scalar deleting destructor', COMDAT
; _this$ = ecx
  00000	55		 push	 ebp
  00001	8b ec		 mov	 ebp, esp
  00003	56		 push	 esi
  00004	8b f1		 mov	 esi, ecx
  00006	e8 00 00 00 00	 call	 ??1GuildEnableRewardToolTip@@UAE@XZ ; GuildEnableRewardToolTip::~GuildEnableRewardToolTip
  0000b	f6 45 08 01	 test	 BYTE PTR ___flags$[ebp], 1
  0000f	74 07		 je	 SHORT $LN1@scalar@8
  00011	56		 push	 esi
  00012	e8 00 00 00 00	 call	 ??3@YAXPAX@Z		; operator delete
  00017	59		 pop	 ecx
$LN1@scalar@8:
  00018	8b c6		 mov	 eax, esi
  0001a	5e		 pop	 esi
  0001b	5d		 pop	 ebp
  0001c	c2 04 00	 ret	 4
??_GGuildEnableRewardToolTip@@UAEPAXI@Z ENDP		; GuildEnableRewardToolTip::`scalar deleting destructor'
_TEXT	ENDS
EXTRN	__imp_?GoToTop@ioWnd@@QAEXXZ:PROC
EXTRN	__imp_?SetScreenWndPos@ioWnd@@QAEXHH@Z:PROC
EXTRN	?GetNotCutWndPos@Help@@YAXHHHHAAH0@Z:PROC	; Help::GetNotCutWndPos
EXTRN	__imp_?GetMousePos@ioMouse@@QBEABUtagPOINT@@XZ:PROC
EXTRN	?SetToolTipCursor@ioLSMouse@@QAEXXZ:PROC	; ioLSMouse::SetToolTipCursor
EXTRN	?GetSingleton@ioApplication@@SAAAV1@XZ:PROC	; ioApplication::GetSingleton
EXTRN	__imp_?GetHeight@ioWnd@@QBEHXZ:PROC
EXTRN	__imp_?GetWidth@ioWnd@@QBEHXZ:PROC
; Function compile flags: /Ogsp
;	COMDAT ?OnProcess@GuildEnableRewardToolTip@@MAEXM@Z
_TEXT	SEGMENT
_iXPos$510497 = -8					; size = 4
_iYPos$510498 = -4					; size = 4
_fTimePerSec$ = 8					; size = 4
?OnProcess@GuildEnableRewardToolTip@@MAEXM@Z PROC	; GuildEnableRewardToolTip::OnProcess, COMDAT
; _this$ = ecx

; 740  : {

  00000	55		 push	 ebp
  00001	8b ec		 mov	 ebp, esp
  00003	51		 push	 ecx
  00004	51		 push	 ecx
  00005	57		 push	 edi
  00006	8b f9		 mov	 edi, ecx

; 741  : 	if ( IsShow() )

  00008	ff 15 00 00 00
	00		 call	 DWORD PTR __imp_?IsShow@ioWnd@@QBE_NXZ
  0000e	84 c0		 test	 al, al
  00010	0f 84 89 00 00
	00		 je	 $LN2@OnProcess

; 742  : 	{
; 743  : 		if ( GetWidth() != 0 && GetHeight() != 0 )

  00016	8b cf		 mov	 ecx, edi
  00018	ff 15 00 00 00
	00		 call	 DWORD PTR __imp_?GetWidth@ioWnd@@QBEHXZ
  0001e	85 c0		 test	 eax, eax
  00020	74 7d		 je	 SHORT $LN2@OnProcess
  00022	8b cf		 mov	 ecx, edi
  00024	ff 15 00 00 00
	00		 call	 DWORD PTR __imp_?GetHeight@ioWnd@@QBEHXZ
  0002a	85 c0		 test	 eax, eax
  0002c	74 71		 je	 SHORT $LN2@OnProcess

; 744  : 		{
; 745  : 			ioLSMouse *pMouse = g_App.GetMouse();

  0002e	56		 push	 esi
  0002f	e8 00 00 00 00	 call	 ?GetSingleton@ioApplication@@SAAAV1@XZ ; ioApplication::GetSingleton
  00034	8b f0		 mov	 esi, eax
  00036	81 c6 90 00 00
	00		 add	 esi, 144		; 00000090H

; 746  : 			if( !pMouse ) return;

  0003c	74 60		 je	 SHORT $LN8@OnProcess

; 747  : 			pMouse->SetToolTipCursor();

  0003e	53		 push	 ebx
  0003f	8b ce		 mov	 ecx, esi
  00041	e8 00 00 00 00	 call	 ?SetToolTipCursor@ioLSMouse@@QAEXXZ ; ioLSMouse::SetToolTipCursor

; 748  : 			int iXPos = 0;

  00046	83 65 f8 00	 and	 DWORD PTR _iXPos$510497[ebp], 0

; 749  : 			int iYPos = 0;

  0004a	83 65 fc 00	 and	 DWORD PTR _iYPos$510498[ebp], 0

; 750  : 			Help::GetNotCutWndPos( pMouse->GetMousePos().x, pMouse->GetMousePos().y, GetWidth(), GetHeight(), iXPos, iYPos );

  0004e	8b ce		 mov	 ecx, esi
  00050	ff 15 00 00 00
	00		 call	 DWORD PTR __imp_?GetMousePos@ioMouse@@QBEABUtagPOINT@@XZ
  00056	8b d8		 mov	 ebx, eax
  00058	8d 45 fc	 lea	 eax, DWORD PTR _iYPos$510498[ebp]
  0005b	50		 push	 eax
  0005c	8d 45 f8	 lea	 eax, DWORD PTR _iXPos$510497[ebp]
  0005f	50		 push	 eax
  00060	8b cf		 mov	 ecx, edi
  00062	ff 15 00 00 00
	00		 call	 DWORD PTR __imp_?GetHeight@ioWnd@@QBEHXZ
  00068	50		 push	 eax
  00069	8b cf		 mov	 ecx, edi
  0006b	ff 15 00 00 00
	00		 call	 DWORD PTR __imp_?GetWidth@ioWnd@@QBEHXZ
  00071	50		 push	 eax
  00072	8b ce		 mov	 ecx, esi
  00074	ff 15 00 00 00
	00		 call	 DWORD PTR __imp_?GetMousePos@ioMouse@@QBEABUtagPOINT@@XZ
  0007a	ff 70 04	 push	 DWORD PTR [eax+4]
  0007d	ff 33		 push	 DWORD PTR [ebx]
  0007f	e8 00 00 00 00	 call	 ?GetNotCutWndPos@Help@@YAXHHHHAAH0@Z ; Help::GetNotCutWndPos
  00084	83 c4 18	 add	 esp, 24			; 00000018H

; 751  : 			SetScreenWndPos( iXPos, iYPos );

  00087	ff 75 fc	 push	 DWORD PTR _iYPos$510498[ebp]
  0008a	8b cf		 mov	 ecx, edi
  0008c	ff 75 f8	 push	 DWORD PTR _iXPos$510497[ebp]
  0008f	ff 15 00 00 00
	00		 call	 DWORD PTR __imp_?SetScreenWndPos@ioWnd@@QAEXHH@Z

; 752  : 			GoToTop();

  00095	8b cf		 mov	 ecx, edi
  00097	ff 15 00 00 00
	00		 call	 DWORD PTR __imp_?GoToTop@ioWnd@@QAEXXZ
  0009d	5b		 pop	 ebx
$LN8@OnProcess:
  0009e	5e		 pop	 esi
$LN2@OnProcess:
  0009f	5f		 pop	 edi

; 753  : 		}
; 754  : 	}
; 755  : }

  000a0	c9		 leave
  000a1	c2 04 00	 ret	 4
?OnProcess@GuildEnableRewardToolTip@@MAEXM@Z ENDP	; GuildEnableRewardToolTip::OnProcess
_TEXT	ENDS
PUBLIC	__real@402c000000000000
PUBLIC	??_C@_0CC@FJDJIEPP@GuildEnableRewardToolTip?3?3SetInf@ ; `string'
PUBLIC	?SetInfo@GuildEnableRewardToolTip@@QAEXVioHashString@@@Z ; GuildEnableRewardToolTip::SetInfo
EXTRN	__imp_?PlaySoundA@ioSoundManager@@QAEKABVioHashString@@HK@Z:PROC
EXTRN	__imp_?GetSingleton@ioSoundManager@@SAAAV1@XZ:PROC
EXTRN	?AddTextPiece@ioComplexStringPrinter@@QAEXMPBD0@Z:PROC ; ioComplexStringPrinter::AddTextPiece
;	COMDAT __real@402c000000000000
; File d:\lost saga for developer\youtube\tutorial\source\src\lsclient\iocomplexstringprinter.h
CONST	SEGMENT
__real@402c000000000000 DQ 0402c000000000000r	; 14
CONST	ENDS
;	COMDAT ??_C@_0CC@FJDJIEPP@GuildEnableRewardToolTip?3?3SetInf@
CONST	SEGMENT
??_C@_0CC@FJDJIEPP@GuildEnableRewardToolTip?3?3SetInf@ DB 'GuildEnableRew'
	DB	'ardToolTip::SetInfo', 00H			; `string'
CONST	ENDS
;	COMDAT xdata$x
xdata$x	SEGMENT
__unwindtable$?SetInfo@GuildEnableRewardToolTip@@QAEXVioHashString@@@Z DD 0ffffffffH
	DD	FLAT:__unwindfunclet$?SetInfo@GuildEnableRewardToolTip@@QAEXVioHashString@@@Z$0
__ehfuncinfo$?SetInfo@GuildEnableRewardToolTip@@QAEXVioHashString@@@Z DD 019930522H
	DD	01H
	DD	FLAT:__unwindtable$?SetInfo@GuildEnableRewardToolTip@@QAEXVioHashString@@@Z
	DD	2 DUP(00H)
	DD	2 DUP(00H)
	DD	00H
	DD	01H
; Function compile flags: /Ogsp
; File d:\lost saga for developer\youtube\tutorial\source\src\lsclient\gui\guildrewardwnd.cpp
xdata$x	ENDS
;	COMDAT ?SetInfo@GuildEnableRewardToolTip@@QAEXVioHashString@@@Z
_TEXT	SEGMENT
__$EHRec$ = -12						; size = 12
_szItemName$ = 8					; size = 16
?SetInfo@GuildEnableRewardToolTip@@QAEXVioHashString@@@Z PROC ; GuildEnableRewardToolTip::SetInfo, COMDAT
; _this$ = ecx

; 758  : {

  00000	6a 00		 push	 0
  00002	b8 00 00 00 00	 mov	 eax, __ehhandler$?SetInfo@GuildEnableRewardToolTip@@QAEXVioHashString@@@Z
  00007	e8 00 00 00 00	 call	 __EH_prolog3
  0000c	8b f1		 mov	 esi, ecx
  0000e	33 db		 xor	 ebx, ebx

; 759  : 	if ( szItemName.IsEmpty() )

  00010	8d 4d 08	 lea	 ecx, DWORD PTR _szItemName$[ebp]
  00013	89 5d fc	 mov	 DWORD PTR __$EHRec$[ebp+8], ebx
  00016	ff 15 00 00 00
	00		 call	 DWORD PTR __imp_?IsEmpty@ioHashString@@QBE_NXZ
  0001c	84 c0		 test	 al, al
  0001e	74 0e		 je	 SHORT $LN2@SetInfo

; 760  : 	{
; 761  : 		SetSize( 0, 0 );

  00020	8b 06		 mov	 eax, DWORD PTR [esi]
  00022	53		 push	 ebx
  00023	53		 push	 ebx
  00024	8b ce		 mov	 ecx, esi
  00026	ff 50 2c	 call	 DWORD PTR [eax+44]

; 762  : 		return;

  00029	e9 b9 00 00 00	 jmp	 $LN1@SetInfo
$LN2@SetInfo:

; 763  : 	}
; 764  : 	m_szPresentName.ClearList();

  0002e	8d 8e 60 01 00
	00		 lea	 ecx, DWORD PTR [esi+352]
  00034	e8 00 00 00 00	 call	 ?ClearList@ioComplexStringPrinter@@QAEXXZ ; ioComplexStringPrinter::ClearList

; 765  : 	m_szPresentName.SetTextStyle( TS_NORMAL );

  00039	53		 push	 ebx
  0003a	8d 8e 60 01 00
	00		 lea	 ecx, DWORD PTR [esi+352]
  00040	e8 00 00 00 00	 call	 ?SetTextStyle@ioComplexStringPrinter@@QAEXW4TextStyle@@@Z ; ioComplexStringPrinter::SetTextStyle

; 766  : 	m_szPresentName.SetBkColor( 0, 0, 0 );	

  00045	53		 push	 ebx
  00046	53		 push	 ebx
  00047	53		 push	 ebx
  00048	8d 8e 60 01 00
	00		 lea	 ecx, DWORD PTR [esi+352]
  0004e	e8 00 00 00 00	 call	 ?SetBkColor@ioComplexStringPrinter@@QAEXHHH@Z ; ioComplexStringPrinter::SetBkColor

; 767  : 	m_szPresentName.SetTextColor( TCT_DEFAULT_DARKGRAY ); // 

  00053	68 3a 3a 3a ff	 push	 -12961222		; ff3a3a3aH
  00058	8d 8e 60 01 00
	00		 lea	 ecx, DWORD PTR [esi+352]
  0005e	e8 00 00 00 00	 call	 ?SetTextColor@ioComplexStringPrinter@@QAEXK@Z ; ioComplexStringPrinter::SetTextColor

; 768  : 	m_szPresentName.AddTextPiece( FONT_SIZE_12, STR(1), szItemName.c_str() );

  00063	8d 4d 08	 lea	 ecx, DWORD PTR _szItemName$[ebp]
  00066	ff 15 00 00 00
	00		 call	 DWORD PTR __imp_?c_str@ioHashString@@QBEPBDXZ
  0006c	50		 push	 eax
  0006d	53		 push	 ebx
  0006e	6a 01		 push	 1
  00070	68 00 00 00 00	 push	 OFFSET ??_C@_00CNPNBAHC@?$AA@
  00075	68 00 00 00 00	 push	 OFFSET ??_C@_0CC@FJDJIEPP@GuildEnableRewardToolTip?3?3SetInf@
  0007a	ff 15 00 00 00
	00		 call	 DWORD PTR __imp_?GetSingleton@ioStringManager@@SAAAV1@XZ
  00080	8b c8		 mov	 ecx, eax
  00082	ff 15 00 00 00
	00		 call	 DWORD PTR __imp_?GetString@ioStringManager@@QAEPADPBD0HW4FileNamePrefix@1@@Z
  00088	f3 0f 10 05 00
	00 00 00	 movss	 xmm0, DWORD PTR __real@3f19999a
  00090	50		 push	 eax
  00091	51		 push	 ecx
  00092	8d 8e 60 01 00
	00		 lea	 ecx, DWORD PTR [esi+352]
  00098	f3 0f 11 04 24	 movss	 DWORD PTR [esp], xmm0
  0009d	e8 00 00 00 00	 call	 ?AddTextPiece@ioComplexStringPrinter@@QAEXMPBD0@Z ; ioComplexStringPrinter::AddTextPiece

; 769  : 
; 770  : 	int iMaxWidth  = m_szPresentName.GetFullWidth() + SIDE_TEXT_GAP;

  000a2	f3 0f 10 86 7c
	01 00 00	 movss	 xmm0, DWORD PTR [esi+380]

; 771  : 	int iMaxHeight = MIN_HEIGHT;
; 772  : 	SetSize( iMaxWidth, iMaxHeight );

  000aa	8b 16		 mov	 edx, DWORD PTR [esi]
  000ac	0f 5a c0	 cvtps2pd xmm0, xmm0
  000af	f2 0f 58 05 00
	00 00 00	 addsd	 xmm0, QWORD PTR __real@402c000000000000
  000b7	6a 1a		 push	 26			; 0000001aH
  000b9	f2 0f 2c c0	 cvttsd2si eax, xmm0
  000bd	50		 push	 eax
  000be	8b ce		 mov	 ecx, esi
  000c0	ff 52 2c	 call	 DWORD PTR [edx+44]

; 773  : 
; 774  : 	if( !m_szRewardInfoOverSnd.IsEmpty() )

  000c3	81 c6 80 01 00
	00		 add	 esi, 384		; 00000180H
  000c9	8b ce		 mov	 ecx, esi
  000cb	ff 15 00 00 00
	00		 call	 DWORD PTR __imp_?IsEmpty@ioHashString@@QBE_NXZ
  000d1	84 c0		 test	 al, al
  000d3	75 12		 jne	 SHORT $LN1@SetInfo

; 775  : 		g_SoundMgr.PlaySound( m_szRewardInfoOverSnd );

  000d5	6a 04		 push	 4
  000d7	53		 push	 ebx
  000d8	56		 push	 esi
  000d9	ff 15 00 00 00
	00		 call	 DWORD PTR __imp_?GetSingleton@ioSoundManager@@SAAAV1@XZ
  000df	8b c8		 mov	 ecx, eax
  000e1	ff 15 00 00 00
	00		 call	 DWORD PTR __imp_?PlaySoundA@ioSoundManager@@QAEKABVioHashString@@HK@Z
$LN1@SetInfo:

; 776  : }

  000e7	83 4d fc ff	 or	 DWORD PTR __$EHRec$[ebp+8], -1
  000eb	8d 4d 08	 lea	 ecx, DWORD PTR _szItemName$[ebp]
  000ee	ff 15 00 00 00
	00		 call	 DWORD PTR __imp_??1ioHashString@@QAE@XZ
  000f4	e8 00 00 00 00	 call	 __EH_epilog3
  000f9	c2 10 00	 ret	 16			; 00000010H
_TEXT	ENDS
;	COMDAT text$x
text$x	SEGMENT
__unwindfunclet$?SetInfo@GuildEnableRewardToolTip@@QAEXVioHashString@@@Z$0:
  00000	8d 4d 08	 lea	 ecx, DWORD PTR _szItemName$[ebp]
  00003	ff 25 00 00 00
	00		 jmp	 DWORD PTR __imp_??1ioHashString@@QAE@XZ
__ehhandler$?SetInfo@GuildEnableRewardToolTip@@QAEXVioHashString@@@Z:
  00009	8b 54 24 08	 mov	 edx, DWORD PTR [esp+8]
  0000d	8d 42 0c	 lea	 eax, DWORD PTR [edx+12]
  00010	8b 4a f0	 mov	 ecx, DWORD PTR [edx-16]
  00013	33 c8		 xor	 ecx, eax
  00015	e8 00 00 00 00	 call	 @__security_check_cookie@4
  0001a	b8 00 00 00 00	 mov	 eax, OFFSET __ehfuncinfo$?SetInfo@GuildEnableRewardToolTip@@QAEXVioHashString@@@Z
  0001f	e9 00 00 00 00	 jmp	 ___CxxFrameHandler3
text$x	ENDS
?SetInfo@GuildEnableRewardToolTip@@QAEXVioHashString@@@Z ENDP ; GuildEnableRewardToolTip::SetInfo
PUBLIC	?max_size@?$vector@VGashaponPresent@@V?$allocator@VGashaponPresent@@@std@@@std@@QBEIXZ ; std::vector<GashaponPresent,std::allocator<GashaponPresent> >::max_size
; Function compile flags: /Ogsp
; File c:\program files (x86)\microsoft visual studio 10.0\vc\include\vector
;	COMDAT ?max_size@?$vector@VGashaponPresent@@V?$allocator@VGashaponPresent@@@std@@@std@@QBEIXZ
_TEXT	SEGMENT
?max_size@?$vector@VGashaponPresent@@V?$allocator@VGashaponPresent@@@std@@@std@@QBEIXZ PROC ; std::vector<GashaponPresent,std::allocator<GashaponPresent> >::max_size, COMDAT
; _this$ = ecx

; 884  : 		return (this->_Alval.max_size());

  00000	b8 cc cc cc 0c	 mov	 eax, 214748364		; 0cccccccH

; 885  : 		}

  00005	c3		 ret	 0
?max_size@?$vector@VGashaponPresent@@V?$allocator@VGashaponPresent@@@std@@@std@@QBEIXZ ENDP ; std::vector<GashaponPresent,std::allocator<GashaponPresent> >::max_size
_TEXT	ENDS
PUBLIC	?allocate@?$allocator@VGashaponPresent@@@std@@QAEPAVGashaponPresent@@I@Z ; std::allocator<GashaponPresent>::allocate
; Function compile flags: /Ogsp
; File c:\program files (x86)\microsoft visual studio 10.0\vc\include\xmemory
;	COMDAT ?allocate@?$allocator@VGashaponPresent@@@std@@QAEPAVGashaponPresent@@I@Z
_TEXT	SEGMENT
__Count$ = 8						; size = 4
?allocate@?$allocator@VGashaponPresent@@@std@@QAEPAVGashaponPresent@@I@Z PROC ; std::allocator<GashaponPresent>::allocate, COMDAT
; _this$ = ecx

; 186  : 		{	// allocate array of _Count elements

  00000	55		 push	 ebp
  00001	8b ec		 mov	 ebp, esp

; 187  : 		return (_Allocate(_Count, (pointer)0));

  00003	6a 00		 push	 0
  00005	ff 75 08	 push	 DWORD PTR __Count$[ebp]
  00008	e8 00 00 00 00	 call	 ??$_Allocate@VGashaponPresent@@@std@@YAPAVGashaponPresent@@IPAV1@@Z ; std::_Allocate<GashaponPresent>
  0000d	59		 pop	 ecx
  0000e	59		 pop	 ecx

; 188  : 		}

  0000f	5d		 pop	 ebp
  00010	c2 04 00	 ret	 4
?allocate@?$allocator@VGashaponPresent@@@std@@QAEPAVGashaponPresent@@I@Z ENDP ; std::allocator<GashaponPresent>::allocate
_TEXT	ENDS
PUBLIC	??0?$_Vector_iterator@V?$_Vector_val@VGashaponPresent@@V?$allocator@VGashaponPresent@@@std@@@std@@@std@@QAE@PAVGashaponPresent@@PBU_Container_base0@1@@Z ; std::_Vector_iterator<std::_Vector_val<GashaponPresent,std::allocator<GashaponPresent> > >::_Vector_iterator<std::_Vector_val<GashaponPresent,std::allocator<GashaponPresent> > >
; Function compile flags: /Ogsp
; File c:\program files (x86)\microsoft visual studio 10.0\vc\include\vector
;	COMDAT ??0?$_Vector_iterator@V?$_Vector_val@VGashaponPresent@@V?$allocator@VGashaponPresent@@@std@@@std@@@std@@QAE@PAVGashaponPresent@@PBU_Container_base0@1@@Z
_TEXT	SEGMENT
__Parg$ = 8						; size = 4
__Pvector$ = 12						; size = 4
??0?$_Vector_iterator@V?$_Vector_val@VGashaponPresent@@V?$allocator@VGashaponPresent@@@std@@@std@@@std@@QAE@PAVGashaponPresent@@PBU_Container_base0@1@@Z PROC ; std::_Vector_iterator<std::_Vector_val<GashaponPresent,std::allocator<GashaponPresent> > >::_Vector_iterator<std::_Vector_val<GashaponPresent,std::allocator<GashaponPresent> > >, COMDAT
; _this$ = ecx

; 304  : 		{	// construct with pointer _Parg

  00000	55		 push	 ebp
  00001	8b ec		 mov	 ebp, esp
  00003	8b c1		 mov	 eax, ecx
  00005	8b 4d 08	 mov	 ecx, DWORD PTR __Parg$[ebp]
  00008	89 08		 mov	 DWORD PTR [eax], ecx

; 305  : 		}

  0000a	5d		 pop	 ebp
  0000b	c2 08 00	 ret	 8
??0?$_Vector_iterator@V?$_Vector_val@VGashaponPresent@@V?$allocator@VGashaponPresent@@@std@@@std@@@std@@QAE@PAVGashaponPresent@@PBU_Container_base0@1@@Z ENDP ; std::_Vector_iterator<std::_Vector_val<GashaponPresent,std::allocator<GashaponPresent> > >::_Vector_iterator<std::_Vector_val<GashaponPresent,std::allocator<GashaponPresent> > >
_TEXT	ENDS
PUBLIC	??8?$_Vector_const_iterator@V?$_Vector_val@VGashaponPresent@@V?$allocator@VGashaponPresent@@@std@@@std@@@std@@QBE_NABV01@@Z ; std::_Vector_const_iterator<std::_Vector_val<GashaponPresent,std::allocator<GashaponPresent> > >::operator==
; Function compile flags: /Ogsp
;	COMDAT ??8?$_Vector_const_iterator@V?$_Vector_val@VGashaponPresent@@V?$allocator@VGashaponPresent@@@std@@@std@@@std@@QBE_NABV01@@Z
_TEXT	SEGMENT
__Right$ = 8						; size = 4
??8?$_Vector_const_iterator@V?$_Vector_val@VGashaponPresent@@V?$allocator@VGashaponPresent@@@std@@@std@@@std@@QBE_NABV01@@Z PROC ; std::_Vector_const_iterator<std::_Vector_val<GashaponPresent,std::allocator<GashaponPresent> > >::operator==, COMDAT
; _this$ = ecx

; 201  : 		{	// test for iterator equality

  00000	55		 push	 ebp
  00001	8b ec		 mov	 ebp, esp

; 202  : 		_Compat(_Right);
; 203  : 		return (this->_Ptr == _Right._Ptr);

  00003	8b 01		 mov	 eax, DWORD PTR [ecx]
  00005	8b 4d 08	 mov	 ecx, DWORD PTR __Right$[ebp]
  00008	2b 01		 sub	 eax, DWORD PTR [ecx]
  0000a	f7 d8		 neg	 eax
  0000c	1b c0		 sbb	 eax, eax
  0000e	40		 inc	 eax

; 204  : 		}

  0000f	5d		 pop	 ebp
  00010	c2 04 00	 ret	 4
??8?$_Vector_const_iterator@V?$_Vector_val@VGashaponPresent@@V?$allocator@VGashaponPresent@@@std@@@std@@@std@@QBE_NABV01@@Z ENDP ; std::_Vector_const_iterator<std::_Vector_val<GashaponPresent,std::allocator<GashaponPresent> > >::operator==
_TEXT	ENDS
PUBLIC	__$ArrayPad$
PUBLIC	??$?8$0P@@@YA_NABVioHashString@@AAY0P@$$CBD@Z	; operator==<15>
; Function compile flags: /Ogsp
; File d:\lost saga for developer\youtube\tutorial\source\src\io3dengine\iohashstring.h
;	COMDAT ??$?8$0P@@@YA_NABVioHashString@@AAY0P@$$CBD@Z
_TEXT	SEGMENT
__t$ = -24						; size = 15
__$ArrayPad$ = -4					; size = 4
_lhs$ = 8						; size = 4
_t$ = 12						; size = 4
??$?8$0P@@@YA_NABVioHashString@@AAY0P@$$CBD@Z PROC	; operator==<15>, COMDAT

; 146  : {

  00000	55		 push	 ebp
  00001	8b ec		 mov	 ebp, esp
  00003	83 ec 18	 sub	 esp, 24			; 00000018H
  00006	a1 00 00 00 00	 mov	 eax, DWORD PTR ___security_cookie
  0000b	33 c5		 xor	 eax, ebp
  0000d	89 45 fc	 mov	 DWORD PTR __$ArrayPad$[ebp], eax
  00010	8b 45 0c	 mov	 eax, DWORD PTR _t$[ebp]

; 147  : 	_ENCSTR(t, _t); return ( strcmp( lhs.c_str(), _t ) == 0 );

  00013	8a 10		 mov	 dl, BYTE PTR [eax]
  00015	56		 push	 esi
  00016	57		 push	 edi
  00017	8b 7d 08	 mov	 edi, DWORD PTR _lhs$[ebp]
  0001a	84 d2		 test	 dl, dl
  0001c	0f 84 75 01 00
	00		 je	 $LN96@operator
  00022	80 f2 ed	 xor	 dl, -19			; ffffffedH
  00025	88 55 e8	 mov	 BYTE PTR __t$[ebp], dl
  00028	8a 50 01	 mov	 dl, BYTE PTR [eax+1]
  0002b	84 d2		 test	 dl, dl
  0002d	0f 84 5e 01 00
	00		 je	 $LN95@operator
  00033	b1 ec		 mov	 cl, -20			; ffffffecH
  00035	32 d1		 xor	 dl, cl
  00037	88 55 e9	 mov	 BYTE PTR __t$[ebp+1], dl
  0003a	8a 50 02	 mov	 dl, BYTE PTR [eax+2]
  0003d	84 d2		 test	 dl, dl
  0003f	0f 84 46 01 00
	00		 je	 $LN94@operator
  00045	80 f2 eb	 xor	 dl, -21			; ffffffebH
  00048	88 55 ea	 mov	 BYTE PTR __t$[ebp+2], dl
  0004b	8a 50 03	 mov	 dl, BYTE PTR [eax+3]
  0004e	84 d2		 test	 dl, dl
  00050	0f 84 2f 01 00
	00		 je	 $LN93@operator
  00056	80 f2 ea	 xor	 dl, -22			; ffffffeaH
  00059	88 55 eb	 mov	 BYTE PTR __t$[ebp+3], dl
  0005c	8a 50 04	 mov	 dl, BYTE PTR [eax+4]
  0005f	84 d2		 test	 dl, dl
  00061	0f 84 18 01 00
	00		 je	 $LN92@operator
  00067	80 f2 ed	 xor	 dl, -19			; ffffffedH
  0006a	88 55 ec	 mov	 BYTE PTR __t$[ebp+4], dl
  0006d	8a 50 05	 mov	 dl, BYTE PTR [eax+5]
  00070	84 d2		 test	 dl, dl
  00072	0f 84 02 01 00
	00		 je	 $LN91@operator
  00078	32 d1		 xor	 dl, cl
  0007a	88 55 ed	 mov	 BYTE PTR __t$[ebp+5], dl
  0007d	8a 50 06	 mov	 dl, BYTE PTR [eax+6]
  00080	84 d2		 test	 dl, dl
  00082	0f 84 ec 00 00
	00		 je	 $LN90@operator
  00088	80 f2 eb	 xor	 dl, -21			; ffffffebH
  0008b	88 55 ee	 mov	 BYTE PTR __t$[ebp+6], dl
  0008e	8a 50 07	 mov	 dl, BYTE PTR [eax+7]
  00091	84 d2		 test	 dl, dl
  00093	0f 84 d5 00 00
	00		 je	 $LN89@operator
  00099	80 f2 ea	 xor	 dl, -22			; ffffffeaH
  0009c	88 55 ef	 mov	 BYTE PTR __t$[ebp+7], dl
  0009f	8a 50 08	 mov	 dl, BYTE PTR [eax+8]
  000a2	84 d2		 test	 dl, dl
  000a4	0f 84 be 00 00
	00		 je	 $LN88@operator
  000aa	80 f2 ed	 xor	 dl, -19			; ffffffedH
  000ad	88 55 f0	 mov	 BYTE PTR __t$[ebp+8], dl
  000b0	8a 50 09	 mov	 dl, BYTE PTR [eax+9]
  000b3	84 d2		 test	 dl, dl
  000b5	0f 84 a8 00 00
	00		 je	 $LN87@operator
  000bb	32 d1		 xor	 dl, cl
  000bd	88 55 f1	 mov	 BYTE PTR __t$[ebp+9], dl
  000c0	8a 50 0a	 mov	 dl, BYTE PTR [eax+10]
  000c3	84 d2		 test	 dl, dl
  000c5	0f 84 92 00 00
	00		 je	 $LN86@operator
  000cb	80 f2 eb	 xor	 dl, -21			; ffffffebH
  000ce	88 55 f2	 mov	 BYTE PTR __t$[ebp+10], dl
  000d1	8a 50 0b	 mov	 dl, BYTE PTR [eax+11]
  000d4	84 d2		 test	 dl, dl
  000d6	74 7f		 je	 SHORT $LN85@operator
  000d8	80 f2 ea	 xor	 dl, -22			; ffffffeaH
  000db	88 55 f3	 mov	 BYTE PTR __t$[ebp+11], dl
  000de	8a 50 0c	 mov	 dl, BYTE PTR [eax+12]
  000e1	84 d2		 test	 dl, dl
  000e3	74 6c		 je	 SHORT $LN84@operator
  000e5	80 f2 ed	 xor	 dl, -19			; ffffffedH
  000e8	88 55 f4	 mov	 BYTE PTR __t$[ebp+12], dl
  000eb	8a 50 0d	 mov	 dl, BYTE PTR [eax+13]
  000ee	84 d2		 test	 dl, dl
  000f0	74 5a		 je	 SHORT $LN83@operator
  000f2	32 d1		 xor	 dl, cl
  000f4	80 78 0e 00	 cmp	 BYTE PTR [eax+14], 0
  000f8	88 55 f5	 mov	 BYTE PTR __t$[ebp+13], dl
  000fb	0f 84 9a 00 00
	00		 je	 $LN1@operator
  00101	8a 50 0f	 mov	 dl, BYTE PTR [eax+15]
  00104	84 d2		 test	 dl, dl
  00106	74 3e		 je	 SHORT $LN81@operator
  00108	80 f2 ea	 xor	 dl, -22			; ffffffeaH
  0010b	88 55 f7	 mov	 BYTE PTR __t$[ebp+15], dl
  0010e	8a 50 10	 mov	 dl, BYTE PTR [eax+16]
  00111	84 d2		 test	 dl, dl
  00113	74 2b		 je	 SHORT $LN80@operator
  00115	80 f2 ed	 xor	 dl, -19			; ffffffedH
  00118	88 55 f8	 mov	 BYTE PTR __t$[ebp+16], dl
  0011b	8a 50 11	 mov	 dl, BYTE PTR [eax+17]
  0011e	84 d2		 test	 dl, dl
  00120	74 19		 je	 SHORT $LN79@operator
  00122	8a 40 12	 mov	 al, BYTE PTR [eax+18]
  00125	32 d1		 xor	 dl, cl
  00127	88 55 f9	 mov	 BYTE PTR __t$[ebp+17], dl
  0012a	84 c0		 test	 al, al
  0012c	74 07		 je	 SHORT $LN78@operator
  0012e	34 eb		 xor	 al, -21			; ffffffebH
  00130	88 45 fa	 mov	 BYTE PTR __t$[ebp+18], al
  00133	eb 66		 jmp	 SHORT $LN1@operator
$LN78@operator:
  00135	c6 45 fa eb	 mov	 BYTE PTR __t$[ebp+18], -21 ; ffffffebH
  00139	eb 60		 jmp	 SHORT $LN1@operator
$LN79@operator:
  0013b	88 4d f9	 mov	 BYTE PTR __t$[ebp+17], cl
  0013e	eb 5b		 jmp	 SHORT $LN1@operator
$LN80@operator:
  00140	c6 45 f8 ed	 mov	 BYTE PTR __t$[ebp+16], -19 ; ffffffedH
  00144	eb 55		 jmp	 SHORT $LN1@operator
$LN81@operator:
  00146	c6 45 f7 ea	 mov	 BYTE PTR __t$[ebp+15], -22 ; ffffffeaH
  0014a	eb 4f		 jmp	 SHORT $LN1@operator
$LN83@operator:
  0014c	88 4d f5	 mov	 BYTE PTR __t$[ebp+13], cl
  0014f	eb 4a		 jmp	 SHORT $LN1@operator
$LN84@operator:
  00151	c6 45 f4 ed	 mov	 BYTE PTR __t$[ebp+12], -19 ; ffffffedH
  00155	eb 44		 jmp	 SHORT $LN1@operator
$LN85@operator:
  00157	c6 45 f3 ea	 mov	 BYTE PTR __t$[ebp+11], -22 ; ffffffeaH
  0015b	eb 3e		 jmp	 SHORT $LN1@operator
$LN86@operator:
  0015d	c6 45 f2 eb	 mov	 BYTE PTR __t$[ebp+10], -21 ; ffffffebH
  00161	eb 38		 jmp	 SHORT $LN1@operator
$LN87@operator:
  00163	88 4d f1	 mov	 BYTE PTR __t$[ebp+9], cl
  00166	eb 33		 jmp	 SHORT $LN1@operator
$LN88@operator:
  00168	c6 45 f0 ed	 mov	 BYTE PTR __t$[ebp+8], -19 ; ffffffedH
  0016c	eb 2d		 jmp	 SHORT $LN1@operator
$LN89@operator:
  0016e	c6 45 ef ea	 mov	 BYTE PTR __t$[ebp+7], -22 ; ffffffeaH
  00172	eb 27		 jmp	 SHORT $LN1@operator
$LN90@operator:
  00174	c6 45 ee eb	 mov	 BYTE PTR __t$[ebp+6], -21 ; ffffffebH
  00178	eb 21		 jmp	 SHORT $LN1@operator
$LN91@operator:
  0017a	88 4d ed	 mov	 BYTE PTR __t$[ebp+5], cl
  0017d	eb 1c		 jmp	 SHORT $LN1@operator
$LN92@operator:
  0017f	c6 45 ec ed	 mov	 BYTE PTR __t$[ebp+4], -19 ; ffffffedH
  00183	eb 16		 jmp	 SHORT $LN1@operator
$LN93@operator:
  00185	c6 45 eb ea	 mov	 BYTE PTR __t$[ebp+3], -22 ; ffffffeaH
  00189	eb 10		 jmp	 SHORT $LN1@operator
$LN94@operator:
  0018b	c6 45 ea eb	 mov	 BYTE PTR __t$[ebp+2], -21 ; ffffffebH
  0018f	eb 0a		 jmp	 SHORT $LN1@operator
$LN95@operator:
  00191	c6 45 e9 ec	 mov	 BYTE PTR __t$[ebp+1], -20 ; ffffffecH
  00195	eb 04		 jmp	 SHORT $LN1@operator
$LN96@operator:
  00197	c6 45 e8 ed	 mov	 BYTE PTR __t$[ebp], -19	; ffffffedH
$LN1@operator:
  0019b	6a 03		 push	 3
  0019d	8d 45 e8	 lea	 eax, DWORD PTR __t$[ebp]
  001a0	c6 45 f6 00	 mov	 BYTE PTR __t$[ebp+14], 0
  001a4	5a		 pop	 edx
$LL104@operator:
  001a5	81 30 ed ec eb
	ea		 xor	 DWORD PTR [eax], -353637139 ; eaebecedH
  001ab	83 c0 04	 add	 eax, 4
  001ae	4a		 dec	 edx
  001af	75 f4		 jne	 SHORT $LL104@operator
  001b1	6a 0c		 push	 12			; 0000000cH
  001b3	58		 pop	 eax
$LL101@operator:
  001b4	8b c8		 mov	 ecx, eax
  001b6	81 e1 03 00 00
	80		 and	 ecx, -2147483645	; 80000003H
  001bc	79 05		 jns	 SHORT $LN115@operator
  001be	49		 dec	 ecx
  001bf	83 c9 fc	 or	 ecx, -4			; fffffffcH
  001c2	41		 inc	 ecx
$LN115@operator:
  001c3	b2 ed		 mov	 dl, -19			; ffffffedH
  001c5	2a d1		 sub	 dl, cl
  001c7	30 54 05 e8	 xor	 BYTE PTR __t$[ebp+eax], dl
  001cb	40		 inc	 eax
  001cc	83 f8 0e	 cmp	 eax, 14			; 0000000eH
  001cf	7c e3		 jl	 SHORT $LL101@operator
  001d1	8b cf		 mov	 ecx, edi
  001d3	8d 75 e8	 lea	 esi, DWORD PTR __t$[ebp]
  001d6	ff 15 00 00 00
	00		 call	 DWORD PTR __imp_?c_str@ioHashString@@QBEPBDXZ
$LL111@operator:
  001dc	8a 08		 mov	 cl, BYTE PTR [eax]
  001de	3a 0e		 cmp	 cl, BYTE PTR [esi]
  001e0	75 1a		 jne	 SHORT $LN112@operator
  001e2	84 c9		 test	 cl, cl
  001e4	74 12		 je	 SHORT $LN113@operator
  001e6	8a 48 01	 mov	 cl, BYTE PTR [eax+1]
  001e9	3a 4e 01	 cmp	 cl, BYTE PTR [esi+1]
  001ec	75 0e		 jne	 SHORT $LN112@operator
  001ee	83 c0 02	 add	 eax, 2
  001f1	83 c6 02	 add	 esi, 2
  001f4	84 c9		 test	 cl, cl
  001f6	75 e4		 jne	 SHORT $LL111@operator
$LN113@operator:
  001f8	33 c0		 xor	 eax, eax
  001fa	eb 05		 jmp	 SHORT $LN114@operator
$LN112@operator:
  001fc	1b c0		 sbb	 eax, eax
  001fe	83 d8 ff	 sbb	 eax, -1
$LN114@operator:
  00201	33 c9		 xor	 ecx, ecx
  00203	85 c0		 test	 eax, eax
  00205	0f 94 c0	 sete	 al

; 148  : }

  00208	8b 4d fc	 mov	 ecx, DWORD PTR __$ArrayPad$[ebp]
  0020b	5f		 pop	 edi
  0020c	33 cd		 xor	 ecx, ebp
  0020e	5e		 pop	 esi
  0020f	e8 00 00 00 00	 call	 @__security_check_cookie@4
  00214	c9		 leave
  00215	c3		 ret	 0
??$?8$0P@@@YA_NABVioHashString@@AAY0P@$$CBD@Z ENDP	; operator==<15>
_TEXT	ENDS
PUBLIC	__$ArrayPad$
PUBLIC	??$?8$0O@@@YA_NABVioHashString@@AAY0O@$$CBD@Z	; operator==<14>
; Function compile flags: /Ogsp
;	COMDAT ??$?8$0O@@@YA_NABVioHashString@@AAY0O@$$CBD@Z
_TEXT	SEGMENT
__t$ = -24						; size = 14
__$ArrayPad$ = -4					; size = 4
_lhs$ = 8						; size = 4
_t$ = 12						; size = 4
??$?8$0O@@@YA_NABVioHashString@@AAY0O@$$CBD@Z PROC	; operator==<14>, COMDAT

; 146  : {

  00000	55		 push	 ebp
  00001	8b ec		 mov	 ebp, esp
  00003	83 ec 18	 sub	 esp, 24			; 00000018H
  00006	a1 00 00 00 00	 mov	 eax, DWORD PTR ___security_cookie
  0000b	33 c5		 xor	 eax, ebp
  0000d	89 45 fc	 mov	 DWORD PTR __$ArrayPad$[ebp], eax
  00010	8b 45 0c	 mov	 eax, DWORD PTR _t$[ebp]

; 147  : 	_ENCSTR(t, _t); return ( strcmp( lhs.c_str(), _t ) == 0 );

  00013	8a 10		 mov	 dl, BYTE PTR [eax]
  00015	56		 push	 esi
  00016	57		 push	 edi
  00017	8b 7d 08	 mov	 edi, DWORD PTR _lhs$[ebp]
  0001a	84 d2		 test	 dl, dl
  0001c	0f 84 64 01 00
	00		 je	 $LN96@operator@2
  00022	80 f2 ed	 xor	 dl, -19			; ffffffedH
  00025	88 55 e8	 mov	 BYTE PTR __t$[ebp], dl
  00028	8a 50 01	 mov	 dl, BYTE PTR [eax+1]
  0002b	84 d2		 test	 dl, dl
  0002d	0f 84 4d 01 00
	00		 je	 $LN95@operator@2
  00033	80 f2 ec	 xor	 dl, -20			; ffffffecH
  00036	88 55 e9	 mov	 BYTE PTR __t$[ebp+1], dl
  00039	8a 50 02	 mov	 dl, BYTE PTR [eax+2]
  0003c	84 d2		 test	 dl, dl
  0003e	0f 84 36 01 00
	00		 je	 $LN94@operator@2
  00044	b1 eb		 mov	 cl, -21			; ffffffebH
  00046	32 d1		 xor	 dl, cl
  00048	88 55 ea	 mov	 BYTE PTR __t$[ebp+2], dl
  0004b	8a 50 03	 mov	 dl, BYTE PTR [eax+3]
  0004e	84 d2		 test	 dl, dl
  00050	0f 84 1e 01 00
	00		 je	 $LN93@operator@2
  00056	80 f2 ea	 xor	 dl, -22			; ffffffeaH
  00059	88 55 eb	 mov	 BYTE PTR __t$[ebp+3], dl
  0005c	8a 50 04	 mov	 dl, BYTE PTR [eax+4]
  0005f	84 d2		 test	 dl, dl
  00061	0f 84 07 01 00
	00		 je	 $LN92@operator@2
  00067	80 f2 ed	 xor	 dl, -19			; ffffffedH
  0006a	88 55 ec	 mov	 BYTE PTR __t$[ebp+4], dl
  0006d	8a 50 05	 mov	 dl, BYTE PTR [eax+5]
  00070	84 d2		 test	 dl, dl
  00072	0f 84 f0 00 00
	00		 je	 $LN91@operator@2
  00078	80 f2 ec	 xor	 dl, -20			; ffffffecH
  0007b	88 55 ed	 mov	 BYTE PTR __t$[ebp+5], dl
  0007e	8a 50 06	 mov	 dl, BYTE PTR [eax+6]
  00081	84 d2		 test	 dl, dl
  00083	0f 84 da 00 00
	00		 je	 $LN90@operator@2
  00089	32 d1		 xor	 dl, cl
  0008b	88 55 ee	 mov	 BYTE PTR __t$[ebp+6], dl
  0008e	8a 50 07	 mov	 dl, BYTE PTR [eax+7]
  00091	84 d2		 test	 dl, dl
  00093	0f 84 c4 00 00
	00		 je	 $LN89@operator@2
  00099	80 f2 ea	 xor	 dl, -22			; ffffffeaH
  0009c	88 55 ef	 mov	 BYTE PTR __t$[ebp+7], dl
  0009f	8a 50 08	 mov	 dl, BYTE PTR [eax+8]
  000a2	84 d2		 test	 dl, dl
  000a4	0f 84 ad 00 00
	00		 je	 $LN88@operator@2
  000aa	80 f2 ed	 xor	 dl, -19			; ffffffedH
  000ad	88 55 f0	 mov	 BYTE PTR __t$[ebp+8], dl
  000b0	8a 50 09	 mov	 dl, BYTE PTR [eax+9]
  000b3	84 d2		 test	 dl, dl
  000b5	0f 84 96 00 00
	00		 je	 $LN87@operator@2
  000bb	80 f2 ec	 xor	 dl, -20			; ffffffecH
  000be	88 55 f1	 mov	 BYTE PTR __t$[ebp+9], dl
  000c1	8a 50 0a	 mov	 dl, BYTE PTR [eax+10]
  000c4	84 d2		 test	 dl, dl
  000c6	0f 84 80 00 00
	00		 je	 $LN86@operator@2
  000cc	32 d1		 xor	 dl, cl
  000ce	88 55 f2	 mov	 BYTE PTR __t$[ebp+10], dl
  000d1	8a 50 0b	 mov	 dl, BYTE PTR [eax+11]
  000d4	84 d2		 test	 dl, dl
  000d6	74 6e		 je	 SHORT $LN85@operator@2
  000d8	80 f2 ea	 xor	 dl, -22			; ffffffeaH
  000db	88 55 f3	 mov	 BYTE PTR __t$[ebp+11], dl
  000de	8a 50 0c	 mov	 dl, BYTE PTR [eax+12]
  000e1	84 d2		 test	 dl, dl
  000e3	74 5b		 je	 SHORT $LN84@operator@2
  000e5	80 f2 ed	 xor	 dl, -19			; ffffffedH
  000e8	80 78 0d 00	 cmp	 BYTE PTR [eax+13], 0
  000ec	88 55 f4	 mov	 BYTE PTR __t$[ebp+12], dl
  000ef	0f 84 95 00 00
	00		 je	 $LN1@operator@2
  000f5	8a 50 0e	 mov	 dl, BYTE PTR [eax+14]
  000f8	84 d2		 test	 dl, dl
  000fa	74 3f		 je	 SHORT $LN82@operator@2
  000fc	32 d1		 xor	 dl, cl
  000fe	88 55 f6	 mov	 BYTE PTR __t$[ebp+14], dl
  00101	8a 50 0f	 mov	 dl, BYTE PTR [eax+15]
  00104	84 d2		 test	 dl, dl
  00106	74 2d		 je	 SHORT $LN81@operator@2
  00108	80 f2 ea	 xor	 dl, -22			; ffffffeaH
  0010b	88 55 f7	 mov	 BYTE PTR __t$[ebp+15], dl
  0010e	8a 50 10	 mov	 dl, BYTE PTR [eax+16]
  00111	84 d2		 test	 dl, dl
  00113	74 1a		 je	 SHORT $LN80@operator@2
  00115	8a 40 11	 mov	 al, BYTE PTR [eax+17]
  00118	80 f2 ed	 xor	 dl, -19			; ffffffedH
  0011b	88 55 f8	 mov	 BYTE PTR __t$[ebp+16], dl
  0011e	84 c0		 test	 al, al
  00120	74 07		 je	 SHORT $LN79@operator@2
  00122	34 ec		 xor	 al, -20			; ffffffecH
  00124	88 45 f9	 mov	 BYTE PTR __t$[ebp+17], al
  00127	eb 61		 jmp	 SHORT $LN1@operator@2
$LN79@operator@2:
  00129	c6 45 f9 ec	 mov	 BYTE PTR __t$[ebp+17], -20 ; ffffffecH
  0012d	eb 5b		 jmp	 SHORT $LN1@operator@2
$LN80@operator@2:
  0012f	c6 45 f8 ed	 mov	 BYTE PTR __t$[ebp+16], -19 ; ffffffedH
  00133	eb 55		 jmp	 SHORT $LN1@operator@2
$LN81@operator@2:
  00135	c6 45 f7 ea	 mov	 BYTE PTR __t$[ebp+15], -22 ; ffffffeaH
  00139	eb 4f		 jmp	 SHORT $LN1@operator@2
$LN82@operator@2:
  0013b	88 4d f6	 mov	 BYTE PTR __t$[ebp+14], cl
  0013e	eb 4a		 jmp	 SHORT $LN1@operator@2
$LN84@operator@2:
  00140	c6 45 f4 ed	 mov	 BYTE PTR __t$[ebp+12], -19 ; ffffffedH
  00144	eb 44		 jmp	 SHORT $LN1@operator@2
$LN85@operator@2:
  00146	c6 45 f3 ea	 mov	 BYTE PTR __t$[ebp+11], -22 ; ffffffeaH
  0014a	eb 3e		 jmp	 SHORT $LN1@operator@2
$LN86@operator@2:
  0014c	88 4d f2	 mov	 BYTE PTR __t$[ebp+10], cl
  0014f	eb 39		 jmp	 SHORT $LN1@operator@2
$LN87@operator@2:
  00151	c6 45 f1 ec	 mov	 BYTE PTR __t$[ebp+9], -20 ; ffffffecH
  00155	eb 33		 jmp	 SHORT $LN1@operator@2
$LN88@operator@2:
  00157	c6 45 f0 ed	 mov	 BYTE PTR __t$[ebp+8], -19 ; ffffffedH
  0015b	eb 2d		 jmp	 SHORT $LN1@operator@2
$LN89@operator@2:
  0015d	c6 45 ef ea	 mov	 BYTE PTR __t$[ebp+7], -22 ; ffffffeaH
  00161	eb 27		 jmp	 SHORT $LN1@operator@2
$LN90@operator@2:
  00163	88 4d ee	 mov	 BYTE PTR __t$[ebp+6], cl
  00166	eb 22		 jmp	 SHORT $LN1@operator@2
$LN91@operator@2:
  00168	c6 45 ed ec	 mov	 BYTE PTR __t$[ebp+5], -20 ; ffffffecH
  0016c	eb 1c		 jmp	 SHORT $LN1@operator@2
$LN92@operator@2:
  0016e	c6 45 ec ed	 mov	 BYTE PTR __t$[ebp+4], -19 ; ffffffedH
  00172	eb 16		 jmp	 SHORT $LN1@operator@2
$LN93@operator@2:
  00174	c6 45 eb ea	 mov	 BYTE PTR __t$[ebp+3], -22 ; ffffffeaH
  00178	eb 10		 jmp	 SHORT $LN1@operator@2
$LN94@operator@2:
  0017a	c6 45 ea eb	 mov	 BYTE PTR __t$[ebp+2], -21 ; ffffffebH
  0017e	eb 0a		 jmp	 SHORT $LN1@operator@2
$LN95@operator@2:
  00180	c6 45 e9 ec	 mov	 BYTE PTR __t$[ebp+1], -20 ; ffffffecH
  00184	eb 04		 jmp	 SHORT $LN1@operator@2
$LN96@operator@2:
  00186	c6 45 e8 ed	 mov	 BYTE PTR __t$[ebp], -19	; ffffffedH
$LN1@operator@2:
  0018a	6a 03		 push	 3
  0018c	8d 45 e8	 lea	 eax, DWORD PTR __t$[ebp]
  0018f	c6 45 f5 00	 mov	 BYTE PTR __t$[ebp+13], 0
  00193	5a		 pop	 edx
$LL104@operator@2:
  00194	81 30 ed ec eb
	ea		 xor	 DWORD PTR [eax], -353637139 ; eaebecedH
  0019a	83 c0 04	 add	 eax, 4
  0019d	4a		 dec	 edx
  0019e	75 f4		 jne	 SHORT $LL104@operator@2
  001a0	80 75 f4 ed	 xor	 BYTE PTR __t$[ebp+12], -19 ; ffffffedH
  001a4	8b cf		 mov	 ecx, edi
  001a6	8d 75 e8	 lea	 esi, DWORD PTR __t$[ebp]
  001a9	ff 15 00 00 00
	00		 call	 DWORD PTR __imp_?c_str@ioHashString@@QBEPBDXZ
$LL111@operator@2:
  001af	8a 08		 mov	 cl, BYTE PTR [eax]
  001b1	3a 0e		 cmp	 cl, BYTE PTR [esi]
  001b3	75 1a		 jne	 SHORT $LN112@operator@2
  001b5	84 c9		 test	 cl, cl
  001b7	74 12		 je	 SHORT $LN113@operator@2
  001b9	8a 48 01	 mov	 cl, BYTE PTR [eax+1]
  001bc	3a 4e 01	 cmp	 cl, BYTE PTR [esi+1]
  001bf	75 0e		 jne	 SHORT $LN112@operator@2
  001c1	83 c0 02	 add	 eax, 2
  001c4	83 c6 02	 add	 esi, 2
  001c7	84 c9		 test	 cl, cl
  001c9	75 e4		 jne	 SHORT $LL111@operator@2
$LN113@operator@2:
  001cb	33 c0		 xor	 eax, eax
  001cd	eb 05		 jmp	 SHORT $LN114@operator@2
$LN112@operator@2:
  001cf	1b c0		 sbb	 eax, eax
  001d1	83 d8 ff	 sbb	 eax, -1
$LN114@operator@2:
  001d4	33 c9		 xor	 ecx, ecx
  001d6	85 c0		 test	 eax, eax
  001d8	0f 94 c0	 sete	 al

; 148  : }

  001db	8b 4d fc	 mov	 ecx, DWORD PTR __$ArrayPad$[ebp]
  001de	5f		 pop	 edi
  001df	33 cd		 xor	 ecx, ebp
  001e1	5e		 pop	 esi
  001e2	e8 00 00 00 00	 call	 @__security_check_cookie@4
  001e7	c9		 leave
  001e8	c3		 ret	 0
??$?8$0O@@@YA_NABVioHashString@@AAY0O@$$CBD@Z ENDP	; operator==<14>
_TEXT	ENDS
PUBLIC	__$ArrayPad$
PUBLIC	??$?8$0BA@@@YA_NABVioHashString@@AAY0BA@$$CBD@Z	; operator==<16>
; Function compile flags: /Ogsp
;	COMDAT ??$?8$0BA@@@YA_NABVioHashString@@AAY0BA@$$CBD@Z
_TEXT	SEGMENT
__t$ = -24						; size = 16
__$ArrayPad$ = -4					; size = 4
_lhs$ = 8						; size = 4
_t$ = 12						; size = 4
??$?8$0BA@@@YA_NABVioHashString@@AAY0BA@$$CBD@Z PROC	; operator==<16>, COMDAT

; 146  : {

  00000	55		 push	 ebp
  00001	8b ec		 mov	 ebp, esp
  00003	83 ec 18	 sub	 esp, 24			; 00000018H
  00006	a1 00 00 00 00	 mov	 eax, DWORD PTR ___security_cookie
  0000b	33 c5		 xor	 eax, ebp
  0000d	89 45 fc	 mov	 DWORD PTR __$ArrayPad$[ebp], eax
  00010	8b 45 0c	 mov	 eax, DWORD PTR _t$[ebp]

; 147  : 	_ENCSTR(t, _t); return ( strcmp( lhs.c_str(), _t ) == 0 );

  00013	8a 10		 mov	 dl, BYTE PTR [eax]
  00015	56		 push	 esi
  00016	57		 push	 edi
  00017	8b 7d 08	 mov	 edi, DWORD PTR _lhs$[ebp]
  0001a	84 d2		 test	 dl, dl
  0001c	0f 84 8c 01 00
	00		 je	 $LN96@operator@3
  00022	80 f2 ed	 xor	 dl, -19			; ffffffedH
  00025	88 55 e8	 mov	 BYTE PTR __t$[ebp], dl
  00028	8a 50 01	 mov	 dl, BYTE PTR [eax+1]
  0002b	84 d2		 test	 dl, dl
  0002d	0f 84 75 01 00
	00		 je	 $LN95@operator@3
  00033	80 f2 ec	 xor	 dl, -20			; ffffffecH
  00036	88 55 e9	 mov	 BYTE PTR __t$[ebp+1], dl
  00039	8a 50 02	 mov	 dl, BYTE PTR [eax+2]
  0003c	84 d2		 test	 dl, dl
  0003e	0f 84 5e 01 00
	00		 je	 $LN94@operator@3
  00044	b1 eb		 mov	 cl, -21			; ffffffebH
  00046	32 d1		 xor	 dl, cl
  00048	88 55 ea	 mov	 BYTE PTR __t$[ebp+2], dl
  0004b	8a 50 03	 mov	 dl, BYTE PTR [eax+3]
  0004e	84 d2		 test	 dl, dl
  00050	0f 84 46 01 00
	00		 je	 $LN93@operator@3
  00056	80 f2 ea	 xor	 dl, -22			; ffffffeaH
  00059	88 55 eb	 mov	 BYTE PTR __t$[ebp+3], dl
  0005c	8a 50 04	 mov	 dl, BYTE PTR [eax+4]
  0005f	84 d2		 test	 dl, dl
  00061	0f 84 2f 01 00
	00		 je	 $LN92@operator@3
  00067	80 f2 ed	 xor	 dl, -19			; ffffffedH
  0006a	88 55 ec	 mov	 BYTE PTR __t$[ebp+4], dl
  0006d	8a 50 05	 mov	 dl, BYTE PTR [eax+5]
  00070	84 d2		 test	 dl, dl
  00072	0f 84 18 01 00
	00		 je	 $LN91@operator@3
  00078	80 f2 ec	 xor	 dl, -20			; ffffffecH
  0007b	88 55 ed	 mov	 BYTE PTR __t$[ebp+5], dl
  0007e	8a 50 06	 mov	 dl, BYTE PTR [eax+6]
  00081	84 d2		 test	 dl, dl
  00083	0f 84 02 01 00
	00		 je	 $LN90@operator@3
  00089	32 d1		 xor	 dl, cl
  0008b	88 55 ee	 mov	 BYTE PTR __t$[ebp+6], dl
  0008e	8a 50 07	 mov	 dl, BYTE PTR [eax+7]
  00091	84 d2		 test	 dl, dl
  00093	0f 84 ec 00 00
	00		 je	 $LN89@operator@3
  00099	80 f2 ea	 xor	 dl, -22			; ffffffeaH
  0009c	88 55 ef	 mov	 BYTE PTR __t$[ebp+7], dl
  0009f	8a 50 08	 mov	 dl, BYTE PTR [eax+8]
  000a2	84 d2		 test	 dl, dl
  000a4	0f 84 d5 00 00
	00		 je	 $LN88@operator@3
  000aa	80 f2 ed	 xor	 dl, -19			; ffffffedH
  000ad	88 55 f0	 mov	 BYTE PTR __t$[ebp+8], dl
  000b0	8a 50 09	 mov	 dl, BYTE PTR [eax+9]
  000b3	84 d2		 test	 dl, dl
  000b5	0f 84 be 00 00
	00		 je	 $LN87@operator@3
  000bb	80 f2 ec	 xor	 dl, -20			; ffffffecH
  000be	88 55 f1	 mov	 BYTE PTR __t$[ebp+9], dl
  000c1	8a 50 0a	 mov	 dl, BYTE PTR [eax+10]
  000c4	84 d2		 test	 dl, dl
  000c6	0f 84 a8 00 00
	00		 je	 $LN86@operator@3
  000cc	32 d1		 xor	 dl, cl
  000ce	88 55 f2	 mov	 BYTE PTR __t$[ebp+10], dl
  000d1	8a 50 0b	 mov	 dl, BYTE PTR [eax+11]
  000d4	84 d2		 test	 dl, dl
  000d6	0f 84 92 00 00
	00		 je	 $LN85@operator@3
  000dc	80 f2 ea	 xor	 dl, -22			; ffffffeaH
  000df	88 55 f3	 mov	 BYTE PTR __t$[ebp+11], dl
  000e2	8a 50 0c	 mov	 dl, BYTE PTR [eax+12]
  000e5	84 d2		 test	 dl, dl
  000e7	74 7f		 je	 SHORT $LN84@operator@3
  000e9	80 f2 ed	 xor	 dl, -19			; ffffffedH
  000ec	88 55 f4	 mov	 BYTE PTR __t$[ebp+12], dl
  000ef	8a 50 0d	 mov	 dl, BYTE PTR [eax+13]
  000f2	84 d2		 test	 dl, dl
  000f4	74 6c		 je	 SHORT $LN83@operator@3
  000f6	80 f2 ec	 xor	 dl, -20			; ffffffecH
  000f9	88 55 f5	 mov	 BYTE PTR __t$[ebp+13], dl
  000fc	8a 50 0e	 mov	 dl, BYTE PTR [eax+14]
  000ff	84 d2		 test	 dl, dl
  00101	74 5a		 je	 SHORT $LN82@operator@3
  00103	32 d1		 xor	 dl, cl
  00105	80 78 0f 00	 cmp	 BYTE PTR [eax+15], 0
  00109	88 55 f6	 mov	 BYTE PTR __t$[ebp+14], dl
  0010c	0f 84 a0 00 00
	00		 je	 $LN1@operator@3
  00112	8a 50 10	 mov	 dl, BYTE PTR [eax+16]
  00115	84 d2		 test	 dl, dl
  00117	74 3e		 je	 SHORT $LN80@operator@3
  00119	80 f2 ed	 xor	 dl, -19			; ffffffedH
  0011c	88 55 f8	 mov	 BYTE PTR __t$[ebp+16], dl
  0011f	8a 50 11	 mov	 dl, BYTE PTR [eax+17]
  00122	84 d2		 test	 dl, dl
  00124	74 2b		 je	 SHORT $LN79@operator@3
  00126	80 f2 ec	 xor	 dl, -20			; ffffffecH
  00129	88 55 f9	 mov	 BYTE PTR __t$[ebp+17], dl
  0012c	8a 50 12	 mov	 dl, BYTE PTR [eax+18]
  0012f	84 d2		 test	 dl, dl
  00131	74 19		 je	 SHORT $LN78@operator@3
  00133	8a 40 13	 mov	 al, BYTE PTR [eax+19]
  00136	32 d1		 xor	 dl, cl
  00138	88 55 fa	 mov	 BYTE PTR __t$[ebp+18], dl
  0013b	84 c0		 test	 al, al
  0013d	74 07		 je	 SHORT $LN77@operator@3
  0013f	34 ea		 xor	 al, -22			; ffffffeaH
  00141	88 45 fb	 mov	 BYTE PTR __t$[ebp+19], al
  00144	eb 6c		 jmp	 SHORT $LN1@operator@3
$LN77@operator@3:
  00146	c6 45 fb ea	 mov	 BYTE PTR __t$[ebp+19], -22 ; ffffffeaH
  0014a	eb 66		 jmp	 SHORT $LN1@operator@3
$LN78@operator@3:
  0014c	88 4d fa	 mov	 BYTE PTR __t$[ebp+18], cl
  0014f	eb 61		 jmp	 SHORT $LN1@operator@3
$LN79@operator@3:
  00151	c6 45 f9 ec	 mov	 BYTE PTR __t$[ebp+17], -20 ; ffffffecH
  00155	eb 5b		 jmp	 SHORT $LN1@operator@3
$LN80@operator@3:
  00157	c6 45 f8 ed	 mov	 BYTE PTR __t$[ebp+16], -19 ; ffffffedH
  0015b	eb 55		 jmp	 SHORT $LN1@operator@3
$LN82@operator@3:
  0015d	88 4d f6	 mov	 BYTE PTR __t$[ebp+14], cl
  00160	eb 50		 jmp	 SHORT $LN1@operator@3
$LN83@operator@3:
  00162	c6 45 f5 ec	 mov	 BYTE PTR __t$[ebp+13], -20 ; ffffffecH
  00166	eb 4a		 jmp	 SHORT $LN1@operator@3
$LN84@operator@3:
  00168	c6 45 f4 ed	 mov	 BYTE PTR __t$[ebp+12], -19 ; ffffffedH
  0016c	eb 44		 jmp	 SHORT $LN1@operator@3
$LN85@operator@3:
  0016e	c6 45 f3 ea	 mov	 BYTE PTR __t$[ebp+11], -22 ; ffffffeaH
  00172	eb 3e		 jmp	 SHORT $LN1@operator@3
$LN86@operator@3:
  00174	88 4d f2	 mov	 BYTE PTR __t$[ebp+10], cl
  00177	eb 39		 jmp	 SHORT $LN1@operator@3
$LN87@operator@3:
  00179	c6 45 f1 ec	 mov	 BYTE PTR __t$[ebp+9], -20 ; ffffffecH
  0017d	eb 33		 jmp	 SHORT $LN1@operator@3
$LN88@operator@3:
  0017f	c6 45 f0 ed	 mov	 BYTE PTR __t$[ebp+8], -19 ; ffffffedH
  00183	eb 2d		 jmp	 SHORT $LN1@operator@3
$LN89@operator@3:
  00185	c6 45 ef ea	 mov	 BYTE PTR __t$[ebp+7], -22 ; ffffffeaH
  00189	eb 27		 jmp	 SHORT $LN1@operator@3
$LN90@operator@3:
  0018b	88 4d ee	 mov	 BYTE PTR __t$[ebp+6], cl
  0018e	eb 22		 jmp	 SHORT $LN1@operator@3
$LN91@operator@3:
  00190	c6 45 ed ec	 mov	 BYTE PTR __t$[ebp+5], -20 ; ffffffecH
  00194	eb 1c		 jmp	 SHORT $LN1@operator@3
$LN92@operator@3:
  00196	c6 45 ec ed	 mov	 BYTE PTR __t$[ebp+4], -19 ; ffffffedH
  0019a	eb 16		 jmp	 SHORT $LN1@operator@3
$LN93@operator@3:
  0019c	c6 45 eb ea	 mov	 BYTE PTR __t$[ebp+3], -22 ; ffffffeaH
  001a0	eb 10		 jmp	 SHORT $LN1@operator@3
$LN94@operator@3:
  001a2	c6 45 ea eb	 mov	 BYTE PTR __t$[ebp+2], -21 ; ffffffebH
  001a6	eb 0a		 jmp	 SHORT $LN1@operator@3
$LN95@operator@3:
  001a8	c6 45 e9 ec	 mov	 BYTE PTR __t$[ebp+1], -20 ; ffffffecH
  001ac	eb 04		 jmp	 SHORT $LN1@operator@3
$LN96@operator@3:
  001ae	c6 45 e8 ed	 mov	 BYTE PTR __t$[ebp], -19	; ffffffedH
$LN1@operator@3:
  001b2	6a 03		 push	 3
  001b4	8d 45 e8	 lea	 eax, DWORD PTR __t$[ebp]
  001b7	c6 45 f7 00	 mov	 BYTE PTR __t$[ebp+15], 0
  001bb	5a		 pop	 edx
$LL104@operator@3:
  001bc	81 30 ed ec eb
	ea		 xor	 DWORD PTR [eax], -353637139 ; eaebecedH
  001c2	83 c0 04	 add	 eax, 4
  001c5	4a		 dec	 edx
  001c6	75 f4		 jne	 SHORT $LL104@operator@3
  001c8	6a 0c		 push	 12			; 0000000cH
  001ca	58		 pop	 eax
$LL101@operator@3:
  001cb	8b c8		 mov	 ecx, eax
  001cd	81 e1 03 00 00
	80		 and	 ecx, -2147483645	; 80000003H
  001d3	79 05		 jns	 SHORT $LN115@operator@3
  001d5	49		 dec	 ecx
  001d6	83 c9 fc	 or	 ecx, -4			; fffffffcH
  001d9	41		 inc	 ecx
$LN115@operator@3:
  001da	b2 ed		 mov	 dl, -19			; ffffffedH
  001dc	2a d1		 sub	 dl, cl
  001de	30 54 05 e8	 xor	 BYTE PTR __t$[ebp+eax], dl
  001e2	40		 inc	 eax
  001e3	83 f8 0f	 cmp	 eax, 15			; 0000000fH
  001e6	7c e3		 jl	 SHORT $LL101@operator@3
  001e8	8b cf		 mov	 ecx, edi
  001ea	8d 75 e8	 lea	 esi, DWORD PTR __t$[ebp]
  001ed	ff 15 00 00 00
	00		 call	 DWORD PTR __imp_?c_str@ioHashString@@QBEPBDXZ
$LL111@operator@3:
  001f3	8a 08		 mov	 cl, BYTE PTR [eax]
  001f5	3a 0e		 cmp	 cl, BYTE PTR [esi]
  001f7	75 1a		 jne	 SHORT $LN112@operator@3
  001f9	84 c9		 test	 cl, cl
  001fb	74 12		 je	 SHORT $LN113@operator@3
  001fd	8a 48 01	 mov	 cl, BYTE PTR [eax+1]
  00200	3a 4e 01	 cmp	 cl, BYTE PTR [esi+1]
  00203	75 0e		 jne	 SHORT $LN112@operator@3
  00205	83 c0 02	 add	 eax, 2
  00208	83 c6 02	 add	 esi, 2
  0020b	84 c9		 test	 cl, cl
  0020d	75 e4		 jne	 SHORT $LL111@operator@3
$LN113@operator@3:
  0020f	33 c0		 xor	 eax, eax
  00211	eb 05		 jmp	 SHORT $LN114@operator@3
$LN112@operator@3:
  00213	1b c0		 sbb	 eax, eax
  00215	83 d8 ff	 sbb	 eax, -1
$LN114@operator@3:
  00218	33 c9		 xor	 ecx, ecx
  0021a	85 c0		 test	 eax, eax
  0021c	0f 94 c0	 sete	 al

; 148  : }

  0021f	8b 4d fc	 mov	 ecx, DWORD PTR __$ArrayPad$[ebp]
  00222	5f		 pop	 edi
  00223	33 cd		 xor	 ecx, ebp
  00225	5e		 pop	 esi
  00226	e8 00 00 00 00	 call	 @__security_check_cookie@4
  0022b	c9		 leave
  0022c	c3		 ret	 0
??$?8$0BA@@@YA_NABVioHashString@@AAY0BA@$$CBD@Z ENDP	; operator==<16>
_TEXT	ENDS
PUBLIC	__$ArrayPad$
PUBLIC	??$GetStringAttribute_e@$0P@@ioXMLElement@@QBEPBDAAY0P@$$CBD@Z ; ioXMLElement::GetStringAttribute_e<15>
; Function compile flags: /Ogsp
; File d:\lost saga for developer\youtube\tutorial\source\src\io3dengine\ioxmlelement.h
;	COMDAT ??$GetStringAttribute_e@$0P@@ioXMLElement@@QBEPBDAAY0P@$$CBD@Z
_TEXT	SEGMENT
__k$ = -24						; size = 15
__$ArrayPad$ = -4					; size = 4
_k$ = 8							; size = 4
??$GetStringAttribute_e@$0P@@ioXMLElement@@QBEPBDAAY0P@$$CBD@Z PROC ; ioXMLElement::GetStringAttribute_e<15>, COMDAT
; _this$ = ecx

; 107  : 	{

  00000	55		 push	 ebp
  00001	8b ec		 mov	 ebp, esp
  00003	83 ec 18	 sub	 esp, 24			; 00000018H
  00006	a1 00 00 00 00	 mov	 eax, DWORD PTR ___security_cookie
  0000b	33 c5		 xor	 eax, ebp
  0000d	89 45 fc	 mov	 DWORD PTR __$ArrayPad$[ebp], eax
  00010	8b 45 08	 mov	 eax, DWORD PTR _k$[ebp]

; 108  : 		_ENCSTR(k, _k);

  00013	8a 10		 mov	 dl, BYTE PTR [eax]
  00015	56		 push	 esi
  00016	8b f1		 mov	 esi, ecx
  00018	84 d2		 test	 dl, dl
  0001a	0f 84 75 01 00
	00		 je	 $LN96@GetStringA
  00020	80 f2 ed	 xor	 dl, -19			; ffffffedH
  00023	88 55 e8	 mov	 BYTE PTR __k$[ebp], dl
  00026	8a 50 01	 mov	 dl, BYTE PTR [eax+1]
  00029	84 d2		 test	 dl, dl
  0002b	0f 84 5e 01 00
	00		 je	 $LN95@GetStringA
  00031	b1 ec		 mov	 cl, -20			; ffffffecH
  00033	32 d1		 xor	 dl, cl
  00035	88 55 e9	 mov	 BYTE PTR __k$[ebp+1], dl
  00038	8a 50 02	 mov	 dl, BYTE PTR [eax+2]
  0003b	84 d2		 test	 dl, dl
  0003d	0f 84 46 01 00
	00		 je	 $LN94@GetStringA
  00043	80 f2 eb	 xor	 dl, -21			; ffffffebH
  00046	88 55 ea	 mov	 BYTE PTR __k$[ebp+2], dl
  00049	8a 50 03	 mov	 dl, BYTE PTR [eax+3]
  0004c	84 d2		 test	 dl, dl
  0004e	0f 84 2f 01 00
	00		 je	 $LN93@GetStringA
  00054	80 f2 ea	 xor	 dl, -22			; ffffffeaH
  00057	88 55 eb	 mov	 BYTE PTR __k$[ebp+3], dl
  0005a	8a 50 04	 mov	 dl, BYTE PTR [eax+4]
  0005d	84 d2		 test	 dl, dl
  0005f	0f 84 18 01 00
	00		 je	 $LN92@GetStringA
  00065	80 f2 ed	 xor	 dl, -19			; ffffffedH
  00068	88 55 ec	 mov	 BYTE PTR __k$[ebp+4], dl
  0006b	8a 50 05	 mov	 dl, BYTE PTR [eax+5]
  0006e	84 d2		 test	 dl, dl
  00070	0f 84 02 01 00
	00		 je	 $LN91@GetStringA
  00076	32 d1		 xor	 dl, cl
  00078	88 55 ed	 mov	 BYTE PTR __k$[ebp+5], dl
  0007b	8a 50 06	 mov	 dl, BYTE PTR [eax+6]
  0007e	84 d2		 test	 dl, dl
  00080	0f 84 ec 00 00
	00		 je	 $LN90@GetStringA
  00086	80 f2 eb	 xor	 dl, -21			; ffffffebH
  00089	88 55 ee	 mov	 BYTE PTR __k$[ebp+6], dl
  0008c	8a 50 07	 mov	 dl, BYTE PTR [eax+7]
  0008f	84 d2		 test	 dl, dl
  00091	0f 84 d5 00 00
	00		 je	 $LN89@GetStringA
  00097	80 f2 ea	 xor	 dl, -22			; ffffffeaH
  0009a	88 55 ef	 mov	 BYTE PTR __k$[ebp+7], dl
  0009d	8a 50 08	 mov	 dl, BYTE PTR [eax+8]
  000a0	84 d2		 test	 dl, dl
  000a2	0f 84 be 00 00
	00		 je	 $LN88@GetStringA
  000a8	80 f2 ed	 xor	 dl, -19			; ffffffedH
  000ab	88 55 f0	 mov	 BYTE PTR __k$[ebp+8], dl
  000ae	8a 50 09	 mov	 dl, BYTE PTR [eax+9]
  000b1	84 d2		 test	 dl, dl
  000b3	0f 84 a8 00 00
	00		 je	 $LN87@GetStringA
  000b9	32 d1		 xor	 dl, cl
  000bb	88 55 f1	 mov	 BYTE PTR __k$[ebp+9], dl
  000be	8a 50 0a	 mov	 dl, BYTE PTR [eax+10]
  000c1	84 d2		 test	 dl, dl
  000c3	0f 84 92 00 00
	00		 je	 $LN86@GetStringA
  000c9	80 f2 eb	 xor	 dl, -21			; ffffffebH
  000cc	88 55 f2	 mov	 BYTE PTR __k$[ebp+10], dl
  000cf	8a 50 0b	 mov	 dl, BYTE PTR [eax+11]
  000d2	84 d2		 test	 dl, dl
  000d4	74 7f		 je	 SHORT $LN85@GetStringA
  000d6	80 f2 ea	 xor	 dl, -22			; ffffffeaH
  000d9	88 55 f3	 mov	 BYTE PTR __k$[ebp+11], dl
  000dc	8a 50 0c	 mov	 dl, BYTE PTR [eax+12]
  000df	84 d2		 test	 dl, dl
  000e1	74 6c		 je	 SHORT $LN84@GetStringA
  000e3	80 f2 ed	 xor	 dl, -19			; ffffffedH
  000e6	88 55 f4	 mov	 BYTE PTR __k$[ebp+12], dl
  000e9	8a 50 0d	 mov	 dl, BYTE PTR [eax+13]
  000ec	84 d2		 test	 dl, dl
  000ee	74 5a		 je	 SHORT $LN83@GetStringA
  000f0	32 d1		 xor	 dl, cl
  000f2	80 78 0e 00	 cmp	 BYTE PTR [eax+14], 0
  000f6	88 55 f5	 mov	 BYTE PTR __k$[ebp+13], dl
  000f9	0f 84 9a 00 00
	00		 je	 $LN1@GetStringA
  000ff	8a 50 0f	 mov	 dl, BYTE PTR [eax+15]
  00102	84 d2		 test	 dl, dl
  00104	74 3e		 je	 SHORT $LN81@GetStringA
  00106	80 f2 ea	 xor	 dl, -22			; ffffffeaH
  00109	88 55 f7	 mov	 BYTE PTR __k$[ebp+15], dl
  0010c	8a 50 10	 mov	 dl, BYTE PTR [eax+16]
  0010f	84 d2		 test	 dl, dl
  00111	74 2b		 je	 SHORT $LN80@GetStringA
  00113	80 f2 ed	 xor	 dl, -19			; ffffffedH
  00116	88 55 f8	 mov	 BYTE PTR __k$[ebp+16], dl
  00119	8a 50 11	 mov	 dl, BYTE PTR [eax+17]
  0011c	84 d2		 test	 dl, dl
  0011e	74 19		 je	 SHORT $LN79@GetStringA
  00120	8a 40 12	 mov	 al, BYTE PTR [eax+18]
  00123	32 d1		 xor	 dl, cl
  00125	88 55 f9	 mov	 BYTE PTR __k$[ebp+17], dl
  00128	84 c0		 test	 al, al
  0012a	74 07		 je	 SHORT $LN78@GetStringA
  0012c	34 eb		 xor	 al, -21			; ffffffebH
  0012e	88 45 fa	 mov	 BYTE PTR __k$[ebp+18], al
  00131	eb 66		 jmp	 SHORT $LN1@GetStringA
$LN78@GetStringA:
  00133	c6 45 fa eb	 mov	 BYTE PTR __k$[ebp+18], -21 ; ffffffebH
  00137	eb 60		 jmp	 SHORT $LN1@GetStringA
$LN79@GetStringA:
  00139	88 4d f9	 mov	 BYTE PTR __k$[ebp+17], cl
  0013c	eb 5b		 jmp	 SHORT $LN1@GetStringA
$LN80@GetStringA:
  0013e	c6 45 f8 ed	 mov	 BYTE PTR __k$[ebp+16], -19 ; ffffffedH
  00142	eb 55		 jmp	 SHORT $LN1@GetStringA
$LN81@GetStringA:
  00144	c6 45 f7 ea	 mov	 BYTE PTR __k$[ebp+15], -22 ; ffffffeaH
  00148	eb 4f		 jmp	 SHORT $LN1@GetStringA
$LN83@GetStringA:
  0014a	88 4d f5	 mov	 BYTE PTR __k$[ebp+13], cl
  0014d	eb 4a		 jmp	 SHORT $LN1@GetStringA
$LN84@GetStringA:
  0014f	c6 45 f4 ed	 mov	 BYTE PTR __k$[ebp+12], -19 ; ffffffedH
  00153	eb 44		 jmp	 SHORT $LN1@GetStringA
$LN85@GetStringA:
  00155	c6 45 f3 ea	 mov	 BYTE PTR __k$[ebp+11], -22 ; ffffffeaH
  00159	eb 3e		 jmp	 SHORT $LN1@GetStringA
$LN86@GetStringA:
  0015b	c6 45 f2 eb	 mov	 BYTE PTR __k$[ebp+10], -21 ; ffffffebH
  0015f	eb 38		 jmp	 SHORT $LN1@GetStringA
$LN87@GetStringA:
  00161	88 4d f1	 mov	 BYTE PTR __k$[ebp+9], cl
  00164	eb 33		 jmp	 SHORT $LN1@GetStringA
$LN88@GetStringA:
  00166	c6 45 f0 ed	 mov	 BYTE PTR __k$[ebp+8], -19 ; ffffffedH
  0016a	eb 2d		 jmp	 SHORT $LN1@GetStringA
$LN89@GetStringA:
  0016c	c6 45 ef ea	 mov	 BYTE PTR __k$[ebp+7], -22 ; ffffffeaH
  00170	eb 27		 jmp	 SHORT $LN1@GetStringA
$LN90@GetStringA:
  00172	c6 45 ee eb	 mov	 BYTE PTR __k$[ebp+6], -21 ; ffffffebH
  00176	eb 21		 jmp	 SHORT $LN1@GetStringA
$LN91@GetStringA:
  00178	88 4d ed	 mov	 BYTE PTR __k$[ebp+5], cl
  0017b	eb 1c		 jmp	 SHORT $LN1@GetStringA
$LN92@GetStringA:
  0017d	c6 45 ec ed	 mov	 BYTE PTR __k$[ebp+4], -19 ; ffffffedH
  00181	eb 16		 jmp	 SHORT $LN1@GetStringA
$LN93@GetStringA:
  00183	c6 45 eb ea	 mov	 BYTE PTR __k$[ebp+3], -22 ; ffffffeaH
  00187	eb 10		 jmp	 SHORT $LN1@GetStringA
$LN94@GetStringA:
  00189	c6 45 ea eb	 mov	 BYTE PTR __k$[ebp+2], -21 ; ffffffebH
  0018d	eb 0a		 jmp	 SHORT $LN1@GetStringA
$LN95@GetStringA:
  0018f	c6 45 e9 ec	 mov	 BYTE PTR __k$[ebp+1], -20 ; ffffffecH
  00193	eb 04		 jmp	 SHORT $LN1@GetStringA
$LN96@GetStringA:
  00195	c6 45 e8 ed	 mov	 BYTE PTR __k$[ebp], -19	; ffffffedH
$LN1@GetStringA:
  00199	6a 03		 push	 3
  0019b	8d 45 e8	 lea	 eax, DWORD PTR __k$[ebp]
  0019e	c6 45 f6 00	 mov	 BYTE PTR __k$[ebp+14], 0
  001a2	5a		 pop	 edx
$LL104@GetStringA:
  001a3	81 30 ed ec eb
	ea		 xor	 DWORD PTR [eax], -353637139 ; eaebecedH
  001a9	83 c0 04	 add	 eax, 4
  001ac	4a		 dec	 edx
  001ad	75 f4		 jne	 SHORT $LL104@GetStringA
  001af	6a 0c		 push	 12			; 0000000cH
  001b1	58		 pop	 eax
$LL101@GetStringA:
  001b2	8b c8		 mov	 ecx, eax
  001b4	81 e1 03 00 00
	80		 and	 ecx, -2147483645	; 80000003H
  001ba	79 05		 jns	 SHORT $LN111@GetStringA
  001bc	49		 dec	 ecx
  001bd	83 c9 fc	 or	 ecx, -4			; fffffffcH
  001c0	41		 inc	 ecx
$LN111@GetStringA:
  001c1	b2 ed		 mov	 dl, -19			; ffffffedH
  001c3	2a d1		 sub	 dl, cl
  001c5	30 54 05 e8	 xor	 BYTE PTR __k$[ebp+eax], dl
  001c9	40		 inc	 eax
  001ca	83 f8 0e	 cmp	 eax, 14			; 0000000eH
  001cd	7c e3		 jl	 SHORT $LL101@GetStringA

; 109  : 		return GetStringAttribute(_k);

  001cf	8d 45 e8	 lea	 eax, DWORD PTR __k$[ebp]
  001d2	50		 push	 eax
  001d3	8b ce		 mov	 ecx, esi
  001d5	ff 15 00 00 00
	00		 call	 DWORD PTR __imp_?GetStringAttribute@ioXMLElement@@QBEPBDPBD@Z

; 110  : 	}

  001db	8b 4d fc	 mov	 ecx, DWORD PTR __$ArrayPad$[ebp]
  001de	33 cd		 xor	 ecx, ebp
  001e0	5e		 pop	 esi
  001e1	e8 00 00 00 00	 call	 @__security_check_cookie@4
  001e6	c9		 leave
  001e7	c2 04 00	 ret	 4
??$GetStringAttribute_e@$0P@@ioXMLElement@@QBEPBDAAY0P@$$CBD@Z ENDP ; ioXMLElement::GetStringAttribute_e<15>
_TEXT	ENDS
PUBLIC	??$_Copy_impl@PAVGashaponPresent@@PAV1@@std@@YAPAVGashaponPresent@@PAV1@00@Z ; std::_Copy_impl<GashaponPresent *,GashaponPresent *>
; Function compile flags: /Ogsp
; File c:\program files (x86)\microsoft visual studio 10.0\vc\include\xutility
;	COMDAT ??$_Copy_impl@PAVGashaponPresent@@PAV1@@std@@YAPAVGashaponPresent@@PAV1@00@Z
_TEXT	SEGMENT
__Cat$512666 = -4					; size = 1
__First$ = 8						; size = 4
__Last$ = 12						; size = 4
__Dest$ = 16						; size = 4
??$_Copy_impl@PAVGashaponPresent@@PAV1@@std@@YAPAVGashaponPresent@@PAV1@00@Z PROC ; std::_Copy_impl<GashaponPresent *,GashaponPresent *>, COMDAT

; 2163 : 	{	// copy [_First, _Last) to [_Dest, ...)

  00000	55		 push	 ebp
  00001	8b ec		 mov	 ebp, esp
  00003	51		 push	 ecx

; 2164 : 	return (_Copy_impl(_First, _Last,
; 2165 : 		_Dest, _Ptr_cat(_First, _Dest)));

  00004	ff 75 fc	 push	 DWORD PTR __Cat$512666[ebp]
  00007	ff 75 10	 push	 DWORD PTR __Dest$[ebp]
  0000a	ff 75 0c	 push	 DWORD PTR __Last$[ebp]
  0000d	ff 75 08	 push	 DWORD PTR __First$[ebp]
  00010	e8 00 00 00 00	 call	 ??$_Copy_impl@PAVGashaponPresent@@PAV1@@std@@YAPAVGashaponPresent@@PAV1@00U_Nonscalar_ptr_iterator_tag@0@@Z ; std::_Copy_impl<GashaponPresent *,GashaponPresent *>
  00015	83 c4 10	 add	 esp, 16			; 00000010H

; 2166 : 	}

  00018	c9		 leave
  00019	c3		 ret	 0
??$_Copy_impl@PAVGashaponPresent@@PAV1@@std@@YAPAVGashaponPresent@@PAV1@00@Z ENDP ; std::_Copy_impl<GashaponPresent *,GashaponPresent *>
_TEXT	ENDS
PUBLIC	??$_Move@PAVGashaponPresent@@PAV1@@std@@YAPAVGashaponPresent@@PAV1@00U_Nonscalar_ptr_iterator_tag@0@@Z ; std::_Move<GashaponPresent *,GashaponPresent *>
; Function compile flags: /Ogsp
;	COMDAT ??$_Move@PAVGashaponPresent@@PAV1@@std@@YAPAVGashaponPresent@@PAV1@00U_Nonscalar_ptr_iterator_tag@0@@Z
_TEXT	SEGMENT
__First$ = 8						; size = 4
__Last$ = 12						; size = 4
__Dest$ = 16						; size = 4
___formal$ = 20						; size = 1
??$_Move@PAVGashaponPresent@@PAV1@@std@@YAPAVGashaponPresent@@PAV1@00U_Nonscalar_ptr_iterator_tag@0@@Z PROC ; std::_Move<GashaponPresent *,GashaponPresent *>, COMDAT

; 2512 : 	{	// move [_First, _Last) to [_Dest, ...), arbitrary iterators

  00000	55		 push	 ebp
  00001	8b ec		 mov	 ebp, esp

; 2513 : 	for (; _First != _Last; ++_Dest, ++_First)

  00003	8b 45 08	 mov	 eax, DWORD PTR __First$[ebp]
  00006	3b 45 0c	 cmp	 eax, DWORD PTR __Last$[ebp]
  00009	74 1a		 je	 SHORT $LN10@Move
  0000b	56		 push	 esi
  0000c	57		 push	 edi
$LL3@Move:

; 2514 : 		*_Dest = _STD move(*_First);

  0000d	8b 7d 10	 mov	 edi, DWORD PTR __Dest$[ebp]
  00010	83 45 10 14	 add	 DWORD PTR __Dest$[ebp], 20 ; 00000014H
  00014	8b f0		 mov	 esi, eax
  00016	6a 05		 push	 5
  00018	83 c0 14	 add	 eax, 20			; 00000014H
  0001b	59		 pop	 ecx
  0001c	f3 a5		 rep movsd
  0001e	3b 45 0c	 cmp	 eax, DWORD PTR __Last$[ebp]
  00021	75 ea		 jne	 SHORT $LL3@Move
  00023	5f		 pop	 edi
  00024	5e		 pop	 esi
$LN10@Move:

; 2515 : 	return (_Dest);

  00025	8b 45 10	 mov	 eax, DWORD PTR __Dest$[ebp]

; 2516 : 	}

  00028	5d		 pop	 ebp
  00029	c3		 ret	 0
??$_Move@PAVGashaponPresent@@PAV1@@std@@YAPAVGashaponPresent@@PAV1@00U_Nonscalar_ptr_iterator_tag@0@@Z ENDP ; std::_Move<GashaponPresent *,GashaponPresent *>
_TEXT	ENDS
PUBLIC	??$_Cons_val@V?$allocator@VGashaponPresent@@@std@@VGashaponPresent@@AAV3@@std@@YAXAAV?$allocator@VGashaponPresent@@@0@PAVGashaponPresent@@AAV2@@Z ; std::_Cons_val<std::allocator<GashaponPresent>,GashaponPresent,GashaponPresent &>
; Function compile flags: /Ogsp
; File c:\program files (x86)\microsoft visual studio 10.0\vc\include\xmemory
;	COMDAT ??$_Cons_val@V?$allocator@VGashaponPresent@@@std@@VGashaponPresent@@AAV3@@std@@YAXAAV?$allocator@VGashaponPresent@@@0@PAVGashaponPresent@@AAV2@@Z
_TEXT	SEGMENT
__Alval$ = 8						; size = 4
__Pdest$ = 12						; size = 4
__Src$ = 16						; size = 4
??$_Cons_val@V?$allocator@VGashaponPresent@@@std@@VGashaponPresent@@AAV3@@std@@YAXAAV?$allocator@VGashaponPresent@@@0@PAVGashaponPresent@@AAV2@@Z PROC ; std::_Cons_val<std::allocator<GashaponPresent>,GashaponPresent,GashaponPresent &>, COMDAT

; 279  : 	{	// construct using allocator

  00000	55		 push	 ebp
  00001	8b ec		 mov	 ebp, esp
  00003	57		 push	 edi

; 280  : 	_Alval.construct(_Pdest, _STD forward<_Ty2>(_Src));

  00004	8b 7d 0c	 mov	 edi, DWORD PTR __Pdest$[ebp]
  00007	85 ff		 test	 edi, edi
  00009	74 0a		 je	 SHORT $LN7@Cons_val
  0000b	56		 push	 esi
  0000c	8b 75 10	 mov	 esi, DWORD PTR __Src$[ebp]
  0000f	6a 05		 push	 5
  00011	59		 pop	 ecx
  00012	f3 a5		 rep movsd
  00014	5e		 pop	 esi
$LN7@Cons_val:
  00015	5f		 pop	 edi

; 281  : 	}

  00016	5d		 pop	 ebp
  00017	c3		 ret	 0
??$_Cons_val@V?$allocator@VGashaponPresent@@@std@@VGashaponPresent@@AAV3@@std@@YAXAAV?$allocator@VGashaponPresent@@@0@PAVGashaponPresent@@AAV2@@Z ENDP ; std::_Cons_val<std::allocator<GashaponPresent>,GashaponPresent,GashaponPresent &>
_TEXT	ENDS
PUBLIC	?IsEmpty@ioComplexStringPrinter@@QBE_NXZ	; ioComplexStringPrinter::IsEmpty
; Function compile flags: /Ogsp
; File d:\lost saga for developer\youtube\tutorial\source\src\lsclient\iocomplexstringprinter.h
;	COMDAT ?IsEmpty@ioComplexStringPrinter@@QBE_NXZ
_TEXT	SEGMENT
?IsEmpty@ioComplexStringPrinter@@QBE_NXZ PROC		; ioComplexStringPrinter::IsEmpty, COMDAT
; _this$ = ecx

; 124  : 	inline bool IsEmpty() const { return m_vPieceList.empty(); }

  00000	8b 41 0c	 mov	 eax, DWORD PTR [ecx+12]
  00003	2b 41 10	 sub	 eax, DWORD PTR [ecx+16]
  00006	f7 d8		 neg	 eax
  00008	1b c0		 sbb	 eax, eax
  0000a	40		 inc	 eax
  0000b	c3		 ret	 0
?IsEmpty@ioComplexStringPrinter@@QBE_NXZ ENDP		; ioComplexStringPrinter::IsEmpty
_TEXT	ENDS
PUBLIC	??0?$_Vector_val@VGashaponPresent@@V?$allocator@VGashaponPresent@@@std@@@std@@QAE@V?$allocator@VGashaponPresent@@@1@@Z ; std::_Vector_val<GashaponPresent,std::allocator<GashaponPresent> >::_Vector_val<GashaponPresent,std::allocator<GashaponPresent> >
; Function compile flags: /Ogsp
; File c:\program files (x86)\microsoft visual studio 10.0\vc\include\vector
;	COMDAT ??0?$_Vector_val@VGashaponPresent@@V?$allocator@VGashaponPresent@@@std@@@std@@QAE@V?$allocator@VGashaponPresent@@@1@@Z
_TEXT	SEGMENT
__Al$ = 8						; size = 1
??0?$_Vector_val@VGashaponPresent@@V?$allocator@VGashaponPresent@@@std@@@std@@QAE@V?$allocator@VGashaponPresent@@@1@@Z PROC ; std::_Vector_val<GashaponPresent,std::allocator<GashaponPresent> >::_Vector_val<GashaponPresent,std::allocator<GashaponPresent> >, COMDAT
; _this$ = ecx

; 426  : 		{	// construct allocator from _Al

  00000	8b c1		 mov	 eax, ecx

; 427  : 		_Myfirst = 0;

  00002	33 c9		 xor	 ecx, ecx
  00004	89 08		 mov	 DWORD PTR [eax], ecx

; 428  : 		_Mylast = 0;

  00006	89 48 04	 mov	 DWORD PTR [eax+4], ecx

; 429  : 		_Myend = 0;

  00009	89 48 08	 mov	 DWORD PTR [eax+8], ecx

; 430  : 		}

  0000c	c2 04 00	 ret	 4
??0?$_Vector_val@VGashaponPresent@@V?$allocator@VGashaponPresent@@@std@@@std@@QAE@V?$allocator@VGashaponPresent@@@1@@Z ENDP ; std::_Vector_val<GashaponPresent,std::allocator<GashaponPresent> >::_Vector_val<GashaponPresent,std::allocator<GashaponPresent> >
_TEXT	ENDS
PUBLIC	??$_Destroy@VGashaponPresent@@@std@@YAXPAVGashaponPresent@@@Z ; std::_Destroy<GashaponPresent>
; Function compile flags: /Ogsp
; File c:\program files (x86)\microsoft visual studio 10.0\vc\include\xmemory
;	COMDAT ??$_Destroy@VGashaponPresent@@@std@@YAXPAVGashaponPresent@@@Z
_TEXT	SEGMENT
__Ptr$ = 8						; size = 4
??$_Destroy@VGashaponPresent@@@std@@YAXPAVGashaponPresent@@@Z PROC ; std::_Destroy<GashaponPresent>, COMDAT

; 62   : 	{	// destroy object at _Ptr

  00000	55		 push	 ebp
  00001	8b ec		 mov	 ebp, esp

; 63   : 	_Ptr->~_Ty();

  00003	8b 4d 08	 mov	 ecx, DWORD PTR __Ptr$[ebp]

; 64   : 	}

  00006	5d		 pop	 ebp

; 63   : 	_Ptr->~_Ty();

  00007	e9 00 00 00 00	 jmp	 ??1GashaponPresent@@QAE@XZ ; GashaponPresent::~GashaponPresent
??$_Destroy@VGashaponPresent@@@std@@YAXPAVGashaponPresent@@@Z ENDP ; std::_Destroy<GashaponPresent>
_TEXT	ENDS
PUBLIC	__real@42d00000
EXTRN	?PrintFullTextWidthCut@ioComplexStringPrinter@@QAEXMMW4TextAlignType@@ME@Z:PROC ; ioComplexStringPrinter::PrintFullTextWidthCut
;	COMDAT __real@42d00000
; File c:\program files (x86)\microsoft visual studio 10.0\vc\include\vector
CONST	SEGMENT
__real@42d00000 DD 042d00000r			; 104
; Function compile flags: /Ogsp
; File d:\lost saga for developer\youtube\tutorial\source\src\lsclient\gui\guildrewardwnd.cpp
CONST	ENDS
;	COMDAT ?OnRender@RewardItemListIconBtn@@MAEXXZ
_TEXT	SEGMENT
?OnRender@RewardItemListIconBtn@@MAEXXZ PROC		; RewardItemListIconBtn::OnRender, COMDAT
; _this$ = ecx

; 57   : {

  00000	56		 push	 esi
  00001	57		 push	 edi
  00002	8b f1		 mov	 esi, ecx

; 58   : 	NewShopIconBtn::OnRender();

  00004	ff 15 00 00 00
	00		 call	 DWORD PTR __imp_?OnRender@ioButton@@MAEXXZ

; 59   : 
; 60   : 	int iXPos = GetDerivedPosX();

  0000a	8b ce		 mov	 ecx, esi
  0000c	ff 15 00 00 00
	00		 call	 DWORD PTR __imp_?GetDerivedPosX@ioWnd@@QBEHXZ

; 61   : 	int iYPos = GetDerivedPosY();

  00012	8b ce		 mov	 ecx, esi
  00014	8b f8		 mov	 edi, eax
  00016	ff 15 00 00 00
	00		 call	 DWORD PTR __imp_?GetDerivedPosY@ioWnd@@QBEHXZ

; 62   : 
; 63   : 	enum 
; 64   : 	{ 
; 65   : 		X_TEXT_OFFSET = 32, 
; 66   : 		Y_TEXT_OFFSET = 79 
; 67   : 	};
; 68   : 	if ( !m_ItemNamePrinter.IsEmpty() )

  0001c	8d 8e 78 02 00
	00		 lea	 ecx, DWORD PTR [esi+632]
  00022	8b 11		 mov	 edx, DWORD PTR [ecx]
  00024	3b 51 04	 cmp	 edx, DWORD PTR [ecx+4]
  00027	74 41		 je	 SHORT $LN1@OnRender@2

; 69   : 		m_ItemNamePrinter.PrintFullTextWidthCut( iXPos+X_TEXT_OFFSET, iYPos+Y_TEXT_OFFSET, TAT_CENTER, 104.0f );

  00029	f3 0f 10 05 00
	00 00 00	 movss	 xmm0, DWORD PTR __real@42d00000
  00031	68 ff 00 00 00	 push	 255			; 000000ffH
  00036	51		 push	 ecx
  00037	f3 0f 11 04 24	 movss	 DWORD PTR [esp], xmm0
  0003c	6a 01		 push	 1
  0003e	51		 push	 ecx
  0003f	0f 57 c0	 xorps	 xmm0, xmm0
  00042	51		 push	 ecx
  00043	83 c0 4f	 add	 eax, 79			; 0000004fH
  00046	f3 0f 2a c0	 cvtsi2ss xmm0, eax
  0004a	f3 0f 11 44 24
	04		 movss	 DWORD PTR [esp+4], xmm0
  00050	83 c7 20	 add	 edi, 32			; 00000020H
  00053	0f 57 c0	 xorps	 xmm0, xmm0
  00056	f3 0f 2a c7	 cvtsi2ss xmm0, edi
  0005a	8d 8e 6c 02 00
	00		 lea	 ecx, DWORD PTR [esi+620]
  00060	f3 0f 11 04 24	 movss	 DWORD PTR [esp], xmm0
  00065	e8 00 00 00 00	 call	 ?PrintFullTextWidthCut@ioComplexStringPrinter@@QAEXMMW4TextAlignType@@ME@Z ; ioComplexStringPrinter::PrintFullTextWidthCut
$LN1@OnRender@2:

; 70   : }

  0006a	5f		 pop	 edi
  0006b	5e		 pop	 esi
  0006c	c3		 ret	 0
?OnRender@RewardItemListIconBtn@@MAEXXZ ENDP		; RewardItemListIconBtn::OnRender
_TEXT	ENDS
PUBLIC	??_C@_0CH@JEEJCPFC@GuildPossibleRewardListWnd?3?3Upda@ ; `string'
PUBLIC	?UpdatePage@GuildPossibleRewardListWnd@@IAEXH@Z	; GuildPossibleRewardListWnd::UpdatePage
EXTRN	__imp_?SetChildInActive@ioWnd@@QAEXK@Z:PROC
EXTRN	__imp_?SetChildActive@ioWnd@@QAEXK@Z:PROC
;	COMDAT ??_C@_0CH@JEEJCPFC@GuildPossibleRewardListWnd?3?3Upda@
CONST	SEGMENT
??_C@_0CH@JEEJCPFC@GuildPossibleRewardListWnd?3?3Upda@ DB 'GuildPossibleR'
	DB	'ewardListWnd::UpdatePage', 00H		; `string'
; Function compile flags: /Ogsp
CONST	ENDS
;	COMDAT ?UpdatePage@GuildPossibleRewardListWnd@@IAEXH@Z
_TEXT	SEGMENT
_iPage$ = 8						; size = 4
?UpdatePage@GuildPossibleRewardListWnd@@IAEXH@Z PROC	; GuildPossibleRewardListWnd::UpdatePage, COMDAT
; _this$ = ecx

; 314  : {

  00000	55		 push	 ebp
  00001	8b ec		 mov	 ebp, esp

; 315  : 	m_iCurPage = iPage;

  00003	8b 45 08	 mov	 eax, DWORD PTR _iPage$[ebp]
  00006	53		 push	 ebx
  00007	56		 push	 esi
  00008	8b f1		 mov	 esi, ecx
  0000a	57		 push	 edi

; 316  : 
; 317  : 	m_PagePrinter.ClearList();

  0000b	8d 8e 98 01 00
	00		 lea	 ecx, DWORD PTR [esi+408]
  00011	89 86 fc 01 00
	00		 mov	 DWORD PTR [esi+508], eax
  00017	e8 00 00 00 00	 call	 ?ClearList@ioComplexStringPrinter@@QAEXXZ ; ioComplexStringPrinter::ClearList

; 318  : 
; 319  : 	m_PagePrinter.SetTextStyle( TS_NORMAL );

  0001c	33 db		 xor	 ebx, ebx
  0001e	53		 push	 ebx
  0001f	8d 8e 98 01 00
	00		 lea	 ecx, DWORD PTR [esi+408]
  00025	e8 00 00 00 00	 call	 ?SetTextStyle@ioComplexStringPrinter@@QAEXW4TextStyle@@@Z ; ioComplexStringPrinter::SetTextStyle

; 320  : 	m_PagePrinter.SetBkColor( 0, 0, 0 );

  0002a	53		 push	 ebx
  0002b	53		 push	 ebx
  0002c	53		 push	 ebx
  0002d	8d 8e 98 01 00
	00		 lea	 ecx, DWORD PTR [esi+408]
  00033	e8 00 00 00 00	 call	 ?SetBkColor@ioComplexStringPrinter@@QAEXHHH@Z ; ioComplexStringPrinter::SetBkColor

; 321  : 	m_PagePrinter.SetTextColor( TCT_DEFAULT_DARKGRAY );

  00038	68 3a 3a 3a ff	 push	 -12961222		; ff3a3a3aH
  0003d	8d 8e 98 01 00
	00		 lea	 ecx, DWORD PTR [esi+408]
  00043	e8 00 00 00 00	 call	 ?SetTextColor@ioComplexStringPrinter@@QAEXK@Z ; ioComplexStringPrinter::SetTextColor

; 322  : 	m_PagePrinter.AddTextPiece( FONT_SIZE_13, STR(1), m_iCurPage + 1 );

  00048	8b 86 fc 01 00
	00		 mov	 eax, DWORD PTR [esi+508]
  0004e	40		 inc	 eax
  0004f	50		 push	 eax
  00050	53		 push	 ebx
  00051	8b 1d 00 00 00
	00		 mov	 ebx, DWORD PTR __imp_?GetSingleton@ioStringManager@@SAAAV1@XZ
  00057	6a 01		 push	 1
  00059	68 00 00 00 00	 push	 OFFSET ??_C@_00CNPNBAHC@?$AA@
  0005e	68 00 00 00 00	 push	 OFFSET ??_C@_0CH@JEEJCPFC@GuildPossibleRewardListWnd?3?3Upda@
  00063	ff d3		 call	 ebx
  00065	8b c8		 mov	 ecx, eax
  00067	ff 15 00 00 00
	00		 call	 DWORD PTR __imp_?GetString@ioStringManager@@QAEPADPBD0HW4FileNamePrefix@1@@Z
  0006d	f3 0f 10 05 00
	00 00 00	 movss	 xmm0, DWORD PTR __real@3f266666
  00075	50		 push	 eax
  00076	51		 push	 ecx
  00077	8d 8e 98 01 00
	00		 lea	 ecx, DWORD PTR [esi+408]
  0007d	f3 0f 11 04 24	 movss	 DWORD PTR [esp], xmm0
  00082	e8 00 00 00 00	 call	 ?AddTextPiece@ioComplexStringPrinter@@QAEXMPBDH@Z ; ioComplexStringPrinter::AddTextPiece

; 323  : 	m_PagePrinter.SetTextColor( TCT_DEFAULT_GRAY );

  00087	68 6e 6e 6e ff	 push	 -9539986		; ff6e6e6eH
  0008c	8d 8e 98 01 00
	00		 lea	 ecx, DWORD PTR [esi+408]
  00092	e8 00 00 00 00	 call	 ?SetTextColor@ioComplexStringPrinter@@QAEXK@Z ; ioComplexStringPrinter::SetTextColor

; 324  : 	if ( m_iMaxPage == 0 )

  00097	8b 86 f8 01 00
	00		 mov	 eax, DWORD PTR [esi+504]
  0009d	85 c0		 test	 eax, eax
  0009f	75 07		 jne	 SHORT $LN4@UpdatePage

; 325  : 		m_PagePrinter.AddTextPiece( FONT_SIZE_13, STR(2), m_iMaxPage + 1 );

  000a1	6a 01		 push	 1
  000a3	50		 push	 eax
  000a4	6a 02		 push	 2

; 326  : 	else

  000a6	eb 05		 jmp	 SHORT $LN7@UpdatePage
$LN4@UpdatePage:

; 327  : 		m_PagePrinter.AddTextPiece( FONT_SIZE_13, STR(3), m_iMaxPage );

  000a8	50		 push	 eax
  000a9	6a 00		 push	 0
  000ab	6a 03		 push	 3
$LN7@UpdatePage:
  000ad	68 00 00 00 00	 push	 OFFSET ??_C@_00CNPNBAHC@?$AA@
  000b2	68 00 00 00 00	 push	 OFFSET ??_C@_0CH@JEEJCPFC@GuildPossibleRewardListWnd?3?3Upda@
  000b7	ff d3		 call	 ebx
  000b9	8b c8		 mov	 ecx, eax
  000bb	ff 15 00 00 00
	00		 call	 DWORD PTR __imp_?GetString@ioStringManager@@QAEPADPBD0HW4FileNamePrefix@1@@Z
  000c1	f3 0f 10 05 00
	00 00 00	 movss	 xmm0, DWORD PTR __real@3f266666
  000c9	50		 push	 eax
  000ca	51		 push	 ecx
  000cb	8d 8e 98 01 00
	00		 lea	 ecx, DWORD PTR [esi+408]
  000d1	f3 0f 11 04 24	 movss	 DWORD PTR [esp], xmm0
  000d6	e8 00 00 00 00	 call	 ?AddTextPiece@ioComplexStringPrinter@@QAEXMPBDH@Z ; ioComplexStringPrinter::AddTextPiece

; 328  : 
; 329  : 	SetChildActive( ID_PRE_BTN );

  000db	8b 3d 00 00 00
	00		 mov	 edi, DWORD PTR __imp_?SetChildActive@ioWnd@@QAEXK@Z
  000e1	6a 01		 push	 1
  000e3	8b ce		 mov	 ecx, esi
  000e5	ff d7		 call	 edi

; 330  : 	SetChildActive( ID_NEXT_BTN );

  000e7	6a 02		 push	 2
  000e9	8b ce		 mov	 ecx, esi
  000eb	ff d7		 call	 edi

; 331  : 
; 332  : 	if( m_iCurPage == 0 )

  000ed	83 be fc 01 00
	00 00		 cmp	 DWORD PTR [esi+508], 0
  000f4	8b 3d 00 00 00
	00		 mov	 edi, DWORD PTR __imp_?SetChildInActive@ioWnd@@QAEXK@Z
  000fa	75 06		 jne	 SHORT $LN2@UpdatePage

; 333  : 		SetChildInActive( ID_PRE_BTN );

  000fc	6a 01		 push	 1
  000fe	8b ce		 mov	 ecx, esi
  00100	ff d7		 call	 edi
$LN2@UpdatePage:

; 334  : 
; 335  : 	if( m_iCurPage == m_iMaxPage-1 )

  00102	8b 86 f8 01 00
	00		 mov	 eax, DWORD PTR [esi+504]
  00108	48		 dec	 eax
  00109	39 86 fc 01 00
	00		 cmp	 DWORD PTR [esi+508], eax
  0010f	75 06		 jne	 SHORT $LN1@UpdatePage

; 336  : 		SetChildInActive( ID_NEXT_BTN );

  00111	6a 02		 push	 2
  00113	8b ce		 mov	 ecx, esi
  00115	ff d7		 call	 edi
$LN1@UpdatePage:

; 337  : 
; 338  : 	UpdateIcon();

  00117	8b ce		 mov	 ecx, esi
  00119	e8 00 00 00 00	 call	 ?UpdateIcon@GuildPossibleRewardListWnd@@IAEXXZ ; GuildPossibleRewardListWnd::UpdateIcon
  0011e	5f		 pop	 edi
  0011f	5e		 pop	 esi
  00120	5b		 pop	 ebx

; 339  : }

  00121	5d		 pop	 ebp
  00122	c2 04 00	 ret	 4
?UpdatePage@GuildPossibleRewardListWnd@@IAEXH@Z ENDP	; GuildPossibleRewardListWnd::UpdatePage
_TEXT	ENDS
PUBLIC	?OnRender@GuildPossibleRewardListWnd@@MAEXXZ	; GuildPossibleRewardListWnd::OnRender
EXTRN	?PrintFullText@ioComplexStringPrinter@@QAEXMMW4TextAlignType@@E@Z:PROC ; ioComplexStringPrinter::PrintFullText
EXTRN	__imp_?OnRender@ioWnd@@MAEXXZ:PROC
; Function compile flags: /Ogsp
;	COMDAT ?OnRender@GuildPossibleRewardListWnd@@MAEXXZ
_TEXT	SEGMENT
tv83 = -8						; size = 4
_iXPos$ = -4						; size = 4
?OnRender@GuildPossibleRewardListWnd@@MAEXXZ PROC	; GuildPossibleRewardListWnd::OnRender, COMDAT
; _this$ = ecx

; 364  : {

  00000	55		 push	 ebp
  00001	8b ec		 mov	 ebp, esp
  00003	51		 push	 ecx
  00004	51		 push	 ecx
  00005	53		 push	 ebx
  00006	56		 push	 esi
  00007	57		 push	 edi
  00008	8b f1		 mov	 esi, ecx

; 365  : 	ioWnd::OnRender();

  0000a	ff 15 00 00 00
	00		 call	 DWORD PTR __imp_?OnRender@ioWnd@@MAEXXZ

; 366  : 
; 367  : 	int iXPos = GetDerivedPosX();

  00010	8b ce		 mov	 ecx, esi
  00012	ff 15 00 00 00
	00		 call	 DWORD PTR __imp_?GetDerivedPosX@ioWnd@@QBEHXZ

; 368  : 	int iYPos = GetDerivedPosY();

  00018	8b ce		 mov	 ecx, esi
  0001a	89 45 fc	 mov	 DWORD PTR _iXPos$[ebp], eax
  0001d	ff 15 00 00 00
	00		 call	 DWORD PTR __imp_?GetDerivedPosY@ioWnd@@QBEHXZ

; 369  : 
; 370  : 	enum
; 371  : 	{
; 372  : 		DESC_X		= 238,
; 373  : 		DESC_Y		= 470,
; 374  : 
; 375  : 		LINE_GAP	= 20,
; 376  : 
; 377  : 		PAGE_X		= 238,
; 378  : 		PAGE_Y		= 425,
; 379  : 	};
; 380  : 
; 381  : 	if ( !m_PagePrinter.IsEmpty() )

  00023	8b 8e a4 01 00
	00		 mov	 ecx, DWORD PTR [esi+420]
  00029	8b f8		 mov	 edi, eax
  0002b	bb ff 00 00 00	 mov	 ebx, 255		; 000000ffH
  00030	3b 8e a8 01 00
	00		 cmp	 ecx, DWORD PTR [esi+424]
  00036	74 37		 je	 SHORT $LN5@OnRender@3

; 382  : 		m_PagePrinter.PrintFullText( iXPos + PAGE_X, iYPos + PAGE_Y, TAT_CENTER );

  00038	53		 push	 ebx
  00039	6a 01		 push	 1
  0003b	0f 57 c0	 xorps	 xmm0, xmm0
  0003e	8d 87 a9 01 00
	00		 lea	 eax, DWORD PTR [edi+425]
  00044	f3 0f 2a c0	 cvtsi2ss xmm0, eax
  00048	8b 45 fc	 mov	 eax, DWORD PTR _iXPos$[ebp]
  0004b	51		 push	 ecx
  0004c	51		 push	 ecx
  0004d	f3 0f 11 44 24
	04		 movss	 DWORD PTR [esp+4], xmm0
  00053	05 ee 00 00 00	 add	 eax, 238		; 000000eeH
  00058	0f 57 c0	 xorps	 xmm0, xmm0
  0005b	f3 0f 2a c0	 cvtsi2ss xmm0, eax
  0005f	8d 8e 98 01 00
	00		 lea	 ecx, DWORD PTR [esi+408]
  00065	f3 0f 11 04 24	 movss	 DWORD PTR [esp], xmm0
  0006a	e8 00 00 00 00	 call	 ?PrintFullText@ioComplexStringPrinter@@QAEXMMW4TextAlignType@@E@Z ; ioComplexStringPrinter::PrintFullText
$LN5@OnRender@3:

; 383  : 
; 384  : 	for (int i = 0; i < MAX_TEXT ; i++)

  0006f	81 c7 d6 01 00
	00		 add	 edi, 470		; 000001d6H
  00075	81 c6 c4 01 00
	00		 add	 esi, 452		; 000001c4H
  0007b	c7 45 f8 02 00
	00 00		 mov	 DWORD PTR tv83[ebp], 2
$LL4@OnRender@3:

; 385  : 	{
; 386  : 		if ( !m_UnderLinePrinter[i].IsEmpty() )

  00082	8b 06		 mov	 eax, DWORD PTR [esi]
  00084	3b 46 04	 cmp	 eax, DWORD PTR [esi+4]
  00087	74 2e		 je	 SHORT $LN3@OnRender@3

; 387  : 			m_UnderLinePrinter[i].PrintFullText( iXPos + DESC_X, iYPos + DESC_Y + ( i*LINE_GAP), TAT_CENTER );

  00089	8b 45 fc	 mov	 eax, DWORD PTR _iXPos$[ebp]
  0008c	53		 push	 ebx
  0008d	6a 01		 push	 1
  0008f	51		 push	 ecx
  00090	0f 57 c0	 xorps	 xmm0, xmm0
  00093	51		 push	 ecx
  00094	f3 0f 2a c7	 cvtsi2ss xmm0, edi
  00098	f3 0f 11 44 24
	04		 movss	 DWORD PTR [esp+4], xmm0
  0009e	05 ee 00 00 00	 add	 eax, 238		; 000000eeH
  000a3	0f 57 c0	 xorps	 xmm0, xmm0
  000a6	f3 0f 2a c0	 cvtsi2ss xmm0, eax
  000aa	8d 4e f4	 lea	 ecx, DWORD PTR [esi-12]
  000ad	f3 0f 11 04 24	 movss	 DWORD PTR [esp], xmm0
  000b2	e8 00 00 00 00	 call	 ?PrintFullText@ioComplexStringPrinter@@QAEXMMW4TextAlignType@@E@Z ; ioComplexStringPrinter::PrintFullText
$LN3@OnRender@3:

; 383  : 
; 384  : 	for (int i = 0; i < MAX_TEXT ; i++)

  000b7	83 c7 14	 add	 edi, 20			; 00000014H
  000ba	83 c6 20	 add	 esi, 32			; 00000020H
  000bd	ff 4d f8	 dec	 DWORD PTR tv83[ebp]
  000c0	75 c0		 jne	 SHORT $LL4@OnRender@3
  000c2	5f		 pop	 edi
  000c3	5e		 pop	 esi
  000c4	5b		 pop	 ebx

; 388  : 	}
; 389  : }

  000c5	c9		 leave
  000c6	c3		 ret	 0
?OnRender@GuildPossibleRewardListWnd@@MAEXXZ ENDP	; GuildPossibleRewardListWnd::OnRender
_TEXT	ENDS
PUBLIC	_pImage$GSCopy$
PUBLIC	_this$GSCopy$
PUBLIC	_szType$GSCopy$
PUBLIC	__$ArrayPad$
EXTRN	__imp_?AddRenderImage@ioButton@@UAEXABVioHashString@@PAVioUIRenderImage@@@Z:PROC
; Function compile flags: /Ogsp
;	COMDAT ?AddRenderImage@GuildAttendUserBtn@@MAEXABVioHashString@@PAVioUIRenderImage@@@Z
_TEXT	SEGMENT
_pImage$GSCopy$ = -36					; size = 4
_this$GSCopy$ = -32					; size = 4
_szType$GSCopy$ = -28					; size = 4
__t$513054 = -24					; size = 16
__t$512982 = -24					; size = 14
__t$512804 = -24					; size = 15
__$ArrayPad$ = -4					; size = 4
_szType$ = 8						; size = 4
_pImage$ = 12						; size = 4
?AddRenderImage@GuildAttendUserBtn@@MAEXABVioHashString@@PAVioUIRenderImage@@@Z PROC ; GuildAttendUserBtn::AddRenderImage, COMDAT
; _this$ = ecx

; 416  : {

  00000	55		 push	 ebp
  00001	8b ec		 mov	 ebp, esp
  00003	83 ec 24	 sub	 esp, 36			; 00000024H
  00006	a1 00 00 00 00	 mov	 eax, DWORD PTR ___security_cookie
  0000b	33 c5		 xor	 eax, ebp
  0000d	89 45 fc	 mov	 DWORD PTR __$ArrayPad$[ebp], eax
  00010	8b 45 08	 mov	 eax, DWORD PTR _szType$[ebp]
  00013	53		 push	 ebx
  00014	56		 push	 esi
  00015	57		 push	 edi

; 426  : 	}
; 427  : 	else if( szType == "GreenAttendance" )

  00016	89 45 e4	 mov	 DWORD PTR _szType$GSCopy$[ebp], eax
  00019	8b 45 0c	 mov	 eax, DWORD PTR _pImage$[ebp]
  0001c	33 db		 xor	 ebx, ebx
  0001e	6a 03		 push	 3
  00020	89 4d e0	 mov	 DWORD PTR _this$GSCopy$[ebp], ecx
  00023	89 45 dc	 mov	 DWORD PTR _pImage$GSCopy$[ebp], eax
  00026	c7 45 e8 aa 9e
	8a 93		 mov	 DWORD PTR __t$512804[ebp], -1819631958 ; 938a9eaaH
  0002d	c7 45 ec ac 98
	9f 8f		 mov	 DWORD PTR __t$512804[ebp+4], -1885366100 ; 8f9f98acH
  00034	c7 45 f0 83 88
	8a 84		 mov	 DWORD PTR __t$512804[ebp+8], -2071295869 ; 848a8883H
  0003b	66 c7 45 f4 8e
	89		 mov	 WORD PTR __t$512804[ebp+12], 35214 ; 0000898eH
  00041	8d 45 e8	 lea	 eax, DWORD PTR __t$512804[ebp]
  00044	88 5d f6	 mov	 BYTE PTR __t$512804[ebp+14], bl
  00047	59		 pop	 ecx
  00048	bf ed ec eb ea	 mov	 edi, -353637139		; eaebecedH
$LL121@AddRenderI:

; 417  : 	if( szType == "GrayAttendance" )

  0004d	31 38		 xor	 DWORD PTR [eax], edi
  0004f	83 c0 04	 add	 eax, 4
  00052	49		 dec	 ecx
  00053	75 f8		 jne	 SHORT $LL121@AddRenderI
  00055	6a 0c		 push	 12			; 0000000cH
  00057	58		 pop	 eax
$LL118@AddRenderI:
  00058	8b c8		 mov	 ecx, eax
  0005a	81 e1 03 00 00
	80		 and	 ecx, -2147483645	; 80000003H
  00060	79 05		 jns	 SHORT $LN362@AddRenderI
  00062	49		 dec	 ecx
  00063	83 c9 fc	 or	 ecx, -4			; fffffffcH
  00066	41		 inc	 ecx
$LN362@AddRenderI:
  00067	b2 ed		 mov	 dl, -19			; ffffffedH
  00069	2a d1		 sub	 dl, cl
  0006b	30 54 05 e8	 xor	 BYTE PTR __t$512804[ebp+eax], dl
  0006f	40		 inc	 eax
  00070	83 f8 0e	 cmp	 eax, 14			; 0000000eH
  00073	7c e3		 jl	 SHORT $LL118@AddRenderI
  00075	8b 4d e4	 mov	 ecx, DWORD PTR _szType$GSCopy$[ebp]
  00078	8d 75 e8	 lea	 esi, DWORD PTR __t$512804[ebp]
  0007b	ff 15 00 00 00
	00		 call	 DWORD PTR __imp_?c_str@ioHashString@@QBEPBDXZ
$LL350@AddRenderI:
  00081	8a 08		 mov	 cl, BYTE PTR [eax]
  00083	3a 0e		 cmp	 cl, BYTE PTR [esi]
  00085	75 1a		 jne	 SHORT $LN351@AddRenderI
  00087	3a cb		 cmp	 cl, bl
  00089	74 12		 je	 SHORT $LN352@AddRenderI
  0008b	8a 48 01	 mov	 cl, BYTE PTR [eax+1]
  0008e	3a 4e 01	 cmp	 cl, BYTE PTR [esi+1]
  00091	75 0e		 jne	 SHORT $LN351@AddRenderI
  00093	83 c0 02	 add	 eax, 2
  00096	83 c6 02	 add	 esi, 2
  00099	3a cb		 cmp	 cl, bl
  0009b	75 e4		 jne	 SHORT $LL350@AddRenderI
$LN352@AddRenderI:
  0009d	33 c0		 xor	 eax, eax
  0009f	eb 05		 jmp	 SHORT $LN353@AddRenderI
$LN351@AddRenderI:
  000a1	1b c0		 sbb	 eax, eax
  000a3	83 d8 ff	 sbb	 eax, -1
$LN353@AddRenderI:
  000a6	3b c3		 cmp	 eax, ebx
  000a8	75 28		 jne	 SHORT $LN348@AddRenderI

; 418  : 	{
; 419  : 		SAFEDELETE( m_pGrayAttendance );

  000aa	8b 75 e0	 mov	 esi, DWORD PTR _this$GSCopy$[ebp]
  000ad	8b 8e 18 02 00
	00		 mov	 ecx, DWORD PTR [esi+536]
  000b3	3b cb		 cmp	 ecx, ebx
  000b5	74 0d		 je	 SHORT $LN8@AddRenderI
  000b7	8b 01		 mov	 eax, DWORD PTR [ecx]
  000b9	6a 01		 push	 1
  000bb	ff 50 40	 call	 DWORD PTR [eax+64]
  000be	89 9e 18 02 00
	00		 mov	 DWORD PTR [esi+536], ebx
$LN8@AddRenderI:

; 420  : 		m_pGrayAttendance = pImage;

  000c4	8b 45 dc	 mov	 eax, DWORD PTR _pImage$GSCopy$[ebp]
  000c7	89 86 18 02 00
	00		 mov	 DWORD PTR [esi+536], eax
  000cd	e9 3d 01 00 00	 jmp	 $LN1@AddRenderI
$LN348@AddRenderI:

; 421  : 	}
; 422  : 	else if( szType == "RedAttendance" )

  000d2	6a 03		 push	 3
  000d4	c7 45 e8 bf 89
	8f ab		 mov	 DWORD PTR __t$512982[ebp], -1416656449 ; ab8f89bfH
  000db	c7 45 ec 99 98
	8e 84		 mov	 DWORD PTR __t$512982[ebp+4], -2071029607 ; 848e9899H
  000e2	c7 45 f0 89 8d
	85 89		 mov	 DWORD PTR __t$512982[ebp+8], -1987736183 ; 89858d89H
  000e9	8d 45 e8	 lea	 eax, DWORD PTR __t$512982[ebp]
  000ec	66 c7 45 f4 88
	00		 mov	 WORD PTR __t$512982[ebp+12], 136 ; 00000088H
  000f2	59		 pop	 ecx
$LL227@AddRenderI:
  000f3	31 38		 xor	 DWORD PTR [eax], edi
  000f5	83 c0 04	 add	 eax, 4
  000f8	49		 dec	 ecx
  000f9	75 f8		 jne	 SHORT $LL227@AddRenderI
  000fb	8b 4d e4	 mov	 ecx, DWORD PTR _szType$GSCopy$[ebp]
  000fe	80 75 f4 ed	 xor	 BYTE PTR __t$512982[ebp+12], -19 ; ffffffedH
  00102	8d 75 e8	 lea	 esi, DWORD PTR __t$512982[ebp]
  00105	ff 15 00 00 00
	00		 call	 DWORD PTR __imp_?c_str@ioHashString@@QBEPBDXZ
$LL354@AddRenderI:
  0010b	8a 08		 mov	 cl, BYTE PTR [eax]
  0010d	3a 0e		 cmp	 cl, BYTE PTR [esi]
  0010f	75 1a		 jne	 SHORT $LN355@AddRenderI
  00111	3a cb		 cmp	 cl, bl
  00113	74 12		 je	 SHORT $LN356@AddRenderI
  00115	8a 48 01	 mov	 cl, BYTE PTR [eax+1]
  00118	3a 4e 01	 cmp	 cl, BYTE PTR [esi+1]
  0011b	75 0e		 jne	 SHORT $LN355@AddRenderI
  0011d	83 c0 02	 add	 eax, 2
  00120	83 c6 02	 add	 esi, 2
  00123	3a cb		 cmp	 cl, bl
  00125	75 e4		 jne	 SHORT $LL354@AddRenderI
$LN356@AddRenderI:
  00127	33 c0		 xor	 eax, eax
  00129	eb 05		 jmp	 SHORT $LN357@AddRenderI
$LN355@AddRenderI:
  0012b	1b c0		 sbb	 eax, eax
  0012d	83 d8 ff	 sbb	 eax, -1
$LN357@AddRenderI:
  00130	3b c3		 cmp	 eax, ebx
  00132	75 28		 jne	 SHORT $LN349@AddRenderI

; 423  : 	{
; 424  : 		SAFEDELETE( m_pRedAttendance );

  00134	8b 75 e0	 mov	 esi, DWORD PTR _this$GSCopy$[ebp]
  00137	8b 8e 1c 02 00
	00		 mov	 ecx, DWORD PTR [esi+540]
  0013d	3b cb		 cmp	 ecx, ebx
  0013f	74 0d		 je	 SHORT $LN5@AddRenderI
  00141	8b 01		 mov	 eax, DWORD PTR [ecx]
  00143	6a 01		 push	 1
  00145	ff 50 40	 call	 DWORD PTR [eax+64]
  00148	89 9e 1c 02 00
	00		 mov	 DWORD PTR [esi+540], ebx
$LN5@AddRenderI:

; 425  : 		m_pRedAttendance = pImage;

  0014e	8b 45 dc	 mov	 eax, DWORD PTR _pImage$GSCopy$[ebp]
  00151	89 86 1c 02 00
	00		 mov	 DWORD PTR [esi+540], eax
  00157	e9 b3 00 00 00	 jmp	 $LN1@AddRenderI
$LN349@AddRenderI:

; 426  : 	}
; 427  : 	else if( szType == "GreenAttendance" )

  0015c	6a 03		 push	 3
  0015e	c7 45 e8 aa 9e
	8e 8f		 mov	 DWORD PTR __t$513054[ebp], -1886478678 ; 8f8e9eaaH
  00165	c7 45 ec 83 ad
	9f 9e		 mov	 DWORD PTR __t$513054[ebp+4], -1633702525 ; 9e9fad83H
  0016c	c7 45 f0 88 82
	8f 8b		 mov	 DWORD PTR __t$513054[ebp+8], -1953529208 ; 8b8f8288H
  00173	8d 45 e8	 lea	 eax, DWORD PTR __t$513054[ebp]
  00176	c7 45 f4 83 8f
	8e 00		 mov	 DWORD PTR __t$513054[ebp+12], 9342851 ; 008e8f83H
  0017d	59		 pop	 ecx
$LL333@AddRenderI:
  0017e	31 38		 xor	 DWORD PTR [eax], edi
  00180	83 c0 04	 add	 eax, 4
  00183	49		 dec	 ecx
  00184	75 f8		 jne	 SHORT $LL333@AddRenderI
  00186	6a 0c		 push	 12			; 0000000cH
  00188	58		 pop	 eax
$LL330@AddRenderI:
  00189	8b c8		 mov	 ecx, eax
  0018b	81 e1 03 00 00
	80		 and	 ecx, -2147483645	; 80000003H
  00191	79 05		 jns	 SHORT $LN363@AddRenderI
  00193	49		 dec	 ecx
  00194	83 c9 fc	 or	 ecx, -4			; fffffffcH
  00197	41		 inc	 ecx
$LN363@AddRenderI:
  00198	b2 ed		 mov	 dl, -19			; ffffffedH
  0019a	2a d1		 sub	 dl, cl
  0019c	30 54 05 e8	 xor	 BYTE PTR __t$513054[ebp+eax], dl
  001a0	40		 inc	 eax
  001a1	83 f8 0f	 cmp	 eax, 15			; 0000000fH
  001a4	7c e3		 jl	 SHORT $LL330@AddRenderI
  001a6	8b 4d e4	 mov	 ecx, DWORD PTR _szType$GSCopy$[ebp]
  001a9	8d 75 e8	 lea	 esi, DWORD PTR __t$513054[ebp]
  001ac	ff 15 00 00 00
	00		 call	 DWORD PTR __imp_?c_str@ioHashString@@QBEPBDXZ
$LL358@AddRenderI:
  001b2	8a 08		 mov	 cl, BYTE PTR [eax]
  001b4	3a 0e		 cmp	 cl, BYTE PTR [esi]
  001b6	75 1a		 jne	 SHORT $LN359@AddRenderI
  001b8	3a cb		 cmp	 cl, bl
  001ba	74 12		 je	 SHORT $LN360@AddRenderI
  001bc	8a 48 01	 mov	 cl, BYTE PTR [eax+1]
  001bf	3a 4e 01	 cmp	 cl, BYTE PTR [esi+1]
  001c2	75 0e		 jne	 SHORT $LN359@AddRenderI
  001c4	83 c0 02	 add	 eax, 2
  001c7	83 c6 02	 add	 esi, 2
  001ca	3a cb		 cmp	 cl, bl
  001cc	75 e4		 jne	 SHORT $LL358@AddRenderI
$LN360@AddRenderI:
  001ce	33 c0		 xor	 eax, eax
  001d0	eb 05		 jmp	 SHORT $LN361@AddRenderI
$LN359@AddRenderI:
  001d2	1b c0		 sbb	 eax, eax
  001d4	83 d8 ff	 sbb	 eax, -1
$LN361@AddRenderI:
  001d7	3b c3		 cmp	 eax, ebx
  001d9	75 25		 jne	 SHORT $LN3@AddRenderI

; 428  : 	{
; 429  : 		SAFEDELETE( m_pGreenAttendance );

  001db	8b 75 e0	 mov	 esi, DWORD PTR _this$GSCopy$[ebp]
  001de	8b 8e 20 02 00
	00		 mov	 ecx, DWORD PTR [esi+544]
  001e4	3b cb		 cmp	 ecx, ebx
  001e6	74 0d		 je	 SHORT $LN2@AddRenderI
  001e8	8b 01		 mov	 eax, DWORD PTR [ecx]
  001ea	6a 01		 push	 1
  001ec	ff 50 40	 call	 DWORD PTR [eax+64]
  001ef	89 9e 20 02 00
	00		 mov	 DWORD PTR [esi+544], ebx
$LN2@AddRenderI:

; 430  : 		m_pGreenAttendance = pImage;

  001f5	8b 45 dc	 mov	 eax, DWORD PTR _pImage$GSCopy$[ebp]
  001f8	89 86 20 02 00
	00		 mov	 DWORD PTR [esi+544], eax

; 431  : 	}
; 432  : 	else

  001fe	eb 0f		 jmp	 SHORT $LN1@AddRenderI
$LN3@AddRenderI:

; 433  : 		ioButton::AddRenderImage( szType, pImage );

  00200	ff 75 dc	 push	 DWORD PTR _pImage$GSCopy$[ebp]
  00203	8b 4d e0	 mov	 ecx, DWORD PTR _this$GSCopy$[ebp]
  00206	ff 75 e4	 push	 DWORD PTR _szType$GSCopy$[ebp]
  00209	ff 15 00 00 00
	00		 call	 DWORD PTR __imp_?AddRenderImage@ioButton@@UAEXABVioHashString@@PAVioUIRenderImage@@@Z
$LN1@AddRenderI:

; 434  : }

  0020f	8b 4d fc	 mov	 ecx, DWORD PTR __$ArrayPad$[ebp]
  00212	5f		 pop	 edi
  00213	5e		 pop	 esi
  00214	33 cd		 xor	 ecx, ebp
  00216	5b		 pop	 ebx
  00217	e8 00 00 00 00	 call	 @__security_check_cookie@4
  0021c	c9		 leave
  0021d	c2 08 00	 ret	 8
?AddRenderImage@GuildAttendUserBtn@@MAEXABVioHashString@@PAVioUIRenderImage@@@Z ENDP ; GuildAttendUserBtn::AddRenderImage
; Function compile flags: /Ogsp
_TEXT	ENDS
;	COMDAT ?OnRender@GuildAttendRewardWnd@@MAEXXZ
_TEXT	SEGMENT
?OnRender@GuildAttendRewardWnd@@MAEXXZ PROC		; GuildAttendRewardWnd::OnRender, COMDAT
; _this$ = ecx

; 617  : {

  00000	53		 push	 ebx
  00001	56		 push	 esi
  00002	57		 push	 edi
  00003	8b f1		 mov	 esi, ecx

; 618  : 	ioWnd::OnRender();

  00005	ff 15 00 00 00
	00		 call	 DWORD PTR __imp_?OnRender@ioWnd@@MAEXXZ

; 619  : 	
; 620  : 	int iXPos = GetDerivedPosX();

  0000b	8b ce		 mov	 ecx, esi
  0000d	ff 15 00 00 00
	00		 call	 DWORD PTR __imp_?GetDerivedPosX@ioWnd@@QBEHXZ

; 621  : 	int iYPos = GetDerivedPosY();

  00013	8b ce		 mov	 ecx, esi
  00015	8b f8		 mov	 edi, eax
  00017	ff 15 00 00 00
	00		 call	 DWORD PTR __imp_?GetDerivedPosY@ioWnd@@QBEHXZ

; 622  : 
; 623  : 	if( m_pItemIcon )

  0001d	33 c9		 xor	 ecx, ecx
  0001f	8b d8		 mov	 ebx, eax
  00021	39 8e 60 01 00
	00		 cmp	 DWORD PTR [esi+352], ecx
  00027	74 31		 je	 SHORT $LN3@OnRender@4

; 624  : 		m_pItemIcon->Render( iXPos + 125, iYPos + 98 );

  00029	8b 86 60 01 00
	00		 mov	 eax, DWORD PTR [esi+352]
  0002f	8b 10		 mov	 edx, DWORD PTR [eax]
  00031	51		 push	 ecx
  00032	51		 push	 ecx
  00033	51		 push	 ecx
  00034	51		 push	 ecx
  00035	8d 4b 62	 lea	 ecx, DWORD PTR [ebx+98]
  00038	51		 push	 ecx
  00039	51		 push	 ecx
  0003a	0f 57 c0	 xorps	 xmm0, xmm0
  0003d	f3 0f 2a c1	 cvtsi2ss xmm0, ecx
  00041	f3 0f 11 44 24
	04		 movss	 DWORD PTR [esp+4], xmm0
  00047	8d 4f 7d	 lea	 ecx, DWORD PTR [edi+125]
  0004a	0f 57 c0	 xorps	 xmm0, xmm0
  0004d	f3 0f 2a c1	 cvtsi2ss xmm0, ecx
  00051	8b c8		 mov	 ecx, eax
  00053	f3 0f 11 04 24	 movss	 DWORD PTR [esp], xmm0
  00058	ff 12		 call	 DWORD PTR [edx]
$LN3@OnRender@4:

; 625  : 
; 626  : 	if ( !m_AttendNumberPrinter.IsEmpty() )

  0005a	8b 8e 70 01 00
	00		 mov	 ecx, DWORD PTR [esi+368]
  00060	3b 8e 74 01 00
	00		 cmp	 ecx, DWORD PTR [esi+372]
  00066	74 36		 je	 SHORT $LN2@OnRender@4

; 627  : 		m_AttendNumberPrinter.PrintFullText( iXPos + 126, iYPos + 147, TAT_CENTER );

  00068	68 ff 00 00 00	 push	 255			; 000000ffH
  0006d	6a 01		 push	 1
  0006f	51		 push	 ecx
  00070	0f 57 c0	 xorps	 xmm0, xmm0
  00073	51		 push	 ecx
  00074	8d 83 93 00 00
	00		 lea	 eax, DWORD PTR [ebx+147]
  0007a	f3 0f 2a c0	 cvtsi2ss xmm0, eax
  0007e	f3 0f 11 44 24
	04		 movss	 DWORD PTR [esp+4], xmm0
  00084	8d 47 7e	 lea	 eax, DWORD PTR [edi+126]
  00087	0f 57 c0	 xorps	 xmm0, xmm0
  0008a	f3 0f 2a c0	 cvtsi2ss xmm0, eax
  0008e	8d 8e 64 01 00
	00		 lea	 ecx, DWORD PTR [esi+356]
  00094	f3 0f 11 04 24	 movss	 DWORD PTR [esp], xmm0
  00099	e8 00 00 00 00	 call	 ?PrintFullText@ioComplexStringPrinter@@QAEXMMW4TextAlignType@@E@Z ; ioComplexStringPrinter::PrintFullText
$LN2@OnRender@4:

; 628  : 	if ( !m_ItemNamePrinter.IsEmpty())

  0009e	8b 8e 90 01 00
	00		 mov	 ecx, DWORD PTR [esi+400]
  000a4	3b 8e 94 01 00
	00		 cmp	 ecx, DWORD PTR [esi+404]
  000aa	74 36		 je	 SHORT $LN1@OnRender@4

; 629  : 		m_ItemNamePrinter.PrintFullText( iXPos + 126, iYPos + 169, TAT_CENTER );

  000ac	68 ff 00 00 00	 push	 255			; 000000ffH
  000b1	6a 01		 push	 1
  000b3	51		 push	 ecx
  000b4	0f 57 c0	 xorps	 xmm0, xmm0
  000b7	51		 push	 ecx
  000b8	81 c3 a9 00 00
	00		 add	 ebx, 169		; 000000a9H
  000be	f3 0f 2a c3	 cvtsi2ss xmm0, ebx
  000c2	f3 0f 11 44 24
	04		 movss	 DWORD PTR [esp+4], xmm0
  000c8	83 c7 7e	 add	 edi, 126		; 0000007eH
  000cb	0f 57 c0	 xorps	 xmm0, xmm0
  000ce	f3 0f 2a c7	 cvtsi2ss xmm0, edi
  000d2	8d 8e 84 01 00
	00		 lea	 ecx, DWORD PTR [esi+388]
  000d8	f3 0f 11 04 24	 movss	 DWORD PTR [esp], xmm0
  000dd	e8 00 00 00 00	 call	 ?PrintFullText@ioComplexStringPrinter@@QAEXMMW4TextAlignType@@E@Z ; ioComplexStringPrinter::PrintFullText
$LN1@OnRender@4:

; 630  : }

  000e2	5f		 pop	 edi
  000e3	5e		 pop	 esi
  000e4	5b		 pop	 ebx
  000e5	c3		 ret	 0
?OnRender@GuildAttendRewardWnd@@MAEXXZ ENDP		; GuildAttendRewardWnd::OnRender
; Function compile flags: /Ogsp
_TEXT	ENDS
;	COMDAT ?OnRender@GuildRankRewardWnd@@MAEXXZ
_TEXT	SEGMENT
?OnRender@GuildRankRewardWnd@@MAEXXZ PROC		; GuildRankRewardWnd::OnRender, COMDAT
; _this$ = ecx

; 705  : {

  00000	53		 push	 ebx
  00001	56		 push	 esi
  00002	57		 push	 edi
  00003	8b f1		 mov	 esi, ecx

; 706  : 	ioWnd::OnRender();

  00005	ff 15 00 00 00
	00		 call	 DWORD PTR __imp_?OnRender@ioWnd@@MAEXXZ

; 707  : 
; 708  : 	int iXPos = GetDerivedPosX();

  0000b	8b ce		 mov	 ecx, esi
  0000d	ff 15 00 00 00
	00		 call	 DWORD PTR __imp_?GetDerivedPosX@ioWnd@@QBEHXZ

; 709  : 	int iYPos = GetDerivedPosY();

  00013	8b ce		 mov	 ecx, esi
  00015	8b f8		 mov	 edi, eax
  00017	ff 15 00 00 00
	00		 call	 DWORD PTR __imp_?GetDerivedPosY@ioWnd@@QBEHXZ

; 710  : 
; 711  : 	if( m_pItemIcon )

  0001d	33 c9		 xor	 ecx, ecx
  0001f	8b d8		 mov	 ebx, eax
  00021	39 8e 60 01 00
	00		 cmp	 DWORD PTR [esi+352], ecx
  00027	74 31		 je	 SHORT $LN3@OnRender@5

; 712  : 		m_pItemIcon->Render( iXPos + 125, iYPos + 98 );

  00029	8b 86 60 01 00
	00		 mov	 eax, DWORD PTR [esi+352]
  0002f	8b 10		 mov	 edx, DWORD PTR [eax]
  00031	51		 push	 ecx
  00032	51		 push	 ecx
  00033	51		 push	 ecx
  00034	51		 push	 ecx
  00035	8d 4b 62	 lea	 ecx, DWORD PTR [ebx+98]
  00038	51		 push	 ecx
  00039	51		 push	 ecx
  0003a	0f 57 c0	 xorps	 xmm0, xmm0
  0003d	f3 0f 2a c1	 cvtsi2ss xmm0, ecx
  00041	f3 0f 11 44 24
	04		 movss	 DWORD PTR [esp+4], xmm0
  00047	8d 4f 7d	 lea	 ecx, DWORD PTR [edi+125]
  0004a	0f 57 c0	 xorps	 xmm0, xmm0
  0004d	f3 0f 2a c1	 cvtsi2ss xmm0, ecx
  00051	8b c8		 mov	 ecx, eax
  00053	f3 0f 11 04 24	 movss	 DWORD PTR [esp], xmm0
  00058	ff 12		 call	 DWORD PTR [edx]
$LN3@OnRender@5:

; 713  : 
; 714  : 	if( !m_GuildRankPrinter.IsEmpty() )

  0005a	8b 8e 70 01 00
	00		 mov	 ecx, DWORD PTR [esi+368]
  00060	3b 8e 74 01 00
	00		 cmp	 ecx, DWORD PTR [esi+372]
  00066	74 36		 je	 SHORT $LN2@OnRender@5

; 715  : 		m_GuildRankPrinter.PrintFullText( iXPos + 126, iYPos + 147, TAT_CENTER );

  00068	68 ff 00 00 00	 push	 255			; 000000ffH
  0006d	6a 01		 push	 1
  0006f	51		 push	 ecx
  00070	0f 57 c0	 xorps	 xmm0, xmm0
  00073	51		 push	 ecx
  00074	8d 83 93 00 00
	00		 lea	 eax, DWORD PTR [ebx+147]
  0007a	f3 0f 2a c0	 cvtsi2ss xmm0, eax
  0007e	f3 0f 11 44 24
	04		 movss	 DWORD PTR [esp+4], xmm0
  00084	8d 47 7e	 lea	 eax, DWORD PTR [edi+126]
  00087	0f 57 c0	 xorps	 xmm0, xmm0
  0008a	f3 0f 2a c0	 cvtsi2ss xmm0, eax
  0008e	8d 8e 64 01 00
	00		 lea	 ecx, DWORD PTR [esi+356]
  00094	f3 0f 11 04 24	 movss	 DWORD PTR [esp], xmm0
  00099	e8 00 00 00 00	 call	 ?PrintFullText@ioComplexStringPrinter@@QAEXMMW4TextAlignType@@E@Z ; ioComplexStringPrinter::PrintFullText
$LN2@OnRender@5:

; 716  : 	if( !m_ItemNamePrinter.IsEmpty() )

  0009e	8b 8e 90 01 00
	00		 mov	 ecx, DWORD PTR [esi+400]
  000a4	3b 8e 94 01 00
	00		 cmp	 ecx, DWORD PTR [esi+404]
  000aa	74 36		 je	 SHORT $LN1@OnRender@5

; 717  : 		m_ItemNamePrinter.PrintFullText( iXPos + 126, iYPos + 169, TAT_CENTER );

  000ac	68 ff 00 00 00	 push	 255			; 000000ffH
  000b1	6a 01		 push	 1
  000b3	51		 push	 ecx
  000b4	0f 57 c0	 xorps	 xmm0, xmm0
  000b7	51		 push	 ecx
  000b8	81 c3 a9 00 00
	00		 add	 ebx, 169		; 000000a9H
  000be	f3 0f 2a c3	 cvtsi2ss xmm0, ebx
  000c2	f3 0f 11 44 24
	04		 movss	 DWORD PTR [esp+4], xmm0
  000c8	83 c7 7e	 add	 edi, 126		; 0000007eH
  000cb	0f 57 c0	 xorps	 xmm0, xmm0
  000ce	f3 0f 2a c7	 cvtsi2ss xmm0, edi
  000d2	8d 8e 84 01 00
	00		 lea	 ecx, DWORD PTR [esi+388]
  000d8	f3 0f 11 04 24	 movss	 DWORD PTR [esp], xmm0
  000dd	e8 00 00 00 00	 call	 ?PrintFullText@ioComplexStringPrinter@@QAEXMMW4TextAlignType@@E@Z ; ioComplexStringPrinter::PrintFullText
$LN1@OnRender@5:

; 718  : }

  000e2	5f		 pop	 edi
  000e3	5e		 pop	 esi
  000e4	5b		 pop	 ebx
  000e5	c3		 ret	 0
?OnRender@GuildRankRewardWnd@@MAEXXZ ENDP		; GuildRankRewardWnd::OnRender
_TEXT	ENDS
PUBLIC	__$ArrayPad$
EXTRN	__imp_?ParseExtraInfo@ioWnd@@UAEXAAVioXMLElement@@@Z:PROC
; Function compile flags: /Ogsp
;	COMDAT ?ParseExtraInfo@GuildEnableRewardToolTip@@UAEXAAVioXMLElement@@@Z
_TEXT	SEGMENT
__k$513254 = -24					; size = 15
__$ArrayPad$ = -4					; size = 4
_xElement$ = 8						; size = 4
?ParseExtraInfo@GuildEnableRewardToolTip@@UAEXAAVioXMLElement@@@Z PROC ; GuildEnableRewardToolTip::ParseExtraInfo, COMDAT
; _this$ = ecx

; 734  : {

  00000	55		 push	 ebp
  00001	8b ec		 mov	 ebp, esp
  00003	83 ec 18	 sub	 esp, 24			; 00000018H
  00006	a1 00 00 00 00	 mov	 eax, DWORD PTR ___security_cookie
  0000b	33 c5		 xor	 eax, ebp
  0000d	89 45 fc	 mov	 DWORD PTR __$ArrayPad$[ebp], eax
  00010	56		 push	 esi
  00011	8b 75 08	 mov	 esi, DWORD PTR _xElement$[ebp]
  00014	57		 push	 edi

; 735  : 	ioWnd::ParseExtraInfo( xElement );

  00015	56		 push	 esi
  00016	8b f9		 mov	 edi, ecx
  00018	ff 15 00 00 00
	00		 call	 DWORD PTR __imp_?ParseExtraInfo@ioWnd@@UAEXAAVioXMLElement@@@Z

; 736  : 	m_szRewardInfoOverSnd = xElement.GetStringAttribute_e( "RewardInfoOver" );

  0001e	6a 03		 push	 3
  00020	c7 45 e8 bf 89
	9c 8b		 mov	 DWORD PTR __k$513254[ebp], -1952675393 ; 8b9c89bfH
  00027	c7 45 ec 9f 88
	a2 84		 mov	 DWORD PTR __k$513254[ebp+4], -2069722977 ; 84a2889fH
  0002e	c7 45 f0 8b 83
	a4 9c		 mov	 DWORD PTR __k$513254[ebp+8], -1666940021 ; 9ca4838bH
  00035	66 c7 45 f4 88
	9e		 mov	 WORD PTR __k$513254[ebp+12], 40584 ; 00009e88H
  0003b	8d 45 e8	 lea	 eax, DWORD PTR __k$513254[ebp]
  0003e	c6 45 f6 00	 mov	 BYTE PTR __k$513254[ebp+14], 0
  00042	59		 pop	 ecx
$LL106@ParseExtra:
  00043	81 30 ed ec eb
	ea		 xor	 DWORD PTR [eax], -353637139 ; eaebecedH
  00049	83 c0 04	 add	 eax, 4
  0004c	49		 dec	 ecx
  0004d	75 f4		 jne	 SHORT $LL106@ParseExtra
  0004f	6a 0c		 push	 12			; 0000000cH
  00051	58		 pop	 eax
$LL103@ParseExtra:
  00052	8b c8		 mov	 ecx, eax
  00054	81 e1 03 00 00
	80		 and	 ecx, -2147483645	; 80000003H
  0005a	79 05		 jns	 SHORT $LN113@ParseExtra
  0005c	49		 dec	 ecx
  0005d	83 c9 fc	 or	 ecx, -4			; fffffffcH
  00060	41		 inc	 ecx
$LN113@ParseExtra:
  00061	b2 ed		 mov	 dl, -19			; ffffffedH
  00063	2a d1		 sub	 dl, cl
  00065	30 54 05 e8	 xor	 BYTE PTR __k$513254[ebp+eax], dl
  00069	40		 inc	 eax
  0006a	83 f8 0e	 cmp	 eax, 14			; 0000000eH
  0006d	7c e3		 jl	 SHORT $LL103@ParseExtra
  0006f	8d 45 e8	 lea	 eax, DWORD PTR __k$513254[ebp]
  00072	50		 push	 eax
  00073	8b ce		 mov	 ecx, esi
  00075	ff 15 00 00 00
	00		 call	 DWORD PTR __imp_?GetStringAttribute@ioXMLElement@@QBEPBDPBD@Z
  0007b	50		 push	 eax
  0007c	8d 8f 80 01 00
	00		 lea	 ecx, DWORD PTR [edi+384]
  00082	ff 15 00 00 00
	00		 call	 DWORD PTR __imp_??4ioHashString@@QAEAAV0@PBD@Z

; 737  : }

  00088	8b 4d fc	 mov	 ecx, DWORD PTR __$ArrayPad$[ebp]
  0008b	5f		 pop	 edi
  0008c	33 cd		 xor	 ecx, ebp
  0008e	5e		 pop	 esi
  0008f	e8 00 00 00 00	 call	 @__security_check_cookie@4
  00094	c9		 leave
  00095	c2 04 00	 ret	 4
?ParseExtraInfo@GuildEnableRewardToolTip@@UAEXAAVioXMLElement@@@Z ENDP ; GuildEnableRewardToolTip::ParseExtraInfo
; Function compile flags: /Ogsp
_TEXT	ENDS
;	COMDAT ?OnRender@GuildEnableRewardToolTip@@MAEXXZ
_TEXT	SEGMENT
?OnRender@GuildEnableRewardToolTip@@MAEXXZ PROC		; GuildEnableRewardToolTip::OnRender, COMDAT
; _this$ = ecx

; 779  : {

  00000	56		 push	 esi
  00001	8b f1		 mov	 esi, ecx

; 780  : 	if ( GetWidth() == 0 && GetHeight() == 0 )

  00003	ff 15 00 00 00
	00		 call	 DWORD PTR __imp_?GetWidth@ioWnd@@QBEHXZ
  00009	85 c0		 test	 eax, eax
  0000b	75 0c		 jne	 SHORT $LN2@OnRender@6
  0000d	8b ce		 mov	 ecx, esi
  0000f	ff 15 00 00 00
	00		 call	 DWORD PTR __imp_?GetHeight@ioWnd@@QBEHXZ
  00015	85 c0		 test	 eax, eax
  00017	74 5a		 je	 SHORT $LN1@OnRender@6
$LN2@OnRender@6:
  00019	57		 push	 edi

; 781  : 		return;
; 782  : 	ioWnd::OnRender();

  0001a	8b ce		 mov	 ecx, esi
  0001c	ff 15 00 00 00
	00		 call	 DWORD PTR __imp_?OnRender@ioWnd@@MAEXXZ

; 783  : 	int iXPos = GetDerivedPosX() + 7;

  00022	8b ce		 mov	 ecx, esi
  00024	ff 15 00 00 00
	00		 call	 DWORD PTR __imp_?GetDerivedPosX@ioWnd@@QBEHXZ

; 784  : 	int iYPos = GetDerivedPosY() + 6;

  0002a	8b ce		 mov	 ecx, esi
  0002c	8d 78 07	 lea	 edi, DWORD PTR [eax+7]
  0002f	ff 15 00 00 00
	00		 call	 DWORD PTR __imp_?GetDerivedPosY@ioWnd@@QBEHXZ

; 785  : 	if( !m_szPresentName.IsEmpty() )

  00035	8d 8e 6c 01 00
	00		 lea	 ecx, DWORD PTR [esi+364]
  0003b	8b 11		 mov	 edx, DWORD PTR [ecx]
  0003d	83 c0 06	 add	 eax, 6
  00040	3b 51 04	 cmp	 edx, DWORD PTR [ecx+4]
  00043	74 2d		 je	 SHORT $LN9@OnRender@6

; 786  : 		m_szPresentName.PrintFullText( iXPos, iYPos, TAT_LEFT );

  00045	68 ff 00 00 00	 push	 255			; 000000ffH
  0004a	6a 00		 push	 0
  0004c	51		 push	 ecx
  0004d	0f 57 c0	 xorps	 xmm0, xmm0
  00050	51		 push	 ecx
  00051	f3 0f 2a c0	 cvtsi2ss xmm0, eax
  00055	f3 0f 11 44 24
	04		 movss	 DWORD PTR [esp+4], xmm0
  0005b	0f 57 c0	 xorps	 xmm0, xmm0
  0005e	f3 0f 2a c7	 cvtsi2ss xmm0, edi
  00062	8d 8e 60 01 00
	00		 lea	 ecx, DWORD PTR [esi+352]
  00068	f3 0f 11 04 24	 movss	 DWORD PTR [esp], xmm0
  0006d	e8 00 00 00 00	 call	 ?PrintFullText@ioComplexStringPrinter@@QAEXMMW4TextAlignType@@E@Z ; ioComplexStringPrinter::PrintFullText
$LN9@OnRender@6:
  00072	5f		 pop	 edi
$LN1@OnRender@6:
  00073	5e		 pop	 esi

; 787  : }

  00074	c3		 ret	 0
?OnRender@GuildEnableRewardToolTip@@MAEXXZ ENDP		; GuildEnableRewardToolTip::OnRender
_TEXT	ENDS
PUBLIC	?begin@?$vector@VGashaponPresent@@V?$allocator@VGashaponPresent@@@std@@@std@@QAE?AV?$_Vector_iterator@V?$_Vector_val@VGashaponPresent@@V?$allocator@VGashaponPresent@@@std@@@std@@@2@XZ ; std::vector<GashaponPresent,std::allocator<GashaponPresent> >::begin
; Function compile flags: /Ogsp
; File c:\program files (x86)\microsoft visual studio 10.0\vc\include\vector
;	COMDAT ?begin@?$vector@VGashaponPresent@@V?$allocator@VGashaponPresent@@@std@@@std@@QAE?AV?$_Vector_iterator@V?$_Vector_val@VGashaponPresent@@V?$allocator@VGashaponPresent@@@std@@@std@@@2@XZ
_TEXT	SEGMENT
___$ReturnUdt$ = 8					; size = 4
?begin@?$vector@VGashaponPresent@@V?$allocator@VGashaponPresent@@@std@@@std@@QAE?AV?$_Vector_iterator@V?$_Vector_val@VGashaponPresent@@V?$allocator@VGashaponPresent@@@std@@@std@@@2@XZ PROC ; std::vector<GashaponPresent,std::allocator<GashaponPresent> >::begin, COMDAT
; _this$ = ecx

; 781  : 		{	// return iterator for beginning of mutable sequence

  00000	55		 push	 ebp
  00001	8b ec		 mov	 ebp, esp

; 782  : 		return (iterator(this->_Myfirst, this));

  00003	8b 09		 mov	 ecx, DWORD PTR [ecx]
  00005	8b 45 08	 mov	 eax, DWORD PTR ___$ReturnUdt$[ebp]
  00008	89 08		 mov	 DWORD PTR [eax], ecx

; 783  : 		}

  0000a	5d		 pop	 ebp
  0000b	c2 04 00	 ret	 4
?begin@?$vector@VGashaponPresent@@V?$allocator@VGashaponPresent@@@std@@@std@@QAE?AV?$_Vector_iterator@V?$_Vector_val@VGashaponPresent@@V?$allocator@VGashaponPresent@@@std@@@std@@@2@XZ ENDP ; std::vector<GashaponPresent,std::allocator<GashaponPresent> >::begin
_TEXT	ENDS
PUBLIC	?end@?$vector@VGashaponPresent@@V?$allocator@VGashaponPresent@@@std@@@std@@QAE?AV?$_Vector_iterator@V?$_Vector_val@VGashaponPresent@@V?$allocator@VGashaponPresent@@@std@@@std@@@2@XZ ; std::vector<GashaponPresent,std::allocator<GashaponPresent> >::end
; Function compile flags: /Ogsp
;	COMDAT ?end@?$vector@VGashaponPresent@@V?$allocator@VGashaponPresent@@@std@@@std@@QAE?AV?$_Vector_iterator@V?$_Vector_val@VGashaponPresent@@V?$allocator@VGashaponPresent@@@std@@@std@@@2@XZ
_TEXT	SEGMENT
___$ReturnUdt$ = 8					; size = 4
?end@?$vector@VGashaponPresent@@V?$allocator@VGashaponPresent@@@std@@@std@@QAE?AV?$_Vector_iterator@V?$_Vector_val@VGashaponPresent@@V?$allocator@VGashaponPresent@@@std@@@std@@@2@XZ PROC ; std::vector<GashaponPresent,std::allocator<GashaponPresent> >::end, COMDAT
; _this$ = ecx

; 791  : 		{	// return iterator for end of mutable sequence

  00000	55		 push	 ebp
  00001	8b ec		 mov	 ebp, esp

; 792  : 		return (iterator(this->_Mylast, this));

  00003	8b 49 04	 mov	 ecx, DWORD PTR [ecx+4]
  00006	8b 45 08	 mov	 eax, DWORD PTR ___$ReturnUdt$[ebp]
  00009	89 08		 mov	 DWORD PTR [eax], ecx

; 793  : 		}

  0000b	5d		 pop	 ebp
  0000c	c2 04 00	 ret	 4
?end@?$vector@VGashaponPresent@@V?$allocator@VGashaponPresent@@@std@@@std@@QAE?AV?$_Vector_iterator@V?$_Vector_val@VGashaponPresent@@V?$allocator@VGashaponPresent@@@std@@@std@@@2@XZ ENDP ; std::vector<GashaponPresent,std::allocator<GashaponPresent> >::end
_TEXT	ENDS
PUBLIC	?_Buy@?$vector@VGashaponPresent@@V?$allocator@VGashaponPresent@@@std@@@std@@IAE_NI@Z ; std::vector<GashaponPresent,std::allocator<GashaponPresent> >::_Buy
; Function compile flags: /Ogsp
;	COMDAT ?_Buy@?$vector@VGashaponPresent@@V?$allocator@VGashaponPresent@@@std@@@std@@IAE_NI@Z
_TEXT	SEGMENT
__Capacity$ = 8						; size = 4
?_Buy@?$vector@VGashaponPresent@@V?$allocator@VGashaponPresent@@@std@@@std@@IAE_NI@Z PROC ; std::vector<GashaponPresent,std::allocator<GashaponPresent> >::_Buy, COMDAT
; _this$ = ecx

; 1250 : 		{	// allocate array with _Capacity elements

  00000	55		 push	 ebp
  00001	8b ec		 mov	 ebp, esp
  00003	56		 push	 esi

; 1251 : 		this->_Myfirst = 0;

  00004	33 c0		 xor	 eax, eax
  00006	57		 push	 edi

; 1252 : 		this->_Mylast = 0;
; 1253 : 		this->_Myend = 0;
; 1254 : 
; 1255 : 		if (_Capacity == 0)

  00007	8b 7d 08	 mov	 edi, DWORD PTR __Capacity$[ebp]
  0000a	8b f1		 mov	 esi, ecx
  0000c	89 06		 mov	 DWORD PTR [esi], eax
  0000e	89 46 04	 mov	 DWORD PTR [esi+4], eax
  00011	89 46 08	 mov	 DWORD PTR [esi+8], eax
  00014	3b f8		 cmp	 edi, eax
  00016	75 04		 jne	 SHORT $LN4@Buy

; 1256 : 			return (false);

  00018	32 c0		 xor	 al, al
  0001a	eb 2b		 jmp	 SHORT $LN5@Buy
$LN4@Buy:

; 1257 : 		else if (max_size() < _Capacity)

  0001c	81 ff cc cc cc
	0c		 cmp	 edi, 214748364		; 0cccccccH
  00022	76 0b		 jbe	 SHORT $LN2@Buy

; 1258 : 			_Xlen();	// result too long

  00024	68 00 00 00 00	 push	 OFFSET ??_C@_0BD@OLBABOEK@vector?$DMT?$DO?5too?5long?$AA@
  00029	ff 15 00 00 00
	00		 call	 DWORD PTR __imp_?_Xlength_error@std@@YAXPBD@Z
$LN19@Buy:
$LN2@Buy:

; 1259 : 		else
; 1260 : 			{	// nonempty array, allocate storage
; 1261 : 			this->_Myfirst = this->_Alval.allocate(_Capacity);

  0002f	50		 push	 eax
  00030	57		 push	 edi
  00031	e8 00 00 00 00	 call	 ??$_Allocate@VGashaponPresent@@@std@@YAPAVGashaponPresent@@IPAV1@@Z ; std::_Allocate<GashaponPresent>

; 1262 : 			this->_Mylast = this->_Myfirst;
; 1263 : 			this->_Myend = this->_Myfirst + _Capacity;

  00036	6b ff 14	 imul	 edi, 20			; 00000014H
  00039	03 f8		 add	 edi, eax
  0003b	59		 pop	 ecx
  0003c	89 06		 mov	 DWORD PTR [esi], eax
  0003e	89 46 04	 mov	 DWORD PTR [esi+4], eax
  00041	59		 pop	 ecx
  00042	89 7e 08	 mov	 DWORD PTR [esi+8], edi

; 1264 : 			}
; 1265 : 		return (true);

  00045	b0 01		 mov	 al, 1
$LN5@Buy:
  00047	5f		 pop	 edi
  00048	5e		 pop	 esi

; 1266 : 		}

  00049	5d		 pop	 ebp
  0004a	c2 04 00	 ret	 4
$LN18@Buy:
?_Buy@?$vector@VGashaponPresent@@V?$allocator@VGashaponPresent@@@std@@@std@@IAE_NI@Z ENDP ; std::vector<GashaponPresent,std::allocator<GashaponPresent> >::_Buy
_TEXT	ENDS
PUBLIC	?_Make_iter@?$vector@VGashaponPresent@@V?$allocator@VGashaponPresent@@@std@@@std@@QBE?AV?$_Vector_iterator@V?$_Vector_val@VGashaponPresent@@V?$allocator@VGashaponPresent@@@std@@@std@@@2@V?$_Vector_const_iterator@V?$_Vector_val@VGashaponPresent@@V?$allocator@VGashaponPresent@@@std@@@std@@@2@@Z ; std::vector<GashaponPresent,std::allocator<GashaponPresent> >::_Make_iter
; Function compile flags: /Ogsp
;	COMDAT ?_Make_iter@?$vector@VGashaponPresent@@V?$allocator@VGashaponPresent@@@std@@@std@@QBE?AV?$_Vector_iterator@V?$_Vector_val@VGashaponPresent@@V?$allocator@VGashaponPresent@@@std@@@std@@@2@V?$_Vector_const_iterator@V?$_Vector_val@VGashaponPresent@@V?$allocator@VGashaponPresent@@@std@@@std@@@2@@Z
_TEXT	SEGMENT
___$ReturnUdt$ = 8					; size = 4
__Where$ = 12						; size = 4
?_Make_iter@?$vector@VGashaponPresent@@V?$allocator@VGashaponPresent@@@std@@@std@@QBE?AV?$_Vector_iterator@V?$_Vector_val@VGashaponPresent@@V?$allocator@VGashaponPresent@@@std@@@std@@@2@V?$_Vector_const_iterator@V?$_Vector_val@VGashaponPresent@@V?$allocator@VGashaponPresent@@@std@@@std@@@2@@Z PROC ; std::vector<GashaponPresent,std::allocator<GashaponPresent> >::_Make_iter, COMDAT
; _this$ = ecx

; 801  : 		{	// make iterator from const_iterator

  00000	55		 push	 ebp
  00001	8b ec		 mov	 ebp, esp

; 802  : 		return (iterator(_Where._Ptr, this));

  00003	8b 45 08	 mov	 eax, DWORD PTR ___$ReturnUdt$[ebp]
  00006	8b 4d 0c	 mov	 ecx, DWORD PTR __Where$[ebp]
  00009	89 08		 mov	 DWORD PTR [eax], ecx

; 803  : 		}

  0000b	5d		 pop	 ebp
  0000c	c2 08 00	 ret	 8
?_Make_iter@?$vector@VGashaponPresent@@V?$allocator@VGashaponPresent@@@std@@@std@@QBE?AV?$_Vector_iterator@V?$_Vector_val@VGashaponPresent@@V?$allocator@VGashaponPresent@@@std@@@std@@@2@V?$_Vector_const_iterator@V?$_Vector_val@VGashaponPresent@@V?$allocator@VGashaponPresent@@@std@@@std@@@2@@Z ENDP ; std::vector<GashaponPresent,std::allocator<GashaponPresent> >::_Make_iter
_TEXT	ENDS
PUBLIC	??9?$_Vector_const_iterator@V?$_Vector_val@VGashaponPresent@@V?$allocator@VGashaponPresent@@@std@@@std@@@std@@QBE_NABV01@@Z ; std::_Vector_const_iterator<std::_Vector_val<GashaponPresent,std::allocator<GashaponPresent> > >::operator!=
; Function compile flags: /Ogsp
;	COMDAT ??9?$_Vector_const_iterator@V?$_Vector_val@VGashaponPresent@@V?$allocator@VGashaponPresent@@@std@@@std@@@std@@QBE_NABV01@@Z
_TEXT	SEGMENT
__Right$ = 8						; size = 4
??9?$_Vector_const_iterator@V?$_Vector_val@VGashaponPresent@@V?$allocator@VGashaponPresent@@@std@@@std@@@std@@QBE_NABV01@@Z PROC ; std::_Vector_const_iterator<std::_Vector_val<GashaponPresent,std::allocator<GashaponPresent> > >::operator!=, COMDAT
; _this$ = ecx

; 207  : 		{	// test for iterator inequality

  00000	55		 push	 ebp
  00001	8b ec		 mov	 ebp, esp

; 208  : 		return (!(*this == _Right));

  00003	8b 01		 mov	 eax, DWORD PTR [ecx]
  00005	8b 55 08	 mov	 edx, DWORD PTR __Right$[ebp]
  00008	33 c9		 xor	 ecx, ecx
  0000a	3b 02		 cmp	 eax, DWORD PTR [edx]
  0000c	0f 95 c0	 setne	 al

; 209  : 		}

  0000f	5d		 pop	 ebp
  00010	c2 04 00	 ret	 4
??9?$_Vector_const_iterator@V?$_Vector_val@VGashaponPresent@@V?$allocator@VGashaponPresent@@@std@@@std@@@std@@QBE_NABV01@@Z ENDP ; std::_Vector_const_iterator<std::_Vector_val<GashaponPresent,std::allocator<GashaponPresent> > >::operator!=
_TEXT	ENDS
PUBLIC	??$_Move@PAVGashaponPresent@@PAV1@@std@@YAPAVGashaponPresent@@PAV1@00@Z ; std::_Move<GashaponPresent *,GashaponPresent *>
; Function compile flags: /Ogsp
; File c:\program files (x86)\microsoft visual studio 10.0\vc\include\xutility
;	COMDAT ??$_Move@PAVGashaponPresent@@PAV1@@std@@YAPAVGashaponPresent@@PAV1@00@Z
_TEXT	SEGMENT
__Cat$513466 = -4					; size = 1
__First$ = 8						; size = 4
__Last$ = 12						; size = 4
__Dest$ = 16						; size = 4
??$_Move@PAVGashaponPresent@@PAV1@@std@@YAPAVGashaponPresent@@PAV1@00@Z PROC ; std::_Move<GashaponPresent *,GashaponPresent *>, COMDAT

; 2533 : 	{	// move [_First, _Last) to [_Dest, ...), unchecked

  00000	55		 push	 ebp
  00001	8b ec		 mov	 ebp, esp
  00003	51		 push	 ecx

; 2534 : 	return (_Move(_First, _Last,
; 2535 : 		_Dest, _Ptr_cat(_First, _Dest)));

  00004	ff 75 fc	 push	 DWORD PTR __Cat$513466[ebp]
  00007	ff 75 10	 push	 DWORD PTR __Dest$[ebp]
  0000a	ff 75 0c	 push	 DWORD PTR __Last$[ebp]
  0000d	ff 75 08	 push	 DWORD PTR __First$[ebp]
  00010	e8 00 00 00 00	 call	 ??$_Move@PAVGashaponPresent@@PAV1@@std@@YAPAVGashaponPresent@@PAV1@00U_Nonscalar_ptr_iterator_tag@0@@Z ; std::_Move<GashaponPresent *,GashaponPresent *>
  00015	83 c4 10	 add	 esp, 16			; 00000010H

; 2536 : 	}

  00018	c9		 leave
  00019	c3		 ret	 0
??$_Move@PAVGashaponPresent@@PAV1@@std@@YAPAVGashaponPresent@@PAV1@00@Z ENDP ; std::_Move<GashaponPresent *,GashaponPresent *>
_TEXT	ENDS
PUBLIC	??0?$vector@VGashaponPresent@@V?$allocator@VGashaponPresent@@@std@@@std@@QAE@XZ ; std::vector<GashaponPresent,std::allocator<GashaponPresent> >::vector<GashaponPresent,std::allocator<GashaponPresent> >
; Function compile flags: /Ogsp
; File c:\program files (x86)\microsoft visual studio 10.0\vc\include\vector
;	COMDAT ??0?$vector@VGashaponPresent@@V?$allocator@VGashaponPresent@@@std@@@std@@QAE@XZ
_TEXT	SEGMENT
??0?$vector@VGashaponPresent@@V?$allocator@VGashaponPresent@@@std@@@std@@QAE@XZ PROC ; std::vector<GashaponPresent,std::allocator<GashaponPresent> >::vector<GashaponPresent,std::allocator<GashaponPresent> >, COMDAT
; _this$ = ecx

; 507  : 		{	// construct empty vector

  00000	8b c1		 mov	 eax, ecx
  00002	33 c9		 xor	 ecx, ecx
  00004	89 08		 mov	 DWORD PTR [eax], ecx
  00006	89 48 04	 mov	 DWORD PTR [eax+4], ecx
  00009	89 48 08	 mov	 DWORD PTR [eax+8], ecx

; 508  : 		}

  0000c	c3		 ret	 0
??0?$vector@VGashaponPresent@@V?$allocator@VGashaponPresent@@@std@@@std@@QAE@XZ ENDP ; std::vector<GashaponPresent,std::allocator<GashaponPresent> >::vector<GashaponPresent,std::allocator<GashaponPresent> >
_TEXT	ENDS
PUBLIC	?destroy@?$allocator@VGashaponPresent@@@std@@QAEXPAVGashaponPresent@@@Z ; std::allocator<GashaponPresent>::destroy
; Function compile flags: /Ogsp
; File c:\program files (x86)\microsoft visual studio 10.0\vc\include\xmemory
;	COMDAT ?destroy@?$allocator@VGashaponPresent@@@std@@QAEXPAVGashaponPresent@@@Z
_TEXT	SEGMENT
__Ptr$ = 8						; size = 4
?destroy@?$allocator@VGashaponPresent@@@std@@QAEXPAVGashaponPresent@@@Z PROC ; std::allocator<GashaponPresent>::destroy, COMDAT
; _this$ = ecx

; 212  : 		{	// destroy object at _Ptr

  00000	55		 push	 ebp
  00001	8b ec		 mov	 ebp, esp

; 213  : 		_Destroy(_Ptr);

  00003	8b 4d 08	 mov	 ecx, DWORD PTR __Ptr$[ebp]
  00006	e8 00 00 00 00	 call	 ??1GashaponPresent@@QAE@XZ ; GashaponPresent::~GashaponPresent

; 214  : 		}

  0000b	5d		 pop	 ebp
  0000c	c2 04 00	 ret	 4
?destroy@?$allocator@VGashaponPresent@@@std@@QAEXPAVGashaponPresent@@@Z ENDP ; std::allocator<GashaponPresent>::destroy
_TEXT	ENDS
PUBLIC	??$_Dest_val@V?$allocator@VGashaponPresent@@@std@@VGashaponPresent@@@std@@YAXAAV?$allocator@VGashaponPresent@@@0@PAVGashaponPresent@@@Z ; std::_Dest_val<std::allocator<GashaponPresent>,GashaponPresent>
; Function compile flags: /Ogsp
;	COMDAT ??$_Dest_val@V?$allocator@VGashaponPresent@@@std@@VGashaponPresent@@@std@@YAXAAV?$allocator@VGashaponPresent@@@0@PAVGashaponPresent@@@Z
_TEXT	SEGMENT
__Alval$ = 8						; size = 4
__Pdest$ = 12						; size = 4
??$_Dest_val@V?$allocator@VGashaponPresent@@@std@@VGashaponPresent@@@std@@YAXAAV?$allocator@VGashaponPresent@@@0@PAVGashaponPresent@@@Z PROC ; std::_Dest_val<std::allocator<GashaponPresent>,GashaponPresent>, COMDAT

; 286  : 	{	// destroy using allocator

  00000	55		 push	 ebp
  00001	8b ec		 mov	 ebp, esp

; 287  : 	_Alval.destroy(_Pdest);

  00003	8b 4d 0c	 mov	 ecx, DWORD PTR __Pdest$[ebp]

; 288  : 	}

  00006	5d		 pop	 ebp

; 287  : 	_Alval.destroy(_Pdest);

  00007	e9 00 00 00 00	 jmp	 ??1GashaponPresent@@QAE@XZ ; GashaponPresent::~GashaponPresent
??$_Dest_val@V?$allocator@VGashaponPresent@@@std@@VGashaponPresent@@@std@@YAXAAV?$allocator@VGashaponPresent@@@0@PAVGashaponPresent@@@Z ENDP ; std::_Dest_val<std::allocator<GashaponPresent>,GashaponPresent>
_TEXT	ENDS
PUBLIC	??$_Uninit_copy@PAVGashaponPresent@@PAV1@V?$allocator@VGashaponPresent@@@std@@@std@@YAPAVGashaponPresent@@PAV1@00AAV?$allocator@VGashaponPresent@@@0@U_Nonscalar_ptr_iterator_tag@0@@Z ; std::_Uninit_copy<GashaponPresent *,GashaponPresent *,std::allocator<GashaponPresent> >
; Function compile flags: /Ogsp
; File c:\program files (x86)\microsoft visual studio 10.0\vc\include\memory
;	COMDAT ??$_Uninit_copy@PAVGashaponPresent@@PAV1@V?$allocator@VGashaponPresent@@@std@@@std@@YAPAVGashaponPresent@@PAV1@00AAV?$allocator@VGashaponPresent@@@0@U_Nonscalar_ptr_iterator_tag@0@@Z
_TEXT	SEGMENT
__First$ = 8						; size = 4
__Last$ = 12						; size = 4
__Dest$ = 16						; size = 4
__Al$ = 20						; size = 4
___formal$ = 24						; size = 1
??$_Uninit_copy@PAVGashaponPresent@@PAV1@V?$allocator@VGashaponPresent@@@std@@@std@@YAPAVGashaponPresent@@PAV1@00AAV?$allocator@VGashaponPresent@@@0@U_Nonscalar_ptr_iterator_tag@0@@Z PROC ; std::_Uninit_copy<GashaponPresent *,GashaponPresent *,std::allocator<GashaponPresent> >, COMDAT

; 369  : 	{	// copy [_First, _Last) to raw _Dest, using _Al, arbitrary type

  00000	55		 push	 ebp
  00001	8b ec		 mov	 ebp, esp
  00003	56		 push	 esi

; 370  : 	_DEBUG_RANGE(_First, _Last);
; 371  : 	_DEBUG_POINTER(_Dest);
; 372  : 	_FwdIt _Next = _Dest;
; 373  : 
; 374  : 	_TRY_BEGIN
; 375  : 	for (; _First != _Last; ++_Dest, ++_First)

  00004	8b 75 08	 mov	 esi, DWORD PTR __First$[ebp]
  00007	eb 16		 jmp	 SHORT $LN27@Uninit_cop
$LL6@Uninit_cop:

; 376  : 		_Cons_val(_Al, _Dest, *_First);

  00009	56		 push	 esi
  0000a	ff 75 10	 push	 DWORD PTR __Dest$[ebp]
  0000d	ff 75 14	 push	 DWORD PTR __Al$[ebp]
  00010	e8 00 00 00 00	 call	 ??$_Cons_val@V?$allocator@VGashaponPresent@@@std@@VGashaponPresent@@AAV3@@std@@YAXAAV?$allocator@VGashaponPresent@@@0@PAVGashaponPresent@@AAV2@@Z ; std::_Cons_val<std::allocator<GashaponPresent>,GashaponPresent,GashaponPresent &>
  00015	83 45 10 14	 add	 DWORD PTR __Dest$[ebp], 20 ; 00000014H
  00019	83 c4 0c	 add	 esp, 12			; 0000000cH
  0001c	83 c6 14	 add	 esi, 20			; 00000014H
$LN27@Uninit_cop:

; 370  : 	_DEBUG_RANGE(_First, _Last);
; 371  : 	_DEBUG_POINTER(_Dest);
; 372  : 	_FwdIt _Next = _Dest;
; 373  : 
; 374  : 	_TRY_BEGIN
; 375  : 	for (; _First != _Last; ++_Dest, ++_First)

  0001f	3b 75 0c	 cmp	 esi, DWORD PTR __Last$[ebp]
  00022	75 e5		 jne	 SHORT $LL6@Uninit_cop

; 377  : 	_CATCH_ALL
; 378  : 	for (; _Next != _Dest; ++_Next)
; 379  : 		_Dest_val(_Al, _Next);
; 380  : 	_RERAISE;
; 381  : 	_CATCH_END
; 382  : 	return (_Dest);

  00024	8b 45 10	 mov	 eax, DWORD PTR __Dest$[ebp]
  00027	5e		 pop	 esi

; 383  : 	}

  00028	5d		 pop	 ebp
  00029	c3		 ret	 0
??$_Uninit_copy@PAVGashaponPresent@@PAV1@V?$allocator@VGashaponPresent@@@std@@@std@@YAPAVGashaponPresent@@PAV1@00AAV?$allocator@VGashaponPresent@@@0@U_Nonscalar_ptr_iterator_tag@0@@Z ENDP ; std::_Uninit_copy<GashaponPresent *,GashaponPresent *,std::allocator<GashaponPresent> >
_TEXT	ENDS
PUBLIC	??$_Destroy_range@V?$allocator@VGashaponPresent@@@std@@@std@@YAXPAVGashaponPresent@@0AAV?$allocator@VGashaponPresent@@@0@U_Nonscalar_ptr_iterator_tag@0@@Z ; std::_Destroy_range<std::allocator<GashaponPresent> >
; Function compile flags: /Ogsp
; File c:\program files (x86)\microsoft visual studio 10.0\vc\include\xmemory
;	COMDAT ??$_Destroy_range@V?$allocator@VGashaponPresent@@@std@@@std@@YAXPAVGashaponPresent@@0AAV?$allocator@VGashaponPresent@@@0@U_Nonscalar_ptr_iterator_tag@0@@Z
_TEXT	SEGMENT
__First$ = 8						; size = 4
__Last$ = 12						; size = 4
__Al$ = 16						; size = 4
___formal$ = 20						; size = 1
??$_Destroy_range@V?$allocator@VGashaponPresent@@@std@@@std@@YAXPAVGashaponPresent@@0AAV?$allocator@VGashaponPresent@@@0@U_Nonscalar_ptr_iterator_tag@0@@Z PROC ; std::_Destroy_range<std::allocator<GashaponPresent> >, COMDAT

; 95   : 	{	// destroy [_First, _Last), arbitrary type

  00000	55		 push	 ebp
  00001	8b ec		 mov	 ebp, esp
  00003	56		 push	 esi

; 96   : 	for (; _First != _Last; ++_First)

  00004	8b 75 08	 mov	 esi, DWORD PTR __First$[ebp]
  00007	eb 0a		 jmp	 SHORT $LN17@Destroy_ra
$LL3@Destroy_ra:

; 97   : 		_Dest_val(_Al, _First);

  00009	8b ce		 mov	 ecx, esi
  0000b	e8 00 00 00 00	 call	 ??1GashaponPresent@@QAE@XZ ; GashaponPresent::~GashaponPresent
  00010	83 c6 14	 add	 esi, 20			; 00000014H
$LN17@Destroy_ra:

; 96   : 	for (; _First != _Last; ++_First)

  00013	3b 75 0c	 cmp	 esi, DWORD PTR __Last$[ebp]
  00016	75 f1		 jne	 SHORT $LL3@Destroy_ra
  00018	5e		 pop	 esi

; 98   : 	}

  00019	5d		 pop	 ebp
  0001a	c3		 ret	 0
??$_Destroy_range@V?$allocator@VGashaponPresent@@@std@@@std@@YAXPAVGashaponPresent@@0AAV?$allocator@VGashaponPresent@@@0@U_Nonscalar_ptr_iterator_tag@0@@Z ENDP ; std::_Destroy_range<std::allocator<GashaponPresent> >
_TEXT	ENDS
PUBLIC	??$_Uninitialized_copy@PAVGashaponPresent@@PAV1@V?$allocator@VGashaponPresent@@@std@@@std@@YAPAVGashaponPresent@@PAV1@00AAV?$allocator@VGashaponPresent@@@0@@Z ; std::_Uninitialized_copy<GashaponPresent *,GashaponPresent *,std::allocator<GashaponPresent> >
; Function compile flags: /Ogsp
; File c:\program files (x86)\microsoft visual studio 10.0\vc\include\memory
;	COMDAT ??$_Uninitialized_copy@PAVGashaponPresent@@PAV1@V?$allocator@VGashaponPresent@@@std@@@std@@YAPAVGashaponPresent@@PAV1@00AAV?$allocator@VGashaponPresent@@@0@@Z
_TEXT	SEGMENT
__Cat$513598 = -4					; size = 1
__First$ = 8						; size = 4
__Last$ = 12						; size = 4
__Dest$ = 16						; size = 4
__Al$ = 20						; size = 4
??$_Uninitialized_copy@PAVGashaponPresent@@PAV1@V?$allocator@VGashaponPresent@@@std@@@std@@YAPAVGashaponPresent@@PAV1@00AAV?$allocator@VGashaponPresent@@@0@@Z PROC ; std::_Uninitialized_copy<GashaponPresent *,GashaponPresent *,std::allocator<GashaponPresent> >, COMDAT

; 412  : 	{	// copy [_First, _Last) to raw _Dest, using _Al

  00000	55		 push	 ebp
  00001	8b ec		 mov	 ebp, esp
  00003	51		 push	 ecx

; 413  : 	return (_Uninit_copy(_First, _Last, _Dest, _Al,
; 414  : 		_Ptr_cat(_First, _Dest)));

  00004	ff 75 fc	 push	 DWORD PTR __Cat$513598[ebp]
  00007	ff 75 14	 push	 DWORD PTR __Al$[ebp]
  0000a	ff 75 10	 push	 DWORD PTR __Dest$[ebp]
  0000d	ff 75 0c	 push	 DWORD PTR __Last$[ebp]
  00010	ff 75 08	 push	 DWORD PTR __First$[ebp]
  00013	e8 00 00 00 00	 call	 ??$_Uninit_copy@PAVGashaponPresent@@PAV1@V?$allocator@VGashaponPresent@@@std@@@std@@YAPAVGashaponPresent@@PAV1@00AAV?$allocator@VGashaponPresent@@@0@U_Nonscalar_ptr_iterator_tag@0@@Z ; std::_Uninit_copy<GashaponPresent *,GashaponPresent *,std::allocator<GashaponPresent> >
  00018	83 c4 14	 add	 esp, 20			; 00000014H

; 415  : 	}

  0001b	c9		 leave
  0001c	c3		 ret	 0
??$_Uninitialized_copy@PAVGashaponPresent@@PAV1@V?$allocator@VGashaponPresent@@@std@@@std@@YAPAVGashaponPresent@@PAV1@00AAV?$allocator@VGashaponPresent@@@0@@Z ENDP ; std::_Uninitialized_copy<GashaponPresent *,GashaponPresent *,std::allocator<GashaponPresent> >
_TEXT	ENDS
PUBLIC	??$_Destroy_range@V?$allocator@VGashaponPresent@@@std@@@std@@YAXPAVGashaponPresent@@0AAV?$allocator@VGashaponPresent@@@0@@Z ; std::_Destroy_range<std::allocator<GashaponPresent> >
; Function compile flags: /Ogsp
; File c:\program files (x86)\microsoft visual studio 10.0\vc\include\xmemory
;	COMDAT ??$_Destroy_range@V?$allocator@VGashaponPresent@@@std@@@std@@YAXPAVGashaponPresent@@0AAV?$allocator@VGashaponPresent@@@0@@Z
_TEXT	SEGMENT
__First$ = 8						; size = 4
__Last$ = 12						; size = 4
__Al$ = 16						; size = 4
??$_Destroy_range@V?$allocator@VGashaponPresent@@@std@@@std@@YAXPAVGashaponPresent@@0AAV?$allocator@VGashaponPresent@@@0@@Z PROC ; std::_Destroy_range<std::allocator<GashaponPresent> >, COMDAT

; 87   : 	{	// destroy [_First, _Last)

  00000	55		 push	 ebp
  00001	8b ec		 mov	 ebp, esp
  00003	56		 push	 esi

; 88   : 	_Destroy_range(_First, _Last, _Al, _Ptr_cat(_First, _Last));

  00004	8b 75 08	 mov	 esi, DWORD PTR __First$[ebp]
  00007	eb 0a		 jmp	 SHORT $LN21@Destroy_ra@2
$LL7@Destroy_ra@2:
  00009	8b ce		 mov	 ecx, esi
  0000b	e8 00 00 00 00	 call	 ??1GashaponPresent@@QAE@XZ ; GashaponPresent::~GashaponPresent
  00010	83 c6 14	 add	 esi, 20			; 00000014H
$LN21@Destroy_ra@2:
  00013	3b 75 0c	 cmp	 esi, DWORD PTR __Last$[ebp]
  00016	75 f1		 jne	 SHORT $LL7@Destroy_ra@2
  00018	5e		 pop	 esi

; 89   : 	}

  00019	5d		 pop	 ebp
  0001a	c3		 ret	 0
??$_Destroy_range@V?$allocator@VGashaponPresent@@@std@@@std@@YAXPAVGashaponPresent@@0AAV?$allocator@VGashaponPresent@@@0@@Z ENDP ; std::_Destroy_range<std::allocator<GashaponPresent> >
_TEXT	ENDS
PUBLIC	??$_Ucopy@PAVGashaponPresent@@@?$vector@VGashaponPresent@@V?$allocator@VGashaponPresent@@@std@@@std@@IAEPAVGashaponPresent@@PAV2@00@Z ; std::vector<GashaponPresent,std::allocator<GashaponPresent> >::_Ucopy<GashaponPresent *>
; Function compile flags: /Ogsp
; File c:\program files (x86)\microsoft visual studio 10.0\vc\include\vector
;	COMDAT ??$_Ucopy@PAVGashaponPresent@@@?$vector@VGashaponPresent@@V?$allocator@VGashaponPresent@@@std@@@std@@IAEPAVGashaponPresent@@PAV2@00@Z
_TEXT	SEGMENT
__First$ = 8						; size = 4
__Last$ = 12						; size = 4
__Cat$513666 = 16					; size = 1
__Ptr$ = 16						; size = 4
??$_Ucopy@PAVGashaponPresent@@@?$vector@VGashaponPresent@@V?$allocator@VGashaponPresent@@@std@@@std@@IAEPAVGashaponPresent@@PAV2@00@Z PROC ; std::vector<GashaponPresent,std::allocator<GashaponPresent> >::_Ucopy<GashaponPresent *>, COMDAT
; _this$ = ecx

; 1315 : 		pointer _Ucopy(_Iter _First, _Iter _Last, pointer _Ptr)

  00000	55		 push	 ebp
  00001	8b ec		 mov	 ebp, esp

; 1316 : 		{	// copy initializing [_First, _Last), using allocator
; 1317 : 		return (_Uninitialized_copy(_First, _Last,
; 1318 : 			_Ptr, this->_Alval));

  00003	ff 75 10	 push	 DWORD PTR __Cat$513666[ebp]
  00006	83 c1 0c	 add	 ecx, 12			; 0000000cH
  00009	51		 push	 ecx
  0000a	ff 75 10	 push	 DWORD PTR __Ptr$[ebp]
  0000d	ff 75 0c	 push	 DWORD PTR __Last$[ebp]
  00010	ff 75 08	 push	 DWORD PTR __First$[ebp]
  00013	e8 00 00 00 00	 call	 ??$_Uninit_copy@PAVGashaponPresent@@PAV1@V?$allocator@VGashaponPresent@@@std@@@std@@YAPAVGashaponPresent@@PAV1@00AAV?$allocator@VGashaponPresent@@@0@U_Nonscalar_ptr_iterator_tag@0@@Z ; std::_Uninit_copy<GashaponPresent *,GashaponPresent *,std::allocator<GashaponPresent> >
  00018	83 c4 14	 add	 esp, 20			; 00000014H

; 1319 : 		}

  0001b	5d		 pop	 ebp
  0001c	c2 0c 00	 ret	 12			; 0000000cH
??$_Ucopy@PAVGashaponPresent@@@?$vector@VGashaponPresent@@V?$allocator@VGashaponPresent@@@std@@@std@@IAEPAVGashaponPresent@@PAV2@00@Z ENDP ; std::vector<GashaponPresent,std::allocator<GashaponPresent> >::_Ucopy<GashaponPresent *>
_TEXT	ENDS
PUBLIC	?_Destroy@?$vector@VGashaponPresent@@V?$allocator@VGashaponPresent@@@std@@@std@@IAEXPAVGashaponPresent@@0@Z ; std::vector<GashaponPresent,std::allocator<GashaponPresent> >::_Destroy
; Function compile flags: /Ogsp
;	COMDAT ?_Destroy@?$vector@VGashaponPresent@@V?$allocator@VGashaponPresent@@@std@@@std@@IAEXPAVGashaponPresent@@0@Z
_TEXT	SEGMENT
__First$ = 8						; size = 4
__Last$ = 12						; size = 4
?_Destroy@?$vector@VGashaponPresent@@V?$allocator@VGashaponPresent@@@std@@@std@@IAEXPAVGashaponPresent@@0@Z PROC ; std::vector<GashaponPresent,std::allocator<GashaponPresent> >::_Destroy, COMDAT
; _this$ = ecx

; 1269 : 		{	// destroy [_First, _Last) using allocator

  00000	55		 push	 ebp
  00001	8b ec		 mov	 ebp, esp
  00003	56		 push	 esi

; 1270 : 		_Destroy_range(_First, _Last, this->_Alval);

  00004	8b 75 08	 mov	 esi, DWORD PTR __First$[ebp]
  00007	eb 0a		 jmp	 SHORT $LN23@Destroy
$LL9@Destroy:
  00009	8b ce		 mov	 ecx, esi
  0000b	e8 00 00 00 00	 call	 ??1GashaponPresent@@QAE@XZ ; GashaponPresent::~GashaponPresent
  00010	83 c6 14	 add	 esi, 20			; 00000014H
$LN23@Destroy:
  00013	3b 75 0c	 cmp	 esi, DWORD PTR __Last$[ebp]
  00016	75 f1		 jne	 SHORT $LL9@Destroy
  00018	5e		 pop	 esi

; 1271 : 		}

  00019	5d		 pop	 ebp
  0001a	c2 08 00	 ret	 8
?_Destroy@?$vector@VGashaponPresent@@V?$allocator@VGashaponPresent@@@std@@@std@@IAEXPAVGashaponPresent@@0@Z ENDP ; std::vector<GashaponPresent,std::allocator<GashaponPresent> >::_Destroy
_TEXT	ENDS
PUBLIC	?erase@?$vector@VGashaponPresent@@V?$allocator@VGashaponPresent@@@std@@@std@@QAE?AV?$_Vector_iterator@V?$_Vector_val@VGashaponPresent@@V?$allocator@VGashaponPresent@@@std@@@std@@@2@V?$_Vector_const_iterator@V?$_Vector_val@VGashaponPresent@@V?$allocator@VGashaponPresent@@@std@@@std@@@2@0@Z ; std::vector<GashaponPresent,std::allocator<GashaponPresent> >::erase
; Function compile flags: /Ogsp
;	COMDAT ?erase@?$vector@VGashaponPresent@@V?$allocator@VGashaponPresent@@@std@@@std@@QAE?AV?$_Vector_iterator@V?$_Vector_val@VGashaponPresent@@V?$allocator@VGashaponPresent@@@std@@@std@@@2@V?$_Vector_const_iterator@V?$_Vector_val@VGashaponPresent@@V?$allocator@VGashaponPresent@@@std@@@std@@@2@0@Z
_TEXT	SEGMENT
$T513873 = -4						; size = 4
___$ReturnUdt$ = 8					; size = 4
__First_arg$ = 12					; size = 4
__Cat$513818 = 16					; size = 1
__Last_arg$ = 16					; size = 4
?erase@?$vector@VGashaponPresent@@V?$allocator@VGashaponPresent@@@std@@@std@@QAE?AV?$_Vector_iterator@V?$_Vector_val@VGashaponPresent@@V?$allocator@VGashaponPresent@@@std@@@std@@@2@V?$_Vector_const_iterator@V?$_Vector_val@VGashaponPresent@@V?$allocator@VGashaponPresent@@@std@@@std@@@2@0@Z PROC ; std::vector<GashaponPresent,std::allocator<GashaponPresent> >::erase, COMDAT
; _this$ = ecx

; 1190 : 		{	// erase [_First, _Last)

  00000	55		 push	 ebp
  00001	8b ec		 mov	 ebp, esp
  00003	51		 push	 ecx

; 1191 : 		iterator _First = _Make_iter(_First_arg);

  00004	8b 45 08	 mov	 eax, DWORD PTR ___$ReturnUdt$[ebp]
  00007	56		 push	 esi
  00008	8b f1		 mov	 esi, ecx
  0000a	8b 4d 0c	 mov	 ecx, DWORD PTR __First_arg$[ebp]
  0000d	89 08		 mov	 DWORD PTR [eax], ecx

; 1192 : 		iterator _Last = _Make_iter(_Last_arg);
; 1193 : 
; 1194 : 		if (_First != _Last)

  0000f	3b 4d 10	 cmp	 ecx, DWORD PTR __Last_arg$[ebp]
  00012	74 37		 je	 SHORT $LN1@erase

; 1195 : 			{	// worth doing, copy down over hole
; 1196 :  #if _ITERATOR_DEBUG_LEVEL == 2
; 1197 : 			if (_Last < _First || _VICONT(_First) != this
; 1198 : 				|| _VIPTR(_First) < this->_Myfirst
; 1199 : 				|| this->_Mylast < _VIPTR(_Last))
; 1200 : 				_DEBUG_ERROR("vector erase iterator outside range");
; 1201 : 			pointer _Ptr = _Move(_VIPTR(_Last), this->_Mylast,
; 1202 : 				_VIPTR(_First));
; 1203 : 			_Orphan_range(_VIPTR(_First), this->_Mylast);
; 1204 : 
; 1205 :  #else /* _ITERATOR_DEBUG_LEVEL == 2 */
; 1206 : 			pointer _Ptr = _Move(_VIPTR(_Last), this->_Mylast,
; 1207 : 				_VIPTR(_First));

  00014	8b 46 04	 mov	 eax, DWORD PTR [esi+4]
  00017	53		 push	 ebx
  00018	57		 push	 edi
  00019	ff 75 10	 push	 DWORD PTR __Cat$513818[ebp]
  0001c	51		 push	 ecx
  0001d	50		 push	 eax
  0001e	ff 75 10	 push	 DWORD PTR __Last_arg$[ebp]
  00021	e8 00 00 00 00	 call	 ??$_Move@PAVGashaponPresent@@PAV1@@std@@YAPAVGashaponPresent@@PAV1@00U_Nonscalar_ptr_iterator_tag@0@@Z ; std::_Move<GashaponPresent *,GashaponPresent *>

; 1208 :  #endif /* _ITERATOR_DEBUG_LEVEL == 2 */
; 1209 : 
; 1210 : 			_Destroy(_Ptr, this->_Mylast);

  00026	8b 7e 04	 mov	 edi, DWORD PTR [esi+4]
  00029	8b d8		 mov	 ebx, eax
  0002b	83 c4 10	 add	 esp, 16			; 00000010H
  0002e	89 5d fc	 mov	 DWORD PTR $T513873[ebp], ebx
  00031	3b df		 cmp	 ebx, edi
  00033	74 11		 je	 SHORT $LN36@erase
$LL52@erase:
  00035	8b 4d fc	 mov	 ecx, DWORD PTR $T513873[ebp]
  00038	e8 00 00 00 00	 call	 ??1GashaponPresent@@QAE@XZ ; GashaponPresent::~GashaponPresent
  0003d	83 45 fc 14	 add	 DWORD PTR $T513873[ebp], 20 ; 00000014H
  00041	39 7d fc	 cmp	 DWORD PTR $T513873[ebp], edi
  00044	75 ef		 jne	 SHORT $LL52@erase
$LN36@erase:

; 1211 : 			this->_Mylast = _Ptr;

  00046	5f		 pop	 edi
  00047	89 5e 04	 mov	 DWORD PTR [esi+4], ebx
  0004a	5b		 pop	 ebx
$LN1@erase:

; 1212 : 			}
; 1213 : 		return (_First);

  0004b	8b 45 08	 mov	 eax, DWORD PTR ___$ReturnUdt$[ebp]
  0004e	5e		 pop	 esi

; 1214 : 		}

  0004f	c9		 leave
  00050	c2 0c 00	 ret	 12			; 0000000cH
?erase@?$vector@VGashaponPresent@@V?$allocator@VGashaponPresent@@@std@@@std@@QAE?AV?$_Vector_iterator@V?$_Vector_val@VGashaponPresent@@V?$allocator@VGashaponPresent@@@std@@@std@@@2@V?$_Vector_const_iterator@V?$_Vector_val@VGashaponPresent@@V?$allocator@VGashaponPresent@@@std@@@std@@@2@0@Z ENDP ; std::vector<GashaponPresent,std::allocator<GashaponPresent> >::erase
_TEXT	ENDS
PUBLIC	?_Tidy@?$vector@VGashaponPresent@@V?$allocator@VGashaponPresent@@@std@@@std@@IAEXXZ ; std::vector<GashaponPresent,std::allocator<GashaponPresent> >::_Tidy
EXTRN	__imp_?_Orphan_all@_Container_base0@std@@QAEXXZ:PROC
; Function compile flags: /Ogsp
;	COMDAT ?_Tidy@?$vector@VGashaponPresent@@V?$allocator@VGashaponPresent@@@std@@@std@@IAEXXZ
_TEXT	SEGMENT
?_Tidy@?$vector@VGashaponPresent@@V?$allocator@VGashaponPresent@@@std@@@std@@IAEXXZ PROC ; std::vector<GashaponPresent,std::allocator<GashaponPresent> >::_Tidy, COMDAT
; _this$ = ecx

; 1301 : 		{	// free all storage

  00000	56		 push	 esi
  00001	8b f1		 mov	 esi, ecx

; 1302 : 		if (this->_Myfirst != 0)

  00003	83 3e 00	 cmp	 DWORD PTR [esi], 0
  00006	74 27		 je	 SHORT $LN24@Tidy

; 1303 : 			{	// something to free, destroy and deallocate it
; 1304 : 			this->_Orphan_all();

  00008	53		 push	 ebx
  00009	57		 push	 edi
  0000a	ff 15 00 00 00
	00		 call	 DWORD PTR __imp_?_Orphan_all@_Container_base0@std@@QAEXXZ

; 1305 : 			_Destroy(this->_Myfirst, this->_Mylast);

  00010	8b 5e 04	 mov	 ebx, DWORD PTR [esi+4]
  00013	8b 3e		 mov	 edi, DWORD PTR [esi]
  00015	eb 0a		 jmp	 SHORT $LN28@Tidy
$LL12@Tidy:
  00017	8b cf		 mov	 ecx, edi
  00019	e8 00 00 00 00	 call	 ??1GashaponPresent@@QAE@XZ ; GashaponPresent::~GashaponPresent
  0001e	83 c7 14	 add	 edi, 20			; 00000014H
$LN28@Tidy:
  00021	3b fb		 cmp	 edi, ebx
  00023	75 f2		 jne	 SHORT $LL12@Tidy

; 1306 : 			this->_Alval.deallocate(this->_Myfirst,
; 1307 : 				this->_Myend - this->_Myfirst);

  00025	ff 36		 push	 DWORD PTR [esi]
  00027	e8 00 00 00 00	 call	 ??3@YAXPAX@Z		; operator delete
  0002c	59		 pop	 ecx
  0002d	5f		 pop	 edi
  0002e	5b		 pop	 ebx
$LN24@Tidy:

; 1308 : 			}
; 1309 : 		this->_Myfirst = 0;

  0002f	33 c0		 xor	 eax, eax
  00031	89 06		 mov	 DWORD PTR [esi], eax

; 1310 : 		this->_Mylast = 0;

  00033	89 46 04	 mov	 DWORD PTR [esi+4], eax

; 1311 : 		this->_Myend = 0;

  00036	89 46 08	 mov	 DWORD PTR [esi+8], eax
  00039	5e		 pop	 esi

; 1312 : 		}

  0003a	c3		 ret	 0
?_Tidy@?$vector@VGashaponPresent@@V?$allocator@VGashaponPresent@@@std@@@std@@IAEXXZ ENDP ; std::vector<GashaponPresent,std::allocator<GashaponPresent> >::_Tidy
_TEXT	ENDS
PUBLIC	?clear@?$vector@VGashaponPresent@@V?$allocator@VGashaponPresent@@@std@@@std@@QAEXXZ ; std::vector<GashaponPresent,std::allocator<GashaponPresent> >::clear
; Function compile flags: /Ogsp
;	COMDAT ?clear@?$vector@VGashaponPresent@@V?$allocator@VGashaponPresent@@@std@@@std@@QAEXXZ
_TEXT	SEGMENT
$T514032 = -4						; size = 4
?clear@?$vector@VGashaponPresent@@V?$allocator@VGashaponPresent@@@std@@@std@@QAEXXZ PROC ; std::vector<GashaponPresent,std::allocator<GashaponPresent> >::clear, COMDAT
; _this$ = ecx

; 1217 : 		{	// erase all

  00000	55		 push	 ebp
  00001	8b ec		 mov	 ebp, esp
  00003	51		 push	 ecx

; 1218 : 		erase(begin(), end());

  00004	8b 41 04	 mov	 eax, DWORD PTR [ecx+4]
  00007	8b 11		 mov	 edx, DWORD PTR [ecx]
  00009	50		 push	 eax
  0000a	52		 push	 edx
  0000b	8d 45 fc	 lea	 eax, DWORD PTR $T514032[ebp]
  0000e	50		 push	 eax
  0000f	e8 00 00 00 00	 call	 ?erase@?$vector@VGashaponPresent@@V?$allocator@VGashaponPresent@@@std@@@std@@QAE?AV?$_Vector_iterator@V?$_Vector_val@VGashaponPresent@@V?$allocator@VGashaponPresent@@@std@@@std@@@2@V?$_Vector_const_iterator@V?$_Vector_val@VGashaponPresent@@V?$allocator@VGashaponPresent@@@std@@@std@@@2@0@Z ; std::vector<GashaponPresent,std::allocator<GashaponPresent> >::erase

; 1219 : 		}

  00014	c9		 leave
  00015	c3		 ret	 0
?clear@?$vector@VGashaponPresent@@V?$allocator@VGashaponPresent@@@std@@@std@@QAEXXZ ENDP ; std::vector<GashaponPresent,std::allocator<GashaponPresent> >::clear
_TEXT	ENDS
PUBLIC	??1?$vector@VGashaponPresent@@V?$allocator@VGashaponPresent@@@std@@@std@@QAE@XZ ; std::vector<GashaponPresent,std::allocator<GashaponPresent> >::~vector<GashaponPresent,std::allocator<GashaponPresent> >
; Function compile flags: /Ogsp
;	COMDAT ??1?$vector@VGashaponPresent@@V?$allocator@VGashaponPresent@@@std@@@std@@QAE@XZ
_TEXT	SEGMENT
??1?$vector@VGashaponPresent@@V?$allocator@VGashaponPresent@@@std@@@std@@QAE@XZ PROC ; std::vector<GashaponPresent,std::allocator<GashaponPresent> >::~vector<GashaponPresent,std::allocator<GashaponPresent> >, COMDAT
; _this$ = ecx

; 705  : 		_Tidy();

  00000	e9 00 00 00 00	 jmp	 ?_Tidy@?$vector@VGashaponPresent@@V?$allocator@VGashaponPresent@@@std@@@std@@IAEXXZ ; std::vector<GashaponPresent,std::allocator<GashaponPresent> >::_Tidy
??1?$vector@VGashaponPresent@@V?$allocator@VGashaponPresent@@@std@@@std@@QAE@XZ ENDP ; std::vector<GashaponPresent,std::allocator<GashaponPresent> >::~vector<GashaponPresent,std::allocator<GashaponPresent> >
_TEXT	ENDS
PUBLIC	??_7GuildPossibleRewardListWnd@@6B@		; GuildPossibleRewardListWnd::`vftable'
PUBLIC	??0GuildPossibleRewardListWnd@@QAE@XZ		; GuildPossibleRewardListWnd::GuildPossibleRewardListWnd
PUBLIC	??_R4GuildPossibleRewardListWnd@@6B@		; GuildPossibleRewardListWnd::`RTTI Complete Object Locator'
PUBLIC	??_R0?AVGuildPossibleRewardListWnd@@@8		; GuildPossibleRewardListWnd `RTTI Type Descriptor'
PUBLIC	??_R3GuildPossibleRewardListWnd@@8		; GuildPossibleRewardListWnd::`RTTI Class Hierarchy Descriptor'
PUBLIC	??_R2GuildPossibleRewardListWnd@@8		; GuildPossibleRewardListWnd::`RTTI Base Class Array'
PUBLIC	??_R1A@?0A@EA@GuildPossibleRewardListWnd@@8	; GuildPossibleRewardListWnd::`RTTI Base Class Descriptor at (0,-1,0,64)'
PUBLIC	?iwm_command@GuildPossibleRewardListWnd@@UAEXPAVioWnd@@HK@Z ; GuildPossibleRewardListWnd::iwm_command
PUBLIC	?iwm_show@GuildPossibleRewardListWnd@@UAEXXZ	; GuildPossibleRewardListWnd::iwm_show
EXTRN	??_M@YGXPAXIHP6EX0@Z@Z:PROC			; `eh vector destructor iterator'
EXTRN	??_L@YGXPAXIHP6EX0@Z1@Z:PROC			; `eh vector constructor iterator'
EXTRN	??_EGuildPossibleRewardListWnd@@UAEPAXI@Z:PROC	; GuildPossibleRewardListWnd::`vector deleting destructor'
;	COMDAT ??_R1A@?0A@EA@GuildPossibleRewardListWnd@@8
; File c:\program files (x86)\microsoft visual studio 10.0\vc\include\xmemory
rdata$r	SEGMENT
??_R1A@?0A@EA@GuildPossibleRewardListWnd@@8 DD FLAT:??_R0?AVGuildPossibleRewardListWnd@@@8 ; GuildPossibleRewardListWnd::`RTTI Base Class Descriptor at (0,-1,0,64)'
	DD	01H
	DD	00H
	DD	0ffffffffH
	DD	00H
	DD	040H
	DD	FLAT:??_R3GuildPossibleRewardListWnd@@8
rdata$r	ENDS
;	COMDAT ??_R2GuildPossibleRewardListWnd@@8
rdata$r	SEGMENT
??_R2GuildPossibleRewardListWnd@@8 DD FLAT:??_R1A@?0A@EA@GuildPossibleRewardListWnd@@8 ; GuildPossibleRewardListWnd::`RTTI Base Class Array'
	DD	FLAT:??_R1A@?0A@EA@ioWnd@@8
rdata$r	ENDS
;	COMDAT ??_R3GuildPossibleRewardListWnd@@8
rdata$r	SEGMENT
??_R3GuildPossibleRewardListWnd@@8 DD 00H		; GuildPossibleRewardListWnd::`RTTI Class Hierarchy Descriptor'
	DD	00H
	DD	02H
	DD	FLAT:??_R2GuildPossibleRewardListWnd@@8
rdata$r	ENDS
;	COMDAT ??_R0?AVGuildPossibleRewardListWnd@@@8
_DATA	SEGMENT
??_R0?AVGuildPossibleRewardListWnd@@@8 DD FLAT:??_7type_info@@6B@ ; GuildPossibleRewardListWnd `RTTI Type Descriptor'
	DD	00H
	DB	'.?AVGuildPossibleRewardListWnd@@', 00H
_DATA	ENDS
;	COMDAT ??_R4GuildPossibleRewardListWnd@@6B@
rdata$r	SEGMENT
??_R4GuildPossibleRewardListWnd@@6B@ DD 00H		; GuildPossibleRewardListWnd::`RTTI Complete Object Locator'
	DD	00H
	DD	00H
	DD	FLAT:??_R0?AVGuildPossibleRewardListWnd@@@8
	DD	FLAT:??_R3GuildPossibleRewardListWnd@@8
rdata$r	ENDS
;	COMDAT ??_7GuildPossibleRewardListWnd@@6B@
CONST	SEGMENT
??_7GuildPossibleRewardListWnd@@6B@ DD FLAT:??_R4GuildPossibleRewardListWnd@@6B@ ; GuildPossibleRewardListWnd::`vftable'
	DD	FLAT:?AddRenderFrame@GuildPossibleRewardListWnd@@MAEXABVioHashString@@PAVioUIRenderFrame@@@Z
	DD	FLAT:?AddRenderImage@GuildPossibleRewardListWnd@@MAEXABVioHashString@@PAVioUIRenderImage@@@Z
	DD	FLAT:?AddTooltipHelp@ioWnd@@UAEXABVioHashString@@00@Z
	DD	FLAT:?ParseExtraInfo@GuildPossibleRewardListWnd@@MAEXAAVioXMLElement@@@Z
	DD	FLAT:?AddNamedRenderImage@ioWnd@@UAEXABVioHashString@@PAVioUIRenderImage@@@Z
	DD	FLAT:?RemoveNamedRenderImage@ioWnd@@UAEXABVioHashString@@@Z
	DD	FLAT:?GetNamedRenderImage@ioWnd@@UBEPAVioUIRenderImage@@ABVioHashString@@@Z
	DD	FLAT:?SetWindowAlpha@ioWnd@@UAEXH@Z
	DD	FLAT:?SetActive@ioWnd@@UAEXXZ
	DD	FLAT:?SetInActive@ioWnd@@UAEXXZ
	DD	FLAT:?ClearElementImageList@ioWnd@@UAEXXZ
	DD	FLAT:?SetSize@ioWnd@@UAEXHH@Z
	DD	FLAT:?SetPositionToDefault@ioWnd@@UAEXHH_N0@Z
	DD	FLAT:?IsNeedProcess@ioWnd@@UBE_NXZ
	DD	FLAT:?IsCanMouseReaction@ioWnd@@UBE_NXZ
	DD	FLAT:?AddChild@ioWnd@@UAEXPAV1@@Z
	DD	FLAT:?DeleteChild@ioWnd@@UAEXK@Z
	DD	FLAT:?DeleteAllChild@ioWnd@@UAEXXZ
	DD	FLAT:?OnRenderShowAndHide@ioWnd@@MAE_NXZ
	DD	FLAT:?OnRenderShowAndHideByDefault@ioWnd@@MAE_NK@Z
	DD	FLAT:?OnRenderShowAndHideByTop@ioWnd@@MAE_NK@Z
	DD	FLAT:?OnRenderShowAndHideByDown@ioWnd@@MAE_NK@Z
	DD	FLAT:?OnRender@GuildPossibleRewardListWnd@@MAEXXZ
	DD	FLAT:?OnRenderAfterChild@ioWnd@@MAEXXZ
	DD	FLAT:?OnProcess@ioWnd@@MAEXM@Z
	DD	FLAT:?OnMouseProcess@ioWnd@@MAEXABVioMouse@@@Z
	DD	FLAT:?CheckFrameReSize@ioWnd@@MAEXHHHH@Z
	DD	FLAT:?RenderImageList@ioWnd@@MAEXHHW4UIRenderType@@@Z
	DD	FLAT:?iwm_create@ioWnd@@UAEXXZ
	DD	FLAT:?iwm_destroy@ioWnd@@UAEXXZ
	DD	FLAT:?iwm_lbuttondown@ioWnd@@UAEXABVioMouse@@@Z
	DD	FLAT:?iwm_lbuttonup@ioWnd@@UAEXABVioMouse@@@Z
	DD	FLAT:?iwm_lbuttonDBLCLK@ioWnd@@UAEXABVioMouse@@@Z
	DD	FLAT:?iwm_rbuttondown@ioWnd@@UAEXABVioMouse@@@Z
	DD	FLAT:?iwm_rbuttonup@ioWnd@@UAEXABVioMouse@@@Z
	DD	FLAT:?iwm_command@GuildPossibleRewardListWnd@@UAEXPAVioWnd@@HK@Z
	DD	FLAT:?iwm_mouseover@ioWnd@@UAEXABVioMouse@@@Z
	DD	FLAT:?iwm_mousemove@ioWnd@@UAEXABVioMouse@@@Z
	DD	FLAT:?iwm_mouseleave@ioWnd@@UAEXABVioMouse@@@Z
	DD	FLAT:?iwm_vscroll@ioWnd@@UAEXKH@Z
	DD	FLAT:?iwm_wheel@ioWnd@@UAEXH@Z
	DD	FLAT:?iwm_show@GuildPossibleRewardListWnd@@UAEXXZ
	DD	FLAT:?iwm_hide@GuildPossibleRewardListWnd@@UAEXXZ
	DD	FLAT:?iwm_esc@ioWnd@@UAE_NXZ
	DD	FLAT:?iwm_spacebar@ioWnd@@UAE_NXZ
	DD	FLAT:?iwm_gototop@ioWnd@@UAEXXZ
	DD	FLAT:?iwm_dragenter@ioWnd@@UAE?AW4IWDropEffect@@PAVioDragItem@@ABVioMouse@@@Z
	DD	FLAT:?iwm_dragover@ioWnd@@UAE?AW4IWDropEffect@@PAVioDragItem@@ABVioMouse@@@Z
	DD	FLAT:?iwm_dragleave@ioWnd@@UAEXXZ
	DD	FLAT:?iwm_dropitem@ioWnd@@UAE_NPAVioDragItem@@ABVioMouse@@PAV1@@Z
	DD	FLAT:?iwm_dropdone@ioWnd@@UAEXPAVioDragItem@@PAV1@_N@Z
	DD	FLAT:?IsEXType@ioWnd@@UBE_NXZ
	DD	FLAT:?GetWndType@ioWnd@@UBEKXZ
	DD	FLAT:?RenderWnd@ioWnd@@UAEXXZ
	DD	FLAT:?SetIDEX@ioWnd@@UAEXAAK_N@Z
	DD	FLAT:?ParseXML@ioWnd@@UAEXAAVioXMLElement@@@Z
	DD	FLAT:?GetHeaderFileName@ioWnd@@UAEPBDXZ
	DD	FLAT:?GetTemplateName@ioWnd@@UAEPBDXZ
	DD	FLAT:?GetDefClassName@ioWnd@@UBEPBDXZ
	DD	FLAT:?_Clone@ioWnd@@UAEPAV1@XZ
	DD	FLAT:?Copy@ioWnd@@UAEXPAV1@@Z
	DD	FLAT:?Save@ioWnd@@UAE_NAAVioXMLElement@@@Z
	DD	FLAT:?SetSaveData@ioWnd@@UAEXAAVioXMLElement@@@Z
	DD	FLAT:?SetPosX@ioWnd@@UAEXH@Z
	DD	FLAT:?SetPosY@ioWnd@@UAEXH@Z
	DD	FLAT:?SetWidth@ioWnd@@UAEXH@Z
	DD	FLAT:?SetHeight@ioWnd@@UAEXH@Z
	DD	FLAT:?GetNumFixedRenderFrame@ioWnd@@UBEHXZ
	DD	FLAT:?GetFixedRenderFrameType@ioWnd@@UAEPBDH@Z
	DD	FLAT:?GetRenderFrame@ioWnd@@UAEPAPAVioUIRenderElement@@PBD@Z
	DD	FLAT:?GetNumFixedRenderImage@ioWnd@@UBEHXZ
	DD	FLAT:?GetFixedRenderImageType@ioWnd@@UAEPBDH@Z
	DD	FLAT:?GetRenderImage@ioWnd@@UAEPAPAVioUIRenderElement@@PBD@Z
	DD	FLAT:?AddEffect@ioWnd@@UAEXABVioHashString@@PAVioUI3DEffectRender@@@Z
	DD	FLAT:?GetEffect@ioWnd@@UAEPAVioUI3DEffectRender@@VioHashString@@@Z
	DD	FLAT:??_EGuildPossibleRewardListWnd@@UAEPAXI@Z
CONST	ENDS
;	COMDAT xdata$x
xdata$x	SEGMENT
__ehfuncinfo$??0GuildPossibleRewardListWnd@@QAE@XZ DD 019930522H
	DD	06H
	DD	FLAT:__unwindtable$??0GuildPossibleRewardListWnd@@QAE@XZ
	DD	2 DUP(00H)
	DD	2 DUP(00H)
	DD	00H
	DD	01H
__unwindtable$??0GuildPossibleRewardListWnd@@QAE@XZ DD 0ffffffffH
	DD	FLAT:__unwindfunclet$??0GuildPossibleRewardListWnd@@QAE@XZ$0
	DD	00H
	DD	FLAT:__unwindfunclet$??0GuildPossibleRewardListWnd@@QAE@XZ$1
	DD	01H
	DD	FLAT:__unwindfunclet$??0GuildPossibleRewardListWnd@@QAE@XZ$2
	DD	02H
	DD	FLAT:__unwindfunclet$??0GuildPossibleRewardListWnd@@QAE@XZ$3
	DD	03H
	DD	FLAT:__unwindfunclet$??0GuildPossibleRewardListWnd@@QAE@XZ$4
	DD	04H
	DD	FLAT:__unwindfunclet$??0GuildPossibleRewardListWnd@@QAE@XZ$5
; Function compile flags: /Ogsp
; File d:\lost saga for developer\youtube\tutorial\source\src\lsclient\gui\guildrewardwnd.cpp
xdata$x	ENDS
;	COMDAT ??0GuildPossibleRewardListWnd@@QAE@XZ
_TEXT	SEGMENT
_this$ = -16						; size = 4
__$EHRec$ = -12						; size = 12
??0GuildPossibleRewardListWnd@@QAE@XZ PROC		; GuildPossibleRewardListWnd::GuildPossibleRewardListWnd, COMDAT
; _this$ = ecx

; 75   : {

  00000	6a 04		 push	 4
  00002	b8 00 00 00 00	 mov	 eax, __ehhandler$??0GuildPossibleRewardListWnd@@QAE@XZ
  00007	e8 00 00 00 00	 call	 __EH_prolog3
  0000c	8b f1		 mov	 esi, ecx
  0000e	89 75 f0	 mov	 DWORD PTR _this$[ebp], esi
  00011	ff 15 00 00 00
	00		 call	 DWORD PTR __imp_??0ioWnd@@QAE@XZ
  00017	33 c9		 xor	 ecx, ecx
  00019	c7 06 00 00 00
	00		 mov	 DWORD PTR [esi], OFFSET ??_7GuildPossibleRewardListWnd@@6B@
  0001f	89 4d fc	 mov	 DWORD PTR __$EHRec$[ebp+8], ecx
  00022	89 8e 68 01 00
	00		 mov	 DWORD PTR [esi+360], ecx
  00028	89 8e 6c 01 00
	00		 mov	 DWORD PTR [esi+364], ecx
  0002e	89 8e 70 01 00
	00		 mov	 DWORD PTR [esi+368], ecx
  00034	8b 3d 00 00 00
	00		 mov	 edi, DWORD PTR __imp_??0ioHashString@@QAE@XZ
  0003a	8d 8e 78 01 00
	00		 lea	 ecx, DWORD PTR [esi+376]
  00040	c6 45 fc 01	 mov	 BYTE PTR __$EHRec$[ebp+8], 1
  00044	ff d7		 call	 edi
  00046	8d 8e 88 01 00
	00		 lea	 ecx, DWORD PTR [esi+392]
  0004c	c6 45 fc 02	 mov	 BYTE PTR __$EHRec$[ebp+8], 2
  00050	ff d7		 call	 edi
  00052	8d 8e 98 01 00
	00		 lea	 ecx, DWORD PTR [esi+408]
  00058	c6 45 fc 03	 mov	 BYTE PTR __$EHRec$[ebp+8], 3
  0005c	e8 00 00 00 00	 call	 ??0ioComplexStringPrinter@@QAE@XZ ; ioComplexStringPrinter::ioComplexStringPrinter
  00061	68 00 00 00 00	 push	 OFFSET ??1ioComplexStringPrinter@@QAE@XZ ; ioComplexStringPrinter::~ioComplexStringPrinter
  00066	68 00 00 00 00	 push	 OFFSET ??0ioComplexStringPrinter@@QAE@XZ ; ioComplexStringPrinter::ioComplexStringPrinter
  0006b	6a 02		 push	 2
  0006d	6a 20		 push	 32			; 00000020H
  0006f	8d 86 b8 01 00
	00		 lea	 eax, DWORD PTR [esi+440]
  00075	50		 push	 eax
  00076	c6 45 fc 04	 mov	 BYTE PTR __$EHRec$[ebp+8], 4
  0007a	e8 00 00 00 00	 call	 ??_L@YGXPAXIHP6EX0@Z1@Z

; 76   : 	m_szAttendTitleName.Clear();

  0007f	8b 3d 00 00 00
	00		 mov	 edi, DWORD PTR __imp_?Clear@ioHashString@@QAEXXZ
  00085	8d 8e 78 01 00
	00		 lea	 ecx, DWORD PTR [esi+376]
  0008b	c6 45 fc 05	 mov	 BYTE PTR __$EHRec$[ebp+8], 5
  0008f	ff d7		 call	 edi

; 77   : 	m_szRankTitleName.Clear();

  00091	8d 8e 88 01 00
	00		 lea	 ecx, DWORD PTR [esi+392]
  00097	ff d7		 call	 edi

; 78   : 	ClearData();

  00099	8b ce		 mov	 ecx, esi
  0009b	e8 00 00 00 00	 call	 ?ClearData@GuildPossibleRewardListWnd@@IAEXXZ ; GuildPossibleRewardListWnd::ClearData

; 79   : }

  000a0	8b c6		 mov	 eax, esi
  000a2	e8 00 00 00 00	 call	 __EH_epilog3
  000a7	c3		 ret	 0
_TEXT	ENDS
;	COMDAT text$x
text$x	SEGMENT
__unwindfunclet$??0GuildPossibleRewardListWnd@@QAE@XZ$0:
  00000	8b 4d f0	 mov	 ecx, DWORD PTR _this$[ebp]
  00003	ff 25 00 00 00
	00		 jmp	 DWORD PTR __imp_??1ioWnd@@UAE@XZ
__unwindfunclet$??0GuildPossibleRewardListWnd@@QAE@XZ$1:
  00009	8b 4d f0	 mov	 ecx, DWORD PTR _this$[ebp]
  0000c	81 c1 68 01 00
	00		 add	 ecx, 360		; 00000168H
  00012	e9 00 00 00 00	 jmp	 ??1?$vector@VGashaponPresent@@V?$allocator@VGashaponPresent@@@std@@@std@@QAE@XZ ; std::vector<GashaponPresent,std::allocator<GashaponPresent> >::~vector<GashaponPresent,std::allocator<GashaponPresent> >
__unwindfunclet$??0GuildPossibleRewardListWnd@@QAE@XZ$2:
  00017	8b 4d f0	 mov	 ecx, DWORD PTR _this$[ebp]
  0001a	81 c1 78 01 00
	00		 add	 ecx, 376		; 00000178H
  00020	ff 25 00 00 00
	00		 jmp	 DWORD PTR __imp_??1ioHashString@@QAE@XZ
__unwindfunclet$??0GuildPossibleRewardListWnd@@QAE@XZ$3:
  00026	8b 4d f0	 mov	 ecx, DWORD PTR _this$[ebp]
  00029	81 c1 88 01 00
	00		 add	 ecx, 392		; 00000188H
  0002f	ff 25 00 00 00
	00		 jmp	 DWORD PTR __imp_??1ioHashString@@QAE@XZ
__unwindfunclet$??0GuildPossibleRewardListWnd@@QAE@XZ$4:
  00035	8b 4d f0	 mov	 ecx, DWORD PTR _this$[ebp]
  00038	81 c1 98 01 00
	00		 add	 ecx, 408		; 00000198H
  0003e	e9 00 00 00 00	 jmp	 ??1ioComplexStringPrinter@@QAE@XZ ; ioComplexStringPrinter::~ioComplexStringPrinter
__unwindfunclet$??0GuildPossibleRewardListWnd@@QAE@XZ$5:
  00043	68 00 00 00 00	 push	 OFFSET ??1ioComplexStringPrinter@@QAE@XZ ; ioComplexStringPrinter::~ioComplexStringPrinter
  00048	6a 02		 push	 2
  0004a	6a 20		 push	 32			; 00000020H
  0004c	8b 45 f0	 mov	 eax, DWORD PTR _this$[ebp]
  0004f	05 b8 01 00 00	 add	 eax, 440		; 000001b8H
  00054	50		 push	 eax
  00055	e8 00 00 00 00	 call	 ??_M@YGXPAXIHP6EX0@Z@Z
  0005a	c3		 ret	 0
__ehhandler$??0GuildPossibleRewardListWnd@@QAE@XZ:
  0005b	8b 54 24 08	 mov	 edx, DWORD PTR [esp+8]
  0005f	8d 42 0c	 lea	 eax, DWORD PTR [edx+12]
  00062	8b 4a ec	 mov	 ecx, DWORD PTR [edx-20]
  00065	33 c8		 xor	 ecx, eax
  00067	e8 00 00 00 00	 call	 @__security_check_cookie@4
  0006c	b8 00 00 00 00	 mov	 eax, OFFSET __ehfuncinfo$??0GuildPossibleRewardListWnd@@QAE@XZ
  00071	e9 00 00 00 00	 jmp	 ___CxxFrameHandler3
text$x	ENDS
??0GuildPossibleRewardListWnd@@QAE@XZ ENDP		; GuildPossibleRewardListWnd::GuildPossibleRewardListWnd
PUBLIC	??1GuildPossibleRewardListWnd@@UAE@XZ		; GuildPossibleRewardListWnd::~GuildPossibleRewardListWnd
;	COMDAT xdata$x
; File c:\program files (x86)\microsoft visual studio 10.0\vc\include\vector
xdata$x	SEGMENT
__ehfuncinfo$??1GuildPossibleRewardListWnd@@UAE@XZ DD 019930522H
	DD	05H
	DD	FLAT:__unwindtable$??1GuildPossibleRewardListWnd@@UAE@XZ
	DD	2 DUP(00H)
	DD	2 DUP(00H)
	DD	00H
	DD	01H
__unwindtable$??1GuildPossibleRewardListWnd@@UAE@XZ DD 0ffffffffH
	DD	FLAT:__unwindfunclet$??1GuildPossibleRewardListWnd@@UAE@XZ$0
	DD	00H
	DD	FLAT:__unwindfunclet$??1GuildPossibleRewardListWnd@@UAE@XZ$1
	DD	01H
	DD	FLAT:__unwindfunclet$??1GuildPossibleRewardListWnd@@UAE@XZ$2
	DD	02H
	DD	FLAT:__unwindfunclet$??1GuildPossibleRewardListWnd@@UAE@XZ$3
	DD	03H
	DD	FLAT:__unwindfunclet$??1GuildPossibleRewardListWnd@@UAE@XZ$4
; Function compile flags: /Ogsp
; File d:\lost saga for developer\youtube\tutorial\source\src\lsclient\gui\guildrewardwnd.cpp
xdata$x	ENDS
;	COMDAT ??1GuildPossibleRewardListWnd@@UAE@XZ
_TEXT	SEGMENT
_this$ = -16						; size = 4
__$EHRec$ = -12						; size = 12
??1GuildPossibleRewardListWnd@@UAE@XZ PROC		; GuildPossibleRewardListWnd::~GuildPossibleRewardListWnd, COMDAT
; _this$ = ecx

; 82   : {

  00000	6a 04		 push	 4
  00002	b8 00 00 00 00	 mov	 eax, __ehhandler$??1GuildPossibleRewardListWnd@@UAE@XZ
  00007	e8 00 00 00 00	 call	 __EH_prolog3
  0000c	8b f1		 mov	 esi, ecx
  0000e	89 75 f0	 mov	 DWORD PTR _this$[ebp], esi
  00011	c7 06 00 00 00
	00		 mov	 DWORD PTR [esi], OFFSET ??_7GuildPossibleRewardListWnd@@6B@

; 83   : }

  00017	68 00 00 00 00	 push	 OFFSET ??1ioComplexStringPrinter@@QAE@XZ ; ioComplexStringPrinter::~ioComplexStringPrinter
  0001c	6a 02		 push	 2
  0001e	6a 20		 push	 32			; 00000020H
  00020	8d 86 b8 01 00
	00		 lea	 eax, DWORD PTR [esi+440]
  00026	50		 push	 eax
  00027	c7 45 fc 04 00
	00 00		 mov	 DWORD PTR __$EHRec$[ebp+8], 4
  0002e	e8 00 00 00 00	 call	 ??_M@YGXPAXIHP6EX0@Z@Z
  00033	8d 8e 98 01 00
	00		 lea	 ecx, DWORD PTR [esi+408]
  00039	c6 45 fc 03	 mov	 BYTE PTR __$EHRec$[ebp+8], 3
  0003d	e8 00 00 00 00	 call	 ??1ioComplexStringPrinter@@QAE@XZ ; ioComplexStringPrinter::~ioComplexStringPrinter
  00042	8b 3d 00 00 00
	00		 mov	 edi, DWORD PTR __imp_??1ioHashString@@QAE@XZ
  00048	8d 8e 88 01 00
	00		 lea	 ecx, DWORD PTR [esi+392]
  0004e	c6 45 fc 02	 mov	 BYTE PTR __$EHRec$[ebp+8], 2
  00052	ff d7		 call	 edi
  00054	8d 8e 78 01 00
	00		 lea	 ecx, DWORD PTR [esi+376]
  0005a	c6 45 fc 01	 mov	 BYTE PTR __$EHRec$[ebp+8], 1
  0005e	ff d7		 call	 edi
  00060	8d 8e 68 01 00
	00		 lea	 ecx, DWORD PTR [esi+360]
  00066	c6 45 fc 00	 mov	 BYTE PTR __$EHRec$[ebp+8], 0
  0006a	e8 00 00 00 00	 call	 ?_Tidy@?$vector@VGashaponPresent@@V?$allocator@VGashaponPresent@@@std@@@std@@IAEXXZ ; std::vector<GashaponPresent,std::allocator<GashaponPresent> >::_Tidy
  0006f	83 4d fc ff	 or	 DWORD PTR __$EHRec$[ebp+8], -1
  00073	8b ce		 mov	 ecx, esi
  00075	ff 15 00 00 00
	00		 call	 DWORD PTR __imp_??1ioWnd@@UAE@XZ
  0007b	e8 00 00 00 00	 call	 __EH_epilog3
  00080	c3		 ret	 0
_TEXT	ENDS
;	COMDAT text$x
text$x	SEGMENT
__unwindfunclet$??1GuildPossibleRewardListWnd@@UAE@XZ$0:
  00000	8b 4d f0	 mov	 ecx, DWORD PTR _this$[ebp]
  00003	ff 25 00 00 00
	00		 jmp	 DWORD PTR __imp_??1ioWnd@@UAE@XZ
__unwindfunclet$??1GuildPossibleRewardListWnd@@UAE@XZ$1:
  00009	8b 4d f0	 mov	 ecx, DWORD PTR _this$[ebp]
  0000c	81 c1 68 01 00
	00		 add	 ecx, 360		; 00000168H
  00012	e9 00 00 00 00	 jmp	 ??1?$vector@VGashaponPresent@@V?$allocator@VGashaponPresent@@@std@@@std@@QAE@XZ ; std::vector<GashaponPresent,std::allocator<GashaponPresent> >::~vector<GashaponPresent,std::allocator<GashaponPresent> >
__unwindfunclet$??1GuildPossibleRewardListWnd@@UAE@XZ$2:
  00017	8b 4d f0	 mov	 ecx, DWORD PTR _this$[ebp]
  0001a	81 c1 78 01 00
	00		 add	 ecx, 376		; 00000178H
  00020	ff 25 00 00 00
	00		 jmp	 DWORD PTR __imp_??1ioHashString@@QAE@XZ
__unwindfunclet$??1GuildPossibleRewardListWnd@@UAE@XZ$3:
  00026	8b 4d f0	 mov	 ecx, DWORD PTR _this$[ebp]
  00029	81 c1 88 01 00
	00		 add	 ecx, 392		; 00000188H
  0002f	ff 25 00 00 00
	00		 jmp	 DWORD PTR __imp_??1ioHashString@@QAE@XZ
__unwindfunclet$??1GuildPossibleRewardListWnd@@UAE@XZ$4:
  00035	8b 4d f0	 mov	 ecx, DWORD PTR _this$[ebp]
  00038	81 c1 98 01 00
	00		 add	 ecx, 408		; 00000198H
  0003e	e9 00 00 00 00	 jmp	 ??1ioComplexStringPrinter@@QAE@XZ ; ioComplexStringPrinter::~ioComplexStringPrinter
__ehhandler$??1GuildPossibleRewardListWnd@@UAE@XZ:
  00043	8b 54 24 08	 mov	 edx, DWORD PTR [esp+8]
  00047	8d 42 0c	 lea	 eax, DWORD PTR [edx+12]
  0004a	8b 4a ec	 mov	 ecx, DWORD PTR [edx-20]
  0004d	33 c8		 xor	 ecx, eax
  0004f	e8 00 00 00 00	 call	 @__security_check_cookie@4
  00054	b8 00 00 00 00	 mov	 eax, OFFSET __ehfuncinfo$??1GuildPossibleRewardListWnd@@UAE@XZ
  00059	e9 00 00 00 00	 jmp	 ___CxxFrameHandler3
text$x	ENDS
??1GuildPossibleRewardListWnd@@UAE@XZ ENDP		; GuildPossibleRewardListWnd::~GuildPossibleRewardListWnd
PUBLIC	??4?$vector@VGashaponPresent@@V?$allocator@VGashaponPresent@@@std@@@std@@QAEAAV01@ABV01@@Z ; std::vector<GashaponPresent,std::allocator<GashaponPresent> >::operator=
; Function compile flags: /Ogsp
; File c:\program files (x86)\microsoft visual studio 10.0\vc\include\vector
;	COMDAT ??4?$vector@VGashaponPresent@@V?$allocator@VGashaponPresent@@@std@@@std@@QAEAAV01@ABV01@@Z
_TEXT	SEGMENT
tv555 = -4						; size = 4
tv551 = 8						; size = 4
__Cat$514521 = 8					; size = 1
__Cat$514393 = 8					; size = 1
__Cat$514371 = 8					; size = 1
__Cat$514250 = 8					; size = 1
$T514306 = 8						; size = 4
$T514217 = 8						; size = 4
__Right$ = 8						; size = 4
??4?$vector@VGashaponPresent@@V?$allocator@VGashaponPresent@@@std@@@std@@QAEAAV01@ABV01@@Z PROC ; std::vector<GashaponPresent,std::allocator<GashaponPresent> >::operator=, COMDAT
; _this$ = ecx

; 709  : 		{	// assign _Right

  00000	55		 push	 ebp
  00001	8b ec		 mov	 ebp, esp
  00003	51		 push	 ecx
  00004	56		 push	 esi
  00005	57		 push	 edi

; 710  : 		if (this != &_Right)

  00006	8b 7d 08	 mov	 edi, DWORD PTR __Right$[ebp]
  00009	8b f1		 mov	 esi, ecx
  0000b	3b f7		 cmp	 esi, edi
  0000d	0f 84 16 01 00
	00		 je	 $LN1@operator@4

; 711  : 			{	// worth doing
; 712  : 			this->_Orphan_all();

  00013	ff 15 00 00 00
	00		 call	 DWORD PTR __imp_?_Orphan_all@_Container_base0@std@@QAEXXZ

; 713  : 
; 714  : 			if (_Right.size() == 0)

  00019	8b 47 04	 mov	 eax, DWORD PTR [edi+4]
  0001c	2b 07		 sub	 eax, DWORD PTR [edi]
  0001e	6a 14		 push	 20			; 00000014H
  00020	99		 cdq
  00021	59		 pop	 ecx
  00022	f7 f9		 idiv	 ecx
  00024	89 45 08	 mov	 DWORD PTR tv551[ebp], eax
  00027	85 c0		 test	 eax, eax

; 715  : 				clear();	// new sequence empty, erase existing sequence

  00029	8b 46 04	 mov	 eax, DWORD PTR [esi+4]
  0002c	75 14		 jne	 SHORT $LN8@operator@4
  0002e	8b 0e		 mov	 ecx, DWORD PTR [esi]
  00030	50		 push	 eax
  00031	51		 push	 ecx
  00032	8d 45 08	 lea	 eax, DWORD PTR $T514217[ebp]
  00035	50		 push	 eax
  00036	8b ce		 mov	 ecx, esi
  00038	e8 00 00 00 00	 call	 ?erase@?$vector@VGashaponPresent@@V?$allocator@VGashaponPresent@@@std@@@std@@QAE?AV?$_Vector_iterator@V?$_Vector_val@VGashaponPresent@@V?$allocator@VGashaponPresent@@@std@@@std@@@2@V?$_Vector_const_iterator@V?$_Vector_val@VGashaponPresent@@V?$allocator@VGashaponPresent@@@std@@@std@@@2@0@Z ; std::vector<GashaponPresent,std::allocator<GashaponPresent> >::erase

; 716  : 			else if (_Right.size() <= size())

  0003d	e9 e7 00 00 00	 jmp	 $LN1@operator@4
$LN8@operator@4:
  00042	53		 push	 ebx
  00043	8b 1e		 mov	 ebx, DWORD PTR [esi]
  00045	89 45 fc	 mov	 DWORD PTR tv555[ebp], eax
  00048	2b c3		 sub	 eax, ebx
  0004a	6a 14		 push	 20			; 00000014H
  0004c	99		 cdq
  0004d	59		 pop	 ecx
  0004e	f7 f9		 idiv	 ecx
  00050	8b c8		 mov	 ecx, eax
  00052	39 4d 08	 cmp	 DWORD PTR tv551[ebp], ecx
  00055	77 41		 ja	 SHORT $LN6@operator@4

; 717  : 				{	// enough elements, copy new and destroy old
; 718  : 				pointer _Ptr = _STD _Copy_impl(_Right._Myfirst, _Right._Mylast,
; 719  : 					this->_Myfirst);	// copy new

  00057	ff 75 08	 push	 DWORD PTR __Cat$514250[ebp]
  0005a	53		 push	 ebx
  0005b	ff 77 04	 push	 DWORD PTR [edi+4]
  0005e	ff 37		 push	 DWORD PTR [edi]
  00060	e8 00 00 00 00	 call	 ??$_Copy_impl@PAVGashaponPresent@@PAV1@@std@@YAPAVGashaponPresent@@PAV1@00U_Nonscalar_ptr_iterator_tag@0@@Z ; std::_Copy_impl<GashaponPresent *,GashaponPresent *>

; 720  : 				_Destroy(_Ptr, this->_Mylast);	// destroy old

  00065	8b 5e 04	 mov	 ebx, DWORD PTR [esi+4]
  00068	83 c4 10	 add	 esp, 16			; 00000010H
  0006b	89 45 08	 mov	 DWORD PTR $T514306[ebp], eax
  0006e	3b c3		 cmp	 eax, ebx
  00070	74 11		 je	 SHORT $LN46@operator@4
$LL114@operator@4:
  00072	8b 4d 08	 mov	 ecx, DWORD PTR $T514306[ebp]
  00075	e8 00 00 00 00	 call	 ??1GashaponPresent@@QAE@XZ ; GashaponPresent::~GashaponPresent
  0007a	83 45 08 14	 add	 DWORD PTR $T514306[ebp], 20 ; 00000014H
  0007e	39 5d 08	 cmp	 DWORD PTR $T514306[ebp], ebx
  00081	75 ef		 jne	 SHORT $LL114@operator@4
$LN46@operator@4:

; 721  : 				this->_Mylast = this->_Myfirst + _Right.size();

  00083	8b 47 04	 mov	 eax, DWORD PTR [edi+4]
  00086	2b 07		 sub	 eax, DWORD PTR [edi]
  00088	6a 14		 push	 20			; 00000014H
  0008a	99		 cdq
  0008b	59		 pop	 ecx
  0008c	f7 f9		 idiv	 ecx
  0008e	6b c0 14	 imul	 eax, 20			; 00000014H
  00091	03 06		 add	 eax, DWORD PTR [esi]

; 722  : 				}
; 723  : 			else if (_Right.size() <= capacity())

  00093	e9 8d 00 00 00	 jmp	 $LN116@operator@4
$LN6@operator@4:
  00098	8b 46 08	 mov	 eax, DWORD PTR [esi+8]
  0009b	2b c3		 sub	 eax, ebx
  0009d	6a 14		 push	 20			; 00000014H
  0009f	99		 cdq
  000a0	5b		 pop	 ebx
  000a1	f7 fb		 idiv	 ebx
  000a3	39 45 08	 cmp	 DWORD PTR tv551[ebp], eax
  000a6	77 2e		 ja	 SHORT $LN4@operator@4

; 724  : 				{	// enough room, copy and construct new
; 725  : 				pointer _Ptr = _Right._Myfirst + size();
; 726  : 				_STD _Copy_impl(_Right._Myfirst, _Ptr, this->_Myfirst);

  000a8	ff 75 08	 push	 DWORD PTR __Cat$514371[ebp]
  000ab	6b c9 14	 imul	 ecx, 20			; 00000014H
  000ae	8b 07		 mov	 eax, DWORD PTR [edi]
  000b0	ff 36		 push	 DWORD PTR [esi]
  000b2	8d 1c 08	 lea	 ebx, DWORD PTR [eax+ecx]
  000b5	53		 push	 ebx
  000b6	50		 push	 eax
  000b7	e8 00 00 00 00	 call	 ??$_Copy_impl@PAVGashaponPresent@@PAV1@@std@@YAPAVGashaponPresent@@PAV1@00U_Nonscalar_ptr_iterator_tag@0@@Z ; std::_Copy_impl<GashaponPresent *,GashaponPresent *>

; 727  : 				this->_Mylast = _Ucopy(_Ptr, _Right._Mylast, this->_Mylast);

  000bc	ff 75 08	 push	 DWORD PTR __Cat$514393[ebp]
  000bf	8b 46 04	 mov	 eax, DWORD PTR [esi+4]
  000c2	8b 7f 04	 mov	 edi, DWORD PTR [edi+4]
  000c5	8d 4e 0c	 lea	 ecx, DWORD PTR [esi+12]
  000c8	51		 push	 ecx
  000c9	50		 push	 eax
  000ca	57		 push	 edi
  000cb	53		 push	 ebx
  000cc	e8 00 00 00 00	 call	 ??$_Uninit_copy@PAVGashaponPresent@@PAV1@V?$allocator@VGashaponPresent@@@std@@@std@@YAPAVGashaponPresent@@PAV1@00AAV?$allocator@VGashaponPresent@@@0@U_Nonscalar_ptr_iterator_tag@0@@Z ; std::_Uninit_copy<GashaponPresent *,GashaponPresent *,std::allocator<GashaponPresent> >
  000d1	83 c4 24	 add	 esp, 36			; 00000024H

; 728  : 				}
; 729  : 			else

  000d4	eb 4f		 jmp	 SHORT $LN116@operator@4
$LN4@operator@4:

; 730  : 				{	// not enough room, allocate new array and construct new
; 731  : 				if (this->_Myfirst != 0)

  000d6	8b 1e		 mov	 ebx, DWORD PTR [esi]
  000d8	85 db		 test	 ebx, ebx
  000da	74 19		 je	 SHORT $LN113@operator@4
  000dc	eb 0a		 jmp	 SHORT $LN117@operator@4

; 732  : 					{	// discard old array
; 733  : 					_Destroy(this->_Myfirst, this->_Mylast);

$LL86@operator@4:
  000de	8b cb		 mov	 ecx, ebx
  000e0	e8 00 00 00 00	 call	 ??1GashaponPresent@@QAE@XZ ; GashaponPresent::~GashaponPresent
  000e5	83 c3 14	 add	 ebx, 20			; 00000014H
$LN117@operator@4:
  000e8	3b 5d fc	 cmp	 ebx, DWORD PTR tv555[ebp]
  000eb	75 f1		 jne	 SHORT $LL86@operator@4

; 734  : 					this->_Alval.deallocate(this->_Myfirst,
; 735  : 						this->_Myend - this->_Myfirst);

  000ed	ff 36		 push	 DWORD PTR [esi]
  000ef	e8 00 00 00 00	 call	 ??3@YAXPAX@Z		; operator delete
  000f4	59		 pop	 ecx
$LN113@operator@4:

; 736  : 					}
; 737  : 				if (_Buy(_Right.size()))

  000f5	8b 47 04	 mov	 eax, DWORD PTR [edi+4]
  000f8	2b 07		 sub	 eax, DWORD PTR [edi]
  000fa	6a 14		 push	 20			; 00000014H
  000fc	59		 pop	 ecx
  000fd	99		 cdq
  000fe	f7 f9		 idiv	 ecx
  00100	8b ce		 mov	 ecx, esi
  00102	50		 push	 eax
  00103	e8 00 00 00 00	 call	 ?_Buy@?$vector@VGashaponPresent@@V?$allocator@VGashaponPresent@@@std@@@std@@IAE_NI@Z ; std::vector<GashaponPresent,std::allocator<GashaponPresent> >::_Buy
  00108	84 c0		 test	 al, al
  0010a	74 1c		 je	 SHORT $LN115@operator@4

; 738  : 					this->_Mylast = _Ucopy(_Right._Myfirst, _Right._Mylast,
; 739  : 						this->_Myfirst);

  0010c	ff 75 08	 push	 DWORD PTR __Cat$514521[ebp]
  0010f	8b 06		 mov	 eax, DWORD PTR [esi]
  00111	8b 4f 04	 mov	 ecx, DWORD PTR [edi+4]
  00114	8b 3f		 mov	 edi, DWORD PTR [edi]
  00116	8d 56 0c	 lea	 edx, DWORD PTR [esi+12]
  00119	52		 push	 edx
  0011a	50		 push	 eax
  0011b	51		 push	 ecx
  0011c	57		 push	 edi
  0011d	e8 00 00 00 00	 call	 ??$_Uninit_copy@PAVGashaponPresent@@PAV1@V?$allocator@VGashaponPresent@@@std@@@std@@YAPAVGashaponPresent@@PAV1@00AAV?$allocator@VGashaponPresent@@@0@U_Nonscalar_ptr_iterator_tag@0@@Z ; std::_Uninit_copy<GashaponPresent *,GashaponPresent *,std::allocator<GashaponPresent> >
  00122	83 c4 14	 add	 esp, 20			; 00000014H
$LN116@operator@4:
  00125	89 46 04	 mov	 DWORD PTR [esi+4], eax
$LN115@operator@4:
  00128	5b		 pop	 ebx
$LN1@operator@4:
  00129	5f		 pop	 edi

; 740  : 				}
; 741  : 			}
; 742  : 		return (*this);

  0012a	8b c6		 mov	 eax, esi
  0012c	5e		 pop	 esi

; 743  : 		}

  0012d	c9		 leave
  0012e	c2 04 00	 ret	 4
??4?$vector@VGashaponPresent@@V?$allocator@VGashaponPresent@@@std@@@std@@QAEAAV01@ABV01@@Z ENDP ; std::vector<GashaponPresent,std::allocator<GashaponPresent> >::operator=
; Function compile flags: /Ogsp
_TEXT	ENDS
;	COMDAT ??_GGuildPossibleRewardListWnd@@UAEPAXI@Z
_TEXT	SEGMENT
___flags$ = 8						; size = 4
??_GGuildPossibleRewardListWnd@@UAEPAXI@Z PROC		; GuildPossibleRewardListWnd::`scalar deleting destructor', COMDAT
; _this$ = ecx
  00000	55		 push	 ebp
  00001	8b ec		 mov	 ebp, esp
  00003	56		 push	 esi
  00004	8b f1		 mov	 esi, ecx
  00006	e8 00 00 00 00	 call	 ??1GuildPossibleRewardListWnd@@UAE@XZ ; GuildPossibleRewardListWnd::~GuildPossibleRewardListWnd
  0000b	f6 45 08 01	 test	 BYTE PTR ___flags$[ebp], 1
  0000f	74 07		 je	 SHORT $LN1@scalar@9
  00011	56		 push	 esi
  00012	e8 00 00 00 00	 call	 ??3@YAXPAX@Z		; operator delete
  00017	59		 pop	 ecx
$LN1@scalar@9:
  00018	8b c6		 mov	 eax, esi
  0001a	5e		 pop	 esi
  0001b	5d		 pop	 ebp
  0001c	c2 04 00	 ret	 4
??_GGuildPossibleRewardListWnd@@UAEPAXI@Z ENDP		; GuildPossibleRewardListWnd::`scalar deleting destructor'
_TEXT	ENDS
PUBLIC	?ChangeRadioBtn@GuildPossibleRewardListWnd@@IAEXK@Z ; GuildPossibleRewardListWnd::ChangeRadioBtn
EXTRN	?GetRankRewardInfo@ioGuildInfo@@QBEQBUGuildRankRwardInfo@@H@Z:PROC ; ioGuildInfo::GetRankRewardInfo
EXTRN	?GetAttendRewardInfo@ioGuildInfo@@QBEQBUGuildAttendRwardInfo@@H@Z:PROC ; ioGuildInfo::GetAttendRewardInfo
EXTRN	__imp_?CheckRadioButton@ioWnd@@QAEXKKK@Z:PROC
; Function compile flags: /Ogsp
; File d:\lost saga for developer\youtube\tutorial\source\src\lsclient\gui\guildrewardwnd.cpp
;	COMDAT ?ChangeRadioBtn@GuildPossibleRewardListWnd@@IAEXK@Z
_TEXT	SEGMENT
$T514602 = 8						; size = 4
_i$510116 = 8						; size = 4
_i$510100 = 8						; size = 4
_dwSubBtn$ = 8						; size = 4
?ChangeRadioBtn@GuildPossibleRewardListWnd@@IAEXK@Z PROC ; GuildPossibleRewardListWnd::ChangeRadioBtn, COMDAT
; _this$ = ecx

; 186  : {

  00000	55		 push	 ebp
  00001	8b ec		 mov	 ebp, esp

; 187  : 	m_dwCurRadioBtn = dwSubBtn;

  00003	8b 45 08	 mov	 eax, DWORD PTR _dwSubBtn$[ebp]
  00006	53		 push	 ebx
  00007	56		 push	 esi
  00008	57		 push	 edi

; 188  : 	CheckRadioButton( ID_RADIO_BTN1, ID_RADIO_BTN5, m_dwCurRadioBtn );

  00009	50		 push	 eax
  0000a	6a 0e		 push	 14			; 0000000eH
  0000c	8b f1		 mov	 esi, ecx
  0000e	6a 0a		 push	 10			; 0000000aH
  00010	89 86 64 01 00
	00		 mov	 DWORD PTR [esi+356], eax
  00016	ff 15 00 00 00
	00		 call	 DWORD PTR __imp_?CheckRadioButton@ioWnd@@QAEXKKK@Z

; 189  : 
; 190  : 	m_RewardItemVec.clear();

  0001c	8b 86 6c 01 00
	00		 mov	 eax, DWORD PTR [esi+364]
  00022	8b 8e 68 01 00
	00		 mov	 ecx, DWORD PTR [esi+360]
  00028	50		 push	 eax
  00029	51		 push	 ecx
  0002a	8d 45 08	 lea	 eax, DWORD PTR $T514602[ebp]
  0002d	50		 push	 eax
  0002e	8d 8e 68 01 00
	00		 lea	 ecx, DWORD PTR [esi+360]
  00034	e8 00 00 00 00	 call	 ?erase@?$vector@VGashaponPresent@@V?$allocator@VGashaponPresent@@@std@@@std@@QAE?AV?$_Vector_iterator@V?$_Vector_val@VGashaponPresent@@V?$allocator@VGashaponPresent@@@std@@@std@@@2@V?$_Vector_const_iterator@V?$_Vector_val@VGashaponPresent@@V?$allocator@VGashaponPresent@@@std@@@std@@@2@0@Z ; std::vector<GashaponPresent,std::allocator<GashaponPresent> >::erase

; 191  : 	if ( m_iRewardType == GuildInfoWnd::ATTEND_REWARD )

  00039	8b 86 60 01 00
	00		 mov	 eax, DWORD PTR [esi+352]
  0003f	83 f8 02	 cmp	 eax, 2
  00042	0f 85 9d 00 00
	00		 jne	 $LN20@ChangeRadi

; 192  : 	{
; 193  : 		for ( int i=0 ; i<MAX_RADIO_BTN ; ++i )

  00048	83 65 08 00	 and	 DWORD PTR _i$510100[ebp], 0
$LL49@ChangeRadi:

; 194  : 		{
; 195  : 			ioButton* pBtn = dynamic_cast<ioButton*>( FindChildWnd( ID_RADIO_BTN1 + i ) );

  0004c	8b 45 08	 mov	 eax, DWORD PTR _i$510100[ebp]
  0004f	6a 00		 push	 0
  00051	68 00 00 00 00	 push	 OFFSET ??_R0?AVioButton@@@8
  00056	68 00 00 00 00	 push	 OFFSET ??_R0?AVioWnd@@@8
  0005b	6a 00		 push	 0
  0005d	83 c0 0a	 add	 eax, 10			; 0000000aH
  00060	50		 push	 eax
  00061	8b ce		 mov	 ecx, esi
  00063	ff 15 00 00 00
	00		 call	 DWORD PTR __imp_?FindChildWnd@ioWnd@@QAEPAV1@K@Z
  00069	50		 push	 eax
  0006a	e8 00 00 00 00	 call	 ___RTDynamicCast
  0006f	8b d8		 mov	 ebx, eax
  00071	83 c4 14	 add	 esp, 20			; 00000014H

; 196  : 			if ( pBtn )

  00074	85 db		 test	 ebx, ebx
  00076	74 49		 je	 SHORT $LN18@ChangeRadi

; 197  : 			{
; 198  : 				const GuildAttendRwardInfo* const pAttendInfo = g_GuildInfo.GetAttendRewardInfo( i );

  00078	ff 75 08	 push	 DWORD PTR _i$510100[ebp]
  0007b	e8 00 00 00 00	 call	 ?GetSingleton@ioGuildInfo@@SAAAV1@XZ ; ioGuildInfo::GetSingleton
  00080	8b c8		 mov	 ecx, eax
  00082	e8 00 00 00 00	 call	 ?GetAttendRewardInfo@ioGuildInfo@@QBEQBUGuildAttendRwardInfo@@H@Z ; ioGuildInfo::GetAttendRewardInfo

; 199  : 				if ( pAttendInfo )

  00087	85 c0		 test	 eax, eax
  00089	74 2e		 je	 SHORT $LN15@ChangeRadi

; 200  : 				{
; 201  : 					pBtn->SetTitleText( pAttendInfo->m_szName.c_str() );

  0008b	6a 00		 push	 0
  0008d	68 00 00 00 00	 push	 OFFSET ??_C@_00CNPNBAHC@?$AA@
  00092	8b c8		 mov	 ecx, eax
  00094	ff 15 00 00 00
	00		 call	 DWORD PTR __imp_?c_str@ioHashString@@QBEPBDXZ
  0009a	50		 push	 eax
  0009b	8b cb		 mov	 ecx, ebx
  0009d	ff 15 00 00 00
	00		 call	 DWORD PTR __imp_?SetTitleText@ioWnd@@QAEXPBD0H@Z

; 202  : 					if( !pBtn->IsShow() )

  000a3	8b cb		 mov	 ecx, ebx
  000a5	ff 15 00 00 00
	00		 call	 DWORD PTR __imp_?IsShow@ioWnd@@QBE_NXZ
  000ab	84 c0		 test	 al, al
  000ad	75 12		 jne	 SHORT $LN18@ChangeRadi

; 203  : 						pBtn->ShowWnd();

  000af	8b cb		 mov	 ecx, ebx
  000b1	ff 15 00 00 00
	00		 call	 DWORD PTR __imp_?ShowWnd@ioWnd@@QAEXXZ

; 204  : 				}
; 205  : 				else

  000b7	eb 08		 jmp	 SHORT $LN18@ChangeRadi
$LN15@ChangeRadi:

; 206  : 					pBtn->HideWnd();

  000b9	8b cb		 mov	 ecx, ebx
  000bb	ff 15 00 00 00
	00		 call	 DWORD PTR __imp_?HideWnd@ioWnd@@QAEXXZ
$LN18@ChangeRadi:

; 192  : 	{
; 193  : 		for ( int i=0 ; i<MAX_RADIO_BTN ; ++i )

  000c1	ff 45 08	 inc	 DWORD PTR _i$510100[ebp]
  000c4	83 7d 08 05	 cmp	 DWORD PTR _i$510100[ebp], 5
  000c8	7c 82		 jl	 SHORT $LL49@ChangeRadi

; 207  : 			}
; 208  : 		}
; 209  : 
; 210  : 		int iIndex = m_dwCurRadioBtn - ID_RADIO_BTN1;

  000ca	8b 86 64 01 00
	00		 mov	 eax, DWORD PTR [esi+356]
  000d0	83 e8 0a	 sub	 eax, 10			; 0000000aH

; 211  : 		const GuildAttendRwardInfo* const pAttendInfo = g_GuildInfo.GetAttendRewardInfo( iIndex );

  000d3	50		 push	 eax
  000d4	e8 00 00 00 00	 call	 ?GetSingleton@ioGuildInfo@@SAAAV1@XZ ; ioGuildInfo::GetSingleton
  000d9	8b c8		 mov	 ecx, eax
  000db	e8 00 00 00 00	 call	 ?GetAttendRewardInfo@ioGuildInfo@@QBEQBUGuildAttendRwardInfo@@H@Z ; ioGuildInfo::GetAttendRewardInfo

; 212  : 		if ( pAttendInfo )
; 213  : 			m_RewardItemVec = pAttendInfo->m_RewardPossibleItemVec;
; 214  : 
; 215  : 	}

  000e0	e9 a1 00 00 00	 jmp	 $LN50@ChangeRadi
$LN20@ChangeRadi:

; 216  : 	else if ( m_iRewardType == GuildInfoWnd::RANK_REWARD )

  000e5	83 f8 01	 cmp	 eax, 1
  000e8	0f 85 ab 00 00
	00		 jne	 $LN48@ChangeRadi

; 217  : 	{
; 218  : 		for ( int i=0 ; i<MAX_RADIO_BTN ; ++i )

  000ee	83 65 08 00	 and	 DWORD PTR _i$510116[ebp], 0
$LL47@ChangeRadi:

; 219  : 		{
; 220  : 			ioButton* pBtn = dynamic_cast<ioButton*>( FindChildWnd( ID_RADIO_BTN1 + i ) );

  000f2	8b 45 08	 mov	 eax, DWORD PTR _i$510116[ebp]
  000f5	6a 00		 push	 0
  000f7	68 00 00 00 00	 push	 OFFSET ??_R0?AVioButton@@@8
  000fc	68 00 00 00 00	 push	 OFFSET ??_R0?AVioWnd@@@8
  00101	6a 00		 push	 0
  00103	83 c0 0a	 add	 eax, 10			; 0000000aH
  00106	50		 push	 eax
  00107	8b ce		 mov	 ecx, esi
  00109	ff 15 00 00 00
	00		 call	 DWORD PTR __imp_?FindChildWnd@ioWnd@@QAEPAV1@K@Z
  0010f	50		 push	 eax
  00110	e8 00 00 00 00	 call	 ___RTDynamicCast
  00115	8b d8		 mov	 ebx, eax
  00117	83 c4 14	 add	 esp, 20			; 00000014H

; 221  : 			if( pBtn )

  0011a	85 db		 test	 ebx, ebx
  0011c	74 49		 je	 SHORT $LN8@ChangeRadi

; 222  : 			{
; 223  : 				const GuildRankRwardInfo* const pRankInfo = g_GuildInfo.GetRankRewardInfo( i );

  0011e	ff 75 08	 push	 DWORD PTR _i$510116[ebp]
  00121	e8 00 00 00 00	 call	 ?GetSingleton@ioGuildInfo@@SAAAV1@XZ ; ioGuildInfo::GetSingleton
  00126	8b c8		 mov	 ecx, eax
  00128	e8 00 00 00 00	 call	 ?GetRankRewardInfo@ioGuildInfo@@QBEQBUGuildRankRwardInfo@@H@Z ; ioGuildInfo::GetRankRewardInfo

; 224  : 				if ( pRankInfo )

  0012d	85 c0		 test	 eax, eax
  0012f	74 2e		 je	 SHORT $LN5@ChangeRadi

; 225  : 				{
; 226  : 					pBtn->SetTitleText( pRankInfo->m_szName.c_str() );

  00131	6a 00		 push	 0
  00133	68 00 00 00 00	 push	 OFFSET ??_C@_00CNPNBAHC@?$AA@
  00138	8b c8		 mov	 ecx, eax
  0013a	ff 15 00 00 00
	00		 call	 DWORD PTR __imp_?c_str@ioHashString@@QBEPBDXZ
  00140	50		 push	 eax
  00141	8b cb		 mov	 ecx, ebx
  00143	ff 15 00 00 00
	00		 call	 DWORD PTR __imp_?SetTitleText@ioWnd@@QAEXPBD0H@Z

; 227  : 					if( !pBtn->IsShow() )

  00149	8b cb		 mov	 ecx, ebx
  0014b	ff 15 00 00 00
	00		 call	 DWORD PTR __imp_?IsShow@ioWnd@@QBE_NXZ
  00151	84 c0		 test	 al, al
  00153	75 12		 jne	 SHORT $LN8@ChangeRadi

; 228  : 						pBtn->ShowWnd();

  00155	8b cb		 mov	 ecx, ebx
  00157	ff 15 00 00 00
	00		 call	 DWORD PTR __imp_?ShowWnd@ioWnd@@QAEXXZ

; 229  : 				}
; 230  : 				else

  0015d	eb 08		 jmp	 SHORT $LN8@ChangeRadi
$LN5@ChangeRadi:

; 231  : 					pBtn->HideWnd();

  0015f	8b cb		 mov	 ecx, ebx
  00161	ff 15 00 00 00
	00		 call	 DWORD PTR __imp_?HideWnd@ioWnd@@QAEXXZ
$LN8@ChangeRadi:

; 217  : 	{
; 218  : 		for ( int i=0 ; i<MAX_RADIO_BTN ; ++i )

  00167	ff 45 08	 inc	 DWORD PTR _i$510116[ebp]
  0016a	83 7d 08 05	 cmp	 DWORD PTR _i$510116[ebp], 5
  0016e	7c 82		 jl	 SHORT $LL47@ChangeRadi

; 232  : 			}
; 233  : 		}
; 234  : 
; 235  : 		int iIndex = m_dwCurRadioBtn - ID_RADIO_BTN1;

  00170	8b 86 64 01 00
	00		 mov	 eax, DWORD PTR [esi+356]
  00176	83 e8 0a	 sub	 eax, 10			; 0000000aH

; 236  : 		const GuildRankRwardInfo* const pRankInfo = g_GuildInfo.GetRankRewardInfo( iIndex );

  00179	50		 push	 eax
  0017a	e8 00 00 00 00	 call	 ?GetSingleton@ioGuildInfo@@SAAAV1@XZ ; ioGuildInfo::GetSingleton
  0017f	8b c8		 mov	 ecx, eax
  00181	e8 00 00 00 00	 call	 ?GetRankRewardInfo@ioGuildInfo@@QBEQBUGuildRankRwardInfo@@H@Z ; ioGuildInfo::GetRankRewardInfo
$LN50@ChangeRadi:

; 237  : 		if ( pRankInfo )

  00186	85 c0		 test	 eax, eax
  00188	74 0f		 je	 SHORT $LN48@ChangeRadi

; 238  : 			m_RewardItemVec = pRankInfo->m_RewardPossibleItemVec;

  0018a	83 c0 20	 add	 eax, 32			; 00000020H
  0018d	50		 push	 eax
  0018e	8d 8e 68 01 00
	00		 lea	 ecx, DWORD PTR [esi+360]
  00194	e8 00 00 00 00	 call	 ??4?$vector@VGashaponPresent@@V?$allocator@VGashaponPresent@@@std@@@std@@QAEAAV01@ABV01@@Z ; std::vector<GashaponPresent,std::allocator<GashaponPresent> >::operator=
$LN48@ChangeRadi:

; 239  : 	}
; 240  : 
; 241  : 	//std::sort( m_RewardItemVec.begin(), m_RewardItemVec.end(), ShopExtraItemSort() );
; 242  : 
; 243  : 	int iTotalCnt = m_RewardItemVec.size();

  00199	8b 86 6c 01 00
	00		 mov	 eax, DWORD PTR [esi+364]
  0019f	2b 86 68 01 00
	00		 sub	 eax, DWORD PTR [esi+360]
  001a5	6a 14		 push	 20			; 00000014H
  001a7	99		 cdq
  001a8	59		 pop	 ecx
  001a9	f7 f9		 idiv	 ecx

; 244  : 	m_iMaxPage = iTotalCnt / MAX_ICON_BTN;

  001ab	6a 0c		 push	 12			; 0000000cH
  001ad	59		 pop	 ecx
  001ae	99		 cdq
  001af	f7 f9		 idiv	 ecx
  001b1	89 86 f8 01 00
	00		 mov	 DWORD PTR [esi+504], eax

; 245  : 	if( iTotalCnt%MAX_ICON_BTN > 0 )

  001b7	85 d2		 test	 edx, edx
  001b9	7e 07		 jle	 SHORT $LN1@ChangeRadi

; 246  : 		m_iMaxPage += 1;

  001bb	40		 inc	 eax
  001bc	89 86 f8 01 00
	00		 mov	 DWORD PTR [esi+504], eax
$LN1@ChangeRadi:

; 247  : 
; 248  : 	UpdatePage( 0 );

  001c2	6a 00		 push	 0
  001c4	8b ce		 mov	 ecx, esi
  001c6	e8 00 00 00 00	 call	 ?UpdatePage@GuildPossibleRewardListWnd@@IAEXH@Z ; GuildPossibleRewardListWnd::UpdatePage
  001cb	5f		 pop	 edi
  001cc	5e		 pop	 esi
  001cd	5b		 pop	 ebx

; 249  : }

  001ce	5d		 pop	 ebp
  001cf	c2 04 00	 ret	 4
?ChangeRadioBtn@GuildPossibleRewardListWnd@@IAEXK@Z ENDP ; GuildPossibleRewardListWnd::ChangeRadioBtn
; Function compile flags: /Ogsp
_TEXT	ENDS
;	COMDAT ?iwm_command@GuildPossibleRewardListWnd@@UAEXPAVioWnd@@HK@Z
_TEXT	SEGMENT
_this$ = -4						; size = 4
$T514635 = 8						; size = 4
_pWnd$ = 8						; size = 4
tv232 = 12						; size = 4
_cmd$ = 12						; size = 4
_param$ = 16						; size = 4
?iwm_command@GuildPossibleRewardListWnd@@UAEXPAVioWnd@@HK@Z PROC ; GuildPossibleRewardListWnd::iwm_command, COMDAT
; _this$ = ecx

; 253  : {

  00000	55		 push	 ebp
  00001	8b ec		 mov	 ebp, esp
  00003	51		 push	 ecx
  00004	53		 push	 ebx
  00005	56		 push	 esi
  00006	57		 push	 edi
  00007	8b f9		 mov	 edi, ecx

; 254  : 	DWORD dwID = pWnd->GetID();

  00009	8b 4d 08	 mov	 ecx, DWORD PTR _pWnd$[ebp]
  0000c	89 7d fc	 mov	 DWORD PTR _this$[ebp], edi
  0000f	ff 15 00 00 00
	00		 call	 DWORD PTR __imp_?GetID@ioWnd@@QBEKXZ
  00015	8b f0		 mov	 esi, eax

; 255  : 	
; 256  : 	switch( dwID )

  00017	48		 dec	 eax
  00018	0f 84 29 01 00
	00		 je	 $LN18@iwm_comman@3
  0001e	48		 dec	 eax
  0001f	0f 84 04 01 00
	00		 je	 $LN16@iwm_comman@3
  00025	48		 dec	 eax
  00026	8b 5d 0c	 mov	 ebx, DWORD PTR _cmd$[ebp]
  00029	75 11		 jne	 SHORT $LN13@iwm_comman@3

; 272  : 	case ID_X:
; 273  : 		if( cmd == IOBN_BTNUP )

  0002b	83 fb 11	 cmp	 ebx, 17			; 00000011H
  0002e	0f 85 37 01 00
	00		 jne	 $LN17@iwm_comman@3

; 274  : 		{
; 275  : 			HideWnd();

  00034	8b cf		 mov	 ecx, edi
  00036	ff 15 00 00 00
	00		 call	 DWORD PTR __imp_?HideWnd@ioWnd@@QAEXXZ
$LN13@iwm_comman@3:

; 276  : 		}
; 277  : 	default:
; 278  : 		{
; 279  : 			if ( COMPARE( dwID, ID_RADIO_BTN1, ID_RADIO_BTN5 + 1 ) )

  0003c	8d 46 f6	 lea	 eax, DWORD PTR [esi-10]
  0003f	83 f8 04	 cmp	 eax, 4
  00042	77 16		 ja	 SHORT $LN11@iwm_comman@3

; 280  : 			{
; 281  : 				if( cmd == IOBN_BTNDOWN )

  00044	83 fb 10	 cmp	 ebx, 16			; 00000010H
  00047	0f 85 1e 01 00
	00		 jne	 $LN17@iwm_comman@3

; 282  : 				{
; 283  : 					ChangeRadioBtn( dwID );

  0004d	56		 push	 esi
  0004e	8b cf		 mov	 ecx, edi
  00050	e8 00 00 00 00	 call	 ?ChangeRadioBtn@GuildPossibleRewardListWnd@@IAEXK@Z ; GuildPossibleRewardListWnd::ChangeRadioBtn

; 284  : 				}
; 285  : 			}

  00055	e9 11 01 00 00	 jmp	 $LN17@iwm_comman@3
$LN11@iwm_comman@3:

; 286  : 			else if ( COMPARE( dwID, ID_ICON_BTN1, ID_ICON_BTN12 + 1 ) )

  0005a	8d 46 9c	 lea	 eax, DWORD PTR [esi-100]
  0005d	83 f8 0b	 cmp	 eax, 11			; 0000000bH
  00060	0f 87 05 01 00
	00		 ja	 $LN17@iwm_comman@3

; 287  : 			{
; 288  : 				if( cmd == IOWN_OVERED )

  00066	83 fb 04	 cmp	 ebx, 4
  00069	0f 85 82 00 00
	00		 jne	 $LN7@iwm_comman@3

; 289  : 				{
; 290  : 					RewardItemListIconBtn *pIcon = dynamic_cast<RewardItemListIconBtn*>( FindChildWnd( dwID ) );

  0006f	8b 4d fc	 mov	 ecx, DWORD PTR _this$[ebp]
  00072	33 db		 xor	 ebx, ebx
  00074	53		 push	 ebx
  00075	68 00 00 00 00	 push	 OFFSET ??_R0?AVRewardItemListIconBtn@@@8
  0007a	bf 00 00 00 00	 mov	 edi, OFFSET ??_R0?AVioWnd@@@8
  0007f	57		 push	 edi
  00080	53		 push	 ebx
  00081	56		 push	 esi
  00082	8b 35 00 00 00
	00		 mov	 esi, DWORD PTR __imp_?FindChildWnd@ioWnd@@QAEPAV1@K@Z
  00088	ff d6		 call	 esi
  0008a	50		 push	 eax
  0008b	e8 00 00 00 00	 call	 ___RTDynamicCast
  00090	83 c4 14	 add	 esp, 20			; 00000014H

; 291  : 					if ( pIcon )

  00093	3b c3		 cmp	 eax, ebx
  00095	0f 84 d0 00 00
	00		 je	 $LN17@iwm_comman@3

; 292  : 					{
; 293  : 						if ( !pIcon->GetItemName().IsEmpty() )

  0009b	8d 88 8c 02 00
	00		 lea	 ecx, DWORD PTR [eax+652]
  000a1	89 4d 0c	 mov	 DWORD PTR tv232[ebp], ecx
  000a4	ff 15 00 00 00
	00		 call	 DWORD PTR __imp_?IsEmpty@ioHashString@@QBE_NXZ
  000aa	84 c0		 test	 al, al
  000ac	0f 85 b9 00 00
	00		 jne	 $LN17@iwm_comman@3

; 294  : 						{
; 295  : 							GuildEnableRewardToolTip *pTooltip = dynamic_cast<GuildEnableRewardToolTip*>( FindChildWnd( ID_TOOLTIP ) );

  000b2	8b 4d fc	 mov	 ecx, DWORD PTR _this$[ebp]
  000b5	53		 push	 ebx
  000b6	68 00 00 00 00	 push	 OFFSET ??_R0?AVGuildEnableRewardToolTip@@@8
  000bb	57		 push	 edi
  000bc	53		 push	 ebx
  000bd	68 c8 00 00 00	 push	 200			; 000000c8H
  000c2	ff d6		 call	 esi
  000c4	50		 push	 eax
  000c5	e8 00 00 00 00	 call	 ___RTDynamicCast
  000ca	8b f0		 mov	 esi, eax
  000cc	83 c4 14	 add	 esp, 20			; 00000014H

; 296  : 							if( pTooltip )

  000cf	3b f3		 cmp	 esi, ebx
  000d1	0f 84 94 00 00
	00		 je	 $LN17@iwm_comman@3

; 297  : 								pTooltip->SetInfo( pIcon->GetItemName() );

  000d7	83 ec 10	 sub	 esp, 16			; 00000010H
  000da	8b cc		 mov	 ecx, esp
  000dc	89 65 08	 mov	 DWORD PTR $T514635[ebp], esp
  000df	ff 75 0c	 push	 DWORD PTR tv232[ebp]
  000e2	ff 15 00 00 00
	00		 call	 DWORD PTR __imp_??0ioHashString@@QAE@ABV0@@Z
  000e8	8b ce		 mov	 ecx, esi
  000ea	e8 00 00 00 00	 call	 ?SetInfo@GuildEnableRewardToolTip@@QAEXVioHashString@@@Z ; GuildEnableRewardToolTip::SetInfo

; 298  : 						}
; 299  : 					}
; 300  : 				}

  000ef	eb 7a		 jmp	 SHORT $LN17@iwm_comman@3
$LN7@iwm_comman@3:

; 301  : 				else if( cmd == IOWN_LEAVED )

  000f1	83 fb 03	 cmp	 ebx, 3
  000f4	75 75		 jne	 SHORT $LN17@iwm_comman@3

; 302  : 				{
; 303  : 					GuildEnableRewardToolTip *pTooltip = dynamic_cast<GuildEnableRewardToolTip*>( FindChildWnd( ID_TOOLTIP ) );

  000f6	33 db		 xor	 ebx, ebx
  000f8	53		 push	 ebx
  000f9	68 00 00 00 00	 push	 OFFSET ??_R0?AVGuildEnableRewardToolTip@@@8
  000fe	68 00 00 00 00	 push	 OFFSET ??_R0?AVioWnd@@@8
  00103	53		 push	 ebx
  00104	68 c8 00 00 00	 push	 200			; 000000c8H
  00109	8b cf		 mov	 ecx, edi
  0010b	ff 15 00 00 00
	00		 call	 DWORD PTR __imp_?FindChildWnd@ioWnd@@QAEPAV1@K@Z
  00111	50		 push	 eax
  00112	e8 00 00 00 00	 call	 ___RTDynamicCast
  00117	83 c4 14	 add	 esp, 20			; 00000014H

; 304  : 					if( pTooltip )

  0011a	3b c3		 cmp	 eax, ebx
  0011c	74 4d		 je	 SHORT $LN17@iwm_comman@3

; 305  : 						pTooltip->SetSize( 0, 0 );

  0011e	8b 10		 mov	 edx, DWORD PTR [eax]
  00120	53		 push	 ebx
  00121	53		 push	 ebx
  00122	8b c8		 mov	 ecx, eax
  00124	ff 52 2c	 call	 DWORD PTR [edx+44]

; 306  : 				}
; 307  : 			}
; 308  : 		}
; 309  : 		break;

  00127	eb 42		 jmp	 SHORT $LN17@iwm_comman@3
$LN16@iwm_comman@3:

; 263  : 		}
; 264  : 		break;
; 265  : 	case ID_NEXT_BTN:
; 266  : 		if( cmd == IOBN_BTNUP && !pWnd->HasWndStyle( IWS_INACTIVE ) )

  00129	83 7d 0c 11	 cmp	 DWORD PTR _cmd$[ebp], 17 ; 00000011H
  0012d	75 3c		 jne	 SHORT $LN17@iwm_comman@3
  0012f	8b 4d 08	 mov	 ecx, DWORD PTR _pWnd$[ebp]
  00132	6a 02		 push	 2
  00134	ff 15 00 00 00
	00		 call	 DWORD PTR __imp_?HasWndStyle@ioWnd@@QBE_NK@Z
  0013a	84 c0		 test	 al, al
  0013c	75 2d		 jne	 SHORT $LN17@iwm_comman@3

; 267  : 		{
; 268  : 			int iNewPage = m_iCurPage + 1;

  0013e	8b 87 fc 01 00
	00		 mov	 eax, DWORD PTR [edi+508]
  00144	40		 inc	 eax

; 269  : 			UpdatePage( iNewPage );
; 270  : 		}
; 271  : 		break;

  00145	eb 1c		 jmp	 SHORT $LN28@iwm_comman@3
$LN18@iwm_comman@3:

; 257  : 	{
; 258  : 	case ID_PRE_BTN:
; 259  : 		if( cmd == IOBN_BTNUP && !pWnd->HasWndStyle( IWS_INACTIVE ) )

  00147	83 7d 0c 11	 cmp	 DWORD PTR _cmd$[ebp], 17 ; 00000011H
  0014b	75 1e		 jne	 SHORT $LN17@iwm_comman@3
  0014d	8b 4d 08	 mov	 ecx, DWORD PTR _pWnd$[ebp]
  00150	6a 02		 push	 2
  00152	ff 15 00 00 00
	00		 call	 DWORD PTR __imp_?HasWndStyle@ioWnd@@QBE_NK@Z
  00158	84 c0		 test	 al, al
  0015a	75 0f		 jne	 SHORT $LN17@iwm_comman@3

; 260  : 		{
; 261  : 			int iNewPage = m_iCurPage - 1;

  0015c	8b 87 fc 01 00
	00		 mov	 eax, DWORD PTR [edi+508]
  00162	48		 dec	 eax
$LN28@iwm_comman@3:

; 262  : 			UpdatePage( iNewPage );

  00163	50		 push	 eax
  00164	8b cf		 mov	 ecx, edi
  00166	e8 00 00 00 00	 call	 ?UpdatePage@GuildPossibleRewardListWnd@@IAEXH@Z ; GuildPossibleRewardListWnd::UpdatePage
$LN17@iwm_comman@3:

; 310  : 	}
; 311  : }

  0016b	5f		 pop	 edi
  0016c	5e		 pop	 esi
  0016d	5b		 pop	 ebx
  0016e	c9		 leave
  0016f	c2 0c 00	 ret	 12			; 0000000cH
?iwm_command@GuildPossibleRewardListWnd@@UAEXPAVioWnd@@HK@Z ENDP ; GuildPossibleRewardListWnd::iwm_command
; Function compile flags: /Ogsp
_TEXT	ENDS
;	COMDAT ?iwm_show@GuildPossibleRewardListWnd@@UAEXXZ
_TEXT	SEGMENT
?iwm_show@GuildPossibleRewardListWnd@@UAEXXZ PROC	; GuildPossibleRewardListWnd::iwm_show, COMDAT
; _this$ = ecx

; 114  : {

  00000	56		 push	 esi
  00001	8b f1		 mov	 esi, ecx

; 115  : 	SetTitleByType();

  00003	e8 00 00 00 00	 call	 ?SetTitleByType@GuildPossibleRewardListWnd@@IAEXXZ ; GuildPossibleRewardListWnd::SetTitleByType

; 116  : 	ChangeRadioBtn( ID_RADIO_BTN1 );

  00008	6a 0a		 push	 10			; 0000000aH
  0000a	8b ce		 mov	 ecx, esi
  0000c	e8 00 00 00 00	 call	 ?ChangeRadioBtn@GuildPossibleRewardListWnd@@IAEXK@Z ; GuildPossibleRewardListWnd::ChangeRadioBtn

; 117  : 
; 118  : 	GuildEnableRewardToolTip *pToolTip = dynamic_cast<GuildEnableRewardToolTip*>( FindChildWnd( ID_TOOLTIP ) );

  00011	6a 00		 push	 0
  00013	68 00 00 00 00	 push	 OFFSET ??_R0?AVGuildEnableRewardToolTip@@@8
  00018	68 00 00 00 00	 push	 OFFSET ??_R0?AVioWnd@@@8
  0001d	6a 00		 push	 0
  0001f	68 c8 00 00 00	 push	 200			; 000000c8H
  00024	8b ce		 mov	 ecx, esi
  00026	ff 15 00 00 00
	00		 call	 DWORD PTR __imp_?FindChildWnd@ioWnd@@QAEPAV1@K@Z
  0002c	50		 push	 eax
  0002d	e8 00 00 00 00	 call	 ___RTDynamicCast
  00032	8b f0		 mov	 esi, eax
  00034	83 c4 14	 add	 esp, 20			; 00000014H

; 119  : 	if ( pToolTip && !pToolTip->IsShow() )

  00037	85 f6		 test	 esi, esi
  00039	74 20		 je	 SHORT $LN1@iwm_show@2
  0003b	8b ce		 mov	 ecx, esi
  0003d	ff 15 00 00 00
	00		 call	 DWORD PTR __imp_?IsShow@ioWnd@@QBE_NXZ
  00043	84 c0		 test	 al, al
  00045	75 14		 jne	 SHORT $LN1@iwm_show@2

; 120  : 	{
; 121  : 		pToolTip->SetSize( 0, 0 );

  00047	8b 06		 mov	 eax, DWORD PTR [esi]
  00049	6a 00		 push	 0
  0004b	6a 00		 push	 0
  0004d	8b ce		 mov	 ecx, esi
  0004f	ff 50 2c	 call	 DWORD PTR [eax+44]

; 122  : 		pToolTip->ShowWnd();

  00052	8b ce		 mov	 ecx, esi
  00054	5e		 pop	 esi
  00055	ff 25 00 00 00
	00		 jmp	 DWORD PTR __imp_?ShowWnd@ioWnd@@QAEXXZ
$LN1@iwm_show@2:
  0005b	5e		 pop	 esi

; 123  : 	}
; 124  : }

  0005c	c3		 ret	 0
?iwm_show@GuildPossibleRewardListWnd@@UAEXXZ ENDP	; GuildPossibleRewardListWnd::iwm_show
_TEXT	ENDS
END
