; Listing generated by Microsoft (R) Optimizing Compiler Version 16.00.30319.01 

	TITLE	D:\Lost Saga For Developer\Youtube\Tutorial\Source\src\LSClient\Gui\HeadquartersMainWnd.cpp
	.686P
	.XMM
	include listing.inc
	.model	flat

INCLUDELIB MSVCRT
INCLUDELIB OLDNAMES

PUBLIC	?_EEM_DS@?$deque@UD3DXVECTOR3@@V?$allocator@UD3DXVECTOR3@@@std@@@std@@2HB ; std::deque<D3DXVECTOR3,std::allocator<D3DXVECTOR3> >::_EEM_DS
PUBLIC	?sg_bAutoRefuse@HeadquartersInvitedWnd@@1_NA	; HeadquartersInvitedWnd::sg_bAutoRefuse
_BSS	SEGMENT
?sg_bAutoRefuse@HeadquartersInvitedWnd@@1_NA DB 01H DUP (?) ; HeadquartersInvitedWnd::sg_bAutoRefuse
_BSS	ENDS
;	COMDAT ?_EEM_DS@?$deque@UD3DXVECTOR3@@V?$allocator@UD3DXVECTOR3@@@std@@@std@@2HB
CONST	SEGMENT
?_EEM_DS@?$deque@UD3DXVECTOR3@@V?$allocator@UD3DXVECTOR3@@@std@@@std@@2HB DD 01H ; std::deque<D3DXVECTOR3,std::allocator<D3DXVECTOR3> >::_EEM_DS
CONST	ENDS
PUBLIC	?GetPlayMode@ioPlayStage@@QBEPAVioPlayMode@@XZ	; ioPlayStage::GetPlayMode
; Function compile flags: /Ogsp
; File d:\lost saga for developer\youtube\tutorial\source\src\lsclient\ioplaystage.h
;	COMDAT ?GetPlayMode@ioPlayStage@@QBEPAVioPlayMode@@XZ
_TEXT	SEGMENT
?GetPlayMode@ioPlayStage@@QBEPAVioPlayMode@@XZ PROC	; ioPlayStage::GetPlayMode, COMDAT
; _this$ = ecx

; 780  : 	inline ioPlayMode* GetPlayMode() const { return m_pPlayMode; }

  00000	8b 81 10 01 00
	00		 mov	 eax, DWORD PTR [ecx+272]
  00006	c3		 ret	 0
?GetPlayMode@ioPlayStage@@QBEPAVioPlayMode@@XZ ENDP	; ioPlayStage::GetPlayMode
_TEXT	ENDS
PUBLIC	?return100@@YAIXZ				; return100
; Function compile flags: /Ogsp
; File d:\lost saga for developer\youtube\tutorial\source\src\lsclient\stdafx.h
;	COMDAT ?return100@@YAIXZ
_TEXT	SEGMENT
?return100@@YAIXZ PROC					; return100, COMDAT

; 25   : 	__forceinline unsigned int return100() { __asm mov eax, 100 };

  00000	b8 64 00 00 00	 mov	 eax, 100		; 00000064H
  00005	c3		 ret	 0
?return100@@YAIXZ ENDP					; return100
_TEXT	ENDS
PUBLIC	?return1000@@YAIXZ				; return1000
; Function compile flags: /Ogsp
;	COMDAT ?return1000@@YAIXZ
_TEXT	SEGMENT
?return1000@@YAIXZ PROC					; return1000, COMDAT

; 29   : 	__forceinline unsigned int return1000() { __asm mov eax, 1000 };

  00000	b8 e8 03 00 00	 mov	 eax, 1000		; 000003e8H
  00005	c3		 ret	 0
?return1000@@YAIXZ ENDP					; return1000
_TEXT	ENDS
PUBLIC	??0tagHeadquartersInfo@@QAE@XZ			; tagHeadquartersInfo::tagHeadquartersInfo
EXTRN	__imp_??0ioHashString@@QAE@XZ:PROC
; Function compile flags: /Ogsp
; File d:\lost saga for developer\youtube\tutorial\source\src\lsclient\gui\headquartersmainwnd.h
;	COMDAT ??0tagHeadquartersInfo@@QAE@XZ
_TEXT	SEGMENT
??0tagHeadquartersInfo@@QAE@XZ PROC			; tagHeadquartersInfo::tagHeadquartersInfo, COMDAT
; _this$ = ecx

; 20   : 	tagHeadquartersInfo()

  00000	56		 push	 esi
  00001	8b f1		 mov	 esi, ecx
  00003	ff 15 00 00 00
	00		 call	 DWORD PTR __imp_??0ioHashString@@QAE@XZ

; 21   : 	{
; 22   : 		m_iMaxUserCount	= 0;		

  00009	83 66 10 00	 and	 DWORD PTR [esi+16], 0

; 23   : 		m_bLock     	= false;

  0000d	c6 46 14 00	 mov	 BYTE PTR [esi+20], 0

; 24   : 	}

  00011	8b c6		 mov	 eax, esi
  00013	5e		 pop	 esi
  00014	c3		 ret	 0
??0tagHeadquartersInfo@@QAE@XZ ENDP			; tagHeadquartersInfo::tagHeadquartersInfo
_TEXT	ENDS
PUBLIC	??0tagHeadquartersUserInfo@@QAE@XZ		; tagHeadquartersUserInfo::tagHeadquartersUserInfo
; Function compile flags: /Ogsp
;	COMDAT ??0tagHeadquartersUserInfo@@QAE@XZ
_TEXT	SEGMENT
??0tagHeadquartersUserInfo@@QAE@XZ PROC			; tagHeadquartersUserInfo::tagHeadquartersUserInfo, COMDAT
; _this$ = ecx

; 39   : 	tagHeadquartersUserInfo()

  00000	56		 push	 esi
  00001	8b f1		 mov	 esi, ecx
  00003	ff 15 00 00 00
	00		 call	 DWORD PTR __imp_??0ioHashString@@QAE@XZ

; 40   : 	{
; 41   : 		m_iGradeLevel = 0;

  00009	33 c0		 xor	 eax, eax
  0000b	89 46 10	 mov	 DWORD PTR [esi+16], eax

; 42   : 		m_iServerPingStep = 0;

  0000e	89 46 14	 mov	 DWORD PTR [esi+20], eax

; 43   : 		m_bMyFriend = false;

  00011	88 46 18	 mov	 BYTE PTR [esi+24], al

; 44   : 		
; 45   : 		m_dwUserIndex = 0;

  00014	89 46 1c	 mov	 DWORD PTR [esi+28], eax

; 46   : 		m_dwGuildIndex = 0;

  00017	89 46 20	 mov	 DWORD PTR [esi+32], eax

; 47   : 		m_dwGuildMark = 0;

  0001a	89 46 24	 mov	 DWORD PTR [esi+36], eax

; 48   : 	}

  0001d	8b c6		 mov	 eax, esi
  0001f	5e		 pop	 esi
  00020	c3		 ret	 0
??0tagHeadquartersUserInfo@@QAE@XZ ENDP			; tagHeadquartersUserInfo::tagHeadquartersUserInfo
_TEXT	ENDS
PUBLIC	?GetLevel@HeadquartersInviteList@@QBEHXZ	; HeadquartersInviteList::GetLevel
; Function compile flags: /Ogsp
;	COMDAT ?GetLevel@HeadquartersInviteList@@QBEHXZ
_TEXT	SEGMENT
?GetLevel@HeadquartersInviteList@@QBEHXZ PROC		; HeadquartersInviteList::GetLevel, COMDAT
; _this$ = ecx

; 334  : 	int  GetLevel() const { return m_iGradeLevel; }

  00000	8b 81 04 02 00
	00		 mov	 eax, DWORD PTR [ecx+516]
  00006	c3		 ret	 0
?GetLevel@HeadquartersInviteList@@QBEHXZ ENDP		; HeadquartersInviteList::GetLevel
_TEXT	ENDS
PUBLIC	?GetName@HeadquartersInviteList@@QBEABVioHashString@@XZ ; HeadquartersInviteList::GetName
; Function compile flags: /Ogsp
;	COMDAT ?GetName@HeadquartersInviteList@@QBEABVioHashString@@XZ
_TEXT	SEGMENT
?GetName@HeadquartersInviteList@@QBEABVioHashString@@XZ PROC ; HeadquartersInviteList::GetName, COMDAT
; _this$ = ecx

; 335  : 	const ioHashString &GetName() const { return m_szName; }

  00000	8d 81 08 02 00
	00		 lea	 eax, DWORD PTR [ecx+520]
  00006	c3		 ret	 0
?GetName@HeadquartersInviteList@@QBEABVioHashString@@XZ ENDP ; HeadquartersInviteList::GetName
_TEXT	ENDS
PUBLIC	??0UserInviteInfo@HeadquartersInviteListWnd@@QAE@XZ ; HeadquartersInviteListWnd::UserInviteInfo::UserInviteInfo
; Function compile flags: /Ogsp
;	COMDAT ??0UserInviteInfo@HeadquartersInviteListWnd@@QAE@XZ
_TEXT	SEGMENT
??0UserInviteInfo@HeadquartersInviteListWnd@@QAE@XZ PROC ; HeadquartersInviteListWnd::UserInviteInfo::UserInviteInfo, COMDAT
; _this$ = ecx

; 392  : 		UserInviteInfo()

  00000	56		 push	 esi
  00001	8b f1		 mov	 esi, ecx
  00003	ff 15 00 00 00
	00		 call	 DWORD PTR __imp_??0ioHashString@@QAE@XZ

; 393  : 		{
; 394  : 			m_iLevel = 0;

  00009	83 66 10 00	 and	 DWORD PTR [esi+16], 0

; 395  : 		}

  0000d	8b c6		 mov	 eax, esi
  0000f	5e		 pop	 esi
  00010	c3		 ret	 0
??0UserInviteInfo@HeadquartersInviteListWnd@@QAE@XZ ENDP ; HeadquartersInviteListWnd::UserInviteInfo::UserInviteInfo
_TEXT	ENDS
PUBLIC	?GetMemberName@HeadquartersInvitedBtn@@QAEABVioHashString@@XZ ; HeadquartersInvitedBtn::GetMemberName
; Function compile flags: /Ogsp
;	COMDAT ?GetMemberName@HeadquartersInvitedBtn@@QAEABVioHashString@@XZ
_TEXT	SEGMENT
?GetMemberName@HeadquartersInvitedBtn@@QAEABVioHashString@@XZ PROC ; HeadquartersInvitedBtn::GetMemberName, COMDAT
; _this$ = ecx

; 457  : 	const ioHashString &GetMemberName(){ return m_szName; }

  00000	8d 81 04 02 00
	00		 lea	 eax, DWORD PTR [ecx+516]
  00006	c3		 ret	 0
?GetMemberName@HeadquartersInvitedBtn@@QAEABVioHashString@@XZ ENDP ; HeadquartersInvitedBtn::GetMemberName
_TEXT	ENDS
PUBLIC	??_7bad_alloc@std@@6B@				; std::bad_alloc::`vftable'
PUBLIC	??0bad_alloc@std@@QAE@PBD@Z			; std::bad_alloc::bad_alloc
PUBLIC	??_R4bad_alloc@std@@6B@				; std::bad_alloc::`RTTI Complete Object Locator'
PUBLIC	??_R0?AVbad_alloc@std@@@8			; std::bad_alloc `RTTI Type Descriptor'
PUBLIC	??_R3bad_alloc@std@@8				; std::bad_alloc::`RTTI Class Hierarchy Descriptor'
PUBLIC	??_R2bad_alloc@std@@8				; std::bad_alloc::`RTTI Base Class Array'
PUBLIC	??_R1A@?0A@EA@bad_alloc@std@@8			; std::bad_alloc::`RTTI Base Class Descriptor at (0,-1,0,64)'
PUBLIC	??_R1A@?0A@EA@exception@std@@8			; std::exception::`RTTI Base Class Descriptor at (0,-1,0,64)'
PUBLIC	??_R0?AVexception@std@@@8			; std::exception `RTTI Type Descriptor'
PUBLIC	??_R3exception@std@@8				; std::exception::`RTTI Class Hierarchy Descriptor'
PUBLIC	??_R2exception@std@@8				; std::exception::`RTTI Base Class Array'
EXTRN	__imp_??0exception@std@@QAE@ABQBD@Z:PROC
EXTRN	??_7type_info@@6B@:QWORD			; type_info::`vftable'
EXTRN	??_Ebad_alloc@std@@UAEPAXI@Z:PROC		; std::bad_alloc::`vector deleting destructor'
EXTRN	?what@exception@std@@UBEPBDXZ:PROC		; std::exception::what
;	COMDAT ??_R2exception@std@@8
; File c:\program files (x86)\microsoft visual studio 10.0\vc\include\exception
rdata$r	SEGMENT
??_R2exception@std@@8 DD FLAT:??_R1A@?0A@EA@exception@std@@8 ; std::exception::`RTTI Base Class Array'
rdata$r	ENDS
;	COMDAT ??_R3exception@std@@8
rdata$r	SEGMENT
??_R3exception@std@@8 DD 00H				; std::exception::`RTTI Class Hierarchy Descriptor'
	DD	00H
	DD	01H
	DD	FLAT:??_R2exception@std@@8
rdata$r	ENDS
;	COMDAT ??_R0?AVexception@std@@@8
_DATA	SEGMENT
??_R0?AVexception@std@@@8 DD FLAT:??_7type_info@@6B@	; std::exception `RTTI Type Descriptor'
	DD	00H
	DB	'.?AVexception@std@@', 00H
_DATA	ENDS
;	COMDAT ??_R1A@?0A@EA@exception@std@@8
rdata$r	SEGMENT
??_R1A@?0A@EA@exception@std@@8 DD FLAT:??_R0?AVexception@std@@@8 ; std::exception::`RTTI Base Class Descriptor at (0,-1,0,64)'
	DD	00H
	DD	00H
	DD	0ffffffffH
	DD	00H
	DD	040H
	DD	FLAT:??_R3exception@std@@8
rdata$r	ENDS
;	COMDAT ??_R1A@?0A@EA@bad_alloc@std@@8
rdata$r	SEGMENT
??_R1A@?0A@EA@bad_alloc@std@@8 DD FLAT:??_R0?AVbad_alloc@std@@@8 ; std::bad_alloc::`RTTI Base Class Descriptor at (0,-1,0,64)'
	DD	01H
	DD	00H
	DD	0ffffffffH
	DD	00H
	DD	040H
	DD	FLAT:??_R3bad_alloc@std@@8
rdata$r	ENDS
;	COMDAT ??_R2bad_alloc@std@@8
rdata$r	SEGMENT
??_R2bad_alloc@std@@8 DD FLAT:??_R1A@?0A@EA@bad_alloc@std@@8 ; std::bad_alloc::`RTTI Base Class Array'
	DD	FLAT:??_R1A@?0A@EA@exception@std@@8
rdata$r	ENDS
;	COMDAT ??_R3bad_alloc@std@@8
rdata$r	SEGMENT
??_R3bad_alloc@std@@8 DD 00H				; std::bad_alloc::`RTTI Class Hierarchy Descriptor'
	DD	00H
	DD	02H
	DD	FLAT:??_R2bad_alloc@std@@8
rdata$r	ENDS
;	COMDAT ??_R0?AVbad_alloc@std@@@8
_DATA	SEGMENT
??_R0?AVbad_alloc@std@@@8 DD FLAT:??_7type_info@@6B@	; std::bad_alloc `RTTI Type Descriptor'
	DD	00H
	DB	'.?AVbad_alloc@std@@', 00H
_DATA	ENDS
;	COMDAT ??_R4bad_alloc@std@@6B@
rdata$r	SEGMENT
??_R4bad_alloc@std@@6B@ DD 00H				; std::bad_alloc::`RTTI Complete Object Locator'
	DD	00H
	DD	00H
	DD	FLAT:??_R0?AVbad_alloc@std@@@8
	DD	FLAT:??_R3bad_alloc@std@@8
rdata$r	ENDS
;	COMDAT ??_7bad_alloc@std@@6B@
CONST	SEGMENT
??_7bad_alloc@std@@6B@ DD FLAT:??_R4bad_alloc@std@@6B@	; std::bad_alloc::`vftable'
	DD	FLAT:??_Ebad_alloc@std@@UAEPAXI@Z
	DD	FLAT:?what@exception@std@@UBEPBDXZ
; Function compile flags: /Ogsp
CONST	ENDS
;	COMDAT ??0bad_alloc@std@@QAE@PBD@Z
_TEXT	SEGMENT
__Message$ = 8						; size = 4
??0bad_alloc@std@@QAE@PBD@Z PROC			; std::bad_alloc::bad_alloc, COMDAT
; _this$ = ecx

; 345  : 		{	// construct from message string

  00000	55		 push	 ebp
  00001	8b ec		 mov	 ebp, esp
  00003	56		 push	 esi
  00004	8d 45 08	 lea	 eax, DWORD PTR __Message$[ebp]
  00007	50		 push	 eax
  00008	8b f1		 mov	 esi, ecx
  0000a	ff 15 00 00 00
	00		 call	 DWORD PTR __imp_??0exception@std@@QAE@ABQBD@Z
  00010	c7 06 00 00 00
	00		 mov	 DWORD PTR [esi], OFFSET ??_7bad_alloc@std@@6B@

; 346  : 		}

  00016	8b c6		 mov	 eax, esi
  00018	5e		 pop	 esi
  00019	5d		 pop	 ebp
  0001a	c2 04 00	 ret	 4
??0bad_alloc@std@@QAE@PBD@Z ENDP			; std::bad_alloc::bad_alloc
_TEXT	ENDS
PUBLIC	??1bad_alloc@std@@UAE@XZ			; std::bad_alloc::~bad_alloc
EXTRN	__imp_??1exception@std@@UAE@XZ:PROC
; Function compile flags: /Ogsp
;	COMDAT ??1bad_alloc@std@@UAE@XZ
_TEXT	SEGMENT
??1bad_alloc@std@@UAE@XZ PROC				; std::bad_alloc::~bad_alloc, COMDAT
; _this$ = ecx

; 354  : 		{	// destroy the object

  00000	c7 01 00 00 00
	00		 mov	 DWORD PTR [ecx], OFFSET ??_7bad_alloc@std@@6B@

; 355  : 		}

  00006	ff 25 00 00 00
	00		 jmp	 DWORD PTR __imp_??1exception@std@@UAE@XZ
??1bad_alloc@std@@UAE@XZ ENDP				; std::bad_alloc::~bad_alloc
_TEXT	ENDS
PUBLIC	??1tagHeadquartersInfo@@QAE@XZ			; tagHeadquartersInfo::~tagHeadquartersInfo
EXTRN	__imp_??1ioHashString@@QAE@XZ:PROC
; Function compile flags: /Ogsp
;	COMDAT ??1tagHeadquartersInfo@@QAE@XZ
_TEXT	SEGMENT
??1tagHeadquartersInfo@@QAE@XZ PROC			; tagHeadquartersInfo::~tagHeadquartersInfo, COMDAT
; _this$ = ecx
  00000	ff 25 00 00 00
	00		 jmp	 DWORD PTR __imp_??1ioHashString@@QAE@XZ
??1tagHeadquartersInfo@@QAE@XZ ENDP			; tagHeadquartersInfo::~tagHeadquartersInfo
_TEXT	ENDS
EXTRN	??3@YAXPAX@Z:PROC				; operator delete
; Function compile flags: /Ogsp
;	COMDAT ??_Gbad_alloc@std@@UAEPAXI@Z
_TEXT	SEGMENT
___flags$ = 8						; size = 4
??_Gbad_alloc@std@@UAEPAXI@Z PROC			; std::bad_alloc::`scalar deleting destructor', COMDAT
; _this$ = ecx
  00000	55		 push	 ebp
  00001	8b ec		 mov	 ebp, esp
  00003	56		 push	 esi
  00004	8b f1		 mov	 esi, ecx
  00006	c7 06 00 00 00
	00		 mov	 DWORD PTR [esi], OFFSET ??_7bad_alloc@std@@6B@
  0000c	ff 15 00 00 00
	00		 call	 DWORD PTR __imp_??1exception@std@@UAE@XZ
  00012	f6 45 08 01	 test	 BYTE PTR ___flags$[ebp], 1
  00016	74 07		 je	 SHORT $LN1@scalar
  00018	56		 push	 esi
  00019	e8 00 00 00 00	 call	 ??3@YAXPAX@Z		; operator delete
  0001e	59		 pop	 ecx
$LN1@scalar:
  0001f	8b c6		 mov	 eax, esi
  00021	5e		 pop	 esi
  00022	5d		 pop	 ebp
  00023	c2 04 00	 ret	 4
??_Gbad_alloc@std@@UAEPAXI@Z ENDP			; std::bad_alloc::`scalar deleting destructor'
_TEXT	ENDS
PUBLIC	??2@YAPAXIPAX@Z					; operator new
; Function compile flags: /Ogsp
; File c:\program files (x86)\microsoft visual studio 10.0\vc\include\new
;	COMDAT ??2@YAPAXIPAX@Z
_TEXT	SEGMENT
___formal$ = 8						; size = 4
__Where$ = 12						; size = 4
??2@YAPAXIPAX@Z PROC					; operator new, COMDAT

; 56   : 	{	// construct array with placement at _Where

  00000	55		 push	 ebp
  00001	8b ec		 mov	 ebp, esp

; 57   : 	return (_Where);

  00003	8b 45 0c	 mov	 eax, DWORD PTR __Where$[ebp]

; 58   : 	}

  00006	5d		 pop	 ebp
  00007	c3		 ret	 0
??2@YAPAXIPAX@Z ENDP					; operator new
_TEXT	ENDS
PUBLIC	??3@YAXPAX0@Z					; operator delete
; Function compile flags: /Ogsp
;	COMDAT ??3@YAXPAX0@Z
_TEXT	SEGMENT
___formal$ = 8						; size = 4
___formal$ = 12						; size = 4
??3@YAXPAX0@Z PROC					; operator delete, COMDAT

; 62   : 	}

  00000	c3		 ret	 0
??3@YAXPAX0@Z ENDP					; operator delete
_TEXT	ENDS
PUBLIC	??1tagHeadquartersUserInfo@@QAE@XZ		; tagHeadquartersUserInfo::~tagHeadquartersUserInfo
; Function compile flags: /Ogsp
;	COMDAT ??1tagHeadquartersUserInfo@@QAE@XZ
_TEXT	SEGMENT
??1tagHeadquartersUserInfo@@QAE@XZ PROC			; tagHeadquartersUserInfo::~tagHeadquartersUserInfo, COMDAT
; _this$ = ecx
  00000	ff 25 00 00 00
	00		 jmp	 DWORD PTR __imp_??1ioHashString@@QAE@XZ
??1tagHeadquartersUserInfo@@QAE@XZ ENDP			; tagHeadquartersUserInfo::~tagHeadquartersUserInfo
_TEXT	ENDS
PUBLIC	?iwm_show@HeadquartersInfoWnd@@UAEXXZ		; HeadquartersInfoWnd::iwm_show
EXTRN	__imp_?SetChildWndStyleAdd@ioWnd@@QAEXKK@Z:PROC
EXTRN	__imp_?SetChildWndStyleRemove@ioWnd@@QAEXKK@Z:PROC
EXTRN	?IsLadderTeam@ioLadderTeamMgr@@QAE_NXZ:PROC	; ioLadderTeamMgr::IsLadderTeam
EXTRN	?GetSingleton@ioLadderTeamMgr@@SAAAV1@XZ:PROC	; ioLadderTeamMgr::GetSingleton
EXTRN	?IsBattleRoom@ioBattleRoomMgr@@QAE_NXZ:PROC	; ioBattleRoomMgr::IsBattleRoom
EXTRN	?GetSingleton@ioBattleRoomMgr@@SAAAV1@XZ:PROC	; ioBattleRoomMgr::GetSingleton
EXTRN	?GetActiveExerciseCharCount@ioMyInfo@@QAEHXZ:PROC ; ioMyInfo::GetActiveExerciseCharCount
EXTRN	?GetActiveCharCount@ioMyInfo@@QAEHXZ:PROC	; ioMyInfo::GetActiveCharCount
EXTRN	?GetCharCount@ioMyInfo@@QBEHXZ:PROC		; ioMyInfo::GetCharCount
EXTRN	?IsTutorialUser@ioMyInfo@@QAE_NXZ:PROC		; ioMyInfo::IsTutorialUser
EXTRN	?GetSingleton@ioMyInfo@@SAAAV1@XZ:PROC		; ioMyInfo::GetSingleton
; Function compile flags: /Ogsp
; File d:\lost saga for developer\youtube\tutorial\source\src\lsclient\gui\headquartersmainwnd.cpp
;	COMDAT ?iwm_show@HeadquartersInfoWnd@@UAEXXZ
_TEXT	SEGMENT
?iwm_show@HeadquartersInfoWnd@@UAEXXZ PROC		; HeadquartersInfoWnd::iwm_show, COMDAT
; _this$ = ecx

; 228  : {

  00000	56		 push	 esi
  00001	8b f1		 mov	 esi, ecx

; 229  : 	if( g_MyInfo.IsTutorialUser() ||
; 230  : 		g_MyInfo.GetCharCount() == 0 || 
; 231  : 		(g_MyInfo.GetActiveCharCount() == 1 && g_MyInfo.GetActiveExerciseCharCount()) ||
; 232  : 		g_BattleRoomMgr.IsBattleRoom() ||
; 233  : 		g_LadderTeamMgr.IsLadderTeam() ||
; 234  : 		m_HeadquartersInfo.m_bLock ||
; 235  : 		m_bMyCurrentRoom )

  00003	e8 00 00 00 00	 call	 ?GetSingleton@ioMyInfo@@SAAAV1@XZ ; ioMyInfo::GetSingleton
  00008	8b c8		 mov	 ecx, eax
  0000a	e8 00 00 00 00	 call	 ?IsTutorialUser@ioMyInfo@@QAE_NXZ ; ioMyInfo::IsTutorialUser
  0000f	84 c0		 test	 al, al
  00011	75 72		 jne	 SHORT $LN3@iwm_show
  00013	e8 00 00 00 00	 call	 ?GetSingleton@ioMyInfo@@SAAAV1@XZ ; ioMyInfo::GetSingleton
  00018	8b c8		 mov	 ecx, eax
  0001a	e8 00 00 00 00	 call	 ?GetCharCount@ioMyInfo@@QBEHXZ ; ioMyInfo::GetCharCount
  0001f	85 c0		 test	 eax, eax
  00021	74 62		 je	 SHORT $LN3@iwm_show
  00023	e8 00 00 00 00	 call	 ?GetSingleton@ioMyInfo@@SAAAV1@XZ ; ioMyInfo::GetSingleton
  00028	8b c8		 mov	 ecx, eax
  0002a	e8 00 00 00 00	 call	 ?GetActiveCharCount@ioMyInfo@@QAEHXZ ; ioMyInfo::GetActiveCharCount
  0002f	83 f8 01	 cmp	 eax, 1
  00032	75 10		 jne	 SHORT $LN2@iwm_show
  00034	e8 00 00 00 00	 call	 ?GetSingleton@ioMyInfo@@SAAAV1@XZ ; ioMyInfo::GetSingleton
  00039	8b c8		 mov	 ecx, eax
  0003b	e8 00 00 00 00	 call	 ?GetActiveExerciseCharCount@ioMyInfo@@QAEHXZ ; ioMyInfo::GetActiveExerciseCharCount
  00040	85 c0		 test	 eax, eax
  00042	75 41		 jne	 SHORT $LN3@iwm_show
$LN2@iwm_show:
  00044	e8 00 00 00 00	 call	 ?GetSingleton@ioBattleRoomMgr@@SAAAV1@XZ ; ioBattleRoomMgr::GetSingleton
  00049	8b c8		 mov	 ecx, eax
  0004b	e8 00 00 00 00	 call	 ?IsBattleRoom@ioBattleRoomMgr@@QAE_NXZ ; ioBattleRoomMgr::IsBattleRoom
  00050	84 c0		 test	 al, al
  00052	75 31		 jne	 SHORT $LN3@iwm_show
  00054	e8 00 00 00 00	 call	 ?GetSingleton@ioLadderTeamMgr@@SAAAV1@XZ ; ioLadderTeamMgr::GetSingleton
  00059	8b c8		 mov	 ecx, eax
  0005b	e8 00 00 00 00	 call	 ?IsLadderTeam@ioLadderTeamMgr@@QAE_NXZ ; ioLadderTeamMgr::IsLadderTeam
  00060	84 c0		 test	 al, al
  00062	75 21		 jne	 SHORT $LN3@iwm_show
  00064	38 86 c0 01 00
	00		 cmp	 BYTE PTR [esi+448], al
  0006a	75 19		 jne	 SHORT $LN3@iwm_show
  0006c	38 86 d4 01 00
	00		 cmp	 BYTE PTR [esi+468], al
  00072	75 11		 jne	 SHORT $LN3@iwm_show

; 238  : 	}
; 239  : 	else
; 240  : 	{
; 241  : 		SetChildWndStyleRemove( ID_ENTER_HQ, IWS_EXACTIVE );

  00074	68 00 10 00 00	 push	 4096			; 00001000H
  00079	6a 02		 push	 2
  0007b	8b ce		 mov	 ecx, esi
  0007d	ff 15 00 00 00
	00		 call	 DWORD PTR __imp_?SetChildWndStyleRemove@ioWnd@@QAEXKK@Z
  00083	5e		 pop	 esi

; 242  : 	}
; 243  : }

  00084	c3		 ret	 0
$LN3@iwm_show:

; 236  : 	{	
; 237  : 		SetChildWndStyleAdd( ID_ENTER_HQ, IWS_EXACTIVE );

  00085	68 00 10 00 00	 push	 4096			; 00001000H
  0008a	6a 02		 push	 2
  0008c	8b ce		 mov	 ecx, esi
  0008e	ff 15 00 00 00
	00		 call	 DWORD PTR __imp_?SetChildWndStyleAdd@ioWnd@@QAEXKK@Z
  00094	5e		 pop	 esi

; 242  : 	}
; 243  : }

  00095	c3		 ret	 0
?iwm_show@HeadquartersInfoWnd@@UAEXXZ ENDP		; HeadquartersInfoWnd::iwm_show
_TEXT	ENDS
PUBLIC	?iwm_hide@HeadquartersInfoWnd@@UAEXXZ		; HeadquartersInfoWnd::iwm_hide
; Function compile flags: /Ogsp
;	COMDAT ?iwm_hide@HeadquartersInfoWnd@@UAEXXZ
_TEXT	SEGMENT
?iwm_hide@HeadquartersInfoWnd@@UAEXXZ PROC		; HeadquartersInfoWnd::iwm_hide, COMDAT
; _this$ = ecx

; 247  : }

  00000	c3		 ret	 0
?iwm_hide@HeadquartersInfoWnd@@UAEXXZ ENDP		; HeadquartersInfoWnd::iwm_hide
_TEXT	ENDS
PUBLIC	__real@3f19999a
PUBLIC	__real@42680000
PUBLIC	?OnRenderBar@HeadquartersInfoWnd@@IAEXHHHHVioHashString@@H@Z ; HeadquartersInfoWnd::OnRenderBar
EXTRN	__imp_?PrintTextWidthCut@ioFontManager@@QAAXMMMMPBDZZ:PROC
EXTRN	__imp_?c_str@ioHashString@@QBEPBDXZ:PROC
EXTRN	__imp_?SetTextColor@ioFontManager@@QAEXK@Z:PROC
EXTRN	__imp_?SetTextColor@ioFontManager@@QAEXHHH@Z:PROC
EXTRN	?RenderGrade@ioMyLevelMgr@@QAEXHHKW4TeamType@@W4UIRenderType@@K@Z:PROC ; ioMyLevelMgr::RenderGrade
EXTRN	?GetSingleton@ioMyLevelMgr@@SAAAV1@XZ:PROC	; ioMyLevelMgr::GetSingleton
EXTRN	__imp_??8ioHashString@@QBE_NABV0@@Z:PROC
EXTRN	__imp_?IsEmpty@ioHashString@@QBE_NXZ:PROC
EXTRN	__imp_?SetBkColor@ioFontManager@@QAEXHHH@Z:PROC
EXTRN	__imp_?SetAlignType@ioFontManager@@QAEXW4TextAlignType@@@Z:PROC
EXTRN	__imp_?SetTextStyle@ioFontManager@@QAEXW4TextStyle@@@Z:PROC
EXTRN	__imp_?GetSingleton@ioFontManager@@SAAAV1@XZ:PROC
EXTRN	___CxxFrameHandler3:PROC
EXTRN	@__security_check_cookie@4:PROC
EXTRN	__fltused:DWORD
EXTRN	__EH_epilog3:PROC
EXTRN	__EH_prolog3:PROC
;	COMDAT __real@3f19999a
CONST	SEGMENT
__real@3f19999a DD 03f19999ar			; 0.6
CONST	ENDS
;	COMDAT __real@42680000
CONST	SEGMENT
__real@42680000 DD 042680000r			; 58
CONST	ENDS
;	COMDAT xdata$x
xdata$x	SEGMENT
__unwindtable$?OnRenderBar@HeadquartersInfoWnd@@IAEXHHHHVioHashString@@H@Z DD 0ffffffffH
	DD	FLAT:__unwindfunclet$?OnRenderBar@HeadquartersInfoWnd@@IAEXHHHHVioHashString@@H@Z$0
__ehfuncinfo$?OnRenderBar@HeadquartersInfoWnd@@IAEXHHHHVioHashString@@H@Z DD 019930522H
	DD	01H
	DD	FLAT:__unwindtable$?OnRenderBar@HeadquartersInfoWnd@@IAEXHHHHVioHashString@@H@Z
	DD	2 DUP(00H)
	DD	2 DUP(00H)
	DD	00H
	DD	01H
; Function compile flags: /Ogsp
xdata$x	ENDS
;	COMDAT ?OnRenderBar@HeadquartersInfoWnd@@IAEXHHHHVioHashString@@H@Z
_TEXT	SEGMENT
_this$ = -16						; size = 4
__$EHRec$ = -12						; size = 12
_iXPos$ = 8						; size = 4
_iYPos$ = 12						; size = 4
_iMaxSlot$ = 16						; size = 4
_iCurSlot$ = 20						; size = 4
_szName$ = 24						; size = 16
_iGradeLevel$ = 40					; size = 4
?OnRenderBar@HeadquartersInfoWnd@@IAEXHHHHVioHashString@@H@Z PROC ; HeadquartersInfoWnd::OnRenderBar, COMDAT
; _this$ = ecx

; 332  : {

  00000	6a 04		 push	 4
  00002	b8 00 00 00 00	 mov	 eax, __ehhandler$?OnRenderBar@HeadquartersInfoWnd@@IAEXHHHHVioHashString@@H@Z
  00007	e8 00 00 00 00	 call	 __EH_prolog3
  0000c	89 4d f0	 mov	 DWORD PTR _this$[ebp], ecx

; 333  : 	// 바탕
; 334  : 	if( iCurSlot % 2 == 0 )

  0000f	8b 45 14	 mov	 eax, DWORD PTR _iCurSlot$[ebp]
  00012	33 f6		 xor	 esi, esi
  00014	25 01 00 00 80	 and	 eax, -2147483647	; 80000001H
  00019	89 75 fc	 mov	 DWORD PTR __$EHRec$[ebp+8], esi
  0001c	79 05		 jns	 SHORT $LN20@OnRenderBa
  0001e	48		 dec	 eax
  0001f	83 c8 fe	 or	 eax, -2			; fffffffeH
  00022	40		 inc	 eax
$LN20@OnRenderBa:
  00023	8b 5d 0c	 mov	 ebx, DWORD PTR _iYPos$[ebp]
  00026	75 08		 jne	 SHORT $LN13@OnRenderBa

; 335  : 	{
; 336  : 		if( m_pBarNormal )

  00028	8b 89 90 01 00
	00		 mov	 ecx, DWORD PTR [ecx+400]

; 337  : 			m_pBarNormal->Render( iXPos, iYPos );
; 338  : 	}

  0002e	eb 06		 jmp	 SHORT $LN21@OnRenderBa
$LN13@OnRenderBa:

; 339  : 	else if( m_pBarNormalLight )

  00030	8b 89 94 01 00
	00		 mov	 ecx, DWORD PTR [ecx+404]
$LN21@OnRenderBa:
  00036	3b ce		 cmp	 ecx, esi
  00038	74 24		 je	 SHORT $LN10@OnRenderBa

; 340  : 	{
; 341  : 		m_pBarNormalLight->Render( iXPos, iYPos );

  0003a	8b 01		 mov	 eax, DWORD PTR [ecx]
  0003c	56		 push	 esi
  0003d	56		 push	 esi
  0003e	56		 push	 esi
  0003f	56		 push	 esi
  00040	51		 push	 ecx
  00041	0f 57 c0	 xorps	 xmm0, xmm0
  00044	51		 push	 ecx
  00045	f3 0f 2a c3	 cvtsi2ss xmm0, ebx
  00049	f3 0f 11 44 24
	04		 movss	 DWORD PTR [esp+4], xmm0
  0004f	66 0f 6e 45 08	 movd	 xmm0, DWORD PTR _iXPos$[ebp]
  00054	0f 5b c0	 cvtdq2ps xmm0, xmm0
  00057	f3 0f 11 04 24	 movss	 DWORD PTR [esp], xmm0
  0005c	ff 10		 call	 DWORD PTR [eax]
$LN10@OnRenderBa:

; 342  : 	}
; 343  : 	
; 344  : 	g_FontMgr.SetTextStyle( TS_NORMAL );	

  0005e	8b 3d 00 00 00
	00		 mov	 edi, DWORD PTR __imp_?GetSingleton@ioFontManager@@SAAAV1@XZ
  00064	56		 push	 esi
  00065	ff d7		 call	 edi
  00067	8b c8		 mov	 ecx, eax
  00069	ff 15 00 00 00
	00		 call	 DWORD PTR __imp_?SetTextStyle@ioFontManager@@QAEXW4TextStyle@@@Z

; 345  : 	g_FontMgr.SetAlignType( TAT_LEFT );

  0006f	56		 push	 esi
  00070	ff d7		 call	 edi
  00072	8b c8		 mov	 ecx, eax
  00074	ff 15 00 00 00
	00		 call	 DWORD PTR __imp_?SetAlignType@ioFontManager@@QAEXW4TextAlignType@@@Z

; 346  : 	g_FontMgr.SetBkColor( 0, 0, 0 );

  0007a	56		 push	 esi
  0007b	56		 push	 esi
  0007c	56		 push	 esi
  0007d	ff d7		 call	 edi
  0007f	8b c8		 mov	 ecx, eax
  00081	ff 15 00 00 00
	00		 call	 DWORD PTR __imp_?SetBkColor@ioFontManager@@QAEXHHH@Z

; 347  : 
; 348  : 	// 사람 아이콘
; 349  : 	if( szName.IsEmpty() )

  00087	8d 4d 18	 lea	 ecx, DWORD PTR _szName$[ebp]
  0008a	ff 15 00 00 00
	00		 call	 DWORD PTR __imp_?IsEmpty@ioHashString@@QBE_NXZ
  00090	84 c0		 test	 al, al
  00092	74 52		 je	 SHORT $LN9@OnRenderBa

; 350  : 	{
; 351  : 		if( iCurSlot < iMaxSlot )

  00094	8b 45 14	 mov	 eax, DWORD PTR _iCurSlot$[ebp]
  00097	3b 45 10	 cmp	 eax, DWORD PTR _iMaxSlot$[ebp]

; 352  : 		{
; 353  : 			if( m_pPeopleOrange )

  0009a	8b 45 f0	 mov	 eax, DWORD PTR _this$[ebp]
  0009d	7d 08		 jge	 SHORT $LN8@OnRenderBa
  0009f	8b 88 9c 01 00
	00		 mov	 ecx, DWORD PTR [eax+412]

; 354  : 				m_pPeopleOrange->Render( iXPos + 4, iYPos + 2 );
; 355  : 		}
; 356  : 		else

  000a5	eb 06		 jmp	 SHORT $LN22@OnRenderBa
$LN8@OnRenderBa:

; 357  : 		{
; 358  : 			if( m_pPeopleGray )

  000a7	8b 88 a0 01 00
	00		 mov	 ecx, DWORD PTR [eax+416]
$LN22@OnRenderBa:
  000ad	3b ce		 cmp	 ecx, esi
  000af	0f 84 de 00 00
	00		 je	 $LN1@OnRenderBa

; 359  : 				m_pPeopleGray->Render( iXPos + 4, iYPos + 2 );			

  000b5	8b 01		 mov	 eax, DWORD PTR [ecx]
  000b7	56		 push	 esi
  000b8	56		 push	 esi
  000b9	56		 push	 esi
  000ba	56		 push	 esi
  000bb	0f 57 c0	 xorps	 xmm0, xmm0
  000be	8d 53 02	 lea	 edx, DWORD PTR [ebx+2]
  000c1	f3 0f 2a c2	 cvtsi2ss xmm0, edx
  000c5	8b 55 08	 mov	 edx, DWORD PTR _iXPos$[ebp]
  000c8	51		 push	 ecx
  000c9	51		 push	 ecx
  000ca	f3 0f 11 44 24
	04		 movss	 DWORD PTR [esp+4], xmm0
  000d0	83 c2 04	 add	 edx, 4
  000d3	0f 57 c0	 xorps	 xmm0, xmm0
  000d6	f3 0f 2a c2	 cvtsi2ss xmm0, edx
  000da	f3 0f 11 04 24	 movss	 DWORD PTR [esp], xmm0
  000df	ff 10		 call	 DWORD PTR [eax]

; 360  : 		}

  000e1	e9 ad 00 00 00	 jmp	 $LN1@OnRenderBa
$LN9@OnRenderBa:

; 361  : 	}
; 362  : 	else if( m_MouseOverName == szName ) // 오버 슬롯

  000e6	8b 4d f0	 mov	 ecx, DWORD PTR _this$[ebp]
  000e9	8d 45 18	 lea	 eax, DWORD PTR _szName$[ebp]
  000ec	50		 push	 eax
  000ed	81 c1 d8 01 00
	00		 add	 ecx, 472		; 000001d8H
  000f3	ff 15 00 00 00
	00		 call	 DWORD PTR __imp_??8ioHashString@@QBE_NABV0@@Z
  000f9	84 c0		 test	 al, al
  000fb	74 68		 je	 SHORT $LN3@OnRenderBa

; 363  : 	{
; 364  : 		if( m_pBarOver )

  000fd	8b 45 f0	 mov	 eax, DWORD PTR _this$[ebp]
  00100	8b 88 98 01 00
	00		 mov	 ecx, DWORD PTR [eax+408]
  00106	3b ce		 cmp	 ecx, esi
  00108	74 24		 je	 SHORT $LN2@OnRenderBa

; 365  : 			m_pBarOver->Render( iXPos, iYPos );

  0010a	8b 01		 mov	 eax, DWORD PTR [ecx]
  0010c	56		 push	 esi
  0010d	56		 push	 esi
  0010e	56		 push	 esi
  0010f	56		 push	 esi
  00110	0f 57 c0	 xorps	 xmm0, xmm0
  00113	51		 push	 ecx
  00114	f3 0f 2a c3	 cvtsi2ss xmm0, ebx
  00118	51		 push	 ecx
  00119	f3 0f 11 44 24
	04		 movss	 DWORD PTR [esp+4], xmm0
  0011f	66 0f 6e 45 08	 movd	 xmm0, DWORD PTR _iXPos$[ebp]
  00124	0f 5b c0	 cvtdq2ps xmm0, xmm0
  00127	f3 0f 11 04 24	 movss	 DWORD PTR [esp], xmm0
  0012c	ff 10		 call	 DWORD PTR [eax]
$LN2@OnRenderBa:

; 366  : 
; 367  : 		g_LevelMgr.RenderGrade( iXPos + 4, iYPos + 2, iGradeLevel, TEAM_PRIVATE_1, UI_RENDER_NORMAL_ADD_COLOR, RGB( 255, 255, 255 ) );

  0012e	68 ff ff ff 00	 push	 16777215		; 00ffffffH
  00133	6a 04		 push	 4
  00135	6a 03		 push	 3
  00137	ff 75 28	 push	 DWORD PTR _iGradeLevel$[ebp]
  0013a	8d 43 02	 lea	 eax, DWORD PTR [ebx+2]
  0013d	50		 push	 eax
  0013e	8b 45 08	 mov	 eax, DWORD PTR _iXPos$[ebp]
  00141	83 c0 04	 add	 eax, 4
  00144	50		 push	 eax
  00145	e8 00 00 00 00	 call	 ?GetSingleton@ioMyLevelMgr@@SAAAV1@XZ ; ioMyLevelMgr::GetSingleton
  0014a	8b c8		 mov	 ecx, eax
  0014c	e8 00 00 00 00	 call	 ?RenderGrade@ioMyLevelMgr@@QAEXHHKW4TeamType@@W4UIRenderType@@K@Z ; ioMyLevelMgr::RenderGrade

; 368  : 		g_FontMgr.SetTextColor( 255, 255, 255 );

  00151	b8 ff 00 00 00	 mov	 eax, 255		; 000000ffH
  00156	50		 push	 eax
  00157	50		 push	 eax
  00158	50		 push	 eax
  00159	ff d7		 call	 edi
  0015b	8b c8		 mov	 ecx, eax
  0015d	ff 15 00 00 00
	00		 call	 DWORD PTR __imp_?SetTextColor@ioFontManager@@QAEXHHH@Z

; 369  : 	}
; 370  : 	else

  00163	eb 2e		 jmp	 SHORT $LN1@OnRenderBa
$LN3@OnRenderBa:

; 371  : 	{
; 372  : 		g_LevelMgr.RenderGrade( iXPos + 4, iYPos + 2, iGradeLevel, TEAM_PRIVATE_1 );

  00165	6a ff		 push	 -1
  00167	56		 push	 esi
  00168	6a 03		 push	 3
  0016a	ff 75 28	 push	 DWORD PTR _iGradeLevel$[ebp]
  0016d	8d 43 02	 lea	 eax, DWORD PTR [ebx+2]
  00170	50		 push	 eax
  00171	8b 45 08	 mov	 eax, DWORD PTR _iXPos$[ebp]
  00174	83 c0 04	 add	 eax, 4
  00177	50		 push	 eax
  00178	e8 00 00 00 00	 call	 ?GetSingleton@ioMyLevelMgr@@SAAAV1@XZ ; ioMyLevelMgr::GetSingleton
  0017d	8b c8		 mov	 ecx, eax
  0017f	e8 00 00 00 00	 call	 ?RenderGrade@ioMyLevelMgr@@QAEXHHKW4TeamType@@W4UIRenderType@@K@Z ; ioMyLevelMgr::RenderGrade

; 373  : 		g_FontMgr.SetTextColor( TCT_DEFAULT_DARKGRAY );

  00184	68 3a 3a 3a ff	 push	 -12961222		; ff3a3a3aH
  00189	ff d7		 call	 edi
  0018b	8b c8		 mov	 ecx, eax
  0018d	ff 15 00 00 00
	00		 call	 DWORD PTR __imp_?SetTextColor@ioFontManager@@QAEXK@Z
$LN1@OnRenderBa:

; 374  : 	}
; 375  : 	g_FontMgr.PrintTextWidthCut( iXPos + 23, iYPos + 3, FONT_SIZE_12, 58.0f, szName.c_str() );

  00193	8d 4d 18	 lea	 ecx, DWORD PTR _szName$[ebp]
  00196	ff 15 00 00 00
	00		 call	 DWORD PTR __imp_?c_str@ioHashString@@QBEPBDXZ
  0019c	f3 0f 10 05 00
	00 00 00	 movss	 xmm0, DWORD PTR __real@42680000
  001a4	50		 push	 eax
  001a5	8b 45 08	 mov	 eax, DWORD PTR _iXPos$[ebp]
  001a8	83 ec 10	 sub	 esp, 16			; 00000010H
  001ab	f3 0f 11 44 24
	0c		 movss	 DWORD PTR [esp+12], xmm0
  001b1	f3 0f 10 05 00
	00 00 00	 movss	 xmm0, DWORD PTR __real@3f19999a
  001b9	f3 0f 11 44 24
	08		 movss	 DWORD PTR [esp+8], xmm0
  001bf	0f 57 c0	 xorps	 xmm0, xmm0
  001c2	83 c3 03	 add	 ebx, 3
  001c5	f3 0f 2a c3	 cvtsi2ss xmm0, ebx
  001c9	f3 0f 11 44 24
	04		 movss	 DWORD PTR [esp+4], xmm0
  001cf	83 c0 17	 add	 eax, 23			; 00000017H
  001d2	0f 57 c0	 xorps	 xmm0, xmm0
  001d5	f3 0f 2a c0	 cvtsi2ss xmm0, eax
  001d9	f3 0f 11 04 24	 movss	 DWORD PTR [esp], xmm0
  001de	ff d7		 call	 edi
  001e0	50		 push	 eax
  001e1	ff 15 00 00 00
	00		 call	 DWORD PTR __imp_?PrintTextWidthCut@ioFontManager@@QAAXMMMMPBDZZ

; 376  : }

  001e7	83 4d fc ff	 or	 DWORD PTR __$EHRec$[ebp+8], -1
  001eb	83 c4 18	 add	 esp, 24			; 00000018H
  001ee	8d 4d 18	 lea	 ecx, DWORD PTR _szName$[ebp]
  001f1	ff 15 00 00 00
	00		 call	 DWORD PTR __imp_??1ioHashString@@QAE@XZ
  001f7	e8 00 00 00 00	 call	 __EH_epilog3
  001fc	c2 24 00	 ret	 36			; 00000024H
_TEXT	ENDS
;	COMDAT text$x
text$x	SEGMENT
__unwindfunclet$?OnRenderBar@HeadquartersInfoWnd@@IAEXHHHHVioHashString@@H@Z$0:
  00000	8d 4d 18	 lea	 ecx, DWORD PTR _szName$[ebp]
  00003	ff 25 00 00 00
	00		 jmp	 DWORD PTR __imp_??1ioHashString@@QAE@XZ
__ehhandler$?OnRenderBar@HeadquartersInfoWnd@@IAEXHHHHVioHashString@@H@Z:
  00009	8b 54 24 08	 mov	 edx, DWORD PTR [esp+8]
  0000d	8d 42 0c	 lea	 eax, DWORD PTR [edx+12]
  00010	8b 4a ec	 mov	 ecx, DWORD PTR [edx-20]
  00013	33 c8		 xor	 ecx, eax
  00015	e8 00 00 00 00	 call	 @__security_check_cookie@4
  0001a	b8 00 00 00 00	 mov	 eax, OFFSET __ehfuncinfo$?OnRenderBar@HeadquartersInfoWnd@@IAEXHHHHVioHashString@@H@Z
  0001f	e9 00 00 00 00	 jmp	 ___CxxFrameHandler3
text$x	ENDS
?OnRenderBar@HeadquartersInfoWnd@@IAEXHHHHVioHashString@@H@Z ENDP ; HeadquartersInfoWnd::OnRenderBar
PUBLIC	??_7HeadquartersJoinRequestWnd@@6B@		; HeadquartersJoinRequestWnd::`vftable'
PUBLIC	??0HeadquartersJoinRequestWnd@@QAE@XZ		; HeadquartersJoinRequestWnd::HeadquartersJoinRequestWnd
PUBLIC	??_R4HeadquartersJoinRequestWnd@@6B@		; HeadquartersJoinRequestWnd::`RTTI Complete Object Locator'
PUBLIC	??_R0?AVHeadquartersJoinRequestWnd@@@8		; HeadquartersJoinRequestWnd `RTTI Type Descriptor'
PUBLIC	??_R3HeadquartersJoinRequestWnd@@8		; HeadquartersJoinRequestWnd::`RTTI Class Hierarchy Descriptor'
PUBLIC	??_R2HeadquartersJoinRequestWnd@@8		; HeadquartersJoinRequestWnd::`RTTI Base Class Array'
PUBLIC	??_R1A@?0A@EA@HeadquartersJoinRequestWnd@@8	; HeadquartersJoinRequestWnd::`RTTI Base Class Descriptor at (0,-1,0,64)'
PUBLIC	??_R1A@?0A@EA@ioMovingWnd@@8			; ioMovingWnd::`RTTI Base Class Descriptor at (0,-1,0,64)'
PUBLIC	??_R0?AVioMovingWnd@@@8				; ioMovingWnd `RTTI Type Descriptor'
PUBLIC	??_R3ioMovingWnd@@8				; ioMovingWnd::`RTTI Class Hierarchy Descriptor'
PUBLIC	??_R2ioMovingWnd@@8				; ioMovingWnd::`RTTI Base Class Array'
PUBLIC	??_R1A@?0A@EA@ioWnd@@8				; ioWnd::`RTTI Base Class Descriptor at (0,-1,0,64)'
PUBLIC	??_R0?AVioWnd@@@8				; ioWnd `RTTI Type Descriptor'
PUBLIC	??_R3ioWnd@@8					; ioWnd::`RTTI Class Hierarchy Descriptor'
PUBLIC	??_R2ioWnd@@8					; ioWnd::`RTTI Base Class Array'
PUBLIC	?AddRenderImage@HeadquartersJoinRequestWnd@@MAEXABVioHashString@@PAVioUIRenderImage@@@Z ; HeadquartersJoinRequestWnd::AddRenderImage
PUBLIC	?OnRender@HeadquartersJoinRequestWnd@@MAEXXZ	; HeadquartersJoinRequestWnd::OnRender
PUBLIC	?OnProcess@HeadquartersJoinRequestWnd@@MAEXM@Z	; HeadquartersJoinRequestWnd::OnProcess
PUBLIC	?iwm_command@HeadquartersJoinRequestWnd@@UAEXPAVioWnd@@HK@Z ; HeadquartersJoinRequestWnd::iwm_command
PUBLIC	?iwm_show@HeadquartersJoinRequestWnd@@UAEXXZ	; HeadquartersJoinRequestWnd::iwm_show
PUBLIC	?iwm_hide@HeadquartersJoinRequestWnd@@UAEXXZ	; HeadquartersJoinRequestWnd::iwm_hide
PUBLIC	?iwm_spacebar@HeadquartersJoinRequestWnd@@UAE_NXZ ; HeadquartersJoinRequestWnd::iwm_spacebar
EXTRN	__imp_??1ioMovingWnd@@UAE@XZ:PROC
EXTRN	__imp_??0ioMovingWnd@@QAE@XZ:PROC
EXTRN	?AddRenderFrame@ioWnd@@UAEXABVioHashString@@PAVioUIRenderFrame@@@Z:PROC ; ioWnd::AddRenderFrame
EXTRN	?AddTooltipHelp@ioWnd@@UAEXABVioHashString@@00@Z:PROC ; ioWnd::AddTooltipHelp
EXTRN	?ParseExtraInfo@ioWnd@@UAEXAAVioXMLElement@@@Z:PROC ; ioWnd::ParseExtraInfo
EXTRN	?AddNamedRenderImage@ioWnd@@UAEXABVioHashString@@PAVioUIRenderImage@@@Z:PROC ; ioWnd::AddNamedRenderImage
EXTRN	?RemoveNamedRenderImage@ioWnd@@UAEXABVioHashString@@@Z:PROC ; ioWnd::RemoveNamedRenderImage
EXTRN	?GetNamedRenderImage@ioWnd@@UBEPAVioUIRenderImage@@ABVioHashString@@@Z:PROC ; ioWnd::GetNamedRenderImage
EXTRN	?SetWindowAlpha@ioWnd@@UAEXH@Z:PROC		; ioWnd::SetWindowAlpha
EXTRN	?SetActive@ioWnd@@UAEXXZ:PROC			; ioWnd::SetActive
EXTRN	?SetInActive@ioWnd@@UAEXXZ:PROC			; ioWnd::SetInActive
EXTRN	?ClearElementImageList@ioWnd@@UAEXXZ:PROC	; ioWnd::ClearElementImageList
EXTRN	?SetSize@ioWnd@@UAEXHH@Z:PROC			; ioWnd::SetSize
EXTRN	?SetPositionToDefault@ioMovingWnd@@UAEXHH_N0@Z:PROC ; ioMovingWnd::SetPositionToDefault
EXTRN	?IsNeedProcess@ioWnd@@UBE_NXZ:PROC		; ioWnd::IsNeedProcess
EXTRN	?IsCanMouseReaction@ioWnd@@UBE_NXZ:PROC		; ioWnd::IsCanMouseReaction
EXTRN	?AddChild@ioWnd@@UAEXPAV1@@Z:PROC		; ioWnd::AddChild
EXTRN	?DeleteChild@ioWnd@@UAEXK@Z:PROC		; ioWnd::DeleteChild
EXTRN	?DeleteAllChild@ioWnd@@UAEXXZ:PROC		; ioWnd::DeleteAllChild
EXTRN	?OnRenderShowAndHide@ioWnd@@MAE_NXZ:PROC	; ioWnd::OnRenderShowAndHide
EXTRN	?OnRenderShowAndHideByDefault@ioWnd@@MAE_NK@Z:PROC ; ioWnd::OnRenderShowAndHideByDefault
EXTRN	?OnRenderShowAndHideByTop@ioWnd@@MAE_NK@Z:PROC	; ioWnd::OnRenderShowAndHideByTop
EXTRN	?OnRenderShowAndHideByDown@ioWnd@@MAE_NK@Z:PROC	; ioWnd::OnRenderShowAndHideByDown
EXTRN	?OnRenderAfterChild@ioWnd@@MAEXXZ:PROC		; ioWnd::OnRenderAfterChild
EXTRN	?OnMouseProcess@ioMovingWnd@@MAEXABVioMouse@@@Z:PROC ; ioMovingWnd::OnMouseProcess
EXTRN	?CheckFrameReSize@ioWnd@@MAEXHHHH@Z:PROC	; ioWnd::CheckFrameReSize
EXTRN	?RenderImageList@ioWnd@@MAEXHHW4UIRenderType@@@Z:PROC ; ioWnd::RenderImageList
EXTRN	?iwm_create@ioWnd@@UAEXXZ:PROC			; ioWnd::iwm_create
EXTRN	?iwm_destroy@ioWnd@@UAEXXZ:PROC			; ioWnd::iwm_destroy
EXTRN	?iwm_lbuttondown@ioMovingWnd@@UAEXABVioMouse@@@Z:PROC ; ioMovingWnd::iwm_lbuttondown
EXTRN	?iwm_lbuttonup@ioMovingWnd@@UAEXABVioMouse@@@Z:PROC ; ioMovingWnd::iwm_lbuttonup
EXTRN	?iwm_lbuttonDBLCLK@ioWnd@@UAEXABVioMouse@@@Z:PROC ; ioWnd::iwm_lbuttonDBLCLK
EXTRN	?iwm_rbuttondown@ioWnd@@UAEXABVioMouse@@@Z:PROC	; ioWnd::iwm_rbuttondown
EXTRN	?iwm_rbuttonup@ioWnd@@UAEXABVioMouse@@@Z:PROC	; ioWnd::iwm_rbuttonup
EXTRN	?iwm_mouseover@ioWnd@@UAEXABVioMouse@@@Z:PROC	; ioWnd::iwm_mouseover
EXTRN	?iwm_mousemove@ioWnd@@UAEXABVioMouse@@@Z:PROC	; ioWnd::iwm_mousemove
EXTRN	?iwm_mouseleave@ioWnd@@UAEXABVioMouse@@@Z:PROC	; ioWnd::iwm_mouseleave
EXTRN	?iwm_vscroll@ioWnd@@UAEXKH@Z:PROC		; ioWnd::iwm_vscroll
EXTRN	?iwm_wheel@ioWnd@@UAEXH@Z:PROC			; ioWnd::iwm_wheel
EXTRN	?iwm_esc@ioWnd@@UAE_NXZ:PROC			; ioWnd::iwm_esc
EXTRN	?iwm_gototop@ioWnd@@UAEXXZ:PROC			; ioWnd::iwm_gototop
EXTRN	?iwm_dragenter@ioWnd@@UAE?AW4IWDropEffect@@PAVioDragItem@@ABVioMouse@@@Z:PROC ; ioWnd::iwm_dragenter
EXTRN	?iwm_dragover@ioWnd@@UAE?AW4IWDropEffect@@PAVioDragItem@@ABVioMouse@@@Z:PROC ; ioWnd::iwm_dragover
EXTRN	?iwm_dragleave@ioWnd@@UAEXXZ:PROC		; ioWnd::iwm_dragleave
EXTRN	?iwm_dropitem@ioWnd@@UAE_NPAVioDragItem@@ABVioMouse@@PAV1@@Z:PROC ; ioWnd::iwm_dropitem
EXTRN	?iwm_dropdone@ioWnd@@UAEXPAVioDragItem@@PAV1@_N@Z:PROC ; ioWnd::iwm_dropdone
EXTRN	?IsEXType@ioWnd@@UBE_NXZ:PROC			; ioWnd::IsEXType
EXTRN	?GetWndType@ioWnd@@UBEKXZ:PROC			; ioWnd::GetWndType
EXTRN	?RenderWnd@ioWnd@@UAEXXZ:PROC			; ioWnd::RenderWnd
EXTRN	?SetIDEX@ioWnd@@UAEXAAK_N@Z:PROC		; ioWnd::SetIDEX
EXTRN	?ParseXML@ioWnd@@UAEXAAVioXMLElement@@@Z:PROC	; ioWnd::ParseXML
EXTRN	?GetHeaderFileName@ioWnd@@UAEPBDXZ:PROC		; ioWnd::GetHeaderFileName
EXTRN	?GetTemplateName@ioWnd@@UAEPBDXZ:PROC		; ioWnd::GetTemplateName
EXTRN	?GetDefClassName@ioWnd@@UBEPBDXZ:PROC		; ioWnd::GetDefClassName
EXTRN	?_Clone@ioWnd@@UAEPAV1@XZ:PROC			; ioWnd::_Clone
EXTRN	?Copy@ioWnd@@UAEXPAV1@@Z:PROC			; ioWnd::Copy
EXTRN	?Save@ioWnd@@UAE_NAAVioXMLElement@@@Z:PROC	; ioWnd::Save
EXTRN	?SetSaveData@ioWnd@@UAEXAAVioXMLElement@@@Z:PROC ; ioWnd::SetSaveData
EXTRN	?SetPosX@ioWnd@@UAEXH@Z:PROC			; ioWnd::SetPosX
EXTRN	?SetPosY@ioWnd@@UAEXH@Z:PROC			; ioWnd::SetPosY
EXTRN	?SetWidth@ioWnd@@UAEXH@Z:PROC			; ioWnd::SetWidth
EXTRN	?SetHeight@ioWnd@@UAEXH@Z:PROC			; ioWnd::SetHeight
EXTRN	?GetNumFixedRenderFrame@ioWnd@@UBEHXZ:PROC	; ioWnd::GetNumFixedRenderFrame
EXTRN	?GetFixedRenderFrameType@ioWnd@@UAEPBDH@Z:PROC	; ioWnd::GetFixedRenderFrameType
EXTRN	?GetRenderFrame@ioWnd@@UAEPAPAVioUIRenderElement@@PBD@Z:PROC ; ioWnd::GetRenderFrame
EXTRN	?GetNumFixedRenderImage@ioWnd@@UBEHXZ:PROC	; ioWnd::GetNumFixedRenderImage
EXTRN	?GetFixedRenderImageType@ioWnd@@UAEPBDH@Z:PROC	; ioWnd::GetFixedRenderImageType
EXTRN	?GetRenderImage@ioWnd@@UAEPAPAVioUIRenderElement@@PBD@Z:PROC ; ioWnd::GetRenderImage
EXTRN	?AddEffect@ioWnd@@UAEXABVioHashString@@PAVioUI3DEffectRender@@@Z:PROC ; ioWnd::AddEffect
EXTRN	?GetEffect@ioWnd@@UAEPAVioUI3DEffectRender@@VioHashString@@@Z:PROC ; ioWnd::GetEffect
EXTRN	??_EHeadquartersJoinRequestWnd@@UAEPAXI@Z:PROC	; HeadquartersJoinRequestWnd::`vector deleting destructor'
;	COMDAT ??_R2ioWnd@@8
rdata$r	SEGMENT
??_R2ioWnd@@8 DD FLAT:??_R1A@?0A@EA@ioWnd@@8		; ioWnd::`RTTI Base Class Array'
rdata$r	ENDS
;	COMDAT ??_R3ioWnd@@8
rdata$r	SEGMENT
??_R3ioWnd@@8 DD 00H					; ioWnd::`RTTI Class Hierarchy Descriptor'
	DD	00H
	DD	01H
	DD	FLAT:??_R2ioWnd@@8
rdata$r	ENDS
;	COMDAT ??_R0?AVioWnd@@@8
_DATA	SEGMENT
??_R0?AVioWnd@@@8 DD FLAT:??_7type_info@@6B@		; ioWnd `RTTI Type Descriptor'
	DD	00H
	DB	'.?AVioWnd@@', 00H
_DATA	ENDS
;	COMDAT ??_R1A@?0A@EA@ioWnd@@8
rdata$r	SEGMENT
??_R1A@?0A@EA@ioWnd@@8 DD FLAT:??_R0?AVioWnd@@@8	; ioWnd::`RTTI Base Class Descriptor at (0,-1,0,64)'
	DD	00H
	DD	00H
	DD	0ffffffffH
	DD	00H
	DD	040H
	DD	FLAT:??_R3ioWnd@@8
rdata$r	ENDS
;	COMDAT ??_R2ioMovingWnd@@8
rdata$r	SEGMENT
??_R2ioMovingWnd@@8 DD FLAT:??_R1A@?0A@EA@ioMovingWnd@@8 ; ioMovingWnd::`RTTI Base Class Array'
	DD	FLAT:??_R1A@?0A@EA@ioWnd@@8
rdata$r	ENDS
;	COMDAT ??_R3ioMovingWnd@@8
rdata$r	SEGMENT
??_R3ioMovingWnd@@8 DD 00H				; ioMovingWnd::`RTTI Class Hierarchy Descriptor'
	DD	00H
	DD	02H
	DD	FLAT:??_R2ioMovingWnd@@8
rdata$r	ENDS
;	COMDAT ??_R0?AVioMovingWnd@@@8
_DATA	SEGMENT
??_R0?AVioMovingWnd@@@8 DD FLAT:??_7type_info@@6B@	; ioMovingWnd `RTTI Type Descriptor'
	DD	00H
	DB	'.?AVioMovingWnd@@', 00H
_DATA	ENDS
;	COMDAT ??_R1A@?0A@EA@ioMovingWnd@@8
rdata$r	SEGMENT
??_R1A@?0A@EA@ioMovingWnd@@8 DD FLAT:??_R0?AVioMovingWnd@@@8 ; ioMovingWnd::`RTTI Base Class Descriptor at (0,-1,0,64)'
	DD	01H
	DD	00H
	DD	0ffffffffH
	DD	00H
	DD	040H
	DD	FLAT:??_R3ioMovingWnd@@8
rdata$r	ENDS
;	COMDAT ??_R1A@?0A@EA@HeadquartersJoinRequestWnd@@8
rdata$r	SEGMENT
??_R1A@?0A@EA@HeadquartersJoinRequestWnd@@8 DD FLAT:??_R0?AVHeadquartersJoinRequestWnd@@@8 ; HeadquartersJoinRequestWnd::`RTTI Base Class Descriptor at (0,-1,0,64)'
	DD	02H
	DD	00H
	DD	0ffffffffH
	DD	00H
	DD	040H
	DD	FLAT:??_R3HeadquartersJoinRequestWnd@@8
rdata$r	ENDS
;	COMDAT ??_R2HeadquartersJoinRequestWnd@@8
rdata$r	SEGMENT
??_R2HeadquartersJoinRequestWnd@@8 DD FLAT:??_R1A@?0A@EA@HeadquartersJoinRequestWnd@@8 ; HeadquartersJoinRequestWnd::`RTTI Base Class Array'
	DD	FLAT:??_R1A@?0A@EA@ioMovingWnd@@8
	DD	FLAT:??_R1A@?0A@EA@ioWnd@@8
rdata$r	ENDS
;	COMDAT ??_R3HeadquartersJoinRequestWnd@@8
rdata$r	SEGMENT
??_R3HeadquartersJoinRequestWnd@@8 DD 00H		; HeadquartersJoinRequestWnd::`RTTI Class Hierarchy Descriptor'
	DD	00H
	DD	03H
	DD	FLAT:??_R2HeadquartersJoinRequestWnd@@8
rdata$r	ENDS
;	COMDAT ??_R0?AVHeadquartersJoinRequestWnd@@@8
_DATA	SEGMENT
??_R0?AVHeadquartersJoinRequestWnd@@@8 DD FLAT:??_7type_info@@6B@ ; HeadquartersJoinRequestWnd `RTTI Type Descriptor'
	DD	00H
	DB	'.?AVHeadquartersJoinRequestWnd@@', 00H
_DATA	ENDS
;	COMDAT ??_R4HeadquartersJoinRequestWnd@@6B@
rdata$r	SEGMENT
??_R4HeadquartersJoinRequestWnd@@6B@ DD 00H		; HeadquartersJoinRequestWnd::`RTTI Complete Object Locator'
	DD	00H
	DD	00H
	DD	FLAT:??_R0?AVHeadquartersJoinRequestWnd@@@8
	DD	FLAT:??_R3HeadquartersJoinRequestWnd@@8
rdata$r	ENDS
;	COMDAT ??_7HeadquartersJoinRequestWnd@@6B@
CONST	SEGMENT
??_7HeadquartersJoinRequestWnd@@6B@ DD FLAT:??_R4HeadquartersJoinRequestWnd@@6B@ ; HeadquartersJoinRequestWnd::`vftable'
	DD	FLAT:?AddRenderFrame@ioWnd@@UAEXABVioHashString@@PAVioUIRenderFrame@@@Z
	DD	FLAT:?AddRenderImage@HeadquartersJoinRequestWnd@@MAEXABVioHashString@@PAVioUIRenderImage@@@Z
	DD	FLAT:?AddTooltipHelp@ioWnd@@UAEXABVioHashString@@00@Z
	DD	FLAT:?ParseExtraInfo@ioWnd@@UAEXAAVioXMLElement@@@Z
	DD	FLAT:?AddNamedRenderImage@ioWnd@@UAEXABVioHashString@@PAVioUIRenderImage@@@Z
	DD	FLAT:?RemoveNamedRenderImage@ioWnd@@UAEXABVioHashString@@@Z
	DD	FLAT:?GetNamedRenderImage@ioWnd@@UBEPAVioUIRenderImage@@ABVioHashString@@@Z
	DD	FLAT:?SetWindowAlpha@ioWnd@@UAEXH@Z
	DD	FLAT:?SetActive@ioWnd@@UAEXXZ
	DD	FLAT:?SetInActive@ioWnd@@UAEXXZ
	DD	FLAT:?ClearElementImageList@ioWnd@@UAEXXZ
	DD	FLAT:?SetSize@ioWnd@@UAEXHH@Z
	DD	FLAT:?SetPositionToDefault@ioMovingWnd@@UAEXHH_N0@Z
	DD	FLAT:?IsNeedProcess@ioWnd@@UBE_NXZ
	DD	FLAT:?IsCanMouseReaction@ioWnd@@UBE_NXZ
	DD	FLAT:?AddChild@ioWnd@@UAEXPAV1@@Z
	DD	FLAT:?DeleteChild@ioWnd@@UAEXK@Z
	DD	FLAT:?DeleteAllChild@ioWnd@@UAEXXZ
	DD	FLAT:?OnRenderShowAndHide@ioWnd@@MAE_NXZ
	DD	FLAT:?OnRenderShowAndHideByDefault@ioWnd@@MAE_NK@Z
	DD	FLAT:?OnRenderShowAndHideByTop@ioWnd@@MAE_NK@Z
	DD	FLAT:?OnRenderShowAndHideByDown@ioWnd@@MAE_NK@Z
	DD	FLAT:?OnRender@HeadquartersJoinRequestWnd@@MAEXXZ
	DD	FLAT:?OnRenderAfterChild@ioWnd@@MAEXXZ
	DD	FLAT:?OnProcess@HeadquartersJoinRequestWnd@@MAEXM@Z
	DD	FLAT:?OnMouseProcess@ioMovingWnd@@MAEXABVioMouse@@@Z
	DD	FLAT:?CheckFrameReSize@ioWnd@@MAEXHHHH@Z
	DD	FLAT:?RenderImageList@ioWnd@@MAEXHHW4UIRenderType@@@Z
	DD	FLAT:?iwm_create@ioWnd@@UAEXXZ
	DD	FLAT:?iwm_destroy@ioWnd@@UAEXXZ
	DD	FLAT:?iwm_lbuttondown@ioMovingWnd@@UAEXABVioMouse@@@Z
	DD	FLAT:?iwm_lbuttonup@ioMovingWnd@@UAEXABVioMouse@@@Z
	DD	FLAT:?iwm_lbuttonDBLCLK@ioWnd@@UAEXABVioMouse@@@Z
	DD	FLAT:?iwm_rbuttondown@ioWnd@@UAEXABVioMouse@@@Z
	DD	FLAT:?iwm_rbuttonup@ioWnd@@UAEXABVioMouse@@@Z
	DD	FLAT:?iwm_command@HeadquartersJoinRequestWnd@@UAEXPAVioWnd@@HK@Z
	DD	FLAT:?iwm_mouseover@ioWnd@@UAEXABVioMouse@@@Z
	DD	FLAT:?iwm_mousemove@ioWnd@@UAEXABVioMouse@@@Z
	DD	FLAT:?iwm_mouseleave@ioWnd@@UAEXABVioMouse@@@Z
	DD	FLAT:?iwm_vscroll@ioWnd@@UAEXKH@Z
	DD	FLAT:?iwm_wheel@ioWnd@@UAEXH@Z
	DD	FLAT:?iwm_show@HeadquartersJoinRequestWnd@@UAEXXZ
	DD	FLAT:?iwm_hide@HeadquartersJoinRequestWnd@@UAEXXZ
	DD	FLAT:?iwm_esc@ioWnd@@UAE_NXZ
	DD	FLAT:?iwm_spacebar@HeadquartersJoinRequestWnd@@UAE_NXZ
	DD	FLAT:?iwm_gototop@ioWnd@@UAEXXZ
	DD	FLAT:?iwm_dragenter@ioWnd@@UAE?AW4IWDropEffect@@PAVioDragItem@@ABVioMouse@@@Z
	DD	FLAT:?iwm_dragover@ioWnd@@UAE?AW4IWDropEffect@@PAVioDragItem@@ABVioMouse@@@Z
	DD	FLAT:?iwm_dragleave@ioWnd@@UAEXXZ
	DD	FLAT:?iwm_dropitem@ioWnd@@UAE_NPAVioDragItem@@ABVioMouse@@PAV1@@Z
	DD	FLAT:?iwm_dropdone@ioWnd@@UAEXPAVioDragItem@@PAV1@_N@Z
	DD	FLAT:?IsEXType@ioWnd@@UBE_NXZ
	DD	FLAT:?GetWndType@ioWnd@@UBEKXZ
	DD	FLAT:?RenderWnd@ioWnd@@UAEXXZ
	DD	FLAT:?SetIDEX@ioWnd@@UAEXAAK_N@Z
	DD	FLAT:?ParseXML@ioWnd@@UAEXAAVioXMLElement@@@Z
	DD	FLAT:?GetHeaderFileName@ioWnd@@UAEPBDXZ
	DD	FLAT:?GetTemplateName@ioWnd@@UAEPBDXZ
	DD	FLAT:?GetDefClassName@ioWnd@@UBEPBDXZ
	DD	FLAT:?_Clone@ioWnd@@UAEPAV1@XZ
	DD	FLAT:?Copy@ioWnd@@UAEXPAV1@@Z
	DD	FLAT:?Save@ioWnd@@UAE_NAAVioXMLElement@@@Z
	DD	FLAT:?SetSaveData@ioWnd@@UAEXAAVioXMLElement@@@Z
	DD	FLAT:?SetPosX@ioWnd@@UAEXH@Z
	DD	FLAT:?SetPosY@ioWnd@@UAEXH@Z
	DD	FLAT:?SetWidth@ioWnd@@UAEXH@Z
	DD	FLAT:?SetHeight@ioWnd@@UAEXH@Z
	DD	FLAT:?GetNumFixedRenderFrame@ioWnd@@UBEHXZ
	DD	FLAT:?GetFixedRenderFrameType@ioWnd@@UAEPBDH@Z
	DD	FLAT:?GetRenderFrame@ioWnd@@UAEPAPAVioUIRenderElement@@PBD@Z
	DD	FLAT:?GetNumFixedRenderImage@ioWnd@@UBEHXZ
	DD	FLAT:?GetFixedRenderImageType@ioWnd@@UAEPBDH@Z
	DD	FLAT:?GetRenderImage@ioWnd@@UAEPAPAVioUIRenderElement@@PBD@Z
	DD	FLAT:?AddEffect@ioWnd@@UAEXABVioHashString@@PAVioUI3DEffectRender@@@Z
	DD	FLAT:?GetEffect@ioWnd@@UAEPAVioUI3DEffectRender@@VioHashString@@@Z
	DD	FLAT:??_EHeadquartersJoinRequestWnd@@UAEPAXI@Z
CONST	ENDS
;	COMDAT xdata$x
xdata$x	SEGMENT
__unwindtable$??0HeadquartersJoinRequestWnd@@QAE@XZ DD 0ffffffffH
	DD	FLAT:__unwindfunclet$??0HeadquartersJoinRequestWnd@@QAE@XZ$0
__ehfuncinfo$??0HeadquartersJoinRequestWnd@@QAE@XZ DD 019930522H
	DD	01H
	DD	FLAT:__unwindtable$??0HeadquartersJoinRequestWnd@@QAE@XZ
	DD	2 DUP(00H)
	DD	2 DUP(00H)
	DD	00H
	DD	01H
; Function compile flags: /Ogsp
xdata$x	ENDS
;	COMDAT ??0HeadquartersJoinRequestWnd@@QAE@XZ
_TEXT	SEGMENT
_this$ = -16						; size = 4
__$EHRec$ = -12						; size = 12
??0HeadquartersJoinRequestWnd@@QAE@XZ PROC		; HeadquartersJoinRequestWnd::HeadquartersJoinRequestWnd, COMDAT
; _this$ = ecx

; 443  : {

  00000	6a 04		 push	 4
  00002	b8 00 00 00 00	 mov	 eax, __ehhandler$??0HeadquartersJoinRequestWnd@@QAE@XZ
  00007	e8 00 00 00 00	 call	 __EH_prolog3
  0000c	8b f1		 mov	 esi, ecx
  0000e	89 75 f0	 mov	 DWORD PTR _this$[ebp], esi
  00011	ff 15 00 00 00
	00		 call	 DWORD PTR __imp_??0ioMovingWnd@@QAE@XZ
  00017	83 65 fc 00	 and	 DWORD PTR __$EHRec$[ebp+8], 0
  0001b	8d 8e 98 01 00
	00		 lea	 ecx, DWORD PTR [esi+408]
  00021	c7 06 00 00 00
	00		 mov	 DWORD PTR [esi], OFFSET ??_7HeadquartersJoinRequestWnd@@6B@
  00027	ff 15 00 00 00
	00		 call	 DWORD PTR __imp_??0ioHashString@@QAE@XZ

; 444  : 	m_pIconBack	= NULL;

  0002d	83 a6 90 01 00
	00 00		 and	 DWORD PTR [esi+400], 0

; 445  : 	m_pIcon		= NULL;

  00034	83 a6 94 01 00
	00 00		 and	 DWORD PTR [esi+404], 0

; 446  : 
; 447  : 	m_dwCurrentTime = 0;

  0003b	83 a6 a8 01 00
	00 00		 and	 DWORD PTR [esi+424], 0

; 448  : }

  00042	8b c6		 mov	 eax, esi
  00044	e8 00 00 00 00	 call	 __EH_epilog3
  00049	c3		 ret	 0
_TEXT	ENDS
;	COMDAT text$x
text$x	SEGMENT
__unwindfunclet$??0HeadquartersJoinRequestWnd@@QAE@XZ$0:
  00000	8b 4d f0	 mov	 ecx, DWORD PTR _this$[ebp]
  00003	ff 25 00 00 00
	00		 jmp	 DWORD PTR __imp_??1ioMovingWnd@@UAE@XZ
__ehhandler$??0HeadquartersJoinRequestWnd@@QAE@XZ:
  00009	8b 54 24 08	 mov	 edx, DWORD PTR [esp+8]
  0000d	8d 42 0c	 lea	 eax, DWORD PTR [edx+12]
  00010	8b 4a ec	 mov	 ecx, DWORD PTR [edx-20]
  00013	33 c8		 xor	 ecx, eax
  00015	e8 00 00 00 00	 call	 @__security_check_cookie@4
  0001a	b8 00 00 00 00	 mov	 eax, OFFSET __ehfuncinfo$??0HeadquartersJoinRequestWnd@@QAE@XZ
  0001f	e9 00 00 00 00	 jmp	 ___CxxFrameHandler3
text$x	ENDS
??0HeadquartersJoinRequestWnd@@QAE@XZ ENDP		; HeadquartersJoinRequestWnd::HeadquartersJoinRequestWnd
PUBLIC	??1HeadquartersJoinRequestWnd@@UAE@XZ		; HeadquartersJoinRequestWnd::~HeadquartersJoinRequestWnd
;	COMDAT xdata$x
xdata$x	SEGMENT
__unwindtable$??1HeadquartersJoinRequestWnd@@UAE@XZ DD 0ffffffffH
	DD	FLAT:__unwindfunclet$??1HeadquartersJoinRequestWnd@@UAE@XZ$0
	DD	00H
	DD	FLAT:__unwindfunclet$??1HeadquartersJoinRequestWnd@@UAE@XZ$1
__ehfuncinfo$??1HeadquartersJoinRequestWnd@@UAE@XZ DD 019930522H
	DD	02H
	DD	FLAT:__unwindtable$??1HeadquartersJoinRequestWnd@@UAE@XZ
	DD	2 DUP(00H)
	DD	2 DUP(00H)
	DD	00H
	DD	01H
; Function compile flags: /Ogsp
xdata$x	ENDS
;	COMDAT ??1HeadquartersJoinRequestWnd@@UAE@XZ
_TEXT	SEGMENT
_this$ = -16						; size = 4
__$EHRec$ = -12						; size = 12
??1HeadquartersJoinRequestWnd@@UAE@XZ PROC		; HeadquartersJoinRequestWnd::~HeadquartersJoinRequestWnd, COMDAT
; _this$ = ecx

; 451  : {

  00000	6a 04		 push	 4
  00002	b8 00 00 00 00	 mov	 eax, __ehhandler$??1HeadquartersJoinRequestWnd@@UAE@XZ
  00007	e8 00 00 00 00	 call	 __EH_prolog3
  0000c	8b f1		 mov	 esi, ecx
  0000e	89 75 f0	 mov	 DWORD PTR _this$[ebp], esi
  00011	c7 06 00 00 00
	00		 mov	 DWORD PTR [esi], OFFSET ??_7HeadquartersJoinRequestWnd@@6B@

; 452  : 	SAFEDELETE( m_pIconBack );

  00017	8b 8e 90 01 00
	00		 mov	 ecx, DWORD PTR [esi+400]
  0001d	c7 45 fc 01 00
	00 00		 mov	 DWORD PTR __$EHRec$[ebp+8], 1
  00024	85 c9		 test	 ecx, ecx
  00026	74 0e		 je	 SHORT $LN2@Headquarte
  00028	8b 01		 mov	 eax, DWORD PTR [ecx]
  0002a	6a 01		 push	 1
  0002c	ff 50 40	 call	 DWORD PTR [eax+64]
  0002f	83 a6 90 01 00
	00 00		 and	 DWORD PTR [esi+400], 0
$LN2@Headquarte:

; 453  : 	SAFEDELETE( m_pIcon );

  00036	8b 8e 94 01 00
	00		 mov	 ecx, DWORD PTR [esi+404]
  0003c	85 c9		 test	 ecx, ecx
  0003e	74 0e		 je	 SHORT $LN1@Headquarte
  00040	8b 01		 mov	 eax, DWORD PTR [ecx]
  00042	6a 01		 push	 1
  00044	ff 50 40	 call	 DWORD PTR [eax+64]
  00047	83 a6 94 01 00
	00 00		 and	 DWORD PTR [esi+404], 0
$LN1@Headquarte:

; 454  : }

  0004e	8d 8e 98 01 00
	00		 lea	 ecx, DWORD PTR [esi+408]
  00054	c6 45 fc 00	 mov	 BYTE PTR __$EHRec$[ebp+8], 0
  00058	ff 15 00 00 00
	00		 call	 DWORD PTR __imp_??1ioHashString@@QAE@XZ
  0005e	83 4d fc ff	 or	 DWORD PTR __$EHRec$[ebp+8], -1
  00062	8b ce		 mov	 ecx, esi
  00064	ff 15 00 00 00
	00		 call	 DWORD PTR __imp_??1ioMovingWnd@@UAE@XZ
  0006a	e8 00 00 00 00	 call	 __EH_epilog3
  0006f	c3		 ret	 0
_TEXT	ENDS
;	COMDAT text$x
text$x	SEGMENT
__unwindfunclet$??1HeadquartersJoinRequestWnd@@UAE@XZ$0:
  00000	8b 4d f0	 mov	 ecx, DWORD PTR _this$[ebp]
  00003	ff 25 00 00 00
	00		 jmp	 DWORD PTR __imp_??1ioMovingWnd@@UAE@XZ
__unwindfunclet$??1HeadquartersJoinRequestWnd@@UAE@XZ$1:
  00009	8b 4d f0	 mov	 ecx, DWORD PTR _this$[ebp]
  0000c	81 c1 98 01 00
	00		 add	 ecx, 408		; 00000198H
  00012	ff 25 00 00 00
	00		 jmp	 DWORD PTR __imp_??1ioHashString@@QAE@XZ
__ehhandler$??1HeadquartersJoinRequestWnd@@UAE@XZ:
  00018	8b 54 24 08	 mov	 edx, DWORD PTR [esp+8]
  0001c	8d 42 0c	 lea	 eax, DWORD PTR [edx+12]
  0001f	8b 4a ec	 mov	 ecx, DWORD PTR [edx-20]
  00022	33 c8		 xor	 ecx, eax
  00024	e8 00 00 00 00	 call	 @__security_check_cookie@4
  00029	b8 00 00 00 00	 mov	 eax, OFFSET __ehfuncinfo$??1HeadquartersJoinRequestWnd@@UAE@XZ
  0002e	e9 00 00 00 00	 jmp	 ___CxxFrameHandler3
text$x	ENDS
??1HeadquartersJoinRequestWnd@@UAE@XZ ENDP		; HeadquartersJoinRequestWnd::~HeadquartersJoinRequestWnd
; Function compile flags: /Ogsp
;	COMDAT ?iwm_show@HeadquartersJoinRequestWnd@@UAEXXZ
_TEXT	SEGMENT
?iwm_show@HeadquartersJoinRequestWnd@@UAEXXZ PROC	; HeadquartersJoinRequestWnd::iwm_show, COMDAT
; _this$ = ecx

; 474  : }

  00000	c3		 ret	 0
?iwm_show@HeadquartersJoinRequestWnd@@UAEXXZ ENDP	; HeadquartersJoinRequestWnd::iwm_show
; Function compile flags: /Ogsp
_TEXT	ENDS
;	COMDAT ?iwm_hide@HeadquartersJoinRequestWnd@@UAEXXZ
_TEXT	SEGMENT
?iwm_hide@HeadquartersJoinRequestWnd@@UAEXXZ PROC	; HeadquartersJoinRequestWnd::iwm_hide, COMDAT
; _this$ = ecx

; 478  : }

  00000	c3		 ret	 0
?iwm_hide@HeadquartersJoinRequestWnd@@UAEXXZ ENDP	; HeadquartersJoinRequestWnd::iwm_hide
_TEXT	ENDS
EXTRN	__imp_?FindChildWnd@ioWnd@@QAEPAV1@K@Z:PROC
EXTRN	__imp_?IsShow@ioWnd@@QBE_NXZ:PROC
; Function compile flags: /Ogsp
;	COMDAT ?iwm_spacebar@HeadquartersJoinRequestWnd@@UAE_NXZ
_TEXT	SEGMENT
?iwm_spacebar@HeadquartersJoinRequestWnd@@UAE_NXZ PROC	; HeadquartersJoinRequestWnd::iwm_spacebar, COMDAT
; _this$ = ecx

; 481  : {

  00000	56		 push	 esi
  00001	8b f1		 mov	 esi, ecx

; 482  : 	if( !IsShow() )

  00003	ff 15 00 00 00
	00		 call	 DWORD PTR __imp_?IsShow@ioWnd@@QBE_NXZ
  00009	84 c0		 test	 al, al
  0000b	75 02		 jne	 SHORT $LN3@iwm_spaceb
  0000d	5e		 pop	 esi

; 491  : }

  0000e	c3		 ret	 0
$LN3@iwm_spaceb:
  0000f	57		 push	 edi

; 483  : 		return false;
; 484  : 
; 485  : 	ioWnd *pBtn = FindChildWnd( ID_AGREE );

  00010	6a 02		 push	 2
  00012	8b ce		 mov	 ecx, esi
  00014	ff 15 00 00 00
	00		 call	 DWORD PTR __imp_?FindChildWnd@ioWnd@@QAEPAV1@K@Z
  0001a	8b f8		 mov	 edi, eax

; 486  : 	if( !pBtn ) return false;

  0001c	85 ff		 test	 edi, edi
  0001e	74 0c		 je	 SHORT $LN7@iwm_spaceb

; 487  : 	if( !pBtn->IsShow() ) return false;

  00020	8b cf		 mov	 ecx, edi
  00022	ff 15 00 00 00
	00		 call	 DWORD PTR __imp_?IsShow@ioWnd@@QBE_NXZ
  00028	84 c0		 test	 al, al
  0002a	75 04		 jne	 SHORT $LN1@iwm_spaceb
$LN7@iwm_spaceb:
  0002c	32 c0		 xor	 al, al
  0002e	eb 11		 jmp	 SHORT $LN6@iwm_spaceb
$LN1@iwm_spaceb:

; 488  : 
; 489  : 	iwm_command( pBtn, IOBN_BTNUP, 0 );

  00030	8b 06		 mov	 eax, DWORD PTR [esi]
  00032	6a 00		 push	 0
  00034	6a 11		 push	 17			; 00000011H
  00036	57		 push	 edi
  00037	8b ce		 mov	 ecx, esi
  00039	ff 90 8c 00 00
	00		 call	 DWORD PTR [eax+140]

; 490  : 	return true;

  0003f	b0 01		 mov	 al, 1
$LN6@iwm_spaceb:

; 491  : }

  00041	5f		 pop	 edi
  00042	5e		 pop	 esi
  00043	c3		 ret	 0
?iwm_spacebar@HeadquartersJoinRequestWnd@@UAE_NXZ ENDP	; HeadquartersJoinRequestWnd::iwm_spacebar
_TEXT	ENDS
PUBLIC	__$ArrayPad$
PUBLIC	?OnAgree@HeadquartersJoinRequestWnd@@IAEXXZ	; HeadquartersJoinRequestWnd::OnAgree
EXTRN	??1SP2Packet@@UAE@XZ:PROC			; SP2Packet::~SP2Packet
EXTRN	__imp_?HideWnd@ioWnd@@QAEXXZ:PROC
EXTRN	?SendToServer@TCPNetwork@@YAXAAVSP2Packet@@@Z:PROC ; TCPNetwork::SendToServer
EXTRN	??6SP2Packet@@QAEAAV0@ABVioHashString@@@Z:PROC	; SP2Packet::operator<<
EXTRN	??0SP2Packet@@QAE@K@Z:PROC			; SP2Packet::SP2Packet
EXTRN	___security_cookie:DWORD
EXTRN	__chkstk:PROC
;	COMDAT xdata$x
xdata$x	SEGMENT
__unwindtable$?OnAgree@HeadquartersJoinRequestWnd@@IAEXXZ DD 0ffffffffH
	DD	FLAT:__unwindfunclet$?OnAgree@HeadquartersJoinRequestWnd@@IAEXXZ$0
__ehfuncinfo$?OnAgree@HeadquartersJoinRequestWnd@@IAEXXZ DD 019930522H
	DD	01H
	DD	FLAT:__unwindtable$?OnAgree@HeadquartersJoinRequestWnd@@IAEXXZ
	DD	2 DUP(00H)
	DD	2 DUP(00H)
	DD	00H
	DD	01H
; Function compile flags: /Ogsp
xdata$x	ENDS
;	COMDAT ?OnAgree@HeadquartersJoinRequestWnd@@IAEXXZ
_TEXT	SEGMENT
_kPacket$ = -32808					; size = 32792
__$ArrayPad$ = -16					; size = 4
__$EHRec$ = -12						; size = 12
?OnAgree@HeadquartersJoinRequestWnd@@IAEXXZ PROC	; HeadquartersJoinRequestWnd::OnAgree, COMDAT
; _this$ = ecx

; 494  : {

  00000	55		 push	 ebp
  00001	8b ec		 mov	 ebp, esp
  00003	6a ff		 push	 -1
  00005	68 00 00 00 00	 push	 __ehhandler$?OnAgree@HeadquartersJoinRequestWnd@@IAEXXZ
  0000a	64 a1 00 00 00
	00		 mov	 eax, DWORD PTR fs:0
  00010	50		 push	 eax
  00011	b8 1c 80 00 00	 mov	 eax, 32796		; 0000801cH
  00016	e8 00 00 00 00	 call	 __chkstk
  0001b	a1 00 00 00 00	 mov	 eax, DWORD PTR ___security_cookie
  00020	33 c5		 xor	 eax, ebp
  00022	89 45 f0	 mov	 DWORD PTR __$ArrayPad$[ebp], eax
  00025	56		 push	 esi
  00026	50		 push	 eax
  00027	8d 45 f4	 lea	 eax, DWORD PTR __$EHRec$[ebp]
  0002a	64 a3 00 00 00
	00		 mov	 DWORD PTR fs:0, eax
  00030	8b f1		 mov	 esi, ecx

; 495  : 	SP2Packet kPacket( CTPK_HEADQUARTERS_JOIN_AGREE );

  00032	68 45 02 00 00	 push	 581			; 00000245H
  00037	8d 8d d8 7f ff
	ff		 lea	 ecx, DWORD PTR _kPacket$[ebp]
  0003d	e8 00 00 00 00	 call	 ??0SP2Packet@@QAE@K@Z	; SP2Packet::SP2Packet
  00042	83 65 fc 00	 and	 DWORD PTR __$EHRec$[ebp+8], 0

; 496  : 	kPacket << m_szRequestName;

  00046	8d 86 98 01 00
	00		 lea	 eax, DWORD PTR [esi+408]
  0004c	50		 push	 eax
  0004d	8d 8d d8 7f ff
	ff		 lea	 ecx, DWORD PTR _kPacket$[ebp]
  00053	e8 00 00 00 00	 call	 ??6SP2Packet@@QAEAAV0@ABVioHashString@@@Z ; SP2Packet::operator<<

; 497  : 	TCPNetwork::SendToServer( kPacket );

  00058	8d 85 d8 7f ff
	ff		 lea	 eax, DWORD PTR _kPacket$[ebp]
  0005e	50		 push	 eax
  0005f	e8 00 00 00 00	 call	 ?SendToServer@TCPNetwork@@YAXAAVSP2Packet@@@Z ; TCPNetwork::SendToServer
  00064	59		 pop	 ecx

; 498  : 
; 499  : 	HideWnd();

  00065	8b ce		 mov	 ecx, esi
  00067	ff 15 00 00 00
	00		 call	 DWORD PTR __imp_?HideWnd@ioWnd@@QAEXXZ

; 500  : }

  0006d	83 4d fc ff	 or	 DWORD PTR __$EHRec$[ebp+8], -1
  00071	8d 8d d8 7f ff
	ff		 lea	 ecx, DWORD PTR _kPacket$[ebp]
  00077	e8 00 00 00 00	 call	 ??1SP2Packet@@UAE@XZ	; SP2Packet::~SP2Packet
  0007c	8b 4d f4	 mov	 ecx, DWORD PTR __$EHRec$[ebp]
  0007f	64 89 0d 00 00
	00 00		 mov	 DWORD PTR fs:0, ecx
  00086	59		 pop	 ecx
  00087	5e		 pop	 esi
  00088	8b 4d f0	 mov	 ecx, DWORD PTR __$ArrayPad$[ebp]
  0008b	33 cd		 xor	 ecx, ebp
  0008d	e8 00 00 00 00	 call	 @__security_check_cookie@4
  00092	c9		 leave
  00093	c3		 ret	 0
_TEXT	ENDS
;	COMDAT text$x
text$x	SEGMENT
__unwindfunclet$?OnAgree@HeadquartersJoinRequestWnd@@IAEXXZ$0:
  00000	8d 8d d8 7f ff
	ff		 lea	 ecx, DWORD PTR _kPacket$[ebp]
  00006	e9 00 00 00 00	 jmp	 ??1SP2Packet@@UAE@XZ	; SP2Packet::~SP2Packet
__ehhandler$?OnAgree@HeadquartersJoinRequestWnd@@IAEXXZ:
  0000b	8b 54 24 08	 mov	 edx, DWORD PTR [esp+8]
  0000f	8d 42 0c	 lea	 eax, DWORD PTR [edx+12]
  00012	8b 8a dc 7f ff
	ff		 mov	 ecx, DWORD PTR [edx-32804]
  00018	33 c8		 xor	 ecx, eax
  0001a	e8 00 00 00 00	 call	 @__security_check_cookie@4
  0001f	8b 4a fc	 mov	 ecx, DWORD PTR [edx-4]
  00022	33 c8		 xor	 ecx, eax
  00024	e8 00 00 00 00	 call	 @__security_check_cookie@4
  00029	b8 00 00 00 00	 mov	 eax, OFFSET __ehfuncinfo$?OnAgree@HeadquartersJoinRequestWnd@@IAEXXZ
  0002e	e9 00 00 00 00	 jmp	 ___CxxFrameHandler3
text$x	ENDS
?OnAgree@HeadquartersJoinRequestWnd@@IAEXXZ ENDP	; HeadquartersJoinRequestWnd::OnAgree
PUBLIC	?OnRefuse@HeadquartersJoinRequestWnd@@IAEXXZ	; HeadquartersJoinRequestWnd::OnRefuse
; Function compile flags: /Ogsp
;	COMDAT ?OnRefuse@HeadquartersJoinRequestWnd@@IAEXXZ
_TEXT	SEGMENT
?OnRefuse@HeadquartersJoinRequestWnd@@IAEXXZ PROC	; HeadquartersJoinRequestWnd::OnRefuse, COMDAT
; _this$ = ecx

; 504  : 	HideWnd();

  00000	ff 25 00 00 00
	00		 jmp	 DWORD PTR __imp_?HideWnd@ioWnd@@QAEXXZ
?OnRefuse@HeadquartersJoinRequestWnd@@IAEXXZ ENDP	; HeadquartersJoinRequestWnd::OnRefuse
_TEXT	ENDS
EXTRN	__imp_?GetID@ioWnd@@QBEKXZ:PROC
; Function compile flags: /Ogsp
;	COMDAT ?iwm_command@HeadquartersJoinRequestWnd@@UAEXPAVioWnd@@HK@Z
_TEXT	SEGMENT
_pWnd$ = 8						; size = 4
_cmd$ = 12						; size = 4
_param$ = 16						; size = 4
?iwm_command@HeadquartersJoinRequestWnd@@UAEXPAVioWnd@@HK@Z PROC ; HeadquartersJoinRequestWnd::iwm_command, COMDAT
; _this$ = ecx

; 508  : {

  00000	55		 push	 ebp
  00001	8b ec		 mov	 ebp, esp
  00003	56		 push	 esi
  00004	8b f1		 mov	 esi, ecx

; 509  : 	DWORD dwID = pWnd->GetID();

  00006	8b 4d 08	 mov	 ecx, DWORD PTR _pWnd$[ebp]
  00009	ff 15 00 00 00
	00		 call	 DWORD PTR __imp_?GetID@ioWnd@@QBEKXZ

; 510  : 	switch( dwID )

  0000f	48		 dec	 eax
  00010	74 06		 je	 SHORT $LN2@iwm_comman
  00012	48		 dec	 eax
  00013	74 16		 je	 SHORT $LN4@iwm_comman
  00015	48		 dec	 eax
  00016	75 0e		 jne	 SHORT $LN9@iwm_comman
$LN2@iwm_comman:

; 518  : 	case ID_EXIT:
; 519  : 	case ID_REFUSE:
; 520  : 		if( cmd == IOBN_BTNUP )

  00018	83 7d 0c 11	 cmp	 DWORD PTR _cmd$[ebp], 17 ; 00000011H
  0001c	75 08		 jne	 SHORT $LN9@iwm_comman

; 521  : 		{
; 522  : 			OnRefuse();

  0001e	8b ce		 mov	 ecx, esi
  00020	ff 15 00 00 00
	00		 call	 DWORD PTR __imp_?HideWnd@ioWnd@@QAEXXZ
$LN9@iwm_comman:
  00026	5e		 pop	 esi

; 523  : 		}
; 524  : 		break;
; 525  : 	}
; 526  : }

  00027	5d		 pop	 ebp
  00028	c2 0c 00	 ret	 12			; 0000000cH
$LN4@iwm_comman:

; 511  : 	{
; 512  : 	case ID_AGREE:
; 513  : 		if( cmd == IOBN_BTNUP )

  0002b	83 7d 0c 11	 cmp	 DWORD PTR _cmd$[ebp], 17 ; 00000011H
  0002f	75 f5		 jne	 SHORT $LN9@iwm_comman

; 514  : 		{
; 515  : 			OnAgree();

  00031	8b ce		 mov	 ecx, esi
  00033	e8 00 00 00 00	 call	 ?OnAgree@HeadquartersJoinRequestWnd@@IAEXXZ ; HeadquartersJoinRequestWnd::OnAgree

; 516  : 		}
; 517  : 		break;

  00038	eb ec		 jmp	 SHORT $LN9@iwm_comman
?iwm_command@HeadquartersJoinRequestWnd@@UAEXPAVioWnd@@HK@Z ENDP ; HeadquartersJoinRequestWnd::iwm_command
_TEXT	ENDS
PUBLIC	??_C@_0CL@DFIDKCND@HeadquartersJoinRequestWnd?3?3SetR@ ; `string'
PUBLIC	??_C@_00CNPNBAHC@?$AA@				; `string'
PUBLIC	__$ArrayPad$
PUBLIC	?SetRequestName@HeadquartersJoinRequestWnd@@QAEXABVioHashString@@@Z ; HeadquartersJoinRequestWnd::SetRequestName
EXTRN	__imp_?SetTitleText@ioWnd@@QAEXPBD0H@Z:PROC
EXTRN	__imp_?SafeSprintf@@YAXPADHPBDH@Z:PROC
EXTRN	__imp_?GetString@ioStringManager@@QAEPADPBD0HW4FileNamePrefix@1@@Z:PROC
EXTRN	__imp_?GetSingleton@ioStringManager@@SAAAV1@XZ:PROC
EXTRN	__imp_?GetLoopSec@ioFrameTimer@@QBEKXZ:PROC
EXTRN	__imp_?GetSingleton@ioFrameTimer@@SAAAV1@XZ:PROC
EXTRN	__imp_??4ioHashString@@QAEAAV0@ABV0@@Z:PROC
EXTRN	_memset:PROC
;	COMDAT ??_C@_0CL@DFIDKCND@HeadquartersJoinRequestWnd?3?3SetR@
CONST	SEGMENT
??_C@_0CL@DFIDKCND@HeadquartersJoinRequestWnd?3?3SetR@ DB 'HeadquartersJo'
	DB	'inRequestWnd::SetRequestName', 00H		; `string'
CONST	ENDS
;	COMDAT ??_C@_00CNPNBAHC@?$AA@
CONST	SEGMENT
??_C@_00CNPNBAHC@?$AA@ DB 00H				; `string'
; Function compile flags: /Ogsp
CONST	ENDS
;	COMDAT ?SetRequestName@HeadquartersJoinRequestWnd@@QAEXABVioHashString@@@Z
_TEXT	SEGMENT
_szTitle$ = -264					; size = 260
__$ArrayPad$ = -4					; size = 4
_rkName$ = 8						; size = 4
?SetRequestName@HeadquartersJoinRequestWnd@@QAEXABVioHashString@@@Z PROC ; HeadquartersJoinRequestWnd::SetRequestName, COMDAT
; _this$ = ecx

; 529  : {

  00000	55		 push	 ebp
  00001	8b ec		 mov	 ebp, esp
  00003	81 ec 08 01 00
	00		 sub	 esp, 264		; 00000108H
  00009	a1 00 00 00 00	 mov	 eax, DWORD PTR ___security_cookie
  0000e	33 c5		 xor	 eax, ebp
  00010	89 45 fc	 mov	 DWORD PTR __$ArrayPad$[ebp], eax
  00013	8b 45 08	 mov	 eax, DWORD PTR _rkName$[ebp]
  00016	56		 push	 esi
  00017	57		 push	 edi
  00018	8b f1		 mov	 esi, ecx

; 530  : 	m_szRequestName = rkName;

  0001a	50		 push	 eax
  0001b	8d 8e 98 01 00
	00		 lea	 ecx, DWORD PTR [esi+408]
  00021	ff 15 00 00 00
	00		 call	 DWORD PTR __imp_??4ioHashString@@QAEAAV0@ABV0@@Z

; 531  : 	m_dwCurrentTime = FRAMEGETTIME();

  00027	ff 15 00 00 00
	00		 call	 DWORD PTR __imp_?GetSingleton@ioFrameTimer@@SAAAV1@XZ
  0002d	8b c8		 mov	 ecx, eax
  0002f	ff 15 00 00 00
	00		 call	 DWORD PTR __imp_?GetLoopSec@ioFrameTimer@@QBEKXZ

; 532  : 
; 533  : 	char szTitle[MAX_PATH] = "";

  00035	68 03 01 00 00	 push	 259			; 00000103H
  0003a	89 86 a8 01 00
	00		 mov	 DWORD PTR [esi+424], eax
  00040	8d 85 f9 fe ff
	ff		 lea	 eax, DWORD PTR _szTitle$[ebp+1]
  00046	6a 00		 push	 0
  00048	50		 push	 eax
  00049	c6 85 f8 fe ff
	ff 00		 mov	 BYTE PTR _szTitle$[ebp], 0
  00050	e8 00 00 00 00	 call	 _memset
  00055	83 c4 0c	 add	 esp, 12			; 0000000cH

; 534  : 	SafeSprintf( szTitle, sizeof( szTitle ), STR(1), REQUEST_DELAY_SEC );

  00058	6a 07		 push	 7
  0005a	6a 00		 push	 0
  0005c	6a 01		 push	 1
  0005e	bf 00 00 00 00	 mov	 edi, OFFSET ??_C@_00CNPNBAHC@?$AA@
  00063	57		 push	 edi
  00064	68 00 00 00 00	 push	 OFFSET ??_C@_0CL@DFIDKCND@HeadquartersJoinRequestWnd?3?3SetR@
  00069	ff 15 00 00 00
	00		 call	 DWORD PTR __imp_?GetSingleton@ioStringManager@@SAAAV1@XZ
  0006f	8b c8		 mov	 ecx, eax
  00071	ff 15 00 00 00
	00		 call	 DWORD PTR __imp_?GetString@ioStringManager@@QAEPADPBD0HW4FileNamePrefix@1@@Z
  00077	50		 push	 eax
  00078	8d 85 f8 fe ff
	ff		 lea	 eax, DWORD PTR _szTitle$[ebp]
  0007e	68 04 01 00 00	 push	 260			; 00000104H
  00083	50		 push	 eax
  00084	ff 15 00 00 00
	00		 call	 DWORD PTR __imp_?SafeSprintf@@YAXPADHPBDH@Z
  0008a	83 c4 10	 add	 esp, 16			; 00000010H

; 535  : 	SetTitleText( szTitle );

  0008d	6a 00		 push	 0
  0008f	57		 push	 edi
  00090	8d 85 f8 fe ff
	ff		 lea	 eax, DWORD PTR _szTitle$[ebp]
  00096	50		 push	 eax
  00097	8b ce		 mov	 ecx, esi
  00099	ff 15 00 00 00
	00		 call	 DWORD PTR __imp_?SetTitleText@ioWnd@@QAEXPBD0H@Z

; 536  : }

  0009f	8b 4d fc	 mov	 ecx, DWORD PTR __$ArrayPad$[ebp]
  000a2	5f		 pop	 edi
  000a3	33 cd		 xor	 ecx, ebp
  000a5	5e		 pop	 esi
  000a6	e8 00 00 00 00	 call	 @__security_check_cookie@4
  000ab	c9		 leave
  000ac	c2 04 00	 ret	 4
?SetRequestName@HeadquartersJoinRequestWnd@@QAEXABVioHashString@@@Z ENDP ; HeadquartersJoinRequestWnd::SetRequestName
_TEXT	ENDS
PUBLIC	??_C@_0CG@GOKCHNGK@HeadquartersJoinRequestWnd?3?3OnPr@ ; `string'
PUBLIC	__real@4f800000
PUBLIC	__$ArrayPad$
EXTRN	__imp_?OnProcess@ioWnd@@MAEXM@Z:PROC
EXTRN	__ftol2:PROC
;	COMDAT ??_C@_0CG@GOKCHNGK@HeadquartersJoinRequestWnd?3?3OnPr@
; File d:\lost saga for developer\youtube\tutorial\source\src\lsclient\stdafx.h
CONST	SEGMENT
??_C@_0CG@GOKCHNGK@HeadquartersJoinRequestWnd?3?3OnPr@ DB 'HeadquartersJo'
	DB	'inRequestWnd::OnProcess', 00H		; `string'
CONST	ENDS
;	COMDAT __real@4f800000
CONST	SEGMENT
__real@4f800000 DD 04f800000r			; 4.29497e+009
; Function compile flags: /Ogsp
; File d:\lost saga for developer\youtube\tutorial\source\src\lsclient\gui\headquartersmainwnd.cpp
CONST	ENDS
;	COMDAT ?OnProcess@HeadquartersJoinRequestWnd@@MAEXM@Z
_TEXT	SEGMENT
$T528196 = -272						; size = 4
tv197 = -268						; size = 4
tv194 = -268						; size = 4
_szTitle$520822 = -264					; size = 260
__$ArrayPad$ = -4					; size = 4
_fTimePerSec$ = 8					; size = 4
?OnProcess@HeadquartersJoinRequestWnd@@MAEXM@Z PROC	; HeadquartersJoinRequestWnd::OnProcess, COMDAT
; _this$ = ecx

; 539  : {

  00000	55		 push	 ebp
  00001	8b ec		 mov	 ebp, esp
  00003	81 ec 10 01 00
	00		 sub	 esp, 272		; 00000110H
  00009	a1 00 00 00 00	 mov	 eax, DWORD PTR ___security_cookie
  0000e	33 c5		 xor	 eax, ebp
  00010	89 45 fc	 mov	 DWORD PTR __$ArrayPad$[ebp], eax
  00013	56		 push	 esi
  00014	8b f1		 mov	 esi, ecx

; 540  : 	if( !IsShow() )

  00016	ff 15 00 00 00
	00		 call	 DWORD PTR __imp_?IsShow@ioWnd@@QBE_NXZ
  0001c	84 c0		 test	 al, al
  0001e	0f 84 05 01 00
	00		 je	 $LN1@OnProcess

; 541  : 		return;
; 542  : 
; 543  : 	ioMovingWnd::OnProcess( fTimePerSec );

  00024	f3 0f 10 45 08	 movss	 xmm0, DWORD PTR _fTimePerSec$[ebp]
  00029	53		 push	 ebx
  0002a	51		 push	 ecx
  0002b	8b ce		 mov	 ecx, esi
  0002d	f3 0f 11 04 24	 movss	 DWORD PTR [esp], xmm0
  00032	ff 15 00 00 00
	00		 call	 DWORD PTR __imp_?OnProcess@ioWnd@@MAEXM@Z

; 544  : 
; 545  : 	if( m_dwCurrentTime == 0 )

  00038	33 db		 xor	 ebx, ebx
  0003a	39 9e a8 01 00
	00		 cmp	 DWORD PTR [esi+424], ebx
  00040	0f 84 e2 00 00
	00		 je	 $LN9@OnProcess

; 546  : 		return;
; 547  : 
; 548  : 	if( FRAMEGETTIME() - m_dwCurrentTime >= REQUEST_DELAY_SEC * 1000 )

  00046	57		 push	 edi
  00047	8b 3d 00 00 00
	00		 mov	 edi, DWORD PTR __imp_?GetSingleton@ioFrameTimer@@SAAAV1@XZ
  0004d	ff d7		 call	 edi
  0004f	8b c8		 mov	 ecx, eax
  00051	ff 15 00 00 00
	00		 call	 DWORD PTR __imp_?GetLoopSec@ioFrameTimer@@QBEKXZ
  00057	2b 86 a8 01 00
	00		 sub	 eax, DWORD PTR [esi+424]
  0005d	3d 58 1b 00 00	 cmp	 eax, 7000		; 00001b58H
  00062	72 13		 jb	 SHORT $LN2@OnProcess

; 549  : 	{
; 550  : 		HideWnd();	

  00064	8b ce		 mov	 ecx, esi
  00066	ff 15 00 00 00
	00		 call	 DWORD PTR __imp_?HideWnd@ioWnd@@QAEXXZ

; 551  : 		m_dwCurrentTime = 0;

  0006c	89 9e a8 01 00
	00		 mov	 DWORD PTR [esi+424], ebx

; 552  : 	}
; 553  : 	else

  00072	e9 b0 00 00 00	 jmp	 $LN10@OnProcess
$LN2@OnProcess:

; 554  : 	{
; 555  : 		DWORD dwSec = ((float)(FRAMEGETTIME() - m_dwCurrentTime) / FLOAT1000);

  00077	b8 e8 03 00 00	 mov	 eax, 1000		; 000003e8H
  0007c	89 85 f0 fe ff
	ff		 mov	 DWORD PTR $T528196[ebp], eax
  00082	ff d7		 call	 edi
  00084	8b c8		 mov	 ecx, eax
  00086	ff 15 00 00 00
	00		 call	 DWORD PTR __imp_?GetLoopSec@ioFrameTimer@@QBEKXZ
  0008c	2b 86 a8 01 00
	00		 sub	 eax, DWORD PTR [esi+424]

; 556  : 		int   iSec  = max( 0, REQUEST_DELAY_SEC - dwSec );	

  00092	89 85 f4 fe ff
	ff		 mov	 DWORD PTR tv197[ebp], eax
  00098	db 85 f4 fe ff
	ff		 fild	 DWORD PTR tv197[ebp]
  0009e	79 06		 jns	 SHORT $LN11@OnProcess
  000a0	d8 05 00 00 00
	00		 fadd	 DWORD PTR __real@4f800000
$LN11@OnProcess:
  000a6	8b 85 f0 fe ff
	ff		 mov	 eax, DWORD PTR $T528196[ebp]
  000ac	db 85 f0 fe ff
	ff		 fild	 DWORD PTR $T528196[ebp]
  000b2	85 c0		 test	 eax, eax
  000b4	79 06		 jns	 SHORT $LN12@OnProcess
  000b6	d8 05 00 00 00
	00		 fadd	 DWORD PTR __real@4f800000
$LN12@OnProcess:

; 554  : 	{
; 555  : 		DWORD dwSec = ((float)(FRAMEGETTIME() - m_dwCurrentTime) / FLOAT1000);

  000bc	de f9		 fdivp	 ST(1), ST(0)

; 556  : 		int   iSec  = max( 0, REQUEST_DELAY_SEC - dwSec );	

  000be	e8 00 00 00 00	 call	 __ftol2
  000c3	6a 07		 push	 7
  000c5	5f		 pop	 edi

; 557  : 		char szTitle[MAX_PATH] = "";

  000c6	68 03 01 00 00	 push	 259			; 00000103H
  000cb	2b f8		 sub	 edi, eax
  000cd	8d 85 f9 fe ff
	ff		 lea	 eax, DWORD PTR _szTitle$520822[ebp+1]
  000d3	53		 push	 ebx
  000d4	50		 push	 eax
  000d5	88 9d f8 fe ff
	ff		 mov	 BYTE PTR _szTitle$520822[ebp], bl
  000db	e8 00 00 00 00	 call	 _memset
  000e0	83 c4 0c	 add	 esp, 12			; 0000000cH

; 558  : 		SafeSprintf( szTitle, sizeof( szTitle ), STR(1), iSec );

  000e3	57		 push	 edi
  000e4	53		 push	 ebx
  000e5	6a 01		 push	 1
  000e7	bf 00 00 00 00	 mov	 edi, OFFSET ??_C@_00CNPNBAHC@?$AA@
  000ec	57		 push	 edi
  000ed	68 00 00 00 00	 push	 OFFSET ??_C@_0CG@GOKCHNGK@HeadquartersJoinRequestWnd?3?3OnPr@
  000f2	ff 15 00 00 00
	00		 call	 DWORD PTR __imp_?GetSingleton@ioStringManager@@SAAAV1@XZ
  000f8	8b c8		 mov	 ecx, eax
  000fa	ff 15 00 00 00
	00		 call	 DWORD PTR __imp_?GetString@ioStringManager@@QAEPADPBD0HW4FileNamePrefix@1@@Z
  00100	50		 push	 eax
  00101	8d 85 f8 fe ff
	ff		 lea	 eax, DWORD PTR _szTitle$520822[ebp]
  00107	68 04 01 00 00	 push	 260			; 00000104H
  0010c	50		 push	 eax
  0010d	ff 15 00 00 00
	00		 call	 DWORD PTR __imp_?SafeSprintf@@YAXPADHPBDH@Z
  00113	83 c4 10	 add	 esp, 16			; 00000010H

; 559  : 		SetTitleText( szTitle );

  00116	53		 push	 ebx
  00117	57		 push	 edi
  00118	8d 85 f8 fe ff
	ff		 lea	 eax, DWORD PTR _szTitle$520822[ebp]
  0011e	50		 push	 eax
  0011f	8b ce		 mov	 ecx, esi
  00121	ff 15 00 00 00
	00		 call	 DWORD PTR __imp_?SetTitleText@ioWnd@@QAEXPBD0H@Z
$LN10@OnProcess:
  00127	5f		 pop	 edi
$LN9@OnProcess:
  00128	5b		 pop	 ebx
$LN1@OnProcess:

; 560  : 	}
; 561  : }

  00129	8b 4d fc	 mov	 ecx, DWORD PTR __$ArrayPad$[ebp]
  0012c	33 cd		 xor	 ecx, ebp
  0012e	5e		 pop	 esi
  0012f	e8 00 00 00 00	 call	 @__security_check_cookie@4
  00134	c9		 leave
  00135	c2 04 00	 ret	 4
?OnProcess@HeadquartersJoinRequestWnd@@MAEXM@Z ENDP	; HeadquartersJoinRequestWnd::OnProcess
_TEXT	ENDS
PUBLIC	??_C@_0CF@DAJHKOFD@HeadquartersJoinRequestWnd?3?3OnRe@ ; `string'
PUBLIC	__real@3f266666
PUBLIC	__real@43050000
PUBLIC	__real@3f0ccccd
EXTRN	__imp_?PrintText@ioFontManager@@QAAXMMMPBDZZ:PROC
EXTRN	__imp_?GetDerivedPosY@ioWnd@@QBEHXZ:PROC
EXTRN	__imp_?GetDerivedPosX@ioWnd@@QBEHXZ:PROC
EXTRN	__imp_?OnRender@ioWnd@@MAEXXZ:PROC
;	COMDAT ??_C@_0CF@DAJHKOFD@HeadquartersJoinRequestWnd?3?3OnRe@
CONST	SEGMENT
??_C@_0CF@DAJHKOFD@HeadquartersJoinRequestWnd?3?3OnRe@ DB 'HeadquartersJo'
	DB	'inRequestWnd::OnRender', 00H		; `string'
CONST	ENDS
;	COMDAT __real@3f266666
CONST	SEGMENT
__real@3f266666 DD 03f266666r			; 0.65
CONST	ENDS
;	COMDAT __real@43050000
CONST	SEGMENT
__real@43050000 DD 043050000r			; 133
CONST	ENDS
;	COMDAT __real@3f0ccccd
CONST	SEGMENT
__real@3f0ccccd DD 03f0ccccdr			; 0.55
; Function compile flags: /Ogsp
CONST	ENDS
;	COMDAT ?OnRender@HeadquartersJoinRequestWnd@@MAEXXZ
_TEXT	SEGMENT
tv338 = -12						; size = 4
tv368 = -8						; size = 4
tv362 = -8						; size = 4
tv336 = -8						; size = 4
_iXPos$ = -4						; size = 4
?OnRender@HeadquartersJoinRequestWnd@@MAEXXZ PROC	; HeadquartersJoinRequestWnd::OnRender, COMDAT
; _this$ = ecx

; 564  : {

  00000	55		 push	 ebp
  00001	8b ec		 mov	 ebp, esp
  00003	83 ec 0c	 sub	 esp, 12			; 0000000cH
  00006	53		 push	 ebx
  00007	56		 push	 esi
  00008	57		 push	 edi
  00009	8b d9		 mov	 ebx, ecx

; 565  : 	ioWnd::OnRender();

  0000b	ff 15 00 00 00
	00		 call	 DWORD PTR __imp_?OnRender@ioWnd@@MAEXXZ

; 566  : 
; 567  : 	int iXPos = GetDerivedPosX();

  00011	8b cb		 mov	 ecx, ebx
  00013	ff 15 00 00 00
	00		 call	 DWORD PTR __imp_?GetDerivedPosX@ioWnd@@QBEHXZ

; 568  : 	int iYPos = GetDerivedPosY();

  00019	8b cb		 mov	 ecx, ebx
  0001b	89 45 fc	 mov	 DWORD PTR _iXPos$[ebp], eax
  0001e	ff 15 00 00 00
	00		 call	 DWORD PTR __imp_?GetDerivedPosY@ioWnd@@QBEHXZ

; 569  : 
; 570  : 	if( m_pIconBack )

  00024	33 f6		 xor	 esi, esi
  00026	8b f8		 mov	 edi, eax
  00028	39 b3 90 01 00
	00		 cmp	 DWORD PTR [ebx+400], esi
  0002e	0f 84 ac 00 00
	00		 je	 $LN1@OnRender

; 571  : 	{
; 572  : 		m_pIconBack->SetScale( 0.55f, 0.55f );

  00034	8b 8b 90 01 00
	00		 mov	 ecx, DWORD PTR [ebx+400]
  0003a	f3 0f 10 05 00
	00 00 00	 movss	 xmm0, DWORD PTR __real@3f0ccccd
  00042	8b 01		 mov	 eax, DWORD PTR [ecx]
  00044	51		 push	 ecx
  00045	51		 push	 ecx
  00046	f3 0f 11 44 24
	04		 movss	 DWORD PTR [esp+4], xmm0
  0004c	f3 0f 11 04 24	 movss	 DWORD PTR [esp], xmm0
  00051	ff 50 18	 call	 DWORD PTR [eax+24]

; 573  : 		m_pIconBack->Render( iXPos + 33, iYPos + 70, UI_RENDER_MULTIPLY, TFO_BILINEAR );

  00054	8b 8b 90 01 00
	00		 mov	 ecx, DWORD PTR [ebx+400]
  0005a	56		 push	 esi
  0005b	56		 push	 esi
  0005c	6a 01		 push	 1
  0005e	8d 47 46	 lea	 eax, DWORD PTR [edi+70]
  00061	0f 57 c0	 xorps	 xmm0, xmm0
  00064	f3 0f 2a c0	 cvtsi2ss xmm0, eax
  00068	8b 45 fc	 mov	 eax, DWORD PTR _iXPos$[ebp]
  0006b	6a 08		 push	 8
  0006d	83 c0 21	 add	 eax, 33			; 00000021H
  00070	51		 push	 ecx
  00071	51		 push	 ecx
  00072	0f 57 c9	 xorps	 xmm1, xmm1
  00075	f3 0f 2a c8	 cvtsi2ss xmm1, eax
  00079	8b 01		 mov	 eax, DWORD PTR [ecx]
  0007b	f3 0f 11 44 24
	04		 movss	 DWORD PTR [esp+4], xmm0
  00081	f3 0f 11 45 f8	 movss	 DWORD PTR tv336[ebp], xmm0
  00086	f3 0f 11 4d f4	 movss	 DWORD PTR tv338[ebp], xmm1
  0008b	f3 0f 11 0c 24	 movss	 DWORD PTR [esp], xmm1
  00090	ff 10		 call	 DWORD PTR [eax]

; 574  : 
; 575  : 		if( m_pIcon )

  00092	39 b3 94 01 00
	00		 cmp	 DWORD PTR [ebx+404], esi
  00098	74 46		 je	 SHORT $LN1@OnRender

; 576  : 		{
; 577  : 			m_pIcon->SetScale( 0.55f, 0.55f );

  0009a	8b 8b 94 01 00
	00		 mov	 ecx, DWORD PTR [ebx+404]
  000a0	f3 0f 10 05 00
	00 00 00	 movss	 xmm0, DWORD PTR __real@3f0ccccd
  000a8	8b 01		 mov	 eax, DWORD PTR [ecx]
  000aa	51		 push	 ecx
  000ab	51		 push	 ecx
  000ac	f3 0f 11 44 24
	04		 movss	 DWORD PTR [esp+4], xmm0
  000b2	f3 0f 11 04 24	 movss	 DWORD PTR [esp], xmm0
  000b7	ff 50 18	 call	 DWORD PTR [eax+24]

; 578  : 			m_pIcon->Render( iXPos + 33, iYPos + 70, UI_RENDER_NORMAL, TFO_BILINEAR );

  000ba	8b 8b 94 01 00
	00		 mov	 ecx, DWORD PTR [ebx+404]
  000c0	f3 0f 10 45 f8	 movss	 xmm0, DWORD PTR tv336[ebp]
  000c5	8b 01		 mov	 eax, DWORD PTR [ecx]
  000c7	56		 push	 esi
  000c8	56		 push	 esi
  000c9	6a 01		 push	 1
  000cb	56		 push	 esi
  000cc	51		 push	 ecx
  000cd	51		 push	 ecx
  000ce	f3 0f 11 44 24
	04		 movss	 DWORD PTR [esp+4], xmm0
  000d4	f3 0f 10 45 f4	 movss	 xmm0, DWORD PTR tv338[ebp]
  000d9	f3 0f 11 04 24	 movss	 DWORD PTR [esp], xmm0
  000de	ff 10		 call	 DWORD PTR [eax]
$LN1@OnRender:

; 579  : 		}
; 580  : 	}
; 581  : 
; 582  : 	g_FontMgr.SetTextStyle( TS_NORMAL );

  000e0	56		 push	 esi
  000e1	8b 35 00 00 00
	00		 mov	 esi, DWORD PTR __imp_?GetSingleton@ioFontManager@@SAAAV1@XZ
  000e7	ff d6		 call	 esi
  000e9	8b c8		 mov	 ecx, eax
  000eb	ff 15 00 00 00
	00		 call	 DWORD PTR __imp_?SetTextStyle@ioFontManager@@QAEXW4TextStyle@@@Z

; 583  : 	g_FontMgr.SetAlignType( TAT_LEFT );

  000f1	6a 00		 push	 0
  000f3	ff d6		 call	 esi
  000f5	8b c8		 mov	 ecx, eax
  000f7	ff 15 00 00 00
	00		 call	 DWORD PTR __imp_?SetAlignType@ioFontManager@@QAEXW4TextAlignType@@@Z

; 584  : 	g_FontMgr.SetBkColor( 0, 0, 0 );

  000fd	33 c0		 xor	 eax, eax
  000ff	50		 push	 eax
  00100	50		 push	 eax
  00101	50		 push	 eax
  00102	ff d6		 call	 esi
  00104	8b c8		 mov	 ecx, eax
  00106	ff 15 00 00 00
	00		 call	 DWORD PTR __imp_?SetBkColor@ioFontManager@@QAEXHHH@Z

; 585  : 
; 586  : 	g_FontMgr.SetTextColor( TCT_DEFAULT_GREEN );

  0010c	68 22 72 11 ff	 push	 -15633886		; ff117222H
  00111	ff d6		 call	 esi
  00113	8b c8		 mov	 ecx, eax
  00115	ff 15 00 00 00
	00		 call	 DWORD PTR __imp_?SetTextColor@ioFontManager@@QAEXK@Z

; 587  : 	g_FontMgr.PrintTextWidthCut( iXPos + 57, iYPos + 53, FONT_SIZE_13, 133.0f, m_szRequestName.c_str() );

  0011b	8b 45 fc	 mov	 eax, DWORD PTR _iXPos$[ebp]
  0011e	83 c0 39	 add	 eax, 57			; 00000039H
  00121	0f 57 c0	 xorps	 xmm0, xmm0
  00124	f3 0f 2a c0	 cvtsi2ss xmm0, eax
  00128	8d 8b 98 01 00
	00		 lea	 ecx, DWORD PTR [ebx+408]
  0012e	f3 0f 11 45 f8	 movss	 DWORD PTR tv362[ebp], xmm0
  00133	ff 15 00 00 00
	00		 call	 DWORD PTR __imp_?c_str@ioHashString@@QBEPBDXZ
  00139	f3 0f 10 05 00
	00 00 00	 movss	 xmm0, DWORD PTR __real@43050000
  00141	50		 push	 eax
  00142	83 ec 10	 sub	 esp, 16			; 00000010H
  00145	f3 0f 11 44 24
	0c		 movss	 DWORD PTR [esp+12], xmm0
  0014b	f3 0f 10 05 00
	00 00 00	 movss	 xmm0, DWORD PTR __real@3f266666
  00153	f3 0f 11 44 24
	08		 movss	 DWORD PTR [esp+8], xmm0
  00159	8d 47 35	 lea	 eax, DWORD PTR [edi+53]
  0015c	0f 57 c0	 xorps	 xmm0, xmm0
  0015f	f3 0f 2a c0	 cvtsi2ss xmm0, eax
  00163	f3 0f 11 44 24
	04		 movss	 DWORD PTR [esp+4], xmm0
  00169	f3 0f 10 45 f8	 movss	 xmm0, DWORD PTR tv362[ebp]
  0016e	f3 0f 11 04 24	 movss	 DWORD PTR [esp], xmm0
  00173	ff d6		 call	 esi
  00175	50		 push	 eax
  00176	ff 15 00 00 00
	00		 call	 DWORD PTR __imp_?PrintTextWidthCut@ioFontManager@@QAAXMMMMPBDZZ
  0017c	83 c4 18	 add	 esp, 24			; 00000018H

; 588  : 
; 589  : 	g_FontMgr.SetTextColor( TCT_DEFAULT_DARKGRAY );

  0017f	68 3a 3a 3a ff	 push	 -12961222		; ff3a3a3aH
  00184	ff d6		 call	 esi
  00186	8b c8		 mov	 ecx, eax
  00188	ff 15 00 00 00
	00		 call	 DWORD PTR __imp_?SetTextColor@ioFontManager@@QAEXK@Z

; 590  : 	g_FontMgr.PrintText( iXPos + 57, iYPos + 71, FONT_SIZE_13,  STR(1) );

  0018e	8b 1d 00 00 00
	00		 mov	 ebx, DWORD PTR __imp_?GetSingleton@ioStringManager@@SAAAV1@XZ
  00194	6a 00		 push	 0
  00196	6a 01		 push	 1
  00198	68 00 00 00 00	 push	 OFFSET ??_C@_00CNPNBAHC@?$AA@
  0019d	68 00 00 00 00	 push	 OFFSET ??_C@_0CF@DAJHKOFD@HeadquartersJoinRequestWnd?3?3OnRe@
  001a2	ff d3		 call	 ebx
  001a4	8b c8		 mov	 ecx, eax
  001a6	ff 15 00 00 00
	00		 call	 DWORD PTR __imp_?GetString@ioStringManager@@QAEPADPBD0HW4FileNamePrefix@1@@Z
  001ac	f3 0f 10 05 00
	00 00 00	 movss	 xmm0, DWORD PTR __real@3f266666
  001b4	50		 push	 eax
  001b5	83 ec 0c	 sub	 esp, 12			; 0000000cH
  001b8	f3 0f 11 44 24
	08		 movss	 DWORD PTR [esp+8], xmm0
  001be	8d 47 47	 lea	 eax, DWORD PTR [edi+71]
  001c1	0f 57 c0	 xorps	 xmm0, xmm0
  001c4	f3 0f 2a c0	 cvtsi2ss xmm0, eax
  001c8	f3 0f 11 44 24
	04		 movss	 DWORD PTR [esp+4], xmm0
  001ce	f3 0f 10 45 f8	 movss	 xmm0, DWORD PTR tv362[ebp]
  001d3	f3 0f 11 04 24	 movss	 DWORD PTR [esp], xmm0
  001d8	ff d6		 call	 esi
  001da	50		 push	 eax
  001db	ff 15 00 00 00
	00		 call	 DWORD PTR __imp_?PrintText@ioFontManager@@QAAXMMMPBDZZ
  001e1	83 c4 14	 add	 esp, 20			; 00000014H

; 591  : 
; 592  : 	g_FontMgr.SetTextColor( TCT_DEFAULT_GRAY );

  001e4	68 6e 6e 6e ff	 push	 -9539986		; ff6e6e6eH
  001e9	ff d6		 call	 esi
  001eb	8b c8		 mov	 ecx, eax
  001ed	ff 15 00 00 00
	00		 call	 DWORD PTR __imp_?SetTextColor@ioFontManager@@QAEXK@Z

; 593  : 	g_FontMgr.PrintText( iXPos + 16, iYPos + 99, FONT_SIZE_12,  STR(2) );

  001f3	8b 45 fc	 mov	 eax, DWORD PTR _iXPos$[ebp]
  001f6	6a 00		 push	 0
  001f8	83 c0 10	 add	 eax, 16			; 00000010H
  001fb	0f 57 c0	 xorps	 xmm0, xmm0
  001fe	6a 02		 push	 2
  00200	f3 0f 2a c0	 cvtsi2ss xmm0, eax
  00204	f3 0f 11 45 f8	 movss	 DWORD PTR tv368[ebp], xmm0
  00209	68 00 00 00 00	 push	 OFFSET ??_C@_00CNPNBAHC@?$AA@
  0020e	68 00 00 00 00	 push	 OFFSET ??_C@_0CF@DAJHKOFD@HeadquartersJoinRequestWnd?3?3OnRe@
  00213	ff d3		 call	 ebx
  00215	8b c8		 mov	 ecx, eax
  00217	ff 15 00 00 00
	00		 call	 DWORD PTR __imp_?GetString@ioStringManager@@QAEPADPBD0HW4FileNamePrefix@1@@Z
  0021d	f3 0f 10 05 00
	00 00 00	 movss	 xmm0, DWORD PTR __real@3f19999a
  00225	50		 push	 eax
  00226	83 ec 0c	 sub	 esp, 12			; 0000000cH
  00229	f3 0f 11 44 24
	08		 movss	 DWORD PTR [esp+8], xmm0
  0022f	8d 47 63	 lea	 eax, DWORD PTR [edi+99]
  00232	0f 57 c0	 xorps	 xmm0, xmm0
  00235	f3 0f 2a c0	 cvtsi2ss xmm0, eax
  00239	f3 0f 11 44 24
	04		 movss	 DWORD PTR [esp+4], xmm0
  0023f	f3 0f 10 45 f8	 movss	 xmm0, DWORD PTR tv368[ebp]
  00244	f3 0f 11 04 24	 movss	 DWORD PTR [esp], xmm0
  00249	ff d6		 call	 esi
  0024b	50		 push	 eax
  0024c	ff 15 00 00 00
	00		 call	 DWORD PTR __imp_?PrintText@ioFontManager@@QAAXMMMPBDZZ
  00252	83 c4 14	 add	 esp, 20			; 00000014H

; 594  : 	g_FontMgr.PrintText( iXPos + 30, iYPos + 117, FONT_SIZE_12, STR(3) );

  00255	6a 00		 push	 0
  00257	6a 03		 push	 3
  00259	68 00 00 00 00	 push	 OFFSET ??_C@_00CNPNBAHC@?$AA@
  0025e	68 00 00 00 00	 push	 OFFSET ??_C@_0CF@DAJHKOFD@HeadquartersJoinRequestWnd?3?3OnRe@
  00263	ff d3		 call	 ebx
  00265	8b c8		 mov	 ecx, eax
  00267	ff 15 00 00 00
	00		 call	 DWORD PTR __imp_?GetString@ioStringManager@@QAEPADPBD0HW4FileNamePrefix@1@@Z
  0026d	f3 0f 10 05 00
	00 00 00	 movss	 xmm0, DWORD PTR __real@3f19999a
  00275	50		 push	 eax
  00276	83 ec 0c	 sub	 esp, 12			; 0000000cH
  00279	f3 0f 11 44 24
	08		 movss	 DWORD PTR [esp+8], xmm0
  0027f	0f 57 c0	 xorps	 xmm0, xmm0
  00282	8d 47 75	 lea	 eax, DWORD PTR [edi+117]
  00285	f3 0f 2a c0	 cvtsi2ss xmm0, eax
  00289	8b 45 fc	 mov	 eax, DWORD PTR _iXPos$[ebp]
  0028c	f3 0f 11 44 24
	04		 movss	 DWORD PTR [esp+4], xmm0
  00292	83 c0 1e	 add	 eax, 30			; 0000001eH
  00295	0f 57 c0	 xorps	 xmm0, xmm0
  00298	f3 0f 2a c0	 cvtsi2ss xmm0, eax
  0029c	f3 0f 11 04 24	 movss	 DWORD PTR [esp], xmm0
  002a1	ff d6		 call	 esi
  002a3	50		 push	 eax
  002a4	ff 15 00 00 00
	00		 call	 DWORD PTR __imp_?PrintText@ioFontManager@@QAAXMMMPBDZZ
  002aa	83 c4 14	 add	 esp, 20			; 00000014H

; 595  : 	g_FontMgr.PrintText( iXPos + 16, iYPos + 135, FONT_SIZE_12, STR(4) );

  002ad	6a 00		 push	 0
  002af	6a 04		 push	 4
  002b1	68 00 00 00 00	 push	 OFFSET ??_C@_00CNPNBAHC@?$AA@
  002b6	68 00 00 00 00	 push	 OFFSET ??_C@_0CF@DAJHKOFD@HeadquartersJoinRequestWnd?3?3OnRe@
  002bb	ff d3		 call	 ebx
  002bd	8b c8		 mov	 ecx, eax
  002bf	ff 15 00 00 00
	00		 call	 DWORD PTR __imp_?GetString@ioStringManager@@QAEPADPBD0HW4FileNamePrefix@1@@Z
  002c5	f3 0f 10 05 00
	00 00 00	 movss	 xmm0, DWORD PTR __real@3f19999a
  002cd	50		 push	 eax
  002ce	83 ec 0c	 sub	 esp, 12			; 0000000cH
  002d1	f3 0f 11 44 24
	08		 movss	 DWORD PTR [esp+8], xmm0
  002d7	0f 57 c0	 xorps	 xmm0, xmm0
  002da	81 c7 87 00 00
	00		 add	 edi, 135		; 00000087H
  002e0	f3 0f 2a c7	 cvtsi2ss xmm0, edi
  002e4	f3 0f 11 44 24
	04		 movss	 DWORD PTR [esp+4], xmm0
  002ea	f3 0f 10 45 f8	 movss	 xmm0, DWORD PTR tv368[ebp]
  002ef	f3 0f 11 04 24	 movss	 DWORD PTR [esp], xmm0
  002f4	ff d6		 call	 esi
  002f6	50		 push	 eax
  002f7	ff 15 00 00 00
	00		 call	 DWORD PTR __imp_?PrintText@ioFontManager@@QAAXMMMPBDZZ
  002fd	83 c4 14	 add	 esp, 20			; 00000014H
  00300	5f		 pop	 edi
  00301	5e		 pop	 esi
  00302	5b		 pop	 ebx

; 596  : }

  00303	c9		 leave
  00304	c3		 ret	 0
?OnRender@HeadquartersJoinRequestWnd@@MAEXXZ ENDP	; HeadquartersJoinRequestWnd::OnRender
_TEXT	ENDS
PUBLIC	?_Adopt@_Iterator_base0@std@@QAEXPBX@Z		; std::_Iterator_base0::_Adopt
; Function compile flags: /Ogsp
; File c:\program files (x86)\microsoft visual studio 10.0\vc\include\xutility
;	COMDAT ?_Adopt@_Iterator_base0@std@@QAEXPBX@Z
_TEXT	SEGMENT
___formal$ = 8						; size = 4
?_Adopt@_Iterator_base0@std@@QAEXPBX@Z PROC		; std::_Iterator_base0::_Adopt, COMDAT
; _this$ = ecx

; 49   : 		}

  00000	c2 04 00	 ret	 4
?_Adopt@_Iterator_base0@std@@QAEXPBX@Z ENDP		; std::_Iterator_base0::_Adopt
_TEXT	ENDS
PUBLIC	??1?$_Pair_base@$$CBKVioHashString@@@std@@QAE@XZ ; std::_Pair_base<unsigned long const ,ioHashString>::~_Pair_base<unsigned long const ,ioHashString>
; Function compile flags: /Ogsp
;	COMDAT ??1?$_Pair_base@$$CBKVioHashString@@@std@@QAE@XZ
_TEXT	SEGMENT
??1?$_Pair_base@$$CBKVioHashString@@@std@@QAE@XZ PROC	; std::_Pair_base<unsigned long const ,ioHashString>::~_Pair_base<unsigned long const ,ioHashString>, COMDAT
; _this$ = ecx
  00000	83 c1 04	 add	 ecx, 4
  00003	ff 25 00 00 00
	00		 jmp	 DWORD PTR __imp_??1ioHashString@@QAE@XZ
??1?$_Pair_base@$$CBKVioHashString@@@std@@QAE@XZ ENDP	; std::_Pair_base<unsigned long const ,ioHashString>::~_Pair_base<unsigned long const ,ioHashString>
_TEXT	ENDS
PUBLIC	?iwm_show@HeadquartersMainOptionWnd@@UAEXXZ	; HeadquartersMainOptionWnd::iwm_show
EXTRN	__imp_?SetCheckParentOutSide@ioWnd@@QAEX_N@Z:PROC
; Function compile flags: /Ogsp
; File d:\lost saga for developer\youtube\tutorial\source\src\lsclient\gui\headquartersmainwnd.cpp
;	COMDAT ?iwm_show@HeadquartersMainOptionWnd@@UAEXXZ
_TEXT	SEGMENT
?iwm_show@HeadquartersMainOptionWnd@@UAEXXZ PROC	; HeadquartersMainOptionWnd::iwm_show, COMDAT
; _this$ = ecx

; 854  : 	SetCheckParentOutSide( true );

  00000	6a 01		 push	 1
  00002	ff 15 00 00 00
	00		 call	 DWORD PTR __imp_?SetCheckParentOutSide@ioWnd@@QAEX_N@Z

; 855  : }

  00008	c3		 ret	 0
?iwm_show@HeadquartersMainOptionWnd@@UAEXXZ ENDP	; HeadquartersMainOptionWnd::iwm_show
_TEXT	ENDS
PUBLIC	?iwm_hide@HeadquartersMainOptionWnd@@UAEXXZ	; HeadquartersMainOptionWnd::iwm_hide
; Function compile flags: /Ogsp
;	COMDAT ?iwm_hide@HeadquartersMainOptionWnd@@UAEXXZ
_TEXT	SEGMENT
?iwm_hide@HeadquartersMainOptionWnd@@UAEXXZ PROC	; HeadquartersMainOptionWnd::iwm_hide, COMDAT
; _this$ = ecx

; 859  : 	SetCheckParentOutSide( false );

  00000	6a 00		 push	 0
  00002	ff 15 00 00 00
	00		 call	 DWORD PTR __imp_?SetCheckParentOutSide@ioWnd@@QAEX_N@Z

; 860  : }

  00008	c3		 ret	 0
?iwm_hide@HeadquartersMainOptionWnd@@UAEXXZ ENDP	; HeadquartersMainOptionWnd::iwm_hide
_TEXT	ENDS
PUBLIC	__$ArrayPad$
PUBLIC	?SetPositionToDefault@HeadquartersMainWnd@@UAEXHH_N0@Z ; HeadquartersMainWnd::SetPositionToDefault
EXTRN	__imp_?SetState@WndMove@@QAEXKABUtagPOINT@@@Z:PROC
EXTRN	__imp_?SetWndPos@ioWnd@@QAEXHH@Z:PROC
EXTRN	__imp_?GetParent@ioWnd@@QAEPAV1@XZ:PROC
EXTRN	__imp__SetRect@20:PROC
EXTRN	__imp_?SetPositionToDefault@ioWnd@@UAEXHH_N0@Z:PROC
; Function compile flags: /Ogsp
;	COMDAT ?SetPositionToDefault@HeadquartersMainWnd@@UAEXHH_N0@Z
_TEXT	SEGMENT
_NullPoint$ = -28					; size = 8
_rcRect$ = -20						; size = 16
__$ArrayPad$ = -4					; size = 4
_iParentWidth$ = 8					; size = 4
_iParentHeight$ = 12					; size = 4
_bChildMove$ = 16					; size = 1
_bCreate$ = 20						; size = 1
?SetPositionToDefault@HeadquartersMainWnd@@UAEXHH_N0@Z PROC ; HeadquartersMainWnd::SetPositionToDefault, COMDAT
; _this$ = ecx

; 1029 : {

  00000	55		 push	 ebp
  00001	8b ec		 mov	 ebp, esp
  00003	83 ec 1c	 sub	 esp, 28			; 0000001cH
  00006	a1 00 00 00 00	 mov	 eax, DWORD PTR ___security_cookie
  0000b	33 c5		 xor	 eax, ebp
  0000d	89 45 fc	 mov	 DWORD PTR __$ArrayPad$[ebp], eax
  00010	53		 push	 ebx

; 1030 : 	if( bCreate )

  00011	33 db		 xor	 ebx, ebx
  00013	56		 push	 esi
  00014	8b f1		 mov	 esi, ecx
  00016	38 5d 14	 cmp	 BYTE PTR _bCreate$[ebp], bl
  00019	74 17		 je	 SHORT $LN15@SetPositio

; 1031 : 	{
; 1032 : 		ioWnd::SetPositionToDefault( iParentWidth, iParentHeight, bChildMove, bCreate );

  0001b	ff 75 14	 push	 DWORD PTR _bCreate$[ebp]
  0001e	ff 75 10	 push	 DWORD PTR _bChildMove$[ebp]
  00021	ff 75 0c	 push	 DWORD PTR _iParentHeight$[ebp]
  00024	ff 75 08	 push	 DWORD PTR _iParentWidth$[ebp]
  00027	ff 15 00 00 00
	00		 call	 DWORD PTR __imp_?SetPositionToDefault@ioWnd@@UAEXHH_N0@Z

; 1033 : 		return;

  0002d	e9 d6 00 00 00	 jmp	 $LN16@SetPositio
$LN15@SetPositio:
  00032	57		 push	 edi

; 1034 : 	}
; 1035 : 
; 1036 : 	RECT rcRect;
; 1037 : 	::SetRect( &rcRect, 0, 0, 0, 0 );

  00033	53		 push	 ebx
  00034	53		 push	 ebx
  00035	53		 push	 ebx
  00036	53		 push	 ebx
  00037	8d 45 ec	 lea	 eax, DWORD PTR _rcRect$[ebp]
  0003a	50		 push	 eax
  0003b	ff 15 00 00 00
	00		 call	 DWORD PTR __imp__SetRect@20

; 1038 : 
; 1039 : 	if( !GetParent() || m_bWidthParent )

  00041	8b ce		 mov	 ecx, esi
  00043	ff 15 00 00 00
	00		 call	 DWORD PTR __imp_?GetParent@ioWnd@@QAEPAV1@XZ
  00049	8b 7d 08	 mov	 edi, DWORD PTR _iParentWidth$[ebp]
  0004c	85 c0		 test	 eax, eax
  0004e	74 13		 je	 SHORT $LN13@SetPositio
  00050	38 9e d0 00 00
	00		 cmp	 BYTE PTR [esi+208], bl
  00056	75 0b		 jne	 SHORT $LN13@SetPositio

; 1041 : 	else
; 1042 : 		rcRect.right = m_iDefWidth;

  00058	8b 86 c8 00 00
	00		 mov	 eax, DWORD PTR [esi+200]
  0005e	89 45 f4	 mov	 DWORD PTR _rcRect$[ebp+8], eax
  00061	eb 03		 jmp	 SHORT $LN12@SetPositio
$LN13@SetPositio:

; 1040 : 		rcRect.right = iParentWidth;

  00063	89 7d f4	 mov	 DWORD PTR _rcRect$[ebp+8], edi
$LN12@SetPositio:

; 1043 : 
; 1044 : 	if( !GetParent() || m_bHeightParent )

  00066	8b ce		 mov	 ecx, esi
  00068	ff 15 00 00 00
	00		 call	 DWORD PTR __imp_?GetParent@ioWnd@@QAEPAV1@XZ
  0006e	8b 4d 0c	 mov	 ecx, DWORD PTR _iParentHeight$[ebp]
  00071	85 c0		 test	 eax, eax
  00073	74 13		 je	 SHORT $LN10@SetPositio
  00075	38 9e d1 00 00
	00		 cmp	 BYTE PTR [esi+209], bl
  0007b	75 0b		 jne	 SHORT $LN10@SetPositio

; 1046 : 	else
; 1047 : 		rcRect.bottom = m_iDefHeight;

  0007d	8b 86 cc 00 00
	00		 mov	 eax, DWORD PTR [esi+204]
  00083	89 45 f8	 mov	 DWORD PTR _rcRect$[ebp+12], eax
  00086	eb 03		 jmp	 SHORT $LN9@SetPositio
$LN10@SetPositio:

; 1045 : 		rcRect.bottom = iParentHeight;

  00088	89 4d f8	 mov	 DWORD PTR _rcRect$[ebp+12], ecx
$LN9@SetPositio:

; 1048 : 
; 1049 : 	rcRect.left = m_iDefXPos;

  0008b	8b 86 c0 00 00
	00		 mov	 eax, DWORD PTR [esi+192]
  00091	89 45 ec	 mov	 DWORD PTR _rcRect$[ebp], eax

; 1050 : 	switch( m_XPosAlign )

  00094	8b 86 b8 00 00
	00		 mov	 eax, DWORD PTR [esi+184]
  0009a	48		 dec	 eax
  0009b	74 12		 je	 SHORT $LN5@SetPositio
  0009d	48		 dec	 eax
  0009e	75 15		 jne	 SHORT $LN7@SetPositio

; 1051 : 	{
; 1052 : 	case UI_CENTER_ALIGN:
; 1053 : 		rcRect.left += ( iParentWidth - rcRect.right ) / 2;

  000a0	8b c7		 mov	 eax, edi
  000a2	2b 45 f4	 sub	 eax, DWORD PTR _rcRect$[ebp+8]
  000a5	99		 cdq
  000a6	2b c2		 sub	 eax, edx
  000a8	d1 f8		 sar	 eax, 1
  000aa	01 45 ec	 add	 DWORD PTR _rcRect$[ebp], eax

; 1054 : 		break;

  000ad	eb 06		 jmp	 SHORT $LN7@SetPositio
$LN5@SetPositio:

; 1055 : 	case UI_RIGHT_ALIGN:
; 1056 : 		rcRect.left += iParentWidth - rcRect.right;

  000af	2b 7d f4	 sub	 edi, DWORD PTR _rcRect$[ebp+8]
  000b2	01 7d ec	 add	 DWORD PTR _rcRect$[ebp], edi
$LN7@SetPositio:

; 1057 : 		break;
; 1058 : 	}
; 1059 : 
; 1060 : 	rcRect.top = m_iDefYPos;

  000b5	8b 86 c4 00 00
	00		 mov	 eax, DWORD PTR [esi+196]
  000bb	89 45 f0	 mov	 DWORD PTR _rcRect$[ebp+4], eax

; 1061 : 	switch( m_YPosAlign )

  000be	8b 86 bc 00 00
	00		 mov	 eax, DWORD PTR [esi+188]
  000c4	48		 dec	 eax
  000c5	48		 dec	 eax
  000c6	5f		 pop	 edi
  000c7	74 0d		 je	 SHORT $LN2@SetPositio
  000c9	83 e8 03	 sub	 eax, 3
  000cc	75 15		 jne	 SHORT $LN3@SetPositio

; 1065 : 		break;
; 1066 : 	case UI_BOTTOM_ALIGN:
; 1067 : 		rcRect.top += iParentHeight - rcRect.bottom;

  000ce	2b 4d f8	 sub	 ecx, DWORD PTR _rcRect$[ebp+12]
  000d1	01 4d f0	 add	 DWORD PTR _rcRect$[ebp+4], ecx

; 1068 : 		break;

  000d4	eb 0d		 jmp	 SHORT $LN3@SetPositio
$LN2@SetPositio:

; 1062 : 	{
; 1063 : 	case UI_CENTER_ALIGN:
; 1064 : 		rcRect.top += ( iParentHeight - rcRect.bottom ) / 2;

  000d6	8b c1		 mov	 eax, ecx
  000d8	2b 45 f8	 sub	 eax, DWORD PTR _rcRect$[ebp+12]
  000db	99		 cdq
  000dc	2b c2		 sub	 eax, edx
  000de	d1 f8		 sar	 eax, 1
  000e0	01 45 f0	 add	 DWORD PTR _rcRect$[ebp+4], eax
$LN3@SetPositio:

; 1069 : 	}
; 1070 : 
; 1071 : 	SetWndPos( rcRect.left, rcRect.top );

  000e3	ff 75 f0	 push	 DWORD PTR _rcRect$[ebp+4]
  000e6	8b ce		 mov	 ecx, esi
  000e8	ff 75 ec	 push	 DWORD PTR _rcRect$[ebp]
  000eb	ff 15 00 00 00
	00		 call	 DWORD PTR __imp_?SetWndPos@ioWnd@@QAEXHH@Z

; 1072 : 
; 1073 : 	POINT NullPoint = { 0 , 0 };
; 1074 : 	m_MoveWnd.SetState( WndMove::WMH_NONE, NullPoint );

  000f1	8d 45 e4	 lea	 eax, DWORD PTR _NullPoint$[ebp]
  000f4	50		 push	 eax
  000f5	53		 push	 ebx
  000f6	8d 8e 60 01 00
	00		 lea	 ecx, DWORD PTR [esi+352]
  000fc	89 5d e4	 mov	 DWORD PTR _NullPoint$[ebp], ebx
  000ff	89 5d e8	 mov	 DWORD PTR _NullPoint$[ebp+4], ebx
  00102	ff 15 00 00 00
	00		 call	 DWORD PTR __imp_?SetState@WndMove@@QAEXKABUtagPOINT@@@Z
$LN16@SetPositio:

; 1075 : }

  00108	8b 4d fc	 mov	 ecx, DWORD PTR __$ArrayPad$[ebp]
  0010b	5e		 pop	 esi
  0010c	33 cd		 xor	 ecx, ebp
  0010e	5b		 pop	 ebx
  0010f	e8 00 00 00 00	 call	 @__security_check_cookie@4
  00114	c9		 leave
  00115	c2 10 00	 ret	 16			; 00000010H
?SetPositionToDefault@HeadquartersMainWnd@@UAEXHH_N0@Z ENDP ; HeadquartersMainWnd::SetPositionToDefault
_TEXT	ENDS
PUBLIC	?iwm_hide@HeadquartersMainWnd@@UAEXXZ		; HeadquartersMainWnd::iwm_hide
; Function compile flags: /Ogsp
;	COMDAT ?iwm_hide@HeadquartersMainWnd@@UAEXXZ
_TEXT	SEGMENT
?iwm_hide@HeadquartersMainWnd@@UAEXXZ PROC		; HeadquartersMainWnd::iwm_hide, COMDAT
; _this$ = ecx

; 1084 : }

  00000	c3		 ret	 0
?iwm_hide@HeadquartersMainWnd@@UAEXXZ ENDP		; HeadquartersMainWnd::iwm_hide
_TEXT	ENDS
PUBLIC	?iwm_esc@HeadquartersMainWnd@@UAE_NXZ		; HeadquartersMainWnd::iwm_esc
EXTRN	__imp_?iwm_esc@ioWnd@@UAE_NXZ:PROC
; Function compile flags: /Ogsp
;	COMDAT ?iwm_esc@HeadquartersMainWnd@@UAE_NXZ
_TEXT	SEGMENT
?iwm_esc@HeadquartersMainWnd@@UAE_NXZ PROC		; HeadquartersMainWnd::iwm_esc, COMDAT
; _this$ = ecx

; 1088 : 	return ioWnd::iwm_esc();

  00000	ff 25 00 00 00
	00		 jmp	 DWORD PTR __imp_?iwm_esc@ioWnd@@UAE_NXZ
?iwm_esc@HeadquartersMainWnd@@UAE_NXZ ENDP		; HeadquartersMainWnd::iwm_esc
_TEXT	ENDS
PUBLIC	??1RoundInfo@@QAE@XZ				; RoundInfo::~RoundInfo
;	COMDAT xdata$x
xdata$x	SEGMENT
__unwindtable$??1RoundInfo@@QAE@XZ DD 0ffffffffH
	DD	FLAT:__unwindfunclet$??1RoundInfo@@QAE@XZ$0
__ehfuncinfo$??1RoundInfo@@QAE@XZ DD 019930522H
	DD	01H
	DD	FLAT:__unwindtable$??1RoundInfo@@QAE@XZ
	DD	2 DUP(00H)
	DD	2 DUP(00H)
	DD	00H
	DD	01H
; Function compile flags: /Ogsp
xdata$x	ENDS
;	COMDAT ??1RoundInfo@@QAE@XZ
_TEXT	SEGMENT
_this$ = -16						; size = 4
__$EHRec$ = -12						; size = 12
??1RoundInfo@@QAE@XZ PROC				; RoundInfo::~RoundInfo, COMDAT
; _this$ = ecx
  00000	6a 04		 push	 4
  00002	b8 00 00 00 00	 mov	 eax, __ehhandler$??1RoundInfo@@QAE@XZ
  00007	e8 00 00 00 00	 call	 __EH_prolog3
  0000c	8b f9		 mov	 edi, ecx
  0000e	89 7d f0	 mov	 DWORD PTR _this$[ebp], edi
  00011	8b 35 00 00 00
	00		 mov	 esi, DWORD PTR __imp_??1ioHashString@@QAE@XZ
  00017	83 65 fc 00	 and	 DWORD PTR __$EHRec$[ebp+8], 0
  0001b	8d 4f 1c	 lea	 ecx, DWORD PTR [edi+28]
  0001e	ff d6		 call	 esi
  00020	83 4d fc ff	 or	 DWORD PTR __$EHRec$[ebp+8], -1
  00024	8b cf		 mov	 ecx, edi
  00026	ff d6		 call	 esi
  00028	e8 00 00 00 00	 call	 __EH_epilog3
  0002d	c3		 ret	 0
_TEXT	ENDS
;	COMDAT text$x
text$x	SEGMENT
__unwindfunclet$??1RoundInfo@@QAE@XZ$0:
  00000	8b 4d f0	 mov	 ecx, DWORD PTR _this$[ebp]
  00003	ff 25 00 00 00
	00		 jmp	 DWORD PTR __imp_??1ioHashString@@QAE@XZ
__ehhandler$??1RoundInfo@@QAE@XZ:
  00009	8b 54 24 08	 mov	 edx, DWORD PTR [esp+8]
  0000d	8d 42 0c	 lea	 eax, DWORD PTR [edx+12]
  00010	8b 4a ec	 mov	 ecx, DWORD PTR [edx-20]
  00013	33 c8		 xor	 ecx, eax
  00015	e8 00 00 00 00	 call	 @__security_check_cookie@4
  0001a	b8 00 00 00 00	 mov	 eax, OFFSET __ehfuncinfo$??1RoundInfo@@QAE@XZ
  0001f	e9 00 00 00 00	 jmp	 ___CxxFrameHandler3
text$x	ENDS
??1RoundInfo@@QAE@XZ ENDP				; RoundInfo::~RoundInfo
PUBLIC	??_C@_0CB@JDCKAKNM@HeadquartersMainWnd?3?3OnRenderBar@ ; `string'
PUBLIC	?OnRenderBar@HeadquartersMainWnd@@IAEXHHHHVioHashString@@H@Z ; HeadquartersMainWnd::OnRenderBar
;	COMDAT ??_C@_0CB@JDCKAKNM@HeadquartersMainWnd?3?3OnRenderBar@
CONST	SEGMENT
??_C@_0CB@JDCKAKNM@HeadquartersMainWnd?3?3OnRenderBar@ DB 'HeadquartersMa'
	DB	'inWnd::OnRenderBar', 00H			; `string'
CONST	ENDS
;	COMDAT xdata$x
xdata$x	SEGMENT
__unwindtable$?OnRenderBar@HeadquartersMainWnd@@IAEXHHHHVioHashString@@H@Z DD 0ffffffffH
	DD	FLAT:__unwindfunclet$?OnRenderBar@HeadquartersMainWnd@@IAEXHHHHVioHashString@@H@Z$0
__ehfuncinfo$?OnRenderBar@HeadquartersMainWnd@@IAEXHHHHVioHashString@@H@Z DD 019930522H
	DD	01H
	DD	FLAT:__unwindtable$?OnRenderBar@HeadquartersMainWnd@@IAEXHHHHVioHashString@@H@Z
	DD	2 DUP(00H)
	DD	2 DUP(00H)
	DD	00H
	DD	01H
; Function compile flags: /Ogsp
xdata$x	ENDS
;	COMDAT ?OnRenderBar@HeadquartersMainWnd@@IAEXHHHHVioHashString@@H@Z
_TEXT	SEGMENT
__$EHRec$ = -12						; size = 12
_iXPos$ = 8						; size = 4
_iYPos$ = 12						; size = 4
_iMaxSlot$ = 16						; size = 4
_iCurSlot$ = 20						; size = 4
_szName$ = 24						; size = 16
_iGradeLevel$ = 40					; size = 4
?OnRenderBar@HeadquartersMainWnd@@IAEXHHHHVioHashString@@H@Z PROC ; HeadquartersMainWnd::OnRenderBar, COMDAT
; _this$ = ecx

; 1339 : {

  00000	6a 00		 push	 0
  00002	b8 00 00 00 00	 mov	 eax, __ehhandler$?OnRenderBar@HeadquartersMainWnd@@IAEXHHHHVioHashString@@H@Z
  00007	e8 00 00 00 00	 call	 __EH_prolog3
  0000c	8b d9		 mov	 ebx, ecx
  0000e	33 ff		 xor	 edi, edi
  00010	89 7d fc	 mov	 DWORD PTR __$EHRec$[ebp+8], edi

; 1340 : 	if( !m_pPeopleOrange || !m_pPeopleGray || !m_pBarOver )

  00013	39 bb 9c 01 00
	00		 cmp	 DWORD PTR [ebx+412], edi
  00019	0f 84 d5 03 00
	00		 je	 $LN15@OnRenderBa@2
  0001f	39 bb a0 01 00
	00		 cmp	 DWORD PTR [ebx+416], edi
  00025	0f 84 c9 03 00
	00		 je	 $LN15@OnRenderBa@2
  0002b	39 bb 98 01 00
	00		 cmp	 DWORD PTR [ebx+408], edi
  00031	0f 84 bd 03 00
	00		 je	 $LN15@OnRenderBa@2

; 1342 : 
; 1343 : 	// 바탕
; 1344 : 	if( iCurSlot % 2 == 0 )

  00037	8b 45 14	 mov	 eax, DWORD PTR _iCurSlot$[ebp]
  0003a	25 01 00 00 80	 and	 eax, -2147483647	; 80000001H
  0003f	79 05		 jns	 SHORT $LN22@OnRenderBa@2
  00041	48		 dec	 eax
  00042	83 c8 fe	 or	 eax, -2			; fffffffeH
  00045	40		 inc	 eax
$LN22@OnRenderBa@2:
  00046	75 08		 jne	 SHORT $LN14@OnRenderBa@2

; 1345 : 	{
; 1346 : 		if( m_pBarNormal )

  00048	8b 8b 90 01 00
	00		 mov	 ecx, DWORD PTR [ebx+400]

; 1347 : 			m_pBarNormal->Render( iXPos, iYPos );
; 1348 : 	}

  0004e	eb 06		 jmp	 SHORT $LN23@OnRenderBa@2
$LN14@OnRenderBa@2:

; 1349 : 	else if( m_pBarNormalLight )

  00050	8b 8b 94 01 00
	00		 mov	 ecx, DWORD PTR [ebx+404]
$LN23@OnRenderBa@2:
  00056	3b cf		 cmp	 ecx, edi
  00058	74 25		 je	 SHORT $LN11@OnRenderBa@2

; 1350 : 	{
; 1351 : 		m_pBarNormalLight->Render( iXPos, iYPos );

  0005a	66 0f 6e 45 0c	 movd	 xmm0, DWORD PTR _iYPos$[ebp]
  0005f	8b 01		 mov	 eax, DWORD PTR [ecx]
  00061	57		 push	 edi
  00062	57		 push	 edi
  00063	57		 push	 edi
  00064	57		 push	 edi
  00065	51		 push	 ecx
  00066	51		 push	 ecx
  00067	0f 5b c0	 cvtdq2ps xmm0, xmm0
  0006a	f3 0f 11 44 24
	04		 movss	 DWORD PTR [esp+4], xmm0
  00070	66 0f 6e 45 08	 movd	 xmm0, DWORD PTR _iXPos$[ebp]
  00075	0f 5b c0	 cvtdq2ps xmm0, xmm0
  00078	f3 0f 11 04 24	 movss	 DWORD PTR [esp], xmm0
  0007d	ff 10		 call	 DWORD PTR [eax]
$LN11@OnRenderBa@2:

; 1352 : 	}
; 1353 : 
; 1354 : 	g_FontMgr.SetTextStyle( TS_NORMAL );	

  0007f	8b 35 00 00 00
	00		 mov	 esi, DWORD PTR __imp_?GetSingleton@ioFontManager@@SAAAV1@XZ
  00085	57		 push	 edi
  00086	ff d6		 call	 esi
  00088	8b c8		 mov	 ecx, eax
  0008a	ff 15 00 00 00
	00		 call	 DWORD PTR __imp_?SetTextStyle@ioFontManager@@QAEXW4TextStyle@@@Z

; 1355 : 	g_FontMgr.SetAlignType( TAT_LEFT );

  00090	57		 push	 edi
  00091	ff d6		 call	 esi
  00093	8b c8		 mov	 ecx, eax
  00095	ff 15 00 00 00
	00		 call	 DWORD PTR __imp_?SetAlignType@ioFontManager@@QAEXW4TextAlignType@@@Z

; 1356 : 	g_FontMgr.SetBkColor( 0, 0, 0 );

  0009b	57		 push	 edi
  0009c	57		 push	 edi
  0009d	57		 push	 edi
  0009e	ff d6		 call	 esi
  000a0	8b c8		 mov	 ecx, eax
  000a2	ff 15 00 00 00
	00		 call	 DWORD PTR __imp_?SetBkColor@ioFontManager@@QAEXHHH@Z

; 1357 : 
; 1358 : 	// 사람 아이콘
; 1359 : 	if( szName.IsEmpty() )

  000a8	8d 4d 18	 lea	 ecx, DWORD PTR _szName$[ebp]
  000ab	ff 15 00 00 00
	00		 call	 DWORD PTR __imp_?IsEmpty@ioHashString@@QBE_NXZ
  000b1	84 c0		 test	 al, al
  000b3	0f 84 2d 02 00
	00		 je	 $LN10@OnRenderBa@2

; 1360 : 	{
; 1361 : 		if( iCurSlot < iMaxSlot )

  000b9	8b 45 14	 mov	 eax, DWORD PTR _iCurSlot$[ebp]

; 1364 : 			{
; 1365 : 				m_pBarOver->Render( iXPos, iYPos );

  000bc	57		 push	 edi
  000bd	57		 push	 edi
  000be	57		 push	 edi
  000bf	57		 push	 edi
  000c0	3b 45 10	 cmp	 eax, DWORD PTR _iMaxSlot$[ebp]
  000c3	0f 8d e1 00 00
	00		 jge	 $LN9@OnRenderBa@2

; 1362 : 		{
; 1363 : 			if( m_MouseOverIndex == iCurSlot )

  000c9	39 83 d8 01 00
	00		 cmp	 DWORD PTR [ebx+472], eax
  000cf	0f 85 8b 00 00
	00		 jne	 $LN8@OnRenderBa@2

; 1364 : 			{
; 1365 : 				m_pBarOver->Render( iXPos, iYPos );

  000d5	8b 8b 98 01 00
	00		 mov	 ecx, DWORD PTR [ebx+408]
  000db	66 0f 6e 45 0c	 movd	 xmm0, DWORD PTR _iYPos$[ebp]
  000e0	8b 01		 mov	 eax, DWORD PTR [ecx]
  000e2	51		 push	 ecx
  000e3	0f 5b c0	 cvtdq2ps xmm0, xmm0
  000e6	51		 push	 ecx
  000e7	f3 0f 11 44 24
	04		 movss	 DWORD PTR [esp+4], xmm0
  000ed	66 0f 6e 45 08	 movd	 xmm0, DWORD PTR _iXPos$[ebp]
  000f2	0f 5b c0	 cvtdq2ps xmm0, xmm0
  000f5	f3 0f 11 04 24	 movss	 DWORD PTR [esp], xmm0
  000fa	ff 10		 call	 DWORD PTR [eax]

; 1366 : 
; 1367 : 				m_pPeopleOrange->SetColor( 255, 255, 255 );

  000fc	8b 8b 9c 01 00
	00		 mov	 ecx, DWORD PTR [ebx+412]
  00102	8b 01		 mov	 eax, DWORD PTR [ecx]
  00104	be ff 00 00 00	 mov	 esi, 255		; 000000ffH
  00109	56		 push	 esi
  0010a	56		 push	 esi
  0010b	56		 push	 esi
  0010c	ff 50 28	 call	 DWORD PTR [eax+40]

; 1368 : 				m_pPeopleOrange->Render( iXPos + 4, iYPos + 2, UI_RENDER_NORMAL_ADD_COLOR );

  0010f	8b 4d 0c	 mov	 ecx, DWORD PTR _iYPos$[ebp]
  00112	8b 9b 9c 01 00
	00		 mov	 ebx, DWORD PTR [ebx+412]
  00118	8b 03		 mov	 eax, DWORD PTR [ebx]
  0011a	57		 push	 edi
  0011b	57		 push	 edi
  0011c	83 c1 02	 add	 ecx, 2
  0011f	57		 push	 edi
  00120	6a 04		 push	 4
  00122	51		 push	 ecx
  00123	51		 push	 ecx
  00124	0f 57 c0	 xorps	 xmm0, xmm0
  00127	f3 0f 2a c1	 cvtsi2ss xmm0, ecx
  0012b	8b 4d 08	 mov	 ecx, DWORD PTR _iXPos$[ebp]
  0012e	f3 0f 11 44 24
	04		 movss	 DWORD PTR [esp+4], xmm0
  00134	83 c1 04	 add	 ecx, 4
  00137	0f 57 c0	 xorps	 xmm0, xmm0
  0013a	f3 0f 2a c1	 cvtsi2ss xmm0, ecx
  0013e	8b cb		 mov	 ecx, ebx
  00140	f3 0f 11 04 24	 movss	 DWORD PTR [esp], xmm0
  00145	ff 10		 call	 DWORD PTR [eax]

; 1369 : 				g_FontMgr.SetTextColor( 255, 255, 255 );

  00147	56		 push	 esi
  00148	56		 push	 esi
  00149	56		 push	 esi
  0014a	ff 15 00 00 00
	00		 call	 DWORD PTR __imp_?GetSingleton@ioFontManager@@SAAAV1@XZ
  00150	8b c8		 mov	 ecx, eax
  00152	ff 15 00 00 00
	00		 call	 DWORD PTR __imp_?SetTextColor@ioFontManager@@QAEXHHH@Z

; 1370 : 			}
; 1371 : 			else

  00158	8b 35 00 00 00
	00		 mov	 esi, DWORD PTR __imp_?GetSingleton@ioFontManager@@SAAAV1@XZ
  0015e	eb 42		 jmp	 SHORT $LN7@OnRenderBa@2
$LN8@OnRenderBa@2:

; 1372 : 			{
; 1373 : 				m_pPeopleOrange->Render( iXPos + 4, iYPos + 2 );

  00160	8b 4d 0c	 mov	 ecx, DWORD PTR _iYPos$[ebp]
  00163	8b 9b 9c 01 00
	00		 mov	 ebx, DWORD PTR [ebx+412]
  00169	8b 03		 mov	 eax, DWORD PTR [ebx]
  0016b	83 c1 02	 add	 ecx, 2
  0016e	51		 push	 ecx
  0016f	51		 push	 ecx
  00170	0f 57 c0	 xorps	 xmm0, xmm0
  00173	f3 0f 2a c1	 cvtsi2ss xmm0, ecx
  00177	8b 4d 08	 mov	 ecx, DWORD PTR _iXPos$[ebp]
  0017a	f3 0f 11 44 24
	04		 movss	 DWORD PTR [esp+4], xmm0
  00180	83 c1 04	 add	 ecx, 4
  00183	0f 57 c0	 xorps	 xmm0, xmm0
  00186	f3 0f 2a c1	 cvtsi2ss xmm0, ecx
  0018a	8b cb		 mov	 ecx, ebx
  0018c	f3 0f 11 04 24	 movss	 DWORD PTR [esp], xmm0
  00191	ff 10		 call	 DWORD PTR [eax]

; 1374 : 				g_FontMgr.SetTextColor( TCT_DEFAULT_ORANGE );

  00193	68 00 4e ce ff	 push	 -3256832		; ffce4e00H
  00198	ff d6		 call	 esi
  0019a	8b c8		 mov	 ecx, eax
  0019c	ff 15 00 00 00
	00		 call	 DWORD PTR __imp_?SetTextColor@ioFontManager@@QAEXK@Z
$LN7@OnRenderBa@2:

; 1375 : 			}
; 1376 : 			g_FontMgr.PrintText( iXPos + 23, iYPos + 3, FONT_SIZE_12, STR(1) );

  001a2	57		 push	 edi
  001a3	6a 01		 push	 1

; 1377 : 		}
; 1378 : 		else

  001a5	e9 dc 00 00 00	 jmp	 $LN24@OnRenderBa@2
$LN9@OnRenderBa@2:

; 1379 : 		{
; 1380 : 			if( m_MouseOverIndex == iCurSlot )

  001aa	39 83 d8 01 00
	00		 cmp	 DWORD PTR [ebx+472], eax
  001b0	0f 85 8b 00 00
	00		 jne	 $LN5@OnRenderBa@2

; 1381 : 			{
; 1382 : 				m_pBarOver->Render( iXPos, iYPos );

  001b6	8b 8b 98 01 00
	00		 mov	 ecx, DWORD PTR [ebx+408]
  001bc	66 0f 6e 45 0c	 movd	 xmm0, DWORD PTR _iYPos$[ebp]
  001c1	8b 01		 mov	 eax, DWORD PTR [ecx]
  001c3	51		 push	 ecx
  001c4	0f 5b c0	 cvtdq2ps xmm0, xmm0
  001c7	51		 push	 ecx
  001c8	f3 0f 11 44 24
	04		 movss	 DWORD PTR [esp+4], xmm0
  001ce	66 0f 6e 45 08	 movd	 xmm0, DWORD PTR _iXPos$[ebp]
  001d3	0f 5b c0	 cvtdq2ps xmm0, xmm0
  001d6	f3 0f 11 04 24	 movss	 DWORD PTR [esp], xmm0
  001db	ff 10		 call	 DWORD PTR [eax]

; 1383 : 
; 1384 : 				m_pPeopleGray->SetColor( 255, 255, 255 );

  001dd	8b 8b a0 01 00
	00		 mov	 ecx, DWORD PTR [ebx+416]
  001e3	8b 01		 mov	 eax, DWORD PTR [ecx]
  001e5	be ff 00 00 00	 mov	 esi, 255		; 000000ffH
  001ea	56		 push	 esi
  001eb	56		 push	 esi
  001ec	56		 push	 esi
  001ed	ff 50 28	 call	 DWORD PTR [eax+40]

; 1385 : 				m_pPeopleGray->Render( iXPos + 4, iYPos + 2, UI_RENDER_NORMAL_ADD_COLOR );	

  001f0	8b 4d 0c	 mov	 ecx, DWORD PTR _iYPos$[ebp]
  001f3	8b 9b a0 01 00
	00		 mov	 ebx, DWORD PTR [ebx+416]
  001f9	8b 03		 mov	 eax, DWORD PTR [ebx]
  001fb	57		 push	 edi
  001fc	57		 push	 edi
  001fd	83 c1 02	 add	 ecx, 2
  00200	57		 push	 edi
  00201	6a 04		 push	 4
  00203	51		 push	 ecx
  00204	51		 push	 ecx
  00205	0f 57 c0	 xorps	 xmm0, xmm0
  00208	f3 0f 2a c1	 cvtsi2ss xmm0, ecx
  0020c	8b 4d 08	 mov	 ecx, DWORD PTR _iXPos$[ebp]
  0020f	f3 0f 11 44 24
	04		 movss	 DWORD PTR [esp+4], xmm0
  00215	83 c1 04	 add	 ecx, 4
  00218	0f 57 c0	 xorps	 xmm0, xmm0
  0021b	f3 0f 2a c1	 cvtsi2ss xmm0, ecx
  0021f	8b cb		 mov	 ecx, ebx
  00221	f3 0f 11 04 24	 movss	 DWORD PTR [esp], xmm0
  00226	ff 10		 call	 DWORD PTR [eax]

; 1386 : 				g_FontMgr.SetTextColor( 255, 255, 255 );

  00228	56		 push	 esi
  00229	56		 push	 esi
  0022a	56		 push	 esi
  0022b	ff 15 00 00 00
	00		 call	 DWORD PTR __imp_?GetSingleton@ioFontManager@@SAAAV1@XZ
  00231	8b c8		 mov	 ecx, eax
  00233	ff 15 00 00 00
	00		 call	 DWORD PTR __imp_?SetTextColor@ioFontManager@@QAEXHHH@Z

; 1387 : 			}
; 1388 : 			else

  00239	8b 35 00 00 00
	00		 mov	 esi, DWORD PTR __imp_?GetSingleton@ioFontManager@@SAAAV1@XZ
  0023f	eb 42		 jmp	 SHORT $LN4@OnRenderBa@2
$LN5@OnRenderBa@2:

; 1389 : 			{
; 1390 : 				m_pPeopleGray->Render( iXPos + 4, iYPos + 2 );	

  00241	8b 4d 0c	 mov	 ecx, DWORD PTR _iYPos$[ebp]
  00244	8b 9b a0 01 00
	00		 mov	 ebx, DWORD PTR [ebx+416]
  0024a	8b 03		 mov	 eax, DWORD PTR [ebx]
  0024c	83 c1 02	 add	 ecx, 2
  0024f	51		 push	 ecx
  00250	51		 push	 ecx
  00251	0f 57 c0	 xorps	 xmm0, xmm0
  00254	f3 0f 2a c1	 cvtsi2ss xmm0, ecx
  00258	8b 4d 08	 mov	 ecx, DWORD PTR _iXPos$[ebp]
  0025b	f3 0f 11 44 24
	04		 movss	 DWORD PTR [esp+4], xmm0
  00261	83 c1 04	 add	 ecx, 4
  00264	0f 57 c0	 xorps	 xmm0, xmm0
  00267	f3 0f 2a c1	 cvtsi2ss xmm0, ecx
  0026b	8b cb		 mov	 ecx, ebx
  0026d	f3 0f 11 04 24	 movss	 DWORD PTR [esp], xmm0
  00272	ff 10		 call	 DWORD PTR [eax]

; 1391 : 				g_FontMgr.SetTextColor( TCT_DEFAULT_LIGHTGRAY );		

  00274	68 a7 a7 a7 ff	 push	 -5789785		; ffa7a7a7H
  00279	ff d6		 call	 esi
  0027b	8b c8		 mov	 ecx, eax
  0027d	ff 15 00 00 00
	00		 call	 DWORD PTR __imp_?SetTextColor@ioFontManager@@QAEXK@Z
$LN4@OnRenderBa@2:

; 1392 : 			}
; 1393 : 			g_FontMgr.PrintText( iXPos + 23, iYPos + 3, FONT_SIZE_12, STR(2) );

  00283	57		 push	 edi
  00284	6a 02		 push	 2
$LN24@OnRenderBa@2:
  00286	68 00 00 00 00	 push	 OFFSET ??_C@_00CNPNBAHC@?$AA@
  0028b	68 00 00 00 00	 push	 OFFSET ??_C@_0CB@JDCKAKNM@HeadquartersMainWnd?3?3OnRenderBar@
  00290	ff 15 00 00 00
	00		 call	 DWORD PTR __imp_?GetSingleton@ioStringManager@@SAAAV1@XZ
  00296	8b c8		 mov	 ecx, eax
  00298	ff 15 00 00 00
	00		 call	 DWORD PTR __imp_?GetString@ioStringManager@@QAEPADPBD0HW4FileNamePrefix@1@@Z
  0029e	f3 0f 10 05 00
	00 00 00	 movss	 xmm0, DWORD PTR __real@3f19999a
  002a6	50		 push	 eax
  002a7	8b 45 0c	 mov	 eax, DWORD PTR _iYPos$[ebp]
  002aa	83 ec 0c	 sub	 esp, 12			; 0000000cH
  002ad	f3 0f 11 44 24
	08		 movss	 DWORD PTR [esp+8], xmm0
  002b3	83 c0 03	 add	 eax, 3
  002b6	0f 57 c0	 xorps	 xmm0, xmm0
  002b9	f3 0f 2a c0	 cvtsi2ss xmm0, eax
  002bd	8b 45 08	 mov	 eax, DWORD PTR _iXPos$[ebp]
  002c0	f3 0f 11 44 24
	04		 movss	 DWORD PTR [esp+4], xmm0
  002c6	83 c0 17	 add	 eax, 23			; 00000017H
  002c9	0f 57 c0	 xorps	 xmm0, xmm0
  002cc	f3 0f 2a c0	 cvtsi2ss xmm0, eax
  002d0	f3 0f 11 04 24	 movss	 DWORD PTR [esp], xmm0
  002d5	ff d6		 call	 esi
  002d7	50		 push	 eax
  002d8	ff 15 00 00 00
	00		 call	 DWORD PTR __imp_?PrintText@ioFontManager@@QAAXMMMPBDZZ
  002de	83 c4 14	 add	 esp, 20			; 00000014H

; 1394 : 		}

  002e1	e9 b4 00 00 00	 jmp	 $LN1@OnRenderBa@2
$LN10@OnRenderBa@2:

; 1395 : 	}
; 1396 : 	else if( m_MouseOverName == szName ) // 오버 슬롯

  002e6	8d 45 18	 lea	 eax, DWORD PTR _szName$[ebp]
  002e9	50		 push	 eax
  002ea	8d 8b c8 01 00
	00		 lea	 ecx, DWORD PTR [ebx+456]
  002f0	ff 15 00 00 00
	00		 call	 DWORD PTR __imp_??8ioHashString@@QBE_NABV0@@Z
  002f6	84 c0		 test	 al, al
  002f8	74 6f		 je	 SHORT $LN2@OnRenderBa@2

; 1397 : 	{
; 1398 : 		m_pBarOver->Render( iXPos, iYPos );

  002fa	8b 75 0c	 mov	 esi, DWORD PTR _iYPos$[ebp]
  002fd	8b 9b 98 01 00
	00		 mov	 ebx, DWORD PTR [ebx+408]
  00303	8b 03		 mov	 eax, DWORD PTR [ebx]
  00305	57		 push	 edi
  00306	57		 push	 edi
  00307	57		 push	 edi
  00308	57		 push	 edi
  00309	8b 7d 08	 mov	 edi, DWORD PTR _iXPos$[ebp]
  0030c	51		 push	 ecx
  0030d	0f 57 c0	 xorps	 xmm0, xmm0
  00310	51		 push	 ecx
  00311	f3 0f 2a c6	 cvtsi2ss xmm0, esi
  00315	f3 0f 11 44 24
	04		 movss	 DWORD PTR [esp+4], xmm0
  0031b	0f 57 c0	 xorps	 xmm0, xmm0
  0031e	f3 0f 2a c7	 cvtsi2ss xmm0, edi
  00322	8b cb		 mov	 ecx, ebx
  00324	f3 0f 11 04 24	 movss	 DWORD PTR [esp], xmm0
  00329	ff 10		 call	 DWORD PTR [eax]

; 1399 : 
; 1400 : 		g_LevelMgr.RenderGrade( iXPos + 4, iYPos + 2, iGradeLevel, TEAM_PRIVATE_1, UI_RENDER_NORMAL_ADD_COLOR, RGB( 255, 255, 255 ) );

  0032b	68 ff ff ff 00	 push	 16777215		; 00ffffffH
  00330	6a 04		 push	 4
  00332	6a 03		 push	 3
  00334	ff 75 28	 push	 DWORD PTR _iGradeLevel$[ebp]
  00337	83 c6 02	 add	 esi, 2
  0033a	56		 push	 esi
  0033b	83 c7 04	 add	 edi, 4
  0033e	57		 push	 edi
  0033f	e8 00 00 00 00	 call	 ?GetSingleton@ioMyLevelMgr@@SAAAV1@XZ ; ioMyLevelMgr::GetSingleton
  00344	8b c8		 mov	 ecx, eax
  00346	e8 00 00 00 00	 call	 ?RenderGrade@ioMyLevelMgr@@QAEXHHKW4TeamType@@W4UIRenderType@@K@Z ; ioMyLevelMgr::RenderGrade

; 1401 : 		g_FontMgr.SetTextColor( 255, 255, 255 );

  0034b	be ff 00 00 00	 mov	 esi, 255		; 000000ffH
  00350	56		 push	 esi
  00351	56		 push	 esi
  00352	56		 push	 esi
  00353	ff 15 00 00 00
	00		 call	 DWORD PTR __imp_?GetSingleton@ioFontManager@@SAAAV1@XZ
  00359	8b c8		 mov	 ecx, eax
  0035b	ff 15 00 00 00
	00		 call	 DWORD PTR __imp_?SetTextColor@ioFontManager@@QAEXHHH@Z

; 1402 : 	}
; 1403 : 	else

  00361	8b 35 00 00 00
	00		 mov	 esi, DWORD PTR __imp_?GetSingleton@ioFontManager@@SAAAV1@XZ
  00367	eb 31		 jmp	 SHORT $LN1@OnRenderBa@2
$LN2@OnRenderBa@2:

; 1404 : 	{
; 1405 : 		g_LevelMgr.RenderGrade( iXPos + 4, iYPos + 2, iGradeLevel, TEAM_PRIVATE_1 );

  00369	8b 45 0c	 mov	 eax, DWORD PTR _iYPos$[ebp]
  0036c	6a ff		 push	 -1
  0036e	57		 push	 edi
  0036f	6a 03		 push	 3
  00371	ff 75 28	 push	 DWORD PTR _iGradeLevel$[ebp]
  00374	83 c0 02	 add	 eax, 2
  00377	50		 push	 eax
  00378	8b 45 08	 mov	 eax, DWORD PTR _iXPos$[ebp]
  0037b	83 c0 04	 add	 eax, 4
  0037e	50		 push	 eax
  0037f	e8 00 00 00 00	 call	 ?GetSingleton@ioMyLevelMgr@@SAAAV1@XZ ; ioMyLevelMgr::GetSingleton
  00384	8b c8		 mov	 ecx, eax
  00386	e8 00 00 00 00	 call	 ?RenderGrade@ioMyLevelMgr@@QAEXHHKW4TeamType@@W4UIRenderType@@K@Z ; ioMyLevelMgr::RenderGrade

; 1406 : 		g_FontMgr.SetTextColor( TCT_DEFAULT_DARKGRAY );

  0038b	68 3a 3a 3a ff	 push	 -12961222		; ff3a3a3aH
  00390	ff d6		 call	 esi
  00392	8b c8		 mov	 ecx, eax
  00394	ff 15 00 00 00
	00		 call	 DWORD PTR __imp_?SetTextColor@ioFontManager@@QAEXK@Z
$LN1@OnRenderBa@2:

; 1407 : 	}
; 1408 : 	g_FontMgr.PrintTextWidthCut( iXPos + 23, iYPos + 3, FONT_SIZE_12, 58.0f, szName.c_str() );

  0039a	8d 4d 18	 lea	 ecx, DWORD PTR _szName$[ebp]
  0039d	ff 15 00 00 00
	00		 call	 DWORD PTR __imp_?c_str@ioHashString@@QBEPBDXZ
  003a3	f3 0f 10 05 00
	00 00 00	 movss	 xmm0, DWORD PTR __real@42680000
  003ab	50		 push	 eax
  003ac	8b 45 0c	 mov	 eax, DWORD PTR _iYPos$[ebp]
  003af	83 ec 10	 sub	 esp, 16			; 00000010H
  003b2	f3 0f 11 44 24
	0c		 movss	 DWORD PTR [esp+12], xmm0
  003b8	f3 0f 10 05 00
	00 00 00	 movss	 xmm0, DWORD PTR __real@3f19999a
  003c0	f3 0f 11 44 24
	08		 movss	 DWORD PTR [esp+8], xmm0
  003c6	83 c0 03	 add	 eax, 3
  003c9	0f 57 c0	 xorps	 xmm0, xmm0
  003cc	f3 0f 2a c0	 cvtsi2ss xmm0, eax
  003d0	8b 45 08	 mov	 eax, DWORD PTR _iXPos$[ebp]
  003d3	f3 0f 11 44 24
	04		 movss	 DWORD PTR [esp+4], xmm0
  003d9	83 c0 17	 add	 eax, 23			; 00000017H
  003dc	0f 57 c0	 xorps	 xmm0, xmm0
  003df	f3 0f 2a c0	 cvtsi2ss xmm0, eax
  003e3	f3 0f 11 04 24	 movss	 DWORD PTR [esp], xmm0
  003e8	ff d6		 call	 esi
  003ea	50		 push	 eax
  003eb	ff 15 00 00 00
	00		 call	 DWORD PTR __imp_?PrintTextWidthCut@ioFontManager@@QAAXMMMMPBDZZ
  003f1	83 c4 18	 add	 esp, 24			; 00000018H
$LN15@OnRenderBa@2:

; 1341 : 		return;

  003f4	83 4d fc ff	 or	 DWORD PTR __$EHRec$[ebp+8], -1
  003f8	8d 4d 18	 lea	 ecx, DWORD PTR _szName$[ebp]
  003fb	ff 15 00 00 00
	00		 call	 DWORD PTR __imp_??1ioHashString@@QAE@XZ

; 1409 : }

  00401	e8 00 00 00 00	 call	 __EH_epilog3
  00406	c2 24 00	 ret	 36			; 00000024H
_TEXT	ENDS
;	COMDAT text$x
text$x	SEGMENT
__unwindfunclet$?OnRenderBar@HeadquartersMainWnd@@IAEXHHHHVioHashString@@H@Z$0:
  00000	8d 4d 18	 lea	 ecx, DWORD PTR _szName$[ebp]
  00003	ff 25 00 00 00
	00		 jmp	 DWORD PTR __imp_??1ioHashString@@QAE@XZ
__ehhandler$?OnRenderBar@HeadquartersMainWnd@@IAEXHHHHVioHashString@@H@Z:
  00009	8b 54 24 08	 mov	 edx, DWORD PTR [esp+8]
  0000d	8d 42 0c	 lea	 eax, DWORD PTR [edx+12]
  00010	8b 4a f0	 mov	 ecx, DWORD PTR [edx-16]
  00013	33 c8		 xor	 ecx, eax
  00015	e8 00 00 00 00	 call	 @__security_check_cookie@4
  0001a	b8 00 00 00 00	 mov	 eax, OFFSET __ehfuncinfo$?OnRenderBar@HeadquartersMainWnd@@IAEXHHHHVioHashString@@H@Z
  0001f	e9 00 00 00 00	 jmp	 ___CxxFrameHandler3
text$x	ENDS
?OnRenderBar@HeadquartersMainWnd@@IAEXHHHHVioHashString@@H@Z ENDP ; HeadquartersMainWnd::OnRenderBar
PUBLIC	??_7HeadquartersOwnerWnd@@6B@			; HeadquartersOwnerWnd::`vftable'
PUBLIC	??0HeadquartersOwnerWnd@@QAE@XZ			; HeadquartersOwnerWnd::HeadquartersOwnerWnd
PUBLIC	??_R4HeadquartersOwnerWnd@@6B@			; HeadquartersOwnerWnd::`RTTI Complete Object Locator'
PUBLIC	??_R0?AVHeadquartersOwnerWnd@@@8		; HeadquartersOwnerWnd `RTTI Type Descriptor'
PUBLIC	??_R3HeadquartersOwnerWnd@@8			; HeadquartersOwnerWnd::`RTTI Class Hierarchy Descriptor'
PUBLIC	??_R2HeadquartersOwnerWnd@@8			; HeadquartersOwnerWnd::`RTTI Base Class Array'
PUBLIC	??_R1A@?0A@EA@HeadquartersOwnerWnd@@8		; HeadquartersOwnerWnd::`RTTI Base Class Descriptor at (0,-1,0,64)'
PUBLIC	?OnRender@HeadquartersOwnerWnd@@MAEXXZ		; HeadquartersOwnerWnd::OnRender
PUBLIC	?iwm_command@HeadquartersOwnerWnd@@UAEXPAVioWnd@@HK@Z ; HeadquartersOwnerWnd::iwm_command
PUBLIC	?iwm_show@HeadquartersOwnerWnd@@UAEXXZ		; HeadquartersOwnerWnd::iwm_show
PUBLIC	?iwm_hide@HeadquartersOwnerWnd@@UAEXXZ		; HeadquartersOwnerWnd::iwm_hide
EXTRN	__imp_??0ioWnd@@QAE@XZ:PROC
EXTRN	?AddRenderImage@ioWnd@@UAEXABVioHashString@@PAVioUIRenderImage@@@Z:PROC ; ioWnd::AddRenderImage
EXTRN	?SetPositionToDefault@ioWnd@@UAEXHH_N0@Z:PROC	; ioWnd::SetPositionToDefault
EXTRN	?OnProcess@ioWnd@@MAEXM@Z:PROC			; ioWnd::OnProcess
EXTRN	?OnMouseProcess@ioWnd@@MAEXABVioMouse@@@Z:PROC	; ioWnd::OnMouseProcess
EXTRN	?iwm_lbuttondown@ioWnd@@UAEXABVioMouse@@@Z:PROC	; ioWnd::iwm_lbuttondown
EXTRN	?iwm_lbuttonup@ioWnd@@UAEXABVioMouse@@@Z:PROC	; ioWnd::iwm_lbuttonup
EXTRN	?iwm_spacebar@ioWnd@@UAE_NXZ:PROC		; ioWnd::iwm_spacebar
EXTRN	??_EHeadquartersOwnerWnd@@UAEPAXI@Z:PROC	; HeadquartersOwnerWnd::`vector deleting destructor'
;	COMDAT ??_R1A@?0A@EA@HeadquartersOwnerWnd@@8
rdata$r	SEGMENT
??_R1A@?0A@EA@HeadquartersOwnerWnd@@8 DD FLAT:??_R0?AVHeadquartersOwnerWnd@@@8 ; HeadquartersOwnerWnd::`RTTI Base Class Descriptor at (0,-1,0,64)'
	DD	01H
	DD	00H
	DD	0ffffffffH
	DD	00H
	DD	040H
	DD	FLAT:??_R3HeadquartersOwnerWnd@@8
rdata$r	ENDS
;	COMDAT ??_R2HeadquartersOwnerWnd@@8
rdata$r	SEGMENT
??_R2HeadquartersOwnerWnd@@8 DD FLAT:??_R1A@?0A@EA@HeadquartersOwnerWnd@@8 ; HeadquartersOwnerWnd::`RTTI Base Class Array'
	DD	FLAT:??_R1A@?0A@EA@ioWnd@@8
rdata$r	ENDS
;	COMDAT ??_R3HeadquartersOwnerWnd@@8
rdata$r	SEGMENT
??_R3HeadquartersOwnerWnd@@8 DD 00H			; HeadquartersOwnerWnd::`RTTI Class Hierarchy Descriptor'
	DD	00H
	DD	02H
	DD	FLAT:??_R2HeadquartersOwnerWnd@@8
rdata$r	ENDS
;	COMDAT ??_R0?AVHeadquartersOwnerWnd@@@8
_DATA	SEGMENT
??_R0?AVHeadquartersOwnerWnd@@@8 DD FLAT:??_7type_info@@6B@ ; HeadquartersOwnerWnd `RTTI Type Descriptor'
	DD	00H
	DB	'.?AVHeadquartersOwnerWnd@@', 00H
_DATA	ENDS
;	COMDAT ??_R4HeadquartersOwnerWnd@@6B@
rdata$r	SEGMENT
??_R4HeadquartersOwnerWnd@@6B@ DD 00H			; HeadquartersOwnerWnd::`RTTI Complete Object Locator'
	DD	00H
	DD	00H
	DD	FLAT:??_R0?AVHeadquartersOwnerWnd@@@8
	DD	FLAT:??_R3HeadquartersOwnerWnd@@8
rdata$r	ENDS
;	COMDAT ??_7HeadquartersOwnerWnd@@6B@
CONST	SEGMENT
??_7HeadquartersOwnerWnd@@6B@ DD FLAT:??_R4HeadquartersOwnerWnd@@6B@ ; HeadquartersOwnerWnd::`vftable'
	DD	FLAT:?AddRenderFrame@ioWnd@@UAEXABVioHashString@@PAVioUIRenderFrame@@@Z
	DD	FLAT:?AddRenderImage@ioWnd@@UAEXABVioHashString@@PAVioUIRenderImage@@@Z
	DD	FLAT:?AddTooltipHelp@ioWnd@@UAEXABVioHashString@@00@Z
	DD	FLAT:?ParseExtraInfo@ioWnd@@UAEXAAVioXMLElement@@@Z
	DD	FLAT:?AddNamedRenderImage@ioWnd@@UAEXABVioHashString@@PAVioUIRenderImage@@@Z
	DD	FLAT:?RemoveNamedRenderImage@ioWnd@@UAEXABVioHashString@@@Z
	DD	FLAT:?GetNamedRenderImage@ioWnd@@UBEPAVioUIRenderImage@@ABVioHashString@@@Z
	DD	FLAT:?SetWindowAlpha@ioWnd@@UAEXH@Z
	DD	FLAT:?SetActive@ioWnd@@UAEXXZ
	DD	FLAT:?SetInActive@ioWnd@@UAEXXZ
	DD	FLAT:?ClearElementImageList@ioWnd@@UAEXXZ
	DD	FLAT:?SetSize@ioWnd@@UAEXHH@Z
	DD	FLAT:?SetPositionToDefault@ioWnd@@UAEXHH_N0@Z
	DD	FLAT:?IsNeedProcess@ioWnd@@UBE_NXZ
	DD	FLAT:?IsCanMouseReaction@ioWnd@@UBE_NXZ
	DD	FLAT:?AddChild@ioWnd@@UAEXPAV1@@Z
	DD	FLAT:?DeleteChild@ioWnd@@UAEXK@Z
	DD	FLAT:?DeleteAllChild@ioWnd@@UAEXXZ
	DD	FLAT:?OnRenderShowAndHide@ioWnd@@MAE_NXZ
	DD	FLAT:?OnRenderShowAndHideByDefault@ioWnd@@MAE_NK@Z
	DD	FLAT:?OnRenderShowAndHideByTop@ioWnd@@MAE_NK@Z
	DD	FLAT:?OnRenderShowAndHideByDown@ioWnd@@MAE_NK@Z
	DD	FLAT:?OnRender@HeadquartersOwnerWnd@@MAEXXZ
	DD	FLAT:?OnRenderAfterChild@ioWnd@@MAEXXZ
	DD	FLAT:?OnProcess@ioWnd@@MAEXM@Z
	DD	FLAT:?OnMouseProcess@ioWnd@@MAEXABVioMouse@@@Z
	DD	FLAT:?CheckFrameReSize@ioWnd@@MAEXHHHH@Z
	DD	FLAT:?RenderImageList@ioWnd@@MAEXHHW4UIRenderType@@@Z
	DD	FLAT:?iwm_create@ioWnd@@UAEXXZ
	DD	FLAT:?iwm_destroy@ioWnd@@UAEXXZ
	DD	FLAT:?iwm_lbuttondown@ioWnd@@UAEXABVioMouse@@@Z
	DD	FLAT:?iwm_lbuttonup@ioWnd@@UAEXABVioMouse@@@Z
	DD	FLAT:?iwm_lbuttonDBLCLK@ioWnd@@UAEXABVioMouse@@@Z
	DD	FLAT:?iwm_rbuttondown@ioWnd@@UAEXABVioMouse@@@Z
	DD	FLAT:?iwm_rbuttonup@ioWnd@@UAEXABVioMouse@@@Z
	DD	FLAT:?iwm_command@HeadquartersOwnerWnd@@UAEXPAVioWnd@@HK@Z
	DD	FLAT:?iwm_mouseover@ioWnd@@UAEXABVioMouse@@@Z
	DD	FLAT:?iwm_mousemove@ioWnd@@UAEXABVioMouse@@@Z
	DD	FLAT:?iwm_mouseleave@ioWnd@@UAEXABVioMouse@@@Z
	DD	FLAT:?iwm_vscroll@ioWnd@@UAEXKH@Z
	DD	FLAT:?iwm_wheel@ioWnd@@UAEXH@Z
	DD	FLAT:?iwm_show@HeadquartersOwnerWnd@@UAEXXZ
	DD	FLAT:?iwm_hide@HeadquartersOwnerWnd@@UAEXXZ
	DD	FLAT:?iwm_esc@ioWnd@@UAE_NXZ
	DD	FLAT:?iwm_spacebar@ioWnd@@UAE_NXZ
	DD	FLAT:?iwm_gototop@ioWnd@@UAEXXZ
	DD	FLAT:?iwm_dragenter@ioWnd@@UAE?AW4IWDropEffect@@PAVioDragItem@@ABVioMouse@@@Z
	DD	FLAT:?iwm_dragover@ioWnd@@UAE?AW4IWDropEffect@@PAVioDragItem@@ABVioMouse@@@Z
	DD	FLAT:?iwm_dragleave@ioWnd@@UAEXXZ
	DD	FLAT:?iwm_dropitem@ioWnd@@UAE_NPAVioDragItem@@ABVioMouse@@PAV1@@Z
	DD	FLAT:?iwm_dropdone@ioWnd@@UAEXPAVioDragItem@@PAV1@_N@Z
	DD	FLAT:?IsEXType@ioWnd@@UBE_NXZ
	DD	FLAT:?GetWndType@ioWnd@@UBEKXZ
	DD	FLAT:?RenderWnd@ioWnd@@UAEXXZ
	DD	FLAT:?SetIDEX@ioWnd@@UAEXAAK_N@Z
	DD	FLAT:?ParseXML@ioWnd@@UAEXAAVioXMLElement@@@Z
	DD	FLAT:?GetHeaderFileName@ioWnd@@UAEPBDXZ
	DD	FLAT:?GetTemplateName@ioWnd@@UAEPBDXZ
	DD	FLAT:?GetDefClassName@ioWnd@@UBEPBDXZ
	DD	FLAT:?_Clone@ioWnd@@UAEPAV1@XZ
	DD	FLAT:?Copy@ioWnd@@UAEXPAV1@@Z
	DD	FLAT:?Save@ioWnd@@UAE_NAAVioXMLElement@@@Z
	DD	FLAT:?SetSaveData@ioWnd@@UAEXAAVioXMLElement@@@Z
	DD	FLAT:?SetPosX@ioWnd@@UAEXH@Z
	DD	FLAT:?SetPosY@ioWnd@@UAEXH@Z
	DD	FLAT:?SetWidth@ioWnd@@UAEXH@Z
	DD	FLAT:?SetHeight@ioWnd@@UAEXH@Z
	DD	FLAT:?GetNumFixedRenderFrame@ioWnd@@UBEHXZ
	DD	FLAT:?GetFixedRenderFrameType@ioWnd@@UAEPBDH@Z
	DD	FLAT:?GetRenderFrame@ioWnd@@UAEPAPAVioUIRenderElement@@PBD@Z
	DD	FLAT:?GetNumFixedRenderImage@ioWnd@@UBEHXZ
	DD	FLAT:?GetFixedRenderImageType@ioWnd@@UAEPBDH@Z
	DD	FLAT:?GetRenderImage@ioWnd@@UAEPAPAVioUIRenderElement@@PBD@Z
	DD	FLAT:?AddEffect@ioWnd@@UAEXABVioHashString@@PAVioUI3DEffectRender@@@Z
	DD	FLAT:?GetEffect@ioWnd@@UAEPAVioUI3DEffectRender@@VioHashString@@@Z
	DD	FLAT:??_EHeadquartersOwnerWnd@@UAEPAXI@Z
; Function compile flags: /Ogsp
CONST	ENDS
;	COMDAT ??0HeadquartersOwnerWnd@@QAE@XZ
_TEXT	SEGMENT
??0HeadquartersOwnerWnd@@QAE@XZ PROC			; HeadquartersOwnerWnd::HeadquartersOwnerWnd, COMDAT
; _this$ = ecx

; 1412 : {

  00000	56		 push	 esi
  00001	8b f1		 mov	 esi, ecx
  00003	ff 15 00 00 00
	00		 call	 DWORD PTR __imp_??0ioWnd@@QAE@XZ
  00009	c7 06 00 00 00
	00		 mov	 DWORD PTR [esi], OFFSET ??_7HeadquartersOwnerWnd@@6B@

; 1413 : 	m_dwRadioBtnID = ID_OPEN_BTN;

  0000f	c7 86 60 01 00
	00 02 00 00 00	 mov	 DWORD PTR [esi+352], 2

; 1414 : }

  00019	8b c6		 mov	 eax, esi
  0001b	5e		 pop	 esi
  0001c	c3		 ret	 0
??0HeadquartersOwnerWnd@@QAE@XZ ENDP			; HeadquartersOwnerWnd::HeadquartersOwnerWnd
_TEXT	ENDS
PUBLIC	??1HeadquartersOwnerWnd@@UAE@XZ			; HeadquartersOwnerWnd::~HeadquartersOwnerWnd
EXTRN	__imp_??1ioWnd@@UAE@XZ:PROC
; Function compile flags: /Ogsp
;	COMDAT ??1HeadquartersOwnerWnd@@UAE@XZ
_TEXT	SEGMENT
??1HeadquartersOwnerWnd@@UAE@XZ PROC			; HeadquartersOwnerWnd::~HeadquartersOwnerWnd, COMDAT
; _this$ = ecx

; 1417 : {

  00000	c7 01 00 00 00
	00		 mov	 DWORD PTR [ecx], OFFSET ??_7HeadquartersOwnerWnd@@6B@

; 1418 : 
; 1419 : }

  00006	ff 25 00 00 00
	00		 jmp	 DWORD PTR __imp_??1ioWnd@@UAE@XZ
??1HeadquartersOwnerWnd@@UAE@XZ ENDP			; HeadquartersOwnerWnd::~HeadquartersOwnerWnd
; Function compile flags: /Ogsp
_TEXT	ENDS
;	COMDAT ?iwm_hide@HeadquartersOwnerWnd@@UAEXXZ
_TEXT	SEGMENT
?iwm_hide@HeadquartersOwnerWnd@@UAEXXZ PROC		; HeadquartersOwnerWnd::iwm_hide, COMDAT
; _this$ = ecx

; 1441 : 
; 1442 : }

  00000	c3		 ret	 0
?iwm_hide@HeadquartersOwnerWnd@@UAEXXZ ENDP		; HeadquartersOwnerWnd::iwm_hide
_TEXT	ENDS
PUBLIC	??_C@_0BP@NMOAPNH@HeadquartersOwnerWnd?3?3OnRender?$AA@ ; `string'
EXTRN	??1ioComplexStringPrinter@@QAE@XZ:PROC		; ioComplexStringPrinter::~ioComplexStringPrinter
EXTRN	?ClearList@ioComplexStringPrinter@@QAEXXZ:PROC	; ioComplexStringPrinter::ClearList
EXTRN	?PrintFullText@ioComplexStringPrinter@@QAEXMMW4TextAlignType@@E@Z:PROC ; ioComplexStringPrinter::PrintFullText
EXTRN	?AddTextPiece@ioComplexStringPrinter@@QAAXMPBDZZ:PROC ; ioComplexStringPrinter::AddTextPiece
EXTRN	?SetTextColor@ioComplexStringPrinter@@QAEXK@Z:PROC ; ioComplexStringPrinter::SetTextColor
EXTRN	?SetBkColor@ioComplexStringPrinter@@QAEXHHH@Z:PROC ; ioComplexStringPrinter::SetBkColor
EXTRN	?SetTextStyle@ioComplexStringPrinter@@QAEXW4TextStyle@@@Z:PROC ; ioComplexStringPrinter::SetTextStyle
EXTRN	??0ioComplexStringPrinter@@QAE@XZ:PROC		; ioComplexStringPrinter::ioComplexStringPrinter
;	COMDAT ??_C@_0BP@NMOAPNH@HeadquartersOwnerWnd?3?3OnRender?$AA@
CONST	SEGMENT
??_C@_0BP@NMOAPNH@HeadquartersOwnerWnd?3?3OnRender?$AA@ DB 'HeadquartersO'
	DB	'wnerWnd::OnRender', 00H			; `string'
CONST	ENDS
;	COMDAT xdata$x
xdata$x	SEGMENT
__unwindtable$?OnRender@HeadquartersOwnerWnd@@MAEXXZ DD 0ffffffffH
	DD	FLAT:__unwindfunclet$?OnRender@HeadquartersOwnerWnd@@MAEXXZ$0
__ehfuncinfo$?OnRender@HeadquartersOwnerWnd@@MAEXXZ DD 019930522H
	DD	01H
	DD	FLAT:__unwindtable$?OnRender@HeadquartersOwnerWnd@@MAEXXZ
	DD	2 DUP(00H)
	DD	2 DUP(00H)
	DD	00H
	DD	01H
; Function compile flags: /Ogsp
xdata$x	ENDS
;	COMDAT ?OnRender@HeadquartersOwnerWnd@@MAEXXZ
_TEXT	SEGMENT
_kPrinter$ = -52					; size = 32
tv227 = -20						; size = 4
_iXPos$ = -20						; size = 4
_iYPos$ = -16						; size = 4
__$EHRec$ = -12						; size = 12
?OnRender@HeadquartersOwnerWnd@@MAEXXZ PROC		; HeadquartersOwnerWnd::OnRender, COMDAT
; _this$ = ecx

; 1492 : {

  00000	6a 28		 push	 40			; 00000028H
  00002	b8 00 00 00 00	 mov	 eax, __ehhandler$?OnRender@HeadquartersOwnerWnd@@MAEXXZ
  00007	e8 00 00 00 00	 call	 __EH_prolog3
  0000c	8b f1		 mov	 esi, ecx

; 1493 : 	ioWnd::OnRender();

  0000e	ff 15 00 00 00
	00		 call	 DWORD PTR __imp_?OnRender@ioWnd@@MAEXXZ

; 1494 : 
; 1495 : 	int iXPos = GetDerivedPosX();

  00014	8b ce		 mov	 ecx, esi
  00016	ff 15 00 00 00
	00		 call	 DWORD PTR __imp_?GetDerivedPosX@ioWnd@@QBEHXZ

; 1496 : 	int iYPos = GetDerivedPosY();

  0001c	8b ce		 mov	 ecx, esi
  0001e	89 45 ec	 mov	 DWORD PTR _iXPos$[ebp], eax
  00021	ff 15 00 00 00
	00		 call	 DWORD PTR __imp_?GetDerivedPosY@ioWnd@@QBEHXZ

; 1497 : 
; 1498 : 	ioComplexStringPrinter kPrinter;

  00027	8d 4d cc	 lea	 ecx, DWORD PTR _kPrinter$[ebp]
  0002a	89 45 f0	 mov	 DWORD PTR _iYPos$[ebp], eax
  0002d	e8 00 00 00 00	 call	 ??0ioComplexStringPrinter@@QAE@XZ ; ioComplexStringPrinter::ioComplexStringPrinter
  00032	33 f6		 xor	 esi, esi

; 1499 : 	kPrinter.SetTextStyle( TS_NORMAL );

  00034	56		 push	 esi
  00035	8d 4d cc	 lea	 ecx, DWORD PTR _kPrinter$[ebp]
  00038	89 75 fc	 mov	 DWORD PTR __$EHRec$[ebp+8], esi
  0003b	e8 00 00 00 00	 call	 ?SetTextStyle@ioComplexStringPrinter@@QAEXW4TextStyle@@@Z ; ioComplexStringPrinter::SetTextStyle

; 1500 : 	kPrinter.SetBkColor( 0, 0, 0 );

  00040	56		 push	 esi
  00041	56		 push	 esi
  00042	56		 push	 esi
  00043	8d 4d cc	 lea	 ecx, DWORD PTR _kPrinter$[ebp]
  00046	e8 00 00 00 00	 call	 ?SetBkColor@ioComplexStringPrinter@@QAEXHHH@Z ; ioComplexStringPrinter::SetBkColor

; 1501 : 	kPrinter.SetTextColor( TCT_DEFAULT_DARKGRAY );

  0004b	68 3a 3a 3a ff	 push	 -12961222		; ff3a3a3aH
  00050	8d 4d cc	 lea	 ecx, DWORD PTR _kPrinter$[ebp]
  00053	e8 00 00 00 00	 call	 ?SetTextColor@ioComplexStringPrinter@@QAEXK@Z ; ioComplexStringPrinter::SetTextColor

; 1502 : 	kPrinter.AddTextPiece( FONT_SIZE_13, STR(1) );

  00058	56		 push	 esi
  00059	8b 35 00 00 00
	00		 mov	 esi, DWORD PTR __imp_?GetSingleton@ioStringManager@@SAAAV1@XZ
  0005f	6a 01		 push	 1
  00061	68 00 00 00 00	 push	 OFFSET ??_C@_00CNPNBAHC@?$AA@
  00066	bb 00 00 00 00	 mov	 ebx, OFFSET ??_C@_0BP@NMOAPNH@HeadquartersOwnerWnd?3?3OnRender?$AA@
  0006b	53		 push	 ebx
  0006c	ff d6		 call	 esi
  0006e	8b 3d 00 00 00
	00		 mov	 edi, DWORD PTR __imp_?GetString@ioStringManager@@QAEPADPBD0HW4FileNamePrefix@1@@Z
  00074	8b c8		 mov	 ecx, eax
  00076	ff d7		 call	 edi
  00078	f3 0f 10 05 00
	00 00 00	 movss	 xmm0, DWORD PTR __real@3f266666
  00080	50		 push	 eax
  00081	51		 push	 ecx
  00082	8d 45 cc	 lea	 eax, DWORD PTR _kPrinter$[ebp]
  00085	f3 0f 11 04 24	 movss	 DWORD PTR [esp], xmm0
  0008a	50		 push	 eax
  0008b	e8 00 00 00 00	 call	 ?AddTextPiece@ioComplexStringPrinter@@QAAXMPBDZZ ; ioComplexStringPrinter::AddTextPiece
  00090	83 c4 0c	 add	 esp, 12			; 0000000cH

; 1503 : 	kPrinter.SetTextColor( TCT_DEFAULT_GRAY );

  00093	68 6e 6e 6e ff	 push	 -9539986		; ff6e6e6eH
  00098	8d 4d cc	 lea	 ecx, DWORD PTR _kPrinter$[ebp]
  0009b	e8 00 00 00 00	 call	 ?SetTextColor@ioComplexStringPrinter@@QAEXK@Z ; ioComplexStringPrinter::SetTextColor

; 1504 : 	kPrinter.AddTextPiece( FONT_SIZE_13, STR(2) );

  000a0	6a 00		 push	 0
  000a2	6a 02		 push	 2
  000a4	68 00 00 00 00	 push	 OFFSET ??_C@_00CNPNBAHC@?$AA@
  000a9	53		 push	 ebx
  000aa	ff d6		 call	 esi
  000ac	8b c8		 mov	 ecx, eax
  000ae	ff d7		 call	 edi
  000b0	f3 0f 10 05 00
	00 00 00	 movss	 xmm0, DWORD PTR __real@3f266666
  000b8	50		 push	 eax
  000b9	51		 push	 ecx
  000ba	8d 45 cc	 lea	 eax, DWORD PTR _kPrinter$[ebp]
  000bd	f3 0f 11 04 24	 movss	 DWORD PTR [esp], xmm0
  000c2	50		 push	 eax
  000c3	e8 00 00 00 00	 call	 ?AddTextPiece@ioComplexStringPrinter@@QAAXMPBDZZ ; ioComplexStringPrinter::AddTextPiece

; 1505 : 	kPrinter.PrintFullText( iXPos + 37, iYPos + 57, TAT_LEFT );

  000c8	8b 45 ec	 mov	 eax, DWORD PTR _iXPos$[ebp]
  000cb	83 c4 0c	 add	 esp, 12			; 0000000cH
  000ce	83 c0 25	 add	 eax, 37			; 00000025H
  000d1	68 ff 00 00 00	 push	 255			; 000000ffH
  000d6	0f 57 c0	 xorps	 xmm0, xmm0
  000d9	f3 0f 2a c0	 cvtsi2ss xmm0, eax
  000dd	8b 45 f0	 mov	 eax, DWORD PTR _iYPos$[ebp]
  000e0	6a 00		 push	 0
  000e2	51		 push	 ecx
  000e3	51		 push	 ecx
  000e4	83 c0 39	 add	 eax, 57			; 00000039H
  000e7	0f 57 c9	 xorps	 xmm1, xmm1
  000ea	f3 0f 2a c8	 cvtsi2ss xmm1, eax
  000ee	f3 0f 11 4c 24
	04		 movss	 DWORD PTR [esp+4], xmm1
  000f4	8d 4d cc	 lea	 ecx, DWORD PTR _kPrinter$[ebp]
  000f7	f3 0f 11 45 ec	 movss	 DWORD PTR tv227[ebp], xmm0
  000fc	f3 0f 11 04 24	 movss	 DWORD PTR [esp], xmm0
  00101	e8 00 00 00 00	 call	 ?PrintFullText@ioComplexStringPrinter@@QAEXMMW4TextAlignType@@E@Z ; ioComplexStringPrinter::PrintFullText

; 1506 : 	kPrinter.ClearList();

  00106	8d 4d cc	 lea	 ecx, DWORD PTR _kPrinter$[ebp]
  00109	e8 00 00 00 00	 call	 ?ClearList@ioComplexStringPrinter@@QAEXXZ ; ioComplexStringPrinter::ClearList

; 1507 : 
; 1508 : 	kPrinter.SetTextStyle( TS_NORMAL );

  0010e	6a 00		 push	 0
  00110	8d 4d cc	 lea	 ecx, DWORD PTR _kPrinter$[ebp]
  00113	e8 00 00 00 00	 call	 ?SetTextStyle@ioComplexStringPrinter@@QAEXW4TextStyle@@@Z ; ioComplexStringPrinter::SetTextStyle

; 1509 : 	kPrinter.SetBkColor( 0, 0, 0 );

  00118	33 c0		 xor	 eax, eax
  0011a	50		 push	 eax
  0011b	50		 push	 eax
  0011c	50		 push	 eax
  0011d	8d 4d cc	 lea	 ecx, DWORD PTR _kPrinter$[ebp]
  00120	e8 00 00 00 00	 call	 ?SetBkColor@ioComplexStringPrinter@@QAEXHHH@Z ; ioComplexStringPrinter::SetBkColor

; 1510 : 	kPrinter.SetTextColor( TCT_DEFAULT_DARKGRAY );

  00125	68 3a 3a 3a ff	 push	 -12961222		; ff3a3a3aH
  0012a	8d 4d cc	 lea	 ecx, DWORD PTR _kPrinter$[ebp]
  0012d	e8 00 00 00 00	 call	 ?SetTextColor@ioComplexStringPrinter@@QAEXK@Z ; ioComplexStringPrinter::SetTextColor

; 1511 : 	kPrinter.AddTextPiece( FONT_SIZE_13, STR(3) );

  00132	6a 00		 push	 0
  00134	6a 03		 push	 3
  00136	68 00 00 00 00	 push	 OFFSET ??_C@_00CNPNBAHC@?$AA@
  0013b	53		 push	 ebx
  0013c	ff d6		 call	 esi
  0013e	8b c8		 mov	 ecx, eax
  00140	ff d7		 call	 edi
  00142	f3 0f 10 05 00
	00 00 00	 movss	 xmm0, DWORD PTR __real@3f266666
  0014a	50		 push	 eax
  0014b	51		 push	 ecx
  0014c	8d 45 cc	 lea	 eax, DWORD PTR _kPrinter$[ebp]
  0014f	f3 0f 11 04 24	 movss	 DWORD PTR [esp], xmm0
  00154	50		 push	 eax
  00155	e8 00 00 00 00	 call	 ?AddTextPiece@ioComplexStringPrinter@@QAAXMPBDZZ ; ioComplexStringPrinter::AddTextPiece
  0015a	83 c4 0c	 add	 esp, 12			; 0000000cH

; 1512 : 	kPrinter.SetTextColor( TCT_DEFAULT_GRAY );

  0015d	68 6e 6e 6e ff	 push	 -9539986		; ff6e6e6eH
  00162	8d 4d cc	 lea	 ecx, DWORD PTR _kPrinter$[ebp]
  00165	e8 00 00 00 00	 call	 ?SetTextColor@ioComplexStringPrinter@@QAEXK@Z ; ioComplexStringPrinter::SetTextColor

; 1513 : 	kPrinter.AddTextPiece( FONT_SIZE_13, STR(4) );

  0016a	6a 00		 push	 0
  0016c	6a 04		 push	 4
  0016e	68 00 00 00 00	 push	 OFFSET ??_C@_00CNPNBAHC@?$AA@
  00173	53		 push	 ebx
  00174	ff d6		 call	 esi
  00176	8b c8		 mov	 ecx, eax
  00178	ff d7		 call	 edi
  0017a	f3 0f 10 05 00
	00 00 00	 movss	 xmm0, DWORD PTR __real@3f266666
  00182	50		 push	 eax
  00183	51		 push	 ecx
  00184	8d 45 cc	 lea	 eax, DWORD PTR _kPrinter$[ebp]
  00187	f3 0f 11 04 24	 movss	 DWORD PTR [esp], xmm0
  0018c	50		 push	 eax
  0018d	e8 00 00 00 00	 call	 ?AddTextPiece@ioComplexStringPrinter@@QAAXMPBDZZ ; ioComplexStringPrinter::AddTextPiece

; 1514 : 	kPrinter.PrintFullText( iXPos + 37, iYPos + 79, TAT_LEFT );

  00192	8b 45 f0	 mov	 eax, DWORD PTR _iYPos$[ebp]
  00195	83 c4 0c	 add	 esp, 12			; 0000000cH
  00198	68 ff 00 00 00	 push	 255			; 000000ffH
  0019d	6a 00		 push	 0
  0019f	51		 push	 ecx
  001a0	51		 push	 ecx
  001a1	83 c0 4f	 add	 eax, 79			; 0000004fH
  001a4	0f 57 c0	 xorps	 xmm0, xmm0
  001a7	f3 0f 2a c0	 cvtsi2ss xmm0, eax
  001ab	f3 0f 11 44 24
	04		 movss	 DWORD PTR [esp+4], xmm0
  001b1	f3 0f 10 45 ec	 movss	 xmm0, DWORD PTR tv227[ebp]
  001b6	8d 4d cc	 lea	 ecx, DWORD PTR _kPrinter$[ebp]
  001b9	f3 0f 11 04 24	 movss	 DWORD PTR [esp], xmm0
  001be	e8 00 00 00 00	 call	 ?PrintFullText@ioComplexStringPrinter@@QAEXMMW4TextAlignType@@E@Z ; ioComplexStringPrinter::PrintFullText

; 1515 : 	kPrinter.ClearList();

  001c3	8d 4d cc	 lea	 ecx, DWORD PTR _kPrinter$[ebp]
  001c6	e8 00 00 00 00	 call	 ?ClearList@ioComplexStringPrinter@@QAEXXZ ; ioComplexStringPrinter::ClearList

; 1516 : }

  001cb	83 4d fc ff	 or	 DWORD PTR __$EHRec$[ebp+8], -1
  001cf	8d 4d cc	 lea	 ecx, DWORD PTR _kPrinter$[ebp]
  001d2	e8 00 00 00 00	 call	 ??1ioComplexStringPrinter@@QAE@XZ ; ioComplexStringPrinter::~ioComplexStringPrinter
  001d7	e8 00 00 00 00	 call	 __EH_epilog3
  001dc	c3		 ret	 0
_TEXT	ENDS
;	COMDAT text$x
text$x	SEGMENT
__unwindfunclet$?OnRender@HeadquartersOwnerWnd@@MAEXXZ$0:
  00000	8d 4d cc	 lea	 ecx, DWORD PTR _kPrinter$[ebp]
  00003	e9 00 00 00 00	 jmp	 ??1ioComplexStringPrinter@@QAE@XZ ; ioComplexStringPrinter::~ioComplexStringPrinter
__ehhandler$?OnRender@HeadquartersOwnerWnd@@MAEXXZ:
  00008	8b 54 24 08	 mov	 edx, DWORD PTR [esp+8]
  0000c	8d 42 0c	 lea	 eax, DWORD PTR [edx+12]
  0000f	8b 4a c8	 mov	 ecx, DWORD PTR [edx-56]
  00012	33 c8		 xor	 ecx, eax
  00014	e8 00 00 00 00	 call	 @__security_check_cookie@4
  00019	b8 00 00 00 00	 mov	 eax, OFFSET __ehfuncinfo$?OnRender@HeadquartersOwnerWnd@@MAEXXZ
  0001e	e9 00 00 00 00	 jmp	 ___CxxFrameHandler3
text$x	ENDS
?OnRender@HeadquartersOwnerWnd@@MAEXXZ ENDP		; HeadquartersOwnerWnd::OnRender
PUBLIC	??_7HeadquartersInviteList@@6B@			; HeadquartersInviteList::`vftable'
PUBLIC	??0HeadquartersInviteList@@QAE@XZ		; HeadquartersInviteList::HeadquartersInviteList
PUBLIC	??_R4HeadquartersInviteList@@6B@		; HeadquartersInviteList::`RTTI Complete Object Locator'
PUBLIC	??_R0?AVHeadquartersInviteList@@@8		; HeadquartersInviteList `RTTI Type Descriptor'
PUBLIC	??_R3HeadquartersInviteList@@8			; HeadquartersInviteList::`RTTI Class Hierarchy Descriptor'
PUBLIC	??_R2HeadquartersInviteList@@8			; HeadquartersInviteList::`RTTI Base Class Array'
PUBLIC	??_R1A@?0A@EA@HeadquartersInviteList@@8		; HeadquartersInviteList::`RTTI Base Class Descriptor at (0,-1,0,64)'
PUBLIC	??_R1A@?0A@EA@ioButton@@8			; ioButton::`RTTI Base Class Descriptor at (0,-1,0,64)'
PUBLIC	??_R0?AVioButton@@@8				; ioButton `RTTI Type Descriptor'
PUBLIC	??_R3ioButton@@8				; ioButton::`RTTI Class Hierarchy Descriptor'
PUBLIC	??_R2ioButton@@8				; ioButton::`RTTI Base Class Array'
PUBLIC	?AddRenderImage@HeadquartersInviteList@@MAEXABVioHashString@@PAVioUIRenderImage@@@Z ; HeadquartersInviteList::AddRenderImage
PUBLIC	?OnRender@HeadquartersInviteList@@MAEXXZ	; HeadquartersInviteList::OnRender
PUBLIC	?OnProcess@HeadquartersInviteList@@MAEXM@Z	; HeadquartersInviteList::OnProcess
PUBLIC	?iwm_command@HeadquartersInviteList@@UAEXPAVioWnd@@HK@Z ; HeadquartersInviteList::iwm_command
EXTRN	__imp_??1ioButton@@UAE@XZ:PROC
EXTRN	__imp_??0ioButton@@QAE@XZ:PROC
EXTRN	?AddRenderFrame@ioButton@@UAEXABVioHashString@@PAVioUIRenderFrame@@@Z:PROC ; ioButton::AddRenderFrame
EXTRN	?ParseExtraInfo@ioButton@@UAEXAAVioXMLElement@@@Z:PROC ; ioButton::ParseExtraInfo
EXTRN	?SetWindowAlpha@ioButton@@UAEXH@Z:PROC		; ioButton::SetWindowAlpha
EXTRN	?CheckFrameReSize@ioButton@@MAEXHHHH@Z:PROC	; ioButton::CheckFrameReSize
EXTRN	?iwm_lbuttondown@ioButton@@UAEXABVioMouse@@@Z:PROC ; ioButton::iwm_lbuttondown
EXTRN	?iwm_lbuttonup@ioButton@@UAEXABVioMouse@@@Z:PROC ; ioButton::iwm_lbuttonup
EXTRN	?iwm_lbuttonDBLCLK@ioButton@@UAEXABVioMouse@@@Z:PROC ; ioButton::iwm_lbuttonDBLCLK
EXTRN	?iwm_rbuttondown@ioButton@@UAEXABVioMouse@@@Z:PROC ; ioButton::iwm_rbuttondown
EXTRN	?iwm_rbuttonup@ioButton@@UAEXABVioMouse@@@Z:PROC ; ioButton::iwm_rbuttonup
EXTRN	?iwm_mouseover@ioButton@@UAEXABVioMouse@@@Z:PROC ; ioButton::iwm_mouseover
EXTRN	?iwm_show@ioWnd@@UAEXXZ:PROC			; ioWnd::iwm_show
EXTRN	?iwm_hide@ioWnd@@UAEXXZ:PROC			; ioWnd::iwm_hide
EXTRN	?GetWndType@ioButton@@UBEKXZ:PROC		; ioButton::GetWndType
EXTRN	?GetHeaderFileName@ioButton@@UAEPBDXZ:PROC	; ioButton::GetHeaderFileName
EXTRN	?GetTemplateName@ioButton@@UAEPBDXZ:PROC	; ioButton::GetTemplateName
EXTRN	?GetDefClassName@ioButton@@UBEPBDXZ:PROC	; ioButton::GetDefClassName
EXTRN	?_Clone@ioButton@@UAEPAVioWnd@@XZ:PROC		; ioButton::_Clone
EXTRN	?Copy@ioButton@@UAEXPAVioWnd@@@Z:PROC		; ioButton::Copy
EXTRN	?SetSaveData@ioButton@@UAEXAAVioXMLElement@@@Z:PROC ; ioButton::SetSaveData
EXTRN	?GetNumFixedRenderFrame@ioButton@@UBEHXZ:PROC	; ioButton::GetNumFixedRenderFrame
EXTRN	?GetFixedRenderFrameType@ioButton@@UAEPBDH@Z:PROC ; ioButton::GetFixedRenderFrameType
EXTRN	?GetRenderFrame@ioButton@@UAEPAPAVioUIRenderElement@@PBD@Z:PROC ; ioButton::GetRenderFrame
EXTRN	?GetNumFixedRenderImage@ioButton@@UBEHXZ:PROC	; ioButton::GetNumFixedRenderImage
EXTRN	?GetFixedRenderImageType@ioButton@@UAEPBDH@Z:PROC ; ioButton::GetFixedRenderImageType
EXTRN	?GetRenderImage@ioButton@@UAEPAPAVioUIRenderElement@@PBD@Z:PROC ; ioButton::GetRenderImage
EXTRN	??_EHeadquartersInviteList@@UAEPAXI@Z:PROC	; HeadquartersInviteList::`vector deleting destructor'
EXTRN	?OnDrawNormal@ioButton@@MAEXHH@Z:PROC		; ioButton::OnDrawNormal
EXTRN	?OnDrawOvered@ioButton@@MAEXHH@Z:PROC		; ioButton::OnDrawOvered
EXTRN	?OnDrawOveredAdd@ioButton@@MAEXHH@Z:PROC	; ioButton::OnDrawOveredAdd
EXTRN	?OnDrawPushed@ioButton@@MAEXHH@Z:PROC		; ioButton::OnDrawPushed
EXTRN	?OnDrawDisabled@ioButton@@MAEXHH@Z:PROC		; ioButton::OnDrawDisabled
EXTRN	?OnDrawExDisabledNormal@ioButton@@MAEXHH@Z:PROC	; ioButton::OnDrawExDisabledNormal
EXTRN	?OnDrawExDisabledOvered@ioButton@@MAEXHH@Z:PROC	; ioButton::OnDrawExDisabledOvered
EXTRN	?OnDrawExDisabledPushed@ioButton@@MAEXHH@Z:PROC	; ioButton::OnDrawExDisabledPushed
EXTRN	?OnDrawBack@ioButton@@MAEXHH@Z:PROC		; ioButton::OnDrawBack
EXTRN	?OnDrawNormalList@ioButton@@MAEXHH@Z:PROC	; ioButton::OnDrawNormalList
EXTRN	?OnDrawDisableList@ioButton@@MAEXHH@Z:PROC	; ioButton::OnDrawDisableList
;	COMDAT ??_R2ioButton@@8
rdata$r	SEGMENT
??_R2ioButton@@8 DD FLAT:??_R1A@?0A@EA@ioButton@@8	; ioButton::`RTTI Base Class Array'
	DD	FLAT:??_R1A@?0A@EA@ioWnd@@8
rdata$r	ENDS
;	COMDAT ??_R3ioButton@@8
rdata$r	SEGMENT
??_R3ioButton@@8 DD 00H					; ioButton::`RTTI Class Hierarchy Descriptor'
	DD	00H
	DD	02H
	DD	FLAT:??_R2ioButton@@8
rdata$r	ENDS
;	COMDAT ??_R0?AVioButton@@@8
_DATA	SEGMENT
??_R0?AVioButton@@@8 DD FLAT:??_7type_info@@6B@		; ioButton `RTTI Type Descriptor'
	DD	00H
	DB	'.?AVioButton@@', 00H
_DATA	ENDS
;	COMDAT ??_R1A@?0A@EA@ioButton@@8
rdata$r	SEGMENT
??_R1A@?0A@EA@ioButton@@8 DD FLAT:??_R0?AVioButton@@@8	; ioButton::`RTTI Base Class Descriptor at (0,-1,0,64)'
	DD	01H
	DD	00H
	DD	0ffffffffH
	DD	00H
	DD	040H
	DD	FLAT:??_R3ioButton@@8
rdata$r	ENDS
;	COMDAT ??_R1A@?0A@EA@HeadquartersInviteList@@8
rdata$r	SEGMENT
??_R1A@?0A@EA@HeadquartersInviteList@@8 DD FLAT:??_R0?AVHeadquartersInviteList@@@8 ; HeadquartersInviteList::`RTTI Base Class Descriptor at (0,-1,0,64)'
	DD	02H
	DD	00H
	DD	0ffffffffH
	DD	00H
	DD	040H
	DD	FLAT:??_R3HeadquartersInviteList@@8
rdata$r	ENDS
;	COMDAT ??_R2HeadquartersInviteList@@8
rdata$r	SEGMENT
??_R2HeadquartersInviteList@@8 DD FLAT:??_R1A@?0A@EA@HeadquartersInviteList@@8 ; HeadquartersInviteList::`RTTI Base Class Array'
	DD	FLAT:??_R1A@?0A@EA@ioButton@@8
	DD	FLAT:??_R1A@?0A@EA@ioWnd@@8
rdata$r	ENDS
;	COMDAT ??_R3HeadquartersInviteList@@8
rdata$r	SEGMENT
??_R3HeadquartersInviteList@@8 DD 00H			; HeadquartersInviteList::`RTTI Class Hierarchy Descriptor'
	DD	00H
	DD	03H
	DD	FLAT:??_R2HeadquartersInviteList@@8
rdata$r	ENDS
;	COMDAT ??_R0?AVHeadquartersInviteList@@@8
_DATA	SEGMENT
??_R0?AVHeadquartersInviteList@@@8 DD FLAT:??_7type_info@@6B@ ; HeadquartersInviteList `RTTI Type Descriptor'
	DD	00H
	DB	'.?AVHeadquartersInviteList@@', 00H
_DATA	ENDS
;	COMDAT ??_R4HeadquartersInviteList@@6B@
rdata$r	SEGMENT
??_R4HeadquartersInviteList@@6B@ DD 00H			; HeadquartersInviteList::`RTTI Complete Object Locator'
	DD	00H
	DD	00H
	DD	FLAT:??_R0?AVHeadquartersInviteList@@@8
	DD	FLAT:??_R3HeadquartersInviteList@@8
rdata$r	ENDS
;	COMDAT ??_7HeadquartersInviteList@@6B@
CONST	SEGMENT
??_7HeadquartersInviteList@@6B@ DD FLAT:??_R4HeadquartersInviteList@@6B@ ; HeadquartersInviteList::`vftable'
	DD	FLAT:?AddRenderFrame@ioButton@@UAEXABVioHashString@@PAVioUIRenderFrame@@@Z
	DD	FLAT:?AddRenderImage@HeadquartersInviteList@@MAEXABVioHashString@@PAVioUIRenderImage@@@Z
	DD	FLAT:?AddTooltipHelp@ioWnd@@UAEXABVioHashString@@00@Z
	DD	FLAT:?ParseExtraInfo@ioButton@@UAEXAAVioXMLElement@@@Z
	DD	FLAT:?AddNamedRenderImage@ioWnd@@UAEXABVioHashString@@PAVioUIRenderImage@@@Z
	DD	FLAT:?RemoveNamedRenderImage@ioWnd@@UAEXABVioHashString@@@Z
	DD	FLAT:?GetNamedRenderImage@ioWnd@@UBEPAVioUIRenderImage@@ABVioHashString@@@Z
	DD	FLAT:?SetWindowAlpha@ioButton@@UAEXH@Z
	DD	FLAT:?SetActive@ioWnd@@UAEXXZ
	DD	FLAT:?SetInActive@ioWnd@@UAEXXZ
	DD	FLAT:?ClearElementImageList@ioWnd@@UAEXXZ
	DD	FLAT:?SetSize@ioWnd@@UAEXHH@Z
	DD	FLAT:?SetPositionToDefault@ioWnd@@UAEXHH_N0@Z
	DD	FLAT:?IsNeedProcess@ioWnd@@UBE_NXZ
	DD	FLAT:?IsCanMouseReaction@ioWnd@@UBE_NXZ
	DD	FLAT:?AddChild@ioWnd@@UAEXPAV1@@Z
	DD	FLAT:?DeleteChild@ioWnd@@UAEXK@Z
	DD	FLAT:?DeleteAllChild@ioWnd@@UAEXXZ
	DD	FLAT:?OnRenderShowAndHide@ioWnd@@MAE_NXZ
	DD	FLAT:?OnRenderShowAndHideByDefault@ioWnd@@MAE_NK@Z
	DD	FLAT:?OnRenderShowAndHideByTop@ioWnd@@MAE_NK@Z
	DD	FLAT:?OnRenderShowAndHideByDown@ioWnd@@MAE_NK@Z
	DD	FLAT:?OnRender@HeadquartersInviteList@@MAEXXZ
	DD	FLAT:?OnRenderAfterChild@ioWnd@@MAEXXZ
	DD	FLAT:?OnProcess@HeadquartersInviteList@@MAEXM@Z
	DD	FLAT:?OnMouseProcess@ioWnd@@MAEXABVioMouse@@@Z
	DD	FLAT:?CheckFrameReSize@ioButton@@MAEXHHHH@Z
	DD	FLAT:?RenderImageList@ioWnd@@MAEXHHW4UIRenderType@@@Z
	DD	FLAT:?iwm_create@ioWnd@@UAEXXZ
	DD	FLAT:?iwm_destroy@ioWnd@@UAEXXZ
	DD	FLAT:?iwm_lbuttondown@ioButton@@UAEXABVioMouse@@@Z
	DD	FLAT:?iwm_lbuttonup@ioButton@@UAEXABVioMouse@@@Z
	DD	FLAT:?iwm_lbuttonDBLCLK@ioButton@@UAEXABVioMouse@@@Z
	DD	FLAT:?iwm_rbuttondown@ioButton@@UAEXABVioMouse@@@Z
	DD	FLAT:?iwm_rbuttonup@ioButton@@UAEXABVioMouse@@@Z
	DD	FLAT:?iwm_command@HeadquartersInviteList@@UAEXPAVioWnd@@HK@Z
	DD	FLAT:?iwm_mouseover@ioButton@@UAEXABVioMouse@@@Z
	DD	FLAT:?iwm_mousemove@ioWnd@@UAEXABVioMouse@@@Z
	DD	FLAT:?iwm_mouseleave@ioWnd@@UAEXABVioMouse@@@Z
	DD	FLAT:?iwm_vscroll@ioWnd@@UAEXKH@Z
	DD	FLAT:?iwm_wheel@ioWnd@@UAEXH@Z
	DD	FLAT:?iwm_show@ioWnd@@UAEXXZ
	DD	FLAT:?iwm_hide@ioWnd@@UAEXXZ
	DD	FLAT:?iwm_esc@ioWnd@@UAE_NXZ
	DD	FLAT:?iwm_spacebar@ioWnd@@UAE_NXZ
	DD	FLAT:?iwm_gototop@ioWnd@@UAEXXZ
	DD	FLAT:?iwm_dragenter@ioWnd@@UAE?AW4IWDropEffect@@PAVioDragItem@@ABVioMouse@@@Z
	DD	FLAT:?iwm_dragover@ioWnd@@UAE?AW4IWDropEffect@@PAVioDragItem@@ABVioMouse@@@Z
	DD	FLAT:?iwm_dragleave@ioWnd@@UAEXXZ
	DD	FLAT:?iwm_dropitem@ioWnd@@UAE_NPAVioDragItem@@ABVioMouse@@PAV1@@Z
	DD	FLAT:?iwm_dropdone@ioWnd@@UAEXPAVioDragItem@@PAV1@_N@Z
	DD	FLAT:?IsEXType@ioWnd@@UBE_NXZ
	DD	FLAT:?GetWndType@ioButton@@UBEKXZ
	DD	FLAT:?RenderWnd@ioWnd@@UAEXXZ
	DD	FLAT:?SetIDEX@ioWnd@@UAEXAAK_N@Z
	DD	FLAT:?ParseXML@ioWnd@@UAEXAAVioXMLElement@@@Z
	DD	FLAT:?GetHeaderFileName@ioButton@@UAEPBDXZ
	DD	FLAT:?GetTemplateName@ioButton@@UAEPBDXZ
	DD	FLAT:?GetDefClassName@ioButton@@UBEPBDXZ
	DD	FLAT:?_Clone@ioButton@@UAEPAVioWnd@@XZ
	DD	FLAT:?Copy@ioButton@@UAEXPAVioWnd@@@Z
	DD	FLAT:?Save@ioWnd@@UAE_NAAVioXMLElement@@@Z
	DD	FLAT:?SetSaveData@ioButton@@UAEXAAVioXMLElement@@@Z
	DD	FLAT:?SetPosX@ioWnd@@UAEXH@Z
	DD	FLAT:?SetPosY@ioWnd@@UAEXH@Z
	DD	FLAT:?SetWidth@ioWnd@@UAEXH@Z
	DD	FLAT:?SetHeight@ioWnd@@UAEXH@Z
	DD	FLAT:?GetNumFixedRenderFrame@ioButton@@UBEHXZ
	DD	FLAT:?GetFixedRenderFrameType@ioButton@@UAEPBDH@Z
	DD	FLAT:?GetRenderFrame@ioButton@@UAEPAPAVioUIRenderElement@@PBD@Z
	DD	FLAT:?GetNumFixedRenderImage@ioButton@@UBEHXZ
	DD	FLAT:?GetFixedRenderImageType@ioButton@@UAEPBDH@Z
	DD	FLAT:?GetRenderImage@ioButton@@UAEPAPAVioUIRenderElement@@PBD@Z
	DD	FLAT:?AddEffect@ioWnd@@UAEXABVioHashString@@PAVioUI3DEffectRender@@@Z
	DD	FLAT:?GetEffect@ioWnd@@UAEPAVioUI3DEffectRender@@VioHashString@@@Z
	DD	FLAT:??_EHeadquartersInviteList@@UAEPAXI@Z
	DD	FLAT:?OnDrawNormal@ioButton@@MAEXHH@Z
	DD	FLAT:?OnDrawOvered@ioButton@@MAEXHH@Z
	DD	FLAT:?OnDrawOveredAdd@ioButton@@MAEXHH@Z
	DD	FLAT:?OnDrawPushed@ioButton@@MAEXHH@Z
	DD	FLAT:?OnDrawDisabled@ioButton@@MAEXHH@Z
	DD	FLAT:?OnDrawExDisabledNormal@ioButton@@MAEXHH@Z
	DD	FLAT:?OnDrawExDisabledOvered@ioButton@@MAEXHH@Z
	DD	FLAT:?OnDrawExDisabledPushed@ioButton@@MAEXHH@Z
	DD	FLAT:?OnDrawBack@ioButton@@MAEXHH@Z
	DD	FLAT:?OnDrawNormalList@ioButton@@MAEXHH@Z
	DD	FLAT:?OnDrawDisableList@ioButton@@MAEXHH@Z
CONST	ENDS
;	COMDAT xdata$x
xdata$x	SEGMENT
__unwindtable$??0HeadquartersInviteList@@QAE@XZ DD 0ffffffffH
	DD	FLAT:__unwindfunclet$??0HeadquartersInviteList@@QAE@XZ$0
__ehfuncinfo$??0HeadquartersInviteList@@QAE@XZ DD 019930522H
	DD	01H
	DD	FLAT:__unwindtable$??0HeadquartersInviteList@@QAE@XZ
	DD	2 DUP(00H)
	DD	2 DUP(00H)
	DD	00H
	DD	01H
; Function compile flags: /Ogsp
xdata$x	ENDS
;	COMDAT ??0HeadquartersInviteList@@QAE@XZ
_TEXT	SEGMENT
_this$ = -16						; size = 4
__$EHRec$ = -12						; size = 12
??0HeadquartersInviteList@@QAE@XZ PROC			; HeadquartersInviteList::HeadquartersInviteList, COMDAT
; _this$ = ecx

; 1519 : {

  00000	6a 04		 push	 4
  00002	b8 00 00 00 00	 mov	 eax, __ehhandler$??0HeadquartersInviteList@@QAE@XZ
  00007	e8 00 00 00 00	 call	 __EH_prolog3
  0000c	8b f1		 mov	 esi, ecx
  0000e	89 75 f0	 mov	 DWORD PTR _this$[ebp], esi
  00011	ff 15 00 00 00
	00		 call	 DWORD PTR __imp_??0ioButton@@QAE@XZ
  00017	33 ff		 xor	 edi, edi
  00019	8d 8e 08 02 00
	00		 lea	 ecx, DWORD PTR [esi+520]
  0001f	89 7d fc	 mov	 DWORD PTR __$EHRec$[ebp+8], edi
  00022	c7 06 00 00 00
	00		 mov	 DWORD PTR [esi], OFFSET ??_7HeadquartersInviteList@@6B@
  00028	ff 15 00 00 00
	00		 call	 DWORD PTR __imp_??0ioHashString@@QAE@XZ

; 1520 : 	m_bInviteActive = true;

  0002e	c6 86 20 02 00
	00 01		 mov	 BYTE PTR [esi+544], 1

; 1521 : 	m_iGradeLevel = 0;

  00035	89 be 04 02 00
	00		 mov	 DWORD PTR [esi+516], edi

; 1522 : 	m_dwGuildIndex = 0;

  0003b	89 be 18 02 00
	00		 mov	 DWORD PTR [esi+536], edi

; 1523 : 	m_dwGuildMark  = 0;

  00041	89 be 1c 02 00
	00		 mov	 DWORD PTR [esi+540], edi

; 1524 : 
; 1525 : 	m_pGuildMark	= NULL;

  00047	89 be fc 01 00
	00		 mov	 DWORD PTR [esi+508], edi

; 1526 : 	m_pFriendMark	= NULL;

  0004d	89 be 00 02 00
	00		 mov	 DWORD PTR [esi+512], edi

; 1527 : }

  00053	8b c6		 mov	 eax, esi
  00055	e8 00 00 00 00	 call	 __EH_epilog3
  0005a	c3		 ret	 0
_TEXT	ENDS
;	COMDAT text$x
text$x	SEGMENT
__unwindfunclet$??0HeadquartersInviteList@@QAE@XZ$0:
  00000	8b 4d f0	 mov	 ecx, DWORD PTR _this$[ebp]
  00003	ff 25 00 00 00
	00		 jmp	 DWORD PTR __imp_??1ioButton@@UAE@XZ
__ehhandler$??0HeadquartersInviteList@@QAE@XZ:
  00009	8b 54 24 08	 mov	 edx, DWORD PTR [esp+8]
  0000d	8d 42 0c	 lea	 eax, DWORD PTR [edx+12]
  00010	8b 4a ec	 mov	 ecx, DWORD PTR [edx-20]
  00013	33 c8		 xor	 ecx, eax
  00015	e8 00 00 00 00	 call	 @__security_check_cookie@4
  0001a	b8 00 00 00 00	 mov	 eax, OFFSET __ehfuncinfo$??0HeadquartersInviteList@@QAE@XZ
  0001f	e9 00 00 00 00	 jmp	 ___CxxFrameHandler3
text$x	ENDS
??0HeadquartersInviteList@@QAE@XZ ENDP			; HeadquartersInviteList::HeadquartersInviteList
PUBLIC	??1HeadquartersInviteList@@UAE@XZ		; HeadquartersInviteList::~HeadquartersInviteList
;	COMDAT xdata$x
xdata$x	SEGMENT
__unwindtable$??1HeadquartersInviteList@@UAE@XZ DD 0ffffffffH
	DD	FLAT:__unwindfunclet$??1HeadquartersInviteList@@UAE@XZ$0
	DD	00H
	DD	FLAT:__unwindfunclet$??1HeadquartersInviteList@@UAE@XZ$1
__ehfuncinfo$??1HeadquartersInviteList@@UAE@XZ DD 019930522H
	DD	02H
	DD	FLAT:__unwindtable$??1HeadquartersInviteList@@UAE@XZ
	DD	2 DUP(00H)
	DD	2 DUP(00H)
	DD	00H
	DD	01H
; Function compile flags: /Ogsp
xdata$x	ENDS
;	COMDAT ??1HeadquartersInviteList@@UAE@XZ
_TEXT	SEGMENT
_this$ = -16						; size = 4
__$EHRec$ = -12						; size = 12
??1HeadquartersInviteList@@UAE@XZ PROC			; HeadquartersInviteList::~HeadquartersInviteList, COMDAT
; _this$ = ecx

; 1530 : {

  00000	6a 04		 push	 4
  00002	b8 00 00 00 00	 mov	 eax, __ehhandler$??1HeadquartersInviteList@@UAE@XZ
  00007	e8 00 00 00 00	 call	 __EH_prolog3
  0000c	8b f1		 mov	 esi, ecx
  0000e	89 75 f0	 mov	 DWORD PTR _this$[ebp], esi
  00011	c7 06 00 00 00
	00		 mov	 DWORD PTR [esi], OFFSET ??_7HeadquartersInviteList@@6B@

; 1531 : 	SAFEDELETE( m_pGuildMark );

  00017	8b 8e fc 01 00
	00		 mov	 ecx, DWORD PTR [esi+508]
  0001d	c7 45 fc 01 00
	00 00		 mov	 DWORD PTR __$EHRec$[ebp+8], 1
  00024	85 c9		 test	 ecx, ecx
  00026	74 0e		 je	 SHORT $LN2@Headquarte@2
  00028	8b 01		 mov	 eax, DWORD PTR [ecx]
  0002a	6a 01		 push	 1
  0002c	ff 50 40	 call	 DWORD PTR [eax+64]
  0002f	83 a6 fc 01 00
	00 00		 and	 DWORD PTR [esi+508], 0
$LN2@Headquarte@2:

; 1532 : 	SAFEDELETE( m_pFriendMark );

  00036	8b 8e 00 02 00
	00		 mov	 ecx, DWORD PTR [esi+512]
  0003c	85 c9		 test	 ecx, ecx
  0003e	74 0e		 je	 SHORT $LN1@Headquarte@2
  00040	8b 01		 mov	 eax, DWORD PTR [ecx]
  00042	6a 01		 push	 1
  00044	ff 50 40	 call	 DWORD PTR [eax+64]
  00047	83 a6 00 02 00
	00 00		 and	 DWORD PTR [esi+512], 0
$LN1@Headquarte@2:

; 1533 : }

  0004e	8d 8e 08 02 00
	00		 lea	 ecx, DWORD PTR [esi+520]
  00054	c6 45 fc 00	 mov	 BYTE PTR __$EHRec$[ebp+8], 0
  00058	ff 15 00 00 00
	00		 call	 DWORD PTR __imp_??1ioHashString@@QAE@XZ
  0005e	83 4d fc ff	 or	 DWORD PTR __$EHRec$[ebp+8], -1
  00062	8b ce		 mov	 ecx, esi
  00064	ff 15 00 00 00
	00		 call	 DWORD PTR __imp_??1ioButton@@UAE@XZ
  0006a	e8 00 00 00 00	 call	 __EH_epilog3
  0006f	c3		 ret	 0
_TEXT	ENDS
;	COMDAT text$x
text$x	SEGMENT
__unwindfunclet$??1HeadquartersInviteList@@UAE@XZ$0:
  00000	8b 4d f0	 mov	 ecx, DWORD PTR _this$[ebp]
  00003	ff 25 00 00 00
	00		 jmp	 DWORD PTR __imp_??1ioButton@@UAE@XZ
__unwindfunclet$??1HeadquartersInviteList@@UAE@XZ$1:
  00009	8b 4d f0	 mov	 ecx, DWORD PTR _this$[ebp]
  0000c	81 c1 08 02 00
	00		 add	 ecx, 520		; 00000208H
  00012	ff 25 00 00 00
	00		 jmp	 DWORD PTR __imp_??1ioHashString@@QAE@XZ
__ehhandler$??1HeadquartersInviteList@@UAE@XZ:
  00018	8b 54 24 08	 mov	 edx, DWORD PTR [esp+8]
  0001c	8d 42 0c	 lea	 eax, DWORD PTR [edx+12]
  0001f	8b 4a ec	 mov	 ecx, DWORD PTR [edx-20]
  00022	33 c8		 xor	 ecx, eax
  00024	e8 00 00 00 00	 call	 @__security_check_cookie@4
  00029	b8 00 00 00 00	 mov	 eax, OFFSET __ehfuncinfo$??1HeadquartersInviteList@@UAE@XZ
  0002e	e9 00 00 00 00	 jmp	 ___CxxFrameHandler3
text$x	ENDS
??1HeadquartersInviteList@@UAE@XZ ENDP			; HeadquartersInviteList::~HeadquartersInviteList
PUBLIC	?InviteInfo@HeadquartersInviteList@@QAEXHVioHashString@@KK_N@Z ; HeadquartersInviteList::InviteInfo
EXTRN	__imp_?ShowChildWnd@ioWnd@@QAEXK_N@Z:PROC
EXTRN	__imp_?HideChildWnd@ioWnd@@QAEXK_N@Z:PROC
;	COMDAT xdata$x
xdata$x	SEGMENT
__unwindtable$?InviteInfo@HeadquartersInviteList@@QAEXHVioHashString@@KK_N@Z DD 0ffffffffH
	DD	FLAT:__unwindfunclet$?InviteInfo@HeadquartersInviteList@@QAEXHVioHashString@@KK_N@Z$0
__ehfuncinfo$?InviteInfo@HeadquartersInviteList@@QAEXHVioHashString@@KK_N@Z DD 019930522H
	DD	01H
	DD	FLAT:__unwindtable$?InviteInfo@HeadquartersInviteList@@QAEXHVioHashString@@KK_N@Z
	DD	2 DUP(00H)
	DD	2 DUP(00H)
	DD	00H
	DD	01H
; Function compile flags: /Ogsp
xdata$x	ENDS
;	COMDAT ?InviteInfo@HeadquartersInviteList@@QAEXHVioHashString@@KK_N@Z
_TEXT	SEGMENT
__$EHRec$ = -12						; size = 12
_iGradeLevel$ = 8					; size = 4
_szName$ = 12						; size = 16
_dwGuildIndex$ = 28					; size = 4
_dwGUildMark$ = 32					; size = 4
_bActive$ = 36						; size = 1
?InviteInfo@HeadquartersInviteList@@QAEXHVioHashString@@KK_N@Z PROC ; HeadquartersInviteList::InviteInfo, COMDAT
; _this$ = ecx

; 1554 : {

  00000	6a 00		 push	 0
  00002	b8 00 00 00 00	 mov	 eax, __ehhandler$?InviteInfo@HeadquartersInviteList@@QAEXHVioHashString@@KK_N@Z
  00007	e8 00 00 00 00	 call	 __EH_prolog3
  0000c	8b f1		 mov	 esi, ecx

; 1555 : 	m_bInviteActive = bActive;

  0000e	8a 45 24	 mov	 al, BYTE PTR _bActive$[ebp]
  00011	83 65 fc 00	 and	 DWORD PTR __$EHRec$[ebp+8], 0
  00015	88 86 20 02 00
	00		 mov	 BYTE PTR [esi+544], al

; 1556 : 	m_iGradeLevel   = iGradeLevel;

  0001b	8b 45 08	 mov	 eax, DWORD PTR _iGradeLevel$[ebp]
  0001e	89 86 04 02 00
	00		 mov	 DWORD PTR [esi+516], eax

; 1557 : 	m_dwGuildIndex  = dwGuildIndex;

  00024	8b 45 1c	 mov	 eax, DWORD PTR _dwGuildIndex$[ebp]
  00027	89 86 18 02 00
	00		 mov	 DWORD PTR [esi+536], eax

; 1558 : 	m_dwGuildMark   = dwGUildMark;

  0002d	8b 45 20	 mov	 eax, DWORD PTR _dwGUildMark$[ebp]
  00030	89 86 1c 02 00
	00		 mov	 DWORD PTR [esi+540], eax

; 1559 : 	m_szName        = szName;

  00036	8d 45 0c	 lea	 eax, DWORD PTR _szName$[ebp]
  00039	50		 push	 eax
  0003a	8d 8e 08 02 00
	00		 lea	 ecx, DWORD PTR [esi+520]
  00040	ff 15 00 00 00
	00		 call	 DWORD PTR __imp_??4ioHashString@@QAEAAV0@ABV0@@Z

; 1560 : 
; 1561 : 	HideChildWnd( ID_INVITE_BTN );

  00046	8b 3d 00 00 00
	00		 mov	 edi, DWORD PTR __imp_?HideChildWnd@ioWnd@@QAEXK_N@Z
  0004c	6a 00		 push	 0
  0004e	6a 01		 push	 1
  00050	8b ce		 mov	 ecx, esi
  00052	ff d7		 call	 edi

; 1562 : 	if( !szName.IsEmpty() )

  00054	8d 4d 0c	 lea	 ecx, DWORD PTR _szName$[ebp]
  00057	ff 15 00 00 00
	00		 call	 DWORD PTR __imp_?IsEmpty@ioHashString@@QBE_NXZ
  0005d	8b 1d 00 00 00
	00		 mov	 ebx, DWORD PTR __imp_?ShowChildWnd@ioWnd@@QAEXK_N@Z

; 1563 : 	{
; 1564 : 		ShowChildWnd( ID_INVITE_BTN );

  00063	8b ce		 mov	 ecx, esi
  00065	84 c0		 test	 al, al
  00067	75 0f		 jne	 SHORT $LN4@InviteInfo
  00069	6a 00		 push	 0
  0006b	6a 01		 push	 1
  0006d	ff d3		 call	 ebx

; 1565 : 		SetActive();

  0006f	8b 06		 mov	 eax, DWORD PTR [esi]
  00071	8b ce		 mov	 ecx, esi
  00073	ff 50 20	 call	 DWORD PTR [eax+32]

; 1566 : 	}
; 1567 : 	else

  00076	eb 05		 jmp	 SHORT $LN3@InviteInfo
$LN4@InviteInfo:

; 1568 : 	{
; 1569 : 		SetInActive();

  00078	8b 06		 mov	 eax, DWORD PTR [esi]
  0007a	ff 50 24	 call	 DWORD PTR [eax+36]
$LN3@InviteInfo:

; 1570 : 	}
; 1571 : 
; 1572 : 	if( !m_bInviteActive )

  0007d	80 be 20 02 00
	00 00		 cmp	 BYTE PTR [esi+544], 0

; 1573 : 	{
; 1574 : 		HideChildWnd( ID_INVITE_BTN );

  00084	6a 00		 push	 0
  00086	8b ce		 mov	 ecx, esi
  00088	6a 01		 push	 1
  0008a	75 04		 jne	 SHORT $LN2@InviteInfo
  0008c	ff d7		 call	 edi

; 1575 : 	}
; 1576 : 	else

  0008e	eb 02		 jmp	 SHORT $LN1@InviteInfo
$LN2@InviteInfo:

; 1577 : 	{
; 1578 : 		ShowChildWnd( ID_INVITE_BTN );

  00090	ff d3		 call	 ebx
$LN1@InviteInfo:

; 1579 : 	}
; 1580 : }

  00092	83 4d fc ff	 or	 DWORD PTR __$EHRec$[ebp+8], -1
  00096	8d 4d 0c	 lea	 ecx, DWORD PTR _szName$[ebp]
  00099	ff 15 00 00 00
	00		 call	 DWORD PTR __imp_??1ioHashString@@QAE@XZ
  0009f	e8 00 00 00 00	 call	 __EH_epilog3
  000a4	c2 20 00	 ret	 32			; 00000020H
_TEXT	ENDS
;	COMDAT text$x
text$x	SEGMENT
__unwindfunclet$?InviteInfo@HeadquartersInviteList@@QAEXHVioHashString@@KK_N@Z$0:
  00000	8d 4d 0c	 lea	 ecx, DWORD PTR _szName$[ebp]
  00003	ff 25 00 00 00
	00		 jmp	 DWORD PTR __imp_??1ioHashString@@QAE@XZ
__ehhandler$?InviteInfo@HeadquartersInviteList@@QAEXHVioHashString@@KK_N@Z:
  00009	8b 54 24 08	 mov	 edx, DWORD PTR [esp+8]
  0000d	8d 42 0c	 lea	 eax, DWORD PTR [edx+12]
  00010	8b 4a f0	 mov	 ecx, DWORD PTR [edx-16]
  00013	33 c8		 xor	 ecx, eax
  00015	e8 00 00 00 00	 call	 @__security_check_cookie@4
  0001a	b8 00 00 00 00	 mov	 eax, OFFSET __ehfuncinfo$?InviteInfo@HeadquartersInviteList@@QAEXHVioHashString@@KK_N@Z
  0001f	e9 00 00 00 00	 jmp	 ___CxxFrameHandler3
text$x	ENDS
?InviteInfo@HeadquartersInviteList@@QAEXHVioHashString@@KK_N@Z ENDP ; HeadquartersInviteList::InviteInfo
EXTRN	?IsFriend@ioFriendManager@@QAE_NVioHashString@@@Z:PROC ; ioFriendManager::IsFriend
EXTRN	?GetSingleton@ioFriendManager@@SAAAV1@XZ:PROC	; ioFriendManager::GetSingleton
EXTRN	__imp_??0ioHashString@@QAE@ABV0@@Z:PROC
EXTRN	?IsMyGuildUser@ioGuildInfo@@QAE_NABVioHashString@@@Z:PROC ; ioGuildInfo::IsMyGuildUser
EXTRN	?GetSingleton@ioGuildInfo@@SAAAV1@XZ:PROC	; ioGuildInfo::GetSingleton
EXTRN	?RenderSmallMark@ioGuildMarkMgr@@QAEXKKMMW4UIRenderType@@@Z:PROC ; ioGuildMarkMgr::RenderSmallMark
EXTRN	?GetSingleton@ioGuildMarkMgr@@SAAAV1@XZ:PROC	; ioGuildMarkMgr::GetSingleton
EXTRN	__imp_?GetTextWidthCutSize@ioFontManager@@QAEMPBDW4TextStyle@@MM@Z:PROC
EXTRN	?RenderGrade@ioMyLevelMgr@@QAEXABVioHashString@@HHKW4TeamType@@W4UIRenderType@@K@Z:PROC ; ioMyLevelMgr::RenderGrade
EXTRN	__imp_?OnRender@ioButton@@MAEXXZ:PROC
EXTRN	__ftol2_sse:PROC
;	COMDAT xdata$x
xdata$x	SEGMENT
__unwindtable$?OnRender@HeadquartersInviteList@@MAEXXZ DD 0ffffffffH
	DD	FLAT:__unwindfunclet$?OnRender@HeadquartersInviteList@@MAEXXZ$0
__ehfuncinfo$?OnRender@HeadquartersInviteList@@MAEXXZ DD 019930522H
	DD	01H
	DD	FLAT:__unwindtable$?OnRender@HeadquartersInviteList@@MAEXXZ
	DD	2 DUP(00H)
	DD	2 DUP(00H)
	DD	00H
	DD	01H
; Function compile flags: /Ogsp
xdata$x	ENDS
;	COMDAT ?OnRender@HeadquartersInviteList@@MAEXXZ
_TEXT	SEGMENT
tv336 = -24						; size = 4
$T528319 = -20						; size = 4
_iYPos$522027 = -20					; size = 4
_iXPos$522026 = -16					; size = 4
__$EHRec$ = -12						; size = 12
?OnRender@HeadquartersInviteList@@MAEXXZ PROC		; HeadquartersInviteList::OnRender, COMDAT
; _this$ = ecx

; 1631 : {

  00000	6a 0c		 push	 12			; 0000000cH
  00002	b8 00 00 00 00	 mov	 eax, __ehhandler$?OnRender@HeadquartersInviteList@@MAEXXZ
  00007	e8 00 00 00 00	 call	 __EH_prolog3
  0000c	8b f9		 mov	 edi, ecx

; 1632 : 	ioButton::OnRender();

  0000e	ff 15 00 00 00
	00		 call	 DWORD PTR __imp_?OnRender@ioButton@@MAEXXZ

; 1633 : 
; 1634 : 	if( !m_szName.IsEmpty() )

  00014	8d 8f 08 02 00
	00		 lea	 ecx, DWORD PTR [edi+520]
  0001a	ff 15 00 00 00
	00		 call	 DWORD PTR __imp_?IsEmpty@ioHashString@@QBE_NXZ
  00020	84 c0		 test	 al, al
  00022	0f 85 46 02 00
	00		 jne	 $LN1@OnRender@2

; 1635 : 	{
; 1636 : 		int iXPos = GetDerivedPosX();

  00028	8b cf		 mov	 ecx, edi
  0002a	ff 15 00 00 00
	00		 call	 DWORD PTR __imp_?GetDerivedPosX@ioWnd@@QBEHXZ

; 1637 : 		int iYPos = GetDerivedPosY();

  00030	8b cf		 mov	 ecx, edi
  00032	89 45 f0	 mov	 DWORD PTR _iXPos$522026[ebp], eax
  00035	ff 15 00 00 00
	00		 call	 DWORD PTR __imp_?GetDerivedPosY@ioWnd@@QBEHXZ

; 1638 : 
; 1639 : 		g_FontMgr.SetBkColor( 0, 0, 0 );

  0003b	8b 35 00 00 00
	00		 mov	 esi, DWORD PTR __imp_?GetSingleton@ioFontManager@@SAAAV1@XZ
  00041	33 db		 xor	 ebx, ebx
  00043	53		 push	 ebx
  00044	53		 push	 ebx
  00045	53		 push	 ebx
  00046	89 45 ec	 mov	 DWORD PTR _iYPos$522027[ebp], eax
  00049	ff d6		 call	 esi
  0004b	8b c8		 mov	 ecx, eax
  0004d	ff 15 00 00 00
	00		 call	 DWORD PTR __imp_?SetBkColor@ioFontManager@@QAEXHHH@Z

; 1640 : 		g_FontMgr.SetTextStyle( TS_NORMAL );

  00053	53		 push	 ebx
  00054	ff d6		 call	 esi
  00056	8b c8		 mov	 ecx, eax
  00058	ff 15 00 00 00
	00		 call	 DWORD PTR __imp_?SetTextStyle@ioFontManager@@QAEXW4TextStyle@@@Z

; 1641 : 		g_FontMgr.SetAlignType( TAT_LEFT );

  0005e	53		 push	 ebx
  0005f	ff d6		 call	 esi
  00061	8b c8		 mov	 ecx, eax
  00063	ff 15 00 00 00
	00		 call	 DWORD PTR __imp_?SetAlignType@ioFontManager@@QAEXW4TextAlignType@@@Z

; 1642 : 
; 1643 : 		if( m_bOver || m_bClicked )

  00069	38 9f a8 00 00
	00		 cmp	 BYTE PTR [edi+168], bl
  0006f	75 45		 jne	 SHORT $LN6@OnRender@2
  00071	38 9f a6 00 00
	00		 cmp	 BYTE PTR [edi+166], bl
  00077	75 3d		 jne	 SHORT $LN6@OnRender@2

; 1647 : 		}
; 1648 : 		else
; 1649 : 		{
; 1650 : 			g_LevelMgr.RenderGrade( m_szName, iXPos + 4, iYPos + 2, m_iGradeLevel, TEAM_PRIVATE_1 );

  00079	8b 45 ec	 mov	 eax, DWORD PTR _iYPos$522027[ebp]
  0007c	6a ff		 push	 -1
  0007e	53		 push	 ebx
  0007f	6a 03		 push	 3
  00081	ff b7 04 02 00
	00		 push	 DWORD PTR [edi+516]
  00087	83 c0 02	 add	 eax, 2
  0008a	50		 push	 eax
  0008b	8b 45 f0	 mov	 eax, DWORD PTR _iXPos$522026[ebp]
  0008e	83 c0 04	 add	 eax, 4
  00091	50		 push	 eax
  00092	8d 87 08 02 00
	00		 lea	 eax, DWORD PTR [edi+520]
  00098	50		 push	 eax
  00099	e8 00 00 00 00	 call	 ?GetSingleton@ioMyLevelMgr@@SAAAV1@XZ ; ioMyLevelMgr::GetSingleton
  0009e	8b c8		 mov	 ecx, eax
  000a0	e8 00 00 00 00	 call	 ?RenderGrade@ioMyLevelMgr@@QAEXABVioHashString@@HHKW4TeamType@@W4UIRenderType@@K@Z ; ioMyLevelMgr::RenderGrade

; 1651 : 			g_FontMgr.SetTextColor( TCT_DEFAULT_DARKGRAY );

  000a5	68 3a 3a 3a ff	 push	 -12961222		; ff3a3a3aH
  000aa	ff d6		 call	 esi
  000ac	8b c8		 mov	 ecx, eax
  000ae	ff 15 00 00 00
	00		 call	 DWORD PTR __imp_?SetTextColor@ioFontManager@@QAEXK@Z
  000b4	eb 42		 jmp	 SHORT $LN5@OnRender@2
$LN6@OnRender@2:

; 1644 : 		{
; 1645 : 			g_LevelMgr.RenderGrade( m_szName, iXPos + 4, iYPos + 2, m_iGradeLevel, TEAM_PRIVATE_1, UI_RENDER_NORMAL_ADD_COLOR, RGB( 255, 255, 255 ) );

  000b6	8b 45 ec	 mov	 eax, DWORD PTR _iYPos$522027[ebp]
  000b9	68 ff ff ff 00	 push	 16777215		; 00ffffffH
  000be	6a 04		 push	 4
  000c0	6a 03		 push	 3
  000c2	ff b7 04 02 00
	00		 push	 DWORD PTR [edi+516]
  000c8	83 c0 02	 add	 eax, 2
  000cb	50		 push	 eax
  000cc	8b 45 f0	 mov	 eax, DWORD PTR _iXPos$522026[ebp]
  000cf	83 c0 04	 add	 eax, 4
  000d2	50		 push	 eax
  000d3	8d 87 08 02 00
	00		 lea	 eax, DWORD PTR [edi+520]
  000d9	50		 push	 eax
  000da	e8 00 00 00 00	 call	 ?GetSingleton@ioMyLevelMgr@@SAAAV1@XZ ; ioMyLevelMgr::GetSingleton
  000df	8b c8		 mov	 ecx, eax
  000e1	e8 00 00 00 00	 call	 ?RenderGrade@ioMyLevelMgr@@QAEXABVioHashString@@HHKW4TeamType@@W4UIRenderType@@K@Z ; ioMyLevelMgr::RenderGrade

; 1646 : 			g_FontMgr.SetTextColor( 255, 255, 255 );

  000e6	b8 ff 00 00 00	 mov	 eax, 255		; 000000ffH
  000eb	50		 push	 eax
  000ec	50		 push	 eax
  000ed	50		 push	 eax
  000ee	ff d6		 call	 esi
  000f0	8b c8		 mov	 ecx, eax
  000f2	ff 15 00 00 00
	00		 call	 DWORD PTR __imp_?SetTextColor@ioFontManager@@QAEXHHH@Z
$LN5@OnRender@2:

; 1652 : 		}
; 1653 : 		g_FontMgr.PrintTextWidthCut( iXPos + 23, iYPos + 3, FONT_SIZE_12, 133.0f, m_szName.c_str() );

  000f8	8b 45 ec	 mov	 eax, DWORD PTR _iYPos$522027[ebp]
  000fb	83 c0 03	 add	 eax, 3
  000fe	0f 57 c0	 xorps	 xmm0, xmm0
  00101	f3 0f 2a c0	 cvtsi2ss xmm0, eax
  00105	8d 8f 08 02 00
	00		 lea	 ecx, DWORD PTR [edi+520]
  0010b	f3 0f 11 45 e8	 movss	 DWORD PTR tv336[ebp], xmm0
  00110	ff 15 00 00 00
	00		 call	 DWORD PTR __imp_?c_str@ioHashString@@QBEPBDXZ
  00116	f3 0f 10 05 00
	00 00 00	 movss	 xmm0, DWORD PTR __real@43050000
  0011e	50		 push	 eax
  0011f	8b 45 f0	 mov	 eax, DWORD PTR _iXPos$522026[ebp]
  00122	83 ec 10	 sub	 esp, 16			; 00000010H
  00125	f3 0f 11 44 24
	0c		 movss	 DWORD PTR [esp+12], xmm0
  0012b	f3 0f 10 05 00
	00 00 00	 movss	 xmm0, DWORD PTR __real@3f19999a
  00133	f3 0f 11 44 24
	08		 movss	 DWORD PTR [esp+8], xmm0
  00139	f3 0f 10 45 e8	 movss	 xmm0, DWORD PTR tv336[ebp]
  0013e	f3 0f 11 44 24
	04		 movss	 DWORD PTR [esp+4], xmm0
  00144	83 c0 17	 add	 eax, 23			; 00000017H
  00147	0f 57 c0	 xorps	 xmm0, xmm0
  0014a	f3 0f 2a c0	 cvtsi2ss xmm0, eax
  0014e	f3 0f 11 04 24	 movss	 DWORD PTR [esp], xmm0
  00153	ff d6		 call	 esi
  00155	50		 push	 eax
  00156	ff 15 00 00 00
	00		 call	 DWORD PTR __imp_?PrintTextWidthCut@ioFontManager@@QAAXMMMMPBDZZ

; 1654 : 		int iRealNameSize = g_FontMgr.GetTextWidthCutSize( m_szName.c_str(), TS_NORMAL, FONT_SIZE_12, 133.0f );

  0015c	f3 0f 10 05 00
	00 00 00	 movss	 xmm0, DWORD PTR __real@43050000
  00164	83 c4 10	 add	 esp, 16			; 00000010H
  00167	f3 0f 11 44 24
	04		 movss	 DWORD PTR [esp+4], xmm0
  0016d	f3 0f 10 05 00
	00 00 00	 movss	 xmm0, DWORD PTR __real@3f19999a
  00175	f3 0f 11 04 24	 movss	 DWORD PTR [esp], xmm0
  0017a	53		 push	 ebx
  0017b	8d 8f 08 02 00
	00		 lea	 ecx, DWORD PTR [edi+520]
  00181	ff 15 00 00 00
	00		 call	 DWORD PTR __imp_?c_str@ioHashString@@QBEPBDXZ
  00187	50		 push	 eax
  00188	ff d6		 call	 esi
  0018a	8b c8		 mov	 ecx, eax
  0018c	ff 15 00 00 00
	00		 call	 DWORD PTR __imp_?GetTextWidthCutSize@ioFontManager@@QAEMPBDW4TextStyle@@MM@Z
  00192	e8 00 00 00 00	 call	 __ftol2_sse
  00197	8b f0		 mov	 esi, eax

; 1655 : 		g_GuildMarkMgr.RenderSmallMark( m_dwGuildIndex, m_dwGuildMark, iXPos + 23 + iRealNameSize + 3, iYPos + 4 );

  00199	8b 45 ec	 mov	 eax, DWORD PTR _iYPos$522027[ebp]
  0019c	53		 push	 ebx
  0019d	83 c0 04	 add	 eax, 4
  001a0	0f 57 c0	 xorps	 xmm0, xmm0
  001a3	f3 0f 2a c0	 cvtsi2ss xmm0, eax
  001a7	8b 45 f0	 mov	 eax, DWORD PTR _iXPos$522026[ebp]
  001aa	51		 push	 ecx
  001ab	51		 push	 ecx
  001ac	f3 0f 11 44 24
	04		 movss	 DWORD PTR [esp+4], xmm0
  001b2	8d 44 06 1a	 lea	 eax, DWORD PTR [esi+eax+26]
  001b6	0f 57 c0	 xorps	 xmm0, xmm0
  001b9	f3 0f 2a c0	 cvtsi2ss xmm0, eax
  001bd	f3 0f 11 04 24	 movss	 DWORD PTR [esp], xmm0
  001c2	ff b7 1c 02 00
	00		 push	 DWORD PTR [edi+540]
  001c8	ff b7 18 02 00
	00		 push	 DWORD PTR [edi+536]
  001ce	e8 00 00 00 00	 call	 ?GetSingleton@ioGuildMarkMgr@@SAAAV1@XZ ; ioGuildMarkMgr::GetSingleton
  001d3	8b c8		 mov	 ecx, eax
  001d5	e8 00 00 00 00	 call	 ?RenderSmallMark@ioGuildMarkMgr@@QAEXKKMMW4UIRenderType@@@Z ; ioGuildMarkMgr::RenderSmallMark

; 1656 : 		if( m_dwGuildIndex != 0 )

  001da	39 9f 18 02 00
	00		 cmp	 DWORD PTR [edi+536], ebx
  001e0	74 03		 je	 SHORT $LN4@OnRender@2

; 1657 : 			iRealNameSize += 16;

  001e2	83 c6 10	 add	 esi, 16			; 00000010H
$LN4@OnRender@2:

; 1658 : 		// 길드 - > 친구 - > 일반
; 1659 : 		if( g_GuildInfo.IsMyGuildUser( m_szName ) && m_pGuildMark )

  001e5	8d 87 08 02 00
	00		 lea	 eax, DWORD PTR [edi+520]
  001eb	50		 push	 eax
  001ec	e8 00 00 00 00	 call	 ?GetSingleton@ioGuildInfo@@SAAAV1@XZ ; ioGuildInfo::GetSingleton
  001f1	8b c8		 mov	 ecx, eax
  001f3	e8 00 00 00 00	 call	 ?IsMyGuildUser@ioGuildInfo@@QAE_NABVioHashString@@@Z ; ioGuildInfo::IsMyGuildUser
  001f8	84 c0		 test	 al, al
  001fa	74 10		 je	 SHORT $LN3@OnRender@2
  001fc	39 9f fc 01 00
	00		 cmp	 DWORD PTR [edi+508], ebx
  00202	74 08		 je	 SHORT $LN3@OnRender@2

; 1660 : 			m_pGuildMark->Render( iXPos + 23 + iRealNameSize + 3, iYPos + 3 );

  00204	8b 8f fc 01 00
	00		 mov	 ecx, DWORD PTR [edi+508]
  0020a	eb 3a		 jmp	 SHORT $LN13@OnRender@2
$LN3@OnRender@2:

; 1661 : 		else if( g_FriendManager.IsFriend( m_szName ) && m_pFriendMark )

  0020c	83 ec 10	 sub	 esp, 16			; 00000010H
  0020f	8d 87 08 02 00
	00		 lea	 eax, DWORD PTR [edi+520]
  00215	8b cc		 mov	 ecx, esp
  00217	89 65 ec	 mov	 DWORD PTR $T528319[ebp], esp
  0021a	50		 push	 eax
  0021b	ff 15 00 00 00
	00		 call	 DWORD PTR __imp_??0ioHashString@@QAE@ABV0@@Z
  00221	89 5d fc	 mov	 DWORD PTR __$EHRec$[ebp+8], ebx
  00224	e8 00 00 00 00	 call	 ?GetSingleton@ioFriendManager@@SAAAV1@XZ ; ioFriendManager::GetSingleton
  00229	83 4d fc ff	 or	 DWORD PTR __$EHRec$[ebp+8], -1
  0022d	8b c8		 mov	 ecx, eax
  0022f	e8 00 00 00 00	 call	 ?IsFriend@ioFriendManager@@QAE_NVioHashString@@@Z ; ioFriendManager::IsFriend
  00234	3a c3		 cmp	 al, bl
  00236	74 36		 je	 SHORT $LN1@OnRender@2
  00238	39 9f 00 02 00
	00		 cmp	 DWORD PTR [edi+512], ebx
  0023e	74 2e		 je	 SHORT $LN1@OnRender@2

; 1662 : 			m_pFriendMark->Render( iXPos + 23 + iRealNameSize + 3, iYPos + 3 );

  00240	8b 8f 00 02 00
	00		 mov	 ecx, DWORD PTR [edi+512]
$LN13@OnRender@2:
  00246	f3 0f 10 45 e8	 movss	 xmm0, DWORD PTR tv336[ebp]
  0024b	8b 55 f0	 mov	 edx, DWORD PTR _iXPos$522026[ebp]
  0024e	8b 01		 mov	 eax, DWORD PTR [ecx]
  00250	53		 push	 ebx
  00251	53		 push	 ebx
  00252	53		 push	 ebx
  00253	53		 push	 ebx
  00254	51		 push	 ecx
  00255	51		 push	 ecx
  00256	f3 0f 11 44 24
	04		 movss	 DWORD PTR [esp+4], xmm0
  0025c	8d 54 16 1a	 lea	 edx, DWORD PTR [esi+edx+26]
  00260	0f 57 c0	 xorps	 xmm0, xmm0
  00263	f3 0f 2a c2	 cvtsi2ss xmm0, edx
  00267	f3 0f 11 04 24	 movss	 DWORD PTR [esp], xmm0
  0026c	ff 10		 call	 DWORD PTR [eax]
$LN1@OnRender@2:

; 1663 : 	}		
; 1664 : }

  0026e	e8 00 00 00 00	 call	 __EH_epilog3
  00273	c3		 ret	 0
_TEXT	ENDS
;	COMDAT text$x
text$x	SEGMENT
__unwindfunclet$?OnRender@HeadquartersInviteList@@MAEXXZ$0:
  00000	8b 4d ec	 mov	 ecx, DWORD PTR $T528319[ebp]
  00003	ff 25 00 00 00
	00		 jmp	 DWORD PTR __imp_??1ioHashString@@QAE@XZ
__ehhandler$?OnRender@HeadquartersInviteList@@MAEXXZ:
  00009	8b 54 24 08	 mov	 edx, DWORD PTR [esp+8]
  0000d	8d 42 0c	 lea	 eax, DWORD PTR [edx+12]
  00010	8b 4a e4	 mov	 ecx, DWORD PTR [edx-28]
  00013	33 c8		 xor	 ecx, eax
  00015	e8 00 00 00 00	 call	 @__security_check_cookie@4
  0001a	b8 00 00 00 00	 mov	 eax, OFFSET __ehfuncinfo$?OnRender@HeadquartersInviteList@@MAEXXZ
  0001f	e9 00 00 00 00	 jmp	 ___CxxFrameHandler3
text$x	ENDS
?OnRender@HeadquartersInviteList@@MAEXXZ ENDP		; HeadquartersInviteList::OnRender
PUBLIC	__$ArrayPad$
PUBLIC	?StartSend@HeadquartersInviteListWnd@@IAEX_N@Z	; HeadquartersInviteListWnd::StartSend
EXTRN	??6SP2Packet@@QAEAAV0@H@Z:PROC			; SP2Packet::operator<<
;	COMDAT xdata$x
xdata$x	SEGMENT
__unwindtable$?StartSend@HeadquartersInviteListWnd@@IAEX_N@Z DD 0ffffffffH
	DD	FLAT:__unwindfunclet$?StartSend@HeadquartersInviteListWnd@@IAEX_N@Z$0
__ehfuncinfo$?StartSend@HeadquartersInviteListWnd@@IAEX_N@Z DD 019930522H
	DD	01H
	DD	FLAT:__unwindtable$?StartSend@HeadquartersInviteListWnd@@IAEX_N@Z
	DD	2 DUP(00H)
	DD	2 DUP(00H)
	DD	00H
	DD	01H
; Function compile flags: /Ogsp
xdata$x	ENDS
;	COMDAT ?StartSend@HeadquartersInviteListWnd@@IAEX_N@Z
_TEXT	SEGMENT
_kPacket$ = -32808					; size = 32792
__$ArrayPad$ = -16					; size = 4
__$EHRec$ = -12						; size = 12
_bProcess$ = 8						; size = 1
?StartSend@HeadquartersInviteListWnd@@IAEX_N@Z PROC	; HeadquartersInviteListWnd::StartSend, COMDAT
; _this$ = ecx

; 1680 : {

  00000	55		 push	 ebp
  00001	8b ec		 mov	 ebp, esp
  00003	6a ff		 push	 -1
  00005	68 00 00 00 00	 push	 __ehhandler$?StartSend@HeadquartersInviteListWnd@@IAEX_N@Z
  0000a	64 a1 00 00 00
	00		 mov	 eax, DWORD PTR fs:0
  00010	50		 push	 eax
  00011	b8 1c 80 00 00	 mov	 eax, 32796		; 0000801cH
  00016	e8 00 00 00 00	 call	 __chkstk
  0001b	a1 00 00 00 00	 mov	 eax, DWORD PTR ___security_cookie
  00020	33 c5		 xor	 eax, ebp
  00022	89 45 f0	 mov	 DWORD PTR __$ArrayPad$[ebp], eax
  00025	56		 push	 esi
  00026	50		 push	 eax
  00027	8d 45 f4	 lea	 eax, DWORD PTR __$EHRec$[ebp]
  0002a	64 a3 00 00 00
	00		 mov	 DWORD PTR fs:0, eax
  00030	8b f1		 mov	 esi, ecx

; 1681 : 	SP2Packet kPacket( CTPK_HEADQUARTERS_INVITE_LIST );

  00032	68 49 02 00 00	 push	 585			; 00000249H
  00037	8d 8d d8 7f ff
	ff		 lea	 ecx, DWORD PTR _kPacket$[ebp]
  0003d	e8 00 00 00 00	 call	 ??0SP2Packet@@QAE@K@Z	; SP2Packet::SP2Packet
  00042	83 65 fc 00	 and	 DWORD PTR __$EHRec$[ebp+8], 0

; 1682 : 	kPacket << m_iCurPage << MAX_PAGE_LIST;

  00046	6a 0a		 push	 10			; 0000000aH
  00048	ff b6 ac 01 00
	00		 push	 DWORD PTR [esi+428]
  0004e	8d 8d d8 7f ff
	ff		 lea	 ecx, DWORD PTR _kPacket$[ebp]
  00054	e8 00 00 00 00	 call	 ??6SP2Packet@@QAEAAV0@H@Z ; SP2Packet::operator<<
  00059	8b c8		 mov	 ecx, eax
  0005b	e8 00 00 00 00	 call	 ??6SP2Packet@@QAEAAV0@H@Z ; SP2Packet::operator<<

; 1683 : 	TCPNetwork::SendToServer( kPacket );	

  00060	8d 85 d8 7f ff
	ff		 lea	 eax, DWORD PTR _kPacket$[ebp]
  00066	50		 push	 eax
  00067	e8 00 00 00 00	 call	 ?SendToServer@TCPNetwork@@YAXAAVSP2Packet@@@Z ; TCPNetwork::SendToServer
  0006c	59		 pop	 ecx

; 1684 : 	m_dwSearchTime = FRAMEGETTIME();

  0006d	ff 15 00 00 00
	00		 call	 DWORD PTR __imp_?GetSingleton@ioFrameTimer@@SAAAV1@XZ
  00073	8b c8		 mov	 ecx, eax
  00075	ff 15 00 00 00
	00		 call	 DWORD PTR __imp_?GetLoopSec@ioFrameTimer@@QBEKXZ

; 1685 : }

  0007b	83 4d fc ff	 or	 DWORD PTR __$EHRec$[ebp+8], -1
  0007f	8d 8d d8 7f ff
	ff		 lea	 ecx, DWORD PTR _kPacket$[ebp]
  00085	89 86 a8 01 00
	00		 mov	 DWORD PTR [esi+424], eax
  0008b	e8 00 00 00 00	 call	 ??1SP2Packet@@UAE@XZ	; SP2Packet::~SP2Packet
  00090	8b 4d f4	 mov	 ecx, DWORD PTR __$EHRec$[ebp]
  00093	64 89 0d 00 00
	00 00		 mov	 DWORD PTR fs:0, ecx
  0009a	59		 pop	 ecx
  0009b	5e		 pop	 esi
  0009c	8b 4d f0	 mov	 ecx, DWORD PTR __$ArrayPad$[ebp]
  0009f	33 cd		 xor	 ecx, ebp
  000a1	e8 00 00 00 00	 call	 @__security_check_cookie@4
  000a6	c9		 leave
  000a7	c2 04 00	 ret	 4
_TEXT	ENDS
;	COMDAT text$x
text$x	SEGMENT
__unwindfunclet$?StartSend@HeadquartersInviteListWnd@@IAEX_N@Z$0:
  00000	8d 8d d8 7f ff
	ff		 lea	 ecx, DWORD PTR _kPacket$[ebp]
  00006	e9 00 00 00 00	 jmp	 ??1SP2Packet@@UAE@XZ	; SP2Packet::~SP2Packet
__ehhandler$?StartSend@HeadquartersInviteListWnd@@IAEX_N@Z:
  0000b	8b 54 24 08	 mov	 edx, DWORD PTR [esp+8]
  0000f	8d 42 0c	 lea	 eax, DWORD PTR [edx+12]
  00012	8b 8a dc 7f ff
	ff		 mov	 ecx, DWORD PTR [edx-32804]
  00018	33 c8		 xor	 ecx, eax
  0001a	e8 00 00 00 00	 call	 @__security_check_cookie@4
  0001f	8b 4a fc	 mov	 ecx, DWORD PTR [edx-4]
  00022	33 c8		 xor	 ecx, eax
  00024	e8 00 00 00 00	 call	 @__security_check_cookie@4
  00029	b8 00 00 00 00	 mov	 eax, OFFSET __ehfuncinfo$?StartSend@HeadquartersInviteListWnd@@IAEX_N@Z
  0002e	e9 00 00 00 00	 jmp	 ___CxxFrameHandler3
text$x	ENDS
?StartSend@HeadquartersInviteListWnd@@IAEX_N@Z ENDP	; HeadquartersInviteListWnd::StartSend
PUBLIC	?ProcessSearch@HeadquartersInviteListWnd@@IAEXXZ ; HeadquartersInviteListWnd::ProcessSearch
; Function compile flags: /Ogsp
;	COMDAT ?ProcessSearch@HeadquartersInviteListWnd@@IAEXXZ
_TEXT	SEGMENT
?ProcessSearch@HeadquartersInviteListWnd@@IAEXXZ PROC	; HeadquartersInviteListWnd::ProcessSearch, COMDAT
; _this$ = ecx

; 1688 : {

  00000	56		 push	 esi
  00001	8b f1		 mov	 esi, ecx

; 1689 : 	if( FRAMEGETTIME() - m_dwSearchTime > INVITE_SEARCH_TIME )

  00003	ff 15 00 00 00
	00		 call	 DWORD PTR __imp_?GetSingleton@ioFrameTimer@@SAAAV1@XZ
  00009	8b c8		 mov	 ecx, eax
  0000b	ff 15 00 00 00
	00		 call	 DWORD PTR __imp_?GetLoopSec@ioFrameTimer@@QBEKXZ
  00011	2b 86 a8 01 00
	00		 sub	 eax, DWORD PTR [esi+424]
  00017	3d 98 3a 00 00	 cmp	 eax, 15000		; 00003a98H
  0001c	76 09		 jbe	 SHORT $LN1@ProcessSea

; 1690 : 	{
; 1691 : 		StartSend( true );

  0001e	6a 01		 push	 1
  00020	8b ce		 mov	 ecx, esi
  00022	e8 00 00 00 00	 call	 ?StartSend@HeadquartersInviteListWnd@@IAEX_N@Z ; HeadquartersInviteListWnd::StartSend
$LN1@ProcessSea:
  00027	5e		 pop	 esi

; 1692 : 	}
; 1693 : }

  00028	c3		 ret	 0
?ProcessSearch@HeadquartersInviteListWnd@@IAEXXZ ENDP	; HeadquartersInviteListWnd::ProcessSearch
_TEXT	ENDS
PUBLIC	??_R0?AVInviteProgressWnd@@@8			; InviteProgressWnd `RTTI Type Descriptor'
PUBLIC	?StartInivteWait@HeadquartersInviteListWnd@@QAEXHABVioHashString@@@Z ; HeadquartersInviteListWnd::StartInivteWait
EXTRN	?StartInivteWait@InviteProgressWnd@@QAEXPAVioWnd@@HABVioHashString@@@Z:PROC ; InviteProgressWnd::StartInivteWait
EXTRN	__imp_?FindWnd@ioGUIManager@@QAEPAVioWnd@@K@Z:PROC
EXTRN	?GetSingleton@ioSP2GUIManager@@SAAAV1@XZ:PROC	; ioSP2GUIManager::GetSingleton
EXTRN	___RTDynamicCast:PROC
;	COMDAT ??_R0?AVInviteProgressWnd@@@8
_DATA	SEGMENT
??_R0?AVInviteProgressWnd@@@8 DD FLAT:??_7type_info@@6B@ ; InviteProgressWnd `RTTI Type Descriptor'
	DD	00H
	DB	'.?AVInviteProgressWnd@@', 00H
; Function compile flags: /Ogsp
_DATA	ENDS
;	COMDAT ?StartInivteWait@HeadquartersInviteListWnd@@QAEXHABVioHashString@@@Z
_TEXT	SEGMENT
_iValue$ = 8						; size = 4
_szName$ = 12						; size = 4
?StartInivteWait@HeadquartersInviteListWnd@@QAEXHABVioHashString@@@Z PROC ; HeadquartersInviteListWnd::StartInivteWait, COMDAT
; _this$ = ecx

; 1953 : {

  00000	55		 push	 ebp
  00001	8b ec		 mov	 ebp, esp
  00003	56		 push	 esi
  00004	8b f1		 mov	 esi, ecx

; 1954 : 	if( !IsShow() )

  00006	ff 15 00 00 00
	00		 call	 DWORD PTR __imp_?IsShow@ioWnd@@QBE_NXZ
  0000c	84 c0		 test	 al, al
  0000e	74 43		 je	 SHORT $LN1@StartInivt

; 1955 : 		return;
; 1956 : 
; 1957 : 	HideWnd();

  00010	8b ce		 mov	 ecx, esi
  00012	ff 15 00 00 00
	00		 call	 DWORD PTR __imp_?HideWnd@ioWnd@@QAEXXZ

; 1958 : 	// 초대 현황 UI SHOW
; 1959 : 	InviteProgressWnd *pProgressWnd = dynamic_cast<InviteProgressWnd*>( g_GUIMgr.FindWnd( INVITE_PROGRESS_WND ) );

  00018	6a 00		 push	 0
  0001a	68 00 00 00 00	 push	 OFFSET ??_R0?AVInviteProgressWnd@@@8
  0001f	68 00 00 00 00	 push	 OFFSET ??_R0?AVioWnd@@@8
  00024	6a 00		 push	 0
  00026	68 ed 17 00 00	 push	 6125			; 000017edH
  0002b	e8 00 00 00 00	 call	 ?GetSingleton@ioSP2GUIManager@@SAAAV1@XZ ; ioSP2GUIManager::GetSingleton
  00030	8b c8		 mov	 ecx, eax
  00032	ff 15 00 00 00
	00		 call	 DWORD PTR __imp_?FindWnd@ioGUIManager@@QAEPAVioWnd@@K@Z
  00038	50		 push	 eax
  00039	e8 00 00 00 00	 call	 ___RTDynamicCast
  0003e	83 c4 14	 add	 esp, 20			; 00000014H

; 1960 : 	if( pProgressWnd )

  00041	85 c0		 test	 eax, eax
  00043	74 0e		 je	 SHORT $LN1@StartInivt

; 1961 : 	{
; 1962 : 		pProgressWnd->StartInivteWait( this, iValue, szName );

  00045	ff 75 0c	 push	 DWORD PTR _szName$[ebp]
  00048	8b c8		 mov	 ecx, eax
  0004a	ff 75 08	 push	 DWORD PTR _iValue$[ebp]
  0004d	56		 push	 esi
  0004e	e8 00 00 00 00	 call	 ?StartInivteWait@InviteProgressWnd@@QAEXPAVioWnd@@HABVioHashString@@@Z ; InviteProgressWnd::StartInivteWait
$LN1@StartInivt:
  00053	5e		 pop	 esi

; 1963 : 	}
; 1964 : }

  00054	5d		 pop	 ebp
  00055	c2 08 00	 ret	 8
?StartInivteWait@HeadquartersInviteListWnd@@QAEXHABVioHashString@@@Z ENDP ; HeadquartersInviteListWnd::StartInivteWait
_TEXT	ENDS
PUBLIC	?OnProcess@HeadquartersInviteListWnd@@MAEXM@Z	; HeadquartersInviteListWnd::OnProcess
; Function compile flags: /Ogsp
;	COMDAT ?OnProcess@HeadquartersInviteListWnd@@MAEXM@Z
_TEXT	SEGMENT
_fTimePerSec$ = 8					; size = 4
?OnProcess@HeadquartersInviteListWnd@@MAEXM@Z PROC	; HeadquartersInviteListWnd::OnProcess, COMDAT
; _this$ = ecx

; 1967 : {

  00000	55		 push	 ebp
  00001	8b ec		 mov	 ebp, esp
  00003	56		 push	 esi
  00004	8b f1		 mov	 esi, ecx

; 1968 : 	if( !IsShow() )

  00006	ff 15 00 00 00
	00		 call	 DWORD PTR __imp_?IsShow@ioWnd@@QBE_NXZ
  0000c	84 c0		 test	 al, al
  0000e	74 1a		 je	 SHORT $LN2@OnProcess@2

; 1969 : 		return;
; 1970 : 
; 1971 : 	ioMovingWnd::OnProcess( fTimePerSec );

  00010	f3 0f 10 45 08	 movss	 xmm0, DWORD PTR _fTimePerSec$[ebp]
  00015	51		 push	 ecx
  00016	8b ce		 mov	 ecx, esi
  00018	f3 0f 11 04 24	 movss	 DWORD PTR [esp], xmm0
  0001d	ff 15 00 00 00
	00		 call	 DWORD PTR __imp_?OnProcess@ioWnd@@MAEXM@Z

; 1972 : 	ProcessSearch();		

  00023	8b ce		 mov	 ecx, esi
  00025	e8 00 00 00 00	 call	 ?ProcessSearch@HeadquartersInviteListWnd@@IAEXXZ ; HeadquartersInviteListWnd::ProcessSearch
$LN2@OnProcess@2:
  0002a	5e		 pop	 esi

; 1973 : }

  0002b	5d		 pop	 ebp
  0002c	c2 04 00	 ret	 4
?OnProcess@HeadquartersInviteListWnd@@MAEXM@Z ENDP	; HeadquartersInviteListWnd::OnProcess
_TEXT	ENDS
PUBLIC	??1UserInviteInfo@HeadquartersInviteListWnd@@QAE@XZ ; HeadquartersInviteListWnd::UserInviteInfo::~UserInviteInfo
; Function compile flags: /Ogsp
;	COMDAT ??1UserInviteInfo@HeadquartersInviteListWnd@@QAE@XZ
_TEXT	SEGMENT
??1UserInviteInfo@HeadquartersInviteListWnd@@QAE@XZ PROC ; HeadquartersInviteListWnd::UserInviteInfo::~UserInviteInfo, COMDAT
; _this$ = ecx
  00000	ff 25 00 00 00
	00		 jmp	 DWORD PTR __imp_??1ioHashString@@QAE@XZ
??1UserInviteInfo@HeadquartersInviteListWnd@@QAE@XZ ENDP ; HeadquartersInviteListWnd::UserInviteInfo::~UserInviteInfo
_TEXT	ENDS
PUBLIC	??_7HeadquartersInvitedBtn@@6B@			; HeadquartersInvitedBtn::`vftable'
PUBLIC	??0HeadquartersInvitedBtn@@QAE@XZ		; HeadquartersInvitedBtn::HeadquartersInvitedBtn
PUBLIC	??_R4HeadquartersInvitedBtn@@6B@		; HeadquartersInvitedBtn::`RTTI Complete Object Locator'
PUBLIC	??_R0?AVHeadquartersInvitedBtn@@@8		; HeadquartersInvitedBtn `RTTI Type Descriptor'
PUBLIC	??_R3HeadquartersInvitedBtn@@8			; HeadquartersInvitedBtn::`RTTI Class Hierarchy Descriptor'
PUBLIC	??_R2HeadquartersInvitedBtn@@8			; HeadquartersInvitedBtn::`RTTI Base Class Array'
PUBLIC	??_R1A@?0A@EA@HeadquartersInvitedBtn@@8		; HeadquartersInvitedBtn::`RTTI Base Class Descriptor at (0,-1,0,64)'
PUBLIC	?AddRenderImage@HeadquartersInvitedBtn@@MAEXABVioHashString@@PAVioUIRenderImage@@@Z ; HeadquartersInvitedBtn::AddRenderImage
PUBLIC	?OnRender@HeadquartersInvitedBtn@@MAEXXZ	; HeadquartersInvitedBtn::OnRender
PUBLIC	?OnProcess@HeadquartersInvitedBtn@@MAEXM@Z	; HeadquartersInvitedBtn::OnProcess
PUBLIC	?iwm_create@HeadquartersInvitedBtn@@UAEXXZ	; HeadquartersInvitedBtn::iwm_create
EXTRN	??0PingStepWnd@@QAE@XZ:PROC			; PingStepWnd::PingStepWnd
EXTRN	?iwm_command@ioWnd@@UAEXPAV1@HK@Z:PROC		; ioWnd::iwm_command
EXTRN	??_EHeadquartersInvitedBtn@@UAEPAXI@Z:PROC	; HeadquartersInvitedBtn::`vector deleting destructor'
;	COMDAT ??_R1A@?0A@EA@HeadquartersInvitedBtn@@8
rdata$r	SEGMENT
??_R1A@?0A@EA@HeadquartersInvitedBtn@@8 DD FLAT:??_R0?AVHeadquartersInvitedBtn@@@8 ; HeadquartersInvitedBtn::`RTTI Base Class Descriptor at (0,-1,0,64)'
	DD	02H
	DD	00H
	DD	0ffffffffH
	DD	00H
	DD	040H
	DD	FLAT:??_R3HeadquartersInvitedBtn@@8
rdata$r	ENDS
;	COMDAT ??_R2HeadquartersInvitedBtn@@8
rdata$r	SEGMENT
??_R2HeadquartersInvitedBtn@@8 DD FLAT:??_R1A@?0A@EA@HeadquartersInvitedBtn@@8 ; HeadquartersInvitedBtn::`RTTI Base Class Array'
	DD	FLAT:??_R1A@?0A@EA@ioButton@@8
	DD	FLAT:??_R1A@?0A@EA@ioWnd@@8
rdata$r	ENDS
;	COMDAT ??_R3HeadquartersInvitedBtn@@8
rdata$r	SEGMENT
??_R3HeadquartersInvitedBtn@@8 DD 00H			; HeadquartersInvitedBtn::`RTTI Class Hierarchy Descriptor'
	DD	00H
	DD	03H
	DD	FLAT:??_R2HeadquartersInvitedBtn@@8
rdata$r	ENDS
;	COMDAT ??_R0?AVHeadquartersInvitedBtn@@@8
_DATA	SEGMENT
??_R0?AVHeadquartersInvitedBtn@@@8 DD FLAT:??_7type_info@@6B@ ; HeadquartersInvitedBtn `RTTI Type Descriptor'
	DD	00H
	DB	'.?AVHeadquartersInvitedBtn@@', 00H
_DATA	ENDS
;	COMDAT ??_R4HeadquartersInvitedBtn@@6B@
rdata$r	SEGMENT
??_R4HeadquartersInvitedBtn@@6B@ DD 00H			; HeadquartersInvitedBtn::`RTTI Complete Object Locator'
	DD	00H
	DD	00H
	DD	FLAT:??_R0?AVHeadquartersInvitedBtn@@@8
	DD	FLAT:??_R3HeadquartersInvitedBtn@@8
rdata$r	ENDS
;	COMDAT ??_7HeadquartersInvitedBtn@@6B@
CONST	SEGMENT
??_7HeadquartersInvitedBtn@@6B@ DD FLAT:??_R4HeadquartersInvitedBtn@@6B@ ; HeadquartersInvitedBtn::`vftable'
	DD	FLAT:?AddRenderFrame@ioButton@@UAEXABVioHashString@@PAVioUIRenderFrame@@@Z
	DD	FLAT:?AddRenderImage@HeadquartersInvitedBtn@@MAEXABVioHashString@@PAVioUIRenderImage@@@Z
	DD	FLAT:?AddTooltipHelp@ioWnd@@UAEXABVioHashString@@00@Z
	DD	FLAT:?ParseExtraInfo@ioButton@@UAEXAAVioXMLElement@@@Z
	DD	FLAT:?AddNamedRenderImage@ioWnd@@UAEXABVioHashString@@PAVioUIRenderImage@@@Z
	DD	FLAT:?RemoveNamedRenderImage@ioWnd@@UAEXABVioHashString@@@Z
	DD	FLAT:?GetNamedRenderImage@ioWnd@@UBEPAVioUIRenderImage@@ABVioHashString@@@Z
	DD	FLAT:?SetWindowAlpha@ioButton@@UAEXH@Z
	DD	FLAT:?SetActive@ioWnd@@UAEXXZ
	DD	FLAT:?SetInActive@ioWnd@@UAEXXZ
	DD	FLAT:?ClearElementImageList@ioWnd@@UAEXXZ
	DD	FLAT:?SetSize@ioWnd@@UAEXHH@Z
	DD	FLAT:?SetPositionToDefault@ioWnd@@UAEXHH_N0@Z
	DD	FLAT:?IsNeedProcess@ioWnd@@UBE_NXZ
	DD	FLAT:?IsCanMouseReaction@ioWnd@@UBE_NXZ
	DD	FLAT:?AddChild@ioWnd@@UAEXPAV1@@Z
	DD	FLAT:?DeleteChild@ioWnd@@UAEXK@Z
	DD	FLAT:?DeleteAllChild@ioWnd@@UAEXXZ
	DD	FLAT:?OnRenderShowAndHide@ioWnd@@MAE_NXZ
	DD	FLAT:?OnRenderShowAndHideByDefault@ioWnd@@MAE_NK@Z
	DD	FLAT:?OnRenderShowAndHideByTop@ioWnd@@MAE_NK@Z
	DD	FLAT:?OnRenderShowAndHideByDown@ioWnd@@MAE_NK@Z
	DD	FLAT:?OnRender@HeadquartersInvitedBtn@@MAEXXZ
	DD	FLAT:?OnRenderAfterChild@ioWnd@@MAEXXZ
	DD	FLAT:?OnProcess@HeadquartersInvitedBtn@@MAEXM@Z
	DD	FLAT:?OnMouseProcess@ioWnd@@MAEXABVioMouse@@@Z
	DD	FLAT:?CheckFrameReSize@ioButton@@MAEXHHHH@Z
	DD	FLAT:?RenderImageList@ioWnd@@MAEXHHW4UIRenderType@@@Z
	DD	FLAT:?iwm_create@HeadquartersInvitedBtn@@UAEXXZ
	DD	FLAT:?iwm_destroy@ioWnd@@UAEXXZ
	DD	FLAT:?iwm_lbuttondown@ioButton@@UAEXABVioMouse@@@Z
	DD	FLAT:?iwm_lbuttonup@ioButton@@UAEXABVioMouse@@@Z
	DD	FLAT:?iwm_lbuttonDBLCLK@ioButton@@UAEXABVioMouse@@@Z
	DD	FLAT:?iwm_rbuttondown@ioButton@@UAEXABVioMouse@@@Z
	DD	FLAT:?iwm_rbuttonup@ioButton@@UAEXABVioMouse@@@Z
	DD	FLAT:?iwm_command@ioWnd@@UAEXPAV1@HK@Z
	DD	FLAT:?iwm_mouseover@ioButton@@UAEXABVioMouse@@@Z
	DD	FLAT:?iwm_mousemove@ioWnd@@UAEXABVioMouse@@@Z
	DD	FLAT:?iwm_mouseleave@ioWnd@@UAEXABVioMouse@@@Z
	DD	FLAT:?iwm_vscroll@ioWnd@@UAEXKH@Z
	DD	FLAT:?iwm_wheel@ioWnd@@UAEXH@Z
	DD	FLAT:?iwm_show@ioWnd@@UAEXXZ
	DD	FLAT:?iwm_hide@ioWnd@@UAEXXZ
	DD	FLAT:?iwm_esc@ioWnd@@UAE_NXZ
	DD	FLAT:?iwm_spacebar@ioWnd@@UAE_NXZ
	DD	FLAT:?iwm_gototop@ioWnd@@UAEXXZ
	DD	FLAT:?iwm_dragenter@ioWnd@@UAE?AW4IWDropEffect@@PAVioDragItem@@ABVioMouse@@@Z
	DD	FLAT:?iwm_dragover@ioWnd@@UAE?AW4IWDropEffect@@PAVioDragItem@@ABVioMouse@@@Z
	DD	FLAT:?iwm_dragleave@ioWnd@@UAEXXZ
	DD	FLAT:?iwm_dropitem@ioWnd@@UAE_NPAVioDragItem@@ABVioMouse@@PAV1@@Z
	DD	FLAT:?iwm_dropdone@ioWnd@@UAEXPAVioDragItem@@PAV1@_N@Z
	DD	FLAT:?IsEXType@ioWnd@@UBE_NXZ
	DD	FLAT:?GetWndType@ioButton@@UBEKXZ
	DD	FLAT:?RenderWnd@ioWnd@@UAEXXZ
	DD	FLAT:?SetIDEX@ioWnd@@UAEXAAK_N@Z
	DD	FLAT:?ParseXML@ioWnd@@UAEXAAVioXMLElement@@@Z
	DD	FLAT:?GetHeaderFileName@ioButton@@UAEPBDXZ
	DD	FLAT:?GetTemplateName@ioButton@@UAEPBDXZ
	DD	FLAT:?GetDefClassName@ioButton@@UBEPBDXZ
	DD	FLAT:?_Clone@ioButton@@UAEPAVioWnd@@XZ
	DD	FLAT:?Copy@ioButton@@UAEXPAVioWnd@@@Z
	DD	FLAT:?Save@ioWnd@@UAE_NAAVioXMLElement@@@Z
	DD	FLAT:?SetSaveData@ioButton@@UAEXAAVioXMLElement@@@Z
	DD	FLAT:?SetPosX@ioWnd@@UAEXH@Z
	DD	FLAT:?SetPosY@ioWnd@@UAEXH@Z
	DD	FLAT:?SetWidth@ioWnd@@UAEXH@Z
	DD	FLAT:?SetHeight@ioWnd@@UAEXH@Z
	DD	FLAT:?GetNumFixedRenderFrame@ioButton@@UBEHXZ
	DD	FLAT:?GetFixedRenderFrameType@ioButton@@UAEPBDH@Z
	DD	FLAT:?GetRenderFrame@ioButton@@UAEPAPAVioUIRenderElement@@PBD@Z
	DD	FLAT:?GetNumFixedRenderImage@ioButton@@UBEHXZ
	DD	FLAT:?GetFixedRenderImageType@ioButton@@UAEPBDH@Z
	DD	FLAT:?GetRenderImage@ioButton@@UAEPAPAVioUIRenderElement@@PBD@Z
	DD	FLAT:?AddEffect@ioWnd@@UAEXABVioHashString@@PAVioUI3DEffectRender@@@Z
	DD	FLAT:?GetEffect@ioWnd@@UAEPAVioUI3DEffectRender@@VioHashString@@@Z
	DD	FLAT:??_EHeadquartersInvitedBtn@@UAEPAXI@Z
	DD	FLAT:?OnDrawNormal@ioButton@@MAEXHH@Z
	DD	FLAT:?OnDrawOvered@ioButton@@MAEXHH@Z
	DD	FLAT:?OnDrawOveredAdd@ioButton@@MAEXHH@Z
	DD	FLAT:?OnDrawPushed@ioButton@@MAEXHH@Z
	DD	FLAT:?OnDrawDisabled@ioButton@@MAEXHH@Z
	DD	FLAT:?OnDrawExDisabledNormal@ioButton@@MAEXHH@Z
	DD	FLAT:?OnDrawExDisabledOvered@ioButton@@MAEXHH@Z
	DD	FLAT:?OnDrawExDisabledPushed@ioButton@@MAEXHH@Z
	DD	FLAT:?OnDrawBack@ioButton@@MAEXHH@Z
	DD	FLAT:?OnDrawNormalList@ioButton@@MAEXHH@Z
	DD	FLAT:?OnDrawDisableList@ioButton@@MAEXHH@Z
CONST	ENDS
;	COMDAT xdata$x
xdata$x	SEGMENT
__unwindtable$??0HeadquartersInvitedBtn@@QAE@XZ DD 0ffffffffH
	DD	FLAT:__unwindfunclet$??0HeadquartersInvitedBtn@@QAE@XZ$0
	DD	00H
	DD	FLAT:__unwindfunclet$??0HeadquartersInvitedBtn@@QAE@XZ$1
__ehfuncinfo$??0HeadquartersInvitedBtn@@QAE@XZ DD 019930522H
	DD	02H
	DD	FLAT:__unwindtable$??0HeadquartersInvitedBtn@@QAE@XZ
	DD	2 DUP(00H)
	DD	2 DUP(00H)
	DD	00H
	DD	01H
; Function compile flags: /Ogsp
xdata$x	ENDS
;	COMDAT ??0HeadquartersInvitedBtn@@QAE@XZ
_TEXT	SEGMENT
_this$ = -16						; size = 4
__$EHRec$ = -12						; size = 12
??0HeadquartersInvitedBtn@@QAE@XZ PROC			; HeadquartersInvitedBtn::HeadquartersInvitedBtn, COMDAT
; _this$ = ecx

; 2025 : {

  00000	6a 04		 push	 4
  00002	b8 00 00 00 00	 mov	 eax, __ehhandler$??0HeadquartersInvitedBtn@@QAE@XZ
  00007	e8 00 00 00 00	 call	 __EH_prolog3
  0000c	8b f1		 mov	 esi, ecx
  0000e	89 75 f0	 mov	 DWORD PTR _this$[ebp], esi
  00011	ff 15 00 00 00
	00		 call	 DWORD PTR __imp_??0ioButton@@QAE@XZ
  00017	33 ff		 xor	 edi, edi
  00019	8d 8e 04 02 00
	00		 lea	 ecx, DWORD PTR [esi+516]
  0001f	89 7d fc	 mov	 DWORD PTR __$EHRec$[ebp+8], edi
  00022	c7 06 00 00 00
	00		 mov	 DWORD PTR [esi], OFFSET ??_7HeadquartersInvitedBtn@@6B@
  00028	ff 15 00 00 00
	00		 call	 DWORD PTR __imp_??0ioHashString@@QAE@XZ
  0002e	8d 8e 24 02 00
	00		 lea	 ecx, DWORD PTR [esi+548]
  00034	c6 45 fc 01	 mov	 BYTE PTR __$EHRec$[ebp+8], 1
  00038	e8 00 00 00 00	 call	 ??0PingStepWnd@@QAE@XZ	; PingStepWnd::PingStepWnd

; 2026 : 	m_pPeopleOrange = NULL;

  0003d	89 be fc 01 00
	00		 mov	 DWORD PTR [esi+508], edi

; 2027 : 	m_pPeopleGray   = NULL;

  00043	89 be 00 02 00
	00		 mov	 DWORD PTR [esi+512], edi

; 2028 : 
; 2029 : 	m_iSlotArray = m_iMaxSlot = 0;

  00049	89 be 20 02 00
	00		 mov	 DWORD PTR [esi+544], edi
  0004f	89 be 1c 02 00
	00		 mov	 DWORD PTR [esi+540], edi

; 2030 : 	m_iGradeLevel = m_iPingStep = 0;

  00055	89 be 18 02 00
	00		 mov	 DWORD PTR [esi+536], edi
  0005b	89 be 14 02 00
	00		 mov	 DWORD PTR [esi+532], edi

; 2031 : }

  00061	8b c6		 mov	 eax, esi
  00063	e8 00 00 00 00	 call	 __EH_epilog3
  00068	c3		 ret	 0
_TEXT	ENDS
;	COMDAT text$x
text$x	SEGMENT
__unwindfunclet$??0HeadquartersInvitedBtn@@QAE@XZ$0:
  00000	8b 4d f0	 mov	 ecx, DWORD PTR _this$[ebp]
  00003	ff 25 00 00 00
	00		 jmp	 DWORD PTR __imp_??1ioButton@@UAE@XZ
__unwindfunclet$??0HeadquartersInvitedBtn@@QAE@XZ$1:
  00009	8b 4d f0	 mov	 ecx, DWORD PTR _this$[ebp]
  0000c	81 c1 04 02 00
	00		 add	 ecx, 516		; 00000204H
  00012	ff 25 00 00 00
	00		 jmp	 DWORD PTR __imp_??1ioHashString@@QAE@XZ
__ehhandler$??0HeadquartersInvitedBtn@@QAE@XZ:
  00018	8b 54 24 08	 mov	 edx, DWORD PTR [esp+8]
  0001c	8d 42 0c	 lea	 eax, DWORD PTR [edx+12]
  0001f	8b 4a ec	 mov	 ecx, DWORD PTR [edx-20]
  00022	33 c8		 xor	 ecx, eax
  00024	e8 00 00 00 00	 call	 @__security_check_cookie@4
  00029	b8 00 00 00 00	 mov	 eax, OFFSET __ehfuncinfo$??0HeadquartersInvitedBtn@@QAE@XZ
  0002e	e9 00 00 00 00	 jmp	 ___CxxFrameHandler3
text$x	ENDS
??0HeadquartersInvitedBtn@@QAE@XZ ENDP			; HeadquartersInvitedBtn::HeadquartersInvitedBtn
PUBLIC	??1HeadquartersInvitedBtn@@UAE@XZ		; HeadquartersInvitedBtn::~HeadquartersInvitedBtn
EXTRN	??1PingStepWnd@@UAE@XZ:PROC			; PingStepWnd::~PingStepWnd
;	COMDAT xdata$x
xdata$x	SEGMENT
__unwindtable$??1HeadquartersInvitedBtn@@UAE@XZ DD 0ffffffffH
	DD	FLAT:__unwindfunclet$??1HeadquartersInvitedBtn@@UAE@XZ$0
	DD	00H
	DD	FLAT:__unwindfunclet$??1HeadquartersInvitedBtn@@UAE@XZ$1
	DD	01H
	DD	FLAT:__unwindfunclet$??1HeadquartersInvitedBtn@@UAE@XZ$2
__ehfuncinfo$??1HeadquartersInvitedBtn@@UAE@XZ DD 019930522H
	DD	03H
	DD	FLAT:__unwindtable$??1HeadquartersInvitedBtn@@UAE@XZ
	DD	2 DUP(00H)
	DD	2 DUP(00H)
	DD	00H
	DD	01H
; Function compile flags: /Ogsp
xdata$x	ENDS
;	COMDAT ??1HeadquartersInvitedBtn@@UAE@XZ
_TEXT	SEGMENT
_this$ = -16						; size = 4
__$EHRec$ = -12						; size = 12
??1HeadquartersInvitedBtn@@UAE@XZ PROC			; HeadquartersInvitedBtn::~HeadquartersInvitedBtn, COMDAT
; _this$ = ecx

; 2034 : {

  00000	6a 04		 push	 4
  00002	b8 00 00 00 00	 mov	 eax, __ehhandler$??1HeadquartersInvitedBtn@@UAE@XZ
  00007	e8 00 00 00 00	 call	 __EH_prolog3
  0000c	8b f1		 mov	 esi, ecx
  0000e	89 75 f0	 mov	 DWORD PTR _this$[ebp], esi
  00011	c7 06 00 00 00
	00		 mov	 DWORD PTR [esi], OFFSET ??_7HeadquartersInvitedBtn@@6B@

; 2035 : 	SAFEDELETE( m_pPeopleOrange );

  00017	8b 8e fc 01 00
	00		 mov	 ecx, DWORD PTR [esi+508]
  0001d	c7 45 fc 02 00
	00 00		 mov	 DWORD PTR __$EHRec$[ebp+8], 2
  00024	85 c9		 test	 ecx, ecx
  00026	74 0e		 je	 SHORT $LN2@Headquarte@3
  00028	8b 01		 mov	 eax, DWORD PTR [ecx]
  0002a	6a 01		 push	 1
  0002c	ff 50 40	 call	 DWORD PTR [eax+64]
  0002f	83 a6 fc 01 00
	00 00		 and	 DWORD PTR [esi+508], 0
$LN2@Headquarte@3:

; 2036 : 	SAFEDELETE( m_pPeopleGray );

  00036	8b 8e 00 02 00
	00		 mov	 ecx, DWORD PTR [esi+512]
  0003c	85 c9		 test	 ecx, ecx
  0003e	74 0e		 je	 SHORT $LN1@Headquarte@3
  00040	8b 01		 mov	 eax, DWORD PTR [ecx]
  00042	6a 01		 push	 1
  00044	ff 50 40	 call	 DWORD PTR [eax+64]
  00047	83 a6 00 02 00
	00 00		 and	 DWORD PTR [esi+512], 0
$LN1@Headquarte@3:

; 2037 : }

  0004e	8d 8e 24 02 00
	00		 lea	 ecx, DWORD PTR [esi+548]
  00054	c6 45 fc 01	 mov	 BYTE PTR __$EHRec$[ebp+8], 1
  00058	e8 00 00 00 00	 call	 ??1PingStepWnd@@UAE@XZ	; PingStepWnd::~PingStepWnd
  0005d	8d 8e 04 02 00
	00		 lea	 ecx, DWORD PTR [esi+516]
  00063	c6 45 fc 00	 mov	 BYTE PTR __$EHRec$[ebp+8], 0
  00067	ff 15 00 00 00
	00		 call	 DWORD PTR __imp_??1ioHashString@@QAE@XZ
  0006d	83 4d fc ff	 or	 DWORD PTR __$EHRec$[ebp+8], -1
  00071	8b ce		 mov	 ecx, esi
  00073	ff 15 00 00 00
	00		 call	 DWORD PTR __imp_??1ioButton@@UAE@XZ
  00079	e8 00 00 00 00	 call	 __EH_epilog3
  0007e	c3		 ret	 0
_TEXT	ENDS
;	COMDAT text$x
text$x	SEGMENT
__unwindfunclet$??1HeadquartersInvitedBtn@@UAE@XZ$0:
  00000	8b 4d f0	 mov	 ecx, DWORD PTR _this$[ebp]
  00003	ff 25 00 00 00
	00		 jmp	 DWORD PTR __imp_??1ioButton@@UAE@XZ
__unwindfunclet$??1HeadquartersInvitedBtn@@UAE@XZ$1:
  00009	8b 4d f0	 mov	 ecx, DWORD PTR _this$[ebp]
  0000c	81 c1 04 02 00
	00		 add	 ecx, 516		; 00000204H
  00012	ff 25 00 00 00
	00		 jmp	 DWORD PTR __imp_??1ioHashString@@QAE@XZ
__unwindfunclet$??1HeadquartersInvitedBtn@@UAE@XZ$2:
  00018	8b 4d f0	 mov	 ecx, DWORD PTR _this$[ebp]
  0001b	81 c1 24 02 00
	00		 add	 ecx, 548		; 00000224H
  00021	e9 00 00 00 00	 jmp	 ??1PingStepWnd@@UAE@XZ	; PingStepWnd::~PingStepWnd
__ehhandler$??1HeadquartersInvitedBtn@@UAE@XZ:
  00026	8b 54 24 08	 mov	 edx, DWORD PTR [esp+8]
  0002a	8d 42 0c	 lea	 eax, DWORD PTR [edx+12]
  0002d	8b 4a ec	 mov	 ecx, DWORD PTR [edx-20]
  00030	33 c8		 xor	 ecx, eax
  00032	e8 00 00 00 00	 call	 @__security_check_cookie@4
  00037	b8 00 00 00 00	 mov	 eax, OFFSET __ehfuncinfo$??1HeadquartersInvitedBtn@@UAE@XZ
  0003c	e9 00 00 00 00	 jmp	 ___CxxFrameHandler3
text$x	ENDS
??1HeadquartersInvitedBtn@@UAE@XZ ENDP			; HeadquartersInvitedBtn::~HeadquartersInvitedBtn
EXTRN	?Create@PingStepWnd@@QAEXXZ:PROC		; PingStepWnd::Create
; Function compile flags: /Ogsp
;	COMDAT ?iwm_create@HeadquartersInvitedBtn@@UAEXXZ
_TEXT	SEGMENT
?iwm_create@HeadquartersInvitedBtn@@UAEXXZ PROC		; HeadquartersInvitedBtn::iwm_create, COMDAT
; _this$ = ecx

; 2059 : 	m_PingStep.Create();

  00000	81 c1 24 02 00
	00		 add	 ecx, 548		; 00000224H
  00006	e9 00 00 00 00	 jmp	 ?Create@PingStepWnd@@QAEXXZ ; PingStepWnd::Create
?iwm_create@HeadquartersInvitedBtn@@UAEXXZ ENDP		; HeadquartersInvitedBtn::iwm_create
_TEXT	ENDS
PUBLIC	?SetMemberInfo@HeadquartersInvitedBtn@@QAEXHHABVioHashString@@HH@Z ; HeadquartersInvitedBtn::SetMemberInfo
; Function compile flags: /Ogsp
;	COMDAT ?SetMemberInfo@HeadquartersInvitedBtn@@QAEXHHABVioHashString@@HH@Z
_TEXT	SEGMENT
_iMaxSlot$ = 8						; size = 4
_iSlotArray$ = 12					; size = 4
_rkName$ = 16						; size = 4
_iGradeLevel$ = 20					; size = 4
_iPingStep$ = 24					; size = 4
?SetMemberInfo@HeadquartersInvitedBtn@@QAEXHHABVioHashString@@HH@Z PROC ; HeadquartersInvitedBtn::SetMemberInfo, COMDAT
; _this$ = ecx

; 2063 : {

  00000	55		 push	 ebp
  00001	8b ec		 mov	 ebp, esp

; 2064 : 	m_iMaxSlot   = iMaxSlot;

  00003	8b 45 08	 mov	 eax, DWORD PTR _iMaxSlot$[ebp]
  00006	56		 push	 esi
  00007	8b f1		 mov	 esi, ecx
  00009	57		 push	 edi

; 2065 : 	m_iSlotArray = iSlotArray;
; 2066 : 	m_szName     = rkName;

  0000a	ff 75 10	 push	 DWORD PTR _rkName$[ebp]
  0000d	89 86 20 02 00
	00		 mov	 DWORD PTR [esi+544], eax
  00013	8b 45 0c	 mov	 eax, DWORD PTR _iSlotArray$[ebp]
  00016	8d 8e 04 02 00
	00		 lea	 ecx, DWORD PTR [esi+516]
  0001c	89 86 1c 02 00
	00		 mov	 DWORD PTR [esi+540], eax
  00022	ff 15 00 00 00
	00		 call	 DWORD PTR __imp_??4ioHashString@@QAEAAV0@ABV0@@Z

; 2067 : 	m_iGradeLevel= iGradeLevel;

  00028	8b 45 14	 mov	 eax, DWORD PTR _iGradeLevel$[ebp]
  0002b	89 86 14 02 00
	00		 mov	 DWORD PTR [esi+532], eax

; 2068 : 	m_iPingStep  = iPingStep;

  00031	8b 45 18	 mov	 eax, DWORD PTR _iPingStep$[ebp]

; 2069 : 
; 2070 : 	if( m_szName.IsEmpty() )

  00034	8d 8e 04 02 00
	00		 lea	 ecx, DWORD PTR [esi+516]
  0003a	89 86 18 02 00
	00		 mov	 DWORD PTR [esi+536], eax
  00040	ff 15 00 00 00
	00		 call	 DWORD PTR __imp_?IsEmpty@ioHashString@@QBE_NXZ
  00046	84 c0		 test	 al, al

; 2071 : 	{
; 2072 : 		SetInActive();

  00048	8b 06		 mov	 eax, DWORD PTR [esi]
  0004a	8b ce		 mov	 ecx, esi
  0004c	74 05		 je	 SHORT $LN2@SetMemberI
  0004e	ff 50 24	 call	 DWORD PTR [eax+36]

; 2073 : 	}
; 2074 : 	else

  00051	eb 03		 jmp	 SHORT $LN1@SetMemberI
$LN2@SetMemberI:

; 2075 : 	{	
; 2076 : 		SetActive();

  00053	ff 50 20	 call	 DWORD PTR [eax+32]
$LN1@SetMemberI:
  00056	5f		 pop	 edi
  00057	5e		 pop	 esi

; 2077 : 	}
; 2078 : }

  00058	5d		 pop	 ebp
  00059	c2 14 00	 ret	 20			; 00000014H
?SetMemberInfo@HeadquartersInvitedBtn@@QAEXHHABVioHashString@@HH@Z ENDP ; HeadquartersInvitedBtn::SetMemberInfo
_TEXT	ENDS
PUBLIC	__real@426c0000
EXTRN	?RenderPing@PingStepWnd@@QAEXHHH_NW4UIRenderType@@@Z:PROC ; PingStepWnd::RenderPing
;	COMDAT __real@426c0000
CONST	SEGMENT
__real@426c0000 DD 0426c0000r			; 59
; Function compile flags: /Ogsp
CONST	ENDS
;	COMDAT ?OnRender@HeadquartersInvitedBtn@@MAEXXZ
_TEXT	SEGMENT
tv273 = -8						; size = 4
_iYPos$ = -4						; size = 4
?OnRender@HeadquartersInvitedBtn@@MAEXXZ PROC		; HeadquartersInvitedBtn::OnRender, COMDAT
; _this$ = ecx

; 2081 : {

  00000	55		 push	 ebp
  00001	8b ec		 mov	 ebp, esp
  00003	51		 push	 ecx
  00004	51		 push	 ecx
  00005	53		 push	 ebx
  00006	56		 push	 esi
  00007	57		 push	 edi
  00008	8b f1		 mov	 esi, ecx

; 2082 : 	ioButton::OnRender();

  0000a	ff 15 00 00 00
	00		 call	 DWORD PTR __imp_?OnRender@ioButton@@MAEXXZ

; 2083 : 
; 2084 : 	int iXPos, iYPos;
; 2085 : 	iXPos = GetDerivedPosX();

  00010	8b ce		 mov	 ecx, esi
  00012	ff 15 00 00 00
	00		 call	 DWORD PTR __imp_?GetDerivedPosX@ioWnd@@QBEHXZ

; 2086 : 	iYPos = GetDerivedPosY();

  00018	8b ce		 mov	 ecx, esi
  0001a	8b d8		 mov	 ebx, eax
  0001c	ff 15 00 00 00
	00		 call	 DWORD PTR __imp_?GetDerivedPosY@ioWnd@@QBEHXZ
  00022	8b f8		 mov	 edi, eax

; 2087 : 
; 2088 : 	if( m_szName.IsEmpty() )

  00024	8d 8e 04 02 00
	00		 lea	 ecx, DWORD PTR [esi+516]
  0002a	89 7d fc	 mov	 DWORD PTR _iYPos$[ebp], edi
  0002d	ff 15 00 00 00
	00		 call	 DWORD PTR __imp_?IsEmpty@ioHashString@@QBE_NXZ
  00033	84 c0		 test	 al, al
  00035	74 66		 je	 SHORT $LN9@OnRender@3

; 2089 : 	{
; 2090 : 		if( m_iSlotArray < m_iMaxSlot )

  00037	8b 86 1c 02 00
	00		 mov	 eax, DWORD PTR [esi+540]
  0003d	3b 86 20 02 00
	00		 cmp	 eax, DWORD PTR [esi+544]
  00043	7d 16		 jge	 SHORT $LN8@OnRender@3

; 2091 : 		{
; 2092 : 			if( m_pPeopleOrange )

  00045	33 c0		 xor	 eax, eax
  00047	39 86 fc 01 00
	00		 cmp	 DWORD PTR [esi+508], eax
  0004d	0f 84 71 01 00
	00		 je	 $LN4@OnRender@3

; 2093 : 				m_pPeopleOrange->Render( iXPos + 4, iYPos + 2 );

  00053	8b 8e fc 01 00
	00		 mov	 ecx, DWORD PTR [esi+508]

; 2094 : 		}
; 2095 : 		else

  00059	eb 14		 jmp	 SHORT $LN12@OnRender@3
$LN8@OnRender@3:

; 2096 : 		{
; 2097 : 			if( m_pPeopleGray )

  0005b	33 c0		 xor	 eax, eax
  0005d	39 86 00 02 00
	00		 cmp	 DWORD PTR [esi+512], eax
  00063	0f 84 5b 01 00
	00		 je	 $LN4@OnRender@3

; 2098 : 				m_pPeopleGray->Render( iXPos + 4, iYPos + 2 );			

  00069	8b 8e 00 02 00
	00		 mov	 ecx, DWORD PTR [esi+512]
$LN12@OnRender@3:
  0006f	8b 11		 mov	 edx, DWORD PTR [ecx]
  00071	50		 push	 eax
  00072	50		 push	 eax
  00073	50		 push	 eax
  00074	50		 push	 eax
  00075	0f 57 c0	 xorps	 xmm0, xmm0
  00078	51		 push	 ecx
  00079	83 c7 02	 add	 edi, 2
  0007c	f3 0f 2a c7	 cvtsi2ss xmm0, edi
  00080	51		 push	 ecx
  00081	f3 0f 11 44 24
	04		 movss	 DWORD PTR [esp+4], xmm0
  00087	83 c3 04	 add	 ebx, 4
  0008a	0f 57 c0	 xorps	 xmm0, xmm0
  0008d	f3 0f 2a c3	 cvtsi2ss xmm0, ebx
  00091	f3 0f 11 04 24	 movss	 DWORD PTR [esp], xmm0
  00096	ff 12		 call	 DWORD PTR [edx]

; 2099 : 		}
; 2100 : 	}
; 2101 : 	else

  00098	e9 27 01 00 00	 jmp	 $LN4@OnRender@3
$LN9@OnRender@3:

; 2102 : 	{
; 2103 : 		g_FontMgr.SetTextStyle( TS_NORMAL );	

  0009d	8b 3d 00 00 00
	00		 mov	 edi, DWORD PTR __imp_?GetSingleton@ioFontManager@@SAAAV1@XZ
  000a3	6a 00		 push	 0
  000a5	ff d7		 call	 edi
  000a7	8b c8		 mov	 ecx, eax
  000a9	ff 15 00 00 00
	00		 call	 DWORD PTR __imp_?SetTextStyle@ioFontManager@@QAEXW4TextStyle@@@Z

; 2104 : 		g_FontMgr.SetAlignType( TAT_LEFT );

  000af	6a 00		 push	 0
  000b1	ff d7		 call	 edi
  000b3	8b c8		 mov	 ecx, eax
  000b5	ff 15 00 00 00
	00		 call	 DWORD PTR __imp_?SetAlignType@ioFontManager@@QAEXW4TextAlignType@@@Z

; 2105 : 		g_FontMgr.SetBkColor( 0, 0, 0 );

  000bb	33 c0		 xor	 eax, eax
  000bd	50		 push	 eax
  000be	50		 push	 eax
  000bf	50		 push	 eax
  000c0	ff d7		 call	 edi
  000c2	8b c8		 mov	 ecx, eax
  000c4	ff 15 00 00 00
	00		 call	 DWORD PTR __imp_?SetBkColor@ioFontManager@@QAEXHHH@Z

; 2106 : 		if( m_bOver || m_bClicked )

  000ca	80 be a8 00 00
	00 00		 cmp	 BYTE PTR [esi+168], 0
  000d1	75 40		 jne	 SHORT $LN2@OnRender@3
  000d3	80 be a6 00 00
	00 00		 cmp	 BYTE PTR [esi+166], 0
  000da	75 37		 jne	 SHORT $LN2@OnRender@3

; 2110 : 		}
; 2111 : 		else
; 2112 : 		{
; 2113 : 			g_LevelMgr.RenderGrade( iXPos + 4, iYPos + 2, m_iGradeLevel, TEAM_PRIVATE_1 );

  000dc	8b 45 fc	 mov	 eax, DWORD PTR _iYPos$[ebp]
  000df	6a ff		 push	 -1
  000e1	6a 00		 push	 0
  000e3	6a 03		 push	 3
  000e5	ff b6 14 02 00
	00		 push	 DWORD PTR [esi+532]
  000eb	83 c0 02	 add	 eax, 2
  000ee	50		 push	 eax
  000ef	89 45 f8	 mov	 DWORD PTR tv273[ebp], eax
  000f2	8d 43 04	 lea	 eax, DWORD PTR [ebx+4]
  000f5	50		 push	 eax
  000f6	e8 00 00 00 00	 call	 ?GetSingleton@ioMyLevelMgr@@SAAAV1@XZ ; ioMyLevelMgr::GetSingleton
  000fb	8b c8		 mov	 ecx, eax
  000fd	e8 00 00 00 00	 call	 ?RenderGrade@ioMyLevelMgr@@QAEXHHKW4TeamType@@W4UIRenderType@@K@Z ; ioMyLevelMgr::RenderGrade

; 2114 : 			g_FontMgr.SetTextColor( TCT_DEFAULT_DARKGRAY );

  00102	68 3a 3a 3a ff	 push	 -12961222		; ff3a3a3aH
  00107	ff d7		 call	 edi
  00109	8b c8		 mov	 ecx, eax
  0010b	ff 15 00 00 00
	00		 call	 DWORD PTR __imp_?SetTextColor@ioFontManager@@QAEXK@Z
  00111	eb 3b		 jmp	 SHORT $LN1@OnRender@3
$LN2@OnRender@3:

; 2107 : 		{
; 2108 : 			g_LevelMgr.RenderGrade( iXPos + 4, iYPos + 2, m_iGradeLevel, TEAM_PRIVATE_1, UI_RENDER_NORMAL_ADD_COLOR, RGB( 255, 255, 255 ) );

  00113	8b 45 fc	 mov	 eax, DWORD PTR _iYPos$[ebp]
  00116	68 ff ff ff 00	 push	 16777215		; 00ffffffH
  0011b	6a 04		 push	 4
  0011d	6a 03		 push	 3
  0011f	ff b6 14 02 00
	00		 push	 DWORD PTR [esi+532]
  00125	83 c0 02	 add	 eax, 2
  00128	50		 push	 eax
  00129	89 45 f8	 mov	 DWORD PTR tv273[ebp], eax
  0012c	8d 43 04	 lea	 eax, DWORD PTR [ebx+4]
  0012f	50		 push	 eax
  00130	e8 00 00 00 00	 call	 ?GetSingleton@ioMyLevelMgr@@SAAAV1@XZ ; ioMyLevelMgr::GetSingleton
  00135	8b c8		 mov	 ecx, eax
  00137	e8 00 00 00 00	 call	 ?RenderGrade@ioMyLevelMgr@@QAEXHHKW4TeamType@@W4UIRenderType@@K@Z ; ioMyLevelMgr::RenderGrade

; 2109 : 			g_FontMgr.SetTextColor( 255, 255, 255 );

  0013c	b8 ff 00 00 00	 mov	 eax, 255		; 000000ffH
  00141	50		 push	 eax
  00142	50		 push	 eax
  00143	50		 push	 eax
  00144	ff d7		 call	 edi
  00146	8b c8		 mov	 ecx, eax
  00148	ff 15 00 00 00
	00		 call	 DWORD PTR __imp_?SetTextColor@ioFontManager@@QAEXHHH@Z
$LN1@OnRender@3:

; 2115 : 		}
; 2116 : 		g_FontMgr.PrintTextWidthCut( iXPos + 23, iYPos + 3, FONT_SIZE_12, 59.0f, m_szName.c_str() );

  0014e	8d 8e 04 02 00
	00		 lea	 ecx, DWORD PTR [esi+516]
  00154	ff 15 00 00 00
	00		 call	 DWORD PTR __imp_?c_str@ioHashString@@QBEPBDXZ
  0015a	f3 0f 10 05 00
	00 00 00	 movss	 xmm0, DWORD PTR __real@426c0000
  00162	50		 push	 eax
  00163	8b 45 fc	 mov	 eax, DWORD PTR _iYPos$[ebp]
  00166	83 ec 10	 sub	 esp, 16			; 00000010H
  00169	f3 0f 11 44 24
	0c		 movss	 DWORD PTR [esp+12], xmm0
  0016f	f3 0f 10 05 00
	00 00 00	 movss	 xmm0, DWORD PTR __real@3f19999a
  00177	f3 0f 11 44 24
	08		 movss	 DWORD PTR [esp+8], xmm0
  0017d	83 c0 03	 add	 eax, 3
  00180	0f 57 c0	 xorps	 xmm0, xmm0
  00183	f3 0f 2a c0	 cvtsi2ss xmm0, eax
  00187	f3 0f 11 44 24
	04		 movss	 DWORD PTR [esp+4], xmm0
  0018d	8d 43 17	 lea	 eax, DWORD PTR [ebx+23]
  00190	0f 57 c0	 xorps	 xmm0, xmm0
  00193	f3 0f 2a c0	 cvtsi2ss xmm0, eax
  00197	f3 0f 11 04 24	 movss	 DWORD PTR [esp], xmm0
  0019c	ff d7		 call	 edi
  0019e	50		 push	 eax
  0019f	ff 15 00 00 00
	00		 call	 DWORD PTR __imp_?PrintTextWidthCut@ioFontManager@@QAAXMMMMPBDZZ
  001a5	83 c4 18	 add	 esp, 24			; 00000018H

; 2117 : 
; 2118 : 		m_PingStep.RenderPing( iXPos + 85, iYPos + 2, m_iPingStep, false );

  001a8	6a 00		 push	 0
  001aa	6a 00		 push	 0
  001ac	ff b6 18 02 00
	00		 push	 DWORD PTR [esi+536]
  001b2	83 c3 55	 add	 ebx, 85			; 00000055H
  001b5	ff 75 f8	 push	 DWORD PTR tv273[ebp]
  001b8	8d 8e 24 02 00
	00		 lea	 ecx, DWORD PTR [esi+548]
  001be	53		 push	 ebx
  001bf	e8 00 00 00 00	 call	 ?RenderPing@PingStepWnd@@QAEXHHH_NW4UIRenderType@@@Z ; PingStepWnd::RenderPing
$LN4@OnRender@3:
  001c4	5f		 pop	 edi
  001c5	5e		 pop	 esi
  001c6	5b		 pop	 ebx

; 2119 : 	}
; 2120 : }

  001c7	c9		 leave
  001c8	c3		 ret	 0
?OnRender@HeadquartersInvitedBtn@@MAEXXZ ENDP		; HeadquartersInvitedBtn::OnRender
_TEXT	ENDS
PUBLIC	?iwm_hide@HeadquartersInvitedWnd@@UAEXXZ	; HeadquartersInvitedWnd::iwm_hide
; Function compile flags: /Ogsp
;	COMDAT ?iwm_hide@HeadquartersInvitedWnd@@UAEXXZ
_TEXT	SEGMENT
?iwm_hide@HeadquartersInvitedWnd@@UAEXXZ PROC		; HeadquartersInvitedWnd::iwm_hide, COMDAT
; _this$ = ecx

; 2374 : }

  00000	c3		 ret	 0
?iwm_hide@HeadquartersInvitedWnd@@UAEXXZ ENDP		; HeadquartersInvitedWnd::iwm_hide
_TEXT	ENDS
PUBLIC	??_C@_0CB@BJBBGIM@HeadquartersInvitedWnd?3?3OnRender@ ; `string'
PUBLIC	__real@432f0000
PUBLIC	?OnRender@HeadquartersInvitedWnd@@MAEXXZ	; HeadquartersInvitedWnd::OnRender
EXTRN	?AddTextPiece@ioComplexStringPrinter@@QAEXMPBDH@Z:PROC ; ioComplexStringPrinter::AddTextPiece
;	COMDAT ??_C@_0CB@BJBBGIM@HeadquartersInvitedWnd?3?3OnRender@
CONST	SEGMENT
??_C@_0CB@BJBBGIM@HeadquartersInvitedWnd?3?3OnRender@ DB 'HeadquartersInv'
	DB	'itedWnd::OnRender', 00H			; `string'
CONST	ENDS
;	COMDAT __real@432f0000
CONST	SEGMENT
__real@432f0000 DD 0432f0000r			; 175
CONST	ENDS
;	COMDAT xdata$x
xdata$x	SEGMENT
__unwindtable$?OnRender@HeadquartersInvitedWnd@@MAEXXZ DD 0ffffffffH
	DD	FLAT:__unwindfunclet$?OnRender@HeadquartersInvitedWnd@@MAEXXZ$0
__ehfuncinfo$?OnRender@HeadquartersInvitedWnd@@MAEXXZ DD 019930522H
	DD	01H
	DD	FLAT:__unwindtable$?OnRender@HeadquartersInvitedWnd@@MAEXXZ
	DD	2 DUP(00H)
	DD	2 DUP(00H)
	DD	00H
	DD	01H
; Function compile flags: /Ogsp
xdata$x	ENDS
;	COMDAT ?OnRender@HeadquartersInvitedWnd@@MAEXXZ
_TEXT	SEGMENT
_kPrinter$522452 = -60					; size = 32
tv338 = -28						; size = 4
_iXPos$ = -24						; size = 4
tv362 = -20						; size = 4
tv336 = -20						; size = 4
_iYPos$ = -16						; size = 4
__$EHRec$ = -12						; size = 12
?OnRender@HeadquartersInvitedWnd@@MAEXXZ PROC		; HeadquartersInvitedWnd::OnRender, COMDAT
; _this$ = ecx

; 2377 : {

  00000	6a 30		 push	 48			; 00000030H
  00002	b8 00 00 00 00	 mov	 eax, __ehhandler$?OnRender@HeadquartersInvitedWnd@@MAEXXZ
  00007	e8 00 00 00 00	 call	 __EH_prolog3
  0000c	8b d9		 mov	 ebx, ecx

; 2378 : 	ioMovingWnd::OnRender();

  0000e	ff 15 00 00 00
	00		 call	 DWORD PTR __imp_?OnRender@ioWnd@@MAEXXZ

; 2379 : 
; 2380 : 	int iXPos, iYPos;
; 2381 : 	iXPos = GetDerivedPosX();

  00014	8b cb		 mov	 ecx, ebx
  00016	ff 15 00 00 00
	00		 call	 DWORD PTR __imp_?GetDerivedPosX@ioWnd@@QBEHXZ
  0001c	8b f0		 mov	 esi, eax

; 2382 : 	iYPos = GetDerivedPosY();

  0001e	8b cb		 mov	 ecx, ebx
  00020	89 75 e8	 mov	 DWORD PTR _iXPos$[ebp], esi
  00023	ff 15 00 00 00
	00		 call	 DWORD PTR __imp_?GetDerivedPosY@ioWnd@@QBEHXZ

; 2383 : 
; 2384 : 	if( m_pModeIconBack )

  00029	f3 0f 10 05 00
	00 00 00	 movss	 xmm0, DWORD PTR __real@3f19999a
  00031	33 ff		 xor	 edi, edi
  00033	89 45 f0	 mov	 DWORD PTR _iYPos$[ebp], eax
  00036	39 bb 90 01 00
	00		 cmp	 DWORD PTR [ebx+400], edi
  0003c	0f 84 a4 00 00
	00		 je	 $LN1@OnRender@4

; 2385 : 	{
; 2386 : 		m_pModeIconBack->SetScale( 0.60f, 0.60f );

  00042	8b 8b 90 01 00
	00		 mov	 ecx, DWORD PTR [ebx+400]
  00048	8b 01		 mov	 eax, DWORD PTR [ecx]
  0004a	51		 push	 ecx
  0004b	51		 push	 ecx
  0004c	f3 0f 11 44 24
	04		 movss	 DWORD PTR [esp+4], xmm0
  00052	f3 0f 11 04 24	 movss	 DWORD PTR [esp], xmm0
  00057	ff 50 18	 call	 DWORD PTR [eax+24]

; 2387 : 		m_pModeIconBack->Render( iXPos + 39, iYPos + 70, UI_RENDER_MULTIPLY, TFO_BILINEAR );

  0005a	8b 8b 90 01 00
	00		 mov	 ecx, DWORD PTR [ebx+400]
  00060	8b 45 f0	 mov	 eax, DWORD PTR _iYPos$[ebp]
  00063	57		 push	 edi
  00064	57		 push	 edi
  00065	6a 01		 push	 1
  00067	6a 08		 push	 8
  00069	83 c0 46	 add	 eax, 70			; 00000046H
  0006c	51		 push	 ecx
  0006d	51		 push	 ecx
  0006e	0f 57 c0	 xorps	 xmm0, xmm0
  00071	f3 0f 2a c0	 cvtsi2ss xmm0, eax
  00075	8b 01		 mov	 eax, DWORD PTR [ecx]
  00077	83 c6 27	 add	 esi, 39			; 00000027H
  0007a	0f 57 c9	 xorps	 xmm1, xmm1
  0007d	f3 0f 2a ce	 cvtsi2ss xmm1, esi
  00081	f3 0f 11 44 24
	04		 movss	 DWORD PTR [esp+4], xmm0
  00087	f3 0f 11 45 ec	 movss	 DWORD PTR tv336[ebp], xmm0
  0008c	f3 0f 11 4d e4	 movss	 DWORD PTR tv338[ebp], xmm1
  00091	f3 0f 11 0c 24	 movss	 DWORD PTR [esp], xmm1
  00096	ff 10		 call	 DWORD PTR [eax]

; 2388 : 
; 2389 : 		// 모드 아이콘
; 2390 : 		if( m_pModeIcon )

  00098	39 bb 94 01 00
	00		 cmp	 DWORD PTR [ebx+404], edi
  0009e	74 46		 je	 SHORT $LN1@OnRender@4

; 2391 : 		{
; 2392 : 			m_pModeIcon->SetScale( 0.60f, 0.60f );

  000a0	8b 8b 94 01 00
	00		 mov	 ecx, DWORD PTR [ebx+404]
  000a6	f3 0f 10 05 00
	00 00 00	 movss	 xmm0, DWORD PTR __real@3f19999a
  000ae	8b 01		 mov	 eax, DWORD PTR [ecx]
  000b0	51		 push	 ecx
  000b1	51		 push	 ecx
  000b2	f3 0f 11 44 24
	04		 movss	 DWORD PTR [esp+4], xmm0
  000b8	f3 0f 11 04 24	 movss	 DWORD PTR [esp], xmm0
  000bd	ff 50 18	 call	 DWORD PTR [eax+24]

; 2393 : 			m_pModeIcon->Render( iXPos + 39, iYPos + 70, UI_RENDER_NORMAL, TFO_BILINEAR );

  000c0	8b 8b 94 01 00
	00		 mov	 ecx, DWORD PTR [ebx+404]
  000c6	f3 0f 10 45 ec	 movss	 xmm0, DWORD PTR tv336[ebp]
  000cb	8b 01		 mov	 eax, DWORD PTR [ecx]
  000cd	57		 push	 edi
  000ce	57		 push	 edi
  000cf	6a 01		 push	 1
  000d1	57		 push	 edi
  000d2	51		 push	 ecx
  000d3	51		 push	 ecx
  000d4	f3 0f 11 44 24
	04		 movss	 DWORD PTR [esp+4], xmm0
  000da	f3 0f 10 45 e4	 movss	 xmm0, DWORD PTR tv338[ebp]
  000df	f3 0f 11 04 24	 movss	 DWORD PTR [esp], xmm0
  000e4	ff 10		 call	 DWORD PTR [eax]
$LN1@OnRender@4:

; 2394 : 		}
; 2395 : 	}
; 2396 : 
; 2397 : 	g_FontMgr.SetTextStyle( TS_NORMAL );	

  000e6	8b 35 00 00 00
	00		 mov	 esi, DWORD PTR __imp_?GetSingleton@ioFontManager@@SAAAV1@XZ
  000ec	57		 push	 edi
  000ed	ff d6		 call	 esi
  000ef	8b c8		 mov	 ecx, eax
  000f1	ff 15 00 00 00
	00		 call	 DWORD PTR __imp_?SetTextStyle@ioFontManager@@QAEXW4TextStyle@@@Z

; 2398 : 	g_FontMgr.SetAlignType( TAT_LEFT );

  000f7	57		 push	 edi
  000f8	ff d6		 call	 esi
  000fa	8b c8		 mov	 ecx, eax
  000fc	ff 15 00 00 00
	00		 call	 DWORD PTR __imp_?SetAlignType@ioFontManager@@QAEXW4TextAlignType@@@Z

; 2399 : 	g_FontMgr.SetBkColor( 0, 0, 0 );

  00102	57		 push	 edi
  00103	57		 push	 edi
  00104	57		 push	 edi
  00105	ff d6		 call	 esi
  00107	8b c8		 mov	 ecx, eax
  00109	ff 15 00 00 00
	00		 call	 DWORD PTR __imp_?SetBkColor@ioFontManager@@QAEXHHH@Z

; 2400 : 	g_FontMgr.SetTextColor( TCT_DEFAULT_DARKGRAY );

  0010f	68 3a 3a 3a ff	 push	 -12961222		; ff3a3a3aH
  00114	ff d6		 call	 esi
  00116	8b c8		 mov	 ecx, eax
  00118	ff 15 00 00 00
	00		 call	 DWORD PTR __imp_?SetTextColor@ioFontManager@@QAEXK@Z

; 2401 : 	g_FontMgr.PrintTextWidthCut( iXPos + 65, iYPos + 55, FONT_SIZE_13, 175.0f, m_szMasterName.c_str() );

  0011e	8b 45 e8	 mov	 eax, DWORD PTR _iXPos$[ebp]
  00121	83 c0 41	 add	 eax, 65			; 00000041H
  00124	0f 57 c0	 xorps	 xmm0, xmm0
  00127	f3 0f 2a c0	 cvtsi2ss xmm0, eax
  0012b	8d 8b 98 01 00
	00		 lea	 ecx, DWORD PTR [ebx+408]
  00131	f3 0f 11 45 ec	 movss	 DWORD PTR tv362[ebp], xmm0
  00136	ff 15 00 00 00
	00		 call	 DWORD PTR __imp_?c_str@ioHashString@@QBEPBDXZ
  0013c	f3 0f 10 05 00
	00 00 00	 movss	 xmm0, DWORD PTR __real@432f0000
  00144	50		 push	 eax
  00145	8b 45 f0	 mov	 eax, DWORD PTR _iYPos$[ebp]
  00148	83 ec 10	 sub	 esp, 16			; 00000010H
  0014b	f3 0f 11 44 24
	0c		 movss	 DWORD PTR [esp+12], xmm0
  00151	f3 0f 10 05 00
	00 00 00	 movss	 xmm0, DWORD PTR __real@3f266666
  00159	f3 0f 11 44 24
	08		 movss	 DWORD PTR [esp+8], xmm0
  0015f	83 c0 37	 add	 eax, 55			; 00000037H
  00162	0f 57 c0	 xorps	 xmm0, xmm0
  00165	f3 0f 2a c0	 cvtsi2ss xmm0, eax
  00169	f3 0f 11 44 24
	04		 movss	 DWORD PTR [esp+4], xmm0
  0016f	f3 0f 10 45 ec	 movss	 xmm0, DWORD PTR tv362[ebp]
  00174	f3 0f 11 04 24	 movss	 DWORD PTR [esp], xmm0
  00179	ff d6		 call	 esi
  0017b	50		 push	 eax
  0017c	ff 15 00 00 00
	00		 call	 DWORD PTR __imp_?PrintTextWidthCut@ioFontManager@@QAAXMMMMPBDZZ
  00182	83 c4 18	 add	 esp, 24			; 00000018H

; 2402 : 
; 2403 : 	g_FontMgr.SetTextColor( TCT_DEFAULT_GRAY );

  00185	68 6e 6e 6e ff	 push	 -9539986		; ff6e6e6eH
  0018a	ff d6		 call	 esi
  0018c	8b c8		 mov	 ecx, eax
  0018e	ff 15 00 00 00
	00		 call	 DWORD PTR __imp_?SetTextColor@ioFontManager@@QAEXK@Z

; 2404 : 	g_FontMgr.PrintTextWidthCut( iXPos + 65, iYPos + 73, FONT_SIZE_11, 175.0f, STR(1) );

  00194	57		 push	 edi
  00195	6a 01		 push	 1
  00197	68 00 00 00 00	 push	 OFFSET ??_C@_00CNPNBAHC@?$AA@
  0019c	68 00 00 00 00	 push	 OFFSET ??_C@_0CB@BJBBGIM@HeadquartersInvitedWnd?3?3OnRender@
  001a1	ff 15 00 00 00
	00		 call	 DWORD PTR __imp_?GetSingleton@ioStringManager@@SAAAV1@XZ
  001a7	8b c8		 mov	 ecx, eax
  001a9	ff 15 00 00 00
	00		 call	 DWORD PTR __imp_?GetString@ioStringManager@@QAEPADPBD0HW4FileNamePrefix@1@@Z
  001af	f3 0f 10 05 00
	00 00 00	 movss	 xmm0, DWORD PTR __real@432f0000
  001b7	50		 push	 eax
  001b8	8b 45 f0	 mov	 eax, DWORD PTR _iYPos$[ebp]
  001bb	83 ec 10	 sub	 esp, 16			; 00000010H
  001be	f3 0f 11 44 24
	0c		 movss	 DWORD PTR [esp+12], xmm0
  001c4	f3 0f 10 05 00
	00 00 00	 movss	 xmm0, DWORD PTR __real@3f0ccccd
  001cc	f3 0f 11 44 24
	08		 movss	 DWORD PTR [esp+8], xmm0
  001d2	83 c0 49	 add	 eax, 73			; 00000049H
  001d5	0f 57 c0	 xorps	 xmm0, xmm0
  001d8	f3 0f 2a c0	 cvtsi2ss xmm0, eax
  001dc	f3 0f 11 44 24
	04		 movss	 DWORD PTR [esp+4], xmm0
  001e2	f3 0f 10 45 ec	 movss	 xmm0, DWORD PTR tv362[ebp]
  001e7	f3 0f 11 04 24	 movss	 DWORD PTR [esp], xmm0
  001ec	ff d6		 call	 esi
  001ee	50		 push	 eax
  001ef	ff 15 00 00 00
	00		 call	 DWORD PTR __imp_?PrintTextWidthCut@ioFontManager@@QAAXMMMMPBDZZ
  001f5	83 c4 18	 add	 esp, 24			; 00000018H

; 2405 : 
; 2406 : 
; 2407 : 	////
; 2408 : 	{
; 2409 : 		ioComplexStringPrinter kPrinter;

  001f8	8d 4d c4	 lea	 ecx, DWORD PTR _kPrinter$522452[ebp]
  001fb	e8 00 00 00 00	 call	 ??0ioComplexStringPrinter@@QAE@XZ ; ioComplexStringPrinter::ioComplexStringPrinter

; 2410 : 		kPrinter.SetTextStyle( TS_NORMAL );

  00200	57		 push	 edi
  00201	8d 4d c4	 lea	 ecx, DWORD PTR _kPrinter$522452[ebp]
  00204	89 7d fc	 mov	 DWORD PTR __$EHRec$[ebp+8], edi
  00207	e8 00 00 00 00	 call	 ?SetTextStyle@ioComplexStringPrinter@@QAEXW4TextStyle@@@Z ; ioComplexStringPrinter::SetTextStyle

; 2411 : 		kPrinter.SetBkColor( 0, 0, 0 );

  0020c	57		 push	 edi
  0020d	57		 push	 edi
  0020e	57		 push	 edi
  0020f	8d 4d c4	 lea	 ecx, DWORD PTR _kPrinter$522452[ebp]
  00212	e8 00 00 00 00	 call	 ?SetBkColor@ioComplexStringPrinter@@QAEXHHH@Z ; ioComplexStringPrinter::SetBkColor

; 2412 : 		kPrinter.SetTextColor( TCT_DEFAULT_DARKGRAY );

  00217	68 3a 3a 3a ff	 push	 -12961222		; ff3a3a3aH
  0021c	8d 4d c4	 lea	 ecx, DWORD PTR _kPrinter$522452[ebp]
  0021f	e8 00 00 00 00	 call	 ?SetTextColor@ioComplexStringPrinter@@QAEXK@Z ; ioComplexStringPrinter::SetTextColor

; 2413 : 		kPrinter.AddTextPiece( FONT_SIZE_12, STR(2), m_iCurPage + 1 );

  00224	8b 83 c0 01 00
	00		 mov	 eax, DWORD PTR [ebx+448]
  0022a	8b 35 00 00 00
	00		 mov	 esi, DWORD PTR __imp_?GetSingleton@ioStringManager@@SAAAV1@XZ
  00230	40		 inc	 eax
  00231	50		 push	 eax
  00232	57		 push	 edi
  00233	6a 02		 push	 2
  00235	68 00 00 00 00	 push	 OFFSET ??_C@_00CNPNBAHC@?$AA@
  0023a	68 00 00 00 00	 push	 OFFSET ??_C@_0CB@BJBBGIM@HeadquartersInvitedWnd?3?3OnRender@
  0023f	ff d6		 call	 esi
  00241	8b c8		 mov	 ecx, eax
  00243	ff 15 00 00 00
	00		 call	 DWORD PTR __imp_?GetString@ioStringManager@@QAEPADPBD0HW4FileNamePrefix@1@@Z
  00249	f3 0f 10 05 00
	00 00 00	 movss	 xmm0, DWORD PTR __real@3f19999a
  00251	50		 push	 eax
  00252	51		 push	 ecx
  00253	8d 4d c4	 lea	 ecx, DWORD PTR _kPrinter$522452[ebp]
  00256	f3 0f 11 04 24	 movss	 DWORD PTR [esp], xmm0
  0025b	e8 00 00 00 00	 call	 ?AddTextPiece@ioComplexStringPrinter@@QAEXMPBDH@Z ; ioComplexStringPrinter::AddTextPiece

; 2414 : 
; 2415 : 		kPrinter.SetTextStyle( TS_NORMAL );

  00260	57		 push	 edi
  00261	8d 4d c4	 lea	 ecx, DWORD PTR _kPrinter$522452[ebp]
  00264	e8 00 00 00 00	 call	 ?SetTextStyle@ioComplexStringPrinter@@QAEXW4TextStyle@@@Z ; ioComplexStringPrinter::SetTextStyle

; 2416 : 		kPrinter.SetBkColor( 0, 0, 0 );

  00269	57		 push	 edi
  0026a	57		 push	 edi
  0026b	57		 push	 edi
  0026c	8d 4d c4	 lea	 ecx, DWORD PTR _kPrinter$522452[ebp]
  0026f	e8 00 00 00 00	 call	 ?SetBkColor@ioComplexStringPrinter@@QAEXHHH@Z ; ioComplexStringPrinter::SetBkColor

; 2417 : 		kPrinter.SetTextColor( TCT_DEFAULT_GRAY );

  00274	68 6e 6e 6e ff	 push	 -9539986		; ff6e6e6eH
  00279	8d 4d c4	 lea	 ecx, DWORD PTR _kPrinter$522452[ebp]
  0027c	e8 00 00 00 00	 call	 ?SetTextColor@ioComplexStringPrinter@@QAEXK@Z ; ioComplexStringPrinter::SetTextColor

; 2418 : 		kPrinter.AddTextPiece( FONT_SIZE_12, STR(3), m_iMaxPage + 1 );

  00281	8b 83 c4 01 00
	00		 mov	 eax, DWORD PTR [ebx+452]
  00287	40		 inc	 eax
  00288	50		 push	 eax
  00289	57		 push	 edi
  0028a	6a 03		 push	 3
  0028c	68 00 00 00 00	 push	 OFFSET ??_C@_00CNPNBAHC@?$AA@
  00291	68 00 00 00 00	 push	 OFFSET ??_C@_0CB@BJBBGIM@HeadquartersInvitedWnd?3?3OnRender@
  00296	ff d6		 call	 esi
  00298	8b c8		 mov	 ecx, eax
  0029a	ff 15 00 00 00
	00		 call	 DWORD PTR __imp_?GetString@ioStringManager@@QAEPADPBD0HW4FileNamePrefix@1@@Z
  002a0	f3 0f 10 05 00
	00 00 00	 movss	 xmm0, DWORD PTR __real@3f19999a
  002a8	50		 push	 eax
  002a9	51		 push	 ecx
  002aa	8d 4d c4	 lea	 ecx, DWORD PTR _kPrinter$522452[ebp]
  002ad	f3 0f 11 04 24	 movss	 DWORD PTR [esp], xmm0
  002b2	e8 00 00 00 00	 call	 ?AddTextPiece@ioComplexStringPrinter@@QAEXMPBDH@Z ; ioComplexStringPrinter::AddTextPiece

; 2419 : 		kPrinter.PrintFullText( iXPos + 128, iYPos + 193, TAT_CENTER );

  002b7	8b 45 f0	 mov	 eax, DWORD PTR _iYPos$[ebp]
  002ba	68 ff 00 00 00	 push	 255			; 000000ffH
  002bf	6a 01		 push	 1
  002c1	05 c1 00 00 00	 add	 eax, 193		; 000000c1H
  002c6	0f 57 c0	 xorps	 xmm0, xmm0
  002c9	f3 0f 2a c0	 cvtsi2ss xmm0, eax
  002cd	8b 45 e8	 mov	 eax, DWORD PTR _iXPos$[ebp]
  002d0	51		 push	 ecx
  002d1	51		 push	 ecx
  002d2	f3 0f 11 44 24
	04		 movss	 DWORD PTR [esp+4], xmm0
  002d8	83 e8 80	 sub	 eax, -128		; ffffff80H
  002db	0f 57 c0	 xorps	 xmm0, xmm0
  002de	f3 0f 2a c0	 cvtsi2ss xmm0, eax
  002e2	8d 4d c4	 lea	 ecx, DWORD PTR _kPrinter$522452[ebp]
  002e5	f3 0f 11 04 24	 movss	 DWORD PTR [esp], xmm0
  002ea	e8 00 00 00 00	 call	 ?PrintFullText@ioComplexStringPrinter@@QAEXMMW4TextAlignType@@E@Z ; ioComplexStringPrinter::PrintFullText

; 2420 : 	}

  002ef	83 4d fc ff	 or	 DWORD PTR __$EHRec$[ebp+8], -1
  002f3	8d 4d c4	 lea	 ecx, DWORD PTR _kPrinter$522452[ebp]
  002f6	e8 00 00 00 00	 call	 ??1ioComplexStringPrinter@@QAE@XZ ; ioComplexStringPrinter::~ioComplexStringPrinter

; 2421 : }

  002fb	e8 00 00 00 00	 call	 __EH_epilog3
  00300	c3		 ret	 0
_TEXT	ENDS
;	COMDAT text$x
text$x	SEGMENT
__unwindfunclet$?OnRender@HeadquartersInvitedWnd@@MAEXXZ$0:
  00000	8d 4d c4	 lea	 ecx, DWORD PTR _kPrinter$522452[ebp]
  00003	e9 00 00 00 00	 jmp	 ??1ioComplexStringPrinter@@QAE@XZ ; ioComplexStringPrinter::~ioComplexStringPrinter
__ehhandler$?OnRender@HeadquartersInvitedWnd@@MAEXXZ:
  00008	8b 54 24 08	 mov	 edx, DWORD PTR [esp+8]
  0000c	8d 42 0c	 lea	 eax, DWORD PTR [edx+12]
  0000f	8b 4a c0	 mov	 ecx, DWORD PTR [edx-64]
  00012	33 c8		 xor	 ecx, eax
  00014	e8 00 00 00 00	 call	 @__security_check_cookie@4
  00019	b8 00 00 00 00	 mov	 eax, OFFSET __ehfuncinfo$?OnRender@HeadquartersInvitedWnd@@MAEXXZ
  0001e	e9 00 00 00 00	 jmp	 ___CxxFrameHandler3
text$x	ENDS
?OnRender@HeadquartersInvitedWnd@@MAEXXZ ENDP		; HeadquartersInvitedWnd::OnRender
PUBLIC	??_C@_0CC@HIPPLEJH@HeadquartersInvitedWnd?3?3OnProces@ ; `string'
PUBLIC	__$ArrayPad$
PUBLIC	?OnProcess@HeadquartersInvitedWnd@@MAEXM@Z	; HeadquartersInvitedWnd::OnProcess
;	COMDAT ??_C@_0CC@HIPPLEJH@HeadquartersInvitedWnd?3?3OnProces@
; File d:\lost saga for developer\youtube\tutorial\source\src\lsclient\stdafx.h
CONST	SEGMENT
??_C@_0CC@HIPPLEJH@HeadquartersInvitedWnd?3?3OnProces@ DB 'HeadquartersIn'
	DB	'vitedWnd::OnProcess', 00H			; `string'
; Function compile flags: /Ogsp
; File d:\lost saga for developer\youtube\tutorial\source\src\lsclient\gui\headquartersmainwnd.cpp
CONST	ENDS
;	COMDAT ?OnProcess@HeadquartersInvitedWnd@@MAEXM@Z
_TEXT	SEGMENT
$T528413 = -276						; size = 4
tv231 = -272						; size = 4
tv228 = -272						; size = 4
_pBtn$522463 = -268					; size = 4
_szTitle$522470 = -264					; size = 260
__$ArrayPad$ = -4					; size = 4
_fTimePerSec$ = 8					; size = 4
?OnProcess@HeadquartersInvitedWnd@@MAEXM@Z PROC		; HeadquartersInvitedWnd::OnProcess, COMDAT
; _this$ = ecx

; 2424 : {

  00000	55		 push	 ebp
  00001	8b ec		 mov	 ebp, esp
  00003	81 ec 14 01 00
	00		 sub	 esp, 276		; 00000114H
  00009	a1 00 00 00 00	 mov	 eax, DWORD PTR ___security_cookie
  0000e	33 c5		 xor	 eax, ebp
  00010	89 45 fc	 mov	 DWORD PTR __$ArrayPad$[ebp], eax
  00013	56		 push	 esi
  00014	8b f1		 mov	 esi, ecx

; 2425 : 	if( !IsShow() ) return;	

  00016	ff 15 00 00 00
	00		 call	 DWORD PTR __imp_?IsShow@ioWnd@@QBE_NXZ
  0001c	84 c0		 test	 al, al
  0001e	0f 84 1f 01 00
	00		 je	 $LN1@OnProcess@3

; 2426 : 
; 2427 : 	ioMovingWnd::OnProcess( fTimePerSec );

  00024	f3 0f 10 45 08	 movss	 xmm0, DWORD PTR _fTimePerSec$[ebp]
  00029	53		 push	 ebx
  0002a	51		 push	 ecx
  0002b	8b ce		 mov	 ecx, esi
  0002d	f3 0f 11 04 24	 movss	 DWORD PTR [esp], xmm0
  00032	ff 15 00 00 00
	00		 call	 DWORD PTR __imp_?OnProcess@ioWnd@@MAEXM@Z

; 2428 : 
; 2429 : 	if(m_dwStartTime == 0)

  00038	33 db		 xor	 ebx, ebx
  0003a	39 9e bc 01 00
	00		 cmp	 DWORD PTR [esi+444], ebx
  00040	0f 84 fc 00 00
	00		 je	 $LN10@OnProcess@3

; 2430 : 		return;
; 2431 : 
; 2432 : 	if( FRAMEGETTIME() - m_dwStartTime >= INVITE_DELAY_SEC * 1000 )

  00046	57		 push	 edi
  00047	8b 3d 00 00 00
	00		 mov	 edi, DWORD PTR __imp_?GetSingleton@ioFrameTimer@@SAAAV1@XZ
  0004d	ff d7		 call	 edi
  0004f	8b c8		 mov	 ecx, eax
  00051	ff 15 00 00 00
	00		 call	 DWORD PTR __imp_?GetLoopSec@ioFrameTimer@@QBEKXZ
  00057	2b 86 bc 01 00
	00		 sub	 eax, DWORD PTR [esi+444]

; 2433 : 	{
; 2434 : 		HideWnd();	

  0005d	8b ce		 mov	 ecx, esi
  0005f	3d 20 4e 00 00	 cmp	 eax, 20000		; 00004e20H
  00064	72 11		 jb	 SHORT $LN3@OnProcess@3
  00066	ff 15 00 00 00
	00		 call	 DWORD PTR __imp_?HideWnd@ioWnd@@QAEXXZ

; 2435 : 		m_dwStartTime = 0;

  0006c	89 9e bc 01 00
	00		 mov	 DWORD PTR [esi+444], ebx

; 2436 : 	}
; 2437 : 	else

  00072	e9 ca 00 00 00	 jmp	 $LN11@OnProcess@3
$LN3@OnProcess@3:

; 2438 : 	{
; 2439 : 		ioButton *pBtn = (ioButton*)FindChildWnd( ID_AGREE );

  00077	6a 02		 push	 2
  00079	ff 15 00 00 00
	00		 call	 DWORD PTR __imp_?FindChildWnd@ioWnd@@QAEPAV1@K@Z
  0007f	89 85 f4 fe ff
	ff		 mov	 DWORD PTR _pBtn$522463[ebp], eax

; 2440 : 		if( pBtn )

  00085	3b c3		 cmp	 eax, ebx
  00087	0f 84 b4 00 00
	00		 je	 $LN11@OnProcess@3

; 2441 : 		{
; 2442 : 			DWORD dwSec = ((float)(FRAMEGETTIME() - m_dwStartTime) / FLOAT1000);

  0008d	b8 e8 03 00 00	 mov	 eax, 1000		; 000003e8H
  00092	89 85 ec fe ff
	ff		 mov	 DWORD PTR $T528413[ebp], eax
  00098	ff d7		 call	 edi
  0009a	8b c8		 mov	 ecx, eax
  0009c	ff 15 00 00 00
	00		 call	 DWORD PTR __imp_?GetLoopSec@ioFrameTimer@@QBEKXZ
  000a2	2b 86 bc 01 00
	00		 sub	 eax, DWORD PTR [esi+444]

; 2443 : 			int   iSec  = max( 0, INVITE_DELAY_SEC - dwSec );	

  000a8	89 85 f0 fe ff
	ff		 mov	 DWORD PTR tv231[ebp], eax
  000ae	db 85 f0 fe ff
	ff		 fild	 DWORD PTR tv231[ebp]
  000b4	79 06		 jns	 SHORT $LN12@OnProcess@3
  000b6	d8 05 00 00 00
	00		 fadd	 DWORD PTR __real@4f800000
$LN12@OnProcess@3:
  000bc	8b 85 ec fe ff
	ff		 mov	 eax, DWORD PTR $T528413[ebp]
  000c2	db 85 ec fe ff
	ff		 fild	 DWORD PTR $T528413[ebp]
  000c8	85 c0		 test	 eax, eax
  000ca	79 06		 jns	 SHORT $LN13@OnProcess@3
  000cc	d8 05 00 00 00
	00		 fadd	 DWORD PTR __real@4f800000
$LN13@OnProcess@3:

; 2441 : 		{
; 2442 : 			DWORD dwSec = ((float)(FRAMEGETTIME() - m_dwStartTime) / FLOAT1000);

  000d2	de f9		 fdivp	 ST(1), ST(0)

; 2443 : 			int   iSec  = max( 0, INVITE_DELAY_SEC - dwSec );	

  000d4	e8 00 00 00 00	 call	 __ftol2
  000d9	6a 14		 push	 20			; 00000014H
  000db	5e		 pop	 esi

; 2444 : 			char szTitle[MAX_PATH] = "";

  000dc	68 03 01 00 00	 push	 259			; 00000103H
  000e1	2b f0		 sub	 esi, eax
  000e3	8d 85 f9 fe ff
	ff		 lea	 eax, DWORD PTR _szTitle$522470[ebp+1]
  000e9	53		 push	 ebx
  000ea	50		 push	 eax
  000eb	88 9d f8 fe ff
	ff		 mov	 BYTE PTR _szTitle$522470[ebp], bl
  000f1	e8 00 00 00 00	 call	 _memset
  000f6	83 c4 0c	 add	 esp, 12			; 0000000cH

; 2445 : 			SafeSprintf( szTitle, sizeof( szTitle ), STR(1), iSec );

  000f9	56		 push	 esi
  000fa	53		 push	 ebx
  000fb	6a 01		 push	 1
  000fd	be 00 00 00 00	 mov	 esi, OFFSET ??_C@_00CNPNBAHC@?$AA@
  00102	56		 push	 esi
  00103	68 00 00 00 00	 push	 OFFSET ??_C@_0CC@HIPPLEJH@HeadquartersInvitedWnd?3?3OnProces@
  00108	ff 15 00 00 00
	00		 call	 DWORD PTR __imp_?GetSingleton@ioStringManager@@SAAAV1@XZ
  0010e	8b c8		 mov	 ecx, eax
  00110	ff 15 00 00 00
	00		 call	 DWORD PTR __imp_?GetString@ioStringManager@@QAEPADPBD0HW4FileNamePrefix@1@@Z
  00116	50		 push	 eax
  00117	8d 85 f8 fe ff
	ff		 lea	 eax, DWORD PTR _szTitle$522470[ebp]
  0011d	68 04 01 00 00	 push	 260			; 00000104H
  00122	50		 push	 eax
  00123	ff 15 00 00 00
	00		 call	 DWORD PTR __imp_?SafeSprintf@@YAXPADHPBDH@Z

; 2446 : 			pBtn->SetTitleText( szTitle );

  00129	8b 8d f4 fe ff
	ff		 mov	 ecx, DWORD PTR _pBtn$522463[ebp]
  0012f	83 c4 10	 add	 esp, 16			; 00000010H
  00132	53		 push	 ebx
  00133	56		 push	 esi
  00134	8d 85 f8 fe ff
	ff		 lea	 eax, DWORD PTR _szTitle$522470[ebp]
  0013a	50		 push	 eax
  0013b	ff 15 00 00 00
	00		 call	 DWORD PTR __imp_?SetTitleText@ioWnd@@QAEXPBD0H@Z
$LN11@OnProcess@3:
  00141	5f		 pop	 edi
$LN10@OnProcess@3:
  00142	5b		 pop	 ebx
$LN1@OnProcess@3:

; 2447 : 		}
; 2448 : 	}
; 2449 : }

  00143	8b 4d fc	 mov	 ecx, DWORD PTR __$ArrayPad$[ebp]
  00146	33 cd		 xor	 ecx, ebp
  00148	5e		 pop	 esi
  00149	e8 00 00 00 00	 call	 @__security_check_cookie@4
  0014e	c9		 leave
  0014f	c2 04 00	 ret	 4
?OnProcess@HeadquartersInvitedWnd@@MAEXM@Z ENDP		; HeadquartersInvitedWnd::OnProcess
_TEXT	ENDS
PUBLIC	?size@?$_Tree@V?$_Tmap_traits@KVioHashString@@U?$less@K@std@@V?$allocator@U?$pair@$$CBKVioHashString@@@std@@@3@$0A@@std@@@std@@QBEIXZ ; std::_Tree<std::_Tmap_traits<unsigned long,ioHashString,std::less<unsigned long>,std::allocator<std::pair<unsigned long const ,ioHashString> >,0> >::size
; Function compile flags: /Ogsp
; File c:\program files (x86)\microsoft visual studio 10.0\vc\include\xtree
;	COMDAT ?size@?$_Tree@V?$_Tmap_traits@KVioHashString@@U?$less@K@std@@V?$allocator@U?$pair@$$CBKVioHashString@@@std@@@3@$0A@@std@@@std@@QBEIXZ
_TEXT	SEGMENT
?size@?$_Tree@V?$_Tmap_traits@KVioHashString@@U?$less@K@std@@V?$allocator@U?$pair@$$CBKVioHashString@@@std@@@3@$0A@@std@@@std@@QBEIXZ PROC ; std::_Tree<std::_Tmap_traits<unsigned long,ioHashString,std::less<unsigned long>,std::allocator<std::pair<unsigned long const ,ioHashString> >,0> >::size, COMDAT
; _this$ = ecx

; 869  : 		return (this->_Mysize);

  00000	8b 41 08	 mov	 eax, DWORD PTR [ecx+8]

; 870  : 		}

  00003	c3		 ret	 0
?size@?$_Tree@V?$_Tmap_traits@KVioHashString@@U?$less@K@std@@V?$allocator@U?$pair@$$CBKVioHashString@@@std@@@3@$0A@@std@@@std@@QBEIXZ ENDP ; std::_Tree<std::_Tmap_traits<unsigned long,ioHashString,std::less<unsigned long>,std::allocator<std::pair<unsigned long const ,ioHashString> >,0> >::size
_TEXT	ENDS
PUBLIC	?empty@?$_Tree@V?$_Tmap_traits@KVioHashString@@U?$less@K@std@@V?$allocator@U?$pair@$$CBKVioHashString@@@std@@@3@$0A@@std@@@std@@QBE_NXZ ; std::_Tree<std::_Tmap_traits<unsigned long,ioHashString,std::less<unsigned long>,std::allocator<std::pair<unsigned long const ,ioHashString> >,0> >::empty
; Function compile flags: /Ogsp
;	COMDAT ?empty@?$_Tree@V?$_Tmap_traits@KVioHashString@@U?$less@K@std@@V?$allocator@U?$pair@$$CBKVioHashString@@@std@@@3@$0A@@std@@@std@@QBE_NXZ
_TEXT	SEGMENT
?empty@?$_Tree@V?$_Tmap_traits@KVioHashString@@U?$less@K@std@@V?$allocator@U?$pair@$$CBKVioHashString@@@std@@@3@$0A@@std@@@std@@QBE_NXZ PROC ; std::_Tree<std::_Tmap_traits<unsigned long,ioHashString,std::less<unsigned long>,std::allocator<std::pair<unsigned long const ,ioHashString> >,0> >::empty, COMDAT
; _this$ = ecx

; 879  : 		return (size() == 0);

  00000	33 c0		 xor	 eax, eax
  00002	39 41 08	 cmp	 DWORD PTR [ecx+8], eax
  00005	0f 94 c0	 sete	 al

; 880  : 		}

  00008	c3		 ret	 0
?empty@?$_Tree@V?$_Tmap_traits@KVioHashString@@U?$less@K@std@@V?$allocator@U?$pair@$$CBKVioHashString@@@std@@@3@$0A@@std@@@std@@QBE_NXZ ENDP ; std::_Tree<std::_Tmap_traits<unsigned long,ioHashString,std::less<unsigned long>,std::allocator<std::pair<unsigned long const ,ioHashString> >,0> >::empty
_TEXT	ENDS
PUBLIC	?size@?$vector@URoundInfo@@V?$allocator@URoundInfo@@@std@@@std@@QBEIXZ ; std::vector<RoundInfo,std::allocator<RoundInfo> >::size
; Function compile flags: /Ogsp
; File c:\program files (x86)\microsoft visual studio 10.0\vc\include\vector
;	COMDAT ?size@?$vector@URoundInfo@@V?$allocator@URoundInfo@@@std@@@std@@QBEIXZ
_TEXT	SEGMENT
?size@?$vector@URoundInfo@@V?$allocator@URoundInfo@@@std@@@std@@QBEIXZ PROC ; std::vector<RoundInfo,std::allocator<RoundInfo> >::size, COMDAT
; _this$ = ecx

; 879  : 		return (this->_Mylast - this->_Myfirst);

  00000	8b 41 04	 mov	 eax, DWORD PTR [ecx+4]
  00003	2b 01		 sub	 eax, DWORD PTR [ecx]
  00005	c1 f8 07	 sar	 eax, 7

; 880  : 		}

  00008	c3		 ret	 0
?size@?$vector@URoundInfo@@V?$allocator@URoundInfo@@@std@@@std@@QBEIXZ ENDP ; std::vector<RoundInfo,std::allocator<RoundInfo> >::size
_TEXT	ENDS
PUBLIC	??A?$vector@URoundInfo@@V?$allocator@URoundInfo@@@std@@@std@@QAEAAURoundInfo@@I@Z ; std::vector<RoundInfo,std::allocator<RoundInfo> >::operator[]
; Function compile flags: /Ogsp
;	COMDAT ??A?$vector@URoundInfo@@V?$allocator@URoundInfo@@@std@@@std@@QAEAAURoundInfo@@I@Z
_TEXT	SEGMENT
__Pos$ = 8						; size = 4
??A?$vector@URoundInfo@@V?$allocator@URoundInfo@@@std@@@std@@QAEAAURoundInfo@@I@Z PROC ; std::vector<RoundInfo,std::allocator<RoundInfo> >::operator[], COMDAT
; _this$ = ecx

; 928  : 		{	// subscript mutable sequence

  00000	55		 push	 ebp
  00001	8b ec		 mov	 ebp, esp

; 929  :  #if _ITERATOR_DEBUG_LEVEL == 2
; 930  : 		if (size() <= _Pos)
; 931  : 			{	// report error
; 932  : 			_DEBUG_ERROR("vector subscript out of range");
; 933  : 			_SCL_SECURE_OUT_OF_RANGE;
; 934  : 			}
; 935  : 
; 936  :  #elif _ITERATOR_DEBUG_LEVEL == 1
; 937  : 		_SCL_SECURE_VALIDATE_RANGE(_Pos < size());
; 938  :  #endif /* _ITERATOR_DEBUG_LEVEL */
; 939  : 
; 940  : 		return (*(this->_Myfirst + _Pos));

  00003	8b 45 08	 mov	 eax, DWORD PTR __Pos$[ebp]
  00006	c1 e0 07	 shl	 eax, 7
  00009	03 01		 add	 eax, DWORD PTR [ecx]

; 941  : 		}

  0000b	5d		 pop	 ebp
  0000c	c2 04 00	 ret	 4
??A?$vector@URoundInfo@@V?$allocator@URoundInfo@@@std@@@std@@QAEAAURoundInfo@@I@Z ENDP ; std::vector<RoundInfo,std::allocator<RoundInfo> >::operator[]
_TEXT	ENDS
PUBLIC	?size@?$vector@UtagHeadquartersUserInfo@@V?$allocator@UtagHeadquartersUserInfo@@@std@@@std@@QBEIXZ ; std::vector<tagHeadquartersUserInfo,std::allocator<tagHeadquartersUserInfo> >::size
; Function compile flags: /Ogsp
;	COMDAT ?size@?$vector@UtagHeadquartersUserInfo@@V?$allocator@UtagHeadquartersUserInfo@@@std@@@std@@QBEIXZ
_TEXT	SEGMENT
?size@?$vector@UtagHeadquartersUserInfo@@V?$allocator@UtagHeadquartersUserInfo@@@std@@@std@@QBEIXZ PROC ; std::vector<tagHeadquartersUserInfo,std::allocator<tagHeadquartersUserInfo> >::size, COMDAT
; _this$ = ecx

; 879  : 		return (this->_Mylast - this->_Myfirst);

  00000	8b 41 04	 mov	 eax, DWORD PTR [ecx+4]
  00003	2b 01		 sub	 eax, DWORD PTR [ecx]
  00005	6a 28		 push	 40			; 00000028H
  00007	99		 cdq
  00008	59		 pop	 ecx
  00009	f7 f9		 idiv	 ecx

; 880  : 		}

  0000b	c3		 ret	 0
?size@?$vector@UtagHeadquartersUserInfo@@V?$allocator@UtagHeadquartersUserInfo@@@std@@@std@@QBEIXZ ENDP ; std::vector<tagHeadquartersUserInfo,std::allocator<tagHeadquartersUserInfo> >::size
_TEXT	ENDS
PUBLIC	??A?$vector@UtagHeadquartersUserInfo@@V?$allocator@UtagHeadquartersUserInfo@@@std@@@std@@QAEAAUtagHeadquartersUserInfo@@I@Z ; std::vector<tagHeadquartersUserInfo,std::allocator<tagHeadquartersUserInfo> >::operator[]
; Function compile flags: /Ogsp
;	COMDAT ??A?$vector@UtagHeadquartersUserInfo@@V?$allocator@UtagHeadquartersUserInfo@@@std@@@std@@QAEAAUtagHeadquartersUserInfo@@I@Z
_TEXT	SEGMENT
__Pos$ = 8						; size = 4
??A?$vector@UtagHeadquartersUserInfo@@V?$allocator@UtagHeadquartersUserInfo@@@std@@@std@@QAEAAUtagHeadquartersUserInfo@@I@Z PROC ; std::vector<tagHeadquartersUserInfo,std::allocator<tagHeadquartersUserInfo> >::operator[], COMDAT
; _this$ = ecx

; 928  : 		{	// subscript mutable sequence

  00000	55		 push	 ebp
  00001	8b ec		 mov	 ebp, esp

; 929  :  #if _ITERATOR_DEBUG_LEVEL == 2
; 930  : 		if (size() <= _Pos)
; 931  : 			{	// report error
; 932  : 			_DEBUG_ERROR("vector subscript out of range");
; 933  : 			_SCL_SECURE_OUT_OF_RANGE;
; 934  : 			}
; 935  : 
; 936  :  #elif _ITERATOR_DEBUG_LEVEL == 1
; 937  : 		_SCL_SECURE_VALIDATE_RANGE(_Pos < size());
; 938  :  #endif /* _ITERATOR_DEBUG_LEVEL */
; 939  : 
; 940  : 		return (*(this->_Myfirst + _Pos));

  00003	8b 45 08	 mov	 eax, DWORD PTR __Pos$[ebp]
  00006	6b c0 28	 imul	 eax, 40			; 00000028H
  00009	03 01		 add	 eax, DWORD PTR [ecx]

; 941  : 		}

  0000b	5d		 pop	 ebp
  0000c	c2 04 00	 ret	 4
??A?$vector@UtagHeadquartersUserInfo@@V?$allocator@UtagHeadquartersUserInfo@@@std@@@std@@QAEAAUtagHeadquartersUserInfo@@I@Z ENDP ; std::vector<tagHeadquartersUserInfo,std::allocator<tagHeadquartersUserInfo> >::operator[]
_TEXT	ENDS
PUBLIC	?size@?$vector@UUserInviteInfo@HeadquartersInviteListWnd@@V?$allocator@UUserInviteInfo@HeadquartersInviteListWnd@@@std@@@std@@QBEIXZ ; std::vector<HeadquartersInviteListWnd::UserInviteInfo,std::allocator<HeadquartersInviteListWnd::UserInviteInfo> >::size
; Function compile flags: /Ogsp
;	COMDAT ?size@?$vector@UUserInviteInfo@HeadquartersInviteListWnd@@V?$allocator@UUserInviteInfo@HeadquartersInviteListWnd@@@std@@@std@@QBEIXZ
_TEXT	SEGMENT
?size@?$vector@UUserInviteInfo@HeadquartersInviteListWnd@@V?$allocator@UUserInviteInfo@HeadquartersInviteListWnd@@@std@@@std@@QBEIXZ PROC ; std::vector<HeadquartersInviteListWnd::UserInviteInfo,std::allocator<HeadquartersInviteListWnd::UserInviteInfo> >::size, COMDAT
; _this$ = ecx

; 879  : 		return (this->_Mylast - this->_Myfirst);

  00000	8b 41 04	 mov	 eax, DWORD PTR [ecx+4]
  00003	2b 01		 sub	 eax, DWORD PTR [ecx]
  00005	6a 14		 push	 20			; 00000014H
  00007	99		 cdq
  00008	59		 pop	 ecx
  00009	f7 f9		 idiv	 ecx

; 880  : 		}

  0000b	c3		 ret	 0
?size@?$vector@UUserInviteInfo@HeadquartersInviteListWnd@@V?$allocator@UUserInviteInfo@HeadquartersInviteListWnd@@@std@@@std@@QBEIXZ ENDP ; std::vector<HeadquartersInviteListWnd::UserInviteInfo,std::allocator<HeadquartersInviteListWnd::UserInviteInfo> >::size
_TEXT	ENDS
PUBLIC	?empty@?$vector@UUserInviteInfo@HeadquartersInviteListWnd@@V?$allocator@UUserInviteInfo@HeadquartersInviteListWnd@@@std@@@std@@QBE_NXZ ; std::vector<HeadquartersInviteListWnd::UserInviteInfo,std::allocator<HeadquartersInviteListWnd::UserInviteInfo> >::empty
; Function compile flags: /Ogsp
;	COMDAT ?empty@?$vector@UUserInviteInfo@HeadquartersInviteListWnd@@V?$allocator@UUserInviteInfo@HeadquartersInviteListWnd@@@std@@@std@@QBE_NXZ
_TEXT	SEGMENT
?empty@?$vector@UUserInviteInfo@HeadquartersInviteListWnd@@V?$allocator@UUserInviteInfo@HeadquartersInviteListWnd@@@std@@@std@@QBE_NXZ PROC ; std::vector<HeadquartersInviteListWnd::UserInviteInfo,std::allocator<HeadquartersInviteListWnd::UserInviteInfo> >::empty, COMDAT
; _this$ = ecx

; 889  : 		return (this->_Myfirst == this->_Mylast);

  00000	8b 01		 mov	 eax, DWORD PTR [ecx]
  00002	2b 41 04	 sub	 eax, DWORD PTR [ecx+4]
  00005	f7 d8		 neg	 eax
  00007	1b c0		 sbb	 eax, eax
  00009	40		 inc	 eax

; 890  : 		}

  0000a	c3		 ret	 0
?empty@?$vector@UUserInviteInfo@HeadquartersInviteListWnd@@V?$allocator@UUserInviteInfo@HeadquartersInviteListWnd@@@std@@@std@@QBE_NXZ ENDP ; std::vector<HeadquartersInviteListWnd::UserInviteInfo,std::allocator<HeadquartersInviteListWnd::UserInviteInfo> >::empty
_TEXT	ENDS
PUBLIC	??A?$vector@UUserInviteInfo@HeadquartersInviteListWnd@@V?$allocator@UUserInviteInfo@HeadquartersInviteListWnd@@@std@@@std@@QAEAAUUserInviteInfo@HeadquartersInviteListWnd@@I@Z ; std::vector<HeadquartersInviteListWnd::UserInviteInfo,std::allocator<HeadquartersInviteListWnd::UserInviteInfo> >::operator[]
; Function compile flags: /Ogsp
;	COMDAT ??A?$vector@UUserInviteInfo@HeadquartersInviteListWnd@@V?$allocator@UUserInviteInfo@HeadquartersInviteListWnd@@@std@@@std@@QAEAAUUserInviteInfo@HeadquartersInviteListWnd@@I@Z
_TEXT	SEGMENT
__Pos$ = 8						; size = 4
??A?$vector@UUserInviteInfo@HeadquartersInviteListWnd@@V?$allocator@UUserInviteInfo@HeadquartersInviteListWnd@@@std@@@std@@QAEAAUUserInviteInfo@HeadquartersInviteListWnd@@I@Z PROC ; std::vector<HeadquartersInviteListWnd::UserInviteInfo,std::allocator<HeadquartersInviteListWnd::UserInviteInfo> >::operator[], COMDAT
; _this$ = ecx

; 928  : 		{	// subscript mutable sequence

  00000	55		 push	 ebp
  00001	8b ec		 mov	 ebp, esp

; 929  :  #if _ITERATOR_DEBUG_LEVEL == 2
; 930  : 		if (size() <= _Pos)
; 931  : 			{	// report error
; 932  : 			_DEBUG_ERROR("vector subscript out of range");
; 933  : 			_SCL_SECURE_OUT_OF_RANGE;
; 934  : 			}
; 935  : 
; 936  :  #elif _ITERATOR_DEBUG_LEVEL == 1
; 937  : 		_SCL_SECURE_VALIDATE_RANGE(_Pos < size());
; 938  :  #endif /* _ITERATOR_DEBUG_LEVEL */
; 939  : 
; 940  : 		return (*(this->_Myfirst + _Pos));

  00003	8b 45 08	 mov	 eax, DWORD PTR __Pos$[ebp]
  00006	6b c0 14	 imul	 eax, 20			; 00000014H
  00009	03 01		 add	 eax, DWORD PTR [ecx]

; 941  : 		}

  0000b	5d		 pop	 ebp
  0000c	c2 04 00	 ret	 4
??A?$vector@UUserInviteInfo@HeadquartersInviteListWnd@@V?$allocator@UUserInviteInfo@HeadquartersInviteListWnd@@@std@@@std@@QAEAAUUserInviteInfo@HeadquartersInviteListWnd@@I@Z ENDP ; std::vector<HeadquartersInviteListWnd::UserInviteInfo,std::allocator<HeadquartersInviteListWnd::UserInviteInfo> >::operator[]
_TEXT	ENDS
PUBLIC	??0?$allocator@U?$pair@$$CBKVioHashString@@@std@@@std@@QAE@XZ ; std::allocator<std::pair<unsigned long const ,ioHashString> >::allocator<std::pair<unsigned long const ,ioHashString> >
; Function compile flags: /Ogsp
; File c:\program files (x86)\microsoft visual studio 10.0\vc\include\xmemory
;	COMDAT ??0?$allocator@U?$pair@$$CBKVioHashString@@@std@@@std@@QAE@XZ
_TEXT	SEGMENT
??0?$allocator@U?$pair@$$CBKVioHashString@@@std@@@std@@QAE@XZ PROC ; std::allocator<std::pair<unsigned long const ,ioHashString> >::allocator<std::pair<unsigned long const ,ioHashString> >, COMDAT
; _this$ = ecx

; 161  : 	_ALLOCATOR() _THROW0()

  00000	8b c1		 mov	 eax, ecx

; 162  : 		{	// construct default allocator (do nothing)
; 163  : 		}

  00002	c3		 ret	 0
??0?$allocator@U?$pair@$$CBKVioHashString@@@std@@@std@@QAE@XZ ENDP ; std::allocator<std::pair<unsigned long const ,ioHashString> >::allocator<std::pair<unsigned long const ,ioHashString> >
_TEXT	ENDS
PUBLIC	?_Inside@?$vector@URoundInfo@@V?$allocator@URoundInfo@@@std@@@std@@IBE_NPBURoundInfo@@@Z ; std::vector<RoundInfo,std::allocator<RoundInfo> >::_Inside
; Function compile flags: /Ogsp
; File c:\program files (x86)\microsoft visual studio 10.0\vc\include\vector
;	COMDAT ?_Inside@?$vector@URoundInfo@@V?$allocator@URoundInfo@@@std@@@std@@IBE_NPBURoundInfo@@@Z
_TEXT	SEGMENT
__Ptr$ = 8						; size = 4
?_Inside@?$vector@URoundInfo@@V?$allocator@URoundInfo@@@std@@@std@@IBE_NPBURoundInfo@@@Z PROC ; std::vector<RoundInfo,std::allocator<RoundInfo> >::_Inside, COMDAT
; _this$ = ecx

; 1285 : 		{	// test if _Ptr points inside vector

  00000	55		 push	 ebp
  00001	8b ec		 mov	 ebp, esp

; 1286 : 		return (_Ptr < this->_Mylast && this->_Myfirst <= _Ptr);

  00003	8b 45 08	 mov	 eax, DWORD PTR __Ptr$[ebp]
  00006	3b 41 04	 cmp	 eax, DWORD PTR [ecx+4]
  00009	73 09		 jae	 SHORT $LN3@Inside
  0000b	39 01		 cmp	 DWORD PTR [ecx], eax
  0000d	77 05		 ja	 SHORT $LN3@Inside
  0000f	33 c0		 xor	 eax, eax
  00011	40		 inc	 eax
  00012	eb 02		 jmp	 SHORT $LN4@Inside
$LN3@Inside:
  00014	33 c0		 xor	 eax, eax
$LN4@Inside:

; 1287 : 		}

  00016	5d		 pop	 ebp
  00017	c2 04 00	 ret	 4
?_Inside@?$vector@URoundInfo@@V?$allocator@URoundInfo@@@std@@@std@@IBE_NPBURoundInfo@@@Z ENDP ; std::vector<RoundInfo,std::allocator<RoundInfo> >::_Inside
_TEXT	ENDS
PUBLIC	?_Orphan_range@?$vector@URoundInfo@@V?$allocator@URoundInfo@@@std@@@std@@IBEXPAURoundInfo@@0@Z ; std::vector<RoundInfo,std::allocator<RoundInfo> >::_Orphan_range
; Function compile flags: /Ogsp
;	COMDAT ?_Orphan_range@?$vector@URoundInfo@@V?$allocator@URoundInfo@@@std@@@std@@IBEXPAURoundInfo@@0@Z
_TEXT	SEGMENT
___formal$ = 8						; size = 4
___formal$ = 12						; size = 4
?_Orphan_range@?$vector@URoundInfo@@V?$allocator@URoundInfo@@@std@@@std@@IBEXPAURoundInfo@@0@Z PROC ; std::vector<RoundInfo,std::allocator<RoundInfo> >::_Orphan_range, COMDAT
; _this$ = ecx

; 1454 : 		}

  00000	c2 08 00	 ret	 8
?_Orphan_range@?$vector@URoundInfo@@V?$allocator@URoundInfo@@@std@@@std@@IBEXPAURoundInfo@@0@Z ENDP ; std::vector<RoundInfo,std::allocator<RoundInfo> >::_Orphan_range
_TEXT	ENDS
PUBLIC	??1?$_Vector_val@URoundInfo@@V?$allocator@URoundInfo@@@std@@@std@@QAE@XZ ; std::_Vector_val<RoundInfo,std::allocator<RoundInfo> >::~_Vector_val<RoundInfo,std::allocator<RoundInfo> >
; Function compile flags: /Ogsp
;	COMDAT ??1?$_Vector_val@URoundInfo@@V?$allocator@URoundInfo@@@std@@@std@@QAE@XZ
_TEXT	SEGMENT
??1?$_Vector_val@URoundInfo@@V?$allocator@URoundInfo@@@std@@@std@@QAE@XZ PROC ; std::_Vector_val<RoundInfo,std::allocator<RoundInfo> >::~_Vector_val<RoundInfo,std::allocator<RoundInfo> >, COMDAT
; _this$ = ecx

; 434  : 		}

  00000	c3		 ret	 0
??1?$_Vector_val@URoundInfo@@V?$allocator@URoundInfo@@@std@@@std@@QAE@XZ ENDP ; std::_Vector_val<RoundInfo,std::allocator<RoundInfo> >::~_Vector_val<RoundInfo,std::allocator<RoundInfo> >
_TEXT	ENDS
PUBLIC	??0?$allocator@URoundInfo@@@std@@QAE@XZ		; std::allocator<RoundInfo>::allocator<RoundInfo>
; Function compile flags: /Ogsp
; File c:\program files (x86)\microsoft visual studio 10.0\vc\include\xmemory
;	COMDAT ??0?$allocator@URoundInfo@@@std@@QAE@XZ
_TEXT	SEGMENT
??0?$allocator@URoundInfo@@@std@@QAE@XZ PROC		; std::allocator<RoundInfo>::allocator<RoundInfo>, COMDAT
; _this$ = ecx

; 161  : 	_ALLOCATOR() _THROW0()

  00000	8b c1		 mov	 eax, ecx

; 162  : 		{	// construct default allocator (do nothing)
; 163  : 		}

  00002	c3		 ret	 0
??0?$allocator@URoundInfo@@@std@@QAE@XZ ENDP		; std::allocator<RoundInfo>::allocator<RoundInfo>
_TEXT	ENDS
PUBLIC	?_Inside@?$vector@UtagHeadquartersUserInfo@@V?$allocator@UtagHeadquartersUserInfo@@@std@@@std@@IBE_NPBUtagHeadquartersUserInfo@@@Z ; std::vector<tagHeadquartersUserInfo,std::allocator<tagHeadquartersUserInfo> >::_Inside
; Function compile flags: /Ogsp
; File c:\program files (x86)\microsoft visual studio 10.0\vc\include\vector
;	COMDAT ?_Inside@?$vector@UtagHeadquartersUserInfo@@V?$allocator@UtagHeadquartersUserInfo@@@std@@@std@@IBE_NPBUtagHeadquartersUserInfo@@@Z
_TEXT	SEGMENT
__Ptr$ = 8						; size = 4
?_Inside@?$vector@UtagHeadquartersUserInfo@@V?$allocator@UtagHeadquartersUserInfo@@@std@@@std@@IBE_NPBUtagHeadquartersUserInfo@@@Z PROC ; std::vector<tagHeadquartersUserInfo,std::allocator<tagHeadquartersUserInfo> >::_Inside, COMDAT
; _this$ = ecx

; 1285 : 		{	// test if _Ptr points inside vector

  00000	55		 push	 ebp
  00001	8b ec		 mov	 ebp, esp

; 1286 : 		return (_Ptr < this->_Mylast && this->_Myfirst <= _Ptr);

  00003	8b 45 08	 mov	 eax, DWORD PTR __Ptr$[ebp]
  00006	3b 41 04	 cmp	 eax, DWORD PTR [ecx+4]
  00009	73 09		 jae	 SHORT $LN3@Inside@2
  0000b	39 01		 cmp	 DWORD PTR [ecx], eax
  0000d	77 05		 ja	 SHORT $LN3@Inside@2
  0000f	33 c0		 xor	 eax, eax
  00011	40		 inc	 eax
  00012	eb 02		 jmp	 SHORT $LN4@Inside@2
$LN3@Inside@2:
  00014	33 c0		 xor	 eax, eax
$LN4@Inside@2:

; 1287 : 		}

  00016	5d		 pop	 ebp
  00017	c2 04 00	 ret	 4
?_Inside@?$vector@UtagHeadquartersUserInfo@@V?$allocator@UtagHeadquartersUserInfo@@@std@@@std@@IBE_NPBUtagHeadquartersUserInfo@@@Z ENDP ; std::vector<tagHeadquartersUserInfo,std::allocator<tagHeadquartersUserInfo> >::_Inside
_TEXT	ENDS
PUBLIC	?_Orphan_range@?$vector@UtagHeadquartersUserInfo@@V?$allocator@UtagHeadquartersUserInfo@@@std@@@std@@IBEXPAUtagHeadquartersUserInfo@@0@Z ; std::vector<tagHeadquartersUserInfo,std::allocator<tagHeadquartersUserInfo> >::_Orphan_range
; Function compile flags: /Ogsp
;	COMDAT ?_Orphan_range@?$vector@UtagHeadquartersUserInfo@@V?$allocator@UtagHeadquartersUserInfo@@@std@@@std@@IBEXPAUtagHeadquartersUserInfo@@0@Z
_TEXT	SEGMENT
___formal$ = 8						; size = 4
___formal$ = 12						; size = 4
?_Orphan_range@?$vector@UtagHeadquartersUserInfo@@V?$allocator@UtagHeadquartersUserInfo@@@std@@@std@@IBEXPAUtagHeadquartersUserInfo@@0@Z PROC ; std::vector<tagHeadquartersUserInfo,std::allocator<tagHeadquartersUserInfo> >::_Orphan_range, COMDAT
; _this$ = ecx

; 1454 : 		}

  00000	c2 08 00	 ret	 8
?_Orphan_range@?$vector@UtagHeadquartersUserInfo@@V?$allocator@UtagHeadquartersUserInfo@@@std@@@std@@IBEXPAUtagHeadquartersUserInfo@@0@Z ENDP ; std::vector<tagHeadquartersUserInfo,std::allocator<tagHeadquartersUserInfo> >::_Orphan_range
_TEXT	ENDS
PUBLIC	??1?$_Vector_val@UtagHeadquartersUserInfo@@V?$allocator@UtagHeadquartersUserInfo@@@std@@@std@@QAE@XZ ; std::_Vector_val<tagHeadquartersUserInfo,std::allocator<tagHeadquartersUserInfo> >::~_Vector_val<tagHeadquartersUserInfo,std::allocator<tagHeadquartersUserInfo> >
; Function compile flags: /Ogsp
;	COMDAT ??1?$_Vector_val@UtagHeadquartersUserInfo@@V?$allocator@UtagHeadquartersUserInfo@@@std@@@std@@QAE@XZ
_TEXT	SEGMENT
??1?$_Vector_val@UtagHeadquartersUserInfo@@V?$allocator@UtagHeadquartersUserInfo@@@std@@@std@@QAE@XZ PROC ; std::_Vector_val<tagHeadquartersUserInfo,std::allocator<tagHeadquartersUserInfo> >::~_Vector_val<tagHeadquartersUserInfo,std::allocator<tagHeadquartersUserInfo> >, COMDAT
; _this$ = ecx

; 434  : 		}

  00000	c3		 ret	 0
??1?$_Vector_val@UtagHeadquartersUserInfo@@V?$allocator@UtagHeadquartersUserInfo@@@std@@@std@@QAE@XZ ENDP ; std::_Vector_val<tagHeadquartersUserInfo,std::allocator<tagHeadquartersUserInfo> >::~_Vector_val<tagHeadquartersUserInfo,std::allocator<tagHeadquartersUserInfo> >
_TEXT	ENDS
PUBLIC	??0?$allocator@UtagHeadquartersUserInfo@@@std@@QAE@XZ ; std::allocator<tagHeadquartersUserInfo>::allocator<tagHeadquartersUserInfo>
; Function compile flags: /Ogsp
; File c:\program files (x86)\microsoft visual studio 10.0\vc\include\xmemory
;	COMDAT ??0?$allocator@UtagHeadquartersUserInfo@@@std@@QAE@XZ
_TEXT	SEGMENT
??0?$allocator@UtagHeadquartersUserInfo@@@std@@QAE@XZ PROC ; std::allocator<tagHeadquartersUserInfo>::allocator<tagHeadquartersUserInfo>, COMDAT
; _this$ = ecx

; 161  : 	_ALLOCATOR() _THROW0()

  00000	8b c1		 mov	 eax, ecx

; 162  : 		{	// construct default allocator (do nothing)
; 163  : 		}

  00002	c3		 ret	 0
??0?$allocator@UtagHeadquartersUserInfo@@@std@@QAE@XZ ENDP ; std::allocator<tagHeadquartersUserInfo>::allocator<tagHeadquartersUserInfo>
_TEXT	ENDS
PUBLIC	?_Inside@?$vector@UUserInviteInfo@HeadquartersInviteListWnd@@V?$allocator@UUserInviteInfo@HeadquartersInviteListWnd@@@std@@@std@@IBE_NPBUUserInviteInfo@HeadquartersInviteListWnd@@@Z ; std::vector<HeadquartersInviteListWnd::UserInviteInfo,std::allocator<HeadquartersInviteListWnd::UserInviteInfo> >::_Inside
; Function compile flags: /Ogsp
; File c:\program files (x86)\microsoft visual studio 10.0\vc\include\vector
;	COMDAT ?_Inside@?$vector@UUserInviteInfo@HeadquartersInviteListWnd@@V?$allocator@UUserInviteInfo@HeadquartersInviteListWnd@@@std@@@std@@IBE_NPBUUserInviteInfo@HeadquartersInviteListWnd@@@Z
_TEXT	SEGMENT
__Ptr$ = 8						; size = 4
?_Inside@?$vector@UUserInviteInfo@HeadquartersInviteListWnd@@V?$allocator@UUserInviteInfo@HeadquartersInviteListWnd@@@std@@@std@@IBE_NPBUUserInviteInfo@HeadquartersInviteListWnd@@@Z PROC ; std::vector<HeadquartersInviteListWnd::UserInviteInfo,std::allocator<HeadquartersInviteListWnd::UserInviteInfo> >::_Inside, COMDAT
; _this$ = ecx

; 1285 : 		{	// test if _Ptr points inside vector

  00000	55		 push	 ebp
  00001	8b ec		 mov	 ebp, esp

; 1286 : 		return (_Ptr < this->_Mylast && this->_Myfirst <= _Ptr);

  00003	8b 45 08	 mov	 eax, DWORD PTR __Ptr$[ebp]
  00006	3b 41 04	 cmp	 eax, DWORD PTR [ecx+4]
  00009	73 09		 jae	 SHORT $LN3@Inside@3
  0000b	39 01		 cmp	 DWORD PTR [ecx], eax
  0000d	77 05		 ja	 SHORT $LN3@Inside@3
  0000f	33 c0		 xor	 eax, eax
  00011	40		 inc	 eax
  00012	eb 02		 jmp	 SHORT $LN4@Inside@3
$LN3@Inside@3:
  00014	33 c0		 xor	 eax, eax
$LN4@Inside@3:

; 1287 : 		}

  00016	5d		 pop	 ebp
  00017	c2 04 00	 ret	 4
?_Inside@?$vector@UUserInviteInfo@HeadquartersInviteListWnd@@V?$allocator@UUserInviteInfo@HeadquartersInviteListWnd@@@std@@@std@@IBE_NPBUUserInviteInfo@HeadquartersInviteListWnd@@@Z ENDP ; std::vector<HeadquartersInviteListWnd::UserInviteInfo,std::allocator<HeadquartersInviteListWnd::UserInviteInfo> >::_Inside
_TEXT	ENDS
PUBLIC	?_Orphan_range@?$vector@UUserInviteInfo@HeadquartersInviteListWnd@@V?$allocator@UUserInviteInfo@HeadquartersInviteListWnd@@@std@@@std@@IBEXPAUUserInviteInfo@HeadquartersInviteListWnd@@0@Z ; std::vector<HeadquartersInviteListWnd::UserInviteInfo,std::allocator<HeadquartersInviteListWnd::UserInviteInfo> >::_Orphan_range
; Function compile flags: /Ogsp
;	COMDAT ?_Orphan_range@?$vector@UUserInviteInfo@HeadquartersInviteListWnd@@V?$allocator@UUserInviteInfo@HeadquartersInviteListWnd@@@std@@@std@@IBEXPAUUserInviteInfo@HeadquartersInviteListWnd@@0@Z
_TEXT	SEGMENT
___formal$ = 8						; size = 4
___formal$ = 12						; size = 4
