; Listing generated by Microsoft (R) Optimizing Compiler Version 16.00.30319.01 

	TITLE	D:\Lost Saga For Developer\Youtube\Tutorial\Source\src\LSClient\GUI\HelpWnd.cpp
	.686P
	.XMM
	include listing.inc
	.model	flat

INCLUDELIB MSVCRT
INCLUDELIB OLDNAMES

PUBLIC	?_EEM_DS@?$deque@UD3DXVECTOR3@@V?$allocator@UD3DXVECTOR3@@@std@@@std@@2HB ; std::deque<D3DXVECTOR3,std::allocator<D3DXVECTOR3> >::_EEM_DS
PUBLIC	?sg_bMessenger@MessengerBtn@@2_NA		; MessengerBtn::sg_bMessenger
PUBLIC	?sg_dwMoveState@HelpWnd@@1KA			; HelpWnd::sg_dwMoveState
PUBLIC	?sg_fMessengerXPos@HelpWnd@@1MA			; HelpWnd::sg_fMessengerXPos
PUBLIC	?sg_fMessengerYPos@HelpWnd@@1MA			; HelpWnd::sg_fMessengerYPos
PUBLIC	?sg_fQuestXPos@HelpWnd@@1MA			; HelpWnd::sg_fQuestXPos
PUBLIC	?sg_fQuestYPos@HelpWnd@@1MA			; HelpWnd::sg_fQuestYPos
_BSS	SEGMENT
?sg_bMessenger@MessengerBtn@@2_NA DB 01H DUP (?)	; MessengerBtn::sg_bMessenger
	ALIGN	4

?sg_dwMoveState@HelpWnd@@1KA DD 01H DUP (?)		; HelpWnd::sg_dwMoveState
?sg_fMessengerXPos@HelpWnd@@1MA DD 01H DUP (?)		; HelpWnd::sg_fMessengerXPos
?sg_fMessengerYPos@HelpWnd@@1MA DD 01H DUP (?)		; HelpWnd::sg_fMessengerYPos
?sg_fQuestXPos@HelpWnd@@1MA DD 01H DUP (?)		; HelpWnd::sg_fQuestXPos
?sg_fQuestYPos@HelpWnd@@1MA DD 01H DUP (?)		; HelpWnd::sg_fQuestYPos
_BSS	ENDS
;	COMDAT ?_EEM_DS@?$deque@UD3DXVECTOR3@@V?$allocator@UD3DXVECTOR3@@@std@@@std@@2HB
CONST	SEGMENT
?_EEM_DS@?$deque@UD3DXVECTOR3@@V?$allocator@UD3DXVECTOR3@@@std@@@std@@2HB DD 01H ; std::deque<D3DXVECTOR3,std::allocator<D3DXVECTOR3> >::_EEM_DS
CONST	ENDS
PUBLIC	?GetPlayMode@ioPlayStage@@QBEPAVioPlayMode@@XZ	; ioPlayStage::GetPlayMode
; Function compile flags: /Ogsp
; File d:\lost saga for developer\youtube\tutorial\source\src\lsclient\ioplaystage.h
;	COMDAT ?GetPlayMode@ioPlayStage@@QBEPAVioPlayMode@@XZ
_TEXT	SEGMENT
?GetPlayMode@ioPlayStage@@QBEPAVioPlayMode@@XZ PROC	; ioPlayStage::GetPlayMode, COMDAT
; _this$ = ecx

; 780  : 	inline ioPlayMode* GetPlayMode() const { return m_pPlayMode; }

  00000	8b 81 10 01 00
	00		 mov	 eax, DWORD PTR [ecx+272]
  00006	c3		 ret	 0
?GetPlayMode@ioPlayStage@@QBEPAVioPlayMode@@XZ ENDP	; ioPlayStage::GetPlayMode
_TEXT	ENDS
PUBLIC	?return1@@YAIXZ					; return1
; Function compile flags: /Ogsp
; File d:\lost saga for developer\youtube\tutorial\source\src\lsclient\stdafx.h
;	COMDAT ?return1@@YAIXZ
_TEXT	SEGMENT
?return1@@YAIXZ PROC					; return1, COMDAT

; 17   : 	__forceinline unsigned int return1() { __asm mov eax, 1 };

  00000	b8 01 00 00 00	 mov	 eax, 1
  00005	c3		 ret	 0
?return1@@YAIXZ ENDP					; return1
_TEXT	ENDS
PUBLIC	?return5@@YAIXZ					; return5
; Function compile flags: /Ogsp
;	COMDAT ?return5@@YAIXZ
_TEXT	SEGMENT
?return5@@YAIXZ PROC					; return5, COMDAT

; 18   : 	__forceinline unsigned int return5() { __asm mov eax, 5 };

  00000	b8 05 00 00 00	 mov	 eax, 5
  00005	c3		 ret	 0
?return5@@YAIXZ ENDP					; return5
_TEXT	ENDS
PUBLIC	?return10@@YAIXZ				; return10
; Function compile flags: /Ogsp
;	COMDAT ?return10@@YAIXZ
_TEXT	SEGMENT
?return10@@YAIXZ PROC					; return10, COMDAT

; 21   : 	__forceinline unsigned int return10() { __asm mov eax, 10 };

  00000	b8 0a 00 00 00	 mov	 eax, 10			; 0000000aH
  00005	c3		 ret	 0
?return10@@YAIXZ ENDP					; return10
_TEXT	ENDS
PUBLIC	?return100@@YAIXZ				; return100
; Function compile flags: /Ogsp
;	COMDAT ?return100@@YAIXZ
_TEXT	SEGMENT
?return100@@YAIXZ PROC					; return100, COMDAT

; 25   : 	__forceinline unsigned int return100() { __asm mov eax, 100 };

  00000	b8 64 00 00 00	 mov	 eax, 100		; 00000064H
  00005	c3		 ret	 0
?return100@@YAIXZ ENDP					; return100
_TEXT	ENDS
PUBLIC	?return1000000000@@YAIXZ			; return1000000000
; Function compile flags: /Ogsp
;	COMDAT ?return1000000000@@YAIXZ
_TEXT	SEGMENT
?return1000000000@@YAIXZ PROC				; return1000000000, COMDAT

; 30   : 	__forceinline unsigned int return1000000000() { __asm mov eax, 1000000000 };

  00000	b8 00 ca 9a 3b	 mov	 eax, 1000000000		; 3b9aca00H
  00005	c3		 ret	 0
?return1000000000@@YAIXZ ENDP				; return1000000000
_TEXT	ENDS
PUBLIC	?return_PI@@YAIXZ				; return_PI
; Function compile flags: /Ogsp
;	COMDAT ?return_PI@@YAIXZ
_TEXT	SEGMENT
?return_PI@@YAIXZ PROC					; return_PI, COMDAT

; 31   : 	__forceinline unsigned int return_PI() { __asm mov eax,   3141592654 };

  00000	b8 4e e6 40 bb	 mov	 eax, -1153374642	; bb40e64eH
  00005	c3		 ret	 0
?return_PI@@YAIXZ ENDP					; return_PI
_TEXT	ENDS
PUBLIC	?GetState@ioBaseChar@@QBE?AW4CharState@@XZ	; ioBaseChar::GetState
; Function compile flags: /Ogsp
; File d:\lost saga for developer\youtube\tutorial\source\src\lsclient\iobasechar.h
;	COMDAT ?GetState@ioBaseChar@@QBE?AW4CharState@@XZ
_TEXT	SEGMENT
?GetState@ioBaseChar@@QBE?AW4CharState@@XZ PROC		; ioBaseChar::GetState, COMDAT
; _this$ = ecx

; 2156 : 	inline CharState GetState() const { return m_CharState; }	

  00000	8a 81 10 03 00
	00		 mov	 al, BYTE PTR [ecx+784]
  00006	c3		 ret	 0
?GetState@ioBaseChar@@QBE?AW4CharState@@XZ ENDP		; ioBaseChar::GetState
_TEXT	ENDS
PUBLIC	_sinf
EXTRN	__fltused:DWORD
EXTRN	__CIsin:PROC
; Function compile flags: /Ogsp
; File c:\program files (x86)\microsoft visual studio 10.0\vc\include\math.h
;	COMDAT _sinf
_TEXT	SEGMENT
tv69 = 8						; size = 4
__X$ = 8						; size = 4
_sinf	PROC						; COMDAT

; 430  :         {return ((float)sin((double)_X)); }

  00000	55		 push	 ebp
  00001	8b ec		 mov	 ebp, esp
  00003	d9 45 08	 fld	 DWORD PTR __X$[ebp]
  00006	e8 00 00 00 00	 call	 __CIsin
  0000b	d9 5d 08	 fstp	 DWORD PTR tv69[ebp]
  0000e	d9 45 08	 fld	 DWORD PTR tv69[ebp]
  00011	5d		 pop	 ebp
  00012	c3		 ret	 0
_sinf	ENDP
_TEXT	ENDS
PUBLIC	??_7bad_alloc@std@@6B@				; std::bad_alloc::`vftable'
PUBLIC	??0bad_alloc@std@@QAE@PBD@Z			; std::bad_alloc::bad_alloc
PUBLIC	??_R4bad_alloc@std@@6B@				; std::bad_alloc::`RTTI Complete Object Locator'
PUBLIC	??_R0?AVbad_alloc@std@@@8			; std::bad_alloc `RTTI Type Descriptor'
PUBLIC	??_R3bad_alloc@std@@8				; std::bad_alloc::`RTTI Class Hierarchy Descriptor'
PUBLIC	??_R2bad_alloc@std@@8				; std::bad_alloc::`RTTI Base Class Array'
PUBLIC	??_R1A@?0A@EA@bad_alloc@std@@8			; std::bad_alloc::`RTTI Base Class Descriptor at (0,-1,0,64)'
PUBLIC	??_R1A@?0A@EA@exception@std@@8			; std::exception::`RTTI Base Class Descriptor at (0,-1,0,64)'
PUBLIC	??_R0?AVexception@std@@@8			; std::exception `RTTI Type Descriptor'
PUBLIC	??_R3exception@std@@8				; std::exception::`RTTI Class Hierarchy Descriptor'
PUBLIC	??_R2exception@std@@8				; std::exception::`RTTI Base Class Array'
EXTRN	__imp_??0exception@std@@QAE@ABQBD@Z:PROC
EXTRN	??_7type_info@@6B@:QWORD			; type_info::`vftable'
EXTRN	??_Ebad_alloc@std@@UAEPAXI@Z:PROC		; std::bad_alloc::`vector deleting destructor'
EXTRN	?what@exception@std@@UBEPBDXZ:PROC		; std::exception::what
;	COMDAT ??_R2exception@std@@8
; File c:\program files (x86)\microsoft visual studio 10.0\vc\include\exception
rdata$r	SEGMENT
??_R2exception@std@@8 DD FLAT:??_R1A@?0A@EA@exception@std@@8 ; std::exception::`RTTI Base Class Array'
rdata$r	ENDS
;	COMDAT ??_R3exception@std@@8
rdata$r	SEGMENT
??_R3exception@std@@8 DD 00H				; std::exception::`RTTI Class Hierarchy Descriptor'
	DD	00H
	DD	01H
	DD	FLAT:??_R2exception@std@@8
rdata$r	ENDS
;	COMDAT ??_R0?AVexception@std@@@8
_DATA	SEGMENT
??_R0?AVexception@std@@@8 DD FLAT:??_7type_info@@6B@	; std::exception `RTTI Type Descriptor'
	DD	00H
	DB	'.?AVexception@std@@', 00H
_DATA	ENDS
;	COMDAT ??_R1A@?0A@EA@exception@std@@8
rdata$r	SEGMENT
??_R1A@?0A@EA@exception@std@@8 DD FLAT:??_R0?AVexception@std@@@8 ; std::exception::`RTTI Base Class Descriptor at (0,-1,0,64)'
	DD	00H
	DD	00H
	DD	0ffffffffH
	DD	00H
	DD	040H
	DD	FLAT:??_R3exception@std@@8
rdata$r	ENDS
;	COMDAT ??_R1A@?0A@EA@bad_alloc@std@@8
rdata$r	SEGMENT
??_R1A@?0A@EA@bad_alloc@std@@8 DD FLAT:??_R0?AVbad_alloc@std@@@8 ; std::bad_alloc::`RTTI Base Class Descriptor at (0,-1,0,64)'
	DD	01H
	DD	00H
	DD	0ffffffffH
	DD	00H
	DD	040H
	DD	FLAT:??_R3bad_alloc@std@@8
rdata$r	ENDS
;	COMDAT ??_R2bad_alloc@std@@8
rdata$r	SEGMENT
??_R2bad_alloc@std@@8 DD FLAT:??_R1A@?0A@EA@bad_alloc@std@@8 ; std::bad_alloc::`RTTI Base Class Array'
	DD	FLAT:??_R1A@?0A@EA@exception@std@@8
rdata$r	ENDS
;	COMDAT ??_R3bad_alloc@std@@8
rdata$r	SEGMENT
??_R3bad_alloc@std@@8 DD 00H				; std::bad_alloc::`RTTI Class Hierarchy Descriptor'
	DD	00H
	DD	02H
	DD	FLAT:??_R2bad_alloc@std@@8
rdata$r	ENDS
;	COMDAT ??_R0?AVbad_alloc@std@@@8
_DATA	SEGMENT
??_R0?AVbad_alloc@std@@@8 DD FLAT:??_7type_info@@6B@	; std::bad_alloc `RTTI Type Descriptor'
	DD	00H
	DB	'.?AVbad_alloc@std@@', 00H
_DATA	ENDS
;	COMDAT ??_R4bad_alloc@std@@6B@
rdata$r	SEGMENT
??_R4bad_alloc@std@@6B@ DD 00H				; std::bad_alloc::`RTTI Complete Object Locator'
	DD	00H
	DD	00H
	DD	FLAT:??_R0?AVbad_alloc@std@@@8
	DD	FLAT:??_R3bad_alloc@std@@8
rdata$r	ENDS
;	COMDAT ??_7bad_alloc@std@@6B@
CONST	SEGMENT
??_7bad_alloc@std@@6B@ DD FLAT:??_R4bad_alloc@std@@6B@	; std::bad_alloc::`vftable'
	DD	FLAT:??_Ebad_alloc@std@@UAEPAXI@Z
	DD	FLAT:?what@exception@std@@UBEPBDXZ
; Function compile flags: /Ogsp
CONST	ENDS
;	COMDAT ??0bad_alloc@std@@QAE@PBD@Z
_TEXT	SEGMENT
__Message$ = 8						; size = 4
??0bad_alloc@std@@QAE@PBD@Z PROC			; std::bad_alloc::bad_alloc, COMDAT
; _this$ = ecx

; 345  : 		{	// construct from message string

  00000	55		 push	 ebp
  00001	8b ec		 mov	 ebp, esp
  00003	56		 push	 esi
  00004	8d 45 08	 lea	 eax, DWORD PTR __Message$[ebp]
  00007	50		 push	 eax
  00008	8b f1		 mov	 esi, ecx
  0000a	ff 15 00 00 00
	00		 call	 DWORD PTR __imp_??0exception@std@@QAE@ABQBD@Z
  00010	c7 06 00 00 00
	00		 mov	 DWORD PTR [esi], OFFSET ??_7bad_alloc@std@@6B@

; 346  : 		}

  00016	8b c6		 mov	 eax, esi
  00018	5e		 pop	 esi
  00019	5d		 pop	 ebp
  0001a	c2 04 00	 ret	 4
??0bad_alloc@std@@QAE@PBD@Z ENDP			; std::bad_alloc::bad_alloc
_TEXT	ENDS
PUBLIC	??1bad_alloc@std@@UAE@XZ			; std::bad_alloc::~bad_alloc
EXTRN	__imp_??1exception@std@@UAE@XZ:PROC
; Function compile flags: /Ogsp
;	COMDAT ??1bad_alloc@std@@UAE@XZ
_TEXT	SEGMENT
??1bad_alloc@std@@UAE@XZ PROC				; std::bad_alloc::~bad_alloc, COMDAT
; _this$ = ecx

; 354  : 		{	// destroy the object

  00000	c7 01 00 00 00
	00		 mov	 DWORD PTR [ecx], OFFSET ??_7bad_alloc@std@@6B@

; 355  : 		}

  00006	ff 25 00 00 00
	00		 jmp	 DWORD PTR __imp_??1exception@std@@UAE@XZ
??1bad_alloc@std@@UAE@XZ ENDP				; std::bad_alloc::~bad_alloc
_TEXT	ENDS
EXTRN	??3@YAXPAX@Z:PROC				; operator delete
; Function compile flags: /Ogsp
;	COMDAT ??_Gbad_alloc@std@@UAEPAXI@Z
_TEXT	SEGMENT
___flags$ = 8						; size = 4
??_Gbad_alloc@std@@UAEPAXI@Z PROC			; std::bad_alloc::`scalar deleting destructor', COMDAT
; _this$ = ecx
  00000	55		 push	 ebp
  00001	8b ec		 mov	 ebp, esp
  00003	56		 push	 esi
  00004	8b f1		 mov	 esi, ecx
  00006	c7 06 00 00 00
	00		 mov	 DWORD PTR [esi], OFFSET ??_7bad_alloc@std@@6B@
  0000c	ff 15 00 00 00
	00		 call	 DWORD PTR __imp_??1exception@std@@UAE@XZ
  00012	f6 45 08 01	 test	 BYTE PTR ___flags$[ebp], 1
  00016	74 07		 je	 SHORT $LN1@scalar
  00018	56		 push	 esi
  00019	e8 00 00 00 00	 call	 ??3@YAXPAX@Z		; operator delete
  0001e	59		 pop	 ecx
$LN1@scalar:
  0001f	8b c6		 mov	 eax, esi
  00021	5e		 pop	 esi
  00022	5d		 pop	 ebp
  00023	c2 04 00	 ret	 4
??_Gbad_alloc@std@@UAEPAXI@Z ENDP			; std::bad_alloc::`scalar deleting destructor'
_TEXT	ENDS
PUBLIC	??2@YAPAXIPAX@Z					; operator new
; Function compile flags: /Ogsp
; File c:\program files (x86)\microsoft visual studio 10.0\vc\include\new
;	COMDAT ??2@YAPAXIPAX@Z
_TEXT	SEGMENT
___formal$ = 8						; size = 4
__Where$ = 12						; size = 4
??2@YAPAXIPAX@Z PROC					; operator new, COMDAT

; 56   : 	{	// construct array with placement at _Where

  00000	55		 push	 ebp
  00001	8b ec		 mov	 ebp, esp

; 57   : 	return (_Where);

  00003	8b 45 0c	 mov	 eax, DWORD PTR __Where$[ebp]

; 58   : 	}

  00006	5d		 pop	 ebp
  00007	c3		 ret	 0
??2@YAPAXIPAX@Z ENDP					; operator new
_TEXT	ENDS
PUBLIC	??3@YAXPAX0@Z					; operator delete
; Function compile flags: /Ogsp
;	COMDAT ??3@YAXPAX0@Z
_TEXT	SEGMENT
___formal$ = 8						; size = 4
___formal$ = 12						; size = 4
??3@YAXPAX0@Z PROC					; operator delete, COMDAT

; 62   : 	}

  00000	c3		 ret	 0
??3@YAXPAX0@Z ENDP					; operator delete
_TEXT	ENDS
PUBLIC	?IsHelpBarShow@TotalResultMainWnd@@SA_NXZ	; TotalResultMainWnd::IsHelpBarShow
EXTRN	?sg_bHelpBarShow@TotalResultMainWnd@@1_NA:BYTE	; TotalResultMainWnd::sg_bHelpBarShow
; Function compile flags: /Ogsp
; File d:\lost saga for developer\youtube\tutorial\source\src\lsclient\gui\totalresultmainwnd.h
;	COMDAT ?IsHelpBarShow@TotalResultMainWnd@@SA_NXZ
_TEXT	SEGMENT
?IsHelpBarShow@TotalResultMainWnd@@SA_NXZ PROC		; TotalResultMainWnd::IsHelpBarShow, COMDAT

; 1095 : 	static bool IsHelpBarShow(){ return sg_bHelpBarShow; }

  00000	a0 00 00 00 00	 mov	 al, BYTE PTR ?sg_bHelpBarShow@TotalResultMainWnd@@1_NA ; TotalResultMainWnd::sg_bHelpBarShow
  00005	c3		 ret	 0
?IsHelpBarShow@TotalResultMainWnd@@SA_NXZ ENDP		; TotalResultMainWnd::IsHelpBarShow
_TEXT	ENDS
PUBLIC	?SetMenuStyle@MenuBase@@QAEXW4MenuStyle@1@@Z	; MenuBase::SetMenuStyle
; Function compile flags: /Ogsp
; File d:\lost saga for developer\youtube\tutorial\source\src\lsclient\gui\helpwnd.h
;	COMDAT ?SetMenuStyle@MenuBase@@QAEXW4MenuStyle@1@@Z
_TEXT	SEGMENT
_eStyle$ = 8						; size = 4
?SetMenuStyle@MenuBase@@QAEXW4MenuStyle@1@@Z PROC	; MenuBase::SetMenuStyle, COMDAT
; _this$ = ecx

; 42   : 	__forceinline void SetMenuStyle( MenuBase::MenuStyle eStyle ){ m_eMenuStyle = eStyle; }

  00000	55		 push	 ebp
  00001	8b ec		 mov	 ebp, esp
  00003	8b 45 08	 mov	 eax, DWORD PTR _eStyle$[ebp]
  00006	89 81 2c 02 00
	00		 mov	 DWORD PTR [ecx+556], eax
  0000c	5d		 pop	 ebp
  0000d	c2 04 00	 ret	 4
?SetMenuStyle@MenuBase@@QAEXW4MenuStyle@1@@Z ENDP	; MenuBase::SetMenuStyle
_TEXT	ENDS
PUBLIC	?IsSparkling@MenuBtn@@QBEAB_NXZ			; MenuBtn::IsSparkling
; Function compile flags: /Ogsp
;	COMDAT ?IsSparkling@MenuBtn@@QBEAB_NXZ
_TEXT	SEGMENT
?IsSparkling@MenuBtn@@QBEAB_NXZ PROC			; MenuBtn::IsSparkling, COMDAT
; _this$ = ecx

; 116  : 	const bool& IsSparkling() const { return m_bUseSparkle; }

  00000	8d 81 8c 02 00
	00		 lea	 eax, DWORD PTR [ecx+652]
  00006	c3		 ret	 0
?IsSparkling@MenuBtn@@QBEAB_NXZ ENDP			; MenuBtn::IsSparkling
_TEXT	ENDS
PUBLIC	?IsMoveStateShow@HelpWnd@@SA_NXZ		; HelpWnd::IsMoveStateShow
; Function compile flags: /Ogsp
;	COMDAT ?IsMoveStateShow@HelpWnd@@SA_NXZ
_TEXT	SEGMENT
?IsMoveStateShow@HelpWnd@@SA_NXZ PROC			; HelpWnd::IsMoveStateShow, COMDAT

; 338  : 	static bool IsMoveStateShow(){ return ( sg_dwMoveState == MOVE_STATE_SHOW ); }

  00000	33 c0		 xor	 eax, eax
  00002	39 05 00 00 00
	00		 cmp	 DWORD PTR ?sg_dwMoveState@HelpWnd@@1KA, eax ; HelpWnd::sg_dwMoveState
  00008	0f 94 c0	 sete	 al
  0000b	c3		 ret	 0
?IsMoveStateShow@HelpWnd@@SA_NXZ ENDP			; HelpWnd::IsMoveStateShow
_TEXT	ENDS
PUBLIC	??0TilePos@@QAE@HHH@Z				; TilePos::TilePos
; Function compile flags: /Ogsp
; File d:\lost saga for developer\youtube\tutorial\source\src\lsclient\housing\blockdefine.h
;	COMDAT ??0TilePos@@QAE@HHH@Z
_TEXT	SEGMENT
_nX$ = 8						; size = 4
_nY$ = 12						; size = 4
_nZ$ = 16						; size = 4
??0TilePos@@QAE@HHH@Z PROC				; TilePos::TilePos, COMDAT
; _this$ = ecx

; 96   : 	TilePos( int nX, int nY, int nZ )

  00000	55		 push	 ebp
  00001	8b ec		 mov	 ebp, esp
  00003	8b c1		 mov	 eax, ecx

; 97   : 	{
; 98   : 		x		= nX;

  00005	8b 4d 08	 mov	 ecx, DWORD PTR _nX$[ebp]

; 99   : 		y		= nY;
; 100  : 		z		= nZ;
; 101  : 		event	= 0;

  00008	83 60 0c 00	 and	 DWORD PTR [eax+12], 0
  0000c	89 08		 mov	 DWORD PTR [eax], ecx
  0000e	8b 4d 0c	 mov	 ecx, DWORD PTR _nY$[ebp]
  00011	89 48 08	 mov	 DWORD PTR [eax+8], ecx
  00014	8b 4d 10	 mov	 ecx, DWORD PTR _nZ$[ebp]
  00017	89 48 04	 mov	 DWORD PTR [eax+4], ecx

; 102  : 	}

  0001a	5d		 pop	 ebp
  0001b	c2 0c 00	 ret	 12			; 0000000cH
??0TilePos@@QAE@HHH@Z ENDP				; TilePos::TilePos
_TEXT	ENDS
PUBLIC	?IsRequestTime@RollBookWnd@@QAEAB_NXZ		; RollBookWnd::IsRequestTime
; Function compile flags: /Ogsp
; File d:\lost saga for developer\youtube\tutorial\source\src\lsclient\gui\rollbookwnd.h
;	COMDAT ?IsRequestTime@RollBookWnd@@QAEAB_NXZ
_TEXT	SEGMENT
?IsRequestTime@RollBookWnd@@QAEAB_NXZ PROC		; RollBookWnd::IsRequestTime, COMDAT
; _this$ = ecx

; 160  : 	inline const bool&	IsRequestTime() { return m_bRequestTime; }

  00000	8d 81 7c 01 00
	00		 lea	 eax, DWORD PTR [ecx+380]
  00006	c3		 ret	 0
?IsRequestTime@RollBookWnd@@QAEAB_NXZ ENDP		; RollBookWnd::IsRequestTime
_TEXT	ENDS
PUBLIC	??_7MenuBase@@6B@				; MenuBase::`vftable'
PUBLIC	??0MenuBase@@QAE@XZ				; MenuBase::MenuBase
PUBLIC	??_R4MenuBase@@6B@				; MenuBase::`RTTI Complete Object Locator'
PUBLIC	??_R0?AVMenuBase@@@8				; MenuBase `RTTI Type Descriptor'
PUBLIC	??_R3MenuBase@@8				; MenuBase::`RTTI Class Hierarchy Descriptor'
PUBLIC	??_R2MenuBase@@8				; MenuBase::`RTTI Base Class Array'
PUBLIC	??_R1A@?0A@EA@MenuBase@@8			; MenuBase::`RTTI Base Class Descriptor at (0,-1,0,64)'
PUBLIC	??_R1A@?0A@EA@ioButton@@8			; ioButton::`RTTI Base Class Descriptor at (0,-1,0,64)'
PUBLIC	??_R0?AVioButton@@@8				; ioButton `RTTI Type Descriptor'
PUBLIC	??_R3ioButton@@8				; ioButton::`RTTI Class Hierarchy Descriptor'
PUBLIC	??_R2ioButton@@8				; ioButton::`RTTI Base Class Array'
PUBLIC	??_R1A@?0A@EA@ioWnd@@8				; ioWnd::`RTTI Base Class Descriptor at (0,-1,0,64)'
PUBLIC	??_R0?AVioWnd@@@8				; ioWnd `RTTI Type Descriptor'
PUBLIC	??_R3ioWnd@@8					; ioWnd::`RTTI Class Hierarchy Descriptor'
PUBLIC	??_R2ioWnd@@8					; ioWnd::`RTTI Base Class Array'
PUBLIC	?AddRenderFrame@MenuBase@@MAEXABVioHashString@@PAVioUIRenderFrame@@@Z ; MenuBase::AddRenderFrame
PUBLIC	?OnDrawNormal@MenuBase@@MAEXHH@Z		; MenuBase::OnDrawNormal
PUBLIC	?OnDrawOvered@MenuBase@@MAEXHH@Z		; MenuBase::OnDrawOvered
PUBLIC	?OnDrawOveredAdd@MenuBase@@MAEXHH@Z		; MenuBase::OnDrawOveredAdd
PUBLIC	?OnDrawPushed@MenuBase@@MAEXHH@Z		; MenuBase::OnDrawPushed
EXTRN	__imp_??0ioButton@@QAE@XZ:PROC
EXTRN	?AddRenderImage@ioButton@@UAEXABVioHashString@@PAVioUIRenderImage@@@Z:PROC ; ioButton::AddRenderImage
EXTRN	?AddTooltipHelp@ioWnd@@UAEXABVioHashString@@00@Z:PROC ; ioWnd::AddTooltipHelp
EXTRN	?ParseExtraInfo@ioButton@@UAEXAAVioXMLElement@@@Z:PROC ; ioButton::ParseExtraInfo
EXTRN	?AddNamedRenderImage@ioWnd@@UAEXABVioHashString@@PAVioUIRenderImage@@@Z:PROC ; ioWnd::AddNamedRenderImage
EXTRN	?RemoveNamedRenderImage@ioWnd@@UAEXABVioHashString@@@Z:PROC ; ioWnd::RemoveNamedRenderImage
EXTRN	?GetNamedRenderImage@ioWnd@@UBEPAVioUIRenderImage@@ABVioHashString@@@Z:PROC ; ioWnd::GetNamedRenderImage
EXTRN	?SetWindowAlpha@ioButton@@UAEXH@Z:PROC		; ioButton::SetWindowAlpha
EXTRN	?SetActive@ioWnd@@UAEXXZ:PROC			; ioWnd::SetActive
EXTRN	?SetInActive@ioWnd@@UAEXXZ:PROC			; ioWnd::SetInActive
EXTRN	?ClearElementImageList@ioWnd@@UAEXXZ:PROC	; ioWnd::ClearElementImageList
EXTRN	?SetSize@ioWnd@@UAEXHH@Z:PROC			; ioWnd::SetSize
EXTRN	?SetPositionToDefault@ioWnd@@UAEXHH_N0@Z:PROC	; ioWnd::SetPositionToDefault
EXTRN	?IsNeedProcess@ioWnd@@UBE_NXZ:PROC		; ioWnd::IsNeedProcess
EXTRN	?IsCanMouseReaction@ioWnd@@UBE_NXZ:PROC		; ioWnd::IsCanMouseReaction
EXTRN	?AddChild@ioWnd@@UAEXPAV1@@Z:PROC		; ioWnd::AddChild
EXTRN	?DeleteChild@ioWnd@@UAEXK@Z:PROC		; ioWnd::DeleteChild
EXTRN	?DeleteAllChild@ioWnd@@UAEXXZ:PROC		; ioWnd::DeleteAllChild
EXTRN	?OnRenderShowAndHide@ioWnd@@MAE_NXZ:PROC	; ioWnd::OnRenderShowAndHide
EXTRN	?OnRenderShowAndHideByDefault@ioWnd@@MAE_NK@Z:PROC ; ioWnd::OnRenderShowAndHideByDefault
EXTRN	?OnRenderShowAndHideByTop@ioWnd@@MAE_NK@Z:PROC	; ioWnd::OnRenderShowAndHideByTop
EXTRN	?OnRenderShowAndHideByDown@ioWnd@@MAE_NK@Z:PROC	; ioWnd::OnRenderShowAndHideByDown
EXTRN	?OnRender@ioButton@@MAEXXZ:PROC			; ioButton::OnRender
EXTRN	?OnRenderAfterChild@ioWnd@@MAEXXZ:PROC		; ioWnd::OnRenderAfterChild
EXTRN	?OnProcess@ioWnd@@MAEXM@Z:PROC			; ioWnd::OnProcess
EXTRN	?OnMouseProcess@ioWnd@@MAEXABVioMouse@@@Z:PROC	; ioWnd::OnMouseProcess
EXTRN	?CheckFrameReSize@ioButton@@MAEXHHHH@Z:PROC	; ioButton::CheckFrameReSize
EXTRN	?RenderImageList@ioWnd@@MAEXHHW4UIRenderType@@@Z:PROC ; ioWnd::RenderImageList
EXTRN	?iwm_create@ioWnd@@UAEXXZ:PROC			; ioWnd::iwm_create
EXTRN	?iwm_destroy@ioWnd@@UAEXXZ:PROC			; ioWnd::iwm_destroy
EXTRN	?iwm_lbuttondown@ioButton@@UAEXABVioMouse@@@Z:PROC ; ioButton::iwm_lbuttondown
EXTRN	?iwm_lbuttonup@ioButton@@UAEXABVioMouse@@@Z:PROC ; ioButton::iwm_lbuttonup
EXTRN	?iwm_lbuttonDBLCLK@ioButton@@UAEXABVioMouse@@@Z:PROC ; ioButton::iwm_lbuttonDBLCLK
EXTRN	?iwm_rbuttondown@ioButton@@UAEXABVioMouse@@@Z:PROC ; ioButton::iwm_rbuttondown
EXTRN	?iwm_rbuttonup@ioButton@@UAEXABVioMouse@@@Z:PROC ; ioButton::iwm_rbuttonup
EXTRN	?iwm_command@ioWnd@@UAEXPAV1@HK@Z:PROC		; ioWnd::iwm_command
EXTRN	?iwm_mouseover@ioButton@@UAEXABVioMouse@@@Z:PROC ; ioButton::iwm_mouseover
EXTRN	?iwm_mousemove@ioWnd@@UAEXABVioMouse@@@Z:PROC	; ioWnd::iwm_mousemove
EXTRN	?iwm_mouseleave@ioWnd@@UAEXABVioMouse@@@Z:PROC	; ioWnd::iwm_mouseleave
EXTRN	?iwm_vscroll@ioWnd@@UAEXKH@Z:PROC		; ioWnd::iwm_vscroll
EXTRN	?iwm_wheel@ioWnd@@UAEXH@Z:PROC			; ioWnd::iwm_wheel
EXTRN	?iwm_show@ioWnd@@UAEXXZ:PROC			; ioWnd::iwm_show
EXTRN	?iwm_hide@ioWnd@@UAEXXZ:PROC			; ioWnd::iwm_hide
EXTRN	?iwm_esc@ioWnd@@UAE_NXZ:PROC			; ioWnd::iwm_esc
EXTRN	?iwm_spacebar@ioWnd@@UAE_NXZ:PROC		; ioWnd::iwm_spacebar
EXTRN	?iwm_gototop@ioWnd@@UAEXXZ:PROC			; ioWnd::iwm_gototop
EXTRN	?iwm_dragenter@ioWnd@@UAE?AW4IWDropEffect@@PAVioDragItem@@ABVioMouse@@@Z:PROC ; ioWnd::iwm_dragenter
EXTRN	?iwm_dragover@ioWnd@@UAE?AW4IWDropEffect@@PAVioDragItem@@ABVioMouse@@@Z:PROC ; ioWnd::iwm_dragover
EXTRN	?iwm_dragleave@ioWnd@@UAEXXZ:PROC		; ioWnd::iwm_dragleave
EXTRN	?iwm_dropitem@ioWnd@@UAE_NPAVioDragItem@@ABVioMouse@@PAV1@@Z:PROC ; ioWnd::iwm_dropitem
EXTRN	?iwm_dropdone@ioWnd@@UAEXPAVioDragItem@@PAV1@_N@Z:PROC ; ioWnd::iwm_dropdone
EXTRN	?IsEXType@ioWnd@@UBE_NXZ:PROC			; ioWnd::IsEXType
EXTRN	?GetWndType@ioButton@@UBEKXZ:PROC		; ioButton::GetWndType
EXTRN	?RenderWnd@ioWnd@@UAEXXZ:PROC			; ioWnd::RenderWnd
EXTRN	?SetIDEX@ioWnd@@UAEXAAK_N@Z:PROC		; ioWnd::SetIDEX
EXTRN	?ParseXML@ioWnd@@UAEXAAVioXMLElement@@@Z:PROC	; ioWnd::ParseXML
EXTRN	?GetHeaderFileName@ioButton@@UAEPBDXZ:PROC	; ioButton::GetHeaderFileName
EXTRN	?GetTemplateName@ioButton@@UAEPBDXZ:PROC	; ioButton::GetTemplateName
EXTRN	?GetDefClassName@ioButton@@UBEPBDXZ:PROC	; ioButton::GetDefClassName
EXTRN	?_Clone@ioButton@@UAEPAVioWnd@@XZ:PROC		; ioButton::_Clone
EXTRN	?Copy@ioButton@@UAEXPAVioWnd@@@Z:PROC		; ioButton::Copy
EXTRN	?Save@ioWnd@@UAE_NAAVioXMLElement@@@Z:PROC	; ioWnd::Save
EXTRN	?SetSaveData@ioButton@@UAEXAAVioXMLElement@@@Z:PROC ; ioButton::SetSaveData
EXTRN	?SetPosX@ioWnd@@UAEXH@Z:PROC			; ioWnd::SetPosX
EXTRN	?SetPosY@ioWnd@@UAEXH@Z:PROC			; ioWnd::SetPosY
EXTRN	?SetWidth@ioWnd@@UAEXH@Z:PROC			; ioWnd::SetWidth
EXTRN	?SetHeight@ioWnd@@UAEXH@Z:PROC			; ioWnd::SetHeight
EXTRN	?GetNumFixedRenderFrame@ioButton@@UBEHXZ:PROC	; ioButton::GetNumFixedRenderFrame
EXTRN	?GetFixedRenderFrameType@ioButton@@UAEPBDH@Z:PROC ; ioButton::GetFixedRenderFrameType
EXTRN	?GetRenderFrame@ioButton@@UAEPAPAVioUIRenderElement@@PBD@Z:PROC ; ioButton::GetRenderFrame
EXTRN	?GetNumFixedRenderImage@ioButton@@UBEHXZ:PROC	; ioButton::GetNumFixedRenderImage
EXTRN	?GetFixedRenderImageType@ioButton@@UAEPBDH@Z:PROC ; ioButton::GetFixedRenderImageType
EXTRN	?GetRenderImage@ioButton@@UAEPAPAVioUIRenderElement@@PBD@Z:PROC ; ioButton::GetRenderImage
EXTRN	?AddEffect@ioWnd@@UAEXABVioHashString@@PAVioUI3DEffectRender@@@Z:PROC ; ioWnd::AddEffect
EXTRN	?GetEffect@ioWnd@@UAEPAVioUI3DEffectRender@@VioHashString@@@Z:PROC ; ioWnd::GetEffect
EXTRN	??_EMenuBase@@UAEPAXI@Z:PROC			; MenuBase::`vector deleting destructor'
EXTRN	?OnDrawDisabled@ioButton@@MAEXHH@Z:PROC		; ioButton::OnDrawDisabled
EXTRN	?OnDrawExDisabledNormal@ioButton@@MAEXHH@Z:PROC	; ioButton::OnDrawExDisabledNormal
EXTRN	?OnDrawExDisabledOvered@ioButton@@MAEXHH@Z:PROC	; ioButton::OnDrawExDisabledOvered
EXTRN	?OnDrawExDisabledPushed@ioButton@@MAEXHH@Z:PROC	; ioButton::OnDrawExDisabledPushed
EXTRN	?OnDrawBack@ioButton@@MAEXHH@Z:PROC		; ioButton::OnDrawBack
EXTRN	?OnDrawNormalList@ioButton@@MAEXHH@Z:PROC	; ioButton::OnDrawNormalList
EXTRN	?OnDrawDisableList@ioButton@@MAEXHH@Z:PROC	; ioButton::OnDrawDisableList
;	COMDAT ??_R2ioWnd@@8
; File d:\lost saga for developer\youtube\tutorial\source\src\lsclient\gui\helpwnd.cpp
rdata$r	SEGMENT
??_R2ioWnd@@8 DD FLAT:??_R1A@?0A@EA@ioWnd@@8		; ioWnd::`RTTI Base Class Array'
rdata$r	ENDS
;	COMDAT ??_R3ioWnd@@8
rdata$r	SEGMENT
??_R3ioWnd@@8 DD 00H					; ioWnd::`RTTI Class Hierarchy Descriptor'
	DD	00H
	DD	01H
	DD	FLAT:??_R2ioWnd@@8
rdata$r	ENDS
;	COMDAT ??_R0?AVioWnd@@@8
_DATA	SEGMENT
??_R0?AVioWnd@@@8 DD FLAT:??_7type_info@@6B@		; ioWnd `RTTI Type Descriptor'
	DD	00H
	DB	'.?AVioWnd@@', 00H
_DATA	ENDS
;	COMDAT ??_R1A@?0A@EA@ioWnd@@8
rdata$r	SEGMENT
??_R1A@?0A@EA@ioWnd@@8 DD FLAT:??_R0?AVioWnd@@@8	; ioWnd::`RTTI Base Class Descriptor at (0,-1,0,64)'
	DD	00H
	DD	00H
	DD	0ffffffffH
	DD	00H
	DD	040H
	DD	FLAT:??_R3ioWnd@@8
rdata$r	ENDS
;	COMDAT ??_R2ioButton@@8
rdata$r	SEGMENT
??_R2ioButton@@8 DD FLAT:??_R1A@?0A@EA@ioButton@@8	; ioButton::`RTTI Base Class Array'
	DD	FLAT:??_R1A@?0A@EA@ioWnd@@8
rdata$r	ENDS
;	COMDAT ??_R3ioButton@@8
rdata$r	SEGMENT
??_R3ioButton@@8 DD 00H					; ioButton::`RTTI Class Hierarchy Descriptor'
	DD	00H
	DD	02H
	DD	FLAT:??_R2ioButton@@8
rdata$r	ENDS
;	COMDAT ??_R0?AVioButton@@@8
_DATA	SEGMENT
??_R0?AVioButton@@@8 DD FLAT:??_7type_info@@6B@		; ioButton `RTTI Type Descriptor'
	DD	00H
	DB	'.?AVioButton@@', 00H
_DATA	ENDS
;	COMDAT ??_R1A@?0A@EA@ioButton@@8
rdata$r	SEGMENT
??_R1A@?0A@EA@ioButton@@8 DD FLAT:??_R0?AVioButton@@@8	; ioButton::`RTTI Base Class Descriptor at (0,-1,0,64)'
	DD	01H
	DD	00H
	DD	0ffffffffH
	DD	00H
	DD	040H
	DD	FLAT:??_R3ioButton@@8
rdata$r	ENDS
;	COMDAT ??_R1A@?0A@EA@MenuBase@@8
rdata$r	SEGMENT
??_R1A@?0A@EA@MenuBase@@8 DD FLAT:??_R0?AVMenuBase@@@8	; MenuBase::`RTTI Base Class Descriptor at (0,-1,0,64)'
	DD	02H
	DD	00H
	DD	0ffffffffH
	DD	00H
	DD	040H
	DD	FLAT:??_R3MenuBase@@8
rdata$r	ENDS
;	COMDAT ??_R2MenuBase@@8
rdata$r	SEGMENT
??_R2MenuBase@@8 DD FLAT:??_R1A@?0A@EA@MenuBase@@8	; MenuBase::`RTTI Base Class Array'
	DD	FLAT:??_R1A@?0A@EA@ioButton@@8
	DD	FLAT:??_R1A@?0A@EA@ioWnd@@8
rdata$r	ENDS
;	COMDAT ??_R3MenuBase@@8
rdata$r	SEGMENT
??_R3MenuBase@@8 DD 00H					; MenuBase::`RTTI Class Hierarchy Descriptor'
	DD	00H
	DD	03H
	DD	FLAT:??_R2MenuBase@@8
rdata$r	ENDS
;	COMDAT ??_R0?AVMenuBase@@@8
_DATA	SEGMENT
??_R0?AVMenuBase@@@8 DD FLAT:??_7type_info@@6B@		; MenuBase `RTTI Type Descriptor'
	DD	00H
	DB	'.?AVMenuBase@@', 00H
_DATA	ENDS
;	COMDAT ??_R4MenuBase@@6B@
rdata$r	SEGMENT
??_R4MenuBase@@6B@ DD 00H				; MenuBase::`RTTI Complete Object Locator'
	DD	00H
	DD	00H
	DD	FLAT:??_R0?AVMenuBase@@@8
	DD	FLAT:??_R3MenuBase@@8
rdata$r	ENDS
;	COMDAT ??_7MenuBase@@6B@
CONST	SEGMENT
??_7MenuBase@@6B@ DD FLAT:??_R4MenuBase@@6B@		; MenuBase::`vftable'
	DD	FLAT:?AddRenderFrame@MenuBase@@MAEXABVioHashString@@PAVioUIRenderFrame@@@Z
	DD	FLAT:?AddRenderImage@ioButton@@UAEXABVioHashString@@PAVioUIRenderImage@@@Z
	DD	FLAT:?AddTooltipHelp@ioWnd@@UAEXABVioHashString@@00@Z
	DD	FLAT:?ParseExtraInfo@ioButton@@UAEXAAVioXMLElement@@@Z
	DD	FLAT:?AddNamedRenderImage@ioWnd@@UAEXABVioHashString@@PAVioUIRenderImage@@@Z
	DD	FLAT:?RemoveNamedRenderImage@ioWnd@@UAEXABVioHashString@@@Z
	DD	FLAT:?GetNamedRenderImage@ioWnd@@UBEPAVioUIRenderImage@@ABVioHashString@@@Z
	DD	FLAT:?SetWindowAlpha@ioButton@@UAEXH@Z
	DD	FLAT:?SetActive@ioWnd@@UAEXXZ
	DD	FLAT:?SetInActive@ioWnd@@UAEXXZ
	DD	FLAT:?ClearElementImageList@ioWnd@@UAEXXZ
	DD	FLAT:?SetSize@ioWnd@@UAEXHH@Z
	DD	FLAT:?SetPositionToDefault@ioWnd@@UAEXHH_N0@Z
	DD	FLAT:?IsNeedProcess@ioWnd@@UBE_NXZ
	DD	FLAT:?IsCanMouseReaction@ioWnd@@UBE_NXZ
	DD	FLAT:?AddChild@ioWnd@@UAEXPAV1@@Z
	DD	FLAT:?DeleteChild@ioWnd@@UAEXK@Z
	DD	FLAT:?DeleteAllChild@ioWnd@@UAEXXZ
	DD	FLAT:?OnRenderShowAndHide@ioWnd@@MAE_NXZ
	DD	FLAT:?OnRenderShowAndHideByDefault@ioWnd@@MAE_NK@Z
	DD	FLAT:?OnRenderShowAndHideByTop@ioWnd@@MAE_NK@Z
	DD	FLAT:?OnRenderShowAndHideByDown@ioWnd@@MAE_NK@Z
	DD	FLAT:?OnRender@ioButton@@MAEXXZ
	DD	FLAT:?OnRenderAfterChild@ioWnd@@MAEXXZ
	DD	FLAT:?OnProcess@ioWnd@@MAEXM@Z
	DD	FLAT:?OnMouseProcess@ioWnd@@MAEXABVioMouse@@@Z
	DD	FLAT:?CheckFrameReSize@ioButton@@MAEXHHHH@Z
	DD	FLAT:?RenderImageList@ioWnd@@MAEXHHW4UIRenderType@@@Z
	DD	FLAT:?iwm_create@ioWnd@@UAEXXZ
	DD	FLAT:?iwm_destroy@ioWnd@@UAEXXZ
	DD	FLAT:?iwm_lbuttondown@ioButton@@UAEXABVioMouse@@@Z
	DD	FLAT:?iwm_lbuttonup@ioButton@@UAEXABVioMouse@@@Z
	DD	FLAT:?iwm_lbuttonDBLCLK@ioButton@@UAEXABVioMouse@@@Z
	DD	FLAT:?iwm_rbuttondown@ioButton@@UAEXABVioMouse@@@Z
	DD	FLAT:?iwm_rbuttonup@ioButton@@UAEXABVioMouse@@@Z
	DD	FLAT:?iwm_command@ioWnd@@UAEXPAV1@HK@Z
	DD	FLAT:?iwm_mouseover@ioButton@@UAEXABVioMouse@@@Z
	DD	FLAT:?iwm_mousemove@ioWnd@@UAEXABVioMouse@@@Z
	DD	FLAT:?iwm_mouseleave@ioWnd@@UAEXABVioMouse@@@Z
	DD	FLAT:?iwm_vscroll@ioWnd@@UAEXKH@Z
	DD	FLAT:?iwm_wheel@ioWnd@@UAEXH@Z
	DD	FLAT:?iwm_show@ioWnd@@UAEXXZ
	DD	FLAT:?iwm_hide@ioWnd@@UAEXXZ
	DD	FLAT:?iwm_esc@ioWnd@@UAE_NXZ
	DD	FLAT:?iwm_spacebar@ioWnd@@UAE_NXZ
	DD	FLAT:?iwm_gototop@ioWnd@@UAEXXZ
	DD	FLAT:?iwm_dragenter@ioWnd@@UAE?AW4IWDropEffect@@PAVioDragItem@@ABVioMouse@@@Z
	DD	FLAT:?iwm_dragover@ioWnd@@UAE?AW4IWDropEffect@@PAVioDragItem@@ABVioMouse@@@Z
	DD	FLAT:?iwm_dragleave@ioWnd@@UAEXXZ
	DD	FLAT:?iwm_dropitem@ioWnd@@UAE_NPAVioDragItem@@ABVioMouse@@PAV1@@Z
	DD	FLAT:?iwm_dropdone@ioWnd@@UAEXPAVioDragItem@@PAV1@_N@Z
	DD	FLAT:?IsEXType@ioWnd@@UBE_NXZ
	DD	FLAT:?GetWndType@ioButton@@UBEKXZ
	DD	FLAT:?RenderWnd@ioWnd@@UAEXXZ
	DD	FLAT:?SetIDEX@ioWnd@@UAEXAAK_N@Z
	DD	FLAT:?ParseXML@ioWnd@@UAEXAAVioXMLElement@@@Z
	DD	FLAT:?GetHeaderFileName@ioButton@@UAEPBDXZ
	DD	FLAT:?GetTemplateName@ioButton@@UAEPBDXZ
	DD	FLAT:?GetDefClassName@ioButton@@UBEPBDXZ
	DD	FLAT:?_Clone@ioButton@@UAEPAVioWnd@@XZ
	DD	FLAT:?Copy@ioButton@@UAEXPAVioWnd@@@Z
	DD	FLAT:?Save@ioWnd@@UAE_NAAVioXMLElement@@@Z
	DD	FLAT:?SetSaveData@ioButton@@UAEXAAVioXMLElement@@@Z
	DD	FLAT:?SetPosX@ioWnd@@UAEXH@Z
	DD	FLAT:?SetPosY@ioWnd@@UAEXH@Z
	DD	FLAT:?SetWidth@ioWnd@@UAEXH@Z
	DD	FLAT:?SetHeight@ioWnd@@UAEXH@Z
	DD	FLAT:?GetNumFixedRenderFrame@ioButton@@UBEHXZ
	DD	FLAT:?GetFixedRenderFrameType@ioButton@@UAEPBDH@Z
	DD	FLAT:?GetRenderFrame@ioButton@@UAEPAPAVioUIRenderElement@@PBD@Z
	DD	FLAT:?GetNumFixedRenderImage@ioButton@@UBEHXZ
	DD	FLAT:?GetFixedRenderImageType@ioButton@@UAEPBDH@Z
	DD	FLAT:?GetRenderImage@ioButton@@UAEPAPAVioUIRenderElement@@PBD@Z
	DD	FLAT:?AddEffect@ioWnd@@UAEXABVioHashString@@PAVioUI3DEffectRender@@@Z
	DD	FLAT:?GetEffect@ioWnd@@UAEPAVioUI3DEffectRender@@VioHashString@@@Z
	DD	FLAT:??_EMenuBase@@UAEPAXI@Z
	DD	FLAT:?OnDrawNormal@MenuBase@@MAEXHH@Z
	DD	FLAT:?OnDrawOvered@MenuBase@@MAEXHH@Z
	DD	FLAT:?OnDrawOveredAdd@MenuBase@@MAEXHH@Z
	DD	FLAT:?OnDrawPushed@MenuBase@@MAEXHH@Z
	DD	FLAT:?OnDrawDisabled@ioButton@@MAEXHH@Z
	DD	FLAT:?OnDrawExDisabledNormal@ioButton@@MAEXHH@Z
	DD	FLAT:?OnDrawExDisabledOvered@ioButton@@MAEXHH@Z
	DD	FLAT:?OnDrawExDisabledPushed@ioButton@@MAEXHH@Z
	DD	FLAT:?OnDrawBack@ioButton@@MAEXHH@Z
	DD	FLAT:?OnDrawNormalList@ioButton@@MAEXHH@Z
	DD	FLAT:?OnDrawDisableList@ioButton@@MAEXHH@Z
; Function compile flags: /Ogsp
CONST	ENDS
;	COMDAT ??0MenuBase@@QAE@XZ
_TEXT	SEGMENT
??0MenuBase@@QAE@XZ PROC				; MenuBase::MenuBase, COMDAT
; _this$ = ecx

; 70   : {

  00000	56		 push	 esi
  00001	8b f1		 mov	 esi, ecx
  00003	ff 15 00 00 00
	00		 call	 DWORD PTR __imp_??0ioButton@@QAE@XZ

; 71   : 	m_eMenuStyle		= MS_NONE;

  00009	33 c0		 xor	 eax, eax
  0000b	89 86 2c 02 00
	00		 mov	 DWORD PTR [esi+556], eax

; 72   : 
; 73   : 	m_pStartNromal		= NULL;

  00011	89 86 fc 01 00
	00		 mov	 DWORD PTR [esi+508], eax

; 74   : 	m_pStartOver		= NULL;

  00017	89 86 00 02 00
	00		 mov	 DWORD PTR [esi+512], eax

; 75   : 	m_pStartOverAdd		= NULL;

  0001d	89 86 04 02 00
	00		 mov	 DWORD PTR [esi+516], eax

; 76   : 	m_pStartPush		= NULL;

  00023	89 86 08 02 00
	00		 mov	 DWORD PTR [esi+520], eax

; 77   : 
; 78   : 	m_pMiddleNromal		= NULL;

  00029	89 86 0c 02 00
	00		 mov	 DWORD PTR [esi+524], eax

; 79   : 	m_pMiddleOver		= NULL;

  0002f	89 86 10 02 00
	00		 mov	 DWORD PTR [esi+528], eax

; 80   : 	m_pMiddleOverAdd	= NULL;

  00035	89 86 14 02 00
	00		 mov	 DWORD PTR [esi+532], eax

; 81   : 	m_pMiddlePush		= NULL;

  0003b	89 86 18 02 00
	00		 mov	 DWORD PTR [esi+536], eax

; 82   : 
; 83   : 	m_pEndNromal		= NULL;

  00041	89 86 1c 02 00
	00		 mov	 DWORD PTR [esi+540], eax

; 84   : 	m_pEndOver			= NULL;

  00047	89 86 20 02 00
	00		 mov	 DWORD PTR [esi+544], eax

; 85   : 	m_pEndOverAdd		= NULL;

  0004d	89 86 24 02 00
	00		 mov	 DWORD PTR [esi+548], eax

; 86   : 	m_pEndPush			= NULL;

  00053	89 86 28 02 00
	00		 mov	 DWORD PTR [esi+552], eax
  00059	c7 06 00 00 00
	00		 mov	 DWORD PTR [esi], OFFSET ??_7MenuBase@@6B@

; 87   : }

  0005f	8b c6		 mov	 eax, esi
  00061	5e		 pop	 esi
  00062	c3		 ret	 0
??0MenuBase@@QAE@XZ ENDP				; MenuBase::MenuBase
_TEXT	ENDS
PUBLIC	??1MenuBase@@UAE@XZ				; MenuBase::~MenuBase
EXTRN	__imp_??1ioButton@@UAE@XZ:PROC
EXTRN	___CxxFrameHandler3:PROC
EXTRN	@__security_check_cookie@4:PROC
EXTRN	__EH_epilog3:PROC
EXTRN	__EH_prolog3:PROC
;	COMDAT xdata$x
xdata$x	SEGMENT
__unwindtable$??1MenuBase@@UAE@XZ DD 0ffffffffH
	DD	FLAT:__unwindfunclet$??1MenuBase@@UAE@XZ$0
__ehfuncinfo$??1MenuBase@@UAE@XZ DD 019930522H
	DD	01H
	DD	FLAT:__unwindtable$??1MenuBase@@UAE@XZ
	DD	2 DUP(00H)
	DD	2 DUP(00H)
	DD	00H
	DD	01H
; Function compile flags: /Ogsp
xdata$x	ENDS
;	COMDAT ??1MenuBase@@UAE@XZ
_TEXT	SEGMENT
_this$ = -16						; size = 4
__$EHRec$ = -12						; size = 12
??1MenuBase@@UAE@XZ PROC				; MenuBase::~MenuBase, COMDAT
; _this$ = ecx

; 90   : {

  00000	6a 04		 push	 4
  00002	b8 00 00 00 00	 mov	 eax, __ehhandler$??1MenuBase@@UAE@XZ
  00007	e8 00 00 00 00	 call	 __EH_prolog3
  0000c	8b f1		 mov	 esi, ecx
  0000e	89 75 f0	 mov	 DWORD PTR _this$[ebp], esi
  00011	c7 06 00 00 00
	00		 mov	 DWORD PTR [esi], OFFSET ??_7MenuBase@@6B@

; 91   : 	SAFEDELETE( m_pStartNromal );

  00017	8b 8e fc 01 00
	00		 mov	 ecx, DWORD PTR [esi+508]
  0001d	33 ff		 xor	 edi, edi
  0001f	89 7d fc	 mov	 DWORD PTR __$EHRec$[ebp+8], edi
  00022	3b cf		 cmp	 ecx, edi
  00024	74 0d		 je	 SHORT $LN12@MenuBase
  00026	8b 01		 mov	 eax, DWORD PTR [ecx]
  00028	6a 01		 push	 1
  0002a	ff 50 40	 call	 DWORD PTR [eax+64]
  0002d	89 be fc 01 00
	00		 mov	 DWORD PTR [esi+508], edi
$LN12@MenuBase:

; 92   : 	SAFEDELETE( m_pStartOver );

  00033	8b 8e 00 02 00
	00		 mov	 ecx, DWORD PTR [esi+512]
  00039	3b cf		 cmp	 ecx, edi
  0003b	74 0d		 je	 SHORT $LN11@MenuBase
  0003d	8b 01		 mov	 eax, DWORD PTR [ecx]
  0003f	6a 01		 push	 1
  00041	ff 50 40	 call	 DWORD PTR [eax+64]
  00044	89 be 00 02 00
	00		 mov	 DWORD PTR [esi+512], edi
$LN11@MenuBase:

; 93   : 	SAFEDELETE( m_pStartOverAdd );

  0004a	8b 8e 04 02 00
	00		 mov	 ecx, DWORD PTR [esi+516]
  00050	3b cf		 cmp	 ecx, edi
  00052	74 0d		 je	 SHORT $LN10@MenuBase
  00054	8b 01		 mov	 eax, DWORD PTR [ecx]
  00056	6a 01		 push	 1
  00058	ff 50 40	 call	 DWORD PTR [eax+64]
  0005b	89 be 04 02 00
	00		 mov	 DWORD PTR [esi+516], edi
$LN10@MenuBase:

; 94   : 	SAFEDELETE( m_pStartPush );

  00061	8b 8e 08 02 00
	00		 mov	 ecx, DWORD PTR [esi+520]
  00067	3b cf		 cmp	 ecx, edi
  00069	74 0d		 je	 SHORT $LN9@MenuBase
  0006b	8b 01		 mov	 eax, DWORD PTR [ecx]
  0006d	6a 01		 push	 1
  0006f	ff 50 40	 call	 DWORD PTR [eax+64]
  00072	89 be 08 02 00
	00		 mov	 DWORD PTR [esi+520], edi
$LN9@MenuBase:

; 95   : 
; 96   : 	SAFEDELETE( m_pMiddleNromal );

  00078	8b 8e 0c 02 00
	00		 mov	 ecx, DWORD PTR [esi+524]
  0007e	3b cf		 cmp	 ecx, edi
  00080	74 0d		 je	 SHORT $LN8@MenuBase
  00082	8b 01		 mov	 eax, DWORD PTR [ecx]
  00084	6a 01		 push	 1
  00086	ff 50 40	 call	 DWORD PTR [eax+64]
  00089	89 be 0c 02 00
	00		 mov	 DWORD PTR [esi+524], edi
$LN8@MenuBase:

; 97   : 	SAFEDELETE( m_pMiddleOver );

  0008f	8b 8e 10 02 00
	00		 mov	 ecx, DWORD PTR [esi+528]
  00095	3b cf		 cmp	 ecx, edi
  00097	74 0d		 je	 SHORT $LN7@MenuBase
  00099	8b 01		 mov	 eax, DWORD PTR [ecx]
  0009b	6a 01		 push	 1
  0009d	ff 50 40	 call	 DWORD PTR [eax+64]
  000a0	89 be 10 02 00
	00		 mov	 DWORD PTR [esi+528], edi
$LN7@MenuBase:

; 98   : 	SAFEDELETE( m_pMiddleOverAdd );

  000a6	8b 8e 14 02 00
	00		 mov	 ecx, DWORD PTR [esi+532]
  000ac	3b cf		 cmp	 ecx, edi
  000ae	74 0d		 je	 SHORT $LN6@MenuBase
  000b0	8b 01		 mov	 eax, DWORD PTR [ecx]
  000b2	6a 01		 push	 1
  000b4	ff 50 40	 call	 DWORD PTR [eax+64]
  000b7	89 be 14 02 00
	00		 mov	 DWORD PTR [esi+532], edi
$LN6@MenuBase:

; 99   : 	SAFEDELETE( m_pMiddlePush );

  000bd	8b 8e 18 02 00
	00		 mov	 ecx, DWORD PTR [esi+536]
  000c3	3b cf		 cmp	 ecx, edi
  000c5	74 0d		 je	 SHORT $LN5@MenuBase
  000c7	8b 01		 mov	 eax, DWORD PTR [ecx]
  000c9	6a 01		 push	 1
  000cb	ff 50 40	 call	 DWORD PTR [eax+64]
  000ce	89 be 18 02 00
	00		 mov	 DWORD PTR [esi+536], edi
$LN5@MenuBase:

; 100  : 
; 101  : 	SAFEDELETE( m_pEndNromal );

  000d4	8b 8e 1c 02 00
	00		 mov	 ecx, DWORD PTR [esi+540]
  000da	3b cf		 cmp	 ecx, edi
  000dc	74 0d		 je	 SHORT $LN4@MenuBase
  000de	8b 01		 mov	 eax, DWORD PTR [ecx]
  000e0	6a 01		 push	 1
  000e2	ff 50 40	 call	 DWORD PTR [eax+64]
  000e5	89 be 1c 02 00
	00		 mov	 DWORD PTR [esi+540], edi
$LN4@MenuBase:

; 102  : 	SAFEDELETE( m_pEndOver );

  000eb	8b 8e 20 02 00
	00		 mov	 ecx, DWORD PTR [esi+544]
  000f1	3b cf		 cmp	 ecx, edi
  000f3	74 0d		 je	 SHORT $LN3@MenuBase
  000f5	8b 01		 mov	 eax, DWORD PTR [ecx]
  000f7	6a 01		 push	 1
  000f9	ff 50 40	 call	 DWORD PTR [eax+64]
  000fc	89 be 20 02 00
	00		 mov	 DWORD PTR [esi+544], edi
$LN3@MenuBase:

; 103  : 	SAFEDELETE( m_pEndOverAdd );

  00102	8b 8e 24 02 00
	00		 mov	 ecx, DWORD PTR [esi+548]
  00108	3b cf		 cmp	 ecx, edi
  0010a	74 0d		 je	 SHORT $LN2@MenuBase
  0010c	8b 01		 mov	 eax, DWORD PTR [ecx]
  0010e	6a 01		 push	 1
  00110	ff 50 40	 call	 DWORD PTR [eax+64]
  00113	89 be 24 02 00
	00		 mov	 DWORD PTR [esi+548], edi
$LN2@MenuBase:

; 104  : 	SAFEDELETE( m_pEndPush );

  00119	8b 8e 28 02 00
	00		 mov	 ecx, DWORD PTR [esi+552]
  0011f	3b cf		 cmp	 ecx, edi
  00121	74 0d		 je	 SHORT $LN1@MenuBase
  00123	8b 01		 mov	 eax, DWORD PTR [ecx]
  00125	6a 01		 push	 1
  00127	ff 50 40	 call	 DWORD PTR [eax+64]
  0012a	89 be 28 02 00
	00		 mov	 DWORD PTR [esi+552], edi
$LN1@MenuBase:

; 105  : }

  00130	83 4d fc ff	 or	 DWORD PTR __$EHRec$[ebp+8], -1
  00134	8b ce		 mov	 ecx, esi
  00136	ff 15 00 00 00
	00		 call	 DWORD PTR __imp_??1ioButton@@UAE@XZ
  0013c	e8 00 00 00 00	 call	 __EH_epilog3
  00141	c3		 ret	 0
_TEXT	ENDS
;	COMDAT text$x
text$x	SEGMENT
__unwindfunclet$??1MenuBase@@UAE@XZ$0:
  00000	8b 4d f0	 mov	 ecx, DWORD PTR _this$[ebp]
  00003	ff 25 00 00 00
	00		 jmp	 DWORD PTR __imp_??1ioButton@@UAE@XZ
__ehhandler$??1MenuBase@@UAE@XZ:
  00009	8b 54 24 08	 mov	 edx, DWORD PTR [esp+8]
  0000d	8d 42 0c	 lea	 eax, DWORD PTR [edx+12]
  00010	8b 4a ec	 mov	 ecx, DWORD PTR [edx-20]
  00013	33 c8		 xor	 ecx, eax
  00015	e8 00 00 00 00	 call	 @__security_check_cookie@4
  0001a	b8 00 00 00 00	 mov	 eax, OFFSET __ehfuncinfo$??1MenuBase@@UAE@XZ
  0001f	e9 00 00 00 00	 jmp	 ___CxxFrameHandler3
text$x	ENDS
??1MenuBase@@UAE@XZ ENDP				; MenuBase::~MenuBase
EXTRN	__imp_?OnDrawNormal@ioButton@@MAEXHH@Z:PROC
; Function compile flags: /Ogsp
;	COMDAT ?OnDrawNormal@MenuBase@@MAEXHH@Z
_TEXT	SEGMENT
_iXPos$ = 8						; size = 4
_iYPos$ = 12						; size = 4
?OnDrawNormal@MenuBase@@MAEXHH@Z PROC			; MenuBase::OnDrawNormal, COMDAT
; _this$ = ecx

; 176  : {

  00000	55		 push	 ebp
  00001	8b ec		 mov	 ebp, esp

; 177  : 	switch( m_eMenuStyle )

  00003	8b 81 2c 02 00
	00		 mov	 eax, DWORD PTR [ecx+556]
  00009	48		 dec	 eax
  0000a	74 31		 je	 SHORT $LN7@OnDrawNorm
  0000c	48		 dec	 eax
  0000d	74 1c		 je	 SHORT $LN5@OnDrawNorm
  0000f	48		 dec	 eax
  00010	74 07		 je	 SHORT $LN3@OnDrawNorm

; 199  : 		break;
; 200  : 	}
; 201  : }

  00012	5d		 pop	 ebp

; 197  : 	default:
; 198  : 		ioButton::OnDrawNormal( iXPos, iYPos );

  00013	ff 25 00 00 00
	00		 jmp	 DWORD PTR __imp_?OnDrawNormal@ioButton@@MAEXHH@Z
$LN3@OnDrawNorm:

; 191  : 	case MS_END:
; 192  : 		{
; 193  : 			if( m_pEndNromal )

  00019	33 c0		 xor	 eax, eax
  0001b	39 81 1c 02 00
	00		 cmp	 DWORD PTR [ecx+540], eax
  00021	74 4f		 je	 SHORT $LN6@OnDrawNorm

; 194  : 				m_pEndNromal->Render( iXPos, iYPos, UI_RENDER_NORMAL );

  00023	8b 89 1c 02 00
	00		 mov	 ecx, DWORD PTR [ecx+540]

; 195  : 		}
; 196  : 		break;

  00029	eb 22		 jmp	 SHORT $LN13@OnDrawNorm
$LN5@OnDrawNorm:

; 183  : 		}
; 184  : 		break;
; 185  : 	case MS_MIDDLE:
; 186  : 		{
; 187  : 			if( m_pMiddleNromal )

  0002b	33 c0		 xor	 eax, eax
  0002d	39 81 0c 02 00
	00		 cmp	 DWORD PTR [ecx+524], eax
  00033	74 3d		 je	 SHORT $LN6@OnDrawNorm

; 188  : 				m_pMiddleNromal->Render( iXPos, iYPos, UI_RENDER_NORMAL );

  00035	8b 89 0c 02 00
	00		 mov	 ecx, DWORD PTR [ecx+524]

; 189  : 		}
; 190  : 		break;

  0003b	eb 10		 jmp	 SHORT $LN13@OnDrawNorm
$LN7@OnDrawNorm:

; 178  : 	{
; 179  : 	case MS_START:
; 180  : 		{
; 181  : 			if( m_pStartNromal )

  0003d	33 c0		 xor	 eax, eax
  0003f	39 81 fc 01 00
	00		 cmp	 DWORD PTR [ecx+508], eax
  00045	74 2b		 je	 SHORT $LN6@OnDrawNorm

; 182  : 				m_pStartNromal->Render( iXPos, iYPos, UI_RENDER_NORMAL );

  00047	8b 89 fc 01 00
	00		 mov	 ecx, DWORD PTR [ecx+508]
$LN13@OnDrawNorm:
  0004d	66 0f 6e 45 0c	 movd	 xmm0, DWORD PTR _iYPos$[ebp]
  00052	8b 11		 mov	 edx, DWORD PTR [ecx]
  00054	50		 push	 eax
  00055	50		 push	 eax
  00056	50		 push	 eax
  00057	50		 push	 eax
  00058	51		 push	 ecx
  00059	51		 push	 ecx
  0005a	0f 5b c0	 cvtdq2ps xmm0, xmm0
  0005d	f3 0f 11 44 24
	04		 movss	 DWORD PTR [esp+4], xmm0
  00063	66 0f 6e 45 08	 movd	 xmm0, DWORD PTR _iXPos$[ebp]
  00068	0f 5b c0	 cvtdq2ps xmm0, xmm0
  0006b	f3 0f 11 04 24	 movss	 DWORD PTR [esp], xmm0
  00070	ff 12		 call	 DWORD PTR [edx]
$LN6@OnDrawNorm:

; 199  : 		break;
; 200  : 	}
; 201  : }

  00072	5d		 pop	 ebp
  00073	c2 08 00	 ret	 8
?OnDrawNormal@MenuBase@@MAEXHH@Z ENDP			; MenuBase::OnDrawNormal
_TEXT	ENDS
EXTRN	__imp_?OnDrawOvered@ioButton@@MAEXHH@Z:PROC
; Function compile flags: /Ogsp
;	COMDAT ?OnDrawOvered@MenuBase@@MAEXHH@Z
_TEXT	SEGMENT
_iXPos$ = 8						; size = 4
_iYPos$ = 12						; size = 4
?OnDrawOvered@MenuBase@@MAEXHH@Z PROC			; MenuBase::OnDrawOvered, COMDAT
; _this$ = ecx

; 204  : {

  00000	55		 push	 ebp
  00001	8b ec		 mov	 ebp, esp
  00003	56		 push	 esi
  00004	8b f1		 mov	 esi, ecx

; 205  : 	switch( m_eMenuStyle )

  00006	8b 86 2c 02 00
	00		 mov	 eax, DWORD PTR [esi+556]
  0000c	48		 dec	 eax
  0000d	74 38		 je	 SHORT $LN7@OnDrawOver
  0000f	48		 dec	 eax
  00010	74 23		 je	 SHORT $LN5@OnDrawOver
  00012	48		 dec	 eax
  00013	74 0e		 je	 SHORT $LN3@OnDrawOver

; 228  : 	default:
; 229  : 		ioButton::OnDrawOvered( iXPos, iYPos );

  00015	ff 75 0c	 push	 DWORD PTR _iYPos$[ebp]
  00018	ff 75 08	 push	 DWORD PTR _iXPos$[ebp]
  0001b	ff 15 00 00 00
	00		 call	 DWORD PTR __imp_?OnDrawOvered@ioButton@@MAEXHH@Z

; 230  : 		break;

  00021	eb 69		 jmp	 SHORT $LN8@OnDrawOver
$LN3@OnDrawOver:

; 221  : 	case MS_END:
; 222  : 		{
; 223  : 			if( m_pEndOver )

  00023	33 c0		 xor	 eax, eax
  00025	39 86 20 02 00
	00		 cmp	 DWORD PTR [esi+544], eax
  0002b	74 4f		 je	 SHORT $LN6@OnDrawOver

; 224  : 				m_pEndOver->Render( iXPos, iYPos, UI_RENDER_NORMAL );

  0002d	8b 8e 20 02 00
	00		 mov	 ecx, DWORD PTR [esi+544]

; 225  : 			OnDrawOveredAdd( iXPos, iYPos );
; 226  : 		}
; 227  : 		break;

  00033	eb 22		 jmp	 SHORT $LN12@OnDrawOver
$LN5@OnDrawOver:

; 212  : 		}
; 213  : 		break;
; 214  : 	case MS_MIDDLE:
; 215  : 		{
; 216  : 			if( m_pMiddleOver )

  00035	33 c0		 xor	 eax, eax
  00037	39 86 10 02 00
	00		 cmp	 DWORD PTR [esi+528], eax
  0003d	74 3d		 je	 SHORT $LN6@OnDrawOver

; 217  : 				m_pMiddleOver->Render( iXPos, iYPos, UI_RENDER_NORMAL );

  0003f	8b 8e 10 02 00
	00		 mov	 ecx, DWORD PTR [esi+528]

; 218  : 			OnDrawOveredAdd( iXPos, iYPos );
; 219  : 		}
; 220  : 		break;

  00045	eb 10		 jmp	 SHORT $LN12@OnDrawOver
$LN7@OnDrawOver:

; 206  : 	{
; 207  : 	case MS_START:
; 208  : 		{
; 209  : 			if( m_pStartOver )

  00047	33 c0		 xor	 eax, eax
  00049	39 86 00 02 00
	00		 cmp	 DWORD PTR [esi+512], eax
  0004f	74 2b		 je	 SHORT $LN6@OnDrawOver

; 210  : 				m_pStartOver->Render( iXPos, iYPos, UI_RENDER_NORMAL );

  00051	8b 8e 00 02 00
	00		 mov	 ecx, DWORD PTR [esi+512]
$LN12@OnDrawOver:
  00057	66 0f 6e 45 0c	 movd	 xmm0, DWORD PTR _iYPos$[ebp]
  0005c	8b 11		 mov	 edx, DWORD PTR [ecx]
  0005e	50		 push	 eax
  0005f	50		 push	 eax
  00060	50		 push	 eax
  00061	50		 push	 eax
  00062	51		 push	 ecx
  00063	51		 push	 ecx
  00064	0f 5b c0	 cvtdq2ps xmm0, xmm0
  00067	f3 0f 11 44 24
	04		 movss	 DWORD PTR [esp+4], xmm0
  0006d	66 0f 6e 45 08	 movd	 xmm0, DWORD PTR _iXPos$[ebp]
  00072	0f 5b c0	 cvtdq2ps xmm0, xmm0
  00075	f3 0f 11 04 24	 movss	 DWORD PTR [esp], xmm0
  0007a	ff 12		 call	 DWORD PTR [edx]
$LN6@OnDrawOver:

; 211  : 			OnDrawOveredAdd( iXPos, iYPos );

  0007c	ff 75 0c	 push	 DWORD PTR _iYPos$[ebp]
  0007f	8b 06		 mov	 eax, DWORD PTR [esi]
  00081	ff 75 08	 push	 DWORD PTR _iXPos$[ebp]
  00084	8b ce		 mov	 ecx, esi
  00086	ff 90 38 01 00
	00		 call	 DWORD PTR [eax+312]
$LN8@OnDrawOver:
  0008c	5e		 pop	 esi

; 231  : 	}
; 232  : }

  0008d	5d		 pop	 ebp
  0008e	c2 08 00	 ret	 8
?OnDrawOvered@MenuBase@@MAEXHH@Z ENDP			; MenuBase::OnDrawOvered
_TEXT	ENDS
EXTRN	__imp_?OnDrawOveredAdd@ioButton@@MAEXHH@Z:PROC
; Function compile flags: /Ogsp
;	COMDAT ?OnDrawOveredAdd@MenuBase@@MAEXHH@Z
_TEXT	SEGMENT
_iXPos$ = 8						; size = 4
_iYPos$ = 12						; size = 4
?OnDrawOveredAdd@MenuBase@@MAEXHH@Z PROC		; MenuBase::OnDrawOveredAdd, COMDAT
; _this$ = ecx

; 235  : {

  00000	55		 push	 ebp
  00001	8b ec		 mov	 ebp, esp

; 236  : 	switch( m_eMenuStyle )

  00003	8b 81 2c 02 00
	00		 mov	 eax, DWORD PTR [ecx+556]
  00009	48		 dec	 eax
  0000a	74 31		 je	 SHORT $LN7@OnDrawOver@2
  0000c	48		 dec	 eax
  0000d	74 1c		 je	 SHORT $LN5@OnDrawOver@2
  0000f	48		 dec	 eax
  00010	74 07		 je	 SHORT $LN3@OnDrawOver@2

; 258  : 		break;
; 259  : 	}
; 260  : }

  00012	5d		 pop	 ebp

; 256  : 	default:
; 257  : 		ioButton::OnDrawOveredAdd( iXPos, iYPos );

  00013	ff 25 00 00 00
	00		 jmp	 DWORD PTR __imp_?OnDrawOveredAdd@ioButton@@MAEXHH@Z
$LN3@OnDrawOver@2:

; 250  : 	case MS_END:
; 251  : 		{
; 252  : 			if( m_pEndOverAdd )

  00019	33 c0		 xor	 eax, eax
  0001b	39 81 24 02 00
	00		 cmp	 DWORD PTR [ecx+548], eax
  00021	74 50		 je	 SHORT $LN6@OnDrawOver@2

; 253  : 				m_pEndOverAdd->Render( iXPos, iYPos, UI_RENDER_ADD );

  00023	8b 89 24 02 00
	00		 mov	 ecx, DWORD PTR [ecx+548]

; 254  : 		}
; 255  : 		break;

  00029	eb 22		 jmp	 SHORT $LN13@OnDrawOver@2
$LN5@OnDrawOver@2:

; 242  : 		}
; 243  : 		break;
; 244  : 	case MS_MIDDLE:
; 245  : 		{
; 246  : 			if( m_pMiddleOverAdd )

  0002b	33 c0		 xor	 eax, eax
  0002d	39 81 14 02 00
	00		 cmp	 DWORD PTR [ecx+532], eax
  00033	74 3e		 je	 SHORT $LN6@OnDrawOver@2

; 247  : 				m_pMiddleOverAdd->Render( iXPos, iYPos, UI_RENDER_ADD );

  00035	8b 89 14 02 00
	00		 mov	 ecx, DWORD PTR [ecx+532]

; 248  : 		}
; 249  : 		break;

  0003b	eb 10		 jmp	 SHORT $LN13@OnDrawOver@2
$LN7@OnDrawOver@2:

; 237  : 	{
; 238  : 	case MS_START:
; 239  : 		{
; 240  : 			if( m_pStartOverAdd )

  0003d	33 c0		 xor	 eax, eax
  0003f	39 81 04 02 00
	00		 cmp	 DWORD PTR [ecx+516], eax
  00045	74 2c		 je	 SHORT $LN6@OnDrawOver@2

; 241  : 				m_pStartOverAdd->Render( iXPos, iYPos, UI_RENDER_ADD );

  00047	8b 89 04 02 00
	00		 mov	 ecx, DWORD PTR [ecx+516]
$LN13@OnDrawOver@2:
  0004d	66 0f 6e 45 0c	 movd	 xmm0, DWORD PTR _iYPos$[ebp]
  00052	8b 11		 mov	 edx, DWORD PTR [ecx]
  00054	50		 push	 eax
  00055	50		 push	 eax
  00056	50		 push	 eax
  00057	6a 03		 push	 3
  00059	51		 push	 ecx
  0005a	51		 push	 ecx
  0005b	0f 5b c0	 cvtdq2ps xmm0, xmm0
  0005e	f3 0f 11 44 24
	04		 movss	 DWORD PTR [esp+4], xmm0
  00064	66 0f 6e 45 08	 movd	 xmm0, DWORD PTR _iXPos$[ebp]
  00069	0f 5b c0	 cvtdq2ps xmm0, xmm0
  0006c	f3 0f 11 04 24	 movss	 DWORD PTR [esp], xmm0
  00071	ff 12		 call	 DWORD PTR [edx]
$LN6@OnDrawOver@2:

; 258  : 		break;
; 259  : 	}
; 260  : }

  00073	5d		 pop	 ebp
  00074	c2 08 00	 ret	 8
?OnDrawOveredAdd@MenuBase@@MAEXHH@Z ENDP		; MenuBase::OnDrawOveredAdd
_TEXT	ENDS
EXTRN	__imp_?OnDrawPushed@ioButton@@MAEXHH@Z:PROC
; Function compile flags: /Ogsp
;	COMDAT ?OnDrawPushed@MenuBase@@MAEXHH@Z
_TEXT	SEGMENT
_iXPos$ = 8						; size = 4
_iYPos$ = 12						; size = 4
?OnDrawPushed@MenuBase@@MAEXHH@Z PROC			; MenuBase::OnDrawPushed, COMDAT
; _this$ = ecx

; 263  : {

  00000	55		 push	 ebp
  00001	8b ec		 mov	 ebp, esp

; 264  : 	switch( m_eMenuStyle )

  00003	8b 81 2c 02 00
	00		 mov	 eax, DWORD PTR [ecx+556]
  00009	48		 dec	 eax
  0000a	74 31		 je	 SHORT $LN7@OnDrawPush
  0000c	48		 dec	 eax
  0000d	74 1c		 je	 SHORT $LN5@OnDrawPush
  0000f	48		 dec	 eax
  00010	74 07		 je	 SHORT $LN3@OnDrawPush

; 286  : 		break;
; 287  : 	}
; 288  : }

  00012	5d		 pop	 ebp

; 284  : 	default:
; 285  : 		ioButton::OnDrawPushed( iXPos, iYPos );

  00013	ff 25 00 00 00
	00		 jmp	 DWORD PTR __imp_?OnDrawPushed@ioButton@@MAEXHH@Z
$LN3@OnDrawPush:

; 278  : 	case MS_END:
; 279  : 		{
; 280  : 			if( m_pEndPush )

  00019	33 c0		 xor	 eax, eax
  0001b	39 81 28 02 00
	00		 cmp	 DWORD PTR [ecx+552], eax
  00021	74 4f		 je	 SHORT $LN6@OnDrawPush

; 281  : 				m_pEndPush->Render( iXPos, iYPos, UI_RENDER_NORMAL );

  00023	8b 89 28 02 00
	00		 mov	 ecx, DWORD PTR [ecx+552]

; 282  : 		}
; 283  : 		break;

  00029	eb 22		 jmp	 SHORT $LN13@OnDrawPush
$LN5@OnDrawPush:

; 270  : 		}
; 271  : 		break;
; 272  : 	case MS_MIDDLE:
; 273  : 		{
; 274  : 			if( m_pMiddlePush )

  0002b	33 c0		 xor	 eax, eax
  0002d	39 81 18 02 00
	00		 cmp	 DWORD PTR [ecx+536], eax
  00033	74 3d		 je	 SHORT $LN6@OnDrawPush

; 275  : 				m_pMiddlePush->Render( iXPos, iYPos, UI_RENDER_NORMAL );

  00035	8b 89 18 02 00
	00		 mov	 ecx, DWORD PTR [ecx+536]

; 276  : 		}
; 277  : 		break;

  0003b	eb 10		 jmp	 SHORT $LN13@OnDrawPush
$LN7@OnDrawPush:

; 265  : 	{
; 266  : 	case MS_START:
; 267  : 		{
; 268  : 			if( m_pStartPush )

  0003d	33 c0		 xor	 eax, eax
  0003f	39 81 08 02 00
	00		 cmp	 DWORD PTR [ecx+520], eax
  00045	74 2b		 je	 SHORT $LN6@OnDrawPush

; 269  : 				m_pStartPush->Render( iXPos, iYPos, UI_RENDER_NORMAL );

  00047	8b 89 08 02 00
	00		 mov	 ecx, DWORD PTR [ecx+520]
$LN13@OnDrawPush:
  0004d	66 0f 6e 45 0c	 movd	 xmm0, DWORD PTR _iYPos$[ebp]
  00052	8b 11		 mov	 edx, DWORD PTR [ecx]
  00054	50		 push	 eax
  00055	50		 push	 eax
  00056	50		 push	 eax
  00057	50		 push	 eax
  00058	51		 push	 ecx
  00059	51		 push	 ecx
  0005a	0f 5b c0	 cvtdq2ps xmm0, xmm0
  0005d	f3 0f 11 44 24
	04		 movss	 DWORD PTR [esp+4], xmm0
  00063	66 0f 6e 45 08	 movd	 xmm0, DWORD PTR _iXPos$[ebp]
  00068	0f 5b c0	 cvtdq2ps xmm0, xmm0
  0006b	f3 0f 11 04 24	 movss	 DWORD PTR [esp], xmm0
  00070	ff 12		 call	 DWORD PTR [edx]
$LN6@OnDrawPush:

; 286  : 		break;
; 287  : 	}
; 288  : }

  00072	5d		 pop	 ebp
  00073	c2 08 00	 ret	 8
?OnDrawPushed@MenuBase@@MAEXHH@Z ENDP			; MenuBase::OnDrawPushed
_TEXT	ENDS
PUBLIC	??_7MenuBtn@@6B@				; MenuBtn::`vftable'
PUBLIC	??0MenuBtn@@QAE@XZ				; MenuBtn::MenuBtn
PUBLIC	??_R4MenuBtn@@6B@				; MenuBtn::`RTTI Complete Object Locator'
PUBLIC	??_R0?AVMenuBtn@@@8				; MenuBtn `RTTI Type Descriptor'
PUBLIC	??_R3MenuBtn@@8					; MenuBtn::`RTTI Class Hierarchy Descriptor'
PUBLIC	??_R2MenuBtn@@8					; MenuBtn::`RTTI Base Class Array'
PUBLIC	??_R1A@?0A@EA@MenuBtn@@8			; MenuBtn::`RTTI Base Class Descriptor at (0,-1,0,64)'
PUBLIC	?AddRenderImage@MenuBtn@@MAEXABVioHashString@@PAVioUIRenderImage@@@Z ; MenuBtn::AddRenderImage
PUBLIC	?ParseExtraInfo@MenuBtn@@MAEXAAVioXMLElement@@@Z ; MenuBtn::ParseExtraInfo
PUBLIC	?OnRender@MenuBtn@@MAEXXZ			; MenuBtn::OnRender
PUBLIC	?OnProcess@MenuBtn@@MAEXM@Z			; MenuBtn::OnProcess
EXTRN	__imp_??1ioHashString@@QAE@XZ:PROC
EXTRN	__imp_??0ioHashString@@QAE@XZ:PROC
EXTRN	??_EMenuBtn@@UAEPAXI@Z:PROC			; MenuBtn::`vector deleting destructor'
;	COMDAT ??_R1A@?0A@EA@MenuBtn@@8
rdata$r	SEGMENT
??_R1A@?0A@EA@MenuBtn@@8 DD FLAT:??_R0?AVMenuBtn@@@8	; MenuBtn::`RTTI Base Class Descriptor at (0,-1,0,64)'
	DD	03H
	DD	00H
	DD	0ffffffffH
	DD	00H
	DD	040H
	DD	FLAT:??_R3MenuBtn@@8
rdata$r	ENDS
;	COMDAT ??_R2MenuBtn@@8
rdata$r	SEGMENT
??_R2MenuBtn@@8 DD FLAT:??_R1A@?0A@EA@MenuBtn@@8	; MenuBtn::`RTTI Base Class Array'
	DD	FLAT:??_R1A@?0A@EA@MenuBase@@8
	DD	FLAT:??_R1A@?0A@EA@ioButton@@8
	DD	FLAT:??_R1A@?0A@EA@ioWnd@@8
rdata$r	ENDS
;	COMDAT ??_R3MenuBtn@@8
rdata$r	SEGMENT
??_R3MenuBtn@@8 DD 00H					; MenuBtn::`RTTI Class Hierarchy Descriptor'
	DD	00H
	DD	04H
	DD	FLAT:??_R2MenuBtn@@8
rdata$r	ENDS
;	COMDAT ??_R0?AVMenuBtn@@@8
_DATA	SEGMENT
??_R0?AVMenuBtn@@@8 DD FLAT:??_7type_info@@6B@		; MenuBtn `RTTI Type Descriptor'
	DD	00H
	DB	'.?AVMenuBtn@@', 00H
_DATA	ENDS
;	COMDAT ??_R4MenuBtn@@6B@
rdata$r	SEGMENT
??_R4MenuBtn@@6B@ DD 00H				; MenuBtn::`RTTI Complete Object Locator'
	DD	00H
	DD	00H
	DD	FLAT:??_R0?AVMenuBtn@@@8
	DD	FLAT:??_R3MenuBtn@@8
rdata$r	ENDS
;	COMDAT ??_7MenuBtn@@6B@
CONST	SEGMENT
??_7MenuBtn@@6B@ DD FLAT:??_R4MenuBtn@@6B@		; MenuBtn::`vftable'
	DD	FLAT:?AddRenderFrame@MenuBase@@MAEXABVioHashString@@PAVioUIRenderFrame@@@Z
	DD	FLAT:?AddRenderImage@MenuBtn@@MAEXABVioHashString@@PAVioUIRenderImage@@@Z
	DD	FLAT:?AddTooltipHelp@ioWnd@@UAEXABVioHashString@@00@Z
	DD	FLAT:?ParseExtraInfo@MenuBtn@@MAEXAAVioXMLElement@@@Z
	DD	FLAT:?AddNamedRenderImage@ioWnd@@UAEXABVioHashString@@PAVioUIRenderImage@@@Z
	DD	FLAT:?RemoveNamedRenderImage@ioWnd@@UAEXABVioHashString@@@Z
	DD	FLAT:?GetNamedRenderImage@ioWnd@@UBEPAVioUIRenderImage@@ABVioHashString@@@Z
	DD	FLAT:?SetWindowAlpha@ioButton@@UAEXH@Z
	DD	FLAT:?SetActive@ioWnd@@UAEXXZ
	DD	FLAT:?SetInActive@ioWnd@@UAEXXZ
	DD	FLAT:?ClearElementImageList@ioWnd@@UAEXXZ
	DD	FLAT:?SetSize@ioWnd@@UAEXHH@Z
	DD	FLAT:?SetPositionToDefault@ioWnd@@UAEXHH_N0@Z
	DD	FLAT:?IsNeedProcess@ioWnd@@UBE_NXZ
	DD	FLAT:?IsCanMouseReaction@ioWnd@@UBE_NXZ
	DD	FLAT:?AddChild@ioWnd@@UAEXPAV1@@Z
	DD	FLAT:?DeleteChild@ioWnd@@UAEXK@Z
	DD	FLAT:?DeleteAllChild@ioWnd@@UAEXXZ
	DD	FLAT:?OnRenderShowAndHide@ioWnd@@MAE_NXZ
	DD	FLAT:?OnRenderShowAndHideByDefault@ioWnd@@MAE_NK@Z
	DD	FLAT:?OnRenderShowAndHideByTop@ioWnd@@MAE_NK@Z
	DD	FLAT:?OnRenderShowAndHideByDown@ioWnd@@MAE_NK@Z
	DD	FLAT:?OnRender@MenuBtn@@MAEXXZ
	DD	FLAT:?OnRenderAfterChild@ioWnd@@MAEXXZ
	DD	FLAT:?OnProcess@MenuBtn@@MAEXM@Z
	DD	FLAT:?OnMouseProcess@ioWnd@@MAEXABVioMouse@@@Z
	DD	FLAT:?CheckFrameReSize@ioButton@@MAEXHHHH@Z
	DD	FLAT:?RenderImageList@ioWnd@@MAEXHHW4UIRenderType@@@Z
	DD	FLAT:?iwm_create@ioWnd@@UAEXXZ
	DD	FLAT:?iwm_destroy@ioWnd@@UAEXXZ
	DD	FLAT:?iwm_lbuttondown@ioButton@@UAEXABVioMouse@@@Z
	DD	FLAT:?iwm_lbuttonup@ioButton@@UAEXABVioMouse@@@Z
	DD	FLAT:?iwm_lbuttonDBLCLK@ioButton@@UAEXABVioMouse@@@Z
	DD	FLAT:?iwm_rbuttondown@ioButton@@UAEXABVioMouse@@@Z
	DD	FLAT:?iwm_rbuttonup@ioButton@@UAEXABVioMouse@@@Z
	DD	FLAT:?iwm_command@ioWnd@@UAEXPAV1@HK@Z
	DD	FLAT:?iwm_mouseover@ioButton@@UAEXABVioMouse@@@Z
	DD	FLAT:?iwm_mousemove@ioWnd@@UAEXABVioMouse@@@Z
	DD	FLAT:?iwm_mouseleave@ioWnd@@UAEXABVioMouse@@@Z
	DD	FLAT:?iwm_vscroll@ioWnd@@UAEXKH@Z
	DD	FLAT:?iwm_wheel@ioWnd@@UAEXH@Z
	DD	FLAT:?iwm_show@ioWnd@@UAEXXZ
	DD	FLAT:?iwm_hide@ioWnd@@UAEXXZ
	DD	FLAT:?iwm_esc@ioWnd@@UAE_NXZ
	DD	FLAT:?iwm_spacebar@ioWnd@@UAE_NXZ
	DD	FLAT:?iwm_gototop@ioWnd@@UAEXXZ
	DD	FLAT:?iwm_dragenter@ioWnd@@UAE?AW4IWDropEffect@@PAVioDragItem@@ABVioMouse@@@Z
	DD	FLAT:?iwm_dragover@ioWnd@@UAE?AW4IWDropEffect@@PAVioDragItem@@ABVioMouse@@@Z
	DD	FLAT:?iwm_dragleave@ioWnd@@UAEXXZ
	DD	FLAT:?iwm_dropitem@ioWnd@@UAE_NPAVioDragItem@@ABVioMouse@@PAV1@@Z
	DD	FLAT:?iwm_dropdone@ioWnd@@UAEXPAVioDragItem@@PAV1@_N@Z
	DD	FLAT:?IsEXType@ioWnd@@UBE_NXZ
	DD	FLAT:?GetWndType@ioButton@@UBEKXZ
	DD	FLAT:?RenderWnd@ioWnd@@UAEXXZ
	DD	FLAT:?SetIDEX@ioWnd@@UAEXAAK_N@Z
	DD	FLAT:?ParseXML@ioWnd@@UAEXAAVioXMLElement@@@Z
	DD	FLAT:?GetHeaderFileName@ioButton@@UAEPBDXZ
	DD	FLAT:?GetTemplateName@ioButton@@UAEPBDXZ
	DD	FLAT:?GetDefClassName@ioButton@@UBEPBDXZ
	DD	FLAT:?_Clone@ioButton@@UAEPAVioWnd@@XZ
	DD	FLAT:?Copy@ioButton@@UAEXPAVioWnd@@@Z
	DD	FLAT:?Save@ioWnd@@UAE_NAAVioXMLElement@@@Z
	DD	FLAT:?SetSaveData@ioButton@@UAEXAAVioXMLElement@@@Z
	DD	FLAT:?SetPosX@ioWnd@@UAEXH@Z
	DD	FLAT:?SetPosY@ioWnd@@UAEXH@Z
	DD	FLAT:?SetWidth@ioWnd@@UAEXH@Z
	DD	FLAT:?SetHeight@ioWnd@@UAEXH@Z
	DD	FLAT:?GetNumFixedRenderFrame@ioButton@@UBEHXZ
	DD	FLAT:?GetFixedRenderFrameType@ioButton@@UAEPBDH@Z
	DD	FLAT:?GetRenderFrame@ioButton@@UAEPAPAVioUIRenderElement@@PBD@Z
	DD	FLAT:?GetNumFixedRenderImage@ioButton@@UBEHXZ
	DD	FLAT:?GetFixedRenderImageType@ioButton@@UAEPBDH@Z
	DD	FLAT:?GetRenderImage@ioButton@@UAEPAPAVioUIRenderElement@@PBD@Z
	DD	FLAT:?AddEffect@ioWnd@@UAEXABVioHashString@@PAVioUI3DEffectRender@@@Z
	DD	FLAT:?GetEffect@ioWnd@@UAEPAVioUI3DEffectRender@@VioHashString@@@Z
	DD	FLAT:??_EMenuBtn@@UAEPAXI@Z
	DD	FLAT:?OnDrawNormal@MenuBase@@MAEXHH@Z
	DD	FLAT:?OnDrawOvered@MenuBase@@MAEXHH@Z
	DD	FLAT:?OnDrawOveredAdd@MenuBase@@MAEXHH@Z
	DD	FLAT:?OnDrawPushed@MenuBase@@MAEXHH@Z
	DD	FLAT:?OnDrawDisabled@ioButton@@MAEXHH@Z
	DD	FLAT:?OnDrawExDisabledNormal@ioButton@@MAEXHH@Z
	DD	FLAT:?OnDrawExDisabledOvered@ioButton@@MAEXHH@Z
	DD	FLAT:?OnDrawExDisabledPushed@ioButton@@MAEXHH@Z
	DD	FLAT:?OnDrawBack@ioButton@@MAEXHH@Z
	DD	FLAT:?OnDrawNormalList@ioButton@@MAEXHH@Z
	DD	FLAT:?OnDrawDisableList@ioButton@@MAEXHH@Z
CONST	ENDS
;	COMDAT xdata$x
xdata$x	SEGMENT
__unwindtable$??0MenuBtn@@QAE@XZ DD 0ffffffffH
	DD	FLAT:__unwindfunclet$??0MenuBtn@@QAE@XZ$0
	DD	00H
	DD	FLAT:__unwindfunclet$??0MenuBtn@@QAE@XZ$1
__ehfuncinfo$??0MenuBtn@@QAE@XZ DD 019930522H
	DD	02H
	DD	FLAT:__unwindtable$??0MenuBtn@@QAE@XZ
	DD	2 DUP(00H)
	DD	2 DUP(00H)
	DD	00H
	DD	01H
; Function compile flags: /Ogsp
xdata$x	ENDS
;	COMDAT ??0MenuBtn@@QAE@XZ
_TEXT	SEGMENT
_this$ = -16						; size = 4
__$EHRec$ = -12						; size = 12
??0MenuBtn@@QAE@XZ PROC					; MenuBtn::MenuBtn, COMDAT
; _this$ = ecx

; 293  : {

  00000	6a 04		 push	 4
  00002	b8 00 00 00 00	 mov	 eax, __ehhandler$??0MenuBtn@@QAE@XZ
  00007	e8 00 00 00 00	 call	 __EH_prolog3
  0000c	8b f1		 mov	 esi, ecx
  0000e	89 75 f0	 mov	 DWORD PTR _this$[ebp], esi
  00011	e8 00 00 00 00	 call	 ??0MenuBase@@QAE@XZ	; MenuBase::MenuBase
  00016	8b 3d 00 00 00
	00		 mov	 edi, DWORD PTR __imp_??0ioHashString@@QAE@XZ
  0001c	33 db		 xor	 ebx, ebx
  0001e	8d 8e 64 02 00
	00		 lea	 ecx, DWORD PTR [esi+612]
  00024	89 5d fc	 mov	 DWORD PTR __$EHRec$[ebp+8], ebx
  00027	c7 06 00 00 00
	00		 mov	 DWORD PTR [esi], OFFSET ??_7MenuBtn@@6B@
  0002d	ff d7		 call	 edi
  0002f	8d 8e 74 02 00
	00		 lea	 ecx, DWORD PTR [esi+628]
  00035	c6 45 fc 01	 mov	 BYTE PTR __$EHRec$[ebp+8], 1
  00039	ff d7		 call	 edi

; 294  : 	m_pTooltipLeft			= NULL;
; 295  : 	m_pTooltipLeftIn		= NULL;
; 296  : 	m_pTooltipCenter		= NULL;
; 297  : 	m_pTooltipRightIn		= NULL;
; 298  : 	m_pTooltipRight			= NULL;
; 299  : 
; 300  : 	m_pRedTooltip			= NULL;
; 301  : 	m_pRedTooltipText		= NULL;
; 302  : 
; 303  : 	m_pBtnIconStart			= NULL;
; 304  : 	m_pBtnIconEnd			= NULL;
; 305  : 		
; 306  : 	for( int i = 0; i < TE_EFFECT_MAX; ++i  )
; 307  : 		m_pRedEffect[i] = NULL;

  0003b	33 c0		 xor	 eax, eax
  0003d	89 9e 30 02 00
	00		 mov	 DWORD PTR [esi+560], ebx
  00043	89 9e 34 02 00
	00		 mov	 DWORD PTR [esi+564], ebx
  00049	89 9e 38 02 00
	00		 mov	 DWORD PTR [esi+568], ebx
  0004f	89 9e 3c 02 00
	00		 mov	 DWORD PTR [esi+572], ebx
  00055	89 9e 40 02 00
	00		 mov	 DWORD PTR [esi+576], ebx
  0005b	89 9e 44 02 00
	00		 mov	 DWORD PTR [esi+580], ebx
  00061	89 9e 48 02 00
	00		 mov	 DWORD PTR [esi+584], ebx
  00067	89 9e 4c 02 00
	00		 mov	 DWORD PTR [esi+588], ebx
  0006d	89 9e 50 02 00
	00		 mov	 DWORD PTR [esi+592], ebx
  00073	8d be 54 02 00
	00		 lea	 edi, DWORD PTR [esi+596]
  00079	ab		 stosd
  0007a	ab		 stosd

; 308  : 
; 309  : 	m_dwCurrentTime			= 0;

  0007b	89 9e 5c 02 00
	00		 mov	 DWORD PTR [esi+604], ebx

; 310  : 	m_iEventItemCnt			= 0;

  00081	89 9e 60 02 00
	00		 mov	 DWORD PTR [esi+608], ebx

; 311  : 
; 312  : 	m_iGrowCurrentCount		= 0;

  00087	89 9e 84 02 00
	00		 mov	 DWORD PTR [esi+644], ebx

; 313  : 	m_iGrowMaxCount			= 0;

  0008d	89 9e 88 02 00
	00		 mov	 DWORD PTR [esi+648], ebx

; 314  : 
; 315  : 	m_bUseSparkle			= false;

  00093	66 89 9e 8c 02
	00 00		 mov	 WORD PTR [esi+652], bx

; 316  : 	m_bOver					= false;
; 317  : 
; 318  : 	m_dwOverTimer			= 0;

  0009a	89 9e 90 02 00
	00		 mov	 DWORD PTR [esi+656], ebx

; 319  : 	m_dwOverTicTime			= 0;

  000a0	89 9e 94 02 00
	00		 mov	 DWORD PTR [esi+660], ebx

; 320  : 	m_byOverFrmPrintCount	= 0;

  000a6	88 9e 98 02 00
	00		 mov	 BYTE PTR [esi+664], bl

; 321  : 
; 322  : 	m_dwStartOutline		= 0;

  000ac	89 9e 9c 02 00
	00		 mov	 DWORD PTR [esi+668], ebx

; 323  : 	m_iRedEffectIndex		= 0;

  000b2	89 9e a0 02 00
	00		 mov	 DWORD PTR [esi+672], ebx

; 324  : }

  000b8	8b c6		 mov	 eax, esi
  000ba	e8 00 00 00 00	 call	 __EH_epilog3
  000bf	c3		 ret	 0
_TEXT	ENDS
;	COMDAT text$x
text$x	SEGMENT
__unwindfunclet$??0MenuBtn@@QAE@XZ$0:
  00000	8b 4d f0	 mov	 ecx, DWORD PTR _this$[ebp]
  00003	e9 00 00 00 00	 jmp	 ??1MenuBase@@UAE@XZ	; MenuBase::~MenuBase
__unwindfunclet$??0MenuBtn@@QAE@XZ$1:
  00008	8b 4d f0	 mov	 ecx, DWORD PTR _this$[ebp]
  0000b	81 c1 64 02 00
	00		 add	 ecx, 612		; 00000264H
  00011	ff 25 00 00 00
	00		 jmp	 DWORD PTR __imp_??1ioHashString@@QAE@XZ
__ehhandler$??0MenuBtn@@QAE@XZ:
  00017	8b 54 24 08	 mov	 edx, DWORD PTR [esp+8]
  0001b	8d 42 0c	 lea	 eax, DWORD PTR [edx+12]
  0001e	8b 4a ec	 mov	 ecx, DWORD PTR [edx-20]
  00021	33 c8		 xor	 ecx, eax
  00023	e8 00 00 00 00	 call	 @__security_check_cookie@4
  00028	b8 00 00 00 00	 mov	 eax, OFFSET __ehfuncinfo$??0MenuBtn@@QAE@XZ
  0002d	e9 00 00 00 00	 jmp	 ___CxxFrameHandler3
text$x	ENDS
??0MenuBtn@@QAE@XZ ENDP					; MenuBtn::MenuBtn
PUBLIC	??1MenuBtn@@UAE@XZ				; MenuBtn::~MenuBtn
;	COMDAT xdata$x
xdata$x	SEGMENT
__unwindtable$??1MenuBtn@@UAE@XZ DD 0ffffffffH
	DD	FLAT:__unwindfunclet$??1MenuBtn@@UAE@XZ$0
	DD	00H
	DD	FLAT:__unwindfunclet$??1MenuBtn@@UAE@XZ$1
	DD	01H
	DD	FLAT:__unwindfunclet$??1MenuBtn@@UAE@XZ$2
__ehfuncinfo$??1MenuBtn@@UAE@XZ DD 019930522H
	DD	03H
	DD	FLAT:__unwindtable$??1MenuBtn@@UAE@XZ
	DD	2 DUP(00H)
	DD	2 DUP(00H)
	DD	00H
	DD	01H
; Function compile flags: /Ogsp
xdata$x	ENDS
;	COMDAT ??1MenuBtn@@UAE@XZ
_TEXT	SEGMENT
_this$ = -20						; size = 4
tv192 = -16						; size = 4
__$EHRec$ = -12						; size = 12
??1MenuBtn@@UAE@XZ PROC					; MenuBtn::~MenuBtn, COMDAT
; _this$ = ecx

; 327  : {

  00000	6a 08		 push	 8
  00002	b8 00 00 00 00	 mov	 eax, __ehhandler$??1MenuBtn@@UAE@XZ
  00007	e8 00 00 00 00	 call	 __EH_prolog3
  0000c	8b f1		 mov	 esi, ecx
  0000e	89 75 ec	 mov	 DWORD PTR _this$[ebp], esi
  00011	c7 06 00 00 00
	00		 mov	 DWORD PTR [esi], OFFSET ??_7MenuBtn@@6B@

; 328  : 	SAFEDELETE( m_pTooltipLeft );

  00017	8b 8e 30 02 00
	00		 mov	 ecx, DWORD PTR [esi+560]
  0001d	33 db		 xor	 ebx, ebx
  0001f	c7 45 fc 02 00
	00 00		 mov	 DWORD PTR __$EHRec$[ebp+8], 2
  00026	3b cb		 cmp	 ecx, ebx
  00028	74 0d		 je	 SHORT $LN13@MenuBtn
  0002a	8b 01		 mov	 eax, DWORD PTR [ecx]
  0002c	6a 01		 push	 1
  0002e	ff 50 40	 call	 DWORD PTR [eax+64]
  00031	89 9e 30 02 00
	00		 mov	 DWORD PTR [esi+560], ebx
$LN13@MenuBtn:

; 329  : 	SAFEDELETE( m_pTooltipLeftIn );

  00037	8b 8e 34 02 00
	00		 mov	 ecx, DWORD PTR [esi+564]
  0003d	3b cb		 cmp	 ecx, ebx
  0003f	74 0d		 je	 SHORT $LN12@MenuBtn
  00041	8b 01		 mov	 eax, DWORD PTR [ecx]
  00043	6a 01		 push	 1
  00045	ff 50 40	 call	 DWORD PTR [eax+64]
  00048	89 9e 34 02 00
	00		 mov	 DWORD PTR [esi+564], ebx
$LN12@MenuBtn:

; 330  : 	SAFEDELETE( m_pTooltipCenter );

  0004e	8b 8e 38 02 00
	00		 mov	 ecx, DWORD PTR [esi+568]
  00054	3b cb		 cmp	 ecx, ebx
  00056	74 0d		 je	 SHORT $LN11@MenuBtn
  00058	8b 01		 mov	 eax, DWORD PTR [ecx]
  0005a	6a 01		 push	 1
  0005c	ff 50 40	 call	 DWORD PTR [eax+64]
  0005f	89 9e 38 02 00
	00		 mov	 DWORD PTR [esi+568], ebx
$LN11@MenuBtn:

; 331  : 	SAFEDELETE( m_pTooltipRightIn );

  00065	8b 8e 3c 02 00
	00		 mov	 ecx, DWORD PTR [esi+572]
  0006b	3b cb		 cmp	 ecx, ebx
  0006d	74 0d		 je	 SHORT $LN10@MenuBtn
  0006f	8b 01		 mov	 eax, DWORD PTR [ecx]
  00071	6a 01		 push	 1
  00073	ff 50 40	 call	 DWORD PTR [eax+64]
  00076	89 9e 3c 02 00
	00		 mov	 DWORD PTR [esi+572], ebx
$LN10@MenuBtn:

; 332  : 	SAFEDELETE( m_pTooltipRight );

  0007c	8b 8e 40 02 00
	00		 mov	 ecx, DWORD PTR [esi+576]
  00082	3b cb		 cmp	 ecx, ebx
  00084	74 0d		 je	 SHORT $LN9@MenuBtn
  00086	8b 01		 mov	 eax, DWORD PTR [ecx]
  00088	6a 01		 push	 1
  0008a	ff 50 40	 call	 DWORD PTR [eax+64]
  0008d	89 9e 40 02 00
	00		 mov	 DWORD PTR [esi+576], ebx
$LN9@MenuBtn:

; 333  : 
; 334  : 	SAFEDELETE( m_pRedTooltip );

  00093	8b 8e 44 02 00
	00		 mov	 ecx, DWORD PTR [esi+580]
  00099	3b cb		 cmp	 ecx, ebx
  0009b	74 0d		 je	 SHORT $LN8@MenuBtn
  0009d	8b 01		 mov	 eax, DWORD PTR [ecx]
  0009f	6a 01		 push	 1
  000a1	ff 50 40	 call	 DWORD PTR [eax+64]
  000a4	89 9e 44 02 00
	00		 mov	 DWORD PTR [esi+580], ebx
$LN8@MenuBtn:

; 335  : 	SAFEDELETE( m_pRedTooltipText );

  000aa	8b 8e 48 02 00
	00		 mov	 ecx, DWORD PTR [esi+584]
  000b0	3b cb		 cmp	 ecx, ebx
  000b2	74 0d		 je	 SHORT $LN7@MenuBtn
  000b4	8b 01		 mov	 eax, DWORD PTR [ecx]
  000b6	6a 01		 push	 1
  000b8	ff 50 40	 call	 DWORD PTR [eax+64]
  000bb	89 9e 48 02 00
	00		 mov	 DWORD PTR [esi+584], ebx
$LN7@MenuBtn:

; 336  : 	for( int i = 0; i < TE_EFFECT_MAX; ++i  )

  000c1	8d be 54 02 00
	00		 lea	 edi, DWORD PTR [esi+596]
  000c7	c7 45 f0 02 00
	00 00		 mov	 DWORD PTR tv192[ebp], 2
$LL6@MenuBtn:

; 337  : 		SAFEDELETE( m_pRedEffect[i] );

  000ce	8b 0f		 mov	 ecx, DWORD PTR [edi]
  000d0	3b cb		 cmp	 ecx, ebx
  000d2	74 09		 je	 SHORT $LN5@MenuBtn
  000d4	8b 01		 mov	 eax, DWORD PTR [ecx]
  000d6	6a 01		 push	 1
  000d8	ff 50 40	 call	 DWORD PTR [eax+64]
  000db	89 1f		 mov	 DWORD PTR [edi], ebx
$LN5@MenuBtn:

; 336  : 	for( int i = 0; i < TE_EFFECT_MAX; ++i  )

  000dd	83 c7 04	 add	 edi, 4
  000e0	ff 4d f0	 dec	 DWORD PTR tv192[ebp]
  000e3	75 e9		 jne	 SHORT $LL6@MenuBtn

; 338  : 
; 339  : 	SAFEDELETE( m_pBtnIconStart );

  000e5	8b 8e 4c 02 00
	00		 mov	 ecx, DWORD PTR [esi+588]
  000eb	3b cb		 cmp	 ecx, ebx
  000ed	74 0d		 je	 SHORT $LN2@MenuBtn
  000ef	8b 01		 mov	 eax, DWORD PTR [ecx]
  000f1	6a 01		 push	 1
  000f3	ff 50 40	 call	 DWORD PTR [eax+64]
  000f6	89 9e 4c 02 00
	00		 mov	 DWORD PTR [esi+588], ebx
$LN2@MenuBtn:

; 340  : 	SAFEDELETE( m_pBtnIconEnd );

  000fc	8b 8e 50 02 00
	00		 mov	 ecx, DWORD PTR [esi+592]
  00102	3b cb		 cmp	 ecx, ebx
  00104	74 0d		 je	 SHORT $LN1@MenuBtn
  00106	8b 01		 mov	 eax, DWORD PTR [ecx]
  00108	6a 01		 push	 1
  0010a	ff 50 40	 call	 DWORD PTR [eax+64]
  0010d	89 9e 50 02 00
	00		 mov	 DWORD PTR [esi+592], ebx
$LN1@MenuBtn:

; 341  : }

  00113	8b 3d 00 00 00
	00		 mov	 edi, DWORD PTR __imp_??1ioHashString@@QAE@XZ
  00119	8d 8e 74 02 00
	00		 lea	 ecx, DWORD PTR [esi+628]
  0011f	c6 45 fc 01	 mov	 BYTE PTR __$EHRec$[ebp+8], 1
  00123	ff d7		 call	 edi
  00125	8d 8e 64 02 00
	00		 lea	 ecx, DWORD PTR [esi+612]
  0012b	88 5d fc	 mov	 BYTE PTR __$EHRec$[ebp+8], bl
  0012e	ff d7		 call	 edi
  00130	83 4d fc ff	 or	 DWORD PTR __$EHRec$[ebp+8], -1
  00134	8b ce		 mov	 ecx, esi
  00136	e8 00 00 00 00	 call	 ??1MenuBase@@UAE@XZ	; MenuBase::~MenuBase
  0013b	e8 00 00 00 00	 call	 __EH_epilog3
  00140	c3		 ret	 0
_TEXT	ENDS
;	COMDAT text$x
text$x	SEGMENT
__unwindfunclet$??1MenuBtn@@UAE@XZ$0:
  00000	8b 4d ec	 mov	 ecx, DWORD PTR _this$[ebp]
  00003	e9 00 00 00 00	 jmp	 ??1MenuBase@@UAE@XZ	; MenuBase::~MenuBase
__unwindfunclet$??1MenuBtn@@UAE@XZ$1:
  00008	8b 4d ec	 mov	 ecx, DWORD PTR _this$[ebp]
  0000b	81 c1 64 02 00
	00		 add	 ecx, 612		; 00000264H
  00011	ff 25 00 00 00
	00		 jmp	 DWORD PTR __imp_??1ioHashString@@QAE@XZ
__unwindfunclet$??1MenuBtn@@UAE@XZ$2:
  00017	8b 4d ec	 mov	 ecx, DWORD PTR _this$[ebp]
  0001a	81 c1 74 02 00
	00		 add	 ecx, 628		; 00000274H
  00020	ff 25 00 00 00
	00		 jmp	 DWORD PTR __imp_??1ioHashString@@QAE@XZ
__ehhandler$??1MenuBtn@@UAE@XZ:
  00026	8b 54 24 08	 mov	 edx, DWORD PTR [esp+8]
  0002a	8d 42 0c	 lea	 eax, DWORD PTR [edx+12]
  0002d	8b 4a e8	 mov	 ecx, DWORD PTR [edx-24]
  00030	33 c8		 xor	 ecx, eax
  00032	e8 00 00 00 00	 call	 @__security_check_cookie@4
  00037	b8 00 00 00 00	 mov	 eax, OFFSET __ehfuncinfo$??1MenuBtn@@UAE@XZ
  0003c	e9 00 00 00 00	 jmp	 ___CxxFrameHandler3
text$x	ENDS
??1MenuBtn@@UAE@XZ ENDP					; MenuBtn::~MenuBtn
PUBLIC	__real@4041800000000000
PUBLIC	__real@4f800000
PUBLIC	?OnRenderTooltipBar@MenuBtn@@IAEXHHM@Z		; MenuBtn::OnRenderTooltipBar
EXTRN	__imp_?SetHorzFormatting@ioUIRenderImage@@QAEXW4HorzFormatting@1@@Z:PROC
EXTRN	__imp_?GetHeight@ioUIRenderElement@@QBEHXZ:PROC
EXTRN	__imp_?GetWidth@ioUIRenderElement@@QBEHXZ:PROC
EXTRN	__ftol2_sse:PROC
;	COMDAT __real@4041800000000000
; File d:\lost saga for developer\youtube\tutorial\source\src\lsclient\stdafx.h
CONST	SEGMENT
__real@4041800000000000 DQ 04041800000000000r	; 35
CONST	ENDS
;	COMDAT __real@4f800000
CONST	SEGMENT
__real@4f800000 DD 04f800000r			; 4.29497e+009
; Function compile flags: /Ogsp
; File d:\lost saga for developer\youtube\tutorial\source\src\lsclient\gui\helpwnd.cpp
CONST	ENDS
;	COMDAT ?OnRenderTooltipBar@MenuBtn@@IAEXHHM@Z
_TEXT	SEGMENT
tv393 = -4						; size = 4
tv389 = -4						; size = 4
tv385 = -4						; size = 4
_iSplitWidth$ = -4					; size = 4
_iXPos$ = 8						; size = 4
tv413 = 12						; size = 4
tv399 = 12						; size = 4
_iYPos$ = 12						; size = 4
tv360 = 16						; size = 4
_fTextWidth$ = 16					; size = 4
?OnRenderTooltipBar@MenuBtn@@IAEXHHM@Z PROC		; MenuBtn::OnRenderTooltipBar, COMDAT
; _this$ = ecx

; 982  : {

  00000	55		 push	 ebp
  00001	8b ec		 mov	 ebp, esp
  00003	51		 push	 ecx
  00004	56		 push	 esi
  00005	57		 push	 edi
  00006	8b f1		 mov	 esi, ecx

; 983  : 	if( !m_pTooltipLeft || !m_pTooltipLeftIn || !m_pTooltipCenter || !m_pTooltipRightIn || !m_pTooltipRight )

  00008	33 ff		 xor	 edi, edi
  0000a	39 be 30 02 00
	00		 cmp	 DWORD PTR [esi+560], edi
  00010	0f 84 e1 01 00
	00		 je	 $LN1@OnRenderTo
  00016	39 be 34 02 00
	00		 cmp	 DWORD PTR [esi+564], edi
  0001c	0f 84 d5 01 00
	00		 je	 $LN1@OnRenderTo
  00022	39 be 38 02 00
	00		 cmp	 DWORD PTR [esi+568], edi
  00028	0f 84 c9 01 00
	00		 je	 $LN1@OnRenderTo
  0002e	39 be 3c 02 00
	00		 cmp	 DWORD PTR [esi+572], edi
  00034	0f 84 bd 01 00
	00		 je	 $LN1@OnRenderTo
  0003a	39 be 40 02 00
	00		 cmp	 DWORD PTR [esi+576], edi
  00040	0f 84 b1 01 00
	00		 je	 $LN1@OnRenderTo

; 984  : 		return;
; 985  : 
; 986  : 	// 15(L) / 19(C) / 15(R)
; 987  : 	// /2 *FLOAT05 
; 988  : 	int iSplitWidth = (fTextWidth - 35) * FLOAT05;

  00046	53		 push	 ebx
  00047	b8 05 00 00 00	 mov	 eax, 5
  0004c	8b c8		 mov	 ecx, eax
  0004e	b8 0a 00 00 00	 mov	 eax, 10			; 0000000aH
  00053	89 4d fc	 mov	 DWORD PTR tv393[ebp], ecx
  00056	db 45 fc	 fild	 DWORD PTR tv393[ebp]
  00059	85 c9		 test	 ecx, ecx
  0005b	79 06		 jns	 SHORT $LN9@OnRenderTo
  0005d	d8 05 00 00 00
	00		 fadd	 DWORD PTR __real@4f800000
$LN9@OnRenderTo:
  00063	89 45 fc	 mov	 DWORD PTR tv389[ebp], eax
  00066	db 45 fc	 fild	 DWORD PTR tv389[ebp]
  00069	85 c0		 test	 eax, eax
  0006b	79 06		 jns	 SHORT $LN10@OnRenderTo
  0006d	d8 05 00 00 00
	00		 fadd	 DWORD PTR __real@4f800000
$LN10@OnRenderTo:
  00073	de f9		 fdivp	 ST(1), ST(0)
  00075	d9 5d fc	 fstp	 DWORD PTR tv385[ebp]
  00078	d9 45 fc	 fld	 DWORD PTR tv385[ebp]
  0007b	d9 45 10	 fld	 DWORD PTR _fTextWidth$[ebp]
  0007e	dc 25 00 00 00
	00		 fsub	 QWORD PTR __real@4041800000000000
  00084	de c9		 fmulp	 ST(1), ST(0)
  00086	e8 00 00 00 00	 call	 __ftol2_sse

; 989  : 
; 990  : 	m_pTooltipLeft->Render( iXPos, iYPos );

  0008b	8b 8e 30 02 00
	00		 mov	 ecx, DWORD PTR [esi+560]
  00091	66 0f 6e 45 0c	 movd	 xmm0, DWORD PTR _iYPos$[ebp]
  00096	8b 5d 08	 mov	 ebx, DWORD PTR _iXPos$[ebp]
  00099	57		 push	 edi
  0009a	57		 push	 edi
  0009b	57		 push	 edi
  0009c	57		 push	 edi
  0009d	0f 5b c0	 cvtdq2ps xmm0, xmm0
  000a0	51		 push	 ecx
  000a1	51		 push	 ecx
  000a2	f3 0f 11 44 24
	04		 movss	 DWORD PTR [esp+4], xmm0
  000a8	f3 0f 11 45 10	 movss	 DWORD PTR tv360[ebp], xmm0
  000ad	89 45 fc	 mov	 DWORD PTR _iSplitWidth$[ebp], eax
  000b0	8b 01		 mov	 eax, DWORD PTR [ecx]
  000b2	0f 57 c0	 xorps	 xmm0, xmm0
  000b5	f3 0f 2a c3	 cvtsi2ss xmm0, ebx
  000b9	f3 0f 11 04 24	 movss	 DWORD PTR [esp], xmm0
  000be	ff 10		 call	 DWORD PTR [eax]

; 991  : 	iXPos += m_pTooltipLeft->GetWidth();	

  000c0	8b 8e 30 02 00
	00		 mov	 ecx, DWORD PTR [esi+560]
  000c6	ff 15 00 00 00
	00		 call	 DWORD PTR __imp_?GetWidth@ioUIRenderElement@@QBEHXZ

; 992  : 
; 993  : 	m_pTooltipLeftIn->SetSize( iSplitWidth, m_pTooltipLeftIn->GetHeight() );

  000cc	8b 8e 34 02 00
	00		 mov	 ecx, DWORD PTR [esi+564]
  000d2	03 d8		 add	 ebx, eax
  000d4	8b 86 34 02 00
	00		 mov	 eax, DWORD PTR [esi+564]
  000da	8b 00		 mov	 eax, DWORD PTR [eax]
  000dc	89 45 0c	 mov	 DWORD PTR tv399[ebp], eax
  000df	ff 15 00 00 00
	00		 call	 DWORD PTR __imp_?GetHeight@ioUIRenderElement@@QBEHXZ
  000e5	8b 8e 34 02 00
	00		 mov	 ecx, DWORD PTR [esi+564]
  000eb	50		 push	 eax
  000ec	ff 75 fc	 push	 DWORD PTR _iSplitWidth$[ebp]
  000ef	8b 45 0c	 mov	 eax, DWORD PTR tv399[ebp]
  000f2	ff 50 10	 call	 DWORD PTR [eax+16]

; 994  : 	m_pTooltipLeftIn->SetHorzFormatting( ioUIRenderImage::HF_STRETCH );

  000f5	8b 8e 34 02 00
	00		 mov	 ecx, DWORD PTR [esi+564]
  000fb	6a 03		 push	 3
  000fd	ff 15 00 00 00
	00		 call	 DWORD PTR __imp_?SetHorzFormatting@ioUIRenderImage@@QAEXW4HorzFormatting@1@@Z

; 995  : 	m_pTooltipLeftIn->Render( iXPos, iYPos );

  00103	8b 8e 34 02 00
	00		 mov	 ecx, DWORD PTR [esi+564]
  00109	f3 0f 10 45 10	 movss	 xmm0, DWORD PTR tv360[ebp]
  0010e	8b 01		 mov	 eax, DWORD PTR [ecx]
  00110	57		 push	 edi
  00111	57		 push	 edi
  00112	57		 push	 edi
  00113	57		 push	 edi
  00114	51		 push	 ecx
  00115	51		 push	 ecx
  00116	f3 0f 11 44 24
	04		 movss	 DWORD PTR [esp+4], xmm0
  0011c	0f 57 c0	 xorps	 xmm0, xmm0
  0011f	f3 0f 2a c3	 cvtsi2ss xmm0, ebx
  00123	f3 0f 11 04 24	 movss	 DWORD PTR [esp], xmm0
  00128	ff 10		 call	 DWORD PTR [eax]

; 996  : 	iXPos += iSplitWidth;
; 997  : 
; 998  : 	m_pTooltipCenter->Render( iXPos, iYPos );

  0012a	8b 8e 38 02 00
	00		 mov	 ecx, DWORD PTR [esi+568]
  00130	f3 0f 10 45 10	 movss	 xmm0, DWORD PTR tv360[ebp]
  00135	03 5d fc	 add	 ebx, DWORD PTR _iSplitWidth$[ebp]
  00138	8b 01		 mov	 eax, DWORD PTR [ecx]
  0013a	57		 push	 edi
  0013b	57		 push	 edi
  0013c	57		 push	 edi
  0013d	57		 push	 edi
  0013e	51		 push	 ecx
  0013f	51		 push	 ecx
  00140	f3 0f 11 44 24
	04		 movss	 DWORD PTR [esp+4], xmm0
  00146	0f 57 c0	 xorps	 xmm0, xmm0
  00149	f3 0f 2a c3	 cvtsi2ss xmm0, ebx
  0014d	f3 0f 11 04 24	 movss	 DWORD PTR [esp], xmm0
  00152	ff 10		 call	 DWORD PTR [eax]

; 999  : 	iXPos += m_pTooltipCenter->GetWidth();

  00154	8b 8e 38 02 00
	00		 mov	 ecx, DWORD PTR [esi+568]
  0015a	ff 15 00 00 00
	00		 call	 DWORD PTR __imp_?GetWidth@ioUIRenderElement@@QBEHXZ

; 1000 : 
; 1001 : 	m_pTooltipRightIn->SetSize( iSplitWidth, m_pTooltipRightIn->GetHeight() );

  00160	8b 8e 3c 02 00
	00		 mov	 ecx, DWORD PTR [esi+572]
  00166	03 d8		 add	 ebx, eax
  00168	8b 86 3c 02 00
	00		 mov	 eax, DWORD PTR [esi+572]
  0016e	8b 00		 mov	 eax, DWORD PTR [eax]
  00170	89 45 0c	 mov	 DWORD PTR tv413[ebp], eax
  00173	ff 15 00 00 00
	00		 call	 DWORD PTR __imp_?GetHeight@ioUIRenderElement@@QBEHXZ
  00179	8b 8e 3c 02 00
	00		 mov	 ecx, DWORD PTR [esi+572]
  0017f	50		 push	 eax
  00180	ff 75 fc	 push	 DWORD PTR _iSplitWidth$[ebp]
  00183	8b 45 0c	 mov	 eax, DWORD PTR tv413[ebp]
  00186	ff 50 10	 call	 DWORD PTR [eax+16]

; 1002 : 	m_pTooltipRightIn->SetHorzFormatting( ioUIRenderImage::HF_STRETCH );

  00189	8b 8e 3c 02 00
	00		 mov	 ecx, DWORD PTR [esi+572]
  0018f	6a 03		 push	 3
  00191	ff 15 00 00 00
	00		 call	 DWORD PTR __imp_?SetHorzFormatting@ioUIRenderImage@@QAEXW4HorzFormatting@1@@Z

; 1003 : 	m_pTooltipRightIn->Render( iXPos, iYPos );

  00197	8b 8e 3c 02 00
	00		 mov	 ecx, DWORD PTR [esi+572]
  0019d	f3 0f 10 45 10	 movss	 xmm0, DWORD PTR tv360[ebp]
  001a2	8b 01		 mov	 eax, DWORD PTR [ecx]
  001a4	57		 push	 edi
  001a5	57		 push	 edi
  001a6	57		 push	 edi
  001a7	57		 push	 edi
  001a8	51		 push	 ecx
  001a9	51		 push	 ecx
  001aa	f3 0f 11 44 24
	04		 movss	 DWORD PTR [esp+4], xmm0
  001b0	0f 57 c0	 xorps	 xmm0, xmm0
  001b3	f3 0f 2a c3	 cvtsi2ss xmm0, ebx
  001b7	f3 0f 11 04 24	 movss	 DWORD PTR [esp], xmm0
  001bc	ff 10		 call	 DWORD PTR [eax]

; 1004 : 	iXPos += iSplitWidth;
; 1005 : 
; 1006 : 	m_pTooltipRight->Render( iXPos, iYPos );

  001be	8b 8e 40 02 00
	00		 mov	 ecx, DWORD PTR [esi+576]
  001c4	f3 0f 10 45 10	 movss	 xmm0, DWORD PTR tv360[ebp]
  001c9	8b 55 fc	 mov	 edx, DWORD PTR _iSplitWidth$[ebp]
  001cc	8b 01		 mov	 eax, DWORD PTR [ecx]
  001ce	57		 push	 edi
  001cf	57		 push	 edi
  001d0	57		 push	 edi
  001d1	57		 push	 edi
  001d2	51		 push	 ecx
  001d3	51		 push	 ecx
  001d4	f3 0f 11 44 24
	04		 movss	 DWORD PTR [esp+4], xmm0
  001da	03 d3		 add	 edx, ebx
  001dc	0f 57 c0	 xorps	 xmm0, xmm0
  001df	f3 0f 2a c2	 cvtsi2ss xmm0, edx
  001e3	f3 0f 11 04 24	 movss	 DWORD PTR [esp], xmm0
  001e8	ff 10		 call	 DWORD PTR [eax]

; 1007 : 	iXPos += m_pTooltipRight->GetWidth();

  001ea	8b 8e 40 02 00
	00		 mov	 ecx, DWORD PTR [esi+576]
  001f0	ff 15 00 00 00
	00		 call	 DWORD PTR __imp_?GetWidth@ioUIRenderElement@@QBEHXZ
  001f6	5b		 pop	 ebx
$LN1@OnRenderTo:
  001f7	5f		 pop	 edi
  001f8	5e		 pop	 esi

; 1008 : }

  001f9	c9		 leave
  001fa	c2 0c 00	 ret	 12			; 0000000cH
?OnRenderTooltipBar@MenuBtn@@IAEXHHM@Z ENDP		; MenuBtn::OnRenderTooltipBar
_TEXT	ENDS
PUBLIC	?SetStartSparkle@MenuBtn@@QAEXXZ		; MenuBtn::SetStartSparkle
EXTRN	__imp_?GetLoopSec@ioFrameTimer@@QBEKXZ:PROC
EXTRN	__imp_?GetSingleton@ioFrameTimer@@SAAAV1@XZ:PROC
; Function compile flags: /Ogsp
;	COMDAT ?SetStartSparkle@MenuBtn@@QAEXXZ
_TEXT	SEGMENT
?SetStartSparkle@MenuBtn@@QAEXXZ PROC			; MenuBtn::SetStartSparkle, COMDAT
; _this$ = ecx

; 1011 : {

  00000	56		 push	 esi
  00001	8b f1		 mov	 esi, ecx

; 1012 : 	m_bUseSparkle = true;

  00003	66 c7 86 8c 02
	00 00 01 00	 mov	 WORD PTR [esi+652], 1

; 1013 : 	m_bOver = false;
; 1014 : 	m_dwOverTimer = FRAMEGETTIME();

  0000c	ff 15 00 00 00
	00		 call	 DWORD PTR __imp_?GetSingleton@ioFrameTimer@@SAAAV1@XZ
  00012	8b c8		 mov	 ecx, eax
  00014	ff 15 00 00 00
	00		 call	 DWORD PTR __imp_?GetLoopSec@ioFrameTimer@@QBEKXZ
  0001a	89 86 90 02 00
	00		 mov	 DWORD PTR [esi+656], eax
  00020	5e		 pop	 esi

; 1015 : }

  00021	c3		 ret	 0
?SetStartSparkle@MenuBtn@@QAEXXZ ENDP			; MenuBtn::SetStartSparkle
_TEXT	ENDS
PUBLIC	?SetEndSparkle@MenuBtn@@QAEXXZ			; MenuBtn::SetEndSparkle
; Function compile flags: /Ogsp
;	COMDAT ?SetEndSparkle@MenuBtn@@QAEXXZ
_TEXT	SEGMENT
?SetEndSparkle@MenuBtn@@QAEXXZ PROC			; MenuBtn::SetEndSparkle, COMDAT
; _this$ = ecx

; 1019 : 	m_bUseSparkle = false;

  00000	66 c7 81 8c 02
	00 00 00 00	 mov	 WORD PTR [ecx+652], 0

; 1020 : 	m_bOver = false;
; 1021 : }

  00009	c3		 ret	 0
?SetEndSparkle@MenuBtn@@QAEXXZ ENDP			; MenuBtn::SetEndSparkle
_TEXT	ENDS
PUBLIC	??_7MessengerBtn@@6B@				; MessengerBtn::`vftable'
PUBLIC	??0MessengerBtn@@QAE@XZ				; MessengerBtn::MessengerBtn
PUBLIC	??_R4MessengerBtn@@6B@				; MessengerBtn::`RTTI Complete Object Locator'
PUBLIC	??_R0?AVMessengerBtn@@@8			; MessengerBtn `RTTI Type Descriptor'
PUBLIC	??_R3MessengerBtn@@8				; MessengerBtn::`RTTI Class Hierarchy Descriptor'
PUBLIC	??_R2MessengerBtn@@8				; MessengerBtn::`RTTI Base Class Array'
PUBLIC	??_R1A@?0A@EA@MessengerBtn@@8			; MessengerBtn::`RTTI Base Class Descriptor at (0,-1,0,64)'
PUBLIC	?AddRenderImage@MessengerBtn@@MAEXABVioHashString@@PAVioUIRenderImage@@@Z ; MessengerBtn::AddRenderImage
PUBLIC	?OnRender@MessengerBtn@@MAEXXZ			; MessengerBtn::OnRender
PUBLIC	?OnProcess@MessengerBtn@@MAEXM@Z		; MessengerBtn::OnProcess
PUBLIC	?OnDrawNormal@MessengerBtn@@MAEXHH@Z		; MessengerBtn::OnDrawNormal
EXTRN	?AddRenderFrame@ioButton@@UAEXABVioHashString@@PAVioUIRenderFrame@@@Z:PROC ; ioButton::AddRenderFrame
EXTRN	??_EMessengerBtn@@UAEPAXI@Z:PROC		; MessengerBtn::`vector deleting destructor'
EXTRN	?OnDrawOvered@ioButton@@MAEXHH@Z:PROC		; ioButton::OnDrawOvered
EXTRN	?OnDrawOveredAdd@ioButton@@MAEXHH@Z:PROC	; ioButton::OnDrawOveredAdd
EXTRN	?OnDrawPushed@ioButton@@MAEXHH@Z:PROC		; ioButton::OnDrawPushed
;	COMDAT ??_R1A@?0A@EA@MessengerBtn@@8
rdata$r	SEGMENT
??_R1A@?0A@EA@MessengerBtn@@8 DD FLAT:??_R0?AVMessengerBtn@@@8 ; MessengerBtn::`RTTI Base Class Descriptor at (0,-1,0,64)'
	DD	02H
	DD	00H
	DD	0ffffffffH
	DD	00H
	DD	040H
	DD	FLAT:??_R3MessengerBtn@@8
rdata$r	ENDS
;	COMDAT ??_R2MessengerBtn@@8
rdata$r	SEGMENT
??_R2MessengerBtn@@8 DD FLAT:??_R1A@?0A@EA@MessengerBtn@@8 ; MessengerBtn::`RTTI Base Class Array'
	DD	FLAT:??_R1A@?0A@EA@ioButton@@8
	DD	FLAT:??_R1A@?0A@EA@ioWnd@@8
rdata$r	ENDS
;	COMDAT ??_R3MessengerBtn@@8
rdata$r	SEGMENT
??_R3MessengerBtn@@8 DD 00H				; MessengerBtn::`RTTI Class Hierarchy Descriptor'
	DD	00H
	DD	03H
	DD	FLAT:??_R2MessengerBtn@@8
rdata$r	ENDS
;	COMDAT ??_R0?AVMessengerBtn@@@8
_DATA	SEGMENT
??_R0?AVMessengerBtn@@@8 DD FLAT:??_7type_info@@6B@	; MessengerBtn `RTTI Type Descriptor'
	DD	00H
	DB	'.?AVMessengerBtn@@', 00H
_DATA	ENDS
;	COMDAT ??_R4MessengerBtn@@6B@
rdata$r	SEGMENT
??_R4MessengerBtn@@6B@ DD 00H				; MessengerBtn::`RTTI Complete Object Locator'
	DD	00H
	DD	00H
	DD	FLAT:??_R0?AVMessengerBtn@@@8
	DD	FLAT:??_R3MessengerBtn@@8
rdata$r	ENDS
;	COMDAT ??_7MessengerBtn@@6B@
CONST	SEGMENT
??_7MessengerBtn@@6B@ DD FLAT:??_R4MessengerBtn@@6B@	; MessengerBtn::`vftable'
	DD	FLAT:?AddRenderFrame@ioButton@@UAEXABVioHashString@@PAVioUIRenderFrame@@@Z
	DD	FLAT:?AddRenderImage@MessengerBtn@@MAEXABVioHashString@@PAVioUIRenderImage@@@Z
	DD	FLAT:?AddTooltipHelp@ioWnd@@UAEXABVioHashString@@00@Z
	DD	FLAT:?ParseExtraInfo@ioButton@@UAEXAAVioXMLElement@@@Z
	DD	FLAT:?AddNamedRenderImage@ioWnd@@UAEXABVioHashString@@PAVioUIRenderImage@@@Z
	DD	FLAT:?RemoveNamedRenderImage@ioWnd@@UAEXABVioHashString@@@Z
	DD	FLAT:?GetNamedRenderImage@ioWnd@@UBEPAVioUIRenderImage@@ABVioHashString@@@Z
	DD	FLAT:?SetWindowAlpha@ioButton@@UAEXH@Z
	DD	FLAT:?SetActive@ioWnd@@UAEXXZ
	DD	FLAT:?SetInActive@ioWnd@@UAEXXZ
	DD	FLAT:?ClearElementImageList@ioWnd@@UAEXXZ
	DD	FLAT:?SetSize@ioWnd@@UAEXHH@Z
	DD	FLAT:?SetPositionToDefault@ioWnd@@UAEXHH_N0@Z
	DD	FLAT:?IsNeedProcess@ioWnd@@UBE_NXZ
	DD	FLAT:?IsCanMouseReaction@ioWnd@@UBE_NXZ
	DD	FLAT:?AddChild@ioWnd@@UAEXPAV1@@Z
	DD	FLAT:?DeleteChild@ioWnd@@UAEXK@Z
	DD	FLAT:?DeleteAllChild@ioWnd@@UAEXXZ
	DD	FLAT:?OnRenderShowAndHide@ioWnd@@MAE_NXZ
	DD	FLAT:?OnRenderShowAndHideByDefault@ioWnd@@MAE_NK@Z
	DD	FLAT:?OnRenderShowAndHideByTop@ioWnd@@MAE_NK@Z
	DD	FLAT:?OnRenderShowAndHideByDown@ioWnd@@MAE_NK@Z
	DD	FLAT:?OnRender@MessengerBtn@@MAEXXZ
	DD	FLAT:?OnRenderAfterChild@ioWnd@@MAEXXZ
	DD	FLAT:?OnProcess@MessengerBtn@@MAEXM@Z
	DD	FLAT:?OnMouseProcess@ioWnd@@MAEXABVioMouse@@@Z
	DD	FLAT:?CheckFrameReSize@ioButton@@MAEXHHHH@Z
	DD	FLAT:?RenderImageList@ioWnd@@MAEXHHW4UIRenderType@@@Z
	DD	FLAT:?iwm_create@ioWnd@@UAEXXZ
	DD	FLAT:?iwm_destroy@ioWnd@@UAEXXZ
	DD	FLAT:?iwm_lbuttondown@ioButton@@UAEXABVioMouse@@@Z
	DD	FLAT:?iwm_lbuttonup@ioButton@@UAEXABVioMouse@@@Z
	DD	FLAT:?iwm_lbuttonDBLCLK@ioButton@@UAEXABVioMouse@@@Z
	DD	FLAT:?iwm_rbuttondown@ioButton@@UAEXABVioMouse@@@Z
	DD	FLAT:?iwm_rbuttonup@ioButton@@UAEXABVioMouse@@@Z
	DD	FLAT:?iwm_command@ioWnd@@UAEXPAV1@HK@Z
	DD	FLAT:?iwm_mouseover@ioButton@@UAEXABVioMouse@@@Z
	DD	FLAT:?iwm_mousemove@ioWnd@@UAEXABVioMouse@@@Z
	DD	FLAT:?iwm_mouseleave@ioWnd@@UAEXABVioMouse@@@Z
	DD	FLAT:?iwm_vscroll@ioWnd@@UAEXKH@Z
	DD	FLAT:?iwm_wheel@ioWnd@@UAEXH@Z
	DD	FLAT:?iwm_show@ioWnd@@UAEXXZ
	DD	FLAT:?iwm_hide@ioWnd@@UAEXXZ
	DD	FLAT:?iwm_esc@ioWnd@@UAE_NXZ
	DD	FLAT:?iwm_spacebar@ioWnd@@UAE_NXZ
	DD	FLAT:?iwm_gototop@ioWnd@@UAEXXZ
	DD	FLAT:?iwm_dragenter@ioWnd@@UAE?AW4IWDropEffect@@PAVioDragItem@@ABVioMouse@@@Z
	DD	FLAT:?iwm_dragover@ioWnd@@UAE?AW4IWDropEffect@@PAVioDragItem@@ABVioMouse@@@Z
	DD	FLAT:?iwm_dragleave@ioWnd@@UAEXXZ
	DD	FLAT:?iwm_dropitem@ioWnd@@UAE_NPAVioDragItem@@ABVioMouse@@PAV1@@Z
	DD	FLAT:?iwm_dropdone@ioWnd@@UAEXPAVioDragItem@@PAV1@_N@Z
	DD	FLAT:?IsEXType@ioWnd@@UBE_NXZ
	DD	FLAT:?GetWndType@ioButton@@UBEKXZ
	DD	FLAT:?RenderWnd@ioWnd@@UAEXXZ
	DD	FLAT:?SetIDEX@ioWnd@@UAEXAAK_N@Z
	DD	FLAT:?ParseXML@ioWnd@@UAEXAAVioXMLElement@@@Z
	DD	FLAT:?GetHeaderFileName@ioButton@@UAEPBDXZ
	DD	FLAT:?GetTemplateName@ioButton@@UAEPBDXZ
	DD	FLAT:?GetDefClassName@ioButton@@UBEPBDXZ
	DD	FLAT:?_Clone@ioButton@@UAEPAVioWnd@@XZ
	DD	FLAT:?Copy@ioButton@@UAEXPAVioWnd@@@Z
	DD	FLAT:?Save@ioWnd@@UAE_NAAVioXMLElement@@@Z
	DD	FLAT:?SetSaveData@ioButton@@UAEXAAVioXMLElement@@@Z
	DD	FLAT:?SetPosX@ioWnd@@UAEXH@Z
	DD	FLAT:?SetPosY@ioWnd@@UAEXH@Z
	DD	FLAT:?SetWidth@ioWnd@@UAEXH@Z
	DD	FLAT:?SetHeight@ioWnd@@UAEXH@Z
	DD	FLAT:?GetNumFixedRenderFrame@ioButton@@UBEHXZ
	DD	FLAT:?GetFixedRenderFrameType@ioButton@@UAEPBDH@Z
	DD	FLAT:?GetRenderFrame@ioButton@@UAEPAPAVioUIRenderElement@@PBD@Z
	DD	FLAT:?GetNumFixedRenderImage@ioButton@@UBEHXZ
	DD	FLAT:?GetFixedRenderImageType@ioButton@@UAEPBDH@Z
	DD	FLAT:?GetRenderImage@ioButton@@UAEPAPAVioUIRenderElement@@PBD@Z
	DD	FLAT:?AddEffect@ioWnd@@UAEXABVioHashString@@PAVioUI3DEffectRender@@@Z
	DD	FLAT:?GetEffect@ioWnd@@UAEPAVioUI3DEffectRender@@VioHashString@@@Z
	DD	FLAT:??_EMessengerBtn@@UAEPAXI@Z
	DD	FLAT:?OnDrawNormal@MessengerBtn@@MAEXHH@Z
	DD	FLAT:?OnDrawOvered@ioButton@@MAEXHH@Z
	DD	FLAT:?OnDrawOveredAdd@ioButton@@MAEXHH@Z
	DD	FLAT:?OnDrawPushed@ioButton@@MAEXHH@Z
	DD	FLAT:?OnDrawDisabled@ioButton@@MAEXHH@Z
	DD	FLAT:?OnDrawExDisabledNormal@ioButton@@MAEXHH@Z
	DD	FLAT:?OnDrawExDisabledOvered@ioButton@@MAEXHH@Z
	DD	FLAT:?OnDrawExDisabledPushed@ioButton@@MAEXHH@Z
	DD	FLAT:?OnDrawBack@ioButton@@MAEXHH@Z
	DD	FLAT:?OnDrawNormalList@ioButton@@MAEXHH@Z
	DD	FLAT:?OnDrawDisableList@ioButton@@MAEXHH@Z
; Function compile flags: /Ogsp
CONST	ENDS
;	COMDAT ??0MessengerBtn@@QAE@XZ
_TEXT	SEGMENT
??0MessengerBtn@@QAE@XZ PROC				; MessengerBtn::MessengerBtn, COMDAT
; _this$ = ecx

; 1033 : {

  00000	56		 push	 esi
  00001	8b f1		 mov	 esi, ecx
  00003	ff 15 00 00 00
	00		 call	 DWORD PTR __imp_??0ioButton@@QAE@XZ

; 1034 : 	m_bScreen		= false;

  00009	33 c0		 xor	 eax, eax
  0000b	88 86 fd 01 00
	00		 mov	 BYTE PTR [esi+509], al
  00011	c7 06 00 00 00
	00		 mov	 DWORD PTR [esi], OFFSET ??_7MessengerBtn@@6B@

; 1035 : 	m_bBackMessenger= sg_bMessenger;

  00017	8a 0d 00 00 00
	00		 mov	 cl, BYTE PTR ?sg_bMessenger@MessengerBtn@@2_NA ; MessengerBtn::sg_bMessenger

; 1036 : 	m_dwScreenTime  = 0;

  0001d	89 86 00 02 00
	00		 mov	 DWORD PTR [esi+512], eax

; 1037 : 
; 1038 : 	m_pTooltipLeft = NULL;

  00023	89 86 04 02 00
	00		 mov	 DWORD PTR [esi+516], eax

; 1039 : 	m_pTooltipLeftIn = NULL;

  00029	89 86 08 02 00
	00		 mov	 DWORD PTR [esi+520], eax

; 1040 : 	m_pTooltipCenter = NULL;

  0002f	89 86 0c 02 00
	00		 mov	 DWORD PTR [esi+524], eax

; 1041 : 	m_pTooltipRightIn = NULL;

  00035	89 86 10 02 00
	00		 mov	 DWORD PTR [esi+528], eax

; 1042 : 	m_pTooltipRight = NULL;

  0003b	89 86 14 02 00
	00		 mov	 DWORD PTR [esi+532], eax
  00041	88 8e fc 01 00
	00		 mov	 BYTE PTR [esi+508], cl

; 1043 : }

  00047	8b c6		 mov	 eax, esi
  00049	5e		 pop	 esi
  0004a	c3		 ret	 0
??0MessengerBtn@@QAE@XZ ENDP				; MessengerBtn::MessengerBtn
_TEXT	ENDS
PUBLIC	??1MessengerBtn@@UAE@XZ				; MessengerBtn::~MessengerBtn
;	COMDAT xdata$x
xdata$x	SEGMENT
__unwindtable$??1MessengerBtn@@UAE@XZ DD 0ffffffffH
	DD	FLAT:__unwindfunclet$??1MessengerBtn@@UAE@XZ$0
__ehfuncinfo$??1MessengerBtn@@UAE@XZ DD 019930522H
	DD	01H
	DD	FLAT:__unwindtable$??1MessengerBtn@@UAE@XZ
	DD	2 DUP(00H)
	DD	2 DUP(00H)
	DD	00H
	DD	01H
; Function compile flags: /Ogsp
xdata$x	ENDS
;	COMDAT ??1MessengerBtn@@UAE@XZ
_TEXT	SEGMENT
_this$ = -16						; size = 4
__$EHRec$ = -12						; size = 12
??1MessengerBtn@@UAE@XZ PROC				; MessengerBtn::~MessengerBtn, COMDAT
; _this$ = ecx

; 1046 : {

  00000	6a 04		 push	 4
  00002	b8 00 00 00 00	 mov	 eax, __ehhandler$??1MessengerBtn@@UAE@XZ
  00007	e8 00 00 00 00	 call	 __EH_prolog3
  0000c	8b f1		 mov	 esi, ecx
  0000e	89 75 f0	 mov	 DWORD PTR _this$[ebp], esi
  00011	c7 06 00 00 00
	00		 mov	 DWORD PTR [esi], OFFSET ??_7MessengerBtn@@6B@

; 1047 : 	SAFEDELETE( m_pTooltipLeft );

  00017	8b 8e 04 02 00
	00		 mov	 ecx, DWORD PTR [esi+516]
  0001d	33 db		 xor	 ebx, ebx
  0001f	89 5d fc	 mov	 DWORD PTR __$EHRec$[ebp+8], ebx
  00022	3b cb		 cmp	 ecx, ebx
  00024	74 0d		 je	 SHORT $LN5@MessengerB
  00026	8b 01		 mov	 eax, DWORD PTR [ecx]
  00028	6a 01		 push	 1
  0002a	ff 50 40	 call	 DWORD PTR [eax+64]
  0002d	89 9e 04 02 00
	00		 mov	 DWORD PTR [esi+516], ebx
$LN5@MessengerB:

; 1048 : 	SAFEDELETE( m_pTooltipLeftIn );

  00033	8b 8e 08 02 00
	00		 mov	 ecx, DWORD PTR [esi+520]
  00039	3b cb		 cmp	 ecx, ebx
  0003b	74 0d		 je	 SHORT $LN4@MessengerB
  0003d	8b 01		 mov	 eax, DWORD PTR [ecx]
  0003f	6a 01		 push	 1
  00041	ff 50 40	 call	 DWORD PTR [eax+64]
  00044	89 9e 08 02 00
	00		 mov	 DWORD PTR [esi+520], ebx
$LN4@MessengerB:

; 1049 : 	SAFEDELETE( m_pTooltipCenter );

  0004a	8b 8e 0c 02 00
	00		 mov	 ecx, DWORD PTR [esi+524]
  00050	3b cb		 cmp	 ecx, ebx
  00052	74 0d		 je	 SHORT $LN3@MessengerB
  00054	8b 01		 mov	 eax, DWORD PTR [ecx]
  00056	6a 01		 push	 1
  00058	ff 50 40	 call	 DWORD PTR [eax+64]
  0005b	89 9e 0c 02 00
	00		 mov	 DWORD PTR [esi+524], ebx
$LN3@MessengerB:

; 1050 : 	SAFEDELETE( m_pTooltipRightIn );

  00061	8b 8e 10 02 00
	00		 mov	 ecx, DWORD PTR [esi+528]
  00067	3b cb		 cmp	 ecx, ebx
  00069	74 0d		 je	 SHORT $LN2@MessengerB
  0006b	8b 01		 mov	 eax, DWORD PTR [ecx]
  0006d	6a 01		 push	 1
  0006f	ff 50 40	 call	 DWORD PTR [eax+64]
  00072	89 9e 10 02 00
	00		 mov	 DWORD PTR [esi+528], ebx
$LN2@MessengerB:

; 1051 : 	SAFEDELETE( m_pTooltipRight );

  00078	8b 8e 14 02 00
	00		 mov	 ecx, DWORD PTR [esi+532]
  0007e	3b cb		 cmp	 ecx, ebx
  00080	74 0d		 je	 SHORT $LN1@MessengerB
  00082	8b 01		 mov	 eax, DWORD PTR [ecx]
  00084	6a 01		 push	 1
  00086	ff 50 40	 call	 DWORD PTR [eax+64]
  00089	89 9e 14 02 00
	00		 mov	 DWORD PTR [esi+532], ebx
$LN1@MessengerB:

; 1052 : }

  0008f	83 4d fc ff	 or	 DWORD PTR __$EHRec$[ebp+8], -1
  00093	8b ce		 mov	 ecx, esi
  00095	ff 15 00 00 00
	00		 call	 DWORD PTR __imp_??1ioButton@@UAE@XZ
  0009b	e8 00 00 00 00	 call	 __EH_epilog3
  000a0	c3		 ret	 0
_TEXT	ENDS
;	COMDAT text$x
text$x	SEGMENT
__unwindfunclet$??1MessengerBtn@@UAE@XZ$0:
  00000	8b 4d f0	 mov	 ecx, DWORD PTR _this$[ebp]
  00003	ff 25 00 00 00
	00		 jmp	 DWORD PTR __imp_??1ioButton@@UAE@XZ
__ehhandler$??1MessengerBtn@@UAE@XZ:
  00009	8b 54 24 08	 mov	 edx, DWORD PTR [esp+8]
  0000d	8d 42 0c	 lea	 eax, DWORD PTR [edx+12]
  00010	8b 4a ec	 mov	 ecx, DWORD PTR [edx-20]
  00013	33 c8		 xor	 ecx, eax
  00015	e8 00 00 00 00	 call	 @__security_check_cookie@4
  0001a	b8 00 00 00 00	 mov	 eax, OFFSET __ehfuncinfo$??1MessengerBtn@@UAE@XZ
  0001f	e9 00 00 00 00	 jmp	 ___CxxFrameHandler3
text$x	ENDS
??1MessengerBtn@@UAE@XZ ENDP				; MessengerBtn::~MessengerBtn
EXTRN	?IsVisibleMouse@ioApplication@@QAE_NXZ:PROC	; ioApplication::IsVisibleMouse
EXTRN	?GetSingleton@ioApplication@@SAAAV1@XZ:PROC	; ioApplication::GetSingleton
EXTRN	__imp_?IsShow@ioWnd@@QBE_NXZ:PROC
; Function compile flags: /Ogsp
;	COMDAT ?OnProcess@MessengerBtn@@MAEXM@Z
_TEXT	SEGMENT
_fTimePerSec$ = 8					; size = 4
?OnProcess@MessengerBtn@@MAEXM@Z PROC			; MessengerBtn::OnProcess, COMDAT
; _this$ = ecx

; 1055 : {

  00000	56		 push	 esi
  00001	8b f1		 mov	 esi, ecx

; 1056 : 	if( !IsShow() ) return;

  00003	ff 15 00 00 00
	00		 call	 DWORD PTR __imp_?IsShow@ioWnd@@QBE_NXZ
  00009	84 c0		 test	 al, al
  0000b	0f 84 84 00 00
	00		 je	 $LN1@OnProcess

; 1057 : 
; 1058 : 	//   
; 1059 : 	if( !g_App.IsVisibleMouse() )

  00011	53		 push	 ebx
  00012	e8 00 00 00 00	 call	 ?GetSingleton@ioApplication@@SAAAV1@XZ ; ioApplication::GetSingleton
  00017	8b c8		 mov	 ecx, eax
  00019	e8 00 00 00 00	 call	 ?IsVisibleMouse@ioApplication@@QAE_NXZ ; ioApplication::IsVisibleMouse
  0001e	32 db		 xor	 bl, bl
  00020	84 c0		 test	 al, al
  00022	75 06		 jne	 SHORT $LN8@OnProcess

; 1060 : 	{
; 1061 : 		m_bOver = false;

  00024	88 9e a8 00 00
	00		 mov	 BYTE PTR [esi+168], bl
$LN8@OnProcess:

; 1062 : 	}
; 1063 : 
; 1064 : 	if( m_bBackMessenger != sg_bMessenger )

  0002a	8a 86 fc 01 00
	00		 mov	 al, BYTE PTR [esi+508]
  00030	57		 push	 edi
  00031	8b 3d 00 00 00
	00		 mov	 edi, DWORD PTR __imp_?GetSingleton@ioFrameTimer@@SAAAV1@XZ
  00037	3a 05 00 00 00
	00		 cmp	 al, BYTE PTR ?sg_bMessenger@MessengerBtn@@2_NA ; MessengerBtn::sg_bMessenger
  0003d	74 10		 je	 SHORT $LN7@OnProcess

; 1065 : 		m_dwScreenTime = FRAMEGETTIME();

  0003f	ff d7		 call	 edi
  00041	8b c8		 mov	 ecx, eax
  00043	ff 15 00 00 00
	00		 call	 DWORD PTR __imp_?GetLoopSec@ioFrameTimer@@QBEKXZ
  00049	89 86 00 02 00
	00		 mov	 DWORD PTR [esi+512], eax
$LN7@OnProcess:

; 1066 : 
; 1067 : 	m_bBackMessenger = sg_bMessenger;

  0004f	a0 00 00 00 00	 mov	 al, BYTE PTR ?sg_bMessenger@MessengerBtn@@2_NA ; MessengerBtn::sg_bMessenger
  00054	88 86 fc 01 00
	00		 mov	 BYTE PTR [esi+508], al

; 1068 : 	if( m_bBackMessenger )

  0005a	3a c3		 cmp	 al, bl
  0005c	74 2f		 je	 SHORT $LN6@OnProcess

; 1069 : 	{
; 1070 : 		if( m_bScreen )

  0005e	38 9e fd 01 00
	00		 cmp	 BYTE PTR [esi+509], bl
  00064	74 33		 je	 SHORT $LN5@OnProcess

; 1071 : 		{
; 1072 : 			if( FRAMEGETTIME() - m_dwScreenTime > 500 )

  00066	ff d7		 call	 edi
  00068	8b c8		 mov	 ecx, eax
  0006a	ff 15 00 00 00
	00		 call	 DWORD PTR __imp_?GetLoopSec@ioFrameTimer@@QBEKXZ
  00070	2b 86 00 02 00
	00		 sub	 eax, DWORD PTR [esi+512]
  00076	3d f4 01 00 00	 cmp	 eax, 500		; 000001f4H
  0007b	76 16		 jbe	 SHORT $LN13@OnProcess

; 1073 : 			{
; 1074 : 				m_dwScreenTime = FRAMEGETTIME();

  0007d	ff d7		 call	 edi
  0007f	8b c8		 mov	 ecx, eax
  00081	ff 15 00 00 00
	00		 call	 DWORD PTR __imp_?GetLoopSec@ioFrameTimer@@QBEKXZ
  00087	89 86 00 02 00
	00		 mov	 DWORD PTR [esi+512], eax
$LN6@OnProcess:

; 1088 : 		m_bScreen = false;

  0008d	88 9e fd 01 00
	00		 mov	 BYTE PTR [esi+509], bl
$LN13@OnProcess:
  00093	5f		 pop	 edi
  00094	5b		 pop	 ebx
$LN1@OnProcess:
  00095	5e		 pop	 esi

; 1089 : }

  00096	c2 04 00	 ret	 4
$LN5@OnProcess:

; 1075 : 				m_bScreen      = false;
; 1076 : 			}
; 1077 : 		}	
; 1078 : 		else
; 1079 : 		{
; 1080 : 			if( FRAMEGETTIME() - m_dwScreenTime > 8000 )

  00099	ff d7		 call	 edi
  0009b	8b c8		 mov	 ecx, eax
  0009d	ff 15 00 00 00
	00		 call	 DWORD PTR __imp_?GetLoopSec@ioFrameTimer@@QBEKXZ
  000a3	2b 86 00 02 00
	00		 sub	 eax, DWORD PTR [esi+512]
  000a9	3d 40 1f 00 00	 cmp	 eax, 8000		; 00001f40H
  000ae	76 e3		 jbe	 SHORT $LN13@OnProcess

; 1081 : 			{
; 1082 : 				m_dwScreenTime = FRAMEGETTIME();

  000b0	ff d7		 call	 edi
  000b2	8b c8		 mov	 ecx, eax
  000b4	ff 15 00 00 00
	00		 call	 DWORD PTR __imp_?GetLoopSec@ioFrameTimer@@QBEKXZ
  000ba	89 86 00 02 00
	00		 mov	 DWORD PTR [esi+512], eax

; 1083 : 				m_bScreen      = true;

  000c0	c6 86 fd 01 00
	00 01		 mov	 BYTE PTR [esi+509], 1

; 1084 : 			}
; 1085 : 		}
; 1086 : 	}
; 1087 : 	else

  000c7	eb ca		 jmp	 SHORT $LN13@OnProcess
?OnProcess@MessengerBtn@@MAEXM@Z ENDP			; MessengerBtn::OnProcess
; Function compile flags: /Ogsp
_TEXT	ENDS
;	COMDAT ?OnDrawNormal@MessengerBtn@@MAEXHH@Z
_TEXT	SEGMENT
_iXPos$ = 8						; size = 4
_iYPos$ = 12						; size = 4
?OnDrawNormal@MessengerBtn@@MAEXHH@Z PROC		; MessengerBtn::OnDrawNormal, COMDAT
; _this$ = ecx

; 1092 : {

  00000	55		 push	 ebp
  00001	8b ec		 mov	 ebp, esp

; 1093 : 	if( m_bScreen )

  00003	80 b9 fd 01 00
	00 00		 cmp	 BYTE PTR [ecx+509], 0
  0000a	74 07		 je	 SHORT $LN2@OnDrawNorm@2

; 1097 : }

  0000c	5d		 pop	 ebp

; 1094 : 		ioButton::OnDrawOvered( iXPos, iYPos );

  0000d	ff 25 00 00 00
	00		 jmp	 DWORD PTR __imp_?OnDrawOvered@ioButton@@MAEXHH@Z
$LN2@OnDrawNorm@2:

; 1097 : }

  00013	5d		 pop	 ebp

; 1095 : 	else
; 1096 : 		ioButton::OnDrawNormal( iXPos, iYPos );

  00014	ff 25 00 00 00
	00		 jmp	 DWORD PTR __imp_?OnDrawNormal@ioButton@@MAEXHH@Z
?OnDrawNormal@MessengerBtn@@MAEXHH@Z ENDP		; MessengerBtn::OnDrawNormal
_TEXT	ENDS
PUBLIC	__real@4028000000000000
PUBLIC	__real@401c000000000000
PUBLIC	__real@4010000000000000
PUBLIC	?OnRenderTooltip@MessengerBtn@@IAEXHHM@Z	; MessengerBtn::OnRenderTooltip
;	COMDAT __real@4028000000000000
CONST	SEGMENT
__real@4028000000000000 DQ 04028000000000000r	; 12
CONST	ENDS
;	COMDAT __real@401c000000000000
CONST	SEGMENT
__real@401c000000000000 DQ 0401c000000000000r	; 7
CONST	ENDS
;	COMDAT __real@4010000000000000
CONST	SEGMENT
__real@4010000000000000 DQ 04010000000000000r	; 4
; Function compile flags: /Ogsp
CONST	ENDS
;	COMDAT ?OnRenderTooltip@MessengerBtn@@IAEXHHM@Z
_TEXT	SEGMENT
tv309 = -8						; size = 8
tv326 = 8						; size = 4
_iXPos$ = 8						; size = 4
tv280 = 12						; size = 4
_iYPos$ = 12						; size = 4
_fTextWidth$ = 16					; size = 4
?OnRenderTooltip@MessengerBtn@@IAEXHHM@Z PROC		; MessengerBtn::OnRenderTooltip, COMDAT
; _this$ = ecx

; 1200 : {

  00000	55		 push	 ebp
  00001	8b ec		 mov	 ebp, esp
  00003	51		 push	 ecx
  00004	51		 push	 ecx
  00005	56		 push	 esi
  00006	57		 push	 edi
  00007	8b f1		 mov	 esi, ecx

; 1201 : 	if( !m_pTooltipLeft || !m_pTooltipLeftIn || !m_pTooltipCenter || !m_pTooltipRightIn || !m_pTooltipRight ) return;

  00009	33 ff		 xor	 edi, edi
  0000b	39 be 04 02 00
	00		 cmp	 DWORD PTR [esi+516], edi
  00011	0f 84 50 01 00
	00		 je	 $LN1@OnRenderTo@2
  00017	39 be 08 02 00
	00		 cmp	 DWORD PTR [esi+520], edi
  0001d	0f 84 44 01 00
	00		 je	 $LN1@OnRenderTo@2
  00023	39 be 0c 02 00
	00		 cmp	 DWORD PTR [esi+524], edi
  00029	0f 84 38 01 00
	00		 je	 $LN1@OnRenderTo@2
  0002f	39 be 10 02 00
	00		 cmp	 DWORD PTR [esi+528], edi
  00035	0f 84 2c 01 00
	00		 je	 $LN1@OnRenderTo@2
  0003b	39 be 14 02 00
	00		 cmp	 DWORD PTR [esi+532], edi
  00041	0f 84 20 01 00
	00		 je	 $LN1@OnRenderTo@2

; 1202 : 
; 1203 : 	m_pTooltipLeft->Render( iXPos - 7, iYPos );

  00047	8b 8e 04 02 00
	00		 mov	 ecx, DWORD PTR [esi+516]
  0004d	66 0f 6e 45 0c	 movd	 xmm0, DWORD PTR _iYPos$[ebp]
  00052	8b 01		 mov	 eax, DWORD PTR [ecx]
  00054	53		 push	 ebx
  00055	8b 5d 08	 mov	 ebx, DWORD PTR _iXPos$[ebp]
  00058	57		 push	 edi
  00059	57		 push	 edi
  0005a	57		 push	 edi
  0005b	57		 push	 edi
  0005c	0f 5b c0	 cvtdq2ps xmm0, xmm0
  0005f	51		 push	 ecx
  00060	51		 push	 ecx
  00061	f3 0f 11 44 24
	04		 movss	 DWORD PTR [esp+4], xmm0
  00067	f3 0f 11 45 0c	 movss	 DWORD PTR tv280[ebp], xmm0
  0006c	8d 53 f9	 lea	 edx, DWORD PTR [ebx-7]
  0006f	0f 57 c0	 xorps	 xmm0, xmm0
  00072	f3 0f 2a c2	 cvtsi2ss xmm0, edx
  00076	f3 0f 11 04 24	 movss	 DWORD PTR [esp], xmm0
  0007b	ff 10		 call	 DWORD PTR [eax]

; 1204 : 	m_pTooltipLeftIn->SetSize( fTextWidth + 4, m_pTooltipLeftIn->GetHeight() );

  0007d	8b 86 08 02 00
	00		 mov	 eax, DWORD PTR [esi+520]
  00083	8b 00		 mov	 eax, DWORD PTR [eax]
  00085	8b 8e 08 02 00
	00		 mov	 ecx, DWORD PTR [esi+520]
  0008b	89 45 08	 mov	 DWORD PTR tv326[ebp], eax
  0008e	ff 15 00 00 00
	00		 call	 DWORD PTR __imp_?GetHeight@ioUIRenderElement@@QBEHXZ
  00094	f3 0f 10 45 10	 movss	 xmm0, DWORD PTR _fTextWidth$[ebp]
  00099	8b 8e 08 02 00
	00		 mov	 ecx, DWORD PTR [esi+520]
  0009f	50		 push	 eax
  000a0	0f 5a c0	 cvtps2pd xmm0, xmm0
  000a3	f2 0f 58 05 00
	00 00 00	 addsd	 xmm0, QWORD PTR __real@4010000000000000
  000ab	f2 0f 2c c0	 cvttsd2si eax, xmm0
  000af	50		 push	 eax
  000b0	8b 45 08	 mov	 eax, DWORD PTR tv326[ebp]
  000b3	ff 50 10	 call	 DWORD PTR [eax+16]

; 1205 : 	m_pTooltipLeftIn->SetHorzFormatting( ioUIRenderImage::HF_STRETCH );

  000b6	8b 8e 08 02 00
	00		 mov	 ecx, DWORD PTR [esi+520]
  000bc	6a 03		 push	 3
  000be	ff 15 00 00 00
	00		 call	 DWORD PTR __imp_?SetHorzFormatting@ioUIRenderImage@@QAEXW4HorzFormatting@1@@Z

; 1206 : 	m_pTooltipLeftIn->Render( iXPos + 8, iYPos );

  000c4	8b 8e 08 02 00
	00		 mov	 ecx, DWORD PTR [esi+520]
  000ca	f3 0f 10 45 0c	 movss	 xmm0, DWORD PTR tv280[ebp]
  000cf	8b 01		 mov	 eax, DWORD PTR [ecx]
  000d1	57		 push	 edi
  000d2	57		 push	 edi
  000d3	57		 push	 edi
  000d4	57		 push	 edi
  000d5	51		 push	 ecx
  000d6	51		 push	 ecx
  000d7	f3 0f 11 44 24
	04		 movss	 DWORD PTR [esp+4], xmm0
  000dd	8d 53 08	 lea	 edx, DWORD PTR [ebx+8]
  000e0	0f 57 c0	 xorps	 xmm0, xmm0
  000e3	f3 0f 2a c2	 cvtsi2ss xmm0, edx
  000e7	f3 0f 11 04 24	 movss	 DWORD PTR [esp], xmm0
  000ec	ff 10		 call	 DWORD PTR [eax]

; 1207 : 	m_pTooltipCenter->Render( iXPos + fTextWidth - 7, iYPos );

  000ee	8b 8e 0c 02 00
	00		 mov	 ecx, DWORD PTR [esi+524]
  000f4	f3 0f 10 4d 10	 movss	 xmm1, DWORD PTR _fTextWidth$[ebp]
  000f9	8b 01		 mov	 eax, DWORD PTR [ecx]
  000fb	57		 push	 edi
  000fc	57		 push	 edi
  000fd	0f 57 c0	 xorps	 xmm0, xmm0
  00100	57		 push	 edi
  00101	f3 0f 2a c3	 cvtsi2ss xmm0, ebx
  00105	57		 push	 edi
  00106	0f 5a c0	 cvtps2pd xmm0, xmm0
  00109	0f 5a c9	 cvtps2pd xmm1, xmm1
  0010c	f2 0f 58 c1	 addsd	 xmm0, xmm1
  00110	f3 0f 10 4d 0c	 movss	 xmm1, DWORD PTR tv280[ebp]
  00115	51		 push	 ecx
  00116	f2 0f 11 45 f8	 movsd	 QWORD PTR tv309[ebp], xmm0
  0011b	f2 0f 5c 05 00
	00 00 00	 subsd	 xmm0, QWORD PTR __real@401c000000000000
  00123	51		 push	 ecx
  00124	f3 0f 11 4c 24
	04		 movss	 DWORD PTR [esp+4], xmm1
  0012a	66 0f 5a c0	 cvtpd2ps xmm0, xmm0
  0012e	f3 0f 11 04 24	 movss	 DWORD PTR [esp], xmm0
  00133	ff 10		 call	 DWORD PTR [eax]

; 1208 : 	m_pTooltipRight->Render( iXPos + fTextWidth + 12, iYPos );

  00135	8b 8e 14 02 00
	00		 mov	 ecx, DWORD PTR [esi+532]
  0013b	8b 01		 mov	 eax, DWORD PTR [ecx]
  0013d	f3 0f 10 45 0c	 movss	 xmm0, DWORD PTR tv280[ebp]
  00142	57		 push	 edi
  00143	57		 push	 edi
  00144	57		 push	 edi
  00145	57		 push	 edi
  00146	51		 push	 ecx
  00147	51		 push	 ecx
  00148	f3 0f 11 44 24
	04		 movss	 DWORD PTR [esp+4], xmm0
  0014e	f2 0f 10 45 f8	 movsd	 xmm0, QWORD PTR tv309[ebp]
  00153	f2 0f 58 05 00
	00 00 00	 addsd	 xmm0, QWORD PTR __real@4028000000000000
  0015b	66 0f 5a c0	 cvtpd2ps xmm0, xmm0
  0015f	f3 0f 11 04 24	 movss	 DWORD PTR [esp], xmm0
  00164	ff 10		 call	 DWORD PTR [eax]
  00166	5b		 pop	 ebx
$LN1@OnRenderTo@2:
  00167	5f		 pop	 edi
  00168	5e		 pop	 esi

; 1209 : }

  00169	c9		 leave
  0016a	c2 0c 00	 ret	 12			; 0000000cH
?OnRenderTooltip@MessengerBtn@@IAEXHHM@Z ENDP		; MessengerBtn::OnRenderTooltip
_TEXT	ENDS
PUBLIC	??_7PlazaStateBtn@@6B@				; PlazaStateBtn::`vftable'
PUBLIC	??0PlazaStateBtn@@QAE@XZ			; PlazaStateBtn::PlazaStateBtn
PUBLIC	??_R4PlazaStateBtn@@6B@				; PlazaStateBtn::`RTTI Complete Object Locator'
PUBLIC	??_R0?AVPlazaStateBtn@@@8			; PlazaStateBtn `RTTI Type Descriptor'
PUBLIC	??_R3PlazaStateBtn@@8				; PlazaStateBtn::`RTTI Class Hierarchy Descriptor'
PUBLIC	??_R2PlazaStateBtn@@8				; PlazaStateBtn::`RTTI Base Class Array'
PUBLIC	??_R1A@?0A@EA@PlazaStateBtn@@8			; PlazaStateBtn::`RTTI Base Class Descriptor at (0,-1,0,64)'
PUBLIC	?AddRenderImage@PlazaStateBtn@@MAEXABVioHashString@@PAVioUIRenderImage@@@Z ; PlazaStateBtn::AddRenderImage
PUBLIC	?OnRender@PlazaStateBtn@@MAEXXZ			; PlazaStateBtn::OnRender
PUBLIC	?OnProcess@PlazaStateBtn@@MAEXM@Z		; PlazaStateBtn::OnProcess
EXTRN	??_EPlazaStateBtn@@UAEPAXI@Z:PROC		; PlazaStateBtn::`vector deleting destructor'
;	COMDAT ??_R1A@?0A@EA@PlazaStateBtn@@8
rdata$r	SEGMENT
??_R1A@?0A@EA@PlazaStateBtn@@8 DD FLAT:??_R0?AVPlazaStateBtn@@@8 ; PlazaStateBtn::`RTTI Base Class Descriptor at (0,-1,0,64)'
	DD	03H
	DD	00H
	DD	0ffffffffH
	DD	00H
	DD	040H
	DD	FLAT:??_R3PlazaStateBtn@@8
rdata$r	ENDS
;	COMDAT ??_R2PlazaStateBtn@@8
rdata$r	SEGMENT
??_R2PlazaStateBtn@@8 DD FLAT:??_R1A@?0A@EA@PlazaStateBtn@@8 ; PlazaStateBtn::`RTTI Base Class Array'
	DD	FLAT:??_R1A@?0A@EA@MenuBase@@8
	DD	FLAT:??_R1A@?0A@EA@ioButton@@8
	DD	FLAT:??_R1A@?0A@EA@ioWnd@@8
rdata$r	ENDS
;	COMDAT ??_R3PlazaStateBtn@@8
rdata$r	SEGMENT
??_R3PlazaStateBtn@@8 DD 00H				; PlazaStateBtn::`RTTI Class Hierarchy Descriptor'
	DD	00H
	DD	04H
	DD	FLAT:??_R2PlazaStateBtn@@8
rdata$r	ENDS
;	COMDAT ??_R0?AVPlazaStateBtn@@@8
_DATA	SEGMENT
??_R0?AVPlazaStateBtn@@@8 DD FLAT:??_7type_info@@6B@	; PlazaStateBtn `RTTI Type Descriptor'
	DD	00H
	DB	'.?AVPlazaStateBtn@@', 00H
_DATA	ENDS
;	COMDAT ??_R4PlazaStateBtn@@6B@
rdata$r	SEGMENT
??_R4PlazaStateBtn@@6B@ DD 00H				; PlazaStateBtn::`RTTI Complete Object Locator'
	DD	00H
	DD	00H
	DD	FLAT:??_R0?AVPlazaStateBtn@@@8
	DD	FLAT:??_R3PlazaStateBtn@@8
rdata$r	ENDS
;	COMDAT ??_7PlazaStateBtn@@6B@
CONST	SEGMENT
??_7PlazaStateBtn@@6B@ DD FLAT:??_R4PlazaStateBtn@@6B@	; PlazaStateBtn::`vftable'
	DD	FLAT:?AddRenderFrame@MenuBase@@MAEXABVioHashString@@PAVioUIRenderFrame@@@Z
	DD	FLAT:?AddRenderImage@PlazaStateBtn@@MAEXABVioHashString@@PAVioUIRenderImage@@@Z
	DD	FLAT:?AddTooltipHelp@ioWnd@@UAEXABVioHashString@@00@Z
	DD	FLAT:?ParseExtraInfo@ioButton@@UAEXAAVioXMLElement@@@Z
	DD	FLAT:?AddNamedRenderImage@ioWnd@@UAEXABVioHashString@@PAVioUIRenderImage@@@Z
	DD	FLAT:?RemoveNamedRenderImage@ioWnd@@UAEXABVioHashString@@@Z
	DD	FLAT:?GetNamedRenderImage@ioWnd@@UBEPAVioUIRenderImage@@ABVioHashString@@@Z
	DD	FLAT:?SetWindowAlpha@ioButton@@UAEXH@Z
	DD	FLAT:?SetActive@ioWnd@@UAEXXZ
	DD	FLAT:?SetInActive@ioWnd@@UAEXXZ
	DD	FLAT:?ClearElementImageList@ioWnd@@UAEXXZ
	DD	FLAT:?SetSize@ioWnd@@UAEXHH@Z
	DD	FLAT:?SetPositionToDefault@ioWnd@@UAEXHH_N0@Z
	DD	FLAT:?IsNeedProcess@ioWnd@@UBE_NXZ
	DD	FLAT:?IsCanMouseReaction@ioWnd@@UBE_NXZ
	DD	FLAT:?AddChild@ioWnd@@UAEXPAV1@@Z
	DD	FLAT:?DeleteChild@ioWnd@@UAEXK@Z
	DD	FLAT:?DeleteAllChild@ioWnd@@UAEXXZ
	DD	FLAT:?OnRenderShowAndHide@ioWnd@@MAE_NXZ
	DD	FLAT:?OnRenderShowAndHideByDefault@ioWnd@@MAE_NK@Z
	DD	FLAT:?OnRenderShowAndHideByTop@ioWnd@@MAE_NK@Z
	DD	FLAT:?OnRenderShowAndHideByDown@ioWnd@@MAE_NK@Z
	DD	FLAT:?OnRender@PlazaStateBtn@@MAEXXZ
	DD	FLAT:?OnRenderAfterChild@ioWnd@@MAEXXZ
	DD	FLAT:?OnProcess@PlazaStateBtn@@MAEXM@Z
	DD	FLAT:?OnMouseProcess@ioWnd@@MAEXABVioMouse@@@Z
	DD	FLAT:?CheckFrameReSize@ioButton@@MAEXHHHH@Z
	DD	FLAT:?RenderImageList@ioWnd@@MAEXHHW4UIRenderType@@@Z
	DD	FLAT:?iwm_create@ioWnd@@UAEXXZ
	DD	FLAT:?iwm_destroy@ioWnd@@UAEXXZ
	DD	FLAT:?iwm_lbuttondown@ioButton@@UAEXABVioMouse@@@Z
	DD	FLAT:?iwm_lbuttonup@ioButton@@UAEXABVioMouse@@@Z
	DD	FLAT:?iwm_lbuttonDBLCLK@ioButton@@UAEXABVioMouse@@@Z
	DD	FLAT:?iwm_rbuttondown@ioButton@@UAEXABVioMouse@@@Z
	DD	FLAT:?iwm_rbuttonup@ioButton@@UAEXABVioMouse@@@Z
	DD	FLAT:?iwm_command@ioWnd@@UAEXPAV1@HK@Z
	DD	FLAT:?iwm_mouseover@ioButton@@UAEXABVioMouse@@@Z
	DD	FLAT:?iwm_mousemove@ioWnd@@UAEXABVioMouse@@@Z
	DD	FLAT:?iwm_mouseleave@ioWnd@@UAEXABVioMouse@@@Z
	DD	FLAT:?iwm_vscroll@ioWnd@@UAEXKH@Z
	DD	FLAT:?iwm_wheel@ioWnd@@UAEXH@Z
	DD	FLAT:?iwm_show@ioWnd@@UAEXXZ
	DD	FLAT:?iwm_hide@ioWnd@@UAEXXZ
	DD	FLAT:?iwm_esc@ioWnd@@UAE_NXZ
	DD	FLAT:?iwm_spacebar@ioWnd@@UAE_NXZ
	DD	FLAT:?iwm_gototop@ioWnd@@UAEXXZ
	DD	FLAT:?iwm_dragenter@ioWnd@@UAE?AW4IWDropEffect@@PAVioDragItem@@ABVioMouse@@@Z
	DD	FLAT:?iwm_dragover@ioWnd@@UAE?AW4IWDropEffect@@PAVioDragItem@@ABVioMouse@@@Z
	DD	FLAT:?iwm_dragleave@ioWnd@@UAEXXZ
	DD	FLAT:?iwm_dropitem@ioWnd@@UAE_NPAVioDragItem@@ABVioMouse@@PAV1@@Z
	DD	FLAT:?iwm_dropdone@ioWnd@@UAEXPAVioDragItem@@PAV1@_N@Z
	DD	FLAT:?IsEXType@ioWnd@@UBE_NXZ
	DD	FLAT:?GetWndType@ioButton@@UBEKXZ
	DD	FLAT:?RenderWnd@ioWnd@@UAEXXZ
	DD	FLAT:?SetIDEX@ioWnd@@UAEXAAK_N@Z
	DD	FLAT:?ParseXML@ioWnd@@UAEXAAVioXMLElement@@@Z
	DD	FLAT:?GetHeaderFileName@ioButton@@UAEPBDXZ
	DD	FLAT:?GetTemplateName@ioButton@@UAEPBDXZ
	DD	FLAT:?GetDefClassName@ioButton@@UBEPBDXZ
	DD	FLAT:?_Clone@ioButton@@UAEPAVioWnd@@XZ
	DD	FLAT:?Copy@ioButton@@UAEXPAVioWnd@@@Z
	DD	FLAT:?Save@ioWnd@@UAE_NAAVioXMLElement@@@Z
	DD	FLAT:?SetSaveData@ioButton@@UAEXAAVioXMLElement@@@Z
	DD	FLAT:?SetPosX@ioWnd@@UAEXH@Z
	DD	FLAT:?SetPosY@ioWnd@@UAEXH@Z
	DD	FLAT:?SetWidth@ioWnd@@UAEXH@Z
	DD	FLAT:?SetHeight@ioWnd@@UAEXH@Z
	DD	FLAT:?GetNumFixedRenderFrame@ioButton@@UBEHXZ
	DD	FLAT:?GetFixedRenderFrameType@ioButton@@UAEPBDH@Z
	DD	FLAT:?GetRenderFrame@ioButton@@UAEPAPAVioUIRenderElement@@PBD@Z
	DD	FLAT:?GetNumFixedRenderImage@ioButton@@UBEHXZ
	DD	FLAT:?GetFixedRenderImageType@ioButton@@UAEPBDH@Z
	DD	FLAT:?GetRenderImage@ioButton@@UAEPAPAVioUIRenderElement@@PBD@Z
	DD	FLAT:?AddEffect@ioWnd@@UAEXABVioHashString@@PAVioUI3DEffectRender@@@Z
	DD	FLAT:?GetEffect@ioWnd@@UAEPAVioUI3DEffectRender@@VioHashString@@@Z
	DD	FLAT:??_EPlazaStateBtn@@UAEPAXI@Z
	DD	FLAT:?OnDrawNormal@MenuBase@@MAEXHH@Z
	DD	FLAT:?OnDrawOvered@MenuBase@@MAEXHH@Z
	DD	FLAT:?OnDrawOveredAdd@MenuBase@@MAEXHH@Z
	DD	FLAT:?OnDrawPushed@MenuBase@@MAEXHH@Z
	DD	FLAT:?OnDrawDisabled@ioButton@@MAEXHH@Z
	DD	FLAT:?OnDrawExDisabledNormal@ioButton@@MAEXHH@Z
	DD	FLAT:?OnDrawExDisabledOvered@ioButton@@MAEXHH@Z
	DD	FLAT:?OnDrawExDisabledPushed@ioButton@@MAEXHH@Z
	DD	FLAT:?OnDrawBack@ioButton@@MAEXHH@Z
	DD	FLAT:?OnDrawNormalList@ioButton@@MAEXHH@Z
	DD	FLAT:?OnDrawDisableList@ioButton@@MAEXHH@Z
; Function compile flags: /Ogsp
CONST	ENDS
;	COMDAT ??0PlazaStateBtn@@QAE@XZ
_TEXT	SEGMENT
??0PlazaStateBtn@@QAE@XZ PROC				; PlazaStateBtn::PlazaStateBtn, COMDAT
; _this$ = ecx

; 1212 : {

  00000	56		 push	 esi
  00001	8b f1		 mov	 esi, ecx
  00003	e8 00 00 00 00	 call	 ??0MenuBase@@QAE@XZ	; MenuBase::MenuBase

; 1213 : 	m_pNormalCommunity = NULL;

  00008	33 c0		 xor	 eax, eax
  0000a	89 86 30 02 00
	00		 mov	 DWORD PTR [esi+560], eax

; 1214 : 	m_pDisableCommunity= NULL;

  00010	89 86 34 02 00
	00		 mov	 DWORD PTR [esi+564], eax

; 1215 : 	m_pNormalPractice  = NULL;

  00016	89 86 38 02 00
	00		 mov	 DWORD PTR [esi+568], eax

; 1216 : 	m_pDisablePractice = NULL;

  0001c	89 86 3c 02 00
	00		 mov	 DWORD PTR [esi+572], eax

; 1217 : 
; 1218 : 	m_pPlayStage = NULL;

  00022	89 86 40 02 00
	00		 mov	 DWORD PTR [esi+576], eax
  00028	c7 06 00 00 00
	00		 mov	 DWORD PTR [esi], OFFSET ??_7PlazaStateBtn@@6B@

; 1219 : }

  0002e	8b c6		 mov	 eax, esi
  00030	5e		 pop	 esi
  00031	c3		 ret	 0
??0PlazaStateBtn@@QAE@XZ ENDP				; PlazaStateBtn::PlazaStateBtn
_TEXT	ENDS
PUBLIC	??1PlazaStateBtn@@UAE@XZ			; PlazaStateBtn::~PlazaStateBtn
;	COMDAT xdata$x
xdata$x	SEGMENT
__unwindtable$??1PlazaStateBtn@@UAE@XZ DD 0ffffffffH
	DD	FLAT:__unwindfunclet$??1PlazaStateBtn@@UAE@XZ$0
__ehfuncinfo$??1PlazaStateBtn@@UAE@XZ DD 019930522H
	DD	01H
	DD	FLAT:__unwindtable$??1PlazaStateBtn@@UAE@XZ
	DD	2 DUP(00H)
	DD	2 DUP(00H)
	DD	00H
	DD	01H
; Function compile flags: /Ogsp
xdata$x	ENDS
;	COMDAT ??1PlazaStateBtn@@UAE@XZ
_TEXT	SEGMENT
_this$ = -16						; size = 4
__$EHRec$ = -12						; size = 12
??1PlazaStateBtn@@UAE@XZ PROC				; PlazaStateBtn::~PlazaStateBtn, COMDAT
; _this$ = ecx

; 1222 : {

  00000	6a 04		 push	 4
  00002	b8 00 00 00 00	 mov	 eax, __ehhandler$??1PlazaStateBtn@@UAE@XZ
  00007	e8 00 00 00 00	 call	 __EH_prolog3
  0000c	8b f1		 mov	 esi, ecx
  0000e	89 75 f0	 mov	 DWORD PTR _this$[ebp], esi
  00011	c7 06 00 00 00
	00		 mov	 DWORD PTR [esi], OFFSET ??_7PlazaStateBtn@@6B@

; 1223 : 	SAFEDELETE( m_pNormalCommunity );

  00017	8b 8e 30 02 00
	00		 mov	 ecx, DWORD PTR [esi+560]
  0001d	33 db		 xor	 ebx, ebx
  0001f	89 5d fc	 mov	 DWORD PTR __$EHRec$[ebp+8], ebx
  00022	3b cb		 cmp	 ecx, ebx
  00024	74 0d		 je	 SHORT $LN4@PlazaState
  00026	8b 01		 mov	 eax, DWORD PTR [ecx]
  00028	6a 01		 push	 1
  0002a	ff 50 40	 call	 DWORD PTR [eax+64]
  0002d	89 9e 30 02 00
	00		 mov	 DWORD PTR [esi+560], ebx
$LN4@PlazaState:

; 1224 : 	SAFEDELETE( m_pDisableCommunity );

  00033	8b 8e 34 02 00
	00		 mov	 ecx, DWORD PTR [esi+564]
  00039	3b cb		 cmp	 ecx, ebx
  0003b	74 0d		 je	 SHORT $LN3@PlazaState
  0003d	8b 01		 mov	 eax, DWORD PTR [ecx]
  0003f	6a 01		 push	 1
  00041	ff 50 40	 call	 DWORD PTR [eax+64]
  00044	89 9e 34 02 00
	00		 mov	 DWORD PTR [esi+564], ebx
$LN3@PlazaState:

; 1225 : 	SAFEDELETE( m_pNormalPractice );

  0004a	8b 8e 38 02 00
	00		 mov	 ecx, DWORD PTR [esi+568]
  00050	3b cb		 cmp	 ecx, ebx
  00052	74 0d		 je	 SHORT $LN2@PlazaState
  00054	8b 01		 mov	 eax, DWORD PTR [ecx]
  00056	6a 01		 push	 1
  00058	ff 50 40	 call	 DWORD PTR [eax+64]
  0005b	89 9e 38 02 00
	00		 mov	 DWORD PTR [esi+568], ebx
$LN2@PlazaState:

; 1226 : 	SAFEDELETE( m_pDisablePractice );

  00061	8b 8e 3c 02 00
	00		 mov	 ecx, DWORD PTR [esi+572]
  00067	3b cb		 cmp	 ecx, ebx
  00069	74 0d		 je	 SHORT $LN1@PlazaState
  0006b	8b 01		 mov	 eax, DWORD PTR [ecx]
  0006d	6a 01		 push	 1
  0006f	ff 50 40	 call	 DWORD PTR [eax+64]
  00072	89 9e 3c 02 00
	00		 mov	 DWORD PTR [esi+572], ebx
$LN1@PlazaState:

; 1227 : }

  00078	83 4d fc ff	 or	 DWORD PTR __$EHRec$[ebp+8], -1
  0007c	8b ce		 mov	 ecx, esi
  0007e	e8 00 00 00 00	 call	 ??1MenuBase@@UAE@XZ	; MenuBase::~MenuBase
  00083	e8 00 00 00 00	 call	 __EH_epilog3
  00088	c3		 ret	 0
_TEXT	ENDS
;	COMDAT text$x
text$x	SEGMENT
__unwindfunclet$??1PlazaStateBtn@@UAE@XZ$0:
  00000	8b 4d f0	 mov	 ecx, DWORD PTR _this$[ebp]
  00003	e9 00 00 00 00	 jmp	 ??1MenuBase@@UAE@XZ	; MenuBase::~MenuBase
__ehhandler$??1PlazaStateBtn@@UAE@XZ:
  00008	8b 54 24 08	 mov	 edx, DWORD PTR [esp+8]
  0000c	8d 42 0c	 lea	 eax, DWORD PTR [edx+12]
  0000f	8b 4a ec	 mov	 ecx, DWORD PTR [edx-20]
  00012	33 c8		 xor	 ecx, eax
  00014	e8 00 00 00 00	 call	 @__security_check_cookie@4
  00019	b8 00 00 00 00	 mov	 eax, OFFSET __ehfuncinfo$??1PlazaStateBtn@@UAE@XZ
  0001e	e9 00 00 00 00	 jmp	 ___CxxFrameHandler3
text$x	ENDS
??1PlazaStateBtn@@UAE@XZ ENDP				; PlazaStateBtn::~PlazaStateBtn
PUBLIC	?SetPlayStage@PlazaStateBtn@@QAEXPAVioPlayStage@@@Z ; PlazaStateBtn::SetPlayStage
; Function compile flags: /Ogsp
;	COMDAT ?SetPlayStage@PlazaStateBtn@@QAEXPAVioPlayStage@@@Z
_TEXT	SEGMENT
_pPlayStage$ = 8					; size = 4
?SetPlayStage@PlazaStateBtn@@QAEXPAVioPlayStage@@@Z PROC ; PlazaStateBtn::SetPlayStage, COMDAT
; _this$ = ecx

; 1258 : {

  00000	55		 push	 ebp
  00001	8b ec		 mov	 ebp, esp

; 1259 : 	m_pPlayStage = pPlayStage;

  00003	8b 45 08	 mov	 eax, DWORD PTR _pPlayStage$[ebp]
  00006	89 81 40 02 00
	00		 mov	 DWORD PTR [ecx+576], eax

; 1260 : }

  0000c	5d		 pop	 ebp
  0000d	c2 04 00	 ret	 4
?SetPlayStage@PlazaStateBtn@@QAEXPAVioPlayStage@@@Z ENDP ; PlazaStateBtn::SetPlayStage
; Function compile flags: /Ogsp
_TEXT	ENDS
;	COMDAT ?OnProcess@PlazaStateBtn@@MAEXM@Z
_TEXT	SEGMENT
_fTimePerSec$ = 8					; size = 4
?OnProcess@PlazaStateBtn@@MAEXM@Z PROC			; PlazaStateBtn::OnProcess, COMDAT
; _this$ = ecx

; 1264 : 	if( !IsShow() ) return;

  00000	ff 15 00 00 00
	00		 call	 DWORD PTR __imp_?IsShow@ioWnd@@QBE_NXZ

; 1265 : }

  00006	c2 04 00	 ret	 4
?OnProcess@PlazaStateBtn@@MAEXM@Z ENDP			; PlazaStateBtn::OnProcess
_TEXT	ENDS
PUBLIC	??_7HelpWnd@@6B@				; HelpWnd::`vftable'
PUBLIC	??0HelpWnd@@QAE@XZ				; HelpWnd::HelpWnd
PUBLIC	??_R4HelpWnd@@6B@				; HelpWnd::`RTTI Complete Object Locator'
PUBLIC	??_R0?AVHelpWnd@@@8				; HelpWnd `RTTI Type Descriptor'
PUBLIC	??_R3HelpWnd@@8					; HelpWnd::`RTTI Class Hierarchy Descriptor'
PUBLIC	??_R2HelpWnd@@8					; HelpWnd::`RTTI Base Class Array'
PUBLIC	??_R1A@?0A@EA@HelpWnd@@8			; HelpWnd::`RTTI Base Class Descriptor at (0,-1,0,64)'
PUBLIC	?AddRenderImage@HelpWnd@@UAEXABVioHashString@@PAVioUIRenderImage@@@Z ; HelpWnd::AddRenderImage
PUBLIC	?SetPositionToDefault@HelpWnd@@UAEXHH_N0@Z	; HelpWnd::SetPositionToDefault
PUBLIC	?OnRender@HelpWnd@@MAEXXZ			; HelpWnd::OnRender
PUBLIC	?OnRenderAfterChild@HelpWnd@@MAEXXZ		; HelpWnd::OnRenderAfterChild
PUBLIC	?OnProcess@HelpWnd@@MAEXM@Z			; HelpWnd::OnProcess
PUBLIC	?iwm_command@HelpWnd@@UAEXPAVioWnd@@HK@Z	; HelpWnd::iwm_command
PUBLIC	?iwm_show@HelpWnd@@UAEXXZ			; HelpWnd::iwm_show
PUBLIC	?iwm_gototop@HelpWnd@@UAEXXZ			; HelpWnd::iwm_gototop
EXTRN	__imp_??1ioWnd@@UAE@XZ:PROC
EXTRN	__imp_??0ioWnd@@QAE@XZ:PROC
EXTRN	?AddRenderFrame@ioWnd@@UAEXABVioHashString@@PAVioUIRenderFrame@@@Z:PROC ; ioWnd::AddRenderFrame
EXTRN	?ParseExtraInfo@ioWnd@@UAEXAAVioXMLElement@@@Z:PROC ; ioWnd::ParseExtraInfo
EXTRN	?SetWindowAlpha@ioWnd@@UAEXH@Z:PROC		; ioWnd::SetWindowAlpha
EXTRN	?CheckFrameReSize@ioWnd@@MAEXHHHH@Z:PROC	; ioWnd::CheckFrameReSize
EXTRN	?iwm_lbuttondown@ioWnd@@UAEXABVioMouse@@@Z:PROC	; ioWnd::iwm_lbuttondown
EXTRN	?iwm_lbuttonup@ioWnd@@UAEXABVioMouse@@@Z:PROC	; ioWnd::iwm_lbuttonup
EXTRN	?iwm_lbuttonDBLCLK@ioWnd@@UAEXABVioMouse@@@Z:PROC ; ioWnd::iwm_lbuttonDBLCLK
EXTRN	?iwm_rbuttondown@ioWnd@@UAEXABVioMouse@@@Z:PROC	; ioWnd::iwm_rbuttondown
EXTRN	?iwm_rbuttonup@ioWnd@@UAEXABVioMouse@@@Z:PROC	; ioWnd::iwm_rbuttonup
EXTRN	?iwm_mouseover@ioWnd@@UAEXABVioMouse@@@Z:PROC	; ioWnd::iwm_mouseover
EXTRN	?GetWndType@ioWnd@@UBEKXZ:PROC			; ioWnd::GetWndType
EXTRN	?GetHeaderFileName@ioWnd@@UAEPBDXZ:PROC		; ioWnd::GetHeaderFileName
EXTRN	?GetTemplateName@ioWnd@@UAEPBDXZ:PROC		; ioWnd::GetTemplateName
EXTRN	?GetDefClassName@ioWnd@@UBEPBDXZ:PROC		; ioWnd::GetDefClassName
EXTRN	?_Clone@ioWnd@@UAEPAV1@XZ:PROC			; ioWnd::_Clone
EXTRN	?Copy@ioWnd@@UAEXPAV1@@Z:PROC			; ioWnd::Copy
EXTRN	?SetSaveData@ioWnd@@UAEXAAVioXMLElement@@@Z:PROC ; ioWnd::SetSaveData
EXTRN	?GetNumFixedRenderFrame@ioWnd@@UBEHXZ:PROC	; ioWnd::GetNumFixedRenderFrame
EXTRN	?GetFixedRenderFrameType@ioWnd@@UAEPBDH@Z:PROC	; ioWnd::GetFixedRenderFrameType
EXTRN	?GetRenderFrame@ioWnd@@UAEPAPAVioUIRenderElement@@PBD@Z:PROC ; ioWnd::GetRenderFrame
EXTRN	?GetNumFixedRenderImage@ioWnd@@UBEHXZ:PROC	; ioWnd::GetNumFixedRenderImage
EXTRN	?GetFixedRenderImageType@ioWnd@@UAEPBDH@Z:PROC	; ioWnd::GetFixedRenderImageType
EXTRN	?GetRenderImage@ioWnd@@UAEPAPAVioUIRenderElement@@PBD@Z:PROC ; ioWnd::GetRenderImage
EXTRN	??_EHelpWnd@@UAEPAXI@Z:PROC			; HelpWnd::`vector deleting destructor'
;	COMDAT ??_R1A@?0A@EA@HelpWnd@@8
rdata$r	SEGMENT
??_R1A@?0A@EA@HelpWnd@@8 DD FLAT:??_R0?AVHelpWnd@@@8	; HelpWnd::`RTTI Base Class Descriptor at (0,-1,0,64)'
	DD	01H
	DD	00H
	DD	0ffffffffH
	DD	00H
	DD	040H
	DD	FLAT:??_R3HelpWnd@@8
rdata$r	ENDS
;	COMDAT ??_R2HelpWnd@@8
rdata$r	SEGMENT
??_R2HelpWnd@@8 DD FLAT:??_R1A@?0A@EA@HelpWnd@@8	; HelpWnd::`RTTI Base Class Array'
	DD	FLAT:??_R1A@?0A@EA@ioWnd@@8
rdata$r	ENDS
;	COMDAT ??_R3HelpWnd@@8
rdata$r	SEGMENT
??_R3HelpWnd@@8 DD 00H					; HelpWnd::`RTTI Class Hierarchy Descriptor'
	DD	00H
	DD	02H
	DD	FLAT:??_R2HelpWnd@@8
rdata$r	ENDS
;	COMDAT ??_R0?AVHelpWnd@@@8
_DATA	SEGMENT
??_R0?AVHelpWnd@@@8 DD FLAT:??_7type_info@@6B@		; HelpWnd `RTTI Type Descriptor'
	DD	00H
	DB	'.?AVHelpWnd@@', 00H
_DATA	ENDS
;	COMDAT ??_R4HelpWnd@@6B@
rdata$r	SEGMENT
??_R4HelpWnd@@6B@ DD 00H				; HelpWnd::`RTTI Complete Object Locator'
	DD	00H
	DD	00H
	DD	FLAT:??_R0?AVHelpWnd@@@8
	DD	FLAT:??_R3HelpWnd@@8
rdata$r	ENDS
;	COMDAT ??_7HelpWnd@@6B@
CONST	SEGMENT
??_7HelpWnd@@6B@ DD FLAT:??_R4HelpWnd@@6B@		; HelpWnd::`vftable'
	DD	FLAT:?AddRenderFrame@ioWnd@@UAEXABVioHashString@@PAVioUIRenderFrame@@@Z
	DD	FLAT:?AddRenderImage@HelpWnd@@UAEXABVioHashString@@PAVioUIRenderImage@@@Z
	DD	FLAT:?AddTooltipHelp@ioWnd@@UAEXABVioHashString@@00@Z
	DD	FLAT:?ParseExtraInfo@ioWnd@@UAEXAAVioXMLElement@@@Z
	DD	FLAT:?AddNamedRenderImage@ioWnd@@UAEXABVioHashString@@PAVioUIRenderImage@@@Z
	DD	FLAT:?RemoveNamedRenderImage@ioWnd@@UAEXABVioHashString@@@Z
	DD	FLAT:?GetNamedRenderImage@ioWnd@@UBEPAVioUIRenderImage@@ABVioHashString@@@Z
	DD	FLAT:?SetWindowAlpha@ioWnd@@UAEXH@Z
	DD	FLAT:?SetActive@ioWnd@@UAEXXZ
	DD	FLAT:?SetInActive@ioWnd@@UAEXXZ
	DD	FLAT:?ClearElementImageList@ioWnd@@UAEXXZ
	DD	FLAT:?SetSize@ioWnd@@UAEXHH@Z
	DD	FLAT:?SetPositionToDefault@HelpWnd@@UAEXHH_N0@Z
	DD	FLAT:?IsNeedProcess@ioWnd@@UBE_NXZ
	DD	FLAT:?IsCanMouseReaction@ioWnd@@UBE_NXZ
	DD	FLAT:?AddChild@ioWnd@@UAEXPAV1@@Z
	DD	FLAT:?DeleteChild@ioWnd@@UAEXK@Z
	DD	FLAT:?DeleteAllChild@ioWnd@@UAEXXZ
	DD	FLAT:?OnRenderShowAndHide@ioWnd@@MAE_NXZ
	DD	FLAT:?OnRenderShowAndHideByDefault@ioWnd@@MAE_NK@Z
	DD	FLAT:?OnRenderShowAndHideByTop@ioWnd@@MAE_NK@Z
	DD	FLAT:?OnRenderShowAndHideByDown@ioWnd@@MAE_NK@Z
	DD	FLAT:?OnRender@HelpWnd@@MAEXXZ
	DD	FLAT:?OnRenderAfterChild@HelpWnd@@MAEXXZ
	DD	FLAT:?OnProcess@HelpWnd@@MAEXM@Z
	DD	FLAT:?OnMouseProcess@ioWnd@@MAEXABVioMouse@@@Z
	DD	FLAT:?CheckFrameReSize@ioWnd@@MAEXHHHH@Z
	DD	FLAT:?RenderImageList@ioWnd@@MAEXHHW4UIRenderType@@@Z
	DD	FLAT:?iwm_create@ioWnd@@UAEXXZ
	DD	FLAT:?iwm_destroy@ioWnd@@UAEXXZ
	DD	FLAT:?iwm_lbuttondown@ioWnd@@UAEXABVioMouse@@@Z
	DD	FLAT:?iwm_lbuttonup@ioWnd@@UAEXABVioMouse@@@Z
	DD	FLAT:?iwm_lbuttonDBLCLK@ioWnd@@UAEXABVioMouse@@@Z
	DD	FLAT:?iwm_rbuttondown@ioWnd@@UAEXABVioMouse@@@Z
	DD	FLAT:?iwm_rbuttonup@ioWnd@@UAEXABVioMouse@@@Z
	DD	FLAT:?iwm_command@HelpWnd@@UAEXPAVioWnd@@HK@Z
	DD	FLAT:?iwm_mouseover@ioWnd@@UAEXABVioMouse@@@Z
	DD	FLAT:?iwm_mousemove@ioWnd@@UAEXABVioMouse@@@Z
	DD	FLAT:?iwm_mouseleave@ioWnd@@UAEXABVioMouse@@@Z
	DD	FLAT:?iwm_vscroll@ioWnd@@UAEXKH@Z
	DD	FLAT:?iwm_wheel@ioWnd@@UAEXH@Z
	DD	FLAT:?iwm_show@HelpWnd@@UAEXXZ
	DD	FLAT:?iwm_hide@ioWnd@@UAEXXZ
	DD	FLAT:?iwm_esc@ioWnd@@UAE_NXZ
	DD	FLAT:?iwm_spacebar@ioWnd@@UAE_NXZ
	DD	FLAT:?iwm_gototop@HelpWnd@@UAEXXZ
	DD	FLAT:?iwm_dragenter@ioWnd@@UAE?AW4IWDropEffect@@PAVioDragItem@@ABVioMouse@@@Z
	DD	FLAT:?iwm_dragover@ioWnd@@UAE?AW4IWDropEffect@@PAVioDragItem@@ABVioMouse@@@Z
	DD	FLAT:?iwm_dragleave@ioWnd@@UAEXXZ
	DD	FLAT:?iwm_dropitem@ioWnd@@UAE_NPAVioDragItem@@ABVioMouse@@PAV1@@Z
	DD	FLAT:?iwm_dropdone@ioWnd@@UAEXPAVioDragItem@@PAV1@_N@Z
	DD	FLAT:?IsEXType@ioWnd@@UBE_NXZ
	DD	FLAT:?GetWndType@ioWnd@@UBEKXZ
	DD	FLAT:?RenderWnd@ioWnd@@UAEXXZ
	DD	FLAT:?SetIDEX@ioWnd@@UAEXAAK_N@Z
	DD	FLAT:?ParseXML@ioWnd@@UAEXAAVioXMLElement@@@Z
	DD	FLAT:?GetHeaderFileName@ioWnd@@UAEPBDXZ
	DD	FLAT:?GetTemplateName@ioWnd@@UAEPBDXZ
	DD	FLAT:?GetDefClassName@ioWnd@@UBEPBDXZ
	DD	FLAT:?_Clone@ioWnd@@UAEPAV1@XZ
	DD	FLAT:?Copy@ioWnd@@UAEXPAV1@@Z
	DD	FLAT:?Save@ioWnd@@UAE_NAAVioXMLElement@@@Z
	DD	FLAT:?SetSaveData@ioWnd@@UAEXAAVioXMLElement@@@Z
	DD	FLAT:?SetPosX@ioWnd@@UAEXH@Z
	DD	FLAT:?SetPosY@ioWnd@@UAEXH@Z
	DD	FLAT:?SetWidth@ioWnd@@UAEXH@Z
	DD	FLAT:?SetHeight@ioWnd@@UAEXH@Z
	DD	FLAT:?GetNumFixedRenderFrame@ioWnd@@UBEHXZ
	DD	FLAT:?GetFixedRenderFrameType@ioWnd@@UAEPBDH@Z
	DD	FLAT:?GetRenderFrame@ioWnd@@UAEPAPAVioUIRenderElement@@PBD@Z
	DD	FLAT:?GetNumFixedRenderImage@ioWnd@@UBEHXZ
	DD	FLAT:?GetFixedRenderImageType@ioWnd@@UAEPBDH@Z
	DD	FLAT:?GetRenderImage@ioWnd@@UAEPAPAVioUIRenderElement@@PBD@Z
	DD	FLAT:?AddEffect@ioWnd@@UAEXABVioHashString@@PAVioUI3DEffectRender@@@Z
	DD	FLAT:?GetEffect@ioWnd@@UAEPAVioUI3DEffectRender@@VioHashString@@@Z
	DD	FLAT:??_EHelpWnd@@UAEPAXI@Z
CONST	ENDS
;	COMDAT xdata$x
xdata$x	SEGMENT
__unwindtable$??0HelpWnd@@QAE@XZ DD 0ffffffffH
	DD	FLAT:__unwindfunclet$??0HelpWnd@@QAE@XZ$0
__ehfuncinfo$??0HelpWnd@@QAE@XZ DD 019930522H
	DD	01H
	DD	FLAT:__unwindtable$??0HelpWnd@@QAE@XZ
	DD	2 DUP(00H)
	DD	2 DUP(00H)
	DD	00H
	DD	01H
; Function compile flags: /Ogsp
xdata$x	ENDS
;	COMDAT ??0HelpWnd@@QAE@XZ
_TEXT	SEGMENT
_this$ = -16						; size = 4
__$EHRec$ = -12						; size = 12
??0HelpWnd@@QAE@XZ PROC					; HelpWnd::HelpWnd, COMDAT
; _this$ = ecx

; 1323 : {

  00000	6a 04		 push	 4
  00002	b8 00 00 00 00	 mov	 eax, __ehhandler$??0HelpWnd@@QAE@XZ
  00007	e8 00 00 00 00	 call	 __EH_prolog3
  0000c	8b f1		 mov	 esi, ecx
  0000e	89 75 f0	 mov	 DWORD PTR _this$[ebp], esi
  00011	ff 15 00 00 00
	00		 call	 DWORD PTR __imp_??0ioWnd@@QAE@XZ

; 1324 : 	m_pBarLeftMultiply = NULL;
; 1325 : 	m_pBarCenterMultiply = NULL;
; 1326 : 	m_pBarRightMultiply = NULL;
; 1327 : 	m_pBarLeft = NULL;
; 1328 : 	m_pBarCenter = NULL;
; 1329 : 	m_pBarRight = NULL;
; 1330 : 	m_pHideBar = NULL;
; 1331 : 	m_pHideIcon = NULL;
; 1332 : 	m_ePrevModeType = MT_NONE;
; 1333 : 	m_ePrevPlazaType= PT_NONE;
; 1334 : 
; 1335 : 	m_dwMoveStateDelayTIme = 0;
; 1336 : 	m_dwMoveStateTime = 0;
; 1337 : 	m_fMoveWndYPos = 0.0f;

  00017	0f 57 c0	 xorps	 xmm0, xmm0
  0001a	33 c0		 xor	 eax, eax
  0001c	89 45 fc	 mov	 DWORD PTR __$EHRec$[ebp+8], eax
  0001f	c7 06 00 00 00
	00		 mov	 DWORD PTR [esi], OFFSET ??_7HelpWnd@@6B@
  00025	89 86 80 01 00
	00		 mov	 DWORD PTR [esi+384], eax
  0002b	89 86 60 01 00
	00		 mov	 DWORD PTR [esi+352], eax
  00031	89 86 64 01 00
	00		 mov	 DWORD PTR [esi+356], eax
  00037	89 86 68 01 00
	00		 mov	 DWORD PTR [esi+360], eax
  0003d	89 86 6c 01 00
	00		 mov	 DWORD PTR [esi+364], eax
  00043	89 86 70 01 00
	00		 mov	 DWORD PTR [esi+368], eax
  00049	89 86 74 01 00
	00		 mov	 DWORD PTR [esi+372], eax
  0004f	89 86 78 01 00
	00		 mov	 DWORD PTR [esi+376], eax
  00055	89 86 7c 01 00
	00		 mov	 DWORD PTR [esi+380], eax
  0005b	89 86 84 01 00
	00		 mov	 DWORD PTR [esi+388], eax
  00061	89 86 88 01 00
	00		 mov	 DWORD PTR [esi+392], eax
  00067	89 86 98 01 00
	00		 mov	 DWORD PTR [esi+408], eax
  0006d	89 86 9c 01 00
	00		 mov	 DWORD PTR [esi+412], eax
  00073	f3 0f 11 86 a0
	01 00 00	 movss	 DWORD PTR [esi+416], xmm0

; 1338 : 
; 1339 : 	m_bTutorial = false;

  0007b	88 86 8c 01 00
	00		 mov	 BYTE PTR [esi+396], al

; 1340 : 
; 1341 : 	m_dwShowKeepTime = 12000;

  00081	c7 86 90 01 00
	00 e0 2e 00 00	 mov	 DWORD PTR [esi+400], 12000 ; 00002ee0H

; 1342 : 	m_dwMoveStateStartDelayTIme = FRAMEGETTIME();

  0008b	ff 15 00 00 00
	00		 call	 DWORD PTR __imp_?GetSingleton@ioFrameTimer@@SAAAV1@XZ
  00091	8b c8		 mov	 ecx, eax
  00093	ff 15 00 00 00
	00		 call	 DWORD PTR __imp_?GetLoopSec@ioFrameTimer@@QBEKXZ
  00099	89 86 94 01 00
	00		 mov	 DWORD PTR [esi+404], eax

; 1343 : }

  0009f	8b c6		 mov	 eax, esi
  000a1	e8 00 00 00 00	 call	 __EH_epilog3
  000a6	c3		 ret	 0
_TEXT	ENDS
;	COMDAT text$x
text$x	SEGMENT
__unwindfunclet$??0HelpWnd@@QAE@XZ$0:
  00000	8b 4d f0	 mov	 ecx, DWORD PTR _this$[ebp]
  00003	ff 25 00 00 00
	00		 jmp	 DWORD PTR __imp_??1ioWnd@@UAE@XZ
__ehhandler$??0HelpWnd@@QAE@XZ:
  00009	8b 54 24 08	 mov	 edx, DWORD PTR [esp+8]
  0000d	8d 42 0c	 lea	 eax, DWORD PTR [edx+12]
  00010	8b 4a ec	 mov	 ecx, DWORD PTR [edx-20]
  00013	33 c8		 xor	 ecx, eax
  00015	e8 00 00 00 00	 call	 @__security_check_cookie@4
  0001a	b8 00 00 00 00	 mov	 eax, OFFSET __ehfuncinfo$??0HelpWnd@@QAE@XZ
  0001f	e9 00 00 00 00	 jmp	 ___CxxFrameHandler3
text$x	ENDS
??0HelpWnd@@QAE@XZ ENDP					; HelpWnd::HelpWnd
PUBLIC	??1HelpWnd@@UAE@XZ				; HelpWnd::~HelpWnd
;	COMDAT xdata$x
xdata$x	SEGMENT
__unwindtable$??1HelpWnd@@UAE@XZ DD 0ffffffffH
	DD	FLAT:__unwindfunclet$??1HelpWnd@@UAE@XZ$0
__ehfuncinfo$??1HelpWnd@@UAE@XZ DD 019930522H
	DD	01H
	DD	FLAT:__unwindtable$??1HelpWnd@@UAE@XZ
	DD	2 DUP(00H)
	DD	2 DUP(00H)
	DD	00H
	DD	01H
; Function compile flags: /Ogsp
xdata$x	ENDS
;	COMDAT ??1HelpWnd@@UAE@XZ
_TEXT	SEGMENT
_this$ = -16						; size = 4
__$EHRec$ = -12						; size = 12
??1HelpWnd@@UAE@XZ PROC					; HelpWnd::~HelpWnd, COMDAT
; _this$ = ecx

; 1346 : {

  00000	6a 04		 push	 4
  00002	b8 00 00 00 00	 mov	 eax, __ehhandler$??1HelpWnd@@UAE@XZ
  00007	e8 00 00 00 00	 call	 __EH_prolog3
  0000c	8b f1		 mov	 esi, ecx
  0000e	89 75 f0	 mov	 DWORD PTR _this$[ebp], esi
  00011	c7 06 00 00 00
	00		 mov	 DWORD PTR [esi], OFFSET ??_7HelpWnd@@6B@

; 1347 : 	SAFEDELETE( m_pBarLeftMultiply );

  00017	8b 8e 60 01 00
	00		 mov	 ecx, DWORD PTR [esi+352]
  0001d	33 db		 xor	 ebx, ebx
  0001f	89 5d fc	 mov	 DWORD PTR __$EHRec$[ebp+8], ebx
  00022	3b cb		 cmp	 ecx, ebx
  00024	74 0d		 je	 SHORT $LN8@HelpWnd
  00026	8b 01		 mov	 eax, DWORD PTR [ecx]
  00028	6a 01		 push	 1
  0002a	ff 50 40	 call	 DWORD PTR [eax+64]
  0002d	89 9e 60 01 00
	00		 mov	 DWORD PTR [esi+352], ebx
$LN8@HelpWnd:

; 1348 : 	SAFEDELETE( m_pBarCenterMultiply );

  00033	8b 8e 64 01 00
	00		 mov	 ecx, DWORD PTR [esi+356]
  00039	3b cb		 cmp	 ecx, ebx
  0003b	74 0d		 je	 SHORT $LN7@HelpWnd
  0003d	8b 01		 mov	 eax, DWORD PTR [ecx]
  0003f	6a 01		 push	 1
  00041	ff 50 40	 call	 DWORD PTR [eax+64]
  00044	89 9e 64 01 00
	00		 mov	 DWORD PTR [esi+356], ebx
$LN7@HelpWnd:

; 1349 : 	SAFEDELETE( m_pBarRightMultiply );

  0004a	8b 8e 68 01 00
	00		 mov	 ecx, DWORD PTR [esi+360]
  00050	3b cb		 cmp	 ecx, ebx
  00052	74 0d		 je	 SHORT $LN6@HelpWnd
  00054	8b 01		 mov	 eax, DWORD PTR [ecx]
  00056	6a 01		 push	 1
  00058	ff 50 40	 call	 DWORD PTR [eax+64]
  0005b	89 9e 68 01 00
	00		 mov	 DWORD PTR [esi+360], ebx
$LN6@HelpWnd:

; 1350 : 	SAFEDELETE( m_pBarLeft );

  00061	8b 8e 6c 01 00
	00		 mov	 ecx, DWORD PTR [esi+364]
  00067	3b cb		 cmp	 ecx, ebx
  00069	74 0d		 je	 SHORT $LN5@HelpWnd
  0006b	8b 01		 mov	 eax, DWORD PTR [ecx]
  0006d	6a 01		 push	 1
  0006f	ff 50 40	 call	 DWORD PTR [eax+64]
  00072	89 9e 6c 01 00
	00		 mov	 DWORD PTR [esi+364], ebx
$LN5@HelpWnd:

; 1351 : 	SAFEDELETE( m_pBarCenter );

  00078	8b 8e 70 01 00
	00		 mov	 ecx, DWORD PTR [esi+368]
  0007e	3b cb		 cmp	 ecx, ebx
  00080	74 0d		 je	 SHORT $LN4@HelpWnd
  00082	8b 01		 mov	 eax, DWORD PTR [ecx]
  00084	6a 01		 push	 1
  00086	ff 50 40	 call	 DWORD PTR [eax+64]
  00089	89 9e 70 01 00
	00		 mov	 DWORD PTR [esi+368], ebx
$LN4@HelpWnd:

; 1352 : 	SAFEDELETE( m_pBarRight );

  0008f	8b 8e 74 01 00
	00		 mov	 ecx, DWORD PTR [esi+372]
  00095	3b cb		 cmp	 ecx, ebx
  00097	74 0d		 je	 SHORT $LN3@HelpWnd
  00099	8b 01		 mov	 eax, DWORD PTR [ecx]
  0009b	6a 01		 push	 1
  0009d	ff 50 40	 call	 DWORD PTR [eax+64]
  000a0	89 9e 74 01 00
	00		 mov	 DWORD PTR [esi+372], ebx
$LN3@HelpWnd:

; 1353 : 	SAFEDELETE( m_pHideBar );

  000a6	8b 8e 78 01 00
	00		 mov	 ecx, DWORD PTR [esi+376]
  000ac	3b cb		 cmp	 ecx, ebx
  000ae	74 0d		 je	 SHORT $LN2@HelpWnd
  000b0	8b 01		 mov	 eax, DWORD PTR [ecx]
  000b2	6a 01		 push	 1
  000b4	ff 50 40	 call	 DWORD PTR [eax+64]
  000b7	89 9e 78 01 00
	00		 mov	 DWORD PTR [esi+376], ebx
$LN2@HelpWnd:

; 1354 : 	SAFEDELETE( m_pHideIcon );

  000bd	8b 8e 7c 01 00
	00		 mov	 ecx, DWORD PTR [esi+380]
  000c3	3b cb		 cmp	 ecx, ebx
  000c5	74 0d		 je	 SHORT $LN1@HelpWnd
  000c7	8b 01		 mov	 eax, DWORD PTR [ecx]
  000c9	6a 01		 push	 1
  000cb	ff 50 40	 call	 DWORD PTR [eax+64]
  000ce	89 9e 7c 01 00
	00		 mov	 DWORD PTR [esi+380], ebx
$LN1@HelpWnd:

; 1355 : 
; 1356 : 	sg_dwMoveState = MOVE_STATE_SHOW;
; 1357 : }

  000d4	83 4d fc ff	 or	 DWORD PTR __$EHRec$[ebp+8], -1
  000d8	8b ce		 mov	 ecx, esi
  000da	89 1d 00 00 00
	00		 mov	 DWORD PTR ?sg_dwMoveState@HelpWnd@@1KA, ebx ; HelpWnd::sg_dwMoveState
  000e0	ff 15 00 00 00
	00		 call	 DWORD PTR __imp_??1ioWnd@@UAE@XZ
  000e6	e8 00 00 00 00	 call	 __EH_epilog3
  000eb	c3		 ret	 0
_TEXT	ENDS
;	COMDAT text$x
text$x	SEGMENT
__unwindfunclet$??1HelpWnd@@UAE@XZ$0:
  00000	8b 4d f0	 mov	 ecx, DWORD PTR _this$[ebp]
  00003	ff 25 00 00 00
	00		 jmp	 DWORD PTR __imp_??1ioWnd@@UAE@XZ
__ehhandler$??1HelpWnd@@UAE@XZ:
  00009	8b 54 24 08	 mov	 edx, DWORD PTR [esp+8]
  0000d	8d 42 0c	 lea	 eax, DWORD PTR [edx+12]
  00010	8b 4a ec	 mov	 ecx, DWORD PTR [edx-20]
  00013	33 c8		 xor	 ecx, eax
  00015	e8 00 00 00 00	 call	 @__security_check_cookie@4
  0001a	b8 00 00 00 00	 mov	 eax, OFFSET __ehfuncinfo$??1HelpWnd@@UAE@XZ
  0001f	e9 00 00 00 00	 jmp	 ___CxxFrameHandler3
text$x	ENDS
??1HelpWnd@@UAE@XZ ENDP					; HelpWnd::~HelpWnd
PUBLIC	?SetPlayStage@HelpWnd@@QAEXPAVioPlayStage@@@Z	; HelpWnd::SetPlayStage
EXTRN	__imp_?ShowWnd@ioWnd@@QAEXXZ:PROC
EXTRN	__imp_?FindChildWnd@ioWnd@@QAEPAV1@K@Z:PROC
EXTRN	___RTDynamicCast:PROC
; Function compile flags: /Ogsp
;	COMDAT ?SetPlayStage@HelpWnd@@QAEXPAVioPlayStage@@@Z
_TEXT	SEGMENT
_pPlayStage$ = 8					; size = 4
?SetPlayStage@HelpWnd@@QAEXPAVioPlayStage@@@Z PROC	; HelpWnd::SetPlayStage, COMDAT
; _this$ = ecx

; 1408 : {

  00000	55		 push	 ebp
  00001	8b ec		 mov	 ebp, esp
  00003	56		 push	 esi
  00004	57		 push	 edi

; 1409 : 	m_pPlayStage = pPlayStage;

  00005	8b 7d 08	 mov	 edi, DWORD PTR _pPlayStage$[ebp]

; 1410 : 
; 1411 : 	PlazaStateBtn *pPlazaStateBtn = dynamic_cast<PlazaStateBtn*>( FindChildWnd( ID_PLAZA_STATE ) );

  00008	6a 00		 push	 0
  0000a	68 00 00 00 00	 push	 OFFSET ??_R0?AVPlazaStateBtn@@@8
  0000f	68 00 00 00 00	 push	 OFFSET ??_R0?AVioWnd@@@8
  00014	6a 00		 push	 0
  00016	8b f1		 mov	 esi, ecx
  00018	6a 09		 push	 9
  0001a	89 be 80 01 00
	00		 mov	 DWORD PTR [esi+384], edi
  00020	ff 15 00 00 00
	00		 call	 DWORD PTR __imp_?FindChildWnd@ioWnd@@QAEPAV1@K@Z
  00026	50		 push	 eax
  00027	e8 00 00 00 00	 call	 ___RTDynamicCast
  0002c	83 c4 14	 add	 esp, 20			; 00000014H

; 1412 : 	if( pPlazaStateBtn )

  0002f	85 c0		 test	 eax, eax
  00031	74 06		 je	 SHORT $LN4@SetPlaySta

; 1413 : 		pPlazaStateBtn->SetPlayStage( pPlayStage );

  00033	89 b8 40 02 00
	00		 mov	 DWORD PTR [eax+576], edi
$LN4@SetPlaySta:

; 1414 : 
; 1415 : 	ShowWnd();

  00039	8b ce		 mov	 ecx, esi
  0003b	ff 15 00 00 00
	00		 call	 DWORD PTR __imp_?ShowWnd@ioWnd@@QAEXXZ
  00041	5f		 pop	 edi
  00042	5e		 pop	 esi

; 1416 : }

  00043	5d		 pop	 ebp
  00044	c2 04 00	 ret	 4
?SetPlayStage@HelpWnd@@QAEXPAVioPlayStage@@@Z ENDP	; HelpWnd::SetPlayStage
_TEXT	ENDS
PUBLIC	?IsPractice@HelpWnd@@QAE_NXZ			; HelpWnd::IsPractice
EXTRN	__imp_?IsShow@ioGUIManager@@QAE_NK@Z:PROC
EXTRN	?GetSingleton@ioSP2GUIManager@@SAAAV1@XZ:PROC	; ioSP2GUIManager::GetSingleton
EXTRN	?IsTutorial@ioTutorialManager@@QAE_NXZ:PROC	; ioTutorialManager::IsTutorial
EXTRN	?GetSingleton@ioTutorialManager@@SAAAV1@XZ:PROC	; ioTutorialManager::GetSingleton
EXTRN	?GetModeType@ioPlayStage@@QBE?AW4ModeType@@XZ:PROC ; ioPlayStage::GetModeType
; Function compile flags: /Ogsp
;	COMDAT ?IsPractice@HelpWnd@@QAE_NXZ
_TEXT	SEGMENT
?IsPractice@HelpWnd@@QAE_NXZ PROC			; HelpWnd::IsPractice, COMDAT
; _this$ = ecx

; 1420 : 	//UJ 130902, : IsPractice()  ,    
; 1421 : 	//return g_GUIMgr.IsShow( PRACTICE_HELP_WND );
; 1422 : 	if( !m_pPlayStage ) 

  00000	8b 89 80 01 00
	00		 mov	 ecx, DWORD PTR [ecx+384]
  00006	85 c9		 test	 ecx, ecx
  00008	75 03		 jne	 SHORT $LN5@IsPractice
$LN8@IsPractice:

; 1423 : 		return false;

  0000a	32 c0		 xor	 al, al

; 1430 : }

  0000c	c3		 ret	 0
$LN5@IsPractice:

; 1424 : 	else if( m_pPlayStage->GetModeType() != MT_HEADQUARTERS ) 

  0000d	e8 00 00 00 00	 call	 ?GetModeType@ioPlayStage@@QBE?AW4ModeType@@XZ ; ioPlayStage::GetModeType
  00012	83 f8 0d	 cmp	 eax, 13			; 0000000dH

; 1425 : 		return false;

  00015	75 f3		 jne	 SHORT $LN8@IsPractice

; 1426 : 	else if( g_TutorialMgr.IsTutorial() )

  00017	e8 00 00 00 00	 call	 ?GetSingleton@ioTutorialManager@@SAAAV1@XZ ; ioTutorialManager::GetSingleton
  0001c	8b c8		 mov	 ecx, eax
  0001e	e8 00 00 00 00	 call	 ?IsTutorial@ioTutorialManager@@QAE_NXZ ; ioTutorialManager::IsTutorial
  00023	84 c0		 test	 al, al

; 1427 : 		return false;

  00025	75 e3		 jne	 SHORT $LN8@IsPractice

; 1428 : 
; 1429 : 	return g_GUIMgr.IsShow( PRACTICE_HELP_WND );

  00027	68 b1 17 00 00	 push	 6065			; 000017b1H
  0002c	e8 00 00 00 00	 call	 ?GetSingleton@ioSP2GUIManager@@SAAAV1@XZ ; ioSP2GUIManager::GetSingleton
  00031	8b c8		 mov	 ecx, eax
  00033	ff 15 00 00 00
	00		 call	 DWORD PTR __imp_?IsShow@ioGUIManager@@QAE_NK@Z

; 1430 : }

  00039	c3		 ret	 0
?IsPractice@HelpWnd@@QAE_NXZ ENDP			; HelpWnd::IsPractice
_TEXT	ENDS
PUBLIC	?IsFishing@HelpWnd@@QAE_NXZ			; HelpWnd::IsFishing
EXTRN	?GetOwnerChar@ioPlayStage@@QAEPAVioBaseChar@@XZ:PROC ; ioPlayStage::GetOwnerChar
; Function compile flags: /Ogsp
;	COMDAT ?IsFishing@HelpWnd@@QAE_NXZ
_TEXT	SEGMENT
?IsFishing@HelpWnd@@QAE_NXZ PROC			; HelpWnd::IsFishing, COMDAT
; _this$ = ecx

; 1434 : 	if( !m_pPlayStage ) return false;

  00000	8b 89 80 01 00
	00		 mov	 ecx, DWORD PTR [ecx+384]
  00006	85 c9		 test	 ecx, ecx
  00008	75 03		 jne	 SHORT $LN2@IsFishing
$LN7@IsFishing:
  0000a	32 c0		 xor	 al, al

; 1440 : }

  0000c	c3		 ret	 0
$LN2@IsFishing:

; 1435 : 
; 1436 : 	ioBaseChar *pOwnerChar = m_pPlayStage->GetOwnerChar();

  0000d	e8 00 00 00 00	 call	 ?GetOwnerChar@ioPlayStage@@QAEPAVioBaseChar@@XZ ; ioPlayStage::GetOwnerChar

; 1437 : 	if( !pOwnerChar ) return false;

  00012	85 c0		 test	 eax, eax
  00014	74 f4		 je	 SHORT $LN7@IsFishing

; 1438 : 
; 1439 : 	return ( pOwnerChar->GetState() == CS_FISHING );

  00016	33 c9		 xor	 ecx, ecx
  00018	80 b8 10 03 00
	00 2b		 cmp	 BYTE PTR [eax+784], 43	; 0000002bH
  0001f	0f 94 c0	 sete	 al

; 1440 : }

  00022	c3		 ret	 0
?IsFishing@HelpWnd@@QAE_NXZ ENDP			; HelpWnd::IsFishing
_TEXT	ENDS
PUBLIC	?IsExcavation@HelpWnd@@QAE_NXZ			; HelpWnd::IsExcavation
; Function compile flags: /Ogsp
;	COMDAT ?IsExcavation@HelpWnd@@QAE_NXZ
_TEXT	SEGMENT
?IsExcavation@HelpWnd@@QAE_NXZ PROC			; HelpWnd::IsExcavation, COMDAT
; _this$ = ecx

; 1444 : 	return g_GUIMgr.IsShow( EXCAVATION_SEARCHING_WND );

  00000	68 cb 13 00 00	 push	 5067			; 000013cbH
  00005	e8 00 00 00 00	 call	 ?GetSingleton@ioSP2GUIManager@@SAAAV1@XZ ; ioSP2GUIManager::GetSingleton
  0000a	8b c8		 mov	 ecx, eax
  0000c	ff 15 00 00 00
	00		 call	 DWORD PTR __imp_?IsShow@ioGUIManager@@QAE_NK@Z

; 1445 : }

  00012	c3		 ret	 0
?IsExcavation@HelpWnd@@QAE_NXZ ENDP			; HelpWnd::IsExcavation
_TEXT	ENDS
PUBLIC	?IsHousing@HelpWnd@@QAE_NXZ			; HelpWnd::IsHousing
; Function compile flags: /Ogsp
;	COMDAT ?IsHousing@HelpWnd@@QAE_NXZ
_TEXT	SEGMENT
?IsHousing@HelpWnd@@QAE_NXZ PROC			; HelpWnd::IsHousing, COMDAT
; _this$ = ecx

; 1449 : 	return g_GUIMgr.IsShow( HOUSING_BLOCK_SETUP_WND );

  00000	68 89 18 00 00	 push	 6281			; 00001889H
  00005	e8 00 00 00 00	 call	 ?GetSingleton@ioSP2GUIManager@@SAAAV1@XZ ; ioSP2GUIManager::GetSingleton
  0000a	8b c8		 mov	 ecx, eax
  0000c	ff 15 00 00 00
	00		 call	 DWORD PTR __imp_?IsShow@ioGUIManager@@QAE_NK@Z

; 1450 : }

  00012	c3		 ret	 0
?IsHousing@HelpWnd@@QAE_NXZ ENDP			; HelpWnd::IsHousing
_TEXT	ENDS
PUBLIC	??_R0?AVQuestToolTip@@@8			; QuestToolTip `RTTI Type Descriptor'
PUBLIC	??_R0?AVMessengerPopup@@@8			; MessengerPopup `RTTI Type Descriptor'
EXTRN	__imp_?GoToTop@ioWnd@@QAEXXZ:PROC
EXTRN	__imp_?FindWnd@ioGUIManager@@QAEPAVioWnd@@K@Z:PROC
;	COMDAT ??_R0?AVQuestToolTip@@@8
_DATA	SEGMENT
??_R0?AVQuestToolTip@@@8 DD FLAT:??_7type_info@@6B@	; QuestToolTip `RTTI Type Descriptor'
	DD	00H
	DB	'.?AVQuestToolTip@@', 00H
_DATA	ENDS
;	COMDAT ??_R0?AVMessengerPopup@@@8
_DATA	SEGMENT
??_R0?AVMessengerPopup@@@8 DD FLAT:??_7type_info@@6B@	; MessengerPopup `RTTI Type Descriptor'
	DD	00H
	DB	'.?AVMessengerPopup@@', 00H
; Function compile flags: /Ogsp
_DATA	ENDS
;	COMDAT ?iwm_gototop@HelpWnd@@UAEXXZ
_TEXT	SEGMENT
_pTooltipWnd$ = -4					; size = 4
?iwm_gototop@HelpWnd@@UAEXXZ PROC			; HelpWnd::iwm_gototop, COMDAT
; _this$ = ecx

; 1465 : {

  00000	55		 push	 ebp
  00001	8b ec		 mov	 ebp, esp
  00003	51		 push	 ecx
  00004	56		 push	 esi
  00005	57		 push	 edi

; 1466 : 	//     .
; 1467 : 	MessengerPopup *pTooltipWnd = dynamic_cast<MessengerPopup *>(g_GUIMgr.FindWnd( MESSENGER_POPUP ));

  00006	6a 00		 push	 0
  00008	68 00 00 00 00	 push	 OFFSET ??_R0?AVMessengerPopup@@@8
  0000d	bf 00 00 00 00	 mov	 edi, OFFSET ??_R0?AVioWnd@@@8
  00012	57		 push	 edi
  00013	6a 00		 push	 0
  00015	68 81 17 00 00	 push	 6017			; 00001781H
  0001a	e8 00 00 00 00	 call	 ?GetSingleton@ioSP2GUIManager@@SAAAV1@XZ ; ioSP2GUIManager::GetSingleton
  0001f	8b 35 00 00 00
	00		 mov	 esi, DWORD PTR __imp_?FindWnd@ioGUIManager@@QAEPAVioWnd@@K@Z
  00025	8b c8		 mov	 ecx, eax
  00027	ff d6		 call	 esi
  00029	50		 push	 eax
  0002a	e8 00 00 00 00	 call	 ___RTDynamicCast
  0002f	8b c8		 mov	 ecx, eax
  00031	83 c4 14	 add	 esp, 20			; 00000014H
  00034	89 4d fc	 mov	 DWORD PTR _pTooltipWnd$[ebp], ecx

; 1468 : 	if( pTooltipWnd && pTooltipWnd->IsShow() )

  00037	85 c9		 test	 ecx, ecx
  00039	74 13		 je	 SHORT $LN2@iwm_gototo
  0003b	ff 15 00 00 00
	00		 call	 DWORD PTR __imp_?IsShow@ioWnd@@QBE_NXZ
  00041	84 c0		 test	 al, al
  00043	74 09		 je	 SHORT $LN2@iwm_gototo

; 1469 : 		pTooltipWnd->GoToTop();

  00045	8b 4d fc	 mov	 ecx, DWORD PTR _pTooltipWnd$[ebp]
  00048	ff 15 00 00 00
	00		 call	 DWORD PTR __imp_?GoToTop@ioWnd@@QAEXXZ
$LN2@iwm_gototo:

; 1470 : 
; 1471 : 	//     .
; 1472 : 	QuestToolTip *pQuestTooltipWnd = dynamic_cast<QuestToolTip*>(g_GUIMgr.FindWnd( QUEST_TOOLTIP ));

  0004e	6a 00		 push	 0
  00050	68 00 00 00 00	 push	 OFFSET ??_R0?AVQuestToolTip@@@8
  00055	57		 push	 edi
  00056	6a 00		 push	 0
  00058	68 72 17 00 00	 push	 6002			; 00001772H
  0005d	e8 00 00 00 00	 call	 ?GetSingleton@ioSP2GUIManager@@SAAAV1@XZ ; ioSP2GUIManager::GetSingleton
  00062	8b c8		 mov	 ecx, eax
  00064	ff d6		 call	 esi
  00066	50		 push	 eax
  00067	e8 00 00 00 00	 call	 ___RTDynamicCast
  0006c	8b f0		 mov	 esi, eax
  0006e	83 c4 14	 add	 esp, 20			; 00000014H

; 1473 : 	if( pQuestTooltipWnd && pQuestTooltipWnd->IsShow() )

  00071	85 f6		 test	 esi, esi
  00073	74 14		 je	 SHORT $LN1@iwm_gototo
  00075	8b ce		 mov	 ecx, esi
  00077	ff 15 00 00 00
	00		 call	 DWORD PTR __imp_?IsShow@ioWnd@@QBE_NXZ
  0007d	84 c0		 test	 al, al
  0007f	74 08		 je	 SHORT $LN1@iwm_gototo

; 1474 : 		pQuestTooltipWnd->GoToTop();

  00081	8b ce		 mov	 ecx, esi
  00083	ff 15 00 00 00
	00		 call	 DWORD PTR __imp_?GoToTop@ioWnd@@QAEXXZ
$LN1@iwm_gototo:
  00089	5f		 pop	 edi
  0008a	5e		 pop	 esi

; 1475 : }

  0008b	c9		 leave
  0008c	c3		 ret	 0
?iwm_gototop@HelpWnd@@UAEXXZ ENDP			; HelpWnd::iwm_gototop
_TEXT	ENDS
PUBLIC	?ExcavationeProcess@HelpWnd@@IAEXXZ		; HelpWnd::ExcavationeProcess
EXTRN	?OnExcavationBtnUp@ioExcavationManager@@QAEXPAVioBaseChar@@@Z:PROC ; ioExcavationManager::OnExcavationBtnUp
EXTRN	?GetSingleton@ioExcavationManager@@SAAAV1@XZ:PROC ; ioExcavationManager::GetSingleton
; Function compile flags: /Ogsp
;	COMDAT ?ExcavationeProcess@HelpWnd@@IAEXXZ
_TEXT	SEGMENT
?ExcavationeProcess@HelpWnd@@IAEXXZ PROC		; HelpWnd::ExcavationeProcess, COMDAT
; _this$ = ecx

; 2221 : 	if( !m_pPlayStage )

  00000	8b 89 80 01 00
	00		 mov	 ecx, DWORD PTR [ecx+384]
  00006	85 c9		 test	 ecx, ecx
  00008	74 12		 je	 SHORT $LN2@Excavation

; 2222 : 		return;
; 2223 : 
; 2224 : 	g_ExcavationMgr.OnExcavationBtnUp( m_pPlayStage->GetOwnerChar() );

  0000a	e8 00 00 00 00	 call	 ?GetOwnerChar@ioPlayStage@@QAEPAVioBaseChar@@XZ ; ioPlayStage::GetOwnerChar
  0000f	50		 push	 eax
  00010	e8 00 00 00 00	 call	 ?GetSingleton@ioExcavationManager@@SAAAV1@XZ ; ioExcavationManager::GetSingleton
  00015	8b c8		 mov	 ecx, eax
  00017	e8 00 00 00 00	 call	 ?OnExcavationBtnUp@ioExcavationManager@@QAEXPAVioBaseChar@@@Z ; ioExcavationManager::OnExcavationBtnUp
$LN2@Excavation:

; 2225 : }

  0001c	c3		 ret	 0
?ExcavationeProcess@HelpWnd@@IAEXXZ ENDP		; HelpWnd::ExcavationeProcess
_TEXT	ENDS
PUBLIC	?HousingSetUpProcess@HelpWnd@@IAEXXZ		; HelpWnd::HousingSetUpProcess
EXTRN	?HousingSetUpProcess@ioBlockSetupManager@@QAEXXZ:PROC ; ioBlockSetupManager::HousingSetUpProcess
EXTRN	?GetSingleton@ioBlockSetupManager@@SAAAV1@XZ:PROC ; ioBlockSetupManager::GetSingleton
; Function compile flags: /Ogsp
;	COMDAT ?HousingSetUpProcess@HelpWnd@@IAEXXZ
_TEXT	SEGMENT
?HousingSetUpProcess@HelpWnd@@IAEXXZ PROC		; HelpWnd::HousingSetUpProcess, COMDAT
; _this$ = ecx

; 2229 : 	if( !m_pPlayStage )

  00000	83 b9 80 01 00
	00 00		 cmp	 DWORD PTR [ecx+384], 0
  00007	74 0c		 je	 SHORT $LN2@HousingSet

; 2230 : 		return;
; 2231 : 
; 2232 : 	g_BlockSetupManager.HousingSetUpProcess();

  00009	e8 00 00 00 00	 call	 ?GetSingleton@ioBlockSetupManager@@SAAAV1@XZ ; ioBlockSetupManager::GetSingleton
  0000e	8b c8		 mov	 ecx, eax
  00010	e9 00 00 00 00	 jmp	 ?HousingSetUpProcess@ioBlockSetupManager@@QAEXXZ ; ioBlockSetupManager::HousingSetUpProcess
$LN2@HousingSet:

; 2233 : }

  00015	c3		 ret	 0
?HousingSetUpProcess@HelpWnd@@IAEXXZ ENDP		; HelpWnd::HousingSetUpProcess
_TEXT	ENDS
PUBLIC	??_C@_0BL@DOHPBNOH@HelpWnd?3?3PlazaStateProcess?$AA@ ; `string'
PUBLIC	??_C@_00CNPNBAHC@?$AA@				; `string'
PUBLIC	?PlazaStateProcess@HelpWnd@@IAEXXZ		; HelpWnd::PlazaStateProcess
EXTRN	?MacroProcess@ChatMacroMgr@@QAEHPBD_N@Z:PROC	; ChatMacroMgr::MacroProcess
EXTRN	?GetSingleton@ChatMacroMgr@@SAAAV1@XZ:PROC	; ChatMacroMgr::GetSingleton
EXTRN	__imp_?GetString@ioStringManager@@QAEPADPBD0HW4FileNamePrefix@1@@Z:PROC
EXTRN	__imp_?GetSingleton@ioStringManager@@SAAAV1@XZ:PROC
;	COMDAT ??_C@_0BL@DOHPBNOH@HelpWnd?3?3PlazaStateProcess?$AA@
CONST	SEGMENT
??_C@_0BL@DOHPBNOH@HelpWnd?3?3PlazaStateProcess?$AA@ DB 'HelpWnd::PlazaSt'
	DB	'ateProcess', 00H				; `string'
CONST	ENDS
;	COMDAT ??_C@_00CNPNBAHC@?$AA@
CONST	SEGMENT
??_C@_00CNPNBAHC@?$AA@ DB 00H				; `string'
; Function compile flags: /Ogsp
CONST	ENDS
;	COMDAT ?PlazaStateProcess@HelpWnd@@IAEXXZ
_TEXT	SEGMENT
?PlazaStateProcess@HelpWnd@@IAEXXZ PROC			; HelpWnd::PlazaStateProcess, COMDAT
; _this$ = ecx

; 2237 : 	if( !m_pPlayStage )

  00000	83 b9 80 01 00
	00 00		 cmp	 DWORD PTR [ecx+384], 0
  00007	74 2b		 je	 SHORT $LN2@PlazaState@2

; 2238 : 		return;
; 2239 : 
; 2240 : 	g_ChatMacroMgr.MacroProcess( STR(1), true );

  00009	6a 01		 push	 1
  0000b	6a 00		 push	 0
  0000d	6a 01		 push	 1
  0000f	68 00 00 00 00	 push	 OFFSET ??_C@_00CNPNBAHC@?$AA@
  00014	68 00 00 00 00	 push	 OFFSET ??_C@_0BL@DOHPBNOH@HelpWnd?3?3PlazaStateProcess?$AA@
  00019	ff 15 00 00 00
	00		 call	 DWORD PTR __imp_?GetSingleton@ioStringManager@@SAAAV1@XZ
  0001f	8b c8		 mov	 ecx, eax
  00021	ff 15 00 00 00
	00		 call	 DWORD PTR __imp_?GetString@ioStringManager@@QAEPADPBD0HW4FileNamePrefix@1@@Z
  00027	50		 push	 eax
  00028	e8 00 00 00 00	 call	 ?GetSingleton@ChatMacroMgr@@SAAAV1@XZ ; ChatMacroMgr::GetSingleton
  0002d	8b c8		 mov	 ecx, eax
  0002f	e8 00 00 00 00	 call	 ?MacroProcess@ChatMacroMgr@@QAEHPBD_N@Z ; ChatMacroMgr::MacroProcess
$LN2@PlazaState@2:

; 2241 : }

  00034	c3		 ret	 0
?PlazaStateProcess@HelpWnd@@IAEXXZ ENDP			; HelpWnd::PlazaStateProcess
_TEXT	ENDS
PUBLIC	?OnRenderBar@HelpWnd@@IAEXHHH@Z			; HelpWnd::OnRenderBar
; Function compile flags: /Ogsp
;	COMDAT ?OnRenderBar@HelpWnd@@IAEXHHH@Z
_TEXT	SEGMENT
tv357 = -4						; size = 4
_iXPos$ = 8						; size = 4
tv356 = 12						; size = 4
_iYPos$ = 12						; size = 4
_iWidth$ = 16						; size = 4
?OnRenderBar@HelpWnd@@IAEXHHH@Z PROC			; HelpWnd::OnRenderBar, COMDAT
; _this$ = ecx

; 2736 : {

  00000	55		 push	 ebp
  00001	8b ec		 mov	 ebp, esp
  00003	51		 push	 ecx
  00004	56		 push	 esi
  00005	57		 push	 edi
  00006	8b f1		 mov	 esi, ecx

; 2737 : 	if( !m_pBarLeftMultiply || !m_pBarCenterMultiply || !m_pBarRightMultiply || 
; 2738 : 		!m_pBarLeft || !m_pBarCenter || !m_pBarRight || !m_pHideBar || !m_pHideIcon ) return;

  00008	33 ff		 xor	 edi, edi
  0000a	39 be 60 01 00
	00		 cmp	 DWORD PTR [esi+352], edi
  00010	0f 84 fb 01 00
	00		 je	 $LN1@OnRenderBa
  00016	39 be 64 01 00
	00		 cmp	 DWORD PTR [esi+356], edi
  0001c	0f 84 ef 01 00
	00		 je	 $LN1@OnRenderBa
  00022	39 be 68 01 00
	00		 cmp	 DWORD PTR [esi+360], edi
  00028	0f 84 e3 01 00
	00		 je	 $LN1@OnRenderBa
  0002e	39 be 6c 01 00
	00		 cmp	 DWORD PTR [esi+364], edi
  00034	0f 84 d7 01 00
	00		 je	 $LN1@OnRenderBa
  0003a	39 be 70 01 00
	00		 cmp	 DWORD PTR [esi+368], edi
  00040	0f 84 cb 01 00
	00		 je	 $LN1@OnRenderBa
  00046	39 be 74 01 00
	00		 cmp	 DWORD PTR [esi+372], edi
  0004c	0f 84 bf 01 00
	00		 je	 $LN1@OnRenderBa
  00052	39 be 78 01 00
	00		 cmp	 DWORD PTR [esi+376], edi
  00058	0f 84 b3 01 00
	00		 je	 $LN1@OnRenderBa
  0005e	39 be 7c 01 00
	00		 cmp	 DWORD PTR [esi+380], edi
  00064	0f 84 a7 01 00
	00		 je	 $LN1@OnRenderBa

; 2739 : 
; 2740 : 	m_pBarLeftMultiply->Render( iXPos, iYPos, UI_RENDER_MULTIPLY );		

  0006a	8b 8e 60 01 00
	00		 mov	 ecx, DWORD PTR [esi+352]
  00070	66 0f 6e 45 0c	 movd	 xmm0, DWORD PTR _iYPos$[ebp]
  00075	66 0f 6e 4d 08	 movd	 xmm1, DWORD PTR _iXPos$[ebp]
  0007a	8b 01		 mov	 eax, DWORD PTR [ecx]
  0007c	53		 push	 ebx
  0007d	57		 push	 edi
  0007e	57		 push	 edi
  0007f	57		 push	 edi
  00080	6a 08		 push	 8
  00082	51		 push	 ecx
  00083	51		 push	 ecx
  00084	0f 5b c0	 cvtdq2ps xmm0, xmm0
  00087	0f 5b c9	 cvtdq2ps xmm1, xmm1
  0008a	f3 0f 11 44 24
	04		 movss	 DWORD PTR [esp+4], xmm0
  00090	f3 0f 11 45 0c	 movss	 DWORD PTR tv356[ebp], xmm0
  00095	f3 0f 11 4d fc	 movss	 DWORD PTR tv357[ebp], xmm1
  0009a	f3 0f 11 0c 24	 movss	 DWORD PTR [esp], xmm1
  0009f	ff 10		 call	 DWORD PTR [eax]

; 2741 : 	m_pBarCenterMultiply->SetSize( iWidth, m_pBarCenterMultiply->GetHeight() );

  000a1	8b 86 64 01 00
	00		 mov	 eax, DWORD PTR [esi+356]
  000a7	8b 18		 mov	 ebx, DWORD PTR [eax]
  000a9	8b c8		 mov	 ecx, eax
  000ab	ff 15 00 00 00
	00		 call	 DWORD PTR __imp_?GetHeight@ioUIRenderElement@@QBEHXZ
  000b1	8b 8e 64 01 00
	00		 mov	 ecx, DWORD PTR [esi+356]
  000b7	50		 push	 eax
  000b8	ff 75 10	 push	 DWORD PTR _iWidth$[ebp]
  000bb	ff 53 10	 call	 DWORD PTR [ebx+16]

; 2742 : 	m_pBarCenterMultiply->SetHorzFormatting( ioUIRenderImage::HF_STRETCH );

  000be	8b 8e 64 01 00
	00		 mov	 ecx, DWORD PTR [esi+356]
  000c4	6a 03		 push	 3
  000c6	ff 15 00 00 00
	00		 call	 DWORD PTR __imp_?SetHorzFormatting@ioUIRenderImage@@QAEXW4HorzFormatting@1@@Z

; 2743 : 	m_pBarCenterMultiply->Render( iXPos + m_pBarLeftMultiply->GetWidth(), iYPos, UI_RENDER_MULTIPLY );

  000cc	8b 86 64 01 00
	00		 mov	 eax, DWORD PTR [esi+356]
  000d2	f3 0f 10 45 0c	 movss	 xmm0, DWORD PTR tv356[ebp]
  000d7	8b 18		 mov	 ebx, DWORD PTR [eax]
  000d9	57		 push	 edi
  000da	57		 push	 edi
  000db	57		 push	 edi
  000dc	6a 08		 push	 8
  000de	51		 push	 ecx
  000df	8b 8e 60 01 00
	00		 mov	 ecx, DWORD PTR [esi+352]
  000e5	f3 0f 11 04 24	 movss	 DWORD PTR [esp], xmm0
  000ea	ff 15 00 00 00
	00		 call	 DWORD PTR __imp_?GetWidth@ioUIRenderElement@@QBEHXZ
  000f0	03 45 08	 add	 eax, DWORD PTR _iXPos$[ebp]
  000f3	51		 push	 ecx
  000f4	8b 8e 64 01 00
	00		 mov	 ecx, DWORD PTR [esi+356]
  000fa	0f 57 c0	 xorps	 xmm0, xmm0
  000fd	f3 0f 2a c0	 cvtsi2ss xmm0, eax
  00101	f3 0f 11 04 24	 movss	 DWORD PTR [esp], xmm0
  00106	ff 13		 call	 DWORD PTR [ebx]

; 2744 : 	m_pBarRightMultiply->Render( iXPos + m_pBarLeftMultiply->GetWidth() + iWidth, iYPos, UI_RENDER_MULTIPLY );

  00108	8b 86 68 01 00
	00		 mov	 eax, DWORD PTR [esi+360]
  0010e	f3 0f 10 45 0c	 movss	 xmm0, DWORD PTR tv356[ebp]
  00113	8b 18		 mov	 ebx, DWORD PTR [eax]
  00115	57		 push	 edi
  00116	57		 push	 edi
  00117	57		 push	 edi
  00118	6a 08		 push	 8
  0011a	51		 push	 ecx
  0011b	8b 8e 60 01 00
	00		 mov	 ecx, DWORD PTR [esi+352]
  00121	f3 0f 11 04 24	 movss	 DWORD PTR [esp], xmm0
  00126	ff 15 00 00 00
	00		 call	 DWORD PTR __imp_?GetWidth@ioUIRenderElement@@QBEHXZ
  0012c	03 45 08	 add	 eax, DWORD PTR _iXPos$[ebp]
  0012f	51		 push	 ecx
  00130	03 45 10	 add	 eax, DWORD PTR _iWidth$[ebp]
  00133	8b 8e 68 01 00
	00		 mov	 ecx, DWORD PTR [esi+360]
  00139	0f 57 c0	 xorps	 xmm0, xmm0
  0013c	f3 0f 2a c0	 cvtsi2ss xmm0, eax
  00140	f3 0f 11 04 24	 movss	 DWORD PTR [esp], xmm0
  00145	ff 13		 call	 DWORD PTR [ebx]

; 2745 : /*	if( (sg_dwMoveState == MOVE_STATE_HIDE && m_dwMoveStateTime == 0) )
; 2746 : 	{		
; 2747 : 		enum { CENTER_CUT = 29, };
; 2748 : 		int iCenterSize = ( iWidth / 2 ) - CENTER_CUT;
; 2749 : 		m_pBarLeft->Render( iXPos, iYPos );		
; 2750 : 		m_pBarCenter->SetSize( iCenterSize, m_pBarCenter->GetHeight() );
; 2751 : 		m_pBarCenter->SetHorzFormatting( ioUIRenderImage::HF_STRETCH );
; 2752 : 		m_pBarCenter->Render( iXPos + m_pBarLeft->GetWidth(), iYPos );
; 2753 : 		m_pHideBar->Render( iXPos + m_pBarLeft->GetWidth() + iCenterSize, iYPos );
; 2754 : 		m_pBarCenter->Render( iXPos + m_pBarLeft->GetWidth() + iCenterSize + m_pHideBar->GetWidth(), iYPos );
; 2755 : 		m_pBarRight->Render( iXPos + m_pBarLeft->GetWidth() + iWidth, iYPos );
; 2756 : 
; 2757 : 		m_pHideIcon->Render( iXPos + (GetWidth() / 2) + 7, iYPos - 1 );
; 2758 : 	}
; 2759 : 	else
; 2760 : */	{
; 2761 : 		m_pBarLeft->Render( iXPos, iYPos );		

  00147	8b 8e 6c 01 00
	00		 mov	 ecx, DWORD PTR [esi+364]
  0014d	f3 0f 10 45 0c	 movss	 xmm0, DWORD PTR tv356[ebp]
  00152	8b 01		 mov	 eax, DWORD PTR [ecx]
  00154	57		 push	 edi
  00155	57		 push	 edi
  00156	57		 push	 edi
  00157	57		 push	 edi
  00158	51		 push	 ecx
  00159	51		 push	 ecx
  0015a	f3 0f 11 44 24
	04		 movss	 DWORD PTR [esp+4], xmm0
  00160	f3 0f 10 45 fc	 movss	 xmm0, DWORD PTR tv357[ebp]
  00165	f3 0f 11 04 24	 movss	 DWORD PTR [esp], xmm0
  0016a	ff 10		 call	 DWORD PTR [eax]

; 2762 : 		m_pBarCenter->SetSize( iWidth, m_pBarCenter->GetHeight() );

  0016c	8b 86 70 01 00
	00		 mov	 eax, DWORD PTR [esi+368]
  00172	8b 18		 mov	 ebx, DWORD PTR [eax]
  00174	8b c8		 mov	 ecx, eax
  00176	ff 15 00 00 00
	00		 call	 DWORD PTR __imp_?GetHeight@ioUIRenderElement@@QBEHXZ
  0017c	8b 8e 70 01 00
	00		 mov	 ecx, DWORD PTR [esi+368]
  00182	50		 push	 eax
  00183	ff 75 10	 push	 DWORD PTR _iWidth$[ebp]
  00186	ff 53 10	 call	 DWORD PTR [ebx+16]

; 2763 : 		m_pBarCenter->SetHorzFormatting( ioUIRenderImage::HF_STRETCH );

  00189	8b 8e 70 01 00
	00		 mov	 ecx, DWORD PTR [esi+368]
  0018f	6a 03		 push	 3
  00191	ff 15 00 00 00
	00		 call	 DWORD PTR __imp_?SetHorzFormatting@ioUIRenderImage@@QAEXW4HorzFormatting@1@@Z

; 2764 : 		m_pBarCenter->Render( iXPos + m_pBarLeft->GetWidth(), iYPos );

  00197	8b 86 70 01 00
	00		 mov	 eax, DWORD PTR [esi+368]
  0019d	f3 0f 10 45 0c	 movss	 xmm0, DWORD PTR tv356[ebp]
  001a2	8b 18		 mov	 ebx, DWORD PTR [eax]
  001a4	57		 push	 edi
  001a5	57		 push	 edi
  001a6	57		 push	 edi
  001a7	57		 push	 edi
  001a8	51		 push	 ecx
  001a9	8b 8e 6c 01 00
	00		 mov	 ecx, DWORD PTR [esi+364]
  001af	f3 0f 11 04 24	 movss	 DWORD PTR [esp], xmm0
  001b4	ff 15 00 00 00
	00		 call	 DWORD PTR __imp_?GetWidth@ioUIRenderElement@@QBEHXZ
  001ba	03 45 08	 add	 eax, DWORD PTR _iXPos$[ebp]
  001bd	51		 push	 ecx
  001be	8b 8e 70 01 00
	00		 mov	 ecx, DWORD PTR [esi+368]
  001c4	0f 57 c0	 xorps	 xmm0, xmm0
  001c7	f3 0f 2a c0	 cvtsi2ss xmm0, eax
  001cb	f3 0f 11 04 24	 movss	 DWORD PTR [esp], xmm0
  001d0	ff 13		 call	 DWORD PTR [ebx]

; 2765 : 		m_pBarRight->Render( iXPos + m_pBarLeft->GetWidth() + iWidth, iYPos );

  001d2	8b 86 74 01 00
	00		 mov	 eax, DWORD PTR [esi+372]
  001d8	f3 0f 10 45 0c	 movss	 xmm0, DWORD PTR tv356[ebp]
  001dd	8b 18		 mov	 ebx, DWORD PTR [eax]
  001df	57		 push	 edi
  001e0	57		 push	 edi
  001e1	57		 push	 edi
  001e2	57		 push	 edi
  001e3	51		 push	 ecx
  001e4	8b 8e 6c 01 00
	00		 mov	 ecx, DWORD PTR [esi+364]
  001ea	f3 0f 11 04 24	 movss	 DWORD PTR [esp], xmm0
  001ef	ff 15 00 00 00
	00		 call	 DWORD PTR __imp_?GetWidth@ioUIRenderElement@@QBEHXZ
  001f5	03 45 08	 add	 eax, DWORD PTR _iXPos$[ebp]
  001f8	51		 push	 ecx
  001f9	03 45 10	 add	 eax, DWORD PTR _iWidth$[ebp]
  001fc	8b 8e 74 01 00
	00		 mov	 ecx, DWORD PTR [esi+372]
  00202	0f 57 c0	 xorps	 xmm0, xmm0
  00205	f3 0f 2a c0	 cvtsi2ss xmm0, eax
  00209	f3 0f 11 04 24	 movss	 DWORD PTR [esp], xmm0
  0020e	ff 13		 call	 DWORD PTR [ebx]
  00210	5b		 pop	 ebx
$LN1@OnRenderBa:
  00211	5f		 pop	 edi
  00212	5e		 pop	 esi

; 2766 : 	}
; 2767 : }

  00213	c9		 leave
  00214	c2 0c 00	 ret	 12			; 0000000cH
?OnRenderBar@HelpWnd@@IAEXHHH@Z ENDP			; HelpWnd::OnRenderBar
_TEXT	ENDS
PUBLIC	?QuestGuide@HelpWnd@@QAE_NHAAM0@Z		; HelpWnd::QuestGuide
EXTRN	__imp_?GetDerivedPosY@ioWnd@@QBEHXZ:PROC
EXTRN	__imp_?GetDerivedPosX@ioWnd@@QBEHXZ:PROC
EXTRN	__imp_?GetWidth@ioWnd@@QBEHXZ:PROC
; Function compile flags: /Ogsp
;	COMDAT ?QuestGuide@HelpWnd@@QAE_NHAAM0@Z
_TEXT	SEGMENT
_iBtnID$ = 8						; size = 4
_rfXPos$ = 12						; size = 4
_rfYPos$ = 16						; size = 4
?QuestGuide@HelpWnd@@QAE_NHAAM0@Z PROC			; HelpWnd::QuestGuide, COMDAT
; _this$ = ecx

; 2782 : {

  00000	55		 push	 ebp
  00001	8b ec		 mov	 ebp, esp

; 2783 : 	if( sg_dwMoveState == MOVE_STATE_HIDE )

  00003	83 3d 00 00 00
	00 01		 cmp	 DWORD PTR ?sg_dwMoveState@HelpWnd@@1KA, 1 ; HelpWnd::sg_dwMoveState
  0000a	75 04		 jne	 SHORT $LN2@QuestGuide

; 2784 : 		return false;

  0000c	32 c0		 xor	 al, al
  0000e	eb 62		 jmp	 SHORT $LN3@QuestGuide
$LN2@QuestGuide:
  00010	56		 push	 esi

; 2785 : 
; 2786 : 	ioWnd *pBtn = FindChildWnd( iBtnID );

  00011	ff 75 08	 push	 DWORD PTR _iBtnID$[ebp]
  00014	ff 15 00 00 00
	00		 call	 DWORD PTR __imp_?FindChildWnd@ioWnd@@QAEPAV1@K@Z
  0001a	8b f0		 mov	 esi, eax

; 2787 : 	if( pBtn && pBtn->IsShow() )

  0001c	85 f6		 test	 esi, esi
  0001e	74 4f		 je	 SHORT $LN1@QuestGuide
  00020	8b ce		 mov	 ecx, esi
  00022	ff 15 00 00 00
	00		 call	 DWORD PTR __imp_?IsShow@ioWnd@@QBE_NXZ
  00028	84 c0		 test	 al, al
  0002a	74 43		 je	 SHORT $LN1@QuestGuide

; 2788 : 	{
; 2789 : 		rfXPos = pBtn->GetDerivedPosX() + ( pBtn->GetWidth() / 2 );

  0002c	57		 push	 edi
  0002d	8b ce		 mov	 ecx, esi
  0002f	ff 15 00 00 00
	00		 call	 DWORD PTR __imp_?GetWidth@ioWnd@@QBEHXZ
  00035	99		 cdq
  00036	2b c2		 sub	 eax, edx
  00038	8b f8		 mov	 edi, eax
  0003a	8b ce		 mov	 ecx, esi
  0003c	d1 ff		 sar	 edi, 1
  0003e	ff 15 00 00 00
	00		 call	 DWORD PTR __imp_?GetDerivedPosX@ioWnd@@QBEHXZ
  00044	03 c7		 add	 eax, edi
  00046	0f 57 c0	 xorps	 xmm0, xmm0
  00049	f3 0f 2a c0	 cvtsi2ss xmm0, eax
  0004d	8b 45 0c	 mov	 eax, DWORD PTR _rfXPos$[ebp]

; 2790 : 		rfYPos = pBtn->GetDerivedPosY();

  00050	8b ce		 mov	 ecx, esi
  00052	f3 0f 11 00	 movss	 DWORD PTR [eax], xmm0
  00056	ff 15 00 00 00
	00		 call	 DWORD PTR __imp_?GetDerivedPosY@ioWnd@@QBEHXZ
  0005c	0f 57 c0	 xorps	 xmm0, xmm0
  0005f	f3 0f 2a c0	 cvtsi2ss xmm0, eax
  00063	8b 45 10	 mov	 eax, DWORD PTR _rfYPos$[ebp]
  00066	f3 0f 11 00	 movss	 DWORD PTR [eax], xmm0

; 2791 : 		return true;

  0006a	b0 01		 mov	 al, 1
  0006c	5f		 pop	 edi
  0006d	eb 02		 jmp	 SHORT $LN5@QuestGuide
$LN1@QuestGuide:

; 2792 : 	}
; 2793 : 	return false;

  0006f	32 c0		 xor	 al, al
$LN5@QuestGuide:
  00071	5e		 pop	 esi
$LN3@QuestGuide:

; 2794 : }

  00072	5d		 pop	 ebp
  00073	c2 0c 00	 ret	 12			; 0000000cH
?QuestGuide@HelpWnd@@QAE_NHAAM0@Z ENDP			; HelpWnd::QuestGuide
_TEXT	ENDS
PUBLIC	?GetSingleton@?$Singleton@VioEtcItemManager@@@@SAAAVioEtcItemManager@@XZ ; Singleton<ioEtcItemManager>::GetSingleton
EXTRN	?ms_Singleton@?$Singleton@VioEtcItemManager@@@@1PAVioEtcItemManager@@A:DWORD ; Singleton<ioEtcItemManager>::ms_Singleton
; Function compile flags: /Ogsp
; File d:\lost saga for developer\youtube\tutorial\source\src\io3dengine\iosingleton.h
;	COMDAT ?GetSingleton@?$Singleton@VioEtcItemManager@@@@SAAAVioEtcItemManager@@XZ
_TEXT	SEGMENT
?GetSingleton@?$Singleton@VioEtcItemManager@@@@SAAAVioEtcItemManager@@XZ PROC ; Singleton<ioEtcItemManager>::GetSingleton, COMDAT

; 42   : 		assert( ms_Singleton );
; 43   : 		return (*ms_Singleton);

  00000	a1 00 00 00 00	 mov	 eax, DWORD PTR ?ms_Singleton@?$Singleton@VioEtcItemManager@@@@1PAVioEtcItemManager@@A ; Singleton<ioEtcItemManager>::ms_Singleton

; 44   : 	}

  00005	c3		 ret	 0
?GetSingleton@?$Singleton@VioEtcItemManager@@@@SAAAVioEtcItemManager@@XZ ENDP ; Singleton<ioEtcItemManager>::GetSingleton
_TEXT	ENDS
PUBLIC	?size@?$vector@USubscriptionData@ioSubscriptionMgr@@V?$allocator@USubscriptionData@ioSubscriptionMgr@@@std@@@std@@QBEIXZ ; std::vector<ioSubscriptionMgr::SubscriptionData,std::allocator<ioSubscriptionMgr::SubscriptionData> >::size
; Function compile flags: /Ogsp
; File c:\program files (x86)\microsoft visual studio 10.0\vc\include\vector
;	COMDAT ?size@?$vector@USubscriptionData@ioSubscriptionMgr@@V?$allocator@USubscriptionData@ioSubscriptionMgr@@@std@@@std@@QBEIXZ
_TEXT	SEGMENT
?size@?$vector@USubscriptionData@ioSubscriptionMgr@@V?$allocator@USubscriptionData@ioSubscriptionMgr@@@std@@@std@@QBEIXZ PROC ; std::vector<ioSubscriptionMgr::SubscriptionData,std::allocator<ioSubscriptionMgr::SubscriptionData> >::size, COMDAT
; _this$ = ecx

; 879  : 		return (this->_Mylast - this->_Myfirst);

  00000	8b 41 04	 mov	 eax, DWORD PTR [ecx+4]
  00003	2b 01		 sub	 eax, DWORD PTR [ecx]
  00005	6a 30		 push	 48			; 00000030H
  00007	99		 cdq
  00008	59		 pop	 ecx
  00009	f7 f9		 idiv	 ecx

; 880  : 		}

  0000b	c3		 ret	 0
?size@?$vector@USubscriptionData@ioSubscriptionMgr@@V?$allocator@USubscriptionData@ioSubscriptionMgr@@@std@@@std@@QBEIXZ ENDP ; std::vector<ioSubscriptionMgr::SubscriptionData,std::allocator<ioSubscriptionMgr::SubscriptionData> >::size
_TEXT	ENDS
PUBLIC	?size@?$vector@PAVMenuBase@@V?$allocator@PAVMenuBase@@@std@@@std@@QBEIXZ ; std::vector<MenuBase *,std::allocator<MenuBase *> >::size
; Function compile flags: /Ogsp
;	COMDAT ?size@?$vector@PAVMenuBase@@V?$allocator@PAVMenuBase@@@std@@@std@@QBEIXZ
_TEXT	SEGMENT
?size@?$vector@PAVMenuBase@@V?$allocator@PAVMenuBase@@@std@@@std@@QBEIXZ PROC ; std::vector<MenuBase *,std::allocator<MenuBase *> >::size, COMDAT
; _this$ = ecx

; 879  : 		return (this->_Mylast - this->_Myfirst);

  00000	8b 41 04	 mov	 eax, DWORD PTR [ecx+4]
  00003	2b 01		 sub	 eax, DWORD PTR [ecx]
  00005	c1 f8 02	 sar	 eax, 2

; 880  : 		}

  00008	c3		 ret	 0
?size@?$vector@PAVMenuBase@@V?$allocator@PAVMenuBase@@@std@@@std@@QBEIXZ ENDP ; std::vector<MenuBase *,std::allocator<MenuBase *> >::size
_TEXT	ENDS
PUBLIC	??A?$vector@PAVMenuBase@@V?$allocator@PAVMenuBase@@@std@@@std@@QAEAAPAVMenuBase@@I@Z ; std::vector<MenuBase *,std::allocator<MenuBase *> >::operator[]
; Function compile flags: /Ogsp
;	COMDAT ??A?$vector@PAVMenuBase@@V?$allocator@PAVMenuBase@@@std@@@std@@QAEAAPAVMenuBase@@I@Z
_TEXT	SEGMENT
__Pos$ = 8						; size = 4
??A?$vector@PAVMenuBase@@V?$allocator@PAVMenuBase@@@std@@@std@@QAEAAPAVMenuBase@@I@Z PROC ; std::vector<MenuBase *,std::allocator<MenuBase *> >::operator[], COMDAT
; _this$ = ecx

; 928  : 		{	// subscript mutable sequence

  00000	55		 push	 ebp
  00001	8b ec		 mov	 ebp, esp

; 929  :  #if _ITERATOR_DEBUG_LEVEL == 2
; 930  : 		if (size() <= _Pos)
; 931  : 			{	// report error
; 932  : 			_DEBUG_ERROR("vector subscript out of range");
; 933  : 			_SCL_SECURE_OUT_OF_RANGE;
; 934  : 			}
; 935  : 
; 936  :  #elif _ITERATOR_DEBUG_LEVEL == 1
; 937  : 		_SCL_SECURE_VALIDATE_RANGE(_Pos < size());
; 938  :  #endif /* _ITERATOR_DEBUG_LEVEL */
; 939  : 
; 940  : 		return (*(this->_Myfirst + _Pos));

  00003	8b 01		 mov	 eax, DWORD PTR [ecx]
  00005	8b 4d 08	 mov	 ecx, DWORD PTR __Pos$[ebp]
  00008	8d 04 88	 lea	 eax, DWORD PTR [eax+ecx*4]

; 941  : 		}

  0000b	5d		 pop	 ebp
  0000c	c2 04 00	 ret	 4
??A?$vector@PAVMenuBase@@V?$allocator@PAVMenuBase@@@std@@@std@@QAEAAPAVMenuBase@@I@Z ENDP ; std::vector<MenuBase *,std::allocator<MenuBase *> >::operator[]
_TEXT	ENDS
PUBLIC	?DecryptValueToPool@?$CEncrypt@W4ChatModeState@@@@QAEXPAW4ChatModeState@@@Z ; CEncrypt<enum ChatModeState>::DecryptValueToPool
EXTRN	?DecryptByte@ccddaabb@@QBEXPBDPADH@Z:PROC	; ccddaabb::DecryptByte
; Function compile flags: /Ogsp
; File d:\lost saga for developer\youtube\tutorial\source\src\lsclient\encryptvalue.h
;	COMDAT ?DecryptValueToPool@?$CEncrypt@W4ChatModeState@@@@QAEXPAW4ChatModeState@@@Z
_TEXT	SEGMENT
_value$ = 8						; size = 4
?DecryptValueToPool@?$CEncrypt@W4ChatModeState@@@@QAEXPAW4ChatModeState@@@Z PROC ; CEncrypt<enum ChatModeState>::DecryptValueToPool, COMDAT
; _this$ = ecx

; 2717 : 	{

  00000	55		 push	 ebp
  00001	8b ec		 mov	 ebp, esp
  00003	56		 push	 esi

; 2718 : 		m_RC5.DecryptByte( m_MemPool, m_TempMem, sizeof(ChatModeState) );

  00004	8d 71 28	 lea	 esi, DWORD PTR [ecx+40]
  00007	6a 04		 push	 4
  00009	8d 41 1c	 lea	 eax, DWORD PTR [ecx+28]
  0000c	56		 push	 esi
  0000d	50		 push	 eax
  0000e	83 c1 0c	 add	 ecx, 12			; 0000000cH
  00011	e8 00 00 00 00	 call	 ?DecryptByte@ccddaabb@@QBEXPBDPADH@Z ; ccddaabb::DecryptByte

; 2719 : 		*value = *((ChatModeState*)m_TempMem);

  00016	8b 06		 mov	 eax, DWORD PTR [esi]
  00018	8b 4d 08	 mov	 ecx, DWORD PTR _value$[ebp]
  0001b	89 01		 mov	 DWORD PTR [ecx], eax
  0001d	5e		 pop	 esi

; 2720 : 	}

  0001e	5d		 pop	 ebp
  0001f	c2 04 00	 ret	 4
?DecryptValueToPool@?$CEncrypt@W4ChatModeState@@@@QAEXPAW4ChatModeState@@@Z ENDP ; CEncrypt<enum ChatModeState>::DecryptValueToPool
_TEXT	ENDS
PUBLIC	?_Inside@?$vector@PAVMenuBase@@V?$allocator@PAVMenuBase@@@std@@@std@@IBE_NPBQAVMenuBase@@@Z ; std::vector<MenuBase *,std::allocator<MenuBase *> >::_Inside
; Function compile flags: /Ogsp
; File c:\program files (x86)\microsoft visual studio 10.0\vc\include\vector
;	COMDAT ?_Inside@?$vector@PAVMenuBase@@V?$allocator@PAVMenuBase@@@std@@@std@@IBE_NPBQAVMenuBase@@@Z
_TEXT	SEGMENT
__Ptr$ = 8						; size = 4
?_Inside@?$vector@PAVMenuBase@@V?$allocator@PAVMenuBase@@@std@@@std@@IBE_NPBQAVMenuBase@@@Z PROC ; std::vector<MenuBase *,std::allocator<MenuBase *> >::_Inside, COMDAT
; _this$ = ecx

; 1285 : 		{	// test if _Ptr points inside vector

  00000	55		 push	 ebp
  00001	8b ec		 mov	 ebp, esp

; 1286 : 		return (_Ptr < this->_Mylast && this->_Myfirst <= _Ptr);

  00003	8b 45 08	 mov	 eax, DWORD PTR __Ptr$[ebp]
  00006	3b 41 04	 cmp	 eax, DWORD PTR [ecx+4]
  00009	73 09		 jae	 SHORT $LN3@Inside
  0000b	39 01		 cmp	 DWORD PTR [ecx], eax
  0000d	77 05		 ja	 SHORT $LN3@Inside
  0000f	33 c0		 xor	 eax, eax
  00011	40		 inc	 eax
  00012	eb 02		 jmp	 SHORT $LN4@Inside
$LN3@Inside:
  00014	33 c0		 xor	 eax, eax
$LN4@Inside:

; 1287 : 		}

  00016	5d		 pop	 ebp
  00017	c2 04 00	 ret	 4
?_Inside@?$vector@PAVMenuBase@@V?$allocator@PAVMenuBase@@@std@@@std@@IBE_NPBQAVMenuBase@@@Z ENDP ; std::vector<MenuBase *,std::allocator<MenuBase *> >::_Inside
_TEXT	ENDS
PUBLIC	?_Orphan_range@?$vector@PAVMenuBase@@V?$allocator@PAVMenuBase@@@std@@@std@@IBEXPAPAVMenuBase@@0@Z ; std::vector<MenuBase *,std::allocator<MenuBase *> >::_Orphan_range
; Function compile flags: /Ogsp
;	COMDAT ?_Orphan_range@?$vector@PAVMenuBase@@V?$allocator@PAVMenuBase@@@std@@@std@@IBEXPAPAVMenuBase@@0@Z
_TEXT	SEGMENT
___formal$ = 8						; size = 4
___formal$ = 12						; size = 4
?_Orphan_range@?$vector@PAVMenuBase@@V?$allocator@PAVMenuBase@@@std@@@std@@IBEXPAPAVMenuBase@@0@Z PROC ; std::vector<MenuBase *,std::allocator<MenuBase *> >::_Orphan_range, COMDAT
; _this$ = ecx

; 1454 : 		}

  00000	c2 08 00	 ret	 8
?_Orphan_range@?$vector@PAVMenuBase@@V?$allocator@PAVMenuBase@@@std@@@std@@IBEXPAPAVMenuBase@@0@Z ENDP ; std::vector<MenuBase *,std::allocator<MenuBase *> >::_Orphan_range
_TEXT	ENDS
PUBLIC	??1?$_Vector_val@PAVMenuBase@@V?$allocator@PAVMenuBase@@@std@@@std@@QAE@XZ ; std::_Vector_val<MenuBase *,std::allocator<MenuBase *> >::~_Vector_val<MenuBase *,std::allocator<MenuBase *> >
; Function compile flags: /Ogsp
;	COMDAT ??1?$_Vector_val@PAVMenuBase@@V?$allocator@PAVMenuBase@@@std@@@std@@QAE@XZ
_TEXT	SEGMENT
??1?$_Vector_val@PAVMenuBase@@V?$allocator@PAVMenuBase@@@std@@@std@@QAE@XZ PROC ; std::_Vector_val<MenuBase *,std::allocator<MenuBase *> >::~_Vector_val<MenuBase *,std::allocator<MenuBase *> >, COMDAT
; _this$ = ecx

; 434  : 		}

  00000	c3		 ret	 0
??1?$_Vector_val@PAVMenuBase@@V?$allocator@PAVMenuBase@@@std@@@std@@QAE@XZ ENDP ; std::_Vector_val<MenuBase *,std::allocator<MenuBase *> >::~_Vector_val<MenuBase *,std::allocator<MenuBase *> >
_TEXT	ENDS
PUBLIC	??0?$allocator@PAVMenuBase@@@std@@QAE@XZ	; std::allocator<MenuBase *>::allocator<MenuBase *>
; Function compile flags: /Ogsp
; File c:\program files (x86)\microsoft visual studio 10.0\vc\include\xmemory
;	COMDAT ??0?$allocator@PAVMenuBase@@@std@@QAE@XZ
_TEXT	SEGMENT
??0?$allocator@PAVMenuBase@@@std@@QAE@XZ PROC		; std::allocator<MenuBase *>::allocator<MenuBase *>, COMDAT
; _this$ = ecx

; 161  : 	_ALLOCATOR() _THROW0()

  00000	8b c1		 mov	 eax, ecx

; 162  : 		{	// construct default allocator (do nothing)
; 163  : 		}

  00002	c3		 ret	 0
??0?$allocator@PAVMenuBase@@@std@@QAE@XZ ENDP		; std::allocator<MenuBase *>::allocator<MenuBase *>
_TEXT	ENDS
PUBLIC	?capacity@?$vector@PAVMenuBase@@V?$allocator@PAVMenuBase@@@std@@@std@@QBEIXZ ; std::vector<MenuBase *,std::allocator<MenuBase *> >::capacity
; Function compile flags: /Ogsp
; File c:\program files (x86)\microsoft visual studio 10.0\vc\include\vector
;	COMDAT ?capacity@?$vector@PAVMenuBase@@V?$allocator@PAVMenuBase@@@std@@@std@@QBEIXZ
_TEXT	SEGMENT
?capacity@?$vector@PAVMenuBase@@V?$allocator@PAVMenuBase@@@std@@@std@@QBEIXZ PROC ; std::vector<MenuBase *,std::allocator<MenuBase *> >::capacity, COMDAT
; _this$ = ecx

; 777  : 		return (this->_Myend - this->_Myfirst);

  00000	8b 41 08	 mov	 eax, DWORD PTR [ecx+8]
  00003	2b 01		 sub	 eax, DWORD PTR [ecx]
  00005	c1 f8 02	 sar	 eax, 2

; 778  : 		}

  00008	c3		 ret	 0
?capacity@?$vector@PAVMenuBase@@V?$allocator@PAVMenuBase@@@std@@@std@@QBEIXZ ENDP ; std::vector<MenuBase *,std::allocator<MenuBase *> >::capacity
_TEXT	ENDS
PUBLIC	??_C@_0BD@OLBABOEK@vector?$DMT?$DO?5too?5long?$AA@ ; `string'
PUBLIC	?_Xlen@?$vector@PAVMenuBase@@V?$allocator@PAVMenuBase@@@std@@@std@@IBEXXZ ; std::vector<MenuBase *,std::allocator<MenuBase *> >::_Xlen
EXTRN	__imp_?_Xlength_error@std@@YAXPBD@Z:PROC
;	COMDAT ??_C@_0BD@OLBABOEK@vector?$DMT?$DO?5too?5long?$AA@
CONST	SEGMENT
??_C@_0BD@OLBABOEK@vector?$DMT?$DO?5too?5long?$AA@ DB 'vector<T> too long'
	DB	00H						; `string'
; Function compile flags: /Ogsp
CONST	ENDS
;	COMDAT ?_Xlen@?$vector@PAVMenuBase@@V?$allocator@PAVMenuBase@@@std@@@std@@IBEXXZ
_TEXT	SEGMENT
?_Xlen@?$vector@PAVMenuBase@@V?$allocator@PAVMenuBase@@@std@@@std@@IBEXXZ PROC ; std::vector<MenuBase *,std::allocator<MenuBase *> >::_Xlen, COMDAT
; _this$ = ecx

; 1427 : 		_Xlength_error("vector<T> too long");

  00000	68 00 00 00 00	 push	 OFFSET ??_C@_0BD@OLBABOEK@vector?$DMT?$DO?5too?5long?$AA@
  00005	ff 15 00 00 00
	00		 call	 DWORD PTR __imp_?_Xlength_error@std@@YAXPBD@Z
$LN4@Xlen:
$LN3@Xlen:
  0000b	cc		 int	 3
?_Xlen@?$vector@PAVMenuBase@@V?$allocator@PAVMenuBase@@@std@@@std@@IBEXXZ ENDP ; std::vector<MenuBase *,std::allocator<MenuBase *> >::_Xlen
_TEXT	ENDS
PUBLIC	??0?$allocator@PAVMenuBase@@@std@@QAE@ABV01@@Z	; std::allocator<MenuBase *>::allocator<MenuBase *>
; Function compile flags: /Ogsp
; File c:\program files (x86)\microsoft visual studio 10.0\vc\include\xmemory
;	COMDAT ??0?$allocator@PAVMenuBase@@@std@@QAE@ABV01@@Z
_TEXT	SEGMENT
___formal$ = 8						; size = 4
??0?$allocator@PAVMenuBase@@@std@@QAE@ABV01@@Z PROC	; std::allocator<MenuBase *>::allocator<MenuBase *>, COMDAT
; _this$ = ecx

; 165  : 	_ALLOCATOR(const _ALLOCATOR<_Ty>&) _THROW0()

  00000	8b c1		 mov	 eax, ecx

; 166  : 		{	// construct by copying (do nothing)
; 167  : 		}

  00002	c2 04 00	 ret	 4
??0?$allocator@PAVMenuBase@@@std@@QAE@ABV01@@Z ENDP	; std::allocator<MenuBase *>::allocator<MenuBase *>
_TEXT	ENDS
PUBLIC	?deallocate@?$allocator@PAVMenuBase@@@std@@QAEXPAPAVMenuBase@@I@Z ; std::allocator<MenuBase *>::deallocate
; Function compile flags: /Ogsp
;	COMDAT ?deallocate@?$allocator@PAVMenuBase@@@std@@QAEXPAPAVMenuBase@@I@Z
_TEXT	SEGMENT
__Ptr$ = 8						; size = 4
___formal$ = 12						; size = 4
?deallocate@?$allocator@PAVMenuBase@@@std@@QAEXPAPAVMenuBase@@I@Z PROC ; std::allocator<MenuBase *>::deallocate, COMDAT
; _this$ = ecx

; 181  : 		{	// deallocate object at _Ptr, ignore size

  00000	55		 push	 ebp
  00001	8b ec		 mov	 ebp, esp

; 182  : 		::operator delete(_Ptr);

  00003	ff 75 08	 push	 DWORD PTR __Ptr$[ebp]
  00006	e8 00 00 00 00	 call	 ??3@YAXPAX@Z		; operator delete
  0000b	59		 pop	 ecx

; 183  : 		}

  0000c	5d		 pop	 ebp
  0000d	c2 08 00	 ret	 8
?deallocate@?$allocator@PAVMenuBase@@@std@@QAEXPAPAVMenuBase@@I@Z ENDP ; std::allocator<MenuBase *>::deallocate
_TEXT	ENDS
PUBLIC	?max_size@?$allocator@PAVMenuBase@@@std@@QBEIXZ	; std::allocator<MenuBase *>::max_size
; Function compile flags: /Ogsp
;	COMDAT ?max_size@?$allocator@PAVMenuBase@@@std@@QBEIXZ
_TEXT	SEGMENT
?max_size@?$allocator@PAVMenuBase@@@std@@QBEIXZ PROC	; std::allocator<MenuBase *>::max_size, COMDAT
; _this$ = ecx

; 218  : 		_SIZT _Count = (_SIZT)(-1) / sizeof (_Ty);
; 219  : 		return (0 < _Count ? _Count : 1);

  00000	b8 ff ff ff 3f	 mov	 eax, 1073741823		; 3fffffffH

; 220  : 		}

  00005	c3		 ret	 0
?max_size@?$allocator@PAVMenuBase@@@std@@QBEIXZ ENDP	; std::allocator<MenuBase *>::max_size
_TEXT	ENDS
PUBLIC	??$addressof@QAVMenuBase@@@std@@YAPBQAVMenuBase@@ABQAV1@@Z ; std::addressof<MenuBase * const>
; Function compile flags: /Ogsp
;	COMDAT ??$addressof@QAVMenuBase@@@std@@YAPBQAVMenuBase@@ABQAV1@@Z
_TEXT	SEGMENT
__Val$ = 8						; size = 4
??$addressof@QAVMenuBase@@@std@@YAPBQAVMenuBase@@ABQAV1@@Z PROC ; std::addressof<MenuBase * const>, COMDAT

; 110  : 	{	// return address of _Val

  00000	55		 push	 ebp
  00001	8b ec		 mov	 ebp, esp

; 111  : 	return ((_Ty *) &(char&)_Val);

  00003	8b 45 08	 mov	 eax, DWORD PTR __Val$[ebp]

; 112  : 	}

  00006	5d		 pop	 ebp
  00007	c3		 ret	 0
??$addressof@QAVMenuBase@@@std@@YAPBQAVMenuBase@@ABQAV1@@Z ENDP ; std::addressof<MenuBase * const>
_TEXT	ENDS
PUBLIC	__TI2?AVbad_alloc@std@@
PUBLIC	??$_Allocate@PAVMenuBase@@@std@@YAPAPAVMenuBase@@IPAPAV1@@Z ; std::_Allocate<MenuBase *>
PUBLIC	__CTA2?AVbad_alloc@std@@
PUBLIC	__CT??_R0?AVbad_alloc@std@@@8??0bad_alloc@std@@QAE@ABV01@@Z12
PUBLIC	??0bad_alloc@std@@QAE@ABV01@@Z			; std::bad_alloc::bad_alloc
PUBLIC	__CT??_R0?AVexception@std@@@8??0exception@std@@QAE@ABV01@@Z12
EXTRN	??2@YAPAXI@Z:PROC				; operator new
EXTRN	__CxxThrowException@8:PROC
EXTRN	??0exception@std@@QAE@ABV01@@Z:PROC		; std::exception::exception
;	COMDAT __CT??_R0?AVexception@std@@@8??0exception@std@@QAE@ABV01@@Z12
; File c:\program files (x86)\microsoft visual studio 10.0\vc\include\exception
xdata$x	SEGMENT
__CT??_R0?AVexception@std@@@8??0exception@std@@QAE@ABV01@@Z12 DD 00H
	DD	FLAT:??_R0?AVexception@std@@@8
	DD	00H
	DD	0ffffffffH
	ORG $+4
	DD	0cH
	DD	FLAT:??0exception@std@@QAE@ABV01@@Z
xdata$x	ENDS
;	COMDAT __CT??_R0?AVbad_alloc@std@@@8??0bad_alloc@std@@QAE@ABV01@@Z12
xdata$x	SEGMENT
__CT??_R0?AVbad_alloc@std@@@8??0bad_alloc@std@@QAE@ABV01@@Z12 DD 00H
	DD	FLAT:??_R0?AVbad_alloc@std@@@8
	DD	00H
	DD	0ffffffffH
	ORG $+4
	DD	0cH
	DD	FLAT:??0bad_alloc@std@@QAE@ABV01@@Z
xdata$x	ENDS
;	COMDAT __CTA2?AVbad_alloc@std@@
xdata$x	SEGMENT
__CTA2?AVbad_alloc@std@@ DD 02H
	DD	FLAT:__CT??_R0?AVbad_alloc@std@@@8??0bad_alloc@std@@QAE@ABV01@@Z12
	DD	FLAT:__CT??_R0?AVexception@std@@@8??0exception@std@@QAE@ABV01@@Z12
xdata$x	ENDS
;	COMDAT __TI2?AVbad_alloc@std@@
xdata$x	SEGMENT
__TI2?AVbad_alloc@std@@ DD 00H
	DD	FLAT:??1bad_alloc@std@@UAE@XZ
	DD	00H
	DD	FLAT:__CTA2?AVbad_alloc@std@@
; Function compile flags: /Ogsp
; File c:\program files (x86)\microsoft visual studio 10.0\vc\include\xmemory
xdata$x	ENDS
;	COMDAT ??$_Allocate@PAVMenuBase@@@std@@YAPAPAVMenuBase@@IPAPAV1@@Z
_TEXT	SEGMENT
$T563019 = -12						; size = 12
$T563024 = 8						; size = 4
__Count$ = 8						; size = 4
___formal$ = 12						; size = 4
??$_Allocate@PAVMenuBase@@@std@@YAPAPAVMenuBase@@IPAPAV1@@Z PROC ; std::_Allocate<MenuBase *>, COMDAT

; 30   : 	{	// allocate storage for _Count elements of type _Ty

  00000	55		 push	 ebp
  00001	8b ec		 mov	 ebp, esp

; 31   : 	void *_Ptr = 0;
; 32   : 
; 33   : 	if (_Count <= 0)

  00003	8b 4d 08	 mov	 ecx, DWORD PTR __Count$[ebp]
  00006	83 ec 0c	 sub	 esp, 12			; 0000000cH
  00009	33 c0		 xor	 eax, eax
  0000b	85 c9		 test	 ecx, ecx

; 34   : 		_Count = 0;
; 35   : 	else if (((_SIZT)(-1) / sizeof (_Ty) < _Count)

  0000d	74 3e		 je	 SHORT $LN5@Allocate

; 36   : 		|| (_Ptr = ::operator new(_Count * sizeof (_Ty))) == 0)

  0000f	81 f9 ff ff ff
	3f		 cmp	 ecx, 1073741823		; 3fffffffH
  00015	77 10		 ja	 SHORT $LN1@Allocate
  00017	8b c1		 mov	 eax, ecx
  00019	c1 e0 02	 shl	 eax, 2
  0001c	50		 push	 eax
  0001d	e8 00 00 00 00	 call	 ??2@YAPAXI@Z		; operator new
  00022	59		 pop	 ecx
  00023	85 c0		 test	 eax, eax

; 38   : 
; 39   : 	return ((_Ty _FARQ *)_Ptr);

  00025	75 26		 jne	 SHORT $LN5@Allocate
$LN1@Allocate:

; 37   : 		_THROW_NCEE(bad_alloc, 0);

  00027	83 65 08 00	 and	 DWORD PTR $T563024[ebp], 0
  0002b	8d 45 08	 lea	 eax, DWORD PTR $T563024[ebp]
  0002e	50		 push	 eax
  0002f	8d 4d f4	 lea	 ecx, DWORD PTR $T563019[ebp]
  00032	ff 15 00 00 00
	00		 call	 DWORD PTR __imp_??0exception@std@@QAE@ABQBD@Z
  00038	68 00 00 00 00	 push	 OFFSET __TI2?AVbad_alloc@std@@
  0003d	8d 45 f4	 lea	 eax, DWORD PTR $T563019[ebp]
  00040	50		 push	 eax
  00041	c7 45 f4 00 00
	00 00		 mov	 DWORD PTR $T563019[ebp], OFFSET ??_7bad_alloc@std@@6B@
  00048	e8 00 00 00 00	 call	 __CxxThrowException@8
$LN10@Allocate:
$LN5@Allocate:

; 40   : 	}

  0004d	c9		 leave
  0004e	c3		 ret	 0
$LN9@Allocate:
??$_Allocate@PAVMenuBase@@@std@@YAPAPAVMenuBase@@IPAPAV1@@Z ENDP ; std::_Allocate<MenuBase *>
_TEXT	ENDS
PUBLIC	??$forward@AAPAVMenuBase@@@std@@YAAAPAVMenuBase@@AAPAV1@@Z ; std::forward<MenuBase * &>
; Function compile flags: /Ogsp
; File c:\program files (x86)\microsoft visual studio 10.0\vc\include\utility
;	COMDAT ??$forward@AAPAVMenuBase@@@std@@YAAAPAVMenuBase@@AAPAV1@@Z
_TEXT	SEGMENT
__Arg$ = 8						; size = 4
??$forward@AAPAVMenuBase@@@std@@YAAAPAVMenuBase@@AAPAV1@@Z PROC ; std::forward<MenuBase * &>, COMDAT

; 78   : 	{	// forward _Arg, given explicitly specified type parameter

  00000	55		 push	 ebp
  00001	8b ec		 mov	 ebp, esp

; 79   : 	return ((_Ty&&)_Arg);

  00003	8b 45 08	 mov	 eax, DWORD PTR __Arg$[ebp]

; 80   : 	}

  00006	5d		 pop	 ebp
  00007	c3		 ret	 0
??$forward@AAPAVMenuBase@@@std@@YAAAPAVMenuBase@@AAPAV1@@Z ENDP ; std::forward<MenuBase * &>
_TEXT	ENDS
PUBLIC	??$construct@AAPAVMenuBase@@@?$allocator@PAVMenuBase@@@std@@QAEXPAPAVMenuBase@@AAPAV2@@Z ; std::allocator<MenuBase *>::construct<MenuBase * &>
; Function compile flags: /Ogsp
; File c:\program files (x86)\microsoft visual studio 10.0\vc\include\xmemory
;	COMDAT ??$construct@AAPAVMenuBase@@@?$allocator@PAVMenuBase@@@std@@QAEXPAPAVMenuBase@@AAPAV2@@Z
_TEXT	SEGMENT
__Ptr$ = 8						; size = 4
__Val$ = 12						; size = 4
??$construct@AAPAVMenuBase@@@?$allocator@PAVMenuBase@@@std@@QAEXPAPAVMenuBase@@AAPAV2@@Z PROC ; std::allocator<MenuBase *>::construct<MenuBase * &>, COMDAT
; _this$ = ecx

; 206  : 		void construct(pointer _Ptr, _Other&& _Val)

  00000	55		 push	 ebp
  00001	8b ec		 mov	 ebp, esp

; 207  : 		{	// construct object at _Ptr with value _Val
; 208  : 		::new ((void _FARQ *)_Ptr) _Ty(_STD forward<_Other>(_Val));

  00003	8b 45 08	 mov	 eax, DWORD PTR __Ptr$[ebp]
  00006	85 c0		 test	 eax, eax
  00008	74 07		 je	 SHORT $LN3@construct
  0000a	8b 4d 0c	 mov	 ecx, DWORD PTR __Val$[ebp]
  0000d	8b 09		 mov	 ecx, DWORD PTR [ecx]
  0000f	89 08		 mov	 DWORD PTR [eax], ecx
$LN3@construct:

; 209  : 		}

  00011	5d		 pop	 ebp
  00012	c2 08 00	 ret	 8
??$construct@AAPAVMenuBase@@@?$allocator@PAVMenuBase@@@std@@QAEXPAPAVMenuBase@@AAPAV2@@Z ENDP ; std::allocator<MenuBase *>::construct<MenuBase * &>
_TEXT	ENDS
PUBLIC	??$forward@ABQAVMenuBase@@@std@@YAABQAVMenuBase@@ABQAV1@@Z ; std::forward<MenuBase * const &>
; Function compile flags: /Ogsp
; File c:\program files (x86)\microsoft visual studio 10.0\vc\include\utility
;	COMDAT ??$forward@ABQAVMenuBase@@@std@@YAABQAVMenuBase@@ABQAV1@@Z
_TEXT	SEGMENT
__Arg$ = 8						; size = 4
??$forward@ABQAVMenuBase@@@std@@YAABQAVMenuBase@@ABQAV1@@Z PROC ; std::forward<MenuBase * const &>, COMDAT

; 78   : 	{	// forward _Arg, given explicitly specified type parameter

  00000	55		 push	 ebp
  00001	8b ec		 mov	 ebp, esp

; 79   : 	return ((_Ty&&)_Arg);

  00003	8b 45 08	 mov	 eax, DWORD PTR __Arg$[ebp]

; 80   : 	}

  00006	5d		 pop	 ebp
  00007	c3		 ret	 0
??$forward@ABQAVMenuBase@@@std@@YAABQAVMenuBase@@ABQAV1@@Z ENDP ; std::forward<MenuBase * const &>
_TEXT	ENDS
PUBLIC	??$_Ptr_cat@PAVMenuBase@@PAV1@@std@@YA?AU_Scalar_ptr_iterator_tag@0@PAPAVMenuBase@@0@Z ; std::_Ptr_cat<MenuBase *,MenuBase *>
; Function compile flags: /Ogsp
; File c:\program files (x86)\microsoft visual studio 10.0\vc\include\xutility
;	COMDAT ??$_Ptr_cat@PAVMenuBase@@PAV1@@std@@YA?AU_Scalar_ptr_iterator_tag@0@PAPAVMenuBase@@0@Z
_TEXT	SEGMENT
__Cat$ = -1						; size = 1
___formal$ = 8						; size = 4
___formal$ = 12						; size = 4
??$_Ptr_cat@PAVMenuBase@@PAV1@@std@@YA?AU_Scalar_ptr_iterator_tag@0@PAPAVMenuBase@@0@Z PROC ; std::_Ptr_cat<MenuBase *,MenuBase *>, COMDAT

; 516  : 	{	// return pointer category from pointers

  00000	55		 push	 ebp
  00001	8b ec		 mov	 ebp, esp
  00003	51		 push	 ecx

; 517  : 	typename _Ptr_cat_helper<_Elem1, _Elem2>::_Type _Cat;
; 518  : 	return (_Cat);

  00004	8a 45 ff	 mov	 al, BYTE PTR __Cat$[ebp]

; 519  : 	}

  00007	c9		 leave
  00008	c3		 ret	 0
??$_Ptr_cat@PAVMenuBase@@PAV1@@std@@YA?AU_Scalar_ptr_iterator_tag@0@PAPAVMenuBase@@0@Z ENDP ; std::_Ptr_cat<MenuBase *,MenuBase *>
_TEXT	ENDS
PUBLIC	??$_Destroy_range@V?$allocator@PAVMenuBase@@@std@@@std@@YAXPAPAVMenuBase@@0AAV?$allocator@PAVMenuBase@@@0@U_Scalar_ptr_iterator_tag@0@@Z ; std::_Destroy_range<std::allocator<MenuBase *> >
; Function compile flags: /Ogsp
; File c:\program files (x86)\microsoft visual studio 10.0\vc\include\xmemory
;	COMDAT ??$_Destroy_range@V?$allocator@PAVMenuBase@@@std@@@std@@YAXPAPAVMenuBase@@0AAV?$allocator@PAVMenuBase@@@0@U_Scalar_ptr_iterator_tag@0@@Z
_TEXT	SEGMENT
__First$ = 8						; size = 4
__Last$ = 12						; size = 4
__Al$ = 16						; size = 4
___formal$ = 20						; size = 1
??$_Destroy_range@V?$allocator@PAVMenuBase@@@std@@@std@@YAXPAPAVMenuBase@@0AAV?$allocator@PAVMenuBase@@@0@U_Scalar_ptr_iterator_tag@0@@Z PROC ; std::_Destroy_range<std::allocator<MenuBase *> >, COMDAT

; 105  : 	}

  00000	c3		 ret	 0
??$_Destroy_range@V?$allocator@PAVMenuBase@@@std@@@std@@YAXPAPAVMenuBase@@0AAV?$allocator@PAVMenuBase@@@0@U_Scalar_ptr_iterator_tag@0@@Z ENDP ; std::_Destroy_range<std::allocator<MenuBase *> >
_TEXT	ENDS
PUBLIC	??$_Construct@PAVMenuBase@@ABQAV1@@std@@YAXPAPAVMenuBase@@ABQAV1@@Z ; std::_Construct<MenuBase *,MenuBase * const &>
; Function compile flags: /Ogsp
;	COMDAT ??$_Construct@PAVMenuBase@@ABQAV1@@std@@YAXPAPAVMenuBase@@ABQAV1@@Z
_TEXT	SEGMENT
__Ptr$ = 8						; size = 4
__Val$ = 12						; size = 4
??$_Construct@PAVMenuBase@@ABQAV1@@std@@YAXPAPAVMenuBase@@ABQAV1@@Z PROC ; std::_Construct<MenuBase *,MenuBase * const &>, COMDAT

; 46   : 	{	// construct object at _Ptr with value _Val

  00000	55		 push	 ebp
  00001	8b ec		 mov	 ebp, esp

; 47   : 	void _FARQ *_Vptr = _Ptr;
; 48   : 	::new (_Vptr) _Ty1(_STD forward<_Ty2>(_Val));

  00003	8b 45 08	 mov	 eax, DWORD PTR __Ptr$[ebp]
  00006	85 c0		 test	 eax, eax
  00008	74 07		 je	 SHORT $LN3@Construct
  0000a	8b 4d 0c	 mov	 ecx, DWORD PTR __Val$[ebp]
  0000d	8b 09		 mov	 ecx, DWORD PTR [ecx]
  0000f	89 08		 mov	 DWORD PTR [eax], ecx
$LN3@Construct:

; 49   : 	}

  00011	5d		 pop	 ebp
  00012	c3		 ret	 0
??$_Construct@PAVMenuBase@@ABQAV1@@std@@YAXPAPAVMenuBase@@ABQAV1@@Z ENDP ; std::_Construct<MenuBase *,MenuBase * const &>
_TEXT	ENDS
PUBLIC	??$_Val_type@PAPAVMenuBase@@@std@@YAPAPAVMenuBase@@PAPAV1@@Z ; std::_Val_type<MenuBase * *>
; Function compile flags: /Ogsp
; File c:\program files (x86)\microsoft visual studio 10.0\vc\include\xutility
;	COMDAT ??$_Val_type@PAPAVMenuBase@@@std@@YAPAPAVMenuBase@@PAPAV1@@Z
_TEXT	SEGMENT
___formal$ = 8						; size = 4
??$_Val_type@PAPAVMenuBase@@@std@@YAPAPAVMenuBase@@PAPAV1@@Z PROC ; std::_Val_type<MenuBase * *>, COMDAT

; 790  : 	return (0);

  00000	33 c0		 xor	 eax, eax

; 791  : 	}

  00002	c3		 ret	 0
??$_Val_type@PAPAVMenuBase@@@std@@YAPAPAVMenuBase@@PAPAV1@@Z ENDP ; std::_Val_type<MenuBase * *>
_TEXT	ENDS
PUBLIC	??$_Uninit_move@PAVMenuBase@@PAV1@PAV1@@std@@YAPAPAVMenuBase@@PAPAV1@00AAV?$allocator@PAVMenuBase@@@0@0U_Scalar_ptr_iterator_tag@0@@Z ; std::_Uninit_move<MenuBase *,MenuBase *,MenuBase *>
EXTRN	__imp__memmove:PROC
; Function compile flags: /Ogsp
; File c:\program files (x86)\microsoft visual studio 10.0\vc\include\memory
;	COMDAT ??$_Uninit_move@PAVMenuBase@@PAV1@PAV1@@std@@YAPAPAVMenuBase@@PAPAV1@00AAV?$allocator@PAVMenuBase@@@0@0U_Scalar_ptr_iterator_tag@0@@Z
_TEXT	SEGMENT
__First$ = 8						; size = 4
__Last$ = 12						; size = 4
__Dest$ = 16						; size = 4
___formal$ = 20						; size = 4
___formal$ = 24						; size = 4
___formal$ = 28						; size = 1
??$_Uninit_move@PAVMenuBase@@PAV1@PAV1@@std@@YAPAPAVMenuBase@@PAPAV1@00AAV?$allocator@PAVMenuBase@@@0@0U_Scalar_ptr_iterator_tag@0@@Z PROC ; std::_Uninit_move<MenuBase *,MenuBase *,MenuBase *>, COMDAT

; 456  : 	{	// move [_First, _Last) to raw _Dest, scalar type

  00000	55		 push	 ebp
  00001	8b ec		 mov	 ebp, esp
  00003	56		 push	 esi

; 457  : 	_DEBUG_RANGE(_First, _Last);
; 458  : 	_DEBUG_POINTER(_Dest);
; 459  : 	size_t _Count = (size_t)(_Last - _First);

  00004	8b 75 0c	 mov	 esi, DWORD PTR __Last$[ebp]
  00007	2b 75 08	 sub	 esi, DWORD PTR __First$[ebp]
  0000a	c1 fe 02	 sar	 esi, 2

; 460  : 	return ((_Ty2 *)_CSTD memmove(&*_Dest, &*_First,
; 461  : 		_Count * sizeof (*_First)) + _Count);	// NB: non-overlapping move

  0000d	c1 e6 02	 shl	 esi, 2
  00010	56		 push	 esi
  00011	ff 75 08	 push	 DWORD PTR __First$[ebp]
  00014	ff 75 10	 push	 DWORD PTR __Dest$[ebp]
  00017	ff 15 00 00 00
	00		 call	 DWORD PTR __imp__memmove
  0001d	83 c4 0c	 add	 esp, 12			; 0000000cH
  00020	03 c6		 add	 eax, esi
  00022	5e		 pop	 esi

; 462  : 	}

  00023	5d		 pop	 ebp
  00024	c3		 ret	 0
??$_Uninit_move@PAVMenuBase@@PAV1@PAV1@@std@@YAPAPAVMenuBase@@PAPAV1@00AAV?$allocator@PAVMenuBase@@@0@0U_Scalar_ptr_iterator_tag@0@@Z ENDP ; std::_Uninit_move<MenuBase *,MenuBase *,MenuBase *>
_TEXT	ENDS
PUBLIC	??_H@YGXPAXIHP6EPAX0@Z@Z			; `vector constructor iterator'
; Function compile flags: /Ogsp
;	COMDAT ??_H@YGXPAXIHP6EPAX0@Z@Z
_TEXT	SEGMENT
___t$ = 8						; size = 4
___s$ = 12						; size = 4
___n$ = 16						; size = 4
___f$ = 20						; size = 4
??_H@YGXPAXIHP6EPAX0@Z@Z PROC				; `vector constructor iterator', COMDAT
  00000	55		 push	 ebp
  00001	8b ec		 mov	 ebp, esp
  00003	ff 4d 10	 dec	 DWORD PTR ___n$[ebp]
  00006	78 12		 js	 SHORT $LN1@vector
  00008	56		 push	 esi
  00009	8b 75 08	 mov	 esi, DWORD PTR ___t$[ebp]
$LL2@vector:
  0000c	8b ce		 mov	 ecx, esi
  0000e	ff 55 14	 call	 DWORD PTR ___f$[ebp]
  00011	03 75 0c	 add	 esi, DWORD PTR ___s$[ebp]
  00014	ff 4d 10	 dec	 DWORD PTR ___n$[ebp]
  00017	79 f3		 jns	 SHORT $LL2@vector
  00019	5e		 pop	 esi
$LN1@vector:
  0001a	5d		 pop	 ebp
  0001b	c2 10 00	 ret	 16			; 00000010H
??_H@YGXPAXIHP6EPAX0@Z@Z ENDP				; `vector constructor iterator'
_TEXT	ENDS
PUBLIC	?GetDays@CTimeSpan@ATL@@QBE_JXZ			; ATL::CTimeSpan::GetDays
EXTRN	__alldiv:PROC
; Function compile flags: /Ogsp
; File c:\program files (x86)\microsoft visual studio 10.0\vc\atlmfc\include\atltime.inl
;	COMDAT ?GetDays@CTimeSpan@ATL@@QBE_JXZ
_TEXT	SEGMENT
?GetDays@CTimeSpan@ATL@@QBE_JXZ PROC			; ATL::CTimeSpan::GetDays, COMDAT
; _this$ = ecx

; 47   : 	return( m_timeSpan/(24*3600) );

  00000	6a 00		 push	 0
  00002	68 80 51 01 00	 push	 86400			; 00015180H
  00007	ff 71 04	 push	 DWORD PTR [ecx+4]
  0000a	ff 31		 push	 DWORD PTR [ecx]
  0000c	e8 00 00 00 00	 call	 __alldiv

; 48   : }

  00011	c3		 ret	 0
?GetDays@CTimeSpan@ATL@@QBE_JXZ ENDP			; ATL::CTimeSpan::GetDays
_TEXT	ENDS
PUBLIC	?GetTotalHours@CTimeSpan@ATL@@QBE_JXZ		; ATL::CTimeSpan::GetTotalHours
; Function compile flags: /Ogsp
;	COMDAT ?GetTotalHours@CTimeSpan@ATL@@QBE_JXZ
_TEXT	SEGMENT
?GetTotalHours@CTimeSpan@ATL@@QBE_JXZ PROC		; ATL::CTimeSpan::GetTotalHours, COMDAT
; _this$ = ecx

; 52   : 	return( m_timeSpan/3600 );

  00000	6a 00		 push	 0
  00002	68 10 0e 00 00	 push	 3600			; 00000e10H
  00007	ff 71 04	 push	 DWORD PTR [ecx+4]
  0000a	ff 31		 push	 DWORD PTR [ecx]
  0000c	e8 00 00 00 00	 call	 __alldiv

; 53   : }

  00011	c3		 ret	 0
?GetTotalHours@CTimeSpan@ATL@@QBE_JXZ ENDP		; ATL::CTimeSpan::GetTotalHours
_TEXT	ENDS
PUBLIC	?GetHours@CTimeSpan@ATL@@QBEJXZ			; ATL::CTimeSpan::GetHours
; Function compile flags: /Ogsp
;	COMDAT ?GetHours@CTimeSpan@ATL@@QBEJXZ
_TEXT	SEGMENT
?GetHours@CTimeSpan@ATL@@QBEJXZ PROC			; ATL::CTimeSpan::GetHours, COMDAT
; _this$ = ecx

; 56   : {

  00000	53		 push	 ebx
  00001	56		 push	 esi

; 57   : 	return( LONG( GetTotalHours()-(GetDays()*24) ) );

  00002	8b 31		 mov	 esi, DWORD PTR [ecx]
  00004	57		 push	 edi
  00005	8b 79 04	 mov	 edi, DWORD PTR [ecx+4]
  00008	6a 00		 push	 0
  0000a	68 80 51 01 00	 push	 86400			; 00015180H
  0000f	57		 push	 edi
  00010	56		 push	 esi
  00011	e8 00 00 00 00	 call	 __alldiv
  00016	6a 00		 push	 0
  00018	68 10 0e 00 00	 push	 3600			; 00000e10H
  0001d	57		 push	 edi
  0001e	8b d8		 mov	 ebx, eax
  00020	56		 push	 esi
  00021	6b db 18	 imul	 ebx, 24			; 00000018H
  00024	e8 00 00 00 00	 call	 __alldiv
  00029	5f		 pop	 edi
  0002a	5e		 pop	 esi
  0002b	2b c3		 sub	 eax, ebx
  0002d	5b		 pop	 ebx

; 58   : }

  0002e	c3		 ret	 0
?GetHours@CTimeSpan@ATL@@QBEJXZ ENDP			; ATL::CTimeSpan::GetHours
_TEXT	ENDS
PUBLIC	?GetTotalMinutes@CTimeSpan@ATL@@QBE_JXZ		; ATL::CTimeSpan::GetTotalMinutes
; Function compile flags: /Ogsp
;	COMDAT ?GetTotalMinutes@CTimeSpan@ATL@@QBE_JXZ
_TEXT	SEGMENT
?GetTotalMinutes@CTimeSpan@ATL@@QBE_JXZ PROC		; ATL::CTimeSpan::GetTotalMinutes, COMDAT
; _this$ = ecx

; 62   : 	return( m_timeSpan/60 );

  00000	6a 00		 push	 0
  00002	6a 3c		 push	 60			; 0000003cH
  00004	ff 71 04	 push	 DWORD PTR [ecx+4]
  00007	ff 31		 push	 DWORD PTR [ecx]
  00009	e8 00 00 00 00	 call	 __alldiv

; 63   : }

  0000e	c3		 ret	 0
?GetTotalMinutes@CTimeSpan@ATL@@QBE_JXZ ENDP		; ATL::CTimeSpan::GetTotalMinutes
_TEXT	ENDS
PUBLIC	?GetMinutes@CTimeSpan@ATL@@QBEJXZ		; ATL::CTimeSpan::GetMinutes
; Function compile flags: /Ogsp
;	COMDAT ?GetMinutes@CTimeSpan@ATL@@QBEJXZ
_TEXT	SEGMENT
?GetMinutes@CTimeSpan@ATL@@QBEJXZ PROC			; ATL::CTimeSpan::GetMinutes, COMDAT
; _this$ = ecx

; 66   : {

  00000	53		 push	 ebx
  00001	56		 push	 esi

; 67   : 	return( LONG( GetTotalMinutes()-(GetTotalHours()*60) ) );

  00002	8b 31		 mov	 esi, DWORD PTR [ecx]
  00004	57		 push	 edi
  00005	8b 79 04	 mov	 edi, DWORD PTR [ecx+4]
  00008	6a 00		 push	 0
  0000a	68 10 0e 00 00	 push	 3600			; 00000e10H
  0000f	57		 push	 edi
  00010	56		 push	 esi
  00011	e8 00 00 00 00	 call	 __alldiv
  00016	6a 00		 push	 0
  00018	6a 3c		 push	 60			; 0000003cH
  0001a	57		 push	 edi
  0001b	8b d8		 mov	 ebx, eax
  0001d	56		 push	 esi
  0001e	6b db 3c	 imul	 ebx, 60			; 0000003cH
  00021	e8 00 00 00 00	 call	 __alldiv
  00026	5f		 pop	 edi
  00027	5e		 pop	 esi
  00028	2b c3		 sub	 eax, ebx
  0002a	5b		 pop	 ebx

; 68   : }

  0002b	c3		 ret	 0
?GetMinutes@CTimeSpan@ATL@@QBEJXZ ENDP			; ATL::CTimeSpan::GetMinutes
_TEXT	ENDS
PUBLIC	?GetTotalSeconds@CTimeSpan@ATL@@QBE_JXZ		; ATL::CTimeSpan::GetTotalSeconds
; Function compile flags: /Ogsp
;	COMDAT ?GetTotalSeconds@CTimeSpan@ATL@@QBE_JXZ
_TEXT	SEGMENT
?GetTotalSeconds@CTimeSpan@ATL@@QBE_JXZ PROC		; ATL::CTimeSpan::GetTotalSeconds, COMDAT
; _this$ = ecx

; 72   : 	return( m_timeSpan );

  00000	8b 01		 mov	 eax, DWORD PTR [ecx]
  00002	8b 51 04	 mov	 edx, DWORD PTR [ecx+4]

; 73   : }

  00005	c3		 ret	 0
?GetTotalSeconds@CTimeSpan@ATL@@QBE_JXZ ENDP		; ATL::CTimeSpan::GetTotalSeconds
_TEXT	ENDS
PUBLIC	?GetSeconds@CTimeSpan@ATL@@QBEJXZ		; ATL::CTimeSpan::GetSeconds
; Function compile flags: /Ogsp
;	COMDAT ?GetSeconds@CTimeSpan@ATL@@QBEJXZ
_TEXT	SEGMENT
?GetSeconds@CTimeSpan@ATL@@QBEJXZ PROC			; ATL::CTimeSpan::GetSeconds, COMDAT
; _this$ = ecx

; 76   : {

  00000	56		 push	 esi

; 77   : 	return( LONG( GetTotalSeconds()-(GetTotalMinutes()*60) ) );

  00001	8b 31		 mov	 esi, DWORD PTR [ecx]
  00003	8b 49 04	 mov	 ecx, DWORD PTR [ecx+4]
  00006	6a 00		 push	 0
  00008	6a 3c		 push	 60			; 0000003cH
  0000a	51		 push	 ecx
  0000b	56		 push	 esi
  0000c	e8 00 00 00 00	 call	 __alldiv
  00011	8b c8		 mov	 ecx, eax
  00013	6b c9 3c	 imul	 ecx, 60			; 0000003cH
  00016	8b c6		 mov	 eax, esi
  00018	2b c1		 sub	 eax, ecx
  0001a	5e		 pop	 esi

; 78   : }

  0001b	c3		 ret	 0
?GetSeconds@CTimeSpan@ATL@@QBEJXZ ENDP			; ATL::CTimeSpan::GetSeconds
_TEXT	ENDS
PUBLIC	?_DECSTR@@YAXPADH@Z				; _DECSTR
; Function compile flags: /Ogsp
; File d:\lost saga for developer\youtube\tutorial\source\src\lsclient\stringprotect.h
;	COMDAT ?_DECSTR@@YAXPADH@Z
_TEXT	SEGMENT
_s$ = 8							; size = 4
_l$ = 12						; size = 4
?_DECSTR@@YAXPADH@Z PROC				; _DECSTR, COMDAT

; 40   : __forceinline void _DECSTR(char* s, int l){int i=0,l4=(l-1)/4,*p=(int*)s;s[l-1]=0;for(;i<l4;++i)*(p++)^=0xEAEBECED;for(i=l4*4;i<l-1;++i)s[i]^=0xED-i%4;}

  00000	55		 push	 ebp
  00001	8b ec		 mov	 ebp, esp
  00003	8b 4d 0c	 mov	 ecx, DWORD PTR _l$[ebp]
  00006	56		 push	 esi
  00007	8b 75 08	 mov	 esi, DWORD PTR _s$[ebp]
  0000a	57		 push	 edi
  0000b	8d 79 ff	 lea	 edi, DWORD PTR [ecx-1]
  0000e	8b c7		 mov	 eax, edi
  00010	99		 cdq
  00011	83 e2 03	 and	 edx, 3
  00014	03 c2		 add	 eax, edx
  00016	c1 f8 02	 sar	 eax, 2
  00019	8b d6		 mov	 edx, esi
  0001b	c6 44 0e ff 00	 mov	 BYTE PTR [esi+ecx-1], 0
  00020	85 c0		 test	 eax, eax
  00022	7e 0e		 jle	 SHORT $LN4@DECSTR
  00024	8b c8		 mov	 ecx, eax
$LL6@DECSTR:
  00026	81 32 ed ec eb
	ea		 xor	 DWORD PTR [edx], -353637139 ; eaebecedH
  0002c	83 c2 04	 add	 edx, 4
  0002f	49		 dec	 ecx
  00030	75 f4		 jne	 SHORT $LL6@DECSTR
$LN4@DECSTR:
  00032	c1 e0 02	 shl	 eax, 2
  00035	eb 17		 jmp	 SHORT $LN14@DECSTR
$LL3@DECSTR:
  00037	8b c8		 mov	 ecx, eax
  00039	81 e1 03 00 00
	80		 and	 ecx, -2147483645	; 80000003H
  0003f	79 05		 jns	 SHORT $LN13@DECSTR
  00041	49		 dec	 ecx
  00042	83 c9 fc	 or	 ecx, -4			; fffffffcH
  00045	41		 inc	 ecx
$LN13@DECSTR:
  00046	b2 ed		 mov	 dl, -19			; ffffffedH
  00048	2a d1		 sub	 dl, cl
  0004a	30 14 30	 xor	 BYTE PTR [eax+esi], dl
  0004d	40		 inc	 eax
$LN14@DECSTR:
  0004e	3b c7		 cmp	 eax, edi
  00050	7c e5		 jl	 SHORT $LL3@DECSTR
  00052	5f		 pop	 edi
  00053	5e		 pop	 esi
  00054	5d		 pop	 ebp
  00055	c3		 ret	 0
?_DECSTR@@YAXPADH@Z ENDP				; _DECSTR
_TEXT	ENDS
PUBLIC	?GetFullWidth@ioComplexStringPrinter@@QBEMXZ	; ioComplexStringPrinter::GetFullWidth
; Function compile flags: /Ogsp
; File d:\lost saga for developer\youtube\tutorial\source\src\lsclient\iocomplexstringprinter.h
;	COMDAT ?GetFullWidth@ioComplexStringPrinter@@QBEMXZ
_TEXT	SEGMENT
?GetFullWidth@ioComplexStringPrinter@@QBEMXZ PROC	; ioComplexStringPrinter::GetFullWidth, COMDAT
; _this$ = ecx

; 125  : 	inline float GetFullWidth() const { return m_fFullWidth; }

  00000	d9 41 1c	 fld	 DWORD PTR [ecx+28]
  00003	c3		 ret	 0
?GetFullWidth@ioComplexStringPrinter@@QBEMXZ ENDP	; ioComplexStringPrinter::GetFullWidth
_TEXT	ENDS
PUBLIC	?GetMouse@ioApplication@@QAEPAVioLSMouse@@XZ	; ioApplication::GetMouse
; Function compile flags: /Ogsp
; File d:\lost saga for developer\youtube\tutorial\source\src\lsclient\ioapplication.h
;	COMDAT ?GetMouse@ioApplication@@QAEPAVioLSMouse@@XZ
_TEXT	SEGMENT
?GetMouse@ioApplication@@QAEPAVioLSMouse@@XZ PROC	; ioApplication::GetMouse, COMDAT
; _this$ = ecx

; 796  : 	inline ioLSMouse* GetMouse(){ return &m_Mouse;	}

  00000	8d 81 90 00 00
	00		 lea	 eax, DWORD PTR [ecx+144]
  00006	c3		 ret	 0
?GetMouse@ioApplication@@QAEPAVioLSMouse@@XZ ENDP	; ioApplication::GetMouse
_TEXT	ENDS
PUBLIC	?GetConnectedMoveMode@ioApplication@@QAE?AW4ConnectedMoveMode@1@XZ ; ioApplication::GetConnectedMoveMode
; Function compile flags: /Ogsp
;	COMDAT ?GetConnectedMoveMode@ioApplication@@QAE?AW4ConnectedMoveMode@1@XZ
_TEXT	SEGMENT
?GetConnectedMoveMode@ioApplication@@QAE?AW4ConnectedMoveMode@1@XZ PROC ; ioApplication::GetConnectedMoveMode, COMDAT
; _this$ = ecx

; 1225 : 	inline ConnectedMoveMode GetConnectedMoveMode(){ return static_cast<ConnectedMoveMode>( m_eConnectedMoveMode ); }

  00000	8b 81 ac 06 00
	00		 mov	 eax, DWORD PTR [ecx+1708]
  00006	c3		 ret	 0
?GetConnectedMoveMode@ioApplication@@QAE?AW4ConnectedMoveMode@1@XZ ENDP ; ioApplication::GetConnectedMoveMode
_TEXT	ENDS
PUBLIC	??0ETCITEMSLOT@ioUserEtcItem@@QAE@XZ		; ioUserEtcItem::ETCITEMSLOT::ETCITEMSLOT
; Function compile flags: /Ogsp
; File d:\lost saga for developer\youtube\tutorial\source\src\lsclient\iouseretcitem.h
;	COMDAT ??0ETCITEMSLOT@ioUserEtcItem@@QAE@XZ
_TEXT	SEGMENT
??0ETCITEMSLOT@ioUserEtcItem@@QAE@XZ PROC		; ioUserEtcItem::ETCITEMSLOT::ETCITEMSLOT, COMDAT
; _this$ = ecx

; 22   : 		ETCITEMSLOT()

  00000	8b c1		 mov	 eax, ecx

; 23   : 		{
; 24   : 			m_iType   = 0;

  00002	33 c9		 xor	 ecx, ecx
  00004	89 08		 mov	 DWORD PTR [eax], ecx

; 25   : 			m_iValue1 = 0;

  00006	89 48 04	 mov	 DWORD PTR [eax+4], ecx

; 26   : 			m_iValue2 = 0;

  00009	89 48 08	 mov	 DWORD PTR [eax+8], ecx

; 27   : 		}

  0000c	c3		 ret	 0
??0ETCITEMSLOT@ioUserEtcItem@@QAE@XZ ENDP		; ioUserEtcItem::ETCITEMSLOT::ETCITEMSLOT
_TEXT	ENDS
PUBLIC	?GetName@ioEtcItem@@QBEABVioHashString@@XZ	; ioEtcItem::GetName
; Function compile flags: /Ogsp
; File d:\lost saga for developer\youtube\tutorial\source\src\lsclient\ioetcitem.h
;	COMDAT ?GetName@ioEtcItem@@QBEABVioHashString@@XZ
_TEXT	SEGMENT
?GetName@ioEtcItem@@QBEABVioHashString@@XZ PROC		; ioEtcItem::GetName, COMDAT
; _this$ = ecx

; 465  : 	inline const ioHashString& GetName() const { return m_Name; }

  00000	8d 41 04	 lea	 eax, DWORD PTR [ecx+4]
  00003	c3		 ret	 0
?GetName@ioEtcItem@@QBEABVioHashString@@XZ ENDP		; ioEtcItem::GetName
_TEXT	ENDS
PUBLIC	?GetTotalItem@EventItemCounter@@QAEHXZ		; EventItemCounter::GetTotalItem
; Function compile flags: /Ogsp
; File d:\lost saga for developer\youtube\tutorial\source\src\lsclient\gui\shopeventitemcounter.h
;	COMDAT ?GetTotalItem@EventItemCounter@@QAEHXZ
_TEXT	SEGMENT
?GetTotalItem@EventItemCounter@@QAEHXZ PROC		; EventItemCounter::GetTotalItem, COMDAT
; _this$ = ecx

; 34   : 	int GetTotalItem()		{ return m_nSoldierItem + m_nExtraItem + m_nDecoItem + m_nCostumeItem + m_nEtcItem; }

  00000	8b 41 14	 mov	 eax, DWORD PTR [ecx+20]
  00003	03 41 0c	 add	 eax, DWORD PTR [ecx+12]
  00006	03 41 08	 add	 eax, DWORD PTR [ecx+8]
  00009	03 41 04	 add	 eax, DWORD PTR [ecx+4]
  0000c	03 01		 add	 eax, DWORD PTR [ecx]
  0000e	c3		 ret	 0
?GetTotalItem@EventItemCounter@@QAEHXZ ENDP		; EventItemCounter::GetTotalItem
_TEXT	ENDS
PUBLIC	?GetTotalEventItemCnt@NewShopWnd@@QAEHXZ	; NewShopWnd::GetTotalEventItemCnt
; Function compile flags: /Ogsp
; File d:\lost saga for developer\youtube\tutorial\source\src\lsclient\gui\newshopwnd.h
;	COMDAT ?GetTotalEventItemCnt@NewShopWnd@@QAEHXZ
_TEXT	SEGMENT
?GetTotalEventItemCnt@NewShopWnd@@QAEHXZ PROC		; NewShopWnd::GetTotalEventItemCnt, COMDAT
; _this$ = ecx

; 271  : 	int GetTotalEventItemCnt() { return m_EventItemCounter.GetTotalItem(); }

  00000	8b 81 ec 02 00
	00		 mov	 eax, DWORD PTR [ecx+748]
  00006	03 81 e4 02 00
	00		 add	 eax, DWORD PTR [ecx+740]
  0000c	03 81 e0 02 00
	00		 add	 eax, DWORD PTR [ecx+736]
  00012	03 81 dc 02 00
	00		 add	 eax, DWORD PTR [ecx+732]
  00018	03 81 d8 02 00
	00		 add	 eax, DWORD PTR [ecx+728]
  0001e	c3		 ret	 0
?GetTotalEventItemCnt@NewShopWnd@@QAEHXZ ENDP		; NewShopWnd::GetTotalEventItemCnt
_TEXT	ENDS
PUBLIC	?GetPublicID@ioMyInfo@@QBEABVioHashString@@XZ	; ioMyInfo::GetPublicID
; Function compile flags: /Ogsp
; File d:\lost saga for developer\youtube\tutorial\source\src\lsclient\iomyinfo.h
;	COMDAT ?GetPublicID@ioMyInfo@@QBEABVioHashString@@XZ
_TEXT	SEGMENT
?GetPublicID@ioMyInfo@@QBEABVioHashString@@XZ PROC	; ioMyInfo::GetPublicID, COMDAT
; _this$ = ecx

; 517  : 	const ioHashString& GetPublicID() const { return m_user_data.m_public_id; }    

  00000	8d 41 1c	 lea	 eax, DWORD PTR [ecx+28]
  00003	c3		 ret	 0
?GetPublicID@ioMyInfo@@QBEABVioHashString@@XZ ENDP	; ioMyInfo::GetPublicID
_TEXT	ENDS
PUBLIC	?GetUserEtcItem@ioMyInfo@@QAEPAVioUserEtcItem@@XZ ; ioMyInfo::GetUserEtcItem
; Function compile flags: /Ogsp
;	COMDAT ?GetUserEtcItem@ioMyInfo@@QAEPAVioUserEtcItem@@XZ
_TEXT	SEGMENT
?GetUserEtcItem@ioMyInfo@@QAEPAVioUserEtcItem@@XZ PROC	; ioMyInfo::GetUserEtcItem, COMDAT
; _this$ = ecx

; 635  : 	ioUserEtcItem* GetUserEtcItem() { return &m_UserEtcItem; }

  00000	8d 81 44 01 00
	00		 lea	 eax, DWORD PTR [ecx+324]
  00006	c3		 ret	 0
?GetUserEtcItem@ioMyInfo@@QAEPAVioUserEtcItem@@XZ ENDP	; ioMyInfo::GetUserEtcItem
_TEXT	ENDS
PUBLIC	?GetClover@ioMyInfo@@QAEPAVioClover@@XZ		; ioMyInfo::GetClover
; Function compile flags: /Ogsp
;	COMDAT ?GetClover@ioMyInfo@@QAEPAVioClover@@XZ
_TEXT	SEGMENT
?GetClover@ioMyInfo@@QAEPAVioClover@@XZ PROC		; ioMyInfo::GetClover, COMDAT
; _this$ = ecx

; 642  : 	ioClover* GetClover() { return &m_Clover; }

  00000	8d 81 8c 0a 00
	00		 lea	 eax, DWORD PTR [ecx+2700]
  00006	c3		 ret	 0
?GetClover@ioMyInfo@@QAEPAVioClover@@XZ ENDP		; ioMyInfo::GetClover
_TEXT	ENDS
PUBLIC	?GetUserPet@ioMyInfo@@QAEPAVioUserPet@@XZ	; ioMyInfo::GetUserPet
; Function compile flags: /Ogsp
;	COMDAT ?GetUserPet@ioMyInfo@@QAEPAVioUserPet@@XZ
_TEXT	SEGMENT
?GetUserPet@ioMyInfo@@QAEPAVioUserPet@@XZ PROC		; ioMyInfo::GetUserPet, COMDAT
; _this$ = ecx

; 644  : 	ioUserPet* GetUserPet() { return &m_UserPet; }

  00000	8d 81 c0 02 00
	00		 lea	 eax, DWORD PTR [ecx+704]
  00006	c3		 ret	 0
?GetUserPet@ioMyInfo@@QAEPAVioUserPet@@XZ ENDP		; ioMyInfo::GetUserPet
_TEXT	ENDS
PUBLIC	?GetEntryType@ioMyInfo@@QBE?AW4EntryType@@XZ	; ioMyInfo::GetEntryType
; Function compile flags: /Ogsp
;	COMDAT ?GetEntryType@ioMyInfo@@QBE?AW4EntryType@@XZ
_TEXT	SEGMENT
?GetEntryType@ioMyInfo@@QBE?AW4EntryType@@XZ PROC	; ioMyInfo::GetEntryType, COMDAT
; _this$ = ecx

; 816  : 	EntryType GetEntryType() const { return m_user_data.m_eEntryType; }

  00000	8b 41 5c	 mov	 eax, DWORD PTR [ecx+92]
  00003	c3		 ret	 0
?GetEntryType@ioMyInfo@@QBE?AW4EntryType@@XZ ENDP	; ioMyInfo::GetEntryType
_TEXT	ENDS
PUBLIC	?GetGuildIndex@ioGuildInfo@@QAEKXZ		; ioGuildInfo::GetGuildIndex
; Function compile flags: /Ogsp
; File d:\lost saga for developer\youtube\tutorial\source\src\lsclient\ioguildinfo.h
;	COMDAT ?GetGuildIndex@ioGuildInfo@@QAEKXZ
_TEXT	SEGMENT
?GetGuildIndex@ioGuildInfo@@QAEKXZ PROC			; ioGuildInfo::GetGuildIndex, COMDAT
; _this$ = ecx

; 302  : 	inline DWORD GetGuildIndex(){ return m_dwGuildIndex; }

  00000	8b 81 90 00 00
	00		 mov	 eax, DWORD PTR [ecx+144]
  00006	c3		 ret	 0
?GetGuildIndex@ioGuildInfo@@QAEKXZ ENDP			; ioGuildInfo::GetGuildIndex
_TEXT	ENDS
PUBLIC	?GetMasterName@ioHeadquartersMode@@QAEAAVioHashString@@XZ ; ioHeadquartersMode::GetMasterName
; Function compile flags: /Ogsp
; File d:\lost saga for developer\youtube\tutorial\source\src\lsclient\ioheadquartersmode.h
;	COMDAT ?GetMasterName@ioHeadquartersMode@@QAEAAVioHashString@@XZ
_TEXT	SEGMENT
?GetMasterName@ioHeadquartersMode@@QAEAAVioHashString@@XZ PROC ; ioHeadquartersMode::GetMasterName, COMDAT
; _this$ = ecx

; 193  : 	inline ioHashString &GetMasterName(){ return m_szMasterName; }

  00000	8d 81 f4 04 00
	00		 lea	 eax, DWORD PTR [ecx+1268]
  00006	c3		 ret	 0
?GetMasterName@ioHeadquartersMode@@QAEAAVioHashString@@XZ ENDP ; ioHeadquartersMode::GetMasterName
_TEXT	ENDS
PUBLIC	?GetMyRoomType@ioMyRoomMode@@SA?AW4MyRoomType@@XZ ; ioMyRoomMode::GetMyRoomType
EXTRN	?m_eMyRoomType@ioMyRoomMode@@1W4MyRoomType@@A:DWORD ; ioMyRoomMode::m_eMyRoomType
; Function compile flags: /Ogsp
; File d:\lost saga for developer\youtube\tutorial\source\src\lsclient\iomyroommode.h
;	COMDAT ?GetMyRoomType@ioMyRoomMode@@SA?AW4MyRoomType@@XZ
_TEXT	SEGMENT
?GetMyRoomType@ioMyRoomMode@@SA?AW4MyRoomType@@XZ PROC	; ioMyRoomMode::GetMyRoomType, COMDAT

; 194  : 	static MyRoomType GetMyRoomType(){ return m_eMyRoomType; }

  00000	a1 00 00 00 00	 mov	 eax, DWORD PTR ?m_eMyRoomType@ioMyRoomMode@@1W4MyRoomType@@A ; ioMyRoomMode::m_eMyRoomType
  00005	c3		 ret	 0
?GetMyRoomType@ioMyRoomMode@@SA?AW4MyRoomType@@XZ ENDP	; ioMyRoomMode::GetMyRoomType
_TEXT	ENDS
PUBLIC	?GetPreClickWnd@ioSP2GUIManager@@QAEPAVioWnd@@XZ ; ioSP2GUIManager::GetPreClickWnd
; Function compile flags: /Ogsp
; File d:\lost saga for developer\youtube\tutorial\source\src\lsclient\gui\iosp2guimanager.h
;	COMDAT ?GetPreClickWnd@ioSP2GUIManager@@QAEPAVioWnd@@XZ
_TEXT	SEGMENT
?GetPreClickWnd@ioSP2GUIManager@@QAEPAVioWnd@@XZ PROC	; ioSP2GUIManager::GetPreClickWnd, COMDAT
; _this$ = ecx

; 221  : 	ioWnd *GetPreClickWnd(){ return m_pPreClickWnd; }

  00000	8b 41 14	 mov	 eax, DWORD PTR [ecx+20]
  00003	c3		 ret	 0
?GetPreClickWnd@ioSP2GUIManager@@QAEPAVioWnd@@XZ ENDP	; ioSP2GUIManager::GetPreClickWnd
_TEXT	ENDS
PUBLIC	?size@?$vector@UPresentData@ioPresentMgr@@V?$allocator@UPresentData@ioPresentMgr@@@std@@@std@@QBEIXZ ; std::vector<ioPresentMgr::PresentData,std::allocator<ioPresentMgr::PresentData> >::size
; Function compile flags: /Ogsp
; File c:\program files (x86)\microsoft visual studio 10.0\vc\include\vector
;	COMDAT ?size@?$vector@UPresentData@ioPresentMgr@@V?$allocator@UPresentData@ioPresentMgr@@@std@@@std@@QBEIXZ
_TEXT	SEGMENT
?size@?$vector@UPresentData@ioPresentMgr@@V?$allocator@UPresentData@ioPresentMgr@@@std@@@std@@QBEIXZ PROC ; std::vector<ioPresentMgr::PresentData,std::allocator<ioPresentMgr::PresentData> >::size, COMDAT
; _this$ = ecx

; 879  : 		return (this->_Mylast - this->_Myfirst);

  00000	8b 41 04	 mov	 eax, DWORD PTR [ecx+4]
  00003	2b 01		 sub	 eax, DWORD PTR [ecx]
  00005	6a 34		 push	 52			; 00000034H
  00007	99		 cdq
  00008	59		 pop	 ecx
  00009	f7 f9		 idiv	 ecx

; 880  : 		}

  0000b	c3		 ret	 0
?size@?$vector@UPresentData@ioPresentMgr@@V?$allocator@UPresentData@ioPresentMgr@@@std@@@std@@QBEIXZ ENDP ; std::vector<ioPresentMgr::PresentData,std::allocator<ioPresentMgr::PresentData> >::size
_TEXT	ENDS
PUBLIC	?DecryptValueToPool@?$CEncrypt@K@@QAEXPAK@Z	; CEncrypt<unsigned long>::DecryptValueToPool
; Function compile flags: /Ogsp
; File d:\lost saga for developer\youtube\tutorial\source\src\lsclient\encryptvalue.h
;	COMDAT ?DecryptValueToPool@?$CEncrypt@K@@QAEXPAK@Z
_TEXT	SEGMENT
_value$ = 8						; size = 4
?DecryptValueToPool@?$CEncrypt@K@@QAEXPAK@Z PROC	; CEncrypt<unsigned long>::DecryptValueToPool, COMDAT
; _this$ = ecx

; 1256 : 	{

  00000	55		 push	 ebp
  00001	8b ec		 mov	 ebp, esp
  00003	56		 push	 esi

; 1257 : 		m_RC5.DecryptByte( m_MemPool, m_TempMem, 4 );

  00004	8d 71 28	 lea	 esi, DWORD PTR [ecx+40]
  00007	6a 04		 push	 4
  00009	8d 41 1c	 lea	 eax, DWORD PTR [ecx+28]
  0000c	56		 push	 esi
  0000d	50		 push	 eax
  0000e	83 c1 0c	 add	 ecx, 12			; 0000000cH
  00011	e8 00 00 00 00	 call	 ?DecryptByte@ccddaabb@@QBEXPBDPADH@Z ; ccddaabb::DecryptByte

; 1258 : 		*value = *((DWORD*)m_TempMem);

  00016	8b 06		 mov	 eax, DWORD PTR [esi]
  00018	8b 4d 08	 mov	 ecx, DWORD PTR _value$[ebp]
  0001b	89 01		 mov	 DWORD PTR [ecx], eax
  0001d	5e		 pop	 esi

; 1259 : 	}

  0001e	5d		 pop	 ebp
  0001f	c2 04 00	 ret	 4
?DecryptValueToPool@?$CEncrypt@K@@QAEXPAK@Z ENDP	; CEncrypt<unsigned long>::DecryptValueToPool
_TEXT	ENDS
PUBLIC	?DecryptValueToPool@?$CEncrypt@W4ModeType@@@@QAEXPAW4ModeType@@@Z ; CEncrypt<enum ModeType>::DecryptValueToPool
; Function compile flags: /Ogsp
;	COMDAT ?DecryptValueToPool@?$CEncrypt@W4ModeType@@@@QAEXPAW4ModeType@@@Z
_TEXT	SEGMENT
_value$ = 8						; size = 4
?DecryptValueToPool@?$CEncrypt@W4ModeType@@@@QAEXPAW4ModeType@@@Z PROC ; CEncrypt<enum ModeType>::DecryptValueToPool, COMDAT
; _this$ = ecx

; 3039 : 	{

  00000	55		 push	 ebp
  00001	8b ec		 mov	 ebp, esp
  00003	56		 push	 esi

; 3040 : 		m_RC5.DecryptByte( m_MemPool, m_TempMem, sizeof(ModeType) );

  00004	8d 71 28	 lea	 esi, DWORD PTR [ecx+40]
  00007	6a 04		 push	 4
  00009	8d 41 1c	 lea	 eax, DWORD PTR [ecx+28]
  0000c	56		 push	 esi
  0000d	50		 push	 eax
  0000e	83 c1 0c	 add	 ecx, 12			; 0000000cH
  00011	e8 00 00 00 00	 call	 ?DecryptByte@ccddaabb@@QBEXPBDPADH@Z ; ccddaabb::DecryptByte

; 3041 : 		*value = *((ModeType*)m_TempMem);

  00016	8b 06		 mov	 eax, DWORD PTR [esi]
  00018	8b 4d 08	 mov	 ecx, DWORD PTR _value$[ebp]
  0001b	89 01		 mov	 DWORD PTR [ecx], eax
  0001d	5e		 pop	 esi

; 3042 : 	}

  0001e	5d		 pop	 ebp
  0001f	c2 04 00	 ret	 4
?DecryptValueToPool@?$CEncrypt@W4ModeType@@@@QAEXPAW4ModeType@@@Z ENDP ; CEncrypt<enum ModeType>::DecryptValueToPool
_TEXT	ENDS
EXTRN	__imp_??0exception@std@@QAE@ABV01@@Z:PROC
; Function compile flags: /Ogsp
;	COMDAT ??0bad_alloc@std@@QAE@ABV01@@Z
_TEXT	SEGMENT
___that$ = 8						; size = 4
??0bad_alloc@std@@QAE@ABV01@@Z PROC			; std::bad_alloc::bad_alloc, COMDAT
; _this$ = ecx
  00000	55		 push	 ebp
  00001	8b ec		 mov	 ebp, esp
  00003	56		 push	 esi
  00004	ff 75 08	 push	 DWORD PTR ___that$[ebp]
  00007	8b f1		 mov	 esi, ecx
  00009	ff 15 00 00 00
	00		 call	 DWORD PTR __imp_??0exception@std@@QAE@ABV01@@Z
  0000f	c7 06 00 00 00
	00		 mov	 DWORD PTR [esi], OFFSET ??_7bad_alloc@std@@6B@
  00015	8b c6		 mov	 eax, esi
  00017	5e		 pop	 esi
  00018	5d		 pop	 ebp
  00019	c2 04 00	 ret	 4
??0bad_alloc@std@@QAE@ABV01@@Z ENDP			; std::bad_alloc::bad_alloc
_TEXT	ENDS
PUBLIC	?GetMaxSubscription@ioSubscriptionMgr@@QAEHXZ	; ioSubscriptionMgr::GetMaxSubscription
; Function compile flags: /Ogsp
; File d:\lost saga for developer\youtube\tutorial\source\src\lsclient\iosubscriptionmgr.h
;	COMDAT ?GetMaxSubscription@ioSubscriptionMgr@@QAEHXZ
_TEXT	SEGMENT
?GetMaxSubscription@ioSubscriptionMgr@@QAEHXZ PROC	; ioSubscriptionMgr::GetMaxSubscription, COMDAT
; _this$ = ecx

; 81   : 	int GetMaxSubscription() { return m_vSubscriptionList.size(); }

  00000	8b 41 08	 mov	 eax, DWORD PTR [ecx+8]
  00003	2b 41 04	 sub	 eax, DWORD PTR [ecx+4]
  00006	6a 30		 push	 48			; 00000030H
  00008	99		 cdq
  00009	59		 pop	 ecx
  0000a	f7 f9		 idiv	 ecx
  0000c	c3		 ret	 0
?GetMaxSubscription@ioSubscriptionMgr@@QAEHXZ ENDP	; ioSubscriptionMgr::GetMaxSubscription
; Function compile flags: /Ogsp
_TEXT	ENDS
;	COMDAT ??_GMenuBase@@UAEPAXI@Z
_TEXT	SEGMENT
___flags$ = 8						; size = 4
??_GMenuBase@@UAEPAXI@Z PROC				; MenuBase::`scalar deleting destructor', COMDAT
; _this$ = ecx
  00000	55		 push	 ebp
  00001	8b ec		 mov	 ebp, esp
  00003	56		 push	 esi
  00004	8b f1		 mov	 esi, ecx
  00006	e8 00 00 00 00	 call	 ??1MenuBase@@UAE@XZ	; MenuBase::~MenuBase
  0000b	f6 45 08 01	 test	 BYTE PTR ___flags$[ebp], 1
  0000f	74 07		 je	 SHORT $LN1@scalar@2
  00011	56		 push	 esi
  00012	e8 00 00 00 00	 call	 ??3@YAXPAX@Z		; operator delete
  00017	59		 pop	 ecx
$LN1@scalar@2:
  00018	8b c6		 mov	 eax, esi
  0001a	5e		 pop	 esi
  0001b	5d		 pop	 ebp
  0001c	c2 04 00	 ret	 4
??_GMenuBase@@UAEPAXI@Z ENDP				; MenuBase::`scalar deleting destructor'
; Function compile flags: /Ogsp
_TEXT	ENDS
;	COMDAT ??_GMenuBtn@@UAEPAXI@Z
_TEXT	SEGMENT
___flags$ = 8						; size = 4
??_GMenuBtn@@UAEPAXI@Z PROC				; MenuBtn::`scalar deleting destructor', COMDAT
; _this$ = ecx
  00000	55		 push	 ebp
  00001	8b ec		 mov	 ebp, esp
  00003	56		 push	 esi
  00004	8b f1		 mov	 esi, ecx
  00006	e8 00 00 00 00	 call	 ??1MenuBtn@@UAE@XZ	; MenuBtn::~MenuBtn
  0000b	f6 45 08 01	 test	 BYTE PTR ___flags$[ebp], 1
  0000f	74 07		 je	 SHORT $LN1@scalar@3
  00011	56		 push	 esi
  00012	e8 00 00 00 00	 call	 ??3@YAXPAX@Z		; operator delete
  00017	59		 pop	 ecx
$LN1@scalar@3:
  00018	8b c6		 mov	 eax, esi
  0001a	5e		 pop	 esi
  0001b	5d		 pop	 ebp
  0001c	c2 04 00	 ret	 4
??_GMenuBtn@@UAEPAXI@Z ENDP				; MenuBtn::`scalar deleting destructor'
_TEXT	ENDS
PUBLIC	__real@40800000
PUBLIC	??_R0?AVNewShopWnd@@@8				; NewShopWnd `RTTI Type Descriptor'
PUBLIC	__real@40400000
PUBLIC	??_R0?AVioEtcItem@@@8				; ioEtcItem `RTTI Type Descriptor'
PUBLIC	??_R0?AVioEtcItemTimeGashapon@@@8		; ioEtcItemTimeGashapon `RTTI Type Descriptor'
PUBLIC	__real@40000000
PUBLIC	__real@453ba000
PUBLIC	__real@3f800000
EXTRN	?GetTimeGrowthPossibleCount@ioMyInfo@@QAEHXZ:PROC ; ioMyInfo::GetTimeGrowthPossibleCount
EXTRN	?GetTimeGrowingCount@ioMyInfo@@QAEHXZ:PROC	; ioMyInfo::GetTimeGrowingCount
EXTRN	__imp_??4ioHashString@@QAEAAV0@ABV0@@Z:PROC
EXTRN	?GetUseInfo@ioUserEtcItem@@QAEXHAAVioHashString@@0AAK1@Z:PROC ; ioUserEtcItem::GetUseInfo
EXTRN	?GetEtcItem@ioUserEtcItem@@QAE_NHAAUETCITEMSLOT@1@@Z:PROC ; ioUserEtcItem::GetEtcItem
EXTRN	?FindEtcItem@ioEtcItemManager@@QAEPAVioEtcItem@@K@Z:PROC ; ioEtcItemManager::FindEtcItem
EXTRN	?GetTimeGashaponEtcItem@ioMyInfo@@QAEKXZ:PROC	; ioMyInfo::GetTimeGashaponEtcItem
EXTRN	?GetSingleton@ioMyInfo@@SAAAV1@XZ:PROC		; ioMyInfo::GetSingleton
EXTRN	__imp_?Clear@ioHashString@@QAEXXZ:PROC
EXTRN	?GetAttinCountToType@ioMissionManager@@QBEHABH@Z:PROC ; ioMissionManager::GetAttinCountToType
EXTRN	?GetSingleton@ioMissionManager@@SAAAV1@XZ:PROC	; ioMissionManager::GetSingleton
EXTRN	__imp_?GetID@ioWnd@@QBEKXZ:PROC
EXTRN	__imp_?SetPosition@ErrorReport@@YAXMM@Z:PROC
;	COMDAT __real@40800000
; File d:\lost saga for developer\youtube\tutorial\source\src\lsclient\gui\helpwnd.cpp
CONST	SEGMENT
__real@40800000 DD 040800000r			; 4
CONST	ENDS
;	COMDAT ??_R0?AVNewShopWnd@@@8
_DATA	SEGMENT
??_R0?AVNewShopWnd@@@8 DD FLAT:??_7type_info@@6B@	; NewShopWnd `RTTI Type Descriptor'
	DD	00H
	DB	'.?AVNewShopWnd@@', 00H
_DATA	ENDS
;	COMDAT __real@40400000
CONST	SEGMENT
__real@40400000 DD 040400000r			; 3
CONST	ENDS
;	COMDAT ??_R0?AVioEtcItem@@@8
_DATA	SEGMENT
??_R0?AVioEtcItem@@@8 DD FLAT:??_7type_info@@6B@	; ioEtcItem `RTTI Type Descriptor'
	DD	00H
	DB	'.?AVioEtcItem@@', 00H
_DATA	ENDS
;	COMDAT ??_R0?AVioEtcItemTimeGashapon@@@8
_DATA	SEGMENT
??_R0?AVioEtcItemTimeGashapon@@@8 DD FLAT:??_7type_info@@6B@ ; ioEtcItemTimeGashapon `RTTI Type Descriptor'
	DD	00H
	DB	'.?AVioEtcItemTimeGashapon@@', 00H
_DATA	ENDS
;	COMDAT __real@40000000
CONST	SEGMENT
__real@40000000 DD 040000000r			; 2
CONST	ENDS
;	COMDAT __real@453ba000
CONST	SEGMENT
__real@453ba000 DD 0453ba000r			; 3002
CONST	ENDS
;	COMDAT __real@3f800000
CONST	SEGMENT
__real@3f800000 DD 03f800000r			; 1
CONST	ENDS
;	COMDAT xdata$x
xdata$x	SEGMENT
__unwindtable$?OnProcess@MenuBtn@@MAEXM@Z DD 0ffffffffH
	DD	FLAT:__unwindfunclet$?OnProcess@MenuBtn@@MAEXM@Z$0
__ehfuncinfo$?OnProcess@MenuBtn@@MAEXM@Z DD 019930522H
	DD	01H
	DD	FLAT:__unwindtable$?OnProcess@MenuBtn@@MAEXM@Z
	DD	2 DUP(00H)
	DD	2 DUP(00H)
	DD	00H
	DD	01H
; Function compile flags: /Ogsp
xdata$x	ENDS
;	COMDAT ?OnProcess@MenuBtn@@MAEXM@Z
_TEXT	SEGMENT
_szInfo1$557369 = -56					; size = 16
_kSlot$557366 = -40					; size = 12
_dwInfo1Color$557370 = -28				; size = 4
_dwInfo2Color$557371 = -24				; size = 4
_dwCurTime$ = -20					; size = 4
_i$557379 = -16						; size = 4
_pUserEtcItem$557367 = -16				; size = 4
__$EHRec$ = -12						; size = 12
_fTimePerSec$ = 8					; size = 4
?OnProcess@MenuBtn@@MAEXM@Z PROC			; MenuBtn::OnProcess, COMDAT
; _this$ = ecx

; 407  : {

  00000	6a 2c		 push	 44			; 0000002cH
  00002	b8 00 00 00 00	 mov	 eax, __ehhandler$?OnProcess@MenuBtn@@MAEXM@Z
  00007	e8 00 00 00 00	 call	 __EH_prolog3
  0000c	8b f1		 mov	 esi, ecx

; 408  : 	ErrorReport::SetPosition( 3002, 1 );

  0000e	f3 0f 10 05 00
	00 00 00	 movss	 xmm0, DWORD PTR __real@3f800000
  00016	8b 3d 00 00 00
	00		 mov	 edi, DWORD PTR __imp_?SetPosition@ErrorReport@@YAXMM@Z
  0001c	51		 push	 ecx
  0001d	51		 push	 ecx
  0001e	f3 0f 11 44 24
	04		 movss	 DWORD PTR [esp+4], xmm0
  00024	f3 0f 10 05 00
	00 00 00	 movss	 xmm0, DWORD PTR __real@453ba000
  0002c	f3 0f 11 04 24	 movss	 DWORD PTR [esp], xmm0
  00031	ff d7		 call	 edi
  00033	59		 pop	 ecx
  00034	59		 pop	 ecx

; 409  : 
; 410  : 	if( !IsShow() )

  00035	8b ce		 mov	 ecx, esi
  00037	ff 15 00 00 00
	00		 call	 DWORD PTR __imp_?IsShow@ioWnd@@QBE_NXZ
  0003d	84 c0		 test	 al, al
  0003f	0f 84 16 03 00
	00		 je	 $LN31@OnProcess@2

; 411  : 		return;
; 412  : 
; 413  : 	ErrorReport::SetPosition( 3002, 2 );

  00045	f3 0f 10 05 00
	00 00 00	 movss	 xmm0, DWORD PTR __real@40000000
  0004d	51		 push	 ecx
  0004e	51		 push	 ecx
  0004f	f3 0f 11 44 24
	04		 movss	 DWORD PTR [esp+4], xmm0
  00055	f3 0f 10 05 00
	00 00 00	 movss	 xmm0, DWORD PTR __real@453ba000
  0005d	f3 0f 11 04 24	 movss	 DWORD PTR [esp], xmm0
  00062	ff d7		 call	 edi
  00064	59		 pop	 ecx
  00065	59		 pop	 ecx

; 414  : 	DWORD dwCurTime = FRAMEGETTIME();

  00066	ff 15 00 00 00
	00		 call	 DWORD PTR __imp_?GetSingleton@ioFrameTimer@@SAAAV1@XZ
  0006c	8b c8		 mov	 ecx, eax
  0006e	ff 15 00 00 00
	00		 call	 DWORD PTR __imp_?GetLoopSec@ioFrameTimer@@QBEKXZ
  00074	8b c8		 mov	 ecx, eax

; 415  : 	if(  dwCurTime - m_dwCurrentTime > 1000 )

  00076	8b d1		 mov	 edx, ecx
  00078	2b 96 5c 02 00
	00		 sub	 edx, DWORD PTR [esi+604]
  0007e	33 db		 xor	 ebx, ebx
  00080	89 4d ec	 mov	 DWORD PTR _dwCurTime$[ebp], ecx
  00083	81 fa e8 03 00
	00		 cmp	 edx, 1000		; 000003e8H
  00089	0f 86 19 02 00
	00		 jbe	 $LN24@OnProcess@2

; 416  : 	{
; 417  : 		m_dwCurrentTime = dwCurTime;

  0008f	89 8e 5c 02 00
	00		 mov	 DWORD PTR [esi+604], ecx

; 418  : 
; 419  : 		switch( GetID() )

  00095	8b ce		 mov	 ecx, esi
  00097	ff 15 00 00 00
	00		 call	 DWORD PTR __imp_?GetID@ioWnd@@QBEKXZ
  0009d	83 e8 0a	 sub	 eax, 10			; 0000000aH
  000a0	0f 84 a9 01 00
	00		 je	 $LN25@OnProcess@2
  000a6	48		 dec	 eax
  000a7	74 6e		 je	 SHORT $LN23@OnProcess@2
  000a9	48		 dec	 eax
  000aa	48		 dec	 eax
  000ab	0f 85 f7 01 00
	00		 jne	 $LN24@OnProcess@2

; 473  : 		case HelpWnd::ID_MISSION_QUEST:
; 474  : 			{
; 475  : 				//    
; 476  : 				if( g_GUIMgr.IsShow( MISSION_QUEST_MAIN_WND ) )

  000b1	68 7e 18 00 00	 push	 6270			; 0000187eH
  000b6	e8 00 00 00 00	 call	 ?GetSingleton@ioSP2GUIManager@@SAAAV1@XZ ; ioSP2GUIManager::GetSingleton
  000bb	8b c8		 mov	 ecx, eax
  000bd	ff 15 00 00 00
	00		 call	 DWORD PTR __imp_?IsShow@ioGUIManager@@QAE_NK@Z
  000c3	84 c0		 test	 al, al

; 477  : 				{
; 478  : 					//  End .
; 479  : 					if ( IsSparkling() )
; 480  : 						SetEndSparkle();
; 481  : 				}
; 482  : 				//    
; 483  : 				else

  000c5	75 20		 jne	 SHORT $LN10@OnProcess@2

; 484  : 				{
; 485  : 					// 
; 486  : 					bool bStartSparkle = false;
; 487  : 					for ( int i=MDT_DAILY ; i<MDT_MAX ; ++i )

  000c7	89 5d f0	 mov	 DWORD PTR _i$557379[ebp], ebx
$LL14@OnProcess@2:

; 488  : 					{
; 489  : 						//       
; 490  : 						if ( g_MissionManager.GetAttinCountToType( i ) > 0 )

  000ca	8d 45 f0	 lea	 eax, DWORD PTR _i$557379[ebp]
  000cd	50		 push	 eax
  000ce	e8 00 00 00 00	 call	 ?GetSingleton@ioMissionManager@@SAAAV1@XZ ; ioMissionManager::GetSingleton
  000d3	8b c8		 mov	 ecx, eax
  000d5	e8 00 00 00 00	 call	 ?GetAttinCountToType@ioMissionManager@@QBEHABH@Z ; ioMissionManager::GetAttinCountToType
  000da	85 c0		 test	 eax, eax
  000dc	7f 21		 jg	 SHORT $LN55@OnProcess@2

; 484  : 				{
; 485  : 					// 
; 486  : 					bool bStartSparkle = false;
; 487  : 					for ( int i=MDT_DAILY ; i<MDT_MAX ; ++i )

  000de	ff 45 f0	 inc	 DWORD PTR _i$557379[ebp]
  000e1	83 7d f0 03	 cmp	 DWORD PTR _i$557379[ebp], 3
  000e5	7c e3		 jl	 SHORT $LL14@OnProcess@2
$LN10@OnProcess@2:

; 506  : 					{
; 507  : 						//  End .
; 508  : 						if ( IsSparkling() )

  000e7	38 9e 8c 02 00
	00		 cmp	 BYTE PTR [esi+652], bl
  000ed	0f 84 e5 01 00
	00		 je	 $LN5@OnProcess@2

; 509  : 							SetEndSparkle();	// 

  000f3	66 89 9e 8c 02
	00 00		 mov	 WORD PTR [esi+652], bx

; 510  : 					}
; 511  : 				}				
; 512  : 			}
; 513  : 			break;

  000fa	e9 a9 01 00 00	 jmp	 $LN24@OnProcess@2
$LN55@OnProcess@2:

; 491  : 						{
; 492  : 							bStartSparkle = true;
; 493  : 							break;
; 494  : 						}
; 495  : 					}
; 496  : 
; 497  : 					//    
; 498  : 					if ( bStartSparkle )
; 499  : 					{
; 500  : 						//   
; 501  : 						if ( !IsSparkling() )

  000ff	38 9e 8c 02 00
	00		 cmp	 BYTE PTR [esi+652], bl
  00105	0f 85 a5 01 00
	00		 jne	 $LN62@OnProcess@2

; 502  : 							SetStartSparkle();	// 

  0010b	8b ce		 mov	 ecx, esi
  0010d	e8 00 00 00 00	 call	 ?SetStartSparkle@MenuBtn@@QAEXXZ ; MenuBtn::SetStartSparkle

; 503  : 					}
; 504  : 					//    
; 505  : 					else

  00112	e9 91 01 00 00	 jmp	 $LN24@OnProcess@2
$LN23@OnProcess@2:

; 440  : 				}
; 441  : 			}
; 442  : 			break;	
; 443  : 		case HelpWnd::ID_MYITEM:
; 444  : 			{
; 445  : 				m_szGashaponInfo.Clear();

  00117	8b 3d 00 00 00
	00		 mov	 edi, DWORD PTR __imp_?Clear@ioHashString@@QAEXXZ
  0011d	8d 8e 64 02 00
	00		 lea	 ecx, DWORD PTR [esi+612]
  00123	ff d7		 call	 edi

; 446  : 				m_szGashaponName.Clear();

  00125	8d 8e 74 02 00
	00		 lea	 ecx, DWORD PTR [esi+628]
  0012b	ff d7		 call	 edi

; 447  : 
; 448  : 				m_iGrowCurrentCount = 0;
; 449  : 				m_iGrowMaxCount = 0;
; 450  : 
; 451  : 				//  
; 452  : 				ioEtcItemTimeGashapon *pTimeGashapon = dynamic_cast< ioEtcItemTimeGashapon * >( g_EtcItemMgr.FindEtcItem( g_MyInfo.GetTimeGashaponEtcItem() ) );

  0012d	53		 push	 ebx
  0012e	68 00 00 00 00	 push	 OFFSET ??_R0?AVioEtcItemTimeGashapon@@@8
  00133	68 00 00 00 00	 push	 OFFSET ??_R0?AVioEtcItem@@@8
  00138	89 9e 84 02 00
	00		 mov	 DWORD PTR [esi+644], ebx
  0013e	89 9e 88 02 00
	00		 mov	 DWORD PTR [esi+648], ebx
  00144	8b 3d 00 00 00
	00		 mov	 edi, DWORD PTR ?ms_Singleton@?$Singleton@VioEtcItemManager@@@@1PAVioEtcItemManager@@A ; Singleton<ioEtcItemManager>::ms_Singleton
  0014a	53		 push	 ebx
  0014b	e8 00 00 00 00	 call	 ?GetSingleton@ioMyInfo@@SAAAV1@XZ ; ioMyInfo::GetSingleton
  00150	8b c8		 mov	 ecx, eax
  00152	e8 00 00 00 00	 call	 ?GetTimeGashaponEtcItem@ioMyInfo@@QAEKXZ ; ioMyInfo::GetTimeGashaponEtcItem
  00157	50		 push	 eax
  00158	8b cf		 mov	 ecx, edi
  0015a	e8 00 00 00 00	 call	 ?FindEtcItem@ioEtcItemManager@@QAEPAVioEtcItem@@K@Z ; ioEtcItemManager::FindEtcItem
  0015f	50		 push	 eax
  00160	e8 00 00 00 00	 call	 ___RTDynamicCast
  00165	8b f8		 mov	 edi, eax
  00167	83 c4 14	 add	 esp, 20			; 00000014H

; 453  : 				if( pTimeGashapon )

  0016a	3b fb		 cmp	 edi, ebx
  0016c	0f 84 8b 00 00
	00		 je	 $LN22@OnProcess@2

; 454  : 				{
; 455  : 					ioUserEtcItem::ETCITEMSLOT kSlot;

  00172	89 5d d8	 mov	 DWORD PTR _kSlot$557366[ebp], ebx
  00175	89 5d dc	 mov	 DWORD PTR _kSlot$557366[ebp+4], ebx
  00178	89 5d e0	 mov	 DWORD PTR _kSlot$557366[ebp+8], ebx

; 456  : 					ioUserEtcItem *pUserEtcItem = g_MyInfo.GetUserEtcItem();

  0017b	e8 00 00 00 00	 call	 ?GetSingleton@ioMyInfo@@SAAAV1@XZ ; ioMyInfo::GetSingleton
  00180	05 44 01 00 00	 add	 eax, 324		; 00000144H
  00185	89 45 f0	 mov	 DWORD PTR _pUserEtcItem$557367[ebp], eax

; 457  : 					if( pUserEtcItem && pUserEtcItem->GetEtcItem( pTimeGashapon->GetType(), kSlot ) )

  00188	3b c3		 cmp	 eax, ebx
  0018a	0f 84 18 01 00
	00		 je	 $LN24@OnProcess@2
  00190	8d 45 d8	 lea	 eax, DWORD PTR _kSlot$557366[ebp]
  00193	50		 push	 eax
  00194	8b 07		 mov	 eax, DWORD PTR [edi]
  00196	8b cf		 mov	 ecx, edi
  00198	ff 50 40	 call	 DWORD PTR [eax+64]
  0019b	8b 4d f0	 mov	 ecx, DWORD PTR _pUserEtcItem$557367[ebp]
  0019e	50		 push	 eax
  0019f	e8 00 00 00 00	 call	 ?GetEtcItem@ioUserEtcItem@@QAE_NHAAUETCITEMSLOT@1@@Z ; ioUserEtcItem::GetEtcItem
  001a4	84 c0		 test	 al, al
  001a6	0f 84 fc 00 00
	00		 je	 $LN24@OnProcess@2

; 458  : 					{
; 459  : 						ioHashString szInfo1;

  001ac	8d 4d c8	 lea	 ecx, DWORD PTR _szInfo1$557369[ebp]
  001af	ff 15 00 00 00
	00		 call	 DWORD PTR __imp_??0ioHashString@@QAE@XZ

; 460  : 						DWORD dwInfo1Color, dwInfo2Color;
; 461  : 						pUserEtcItem->GetUseInfo( pTimeGashapon->GetType(), szInfo1, m_szGashaponInfo, dwInfo1Color, dwInfo2Color );

  001b5	8d 45 e8	 lea	 eax, DWORD PTR _dwInfo2Color$557371[ebp]
  001b8	50		 push	 eax
  001b9	8d 45 e4	 lea	 eax, DWORD PTR _dwInfo1Color$557370[ebp]
  001bc	50		 push	 eax
  001bd	8d 86 64 02 00
	00		 lea	 eax, DWORD PTR [esi+612]
  001c3	50		 push	 eax
  001c4	8d 45 c8	 lea	 eax, DWORD PTR _szInfo1$557369[ebp]
  001c7	50		 push	 eax
  001c8	8b 07		 mov	 eax, DWORD PTR [edi]
  001ca	8b cf		 mov	 ecx, edi
  001cc	89 5d fc	 mov	 DWORD PTR __$EHRec$[ebp+8], ebx
  001cf	ff 50 40	 call	 DWORD PTR [eax+64]
  001d2	8b 4d f0	 mov	 ecx, DWORD PTR _pUserEtcItem$557367[ebp]
  001d5	50		 push	 eax
  001d6	e8 00 00 00 00	 call	 ?GetUseInfo@ioUserEtcItem@@QAEXHAAVioHashString@@0AAK1@Z ; ioUserEtcItem::GetUseInfo

; 462  : 						m_szGashaponName = pTimeGashapon->GetName();

  001db	83 c7 04	 add	 edi, 4
  001de	57		 push	 edi
  001df	8d 8e 74 02 00
	00		 lea	 ecx, DWORD PTR [esi+628]
  001e5	ff 15 00 00 00
	00		 call	 DWORD PTR __imp_??4ioHashString@@QAEAAV0@ABV0@@Z

; 463  : 					}

  001eb	83 4d fc ff	 or	 DWORD PTR __$EHRec$[ebp+8], -1
  001ef	8d 4d c8	 lea	 ecx, DWORD PTR _szInfo1$557369[ebp]
  001f2	ff 15 00 00 00
	00		 call	 DWORD PTR __imp_??1ioHashString@@QAE@XZ

; 464  : 				}

  001f8	e9 ab 00 00 00	 jmp	 $LN24@OnProcess@2
$LN22@OnProcess@2:

; 465  : 				else if( g_MyInfo.GetTimeGrowingCount() + g_MyInfo.GetTimeGrowthPossibleCount() > 0 && HelpWnd::IsMoveStateShow() )					

  001fd	e8 00 00 00 00	 call	 ?GetSingleton@ioMyInfo@@SAAAV1@XZ ; ioMyInfo::GetSingleton
  00202	8b c8		 mov	 ecx, eax
  00204	e8 00 00 00 00	 call	 ?GetTimeGrowingCount@ioMyInfo@@QAEHXZ ; ioMyInfo::GetTimeGrowingCount
  00209	8b f8		 mov	 edi, eax
  0020b	e8 00 00 00 00	 call	 ?GetSingleton@ioMyInfo@@SAAAV1@XZ ; ioMyInfo::GetSingleton
  00210	8b c8		 mov	 ecx, eax
  00212	e8 00 00 00 00	 call	 ?GetTimeGrowthPossibleCount@ioMyInfo@@QAEHXZ ; ioMyInfo::GetTimeGrowthPossibleCount
  00217	03 f8		 add	 edi, eax
  00219	85 ff		 test	 edi, edi
  0021b	0f 8e 87 00 00
	00		 jle	 $LN24@OnProcess@2
  00221	39 1d 00 00 00
	00		 cmp	 DWORD PTR ?sg_dwMoveState@HelpWnd@@1KA, ebx ; HelpWnd::sg_dwMoveState
  00227	75 7f		 jne	 SHORT $LN24@OnProcess@2

; 466  : 				{
; 467  : 					//  	
; 468  : 					m_iGrowCurrentCount = g_MyInfo.GetTimeGrowingCount();

  00229	e8 00 00 00 00	 call	 ?GetSingleton@ioMyInfo@@SAAAV1@XZ ; ioMyInfo::GetSingleton
  0022e	8b c8		 mov	 ecx, eax
  00230	e8 00 00 00 00	 call	 ?GetTimeGrowingCount@ioMyInfo@@QAEHXZ ; ioMyInfo::GetTimeGrowingCount
  00235	89 86 84 02 00
	00		 mov	 DWORD PTR [esi+644], eax

; 469  : 					m_iGrowMaxCount     = g_MyInfo.GetTimeGrowthPossibleCount();

  0023b	e8 00 00 00 00	 call	 ?GetSingleton@ioMyInfo@@SAAAV1@XZ ; ioMyInfo::GetSingleton
  00240	8b c8		 mov	 ecx, eax
  00242	e8 00 00 00 00	 call	 ?GetTimeGrowthPossibleCount@ioMyInfo@@QAEHXZ ; ioMyInfo::GetTimeGrowthPossibleCount
  00247	89 86 88 02 00
	00		 mov	 DWORD PTR [esi+648], eax

; 470  : 				}
; 471  : 			}
; 472  : 			break;	

  0024d	eb 59		 jmp	 SHORT $LN24@OnProcess@2
$LN25@OnProcess@2:

; 420  : 		{
; 421  : 		case HelpWnd::ID_DISPLAY:
; 422  : 		case HelpWnd::ID_PRACTICE:
; 423  : 		case HelpWnd::ID_FISHING:
; 424  : 		case HelpWnd::ID_EXCAVATION:
; 425  : 		case HelpWnd::ID_PLAZA_STATE:
; 426  : 		case HelpWnd::ID_HOUSING_SETUP:
; 427  : 		case HelpWnd::ID_PRESENT:
; 428  : 		case HelpWnd::ID_PET:
; 429  : 		case HelpWnd::ID_WEB_EVENT:
; 430  : 		case HelpWnd::ID_WEB_GUIDE:
; 431  : 			break;
; 432  : 		case HelpWnd::ID_SHOP:
; 433  : 			ErrorReport::SetPosition( 3002, 3 );

  0024f	f3 0f 10 05 00
	00 00 00	 movss	 xmm0, DWORD PTR __real@40400000
  00257	51		 push	 ecx
  00258	51		 push	 ecx
  00259	f3 0f 11 44 24
	04		 movss	 DWORD PTR [esp+4], xmm0
  0025f	f3 0f 10 05 00
	00 00 00	 movss	 xmm0, DWORD PTR __real@453ba000
  00267	f3 0f 11 04 24	 movss	 DWORD PTR [esp], xmm0
  0026c	ff d7		 call	 edi
  0026e	59		 pop	 ecx
  0026f	59		 pop	 ecx

; 434  : 			{
; 435  : 				//  
; 436  : 				NewShopWnd *pShopWnd = dynamic_cast<NewShopWnd*>(g_GUIMgr.FindWnd(NEW_SHOP_WND));

  00270	53		 push	 ebx
  00271	68 00 00 00 00	 push	 OFFSET ??_R0?AVNewShopWnd@@@8
  00276	68 00 00 00 00	 push	 OFFSET ??_R0?AVioWnd@@@8
  0027b	53		 push	 ebx
  0027c	68 f8 17 00 00	 push	 6136			; 000017f8H
  00281	e8 00 00 00 00	 call	 ?GetSingleton@ioSP2GUIManager@@SAAAV1@XZ ; ioSP2GUIManager::GetSingleton
  00286	8b c8		 mov	 ecx, eax
  00288	ff 15 00 00 00
	00		 call	 DWORD PTR __imp_?FindWnd@ioGUIManager@@QAEPAVioWnd@@K@Z
  0028e	50		 push	 eax
  0028f	e8 00 00 00 00	 call	 ___RTDynamicCast
  00294	83 c4 14	 add	 esp, 20			; 00000014H

; 437  : 				if( pShopWnd )

  00297	3b c3		 cmp	 eax, ebx
  00299	74 0d		 je	 SHORT $LN24@OnProcess@2

; 438  : 				{
; 439  : 					m_iEventItemCnt = pShopWnd->GetTotalEventItemCnt();

  0029b	8b c8		 mov	 ecx, eax
  0029d	e8 00 00 00 00	 call	 ?GetTotalEventItemCnt@NewShopWnd@@QAEHXZ ; NewShopWnd::GetTotalEventItemCnt
  002a2	89 86 60 02 00
	00		 mov	 DWORD PTR [esi+608], eax
$LN24@OnProcess@2:

; 514  : 		}
; 515  : 	}
; 516  : 
; 517  : 	
; 518  : 	if ( m_bUseSparkle )

  002a8	38 9e 8c 02 00
	00		 cmp	 BYTE PTR [esi+652], bl
  002ae	74 28		 je	 SHORT $LN5@OnProcess@2
$LN62@OnProcess@2:

; 519  : 	{
; 520  : 		if( dwCurTime - m_dwOverTimer > m_dwOverTicTime )

  002b0	8b 4d ec	 mov	 ecx, DWORD PTR _dwCurTime$[ebp]
  002b3	8b d1		 mov	 edx, ecx
  002b5	2b 96 90 02 00
	00		 sub	 edx, DWORD PTR [esi+656]
  002bb	3b 96 94 02 00
	00		 cmp	 edx, DWORD PTR [esi+660]
  002c1	76 15		 jbe	 SHORT $LN5@OnProcess@2

; 521  : 		{
; 522  : 			m_dwOverTimer = dwCurTime;
; 523  : 			m_bOver = !m_bOver;

  002c3	38 9e 8d 02 00
	00		 cmp	 BYTE PTR [esi+653], bl
  002c9	89 8e 90 02 00
	00		 mov	 DWORD PTR [esi+656], ecx
  002cf	0f 94 c1	 sete	 cl
  002d2	88 8e 8d 02 00
	00		 mov	 BYTE PTR [esi+653], cl
$LN5@OnProcess@2:

; 524  : 		}
; 525  : 	}
; 526  : 
; 527  : 	if( GetID() == HelpWnd::ID_SHOP )

  002d8	8b ce		 mov	 ecx, esi
  002da	ff 15 00 00 00
	00		 call	 DWORD PTR __imp_?GetID@ioWnd@@QBEKXZ
  002e0	83 f8 0a	 cmp	 eax, 10			; 0000000aH
  002e3	75 51		 jne	 SHORT $LN2@OnProcess@2

; 528  : 	{
; 529  : 		if( m_dwStartOutline + TE_EFFECT_TIME < FRAMEGETTIME() )

  002e5	8b 3d 00 00 00
	00		 mov	 edi, DWORD PTR __imp_?GetSingleton@ioFrameTimer@@SAAAV1@XZ
  002eb	ff d7		 call	 edi
  002ed	8b c8		 mov	 ecx, eax
  002ef	ff 15 00 00 00
	00		 call	 DWORD PTR __imp_?GetLoopSec@ioFrameTimer@@QBEKXZ
  002f5	8b 8e 9c 02 00
	00		 mov	 ecx, DWORD PTR [esi+668]
  002fb	81 c1 c8 00 00
	00		 add	 ecx, 200		; 000000c8H
  00301	3b c8		 cmp	 ecx, eax
  00303	73 31		 jae	 SHORT $LN2@OnProcess@2

; 530  : 		{
; 531  : 			GoToTop();

  00305	8b ce		 mov	 ecx, esi
  00307	ff 15 00 00 00
	00		 call	 DWORD PTR __imp_?GoToTop@ioWnd@@QAEXXZ

; 532  : 			m_dwStartOutline = FRAMEGETTIME();

  0030d	ff d7		 call	 edi
  0030f	8b c8		 mov	 ecx, eax
  00311	ff 15 00 00 00
	00		 call	 DWORD PTR __imp_?GetLoopSec@ioFrameTimer@@QBEKXZ

; 533  : 			m_iRedEffectIndex++;

  00317	ff 86 a0 02 00
	00		 inc	 DWORD PTR [esi+672]
  0031d	8b 8e a0 02 00
	00		 mov	 ecx, DWORD PTR [esi+672]
  00323	89 86 9c 02 00
	00		 mov	 DWORD PTR [esi+668], eax

; 534  : 			if( !COMPARE( m_iRedEffectIndex, 0, TE_EFFECT_MAX ) )

  00329	78 05		 js	 SHORT $LN1@OnProcess@2
  0032b	83 f9 02	 cmp	 ecx, 2
  0032e	7c 06		 jl	 SHORT $LN2@OnProcess@2
$LN1@OnProcess@2:

; 535  : 				m_iRedEffectIndex = 0;

  00330	89 9e a0 02 00
	00		 mov	 DWORD PTR [esi+672], ebx
$LN2@OnProcess@2:

; 536  : 		}
; 537  : 	}
; 538  : 
; 539  : 	ErrorReport::SetPosition( 3002, 4 );

  00336	f3 0f 10 05 00
	00 00 00	 movss	 xmm0, DWORD PTR __real@40800000
  0033e	51		 push	 ecx
  0033f	51		 push	 ecx
  00340	f3 0f 11 44 24
	04		 movss	 DWORD PTR [esp+4], xmm0
  00346	f3 0f 10 05 00
	00 00 00	 movss	 xmm0, DWORD PTR __real@453ba000
  0034e	f3 0f 11 04 24	 movss	 DWORD PTR [esp], xmm0
  00353	ff 15 00 00 00
	00		 call	 DWORD PTR __imp_?SetPosition@ErrorReport@@YAXMM@Z
  00359	59		 pop	 ecx
  0035a	59		 pop	 ecx
$LN31@OnProcess@2:

; 540  : }

  0035b	e8 00 00 00 00	 call	 __EH_epilog3
  00360	c2 04 00	 ret	 4
_TEXT	ENDS
;	COMDAT text$x
text$x	SEGMENT
__unwindfunclet$?OnProcess@MenuBtn@@MAEXM@Z$0:
  00000	8d 4d c8	 lea	 ecx, DWORD PTR _szInfo1$557369[ebp]
  00003	ff 25 00 00 00
	00		 jmp	 DWORD PTR __imp_??1ioHashString@@QAE@XZ
__ehhandler$?OnProcess@MenuBtn@@MAEXM@Z:
  00009	8b 54 24 08	 mov	 edx, DWORD PTR [esp+8]
  0000d	8d 42 0c	 lea	 eax, DWORD PTR [edx+12]
  00010	8b 4a c4	 mov	 ecx, DWORD PTR [edx-60]
  00013	33 c8		 xor	 ecx, eax
  00015	e8 00 00 00 00	 call	 @__security_check_cookie@4
  0001a	b8 00 00 00 00	 mov	 eax, OFFSET __ehfuncinfo$?OnProcess@MenuBtn@@MAEXM@Z
  0001f	e9 00 00 00 00	 jmp	 ___CxxFrameHandler3
text$x	ENDS
?OnProcess@MenuBtn@@MAEXM@Z ENDP			; MenuBtn::OnProcess
PUBLIC	__real@403a000000000000
PUBLIC	__real@3f19999a
PUBLIC	??_C@_03BBIHPCOK@0?$CFd?$AA@			; `string'
PUBLIC	??_C@_02DPKJAMEF@?$CFd?$AA@			; `string'
PUBLIC	__real@4050000000000000
PUBLIC	__real@4043800000000000
PUBLIC	__real@403e000000000000
PUBLIC	__real@4041000000000000
PUBLIC	__real@3f4ccccd
PUBLIC	??_C@_0CH@DOFGKDDE@MenuBtn?3?3OnRenderTooltipSecretSh@ ; `string'
PUBLIC	__real@4051400000000000
PUBLIC	__real@4045000000000000
PUBLIC	__real@4051c00000000000
PUBLIC	__real@4046800000000000
PUBLIC	?OnRenderTooltipSecretShopOpen@MenuBtn@@QAEXMMABVCTimeSpan@ATL@@@Z ; MenuBtn::OnRenderTooltipSecretShopOpen
EXTRN	??1ioComplexStringPrinter@@QAE@XZ:PROC		; ioComplexStringPrinter::~ioComplexStringPrinter
EXTRN	?AddTextPiece@ioComplexStringPrinter@@QAEXMPBD000@Z:PROC ; ioComplexStringPrinter::AddTextPiece
EXTRN	__imp__sprintf:PROC
EXTRN	?PrintFullText@ioComplexStringPrinter@@QAEXMMW4TextAlignType@@E@Z:PROC ; ioComplexStringPrinter::PrintFullText
EXTRN	?AddTextPiece@ioComplexStringPrinter@@QAAXMPBDZZ:PROC ; ioComplexStringPrinter::AddTextPiece
EXTRN	?SetTextColor@ioComplexStringPrinter@@QAEXK@Z:PROC ; ioComplexStringPrinter::SetTextColor
EXTRN	?SetTextStyle@ioComplexStringPrinter@@QAEXW4TextStyle@@@Z:PROC ; ioComplexStringPrinter::SetTextStyle
EXTRN	??0ioComplexStringPrinter@@QAE@XZ:PROC		; ioComplexStringPrinter::ioComplexStringPrinter
EXTRN	__EH_epilog3_GS:PROC
EXTRN	__EH_prolog3_GS:PROC
EXTRN	__allmul:PROC
;	COMDAT __real@403a000000000000
; File c:\program files (x86)\microsoft visual studio 10.0\vc\atlmfc\include\atltime.inl
CONST	SEGMENT
__real@403a000000000000 DQ 0403a000000000000r	; 26
CONST	ENDS
;	COMDAT __real@3f19999a
CONST	SEGMENT
__real@3f19999a DD 03f19999ar			; 0.6
CONST	ENDS
;	COMDAT ??_C@_03BBIHPCOK@0?$CFd?$AA@
CONST	SEGMENT
??_C@_03BBIHPCOK@0?$CFd?$AA@ DB '0%d', 00H		; `string'
CONST	ENDS
;	COMDAT ??_C@_02DPKJAMEF@?$CFd?$AA@
CONST	SEGMENT
??_C@_02DPKJAMEF@?$CFd?$AA@ DB '%d', 00H		; `string'
CONST	ENDS
;	COMDAT __real@4050000000000000
CONST	SEGMENT
__real@4050000000000000 DQ 04050000000000000r	; 64
CONST	ENDS
;	COMDAT __real@4043800000000000
CONST	SEGMENT
__real@4043800000000000 DQ 04043800000000000r	; 39
CONST	ENDS
;	COMDAT __real@403e000000000000
CONST	SEGMENT
__real@403e000000000000 DQ 0403e000000000000r	; 30
CONST	ENDS
;	COMDAT __real@4041000000000000
CONST	SEGMENT
__real@4041000000000000 DQ 04041000000000000r	; 34
CONST	ENDS
;	COMDAT __real@3f4ccccd
CONST	SEGMENT
__real@3f4ccccd DD 03f4ccccdr			; 0.8
CONST	ENDS
;	COMDAT ??_C@_0CH@DOFGKDDE@MenuBtn?3?3OnRenderTooltipSecretSh@
CONST	SEGMENT
??_C@_0CH@DOFGKDDE@MenuBtn?3?3OnRenderTooltipSecretSh@ DB 'MenuBtn::OnRen'
	DB	'derTooltipSecretShopOpen', 00H		; `string'
CONST	ENDS
;	COMDAT __real@4051400000000000
CONST	SEGMENT
__real@4051400000000000 DQ 04051400000000000r	; 69
CONST	ENDS
;	COMDAT __real@4045000000000000
CONST	SEGMENT
__real@4045000000000000 DQ 04045000000000000r	; 42
CONST	ENDS
;	COMDAT __real@4051c00000000000
CONST	SEGMENT
__real@4051c00000000000 DQ 04051c00000000000r	; 71
CONST	ENDS
;	COMDAT __real@4046800000000000
CONST	SEGMENT
__real@4046800000000000 DQ 04046800000000000r	; 45
CONST	ENDS
;	COMDAT xdata$x
xdata$x	SEGMENT
__unwindtable$?OnRenderTooltipSecretShopOpen@MenuBtn@@QAEXMMABVCTimeSpan@ATL@@@Z DD 0ffffffffH
	DD	FLAT:__unwindfunclet$?OnRenderTooltipSecretShopOpen@MenuBtn@@QAEXMMABVCTimeSpan@ATL@@@Z$0
	DD	0ffffffffH
	DD	FLAT:__unwindfunclet$?OnRenderTooltipSecretShopOpen@MenuBtn@@QAEXMMABVCTimeSpan@ATL@@@Z$1
__ehfuncinfo$?OnRenderTooltipSecretShopOpen@MenuBtn@@QAEXMMABVCTimeSpan@ATL@@@Z DD 019930522H
	DD	02H
	DD	FLAT:__unwindtable$?OnRenderTooltipSecretShopOpen@MenuBtn@@QAEXMMABVCTimeSpan@ATL@@@Z
	DD	2 DUP(00H)
	DD	2 DUP(00H)
	DD	00H
	DD	01H
; Function compile flags: /Ogsp
; File d:\lost saga for developer\youtube\tutorial\source\src\lsclient\gui\helpwnd.cpp
xdata$x	ENDS
;	COMDAT ?OnRenderTooltipSecretShopOpen@MenuBtn@@QAEXMMABVCTimeSpan@ATL@@@Z
_TEXT	SEGMENT
_kMentPrinter$557528 = -132				; size = 32
_kTimePrinter$557532 = -100				; size = 32
$T563332 = -68						; size = 8
$T563318 = -68						; size = 8
$T563290 = -68						; size = 8
$T563276 = -68						; size = 8
tv546 = -60						; size = 8
tv521 = -60						; size = 8
_szHour$557546 = -52					; size = 10
_szSec$557542 = -52					; size = 10
_szSec$557552 = -40					; size = 10
_szHour$557535 = -40					; size = 10
_szMin$557549 = -28					; size = 10
_szMin$557539 = -28					; size = 10
__$EHRec$ = -12						; size = 12
_fXPos$ = 8						; size = 4
_fYPos$ = 12						; size = 4
_CloseGap$ = 16						; size = 4
?OnRenderTooltipSecretShopOpen@MenuBtn@@QAEXMMABVCTimeSpan@ATL@@@Z PROC ; MenuBtn::OnRenderTooltipSecretShopOpen, COMDAT
; _this$ = ecx

; 818  : {

  00000	6a 78		 push	 120			; 00000078H
  00002	b8 00 00 00 00	 mov	 eax, __ehhandler$?OnRenderTooltipSecretShopOpen@MenuBtn@@QAEXMMABVCTimeSpan@ATL@@@Z
  00007	e8 00 00 00 00	 call	 __EH_prolog3_GS
  0000c	8b 75 10	 mov	 esi, DWORD PTR _CloseGap$[ebp]
  0000f	8b d9		 mov	 ebx, ecx

; 819  : 	if( m_pRedTooltip )	

  00011	33 ff		 xor	 edi, edi
  00013	39 bb 44 02 00
	00		 cmp	 DWORD PTR [ebx+580], edi
  00019	74 45		 je	 SHORT $LN19@OnRenderTo@3

; 820  : 		m_pRedTooltip->Render( fXPos - 71, fYPos - 45 );

  0001b	f3 0f 10 45 0c	 movss	 xmm0, DWORD PTR _fYPos$[ebp]
  00020	8b 83 44 02 00
	00		 mov	 eax, DWORD PTR [ebx+580]
  00026	8b 10		 mov	 edx, DWORD PTR [eax]
  00028	57		 push	 edi
  00029	57		 push	 edi
  0002a	57		 push	 edi
  0002b	0f 5a c0	 cvtps2pd xmm0, xmm0
  0002e	f2 0f 5c 05 00
	00 00 00	 subsd	 xmm0, QWORD PTR __real@4046800000000000
  00036	57		 push	 edi
  00037	f2 0f 5a c0	 cvtsd2ss xmm0, xmm0
  0003b	51		 push	 ecx
  0003c	51		 push	 ecx
  0003d	f3 0f 11 44 24
	04		 movss	 DWORD PTR [esp+4], xmm0
  00043	f3 0f 10 45 08	 movss	 xmm0, DWORD PTR _fXPos$[ebp]
  00048	0f 5a c0	 cvtps2pd xmm0, xmm0
  0004b	f2 0f 5c 05 00
	00 00 00	 subsd	 xmm0, QWORD PTR __real@4051c00000000000
  00053	f2 0f 5a c0	 cvtsd2ss xmm0, xmm0
  00057	8b c8		 mov	 ecx, eax
  00059	f3 0f 11 04 24	 movss	 DWORD PTR [esp], xmm0
  0005e	ff 12		 call	 DWORD PTR [edx]
$LN19@OnRenderTo@3:

; 821  : 
; 822  : 	if( m_pRedEffect[m_iRedEffectIndex] )

  00060	8b 8b a0 02 00
	00		 mov	 ecx, DWORD PTR [ebx+672]
  00066	39 bc 8b 54 02
	00 00		 cmp	 DWORD PTR [ebx+ecx*4+596], edi
  0006d	74 45		 je	 SHORT $LN18@OnRenderTo@3

; 823  : 		m_pRedEffect[m_iRedEffectIndex]->Render( fXPos - 69, fYPos - 42, UI_RENDER_ADD );

  0006f	8b 8c 8b 54 02
	00 00		 mov	 ecx, DWORD PTR [ebx+ecx*4+596]
  00076	f3 0f 10 45 0c	 movss	 xmm0, DWORD PTR _fYPos$[ebp]
  0007b	8b 01		 mov	 eax, DWORD PTR [ecx]
  0007d	57		 push	 edi
  0007e	57		 push	 edi
  0007f	57		 push	 edi
  00080	0f 5a c0	 cvtps2pd xmm0, xmm0
  00083	f2 0f 5c 05 00
	00 00 00	 subsd	 xmm0, QWORD PTR __real@4045000000000000
  0008b	6a 03		 push	 3
  0008d	f2 0f 5a c0	 cvtsd2ss xmm0, xmm0
  00091	51		 push	 ecx
  00092	51		 push	 ecx
  00093	f3 0f 11 44 24
	04		 movss	 DWORD PTR [esp+4], xmm0
  00099	f3 0f 10 45 08	 movss	 xmm0, DWORD PTR _fXPos$[ebp]
  0009e	0f 5a c0	 cvtps2pd xmm0, xmm0
  000a1	f2 0f 5c 05 00
	00 00 00	 subsd	 xmm0, QWORD PTR __real@4051400000000000
  000a9	f2 0f 5a c0	 cvtsd2ss xmm0, xmm0
  000ad	f3 0f 11 04 24	 movss	 DWORD PTR [esp], xmm0
  000b2	ff 10		 call	 DWORD PTR [eax]
$LN18@OnRenderTo@3:

; 824  : 
; 825  : 	if( CloseGap.GetDays() == 0 && CloseGap.GetHours() == 0 && CloseGap.GetMinutes() < 1 )

  000b4	57		 push	 edi
  000b5	68 80 51 01 00	 push	 86400			; 00015180H
  000ba	ff 76 04	 push	 DWORD PTR [esi+4]
  000bd	ff 36		 push	 DWORD PTR [esi]
  000bf	e8 00 00 00 00	 call	 __alldiv
  000c4	0b c2		 or	 eax, edx
  000c6	0f 85 d4 00 00
	00		 jne	 $LN17@OnRenderTo@3
  000cc	8b ce		 mov	 ecx, esi
  000ce	e8 00 00 00 00	 call	 ?GetHours@CTimeSpan@ATL@@QBEJXZ ; ATL::CTimeSpan::GetHours
  000d3	85 c0		 test	 eax, eax
  000d5	0f 85 c5 00 00
	00		 jne	 $LN17@OnRenderTo@3
  000db	8b ce		 mov	 ecx, esi
  000dd	e8 00 00 00 00	 call	 ?GetMinutes@CTimeSpan@ATL@@QBEJXZ ; ATL::CTimeSpan::GetMinutes
  000e2	83 f8 01	 cmp	 eax, 1
  000e5	0f 8d b5 00 00
	00		 jge	 $LN17@OnRenderTo@3

; 826  : 	{
; 827  : 		ioComplexStringPrinter kMentPrinter;

  000eb	8d 8d 7c ff ff
	ff		 lea	 ecx, DWORD PTR _kMentPrinter$557528[ebp]
  000f1	e8 00 00 00 00	 call	 ??0ioComplexStringPrinter@@QAE@XZ ; ioComplexStringPrinter::ioComplexStringPrinter

; 828  : 		kMentPrinter.SetTextStyle( TS_NORMAL );

  000f6	57		 push	 edi
  000f7	8d 8d 7c ff ff
	ff		 lea	 ecx, DWORD PTR _kMentPrinter$557528[ebp]
  000fd	89 7d fc	 mov	 DWORD PTR __$EHRec$[ebp+8], edi
  00100	e8 00 00 00 00	 call	 ?SetTextStyle@ioComplexStringPrinter@@QAEXW4TextStyle@@@Z ; ioComplexStringPrinter::SetTextStyle

; 829  : 		kMentPrinter.SetTextColor( 0xFFFFF150 );

  00105	68 50 f1 ff ff	 push	 -3760			; fffff150H
  0010a	8d 8d 7c ff ff
	ff		 lea	 ecx, DWORD PTR _kMentPrinter$557528[ebp]
  00110	e8 00 00 00 00	 call	 ?SetTextColor@ioComplexStringPrinter@@QAEXK@Z ; ioComplexStringPrinter::SetTextColor

; 830  : 		kMentPrinter.AddTextPiece( FONT_SIZE_16, STR(1) );

  00115	57		 push	 edi
  00116	6a 01		 push	 1
  00118	68 00 00 00 00	 push	 OFFSET ??_C@_00CNPNBAHC@?$AA@
  0011d	68 00 00 00 00	 push	 OFFSET ??_C@_0CH@DOFGKDDE@MenuBtn?3?3OnRenderTooltipSecretSh@
  00122	ff 15 00 00 00
	00		 call	 DWORD PTR __imp_?GetSingleton@ioStringManager@@SAAAV1@XZ
  00128	8b c8		 mov	 ecx, eax
  0012a	ff 15 00 00 00
	00		 call	 DWORD PTR __imp_?GetString@ioStringManager@@QAEPADPBD0HW4FileNamePrefix@1@@Z
  00130	f3 0f 10 05 00
	00 00 00	 movss	 xmm0, DWORD PTR __real@3f4ccccd
  00138	50		 push	 eax
  00139	51		 push	 ecx
  0013a	8d 85 7c ff ff
	ff		 lea	 eax, DWORD PTR _kMentPrinter$557528[ebp]
  00140	f3 0f 11 04 24	 movss	 DWORD PTR [esp], xmm0
  00145	50		 push	 eax
  00146	e8 00 00 00 00	 call	 ?AddTextPiece@ioComplexStringPrinter@@QAAXMPBDZZ ; ioComplexStringPrinter::AddTextPiece

; 831  : 		kMentPrinter.PrintFullText( fXPos - 30, fYPos - 34, TAT_CENTER );

  0014b	f3 0f 10 45 0c	 movss	 xmm0, DWORD PTR _fYPos$[ebp]
  00150	83 c4 0c	 add	 esp, 12			; 0000000cH
  00153	68 ff 00 00 00	 push	 255			; 000000ffH
  00158	0f 5a c0	 cvtps2pd xmm0, xmm0
  0015b	f2 0f 5c 05 00
	00 00 00	 subsd	 xmm0, QWORD PTR __real@4041000000000000
  00163	6a 01		 push	 1
  00165	f2 0f 5a c0	 cvtsd2ss xmm0, xmm0
  00169	51		 push	 ecx
  0016a	51		 push	 ecx
  0016b	f3 0f 11 44 24
	04		 movss	 DWORD PTR [esp+4], xmm0
  00171	f3 0f 10 45 08	 movss	 xmm0, DWORD PTR _fXPos$[ebp]
  00176	0f 5a c0	 cvtps2pd xmm0, xmm0
  00179	f2 0f 5c 05 00
	00 00 00	 subsd	 xmm0, QWORD PTR __real@403e000000000000
  00181	f2 0f 5a c0	 cvtsd2ss xmm0, xmm0
  00185	8d 8d 7c ff ff
	ff		 lea	 ecx, DWORD PTR _kMentPrinter$557528[ebp]
  0018b	f3 0f 11 04 24	 movss	 DWORD PTR [esp], xmm0
  00190	e8 00 00 00 00	 call	 ?PrintFullText@ioComplexStringPrinter@@QAEXMMW4TextAlignType@@E@Z ; ioComplexStringPrinter::PrintFullText

; 832  : 	}

  00195	8d 8d 7c ff ff
	ff		 lea	 ecx, DWORD PTR _kMentPrinter$557528[ebp]

; 833  : 	else

  0019b	e9 a3 02 00 00	 jmp	 $LN74@OnRenderTo@3
$LN17@OnRenderTo@3:

; 834  : 	{
; 835  : 		if( m_pRedTooltipText )

  001a0	39 bb 48 02 00
	00		 cmp	 DWORD PTR [ebx+584], edi
  001a6	74 45		 je	 SHORT $LN15@OnRenderTo@3

; 836  : 			m_pRedTooltipText->Render( fXPos - 64, fYPos - 39 );

  001a8	f3 0f 10 45 0c	 movss	 xmm0, DWORD PTR _fYPos$[ebp]
  001ad	8b 83 48 02 00
	00		 mov	 eax, DWORD PTR [ebx+584]
  001b3	8b 10		 mov	 edx, DWORD PTR [eax]
  001b5	57		 push	 edi
  001b6	57		 push	 edi
  001b7	57		 push	 edi
  001b8	0f 5a c0	 cvtps2pd xmm0, xmm0
  001bb	f2 0f 5c 05 00
	00 00 00	 subsd	 xmm0, QWORD PTR __real@4043800000000000
  001c3	57		 push	 edi
  001c4	f2 0f 5a c0	 cvtsd2ss xmm0, xmm0
  001c8	51		 push	 ecx
  001c9	51		 push	 ecx
  001ca	f3 0f 11 44 24
	04		 movss	 DWORD PTR [esp+4], xmm0
  001d0	f3 0f 10 45 08	 movss	 xmm0, DWORD PTR _fXPos$[ebp]
  001d5	0f 5a c0	 cvtps2pd xmm0, xmm0
  001d8	f2 0f 5c 05 00
	00 00 00	 subsd	 xmm0, QWORD PTR __real@4050000000000000
  001e0	f2 0f 5a c0	 cvtsd2ss xmm0, xmm0
  001e4	8b c8		 mov	 ecx, eax
  001e6	f3 0f 11 04 24	 movss	 DWORD PTR [esp], xmm0
  001eb	ff 12		 call	 DWORD PTR [edx]
$LN15@OnRenderTo@3:

; 837  : 
; 838  : 		ioComplexStringPrinter kTimePrinter;

  001ed	8d 4d 9c	 lea	 ecx, DWORD PTR _kTimePrinter$557532[ebp]
  001f0	e8 00 00 00 00	 call	 ??0ioComplexStringPrinter@@QAE@XZ ; ioComplexStringPrinter::ioComplexStringPrinter

; 839  : 		kTimePrinter.SetTextStyle( TS_NORMAL );

  001f5	57		 push	 edi
  001f6	8d 4d 9c	 lea	 ecx, DWORD PTR _kTimePrinter$557532[ebp]
  001f9	c7 45 fc 01 00
	00 00		 mov	 DWORD PTR __$EHRec$[ebp+8], 1
  00200	e8 00 00 00 00	 call	 ?SetTextStyle@ioComplexStringPrinter@@QAEXW4TextStyle@@@Z ; ioComplexStringPrinter::SetTextStyle

; 840  : 		kTimePrinter.SetTextColor( TCT_DEFAULT_WHITE );

  00205	6a ff		 push	 -1
  00207	8d 4d 9c	 lea	 ecx, DWORD PTR _kTimePrinter$557532[ebp]
  0020a	e8 00 00 00 00	 call	 ?SetTextColor@ioComplexStringPrinter@@QAEXK@Z ; ioComplexStringPrinter::SetTextColor

; 841  : 
; 842  : 		if( 0 < CloseGap.GetDays() )

  0020f	57		 push	 edi
  00210	68 80 51 01 00	 push	 86400			; 00015180H
  00215	ff 76 04	 push	 DWORD PTR [esi+4]
  00218	ff 36		 push	 DWORD PTR [esi]
  0021a	e8 00 00 00 00	 call	 __alldiv
  0021f	3b d7		 cmp	 edx, edi
  00221	0f 8c f2 00 00
	00		 jl	 $LN14@OnRenderTo@3
  00227	7f 08		 jg	 SHORT $LN70@OnRenderTo@3
  00229	3b c7		 cmp	 eax, edi
  0022b	0f 86 e8 00 00
	00		 jbe	 $LN14@OnRenderTo@3
$LN70@OnRenderTo@3:

; 843  : 		{
; 844  : 			TIME_NUMBER( szHour, CloseGap.GetHours() + CloseGap.GetDays() * 24 );

  00231	57		 push	 edi
  00232	6a 18		 push	 24			; 00000018H
  00234	52		 push	 edx
  00235	50		 push	 eax
  00236	e8 00 00 00 00	 call	 __allmul
  0023b	8b ce		 mov	 ecx, esi
  0023d	89 45 c4	 mov	 DWORD PTR tv546[ebp], eax
  00240	89 55 c8	 mov	 DWORD PTR tv546[ebp+4], edx
  00243	e8 00 00 00 00	 call	 ?GetHours@CTimeSpan@ATL@@QBEJXZ ; ATL::CTimeSpan::GetHours
  00248	99		 cdq
  00249	03 45 c4	 add	 eax, DWORD PTR tv546[ebp]
  0024c	bb 00 00 00 00	 mov	 ebx, OFFSET ??_C@_02DPKJAMEF@?$CFd?$AA@
  00251	13 55 c8	 adc	 edx, DWORD PTR tv546[ebp+4]
  00254	3b d7		 cmp	 edx, edi
  00256	7f 1e		 jg	 SHORT $LN13@OnRenderTo@3
  00258	7c 05		 jl	 SHORT $LN71@OnRenderTo@3
  0025a	83 f8 0a	 cmp	 eax, 10			; 0000000aH
  0025d	73 17		 jae	 SHORT $LN13@OnRenderTo@3
$LN71@OnRenderTo@3:
  0025f	8b ce		 mov	 ecx, esi
  00261	e8 00 00 00 00	 call	 ?GetHours@CTimeSpan@ATL@@QBEJXZ ; ATL::CTimeSpan::GetHours
  00266	99		 cdq
  00267	03 45 c4	 add	 eax, DWORD PTR tv546[ebp]
  0026a	13 55 c8	 adc	 edx, DWORD PTR tv546[ebp+4]
  0026d	52		 push	 edx
  0026e	50		 push	 eax
  0026f	68 00 00 00 00	 push	 OFFSET ??_C@_03BBIHPCOK@0?$CFd?$AA@
  00274	eb 11		 jmp	 SHORT $LN75@OnRenderTo@3
$LN13@OnRenderTo@3:
  00276	8b ce		 mov	 ecx, esi
  00278	e8 00 00 00 00	 call	 ?GetHours@CTimeSpan@ATL@@QBEJXZ ; ATL::CTimeSpan::GetHours
  0027d	99		 cdq
  0027e	03 45 c4	 add	 eax, DWORD PTR tv546[ebp]
  00281	13 55 c8	 adc	 edx, DWORD PTR tv546[ebp+4]
  00284	52		 push	 edx
  00285	50		 push	 eax
  00286	53		 push	 ebx
$LN75@OnRenderTo@3:
  00287	8b 3d 00 00 00
	00		 mov	 edi, DWORD PTR __imp__sprintf
  0028d	8d 45 d8	 lea	 eax, DWORD PTR _szHour$557535[ebp]
  00290	50		 push	 eax
  00291	ff d7		 call	 edi
  00293	83 c4 10	 add	 esp, 16			; 00000010H

; 845  : 			TIME_NUMBER( szMin,	 CloseGap.GetMinutes() );

  00296	8b ce		 mov	 ecx, esi
  00298	e8 00 00 00 00	 call	 ?GetMinutes@CTimeSpan@ATL@@QBEJXZ ; ATL::CTimeSpan::GetMinutes
  0029d	8b ce		 mov	 ecx, esi
  0029f	83 f8 0a	 cmp	 eax, 10			; 0000000aH
  002a2	7d 0d		 jge	 SHORT $LN11@OnRenderTo@3
  002a4	e8 00 00 00 00	 call	 ?GetMinutes@CTimeSpan@ATL@@QBEJXZ ; ATL::CTimeSpan::GetMinutes
  002a9	50		 push	 eax
  002aa	68 00 00 00 00	 push	 OFFSET ??_C@_03BBIHPCOK@0?$CFd?$AA@
  002af	eb 07		 jmp	 SHORT $LN76@OnRenderTo@3
$LN11@OnRenderTo@3:
  002b1	e8 00 00 00 00	 call	 ?GetMinutes@CTimeSpan@ATL@@QBEJXZ ; ATL::CTimeSpan::GetMinutes
  002b6	50		 push	 eax
  002b7	53		 push	 ebx
$LN76@OnRenderTo@3:
  002b8	8d 45 e4	 lea	 eax, DWORD PTR _szMin$557539[ebp]
  002bb	50		 push	 eax
  002bc	ff d7		 call	 edi

; 846  : 			TIME_NUMBER( szSec,	 CloseGap.GetSeconds() );

  002be	8b 06		 mov	 eax, DWORD PTR [esi]
  002c0	8b 76 04	 mov	 esi, DWORD PTR [esi+4]
  002c3	83 c4 0c	 add	 esp, 12			; 0000000cH
  002c6	6a 00		 push	 0
  002c8	6a 3c		 push	 60			; 0000003cH
  002ca	56		 push	 esi
  002cb	50		 push	 eax
  002cc	89 45 c4	 mov	 DWORD PTR tv521[ebp], eax
  002cf	89 45 bc	 mov	 DWORD PTR $T563276[ebp], eax
  002d2	89 75 c0	 mov	 DWORD PTR $T563276[ebp+4], esi
  002d5	e8 00 00 00 00	 call	 __alldiv
  002da	6b c0 3c	 imul	 eax, 60			; 0000003cH
  002dd	8b 4d bc	 mov	 ecx, DWORD PTR $T563276[ebp]
  002e0	2b c8		 sub	 ecx, eax
  002e2	83 f9 0a	 cmp	 ecx, 10			; 0000000aH
  002e5	8b 4d c4	 mov	 ecx, DWORD PTR tv521[ebp]
  002e8	89 75 c0	 mov	 DWORD PTR $T563290[ebp+4], esi
  002eb	7d 0a		 jge	 SHORT $LN9@OnRenderTo@3
  002ed	2b c8		 sub	 ecx, eax
  002ef	51		 push	 ecx
  002f0	68 00 00 00 00	 push	 OFFSET ??_C@_03BBIHPCOK@0?$CFd?$AA@
  002f5	eb 04		 jmp	 SHORT $LN77@OnRenderTo@3
$LN9@OnRenderTo@3:
  002f7	2b c8		 sub	 ecx, eax
  002f9	51		 push	 ecx
  002fa	53		 push	 ebx
$LN77@OnRenderTo@3:
  002fb	8d 45 cc	 lea	 eax, DWORD PTR _szSec$557542[ebp]
  002fe	50		 push	 eax
  002ff	ff d7		 call	 edi
  00301	83 c4 0c	 add	 esp, 12			; 0000000cH

; 847  : 			kTimePrinter.AddTextPiece( FONT_SIZE_12, STR(2), szHour, szMin, szSec );

  00304	8d 45 cc	 lea	 eax, DWORD PTR _szSec$557542[ebp]
  00307	50		 push	 eax
  00308	8d 45 e4	 lea	 eax, DWORD PTR _szMin$557539[ebp]
  0030b	50		 push	 eax
  0030c	8d 45 d8	 lea	 eax, DWORD PTR _szHour$557535[ebp]
  0030f	50		 push	 eax
  00310	6a 00		 push	 0
  00312	6a 02		 push	 2

; 848  : 			kTimePrinter.PrintFullText( fXPos - 30, fYPos - 26, TAT_CENTER );
; 849  : 		}
; 850  : 		else

  00314	e9 b4 00 00 00	 jmp	 $LN78@OnRenderTo@3
$LN14@OnRenderTo@3:

; 851  : 		{
; 852  : 			TIME_NUMBER( szHour, CloseGap.GetHours() );

  00319	8b ce		 mov	 ecx, esi
  0031b	e8 00 00 00 00	 call	 ?GetHours@CTimeSpan@ATL@@QBEJXZ ; ATL::CTimeSpan::GetHours
  00320	bb 00 00 00 00	 mov	 ebx, OFFSET ??_C@_02DPKJAMEF@?$CFd?$AA@
  00325	8b ce		 mov	 ecx, esi
  00327	83 f8 0a	 cmp	 eax, 10			; 0000000aH
  0032a	7d 0d		 jge	 SHORT $LN6@OnRenderTo@3
  0032c	e8 00 00 00 00	 call	 ?GetHours@CTimeSpan@ATL@@QBEJXZ ; ATL::CTimeSpan::GetHours
  00331	50		 push	 eax
  00332	68 00 00 00 00	 push	 OFFSET ??_C@_03BBIHPCOK@0?$CFd?$AA@
  00337	eb 07		 jmp	 SHORT $LN79@OnRenderTo@3
$LN6@OnRenderTo@3:
  00339	e8 00 00 00 00	 call	 ?GetHours@CTimeSpan@ATL@@QBEJXZ ; ATL::CTimeSpan::GetHours
  0033e	50		 push	 eax
  0033f	53		 push	 ebx
$LN79@OnRenderTo@3:
  00340	8b 3d 00 00 00
	00		 mov	 edi, DWORD PTR __imp__sprintf
  00346	8d 45 cc	 lea	 eax, DWORD PTR _szHour$557546[ebp]
  00349	50		 push	 eax
  0034a	ff d7		 call	 edi
  0034c	83 c4 0c	 add	 esp, 12			; 0000000cH

; 853  : 			TIME_NUMBER( szMin,	 CloseGap.GetMinutes() );

  0034f	8b ce		 mov	 ecx, esi
  00351	e8 00 00 00 00	 call	 ?GetMinutes@CTimeSpan@ATL@@QBEJXZ ; ATL::CTimeSpan::GetMinutes
  00356	8b ce		 mov	 ecx, esi
  00358	83 f8 0a	 cmp	 eax, 10			; 0000000aH
  0035b	7d 0d		 jge	 SHORT $LN4@OnRenderTo@3
  0035d	e8 00 00 00 00	 call	 ?GetMinutes@CTimeSpan@ATL@@QBEJXZ ; ATL::CTimeSpan::GetMinutes
  00362	50		 push	 eax
  00363	68 00 00 00 00	 push	 OFFSET ??_C@_03BBIHPCOK@0?$CFd?$AA@
  00368	eb 07		 jmp	 SHORT $LN80@OnRenderTo@3
$LN4@OnRenderTo@3:
  0036a	e8 00 00 00 00	 call	 ?GetMinutes@CTimeSpan@ATL@@QBEJXZ ; ATL::CTimeSpan::GetMinutes
  0036f	50		 push	 eax
  00370	53		 push	 ebx
$LN80@OnRenderTo@3:
  00371	8d 45 e4	 lea	 eax, DWORD PTR _szMin$557549[ebp]
  00374	50		 push	 eax
  00375	ff d7		 call	 edi

; 854  : 			TIME_NUMBER( szSec,	 CloseGap.GetSeconds() );

  00377	8b 06		 mov	 eax, DWORD PTR [esi]
  00379	8b 76 04	 mov	 esi, DWORD PTR [esi+4]
  0037c	83 c4 0c	 add	 esp, 12			; 0000000cH
  0037f	6a 00		 push	 0
  00381	6a 3c		 push	 60			; 0000003cH
  00383	56		 push	 esi
  00384	50		 push	 eax
  00385	89 45 c4	 mov	 DWORD PTR tv521[ebp], eax
  00388	89 45 bc	 mov	 DWORD PTR $T563318[ebp], eax
  0038b	89 75 c0	 mov	 DWORD PTR $T563318[ebp+4], esi
  0038e	e8 00 00 00 00	 call	 __alldiv
  00393	6b c0 3c	 imul	 eax, 60			; 0000003cH
  00396	8b 4d bc	 mov	 ecx, DWORD PTR $T563318[ebp]
  00399	2b c8		 sub	 ecx, eax
  0039b	83 f9 0a	 cmp	 ecx, 10			; 0000000aH
  0039e	8b 4d c4	 mov	 ecx, DWORD PTR tv521[ebp]
  003a1	89 75 c0	 mov	 DWORD PTR $T563332[ebp+4], esi
  003a4	7d 0a		 jge	 SHORT $LN2@OnRenderTo@3
  003a6	2b c8		 sub	 ecx, eax
  003a8	51		 push	 ecx
  003a9	68 00 00 00 00	 push	 OFFSET ??_C@_03BBIHPCOK@0?$CFd?$AA@
  003ae	eb 04		 jmp	 SHORT $LN81@OnRenderTo@3
$LN2@OnRenderTo@3:
  003b0	2b c8		 sub	 ecx, eax
  003b2	51		 push	 ecx
  003b3	53		 push	 ebx
$LN81@OnRenderTo@3:
  003b4	8d 45 d8	 lea	 eax, DWORD PTR _szSec$557552[ebp]
  003b7	50		 push	 eax
  003b8	ff d7		 call	 edi
  003ba	83 c4 0c	 add	 esp, 12			; 0000000cH

; 855  : 			kTimePrinter.AddTextPiece( FONT_SIZE_12, STR(3), szHour, szMin, szSec );

  003bd	8d 45 d8	 lea	 eax, DWORD PTR _szSec$557552[ebp]
  003c0	50		 push	 eax
  003c1	8d 45 e4	 lea	 eax, DWORD PTR _szMin$557549[ebp]
  003c4	50		 push	 eax
  003c5	8d 45 cc	 lea	 eax, DWORD PTR _szHour$557546[ebp]
  003c8	50		 push	 eax
  003c9	6a 00		 push	 0
  003cb	6a 03		 push	 3
$LN78@OnRenderTo@3:
  003cd	68 00 00 00 00	 push	 OFFSET ??_C@_00CNPNBAHC@?$AA@
  003d2	68 00 00 00 00	 push	 OFFSET ??_C@_0CH@DOFGKDDE@MenuBtn?3?3OnRenderTooltipSecretSh@
  003d7	ff 15 00 00 00
	00		 call	 DWORD PTR __imp_?GetSingleton@ioStringManager@@SAAAV1@XZ
  003dd	8b c8		 mov	 ecx, eax
  003df	ff 15 00 00 00
	00		 call	 DWORD PTR __imp_?GetString@ioStringManager@@QAEPADPBD0HW4FileNamePrefix@1@@Z
  003e5	f3 0f 10 05 00
	00 00 00	 movss	 xmm0, DWORD PTR __real@3f19999a
  003ed	50		 push	 eax
  003ee	51		 push	 ecx
  003ef	8d 4d 9c	 lea	 ecx, DWORD PTR _kTimePrinter$557532[ebp]
  003f2	f3 0f 11 04 24	 movss	 DWORD PTR [esp], xmm0
  003f7	e8 00 00 00 00	 call	 ?AddTextPiece@ioComplexStringPrinter@@QAEXMPBD000@Z ; ioComplexStringPrinter::AddTextPiece

; 856  : 			kTimePrinter.PrintFullText( fXPos - 30, fYPos - 26, TAT_CENTER );

  003fc	f3 0f 10 45 0c	 movss	 xmm0, DWORD PTR _fYPos$[ebp]
  00401	68 ff 00 00 00	 push	 255			; 000000ffH
  00406	0f 5a c0	 cvtps2pd xmm0, xmm0
  00409	f2 0f 5c 05 00
	00 00 00	 subsd	 xmm0, QWORD PTR __real@403a000000000000
  00411	6a 01		 push	 1
  00413	51		 push	 ecx
  00414	f2 0f 5a c0	 cvtsd2ss xmm0, xmm0
  00418	51		 push	 ecx
  00419	f3 0f 11 44 24
	04		 movss	 DWORD PTR [esp+4], xmm0
  0041f	f3 0f 10 45 08	 movss	 xmm0, DWORD PTR _fXPos$[ebp]
  00424	0f 5a c0	 cvtps2pd xmm0, xmm0
  00427	f2 0f 5c 05 00
	00 00 00	 subsd	 xmm0, QWORD PTR __real@403e000000000000
  0042f	f2 0f 5a c0	 cvtsd2ss xmm0, xmm0
  00433	8d 4d 9c	 lea	 ecx, DWORD PTR _kTimePrinter$557532[ebp]
  00436	f3 0f 11 04 24	 movss	 DWORD PTR [esp], xmm0
  0043b	e8 00 00 00 00	 call	 ?PrintFullText@ioComplexStringPrinter@@QAEXMMW4TextAlignType@@E@Z ; ioComplexStringPrinter::PrintFullText

; 857  : 		}
; 858  : 	}

  00440	8d 4d 9c	 lea	 ecx, DWORD PTR _kTimePrinter$557532[ebp]
$LN74@OnRenderTo@3:
  00443	83 4d fc ff	 or	 DWORD PTR __$EHRec$[ebp+8], -1
  00447	e8 00 00 00 00	 call	 ??1ioComplexStringPrinter@@QAE@XZ ; ioComplexStringPrinter::~ioComplexStringPrinter

; 859  : }

  0044c	e8 00 00 00 00	 call	 __EH_epilog3_GS
  00451	c2 0c 00	 ret	 12			; 0000000cH
_TEXT	ENDS
;	COMDAT text$x
text$x	SEGMENT
__unwindfunclet$?OnRenderTooltipSecretShopOpen@MenuBtn@@QAEXMMABVCTimeSpan@ATL@@@Z$0:
  00000	8d 8d 7c ff ff
	ff		 lea	 ecx, DWORD PTR _kMentPrinter$557528[ebp]
  00006	e9 00 00 00 00	 jmp	 ??1ioComplexStringPrinter@@QAE@XZ ; ioComplexStringPrinter::~ioComplexStringPrinter
__unwindfunclet$?OnRenderTooltipSecretShopOpen@MenuBtn@@QAEXMMABVCTimeSpan@ATL@@@Z$1:
  0000b	8d 4d 9c	 lea	 ecx, DWORD PTR _kTimePrinter$557532[ebp]
  0000e	e9 00 00 00 00	 jmp	 ??1ioComplexStringPrinter@@QAE@XZ ; ioComplexStringPrinter::~ioComplexStringPrinter
__ehhandler$?OnRenderTooltipSecretShopOpen@MenuBtn@@QAEXMMABVCTimeSpan@ATL@@@Z:
  00013	8b 54 24 08	 mov	 edx, DWORD PTR [esp+8]
  00017	8d 42 0c	 lea	 eax, DWORD PTR [edx+12]
  0001a	8b 8a 78 ff ff
	ff		 mov	 ecx, DWORD PTR [edx-136]
  00020	33 c8		 xor	 ecx, eax
  00022	e8 00 00 00 00	 call	 @__security_check_cookie@4
  00027	8b 4a fc	 mov	 ecx, DWORD PTR [edx-4]
  0002a	33 c8		 xor	 ecx, eax
  0002c	e8 00 00 00 00	 call	 @__security_check_cookie@4
  00031	b8 00 00 00 00	 mov	 eax, OFFSET __ehfuncinfo$?OnRenderTooltipSecretShopOpen@MenuBtn@@QAEXMMABVCTimeSpan@ATL@@@Z
  00036	e9 00 00 00 00	 jmp	 ___CxxFrameHandler3
text$x	ENDS
?OnRenderTooltipSecretShopOpen@MenuBtn@@QAEXMMABVCTimeSpan@ATL@@@Z ENDP ; MenuBtn::OnRenderTooltipSecretShopOpen
PUBLIC	__real@4031000000000000
PUBLIC	__real@402c000000000000
PUBLIC	__real@3fe0000000000000
PUBLIC	__real@4018000000000000
PUBLIC	__real@403c000000000000
PUBLIC	__real@4034000000000000
PUBLIC	??_C@_0BO@DKNNMJFD@MenuBtn?3?3OnRenderTooltipEvent?$AA@ ; `string'
PUBLIC	?OnRenderTooltipEvent@MenuBtn@@QAEXMM@Z		; MenuBtn::OnRenderTooltipEvent
EXTRN	?AddTextPiece@ioComplexStringPrinter@@QAEXMPBDH@Z:PROC ; ioComplexStringPrinter::AddTextPiece
;	COMDAT __real@4031000000000000
; File d:\lost saga for developer\youtube\tutorial\source\src\lsclient\iocomplexstringprinter.h
CONST	SEGMENT
__real@4031000000000000 DQ 04031000000000000r	; 17
CONST	ENDS
;	COMDAT __real@402c000000000000
CONST	SEGMENT
__real@402c000000000000 DQ 0402c000000000000r	; 14
CONST	ENDS
;	COMDAT __real@3fe0000000000000
CONST	SEGMENT
__real@3fe0000000000000 DQ 03fe0000000000000r	; 0.5
CONST	ENDS
;	COMDAT __real@4018000000000000
CONST	SEGMENT
__real@4018000000000000 DQ 04018000000000000r	; 6
CONST	ENDS
;	COMDAT __real@403c000000000000
CONST	SEGMENT
__real@403c000000000000 DQ 0403c000000000000r	; 28
CONST	ENDS
;	COMDAT __real@4034000000000000
CONST	SEGMENT
__real@4034000000000000 DQ 04034000000000000r	; 20
CONST	ENDS
;	COMDAT ??_C@_0BO@DKNNMJFD@MenuBtn?3?3OnRenderTooltipEvent?$AA@
CONST	SEGMENT
??_C@_0BO@DKNNMJFD@MenuBtn?3?3OnRenderTooltipEvent?$AA@ DB 'MenuBtn::OnRe'
	DB	'nderTooltipEvent', 00H			; `string'
CONST	ENDS
;	COMDAT xdata$x
xdata$x	SEGMENT
__unwindtable$?OnRenderTooltipEvent@MenuBtn@@QAEXMM@Z DD 0ffffffffH
	DD	FLAT:__unwindfunclet$?OnRenderTooltipEvent@MenuBtn@@QAEXMM@Z$0
	DD	00H
	DD	FLAT:__unwindfunclet$?OnRenderTooltipEvent@MenuBtn@@QAEXMM@Z$1
__ehfuncinfo$?OnRenderTooltipEvent@MenuBtn@@QAEXMM@Z DD 019930522H
	DD	02H
	DD	FLAT:__unwindtable$?OnRenderTooltipEvent@MenuBtn@@QAEXMM@Z
	DD	2 DUP(00H)
	DD	2 DUP(00H)
	DD	00H
	DD	01H
; Function compile flags: /Ogsp
; File d:\lost saga for developer\youtube\tutorial\source\src\lsclient\gui\helpwnd.cpp
xdata$x	ENDS
;	COMDAT ?OnRenderTooltipEvent@MenuBtn@@QAEXMM@Z
_TEXT	SEGMENT
_kMentPrinter$ = -80					; size = 32
_kCountPrinter$ = -48					; size = 32
_this$ = -16						; size = 4
__$EHRec$ = -12						; size = 12
tv252 = 8						; size = 4
_fXPos$ = 8						; size = 4
_fYPos$ = 12						; size = 4
?OnRenderTooltipEvent@MenuBtn@@QAEXMM@Z PROC		; MenuBtn::OnRenderTooltipEvent, COMDAT
; _this$ = ecx

; 862  : {

  00000	6a 44		 push	 68			; 00000044H
  00002	b8 00 00 00 00	 mov	 eax, __ehhandler$?OnRenderTooltipEvent@MenuBtn@@QAEXMM@Z
  00007	e8 00 00 00 00	 call	 __EH_prolog3
  0000c	89 4d f0	 mov	 DWORD PTR _this$[ebp], ecx

; 863  : 	ioComplexStringPrinter kMentPrinter;

  0000f	8d 4d b0	 lea	 ecx, DWORD PTR _kMentPrinter$[ebp]
  00012	e8 00 00 00 00	 call	 ??0ioComplexStringPrinter@@QAE@XZ ; ioComplexStringPrinter::ioComplexStringPrinter
  00017	33 f6		 xor	 esi, esi

; 864  : 	ioComplexStringPrinter kCountPrinter;

  00019	8d 4d d0	 lea	 ecx, DWORD PTR _kCountPrinter$[ebp]
  0001c	89 75 fc	 mov	 DWORD PTR __$EHRec$[ebp+8], esi
  0001f	e8 00 00 00 00	 call	 ??0ioComplexStringPrinter@@QAE@XZ ; ioComplexStringPrinter::ioComplexStringPrinter

; 865  : 
; 866  : 	kMentPrinter.SetTextStyle( TS_NORMAL );

  00024	56		 push	 esi
  00025	8d 4d b0	 lea	 ecx, DWORD PTR _kMentPrinter$[ebp]
  00028	c6 45 fc 01	 mov	 BYTE PTR __$EHRec$[ebp+8], 1
  0002c	e8 00 00 00 00	 call	 ?SetTextStyle@ioComplexStringPrinter@@QAEXW4TextStyle@@@Z ; ioComplexStringPrinter::SetTextStyle

; 867  : 	kMentPrinter.SetTextColor( TCT_DEFAULT_DARKGRAY );

  00031	68 3a 3a 3a ff	 push	 -12961222		; ff3a3a3aH
  00036	8d 4d b0	 lea	 ecx, DWORD PTR _kMentPrinter$[ebp]
  00039	e8 00 00 00 00	 call	 ?SetTextColor@ioComplexStringPrinter@@QAEXK@Z ; ioComplexStringPrinter::SetTextColor

; 868  : 	kMentPrinter.AddTextPiece( FONT_SIZE_12, STR(1) );

  0003e	56		 push	 esi
  0003f	8b 35 00 00 00
	00		 mov	 esi, DWORD PTR __imp_?GetSingleton@ioStringManager@@SAAAV1@XZ
  00045	6a 01		 push	 1
  00047	68 00 00 00 00	 push	 OFFSET ??_C@_00CNPNBAHC@?$AA@
  0004c	bb 00 00 00 00	 mov	 ebx, OFFSET ??_C@_0BO@DKNNMJFD@MenuBtn?3?3OnRenderTooltipEvent?$AA@
  00051	53		 push	 ebx
  00052	ff d6		 call	 esi
  00054	8b 3d 00 00 00
	00		 mov	 edi, DWORD PTR __imp_?GetString@ioStringManager@@QAEPADPBD0HW4FileNamePrefix@1@@Z
  0005a	8b c8		 mov	 ecx, eax
  0005c	ff d7		 call	 edi
  0005e	f3 0f 10 05 00
	00 00 00	 movss	 xmm0, DWORD PTR __real@3f19999a
  00066	50		 push	 eax
  00067	51		 push	 ecx
  00068	8d 45 b0	 lea	 eax, DWORD PTR _kMentPrinter$[ebp]
  0006b	f3 0f 11 04 24	 movss	 DWORD PTR [esp], xmm0
  00070	50		 push	 eax
  00071	e8 00 00 00 00	 call	 ?AddTextPiece@ioComplexStringPrinter@@QAAXMPBDZZ ; ioComplexStringPrinter::AddTextPiece
  00076	83 c4 0c	 add	 esp, 12			; 0000000cH

; 869  : 
; 870  : 	kCountPrinter.SetTextStyle( TS_NORMAL );

  00079	6a 00		 push	 0
  0007b	8d 4d d0	 lea	 ecx, DWORD PTR _kCountPrinter$[ebp]
  0007e	e8 00 00 00 00	 call	 ?SetTextStyle@ioComplexStringPrinter@@QAEXW4TextStyle@@@Z ; ioComplexStringPrinter::SetTextStyle

; 871  : 	kCountPrinter.SetTextColor( TCT_DEFAULT_RED );

  00083	68 00 16 b9 ff	 push	 -4647424		; ffb91600H
  00088	8d 4d d0	 lea	 ecx, DWORD PTR _kCountPrinter$[ebp]
  0008b	e8 00 00 00 00	 call	 ?SetTextColor@ioComplexStringPrinter@@QAEXK@Z ; ioComplexStringPrinter::SetTextColor

; 872  : 	kCountPrinter.AddTextPiece( FONT_SIZE_12, STR(2), m_iEventItemCnt );

  00090	8b 45 f0	 mov	 eax, DWORD PTR _this$[ebp]
  00093	ff b0 60 02 00
	00		 push	 DWORD PTR [eax+608]
  00099	6a 00		 push	 0
  0009b	6a 02		 push	 2
  0009d	68 00 00 00 00	 push	 OFFSET ??_C@_00CNPNBAHC@?$AA@
  000a2	53		 push	 ebx
  000a3	ff d6		 call	 esi
  000a5	8b c8		 mov	 ecx, eax
  000a7	ff d7		 call	 edi
  000a9	f3 0f 10 05 00
	00 00 00	 movss	 xmm0, DWORD PTR __real@3f19999a
  000b1	50		 push	 eax
  000b2	51		 push	 ecx
  000b3	8d 4d d0	 lea	 ecx, DWORD PTR _kCountPrinter$[ebp]
  000b6	f3 0f 11 04 24	 movss	 DWORD PTR [esp], xmm0
  000bb	e8 00 00 00 00	 call	 ?AddTextPiece@ioComplexStringPrinter@@QAEXMPBDH@Z ; ioComplexStringPrinter::AddTextPiece

; 873  : 
; 874  : 	float fTextWidth = kMentPrinter.GetFullWidth() + 20;

  000c0	f3 0f 10 45 cc	 movss	 xmm0, DWORD PTR _kMentPrinter$[ebp+28]
  000c5	f2 0f 10 0d 00
	00 00 00	 movsd	 xmm1, QWORD PTR __real@4034000000000000

; 875  : 	if( fTextWidth < kCountPrinter.GetFullWidth() )

  000cd	f3 0f 10 5d ec	 movss	 xmm3, DWORD PTR _kCountPrinter$[ebp+28]
  000d2	0f 5a c0	 cvtps2pd xmm0, xmm0
  000d5	f2 0f 58 c1	 addsd	 xmm0, xmm1
  000d9	66 0f 5a c0	 cvtpd2ps xmm0, xmm0
  000dd	0f 57 d2	 xorps	 xmm2, xmm2
  000e0	f3 0f 5a d0	 cvtss2sd xmm2, xmm0
  000e4	0f 5a db	 cvtps2pd xmm3, xmm3
  000e7	66 0f 2f da	 comisd	 xmm3, xmm2
  000eb	76 10		 jbe	 SHORT $LN1@OnRenderTo@4

; 876  : 		fTextWidth = kCountPrinter.GetFullWidth() + 20;

  000ed	f3 0f 10 45 ec	 movss	 xmm0, DWORD PTR _kCountPrinter$[ebp+28]
  000f2	0f 5a c0	 cvtps2pd xmm0, xmm0
  000f5	f2 0f 58 c1	 addsd	 xmm0, xmm1
  000f9	f2 0f 5a c0	 cvtsd2ss xmm0, xmm0
$LN1@OnRenderTo@4:

; 877  : 
; 878  : 	fYPos -= 28;

  000fd	f3 0f 10 4d 0c	 movss	 xmm1, DWORD PTR _fYPos$[ebp]
  00102	0f 5a c9	 cvtps2pd xmm1, xmm1
  00105	f2 0f 5c 0d 00
	00 00 00	 subsd	 xmm1, QWORD PTR __real@403c000000000000
  0010d	66 0f 5a c9	 cvtpd2ps xmm1, xmm1
  00111	f3 0f 11 4d 0c	 movss	 DWORD PTR _fYPos$[ebp], xmm1

; 879  : 	OnRenderTooltipBar( ( fXPos + 7 ) - ( fTextWidth / 2 ), fYPos - 6, fTextWidth );

  00116	f3 0f 5a c9	 cvtss2sd xmm1, xmm1
  0011a	f2 0f 5c 0d 00
	00 00 00	 subsd	 xmm1, QWORD PTR __real@4018000000000000
  00122	f2 0f 2c c1	 cvttsd2si eax, xmm1
  00126	f3 0f 10 4d 08	 movss	 xmm1, DWORD PTR _fXPos$[ebp]
  0012b	51		 push	 ecx
  0012c	8b 4d f0	 mov	 ecx, DWORD PTR _this$[ebp]
  0012f	f3 0f 11 04 24	 movss	 DWORD PTR [esp], xmm0
  00134	0f 5a c9	 cvtps2pd xmm1, xmm1
  00137	f2 0f 58 0d 00
	00 00 00	 addsd	 xmm1, QWORD PTR __real@401c000000000000
  0013f	f3 0f 5a c0	 cvtss2sd xmm0, xmm0
  00143	f2 0f 59 05 00
	00 00 00	 mulsd	 xmm0, QWORD PTR __real@3fe0000000000000
  0014b	50		 push	 eax
  0014c	f2 0f 5c c8	 subsd	 xmm1, xmm0
  00150	f2 0f 2c c1	 cvttsd2si eax, xmm1
  00154	50		 push	 eax
  00155	e8 00 00 00 00	 call	 ?OnRenderTooltipBar@MenuBtn@@IAEXHHM@Z ; MenuBtn::OnRenderTooltipBar

; 880  : 	kMentPrinter.PrintFullText( fXPos + 14, fYPos + 4, TAT_CENTER );

  0015a	f3 0f 10 45 08	 movss	 xmm0, DWORD PTR _fXPos$[ebp]
  0015f	f3 0f 10 4d 0c	 movss	 xmm1, DWORD PTR _fYPos$[ebp]
  00164	be ff 00 00 00	 mov	 esi, 255		; 000000ffH
  00169	56		 push	 esi
  0016a	6a 01		 push	 1
  0016c	51		 push	 ecx
  0016d	0f 5a c9	 cvtps2pd xmm1, xmm1
  00170	f2 0f 58 0d 00
	00 00 00	 addsd	 xmm1, QWORD PTR __real@4010000000000000
  00178	51		 push	 ecx
  00179	0f 5a c0	 cvtps2pd xmm0, xmm0
  0017c	f2 0f 58 05 00
	00 00 00	 addsd	 xmm0, QWORD PTR __real@402c000000000000
  00184	f2 0f 5a c0	 cvtsd2ss xmm0, xmm0
  00188	f2 0f 5a c9	 cvtsd2ss xmm1, xmm1
  0018c	f3 0f 11 4c 24
	04		 movss	 DWORD PTR [esp+4], xmm1
  00192	8d 4d b0	 lea	 ecx, DWORD PTR _kMentPrinter$[ebp]
  00195	f3 0f 11 45 08	 movss	 DWORD PTR tv252[ebp], xmm0
  0019a	f3 0f 11 04 24	 movss	 DWORD PTR [esp], xmm0
  0019f	e8 00 00 00 00	 call	 ?PrintFullText@ioComplexStringPrinter@@QAEXMMW4TextAlignType@@E@Z ; ioComplexStringPrinter::PrintFullText

; 881  : 	kCountPrinter.PrintFullText( fXPos + 14, fYPos + 17, TAT_CENTER );

  001a4	f3 0f 10 45 0c	 movss	 xmm0, DWORD PTR _fYPos$[ebp]
  001a9	56		 push	 esi
  001aa	6a 01		 push	 1
  001ac	0f 5a c0	 cvtps2pd xmm0, xmm0
  001af	f2 0f 58 05 00
	00 00 00	 addsd	 xmm0, QWORD PTR __real@4031000000000000
  001b7	51		 push	 ecx
  001b8	51		 push	 ecx
  001b9	f2 0f 5a c0	 cvtsd2ss xmm0, xmm0
  001bd	f3 0f 11 44 24
	04		 movss	 DWORD PTR [esp+4], xmm0
  001c3	f3 0f 10 45 08	 movss	 xmm0, DWORD PTR tv252[ebp]
  001c8	8d 4d d0	 lea	 ecx, DWORD PTR _kCountPrinter$[ebp]
  001cb	f3 0f 11 04 24	 movss	 DWORD PTR [esp], xmm0
  001d0	e8 00 00 00 00	 call	 ?PrintFullText@ioComplexStringPrinter@@QAEXMMW4TextAlignType@@E@Z ; ioComplexStringPrinter::PrintFullText

; 882  : }

  001d5	8d 4d d0	 lea	 ecx, DWORD PTR _kCountPrinter$[ebp]
  001d8	c6 45 fc 00	 mov	 BYTE PTR __$EHRec$[ebp+8], 0
  001dc	e8 00 00 00 00	 call	 ??1ioComplexStringPrinter@@QAE@XZ ; ioComplexStringPrinter::~ioComplexStringPrinter
  001e1	83 4d fc ff	 or	 DWORD PTR __$EHRec$[ebp+8], -1
  001e5	8d 4d b0	 lea	 ecx, DWORD PTR _kMentPrinter$[ebp]
  001e8	e8 00 00 00 00	 call	 ??1ioComplexStringPrinter@@QAE@XZ ; ioComplexStringPrinter::~ioComplexStringPrinter
  001ed	e8 00 00 00 00	 call	 __EH_epilog3
  001f2	c2 08 00	 ret	 8
_TEXT	ENDS
;	COMDAT text$x
text$x	SEGMENT
__unwindfunclet$?OnRenderTooltipEvent@MenuBtn@@QAEXMM@Z$0:
  00000	8d 4d b0	 lea	 ecx, DWORD PTR _kMentPrinter$[ebp]
  00003	e9 00 00 00 00	 jmp	 ??1ioComplexStringPrinter@@QAE@XZ ; ioComplexStringPrinter::~ioComplexStringPrinter
__unwindfunclet$?OnRenderTooltipEvent@MenuBtn@@QAEXMM@Z$1:
  00008	8d 4d d0	 lea	 ecx, DWORD PTR _kCountPrinter$[ebp]
  0000b	e9 00 00 00 00	 jmp	 ??1ioComplexStringPrinter@@QAE@XZ ; ioComplexStringPrinter::~ioComplexStringPrinter
__ehhandler$?OnRenderTooltipEvent@MenuBtn@@QAEXMM@Z:
  00010	8b 54 24 08	 mov	 edx, DWORD PTR [esp+8]
  00014	8d 42 0c	 lea	 eax, DWORD PTR [edx+12]
  00017	8b 4a ac	 mov	 ecx, DWORD PTR [edx-84]
  0001a	33 c8		 xor	 ecx, eax
  0001c	e8 00 00 00 00	 call	 @__security_check_cookie@4
  00021	b8 00 00 00 00	 mov	 eax, OFFSET __ehfuncinfo$?OnRenderTooltipEvent@MenuBtn@@QAEXMM@Z
  00026	e9 00 00 00 00	 jmp	 ___CxxFrameHandler3
text$x	ENDS
?OnRenderTooltipEvent@MenuBtn@@QAEXMM@Z ENDP		; MenuBtn::OnRenderTooltipEvent
PUBLIC	??_C@_0CF@NKFFCHPN@MenuBtn?3?3OnRenderTooltipTimeGash@ ; `string'
PUBLIC	?OnRenderTooltipTimeGashapon@MenuBtn@@QAEXMM@Z	; MenuBtn::OnRenderTooltipTimeGashapon
EXTRN	?AddTextPiece@ioComplexStringPrinter@@QAEXMPBD0@Z:PROC ; ioComplexStringPrinter::AddTextPiece
EXTRN	__imp_?c_str@ioHashString@@QBEPBDXZ:PROC
;	COMDAT ??_C@_0CF@NKFFCHPN@MenuBtn?3?3OnRenderTooltipTimeGash@
; File d:\lost saga for developer\youtube\tutorial\source\src\lsclient\iocomplexstringprinter.h
CONST	SEGMENT
??_C@_0CF@NKFFCHPN@MenuBtn?3?3OnRenderTooltipTimeGash@ DB 'MenuBtn::OnRen'
	DB	'derTooltipTimeGashapon', 00H		; `string'
CONST	ENDS
;	COMDAT xdata$x
xdata$x	SEGMENT
__unwindtable$?OnRenderTooltipTimeGashapon@MenuBtn@@QAEXMM@Z DD 0ffffffffH
	DD	FLAT:__unwindfunclet$?OnRenderTooltipTimeGashapon@MenuBtn@@QAEXMM@Z$0
	DD	00H
	DD	FLAT:__unwindfunclet$?OnRenderTooltipTimeGashapon@MenuBtn@@QAEXMM@Z$1
__ehfuncinfo$?OnRenderTooltipTimeGashapon@MenuBtn@@QAEXMM@Z DD 019930522H
	DD	02H
	DD	FLAT:__unwindtable$?OnRenderTooltipTimeGashapon@MenuBtn@@QAEXMM@Z
	DD	2 DUP(00H)
	DD	2 DUP(00H)
	DD	00H
	DD	01H
; Function compile flags: /Ogsp
; File d:\lost saga for developer\youtube\tutorial\source\src\lsclient\gui\helpwnd.cpp
xdata$x	ENDS
;	COMDAT ?OnRenderTooltipTimeGashapon@MenuBtn@@QAEXMM@Z
_TEXT	SEGMENT
_kMentPrinter$ = -80					; size = 32
_kCountPrinter$ = -48					; size = 32
_this$ = -16						; size = 4
__$EHRec$ = -12						; size = 12
tv251 = 8						; size = 4
_fXPos$ = 8						; size = 4
_fYPos$ = 12						; size = 4
?OnRenderTooltipTimeGashapon@MenuBtn@@QAEXMM@Z PROC	; MenuBtn::OnRenderTooltipTimeGashapon, COMDAT
; _this$ = ecx

; 885  : {

  00000	6a 44		 push	 68			; 00000044H
  00002	b8 00 00 00 00	 mov	 eax, __ehhandler$?OnRenderTooltipTimeGashapon@MenuBtn@@QAEXMM@Z
  00007	e8 00 00 00 00	 call	 __EH_prolog3
  0000c	8b f1		 mov	 esi, ecx
  0000e	89 75 f0	 mov	 DWORD PTR _this$[ebp], esi

; 886  : 	ioComplexStringPrinter kMentPrinter;

  00011	8d 4d b0	 lea	 ecx, DWORD PTR _kMentPrinter$[ebp]
  00014	e8 00 00 00 00	 call	 ??0ioComplexStringPrinter@@QAE@XZ ; ioComplexStringPrinter::ioComplexStringPrinter
  00019	33 ff		 xor	 edi, edi

; 887  : 	ioComplexStringPrinter kCountPrinter;

  0001b	8d 4d d0	 lea	 ecx, DWORD PTR _kCountPrinter$[ebp]
  0001e	89 7d fc	 mov	 DWORD PTR __$EHRec$[ebp+8], edi
  00021	e8 00 00 00 00	 call	 ??0ioComplexStringPrinter@@QAE@XZ ; ioComplexStringPrinter::ioComplexStringPrinter

; 888  : 	kMentPrinter.SetTextStyle( TS_NORMAL );

  00026	57		 push	 edi
  00027	8d 4d b0	 lea	 ecx, DWORD PTR _kMentPrinter$[ebp]
  0002a	c6 45 fc 01	 mov	 BYTE PTR __$EHRec$[ebp+8], 1
  0002e	e8 00 00 00 00	 call	 ?SetTextStyle@ioComplexStringPrinter@@QAEXW4TextStyle@@@Z ; ioComplexStringPrinter::SetTextStyle

; 889  : 	kMentPrinter.SetTextColor( TCT_DEFAULT_DARKGRAY );

  00033	68 3a 3a 3a ff	 push	 -12961222		; ff3a3a3aH
  00038	8d 4d b0	 lea	 ecx, DWORD PTR _kMentPrinter$[ebp]
  0003b	e8 00 00 00 00	 call	 ?SetTextColor@ioComplexStringPrinter@@QAEXK@Z ; ioComplexStringPrinter::SetTextColor

; 890  : 	kMentPrinter.AddTextPiece( FONT_SIZE_12, STR(1),  m_szGashaponInfo.c_str() );

  00040	8d 8e 64 02 00
	00		 lea	 ecx, DWORD PTR [esi+612]
  00046	ff 15 00 00 00
	00		 call	 DWORD PTR __imp_?c_str@ioHashString@@QBEPBDXZ
  0004c	8b 35 00 00 00
	00		 mov	 esi, DWORD PTR __imp_?GetSingleton@ioStringManager@@SAAAV1@XZ
  00052	50		 push	 eax
  00053	57		 push	 edi
  00054	6a 01		 push	 1
  00056	68 00 00 00 00	 push	 OFFSET ??_C@_00CNPNBAHC@?$AA@
  0005b	bb 00 00 00 00	 mov	 ebx, OFFSET ??_C@_0CF@NKFFCHPN@MenuBtn?3?3OnRenderTooltipTimeGash@
  00060	53		 push	 ebx
  00061	ff d6		 call	 esi
  00063	8b 3d 00 00 00
	00		 mov	 edi, DWORD PTR __imp_?GetString@ioStringManager@@QAEPADPBD0HW4FileNamePrefix@1@@Z
  00069	8b c8		 mov	 ecx, eax
  0006b	ff d7		 call	 edi
  0006d	f3 0f 10 05 00
	00 00 00	 movss	 xmm0, DWORD PTR __real@3f19999a
  00075	50		 push	 eax
  00076	51		 push	 ecx
  00077	8d 4d b0	 lea	 ecx, DWORD PTR _kMentPrinter$[ebp]
  0007a	f3 0f 11 04 24	 movss	 DWORD PTR [esp], xmm0
  0007f	e8 00 00 00 00	 call	 ?AddTextPiece@ioComplexStringPrinter@@QAEXMPBD0@Z ; ioComplexStringPrinter::AddTextPiece

; 891  : 
; 892  : 	kCountPrinter.SetTextStyle( TS_NORMAL );

  00084	6a 00		 push	 0
  00086	8d 4d d0	 lea	 ecx, DWORD PTR _kCountPrinter$[ebp]
  00089	e8 00 00 00 00	 call	 ?SetTextStyle@ioComplexStringPrinter@@QAEXW4TextStyle@@@Z ; ioComplexStringPrinter::SetTextStyle

; 893  : 	kCountPrinter.SetTextColor( TCT_DEFAULT_RED );

  0008e	68 00 16 b9 ff	 push	 -4647424		; ffb91600H
  00093	8d 4d d0	 lea	 ecx, DWORD PTR _kCountPrinter$[ebp]
  00096	e8 00 00 00 00	 call	 ?SetTextColor@ioComplexStringPrinter@@QAEXK@Z ; ioComplexStringPrinter::SetTextColor

; 894  : 	kCountPrinter.AddTextPiece( FONT_SIZE_12, STR(2), m_szGashaponName.c_str() );

  0009b	8b 4d f0	 mov	 ecx, DWORD PTR _this$[ebp]
  0009e	81 c1 74 02 00
	00		 add	 ecx, 628		; 00000274H
  000a4	ff 15 00 00 00
	00		 call	 DWORD PTR __imp_?c_str@ioHashString@@QBEPBDXZ
  000aa	50		 push	 eax
  000ab	6a 00		 push	 0
  000ad	6a 02		 push	 2
  000af	68 00 00 00 00	 push	 OFFSET ??_C@_00CNPNBAHC@?$AA@
  000b4	53		 push	 ebx
  000b5	ff d6		 call	 esi
  000b7	8b c8		 mov	 ecx, eax
  000b9	ff d7		 call	 edi
  000bb	f3 0f 10 05 00
	00 00 00	 movss	 xmm0, DWORD PTR __real@3f19999a
  000c3	50		 push	 eax
  000c4	51		 push	 ecx
  000c5	8d 4d d0	 lea	 ecx, DWORD PTR _kCountPrinter$[ebp]
  000c8	f3 0f 11 04 24	 movss	 DWORD PTR [esp], xmm0
  000cd	e8 00 00 00 00	 call	 ?AddTextPiece@ioComplexStringPrinter@@QAEXMPBD0@Z ; ioComplexStringPrinter::AddTextPiece

; 895  : 
; 896  : 	float fTextWidth = kMentPrinter.GetFullWidth() + 20;

  000d2	f3 0f 10 45 cc	 movss	 xmm0, DWORD PTR _kMentPrinter$[ebp+28]
  000d7	f2 0f 10 0d 00
	00 00 00	 movsd	 xmm1, QWORD PTR __real@4034000000000000

; 897  : 	if( fTextWidth < kCountPrinter.GetFullWidth() )

  000df	f3 0f 10 5d ec	 movss	 xmm3, DWORD PTR _kCountPrinter$[ebp+28]
  000e4	0f 5a c0	 cvtps2pd xmm0, xmm0
  000e7	f2 0f 58 c1	 addsd	 xmm0, xmm1
  000eb	66 0f 5a c0	 cvtpd2ps xmm0, xmm0
  000ef	0f 57 d2	 xorps	 xmm2, xmm2
  000f2	f3 0f 5a d0	 cvtss2sd xmm2, xmm0
  000f6	0f 5a db	 cvtps2pd xmm3, xmm3
  000f9	66 0f 2f da	 comisd	 xmm3, xmm2
  000fd	76 10		 jbe	 SHORT $LN1@OnRenderTo@5

; 898  : 		fTextWidth = kCountPrinter.GetFullWidth() + 20;

  000ff	f3 0f 10 45 ec	 movss	 xmm0, DWORD PTR _kCountPrinter$[ebp+28]
  00104	0f 5a c0	 cvtps2pd xmm0, xmm0
  00107	f2 0f 58 c1	 addsd	 xmm0, xmm1
  0010b	f2 0f 5a c0	 cvtsd2ss xmm0, xmm0
$LN1@OnRenderTo@5:

; 899  : 
; 900  : 	fYPos -= 28;

  0010f	f3 0f 10 4d 0c	 movss	 xmm1, DWORD PTR _fYPos$[ebp]
  00114	0f 5a c9	 cvtps2pd xmm1, xmm1
  00117	f2 0f 5c 0d 00
	00 00 00	 subsd	 xmm1, QWORD PTR __real@403c000000000000
  0011f	66 0f 5a c9	 cvtpd2ps xmm1, xmm1
  00123	f3 0f 11 4d 0c	 movss	 DWORD PTR _fYPos$[ebp], xmm1

; 901  : 	OnRenderTooltipBar( ( fXPos + 7 ) - ( fTextWidth / 2 ), fYPos - 6, fTextWidth );

  00128	f3 0f 5a c9	 cvtss2sd xmm1, xmm1
  0012c	f2 0f 5c 0d 00
	00 00 00	 subsd	 xmm1, QWORD PTR __real@4018000000000000
  00134	f2 0f 2c c1	 cvttsd2si eax, xmm1
  00138	f3 0f 10 4d 08	 movss	 xmm1, DWORD PTR _fXPos$[ebp]
  0013d	51		 push	 ecx
  0013e	8b 4d f0	 mov	 ecx, DWORD PTR _this$[ebp]
  00141	f3 0f 11 04 24	 movss	 DWORD PTR [esp], xmm0
  00146	0f 5a c9	 cvtps2pd xmm1, xmm1
  00149	f2 0f 58 0d 00
	00 00 00	 addsd	 xmm1, QWORD PTR __real@401c000000000000
  00151	f3 0f 5a c0	 cvtss2sd xmm0, xmm0
  00155	f2 0f 59 05 00
	00 00 00	 mulsd	 xmm0, QWORD PTR __real@3fe0000000000000
  0015d	50		 push	 eax
  0015e	f2 0f 5c c8	 subsd	 xmm1, xmm0
  00162	f2 0f 2c c1	 cvttsd2si eax, xmm1
  00166	50		 push	 eax
  00167	e8 00 00 00 00	 call	 ?OnRenderTooltipBar@MenuBtn@@IAEXHHM@Z ; MenuBtn::OnRenderTooltipBar

; 902  : 	kMentPrinter.PrintFullText( fXPos + 14, fYPos + 4, TAT_CENTER );

  0016c	f3 0f 10 45 08	 movss	 xmm0, DWORD PTR _fXPos$[ebp]
  00171	f3 0f 10 4d 0c	 movss	 xmm1, DWORD PTR _fYPos$[ebp]
  00176	be ff 00 00 00	 mov	 esi, 255		; 000000ffH
  0017b	56		 push	 esi
  0017c	6a 01		 push	 1
  0017e	51		 push	 ecx
  0017f	0f 5a c9	 cvtps2pd xmm1, xmm1
  00182	f2 0f 58 0d 00
	00 00 00	 addsd	 xmm1, QWORD PTR __real@4010000000000000
  0018a	51		 push	 ecx
  0018b	0f 5a c0	 cvtps2pd xmm0, xmm0
  0018e	f2 0f 58 05 00
	00 00 00	 addsd	 xmm0, QWORD PTR __real@402c000000000000
  00196	f2 0f 5a c0	 cvtsd2ss xmm0, xmm0
  0019a	f2 0f 5a c9	 cvtsd2ss xmm1, xmm1
  0019e	f3 0f 11 4c 24
	04		 movss	 DWORD PTR [esp+4], xmm1
  001a4	8d 4d b0	 lea	 ecx, DWORD PTR _kMentPrinter$[ebp]
  001a7	f3 0f 11 45 08	 movss	 DWORD PTR tv251[ebp], xmm0
  001ac	f3 0f 11 04 24	 movss	 DWORD PTR [esp], xmm0
  001b1	e8 00 00 00 00	 call	 ?PrintFullText@ioComplexStringPrinter@@QAEXMMW4TextAlignType@@E@Z ; ioComplexStringPrinter::PrintFullText

; 903  : 	kCountPrinter.PrintFullText( fXPos + 14, fYPos + 17, TAT_CENTER );

  001b6	f3 0f 10 45 0c	 movss	 xmm0, DWORD PTR _fYPos$[ebp]
  001bb	56		 push	 esi
  001bc	6a 01		 push	 1
  001be	0f 5a c0	 cvtps2pd xmm0, xmm0
  001c1	f2 0f 58 05 00
	00 00 00	 addsd	 xmm0, QWORD PTR __real@4031000000000000
  001c9	51		 push	 ecx
  001ca	51		 push	 ecx
  001cb	f2 0f 5a c0	 cvtsd2ss xmm0, xmm0
  001cf	f3 0f 11 44 24
	04		 movss	 DWORD PTR [esp+4], xmm0
  001d5	f3 0f 10 45 08	 movss	 xmm0, DWORD PTR tv251[ebp]
  001da	8d 4d d0	 lea	 ecx, DWORD PTR _kCountPrinter$[ebp]
  001dd	f3 0f 11 04 24	 movss	 DWORD PTR [esp], xmm0
  001e2	e8 00 00 00 00	 call	 ?PrintFullText@ioComplexStringPrinter@@QAEXMMW4TextAlignType@@E@Z ; ioComplexStringPrinter::PrintFullText

; 904  : }

  001e7	8d 4d d0	 lea	 ecx, DWORD PTR _kCountPrinter$[ebp]
  001ea	c6 45 fc 00	 mov	 BYTE PTR __$EHRec$[ebp+8], 0
  001ee	e8 00 00 00 00	 call	 ??1ioComplexStringPrinter@@QAE@XZ ; ioComplexStringPrinter::~ioComplexStringPrinter
  001f3	83 4d fc ff	 or	 DWORD PTR __$EHRec$[ebp+8], -1
  001f7	8d 4d b0	 lea	 ecx, DWORD PTR _kMentPrinter$[ebp]
  001fa	e8 00 00 00 00	 call	 ??1ioComplexStringPrinter@@QAE@XZ ; ioComplexStringPrinter::~ioComplexStringPrinter
  001ff	e8 00 00 00 00	 call	 __EH_epilog3
  00204	c2 08 00	 ret	 8
_TEXT	ENDS
;	COMDAT text$x
text$x	SEGMENT
__unwindfunclet$?OnRenderTooltipTimeGashapon@MenuBtn@@QAEXMM@Z$0:
  00000	8d 4d b0	 lea	 ecx, DWORD PTR _kMentPrinter$[ebp]
  00003	e9 00 00 00 00	 jmp	 ??1ioComplexStringPrinter@@QAE@XZ ; ioComplexStringPrinter::~ioComplexStringPrinter
__unwindfunclet$?OnRenderTooltipTimeGashapon@MenuBtn@@QAEXMM@Z$1:
  00008	8d 4d d0	 lea	 ecx, DWORD PTR _kCountPrinter$[ebp]
  0000b	e9 00 00 00 00	 jmp	 ??1ioComplexStringPrinter@@QAE@XZ ; ioComplexStringPrinter::~ioComplexStringPrinter
__ehhandler$?OnRenderTooltipTimeGashapon@MenuBtn@@QAEXMM@Z:
  00010	8b 54 24 08	 mov	 edx, DWORD PTR [esp+8]
  00014	8d 42 0c	 lea	 eax, DWORD PTR [edx+12]
  00017	8b 4a ac	 mov	 ecx, DWORD PTR [edx-84]
  0001a	33 c8		 xor	 ecx, eax
  0001c	e8 00 00 00 00	 call	 @__security_check_cookie@4
  00021	b8 00 00 00 00	 mov	 eax, OFFSET __ehfuncinfo$?OnRenderTooltipTimeGashapon@MenuBtn@@QAEXMM@Z
  00026	e9 00 00 00 00	 jmp	 ___CxxFrameHandler3
text$x	ENDS
?OnRenderTooltipTimeGashapon@MenuBtn@@QAEXMM@Z ENDP	; MenuBtn::OnRenderTooltipTimeGashapon
PUBLIC	??_C@_0CG@NFFCBIBI@MenuBtn?3?3OnRenderTooltipSoliderG@ ; `string'
PUBLIC	?OnRenderTooltipSoliderGrowth@MenuBtn@@QAEXMM@Z	; MenuBtn::OnRenderTooltipSoliderGrowth
EXTRN	?AddTextPiece@ioComplexStringPrinter@@QAEXMPBDHH@Z:PROC ; ioComplexStringPrinter::AddTextPiece
;	COMDAT ??_C@_0CG@NFFCBIBI@MenuBtn?3?3OnRenderTooltipSoliderG@
; File d:\lost saga for developer\youtube\tutorial\source\src\lsclient\iocomplexstringprinter.h
CONST	SEGMENT
??_C@_0CG@NFFCBIBI@MenuBtn?3?3OnRenderTooltipSoliderG@ DB 'MenuBtn::OnRen'
	DB	'derTooltipSoliderGrowth', 00H		; `string'
CONST	ENDS
;	COMDAT xdata$x
xdata$x	SEGMENT
__unwindtable$?OnRenderTooltipSoliderGrowth@MenuBtn@@QAEXMM@Z DD 0ffffffffH
	DD	FLAT:__unwindfunclet$?OnRenderTooltipSoliderGrowth@MenuBtn@@QAEXMM@Z$0
	DD	00H
	DD	FLAT:__unwindfunclet$?OnRenderTooltipSoliderGrowth@MenuBtn@@QAEXMM@Z$1
__ehfuncinfo$?OnRenderTooltipSoliderGrowth@MenuBtn@@QAEXMM@Z DD 019930522H
	DD	02H
	DD	FLAT:__unwindtable$?OnRenderTooltipSoliderGrowth@MenuBtn@@QAEXMM@Z
	DD	2 DUP(00H)
	DD	2 DUP(00H)
	DD	00H
	DD	01H
; Function compile flags: /Ogsp
; File d:\lost saga for developer\youtube\tutorial\source\src\lsclient\gui\helpwnd.cpp
xdata$x	ENDS
;	COMDAT ?OnRenderTooltipSoliderGrowth@MenuBtn@@QAEXMM@Z
_TEXT	SEGMENT
_kMentPrinter$ = -80					; size = 32
_kCountPrinter$ = -48					; size = 32
_this$ = -16						; size = 4
__$EHRec$ = -12						; size = 12
tv255 = 8						; size = 4
_fXPos$ = 8						; size = 4
_fYPos$ = 12						; size = 4
?OnRenderTooltipSoliderGrowth@MenuBtn@@QAEXMM@Z PROC	; MenuBtn::OnRenderTooltipSoliderGrowth, COMDAT
; _this$ = ecx

; 907  : {

  00000	6a 44		 push	 68			; 00000044H
  00002	b8 00 00 00 00	 mov	 eax, __ehhandler$?OnRenderTooltipSoliderGrowth@MenuBtn@@QAEXMM@Z
  00007	e8 00 00 00 00	 call	 __EH_prolog3
  0000c	89 4d f0	 mov	 DWORD PTR _this$[ebp], ecx

; 908  : 	ioComplexStringPrinter kMentPrinter;

  0000f	8d 4d b0	 lea	 ecx, DWORD PTR _kMentPrinter$[ebp]
  00012	e8 00 00 00 00	 call	 ??0ioComplexStringPrinter@@QAE@XZ ; ioComplexStringPrinter::ioComplexStringPrinter
  00017	33 f6		 xor	 esi, esi

; 909  : 	ioComplexStringPrinter kCountPrinter;

  00019	8d 4d d0	 lea	 ecx, DWORD PTR _kCountPrinter$[ebp]
  0001c	89 75 fc	 mov	 DWORD PTR __$EHRec$[ebp+8], esi
  0001f	e8 00 00 00 00	 call	 ??0ioComplexStringPrinter@@QAE@XZ ; ioComplexStringPrinter::ioComplexStringPrinter

; 910  : 
; 911  : 	kMentPrinter.SetTextStyle( TS_NORMAL );

  00024	56		 push	 esi
  00025	8d 4d b0	 lea	 ecx, DWORD PTR _kMentPrinter$[ebp]
  00028	c6 45 fc 01	 mov	 BYTE PTR __$EHRec$[ebp+8], 1
  0002c	e8 00 00 00 00	 call	 ?SetTextStyle@ioComplexStringPrinter@@QAEXW4TextStyle@@@Z ; ioComplexStringPrinter::SetTextStyle

; 912  : 	kMentPrinter.SetTextColor( TCT_DEFAULT_DARKGRAY );

  00031	68 3a 3a 3a ff	 push	 -12961222		; ff3a3a3aH
  00036	8d 4d b0	 lea	 ecx, DWORD PTR _kMentPrinter$[ebp]
  00039	e8 00 00 00 00	 call	 ?SetTextColor@ioComplexStringPrinter@@QAEXK@Z ; ioComplexStringPrinter::SetTextColor

; 913  : 	kMentPrinter.AddTextPiece( FONT_SIZE_12, STR(1) );

  0003e	56		 push	 esi
  0003f	8b 35 00 00 00
	00		 mov	 esi, DWORD PTR __imp_?GetSingleton@ioStringManager@@SAAAV1@XZ
  00045	6a 01		 push	 1
  00047	68 00 00 00 00	 push	 OFFSET ??_C@_00CNPNBAHC@?$AA@
  0004c	bb 00 00 00 00	 mov	 ebx, OFFSET ??_C@_0CG@NFFCBIBI@MenuBtn?3?3OnRenderTooltipSoliderG@
  00051	53		 push	 ebx
  00052	ff d6		 call	 esi
  00054	8b 3d 00 00 00
	00		 mov	 edi, DWORD PTR __imp_?GetString@ioStringManager@@QAEPADPBD0HW4FileNamePrefix@1@@Z
  0005a	8b c8		 mov	 ecx, eax
  0005c	ff d7		 call	 edi
  0005e	f3 0f 10 05 00
	00 00 00	 movss	 xmm0, DWORD PTR __real@3f19999a
  00066	50		 push	 eax
  00067	51		 push	 ecx
  00068	8d 45 b0	 lea	 eax, DWORD PTR _kMentPrinter$[ebp]
  0006b	f3 0f 11 04 24	 movss	 DWORD PTR [esp], xmm0
  00070	50		 push	 eax
  00071	e8 00 00 00 00	 call	 ?AddTextPiece@ioComplexStringPrinter@@QAAXMPBDZZ ; ioComplexStringPrinter::AddTextPiece
  00076	83 c4 0c	 add	 esp, 12			; 0000000cH

; 914  : 
; 915  : 	kCountPrinter.SetTextStyle( TS_NORMAL );

  00079	6a 00		 push	 0
  0007b	8d 4d d0	 lea	 ecx, DWORD PTR _kCountPrinter$[ebp]
  0007e	e8 00 00 00 00	 call	 ?SetTextStyle@ioComplexStringPrinter@@QAEXW4TextStyle@@@Z ; ioComplexStringPrinter::SetTextStyle

; 916  : 	kCountPrinter.SetTextColor( TCT_DEFAULT_RED );

  00083	68 00 16 b9 ff	 push	 -4647424		; ffb91600H
  00088	8d 4d d0	 lea	 ecx, DWORD PTR _kCountPrinter$[ebp]
  0008b	e8 00 00 00 00	 call	 ?SetTextColor@ioComplexStringPrinter@@QAEXK@Z ; ioComplexStringPrinter::SetTextColor

; 917  : 	kCountPrinter.AddTextPiece( FONT_SIZE_12, STR(2), m_iGrowCurrentCount, m_iGrowMaxCount );

  00090	8b 45 f0	 mov	 eax, DWORD PTR _this$[ebp]
  00093	ff b0 88 02 00
	00		 push	 DWORD PTR [eax+648]
  00099	ff b0 84 02 00
	00		 push	 DWORD PTR [eax+644]
  0009f	6a 00		 push	 0
  000a1	6a 02		 push	 2
  000a3	68 00 00 00 00	 push	 OFFSET ??_C@_00CNPNBAHC@?$AA@
  000a8	53		 push	 ebx
  000a9	ff d6		 call	 esi
  000ab	8b c8		 mov	 ecx, eax
  000ad	ff d7		 call	 edi
  000af	f3 0f 10 05 00
	00 00 00	 movss	 xmm0, DWORD PTR __real@3f19999a
  000b7	50		 push	 eax
  000b8	51		 push	 ecx
  000b9	8d 4d d0	 lea	 ecx, DWORD PTR _kCountPrinter$[ebp]
  000bc	f3 0f 11 04 24	 movss	 DWORD PTR [esp], xmm0
  000c1	e8 00 00 00 00	 call	 ?AddTextPiece@ioComplexStringPrinter@@QAEXMPBDHH@Z ; ioComplexStringPrinter::AddTextPiece

; 918  : 
; 919  : 	float fTextWidth = kMentPrinter.GetFullWidth() + 20;

  000c6	f3 0f 10 45 cc	 movss	 xmm0, DWORD PTR _kMentPrinter$[ebp+28]
  000cb	f2 0f 10 0d 00
	00 00 00	 movsd	 xmm1, QWORD PTR __real@4034000000000000

; 920  : 	if( fTextWidth < kCountPrinter.GetFullWidth() )

  000d3	f3 0f 10 5d ec	 movss	 xmm3, DWORD PTR _kCountPrinter$[ebp+28]
  000d8	0f 5a c0	 cvtps2pd xmm0, xmm0
  000db	f2 0f 58 c1	 addsd	 xmm0, xmm1
  000df	66 0f 5a c0	 cvtpd2ps xmm0, xmm0
  000e3	0f 57 d2	 xorps	 xmm2, xmm2
  000e6	f3 0f 5a d0	 cvtss2sd xmm2, xmm0
  000ea	0f 5a db	 cvtps2pd xmm3, xmm3
  000ed	66 0f 2f da	 comisd	 xmm3, xmm2
  000f1	76 10		 jbe	 SHORT $LN1@OnRenderTo@6

; 921  : 		fTextWidth = kCountPrinter.GetFullWidth() + 20;

  000f3	f3 0f 10 45 ec	 movss	 xmm0, DWORD PTR _kCountPrinter$[ebp+28]
  000f8	0f 5a c0	 cvtps2pd xmm0, xmm0
  000fb	f2 0f 58 c1	 addsd	 xmm0, xmm1
  000ff	f2 0f 5a c0	 cvtsd2ss xmm0, xmm0
$LN1@OnRenderTo@6:

; 922  : 
; 923  : 	fYPos -= 28;

  00103	f3 0f 10 4d 0c	 movss	 xmm1, DWORD PTR _fYPos$[ebp]
  00108	0f 5a c9	 cvtps2pd xmm1, xmm1
  0010b	f2 0f 5c 0d 00
	00 00 00	 subsd	 xmm1, QWORD PTR __real@403c000000000000
  00113	66 0f 5a c9	 cvtpd2ps xmm1, xmm1
  00117	f3 0f 11 4d 0c	 movss	 DWORD PTR _fYPos$[ebp], xmm1

; 924  : 	OnRenderTooltipBar( ( fXPos + 7 ) - ( fTextWidth / 2 ), fYPos - 6, fTextWidth );

  0011c	f3 0f 5a c9	 cvtss2sd xmm1, xmm1
  00120	f2 0f 5c 0d 00
	00 00 00	 subsd	 xmm1, QWORD PTR __real@4018000000000000
  00128	f2 0f 2c c1	 cvttsd2si eax, xmm1
  0012c	f3 0f 10 4d 08	 movss	 xmm1, DWORD PTR _fXPos$[ebp]
  00131	51		 push	 ecx
  00132	8b 4d f0	 mov	 ecx, DWORD PTR _this$[ebp]
  00135	f3 0f 11 04 24	 movss	 DWORD PTR [esp], xmm0
  0013a	0f 5a c9	 cvtps2pd xmm1, xmm1
  0013d	f2 0f 58 0d 00
	00 00 00	 addsd	 xmm1, QWORD PTR __real@401c000000000000
  00145	f3 0f 5a c0	 cvtss2sd xmm0, xmm0
  00149	f2 0f 59 05 00
	00 00 00	 mulsd	 xmm0, QWORD PTR __real@3fe0000000000000
  00151	50		 push	 eax
  00152	f2 0f 5c c8	 subsd	 xmm1, xmm0
  00156	f2 0f 2c c1	 cvttsd2si eax, xmm1
  0015a	50		 push	 eax
  0015b	e8 00 00 00 00	 call	 ?OnRenderTooltipBar@MenuBtn@@IAEXHHM@Z ; MenuBtn::OnRenderTooltipBar

; 925  : 	kMentPrinter.PrintFullText( fXPos + 14, fYPos + 4, TAT_CENTER );

  00160	f3 0f 10 45 08	 movss	 xmm0, DWORD PTR _fXPos$[ebp]
  00165	f3 0f 10 4d 0c	 movss	 xmm1, DWORD PTR _fYPos$[ebp]
  0016a	be ff 00 00 00	 mov	 esi, 255		; 000000ffH
  0016f	56		 push	 esi
  00170	6a 01		 push	 1
  00172	51		 push	 ecx
  00173	0f 5a c9	 cvtps2pd xmm1, xmm1
  00176	f2 0f 58 0d 00
	00 00 00	 addsd	 xmm1, QWORD PTR __real@4010000000000000
  0017e	51		 push	 ecx
  0017f	0f 5a c0	 cvtps2pd xmm0, xmm0
  00182	f2 0f 58 05 00
	00 00 00	 addsd	 xmm0, QWORD PTR __real@402c000000000000
  0018a	f2 0f 5a c0	 cvtsd2ss xmm0, xmm0
  0018e	f2 0f 5a c9	 cvtsd2ss xmm1, xmm1
  00192	f3 0f 11 4c 24
	04		 movss	 DWORD PTR [esp+4], xmm1
  00198	8d 4d b0	 lea	 ecx, DWORD PTR _kMentPrinter$[ebp]
  0019b	f3 0f 11 45 08	 movss	 DWORD PTR tv255[ebp], xmm0
  001a0	f3 0f 11 04 24	 movss	 DWORD PTR [esp], xmm0
  001a5	e8 00 00 00 00	 call	 ?PrintFullText@ioComplexStringPrinter@@QAEXMMW4TextAlignType@@E@Z ; ioComplexStringPrinter::PrintFullText

; 926  : 	kCountPrinter.PrintFullText( fXPos + 14, fYPos + 17, TAT_CENTER );

  001aa	f3 0f 10 45 0c	 movss	 xmm0, DWORD PTR _fYPos$[ebp]
  001af	56		 push	 esi
  001b0	6a 01		 push	 1
  001b2	0f 5a c0	 cvtps2pd xmm0, xmm0
  001b5	f2 0f 58 05 00
	00 00 00	 addsd	 xmm0, QWORD PTR __real@4031000000000000
  001bd	51		 push	 ecx
  001be	51		 push	 ecx
  001bf	f2 0f 5a c0	 cvtsd2ss xmm0, xmm0
  001c3	f3 0f 11 44 24
	04		 movss	 DWORD PTR [esp+4], xmm0
  001c9	f3 0f 10 45 08	 movss	 xmm0, DWORD PTR tv255[ebp]
  001ce	8d 4d d0	 lea	 ecx, DWORD PTR _kCountPrinter$[ebp]
  001d1	f3 0f 11 04 24	 movss	 DWORD PTR [esp], xmm0
  001d6	e8 00 00 00 00	 call	 ?PrintFullText@ioComplexStringPrinter@@QAEXMMW4TextAlignType@@E@Z ; ioComplexStringPrinter::PrintFullText

; 927  : }

  001db	8d 4d d0	 lea	 ecx, DWORD PTR _kCountPrinter$[ebp]
  001de	c6 45 fc 00	 mov	 BYTE PTR __$EHRec$[ebp+8], 0
  001e2	e8 00 00 00 00	 call	 ??1ioComplexStringPrinter@@QAE@XZ ; ioComplexStringPrinter::~ioComplexStringPrinter
  001e7	83 4d fc ff	 or	 DWORD PTR __$EHRec$[ebp+8], -1
  001eb	8d 4d b0	 lea	 ecx, DWORD PTR _kMentPrinter$[ebp]
  001ee	e8 00 00 00 00	 call	 ??1ioComplexStringPrinter@@QAE@XZ ; ioComplexStringPrinter::~ioComplexStringPrinter
  001f3	e8 00 00 00 00	 call	 __EH_epilog3
  001f8	c2 08 00	 ret	 8
_TEXT	ENDS
;	COMDAT text$x
text$x	SEGMENT
__unwindfunclet$?OnRenderTooltipSoliderGrowth@MenuBtn@@QAEXMM@Z$0:
  00000	8d 4d b0	 lea	 ecx, DWORD PTR _kMentPrinter$[ebp]
  00003	e9 00 00 00 00	 jmp	 ??1ioComplexStringPrinter@@QAE@XZ ; ioComplexStringPrinter::~ioComplexStringPrinter
__unwindfunclet$?OnRenderTooltipSoliderGrowth@MenuBtn@@QAEXMM@Z$1:
  00008	8d 4d d0	 lea	 ecx, DWORD PTR _kCountPrinter$[ebp]
  0000b	e9 00 00 00 00	 jmp	 ??1ioComplexStringPrinter@@QAE@XZ ; ioComplexStringPrinter::~ioComplexStringPrinter
__ehhandler$?OnRenderTooltipSoliderGrowth@MenuBtn@@QAEXMM@Z:
  00010	8b 54 24 08	 mov	 edx, DWORD PTR [esp+8]
  00014	8d 42 0c	 lea	 eax, DWORD PTR [edx+12]
  00017	8b 4a ac	 mov	 ecx, DWORD PTR [edx-84]
  0001a	33 c8		 xor	 ecx, eax
  0001c	e8 00 00 00 00	 call	 @__security_check_cookie@4
  00021	b8 00 00 00 00	 mov	 eax, OFFSET __ehfuncinfo$?OnRenderTooltipSoliderGrowth@MenuBtn@@QAEXMM@Z
  00026	e9 00 00 00 00	 jmp	 ___CxxFrameHandler3
text$x	ENDS
?OnRenderTooltipSoliderGrowth@MenuBtn@@QAEXMM@Z ENDP	; MenuBtn::OnRenderTooltipSoliderGrowth
PUBLIC	??_C@_0CF@NAODHKJI@MenuBtn?3?3OnRenderTooltipTimeRoll@ ; `string'
PUBLIC	??_R0?AVRollBookWnd@@@8				; RollBookWnd `RTTI Type Descriptor'
PUBLIC	?OnRenderTooltipTimeRollBook@MenuBtn@@QAEXMM@Z	; MenuBtn::OnRenderTooltipTimeRollBook
;	COMDAT ??_C@_0CF@NAODHKJI@MenuBtn?3?3OnRenderTooltipTimeRoll@
; File d:\lost saga for developer\youtube\tutorial\source\src\lsclient\iocomplexstringprinter.h
CONST	SEGMENT
??_C@_0CF@NAODHKJI@MenuBtn?3?3OnRenderTooltipTimeRoll@ DB 'MenuBtn::OnRen'
	DB	'derTooltipTimeRollBook', 00H		; `string'
CONST	ENDS
;	COMDAT ??_R0?AVRollBookWnd@@@8
_DATA	SEGMENT
??_R0?AVRollBookWnd@@@8 DD FLAT:??_7type_info@@6B@	; RollBookWnd `RTTI Type Descriptor'
	DD	00H
	DB	'.?AVRollBookWnd@@', 00H
_DATA	ENDS
;	COMDAT xdata$x
xdata$x	SEGMENT
__unwindtable$?OnRenderTooltipTimeRollBook@MenuBtn@@QAEXMM@Z DD 0ffffffffH
	DD	FLAT:__unwindfunclet$?OnRenderTooltipTimeRollBook@MenuBtn@@QAEXMM@Z$0
	DD	00H
	DD	FLAT:__unwindfunclet$?OnRenderTooltipTimeRollBook@MenuBtn@@QAEXMM@Z$1
__ehfuncinfo$?OnRenderTooltipTimeRollBook@MenuBtn@@QAEXMM@Z DD 019930522H
	DD	02H
	DD	FLAT:__unwindtable$?OnRenderTooltipTimeRollBook@MenuBtn@@QAEXMM@Z
	DD	2 DUP(00H)
	DD	2 DUP(00H)
	DD	00H
	DD	01H
; Function compile flags: /Ogsp
; File d:\lost saga for developer\youtube\tutorial\source\src\lsclient\gui\helpwnd.cpp
xdata$x	ENDS
;	COMDAT ?OnRenderTooltipTimeRollBook@MenuBtn@@QAEXMM@Z
_TEXT	SEGMENT
_kMentPrinter$557614 = -80				; size = 32
_kCountPrinter$557615 = -48				; size = 32
_this$ = -16						; size = 4
__$EHRec$ = -12						; size = 12
tv284 = 8						; size = 4
_fXPos$ = 8						; size = 4
_fYPos$ = 12						; size = 4
?OnRenderTooltipTimeRollBook@MenuBtn@@QAEXMM@Z PROC	; MenuBtn::OnRenderTooltipTimeRollBook, COMDAT
; _this$ = ecx

; 955  : {

  00000	6a 44		 push	 68			; 00000044H
  00002	b8 00 00 00 00	 mov	 eax, __ehhandler$?OnRenderTooltipTimeRollBook@MenuBtn@@QAEXMM@Z
  00007	e8 00 00 00 00	 call	 __EH_prolog3
  0000c	89 4d f0	 mov	 DWORD PTR _this$[ebp], ecx

; 956  : 	RollBookWnd* pRollBook = dynamic_cast<RollBookWnd*>( g_GUIMgr.FindWnd( ROLLBOOK_WND ) );

  0000f	33 f6		 xor	 esi, esi
  00011	56		 push	 esi
  00012	68 00 00 00 00	 push	 OFFSET ??_R0?AVRollBookWnd@@@8
  00017	68 00 00 00 00	 push	 OFFSET ??_R0?AVioWnd@@@8
  0001c	56		 push	 esi
  0001d	68 80 18 00 00	 push	 6272			; 00001880H
  00022	e8 00 00 00 00	 call	 ?GetSingleton@ioSP2GUIManager@@SAAAV1@XZ ; ioSP2GUIManager::GetSingleton
  00027	8b c8		 mov	 ecx, eax
  00029	ff 15 00 00 00
	00		 call	 DWORD PTR __imp_?FindWnd@ioGUIManager@@QAEPAVioWnd@@K@Z
  0002f	50		 push	 eax
  00030	e8 00 00 00 00	 call	 ___RTDynamicCast
  00035	83 c4 14	 add	 esp, 20			; 00000014H

; 957  : 	if ( pRollBook && pRollBook->IsRequestTime() )

  00038	3b c6		 cmp	 eax, esi
  0003a	0f 84 dc 01 00
	00		 je	 $LN2@OnRenderTo@7
  00040	80 b8 7c 01 00
	00 00		 cmp	 BYTE PTR [eax+380], 0
  00047	0f 84 cf 01 00
	00		 je	 $LN2@OnRenderTo@7

; 958  : 	{
; 959  : 		ioComplexStringPrinter kMentPrinter;

  0004d	8d 4d b0	 lea	 ecx, DWORD PTR _kMentPrinter$557614[ebp]
  00050	e8 00 00 00 00	 call	 ??0ioComplexStringPrinter@@QAE@XZ ; ioComplexStringPrinter::ioComplexStringPrinter

; 960  : 		ioComplexStringPrinter kCountPrinter;

  00055	8d 4d d0	 lea	 ecx, DWORD PTR _kCountPrinter$557615[ebp]
  00058	89 75 fc	 mov	 DWORD PTR __$EHRec$[ebp+8], esi
  0005b	e8 00 00 00 00	 call	 ??0ioComplexStringPrinter@@QAE@XZ ; ioComplexStringPrinter::ioComplexStringPrinter

; 961  : 
; 962  : 		kMentPrinter.SetTextStyle( TS_NORMAL );

  00060	56		 push	 esi
  00061	8d 4d b0	 lea	 ecx, DWORD PTR _kMentPrinter$557614[ebp]
  00064	c6 45 fc 01	 mov	 BYTE PTR __$EHRec$[ebp+8], 1
  00068	e8 00 00 00 00	 call	 ?SetTextStyle@ioComplexStringPrinter@@QAEXW4TextStyle@@@Z ; ioComplexStringPrinter::SetTextStyle

; 963  : 		kMentPrinter.SetTextColor( TCT_DEFAULT_DARKGRAY );

  0006d	68 3a 3a 3a ff	 push	 -12961222		; ff3a3a3aH
  00072	8d 4d b0	 lea	 ecx, DWORD PTR _kMentPrinter$557614[ebp]
  00075	e8 00 00 00 00	 call	 ?SetTextColor@ioComplexStringPrinter@@QAEXK@Z ; ioComplexStringPrinter::SetTextColor

; 964  : 		kMentPrinter.AddTextPiece( FONT_SIZE_12, STR(1) );

  0007a	56		 push	 esi
  0007b	8b 35 00 00 00
	00		 mov	 esi, DWORD PTR __imp_?GetSingleton@ioStringManager@@SAAAV1@XZ
  00081	6a 01		 push	 1
  00083	68 00 00 00 00	 push	 OFFSET ??_C@_00CNPNBAHC@?$AA@
  00088	bb 00 00 00 00	 mov	 ebx, OFFSET ??_C@_0CF@NAODHKJI@MenuBtn?3?3OnRenderTooltipTimeRoll@
  0008d	53		 push	 ebx
  0008e	ff d6		 call	 esi
  00090	8b 3d 00 00 00
	00		 mov	 edi, DWORD PTR __imp_?GetString@ioStringManager@@QAEPADPBD0HW4FileNamePrefix@1@@Z
  00096	8b c8		 mov	 ecx, eax
  00098	ff d7		 call	 edi
  0009a	f3 0f 10 05 00
	00 00 00	 movss	 xmm0, DWORD PTR __real@3f19999a
  000a2	50		 push	 eax
  000a3	51		 push	 ecx
  000a4	8d 45 b0	 lea	 eax, DWORD PTR _kMentPrinter$557614[ebp]
  000a7	f3 0f 11 04 24	 movss	 DWORD PTR [esp], xmm0
  000ac	50		 push	 eax
  000ad	e8 00 00 00 00	 call	 ?AddTextPiece@ioComplexStringPrinter@@QAAXMPBDZZ ; ioComplexStringPrinter::AddTextPiece
  000b2	83 c4 0c	 add	 esp, 12			; 0000000cH

; 965  : 
; 966  : 		kCountPrinter.SetTextStyle( TS_NORMAL );

  000b5	6a 00		 push	 0
  000b7	8d 4d d0	 lea	 ecx, DWORD PTR _kCountPrinter$557615[ebp]
  000ba	e8 00 00 00 00	 call	 ?SetTextStyle@ioComplexStringPrinter@@QAEXW4TextStyle@@@Z ; ioComplexStringPrinter::SetTextStyle

; 967  : 		kCountPrinter.SetTextColor( TCT_DEFAULT_RED );

  000bf	68 00 16 b9 ff	 push	 -4647424		; ffb91600H
  000c4	8d 4d d0	 lea	 ecx, DWORD PTR _kCountPrinter$557615[ebp]
  000c7	e8 00 00 00 00	 call	 ?SetTextColor@ioComplexStringPrinter@@QAEXK@Z ; ioComplexStringPrinter::SetTextColor

; 968  : 		kCountPrinter.AddTextPiece( FONT_SIZE_12, STR(2) );

  000cc	6a 00		 push	 0
  000ce	6a 02		 push	 2
  000d0	68 00 00 00 00	 push	 OFFSET ??_C@_00CNPNBAHC@?$AA@
  000d5	53		 push	 ebx
  000d6	ff d6		 call	 esi
  000d8	8b c8		 mov	 ecx, eax
  000da	ff d7		 call	 edi
  000dc	f3 0f 10 05 00
	00 00 00	 movss	 xmm0, DWORD PTR __real@3f19999a
  000e4	50		 push	 eax
  000e5	51		 push	 ecx
  000e6	8d 45 d0	 lea	 eax, DWORD PTR _kCountPrinter$557615[ebp]
  000e9	f3 0f 11 04 24	 movss	 DWORD PTR [esp], xmm0
  000ee	50		 push	 eax
  000ef	e8 00 00 00 00	 call	 ?AddTextPiece@ioComplexStringPrinter@@QAAXMPBDZZ ; ioComplexStringPrinter::AddTextPiece

; 969  : 
; 970  : 		float fTextWidth = kMentPrinter.GetFullWidth() + 20;

  000f4	f3 0f 10 45 cc	 movss	 xmm0, DWORD PTR _kMentPrinter$557614[ebp+28]
  000f9	f2 0f 10 0d 00
	00 00 00	 movsd	 xmm1, QWORD PTR __real@4034000000000000

; 971  : 		if( fTextWidth < kCountPrinter.GetFullWidth() )

  00101	f3 0f 10 5d ec	 movss	 xmm3, DWORD PTR _kCountPrinter$557615[ebp+28]
  00106	0f 5a c0	 cvtps2pd xmm0, xmm0
  00109	f2 0f 58 c1	 addsd	 xmm0, xmm1
  0010d	66 0f 5a c0	 cvtpd2ps xmm0, xmm0
  00111	0f 57 d2	 xorps	 xmm2, xmm2
  00114	83 c4 0c	 add	 esp, 12			; 0000000cH
  00117	f3 0f 5a d0	 cvtss2sd xmm2, xmm0
  0011b	0f 5a db	 cvtps2pd xmm3, xmm3
  0011e	66 0f 2f da	 comisd	 xmm3, xmm2
  00122	76 10		 jbe	 SHORT $LN1@OnRenderTo@7

; 972  : 			fTextWidth = kCountPrinter.GetFullWidth() + 20;

  00124	f3 0f 10 45 ec	 movss	 xmm0, DWORD PTR _kCountPrinter$557615[ebp+28]
  00129	0f 5a c0	 cvtps2pd xmm0, xmm0
  0012c	f2 0f 58 c1	 addsd	 xmm0, xmm1
  00130	f2 0f 5a c0	 cvtsd2ss xmm0, xmm0
$LN1@OnRenderTo@7:

; 973  : 
; 974  : 		fYPos -= 28;

  00134	f3 0f 10 4d 0c	 movss	 xmm1, DWORD PTR _fYPos$[ebp]
  00139	0f 5a c9	 cvtps2pd xmm1, xmm1
  0013c	f2 0f 5c 0d 00
	00 00 00	 subsd	 xmm1, QWORD PTR __real@403c000000000000
  00144	66 0f 5a c9	 cvtpd2ps xmm1, xmm1
  00148	f3 0f 11 4d 0c	 movss	 DWORD PTR _fYPos$[ebp], xmm1

; 975  : 		OnRenderTooltipBar( ( fXPos ) - ( fTextWidth / 2 ), fYPos - 6, fTextWidth );

  0014d	51		 push	 ecx
  0014e	8b 4d f0	 mov	 ecx, DWORD PTR _this$[ebp]
  00151	f3 0f 5a c9	 cvtss2sd xmm1, xmm1
  00155	f2 0f 5c 0d 00
	00 00 00	 subsd	 xmm1, QWORD PTR __real@4018000000000000
  0015d	f2 0f 2c c1	 cvttsd2si eax, xmm1
  00161	f3 0f 10 4d 08	 movss	 xmm1, DWORD PTR _fXPos$[ebp]
  00166	f3 0f 11 04 24	 movss	 DWORD PTR [esp], xmm0
  0016b	f3 0f 5a c0	 cvtss2sd xmm0, xmm0
  0016f	f2 0f 59 05 00
	00 00 00	 mulsd	 xmm0, QWORD PTR __real@3fe0000000000000
  00177	50		 push	 eax
  00178	0f 5a c9	 cvtps2pd xmm1, xmm1
  0017b	f2 0f 5c c8	 subsd	 xmm1, xmm0
  0017f	f2 0f 2c c1	 cvttsd2si eax, xmm1
  00183	50		 push	 eax
  00184	e8 00 00 00 00	 call	 ?OnRenderTooltipBar@MenuBtn@@IAEXHHM@Z ; MenuBtn::OnRenderTooltipBar

; 976  : 		kMentPrinter.PrintFullText( fXPos + 6, fYPos + 4, TAT_CENTER );

  00189	f3 0f 10 45 08	 movss	 xmm0, DWORD PTR _fXPos$[ebp]
  0018e	f3 0f 10 4d 0c	 movss	 xmm1, DWORD PTR _fYPos$[ebp]
  00193	be ff 00 00 00	 mov	 esi, 255		; 000000ffH
  00198	56		 push	 esi
  00199	6a 01		 push	 1
  0019b	51		 push	 ecx
  0019c	0f 5a c9	 cvtps2pd xmm1, xmm1
  0019f	f2 0f 58 0d 00
	00 00 00	 addsd	 xmm1, QWORD PTR __real@4010000000000000
  001a7	51		 push	 ecx
  001a8	0f 5a c0	 cvtps2pd xmm0, xmm0
  001ab	f2 0f 58 05 00
	00 00 00	 addsd	 xmm0, QWORD PTR __real@4018000000000000
  001b3	f2 0f 5a c0	 cvtsd2ss xmm0, xmm0
  001b7	f2 0f 5a c9	 cvtsd2ss xmm1, xmm1
  001bb	f3 0f 11 4c 24
	04		 movss	 DWORD PTR [esp+4], xmm1
  001c1	8d 4d b0	 lea	 ecx, DWORD PTR _kMentPrinter$557614[ebp]
  001c4	f3 0f 11 45 08	 movss	 DWORD PTR tv284[ebp], xmm0
  001c9	f3 0f 11 04 24	 movss	 DWORD PTR [esp], xmm0
  001ce	e8 00 00 00 00	 call	 ?PrintFullText@ioComplexStringPrinter@@QAEXMMW4TextAlignType@@E@Z ; ioComplexStringPrinter::PrintFullText

; 977  : 		kCountPrinter.PrintFullText( fXPos + 6, fYPos + 17, TAT_CENTER );

  001d3	f3 0f 10 45 0c	 movss	 xmm0, DWORD PTR _fYPos$[ebp]
  001d8	56		 push	 esi
  001d9	6a 01		 push	 1
  001db	0f 5a c0	 cvtps2pd xmm0, xmm0
  001de	f2 0f 58 05 00
	00 00 00	 addsd	 xmm0, QWORD PTR __real@4031000000000000
  001e6	51		 push	 ecx
  001e7	51		 push	 ecx
  001e8	f2 0f 5a c0	 cvtsd2ss xmm0, xmm0
  001ec	f3 0f 11 44 24
	04		 movss	 DWORD PTR [esp+4], xmm0
  001f2	f3 0f 10 45 08	 movss	 xmm0, DWORD PTR tv284[ebp]
  001f7	8d 4d d0	 lea	 ecx, DWORD PTR _kCountPrinter$557615[ebp]
  001fa	f3 0f 11 04 24	 movss	 DWORD PTR [esp], xmm0
  001ff	e8 00 00 00 00	 call	 ?PrintFullText@ioComplexStringPrinter@@QAEXMMW4TextAlignType@@E@Z ; ioComplexStringPrinter::PrintFullText

; 978  : 	}

  00204	8d 4d d0	 lea	 ecx, DWORD PTR _kCountPrinter$557615[ebp]
  00207	c6 45 fc 00	 mov	 BYTE PTR __$EHRec$[ebp+8], 0
  0020b	e8 00 00 00 00	 call	 ??1ioComplexStringPrinter@@QAE@XZ ; ioComplexStringPrinter::~ioComplexStringPrinter
  00210	83 4d fc ff	 or	 DWORD PTR __$EHRec$[ebp+8], -1
  00214	8d 4d b0	 lea	 ecx, DWORD PTR _kMentPrinter$557614[ebp]
  00217	e8 00 00 00 00	 call	 ??1ioComplexStringPrinter@@QAE@XZ ; ioComplexStringPrinter::~ioComplexStringPrinter
$LN2@OnRenderTo@7:

; 979  : }

  0021c	e8 00 00 00 00	 call	 __EH_epilog3
  00221	c2 08 00	 ret	 8
_TEXT	ENDS
;	COMDAT text$x
text$x	SEGMENT
__unwindfunclet$?OnRenderTooltipTimeRollBook@MenuBtn@@QAEXMM@Z$0:
  00000	8d 4d b0	 lea	 ecx, DWORD PTR _kMentPrinter$557614[ebp]
  00003	e9 00 00 00 00	 jmp	 ??1ioComplexStringPrinter@@QAE@XZ ; ioComplexStringPrinter::~ioComplexStringPrinter
__unwindfunclet$?OnRenderTooltipTimeRollBook@MenuBtn@@QAEXMM@Z$1:
  00008	8d 4d d0	 lea	 ecx, DWORD PTR _kCountPrinter$557615[ebp]
  0000b	e9 00 00 00 00	 jmp	 ??1ioComplexStringPrinter@@QAE@XZ ; ioComplexStringPrinter::~ioComplexStringPrinter
__ehhandler$?OnRenderTooltipTimeRollBook@MenuBtn@@QAEXMM@Z:
  00010	8b 54 24 08	 mov	 edx, DWORD PTR [esp+8]
  00014	8d 42 0c	 lea	 eax, DWORD PTR [edx+12]
  00017	8b 4a ac	 mov	 ecx, DWORD PTR [edx-84]
  0001a	33 c8		 xor	 ecx, eax
  0001c	e8 00 00 00 00	 call	 @__security_check_cookie@4
  00021	b8 00 00 00 00	 mov	 eax, OFFSET __ehfuncinfo$?OnRenderTooltipTimeRollBook@MenuBtn@@QAEXMM@Z
  00026	e9 00 00 00 00	 jmp	 ___CxxFrameHandler3
text$x	ENDS
?OnRenderTooltipTimeRollBook@MenuBtn@@QAEXMM@Z ENDP	; MenuBtn::OnRenderTooltipTimeRollBook
; Function compile flags: /Ogsp
;	COMDAT ??_GMessengerBtn@@UAEPAXI@Z
_TEXT	SEGMENT
___flags$ = 8						; size = 4
??_GMessengerBtn@@UAEPAXI@Z PROC			; MessengerBtn::`scalar deleting destructor', COMDAT
; _this$ = ecx
  00000	55		 push	 ebp
  00001	8b ec		 mov	 ebp, esp
  00003	56		 push	 esi
  00004	8b f1		 mov	 esi, ecx
  00006	e8 00 00 00 00	 call	 ??1MessengerBtn@@UAE@XZ	; MessengerBtn::~MessengerBtn
  0000b	f6 45 08 01	 test	 BYTE PTR ___flags$[ebp], 1
  0000f	74 07		 je	 SHORT $LN1@scalar@4
  00011	56		 push	 esi
  00012	e8 00 00 00 00	 call	 ??3@YAXPAX@Z		; operator delete
  00017	59		 pop	 ecx
$LN1@scalar@4:
  00018	8b c6		 mov	 eax, esi
  0001a	5e		 pop	 esi
  0001b	5d		 pop	 ebp
  0001c	c2 04 00	 ret	 4
??_GMessengerBtn@@UAEPAXI@Z ENDP			; MessengerBtn::`scalar deleting destructor'
_TEXT	ENDS
PUBLIC	__real@4022000000000000
PUBLIC	__real@402e000000000000
PUBLIC	??_C@_0BH@HLDBIHJC@MessengerBtn?3?3OnRender?$AA@ ; `string'
EXTRN	?GetRecvCloverCount@ioClover@@QAEHXZ:PROC	; ioClover::GetRecvCloverCount
EXTRN	?GetNotViewMemoCount@ioMemoManager@@QAEHXZ:PROC	; ioMemoManager::GetNotViewMemoCount
EXTRN	?GetSingleton@ioMemoManager@@SAAAV1@XZ:PROC	; ioMemoManager::GetSingleton
EXTRN	?GetOnlineNodeSize@ioFriendManager@@QAEHXZ:PROC	; ioFriendManager::GetOnlineNodeSize
EXTRN	?GetSingleton@ioFriendManager@@SAAAV1@XZ:PROC	; ioFriendManager::GetSingleton
EXTRN	?GetOnlineUserSize@ioGuildData@@QAEHXZ:PROC	; ioGuildData::GetOnlineUserSize
EXTRN	?GetGuildData@ioGuildInfo@@QAEPAVioGuildData@@K_N@Z:PROC ; ioGuildInfo::GetGuildData
EXTRN	?GetSingleton@ioGuildInfo@@SAAAV1@XZ:PROC	; ioGuildInfo::GetSingleton
EXTRN	__imp_?OnRender@ioButton@@MAEXXZ:PROC
;	COMDAT __real@4022000000000000
; File d:\lost saga for developer\youtube\tutorial\source\src\lsclient\iocomplexstringprinter.h
CONST	SEGMENT
__real@4022000000000000 DQ 04022000000000000r	; 9
CONST	ENDS
;	COMDAT __real@402e000000000000
CONST	SEGMENT
__real@402e000000000000 DQ 0402e000000000000r	; 15
CONST	ENDS
;	COMDAT ??_C@_0BH@HLDBIHJC@MessengerBtn?3?3OnRender?$AA@
CONST	SEGMENT
??_C@_0BH@HLDBIHJC@MessengerBtn?3?3OnRender?$AA@ DB 'MessengerBtn::OnRend'
	DB	'er', 00H					; `string'
CONST	ENDS
;	COMDAT xdata$x
xdata$x	SEGMENT
__unwindtable$?OnRender@MessengerBtn@@MAEXXZ DD 0ffffffffH
	DD	FLAT:__unwindfunclet$?OnRender@MessengerBtn@@MAEXXZ$0
	DD	00H
	DD	FLAT:__unwindfunclet$?OnRender@MessengerBtn@@MAEXXZ$1
__ehfuncinfo$?OnRender@MessengerBtn@@MAEXXZ DD 019930522H
	DD	02H
	DD	FLAT:__unwindtable$?OnRender@MessengerBtn@@MAEXXZ
	DD	2 DUP(00H)
	DD	2 DUP(00H)
	DD	00H
	DD	01H
; Function compile flags: /Ogsp
; File d:\lost saga for developer\youtube\tutorial\source\src\lsclient\gui\helpwnd.cpp
xdata$x	ENDS
;	COMDAT ?OnRender@MessengerBtn@@MAEXXZ
_TEXT	SEGMENT
_kFriendPrinter$557743 = -104				; size = 32
_kMemoPrinter$557744 = -72				; size = 32
tv319 = -40						; size = 4
_this$ = -40						; size = 4
_iYPos$ = -36						; size = 4
_iXPos$ = -32						; size = 4
_iNewMemoCount$ = -28					; size = 4
_fTextWidth$557750 = -24				; size = 4
_iOnlineFriend$ = -24					; size = 4
_iRecvCloverCount$ = -20				; size = 4
_iOnlineGuild$ = -16					; size = 4
__$EHRec$ = -12						; size = 12
?OnRender@MessengerBtn@@MAEXXZ PROC			; MessengerBtn::OnRender, COMDAT
; _this$ = ecx

; 1133 : {

  00000	6a 5c		 push	 92			; 0000005cH
  00002	b8 00 00 00 00	 mov	 eax, __ehhandler$?OnRender@MessengerBtn@@MAEXXZ
  00007	e8 00 00 00 00	 call	 __EH_prolog3
  0000c	8b f1		 mov	 esi, ecx
  0000e	89 75 d8	 mov	 DWORD PTR _this$[ebp], esi

; 1134 : 	int iXPos, iYPos;
; 1135 : 	iXPos = GetDerivedPosX();

  00011	ff 15 00 00 00
	00		 call	 DWORD PTR __imp_?GetDerivedPosX@ioWnd@@QBEHXZ

; 1136 : 	iYPos = GetDerivedPosY();

  00017	8b ce		 mov	 ecx, esi
  00019	89 45 e0	 mov	 DWORD PTR _iXPos$[ebp], eax
  0001c	ff 15 00 00 00
	00		 call	 DWORD PTR __imp_?GetDerivedPosY@ioWnd@@QBEHXZ

; 1137 : 
; 1138 : 	ioButton::OnRender();

  00022	8b ce		 mov	 ecx, esi
  00024	89 45 dc	 mov	 DWORD PTR _iYPos$[ebp], eax
  00027	ff 15 00 00 00
	00		 call	 DWORD PTR __imp_?OnRender@ioButton@@MAEXXZ

; 1139 : 
; 1140 : 	/*
; 1141 : 	WORD wCustomKey = g_KeyManager.GetCurrentMessengerKey();
; 1142 : 	if( wCustomKey != 0 )
; 1143 : 	{
; 1144 : 		ioComplexStringPrinter kPrinter;
; 1145 : 		kPrinter.SetTextStyle( TS_OUTLINE_FULL_3X );
; 1146 : 		kPrinter.SetBkColor( 15, 80, 30 );	
; 1147 : 		if( IsDisabled() || IsExDisabled() )
; 1148 : 			kPrinter.SetTextColor( TCT_DEFAULT_LIGHTGRAY );
; 1149 : 		else
; 1150 : 			kPrinter.SetTextColor( TCT_DEFAULT_WHITE );
; 1151 : 		kPrinter.AddTextPiece( FONT_SIZE_9, STR(1), g_KeyManager.GetKeyText( wCustomKey ) );
; 1152 : 		kPrinter.PrintFullText( iXPos + 4, iYPos + 3, TAT_LEFT );
; 1153 : 	}
; 1154 : 	*/
; 1155 : 
; 1156 : 	// 
; 1157 : 	int iOnlineGuild  = 0;

  0002d	33 ff		 xor	 edi, edi
  0002f	89 7d f0	 mov	 DWORD PTR _iOnlineGuild$[ebp], edi

; 1158 : 	ioGuildData *pGuildData = g_GuildInfo.GetGuildData( g_GuildInfo.GetGuildIndex() );

  00032	e8 00 00 00 00	 call	 ?GetSingleton@ioGuildInfo@@SAAAV1@XZ ; ioGuildInfo::GetSingleton
  00037	8b 80 90 00 00
	00		 mov	 eax, DWORD PTR [eax+144]
  0003d	57		 push	 edi
  0003e	50		 push	 eax
  0003f	e8 00 00 00 00	 call	 ?GetSingleton@ioGuildInfo@@SAAAV1@XZ ; ioGuildInfo::GetSingleton
  00044	8b c8		 mov	 ecx, eax
  00046	e8 00 00 00 00	 call	 ?GetGuildData@ioGuildInfo@@QAEPAVioGuildData@@K_N@Z ; ioGuildInfo::GetGuildData
  0004b	8b f0		 mov	 esi, eax

; 1159 : 	if( pGuildData )

  0004d	3b f7		 cmp	 esi, edi
  0004f	74 1a		 je	 SHORT $LN8@OnRender

; 1160 : 	{
; 1161 : 		iOnlineGuild = max( 0, (int)pGuildData->GetOnlineUserSize() - 1 );

  00051	8b ce		 mov	 ecx, esi
  00053	e8 00 00 00 00	 call	 ?GetOnlineUserSize@ioGuildData@@QAEHXZ ; ioGuildData::GetOnlineUserSize
  00058	48		 dec	 eax
  00059	79 05		 jns	 SHORT $LN7@OnRender
  0005b	89 7d f0	 mov	 DWORD PTR _iOnlineGuild$[ebp], edi
  0005e	eb 0b		 jmp	 SHORT $LN8@OnRender
$LN7@OnRender:
  00060	8b ce		 mov	 ecx, esi
  00062	e8 00 00 00 00	 call	 ?GetOnlineUserSize@ioGuildData@@QAEHXZ ; ioGuildData::GetOnlineUserSize
  00067	48		 dec	 eax
  00068	89 45 f0	 mov	 DWORD PTR _iOnlineGuild$[ebp], eax
$LN8@OnRender:

; 1162 : 	}
; 1163 : 	int iOnlineFriend = g_FriendManager.GetOnlineNodeSize();

  0006b	e8 00 00 00 00	 call	 ?GetSingleton@ioFriendManager@@SAAAV1@XZ ; ioFriendManager::GetSingleton
  00070	8b c8		 mov	 ecx, eax
  00072	e8 00 00 00 00	 call	 ?GetOnlineNodeSize@ioFriendManager@@QAEHXZ ; ioFriendManager::GetOnlineNodeSize
  00077	89 45 e8	 mov	 DWORD PTR _iOnlineFriend$[ebp], eax

; 1164 : 	int iNewMemoCount = g_MemoManager.GetNotViewMemoCount();

  0007a	e8 00 00 00 00	 call	 ?GetSingleton@ioMemoManager@@SAAAV1@XZ ; ioMemoManager::GetSingleton
  0007f	8b c8		 mov	 ecx, eax
  00081	e8 00 00 00 00	 call	 ?GetNotViewMemoCount@ioMemoManager@@QAEHXZ ; ioMemoManager::GetNotViewMemoCount
  00086	8b f0		 mov	 esi, eax
  00088	89 75 e4	 mov	 DWORD PTR _iNewMemoCount$[ebp], esi

; 1165 : 	int iRecvCloverCount = 0;

  0008b	89 7d ec	 mov	 DWORD PTR _iRecvCloverCount$[ebp], edi

; 1166 : 	ioClover *pClover = g_MyInfo.GetClover();

  0008e	e8 00 00 00 00	 call	 ?GetSingleton@ioMyInfo@@SAAAV1@XZ ; ioMyInfo::GetSingleton
  00093	8d 88 8c 0a 00
	00		 lea	 ecx, DWORD PTR [eax+2700]

; 1167 : 	if( pClover )

  00099	3b cf		 cmp	 ecx, edi
  0009b	74 08		 je	 SHORT $LN3@OnRender

; 1168 : 		iRecvCloverCount = pClover->GetRecvCloverCount();

  0009d	e8 00 00 00 00	 call	 ?GetRecvCloverCount@ioClover@@QAEHXZ ; ioClover::GetRecvCloverCount
  000a2	89 45 ec	 mov	 DWORD PTR _iRecvCloverCount$[ebp], eax
$LN3@OnRender:

; 1169 : 
; 1170 : 	if( iOnlineGuild + iOnlineFriend + iNewMemoCount + iRecvCloverCount > 0 && HelpWnd::IsMoveStateShow() )

  000a5	8b 45 ec	 mov	 eax, DWORD PTR _iRecvCloverCount$[ebp]
  000a8	03 c6		 add	 eax, esi
  000aa	03 45 e8	 add	 eax, DWORD PTR _iOnlineFriend$[ebp]
  000ad	03 45 f0	 add	 eax, DWORD PTR _iOnlineGuild$[ebp]
  000b0	85 c0		 test	 eax, eax
  000b2	0f 8e 12 02 00
	00		 jle	 $LN2@OnRender
  000b8	39 3d 00 00 00
	00		 cmp	 DWORD PTR ?sg_dwMoveState@HelpWnd@@1KA, edi ; HelpWnd::sg_dwMoveState
  000be	0f 85 06 02 00
	00		 jne	 $LN2@OnRender

; 1171 : 	{
; 1172 : 		ioComplexStringPrinter kFriendPrinter;

  000c4	8d 4d 98	 lea	 ecx, DWORD PTR _kFriendPrinter$557743[ebp]
  000c7	e8 00 00 00 00	 call	 ??0ioComplexStringPrinter@@QAE@XZ ; ioComplexStringPrinter::ioComplexStringPrinter

; 1173 : 		ioComplexStringPrinter kMemoPrinter;

  000cc	8d 4d b8	 lea	 ecx, DWORD PTR _kMemoPrinter$557744[ebp]
  000cf	89 7d fc	 mov	 DWORD PTR __$EHRec$[ebp+8], edi
  000d2	e8 00 00 00 00	 call	 ??0ioComplexStringPrinter@@QAE@XZ ; ioComplexStringPrinter::ioComplexStringPrinter

; 1174 : 
; 1175 : 		kFriendPrinter.SetTextStyle( TS_NORMAL );

  000d7	57		 push	 edi
  000d8	8d 4d 98	 lea	 ecx, DWORD PTR _kFriendPrinter$557743[ebp]
  000db	c6 45 fc 01	 mov	 BYTE PTR __$EHRec$[ebp+8], 1
  000df	e8 00 00 00 00	 call	 ?SetTextStyle@ioComplexStringPrinter@@QAEXW4TextStyle@@@Z ; ioComplexStringPrinter::SetTextStyle

; 1176 : 		kFriendPrinter.SetTextColor( TCT_DEFAULT_DARKGRAY );

  000e4	68 3a 3a 3a ff	 push	 -12961222		; ff3a3a3aH
  000e9	8d 4d 98	 lea	 ecx, DWORD PTR _kFriendPrinter$557743[ebp]
  000ec	e8 00 00 00 00	 call	 ?SetTextColor@ioComplexStringPrinter@@QAEXK@Z ; ioComplexStringPrinter::SetTextColor

; 1177 : 		kFriendPrinter.AddTextPiece( FONT_SIZE_12, STR(2) );

  000f1	8b 35 00 00 00
	00		 mov	 esi, DWORD PTR __imp_?GetSingleton@ioStringManager@@SAAAV1@XZ
  000f7	57		 push	 edi
  000f8	6a 02		 push	 2
  000fa	68 00 00 00 00	 push	 OFFSET ??_C@_00CNPNBAHC@?$AA@
  000ff	bb 00 00 00 00	 mov	 ebx, OFFSET ??_C@_0BH@HLDBIHJC@MessengerBtn?3?3OnRender?$AA@
  00104	53		 push	 ebx
  00105	ff d6		 call	 esi
  00107	8b 3d 00 00 00
	00		 mov	 edi, DWORD PTR __imp_?GetString@ioStringManager@@QAEPADPBD0HW4FileNamePrefix@1@@Z
  0010d	8b c8		 mov	 ecx, eax
  0010f	ff d7		 call	 edi
  00111	f3 0f 10 05 00
	00 00 00	 movss	 xmm0, DWORD PTR __real@3f19999a
  00119	50		 push	 eax
  0011a	51		 push	 ecx
  0011b	8d 45 98	 lea	 eax, DWORD PTR _kFriendPrinter$557743[ebp]
  0011e	f3 0f 11 04 24	 movss	 DWORD PTR [esp], xmm0
  00123	50		 push	 eax
  00124	e8 00 00 00 00	 call	 ?AddTextPiece@ioComplexStringPrinter@@QAAXMPBDZZ ; ioComplexStringPrinter::AddTextPiece
  00129	83 c4 0c	 add	 esp, 12			; 0000000cH

; 1178 : 		kFriendPrinter.SetTextColor( TCT_DEFAULT_RED );

  0012c	68 00 16 b9 ff	 push	 -4647424		; ffb91600H
  00131	8d 4d 98	 lea	 ecx, DWORD PTR _kFriendPrinter$557743[ebp]
  00134	e8 00 00 00 00	 call	 ?SetTextColor@ioComplexStringPrinter@@QAEXK@Z ; ioComplexStringPrinter::SetTextColor

; 1179 : 		kFriendPrinter.AddTextPiece( FONT_SIZE_12, STR(3), iOnlineFriend, iOnlineGuild );

  00139	ff 75 f0	 push	 DWORD PTR _iOnlineGuild$[ebp]
  0013c	ff 75 e8	 push	 DWORD PTR _iOnlineFriend$[ebp]
  0013f	6a 00		 push	 0
  00141	6a 03		 push	 3
  00143	68 00 00 00 00	 push	 OFFSET ??_C@_00CNPNBAHC@?$AA@
  00148	53		 push	 ebx
  00149	ff d6		 call	 esi
  0014b	8b c8		 mov	 ecx, eax
  0014d	ff d7		 call	 edi
  0014f	f3 0f 10 05 00
	00 00 00	 movss	 xmm0, DWORD PTR __real@3f19999a
  00157	50		 push	 eax
  00158	51		 push	 ecx
  00159	8d 4d 98	 lea	 ecx, DWORD PTR _kFriendPrinter$557743[ebp]
  0015c	f3 0f 11 04 24	 movss	 DWORD PTR [esp], xmm0
  00161	e8 00 00 00 00	 call	 ?AddTextPiece@ioComplexStringPrinter@@QAEXMPBDHH@Z ; ioComplexStringPrinter::AddTextPiece

; 1180 : 
; 1181 : 		kMemoPrinter.SetTextStyle( TS_NORMAL );

  00166	6a 00		 push	 0
  00168	8d 4d b8	 lea	 ecx, DWORD PTR _kMemoPrinter$557744[ebp]
  0016b	e8 00 00 00 00	 call	 ?SetTextStyle@ioComplexStringPrinter@@QAEXW4TextStyle@@@Z ; ioComplexStringPrinter::SetTextStyle

; 1182 : 		kMemoPrinter.SetTextColor( TCT_DEFAULT_DARKGRAY );

  00170	68 3a 3a 3a ff	 push	 -12961222		; ff3a3a3aH
  00175	8d 4d b8	 lea	 ecx, DWORD PTR _kMemoPrinter$557744[ebp]
  00178	e8 00 00 00 00	 call	 ?SetTextColor@ioComplexStringPrinter@@QAEXK@Z ; ioComplexStringPrinter::SetTextColor

; 1183 : 		kMemoPrinter.AddTextPiece( FONT_SIZE_12, STR(6) );

  0017d	6a 00		 push	 0
  0017f	6a 06		 push	 6
  00181	68 00 00 00 00	 push	 OFFSET ??_C@_00CNPNBAHC@?$AA@
  00186	53		 push	 ebx
  00187	ff d6		 call	 esi
  00189	8b c8		 mov	 ecx, eax
  0018b	ff d7		 call	 edi
  0018d	f3 0f 10 05 00
	00 00 00	 movss	 xmm0, DWORD PTR __real@3f19999a
  00195	50		 push	 eax
  00196	51		 push	 ecx
  00197	8d 45 b8	 lea	 eax, DWORD PTR _kMemoPrinter$557744[ebp]
  0019a	f3 0f 11 04 24	 movss	 DWORD PTR [esp], xmm0
  0019f	50		 push	 eax
  001a0	e8 00 00 00 00	 call	 ?AddTextPiece@ioComplexStringPrinter@@QAAXMPBDZZ ; ioComplexStringPrinter::AddTextPiece
  001a5	83 c4 0c	 add	 esp, 12			; 0000000cH

; 1184 : 		kMemoPrinter.SetTextColor( TCT_DEFAULT_RED );

  001a8	68 00 16 b9 ff	 push	 -4647424		; ffb91600H
  001ad	8d 4d b8	 lea	 ecx, DWORD PTR _kMemoPrinter$557744[ebp]
  001b0	e8 00 00 00 00	 call	 ?SetTextColor@ioComplexStringPrinter@@QAEXK@Z ; ioComplexStringPrinter::SetTextColor

; 1185 : 		kMemoPrinter.AddTextPiece( FONT_SIZE_12, STR(7), iRecvCloverCount, iNewMemoCount );

  001b5	ff 75 e4	 push	 DWORD PTR _iNewMemoCount$[ebp]
  001b8	ff 75 ec	 push	 DWORD PTR _iRecvCloverCount$[ebp]
  001bb	6a 00		 push	 0
  001bd	6a 07		 push	 7
  001bf	68 00 00 00 00	 push	 OFFSET ??_C@_00CNPNBAHC@?$AA@
  001c4	53		 push	 ebx
  001c5	ff d6		 call	 esi
  001c7	8b c8		 mov	 ecx, eax
  001c9	ff d7		 call	 edi
  001cb	f3 0f 10 05 00
	00 00 00	 movss	 xmm0, DWORD PTR __real@3f19999a
  001d3	50		 push	 eax
  001d4	51		 push	 ecx
  001d5	8d 4d b8	 lea	 ecx, DWORD PTR _kMemoPrinter$557744[ebp]
  001d8	f3 0f 11 04 24	 movss	 DWORD PTR [esp], xmm0
  001dd	e8 00 00 00 00	 call	 ?AddTextPiece@ioComplexStringPrinter@@QAEXMPBDHH@Z ; ioComplexStringPrinter::AddTextPiece

; 1186 : 
; 1187 : 		float fTextWidth = kFriendPrinter.GetFullWidth();

  001e2	f3 0f 10 45 b4	 movss	 xmm0, DWORD PTR _kFriendPrinter$557743[ebp+28]

; 1188 : 		if( fTextWidth < kMemoPrinter.GetFullWidth() )

  001e7	f3 0f 10 55 d4	 movss	 xmm2, DWORD PTR _kMemoPrinter$557744[ebp+28]
  001ec	f3 0f 10 c8	 movss	 xmm1, xmm0
  001f0	0f 5a c9	 cvtps2pd xmm1, xmm1
  001f3	0f 5a d2	 cvtps2pd xmm2, xmm2
  001f6	66 0f 2f d1	 comisd	 xmm2, xmm1
  001fa	f3 0f 11 45 e8	 movss	 DWORD PTR _fTextWidth$557750[ebp], xmm0
  001ff	76 0a		 jbe	 SHORT $LN21@OnRender

; 1189 : 			fTextWidth = kMemoPrinter.GetFullWidth();

  00201	f3 0f 10 45 d4	 movss	 xmm0, DWORD PTR _kMemoPrinter$557744[ebp+28]
  00206	f3 0f 11 45 e8	 movss	 DWORD PTR _fTextWidth$557750[ebp], xmm0
$LN21@OnRender:

; 1190 : 		
; 1191 : 		iXPos -= ( fTextWidth - 15 );
; 1192 : 		iYPos -= 28;

  0020b	8b 7d dc	 mov	 edi, DWORD PTR _iYPos$[ebp]
  0020e	66 0f 6e 4d e0	 movd	 xmm1, DWORD PTR _iXPos$[ebp]

; 1193 : 		OnRenderTooltip( iXPos, iYPos - 6, fTextWidth );

  00213	51		 push	 ecx
  00214	8b 4d d8	 mov	 ecx, DWORD PTR _this$[ebp]
  00217	0f 5a d0	 cvtps2pd xmm2, xmm0
  0021a	f2 0f 5c 15 00
	00 00 00	 subsd	 xmm2, QWORD PTR __real@402e000000000000
  00222	f3 0f 11 04 24	 movss	 DWORD PTR [esp], xmm0
  00227	8d 47 de	 lea	 eax, DWORD PTR [edi-34]
  0022a	f3 0f e6 c9	 cvtdq2pd xmm1, xmm1
  0022e	f2 0f 5c ca	 subsd	 xmm1, xmm2
  00232	50		 push	 eax
  00233	f2 0f 2c f1	 cvttsd2si esi, xmm1
  00237	56		 push	 esi
  00238	e8 00 00 00 00	 call	 ?OnRenderTooltip@MessengerBtn@@IAEXHHM@Z ; MessengerBtn::OnRenderTooltip

; 1194 : 		kFriendPrinter.PrintFullText( iXPos + fTextWidth + 9, iYPos + 4, TAT_RIGHT );

  0023d	f3 0f 10 4d e8	 movss	 xmm1, DWORD PTR _fTextWidth$557750[ebp]
  00242	0f 57 c0	 xorps	 xmm0, xmm0
  00245	f3 0f 2a c6	 cvtsi2ss xmm0, esi
  00249	be ff 00 00 00	 mov	 esi, 255		; 000000ffH
  0024e	56		 push	 esi
  0024f	6a 02		 push	 2
  00251	0f 5a c0	 cvtps2pd xmm0, xmm0
  00254	0f 5a c9	 cvtps2pd xmm1, xmm1
  00257	f2 0f 58 c1	 addsd	 xmm0, xmm1
  0025b	f2 0f 58 05 00
	00 00 00	 addsd	 xmm0, QWORD PTR __real@4022000000000000
  00263	51		 push	 ecx
  00264	51		 push	 ecx
  00265	8d 47 e8	 lea	 eax, DWORD PTR [edi-24]
  00268	0f 57 c9	 xorps	 xmm1, xmm1
  0026b	66 0f 5a c0	 cvtpd2ps xmm0, xmm0
  0026f	f3 0f 2a c8	 cvtsi2ss xmm1, eax
  00273	f3 0f 11 4c 24
	04		 movss	 DWORD PTR [esp+4], xmm1
  00279	8d 4d 98	 lea	 ecx, DWORD PTR _kFriendPrinter$557743[ebp]
  0027c	f3 0f 11 45 d8	 movss	 DWORD PTR tv319[ebp], xmm0
  00281	f3 0f 11 04 24	 movss	 DWORD PTR [esp], xmm0
  00286	e8 00 00 00 00	 call	 ?PrintFullText@ioComplexStringPrinter@@QAEXMMW4TextAlignType@@E@Z ; ioComplexStringPrinter::PrintFullText

; 1195 : 		kMemoPrinter.PrintFullText( iXPos + fTextWidth + 9, iYPos + 17, TAT_RIGHT );

  0028b	56		 push	 esi
  0028c	6a 02		 push	 2
  0028e	51		 push	 ecx
  0028f	51		 push	 ecx
  00290	0f 57 c0	 xorps	 xmm0, xmm0
  00293	83 c7 f5	 add	 edi, -11		; fffffff5H
  00296	f3 0f 2a c7	 cvtsi2ss xmm0, edi
  0029a	f3 0f 11 44 24
	04		 movss	 DWORD PTR [esp+4], xmm0
  002a0	f3 0f 10 45 d8	 movss	 xmm0, DWORD PTR tv319[ebp]
  002a5	8d 4d b8	 lea	 ecx, DWORD PTR _kMemoPrinter$557744[ebp]
  002a8	f3 0f 11 04 24	 movss	 DWORD PTR [esp], xmm0
  002ad	e8 00 00 00 00	 call	 ?PrintFullText@ioComplexStringPrinter@@QAEXMMW4TextAlignType@@E@Z ; ioComplexStringPrinter::PrintFullText

; 1196 : 	}

  002b2	8d 4d b8	 lea	 ecx, DWORD PTR _kMemoPrinter$557744[ebp]
  002b5	c6 45 fc 00	 mov	 BYTE PTR __$EHRec$[ebp+8], 0
  002b9	e8 00 00 00 00	 call	 ??1ioComplexStringPrinter@@QAE@XZ ; ioComplexStringPrinter::~ioComplexStringPrinter
  002be	83 4d fc ff	 or	 DWORD PTR __$EHRec$[ebp+8], -1
  002c2	8d 4d 98	 lea	 ecx, DWORD PTR _kFriendPrinter$557743[ebp]
  002c5	e8 00 00 00 00	 call	 ??1ioComplexStringPrinter@@QAE@XZ ; ioComplexStringPrinter::~ioComplexStringPrinter
$LN2@OnRender:

; 1197 : }

  002ca	e8 00 00 00 00	 call	 __EH_epilog3
  002cf	c3		 ret	 0
_TEXT	ENDS
;	COMDAT text$x
text$x	SEGMENT
__unwindfunclet$?OnRender@MessengerBtn@@MAEXXZ$0:
  00000	8d 4d 98	 lea	 ecx, DWORD PTR _kFriendPrinter$557743[ebp]
  00003	e9 00 00 00 00	 jmp	 ??1ioComplexStringPrinter@@QAE@XZ ; ioComplexStringPrinter::~ioComplexStringPrinter
__unwindfunclet$?OnRender@MessengerBtn@@MAEXXZ$1:
  00008	8d 4d b8	 lea	 ecx, DWORD PTR _kMemoPrinter$557744[ebp]
  0000b	e9 00 00 00 00	 jmp	 ??1ioComplexStringPrinter@@QAE@XZ ; ioComplexStringPrinter::~ioComplexStringPrinter
__ehhandler$?OnRender@MessengerBtn@@MAEXXZ:
  00010	8b 54 24 08	 mov	 edx, DWORD PTR [esp+8]
  00014	8d 42 0c	 lea	 eax, DWORD PTR [edx+12]
  00017	8b 4a 94	 mov	 ecx, DWORD PTR [edx-108]
  0001a	33 c8		 xor	 ecx, eax
  0001c	e8 00 00 00 00	 call	 @__security_check_cookie@4
  00021	b8 00 00 00 00	 mov	 eax, OFFSET __ehfuncinfo$?OnRender@MessengerBtn@@MAEXXZ
  00026	e9 00 00 00 00	 jmp	 ___CxxFrameHandler3
text$x	ENDS
?OnRender@MessengerBtn@@MAEXXZ ENDP			; MessengerBtn::OnRender
; Function compile flags: /Ogsp
;	COMDAT ??_GPlazaStateBtn@@UAEPAXI@Z
_TEXT	SEGMENT
___flags$ = 8						; size = 4
??_GPlazaStateBtn@@UAEPAXI@Z PROC			; PlazaStateBtn::`scalar deleting destructor', COMDAT
; _this$ = ecx
  00000	55		 push	 ebp
  00001	8b ec		 mov	 ebp, esp
  00003	56		 push	 esi
  00004	8b f1		 mov	 esi, ecx
  00006	e8 00 00 00 00	 call	 ??1PlazaStateBtn@@UAE@XZ ; PlazaStateBtn::~PlazaStateBtn
  0000b	f6 45 08 01	 test	 BYTE PTR ___flags$[ebp], 1
  0000f	74 07		 je	 SHORT $LN1@scalar@5
  00011	56		 push	 esi
  00012	e8 00 00 00 00	 call	 ??3@YAXPAX@Z		; operator delete
  00017	59		 pop	 ecx
$LN1@scalar@5:
  00018	8b c6		 mov	 eax, esi
  0001a	5e		 pop	 esi
  0001b	5d		 pop	 ebp
  0001c	c2 04 00	 ret	 4
??_GPlazaStateBtn@@UAEPAXI@Z ENDP			; PlazaStateBtn::`scalar deleting destructor'
; Function compile flags: /Ogsp
_TEXT	ENDS
;	COMDAT ??_GHelpWnd@@UAEPAXI@Z
_TEXT	SEGMENT
___flags$ = 8						; size = 4
??_GHelpWnd@@UAEPAXI@Z PROC				; HelpWnd::`scalar deleting destructor', COMDAT
; _this$ = ecx
  00000	55		 push	 ebp
  00001	8b ec		 mov	 ebp, esp
  00003	56		 push	 esi
  00004	8b f1		 mov	 esi, ecx
  00006	e8 00 00 00 00	 call	 ??1HelpWnd@@UAE@XZ	; HelpWnd::~HelpWnd
  0000b	f6 45 08 01	 test	 BYTE PTR ___flags$[ebp], 1
  0000f	74 07		 je	 SHORT $LN1@scalar@6
  00011	56		 push	 esi
  00012	e8 00 00 00 00	 call	 ??3@YAXPAX@Z		; operator delete
  00017	59		 pop	 ecx
$LN1@scalar@6:
  00018	8b c6		 mov	 eax, esi
  0001a	5e		 pop	 esi
  0001b	5d		 pop	 ebp
  0001c	c2 04 00	 ret	 4
??_GHelpWnd@@UAEPAXI@Z ENDP				; HelpWnd::`scalar deleting destructor'
_TEXT	ENDS
PUBLIC	??_C@_0BI@PKGPLKCF@HelpWnd?3?3FishingProcess?$AA@ ; `string'
PUBLIC	_this$GSCopy$
PUBLIC	__$ArrayPad$
PUBLIC	?FishingProcess@HelpWnd@@IAEXXZ			; HelpWnd::FishingProcess
EXTRN	?SetFishingState@ioBaseChar@@QAEX_N@Z:PROC	; ioBaseChar::SetFishingState
EXTRN	?EnableFishing@ioBaseChar@@QAE_N_N@Z:PROC	; ioBaseChar::EnableFishing
EXTRN	??1SP2Packet@@UAE@XZ:PROC			; SP2Packet::~SP2Packet
EXTRN	?SendToServer@TCPNetwork@@YAXAAVSP2Packet@@@Z:PROC ; TCPNetwork::SendToServer
EXTRN	??6SP2Packet@@QAEAAV0@H@Z:PROC			; SP2Packet::operator<<
EXTRN	??0SP2Packet@@QAE@K@Z:PROC			; SP2Packet::SP2Packet
EXTRN	?SetMsgBox@ioSP2GUIManager@@QAAXHPAVioWnd@@PBDZZ:PROC ; ioSP2GUIManager::SetMsgBox
EXTRN	__imp_?HideWnd@ioGUIManager@@QAEXK_N@Z:PROC
EXTRN	___security_cookie:DWORD
EXTRN	__chkstk:PROC
;	COMDAT ??_C@_0BI@PKGPLKCF@HelpWnd?3?3FishingProcess?$AA@
; File d:\lost saga for developer\youtube\tutorial\source\src\lsclient\ioapplication.h
CONST	SEGMENT
??_C@_0BI@PKGPLKCF@HelpWnd?3?3FishingProcess?$AA@ DB 'HelpWnd::FishingPro'
	DB	'cess', 00H					; `string'
CONST	ENDS
;	COMDAT xdata$x
xdata$x	SEGMENT
__unwindtable$?FishingProcess@HelpWnd@@IAEXXZ DD 0ffffffffH
	DD	FLAT:__unwindfunclet$?FishingProcess@HelpWnd@@IAEXXZ$0
__ehfuncinfo$?FishingProcess@HelpWnd@@IAEXXZ DD 019930522H
	DD	01H
	DD	FLAT:__unwindtable$?FishingProcess@HelpWnd@@IAEXXZ
	DD	2 DUP(00H)
	DD	2 DUP(00H)
	DD	00H
	DD	01H
; Function compile flags: /Ogsp
; File d:\lost saga for developer\youtube\tutorial\source\src\lsclient\gui\helpwnd.cpp
xdata$x	ENDS
;	COMDAT ?FishingProcess@HelpWnd@@IAEXXZ
_TEXT	SEGMENT
_this$GSCopy$ = -32812					; size = 4
_kPacket$558629 = -32808				; size = 32792
__$ArrayPad$ = -16					; size = 4
__$EHRec$ = -12						; size = 12
?FishingProcess@HelpWnd@@IAEXXZ PROC			; HelpWnd::FishingProcess, COMDAT
; _this$ = ecx

; 2178 : {

  00000	55		 push	 ebp
  00001	8b ec		 mov	 ebp, esp
  00003	6a ff		 push	 -1
  00005	68 00 00 00 00	 push	 __ehhandler$?FishingProcess@HelpWnd@@IAEXXZ
  0000a	64 a1 00 00 00
	00		 mov	 eax, DWORD PTR fs:0
  00010	50		 push	 eax
  00011	b8 20 80 00 00	 mov	 eax, 32800		; 00008020H
  00016	e8 00 00 00 00	 call	 __chkstk
  0001b	a1 00 00 00 00	 mov	 eax, DWORD PTR ___security_cookie
  00020	33 c5		 xor	 eax, ebp
  00022	89 45 f0	 mov	 DWORD PTR __$ArrayPad$[ebp], eax
  00025	53		 push	 ebx
  00026	56		 push	 esi
  00027	57		 push	 edi
  00028	50		 push	 eax
  00029	8d 45 f4	 lea	 eax, DWORD PTR __$EHRec$[ebp]
  0002c	64 a3 00 00 00
	00		 mov	 DWORD PTR fs:0, eax
  00032	89 8d d4 7f ff
	ff		 mov	 DWORD PTR _this$GSCopy$[ebp], ecx

; 2179 : 	if( g_App.GetConnectedMoveMode() != ioApplication::CMM_LOBBY )

  00038	e8 00 00 00 00	 call	 ?GetSingleton@ioApplication@@SAAAV1@XZ ; ioApplication::GetSingleton
  0003d	8b 80 ac 06 00
	00		 mov	 eax, DWORD PTR [eax+1708]
  00043	8b 3d 00 00 00
	00		 mov	 edi, DWORD PTR __imp_?HideWnd@ioGUIManager@@QAEXK_N@Z
  00049	8b 1d 00 00 00
	00		 mov	 ebx, DWORD PTR __imp_?IsShow@ioGUIManager@@QAE_NK@Z
  0004f	83 f8 02	 cmp	 eax, 2
  00052	74 1f		 je	 SHORT $LN9@FishingPro

; 2180 : 	{
; 2181 : 		if( g_GUIMgr.IsShow( LOBBY_QUICK_EXIT_WND ) )

  00054	be 69 18 00 00	 mov	 esi, 6249		; 00001869H
  00059	56		 push	 esi
  0005a	e8 00 00 00 00	 call	 ?GetSingleton@ioSP2GUIManager@@SAAAV1@XZ ; ioSP2GUIManager::GetSingleton
  0005f	8b c8		 mov	 ecx, eax
  00061	ff d3		 call	 ebx
  00063	84 c0		 test	 al, al
  00065	74 0c		 je	 SHORT $LN9@FishingPro

; 2182 : 			g_GUIMgr.HideWnd( LOBBY_QUICK_EXIT_WND );

  00067	6a 00		 push	 0
  00069	56		 push	 esi
  0006a	e8 00 00 00 00	 call	 ?GetSingleton@ioSP2GUIManager@@SAAAV1@XZ ; ioSP2GUIManager::GetSingleton
  0006f	8b c8		 mov	 ecx, eax
  00071	ff d7		 call	 edi
$LN9@FishingPro:

; 2183 : 	}
; 2184 : 
; 2185 : 	if( g_GUIMgr.IsShow( EXCAVATION_SEARCHING_WND ) )

  00073	68 cb 13 00 00	 push	 5067			; 000013cbH
  00078	e8 00 00 00 00	 call	 ?GetSingleton@ioSP2GUIManager@@SAAAV1@XZ ; ioSP2GUIManager::GetSingleton
  0007d	8b c8		 mov	 ecx, eax
  0007f	ff d3		 call	 ebx
  00081	84 c0		 test	 al, al
  00083	74 33		 je	 SHORT $LN8@FishingPro

; 2186 : 	{
; 2187 : 		g_GUIMgr.SetMsgBox( MB_OK, NULL, STR(1) );

  00085	33 f6		 xor	 esi, esi
  00087	56		 push	 esi
  00088	6a 01		 push	 1
  0008a	68 00 00 00 00	 push	 OFFSET ??_C@_00CNPNBAHC@?$AA@
  0008f	68 00 00 00 00	 push	 OFFSET ??_C@_0BI@PKGPLKCF@HelpWnd?3?3FishingProcess?$AA@
  00094	ff 15 00 00 00
	00		 call	 DWORD PTR __imp_?GetSingleton@ioStringManager@@SAAAV1@XZ
  0009a	8b c8		 mov	 ecx, eax
  0009c	ff 15 00 00 00
	00		 call	 DWORD PTR __imp_?GetString@ioStringManager@@QAEPADPBD0HW4FileNamePrefix@1@@Z
  000a2	50		 push	 eax
  000a3	56		 push	 esi
  000a4	56		 push	 esi
  000a5	e8 00 00 00 00	 call	 ?GetSingleton@ioSP2GUIManager@@SAAAV1@XZ ; ioSP2GUIManager::GetSingleton
  000aa	50		 push	 eax
  000ab	e8 00 00 00 00	 call	 ?SetMsgBox@ioSP2GUIManager@@QAAXHPAVioWnd@@PBDZZ ; ioSP2GUIManager::SetMsgBox
  000b0	83 c4 10	 add	 esp, 16			; 00000010H

; 2188 : 		return;

  000b3	e9 9c 00 00 00	 jmp	 $LN1@FishingPro
$LN8@FishingPro:

; 2189 : 	}
; 2190 : 
; 2191 : 	if( !g_GUIMgr.IsShow( FISHING_INVENTORY_WND ) )

  000b8	be cc 17 00 00	 mov	 esi, 6092		; 000017ccH
  000bd	56		 push	 esi
  000be	e8 00 00 00 00	 call	 ?GetSingleton@ioSP2GUIManager@@SAAAV1@XZ ; ioSP2GUIManager::GetSingleton
  000c3	8b c8		 mov	 ecx, eax
  000c5	ff d3		 call	 ebx
  000c7	84 c0		 test	 al, al
  000c9	75 3f		 jne	 SHORT $LN7@FishingPro

; 2192 : 	{
; 2193 : 		SP2Packet kPacket( CTPK_FISHING );

  000cb	68 81 01 00 00	 push	 385			; 00000181H
  000d0	8d 8d d8 7f ff
	ff		 lea	 ecx, DWORD PTR _kPacket$558629[ebp]
  000d6	e8 00 00 00 00	 call	 ??0SP2Packet@@QAE@K@Z	; SP2Packet::SP2Packet
  000db	83 65 fc 00	 and	 DWORD PTR __$EHRec$[ebp+8], 0

; 2194 : 		kPacket << FISHING_OPEN;

  000df	6a 05		 push	 5
  000e1	8d 8d d8 7f ff
	ff		 lea	 ecx, DWORD PTR _kPacket$558629[ebp]
  000e7	e8 00 00 00 00	 call	 ??6SP2Packet@@QAEAAV0@H@Z ; SP2Packet::operator<<

; 2195 : 		TCPNetwork::SendToServer( kPacket );

  000ec	8d 85 d8 7f ff
	ff		 lea	 eax, DWORD PTR _kPacket$558629[ebp]
  000f2	50		 push	 eax
  000f3	e8 00 00 00 00	 call	 ?SendToServer@TCPNetwork@@YAXAAVSP2Packet@@@Z ; TCPNetwork::SendToServer

; 2196 : 	}

  000f8	83 4d fc ff	 or	 DWORD PTR __$EHRec$[ebp+8], -1
  000fc	59		 pop	 ecx
  000fd	8d 8d d8 7f ff
	ff		 lea	 ecx, DWORD PTR _kPacket$558629[ebp]
  00103	e8 00 00 00 00	 call	 ??1SP2Packet@@UAE@XZ	; SP2Packet::~SP2Packet

; 2197 : 	else

  00108	eb 4a		 jmp	 SHORT $LN1@FishingPro
$LN7@FishingPro:

; 2198 : 	{
; 2199 : 		if( IsFishing() )

  0010a	8b 9d d4 7f ff
	ff		 mov	 ebx, DWORD PTR _this$GSCopy$[ebp]
  00110	8b cb		 mov	 ecx, ebx
  00112	e8 00 00 00 00	 call	 ?IsFishing@HelpWnd@@QAE_NXZ ; HelpWnd::IsFishing
  00117	84 c0		 test	 al, al
  00119	74 0e		 je	 SHORT $LN5@FishingPro

; 2200 : 		{
; 2201 : 			//       
; 2202 : 			g_GUIMgr.HideWnd( FISHING_INVENTORY_WND );

  0011b	6a 00		 push	 0
  0011d	56		 push	 esi
  0011e	e8 00 00 00 00	 call	 ?GetSingleton@ioSP2GUIManager@@SAAAV1@XZ ; ioSP2GUIManager::GetSingleton
  00123	8b c8		 mov	 ecx, eax
  00125	ff d7		 call	 edi
  00127	eb 2b		 jmp	 SHORT $LN1@FishingPro
$LN5@FishingPro:

; 2203 : 		}
; 2204 : 		else if( m_pPlayStage )

  00129	8b 8b 80 01 00
	00		 mov	 ecx, DWORD PTR [ebx+384]
  0012f	85 c9		 test	 ecx, ecx
  00131	74 21		 je	 SHORT $LN1@FishingPro

; 2205 : 		{
; 2206 : 			ioBaseChar *pOwnerChar = m_pPlayStage->GetOwnerChar();

  00133	e8 00 00 00 00	 call	 ?GetOwnerChar@ioPlayStage@@QAEPAVioBaseChar@@XZ ; ioPlayStage::GetOwnerChar
  00138	8b f0		 mov	 esi, eax

; 2207 : 			if( pOwnerChar )

  0013a	85 f6		 test	 esi, esi
  0013c	74 16		 je	 SHORT $LN1@FishingPro

; 2208 : 			{
; 2209 : 				//    
; 2210 : 				if( pOwnerChar->EnableFishing( true ) )

  0013e	6a 01		 push	 1
  00140	8b ce		 mov	 ecx, esi
  00142	e8 00 00 00 00	 call	 ?EnableFishing@ioBaseChar@@QAE_N_N@Z ; ioBaseChar::EnableFishing
  00147	84 c0		 test	 al, al
  00149	74 09		 je	 SHORT $LN1@FishingPro

; 2211 : 				{
; 2212 : 					pOwnerChar->SetFishingState( true );

  0014b	6a 01		 push	 1
  0014d	8b ce		 mov	 ecx, esi
  0014f	e8 00 00 00 00	 call	 ?SetFishingState@ioBaseChar@@QAEX_N@Z ; ioBaseChar::SetFishingState
$LN1@FishingPro:

; 2213 : 				}
; 2214 : 			}
; 2215 : 		}
; 2216 : 	}
; 2217 : }

  00154	8b 4d f4	 mov	 ecx, DWORD PTR __$EHRec$[ebp]
  00157	64 89 0d 00 00
	00 00		 mov	 DWORD PTR fs:0, ecx
  0015e	59		 pop	 ecx
  0015f	5f		 pop	 edi
  00160	5e		 pop	 esi
  00161	5b		 pop	 ebx
  00162	8b 4d f0	 mov	 ecx, DWORD PTR __$ArrayPad$[ebp]
  00165	33 cd		 xor	 ecx, ebp
  00167	e8 00 00 00 00	 call	 @__security_check_cookie@4
  0016c	c9		 leave
  0016d	c3		 ret	 0
_TEXT	ENDS
;	COMDAT text$x
text$x	SEGMENT
__unwindfunclet$?FishingProcess@HelpWnd@@IAEXXZ$0:
  00000	8d 8d d8 7f ff
	ff		 lea	 ecx, DWORD PTR _kPacket$558629[ebp]
  00006	e9 00 00 00 00	 jmp	 ??1SP2Packet@@UAE@XZ	; SP2Packet::~SP2Packet
__ehhandler$?FishingProcess@HelpWnd@@IAEXXZ:
  0000b	8b 54 24 08	 mov	 edx, DWORD PTR [esp+8]
  0000f	8d 42 0c	 lea	 eax, DWORD PTR [edx+12]
  00012	8b 8a d0 7f ff
	ff		 mov	 ecx, DWORD PTR [edx-32816]
  00018	33 c8		 xor	 ecx, eax
  0001a	e8 00 00 00 00	 call	 @__security_check_cookie@4
  0001f	8b 4a fc	 mov	 ecx, DWORD PTR [edx-4]
  00022	33 c8		 xor	 ecx, eax
  00024	e8 00 00 00 00	 call	 @__security_check_cookie@4
  00029	b8 00 00 00 00	 mov	 eax, OFFSET __ehfuncinfo$?FishingProcess@HelpWnd@@IAEXXZ
  0002e	e9 00 00 00 00	 jmp	 ___CxxFrameHandler3
text$x	ENDS
?FishingProcess@HelpWnd@@IAEXXZ ENDP			; HelpWnd::FishingProcess
PUBLIC	??_C@_0BI@EDECCKJP@HelpWnd?3?3PresentProcess?$AA@ ; `string'
PUBLIC	??_R0?AVMyInventoryWnd@@@8			; MyInventoryWnd `RTTI Type Descriptor'
PUBLIC	?PresentProcess@HelpWnd@@IAEXXZ			; HelpWnd::PresentProcess
EXTRN	?OpenFormalityEntryPage@ioApplication@@QAEXXZ:PROC ; ioApplication::OpenFormalityEntryPage
EXTRN	?ShowSubscriptionTabDirect@MyInventoryWnd@@QAEXXZ:PROC ; MyInventoryWnd::ShowSubscriptionTabDirect
EXTRN	__imp_?HideWnd@ioWnd@@QAEXXZ:PROC
EXTRN	?IsShowPresentTab@MyInventoryWnd@@QAE_NXZ:PROC	; MyInventoryWnd::IsShowPresentTab
EXTRN	?IsTutorialUser@ioMyInfo@@QAE_NXZ:PROC		; ioMyInfo::IsTutorialUser
EXTRN	?IsExpertEntryTemporary@ioMyInfo@@QAE_NXZ:PROC	; ioMyInfo::IsExpertEntryTemporary
;	COMDAT ??_C@_0BI@EDECCKJP@HelpWnd?3?3PresentProcess?$AA@
; File d:\lost saga for developer\youtube\tutorial\source\src\lsclient\iomyinfo.h
CONST	SEGMENT
??_C@_0BI@EDECCKJP@HelpWnd?3?3PresentProcess?$AA@ DB 'HelpWnd::PresentPro'
	DB	'cess', 00H					; `string'
CONST	ENDS
;	COMDAT ??_R0?AVMyInventoryWnd@@@8
_DATA	SEGMENT
??_R0?AVMyInventoryWnd@@@8 DD FLAT:??_7type_info@@6B@	; MyInventoryWnd `RTTI Type Descriptor'
	DD	00H
	DB	'.?AVMyInventoryWnd@@', 00H
; Function compile flags: /Ogsp
; File d:\lost saga for developer\youtube\tutorial\source\src\lsclient\gui\helpwnd.cpp
_DATA	ENDS
;	COMDAT ?PresentProcess@HelpWnd@@IAEXXZ
_TEXT	SEGMENT
?PresentProcess@HelpWnd@@IAEXXZ PROC			; HelpWnd::PresentProcess, COMDAT
; _this$ = ecx

; 2244 : {

  00000	56		 push	 esi
  00001	57		 push	 edi

; 2245 : 	if( g_App.GetConnectedMoveMode() != ioApplication::CMM_LOBBY )

  00002	e8 00 00 00 00	 call	 ?GetSingleton@ioApplication@@SAAAV1@XZ ; ioApplication::GetSingleton
  00007	33 ff		 xor	 edi, edi
  00009	83 b8 ac 06 00
	00 02		 cmp	 DWORD PTR [eax+1708], 2
  00010	74 26		 je	 SHORT $LN9@PresentPro

; 2246 : 	{
; 2247 : 		if( g_GUIMgr.IsShow( LOBBY_QUICK_EXIT_WND ) )

  00012	be 69 18 00 00	 mov	 esi, 6249		; 00001869H
  00017	56		 push	 esi
  00018	e8 00 00 00 00	 call	 ?GetSingleton@ioSP2GUIManager@@SAAAV1@XZ ; ioSP2GUIManager::GetSingleton
  0001d	8b c8		 mov	 ecx, eax
  0001f	ff 15 00 00 00
	00		 call	 DWORD PTR __imp_?IsShow@ioGUIManager@@QAE_NK@Z
  00025	84 c0		 test	 al, al
  00027	74 0f		 je	 SHORT $LN9@PresentPro

; 2248 : 			g_GUIMgr.HideWnd( LOBBY_QUICK_EXIT_WND );

  00029	57		 push	 edi
  0002a	56		 push	 esi
  0002b	e8 00 00 00 00	 call	 ?GetSingleton@ioSP2GUIManager@@SAAAV1@XZ ; ioSP2GUIManager::GetSingleton
  00030	8b c8		 mov	 ecx, eax
  00032	ff 15 00 00 00
	00		 call	 DWORD PTR __imp_?HideWnd@ioGUIManager@@QAEXK_N@Z
$LN9@PresentPro:

; 2249 : 	}
; 2250 : 
; 2251 : 	if( g_MyInfo.GetEntryType() == ET_TERMINATION || g_MyInfo.IsExpertEntryTemporary() )

  00038	e8 00 00 00 00	 call	 ?GetSingleton@ioMyInfo@@SAAAV1@XZ ; ioMyInfo::GetSingleton
  0003d	83 78 5c ff	 cmp	 DWORD PTR [eax+92], -1
  00041	0f 84 99 00 00
	00		 je	 $LN7@PresentPro
  00047	e8 00 00 00 00	 call	 ?GetSingleton@ioMyInfo@@SAAAV1@XZ ; ioMyInfo::GetSingleton
  0004c	8b c8		 mov	 ecx, eax
  0004e	e8 00 00 00 00	 call	 ?IsExpertEntryTemporary@ioMyInfo@@QAE_NXZ ; ioMyInfo::IsExpertEntryTemporary
  00053	84 c0		 test	 al, al
  00055	0f 85 85 00 00
	00		 jne	 $LN7@PresentPro

; 2254 : 	}
; 2255 : 	else if( !g_MyInfo.IsTutorialUser() )

  0005b	e8 00 00 00 00	 call	 ?GetSingleton@ioMyInfo@@SAAAV1@XZ ; ioMyInfo::GetSingleton
  00060	8b c8		 mov	 ecx, eax
  00062	e8 00 00 00 00	 call	 ?IsTutorialUser@ioMyInfo@@QAE_NXZ ; ioMyInfo::IsTutorialUser

; 2256 : 	{
; 2257 : 		MyInventoryWnd *pInvenWnd = dynamic_cast<MyInventoryWnd*>(g_GUIMgr.FindWnd(MY_INVENTORY_WND));

  00067	57		 push	 edi
  00068	84 c0		 test	 al, al
  0006a	75 46		 jne	 SHORT $LN5@PresentPro
  0006c	68 00 00 00 00	 push	 OFFSET ??_R0?AVMyInventoryWnd@@@8
  00071	68 00 00 00 00	 push	 OFFSET ??_R0?AVioWnd@@@8
  00076	57		 push	 edi
  00077	68 96 17 00 00	 push	 6038			; 00001796H
  0007c	e8 00 00 00 00	 call	 ?GetSingleton@ioSP2GUIManager@@SAAAV1@XZ ; ioSP2GUIManager::GetSingleton
  00081	8b c8		 mov	 ecx, eax
  00083	ff 15 00 00 00
	00		 call	 DWORD PTR __imp_?FindWnd@ioGUIManager@@QAEPAVioWnd@@K@Z
  00089	50		 push	 eax
  0008a	e8 00 00 00 00	 call	 ___RTDynamicCast
  0008f	8b f0		 mov	 esi, eax
  00091	83 c4 14	 add	 esp, 20			; 00000014H

; 2258 : 		if( pInvenWnd )

  00094	3b f7		 cmp	 esi, edi
  00096	74 45		 je	 SHORT $LN1@PresentPro

; 2259 : 		{
; 2260 : 			if( pInvenWnd->IsShowPresentTab() )

  00098	8b ce		 mov	 ecx, esi
  0009a	e8 00 00 00 00	 call	 ?IsShowPresentTab@MyInventoryWnd@@QAE_NXZ ; MyInventoryWnd::IsShowPresentTab
  0009f	5f		 pop	 edi

; 2261 :                 pInvenWnd->HideWnd();

  000a0	8b ce		 mov	 ecx, esi
  000a2	5e		 pop	 esi
  000a3	84 c0		 test	 al, al
  000a5	74 06		 je	 SHORT $LN3@PresentPro
  000a7	ff 25 00 00 00
	00		 jmp	 DWORD PTR __imp_?HideWnd@ioWnd@@QAEXXZ
$LN3@PresentPro:

; 2262 : 			else
; 2263 : 				pInvenWnd->ShowSubscriptionTabDirect();

  000ad	e9 00 00 00 00	 jmp	 ?ShowSubscriptionTabDirect@MyInventoryWnd@@QAEXXZ ; MyInventoryWnd::ShowSubscriptionTabDirect
$LN5@PresentPro:

; 2264 : 		}
; 2265 : 	}
; 2266 : 	else
; 2267 : 	{
; 2268 : 		g_GUIMgr.SetMsgBox( MB_OK, NULL, STR(1) );

  000b2	6a 01		 push	 1
  000b4	68 00 00 00 00	 push	 OFFSET ??_C@_00CNPNBAHC@?$AA@
  000b9	68 00 00 00 00	 push	 OFFSET ??_C@_0BI@EDECCKJP@HelpWnd?3?3PresentProcess?$AA@
  000be	ff 15 00 00 00
	00		 call	 DWORD PTR __imp_?GetSingleton@ioStringManager@@SAAAV1@XZ
  000c4	8b c8		 mov	 ecx, eax
  000c6	ff 15 00 00 00
	00		 call	 DWORD PTR __imp_?GetString@ioStringManager@@QAEPADPBD0HW4FileNamePrefix@1@@Z
  000cc	50		 push	 eax
  000cd	57		 push	 edi
  000ce	57		 push	 edi
  000cf	e8 00 00 00 00	 call	 ?GetSingleton@ioSP2GUIManager@@SAAAV1@XZ ; ioSP2GUIManager::GetSingleton
  000d4	50		 push	 eax
  000d5	e8 00 00 00 00	 call	 ?SetMsgBox@ioSP2GUIManager@@QAAXHPAVioWnd@@PBDZZ ; ioSP2GUIManager::SetMsgBox
  000da	83 c4 10	 add	 esp, 16			; 00000010H
$LN1@PresentPro:
  000dd	5f		 pop	 edi
  000de	5e		 pop	 esi

; 2269 : 	}
; 2270 : }

  000df	c3		 ret	 0
$LN7@PresentPro:

; 2252 : 	{
; 2253 : 		g_App.OpenFormalityEntryPage();

  000e0	e8 00 00 00 00	 call	 ?GetSingleton@ioApplication@@SAAAV1@XZ ; ioApplication::GetSingleton
  000e5	5f		 pop	 edi
  000e6	8b c8		 mov	 ecx, eax
  000e8	5e		 pop	 esi
  000e9	e9 00 00 00 00	 jmp	 ?OpenFormalityEntryPage@ioApplication@@QAEXXZ ; ioApplication::OpenFormalityEntryPage
?PresentProcess@HelpWnd@@IAEXXZ ENDP			; HelpWnd::PresentProcess
_TEXT	ENDS
PUBLIC	??_C@_0BF@PAIJJENI@HelpWnd?3?3ShopProcess?$AA@	; `string'
PUBLIC	?ShopProcess@HelpWnd@@IAEXXZ			; HelpWnd::ShopProcess
EXTRN	__imp_?ShowWnd@ioGUIManager@@QAEXK_N@Z:PROC
;	COMDAT ??_C@_0BF@PAIJJENI@HelpWnd?3?3ShopProcess?$AA@
; File d:\lost saga for developer\youtube\tutorial\source\src\lsclient\iomyinfo.h
CONST	SEGMENT
??_C@_0BF@PAIJJENI@HelpWnd?3?3ShopProcess?$AA@ DB 'HelpWnd::ShopProcess', 00H ; `string'
; Function compile flags: /Ogsp
; File d:\lost saga for developer\youtube\tutorial\source\src\lsclient\gui\helpwnd.cpp
CONST	ENDS
;	COMDAT ?ShopProcess@HelpWnd@@IAEXXZ
_TEXT	SEGMENT
?ShopProcess@HelpWnd@@IAEXXZ PROC			; HelpWnd::ShopProcess, COMDAT
; _this$ = ecx

; 2273 : {

  00000	53		 push	 ebx
  00001	56		 push	 esi
  00002	57		 push	 edi

; 2274 : 	if( g_App.GetConnectedMoveMode() != ioApplication::CMM_LOBBY )

  00003	e8 00 00 00 00	 call	 ?GetSingleton@ioApplication@@SAAAV1@XZ ; ioApplication::GetSingleton
  00008	83 b8 ac 06 00
	00 02		 cmp	 DWORD PTR [eax+1708], 2
  0000f	8b 3d 00 00 00
	00		 mov	 edi, DWORD PTR __imp_?HideWnd@ioGUIManager@@QAEXK_N@Z
  00015	8b 1d 00 00 00
	00		 mov	 ebx, DWORD PTR __imp_?IsShow@ioGUIManager@@QAE_NK@Z
  0001b	74 1f		 je	 SHORT $LN8@ShopProces

; 2275 : 	{
; 2276 : 		if( g_GUIMgr.IsShow( LOBBY_QUICK_EXIT_WND ) )

  0001d	be 69 18 00 00	 mov	 esi, 6249		; 00001869H
  00022	56		 push	 esi
  00023	e8 00 00 00 00	 call	 ?GetSingleton@ioSP2GUIManager@@SAAAV1@XZ ; ioSP2GUIManager::GetSingleton
  00028	8b c8		 mov	 ecx, eax
  0002a	ff d3		 call	 ebx
  0002c	84 c0		 test	 al, al
  0002e	74 0c		 je	 SHORT $LN8@ShopProces

; 2277 : 			g_GUIMgr.HideWnd( LOBBY_QUICK_EXIT_WND );

  00030	6a 00		 push	 0
  00032	56		 push	 esi
  00033	e8 00 00 00 00	 call	 ?GetSingleton@ioSP2GUIManager@@SAAAV1@XZ ; ioSP2GUIManager::GetSingleton
  00038	8b c8		 mov	 ecx, eax
  0003a	ff d7		 call	 edi
$LN8@ShopProces:

; 2278 : 	}
; 2279 : 
; 2280 : 	if( g_MyInfo.GetEntryType() == ET_TERMINATION || g_MyInfo.IsExpertEntryTemporary() )

  0003c	e8 00 00 00 00	 call	 ?GetSingleton@ioMyInfo@@SAAAV1@XZ ; ioMyInfo::GetSingleton
  00041	83 78 5c ff	 cmp	 DWORD PTR [eax+92], -1
  00045	0f 84 82 00 00
	00		 je	 $LN6@ShopProces
  0004b	e8 00 00 00 00	 call	 ?GetSingleton@ioMyInfo@@SAAAV1@XZ ; ioMyInfo::GetSingleton
  00050	8b c8		 mov	 ecx, eax
  00052	e8 00 00 00 00	 call	 ?IsExpertEntryTemporary@ioMyInfo@@QAE_NXZ ; ioMyInfo::IsExpertEntryTemporary
  00057	84 c0		 test	 al, al
  00059	75 72		 jne	 SHORT $LN6@ShopProces

; 2283 : 	}
; 2284 : 	else if( !g_MyInfo.IsTutorialUser() )

  0005b	e8 00 00 00 00	 call	 ?GetSingleton@ioMyInfo@@SAAAV1@XZ ; ioMyInfo::GetSingleton
  00060	8b c8		 mov	 ecx, eax
  00062	e8 00 00 00 00	 call	 ?IsTutorialUser@ioMyInfo@@QAE_NXZ ; ioMyInfo::IsTutorialUser
  00067	84 c0		 test	 al, al
  00069	75 32		 jne	 SHORT $LN4@ShopProces

; 2285 : 	{
; 2286 : 		if( g_GUIMgr.IsShow( NEW_SHOP_WND ) )

  0006b	be f8 17 00 00	 mov	 esi, 6136		; 000017f8H
  00070	56		 push	 esi
  00071	e8 00 00 00 00	 call	 ?GetSingleton@ioSP2GUIManager@@SAAAV1@XZ ; ioSP2GUIManager::GetSingleton
  00076	8b c8		 mov	 ecx, eax
  00078	ff d3		 call	 ebx

; 2287 : 		{
; 2288 : 			g_GUIMgr.HideWnd( NEW_SHOP_WND );

  0007a	6a 00		 push	 0
  0007c	56		 push	 esi
  0007d	84 c0		 test	 al, al
  0007f	74 0d		 je	 SHORT $LN3@ShopProces
  00081	e8 00 00 00 00	 call	 ?GetSingleton@ioSP2GUIManager@@SAAAV1@XZ ; ioSP2GUIManager::GetSingleton
  00086	8b c8		 mov	 ecx, eax
  00088	ff d7		 call	 edi
$LN1@ShopProces:
  0008a	5f		 pop	 edi
  0008b	5e		 pop	 esi
  0008c	5b		 pop	 ebx

; 2298 : 	}
; 2299 : }

  0008d	c3		 ret	 0
$LN3@ShopProces:

; 2289 : 		}
; 2290 : 		else
; 2291 : 		{
; 2292 : 			g_GUIMgr.ShowWnd( NEW_SHOP_WND );

  0008e	e8 00 00 00 00	 call	 ?GetSingleton@ioSP2GUIManager@@SAAAV1@XZ ; ioSP2GUIManager::GetSingleton
  00093	8b c8		 mov	 ecx, eax
  00095	ff 15 00 00 00
	00		 call	 DWORD PTR __imp_?ShowWnd@ioGUIManager@@QAEXK_N@Z

; 2293 : 		}
; 2294 : 	}
; 2295 : 	else

  0009b	eb ed		 jmp	 SHORT $LN1@ShopProces
$LN4@ShopProces:

; 2296 : 	{
; 2297 : 		g_GUIMgr.SetMsgBox( MB_OK, NULL, STR(1) );

  0009d	33 f6		 xor	 esi, esi
  0009f	56		 push	 esi
  000a0	6a 01		 push	 1
  000a2	68 00 00 00 00	 push	 OFFSET ??_C@_00CNPNBAHC@?$AA@
  000a7	68 00 00 00 00	 push	 OFFSET ??_C@_0BF@PAIJJENI@HelpWnd?3?3ShopProcess?$AA@
  000ac	ff 15 00 00 00
	00		 call	 DWORD PTR __imp_?GetSingleton@ioStringManager@@SAAAV1@XZ
  000b2	8b c8		 mov	 ecx, eax
  000b4	ff 15 00 00 00
	00		 call	 DWORD PTR __imp_?GetString@ioStringManager@@QAEPADPBD0HW4FileNamePrefix@1@@Z
  000ba	50		 push	 eax
  000bb	56		 push	 esi
  000bc	56		 push	 esi
  000bd	e8 00 00 00 00	 call	 ?GetSingleton@ioSP2GUIManager@@SAAAV1@XZ ; ioSP2GUIManager::GetSingleton
  000c2	50		 push	 eax
  000c3	e8 00 00 00 00	 call	 ?SetMsgBox@ioSP2GUIManager@@QAAXHPAVioWnd@@PBDZZ ; ioSP2GUIManager::SetMsgBox
  000c8	83 c4 10	 add	 esp, 16			; 00000010H
  000cb	eb bd		 jmp	 SHORT $LN1@ShopProces
$LN6@ShopProces:

; 2281 : 	{
; 2282 : 		g_App.OpenFormalityEntryPage();

  000cd	e8 00 00 00 00	 call	 ?GetSingleton@ioApplication@@SAAAV1@XZ ; ioApplication::GetSingleton
  000d2	5f		 pop	 edi
  000d3	5e		 pop	 esi
  000d4	8b c8		 mov	 ecx, eax
  000d6	5b		 pop	 ebx
  000d7	e9 00 00 00 00	 jmp	 ?OpenFormalityEntryPage@ioApplication@@QAEXXZ ; ioApplication::OpenFormalityEntryPage
?ShopProcess@HelpWnd@@IAEXXZ ENDP			; HelpWnd::ShopProcess
_TEXT	ENDS
PUBLIC	??_C@_0BH@LLKFKBAG@HelpWnd?3?3MyItemProcess?$AA@ ; `string'
PUBLIC	?MyItemProcess@HelpWnd@@IAEXXZ			; HelpWnd::MyItemProcess
;	COMDAT ??_C@_0BH@LLKFKBAG@HelpWnd?3?3MyItemProcess?$AA@
; File d:\lost saga for developer\youtube\tutorial\source\src\lsclient\iomyinfo.h
CONST	SEGMENT
??_C@_0BH@LLKFKBAG@HelpWnd?3?3MyItemProcess?$AA@ DB 'HelpWnd::MyItemProce'
	DB	'ss', 00H					; `string'
; Function compile flags: /Ogsp
; File d:\lost saga for developer\youtube\tutorial\source\src\lsclient\gui\helpwnd.cpp
CONST	ENDS
;	COMDAT ?MyItemProcess@HelpWnd@@IAEXXZ
_TEXT	SEGMENT
?MyItemProcess@HelpWnd@@IAEXXZ PROC			; HelpWnd::MyItemProcess, COMDAT
; _this$ = ecx

; 2302 : {

  00000	53		 push	 ebx
  00001	56		 push	 esi
  00002	57		 push	 edi

; 2303 : 	if( g_App.GetConnectedMoveMode() != ioApplication::CMM_LOBBY )

  00003	e8 00 00 00 00	 call	 ?GetSingleton@ioApplication@@SAAAV1@XZ ; ioApplication::GetSingleton
  00008	83 b8 ac 06 00
	00 02		 cmp	 DWORD PTR [eax+1708], 2
  0000f	8b 3d 00 00 00
	00		 mov	 edi, DWORD PTR __imp_?HideWnd@ioGUIManager@@QAEXK_N@Z
  00015	8b 1d 00 00 00
	00		 mov	 ebx, DWORD PTR __imp_?IsShow@ioGUIManager@@QAE_NK@Z
  0001b	74 1f		 je	 SHORT $LN8@MyItemProc

; 2304 : 	{
; 2305 : 		if( g_GUIMgr.IsShow( LOBBY_QUICK_EXIT_WND ) )

  0001d	be 69 18 00 00	 mov	 esi, 6249		; 00001869H
  00022	56		 push	 esi
  00023	e8 00 00 00 00	 call	 ?GetSingleton@ioSP2GUIManager@@SAAAV1@XZ ; ioSP2GUIManager::GetSingleton
  00028	8b c8		 mov	 ecx, eax
  0002a	ff d3		 call	 ebx
  0002c	84 c0		 test	 al, al
  0002e	74 0c		 je	 SHORT $LN8@MyItemProc

; 2306 : 			g_GUIMgr.HideWnd( LOBBY_QUICK_EXIT_WND );

  00030	6a 00		 push	 0
  00032	56		 push	 esi
  00033	e8 00 00 00 00	 call	 ?GetSingleton@ioSP2GUIManager@@SAAAV1@XZ ; ioSP2GUIManager::GetSingleton
  00038	8b c8		 mov	 ecx, eax
  0003a	ff d7		 call	 edi
$LN8@MyItemProc:

; 2307 : 	}
; 2308 : 
; 2309 : 	if( g_MyInfo.GetEntryType() == ET_TERMINATION || g_MyInfo.IsExpertEntryTemporary() )

  0003c	e8 00 00 00 00	 call	 ?GetSingleton@ioMyInfo@@SAAAV1@XZ ; ioMyInfo::GetSingleton
  00041	83 78 5c ff	 cmp	 DWORD PTR [eax+92], -1
  00045	0f 84 82 00 00
	00		 je	 $LN6@MyItemProc
  0004b	e8 00 00 00 00	 call	 ?GetSingleton@ioMyInfo@@SAAAV1@XZ ; ioMyInfo::GetSingleton
  00050	8b c8		 mov	 ecx, eax
  00052	e8 00 00 00 00	 call	 ?IsExpertEntryTemporary@ioMyInfo@@QAE_NXZ ; ioMyInfo::IsExpertEntryTemporary
  00057	84 c0		 test	 al, al
  00059	75 72		 jne	 SHORT $LN6@MyItemProc

; 2312 : 	}
; 2313 : 	else if( !g_MyInfo.IsTutorialUser() )

  0005b	e8 00 00 00 00	 call	 ?GetSingleton@ioMyInfo@@SAAAV1@XZ ; ioMyInfo::GetSingleton
  00060	8b c8		 mov	 ecx, eax
  00062	e8 00 00 00 00	 call	 ?IsTutorialUser@ioMyInfo@@QAE_NXZ ; ioMyInfo::IsTutorialUser
  00067	84 c0		 test	 al, al
  00069	75 32		 jne	 SHORT $LN4@MyItemProc

; 2314 : 	{
; 2315 : 		if( g_GUIMgr.IsShow( MY_INVENTORY_WND ) )

  0006b	be 96 17 00 00	 mov	 esi, 6038		; 00001796H
  00070	56		 push	 esi
  00071	e8 00 00 00 00	 call	 ?GetSingleton@ioSP2GUIManager@@SAAAV1@XZ ; ioSP2GUIManager::GetSingleton
  00076	8b c8		 mov	 ecx, eax
  00078	ff d3		 call	 ebx

; 2316 : 			g_GUIMgr.HideWnd( MY_INVENTORY_WND );

  0007a	6a 00		 push	 0
  0007c	56		 push	 esi
  0007d	84 c0		 test	 al, al
  0007f	74 0d		 je	 SHORT $LN3@MyItemProc
  00081	e8 00 00 00 00	 call	 ?GetSingleton@ioSP2GUIManager@@SAAAV1@XZ ; ioSP2GUIManager::GetSingleton
  00086	8b c8		 mov	 ecx, eax
  00088	ff d7		 call	 edi
$LN1@MyItemProc:
  0008a	5f		 pop	 edi
  0008b	5e		 pop	 esi
  0008c	5b		 pop	 ebx

; 2325 : 	}
; 2326 : }

  0008d	c3		 ret	 0
$LN3@MyItemProc:

; 2317 : 		else
; 2318 : 		{
; 2319 : 			g_GUIMgr.ShowWnd( MY_INVENTORY_WND );

  0008e	e8 00 00 00 00	 call	 ?GetSingleton@ioSP2GUIManager@@SAAAV1@XZ ; ioSP2GUIManager::GetSingleton
  00093	8b c8		 mov	 ecx, eax
  00095	ff 15 00 00 00
	00		 call	 DWORD PTR __imp_?ShowWnd@ioGUIManager@@QAEXK_N@Z

; 2320 : 		}
; 2321 : 	}
; 2322 : 	else

  0009b	eb ed		 jmp	 SHORT $LN1@MyItemProc
$LN4@MyItemProc:

; 2323 : 	{
; 2324 : 		g_GUIMgr.SetMsgBox( MB_OK, NULL, STR(1) );

  0009d	33 f6		 xor	 esi, esi
  0009f	56		 push	 esi
  000a0	6a 01		 push	 1
  000a2	68 00 00 00 00	 push	 OFFSET ??_C@_00CNPNBAHC@?$AA@
  000a7	68 00 00 00 00	 push	 OFFSET ??_C@_0BH@LLKFKBAG@HelpWnd?3?3MyItemProcess?$AA@
  000ac	ff 15 00 00 00
	00		 call	 DWORD PTR __imp_?GetSingleton@ioStringManager@@SAAAV1@XZ
  000b2	8b c8		 mov	 ecx, eax
  000b4	ff 15 00 00 00
	00		 call	 DWORD PTR __imp_?GetString@ioStringManager@@QAEPADPBD0HW4FileNamePrefix@1@@Z
  000ba	50		 push	 eax
  000bb	56		 push	 esi
  000bc	56		 push	 esi
  000bd	e8 00 00 00 00	 call	 ?GetSingleton@ioSP2GUIManager@@SAAAV1@XZ ; ioSP2GUIManager::GetSingleton
  000c2	50		 push	 eax
  000c3	e8 00 00 00 00	 call	 ?SetMsgBox@ioSP2GUIManager@@QAAXHPAVioWnd@@PBDZZ ; ioSP2GUIManager::SetMsgBox
  000c8	83 c4 10	 add	 esp, 16			; 00000010H
  000cb	eb bd		 jmp	 SHORT $LN1@MyItemProc
$LN6@MyItemProc:

; 2310 : 	{
; 2311 : 		g_App.OpenFormalityEntryPage();

  000cd	e8 00 00 00 00	 call	 ?GetSingleton@ioApplication@@SAAAV1@XZ ; ioApplication::GetSingleton
  000d2	5f		 pop	 edi
  000d3	5e		 pop	 esi
  000d4	8b c8		 mov	 ecx, eax
  000d6	5b		 pop	 ebx
  000d7	e9 00 00 00 00	 jmp	 ?OpenFormalityEntryPage@ioApplication@@QAEXXZ ; ioApplication::OpenFormalityEntryPage
?MyItemProcess@HelpWnd@@IAEXXZ ENDP			; HelpWnd::MyItemProcess
_TEXT	ENDS
PUBLIC	?QuestProcess@HelpWnd@@IAEXXZ			; HelpWnd::QuestProcess
; Function compile flags: /Ogsp
;	COMDAT ?QuestProcess@HelpWnd@@IAEXXZ
_TEXT	SEGMENT
?QuestProcess@HelpWnd@@IAEXXZ PROC			; HelpWnd::QuestProcess, COMDAT
; _this$ = ecx

; 2329 : {

  00000	53		 push	 ebx
  00001	56		 push	 esi
  00002	57		 push	 edi

; 2330 : 	if( g_App.GetConnectedMoveMode() != ioApplication::CMM_LOBBY )

  00003	e8 00 00 00 00	 call	 ?GetSingleton@ioApplication@@SAAAV1@XZ ; ioApplication::GetSingleton
  00008	83 b8 ac 06 00
	00 02		 cmp	 DWORD PTR [eax+1708], 2
  0000f	8b 3d 00 00 00
	00		 mov	 edi, DWORD PTR __imp_?HideWnd@ioGUIManager@@QAEXK_N@Z
  00015	8b 1d 00 00 00
	00		 mov	 ebx, DWORD PTR __imp_?IsShow@ioGUIManager@@QAE_NK@Z
  0001b	74 1f		 je	 SHORT $LN3@QuestProce

; 2331 : 	{
; 2332 : 		if( g_GUIMgr.IsShow( LOBBY_QUICK_EXIT_WND ) )

  0001d	be 69 18 00 00	 mov	 esi, 6249		; 00001869H
  00022	56		 push	 esi
  00023	e8 00 00 00 00	 call	 ?GetSingleton@ioSP2GUIManager@@SAAAV1@XZ ; ioSP2GUIManager::GetSingleton
  00028	8b c8		 mov	 ecx, eax
  0002a	ff d3		 call	 ebx
  0002c	84 c0		 test	 al, al
  0002e	74 0c		 je	 SHORT $LN3@QuestProce

; 2333 : 			g_GUIMgr.HideWnd( LOBBY_QUICK_EXIT_WND );

  00030	6a 00		 push	 0
  00032	56		 push	 esi
  00033	e8 00 00 00 00	 call	 ?GetSingleton@ioSP2GUIManager@@SAAAV1@XZ ; ioSP2GUIManager::GetSingleton
  00038	8b c8		 mov	 ecx, eax
  0003a	ff d7		 call	 edi
$LN3@QuestProce:

; 2334 : 	}
; 2335 : 
; 2336 : 	if( g_GUIMgr.IsShow( MISSION_QUEST_MAIN_WND ) )

  0003c	be 7e 18 00 00	 mov	 esi, 6270		; 0000187eH
  00041	56		 push	 esi
  00042	e8 00 00 00 00	 call	 ?GetSingleton@ioSP2GUIManager@@SAAAV1@XZ ; ioSP2GUIManager::GetSingleton
  00047	8b c8		 mov	 ecx, eax
  00049	ff d3		 call	 ebx

; 2337 : 		g_GUIMgr.HideWnd( MISSION_QUEST_MAIN_WND );

  0004b	6a 00		 push	 0
  0004d	56		 push	 esi
  0004e	84 c0		 test	 al, al
  00050	74 0b		 je	 SHORT $LN2@QuestProce
  00052	e8 00 00 00 00	 call	 ?GetSingleton@ioSP2GUIManager@@SAAAV1@XZ ; ioSP2GUIManager::GetSingleton
  00057	8b c8		 mov	 ecx, eax
  00059	ff d7		 call	 edi

; 2338 : 	else

  0005b	eb 0d		 jmp	 SHORT $LN1@QuestProce
$LN2@QuestProce:

; 2339 : 		g_GUIMgr.ShowWnd( MISSION_QUEST_MAIN_WND );

  0005d	e8 00 00 00 00	 call	 ?GetSingleton@ioSP2GUIManager@@SAAAV1@XZ ; ioSP2GUIManager::GetSingleton
  00062	8b c8		 mov	 ecx, eax
  00064	ff 15 00 00 00
	00		 call	 DWORD PTR __imp_?ShowWnd@ioGUIManager@@QAEXK_N@Z
$LN1@QuestProce:

; 2340 : 
; 2341 : 	/*
; 2342 : 	if( g_GUIMgr.IsShow( QUEST_MAIN_WND ) )
; 2343 : 		g_GUIMgr.HideWnd( QUEST_MAIN_WND );
; 2344 : 	else
; 2345 : 		g_GUIMgr.ShowWnd( QUEST_MAIN_WND );
; 2346 : 	*/
; 2347 : }

  0006a	5f		 pop	 edi
  0006b	5e		 pop	 esi
  0006c	5b		 pop	 ebx
  0006d	c3		 ret	 0
?QuestProcess@HelpWnd@@IAEXXZ ENDP			; HelpWnd::QuestProcess
_TEXT	ENDS
PUBLIC	??_C@_0BE@OLKOLLLC@HelpWnd?3?3PetProcess?$AA@	; `string'
PUBLIC	?PetProcess@HelpWnd@@IAEXXZ			; HelpWnd::PetProcess
EXTRN	?GetPetSlotCnt@ioUserPet@@QAEHXZ:PROC		; ioUserPet::GetPetSlotCnt
;	COMDAT ??_C@_0BE@OLKOLLLC@HelpWnd?3?3PetProcess?$AA@
; File d:\lost saga for developer\youtube\tutorial\source\src\lsclient\iomyinfo.h
CONST	SEGMENT
??_C@_0BE@OLKOLLLC@HelpWnd?3?3PetProcess?$AA@ DB 'HelpWnd::PetProcess', 00H ; `string'
; Function compile flags: /Ogsp
; File d:\lost saga for developer\youtube\tutorial\source\src\lsclient\gui\helpwnd.cpp
CONST	ENDS
;	COMDAT ?PetProcess@HelpWnd@@IAEXXZ
_TEXT	SEGMENT
?PetProcess@HelpWnd@@IAEXXZ PROC			; HelpWnd::PetProcess, COMDAT
; _this$ = ecx

; 2350 : {

  00000	53		 push	 ebx
  00001	56		 push	 esi
  00002	57		 push	 edi

; 2351 : 	if( g_App.GetConnectedMoveMode() != ioApplication::CMM_LOBBY )

  00003	e8 00 00 00 00	 call	 ?GetSingleton@ioApplication@@SAAAV1@XZ ; ioApplication::GetSingleton
  00008	83 b8 ac 06 00
	00 02		 cmp	 DWORD PTR [eax+1708], 2
  0000f	8b 3d 00 00 00
	00		 mov	 edi, DWORD PTR __imp_?HideWnd@ioGUIManager@@QAEXK_N@Z
  00015	8b 1d 00 00 00
	00		 mov	 ebx, DWORD PTR __imp_?IsShow@ioGUIManager@@QAE_NK@Z
  0001b	74 1f		 je	 SHORT $LN25@PetProcess

; 2352 : 	{
; 2353 : 		if( g_GUIMgr.IsShow( LOBBY_QUICK_EXIT_WND ) )

  0001d	be 69 18 00 00	 mov	 esi, 6249		; 00001869H
  00022	56		 push	 esi
  00023	e8 00 00 00 00	 call	 ?GetSingleton@ioSP2GUIManager@@SAAAV1@XZ ; ioSP2GUIManager::GetSingleton
  00028	8b c8		 mov	 ecx, eax
  0002a	ff d3		 call	 ebx
  0002c	84 c0		 test	 al, al
  0002e	74 0c		 je	 SHORT $LN25@PetProcess

; 2354 : 			g_GUIMgr.HideWnd( LOBBY_QUICK_EXIT_WND );

  00030	6a 00		 push	 0
  00032	56		 push	 esi
  00033	e8 00 00 00 00	 call	 ?GetSingleton@ioSP2GUIManager@@SAAAV1@XZ ; ioSP2GUIManager::GetSingleton
  00038	8b c8		 mov	 ecx, eax
  0003a	ff d7		 call	 edi
$LN25@PetProcess:

; 2355 : 	}
; 2356 : 
; 2357 : 	if( g_MyInfo.GetEntryType() == ET_TERMINATION || g_MyInfo.IsExpertEntryTemporary() )

  0003c	e8 00 00 00 00	 call	 ?GetSingleton@ioMyInfo@@SAAAV1@XZ ; ioMyInfo::GetSingleton
  00041	83 78 5c ff	 cmp	 DWORD PTR [eax+92], -1
  00045	0f 84 b5 00 00
	00		 je	 $LN13@PetProcess
  0004b	e8 00 00 00 00	 call	 ?GetSingleton@ioMyInfo@@SAAAV1@XZ ; ioMyInfo::GetSingleton
  00050	8b c8		 mov	 ecx, eax
  00052	e8 00 00 00 00	 call	 ?IsExpertEntryTemporary@ioMyInfo@@QAE_NXZ ; ioMyInfo::IsExpertEntryTemporary
  00057	84 c0		 test	 al, al
  00059	0f 85 a1 00 00
	00		 jne	 $LN13@PetProcess

; 2360 : 	}
; 2361 : 	else if( !g_MyInfo.IsTutorialUser() )

  0005f	e8 00 00 00 00	 call	 ?GetSingleton@ioMyInfo@@SAAAV1@XZ ; ioMyInfo::GetSingleton
  00064	8b c8		 mov	 ecx, eax
  00066	e8 00 00 00 00	 call	 ?IsTutorialUser@ioMyInfo@@QAE_NXZ ; ioMyInfo::IsTutorialUser
  0006b	84 c0		 test	 al, al
  0006d	75 61		 jne	 SHORT $LN11@PetProcess

; 2362 : 	{
; 2363 : 		ioUserPet *pUserPet = g_MyInfo.GetUserPet();

  0006f	e8 00 00 00 00	 call	 ?GetSingleton@ioMyInfo@@SAAAV1@XZ ; ioMyInfo::GetSingleton
  00074	05 c0 02 00 00	 add	 eax, 704		; 000002c0H

; 2364 : 		if( pUserPet )

  00079	74 42		 je	 SHORT $LN1@PetProcess

; 2365 : 		{
; 2366 : 			if ( pUserPet->GetPetSlotCnt() <= 0 )

  0007b	8b c8		 mov	 ecx, eax
  0007d	e8 00 00 00 00	 call	 ?GetPetSlotCnt@ioUserPet@@QAEHXZ ; ioUserPet::GetPetSlotCnt

; 2367 : 			{
; 2368 : 				if( g_GUIMgr.IsShow( PET_WND ) )

  00082	be 66 18 00 00	 mov	 esi, 6246		; 00001866H
  00087	56		 push	 esi
  00088	85 c0		 test	 eax, eax
  0008a	7f 18		 jg	 SHORT $LN9@PetProcess
  0008c	e8 00 00 00 00	 call	 ?GetSingleton@ioSP2GUIManager@@SAAAV1@XZ ; ioSP2GUIManager::GetSingleton
  00091	8b c8		 mov	 ecx, eax
  00093	ff d3		 call	 ebx
  00095	84 c0		 test	 al, al
  00097	74 05		 je	 SHORT $LN8@PetProcess

; 2369 : 					g_GUIMgr.HideWnd( PET_WND );

  00099	6a 00		 push	 0
  0009b	56		 push	 esi

; 2370 : 				else

  0009c	eb 16		 jmp	 SHORT $LN28@PetProcess
$LN8@PetProcess:

; 2371 : 				{
; 2372 : 					if( g_GUIMgr.IsShow( PET_EMPTY_WND ) )

  0009e	be 6a 18 00 00	 mov	 esi, 6250		; 0000186aH
  000a3	56		 push	 esi
$LN9@PetProcess:

; 2373 : 						g_GUIMgr.HideWnd( PET_EMPTY_WND );
; 2374 : 					else
; 2375 : 						g_GUIMgr.ShowWnd( PET_EMPTY_WND );
; 2376 : 				}
; 2377 : 			}
; 2378 : 			else
; 2379 : 			{
; 2380 : 				if( g_GUIMgr.IsShow( PET_WND ) )

  000a4	e8 00 00 00 00	 call	 ?GetSingleton@ioSP2GUIManager@@SAAAV1@XZ ; ioSP2GUIManager::GetSingleton
  000a9	8b c8		 mov	 ecx, eax
  000ab	ff d3		 call	 ebx

; 2381 : 					g_GUIMgr.HideWnd( PET_WND );

  000ad	6a 00		 push	 0
  000af	56		 push	 esi
  000b0	84 c0		 test	 al, al
  000b2	74 0d		 je	 SHORT $LN3@PetProcess
$LN28@PetProcess:
  000b4	e8 00 00 00 00	 call	 ?GetSingleton@ioSP2GUIManager@@SAAAV1@XZ ; ioSP2GUIManager::GetSingleton
  000b9	8b c8		 mov	 ecx, eax
  000bb	ff d7		 call	 edi
$LN1@PetProcess:
  000bd	5f		 pop	 edi
  000be	5e		 pop	 esi
  000bf	5b		 pop	 ebx

; 2390 : 	}
; 2391 : }

  000c0	c3		 ret	 0
$LN3@PetProcess:

; 2382 : 				else
; 2383 : 					g_GUIMgr.ShowWnd( PET_WND );

  000c1	e8 00 00 00 00	 call	 ?GetSingleton@ioSP2GUIManager@@SAAAV1@XZ ; ioSP2GUIManager::GetSingleton
  000c6	8b c8		 mov	 ecx, eax
  000c8	ff 15 00 00 00
	00		 call	 DWORD PTR __imp_?ShowWnd@ioGUIManager@@QAEXK_N@Z

; 2384 : 			}
; 2385 : 		}
; 2386 : 	}
; 2387 : 	else

  000ce	eb ed		 jmp	 SHORT $LN1@PetProcess
$LN11@PetProcess:

; 2388 : 	{
; 2389 : 		g_GUIMgr.SetMsgBox( MB_OK, NULL, STR(1) );

  000d0	33 f6		 xor	 esi, esi
  000d2	56		 push	 esi
  000d3	6a 01		 push	 1
  000d5	68 00 00 00 00	 push	 OFFSET ??_C@_00CNPNBAHC@?$AA@
  000da	68 00 00 00 00	 push	 OFFSET ??_C@_0BE@OLKOLLLC@HelpWnd?3?3PetProcess?$AA@
  000df	ff 15 00 00 00
	00		 call	 DWORD PTR __imp_?GetSingleton@ioStringManager@@SAAAV1@XZ
  000e5	8b c8		 mov	 ecx, eax
  000e7	ff 15 00 00 00
	00		 call	 DWORD PTR __imp_?GetString@ioStringManager@@QAEPADPBD0HW4FileNamePrefix@1@@Z
  000ed	50		 push	 eax
  000ee	56		 push	 esi
  000ef	56		 push	 esi
  000f0	e8 00 00 00 00	 call	 ?GetSingleton@ioSP2GUIManager@@SAAAV1@XZ ; ioSP2GUIManager::GetSingleton
  000f5	50		 push	 eax
  000f6	e8 00 00 00 00	 call	 ?SetMsgBox@ioSP2GUIManager@@QAAXHPAVioWnd@@PBDZZ ; ioSP2GUIManager::SetMsgBox
  000fb	83 c4 10	 add	 esp, 16			; 00000010H
  000fe	eb bd		 jmp	 SHORT $LN1@PetProcess
$LN13@PetProcess:

; 2358 : 	{
; 2359 : 		g_App.OpenFormalityEntryPage();

  00100	e8 00 00 00 00	 call	 ?GetSingleton@ioApplication@@SAAAV1@XZ ; ioApplication::GetSingleton
  00105	5f		 pop	 edi
  00106	5e		 pop	 esi
  00107	8b c8		 mov	 ecx, eax
  00109	5b		 pop	 ebx
  0010a	e9 00 00 00 00	 jmp	 ?OpenFormalityEntryPage@ioApplication@@QAEXXZ ; ioApplication::OpenFormalityEntryPage
?PetProcess@HelpWnd@@IAEXXZ ENDP			; HelpWnd::PetProcess
_TEXT	ENDS
PUBLIC	?RollBookProcess@HelpWnd@@IAEXXZ		; HelpWnd::RollBookProcess
EXTRN	?ShowRollBookWnd@RollBookWnd@@QAEXXZ:PROC	; RollBookWnd::ShowRollBookWnd
; Function compile flags: /Ogsp
;	COMDAT ?RollBookProcess@HelpWnd@@IAEXXZ
_TEXT	SEGMENT
?RollBookProcess@HelpWnd@@IAEXXZ PROC			; HelpWnd::RollBookProcess, COMDAT
; _this$ = ecx

; 2394 : {

  00000	53		 push	 ebx
  00001	56		 push	 esi
  00002	57		 push	 edi

; 2395 : 	if( g_App.GetConnectedMoveMode() != ioApplication::CMM_LOBBY )

  00003	e8 00 00 00 00	 call	 ?GetSingleton@ioApplication@@SAAAV1@XZ ; ioApplication::GetSingleton
  00008	83 b8 ac 06 00
	00 02		 cmp	 DWORD PTR [eax+1708], 2
  0000f	8b 3d 00 00 00
	00		 mov	 edi, DWORD PTR __imp_?HideWnd@ioGUIManager@@QAEXK_N@Z
  00015	8b 1d 00 00 00
	00		 mov	 ebx, DWORD PTR __imp_?IsShow@ioGUIManager@@QAE_NK@Z
  0001b	74 1f		 je	 SHORT $LN4@RollBookPr

; 2396 : 	{
; 2397 : 		if( g_GUIMgr.IsShow( LOBBY_QUICK_EXIT_WND ) )

  0001d	be 69 18 00 00	 mov	 esi, 6249		; 00001869H
  00022	56		 push	 esi
  00023	e8 00 00 00 00	 call	 ?GetSingleton@ioSP2GUIManager@@SAAAV1@XZ ; ioSP2GUIManager::GetSingleton
  00028	8b c8		 mov	 ecx, eax
  0002a	ff d3		 call	 ebx
  0002c	84 c0		 test	 al, al
  0002e	74 0c		 je	 SHORT $LN4@RollBookPr

; 2398 : 			g_GUIMgr.HideWnd( LOBBY_QUICK_EXIT_WND );

  00030	6a 00		 push	 0
  00032	56		 push	 esi
  00033	e8 00 00 00 00	 call	 ?GetSingleton@ioSP2GUIManager@@SAAAV1@XZ ; ioSP2GUIManager::GetSingleton
  00038	8b c8		 mov	 ecx, eax
  0003a	ff d7		 call	 edi
$LN4@RollBookPr:

; 2399 : 	}
; 2400 : 	
; 2401 : 	if( g_GUIMgr.IsShow( ROLLBOOK_WND ) )

  0003c	be 80 18 00 00	 mov	 esi, 6272		; 00001880H
  00041	56		 push	 esi
  00042	e8 00 00 00 00	 call	 ?GetSingleton@ioSP2GUIManager@@SAAAV1@XZ ; ioSP2GUIManager::GetSingleton
  00047	8b c8		 mov	 ecx, eax
  00049	ff d3		 call	 ebx

; 2402 : 		g_GUIMgr.HideWnd( ROLLBOOK_WND );

  0004b	6a 00		 push	 0
  0004d	84 c0		 test	 al, al
  0004f	74 0e		 je	 SHORT $LN3@RollBookPr
  00051	56		 push	 esi
  00052	e8 00 00 00 00	 call	 ?GetSingleton@ioSP2GUIManager@@SAAAV1@XZ ; ioSP2GUIManager::GetSingleton
  00057	8b c8		 mov	 ecx, eax
  00059	ff d7		 call	 edi
$LN1@RollBookPr:
  0005b	5f		 pop	 edi
  0005c	5e		 pop	 esi
  0005d	5b		 pop	 ebx

; 2408 : 	}
; 2409 : }

  0005e	c3		 ret	 0
$LN3@RollBookPr:

; 2403 : 	else
; 2404 : 	{
; 2405 : 		RollBookWnd* pWnd = dynamic_cast<RollBookWnd*>( g_GUIMgr.FindWnd( ROLLBOOK_WND ) );

  0005f	68 00 00 00 00	 push	 OFFSET ??_R0?AVRollBookWnd@@@8
  00064	68 00 00 00 00	 push	 OFFSET ??_R0?AVioWnd@@@8
  00069	6a 00		 push	 0
  0006b	56		 push	 esi
  0006c	e8 00 00 00 00	 call	 ?GetSingleton@ioSP2GUIManager@@SAAAV1@XZ ; ioSP2GUIManager::GetSingleton
  00071	8b c8		 mov	 ecx, eax
  00073	ff 15 00 00 00
	00		 call	 DWORD PTR __imp_?FindWnd@ioGUIManager@@QAEPAVioWnd@@K@Z
  00079	50		 push	 eax
  0007a	e8 00 00 00 00	 call	 ___RTDynamicCast
  0007f	83 c4 14	 add	 esp, 20			; 00000014H

; 2406 : 		if ( pWnd )

  00082	85 c0		 test	 eax, eax
  00084	74 d5		 je	 SHORT $LN1@RollBookPr

; 2407 : 			pWnd->ShowRollBookWnd();

  00086	5f		 pop	 edi
  00087	5e		 pop	 esi
  00088	8b c8		 mov	 ecx, eax
  0008a	5b		 pop	 ebx
  0008b	e9 00 00 00 00	 jmp	 ?ShowRollBookWnd@RollBookWnd@@QAEXXZ ; RollBookWnd::ShowRollBookWnd
?RollBookProcess@HelpWnd@@IAEXXZ ENDP			; HelpWnd::RollBookProcess
_TEXT	ENDS
PUBLIC	?ManualProcess@HelpWnd@@IAEXXZ			; HelpWnd::ManualProcess
; Function compile flags: /Ogsp
;	COMDAT ?ManualProcess@HelpWnd@@IAEXXZ
_TEXT	SEGMENT
?ManualProcess@HelpWnd@@IAEXXZ PROC			; HelpWnd::ManualProcess, COMDAT
; _this$ = ecx

; 2412 : {

  00000	53		 push	 ebx
  00001	56		 push	 esi
  00002	57		 push	 edi

; 2413 : 	if( g_App.GetConnectedMoveMode() != ioApplication::CMM_LOBBY )

  00003	e8 00 00 00 00	 call	 ?GetSingleton@ioApplication@@SAAAV1@XZ ; ioApplication::GetSingleton
  00008	83 b8 ac 06 00
	00 02		 cmp	 DWORD PTR [eax+1708], 2
  0000f	8b 3d 00 00 00
	00		 mov	 edi, DWORD PTR __imp_?HideWnd@ioGUIManager@@QAEXK_N@Z
  00015	8b 1d 00 00 00
	00		 mov	 ebx, DWORD PTR __imp_?IsShow@ioGUIManager@@QAE_NK@Z
  0001b	74 1f		 je	 SHORT $LN3@ManualProc

; 2414 : 	{
; 2415 : 		if( g_GUIMgr.IsShow( LOBBY_QUICK_EXIT_WND ) )

  0001d	be 69 18 00 00	 mov	 esi, 6249		; 00001869H
  00022	56		 push	 esi
  00023	e8 00 00 00 00	 call	 ?GetSingleton@ioSP2GUIManager@@SAAAV1@XZ ; ioSP2GUIManager::GetSingleton
  00028	8b c8		 mov	 ecx, eax
  0002a	ff d3		 call	 ebx
  0002c	84 c0		 test	 al, al
  0002e	74 0c		 je	 SHORT $LN3@ManualProc

; 2416 : 			g_GUIMgr.HideWnd( LOBBY_QUICK_EXIT_WND );

  00030	6a 00		 push	 0
  00032	56		 push	 esi
  00033	e8 00 00 00 00	 call	 ?GetSingleton@ioSP2GUIManager@@SAAAV1@XZ ; ioSP2GUIManager::GetSingleton
  00038	8b c8		 mov	 ecx, eax
  0003a	ff d7		 call	 edi
$LN3@ManualProc:

; 2417 : 	}
; 2418 : 
; 2419 : 	if( g_GUIMgr.IsShow( MANUAL_LIST_WND ) )

  0003c	be 75 17 00 00	 mov	 esi, 6005		; 00001775H
  00041	56		 push	 esi
  00042	e8 00 00 00 00	 call	 ?GetSingleton@ioSP2GUIManager@@SAAAV1@XZ ; ioSP2GUIManager::GetSingleton
  00047	8b c8		 mov	 ecx, eax
  00049	ff d3		 call	 ebx

; 2420 : 		g_GUIMgr.HideWnd( MANUAL_LIST_WND );

  0004b	6a 00		 push	 0
  0004d	56		 push	 esi
  0004e	84 c0		 test	 al, al
  00050	74 0b		 je	 SHORT $LN2@ManualProc
  00052	e8 00 00 00 00	 call	 ?GetSingleton@ioSP2GUIManager@@SAAAV1@XZ ; ioSP2GUIManager::GetSingleton
  00057	8b c8		 mov	 ecx, eax
  00059	ff d7		 call	 edi

; 2421 : 	else

  0005b	eb 0d		 jmp	 SHORT $LN1@ManualProc
$LN2@ManualProc:

; 2422 : 		g_GUIMgr.ShowWnd( MANUAL_LIST_WND );

  0005d	e8 00 00 00 00	 call	 ?GetSingleton@ioSP2GUIManager@@SAAAV1@XZ ; ioSP2GUIManager::GetSingleton
  00062	8b c8		 mov	 ecx, eax
  00064	ff 15 00 00 00
	00		 call	 DWORD PTR __imp_?ShowWnd@ioGUIManager@@QAEXK_N@Z
$LN1@ManualProc:

; 2423 : }

  0006a	5f		 pop	 edi
  0006b	5e		 pop	 esi
  0006c	5b		 pop	 ebx
  0006d	c3		 ret	 0
?ManualProcess@HelpWnd@@IAEXXZ ENDP			; HelpWnd::ManualProcess
_TEXT	ENDS
PUBLIC	?OptionProcess@HelpWnd@@IAEXXZ			; HelpWnd::OptionProcess
; Function compile flags: /Ogsp
;	COMDAT ?OptionProcess@HelpWnd@@IAEXXZ
_TEXT	SEGMENT
?OptionProcess@HelpWnd@@IAEXXZ PROC			; HelpWnd::OptionProcess, COMDAT
; _this$ = ecx

; 2426 : {

  00000	53		 push	 ebx
  00001	56		 push	 esi
  00002	57		 push	 edi

; 2427 : 	if( g_App.GetConnectedMoveMode() != ioApplication::CMM_LOBBY )

  00003	e8 00 00 00 00	 call	 ?GetSingleton@ioApplication@@SAAAV1@XZ ; ioApplication::GetSingleton
  00008	83 b8 ac 06 00
	00 02		 cmp	 DWORD PTR [eax+1708], 2
  0000f	8b 3d 00 00 00
	00		 mov	 edi, DWORD PTR __imp_?HideWnd@ioGUIManager@@QAEXK_N@Z
  00015	8b 1d 00 00 00
	00		 mov	 ebx, DWORD PTR __imp_?IsShow@ioGUIManager@@QAE_NK@Z
  0001b	74 1f		 je	 SHORT $LN4@OptionProc

; 2428 : 	{
; 2429 : 		if( g_GUIMgr.IsShow( LOBBY_QUICK_EXIT_WND ) )

  0001d	be 69 18 00 00	 mov	 esi, 6249		; 00001869H
  00022	56		 push	 esi
  00023	e8 00 00 00 00	 call	 ?GetSingleton@ioSP2GUIManager@@SAAAV1@XZ ; ioSP2GUIManager::GetSingleton
  00028	8b c8		 mov	 ecx, eax
  0002a	ff d3		 call	 ebx
  0002c	84 c0		 test	 al, al
  0002e	74 0c		 je	 SHORT $LN4@OptionProc

; 2430 : 			g_GUIMgr.HideWnd( LOBBY_QUICK_EXIT_WND );

  00030	6a 00		 push	 0
  00032	56		 push	 esi
  00033	e8 00 00 00 00	 call	 ?GetSingleton@ioSP2GUIManager@@SAAAV1@XZ ; ioSP2GUIManager::GetSingleton
  00038	8b c8		 mov	 ecx, eax
  0003a	ff d7		 call	 edi
$LN4@OptionProc:

; 2431 : 	}
; 2432 : 
; 2433 : 	if( g_GUIMgr.IsShow( GAME_OPTION_WND ) )

  0003c	be 7b 17 00 00	 mov	 esi, 6011		; 0000177bH
  00041	56		 push	 esi
  00042	e8 00 00 00 00	 call	 ?GetSingleton@ioSP2GUIManager@@SAAAV1@XZ ; ioSP2GUIManager::GetSingleton
  00047	8b c8		 mov	 ecx, eax
  00049	ff d3		 call	 ebx
  0004b	84 c0		 test	 al, al
  0004d	74 20		 je	 SHORT $LN3@OptionProc

; 2434 : 	{
; 2435 : 		//JSM.    Hide  (    )
; 2436 : 		if(! g_GUIMgr.IsShow( GAME_OPTION_SETTING_KEYINPUT_WND ) )		

  0004f	68 13 18 00 00	 push	 6163			; 00001813H
  00054	e8 00 00 00 00	 call	 ?GetSingleton@ioSP2GUIManager@@SAAAV1@XZ ; ioSP2GUIManager::GetSingleton
  00059	8b c8		 mov	 ecx, eax
  0005b	ff d3		 call	 ebx
  0005d	84 c0		 test	 al, al
  0005f	75 1e		 jne	 SHORT $LN1@OptionProc

; 2437 : 		{
; 2438 : 			g_GUIMgr.HideWnd( GAME_OPTION_WND );

  00061	6a 00		 push	 0
  00063	56		 push	 esi
  00064	e8 00 00 00 00	 call	 ?GetSingleton@ioSP2GUIManager@@SAAAV1@XZ ; ioSP2GUIManager::GetSingleton
  00069	8b c8		 mov	 ecx, eax
  0006b	ff d7		 call	 edi

; 2439 : 		}
; 2440 : 	}
; 2441 : 	else

  0006d	eb 10		 jmp	 SHORT $LN1@OptionProc
$LN3@OptionProc:

; 2442 : 	{
; 2443 : 		g_GUIMgr.ShowWnd( GAME_OPTION_WND );

  0006f	6a 00		 push	 0
  00071	56		 push	 esi
  00072	e8 00 00 00 00	 call	 ?GetSingleton@ioSP2GUIManager@@SAAAV1@XZ ; ioSP2GUIManager::GetSingleton
  00077	8b c8		 mov	 ecx, eax
  00079	ff 15 00 00 00
	00		 call	 DWORD PTR __imp_?ShowWnd@ioGUIManager@@QAEXK_N@Z
$LN1@OptionProc:

; 2444 : 	}
; 2445 : }

  0007f	5f		 pop	 edi
  00080	5e		 pop	 esi
  00081	5b		 pop	 ebx
  00082	c3		 ret	 0
?OptionProcess@HelpWnd@@IAEXXZ ENDP			; HelpWnd::OptionProcess
_TEXT	ENDS
PUBLIC	??_C@_0BK@JHONNGPO@HelpWnd?3?3MessengerProcess?$AA@ ; `string'
PUBLIC	?MessengerProcess@HelpWnd@@IAEXXZ		; HelpWnd::MessengerProcess
EXTRN	?IsCharBankruptcy@ioMyInfo@@QAE_NXZ:PROC	; ioMyInfo::IsCharBankruptcy
EXTRN	?IsBankruptcy@ioMyInfo@@QAE_NXZ:PROC		; ioMyInfo::IsBankruptcy
;	COMDAT ??_C@_0BK@JHONNGPO@HelpWnd?3?3MessengerProcess?$AA@
; File d:\lost saga for developer\youtube\tutorial\source\src\lsclient\iomyinfo.h
CONST	SEGMENT
??_C@_0BK@JHONNGPO@HelpWnd?3?3MessengerProcess?$AA@ DB 'HelpWnd::Messenge'
	DB	'rProcess', 00H				; `string'
; Function compile flags: /Ogsp
; File d:\lost saga for developer\youtube\tutorial\source\src\lsclient\gui\helpwnd.cpp
CONST	ENDS
;	COMDAT ?MessengerProcess@HelpWnd@@IAEXXZ
_TEXT	SEGMENT
?MessengerProcess@HelpWnd@@IAEXXZ PROC			; HelpWnd::MessengerProcess, COMDAT
; _this$ = ecx

; 2448 : {

  00000	53		 push	 ebx
  00001	56		 push	 esi
  00002	57		 push	 edi

; 2449 : 	if( g_App.GetConnectedMoveMode() != ioApplication::CMM_LOBBY )

  00003	e8 00 00 00 00	 call	 ?GetSingleton@ioApplication@@SAAAV1@XZ ; ioApplication::GetSingleton
  00008	83 b8 ac 06 00
	00 02		 cmp	 DWORD PTR [eax+1708], 2
  0000f	8b 3d 00 00 00
	00		 mov	 edi, DWORD PTR __imp_?HideWnd@ioGUIManager@@QAEXK_N@Z
  00015	8b 1d 00 00 00
	00		 mov	 ebx, DWORD PTR __imp_?IsShow@ioGUIManager@@QAE_NK@Z
  0001b	74 1f		 je	 SHORT $LN10@MessengerP

; 2450 : 	{
; 2451 : 		if( g_GUIMgr.IsShow( LOBBY_QUICK_EXIT_WND ) )

  0001d	be 69 18 00 00	 mov	 esi, 6249		; 00001869H
  00022	56		 push	 esi
  00023	e8 00 00 00 00	 call	 ?GetSingleton@ioSP2GUIManager@@SAAAV1@XZ ; ioSP2GUIManager::GetSingleton
  00028	8b c8		 mov	 ecx, eax
  0002a	ff d3		 call	 ebx
  0002c	84 c0		 test	 al, al
  0002e	74 0c		 je	 SHORT $LN10@MessengerP

; 2452 : 			g_GUIMgr.HideWnd( LOBBY_QUICK_EXIT_WND );

  00030	6a 00		 push	 0
  00032	56		 push	 esi
  00033	e8 00 00 00 00	 call	 ?GetSingleton@ioSP2GUIManager@@SAAAV1@XZ ; ioSP2GUIManager::GetSingleton
  00038	8b c8		 mov	 ecx, eax
  0003a	ff d7		 call	 edi
$LN10@MessengerP:

; 2453 : 	}
; 2454 : 
; 2455 : 	if( g_MyInfo.GetEntryType() == ET_TERMINATION || g_MyInfo.IsExpertEntryTemporary() )

  0003c	e8 00 00 00 00	 call	 ?GetSingleton@ioMyInfo@@SAAAV1@XZ ; ioMyInfo::GetSingleton
  00041	83 78 5c ff	 cmp	 DWORD PTR [eax+92], -1
  00045	0f 84 a6 00 00
	00		 je	 $LN8@MessengerP
  0004b	e8 00 00 00 00	 call	 ?GetSingleton@ioMyInfo@@SAAAV1@XZ ; ioMyInfo::GetSingleton
  00050	8b c8		 mov	 ecx, eax
  00052	e8 00 00 00 00	 call	 ?IsExpertEntryTemporary@ioMyInfo@@QAE_NXZ ; ioMyInfo::IsExpertEntryTemporary
  00057	84 c0		 test	 al, al
  00059	0f 85 92 00 00
	00		 jne	 $LN8@MessengerP

; 2458 : 	}
; 2459 : 	else
; 2460 : 	{
; 2461 : 		if( g_MyInfo.IsTutorialUser() )

  0005f	e8 00 00 00 00	 call	 ?GetSingleton@ioMyInfo@@SAAAV1@XZ ; ioMyInfo::GetSingleton
  00064	8b c8		 mov	 ecx, eax
  00066	e8 00 00 00 00	 call	 ?IsTutorialUser@ioMyInfo@@QAE_NXZ ; ioMyInfo::IsTutorialUser
  0006b	84 c0		 test	 al, al
  0006d	74 32		 je	 SHORT $LN6@MessengerP
$LN3@MessengerP:

; 2462 : 		{
; 2463 : 			g_GUIMgr.SetMsgBox( MB_OK, NULL, STR(1) );

  0006f	33 f6		 xor	 esi, esi
  00071	56		 push	 esi
  00072	6a 01		 push	 1
  00074	68 00 00 00 00	 push	 OFFSET ??_C@_00CNPNBAHC@?$AA@
  00079	68 00 00 00 00	 push	 OFFSET ??_C@_0BK@JHONNGPO@HelpWnd?3?3MessengerProcess?$AA@
  0007e	ff 15 00 00 00
	00		 call	 DWORD PTR __imp_?GetSingleton@ioStringManager@@SAAAV1@XZ
  00084	8b c8		 mov	 ecx, eax
  00086	ff 15 00 00 00
	00		 call	 DWORD PTR __imp_?GetString@ioStringManager@@QAEPADPBD0HW4FileNamePrefix@1@@Z
  0008c	50		 push	 eax
  0008d	56		 push	 esi
  0008e	56		 push	 esi
  0008f	e8 00 00 00 00	 call	 ?GetSingleton@ioSP2GUIManager@@SAAAV1@XZ ; ioSP2GUIManager::GetSingleton
  00094	50		 push	 eax
  00095	e8 00 00 00 00	 call	 ?SetMsgBox@ioSP2GUIManager@@QAAXHPAVioWnd@@PBDZZ ; ioSP2GUIManager::SetMsgBox
  0009a	83 c4 10	 add	 esp, 16			; 00000010H
$LN1@MessengerP:
  0009d	5f		 pop	 edi
  0009e	5e		 pop	 esi
  0009f	5b		 pop	 ebx

; 2476 : 	}
; 2477 : }

  000a0	c3		 ret	 0
$LN6@MessengerP:

; 2464 : 			return;
; 2465 : 		}
; 2466 : 		else if( g_MyInfo.IsBankruptcy() || g_MyInfo.IsCharBankruptcy() )

  000a1	e8 00 00 00 00	 call	 ?GetSingleton@ioMyInfo@@SAAAV1@XZ ; ioMyInfo::GetSingleton
  000a6	8b c8		 mov	 ecx, eax
  000a8	e8 00 00 00 00	 call	 ?IsBankruptcy@ioMyInfo@@QAE_NXZ ; ioMyInfo::IsBankruptcy
  000ad	84 c0		 test	 al, al
  000af	75 be		 jne	 SHORT $LN3@MessengerP
  000b1	e8 00 00 00 00	 call	 ?GetSingleton@ioMyInfo@@SAAAV1@XZ ; ioMyInfo::GetSingleton
  000b6	8b c8		 mov	 ecx, eax
  000b8	e8 00 00 00 00	 call	 ?IsCharBankruptcy@ioMyInfo@@QAE_NXZ ; ioMyInfo::IsCharBankruptcy
  000bd	84 c0		 test	 al, al
  000bf	75 ae		 jne	 SHORT $LN3@MessengerP

; 2467 : 		{
; 2468 : 			g_GUIMgr.SetMsgBox( MB_OK, NULL, STR(1) );
; 2469 : 			return;
; 2470 : 		}
; 2471 : 
; 2472 : 		if( g_GUIMgr.IsShow( MESSENGER_WND ) )

  000c1	be 80 17 00 00	 mov	 esi, 6016		; 00001780H
  000c6	56		 push	 esi
  000c7	e8 00 00 00 00	 call	 ?GetSingleton@ioSP2GUIManager@@SAAAV1@XZ ; ioSP2GUIManager::GetSingleton
  000cc	8b c8		 mov	 ecx, eax
  000ce	ff d3		 call	 ebx

; 2473 : 			g_GUIMgr.HideWnd( MESSENGER_WND );

  000d0	6a 00		 push	 0
  000d2	56		 push	 esi
  000d3	84 c0		 test	 al, al
  000d5	74 0b		 je	 SHORT $LN2@MessengerP
  000d7	e8 00 00 00 00	 call	 ?GetSingleton@ioSP2GUIManager@@SAAAV1@XZ ; ioSP2GUIManager::GetSingleton
  000dc	8b c8		 mov	 ecx, eax
  000de	ff d7		 call	 edi

; 2474 : 		else

  000e0	eb bb		 jmp	 SHORT $LN1@MessengerP
$LN2@MessengerP:

; 2475 : 			g_GUIMgr.ShowWnd( MESSENGER_WND );			

  000e2	e8 00 00 00 00	 call	 ?GetSingleton@ioSP2GUIManager@@SAAAV1@XZ ; ioSP2GUIManager::GetSingleton
  000e7	8b c8		 mov	 ecx, eax
  000e9	ff 15 00 00 00
	00		 call	 DWORD PTR __imp_?ShowWnd@ioGUIManager@@QAEXK_N@Z
  000ef	eb ac		 jmp	 SHORT $LN1@MessengerP
$LN8@MessengerP:

; 2456 : 	{
; 2457 : 		g_App.OpenFormalityEntryPage();

  000f1	e8 00 00 00 00	 call	 ?GetSingleton@ioApplication@@SAAAV1@XZ ; ioApplication::GetSingleton
  000f6	5f		 pop	 edi
  000f7	5e		 pop	 esi
  000f8	8b c8		 mov	 ecx, eax
  000fa	5b		 pop	 ebx
  000fb	e9 00 00 00 00	 jmp	 ?OpenFormalityEntryPage@ioApplication@@QAEXXZ ; ioApplication::OpenFormalityEntryPage
?MessengerProcess@HelpWnd@@IAEXXZ ENDP			; HelpWnd::MessengerProcess
_TEXT	ENDS
PUBLIC	?EscKeyProcess@HelpWnd@@QAEXXZ			; HelpWnd::EscKeyProcess
EXTRN	?AltF4ExitProcess@ioApplication@@QAEX_N@Z:PROC	; ioApplication::AltF4ExitProcess
; Function compile flags: /Ogsp
;	COMDAT ?EscKeyProcess@HelpWnd@@QAEXXZ
_TEXT	SEGMENT
?EscKeyProcess@HelpWnd@@QAEXXZ PROC			; HelpWnd::EscKeyProcess, COMDAT
; _this$ = ecx

; 2480 : {

  00000	56		 push	 esi
  00001	8b f1		 mov	 esi, ecx

; 2481 : 	if( !IsShow() )

  00003	ff 15 00 00 00
	00		 call	 DWORD PTR __imp_?IsShow@ioWnd@@QBE_NXZ
  00009	84 c0		 test	 al, al
  0000b	0f 84 f3 00 00
	00		 je	 $LN6@EscKeyProc

; 2482 : 		return;
; 2483 : 		
; 2484 : 	ioWnd *pPreClick = g_GUIMgr.GetPreClickWnd();

  00011	e8 00 00 00 00	 call	 ?GetSingleton@ioSP2GUIManager@@SAAAV1@XZ ; ioSP2GUIManager::GetSingleton

; 2485 : 
; 2486 : 	if( pPreClick == NULL								&&
; 2487 : 		!g_GUIMgr.IsShow( QUEST_OCCUR_STATE_WND )		&&
; 2488 : 		!g_GUIMgr.IsShow( QUEST_ATTAIN_STATE_WND )		&&
; 2489 : 		!g_GUIMgr.IsShow( EX_PCROOM_AUTHORITY_WND )		&&
; 2490 : 		!g_GUIMgr.IsShow( EX_PCROOM_SOLDIER_BONUS_WND )	&&
; 2491 : 		!g_GUIMgr.IsShow( ATTENDANCE_WND ) 				&&
; 2492 : 		!g_GUIMgr.IsShow( USER_SELECT_HERO_BONUS_WND ) )

  00016	83 78 14 00	 cmp	 DWORD PTR [eax+20], 0
  0001a	0f 85 aa 00 00
	00		 jne	 $LN2@EscKeyProc
  00020	57		 push	 edi
  00021	68 f4 17 00 00	 push	 6132			; 000017f4H
  00026	e8 00 00 00 00	 call	 ?GetSingleton@ioSP2GUIManager@@SAAAV1@XZ ; ioSP2GUIManager::GetSingleton
  0002b	8b 3d 00 00 00
	00		 mov	 edi, DWORD PTR __imp_?IsShow@ioGUIManager@@QAE_NK@Z
  00031	8b c8		 mov	 ecx, eax
  00033	ff d7		 call	 edi
  00035	84 c0		 test	 al, al
  00037	0f 85 8c 00 00
	00		 jne	 $LN12@EscKeyProc
  0003d	68 f6 17 00 00	 push	 6134			; 000017f6H
  00042	e8 00 00 00 00	 call	 ?GetSingleton@ioSP2GUIManager@@SAAAV1@XZ ; ioSP2GUIManager::GetSingleton
  00047	8b c8		 mov	 ecx, eax
  00049	ff d7		 call	 edi
  0004b	84 c0		 test	 al, al
  0004d	75 7a		 jne	 SHORT $LN12@EscKeyProc
  0004f	68 5d 18 00 00	 push	 6237			; 0000185dH
  00054	e8 00 00 00 00	 call	 ?GetSingleton@ioSP2GUIManager@@SAAAV1@XZ ; ioSP2GUIManager::GetSingleton
  00059	8b c8		 mov	 ecx, eax
  0005b	ff d7		 call	 edi
  0005d	84 c0		 test	 al, al
  0005f	75 68		 jne	 SHORT $LN12@EscKeyProc
  00061	68 5e 18 00 00	 push	 6238			; 0000185eH
  00066	e8 00 00 00 00	 call	 ?GetSingleton@ioSP2GUIManager@@SAAAV1@XZ ; ioSP2GUIManager::GetSingleton
  0006b	8b c8		 mov	 ecx, eax
  0006d	ff d7		 call	 edi
  0006f	84 c0		 test	 al, al
  00071	75 56		 jne	 SHORT $LN12@EscKeyProc
  00073	68 5f 18 00 00	 push	 6239			; 0000185fH
  00078	e8 00 00 00 00	 call	 ?GetSingleton@ioSP2GUIManager@@SAAAV1@XZ ; ioSP2GUIManager::GetSingleton
  0007d	8b c8		 mov	 ecx, eax
  0007f	ff d7		 call	 edi
  00081	84 c0		 test	 al, al
  00083	75 44		 jne	 SHORT $LN12@EscKeyProc
  00085	68 02 19 00 00	 push	 6402			; 00001902H
  0008a	e8 00 00 00 00	 call	 ?GetSingleton@ioSP2GUIManager@@SAAAV1@XZ ; ioSP2GUIManager::GetSingleton
  0008f	8b c8		 mov	 ecx, eax
  00091	ff d7		 call	 edi
  00093	84 c0		 test	 al, al
  00095	75 32		 jne	 SHORT $LN12@EscKeyProc

; 2493 : 	{
; 2494 : 		if( g_App.GetConnectedMoveMode() != ioApplication::CMM_LOBBY )

  00097	e8 00 00 00 00	 call	 ?GetSingleton@ioApplication@@SAAAV1@XZ ; ioApplication::GetSingleton
  0009c	83 b8 ac 06 00
	00 02		 cmp	 DWORD PTR [eax+1708], 2
  000a3	74 16		 je	 SHORT $LN3@EscKeyProc

; 2495 : 		{
; 2496 : 			g_GUIMgr.ShowWnd( LOBBY_QUICK_EXIT_WND );

  000a5	6a 00		 push	 0
  000a7	68 69 18 00 00	 push	 6249			; 00001869H
  000ac	e8 00 00 00 00	 call	 ?GetSingleton@ioSP2GUIManager@@SAAAV1@XZ ; ioSP2GUIManager::GetSingleton
  000b1	8b c8		 mov	 ecx, eax
  000b3	ff 15 00 00 00
	00		 call	 DWORD PTR __imp_?ShowWnd@ioGUIManager@@QAEXK_N@Z

; 2497 : 		}
; 2498 : 		else

  000b9	eb 0e		 jmp	 SHORT $LN12@EscKeyProc
$LN3@EscKeyProc:

; 2499 : 		{
; 2500 : 			g_App.AltF4ExitProcess();

  000bb	6a 01		 push	 1
  000bd	e8 00 00 00 00	 call	 ?GetSingleton@ioApplication@@SAAAV1@XZ ; ioApplication::GetSingleton
  000c2	8b c8		 mov	 ecx, eax
  000c4	e8 00 00 00 00	 call	 ?AltF4ExitProcess@ioApplication@@QAEX_N@Z ; ioApplication::AltF4ExitProcess
$LN12@EscKeyProc:
  000c9	5f		 pop	 edi
$LN2@EscKeyProc:

; 2501 : 		}
; 2502 : 	}
; 2503 : 
; 2504 : 	if( sg_dwMoveState == MOVE_STATE_SHOW )

  000ca	83 3d 00 00 00
	00 00		 cmp	 DWORD PTR ?sg_dwMoveState@HelpWnd@@1KA, 0 ; HelpWnd::sg_dwMoveState
  000d1	74 31		 je	 SHORT $LN6@EscKeyProc

; 2505 : 		return;
; 2506 : 
; 2507 : 	sg_dwMoveState = MOVE_STATE_SHOW;

  000d3	83 25 00 00 00
	00 00		 and	 DWORD PTR ?sg_dwMoveState@HelpWnd@@1KA, 0 ; HelpWnd::sg_dwMoveState

; 2508 : 	m_dwMoveStateDelayTIme = m_dwMoveStateTime = m_dwMoveStateStartDelayTIme = FRAMEGETTIME();

  000da	ff 15 00 00 00
	00		 call	 DWORD PTR __imp_?GetSingleton@ioFrameTimer@@SAAAV1@XZ
  000e0	8b c8		 mov	 ecx, eax
  000e2	ff 15 00 00 00
	00		 call	 DWORD PTR __imp_?GetLoopSec@ioFrameTimer@@QBEKXZ
  000e8	89 86 94 01 00
	00		 mov	 DWORD PTR [esi+404], eax
  000ee	89 86 9c 01 00
	00		 mov	 DWORD PTR [esi+412], eax
  000f4	89 86 98 01 00
	00		 mov	 DWORD PTR [esi+408], eax

; 2509 : 	m_dwShowKeepTime = 5000;

  000fa	c7 86 90 01 00
	00 88 13 00 00	 mov	 DWORD PTR [esi+400], 5000 ; 00001388H
$LN6@EscKeyProc:
  00104	5e		 pop	 esi

; 2510 : }

  00105	c3		 ret	 0
?EscKeyProcess@HelpWnd@@QAEXXZ ENDP			; HelpWnd::EscKeyProcess
_TEXT	ENDS
EXTRN	?Width@Setting@@SAHXZ:PROC			; Setting::Width
EXTRN	__imp_?OnRender@ioWnd@@MAEXXZ:PROC
; Function compile flags: /Ogsp
;	COMDAT ?OnRender@HelpWnd@@MAEXXZ
_TEXT	SEGMENT
?OnRender@HelpWnd@@MAEXXZ PROC				; HelpWnd::OnRender, COMDAT
; _this$ = ecx

; 2726 : {

  00000	53		 push	 ebx
  00001	56		 push	 esi
  00002	57		 push	 edi
  00003	8b f1		 mov	 esi, ecx

; 2727 : 	ioWnd::OnRender();

  00005	ff 15 00 00 00
	00		 call	 DWORD PTR __imp_?OnRender@ioWnd@@MAEXXZ

; 2728 : 
; 2729 : 	int iXPos = GetDerivedPosX();

  0000b	8b ce		 mov	 ecx, esi
  0000d	ff 15 00 00 00
	00		 call	 DWORD PTR __imp_?GetDerivedPosX@ioWnd@@QBEHXZ

; 2730 : 	int iYPos = GetDerivedPosY();

  00013	8b ce		 mov	 ecx, esi
  00015	8b f8		 mov	 edi, eax
  00017	ff 15 00 00 00
	00		 call	 DWORD PTR __imp_?GetDerivedPosY@ioWnd@@QBEHXZ
  0001d	8b d8		 mov	 ebx, eax

; 2731 : 
; 2732 : 	OnRenderBar( iXPos - 14, iYPos - 6, Setting::Width() - 108 );

  0001f	e8 00 00 00 00	 call	 ?Width@Setting@@SAHXZ	; Setting::Width
  00024	83 e8 6c	 sub	 eax, 108		; 0000006cH
  00027	50		 push	 eax
  00028	83 c3 fa	 add	 ebx, -6			; fffffffaH
  0002b	53		 push	 ebx
  0002c	83 c7 f2	 add	 edi, -14		; fffffff2H
  0002f	57		 push	 edi
  00030	8b ce		 mov	 ecx, esi
  00032	e8 00 00 00 00	 call	 ?OnRenderBar@HelpWnd@@IAEXHHH@Z ; HelpWnd::OnRenderBar
  00037	5f		 pop	 edi
  00038	5e		 pop	 esi
  00039	5b		 pop	 ebx

; 2733 : }

  0003a	c3		 ret	 0
?OnRender@HelpWnd@@MAEXXZ ENDP				; HelpWnd::OnRender
_TEXT	ENDS
PUBLIC	??B?$CEncrypt@W4ChatModeState@@@@QBE?AW4ChatModeState@@XZ ; CEncrypt<enum ChatModeState>::operator enum ChatModeState
; Function compile flags: /Ogsp
; File d:\lost saga for developer\youtube\tutorial\source\src\lsclient\encryptvalue.h
;	COMDAT ??B?$CEncrypt@W4ChatModeState@@@@QBE?AW4ChatModeState@@XZ
_TEXT	SEGMENT
_value$ = -4						; size = 4
??B?$CEncrypt@W4ChatModeState@@@@QBE?AW4ChatModeState@@XZ PROC ; CEncrypt<enum ChatModeState>::operator enum ChatModeState, COMDAT
; _this$ = ecx

; 145  : 	{

  00000	55		 push	 ebp
  00001	8b ec		 mov	 ebp, esp
  00003	51		 push	 ecx

; 146  : 		//UJ 130829, const    --start
; 147  : 		type value;
; 148  : 		CEncrypt<type>* pThis = const_cast<CEncrypt<type>*>(this);
; 149  : 		pThis->DecryptValueToPool(&value);

  00004	8d 45 fc	 lea	 eax, DWORD PTR _value$[ebp]
  00007	50		 push	 eax
  00008	e8 00 00 00 00	 call	 ?DecryptValueToPool@?$CEncrypt@W4ChatModeState@@@@QAEXPAW4ChatModeState@@@Z ; CEncrypt<enum ChatModeState>::DecryptValueToPool

; 150  : 		//// const DecryptValueToPool     .
; 151  :  		//type value;
; 152  : 		//char szTempMem[MAX_ENCRYPT];
; 153  : 		//m_RC5.DecryptByte( m_MemPool, szTempMem, max(m_ValueSize, DEFAULT_ENCRYPT) );
; 154  : 		//memcpy( &value, szTempMem, m_ValueSize );
; 155  : 		//UJ --end
; 156  : 
; 157  : #ifdef _NOTUSE
; 158  : 		Debug();
; 159  : #endif
; 160  : 		return value;

  0000d	8b 45 fc	 mov	 eax, DWORD PTR _value$[ebp]

; 161  : 	}

  00010	c9		 leave
  00011	c3		 ret	 0
??B?$CEncrypt@W4ChatModeState@@@@QBE?AW4ChatModeState@@XZ ENDP ; CEncrypt<enum ChatModeState>::operator enum ChatModeState
_TEXT	ENDS
PUBLIC	??0?$_Vector_val@PAVMenuBase@@V?$allocator@PAVMenuBase@@@std@@@std@@QAE@V?$allocator@PAVMenuBase@@@1@@Z ; std::_Vector_val<MenuBase *,std::allocator<MenuBase *> >::_Vector_val<MenuBase *,std::allocator<MenuBase *> >
; Function compile flags: /Ogsp
; File c:\program files (x86)\microsoft visual studio 10.0\vc\include\vector
;	COMDAT ??0?$_Vector_val@PAVMenuBase@@V?$allocator@PAVMenuBase@@@std@@@std@@QAE@V?$allocator@PAVMenuBase@@@1@@Z
_TEXT	SEGMENT
__Al$ = 8						; size = 1
??0?$_Vector_val@PAVMenuBase@@V?$allocator@PAVMenuBase@@@std@@@std@@QAE@V?$allocator@PAVMenuBase@@@1@@Z PROC ; std::_Vector_val<MenuBase *,std::allocator<MenuBase *> >::_Vector_val<MenuBase *,std::allocator<MenuBase *> >, COMDAT
; _this$ = ecx

; 426  : 		{	// construct allocator from _Al

  00000	8b c1		 mov	 eax, ecx

; 427  : 		_Myfirst = 0;

  00002	33 c9		 xor	 ecx, ecx
  00004	89 08		 mov	 DWORD PTR [eax], ecx

; 428  : 		_Mylast = 0;

  00006	89 48 04	 mov	 DWORD PTR [eax+4], ecx

; 429  : 		_Myend = 0;

  00009	89 48 08	 mov	 DWORD PTR [eax+8], ecx

; 430  : 		}

  0000c	c2 04 00	 ret	 4
??0?$_Vector_val@PAVMenuBase@@V?$allocator@PAVMenuBase@@@std@@@std@@QAE@V?$allocator@PAVMenuBase@@@1@@Z ENDP ; std::_Vector_val<MenuBase *,std::allocator<MenuBase *> >::_Vector_val<MenuBase *,std::allocator<MenuBase *> >
_TEXT	ENDS
PUBLIC	?max_size@?$vector@PAVMenuBase@@V?$allocator@PAVMenuBase@@@std@@@std@@QBEIXZ ; std::vector<MenuBase *,std::allocator<MenuBase *> >::max_size
; Function compile flags: /Ogsp
;	COMDAT ?max_size@?$vector@PAVMenuBase@@V?$allocator@PAVMenuBase@@@std@@@std@@QBEIXZ
_TEXT	SEGMENT
?max_size@?$vector@PAVMenuBase@@V?$allocator@PAVMenuBase@@@std@@@std@@QBEIXZ PROC ; std::vector<MenuBase *,std::allocator<MenuBase *> >::max_size, COMDAT
; _this$ = ecx

; 884  : 		return (this->_Alval.max_size());

  00000	b8 ff ff ff 3f	 mov	 eax, 1073741823		; 3fffffffH

; 885  : 		}

  00005	c3		 ret	 0
?max_size@?$vector@PAVMenuBase@@V?$allocator@PAVMenuBase@@@std@@@std@@QBEIXZ ENDP ; std::vector<MenuBase *,std::allocator<MenuBase *> >::max_size
_TEXT	ENDS
PUBLIC	?_Grow_to@?$vector@PAVMenuBase@@V?$allocator@PAVMenuBase@@@std@@@std@@IBEII@Z ; std::vector<MenuBase *,std::allocator<MenuBase *> >::_Grow_to
; Function compile flags: /Ogsp
;	COMDAT ?_Grow_to@?$vector@PAVMenuBase@@V?$allocator@PAVMenuBase@@@std@@@std@@IBEII@Z
_TEXT	SEGMENT
__Count$ = 8						; size = 4
?_Grow_to@?$vector@PAVMenuBase@@V?$allocator@PAVMenuBase@@@std@@@std@@IBEII@Z PROC ; std::vector<MenuBase *,std::allocator<MenuBase *> >::_Grow_to, COMDAT
; _this$ = ecx

; 1274 : 		{	// grow by 50% or at least to _Count

  00000	55		 push	 ebp
  00001	8b ec		 mov	 ebp, esp

; 1275 : 		size_type _Capacity = capacity();

  00003	8b 41 08	 mov	 eax, DWORD PTR [ecx+8]
  00006	2b 01		 sub	 eax, DWORD PTR [ecx]

; 1276 : 
; 1277 : 		_Capacity = max_size() - _Capacity / 2 < _Capacity
; 1278 : 			? 0 : _Capacity + _Capacity / 2;	// try to grow by 50%

  00008	ba ff ff ff 3f	 mov	 edx, 1073741823		; 3fffffffH
  0000d	c1 f8 02	 sar	 eax, 2
  00010	8b c8		 mov	 ecx, eax
  00012	d1 e9		 shr	 ecx, 1
  00014	2b d1		 sub	 edx, ecx
  00016	3b d0		 cmp	 edx, eax
  00018	73 04		 jae	 SHORT $LN4@Grow_to
  0001a	33 c0		 xor	 eax, eax
  0001c	eb 02		 jmp	 SHORT $LN5@Grow_to
$LN4@Grow_to:
  0001e	03 c1		 add	 eax, ecx
$LN5@Grow_to:

; 1279 : 		if (_Capacity < _Count)

  00020	3b 45 08	 cmp	 eax, DWORD PTR __Count$[ebp]

; 1280 : 			_Capacity = _Count;

  00023	0f 42 45 08	 cmovb	 eax, DWORD PTR __Count$[ebp]

; 1281 : 		return (_Capacity);
; 1282 : 		}

  00027	5d		 pop	 ebp
  00028	c2 04 00	 ret	 4
?_Grow_to@?$vector@PAVMenuBase@@V?$allocator@PAVMenuBase@@@std@@@std@@IBEII@Z ENDP ; std::vector<MenuBase *,std::allocator<MenuBase *> >::_Grow_to
_TEXT	ENDS
PUBLIC	?allocate@?$allocator@PAVMenuBase@@@std@@QAEPAPAVMenuBase@@I@Z ; std::allocator<MenuBase *>::allocate
; Function compile flags: /Ogsp
; File c:\program files (x86)\microsoft visual studio 10.0\vc\include\xmemory
;	COMDAT ?allocate@?$allocator@PAVMenuBase@@@std@@QAEPAPAVMenuBase@@I@Z
_TEXT	SEGMENT
__Count$ = 8						; size = 4
?allocate@?$allocator@PAVMenuBase@@@std@@QAEPAPAVMenuBase@@I@Z PROC ; std::allocator<MenuBase *>::allocate, COMDAT
; _this$ = ecx

; 186  : 		{	// allocate array of _Count elements

  00000	55		 push	 ebp
  00001	8b ec		 mov	 ebp, esp

; 187  : 		return (_Allocate(_Count, (pointer)0));

  00003	6a 00		 push	 0
  00005	ff 75 08	 push	 DWORD PTR __Count$[ebp]
  00008	e8 00 00 00 00	 call	 ??$_Allocate@PAVMenuBase@@@std@@YAPAPAVMenuBase@@IPAPAV1@@Z ; std::_Allocate<MenuBase *>
  0000d	59		 pop	 ecx
  0000e	59		 pop	 ecx

; 188  : 		}

  0000f	5d		 pop	 ebp
  00010	c2 04 00	 ret	 4
?allocate@?$allocator@PAVMenuBase@@@std@@QAEPAPAVMenuBase@@I@Z ENDP ; std::allocator<MenuBase *>::allocate
_TEXT	ENDS
PUBLIC	__$ArrayPad$
PUBLIC	??$?8$0M@@@YA_NABVioHashString@@AAY0M@$$CBD@Z	; operator==<12>
; Function compile flags: /Ogsp
; File d:\lost saga for developer\youtube\tutorial\source\src\io3dengine\iohashstring.h
;	COMDAT ??$?8$0M@@@YA_NABVioHashString@@AAY0M@$$CBD@Z
_TEXT	SEGMENT
__t$ = -20						; size = 12
__$ArrayPad$ = -4					; size = 4
_lhs$ = 8						; size = 4
_t$ = 12						; size = 4
??$?8$0M@@@YA_NABVioHashString@@AAY0M@$$CBD@Z PROC	; operator==<12>, COMDAT

; 146  : {

  00000	55		 push	 ebp
  00001	8b ec		 mov	 ebp, esp
  00003	83 ec 14	 sub	 esp, 20			; 00000014H
  00006	a1 00 00 00 00	 mov	 eax, DWORD PTR ___security_cookie
  0000b	33 c5		 xor	 eax, ebp
  0000d	89 45 fc	 mov	 DWORD PTR __$ArrayPad$[ebp], eax
  00010	8b 45 0c	 mov	 eax, DWORD PTR _t$[ebp]

; 147  : 	_ENCSTR(t, _t); return ( strcmp( lhs.c_str(), _t ) == 0 );

  00013	8a 10		 mov	 dl, BYTE PTR [eax]
  00015	56		 push	 esi
  00016	57		 push	 edi
  00017	8b 7d 08	 mov	 edi, DWORD PTR _lhs$[ebp]
  0001a	84 d2		 test	 dl, dl
  0001c	0f 84 32 01 00
	00		 je	 $LN96@operator
  00022	80 f2 ed	 xor	 dl, -19			; ffffffedH
  00025	88 55 ec	 mov	 BYTE PTR __t$[ebp], dl
  00028	8a 50 01	 mov	 dl, BYTE PTR [eax+1]
  0002b	84 d2		 test	 dl, dl
  0002d	0f 84 1b 01 00
	00		 je	 $LN95@operator
  00033	80 f2 ec	 xor	 dl, -20			; ffffffecH
  00036	88 55 ed	 mov	 BYTE PTR __t$[ebp+1], dl
  00039	8a 50 02	 mov	 dl, BYTE PTR [eax+2]
  0003c	84 d2		 test	 dl, dl
  0003e	0f 84 04 01 00
	00		 je	 $LN94@operator
  00044	b1 eb		 mov	 cl, -21			; ffffffebH
  00046	32 d1		 xor	 dl, cl
  00048	88 55 ee	 mov	 BYTE PTR __t$[ebp+2], dl
  0004b	8a 50 03	 mov	 dl, BYTE PTR [eax+3]
  0004e	84 d2		 test	 dl, dl
  00050	0f 84 ec 00 00
	00		 je	 $LN93@operator
  00056	80 f2 ea	 xor	 dl, -22			; ffffffeaH
  00059	88 55 ef	 mov	 BYTE PTR __t$[ebp+3], dl
  0005c	8a 50 04	 mov	 dl, BYTE PTR [eax+4]
  0005f	84 d2		 test	 dl, dl
  00061	0f 84 d5 00 00
	00		 je	 $LN92@operator
  00067	80 f2 ed	 xor	 dl, -19			; ffffffedH
  0006a	88 55 f0	 mov	 BYTE PTR __t$[ebp+4], dl
  0006d	8a 50 05	 mov	 dl, BYTE PTR [eax+5]
  00070	84 d2		 test	 dl, dl
  00072	0f 84 be 00 00
	00		 je	 $LN91@operator
  00078	80 f2 ec	 xor	 dl, -20			; ffffffecH
  0007b	88 55 f1	 mov	 BYTE PTR __t$[ebp+5], dl
  0007e	8a 50 06	 mov	 dl, BYTE PTR [eax+6]
  00081	84 d2		 test	 dl, dl
  00083	0f 84 a8 00 00
	00		 je	 $LN90@operator
  00089	32 d1		 xor	 dl, cl
  0008b	88 55 f2	 mov	 BYTE PTR __t$[ebp+6], dl
  0008e	8a 50 07	 mov	 dl, BYTE PTR [eax+7]
  00091	84 d2		 test	 dl, dl
  00093	0f 84 92 00 00
	00		 je	 $LN89@operator
  00099	80 f2 ea	 xor	 dl, -22			; ffffffeaH
  0009c	88 55 f3	 mov	 BYTE PTR __t$[ebp+7], dl
  0009f	8a 50 08	 mov	 dl, BYTE PTR [eax+8]
  000a2	84 d2		 test	 dl, dl
  000a4	74 7f		 je	 SHORT $LN88@operator
  000a6	80 f2 ed	 xor	 dl, -19			; ffffffedH
  000a9	88 55 f4	 mov	 BYTE PTR __t$[ebp+8], dl
  000ac	8a 50 09	 mov	 dl, BYTE PTR [eax+9]
  000af	84 d2		 test	 dl, dl
  000b1	74 6c		 je	 SHORT $LN87@operator
  000b3	80 f2 ec	 xor	 dl, -20			; ffffffecH
  000b6	88 55 f5	 mov	 BYTE PTR __t$[ebp+9], dl
  000b9	8a 50 0a	 mov	 dl, BYTE PTR [eax+10]
  000bc	84 d2		 test	 dl, dl
  000be	74 5a		 je	 SHORT $LN86@operator
  000c0	32 d1		 xor	 dl, cl
  000c2	80 78 0b 00	 cmp	 BYTE PTR [eax+11], 0
  000c6	88 55 f6	 mov	 BYTE PTR __t$[ebp+10], dl
  000c9	0f 84 89 00 00
	00		 je	 $LN1@operator
  000cf	8a 50 0c	 mov	 dl, BYTE PTR [eax+12]
  000d2	84 d2		 test	 dl, dl
  000d4	74 3e		 je	 SHORT $LN84@operator
  000d6	80 f2 ed	 xor	 dl, -19			; ffffffedH
  000d9	88 55 f8	 mov	 BYTE PTR __t$[ebp+12], dl
  000dc	8a 50 0d	 mov	 dl, BYTE PTR [eax+13]
  000df	84 d2		 test	 dl, dl
  000e1	74 2b		 je	 SHORT $LN83@operator
  000e3	80 f2 ec	 xor	 dl, -20			; ffffffecH
  000e6	88 55 f9	 mov	 BYTE PTR __t$[ebp+13], dl
  000e9	8a 50 0e	 mov	 dl, BYTE PTR [eax+14]
  000ec	84 d2		 test	 dl, dl
  000ee	74 19		 je	 SHORT $LN82@operator
  000f0	8a 40 0f	 mov	 al, BYTE PTR [eax+15]
  000f3	32 d1		 xor	 dl, cl
  000f5	88 55 fa	 mov	 BYTE PTR __t$[ebp+14], dl
  000f8	84 c0		 test	 al, al
  000fa	74 07		 je	 SHORT $LN81@operator
  000fc	34 ea		 xor	 al, -22			; ffffffeaH
  000fe	88 45 fb	 mov	 BYTE PTR __t$[ebp+15], al
  00101	eb 55		 jmp	 SHORT $LN1@operator
$LN81@operator:
  00103	c6 45 fb ea	 mov	 BYTE PTR __t$[ebp+15], -22 ; ffffffeaH
  00107	eb 4f		 jmp	 SHORT $LN1@operator
$LN82@operator:
  00109	88 4d fa	 mov	 BYTE PTR __t$[ebp+14], cl
  0010c	eb 4a		 jmp	 SHORT $LN1@operator
$LN83@operator:
  0010e	c6 45 f9 ec	 mov	 BYTE PTR __t$[ebp+13], -20 ; ffffffecH
  00112	eb 44		 jmp	 SHORT $LN1@operator
$LN84@operator:
  00114	c6 45 f8 ed	 mov	 BYTE PTR __t$[ebp+12], -19 ; ffffffedH
  00118	eb 3e		 jmp	 SHORT $LN1@operator
$LN86@operator:
  0011a	88 4d f6	 mov	 BYTE PTR __t$[ebp+10], cl
  0011d	eb 39		 jmp	 SHORT $LN1@operator
$LN87@operator:
  0011f	c6 45 f5 ec	 mov	 BYTE PTR __t$[ebp+9], -20 ; ffffffecH
  00123	eb 33		 jmp	 SHORT $LN1@operator
$LN88@operator:
  00125	c6 45 f4 ed	 mov	 BYTE PTR __t$[ebp+8], -19 ; ffffffedH
  00129	eb 2d		 jmp	 SHORT $LN1@operator
$LN89@operator:
  0012b	c6 45 f3 ea	 mov	 BYTE PTR __t$[ebp+7], -22 ; ffffffeaH
  0012f	eb 27		 jmp	 SHORT $LN1@operator
$LN90@operator:
  00131	88 4d f2	 mov	 BYTE PTR __t$[ebp+6], cl
  00134	eb 22		 jmp	 SHORT $LN1@operator
$LN91@operator:
  00136	c6 45 f1 ec	 mov	 BYTE PTR __t$[ebp+5], -20 ; ffffffecH
  0013a	eb 1c		 jmp	 SHORT $LN1@operator
$LN92@operator:
  0013c	c6 45 f0 ed	 mov	 BYTE PTR __t$[ebp+4], -19 ; ffffffedH
  00140	eb 16		 jmp	 SHORT $LN1@operator
$LN93@operator:
  00142	c6 45 ef ea	 mov	 BYTE PTR __t$[ebp+3], -22 ; ffffffeaH
  00146	eb 10		 jmp	 SHORT $LN1@operator
$LN94@operator:
  00148	c6 45 ee eb	 mov	 BYTE PTR __t$[ebp+2], -21 ; ffffffebH
  0014c	eb 0a		 jmp	 SHORT $LN1@operator
$LN95@operator:
  0014e	c6 45 ed ec	 mov	 BYTE PTR __t$[ebp+1], -20 ; ffffffecH
  00152	eb 04		 jmp	 SHORT $LN1@operator
$LN96@operator:
  00154	c6 45 ec ed	 mov	 BYTE PTR __t$[ebp], -19	; ffffffedH
$LN1@operator:
  00158	6a 02		 push	 2
  0015a	8d 45 ec	 lea	 eax, DWORD PTR __t$[ebp]
  0015d	c6 45 f7 00	 mov	 BYTE PTR __t$[ebp+11], 0
  00161	5a		 pop	 edx
$LL104@operator:
  00162	81 30 ed ec eb
	ea		 xor	 DWORD PTR [eax], -353637139 ; eaebecedH
  00168	83 c0 04	 add	 eax, 4
  0016b	4a		 dec	 edx
  0016c	75 f4		 jne	 SHORT $LL104@operator
  0016e	6a 08		 push	 8
  00170	58		 pop	 eax
$LL101@operator:
  00171	8b c8		 mov	 ecx, eax
  00173	81 e1 03 00 00
	80		 and	 ecx, -2147483645	; 80000003H
  00179	79 05		 jns	 SHORT $LN115@operator
  0017b	49		 dec	 ecx
  0017c	83 c9 fc	 or	 ecx, -4			; fffffffcH
  0017f	41		 inc	 ecx
$LN115@operator:
  00180	b2 ed		 mov	 dl, -19			; ffffffedH
  00182	2a d1		 sub	 dl, cl
  00184	30 54 05 ec	 xor	 BYTE PTR __t$[ebp+eax], dl
  00188	40		 inc	 eax
  00189	83 f8 0b	 cmp	 eax, 11			; 0000000bH
  0018c	7c e3		 jl	 SHORT $LL101@operator
  0018e	8b cf		 mov	 ecx, edi
  00190	8d 75 ec	 lea	 esi, DWORD PTR __t$[ebp]
  00193	ff 15 00 00 00
	00		 call	 DWORD PTR __imp_?c_str@ioHashString@@QBEPBDXZ
$LL111@operator:
  00199	8a 08		 mov	 cl, BYTE PTR [eax]
  0019b	3a 0e		 cmp	 cl, BYTE PTR [esi]
  0019d	75 1a		 jne	 SHORT $LN112@operator
  0019f	84 c9		 test	 cl, cl
  001a1	74 12		 je	 SHORT $LN113@operator
  001a3	8a 48 01	 mov	 cl, BYTE PTR [eax+1]
  001a6	3a 4e 01	 cmp	 cl, BYTE PTR [esi+1]
  001a9	75 0e		 jne	 SHORT $LN112@operator
  001ab	83 c0 02	 add	 eax, 2
  001ae	83 c6 02	 add	 esi, 2
  001b1	84 c9		 test	 cl, cl
  001b3	75 e4		 jne	 SHORT $LL111@operator
$LN113@operator:
  001b5	33 c0		 xor	 eax, eax
  001b7	eb 05		 jmp	 SHORT $LN114@operator
$LN112@operator:
  001b9	1b c0		 sbb	 eax, eax
  001bb	83 d8 ff	 sbb	 eax, -1
$LN114@operator:
  001be	33 c9		 xor	 ecx, ecx
  001c0	85 c0		 test	 eax, eax
  001c2	0f 94 c0	 sete	 al

; 148  : }

  001c5	8b 4d fc	 mov	 ecx, DWORD PTR __$ArrayPad$[ebp]
  001c8	5f		 pop	 edi
  001c9	33 cd		 xor	 ecx, ebp
  001cb	5e		 pop	 esi
  001cc	e8 00 00 00 00	 call	 @__security_check_cookie@4
  001d1	c9		 leave
  001d2	c3		 ret	 0
??$?8$0M@@@YA_NABVioHashString@@AAY0M@$$CBD@Z ENDP	; operator==<12>
_TEXT	ENDS
PUBLIC	__$ArrayPad$
PUBLIC	??$?8$09@@YA_NABVioHashString@@AAY09$$CBD@Z	; operator==<10>
; Function compile flags: /Ogsp
;	COMDAT ??$?8$09@@YA_NABVioHashString@@AAY09$$CBD@Z
_TEXT	SEGMENT
__t$ = -20						; size = 10
__$ArrayPad$ = -4					; size = 4
_lhs$ = 8						; size = 4
_t$ = 12						; size = 4
??$?8$09@@YA_NABVioHashString@@AAY09$$CBD@Z PROC	; operator==<10>, COMDAT

; 146  : {

  00000	55		 push	 ebp
  00001	8b ec		 mov	 ebp, esp
  00003	83 ec 14	 sub	 esp, 20			; 00000014H
  00006	a1 00 00 00 00	 mov	 eax, DWORD PTR ___security_cookie
  0000b	33 c5		 xor	 eax, ebp
  0000d	89 45 fc	 mov	 DWORD PTR __$ArrayPad$[ebp], eax
  00010	8b 45 0c	 mov	 eax, DWORD PTR _t$[ebp]

; 147  : 	_ENCSTR(t, _t); return ( strcmp( lhs.c_str(), _t ) == 0 );

  00013	8a 10		 mov	 dl, BYTE PTR [eax]
  00015	8b 4d 08	 mov	 ecx, DWORD PTR _lhs$[ebp]
  00018	84 d2		 test	 dl, dl
  0001a	0f 84 0d 01 00
	00		 je	 $LN96@operator@2
  00020	80 f2 ed	 xor	 dl, -19			; ffffffedH
  00023	88 55 ec	 mov	 BYTE PTR __t$[ebp], dl
  00026	8a 50 01	 mov	 dl, BYTE PTR [eax+1]
  00029	84 d2		 test	 dl, dl
  0002b	0f 84 f6 00 00
	00		 je	 $LN95@operator@2
  00031	80 f2 ec	 xor	 dl, -20			; ffffffecH
  00034	88 55 ed	 mov	 BYTE PTR __t$[ebp+1], dl
  00037	8a 50 02	 mov	 dl, BYTE PTR [eax+2]
  0003a	84 d2		 test	 dl, dl
  0003c	0f 84 df 00 00
	00		 je	 $LN94@operator@2
  00042	80 f2 eb	 xor	 dl, -21			; ffffffebH
  00045	88 55 ee	 mov	 BYTE PTR __t$[ebp+2], dl
  00048	8a 50 03	 mov	 dl, BYTE PTR [eax+3]
  0004b	84 d2		 test	 dl, dl
  0004d	0f 84 c8 00 00
	00		 je	 $LN93@operator@2
  00053	80 f2 ea	 xor	 dl, -22			; ffffffeaH
  00056	88 55 ef	 mov	 BYTE PTR __t$[ebp+3], dl
  00059	8a 50 04	 mov	 dl, BYTE PTR [eax+4]
  0005c	84 d2		 test	 dl, dl
  0005e	0f 84 b1 00 00
	00		 je	 $LN92@operator@2
  00064	80 f2 ed	 xor	 dl, -19			; ffffffedH
  00067	88 55 f0	 mov	 BYTE PTR __t$[ebp+4], dl
  0006a	8a 50 05	 mov	 dl, BYTE PTR [eax+5]
  0006d	84 d2		 test	 dl, dl
  0006f	0f 84 9a 00 00
	00		 je	 $LN91@operator@2
  00075	80 f2 ec	 xor	 dl, -20			; ffffffecH
  00078	88 55 f1	 mov	 BYTE PTR __t$[ebp+5], dl
  0007b	8a 50 06	 mov	 dl, BYTE PTR [eax+6]
  0007e	84 d2		 test	 dl, dl
  00080	0f 84 83 00 00
	00		 je	 $LN90@operator@2
  00086	80 f2 eb	 xor	 dl, -21			; ffffffebH
  00089	88 55 f2	 mov	 BYTE PTR __t$[ebp+6], dl
  0008c	8a 50 07	 mov	 dl, BYTE PTR [eax+7]
  0008f	84 d2		 test	 dl, dl
  00091	74 70		 je	 SHORT $LN89@operator@2
  00093	80 f2 ea	 xor	 dl, -22			; ffffffeaH
  00096	88 55 f3	 mov	 BYTE PTR __t$[ebp+7], dl
  00099	8a 50 08	 mov	 dl, BYTE PTR [eax+8]
  0009c	84 d2		 test	 dl, dl
  0009e	74 5d		 je	 SHORT $LN88@operator@2
  000a0	80 f2 ed	 xor	 dl, -19			; ffffffedH
  000a3	80 78 09 00	 cmp	 BYTE PTR [eax+9], 0
  000a7	88 55 f4	 mov	 BYTE PTR __t$[ebp+8], dl
  000aa	0f 84 81 00 00
	00		 je	 $LN1@operator@2
  000b0	8a 50 0a	 mov	 dl, BYTE PTR [eax+10]
  000b3	84 d2		 test	 dl, dl
  000b5	74 40		 je	 SHORT $LN86@operator@2
  000b7	80 f2 eb	 xor	 dl, -21			; ffffffebH
  000ba	88 55 f6	 mov	 BYTE PTR __t$[ebp+10], dl
  000bd	8a 50 0b	 mov	 dl, BYTE PTR [eax+11]
  000c0	84 d2		 test	 dl, dl
  000c2	74 2d		 je	 SHORT $LN85@operator@2
  000c4	80 f2 ea	 xor	 dl, -22			; ffffffeaH
  000c7	88 55 f7	 mov	 BYTE PTR __t$[ebp+11], dl
  000ca	8a 50 0c	 mov	 dl, BYTE PTR [eax+12]
  000cd	84 d2		 test	 dl, dl
  000cf	74 1a		 je	 SHORT $LN84@operator@2
  000d1	8a 40 0d	 mov	 al, BYTE PTR [eax+13]
  000d4	80 f2 ed	 xor	 dl, -19			; ffffffedH
  000d7	88 55 f8	 mov	 BYTE PTR __t$[ebp+12], dl
  000da	84 c0		 test	 al, al
  000dc	74 07		 je	 SHORT $LN83@operator@2
  000de	34 ec		 xor	 al, -20			; ffffffecH
  000e0	88 45 f9	 mov	 BYTE PTR __t$[ebp+13], al
  000e3	eb 4c		 jmp	 SHORT $LN1@operator@2
$LN83@operator@2:
  000e5	c6 45 f9 ec	 mov	 BYTE PTR __t$[ebp+13], -20 ; ffffffecH
  000e9	eb 46		 jmp	 SHORT $LN1@operator@2
$LN84@operator@2:
  000eb	c6 45 f8 ed	 mov	 BYTE PTR __t$[ebp+12], -19 ; ffffffedH
  000ef	eb 40		 jmp	 SHORT $LN1@operator@2
$LN85@operator@2:
  000f1	c6 45 f7 ea	 mov	 BYTE PTR __t$[ebp+11], -22 ; ffffffeaH
  000f5	eb 3a		 jmp	 SHORT $LN1@operator@2
$LN86@operator@2:
  000f7	c6 45 f6 eb	 mov	 BYTE PTR __t$[ebp+10], -21 ; ffffffebH
  000fb	eb 34		 jmp	 SHORT $LN1@operator@2
$LN88@operator@2:
  000fd	c6 45 f4 ed	 mov	 BYTE PTR __t$[ebp+8], -19 ; ffffffedH
  00101	eb 2e		 jmp	 SHORT $LN1@operator@2
$LN89@operator@2:
  00103	c6 45 f3 ea	 mov	 BYTE PTR __t$[ebp+7], -22 ; ffffffeaH
  00107	eb 28		 jmp	 SHORT $LN1@operator@2
$LN90@operator@2:
  00109	c6 45 f2 eb	 mov	 BYTE PTR __t$[ebp+6], -21 ; ffffffebH
  0010d	eb 22		 jmp	 SHORT $LN1@operator@2
$LN91@operator@2:
  0010f	c6 45 f1 ec	 mov	 BYTE PTR __t$[ebp+5], -20 ; ffffffecH
  00113	eb 1c		 jmp	 SHORT $LN1@operator@2
$LN92@operator@2:
  00115	c6 45 f0 ed	 mov	 BYTE PTR __t$[ebp+4], -19 ; ffffffedH
  00119	eb 16		 jmp	 SHORT $LN1@operator@2
$LN93@operator@2:
  0011b	c6 45 ef ea	 mov	 BYTE PTR __t$[ebp+3], -22 ; ffffffeaH
  0011f	eb 10		 jmp	 SHORT $LN1@operator@2
$LN94@operator@2:
  00121	c6 45 ee eb	 mov	 BYTE PTR __t$[ebp+2], -21 ; ffffffebH
  00125	eb 0a		 jmp	 SHORT $LN1@operator@2
$LN95@operator@2:
  00127	c6 45 ed ec	 mov	 BYTE PTR __t$[ebp+1], -20 ; ffffffecH
  0012b	eb 04		 jmp	 SHORT $LN1@operator@2
$LN96@operator@2:
  0012d	c6 45 ec ed	 mov	 BYTE PTR __t$[ebp], -19	; ffffffedH
$LN1@operator@2:
  00131	6a 02		 push	 2
  00133	8d 45 ec	 lea	 eax, DWORD PTR __t$[ebp]
  00136	c6 45 f5 00	 mov	 BYTE PTR __t$[ebp+9], 0
  0013a	5a		 pop	 edx
$LL104@operator@2:
  0013b	81 30 ed ec eb
	ea		 xor	 DWORD PTR [eax], -353637139 ; eaebecedH
  00141	83 c0 04	 add	 eax, 4
  00144	4a		 dec	 edx
  00145	75 f4		 jne	 SHORT $LL104@operator@2
  00147	80 75 f4 ed	 xor	 BYTE PTR __t$[ebp+8], -19 ; ffffffedH
  0014b	56		 push	 esi
  0014c	8d 75 ec	 lea	 esi, DWORD PTR __t$[ebp]
  0014f	ff 15 00 00 00
	00		 call	 DWORD PTR __imp_?c_str@ioHashString@@QBEPBDXZ
$LL111@operator@2:
  00155	8a 08		 mov	 cl, BYTE PTR [eax]
  00157	3a 0e		 cmp	 cl, BYTE PTR [esi]
  00159	75 1a		 jne	 SHORT $LN112@operator@2
  0015b	84 c9		 test	 cl, cl
  0015d	74 12		 je	 SHORT $LN113@operator@2
  0015f	8a 48 01	 mov	 cl, BYTE PTR [eax+1]
  00162	3a 4e 01	 cmp	 cl, BYTE PTR [esi+1]
  00165	75 0e		 jne	 SHORT $LN112@operator@2
  00167	83 c0 02	 add	 eax, 2
  0016a	83 c6 02	 add	 esi, 2
  0016d	84 c9		 test	 cl, cl
  0016f	75 e4		 jne	 SHORT $LL111@operator@2
$LN113@operator@2:
  00171	33 c0		 xor	 eax, eax
  00173	eb 05		 jmp	 SHORT $LN114@operator@2
$LN112@operator@2:
  00175	1b c0		 sbb	 eax, eax
  00177	83 d8 ff	 sbb	 eax, -1
$LN114@operator@2:
  0017a	33 c9		 xor	 ecx, ecx
  0017c	85 c0		 test	 eax, eax
  0017e	0f 94 c0	 sete	 al

; 148  : }

  00181	8b 4d fc	 mov	 ecx, DWORD PTR __$ArrayPad$[ebp]
  00184	33 cd		 xor	 ecx, ebp
  00186	5e		 pop	 esi
  00187	e8 00 00 00 00	 call	 @__security_check_cookie@4
  0018c	c9		 leave
  0018d	c3		 ret	 0
??$?8$09@@YA_NABVioHashString@@AAY09$$CBD@Z ENDP	; operator==<10>
_TEXT	ENDS
PUBLIC	__$ArrayPad$
PUBLIC	??$?8$0N@@@YA_NABVioHashString@@AAY0N@$$CBD@Z	; operator==<13>
; Function compile flags: /Ogsp
;	COMDAT ??$?8$0N@@@YA_NABVioHashString@@AAY0N@$$CBD@Z
_TEXT	SEGMENT
__t$ = -24						; size = 13
__$ArrayPad$ = -4					; size = 4
_lhs$ = 8						; size = 4
_t$ = 12						; size = 4
??$?8$0N@@@YA_NABVioHashString@@AAY0N@$$CBD@Z PROC	; operator==<13>, COMDAT

; 146  : {

  00000	55		 push	 ebp
  00001	8b ec		 mov	 ebp, esp
  00003	83 ec 18	 sub	 esp, 24			; 00000018H
  00006	a1 00 00 00 00	 mov	 eax, DWORD PTR ___security_cookie
  0000b	33 c5		 xor	 eax, ebp
  0000d	89 45 fc	 mov	 DWORD PTR __$ArrayPad$[ebp], eax
  00010	8b 45 0c	 mov	 eax, DWORD PTR _t$[ebp]

; 147  : 	_ENCSTR(t, _t); return ( strcmp( lhs.c_str(), _t ) == 0 );

  00013	8a 10		 mov	 dl, BYTE PTR [eax]
  00015	56		 push	 esi
  00016	57		 push	 edi
  00017	8b 7d 08	 mov	 edi, DWORD PTR _lhs$[ebp]
  0001a	84 d2		 test	 dl, dl
  0001c	0f 84 4d 01 00
	00		 je	 $LN96@operator@3
  00022	80 f2 ed	 xor	 dl, -19			; ffffffedH
  00025	88 55 e8	 mov	 BYTE PTR __t$[ebp], dl
  00028	8a 50 01	 mov	 dl, BYTE PTR [eax+1]
  0002b	84 d2		 test	 dl, dl
  0002d	0f 84 36 01 00
	00		 je	 $LN95@operator@3
  00033	b1 ec		 mov	 cl, -20			; ffffffecH
  00035	32 d1		 xor	 dl, cl
  00037	88 55 e9	 mov	 BYTE PTR __t$[ebp+1], dl
  0003a	8a 50 02	 mov	 dl, BYTE PTR [eax+2]
  0003d	84 d2		 test	 dl, dl
  0003f	0f 84 1e 01 00
	00		 je	 $LN94@operator@3
  00045	80 f2 eb	 xor	 dl, -21			; ffffffebH
  00048	88 55 ea	 mov	 BYTE PTR __t$[ebp+2], dl
  0004b	8a 50 03	 mov	 dl, BYTE PTR [eax+3]
  0004e	84 d2		 test	 dl, dl
  00050	0f 84 07 01 00
	00		 je	 $LN93@operator@3
  00056	80 f2 ea	 xor	 dl, -22			; ffffffeaH
  00059	88 55 eb	 mov	 BYTE PTR __t$[ebp+3], dl
  0005c	8a 50 04	 mov	 dl, BYTE PTR [eax+4]
  0005f	84 d2		 test	 dl, dl
  00061	0f 84 f0 00 00
	00		 je	 $LN92@operator@3
  00067	80 f2 ed	 xor	 dl, -19			; ffffffedH
  0006a	88 55 ec	 mov	 BYTE PTR __t$[ebp+4], dl
  0006d	8a 50 05	 mov	 dl, BYTE PTR [eax+5]
  00070	84 d2		 test	 dl, dl
  00072	0f 84 da 00 00
	00		 je	 $LN91@operator@3
  00078	32 d1		 xor	 dl, cl
  0007a	88 55 ed	 mov	 BYTE PTR __t$[ebp+5], dl
  0007d	8a 50 06	 mov	 dl, BYTE PTR [eax+6]
  00080	84 d2		 test	 dl, dl
  00082	0f 84 c4 00 00
	00		 je	 $LN90@operator@3
  00088	80 f2 eb	 xor	 dl, -21			; ffffffebH
  0008b	88 55 ee	 mov	 BYTE PTR __t$[ebp+6], dl
  0008e	8a 50 07	 mov	 dl, BYTE PTR [eax+7]
  00091	84 d2		 test	 dl, dl
  00093	0f 84 ad 00 00
	00		 je	 $LN89@operator@3
  00099	80 f2 ea	 xor	 dl, -22			; ffffffeaH
  0009c	88 55 ef	 mov	 BYTE PTR __t$[ebp+7], dl
  0009f	8a 50 08	 mov	 dl, BYTE PTR [eax+8]
  000a2	84 d2		 test	 dl, dl
  000a4	0f 84 96 00 00
	00		 je	 $LN88@operator@3
  000aa	80 f2 ed	 xor	 dl, -19			; ffffffedH
  000ad	88 55 f0	 mov	 BYTE PTR __t$[ebp+8], dl
  000b0	8a 50 09	 mov	 dl, BYTE PTR [eax+9]
  000b3	84 d2		 test	 dl, dl
  000b5	0f 84 80 00 00
	00		 je	 $LN87@operator@3
  000bb	32 d1		 xor	 dl, cl
  000bd	88 55 f1	 mov	 BYTE PTR __t$[ebp+9], dl
  000c0	8a 50 0a	 mov	 dl, BYTE PTR [eax+10]
  000c3	84 d2		 test	 dl, dl
  000c5	74 6e		 je	 SHORT $LN86@operator@3
  000c7	80 f2 eb	 xor	 dl, -21			; ffffffebH
  000ca	88 55 f2	 mov	 BYTE PTR __t$[ebp+10], dl
  000cd	8a 50 0b	 mov	 dl, BYTE PTR [eax+11]
  000d0	84 d2		 test	 dl, dl
  000d2	74 5b		 je	 SHORT $LN85@operator@3
  000d4	80 f2 ea	 xor	 dl, -22			; ffffffeaH
  000d7	80 78 0c 00	 cmp	 BYTE PTR [eax+12], 0
  000db	88 55 f3	 mov	 BYTE PTR __t$[ebp+11], dl
  000de	0f 84 8f 00 00
	00		 je	 $LN1@operator@3
  000e4	8a 50 0d	 mov	 dl, BYTE PTR [eax+13]
  000e7	84 d2		 test	 dl, dl
  000e9	74 3f		 je	 SHORT $LN83@operator@3
  000eb	32 d1		 xor	 dl, cl
  000ed	88 55 f5	 mov	 BYTE PTR __t$[ebp+13], dl
  000f0	8a 50 0e	 mov	 dl, BYTE PTR [eax+14]
  000f3	84 d2		 test	 dl, dl
  000f5	74 2d		 je	 SHORT $LN82@operator@3
  000f7	80 f2 eb	 xor	 dl, -21			; ffffffebH
  000fa	88 55 f6	 mov	 BYTE PTR __t$[ebp+14], dl
  000fd	8a 50 0f	 mov	 dl, BYTE PTR [eax+15]
  00100	84 d2		 test	 dl, dl
  00102	74 1a		 je	 SHORT $LN81@operator@3
  00104	8a 40 10	 mov	 al, BYTE PTR [eax+16]
  00107	80 f2 ea	 xor	 dl, -22			; ffffffeaH
  0010a	88 55 f7	 mov	 BYTE PTR __t$[ebp+15], dl
  0010d	84 c0		 test	 al, al
  0010f	74 07		 je	 SHORT $LN80@operator@3
  00111	34 ed		 xor	 al, -19			; ffffffedH
  00113	88 45 f8	 mov	 BYTE PTR __t$[ebp+16], al
  00116	eb 5b		 jmp	 SHORT $LN1@operator@3
$LN80@operator@3:
  00118	c6 45 f8 ed	 mov	 BYTE PTR __t$[ebp+16], -19 ; ffffffedH
  0011c	eb 55		 jmp	 SHORT $LN1@operator@3
$LN81@operator@3:
  0011e	c6 45 f7 ea	 mov	 BYTE PTR __t$[ebp+15], -22 ; ffffffeaH
  00122	eb 4f		 jmp	 SHORT $LN1@operator@3
$LN82@operator@3:
  00124	c6 45 f6 eb	 mov	 BYTE PTR __t$[ebp+14], -21 ; ffffffebH
  00128	eb 49		 jmp	 SHORT $LN1@operator@3
$LN83@operator@3:
  0012a	88 4d f5	 mov	 BYTE PTR __t$[ebp+13], cl
  0012d	eb 44		 jmp	 SHORT $LN1@operator@3
$LN85@operator@3:
  0012f	c6 45 f3 ea	 mov	 BYTE PTR __t$[ebp+11], -22 ; ffffffeaH
  00133	eb 3e		 jmp	 SHORT $LN1@operator@3
$LN86@operator@3:
  00135	c6 45 f2 eb	 mov	 BYTE PTR __t$[ebp+10], -21 ; ffffffebH
  00139	eb 38		 jmp	 SHORT $LN1@operator@3
$LN87@operator@3:
  0013b	88 4d f1	 mov	 BYTE PTR __t$[ebp+9], cl
  0013e	eb 33		 jmp	 SHORT $LN1@operator@3
$LN88@operator@3:
  00140	c6 45 f0 ed	 mov	 BYTE PTR __t$[ebp+8], -19 ; ffffffedH
  00144	eb 2d		 jmp	 SHORT $LN1@operator@3
$LN89@operator@3:
  00146	c6 45 ef ea	 mov	 BYTE PTR __t$[ebp+7], -22 ; ffffffeaH
  0014a	eb 27		 jmp	 SHORT $LN1@operator@3
$LN90@operator@3:
  0014c	c6 45 ee eb	 mov	 BYTE PTR __t$[ebp+6], -21 ; ffffffebH
  00150	eb 21		 jmp	 SHORT $LN1@operator@3
$LN91@operator@3:
  00152	88 4d ed	 mov	 BYTE PTR __t$[ebp+5], cl
  00155	eb 1c		 jmp	 SHORT $LN1@operator@3
$LN92@operator@3:
  00157	c6 45 ec ed	 mov	 BYTE PTR __t$[ebp+4], -19 ; ffffffedH
  0015b	eb 16		 jmp	 SHORT $LN1@operator@3
$LN93@operator@3:
  0015d	c6 45 eb ea	 mov	 BYTE PTR __t$[ebp+3], -22 ; ffffffeaH
  00161	eb 10		 jmp	 SHORT $LN1@operator@3
$LN94@operator@3:
  00163	c6 45 ea eb	 mov	 BYTE PTR __t$[ebp+2], -21 ; ffffffebH
  00167	eb 0a		 jmp	 SHORT $LN1@operator@3
$LN95@operator@3:
  00169	c6 45 e9 ec	 mov	 BYTE PTR __t$[ebp+1], -20 ; ffffffecH
  0016d	eb 04		 jmp	 SHORT $LN1@operator@3
$LN96@operator@3:
  0016f	c6 45 e8 ed	 mov	 BYTE PTR __t$[ebp], -19	; ffffffedH
$LN1@operator@3:
  00173	6a 03		 push	 3
  00175	8d 45 e8	 lea	 eax, DWORD PTR __t$[ebp]
  00178	c6 45 f4 00	 mov	 BYTE PTR __t$[ebp+12], 0
  0017c	5a		 pop	 edx
$LL104@operator@3:
  0017d	81 30 ed ec eb
	ea		 xor	 DWORD PTR [eax], -353637139 ; eaebecedH
  00183	83 c0 04	 add	 eax, 4
  00186	4a		 dec	 edx
  00187	75 f4		 jne	 SHORT $LL104@operator@3
  00189	8b cf		 mov	 ecx, edi
  0018b	8d 75 e8	 lea	 esi, DWORD PTR __t$[ebp]
  0018e	ff 15 00 00 00
	00		 call	 DWORD PTR __imp_?c_str@ioHashString@@QBEPBDXZ
$LL111@operator@3:
  00194	8a 08		 mov	 cl, BYTE PTR [eax]
  00196	3a 0e		 cmp	 cl, BYTE PTR [esi]
  00198	75 1a		 jne	 SHORT $LN112@operator@3
  0019a	84 c9		 test	 cl, cl
  0019c	74 12		 je	 SHORT $LN113@operator@3
  0019e	8a 48 01	 mov	 cl, BYTE PTR [eax+1]
  001a1	3a 4e 01	 cmp	 cl, BYTE PTR [esi+1]
  001a4	75 0e		 jne	 SHORT $LN112@operator@3
  001a6	83 c0 02	 add	 eax, 2
  001a9	83 c6 02	 add	 esi, 2
  001ac	84 c9		 test	 cl, cl
  001ae	75 e4		 jne	 SHORT $LL111@operator@3
$LN113@operator@3:
  001b0	33 c0		 xor	 eax, eax
  001b2	eb 05		 jmp	 SHORT $LN114@operator@3
$LN112@operator@3:
  001b4	1b c0		 sbb	 eax, eax
  001b6	83 d8 ff	 sbb	 eax, -1
$LN114@operator@3:
  001b9	33 c9		 xor	 ecx, ecx
  001bb	85 c0		 test	 eax, eax
  001bd	0f 94 c0	 sete	 al

; 148  : }

  001c0	8b 4d fc	 mov	 ecx, DWORD PTR __$ArrayPad$[ebp]
  001c3	5f		 pop	 edi
  001c4	33 cd		 xor	 ecx, ebp
  001c6	5e		 pop	 esi
  001c7	e8 00 00 00 00	 call	 @__security_check_cookie@4
  001cc	c9		 leave
  001cd	c3		 ret	 0
??$?8$0N@@@YA_NABVioHashString@@AAY0N@$$CBD@Z ENDP	; operator==<13>
_TEXT	ENDS
PUBLIC	__$ArrayPad$
PUBLIC	??$?8$0L@@@YA_NABVioHashString@@AAY0L@$$CBD@Z	; operator==<11>
; Function compile flags: /Ogsp
;	COMDAT ??$?8$0L@@@YA_NABVioHashString@@AAY0L@$$CBD@Z
_TEXT	SEGMENT
__t$ = -20						; size = 11
__$ArrayPad$ = -4					; size = 4
_lhs$ = 8						; size = 4
_t$ = 12						; size = 4
??$?8$0L@@@YA_NABVioHashString@@AAY0L@$$CBD@Z PROC	; operator==<11>, COMDAT

; 146  : {

  00000	55		 push	 ebp
  00001	8b ec		 mov	 ebp, esp
  00003	83 ec 14	 sub	 esp, 20			; 00000014H
  00006	a1 00 00 00 00	 mov	 eax, DWORD PTR ___security_cookie
  0000b	33 c5		 xor	 eax, ebp
  0000d	89 45 fc	 mov	 DWORD PTR __$ArrayPad$[ebp], eax
  00010	8b 45 0c	 mov	 eax, DWORD PTR _t$[ebp]

; 147  : 	_ENCSTR(t, _t); return ( strcmp( lhs.c_str(), _t ) == 0 );

  00013	8a 10		 mov	 dl, BYTE PTR [eax]
  00015	56		 push	 esi
  00016	57		 push	 edi
  00017	8b 7d 08	 mov	 edi, DWORD PTR _lhs$[ebp]
  0001a	84 d2		 test	 dl, dl
  0001c	0f 84 24 01 00
	00		 je	 $LN96@operator@4
  00022	80 f2 ed	 xor	 dl, -19			; ffffffedH
  00025	88 55 ec	 mov	 BYTE PTR __t$[ebp], dl
  00028	8a 50 01	 mov	 dl, BYTE PTR [eax+1]
  0002b	84 d2		 test	 dl, dl
  0002d	0f 84 0d 01 00
	00		 je	 $LN95@operator@4
  00033	80 f2 ec	 xor	 dl, -20			; ffffffecH
  00036	88 55 ed	 mov	 BYTE PTR __t$[ebp+1], dl
  00039	8a 50 02	 mov	 dl, BYTE PTR [eax+2]
  0003c	84 d2		 test	 dl, dl
  0003e	0f 84 f6 00 00
	00		 je	 $LN94@operator@4
  00044	80 f2 eb	 xor	 dl, -21			; ffffffebH
  00047	88 55 ee	 mov	 BYTE PTR __t$[ebp+2], dl
  0004a	8a 50 03	 mov	 dl, BYTE PTR [eax+3]
  0004d	84 d2		 test	 dl, dl
  0004f	0f 84 df 00 00
	00		 je	 $LN93@operator@4
  00055	80 f2 ea	 xor	 dl, -22			; ffffffeaH
  00058	88 55 ef	 mov	 BYTE PTR __t$[ebp+3], dl
  0005b	8a 50 04	 mov	 dl, BYTE PTR [eax+4]
  0005e	84 d2		 test	 dl, dl
  00060	0f 84 c8 00 00
	00		 je	 $LN92@operator@4
  00066	80 f2 ed	 xor	 dl, -19			; ffffffedH
  00069	88 55 f0	 mov	 BYTE PTR __t$[ebp+4], dl
  0006c	8a 50 05	 mov	 dl, BYTE PTR [eax+5]
  0006f	84 d2		 test	 dl, dl
  00071	0f 84 b1 00 00
	00		 je	 $LN91@operator@4
  00077	80 f2 ec	 xor	 dl, -20			; ffffffecH
  0007a	88 55 f1	 mov	 BYTE PTR __t$[ebp+5], dl
  0007d	8a 50 06	 mov	 dl, BYTE PTR [eax+6]
  00080	84 d2		 test	 dl, dl
  00082	0f 84 9a 00 00
	00		 je	 $LN90@operator@4
  00088	80 f2 eb	 xor	 dl, -21			; ffffffebH
  0008b	88 55 f2	 mov	 BYTE PTR __t$[ebp+6], dl
  0008e	8a 50 07	 mov	 dl, BYTE PTR [eax+7]
  00091	84 d2		 test	 dl, dl
  00093	0f 84 83 00 00
	00		 je	 $LN89@operator@4
  00099	80 f2 ea	 xor	 dl, -22			; ffffffeaH
  0009c	88 55 f3	 mov	 BYTE PTR __t$[ebp+7], dl
  0009f	8a 50 08	 mov	 dl, BYTE PTR [eax+8]
  000a2	84 d2		 test	 dl, dl
  000a4	74 70		 je	 SHORT $LN88@operator@4
  000a6	80 f2 ed	 xor	 dl, -19			; ffffffedH
  000a9	88 55 f4	 mov	 BYTE PTR __t$[ebp+8], dl
  000ac	8a 50 09	 mov	 dl, BYTE PTR [eax+9]
  000af	84 d2		 test	 dl, dl
  000b1	74 5d		 je	 SHORT $LN87@operator@4
  000b3	80 f2 ec	 xor	 dl, -20			; ffffffecH
  000b6	80 78 0a 00	 cmp	 BYTE PTR [eax+10], 0
  000ba	88 55 f5	 mov	 BYTE PTR __t$[ebp+9], dl
  000bd	0f 84 87 00 00
	00		 je	 $LN1@operator@4
  000c3	8a 50 0b	 mov	 dl, BYTE PTR [eax+11]
  000c6	84 d2		 test	 dl, dl
  000c8	74 40		 je	 SHORT $LN85@operator@4
  000ca	80 f2 ea	 xor	 dl, -22			; ffffffeaH
  000cd	88 55 f7	 mov	 BYTE PTR __t$[ebp+11], dl
  000d0	8a 50 0c	 mov	 dl, BYTE PTR [eax+12]
  000d3	84 d2		 test	 dl, dl
  000d5	74 2d		 je	 SHORT $LN84@operator@4
  000d7	80 f2 ed	 xor	 dl, -19			; ffffffedH
  000da	88 55 f8	 mov	 BYTE PTR __t$[ebp+12], dl
  000dd	8a 50 0d	 mov	 dl, BYTE PTR [eax+13]
  000e0	84 d2		 test	 dl, dl
  000e2	74 1a		 je	 SHORT $LN83@operator@4
  000e4	8a 40 0e	 mov	 al, BYTE PTR [eax+14]
  000e7	80 f2 ec	 xor	 dl, -20			; ffffffecH
  000ea	88 55 f9	 mov	 BYTE PTR __t$[ebp+13], dl
  000ed	84 c0		 test	 al, al
  000ef	74 07		 je	 SHORT $LN82@operator@4
  000f1	34 eb		 xor	 al, -21			; ffffffebH
  000f3	88 45 fa	 mov	 BYTE PTR __t$[ebp+14], al
  000f6	eb 52		 jmp	 SHORT $LN1@operator@4
$LN82@operator@4:
  000f8	c6 45 fa eb	 mov	 BYTE PTR __t$[ebp+14], -21 ; ffffffebH
  000fc	eb 4c		 jmp	 SHORT $LN1@operator@4
$LN83@operator@4:
  000fe	c6 45 f9 ec	 mov	 BYTE PTR __t$[ebp+13], -20 ; ffffffecH
  00102	eb 46		 jmp	 SHORT $LN1@operator@4
$LN84@operator@4:
  00104	c6 45 f8 ed	 mov	 BYTE PTR __t$[ebp+12], -19 ; ffffffedH
  00108	eb 40		 jmp	 SHORT $LN1@operator@4
$LN85@operator@4:
  0010a	c6 45 f7 ea	 mov	 BYTE PTR __t$[ebp+11], -22 ; ffffffeaH
  0010e	eb 3a		 jmp	 SHORT $LN1@operator@4
$LN87@operator@4:
  00110	c6 45 f5 ec	 mov	 BYTE PTR __t$[ebp+9], -20 ; ffffffecH
  00114	eb 34		 jmp	 SHORT $LN1@operator@4
$LN88@operator@4:
  00116	c6 45 f4 ed	 mov	 BYTE PTR __t$[ebp+8], -19 ; ffffffedH
  0011a	eb 2e		 jmp	 SHORT $LN1@operator@4
$LN89@operator@4:
  0011c	c6 45 f3 ea	 mov	 BYTE PTR __t$[ebp+7], -22 ; ffffffeaH
  00120	eb 28		 jmp	 SHORT $LN1@operator@4
$LN90@operator@4:
  00122	c6 45 f2 eb	 mov	 BYTE PTR __t$[ebp+6], -21 ; ffffffebH
  00126	eb 22		 jmp	 SHORT $LN1@operator@4
$LN91@operator@4:
  00128	c6 45 f1 ec	 mov	 BYTE PTR __t$[ebp+5], -20 ; ffffffecH
  0012c	eb 1c		 jmp	 SHORT $LN1@operator@4
$LN92@operator@4:
  0012e	c6 45 f0 ed	 mov	 BYTE PTR __t$[ebp+4], -19 ; ffffffedH
  00132	eb 16		 jmp	 SHORT $LN1@operator@4
$LN93@operator@4:
  00134	c6 45 ef ea	 mov	 BYTE PTR __t$[ebp+3], -22 ; ffffffeaH
  00138	eb 10		 jmp	 SHORT $LN1@operator@4
$LN94@operator@4:
  0013a	c6 45 ee eb	 mov	 BYTE PTR __t$[ebp+2], -21 ; ffffffebH
  0013e	eb 0a		 jmp	 SHORT $LN1@operator@4
$LN95@operator@4:
  00140	c6 45 ed ec	 mov	 BYTE PTR __t$[ebp+1], -20 ; ffffffecH
  00144	eb 04		 jmp	 SHORT $LN1@operator@4
$LN96@operator@4:
  00146	c6 45 ec ed	 mov	 BYTE PTR __t$[ebp], -19	; ffffffedH
$LN1@operator@4:
  0014a	6a 02		 push	 2
  0014c	8d 45 ec	 lea	 eax, DWORD PTR __t$[ebp]
  0014f	c6 45 f6 00	 mov	 BYTE PTR __t$[ebp+10], 0
  00153	5a		 pop	 edx
$LL104@operator@4:
  00154	81 30 ed ec eb
	ea		 xor	 DWORD PTR [eax], -353637139 ; eaebecedH
  0015a	83 c0 04	 add	 eax, 4
  0015d	4a		 dec	 edx
  0015e	75 f4		 jne	 SHORT $LL104@operator@4
  00160	6a 08		 push	 8
  00162	58		 pop	 eax
$LL101@operator@4:
  00163	8b c8		 mov	 ecx, eax
  00165	81 e1 03 00 00
	80		 and	 ecx, -2147483645	; 80000003H
  0016b	79 05		 jns	 SHORT $LN115@operator@4
  0016d	49		 dec	 ecx
  0016e	83 c9 fc	 or	 ecx, -4			; fffffffcH
  00171	41		 inc	 ecx
$LN115@operator@4:
  00172	b2 ed		 mov	 dl, -19			; ffffffedH
  00174	2a d1		 sub	 dl, cl
  00176	30 54 05 ec	 xor	 BYTE PTR __t$[ebp+eax], dl
  0017a	40		 inc	 eax
  0017b	83 f8 0a	 cmp	 eax, 10			; 0000000aH
  0017e	7c e3		 jl	 SHORT $LL101@operator@4
  00180	8b cf		 mov	 ecx, edi
  00182	8d 75 ec	 lea	 esi, DWORD PTR __t$[ebp]
  00185	ff 15 00 00 00
	00		 call	 DWORD PTR __imp_?c_str@ioHashString@@QBEPBDXZ
$LL111@operator@4:
  0018b	8a 08		 mov	 cl, BYTE PTR [eax]
  0018d	3a 0e		 cmp	 cl, BYTE PTR [esi]
  0018f	75 1a		 jne	 SHORT $LN112@operator@4
  00191	84 c9		 test	 cl, cl
  00193	74 12		 je	 SHORT $LN113@operator@4
  00195	8a 48 01	 mov	 cl, BYTE PTR [eax+1]
  00198	3a 4e 01	 cmp	 cl, BYTE PTR [esi+1]
  0019b	75 0e		 jne	 SHORT $LN112@operator@4
  0019d	83 c0 02	 add	 eax, 2
  001a0	83 c6 02	 add	 esi, 2
  001a3	84 c9		 test	 cl, cl
  001a5	75 e4		 jne	 SHORT $LL111@operator@4
$LN113@operator@4:
  001a7	33 c0		 xor	 eax, eax
  001a9	eb 05		 jmp	 SHORT $LN114@operator@4
$LN112@operator@4:
  001ab	1b c0		 sbb	 eax, eax
  001ad	83 d8 ff	 sbb	 eax, -1
$LN114@operator@4:
  001b0	33 c9		 xor	 ecx, ecx
  001b2	85 c0		 test	 eax, eax
  001b4	0f 94 c0	 sete	 al

; 148  : }

  001b7	8b 4d fc	 mov	 ecx, DWORD PTR __$ArrayPad$[ebp]
  001ba	5f		 pop	 edi
  001bb	33 cd		 xor	 ecx, ebp
  001bd	5e		 pop	 esi
  001be	e8 00 00 00 00	 call	 @__security_check_cookie@4
  001c3	c9		 leave
  001c4	c3		 ret	 0
??$?8$0L@@@YA_NABVioHashString@@AAY0L@$$CBD@Z ENDP	; operator==<11>
_TEXT	ENDS
PUBLIC	__$ArrayPad$
PUBLIC	??$?8$0O@@@YA_NABVioHashString@@AAY0O@$$CBD@Z	; operator==<14>
; Function compile flags: /Ogsp
;	COMDAT ??$?8$0O@@@YA_NABVioHashString@@AAY0O@$$CBD@Z
_TEXT	SEGMENT
__t$ = -24						; size = 14
__$ArrayPad$ = -4					; size = 4
_lhs$ = 8						; size = 4
_t$ = 12						; size = 4
??$?8$0O@@@YA_NABVioHashString@@AAY0O@$$CBD@Z PROC	; operator==<14>, COMDAT

; 146  : {

  00000	55		 push	 ebp
  00001	8b ec		 mov	 ebp, esp
  00003	83 ec 18	 sub	 esp, 24			; 00000018H
  00006	a1 00 00 00 00	 mov	 eax, DWORD PTR ___security_cookie
  0000b	33 c5		 xor	 eax, ebp
  0000d	89 45 fc	 mov	 DWORD PTR __$ArrayPad$[ebp], eax
  00010	8b 45 0c	 mov	 eax, DWORD PTR _t$[ebp]

; 147  : 	_ENCSTR(t, _t); return ( strcmp( lhs.c_str(), _t ) == 0 );

  00013	8a 10		 mov	 dl, BYTE PTR [eax]
  00015	56		 push	 esi
  00016	57		 push	 edi
  00017	8b 7d 08	 mov	 edi, DWORD PTR _lhs$[ebp]
  0001a	84 d2		 test	 dl, dl
  0001c	0f 84 64 01 00
	00		 je	 $LN96@operator@5
  00022	80 f2 ed	 xor	 dl, -19			; ffffffedH
  00025	88 55 e8	 mov	 BYTE PTR __t$[ebp], dl
  00028	8a 50 01	 mov	 dl, BYTE PTR [eax+1]
  0002b	84 d2		 test	 dl, dl
  0002d	0f 84 4d 01 00
	00		 je	 $LN95@operator@5
  00033	80 f2 ec	 xor	 dl, -20			; ffffffecH
  00036	88 55 e9	 mov	 BYTE PTR __t$[ebp+1], dl
  00039	8a 50 02	 mov	 dl, BYTE PTR [eax+2]
  0003c	84 d2		 test	 dl, dl
  0003e	0f 84 36 01 00
	00		 je	 $LN94@operator@5
  00044	b1 eb		 mov	 cl, -21			; ffffffebH
  00046	32 d1		 xor	 dl, cl
  00048	88 55 ea	 mov	 BYTE PTR __t$[ebp+2], dl
  0004b	8a 50 03	 mov	 dl, BYTE PTR [eax+3]
  0004e	84 d2		 test	 dl, dl
  00050	0f 84 1e 01 00
	00		 je	 $LN93@operator@5
  00056	80 f2 ea	 xor	 dl, -22			; ffffffeaH
  00059	88 55 eb	 mov	 BYTE PTR __t$[ebp+3], dl
  0005c	8a 50 04	 mov	 dl, BYTE PTR [eax+4]
  0005f	84 d2		 test	 dl, dl
  00061	0f 84 07 01 00
	00		 je	 $LN92@operator@5
  00067	80 f2 ed	 xor	 dl, -19			; ffffffedH
  0006a	88 55 ec	 mov	 BYTE PTR __t$[ebp+4], dl
  0006d	8a 50 05	 mov	 dl, BYTE PTR [eax+5]
  00070	84 d2		 test	 dl, dl
  00072	0f 84 f0 00 00
	00		 je	 $LN91@operator@5
  00078	80 f2 ec	 xor	 dl, -20			; ffffffecH
  0007b	88 55 ed	 mov	 BYTE PTR __t$[ebp+5], dl
  0007e	8a 50 06	 mov	 dl, BYTE PTR [eax+6]
  00081	84 d2		 test	 dl, dl
  00083	0f 84 da 00 00
	00		 je	 $LN90@operator@5
  00089	32 d1		 xor	 dl, cl
  0008b	88 55 ee	 mov	 BYTE PTR __t$[ebp+6], dl
  0008e	8a 50 07	 mov	 dl, BYTE PTR [eax+7]
  00091	84 d2		 test	 dl, dl
  00093	0f 84 c4 00 00
	00		 je	 $LN89@operator@5
  00099	80 f2 ea	 xor	 dl, -22			; ffffffeaH
  0009c	88 55 ef	 mov	 BYTE PTR __t$[ebp+7], dl
  0009f	8a 50 08	 mov	 dl, BYTE PTR [eax+8]
  000a2	84 d2		 test	 dl, dl
  000a4	0f 84 ad 00 00
	00		 je	 $LN88@operator@5
  000aa	80 f2 ed	 xor	 dl, -19			; ffffffedH
  000ad	88 55 f0	 mov	 BYTE PTR __t$[ebp+8], dl
  000b0	8a 50 09	 mov	 dl, BYTE PTR [eax+9]
  000b3	84 d2		 test	 dl, dl
  000b5	0f 84 96 00 00
	00		 je	 $LN87@operator@5
  000bb	80 f2 ec	 xor	 dl, -20			; ffffffecH
  000be	88 55 f1	 mov	 BYTE PTR __t$[ebp+9], dl
  000c1	8a 50 0a	 mov	 dl, BYTE PTR [eax+10]
  000c4	84 d2		 test	 dl, dl
  000c6	0f 84 80 00 00
	00		 je	 $LN86@operator@5
  000cc	32 d1		 xor	 dl, cl
  000ce	88 55 f2	 mov	 BYTE PTR __t$[ebp+10], dl
  000d1	8a 50 0b	 mov	 dl, BYTE PTR [eax+11]
  000d4	84 d2		 test	 dl, dl
  000d6	74 6e		 je	 SHORT $LN85@operator@5
  000d8	80 f2 ea	 xor	 dl, -22			; ffffffeaH
  000db	88 55 f3	 mov	 BYTE PTR __t$[ebp+11], dl
  000de	8a 50 0c	 mov	 dl, BYTE PTR [eax+12]
  000e1	84 d2		 test	 dl, dl
  000e3	74 5b		 je	 SHORT $LN84@operator@5
  000e5	80 f2 ed	 xor	 dl, -19			; ffffffedH
  000e8	80 78 0d 00	 cmp	 BYTE PTR [eax+13], 0
  000ec	88 55 f4	 mov	 BYTE PTR __t$[ebp+12], dl
  000ef	0f 84 95 00 00
	00		 je	 $LN1@operator@5
  000f5	8a 50 0e	 mov	 dl, BYTE PTR [eax+14]
  000f8	84 d2		 test	 dl, dl
  000fa	74 3f		 je	 SHORT $LN82@operator@5
  000fc	32 d1		 xor	 dl, cl
  000fe	88 55 f6	 mov	 BYTE PTR __t$[ebp+14], dl
  00101	8a 50 0f	 mov	 dl, BYTE PTR [eax+15]
  00104	84 d2		 test	 dl, dl
  00106	74 2d		 je	 SHORT $LN81@operator@5
  00108	80 f2 ea	 xor	 dl, -22			; ffffffeaH
  0010b	88 55 f7	 mov	 BYTE PTR __t$[ebp+15], dl
  0010e	8a 50 10	 mov	 dl, BYTE PTR [eax+16]
  00111	84 d2		 test	 dl, dl
  00113	74 1a		 je	 SHORT $LN80@operator@5
  00115	8a 40 11	 mov	 al, BYTE PTR [eax+17]
  00118	80 f2 ed	 xor	 dl, -19			; ffffffedH
  0011b	88 55 f8	 mov	 BYTE PTR __t$[ebp+16], dl
  0011e	84 c0		 test	 al, al
  00120	74 07		 je	 SHORT $LN79@operator@5
  00122	34 ec		 xor	 al, -20			; ffffffecH
  00124	88 45 f9	 mov	 BYTE PTR __t$[ebp+17], al
  00127	eb 61		 jmp	 SHORT $LN1@operator@5
$LN79@operator@5:
  00129	c6 45 f9 ec	 mov	 BYTE PTR __t$[ebp+17], -20 ; ffffffecH
  0012d	eb 5b		 jmp	 SHORT $LN1@operator@5
$LN80@operator@5:
  0012f	c6 45 f8 ed	 mov	 BYTE PTR __t$[ebp+16], -19 ; ffffffedH
  00133	eb 55		 jmp	 SHORT $LN1@operator@5
$LN81@operator@5:
  00135	c6 45 f7 ea	 mov	 BYTE PTR __t$[ebp+15], -22 ; ffffffeaH
  00139	eb 4f		 jmp	 SHORT $LN1@operator@5
$LN82@operator@5:
  0013b	88 4d f6	 mov	 BYTE PTR __t$[ebp+14], cl
  0013e	eb 4a		 jmp	 SHORT $LN1@operator@5
$LN84@operator@5:
  00140	c6 45 f4 ed	 mov	 BYTE PTR __t$[ebp+12], -19 ; ffffffedH
  00144	eb 44		 jmp	 SHORT $LN1@operator@5
$LN85@operator@5:
  00146	c6 45 f3 ea	 mov	 BYTE PTR __t$[ebp+11], -22 ; ffffffeaH
  0014a	eb 3e		 jmp	 SHORT $LN1@operator@5
$LN86@operator@5:
  0014c	88 4d f2	 mov	 BYTE PTR __t$[ebp+10], cl
  0014f	eb 39		 jmp	 SHORT $LN1@operator@5
$LN87@operator@5:
  00151	c6 45 f1 ec	 mov	 BYTE PTR __t$[ebp+9], -20 ; ffffffecH
  00155	eb 33		 jmp	 SHORT $LN1@operator@5
$LN88@operator@5:
  00157	c6 45 f0 ed	 mov	 BYTE PTR __t$[ebp+8], -19 ; ffffffedH
  0015b	eb 2d		 jmp	 SHORT $LN1@operator@5
$LN89@operator@5:
  0015d	c6 45 ef ea	 mov	 BYTE PTR __t$[ebp+7], -22 ; ffffffeaH
  00161	eb 27		 jmp	 SHORT $LN1@operator@5
$LN90@operator@5:
  00163	88 4d ee	 mov	 BYTE PTR __t$[ebp+6], cl
  00166	eb 22		 jmp	 SHORT $LN1@operator@5
$LN91@operator@5:
  00168	c6 45 ed ec	 mov	 BYTE PTR __t$[ebp+5], -20 ; ffffffecH
  0016c	eb 1c		 jmp	 SHORT $LN1@operator@5
$LN92@operator@5:
  0016e	c6 45 ec ed	 mov	 BYTE PTR __t$[ebp+4], -19 ; ffffffedH
  00172	eb 16		 jmp	 SHORT $LN1@operator@5
$LN93@operator@5:
  00174	c6 45 eb ea	 mov	 BYTE PTR __t$[ebp+3], -22 ; ffffffeaH
  00178	eb 10		 jmp	 SHORT $LN1@operator@5
$LN94@operator@5:
  0017a	c6 45 ea eb	 mov	 BYTE PTR __t$[ebp+2], -21 ; ffffffebH
  0017e	eb 0a		 jmp	 SHORT $LN1@operator@5
$LN95@operator@5:
  00180	c6 45 e9 ec	 mov	 BYTE PTR __t$[ebp+1], -20 ; ffffffecH
  00184	eb 04		 jmp	 SHORT $LN1@operator@5
$LN96@operator@5:
  00186	c6 45 e8 ed	 mov	 BYTE PTR __t$[ebp], -19	; ffffffedH
$LN1@operator@5:
  0018a	6a 03		 push	 3
  0018c	8d 45 e8	 lea	 eax, DWORD PTR __t$[ebp]
  0018f	c6 45 f5 00	 mov	 BYTE PTR __t$[ebp+13], 0
  00193	5a		 pop	 edx
$LL104@operator@5:
  00194	81 30 ed ec eb
	ea		 xor	 DWORD PTR [eax], -353637139 ; eaebecedH
  0019a	83 c0 04	 add	 eax, 4
  0019d	4a		 dec	 edx
  0019e	75 f4		 jne	 SHORT $LL104@operator@5
  001a0	80 75 f4 ed	 xor	 BYTE PTR __t$[ebp+12], -19 ; ffffffedH
  001a4	8b cf		 mov	 ecx, edi
  001a6	8d 75 e8	 lea	 esi, DWORD PTR __t$[ebp]
  001a9	ff 15 00 00 00
	00		 call	 DWORD PTR __imp_?c_str@ioHashString@@QBEPBDXZ
$LL111@operator@5:
  001af	8a 08		 mov	 cl, BYTE PTR [eax]
  001b1	3a 0e		 cmp	 cl, BYTE PTR [esi]
  001b3	75 1a		 jne	 SHORT $LN112@operator@5
  001b5	84 c9		 test	 cl, cl
  001b7	74 12		 je	 SHORT $LN113@operator@5
  001b9	8a 48 01	 mov	 cl, BYTE PTR [eax+1]
  001bc	3a 4e 01	 cmp	 cl, BYTE PTR [esi+1]
  001bf	75 0e		 jne	 SHORT $LN112@operator@5
  001c1	83 c0 02	 add	 eax, 2
  001c4	83 c6 02	 add	 esi, 2
  001c7	84 c9		 test	 cl, cl
  001c9	75 e4		 jne	 SHORT $LL111@operator@5
$LN113@operator@5:
  001cb	33 c0		 xor	 eax, eax
  001cd	eb 05		 jmp	 SHORT $LN114@operator@5
$LN112@operator@5:
  001cf	1b c0		 sbb	 eax, eax
  001d1	83 d8 ff	 sbb	 eax, -1
$LN114@operator@5:
  001d4	33 c9		 xor	 ecx, ecx
  001d6	85 c0		 test	 eax, eax
  001d8	0f 94 c0	 sete	 al

; 148  : }

  001db	8b 4d fc	 mov	 ecx, DWORD PTR __$ArrayPad$[ebp]
  001de	5f		 pop	 edi
  001df	33 cd		 xor	 ecx, ebp
  001e1	5e		 pop	 esi
  001e2	e8 00 00 00 00	 call	 @__security_check_cookie@4
  001e7	c9		 leave
  001e8	c3		 ret	 0
??$?8$0O@@@YA_NABVioHashString@@AAY0O@$$CBD@Z ENDP	; operator==<14>
_TEXT	ENDS
PUBLIC	__$ArrayPad$
PUBLIC	??$?8$07@@YA_NABVioHashString@@AAY07$$CBD@Z	; operator==<8>
; Function compile flags: /Ogsp
;	COMDAT ??$?8$07@@YA_NABVioHashString@@AAY07$$CBD@Z
_TEXT	SEGMENT
__t$ = -16						; size = 8
__$ArrayPad$ = -4					; size = 4
_lhs$ = 8						; size = 4
_t$ = 12						; size = 4
??$?8$07@@YA_NABVioHashString@@AAY07$$CBD@Z PROC	; operator==<8>, COMDAT

; 146  : {

  00000	55		 push	 ebp
  00001	8b ec		 mov	 ebp, esp
  00003	83 ec 10	 sub	 esp, 16			; 00000010H
  00006	a1 00 00 00 00	 mov	 eax, DWORD PTR ___security_cookie
  0000b	33 c5		 xor	 eax, ebp
  0000d	89 45 fc	 mov	 DWORD PTR __$ArrayPad$[ebp], eax
  00010	8b 45 0c	 mov	 eax, DWORD PTR _t$[ebp]

; 147  : 	_ENCSTR(t, _t); return ( strcmp( lhs.c_str(), _t ) == 0 );

  00013	8a 10		 mov	 dl, BYTE PTR [eax]
  00015	56		 push	 esi
  00016	57		 push	 edi
  00017	8b 7d 08	 mov	 edi, DWORD PTR _lhs$[ebp]
  0001a	84 d2		 test	 dl, dl
  0001c	0f 84 d7 00 00
	00		 je	 $LN96@operator@6
  00022	80 f2 ed	 xor	 dl, -19			; ffffffedH
  00025	88 55 f0	 mov	 BYTE PTR __t$[ebp], dl
  00028	8a 50 01	 mov	 dl, BYTE PTR [eax+1]
  0002b	84 d2		 test	 dl, dl
  0002d	0f 84 c0 00 00
	00		 je	 $LN95@operator@6
  00033	80 f2 ec	 xor	 dl, -20			; ffffffecH
  00036	88 55 f1	 mov	 BYTE PTR __t$[ebp+1], dl
  00039	8a 50 02	 mov	 dl, BYTE PTR [eax+2]
  0003c	84 d2		 test	 dl, dl
  0003e	0f 84 a9 00 00
	00		 je	 $LN94@operator@6
  00044	80 f2 eb	 xor	 dl, -21			; ffffffebH
  00047	88 55 f2	 mov	 BYTE PTR __t$[ebp+2], dl
  0004a	8a 50 03	 mov	 dl, BYTE PTR [eax+3]
  0004d	84 d2		 test	 dl, dl
  0004f	0f 84 92 00 00
	00		 je	 $LN93@operator@6
  00055	80 f2 ea	 xor	 dl, -22			; ffffffeaH
  00058	88 55 f3	 mov	 BYTE PTR __t$[ebp+3], dl
  0005b	8a 50 04	 mov	 dl, BYTE PTR [eax+4]
  0005e	84 d2		 test	 dl, dl
  00060	74 7f		 je	 SHORT $LN92@operator@6
  00062	80 f2 ed	 xor	 dl, -19			; ffffffedH
  00065	88 55 f4	 mov	 BYTE PTR __t$[ebp+4], dl
  00068	8a 50 05	 mov	 dl, BYTE PTR [eax+5]
  0006b	84 d2		 test	 dl, dl
  0006d	74 6c		 je	 SHORT $LN91@operator@6
  0006f	80 f2 ec	 xor	 dl, -20			; ffffffecH
  00072	88 55 f5	 mov	 BYTE PTR __t$[ebp+5], dl
  00075	8a 50 06	 mov	 dl, BYTE PTR [eax+6]
  00078	84 d2		 test	 dl, dl
  0007a	74 59		 je	 SHORT $LN90@operator@6
  0007c	80 f2 eb	 xor	 dl, -21			; ffffffebH
  0007f	80 78 07 00	 cmp	 BYTE PTR [eax+7], 0
  00083	88 55 f6	 mov	 BYTE PTR __t$[ebp+6], dl
  00086	74 75		 je	 SHORT $LN1@operator@6
  00088	8a 50 08	 mov	 dl, BYTE PTR [eax+8]
  0008b	84 d2		 test	 dl, dl
  0008d	74 40		 je	 SHORT $LN88@operator@6
  0008f	80 f2 ed	 xor	 dl, -19			; ffffffedH
  00092	88 55 f8	 mov	 BYTE PTR __t$[ebp+8], dl
  00095	8a 50 09	 mov	 dl, BYTE PTR [eax+9]
  00098	84 d2		 test	 dl, dl
  0009a	74 2d		 je	 SHORT $LN87@operator@6
  0009c	80 f2 ec	 xor	 dl, -20			; ffffffecH
  0009f	88 55 f9	 mov	 BYTE PTR __t$[ebp+9], dl
  000a2	8a 50 0a	 mov	 dl, BYTE PTR [eax+10]
  000a5	84 d2		 test	 dl, dl
  000a7	74 1a		 je	 SHORT $LN86@operator@6
  000a9	8a 40 0b	 mov	 al, BYTE PTR [eax+11]
  000ac	80 f2 eb	 xor	 dl, -21			; ffffffebH
  000af	88 55 fa	 mov	 BYTE PTR __t$[ebp+10], dl
  000b2	84 c0		 test	 al, al
  000b4	74 07		 je	 SHORT $LN85@operator@6
  000b6	34 ea		 xor	 al, -22			; ffffffeaH
  000b8	88 45 fb	 mov	 BYTE PTR __t$[ebp+11], al
  000bb	eb 40		 jmp	 SHORT $LN1@operator@6
$LN85@operator@6:
  000bd	c6 45 fb ea	 mov	 BYTE PTR __t$[ebp+11], -22 ; ffffffeaH
  000c1	eb 3a		 jmp	 SHORT $LN1@operator@6
$LN86@operator@6:
  000c3	c6 45 fa eb	 mov	 BYTE PTR __t$[ebp+10], -21 ; ffffffebH
  000c7	eb 34		 jmp	 SHORT $LN1@operator@6
$LN87@operator@6:
  000c9	c6 45 f9 ec	 mov	 BYTE PTR __t$[ebp+9], -20 ; ffffffecH
  000cd	eb 2e		 jmp	 SHORT $LN1@operator@6
$LN88@operator@6:
  000cf	c6 45 f8 ed	 mov	 BYTE PTR __t$[ebp+8], -19 ; ffffffedH
  000d3	eb 28		 jmp	 SHORT $LN1@operator@6
$LN90@operator@6:
  000d5	c6 45 f6 eb	 mov	 BYTE PTR __t$[ebp+6], -21 ; ffffffebH
  000d9	eb 22		 jmp	 SHORT $LN1@operator@6
$LN91@operator@6:
  000db	c6 45 f5 ec	 mov	 BYTE PTR __t$[ebp+5], -20 ; ffffffecH
  000df	eb 1c		 jmp	 SHORT $LN1@operator@6
$LN92@operator@6:
  000e1	c6 45 f4 ed	 mov	 BYTE PTR __t$[ebp+4], -19 ; ffffffedH
  000e5	eb 16		 jmp	 SHORT $LN1@operator@6
$LN93@operator@6:
  000e7	c6 45 f3 ea	 mov	 BYTE PTR __t$[ebp+3], -22 ; ffffffeaH
  000eb	eb 10		 jmp	 SHORT $LN1@operator@6
$LN94@operator@6:
  000ed	c6 45 f2 eb	 mov	 BYTE PTR __t$[ebp+2], -21 ; ffffffebH
  000f1	eb 0a		 jmp	 SHORT $LN1@operator@6
$LN95@operator@6:
  000f3	c6 45 f1 ec	 mov	 BYTE PTR __t$[ebp+1], -20 ; ffffffecH
  000f7	eb 04		 jmp	 SHORT $LN1@operator@6
$LN96@operator@6:
  000f9	c6 45 f0 ed	 mov	 BYTE PTR __t$[ebp], -19	; ffffffedH
$LN1@operator@6:
  000fd	81 75 f0 ed ec
	eb ea		 xor	 DWORD PTR __t$[ebp], -353637139 ; eaebecedH
  00104	6a 04		 push	 4
  00106	c6 45 f7 00	 mov	 BYTE PTR __t$[ebp+7], 0
  0010a	58		 pop	 eax
$LL101@operator@6:
  0010b	8b c8		 mov	 ecx, eax
  0010d	81 e1 03 00 00
	80		 and	 ecx, -2147483645	; 80000003H
  00113	79 05		 jns	 SHORT $LN115@operator@6
  00115	49		 dec	 ecx
  00116	83 c9 fc	 or	 ecx, -4			; fffffffcH
  00119	41		 inc	 ecx
$LN115@operator@6:
  0011a	b2 ed		 mov	 dl, -19			; ffffffedH
  0011c	2a d1		 sub	 dl, cl
  0011e	30 54 05 f0	 xor	 BYTE PTR __t$[ebp+eax], dl
  00122	40		 inc	 eax
  00123	83 f8 07	 cmp	 eax, 7
  00126	7c e3		 jl	 SHORT $LL101@operator@6
  00128	8b cf		 mov	 ecx, edi
  0012a	8d 75 f0	 lea	 esi, DWORD PTR __t$[ebp]
  0012d	ff 15 00 00 00
	00		 call	 DWORD PTR __imp_?c_str@ioHashString@@QBEPBDXZ
$LL111@operator@6:
  00133	8a 08		 mov	 cl, BYTE PTR [eax]
  00135	3a 0e		 cmp	 cl, BYTE PTR [esi]
  00137	75 1a		 jne	 SHORT $LN112@operator@6
  00139	84 c9		 test	 cl, cl
  0013b	74 12		 je	 SHORT $LN113@operator@6
  0013d	8a 48 01	 mov	 cl, BYTE PTR [eax+1]
  00140	3a 4e 01	 cmp	 cl, BYTE PTR [esi+1]
  00143	75 0e		 jne	 SHORT $LN112@operator@6
  00145	83 c0 02	 add	 eax, 2
  00148	83 c6 02	 add	 esi, 2
  0014b	84 c9		 test	 cl, cl
  0014d	75 e4		 jne	 SHORT $LL111@operator@6
$LN113@operator@6:
  0014f	33 c0		 xor	 eax, eax
  00151	eb 05		 jmp	 SHORT $LN114@operator@6
$LN112@operator@6:
  00153	1b c0		 sbb	 eax, eax
  00155	83 d8 ff	 sbb	 eax, -1
$LN114@operator@6:
  00158	33 c9		 xor	 ecx, ecx
  0015a	85 c0		 test	 eax, eax
  0015c	0f 94 c0	 sete	 al

; 148  : }

  0015f	8b 4d fc	 mov	 ecx, DWORD PTR __$ArrayPad$[ebp]
  00162	5f		 pop	 edi
  00163	33 cd		 xor	 ecx, ebp
  00165	5e		 pop	 esi
  00166	e8 00 00 00 00	 call	 @__security_check_cookie@4
  0016b	c9		 leave
  0016c	c3		 ret	 0
??$?8$07@@YA_NABVioHashString@@AAY07$$CBD@Z ENDP	; operator==<8>
_TEXT	ENDS
PUBLIC	__$ArrayPad$
PUBLIC	??$?8$0P@@@YA_NABVioHashString@@AAY0P@$$CBD@Z	; operator==<15>
; Function compile flags: /Ogsp
;	COMDAT ??$?8$0P@@@YA_NABVioHashString@@AAY0P@$$CBD@Z
_TEXT	SEGMENT
__t$ = -24						; size = 15
__$ArrayPad$ = -4					; size = 4
_lhs$ = 8						; size = 4
_t$ = 12						; size = 4
??$?8$0P@@@YA_NABVioHashString@@AAY0P@$$CBD@Z PROC	; operator==<15>, COMDAT

; 146  : {

  00000	55		 push	 ebp
  00001	8b ec		 mov	 ebp, esp
  00003	83 ec 18	 sub	 esp, 24			; 00000018H
  00006	a1 00 00 00 00	 mov	 eax, DWORD PTR ___security_cookie
  0000b	33 c5		 xor	 eax, ebp
  0000d	89 45 fc	 mov	 DWORD PTR __$ArrayPad$[ebp], eax
  00010	8b 45 0c	 mov	 eax, DWORD PTR _t$[ebp]

; 147  : 	_ENCSTR(t, _t); return ( strcmp( lhs.c_str(), _t ) == 0 );

  00013	8a 10		 mov	 dl, BYTE PTR [eax]
  00015	56		 push	 esi
  00016	57		 push	 edi
  00017	8b 7d 08	 mov	 edi, DWORD PTR _lhs$[ebp]
  0001a	84 d2		 test	 dl, dl
  0001c	0f 84 75 01 00
	00		 je	 $LN96@operator@7
  00022	80 f2 ed	 xor	 dl, -19			; ffffffedH
  00025	88 55 e8	 mov	 BYTE PTR __t$[ebp], dl
  00028	8a 50 01	 mov	 dl, BYTE PTR [eax+1]
  0002b	84 d2		 test	 dl, dl
  0002d	0f 84 5e 01 00
	00		 je	 $LN95@operator@7
  00033	b1 ec		 mov	 cl, -20			; ffffffecH
  00035	32 d1		 xor	 dl, cl
  00037	88 55 e9	 mov	 BYTE PTR __t$[ebp+1], dl
  0003a	8a 50 02	 mov	 dl, BYTE PTR [eax+2]
  0003d	84 d2		 test	 dl, dl
  0003f	0f 84 46 01 00
	00		 je	 $LN94@operator@7
  00045	80 f2 eb	 xor	 dl, -21			; ffffffebH
  00048	88 55 ea	 mov	 BYTE PTR __t$[ebp+2], dl
  0004b	8a 50 03	 mov	 dl, BYTE PTR [eax+3]
  0004e	84 d2		 test	 dl, dl
  00050	0f 84 2f 01 00
	00		 je	 $LN93@operator@7
  00056	80 f2 ea	 xor	 dl, -22			; ffffffeaH
  00059	88 55 eb	 mov	 BYTE PTR __t$[ebp+3], dl
  0005c	8a 50 04	 mov	 dl, BYTE PTR [eax+4]
  0005f	84 d2		 test	 dl, dl
  00061	0f 84 18 01 00
	00		 je	 $LN92@operator@7
  00067	80 f2 ed	 xor	 dl, -19			; ffffffedH
  0006a	88 55 ec	 mov	 BYTE PTR __t$[ebp+4], dl
  0006d	8a 50 05	 mov	 dl, BYTE PTR [eax+5]
  00070	84 d2		 test	 dl, dl
  00072	0f 84 02 01 00
	00		 je	 $LN91@operator@7
  00078	32 d1		 xor	 dl, cl
  0007a	88 55 ed	 mov	 BYTE PTR __t$[ebp+5], dl
  0007d	8a 50 06	 mov	 dl, BYTE PTR [eax+6]
  00080	84 d2		 test	 dl, dl
  00082	0f 84 ec 00 00
	00		 je	 $LN90@operator@7
  00088	80 f2 eb	 xor	 dl, -21			; ffffffebH
  0008b	88 55 ee	 mov	 BYTE PTR __t$[ebp+6], dl
  0008e	8a 50 07	 mov	 dl, BYTE PTR [eax+7]
  00091	84 d2		 test	 dl, dl
  00093	0f 84 d5 00 00
	00		 je	 $LN89@operator@7
  00099	80 f2 ea	 xor	 dl, -22			; ffffffeaH
  0009c	88 55 ef	 mov	 BYTE PTR __t$[ebp+7], dl
  0009f	8a 50 08	 mov	 dl, BYTE PTR [eax+8]
  000a2	84 d2		 test	 dl, dl
  000a4	0f 84 be 00 00
	00		 je	 $LN88@operator@7
  000aa	80 f2 ed	 xor	 dl, -19			; ffffffedH
  000ad	88 55 f0	 mov	 BYTE PTR __t$[ebp+8], dl
  000b0	8a 50 09	 mov	 dl, BYTE PTR [eax+9]
  000b3	84 d2		 test	 dl, dl
  000b5	0f 84 a8 00 00
	00		 je	 $LN87@operator@7
  000bb	32 d1		 xor	 dl, cl
  000bd	88 55 f1	 mov	 BYTE PTR __t$[ebp+9], dl
  000c0	8a 50 0a	 mov	 dl, BYTE PTR [eax+10]
  000c3	84 d2		 test	 dl, dl
  000c5	0f 84 92 00 00
	00		 je	 $LN86@operator@7
  000cb	80 f2 eb	 xor	 dl, -21			; ffffffebH
  000ce	88 55 f2	 mov	 BYTE PTR __t$[ebp+10], dl
  000d1	8a 50 0b	 mov	 dl, BYTE PTR [eax+11]
  000d4	84 d2		 test	 dl, dl
  000d6	74 7f		 je	 SHORT $LN85@operator@7
  000d8	80 f2 ea	 xor	 dl, -22			; ffffffeaH
  000db	88 55 f3	 mov	 BYTE PTR __t$[ebp+11], dl
  000de	8a 50 0c	 mov	 dl, BYTE PTR [eax+12]
  000e1	84 d2		 test	 dl, dl
  000e3	74 6c		 je	 SHORT $LN84@operator@7
  000e5	80 f2 ed	 xor	 dl, -19			; ffffffedH
  000e8	88 55 f4	 mov	 BYTE PTR __t$[ebp+12], dl
  000eb	8a 50 0d	 mov	 dl, BYTE PTR [eax+13]
  000ee	84 d2		 test	 dl, dl
  000f0	74 5a		 je	 SHORT $LN83@operator@7
  000f2	32 d1		 xor	 dl, cl
  000f4	80 78 0e 00	 cmp	 BYTE PTR [eax+14], 0
  000f8	88 55 f5	 mov	 BYTE PTR __t$[ebp+13], dl
  000fb	0f 84 9a 00 00
	00		 je	 $LN1@operator@7
  00101	8a 50 0f	 mov	 dl, BYTE PTR [eax+15]
  00104	84 d2		 test	 dl, dl
  00106	74 3e		 je	 SHORT $LN81@operator@7
  00108	80 f2 ea	 xor	 dl, -22			; ffffffeaH
  0010b	88 55 f7	 mov	 BYTE PTR __t$[ebp+15], dl
  0010e	8a 50 10	 mov	 dl, BYTE PTR [eax+16]
  00111	84 d2		 test	 dl, dl
  00113	74 2b		 je	 SHORT $LN80@operator@7
  00115	80 f2 ed	 xor	 dl, -19			; ffffffedH
  00118	88 55 f8	 mov	 BYTE PTR __t$[ebp+16], dl
  0011b	8a 50 11	 mov	 dl, BYTE PTR [eax+17]
  0011e	84 d2		 test	 dl, dl
  00120	74 19		 je	 SHORT $LN79@operator@7
  00122	8a 40 12	 mov	 al, BYTE PTR [eax+18]
  00125	32 d1		 xor	 dl, cl
  00127	88 55 f9	 mov	 BYTE PTR __t$[ebp+17], dl
  0012a	84 c0		 test	 al, al
  0012c	74 07		 je	 SHORT $LN78@operator@7
  0012e	34 eb		 xor	 al, -21			; ffffffebH
  00130	88 45 fa	 mov	 BYTE PTR __t$[ebp+18], al
  00133	eb 66		 jmp	 SHORT $LN1@operator@7
$LN78@operator@7:
  00135	c6 45 fa eb	 mov	 BYTE PTR __t$[ebp+18], -21 ; ffffffebH
  00139	eb 60		 jmp	 SHORT $LN1@operator@7
$LN79@operator@7:
  0013b	88 4d f9	 mov	 BYTE PTR __t$[ebp+17], cl
  0013e	eb 5b		 jmp	 SHORT $LN1@operator@7
$LN80@operator@7:
  00140	c6 45 f8 ed	 mov	 BYTE PTR __t$[ebp+16], -19 ; ffffffedH
  00144	eb 55		 jmp	 SHORT $LN1@operator@7
$LN81@operator@7:
  00146	c6 45 f7 ea	 mov	 BYTE PTR __t$[ebp+15], -22 ; ffffffeaH
  0014a	eb 4f		 jmp	 SHORT $LN1@operator@7
$LN83@operator@7:
  0014c	88 4d f5	 mov	 BYTE PTR __t$[ebp+13], cl
  0014f	eb 4a		 jmp	 SHORT $LN1@operator@7
$LN84@operator@7:
  00151	c6 45 f4 ed	 mov	 BYTE PTR __t$[ebp+12], -19 ; ffffffedH
  00155	eb 44		 jmp	 SHORT $LN1@operator@7
$LN85@operator@7:
  00157	c6 45 f3 ea	 mov	 BYTE PTR __t$[ebp+11], -22 ; ffffffeaH
  0015b	eb 3e		 jmp	 SHORT $LN1@operator@7
$LN86@operator@7:
  0015d	c6 45 f2 eb	 mov	 BYTE PTR __t$[ebp+10], -21 ; ffffffebH
  00161	eb 38		 jmp	 SHORT $LN1@operator@7
$LN87@operator@7:
  00163	88 4d f1	 mov	 BYTE PTR __t$[ebp+9], cl
  00166	eb 33		 jmp	 SHORT $LN1@operator@7
$LN88@operator@7:
  00168	c6 45 f0 ed	 mov	 BYTE PTR __t$[ebp+8], -19 ; ffffffedH
  0016c	eb 2d		 jmp	 SHORT $LN1@operator@7
$LN89@operator@7:
  0016e	c6 45 ef ea	 mov	 BYTE PTR __t$[ebp+7], -22 ; ffffffeaH
  00172	eb 27		 jmp	 SHORT $LN1@operator@7
$LN90@operator@7:
  00174	c6 45 ee eb	 mov	 BYTE PTR __t$[ebp+6], -21 ; ffffffebH
  00178	eb 21		 jmp	 SHORT $LN1@operator@7
$LN91@operator@7:
  0017a	88 4d ed	 mov	 BYTE PTR __t$[ebp+5], cl
  0017d	eb 1c		 jmp	 SHORT $LN1@operator@7
$LN92@operator@7:
  0017f	c6 45 ec ed	 mov	 BYTE PTR __t$[ebp+4], -19 ; ffffffedH
  00183	eb 16		 jmp	 SHORT $LN1@operator@7
$LN93@operator@7:
  00185	c6 45 eb ea	 mov	 BYTE PTR __t$[ebp+3], -22 ; ffffffeaH
  00189	eb 10		 jmp	 SHORT $LN1@operator@7
$LN94@operator@7:
  0018b	c6 45 ea eb	 mov	 BYTE PTR __t$[ebp+2], -21 ; ffffffebH
  0018f	eb 0a		 jmp	 SHORT $LN1@operator@7
$LN95@operator@7:
  00191	c6 45 e9 ec	 mov	 BYTE PTR __t$[ebp+1], -20 ; ffffffecH
  00195	eb 04		 jmp	 SHORT $LN1@operator@7
$LN96@operator@7:
  00197	c6 45 e8 ed	 mov	 BYTE PTR __t$[ebp], -19	; ffffffedH
$LN1@operator@7:
  0019b	6a 03		 push	 3
  0019d	8d 45 e8	 lea	 eax, DWORD PTR __t$[ebp]
  001a0	c6 45 f6 00	 mov	 BYTE PTR __t$[ebp+14], 0
  001a4	5a		 pop	 edx
$LL104@operator@7:
  001a5	81 30 ed ec eb
	ea		 xor	 DWORD PTR [eax], -353637139 ; eaebecedH
  001ab	83 c0 04	 add	 eax, 4
  001ae	4a		 dec	 edx
  001af	75 f4		 jne	 SHORT $LL104@operator@7
  001b1	6a 0c		 push	 12			; 0000000cH
  001b3	58		 pop	 eax
$LL101@operator@7:
  001b4	8b c8		 mov	 ecx, eax
  001b6	81 e1 03 00 00
	80		 and	 ecx, -2147483645	; 80000003H
  001bc	79 05		 jns	 SHORT $LN115@operator@7
  001be	49		 dec	 ecx
  001bf	83 c9 fc	 or	 ecx, -4			; fffffffcH
  001c2	41		 inc	 ecx
$LN115@operator@7:
  001c3	b2 ed		 mov	 dl, -19			; ffffffedH
  001c5	2a d1		 sub	 dl, cl
  001c7	30 54 05 e8	 xor	 BYTE PTR __t$[ebp+eax], dl
  001cb	40		 inc	 eax
  001cc	83 f8 0e	 cmp	 eax, 14			; 0000000eH
  001cf	7c e3		 jl	 SHORT $LL101@operator@7
  001d1	8b cf		 mov	 ecx, edi
  001d3	8d 75 e8	 lea	 esi, DWORD PTR __t$[ebp]
  001d6	ff 15 00 00 00
	00		 call	 DWORD PTR __imp_?c_str@ioHashString@@QBEPBDXZ
$LL111@operator@7:
  001dc	8a 08		 mov	 cl, BYTE PTR [eax]
  001de	3a 0e		 cmp	 cl, BYTE PTR [esi]
  001e0	75 1a		 jne	 SHORT $LN112@operator@7
  001e2	84 c9		 test	 cl, cl
  001e4	74 12		 je	 SHORT $LN113@operator@7
  001e6	8a 48 01	 mov	 cl, BYTE PTR [eax+1]
  001e9	3a 4e 01	 cmp	 cl, BYTE PTR [esi+1]
  001ec	75 0e		 jne	 SHORT $LN112@operator@7
  001ee	83 c0 02	 add	 eax, 2
  001f1	83 c6 02	 add	 esi, 2
  001f4	84 c9		 test	 cl, cl
  001f6	75 e4		 jne	 SHORT $LL111@operator@7
$LN113@operator@7:
  001f8	33 c0		 xor	 eax, eax
  001fa	eb 05		 jmp	 SHORT $LN114@operator@7
$LN112@operator@7:
  001fc	1b c0		 sbb	 eax, eax
  001fe	83 d8 ff	 sbb	 eax, -1
$LN114@operator@7:
  00201	33 c9		 xor	 ecx, ecx
  00203	85 c0		 test	 eax, eax
  00205	0f 94 c0	 sete	 al

; 148  : }

  00208	8b 4d fc	 mov	 ecx, DWORD PTR __$ArrayPad$[ebp]
  0020b	5f		 pop	 edi
  0020c	33 cd		 xor	 ecx, ebp
  0020e	5e		 pop	 esi
  0020f	e8 00 00 00 00	 call	 @__security_check_cookie@4
  00214	c9		 leave
  00215	c3		 ret	 0
??$?8$0P@@@YA_NABVioHashString@@AAY0P@$$CBD@Z ENDP	; operator==<15>
_TEXT	ENDS
PUBLIC	__$ArrayPad$
PUBLIC	??$GetIntAttribute_e@$0M@@ioXMLElement@@QBEHAAY0M@$$CBD@Z ; ioXMLElement::GetIntAttribute_e<12>
EXTRN	__imp_?GetIntAttribute@ioXMLElement@@QBEHPBD@Z:PROC
; Function compile flags: /Ogsp
; File d:\lost saga for developer\youtube\tutorial\source\src\io3dengine\ioxmlelement.h
;	COMDAT ??$GetIntAttribute_e@$0M@@ioXMLElement@@QBEHAAY0M@$$CBD@Z
_TEXT	SEGMENT
__k$ = -20						; size = 12
__$ArrayPad$ = -4					; size = 4
_k$ = 8							; size = 4
??$GetIntAttribute_e@$0M@@ioXMLElement@@QBEHAAY0M@$$CBD@Z PROC ; ioXMLElement::GetIntAttribute_e<12>, COMDAT
; _this$ = ecx

; 86   : 	{

  00000	55		 push	 ebp
  00001	8b ec		 mov	 ebp, esp
  00003	83 ec 14	 sub	 esp, 20			; 00000014H
  00006	a1 00 00 00 00	 mov	 eax, DWORD PTR ___security_cookie
  0000b	33 c5		 xor	 eax, ebp
  0000d	89 45 fc	 mov	 DWORD PTR __$ArrayPad$[ebp], eax
  00010	8b 45 08	 mov	 eax, DWORD PTR _k$[ebp]

; 87   : 		_ENCSTR(k, _k);

  00013	8a 10		 mov	 dl, BYTE PTR [eax]
  00015	56		 push	 esi
  00016	8b f1		 mov	 esi, ecx
  00018	84 d2		 test	 dl, dl
  0001a	0f 84 32 01 00
	00		 je	 $LN96@GetIntAttr
  00020	80 f2 ed	 xor	 dl, -19			; ffffffedH
  00023	88 55 ec	 mov	 BYTE PTR __k$[ebp], dl
  00026	8a 50 01	 mov	 dl, BYTE PTR [eax+1]
  00029	84 d2		 test	 dl, dl
  0002b	0f 84 1b 01 00
	00		 je	 $LN95@GetIntAttr
  00031	80 f2 ec	 xor	 dl, -20			; ffffffecH
  00034	88 55 ed	 mov	 BYTE PTR __k$[ebp+1], dl
  00037	8a 50 02	 mov	 dl, BYTE PTR [eax+2]
  0003a	84 d2		 test	 dl, dl
  0003c	0f 84 04 01 00
	00		 je	 $LN94@GetIntAttr
  00042	b1 eb		 mov	 cl, -21			; ffffffebH
  00044	32 d1		 xor	 dl, cl
  00046	88 55 ee	 mov	 BYTE PTR __k$[ebp+2], dl
  00049	8a 50 03	 mov	 dl, BYTE PTR [eax+3]
  0004c	84 d2		 test	 dl, dl
  0004e	0f 84 ec 00 00
	00		 je	 $LN93@GetIntAttr
  00054	80 f2 ea	 xor	 dl, -22			; ffffffeaH
  00057	88 55 ef	 mov	 BYTE PTR __k$[ebp+3], dl
  0005a	8a 50 04	 mov	 dl, BYTE PTR [eax+4]
  0005d	84 d2		 test	 dl, dl
  0005f	0f 84 d5 00 00
	00		 je	 $LN92@GetIntAttr
  00065	80 f2 ed	 xor	 dl, -19			; ffffffedH
  00068	88 55 f0	 mov	 BYTE PTR __k$[ebp+4], dl
  0006b	8a 50 05	 mov	 dl, BYTE PTR [eax+5]
  0006e	84 d2		 test	 dl, dl
  00070	0f 84 be 00 00
	00		 je	 $LN91@GetIntAttr
  00076	80 f2 ec	 xor	 dl, -20			; ffffffecH
  00079	88 55 f1	 mov	 BYTE PTR __k$[ebp+5], dl
  0007c	8a 50 06	 mov	 dl, BYTE PTR [eax+6]
  0007f	84 d2		 test	 dl, dl
  00081	0f 84 a8 00 00
	00		 je	 $LN90@GetIntAttr
  00087	32 d1		 xor	 dl, cl
  00089	88 55 f2	 mov	 BYTE PTR __k$[ebp+6], dl
  0008c	8a 50 07	 mov	 dl, BYTE PTR [eax+7]
  0008f	84 d2		 test	 dl, dl
  00091	0f 84 92 00 00
	00		 je	 $LN89@GetIntAttr
  00097	80 f2 ea	 xor	 dl, -22			; ffffffeaH
  0009a	88 55 f3	 mov	 BYTE PTR __k$[ebp+7], dl
  0009d	8a 50 08	 mov	 dl, BYTE PTR [eax+8]
  000a0	84 d2		 test	 dl, dl
  000a2	74 7f		 je	 SHORT $LN88@GetIntAttr
  000a4	80 f2 ed	 xor	 dl, -19			; ffffffedH
  000a7	88 55 f4	 mov	 BYTE PTR __k$[ebp+8], dl
  000aa	8a 50 09	 mov	 dl, BYTE PTR [eax+9]
  000ad	84 d2		 test	 dl, dl
  000af	74 6c		 je	 SHORT $LN87@GetIntAttr
  000b1	80 f2 ec	 xor	 dl, -20			; ffffffecH
  000b4	88 55 f5	 mov	 BYTE PTR __k$[ebp+9], dl
  000b7	8a 50 0a	 mov	 dl, BYTE PTR [eax+10]
  000ba	84 d2		 test	 dl, dl
  000bc	74 5a		 je	 SHORT $LN86@GetIntAttr
  000be	32 d1		 xor	 dl, cl
  000c0	80 78 0b 00	 cmp	 BYTE PTR [eax+11], 0
  000c4	88 55 f6	 mov	 BYTE PTR __k$[ebp+10], dl
  000c7	0f 84 89 00 00
	00		 je	 $LN1@GetIntAttr
  000cd	8a 50 0c	 mov	 dl, BYTE PTR [eax+12]
  000d0	84 d2		 test	 dl, dl
  000d2	74 3e		 je	 SHORT $LN84@GetIntAttr
  000d4	80 f2 ed	 xor	 dl, -19			; ffffffedH
  000d7	88 55 f8	 mov	 BYTE PTR __k$[ebp+12], dl
  000da	8a 50 0d	 mov	 dl, BYTE PTR [eax+13]
  000dd	84 d2		 test	 dl, dl
  000df	74 2b		 je	 SHORT $LN83@GetIntAttr
  000e1	80 f2 ec	 xor	 dl, -20			; ffffffecH
  000e4	88 55 f9	 mov	 BYTE PTR __k$[ebp+13], dl
  000e7	8a 50 0e	 mov	 dl, BYTE PTR [eax+14]
  000ea	84 d2		 test	 dl, dl
  000ec	74 19		 je	 SHORT $LN82@GetIntAttr
  000ee	8a 40 0f	 mov	 al, BYTE PTR [eax+15]
  000f1	32 d1		 xor	 dl, cl
  000f3	88 55 fa	 mov	 BYTE PTR __k$[ebp+14], dl
  000f6	84 c0		 test	 al, al
  000f8	74 07		 je	 SHORT $LN81@GetIntAttr
  000fa	34 ea		 xor	 al, -22			; ffffffeaH
  000fc	88 45 fb	 mov	 BYTE PTR __k$[ebp+15], al
  000ff	eb 55		 jmp	 SHORT $LN1@GetIntAttr
$LN81@GetIntAttr:
  00101	c6 45 fb ea	 mov	 BYTE PTR __k$[ebp+15], -22 ; ffffffeaH
  00105	eb 4f		 jmp	 SHORT $LN1@GetIntAttr
$LN82@GetIntAttr:
  00107	88 4d fa	 mov	 BYTE PTR __k$[ebp+14], cl
  0010a	eb 4a		 jmp	 SHORT $LN1@GetIntAttr
$LN83@GetIntAttr:
  0010c	c6 45 f9 ec	 mov	 BYTE PTR __k$[ebp+13], -20 ; ffffffecH
  00110	eb 44		 jmp	 SHORT $LN1@GetIntAttr
$LN84@GetIntAttr:
  00112	c6 45 f8 ed	 mov	 BYTE PTR __k$[ebp+12], -19 ; ffffffedH
  00116	eb 3e		 jmp	 SHORT $LN1@GetIntAttr
$LN86@GetIntAttr:
  00118	88 4d f6	 mov	 BYTE PTR __k$[ebp+10], cl
  0011b	eb 39		 jmp	 SHORT $LN1@GetIntAttr
$LN87@GetIntAttr:
  0011d	c6 45 f5 ec	 mov	 BYTE PTR __k$[ebp+9], -20 ; ffffffecH
  00121	eb 33		 jmp	 SHORT $LN1@GetIntAttr
$LN88@GetIntAttr:
  00123	c6 45 f4 ed	 mov	 BYTE PTR __k$[ebp+8], -19 ; ffffffedH
  00127	eb 2d		 jmp	 SHORT $LN1@GetIntAttr
$LN89@GetIntAttr:
  00129	c6 45 f3 ea	 mov	 BYTE PTR __k$[ebp+7], -22 ; ffffffeaH
  0012d	eb 27		 jmp	 SHORT $LN1@GetIntAttr
$LN90@GetIntAttr:
  0012f	88 4d f2	 mov	 BYTE PTR __k$[ebp+6], cl
  00132	eb 22		 jmp	 SHORT $LN1@GetIntAttr
$LN91@GetIntAttr:
  00134	c6 45 f1 ec	 mov	 BYTE PTR __k$[ebp+5], -20 ; ffffffecH
  00138	eb 1c		 jmp	 SHORT $LN1@GetIntAttr
$LN92@GetIntAttr:
  0013a	c6 45 f0 ed	 mov	 BYTE PTR __k$[ebp+4], -19 ; ffffffedH
  0013e	eb 16		 jmp	 SHORT $LN1@GetIntAttr
$LN93@GetIntAttr:
  00140	c6 45 ef ea	 mov	 BYTE PTR __k$[ebp+3], -22 ; ffffffeaH
  00144	eb 10		 jmp	 SHORT $LN1@GetIntAttr
$LN94@GetIntAttr:
  00146	c6 45 ee eb	 mov	 BYTE PTR __k$[ebp+2], -21 ; ffffffebH
  0014a	eb 0a		 jmp	 SHORT $LN1@GetIntAttr
$LN95@GetIntAttr:
  0014c	c6 45 ed ec	 mov	 BYTE PTR __k$[ebp+1], -20 ; ffffffecH
  00150	eb 04		 jmp	 SHORT $LN1@GetIntAttr
$LN96@GetIntAttr:
  00152	c6 45 ec ed	 mov	 BYTE PTR __k$[ebp], -19	; ffffffedH
$LN1@GetIntAttr:
  00156	6a 02		 push	 2
  00158	8d 45 ec	 lea	 eax, DWORD PTR __k$[ebp]
  0015b	c6 45 f7 00	 mov	 BYTE PTR __k$[ebp+11], 0
  0015f	5a		 pop	 edx
$LL104@GetIntAttr:
  00160	81 30 ed ec eb
	ea		 xor	 DWORD PTR [eax], -353637139 ; eaebecedH
  00166	83 c0 04	 add	 eax, 4
  00169	4a		 dec	 edx
  0016a	75 f4		 jne	 SHORT $LL104@GetIntAttr
  0016c	6a 08		 push	 8
  0016e	58		 pop	 eax
$LL101@GetIntAttr:
  0016f	8b c8		 mov	 ecx, eax
  00171	81 e1 03 00 00
	80		 and	 ecx, -2147483645	; 80000003H
  00177	79 05		 jns	 SHORT $LN111@GetIntAttr
  00179	49		 dec	 ecx
  0017a	83 c9 fc	 or	 ecx, -4			; fffffffcH
  0017d	41		 inc	 ecx
$LN111@GetIntAttr:
  0017e	b2 ed		 mov	 dl, -19			; ffffffedH
  00180	2a d1		 sub	 dl, cl
  00182	30 54 05 ec	 xor	 BYTE PTR __k$[ebp+eax], dl
  00186	40		 inc	 eax
  00187	83 f8 0b	 cmp	 eax, 11			; 0000000bH
  0018a	7c e3		 jl	 SHORT $LL101@GetIntAttr

; 88   : 		return GetIntAttribute(_k);

  0018c	8d 45 ec	 lea	 eax, DWORD PTR __k$[ebp]
  0018f	50		 push	 eax
  00190	8b ce		 mov	 ecx, esi
  00192	ff 15 00 00 00
	00		 call	 DWORD PTR __imp_?GetIntAttribute@ioXMLElement@@QBEHPBD@Z

; 89   : 	}

  00198	8b 4d fc	 mov	 ecx, DWORD PTR __$ArrayPad$[ebp]
  0019b	33 cd		 xor	 ecx, ebp
  0019d	5e		 pop	 esi
  0019e	e8 00 00 00 00	 call	 @__security_check_cookie@4
  001a3	c9		 leave
  001a4	c2 04 00	 ret	 4
??$GetIntAttribute_e@$0M@@ioXMLElement@@QBEHAAY0M@$$CBD@Z ENDP ; ioXMLElement::GetIntAttribute_e<12>
_TEXT	ENDS
PUBLIC	__$ArrayPad$
PUBLIC	??$GetIntAttribute_e@$0BC@@ioXMLElement@@QBEHAAY0BC@$$CBD@Z ; ioXMLElement::GetIntAttribute_e<18>
; Function compile flags: /Ogsp
;	COMDAT ??$GetIntAttribute_e@$0BC@@ioXMLElement@@QBEHAAY0BC@$$CBD@Z
_TEXT	SEGMENT
__k$ = -28						; size = 18
__$ArrayPad$ = -4					; size = 4
_k$ = 8							; size = 4
??$GetIntAttribute_e@$0BC@@ioXMLElement@@QBEHAAY0BC@$$CBD@Z PROC ; ioXMLElement::GetIntAttribute_e<18>, COMDAT
; _this$ = ecx

; 86   : 	{

  00000	55		 push	 ebp
  00001	8b ec		 mov	 ebp, esp
  00003	83 ec 1c	 sub	 esp, 28			; 0000001cH
  00006	a1 00 00 00 00	 mov	 eax, DWORD PTR ___security_cookie
  0000b	33 c5		 xor	 eax, ebp
  0000d	89 45 fc	 mov	 DWORD PTR __$ArrayPad$[ebp], eax
  00010	8b 45 08	 mov	 eax, DWORD PTR _k$[ebp]

; 87   : 		_ENCSTR(k, _k);

  00013	8a 10		 mov	 dl, BYTE PTR [eax]
  00015	56		 push	 esi
  00016	8b f1		 mov	 esi, ecx
  00018	84 d2		 test	 dl, dl
  0001a	0f 84 be 01 00
	00		 je	 $LN96@GetIntAttr@2
  00020	80 f2 ed	 xor	 dl, -19			; ffffffedH
  00023	88 55 e4	 mov	 BYTE PTR __k$[ebp], dl
  00026	8a 50 01	 mov	 dl, BYTE PTR [eax+1]
  00029	84 d2		 test	 dl, dl
  0002b	0f 84 a7 01 00
	00		 je	 $LN95@GetIntAttr@2
  00031	80 f2 ec	 xor	 dl, -20			; ffffffecH
  00034	88 55 e5	 mov	 BYTE PTR __k$[ebp+1], dl
  00037	8a 50 02	 mov	 dl, BYTE PTR [eax+2]
  0003a	84 d2		 test	 dl, dl
  0003c	0f 84 90 01 00
	00		 je	 $LN94@GetIntAttr@2
  00042	b1 eb		 mov	 cl, -21			; ffffffebH
  00044	32 d1		 xor	 dl, cl
  00046	88 55 e6	 mov	 BYTE PTR __k$[ebp+2], dl
  00049	8a 50 03	 mov	 dl, BYTE PTR [eax+3]
  0004c	84 d2		 test	 dl, dl
  0004e	0f 84 78 01 00
	00		 je	 $LN93@GetIntAttr@2
  00054	80 f2 ea	 xor	 dl, -22			; ffffffeaH
  00057	88 55 e7	 mov	 BYTE PTR __k$[ebp+3], dl
  0005a	8a 50 04	 mov	 dl, BYTE PTR [eax+4]
  0005d	84 d2		 test	 dl, dl
  0005f	0f 84 61 01 00
	00		 je	 $LN92@GetIntAttr@2
  00065	80 f2 ed	 xor	 dl, -19			; ffffffedH
  00068	88 55 e8	 mov	 BYTE PTR __k$[ebp+4], dl
  0006b	8a 50 05	 mov	 dl, BYTE PTR [eax+5]
  0006e	84 d2		 test	 dl, dl
  00070	0f 84 4a 01 00
	00		 je	 $LN91@GetIntAttr@2
  00076	80 f2 ec	 xor	 dl, -20			; ffffffecH
  00079	88 55 e9	 mov	 BYTE PTR __k$[ebp+5], dl
  0007c	8a 50 06	 mov	 dl, BYTE PTR [eax+6]
  0007f	84 d2		 test	 dl, dl
  00081	0f 84 34 01 00
	00		 je	 $LN90@GetIntAttr@2
  00087	32 d1		 xor	 dl, cl
  00089	88 55 ea	 mov	 BYTE PTR __k$[ebp+6], dl
  0008c	8a 50 07	 mov	 dl, BYTE PTR [eax+7]
  0008f	84 d2		 test	 dl, dl
  00091	0f 84 1e 01 00
	00		 je	 $LN89@GetIntAttr@2
  00097	80 f2 ea	 xor	 dl, -22			; ffffffeaH
  0009a	88 55 eb	 mov	 BYTE PTR __k$[ebp+7], dl
  0009d	8a 50 08	 mov	 dl, BYTE PTR [eax+8]
  000a0	84 d2		 test	 dl, dl
  000a2	0f 84 07 01 00
	00		 je	 $LN88@GetIntAttr@2
  000a8	80 f2 ed	 xor	 dl, -19			; ffffffedH
  000ab	88 55 ec	 mov	 BYTE PTR __k$[ebp+8], dl
  000ae	8a 50 09	 mov	 dl, BYTE PTR [eax+9]
  000b1	84 d2		 test	 dl, dl
  000b3	0f 84 f0 00 00
	00		 je	 $LN87@GetIntAttr@2
  000b9	80 f2 ec	 xor	 dl, -20			; ffffffecH
  000bc	88 55 ed	 mov	 BYTE PTR __k$[ebp+9], dl
  000bf	8a 50 0a	 mov	 dl, BYTE PTR [eax+10]
  000c2	84 d2		 test	 dl, dl
  000c4	0f 84 da 00 00
	00		 je	 $LN86@GetIntAttr@2
  000ca	32 d1		 xor	 dl, cl
  000cc	88 55 ee	 mov	 BYTE PTR __k$[ebp+10], dl
  000cf	8a 50 0b	 mov	 dl, BYTE PTR [eax+11]
  000d2	84 d2		 test	 dl, dl
  000d4	0f 84 c4 00 00
	00		 je	 $LN85@GetIntAttr@2
  000da	80 f2 ea	 xor	 dl, -22			; ffffffeaH
  000dd	88 55 ef	 mov	 BYTE PTR __k$[ebp+11], dl
  000e0	8a 50 0c	 mov	 dl, BYTE PTR [eax+12]
  000e3	84 d2		 test	 dl, dl
  000e5	0f 84 ad 00 00
	00		 je	 $LN84@GetIntAttr@2
  000eb	80 f2 ed	 xor	 dl, -19			; ffffffedH
  000ee	88 55 f0	 mov	 BYTE PTR __k$[ebp+12], dl
  000f1	8a 50 0d	 mov	 dl, BYTE PTR [eax+13]
  000f4	84 d2		 test	 dl, dl
  000f6	0f 84 96 00 00
	00		 je	 $LN83@GetIntAttr@2
  000fc	80 f2 ec	 xor	 dl, -20			; ffffffecH
  000ff	88 55 f1	 mov	 BYTE PTR __k$[ebp+13], dl
  00102	8a 50 0e	 mov	 dl, BYTE PTR [eax+14]
  00105	84 d2		 test	 dl, dl
  00107	0f 84 80 00 00
	00		 je	 $LN82@GetIntAttr@2
  0010d	32 d1		 xor	 dl, cl
  0010f	88 55 f2	 mov	 BYTE PTR __k$[ebp+14], dl
  00112	8a 50 0f	 mov	 dl, BYTE PTR [eax+15]
  00115	84 d2		 test	 dl, dl
  00117	74 6e		 je	 SHORT $LN81@GetIntAttr@2
  00119	80 f2 ea	 xor	 dl, -22			; ffffffeaH
  0011c	88 55 f3	 mov	 BYTE PTR __k$[ebp+15], dl
  0011f	8a 50 10	 mov	 dl, BYTE PTR [eax+16]
  00122	84 d2		 test	 dl, dl
  00124	74 5b		 je	 SHORT $LN80@GetIntAttr@2
  00126	80 f2 ed	 xor	 dl, -19			; ffffffedH
  00129	80 78 11 00	 cmp	 BYTE PTR [eax+17], 0
  0012d	88 55 f4	 mov	 BYTE PTR __k$[ebp+16], dl
  00130	0f 84 ac 00 00
	00		 je	 $LN1@GetIntAttr@2
  00136	8a 50 12	 mov	 dl, BYTE PTR [eax+18]
  00139	84 d2		 test	 dl, dl
  0013b	74 3f		 je	 SHORT $LN78@GetIntAttr@2
  0013d	32 d1		 xor	 dl, cl
  0013f	88 55 f6	 mov	 BYTE PTR __k$[ebp+18], dl
  00142	8a 50 13	 mov	 dl, BYTE PTR [eax+19]
  00145	84 d2		 test	 dl, dl
  00147	74 2d		 je	 SHORT $LN77@GetIntAttr@2
  00149	80 f2 ea	 xor	 dl, -22			; ffffffeaH
  0014c	88 55 f7	 mov	 BYTE PTR __k$[ebp+19], dl
  0014f	8a 50 14	 mov	 dl, BYTE PTR [eax+20]
  00152	84 d2		 test	 dl, dl
  00154	74 1a		 je	 SHORT $LN76@GetIntAttr@2
  00156	8a 40 15	 mov	 al, BYTE PTR [eax+21]
  00159	80 f2 ed	 xor	 dl, -19			; ffffffedH
  0015c	88 55 f8	 mov	 BYTE PTR __k$[ebp+20], dl
  0015f	84 c0		 test	 al, al
  00161	74 07		 je	 SHORT $LN75@GetIntAttr@2
  00163	34 ec		 xor	 al, -20			; ffffffecH
  00165	88 45 f9	 mov	 BYTE PTR __k$[ebp+21], al
  00168	eb 78		 jmp	 SHORT $LN1@GetIntAttr@2
$LN75@GetIntAttr@2:
  0016a	c6 45 f9 ec	 mov	 BYTE PTR __k$[ebp+21], -20 ; ffffffecH
  0016e	eb 72		 jmp	 SHORT $LN1@GetIntAttr@2
$LN76@GetIntAttr@2:
  00170	c6 45 f8 ed	 mov	 BYTE PTR __k$[ebp+20], -19 ; ffffffedH
  00174	eb 6c		 jmp	 SHORT $LN1@GetIntAttr@2
$LN77@GetIntAttr@2:
  00176	c6 45 f7 ea	 mov	 BYTE PTR __k$[ebp+19], -22 ; ffffffeaH
  0017a	eb 66		 jmp	 SHORT $LN1@GetIntAttr@2
$LN78@GetIntAttr@2:
  0017c	88 4d f6	 mov	 BYTE PTR __k$[ebp+18], cl
  0017f	eb 61		 jmp	 SHORT $LN1@GetIntAttr@2
$LN80@GetIntAttr@2:
  00181	c6 45 f4 ed	 mov	 BYTE PTR __k$[ebp+16], -19 ; ffffffedH
  00185	eb 5b		 jmp	 SHORT $LN1@GetIntAttr@2
$LN81@GetIntAttr@2:
  00187	c6 45 f3 ea	 mov	 BYTE PTR __k$[ebp+15], -22 ; ffffffeaH
  0018b	eb 55		 jmp	 SHORT $LN1@GetIntAttr@2
$LN82@GetIntAttr@2:
  0018d	88 4d f2	 mov	 BYTE PTR __k$[ebp+14], cl
  00190	eb 50		 jmp	 SHORT $LN1@GetIntAttr@2
$LN83@GetIntAttr@2:
  00192	c6 45 f1 ec	 mov	 BYTE PTR __k$[ebp+13], -20 ; ffffffecH
  00196	eb 4a		 jmp	 SHORT $LN1@GetIntAttr@2
$LN84@GetIntAttr@2:
  00198	c6 45 f0 ed	 mov	 BYTE PTR __k$[ebp+12], -19 ; ffffffedH
  0019c	eb 44		 jmp	 SHORT $LN1@GetIntAttr@2
$LN85@GetIntAttr@2:
  0019e	c6 45 ef ea	 mov	 BYTE PTR __k$[ebp+11], -22 ; ffffffeaH
  001a2	eb 3e		 jmp	 SHORT $LN1@GetIntAttr@2
$LN86@GetIntAttr@2:
  001a4	88 4d ee	 mov	 BYTE PTR __k$[ebp+10], cl
  001a7	eb 39		 jmp	 SHORT $LN1@GetIntAttr@2
$LN87@GetIntAttr@2:
  001a9	c6 45 ed ec	 mov	 BYTE PTR __k$[ebp+9], -20 ; ffffffecH
  001ad	eb 33		 jmp	 SHORT $LN1@GetIntAttr@2
$LN88@GetIntAttr@2:
  001af	c6 45 ec ed	 mov	 BYTE PTR __k$[ebp+8], -19 ; ffffffedH
  001b3	eb 2d		 jmp	 SHORT $LN1@GetIntAttr@2
$LN89@GetIntAttr@2:
  001b5	c6 45 eb ea	 mov	 BYTE PTR __k$[ebp+7], -22 ; ffffffeaH
  001b9	eb 27		 jmp	 SHORT $LN1@GetIntAttr@2
$LN90@GetIntAttr@2:
  001bb	88 4d ea	 mov	 BYTE PTR __k$[ebp+6], cl
  001be	eb 22		 jmp	 SHORT $LN1@GetIntAttr@2
$LN91@GetIntAttr@2:
  001c0	c6 45 e9 ec	 mov	 BYTE PTR __k$[ebp+5], -20 ; ffffffecH
  001c4	eb 1c		 jmp	 SHORT $LN1@GetIntAttr@2
$LN92@GetIntAttr@2:
  001c6	c6 45 e8 ed	 mov	 BYTE PTR __k$[ebp+4], -19 ; ffffffedH
  001ca	eb 16		 jmp	 SHORT $LN1@GetIntAttr@2
$LN93@GetIntAttr@2:
  001cc	c6 45 e7 ea	 mov	 BYTE PTR __k$[ebp+3], -22 ; ffffffeaH
  001d0	eb 10		 jmp	 SHORT $LN1@GetIntAttr@2
$LN94@GetIntAttr@2:
  001d2	c6 45 e6 eb	 mov	 BYTE PTR __k$[ebp+2], -21 ; ffffffebH
  001d6	eb 0a		 jmp	 SHORT $LN1@GetIntAttr@2
$LN95@GetIntAttr@2:
  001d8	c6 45 e5 ec	 mov	 BYTE PTR __k$[ebp+1], -20 ; ffffffecH
  001dc	eb 04		 jmp	 SHORT $LN1@GetIntAttr@2
$LN96@GetIntAttr@2:
  001de	c6 45 e4 ed	 mov	 BYTE PTR __k$[ebp], -19	; ffffffedH
$LN1@GetIntAttr@2:
  001e2	6a 04		 push	 4
  001e4	8d 45 e4	 lea	 eax, DWORD PTR __k$[ebp]
  001e7	c6 45 f5 00	 mov	 BYTE PTR __k$[ebp+17], 0
  001eb	5a		 pop	 edx
$LL104@GetIntAttr@2:
  001ec	81 30 ed ec eb
	ea		 xor	 DWORD PTR [eax], -353637139 ; eaebecedH
  001f2	83 c0 04	 add	 eax, 4
  001f5	4a		 dec	 edx
  001f6	75 f4		 jne	 SHORT $LL104@GetIntAttr@2
  001f8	80 75 f4 ed	 xor	 BYTE PTR __k$[ebp+16], -19 ; ffffffedH

; 88   : 		return GetIntAttribute(_k);

  001fc	8d 45 e4	 lea	 eax, DWORD PTR __k$[ebp]
  001ff	50		 push	 eax
  00200	8b ce		 mov	 ecx, esi
  00202	ff 15 00 00 00
	00		 call	 DWORD PTR __imp_?GetIntAttribute@ioXMLElement@@QBEHPBD@Z

; 89   : 	}

  00208	8b 4d fc	 mov	 ecx, DWORD PTR __$ArrayPad$[ebp]
  0020b	33 cd		 xor	 ecx, ebp
  0020d	5e		 pop	 esi
  0020e	e8 00 00 00 00	 call	 @__security_check_cookie@4
  00213	c9		 leave
  00214	c2 04 00	 ret	 4
??$GetIntAttribute_e@$0BC@@ioXMLElement@@QBEHAAY0BC@$$CBD@Z ENDP ; ioXMLElement::GetIntAttribute_e<18>
_TEXT	ENDS
PUBLIC	__$ArrayPad$
PUBLIC	??$?8$0BA@@@YA_NABVioHashString@@AAY0BA@$$CBD@Z	; operator==<16>
; Function compile flags: /Ogsp
; File d:\lost saga for developer\youtube\tutorial\source\src\io3dengine\iohashstring.h
;	COMDAT ??$?8$0BA@@@YA_NABVioHashString@@AAY0BA@$$CBD@Z
_TEXT	SEGMENT
__t$ = -24						; size = 16
__$ArrayPad$ = -4					; size = 4
_lhs$ = 8						; size = 4
_t$ = 12						; size = 4
??$?8$0BA@@@YA_NABVioHashString@@AAY0BA@$$CBD@Z PROC	; operator==<16>, COMDAT

; 146  : {

  00000	55		 push	 ebp
  00001	8b ec		 mov	 ebp, esp
  00003	83 ec 18	 sub	 esp, 24			; 00000018H
  00006	a1 00 00 00 00	 mov	 eax, DWORD PTR ___security_cookie
  0000b	33 c5		 xor	 eax, ebp
  0000d	89 45 fc	 mov	 DWORD PTR __$ArrayPad$[ebp], eax
  00010	8b 45 0c	 mov	 eax, DWORD PTR _t$[ebp]

; 147  : 	_ENCSTR(t, _t); return ( strcmp( lhs.c_str(), _t ) == 0 );

  00013	8a 10		 mov	 dl, BYTE PTR [eax]
  00015	56		 push	 esi
  00016	57		 push	 edi
  00017	8b 7d 08	 mov	 edi, DWORD PTR _lhs$[ebp]
  0001a	84 d2		 test	 dl, dl
  0001c	0f 84 8c 01 00
	00		 je	 $LN96@operator@8
  00022	80 f2 ed	 xor	 dl, -19			; ffffffedH
  00025	88 55 e8	 mov	 BYTE PTR __t$[ebp], dl
  00028	8a 50 01	 mov	 dl, BYTE PTR [eax+1]
  0002b	84 d2		 test	 dl, dl
  0002d	0f 84 75 01 00
	00		 je	 $LN95@operator@8
  00033	80 f2 ec	 xor	 dl, -20			; ffffffecH
  00036	88 55 e9	 mov	 BYTE PTR __t$[ebp+1], dl
  00039	8a 50 02	 mov	 dl, BYTE PTR [eax+2]
  0003c	84 d2		 test	 dl, dl
  0003e	0f 84 5e 01 00
	00		 je	 $LN94@operator@8
  00044	b1 eb		 mov	 cl, -21			; ffffffebH
  00046	32 d1		 xor	 dl, cl
  00048	88 55 ea	 mov	 BYTE PTR __t$[ebp+2], dl
  0004b	8a 50 03	 mov	 dl, BYTE PTR [eax+3]
  0004e	84 d2		 test	 dl, dl
  00050	0f 84 46 01 00
	00		 je	 $LN93@operator@8
  00056	80 f2 ea	 xor	 dl, -22			; ffffffeaH
  00059	88 55 eb	 mov	 BYTE PTR __t$[ebp+3], dl
  0005c	8a 50 04	 mov	 dl, BYTE PTR [eax+4]
  0005f	84 d2		 test	 dl, dl
  00061	0f 84 2f 01 00
	00		 je	 $LN92@operator@8
  00067	80 f2 ed	 xor	 dl, -19			; ffffffedH
  0006a	88 55 ec	 mov	 BYTE PTR __t$[ebp+4], dl
  0006d	8a 50 05	 mov	 dl, BYTE PTR [eax+5]
  00070	84 d2		 test	 dl, dl
  00072	0f 84 18 01 00
	00		 je	 $LN91@operator@8
  00078	80 f2 ec	 xor	 dl, -20			; ffffffecH
  0007b	88 55 ed	 mov	 BYTE PTR __t$[ebp+5], dl
  0007e	8a 50 06	 mov	 dl, BYTE PTR [eax+6]
  00081	84 d2		 test	 dl, dl
  00083	0f 84 02 01 00
	00		 je	 $LN90@operator@8
  00089	32 d1		 xor	 dl, cl
  0008b	88 55 ee	 mov	 BYTE PTR __t$[ebp+6], dl
  0008e	8a 50 07	 mov	 dl, BYTE PTR [eax+7]
  00091	84 d2		 test	 dl, dl
  00093	0f 84 ec 00 00
	00		 je	 $LN89@operator@8
  00099	80 f2 ea	 xor	 dl, -22			; ffffffeaH
  0009c	88 55 ef	 mov	 BYTE PTR __t$[ebp+7], dl
  0009f	8a 50 08	 mov	 dl, BYTE PTR [eax+8]
  000a2	84 d2		 test	 dl, dl
  000a4	0f 84 d5 00 00
	00		 je	 $LN88@operator@8
  000aa	80 f2 ed	 xor	 dl, -19			; ffffffedH
  000ad	88 55 f0	 mov	 BYTE PTR __t$[ebp+8], dl
  000b0	8a 50 09	 mov	 dl, BYTE PTR [eax+9]
  000b3	84 d2		 test	 dl, dl
  000b5	0f 84 be 00 00
	00		 je	 $LN87@operator@8
  000bb	80 f2 ec	 xor	 dl, -20			; ffffffecH
  000be	88 55 f1	 mov	 BYTE PTR __t$[ebp+9], dl
  000c1	8a 50 0a	 mov	 dl, BYTE PTR [eax+10]
  000c4	84 d2		 test	 dl, dl
  000c6	0f 84 a8 00 00
	00		 je	 $LN86@operator@8
  000cc	32 d1		 xor	 dl, cl
  000ce	88 55 f2	 mov	 BYTE PTR __t$[ebp+10], dl
  000d1	8a 50 0b	 mov	 dl, BYTE PTR [eax+11]
  000d4	84 d2		 test	 dl, dl
  000d6	0f 84 92 00 00
	00		 je	 $LN85@operator@8
  000dc	80 f2 ea	 xor	 dl, -22			; ffffffeaH
  000df	88 55 f3	 mov	 BYTE PTR __t$[ebp+11], dl
  000e2	8a 50 0c	 mov	 dl, BYTE PTR [eax+12]
  000e5	84 d2		 test	 dl, dl
  000e7	74 7f		 je	 SHORT $LN84@operator@8
  000e9	80 f2 ed	 xor	 dl, -19			; ffffffedH
  000ec	88 55 f4	 mov	 BYTE PTR __t$[ebp+12], dl
  000ef	8a 50 0d	 mov	 dl, BYTE PTR [eax+13]
  000f2	84 d2		 test	 dl, dl
  000f4	74 6c		 je	 SHORT $LN83@operator@8
  000f6	80 f2 ec	 xor	 dl, -20			; ffffffecH
  000f9	88 55 f5	 mov	 BYTE PTR __t$[ebp+13], dl
  000fc	8a 50 0e	 mov	 dl, BYTE PTR [eax+14]
  000ff	84 d2		 test	 dl, dl
  00101	74 5a		 je	 SHORT $LN82@operator@8
  00103	32 d1		 xor	 dl, cl
  00105	80 78 0f 00	 cmp	 BYTE PTR [eax+15], 0
  00109	88 55 f6	 mov	 BYTE PTR __t$[ebp+14], dl
  0010c	0f 84 a0 00 00
	00		 je	 $LN1@operator@8
  00112	8a 50 10	 mov	 dl, BYTE PTR [eax+16]
  00115	84 d2		 test	 dl, dl
  00117	74 3e		 je	 SHORT $LN80@operator@8
  00119	80 f2 ed	 xor	 dl, -19			; ffffffedH
  0011c	88 55 f8	 mov	 BYTE PTR __t$[ebp+16], dl
  0011f	8a 50 11	 mov	 dl, BYTE PTR [eax+17]
  00122	84 d2		 test	 dl, dl
  00124	74 2b		 je	 SHORT $LN79@operator@8
  00126	80 f2 ec	 xor	 dl, -20			; ffffffecH
  00129	88 55 f9	 mov	 BYTE PTR __t$[ebp+17], dl
  0012c	8a 50 12	 mov	 dl, BYTE PTR [eax+18]
  0012f	84 d2		 test	 dl, dl
  00131	74 19		 je	 SHORT $LN78@operator@8
  00133	8a 40 13	 mov	 al, BYTE PTR [eax+19]
  00136	32 d1		 xor	 dl, cl
  00138	88 55 fa	 mov	 BYTE PTR __t$[ebp+18], dl
  0013b	84 c0		 test	 al, al
  0013d	74 07		 je	 SHORT $LN77@operator@8
  0013f	34 ea		 xor	 al, -22			; ffffffeaH
  00141	88 45 fb	 mov	 BYTE PTR __t$[ebp+19], al
  00144	eb 6c		 jmp	 SHORT $LN1@operator@8
$LN77@operator@8:
  00146	c6 45 fb ea	 mov	 BYTE PTR __t$[ebp+19], -22 ; ffffffeaH
  0014a	eb 66		 jmp	 SHORT $LN1@operator@8
$LN78@operator@8:
  0014c	88 4d fa	 mov	 BYTE PTR __t$[ebp+18], cl
  0014f	eb 61		 jmp	 SHORT $LN1@operator@8
$LN79@operator@8:
  00151	c6 45 f9 ec	 mov	 BYTE PTR __t$[ebp+17], -20 ; ffffffecH
  00155	eb 5b		 jmp	 SHORT $LN1@operator@8
$LN80@operator@8:
  00157	c6 45 f8 ed	 mov	 BYTE PTR __t$[ebp+16], -19 ; ffffffedH
  0015b	eb 55		 jmp	 SHORT $LN1@operator@8
$LN82@operator@8:
  0015d	88 4d f6	 mov	 BYTE PTR __t$[ebp+14], cl
  00160	eb 50		 jmp	 SHORT $LN1@operator@8
$LN83@operator@8:
  00162	c6 45 f5 ec	 mov	 BYTE PTR __t$[ebp+13], -20 ; ffffffecH
  00166	eb 4a		 jmp	 SHORT $LN1@operator@8
$LN84@operator@8:
  00168	c6 45 f4 ed	 mov	 BYTE PTR __t$[ebp+12], -19 ; ffffffedH
  0016c	eb 44		 jmp	 SHORT $LN1@operator@8
$LN85@operator@8:
  0016e	c6 45 f3 ea	 mov	 BYTE PTR __t$[ebp+11], -22 ; ffffffeaH
  00172	eb 3e		 jmp	 SHORT $LN1@operator@8
$LN86@operator@8:
  00174	88 4d f2	 mov	 BYTE PTR __t$[ebp+10], cl
  00177	eb 39		 jmp	 SHORT $LN1@operator@8
$LN87@operator@8:
  00179	c6 45 f1 ec	 mov	 BYTE PTR __t$[ebp+9], -20 ; ffffffecH
  0017d	eb 33		 jmp	 SHORT $LN1@operator@8
$LN88@operator@8:
  0017f	c6 45 f0 ed	 mov	 BYTE PTR __t$[ebp+8], -19 ; ffffffedH
  00183	eb 2d		 jmp	 SHORT $LN1@operator@8
$LN89@operator@8:
  00185	c6 45 ef ea	 mov	 BYTE PTR __t$[ebp+7], -22 ; ffffffeaH
  00189	eb 27		 jmp	 SHORT $LN1@operator@8
$LN90@operator@8:
  0018b	88 4d ee	 mov	 BYTE PTR __t$[ebp+6], cl
  0018e	eb 22		 jmp	 SHORT $LN1@operator@8
$LN91@operator@8:
  00190	c6 45 ed ec	 mov	 BYTE PTR __t$[ebp+5], -20 ; ffffffecH
  00194	eb 1c		 jmp	 SHORT $LN1@operator@8
$LN92@operator@8:
  00196	c6 45 ec ed	 mov	 BYTE PTR __t$[ebp+4], -19 ; ffffffedH
  0019a	eb 16		 jmp	 SHORT $LN1@operator@8
$LN93@operator@8:
  0019c	c6 45 eb ea	 mov	 BYTE PTR __t$[ebp+3], -22 ; ffffffeaH
  001a0	eb 10		 jmp	 SHORT $LN1@operator@8
$LN94@operator@8:
  001a2	c6 45 ea eb	 mov	 BYTE PTR __t$[ebp+2], -21 ; ffffffebH
  001a6	eb 0a		 jmp	 SHORT $LN1@operator@8
$LN95@operator@8:
  001a8	c6 45 e9 ec	 mov	 BYTE PTR __t$[ebp+1], -20 ; ffffffecH
  001ac	eb 04		 jmp	 SHORT $LN1@operator@8
$LN96@operator@8:
  001ae	c6 45 e8 ed	 mov	 BYTE PTR __t$[ebp], -19	; ffffffedH
$LN1@operator@8:
  001b2	6a 03		 push	 3
  001b4	8d 45 e8	 lea	 eax, DWORD PTR __t$[ebp]
  001b7	c6 45 f7 00	 mov	 BYTE PTR __t$[ebp+15], 0
  001bb	5a		 pop	 edx
$LL104@operator@8:
  001bc	81 30 ed ec eb
	ea		 xor	 DWORD PTR [eax], -353637139 ; eaebecedH
  001c2	83 c0 04	 add	 eax, 4
  001c5	4a		 dec	 edx
  001c6	75 f4		 jne	 SHORT $LL104@operator@8
  001c8	6a 0c		 push	 12			; 0000000cH
  001ca	58		 pop	 eax
$LL101@operator@8:
  001cb	8b c8		 mov	 ecx, eax
  001cd	81 e1 03 00 00
	80		 and	 ecx, -2147483645	; 80000003H
  001d3	79 05		 jns	 SHORT $LN115@operator@8
  001d5	49		 dec	 ecx
  001d6	83 c9 fc	 or	 ecx, -4			; fffffffcH
  001d9	41		 inc	 ecx
$LN115@operator@8:
  001da	b2 ed		 mov	 dl, -19			; ffffffedH
  001dc	2a d1		 sub	 dl, cl
  001de	30 54 05 e8	 xor	 BYTE PTR __t$[ebp+eax], dl
  001e2	40		 inc	 eax
  001e3	83 f8 0f	 cmp	 eax, 15			; 0000000fH
  001e6	7c e3		 jl	 SHORT $LL101@operator@8
  001e8	8b cf		 mov	 ecx, edi
  001ea	8d 75 e8	 lea	 esi, DWORD PTR __t$[ebp]
  001ed	ff 15 00 00 00
	00		 call	 DWORD PTR __imp_?c_str@ioHashString@@QBEPBDXZ
$LL111@operator@8:
  001f3	8a 08		 mov	 cl, BYTE PTR [eax]
  001f5	3a 0e		 cmp	 cl, BYTE PTR [esi]
  001f7	75 1a		 jne	 SHORT $LN112@operator@8
  001f9	84 c9		 test	 cl, cl
  001fb	74 12		 je	 SHORT $LN113@operator@8
  001fd	8a 48 01	 mov	 cl, BYTE PTR [eax+1]
  00200	3a 4e 01	 cmp	 cl, BYTE PTR [esi+1]
  00203	75 0e		 jne	 SHORT $LN112@operator@8
  00205	83 c0 02	 add	 eax, 2
  00208	83 c6 02	 add	 esi, 2
  0020b	84 c9		 test	 cl, cl
  0020d	75 e4		 jne	 SHORT $LL111@operator@8
$LN113@operator@8:
  0020f	33 c0		 xor	 eax, eax
  00211	eb 05		 jmp	 SHORT $LN114@operator@8
$LN112@operator@8:
  00213	1b c0		 sbb	 eax, eax
  00215	83 d8 ff	 sbb	 eax, -1
$LN114@operator@8:
  00218	33 c9		 xor	 ecx, ecx
  0021a	85 c0		 test	 eax, eax
  0021c	0f 94 c0	 sete	 al

; 148  : }

  0021f	8b 4d fc	 mov	 ecx, DWORD PTR __$ArrayPad$[ebp]
  00222	5f		 pop	 edi
  00223	33 cd		 xor	 ecx, ebp
  00225	5e		 pop	 esi
  00226	e8 00 00 00 00	 call	 @__security_check_cookie@4
  0022b	c9		 leave
  0022c	c3		 ret	 0
??$?8$0BA@@@YA_NABVioHashString@@AAY0BA@$$CBD@Z ENDP	; operator==<16>
_TEXT	ENDS
PUBLIC	__$ArrayPad$
PUBLIC	??$?8$0BB@@@YA_NABVioHashString@@AAY0BB@$$CBD@Z	; operator==<17>
; Function compile flags: /Ogsp
;	COMDAT ??$?8$0BB@@@YA_NABVioHashString@@AAY0BB@$$CBD@Z
_TEXT	SEGMENT
__t$ = -28						; size = 17
__$ArrayPad$ = -4					; size = 4
_lhs$ = 8						; size = 4
_t$ = 12						; size = 4
??$?8$0BB@@@YA_NABVioHashString@@AAY0BB@$$CBD@Z PROC	; operator==<17>, COMDAT

; 146  : {

  00000	55		 push	 ebp
  00001	8b ec		 mov	 ebp, esp
  00003	83 ec 1c	 sub	 esp, 28			; 0000001cH
  00006	a1 00 00 00 00	 mov	 eax, DWORD PTR ___security_cookie
  0000b	33 c5		 xor	 eax, ebp
  0000d	89 45 fc	 mov	 DWORD PTR __$ArrayPad$[ebp], eax
  00010	8b 45 0c	 mov	 eax, DWORD PTR _t$[ebp]

; 147  : 	_ENCSTR(t, _t); return ( strcmp( lhs.c_str(), _t ) == 0 );

  00013	8a 10		 mov	 dl, BYTE PTR [eax]
  00015	56		 push	 esi
  00016	57		 push	 edi
  00017	8b 7d 08	 mov	 edi, DWORD PTR _lhs$[ebp]
  0001a	84 d2		 test	 dl, dl
  0001c	0f 84 a7 01 00
	00		 je	 $LN96@operator@9
  00022	80 f2 ed	 xor	 dl, -19			; ffffffedH
  00025	88 55 e4	 mov	 BYTE PTR __t$[ebp], dl
  00028	8a 50 01	 mov	 dl, BYTE PTR [eax+1]
  0002b	84 d2		 test	 dl, dl
  0002d	0f 84 90 01 00
	00		 je	 $LN95@operator@9
  00033	b1 ec		 mov	 cl, -20			; ffffffecH
  00035	32 d1		 xor	 dl, cl
  00037	88 55 e5	 mov	 BYTE PTR __t$[ebp+1], dl
  0003a	8a 50 02	 mov	 dl, BYTE PTR [eax+2]
  0003d	84 d2		 test	 dl, dl
  0003f	0f 84 78 01 00
	00		 je	 $LN94@operator@9
  00045	80 f2 eb	 xor	 dl, -21			; ffffffebH
  00048	88 55 e6	 mov	 BYTE PTR __t$[ebp+2], dl
  0004b	8a 50 03	 mov	 dl, BYTE PTR [eax+3]
  0004e	84 d2		 test	 dl, dl
  00050	0f 84 61 01 00
	00		 je	 $LN93@operator@9
  00056	80 f2 ea	 xor	 dl, -22			; ffffffeaH
  00059	88 55 e7	 mov	 BYTE PTR __t$[ebp+3], dl
  0005c	8a 50 04	 mov	 dl, BYTE PTR [eax+4]
  0005f	84 d2		 test	 dl, dl
  00061	0f 84 4a 01 00
	00		 je	 $LN92@operator@9
  00067	80 f2 ed	 xor	 dl, -19			; ffffffedH
  0006a	88 55 e8	 mov	 BYTE PTR __t$[ebp+4], dl
  0006d	8a 50 05	 mov	 dl, BYTE PTR [eax+5]
  00070	84 d2		 test	 dl, dl
  00072	0f 84 34 01 00
	00		 je	 $LN91@operator@9
  00078	32 d1		 xor	 dl, cl
  0007a	88 55 e9	 mov	 BYTE PTR __t$[ebp+5], dl
  0007d	8a 50 06	 mov	 dl, BYTE PTR [eax+6]
  00080	84 d2		 test	 dl, dl
  00082	0f 84 1e 01 00
	00		 je	 $LN90@operator@9
  00088	80 f2 eb	 xor	 dl, -21			; ffffffebH
  0008b	88 55 ea	 mov	 BYTE PTR __t$[ebp+6], dl
  0008e	8a 50 07	 mov	 dl, BYTE PTR [eax+7]
  00091	84 d2		 test	 dl, dl
  00093	0f 84 07 01 00
	00		 je	 $LN89@operator@9
  00099	80 f2 ea	 xor	 dl, -22			; ffffffeaH
  0009c	88 55 eb	 mov	 BYTE PTR __t$[ebp+7], dl
  0009f	8a 50 08	 mov	 dl, BYTE PTR [eax+8]
  000a2	84 d2		 test	 dl, dl
  000a4	0f 84 f0 00 00
	00		 je	 $LN88@operator@9
  000aa	80 f2 ed	 xor	 dl, -19			; ffffffedH
  000ad	88 55 ec	 mov	 BYTE PTR __t$[ebp+8], dl
  000b0	8a 50 09	 mov	 dl, BYTE PTR [eax+9]
  000b3	84 d2		 test	 dl, dl
  000b5	0f 84 da 00 00
	00		 je	 $LN87@operator@9
  000bb	32 d1		 xor	 dl, cl
  000bd	88 55 ed	 mov	 BYTE PTR __t$[ebp+9], dl
  000c0	8a 50 0a	 mov	 dl, BYTE PTR [eax+10]
  000c3	84 d2		 test	 dl, dl
  000c5	0f 84 c4 00 00
	00		 je	 $LN86@operator@9
  000cb	80 f2 eb	 xor	 dl, -21			; ffffffebH
  000ce	88 55 ee	 mov	 BYTE PTR __t$[ebp+10], dl
  000d1	8a 50 0b	 mov	 dl, BYTE PTR [eax+11]
  000d4	84 d2		 test	 dl, dl
  000d6	0f 84 ad 00 00
	00		 je	 $LN85@operator@9
  000dc	80 f2 ea	 xor	 dl, -22			; ffffffeaH
  000df	88 55 ef	 mov	 BYTE PTR __t$[ebp+11], dl
  000e2	8a 50 0c	 mov	 dl, BYTE PTR [eax+12]
  000e5	84 d2		 test	 dl, dl
  000e7	0f 84 96 00 00
	00		 je	 $LN84@operator@9
  000ed	80 f2 ed	 xor	 dl, -19			; ffffffedH
  000f0	88 55 f0	 mov	 BYTE PTR __t$[ebp+12], dl
  000f3	8a 50 0d	 mov	 dl, BYTE PTR [eax+13]
  000f6	84 d2		 test	 dl, dl
  000f8	0f 84 80 00 00
	00		 je	 $LN83@operator@9
  000fe	32 d1		 xor	 dl, cl
  00100	88 55 f1	 mov	 BYTE PTR __t$[ebp+13], dl
  00103	8a 50 0e	 mov	 dl, BYTE PTR [eax+14]
  00106	84 d2		 test	 dl, dl
  00108	74 6e		 je	 SHORT $LN82@operator@9
  0010a	80 f2 eb	 xor	 dl, -21			; ffffffebH
  0010d	88 55 f2	 mov	 BYTE PTR __t$[ebp+14], dl
  00110	8a 50 0f	 mov	 dl, BYTE PTR [eax+15]
  00113	84 d2		 test	 dl, dl
  00115	74 5b		 je	 SHORT $LN81@operator@9
  00117	80 f2 ea	 xor	 dl, -22			; ffffffeaH
  0011a	80 78 10 00	 cmp	 BYTE PTR [eax+16], 0
  0011e	88 55 f3	 mov	 BYTE PTR __t$[ebp+15], dl
  00121	0f 84 a6 00 00
	00		 je	 $LN1@operator@9
  00127	8a 50 11	 mov	 dl, BYTE PTR [eax+17]
  0012a	84 d2		 test	 dl, dl
  0012c	74 3f		 je	 SHORT $LN79@operator@9
  0012e	32 d1		 xor	 dl, cl
  00130	88 55 f5	 mov	 BYTE PTR __t$[ebp+17], dl
  00133	8a 50 12	 mov	 dl, BYTE PTR [eax+18]
  00136	84 d2		 test	 dl, dl
  00138	74 2d		 je	 SHORT $LN78@operator@9
  0013a	80 f2 eb	 xor	 dl, -21			; ffffffebH
  0013d	88 55 f6	 mov	 BYTE PTR __t$[ebp+18], dl
  00140	8a 50 13	 mov	 dl, BYTE PTR [eax+19]
  00143	84 d2		 test	 dl, dl
  00145	74 1a		 je	 SHORT $LN77@operator@9
  00147	8a 40 14	 mov	 al, BYTE PTR [eax+20]
  0014a	80 f2 ea	 xor	 dl, -22			; ffffffeaH
  0014d	88 55 f7	 mov	 BYTE PTR __t$[ebp+19], dl
  00150	84 c0		 test	 al, al
  00152	74 07		 je	 SHORT $LN76@operator@9
  00154	34 ed		 xor	 al, -19			; ffffffedH
  00156	88 45 f8	 mov	 BYTE PTR __t$[ebp+20], al
  00159	eb 72		 jmp	 SHORT $LN1@operator@9
$LN76@operator@9:
  0015b	c6 45 f8 ed	 mov	 BYTE PTR __t$[ebp+20], -19 ; ffffffedH
  0015f	eb 6c		 jmp	 SHORT $LN1@operator@9
$LN77@operator@9:
  00161	c6 45 f7 ea	 mov	 BYTE PTR __t$[ebp+19], -22 ; ffffffeaH
  00165	eb 66		 jmp	 SHORT $LN1@operator@9
$LN78@operator@9:
  00167	c6 45 f6 eb	 mov	 BYTE PTR __t$[ebp+18], -21 ; ffffffebH
  0016b	eb 60		 jmp	 SHORT $LN1@operator@9
$LN79@operator@9:
  0016d	88 4d f5	 mov	 BYTE PTR __t$[ebp+17], cl
  00170	eb 5b		 jmp	 SHORT $LN1@operator@9
$LN81@operator@9:
  00172	c6 45 f3 ea	 mov	 BYTE PTR __t$[ebp+15], -22 ; ffffffeaH
  00176	eb 55		 jmp	 SHORT $LN1@operator@9
$LN82@operator@9:
  00178	c6 45 f2 eb	 mov	 BYTE PTR __t$[ebp+14], -21 ; ffffffebH
  0017c	eb 4f		 jmp	 SHORT $LN1@operator@9
$LN83@operator@9:
  0017e	88 4d f1	 mov	 BYTE PTR __t$[ebp+13], cl
  00181	eb 4a		 jmp	 SHORT $LN1@operator@9
$LN84@operator@9:
  00183	c6 45 f0 ed	 mov	 BYTE PTR __t$[ebp+12], -19 ; ffffffedH
  00187	eb 44		 jmp	 SHORT $LN1@operator@9
$LN85@operator@9:
  00189	c6 45 ef ea	 mov	 BYTE PTR __t$[ebp+11], -22 ; ffffffeaH
  0018d	eb 3e		 jmp	 SHORT $LN1@operator@9
$LN86@operator@9:
  0018f	c6 45 ee eb	 mov	 BYTE PTR __t$[ebp+10], -21 ; ffffffebH
  00193	eb 38		 jmp	 SHORT $LN1@operator@9
$LN87@operator@9:
  00195	88 4d ed	 mov	 BYTE PTR __t$[ebp+9], cl
  00198	eb 33		 jmp	 SHORT $LN1@operator@9
$LN88@operator@9:
  0019a	c6 45 ec ed	 mov	 BYTE PTR __t$[ebp+8], -19 ; ffffffedH
  0019e	eb 2d		 jmp	 SHORT $LN1@operator@9
$LN89@operator@9:
  001a0	c6 45 eb ea	 mov	 BYTE PTR __t$[ebp+7], -22 ; ffffffeaH
  001a4	eb 27		 jmp	 SHORT $LN1@operator@9
$LN90@operator@9:
  001a6	c6 45 ea eb	 mov	 BYTE PTR __t$[ebp+6], -21 ; ffffffebH
  001aa	eb 21		 jmp	 SHORT $LN1@operator@9
$LN91@operator@9:
  001ac	88 4d e9	 mov	 BYTE PTR __t$[ebp+5], cl
  001af	eb 1c		 jmp	 SHORT $LN1@operator@9
$LN92@operator@9:
  001b1	c6 45 e8 ed	 mov	 BYTE PTR __t$[ebp+4], -19 ; ffffffedH
  001b5	eb 16		 jmp	 SHORT $LN1@operator@9
$LN93@operator@9:
  001b7	c6 45 e7 ea	 mov	 BYTE PTR __t$[ebp+3], -22 ; ffffffeaH
  001bb	eb 10		 jmp	 SHORT $LN1@operator@9
$LN94@operator@9:
  001bd	c6 45 e6 eb	 mov	 BYTE PTR __t$[ebp+2], -21 ; ffffffebH
  001c1	eb 0a		 jmp	 SHORT $LN1@operator@9
$LN95@operator@9:
  001c3	c6 45 e5 ec	 mov	 BYTE PTR __t$[ebp+1], -20 ; ffffffecH
  001c7	eb 04		 jmp	 SHORT $LN1@operator@9
$LN96@operator@9:
  001c9	c6 45 e4 ed	 mov	 BYTE PTR __t$[ebp], -19	; ffffffedH
$LN1@operator@9:
  001cd	6a 04		 push	 4
  001cf	8d 45 e4	 lea	 eax, DWORD PTR __t$[ebp]
  001d2	c6 45 f4 00	 mov	 BYTE PTR __t$[ebp+16], 0
  001d6	5a		 pop	 edx
$LL104@operator@9:
  001d7	81 30 ed ec eb
	ea		 xor	 DWORD PTR [eax], -353637139 ; eaebecedH
  001dd	83 c0 04	 add	 eax, 4
  001e0	4a		 dec	 edx
  001e1	75 f4		 jne	 SHORT $LL104@operator@9
  001e3	8b cf		 mov	 ecx, edi
  001e5	8d 75 e4	 lea	 esi, DWORD PTR __t$[ebp]
  001e8	ff 15 00 00 00
	00		 call	 DWORD PTR __imp_?c_str@ioHashString@@QBEPBDXZ
$LL111@operator@9:
  001ee	8a 08		 mov	 cl, BYTE PTR [eax]
  001f0	3a 0e		 cmp	 cl, BYTE PTR [esi]
  001f2	75 1a		 jne	 SHORT $LN112@operator@9
  001f4	84 c9		 test	 cl, cl
  001f6	74 12		 je	 SHORT $LN113@operator@9
  001f8	8a 48 01	 mov	 cl, BYTE PTR [eax+1]
  001fb	3a 4e 01	 cmp	 cl, BYTE PTR [esi+1]
  001fe	75 0e		 jne	 SHORT $LN112@operator@9
  00200	83 c0 02	 add	 eax, 2
  00203	83 c6 02	 add	 esi, 2
  00206	84 c9		 test	 cl, cl
  00208	75 e4		 jne	 SHORT $LL111@operator@9
$LN113@operator@9:
  0020a	33 c0		 xor	 eax, eax
  0020c	eb 05		 jmp	 SHORT $LN114@operator@9
$LN112@operator@9:
  0020e	1b c0		 sbb	 eax, eax
  00210	83 d8 ff	 sbb	 eax, -1
$LN114@operator@9:
  00213	33 c9		 xor	 ecx, ecx
  00215	85 c0		 test	 eax, eax
  00217	0f 94 c0	 sete	 al

; 148  : }

  0021a	8b 4d fc	 mov	 ecx, DWORD PTR __$ArrayPad$[ebp]
  0021d	5f		 pop	 edi
  0021e	33 cd		 xor	 ecx, ebp
  00220	5e		 pop	 esi
  00221	e8 00 00 00 00	 call	 @__security_check_cookie@4
  00226	c9		 leave
  00227	c3		 ret	 0
??$?8$0BB@@@YA_NABVioHashString@@AAY0BB@$$CBD@Z ENDP	; operator==<17>
_TEXT	ENDS
PUBLIC	__$ArrayPad$
PUBLIC	??$?8$0BC@@@YA_NABVioHashString@@AAY0BC@$$CBD@Z	; operator==<18>
; Function compile flags: /Ogsp
;	COMDAT ??$?8$0BC@@@YA_NABVioHashString@@AAY0BC@$$CBD@Z
_TEXT	SEGMENT
__t$ = -28						; size = 18
__$ArrayPad$ = -4					; size = 4
_lhs$ = 8						; size = 4
_t$ = 12						; size = 4
??$?8$0BC@@@YA_NABVioHashString@@AAY0BC@$$CBD@Z PROC	; operator==<18>, COMDAT

; 146  : {

  00000	55		 push	 ebp
  00001	8b ec		 mov	 ebp, esp
  00003	83 ec 1c	 sub	 esp, 28			; 0000001cH
  00006	a1 00 00 00 00	 mov	 eax, DWORD PTR ___security_cookie
  0000b	33 c5		 xor	 eax, ebp
  0000d	89 45 fc	 mov	 DWORD PTR __$ArrayPad$[ebp], eax
  00010	8b 45 0c	 mov	 eax, DWORD PTR _t$[ebp]

; 147  : 	_ENCSTR(t, _t); return ( strcmp( lhs.c_str(), _t ) == 0 );

  00013	8a 10		 mov	 dl, BYTE PTR [eax]
  00015	56		 push	 esi
  00016	57		 push	 edi
  00017	8b 7d 08	 mov	 edi, DWORD PTR _lhs$[ebp]
  0001a	84 d2		 test	 dl, dl
  0001c	0f 84 be 01 00
	00		 je	 $LN96@operator@10
  00022	80 f2 ed	 xor	 dl, -19			; ffffffedH
  00025	88 55 e4	 mov	 BYTE PTR __t$[ebp], dl
  00028	8a 50 01	 mov	 dl, BYTE PTR [eax+1]
  0002b	84 d2		 test	 dl, dl
  0002d	0f 84 a7 01 00
	00		 je	 $LN95@operator@10
  00033	80 f2 ec	 xor	 dl, -20			; ffffffecH
  00036	88 55 e5	 mov	 BYTE PTR __t$[ebp+1], dl
  00039	8a 50 02	 mov	 dl, BYTE PTR [eax+2]
  0003c	84 d2		 test	 dl, dl
  0003e	0f 84 90 01 00
	00		 je	 $LN94@operator@10
  00044	b1 eb		 mov	 cl, -21			; ffffffebH
  00046	32 d1		 xor	 dl, cl
  00048	88 55 e6	 mov	 BYTE PTR __t$[ebp+2], dl
  0004b	8a 50 03	 mov	 dl, BYTE PTR [eax+3]
  0004e	84 d2		 test	 dl, dl
  00050	0f 84 78 01 00
	00		 je	 $LN93@operator@10
  00056	80 f2 ea	 xor	 dl, -22			; ffffffeaH
  00059	88 55 e7	 mov	 BYTE PTR __t$[ebp+3], dl
  0005c	8a 50 04	 mov	 dl, BYTE PTR [eax+4]
  0005f	84 d2		 test	 dl, dl
  00061	0f 84 61 01 00
	00		 je	 $LN92@operator@10
  00067	80 f2 ed	 xor	 dl, -19			; ffffffedH
  0006a	88 55 e8	 mov	 BYTE PTR __t$[ebp+4], dl
  0006d	8a 50 05	 mov	 dl, BYTE PTR [eax+5]
  00070	84 d2		 test	 dl, dl
  00072	0f 84 4a 01 00
	00		 je	 $LN91@operator@10
  00078	80 f2 ec	 xor	 dl, -20			; ffffffecH
  0007b	88 55 e9	 mov	 BYTE PTR __t$[ebp+5], dl
  0007e	8a 50 06	 mov	 dl, BYTE PTR [eax+6]
  00081	84 d2		 test	 dl, dl
  00083	0f 84 34 01 00
	00		 je	 $LN90@operator@10
  00089	32 d1		 xor	 dl, cl
  0008b	88 55 ea	 mov	 BYTE PTR __t$[ebp+6], dl
  0008e	8a 50 07	 mov	 dl, BYTE PTR [eax+7]
  00091	84 d2		 test	 dl, dl
  00093	0f 84 1e 01 00
	00		 je	 $LN89@operator@10
  00099	80 f2 ea	 xor	 dl, -22			; ffffffeaH
  0009c	88 55 eb	 mov	 BYTE PTR __t$[ebp+7], dl
  0009f	8a 50 08	 mov	 dl, BYTE PTR [eax+8]
  000a2	84 d2		 test	 dl, dl
  000a4	0f 84 07 01 00
	00		 je	 $LN88@operator@10
  000aa	80 f2 ed	 xor	 dl, -19			; ffffffedH
  000ad	88 55 ec	 mov	 BYTE PTR __t$[ebp+8], dl
  000b0	8a 50 09	 mov	 dl, BYTE PTR [eax+9]
  000b3	84 d2		 test	 dl, dl
  000b5	0f 84 f0 00 00
	00		 je	 $LN87@operator@10
  000bb	80 f2 ec	 xor	 dl, -20			; ffffffecH
  000be	88 55 ed	 mov	 BYTE PTR __t$[ebp+9], dl
  000c1	8a 50 0a	 mov	 dl, BYTE PTR [eax+10]
  000c4	84 d2		 test	 dl, dl
  000c6	0f 84 da 00 00
	00		 je	 $LN86@operator@10
  000cc	32 d1		 xor	 dl, cl
  000ce	88 55 ee	 mov	 BYTE PTR __t$[ebp+10], dl
  000d1	8a 50 0b	 mov	 dl, BYTE PTR [eax+11]
  000d4	84 d2		 test	 dl, dl
  000d6	0f 84 c4 00 00
	00		 je	 $LN85@operator@10
  000dc	80 f2 ea	 xor	 dl, -22			; ffffffeaH
  000df	88 55 ef	 mov	 BYTE PTR __t$[ebp+11], dl
  000e2	8a 50 0c	 mov	 dl, BYTE PTR [eax+12]
  000e5	84 d2		 test	 dl, dl
  000e7	0f 84 ad 00 00
	00		 je	 $LN84@operator@10
  000ed	80 f2 ed	 xor	 dl, -19			; ffffffedH
  000f0	88 55 f0	 mov	 BYTE PTR __t$[ebp+12], dl
  000f3	8a 50 0d	 mov	 dl, BYTE PTR [eax+13]
  000f6	84 d2		 test	 dl, dl
  000f8	0f 84 96 00 00
	00		 je	 $LN83@operator@10
  000fe	80 f2 ec	 xor	 dl, -20			; ffffffecH
  00101	88 55 f1	 mov	 BYTE PTR __t$[ebp+13], dl
  00104	8a 50 0e	 mov	 dl, BYTE PTR [eax+14]
  00107	84 d2		 test	 dl, dl
  00109	0f 84 80 00 00
	00		 je	 $LN82@operator@10
  0010f	32 d1		 xor	 dl, cl
  00111	88 55 f2	 mov	 BYTE PTR __t$[ebp+14], dl
  00114	8a 50 0f	 mov	 dl, BYTE PTR [eax+15]
  00117	84 d2		 test	 dl, dl
  00119	74 6e		 je	 SHORT $LN81@operator@10
  0011b	80 f2 ea	 xor	 dl, -22			; ffffffeaH
  0011e	88 55 f3	 mov	 BYTE PTR __t$[ebp+15], dl
  00121	8a 50 10	 mov	 dl, BYTE PTR [eax+16]
  00124	84 d2		 test	 dl, dl
  00126	74 5b		 je	 SHORT $LN80@operator@10
  00128	80 f2 ed	 xor	 dl, -19			; ffffffedH
  0012b	80 78 11 00	 cmp	 BYTE PTR [eax+17], 0
  0012f	88 55 f4	 mov	 BYTE PTR __t$[ebp+16], dl
  00132	0f 84 ac 00 00
	00		 je	 $LN1@operator@10
  00138	8a 50 12	 mov	 dl, BYTE PTR [eax+18]
  0013b	84 d2		 test	 dl, dl
  0013d	74 3f		 je	 SHORT $LN78@operator@10
  0013f	32 d1		 xor	 dl, cl
  00141	88 55 f6	 mov	 BYTE PTR __t$[ebp+18], dl
  00144	8a 50 13	 mov	 dl, BYTE PTR [eax+19]
  00147	84 d2		 test	 dl, dl
  00149	74 2d		 je	 SHORT $LN77@operator@10
  0014b	80 f2 ea	 xor	 dl, -22			; ffffffeaH
  0014e	88 55 f7	 mov	 BYTE PTR __t$[ebp+19], dl
  00151	8a 50 14	 mov	 dl, BYTE PTR [eax+20]
  00154	84 d2		 test	 dl, dl
  00156	74 1a		 je	 SHORT $LN76@operator@10
  00158	8a 40 15	 mov	 al, BYTE PTR [eax+21]
  0015b	80 f2 ed	 xor	 dl, -19			; ffffffedH
  0015e	88 55 f8	 mov	 BYTE PTR __t$[ebp+20], dl
  00161	84 c0		 test	 al, al
  00163	74 07		 je	 SHORT $LN75@operator@10
  00165	34 ec		 xor	 al, -20			; ffffffecH
  00167	88 45 f9	 mov	 BYTE PTR __t$[ebp+21], al
  0016a	eb 78		 jmp	 SHORT $LN1@operator@10
$LN75@operator@10:
  0016c	c6 45 f9 ec	 mov	 BYTE PTR __t$[ebp+21], -20 ; ffffffecH
  00170	eb 72		 jmp	 SHORT $LN1@operator@10
$LN76@operator@10:
  00172	c6 45 f8 ed	 mov	 BYTE PTR __t$[ebp+20], -19 ; ffffffedH
  00176	eb 6c		 jmp	 SHORT $LN1@operator@10
$LN77@operator@10:
  00178	c6 45 f7 ea	 mov	 BYTE PTR __t$[ebp+19], -22 ; ffffffeaH
  0017c	eb 66		 jmp	 SHORT $LN1@operator@10
$LN78@operator@10:
  0017e	88 4d f6	 mov	 BYTE PTR __t$[ebp+18], cl
  00181	eb 61		 jmp	 SHORT $LN1@operator@10
$LN80@operator@10:
  00183	c6 45 f4 ed	 mov	 BYTE PTR __t$[ebp+16], -19 ; ffffffedH
  00187	eb 5b		 jmp	 SHORT $LN1@operator@10
$LN81@operator@10:
  00189	c6 45 f3 ea	 mov	 BYTE PTR __t$[ebp+15], -22 ; ffffffeaH
  0018d	eb 55		 jmp	 SHORT $LN1@operator@10
$LN82@operator@10:
  0018f	88 4d f2	 mov	 BYTE PTR __t$[ebp+14], cl
  00192	eb 50		 jmp	 SHORT $LN1@operator@10
$LN83@operator@10:
  00194	c6 45 f1 ec	 mov	 BYTE PTR __t$[ebp+13], -20 ; ffffffecH
  00198	eb 4a		 jmp	 SHORT $LN1@operator@10
$LN84@operator@10:
  0019a	c6 45 f0 ed	 mov	 BYTE PTR __t$[ebp+12], -19 ; ffffffedH
  0019e	eb 44		 jmp	 SHORT $LN1@operator@10
$LN85@operator@10:
  001a0	c6 45 ef ea	 mov	 BYTE PTR __t$[ebp+11], -22 ; ffffffeaH
  001a4	eb 3e		 jmp	 SHORT $LN1@operator@10
$LN86@operator@10:
  001a6	88 4d ee	 mov	 BYTE PTR __t$[ebp+10], cl
  001a9	eb 39		 jmp	 SHORT $LN1@operator@10
$LN87@operator@10:
  001ab	c6 45 ed ec	 mov	 BYTE PTR __t$[ebp+9], -20 ; ffffffecH
  001af	eb 33		 jmp	 SHORT $LN1@operator@10
$LN88@operator@10:
  001b1	c6 45 ec ed	 mov	 BYTE PTR __t$[ebp+8], -19 ; ffffffedH
  001b5	eb 2d		 jmp	 SHORT $LN1@operator@10
$LN89@operator@10:
  001b7	c6 45 eb ea	 mov	 BYTE PTR __t$[ebp+7], -22 ; ffffffeaH
  001bb	eb 27		 jmp	 SHORT $LN1@operator@10
$LN90@operator@10:
  001bd	88 4d ea	 mov	 BYTE PTR __t$[ebp+6], cl
  001c0	eb 22		 jmp	 SHORT $LN1@operator@10
$LN91@operator@10:
  001c2	c6 45 e9 ec	 mov	 BYTE PTR __t$[ebp+5], -20 ; ffffffecH
  001c6	eb 1c		 jmp	 SHORT $LN1@operator@10
$LN92@operator@10:
  001c8	c6 45 e8 ed	 mov	 BYTE PTR __t$[ebp+4], -19 ; ffffffedH
  001cc	eb 16		 jmp	 SHORT $LN1@operator@10
$LN93@operator@10:
  001ce	c6 45 e7 ea	 mov	 BYTE PTR __t$[ebp+3], -22 ; ffffffeaH
  001d2	eb 10		 jmp	 SHORT $LN1@operator@10
$LN94@operator@10:
  001d4	c6 45 e6 eb	 mov	 BYTE PTR __t$[ebp+2], -21 ; ffffffebH
  001d8	eb 0a		 jmp	 SHORT $LN1@operator@10
$LN95@operator@10:
  001da	c6 45 e5 ec	 mov	 BYTE PTR __t$[ebp+1], -20 ; ffffffecH
  001de	eb 04		 jmp	 SHORT $LN1@operator@10
$LN96@operator@10:
  001e0	c6 45 e4 ed	 mov	 BYTE PTR __t$[ebp], -19	; ffffffedH
$LN1@operator@10:
  001e4	6a 04		 push	 4
  001e6	8d 45 e4	 lea	 eax, DWORD PTR __t$[ebp]
  001e9	c6 45 f5 00	 mov	 BYTE PTR __t$[ebp+17], 0
  001ed	5a		 pop	 edx
$LL104@operator@10:
  001ee	81 30 ed ec eb
	ea		 xor	 DWORD PTR [eax], -353637139 ; eaebecedH
  001f4	83 c0 04	 add	 eax, 4
  001f7	4a		 dec	 edx
  001f8	75 f4		 jne	 SHORT $LL104@operator@10
  001fa	80 75 f4 ed	 xor	 BYTE PTR __t$[ebp+16], -19 ; ffffffedH
  001fe	8b cf		 mov	 ecx, edi
  00200	8d 75 e4	 lea	 esi, DWORD PTR __t$[ebp]
  00203	ff 15 00 00 00
	00		 call	 DWORD PTR __imp_?c_str@ioHashString@@QBEPBDXZ
$LL111@operator@10:
  00209	8a 08		 mov	 cl, BYTE PTR [eax]
  0020b	3a 0e		 cmp	 cl, BYTE PTR [esi]
  0020d	75 1a		 jne	 SHORT $LN112@operator@10
  0020f	84 c9		 test	 cl, cl
  00211	74 12		 je	 SHORT $LN113@operator@10
  00213	8a 48 01	 mov	 cl, BYTE PTR [eax+1]
  00216	3a 4e 01	 cmp	 cl, BYTE PTR [esi+1]
  00219	75 0e		 jne	 SHORT $LN112@operator@10
  0021b	83 c0 02	 add	 eax, 2
  0021e	83 c6 02	 add	 esi, 2
  00221	84 c9		 test	 cl, cl
  00223	75 e4		 jne	 SHORT $LL111@operator@10
$LN113@operator@10:
  00225	33 c0		 xor	 eax, eax
  00227	eb 05		 jmp	 SHORT $LN114@operator@10
$LN112@operator@10:
  00229	1b c0		 sbb	 eax, eax
  0022b	83 d8 ff	 sbb	 eax, -1
$LN114@operator@10:
  0022e	33 c9		 xor	 ecx, ecx
  00230	85 c0		 test	 eax, eax
  00232	0f 94 c0	 sete	 al

; 148  : }

  00235	8b 4d fc	 mov	 ecx, DWORD PTR __$ArrayPad$[ebp]
  00238	5f		 pop	 edi
  00239	33 cd		 xor	 ecx, ebp
  0023b	5e		 pop	 esi
  0023c	e8 00 00 00 00	 call	 @__security_check_cookie@4
  00241	c9		 leave
  00242	c3		 ret	 0
??$?8$0BC@@@YA_NABVioHashString@@AAY0BC@$$CBD@Z ENDP	; operator==<18>
_TEXT	ENDS
PUBLIC	__$ArrayPad$
PUBLIC	??$?8$08@@YA_NABVioHashString@@AAY08$$CBD@Z	; operator==<9>
; Function compile flags: /Ogsp
;	COMDAT ??$?8$08@@YA_NABVioHashString@@AAY08$$CBD@Z
_TEXT	SEGMENT
__t$ = -20						; size = 9
__$ArrayPad$ = -4					; size = 4
_lhs$ = 8						; size = 4
_t$ = 12						; size = 4
??$?8$08@@YA_NABVioHashString@@AAY08$$CBD@Z PROC	; operator==<9>, COMDAT

; 146  : {

  00000	55		 push	 ebp
  00001	8b ec		 mov	 ebp, esp
  00003	83 ec 14	 sub	 esp, 20			; 00000014H
  00006	a1 00 00 00 00	 mov	 eax, DWORD PTR ___security_cookie
  0000b	33 c5		 xor	 eax, ebp
  0000d	89 45 fc	 mov	 DWORD PTR __$ArrayPad$[ebp], eax
  00010	8b 45 0c	 mov	 eax, DWORD PTR _t$[ebp]

; 147  : 	_ENCSTR(t, _t); return ( strcmp( lhs.c_str(), _t ) == 0 );

  00013	8a 10		 mov	 dl, BYTE PTR [eax]
  00015	8b 4d 08	 mov	 ecx, DWORD PTR _lhs$[ebp]
  00018	84 d2		 test	 dl, dl
  0001a	0f 84 ee 00 00
	00		 je	 $LN96@operator@11
  00020	80 f2 ed	 xor	 dl, -19			; ffffffedH
  00023	88 55 ec	 mov	 BYTE PTR __t$[ebp], dl
  00026	8a 50 01	 mov	 dl, BYTE PTR [eax+1]
  00029	84 d2		 test	 dl, dl
  0002b	0f 84 d7 00 00
	00		 je	 $LN95@operator@11
  00031	80 f2 ec	 xor	 dl, -20			; ffffffecH
  00034	88 55 ed	 mov	 BYTE PTR __t$[ebp+1], dl
  00037	8a 50 02	 mov	 dl, BYTE PTR [eax+2]
  0003a	84 d2		 test	 dl, dl
  0003c	0f 84 c0 00 00
	00		 je	 $LN94@operator@11
  00042	80 f2 eb	 xor	 dl, -21			; ffffffebH
  00045	88 55 ee	 mov	 BYTE PTR __t$[ebp+2], dl
  00048	8a 50 03	 mov	 dl, BYTE PTR [eax+3]
  0004b	84 d2		 test	 dl, dl
  0004d	0f 84 a9 00 00
	00		 je	 $LN93@operator@11
  00053	80 f2 ea	 xor	 dl, -22			; ffffffeaH
  00056	88 55 ef	 mov	 BYTE PTR __t$[ebp+3], dl
  00059	8a 50 04	 mov	 dl, BYTE PTR [eax+4]
  0005c	84 d2		 test	 dl, dl
  0005e	0f 84 92 00 00
	00		 je	 $LN92@operator@11
  00064	80 f2 ed	 xor	 dl, -19			; ffffffedH
  00067	88 55 f0	 mov	 BYTE PTR __t$[ebp+4], dl
  0006a	8a 50 05	 mov	 dl, BYTE PTR [eax+5]
  0006d	84 d2		 test	 dl, dl
  0006f	74 7f		 je	 SHORT $LN91@operator@11
  00071	80 f2 ec	 xor	 dl, -20			; ffffffecH
  00074	88 55 f1	 mov	 BYTE PTR __t$[ebp+5], dl
  00077	8a 50 06	 mov	 dl, BYTE PTR [eax+6]
  0007a	84 d2		 test	 dl, dl
  0007c	74 6c		 je	 SHORT $LN90@operator@11
  0007e	80 f2 eb	 xor	 dl, -21			; ffffffebH
  00081	88 55 f2	 mov	 BYTE PTR __t$[ebp+6], dl
  00084	8a 50 07	 mov	 dl, BYTE PTR [eax+7]
  00087	84 d2		 test	 dl, dl
  00089	74 59		 je	 SHORT $LN89@operator@11
  0008b	80 f2 ea	 xor	 dl, -22			; ffffffeaH
  0008e	80 78 08 00	 cmp	 BYTE PTR [eax+8], 0
  00092	88 55 f3	 mov	 BYTE PTR __t$[ebp+7], dl
  00095	74 7b		 je	 SHORT $LN1@operator@11
  00097	8a 50 09	 mov	 dl, BYTE PTR [eax+9]
  0009a	84 d2		 test	 dl, dl
  0009c	74 40		 je	 SHORT $LN87@operator@11
  0009e	80 f2 ec	 xor	 dl, -20			; ffffffecH
  000a1	88 55 f5	 mov	 BYTE PTR __t$[ebp+9], dl
  000a4	8a 50 0a	 mov	 dl, BYTE PTR [eax+10]
  000a7	84 d2		 test	 dl, dl
  000a9	74 2d		 je	 SHORT $LN86@operator@11
  000ab	80 f2 eb	 xor	 dl, -21			; ffffffebH
  000ae	88 55 f6	 mov	 BYTE PTR __t$[ebp+10], dl
  000b1	8a 50 0b	 mov	 dl, BYTE PTR [eax+11]
  000b4	84 d2		 test	 dl, dl
  000b6	74 1a		 je	 SHORT $LN85@operator@11
  000b8	8a 40 0c	 mov	 al, BYTE PTR [eax+12]
  000bb	80 f2 ea	 xor	 dl, -22			; ffffffeaH
  000be	88 55 f7	 mov	 BYTE PTR __t$[ebp+11], dl
  000c1	84 c0		 test	 al, al
  000c3	74 07		 je	 SHORT $LN84@operator@11
  000c5	34 ed		 xor	 al, -19			; ffffffedH
  000c7	88 45 f8	 mov	 BYTE PTR __t$[ebp+12], al
  000ca	eb 46		 jmp	 SHORT $LN1@operator@11
$LN84@operator@11:
  000cc	c6 45 f8 ed	 mov	 BYTE PTR __t$[ebp+12], -19 ; ffffffedH
  000d0	eb 40		 jmp	 SHORT $LN1@operator@11
$LN85@operator@11:
  000d2	c6 45 f7 ea	 mov	 BYTE PTR __t$[ebp+11], -22 ; ffffffeaH
  000d6	eb 3a		 jmp	 SHORT $LN1@operator@11
$LN86@operator@11:
  000d8	c6 45 f6 eb	 mov	 BYTE PTR __t$[ebp+10], -21 ; ffffffebH
  000dc	eb 34		 jmp	 SHORT $LN1@operator@11
$LN87@operator@11:
  000de	c6 45 f5 ec	 mov	 BYTE PTR __t$[ebp+9], -20 ; ffffffecH
  000e2	eb 2e		 jmp	 SHORT $LN1@operator@11
$LN89@operator@11:
  000e4	c6 45 f3 ea	 mov	 BYTE PTR __t$[ebp+7], -22 ; ffffffeaH
  000e8	eb 28		 jmp	 SHORT $LN1@operator@11
$LN90@operator@11:
  000ea	c6 45 f2 eb	 mov	 BYTE PTR __t$[ebp+6], -21 ; ffffffebH
  000ee	eb 22		 jmp	 SHORT $LN1@operator@11
$LN91@operator@11:
  000f0	c6 45 f1 ec	 mov	 BYTE PTR __t$[ebp+5], -20 ; ffffffecH
  000f4	eb 1c		 jmp	 SHORT $LN1@operator@11
$LN92@operator@11:
  000f6	c6 45 f0 ed	 mov	 BYTE PTR __t$[ebp+4], -19 ; ffffffedH
  000fa	eb 16		 jmp	 SHORT $LN1@operator@11
$LN93@operator@11:
  000fc	c6 45 ef ea	 mov	 BYTE PTR __t$[ebp+3], -22 ; ffffffeaH
  00100	eb 10		 jmp	 SHORT $LN1@operator@11
$LN94@operator@11:
  00102	c6 45 ee eb	 mov	 BYTE PTR __t$[ebp+2], -21 ; ffffffebH
  00106	eb 0a		 jmp	 SHORT $LN1@operator@11
$LN95@operator@11:
  00108	c6 45 ed ec	 mov	 BYTE PTR __t$[ebp+1], -20 ; ffffffecH
  0010c	eb 04		 jmp	 SHORT $LN1@operator@11
$LN96@operator@11:
  0010e	c6 45 ec ed	 mov	 BYTE PTR __t$[ebp], -19	; ffffffedH
$LN1@operator@11:
  00112	6a 02		 push	 2
  00114	8d 45 ec	 lea	 eax, DWORD PTR __t$[ebp]
  00117	c6 45 f4 00	 mov	 BYTE PTR __t$[ebp+8], 0
  0011b	5a		 pop	 edx
$LL104@operator@11:
  0011c	81 30 ed ec eb
	ea		 xor	 DWORD PTR [eax], -353637139 ; eaebecedH
  00122	83 c0 04	 add	 eax, 4
  00125	4a		 dec	 edx
  00126	75 f4		 jne	 SHORT $LL104@operator@11
  00128	56		 push	 esi
  00129	8d 75 ec	 lea	 esi, DWORD PTR __t$[ebp]
  0012c	ff 15 00 00 00
	00		 call	 DWORD PTR __imp_?c_str@ioHashString@@QBEPBDXZ
$LL111@operator@11:
  00132	8a 08		 mov	 cl, BYTE PTR [eax]
  00134	3a 0e		 cmp	 cl, BYTE PTR [esi]
  00136	75 1a		 jne	 SHORT $LN112@operator@11
  00138	84 c9		 test	 cl, cl
  0013a	74 12		 je	 SHORT $LN113@operator@11
  0013c	8a 48 01	 mov	 cl, BYTE PTR [eax+1]
  0013f	3a 4e 01	 cmp	 cl, BYTE PTR [esi+1]
  00142	75 0e		 jne	 SHORT $LN112@operator@11
  00144	83 c0 02	 add	 eax, 2
  00147	83 c6 02	 add	 esi, 2
  0014a	84 c9		 test	 cl, cl
  0014c	75 e4		 jne	 SHORT $LL111@operator@11
$LN113@operator@11:
  0014e	33 c0		 xor	 eax, eax
  00150	eb 05		 jmp	 SHORT $LN114@operator@11
$LN112@operator@11:
  00152	1b c0		 sbb	 eax, eax
  00154	83 d8 ff	 sbb	 eax, -1
$LN114@operator@11:
  00157	33 c9		 xor	 ecx, ecx
  00159	85 c0		 test	 eax, eax
  0015b	0f 94 c0	 sete	 al

; 148  : }

  0015e	8b 4d fc	 mov	 ecx, DWORD PTR __$ArrayPad$[ebp]
  00161	33 cd		 xor	 ecx, ebp
  00163	5e		 pop	 esi
  00164	e8 00 00 00 00	 call	 @__security_check_cookie@4
  00169	c9		 leave
  0016a	c3		 ret	 0
??$?8$08@@YA_NABVioHashString@@AAY08$$CBD@Z ENDP	; operator==<9>
_TEXT	ENDS
PUBLIC	??$_Cons_val@V?$allocator@PAVMenuBase@@@std@@PAVMenuBase@@AAPAV3@@std@@YAXAAV?$allocator@PAVMenuBase@@@0@PAPAVMenuBase@@AAPAV2@@Z ; std::_Cons_val<std::allocator<MenuBase *>,MenuBase *,MenuBase * &>
; Function compile flags: /Ogsp
; File c:\program files (x86)\microsoft visual studio 10.0\vc\include\xmemory
;	COMDAT ??$_Cons_val@V?$allocator@PAVMenuBase@@@std@@PAVMenuBase@@AAPAV3@@std@@YAXAAV?$allocator@PAVMenuBase@@@0@PAPAVMenuBase@@AAPAV2@@Z
_TEXT	SEGMENT
__Alval$ = 8						; size = 4
__Pdest$ = 12						; size = 4
__Src$ = 16						; size = 4
??$_Cons_val@V?$allocator@PAVMenuBase@@@std@@PAVMenuBase@@AAPAV3@@std@@YAXAAV?$allocator@PAVMenuBase@@@0@PAPAVMenuBase@@AAPAV2@@Z PROC ; std::_Cons_val<std::allocator<MenuBase *>,MenuBase *,MenuBase * &>, COMDAT

; 279  : 	{	// construct using allocator

  00000	55		 push	 ebp
  00001	8b ec		 mov	 ebp, esp

; 280  : 	_Alval.construct(_Pdest, _STD forward<_Ty2>(_Src));

  00003	8b 45 0c	 mov	 eax, DWORD PTR __Pdest$[ebp]
  00006	85 c0		 test	 eax, eax
  00008	74 07		 je	 SHORT $LN7@Cons_val
  0000a	8b 4d 10	 mov	 ecx, DWORD PTR __Src$[ebp]
  0000d	8b 09		 mov	 ecx, DWORD PTR [ecx]
  0000f	89 08		 mov	 DWORD PTR [eax], ecx
$LN7@Cons_val:

; 281  : 	}

  00011	5d		 pop	 ebp
  00012	c3		 ret	 0
??$_Cons_val@V?$allocator@PAVMenuBase@@@std@@PAVMenuBase@@AAPAV3@@std@@YAXAAV?$allocator@PAVMenuBase@@@0@PAPAVMenuBase@@AAPAV2@@Z ENDP ; std::_Cons_val<std::allocator<MenuBase *>,MenuBase *,MenuBase * &>
_TEXT	ENDS
PUBLIC	??$_Destroy_range@V?$allocator@PAVMenuBase@@@std@@@std@@YAXPAPAVMenuBase@@0AAV?$allocator@PAVMenuBase@@@0@@Z ; std::_Destroy_range<std::allocator<MenuBase *> >
; Function compile flags: /Ogsp
;	COMDAT ??$_Destroy_range@V?$allocator@PAVMenuBase@@@std@@@std@@YAXPAPAVMenuBase@@0AAV?$allocator@PAVMenuBase@@@0@@Z
_TEXT	SEGMENT
__First$ = 8						; size = 4
__Last$ = 12						; size = 4
__Al$ = 16						; size = 4
??$_Destroy_range@V?$allocator@PAVMenuBase@@@std@@@std@@YAXPAPAVMenuBase@@0AAV?$allocator@PAVMenuBase@@@0@@Z PROC ; std::_Destroy_range<std::allocator<MenuBase *> >, COMDAT

; 88   : 	_Destroy_range(_First, _Last, _Al, _Ptr_cat(_First, _Last));
; 89   : 	}

  00000	c3		 ret	 0
??$_Destroy_range@V?$allocator@PAVMenuBase@@@std@@@std@@YAXPAPAVMenuBase@@0AAV?$allocator@PAVMenuBase@@@0@@Z ENDP ; std::_Destroy_range<std::allocator<MenuBase *> >
_TEXT	ENDS
PUBLIC	?construct@?$allocator@PAVMenuBase@@@std@@QAEXPAPAVMenuBase@@ABQAV3@@Z ; std::allocator<MenuBase *>::construct
; Function compile flags: /Ogsp
;	COMDAT ?construct@?$allocator@PAVMenuBase@@@std@@QAEXPAPAVMenuBase@@ABQAV3@@Z
_TEXT	SEGMENT
__Ptr$ = 8						; size = 4
__Val$ = 12						; size = 4
?construct@?$allocator@PAVMenuBase@@@std@@QAEXPAPAVMenuBase@@ABQAV3@@Z PROC ; std::allocator<MenuBase *>::construct, COMDAT
; _this$ = ecx

; 196  : 		{	// construct object at _Ptr with value _Val

  00000	55		 push	 ebp
  00001	8b ec		 mov	 ebp, esp

; 197  : 		_Construct(_Ptr, _Val);

  00003	8b 45 08	 mov	 eax, DWORD PTR __Ptr$[ebp]
  00006	85 c0		 test	 eax, eax
  00008	74 07		 je	 SHORT $LN5@construct@2
  0000a	8b 4d 0c	 mov	 ecx, DWORD PTR __Val$[ebp]
  0000d	8b 09		 mov	 ecx, DWORD PTR [ecx]
  0000f	89 08		 mov	 DWORD PTR [eax], ecx
$LN5@construct@2:

; 198  : 		}

  00011	5d		 pop	 ebp
  00012	c2 08 00	 ret	 8
?construct@?$allocator@PAVMenuBase@@@std@@QAEXPAPAVMenuBase@@ABQAV3@@Z ENDP ; std::allocator<MenuBase *>::construct
_TEXT	ENDS
PUBLIC	??$_Uninitialized_move@PAPAVMenuBase@@PAPAV1@V?$allocator@PAVMenuBase@@@std@@@std@@YAPAPAVMenuBase@@PAPAV1@00AAV?$allocator@PAVMenuBase@@@0@@Z ; std::_Uninitialized_move<MenuBase * *,MenuBase * *,std::allocator<MenuBase *> >
; Function compile flags: /Ogsp
; File c:\program files (x86)\microsoft visual studio 10.0\vc\include\memory
;	COMDAT ??$_Uninitialized_move@PAPAVMenuBase@@PAPAV1@V?$allocator@PAVMenuBase@@@std@@@std@@YAPAPAVMenuBase@@PAPAV1@00AAV?$allocator@PAVMenuBase@@@0@@Z
_TEXT	SEGMENT
__First$ = 8						; size = 4
__Last$ = 12						; size = 4
__Dest$ = 16						; size = 4
__Al$ = 20						; size = 4
??$_Uninitialized_move@PAPAVMenuBase@@PAPAV1@V?$allocator@PAVMenuBase@@@std@@@std@@YAPAPAVMenuBase@@PAPAV1@00AAV?$allocator@PAVMenuBase@@@0@@Z PROC ; std::_Uninitialized_move<MenuBase * *,MenuBase * *,std::allocator<MenuBase *> >, COMDAT

; 469  : 	{	// move [_First, _Last) to raw _Dest, using _Al

  00000	55		 push	 ebp
  00001	8b ec		 mov	 ebp, esp
  00003	56		 push	 esi

; 470  : 	return (_Uninit_move(_First, _Last, _Dest, _Al,
; 471  : 		_Val_type(_First), _Ptr_cat(_First, _Dest)));

  00004	8b 75 0c	 mov	 esi, DWORD PTR __Last$[ebp]
  00007	2b 75 08	 sub	 esi, DWORD PTR __First$[ebp]
  0000a	c1 fe 02	 sar	 esi, 2
  0000d	c1 e6 02	 shl	 esi, 2
  00010	56		 push	 esi
  00011	ff 75 08	 push	 DWORD PTR __First$[ebp]
  00014	ff 75 10	 push	 DWORD PTR __Dest$[ebp]
  00017	ff 15 00 00 00
	00		 call	 DWORD PTR __imp__memmove
  0001d	83 c4 0c	 add	 esp, 12			; 0000000cH
  00020	03 c6		 add	 eax, esi
  00022	5e		 pop	 esi

; 472  : 	}

  00023	5d		 pop	 ebp
  00024	c3		 ret	 0
??$_Uninitialized_move@PAPAVMenuBase@@PAPAV1@V?$allocator@PAVMenuBase@@@std@@@std@@YAPAPAVMenuBase@@PAPAV1@00AAV?$allocator@PAVMenuBase@@@0@@Z ENDP ; std::_Uninitialized_move<MenuBase * *,MenuBase * *,std::allocator<MenuBase *> >
_TEXT	ENDS
PUBLIC	?GetMaxPresent@ioPresentMgr@@QAEHXZ		; ioPresentMgr::GetMaxPresent
; Function compile flags: /Ogsp
; File d:\lost saga for developer\youtube\tutorial\source\src\lsclient\iopresentmgr.h
;	COMDAT ?GetMaxPresent@ioPresentMgr@@QAEHXZ
_TEXT	SEGMENT
?GetMaxPresent@ioPresentMgr@@QAEHXZ PROC		; ioPresentMgr::GetMaxPresent, COMDAT
; _this$ = ecx

; 163  : 	int GetMaxPresent(){ return m_vPresentList.size(); }

  00000	8b 41 08	 mov	 eax, DWORD PTR [ecx+8]
  00003	2b 41 04	 sub	 eax, DWORD PTR [ecx+4]
  00006	6a 34		 push	 52			; 00000034H
  00008	99		 cdq
  00009	59		 pop	 ecx
  0000a	f7 f9		 idiv	 ecx
  0000c	c3		 ret	 0
?GetMaxPresent@ioPresentMgr@@QAEHXZ ENDP		; ioPresentMgr::GetMaxPresent
_TEXT	ENDS
PUBLIC	??B?$CEncrypt@K@@QAEKXZ				; CEncrypt<unsigned long>::operator unsigned long
; Function compile flags: /Ogsp
; File d:\lost saga for developer\youtube\tutorial\source\src\lsclient\encryptvalue.h
;	COMDAT ??B?$CEncrypt@K@@QAEKXZ
_TEXT	SEGMENT
_value$ = -4						; size = 4
??B?$CEncrypt@K@@QAEKXZ PROC				; CEncrypt<unsigned long>::operator unsigned long, COMDAT
; _this$ = ecx

; 134  : 	{

  00000	55		 push	 ebp
  00001	8b ec		 mov	 ebp, esp
  00003	51		 push	 ecx

; 135  : 		type value;
; 136  : 		DecryptValueToPool(&value);

  00004	8d 45 fc	 lea	 eax, DWORD PTR _value$[ebp]
  00007	50		 push	 eax
  00008	e8 00 00 00 00	 call	 ?DecryptValueToPool@?$CEncrypt@K@@QAEXPAK@Z ; CEncrypt<unsigned long>::DecryptValueToPool

; 137  : 
; 138  : #ifdef _NOTUSE
; 139  : 		Debug();
; 140  : #endif
; 141  : 		return value;

  0000d	8b 45 fc	 mov	 eax, DWORD PTR _value$[ebp]

; 142  : 	}

  00010	c9		 leave
  00011	c3		 ret	 0
??B?$CEncrypt@K@@QAEKXZ ENDP				; CEncrypt<unsigned long>::operator unsigned long
_TEXT	ENDS
PUBLIC	??B?$CEncrypt@W4ModeType@@@@QAE?AW4ModeType@@XZ	; CEncrypt<enum ModeType>::operator enum ModeType
; Function compile flags: /Ogsp
;	COMDAT ??B?$CEncrypt@W4ModeType@@@@QAE?AW4ModeType@@XZ
_TEXT	SEGMENT
_value$ = -4						; size = 4
??B?$CEncrypt@W4ModeType@@@@QAE?AW4ModeType@@XZ PROC	; CEncrypt<enum ModeType>::operator enum ModeType, COMDAT
; _this$ = ecx

; 134  : 	{

  00000	55		 push	 ebp
  00001	8b ec		 mov	 ebp, esp
  00003	51		 push	 ecx

; 135  : 		type value;
; 136  : 		DecryptValueToPool(&value);

  00004	8d 45 fc	 lea	 eax, DWORD PTR _value$[ebp]
  00007	50		 push	 eax
  00008	e8 00 00 00 00	 call	 ?DecryptValueToPool@?$CEncrypt@W4ModeType@@@@QAEXPAW4ModeType@@@Z ; CEncrypt<enum ModeType>::DecryptValueToPool

; 137  : 
; 138  : #ifdef _NOTUSE
; 139  : 		Debug();
; 140  : #endif
; 141  : 		return value;

  0000d	8b 45 fc	 mov	 eax, DWORD PTR _value$[ebp]

; 142  : 	}

  00010	c9		 leave
  00011	c3		 ret	 0
??B?$CEncrypt@W4ModeType@@@@QAE?AW4ModeType@@XZ ENDP	; CEncrypt<enum ModeType>::operator enum ModeType
_TEXT	ENDS
PUBLIC	?GetChatModeState@ioBaseChar@@QBE?AW4ChatModeState@@XZ ; ioBaseChar::GetChatModeState
; Function compile flags: /Ogsp
; File d:\lost saga for developer\youtube\tutorial\source\src\lsclient\iobasechar.h
;	COMDAT ?GetChatModeState@ioBaseChar@@QBE?AW4ChatModeState@@XZ
_TEXT	SEGMENT
_value$564153 = -4					; size = 4
?GetChatModeState@ioBaseChar@@QBE?AW4ChatModeState@@XZ PROC ; ioBaseChar::GetChatModeState, COMDAT
; _this$ = ecx

; 3183 : 	inline ChatModeState GetChatModeState() const { return m_ChatModeState; }

  00000	55		 push	 ebp
  00001	8b ec		 mov	 ebp, esp
  00003	51		 push	 ecx
  00004	8d 45 fc	 lea	 eax, DWORD PTR _value$564153[ebp]
  00007	50		 push	 eax
  00008	81 c1 60 1d 00
	00		 add	 ecx, 7520		; 00001d60H
  0000e	e8 00 00 00 00	 call	 ?DecryptValueToPool@?$CEncrypt@W4ChatModeState@@@@QAEXPAW4ChatModeState@@@Z ; CEncrypt<enum ChatModeState>::DecryptValueToPool
  00013	8b 45 fc	 mov	 eax, DWORD PTR _value$564153[ebp]
  00016	c9		 leave
  00017	c3		 ret	 0
?GetChatModeState@ioBaseChar@@QBE?AW4ChatModeState@@XZ ENDP ; ioBaseChar::GetChatModeState
_TEXT	ENDS
PUBLIC	_pFrame$GSCopy$
PUBLIC	_this$GSCopy$
PUBLIC	_szType$GSCopy$
PUBLIC	__$ArrayPad$
EXTRN	__imp_?AddRenderFrame@ioButton@@UAEXABVioHashString@@PAVioUIRenderFrame@@@Z:PROC
; Function compile flags: /Ogsp
; File d:\lost saga for developer\youtube\tutorial\source\src\lsclient\gui\helpwnd.cpp
;	COMDAT ?AddRenderFrame@MenuBase@@MAEXABVioHashString@@PAVioUIRenderFrame@@@Z
_TEXT	SEGMENT
_pFrame$GSCopy$ = -36					; size = 4
_this$GSCopy$ = -32					; size = 4
_szType$GSCopy$ = -28					; size = 4
__t$565484 = -24					; size = 11
__t$565096 = -24					; size = 11
__t$564971 = -24					; size = 14
__t$564846 = -24					; size = 11
__t$564721 = -24					; size = 13
__t$564484 = -24					; size = 13
__t$564221 = -24					; size = 12
__t$565609 = -20					; size = 8
__t$565359 = -20					; size = 8
__t$565221 = -20					; size = 10
__t$564596 = -20					; size = 10
__t$564359 = -20					; size = 10
__$ArrayPad$ = -4					; size = 4
_szType$ = 8						; size = 4
_pFrame$ = 12						; size = 4
?AddRenderFrame@MenuBase@@MAEXABVioHashString@@PAVioUIRenderFrame@@@Z PROC ; MenuBase::AddRenderFrame, COMDAT
; _this$ = ecx

; 108  : {

  00000	55		 push	 ebp
  00001	8b ec		 mov	 ebp, esp
  00003	83 ec 24	 sub	 esp, 36			; 00000024H
  00006	a1 00 00 00 00	 mov	 eax, DWORD PTR ___security_cookie
  0000b	33 c5		 xor	 eax, ebp
  0000d	89 45 fc	 mov	 DWORD PTR __$ArrayPad$[ebp], eax
  00010	8b 45 08	 mov	 eax, DWORD PTR _szType$[ebp]
  00013	53		 push	 ebx
  00014	56		 push	 esi
  00015	57		 push	 edi

; 163  : 	}
; 164  : 	else if( szType == "EndPush" )

  00016	89 45 e4	 mov	 DWORD PTR _szType$GSCopy$[ebp], eax
  00019	8b 45 0c	 mov	 eax, DWORD PTR _pFrame$[ebp]
  0001c	6a 02		 push	 2
  0001e	89 4d e0	 mov	 DWORD PTR _this$GSCopy$[ebp], ecx
  00021	89 45 dc	 mov	 DWORD PTR _pFrame$GSCopy$[ebp], eax
  00024	c7 45 e8 be 98
	8a 98		 mov	 DWORD PTR __t$564221[ebp], -1735747394 ; 988a98beH
  0002b	c7 45 ec 99 a2
	99 85		 mov	 DWORD PTR __t$564221[ebp+4], -2053528935 ; 8599a299H
  00032	8d 45 e8	 lea	 eax, DWORD PTR __t$564221[ebp]
  00035	33 db		 xor	 ebx, ebx
  00037	c7 45 f0 80 8d
	87 00		 mov	 DWORD PTR __t$564221[ebp+8], 8883584 ; 00878d80H
  0003e	59		 pop	 ecx
  0003f	bf ed ec eb ea	 mov	 edi, -353637139		; eaebecedH
$LL166@AddRenderF:

; 109  : 	if( szType == "StartNromal" )

  00044	31 38		 xor	 DWORD PTR [eax], edi
  00046	83 c0 04	 add	 eax, 4
  00049	49		 dec	 ecx
  0004a	75 f8		 jne	 SHORT $LL166@AddRenderF
  0004c	6a 08		 push	 8
  0004e	58		 pop	 eax
$LL163@AddRenderF:
  0004f	8b c8		 mov	 ecx, eax
  00051	81 e1 03 00 00
	80		 and	 ecx, -2147483645	; 80000003H
  00057	79 05		 jns	 SHORT $LN1448@AddRenderF
  00059	49		 dec	 ecx
  0005a	83 c9 fc	 or	 ecx, -4			; fffffffcH
  0005d	41		 inc	 ecx
$LN1448@AddRenderF:
  0005e	b2 ed		 mov	 dl, -19			; ffffffedH
  00060	2a d1		 sub	 dl, cl
  00062	30 54 05 e8	 xor	 BYTE PTR __t$564221[ebp+eax], dl
  00066	40		 inc	 eax
  00067	83 f8 0b	 cmp	 eax, 11			; 0000000bH
  0006a	7c e3		 jl	 SHORT $LL163@AddRenderF
  0006c	8b 4d e4	 mov	 ecx, DWORD PTR _szType$GSCopy$[ebp]
  0006f	8d 75 e8	 lea	 esi, DWORD PTR __t$564221[ebp]
  00072	ff 15 00 00 00
	00		 call	 DWORD PTR __imp_?c_str@ioHashString@@QBEPBDXZ
$LL1394@AddRenderF:
  00078	8a 08		 mov	 cl, BYTE PTR [eax]
  0007a	3a 0e		 cmp	 cl, BYTE PTR [esi]
  0007c	75 1a		 jne	 SHORT $LN1395@AddRenderF
  0007e	3a cb		 cmp	 cl, bl
  00080	74 12		 je	 SHORT $LN1442@AddRenderF
  00082	8a 48 01	 mov	 cl, BYTE PTR [eax+1]
  00085	3a 4e 01	 cmp	 cl, BYTE PTR [esi+1]
  00088	75 0e		 jne	 SHORT $LN1395@AddRenderF
  0008a	83 c0 02	 add	 eax, 2
  0008d	83 c6 02	 add	 esi, 2
  00090	3a cb		 cmp	 cl, bl
  00092	75 e4		 jne	 SHORT $LL1394@AddRenderF
$LN1442@AddRenderF:
  00094	33 c0		 xor	 eax, eax
  00096	eb 05		 jmp	 SHORT $LN1397@AddRenderF
$LN1395@AddRenderF:
  00098	1b c0		 sbb	 eax, eax
  0009a	83 d8 ff	 sbb	 eax, -1
$LN1397@AddRenderF:
  0009d	3b c3		 cmp	 eax, ebx
  0009f	75 28		 jne	 SHORT $LN1383@AddRenderF

; 110  : 	{
; 111  : 		SAFEDELETE( m_pStartNromal );

  000a1	8b 75 e0	 mov	 esi, DWORD PTR _this$GSCopy$[ebp]
  000a4	8b 8e fc 01 00
	00		 mov	 ecx, DWORD PTR [esi+508]
  000aa	3b cb		 cmp	 ecx, ebx
  000ac	74 0d		 je	 SHORT $LN35@AddRenderF
  000ae	8b 01		 mov	 eax, DWORD PTR [ecx]
  000b0	6a 01		 push	 1
  000b2	ff 50 40	 call	 DWORD PTR [eax+64]
  000b5	89 9e fc 01 00
	00		 mov	 DWORD PTR [esi+508], ebx
$LN35@AddRenderF:

; 112  : 		m_pStartNromal = pFrame;

  000bb	8b 45 dc	 mov	 eax, DWORD PTR _pFrame$GSCopy$[ebp]
  000be	89 86 fc 01 00
	00		 mov	 DWORD PTR [esi+508], eax
  000c4	e9 27 06 00 00	 jmp	 $LN1@AddRenderF
$LN1383@AddRenderF:

; 113  : 	}
; 114  : 	else if( szType == "StartOver" )

  000c9	6a 02		 push	 2
  000cb	c7 45 ec be 98
	8a 98		 mov	 DWORD PTR __t$564359[ebp], -1735747394 ; 988a98beH
  000d2	c7 45 f0 99 a3
	9d 8f		 mov	 DWORD PTR __t$564359[ebp+4], -1885494375 ; 8f9da399H
  000d9	8d 45 ec	 lea	 eax, DWORD PTR __t$564359[ebp]
  000dc	66 c7 45 f4 9f
	00		 mov	 WORD PTR __t$564359[ebp+8], 159 ; 0000009fH
  000e2	59		 pop	 ecx
$LL272@AddRenderF:
  000e3	31 38		 xor	 DWORD PTR [eax], edi
  000e5	83 c0 04	 add	 eax, 4
  000e8	49		 dec	 ecx
  000e9	75 f8		 jne	 SHORT $LL272@AddRenderF
  000eb	8b 4d e4	 mov	 ecx, DWORD PTR _szType$GSCopy$[ebp]
  000ee	80 75 f4 ed	 xor	 BYTE PTR __t$564359[ebp+8], -19 ; ffffffedH
  000f2	8d 75 ec	 lea	 esi, DWORD PTR __t$564359[ebp]
  000f5	ff 15 00 00 00
	00		 call	 DWORD PTR __imp_?c_str@ioHashString@@QBEPBDXZ
$LL1398@AddRenderF:
  000fb	8a 08		 mov	 cl, BYTE PTR [eax]
  000fd	3a 0e		 cmp	 cl, BYTE PTR [esi]
  000ff	75 1a		 jne	 SHORT $LN1399@AddRenderF
  00101	3a cb		 cmp	 cl, bl
  00103	74 12		 je	 SHORT $LN1400@AddRenderF
  00105	8a 48 01	 mov	 cl, BYTE PTR [eax+1]
  00108	3a 4e 01	 cmp	 cl, BYTE PTR [esi+1]
  0010b	75 0e		 jne	 SHORT $LN1399@AddRenderF
  0010d	83 c0 02	 add	 eax, 2
  00110	83 c6 02	 add	 esi, 2
  00113	3a cb		 cmp	 cl, bl
  00115	75 e4		 jne	 SHORT $LL1398@AddRenderF
$LN1400@AddRenderF:
  00117	33 c0		 xor	 eax, eax
  00119	eb 05		 jmp	 SHORT $LN1401@AddRenderF
$LN1399@AddRenderF:
  0011b	1b c0		 sbb	 eax, eax
  0011d	83 d8 ff	 sbb	 eax, -1
$LN1401@AddRenderF:
  00120	3b c3		 cmp	 eax, ebx
  00122	75 28		 jne	 SHORT $LN1384@AddRenderF

; 115  : 	{
; 116  : 		SAFEDELETE( m_pStartOver );

  00124	8b 75 e0	 mov	 esi, DWORD PTR _this$GSCopy$[ebp]
  00127	8b 8e 00 02 00
	00		 mov	 ecx, DWORD PTR [esi+512]
  0012d	3b cb		 cmp	 ecx, ebx
  0012f	74 0d		 je	 SHORT $LN32@AddRenderF
  00131	8b 01		 mov	 eax, DWORD PTR [ecx]
  00133	6a 01		 push	 1
  00135	ff 50 40	 call	 DWORD PTR [eax+64]
  00138	89 9e 00 02 00
	00		 mov	 DWORD PTR [esi+512], ebx
$LN32@AddRenderF:

; 117  : 		m_pStartOver = pFrame;

  0013e	8b 45 dc	 mov	 eax, DWORD PTR _pFrame$GSCopy$[ebp]
  00141	89 86 00 02 00
	00		 mov	 DWORD PTR [esi+512], eax
  00147	e9 a4 05 00 00	 jmp	 $LN1@AddRenderF
$LN1384@AddRenderF:

; 118  : 	}
; 119  : 	else if( szType == "StartOverAdd" )

  0014c	6a 03		 push	 3
  0014e	c7 45 e8 be 98
	8a 98		 mov	 DWORD PTR __t$564484[ebp], -1735747394 ; 988a98beH
  00155	c7 45 ec 99 a3
	9d 8f		 mov	 DWORD PTR __t$564484[ebp+4], -1885494375 ; 8f9da399H
  0015c	c7 45 f0 9f ad
	8f 8e		 mov	 DWORD PTR __t$564484[ebp+8], -1903186529 ; 8e8fad9fH
  00163	8d 45 e8	 lea	 eax, DWORD PTR __t$564484[ebp]
  00166	88 5d f4	 mov	 BYTE PTR __t$564484[ebp+12], bl
  00169	59		 pop	 ecx
$LL378@AddRenderF:
  0016a	31 38		 xor	 DWORD PTR [eax], edi
  0016c	83 c0 04	 add	 eax, 4
  0016f	49		 dec	 ecx
  00170	75 f8		 jne	 SHORT $LL378@AddRenderF
  00172	8b 4d e4	 mov	 ecx, DWORD PTR _szType$GSCopy$[ebp]
  00175	8d 75 e8	 lea	 esi, DWORD PTR __t$564484[ebp]
  00178	ff 15 00 00 00
	00		 call	 DWORD PTR __imp_?c_str@ioHashString@@QBEPBDXZ
$LL1402@AddRenderF:
  0017e	8a 08		 mov	 cl, BYTE PTR [eax]
  00180	3a 0e		 cmp	 cl, BYTE PTR [esi]
  00182	75 1a		 jne	 SHORT $LN1403@AddRenderF
  00184	3a cb		 cmp	 cl, bl
  00186	74 12		 je	 SHORT $LN1443@AddRenderF
  00188	8a 48 01	 mov	 cl, BYTE PTR [eax+1]
  0018b	3a 4e 01	 cmp	 cl, BYTE PTR [esi+1]
  0018e	75 0e		 jne	 SHORT $LN1403@AddRenderF
  00190	83 c0 02	 add	 eax, 2
  00193	83 c6 02	 add	 esi, 2
  00196	3a cb		 cmp	 cl, bl
  00198	75 e4		 jne	 SHORT $LL1402@AddRenderF
$LN1443@AddRenderF:
  0019a	33 c0		 xor	 eax, eax
  0019c	eb 05		 jmp	 SHORT $LN1405@AddRenderF
$LN1403@AddRenderF:
  0019e	1b c0		 sbb	 eax, eax
  001a0	83 d8 ff	 sbb	 eax, -1
$LN1405@AddRenderF:
  001a3	3b c3		 cmp	 eax, ebx
  001a5	75 28		 jne	 SHORT $LN1385@AddRenderF

; 120  : 	{
; 121  : 		SAFEDELETE( m_pStartOverAdd );

  001a7	8b 75 e0	 mov	 esi, DWORD PTR _this$GSCopy$[ebp]
  001aa	8b 8e 04 02 00
	00		 mov	 ecx, DWORD PTR [esi+516]
  001b0	3b cb		 cmp	 ecx, ebx
  001b2	74 0d		 je	 SHORT $LN29@AddRenderF
  001b4	8b 01		 mov	 eax, DWORD PTR [ecx]
  001b6	6a 01		 push	 1
  001b8	ff 50 40	 call	 DWORD PTR [eax+64]
  001bb	89 9e 04 02 00
	00		 mov	 DWORD PTR [esi+516], ebx
$LN29@AddRenderF:

; 122  : 		m_pStartOverAdd = pFrame;

  001c1	8b 45 dc	 mov	 eax, DWORD PTR _pFrame$GSCopy$[ebp]
  001c4	89 86 04 02 00
	00		 mov	 DWORD PTR [esi+516], eax
  001ca	e9 21 05 00 00	 jmp	 $LN1@AddRenderF
$LN1385@AddRenderF:

; 123  : 	}
; 124  : 	else if( szType == "StartPush" )

  001cf	6a 02		 push	 2
  001d1	c7 45 ec be 98
	8a 98		 mov	 DWORD PTR __t$564596[ebp], -1735747394 ; 988a98beH
  001d8	c7 45 f0 99 bc
	9e 99		 mov	 DWORD PTR __t$564596[ebp+4], -1717650279 ; 999ebc99H
  001df	8d 45 ec	 lea	 eax, DWORD PTR __t$564596[ebp]
  001e2	66 c7 45 f4 85
	00		 mov	 WORD PTR __t$564596[ebp+8], 133 ; 00000085H
  001e8	59		 pop	 ecx
$LL484@AddRenderF:
  001e9	31 38		 xor	 DWORD PTR [eax], edi
  001eb	83 c0 04	 add	 eax, 4
  001ee	49		 dec	 ecx
  001ef	75 f8		 jne	 SHORT $LL484@AddRenderF
  001f1	8b 4d e4	 mov	 ecx, DWORD PTR _szType$GSCopy$[ebp]
  001f4	80 75 f4 ed	 xor	 BYTE PTR __t$564596[ebp+8], -19 ; ffffffedH
  001f8	8d 75 ec	 lea	 esi, DWORD PTR __t$564596[ebp]
  001fb	ff 15 00 00 00
	00		 call	 DWORD PTR __imp_?c_str@ioHashString@@QBEPBDXZ
$LL1406@AddRenderF:
  00201	8a 08		 mov	 cl, BYTE PTR [eax]
  00203	3a 0e		 cmp	 cl, BYTE PTR [esi]
  00205	75 1a		 jne	 SHORT $LN1407@AddRenderF
  00207	3a cb		 cmp	 cl, bl
  00209	74 12		 je	 SHORT $LN1408@AddRenderF
  0020b	8a 48 01	 mov	 cl, BYTE PTR [eax+1]
  0020e	3a 4e 01	 cmp	 cl, BYTE PTR [esi+1]
  00211	75 0e		 jne	 SHORT $LN1407@AddRenderF
  00213	83 c0 02	 add	 eax, 2
  00216	83 c6 02	 add	 esi, 2
  00219	3a cb		 cmp	 cl, bl
  0021b	75 e4		 jne	 SHORT $LL1406@AddRenderF
$LN1408@AddRenderF:
  0021d	33 c0		 xor	 eax, eax
  0021f	eb 05		 jmp	 SHORT $LN1409@AddRenderF
$LN1407@AddRenderF:
  00221	1b c0		 sbb	 eax, eax
  00223	83 d8 ff	 sbb	 eax, -1
$LN1409@AddRenderF:
  00226	3b c3		 cmp	 eax, ebx
  00228	75 28		 jne	 SHORT $LN1386@AddRenderF

; 125  : 	{
; 126  : 		SAFEDELETE( m_pStartPush );

  0022a	8b 75 e0	 mov	 esi, DWORD PTR _this$GSCopy$[ebp]
  0022d	8b 8e 08 02 00
	00		 mov	 ecx, DWORD PTR [esi+520]
  00233	3b cb		 cmp	 ecx, ebx
  00235	74 0d		 je	 SHORT $LN26@AddRenderF
  00237	8b 01		 mov	 eax, DWORD PTR [ecx]
  00239	6a 01		 push	 1
  0023b	ff 50 40	 call	 DWORD PTR [eax+64]
  0023e	89 9e 08 02 00
	00		 mov	 DWORD PTR [esi+520], ebx
$LN26@AddRenderF:

; 127  : 		m_pStartPush = pFrame;

  00244	8b 45 dc	 mov	 eax, DWORD PTR _pFrame$GSCopy$[ebp]
  00247	89 86 08 02 00
	00		 mov	 DWORD PTR [esi+520], eax
  0024d	e9 9e 04 00 00	 jmp	 $LN1@AddRenderF
$LN1386@AddRenderF:

; 128  : 	}
; 129  : 	else if( szType == "MiddleNromal" )

  00252	6a 03		 push	 3
  00254	c7 45 e8 a0 85
	8f 8e		 mov	 DWORD PTR __t$564721[ebp], -1903196768 ; 8e8f85a0H
  0025b	c7 45 ec 81 89
	a5 98		 mov	 DWORD PTR __t$564721[ebp+4], -1733981823 ; 98a58981H
  00262	c7 45 f0 82 81
	8a 86		 mov	 DWORD PTR __t$564721[ebp+8], -2037743230 ; 868a8182H
  00269	8d 45 e8	 lea	 eax, DWORD PTR __t$564721[ebp]
  0026c	88 5d f4	 mov	 BYTE PTR __t$564721[ebp+12], bl
  0026f	59		 pop	 ecx
$LL590@AddRenderF:
  00270	31 38		 xor	 DWORD PTR [eax], edi
  00272	83 c0 04	 add	 eax, 4
  00275	49		 dec	 ecx
  00276	75 f8		 jne	 SHORT $LL590@AddRenderF
  00278	8b 4d e4	 mov	 ecx, DWORD PTR _szType$GSCopy$[ebp]
  0027b	8d 75 e8	 lea	 esi, DWORD PTR __t$564721[ebp]
  0027e	ff 15 00 00 00
	00		 call	 DWORD PTR __imp_?c_str@ioHashString@@QBEPBDXZ
$LL1410@AddRenderF:
  00284	8a 08		 mov	 cl, BYTE PTR [eax]
  00286	3a 0e		 cmp	 cl, BYTE PTR [esi]
  00288	75 1a		 jne	 SHORT $LN1411@AddRenderF
  0028a	3a cb		 cmp	 cl, bl
  0028c	74 12		 je	 SHORT $LN1444@AddRenderF
  0028e	8a 48 01	 mov	 cl, BYTE PTR [eax+1]
  00291	3a 4e 01	 cmp	 cl, BYTE PTR [esi+1]
  00294	75 0e		 jne	 SHORT $LN1411@AddRenderF
  00296	83 c0 02	 add	 eax, 2
  00299	83 c6 02	 add	 esi, 2
  0029c	3a cb		 cmp	 cl, bl
  0029e	75 e4		 jne	 SHORT $LL1410@AddRenderF
$LN1444@AddRenderF:
  002a0	33 c0		 xor	 eax, eax
  002a2	eb 05		 jmp	 SHORT $LN1413@AddRenderF
$LN1411@AddRenderF:
  002a4	1b c0		 sbb	 eax, eax
  002a6	83 d8 ff	 sbb	 eax, -1
$LN1413@AddRenderF:
  002a9	3b c3		 cmp	 eax, ebx
  002ab	75 28		 jne	 SHORT $LN1387@AddRenderF

; 130  : 	{
; 131  : 		SAFEDELETE( m_pMiddleNromal );

  002ad	8b 75 e0	 mov	 esi, DWORD PTR _this$GSCopy$[ebp]
  002b0	8b 8e 0c 02 00
	00		 mov	 ecx, DWORD PTR [esi+524]
  002b6	3b cb		 cmp	 ecx, ebx
  002b8	74 0d		 je	 SHORT $LN23@AddRenderF
  002ba	8b 01		 mov	 eax, DWORD PTR [ecx]
  002bc	6a 01		 push	 1
  002be	ff 50 40	 call	 DWORD PTR [eax+64]
  002c1	89 9e 0c 02 00
	00		 mov	 DWORD PTR [esi+524], ebx
$LN23@AddRenderF:

; 132  : 		m_pMiddleNromal = pFrame;

  002c7	8b 45 dc	 mov	 eax, DWORD PTR _pFrame$GSCopy$[ebp]
  002ca	89 86 0c 02 00
	00		 mov	 DWORD PTR [esi+524], eax
  002d0	e9 1b 04 00 00	 jmp	 $LN1@AddRenderF
$LN1387@AddRenderF:

; 133  : 	}
; 134  : 	else if( szType == "MiddleOver" )

  002d5	6a 02		 push	 2
  002d7	c7 45 e8 a0 85
	8f 8e		 mov	 DWORD PTR __t$564846[ebp], -1903196768 ; 8e8f85a0H
  002de	c7 45 ec 81 89
	a4 9c		 mov	 DWORD PTR __t$564846[ebp+4], -1666938495 ; 9ca48981H
  002e5	66 c7 45 f0 88
	9e		 mov	 WORD PTR __t$564846[ebp+8], 40584 ; 00009e88H
  002eb	8d 45 e8	 lea	 eax, DWORD PTR __t$564846[ebp]
  002ee	88 5d f2	 mov	 BYTE PTR __t$564846[ebp+10], bl
  002f1	59		 pop	 ecx
$LL696@AddRenderF:
  002f2	31 38		 xor	 DWORD PTR [eax], edi
  002f4	83 c0 04	 add	 eax, 4
  002f7	49		 dec	 ecx
  002f8	75 f8		 jne	 SHORT $LL696@AddRenderF
  002fa	6a 08		 push	 8
  002fc	58		 pop	 eax
$LL693@AddRenderF:
  002fd	8b c8		 mov	 ecx, eax
  002ff	81 e1 03 00 00
	80		 and	 ecx, -2147483645	; 80000003H
  00305	79 05		 jns	 SHORT $LN1449@AddRenderF
  00307	49		 dec	 ecx
  00308	83 c9 fc	 or	 ecx, -4			; fffffffcH
  0030b	41		 inc	 ecx
$LN1449@AddRenderF:
  0030c	b2 ed		 mov	 dl, -19			; ffffffedH
  0030e	2a d1		 sub	 dl, cl
  00310	30 54 05 e8	 xor	 BYTE PTR __t$564846[ebp+eax], dl
  00314	40		 inc	 eax
  00315	83 f8 0a	 cmp	 eax, 10			; 0000000aH
  00318	7c e3		 jl	 SHORT $LL693@AddRenderF
  0031a	8b 4d e4	 mov	 ecx, DWORD PTR _szType$GSCopy$[ebp]
  0031d	8d 75 e8	 lea	 esi, DWORD PTR __t$564846[ebp]
  00320	ff 15 00 00 00
	00		 call	 DWORD PTR __imp_?c_str@ioHashString@@QBEPBDXZ
$LL1414@AddRenderF:
  00326	8a 08		 mov	 cl, BYTE PTR [eax]
  00328	3a 0e		 cmp	 cl, BYTE PTR [esi]
  0032a	75 1a		 jne	 SHORT $LN1415@AddRenderF
  0032c	3a cb		 cmp	 cl, bl
  0032e	74 12		 je	 SHORT $LN1416@AddRenderF
  00330	8a 48 01	 mov	 cl, BYTE PTR [eax+1]
  00333	3a 4e 01	 cmp	 cl, BYTE PTR [esi+1]
  00336	75 0e		 jne	 SHORT $LN1415@AddRenderF
  00338	83 c0 02	 add	 eax, 2
  0033b	83 c6 02	 add	 esi, 2
  0033e	3a cb		 cmp	 cl, bl
  00340	75 e4		 jne	 SHORT $LL1414@AddRenderF
$LN1416@AddRenderF:
  00342	33 c0		 xor	 eax, eax
  00344	eb 05		 jmp	 SHORT $LN1417@AddRenderF
$LN1415@AddRenderF:
  00346	1b c0		 sbb	 eax, eax
  00348	83 d8 ff	 sbb	 eax, -1
$LN1417@AddRenderF:
  0034b	3b c3		 cmp	 eax, ebx
  0034d	75 28		 jne	 SHORT $LN1388@AddRenderF

; 135  : 	{
; 136  : 		SAFEDELETE( m_pMiddleOver );

  0034f	8b 75 e0	 mov	 esi, DWORD PTR _this$GSCopy$[ebp]
  00352	8b 8e 10 02 00
	00		 mov	 ecx, DWORD PTR [esi+528]
  00358	3b cb		 cmp	 ecx, ebx
  0035a	74 0d		 je	 SHORT $LN20@AddRenderF
  0035c	8b 01		 mov	 eax, DWORD PTR [ecx]
  0035e	6a 01		 push	 1
  00360	ff 50 40	 call	 DWORD PTR [eax+64]
  00363	89 9e 10 02 00
	00		 mov	 DWORD PTR [esi+528], ebx
$LN20@AddRenderF:

; 137  : 		m_pMiddleOver = pFrame;

  00369	8b 45 dc	 mov	 eax, DWORD PTR _pFrame$GSCopy$[ebp]
  0036c	89 86 10 02 00
	00		 mov	 DWORD PTR [esi+528], eax
  00372	e9 79 03 00 00	 jmp	 $LN1@AddRenderF
$LN1388@AddRenderF:

; 138  : 	}
; 139  : 	else if( szType == "MiddleOverAdd" )

  00377	6a 03		 push	 3
  00379	c7 45 e8 a0 85
	8f 8e		 mov	 DWORD PTR __t$564971[ebp], -1903196768 ; 8e8f85a0H
  00380	c7 45 ec 81 89
	a4 9c		 mov	 DWORD PTR __t$564971[ebp+4], -1666938495 ; 9ca48981H
  00387	c7 45 f0 88 9e
	aa 8e		 mov	 DWORD PTR __t$564971[ebp+8], -1901420920 ; 8eaa9e88H
  0038e	8d 45 e8	 lea	 eax, DWORD PTR __t$564971[ebp]
  00391	66 c7 45 f4 89
	00		 mov	 WORD PTR __t$564971[ebp+12], 137 ; 00000089H
  00397	59		 pop	 ecx
$LL802@AddRenderF:
  00398	31 38		 xor	 DWORD PTR [eax], edi
  0039a	83 c0 04	 add	 eax, 4
  0039d	49		 dec	 ecx
  0039e	75 f8		 jne	 SHORT $LL802@AddRenderF
  003a0	8b 4d e4	 mov	 ecx, DWORD PTR _szType$GSCopy$[ebp]
  003a3	80 75 f4 ed	 xor	 BYTE PTR __t$564971[ebp+12], -19 ; ffffffedH
  003a7	8d 75 e8	 lea	 esi, DWORD PTR __t$564971[ebp]
  003aa	ff 15 00 00 00
	00		 call	 DWORD PTR __imp_?c_str@ioHashString@@QBEPBDXZ
$LL1418@AddRenderF:
  003b0	8a 08		 mov	 cl, BYTE PTR [eax]
  003b2	3a 0e		 cmp	 cl, BYTE PTR [esi]
  003b4	75 1a		 jne	 SHORT $LN1419@AddRenderF
  003b6	3a cb		 cmp	 cl, bl
  003b8	74 12		 je	 SHORT $LN1445@AddRenderF
  003ba	8a 48 01	 mov	 cl, BYTE PTR [eax+1]
  003bd	3a 4e 01	 cmp	 cl, BYTE PTR [esi+1]
  003c0	75 0e		 jne	 SHORT $LN1419@AddRenderF
  003c2	83 c0 02	 add	 eax, 2
  003c5	83 c6 02	 add	 esi, 2
  003c8	3a cb		 cmp	 cl, bl
  003ca	75 e4		 jne	 SHORT $LL1418@AddRenderF
$LN1445@AddRenderF:
  003cc	33 c0		 xor	 eax, eax
  003ce	eb 05		 jmp	 SHORT $LN1421@AddRenderF
$LN1419@AddRenderF:
  003d0	1b c0		 sbb	 eax, eax
  003d2	83 d8 ff	 sbb	 eax, -1
$LN1421@AddRenderF:
  003d5	3b c3		 cmp	 eax, ebx
  003d7	75 28		 jne	 SHORT $LN1389@AddRenderF

; 140  : 	{
; 141  : 		SAFEDELETE( m_pMiddleOverAdd );

  003d9	8b 75 e0	 mov	 esi, DWORD PTR _this$GSCopy$[ebp]
  003dc	8b 8e 14 02 00
	00		 mov	 ecx, DWORD PTR [esi+532]
  003e2	3b cb		 cmp	 ecx, ebx
  003e4	74 0d		 je	 SHORT $LN17@AddRenderF
  003e6	8b 01		 mov	 eax, DWORD PTR [ecx]
  003e8	6a 01		 push	 1
  003ea	ff 50 40	 call	 DWORD PTR [eax+64]
  003ed	89 9e 14 02 00
	00		 mov	 DWORD PTR [esi+532], ebx
$LN17@AddRenderF:

; 142  : 		m_pMiddleOverAdd = pFrame;

  003f3	8b 45 dc	 mov	 eax, DWORD PTR _pFrame$GSCopy$[ebp]
  003f6	89 86 14 02 00
	00		 mov	 DWORD PTR [esi+532], eax
  003fc	e9 ef 02 00 00	 jmp	 $LN1@AddRenderF
$LN1389@AddRenderF:

; 143  : 	}
; 144  : 	else if( szType == "MiddlePush" )

  00401	6a 02		 push	 2
  00403	c7 45 e8 a0 85
	8f 8e		 mov	 DWORD PTR __t$565096[ebp], -1903196768 ; 8e8f85a0H
  0040a	c7 45 ec 81 89
	bb 9f		 mov	 DWORD PTR __t$565096[ebp+4], -1615099519 ; 9fbb8981H
  00411	66 c7 45 f0 9e
	84		 mov	 WORD PTR __t$565096[ebp+8], 33950 ; 0000849eH
  00417	8d 45 e8	 lea	 eax, DWORD PTR __t$565096[ebp]
  0041a	88 5d f2	 mov	 BYTE PTR __t$565096[ebp+10], bl
  0041d	59		 pop	 ecx
$LL908@AddRenderF:
  0041e	31 38		 xor	 DWORD PTR [eax], edi
  00420	83 c0 04	 add	 eax, 4
  00423	49		 dec	 ecx
  00424	75 f8		 jne	 SHORT $LL908@AddRenderF
  00426	6a 08		 push	 8
  00428	58		 pop	 eax
$LL905@AddRenderF:
  00429	8b c8		 mov	 ecx, eax
  0042b	81 e1 03 00 00
	80		 and	 ecx, -2147483645	; 80000003H
  00431	79 05		 jns	 SHORT $LN1450@AddRenderF
  00433	49		 dec	 ecx
  00434	83 c9 fc	 or	 ecx, -4			; fffffffcH
  00437	41		 inc	 ecx
$LN1450@AddRenderF:
  00438	b2 ed		 mov	 dl, -19			; ffffffedH
  0043a	2a d1		 sub	 dl, cl
  0043c	30 54 05 e8	 xor	 BYTE PTR __t$565096[ebp+eax], dl
  00440	40		 inc	 eax
  00441	83 f8 0a	 cmp	 eax, 10			; 0000000aH
  00444	7c e3		 jl	 SHORT $LL905@AddRenderF
  00446	8b 4d e4	 mov	 ecx, DWORD PTR _szType$GSCopy$[ebp]
  00449	8d 75 e8	 lea	 esi, DWORD PTR __t$565096[ebp]
  0044c	ff 15 00 00 00
	00		 call	 DWORD PTR __imp_?c_str@ioHashString@@QBEPBDXZ
$LL1422@AddRenderF:
  00452	8a 08		 mov	 cl, BYTE PTR [eax]
  00454	3a 0e		 cmp	 cl, BYTE PTR [esi]
  00456	75 1a		 jne	 SHORT $LN1423@AddRenderF
  00458	3a cb		 cmp	 cl, bl
  0045a	74 12		 je	 SHORT $LN1446@AddRenderF
  0045c	8a 48 01	 mov	 cl, BYTE PTR [eax+1]
  0045f	3a 4e 01	 cmp	 cl, BYTE PTR [esi+1]
  00462	75 0e		 jne	 SHORT $LN1423@AddRenderF
  00464	83 c0 02	 add	 eax, 2
  00467	83 c6 02	 add	 esi, 2
  0046a	3a cb		 cmp	 cl, bl
  0046c	75 e4		 jne	 SHORT $LL1422@AddRenderF
$LN1446@AddRenderF:
  0046e	33 c0		 xor	 eax, eax
  00470	eb 05		 jmp	 SHORT $LN1425@AddRenderF
$LN1423@AddRenderF:
  00472	1b c0		 sbb	 eax, eax
  00474	83 d8 ff	 sbb	 eax, -1
$LN1425@AddRenderF:
  00477	3b c3		 cmp	 eax, ebx
  00479	75 28		 jne	 SHORT $LN1390@AddRenderF

; 145  : 	{
; 146  : 		SAFEDELETE( m_pMiddlePush );

  0047b	8b 75 e0	 mov	 esi, DWORD PTR _this$GSCopy$[ebp]
  0047e	8b 8e 18 02 00
	00		 mov	 ecx, DWORD PTR [esi+536]
  00484	3b cb		 cmp	 ecx, ebx
  00486	74 0d		 je	 SHORT $LN14@AddRenderF
  00488	8b 01		 mov	 eax, DWORD PTR [ecx]
  0048a	6a 01		 push	 1
  0048c	ff 50 40	 call	 DWORD PTR [eax+64]
  0048f	89 9e 18 02 00
	00		 mov	 DWORD PTR [esi+536], ebx
$LN14@AddRenderF:

; 147  : 		m_pMiddlePush = pFrame;

  00495	8b 45 dc	 mov	 eax, DWORD PTR _pFrame$GSCopy$[ebp]
  00498	89 86 18 02 00
	00		 mov	 DWORD PTR [esi+536], eax
  0049e	e9 4d 02 00 00	 jmp	 $LN1@AddRenderF
$LN1390@AddRenderF:

; 148  : 	}
; 149  : 	else if( szType == "EndNromal" )

  004a3	6a 02		 push	 2
  004a5	c7 45 ec a8 82
	8f a4		 mov	 DWORD PTR __t$565221[ebp], -1534098776 ; a48f82a8H
  004ac	c7 45 f0 9f 83
	86 8b		 mov	 DWORD PTR __t$565221[ebp+4], -1954118753 ; 8b86839fH
  004b3	8d 45 ec	 lea	 eax, DWORD PTR __t$565221[ebp]
  004b6	66 c7 45 f4 81
	00		 mov	 WORD PTR __t$565221[ebp+8], 129 ; 00000081H
  004bc	59		 pop	 ecx
$LL1014@AddRenderF:
  004bd	31 38		 xor	 DWORD PTR [eax], edi
  004bf	83 c0 04	 add	 eax, 4
  004c2	49		 dec	 ecx
  004c3	75 f8		 jne	 SHORT $LL1014@AddRenderF
  004c5	8b 4d e4	 mov	 ecx, DWORD PTR _szType$GSCopy$[ebp]
  004c8	80 75 f4 ed	 xor	 BYTE PTR __t$565221[ebp+8], -19 ; ffffffedH
  004cc	8d 75 ec	 lea	 esi, DWORD PTR __t$565221[ebp]
  004cf	ff 15 00 00 00
	00		 call	 DWORD PTR __imp_?c_str@ioHashString@@QBEPBDXZ
$LL1426@AddRenderF:
  004d5	8a 08		 mov	 cl, BYTE PTR [eax]
  004d7	3a 0e		 cmp	 cl, BYTE PTR [esi]
  004d9	75 1a		 jne	 SHORT $LN1427@AddRenderF
  004db	3a cb		 cmp	 cl, bl
  004dd	74 12		 je	 SHORT $LN1428@AddRenderF
  004df	8a 48 01	 mov	 cl, BYTE PTR [eax+1]
  004e2	3a 4e 01	 cmp	 cl, BYTE PTR [esi+1]
  004e5	75 0e		 jne	 SHORT $LN1427@AddRenderF
  004e7	83 c0 02	 add	 eax, 2
  004ea	83 c6 02	 add	 esi, 2
  004ed	3a cb		 cmp	 cl, bl
  004ef	75 e4		 jne	 SHORT $LL1426@AddRenderF
$LN1428@AddRenderF:
  004f1	33 c0		 xor	 eax, eax
  004f3	eb 05		 jmp	 SHORT $LN1429@AddRenderF
$LN1427@AddRenderF:
  004f5	1b c0		 sbb	 eax, eax
  004f7	83 d8 ff	 sbb	 eax, -1
$LN1429@AddRenderF:
  004fa	3b c3		 cmp	 eax, ebx
  004fc	75 28		 jne	 SHORT $LN1391@AddRenderF

; 150  : 	{
; 151  : 		SAFEDELETE( m_pEndNromal );

  004fe	8b 75 e0	 mov	 esi, DWORD PTR _this$GSCopy$[ebp]
  00501	8b 8e 1c 02 00
	00		 mov	 ecx, DWORD PTR [esi+540]
  00507	3b cb		 cmp	 ecx, ebx
  00509	74 0d		 je	 SHORT $LN11@AddRenderF
  0050b	8b 01		 mov	 eax, DWORD PTR [ecx]
  0050d	6a 01		 push	 1
  0050f	ff 50 40	 call	 DWORD PTR [eax+64]
  00512	89 9e 1c 02 00
	00		 mov	 DWORD PTR [esi+540], ebx
$LN11@AddRenderF:

; 152  : 		m_pEndNromal = pFrame;

  00518	8b 45 dc	 mov	 eax, DWORD PTR _pFrame$GSCopy$[ebp]
  0051b	89 86 1c 02 00
	00		 mov	 DWORD PTR [esi+540], eax
  00521	e9 ca 01 00 00	 jmp	 $LN1@AddRenderF
$LN1391@AddRenderF:

; 153  : 	}
; 154  : 	else if( szType == "EndOver" )

  00526	6a 04		 push	 4
  00528	c7 45 ec a8 82
	8f a5		 mov	 DWORD PTR __t$565359[ebp], -1517321560 ; a58f82a8H
  0052f	31 7d ec	 xor	 DWORD PTR __t$565359[ebp], edi
  00532	c7 45 f0 9b 89
	99 00		 mov	 DWORD PTR __t$565359[ebp+4], 10062235 ; 0099899bH
  00539	58		 pop	 eax
$LL1117@AddRenderF:
  0053a	8b c8		 mov	 ecx, eax
  0053c	81 e1 03 00 00
	80		 and	 ecx, -2147483645	; 80000003H
  00542	79 05		 jns	 SHORT $LN1451@AddRenderF
  00544	49		 dec	 ecx
  00545	83 c9 fc	 or	 ecx, -4			; fffffffcH
  00548	41		 inc	 ecx
$LN1451@AddRenderF:
  00549	b2 ed		 mov	 dl, -19			; ffffffedH
  0054b	2a d1		 sub	 dl, cl
  0054d	30 54 05 ec	 xor	 BYTE PTR __t$565359[ebp+eax], dl
  00551	40		 inc	 eax
  00552	83 f8 07	 cmp	 eax, 7
  00555	7c e3		 jl	 SHORT $LL1117@AddRenderF
  00557	8b 4d e4	 mov	 ecx, DWORD PTR _szType$GSCopy$[ebp]
  0055a	8d 75 ec	 lea	 esi, DWORD PTR __t$565359[ebp]
  0055d	ff 15 00 00 00
	00		 call	 DWORD PTR __imp_?c_str@ioHashString@@QBEPBDXZ
$LL1430@AddRenderF:
  00563	8a 08		 mov	 cl, BYTE PTR [eax]
  00565	3a 0e		 cmp	 cl, BYTE PTR [esi]
  00567	75 1a		 jne	 SHORT $LN1431@AddRenderF
  00569	3a cb		 cmp	 cl, bl
  0056b	74 12		 je	 SHORT $LN1447@AddRenderF
  0056d	8a 48 01	 mov	 cl, BYTE PTR [eax+1]
  00570	3a 4e 01	 cmp	 cl, BYTE PTR [esi+1]
  00573	75 0e		 jne	 SHORT $LN1431@AddRenderF
  00575	83 c0 02	 add	 eax, 2
  00578	83 c6 02	 add	 esi, 2
  0057b	3a cb		 cmp	 cl, bl
  0057d	75 e4		 jne	 SHORT $LL1430@AddRenderF
$LN1447@AddRenderF:
  0057f	33 c0		 xor	 eax, eax
  00581	eb 05		 jmp	 SHORT $LN1433@AddRenderF
$LN1431@AddRenderF:
  00583	1b c0		 sbb	 eax, eax
  00585	83 d8 ff	 sbb	 eax, -1
$LN1433@AddRenderF:
  00588	3b c3		 cmp	 eax, ebx
  0058a	75 28		 jne	 SHORT $LN1392@AddRenderF

; 155  : 	{
; 156  : 		SAFEDELETE( m_pEndOver );

  0058c	8b 75 e0	 mov	 esi, DWORD PTR _this$GSCopy$[ebp]
  0058f	8b 8e 20 02 00
	00		 mov	 ecx, DWORD PTR [esi+544]
  00595	3b cb		 cmp	 ecx, ebx
  00597	74 0d		 je	 SHORT $LN8@AddRenderF
  00599	8b 01		 mov	 eax, DWORD PTR [ecx]
  0059b	6a 01		 push	 1
  0059d	ff 50 40	 call	 DWORD PTR [eax+64]
  005a0	89 9e 20 02 00
	00		 mov	 DWORD PTR [esi+544], ebx
$LN8@AddRenderF:

; 157  : 		m_pEndOver = pFrame;

  005a6	8b 45 dc	 mov	 eax, DWORD PTR _pFrame$GSCopy$[ebp]
  005a9	89 86 20 02 00
	00		 mov	 DWORD PTR [esi+544], eax
  005af	e9 3c 01 00 00	 jmp	 $LN1@AddRenderF
$LN1392@AddRenderF:

; 158  : 	}
; 159  : 	else if( szType == "EndOverAdd" )

  005b4	6a 02		 push	 2
  005b6	c7 45 e8 a8 82
	8f a5		 mov	 DWORD PTR __t$565484[ebp], -1517321560 ; a58f82a8H
  005bd	c7 45 ec 9b 89
	99 ab		 mov	 DWORD PTR __t$565484[ebp+4], -1416001125 ; ab99899bH
  005c4	66 c7 45 f0 89
	88		 mov	 WORD PTR __t$565484[ebp+8], 34953 ; 00008889H
  005ca	8d 45 e8	 lea	 eax, DWORD PTR __t$565484[ebp]
  005cd	88 5d f2	 mov	 BYTE PTR __t$565484[ebp+10], bl
  005d0	59		 pop	 ecx
$LL1226@AddRenderF:
  005d1	31 38		 xor	 DWORD PTR [eax], edi
  005d3	83 c0 04	 add	 eax, 4
  005d6	49		 dec	 ecx
  005d7	75 f8		 jne	 SHORT $LL1226@AddRenderF
  005d9	6a 08		 push	 8
  005db	58		 pop	 eax
$LL1223@AddRenderF:
  005dc	8b c8		 mov	 ecx, eax
  005de	81 e1 03 00 00
	80		 and	 ecx, -2147483645	; 80000003H
  005e4	79 05		 jns	 SHORT $LN1452@AddRenderF
  005e6	49		 dec	 ecx
  005e7	83 c9 fc	 or	 ecx, -4			; fffffffcH
  005ea	41		 inc	 ecx
$LN1452@AddRenderF:
  005eb	b2 ed		 mov	 dl, -19			; ffffffedH
  005ed	2a d1		 sub	 dl, cl
  005ef	30 54 05 e8	 xor	 BYTE PTR __t$565484[ebp+eax], dl
  005f3	40		 inc	 eax
  005f4	83 f8 0a	 cmp	 eax, 10			; 0000000aH
  005f7	7c e3		 jl	 SHORT $LL1223@AddRenderF
  005f9	8b 4d e4	 mov	 ecx, DWORD PTR _szType$GSCopy$[ebp]
  005fc	8d 75 e8	 lea	 esi, DWORD PTR __t$565484[ebp]
  005ff	ff 15 00 00 00
	00		 call	 DWORD PTR __imp_?c_str@ioHashString@@QBEPBDXZ
$LL1434@AddRenderF:
  00605	8a 08		 mov	 cl, BYTE PTR [eax]
  00607	3a 0e		 cmp	 cl, BYTE PTR [esi]
  00609	75 1a		 jne	 SHORT $LN1435@AddRenderF
  0060b	3a cb		 cmp	 cl, bl
  0060d	74 12		 je	 SHORT $LN1436@AddRenderF
  0060f	8a 48 01	 mov	 cl, BYTE PTR [eax+1]
  00612	3a 4e 01	 cmp	 cl, BYTE PTR [esi+1]
  00615	75 0e		 jne	 SHORT $LN1435@AddRenderF
  00617	83 c0 02	 add	 eax, 2
  0061a	83 c6 02	 add	 esi, 2
  0061d	3a cb		 cmp	 cl, bl
  0061f	75 e4		 jne	 SHORT $LL1434@AddRenderF
$LN1436@AddRenderF:
  00621	33 c0		 xor	 eax, eax
  00623	eb 05		 jmp	 SHORT $LN1437@AddRenderF
$LN1435@AddRenderF:
  00625	1b c0		 sbb	 eax, eax
  00627	83 d8 ff	 sbb	 eax, -1
$LN1437@AddRenderF:
  0062a	3b c3		 cmp	 eax, ebx
  0062c	75 28		 jne	 SHORT $LN1393@AddRenderF

; 160  : 	{
; 161  : 		SAFEDELETE( m_pEndOverAdd );

  0062e	8b 75 e0	 mov	 esi, DWORD PTR _this$GSCopy$[ebp]
  00631	8b 8e 24 02 00
	00		 mov	 ecx, DWORD PTR [esi+548]
  00637	3b cb		 cmp	 ecx, ebx
  00639	74 0d		 je	 SHORT $LN5@AddRenderF
  0063b	8b 01		 mov	 eax, DWORD PTR [ecx]
  0063d	6a 01		 push	 1
  0063f	ff 50 40	 call	 DWORD PTR [eax+64]
  00642	89 9e 24 02 00
	00		 mov	 DWORD PTR [esi+548], ebx
$LN5@AddRenderF:

; 162  : 		m_pEndOverAdd = pFrame;

  00648	8b 45 dc	 mov	 eax, DWORD PTR _pFrame$GSCopy$[ebp]
  0064b	89 86 24 02 00
	00		 mov	 DWORD PTR [esi+548], eax
  00651	e9 9a 00 00 00	 jmp	 $LN1@AddRenderF
$LN1393@AddRenderF:

; 163  : 	}
; 164  : 	else if( szType == "EndPush" )

  00656	6a 04		 push	 4
  00658	c7 45 ec a8 82
	8f ba		 mov	 DWORD PTR __t$565609[ebp], -1165000024 ; ba8f82a8H
  0065f	31 7d ec	 xor	 DWORD PTR __t$565609[ebp], edi
  00662	c7 45 f0 98 9f
	83 00		 mov	 DWORD PTR __t$565609[ebp+4], 8626072 ; 00839f98H
  00669	58		 pop	 eax
$LL1329@AddRenderF:
  0066a	8b c8		 mov	 ecx, eax
  0066c	81 e1 03 00 00
	80		 and	 ecx, -2147483645	; 80000003H
  00672	79 05		 jns	 SHORT $LN1453@AddRenderF
  00674	49		 dec	 ecx
  00675	83 c9 fc	 or	 ecx, -4			; fffffffcH
  00678	41		 inc	 ecx
$LN1453@AddRenderF:
  00679	b2 ed		 mov	 dl, -19			; ffffffedH
  0067b	2a d1		 sub	 dl, cl
  0067d	30 54 05 ec	 xor	 BYTE PTR __t$565609[ebp+eax], dl
  00681	40		 inc	 eax
  00682	83 f8 07	 cmp	 eax, 7
  00685	7c e3		 jl	 SHORT $LL1329@AddRenderF
  00687	8b 4d e4	 mov	 ecx, DWORD PTR _szType$GSCopy$[ebp]
  0068a	8d 75 ec	 lea	 esi, DWORD PTR __t$565609[ebp]
  0068d	ff 15 00 00 00
	00		 call	 DWORD PTR __imp_?c_str@ioHashString@@QBEPBDXZ
$LL1438@AddRenderF:
  00693	8a 08		 mov	 cl, BYTE PTR [eax]
  00695	3a 0e		 cmp	 cl, BYTE PTR [esi]
  00697	75 1a		 jne	 SHORT $LN1439@AddRenderF
  00699	3a cb		 cmp	 cl, bl
  0069b	74 12		 je	 SHORT $LN1440@AddRenderF
  0069d	8a 48 01	 mov	 cl, BYTE PTR [eax+1]
  006a0	3a 4e 01	 cmp	 cl, BYTE PTR [esi+1]
  006a3	75 0e		 jne	 SHORT $LN1439@AddRenderF
  006a5	83 c0 02	 add	 eax, 2
  006a8	83 c6 02	 add	 esi, 2
  006ab	3a cb		 cmp	 cl, bl
  006ad	75 e4		 jne	 SHORT $LL1438@AddRenderF
$LN1440@AddRenderF:
  006af	33 c0		 xor	 eax, eax
  006b1	eb 05		 jmp	 SHORT $LN1441@AddRenderF
$LN1439@AddRenderF:
  006b3	1b c0		 sbb	 eax, eax
  006b5	83 d8 ff	 sbb	 eax, -1
$LN1441@AddRenderF:
  006b8	3b c3		 cmp	 eax, ebx
  006ba	75 25		 jne	 SHORT $LN3@AddRenderF

; 165  : 	{
; 166  : 		SAFEDELETE( m_pEndPush );

  006bc	8b 75 e0	 mov	 esi, DWORD PTR _this$GSCopy$[ebp]
  006bf	8b 8e 28 02 00
	00		 mov	 ecx, DWORD PTR [esi+552]
  006c5	3b cb		 cmp	 ecx, ebx
  006c7	74 0d		 je	 SHORT $LN2@AddRenderF
  006c9	8b 01		 mov	 eax, DWORD PTR [ecx]
  006cb	6a 01		 push	 1
  006cd	ff 50 40	 call	 DWORD PTR [eax+64]
  006d0	89 9e 28 02 00
	00		 mov	 DWORD PTR [esi+552], ebx
$LN2@AddRenderF:

; 167  : 		m_pEndPush = pFrame;

  006d6	8b 45 dc	 mov	 eax, DWORD PTR _pFrame$GSCopy$[ebp]
  006d9	89 86 28 02 00
	00		 mov	 DWORD PTR [esi+552], eax

; 168  : 	}
; 169  : 	else

  006df	eb 0f		 jmp	 SHORT $LN1@AddRenderF
$LN3@AddRenderF:

; 170  : 	{
; 171  : 		ioButton::AddRenderFrame( szType, pFrame );	

  006e1	ff 75 dc	 push	 DWORD PTR _pFrame$GSCopy$[ebp]
  006e4	8b 4d e0	 mov	 ecx, DWORD PTR _this$GSCopy$[ebp]
  006e7	ff 75 e4	 push	 DWORD PTR _szType$GSCopy$[ebp]
  006ea	ff 15 00 00 00
	00		 call	 DWORD PTR __imp_?AddRenderFrame@ioButton@@UAEXABVioHashString@@PAVioUIRenderFrame@@@Z
$LN1@AddRenderF:

; 172  : 	}	
; 173  : }

  006f0	8b 4d fc	 mov	 ecx, DWORD PTR __$ArrayPad$[ebp]
  006f3	5f		 pop	 edi
  006f4	5e		 pop	 esi
  006f5	33 cd		 xor	 ecx, ebp
  006f7	5b		 pop	 ebx
  006f8	e8 00 00 00 00	 call	 @__security_check_cookie@4
  006fd	c9		 leave
  006fe	c2 08 00	 ret	 8
?AddRenderFrame@MenuBase@@MAEXABVioHashString@@PAVioUIRenderFrame@@@Z ENDP ; MenuBase::AddRenderFrame
_TEXT	ENDS
PUBLIC	_szType$GSCopy$
PUBLIC	_pImage$GSCopy$
PUBLIC	_this$GSCopy$
PUBLIC	__$ArrayPad$
EXTRN	__imp_?AddRenderImage@ioButton@@UAEXABVioHashString@@PAVioUIRenderImage@@@Z:PROC
; Function compile flags: /Ogsp
;	COMDAT ?AddRenderImage@MenuBtn@@MAEXABVioHashString@@PAVioUIRenderImage@@@Z
_TEXT	SEGMENT
_szType$GSCopy$ = -36					; size = 4
_pImage$GSCopy$ = -32					; size = 4
_this$GSCopy$ = -28					; size = 4
__t$567139 = -24					; size = 12
__t$567014 = -24					; size = 12
__t$566764 = -24					; size = 13
__t$566697 = -24					; size = 15
__t$566402 = -24					; size = 13
__t$566309 = -24					; size = 15
__t$566139 = -24					; size = 14
__t$566014 = -24					; size = 14
__t$565889 = -24					; size = 12
__t$566889 = -20					; size = 11
__t$566527 = -20					; size = 11
__$ArrayPad$ = -4					; size = 4
_szType$ = 8						; size = 4
_pImage$ = 12						; size = 4
?AddRenderImage@MenuBtn@@MAEXABVioHashString@@PAVioUIRenderImage@@@Z PROC ; MenuBtn::AddRenderImage, COMDAT
; _this$ = ecx

; 344  : {

  00000	55		 push	 ebp
  00001	8b ec		 mov	 ebp, esp
  00003	83 ec 24	 sub	 esp, 36			; 00000024H
  00006	a1 00 00 00 00	 mov	 eax, DWORD PTR ___security_cookie
  0000b	33 c5		 xor	 eax, ebp
  0000d	89 45 fc	 mov	 DWORD PTR __$ArrayPad$[ebp], eax

; 348  : 		m_pTooltipLeft = pImage;

  00010	8b 45 0c	 mov	 eax, DWORD PTR _pImage$[ebp]
  00013	53		 push	 ebx
  00014	56		 push	 esi
  00015	57		 push	 edi
  00016	8b 7d 08	 mov	 edi, DWORD PTR _szType$[ebp]
  00019	6a 02		 push	 2
  0001b	89 4d e4	 mov	 DWORD PTR _this$GSCopy$[ebp], ecx
  0001e	89 45 e0	 mov	 DWORD PTR _pImage$GSCopy$[ebp], eax

; 379  : 	}
; 380  : 	else if( szType == "BtnIconStart" )

  00021	89 7d dc	 mov	 DWORD PTR _szType$GSCopy$[ebp], edi
  00024	c7 45 e8 b9 83
	84 86		 mov	 DWORD PTR __t$565889[ebp], -2038135879 ; 868483b9H
  0002b	c7 45 ec 99 85
	9b a6		 mov	 DWORD PTR __t$565889[ebp+4], -1499757159 ; a69b8599H
  00032	8d 45 e8	 lea	 eax, DWORD PTR __t$565889[ebp]
  00035	33 db		 xor	 ebx, ebx
  00037	c7 45 f0 88 8a
	9f 00		 mov	 DWORD PTR __t$565889[ebp+8], 10455688 ; 009f8a88H
  0003e	59		 pop	 ecx
$LL161@AddRenderI:

; 345  : 	if( szType == "TooltipLeft" )

  0003f	81 30 ed ec eb
	ea		 xor	 DWORD PTR [eax], -353637139 ; eaebecedH
  00045	83 c0 04	 add	 eax, 4
  00048	49		 dec	 ecx
  00049	75 f4		 jne	 SHORT $LL161@AddRenderI
  0004b	6a 08		 push	 8
  0004d	58		 pop	 eax
$LL158@AddRenderI:
  0004e	8b c8		 mov	 ecx, eax
  00050	81 e1 03 00 00
	80		 and	 ecx, -2147483645	; 80000003H
  00056	79 05		 jns	 SHORT $LN1326@AddRenderI
  00058	49		 dec	 ecx
  00059	83 c9 fc	 or	 ecx, -4			; fffffffcH
  0005c	41		 inc	 ecx
$LN1326@AddRenderI:
  0005d	b2 ed		 mov	 dl, -19			; ffffffedH
  0005f	2a d1		 sub	 dl, cl
  00061	30 54 05 e8	 xor	 BYTE PTR __t$565889[ebp+eax], dl
  00065	40		 inc	 eax
  00066	83 f8 0b	 cmp	 eax, 11			; 0000000bH
  00069	7c e3		 jl	 SHORT $LL158@AddRenderI
  0006b	8b cf		 mov	 ecx, edi
  0006d	8d 75 e8	 lea	 esi, DWORD PTR __t$565889[ebp]
  00070	ff 15 00 00 00
	00		 call	 DWORD PTR __imp_?c_str@ioHashString@@QBEPBDXZ
$LL1278@AddRenderI:
  00076	8a 08		 mov	 cl, BYTE PTR [eax]
  00078	3a 0e		 cmp	 cl, BYTE PTR [esi]
  0007a	75 1a		 jne	 SHORT $LN1279@AddRenderI
  0007c	3a cb		 cmp	 cl, bl
  0007e	74 12		 je	 SHORT $LN1280@AddRenderI
  00080	8a 48 01	 mov	 cl, BYTE PTR [eax+1]
  00083	3a 4e 01	 cmp	 cl, BYTE PTR [esi+1]
  00086	75 0e		 jne	 SHORT $LN1279@AddRenderI
  00088	83 c0 02	 add	 eax, 2
  0008b	83 c6 02	 add	 esi, 2
  0008e	3a cb		 cmp	 cl, bl
  00090	75 e4		 jne	 SHORT $LL1278@AddRenderI
$LN1280@AddRenderI:
  00092	33 c0		 xor	 eax, eax
  00094	eb 05		 jmp	 SHORT $LN1281@AddRenderI
$LN1279@AddRenderI:
  00096	1b c0		 sbb	 eax, eax
  00098	83 d8 ff	 sbb	 eax, -1
$LN1281@AddRenderI:
  0009b	3b c3		 cmp	 eax, ebx
  0009d	75 28		 jne	 SHORT $LN1268@AddRenderI

; 346  : 	{
; 347  : 		SAFEDELETE( m_pTooltipLeft );

  0009f	8b 75 e4	 mov	 esi, DWORD PTR _this$GSCopy$[ebp]
  000a2	8b 8e 30 02 00
	00		 mov	 ecx, DWORD PTR [esi+560]
  000a8	3b cb		 cmp	 ecx, ebx
  000aa	74 0d		 je	 SHORT $LN32@AddRenderI
  000ac	8b 01		 mov	 eax, DWORD PTR [ecx]
  000ae	6a 01		 push	 1
  000b0	ff 50 40	 call	 DWORD PTR [eax+64]
  000b3	89 9e 30 02 00
	00		 mov	 DWORD PTR [esi+560], ebx
$LN32@AddRenderI:

; 348  : 		m_pTooltipLeft = pImage;

  000b9	8b 45 e0	 mov	 eax, DWORD PTR _pImage$GSCopy$[ebp]
  000bc	89 86 30 02 00
	00		 mov	 DWORD PTR [esi+560], eax
  000c2	e9 1a 06 00 00	 jmp	 $LN1@AddRenderI
$LN1268@AddRenderI:

; 349  : 	}
; 350  : 	else if( szType == "TooltipLeftIn" )

  000c7	6a 03		 push	 3
  000c9	5f		 pop	 edi
  000ca	c7 45 e8 b9 83
	84 86		 mov	 DWORD PTR __t$566014[ebp], -2038135879 ; 868483b9H
  000d1	c7 45 ec 99 85
	9b a6		 mov	 DWORD PTR __t$566014[ebp+4], -1499757159 ; a69b8599H
  000d8	c7 45 f0 88 8a
	9f a3		 mov	 DWORD PTR __t$566014[ebp+8], -1549825400 ; a39f8a88H
  000df	8d 45 e8	 lea	 eax, DWORD PTR __t$566014[ebp]
  000e2	66 c7 45 f4 83
	00		 mov	 WORD PTR __t$566014[ebp+12], 131 ; 00000083H
  000e8	8b cf		 mov	 ecx, edi
$LL267@AddRenderI:
  000ea	81 30 ed ec eb
	ea		 xor	 DWORD PTR [eax], -353637139 ; eaebecedH
  000f0	83 c0 04	 add	 eax, 4
  000f3	49		 dec	 ecx
  000f4	75 f4		 jne	 SHORT $LL267@AddRenderI
  000f6	8b 4d dc	 mov	 ecx, DWORD PTR _szType$GSCopy$[ebp]
  000f9	80 75 f4 ed	 xor	 BYTE PTR __t$566014[ebp+12], -19 ; ffffffedH
  000fd	8d 75 e8	 lea	 esi, DWORD PTR __t$566014[ebp]
  00100	ff 15 00 00 00
	00		 call	 DWORD PTR __imp_?c_str@ioHashString@@QBEPBDXZ
$LL1282@AddRenderI:
  00106	8a 08		 mov	 cl, BYTE PTR [eax]
  00108	3a 0e		 cmp	 cl, BYTE PTR [esi]
  0010a	75 1a		 jne	 SHORT $LN1283@AddRenderI
  0010c	3a cb		 cmp	 cl, bl
  0010e	74 12		 je	 SHORT $LN1284@AddRenderI
  00110	8a 48 01	 mov	 cl, BYTE PTR [eax+1]
  00113	3a 4e 01	 cmp	 cl, BYTE PTR [esi+1]
  00116	75 0e		 jne	 SHORT $LN1283@AddRenderI
  00118	83 c0 02	 add	 eax, 2
  0011b	83 c6 02	 add	 esi, 2
  0011e	3a cb		 cmp	 cl, bl
  00120	75 e4		 jne	 SHORT $LL1282@AddRenderI
$LN1284@AddRenderI:
  00122	33 c0		 xor	 eax, eax
  00124	eb 05		 jmp	 SHORT $LN1285@AddRenderI
$LN1283@AddRenderI:
  00126	1b c0		 sbb	 eax, eax
  00128	83 d8 ff	 sbb	 eax, -1
$LN1285@AddRenderI:
  0012b	3b c3		 cmp	 eax, ebx
  0012d	75 28		 jne	 SHORT $LN1269@AddRenderI

; 351  : 	{
; 352  : 		SAFEDELETE( m_pTooltipLeftIn );

  0012f	8b 75 e4	 mov	 esi, DWORD PTR _this$GSCopy$[ebp]
  00132	8b 8e 34 02 00
	00		 mov	 ecx, DWORD PTR [esi+564]
  00138	3b cb		 cmp	 ecx, ebx
  0013a	74 0d		 je	 SHORT $LN29@AddRenderI
  0013c	8b 01		 mov	 eax, DWORD PTR [ecx]
  0013e	6a 01		 push	 1
  00140	ff 50 40	 call	 DWORD PTR [eax+64]
  00143	89 9e 34 02 00
	00		 mov	 DWORD PTR [esi+564], ebx
$LN29@AddRenderI:

; 353  : 		m_pTooltipLeftIn = pImage;

  00149	8b 45 e0	 mov	 eax, DWORD PTR _pImage$GSCopy$[ebp]
  0014c	89 86 34 02 00
	00		 mov	 DWORD PTR [esi+564], eax
  00152	e9 8a 05 00 00	 jmp	 $LN1@AddRenderI
$LN1269@AddRenderI:

; 354  : 	}
; 355  : 	else if( szType == "TooltipCenter" )

  00157	c7 45 e8 b9 83
	84 86		 mov	 DWORD PTR __t$566139[ebp], -2038135879 ; 868483b9H
  0015e	c7 45 ec 99 85
	9b a9		 mov	 DWORD PTR __t$566139[ebp+4], -1449425511 ; a99b8599H
  00165	c7 45 f0 88 82
	9f 8f		 mov	 DWORD PTR __t$566139[ebp+8], -1885371768 ; 8f9f8288H
  0016c	8d 45 e8	 lea	 eax, DWORD PTR __t$566139[ebp]
  0016f	66 c7 45 f4 9f
	00		 mov	 WORD PTR __t$566139[ebp+12], 159 ; 0000009fH
  00175	8b cf		 mov	 ecx, edi
$LL373@AddRenderI:
  00177	81 30 ed ec eb
	ea		 xor	 DWORD PTR [eax], -353637139 ; eaebecedH
  0017d	83 c0 04	 add	 eax, 4
  00180	49		 dec	 ecx
  00181	75 f4		 jne	 SHORT $LL373@AddRenderI
  00183	8b 4d dc	 mov	 ecx, DWORD PTR _szType$GSCopy$[ebp]
  00186	80 75 f4 ed	 xor	 BYTE PTR __t$566139[ebp+12], -19 ; ffffffedH
  0018a	8d 75 e8	 lea	 esi, DWORD PTR __t$566139[ebp]
  0018d	ff 15 00 00 00
	00		 call	 DWORD PTR __imp_?c_str@ioHashString@@QBEPBDXZ
$LL1286@AddRenderI:
  00193	8a 08		 mov	 cl, BYTE PTR [eax]
  00195	3a 0e		 cmp	 cl, BYTE PTR [esi]
  00197	75 1a		 jne	 SHORT $LN1287@AddRenderI
  00199	3a cb		 cmp	 cl, bl
  0019b	74 12		 je	 SHORT $LN1288@AddRenderI
  0019d	8a 48 01	 mov	 cl, BYTE PTR [eax+1]
  001a0	3a 4e 01	 cmp	 cl, BYTE PTR [esi+1]
  001a3	75 0e		 jne	 SHORT $LN1287@AddRenderI
  001a5	83 c0 02	 add	 eax, 2
  001a8	83 c6 02	 add	 esi, 2
  001ab	3a cb		 cmp	 cl, bl
  001ad	75 e4		 jne	 SHORT $LL1286@AddRenderI
$LN1288@AddRenderI:
  001af	33 c0		 xor	 eax, eax
  001b1	eb 05		 jmp	 SHORT $LN1289@AddRenderI
$LN1287@AddRenderI:
  001b3	1b c0		 sbb	 eax, eax
  001b5	83 d8 ff	 sbb	 eax, -1
$LN1289@AddRenderI:
  001b8	3b c3		 cmp	 eax, ebx
  001ba	75 28		 jne	 SHORT $LN1270@AddRenderI

; 356  : 	{
; 357  : 		SAFEDELETE( m_pTooltipCenter );

  001bc	8b 75 e4	 mov	 esi, DWORD PTR _this$GSCopy$[ebp]
  001bf	8b 8e 38 02 00
	00		 mov	 ecx, DWORD PTR [esi+568]
  001c5	3b cb		 cmp	 ecx, ebx
  001c7	74 0d		 je	 SHORT $LN26@AddRenderI
  001c9	8b 01		 mov	 eax, DWORD PTR [ecx]
  001cb	6a 01		 push	 1
  001cd	ff 50 40	 call	 DWORD PTR [eax+64]
  001d0	89 9e 38 02 00
	00		 mov	 DWORD PTR [esi+568], ebx
$LN26@AddRenderI:

; 358  : 		m_pTooltipCenter = pImage;

  001d6	8b 45 e0	 mov	 eax, DWORD PTR _pImage$GSCopy$[ebp]
  001d9	89 86 38 02 00
	00		 mov	 DWORD PTR [esi+568], eax
  001df	e9 fd 04 00 00	 jmp	 $LN1@AddRenderI
$LN1270@AddRenderI:

; 359  : 	}
; 360  : 	else if( szType == "TooltipRightIn" )

  001e4	c7 45 e8 b9 83
	84 86		 mov	 DWORD PTR __t$566309[ebp], -2038135879 ; 868483b9H
  001eb	c7 45 ec 99 85
	9b b8		 mov	 DWORD PTR __t$566309[ebp+4], -1197767271 ; b89b8599H
  001f2	c7 45 f0 84 8b
	83 9e		 mov	 DWORD PTR __t$566309[ebp+8], -1635546236 ; 9e838b84H
  001f9	66 c7 45 f4 a4
	82		 mov	 WORD PTR __t$566309[ebp+12], 33444 ; 000082a4H
  001ff	8d 45 e8	 lea	 eax, DWORD PTR __t$566309[ebp]
  00202	88 5d f6	 mov	 BYTE PTR __t$566309[ebp+14], bl
  00205	8b cf		 mov	 ecx, edi
$LL479@AddRenderI:
  00207	81 30 ed ec eb
	ea		 xor	 DWORD PTR [eax], -353637139 ; eaebecedH
  0020d	83 c0 04	 add	 eax, 4
  00210	49		 dec	 ecx
  00211	75 f4		 jne	 SHORT $LL479@AddRenderI
  00213	6a 0c		 push	 12			; 0000000cH
  00215	58		 pop	 eax
$LL476@AddRenderI:
  00216	8b c8		 mov	 ecx, eax
  00218	81 e1 03 00 00
	80		 and	 ecx, -2147483645	; 80000003H
  0021e	79 05		 jns	 SHORT $LN1327@AddRenderI
  00220	49		 dec	 ecx
  00221	83 c9 fc	 or	 ecx, -4			; fffffffcH
  00224	41		 inc	 ecx
$LN1327@AddRenderI:
  00225	b2 ed		 mov	 dl, -19			; ffffffedH
  00227	2a d1		 sub	 dl, cl
  00229	30 54 05 e8	 xor	 BYTE PTR __t$566309[ebp+eax], dl
  0022d	40		 inc	 eax
  0022e	83 f8 0e	 cmp	 eax, 14			; 0000000eH
  00231	7c e3		 jl	 SHORT $LL476@AddRenderI
  00233	8b 4d dc	 mov	 ecx, DWORD PTR _szType$GSCopy$[ebp]
  00236	8d 75 e8	 lea	 esi, DWORD PTR __t$566309[ebp]
  00239	ff 15 00 00 00
	00		 call	 DWORD PTR __imp_?c_str@ioHashString@@QBEPBDXZ
$LL1290@AddRenderI:
  0023f	8a 08		 mov	 cl, BYTE PTR [eax]
  00241	3a 0e		 cmp	 cl, BYTE PTR [esi]
  00243	75 1a		 jne	 SHORT $LN1291@AddRenderI
  00245	3a cb		 cmp	 cl, bl
  00247	74 12		 je	 SHORT $LN1292@AddRenderI
  00249	8a 48 01	 mov	 cl, BYTE PTR [eax+1]
  0024c	3a 4e 01	 cmp	 cl, BYTE PTR [esi+1]
  0024f	75 0e		 jne	 SHORT $LN1291@AddRenderI
  00251	83 c0 02	 add	 eax, 2
  00254	83 c6 02	 add	 esi, 2
  00257	3a cb		 cmp	 cl, bl
  00259	75 e4		 jne	 SHORT $LL1290@AddRenderI
$LN1292@AddRenderI:
  0025b	33 c0		 xor	 eax, eax
  0025d	eb 05		 jmp	 SHORT $LN1293@AddRenderI
$LN1291@AddRenderI:
  0025f	1b c0		 sbb	 eax, eax
  00261	83 d8 ff	 sbb	 eax, -1
$LN1293@AddRenderI:
  00264	3b c3		 cmp	 eax, ebx
  00266	75 28		 jne	 SHORT $LN1271@AddRenderI

; 361  : 	{
; 362  : 		SAFEDELETE( m_pTooltipRightIn );

  00268	8b 75 e4	 mov	 esi, DWORD PTR _this$GSCopy$[ebp]
  0026b	8b 8e 3c 02 00
	00		 mov	 ecx, DWORD PTR [esi+572]
  00271	3b cb		 cmp	 ecx, ebx
  00273	74 0d		 je	 SHORT $LN23@AddRenderI
  00275	8b 01		 mov	 eax, DWORD PTR [ecx]
  00277	6a 01		 push	 1
  00279	ff 50 40	 call	 DWORD PTR [eax+64]
  0027c	89 9e 3c 02 00
	00		 mov	 DWORD PTR [esi+572], ebx
$LN23@AddRenderI:

; 363  : 		m_pTooltipRightIn = pImage;

  00282	8b 45 e0	 mov	 eax, DWORD PTR _pImage$GSCopy$[ebp]
  00285	89 86 3c 02 00
	00		 mov	 DWORD PTR [esi+572], eax
  0028b	e9 51 04 00 00	 jmp	 $LN1@AddRenderI
$LN1271@AddRenderI:

; 364  : 	}
; 365  : 	else if( szType == "TooltipRight" )

  00290	c7 45 e8 b9 83
	84 86		 mov	 DWORD PTR __t$566402[ebp], -2038135879 ; 868483b9H
  00297	c7 45 ec 99 85
	9b b8		 mov	 DWORD PTR __t$566402[ebp+4], -1197767271 ; b89b8599H
  0029e	c7 45 f0 84 8b
	83 9e		 mov	 DWORD PTR __t$566402[ebp+8], -1635546236 ; 9e838b84H
  002a5	8d 45 e8	 lea	 eax, DWORD PTR __t$566402[ebp]
  002a8	88 5d f4	 mov	 BYTE PTR __t$566402[ebp+12], bl
  002ab	8b cf		 mov	 ecx, edi
$LL585@AddRenderI:
  002ad	81 30 ed ec eb
	ea		 xor	 DWORD PTR [eax], -353637139 ; eaebecedH
  002b3	83 c0 04	 add	 eax, 4
  002b6	49		 dec	 ecx
  002b7	75 f4		 jne	 SHORT $LL585@AddRenderI
  002b9	8b 4d dc	 mov	 ecx, DWORD PTR _szType$GSCopy$[ebp]
  002bc	8d 75 e8	 lea	 esi, DWORD PTR __t$566402[ebp]
  002bf	ff 15 00 00 00
	00		 call	 DWORD PTR __imp_?c_str@ioHashString@@QBEPBDXZ
$LL1294@AddRenderI:
  002c5	8a 08		 mov	 cl, BYTE PTR [eax]
  002c7	3a 0e		 cmp	 cl, BYTE PTR [esi]
  002c9	75 1a		 jne	 SHORT $LN1295@AddRenderI
  002cb	3a cb		 cmp	 cl, bl
  002cd	74 12		 je	 SHORT $LN1322@AddRenderI
  002cf	8a 48 01	 mov	 cl, BYTE PTR [eax+1]
  002d2	3a 4e 01	 cmp	 cl, BYTE PTR [esi+1]
  002d5	75 0e		 jne	 SHORT $LN1295@AddRenderI
  002d7	83 c0 02	 add	 eax, 2
  002da	83 c6 02	 add	 esi, 2
  002dd	3a cb		 cmp	 cl, bl
  002df	75 e4		 jne	 SHORT $LL1294@AddRenderI
$LN1322@AddRenderI:
  002e1	33 c0		 xor	 eax, eax
  002e3	eb 05		 jmp	 SHORT $LN1297@AddRenderI
$LN1295@AddRenderI:
  002e5	1b c0		 sbb	 eax, eax
  002e7	83 d8 ff	 sbb	 eax, -1
$LN1297@AddRenderI:
  002ea	3b c3		 cmp	 eax, ebx
  002ec	75 28		 jne	 SHORT $LN1272@AddRenderI

; 366  : 	{
; 367  : 		SAFEDELETE( m_pTooltipRight );

  002ee	8b 75 e4	 mov	 esi, DWORD PTR _this$GSCopy$[ebp]
  002f1	8b 8e 40 02 00
	00		 mov	 ecx, DWORD PTR [esi+576]
  002f7	3b cb		 cmp	 ecx, ebx
  002f9	74 0d		 je	 SHORT $LN20@AddRenderI
  002fb	8b 01		 mov	 eax, DWORD PTR [ecx]
  002fd	6a 01		 push	 1
  002ff	ff 50 40	 call	 DWORD PTR [eax+64]
  00302	89 9e 40 02 00
	00		 mov	 DWORD PTR [esi+576], ebx
$LN20@AddRenderI:

; 368  : 		m_pTooltipRight = pImage;

  00308	8b 45 e0	 mov	 eax, DWORD PTR _pImage$GSCopy$[ebp]
  0030b	89 86 40 02 00
	00		 mov	 DWORD PTR [esi+576], eax
  00311	e9 cb 03 00 00	 jmp	 $LN1@AddRenderI
$LN1272@AddRenderI:

; 369  : 	}
; 370  : 	else if( szType == "RedTooltip" )

  00316	6a 02		 push	 2
  00318	c7 45 ec bf 89
	8f be		 mov	 DWORD PTR __t$566527[ebp], -1097889345 ; be8f89bfH
  0031f	c7 45 f0 82 83
	87 9e		 mov	 DWORD PTR __t$566527[ebp+4], -1635286142 ; 9e878382H
  00326	66 c7 45 f4 84
	9c		 mov	 WORD PTR __t$566527[ebp+8], 40068 ; 00009c84H
  0032c	8d 45 ec	 lea	 eax, DWORD PTR __t$566527[ebp]
  0032f	88 5d f6	 mov	 BYTE PTR __t$566527[ebp+10], bl
  00332	59		 pop	 ecx
$LL691@AddRenderI:
  00333	81 30 ed ec eb
	ea		 xor	 DWORD PTR [eax], -353637139 ; eaebecedH
  00339	83 c0 04	 add	 eax, 4
  0033c	49		 dec	 ecx
  0033d	75 f4		 jne	 SHORT $LL691@AddRenderI
  0033f	6a 08		 push	 8
  00341	58		 pop	 eax
$LL688@AddRenderI:
  00342	8b c8		 mov	 ecx, eax
  00344	81 e1 03 00 00
	80		 and	 ecx, -2147483645	; 80000003H
  0034a	79 05		 jns	 SHORT $LN1328@AddRenderI
  0034c	49		 dec	 ecx
  0034d	83 c9 fc	 or	 ecx, -4			; fffffffcH
  00350	41		 inc	 ecx
$LN1328@AddRenderI:
  00351	b2 ed		 mov	 dl, -19			; ffffffedH
  00353	2a d1		 sub	 dl, cl
  00355	30 54 05 ec	 xor	 BYTE PTR __t$566527[ebp+eax], dl
  00359	40		 inc	 eax
  0035a	83 f8 0a	 cmp	 eax, 10			; 0000000aH
  0035d	7c e3		 jl	 SHORT $LL688@AddRenderI
  0035f	8b 4d dc	 mov	 ecx, DWORD PTR _szType$GSCopy$[ebp]
  00362	8d 75 ec	 lea	 esi, DWORD PTR __t$566527[ebp]
  00365	ff 15 00 00 00
	00		 call	 DWORD PTR __imp_?c_str@ioHashString@@QBEPBDXZ
$LL1298@AddRenderI:
  0036b	8a 08		 mov	 cl, BYTE PTR [eax]
  0036d	3a 0e		 cmp	 cl, BYTE PTR [esi]
  0036f	75 1a		 jne	 SHORT $LN1299@AddRenderI
  00371	3a cb		 cmp	 cl, bl
  00373	74 12		 je	 SHORT $LN1300@AddRenderI
  00375	8a 48 01	 mov	 cl, BYTE PTR [eax+1]
  00378	3a 4e 01	 cmp	 cl, BYTE PTR [esi+1]
  0037b	75 0e		 jne	 SHORT $LN1299@AddRenderI
  0037d	83 c0 02	 add	 eax, 2
  00380	83 c6 02	 add	 esi, 2
  00383	3a cb		 cmp	 cl, bl
  00385	75 e4		 jne	 SHORT $LL1298@AddRenderI
$LN1300@AddRenderI:
  00387	33 c0		 xor	 eax, eax
  00389	eb 05		 jmp	 SHORT $LN1301@AddRenderI
$LN1299@AddRenderI:
  0038b	1b c0		 sbb	 eax, eax
  0038d	83 d8 ff	 sbb	 eax, -1
$LN1301@AddRenderI:
  00390	3b c3		 cmp	 eax, ebx
  00392	75 28		 jne	 SHORT $LN1273@AddRenderI

; 371  : 	{
; 372  : 		SAFEDELETE( m_pRedTooltip );

  00394	8b 75 e4	 mov	 esi, DWORD PTR _this$GSCopy$[ebp]
  00397	8b 8e 44 02 00
	00		 mov	 ecx, DWORD PTR [esi+580]
  0039d	3b cb		 cmp	 ecx, ebx
  0039f	74 0d		 je	 SHORT $LN17@AddRenderI
  003a1	8b 01		 mov	 eax, DWORD PTR [ecx]
  003a3	6a 01		 push	 1
  003a5	ff 50 40	 call	 DWORD PTR [eax+64]
  003a8	89 9e 44 02 00
	00		 mov	 DWORD PTR [esi+580], ebx
$LN17@AddRenderI:

; 373  : 		m_pRedTooltip = pImage;

  003ae	8b 45 e0	 mov	 eax, DWORD PTR _pImage$GSCopy$[ebp]
  003b1	89 86 44 02 00
	00		 mov	 DWORD PTR [esi+580], eax
  003b7	e9 25 03 00 00	 jmp	 $LN1@AddRenderI
$LN1273@AddRenderI:

; 374  : 	}
; 375  : 	else if( szType == "RedTooltipText" )

  003bc	c7 45 e8 bf 89
	8f be		 mov	 DWORD PTR __t$566697[ebp], -1097889345 ; be8f89bfH
  003c3	c7 45 ec 82 83
	87 9e		 mov	 DWORD PTR __t$566697[ebp+4], -1635286142 ; 9e878382H
  003ca	c7 45 f0 84 9c
	bf 8f		 mov	 DWORD PTR __t$566697[ebp+8], -1883267964 ; 8fbf9c84H
  003d1	66 c7 45 f4 95
	98		 mov	 WORD PTR __t$566697[ebp+12], 39061 ; 00009895H
  003d7	8d 45 e8	 lea	 eax, DWORD PTR __t$566697[ebp]
  003da	88 5d f6	 mov	 BYTE PTR __t$566697[ebp+14], bl
  003dd	8b cf		 mov	 ecx, edi
$LL797@AddRenderI:
  003df	81 30 ed ec eb
	ea		 xor	 DWORD PTR [eax], -353637139 ; eaebecedH
  003e5	83 c0 04	 add	 eax, 4
  003e8	49		 dec	 ecx
  003e9	75 f4		 jne	 SHORT $LL797@AddRenderI
  003eb	6a 0c		 push	 12			; 0000000cH
  003ed	58		 pop	 eax
$LL794@AddRenderI:
  003ee	8b c8		 mov	 ecx, eax
  003f0	81 e1 03 00 00
	80		 and	 ecx, -2147483645	; 80000003H
  003f6	79 05		 jns	 SHORT $LN1329@AddRenderI
  003f8	49		 dec	 ecx
  003f9	83 c9 fc	 or	 ecx, -4			; fffffffcH
  003fc	41		 inc	 ecx
$LN1329@AddRenderI:
  003fd	b2 ed		 mov	 dl, -19			; ffffffedH
  003ff	2a d1		 sub	 dl, cl
  00401	30 54 05 e8	 xor	 BYTE PTR __t$566697[ebp+eax], dl
  00405	40		 inc	 eax
  00406	83 f8 0e	 cmp	 eax, 14			; 0000000eH
  00409	7c e3		 jl	 SHORT $LL794@AddRenderI
  0040b	8b 4d dc	 mov	 ecx, DWORD PTR _szType$GSCopy$[ebp]
  0040e	8d 75 e8	 lea	 esi, DWORD PTR __t$566697[ebp]
  00411	ff 15 00 00 00
	00		 call	 DWORD PTR __imp_?c_str@ioHashString@@QBEPBDXZ
$LL1302@AddRenderI:
  00417	8a 08		 mov	 cl, BYTE PTR [eax]
  00419	3a 0e		 cmp	 cl, BYTE PTR [esi]
  0041b	75 1a		 jne	 SHORT $LN1303@AddRenderI
  0041d	3a cb		 cmp	 cl, bl
  0041f	74 12		 je	 SHORT $LN1304@AddRenderI
  00421	8a 48 01	 mov	 cl, BYTE PTR [eax+1]
  00424	3a 4e 01	 cmp	 cl, BYTE PTR [esi+1]
  00427	75 0e		 jne	 SHORT $LN1303@AddRenderI
  00429	83 c0 02	 add	 eax, 2
  0042c	83 c6 02	 add	 esi, 2
  0042f	3a cb		 cmp	 cl, bl
  00431	75 e4		 jne	 SHORT $LL1302@AddRenderI
$LN1304@AddRenderI:
  00433	33 c0		 xor	 eax, eax
  00435	eb 05		 jmp	 SHORT $LN1305@AddRenderI
$LN1303@AddRenderI:
  00437	1b c0		 sbb	 eax, eax
  00439	83 d8 ff	 sbb	 eax, -1
$LN1305@AddRenderI:
  0043c	3b c3		 cmp	 eax, ebx
  0043e	75 28		 jne	 SHORT $LN1274@AddRenderI

; 376  : 	{
; 377  : 		SAFEDELETE( m_pRedTooltipText );

  00440	8b 75 e4	 mov	 esi, DWORD PTR _this$GSCopy$[ebp]
  00443	8b 8e 48 02 00
	00		 mov	 ecx, DWORD PTR [esi+584]
  00449	3b cb		 cmp	 ecx, ebx
  0044b	74 0d		 je	 SHORT $LN14@AddRenderI
  0044d	8b 01		 mov	 eax, DWORD PTR [ecx]
  0044f	6a 01		 push	 1
  00451	ff 50 40	 call	 DWORD PTR [eax+64]
  00454	89 9e 48 02 00
	00		 mov	 DWORD PTR [esi+584], ebx
$LN14@AddRenderI:

; 378  : 		m_pRedTooltipText = pImage;

  0045a	8b 45 e0	 mov	 eax, DWORD PTR _pImage$GSCopy$[ebp]
  0045d	89 86 48 02 00
	00		 mov	 DWORD PTR [esi+584], eax
  00463	e9 79 02 00 00	 jmp	 $LN1@AddRenderI
$LN1274@AddRenderI:

; 379  : 	}
; 380  : 	else if( szType == "BtnIconStart" )

  00468	c7 45 e8 af 98
	85 a3		 mov	 DWORD PTR __t$566764[ebp], -1551525713 ; a38598afH
  0046f	c7 45 ec 8e 83
	85 b9		 mov	 DWORD PTR __t$566764[ebp+4], -1182432370 ; b985838eH
  00476	c7 45 f0 99 8d
	99 9e		 mov	 DWORD PTR __t$566764[ebp+8], -1634103911 ; 9e998d99H
  0047d	8d 45 e8	 lea	 eax, DWORD PTR __t$566764[ebp]
  00480	88 5d f4	 mov	 BYTE PTR __t$566764[ebp+12], bl
  00483	8b cf		 mov	 ecx, edi
$LL903@AddRenderI:
  00485	81 30 ed ec eb
	ea		 xor	 DWORD PTR [eax], -353637139 ; eaebecedH
  0048b	83 c0 04	 add	 eax, 4
  0048e	49		 dec	 ecx
  0048f	75 f4		 jne	 SHORT $LL903@AddRenderI
  00491	8b 4d dc	 mov	 ecx, DWORD PTR _szType$GSCopy$[ebp]
  00494	8d 75 e8	 lea	 esi, DWORD PTR __t$566764[ebp]
  00497	ff 15 00 00 00
	00		 call	 DWORD PTR __imp_?c_str@ioHashString@@QBEPBDXZ
$LL1306@AddRenderI:
  0049d	8a 08		 mov	 cl, BYTE PTR [eax]
  0049f	3a 0e		 cmp	 cl, BYTE PTR [esi]
  004a1	75 1a		 jne	 SHORT $LN1307@AddRenderI
  004a3	3a cb		 cmp	 cl, bl
  004a5	74 12		 je	 SHORT $LN1323@AddRenderI
  004a7	8a 48 01	 mov	 cl, BYTE PTR [eax+1]
  004aa	3a 4e 01	 cmp	 cl, BYTE PTR [esi+1]
  004ad	75 0e		 jne	 SHORT $LN1307@AddRenderI
  004af	83 c0 02	 add	 eax, 2
  004b2	83 c6 02	 add	 esi, 2
  004b5	3a cb		 cmp	 cl, bl
  004b7	75 e4		 jne	 SHORT $LL1306@AddRenderI
$LN1323@AddRenderI:
  004b9	33 c0		 xor	 eax, eax
  004bb	eb 05		 jmp	 SHORT $LN1309@AddRenderI
$LN1307@AddRenderI:
  004bd	1b c0		 sbb	 eax, eax
  004bf	83 d8 ff	 sbb	 eax, -1
$LN1309@AddRenderI:
  004c2	3b c3		 cmp	 eax, ebx
  004c4	75 28		 jne	 SHORT $LN1275@AddRenderI

; 381  : 	{
; 382  : 		SAFEDELETE( m_pBtnIconStart );

  004c6	8b 75 e4	 mov	 esi, DWORD PTR _this$GSCopy$[ebp]
  004c9	8b 8e 4c 02 00
	00		 mov	 ecx, DWORD PTR [esi+588]
  004cf	3b cb		 cmp	 ecx, ebx
  004d1	74 0d		 je	 SHORT $LN11@AddRenderI
  004d3	8b 01		 mov	 eax, DWORD PTR [ecx]
  004d5	6a 01		 push	 1
  004d7	ff 50 40	 call	 DWORD PTR [eax+64]
  004da	89 9e 4c 02 00
	00		 mov	 DWORD PTR [esi+588], ebx
$LN11@AddRenderI:

; 383  : 		m_pBtnIconStart = pImage;

  004e0	8b 45 e0	 mov	 eax, DWORD PTR _pImage$GSCopy$[ebp]
  004e3	89 86 4c 02 00
	00		 mov	 DWORD PTR [esi+588], eax
  004e9	e9 f3 01 00 00	 jmp	 $LN1@AddRenderI
$LN1275@AddRenderI:

; 384  : 	}
; 385  : 	else if( szType == "BtnIconEnd" )

  004ee	6a 02		 push	 2
  004f0	c7 45 ec af 98
	85 a3		 mov	 DWORD PTR __t$566889[ebp], -1551525713 ; a38598afH
  004f7	c7 45 f0 8e 83
	85 af		 mov	 DWORD PTR __t$566889[ebp+4], -1350204530 ; af85838eH
  004fe	66 c7 45 f4 83
	88		 mov	 WORD PTR __t$566889[ebp+8], 34947 ; 00008883H
  00504	8d 45 ec	 lea	 eax, DWORD PTR __t$566889[ebp]
  00507	88 5d f6	 mov	 BYTE PTR __t$566889[ebp+10], bl
  0050a	59		 pop	 ecx
  0050b	bf ed ec eb ea	 mov	 edi, -353637139		; eaebecedH
$LL1009@AddRenderI:
  00510	31 38		 xor	 DWORD PTR [eax], edi
  00512	83 c0 04	 add	 eax, 4
  00515	49		 dec	 ecx
  00516	75 f8		 jne	 SHORT $LL1009@AddRenderI
  00518	6a 08		 push	 8
  0051a	58		 pop	 eax
$LL1006@AddRenderI:
  0051b	8b c8		 mov	 ecx, eax
  0051d	81 e1 03 00 00
	80		 and	 ecx, -2147483645	; 80000003H
  00523	79 05		 jns	 SHORT $LN1330@AddRenderI
  00525	49		 dec	 ecx
  00526	83 c9 fc	 or	 ecx, -4			; fffffffcH
  00529	41		 inc	 ecx
$LN1330@AddRenderI:
  0052a	b2 ed		 mov	 dl, -19			; ffffffedH
  0052c	2a d1		 sub	 dl, cl
  0052e	30 54 05 ec	 xor	 BYTE PTR __t$566889[ebp+eax], dl
  00532	40		 inc	 eax
  00533	83 f8 0a	 cmp	 eax, 10			; 0000000aH
  00536	7c e3		 jl	 SHORT $LL1006@AddRenderI
  00538	8b 4d dc	 mov	 ecx, DWORD PTR _szType$GSCopy$[ebp]
  0053b	8d 75 ec	 lea	 esi, DWORD PTR __t$566889[ebp]
  0053e	ff 15 00 00 00
	00		 call	 DWORD PTR __imp_?c_str@ioHashString@@QBEPBDXZ
$LL1310@AddRenderI:
  00544	8a 08		 mov	 cl, BYTE PTR [eax]
  00546	3a 0e		 cmp	 cl, BYTE PTR [esi]
  00548	75 1a		 jne	 SHORT $LN1311@AddRenderI
  0054a	3a cb		 cmp	 cl, bl
  0054c	74 12		 je	 SHORT $LN1324@AddRenderI
  0054e	8a 48 01	 mov	 cl, BYTE PTR [eax+1]
  00551	3a 4e 01	 cmp	 cl, BYTE PTR [esi+1]
  00554	75 0e		 jne	 SHORT $LN1311@AddRenderI
  00556	83 c0 02	 add	 eax, 2
  00559	83 c6 02	 add	 esi, 2
  0055c	3a cb		 cmp	 cl, bl
  0055e	75 e4		 jne	 SHORT $LL1310@AddRenderI
$LN1324@AddRenderI:
  00560	33 c0		 xor	 eax, eax
  00562	eb 05		 jmp	 SHORT $LN1313@AddRenderI
$LN1311@AddRenderI:
  00564	1b c0		 sbb	 eax, eax
  00566	83 d8 ff	 sbb	 eax, -1
$LN1313@AddRenderI:
  00569	3b c3		 cmp	 eax, ebx
  0056b	75 28		 jne	 SHORT $LN1276@AddRenderI

; 386  : 	{
; 387  : 		SAFEDELETE( m_pBtnIconEnd );

  0056d	8b 75 e4	 mov	 esi, DWORD PTR _this$GSCopy$[ebp]
  00570	8b 8e 50 02 00
	00		 mov	 ecx, DWORD PTR [esi+592]
  00576	3b cb		 cmp	 ecx, ebx
  00578	74 0d		 je	 SHORT $LN8@AddRenderI
  0057a	8b 01		 mov	 eax, DWORD PTR [ecx]
  0057c	6a 01		 push	 1
  0057e	ff 50 40	 call	 DWORD PTR [eax+64]
  00581	89 9e 50 02 00
	00		 mov	 DWORD PTR [esi+592], ebx
$LN8@AddRenderI:

; 388  : 		m_pBtnIconEnd = pImage;

  00587	8b 45 e0	 mov	 eax, DWORD PTR _pImage$GSCopy$[ebp]
  0058a	89 86 50 02 00
	00		 mov	 DWORD PTR [esi+592], eax
  00590	e9 4c 01 00 00	 jmp	 $LN1@AddRenderI
$LN1276@AddRenderI:

; 389  : 	}	
; 390  : 	else if( szType == "RedEffect01" )

  00595	6a 02		 push	 2
  00597	c7 45 e8 bf 89
	8f af		 mov	 DWORD PTR __t$567014[ebp], -1349547585 ; af8f89bfH
  0059e	c7 45 ec 8b 8a
	8e 89		 mov	 DWORD PTR __t$567014[ebp+4], -1987147125 ; 898e8a8bH
  005a5	8d 45 e8	 lea	 eax, DWORD PTR __t$567014[ebp]
  005a8	c7 45 f0 99 dc
	da 00		 mov	 DWORD PTR __t$567014[ebp+8], 14343321 ; 00dadc99H
  005af	59		 pop	 ecx
$LL1115@AddRenderI:
  005b0	31 38		 xor	 DWORD PTR [eax], edi
  005b2	83 c0 04	 add	 eax, 4
  005b5	49		 dec	 ecx
  005b6	75 f8		 jne	 SHORT $LL1115@AddRenderI
  005b8	6a 08		 push	 8
  005ba	58		 pop	 eax
$LL1112@AddRenderI:
  005bb	8b c8		 mov	 ecx, eax
  005bd	81 e1 03 00 00
	80		 and	 ecx, -2147483645	; 80000003H
  005c3	79 05		 jns	 SHORT $LN1331@AddRenderI
  005c5	49		 dec	 ecx
  005c6	83 c9 fc	 or	 ecx, -4			; fffffffcH
  005c9	41		 inc	 ecx
$LN1331@AddRenderI:
  005ca	b2 ed		 mov	 dl, -19			; ffffffedH
  005cc	2a d1		 sub	 dl, cl
  005ce	30 54 05 e8	 xor	 BYTE PTR __t$567014[ebp+eax], dl
  005d2	40		 inc	 eax
  005d3	83 f8 0b	 cmp	 eax, 11			; 0000000bH
  005d6	7c e3		 jl	 SHORT $LL1112@AddRenderI
  005d8	8b 4d dc	 mov	 ecx, DWORD PTR _szType$GSCopy$[ebp]
  005db	8d 75 e8	 lea	 esi, DWORD PTR __t$567014[ebp]
  005de	ff 15 00 00 00
	00		 call	 DWORD PTR __imp_?c_str@ioHashString@@QBEPBDXZ
$LL1314@AddRenderI:
  005e4	8a 08		 mov	 cl, BYTE PTR [eax]
  005e6	3a 0e		 cmp	 cl, BYTE PTR [esi]
  005e8	75 1a		 jne	 SHORT $LN1315@AddRenderI
  005ea	3a cb		 cmp	 cl, bl
  005ec	74 12		 je	 SHORT $LN1325@AddRenderI
  005ee	8a 48 01	 mov	 cl, BYTE PTR [eax+1]
  005f1	3a 4e 01	 cmp	 cl, BYTE PTR [esi+1]
  005f4	75 0e		 jne	 SHORT $LN1315@AddRenderI
  005f6	83 c0 02	 add	 eax, 2
  005f9	83 c6 02	 add	 esi, 2
  005fc	3a cb		 cmp	 cl, bl
  005fe	75 e4		 jne	 SHORT $LL1314@AddRenderI
$LN1325@AddRenderI:
  00600	33 c0		 xor	 eax, eax
  00602	eb 05		 jmp	 SHORT $LN1317@AddRenderI
$LN1315@AddRenderI:
  00604	1b c0		 sbb	 eax, eax
  00606	83 d8 ff	 sbb	 eax, -1
$LN1317@AddRenderI:
  00609	3b c3		 cmp	 eax, ebx
  0060b	75 28		 jne	 SHORT $LN1277@AddRenderI

; 391  : 	{
; 392  : 		SAFEDELETE( m_pRedEffect[0] );

  0060d	8b 75 e4	 mov	 esi, DWORD PTR _this$GSCopy$[ebp]
  00610	8b 8e 54 02 00
	00		 mov	 ecx, DWORD PTR [esi+596]
  00616	3b cb		 cmp	 ecx, ebx
  00618	74 0d		 je	 SHORT $LN5@AddRenderI
  0061a	8b 01		 mov	 eax, DWORD PTR [ecx]
  0061c	6a 01		 push	 1
  0061e	ff 50 40	 call	 DWORD PTR [eax+64]
  00621	89 9e 54 02 00
	00		 mov	 DWORD PTR [esi+596], ebx
$LN5@AddRenderI:

; 393  : 		m_pRedEffect[0] = pImage;

  00627	8b 45 e0	 mov	 eax, DWORD PTR _pImage$GSCopy$[ebp]
  0062a	89 86 54 02 00
	00		 mov	 DWORD PTR [esi+596], eax
  00630	e9 ac 00 00 00	 jmp	 $LN1@AddRenderI
$LN1277@AddRenderI:

; 394  : 	}	
; 395  : 	else if( szType == "RedEffect02" )

  00635	6a 02		 push	 2
  00637	c7 45 e8 bf 89
	8f af		 mov	 DWORD PTR __t$567139[ebp], -1349547585 ; af8f89bfH
  0063e	c7 45 ec 8b 8a
	8e 89		 mov	 DWORD PTR __t$567139[ebp+4], -1987147125 ; 898e8a8bH
  00645	8d 45 e8	 lea	 eax, DWORD PTR __t$567139[ebp]
  00648	c7 45 f0 99 dc
	d9 00		 mov	 DWORD PTR __t$567139[ebp+8], 14277785 ; 00d9dc99H
  0064f	59		 pop	 ecx
$LL1221@AddRenderI:
  00650	31 38		 xor	 DWORD PTR [eax], edi
  00652	83 c0 04	 add	 eax, 4
  00655	49		 dec	 ecx
  00656	75 f8		 jne	 SHORT $LL1221@AddRenderI
  00658	6a 08		 push	 8
  0065a	58		 pop	 eax
$LL1218@AddRenderI:
  0065b	8b c8		 mov	 ecx, eax
  0065d	81 e1 03 00 00
	80		 and	 ecx, -2147483645	; 80000003H
  00663	79 05		 jns	 SHORT $LN1332@AddRenderI
  00665	49		 dec	 ecx
  00666	83 c9 fc	 or	 ecx, -4			; fffffffcH
  00669	41		 inc	 ecx
$LN1332@AddRenderI:
  0066a	b2 ed		 mov	 dl, -19			; ffffffedH
  0066c	2a d1		 sub	 dl, cl
  0066e	30 54 05 e8	 xor	 BYTE PTR __t$567139[ebp+eax], dl
  00672	40		 inc	 eax
  00673	83 f8 0b	 cmp	 eax, 11			; 0000000bH
  00676	7c e3		 jl	 SHORT $LL1218@AddRenderI
  00678	8b 4d dc	 mov	 ecx, DWORD PTR _szType$GSCopy$[ebp]
  0067b	8d 75 e8	 lea	 esi, DWORD PTR __t$567139[ebp]
  0067e	ff 15 00 00 00
	00		 call	 DWORD PTR __imp_?c_str@ioHashString@@QBEPBDXZ
$LL1318@AddRenderI:
  00684	8a 08		 mov	 cl, BYTE PTR [eax]
  00686	3a 0e		 cmp	 cl, BYTE PTR [esi]
  00688	75 1a		 jne	 SHORT $LN1319@AddRenderI
  0068a	3a cb		 cmp	 cl, bl
  0068c	74 12		 je	 SHORT $LN1320@AddRenderI
  0068e	8a 48 01	 mov	 cl, BYTE PTR [eax+1]
  00691	3a 4e 01	 cmp	 cl, BYTE PTR [esi+1]
  00694	75 0e		 jne	 SHORT $LN1319@AddRenderI
  00696	83 c0 02	 add	 eax, 2
  00699	83 c6 02	 add	 esi, 2
  0069c	3a cb		 cmp	 cl, bl
  0069e	75 e4		 jne	 SHORT $LL1318@AddRenderI
$LN1320@AddRenderI:
  006a0	33 c0		 xor	 eax, eax
  006a2	eb 05		 jmp	 SHORT $LN1321@AddRenderI
$LN1319@AddRenderI:
  006a4	1b c0		 sbb	 eax, eax
  006a6	83 d8 ff	 sbb	 eax, -1
$LN1321@AddRenderI:
  006a9	3b c3		 cmp	 eax, ebx
  006ab	75 25		 jne	 SHORT $LN3@AddRenderI

; 396  : 	{
; 397  : 		SAFEDELETE( m_pRedEffect[1] );

  006ad	8b 75 e4	 mov	 esi, DWORD PTR _this$GSCopy$[ebp]
  006b0	8b 8e 58 02 00
	00		 mov	 ecx, DWORD PTR [esi+600]
  006b6	3b cb		 cmp	 ecx, ebx
  006b8	74 0d		 je	 SHORT $LN2@AddRenderI
  006ba	8b 01		 mov	 eax, DWORD PTR [ecx]
  006bc	6a 01		 push	 1
  006be	ff 50 40	 call	 DWORD PTR [eax+64]
  006c1	89 9e 58 02 00
	00		 mov	 DWORD PTR [esi+600], ebx
$LN2@AddRenderI:

; 398  : 		m_pRedEffect[1] = pImage;

  006c7	8b 45 e0	 mov	 eax, DWORD PTR _pImage$GSCopy$[ebp]
  006ca	89 86 58 02 00
	00		 mov	 DWORD PTR [esi+600], eax

; 399  : 	}	
; 400  : 	else

  006d0	eb 0f		 jmp	 SHORT $LN1@AddRenderI
$LN3@AddRenderI:

; 401  : 	{
; 402  : 		MenuBase::AddRenderImage( szType, pImage );

  006d2	ff 75 e0	 push	 DWORD PTR _pImage$GSCopy$[ebp]
  006d5	8b 4d e4	 mov	 ecx, DWORD PTR _this$GSCopy$[ebp]
  006d8	ff 75 dc	 push	 DWORD PTR _szType$GSCopy$[ebp]
  006db	ff 15 00 00 00
	00		 call	 DWORD PTR __imp_?AddRenderImage@ioButton@@UAEXABVioHashString@@PAVioUIRenderImage@@@Z
$LN1@AddRenderI:

; 403  : 	}
; 404  : }

  006e1	8b 4d fc	 mov	 ecx, DWORD PTR __$ArrayPad$[ebp]
  006e4	5f		 pop	 edi
  006e5	5e		 pop	 esi
  006e6	33 cd		 xor	 ecx, ebp
  006e8	5b		 pop	 ebx
  006e9	e8 00 00 00 00	 call	 @__security_check_cookie@4
  006ee	c9		 leave
  006ef	c2 08 00	 ret	 8
?AddRenderImage@MenuBtn@@MAEXABVioHashString@@PAVioUIRenderImage@@@Z ENDP ; MenuBtn::AddRenderImage
_TEXT	ENDS
PUBLIC	??_C@_0CE@ENIOEKPH@MenuBtn?3?3OnRenderTooltipTimePres@ ; `string'
PUBLIC	?OnRenderTooltipTimePresent@MenuBtn@@QAEXMM@Z	; MenuBtn::OnRenderTooltipTimePresent
EXTRN	?GetSingleton@ioSubscriptionMgr@@SAAAV1@XZ:PROC	; ioSubscriptionMgr::GetSingleton
EXTRN	?GetSingleton@ioPresentMgr@@SAAAV1@XZ:PROC	; ioPresentMgr::GetSingleton
;	COMDAT ??_C@_0CE@ENIOEKPH@MenuBtn?3?3OnRenderTooltipTimePres@
; File d:\lost saga for developer\youtube\tutorial\source\src\lsclient\iocomplexstringprinter.h
CONST	SEGMENT
??_C@_0CE@ENIOEKPH@MenuBtn?3?3OnRenderTooltipTimePres@ DB 'MenuBtn::OnRen'
	DB	'derTooltipTimePresent', 00H			; `string'
CONST	ENDS
;	COMDAT xdata$x
xdata$x	SEGMENT
__unwindtable$?OnRenderTooltipTimePresent@MenuBtn@@QAEXMM@Z DD 0ffffffffH
	DD	FLAT:__unwindfunclet$?OnRenderTooltipTimePresent@MenuBtn@@QAEXMM@Z$0
	DD	00H
	DD	FLAT:__unwindfunclet$?OnRenderTooltipTimePresent@MenuBtn@@QAEXMM@Z$1
__ehfuncinfo$?OnRenderTooltipTimePresent@MenuBtn@@QAEXMM@Z DD 019930522H
	DD	02H
	DD	FLAT:__unwindtable$?OnRenderTooltipTimePresent@MenuBtn@@QAEXMM@Z
	DD	2 DUP(00H)
	DD	2 DUP(00H)
	DD	00H
	DD	01H
; Function compile flags: /Ogsp
; File d:\lost saga for developer\youtube\tutorial\source\src\lsclient\gui\helpwnd.cpp
xdata$x	ENDS
;	COMDAT ?OnRenderTooltipTimePresent@MenuBtn@@QAEXMM@Z
_TEXT	SEGMENT
_kMentPrinter$ = -88					; size = 32
_kCountPrinter$ = -56					; size = 32
_this$ = -24						; size = 4
_iMaxPresent$ = -20					; size = 4
_iMaxSubcription$ = -16					; size = 4
__$EHRec$ = -12						; size = 12
tv298 = 8						; size = 4
_fXPos$ = 8						; size = 4
_fYPos$ = 12						; size = 4
?OnRenderTooltipTimePresent@MenuBtn@@QAEXMM@Z PROC	; MenuBtn::OnRenderTooltipTimePresent, COMDAT
; _this$ = ecx

; 930  : {

  00000	6a 4c		 push	 76			; 0000004cH
  00002	b8 00 00 00 00	 mov	 eax, __ehhandler$?OnRenderTooltipTimePresent@MenuBtn@@QAEXMM@Z
  00007	e8 00 00 00 00	 call	 __EH_prolog3
  0000c	89 4d e8	 mov	 DWORD PTR _this$[ebp], ecx

; 931  : 	int iMaxPresent = g_PresentMgr.GetMaxPresent();

  0000f	e8 00 00 00 00	 call	 ?GetSingleton@ioPresentMgr@@SAAAV1@XZ ; ioPresentMgr::GetSingleton
  00014	8b c8		 mov	 ecx, eax
  00016	8b 41 08	 mov	 eax, DWORD PTR [ecx+8]
  00019	2b 41 04	 sub	 eax, DWORD PTR [ecx+4]
  0001c	6a 34		 push	 52			; 00000034H
  0001e	99		 cdq
  0001f	59		 pop	 ecx
  00020	f7 f9		 idiv	 ecx
  00022	89 45 ec	 mov	 DWORD PTR _iMaxPresent$[ebp], eax

; 932  : 	int iMaxSubcription = g_SubscriptionMgr.GetMaxSubscription();

  00025	e8 00 00 00 00	 call	 ?GetSingleton@ioSubscriptionMgr@@SAAAV1@XZ ; ioSubscriptionMgr::GetSingleton
  0002a	8b c8		 mov	 ecx, eax
  0002c	8b 41 08	 mov	 eax, DWORD PTR [ecx+8]
  0002f	2b 41 04	 sub	 eax, DWORD PTR [ecx+4]
  00032	6a 30		 push	 48			; 00000030H
  00034	99		 cdq
  00035	59		 pop	 ecx
  00036	f7 f9		 idiv	 ecx

; 933  : 	ioComplexStringPrinter kMentPrinter;

  00038	8d 4d a8	 lea	 ecx, DWORD PTR _kMentPrinter$[ebp]
  0003b	89 45 f0	 mov	 DWORD PTR _iMaxSubcription$[ebp], eax
  0003e	e8 00 00 00 00	 call	 ??0ioComplexStringPrinter@@QAE@XZ ; ioComplexStringPrinter::ioComplexStringPrinter
  00043	33 f6		 xor	 esi, esi

; 934  : 	ioComplexStringPrinter kCountPrinter;

  00045	8d 4d c8	 lea	 ecx, DWORD PTR _kCountPrinter$[ebp]
  00048	89 75 fc	 mov	 DWORD PTR __$EHRec$[ebp+8], esi
  0004b	e8 00 00 00 00	 call	 ??0ioComplexStringPrinter@@QAE@XZ ; ioComplexStringPrinter::ioComplexStringPrinter

; 935  : 
; 936  : 	kMentPrinter.SetTextStyle( TS_NORMAL );

  00050	56		 push	 esi
  00051	8d 4d a8	 lea	 ecx, DWORD PTR _kMentPrinter$[ebp]
  00054	c6 45 fc 01	 mov	 BYTE PTR __$EHRec$[ebp+8], 1
  00058	e8 00 00 00 00	 call	 ?SetTextStyle@ioComplexStringPrinter@@QAEXW4TextStyle@@@Z ; ioComplexStringPrinter::SetTextStyle

; 937  : 	kMentPrinter.SetTextColor( TCT_DEFAULT_DARKGRAY );

  0005d	68 3a 3a 3a ff	 push	 -12961222		; ff3a3a3aH
  00062	8d 4d a8	 lea	 ecx, DWORD PTR _kMentPrinter$[ebp]
  00065	e8 00 00 00 00	 call	 ?SetTextColor@ioComplexStringPrinter@@QAEXK@Z ; ioComplexStringPrinter::SetTextColor

; 938  : 	kMentPrinter.AddTextPiece( FONT_SIZE_12, STR(1) );

  0006a	56		 push	 esi
  0006b	8b 35 00 00 00
	00		 mov	 esi, DWORD PTR __imp_?GetSingleton@ioStringManager@@SAAAV1@XZ
  00071	6a 01		 push	 1
  00073	68 00 00 00 00	 push	 OFFSET ??_C@_00CNPNBAHC@?$AA@
  00078	bb 00 00 00 00	 mov	 ebx, OFFSET ??_C@_0CE@ENIOEKPH@MenuBtn?3?3OnRenderTooltipTimePres@
  0007d	53		 push	 ebx
  0007e	ff d6		 call	 esi
  00080	8b 3d 00 00 00
	00		 mov	 edi, DWORD PTR __imp_?GetString@ioStringManager@@QAEPADPBD0HW4FileNamePrefix@1@@Z
  00086	8b c8		 mov	 ecx, eax
  00088	ff d7		 call	 edi
  0008a	f3 0f 10 05 00
	00 00 00	 movss	 xmm0, DWORD PTR __real@3f19999a
  00092	50		 push	 eax
  00093	51		 push	 ecx
  00094	8d 45 a8	 lea	 eax, DWORD PTR _kMentPrinter$[ebp]
  00097	f3 0f 11 04 24	 movss	 DWORD PTR [esp], xmm0
  0009c	50		 push	 eax
  0009d	e8 00 00 00 00	 call	 ?AddTextPiece@ioComplexStringPrinter@@QAAXMPBDZZ ; ioComplexStringPrinter::AddTextPiece
  000a2	83 c4 0c	 add	 esp, 12			; 0000000cH

; 939  : 
; 940  : 	kCountPrinter.SetTextStyle( TS_NORMAL );

  000a5	6a 00		 push	 0
  000a7	8d 4d c8	 lea	 ecx, DWORD PTR _kCountPrinter$[ebp]
  000aa	e8 00 00 00 00	 call	 ?SetTextStyle@ioComplexStringPrinter@@QAEXW4TextStyle@@@Z ; ioComplexStringPrinter::SetTextStyle

; 941  : 	kCountPrinter.SetTextColor( TCT_DEFAULT_RED );

  000af	68 00 16 b9 ff	 push	 -4647424		; ffb91600H
  000b4	8d 4d c8	 lea	 ecx, DWORD PTR _kCountPrinter$[ebp]
  000b7	e8 00 00 00 00	 call	 ?SetTextColor@ioComplexStringPrinter@@QAEXK@Z ; ioComplexStringPrinter::SetTextColor

; 942  : 	kCountPrinter.AddTextPiece( FONT_SIZE_12, STR(2), iMaxPresent + iMaxSubcription );

  000bc	8b 45 f0	 mov	 eax, DWORD PTR _iMaxSubcription$[ebp]
  000bf	03 45 ec	 add	 eax, DWORD PTR _iMaxPresent$[ebp]
  000c2	50		 push	 eax
  000c3	6a 00		 push	 0
  000c5	6a 02		 push	 2
  000c7	68 00 00 00 00	 push	 OFFSET ??_C@_00CNPNBAHC@?$AA@
  000cc	53		 push	 ebx
  000cd	ff d6		 call	 esi
  000cf	8b c8		 mov	 ecx, eax
  000d1	ff d7		 call	 edi
  000d3	f3 0f 10 05 00
	00 00 00	 movss	 xmm0, DWORD PTR __real@3f19999a
  000db	50		 push	 eax
  000dc	51		 push	 ecx
  000dd	8d 4d c8	 lea	 ecx, DWORD PTR _kCountPrinter$[ebp]
  000e0	f3 0f 11 04 24	 movss	 DWORD PTR [esp], xmm0
  000e5	e8 00 00 00 00	 call	 ?AddTextPiece@ioComplexStringPrinter@@QAEXMPBDH@Z ; ioComplexStringPrinter::AddTextPiece

; 943  : 
; 944  : 	float fTextWidth = kMentPrinter.GetFullWidth() + 20;

  000ea	f3 0f 10 45 c4	 movss	 xmm0, DWORD PTR _kMentPrinter$[ebp+28]
  000ef	f2 0f 10 0d 00
	00 00 00	 movsd	 xmm1, QWORD PTR __real@4034000000000000

; 945  : 	if( fTextWidth < kCountPrinter.GetFullWidth() )

  000f7	f3 0f 10 5d e4	 movss	 xmm3, DWORD PTR _kCountPrinter$[ebp+28]
  000fc	0f 5a c0	 cvtps2pd xmm0, xmm0
  000ff	f2 0f 58 c1	 addsd	 xmm0, xmm1
  00103	66 0f 5a c0	 cvtpd2ps xmm0, xmm0
  00107	0f 57 d2	 xorps	 xmm2, xmm2
  0010a	f3 0f 5a d0	 cvtss2sd xmm2, xmm0
  0010e	0f 5a db	 cvtps2pd xmm3, xmm3
  00111	66 0f 2f da	 comisd	 xmm3, xmm2
  00115	76 10		 jbe	 SHORT $LN1@OnRenderTo@8

; 946  : 		fTextWidth = kCountPrinter.GetFullWidth() + 20;

  00117	f3 0f 10 45 e4	 movss	 xmm0, DWORD PTR _kCountPrinter$[ebp+28]
  0011c	0f 5a c0	 cvtps2pd xmm0, xmm0
  0011f	f2 0f 58 c1	 addsd	 xmm0, xmm1
  00123	f2 0f 5a c0	 cvtsd2ss xmm0, xmm0
$LN1@OnRenderTo@8:

; 947  : 
; 948  : 	fYPos -= 28;

  00127	f3 0f 10 4d 0c	 movss	 xmm1, DWORD PTR _fYPos$[ebp]
  0012c	0f 5a c9	 cvtps2pd xmm1, xmm1
  0012f	f2 0f 5c 0d 00
	00 00 00	 subsd	 xmm1, QWORD PTR __real@403c000000000000
  00137	66 0f 5a c9	 cvtpd2ps xmm1, xmm1
  0013b	f3 0f 11 4d 0c	 movss	 DWORD PTR _fYPos$[ebp], xmm1

; 949  : 	OnRenderTooltipBar( ( fXPos + 7 ) - ( fTextWidth / 2 ), fYPos - 6, fTextWidth );

  00140	f3 0f 5a c9	 cvtss2sd xmm1, xmm1
  00144	f2 0f 5c 0d 00
	00 00 00	 subsd	 xmm1, QWORD PTR __real@4018000000000000
  0014c	f2 0f 2c c1	 cvttsd2si eax, xmm1
  00150	f3 0f 10 4d 08	 movss	 xmm1, DWORD PTR _fXPos$[ebp]
  00155	51		 push	 ecx
  00156	8b 4d e8	 mov	 ecx, DWORD PTR _this$[ebp]
  00159	f3 0f 11 04 24	 movss	 DWORD PTR [esp], xmm0
  0015e	0f 5a c9	 cvtps2pd xmm1, xmm1
  00161	f2 0f 58 0d 00
	00 00 00	 addsd	 xmm1, QWORD PTR __real@401c000000000000
  00169	f3 0f 5a c0	 cvtss2sd xmm0, xmm0
  0016d	f2 0f 59 05 00
	00 00 00	 mulsd	 xmm0, QWORD PTR __real@3fe0000000000000
  00175	50		 push	 eax
  00176	f2 0f 5c c8	 subsd	 xmm1, xmm0
  0017a	f2 0f 2c c1	 cvttsd2si eax, xmm1
  0017e	50		 push	 eax
  0017f	e8 00 00 00 00	 call	 ?OnRenderTooltipBar@MenuBtn@@IAEXHHM@Z ; MenuBtn::OnRenderTooltipBar

; 950  : 	kMentPrinter.PrintFullText( fXPos + 14, fYPos + 4, TAT_CENTER );

  00184	f3 0f 10 45 08	 movss	 xmm0, DWORD PTR _fXPos$[ebp]
  00189	f3 0f 10 4d 0c	 movss	 xmm1, DWORD PTR _fYPos$[ebp]
  0018e	be ff 00 00 00	 mov	 esi, 255		; 000000ffH
  00193	56		 push	 esi
  00194	6a 01		 push	 1
  00196	51		 push	 ecx
  00197	0f 5a c9	 cvtps2pd xmm1, xmm1
  0019a	f2 0f 58 0d 00
	00 00 00	 addsd	 xmm1, QWORD PTR __real@4010000000000000
  001a2	51		 push	 ecx
  001a3	0f 5a c0	 cvtps2pd xmm0, xmm0
  001a6	f2 0f 58 05 00
	00 00 00	 addsd	 xmm0, QWORD PTR __real@402c000000000000
  001ae	f2 0f 5a c0	 cvtsd2ss xmm0, xmm0
  001b2	f2 0f 5a c9	 cvtsd2ss xmm1, xmm1
  001b6	f3 0f 11 4c 24
	04		 movss	 DWORD PTR [esp+4], xmm1
  001bc	8d 4d a8	 lea	 ecx, DWORD PTR _kMentPrinter$[ebp]
  001bf	f3 0f 11 45 08	 movss	 DWORD PTR tv298[ebp], xmm0
  001c4	f3 0f 11 04 24	 movss	 DWORD PTR [esp], xmm0
  001c9	e8 00 00 00 00	 call	 ?PrintFullText@ioComplexStringPrinter@@QAEXMMW4TextAlignType@@E@Z ; ioComplexStringPrinter::PrintFullText

; 951  : 	kCountPrinter.PrintFullText( fXPos + 14, fYPos + 17, TAT_CENTER );

  001ce	f3 0f 10 45 0c	 movss	 xmm0, DWORD PTR _fYPos$[ebp]
  001d3	56		 push	 esi
  001d4	6a 01		 push	 1
  001d6	0f 5a c0	 cvtps2pd xmm0, xmm0
  001d9	f2 0f 58 05 00
	00 00 00	 addsd	 xmm0, QWORD PTR __real@4031000000000000
  001e1	51		 push	 ecx
  001e2	51		 push	 ecx
  001e3	f2 0f 5a c0	 cvtsd2ss xmm0, xmm0
  001e7	f3 0f 11 44 24
	04		 movss	 DWORD PTR [esp+4], xmm0
  001ed	f3 0f 10 45 08	 movss	 xmm0, DWORD PTR tv298[ebp]
  001f2	8d 4d c8	 lea	 ecx, DWORD PTR _kCountPrinter$[ebp]
  001f5	f3 0f 11 04 24	 movss	 DWORD PTR [esp], xmm0
  001fa	e8 00 00 00 00	 call	 ?PrintFullText@ioComplexStringPrinter@@QAEXMMW4TextAlignType@@E@Z ; ioComplexStringPrinter::PrintFullText

; 952  : }

  001ff	8d 4d c8	 lea	 ecx, DWORD PTR _kCountPrinter$[ebp]
  00202	c6 45 fc 00	 mov	 BYTE PTR __$EHRec$[ebp+8], 0
  00206	e8 00 00 00 00	 call	 ??1ioComplexStringPrinter@@QAE@XZ ; ioComplexStringPrinter::~ioComplexStringPrinter
  0020b	83 4d fc ff	 or	 DWORD PTR __$EHRec$[ebp+8], -1
  0020f	8d 4d a8	 lea	 ecx, DWORD PTR _kMentPrinter$[ebp]
  00212	e8 00 00 00 00	 call	 ??1ioComplexStringPrinter@@QAE@XZ ; ioComplexStringPrinter::~ioComplexStringPrinter
  00217	e8 00 00 00 00	 call	 __EH_epilog3
  0021c	c2 08 00	 ret	 8
_TEXT	ENDS
;	COMDAT text$x
text$x	SEGMENT
__unwindfunclet$?OnRenderTooltipTimePresent@MenuBtn@@QAEXMM@Z$0:
  00000	8d 4d a8	 lea	 ecx, DWORD PTR _kMentPrinter$[ebp]
  00003	e9 00 00 00 00	 jmp	 ??1ioComplexStringPrinter@@QAE@XZ ; ioComplexStringPrinter::~ioComplexStringPrinter
__unwindfunclet$?OnRenderTooltipTimePresent@MenuBtn@@QAEXMM@Z$1:
  00008	8d 4d c8	 lea	 ecx, DWORD PTR _kCountPrinter$[ebp]
  0000b	e9 00 00 00 00	 jmp	 ??1ioComplexStringPrinter@@QAE@XZ ; ioComplexStringPrinter::~ioComplexStringPrinter
__ehhandler$?OnRenderTooltipTimePresent@MenuBtn@@QAEXMM@Z:
  00010	8b 54 24 08	 mov	 edx, DWORD PTR [esp+8]
  00014	8d 42 0c	 lea	 eax, DWORD PTR [edx+12]
  00017	8b 4a a4	 mov	 ecx, DWORD PTR [edx-92]
  0001a	33 c8		 xor	 ecx, eax
  0001c	e8 00 00 00 00	 call	 @__security_check_cookie@4
  00021	b8 00 00 00 00	 mov	 eax, OFFSET __ehfuncinfo$?OnRenderTooltipTimePresent@MenuBtn@@QAEXMM@Z
  00026	e9 00 00 00 00	 jmp	 ___CxxFrameHandler3
text$x	ENDS
?OnRenderTooltipTimePresent@MenuBtn@@QAEXMM@Z ENDP	; MenuBtn::OnRenderTooltipTimePresent
PUBLIC	__$ArrayPad$
EXTRN	__imp_?ParseExtraInfo@ioButton@@UAEXAAVioXMLElement@@@Z:PROC
; Function compile flags: /Ogsp
;	COMDAT ?ParseExtraInfo@MenuBtn@@MAEXAAVioXMLElement@@@Z
_TEXT	SEGMENT
__k$567554 = -28					; size = 18
__k$567420 = -24					; size = 12
__$ArrayPad$ = -4					; size = 4
_xElement$ = 8						; size = 4
?ParseExtraInfo@MenuBtn@@MAEXAAVioXMLElement@@@Z PROC	; MenuBtn::ParseExtraInfo, COMDAT
; _this$ = ecx

; 1024 : {

  00000	55		 push	 ebp
  00001	8b ec		 mov	 ebp, esp
  00003	83 ec 1c	 sub	 esp, 28			; 0000001cH
  00006	a1 00 00 00 00	 mov	 eax, DWORD PTR ___security_cookie
  0000b	33 c5		 xor	 eax, ebp
  0000d	89 45 fc	 mov	 DWORD PTR __$ArrayPad$[ebp], eax
  00010	53		 push	 ebx
  00011	8b 5d 08	 mov	 ebx, DWORD PTR _xElement$[ebp]
  00014	56		 push	 esi
  00015	57		 push	 edi

; 1025 : 	MenuBase::ParseExtraInfo( xElement );

  00016	53		 push	 ebx
  00017	8b f9		 mov	 edi, ecx
  00019	ff 15 00 00 00
	00		 call	 DWORD PTR __imp_?ParseExtraInfo@ioButton@@UAEXAAVioXMLElement@@@Z

; 1026 : 	m_dwOverTicTime = xElement.GetIntAttribute_e( "OverTicTime" );

  0001f	6a 02		 push	 2
  00021	c7 45 e8 a2 9a
	8e 98		 mov	 DWORD PTR __k$567420[ebp], -1735484766 ; 988e9aa2H
  00028	c7 45 ec b9 85
	88 be		 mov	 DWORD PTR __k$567420[ebp+4], -1098349127 ; be8885b9H
  0002f	8d 45 e8	 lea	 eax, DWORD PTR __k$567420[ebp]
  00032	c7 45 f0 84 81
	8e 00		 mov	 DWORD PTR __k$567420[ebp+8], 9339268 ; 008e8184H
  00039	59		 pop	 ecx
$LL106@ParseExtra:
  0003a	81 30 ed ec eb
	ea		 xor	 DWORD PTR [eax], -353637139 ; eaebecedH
  00040	83 c0 04	 add	 eax, 4
  00043	49		 dec	 ecx
  00044	75 f4		 jne	 SHORT $LL106@ParseExtra
  00046	6a 08		 push	 8
  00048	5e		 pop	 esi
$LL103@ParseExtra:
  00049	8b c6		 mov	 eax, esi
  0004b	25 03 00 00 80	 and	 eax, -2147483645	; 80000003H
  00050	79 05		 jns	 SHORT $LN223@ParseExtra
  00052	48		 dec	 eax
  00053	83 c8 fc	 or	 eax, -4			; fffffffcH
  00056	40		 inc	 eax
$LN223@ParseExtra:
  00057	b1 ed		 mov	 cl, -19			; ffffffedH
  00059	2a c8		 sub	 cl, al
  0005b	30 4c 35 e8	 xor	 BYTE PTR __k$567420[ebp+esi], cl
  0005f	46		 inc	 esi
  00060	83 fe 0b	 cmp	 esi, 11			; 0000000bH
  00063	7c e4		 jl	 SHORT $LL103@ParseExtra
  00065	8b 35 00 00 00
	00		 mov	 esi, DWORD PTR __imp_?GetIntAttribute@ioXMLElement@@QBEHPBD@Z
  0006b	8d 45 e8	 lea	 eax, DWORD PTR __k$567420[ebp]
  0006e	50		 push	 eax
  0006f	8b cb		 mov	 ecx, ebx
  00071	ff d6		 call	 esi
  00073	6a 04		 push	 4
  00075	89 87 94 02 00
	00		 mov	 DWORD PTR [edi+660], eax

; 1027 : 	m_byOverFrmPrintCount = (BYTE)xElement.GetIntAttribute_e( "OverFrmPrintCount" );

  0007b	c7 45 e4 a2 9a
	8e 98		 mov	 DWORD PTR __k$567554[ebp], -1735484766 ; 988e9aa2H
  00082	c7 45 e8 ab 9e
	86 ba		 mov	 DWORD PTR __k$567554[ebp+4], -1165582677 ; ba869eabH
  00089	c7 45 ec 9f 85
	85 9e		 mov	 DWORD PTR __k$567554[ebp+8], -1635416673 ; 9e85859fH
  00090	c7 45 f0 ae 83
	9e 84		 mov	 DWORD PTR __k$567554[ebp+12], -2069986386 ; 849e83aeH
  00097	8d 45 e4	 lea	 eax, DWORD PTR __k$567554[ebp]
  0009a	66 c7 45 f4 99
	00		 mov	 WORD PTR __k$567554[ebp+16], 153 ; 00000099H
  000a0	59		 pop	 ecx
$LL212@ParseExtra:
  000a1	81 30 ed ec eb
	ea		 xor	 DWORD PTR [eax], -353637139 ; eaebecedH
  000a7	83 c0 04	 add	 eax, 4
  000aa	49		 dec	 ecx
  000ab	75 f4		 jne	 SHORT $LL212@ParseExtra
  000ad	80 75 f4 ed	 xor	 BYTE PTR __k$567554[ebp+16], -19 ; ffffffedH
  000b1	8d 45 e4	 lea	 eax, DWORD PTR __k$567554[ebp]
  000b4	50		 push	 eax
  000b5	8b cb		 mov	 ecx, ebx
  000b7	ff d6		 call	 esi

; 1028 : }

  000b9	8b 4d fc	 mov	 ecx, DWORD PTR __$ArrayPad$[ebp]
  000bc	88 87 98 02 00
	00		 mov	 BYTE PTR [edi+664], al
  000c2	5f		 pop	 edi
  000c3	5e		 pop	 esi
  000c4	33 cd		 xor	 ecx, ebp
  000c6	5b		 pop	 ebx
  000c7	e8 00 00 00 00	 call	 @__security_check_cookie@4
  000cc	c9		 leave
  000cd	c2 04 00	 ret	 4
?ParseExtraInfo@MenuBtn@@MAEXAAVioXMLElement@@@Z ENDP	; MenuBtn::ParseExtraInfo
_TEXT	ENDS
PUBLIC	_szType$GSCopy$
PUBLIC	_pImage$GSCopy$
PUBLIC	_this$GSCopy$
PUBLIC	__$ArrayPad$
; Function compile flags: /Ogsp
;	COMDAT ?AddRenderImage@MessengerBtn@@MAEXABVioHashString@@PAVioUIRenderImage@@@Z
_TEXT	SEGMENT
_szType$GSCopy$ = -36					; size = 4
_pImage$GSCopy$ = -32					; size = 4
_this$GSCopy$ = -28					; size = 4
__t$568203 = -24					; size = 13
__t$568136 = -24					; size = 15
__t$567966 = -24					; size = 14
__t$567841 = -24					; size = 14
__t$567703 = -24					; size = 12
__$ArrayPad$ = -4					; size = 4
_szType$ = 8						; size = 4
_pImage$ = 12						; size = 4
?AddRenderImage@MessengerBtn@@MAEXABVioHashString@@PAVioUIRenderImage@@@Z PROC ; MessengerBtn::AddRenderImage, COMDAT
; _this$ = ecx

; 1100 : {

  00000	55		 push	 ebp
  00001	8b ec		 mov	 ebp, esp
  00003	83 ec 24	 sub	 esp, 36			; 00000024H
  00006	a1 00 00 00 00	 mov	 eax, DWORD PTR ___security_cookie
  0000b	33 c5		 xor	 eax, ebp
  0000d	89 45 fc	 mov	 DWORD PTR __$ArrayPad$[ebp], eax

; 1104 : 		m_pTooltipLeft = pImage;

  00010	8b 45 0c	 mov	 eax, DWORD PTR _pImage$[ebp]
  00013	53		 push	 ebx
  00014	56		 push	 esi
  00015	57		 push	 edi
  00016	8b 7d 08	 mov	 edi, DWORD PTR _szType$[ebp]
  00019	6a 02		 push	 2
  0001b	89 4d e4	 mov	 DWORD PTR _this$GSCopy$[ebp], ecx
  0001e	89 45 e0	 mov	 DWORD PTR _pImage$GSCopy$[ebp], eax

; 1120 : 	}
; 1121 : 	else if( szType == "TooltipRight" )

  00021	89 7d dc	 mov	 DWORD PTR _szType$GSCopy$[ebp], edi
  00024	c7 45 e8 b9 83
	84 86		 mov	 DWORD PTR __t$567703[ebp], -2038135879 ; 868483b9H
  0002b	c7 45 ec 99 85
	9b a6		 mov	 DWORD PTR __t$567703[ebp+4], -1499757159 ; a69b8599H
  00032	8d 45 e8	 lea	 eax, DWORD PTR __t$567703[ebp]
  00035	33 db		 xor	 ebx, ebx
  00037	c7 45 f0 88 8a
	9f 00		 mov	 DWORD PTR __t$567703[ebp+8], 10455688 ; 009f8a88H
  0003e	59		 pop	 ecx
$LL131@AddRenderI@2:

; 1101 : 	if( szType == "TooltipLeft" )

  0003f	81 30 ed ec eb
	ea		 xor	 DWORD PTR [eax], -353637139 ; eaebecedH
  00045	83 c0 04	 add	 eax, 4
  00048	49		 dec	 ecx
  00049	75 f4		 jne	 SHORT $LL131@AddRenderI@2
  0004b	6a 08		 push	 8
  0004d	58		 pop	 eax
$LL128@AddRenderI@2:
  0004e	8b c8		 mov	 ecx, eax
  00050	81 e1 03 00 00
	80		 and	 ecx, -2147483645	; 80000003H
  00056	79 05		 jns	 SHORT $LN602@AddRenderI@2
  00058	49		 dec	 ecx
  00059	83 c9 fc	 or	 ecx, -4			; fffffffcH
  0005c	41		 inc	 ecx
$LN602@AddRenderI@2:
  0005d	b2 ed		 mov	 dl, -19			; ffffffedH
  0005f	2a d1		 sub	 dl, cl
  00061	30 54 05 e8	 xor	 BYTE PTR __t$567703[ebp+eax], dl
  00065	40		 inc	 eax
  00066	83 f8 0b	 cmp	 eax, 11			; 0000000bH
  00069	7c e3		 jl	 SHORT $LL128@AddRenderI@2
  0006b	8b cf		 mov	 ecx, edi
  0006d	8d 75 e8	 lea	 esi, DWORD PTR __t$567703[ebp]
  00070	ff 15 00 00 00
	00		 call	 DWORD PTR __imp_?c_str@ioHashString@@QBEPBDXZ
$LL582@AddRenderI@2:
  00076	8a 08		 mov	 cl, BYTE PTR [eax]
  00078	3a 0e		 cmp	 cl, BYTE PTR [esi]
  0007a	75 1a		 jne	 SHORT $LN583@AddRenderI@2
  0007c	3a cb		 cmp	 cl, bl
  0007e	74 12		 je	 SHORT $LN584@AddRenderI@2
  00080	8a 48 01	 mov	 cl, BYTE PTR [eax+1]
  00083	3a 4e 01	 cmp	 cl, BYTE PTR [esi+1]
  00086	75 0e		 jne	 SHORT $LN583@AddRenderI@2
  00088	83 c0 02	 add	 eax, 2
  0008b	83 c6 02	 add	 esi, 2
  0008e	3a cb		 cmp	 cl, bl
  00090	75 e4		 jne	 SHORT $LL582@AddRenderI@2
$LN584@AddRenderI@2:
  00092	33 c0		 xor	 eax, eax
  00094	eb 05		 jmp	 SHORT $LN585@AddRenderI@2
$LN583@AddRenderI@2:
  00096	1b c0		 sbb	 eax, eax
  00098	83 d8 ff	 sbb	 eax, -1
$LN585@AddRenderI@2:
  0009b	3b c3		 cmp	 eax, ebx
  0009d	75 28		 jne	 SHORT $LN578@AddRenderI@2

; 1102 : 	{
; 1103 : 		SAFEDELETE( m_pTooltipLeft );

  0009f	8b 75 e4	 mov	 esi, DWORD PTR _this$GSCopy$[ebp]
  000a2	8b 8e 04 02 00
	00		 mov	 ecx, DWORD PTR [esi+516]
  000a8	3b cb		 cmp	 ecx, ebx
  000aa	74 0d		 je	 SHORT $LN14@AddRenderI@2
  000ac	8b 01		 mov	 eax, DWORD PTR [ecx]
  000ae	6a 01		 push	 1
  000b0	ff 50 40	 call	 DWORD PTR [eax+64]
  000b3	89 9e 04 02 00
	00		 mov	 DWORD PTR [esi+516], ebx
$LN14@AddRenderI@2:

; 1104 : 		m_pTooltipLeft = pImage;

  000b9	8b 45 e0	 mov	 eax, DWORD PTR _pImage$GSCopy$[ebp]
  000bc	89 86 04 02 00
	00		 mov	 DWORD PTR [esi+516], eax
  000c2	e9 5b 02 00 00	 jmp	 $LN1@AddRenderI@2
$LN578@AddRenderI@2:

; 1105 : 	}
; 1106 : 	else if( szType == "TooltipLeftIn" )

  000c7	6a 03		 push	 3
  000c9	5f		 pop	 edi
  000ca	c7 45 e8 b9 83
	84 86		 mov	 DWORD PTR __t$567841[ebp], -2038135879 ; 868483b9H
  000d1	c7 45 ec 99 85
	9b a6		 mov	 DWORD PTR __t$567841[ebp+4], -1499757159 ; a69b8599H
  000d8	c7 45 f0 88 8a
	9f a3		 mov	 DWORD PTR __t$567841[ebp+8], -1549825400 ; a39f8a88H
  000df	8d 45 e8	 lea	 eax, DWORD PTR __t$567841[ebp]
  000e2	66 c7 45 f4 83
	00		 mov	 WORD PTR __t$567841[ebp+12], 131 ; 00000083H
  000e8	8b cf		 mov	 ecx, edi
$LL237@AddRenderI@2:
  000ea	81 30 ed ec eb
	ea		 xor	 DWORD PTR [eax], -353637139 ; eaebecedH
  000f0	83 c0 04	 add	 eax, 4
  000f3	49		 dec	 ecx
  000f4	75 f4		 jne	 SHORT $LL237@AddRenderI@2
  000f6	8b 4d dc	 mov	 ecx, DWORD PTR _szType$GSCopy$[ebp]
  000f9	80 75 f4 ed	 xor	 BYTE PTR __t$567841[ebp+12], -19 ; ffffffedH
  000fd	8d 75 e8	 lea	 esi, DWORD PTR __t$567841[ebp]
  00100	ff 15 00 00 00
	00		 call	 DWORD PTR __imp_?c_str@ioHashString@@QBEPBDXZ
$LL586@AddRenderI@2:
  00106	8a 08		 mov	 cl, BYTE PTR [eax]
  00108	3a 0e		 cmp	 cl, BYTE PTR [esi]
  0010a	75 1a		 jne	 SHORT $LN587@AddRenderI@2
  0010c	3a cb		 cmp	 cl, bl
  0010e	74 12		 je	 SHORT $LN588@AddRenderI@2
  00110	8a 48 01	 mov	 cl, BYTE PTR [eax+1]
  00113	3a 4e 01	 cmp	 cl, BYTE PTR [esi+1]
  00116	75 0e		 jne	 SHORT $LN587@AddRenderI@2
  00118	83 c0 02	 add	 eax, 2
  0011b	83 c6 02	 add	 esi, 2
  0011e	3a cb		 cmp	 cl, bl
  00120	75 e4		 jne	 SHORT $LL586@AddRenderI@2
$LN588@AddRenderI@2:
  00122	33 c0		 xor	 eax, eax
  00124	eb 05		 jmp	 SHORT $LN589@AddRenderI@2
$LN587@AddRenderI@2:
  00126	1b c0		 sbb	 eax, eax
  00128	83 d8 ff	 sbb	 eax, -1
$LN589@AddRenderI@2:
  0012b	3b c3		 cmp	 eax, ebx
  0012d	75 28		 jne	 SHORT $LN579@AddRenderI@2

; 1107 : 	{
; 1108 : 		SAFEDELETE( m_pTooltipLeftIn );

  0012f	8b 75 e4	 mov	 esi, DWORD PTR _this$GSCopy$[ebp]
  00132	8b 8e 08 02 00
	00		 mov	 ecx, DWORD PTR [esi+520]
  00138	3b cb		 cmp	 ecx, ebx
  0013a	74 0d		 je	 SHORT $LN11@AddRenderI@2
  0013c	8b 01		 mov	 eax, DWORD PTR [ecx]
  0013e	6a 01		 push	 1
  00140	ff 50 40	 call	 DWORD PTR [eax+64]
  00143	89 9e 08 02 00
	00		 mov	 DWORD PTR [esi+520], ebx
$LN11@AddRenderI@2:

; 1109 : 		m_pTooltipLeftIn = pImage;

  00149	8b 45 e0	 mov	 eax, DWORD PTR _pImage$GSCopy$[ebp]
  0014c	89 86 08 02 00
	00		 mov	 DWORD PTR [esi+520], eax
  00152	e9 cb 01 00 00	 jmp	 $LN1@AddRenderI@2
$LN579@AddRenderI@2:

; 1110 : 	}
; 1111 : 	else if( szType == "TooltipCenter" )

  00157	c7 45 e8 b9 83
	84 86		 mov	 DWORD PTR __t$567966[ebp], -2038135879 ; 868483b9H
  0015e	c7 45 ec 99 85
	9b a9		 mov	 DWORD PTR __t$567966[ebp+4], -1449425511 ; a99b8599H
  00165	c7 45 f0 88 82
	9f 8f		 mov	 DWORD PTR __t$567966[ebp+8], -1885371768 ; 8f9f8288H
  0016c	8d 45 e8	 lea	 eax, DWORD PTR __t$567966[ebp]
  0016f	66 c7 45 f4 9f
	00		 mov	 WORD PTR __t$567966[ebp+12], 159 ; 0000009fH
  00175	8b cf		 mov	 ecx, edi
$LL343@AddRenderI@2:
  00177	81 30 ed ec eb
	ea		 xor	 DWORD PTR [eax], -353637139 ; eaebecedH
  0017d	83 c0 04	 add	 eax, 4
  00180	49		 dec	 ecx
  00181	75 f4		 jne	 SHORT $LL343@AddRenderI@2
  00183	8b 4d dc	 mov	 ecx, DWORD PTR _szType$GSCopy$[ebp]
  00186	80 75 f4 ed	 xor	 BYTE PTR __t$567966[ebp+12], -19 ; ffffffedH
  0018a	8d 75 e8	 lea	 esi, DWORD PTR __t$567966[ebp]
  0018d	ff 15 00 00 00
	00		 call	 DWORD PTR __imp_?c_str@ioHashString@@QBEPBDXZ
$LL590@AddRenderI@2:
  00193	8a 08		 mov	 cl, BYTE PTR [eax]
  00195	3a 0e		 cmp	 cl, BYTE PTR [esi]
  00197	75 1a		 jne	 SHORT $LN591@AddRenderI@2
  00199	3a cb		 cmp	 cl, bl
  0019b	74 12		 je	 SHORT $LN592@AddRenderI@2
  0019d	8a 48 01	 mov	 cl, BYTE PTR [eax+1]
  001a0	3a 4e 01	 cmp	 cl, BYTE PTR [esi+1]
  001a3	75 0e		 jne	 SHORT $LN591@AddRenderI@2
  001a5	83 c0 02	 add	 eax, 2
  001a8	83 c6 02	 add	 esi, 2
  001ab	3a cb		 cmp	 cl, bl
  001ad	75 e4		 jne	 SHORT $LL590@AddRenderI@2
$LN592@AddRenderI@2:
  001af	33 c0		 xor	 eax, eax
  001b1	eb 05		 jmp	 SHORT $LN593@AddRenderI@2
$LN591@AddRenderI@2:
  001b3	1b c0		 sbb	 eax, eax
  001b5	83 d8 ff	 sbb	 eax, -1
$LN593@AddRenderI@2:
  001b8	3b c3		 cmp	 eax, ebx
  001ba	75 28		 jne	 SHORT $LN580@AddRenderI@2

; 1112 : 	{
; 1113 : 		SAFEDELETE( m_pTooltipCenter );

  001bc	8b 75 e4	 mov	 esi, DWORD PTR _this$GSCopy$[ebp]
  001bf	8b 8e 0c 02 00
	00		 mov	 ecx, DWORD PTR [esi+524]
  001c5	3b cb		 cmp	 ecx, ebx
  001c7	74 0d		 je	 SHORT $LN8@AddRenderI@2
  001c9	8b 01		 mov	 eax, DWORD PTR [ecx]
  001cb	6a 01		 push	 1
  001cd	ff 50 40	 call	 DWORD PTR [eax+64]
  001d0	89 9e 0c 02 00
	00		 mov	 DWORD PTR [esi+524], ebx
$LN8@AddRenderI@2:

; 1114 : 		m_pTooltipCenter = pImage;

  001d6	8b 45 e0	 mov	 eax, DWORD PTR _pImage$GSCopy$[ebp]
  001d9	89 86 0c 02 00
	00		 mov	 DWORD PTR [esi+524], eax
  001df	e9 3e 01 00 00	 jmp	 $LN1@AddRenderI@2
$LN580@AddRenderI@2:

; 1115 : 	}
; 1116 : 	else if( szType == "TooltipRightIn" )

  001e4	c7 45 e8 b9 83
	84 86		 mov	 DWORD PTR __t$568136[ebp], -2038135879 ; 868483b9H
  001eb	c7 45 ec 99 85
	9b b8		 mov	 DWORD PTR __t$568136[ebp+4], -1197767271 ; b89b8599H
  001f2	c7 45 f0 84 8b
	83 9e		 mov	 DWORD PTR __t$568136[ebp+8], -1635546236 ; 9e838b84H
  001f9	66 c7 45 f4 a4
	82		 mov	 WORD PTR __t$568136[ebp+12], 33444 ; 000082a4H
  001ff	8d 45 e8	 lea	 eax, DWORD PTR __t$568136[ebp]
  00202	88 5d f6	 mov	 BYTE PTR __t$568136[ebp+14], bl
  00205	8b cf		 mov	 ecx, edi
$LL449@AddRenderI@2:
  00207	81 30 ed ec eb
	ea		 xor	 DWORD PTR [eax], -353637139 ; eaebecedH
  0020d	83 c0 04	 add	 eax, 4
  00210	49		 dec	 ecx
  00211	75 f4		 jne	 SHORT $LL449@AddRenderI@2
  00213	6a 0c		 push	 12			; 0000000cH
  00215	58		 pop	 eax
$LL446@AddRenderI@2:
  00216	8b c8		 mov	 ecx, eax
  00218	81 e1 03 00 00
	80		 and	 ecx, -2147483645	; 80000003H
  0021e	79 05		 jns	 SHORT $LN603@AddRenderI@2
  00220	49		 dec	 ecx
  00221	83 c9 fc	 or	 ecx, -4			; fffffffcH
  00224	41		 inc	 ecx
$LN603@AddRenderI@2:
  00225	b2 ed		 mov	 dl, -19			; ffffffedH
  00227	2a d1		 sub	 dl, cl
  00229	30 54 05 e8	 xor	 BYTE PTR __t$568136[ebp+eax], dl
  0022d	40		 inc	 eax
  0022e	83 f8 0e	 cmp	 eax, 14			; 0000000eH
  00231	7c e3		 jl	 SHORT $LL446@AddRenderI@2
  00233	8b 4d dc	 mov	 ecx, DWORD PTR _szType$GSCopy$[ebp]
  00236	8d 75 e8	 lea	 esi, DWORD PTR __t$568136[ebp]
  00239	ff 15 00 00 00
	00		 call	 DWORD PTR __imp_?c_str@ioHashString@@QBEPBDXZ
$LL594@AddRenderI@2:
  0023f	8a 08		 mov	 cl, BYTE PTR [eax]
  00241	3a 0e		 cmp	 cl, BYTE PTR [esi]
  00243	75 1a		 jne	 SHORT $LN595@AddRenderI@2
  00245	3a cb		 cmp	 cl, bl
  00247	74 12		 je	 SHORT $LN596@AddRenderI@2
  00249	8a 48 01	 mov	 cl, BYTE PTR [eax+1]
  0024c	3a 4e 01	 cmp	 cl, BYTE PTR [esi+1]
  0024f	75 0e		 jne	 SHORT $LN595@AddRenderI@2
  00251	83 c0 02	 add	 eax, 2
  00254	83 c6 02	 add	 esi, 2
  00257	3a cb		 cmp	 cl, bl
  00259	75 e4		 jne	 SHORT $LL594@AddRenderI@2
$LN596@AddRenderI@2:
  0025b	33 c0		 xor	 eax, eax
  0025d	eb 05		 jmp	 SHORT $LN597@AddRenderI@2
$LN595@AddRenderI@2:
  0025f	1b c0		 sbb	 eax, eax
  00261	83 d8 ff	 sbb	 eax, -1
$LN597@AddRenderI@2:
  00264	3b c3		 cmp	 eax, ebx
  00266	75 28		 jne	 SHORT $LN581@AddRenderI@2

; 1117 : 	{
; 1118 : 		SAFEDELETE( m_pTooltipRightIn );

  00268	8b 75 e4	 mov	 esi, DWORD PTR _this$GSCopy$[ebp]
  0026b	8b 8e 10 02 00
	00		 mov	 ecx, DWORD PTR [esi+528]
  00271	3b cb		 cmp	 ecx, ebx
  00273	74 0d		 je	 SHORT $LN5@AddRenderI@2
  00275	8b 01		 mov	 eax, DWORD PTR [ecx]
  00277	6a 01		 push	 1
  00279	ff 50 40	 call	 DWORD PTR [eax+64]
  0027c	89 9e 10 02 00
	00		 mov	 DWORD PTR [esi+528], ebx
$LN5@AddRenderI@2:

; 1119 : 		m_pTooltipRightIn = pImage;

  00282	8b 45 e0	 mov	 eax, DWORD PTR _pImage$GSCopy$[ebp]
  00285	89 86 10 02 00
	00		 mov	 DWORD PTR [esi+528], eax
  0028b	e9 92 00 00 00	 jmp	 $LN1@AddRenderI@2
$LN581@AddRenderI@2:

; 1120 : 	}
; 1121 : 	else if( szType == "TooltipRight" )

  00290	c7 45 e8 b9 83
	84 86		 mov	 DWORD PTR __t$568203[ebp], -2038135879 ; 868483b9H
  00297	c7 45 ec 99 85
	9b b8		 mov	 DWORD PTR __t$568203[ebp+4], -1197767271 ; b89b8599H
  0029e	c7 45 f0 84 8b
	83 9e		 mov	 DWORD PTR __t$568203[ebp+8], -1635546236 ; 9e838b84H
  002a5	8d 45 e8	 lea	 eax, DWORD PTR __t$568203[ebp]
  002a8	88 5d f4	 mov	 BYTE PTR __t$568203[ebp+12], bl
  002ab	8b cf		 mov	 ecx, edi
$LL555@AddRenderI@2:
  002ad	81 30 ed ec eb
	ea		 xor	 DWORD PTR [eax], -353637139 ; eaebecedH
  002b3	83 c0 04	 add	 eax, 4
  002b6	49		 dec	 ecx
  002b7	75 f4		 jne	 SHORT $LL555@AddRenderI@2
  002b9	8b 4d dc	 mov	 ecx, DWORD PTR _szType$GSCopy$[ebp]
  002bc	8d 75 e8	 lea	 esi, DWORD PTR __t$568203[ebp]
  002bf	ff 15 00 00 00
	00		 call	 DWORD PTR __imp_?c_str@ioHashString@@QBEPBDXZ
$LL598@AddRenderI@2:
  002c5	8a 08		 mov	 cl, BYTE PTR [eax]
  002c7	3a 0e		 cmp	 cl, BYTE PTR [esi]
  002c9	75 1a		 jne	 SHORT $LN599@AddRenderI@2
  002cb	3a cb		 cmp	 cl, bl
  002cd	74 12		 je	 SHORT $LN600@AddRenderI@2
  002cf	8a 48 01	 mov	 cl, BYTE PTR [eax+1]
  002d2	3a 4e 01	 cmp	 cl, BYTE PTR [esi+1]
  002d5	75 0e		 jne	 SHORT $LN599@AddRenderI@2
  002d7	83 c0 02	 add	 eax, 2
  002da	83 c6 02	 add	 esi, 2
  002dd	3a cb		 cmp	 cl, bl
  002df	75 e4		 jne	 SHORT $LL598@AddRenderI@2
$LN600@AddRenderI@2:
  002e1	33 c0		 xor	 eax, eax
  002e3	eb 05		 jmp	 SHORT $LN601@AddRenderI@2
$LN599@AddRenderI@2:
  002e5	1b c0		 sbb	 eax, eax
  002e7	83 d8 ff	 sbb	 eax, -1
$LN601@AddRenderI@2:
  002ea	3b c3		 cmp	 eax, ebx
  002ec	75 25		 jne	 SHORT $LN3@AddRenderI@2

; 1122 : 	{
; 1123 : 		SAFEDELETE( m_pTooltipRight );

  002ee	8b 75 e4	 mov	 esi, DWORD PTR _this$GSCopy$[ebp]
  002f1	8b 8e 14 02 00
	00		 mov	 ecx, DWORD PTR [esi+532]
  002f7	3b cb		 cmp	 ecx, ebx
  002f9	74 0d		 je	 SHORT $LN2@AddRenderI@2
  002fb	8b 01		 mov	 eax, DWORD PTR [ecx]
  002fd	6a 01		 push	 1
  002ff	ff 50 40	 call	 DWORD PTR [eax+64]
  00302	89 9e 14 02 00
	00		 mov	 DWORD PTR [esi+532], ebx
$LN2@AddRenderI@2:

; 1124 : 		m_pTooltipRight = pImage;

  00308	8b 45 e0	 mov	 eax, DWORD PTR _pImage$GSCopy$[ebp]
  0030b	89 86 14 02 00
	00		 mov	 DWORD PTR [esi+532], eax

; 1125 : 	}
; 1126 : 	else

  00311	eb 0f		 jmp	 SHORT $LN1@AddRenderI@2
$LN3@AddRenderI@2:

; 1127 : 	{
; 1128 : 		ioButton::AddRenderImage( szType, pImage );

  00313	ff 75 e0	 push	 DWORD PTR _pImage$GSCopy$[ebp]
  00316	8b 4d e4	 mov	 ecx, DWORD PTR _this$GSCopy$[ebp]
  00319	ff 75 dc	 push	 DWORD PTR _szType$GSCopy$[ebp]
  0031c	ff 15 00 00 00
	00		 call	 DWORD PTR __imp_?AddRenderImage@ioButton@@UAEXABVioHashString@@PAVioUIRenderImage@@@Z
$LN1@AddRenderI@2:

; 1129 : 	}
; 1130 : }

  00322	8b 4d fc	 mov	 ecx, DWORD PTR __$ArrayPad$[ebp]
  00325	5f		 pop	 edi
  00326	5e		 pop	 esi
  00327	33 cd		 xor	 ecx, ebp
  00329	5b		 pop	 ebx
  0032a	e8 00 00 00 00	 call	 @__security_check_cookie@4
  0032f	c9		 leave
  00330	c2 08 00	 ret	 8
?AddRenderImage@MessengerBtn@@MAEXABVioHashString@@PAVioUIRenderImage@@@Z ENDP ; MessengerBtn::AddRenderImage
_TEXT	ENDS
PUBLIC	_pImage$GSCopy$
PUBLIC	_this$GSCopy$
PUBLIC	_szType$GSCopy$
PUBLIC	__$ArrayPad$
; Function compile flags: /Ogsp
;	COMDAT ?AddRenderImage@PlazaStateBtn@@MAEXABVioHashString@@PAVioUIRenderImage@@@Z
_TEXT	SEGMENT
_pImage$GSCopy$ = -40					; size = 4
_this$GSCopy$ = -36					; size = 4
_szType$GSCopy$ = -32					; size = 4
__t$568770 = -28					; size = 16
__t$568703 = -28					; size = 15
__t$568533 = -28					; size = 17
__t$568408 = -28					; size = 16
__$ArrayPad$ = -4					; size = 4
_szType$ = 8						; size = 4
_pImage$ = 12						; size = 4
?AddRenderImage@PlazaStateBtn@@MAEXABVioHashString@@PAVioUIRenderImage@@@Z PROC ; PlazaStateBtn::AddRenderImage, COMDAT
; _this$ = ecx

; 1230 : {

  00000	55		 push	 ebp
  00001	8b ec		 mov	 ebp, esp
  00003	83 ec 28	 sub	 esp, 40			; 00000028H
  00006	a1 00 00 00 00	 mov	 eax, DWORD PTR ___security_cookie
  0000b	33 c5		 xor	 eax, ebp
  0000d	89 45 fc	 mov	 DWORD PTR __$ArrayPad$[ebp], eax
  00010	8b 45 08	 mov	 eax, DWORD PTR _szType$[ebp]
  00013	53		 push	 ebx
  00014	56		 push	 esi
  00015	57		 push	 edi

; 1245 : 	}
; 1246 : 	else if( szType == "DisablePractice" )

  00016	89 45 e0	 mov	 DWORD PTR _szType$GSCopy$[ebp], eax
  00019	8b 45 0c	 mov	 eax, DWORD PTR _pImage$[ebp]
  0001c	6a 03		 push	 3
  0001e	89 4d dc	 mov	 DWORD PTR _this$GSCopy$[ebp], ecx
  00021	89 45 d8	 mov	 DWORD PTR _pImage$GSCopy$[ebp], eax
  00024	c7 45 e4 a3 83
	99 87		 mov	 DWORD PTR __t$568408[ebp], -2019982429 ; 879983a3H
  0002b	c7 45 e8 8c 80
	a8 85		 mov	 DWORD PTR __t$568408[ebp+4], -2052554612 ; 85a8808cH
  00032	c7 45 ec 80 81
	9e 84		 mov	 DWORD PTR __t$568408[ebp+8], -2069986944 ; 849e8180H
  00039	8d 45 e4	 lea	 eax, DWORD PTR __t$568408[ebp]
  0003c	33 db		 xor	 ebx, ebx
  0003e	c7 45 f0 84 98
	92 00		 mov	 DWORD PTR __t$568408[ebp+12], 9607300 ; 00929884H
  00045	59		 pop	 ecx
  00046	bf ed ec eb ea	 mov	 edi, -353637139		; eaebecedH
$LL126@AddRenderI@3:

; 1231 : 	if( szType == "NormalCommunity" )

  0004b	31 38		 xor	 DWORD PTR [eax], edi
  0004d	83 c0 04	 add	 eax, 4
  00050	49		 dec	 ecx
  00051	75 f8		 jne	 SHORT $LL126@AddRenderI@3
  00053	6a 0c		 push	 12			; 0000000cH
  00055	58		 pop	 eax
$LL123@AddRenderI@3:
  00056	8b c8		 mov	 ecx, eax
  00058	81 e1 03 00 00
	80		 and	 ecx, -2147483645	; 80000003H
  0005e	79 05		 jns	 SHORT $LN482@AddRenderI@3
  00060	49		 dec	 ecx
  00061	83 c9 fc	 or	 ecx, -4			; fffffffcH
  00064	41		 inc	 ecx
$LN482@AddRenderI@3:
  00065	b2 ed		 mov	 dl, -19			; ffffffedH
  00067	2a d1		 sub	 dl, cl
  00069	30 54 05 e4	 xor	 BYTE PTR __t$568408[ebp+eax], dl
  0006d	40		 inc	 eax
  0006e	83 f8 0f	 cmp	 eax, 15			; 0000000fH
  00071	7c e3		 jl	 SHORT $LL123@AddRenderI@3
  00073	8b 4d e0	 mov	 ecx, DWORD PTR _szType$GSCopy$[ebp]
  00076	8d 75 e4	 lea	 esi, DWORD PTR __t$568408[ebp]
  00079	ff 15 00 00 00
	00		 call	 DWORD PTR __imp_?c_str@ioHashString@@QBEPBDXZ
$LL466@AddRenderI@3:
  0007f	8a 08		 mov	 cl, BYTE PTR [eax]
  00081	3a 0e		 cmp	 cl, BYTE PTR [esi]
  00083	75 1a		 jne	 SHORT $LN467@AddRenderI@3
  00085	3a cb		 cmp	 cl, bl
  00087	74 12		 je	 SHORT $LN468@AddRenderI@3
  00089	8a 48 01	 mov	 cl, BYTE PTR [eax+1]
  0008c	3a 4e 01	 cmp	 cl, BYTE PTR [esi+1]
  0008f	75 0e		 jne	 SHORT $LN467@AddRenderI@3
  00091	83 c0 02	 add	 eax, 2
  00094	83 c6 02	 add	 esi, 2
  00097	3a cb		 cmp	 cl, bl
  00099	75 e4		 jne	 SHORT $LL466@AddRenderI@3
$LN468@AddRenderI@3:
  0009b	33 c0		 xor	 eax, eax
  0009d	eb 05		 jmp	 SHORT $LN469@AddRenderI@3
$LN467@AddRenderI@3:
  0009f	1b c0		 sbb	 eax, eax
  000a1	83 d8 ff	 sbb	 eax, -1
$LN469@AddRenderI@3:
  000a4	3b c3		 cmp	 eax, ebx
  000a6	75 28		 jne	 SHORT $LN463@AddRenderI@3

; 1232 : 	{
; 1233 : 		SAFEDELETE( m_pNormalCommunity );

  000a8	8b 75 dc	 mov	 esi, DWORD PTR _this$GSCopy$[ebp]
  000ab	8b 8e 30 02 00
	00		 mov	 ecx, DWORD PTR [esi+560]
  000b1	3b cb		 cmp	 ecx, ebx
  000b3	74 0d		 je	 SHORT $LN11@AddRenderI@3
  000b5	8b 01		 mov	 eax, DWORD PTR [ecx]
  000b7	6a 01		 push	 1
  000b9	ff 50 40	 call	 DWORD PTR [eax+64]
  000bc	89 9e 30 02 00
	00		 mov	 DWORD PTR [esi+560], ebx
$LN11@AddRenderI@3:

; 1234 : 		m_pNormalCommunity = pImage;

  000c2	8b 45 d8	 mov	 eax, DWORD PTR _pImage$GSCopy$[ebp]
  000c5	89 86 30 02 00
	00		 mov	 DWORD PTR [esi+560], eax
  000cb	e9 e6 01 00 00	 jmp	 $LN1@AddRenderI@3
$LN463@AddRenderI@3:

; 1235 : 	}
; 1236 : 	else if( szType == "DisableCommunity" )

  000d0	6a 04		 push	 4
  000d2	c7 45 e4 a9 85
	98 8b		 mov	 DWORD PTR __t$568533[ebp], -1952938583 ; 8b9885a9H
  000d9	c7 45 e8 8f 80
	8e a9		 mov	 DWORD PTR __t$568533[ebp+4], -1450278769 ; a98e808fH
  000e0	c7 45 ec 82 81
	86 9f		 mov	 DWORD PTR __t$568533[ebp+8], -1618574974 ; 9f868182H
  000e7	c7 45 f0 83 85
	9f 93		 mov	 DWORD PTR __t$568533[ebp+12], -1818262141 ; 939f8583H
  000ee	8d 45 e4	 lea	 eax, DWORD PTR __t$568533[ebp]
  000f1	88 5d f4	 mov	 BYTE PTR __t$568533[ebp+16], bl
  000f4	59		 pop	 ecx
$LL232@AddRenderI@3:
  000f5	31 38		 xor	 DWORD PTR [eax], edi
  000f7	83 c0 04	 add	 eax, 4
  000fa	49		 dec	 ecx
  000fb	75 f8		 jne	 SHORT $LL232@AddRenderI@3
  000fd	8b 4d e0	 mov	 ecx, DWORD PTR _szType$GSCopy$[ebp]
  00100	8d 75 e4	 lea	 esi, DWORD PTR __t$568533[ebp]
  00103	ff 15 00 00 00
	00		 call	 DWORD PTR __imp_?c_str@ioHashString@@QBEPBDXZ
$LL470@AddRenderI@3:
  00109	8a 08		 mov	 cl, BYTE PTR [eax]
  0010b	3a 0e		 cmp	 cl, BYTE PTR [esi]
  0010d	75 1a		 jne	 SHORT $LN471@AddRenderI@3
  0010f	3a cb		 cmp	 cl, bl
  00111	74 12		 je	 SHORT $LN472@AddRenderI@3
  00113	8a 48 01	 mov	 cl, BYTE PTR [eax+1]
  00116	3a 4e 01	 cmp	 cl, BYTE PTR [esi+1]
  00119	75 0e		 jne	 SHORT $LN471@AddRenderI@3
  0011b	83 c0 02	 add	 eax, 2
  0011e	83 c6 02	 add	 esi, 2
  00121	3a cb		 cmp	 cl, bl
  00123	75 e4		 jne	 SHORT $LL470@AddRenderI@3
$LN472@AddRenderI@3:
  00125	33 c0		 xor	 eax, eax
  00127	eb 05		 jmp	 SHORT $LN473@AddRenderI@3
$LN471@AddRenderI@3:
  00129	1b c0		 sbb	 eax, eax
  0012b	83 d8 ff	 sbb	 eax, -1
$LN473@AddRenderI@3:
  0012e	3b c3		 cmp	 eax, ebx
  00130	75 28		 jne	 SHORT $LN464@AddRenderI@3

; 1237 : 	{
; 1238 : 		SAFEDELETE( m_pDisableCommunity );

  00132	8b 75 dc	 mov	 esi, DWORD PTR _this$GSCopy$[ebp]
  00135	8b 8e 34 02 00
	00		 mov	 ecx, DWORD PTR [esi+564]
  0013b	3b cb		 cmp	 ecx, ebx
  0013d	74 0d		 je	 SHORT $LN8@AddRenderI@3
  0013f	8b 01		 mov	 eax, DWORD PTR [ecx]
  00141	6a 01		 push	 1
  00143	ff 50 40	 call	 DWORD PTR [eax+64]
  00146	89 9e 34 02 00
	00		 mov	 DWORD PTR [esi+564], ebx
$LN8@AddRenderI@3:

; 1239 : 		m_pDisableCommunity = pImage;

  0014c	8b 45 d8	 mov	 eax, DWORD PTR _pImage$GSCopy$[ebp]
  0014f	89 86 34 02 00
	00		 mov	 DWORD PTR [esi+564], eax
  00155	e9 5c 01 00 00	 jmp	 $LN1@AddRenderI@3
$LN464@AddRenderI@3:

; 1240 : 	}
; 1241 : 	else if( szType == "NormalPractice" )

  0015a	6a 03		 push	 3
  0015c	c7 45 e4 a3 83
	99 87		 mov	 DWORD PTR __t$568703[ebp], -2019982429 ; 879983a3H
  00163	c7 45 e8 8c 80
	bb 98		 mov	 DWORD PTR __t$568703[ebp+4], -1732542324 ; 98bb808cH
  0016a	c7 45 ec 8c 8f
	9f 83		 mov	 DWORD PTR __t$568703[ebp+8], -2086695028 ; 839f8f8cH
  00171	66 c7 45 f0 8e
	89		 mov	 WORD PTR __t$568703[ebp+12], 35214 ; 0000898eH
  00177	8d 45 e4	 lea	 eax, DWORD PTR __t$568703[ebp]
  0017a	88 5d f2	 mov	 BYTE PTR __t$568703[ebp+14], bl
  0017d	59		 pop	 ecx
$LL338@AddRenderI@3:
  0017e	31 38		 xor	 DWORD PTR [eax], edi
  00180	83 c0 04	 add	 eax, 4
  00183	49		 dec	 ecx
  00184	75 f8		 jne	 SHORT $LL338@AddRenderI@3
  00186	6a 0c		 push	 12			; 0000000cH
  00188	58		 pop	 eax
$LL335@AddRenderI@3:
  00189	8b c8		 mov	 ecx, eax
  0018b	81 e1 03 00 00
	80		 and	 ecx, -2147483645	; 80000003H
  00191	79 05		 jns	 SHORT $LN483@AddRenderI@3
  00193	49		 dec	 ecx
  00194	83 c9 fc	 or	 ecx, -4			; fffffffcH
  00197	41		 inc	 ecx
$LN483@AddRenderI@3:
  00198	b2 ed		 mov	 dl, -19			; ffffffedH
  0019a	2a d1		 sub	 dl, cl
  0019c	30 54 05 e4	 xor	 BYTE PTR __t$568703[ebp+eax], dl
  001a0	40		 inc	 eax
  001a1	83 f8 0e	 cmp	 eax, 14			; 0000000eH
  001a4	7c e3		 jl	 SHORT $LL335@AddRenderI@3
  001a6	8b 4d e0	 mov	 ecx, DWORD PTR _szType$GSCopy$[ebp]
  001a9	8d 75 e4	 lea	 esi, DWORD PTR __t$568703[ebp]
  001ac	ff 15 00 00 00
	00		 call	 DWORD PTR __imp_?c_str@ioHashString@@QBEPBDXZ
$LL474@AddRenderI@3:
  001b2	8a 08		 mov	 cl, BYTE PTR [eax]
  001b4	3a 0e		 cmp	 cl, BYTE PTR [esi]
  001b6	75 1a		 jne	 SHORT $LN475@AddRenderI@3
  001b8	3a cb		 cmp	 cl, bl
  001ba	74 12		 je	 SHORT $LN476@AddRenderI@3
  001bc	8a 48 01	 mov	 cl, BYTE PTR [eax+1]
  001bf	3a 4e 01	 cmp	 cl, BYTE PTR [esi+1]
  001c2	75 0e		 jne	 SHORT $LN475@AddRenderI@3
  001c4	83 c0 02	 add	 eax, 2
  001c7	83 c6 02	 add	 esi, 2
  001ca	3a cb		 cmp	 cl, bl
  001cc	75 e4		 jne	 SHORT $LL474@AddRenderI@3
$LN476@AddRenderI@3:
  001ce	33 c0		 xor	 eax, eax
  001d0	eb 05		 jmp	 SHORT $LN477@AddRenderI@3
$LN475@AddRenderI@3:
  001d2	1b c0		 sbb	 eax, eax
  001d4	83 d8 ff	 sbb	 eax, -1
$LN477@AddRenderI@3:
  001d7	3b c3		 cmp	 eax, ebx
  001d9	75 28		 jne	 SHORT $LN465@AddRenderI@3

; 1242 : 	{
; 1243 : 		SAFEDELETE( m_pNormalPractice );

  001db	8b 75 dc	 mov	 esi, DWORD PTR _this$GSCopy$[ebp]
  001de	8b 8e 38 02 00
	00		 mov	 ecx, DWORD PTR [esi+568]
  001e4	3b cb		 cmp	 ecx, ebx
  001e6	74 0d		 je	 SHORT $LN5@AddRenderI@3
  001e8	8b 01		 mov	 eax, DWORD PTR [ecx]
  001ea	6a 01		 push	 1
  001ec	ff 50 40	 call	 DWORD PTR [eax+64]
  001ef	89 9e 38 02 00
	00		 mov	 DWORD PTR [esi+568], ebx
$LN5@AddRenderI@3:

; 1244 : 		m_pNormalPractice = pImage;

  001f5	8b 45 d8	 mov	 eax, DWORD PTR _pImage$GSCopy$[ebp]
  001f8	89 86 38 02 00
	00		 mov	 DWORD PTR [esi+568], eax
  001fe	e9 b3 00 00 00	 jmp	 $LN1@AddRenderI@3
$LN465@AddRenderI@3:

; 1245 : 	}
; 1246 : 	else if( szType == "DisablePractice" )

  00203	6a 03		 push	 3
  00205	c7 45 e4 a9 85
	98 8b		 mov	 DWORD PTR __t$568770[ebp], -1952938583 ; 8b9885a9H
  0020c	c7 45 e8 8f 80
	8e ba		 mov	 DWORD PTR __t$568770[ebp+4], -1165066097 ; ba8e808fH
  00213	c7 45 ec 9f 8d
	88 9e		 mov	 DWORD PTR __t$568770[ebp+8], -1635218017 ; 9e888d9fH
  0021a	8d 45 e4	 lea	 eax, DWORD PTR __t$568770[ebp]
  0021d	c7 45 f0 84 8f
	8e 00		 mov	 DWORD PTR __t$568770[ebp+12], 9342852 ; 008e8f84H
  00224	59		 pop	 ecx
$LL444@AddRenderI@3:
  00225	31 38		 xor	 DWORD PTR [eax], edi
  00227	83 c0 04	 add	 eax, 4
  0022a	49		 dec	 ecx
  0022b	75 f8		 jne	 SHORT $LL444@AddRenderI@3
  0022d	6a 0c		 push	 12			; 0000000cH
  0022f	58		 pop	 eax
$LL441@AddRenderI@3:
  00230	8b c8		 mov	 ecx, eax
  00232	81 e1 03 00 00
	80		 and	 ecx, -2147483645	; 80000003H
  00238	79 05		 jns	 SHORT $LN484@AddRenderI@3
  0023a	49		 dec	 ecx
  0023b	83 c9 fc	 or	 ecx, -4			; fffffffcH
  0023e	41		 inc	 ecx
$LN484@AddRenderI@3:
  0023f	b2 ed		 mov	 dl, -19			; ffffffedH
  00241	2a d1		 sub	 dl, cl
  00243	30 54 05 e4	 xor	 BYTE PTR __t$568770[ebp+eax], dl
  00247	40		 inc	 eax
  00248	83 f8 0f	 cmp	 eax, 15			; 0000000fH
  0024b	7c e3		 jl	 SHORT $LL441@AddRenderI@3
  0024d	8b 4d e0	 mov	 ecx, DWORD PTR _szType$GSCopy$[ebp]
  00250	8d 75 e4	 lea	 esi, DWORD PTR __t$568770[ebp]
  00253	ff 15 00 00 00
	00		 call	 DWORD PTR __imp_?c_str@ioHashString@@QBEPBDXZ
$LL478@AddRenderI@3:
  00259	8a 08		 mov	 cl, BYTE PTR [eax]
  0025b	3a 0e		 cmp	 cl, BYTE PTR [esi]
  0025d	75 1a		 jne	 SHORT $LN479@AddRenderI@3
  0025f	3a cb		 cmp	 cl, bl
  00261	74 12		 je	 SHORT $LN480@AddRenderI@3
  00263	8a 48 01	 mov	 cl, BYTE PTR [eax+1]
  00266	3a 4e 01	 cmp	 cl, BYTE PTR [esi+1]
  00269	75 0e		 jne	 SHORT $LN479@AddRenderI@3
  0026b	83 c0 02	 add	 eax, 2
  0026e	83 c6 02	 add	 esi, 2
  00271	3a cb		 cmp	 cl, bl
  00273	75 e4		 jne	 SHORT $LL478@AddRenderI@3
$LN480@AddRenderI@3:
  00275	33 c0		 xor	 eax, eax
  00277	eb 05		 jmp	 SHORT $LN481@AddRenderI@3
$LN479@AddRenderI@3:
  00279	1b c0		 sbb	 eax, eax
  0027b	83 d8 ff	 sbb	 eax, -1
$LN481@AddRenderI@3:
  0027e	3b c3		 cmp	 eax, ebx
  00280	75 25		 jne	 SHORT $LN3@AddRenderI@3

; 1247 : 	{
; 1248 : 		SAFEDELETE( m_pDisablePractice );

  00282	8b 75 dc	 mov	 esi, DWORD PTR _this$GSCopy$[ebp]
  00285	8b 8e 3c 02 00
	00		 mov	 ecx, DWORD PTR [esi+572]
  0028b	3b cb		 cmp	 ecx, ebx
  0028d	74 0d		 je	 SHORT $LN2@AddRenderI@3
  0028f	8b 01		 mov	 eax, DWORD PTR [ecx]
  00291	6a 01		 push	 1
  00293	ff 50 40	 call	 DWORD PTR [eax+64]
  00296	89 9e 3c 02 00
	00		 mov	 DWORD PTR [esi+572], ebx
$LN2@AddRenderI@3:

; 1249 : 		m_pDisablePractice = pImage;

  0029c	8b 45 d8	 mov	 eax, DWORD PTR _pImage$GSCopy$[ebp]
  0029f	89 86 3c 02 00
	00		 mov	 DWORD PTR [esi+572], eax

; 1250 : 	}
; 1251 : 	else

  002a5	eb 0f		 jmp	 SHORT $LN1@AddRenderI@3
$LN3@AddRenderI@3:

; 1252 : 	{
; 1253 : 		MenuBase::AddRenderImage( szType, pImage );

  002a7	ff 75 d8	 push	 DWORD PTR _pImage$GSCopy$[ebp]
  002aa	8b 4d dc	 mov	 ecx, DWORD PTR _this$GSCopy$[ebp]
  002ad	ff 75 e0	 push	 DWORD PTR _szType$GSCopy$[ebp]
  002b0	ff 15 00 00 00
	00		 call	 DWORD PTR __imp_?AddRenderImage@ioButton@@UAEXABVioHashString@@PAVioUIRenderImage@@@Z
$LN1@AddRenderI@3:

; 1254 : 	}
; 1255 : }

  002b6	8b 4d fc	 mov	 ecx, DWORD PTR __$ArrayPad$[ebp]
  002b9	5f		 pop	 edi
  002ba	5e		 pop	 esi
  002bb	33 cd		 xor	 ecx, ebp
  002bd	5b		 pop	 ebx
  002be	e8 00 00 00 00	 call	 @__security_check_cookie@4
  002c3	c9		 leave
  002c4	c2 08 00	 ret	 8
?AddRenderImage@PlazaStateBtn@@MAEXABVioHashString@@PAVioUIRenderImage@@@Z ENDP ; PlazaStateBtn::AddRenderImage
_TEXT	ENDS
EXTRN	__imp_?IsExDisabled@ioButton@@QBE_NXZ:PROC
EXTRN	__imp_?IsDisabled@ioButton@@QBE_NXZ:PROC
; Function compile flags: /Ogsp
;	COMDAT ?OnRender@PlazaStateBtn@@MAEXXZ
_TEXT	SEGMENT
_value$568968 = -12					; size = 4
_value$568956 = -12					; size = 4
_value$568944 = -12					; size = 4
_value$568932 = -12					; size = 4
_iXPos$ = -8						; size = 4
_iYPos$ = -4						; size = 4
?OnRender@PlazaStateBtn@@MAEXXZ PROC			; PlazaStateBtn::OnRender, COMDAT
; _this$ = ecx

; 1268 : {

  00000	55		 push	 ebp
  00001	8b ec		 mov	 ebp, esp
  00003	83 ec 0c	 sub	 esp, 12			; 0000000cH
  00006	56		 push	 esi
  00007	57		 push	 edi
  00008	8b f9		 mov	 edi, ecx

; 1269 : 	MenuBase::OnRender();

  0000a	ff 15 00 00 00
	00		 call	 DWORD PTR __imp_?OnRender@ioButton@@MAEXXZ

; 1270 : 
; 1271 : 	if( !m_pPlayStage ) return;

  00010	8b 8f 40 02 00
	00		 mov	 ecx, DWORD PTR [edi+576]
  00016	33 f6		 xor	 esi, esi
  00018	3b ce		 cmp	 ecx, esi
  0001a	0f 84 13 01 00
	00		 je	 $LN1@OnRender@2

; 1272 : 
; 1273 : 	ioBaseChar *pOwnerChar = m_pPlayStage->GetOwnerChar();

  00020	53		 push	 ebx
  00021	e8 00 00 00 00	 call	 ?GetOwnerChar@ioPlayStage@@QAEPAVioBaseChar@@XZ ; ioPlayStage::GetOwnerChar
  00026	8b d8		 mov	 ebx, eax

; 1274 : 	if( !pOwnerChar ) return;

  00028	3b de		 cmp	 ebx, esi
  0002a	0f 84 02 01 00
	00		 je	 $LN40@OnRender@2

; 1275 : 
; 1276 : 	int iXPos = GetDerivedPosX();

  00030	8b cf		 mov	 ecx, edi
  00032	ff 15 00 00 00
	00		 call	 DWORD PTR __imp_?GetDerivedPosX@ioWnd@@QBEHXZ

; 1277 : 	int iYPos = GetDerivedPosY();

  00038	8b cf		 mov	 ecx, edi
  0003a	89 45 f8	 mov	 DWORD PTR _iXPos$[ebp], eax
  0003d	ff 15 00 00 00
	00		 call	 DWORD PTR __imp_?GetDerivedPosY@ioWnd@@QBEHXZ
  00043	89 45 fc	 mov	 DWORD PTR _iYPos$[ebp], eax

; 1278 : 
; 1279 : 	if( pOwnerChar->GetChatModeState() == CMS_NONE )

  00046	8d 45 f4	 lea	 eax, DWORD PTR _value$568932[ebp]
  00049	81 c3 60 1d 00
	00		 add	 ebx, 7520		; 00001d60H
  0004f	50		 push	 eax
  00050	8b cb		 mov	 ecx, ebx
  00052	e8 00 00 00 00	 call	 ?DecryptValueToPool@?$CEncrypt@W4ChatModeState@@@@QAEXPAW4ChatModeState@@@Z ; CEncrypt<enum ChatModeState>::DecryptValueToPool
  00057	39 75 f4	 cmp	 DWORD PTR _value$568932[ebp], esi
  0005a	75 34		 jne	 SHORT $LN19@OnRender@2

; 1280 : 	{
; 1281 : 		if( IsDisabled() || IsExDisabled() )

  0005c	8b cf		 mov	 ecx, edi
  0005e	ff 15 00 00 00
	00		 call	 DWORD PTR __imp_?IsDisabled@ioButton@@QBE_NXZ
  00064	84 c0		 test	 al, al
  00066	0f 85 93 00 00
	00		 jne	 $LN17@OnRender@2
  0006c	8b cf		 mov	 ecx, edi
  0006e	ff 15 00 00 00
	00		 call	 DWORD PTR __imp_?IsExDisabled@ioButton@@QBE_NXZ
  00074	84 c0		 test	 al, al
  00076	0f 85 83 00 00
	00		 jne	 $LN17@OnRender@2

; 1282 : 		{
; 1283 : 			if( m_pDisableCommunity )
; 1284 : 				m_pDisableCommunity->Render( iXPos, iYPos );
; 1285 : 		}
; 1286 : 		else
; 1287 : 		{
; 1288 : 			if( m_pNormalCommunity )

  0007c	39 b7 30 02 00
	00		 cmp	 DWORD PTR [edi+560], esi
  00082	0f 84 aa 00 00
	00		 je	 $LN40@OnRender@2

; 1289 : 				m_pNormalCommunity->Render( iXPos, iYPos );

  00088	8b 8f 30 02 00
	00		 mov	 ecx, DWORD PTR [edi+560]
  0008e	eb 7d		 jmp	 SHORT $LN41@OnRender@2
$LN19@OnRender@2:

; 1290 : 		}
; 1291 : 	}
; 1292 : 	else if( pOwnerChar->GetChatModeState() == CMS_CHANGE_CHAT )

  00090	8d 45 f4	 lea	 eax, DWORD PTR _value$568944[ebp]
  00093	50		 push	 eax
  00094	8b cb		 mov	 ecx, ebx
  00096	e8 00 00 00 00	 call	 ?DecryptValueToPool@?$CEncrypt@W4ChatModeState@@@@QAEXPAW4ChatModeState@@@Z ; CEncrypt<enum ChatModeState>::DecryptValueToPool
  0009b	83 7d f4 01	 cmp	 DWORD PTR _value$568944[ebp], 1
  0009f	75 14		 jne	 SHORT $LN12@OnRender@2
$LN7@OnRender@2:

; 1293 : 	{
; 1294 : 		if( m_pDisablePractice )

  000a1	39 b7 3c 02 00
	00		 cmp	 DWORD PTR [edi+572], esi
  000a7	0f 84 85 00 00
	00		 je	 $LN40@OnRender@2

; 1295 : 			m_pDisablePractice->Render( iXPos, iYPos );

  000ad	8b 8f 3c 02 00
	00		 mov	 ecx, DWORD PTR [edi+572]

; 1296 : 	}

  000b3	eb 58		 jmp	 SHORT $LN41@OnRender@2
$LN12@OnRender@2:

; 1297 : 	else if( pOwnerChar->GetChatModeState() == CMS_CHAT )

  000b5	8d 45 f4	 lea	 eax, DWORD PTR _value$568956[ebp]
  000b8	50		 push	 eax
  000b9	8b cb		 mov	 ecx, ebx
  000bb	e8 00 00 00 00	 call	 ?DecryptValueToPool@?$CEncrypt@W4ChatModeState@@@@QAEXPAW4ChatModeState@@@Z ; CEncrypt<enum ChatModeState>::DecryptValueToPool
  000c0	83 7d f4 03	 cmp	 DWORD PTR _value$568956[ebp], 3
  000c4	75 28		 jne	 SHORT $LN9@OnRender@2

; 1298 : 	{
; 1299 : 		if( IsDisabled() || IsExDisabled() )

  000c6	8b cf		 mov	 ecx, edi
  000c8	ff 15 00 00 00
	00		 call	 DWORD PTR __imp_?IsDisabled@ioButton@@QBE_NXZ
  000ce	84 c0		 test	 al, al
  000d0	75 cf		 jne	 SHORT $LN7@OnRender@2
  000d2	8b cf		 mov	 ecx, edi
  000d4	ff 15 00 00 00
	00		 call	 DWORD PTR __imp_?IsExDisabled@ioButton@@QBE_NXZ
  000da	84 c0		 test	 al, al
  000dc	75 c3		 jne	 SHORT $LN7@OnRender@2

; 1300 : 		{
; 1301 : 			if( m_pDisablePractice )
; 1302 : 				m_pDisablePractice->Render( iXPos, iYPos );
; 1303 : 		}
; 1304 : 		else
; 1305 : 		{
; 1306 : 			if( m_pNormalPractice )

  000de	39 b7 38 02 00
	00		 cmp	 DWORD PTR [edi+568], esi
  000e4	74 4c		 je	 SHORT $LN40@OnRender@2

; 1307 : 				m_pNormalPractice->Render( iXPos, iYPos );

  000e6	8b 8f 38 02 00
	00		 mov	 ecx, DWORD PTR [edi+568]
  000ec	eb 1f		 jmp	 SHORT $LN41@OnRender@2
$LN9@OnRender@2:

; 1308 : 		}
; 1309 : 	}
; 1310 : 	else if( pOwnerChar->GetChatModeState() == CMS_CHANGE_NORMAL )

  000ee	8d 45 f4	 lea	 eax, DWORD PTR _value$568968[ebp]
  000f1	50		 push	 eax
  000f2	8b cb		 mov	 ecx, ebx
  000f4	e8 00 00 00 00	 call	 ?DecryptValueToPool@?$CEncrypt@W4ChatModeState@@@@QAEXPAW4ChatModeState@@@Z ; CEncrypt<enum ChatModeState>::DecryptValueToPool
  000f9	83 7d f4 02	 cmp	 DWORD PTR _value$568968[ebp], 2
  000fd	75 33		 jne	 SHORT $LN40@OnRender@2
$LN17@OnRender@2:

; 1311 : 	{
; 1312 : 		if( m_pDisableCommunity )

  000ff	39 b7 34 02 00
	00		 cmp	 DWORD PTR [edi+564], esi
  00105	74 2b		 je	 SHORT $LN40@OnRender@2

; 1313 : 			m_pDisableCommunity->Render( iXPos, iYPos );

  00107	8b 8f 34 02 00
	00		 mov	 ecx, DWORD PTR [edi+564]
$LN41@OnRender@2:
  0010d	66 0f 6e 45 fc	 movd	 xmm0, DWORD PTR _iYPos$[ebp]
  00112	8b 01		 mov	 eax, DWORD PTR [ecx]
  00114	56		 push	 esi
  00115	56		 push	 esi
  00116	56		 push	 esi
  00117	56		 push	 esi
  00118	51		 push	 ecx
  00119	51		 push	 ecx
  0011a	0f 5b c0	 cvtdq2ps xmm0, xmm0
  0011d	f3 0f 11 44 24
	04		 movss	 DWORD PTR [esp+4], xmm0
  00123	66 0f 6e 45 f8	 movd	 xmm0, DWORD PTR _iXPos$[ebp]
  00128	0f 5b c0	 cvtdq2ps xmm0, xmm0
  0012b	f3 0f 11 04 24	 movss	 DWORD PTR [esp], xmm0
  00130	ff 10		 call	 DWORD PTR [eax]
$LN40@OnRender@2:
  00132	5b		 pop	 ebx
$LN1@OnRender@2:
  00133	5f		 pop	 edi
  00134	5e		 pop	 esi

; 1314 : 	}
; 1315 : }

  00135	c9		 leave
  00136	c3		 ret	 0
?OnRender@PlazaStateBtn@@MAEXXZ ENDP			; PlazaStateBtn::OnRender
_TEXT	ENDS
PUBLIC	_pImage$GSCopy$
PUBLIC	_this$GSCopy$
PUBLIC	_szType$GSCopy$
PUBLIC	__$ArrayPad$
EXTRN	__imp_?AddRenderImage@ioWnd@@UAEXABVioHashString@@PAVioUIRenderImage@@@Z:PROC
; Function compile flags: /Ogsp
;	COMDAT ?AddRenderImage@HelpWnd@@UAEXABVioHashString@@PAVioUIRenderImage@@@Z
_TEXT	SEGMENT
_pImage$GSCopy$ = -40					; size = 4
_this$GSCopy$ = -36					; size = 4
_szType$GSCopy$ = -32					; size = 4
__t$569272 = -28					; size = 17
__t$569147 = -28					; size = 18
__t$569022 = -28					; size = 16
__t$569910 = -20					; size = 9
__t$569785 = -20					; size = 8
__t$569660 = -20					; size = 9
__t$569535 = -20					; size = 10
__t$569410 = -20					; size = 8
__$ArrayPad$ = -4					; size = 4
_szType$ = 8						; size = 4
_pImage$ = 12						; size = 4
?AddRenderImage@HelpWnd@@UAEXABVioHashString@@PAVioUIRenderImage@@@Z PROC ; HelpWnd::AddRenderImage, COMDAT
; _this$ = ecx

; 1360 : {

  00000	55		 push	 ebp
  00001	8b ec		 mov	 ebp, esp
  00003	83 ec 28	 sub	 esp, 40			; 00000028H
  00006	a1 00 00 00 00	 mov	 eax, DWORD PTR ___security_cookie
  0000b	33 c5		 xor	 eax, ebp
  0000d	89 45 fc	 mov	 DWORD PTR __$ArrayPad$[ebp], eax
  00010	8b 45 08	 mov	 eax, DWORD PTR _szType$[ebp]
  00013	53		 push	 ebx
  00014	56		 push	 esi
  00015	57		 push	 edi

; 1395 : 	}
; 1396 : 	else if( szType == "HideIcon" )

  00016	89 45 e0	 mov	 DWORD PTR _szType$GSCopy$[ebp], eax
  00019	8b 45 0c	 mov	 eax, DWORD PTR _pImage$[ebp]
  0001c	6a 03		 push	 3
  0001e	89 4d dc	 mov	 DWORD PTR _this$GSCopy$[ebp], ecx
  00021	89 45 d8	 mov	 DWORD PTR _pImage$GSCopy$[ebp], eax
  00024	c7 45 e4 af 8d
	99 a6		 mov	 DWORD PTR __t$569022[ebp], -1499886161 ; a6998dafH
  0002b	c7 45 e8 88 8a
	9f a7		 mov	 DWORD PTR __t$569022[ebp+4], -1482716536 ; a79f8a88H
  00032	c7 45 ec 98 80
	9f 83		 mov	 DWORD PTR __t$569022[ebp+8], -2086698856 ; 839f8098H
  00039	8d 45 e4	 lea	 eax, DWORD PTR __t$569022[ebp]
  0003c	33 db		 xor	 ebx, ebx
  0003e	c7 45 f0 9d 80
	92 00		 mov	 DWORD PTR __t$569022[ebp+12], 9601181 ; 0092809dH
  00045	59		 pop	 ecx
  00046	bf ed ec eb ea	 mov	 edi, -353637139		; eaebecedH
$LL146@AddRenderI@4:

; 1361 : 	if( szType == "BarLeftMultiply" )

  0004b	31 38		 xor	 DWORD PTR [eax], edi
  0004d	83 c0 04	 add	 eax, 4
  00050	49		 dec	 ecx
  00051	75 f8		 jne	 SHORT $LL146@AddRenderI@4
  00053	6a 0c		 push	 12			; 0000000cH
  00055	58		 pop	 eax
$LL143@AddRenderI@4:
  00056	8b c8		 mov	 ecx, eax
  00058	81 e1 03 00 00
	80		 and	 ecx, -2147483645	; 80000003H
  0005e	79 05		 jns	 SHORT $LN965@AddRenderI@4
  00060	49		 dec	 ecx
  00061	83 c9 fc	 or	 ecx, -4			; fffffffcH
  00064	41		 inc	 ecx
$LN965@AddRenderI@4:
  00065	b2 ed		 mov	 dl, -19			; ffffffedH
  00067	2a d1		 sub	 dl, cl
  00069	30 54 05 e4	 xor	 BYTE PTR __t$569022[ebp+eax], dl
  0006d	40		 inc	 eax
  0006e	83 f8 0f	 cmp	 eax, 15			; 0000000fH
  00071	7c e3		 jl	 SHORT $LL143@AddRenderI@4
  00073	8b 4d e0	 mov	 ecx, DWORD PTR _szType$GSCopy$[ebp]
  00076	8d 75 e4	 lea	 esi, DWORD PTR __t$569022[ebp]
  00079	ff 15 00 00 00
	00		 call	 DWORD PTR __imp_?c_str@ioHashString@@QBEPBDXZ
$LL930@AddRenderI@4:
  0007f	8a 08		 mov	 cl, BYTE PTR [eax]
  00081	3a 0e		 cmp	 cl, BYTE PTR [esi]
  00083	75 1a		 jne	 SHORT $LN931@AddRenderI@4
  00085	3a cb		 cmp	 cl, bl
  00087	74 12		 je	 SHORT $LN932@AddRenderI@4
  00089	8a 48 01	 mov	 cl, BYTE PTR [eax+1]
  0008c	3a 4e 01	 cmp	 cl, BYTE PTR [esi+1]
  0008f	75 0e		 jne	 SHORT $LN931@AddRenderI@4
  00091	83 c0 02	 add	 eax, 2
  00094	83 c6 02	 add	 esi, 2
  00097	3a cb		 cmp	 cl, bl
  00099	75 e4		 jne	 SHORT $LL930@AddRenderI@4
$LN932@AddRenderI@4:
  0009b	33 c0		 xor	 eax, eax
  0009d	eb 05		 jmp	 SHORT $LN933@AddRenderI@4
$LN931@AddRenderI@4:
  0009f	1b c0		 sbb	 eax, eax
  000a1	83 d8 ff	 sbb	 eax, -1
$LN933@AddRenderI@4:
  000a4	3b c3		 cmp	 eax, ebx
  000a6	75 28		 jne	 SHORT $LN923@AddRenderI@4

; 1362 : 	{
; 1363 : 		SAFEDELETE( m_pBarLeftMultiply );

  000a8	8b 75 dc	 mov	 esi, DWORD PTR _this$GSCopy$[ebp]
  000ab	8b 8e 60 01 00
	00		 mov	 ecx, DWORD PTR [esi+352]
  000b1	3b cb		 cmp	 ecx, ebx
  000b3	74 0d		 je	 SHORT $LN23@AddRenderI@4
  000b5	8b 01		 mov	 eax, DWORD PTR [ecx]
  000b7	6a 01		 push	 1
  000b9	ff 50 40	 call	 DWORD PTR [eax+64]
  000bc	89 9e 60 01 00
	00		 mov	 DWORD PTR [esi+352], ebx
$LN23@AddRenderI@4:

; 1364 : 		m_pBarLeftMultiply = pImage;

  000c2	8b 45 d8	 mov	 eax, DWORD PTR _pImage$GSCopy$[ebp]
  000c5	89 86 60 01 00
	00		 mov	 DWORD PTR [esi+352], eax
  000cb	e9 be 03 00 00	 jmp	 $LN1@AddRenderI@4
$LN923@AddRenderI@4:

; 1365 : 	}
; 1366 : 	else if( szType == "BarCenterMultiply" )

  000d0	6a 04		 push	 4
  000d2	c7 45 e4 af 8d
	99 a9		 mov	 DWORD PTR __t$569147[ebp], -1449554513 ; a9998dafH
  000d9	c7 45 e8 88 82
	9f 8f		 mov	 DWORD PTR __t$569147[ebp+4], -1885371768 ; 8f9f8288H
  000e0	c7 45 ec 9f a1
	9e 86		 mov	 DWORD PTR __t$569147[ebp+8], -2036424289 ; 869ea19fH
  000e7	c7 45 f0 99 85
	9b 86		 mov	 DWORD PTR __t$569147[ebp+12], -2036628071 ; 869b8599H
  000ee	8d 45 e4	 lea	 eax, DWORD PTR __t$569147[ebp]
  000f1	66 c7 45 f4 94
	00		 mov	 WORD PTR __t$569147[ebp+16], 148 ; 00000094H
  000f7	59		 pop	 ecx
$LL252@AddRenderI@4:
  000f8	31 38		 xor	 DWORD PTR [eax], edi
  000fa	83 c0 04	 add	 eax, 4
  000fd	49		 dec	 ecx
  000fe	75 f8		 jne	 SHORT $LL252@AddRenderI@4
  00100	8b 4d e0	 mov	 ecx, DWORD PTR _szType$GSCopy$[ebp]
  00103	80 75 f4 ed	 xor	 BYTE PTR __t$569147[ebp+16], -19 ; ffffffedH
  00107	8d 75 e4	 lea	 esi, DWORD PTR __t$569147[ebp]
  0010a	ff 15 00 00 00
	00		 call	 DWORD PTR __imp_?c_str@ioHashString@@QBEPBDXZ
$LL934@AddRenderI@4:
  00110	8a 08		 mov	 cl, BYTE PTR [eax]
  00112	3a 0e		 cmp	 cl, BYTE PTR [esi]
  00114	75 1a		 jne	 SHORT $LN935@AddRenderI@4
  00116	3a cb		 cmp	 cl, bl
  00118	74 12		 je	 SHORT $LN936@AddRenderI@4
  0011a	8a 48 01	 mov	 cl, BYTE PTR [eax+1]
  0011d	3a 4e 01	 cmp	 cl, BYTE PTR [esi+1]
  00120	75 0e		 jne	 SHORT $LN935@AddRenderI@4
  00122	83 c0 02	 add	 eax, 2
  00125	83 c6 02	 add	 esi, 2
  00128	3a cb		 cmp	 cl, bl
  0012a	75 e4		 jne	 SHORT $LL934@AddRenderI@4
$LN936@AddRenderI@4:
  0012c	33 c0		 xor	 eax, eax
  0012e	eb 05		 jmp	 SHORT $LN937@AddRenderI@4
$LN935@AddRenderI@4:
  00130	1b c0		 sbb	 eax, eax
  00132	83 d8 ff	 sbb	 eax, -1
$LN937@AddRenderI@4:
  00135	3b c3		 cmp	 eax, ebx
  00137	75 28		 jne	 SHORT $LN924@AddRenderI@4

; 1367 : 	{
; 1368 : 		SAFEDELETE( m_pBarCenterMultiply );

  00139	8b 75 dc	 mov	 esi, DWORD PTR _this$GSCopy$[ebp]
  0013c	8b 8e 64 01 00
	00		 mov	 ecx, DWORD PTR [esi+356]
  00142	3b cb		 cmp	 ecx, ebx
  00144	74 0d		 je	 SHORT $LN20@AddRenderI@4
  00146	8b 01		 mov	 eax, DWORD PTR [ecx]
  00148	6a 01		 push	 1
  0014a	ff 50 40	 call	 DWORD PTR [eax+64]
  0014d	89 9e 64 01 00
	00		 mov	 DWORD PTR [esi+356], ebx
$LN20@AddRenderI@4:

; 1369 : 		m_pBarCenterMultiply = pImage;

  00153	8b 45 d8	 mov	 eax, DWORD PTR _pImage$GSCopy$[ebp]
  00156	89 86 64 01 00
	00		 mov	 DWORD PTR [esi+356], eax
  0015c	e9 2d 03 00 00	 jmp	 $LN1@AddRenderI@4
$LN924@AddRenderI@4:

; 1370 : 	}
; 1371 : 	else if( szType == "BarRightMultiply" )

  00161	6a 04		 push	 4
  00163	c7 45 e4 af 8d
	99 b8		 mov	 DWORD PTR __t$569272[ebp], -1197896273 ; b8998dafH
  0016a	c7 45 e8 84 8b
	83 9e		 mov	 DWORD PTR __t$569272[ebp+4], -1635546236 ; 9e838b84H
  00171	c7 45 ec a0 99
	87 9e		 mov	 DWORD PTR __t$569272[ebp+8], -1635280480 ; 9e8799a0H
  00178	c7 45 f0 84 9c
	87 93		 mov	 DWORD PTR __t$569272[ebp+12], -1819829116 ; 93879c84H
  0017f	8d 45 e4	 lea	 eax, DWORD PTR __t$569272[ebp]
  00182	88 5d f4	 mov	 BYTE PTR __t$569272[ebp+16], bl
  00185	59		 pop	 ecx
$LL358@AddRenderI@4:
  00186	31 38		 xor	 DWORD PTR [eax], edi
  00188	83 c0 04	 add	 eax, 4
  0018b	49		 dec	 ecx
  0018c	75 f8		 jne	 SHORT $LL358@AddRenderI@4
  0018e	8b 4d e0	 mov	 ecx, DWORD PTR _szType$GSCopy$[ebp]
  00191	8d 75 e4	 lea	 esi, DWORD PTR __t$569272[ebp]
  00194	ff 15 00 00 00
	00		 call	 DWORD PTR __imp_?c_str@ioHashString@@QBEPBDXZ
$LL938@AddRenderI@4:
  0019a	8a 08		 mov	 cl, BYTE PTR [eax]
  0019c	3a 0e		 cmp	 cl, BYTE PTR [esi]
  0019e	75 1a		 jne	 SHORT $LN939@AddRenderI@4
  001a0	3a cb		 cmp	 cl, bl
  001a2	74 12		 je	 SHORT $LN940@AddRenderI@4
  001a4	8a 48 01	 mov	 cl, BYTE PTR [eax+1]
  001a7	3a 4e 01	 cmp	 cl, BYTE PTR [esi+1]
  001aa	75 0e		 jne	 SHORT $LN939@AddRenderI@4
  001ac	83 c0 02	 add	 eax, 2
  001af	83 c6 02	 add	 esi, 2
  001b2	3a cb		 cmp	 cl, bl
  001b4	75 e4		 jne	 SHORT $LL938@AddRenderI@4
$LN940@AddRenderI@4:
  001b6	33 c0		 xor	 eax, eax
  001b8	eb 05		 jmp	 SHORT $LN941@AddRenderI@4
$LN939@AddRenderI@4:
  001ba	1b c0		 sbb	 eax, eax
  001bc	83 d8 ff	 sbb	 eax, -1
$LN941@AddRenderI@4:
  001bf	3b c3		 cmp	 eax, ebx
  001c1	75 28		 jne	 SHORT $LN925@AddRenderI@4

; 1372 : 	{
; 1373 : 		SAFEDELETE( m_pBarRightMultiply );

  001c3	8b 75 dc	 mov	 esi, DWORD PTR _this$GSCopy$[ebp]
  001c6	8b 8e 68 01 00
	00		 mov	 ecx, DWORD PTR [esi+360]
  001cc	3b cb		 cmp	 ecx, ebx
  001ce	74 0d		 je	 SHORT $LN17@AddRenderI@4
  001d0	8b 01		 mov	 eax, DWORD PTR [ecx]
  001d2	6a 01		 push	 1
  001d4	ff 50 40	 call	 DWORD PTR [eax+64]
  001d7	89 9e 68 01 00
	00		 mov	 DWORD PTR [esi+360], ebx
$LN17@AddRenderI@4:

; 1374 : 		m_pBarRightMultiply = pImage;

  001dd	8b 45 d8	 mov	 eax, DWORD PTR _pImage$GSCopy$[ebp]
  001e0	89 86 68 01 00
	00		 mov	 DWORD PTR [esi+360], eax
  001e6	e9 a3 02 00 00	 jmp	 $LN1@AddRenderI@4
$LN925@AddRenderI@4:

; 1375 : 	}
; 1376 : 	else if( szType == "BarLeft" )

  001eb	6a 04		 push	 4
  001ed	c7 45 ec af 8d
	99 a6		 mov	 DWORD PTR __t$569410[ebp], -1499886161 ; a6998dafH
  001f4	31 7d ec	 xor	 DWORD PTR __t$569410[ebp], edi
  001f7	c7 45 f0 88 8a
	9f 00		 mov	 DWORD PTR __t$569410[ebp+4], 10455688 ; 009f8a88H
  001fe	58		 pop	 eax
$LL461@AddRenderI@4:
  001ff	8b c8		 mov	 ecx, eax
  00201	81 e1 03 00 00
	80		 and	 ecx, -2147483645	; 80000003H
  00207	79 05		 jns	 SHORT $LN966@AddRenderI@4
  00209	49		 dec	 ecx
  0020a	83 c9 fc	 or	 ecx, -4			; fffffffcH
  0020d	41		 inc	 ecx
$LN966@AddRenderI@4:
  0020e	b2 ed		 mov	 dl, -19			; ffffffedH
  00210	2a d1		 sub	 dl, cl
  00212	30 54 05 ec	 xor	 BYTE PTR __t$569410[ebp+eax], dl
  00216	40		 inc	 eax
  00217	83 f8 07	 cmp	 eax, 7
  0021a	7c e3		 jl	 SHORT $LL461@AddRenderI@4
  0021c	8b 4d e0	 mov	 ecx, DWORD PTR _szType$GSCopy$[ebp]
  0021f	8d 75 ec	 lea	 esi, DWORD PTR __t$569410[ebp]
  00222	ff 15 00 00 00
	00		 call	 DWORD PTR __imp_?c_str@ioHashString@@QBEPBDXZ
$LL942@AddRenderI@4:
  00228	8a 08		 mov	 cl, BYTE PTR [eax]
  0022a	3a 0e		 cmp	 cl, BYTE PTR [esi]
  0022c	75 1a		 jne	 SHORT $LN943@AddRenderI@4
  0022e	3a cb		 cmp	 cl, bl
  00230	74 12		 je	 SHORT $LN962@AddRenderI@4
  00232	8a 48 01	 mov	 cl, BYTE PTR [eax+1]
  00235	3a 4e 01	 cmp	 cl, BYTE PTR [esi+1]
  00238	75 0e		 jne	 SHORT $LN943@AddRenderI@4
  0023a	83 c0 02	 add	 eax, 2
  0023d	83 c6 02	 add	 esi, 2
  00240	3a cb		 cmp	 cl, bl
  00242	75 e4		 jne	 SHORT $LL942@AddRenderI@4
$LN962@AddRenderI@4:
  00244	33 c0		 xor	 eax, eax
  00246	eb 05		 jmp	 SHORT $LN945@AddRenderI@4
$LN943@AddRenderI@4:
  00248	1b c0		 sbb	 eax, eax
  0024a	83 d8 ff	 sbb	 eax, -1
$LN945@AddRenderI@4:
  0024d	3b c3		 cmp	 eax, ebx
  0024f	75 28		 jne	 SHORT $LN926@AddRenderI@4

; 1377 : 	{
; 1378 : 		SAFEDELETE( m_pBarLeft );

  00251	8b 75 dc	 mov	 esi, DWORD PTR _this$GSCopy$[ebp]
  00254	8b 8e 6c 01 00
	00		 mov	 ecx, DWORD PTR [esi+364]
  0025a	3b cb		 cmp	 ecx, ebx
  0025c	74 0d		 je	 SHORT $LN14@AddRenderI@4
  0025e	8b 01		 mov	 eax, DWORD PTR [ecx]
  00260	6a 01		 push	 1
  00262	ff 50 40	 call	 DWORD PTR [eax+64]
  00265	89 9e 6c 01 00
	00		 mov	 DWORD PTR [esi+364], ebx
$LN14@AddRenderI@4:

; 1379 : 		m_pBarLeft = pImage;

  0026b	8b 45 d8	 mov	 eax, DWORD PTR _pImage$GSCopy$[ebp]
  0026e	89 86 6c 01 00
	00		 mov	 DWORD PTR [esi+364], eax
  00274	e9 15 02 00 00	 jmp	 $LN1@AddRenderI@4
$LN926@AddRenderI@4:

; 1380 : 	}
; 1381 : 	else if( szType == "BarCenter" )

  00279	6a 02		 push	 2
  0027b	c7 45 ec af 8d
	99 a9		 mov	 DWORD PTR __t$569535[ebp], -1449554513 ; a9998dafH
  00282	c7 45 f0 88 82
	9f 8f		 mov	 DWORD PTR __t$569535[ebp+4], -1885371768 ; 8f9f8288H
  00289	8d 45 ec	 lea	 eax, DWORD PTR __t$569535[ebp]
  0028c	66 c7 45 f4 9f
	00		 mov	 WORD PTR __t$569535[ebp+8], 159 ; 0000009fH
  00292	59		 pop	 ecx
$LL570@AddRenderI@4:
  00293	31 38		 xor	 DWORD PTR [eax], edi
  00295	83 c0 04	 add	 eax, 4
  00298	49		 dec	 ecx
  00299	75 f8		 jne	 SHORT $LL570@AddRenderI@4
  0029b	8b 4d e0	 mov	 ecx, DWORD PTR _szType$GSCopy$[ebp]
  0029e	80 75 f4 ed	 xor	 BYTE PTR __t$569535[ebp+8], -19 ; ffffffedH
  002a2	8d 75 ec	 lea	 esi, DWORD PTR __t$569535[ebp]
  002a5	ff 15 00 00 00
	00		 call	 DWORD PTR __imp_?c_str@ioHashString@@QBEPBDXZ
$LL946@AddRenderI@4:
  002ab	8a 08		 mov	 cl, BYTE PTR [eax]
  002ad	3a 0e		 cmp	 cl, BYTE PTR [esi]
  002af	75 1a		 jne	 SHORT $LN947@AddRenderI@4
  002b1	3a cb		 cmp	 cl, bl
  002b3	74 12		 je	 SHORT $LN963@AddRenderI@4
  002b5	8a 48 01	 mov	 cl, BYTE PTR [eax+1]
  002b8	3a 4e 01	 cmp	 cl, BYTE PTR [esi+1]
  002bb	75 0e		 jne	 SHORT $LN947@AddRenderI@4
  002bd	83 c0 02	 add	 eax, 2
  002c0	83 c6 02	 add	 esi, 2
  002c3	3a cb		 cmp	 cl, bl
  002c5	75 e4		 jne	 SHORT $LL946@AddRenderI@4
$LN963@AddRenderI@4:
  002c7	33 c0		 xor	 eax, eax
  002c9	eb 05		 jmp	 SHORT $LN949@AddRenderI@4
$LN947@AddRenderI@4:
  002cb	1b c0		 sbb	 eax, eax
  002cd	83 d8 ff	 sbb	 eax, -1
$LN949@AddRenderI@4:
  002d0	3b c3		 cmp	 eax, ebx
  002d2	75 28		 jne	 SHORT $LN927@AddRenderI@4

; 1382 : 	{
; 1383 : 		SAFEDELETE( m_pBarCenter );

  002d4	8b 75 dc	 mov	 esi, DWORD PTR _this$GSCopy$[ebp]
  002d7	8b 8e 70 01 00
	00		 mov	 ecx, DWORD PTR [esi+368]
  002dd	3b cb		 cmp	 ecx, ebx
  002df	74 0d		 je	 SHORT $LN11@AddRenderI@4
  002e1	8b 01		 mov	 eax, DWORD PTR [ecx]
  002e3	6a 01		 push	 1
  002e5	ff 50 40	 call	 DWORD PTR [eax+64]
  002e8	89 9e 70 01 00
	00		 mov	 DWORD PTR [esi+368], ebx
$LN11@AddRenderI@4:

; 1384 : 		m_pBarCenter = pImage;

  002ee	8b 45 d8	 mov	 eax, DWORD PTR _pImage$GSCopy$[ebp]
  002f1	89 86 70 01 00
	00		 mov	 DWORD PTR [esi+368], eax
  002f7	e9 92 01 00 00	 jmp	 $LN1@AddRenderI@4
$LN927@AddRenderI@4:

; 1385 : 	}
; 1386 : 	else if( szType == "BarRight" )

  002fc	6a 02		 push	 2
  002fe	c7 45 ec af 8d
	99 b8		 mov	 DWORD PTR __t$569660[ebp], -1197896273 ; b8998dafH
  00305	c7 45 f0 84 8b
	83 9e		 mov	 DWORD PTR __t$569660[ebp+4], -1635546236 ; 9e838b84H
  0030c	8d 45 ec	 lea	 eax, DWORD PTR __t$569660[ebp]
  0030f	88 5d f4	 mov	 BYTE PTR __t$569660[ebp+8], bl
  00312	59		 pop	 ecx
$LL676@AddRenderI@4:
  00313	31 38		 xor	 DWORD PTR [eax], edi
  00315	83 c0 04	 add	 eax, 4
  00318	49		 dec	 ecx
  00319	75 f8		 jne	 SHORT $LL676@AddRenderI@4
  0031b	8b 4d e0	 mov	 ecx, DWORD PTR _szType$GSCopy$[ebp]
  0031e	8d 75 ec	 lea	 esi, DWORD PTR __t$569660[ebp]
  00321	ff 15 00 00 00
	00		 call	 DWORD PTR __imp_?c_str@ioHashString@@QBEPBDXZ
$LL950@AddRenderI@4:
  00327	8a 08		 mov	 cl, BYTE PTR [eax]
  00329	3a 0e		 cmp	 cl, BYTE PTR [esi]
  0032b	75 1a		 jne	 SHORT $LN951@AddRenderI@4
  0032d	3a cb		 cmp	 cl, bl
  0032f	74 12		 je	 SHORT $LN952@AddRenderI@4
  00331	8a 48 01	 mov	 cl, BYTE PTR [eax+1]
  00334	3a 4e 01	 cmp	 cl, BYTE PTR [esi+1]
  00337	75 0e		 jne	 SHORT $LN951@AddRenderI@4
  00339	83 c0 02	 add	 eax, 2
  0033c	83 c6 02	 add	 esi, 2
  0033f	3a cb		 cmp	 cl, bl
  00341	75 e4		 jne	 SHORT $LL950@AddRenderI@4
$LN952@AddRenderI@4:
  00343	33 c0		 xor	 eax, eax
  00345	eb 05		 jmp	 SHORT $LN953@AddRenderI@4
$LN951@AddRenderI@4:
  00347	1b c0		 sbb	 eax, eax
  00349	83 d8 ff	 sbb	 eax, -1
$LN953@AddRenderI@4:
  0034c	3b c3		 cmp	 eax, ebx
  0034e	75 28		 jne	 SHORT $LN928@AddRenderI@4

; 1387 : 	{
; 1388 : 		SAFEDELETE( m_pBarRight );

  00350	8b 75 dc	 mov	 esi, DWORD PTR _this$GSCopy$[ebp]
  00353	8b 8e 74 01 00
	00		 mov	 ecx, DWORD PTR [esi+372]
  00359	3b cb		 cmp	 ecx, ebx
  0035b	74 0d		 je	 SHORT $LN8@AddRenderI@4
  0035d	8b 01		 mov	 eax, DWORD PTR [ecx]
  0035f	6a 01		 push	 1
  00361	ff 50 40	 call	 DWORD PTR [eax+64]
  00364	89 9e 74 01 00
	00		 mov	 DWORD PTR [esi+372], ebx
$LN8@AddRenderI@4:

; 1389 : 		m_pBarRight = pImage;

  0036a	8b 45 d8	 mov	 eax, DWORD PTR _pImage$GSCopy$[ebp]
  0036d	89 86 74 01 00
	00		 mov	 DWORD PTR [esi+372], eax
  00373	e9 16 01 00 00	 jmp	 $LN1@AddRenderI@4
$LN928@AddRenderI@4:

; 1390 : 	}
; 1391 : 	else if( szType == "HideBar" )

  00378	6a 04		 push	 4
  0037a	c7 45 ec a5 85
	8f 8f		 mov	 DWORD PTR __t$569785[ebp], -1886419547 ; 8f8f85a5H
  00381	31 7d ec	 xor	 DWORD PTR __t$569785[ebp], edi
  00384	c7 45 f0 af 8d
	99 00		 mov	 DWORD PTR __t$569785[ebp+4], 10063279 ; 00998dafH
  0038b	58		 pop	 eax
$LL779@AddRenderI@4:
  0038c	8b c8		 mov	 ecx, eax
  0038e	81 e1 03 00 00
	80		 and	 ecx, -2147483645	; 80000003H
  00394	79 05		 jns	 SHORT $LN967@AddRenderI@4
  00396	49		 dec	 ecx
  00397	83 c9 fc	 or	 ecx, -4			; fffffffcH
  0039a	41		 inc	 ecx
$LN967@AddRenderI@4:
  0039b	b2 ed		 mov	 dl, -19			; ffffffedH
  0039d	2a d1		 sub	 dl, cl
  0039f	30 54 05 ec	 xor	 BYTE PTR __t$569785[ebp+eax], dl
  003a3	40		 inc	 eax
  003a4	83 f8 07	 cmp	 eax, 7
  003a7	7c e3		 jl	 SHORT $LL779@AddRenderI@4
  003a9	8b 4d e0	 mov	 ecx, DWORD PTR _szType$GSCopy$[ebp]
  003ac	8d 75 ec	 lea	 esi, DWORD PTR __t$569785[ebp]
  003af	ff 15 00 00 00
	00		 call	 DWORD PTR __imp_?c_str@ioHashString@@QBEPBDXZ
$LL954@AddRenderI@4:
  003b5	8a 08		 mov	 cl, BYTE PTR [eax]
  003b7	3a 0e		 cmp	 cl, BYTE PTR [esi]
  003b9	75 1a		 jne	 SHORT $LN955@AddRenderI@4
  003bb	3a cb		 cmp	 cl, bl
  003bd	74 12		 je	 SHORT $LN964@AddRenderI@4
  003bf	8a 48 01	 mov	 cl, BYTE PTR [eax+1]
  003c2	3a 4e 01	 cmp	 cl, BYTE PTR [esi+1]
  003c5	75 0e		 jne	 SHORT $LN955@AddRenderI@4
  003c7	83 c0 02	 add	 eax, 2
  003ca	83 c6 02	 add	 esi, 2
  003cd	3a cb		 cmp	 cl, bl
  003cf	75 e4		 jne	 SHORT $LL954@AddRenderI@4
$LN964@AddRenderI@4:
  003d1	33 c0		 xor	 eax, eax
  003d3	eb 05		 jmp	 SHORT $LN957@AddRenderI@4
$LN955@AddRenderI@4:
  003d5	1b c0		 sbb	 eax, eax
  003d7	83 d8 ff	 sbb	 eax, -1
$LN957@AddRenderI@4:
  003da	3b c3		 cmp	 eax, ebx
  003dc	75 28		 jne	 SHORT $LN929@AddRenderI@4

; 1392 : 	{
; 1393 : 		SAFEDELETE( m_pHideBar );

  003de	8b 75 dc	 mov	 esi, DWORD PTR _this$GSCopy$[ebp]
  003e1	8b 8e 78 01 00
	00		 mov	 ecx, DWORD PTR [esi+376]
  003e7	3b cb		 cmp	 ecx, ebx
  003e9	74 0d		 je	 SHORT $LN5@AddRenderI@4
  003eb	8b 01		 mov	 eax, DWORD PTR [ecx]
  003ed	6a 01		 push	 1
  003ef	ff 50 40	 call	 DWORD PTR [eax+64]
  003f2	89 9e 78 01 00
	00		 mov	 DWORD PTR [esi+376], ebx
$LN5@AddRenderI@4:

; 1394 : 		m_pHideBar = pImage;

  003f8	8b 45 d8	 mov	 eax, DWORD PTR _pImage$GSCopy$[ebp]
  003fb	89 86 78 01 00
	00		 mov	 DWORD PTR [esi+376], eax
  00401	e9 88 00 00 00	 jmp	 $LN1@AddRenderI@4
$LN929@AddRenderI@4:

; 1395 : 	}
; 1396 : 	else if( szType == "HideIcon" )

  00406	6a 02		 push	 2
  00408	c7 45 ec a5 85
	8f 8f		 mov	 DWORD PTR __t$569910[ebp], -1886419547 ; 8f8f85a5H
  0040f	c7 45 f0 a4 8f
	84 84		 mov	 DWORD PTR __t$569910[ebp+4], -2071687260 ; 84848fa4H
  00416	8d 45 ec	 lea	 eax, DWORD PTR __t$569910[ebp]
  00419	88 5d f4	 mov	 BYTE PTR __t$569910[ebp+8], bl
  0041c	59		 pop	 ecx
$LL888@AddRenderI@4:
  0041d	31 38		 xor	 DWORD PTR [eax], edi
  0041f	83 c0 04	 add	 eax, 4
  00422	49		 dec	 ecx
  00423	75 f8		 jne	 SHORT $LL888@AddRenderI@4
  00425	8b 4d e0	 mov	 ecx, DWORD PTR _szType$GSCopy$[ebp]
  00428	8d 75 ec	 lea	 esi, DWORD PTR __t$569910[ebp]
  0042b	ff 15 00 00 00
	00		 call	 DWORD PTR __imp_?c_str@ioHashString@@QBEPBDXZ
$LL958@AddRenderI@4:
  00431	8a 08		 mov	 cl, BYTE PTR [eax]
  00433	3a 0e		 cmp	 cl, BYTE PTR [esi]
  00435	75 1a		 jne	 SHORT $LN959@AddRenderI@4
  00437	3a cb		 cmp	 cl, bl
  00439	74 12		 je	 SHORT $LN960@AddRenderI@4
  0043b	8a 48 01	 mov	 cl, BYTE PTR [eax+1]
  0043e	3a 4e 01	 cmp	 cl, BYTE PTR [esi+1]
  00441	75 0e		 jne	 SHORT $LN959@AddRenderI@4
  00443	83 c0 02	 add	 eax, 2
  00446	83 c6 02	 add	 esi, 2
  00449	3a cb		 cmp	 cl, bl
  0044b	75 e4		 jne	 SHORT $LL958@AddRenderI@4
$LN960@AddRenderI@4:
  0044d	33 c0		 xor	 eax, eax
  0044f	eb 05		 jmp	 SHORT $LN961@AddRenderI@4
$LN959@AddRenderI@4:
  00451	1b c0		 sbb	 eax, eax
  00453	83 d8 ff	 sbb	 eax, -1
$LN961@AddRenderI@4:
  00456	3b c3		 cmp	 eax, ebx
  00458	75 25		 jne	 SHORT $LN3@AddRenderI@4

; 1397 : 	{
; 1398 : 		SAFEDELETE( m_pHideIcon );

  0045a	8b 75 dc	 mov	 esi, DWORD PTR _this$GSCopy$[ebp]
  0045d	8b 8e 7c 01 00
	00		 mov	 ecx, DWORD PTR [esi+380]
  00463	3b cb		 cmp	 ecx, ebx
  00465	74 0d		 je	 SHORT $LN2@AddRenderI@4
  00467	8b 01		 mov	 eax, DWORD PTR [ecx]
  00469	6a 01		 push	 1
  0046b	ff 50 40	 call	 DWORD PTR [eax+64]
  0046e	89 9e 7c 01 00
	00		 mov	 DWORD PTR [esi+380], ebx
$LN2@AddRenderI@4:

; 1399 : 		m_pHideIcon = pImage;

  00474	8b 45 d8	 mov	 eax, DWORD PTR _pImage$GSCopy$[ebp]
  00477	89 86 7c 01 00
	00		 mov	 DWORD PTR [esi+380], eax

; 1400 : 	}
; 1401 : 	else

  0047d	eb 0f		 jmp	 SHORT $LN1@AddRenderI@4
$LN3@AddRenderI@4:

; 1402 : 	{
; 1403 : 		ioWnd::AddRenderImage( szType, pImage );

  0047f	ff 75 d8	 push	 DWORD PTR _pImage$GSCopy$[ebp]
  00482	8b 4d dc	 mov	 ecx, DWORD PTR _this$GSCopy$[ebp]
  00485	ff 75 e0	 push	 DWORD PTR _szType$GSCopy$[ebp]
  00488	ff 15 00 00 00
	00		 call	 DWORD PTR __imp_?AddRenderImage@ioWnd@@UAEXABVioHashString@@PAVioUIRenderImage@@@Z
$LN1@AddRenderI@4:

; 1404 : 	}
; 1405 : }

  0048e	8b 4d fc	 mov	 ecx, DWORD PTR __$ArrayPad$[ebp]
  00491	5f		 pop	 edi
  00492	5e		 pop	 esi
  00493	33 cd		 xor	 ecx, ebp
  00495	5b		 pop	 ebx
  00496	e8 00 00 00 00	 call	 @__security_check_cookie@4
  0049b	c9		 leave
  0049c	c2 08 00	 ret	 8
?AddRenderImage@HelpWnd@@UAEXABVioHashString@@PAVioUIRenderImage@@@Z ENDP ; HelpWnd::AddRenderImage
_TEXT	ENDS
PUBLIC	?IsNormale@HelpWnd@@QAE_NXZ			; HelpWnd::IsNormale
; Function compile flags: /Ogsp
;	COMDAT ?IsNormale@HelpWnd@@QAE_NXZ
_TEXT	SEGMENT
_value$570112 = -4					; size = 4
_value$570100 = -4					; size = 4
?IsNormale@HelpWnd@@QAE_NXZ PROC			; HelpWnd::IsNormale, COMDAT
; _this$ = ecx

; 2797 : {

  00000	55		 push	 ebp
  00001	8b ec		 mov	 ebp, esp
  00003	51		 push	 ecx

; 2798 : 	if( !m_pPlayStage ) return false;

  00004	8b 89 80 01 00
	00		 mov	 ecx, DWORD PTR [ecx+384]
  0000a	85 c9		 test	 ecx, ecx
  0000c	75 04		 jne	 SHORT $LN2@IsNormale
$LN15@IsNormale:
  0000e	32 c0		 xor	 al, al

; 2804 : }

  00010	c9		 leave
  00011	c3		 ret	 0
$LN2@IsNormale:

; 2799 : 
; 2800 : 	ioBaseChar *pOwnerChar = m_pPlayStage->GetOwnerChar();

  00012	e8 00 00 00 00	 call	 ?GetOwnerChar@ioPlayStage@@QAEPAVioBaseChar@@XZ ; ioPlayStage::GetOwnerChar

; 2801 : 	if( !pOwnerChar ) return false;

  00017	85 c0		 test	 eax, eax
  00019	74 f3		 je	 SHORT $LN15@IsNormale

; 2802 : 	// , ->   "" 
; 2803 : 	return ( CMS_CHANGE_CHAT == pOwnerChar->GetChatModeState() || pOwnerChar->GetChatModeState() == CMS_NONE );

  0001b	56		 push	 esi
  0001c	8d b0 60 1d 00
	00		 lea	 esi, DWORD PTR [eax+7520]
  00022	8d 45 fc	 lea	 eax, DWORD PTR _value$570100[ebp]
  00025	50		 push	 eax
  00026	8b ce		 mov	 ecx, esi
  00028	e8 00 00 00 00	 call	 ?DecryptValueToPool@?$CEncrypt@W4ChatModeState@@@@QAEXPAW4ChatModeState@@@Z ; CEncrypt<enum ChatModeState>::DecryptValueToPool
  0002d	83 7d fc 01	 cmp	 DWORD PTR _value$570100[ebp], 1
  00031	74 15		 je	 SHORT $LN5@IsNormale
  00033	8d 45 fc	 lea	 eax, DWORD PTR _value$570112[ebp]
  00036	50		 push	 eax
  00037	8b ce		 mov	 ecx, esi
  00039	e8 00 00 00 00	 call	 ?DecryptValueToPool@?$CEncrypt@W4ChatModeState@@@@QAEXPAW4ChatModeState@@@Z ; CEncrypt<enum ChatModeState>::DecryptValueToPool
  0003e	83 7d fc 00	 cmp	 DWORD PTR _value$570112[ebp], 0
  00042	74 04		 je	 SHORT $LN5@IsNormale
  00044	33 c0		 xor	 eax, eax
  00046	eb 03		 jmp	 SHORT $LN6@IsNormale
$LN5@IsNormale:
  00048	33 c0		 xor	 eax, eax
  0004a	40		 inc	 eax
$LN6@IsNormale:
  0004b	5e		 pop	 esi

; 2804 : }

  0004c	c9		 leave
  0004d	c3		 ret	 0
?IsNormale@HelpWnd@@QAE_NXZ ENDP			; HelpWnd::IsNormale
_TEXT	ENDS
PUBLIC	??0?$vector@PAVMenuBase@@V?$allocator@PAVMenuBase@@@std@@@std@@QAE@XZ ; std::vector<MenuBase *,std::allocator<MenuBase *> >::vector<MenuBase *,std::allocator<MenuBase *> >
; Function compile flags: /Ogsp
; File c:\program files (x86)\microsoft visual studio 10.0\vc\include\vector
;	COMDAT ??0?$vector@PAVMenuBase@@V?$allocator@PAVMenuBase@@@std@@@std@@QAE@XZ
_TEXT	SEGMENT
??0?$vector@PAVMenuBase@@V?$allocator@PAVMenuBase@@@std@@@std@@QAE@XZ PROC ; std::vector<MenuBase *,std::allocator<MenuBase *> >::vector<MenuBase *,std::allocator<MenuBase *> >, COMDAT
; _this$ = ecx

; 507  : 		{	// construct empty vector

  00000	8b c1		 mov	 eax, ecx
  00002	33 c9		 xor	 ecx, ecx
  00004	89 08		 mov	 DWORD PTR [eax], ecx
  00006	89 48 04	 mov	 DWORD PTR [eax+4], ecx
  00009	89 48 08	 mov	 DWORD PTR [eax+8], ecx

; 508  : 		}

  0000c	c3		 ret	 0
??0?$vector@PAVMenuBase@@V?$allocator@PAVMenuBase@@@std@@@std@@QAE@XZ ENDP ; std::vector<MenuBase *,std::allocator<MenuBase *> >::vector<MenuBase *,std::allocator<MenuBase *> >
_TEXT	ENDS
PUBLIC	?_Destroy@?$vector@PAVMenuBase@@V?$allocator@PAVMenuBase@@@std@@@std@@IAEXPAPAVMenuBase@@0@Z ; std::vector<MenuBase *,std::allocator<MenuBase *> >::_Destroy
; Function compile flags: /Ogsp
;	COMDAT ?_Destroy@?$vector@PAVMenuBase@@V?$allocator@PAVMenuBase@@@std@@@std@@IAEXPAPAVMenuBase@@0@Z
_TEXT	SEGMENT
__First$ = 8						; size = 4
__Last$ = 12						; size = 4
?_Destroy@?$vector@PAVMenuBase@@V?$allocator@PAVMenuBase@@@std@@@std@@IAEXPAPAVMenuBase@@0@Z PROC ; std::vector<MenuBase *,std::allocator<MenuBase *> >::_Destroy, COMDAT
; _this$ = ecx

; 1270 : 		_Destroy_range(_First, _Last, this->_Alval);
; 1271 : 		}

  00000	c2 08 00	 ret	 8
?_Destroy@?$vector@PAVMenuBase@@V?$allocator@PAVMenuBase@@@std@@@std@@IAEXPAPAVMenuBase@@0@Z ENDP ; std::vector<MenuBase *,std::allocator<MenuBase *> >::_Destroy
_TEXT	ENDS
PUBLIC	??$_Cons_val@V?$allocator@PAVMenuBase@@@std@@PAVMenuBase@@ABQAV3@@std@@YAXAAV?$allocator@PAVMenuBase@@@0@PAPAVMenuBase@@ABQAV2@@Z ; std::_Cons_val<std::allocator<MenuBase *>,MenuBase *,MenuBase * const &>
; Function compile flags: /Ogsp
; File c:\program files (x86)\microsoft visual studio 10.0\vc\include\xmemory
;	COMDAT ??$_Cons_val@V?$allocator@PAVMenuBase@@@std@@PAVMenuBase@@ABQAV3@@std@@YAXAAV?$allocator@PAVMenuBase@@@0@PAPAVMenuBase@@ABQAV2@@Z
_TEXT	SEGMENT
__Alval$ = 8						; size = 4
__Pdest$ = 12						; size = 4
__Src$ = 16						; size = 4
??$_Cons_val@V?$allocator@PAVMenuBase@@@std@@PAVMenuBase@@ABQAV3@@std@@YAXAAV?$allocator@PAVMenuBase@@@0@PAPAVMenuBase@@ABQAV2@@Z PROC ; std::_Cons_val<std::allocator<MenuBase *>,MenuBase *,MenuBase * const &>, COMDAT

; 279  : 	{	// construct using allocator

  00000	55		 push	 ebp
  00001	8b ec		 mov	 ebp, esp

; 280  : 	_Alval.construct(_Pdest, _STD forward<_Ty2>(_Src));

  00003	8b 45 0c	 mov	 eax, DWORD PTR __Pdest$[ebp]
  00006	85 c0		 test	 eax, eax
  00008	74 07		 je	 SHORT $LN9@Cons_val@2
  0000a	8b 4d 10	 mov	 ecx, DWORD PTR __Src$[ebp]
  0000d	8b 09		 mov	 ecx, DWORD PTR [ecx]
  0000f	89 08		 mov	 DWORD PTR [eax], ecx
$LN9@Cons_val@2:

; 281  : 	}

  00011	5d		 pop	 ebp
  00012	c3		 ret	 0
??$_Cons_val@V?$allocator@PAVMenuBase@@@std@@PAVMenuBase@@ABQAV3@@std@@YAXAAV?$allocator@PAVMenuBase@@@0@PAPAVMenuBase@@ABQAV2@@Z ENDP ; std::_Cons_val<std::allocator<MenuBase *>,MenuBase *,MenuBase * const &>
_TEXT	ENDS
PUBLIC	??$_Umove@PAPAVMenuBase@@@?$vector@PAVMenuBase@@V?$allocator@PAVMenuBase@@@std@@@std@@IAEPAPAVMenuBase@@PAPAV2@00@Z ; std::vector<MenuBase *,std::allocator<MenuBase *> >::_Umove<MenuBase * *>
; Function compile flags: /Ogsp
; File c:\program files (x86)\microsoft visual studio 10.0\vc\include\vector
;	COMDAT ??$_Umove@PAPAVMenuBase@@@?$vector@PAVMenuBase@@V?$allocator@PAVMenuBase@@@std@@@std@@IAEPAPAVMenuBase@@PAPAV2@00@Z
_TEXT	SEGMENT
__First$ = 8						; size = 4
__Last$ = 12						; size = 4
__Ptr$ = 16						; size = 4
??$_Umove@PAPAVMenuBase@@@?$vector@PAVMenuBase@@V?$allocator@PAVMenuBase@@@std@@@std@@IAEPAPAVMenuBase@@PAPAV2@00@Z PROC ; std::vector<MenuBase *,std::allocator<MenuBase *> >::_Umove<MenuBase * *>, COMDAT
; _this$ = ecx

; 1322 : 		pointer _Umove(_Iter _First, _Iter _Last, pointer _Ptr)

  00000	55		 push	 ebp
  00001	8b ec		 mov	 ebp, esp

; 1323 : 		{	// move initializing [_First, _Last), using allocator
; 1324 : 		return (_Uninitialized_move(_First, _Last,
; 1325 : 			_Ptr, this->_Alval));

  00003	83 c1 0c	 add	 ecx, 12			; 0000000cH
  00006	51		 push	 ecx
  00007	ff 75 10	 push	 DWORD PTR __Ptr$[ebp]
  0000a	ff 75 0c	 push	 DWORD PTR __Last$[ebp]
  0000d	ff 75 08	 push	 DWORD PTR __First$[ebp]
  00010	e8 00 00 00 00	 call	 ??$_Uninitialized_move@PAPAVMenuBase@@PAPAV1@V?$allocator@PAVMenuBase@@@std@@@std@@YAPAPAVMenuBase@@PAPAV1@00AAV?$allocator@PAVMenuBase@@@0@@Z ; std::_Uninitialized_move<MenuBase * *,MenuBase * *,std::allocator<MenuBase *> >
  00015	83 c4 10	 add	 esp, 16			; 00000010H

; 1326 : 		}

  00018	5d		 pop	 ebp
  00019	c2 0c 00	 ret	 12			; 0000000cH
??$_Umove@PAPAVMenuBase@@@?$vector@PAVMenuBase@@V?$allocator@PAVMenuBase@@@std@@@std@@IAEPAPAVMenuBase@@PAPAV2@00@Z ENDP ; std::vector<MenuBase *,std::allocator<MenuBase *> >::_Umove<MenuBase * *>
_TEXT	ENDS
PUBLIC	?GetLobbyLockType@ioMyInfo@@QAEKXZ		; ioMyInfo::GetLobbyLockType
; Function compile flags: /Ogsp
; File d:\lost saga for developer\youtube\tutorial\source\src\lsclient\iomyinfo.h
;	COMDAT ?GetLobbyLockType@ioMyInfo@@QAEKXZ
_TEXT	SEGMENT
_value$570200 = -4					; size = 4
?GetLobbyLockType@ioMyInfo@@QAEKXZ PROC			; ioMyInfo::GetLobbyLockType, COMDAT
; _this$ = ecx

; 1037 : 	DWORD GetLobbyLockType(){ return m_dwLobbyLockType; }

  00000	55		 push	 ebp
  00001	8b ec		 mov	 ebp, esp
  00003	51		 push	 ecx
  00004	8d 45 fc	 lea	 eax, DWORD PTR _value$570200[ebp]
  00007	50		 push	 eax
  00008	81 c1 ac 09 00
	00		 add	 ecx, 2476		; 000009acH
  0000e	e8 00 00 00 00	 call	 ?DecryptValueToPool@?$CEncrypt@K@@QAEXPAK@Z ; CEncrypt<unsigned long>::DecryptValueToPool
  00013	8b 45 fc	 mov	 eax, DWORD PTR _value$570200[ebp]
  00016	c9		 leave
  00017	c3		 ret	 0
?GetLobbyLockType@ioMyInfo@@QAEKXZ ENDP			; ioMyInfo::GetLobbyLockType
_TEXT	ENDS
PUBLIC	?GetModeType@ioPlayMode@@SA?AW4ModeType@@XZ	; ioPlayMode::GetModeType
EXTRN	?m_ModeType@ioPlayMode@@1V?$CEncrypt@W4ModeType@@@@A:BYTE ; ioPlayMode::m_ModeType
; Function compile flags: /Ogsp
; File d:\lost saga for developer\youtube\tutorial\source\src\lsclient\ioplaymode.h
;	COMDAT ?GetModeType@ioPlayMode@@SA?AW4ModeType@@XZ
_TEXT	SEGMENT
?GetModeType@ioPlayMode@@SA?AW4ModeType@@XZ PROC	; ioPlayMode::GetModeType, COMDAT

; 782  : 	static ModeType GetModeType() { return m_ModeType; }

  00000	6a 04		 push	 4
  00002	68 28 00 00 00	 push	 OFFSET ?m_ModeType@ioPlayMode@@1V?$CEncrypt@W4ModeType@@@@A+40
  00007	68 1c 00 00 00	 push	 OFFSET ?m_ModeType@ioPlayMode@@1V?$CEncrypt@W4ModeType@@@@A+28
  0000c	b9 0c 00 00 00	 mov	 ecx, OFFSET ?m_ModeType@ioPlayMode@@1V?$CEncrypt@W4ModeType@@@@A+12
  00011	e8 00 00 00 00	 call	 ?DecryptByte@ccddaabb@@QBEXPBDPADH@Z ; ccddaabb::DecryptByte
  00016	a1 28 00 00 00	 mov	 eax, DWORD PTR ?m_ModeType@ioPlayMode@@1V?$CEncrypt@W4ModeType@@@@A+40
  0001b	c3		 ret	 0
?GetModeType@ioPlayMode@@SA?AW4ModeType@@XZ ENDP	; ioPlayMode::GetModeType
_TEXT	ENDS
PUBLIC	??_R0?AVioPlayMode@@@8				; ioPlayMode `RTTI Type Descriptor'
PUBLIC	??_R0?AVioHeadquartersMode@@@8			; ioHeadquartersMode `RTTI Type Descriptor'
PUBLIC	?ToHeadquartersMode@@YAPAVioHeadquartersMode@@PAVioPlayMode@@@Z ; ToHeadquartersMode
;	COMDAT ??_R0?AVioPlayMode@@@8
; File d:\lost saga for developer\youtube\tutorial\source\src\lsclient\ioheadquartersmode.h
_DATA	SEGMENT
??_R0?AVioPlayMode@@@8 DD FLAT:??_7type_info@@6B@	; ioPlayMode `RTTI Type Descriptor'
	DD	00H
	DB	'.?AVioPlayMode@@', 00H
_DATA	ENDS
;	COMDAT ??_R0?AVioHeadquartersMode@@@8
_DATA	SEGMENT
??_R0?AVioHeadquartersMode@@@8 DD FLAT:??_7type_info@@6B@ ; ioHeadquartersMode `RTTI Type Descriptor'
	DD	00H
	DB	'.?AVioHeadquartersMode@@', 00H
; Function compile flags: /Ogsp
_DATA	ENDS
;	COMDAT ?ToHeadquartersMode@@YAPAVioHeadquartersMode@@PAVioPlayMode@@@Z
_TEXT	SEGMENT
_pMode$ = 8						; size = 4
?ToHeadquartersMode@@YAPAVioHeadquartersMode@@PAVioPlayMode@@@Z PROC ; ToHeadquartersMode, COMDAT

; 234  : {

  00000	55		 push	 ebp
  00001	8b ec		 mov	 ebp, esp

; 235  : 	if( !pMode || pMode->GetModeType() != MT_HEADQUARTERS )

  00003	83 7d 08 00	 cmp	 DWORD PTR _pMode$[ebp], 0
  00007	74 25		 je	 SHORT $LN1@ToHeadquar
  00009	e8 00 00 00 00	 call	 ?GetModeType@ioPlayMode@@SA?AW4ModeType@@XZ ; ioPlayMode::GetModeType
  0000e	83 f8 0d	 cmp	 eax, 13			; 0000000dH
  00011	75 1b		 jne	 SHORT $LN1@ToHeadquar

; 237  : 
; 238  : 	return dynamic_cast< ioHeadquartersMode* >( pMode );

  00013	6a 00		 push	 0
  00015	68 00 00 00 00	 push	 OFFSET ??_R0?AVioHeadquartersMode@@@8
  0001a	68 00 00 00 00	 push	 OFFSET ??_R0?AVioPlayMode@@@8
  0001f	6a 00		 push	 0
  00021	ff 75 08	 push	 DWORD PTR _pMode$[ebp]
  00024	e8 00 00 00 00	 call	 ___RTDynamicCast
  00029	83 c4 14	 add	 esp, 20			; 00000014H

; 239  : }

  0002c	5d		 pop	 ebp
  0002d	c3		 ret	 0
$LN1@ToHeadquar:

; 236  : 		return NULL;

  0002e	33 c0		 xor	 eax, eax

; 239  : }

  00030	5d		 pop	 ebp
  00031	c3		 ret	 0
?ToHeadquartersMode@@YAPAVioHeadquartersMode@@PAVioPlayMode@@@Z ENDP ; ToHeadquartersMode
_TEXT	ENDS
PUBLIC	__real@402a000000000000
PUBLIC	__real@3f000000
PUBLIC	__real@403d000000000000
PUBLIC	__real@4037000000000000
PUBLIC	__real@3f266666
PUBLIC	??_C@_0BC@DNBGBDGO@MenuBtn?3?3OnRender?$AA@	; `string'
EXTRN	?GetCurrentPetKey@ioKeyManager@@QAEGXZ:PROC	; ioKeyManager::GetCurrentPetKey
EXTRN	__imp_?PrintText@ioFontManager@@QAEXMMMPBD0@Z:PROC
EXTRN	?GetCurrentQuestKey@ioKeyManager@@QAEGXZ:PROC	; ioKeyManager::GetCurrentQuestKey
EXTRN	?GetCurrentPresentKey@ioKeyManager@@QAEGXZ:PROC	; ioKeyManager::GetCurrentPresentKey
EXTRN	?GetCurrentGrowthKey@ioKeyManager@@QAEGXZ:PROC	; ioKeyManager::GetCurrentGrowthKey
EXTRN	?GetKeyText@ioKeyManager@@QAEPBDG@Z:PROC	; ioKeyManager::GetKeyText
EXTRN	?GetCurrentShopKey@ioKeyManager@@QAEGXZ:PROC	; ioKeyManager::GetCurrentShopKey
EXTRN	?GetSingleton@ioKeyManager@@SAAAV1@XZ:PROC	; ioKeyManager::GetSingleton
EXTRN	__imp_?PrintText@ioFontManager@@QAAXMMMPBDZZ:PROC
EXTRN	__imp_?SetTextColor@ioFontManager@@QAEXK@Z:PROC
EXTRN	__imp_?SetBkColor@ioFontManager@@QAEXHHH@Z:PROC
EXTRN	__imp_?SetTextStyle@ioFontManager@@QAEXW4TextStyle@@@Z:PROC
EXTRN	__imp_?SetAlignType@ioFontManager@@QAEXW4TextAlignType@@@Z:PROC
EXTRN	__imp_?GetSingleton@ioFontManager@@SAAAV1@XZ:PROC
EXTRN	__imp_?GetParent@ioWnd@@QAEPAV1@XZ:PROC
;	COMDAT __real@402a000000000000
; File d:\lost saga for developer\youtube\tutorial\source\src\lsclient\gui\helpwnd.cpp
CONST	SEGMENT
__real@402a000000000000 DQ 0402a000000000000r	; 13
CONST	ENDS
;	COMDAT __real@3f000000
CONST	SEGMENT
__real@3f000000 DD 03f000000r			; 0.5
CONST	ENDS
;	COMDAT __real@403d000000000000
CONST	SEGMENT
__real@403d000000000000 DQ 0403d000000000000r	; 29
CONST	ENDS
;	COMDAT __real@4037000000000000
CONST	SEGMENT
__real@4037000000000000 DQ 04037000000000000r	; 23
CONST	ENDS
;	COMDAT __real@3f266666
CONST	SEGMENT
__real@3f266666 DD 03f266666r			; 0.65
CONST	ENDS
;	COMDAT ??_C@_0BC@DNBGBDGO@MenuBtn?3?3OnRender?$AA@
CONST	SEGMENT
??_C@_0BC@DNBGBDGO@MenuBtn?3?3OnRender?$AA@ DB 'MenuBtn::OnRender', 00H ; `string'
; Function compile flags: /Ogsp
CONST	ENDS
;	COMDAT ?OnRender@MenuBtn@@MAEXXZ
_TEXT	SEGMENT
_i$557474 = -12						; size = 4
_this$ = -12						; size = 4
_fXPos$ = -8						; size = 4
_fYPos$ = -4						; size = 4
?OnRender@MenuBtn@@MAEXXZ PROC				; MenuBtn::OnRender, COMDAT
; _this$ = ecx

; 543  : {

  00000	55		 push	 ebp
  00001	8b ec		 mov	 ebp, esp
  00003	83 ec 0c	 sub	 esp, 12			; 0000000cH
  00006	56		 push	 esi
  00007	8b f1		 mov	 esi, ecx
  00009	89 75 f4	 mov	 DWORD PTR _this$[ebp], esi

; 544  : 	float fXPos, fYPos;
; 545  : 	fXPos = GetDerivedPosX();

  0000c	ff 15 00 00 00
	00		 call	 DWORD PTR __imp_?GetDerivedPosX@ioWnd@@QBEHXZ
  00012	0f 57 c0	 xorps	 xmm0, xmm0
  00015	f3 0f 2a c0	 cvtsi2ss xmm0, eax

; 546  : 	fYPos = GetDerivedPosY();

  00019	8b ce		 mov	 ecx, esi
  0001b	f3 0f 11 45 f8	 movss	 DWORD PTR _fXPos$[ebp], xmm0
  00020	ff 15 00 00 00
	00		 call	 DWORD PTR __imp_?GetDerivedPosY@ioWnd@@QBEHXZ
  00026	0f 57 c0	 xorps	 xmm0, xmm0
  00029	f3 0f 2a c0	 cvtsi2ss xmm0, eax

; 547  : 
; 548  : 	MenuBase::OnRender();

  0002d	8b ce		 mov	 ecx, esi
  0002f	f3 0f 11 45 fc	 movss	 DWORD PTR _fYPos$[ebp], xmm0
  00034	ff 15 00 00 00
	00		 call	 DWORD PTR __imp_?OnRender@ioButton@@MAEXXZ

; 549  : 	
; 550  : 	switch( GetID() )

  0003a	8b ce		 mov	 ecx, esi
  0003c	ff 15 00 00 00
	00		 call	 DWORD PTR __imp_?GetID@ioWnd@@QBEKXZ
  00042	83 c0 fc	 add	 eax, -4			; fffffffcH
  00045	83 f8 0c	 cmp	 eax, 12			; 0000000cH
  00048	0f 87 af 08 00
	00		 ja	 $LN64@OnRender@3
  0004e	53		 push	 ebx
  0004f	57		 push	 edi
  00050	ff 24 85 00 00
	00 00		 jmp	 DWORD PTR $LN83@OnRender@3[eax*4]
$LN62@OnRender@3:

; 551  : 	{
; 552  : 	case HelpWnd::ID_DISPLAY:
; 553  : 	case HelpWnd::ID_ROLLBOOK:
; 554  : 		break;
; 555  : 	case HelpWnd::ID_PRACTICE:
; 556  : 		{
; 557  : 			if( !IsDisabled() && !IsExDisabled() )

  00057	8b ce		 mov	 ecx, esi
  00059	ff 15 00 00 00
	00		 call	 DWORD PTR __imp_?IsDisabled@ioButton@@QBE_NXZ
  0005f	84 c0		 test	 al, al
  00061	0f 85 94 08 00
	00		 jne	 $LN70@OnRender@3
  00067	8b ce		 mov	 ecx, esi
  00069	ff 15 00 00 00
	00		 call	 DWORD PTR __imp_?IsExDisabled@ioButton@@QBE_NXZ
  0006f	84 c0		 test	 al, al
  00071	0f 85 84 08 00
	00		 jne	 $LN70@OnRender@3

; 558  : 			{
; 559  : 				HelpWnd *pParent = dynamic_cast<HelpWnd*>( GetParent() );

  00077	33 db		 xor	 ebx, ebx
  00079	53		 push	 ebx
  0007a	68 00 00 00 00	 push	 OFFSET ??_R0?AVHelpWnd@@@8
  0007f	68 00 00 00 00	 push	 OFFSET ??_R0?AVioWnd@@@8
  00084	53		 push	 ebx
  00085	8b ce		 mov	 ecx, esi
  00087	ff 15 00 00 00
	00		 call	 DWORD PTR __imp_?GetParent@ioWnd@@QAEPAV1@XZ
  0008d	50		 push	 eax
  0008e	e8 00 00 00 00	 call	 ___RTDynamicCast
  00093	83 c4 14	 add	 esp, 20			; 00000014H

; 560  : 				//UJ 130902, : IsPractice()  
; 561  : 				if( pParent && pParent->IsPractice() && m_pBtnIconEnd )

  00096	3b c3		 cmp	 eax, ebx
  00098	0f 84 19 01 00
	00		 je	 $LN40@OnRender@3
  0009e	8b c8		 mov	 ecx, eax
  000a0	e8 00 00 00 00	 call	 ?IsPractice@HelpWnd@@QAE_NXZ ; HelpWnd::IsPractice

; 562  : 					m_pBtnIconEnd->Render( fXPos, fYPos );

  000a5	e9 f9 00 00 00	 jmp	 $LN82@OnRender@3
$LN57@OnRender@3:

; 563  : 				else if( m_pBtnIconStart )
; 564  : 					m_pBtnIconStart->Render( fXPos, fYPos );
; 565  : 			}
; 566  : 		}
; 567  : 		break;
; 568  : 	case HelpWnd::ID_FISHING:
; 569  : 		{
; 570  : 			if( !IsDisabled() )

  000aa	8b ce		 mov	 ecx, esi
  000ac	ff 15 00 00 00
	00		 call	 DWORD PTR __imp_?IsDisabled@ioButton@@QBE_NXZ
  000b2	84 c0		 test	 al, al
  000b4	0f 85 41 08 00
	00		 jne	 $LN70@OnRender@3

; 571  : 			{
; 572  : 				HelpWnd *pParent = dynamic_cast<HelpWnd*>( GetParent() );

  000ba	33 db		 xor	 ebx, ebx
  000bc	53		 push	 ebx
  000bd	68 00 00 00 00	 push	 OFFSET ??_R0?AVHelpWnd@@@8
  000c2	68 00 00 00 00	 push	 OFFSET ??_R0?AVioWnd@@@8
  000c7	53		 push	 ebx
  000c8	8b ce		 mov	 ecx, esi
  000ca	ff 15 00 00 00
	00		 call	 DWORD PTR __imp_?GetParent@ioWnd@@QAEPAV1@XZ
  000d0	50		 push	 eax
  000d1	e8 00 00 00 00	 call	 ___RTDynamicCast
  000d6	83 c4 14	 add	 esp, 20			; 00000014H

; 573  : 				if( pParent && pParent->IsFishing() && m_pBtnIconEnd )

  000d9	3b c3		 cmp	 eax, ebx
  000db	0f 84 d6 00 00
	00		 je	 $LN40@OnRender@3
  000e1	8b c8		 mov	 ecx, eax
  000e3	e8 00 00 00 00	 call	 ?IsFishing@HelpWnd@@QAE_NXZ ; HelpWnd::IsFishing

; 574  : 					m_pBtnIconEnd->Render( fXPos, fYPos );

  000e8	e9 b6 00 00 00	 jmp	 $LN82@OnRender@3
$LN52@OnRender@3:

; 575  : 				else if( m_pBtnIconStart )
; 576  : 					m_pBtnIconStart->Render( fXPos, fYPos );
; 577  : 			}
; 578  : 		}
; 579  : 		break;
; 580  : 	case HelpWnd::ID_EXCAVATION:
; 581  : 		{
; 582  : 			if( !IsDisabled() )

  000ed	8b ce		 mov	 ecx, esi
  000ef	ff 15 00 00 00
	00		 call	 DWORD PTR __imp_?IsDisabled@ioButton@@QBE_NXZ
  000f5	84 c0		 test	 al, al
  000f7	0f 85 fe 07 00
	00		 jne	 $LN70@OnRender@3

; 583  : 			{
; 584  : 				HelpWnd *pParent = dynamic_cast<HelpWnd*>( GetParent() );

  000fd	33 db		 xor	 ebx, ebx
  000ff	53		 push	 ebx
  00100	68 00 00 00 00	 push	 OFFSET ??_R0?AVHelpWnd@@@8
  00105	68 00 00 00 00	 push	 OFFSET ??_R0?AVioWnd@@@8
  0010a	53		 push	 ebx
  0010b	8b ce		 mov	 ecx, esi
  0010d	ff 15 00 00 00
	00		 call	 DWORD PTR __imp_?GetParent@ioWnd@@QAEPAV1@XZ
  00113	50		 push	 eax
  00114	e8 00 00 00 00	 call	 ___RTDynamicCast
  00119	83 c4 14	 add	 esp, 20			; 00000014H

; 585  : 				if( pParent && pParent->IsExcavation() && m_pBtnIconEnd )

  0011c	3b c3		 cmp	 eax, ebx
  0011e	0f 84 93 00 00
	00		 je	 $LN40@OnRender@3
  00124	8b c8		 mov	 ecx, eax
  00126	e8 00 00 00 00	 call	 ?IsExcavation@HelpWnd@@QAE_NXZ ; HelpWnd::IsExcavation

; 586  : 					m_pBtnIconEnd->Render( fXPos, fYPos );

  0012b	eb 76		 jmp	 SHORT $LN82@OnRender@3
$LN47@OnRender@3:

; 587  : 				else if( m_pBtnIconStart )
; 588  : 					m_pBtnIconStart->Render( fXPos, fYPos );
; 589  : 			}
; 590  : 		}
; 591  : 		break;
; 592  : 	case HelpWnd::ID_PLAZA_STATE:
; 593  : 		if( !IsDisabled() )

  0012d	8b ce		 mov	 ecx, esi
  0012f	ff 15 00 00 00
	00		 call	 DWORD PTR __imp_?IsDisabled@ioButton@@QBE_NXZ
  00135	84 c0		 test	 al, al
  00137	0f 85 be 07 00
	00		 jne	 $LN70@OnRender@3

; 594  : 		{
; 595  : 			HelpWnd *pParent = dynamic_cast<HelpWnd*>( GetParent() );

  0013d	33 db		 xor	 ebx, ebx
  0013f	53		 push	 ebx
  00140	68 00 00 00 00	 push	 OFFSET ??_R0?AVHelpWnd@@@8
  00145	68 00 00 00 00	 push	 OFFSET ??_R0?AVioWnd@@@8
  0014a	53		 push	 ebx
  0014b	8b ce		 mov	 ecx, esi
  0014d	ff 15 00 00 00
	00		 call	 DWORD PTR __imp_?GetParent@ioWnd@@QAEPAV1@XZ
  00153	50		 push	 eax
  00154	e8 00 00 00 00	 call	 ___RTDynamicCast
  00159	83 c4 14	 add	 esp, 20			; 00000014H

; 596  : 			if( pParent && pParent->IsNormale() && m_pBtnIconEnd )

  0015c	3b c3		 cmp	 eax, ebx
  0015e	74 57		 je	 SHORT $LN40@OnRender@3
  00160	8b c8		 mov	 ecx, eax
  00162	e8 00 00 00 00	 call	 ?IsNormale@HelpWnd@@QAE_NXZ ; HelpWnd::IsNormale

; 597  : 				m_pBtnIconEnd->Render( fXPos, fYPos );

  00167	eb 3a		 jmp	 SHORT $LN82@OnRender@3
$LN42@OnRender@3:

; 598  : 			else if( m_pBtnIconStart )
; 599  : 				m_pBtnIconStart->Render( fXPos, fYPos );
; 600  : 		}
; 601  : 		break;
; 602  : 	case HelpWnd::ID_HOUSING_SETUP:
; 603  : 		{
; 604  : 			if( !IsDisabled() )

  00169	8b ce		 mov	 ecx, esi
  0016b	ff 15 00 00 00
	00		 call	 DWORD PTR __imp_?IsDisabled@ioButton@@QBE_NXZ
  00171	84 c0		 test	 al, al
  00173	0f 85 82 07 00
	00		 jne	 $LN70@OnRender@3

; 605  : 			{
; 606  : 				HelpWnd *pParent = dynamic_cast<HelpWnd*>( GetParent() );

  00179	33 db		 xor	 ebx, ebx
  0017b	53		 push	 ebx
  0017c	68 00 00 00 00	 push	 OFFSET ??_R0?AVHelpWnd@@@8
  00181	68 00 00 00 00	 push	 OFFSET ??_R0?AVioWnd@@@8
  00186	53		 push	 ebx
  00187	8b ce		 mov	 ecx, esi
  00189	ff 15 00 00 00
	00		 call	 DWORD PTR __imp_?GetParent@ioWnd@@QAEPAV1@XZ
  0018f	50		 push	 eax
  00190	e8 00 00 00 00	 call	 ___RTDynamicCast
  00195	83 c4 14	 add	 esp, 20			; 00000014H

; 607  : 				if( pParent && pParent->IsHousing() && m_pBtnIconEnd )

  00198	3b c3		 cmp	 eax, ebx
  0019a	74 1b		 je	 SHORT $LN40@OnRender@3
  0019c	8b c8		 mov	 ecx, eax
  0019e	e8 00 00 00 00	 call	 ?IsHousing@HelpWnd@@QAE_NXZ ; HelpWnd::IsHousing
$LN82@OnRender@3:
  001a3	84 c0		 test	 al, al
  001a5	74 10		 je	 SHORT $LN40@OnRender@3
  001a7	39 9e 50 02 00
	00		 cmp	 DWORD PTR [esi+592], ebx
  001ad	74 08		 je	 SHORT $LN40@OnRender@3

; 608  : 					m_pBtnIconEnd->Render( fXPos, fYPos );

  001af	8b 86 50 02 00
	00		 mov	 eax, DWORD PTR [esi+592]
  001b5	eb 12		 jmp	 SHORT $LN81@OnRender@3
$LN40@OnRender@3:

; 609  : 				else if( m_pBtnIconStart )

  001b7	39 9e 4c 02 00
	00		 cmp	 DWORD PTR [esi+588], ebx
  001bd	0f 84 38 07 00
	00		 je	 $LN70@OnRender@3

; 610  : 					m_pBtnIconStart->Render( fXPos, fYPos );

  001c3	8b 86 4c 02 00
	00		 mov	 eax, DWORD PTR [esi+588]
$LN81@OnRender@3:
  001c9	f3 0f 10 45 fc	 movss	 xmm0, DWORD PTR _fYPos$[ebp]
  001ce	8b 10		 mov	 edx, DWORD PTR [eax]
  001d0	53		 push	 ebx
  001d1	53		 push	 ebx
  001d2	53		 push	 ebx
  001d3	53		 push	 ebx
  001d4	51		 push	 ecx
  001d5	51		 push	 ecx
  001d6	f3 0f 11 44 24
	04		 movss	 DWORD PTR [esp+4], xmm0
  001dc	f3 0f 10 45 f8	 movss	 xmm0, DWORD PTR _fXPos$[ebp]
  001e1	8b c8		 mov	 ecx, eax
  001e3	f3 0f 11 04 24	 movss	 DWORD PTR [esp], xmm0
  001e8	ff 12		 call	 DWORD PTR [edx]

; 611  : 			}
; 612  : 		}
; 613  : 		break;

  001ea	e9 0c 07 00 00	 jmp	 $LN70@OnRender@3
$LN37@OnRender@3:

; 614  : 	case HelpWnd::ID_SHOP:
; 615  : 		{
; 616  : 			g_FontMgr.SetAlignType( TAT_LEFT );

  001ef	8b 3d 00 00 00
	00		 mov	 edi, DWORD PTR __imp_?GetSingleton@ioFontManager@@SAAAV1@XZ
  001f5	33 db		 xor	 ebx, ebx
  001f7	53		 push	 ebx
  001f8	ff d7		 call	 edi
  001fa	8b c8		 mov	 ecx, eax
  001fc	ff 15 00 00 00
	00		 call	 DWORD PTR __imp_?SetAlignType@ioFontManager@@QAEXW4TextAlignType@@@Z

; 617  : 			g_FontMgr.SetTextStyle( TS_OUTLINE_FULL_3X );

  00202	6a 06		 push	 6
  00204	ff d7		 call	 edi
  00206	8b c8		 mov	 ecx, eax
  00208	ff 15 00 00 00
	00		 call	 DWORD PTR __imp_?SetTextStyle@ioFontManager@@QAEXW4TextStyle@@@Z

; 618  : 			g_FontMgr.SetBkColor( 18, 48, 78 );

  0020e	6a 4e		 push	 78			; 0000004eH
  00210	6a 30		 push	 48			; 00000030H
  00212	6a 12		 push	 18			; 00000012H
  00214	ff d7		 call	 edi
  00216	8b c8		 mov	 ecx, eax
  00218	ff 15 00 00 00
	00		 call	 DWORD PTR __imp_?SetBkColor@ioFontManager@@QAEXHHH@Z

; 619  : 			
; 620  : 			if( IsDisabled() || IsExDisabled() )

  0021e	8b ce		 mov	 ecx, esi
  00220	ff 15 00 00 00
	00		 call	 DWORD PTR __imp_?IsDisabled@ioButton@@QBE_NXZ
  00226	84 c0		 test	 al, al
  00228	75 10		 jne	 SHORT $LN35@OnRender@3
  0022a	8b ce		 mov	 ecx, esi
  0022c	ff 15 00 00 00
	00		 call	 DWORD PTR __imp_?IsExDisabled@ioButton@@QBE_NXZ
  00232	84 c0		 test	 al, al
  00234	75 04		 jne	 SHORT $LN35@OnRender@3

; 622  : 			else
; 623  : 				g_FontMgr.SetTextColor( TCT_DEFAULT_WHITE );

  00236	6a ff		 push	 -1
  00238	eb 05		 jmp	 SHORT $LN72@OnRender@3
$LN35@OnRender@3:

; 621  :                 g_FontMgr.SetTextColor( TCT_DEFAULT_LIGHTGRAY );

  0023a	68 a7 a7 a7 ff	 push	 -5789785		; ffa7a7a7H
$LN72@OnRender@3:
  0023f	ff d7		 call	 edi
  00241	8b c8		 mov	 ecx, eax
  00243	ff 15 00 00 00
	00		 call	 DWORD PTR __imp_?SetTextColor@ioFontManager@@QAEXK@Z

; 624  : 
; 625  : 			g_FontMgr.PrintText( fXPos + 23, fYPos + 6, FONT_SIZE_13, STR(1) );

  00249	53		 push	 ebx
  0024a	6a 01		 push	 1
  0024c	bf 00 00 00 00	 mov	 edi, OFFSET ??_C@_00CNPNBAHC@?$AA@
  00251	57		 push	 edi
  00252	be 00 00 00 00	 mov	 esi, OFFSET ??_C@_0BC@DNBGBDGO@MenuBtn?3?3OnRender?$AA@
  00257	56		 push	 esi
  00258	ff 15 00 00 00
	00		 call	 DWORD PTR __imp_?GetSingleton@ioStringManager@@SAAAV1@XZ
  0025e	8b c8		 mov	 ecx, eax
  00260	ff 15 00 00 00
	00		 call	 DWORD PTR __imp_?GetString@ioStringManager@@QAEPADPBD0HW4FileNamePrefix@1@@Z
  00266	f3 0f 10 05 00
	00 00 00	 movss	 xmm0, DWORD PTR __real@3f266666
  0026e	50		 push	 eax
  0026f	83 ec 0c	 sub	 esp, 12			; 0000000cH
  00272	f3 0f 11 44 24
	08		 movss	 DWORD PTR [esp+8], xmm0
  00278	f3 0f 10 45 fc	 movss	 xmm0, DWORD PTR _fYPos$[ebp]
  0027d	0f 5a c0	 cvtps2pd xmm0, xmm0
  00280	f2 0f 58 05 00
	00 00 00	 addsd	 xmm0, QWORD PTR __real@4018000000000000
  00288	f2 0f 5a c0	 cvtsd2ss xmm0, xmm0
  0028c	f3 0f 11 44 24
	04		 movss	 DWORD PTR [esp+4], xmm0
  00292	f3 0f 10 45 f8	 movss	 xmm0, DWORD PTR _fXPos$[ebp]
  00297	0f 5a c0	 cvtps2pd xmm0, xmm0
  0029a	f2 0f 58 05 00
	00 00 00	 addsd	 xmm0, QWORD PTR __real@4037000000000000
  002a2	f2 0f 5a c0	 cvtsd2ss xmm0, xmm0
  002a6	f3 0f 11 04 24	 movss	 DWORD PTR [esp], xmm0
  002ab	ff 15 00 00 00
	00		 call	 DWORD PTR __imp_?GetSingleton@ioFontManager@@SAAAV1@XZ
  002b1	50		 push	 eax
  002b2	ff 15 00 00 00
	00		 call	 DWORD PTR __imp_?PrintText@ioFontManager@@QAAXMMMPBDZZ
  002b8	83 c4 14	 add	 esp, 20			; 00000014H

; 626  : 
; 627  : 			WORD wCustomKey = g_KeyManager.GetCurrentShopKey();

  002bb	e8 00 00 00 00	 call	 ?GetSingleton@ioKeyManager@@SAAAV1@XZ ; ioKeyManager::GetSingleton
  002c0	8b c8		 mov	 ecx, eax
  002c2	e8 00 00 00 00	 call	 ?GetCurrentShopKey@ioKeyManager@@QAEGXZ ; ioKeyManager::GetCurrentShopKey
  002c7	0f b7 c0	 movzx	 eax, ax

; 628  : 			if( wCustomKey != 0 )

  002ca	66 3b c3	 cmp	 ax, bx
  002cd	0f 84 28 06 00
	00		 je	 $LN70@OnRender@3

; 629  : 				g_FontMgr.PrintText( fXPos + 6, fYPos + 13, FONT_SIZE_10, STR(2), g_KeyManager.GetKeyText( wCustomKey ) );		

  002d3	50		 push	 eax
  002d4	e8 00 00 00 00	 call	 ?GetSingleton@ioKeyManager@@SAAAV1@XZ ; ioKeyManager::GetSingleton
  002d9	8b c8		 mov	 ecx, eax
  002db	e8 00 00 00 00	 call	 ?GetKeyText@ioKeyManager@@QAEPBDG@Z ; ioKeyManager::GetKeyText
  002e0	50		 push	 eax
  002e1	53		 push	 ebx
  002e2	6a 02		 push	 2

; 630  : 		}
; 631  : 		break;	

  002e4	e9 85 04 00 00	 jmp	 $LN80@OnRender@3
$LN32@OnRender@3:

; 632  : 	case HelpWnd::ID_MYITEM:
; 633  : 		{
; 634  : 			g_FontMgr.SetAlignType( TAT_LEFT );

  002e9	8b 3d 00 00 00
	00		 mov	 edi, DWORD PTR __imp_?GetSingleton@ioFontManager@@SAAAV1@XZ
  002ef	33 db		 xor	 ebx, ebx
  002f1	53		 push	 ebx
  002f2	ff d7		 call	 edi
  002f4	8b c8		 mov	 ecx, eax
  002f6	ff 15 00 00 00
	00		 call	 DWORD PTR __imp_?SetAlignType@ioFontManager@@QAEXW4TextAlignType@@@Z

; 635  : 			g_FontMgr.SetTextStyle( TS_OUTLINE_FULL_3X );

  002fc	6a 06		 push	 6
  002fe	ff d7		 call	 edi
  00300	8b c8		 mov	 ecx, eax
  00302	ff 15 00 00 00
	00		 call	 DWORD PTR __imp_?SetTextStyle@ioFontManager@@QAEXW4TextStyle@@@Z

; 636  : 			g_FontMgr.SetBkColor( 18, 48, 78 );

  00308	6a 4e		 push	 78			; 0000004eH
  0030a	6a 30		 push	 48			; 00000030H
  0030c	6a 12		 push	 18			; 00000012H
  0030e	ff d7		 call	 edi
  00310	8b c8		 mov	 ecx, eax
  00312	ff 15 00 00 00
	00		 call	 DWORD PTR __imp_?SetBkColor@ioFontManager@@QAEXHHH@Z

; 637  : 
; 638  : 			if( IsDisabled() || IsExDisabled() )

  00318	8b ce		 mov	 ecx, esi
  0031a	ff 15 00 00 00
	00		 call	 DWORD PTR __imp_?IsDisabled@ioButton@@QBE_NXZ
  00320	84 c0		 test	 al, al
  00322	75 10		 jne	 SHORT $LN30@OnRender@3
  00324	8b ce		 mov	 ecx, esi
  00326	ff 15 00 00 00
	00		 call	 DWORD PTR __imp_?IsExDisabled@ioButton@@QBE_NXZ
  0032c	84 c0		 test	 al, al
  0032e	75 04		 jne	 SHORT $LN30@OnRender@3

; 640  : 			else
; 641  : 				g_FontMgr.SetTextColor( TCT_DEFAULT_WHITE );

  00330	6a ff		 push	 -1
  00332	eb 05		 jmp	 SHORT $LN73@OnRender@3
$LN30@OnRender@3:

; 639  : 				g_FontMgr.SetTextColor( TCT_DEFAULT_LIGHTGRAY );

  00334	68 a7 a7 a7 ff	 push	 -5789785		; ffa7a7a7H
$LN73@OnRender@3:
  00339	ff d7		 call	 edi
  0033b	8b c8		 mov	 ecx, eax
  0033d	ff 15 00 00 00
	00		 call	 DWORD PTR __imp_?SetTextColor@ioFontManager@@QAEXK@Z

; 642  : 
; 643  : 			g_FontMgr.PrintText( fXPos + 23, fYPos + 6, FONT_SIZE_13, STR(7) );

  00343	53		 push	 ebx
  00344	6a 07		 push	 7
  00346	bf 00 00 00 00	 mov	 edi, OFFSET ??_C@_00CNPNBAHC@?$AA@
  0034b	57		 push	 edi
  0034c	be 00 00 00 00	 mov	 esi, OFFSET ??_C@_0BC@DNBGBDGO@MenuBtn?3?3OnRender?$AA@
  00351	56		 push	 esi
  00352	ff 15 00 00 00
	00		 call	 DWORD PTR __imp_?GetSingleton@ioStringManager@@SAAAV1@XZ
  00358	8b c8		 mov	 ecx, eax
  0035a	ff 15 00 00 00
	00		 call	 DWORD PTR __imp_?GetString@ioStringManager@@QAEPADPBD0HW4FileNamePrefix@1@@Z
  00360	f3 0f 10 05 00
	00 00 00	 movss	 xmm0, DWORD PTR __real@3f266666
  00368	50		 push	 eax
  00369	83 ec 0c	 sub	 esp, 12			; 0000000cH
  0036c	f3 0f 11 44 24
	08		 movss	 DWORD PTR [esp+8], xmm0
  00372	f3 0f 10 45 fc	 movss	 xmm0, DWORD PTR _fYPos$[ebp]
  00377	0f 5a c0	 cvtps2pd xmm0, xmm0
  0037a	f2 0f 58 05 00
	00 00 00	 addsd	 xmm0, QWORD PTR __real@4018000000000000
  00382	f2 0f 5a c0	 cvtsd2ss xmm0, xmm0
  00386	f3 0f 11 44 24
	04		 movss	 DWORD PTR [esp+4], xmm0
  0038c	f3 0f 10 45 f8	 movss	 xmm0, DWORD PTR _fXPos$[ebp]
  00391	0f 5a c0	 cvtps2pd xmm0, xmm0
  00394	f2 0f 58 05 00
	00 00 00	 addsd	 xmm0, QWORD PTR __real@4037000000000000
  0039c	f2 0f 5a c0	 cvtsd2ss xmm0, xmm0
  003a0	f3 0f 11 04 24	 movss	 DWORD PTR [esp], xmm0
  003a5	ff 15 00 00 00
	00		 call	 DWORD PTR __imp_?GetSingleton@ioFontManager@@SAAAV1@XZ
  003ab	50		 push	 eax
  003ac	ff 15 00 00 00
	00		 call	 DWORD PTR __imp_?PrintText@ioFontManager@@QAAXMMMPBDZZ
  003b2	83 c4 14	 add	 esp, 20			; 00000014H

; 644  : 
; 645  : 			WORD wCustomKey = g_KeyManager.GetCurrentGrowthKey();

  003b5	e8 00 00 00 00	 call	 ?GetSingleton@ioKeyManager@@SAAAV1@XZ ; ioKeyManager::GetSingleton
  003ba	8b c8		 mov	 ecx, eax
  003bc	e8 00 00 00 00	 call	 ?GetCurrentGrowthKey@ioKeyManager@@QAEGXZ ; ioKeyManager::GetCurrentGrowthKey
  003c1	0f b7 c0	 movzx	 eax, ax

; 646  : 			if( wCustomKey != 0 )

  003c4	66 3b c3	 cmp	 ax, bx
  003c7	0f 84 2e 05 00
	00		 je	 $LN70@OnRender@3

; 647  : 				g_FontMgr.PrintText( fXPos + 6, fYPos + 13, FONT_SIZE_10, STR(8), g_KeyManager.GetKeyText( wCustomKey ) );

  003cd	50		 push	 eax
  003ce	e8 00 00 00 00	 call	 ?GetSingleton@ioKeyManager@@SAAAV1@XZ ; ioKeyManager::GetSingleton
  003d3	8b c8		 mov	 ecx, eax
  003d5	e8 00 00 00 00	 call	 ?GetKeyText@ioKeyManager@@QAEPBDG@Z ; ioKeyManager::GetKeyText
  003da	50		 push	 eax
  003db	53		 push	 ebx
  003dc	6a 08		 push	 8

; 648  : 		}
; 649  : 		break;	

  003de	e9 8b 03 00 00	 jmp	 $LN80@OnRender@3
$LN27@OnRender@3:

; 650  : 	case HelpWnd::ID_PRESENT:
; 651  : 		{
; 652  : 			g_FontMgr.SetAlignType( TAT_LEFT );

  003e3	8b 3d 00 00 00
	00		 mov	 edi, DWORD PTR __imp_?GetSingleton@ioFontManager@@SAAAV1@XZ
  003e9	33 db		 xor	 ebx, ebx
  003eb	53		 push	 ebx
  003ec	ff d7		 call	 edi
  003ee	8b c8		 mov	 ecx, eax
  003f0	ff 15 00 00 00
	00		 call	 DWORD PTR __imp_?SetAlignType@ioFontManager@@QAEXW4TextAlignType@@@Z

; 653  : 			g_FontMgr.SetTextStyle( TS_OUTLINE_FULL_3X );

  003f6	6a 06		 push	 6
  003f8	ff d7		 call	 edi
  003fa	8b c8		 mov	 ecx, eax
  003fc	ff 15 00 00 00
	00		 call	 DWORD PTR __imp_?SetTextStyle@ioFontManager@@QAEXW4TextStyle@@@Z

; 654  : 			g_FontMgr.SetBkColor( 18, 48, 78 );

  00402	6a 4e		 push	 78			; 0000004eH
  00404	6a 30		 push	 48			; 00000030H
  00406	6a 12		 push	 18			; 00000012H
  00408	ff d7		 call	 edi
  0040a	8b c8		 mov	 ecx, eax
  0040c	ff 15 00 00 00
	00		 call	 DWORD PTR __imp_?SetBkColor@ioFontManager@@QAEXHHH@Z

; 655  : 
; 656  : 			if( IsDisabled() || IsExDisabled() )

  00412	8b ce		 mov	 ecx, esi
  00414	ff 15 00 00 00
	00		 call	 DWORD PTR __imp_?IsDisabled@ioButton@@QBE_NXZ
  0041a	84 c0		 test	 al, al
  0041c	75 10		 jne	 SHORT $LN25@OnRender@3
  0041e	8b ce		 mov	 ecx, esi
  00420	ff 15 00 00 00
	00		 call	 DWORD PTR __imp_?IsExDisabled@ioButton@@QBE_NXZ
  00426	84 c0		 test	 al, al
  00428	75 04		 jne	 SHORT $LN25@OnRender@3

; 658  : 			else
; 659  : 				g_FontMgr.SetTextColor( TCT_DEFAULT_WHITE );

  0042a	6a ff		 push	 -1
  0042c	eb 05		 jmp	 SHORT $LN74@OnRender@3
$LN25@OnRender@3:

; 657  : 				g_FontMgr.SetTextColor( TCT_DEFAULT_LIGHTGRAY );

  0042e	68 a7 a7 a7 ff	 push	 -5789785		; ffa7a7a7H
$LN74@OnRender@3:
  00433	ff d7		 call	 edi
  00435	8b c8		 mov	 ecx, eax
  00437	ff 15 00 00 00
	00		 call	 DWORD PTR __imp_?SetTextColor@ioFontManager@@QAEXK@Z

; 660  : 
; 661  : 			g_FontMgr.PrintText( fXPos + 23, fYPos + 6, FONT_SIZE_13, STR(9) );

  0043d	53		 push	 ebx
  0043e	6a 09		 push	 9
  00440	bf 00 00 00 00	 mov	 edi, OFFSET ??_C@_00CNPNBAHC@?$AA@
  00445	57		 push	 edi
  00446	be 00 00 00 00	 mov	 esi, OFFSET ??_C@_0BC@DNBGBDGO@MenuBtn?3?3OnRender?$AA@
  0044b	56		 push	 esi
  0044c	ff 15 00 00 00
	00		 call	 DWORD PTR __imp_?GetSingleton@ioStringManager@@SAAAV1@XZ
  00452	8b c8		 mov	 ecx, eax
  00454	ff 15 00 00 00
	00		 call	 DWORD PTR __imp_?GetString@ioStringManager@@QAEPADPBD0HW4FileNamePrefix@1@@Z
  0045a	f3 0f 10 05 00
	00 00 00	 movss	 xmm0, DWORD PTR __real@3f266666
  00462	50		 push	 eax
  00463	83 ec 0c	 sub	 esp, 12			; 0000000cH
  00466	f3 0f 11 44 24
	08		 movss	 DWORD PTR [esp+8], xmm0
  0046c	f3 0f 10 45 fc	 movss	 xmm0, DWORD PTR _fYPos$[ebp]
  00471	0f 5a c0	 cvtps2pd xmm0, xmm0
  00474	f2 0f 58 05 00
	00 00 00	 addsd	 xmm0, QWORD PTR __real@4018000000000000
  0047c	f2 0f 5a c0	 cvtsd2ss xmm0, xmm0
  00480	f3 0f 11 44 24
	04		 movss	 DWORD PTR [esp+4], xmm0
  00486	f3 0f 10 45 f8	 movss	 xmm0, DWORD PTR _fXPos$[ebp]
  0048b	0f 5a c0	 cvtps2pd xmm0, xmm0
  0048e	f2 0f 58 05 00
	00 00 00	 addsd	 xmm0, QWORD PTR __real@4037000000000000
  00496	f2 0f 5a c0	 cvtsd2ss xmm0, xmm0
  0049a	f3 0f 11 04 24	 movss	 DWORD PTR [esp], xmm0
  0049f	ff 15 00 00 00
	00		 call	 DWORD PTR __imp_?GetSingleton@ioFontManager@@SAAAV1@XZ
  004a5	50		 push	 eax
  004a6	ff 15 00 00 00
	00		 call	 DWORD PTR __imp_?PrintText@ioFontManager@@QAAXMMMPBDZZ
  004ac	83 c4 14	 add	 esp, 20			; 00000014H

; 662  : 
; 663  : 			WORD wCustomKey = g_KeyManager.GetCurrentPresentKey();

  004af	e8 00 00 00 00	 call	 ?GetSingleton@ioKeyManager@@SAAAV1@XZ ; ioKeyManager::GetSingleton
  004b4	8b c8		 mov	 ecx, eax
  004b6	e8 00 00 00 00	 call	 ?GetCurrentPresentKey@ioKeyManager@@QAEGXZ ; ioKeyManager::GetCurrentPresentKey
  004bb	0f b7 c0	 movzx	 eax, ax

; 664  : 			if( wCustomKey != 0 )

  004be	66 3b c3	 cmp	 ax, bx
  004c1	0f 84 34 04 00
	00		 je	 $LN70@OnRender@3

; 665  : 				g_FontMgr.PrintText( fXPos + 6, fYPos + 13, FONT_SIZE_10, STR(10), g_KeyManager.GetKeyText( wCustomKey ) );

  004c7	50		 push	 eax
  004c8	e8 00 00 00 00	 call	 ?GetSingleton@ioKeyManager@@SAAAV1@XZ ; ioKeyManager::GetSingleton
  004cd	8b c8		 mov	 ecx, eax
  004cf	e8 00 00 00 00	 call	 ?GetKeyText@ioKeyManager@@QAEPBDG@Z ; ioKeyManager::GetKeyText
  004d4	50		 push	 eax
  004d5	53		 push	 ebx
  004d6	6a 0a		 push	 10			; 0000000aH

; 666  : 		}
; 667  : 		break;

  004d8	e9 91 02 00 00	 jmp	 $LN80@OnRender@3
$LN22@OnRender@3:

; 668  : 	case HelpWnd::ID_MISSION_QUEST:
; 669  : 		{
; 670  : 			g_FontMgr.SetAlignType( TAT_LEFT );

  004dd	8b 3d 00 00 00
	00		 mov	 edi, DWORD PTR __imp_?GetSingleton@ioFontManager@@SAAAV1@XZ
  004e3	33 db		 xor	 ebx, ebx
  004e5	53		 push	 ebx
  004e6	ff d7		 call	 edi
  004e8	8b c8		 mov	 ecx, eax
  004ea	ff 15 00 00 00
	00		 call	 DWORD PTR __imp_?SetAlignType@ioFontManager@@QAEXW4TextAlignType@@@Z

; 671  : 			g_FontMgr.SetTextStyle( TS_OUTLINE_FULL_3X );

  004f0	6a 06		 push	 6
  004f2	ff d7		 call	 edi
  004f4	8b c8		 mov	 ecx, eax
  004f6	ff 15 00 00 00
	00		 call	 DWORD PTR __imp_?SetTextStyle@ioFontManager@@QAEXW4TextStyle@@@Z

; 672  : 			g_FontMgr.SetBkColor( 18, 48, 78 );

  004fc	6a 4e		 push	 78			; 0000004eH
  004fe	6a 30		 push	 48			; 00000030H
  00500	6a 12		 push	 18			; 00000012H
  00502	ff d7		 call	 edi
  00504	8b c8		 mov	 ecx, eax
  00506	ff 15 00 00 00
	00		 call	 DWORD PTR __imp_?SetBkColor@ioFontManager@@QAEXHHH@Z

; 673  : 
; 674  : 			if( IsDisabled() || IsExDisabled() )

  0050c	8b ce		 mov	 ecx, esi
  0050e	ff 15 00 00 00
	00		 call	 DWORD PTR __imp_?IsDisabled@ioButton@@QBE_NXZ
  00514	84 c0		 test	 al, al
  00516	75 10		 jne	 SHORT $LN20@OnRender@3
  00518	8b ce		 mov	 ecx, esi
  0051a	ff 15 00 00 00
	00		 call	 DWORD PTR __imp_?IsExDisabled@ioButton@@QBE_NXZ
  00520	84 c0		 test	 al, al
  00522	75 04		 jne	 SHORT $LN20@OnRender@3

; 676  : 			else
; 677  : 				g_FontMgr.SetTextColor( TCT_DEFAULT_WHITE );

  00524	6a ff		 push	 -1
  00526	eb 05		 jmp	 SHORT $LN75@OnRender@3
$LN20@OnRender@3:

; 675  : 				g_FontMgr.SetTextColor( TCT_DEFAULT_LIGHTGRAY );

  00528	68 a7 a7 a7 ff	 push	 -5789785		; ffa7a7a7H
$LN75@OnRender@3:
  0052d	ff d7		 call	 edi
  0052f	8b c8		 mov	 ecx, eax
  00531	ff 15 00 00 00
	00		 call	 DWORD PTR __imp_?SetTextColor@ioFontManager@@QAEXK@Z

; 678  : 
; 679  : 			g_FontMgr.PrintText( fXPos + 29, fYPos + 6, FONT_SIZE_13, STR(13) );

  00537	53		 push	 ebx
  00538	6a 0d		 push	 13			; 0000000dH
  0053a	bf 00 00 00 00	 mov	 edi, OFFSET ??_C@_00CNPNBAHC@?$AA@
  0053f	57		 push	 edi
  00540	be 00 00 00 00	 mov	 esi, OFFSET ??_C@_0BC@DNBGBDGO@MenuBtn?3?3OnRender?$AA@
  00545	56		 push	 esi
  00546	ff 15 00 00 00
	00		 call	 DWORD PTR __imp_?GetSingleton@ioStringManager@@SAAAV1@XZ
  0054c	8b c8		 mov	 ecx, eax
  0054e	ff 15 00 00 00
	00		 call	 DWORD PTR __imp_?GetString@ioStringManager@@QAEPADPBD0HW4FileNamePrefix@1@@Z
  00554	f3 0f 10 05 00
	00 00 00	 movss	 xmm0, DWORD PTR __real@3f266666
  0055c	50		 push	 eax
  0055d	83 ec 0c	 sub	 esp, 12			; 0000000cH
  00560	f3 0f 11 44 24
	08		 movss	 DWORD PTR [esp+8], xmm0
  00566	f3 0f 10 45 fc	 movss	 xmm0, DWORD PTR _fYPos$[ebp]
  0056b	0f 5a c0	 cvtps2pd xmm0, xmm0
  0056e	f2 0f 58 05 00
	00 00 00	 addsd	 xmm0, QWORD PTR __real@4018000000000000
  00576	f2 0f 5a c0	 cvtsd2ss xmm0, xmm0
  0057a	f3 0f 11 44 24
	04		 movss	 DWORD PTR [esp+4], xmm0
  00580	f3 0f 10 45 f8	 movss	 xmm0, DWORD PTR _fXPos$[ebp]
  00585	0f 5a c0	 cvtps2pd xmm0, xmm0
  00588	f2 0f 58 05 00
	00 00 00	 addsd	 xmm0, QWORD PTR __real@403d000000000000
  00590	f2 0f 5a c0	 cvtsd2ss xmm0, xmm0
  00594	f3 0f 11 04 24	 movss	 DWORD PTR [esp], xmm0
  00599	ff 15 00 00 00
	00		 call	 DWORD PTR __imp_?GetSingleton@ioFontManager@@SAAAV1@XZ
  0059f	50		 push	 eax
  005a0	ff 15 00 00 00
	00		 call	 DWORD PTR __imp_?PrintText@ioFontManager@@QAAXMMMPBDZZ
  005a6	83 c4 14	 add	 esp, 20			; 00000014H

; 680  : 			//g_FontMgr.PrintText( fXPos + 23, fYPos + 6, FONT_SIZE_13, STR(1) );
; 681  : 
; 682  : 			WORD wCustomKey = g_KeyManager.GetCurrentQuestKey();

  005a9	e8 00 00 00 00	 call	 ?GetSingleton@ioKeyManager@@SAAAV1@XZ ; ioKeyManager::GetSingleton
  005ae	8b c8		 mov	 ecx, eax
  005b0	e8 00 00 00 00	 call	 ?GetCurrentQuestKey@ioKeyManager@@QAEGXZ ; ioKeyManager::GetCurrentQuestKey
  005b5	0f b7 c0	 movzx	 eax, ax

; 683  : 			if( wCustomKey != 0 )

  005b8	66 3b c3	 cmp	 ax, bx
  005bb	74 74		 je	 SHORT $LN18@OnRender@3

; 684  : 				g_FontMgr.PrintText( fXPos + 6, fYPos + 13, FONT_SIZE_10, STR(14), g_KeyManager.GetKeyText( wCustomKey ) );

  005bd	50		 push	 eax
  005be	e8 00 00 00 00	 call	 ?GetSingleton@ioKeyManager@@SAAAV1@XZ ; ioKeyManager::GetSingleton
  005c3	8b c8		 mov	 ecx, eax
  005c5	e8 00 00 00 00	 call	 ?GetKeyText@ioKeyManager@@QAEPBDG@Z ; ioKeyManager::GetKeyText
  005ca	50		 push	 eax
  005cb	53		 push	 ebx
  005cc	6a 0e		 push	 14			; 0000000eH
  005ce	57		 push	 edi
  005cf	56		 push	 esi
  005d0	ff 15 00 00 00
	00		 call	 DWORD PTR __imp_?GetSingleton@ioStringManager@@SAAAV1@XZ
  005d6	8b c8		 mov	 ecx, eax
  005d8	ff 15 00 00 00
	00		 call	 DWORD PTR __imp_?GetString@ioStringManager@@QAEPADPBD0HW4FileNamePrefix@1@@Z
  005de	f3 0f 10 05 00
	00 00 00	 movss	 xmm0, DWORD PTR __real@3f000000
  005e6	50		 push	 eax
  005e7	83 ec 0c	 sub	 esp, 12			; 0000000cH
  005ea	f3 0f 11 44 24
	08		 movss	 DWORD PTR [esp+8], xmm0
  005f0	f3 0f 10 45 fc	 movss	 xmm0, DWORD PTR _fYPos$[ebp]
  005f5	0f 5a c0	 cvtps2pd xmm0, xmm0
  005f8	f2 0f 58 05 00
	00 00 00	 addsd	 xmm0, QWORD PTR __real@402a000000000000
  00600	f2 0f 5a c0	 cvtsd2ss xmm0, xmm0
  00604	f3 0f 11 44 24
	04		 movss	 DWORD PTR [esp+4], xmm0
  0060a	f3 0f 10 45 f8	 movss	 xmm0, DWORD PTR _fXPos$[ebp]
  0060f	0f 5a c0	 cvtps2pd xmm0, xmm0
  00612	f2 0f 58 05 00
	00 00 00	 addsd	 xmm0, QWORD PTR __real@4018000000000000
  0061a	f2 0f 5a c0	 cvtsd2ss xmm0, xmm0
  0061e	f3 0f 11 04 24	 movss	 DWORD PTR [esp], xmm0
  00623	ff 15 00 00 00
	00		 call	 DWORD PTR __imp_?GetSingleton@ioFontManager@@SAAAV1@XZ
  00629	8b c8		 mov	 ecx, eax
  0062b	ff 15 00 00 00
	00		 call	 DWORD PTR __imp_?PrintText@ioFontManager@@QAEXMMMPBD0@Z
$LN18@OnRender@3:

; 685  : 
; 686  : 			if( m_bOver )

  00631	8b 75 f4	 mov	 esi, DWORD PTR _this$[ebp]
  00634	38 9e 8d 02 00
	00		 cmp	 BYTE PTR [esi+653], bl
  0063a	0f 84 bb 02 00
	00		 je	 $LN70@OnRender@3

; 687  : 			{
; 688  : 				for ( int i=0 ; i<(int)m_byOverFrmPrintCount ; ++i )

  00640	89 5d f4	 mov	 DWORD PTR _i$557474[ebp], ebx
  00643	38 9e 98 02 00
	00		 cmp	 BYTE PTR [esi+664], bl
  00649	0f 86 ac 02 00
	00		 jbe	 $LN70@OnRender@3
  0064f	f3 0f 2c 7d fc	 cvttss2si edi, DWORD PTR _fYPos$[ebp]
  00654	f3 0f 2c 5d f8	 cvttss2si ebx, DWORD PTR _fXPos$[ebp]
$LL16@OnRender@3:

; 689  : 				{
; 690  : 					OnDrawOveredAdd( fXPos, fYPos );

  00659	8b 06		 mov	 eax, DWORD PTR [esi]
  0065b	57		 push	 edi
  0065c	53		 push	 ebx
  0065d	8b ce		 mov	 ecx, esi
  0065f	ff 90 38 01 00
	00		 call	 DWORD PTR [eax+312]
  00665	0f b6 86 98 02
	00 00		 movzx	 eax, BYTE PTR [esi+664]
  0066c	ff 45 f4	 inc	 DWORD PTR _i$557474[ebp]
  0066f	39 45 f4	 cmp	 DWORD PTR _i$557474[ebp], eax
  00672	7c e5		 jl	 SHORT $LL16@OnRender@3

; 691  : 				}
; 692  : 			}
; 693  : 		}
; 694  : 		break;

  00674	e9 82 02 00 00	 jmp	 $LN70@OnRender@3
$LN13@OnRender@3:

; 695  : 	case HelpWnd::ID_PET:
; 696  : 		{
; 697  : 			g_FontMgr.SetAlignType( TAT_LEFT );

  00679	8b 3d 00 00 00
	00		 mov	 edi, DWORD PTR __imp_?GetSingleton@ioFontManager@@SAAAV1@XZ
  0067f	33 db		 xor	 ebx, ebx
  00681	53		 push	 ebx
  00682	ff d7		 call	 edi
  00684	8b c8		 mov	 ecx, eax
  00686	ff 15 00 00 00
	00		 call	 DWORD PTR __imp_?SetAlignType@ioFontManager@@QAEXW4TextAlignType@@@Z

; 698  : 			g_FontMgr.SetTextStyle( TS_OUTLINE_FULL_3X );

  0068c	6a 06		 push	 6
  0068e	ff d7		 call	 edi
  00690	8b c8		 mov	 ecx, eax
  00692	ff 15 00 00 00
	00		 call	 DWORD PTR __imp_?SetTextStyle@ioFontManager@@QAEXW4TextStyle@@@Z

; 699  : 			g_FontMgr.SetBkColor( 18, 48, 78 );

  00698	6a 4e		 push	 78			; 0000004eH
  0069a	6a 30		 push	 48			; 00000030H
  0069c	6a 12		 push	 18			; 00000012H
  0069e	ff d7		 call	 edi
  006a0	8b c8		 mov	 ecx, eax
  006a2	ff 15 00 00 00
	00		 call	 DWORD PTR __imp_?SetBkColor@ioFontManager@@QAEXHHH@Z

; 700  : 
; 701  : 			if( IsDisabled() || IsExDisabled() )

  006a8	8b ce		 mov	 ecx, esi
  006aa	ff 15 00 00 00
	00		 call	 DWORD PTR __imp_?IsDisabled@ioButton@@QBE_NXZ
  006b0	84 c0		 test	 al, al
  006b2	75 10		 jne	 SHORT $LN11@OnRender@3
  006b4	8b ce		 mov	 ecx, esi
  006b6	ff 15 00 00 00
	00		 call	 DWORD PTR __imp_?IsExDisabled@ioButton@@QBE_NXZ
  006bc	84 c0		 test	 al, al
  006be	75 04		 jne	 SHORT $LN11@OnRender@3

; 703  : 			else
; 704  : 				g_FontMgr.SetTextColor( TCT_DEFAULT_WHITE );

  006c0	6a ff		 push	 -1
  006c2	eb 05		 jmp	 SHORT $LN76@OnRender@3
$LN11@OnRender@3:

; 702  : 				g_FontMgr.SetTextColor( TCT_DEFAULT_LIGHTGRAY );

  006c4	68 a7 a7 a7 ff	 push	 -5789785		; ffa7a7a7H
$LN76@OnRender@3:
  006c9	ff d7		 call	 edi
  006cb	8b c8		 mov	 ecx, eax
  006cd	ff 15 00 00 00
	00		 call	 DWORD PTR __imp_?SetTextColor@ioFontManager@@QAEXK@Z

; 705  : 
; 706  : 			g_FontMgr.PrintText( fXPos + 23, fYPos + 6, FONT_SIZE_13, STR(19) );	

  006d3	53		 push	 ebx
  006d4	6a 13		 push	 19			; 00000013H
  006d6	bf 00 00 00 00	 mov	 edi, OFFSET ??_C@_00CNPNBAHC@?$AA@
  006db	57		 push	 edi
  006dc	be 00 00 00 00	 mov	 esi, OFFSET ??_C@_0BC@DNBGBDGO@MenuBtn?3?3OnRender?$AA@
  006e1	56		 push	 esi
  006e2	ff 15 00 00 00
	00		 call	 DWORD PTR __imp_?GetSingleton@ioStringManager@@SAAAV1@XZ
  006e8	8b c8		 mov	 ecx, eax
  006ea	ff 15 00 00 00
	00		 call	 DWORD PTR __imp_?GetString@ioStringManager@@QAEPADPBD0HW4FileNamePrefix@1@@Z
  006f0	f3 0f 10 05 00
	00 00 00	 movss	 xmm0, DWORD PTR __real@3f266666
  006f8	50		 push	 eax
  006f9	83 ec 0c	 sub	 esp, 12			; 0000000cH
  006fc	f3 0f 11 44 24
	08		 movss	 DWORD PTR [esp+8], xmm0
  00702	f3 0f 10 45 fc	 movss	 xmm0, DWORD PTR _fYPos$[ebp]
  00707	0f 5a c0	 cvtps2pd xmm0, xmm0
  0070a	f2 0f 58 05 00
	00 00 00	 addsd	 xmm0, QWORD PTR __real@4018000000000000
  00712	f2 0f 5a c0	 cvtsd2ss xmm0, xmm0
  00716	f3 0f 11 44 24
	04		 movss	 DWORD PTR [esp+4], xmm0
  0071c	f3 0f 10 45 f8	 movss	 xmm0, DWORD PTR _fXPos$[ebp]
  00721	0f 5a c0	 cvtps2pd xmm0, xmm0
  00724	f2 0f 58 05 00
	00 00 00	 addsd	 xmm0, QWORD PTR __real@4037000000000000
  0072c	f2 0f 5a c0	 cvtsd2ss xmm0, xmm0
  00730	f3 0f 11 04 24	 movss	 DWORD PTR [esp], xmm0
  00735	ff 15 00 00 00
	00		 call	 DWORD PTR __imp_?GetSingleton@ioFontManager@@SAAAV1@XZ
  0073b	50		 push	 eax
  0073c	ff 15 00 00 00
	00		 call	 DWORD PTR __imp_?PrintText@ioFontManager@@QAAXMMMPBDZZ
  00742	83 c4 14	 add	 esp, 20			; 00000014H

; 707  : 
; 708  : 			WORD wCustomKey = g_KeyManager.GetCurrentPetKey();

  00745	e8 00 00 00 00	 call	 ?GetSingleton@ioKeyManager@@SAAAV1@XZ ; ioKeyManager::GetSingleton
  0074a	8b c8		 mov	 ecx, eax
  0074c	e8 00 00 00 00	 call	 ?GetCurrentPetKey@ioKeyManager@@QAEGXZ ; ioKeyManager::GetCurrentPetKey
  00751	0f b7 c0	 movzx	 eax, ax

; 709  : 			if( wCustomKey != 0 )

  00754	66 3b c3	 cmp	 ax, bx
  00757	0f 84 9e 01 00
	00		 je	 $LN70@OnRender@3

; 710  : 				g_FontMgr.PrintText( fXPos + 6, fYPos + 13, FONT_SIZE_10, STR(14), g_KeyManager.GetKeyText( wCustomKey ) );

  0075d	50		 push	 eax
  0075e	e8 00 00 00 00	 call	 ?GetSingleton@ioKeyManager@@SAAAV1@XZ ; ioKeyManager::GetSingleton
  00763	8b c8		 mov	 ecx, eax
  00765	e8 00 00 00 00	 call	 ?GetKeyText@ioKeyManager@@QAEPBDG@Z ; ioKeyManager::GetKeyText
  0076a	50		 push	 eax
  0076b	53		 push	 ebx
  0076c	6a 0e		 push	 14			; 0000000eH
$LN80@OnRender@3:
  0076e	57		 push	 edi
  0076f	56		 push	 esi
  00770	ff 15 00 00 00
	00		 call	 DWORD PTR __imp_?GetSingleton@ioStringManager@@SAAAV1@XZ
  00776	8b c8		 mov	 ecx, eax
  00778	ff 15 00 00 00
	00		 call	 DWORD PTR __imp_?GetString@ioStringManager@@QAEPADPBD0HW4FileNamePrefix@1@@Z
  0077e	f3 0f 10 05 00
	00 00 00	 movss	 xmm0, DWORD PTR __real@3f000000
  00786	50		 push	 eax
  00787	83 ec 0c	 sub	 esp, 12			; 0000000cH
  0078a	f3 0f 11 44 24
	08		 movss	 DWORD PTR [esp+8], xmm0
  00790	f3 0f 10 45 fc	 movss	 xmm0, DWORD PTR _fYPos$[ebp]
  00795	0f 5a c0	 cvtps2pd xmm0, xmm0
  00798	f2 0f 58 05 00
	00 00 00	 addsd	 xmm0, QWORD PTR __real@402a000000000000
  007a0	f2 0f 5a c0	 cvtsd2ss xmm0, xmm0
  007a4	f3 0f 11 44 24
	04		 movss	 DWORD PTR [esp+4], xmm0
  007aa	f3 0f 10 45 f8	 movss	 xmm0, DWORD PTR _fXPos$[ebp]
  007af	0f 5a c0	 cvtps2pd xmm0, xmm0
  007b2	f2 0f 58 05 00
	00 00 00	 addsd	 xmm0, QWORD PTR __real@4018000000000000
  007ba	f2 0f 5a c0	 cvtsd2ss xmm0, xmm0
  007be	f3 0f 11 04 24	 movss	 DWORD PTR [esp], xmm0
  007c3	ff 15 00 00 00
	00		 call	 DWORD PTR __imp_?GetSingleton@ioFontManager@@SAAAV1@XZ
  007c9	8b c8		 mov	 ecx, eax
  007cb	ff 15 00 00 00
	00		 call	 DWORD PTR __imp_?PrintText@ioFontManager@@QAEXMMMPBD0@Z

; 711  : 		}
; 712  : 		break;

  007d1	e9 25 01 00 00	 jmp	 $LN70@OnRender@3
$LN8@OnRender@3:

; 713  : 	case HelpWnd::ID_WEB_EVENT:
; 714  : 		{
; 715  : 			g_FontMgr.SetAlignType( TAT_LEFT );

  007d6	8b 3d 00 00 00
	00		 mov	 edi, DWORD PTR __imp_?GetSingleton@ioFontManager@@SAAAV1@XZ
  007dc	33 db		 xor	 ebx, ebx
  007de	53		 push	 ebx
  007df	ff d7		 call	 edi
  007e1	8b c8		 mov	 ecx, eax
  007e3	ff 15 00 00 00
	00		 call	 DWORD PTR __imp_?SetAlignType@ioFontManager@@QAEXW4TextAlignType@@@Z

; 716  : 			g_FontMgr.SetTextStyle( TS_OUTLINE_FULL_3X );

  007e9	6a 06		 push	 6
  007eb	ff d7		 call	 edi
  007ed	8b c8		 mov	 ecx, eax
  007ef	ff 15 00 00 00
	00		 call	 DWORD PTR __imp_?SetTextStyle@ioFontManager@@QAEXW4TextStyle@@@Z

; 717  : 			g_FontMgr.SetBkColor( 18, 48, 78 );

  007f5	6a 4e		 push	 78			; 0000004eH
  007f7	6a 30		 push	 48			; 00000030H
  007f9	6a 12		 push	 18			; 00000012H
  007fb	ff d7		 call	 edi
  007fd	8b c8		 mov	 ecx, eax
  007ff	ff 15 00 00 00
	00		 call	 DWORD PTR __imp_?SetBkColor@ioFontManager@@QAEXHHH@Z

; 718  : 
; 719  : 			if( IsDisabled() || IsExDisabled() )

  00805	8b ce		 mov	 ecx, esi
  00807	ff 15 00 00 00
	00		 call	 DWORD PTR __imp_?IsDisabled@ioButton@@QBE_NXZ
  0080d	84 c0		 test	 al, al
  0080f	75 10		 jne	 SHORT $LN6@OnRender@3
  00811	8b ce		 mov	 ecx, esi
  00813	ff 15 00 00 00
	00		 call	 DWORD PTR __imp_?IsExDisabled@ioButton@@QBE_NXZ
  00819	84 c0		 test	 al, al
  0081b	75 04		 jne	 SHORT $LN6@OnRender@3

; 721  : 			else
; 722  : 				g_FontMgr.SetTextColor( TCT_DEFAULT_WHITE );

  0081d	6a ff		 push	 -1
  0081f	eb 05		 jmp	 SHORT $LN77@OnRender@3
$LN6@OnRender@3:

; 720  : 				g_FontMgr.SetTextColor( TCT_DEFAULT_LIGHTGRAY );

  00821	68 a7 a7 a7 ff	 push	 -5789785		; ffa7a7a7H
$LN77@OnRender@3:
  00826	ff d7		 call	 edi
  00828	8b c8		 mov	 ecx, eax
  0082a	ff 15 00 00 00
	00		 call	 DWORD PTR __imp_?SetTextColor@ioFontManager@@QAEXK@Z

; 723  : 
; 724  : 			g_FontMgr.PrintText( fXPos + 29, fYPos + 6, FONT_SIZE_13, STR(20) );	

  00830	53		 push	 ebx
  00831	6a 14		 push	 20			; 00000014H

; 725  : 		}
; 726  : 		break;

  00833	eb 5d		 jmp	 SHORT $LN78@OnRender@3
$LN4@OnRender@3:

; 727  : 	case HelpWnd::ID_WEB_GUIDE:
; 728  : 		{
; 729  : 			g_FontMgr.SetAlignType( TAT_LEFT );

  00835	8b 3d 00 00 00
	00		 mov	 edi, DWORD PTR __imp_?GetSingleton@ioFontManager@@SAAAV1@XZ
  0083b	33 db		 xor	 ebx, ebx
  0083d	53		 push	 ebx
  0083e	ff d7		 call	 edi
  00840	8b c8		 mov	 ecx, eax
  00842	ff 15 00 00 00
	00		 call	 DWORD PTR __imp_?SetAlignType@ioFontManager@@QAEXW4TextAlignType@@@Z

; 730  : 			g_FontMgr.SetTextStyle( TS_OUTLINE_FULL_3X );

  00848	6a 06		 push	 6
  0084a	ff d7		 call	 edi
  0084c	8b c8		 mov	 ecx, eax
  0084e	ff 15 00 00 00
	00		 call	 DWORD PTR __imp_?SetTextStyle@ioFontManager@@QAEXW4TextStyle@@@Z

; 731  : 			g_FontMgr.SetBkColor( 18, 48, 78 );

  00854	6a 4e		 push	 78			; 0000004eH
  00856	6a 30		 push	 48			; 00000030H
  00858	6a 12		 push	 18			; 00000012H
  0085a	ff d7		 call	 edi
  0085c	8b c8		 mov	 ecx, eax
  0085e	ff 15 00 00 00
	00		 call	 DWORD PTR __imp_?SetBkColor@ioFontManager@@QAEXHHH@Z

; 732  : 
; 733  : 			if( IsDisabled() || IsExDisabled() )

  00864	8b ce		 mov	 ecx, esi
  00866	ff 15 00 00 00
	00		 call	 DWORD PTR __imp_?IsDisabled@ioButton@@QBE_NXZ
  0086c	84 c0		 test	 al, al
  0086e	75 10		 jne	 SHORT $LN2@OnRender@3
  00870	8b ce		 mov	 ecx, esi
  00872	ff 15 00 00 00
	00		 call	 DWORD PTR __imp_?IsExDisabled@ioButton@@QBE_NXZ
  00878	84 c0		 test	 al, al
  0087a	75 04		 jne	 SHORT $LN2@OnRender@3

; 735  : 			else
; 736  : 				g_FontMgr.SetTextColor( TCT_DEFAULT_WHITE );

  0087c	6a ff		 push	 -1
  0087e	eb 05		 jmp	 SHORT $LN79@OnRender@3
$LN2@OnRender@3:

; 734  : 				g_FontMgr.SetTextColor( TCT_DEFAULT_LIGHTGRAY );

  00880	68 a7 a7 a7 ff	 push	 -5789785		; ffa7a7a7H
$LN79@OnRender@3:
  00885	ff d7		 call	 edi
  00887	8b c8		 mov	 ecx, eax
  00889	ff 15 00 00 00
	00		 call	 DWORD PTR __imp_?SetTextColor@ioFontManager@@QAEXK@Z

; 737  : 
; 738  : 			g_FontMgr.PrintText( fXPos + 29, fYPos + 6, FONT_SIZE_13, STR(21) );	

  0088f	53		 push	 ebx
  00890	6a 15		 push	 21			; 00000015H
$LN78@OnRender@3:
  00892	68 00 00 00 00	 push	 OFFSET ??_C@_00CNPNBAHC@?$AA@
  00897	68 00 00 00 00	 push	 OFFSET ??_C@_0BC@DNBGBDGO@MenuBtn?3?3OnRender?$AA@
  0089c	ff 15 00 00 00
	00		 call	 DWORD PTR __imp_?GetSingleton@ioStringManager@@SAAAV1@XZ
  008a2	8b c8		 mov	 ecx, eax
  008a4	ff 15 00 00 00
	00		 call	 DWORD PTR __imp_?GetString@ioStringManager@@QAEPADPBD0HW4FileNamePrefix@1@@Z
  008aa	f3 0f 10 05 00
	00 00 00	 movss	 xmm0, DWORD PTR __real@3f266666
  008b2	50		 push	 eax
  008b3	83 ec 0c	 sub	 esp, 12			; 0000000cH
  008b6	f3 0f 11 44 24
	08		 movss	 DWORD PTR [esp+8], xmm0
  008bc	f3 0f 10 45 fc	 movss	 xmm0, DWORD PTR _fYPos$[ebp]
  008c1	0f 5a c0	 cvtps2pd xmm0, xmm0
  008c4	f2 0f 58 05 00
	00 00 00	 addsd	 xmm0, QWORD PTR __real@4018000000000000
  008cc	f2 0f 5a c0	 cvtsd2ss xmm0, xmm0
  008d0	f3 0f 11 44 24
	04		 movss	 DWORD PTR [esp+4], xmm0
  008d6	f3 0f 10 45 f8	 movss	 xmm0, DWORD PTR _fXPos$[ebp]
  008db	0f 5a c0	 cvtps2pd xmm0, xmm0
  008de	f2 0f 58 05 00
	00 00 00	 addsd	 xmm0, QWORD PTR __real@403d000000000000
  008e6	f2 0f 5a c0	 cvtsd2ss xmm0, xmm0
  008ea	f3 0f 11 04 24	 movss	 DWORD PTR [esp], xmm0
  008ef	ff d7		 call	 edi
  008f1	50		 push	 eax
  008f2	ff 15 00 00 00
	00		 call	 DWORD PTR __imp_?PrintText@ioFontManager@@QAAXMMMPBDZZ
  008f8	83 c4 14	 add	 esp, 20			; 00000014H
$LN70@OnRender@3:
  008fb	5f		 pop	 edi
  008fc	5b		 pop	 ebx
$LN64@OnRender@3:
  008fd	5e		 pop	 esi

; 739  : 		}
; 740  : 		break;
; 741  : 	}
; 742  : }

  008fe	c9		 leave
  008ff	c3		 ret	 0
$LN83@OnRender@3:
  00900	00 00 00 00	 DD	 $LN42@OnRender@3
  00904	00 00 00 00	 DD	 $LN70@OnRender@3
  00908	00 00 00 00	 DD	 $LN62@OnRender@3
  0090c	00 00 00 00	 DD	 $LN57@OnRender@3
  00910	00 00 00 00	 DD	 $LN52@OnRender@3
  00914	00 00 00 00	 DD	 $LN47@OnRender@3
  00918	00 00 00 00	 DD	 $LN37@OnRender@3
  0091c	00 00 00 00	 DD	 $LN32@OnRender@3
  00920	00 00 00 00	 DD	 $LN27@OnRender@3
  00924	00 00 00 00	 DD	 $LN22@OnRender@3
  00928	00 00 00 00	 DD	 $LN13@OnRender@3
  0092c	00 00 00 00	 DD	 $LN8@OnRender@3
  00930	00 00 00 00	 DD	 $LN4@OnRender@3
?OnRender@MenuBtn@@MAEXXZ ENDP				; MenuBtn::OnRender
_TEXT	ENDS
PUBLIC	?OnRenderTooltip@MenuBtn@@QAEXXZ		; MenuBtn::OnRenderTooltip
EXTRN	__imp_?IsEmpty@ioHashString@@QBE_NXZ:PROC
; Function compile flags: /Ogsp
;	COMDAT ?OnRenderTooltip@MenuBtn@@QAEXXZ
_TEXT	SEGMENT
_fXPos$ = -8						; size = 4
_fYPos$ = -4						; size = 4
?OnRenderTooltip@MenuBtn@@QAEXXZ PROC			; MenuBtn::OnRenderTooltip, COMDAT
; _this$ = ecx

; 745  : {

  00000	55		 push	 ebp
  00001	8b ec		 mov	 ebp, esp
  00003	51		 push	 ecx
  00004	51		 push	 ecx
  00005	56		 push	 esi
  00006	8b f1		 mov	 esi, ecx

; 746  : 	float fXPos, fYPos;
; 747  : 	fXPos = GetDerivedPosX();

  00008	ff 15 00 00 00
	00		 call	 DWORD PTR __imp_?GetDerivedPosX@ioWnd@@QBEHXZ
  0000e	0f 57 c0	 xorps	 xmm0, xmm0
  00011	f3 0f 2a c0	 cvtsi2ss xmm0, eax

; 748  : 	fYPos = GetDerivedPosY();

  00015	8b ce		 mov	 ecx, esi
  00017	f3 0f 11 45 f8	 movss	 DWORD PTR _fXPos$[ebp], xmm0
  0001c	ff 15 00 00 00
	00		 call	 DWORD PTR __imp_?GetDerivedPosY@ioWnd@@QBEHXZ
  00022	0f 57 c0	 xorps	 xmm0, xmm0
  00025	f3 0f 2a c0	 cvtsi2ss xmm0, eax

; 749  : 
; 750  : 	switch( GetID() )

  00029	8b ce		 mov	 ecx, esi
  0002b	f3 0f 11 45 fc	 movss	 DWORD PTR _fYPos$[ebp], xmm0
  00030	ff 15 00 00 00
	00		 call	 DWORD PTR __imp_?GetID@ioWnd@@QBEKXZ
  00036	83 e8 0a	 sub	 eax, 10			; 0000000aH
  00039	0f 84 fa 00 00
	00		 je	 $LN10@OnRenderTo@9
  0003f	48		 dec	 eax
  00040	0f 84 86 00 00
	00		 je	 $LN8@OnRenderTo@9
  00046	48		 dec	 eax
  00047	74 38		 je	 SHORT $LN4@OnRenderTo@9
  00049	83 e8 07	 sub	 eax, 7
  0004c	0f 85 17 01 00
	00		 jne	 $LN9@OnRenderTo@9

; 806  : 	case HelpWnd::ID_ROLLBOOK:
; 807  : 		{
; 808  : 			if ( HelpWnd::IsMoveStateShow() )

  00052	39 05 00 00 00
	00		 cmp	 DWORD PTR ?sg_dwMoveState@HelpWnd@@1KA, eax ; HelpWnd::sg_dwMoveState
  00058	0f 85 0b 01 00
	00		 jne	 $LN9@OnRenderTo@9

; 809  : 			{
; 810  : 				OnRenderTooltipTimeRollBook( fXPos, fYPos );

  0005e	f3 0f 10 45 fc	 movss	 xmm0, DWORD PTR _fYPos$[ebp]
  00063	51		 push	 ecx
  00064	51		 push	 ecx
  00065	f3 0f 11 44 24
	04		 movss	 DWORD PTR [esp+4], xmm0
  0006b	f3 0f 10 45 f8	 movss	 xmm0, DWORD PTR _fXPos$[ebp]
  00070	8b ce		 mov	 ecx, esi
  00072	f3 0f 11 04 24	 movss	 DWORD PTR [esp], xmm0
  00077	e8 00 00 00 00	 call	 ?OnRenderTooltipTimeRollBook@MenuBtn@@QAEXMM@Z ; MenuBtn::OnRenderTooltipTimeRollBook

; 811  : 			}
; 812  : 		}
; 813  : 		break;

  0007c	e9 e8 00 00 00	 jmp	 $LN9@OnRenderTo@9
$LN4@OnRenderTo@9:

; 798  : 	case HelpWnd::ID_PRESENT:
; 799  : 		{
; 800  : 			if( g_PresentMgr.GetMaxPresent() > 0 && HelpWnd::IsMoveStateShow() )

  00081	e8 00 00 00 00	 call	 ?GetSingleton@ioPresentMgr@@SAAAV1@XZ ; ioPresentMgr::GetSingleton
  00086	8b c8		 mov	 ecx, eax
  00088	8b 41 08	 mov	 eax, DWORD PTR [ecx+8]
  0008b	2b 41 04	 sub	 eax, DWORD PTR [ecx+4]
  0008e	6a 34		 push	 52			; 00000034H
  00090	99		 cdq
  00091	59		 pop	 ecx
  00092	f7 f9		 idiv	 ecx
  00094	85 c0		 test	 eax, eax
  00096	0f 8e cd 00 00
	00		 jle	 $LN9@OnRenderTo@9
  0009c	83 3d 00 00 00
	00 00		 cmp	 DWORD PTR ?sg_dwMoveState@HelpWnd@@1KA, 0 ; HelpWnd::sg_dwMoveState
  000a3	0f 85 c0 00 00
	00		 jne	 $LN9@OnRenderTo@9

; 801  : 			{
; 802  : 				OnRenderTooltipTimePresent( fXPos, fYPos );

  000a9	f3 0f 10 45 fc	 movss	 xmm0, DWORD PTR _fYPos$[ebp]
  000ae	51		 push	 ecx
  000af	51		 push	 ecx
  000b0	f3 0f 11 44 24
	04		 movss	 DWORD PTR [esp+4], xmm0
  000b6	f3 0f 10 45 f8	 movss	 xmm0, DWORD PTR _fXPos$[ebp]
  000bb	8b ce		 mov	 ecx, esi
  000bd	f3 0f 11 04 24	 movss	 DWORD PTR [esp], xmm0
  000c2	e8 00 00 00 00	 call	 ?OnRenderTooltipTimePresent@MenuBtn@@QAEXMM@Z ; MenuBtn::OnRenderTooltipTimePresent

; 803  : 			}
; 804  : 		}
; 805  : 		break;

  000c7	e9 9d 00 00 00	 jmp	 $LN9@OnRenderTo@9
$LN8@OnRenderTo@9:

; 781  : 				}
; 782  : 			}
; 783  : 		}
; 784  : 		break;
; 785  : 	case HelpWnd::ID_MYITEM:
; 786  : 		{
; 787  : 			//  
; 788  : 			if( !m_szGashaponName.IsEmpty() && HelpWnd::IsMoveStateShow() )

  000cc	8d 8e 74 02 00
	00		 lea	 ecx, DWORD PTR [esi+628]
  000d2	ff 15 00 00 00
	00		 call	 DWORD PTR __imp_?IsEmpty@ioHashString@@QBE_NXZ
  000d8	84 c0		 test	 al, al
  000da	a1 00 00 00 00	 mov	 eax, DWORD PTR ?sg_dwMoveState@HelpWnd@@1KA ; HelpWnd::sg_dwMoveState
  000df	75 24		 jne	 SHORT $LN7@OnRenderTo@9
  000e1	85 c0		 test	 eax, eax
  000e3	75 20		 jne	 SHORT $LN7@OnRenderTo@9

; 789  : 			{
; 790  : 				OnRenderTooltipTimeGashapon( fXPos, fYPos );

  000e5	f3 0f 10 45 fc	 movss	 xmm0, DWORD PTR _fYPos$[ebp]
  000ea	51		 push	 ecx
  000eb	51		 push	 ecx
  000ec	f3 0f 11 44 24
	04		 movss	 DWORD PTR [esp+4], xmm0
  000f2	f3 0f 10 45 f8	 movss	 xmm0, DWORD PTR _fXPos$[ebp]
  000f7	8b ce		 mov	 ecx, esi
  000f9	f3 0f 11 04 24	 movss	 DWORD PTR [esp], xmm0
  000fe	e8 00 00 00 00	 call	 ?OnRenderTooltipTimeGashapon@MenuBtn@@QAEXMM@Z ; MenuBtn::OnRenderTooltipTimeGashapon
  00103	eb 64		 jmp	 SHORT $LN9@OnRenderTo@9
$LN7@OnRenderTo@9:

; 791  : 			}
; 792  : 			else if( m_iGrowCurrentCount + m_iGrowMaxCount > 0 && HelpWnd::IsMoveStateShow() )		//  				

  00105	8b 8e 88 02 00
	00		 mov	 ecx, DWORD PTR [esi+648]
  0010b	03 8e 84 02 00
	00		 add	 ecx, DWORD PTR [esi+644]
  00111	85 c9		 test	 ecx, ecx
  00113	7e 54		 jle	 SHORT $LN9@OnRenderTo@9
  00115	85 c0		 test	 eax, eax
  00117	75 50		 jne	 SHORT $LN9@OnRenderTo@9

; 793  : 			{
; 794  : 				OnRenderTooltipSoliderGrowth( fXPos, fYPos );

  00119	f3 0f 10 45 fc	 movss	 xmm0, DWORD PTR _fYPos$[ebp]
  0011e	51		 push	 ecx
  0011f	51		 push	 ecx
  00120	f3 0f 11 44 24
	04		 movss	 DWORD PTR [esp+4], xmm0
  00126	f3 0f 10 45 f8	 movss	 xmm0, DWORD PTR _fXPos$[ebp]
  0012b	8b ce		 mov	 ecx, esi
  0012d	f3 0f 11 04 24	 movss	 DWORD PTR [esp], xmm0
  00132	e8 00 00 00 00	 call	 ?OnRenderTooltipSoliderGrowth@MenuBtn@@QAEXMM@Z ; MenuBtn::OnRenderTooltipSoliderGrowth

; 795  : 			}
; 796  : 		}
; 797  : 		break;	

  00137	eb 30		 jmp	 SHORT $LN9@OnRenderTo@9
$LN10@OnRenderTo@9:

; 751  : 	{
; 752  : 	case HelpWnd::ID_DISPLAY:
; 753  : 	case HelpWnd::ID_PRACTICE:
; 754  : 	case HelpWnd::ID_FISHING:
; 755  : 	case HelpWnd::ID_EXCAVATION:
; 756  : 	case HelpWnd::ID_PLAZA_STATE:
; 757  : 	case HelpWnd::ID_HOUSING_SETUP:
; 758  : 	case HelpWnd::ID_MISSION_QUEST:
; 759  : 	case HelpWnd::ID_PET:
; 760  : 	case HelpWnd::ID_WEB_EVENT:
; 761  : 	case HelpWnd::ID_WEB_GUIDE:
; 762  : 		break;
; 763  : 	case HelpWnd::ID_SHOP:
; 764  : 		{
; 765  : #ifndef SRC_OVERSEAS
; 766  : 			const CTime* pCloseTime = g_SpecialShopMgr.GetCloseTime();
; 767  : 			if( g_SpecialShopMgr.IsSpecialShopOpen() && HelpWnd::IsMoveStateShow() && pCloseTime )
; 768  : 			{
; 769  : 				//   					
; 770  : 				CTimeSpan CloseGap = (*pCloseTime) - DateHelp::GetCurrTime();
; 771  : 				OnRenderTooltipSecretShopOpen( fXPos + GetWidth()/2, fYPos + GetHeight()/2, CloseGap );
; 772  : 				
; 773  : 			}
; 774  : 			else
; 775  : #endif
; 776  : 			{
; 777  : 				//  
; 778  : 				if( m_iEventItemCnt > 0 && HelpWnd::IsMoveStateShow() )

  00139	83 be 60 02 00
	00 00		 cmp	 DWORD PTR [esi+608], 0
  00140	7e 27		 jle	 SHORT $LN9@OnRenderTo@9
  00142	83 3d 00 00 00
	00 00		 cmp	 DWORD PTR ?sg_dwMoveState@HelpWnd@@1KA, 0 ; HelpWnd::sg_dwMoveState
  00149	75 1e		 jne	 SHORT $LN9@OnRenderTo@9

; 779  : 				{
; 780  : 					OnRenderTooltipEvent( fXPos, fYPos );

  0014b	f3 0f 10 45 fc	 movss	 xmm0, DWORD PTR _fYPos$[ebp]
  00150	51		 push	 ecx
  00151	51		 push	 ecx
  00152	f3 0f 11 44 24
	04		 movss	 DWORD PTR [esp+4], xmm0
  00158	f3 0f 10 45 f8	 movss	 xmm0, DWORD PTR _fXPos$[ebp]
  0015d	8b ce		 mov	 ecx, esi
  0015f	f3 0f 11 04 24	 movss	 DWORD PTR [esp], xmm0
  00164	e8 00 00 00 00	 call	 ?OnRenderTooltipEvent@MenuBtn@@QAEXMM@Z ; MenuBtn::OnRenderTooltipEvent
$LN9@OnRenderTo@9:
  00169	5e		 pop	 esi

; 814  : 	}
; 815  : }

  0016a	c9		 leave
  0016b	c3		 ret	 0
?OnRenderTooltip@MenuBtn@@QAEXXZ ENDP			; MenuBtn::OnRenderTooltip
_TEXT	ENDS
PUBLIC	??_C@_0BI@LMKDPOJK@HelpWnd?3?3DisplayProcess?$AA@ ; `string'
PUBLIC	?DisplayProcess@HelpWnd@@IAEXXZ			; HelpWnd::DisplayProcess
EXTRN	?GetRecordPlayUserCnt@ioHeadquartersMode@@QAEHXZ:PROC ; ioHeadquartersMode::GetRecordPlayUserCnt
EXTRN	__imp_??9ioHashString@@QBE_NABV0@@Z:PROC
;	COMDAT ??_C@_0BI@LMKDPOJK@HelpWnd?3?3DisplayProcess?$AA@
; File d:\lost saga for developer\youtube\tutorial\source\src\lsclient\ioheadquartersmode.h
CONST	SEGMENT
??_C@_0BI@LMKDPOJK@HelpWnd?3?3DisplayProcess?$AA@ DB 'HelpWnd::DisplayPro'
	DB	'cess', 00H					; `string'
; Function compile flags: /Ogsp
; File d:\lost saga for developer\youtube\tutorial\source\src\lsclient\gui\helpwnd.cpp
CONST	ENDS
;	COMDAT ?DisplayProcess@HelpWnd@@IAEXXZ
_TEXT	SEGMENT
?DisplayProcess@HelpWnd@@IAEXXZ PROC			; HelpWnd::DisplayProcess, COMDAT
; _this$ = ecx

; 2095 : {

  00000	53		 push	 ebx
  00001	56		 push	 esi
  00002	57		 push	 edi
  00003	8b d9		 mov	 ebx, ecx

; 2096 : 	if( g_App.GetConnectedMoveMode() != ioApplication::CMM_LOBBY )

  00005	e8 00 00 00 00	 call	 ?GetSingleton@ioApplication@@SAAAV1@XZ ; ioApplication::GetSingleton
  0000a	33 ff		 xor	 edi, edi
  0000c	83 b8 ac 06 00
	00 02		 cmp	 DWORD PTR [eax+1708], 2
  00013	74 26		 je	 SHORT $LN10@DisplayPro

; 2097 : 	{
; 2098 : 		if( g_GUIMgr.IsShow( LOBBY_QUICK_EXIT_WND ) )

  00015	be 69 18 00 00	 mov	 esi, 6249		; 00001869H
  0001a	56		 push	 esi
  0001b	e8 00 00 00 00	 call	 ?GetSingleton@ioSP2GUIManager@@SAAAV1@XZ ; ioSP2GUIManager::GetSingleton
  00020	8b c8		 mov	 ecx, eax
  00022	ff 15 00 00 00
	00		 call	 DWORD PTR __imp_?IsShow@ioGUIManager@@QAE_NK@Z
  00028	84 c0		 test	 al, al
  0002a	74 0f		 je	 SHORT $LN10@DisplayPro

; 2099 : 			g_GUIMgr.HideWnd( LOBBY_QUICK_EXIT_WND );

  0002c	57		 push	 edi
  0002d	56		 push	 esi
  0002e	e8 00 00 00 00	 call	 ?GetSingleton@ioSP2GUIManager@@SAAAV1@XZ ; ioSP2GUIManager::GetSingleton
  00033	8b c8		 mov	 ecx, eax
  00035	ff 15 00 00 00
	00		 call	 DWORD PTR __imp_?HideWnd@ioGUIManager@@QAEXK_N@Z
$LN10@DisplayPro:

; 2100 : 	}
; 2101 : 
; 2102 : 	if( !g_MyInfo.IsTutorialUser() )

  0003b	e8 00 00 00 00	 call	 ?GetSingleton@ioMyInfo@@SAAAV1@XZ ; ioMyInfo::GetSingleton
  00040	8b c8		 mov	 ecx, eax
  00042	e8 00 00 00 00	 call	 ?IsTutorialUser@ioMyInfo@@QAE_NXZ ; ioMyInfo::IsTutorialUser
  00047	84 c0		 test	 al, al
  00049	0f 85 82 00 00
	00		 jne	 $LN9@DisplayPro

; 2103 : 	{
; 2104 : 		if( m_pPlayStage )

  0004f	8b 83 80 01 00
	00		 mov	 eax, DWORD PTR [ebx+384]
  00055	3b c7		 cmp	 eax, edi
  00057	74 41		 je	 SHORT $LN4@DisplayPro

; 2105 : 		{
; 2106 : 			ioHeadquartersMode *pHeadquartersMode = ToHeadquartersMode( m_pPlayStage->GetPlayMode() );

  00059	ff b0 10 01 00
	00		 push	 DWORD PTR [eax+272]
  0005f	e8 00 00 00 00	 call	 ?ToHeadquartersMode@@YAPAVioHeadquartersMode@@PAVioPlayMode@@@Z ; ToHeadquartersMode
  00064	8b f0		 mov	 esi, eax
  00066	59		 pop	 ecx

; 2107 : 			if( pHeadquartersMode )

  00067	3b f7		 cmp	 esi, edi
  00069	74 2f		 je	 SHORT $LN4@DisplayPro

; 2108 : 			{
; 2109 : 				if( pHeadquartersMode->GetMasterName() != g_MyInfo.GetPublicID() )

  0006b	e8 00 00 00 00	 call	 ?GetSingleton@ioMyInfo@@SAAAV1@XZ ; ioMyInfo::GetSingleton
  00070	83 c0 1c	 add	 eax, 28			; 0000001cH
  00073	50		 push	 eax
  00074	8d 8e f4 04 00
	00		 lea	 ecx, DWORD PTR [esi+1268]
  0007a	ff 15 00 00 00
	00		 call	 DWORD PTR __imp_??9ioHashString@@QBE_NABV0@@Z
  00080	84 c0		 test	 al, al
  00082	74 05		 je	 SHORT $LN6@DisplayPro

; 2110 : 				{
; 2111 : 					g_GUIMgr.SetMsgBox( MB_OK, NULL, STR(1) );

  00084	57		 push	 edi
  00085	6a 01		 push	 1

; 2112 : 					return;

  00087	eb 4b		 jmp	 SHORT $LN22@DisplayPro
$LN6@DisplayPro:

; 2113 : 				}
; 2114 : 				else if( pHeadquartersMode->GetRecordPlayUserCnt() > 1 )

  00089	8b ce		 mov	 ecx, esi
  0008b	e8 00 00 00 00	 call	 ?GetRecordPlayUserCnt@ioHeadquartersMode@@QAEHXZ ; ioHeadquartersMode::GetRecordPlayUserCnt
  00090	83 f8 01	 cmp	 eax, 1
  00093	7e 05		 jle	 SHORT $LN4@DisplayPro

; 2115 : 				{
; 2116 : 					g_GUIMgr.SetMsgBox( MB_OK, NULL, STR(2) );

  00095	57		 push	 edi
  00096	6a 02		 push	 2

; 2117 : 					return;

  00098	eb 3a		 jmp	 SHORT $LN22@DisplayPro
$LN4@DisplayPro:

; 2118 : 				}
; 2119 : 			}
; 2120 : 		}
; 2121 : 
; 2122 : 		if( g_GUIMgr.IsShow( SOLDIER_DISPLAY_SELECT_WND ) )

  0009a	be c9 17 00 00	 mov	 esi, 6089		; 000017c9H
  0009f	56		 push	 esi
  000a0	e8 00 00 00 00	 call	 ?GetSingleton@ioSP2GUIManager@@SAAAV1@XZ ; ioSP2GUIManager::GetSingleton
  000a5	8b c8		 mov	 ecx, eax
  000a7	ff 15 00 00 00
	00		 call	 DWORD PTR __imp_?IsShow@ioGUIManager@@QAE_NK@Z

; 2123 : 			g_GUIMgr.HideWnd( SOLDIER_DISPLAY_SELECT_WND );

  000ad	57		 push	 edi
  000ae	56		 push	 esi
  000af	84 c0		 test	 al, al
  000b1	74 0f		 je	 SHORT $LN3@DisplayPro
  000b3	e8 00 00 00 00	 call	 ?GetSingleton@ioSP2GUIManager@@SAAAV1@XZ ; ioSP2GUIManager::GetSingleton
  000b8	8b c8		 mov	 ecx, eax
  000ba	ff 15 00 00 00
	00		 call	 DWORD PTR __imp_?HideWnd@ioGUIManager@@QAEXK_N@Z

; 2124 : 		else

  000c0	eb 3b		 jmp	 SHORT $LN1@DisplayPro
$LN3@DisplayPro:

; 2125 : 			g_GUIMgr.ShowWnd( SOLDIER_DISPLAY_SELECT_WND );

  000c2	e8 00 00 00 00	 call	 ?GetSingleton@ioSP2GUIManager@@SAAAV1@XZ ; ioSP2GUIManager::GetSingleton
  000c7	8b c8		 mov	 ecx, eax
  000c9	ff 15 00 00 00
	00		 call	 DWORD PTR __imp_?ShowWnd@ioGUIManager@@QAEXK_N@Z

; 2126 : 	}
; 2127 : 	else

  000cf	eb 2c		 jmp	 SHORT $LN1@DisplayPro
$LN9@DisplayPro:

; 2128 : 	{
; 2129 : 		g_GUIMgr.SetMsgBox( MB_OK, NULL, STR(3) );

  000d1	57		 push	 edi
  000d2	6a 03		 push	 3
$LN22@DisplayPro:
  000d4	68 00 00 00 00	 push	 OFFSET ??_C@_00CNPNBAHC@?$AA@
  000d9	68 00 00 00 00	 push	 OFFSET ??_C@_0BI@LMKDPOJK@HelpWnd?3?3DisplayProcess?$AA@
  000de	ff 15 00 00 00
	00		 call	 DWORD PTR __imp_?GetSingleton@ioStringManager@@SAAAV1@XZ
  000e4	8b c8		 mov	 ecx, eax
  000e6	ff 15 00 00 00
	00		 call	 DWORD PTR __imp_?GetString@ioStringManager@@QAEPADPBD0HW4FileNamePrefix@1@@Z
  000ec	50		 push	 eax
  000ed	57		 push	 edi
  000ee	57		 push	 edi
  000ef	e8 00 00 00 00	 call	 ?GetSingleton@ioSP2GUIManager@@SAAAV1@XZ ; ioSP2GUIManager::GetSingleton
  000f4	50		 push	 eax
  000f5	e8 00 00 00 00	 call	 ?SetMsgBox@ioSP2GUIManager@@QAAXHPAVioWnd@@PBDZZ ; ioSP2GUIManager::SetMsgBox
  000fa	83 c4 10	 add	 esp, 16			; 00000010H
$LN1@DisplayPro:

; 2130 : 	}
; 2131 : }

  000fd	5f		 pop	 edi
  000fe	5e		 pop	 esi
  000ff	5b		 pop	 ebx
  00100	c3		 ret	 0
?DisplayProcess@HelpWnd@@IAEXXZ ENDP			; HelpWnd::DisplayProcess
_TEXT	ENDS
PUBLIC	??_C@_0BJ@OGLCMBKK@HelpWnd?3?3PracticeProcess?$AA@ ; `string'
PUBLIC	??_R0?AVPracticeHelpWnd@@@8			; PracticeHelpWnd `RTTI Type Descriptor'
PUBLIC	?PracticeProcess@HelpWnd@@IAEXXZ		; HelpWnd::PracticeProcess
;	COMDAT ??_C@_0BJ@OGLCMBKK@HelpWnd?3?3PracticeProcess?$AA@
; File d:\lost saga for developer\youtube\tutorial\source\src\lsclient\ioheadquartersmode.h
CONST	SEGMENT
??_C@_0BJ@OGLCMBKK@HelpWnd?3?3PracticeProcess?$AA@ DB 'HelpWnd::PracticeP'
	DB	'rocess', 00H				; `string'
CONST	ENDS
;	COMDAT ??_R0?AVPracticeHelpWnd@@@8
_DATA	SEGMENT
??_R0?AVPracticeHelpWnd@@@8 DD FLAT:??_7type_info@@6B@	; PracticeHelpWnd `RTTI Type Descriptor'
	DD	00H
	DB	'.?AVPracticeHelpWnd@@', 00H
; Function compile flags: /Ogsp
; File d:\lost saga for developer\youtube\tutorial\source\src\lsclient\gui\helpwnd.cpp
_DATA	ENDS
;	COMDAT ?PracticeProcess@HelpWnd@@IAEXXZ
_TEXT	SEGMENT
?PracticeProcess@HelpWnd@@IAEXXZ PROC			; HelpWnd::PracticeProcess, COMDAT
; _this$ = ecx

; 2134 : {

  00000	53		 push	 ebx
  00001	56		 push	 esi
  00002	57		 push	 edi
  00003	8b d9		 mov	 ebx, ecx

; 2135 : 	if( g_App.GetConnectedMoveMode() != ioApplication::CMM_LOBBY )

  00005	e8 00 00 00 00	 call	 ?GetSingleton@ioApplication@@SAAAV1@XZ ; ioApplication::GetSingleton
  0000a	33 ff		 xor	 edi, edi
  0000c	83 b8 ac 06 00
	00 02		 cmp	 DWORD PTR [eax+1708], 2
  00013	74 26		 je	 SHORT $LN13@PracticePr

; 2136 : 	{
; 2137 : 		if( g_GUIMgr.IsShow( LOBBY_QUICK_EXIT_WND ) )

  00015	be 69 18 00 00	 mov	 esi, 6249		; 00001869H
  0001a	56		 push	 esi
  0001b	e8 00 00 00 00	 call	 ?GetSingleton@ioSP2GUIManager@@SAAAV1@XZ ; ioSP2GUIManager::GetSingleton
  00020	8b c8		 mov	 ecx, eax
  00022	ff 15 00 00 00
	00		 call	 DWORD PTR __imp_?IsShow@ioGUIManager@@QAE_NK@Z
  00028	84 c0		 test	 al, al
  0002a	74 0f		 je	 SHORT $LN13@PracticePr

; 2138 : 			g_GUIMgr.HideWnd( LOBBY_QUICK_EXIT_WND );

  0002c	57		 push	 edi
  0002d	56		 push	 esi
  0002e	e8 00 00 00 00	 call	 ?GetSingleton@ioSP2GUIManager@@SAAAV1@XZ ; ioSP2GUIManager::GetSingleton
  00033	8b c8		 mov	 ecx, eax
  00035	ff 15 00 00 00
	00		 call	 DWORD PTR __imp_?HideWnd@ioGUIManager@@QAEXK_N@Z
$LN13@PracticePr:

; 2139 : 	}
; 2140 : 
; 2141 : 	if( !g_MyInfo.IsTutorialUser() )

  0003b	e8 00 00 00 00	 call	 ?GetSingleton@ioMyInfo@@SAAAV1@XZ ; ioMyInfo::GetSingleton
  00040	8b c8		 mov	 ecx, eax
  00042	e8 00 00 00 00	 call	 ?IsTutorialUser@ioMyInfo@@QAE_NXZ ; ioMyInfo::IsTutorialUser
  00047	84 c0		 test	 al, al
  00049	0f 85 c9 00 00
	00		 jne	 $LN12@PracticePr

; 2142 : 	{
; 2143 : 		if( m_pPlayStage )

  0004f	8b 83 80 01 00
	00		 mov	 eax, DWORD PTR [ebx+384]
  00055	3b c7		 cmp	 eax, edi
  00057	74 44		 je	 SHORT $LN7@PracticePr

; 2144 : 		{
; 2145 : 			ioHeadquartersMode *pHeadquartersMode = ToHeadquartersMode( m_pPlayStage->GetPlayMode() );

  00059	ff b0 10 01 00
	00		 push	 DWORD PTR [eax+272]
  0005f	e8 00 00 00 00	 call	 ?ToHeadquartersMode@@YAPAVioHeadquartersMode@@PAVioPlayMode@@@Z ; ToHeadquartersMode
  00064	8b f0		 mov	 esi, eax
  00066	59		 pop	 ecx

; 2146 : 			if( pHeadquartersMode )

  00067	3b f7		 cmp	 esi, edi
  00069	74 32		 je	 SHORT $LN7@PracticePr

; 2147 : 			{
; 2148 : 				if( pHeadquartersMode->GetMasterName() != g_MyInfo.GetPublicID() )

  0006b	e8 00 00 00 00	 call	 ?GetSingleton@ioMyInfo@@SAAAV1@XZ ; ioMyInfo::GetSingleton
  00070	83 c0 1c	 add	 eax, 28			; 0000001cH
  00073	50		 push	 eax
  00074	8d 8e f4 04 00
	00		 lea	 ecx, DWORD PTR [esi+1268]
  0007a	ff 15 00 00 00
	00		 call	 DWORD PTR __imp_??9ioHashString@@QBE_NABV0@@Z
  00080	84 c0		 test	 al, al
  00082	74 08		 je	 SHORT $LN9@PracticePr

; 2149 : 				{
; 2150 : 					g_GUIMgr.SetMsgBox( MB_OK, NULL, STR(2) );

  00084	57		 push	 edi
  00085	6a 02		 push	 2

; 2151 : 					return;

  00087	e9 8f 00 00 00	 jmp	 $LN26@PracticePr
$LN9@PracticePr:

; 2152 : 				}
; 2153 : 				else if( pHeadquartersMode->GetRecordPlayUserCnt() > 1 )

  0008c	8b ce		 mov	 ecx, esi
  0008e	e8 00 00 00 00	 call	 ?GetRecordPlayUserCnt@ioHeadquartersMode@@QAEHXZ ; ioHeadquartersMode::GetRecordPlayUserCnt
  00093	83 f8 01	 cmp	 eax, 1
  00096	7e 05		 jle	 SHORT $LN7@PracticePr

; 2154 : 				{
; 2155 : 					g_GUIMgr.SetMsgBox( MB_OK, NULL, STR(3) );

  00098	57		 push	 edi
  00099	6a 03		 push	 3

; 2156 : 					return;

  0009b	eb 7e		 jmp	 SHORT $LN26@PracticePr
$LN7@PracticePr:

; 2157 : 				}
; 2158 : 			}
; 2159 : 		}
; 2160 : 
; 2161 : 		PracticeHelpWnd *pPracticeHelp = dynamic_cast<PracticeHelpWnd *>( g_GUIMgr.FindWnd(PRACTICE_HELP_WND) );

  0009d	57		 push	 edi
  0009e	68 00 00 00 00	 push	 OFFSET ??_R0?AVPracticeHelpWnd@@@8
  000a3	68 00 00 00 00	 push	 OFFSET ??_R0?AVioWnd@@@8
  000a8	57		 push	 edi
  000a9	68 b1 17 00 00	 push	 6065			; 000017b1H
  000ae	e8 00 00 00 00	 call	 ?GetSingleton@ioSP2GUIManager@@SAAAV1@XZ ; ioSP2GUIManager::GetSingleton
  000b3	8b c8		 mov	 ecx, eax
  000b5	ff 15 00 00 00
	00		 call	 DWORD PTR __imp_?FindWnd@ioGUIManager@@QAEPAVioWnd@@K@Z
  000bb	50		 push	 eax
  000bc	e8 00 00 00 00	 call	 ___RTDynamicCast
  000c1	8b f0		 mov	 esi, eax
  000c3	83 c4 14	 add	 esp, 20			; 00000014H

; 2162 : 		if( !pPracticeHelp ) return;

  000c6	3b f7		 cmp	 esi, edi
  000c8	74 7a		 je	 SHORT $LN1@PracticePr

; 2163 : 
; 2164 : 		if( pPracticeHelp->IsShow() )

  000ca	8b ce		 mov	 ecx, esi
  000cc	ff 15 00 00 00
	00		 call	 DWORD PTR __imp_?IsShow@ioWnd@@QBE_NXZ
  000d2	84 c0		 test	 al, al
  000d4	74 0b		 je	 SHORT $LN5@PracticePr

; 2165 : 			pPracticeHelp->HideWnd();

  000d6	5f		 pop	 edi
  000d7	8b ce		 mov	 ecx, esi
  000d9	5e		 pop	 esi
  000da	5b		 pop	 ebx
  000db	ff 25 00 00 00
	00		 jmp	 DWORD PTR __imp_?HideWnd@ioWnd@@QAEXXZ
$LN5@PracticePr:

; 2166 : 		else if( g_GUIMgr.IsShow( SOLDIER_PRACTICE_SELECT_WND ) )

  000e1	be b4 17 00 00	 mov	 esi, 6068		; 000017b4H
  000e6	56		 push	 esi
  000e7	e8 00 00 00 00	 call	 ?GetSingleton@ioSP2GUIManager@@SAAAV1@XZ ; ioSP2GUIManager::GetSingleton
  000ec	8b c8		 mov	 ecx, eax
  000ee	ff 15 00 00 00
	00		 call	 DWORD PTR __imp_?IsShow@ioGUIManager@@QAE_NK@Z

; 2167 : 			g_GUIMgr.HideWnd( SOLDIER_PRACTICE_SELECT_WND );

  000f4	57		 push	 edi
  000f5	56		 push	 esi
  000f6	84 c0		 test	 al, al
  000f8	74 0f		 je	 SHORT $LN3@PracticePr
  000fa	e8 00 00 00 00	 call	 ?GetSingleton@ioSP2GUIManager@@SAAAV1@XZ ; ioSP2GUIManager::GetSingleton
  000ff	8b c8		 mov	 ecx, eax
  00101	ff 15 00 00 00
	00		 call	 DWORD PTR __imp_?HideWnd@ioGUIManager@@QAEXK_N@Z

; 2168 : 		else

  00107	eb 3b		 jmp	 SHORT $LN1@PracticePr
$LN3@PracticePr:

; 2169 : 			g_GUIMgr.ShowWnd( SOLDIER_PRACTICE_SELECT_WND );

  00109	e8 00 00 00 00	 call	 ?GetSingleton@ioSP2GUIManager@@SAAAV1@XZ ; ioSP2GUIManager::GetSingleton
  0010e	8b c8		 mov	 ecx, eax
  00110	ff 15 00 00 00
	00		 call	 DWORD PTR __imp_?ShowWnd@ioGUIManager@@QAEXK_N@Z

; 2170 : 	}
; 2171 : 	else

  00116	eb 2c		 jmp	 SHORT $LN1@PracticePr
$LN12@PracticePr:

; 2172 : 	{
; 2173 : 		g_GUIMgr.SetMsgBox( MB_OK, NULL, STR(1) );

  00118	57		 push	 edi
  00119	6a 01		 push	 1
$LN26@PracticePr:
  0011b	68 00 00 00 00	 push	 OFFSET ??_C@_00CNPNBAHC@?$AA@
  00120	68 00 00 00 00	 push	 OFFSET ??_C@_0BJ@OGLCMBKK@HelpWnd?3?3PracticeProcess?$AA@
  00125	ff 15 00 00 00
	00		 call	 DWORD PTR __imp_?GetSingleton@ioStringManager@@SAAAV1@XZ
  0012b	8b c8		 mov	 ecx, eax
  0012d	ff 15 00 00 00
	00		 call	 DWORD PTR __imp_?GetString@ioStringManager@@QAEPADPBD0HW4FileNamePrefix@1@@Z
  00133	50		 push	 eax
  00134	57		 push	 edi
  00135	57		 push	 edi
  00136	e8 00 00 00 00	 call	 ?GetSingleton@ioSP2GUIManager@@SAAAV1@XZ ; ioSP2GUIManager::GetSingleton
  0013b	50		 push	 eax
  0013c	e8 00 00 00 00	 call	 ?SetMsgBox@ioSP2GUIManager@@QAAXHPAVioWnd@@PBDZZ ; ioSP2GUIManager::SetMsgBox
  00141	83 c4 10	 add	 esp, 16			; 00000010H
$LN1@PracticePr:

; 2174 : 	}
; 2175 : }

  00144	5f		 pop	 edi
  00145	5e		 pop	 esi
  00146	5b		 pop	 ebx
  00147	c3		 ret	 0
?PracticeProcess@HelpWnd@@IAEXXZ ENDP			; HelpWnd::PracticeProcess
_TEXT	ENDS
PUBLIC	__real@42100000
PUBLIC	__real@4042000000000000
PUBLIC	__$ArrayPad$
PUBLIC	?OnProcessMove@HelpWnd@@IAEXXZ			; HelpWnd::OnProcessMove
EXTRN	__imp_?SetWndPos@ioWnd@@QAEXHH@Z:PROC
EXTRN	__imp__PtInRect@12:PROC
EXTRN	__imp_?GetMousePos@ioMouse@@QBEABUtagPOINT@@XZ:PROC
EXTRN	?Height@Setting@@SAHXZ:PROC			; Setting::Height
EXTRN	__imp_?GetXPos@ioWnd@@QBEHXZ:PROC
;	COMDAT __real@42100000
; File c:\program files (x86)\microsoft visual studio 10.0\vc\include\math.h
CONST	SEGMENT
__real@42100000 DD 042100000r			; 36
CONST	ENDS
;	COMDAT __real@4042000000000000
CONST	SEGMENT
__real@4042000000000000 DQ 04042000000000000r	; 36
; Function compile flags: /Ogsp
; File d:\lost saga for developer\youtube\tutorial\source\src\lsclient\gui\helpwnd.cpp
CONST	ENDS
;	COMDAT ?OnProcessMove@HelpWnd@@IAEXXZ
_TEXT	SEGMENT
tv618 = -28						; size = 4
tv607 = -28						; size = 4
tv595 = -28						; size = 4
tv589 = -28						; size = 4
$T570368 = -28						; size = 4
$T570341 = -28						; size = 4
$T570325 = -28						; size = 4
$T570321 = -28						; size = 4
_pRePosBtn$558866 = -28					; size = 4
tv627 = -24						; size = 4
tv622 = -24						; size = 4
tv614 = -24						; size = 4
tv611 = -24						; size = 4
tv602 = -24						; size = 4
tv599 = -24						; size = 4
tv553 = -24						; size = 4
tv520 = -24						; size = 4
tv505 = -24						; size = 4
tv499 = -24						; size = 4
tv495 = -24						; size = 4
$T570345 = -24						; size = 4
_pRePosBtn$558850 = -24					; size = 4
_rcRect$558829 = -20					; size = 16
_rcRect$558823 = -20					; size = 16
tv441 = -12						; size = 8
tv566 = -8						; size = 4
tv562 = -8						; size = 4
tv558 = -8						; size = 4
tv548 = -8						; size = 4
tv545 = -8						; size = 4
tv513 = -8						; size = 4
tv509 = -8						; size = 4
__$ArrayPad$ = -4					; size = 4
?OnProcessMove@HelpWnd@@IAEXXZ PROC			; HelpWnd::OnProcessMove, COMDAT
; _this$ = ecx

; 2592 : {

  00000	55		 push	 ebp
  00001	8b ec		 mov	 ebp, esp
  00003	83 ec 1c	 sub	 esp, 28			; 0000001cH
  00006	a1 00 00 00 00	 mov	 eax, DWORD PTR ___security_cookie
  0000b	33 c5		 xor	 eax, ebp
  0000d	89 45 fc	 mov	 DWORD PTR __$ArrayPad$[ebp], eax
  00010	56		 push	 esi
  00011	8b f1		 mov	 esi, ecx

; 2593 : 	// ///  
; 2594 : 	if( ioPlayMode::GetModeType() == MT_MYROOM || ioPlayMode::GetModeType() == MT_TRAINING || ioPlayMode::GetModeType() == MT_HEADQUARTERS || ioPlayMode::GetModeType() == MT_HOUSE )

  00013	e8 00 00 00 00	 call	 ?GetModeType@ioPlayMode@@SA?AW4ModeType@@XZ ; ioPlayMode::GetModeType
  00018	83 f8 18	 cmp	 eax, 24			; 00000018H
  0001b	0f 84 0b 05 00
	00		 je	 $LN6@OnProcessM
  00021	e8 00 00 00 00	 call	 ?GetModeType@ioPlayMode@@SA?AW4ModeType@@XZ ; ioPlayMode::GetModeType
  00026	83 f8 04	 cmp	 eax, 4
  00029	0f 84 fd 04 00
	00		 je	 $LN6@OnProcessM
  0002f	e8 00 00 00 00	 call	 ?GetModeType@ioPlayMode@@SA?AW4ModeType@@XZ ; ioPlayMode::GetModeType
  00034	83 f8 0d	 cmp	 eax, 13			; 0000000dH
  00037	0f 84 ef 04 00
	00		 je	 $LN6@OnProcessM
  0003d	e8 00 00 00 00	 call	 ?GetModeType@ioPlayMode@@SA?AW4ModeType@@XZ ; ioPlayMode::GetModeType
  00042	83 f8 17	 cmp	 eax, 23			; 00000017H
  00045	0f 84 e1 04 00
	00		 je	 $LN6@OnProcessM

; 2595 : 		return;
; 2596 : 
; 2597 : 	//     
; 2598 : 	if( TotalResultMainWnd::IsHelpBarShow() )

  0004b	80 3d 00 00 00
	00 00		 cmp	 BYTE PTR ?sg_bHelpBarShow@TotalResultMainWnd@@1_NA, 0 ; TotalResultMainWnd::sg_bHelpBarShow
  00052	53		 push	 ebx
  00053	57		 push	 edi
  00054	8b 3d 00 00 00
	00		 mov	 edi, DWORD PTR __imp_?GetSingleton@ioFrameTimer@@SAAAV1@XZ
  0005a	74 36		 je	 SHORT $LN69@OnProcessM

; 2599 : 	{
; 2600 : 		if( sg_dwMoveState == MOVE_STATE_SHOW && m_dwMoveStateTime == 0 )

  0005c	33 db		 xor	 ebx, ebx
  0005e	39 1d 00 00 00
	00		 cmp	 DWORD PTR ?sg_dwMoveState@HelpWnd@@1KA, ebx ; HelpWnd::sg_dwMoveState
  00064	75 0e		 jne	 SHORT $LN68@OnProcessM
  00066	39 9e 9c 01 00
	00		 cmp	 DWORD PTR [esi+412], ebx
  0006c	0f 84 b8 04 00
	00		 je	 $LN70@OnProcessM

; 2601 : 			return;
; 2602 : 		else if( sg_dwMoveState != MOVE_STATE_SHOW )

  00072	eb 20		 jmp	 SHORT $LN28@OnProcessM
$LN68@OnProcessM:

; 2603 : 		{
; 2604 : 			sg_dwMoveState = MOVE_STATE_SHOW;

  00074	89 1d 00 00 00
	00		 mov	 DWORD PTR ?sg_dwMoveState@HelpWnd@@1KA, ebx ; HelpWnd::sg_dwMoveState

; 2605 : 			m_dwMoveStateDelayTIme = m_dwMoveStateTime = FRAMEGETTIME();

  0007a	ff d7		 call	 edi
  0007c	8b c8		 mov	 ecx, eax
  0007e	ff 15 00 00 00
	00		 call	 DWORD PTR __imp_?GetLoopSec@ioFrameTimer@@QBEKXZ
  00084	89 86 9c 01 00
	00		 mov	 DWORD PTR [esi+412], eax
  0008a	89 86 98 01 00
	00		 mov	 DWORD PTR [esi+408], eax
  00090	eb 02		 jmp	 SHORT $LN28@OnProcessM
$LN69@OnProcessM:
  00092	33 db		 xor	 ebx, ebx
$LN28@OnProcessM:

; 2606 : 		}
; 2607 : 	}
; 2608 : 
; 2609 : 	if( m_dwMoveStateTime == 0 )

  00094	39 9e 9c 01 00
	00		 cmp	 DWORD PTR [esi+412], ebx
  0009a	0f 85 82 01 00
	00		 jne	 $LN27@OnProcessM

; 2610 : 	{
; 2611 : 		if( sg_dwMoveState == MOVE_STATE_SHOW )

  000a0	39 1d 00 00 00
	00		 cmp	 DWORD PTR ?sg_dwMoveState@HelpWnd@@1KA, ebx ; HelpWnd::sg_dwMoveState
  000a6	75 17		 jne	 SHORT $LN26@OnProcessM

; 2612 : 		{
; 2613 : 			if( FRAMEGETTIME() - m_dwMoveStateDelayTIme < 2000 )

  000a8	ff d7		 call	 edi
  000aa	8b c8		 mov	 ecx, eax
  000ac	ff 15 00 00 00
	00		 call	 DWORD PTR __imp_?GetLoopSec@ioFrameTimer@@QBEKXZ
  000b2	2b 86 98 01 00
	00		 sub	 eax, DWORD PTR [esi+408]
  000b8	3d d0 07 00 00	 cmp	 eax, 2000		; 000007d0H

; 2614 : 				return;
; 2615 : 		}
; 2616 : 		else

  000bd	eb 15		 jmp	 SHORT $LN85@OnProcessM
$LN26@OnProcessM:

; 2617 : 		{
; 2618 : 			if( FRAMEGETTIME() - m_dwMoveStateDelayTIme < 1000 )

  000bf	ff d7		 call	 edi
  000c1	8b c8		 mov	 ecx, eax
  000c3	ff 15 00 00 00
	00		 call	 DWORD PTR __imp_?GetLoopSec@ioFrameTimer@@QBEKXZ
  000c9	2b 86 98 01 00
	00		 sub	 eax, DWORD PTR [esi+408]
  000cf	3d e8 03 00 00	 cmp	 eax, 1000		; 000003e8H
$LN85@OnProcessM:
  000d4	0f 82 50 04 00
	00		 jb	 $LN70@OnProcessM

; 2619 : 				return;
; 2620 : 		}
; 2621 : 
; 2622 : 		//   9 .
; 2623 : 		if( FRAMEGETTIME() - m_dwMoveStateStartDelayTIme < m_dwShowKeepTime )

  000da	ff d7		 call	 edi
  000dc	8b c8		 mov	 ecx, eax
  000de	ff 15 00 00 00
	00		 call	 DWORD PTR __imp_?GetLoopSec@ioFrameTimer@@QBEKXZ
  000e4	2b 86 94 01 00
	00		 sub	 eax, DWORD PTR [esi+404]
  000ea	3b 86 90 01 00
	00		 cmp	 eax, DWORD PTR [esi+400]
  000f0	0f 82 34 04 00
	00		 jb	 $LN70@OnProcessM

; 2624 : 			return;
; 2625 : 
; 2626 : 		// 
; 2627 : 		switch( sg_dwMoveState )

  000f6	a1 00 00 00 00	 mov	 eax, DWORD PTR ?sg_dwMoveState@HelpWnd@@1KA ; HelpWnd::sg_dwMoveState
  000fb	2b c3		 sub	 eax, ebx
  000fd	0f 84 87 00 00
	00		 je	 $LN19@OnProcessM
  00103	48		 dec	 eax
  00104	0f 85 20 04 00
	00		 jne	 $LN70@OnProcessM

; 2638 : 				}
; 2639 : 			}
; 2640 : 			break;
; 2641 : 		case MOVE_STATE_HIDE:
; 2642 : 			{
; 2643 : 				//  
; 2644 : 				if( g_App.IsVisibleMouse() )

  0010a	e8 00 00 00 00	 call	 ?GetSingleton@ioApplication@@SAAAV1@XZ ; ioApplication::GetSingleton
  0010f	8b c8		 mov	 ecx, eax
  00111	e8 00 00 00 00	 call	 ?IsVisibleMouse@ioApplication@@QAE_NXZ ; ioApplication::IsVisibleMouse
  00116	84 c0		 test	 al, al
  00118	0f 84 0c 04 00
	00		 je	 $LN70@OnProcessM

; 2645 : 				{
; 2646 : 					ioLSMouse *pMouse = g_App.GetMouse();

  0011e	e8 00 00 00 00	 call	 ?GetSingleton@ioApplication@@SAAAV1@XZ ; ioApplication::GetSingleton

; 2647 : 					RECT rcRect = { GetXPos(), Setting::Height() - 10, GetXPos() + GetWidth(), Setting::Height() };

  00123	8b ce		 mov	 ecx, esi
  00125	89 45 e4	 mov	 DWORD PTR $T570325[ebp], eax
  00128	ff 15 00 00 00
	00		 call	 DWORD PTR __imp_?GetXPos@ioWnd@@QBEHXZ
  0012e	89 45 ec	 mov	 DWORD PTR _rcRect$558829[ebp], eax
  00131	e8 00 00 00 00	 call	 ?Height@Setting@@SAHXZ	; Setting::Height
  00136	83 e8 0a	 sub	 eax, 10			; 0000000aH
  00139	8b ce		 mov	 ecx, esi
  0013b	89 45 f0	 mov	 DWORD PTR _rcRect$558829[ebp+4], eax
  0013e	ff 15 00 00 00
	00		 call	 DWORD PTR __imp_?GetWidth@ioWnd@@QBEHXZ
  00144	8b ce		 mov	 ecx, esi
  00146	8b d8		 mov	 ebx, eax
  00148	ff 15 00 00 00
	00		 call	 DWORD PTR __imp_?GetXPos@ioWnd@@QBEHXZ
  0014e	03 d8		 add	 ebx, eax
  00150	89 5d f4	 mov	 DWORD PTR _rcRect$558829[ebp+8], ebx
  00153	e8 00 00 00 00	 call	 ?Height@Setting@@SAHXZ	; Setting::Height
  00158	8b 4d e4	 mov	 ecx, DWORD PTR $T570325[ebp]
  0015b	81 c1 90 00 00
	00		 add	 ecx, 144		; 00000090H
  00161	89 45 f8	 mov	 DWORD PTR _rcRect$558829[ebp+12], eax

; 2648 : 					if( ::PtInRect( &rcRect, pMouse->GetMousePos() ) )

  00164	ff 15 00 00 00
	00		 call	 DWORD PTR __imp_?GetMousePos@ioMouse@@QBEABUtagPOINT@@XZ
  0016a	ff 70 04	 push	 DWORD PTR [eax+4]
  0016d	ff 30		 push	 DWORD PTR [eax]
  0016f	8d 45 ec	 lea	 eax, DWORD PTR _rcRect$558829[ebp]
  00172	50		 push	 eax
  00173	ff 15 00 00 00
	00		 call	 DWORD PTR __imp__PtInRect@12
  00179	85 c0		 test	 eax, eax
  0017b	0f 84 a9 03 00
	00		 je	 $LN70@OnProcessM

; 2649 : 					{
; 2650 : 						sg_dwMoveState = MOVE_STATE_SHOW;

  00181	83 25 00 00 00
	00 00		 and	 DWORD PTR ?sg_dwMoveState@HelpWnd@@1KA, 0 ; HelpWnd::sg_dwMoveState

; 2651 : 						m_dwMoveStateDelayTIme = m_dwMoveStateTime = FRAMEGETTIME();
; 2652 : 					}
; 2653 : 				}
; 2654 : 			}
; 2655 : 			break;

  00188	eb 7d		 jmp	 SHORT $LN87@OnProcessM
$LN19@OnProcessM:

; 2628 : 		{
; 2629 : 		case MOVE_STATE_SHOW:
; 2630 : 			{
; 2631 : 				//  
; 2632 : 				ioLSMouse *pMouse = g_App.GetMouse();

  0018a	e8 00 00 00 00	 call	 ?GetSingleton@ioApplication@@SAAAV1@XZ ; ioApplication::GetSingleton

; 2633 : 				RECT rcRect = { GetXPos(), Setting::Height() - POS_Y_GAP, GetXPos() + GetWidth(), Setting::Height() };

  0018f	8b ce		 mov	 ecx, esi
  00191	89 45 e4	 mov	 DWORD PTR $T570321[ebp], eax
  00194	ff 15 00 00 00
	00		 call	 DWORD PTR __imp_?GetXPos@ioWnd@@QBEHXZ
  0019a	89 45 ec	 mov	 DWORD PTR _rcRect$558823[ebp], eax
  0019d	e8 00 00 00 00	 call	 ?Height@Setting@@SAHXZ	; Setting::Height
  001a2	83 e8 2a	 sub	 eax, 42			; 0000002aH
  001a5	8b ce		 mov	 ecx, esi
  001a7	89 45 f0	 mov	 DWORD PTR _rcRect$558823[ebp+4], eax
  001aa	ff 15 00 00 00
	00		 call	 DWORD PTR __imp_?GetWidth@ioWnd@@QBEHXZ
  001b0	8b ce		 mov	 ecx, esi
  001b2	8b d8		 mov	 ebx, eax
  001b4	ff 15 00 00 00
	00		 call	 DWORD PTR __imp_?GetXPos@ioWnd@@QBEHXZ
  001ba	03 d8		 add	 ebx, eax
  001bc	89 5d f4	 mov	 DWORD PTR _rcRect$558823[ebp+8], ebx
  001bf	e8 00 00 00 00	 call	 ?Height@Setting@@SAHXZ	; Setting::Height
  001c4	89 45 f8	 mov	 DWORD PTR _rcRect$558823[ebp+12], eax

; 2634 : 				if( !g_App.IsVisibleMouse() || !::PtInRect( &rcRect, pMouse->GetMousePos() ) )

  001c7	e8 00 00 00 00	 call	 ?GetSingleton@ioApplication@@SAAAV1@XZ ; ioApplication::GetSingleton
  001cc	8b c8		 mov	 ecx, eax
  001ce	e8 00 00 00 00	 call	 ?IsVisibleMouse@ioApplication@@QAE_NXZ ; ioApplication::IsVisibleMouse
  001d3	84 c0		 test	 al, al
  001d5	74 26		 je	 SHORT $LN17@OnProcessM

; 2628 : 		{
; 2629 : 		case MOVE_STATE_SHOW:
; 2630 : 			{
; 2631 : 				//  
; 2632 : 				ioLSMouse *pMouse = g_App.GetMouse();

  001d7	8b 4d e4	 mov	 ecx, DWORD PTR $T570321[ebp]
  001da	81 c1 90 00 00
	00		 add	 ecx, 144		; 00000090H

; 2634 : 				if( !g_App.IsVisibleMouse() || !::PtInRect( &rcRect, pMouse->GetMousePos() ) )

  001e0	ff 15 00 00 00
	00		 call	 DWORD PTR __imp_?GetMousePos@ioMouse@@QBEABUtagPOINT@@XZ
  001e6	ff 70 04	 push	 DWORD PTR [eax+4]
  001e9	ff 30		 push	 DWORD PTR [eax]
  001eb	8d 45 ec	 lea	 eax, DWORD PTR _rcRect$558823[ebp]
  001ee	50		 push	 eax
  001ef	ff 15 00 00 00
	00		 call	 DWORD PTR __imp__PtInRect@12
  001f5	85 c0		 test	 eax, eax
  001f7	0f 85 2d 03 00
	00		 jne	 $LN70@OnProcessM
$LN17@OnProcessM:

; 2635 : 				{
; 2636 : 					sg_dwMoveState = MOVE_STATE_HIDE;

  001fd	c7 05 00 00 00
	00 01 00 00 00	 mov	 DWORD PTR ?sg_dwMoveState@HelpWnd@@1KA, 1 ; HelpWnd::sg_dwMoveState
$LN87@OnProcessM:

; 2637 : 					m_dwMoveStateDelayTIme = m_dwMoveStateTime = FRAMEGETTIME();

  00207	ff d7		 call	 edi
  00209	8b c8		 mov	 ecx, eax
  0020b	ff 15 00 00 00
	00		 call	 DWORD PTR __imp_?GetLoopSec@ioFrameTimer@@QBEKXZ
  00211	89 86 9c 01 00
	00		 mov	 DWORD PTR [esi+412], eax
  00217	89 86 98 01 00
	00		 mov	 DWORD PTR [esi+408], eax

; 2656 : 		}
; 2657 : 	}
; 2658 : 	else

  0021d	e9 08 03 00 00	 jmp	 $LN70@OnProcessM
$LN27@OnProcessM:

; 2659 : 	{
; 2660 : 		//  
; 2661 : 		switch( sg_dwMoveState )

  00222	a1 00 00 00 00	 mov	 eax, DWORD PTR ?sg_dwMoveState@HelpWnd@@1KA ; HelpWnd::sg_dwMoveState
  00227	2b c3		 sub	 eax, ebx
  00229	0f 84 48 01 00
	00		 je	 $LN10@OnProcessM
  0022f	48		 dec	 eax
  00230	0f 85 f4 02 00
	00		 jne	 $LN70@OnProcessM

; 2689 : 				}
; 2690 : 			}
; 2691 : 			break;
; 2692 : 		case MOVE_STATE_HIDE:
; 2693 : 			{
; 2694 : 				DWORD dwTimeGap = FRAMEGETTIME() - m_dwMoveStateTime;

  00236	ff d7		 call	 edi
  00238	8b c8		 mov	 ecx, eax
  0023a	ff 15 00 00 00
	00		 call	 DWORD PTR __imp_?GetLoopSec@ioFrameTimer@@QBEKXZ
  00240	8b c8		 mov	 ecx, eax
  00242	2b 8e 9c 01 00
	00		 sub	 ecx, DWORD PTR [esi+412]

; 2695 : 				if( dwTimeGap < ANI_FRAME_TIME )

  00248	83 f9 64	 cmp	 ecx, 100		; 00000064H
  0024b	0f 83 b7 00 00
	00		 jae	 $LN4@OnProcessM

; 2696 : 				{
; 2697 : 					float fRate = sinf( ( FLOAT_PI * FLOAT05 ) * ( (float)dwTimeGap / FLOAT100 ) );

  00251	b8 4e e6 40 bb	 mov	 eax, -1153374642	; bb40e64eH
  00256	8b d0		 mov	 edx, eax
  00258	b8 00 ca 9a 3b	 mov	 eax, 1000000000		; 3b9aca00H
  0025d	8b f8		 mov	 edi, eax
  0025f	b8 05 00 00 00	 mov	 eax, 5
  00264	8b d8		 mov	 ebx, eax
  00266	b8 0a 00 00 00	 mov	 eax, 10			; 0000000aH
  0026b	89 45 e4	 mov	 DWORD PTR $T570368[ebp], eax
  0026e	b8 64 00 00 00	 mov	 eax, 100		; 00000064H

; 2698 : 					m_fMoveWndYPos = (float)MAX_ANI_YPOS * fRate;

  00273	89 5d e8	 mov	 DWORD PTR tv627[ebp], ebx
  00276	db 45 e8	 fild	 DWORD PTR tv627[ebp]
  00279	85 db		 test	 ebx, ebx
  0027b	79 06		 jns	 SHORT $LN72@OnProcessM
  0027d	d8 05 00 00 00
	00		 fadd	 DWORD PTR __real@4f800000
$LN72@OnProcessM:
  00283	8b 5d e4	 mov	 ebx, DWORD PTR $T570368[ebp]
  00286	db 45 e4	 fild	 DWORD PTR $T570368[ebp]
  00289	85 db		 test	 ebx, ebx
  0028b	79 06		 jns	 SHORT $LN73@OnProcessM
  0028d	d8 05 00 00 00
	00		 fadd	 DWORD PTR __real@4f800000
$LN73@OnProcessM:

; 2696 : 				{
; 2697 : 					float fRate = sinf( ( FLOAT_PI * FLOAT05 ) * ( (float)dwTimeGap / FLOAT100 ) );

  00293	de f9		 fdivp	 ST(1), ST(0)

; 2698 : 					m_fMoveWndYPos = (float)MAX_ANI_YPOS * fRate;

  00295	89 55 e8	 mov	 DWORD PTR tv614[ebp], edx
  00298	d9 5d e4	 fstp	 DWORD PTR tv618[ebp]
  0029b	d9 45 e4	 fld	 DWORD PTR tv618[ebp]
  0029e	db 45 e8	 fild	 DWORD PTR tv614[ebp]
  002a1	85 d2		 test	 edx, edx
  002a3	79 06		 jns	 SHORT $LN74@OnProcessM
  002a5	d8 05 00 00 00
	00		 fadd	 DWORD PTR __real@4f800000
$LN74@OnProcessM:
  002ab	89 7d e8	 mov	 DWORD PTR tv611[ebp], edi
  002ae	db 45 e8	 fild	 DWORD PTR tv611[ebp]
  002b1	85 ff		 test	 edi, edi
  002b3	79 06		 jns	 SHORT $LN75@OnProcessM
  002b5	d8 05 00 00 00
	00		 fadd	 DWORD PTR __real@4f800000
$LN75@OnProcessM:

; 2696 : 				{
; 2697 : 					float fRate = sinf( ( FLOAT_PI * FLOAT05 ) * ( (float)dwTimeGap / FLOAT100 ) );

  002bb	de f9		 fdivp	 ST(1), ST(0)

; 2698 : 					m_fMoveWndYPos = (float)MAX_ANI_YPOS * fRate;

  002bd	89 4d e8	 mov	 DWORD PTR tv602[ebp], ecx
  002c0	d9 5d e4	 fstp	 DWORD PTR tv607[ebp]
  002c3	d8 4d e4	 fmul	 DWORD PTR tv607[ebp]
  002c6	db 45 e8	 fild	 DWORD PTR tv602[ebp]
  002c9	85 c9		 test	 ecx, ecx
  002cb	79 06		 jns	 SHORT $LN76@OnProcessM
  002cd	d8 05 00 00 00
	00		 fadd	 DWORD PTR __real@4f800000
$LN76@OnProcessM:
  002d3	89 45 e8	 mov	 DWORD PTR tv599[ebp], eax
  002d6	db 45 e8	 fild	 DWORD PTR tv599[ebp]
  002d9	85 c0		 test	 eax, eax
  002db	79 06		 jns	 SHORT $LN77@OnProcessM
  002dd	d8 05 00 00 00
	00		 fadd	 DWORD PTR __real@4f800000
$LN77@OnProcessM:

; 2696 : 				{
; 2697 : 					float fRate = sinf( ( FLOAT_PI * FLOAT05 ) * ( (float)dwTimeGap / FLOAT100 ) );

  002e3	de f9		 fdivp	 ST(1), ST(0)
  002e5	de c9		 fmulp	 ST(1), ST(0)

; 2698 : 					m_fMoveWndYPos = (float)MAX_ANI_YPOS * fRate;

  002e7	d9 5d e4	 fstp	 DWORD PTR tv595[ebp]
  002ea	d9 45 e4	 fld	 DWORD PTR tv595[ebp]
  002ed	e8 00 00 00 00	 call	 __CIsin
  002f2	d9 5d e4	 fstp	 DWORD PTR tv589[ebp]
  002f5	d9 45 e4	 fld	 DWORD PTR tv589[ebp]

; 2699 : 				}
; 2700 : 				else

  002f8	33 db		 xor	 ebx, ebx
  002fa	dc 0d 00 00 00
	00		 fmul	 QWORD PTR __real@4042000000000000
  00300	d9 9e a0 01 00
	00		 fstp	 DWORD PTR [esi+416]
  00306	eb 16		 jmp	 SHORT $LN3@OnProcessM
$LN4@OnProcessM:

; 2701 : 				{
; 2702 : 					m_dwMoveStateTime = 0;
; 2703 : 					m_fMoveWndYPos    = MAX_ANI_YPOS;					

  00308	f3 0f 10 05 00
	00 00 00	 movss	 xmm0, DWORD PTR __real@42100000
  00310	89 9e 9c 01 00
	00		 mov	 DWORD PTR [esi+412], ebx
  00316	f3 0f 11 86 a0
	01 00 00	 movss	 DWORD PTR [esi+416], xmm0
$LN3@OnProcessM:

; 2704 : 				}
; 2705 : 				SetWndPos( POS_X_GAP, (Setting::Height() - POS_Y_GAP) + m_fMoveWndYPos );				

  0031e	e8 00 00 00 00	 call	 ?Height@Setting@@SAHXZ	; Setting::Height
  00323	f3 0f 10 8e a0
	01 00 00	 movss	 xmm1, DWORD PTR [esi+416]
  0032b	83 e8 2a	 sub	 eax, 42			; 0000002aH
  0032e	0f 57 c0	 xorps	 xmm0, xmm0
  00331	f3 0f 2a c0	 cvtsi2ss xmm0, eax
  00335	0f 5a c0	 cvtps2pd xmm0, xmm0
  00338	0f 5a c9	 cvtps2pd xmm1, xmm1
  0033b	f2 0f 58 c1	 addsd	 xmm0, xmm1
  0033f	f2 0f 2c c0	 cvttsd2si eax, xmm0
  00343	50		 push	 eax
  00344	6a 0e		 push	 14			; 0000000eH
  00346	8b ce		 mov	 ecx, esi
  00348	ff 15 00 00 00
	00		 call	 DWORD PTR __imp_?SetWndPos@ioWnd@@QAEXHH@Z

; 2706 : 
; 2707 : 				ioWnd *pRePosBtn = FindChildWnd( ID_MESSENGER );

  0034e	8b 3d 00 00 00
	00		 mov	 edi, DWORD PTR __imp_?FindChildWnd@ioWnd@@QAEPAV1@K@Z
  00354	6a 1e		 push	 30			; 0000001eH
  00356	8b ce		 mov	 ecx, esi
  00358	ff d7		 call	 edi

; 2708 : 				if( pRePosBtn )

  0035a	3b c3		 cmp	 eax, ebx
  0035c	8b 1d 00 00 00
	00		 mov	 ebx, DWORD PTR __imp_?GetDerivedPosX@ioWnd@@QBEHXZ
  00362	89 45 e4	 mov	 DWORD PTR _pRePosBtn$558866[ebp], eax
  00365	0f 84 89 01 00
	00		 je	 $LN7@OnProcessM

; 2709 : 				{
; 2710 : 					sg_fMessengerXPos = pRePosBtn->GetDerivedPosX();

  0036b	8b c8		 mov	 ecx, eax
  0036d	ff d3		 call	 ebx

; 2711 : 					sg_fMessengerYPos = pRePosBtn->GetDerivedPosY();

  0036f	8b 4d e4	 mov	 ecx, DWORD PTR _pRePosBtn$558866[ebp]

; 2712 : 				}
; 2713 : 				pRePosBtn = FindChildWnd( ID_MISSION_QUEST );
; 2714 : 				if( pRePosBtn )
; 2715 : 				{
; 2716 : 					sg_fQuestXPos = pRePosBtn->GetDerivedPosX();
; 2717 : 					sg_fQuestYPos = pRePosBtn->GetDerivedPosY();
; 2718 : 				}
; 2719 : 			}
; 2720 : 			break;

  00372	e9 59 01 00 00	 jmp	 $LN86@OnProcessM
$LN10@OnProcessM:

; 2662 : 		{
; 2663 : 		case MOVE_STATE_SHOW:
; 2664 : 			{
; 2665 : 				DWORD dwTimeGap = FRAMEGETTIME() - m_dwMoveStateTime;

  00377	ff d7		 call	 edi
  00379	8b c8		 mov	 ecx, eax
  0037b	ff 15 00 00 00
	00		 call	 DWORD PTR __imp_?GetLoopSec@ioFrameTimer@@QBEKXZ
  00381	8b c8		 mov	 ecx, eax
  00383	2b 8e 9c 01 00
	00		 sub	 ecx, DWORD PTR [esi+412]

; 2666 : 				if( dwTimeGap < ANI_FRAME_TIME )

  00389	83 f9 64	 cmp	 ecx, 100		; 00000064H
  0038c	0f 83 dd 00 00
	00		 jae	 $LN9@OnProcessM

; 2667 : 				{
; 2668 : 					float fRate = FLOAT1 - ( sinf( ( FLOAT_PI * FLOAT05 ) * ( (float)dwTimeGap / FLOAT100 ) ) );

  00392	b8 01 00 00 00	 mov	 eax, 1
  00397	8b d0		 mov	 edx, eax
  00399	b8 4e e6 40 bb	 mov	 eax, -1153374642	; bb40e64eH
  0039e	8b f8		 mov	 edi, eax
  003a0	b8 00 ca 9a 3b	 mov	 eax, 1000000000		; 3b9aca00H
  003a5	8b d8		 mov	 ebx, eax
  003a7	b8 05 00 00 00	 mov	 eax, 5
  003ac	89 45 e4	 mov	 DWORD PTR $T570341[ebp], eax
  003af	b8 0a 00 00 00	 mov	 eax, 10			; 0000000aH
  003b4	89 45 e8	 mov	 DWORD PTR $T570345[ebp], eax
  003b7	b8 64 00 00 00	 mov	 eax, 100		; 00000064H

; 2669 : 					m_fMoveWndYPos = (float)MAX_ANI_YPOS * fRate;

  003bc	89 55 f8	 mov	 DWORD PTR tv566[ebp], edx
  003bf	db 45 f8	 fild	 DWORD PTR tv566[ebp]
  003c2	85 d2		 test	 edx, edx
  003c4	79 06		 jns	 SHORT $LN78@OnProcessM
  003c6	d8 05 00 00 00
	00		 fadd	 DWORD PTR __real@4f800000
$LN78@OnProcessM:
  003cc	8b 55 e4	 mov	 edx, DWORD PTR $T570341[ebp]
  003cf	db 45 e4	 fild	 DWORD PTR $T570341[ebp]
  003d2	85 d2		 test	 edx, edx
  003d4	79 06		 jns	 SHORT $LN79@OnProcessM
  003d6	d8 05 00 00 00
	00		 fadd	 DWORD PTR __real@4f800000
$LN79@OnProcessM:
  003dc	8b 55 e8	 mov	 edx, DWORD PTR $T570345[ebp]
  003df	db 45 e8	 fild	 DWORD PTR $T570345[ebp]
  003e2	85 d2		 test	 edx, edx
  003e4	79 06		 jns	 SHORT $LN80@OnProcessM
  003e6	d8 05 00 00 00
	00		 fadd	 DWORD PTR __real@4f800000
$LN80@OnProcessM:

; 2667 : 				{
; 2668 : 					float fRate = FLOAT1 - ( sinf( ( FLOAT_PI * FLOAT05 ) * ( (float)dwTimeGap / FLOAT100 ) ) );

  003ec	de f9		 fdivp	 ST(1), ST(0)

; 2669 : 					m_fMoveWndYPos = (float)MAX_ANI_YPOS * fRate;

  003ee	89 7d f8	 mov	 DWORD PTR tv548[ebp], edi
  003f1	d9 5d e8	 fstp	 DWORD PTR tv553[ebp]
  003f4	d9 45 e8	 fld	 DWORD PTR tv553[ebp]
  003f7	db 45 f8	 fild	 DWORD PTR tv548[ebp]
  003fa	85 ff		 test	 edi, edi
  003fc	79 06		 jns	 SHORT $LN81@OnProcessM
  003fe	d8 05 00 00 00
	00		 fadd	 DWORD PTR __real@4f800000
$LN81@OnProcessM:
  00404	89 5d f8	 mov	 DWORD PTR tv545[ebp], ebx
  00407	db 45 f8	 fild	 DWORD PTR tv545[ebp]
  0040a	85 db		 test	 ebx, ebx
  0040c	79 06		 jns	 SHORT $LN82@OnProcessM
  0040e	d8 05 00 00 00
	00		 fadd	 DWORD PTR __real@4f800000
$LN82@OnProcessM:

; 2667 : 				{
; 2668 : 					float fRate = FLOAT1 - ( sinf( ( FLOAT_PI * FLOAT05 ) * ( (float)dwTimeGap / FLOAT100 ) ) );

  00414	de f9		 fdivp	 ST(1), ST(0)

; 2669 : 					m_fMoveWndYPos = (float)MAX_ANI_YPOS * fRate;

  00416	89 4d f8	 mov	 DWORD PTR tv513[ebp], ecx
  00419	d9 5d e8	 fstp	 DWORD PTR tv520[ebp]
  0041c	d8 4d e8	 fmul	 DWORD PTR tv520[ebp]
  0041f	db 45 f8	 fild	 DWORD PTR tv513[ebp]
  00422	85 c9		 test	 ecx, ecx
  00424	79 06		 jns	 SHORT $LN83@OnProcessM
  00426	d8 05 00 00 00
	00		 fadd	 DWORD PTR __real@4f800000
$LN83@OnProcessM:
  0042c	89 45 f8	 mov	 DWORD PTR tv509[ebp], eax
  0042f	db 45 f8	 fild	 DWORD PTR tv509[ebp]
  00432	85 c0		 test	 eax, eax
  00434	79 06		 jns	 SHORT $LN84@OnProcessM
  00436	d8 05 00 00 00
	00		 fadd	 DWORD PTR __real@4f800000
$LN84@OnProcessM:

; 2667 : 				{
; 2668 : 					float fRate = FLOAT1 - ( sinf( ( FLOAT_PI * FLOAT05 ) * ( (float)dwTimeGap / FLOAT100 ) ) );

  0043c	de f9		 fdivp	 ST(1), ST(0)
  0043e	de c9		 fmulp	 ST(1), ST(0)

; 2669 : 					m_fMoveWndYPos = (float)MAX_ANI_YPOS * fRate;

  00440	d9 5d e8	 fstp	 DWORD PTR tv505[ebp]
  00443	d9 45 e8	 fld	 DWORD PTR tv505[ebp]
  00446	d9 c9		 fxch	 ST(1)
  00448	dd 5d f4	 fstp	 QWORD PTR tv441[ebp]
  0044b	e8 00 00 00 00	 call	 __CIsin
  00450	d9 5d e8	 fstp	 DWORD PTR tv499[ebp]
  00453	d9 45 e8	 fld	 DWORD PTR tv499[ebp]

; 2670 : 				}
; 2671 : 				else

  00456	33 db		 xor	 ebx, ebx
  00458	dc 6d f4	 fsubr	 QWORD PTR tv441[ebp]
  0045b	d9 5d e8	 fstp	 DWORD PTR tv495[ebp]
  0045e	d9 45 e8	 fld	 DWORD PTR tv495[ebp]
  00461	dc 0d 00 00 00
	00		 fmul	 QWORD PTR __real@4042000000000000
  00467	d9 9e a0 01 00
	00		 fstp	 DWORD PTR [esi+416]
  0046d	eb 11		 jmp	 SHORT $LN8@OnProcessM
$LN9@OnProcessM:

; 2672 : 				{
; 2673 : 					m_dwMoveStateTime = 0;
; 2674 : 					m_fMoveWndYPos    = 0.0f;					

  0046f	0f 57 c0	 xorps	 xmm0, xmm0
  00472	89 9e 9c 01 00
	00		 mov	 DWORD PTR [esi+412], ebx
  00478	f3 0f 11 86 a0
	01 00 00	 movss	 DWORD PTR [esi+416], xmm0
$LN8@OnProcessM:

; 2675 : 				}
; 2676 : 				SetWndPos( POS_X_GAP, (Setting::Height() - POS_Y_GAP) + m_fMoveWndYPos );

  00480	e8 00 00 00 00	 call	 ?Height@Setting@@SAHXZ	; Setting::Height
  00485	f3 0f 10 8e a0
	01 00 00	 movss	 xmm1, DWORD PTR [esi+416]
  0048d	83 e8 2a	 sub	 eax, 42			; 0000002aH
  00490	0f 57 c0	 xorps	 xmm0, xmm0
  00493	f3 0f 2a c0	 cvtsi2ss xmm0, eax
  00497	0f 5a c0	 cvtps2pd xmm0, xmm0
  0049a	0f 5a c9	 cvtps2pd xmm1, xmm1
  0049d	f2 0f 58 c1	 addsd	 xmm0, xmm1
  004a1	f2 0f 2c c0	 cvttsd2si eax, xmm0
  004a5	50		 push	 eax
  004a6	6a 0e		 push	 14			; 0000000eH
  004a8	8b ce		 mov	 ecx, esi
  004aa	ff 15 00 00 00
	00		 call	 DWORD PTR __imp_?SetWndPos@ioWnd@@QAEXHH@Z

; 2677 : 				
; 2678 : 				ioWnd *pRePosBtn = FindChildWnd( ID_MESSENGER );

  004b0	8b 3d 00 00 00
	00		 mov	 edi, DWORD PTR __imp_?FindChildWnd@ioWnd@@QAEPAV1@K@Z
  004b6	6a 1e		 push	 30			; 0000001eH
  004b8	8b ce		 mov	 ecx, esi
  004ba	ff d7		 call	 edi

; 2679 : 				if( pRePosBtn )

  004bc	3b c3		 cmp	 eax, ebx
  004be	8b 1d 00 00 00
	00		 mov	 ebx, DWORD PTR __imp_?GetDerivedPosX@ioWnd@@QBEHXZ
  004c4	89 45 e8	 mov	 DWORD PTR _pRePosBtn$558850[ebp], eax
  004c7	74 2b		 je	 SHORT $LN7@OnProcessM

; 2680 : 				{
; 2681 : 					sg_fMessengerXPos = pRePosBtn->GetDerivedPosX();

  004c9	8b c8		 mov	 ecx, eax
  004cb	ff d3		 call	 ebx

; 2682 : 					sg_fMessengerYPos = pRePosBtn->GetDerivedPosY();

  004cd	8b 4d e8	 mov	 ecx, DWORD PTR _pRePosBtn$558850[ebp]
$LN86@OnProcessM:

; 2680 : 				{
; 2681 : 					sg_fMessengerXPos = pRePosBtn->GetDerivedPosX();

  004d0	0f 57 c0	 xorps	 xmm0, xmm0
  004d3	f3 0f 2a c0	 cvtsi2ss xmm0, eax
  004d7	f3 0f 11 05 00
	00 00 00	 movss	 DWORD PTR ?sg_fMessengerXPos@HelpWnd@@1MA, xmm0

; 2682 : 					sg_fMessengerYPos = pRePosBtn->GetDerivedPosY();

  004df	ff 15 00 00 00
	00		 call	 DWORD PTR __imp_?GetDerivedPosY@ioWnd@@QBEHXZ
  004e5	0f 57 c0	 xorps	 xmm0, xmm0
  004e8	f3 0f 2a c0	 cvtsi2ss xmm0, eax
  004ec	f3 0f 11 05 00
	00 00 00	 movss	 DWORD PTR ?sg_fMessengerYPos@HelpWnd@@1MA, xmm0
$LN7@OnProcessM:

; 2683 : 				}
; 2684 : 				pRePosBtn = FindChildWnd( ID_MISSION_QUEST );

  004f4	6a 0d		 push	 13			; 0000000dH
  004f6	8b ce		 mov	 ecx, esi
  004f8	ff d7		 call	 edi
  004fa	8b f0		 mov	 esi, eax

; 2685 : 				if( pRePosBtn )

  004fc	85 f6		 test	 esi, esi
  004fe	74 2a		 je	 SHORT $LN70@OnProcessM

; 2686 : 				{
; 2687 : 					sg_fQuestXPos = pRePosBtn->GetDerivedPosX();

  00500	8b ce		 mov	 ecx, esi
  00502	ff d3		 call	 ebx
  00504	0f 57 c0	 xorps	 xmm0, xmm0
  00507	f3 0f 2a c0	 cvtsi2ss xmm0, eax

; 2688 : 					sg_fQuestYPos = pRePosBtn->GetDerivedPosY();

  0050b	8b ce		 mov	 ecx, esi
  0050d	f3 0f 11 05 00
	00 00 00	 movss	 DWORD PTR ?sg_fQuestXPos@HelpWnd@@1MA, xmm0
  00515	ff 15 00 00 00
	00		 call	 DWORD PTR __imp_?GetDerivedPosY@ioWnd@@QBEHXZ
  0051b	0f 57 c0	 xorps	 xmm0, xmm0
  0051e	f3 0f 2a c0	 cvtsi2ss xmm0, eax
  00522	f3 0f 11 05 00
	00 00 00	 movss	 DWORD PTR ?sg_fQuestYPos@HelpWnd@@1MA, xmm0
$LN70@OnProcessM:
  0052a	5f		 pop	 edi
  0052b	5b		 pop	 ebx
$LN6@OnProcessM:

; 2721 : 		}
; 2722 : 	}	
; 2723 : }

  0052c	8b 4d fc	 mov	 ecx, DWORD PTR __$ArrayPad$[ebp]
  0052f	33 cd		 xor	 ecx, ebp
  00531	5e		 pop	 esi
  00532	e8 00 00 00 00	 call	 @__security_check_cookie@4
  00537	c9		 leave
  00538	c3		 ret	 0
?OnProcessMove@HelpWnd@@IAEXXZ ENDP			; HelpWnd::OnProcessMove
; Function compile flags: /Ogsp
_TEXT	ENDS
;	COMDAT ?OnRenderAfterChild@HelpWnd@@MAEXXZ
_TEXT	SEGMENT
?OnRenderAfterChild@HelpWnd@@MAEXXZ PROC		; HelpWnd::OnRenderAfterChild, COMDAT
; _this$ = ecx

; 2770 : {

  00000	53		 push	 ebx
  00001	56		 push	 esi
  00002	57		 push	 edi

; 2771 : 	for ( int i=ID_ROOM_INFO ; i<= ID_OPTION ; ++i )

  00003	6a 03		 push	 3
  00005	8b d9		 mov	 ebx, ecx
  00007	5f		 pop	 edi
$LL4@OnRenderAf:

; 2772 : 	{
; 2773 : 		MenuBtn* pMenuBtn = dynamic_cast<MenuBtn*>( FindChildWnd( i ) );

  00008	6a 00		 push	 0
  0000a	68 00 00 00 00	 push	 OFFSET ??_R0?AVMenuBtn@@@8
  0000f	68 00 00 00 00	 push	 OFFSET ??_R0?AVioWnd@@@8
  00014	6a 00		 push	 0
  00016	57		 push	 edi
  00017	8b cb		 mov	 ecx, ebx
  00019	ff 15 00 00 00
	00		 call	 DWORD PTR __imp_?FindChildWnd@ioWnd@@QAEPAV1@K@Z
  0001f	50		 push	 eax
  00020	e8 00 00 00 00	 call	 ___RTDynamicCast
  00025	8b f0		 mov	 esi, eax
  00027	83 c4 14	 add	 esp, 20			; 00000014H

; 2774 : 		if ( pMenuBtn && pMenuBtn->IsShow() )

  0002a	85 f6		 test	 esi, esi
  0002c	74 13		 je	 SHORT $LN3@OnRenderAf
  0002e	8b ce		 mov	 ecx, esi
  00030	ff 15 00 00 00
	00		 call	 DWORD PTR __imp_?IsShow@ioWnd@@QBE_NXZ
  00036	84 c0		 test	 al, al
  00038	74 07		 je	 SHORT $LN3@OnRenderAf

; 2775 : 		{
; 2776 : 			pMenuBtn->OnRenderTooltip();

  0003a	8b ce		 mov	 ecx, esi
  0003c	e8 00 00 00 00	 call	 ?OnRenderTooltip@MenuBtn@@QAEXXZ ; MenuBtn::OnRenderTooltip
$LN3@OnRenderAf:

; 2771 : 	for ( int i=ID_ROOM_INFO ; i<= ID_OPTION ; ++i )

  00041	47		 inc	 edi
  00042	83 ff 16	 cmp	 edi, 22			; 00000016H
  00045	7e c1		 jle	 SHORT $LL4@OnRenderAf

; 2777 : 		}
; 2778 : 	}
; 2779 : }

  00047	5f		 pop	 edi
  00048	5e		 pop	 esi
  00049	5b		 pop	 ebx
  0004a	c3		 ret	 0
?OnRenderAfterChild@HelpWnd@@MAEXXZ ENDP		; HelpWnd::OnRenderAfterChild
_TEXT	ENDS
PUBLIC	?_Tidy@?$vector@PAVMenuBase@@V?$allocator@PAVMenuBase@@@std@@@std@@IAEXXZ ; std::vector<MenuBase *,std::allocator<MenuBase *> >::_Tidy
EXTRN	__imp_?_Orphan_all@_Container_base0@std@@QAEXXZ:PROC
; Function compile flags: /Ogsp
; File c:\program files (x86)\microsoft visual studio 10.0\vc\include\vector
;	COMDAT ?_Tidy@?$vector@PAVMenuBase@@V?$allocator@PAVMenuBase@@@std@@@std@@IAEXXZ
_TEXT	SEGMENT
?_Tidy@?$vector@PAVMenuBase@@V?$allocator@PAVMenuBase@@@std@@@std@@IAEXXZ PROC ; std::vector<MenuBase *,std::allocator<MenuBase *> >::_Tidy, COMDAT
; _this$ = ecx

; 1301 : 		{	// free all storage

  00000	56		 push	 esi
  00001	8b f1		 mov	 esi, ecx

; 1302 : 		if (this->_Myfirst != 0)

  00003	83 3e 00	 cmp	 DWORD PTR [esi], 0
  00006	74 0e		 je	 SHORT $LN12@Tidy

; 1303 : 			{	// something to free, destroy and deallocate it
; 1304 : 			this->_Orphan_all();

  00008	ff 15 00 00 00
	00		 call	 DWORD PTR __imp_?_Orphan_all@_Container_base0@std@@QAEXXZ

; 1305 : 			_Destroy(this->_Myfirst, this->_Mylast);
; 1306 : 			this->_Alval.deallocate(this->_Myfirst,
; 1307 : 				this->_Myend - this->_Myfirst);

  0000e	ff 36		 push	 DWORD PTR [esi]
  00010	e8 00 00 00 00	 call	 ??3@YAXPAX@Z		; operator delete
  00015	59		 pop	 ecx
$LN12@Tidy:

; 1308 : 			}
; 1309 : 		this->_Myfirst = 0;

  00016	83 26 00	 and	 DWORD PTR [esi], 0

; 1310 : 		this->_Mylast = 0;

  00019	83 66 04 00	 and	 DWORD PTR [esi+4], 0

; 1311 : 		this->_Myend = 0;

  0001d	83 66 08 00	 and	 DWORD PTR [esi+8], 0
  00021	5e		 pop	 esi

; 1312 : 		}

  00022	c3		 ret	 0
?_Tidy@?$vector@PAVMenuBase@@V?$allocator@PAVMenuBase@@@std@@@std@@IAEXXZ ENDP ; std::vector<MenuBase *,std::allocator<MenuBase *> >::_Tidy
_TEXT	ENDS
PUBLIC	?reserve@?$vector@PAVMenuBase@@V?$allocator@PAVMenuBase@@@std@@@std@@QAEXI@Z ; std::vector<MenuBase *,std::allocator<MenuBase *> >::reserve
; Function compile flags: /Ogsp
;	COMDAT ?reserve@?$vector@PAVMenuBase@@V?$allocator@PAVMenuBase@@@std@@@std@@QAEXI@Z
_TEXT	SEGMENT
__Count$ = 8						; size = 4
?reserve@?$vector@PAVMenuBase@@V?$allocator@PAVMenuBase@@@std@@@std@@QAEXI@Z PROC ; std::vector<MenuBase *,std::allocator<MenuBase *> >::reserve, COMDAT
; _this$ = ecx

; 746  : 		{	// determine new minimum length of allocated storage

  00000	55		 push	 ebp
  00001	8b ec		 mov	 ebp, esp

; 747  : 		if (max_size() < _Count)

  00003	81 7d 08 ff ff
	ff 3f		 cmp	 DWORD PTR __Count$[ebp], 1073741823 ; 3fffffffH
  0000a	56		 push	 esi
  0000b	8b f1		 mov	 esi, ecx
  0000d	76 0b		 jbe	 SHORT $LN5@reserve

; 748  : 			_Xlen();	// result too long

  0000f	68 00 00 00 00	 push	 OFFSET ??_C@_0BD@OLBABOEK@vector?$DMT?$DO?5too?5long?$AA@
  00014	ff 15 00 00 00
	00		 call	 DWORD PTR __imp_?_Xlength_error@std@@YAXPBD@Z
$LN43@reserve:
$LN5@reserve:

; 749  : 		else if (capacity() < _Count)

  0001a	8b 46 08	 mov	 eax, DWORD PTR [esi+8]
  0001d	2b 06		 sub	 eax, DWORD PTR [esi]
  0001f	c1 f8 02	 sar	 eax, 2
  00022	3b 45 08	 cmp	 eax, DWORD PTR __Count$[ebp]
  00025	73 52		 jae	 SHORT $LN3@reserve

; 750  : 			{	// not enough room, reallocate
; 751  : 			pointer _Ptr = this->_Alval.allocate(_Count);

  00027	53		 push	 ebx
  00028	57		 push	 edi
  00029	6a 00		 push	 0
  0002b	ff 75 08	 push	 DWORD PTR __Count$[ebp]
  0002e	e8 00 00 00 00	 call	 ??$_Allocate@PAVMenuBase@@@std@@YAPAPAVMenuBase@@IPAPAV1@@Z ; std::_Allocate<MenuBase *>

; 752  : 
; 753  : 			_TRY_BEGIN
; 754  : 			_Umove(this->_Myfirst, this->_Mylast, _Ptr);

  00033	8b 0e		 mov	 ecx, DWORD PTR [esi]
  00035	8d 56 0c	 lea	 edx, DWORD PTR [esi+12]
  00038	52		 push	 edx
  00039	8b d8		 mov	 ebx, eax
  0003b	8b 46 04	 mov	 eax, DWORD PTR [esi+4]
  0003e	53		 push	 ebx
  0003f	50		 push	 eax
  00040	51		 push	 ecx
  00041	e8 00 00 00 00	 call	 ??$_Uninitialized_move@PAPAVMenuBase@@PAPAV1@V?$allocator@PAVMenuBase@@@std@@@std@@YAPAPAVMenuBase@@PAPAV1@00AAV?$allocator@PAVMenuBase@@@0@@Z ; std::_Uninitialized_move<MenuBase * *,MenuBase * *,std::allocator<MenuBase *> >

; 755  : 			_CATCH_ALL
; 756  : 			this->_Alval.deallocate(_Ptr, _Count);
; 757  : 			_RERAISE;
; 758  : 			_CATCH_END
; 759  : 
; 760  : 			size_type _Size = size();

  00046	8b 06		 mov	 eax, DWORD PTR [esi]
  00048	8b 7e 04	 mov	 edi, DWORD PTR [esi+4]
  0004b	2b f8		 sub	 edi, eax
  0004d	83 c4 18	 add	 esp, 24			; 00000018H
  00050	c1 ff 02	 sar	 edi, 2

; 761  : 			if (this->_Myfirst != 0)

  00053	85 c0		 test	 eax, eax
  00055	74 07		 je	 SHORT $LN39@reserve

; 762  : 				{	// destroy and deallocate old array
; 763  : 				_Destroy(this->_Myfirst, this->_Mylast);
; 764  : 				this->_Alval.deallocate(this->_Myfirst,
; 765  : 					this->_Myend - this->_Myfirst);

  00057	50		 push	 eax
  00058	e8 00 00 00 00	 call	 ??3@YAXPAX@Z		; operator delete
  0005d	59		 pop	 ecx
$LN39@reserve:

; 766  : 				}
; 767  : 
; 768  : 			this->_Orphan_all();

  0005e	8b ce		 mov	 ecx, esi
  00060	ff 15 00 00 00
	00		 call	 DWORD PTR __imp_?_Orphan_all@_Container_base0@std@@QAEXXZ

; 769  : 			this->_Myend = _Ptr + _Count;

  00066	8b 45 08	 mov	 eax, DWORD PTR __Count$[ebp]
  00069	8d 04 83	 lea	 eax, DWORD PTR [ebx+eax*4]
  0006c	89 46 08	 mov	 DWORD PTR [esi+8], eax

; 770  : 			this->_Mylast = _Ptr + _Size;

  0006f	8d 04 bb	 lea	 eax, DWORD PTR [ebx+edi*4]
  00072	5f		 pop	 edi

; 771  : 			this->_Myfirst = _Ptr;

  00073	89 1e		 mov	 DWORD PTR [esi], ebx
  00075	89 46 04	 mov	 DWORD PTR [esi+4], eax
  00078	5b		 pop	 ebx
$LN3@reserve:
  00079	5e		 pop	 esi

; 772  : 			}
; 773  : 		}

  0007a	5d		 pop	 ebp
  0007b	c2 04 00	 ret	 4
$LN42@reserve:
?reserve@?$vector@PAVMenuBase@@V?$allocator@PAVMenuBase@@@std@@@std@@QAEXI@Z ENDP ; std::vector<MenuBase *,std::allocator<MenuBase *> >::reserve
_TEXT	ENDS
PUBLIC	??_C@_0BF@LIIHCOH@HelpWnd?3?3iwm_command?$AA@	; `string'
EXTRN	?OpenHeadQuaterPage@ioApplication@@QAEXPBD_N@Z:PROC ; ioApplication::OpenHeadQuaterPage
EXTRN	?GetLocal@ioLocalManager@@QAEPAVioLocalParent@@W4LocalType@ioLocalManagerParent@@@Z:PROC ; ioLocalManager::GetLocal
EXTRN	?GetSingleton@ioLocalManager@@SAAAV1@XZ:PROC	; ioLocalManager::GetSingleton
EXTRN	__imp_?GetLocalType@ioLocalManagerParent@@SA?AW4LocalType@1@XZ:PROC
EXTRN	?IsLadderTeam@ioLadderTeamMgr@@QAE_NXZ:PROC	; ioLadderTeamMgr::IsLadderTeam
EXTRN	?GetSingleton@ioLadderTeamMgr@@SAAAV1@XZ:PROC	; ioLadderTeamMgr::GetSingleton
EXTRN	?IsBattleRoom@ioBattleRoomMgr@@QAE_NXZ:PROC	; ioBattleRoomMgr::IsBattleRoom
EXTRN	?GetSingleton@ioBattleRoomMgr@@SAAAV1@XZ:PROC	; ioBattleRoomMgr::GetSingleton
EXTRN	?IsNetworkPlaying@P2PNetwork@@YA_NXZ:PROC	; P2PNetwork::IsNetworkPlaying
;	COMDAT ??_C@_0BF@LIIHCOH@HelpWnd?3?3iwm_command?$AA@
; File d:\lost saga for developer\youtube\tutorial\source\src\lsclient\iomyinfo.h
CONST	SEGMENT
??_C@_0BF@LIIHCOH@HelpWnd?3?3iwm_command?$AA@ DB 'HelpWnd::iwm_command', 00H ; `string'
; Function compile flags: /Ogsp
; File d:\lost saga for developer\youtube\tutorial\source\src\lsclient\gui\helpwnd.cpp
CONST	ENDS
;	COMDAT ?iwm_command@HelpWnd@@UAEXPAVioWnd@@HK@Z
_TEXT	SEGMENT
_pWnd$ = 8						; size = 4
_cmd$ = 12						; size = 4
_param$ = 16						; size = 4
?iwm_command@HelpWnd@@UAEXPAVioWnd@@HK@Z PROC		; HelpWnd::iwm_command, COMDAT
; _this$ = ecx

; 1478 : {

  00000	55		 push	 ebp
  00001	8b ec		 mov	 ebp, esp
  00003	56		 push	 esi
  00004	8b f1		 mov	 esi, ecx

; 1479 : 	DWORD dwID = pWnd->GetID();

  00006	8b 4d 08	 mov	 ecx, DWORD PTR _pWnd$[ebp]
  00009	ff 15 00 00 00
	00		 call	 DWORD PTR __imp_?GetID@ioWnd@@QBEKXZ

; 1480 : 
; 1481 : 	switch( dwID )

  0000f	83 f8 1e	 cmp	 eax, 30			; 0000001eH
  00012	0f 87 ca 04 00
	00		 ja	 $LN121@iwm_comman
  00018	0f 84 af 04 00
	00		 je	 $LN3@iwm_comman
  0001e	48		 dec	 eax
  0001f	83 f8 15	 cmp	 eax, 21			; 00000015H
  00022	0f 87 d3 04 00
	00		 ja	 $LN115@iwm_comman
  00028	ff 24 85 00 00
	00 00		 jmp	 DWORD PTR $LN141@iwm_comman[eax*4]
$LN114@iwm_comman:

; 1488 : 		}
; 1489 : 		break;
; 1490 : 	case ID_BACK_STAGE:
; 1491 : 		if( cmd == IOBN_BTNUP || cmd == IOEX_BTNUP )

  0002f	83 7d 0c 11	 cmp	 DWORD PTR _cmd$[ebp], 17 ; 00000011H
  00033	74 0a		 je	 SHORT $LN112@iwm_comman
  00035	83 7d 0c 16	 cmp	 DWORD PTR _cmd$[ebp], 22 ; 00000016H
  00039	0f 85 bc 04 00
	00		 jne	 $LN115@iwm_comman
$LN112@iwm_comman:

; 1492 : 		{
; 1493 : 			switch( ioPlayMode::GetModeType() )

  0003f	e8 00 00 00 00	 call	 ?GetModeType@ioPlayMode@@SA?AW4ModeType@@XZ ; ioPlayMode::GetModeType
  00044	83 e8 04	 sub	 eax, 4
  00047	0f 84 b9 00 00
	00		 je	 $LN109@iwm_comman
  0004d	83 e8 09	 sub	 eax, 9
  00050	0f 84 92 00 00
	00		 je	 $LN107@iwm_comman
  00056	83 e8 0a	 sub	 eax, 10			; 0000000aH
  00059	0f 84 a7 00 00
	00		 je	 $LN109@iwm_comman
  0005f	48		 dec	 eax

; 1542 : 							{
; 1543 : 								g_App.AltF4ExitProcess();
; 1544 : 							}
; 1545 : 						}
; 1546 : 						break;
; 1547 : 					case MRT_BATTLE:
; 1548 : 					case MRT_LADDER:
; 1549 : 					case MRT_SHUFFLE:
; 1550 : 						{
; 1551 : 							g_App.AltF4ExitProcess();
; 1552 : 						}
; 1553 : 						break;
; 1554 : 					}
; 1555 : 				}
; 1556 : 				break;
; 1557 : 			default:
; 1558 : 				{
; 1559 : 					g_App.AltF4ExitProcess();
; 1560 : 				}
; 1561 : 				break;

  00060	0f 85 87 04 00
	00		 jne	 $LN134@iwm_comman

; 1510 : 						{
; 1511 : 							g_GUIMgr.SetMsgBox( MB_OK, NULL, STR(1) );
; 1512 : 						}
; 1513 : 						else
; 1514 : 						{
; 1515 : 							g_GUIMgr.SetMsgBox( MB_OK, NULL, STR(1) );
; 1516 : 						}
; 1517 : 					}
; 1518 : 					else
; 1519 : 					{
; 1520 : 						g_App.AltF4ExitProcess();
; 1521 : 					}
; 1522 : 				}
; 1523 : 				break;
; 1524 : 			case MT_MYROOM:
; 1525 : 				{
; 1526 : 					switch( ioMyRoomMode::GetMyRoomType() )

  00066	a1 00 00 00 00	 mov	 eax, DWORD PTR ?m_eMyRoomType@ioMyRoomMode@@1W4MyRoomType@@A ; ioMyRoomMode::m_eMyRoomType
  0006b	33 f6		 xor	 esi, esi
  0006d	3b c6		 cmp	 eax, esi
  0006f	0f 8e 86 04 00
	00		 jle	 $LN115@iwm_comman
  00075	83 f8 02	 cmp	 eax, 2
  00078	0f 8e 6f 04 00
	00		 jle	 $LN134@iwm_comman
  0007e	83 f8 03	 cmp	 eax, 3
  00081	74 0e		 je	 SHORT $LN99@iwm_comman
  00083	83 f8 04	 cmp	 eax, 4
  00086	0f 84 61 04 00
	00		 je	 $LN134@iwm_comman
  0008c	e9 6a 04 00 00	 jmp	 $LN115@iwm_comman
$LN99@iwm_comman:

; 1527 : 					{
; 1528 : 					case MRT_PRACTICE:
; 1529 : 						{
; 1530 : 							if( g_MyInfo.IsTutorialUser() )

  00091	e8 00 00 00 00	 call	 ?GetSingleton@ioMyInfo@@SAAAV1@XZ ; ioMyInfo::GetSingleton
  00096	8b c8		 mov	 ecx, eax
  00098	e8 00 00 00 00	 call	 ?IsTutorialUser@ioMyInfo@@QAE_NXZ ; ioMyInfo::IsTutorialUser
  0009d	84 c0		 test	 al, al
  0009f	0f 84 48 04 00
	00		 je	 $LN134@iwm_comman

; 1531 : 							{
; 1532 : 								if( g_App.GetConnectedMoveMode() == ioApplication::CMM_LOBBY )

  000a5	e8 00 00 00 00	 call	 ?GetSingleton@ioApplication@@SAAAV1@XZ ; ioApplication::GetSingleton
  000aa	83 b8 ac 06 00
	00 02		 cmp	 DWORD PTR [eax+1708], 2

; 1533 : 								{
; 1534 : 									g_GUIMgr.SetMsgBox( MB_OK, NULL, STR(1) );

  000b1	56		 push	 esi
  000b2	75 04		 jne	 SHORT $LN97@iwm_comman
$LN139@iwm_comman:
  000b4	6a 01		 push	 1

; 1535 : 								}
; 1536 : 								else

  000b6	eb 02		 jmp	 SHORT $LN136@iwm_comman
$LN97@iwm_comman:

; 1537 : 								{
; 1538 : 									g_GUIMgr.SetMsgBox( MB_OK, NULL, STR(2) );

  000b8	6a 02		 push	 2
$LN136@iwm_comman:
  000ba	68 00 00 00 00	 push	 OFFSET ??_C@_00CNPNBAHC@?$AA@
  000bf	68 00 00 00 00	 push	 OFFSET ??_C@_0BF@LIIHCOH@HelpWnd?3?3iwm_command?$AA@
  000c4	ff 15 00 00 00
	00		 call	 DWORD PTR __imp_?GetSingleton@ioStringManager@@SAAAV1@XZ
  000ca	8b c8		 mov	 ecx, eax
  000cc	ff 15 00 00 00
	00		 call	 DWORD PTR __imp_?GetString@ioStringManager@@QAEPADPBD0HW4FileNamePrefix@1@@Z
  000d2	50		 push	 eax
  000d3	56		 push	 esi
  000d4	56		 push	 esi
  000d5	e8 00 00 00 00	 call	 ?GetSingleton@ioSP2GUIManager@@SAAAV1@XZ ; ioSP2GUIManager::GetSingleton
  000da	50		 push	 eax
  000db	e8 00 00 00 00	 call	 ?SetMsgBox@ioSP2GUIManager@@QAAXHPAVioWnd@@PBDZZ ; ioSP2GUIManager::SetMsgBox
  000e0	83 c4 10	 add	 esp, 16			; 00000010H

; 1539 : 								}
; 1540 : 							}
; 1541 : 							else

  000e3	e9 13 04 00 00	 jmp	 $LN115@iwm_comman
$LN107@iwm_comman:

; 1500 : 					{
; 1501 : 						g_App.AltF4ExitProcess();
; 1502 : 					}
; 1503 : 				}
; 1504 : 				break;
; 1505 : 			case MT_HEADQUARTERS:
; 1506 : 				{
; 1507 : 					if( g_MyInfo.IsTutorialUser() )

  000e8	e8 00 00 00 00	 call	 ?GetSingleton@ioMyInfo@@SAAAV1@XZ ; ioMyInfo::GetSingleton
  000ed	8b c8		 mov	 ecx, eax
  000ef	e8 00 00 00 00	 call	 ?IsTutorialUser@ioMyInfo@@QAE_NXZ ; ioMyInfo::IsTutorialUser
  000f4	84 c0		 test	 al, al
  000f6	0f 84 f1 03 00
	00		 je	 $LN134@iwm_comman

; 1508 : 					{
; 1509 : 						if( g_App.GetConnectedMoveMode() == ioApplication::CMM_LOBBY )

  000fc	e8 00 00 00 00	 call	 ?GetSingleton@ioApplication@@SAAAV1@XZ ; ioApplication::GetSingleton
$LN80@iwm_comman:

; 1586 : 					{
; 1587 : 						g_GUIMgr.SetMsgBox( MB_OK, NULL, STR(1) );

  00101	33 f6		 xor	 esi, esi
  00103	56		 push	 esi

; 1594 : 							g_GUIMgr.ShowWnd( HEADQUARTERS_MAIN_WND );
; 1595 : 					}
; 1596 : 				}
; 1597 : 				break;

  00104	eb ae		 jmp	 SHORT $LN139@iwm_comman
$LN109@iwm_comman:

; 1494 : 			{
; 1495 : 			case MT_TRAINING:
; 1496 : 			case MT_HOUSE:
; 1497 : 				{
; 1498 : 					//  
; 1499 : 					if( P2PNetwork::IsNetworkPlaying() )

  00106	e8 00 00 00 00	 call	 ?IsNetworkPlaying@P2PNetwork@@YA_NXZ ; P2PNetwork::IsNetworkPlaying
  0010b	84 c0		 test	 al, al
  0010d	0f 84 e8 03 00
	00		 je	 $LN115@iwm_comman

; 1562 : 			}
; 1563 : 		}
; 1564 : 		break;

  00113	e9 d5 03 00 00	 jmp	 $LN134@iwm_comman
$LN92@iwm_comman:

; 1565 : 	case ID_ROOM_INFO:
; 1566 : 		if( cmd == IOBN_BTNUP || cmd == IOEX_BTNUP )

  00118	83 7d 0c 11	 cmp	 DWORD PTR _cmd$[ebp], 17 ; 00000011H
  0011c	74 0a		 je	 SHORT $LN90@iwm_comman
  0011e	83 7d 0c 16	 cmp	 DWORD PTR _cmd$[ebp], 22 ; 00000016H
  00122	0f 85 d3 03 00
	00		 jne	 $LN115@iwm_comman
$LN90@iwm_comman:

; 1567 : 		{
; 1568 : 			switch( ioPlayMode::GetModeType() )

  00128	e8 00 00 00 00	 call	 ?GetModeType@ioPlayMode@@SA?AW4ModeType@@XZ ; ioPlayMode::GetModeType
  0012d	83 f8 04	 cmp	 eax, 4
  00130	0f 84 cc 00 00
	00		 je	 $LN87@iwm_comman
  00136	83 f8 0d	 cmp	 eax, 13			; 0000000dH
  00139	0f 84 84 00 00
	00		 je	 $LN84@iwm_comman
  0013f	83 f8 17	 cmp	 eax, 23			; 00000017H
  00142	74 38		 je	 SHORT $LN76@iwm_comman

; 1614 : 							g_GUIMgr.ShowWnd( HOUSE_MAIN_WND );
; 1615 : 					}
; 1616 : 				}
; 1617 : 				break;
; 1618 : 			default:
; 1619 : 				{
; 1620 : 					if( g_BattleRoomMgr.IsBattleRoom() )

  00144	e8 00 00 00 00	 call	 ?GetSingleton@ioBattleRoomMgr@@SAAAV1@XZ ; ioBattleRoomMgr::GetSingleton
  00149	8b c8		 mov	 ecx, eax
  0014b	e8 00 00 00 00	 call	 ?IsBattleRoom@ioBattleRoomMgr@@QAE_NXZ ; ioBattleRoomMgr::IsBattleRoom
  00150	84 c0		 test	 al, al
  00152	74 0a		 je	 SHORT $LN67@iwm_comman

; 1621 : 					{
; 1622 : 						if( g_GUIMgr.IsShow( PARTY_BATTLE_SIMPLE_WND ) )

  00154	be ce 13 00 00	 mov	 esi, 5070		; 000013ceH

; 1623 : 							g_GUIMgr.HideWnd( PARTY_BATTLE_SIMPLE_WND );
; 1624 : 						else

  00159	e9 a9 00 00 00	 jmp	 $LN137@iwm_comman
$LN67@iwm_comman:

; 1625 : 							g_GUIMgr.ShowWnd( PARTY_BATTLE_SIMPLE_WND );
; 1626 : 					}
; 1627 : 					else if( g_LadderTeamMgr.IsLadderTeam() )

  0015e	e8 00 00 00 00	 call	 ?GetSingleton@ioLadderTeamMgr@@SAAAV1@XZ ; ioLadderTeamMgr::GetSingleton
  00163	8b c8		 mov	 ecx, eax
  00165	e8 00 00 00 00	 call	 ?IsLadderTeam@ioLadderTeamMgr@@QAE_NXZ ; ioLadderTeamMgr::IsLadderTeam
  0016a	84 c0		 test	 al, al
  0016c	0f 84 89 03 00
	00		 je	 $LN115@iwm_comman

; 1628 : 					{
; 1629 : 						if( g_GUIMgr.IsShow( MY_LADDER_TEAM_INFO_WND ) )

  00172	be cd 13 00 00	 mov	 esi, 5069		; 000013cdH

; 1630 : 							g_GUIMgr.HideWnd( MY_LADDER_TEAM_INFO_WND );
; 1631 : 						else

  00177	e9 8b 00 00 00	 jmp	 $LN137@iwm_comman
$LN76@iwm_comman:

; 1598 : 			case MT_HOUSE:
; 1599 : 				{
; 1600 : 					// 
; 1601 : 					if( g_MyInfo.IsTutorialUser() )

  0017c	e8 00 00 00 00	 call	 ?GetSingleton@ioMyInfo@@SAAAV1@XZ ; ioMyInfo::GetSingleton
  00181	8b c8		 mov	 ecx, eax
  00183	e8 00 00 00 00	 call	 ?IsTutorialUser@ioMyInfo@@QAE_NXZ ; ioMyInfo::IsTutorialUser
  00188	84 c0		 test	 al, al
  0018a	74 08		 je	 SHORT $LN75@iwm_comman
$LN138@iwm_comman:

; 1602 : 					{
; 1603 : 						g_GUIMgr.SetMsgBox( MB_OK, NULL, STR(2) );

  0018c	33 f6		 xor	 esi, esi
  0018e	56		 push	 esi
  0018f	e9 24 ff ff ff	 jmp	 $LN97@iwm_comman
$LN75@iwm_comman:

; 1604 : 					}
; 1605 : 					else if( g_MyInfo.IsBankruptcy() || g_MyInfo.IsCharBankruptcy() )

  00194	e8 00 00 00 00	 call	 ?GetSingleton@ioMyInfo@@SAAAV1@XZ ; ioMyInfo::GetSingleton
  00199	8b c8		 mov	 ecx, eax
  0019b	e8 00 00 00 00	 call	 ?IsBankruptcy@ioMyInfo@@QAE_NXZ ; ioMyInfo::IsBankruptcy
  001a0	84 c0		 test	 al, al
  001a2	0f 85 59 ff ff
	ff		 jne	 $LN80@iwm_comman
  001a8	e8 00 00 00 00	 call	 ?GetSingleton@ioMyInfo@@SAAAV1@XZ ; ioMyInfo::GetSingleton
  001ad	8b c8		 mov	 ecx, eax
  001af	e8 00 00 00 00	 call	 ?IsCharBankruptcy@ioMyInfo@@QAE_NXZ ; ioMyInfo::IsCharBankruptcy
  001b4	84 c0		 test	 al, al
  001b6	0f 85 45 ff ff
	ff		 jne	 $LN80@iwm_comman

; 1606 : 					{
; 1607 : 						g_GUIMgr.SetMsgBox( MB_OK, NULL, STR(1) );
; 1608 : 					}
; 1609 : 					else
; 1610 : 					{
; 1611 : 						if( g_GUIMgr.IsShow( HOUSE_MAIN_WND ) )

  001bc	be 8f 18 00 00	 mov	 esi, 6287		; 0000188fH

; 1612 : 							g_GUIMgr.HideWnd( HOUSE_MAIN_WND );
; 1613 : 						else

  001c1	eb 44		 jmp	 SHORT $LN137@iwm_comman
$LN84@iwm_comman:

; 1576 : 				}
; 1577 : 				break;
; 1578 : 			case MT_HEADQUARTERS:
; 1579 : 				{
; 1580 : 					// 
; 1581 : 					if( g_MyInfo.IsTutorialUser() )

  001c3	e8 00 00 00 00	 call	 ?GetSingleton@ioMyInfo@@SAAAV1@XZ ; ioMyInfo::GetSingleton
  001c8	8b c8		 mov	 ecx, eax
  001ca	e8 00 00 00 00	 call	 ?IsTutorialUser@ioMyInfo@@QAE_NXZ ; ioMyInfo::IsTutorialUser
  001cf	84 c0		 test	 al, al

; 1582 : 					{
; 1583 : 						g_GUIMgr.SetMsgBox( MB_OK, NULL, STR(2) );

  001d1	75 b9		 jne	 SHORT $LN138@iwm_comman

; 1584 : 					}
; 1585 : 					else if( g_MyInfo.IsBankruptcy() || g_MyInfo.IsCharBankruptcy() )

  001d3	e8 00 00 00 00	 call	 ?GetSingleton@ioMyInfo@@SAAAV1@XZ ; ioMyInfo::GetSingleton
  001d8	8b c8		 mov	 ecx, eax
  001da	e8 00 00 00 00	 call	 ?IsBankruptcy@ioMyInfo@@QAE_NXZ ; ioMyInfo::IsBankruptcy
  001df	84 c0		 test	 al, al
  001e1	0f 85 1a ff ff
	ff		 jne	 $LN80@iwm_comman
  001e7	e8 00 00 00 00	 call	 ?GetSingleton@ioMyInfo@@SAAAV1@XZ ; ioMyInfo::GetSingleton
  001ec	8b c8		 mov	 ecx, eax
  001ee	e8 00 00 00 00	 call	 ?IsCharBankruptcy@ioMyInfo@@QAE_NXZ ; ioMyInfo::IsCharBankruptcy
  001f3	84 c0		 test	 al, al
  001f5	0f 85 06 ff ff
	ff		 jne	 $LN80@iwm_comman

; 1588 : 					}
; 1589 : 					else
; 1590 : 					{
; 1591 : 						if( g_GUIMgr.IsShow( HEADQUARTERS_MAIN_WND ) )

  001fb	be db 17 00 00	 mov	 esi, 6107		; 000017dbH

; 1592 : 							g_GUIMgr.HideWnd( HEADQUARTERS_MAIN_WND );
; 1593 : 						else

  00200	eb 05		 jmp	 SHORT $LN137@iwm_comman
$LN87@iwm_comman:

; 1569 : 			{
; 1570 : 			case MT_TRAINING:
; 1571 : 				{
; 1572 : 					if( g_GUIMgr.IsShow( PLAZA_MAIN_WND ) )

  00202	be 91 17 00 00	 mov	 esi, 6033		; 00001791H
$LN137@iwm_comman:
  00207	56		 push	 esi
  00208	e8 00 00 00 00	 call	 ?GetSingleton@ioSP2GUIManager@@SAAAV1@XZ ; ioSP2GUIManager::GetSingleton
  0020d	8b c8		 mov	 ecx, eax
  0020f	ff 15 00 00 00
	00		 call	 DWORD PTR __imp_?IsShow@ioGUIManager@@QAE_NK@Z

; 1573 : 						g_GUIMgr.HideWnd( PLAZA_MAIN_WND );

  00215	6a 00		 push	 0
  00217	56		 push	 esi
  00218	84 c0		 test	 al, al
  0021a	74 12		 je	 SHORT $LN86@iwm_comman
  0021c	e8 00 00 00 00	 call	 ?GetSingleton@ioSP2GUIManager@@SAAAV1@XZ ; ioSP2GUIManager::GetSingleton
  00221	8b c8		 mov	 ecx, eax
  00223	ff 15 00 00 00
	00		 call	 DWORD PTR __imp_?HideWnd@ioGUIManager@@QAEXK_N@Z

; 1574 : 					else

  00229	e9 cd 02 00 00	 jmp	 $LN115@iwm_comman
$LN86@iwm_comman:

; 1575 : 						g_GUIMgr.ShowWnd( PLAZA_MAIN_WND );

  0022e	e8 00 00 00 00	 call	 ?GetSingleton@ioSP2GUIManager@@SAAAV1@XZ ; ioSP2GUIManager::GetSingleton
  00233	8b c8		 mov	 ecx, eax
  00235	ff 15 00 00 00
	00		 call	 DWORD PTR __imp_?ShowWnd@ioGUIManager@@QAEXK_N@Z

; 1632 : 							g_GUIMgr.ShowWnd( MY_LADDER_TEAM_INFO_WND );
; 1633 : 					}
; 1634 : 				}
; 1635 : 				break;
; 1636 : 			}
; 1637 : 		}
; 1638 : 		break;

  0023b	e9 bb 02 00 00	 jmp	 $LN115@iwm_comman
$LN60@iwm_comman:

; 1639 : 	case ID_DISPLAY:
; 1640 : 		if( cmd == IOBN_BTNUP || cmd == IOEX_BTNUP )

  00240	83 7d 0c 11	 cmp	 DWORD PTR _cmd$[ebp], 17 ; 00000011H
  00244	74 0a		 je	 SHORT $LN58@iwm_comman
  00246	83 7d 0c 16	 cmp	 DWORD PTR _cmd$[ebp], 22 ; 00000016H
  0024a	0f 85 ab 02 00
	00		 jne	 $LN115@iwm_comman
$LN58@iwm_comman:

; 1641 : 		{
; 1642 : 			DisplayProcess();

  00250	8b ce		 mov	 ecx, esi
  00252	e8 00 00 00 00	 call	 ?DisplayProcess@HelpWnd@@IAEXXZ ; HelpWnd::DisplayProcess

; 1643 : 		}
; 1644 : 		break;

  00257	e9 9f 02 00 00	 jmp	 $LN115@iwm_comman
$LN57@iwm_comman:

; 1645 : 	case ID_PRACTICE:
; 1646 : 		if( cmd == IOBN_BTNUP || cmd == IOEX_BTNUP )

  0025c	83 7d 0c 11	 cmp	 DWORD PTR _cmd$[ebp], 17 ; 00000011H
  00260	74 0a		 je	 SHORT $LN55@iwm_comman
  00262	83 7d 0c 16	 cmp	 DWORD PTR _cmd$[ebp], 22 ; 00000016H
  00266	0f 85 8f 02 00
	00		 jne	 $LN115@iwm_comman
$LN55@iwm_comman:

; 1647 : 		{
; 1648 : 			PracticeProcess();

  0026c	8b ce		 mov	 ecx, esi
  0026e	e8 00 00 00 00	 call	 ?PracticeProcess@HelpWnd@@IAEXXZ ; HelpWnd::PracticeProcess

; 1649 : 		}
; 1650 : 		break;

  00273	e9 83 02 00 00	 jmp	 $LN115@iwm_comman
$LN54@iwm_comman:

; 1651 : 	case ID_FISHING:
; 1652 : 		if( cmd == IOBN_BTNUP || cmd == IOEX_BTNUP )

  00278	83 7d 0c 11	 cmp	 DWORD PTR _cmd$[ebp], 17 ; 00000011H
  0027c	74 0a		 je	 SHORT $LN52@iwm_comman
  0027e	83 7d 0c 16	 cmp	 DWORD PTR _cmd$[ebp], 22 ; 00000016H
  00282	0f 85 73 02 00
	00		 jne	 $LN115@iwm_comman
$LN52@iwm_comman:

; 1653 : 		{
; 1654 : 			FishingProcess();

  00288	8b ce		 mov	 ecx, esi
  0028a	e8 00 00 00 00	 call	 ?FishingProcess@HelpWnd@@IAEXXZ ; HelpWnd::FishingProcess

; 1655 : 		}
; 1656 : 		break;

  0028f	e9 67 02 00 00	 jmp	 $LN115@iwm_comman
$LN51@iwm_comman:

; 1657 : 	case ID_EXCAVATION:
; 1658 : 		if( cmd == IOBN_BTNUP || cmd == IOEX_BTNUP )

  00294	83 7d 0c 11	 cmp	 DWORD PTR _cmd$[ebp], 17 ; 00000011H
  00298	74 0a		 je	 SHORT $LN49@iwm_comman
  0029a	83 7d 0c 16	 cmp	 DWORD PTR _cmd$[ebp], 22 ; 00000016H
  0029e	0f 85 57 02 00
	00		 jne	 $LN115@iwm_comman
$LN49@iwm_comman:

; 1659 : 		{
; 1660 : 			ExcavationeProcess();

  002a4	8b ce		 mov	 ecx, esi
  002a6	e8 00 00 00 00	 call	 ?ExcavationeProcess@HelpWnd@@IAEXXZ ; HelpWnd::ExcavationeProcess

; 1661 : 		}
; 1662 : 		break;

  002ab	e9 4b 02 00 00	 jmp	 $LN115@iwm_comman
$LN48@iwm_comman:

; 1663 : 	case ID_HOUSING_SETUP:
; 1664 : 		if( cmd == IOBN_BTNUP || cmd == IOEX_BTNUP )

  002b0	83 7d 0c 11	 cmp	 DWORD PTR _cmd$[ebp], 17 ; 00000011H
  002b4	74 0a		 je	 SHORT $LN46@iwm_comman
  002b6	83 7d 0c 16	 cmp	 DWORD PTR _cmd$[ebp], 22 ; 00000016H
  002ba	0f 85 3b 02 00
	00		 jne	 $LN115@iwm_comman
$LN46@iwm_comman:

; 1665 : 		{
; 1666 : 			HousingSetUpProcess();

  002c0	8b ce		 mov	 ecx, esi
  002c2	e8 00 00 00 00	 call	 ?HousingSetUpProcess@HelpWnd@@IAEXXZ ; HelpWnd::HousingSetUpProcess

; 1667 : 		}
; 1668 : 		break;

  002c7	e9 2f 02 00 00	 jmp	 $LN115@iwm_comman
$LN45@iwm_comman:

; 1669 : 	case ID_PLAZA_STATE:
; 1670 : 		if( cmd == IOBN_BTNUP || cmd == IOEX_BTNUP )

  002cc	83 7d 0c 11	 cmp	 DWORD PTR _cmd$[ebp], 17 ; 00000011H
  002d0	74 0a		 je	 SHORT $LN43@iwm_comman
  002d2	83 7d 0c 16	 cmp	 DWORD PTR _cmd$[ebp], 22 ; 00000016H
  002d6	0f 85 1f 02 00
	00		 jne	 $LN115@iwm_comman
$LN43@iwm_comman:

; 1671 : 		{
; 1672 : 			PlazaStateProcess();

  002dc	8b ce		 mov	 ecx, esi
  002de	e8 00 00 00 00	 call	 ?PlazaStateProcess@HelpWnd@@IAEXXZ ; HelpWnd::PlazaStateProcess

; 1673 : 		}
; 1674 : 		break;

  002e3	e9 13 02 00 00	 jmp	 $LN115@iwm_comman
$LN42@iwm_comman:

; 1675 : 	case ID_SHOP:
; 1676 : 		if( cmd == IOBN_BTNUP || cmd == IOEX_BTNUP )

  002e8	83 7d 0c 11	 cmp	 DWORD PTR _cmd$[ebp], 17 ; 00000011H
  002ec	74 0a		 je	 SHORT $LN40@iwm_comman
  002ee	83 7d 0c 16	 cmp	 DWORD PTR _cmd$[ebp], 22 ; 00000016H
  002f2	0f 85 03 02 00
	00		 jne	 $LN115@iwm_comman
$LN40@iwm_comman:

; 1677 : 		{
; 1678 : 			ShopProcess();

  002f8	8b ce		 mov	 ecx, esi
  002fa	e8 00 00 00 00	 call	 ?ShopProcess@HelpWnd@@IAEXXZ ; HelpWnd::ShopProcess

; 1679 : 		}
; 1680 : 		break;

  002ff	e9 f7 01 00 00	 jmp	 $LN115@iwm_comman
$LN39@iwm_comman:

; 1681 : 	case ID_MYITEM:
; 1682 : 		if( cmd == IOBN_BTNUP || cmd == IOEX_BTNUP )

  00304	83 7d 0c 11	 cmp	 DWORD PTR _cmd$[ebp], 17 ; 00000011H
  00308	74 0a		 je	 SHORT $LN37@iwm_comman
  0030a	83 7d 0c 16	 cmp	 DWORD PTR _cmd$[ebp], 22 ; 00000016H
  0030e	0f 85 e7 01 00
	00		 jne	 $LN115@iwm_comman
$LN37@iwm_comman:

; 1683 : 		{
; 1684 : 			MyItemProcess();

  00314	8b ce		 mov	 ecx, esi
  00316	e8 00 00 00 00	 call	 ?MyItemProcess@HelpWnd@@IAEXXZ ; HelpWnd::MyItemProcess

; 1685 : 		}
; 1686 : 		break;

  0031b	e9 db 01 00 00	 jmp	 $LN115@iwm_comman
$LN36@iwm_comman:

; 1687 : 	case ID_PRESENT:
; 1688 : 		if( cmd == IOBN_BTNUP || cmd == IOEX_BTNUP )

  00320	83 7d 0c 11	 cmp	 DWORD PTR _cmd$[ebp], 17 ; 00000011H
  00324	74 0a		 je	 SHORT $LN34@iwm_comman
  00326	83 7d 0c 16	 cmp	 DWORD PTR _cmd$[ebp], 22 ; 00000016H
  0032a	0f 85 cb 01 00
	00		 jne	 $LN115@iwm_comman
$LN34@iwm_comman:

; 1689 : 		{
; 1690 : 			PresentProcess();

  00330	8b ce		 mov	 ecx, esi
  00332	e8 00 00 00 00	 call	 ?PresentProcess@HelpWnd@@IAEXXZ ; HelpWnd::PresentProcess

; 1691 : 		}
; 1692 : 		break;

  00337	e9 bf 01 00 00	 jmp	 $LN115@iwm_comman
$LN33@iwm_comman:

; 1693 : 	case ID_MISSION_QUEST:
; 1694 : 		if( cmd == IOBN_BTNUP )

  0033c	83 7d 0c 11	 cmp	 DWORD PTR _cmd$[ebp], 17 ; 00000011H
  00340	0f 85 b5 01 00
	00		 jne	 $LN115@iwm_comman

; 1695 : 		{
; 1696 : 			QuestProcess();

  00346	8b ce		 mov	 ecx, esi
  00348	e8 00 00 00 00	 call	 ?QuestProcess@HelpWnd@@IAEXXZ ; HelpWnd::QuestProcess

; 1697 : 		}
; 1698 : 		break;

  0034d	e9 a9 01 00 00	 jmp	 $LN115@iwm_comman
$LN31@iwm_comman:

; 1699 : 	case ID_PET:
; 1700 : 		if( cmd == IOBN_BTNUP || cmd == IOEX_BTNUP )

  00352	83 7d 0c 11	 cmp	 DWORD PTR _cmd$[ebp], 17 ; 00000011H
  00356	74 0a		 je	 SHORT $LN29@iwm_comman
  00358	83 7d 0c 16	 cmp	 DWORD PTR _cmd$[ebp], 22 ; 00000016H
  0035c	0f 85 99 01 00
	00		 jne	 $LN115@iwm_comman
$LN29@iwm_comman:

; 1701 : 		{
; 1702 : 			PetProcess();

  00362	8b ce		 mov	 ecx, esi
  00364	e8 00 00 00 00	 call	 ?PetProcess@HelpWnd@@IAEXXZ ; HelpWnd::PetProcess

; 1703 : 		}
; 1704 : 		break;

  00369	e9 8d 01 00 00	 jmp	 $LN115@iwm_comman
$LN28@iwm_comman:

; 1705 : 	case ID_WEB_EVENT:
; 1706 : 		if( cmd == IOBN_BTNUP || cmd == IOEX_BTNUP )

  0036e	83 7d 0c 11	 cmp	 DWORD PTR _cmd$[ebp], 17 ; 00000011H
  00372	74 0a		 je	 SHORT $LN26@iwm_comman
  00374	83 7d 0c 16	 cmp	 DWORD PTR _cmd$[ebp], 22 ; 00000016H
  00378	0f 85 7d 01 00
	00		 jne	 $LN115@iwm_comman
$LN26@iwm_comman:

; 1707 : 		{
; 1708 : 			ioLocalParent *pLocal = g_LocalMgr.GetLocal( ioLocalManager::GetLocalType() );

  0037e	ff 15 00 00 00
	00		 call	 DWORD PTR __imp_?GetLocalType@ioLocalManagerParent@@SA?AW4LocalType@1@XZ
  00384	50		 push	 eax
  00385	e8 00 00 00 00	 call	 ?GetSingleton@ioLocalManager@@SAAAV1@XZ ; ioLocalManager::GetSingleton
  0038a	8b c8		 mov	 ecx, eax
  0038c	e8 00 00 00 00	 call	 ?GetLocal@ioLocalManager@@QAEPAVioLocalParent@@W4LocalType@ioLocalManagerParent@@@Z ; ioLocalManager::GetLocal

; 1709 : 			if( pLocal )

  00391	33 f6		 xor	 esi, esi
  00393	3b c6		 cmp	 eax, esi
  00395	0f 84 60 01 00
	00		 je	 $LN115@iwm_comman

; 1710 : 				pLocal->OpenWebPage( ioLocalParent::WEB_EVENT );

  0039b	56		 push	 esi
$LN140@iwm_comman:
  0039c	8b 10		 mov	 edx, DWORD PTR [eax]
  0039e	8b c8		 mov	 ecx, eax
  003a0	ff 92 60 01 00
	00		 call	 DWORD PTR [edx+352]

; 1711 : 		}
; 1712 : 		break;

  003a6	e9 50 01 00 00	 jmp	 $LN115@iwm_comman
$LN24@iwm_comman:

; 1713 : 	case ID_WEB_GUIDE:
; 1714 : 		if( cmd == IOBN_BTNUP || cmd == IOEX_BTNUP )

  003ab	83 7d 0c 11	 cmp	 DWORD PTR _cmd$[ebp], 17 ; 00000011H
  003af	74 0a		 je	 SHORT $LN22@iwm_comman
  003b1	83 7d 0c 16	 cmp	 DWORD PTR _cmd$[ebp], 22 ; 00000016H
  003b5	0f 85 40 01 00
	00		 jne	 $LN115@iwm_comman
$LN22@iwm_comman:

; 1715 : 		{
; 1716 : 			ioLocalParent *pLocal = g_LocalMgr.GetLocal( ioLocalManager::GetLocalType() );

  003bb	ff 15 00 00 00
	00		 call	 DWORD PTR __imp_?GetLocalType@ioLocalManagerParent@@SA?AW4LocalType@1@XZ
  003c1	50		 push	 eax
  003c2	e8 00 00 00 00	 call	 ?GetSingleton@ioLocalManager@@SAAAV1@XZ ; ioLocalManager::GetSingleton
  003c7	8b c8		 mov	 ecx, eax
  003c9	e8 00 00 00 00	 call	 ?GetLocal@ioLocalManager@@QAEPAVioLocalParent@@W4LocalType@ioLocalManagerParent@@@Z ; ioLocalManager::GetLocal

; 1717 : 			if( pLocal )

  003ce	85 c0		 test	 eax, eax
  003d0	0f 84 25 01 00
	00		 je	 $LN115@iwm_comman

; 1718 : 				pLocal->OpenWebPage( ioLocalParent::WEB_GUIDE );

  003d6	6a 01		 push	 1

; 1719 : 		}
; 1720 : 		break;

  003d8	eb c2		 jmp	 SHORT $LN140@iwm_comman
$LN20@iwm_comman:

; 1721 : 	case ID_MANUAL:
; 1722 : 		if( cmd == IOBN_BTNUP )

  003da	83 7d 0c 11	 cmp	 DWORD PTR _cmd$[ebp], 17 ; 00000011H
  003de	0f 85 17 01 00
	00		 jne	 $LN115@iwm_comman

; 1723 : 		{
; 1724 : 			ManualProcess();

  003e4	8b ce		 mov	 ecx, esi
  003e6	e8 00 00 00 00	 call	 ?ManualProcess@HelpWnd@@IAEXXZ ; HelpWnd::ManualProcess

; 1725 : 		}
; 1726 : 		break;

  003eb	e9 0b 01 00 00	 jmp	 $LN115@iwm_comman
$LN18@iwm_comman:

; 1727 : 	case ID_ROLLBOOK:
; 1728 : 		if( cmd == IOBN_BTNUP )

  003f0	83 7d 0c 11	 cmp	 DWORD PTR _cmd$[ebp], 17 ; 00000011H
  003f4	75 0c		 jne	 SHORT $LN17@iwm_comman

; 1729 : 		{
; 1730 : 			RollBookProcess();

  003f6	8b ce		 mov	 ecx, esi
  003f8	e8 00 00 00 00	 call	 ?RollBookProcess@HelpWnd@@IAEXXZ ; HelpWnd::RollBookProcess
  003fd	e9 f9 00 00 00	 jmp	 $LN115@iwm_comman
$LN17@iwm_comman:

; 1731 : 		}
; 1732 : 		else if ( cmd == IOEX_BTNUP )

  00402	83 7d 0c 16	 cmp	 DWORD PTR _cmd$[ebp], 22 ; 00000016H
  00406	0f 85 ef 00 00
	00		 jne	 $LN115@iwm_comman

; 1733 : 		{
; 1734 : 			if ( g_MyInfo.IsTutorialUser() )

  0040c	e8 00 00 00 00	 call	 ?GetSingleton@ioMyInfo@@SAAAV1@XZ ; ioMyInfo::GetSingleton
  00411	8b c8		 mov	 ecx, eax
  00413	e8 00 00 00 00	 call	 ?IsTutorialUser@ioMyInfo@@QAE_NXZ ; ioMyInfo::IsTutorialUser
  00418	84 c0		 test	 al, al
  0041a	74 0a		 je	 SHORT $LN14@iwm_comman

; 1735 : 				g_GUIMgr.SetMsgBox( MB_OK, NULL, STR(3) );

  0041c	33 f6		 xor	 esi, esi
  0041e	56		 push	 esi
  0041f	6a 03		 push	 3
  00421	e9 94 fc ff ff	 jmp	 $LN136@iwm_comman
$LN14@iwm_comman:

; 1736 : 			else if( g_MyInfo.GetEntryType() == ET_TERMINATION || g_MyInfo.IsExpertEntryTemporary() )

  00426	e8 00 00 00 00	 call	 ?GetSingleton@ioMyInfo@@SAAAV1@XZ ; ioMyInfo::GetSingleton
  0042b	83 78 5c ff	 cmp	 DWORD PTR [eax+92], -1
  0042f	74 2c		 je	 SHORT $LN11@iwm_comman
  00431	e8 00 00 00 00	 call	 ?GetSingleton@ioMyInfo@@SAAAV1@XZ ; ioMyInfo::GetSingleton
  00436	8b c8		 mov	 ecx, eax
  00438	e8 00 00 00 00	 call	 ?IsExpertEntryTemporary@ioMyInfo@@QAE_NXZ ; ioMyInfo::IsExpertEntryTemporary
  0043d	84 c0		 test	 al, al
  0043f	75 1c		 jne	 SHORT $LN11@iwm_comman

; 1740 : 			}
; 1741 : 			else if ( g_MyInfo.GetEntryType() == ET_TEMPORARY )

  00441	e8 00 00 00 00	 call	 ?GetSingleton@ioMyInfo@@SAAAV1@XZ ; ioMyInfo::GetSingleton

; 1742 : 				g_GUIMgr.SetMsgBox( MB_OK, NULL, STR(5) );

  00446	33 f6		 xor	 esi, esi
  00448	83 78 5c 01	 cmp	 DWORD PTR [eax+92], 1
  0044c	56		 push	 esi
  0044d	75 07		 jne	 SHORT $LN9@iwm_comman
  0044f	6a 05		 push	 5

; 1743 : 			else

  00451	e9 64 fc ff ff	 jmp	 $LN136@iwm_comman
$LN9@iwm_comman:

; 1744 : 				g_GUIMgr.SetMsgBox( MB_OK, NULL, STR(6) );

  00456	6a 06		 push	 6
  00458	e9 5d fc ff ff	 jmp	 $LN136@iwm_comman
$LN11@iwm_comman:

; 1737 : 			{
; 1738 : 				g_GUIMgr.SetMsgBox( MB_OK, NULL, STR(4) );

  0045d	33 f6		 xor	 esi, esi
  0045f	56		 push	 esi
  00460	6a 04		 push	 4
  00462	68 00 00 00 00	 push	 OFFSET ??_C@_00CNPNBAHC@?$AA@
  00467	68 00 00 00 00	 push	 OFFSET ??_C@_0BF@LIIHCOH@HelpWnd?3?3iwm_command?$AA@
  0046c	ff 15 00 00 00
	00		 call	 DWORD PTR __imp_?GetSingleton@ioStringManager@@SAAAV1@XZ
  00472	8b c8		 mov	 ecx, eax
  00474	ff 15 00 00 00
	00		 call	 DWORD PTR __imp_?GetString@ioStringManager@@QAEPADPBD0HW4FileNamePrefix@1@@Z
  0047a	50		 push	 eax
  0047b	56		 push	 esi
  0047c	56		 push	 esi
  0047d	e8 00 00 00 00	 call	 ?GetSingleton@ioSP2GUIManager@@SAAAV1@XZ ; ioSP2GUIManager::GetSingleton
  00482	50		 push	 eax
  00483	e8 00 00 00 00	 call	 ?SetMsgBox@ioSP2GUIManager@@QAAXHPAVioWnd@@PBDZZ ; ioSP2GUIManager::SetMsgBox
  00488	83 c4 10	 add	 esp, 16			; 00000010H

; 1739 : 				g_App.OpenFormalityEntryPage();

  0048b	e8 00 00 00 00	 call	 ?GetSingleton@ioApplication@@SAAAV1@XZ ; ioApplication::GetSingleton
  00490	8b c8		 mov	 ecx, eax
  00492	e8 00 00 00 00	 call	 ?OpenFormalityEntryPage@ioApplication@@QAEXXZ ; ioApplication::OpenFormalityEntryPage

; 1745 : 		}
; 1746 : 		break;

  00497	eb 62		 jmp	 SHORT $LN115@iwm_comman
$LN7@iwm_comman:

; 1747 : 	case ID_MINI_HOME:
; 1748 : 		if( cmd == IOBN_BTNUP )

  00499	83 7d 0c 11	 cmp	 DWORD PTR _cmd$[ebp], 17 ; 00000011H
  0049d	75 5c		 jne	 SHORT $LN115@iwm_comman

; 1749 : 		{
; 1750 : 			g_App.OpenHeadQuaterPage( g_MyInfo.GetPublicID().c_str() );

  0049f	e8 00 00 00 00	 call	 ?GetSingleton@ioMyInfo@@SAAAV1@XZ ; ioMyInfo::GetSingleton
  004a4	6a 01		 push	 1
  004a6	8d 48 1c	 lea	 ecx, DWORD PTR [eax+28]
  004a9	ff 15 00 00 00
	00		 call	 DWORD PTR __imp_?c_str@ioHashString@@QBEPBDXZ
  004af	50		 push	 eax
  004b0	e8 00 00 00 00	 call	 ?GetSingleton@ioApplication@@SAAAV1@XZ ; ioApplication::GetSingleton
  004b5	8b c8		 mov	 ecx, eax
  004b7	e8 00 00 00 00	 call	 ?OpenHeadQuaterPage@ioApplication@@QAEXPBD_N@Z ; ioApplication::OpenHeadQuaterPage

; 1751 : 		}
; 1752 : 		break;

  004bc	eb 3d		 jmp	 SHORT $LN115@iwm_comman
$LN5@iwm_comman:

; 1753 : 	case ID_OPTION:
; 1754 : 		if( cmd == IOBN_BTNUP )

  004be	83 7d 0c 11	 cmp	 DWORD PTR _cmd$[ebp], 17 ; 00000011H
  004c2	75 37		 jne	 SHORT $LN115@iwm_comman

; 1755 : 		{
; 1756 : 			OptionProcess();

  004c4	8b ce		 mov	 ecx, esi
  004c6	e8 00 00 00 00	 call	 ?OptionProcess@HelpWnd@@IAEXXZ ; HelpWnd::OptionProcess

; 1757 : 		}
; 1758 : 		break;

  004cb	eb 2e		 jmp	 SHORT $LN115@iwm_comman
$LN3@iwm_comman:

; 1759 : 	case ID_MESSENGER:
; 1760 : 		if( cmd == IOBN_BTNUP || cmd == IOEX_BTNUP )

  004cd	83 7d 0c 11	 cmp	 DWORD PTR _cmd$[ebp], 17 ; 00000011H
  004d1	74 06		 je	 SHORT $LN1@iwm_comman
  004d3	83 7d 0c 16	 cmp	 DWORD PTR _cmd$[ebp], 22 ; 00000016H
  004d7	75 22		 jne	 SHORT $LN115@iwm_comman
$LN1@iwm_comman:

; 1761 : 		{
; 1762 : 			MessengerProcess();

  004d9	8b ce		 mov	 ecx, esi
  004db	e8 00 00 00 00	 call	 ?MessengerProcess@HelpWnd@@IAEXXZ ; HelpWnd::MessengerProcess

; 1763 : 		}
; 1764 : 		break;

  004e0	eb 19		 jmp	 SHORT $LN115@iwm_comman
$LN121@iwm_comman:

; 1480 : 
; 1481 : 	switch( dwID )

  004e2	83 f8 28	 cmp	 eax, 40			; 00000028H
  004e5	75 14		 jne	 SHORT $LN115@iwm_comman
$LN116@iwm_comman:

; 1482 : 	{
; 1483 : 	case ID_GAME_CLOSE:
; 1484 : 	case ID_GAME_CLOSE2:
; 1485 : 		if( cmd == IOBN_BTNUP )

  004e7	83 7d 0c 11	 cmp	 DWORD PTR _cmd$[ebp], 17 ; 00000011H
  004eb	75 0e		 jne	 SHORT $LN115@iwm_comman
$LN134@iwm_comman:

; 1486 : 		{
; 1487 : 			g_App.AltF4ExitProcess();

  004ed	6a 01		 push	 1
  004ef	e8 00 00 00 00	 call	 ?GetSingleton@ioApplication@@SAAAV1@XZ ; ioApplication::GetSingleton
  004f4	8b c8		 mov	 ecx, eax
  004f6	e8 00 00 00 00	 call	 ?AltF4ExitProcess@ioApplication@@QAEX_N@Z ; ioApplication::AltF4ExitProcess
$LN115@iwm_comman:
  004fb	5e		 pop	 esi

; 1765 : 	}
; 1766 : }

  004fc	5d		 pop	 ebp
  004fd	c2 0c 00	 ret	 12			; 0000000cH
$LN141@iwm_comman:
  00500	00 00 00 00	 DD	 $LN116@iwm_comman
  00504	00 00 00 00	 DD	 $LN114@iwm_comman
  00508	00 00 00 00	 DD	 $LN92@iwm_comman
  0050c	00 00 00 00	 DD	 $LN48@iwm_comman
  00510	00 00 00 00	 DD	 $LN60@iwm_comman
  00514	00 00 00 00	 DD	 $LN57@iwm_comman
  00518	00 00 00 00	 DD	 $LN54@iwm_comman
  0051c	00 00 00 00	 DD	 $LN51@iwm_comman
  00520	00 00 00 00	 DD	 $LN45@iwm_comman
  00524	00 00 00 00	 DD	 $LN42@iwm_comman
  00528	00 00 00 00	 DD	 $LN39@iwm_comman
  0052c	00 00 00 00	 DD	 $LN36@iwm_comman
  00530	00 00 00 00	 DD	 $LN33@iwm_comman
  00534	00 00 00 00	 DD	 $LN31@iwm_comman
  00538	00 00 00 00	 DD	 $LN28@iwm_comman
  0053c	00 00 00 00	 DD	 $LN24@iwm_comman
  00540	00 00 00 00	 DD	 $LN115@iwm_comman
  00544	00 00 00 00	 DD	 $LN115@iwm_comman
  00548	00 00 00 00	 DD	 $LN18@iwm_comman
  0054c	00 00 00 00	 DD	 $LN7@iwm_comman
  00550	00 00 00 00	 DD	 $LN20@iwm_comman
  00554	00 00 00 00	 DD	 $LN5@iwm_comman
?iwm_command@HelpWnd@@UAEXPAVioWnd@@HK@Z ENDP		; HelpWnd::iwm_command
_TEXT	ENDS
PUBLIC	??1?$vector@PAVMenuBase@@V?$allocator@PAVMenuBase@@@std@@@std@@QAE@XZ ; std::vector<MenuBase *,std::allocator<MenuBase *> >::~vector<MenuBase *,std::allocator<MenuBase *> >
; Function compile flags: /Ogsp
; File c:\program files (x86)\microsoft visual studio 10.0\vc\include\vector
;	COMDAT ??1?$vector@PAVMenuBase@@V?$allocator@PAVMenuBase@@@std@@@std@@QAE@XZ
_TEXT	SEGMENT
??1?$vector@PAVMenuBase@@V?$allocator@PAVMenuBase@@@std@@@std@@QAE@XZ PROC ; std::vector<MenuBase *,std::allocator<MenuBase *> >::~vector<MenuBase *,std::allocator<MenuBase *> >, COMDAT
; _this$ = ecx

; 705  : 		_Tidy();

  00000	e9 00 00 00 00	 jmp	 ?_Tidy@?$vector@PAVMenuBase@@V?$allocator@PAVMenuBase@@@std@@@std@@IAEXXZ ; std::vector<MenuBase *,std::allocator<MenuBase *> >::_Tidy
??1?$vector@PAVMenuBase@@V?$allocator@PAVMenuBase@@@std@@@std@@QAE@XZ ENDP ; std::vector<MenuBase *,std::allocator<MenuBase *> >::~vector<MenuBase *,std::allocator<MenuBase *> >
_TEXT	ENDS
PUBLIC	?_Reserve@?$vector@PAVMenuBase@@V?$allocator@PAVMenuBase@@@std@@@std@@IAEXI@Z ; std::vector<MenuBase *,std::allocator<MenuBase *> >::_Reserve
; Function compile flags: /Ogsp
;	COMDAT ?_Reserve@?$vector@PAVMenuBase@@V?$allocator@PAVMenuBase@@@std@@@std@@IAEXI@Z
_TEXT	SEGMENT
__Count$ = 8						; size = 4
?_Reserve@?$vector@PAVMenuBase@@V?$allocator@PAVMenuBase@@@std@@@std@@IAEXI@Z PROC ; std::vector<MenuBase *,std::allocator<MenuBase *> >::_Reserve, COMDAT
; _this$ = ecx

; 1290 : 		{	// ensure room for _Count new elements, grow exponentially

  00000	55		 push	 ebp
  00001	8b ec		 mov	 ebp, esp
  00003	56		 push	 esi
  00004	8b f1		 mov	 esi, ecx

; 1291 : 		size_type _Size = size();

  00006	8b 0e		 mov	 ecx, DWORD PTR [esi]
  00008	8b 46 04	 mov	 eax, DWORD PTR [esi+4]
  0000b	2b c1		 sub	 eax, ecx

; 1292 : 		if (max_size() - _Count < _Size)

  0000d	ba ff ff ff 3f	 mov	 edx, 1073741823		; 3fffffffH
  00012	2b 55 08	 sub	 edx, DWORD PTR __Count$[ebp]
  00015	c1 f8 02	 sar	 eax, 2
  00018	3b d0		 cmp	 edx, eax
  0001a	73 0b		 jae	 SHORT $LN4@Reserve

; 1293 : 			_Xlen();

  0001c	68 00 00 00 00	 push	 OFFSET ??_C@_0BD@OLBABOEK@vector?$DMT?$DO?5too?5long?$AA@
  00021	ff 15 00 00 00
	00		 call	 DWORD PTR __imp_?_Xlength_error@std@@YAXPBD@Z
$LN21@Reserve:
$LN4@Reserve:

; 1294 : 		else if ((_Size += _Count) <= capacity())

  00027	8b 56 08	 mov	 edx, DWORD PTR [esi+8]
  0002a	03 45 08	 add	 eax, DWORD PTR __Count$[ebp]
  0002d	2b d1		 sub	 edx, ecx
  0002f	c1 fa 02	 sar	 edx, 2
  00032	3b c2		 cmp	 eax, edx
  00034	76 10		 jbe	 SHORT $LN1@Reserve

; 1295 : 			;
; 1296 : 		else
; 1297 : 			reserve(_Grow_to(_Size));

  00036	50		 push	 eax
  00037	8b ce		 mov	 ecx, esi
  00039	e8 00 00 00 00	 call	 ?_Grow_to@?$vector@PAVMenuBase@@V?$allocator@PAVMenuBase@@@std@@@std@@IBEII@Z ; std::vector<MenuBase *,std::allocator<MenuBase *> >::_Grow_to
  0003e	50		 push	 eax
  0003f	8b ce		 mov	 ecx, esi
  00041	e8 00 00 00 00	 call	 ?reserve@?$vector@PAVMenuBase@@V?$allocator@PAVMenuBase@@@std@@@std@@QAEXI@Z ; std::vector<MenuBase *,std::allocator<MenuBase *> >::reserve
$LN1@Reserve:
  00046	5e		 pop	 esi

; 1298 : 		}

  00047	5d		 pop	 ebp
  00048	c2 04 00	 ret	 4
$LN20@Reserve:
?_Reserve@?$vector@PAVMenuBase@@V?$allocator@PAVMenuBase@@@std@@@std@@IAEXI@Z ENDP ; std::vector<MenuBase *,std::allocator<MenuBase *> >::_Reserve
_TEXT	ENDS
PUBLIC	?push_back@?$vector@PAVMenuBase@@V?$allocator@PAVMenuBase@@@std@@@std@@QAEXABQAVMenuBase@@@Z ; std::vector<MenuBase *,std::allocator<MenuBase *> >::push_back
; Function compile flags: /Ogsp
;	COMDAT ?push_back@?$vector@PAVMenuBase@@V?$allocator@PAVMenuBase@@@std@@@std@@QAEXABQAVMenuBase@@@Z
_TEXT	SEGMENT
__Val$ = 8						; size = 4
?push_back@?$vector@PAVMenuBase@@V?$allocator@PAVMenuBase@@@std@@@std@@QAEXABQAVMenuBase@@@Z PROC ; std::vector<MenuBase *,std::allocator<MenuBase *> >::push_back, COMDAT
; _this$ = ecx

; 976  : 		{	// insert element at end

  00000	55		 push	 ebp
  00001	8b ec		 mov	 ebp, esp
  00003	56		 push	 esi
  00004	8b f1		 mov	 esi, ecx

; 977  : 		if (_Inside(_STD addressof(_Val)))

  00006	8b 46 04	 mov	 eax, DWORD PTR [esi+4]
  00009	57		 push	 edi
  0000a	8b 7d 08	 mov	 edi, DWORD PTR __Val$[ebp]
  0000d	3b f8		 cmp	 edi, eax
  0000f	73 27		 jae	 SHORT $LN4@push_back
  00011	8b 0e		 mov	 ecx, DWORD PTR [esi]
  00013	3b cf		 cmp	 ecx, edi
  00015	77 21		 ja	 SHORT $LN4@push_back

; 978  : 			{	// push back an element
; 979  : 			size_type _Idx = _STD addressof(_Val) - this->_Myfirst;

  00017	2b f9		 sub	 edi, ecx
  00019	c1 ff 02	 sar	 edi, 2

; 980  : 			if (this->_Mylast == this->_Myend)

  0001c	3b 46 08	 cmp	 eax, DWORD PTR [esi+8]
  0001f	75 09		 jne	 SHORT $LN3@push_back

; 981  : 				_Reserve(1);

  00021	6a 01		 push	 1
  00023	8b ce		 mov	 ecx, esi
  00025	e8 00 00 00 00	 call	 ?_Reserve@?$vector@PAVMenuBase@@V?$allocator@PAVMenuBase@@@std@@@std@@IAEXI@Z ; std::vector<MenuBase *,std::allocator<MenuBase *> >::_Reserve
$LN3@push_back:

; 982  : 			_Orphan_range(this->_Mylast, this->_Mylast);
; 983  : 			_Cons_val(this->_Alval,
; 984  : 				this->_Mylast,
; 985  : 				this->_Myfirst[_Idx]);

  0002a	8b 46 04	 mov	 eax, DWORD PTR [esi+4]
  0002d	85 c0		 test	 eax, eax
  0002f	74 20		 je	 SHORT $LN39@push_back
  00031	8b 0e		 mov	 ecx, DWORD PTR [esi]
  00033	8b 0c b9	 mov	 ecx, DWORD PTR [ecx+edi*4]

; 986  : 			++this->_Mylast;
; 987  : 			}
; 988  : 		else

  00036	eb 17		 jmp	 SHORT $LN46@push_back
$LN4@push_back:

; 989  : 			{	// push back a non-element
; 990  : 			if (this->_Mylast == this->_Myend)

  00038	3b 46 08	 cmp	 eax, DWORD PTR [esi+8]
  0003b	75 09		 jne	 SHORT $LN1@push_back

; 991  : 				_Reserve(1);

  0003d	6a 01		 push	 1
  0003f	8b ce		 mov	 ecx, esi
  00041	e8 00 00 00 00	 call	 ?_Reserve@?$vector@PAVMenuBase@@V?$allocator@PAVMenuBase@@@std@@@std@@IAEXI@Z ; std::vector<MenuBase *,std::allocator<MenuBase *> >::_Reserve
$LN1@push_back:

; 992  : 			_Orphan_range(this->_Mylast, this->_Mylast);
; 993  : 			_Cons_val(this->_Alval,
; 994  : 				this->_Mylast,
; 995  : 				_Val);

  00046	8b 46 04	 mov	 eax, DWORD PTR [esi+4]
  00049	85 c0		 test	 eax, eax
  0004b	74 04		 je	 SHORT $LN39@push_back
  0004d	8b 0f		 mov	 ecx, DWORD PTR [edi]
$LN46@push_back:
  0004f	89 08		 mov	 DWORD PTR [eax], ecx
$LN39@push_back:

; 996  : 			++this->_Mylast;

  00051	83 46 04 04	 add	 DWORD PTR [esi+4], 4
  00055	5f		 pop	 edi
  00056	5e		 pop	 esi

; 997  : 			}
; 998  : 		}

  00057	5d		 pop	 ebp
  00058	c2 04 00	 ret	 4
?push_back@?$vector@PAVMenuBase@@V?$allocator@PAVMenuBase@@@std@@@std@@QAEXABQAVMenuBase@@@Z ENDP ; std::vector<MenuBase *,std::allocator<MenuBase *> >::push_back
_TEXT	ENDS
PUBLIC	?ReCreateBtn@HelpWnd@@QAEXXZ			; HelpWnd::ReCreateBtn
EXTRN	?GetWebUrl@ioBrowserManager@@QAEABVioHashString@@H@Z:PROC ; ioBrowserManager::GetWebUrl
EXTRN	?GetSingleton@ioBrowserManager@@SAAAV1@XZ:PROC	; ioBrowserManager::GetSingleton
;	COMDAT xdata$x
xdata$x	SEGMENT
__unwindtable$?ReCreateBtn@HelpWnd@@QAEXXZ DD 0ffffffffH
	DD	FLAT:__unwindfunclet$?ReCreateBtn@HelpWnd@@QAEXXZ$0
__ehfuncinfo$?ReCreateBtn@HelpWnd@@QAEXXZ DD 019930522H
	DD	01H
	DD	FLAT:__unwindtable$?ReCreateBtn@HelpWnd@@QAEXXZ
	DD	2 DUP(00H)
	DD	2 DUP(00H)
	DD	00H
	DD	01H
; Function compile flags: /Ogsp
; File d:\lost saga for developer\youtube\tutorial\source\src\lsclient\gui\helpwnd.cpp
xdata$x	ENDS
;	COMDAT ?ReCreateBtn@HelpWnd@@QAEXXZ
_TEXT	SEGMENT
_MenuList$ = -48					; size = 16
_pBtn$558533 = -32					; size = 4
_iFirstBtnCnt$ = -28					; size = 4
_this$ = -24						; size = 4
_iRealXPos$ = -20					; size = 4
_i$ = -20						; size = 4
_BtnEmpty$558555 = -13					; size = 1
__$EHRec$ = -12						; size = 12
?ReCreateBtn@HelpWnd@@QAEXXZ PROC			; HelpWnd::ReCreateBtn, COMDAT
; _this$ = ecx

; 1949 : {

  00000	6a 24		 push	 36			; 00000024H
  00002	b8 00 00 00 00	 mov	 eax, __ehhandler$?ReCreateBtn@HelpWnd@@QAEXXZ
  00007	e8 00 00 00 00	 call	 __EH_prolog3
  0000c	89 4d e8	 mov	 DWORD PTR _this$[ebp], ecx

; 1950 : 	int i = 0;
; 1951 : 	//enum{ STEP1_X = 53, STEP1_W = 33, STEP2_X = 59, STEP2_W = 95, STEP2_W_2 = 80, };
; 1952 : 	enum{ STEP_X = 48, STEP1_W = 23, STEP2_W = 88,STEP2_W_2 = 80, };
; 1953 : 	
; 1954 : 	int iFirstBtnCnt = 0;

  0000f	33 c0		 xor	 eax, eax
  00011	89 45 e4	 mov	 DWORD PTR _iFirstBtnCnt$[ebp], eax

; 1955 : 
; 1956 : 	std::vector<MenuBase*> MenuList;

  00014	89 45 d0	 mov	 DWORD PTR _MenuList$[ebp], eax
  00017	89 45 d4	 mov	 DWORD PTR _MenuList$[ebp+4], eax
  0001a	89 45 d8	 mov	 DWORD PTR _MenuList$[ebp+8], eax
  0001d	8b 35 00 00 00
	00		 mov	 esi, DWORD PTR __imp_?SetWndPos@ioWnd@@QAEXHH@Z
  00023	6a 30		 push	 48			; 00000030H
  00025	89 45 fc	 mov	 DWORD PTR __$EHRec$[ebp+8], eax

; 1957 : 
; 1958 : 	// , , , , (or)
; 1959 : 	for( i = ID_ROOM_INFO; i < ID_PLAZA_STATE + 1; i++ )

  00028	c7 45 ec 03 00
	00 00		 mov	 DWORD PTR _i$[ebp], 3
  0002f	5b		 pop	 ebx
$LN35@ReCreateBt:

; 1960 : 	{
; 1961 : 		ioWnd *pRePosBtn = FindChildWnd( i );

  00030	ff 75 ec	 push	 DWORD PTR _i$[ebp]
  00033	8b 4d e8	 mov	 ecx, DWORD PTR _this$[ebp]
  00036	ff 15 00 00 00
	00		 call	 DWORD PTR __imp_?FindChildWnd@ioWnd@@QAEPAV1@K@Z
  0003c	8b f8		 mov	 edi, eax

; 1962 : 		if( pRePosBtn && pRePosBtn->IsShow() )

  0003e	85 ff		 test	 edi, edi
  00040	74 43		 je	 SHORT $LN34@ReCreateBt
  00042	8b cf		 mov	 ecx, edi
  00044	ff 15 00 00 00
	00		 call	 DWORD PTR __imp_?IsShow@ioWnd@@QBE_NXZ
  0004a	84 c0		 test	 al, al
  0004c	74 37		 je	 SHORT $LN34@ReCreateBt

; 1963 : 		{
; 1964 : 			pRePosBtn->SetWndPos( STEP_X + iFirstBtnCnt * STEP1_W, 7 );

  0004e	6a 07		 push	 7
  00050	53		 push	 ebx
  00051	8b cf		 mov	 ecx, edi
  00053	ff d6		 call	 esi

; 1965 : 			iFirstBtnCnt++;

  00055	ff 45 e4	 inc	 DWORD PTR _iFirstBtnCnt$[ebp]

; 1966 : 
; 1967 : 			MenuBase* pBtn = dynamic_cast<MenuBase*>( pRePosBtn );

  00058	6a 00		 push	 0
  0005a	68 00 00 00 00	 push	 OFFSET ??_R0?AVMenuBase@@@8
  0005f	68 00 00 00 00	 push	 OFFSET ??_R0?AVioWnd@@@8
  00064	6a 00		 push	 0
  00066	57		 push	 edi
  00067	83 c3 17	 add	 ebx, 23			; 00000017H
  0006a	e8 00 00 00 00	 call	 ___RTDynamicCast
  0006f	83 c4 14	 add	 esp, 20			; 00000014H
  00072	89 45 e0	 mov	 DWORD PTR _pBtn$558533[ebp], eax

; 1968 : 			if( pBtn )

  00075	85 c0		 test	 eax, eax
  00077	74 0c		 je	 SHORT $LN34@ReCreateBt

; 1969 : 				MenuList.push_back( pBtn );

  00079	8d 45 e0	 lea	 eax, DWORD PTR _pBtn$558533[ebp]
  0007c	50		 push	 eax
  0007d	8d 4d d0	 lea	 ecx, DWORD PTR _MenuList$[ebp]
  00080	e8 00 00 00 00	 call	 ?push_back@?$vector@PAVMenuBase@@V?$allocator@PAVMenuBase@@@std@@@std@@QAEXABQAVMenuBase@@@Z ; std::vector<MenuBase *,std::allocator<MenuBase *> >::push_back
$LN34@ReCreateBt:

; 1957 : 
; 1958 : 	// , , , , (or)
; 1959 : 	for( i = ID_ROOM_INFO; i < ID_PLAZA_STATE + 1; i++ )

  00085	ff 45 ec	 inc	 DWORD PTR _i$[ebp]
  00088	83 7d ec 0a	 cmp	 DWORD PTR _i$[ebp], 10	; 0000000aH
  0008c	7c a2		 jl	 SHORT $LN35@ReCreateBt

; 1970 : 		}
; 1971 : 	}
; 1972 : 
; 1973 : 	if( 1 < MenuList.size() )

  0008e	8b 7d d4	 mov	 edi, DWORD PTR _MenuList$[ebp+4]
  00091	8b 55 d0	 mov	 edx, DWORD PTR _MenuList$[ebp]
  00094	8b c7		 mov	 eax, edi
  00096	2b c2		 sub	 eax, edx
  00098	33 db		 xor	 ebx, ebx
  0009a	c1 f8 02	 sar	 eax, 2
  0009d	43		 inc	 ebx
  0009e	3b c3		 cmp	 eax, ebx
  000a0	76 44		 jbe	 SHORT $LN27@ReCreateBt

; 1974 : 	{
; 1975 : 		for( int iter = 0; iter < (int)MenuList.size(); ++iter )

  000a2	33 c9		 xor	 ecx, ecx
  000a4	85 c0		 test	 eax, eax
  000a6	7e 3e		 jle	 SHORT $LN27@ReCreateBt
$LL29@ReCreateBt:

; 1976 : 		{
; 1977 : 			if( iter == 0 )

  000a8	85 c9		 test	 ecx, ecx
  000aa	75 0a		 jne	 SHORT $LN26@ReCreateBt

; 1978 : 				MenuList[iter]->SetMenuStyle( MenuBase::MS_START );

  000ac	8b 12		 mov	 edx, DWORD PTR [edx]
  000ae	89 9a 2c 02 00
	00		 mov	 DWORD PTR [edx+556], ebx

; 1979 : 			else if( iter == (int)MenuList.size() - 1 )

  000b4	eb 1e		 jmp	 SHORT $LN28@ReCreateBt
$LN26@ReCreateBt:

; 1980 : 				MenuList[iter]->SetMenuStyle( MenuBase::MS_END );

  000b6	8b 14 8a	 mov	 edx, DWORD PTR [edx+ecx*4]
  000b9	48		 dec	 eax
  000ba	3b c8		 cmp	 ecx, eax
  000bc	75 0c		 jne	 SHORT $LN24@ReCreateBt
  000be	c7 82 2c 02 00
	00 03 00 00 00	 mov	 DWORD PTR [edx+556], 3

; 1981 : 			else

  000c8	eb 0a		 jmp	 SHORT $LN28@ReCreateBt
$LN24@ReCreateBt:

; 1982 : 				MenuList[iter]->SetMenuStyle( MenuBase::MS_MIDDLE );

  000ca	c7 82 2c 02 00
	00 02 00 00 00	 mov	 DWORD PTR [edx+556], 2
$LN28@ReCreateBt:

; 1974 : 	{
; 1975 : 		for( int iter = 0; iter < (int)MenuList.size(); ++iter )

  000d4	8b 7d d4	 mov	 edi, DWORD PTR _MenuList$[ebp+4]
  000d7	8b 55 d0	 mov	 edx, DWORD PTR _MenuList$[ebp]
  000da	8b c7		 mov	 eax, edi
  000dc	2b c2		 sub	 eax, edx
  000de	41		 inc	 ecx
  000df	c1 f8 02	 sar	 eax, 2
  000e2	3b c8		 cmp	 ecx, eax
  000e4	7c c2		 jl	 SHORT $LL29@ReCreateBt
$LN27@ReCreateBt:

; 1983 : 		}
; 1984 : 	}
; 1985 : 
; 1986 : 	int iRealXPos = STEP_X;
; 1987 : 	if( iFirstBtnCnt != 0 )

  000e6	8b 45 e4	 mov	 eax, DWORD PTR _iFirstBtnCnt$[ebp]
  000e9	c7 45 ec 30 00
	00 00		 mov	 DWORD PTR _iRealXPos$[ebp], 48 ; 00000030H
  000f0	85 c0		 test	 eax, eax
  000f2	74 09		 je	 SHORT $LN22@ReCreateBt

; 1988 : 		iRealXPos += ( iFirstBtnCnt * STEP1_W ) + 2;      //   2 -_-;

  000f4	6b c0 17	 imul	 eax, 23			; 00000017H
  000f7	83 c0 32	 add	 eax, 50			; 00000032H
  000fa	89 45 ec	 mov	 DWORD PTR _iRealXPos$[ebp], eax
$LN22@ReCreateBt:

; 1989 : 
; 1990 : 	if( 0 < (int)MenuList.size() )

  000fd	2b fa		 sub	 edi, edx
  000ff	f7 c7 fc ff ff
	ff		 test	 edi, -4			; fffffffcH
  00105	7e 04		 jle	 SHORT $LN21@ReCreateBt

; 1991 : 		iRealXPos += 6;

  00107	83 45 ec 06	 add	 DWORD PTR _iRealXPos$[ebp], 6
$LN21@ReCreateBt:

; 1992 : 
; 1993 : 	// , , , 
; 1994 : 	for(i = ID_SHOP;i < ID_WEB_GUIDE + 1;i++)

  0010b	6a 0a		 push	 10			; 0000000aH
  0010d	5f		 pop	 edi
$LN20@ReCreateBt:

; 1995 : 	{
; 1996 : 		bool BtnEmpty = false;

  0010e	c6 45 f3 00	 mov	 BYTE PTR _BtnEmpty$558555[ebp], 0

; 1997 : #ifdef SRC_OVERSEAS //,     
; 1998 : 		if( i == ID_WEB_EVENT )

  00112	83 ff 0f	 cmp	 edi, 15			; 0000000fH
  00115	75 20		 jne	 SHORT $LN17@ReCreateBt

; 1999 : 		{
; 2000 : 			if ( g_BrowserMgr.GetWebUrl( ioLocalParent::WEB_EVENT ).IsEmpty() )

  00117	6a 00		 push	 0
  00119	e8 00 00 00 00	 call	 ?GetSingleton@ioBrowserManager@@SAAAV1@XZ ; ioBrowserManager::GetSingleton
  0011e	8b c8		 mov	 ecx, eax
  00120	e8 00 00 00 00	 call	 ?GetWebUrl@ioBrowserManager@@QAEABVioHashString@@H@Z ; ioBrowserManager::GetWebUrl
  00125	8b c8		 mov	 ecx, eax
  00127	ff 15 00 00 00
	00		 call	 DWORD PTR __imp_?IsEmpty@ioHashString@@QBE_NXZ
  0012d	84 c0		 test	 al, al
  0012f	0f 85 d5 00 00
	00		 jne	 $LN19@ReCreateBt

; 2001 : 			{
; 2002 : 				continue;
; 2003 : 			}
; 2004 : 		}

  00135	eb 41		 jmp	 SHORT $LN12@ReCreateBt
$LN17@ReCreateBt:

; 2005 : 		else if( i == ID_WEB_GUIDE )

  00137	83 ff 10	 cmp	 edi, 16			; 00000010H
  0013a	75 3c		 jne	 SHORT $LN12@ReCreateBt

; 2006 : 		{
; 2007 : 			if ( g_BrowserMgr.GetWebUrl( ioLocalParent::WEB_GUIDE ).IsEmpty() )

  0013c	6a 01		 push	 1
  0013e	e8 00 00 00 00	 call	 ?GetSingleton@ioBrowserManager@@SAAAV1@XZ ; ioBrowserManager::GetSingleton
  00143	8b c8		 mov	 ecx, eax
  00145	e8 00 00 00 00	 call	 ?GetWebUrl@ioBrowserManager@@QAEABVioHashString@@H@Z ; ioBrowserManager::GetWebUrl
  0014a	8b c8		 mov	 ecx, eax
  0014c	ff 15 00 00 00
	00		 call	 DWORD PTR __imp_?IsEmpty@ioHashString@@QBE_NXZ
  00152	84 c0		 test	 al, al
  00154	0f 85 b0 00 00
	00		 jne	 $LN19@ReCreateBt

; 2008 : 				continue;
; 2009 : 
; 2010 : 			if ( g_BrowserMgr.GetWebUrl( ioLocalParent::WEB_EVENT ).IsEmpty() )

  0015a	6a 00		 push	 0
  0015c	e8 00 00 00 00	 call	 ?GetSingleton@ioBrowserManager@@SAAAV1@XZ ; ioBrowserManager::GetSingleton
  00161	8b c8		 mov	 ecx, eax
  00163	e8 00 00 00 00	 call	 ?GetWebUrl@ioBrowserManager@@QAEABVioHashString@@H@Z ; ioBrowserManager::GetWebUrl
  00168	8b c8		 mov	 ecx, eax
  0016a	ff 15 00 00 00
	00		 call	 DWORD PTR __imp_?IsEmpty@ioHashString@@QBE_NXZ
  00170	84 c0		 test	 al, al
  00172	74 04		 je	 SHORT $LN12@ReCreateBt

; 2011 : 			{
; 2012 : 				BtnEmpty = true;

  00174	c6 45 f3 01	 mov	 BYTE PTR _BtnEmpty$558555[ebp], 1
$LN12@ReCreateBt:

; 2013 : 			}
; 2014 : 		}
; 2015 : #endif
; 2016 : 		ioWnd *pRePosBtn = FindChildWnd( i );

  00178	8b 4d e8	 mov	 ecx, DWORD PTR _this$[ebp]
  0017b	57		 push	 edi
  0017c	ff 15 00 00 00
	00		 call	 DWORD PTR __imp_?FindChildWnd@ioWnd@@QAEPAV1@K@Z
  00182	8b d8		 mov	 ebx, eax

; 2017 : 		if( pRePosBtn && pRePosBtn->IsShow() )

  00184	85 db		 test	 ebx, ebx
  00186	74 7c		 je	 SHORT $LN7@ReCreateBt
  00188	8b cb		 mov	 ecx, ebx
  0018a	ff 15 00 00 00
	00		 call	 DWORD PTR __imp_?IsShow@ioWnd@@QBE_NXZ
  00190	84 c0		 test	 al, al
  00192	74 70		 je	 SHORT $LN7@ReCreateBt

; 2018 : 		{
; 2019 : 			if ( i <= ID_PRESENT )

  00194	83 ff 0c	 cmp	 edi, 12			; 0000000cH
  00197	7f 0b		 jg	 SHORT $LN10@ReCreateBt

; 2020 : 				pRePosBtn->SetWndPos( iRealXPos + ((i-ID_SHOP) * STEP2_W), 6 );

  00199	8d 47 f6	 lea	 eax, DWORD PTR [edi-10]
  0019c	6b c0 58	 imul	 eax, 88			; 00000058H
  0019f	03 45 ec	 add	 eax, DWORD PTR _iRealXPos$[ebp]

; 2021 : 			else

  001a2	eb 16		 jmp	 SHORT $LN86@ReCreateBt
$LN10@ReCreateBt:

; 2022 : 			{
; 2023 : 				if( BtnEmpty ) --i;

  001a4	80 7d f3 00	 cmp	 BYTE PTR _BtnEmpty$558555[ebp], 0
  001a8	74 01		 je	 SHORT $LN8@ReCreateBt
  001aa	4f		 dec	 edi
$LN8@ReCreateBt:

; 2024 : 				pRePosBtn->SetWndPos( iRealXPos + ((ID_PRESENT-ID_SHOP) * STEP2_W) + ((i-ID_PRESENT) * STEP2_W_2), 6 );

  001ab	8b 4d ec	 mov	 ecx, DWORD PTR _iRealXPos$[ebp]
  001ae	8b c7		 mov	 eax, edi
  001b0	6b c0 50	 imul	 eax, 80			; 00000050H
  001b3	8d 84 08 f0 fc
	ff ff		 lea	 eax, DWORD PTR [eax+ecx-784]
$LN86@ReCreateBt:
  001ba	6a 06		 push	 6
  001bc	50		 push	 eax
  001bd	8b cb		 mov	 ecx, ebx
  001bf	ff d6		 call	 esi

; 2025 : 			}
; 2026 : 
; 2027 : 			pRePosBtn->SetWndPos( iRealXPos + ((i-ID_SHOP) * STEP2_W), 7 );

  001c1	8d 47 f6	 lea	 eax, DWORD PTR [edi-10]
  001c4	6b c0 58	 imul	 eax, 88			; 00000058H
  001c7	03 45 ec	 add	 eax, DWORD PTR _iRealXPos$[ebp]
  001ca	6a 07		 push	 7
  001cc	50		 push	 eax
  001cd	8b cb		 mov	 ecx, ebx
  001cf	ff d6		 call	 esi

; 2028 : 
; 2029 : 			if( i == ID_MISSION_QUEST )

  001d1	83 ff 0d	 cmp	 edi, 13			; 0000000dH
  001d4	75 2e		 jne	 SHORT $LN7@ReCreateBt

; 2030 : 			{
; 2031 : 				sg_fQuestXPos = pRePosBtn->GetDerivedPosX();

  001d6	8b cb		 mov	 ecx, ebx
  001d8	ff 15 00 00 00
	00		 call	 DWORD PTR __imp_?GetDerivedPosX@ioWnd@@QBEHXZ
  001de	0f 57 c0	 xorps	 xmm0, xmm0
  001e1	f3 0f 2a c0	 cvtsi2ss xmm0, eax

; 2032 : 				sg_fQuestYPos = pRePosBtn->GetDerivedPosY();

  001e5	8b cb		 mov	 ecx, ebx
  001e7	f3 0f 11 05 00
	00 00 00	 movss	 DWORD PTR ?sg_fQuestXPos@HelpWnd@@1MA, xmm0
  001ef	ff 15 00 00 00
	00		 call	 DWORD PTR __imp_?GetDerivedPosY@ioWnd@@QBEHXZ
  001f5	0f 57 c0	 xorps	 xmm0, xmm0
  001f8	f3 0f 2a c0	 cvtsi2ss xmm0, eax
  001fc	f3 0f 11 05 00
	00 00 00	 movss	 DWORD PTR ?sg_fQuestYPos@HelpWnd@@1MA, xmm0
$LN7@ReCreateBt:

; 2033 : 			}
; 2034 : 		}
; 2035 : 		if( BtnEmpty ) break;

  00204	80 7d f3 00	 cmp	 BYTE PTR _BtnEmpty$558555[ebp], 0
  00208	75 0a		 jne	 SHORT $LN75@ReCreateBt
$LN19@ReCreateBt:

; 1992 : 
; 1993 : 	// , , , 
; 1994 : 	for(i = ID_SHOP;i < ID_WEB_GUIDE + 1;i++)

  0020a	47		 inc	 edi
  0020b	83 ff 11	 cmp	 edi, 17			; 00000011H
  0020e	0f 8c fa fe ff
	ff		 jl	 $LN20@ReCreateBt
$LN75@ReCreateBt:

; 2036 : 	}
; 2037 : 
; 2038 : 	//
; 2039 : 	iRealXPos = GetWidth() - 41;

  00214	8b 4d e8	 mov	 ecx, DWORD PTR _this$[ebp]
  00217	ff 15 00 00 00
	00		 call	 DWORD PTR __imp_?GetWidth@ioWnd@@QBEHXZ

; 2040 : 	ioWnd *pRePosBtn = FindChildWnd( ID_MESSENGER );

  0021d	8b 4d e8	 mov	 ecx, DWORD PTR _this$[ebp]
  00220	6a 1e		 push	 30			; 0000001eH
  00222	8d 78 d7	 lea	 edi, DWORD PTR [eax-41]
  00225	ff 15 00 00 00
	00		 call	 DWORD PTR __imp_?FindChildWnd@ioWnd@@QAEPAV1@K@Z
  0022b	8b d8		 mov	 ebx, eax

; 2041 : 	if( pRePosBtn )

  0022d	85 db		 test	 ebx, ebx
  0022f	74 35		 je	 SHORT $LN5@ReCreateBt

; 2042 : 	{
; 2043 : 		pRePosBtn->SetWndPos( iRealXPos, 7 );

  00231	6a 07		 push	 7
  00233	57		 push	 edi
  00234	8b cb		 mov	 ecx, ebx
  00236	ff d6		 call	 esi

; 2044 : 		sg_fMessengerXPos = pRePosBtn->GetDerivedPosX();

  00238	8b cb		 mov	 ecx, ebx
  0023a	ff 15 00 00 00
	00		 call	 DWORD PTR __imp_?GetDerivedPosX@ioWnd@@QBEHXZ
  00240	0f 57 c0	 xorps	 xmm0, xmm0
  00243	f3 0f 2a c0	 cvtsi2ss xmm0, eax

; 2045 : 		sg_fMessengerYPos = pRePosBtn->GetDerivedPosY();

  00247	8b cb		 mov	 ecx, ebx
  00249	f3 0f 11 05 00
	00 00 00	 movss	 DWORD PTR ?sg_fMessengerXPos@HelpWnd@@1MA, xmm0
  00251	ff 15 00 00 00
	00		 call	 DWORD PTR __imp_?GetDerivedPosY@ioWnd@@QBEHXZ
  00257	0f 57 c0	 xorps	 xmm0, xmm0
  0025a	f3 0f 2a c0	 cvtsi2ss xmm0, eax
  0025e	f3 0f 11 05 00
	00 00 00	 movss	 DWORD PTR ?sg_fMessengerYPos@HelpWnd@@1MA, xmm0
$LN5@ReCreateBt:

; 2046 : 		iRealXPos -= 8;
; 2047 : 	}
; 2048 : 	// , , 
; 2049 : 	//      	JCLEE 140611
; 2050 : #if defined( SHIPPING )
; 2051 :  	iRealXPos = GetWidth() - 167;

  00266	8b 4d e8	 mov	 ecx, DWORD PTR _this$[ebp]
  00269	ff 15 00 00 00
	00		 call	 DWORD PTR __imp_?GetWidth@ioWnd@@QBEHXZ

; 2052 :  	for(i = ID_ROLLBOOK;i < ID_OPTION + 1;i++)

  0026f	6a 13		 push	 19			; 00000013H
  00271	5f		 pop	 edi
  00272	8d 98 59 ff ff
	ff		 lea	 ebx, DWORD PTR [eax-167]
$LL4@ReCreateBt:

; 2053 :  	{
; 2054 :  		ioWnd *pRePosBtn = FindChildWnd( i );

  00278	8b 4d e8	 mov	 ecx, DWORD PTR _this$[ebp]
  0027b	57		 push	 edi
  0027c	ff 15 00 00 00
	00		 call	 DWORD PTR __imp_?FindChildWnd@ioWnd@@QAEPAV1@K@Z

; 2055 :  		if( pRePosBtn )

  00282	85 c0		 test	 eax, eax
  00284	74 07		 je	 SHORT $LN3@ReCreateBt

; 2056 :  		{
; 2057 :  			pRePosBtn->SetWndPos( iRealXPos + ((i-ID_ROLLBOOK) * 23), 6 );

  00286	6a 06		 push	 6
  00288	53		 push	 ebx
  00289	8b c8		 mov	 ecx, eax
  0028b	ff d6		 call	 esi
$LN3@ReCreateBt:

; 2052 :  	for(i = ID_ROLLBOOK;i < ID_OPTION + 1;i++)

  0028d	47		 inc	 edi
  0028e	83 c3 17	 add	 ebx, 23			; 00000017H
  00291	83 ff 17	 cmp	 edi, 23			; 00000017H
  00294	7c e2		 jl	 SHORT $LL4@ReCreateBt

; 2058 :  		}
; 2059 :  	}
; 2060 : #else
; 2061 : 	if( g_App.GetConnectedMoveMode() == ioApplication::CMM_LOBBY )
; 2062 : 		iRealXPos = GetWidth() - 147;
; 2063 : 	else	
; 2064 : 		iRealXPos = GetWidth() - 114;
; 2065 : 
; 2066 : 	iRealXPos = GetWidth() - 122;
; 2067 : 	int iOffset = 0;
; 2068 : 
; 2069 : 	// ~  
; 2070 : 	for( i = ID_OPTION; i >= ID_ROLLBOOK; --i )
; 2071 : 	{
; 2072 : #ifdef SRC_ID
; 2073 : 		iRealXPos = GetWidth() - 122;
; 2074 : #else
; 2075 : 		iRealXPos = GetWidth() - 122 + 18;
; 2076 : #endif
; 2077 : 		ioWnd *pRePosBtn = FindChildWnd( i );
; 2078 : 		if( pRePosBtn && pRePosBtn->IsShow() )
; 2079 : 		{
; 2080 : 			iRealXPos -= pRePosBtn->GetWidth();
; 2081 : 			pRePosBtn->SetWndPos( iRealXPos, 7 );
; 2082 : 		}
; 2083 : 	}
; 2084 : #endif
; 2085 : }

  00296	83 4d fc ff	 or	 DWORD PTR __$EHRec$[ebp+8], -1
  0029a	8d 4d d0	 lea	 ecx, DWORD PTR _MenuList$[ebp]
  0029d	e8 00 00 00 00	 call	 ?_Tidy@?$vector@PAVMenuBase@@V?$allocator@PAVMenuBase@@@std@@@std@@IAEXXZ ; std::vector<MenuBase *,std::allocator<MenuBase *> >::_Tidy
  002a2	e8 00 00 00 00	 call	 __EH_epilog3
  002a7	c3		 ret	 0
_TEXT	ENDS
;	COMDAT text$x
text$x	SEGMENT
__unwindfunclet$?ReCreateBtn@HelpWnd@@QAEXXZ$0:
  00000	8d 4d d0	 lea	 ecx, DWORD PTR _MenuList$[ebp]
  00003	e9 00 00 00 00	 jmp	 ??1?$vector@PAVMenuBase@@V?$allocator@PAVMenuBase@@@std@@@std@@QAE@XZ ; std::vector<MenuBase *,std::allocator<MenuBase *> >::~vector<MenuBase *,std::allocator<MenuBase *> >
__ehhandler$?ReCreateBtn@HelpWnd@@QAEXXZ:
  00008	8b 54 24 08	 mov	 edx, DWORD PTR [esp+8]
  0000c	8d 42 0c	 lea	 eax, DWORD PTR [edx+12]
  0000f	8b 4a cc	 mov	 ecx, DWORD PTR [edx-52]
  00012	33 c8		 xor	 ecx, eax
  00014	e8 00 00 00 00	 call	 @__security_check_cookie@4
  00019	b8 00 00 00 00	 mov	 eax, OFFSET __ehfuncinfo$?ReCreateBtn@HelpWnd@@QAEXXZ
  0001e	e9 00 00 00 00	 jmp	 ___CxxFrameHandler3
text$x	ENDS
?ReCreateBtn@HelpWnd@@QAEXXZ ENDP			; HelpWnd::ReCreateBtn
PUBLIC	?ReCreateWindow@HelpWnd@@QAEXXZ			; HelpWnd::ReCreateWindow
EXTRN	__imp_?SetChildWndStyleRemove@ioWnd@@QAEXKK@Z:PROC
EXTRN	__imp_?SetChildWndStyleAdd@ioWnd@@QAEXKK@Z:PROC
EXTRN	?GetPlazaModeType@ioPlayStage@@QAE?AW4PlazaType@@XZ:PROC ; ioPlayStage::GetPlazaModeType
EXTRN	?IsShuffleRoom@ioShuffleRoomMgr@@QAE_NXZ:PROC	; ioShuffleRoomMgr::IsShuffleRoom
EXTRN	?GetSingleton@ioShuffleRoomMgr@@SAAAV1@XZ:PROC	; ioShuffleRoomMgr::GetSingleton
EXTRN	?IsTournamentModeType@ioBattleRoomMgr@@QAE_NXZ:PROC ; ioBattleRoomMgr::IsTournamentModeType
EXTRN	__imp_?ShowChildWnd@ioWnd@@QAEXK_N@Z:PROC
EXTRN	__imp_?HideChildWnd@ioWnd@@QAEXK_N@Z:PROC
; Function compile flags: /Ogsp
;	COMDAT ?ReCreateWindow@HelpWnd@@QAEXXZ
_TEXT	SEGMENT
?ReCreateWindow@HelpWnd@@QAEXXZ PROC			; HelpWnd::ReCreateWindow, COMDAT
; _this$ = ecx

; 1769 : {

  00000	53		 push	 ebx
  00001	56		 push	 esi
  00002	57		 push	 edi
  00003	8b f9		 mov	 edi, ecx

; 1770 : 	SetWndPos( POS_X_GAP, (Setting::Height() - POS_Y_GAP) + m_fMoveWndYPos );

  00005	e8 00 00 00 00	 call	 ?Height@Setting@@SAHXZ	; Setting::Height
  0000a	f3 0f 10 8f a0
	01 00 00	 movss	 xmm1, DWORD PTR [edi+416]
  00012	83 e8 2a	 sub	 eax, 42			; 0000002aH
  00015	0f 57 c0	 xorps	 xmm0, xmm0
  00018	f3 0f 2a c0	 cvtsi2ss xmm0, eax
  0001c	0f 5a c0	 cvtps2pd xmm0, xmm0
  0001f	0f 5a c9	 cvtps2pd xmm1, xmm1
  00022	f2 0f 58 c1	 addsd	 xmm0, xmm1
  00026	f2 0f 2c c0	 cvttsd2si eax, xmm0
  0002a	50		 push	 eax
  0002b	6a 0e		 push	 14			; 0000000eH
  0002d	8b cf		 mov	 ecx, edi
  0002f	ff 15 00 00 00
	00		 call	 DWORD PTR __imp_?SetWndPos@ioWnd@@QAEXHH@Z

; 1771 : 	SetSize( Setting::Width() - POS_W_GAP, POS_H_GAP );

  00035	8b 37		 mov	 esi, DWORD PTR [edi]
  00037	6a 2a		 push	 42			; 0000002aH
  00039	e8 00 00 00 00	 call	 ?Width@Setting@@SAHXZ	; Setting::Width
  0003e	83 e8 1c	 sub	 eax, 28			; 0000001cH
  00041	50		 push	 eax
  00042	8b cf		 mov	 ecx, edi
  00044	ff 56 2c	 call	 DWORD PTR [esi+44]

; 1772 : 
; 1773 : 	HideChildWnd( ID_GAME_CLOSE );

  00047	8b 35 00 00 00
	00		 mov	 esi, DWORD PTR __imp_?HideChildWnd@ioWnd@@QAEXK_N@Z
  0004d	33 db		 xor	 ebx, ebx
  0004f	53		 push	 ebx
  00050	6a 01		 push	 1
  00052	8b cf		 mov	 ecx, edi
  00054	ff d6		 call	 esi

; 1774 : 	HideChildWnd( ID_GAME_CLOSE2 );

  00056	53		 push	 ebx
  00057	6a 28		 push	 40			; 00000028H
  00059	8b cf		 mov	 ecx, edi
  0005b	ff d6		 call	 esi

; 1775 : 	HideChildWnd( ID_BACK_STAGE );

  0005d	53		 push	 ebx
  0005e	6a 02		 push	 2
  00060	8b cf		 mov	 ecx, edi
  00062	ff d6		 call	 esi

; 1776 : 	HideChildWnd( ID_ROOM_INFO );

  00064	53		 push	 ebx
  00065	6a 03		 push	 3
  00067	8b cf		 mov	 ecx, edi
  00069	ff d6		 call	 esi

; 1777 : 	HideChildWnd( ID_DISPLAY );

  0006b	53		 push	 ebx
  0006c	6a 05		 push	 5
  0006e	8b cf		 mov	 ecx, edi
  00070	ff d6		 call	 esi

; 1778 : 	HideChildWnd( ID_PRACTICE );

  00072	53		 push	 ebx
  00073	6a 06		 push	 6
  00075	8b cf		 mov	 ecx, edi
  00077	ff d6		 call	 esi

; 1779 : 	HideChildWnd( ID_FISHING );

  00079	53		 push	 ebx
  0007a	6a 07		 push	 7
  0007c	8b cf		 mov	 ecx, edi
  0007e	ff d6		 call	 esi

; 1780 : 	HideChildWnd( ID_EXCAVATION );

  00080	53		 push	 ebx
  00081	6a 08		 push	 8
  00083	8b cf		 mov	 ecx, edi
  00085	ff d6		 call	 esi

; 1781 : 	HideChildWnd( ID_HOUSING_SETUP );

  00087	53		 push	 ebx
  00088	6a 04		 push	 4
  0008a	8b cf		 mov	 ecx, edi
  0008c	ff d6		 call	 esi

; 1782 : 	HideChildWnd( ID_PLAZA_STATE );

  0008e	53		 push	 ebx
  0008f	6a 09		 push	 9
  00091	8b cf		 mov	 ecx, edi
  00093	ff d6		 call	 esi

; 1783 : 	HideChildWnd( ID_OPTION );

  00095	53		 push	 ebx
  00096	6a 16		 push	 22			; 00000016H
  00098	8b cf		 mov	 ecx, edi
  0009a	ff d6		 call	 esi

; 1784 : 	HideChildWnd( ID_WEB_EVENT );

  0009c	53		 push	 ebx
  0009d	6a 0f		 push	 15			; 0000000fH
  0009f	8b cf		 mov	 ecx, edi
  000a1	ff d6		 call	 esi

; 1785 : 	HideChildWnd( ID_WEB_GUIDE );

  000a3	53		 push	 ebx
  000a4	6a 10		 push	 16			; 00000010H
  000a6	8b cf		 mov	 ecx, edi
  000a8	ff d6		 call	 esi

; 1786 : 	
; 1787 : 	switch( ioPlayMode::GetModeType() )

  000aa	e8 00 00 00 00	 call	 ?GetModeType@ioPlayMode@@SA?AW4ModeType@@XZ ; ioPlayMode::GetModeType
  000af	83 e8 04	 sub	 eax, 4
  000b2	0f 84 4d 01 00
	00		 je	 $LN19@ReCreateWi
  000b8	83 e8 09	 sub	 eax, 9
  000bb	0f 84 1a 01 00
	00		 je	 $LN25@ReCreateWi
  000c1	83 e8 0a	 sub	 eax, 10			; 0000000aH
  000c4	0f 84 e1 00 00
	00		 je	 $LN22@ReCreateWi
  000ca	48		 dec	 eax
  000cb	74 47		 je	 SHORT $LN38@ReCreateWi

; 1885 : 			}
; 1886 : 		}
; 1887 : 		break;
; 1888 : 	default:
; 1889 : 		{
; 1890 : 			if( g_App.GetConnectedMoveMode() == ioApplication::CMM_LOBBY )

  000cd	e8 00 00 00 00	 call	 ?GetSingleton@ioApplication@@SAAAV1@XZ ; ioApplication::GetSingleton

; 1891 : 			{
; 1892 : 				ShowChildWnd( ID_BACK_STAGE );

  000d2	53		 push	 ebx
  000d3	8b 1d 00 00 00
	00		 mov	 ebx, DWORD PTR __imp_?ShowChildWnd@ioWnd@@QAEXK_N@Z
  000d9	8b cf		 mov	 ecx, edi
  000db	6a 02		 push	 2

; 1893 : 			}
; 1894 : 			else
; 1895 : 			{
; 1896 : 				ShowChildWnd( ID_BACK_STAGE );

  000dd	ff d3		 call	 ebx

; 1897 : 			}
; 1898 : 
; 1899 : 			if( !g_BattleRoomMgr.IsTournamentModeType() && !g_ShuffleRoomMgr.IsShuffleRoom() )

  000df	e8 00 00 00 00	 call	 ?GetSingleton@ioBattleRoomMgr@@SAAAV1@XZ ; ioBattleRoomMgr::GetSingleton
  000e4	8b c8		 mov	 ecx, eax
  000e6	e8 00 00 00 00	 call	 ?IsTournamentModeType@ioBattleRoomMgr@@QAE_NXZ ; ioBattleRoomMgr::IsTournamentModeType
  000eb	84 c0		 test	 al, al
  000ed	0f 85 8b 01 00
	00		 jne	 $LN64@ReCreateWi
  000f3	e8 00 00 00 00	 call	 ?GetSingleton@ioShuffleRoomMgr@@SAAAV1@XZ ; ioShuffleRoomMgr::GetSingleton
  000f8	8b c8		 mov	 ecx, eax
  000fa	e8 00 00 00 00	 call	 ?IsShuffleRoom@ioShuffleRoomMgr@@QAE_NXZ ; ioShuffleRoomMgr::IsShuffleRoom
  000ff	84 c0		 test	 al, al
  00101	0f 85 77 01 00
	00		 jne	 $LN64@ReCreateWi

; 1900 : 				ShowChildWnd( ID_ROOM_INFO );

  00107	6a 00		 push	 0
  00109	6a 03		 push	 3
$LN70@ReCreateWi:
  0010b	8b cf		 mov	 ecx, edi
  0010d	ff d3		 call	 ebx

; 1901 : 		}
; 1902 : 		break;

  0010f	e9 6a 01 00 00	 jmp	 $LN64@ReCreateWi
$LN38@ReCreateWi:

; 1788 : 	{
; 1789 : 	case MT_MYROOM:
; 1790 : 		{
; 1791 : 			switch( ioMyRoomMode::GetMyRoomType() )

  00114	a1 00 00 00 00	 mov	 eax, DWORD PTR ?m_eMyRoomType@ioMyRoomMode@@1W4MyRoomType@@A ; ioMyRoomMode::m_eMyRoomType
  00119	2b c3		 sub	 eax, ebx
  0011b	8b 1d 00 00 00
	00		 mov	 ebx, DWORD PTR __imp_?ShowChildWnd@ioWnd@@QAEXK_N@Z
  00121	74 1e		 je	 SHORT $LN63@ReCreateWi
  00123	83 e8 03	 sub	 eax, 3
  00126	74 6a		 je	 SHORT $LN33@ReCreateWi
  00128	6a 02		 push	 2
  0012a	5e		 pop	 esi
  0012b	2b c6		 sub	 eax, esi
  0012d	74 0a		 je	 SHORT $LN35@ReCreateWi

; 1809 : 			default:
; 1810 : 				if( g_App.GetConnectedMoveMode() == ioApplication::CMM_LOBBY )

  0012f	e8 00 00 00 00	 call	 ?GetSingleton@ioApplication@@SAAAV1@XZ ; ioApplication::GetSingleton

; 1811 : 				{
; 1812 : 					ShowChildWnd( ID_BACK_STAGE );

  00134	6a 00		 push	 0
  00136	56		 push	 esi

; 1813 : 				}
; 1814 : 				else
; 1815 : 				{
; 1816 : 					ShowChildWnd( ID_BACK_STAGE );
; 1817 : 				}
; 1818 : 				break;

  00137	eb 0c		 jmp	 SHORT $LN68@ReCreateWi
$LN35@ReCreateWi:

; 1792 : 			{
; 1793 : 			case MRT_FIND_MODE:				
; 1794 : 				ShowChildWnd( ID_GAME_CLOSE2 );

  00139	6a 00		 push	 0
  0013b	6a 28		 push	 40			; 00000028H
  0013d	8b cf		 mov	 ecx, edi
  0013f	ff d3		 call	 ebx
$LN63@ReCreateWi:

; 1795 : 			case MRT_LOBBY:
; 1796 : 				ShowChildWnd( ID_GAME_CLOSE );

  00141	6a 00		 push	 0
  00143	6a 01		 push	 1
$LN68@ReCreateWi:
  00145	8b cf		 mov	 ecx, edi
  00147	ff d3		 call	 ebx

; 1819 : 			}
; 1820 : #ifdef SRC_OVERSEAS
; 1821 : 			if ( !g_BrowserMgr.GetWebUrl( ioLocalParent::WEB_GUIDE ).IsEmpty() )

  00149	6a 01		 push	 1
  0014b	e8 00 00 00 00	 call	 ?GetSingleton@ioBrowserManager@@SAAAV1@XZ ; ioBrowserManager::GetSingleton
  00150	8b c8		 mov	 ecx, eax
  00152	e8 00 00 00 00	 call	 ?GetWebUrl@ioBrowserManager@@QAEABVioHashString@@H@Z ; ioBrowserManager::GetWebUrl
  00157	8b c8		 mov	 ecx, eax
  00159	ff 15 00 00 00
	00		 call	 DWORD PTR __imp_?IsEmpty@ioHashString@@QBE_NXZ
  0015f	84 c0		 test	 al, al
  00161	75 08		 jne	 SHORT $LN66@ReCreateWi

; 1822 : 				ShowChildWnd( ID_WEB_GUIDE );

  00163	6a 00		 push	 0
  00165	6a 10		 push	 16			; 00000010H
  00167	8b cf		 mov	 ecx, edi
  00169	ff d3		 call	 ebx
$LN66@ReCreateWi:

; 1823 : 			if ( !g_BrowserMgr.GetWebUrl( ioLocalParent::WEB_EVENT ).IsEmpty() )

  0016b	6a 00		 push	 0
  0016d	e8 00 00 00 00	 call	 ?GetSingleton@ioBrowserManager@@SAAAV1@XZ ; ioBrowserManager::GetSingleton
  00172	8b c8		 mov	 ecx, eax
  00174	e8 00 00 00 00	 call	 ?GetWebUrl@ioBrowserManager@@QAEABVioHashString@@H@Z ; ioBrowserManager::GetWebUrl
  00179	8b c8		 mov	 ecx, eax
  0017b	ff 15 00 00 00
	00		 call	 DWORD PTR __imp_?IsEmpty@ioHashString@@QBE_NXZ
  00181	84 c0		 test	 al, al
  00183	0f 85 f5 00 00
	00		 jne	 $LN64@ReCreateWi

; 1824 : 				ShowChildWnd( ID_WEB_EVENT );

  00189	6a 00		 push	 0
  0018b	6a 0f		 push	 15			; 0000000fH

; 1825 : #endif
; 1826 : 		}
; 1827 :         break;

  0018d	e9 79 ff ff ff	 jmp	 $LN70@ReCreateWi
$LN33@ReCreateWi:

; 1797 : 				break;
; 1798 : 			case MRT_PRACTICE:
; 1799 : 				if( g_App.GetConnectedMoveMode() == ioApplication::CMM_LOBBY )

  00192	e8 00 00 00 00	 call	 ?GetSingleton@ioApplication@@SAAAV1@XZ ; ioApplication::GetSingleton

; 1800 : 				{
; 1801 : 					ShowChildWnd( ID_BACK_STAGE );

  00197	8b 1d 00 00 00
	00		 mov	 ebx, DWORD PTR __imp_?ShowChildWnd@ioWnd@@QAEXK_N@Z
  0019d	6a 00		 push	 0
  0019f	8b cf		 mov	 ecx, edi
  001a1	6a 02		 push	 2

; 1802 : 				}
; 1803 : 				else
; 1804 : 				{
; 1805 : 					ShowChildWnd( ID_BACK_STAGE );

  001a3	ff d3		 call	 ebx

; 1806 : 				}
; 1807 : 				ShowChildWnd( ID_PRACTICE );

  001a5	6a 00		 push	 0
  001a7	6a 06		 push	 6

; 1808 : 				break;

  001a9	eb 9a		 jmp	 SHORT $LN68@ReCreateWi
$LN22@ReCreateWi:

; 1844 : 	case MT_HOUSE:
; 1845 : 		{
; 1846 : 			if( g_App.GetConnectedMoveMode() == ioApplication::CMM_LOBBY )

  001ab	e8 00 00 00 00	 call	 ?GetSingleton@ioApplication@@SAAAV1@XZ ; ioApplication::GetSingleton
  001b0	83 b8 ac 06 00
	00 02		 cmp	 DWORD PTR [eax+1708], 2

; 1847 : 			{
; 1848 : 				ShowChildWnd( ID_BACK_STAGE );

  001b7	53		 push	 ebx
  001b8	8b 1d 00 00 00
	00		 mov	 ebx, DWORD PTR __imp_?ShowChildWnd@ioWnd@@QAEXK_N@Z
  001be	8b cf		 mov	 ecx, edi
  001c0	75 04		 jne	 SHORT $LN21@ReCreateWi
  001c2	6a 02		 push	 2

; 1849 : 			}
; 1850 : 			else

  001c4	eb 02		 jmp	 SHORT $LN69@ReCreateWi
$LN21@ReCreateWi:

; 1851 : 			{
; 1852 : 				ShowChildWnd( ID_GAME_CLOSE2 );

  001c6	6a 28		 push	 40			; 00000028H
$LN69@ReCreateWi:
  001c8	ff d3		 call	 ebx

; 1853 : 			}
; 1854 : 
; 1855 : 			ShowChildWnd( ID_ROOM_INFO );

  001ca	6a 00		 push	 0
  001cc	6a 03		 push	 3
  001ce	8b cf		 mov	 ecx, edi
  001d0	ff d3		 call	 ebx

; 1856 : 			ShowChildWnd( ID_HOUSING_SETUP );

  001d2	6a 00		 push	 0
  001d4	6a 04		 push	 4

; 1857 : 		}
; 1858 : 		break;

  001d6	e9 30 ff ff ff	 jmp	 $LN70@ReCreateWi
$LN25@ReCreateWi:

; 1828 : 	case MT_HEADQUARTERS:
; 1829 : 		{
; 1830 : 			if( g_App.GetConnectedMoveMode() == ioApplication::CMM_LOBBY )

  001db	e8 00 00 00 00	 call	 ?GetSingleton@ioApplication@@SAAAV1@XZ ; ioApplication::GetSingleton

; 1831 : 			{
; 1832 : 				ShowChildWnd( ID_BACK_STAGE );

  001e0	53		 push	 ebx
  001e1	8b 1d 00 00 00
	00		 mov	 ebx, DWORD PTR __imp_?ShowChildWnd@ioWnd@@QAEXK_N@Z
  001e7	8b cf		 mov	 ecx, edi
  001e9	6a 02		 push	 2

; 1833 : 			}
; 1834 : 			else
; 1835 : 			{
; 1836 : 				ShowChildWnd( ID_BACK_STAGE );

  001eb	ff d3		 call	 ebx

; 1837 : 			}
; 1838 : 			
; 1839 : 			ShowChildWnd( ID_ROOM_INFO );

  001ed	33 f6		 xor	 esi, esi
  001ef	56		 push	 esi
  001f0	6a 03		 push	 3
  001f2	8b cf		 mov	 ecx, edi
  001f4	ff d3		 call	 ebx

; 1840 : 			ShowChildWnd( ID_DISPLAY );

  001f6	56		 push	 esi
  001f7	6a 05		 push	 5
  001f9	8b cf		 mov	 ecx, edi
  001fb	ff d3		 call	 ebx

; 1841 : 			ShowChildWnd( ID_PRACTICE );

  001fd	56		 push	 esi
  001fe	6a 06		 push	 6

; 1842 : 		}
; 1843 : 		break;

  00200	e9 06 ff ff ff	 jmp	 $LN70@ReCreateWi
$LN19@ReCreateWi:

; 1859 : 	case MT_TRAINING:
; 1860 : 		{
; 1861 : 			if( g_App.GetConnectedMoveMode() == ioApplication::CMM_LOBBY )

  00205	e8 00 00 00 00	 call	 ?GetSingleton@ioApplication@@SAAAV1@XZ ; ioApplication::GetSingleton

; 1862 : 			{
; 1863 : 				ShowChildWnd( ID_BACK_STAGE );

  0020a	53		 push	 ebx
  0020b	8b 1d 00 00 00
	00		 mov	 ebx, DWORD PTR __imp_?ShowChildWnd@ioWnd@@QAEXK_N@Z
  00211	8b cf		 mov	 ecx, edi
  00213	6a 02		 push	 2

; 1864 : 			}
; 1865 : 			else
; 1866 : 			{
; 1867 : 				ShowChildWnd( ID_BACK_STAGE );				

  00215	ff d3		 call	 ebx

; 1868 : 			}
; 1869 : 
; 1870 : 			ShowChildWnd( ID_ROOM_INFO );

  00217	6a 00		 push	 0
  00219	6a 03		 push	 3
  0021b	8b cf		 mov	 ecx, edi
  0021d	ff d3		 call	 ebx

; 1871 : 			ShowChildWnd( ID_FISHING );

  0021f	6a 00		 push	 0
  00221	6a 07		 push	 7
  00223	8b cf		 mov	 ecx, edi
  00225	ff d3		 call	 ebx

; 1872 : 			ShowChildWnd( ID_EXCAVATION );

  00227	6a 00		 push	 0
  00229	6a 08		 push	 8
  0022b	8b cf		 mov	 ecx, edi
  0022d	ff d3		 call	 ebx

; 1873 : 			if( m_pPlayStage )

  0022f	8b 8f 80 01 00
	00		 mov	 ecx, DWORD PTR [edi+384]
  00235	85 c9		 test	 ecx, ecx
  00237	74 45		 je	 SHORT $LN64@ReCreateWi

; 1874 : 			{
; 1875 : 				if( m_pPlayStage->GetPlazaModeType() == PT_GUILD )

  00239	e8 00 00 00 00	 call	 ?GetPlazaModeType@ioPlayStage@@QAE?AW4PlazaType@@XZ ; ioPlayStage::GetPlazaModeType
  0023e	83 f8 03	 cmp	 eax, 3
  00241	75 12		 jne	 SHORT $LN15@ReCreateWi

; 1876 : 				{					
; 1877 : 					ShowChildWnd( ID_HOUSING_SETUP );

  00243	6a 00		 push	 0
  00245	6a 04		 push	 4
  00247	8b cf		 mov	 ecx, edi
  00249	ff d3		 call	 ebx

; 1878 : 					HideChildWnd( ID_EXCAVATION );

  0024b	6a 00		 push	 0
  0024d	6a 08		 push	 8
  0024f	8b cf		 mov	 ecx, edi
  00251	ff d6		 call	 esi
  00253	eb 18		 jmp	 SHORT $LN13@ReCreateWi
$LN15@ReCreateWi:

; 1879 : 				}
; 1880 : 				else if( m_pPlayStage->GetPlazaModeType() == PT_COMMUNITY )

  00255	8b 8f 80 01 00
	00		 mov	 ecx, DWORD PTR [edi+384]
  0025b	e8 00 00 00 00	 call	 ?GetPlazaModeType@ioPlayStage@@QAE?AW4PlazaType@@XZ ; ioPlayStage::GetPlazaModeType
  00260	83 f8 02	 cmp	 eax, 2
  00263	75 08		 jne	 SHORT $LN13@ReCreateWi

; 1881 : 				{
; 1882 : 					ShowChildWnd( ID_PLAZA_STATE );

  00265	6a 00		 push	 0
  00267	6a 09		 push	 9
  00269	8b cf		 mov	 ecx, edi
  0026b	ff d3		 call	 ebx
$LN13@ReCreateWi:

; 1883 : 				}
; 1884 : 				m_ePrevPlazaType = m_pPlayStage->GetPlazaModeType();

  0026d	8b 8f 80 01 00
	00		 mov	 ecx, DWORD PTR [edi+384]
  00273	e8 00 00 00 00	 call	 ?GetPlazaModeType@ioPlayStage@@QAE?AW4PlazaType@@XZ ; ioPlayStage::GetPlazaModeType
  00278	89 87 88 01 00
	00		 mov	 DWORD PTR [edi+392], eax
$LN64@ReCreateWi:

; 1903 : 	}
; 1904 : 
; 1905 : 	if( g_App.GetConnectedMoveMode() == ioApplication::CMM_LOBBY )

  0027e	e8 00 00 00 00	 call	 ?GetSingleton@ioApplication@@SAAAV1@XZ ; ioApplication::GetSingleton
  00283	83 b8 ac 06 00
	00 02		 cmp	 DWORD PTR [eax+1708], 2
  0028a	75 08		 jne	 SHORT $LN8@ReCreateWi

; 1906 : 	{
; 1907 : 		ShowChildWnd( ID_OPTION ); 

  0028c	6a 00		 push	 0
  0028e	6a 16		 push	 22			; 00000016H
  00290	8b cf		 mov	 ecx, edi
  00292	ff d3		 call	 ebx
$LN8@ReCreateWi:

; 1908 : 	}
; 1909 : 
; 1910 : 	ReCreateBtn();

  00294	8b cf		 mov	 ecx, edi
  00296	e8 00 00 00 00	 call	 ?ReCreateBtn@HelpWnd@@QAEXXZ ; HelpWnd::ReCreateBtn

; 1911 : 
; 1912 : 	m_ePrevModeType = ioPlayMode::GetModeType();

  0029b	e8 00 00 00 00	 call	 ?GetModeType@ioPlayMode@@SA?AW4ModeType@@XZ ; ioPlayMode::GetModeType
  002a0	89 87 84 01 00
	00		 mov	 DWORD PTR [edi+388], eax

; 1913 : 
; 1914 : 	if( g_MyInfo.IsTutorialUser() )

  002a6	e8 00 00 00 00	 call	 ?GetSingleton@ioMyInfo@@SAAAV1@XZ ; ioMyInfo::GetSingleton
  002ab	8b c8		 mov	 ecx, eax
  002ad	e8 00 00 00 00	 call	 ?IsTutorialUser@ioMyInfo@@QAE_NXZ ; ioMyInfo::IsTutorialUser
  002b2	8b 1d 00 00 00
	00		 mov	 ebx, DWORD PTR __imp_?SetChildWndStyleAdd@ioWnd@@QAEXKK@Z
  002b8	84 c0		 test	 al, al
  002ba	74 62		 je	 SHORT $LN7@ReCreateWi

; 1915 : 	{
; 1916 : 		SetChildWndStyleAdd( ID_BACK_STAGE, IWS_EXACTIVE );

  002bc	be 00 10 00 00	 mov	 esi, 4096		; 00001000H
  002c1	56		 push	 esi
  002c2	6a 02		 push	 2
  002c4	8b cf		 mov	 ecx, edi
  002c6	ff d3		 call	 ebx

; 1917 : 		SetChildWndStyleAdd( ID_GAME_CLOSE, IWS_EXACTIVE );

  002c8	56		 push	 esi
  002c9	6a 01		 push	 1
  002cb	8b cf		 mov	 ecx, edi
  002cd	ff d3		 call	 ebx

; 1918 : 		SetChildWndStyleAdd( ID_GAME_CLOSE2, IWS_EXACTIVE );

  002cf	56		 push	 esi
  002d0	6a 28		 push	 40			; 00000028H
  002d2	8b cf		 mov	 ecx, edi
  002d4	ff d3		 call	 ebx

; 1919 : 		SetChildWndStyleAdd( ID_ROOM_INFO, IWS_EXACTIVE );

  002d6	56		 push	 esi
  002d7	6a 03		 push	 3
  002d9	8b cf		 mov	 ecx, edi
  002db	ff d3		 call	 ebx

; 1920 : 		SetChildWndStyleAdd( ID_DISPLAY, IWS_EXACTIVE );

  002dd	56		 push	 esi
  002de	6a 05		 push	 5
  002e0	8b cf		 mov	 ecx, edi
  002e2	ff d3		 call	 ebx

; 1921 : 		SetChildWndStyleAdd( ID_PRACTICE, IWS_EXACTIVE );

  002e4	56		 push	 esi
  002e5	6a 06		 push	 6
  002e7	8b cf		 mov	 ecx, edi
  002e9	ff d3		 call	 ebx

; 1922 : 		SetChildWndStyleAdd( ID_SHOP, IWS_EXACTIVE );

  002eb	56		 push	 esi
  002ec	6a 0a		 push	 10			; 0000000aH
  002ee	8b cf		 mov	 ecx, edi
  002f0	ff d3		 call	 ebx

; 1923 : 		SetChildWndStyleAdd( ID_MYITEM, IWS_EXACTIVE );

  002f2	56		 push	 esi
  002f3	6a 0b		 push	 11			; 0000000bH
  002f5	8b cf		 mov	 ecx, edi
  002f7	ff d3		 call	 ebx

; 1924 : 		SetChildWndStyleAdd( ID_MESSENGER, IWS_EXACTIVE );

  002f9	56		 push	 esi
  002fa	6a 1e		 push	 30			; 0000001eH
  002fc	8b cf		 mov	 ecx, edi
  002fe	ff d3		 call	 ebx

; 1925 : 		SetChildWndStyleAdd( ID_PRESENT, IWS_EXACTIVE );

  00300	56		 push	 esi
  00301	6a 0c		 push	 12			; 0000000cH
  00303	8b cf		 mov	 ecx, edi
  00305	ff d3		 call	 ebx

; 1926 : 		SetChildWndStyleAdd( ID_PET, IWS_EXACTIVE );

  00307	56		 push	 esi
  00308	6a 0e		 push	 14			; 0000000eH
  0030a	8b cf		 mov	 ecx, edi
  0030c	ff d3		 call	 ebx

; 1927 : 		SetChildWndStyleAdd( ID_ROLLBOOK, IWS_EXACTIVE );

  0030e	56		 push	 esi
  0030f	6a 13		 push	 19			; 00000013H
  00311	8b cf		 mov	 ecx, edi
  00313	ff d3		 call	 ebx

; 1928 : 
; 1929 : 		m_bTutorial = true;

  00315	c6 87 8c 01 00
	00 01		 mov	 BYTE PTR [edi+396], 1
  0031c	eb 50		 jmp	 SHORT $LN3@ReCreateWi
$LN7@ReCreateWi:

; 1930 : 	}
; 1931 : 	else if( g_MyInfo.IsBankruptcy() || g_MyInfo.IsCharBankruptcy() )

  0031e	e8 00 00 00 00	 call	 ?GetSingleton@ioMyInfo@@SAAAV1@XZ ; ioMyInfo::GetSingleton
  00323	8b c8		 mov	 ecx, eax
  00325	e8 00 00 00 00	 call	 ?IsBankruptcy@ioMyInfo@@QAE_NXZ ; ioMyInfo::IsBankruptcy
  0032a	84 c0		 test	 al, al
  0032c	75 2d		 jne	 SHORT $LN4@ReCreateWi
  0032e	e8 00 00 00 00	 call	 ?GetSingleton@ioMyInfo@@SAAAV1@XZ ; ioMyInfo::GetSingleton
  00333	8b c8		 mov	 ecx, eax
  00335	e8 00 00 00 00	 call	 ?IsCharBankruptcy@ioMyInfo@@QAE_NXZ ; ioMyInfo::IsCharBankruptcy
  0033a	84 c0		 test	 al, al
  0033c	75 1d		 jne	 SHORT $LN4@ReCreateWi

; 1935 : 	}
; 1936 : 	else
; 1937 : 	{
; 1938 : 		SetChildWndStyleRemove( ID_ROOM_INFO, IWS_EXACTIVE );

  0033e	be 00 10 00 00	 mov	 esi, 4096		; 00001000H
  00343	56		 push	 esi
  00344	6a 03		 push	 3
  00346	8b cf		 mov	 ecx, edi
  00348	ff 15 00 00 00
	00		 call	 DWORD PTR __imp_?SetChildWndStyleRemove@ioWnd@@QAEXKK@Z

; 1939 : 		SetChildWndStyleRemove( ID_MESSENGER, IWS_EXACTIVE );

  0034e	56		 push	 esi
  0034f	6a 1e		 push	 30			; 0000001eH
  00351	8b cf		 mov	 ecx, edi
  00353	ff 15 00 00 00
	00		 call	 DWORD PTR __imp_?SetChildWndStyleRemove@ioWnd@@QAEXKK@Z
  00359	eb 13		 jmp	 SHORT $LN3@ReCreateWi
$LN4@ReCreateWi:

; 1932 : 	{
; 1933 : 		SetChildWndStyleAdd( ID_ROOM_INFO, IWS_EXACTIVE );

  0035b	be 00 10 00 00	 mov	 esi, 4096		; 00001000H
  00360	56		 push	 esi
  00361	6a 03		 push	 3
  00363	8b cf		 mov	 ecx, edi
  00365	ff d3		 call	 ebx

; 1934 : 		SetChildWndStyleAdd( ID_MESSENGER, IWS_EXACTIVE );

  00367	56		 push	 esi
  00368	6a 1e		 push	 30			; 0000001eH
  0036a	8b cf		 mov	 ecx, edi
  0036c	ff d3		 call	 ebx
$LN3@ReCreateWi:

; 1940 : 	}
; 1941 : 
; 1942 : 	if( g_MyInfo.GetEntryType() == ET_TERMINATION || g_MyInfo.IsExpertEntryTemporary() || g_MyInfo.GetEntryType() == ET_TEMPORARY )

  0036e	e8 00 00 00 00	 call	 ?GetSingleton@ioMyInfo@@SAAAV1@XZ ; ioMyInfo::GetSingleton
  00373	83 78 5c ff	 cmp	 DWORD PTR [eax+92], -1
  00377	74 1b		 je	 SHORT $LN1@ReCreateWi
  00379	e8 00 00 00 00	 call	 ?GetSingleton@ioMyInfo@@SAAAV1@XZ ; ioMyInfo::GetSingleton
  0037e	8b c8		 mov	 ecx, eax
  00380	e8 00 00 00 00	 call	 ?IsExpertEntryTemporary@ioMyInfo@@QAE_NXZ ; ioMyInfo::IsExpertEntryTemporary
  00385	84 c0		 test	 al, al
  00387	75 0b		 jne	 SHORT $LN1@ReCreateWi
  00389	e8 00 00 00 00	 call	 ?GetSingleton@ioMyInfo@@SAAAV1@XZ ; ioMyInfo::GetSingleton
  0038e	83 78 5c 01	 cmp	 DWORD PTR [eax+92], 1
  00392	75 07		 jne	 SHORT $LN2@ReCreateWi
$LN1@ReCreateWi:

; 1943 : 	{
; 1944 : 		SetChildWndStyleAdd( ID_ROLLBOOK, IWS_EXACTIVE );

  00394	56		 push	 esi
  00395	6a 13		 push	 19			; 00000013H
  00397	8b cf		 mov	 ecx, edi
  00399	ff d3		 call	 ebx
$LN2@ReCreateWi:

; 1945 : 	}
; 1946 : }

  0039b	5f		 pop	 edi
  0039c	5e		 pop	 esi
  0039d	5b		 pop	 ebx
  0039e	c3		 ret	 0
?ReCreateWindow@HelpWnd@@QAEXXZ ENDP			; HelpWnd::ReCreateWindow
_TEXT	ENDS
EXTRN	__imp_?SetPositionToDefault@ioWnd@@UAEXHH_N0@Z:PROC
; Function compile flags: /Ogsp
;	COMDAT ?SetPositionToDefault@HelpWnd@@UAEXHH_N0@Z
_TEXT	SEGMENT
_iParentWidth$ = 8					; size = 4
_iParentHeight$ = 12					; size = 4
_bChildMove$ = 16					; size = 1
_bCreate$ = 20						; size = 1
?SetPositionToDefault@HelpWnd@@UAEXHH_N0@Z PROC		; HelpWnd::SetPositionToDefault, COMDAT
; _this$ = ecx

; 2088 : {

  00000	55		 push	 ebp
  00001	8b ec		 mov	 ebp, esp
  00003	56		 push	 esi

; 2089 : 	ioWnd::SetPositionToDefault( iParentWidth, iParentHeight, bChildMove, bCreate );

  00004	ff 75 14	 push	 DWORD PTR _bCreate$[ebp]
  00007	8b f1		 mov	 esi, ecx
  00009	ff 75 10	 push	 DWORD PTR _bChildMove$[ebp]
  0000c	ff 75 0c	 push	 DWORD PTR _iParentHeight$[ebp]
  0000f	ff 75 08	 push	 DWORD PTR _iParentWidth$[ebp]
  00012	ff 15 00 00 00
	00		 call	 DWORD PTR __imp_?SetPositionToDefault@ioWnd@@UAEXHH_N0@Z

; 2090 : 
; 2091 : 	ReCreateWindow();

  00018	8b ce		 mov	 ecx, esi
  0001a	e8 00 00 00 00	 call	 ?ReCreateWindow@HelpWnd@@QAEXXZ ; HelpWnd::ReCreateWindow
  0001f	5e		 pop	 esi

; 2092 : }

  00020	5d		 pop	 ebp
  00021	c2 10 00	 ret	 16			; 00000010H
?SetPositionToDefault@HelpWnd@@UAEXHH_N0@Z ENDP		; HelpWnd::SetPositionToDefault
_TEXT	ENDS
EXTRN	?IsPetKeyPress@ioKeyManager@@QAE_NXZ:PROC	; ioKeyManager::IsPetKeyPress
EXTRN	?IsMessengerKeyPress@ioKeyManager@@QAE_NXZ:PROC	; ioKeyManager::IsMessengerKeyPress
EXTRN	?IsOptionKeyPress@ioKeyManager@@QAE_NXZ:PROC	; ioKeyManager::IsOptionKeyPress
EXTRN	?IsMyHomePageKeyPress@ioKeyManager@@QAE_NXZ:PROC ; ioKeyManager::IsMyHomePageKeyPress
EXTRN	?IsPresentKeyPress@ioKeyManager@@QAE_NXZ:PROC	; ioKeyManager::IsPresentKeyPress
EXTRN	?IsQuestKeyPress@ioKeyManager@@QAE_NXZ:PROC	; ioKeyManager::IsQuestKeyPress
EXTRN	?IsGrowthKeyPress@ioKeyManager@@QAE_NXZ:PROC	; ioKeyManager::IsGrowthKeyPress
EXTRN	?IsShopKeyPress@ioKeyManager@@QAE_NXZ:PROC	; ioKeyManager::IsShopKeyPress
EXTRN	?IsHelpKeyPress@ioKeyManager@@QAE_NXZ:PROC	; ioKeyManager::IsHelpKeyPress
EXTRN	?IsMouseBusy@ioApplication@@QAE_NXZ:PROC	; ioApplication::IsMouseBusy
EXTRN	?IsShowSettingKeyWnd@ioSP2GUIManager@@QAE_NXZ:PROC ; ioSP2GUIManager::IsShowSettingKeyWnd
EXTRN	?IsUIKeyBlock@ioSP2GUIManager@@QAE_NXZ:PROC	; ioSP2GUIManager::IsUIKeyBlock
; Function compile flags: /Ogsp
;	COMDAT ?OnProcess@HelpWnd@@MAEXM@Z
_TEXT	SEGMENT
_value$570880 = -4					; size = 4
_fTimePerSec$ = 8					; size = 4
?OnProcess@HelpWnd@@MAEXM@Z PROC			; HelpWnd::OnProcess, COMDAT
; _this$ = ecx

; 2513 : {

  00000	55		 push	 ebp
  00001	8b ec		 mov	 ebp, esp
  00003	51		 push	 ecx
  00004	53		 push	 ebx
  00005	8b d9		 mov	 ebx, ecx

; 2514 : 	if( !IsShow() ) return;	

  00007	ff 15 00 00 00
	00		 call	 DWORD PTR __imp_?IsShow@ioWnd@@QBE_NXZ
  0000d	84 c0		 test	 al, al
  0000f	0f 84 59 02 00
	00		 je	 $LN1@OnProcess@3

; 2515 : 
; 2516 : 	if( ( m_ePrevModeType != ioPlayMode::GetModeType() ) || ( m_pPlayStage && m_pPlayStage->GetPlazaModeType() != m_ePrevPlazaType ) )

  00015	e8 00 00 00 00	 call	 ?GetModeType@ioPlayMode@@SA?AW4ModeType@@XZ ; ioPlayMode::GetModeType
  0001a	39 83 84 01 00
	00		 cmp	 DWORD PTR [ebx+388], eax
  00020	75 17		 jne	 SHORT $LN36@OnProcess@3
  00022	8b 8b 80 01 00
	00		 mov	 ecx, DWORD PTR [ebx+384]
  00028	85 c9		 test	 ecx, ecx
  0002a	74 14		 je	 SHORT $LN25@OnProcess@3
  0002c	e8 00 00 00 00	 call	 ?GetPlazaModeType@ioPlayStage@@QAE?AW4PlazaType@@XZ ; ioPlayStage::GetPlazaModeType
  00031	3b 83 88 01 00
	00		 cmp	 eax, DWORD PTR [ebx+392]
  00037	74 07		 je	 SHORT $LN25@OnProcess@3
$LN36@OnProcess@3:

; 2517 : 	{
; 2518 : 		ReCreateWindow();

  00039	8b cb		 mov	 ecx, ebx
  0003b	e8 00 00 00 00	 call	 ?ReCreateWindow@HelpWnd@@QAEXXZ ; HelpWnd::ReCreateWindow
$LN25@OnProcess@3:

; 2519 : 	}
; 2520 : 
; 2521 : 	bool bLobbyLock = false;
; 2522 : 	if( g_MyInfo.GetLobbyLockType() != LobbyLockProblemWnd::LT_NONE )

  00040	e8 00 00 00 00	 call	 ?GetSingleton@ioMyInfo@@SAAAV1@XZ ; ioMyInfo::GetSingleton
  00045	8d 4d fc	 lea	 ecx, DWORD PTR _value$570880[ebp]
  00048	51		 push	 ecx
  00049	8d 88 ac 09 00
	00		 lea	 ecx, DWORD PTR [eax+2476]
  0004f	e8 00 00 00 00	 call	 ?DecryptValueToPool@?$CEncrypt@K@@QAEXPAK@Z ; CEncrypt<unsigned long>::DecryptValueToPool
  00054	83 7d fc 00	 cmp	 DWORD PTR _value$570880[ebp], 0
  00058	74 0e		 je	 SHORT $LN35@OnProcess@3

; 2523 : 	{
; 2524 : 		if( ioPlayMode::GetModeType() == MT_MYROOM )

  0005a	e8 00 00 00 00	 call	 ?GetModeType@ioPlayMode@@SA?AW4ModeType@@XZ ; ioPlayMode::GetModeType
  0005f	83 f8 18	 cmp	 eax, 24			; 00000018H

; 2525 : 			bLobbyLock = true;       //  
; 2526 : 	}
; 2527 : 
; 2528 : 	if( !bLobbyLock && !g_GUIMgr.IsUIKeyBlock() && !g_GUIMgr.IsShowSettingKeyWnd() && !g_App.IsMouseBusy() && !g_GUIMgr.IsShow( EVENT_WND ) )

  00062	0f 84 83 01 00
	00		 je	 $LN2@OnProcess@3
$LN35@OnProcess@3:
  00068	e8 00 00 00 00	 call	 ?GetSingleton@ioSP2GUIManager@@SAAAV1@XZ ; ioSP2GUIManager::GetSingleton
  0006d	8b c8		 mov	 ecx, eax
  0006f	e8 00 00 00 00	 call	 ?IsUIKeyBlock@ioSP2GUIManager@@QAE_NXZ ; ioSP2GUIManager::IsUIKeyBlock
  00074	84 c0		 test	 al, al
  00076	0f 85 6f 01 00
	00		 jne	 $LN2@OnProcess@3
  0007c	e8 00 00 00 00	 call	 ?GetSingleton@ioSP2GUIManager@@SAAAV1@XZ ; ioSP2GUIManager::GetSingleton
  00081	8b c8		 mov	 ecx, eax
  00083	e8 00 00 00 00	 call	 ?IsShowSettingKeyWnd@ioSP2GUIManager@@QAE_NXZ ; ioSP2GUIManager::IsShowSettingKeyWnd
  00088	84 c0		 test	 al, al
  0008a	0f 85 5b 01 00
	00		 jne	 $LN2@OnProcess@3
  00090	e8 00 00 00 00	 call	 ?GetSingleton@ioApplication@@SAAAV1@XZ ; ioApplication::GetSingleton
  00095	8b c8		 mov	 ecx, eax
  00097	e8 00 00 00 00	 call	 ?IsMouseBusy@ioApplication@@QAE_NXZ ; ioApplication::IsMouseBusy
  0009c	84 c0		 test	 al, al
  0009e	0f 85 47 01 00
	00		 jne	 $LN2@OnProcess@3
  000a4	68 cb 0b 00 00	 push	 3019			; 00000bcbH
  000a9	e8 00 00 00 00	 call	 ?GetSingleton@ioSP2GUIManager@@SAAAV1@XZ ; ioSP2GUIManager::GetSingleton
  000ae	8b c8		 mov	 ecx, eax
  000b0	ff 15 00 00 00
	00		 call	 DWORD PTR __imp_?IsShow@ioGUIManager@@QAE_NK@Z
  000b6	84 c0		 test	 al, al
  000b8	0f 85 2d 01 00
	00		 jne	 $LN2@OnProcess@3

; 2529 : 	{
; 2530 : 		if( g_KeyManager.IsHelpKeyPress() )

  000be	e8 00 00 00 00	 call	 ?GetSingleton@ioKeyManager@@SAAAV1@XZ ; ioKeyManager::GetSingleton
  000c3	8b c8		 mov	 ecx, eax
  000c5	e8 00 00 00 00	 call	 ?IsHelpKeyPress@ioKeyManager@@QAE_NXZ ; ioKeyManager::IsHelpKeyPress
  000ca	84 c0		 test	 al, al
  000cc	74 0c		 je	 SHORT $LN20@OnProcess@3

; 2531 : 		{
; 2532 : 			ManualProcess();

  000ce	8b cb		 mov	 ecx, ebx
  000d0	e8 00 00 00 00	 call	 ?ManualProcess@HelpWnd@@IAEXXZ ; HelpWnd::ManualProcess
  000d5	e9 11 01 00 00	 jmp	 $LN2@OnProcess@3
$LN20@OnProcess@3:

; 2533 : 		}
; 2534 : 		else if( g_KeyManager.IsShopKeyPress() )

  000da	e8 00 00 00 00	 call	 ?GetSingleton@ioKeyManager@@SAAAV1@XZ ; ioKeyManager::GetSingleton
  000df	8b c8		 mov	 ecx, eax
  000e1	e8 00 00 00 00	 call	 ?IsShopKeyPress@ioKeyManager@@QAE_NXZ ; ioKeyManager::IsShopKeyPress
  000e6	84 c0		 test	 al, al
  000e8	74 0c		 je	 SHORT $LN18@OnProcess@3

; 2535 : 		{
; 2536 : 			ShopProcess();

  000ea	8b cb		 mov	 ecx, ebx
  000ec	e8 00 00 00 00	 call	 ?ShopProcess@HelpWnd@@IAEXXZ ; HelpWnd::ShopProcess
  000f1	e9 f5 00 00 00	 jmp	 $LN2@OnProcess@3
$LN18@OnProcess@3:

; 2537 : 		}
; 2538 : 		else if( g_KeyManager.IsGrowthKeyPress() )

  000f6	e8 00 00 00 00	 call	 ?GetSingleton@ioKeyManager@@SAAAV1@XZ ; ioKeyManager::GetSingleton
  000fb	8b c8		 mov	 ecx, eax
  000fd	e8 00 00 00 00	 call	 ?IsGrowthKeyPress@ioKeyManager@@QAE_NXZ ; ioKeyManager::IsGrowthKeyPress
  00102	84 c0		 test	 al, al
  00104	74 0c		 je	 SHORT $LN16@OnProcess@3

; 2539 : 		{
; 2540 : 			MyItemProcess();

  00106	8b cb		 mov	 ecx, ebx
  00108	e8 00 00 00 00	 call	 ?MyItemProcess@HelpWnd@@IAEXXZ ; HelpWnd::MyItemProcess
  0010d	e9 d9 00 00 00	 jmp	 $LN2@OnProcess@3
$LN16@OnProcess@3:

; 2541 : 		}
; 2542 : 		else if( g_KeyManager.IsQuestKeyPress() )

  00112	e8 00 00 00 00	 call	 ?GetSingleton@ioKeyManager@@SAAAV1@XZ ; ioKeyManager::GetSingleton
  00117	8b c8		 mov	 ecx, eax
  00119	e8 00 00 00 00	 call	 ?IsQuestKeyPress@ioKeyManager@@QAE_NXZ ; ioKeyManager::IsQuestKeyPress
  0011e	84 c0		 test	 al, al
  00120	74 0c		 je	 SHORT $LN14@OnProcess@3

; 2543 : 		{
; 2544 : 			QuestProcess();

  00122	8b cb		 mov	 ecx, ebx
  00124	e8 00 00 00 00	 call	 ?QuestProcess@HelpWnd@@IAEXXZ ; HelpWnd::QuestProcess
  00129	e9 bd 00 00 00	 jmp	 $LN2@OnProcess@3
$LN14@OnProcess@3:

; 2545 : 		}
; 2546 : 		else if( g_KeyManager.IsPresentKeyPress() )

  0012e	e8 00 00 00 00	 call	 ?GetSingleton@ioKeyManager@@SAAAV1@XZ ; ioKeyManager::GetSingleton
  00133	8b c8		 mov	 ecx, eax
  00135	e8 00 00 00 00	 call	 ?IsPresentKeyPress@ioKeyManager@@QAE_NXZ ; ioKeyManager::IsPresentKeyPress
  0013a	84 c0		 test	 al, al
  0013c	74 0c		 je	 SHORT $LN12@OnProcess@3

; 2547 : 		{
; 2548 : 			PresentProcess();

  0013e	8b cb		 mov	 ecx, ebx
  00140	e8 00 00 00 00	 call	 ?PresentProcess@HelpWnd@@IAEXXZ ; HelpWnd::PresentProcess
  00145	e9 a1 00 00 00	 jmp	 $LN2@OnProcess@3
$LN12@OnProcess@3:

; 2549 : 		}
; 2550 : 		else if( g_KeyManager.IsMyHomePageKeyPress() )

  0014a	e8 00 00 00 00	 call	 ?GetSingleton@ioKeyManager@@SAAAV1@XZ ; ioKeyManager::GetSingleton
  0014f	8b c8		 mov	 ecx, eax
  00151	e8 00 00 00 00	 call	 ?IsMyHomePageKeyPress@ioKeyManager@@QAE_NXZ ; ioKeyManager::IsMyHomePageKeyPress
  00156	84 c0		 test	 al, al
  00158	74 48		 je	 SHORT $LN10@OnProcess@3

; 2551 : 		{
; 2552 : 			ioLocalParent *pLocal = g_LocalMgr.GetLocal( ioLocalManager::GetLocalType() );

  0015a	ff 15 00 00 00
	00		 call	 DWORD PTR __imp_?GetLocalType@ioLocalManagerParent@@SA?AW4LocalType@1@XZ
  00160	50		 push	 eax
  00161	e8 00 00 00 00	 call	 ?GetSingleton@ioLocalManager@@SAAAV1@XZ ; ioLocalManager::GetSingleton
  00166	8b c8		 mov	 ecx, eax
  00168	e8 00 00 00 00	 call	 ?GetLocal@ioLocalManager@@QAEPAVioLocalParent@@W4LocalType@ioLocalManagerParent@@@Z ; ioLocalManager::GetLocal

; 2553 : 			if( !pLocal )

  0016d	85 c0		 test	 eax, eax
  0016f	0f 84 f9 00 00
	00		 je	 $LN1@OnProcess@3

; 2554 : 				return;
; 2555 : 			if( pLocal->IsMyHomePage() )

  00175	8b 10		 mov	 edx, DWORD PTR [eax]
  00177	8b c8		 mov	 ecx, eax
  00179	ff 92 a0 00 00
	00		 call	 DWORD PTR [edx+160]
  0017f	84 c0		 test	 al, al
  00181	74 68		 je	 SHORT $LN2@OnProcess@3

; 2556 : 				g_App.OpenHeadQuaterPage( g_MyInfo.GetPublicID().c_str() );

  00183	e8 00 00 00 00	 call	 ?GetSingleton@ioMyInfo@@SAAAV1@XZ ; ioMyInfo::GetSingleton
  00188	6a 01		 push	 1
  0018a	8d 48 1c	 lea	 ecx, DWORD PTR [eax+28]
  0018d	ff 15 00 00 00
	00		 call	 DWORD PTR __imp_?c_str@ioHashString@@QBEPBDXZ
  00193	50		 push	 eax
  00194	e8 00 00 00 00	 call	 ?GetSingleton@ioApplication@@SAAAV1@XZ ; ioApplication::GetSingleton
  00199	8b c8		 mov	 ecx, eax
  0019b	e8 00 00 00 00	 call	 ?OpenHeadQuaterPage@ioApplication@@QAEXPBD_N@Z ; ioApplication::OpenHeadQuaterPage

; 2557 : 		}

  001a0	eb 49		 jmp	 SHORT $LN2@OnProcess@3
$LN10@OnProcess@3:

; 2558 : 		else if( g_KeyManager.IsOptionKeyPress() )

  001a2	e8 00 00 00 00	 call	 ?GetSingleton@ioKeyManager@@SAAAV1@XZ ; ioKeyManager::GetSingleton
  001a7	8b c8		 mov	 ecx, eax
  001a9	e8 00 00 00 00	 call	 ?IsOptionKeyPress@ioKeyManager@@QAE_NXZ ; ioKeyManager::IsOptionKeyPress
  001ae	84 c0		 test	 al, al
  001b0	74 09		 je	 SHORT $LN6@OnProcess@3

; 2559 : 		{
; 2560 : 			OptionProcess();

  001b2	8b cb		 mov	 ecx, ebx
  001b4	e8 00 00 00 00	 call	 ?OptionProcess@HelpWnd@@IAEXXZ ; HelpWnd::OptionProcess
  001b9	eb 30		 jmp	 SHORT $LN2@OnProcess@3
$LN6@OnProcess@3:

; 2561 : 		}
; 2562 : 		else if( g_KeyManager.IsMessengerKeyPress() )

  001bb	e8 00 00 00 00	 call	 ?GetSingleton@ioKeyManager@@SAAAV1@XZ ; ioKeyManager::GetSingleton
  001c0	8b c8		 mov	 ecx, eax
  001c2	e8 00 00 00 00	 call	 ?IsMessengerKeyPress@ioKeyManager@@QAE_NXZ ; ioKeyManager::IsMessengerKeyPress
  001c7	84 c0		 test	 al, al
  001c9	74 09		 je	 SHORT $LN4@OnProcess@3

; 2563 : 		{
; 2564 : 			MessengerProcess();

  001cb	8b cb		 mov	 ecx, ebx
  001cd	e8 00 00 00 00	 call	 ?MessengerProcess@HelpWnd@@IAEXXZ ; HelpWnd::MessengerProcess
  001d2	eb 17		 jmp	 SHORT $LN2@OnProcess@3
$LN4@OnProcess@3:

; 2565 : 		}
; 2566 : 		else if ( g_KeyManager.IsPetKeyPress() )

  001d4	e8 00 00 00 00	 call	 ?GetSingleton@ioKeyManager@@SAAAV1@XZ ; ioKeyManager::GetSingleton
  001d9	8b c8		 mov	 ecx, eax
  001db	e8 00 00 00 00	 call	 ?IsPetKeyPress@ioKeyManager@@QAE_NXZ ; ioKeyManager::IsPetKeyPress
  001e0	84 c0		 test	 al, al
  001e2	74 07		 je	 SHORT $LN2@OnProcess@3

; 2567 : 		{
; 2568 : 			PetProcess();

  001e4	8b cb		 mov	 ecx, ebx
  001e6	e8 00 00 00 00	 call	 ?PetProcess@HelpWnd@@IAEXXZ ; HelpWnd::PetProcess
$LN2@OnProcess@3:

; 2569 : 		}
; 2570 : 	}
; 2571 : 
; 2572 : 	OnProcessMove();

  001eb	8b cb		 mov	 ecx, ebx
  001ed	e8 00 00 00 00	 call	 ?OnProcessMove@HelpWnd@@IAEXXZ ; HelpWnd::OnProcessMove

; 2573 : 
; 2574 : 	if( m_bTutorial && !g_MyInfo.IsTutorialUser() )

  001f2	80 bb 8c 01 00
	00 00		 cmp	 BYTE PTR [ebx+396], 0
  001f9	74 73		 je	 SHORT $LN1@OnProcess@3
  001fb	e8 00 00 00 00	 call	 ?GetSingleton@ioMyInfo@@SAAAV1@XZ ; ioMyInfo::GetSingleton
  00200	8b c8		 mov	 ecx, eax
  00202	e8 00 00 00 00	 call	 ?IsTutorialUser@ioMyInfo@@QAE_NXZ ; ioMyInfo::IsTutorialUser
  00207	84 c0		 test	 al, al
  00209	75 63		 jne	 SHORT $LN1@OnProcess@3

; 2575 : 	{
; 2576 : 		SetChildWndStyleRemove( ID_BACK_STAGE, IWS_EXACTIVE );

  0020b	56		 push	 esi
  0020c	8b 35 00 00 00
	00		 mov	 esi, DWORD PTR __imp_?SetChildWndStyleRemove@ioWnd@@QAEXKK@Z
  00212	57		 push	 edi
  00213	bf 00 10 00 00	 mov	 edi, 4096		; 00001000H
  00218	57		 push	 edi
  00219	6a 02		 push	 2
  0021b	8b cb		 mov	 ecx, ebx
  0021d	ff d6		 call	 esi

; 2577 : 		SetChildWndStyleRemove( ID_GAME_CLOSE, IWS_EXACTIVE );

  0021f	57		 push	 edi
  00220	6a 01		 push	 1
  00222	8b cb		 mov	 ecx, ebx
  00224	ff d6		 call	 esi

; 2578 : 		SetChildWndStyleRemove( ID_GAME_CLOSE2, IWS_EXACTIVE );

  00226	57		 push	 edi
  00227	6a 28		 push	 40			; 00000028H
  00229	8b cb		 mov	 ecx, ebx
  0022b	ff d6		 call	 esi

; 2579 : 		SetChildWndStyleRemove( ID_ROOM_INFO, IWS_EXACTIVE );

  0022d	57		 push	 edi
  0022e	6a 03		 push	 3
  00230	8b cb		 mov	 ecx, ebx
  00232	ff d6		 call	 esi

; 2580 : 		SetChildWndStyleRemove( ID_DISPLAY, IWS_EXACTIVE );

  00234	57		 push	 edi
  00235	6a 05		 push	 5
  00237	8b cb		 mov	 ecx, ebx
  00239	ff d6		 call	 esi

; 2581 : 		SetChildWndStyleRemove( ID_PRACTICE, IWS_EXACTIVE );

  0023b	57		 push	 edi
  0023c	6a 06		 push	 6
  0023e	8b cb		 mov	 ecx, ebx
  00240	ff d6		 call	 esi

; 2582 : 		SetChildWndStyleRemove( ID_SHOP, IWS_EXACTIVE );

  00242	57		 push	 edi
  00243	6a 0a		 push	 10			; 0000000aH
  00245	8b cb		 mov	 ecx, ebx
  00247	ff d6		 call	 esi

; 2583 : 		SetChildWndStyleRemove( ID_MYITEM, IWS_EXACTIVE );

  00249	57		 push	 edi
  0024a	6a 0b		 push	 11			; 0000000bH
  0024c	8b cb		 mov	 ecx, ebx
  0024e	ff d6		 call	 esi

; 2584 : 		SetChildWndStyleRemove( ID_MESSENGER, IWS_EXACTIVE );

  00250	57		 push	 edi
  00251	6a 1e		 push	 30			; 0000001eH
  00253	8b cb		 mov	 ecx, ebx
  00255	ff d6		 call	 esi

; 2585 : 		SetChildWndStyleRemove( ID_PRESENT, IWS_EXACTIVE );

  00257	57		 push	 edi
  00258	6a 0c		 push	 12			; 0000000cH
  0025a	8b cb		 mov	 ecx, ebx
  0025c	ff d6		 call	 esi

; 2586 : 		SetChildWndStyleRemove( ID_PET, IWS_EXACTIVE );

  0025e	57		 push	 edi
  0025f	6a 0e		 push	 14			; 0000000eH
  00261	8b cb		 mov	 ecx, ebx
  00263	ff d6		 call	 esi
  00265	5f		 pop	 edi

; 2587 : 		m_bTutorial = false;

  00266	c6 83 8c 01 00
	00 00		 mov	 BYTE PTR [ebx+396], 0
  0026d	5e		 pop	 esi
$LN1@OnProcess@3:
  0026e	5b		 pop	 ebx

; 2588 : 	}
; 2589 : }

  0026f	c9		 leave
  00270	c2 04 00	 ret	 4
?OnProcess@HelpWnd@@MAEXM@Z ENDP			; HelpWnd::OnProcess
; Function compile flags: /Ogsp
_TEXT	ENDS
;	COMDAT ?iwm_show@HelpWnd@@UAEXXZ
_TEXT	SEGMENT
?iwm_show@HelpWnd@@UAEXXZ PROC				; HelpWnd::iwm_show, COMDAT
; _this$ = ecx

; 1454 : 	if( m_pPlayStage )

  00000	83 b9 80 01 00
	00 00		 cmp	 DWORD PTR [ecx+384], 0
  00007	74 05		 je	 SHORT $LN2@iwm_show

; 1455 : 	{
; 1456 : 		ReCreateWindow();

  00009	e9 00 00 00 00	 jmp	 ?ReCreateWindow@HelpWnd@@QAEXXZ ; HelpWnd::ReCreateWindow
$LN2@iwm_show:

; 1457 : 	}
; 1458 : 	else
; 1459 : 	{
; 1460 : 		HideWnd();

  0000e	ff 25 00 00 00
	00		 jmp	 DWORD PTR __imp_?HideWnd@ioWnd@@QAEXXZ
?iwm_show@HelpWnd@@UAEXXZ ENDP				; HelpWnd::iwm_show
_TEXT	ENDS
_BSS	SEGMENT
_ZERO_TILE_POS DB 010H DUP (?)
_BSS	ENDS
END
