; Listing generated by Microsoft (R) Optimizing Compiler Version 16.00.30319.01 

	TITLE	D:\Lost Saga For Developer\Youtube\Tutorial\Source\src\LSClient\Gui\HeroMainWnd.cpp
	.686P
	.XMM
	include listing.inc
	.model	flat

INCLUDELIB MSVCRT
INCLUDELIB OLDNAMES

PUBLIC	?_EEM_DS@?$deque@UD3DXVECTOR3@@V?$allocator@UD3DXVECTOR3@@@std@@@std@@2HB ; std::deque<D3DXVECTOR3,std::allocator<D3DXVECTOR3> >::_EEM_DS
;	COMDAT ?_EEM_DS@?$deque@UD3DXVECTOR3@@V?$allocator@UD3DXVECTOR3@@@std@@@std@@2HB
CONST	SEGMENT
?_EEM_DS@?$deque@UD3DXVECTOR3@@V?$allocator@UD3DXVECTOR3@@@std@@@std@@2HB DD 01H ; std::deque<D3DXVECTOR3,std::allocator<D3DXVECTOR3> >::_EEM_DS
CONST	ENDS
PUBLIC	?return1@@YAIXZ					; return1
; Function compile flags: /Ogsp
; File d:\lost saga for developer\youtube\tutorial\source\src\lsclient\stdafx.h
;	COMDAT ?return1@@YAIXZ
_TEXT	SEGMENT
?return1@@YAIXZ PROC					; return1, COMDAT

; 17   : 	__forceinline unsigned int return1() { __asm mov eax, 1 };

  00000	b8 01 00 00 00	 mov	 eax, 1
  00005	c3		 ret	 0
?return1@@YAIXZ ENDP					; return1
_TEXT	ENDS
PUBLIC	?return5@@YAIXZ					; return5
; Function compile flags: /Ogsp
;	COMDAT ?return5@@YAIXZ
_TEXT	SEGMENT
?return5@@YAIXZ PROC					; return5, COMDAT

; 18   : 	__forceinline unsigned int return5() { __asm mov eax, 5 };

  00000	b8 05 00 00 00	 mov	 eax, 5
  00005	c3		 ret	 0
?return5@@YAIXZ ENDP					; return5
_TEXT	ENDS
PUBLIC	?return10@@YAIXZ				; return10
; Function compile flags: /Ogsp
;	COMDAT ?return10@@YAIXZ
_TEXT	SEGMENT
?return10@@YAIXZ PROC					; return10, COMDAT

; 21   : 	__forceinline unsigned int return10() { __asm mov eax, 10 };

  00000	b8 0a 00 00 00	 mov	 eax, 10			; 0000000aH
  00005	c3		 ret	 0
?return10@@YAIXZ ENDP					; return10
_TEXT	ENDS
PUBLIC	?return90@@YAIXZ				; return90
; Function compile flags: /Ogsp
;	COMDAT ?return90@@YAIXZ
_TEXT	SEGMENT
?return90@@YAIXZ PROC					; return90, COMDAT

; 24   : 	__forceinline unsigned int return90() { __asm mov eax, 90 };

  00000	b8 5a 00 00 00	 mov	 eax, 90			; 0000005aH
  00005	c3		 ret	 0
?return90@@YAIXZ ENDP					; return90
_TEXT	ENDS
PUBLIC	?return100@@YAIXZ				; return100
; Function compile flags: /Ogsp
;	COMDAT ?return100@@YAIXZ
_TEXT	SEGMENT
?return100@@YAIXZ PROC					; return100, COMDAT

; 25   : 	__forceinline unsigned int return100() { __asm mov eax, 100 };

  00000	b8 64 00 00 00	 mov	 eax, 100		; 00000064H
  00005	c3		 ret	 0
?return100@@YAIXZ ENDP					; return100
_TEXT	ENDS
PUBLIC	?return1000@@YAIXZ				; return1000
; Function compile flags: /Ogsp
;	COMDAT ?return1000@@YAIXZ
_TEXT	SEGMENT
?return1000@@YAIXZ PROC					; return1000, COMDAT

; 29   : 	__forceinline unsigned int return1000() { __asm mov eax, 1000 };

  00000	b8 e8 03 00 00	 mov	 eax, 1000		; 000003e8H
  00005	c3		 ret	 0
?return1000@@YAIXZ ENDP					; return1000
_TEXT	ENDS
PUBLIC	?return1000000000@@YAIXZ			; return1000000000
; Function compile flags: /Ogsp
;	COMDAT ?return1000000000@@YAIXZ
_TEXT	SEGMENT
?return1000000000@@YAIXZ PROC				; return1000000000, COMDAT

; 30   : 	__forceinline unsigned int return1000000000() { __asm mov eax, 1000000000 };

  00000	b8 00 ca 9a 3b	 mov	 eax, 1000000000		; 3b9aca00H
  00005	c3		 ret	 0
?return1000000000@@YAIXZ ENDP				; return1000000000
_TEXT	ENDS
PUBLIC	?return_PI@@YAIXZ				; return_PI
; Function compile flags: /Ogsp
;	COMDAT ?return_PI@@YAIXZ
_TEXT	SEGMENT
?return_PI@@YAIXZ PROC					; return_PI, COMDAT

; 31   : 	__forceinline unsigned int return_PI() { __asm mov eax,   3141592654 };

  00000	b8 4e e6 40 bb	 mov	 eax, -1153374642	; bb40e64eH
  00005	c3		 ret	 0
?return_PI@@YAIXZ ENDP					; return_PI
_TEXT	ENDS
EXTRN	__imp___localtime64:PROC
; Function compile flags: /Ogsp
; File c:\program files (x86)\microsoft visual studio 10.0\vc\include\time.inl
;	COMDAT _localtime
_TEXT	SEGMENT
__Time$ = 8						; size = 4
_localtime PROC						; COMDAT

; 113  : {

  00000	55		 push	 ebp
  00001	8b ec		 mov	 ebp, esp

; 117  : #pragma warning( pop )
; 118  : }

  00003	5d		 pop	 ebp

; 114  : #pragma warning( push )
; 115  : #pragma warning( disable : 4996 )
; 116  :     return _localtime64(_Time);

  00004	ff 25 00 00 00
	00		 jmp	 DWORD PTR __imp___localtime64
_localtime ENDP
_TEXT	ENDS
PUBLIC	?GetHeroMatchLimitGrade@ioLadderTeamMgr@@QAEHXZ	; ioLadderTeamMgr::GetHeroMatchLimitGrade
; Function compile flags: /Ogsp
; File d:\lost saga for developer\youtube\tutorial\source\src\lsclient\ioladderteammgr.h
;	COMDAT ?GetHeroMatchLimitGrade@ioLadderTeamMgr@@QAEHXZ
_TEXT	SEGMENT
?GetHeroMatchLimitGrade@ioLadderTeamMgr@@QAEHXZ PROC	; ioLadderTeamMgr::GetHeroMatchLimitGrade, COMDAT
; _this$ = ecx

; 340  : 	int GetHeroMatchLimitGrade(){ return m_iHeroMatchLimitGrade; }

  00000	8b 81 c8 04 00
	00		 mov	 eax, DWORD PTR [ecx+1224]
  00006	c3		 ret	 0
?GetHeroMatchLimitGrade@ioLadderTeamMgr@@QAEHXZ ENDP	; ioLadderTeamMgr::GetHeroMatchLimitGrade
_TEXT	ENDS
PUBLIC	?GetHeroMatchOtherInfo@ioLadderTeamMgr@@QAEAAUtagLadderHeroUserInfo@@XZ ; ioLadderTeamMgr::GetHeroMatchOtherInfo
; Function compile flags: /Ogsp
;	COMDAT ?GetHeroMatchOtherInfo@ioLadderTeamMgr@@QAEAAUtagLadderHeroUserInfo@@XZ
_TEXT	SEGMENT
?GetHeroMatchOtherInfo@ioLadderTeamMgr@@QAEAAUtagLadderHeroUserInfo@@XZ PROC ; ioLadderTeamMgr::GetHeroMatchOtherInfo, COMDAT
; _this$ = ecx

; 344  : 	LadderHeroUserInfo &GetHeroMatchOtherInfo(){ return m_HeroMatchOtherInfo; }

  00000	8d 81 ec 00 00
	00		 lea	 eax, DWORD PTR [ecx+236]
  00006	c3		 ret	 0
?GetHeroMatchOtherInfo@ioLadderTeamMgr@@QAEAAUtagLadderHeroUserInfo@@XZ ENDP ; ioLadderTeamMgr::GetHeroMatchOtherInfo
_TEXT	ENDS
PUBLIC	?GetOtherTeamType@ioLadderTeamMgr@@QAEHXZ	; ioLadderTeamMgr::GetOtherTeamType
; Function compile flags: /Ogsp
;	COMDAT ?GetOtherTeamType@ioLadderTeamMgr@@QAEHXZ
_TEXT	SEGMENT
?GetOtherTeamType@ioLadderTeamMgr@@QAEHXZ PROC		; ioLadderTeamMgr::GetOtherTeamType, COMDAT
; _this$ = ecx

; 358  : 	int GetOtherTeamType() { return m_iOtherTeamType; }

  00000	8b 81 50 05 00
	00		 mov	 eax, DWORD PTR [ecx+1360]
  00006	c3		 ret	 0
?GetOtherTeamType@ioLadderTeamMgr@@QAEHXZ ENDP		; ioLadderTeamMgr::GetOtherTeamType
_TEXT	ENDS
PUBLIC	_cosf
EXTRN	__fltused:DWORD
EXTRN	__CIcos:PROC
; Function compile flags: /Ogsp
; File c:\program files (x86)\microsoft visual studio 10.0\vc\include\math.h
;	COMDAT _cosf
_TEXT	SEGMENT
tv69 = 8						; size = 4
__X$ = 8						; size = 4
_cosf	PROC						; COMDAT

; 410  :         {return ((float)cos((double)_X)); }

  00000	55		 push	 ebp
  00001	8b ec		 mov	 ebp, esp
  00003	d9 45 08	 fld	 DWORD PTR __X$[ebp]
  00006	e8 00 00 00 00	 call	 __CIcos
  0000b	d9 5d 08	 fstp	 DWORD PTR tv69[ebp]
  0000e	d9 45 08	 fld	 DWORD PTR tv69[ebp]
  00011	5d		 pop	 ebp
  00012	c3		 ret	 0
_cosf	ENDP
_TEXT	ENDS
PUBLIC	_sinf
EXTRN	__CIsin:PROC
; Function compile flags: /Ogsp
;	COMDAT _sinf
_TEXT	SEGMENT
tv69 = 8						; size = 4
__X$ = 8						; size = 4
_sinf	PROC						; COMDAT

; 430  :         {return ((float)sin((double)_X)); }

  00000	55		 push	 ebp
  00001	8b ec		 mov	 ebp, esp
  00003	d9 45 08	 fld	 DWORD PTR __X$[ebp]
  00006	e8 00 00 00 00	 call	 __CIsin
  0000b	d9 5d 08	 fstp	 DWORD PTR tv69[ebp]
  0000e	d9 45 08	 fld	 DWORD PTR tv69[ebp]
  00011	5d		 pop	 ebp
  00012	c3		 ret	 0
_sinf	ENDP
_TEXT	ENDS
PUBLIC	??_7bad_alloc@std@@6B@				; std::bad_alloc::`vftable'
PUBLIC	??0bad_alloc@std@@QAE@PBD@Z			; std::bad_alloc::bad_alloc
PUBLIC	??_R4bad_alloc@std@@6B@				; std::bad_alloc::`RTTI Complete Object Locator'
PUBLIC	??_R0?AVbad_alloc@std@@@8			; std::bad_alloc `RTTI Type Descriptor'
PUBLIC	??_R3bad_alloc@std@@8				; std::bad_alloc::`RTTI Class Hierarchy Descriptor'
PUBLIC	??_R2bad_alloc@std@@8				; std::bad_alloc::`RTTI Base Class Array'
PUBLIC	??_R1A@?0A@EA@bad_alloc@std@@8			; std::bad_alloc::`RTTI Base Class Descriptor at (0,-1,0,64)'
PUBLIC	??_R1A@?0A@EA@exception@std@@8			; std::exception::`RTTI Base Class Descriptor at (0,-1,0,64)'
PUBLIC	??_R0?AVexception@std@@@8			; std::exception `RTTI Type Descriptor'
PUBLIC	??_R3exception@std@@8				; std::exception::`RTTI Class Hierarchy Descriptor'
PUBLIC	??_R2exception@std@@8				; std::exception::`RTTI Base Class Array'
EXTRN	__imp_??0exception@std@@QAE@ABQBD@Z:PROC
EXTRN	??_7type_info@@6B@:QWORD			; type_info::`vftable'
EXTRN	??_Ebad_alloc@std@@UAEPAXI@Z:PROC		; std::bad_alloc::`vector deleting destructor'
EXTRN	?what@exception@std@@UBEPBDXZ:PROC		; std::exception::what
;	COMDAT ??_R2exception@std@@8
; File c:\program files (x86)\microsoft visual studio 10.0\vc\include\exception
rdata$r	SEGMENT
??_R2exception@std@@8 DD FLAT:??_R1A@?0A@EA@exception@std@@8 ; std::exception::`RTTI Base Class Array'
rdata$r	ENDS
;	COMDAT ??_R3exception@std@@8
rdata$r	SEGMENT
??_R3exception@std@@8 DD 00H				; std::exception::`RTTI Class Hierarchy Descriptor'
	DD	00H
	DD	01H
	DD	FLAT:??_R2exception@std@@8
rdata$r	ENDS
;	COMDAT ??_R0?AVexception@std@@@8
_DATA	SEGMENT
??_R0?AVexception@std@@@8 DD FLAT:??_7type_info@@6B@	; std::exception `RTTI Type Descriptor'
	DD	00H
	DB	'.?AVexception@std@@', 00H
_DATA	ENDS
;	COMDAT ??_R1A@?0A@EA@exception@std@@8
rdata$r	SEGMENT
??_R1A@?0A@EA@exception@std@@8 DD FLAT:??_R0?AVexception@std@@@8 ; std::exception::`RTTI Base Class Descriptor at (0,-1,0,64)'
	DD	00H
	DD	00H
	DD	0ffffffffH
	DD	00H
	DD	040H
	DD	FLAT:??_R3exception@std@@8
rdata$r	ENDS
;	COMDAT ??_R1A@?0A@EA@bad_alloc@std@@8
rdata$r	SEGMENT
??_R1A@?0A@EA@bad_alloc@std@@8 DD FLAT:??_R0?AVbad_alloc@std@@@8 ; std::bad_alloc::`RTTI Base Class Descriptor at (0,-1,0,64)'
	DD	01H
	DD	00H
	DD	0ffffffffH
	DD	00H
	DD	040H
	DD	FLAT:??_R3bad_alloc@std@@8
rdata$r	ENDS
;	COMDAT ??_R2bad_alloc@std@@8
rdata$r	SEGMENT
??_R2bad_alloc@std@@8 DD FLAT:??_R1A@?0A@EA@bad_alloc@std@@8 ; std::bad_alloc::`RTTI Base Class Array'
	DD	FLAT:??_R1A@?0A@EA@exception@std@@8
rdata$r	ENDS
;	COMDAT ??_R3bad_alloc@std@@8
rdata$r	SEGMENT
??_R3bad_alloc@std@@8 DD 00H				; std::bad_alloc::`RTTI Class Hierarchy Descriptor'
	DD	00H
	DD	02H
	DD	FLAT:??_R2bad_alloc@std@@8
rdata$r	ENDS
;	COMDAT ??_R0?AVbad_alloc@std@@@8
_DATA	SEGMENT
??_R0?AVbad_alloc@std@@@8 DD FLAT:??_7type_info@@6B@	; std::bad_alloc `RTTI Type Descriptor'
	DD	00H
	DB	'.?AVbad_alloc@std@@', 00H
_DATA	ENDS
;	COMDAT ??_R4bad_alloc@std@@6B@
rdata$r	SEGMENT
??_R4bad_alloc@std@@6B@ DD 00H				; std::bad_alloc::`RTTI Complete Object Locator'
	DD	00H
	DD	00H
	DD	FLAT:??_R0?AVbad_alloc@std@@@8
	DD	FLAT:??_R3bad_alloc@std@@8
rdata$r	ENDS
;	COMDAT ??_7bad_alloc@std@@6B@
CONST	SEGMENT
??_7bad_alloc@std@@6B@ DD FLAT:??_R4bad_alloc@std@@6B@	; std::bad_alloc::`vftable'
	DD	FLAT:??_Ebad_alloc@std@@UAEPAXI@Z
	DD	FLAT:?what@exception@std@@UBEPBDXZ
; Function compile flags: /Ogsp
CONST	ENDS
;	COMDAT ??0bad_alloc@std@@QAE@PBD@Z
_TEXT	SEGMENT
__Message$ = 8						; size = 4
??0bad_alloc@std@@QAE@PBD@Z PROC			; std::bad_alloc::bad_alloc, COMDAT
; _this$ = ecx

; 345  : 		{	// construct from message string

  00000	55		 push	 ebp
  00001	8b ec		 mov	 ebp, esp
  00003	56		 push	 esi
  00004	8d 45 08	 lea	 eax, DWORD PTR __Message$[ebp]
  00007	50		 push	 eax
  00008	8b f1		 mov	 esi, ecx
  0000a	ff 15 00 00 00
	00		 call	 DWORD PTR __imp_??0exception@std@@QAE@ABQBD@Z
  00010	c7 06 00 00 00
	00		 mov	 DWORD PTR [esi], OFFSET ??_7bad_alloc@std@@6B@

; 346  : 		}

  00016	8b c6		 mov	 eax, esi
  00018	5e		 pop	 esi
  00019	5d		 pop	 ebp
  0001a	c2 04 00	 ret	 4
??0bad_alloc@std@@QAE@PBD@Z ENDP			; std::bad_alloc::bad_alloc
_TEXT	ENDS
PUBLIC	??1bad_alloc@std@@UAE@XZ			; std::bad_alloc::~bad_alloc
EXTRN	__imp_??1exception@std@@UAE@XZ:PROC
; Function compile flags: /Ogsp
;	COMDAT ??1bad_alloc@std@@UAE@XZ
_TEXT	SEGMENT
??1bad_alloc@std@@UAE@XZ PROC				; std::bad_alloc::~bad_alloc, COMDAT
; _this$ = ecx

; 354  : 		{	// destroy the object

  00000	c7 01 00 00 00
	00		 mov	 DWORD PTR [ecx], OFFSET ??_7bad_alloc@std@@6B@

; 355  : 		}

  00006	ff 25 00 00 00
	00		 jmp	 DWORD PTR __imp_??1exception@std@@UAE@XZ
??1bad_alloc@std@@UAE@XZ ENDP				; std::bad_alloc::~bad_alloc
_TEXT	ENDS
EXTRN	??3@YAXPAX@Z:PROC				; operator delete
; Function compile flags: /Ogsp
;	COMDAT ??_Gbad_alloc@std@@UAEPAXI@Z
_TEXT	SEGMENT
___flags$ = 8						; size = 4
??_Gbad_alloc@std@@UAEPAXI@Z PROC			; std::bad_alloc::`scalar deleting destructor', COMDAT
; _this$ = ecx
  00000	55		 push	 ebp
  00001	8b ec		 mov	 ebp, esp
  00003	56		 push	 esi
  00004	8b f1		 mov	 esi, ecx
  00006	c7 06 00 00 00
	00		 mov	 DWORD PTR [esi], OFFSET ??_7bad_alloc@std@@6B@
  0000c	ff 15 00 00 00
	00		 call	 DWORD PTR __imp_??1exception@std@@UAE@XZ
  00012	f6 45 08 01	 test	 BYTE PTR ___flags$[ebp], 1
  00016	74 07		 je	 SHORT $LN1@scalar
  00018	56		 push	 esi
  00019	e8 00 00 00 00	 call	 ??3@YAXPAX@Z		; operator delete
  0001e	59		 pop	 ecx
$LN1@scalar:
  0001f	8b c6		 mov	 eax, esi
  00021	5e		 pop	 esi
  00022	5d		 pop	 ebp
  00023	c2 04 00	 ret	 4
??_Gbad_alloc@std@@UAEPAXI@Z ENDP			; std::bad_alloc::`scalar deleting destructor'
_TEXT	ENDS
PUBLIC	?GetHeroRank@HeroRankingListBtn@@QAEHXZ		; HeroRankingListBtn::GetHeroRank
; Function compile flags: /Ogsp
; File d:\lost saga for developer\youtube\tutorial\source\src\lsclient\gui\heromainwnd.h
;	COMDAT ?GetHeroRank@HeroRankingListBtn@@QAEHXZ
_TEXT	SEGMENT
?GetHeroRank@HeroRankingListBtn@@QAEHXZ PROC		; HeroRankingListBtn::GetHeroRank, COMDAT
; _this$ = ecx

; 253  : 	int GetHeroRank(){ return m_iHeroRank; }

  00000	8b 81 fc 01 00
	00		 mov	 eax, DWORD PTR [ecx+508]
  00006	c3		 ret	 0
?GetHeroRank@HeroRankingListBtn@@QAEHXZ ENDP		; HeroRankingListBtn::GetHeroRank
_TEXT	ENDS
PUBLIC	?GetNickName@HeroMatchHistoryBtn@@QAEABVioHashString@@XZ ; HeroMatchHistoryBtn::GetNickName
; Function compile flags: /Ogsp
;	COMDAT ?GetNickName@HeroMatchHistoryBtn@@QAEABVioHashString@@XZ
_TEXT	SEGMENT
?GetNickName@HeroMatchHistoryBtn@@QAEABVioHashString@@XZ PROC ; HeroMatchHistoryBtn::GetNickName, COMDAT
; _this$ = ecx

; 344  : 	const ioHashString &GetNickName(){ return m_szNickName; }

  00000	8d 81 28 02 00
	00		 lea	 eax, DWORD PTR [ecx+552]
  00006	c3		 ret	 0
?GetNickName@HeroMatchHistoryBtn@@QAEABVioHashString@@XZ ENDP ; HeroMatchHistoryBtn::GetNickName
_TEXT	ENDS
PUBLIC	?GetTop100Rank@HeroMatchTop100Btn@@QAEHXZ	; HeroMatchTop100Btn::GetTop100Rank
; Function compile flags: /Ogsp
;	COMDAT ?GetTop100Rank@HeroMatchTop100Btn@@QAEHXZ
_TEXT	SEGMENT
?GetTop100Rank@HeroMatchTop100Btn@@QAEHXZ PROC		; HeroMatchTop100Btn::GetTop100Rank, COMDAT
; _this$ = ecx

; 408  : 	int  GetTop100Rank(){ return m_iHeroRank; }

  00000	8b 81 08 02 00
	00		 mov	 eax, DWORD PTR [ecx+520]
  00006	c3		 ret	 0
?GetTop100Rank@HeroMatchTop100Btn@@QAEHXZ ENDP		; HeroMatchTop100Btn::GetTop100Rank
_TEXT	ENDS
PUBLIC	??0GraphData@HeroMatchRankGraphWnd@@QAE@XZ	; HeroMatchRankGraphWnd::GraphData::GraphData
; Function compile flags: /Ogsp
;	COMDAT ??0GraphData@HeroMatchRankGraphWnd@@QAE@XZ
_TEXT	SEGMENT
??0GraphData@HeroMatchRankGraphWnd@@QAE@XZ PROC		; HeroMatchRankGraphWnd::GraphData::GraphData, COMDAT
; _this$ = ecx

; 499  : 		{
; 500  : 			m_dwAniState   = GRAPH_ANI_NONE;
; 501  : 			m_dwAniTime    = 0;
; 502  : 			m_fAniRate     = 0.0f;

  00000	0f 57 c0	 xorps	 xmm0, xmm0
  00003	8b c1		 mov	 eax, ecx
  00005	33 c9		 xor	 ecx, ecx
  00007	c7 00 01 00 00
	00		 mov	 DWORD PTR [eax], 1
  0000d	89 48 04	 mov	 DWORD PTR [eax+4], ecx
  00010	f3 0f 11 40 08	 movss	 DWORD PTR [eax+8], xmm0

; 503  : 			m_bViewRanking = false;

  00015	66 89 48 18	 mov	 WORD PTR [eax+24], cx

; 504  : 			m_bLineReverse = false;
; 505  : 			m_iRanking = m_iRankPos = m_iNextRankPosGap = 0;

  00019	89 48 14	 mov	 DWORD PTR [eax+20], ecx
  0001c	89 48 10	 mov	 DWORD PTR [eax+16], ecx
  0001f	89 48 0c	 mov	 DWORD PTR [eax+12], ecx

; 506  : 			m_pCircle  = m_pLine = NULL;

  00022	89 48 20	 mov	 DWORD PTR [eax+32], ecx
  00025	89 48 1c	 mov	 DWORD PTR [eax+28], ecx

; 507  : 		}        

  00028	c3		 ret	 0
??0GraphData@HeroMatchRankGraphWnd@@QAE@XZ ENDP		; HeroMatchRankGraphWnd::GraphData::GraphData
_TEXT	ENDS
PUBLIC	??2@YAPAXIPAX@Z					; operator new
; Function compile flags: /Ogsp
; File c:\program files (x86)\microsoft visual studio 10.0\vc\include\new
;	COMDAT ??2@YAPAXIPAX@Z
_TEXT	SEGMENT
___formal$ = 8						; size = 4
__Where$ = 12						; size = 4
??2@YAPAXIPAX@Z PROC					; operator new, COMDAT

; 56   : 	{	// construct array with placement at _Where

  00000	55		 push	 ebp
  00001	8b ec		 mov	 ebp, esp

; 57   : 	return (_Where);

  00003	8b 45 0c	 mov	 eax, DWORD PTR __Where$[ebp]

; 58   : 	}

  00006	5d		 pop	 ebp
  00007	c3		 ret	 0
??2@YAPAXIPAX@Z ENDP					; operator new
_TEXT	ENDS
PUBLIC	??3@YAXPAX0@Z					; operator delete
; Function compile flags: /Ogsp
;	COMDAT ??3@YAXPAX0@Z
_TEXT	SEGMENT
___formal$ = 8						; size = 4
___formal$ = 12						; size = 4
??3@YAXPAX0@Z PROC					; operator delete, COMDAT

; 62   : 	}

  00000	c3		 ret	 0
??3@YAXPAX0@Z ENDP					; operator delete
_TEXT	ENDS
PUBLIC	??0VersusAni@HeroMatchVersusSceneWnd@@QAE@XZ	; HeroMatchVersusSceneWnd::VersusAni::VersusAni
; Function compile flags: /Ogsp
; File d:\lost saga for developer\youtube\tutorial\source\src\lsclient\gui\heromainwnd.h
;	COMDAT ??0VersusAni@HeroMatchVersusSceneWnd@@QAE@XZ
_TEXT	SEGMENT
??0VersusAni@HeroMatchVersusSceneWnd@@QAE@XZ PROC	; HeroMatchVersusSceneWnd::VersusAni::VersusAni, COMDAT
; _this$ = ecx

; 636  : 		{
; 637  : 			m_dwAniState = VS_ANI_NONE;
; 638  : 			m_dwAniTime  = 0;
; 639  : 			m_fAniRate   = 0.0f;

  00000	0f 57 c0	 xorps	 xmm0, xmm0
  00003	8b c1		 mov	 eax, ecx
  00005	33 c9		 xor	 ecx, ecx
  00007	89 08		 mov	 DWORD PTR [eax], ecx
  00009	89 48 04	 mov	 DWORD PTR [eax+4], ecx
  0000c	f3 0f 11 40 08	 movss	 DWORD PTR [eax+8], xmm0

; 640  : 
; 641  : 			m_dwEffectTime = 0;

  00011	89 48 0c	 mov	 DWORD PTR [eax+12], ecx

; 642  : 			m_iEffectArray = 0;

  00014	89 48 10	 mov	 DWORD PTR [eax+16], ecx

; 643  : 		}

  00017	c3		 ret	 0
??0VersusAni@HeroMatchVersusSceneWnd@@QAE@XZ ENDP	; HeroMatchVersusSceneWnd::VersusAni::VersusAni
_TEXT	ENDS
PUBLIC	??_7HeroMainWnd@@6B@				; HeroMainWnd::`vftable'
PUBLIC	??0HeroMainWnd@@QAE@XZ				; HeroMainWnd::HeroMainWnd
PUBLIC	??_R4HeroMainWnd@@6B@				; HeroMainWnd::`RTTI Complete Object Locator'
PUBLIC	??_R0?AVHeroMainWnd@@@8				; HeroMainWnd `RTTI Type Descriptor'
PUBLIC	??_R3HeroMainWnd@@8				; HeroMainWnd::`RTTI Class Hierarchy Descriptor'
PUBLIC	??_R2HeroMainWnd@@8				; HeroMainWnd::`RTTI Base Class Array'
PUBLIC	??_R1A@?0A@EA@HeroMainWnd@@8			; HeroMainWnd::`RTTI Base Class Descriptor at (0,-1,0,64)'
PUBLIC	??_R1A@?0A@EA@ioWnd@@8				; ioWnd::`RTTI Base Class Descriptor at (0,-1,0,64)'
PUBLIC	??_R0?AVioWnd@@@8				; ioWnd `RTTI Type Descriptor'
PUBLIC	??_R3ioWnd@@8					; ioWnd::`RTTI Class Hierarchy Descriptor'
PUBLIC	??_R2ioWnd@@8					; ioWnd::`RTTI Base Class Array'
PUBLIC	?OnRender@HeroMainWnd@@MAEXXZ			; HeroMainWnd::OnRender
PUBLIC	?OnProcess@HeroMainWnd@@MAEXM@Z			; HeroMainWnd::OnProcess
PUBLIC	?iwm_create@HeroMainWnd@@UAEXXZ			; HeroMainWnd::iwm_create
PUBLIC	?iwm_command@HeroMainWnd@@UAEXPAVioWnd@@HK@Z	; HeroMainWnd::iwm_command
PUBLIC	?iwm_show@HeroMainWnd@@UAEXXZ			; HeroMainWnd::iwm_show
PUBLIC	?iwm_hide@HeroMainWnd@@UAEXXZ			; HeroMainWnd::iwm_hide
EXTRN	__imp_??0ioWnd@@QAE@XZ:PROC
EXTRN	?AddRenderFrame@ioWnd@@UAEXABVioHashString@@PAVioUIRenderFrame@@@Z:PROC ; ioWnd::AddRenderFrame
EXTRN	?AddRenderImage@ioWnd@@UAEXABVioHashString@@PAVioUIRenderImage@@@Z:PROC ; ioWnd::AddRenderImage
EXTRN	?AddTooltipHelp@ioWnd@@UAEXABVioHashString@@00@Z:PROC ; ioWnd::AddTooltipHelp
EXTRN	?ParseExtraInfo@ioWnd@@UAEXAAVioXMLElement@@@Z:PROC ; ioWnd::ParseExtraInfo
EXTRN	?AddNamedRenderImage@ioWnd@@UAEXABVioHashString@@PAVioUIRenderImage@@@Z:PROC ; ioWnd::AddNamedRenderImage
EXTRN	?RemoveNamedRenderImage@ioWnd@@UAEXABVioHashString@@@Z:PROC ; ioWnd::RemoveNamedRenderImage
EXTRN	?GetNamedRenderImage@ioWnd@@UBEPAVioUIRenderImage@@ABVioHashString@@@Z:PROC ; ioWnd::GetNamedRenderImage
EXTRN	?SetWindowAlpha@ioWnd@@UAEXH@Z:PROC		; ioWnd::SetWindowAlpha
EXTRN	?SetActive@ioWnd@@UAEXXZ:PROC			; ioWnd::SetActive
EXTRN	?SetInActive@ioWnd@@UAEXXZ:PROC			; ioWnd::SetInActive
EXTRN	?ClearElementImageList@ioWnd@@UAEXXZ:PROC	; ioWnd::ClearElementImageList
EXTRN	?SetSize@ioWnd@@UAEXHH@Z:PROC			; ioWnd::SetSize
EXTRN	?SetPositionToDefault@ioWnd@@UAEXHH_N0@Z:PROC	; ioWnd::SetPositionToDefault
EXTRN	?IsNeedProcess@ioWnd@@UBE_NXZ:PROC		; ioWnd::IsNeedProcess
EXTRN	?IsCanMouseReaction@ioWnd@@UBE_NXZ:PROC		; ioWnd::IsCanMouseReaction
EXTRN	?AddChild@ioWnd@@UAEXPAV1@@Z:PROC		; ioWnd::AddChild
EXTRN	?DeleteChild@ioWnd@@UAEXK@Z:PROC		; ioWnd::DeleteChild
EXTRN	?DeleteAllChild@ioWnd@@UAEXXZ:PROC		; ioWnd::DeleteAllChild
EXTRN	?OnRenderShowAndHide@ioWnd@@MAE_NXZ:PROC	; ioWnd::OnRenderShowAndHide
EXTRN	?OnRenderShowAndHideByDefault@ioWnd@@MAE_NK@Z:PROC ; ioWnd::OnRenderShowAndHideByDefault
EXTRN	?OnRenderShowAndHideByTop@ioWnd@@MAE_NK@Z:PROC	; ioWnd::OnRenderShowAndHideByTop
EXTRN	?OnRenderShowAndHideByDown@ioWnd@@MAE_NK@Z:PROC	; ioWnd::OnRenderShowAndHideByDown
EXTRN	?OnRenderAfterChild@ioWnd@@MAEXXZ:PROC		; ioWnd::OnRenderAfterChild
EXTRN	?OnMouseProcess@ioWnd@@MAEXABVioMouse@@@Z:PROC	; ioWnd::OnMouseProcess
EXTRN	?CheckFrameReSize@ioWnd@@MAEXHHHH@Z:PROC	; ioWnd::CheckFrameReSize
EXTRN	?RenderImageList@ioWnd@@MAEXHHW4UIRenderType@@@Z:PROC ; ioWnd::RenderImageList
EXTRN	?iwm_destroy@ioWnd@@UAEXXZ:PROC			; ioWnd::iwm_destroy
EXTRN	?iwm_lbuttondown@ioWnd@@UAEXABVioMouse@@@Z:PROC	; ioWnd::iwm_lbuttondown
EXTRN	?iwm_lbuttonup@ioWnd@@UAEXABVioMouse@@@Z:PROC	; ioWnd::iwm_lbuttonup
EXTRN	?iwm_lbuttonDBLCLK@ioWnd@@UAEXABVioMouse@@@Z:PROC ; ioWnd::iwm_lbuttonDBLCLK
EXTRN	?iwm_rbuttondown@ioWnd@@UAEXABVioMouse@@@Z:PROC	; ioWnd::iwm_rbuttondown
EXTRN	?iwm_rbuttonup@ioWnd@@UAEXABVioMouse@@@Z:PROC	; ioWnd::iwm_rbuttonup
EXTRN	?iwm_mouseover@ioWnd@@UAEXABVioMouse@@@Z:PROC	; ioWnd::iwm_mouseover
EXTRN	?iwm_mousemove@ioWnd@@UAEXABVioMouse@@@Z:PROC	; ioWnd::iwm_mousemove
EXTRN	?iwm_mouseleave@ioWnd@@UAEXABVioMouse@@@Z:PROC	; ioWnd::iwm_mouseleave
EXTRN	?iwm_vscroll@ioWnd@@UAEXKH@Z:PROC		; ioWnd::iwm_vscroll
EXTRN	?iwm_wheel@ioWnd@@UAEXH@Z:PROC			; ioWnd::iwm_wheel
EXTRN	?iwm_esc@ioWnd@@UAE_NXZ:PROC			; ioWnd::iwm_esc
EXTRN	?iwm_spacebar@ioWnd@@UAE_NXZ:PROC		; ioWnd::iwm_spacebar
EXTRN	?iwm_gototop@ioWnd@@UAEXXZ:PROC			; ioWnd::iwm_gototop
EXTRN	?iwm_dragenter@ioWnd@@UAE?AW4IWDropEffect@@PAVioDragItem@@ABVioMouse@@@Z:PROC ; ioWnd::iwm_dragenter
EXTRN	?iwm_dragover@ioWnd@@UAE?AW4IWDropEffect@@PAVioDragItem@@ABVioMouse@@@Z:PROC ; ioWnd::iwm_dragover
EXTRN	?iwm_dragleave@ioWnd@@UAEXXZ:PROC		; ioWnd::iwm_dragleave
EXTRN	?iwm_dropitem@ioWnd@@UAE_NPAVioDragItem@@ABVioMouse@@PAV1@@Z:PROC ; ioWnd::iwm_dropitem
EXTRN	?iwm_dropdone@ioWnd@@UAEXPAVioDragItem@@PAV1@_N@Z:PROC ; ioWnd::iwm_dropdone
EXTRN	?IsEXType@ioWnd@@UBE_NXZ:PROC			; ioWnd::IsEXType
EXTRN	?GetWndType@ioWnd@@UBEKXZ:PROC			; ioWnd::GetWndType
EXTRN	?RenderWnd@ioWnd@@UAEXXZ:PROC			; ioWnd::RenderWnd
EXTRN	?SetIDEX@ioWnd@@UAEXAAK_N@Z:PROC		; ioWnd::SetIDEX
EXTRN	?ParseXML@ioWnd@@UAEXAAVioXMLElement@@@Z:PROC	; ioWnd::ParseXML
EXTRN	?GetHeaderFileName@ioWnd@@UAEPBDXZ:PROC		; ioWnd::GetHeaderFileName
EXTRN	?GetTemplateName@ioWnd@@UAEPBDXZ:PROC		; ioWnd::GetTemplateName
EXTRN	?GetDefClassName@ioWnd@@UBEPBDXZ:PROC		; ioWnd::GetDefClassName
EXTRN	?_Clone@ioWnd@@UAEPAV1@XZ:PROC			; ioWnd::_Clone
EXTRN	?Copy@ioWnd@@UAEXPAV1@@Z:PROC			; ioWnd::Copy
EXTRN	?Save@ioWnd@@UAE_NAAVioXMLElement@@@Z:PROC	; ioWnd::Save
EXTRN	?SetSaveData@ioWnd@@UAEXAAVioXMLElement@@@Z:PROC ; ioWnd::SetSaveData
EXTRN	?SetPosX@ioWnd@@UAEXH@Z:PROC			; ioWnd::SetPosX
EXTRN	?SetPosY@ioWnd@@UAEXH@Z:PROC			; ioWnd::SetPosY
EXTRN	?SetWidth@ioWnd@@UAEXH@Z:PROC			; ioWnd::SetWidth
EXTRN	?SetHeight@ioWnd@@UAEXH@Z:PROC			; ioWnd::SetHeight
EXTRN	?GetNumFixedRenderFrame@ioWnd@@UBEHXZ:PROC	; ioWnd::GetNumFixedRenderFrame
EXTRN	?GetFixedRenderFrameType@ioWnd@@UAEPBDH@Z:PROC	; ioWnd::GetFixedRenderFrameType
EXTRN	?GetRenderFrame@ioWnd@@UAEPAPAVioUIRenderElement@@PBD@Z:PROC ; ioWnd::GetRenderFrame
EXTRN	?GetNumFixedRenderImage@ioWnd@@UBEHXZ:PROC	; ioWnd::GetNumFixedRenderImage
EXTRN	?GetFixedRenderImageType@ioWnd@@UAEPBDH@Z:PROC	; ioWnd::GetFixedRenderImageType
EXTRN	?GetRenderImage@ioWnd@@UAEPAPAVioUIRenderElement@@PBD@Z:PROC ; ioWnd::GetRenderImage
EXTRN	?AddEffect@ioWnd@@UAEXABVioHashString@@PAVioUI3DEffectRender@@@Z:PROC ; ioWnd::AddEffect
EXTRN	?GetEffect@ioWnd@@UAEPAVioUI3DEffectRender@@VioHashString@@@Z:PROC ; ioWnd::GetEffect
EXTRN	??_EHeroMainWnd@@UAEPAXI@Z:PROC			; HeroMainWnd::`vector deleting destructor'
;	COMDAT ??_R2ioWnd@@8
; File d:\lost saga for developer\youtube\tutorial\source\src\lsclient\gui\heromainwnd.cpp
rdata$r	SEGMENT
??_R2ioWnd@@8 DD FLAT:??_R1A@?0A@EA@ioWnd@@8		; ioWnd::`RTTI Base Class Array'
rdata$r	ENDS
;	COMDAT ??_R3ioWnd@@8
rdata$r	SEGMENT
??_R3ioWnd@@8 DD 00H					; ioWnd::`RTTI Class Hierarchy Descriptor'
	DD	00H
	DD	01H
	DD	FLAT:??_R2ioWnd@@8
rdata$r	ENDS
;	COMDAT ??_R0?AVioWnd@@@8
_DATA	SEGMENT
??_R0?AVioWnd@@@8 DD FLAT:??_7type_info@@6B@		; ioWnd `RTTI Type Descriptor'
	DD	00H
	DB	'.?AVioWnd@@', 00H
_DATA	ENDS
;	COMDAT ??_R1A@?0A@EA@ioWnd@@8
rdata$r	SEGMENT
??_R1A@?0A@EA@ioWnd@@8 DD FLAT:??_R0?AVioWnd@@@8	; ioWnd::`RTTI Base Class Descriptor at (0,-1,0,64)'
	DD	00H
	DD	00H
	DD	0ffffffffH
	DD	00H
	DD	040H
	DD	FLAT:??_R3ioWnd@@8
rdata$r	ENDS
;	COMDAT ??_R1A@?0A@EA@HeroMainWnd@@8
rdata$r	SEGMENT
??_R1A@?0A@EA@HeroMainWnd@@8 DD FLAT:??_R0?AVHeroMainWnd@@@8 ; HeroMainWnd::`RTTI Base Class Descriptor at (0,-1,0,64)'
	DD	01H
	DD	00H
	DD	0ffffffffH
	DD	00H
	DD	040H
	DD	FLAT:??_R3HeroMainWnd@@8
rdata$r	ENDS
;	COMDAT ??_R2HeroMainWnd@@8
rdata$r	SEGMENT
??_R2HeroMainWnd@@8 DD FLAT:??_R1A@?0A@EA@HeroMainWnd@@8 ; HeroMainWnd::`RTTI Base Class Array'
	DD	FLAT:??_R1A@?0A@EA@ioWnd@@8
rdata$r	ENDS
;	COMDAT ??_R3HeroMainWnd@@8
rdata$r	SEGMENT
??_R3HeroMainWnd@@8 DD 00H				; HeroMainWnd::`RTTI Class Hierarchy Descriptor'
	DD	00H
	DD	02H
	DD	FLAT:??_R2HeroMainWnd@@8
rdata$r	ENDS
;	COMDAT ??_R0?AVHeroMainWnd@@@8
_DATA	SEGMENT
??_R0?AVHeroMainWnd@@@8 DD FLAT:??_7type_info@@6B@	; HeroMainWnd `RTTI Type Descriptor'
	DD	00H
	DB	'.?AVHeroMainWnd@@', 00H
_DATA	ENDS
;	COMDAT ??_R4HeroMainWnd@@6B@
rdata$r	SEGMENT
??_R4HeroMainWnd@@6B@ DD 00H				; HeroMainWnd::`RTTI Complete Object Locator'
	DD	00H
	DD	00H
	DD	FLAT:??_R0?AVHeroMainWnd@@@8
	DD	FLAT:??_R3HeroMainWnd@@8
rdata$r	ENDS
;	COMDAT ??_7HeroMainWnd@@6B@
CONST	SEGMENT
??_7HeroMainWnd@@6B@ DD FLAT:??_R4HeroMainWnd@@6B@	; HeroMainWnd::`vftable'
	DD	FLAT:?AddRenderFrame@ioWnd@@UAEXABVioHashString@@PAVioUIRenderFrame@@@Z
	DD	FLAT:?AddRenderImage@ioWnd@@UAEXABVioHashString@@PAVioUIRenderImage@@@Z
	DD	FLAT:?AddTooltipHelp@ioWnd@@UAEXABVioHashString@@00@Z
	DD	FLAT:?ParseExtraInfo@ioWnd@@UAEXAAVioXMLElement@@@Z
	DD	FLAT:?AddNamedRenderImage@ioWnd@@UAEXABVioHashString@@PAVioUIRenderImage@@@Z
	DD	FLAT:?RemoveNamedRenderImage@ioWnd@@UAEXABVioHashString@@@Z
	DD	FLAT:?GetNamedRenderImage@ioWnd@@UBEPAVioUIRenderImage@@ABVioHashString@@@Z
	DD	FLAT:?SetWindowAlpha@ioWnd@@UAEXH@Z
	DD	FLAT:?SetActive@ioWnd@@UAEXXZ
	DD	FLAT:?SetInActive@ioWnd@@UAEXXZ
	DD	FLAT:?ClearElementImageList@ioWnd@@UAEXXZ
	DD	FLAT:?SetSize@ioWnd@@UAEXHH@Z
	DD	FLAT:?SetPositionToDefault@ioWnd@@UAEXHH_N0@Z
	DD	FLAT:?IsNeedProcess@ioWnd@@UBE_NXZ
	DD	FLAT:?IsCanMouseReaction@ioWnd@@UBE_NXZ
	DD	FLAT:?AddChild@ioWnd@@UAEXPAV1@@Z
	DD	FLAT:?DeleteChild@ioWnd@@UAEXK@Z
	DD	FLAT:?DeleteAllChild@ioWnd@@UAEXXZ
	DD	FLAT:?OnRenderShowAndHide@ioWnd@@MAE_NXZ
	DD	FLAT:?OnRenderShowAndHideByDefault@ioWnd@@MAE_NK@Z
	DD	FLAT:?OnRenderShowAndHideByTop@ioWnd@@MAE_NK@Z
	DD	FLAT:?OnRenderShowAndHideByDown@ioWnd@@MAE_NK@Z
	DD	FLAT:?OnRender@HeroMainWnd@@MAEXXZ
	DD	FLAT:?OnRenderAfterChild@ioWnd@@MAEXXZ
	DD	FLAT:?OnProcess@HeroMainWnd@@MAEXM@Z
	DD	FLAT:?OnMouseProcess@ioWnd@@MAEXABVioMouse@@@Z
	DD	FLAT:?CheckFrameReSize@ioWnd@@MAEXHHHH@Z
	DD	FLAT:?RenderImageList@ioWnd@@MAEXHHW4UIRenderType@@@Z
	DD	FLAT:?iwm_create@HeroMainWnd@@UAEXXZ
	DD	FLAT:?iwm_destroy@ioWnd@@UAEXXZ
	DD	FLAT:?iwm_lbuttondown@ioWnd@@UAEXABVioMouse@@@Z
	DD	FLAT:?iwm_lbuttonup@ioWnd@@UAEXABVioMouse@@@Z
	DD	FLAT:?iwm_lbuttonDBLCLK@ioWnd@@UAEXABVioMouse@@@Z
	DD	FLAT:?iwm_rbuttondown@ioWnd@@UAEXABVioMouse@@@Z
	DD	FLAT:?iwm_rbuttonup@ioWnd@@UAEXABVioMouse@@@Z
	DD	FLAT:?iwm_command@HeroMainWnd@@UAEXPAVioWnd@@HK@Z
	DD	FLAT:?iwm_mouseover@ioWnd@@UAEXABVioMouse@@@Z
	DD	FLAT:?iwm_mousemove@ioWnd@@UAEXABVioMouse@@@Z
	DD	FLAT:?iwm_mouseleave@ioWnd@@UAEXABVioMouse@@@Z
	DD	FLAT:?iwm_vscroll@ioWnd@@UAEXKH@Z
	DD	FLAT:?iwm_wheel@ioWnd@@UAEXH@Z
	DD	FLAT:?iwm_show@HeroMainWnd@@UAEXXZ
	DD	FLAT:?iwm_hide@HeroMainWnd@@UAEXXZ
	DD	FLAT:?iwm_esc@ioWnd@@UAE_NXZ
	DD	FLAT:?iwm_spacebar@ioWnd@@UAE_NXZ
	DD	FLAT:?iwm_gototop@ioWnd@@UAEXXZ
	DD	FLAT:?iwm_dragenter@ioWnd@@UAE?AW4IWDropEffect@@PAVioDragItem@@ABVioMouse@@@Z
	DD	FLAT:?iwm_dragover@ioWnd@@UAE?AW4IWDropEffect@@PAVioDragItem@@ABVioMouse@@@Z
	DD	FLAT:?iwm_dragleave@ioWnd@@UAEXXZ
	DD	FLAT:?iwm_dropitem@ioWnd@@UAE_NPAVioDragItem@@ABVioMouse@@PAV1@@Z
	DD	FLAT:?iwm_dropdone@ioWnd@@UAEXPAVioDragItem@@PAV1@_N@Z
	DD	FLAT:?IsEXType@ioWnd@@UBE_NXZ
	DD	FLAT:?GetWndType@ioWnd@@UBEKXZ
	DD	FLAT:?RenderWnd@ioWnd@@UAEXXZ
	DD	FLAT:?SetIDEX@ioWnd@@UAEXAAK_N@Z
	DD	FLAT:?ParseXML@ioWnd@@UAEXAAVioXMLElement@@@Z
	DD	FLAT:?GetHeaderFileName@ioWnd@@UAEPBDXZ
	DD	FLAT:?GetTemplateName@ioWnd@@UAEPBDXZ
	DD	FLAT:?GetDefClassName@ioWnd@@UBEPBDXZ
	DD	FLAT:?_Clone@ioWnd@@UAEPAV1@XZ
	DD	FLAT:?Copy@ioWnd@@UAEXPAV1@@Z
	DD	FLAT:?Save@ioWnd@@UAE_NAAVioXMLElement@@@Z
	DD	FLAT:?SetSaveData@ioWnd@@UAEXAAVioXMLElement@@@Z
	DD	FLAT:?SetPosX@ioWnd@@UAEXH@Z
	DD	FLAT:?SetPosY@ioWnd@@UAEXH@Z
	DD	FLAT:?SetWidth@ioWnd@@UAEXH@Z
	DD	FLAT:?SetHeight@ioWnd@@UAEXH@Z
	DD	FLAT:?GetNumFixedRenderFrame@ioWnd@@UBEHXZ
	DD	FLAT:?GetFixedRenderFrameType@ioWnd@@UAEPBDH@Z
	DD	FLAT:?GetRenderFrame@ioWnd@@UAEPAPAVioUIRenderElement@@PBD@Z
	DD	FLAT:?GetNumFixedRenderImage@ioWnd@@UBEHXZ
	DD	FLAT:?GetFixedRenderImageType@ioWnd@@UAEPBDH@Z
	DD	FLAT:?GetRenderImage@ioWnd@@UAEPAPAVioUIRenderElement@@PBD@Z
	DD	FLAT:?AddEffect@ioWnd@@UAEXABVioHashString@@PAVioUI3DEffectRender@@@Z
	DD	FLAT:?GetEffect@ioWnd@@UAEPAVioUI3DEffectRender@@VioHashString@@@Z
	DD	FLAT:??_EHeroMainWnd@@UAEPAXI@Z
; Function compile flags: /Ogsp
CONST	ENDS
;	COMDAT ??0HeroMainWnd@@QAE@XZ
_TEXT	SEGMENT
??0HeroMainWnd@@QAE@XZ PROC				; HeroMainWnd::HeroMainWnd, COMDAT
; _this$ = ecx

; 67   : {

  00000	56		 push	 esi
  00001	8b f1		 mov	 esi, ecx
  00003	ff 15 00 00 00
	00		 call	 DWORD PTR __imp_??0ioWnd@@QAE@XZ
  00009	c7 06 00 00 00
	00		 mov	 DWORD PTR [esi], OFFSET ??_7HeroMainWnd@@6B@

; 68   : 	m_dwTabID = ID_HERO_MATCH_BTN;

  0000f	c7 86 60 01 00
	00 01 00 00 00	 mov	 DWORD PTR [esi+352], 1

; 69   : }

  00019	8b c6		 mov	 eax, esi
  0001b	5e		 pop	 esi
  0001c	c3		 ret	 0
??0HeroMainWnd@@QAE@XZ ENDP				; HeroMainWnd::HeroMainWnd
_TEXT	ENDS
PUBLIC	??1HeroMainWnd@@UAE@XZ				; HeroMainWnd::~HeroMainWnd
EXTRN	__imp_??1ioWnd@@UAE@XZ:PROC
; Function compile flags: /Ogsp
;	COMDAT ??1HeroMainWnd@@UAE@XZ
_TEXT	SEGMENT
??1HeroMainWnd@@UAE@XZ PROC				; HeroMainWnd::~HeroMainWnd, COMDAT
; _this$ = ecx

; 72   : {

  00000	c7 01 00 00 00
	00		 mov	 DWORD PTR [ecx], OFFSET ??_7HeroMainWnd@@6B@

; 73   : 	
; 74   : }

  00006	ff 25 00 00 00
	00		 jmp	 DWORD PTR __imp_??1ioWnd@@UAE@XZ
??1HeroMainWnd@@UAE@XZ ENDP				; HeroMainWnd::~HeroMainWnd
_TEXT	ENDS
PUBLIC	??_C@_0BF@OCMJJIMD@XML?1influencewnd?4xml?$AA@	; `string'
PUBLIC	??_C@_0BF@NNNPJCBK@XML?1heromatchwnd?4xml?$AA@	; `string'
EXTRN	__imp_?AddWnd@ioGUIManager@@QAEPAVioWnd@@PBDPAV2@@Z:PROC
EXTRN	?GetSingleton@ioSP2GUIManager@@SAAAV1@XZ:PROC	; ioSP2GUIManager::GetSingleton
;	COMDAT ??_C@_0BF@OCMJJIMD@XML?1influencewnd?4xml?$AA@
CONST	SEGMENT
??_C@_0BF@OCMJJIMD@XML?1influencewnd?4xml?$AA@ DB 'XML/influencewnd.xml', 00H ; `string'
CONST	ENDS
;	COMDAT ??_C@_0BF@NNNPJCBK@XML?1heromatchwnd?4xml?$AA@
CONST	SEGMENT
??_C@_0BF@NNNPJCBK@XML?1heromatchwnd?4xml?$AA@ DB 'XML/heromatchwnd.xml', 00H ; `string'
; Function compile flags: /Ogsp
CONST	ENDS
;	COMDAT ?iwm_create@HeroMainWnd@@UAEXXZ
_TEXT	SEGMENT
?iwm_create@HeroMainWnd@@UAEXXZ PROC			; HeroMainWnd::iwm_create, COMDAT
; _this$ = ecx

; 77   : {

  00000	56		 push	 esi
  00001	57		 push	 edi
  00002	8b f9		 mov	 edi, ecx

; 78   : 	g_GUIMgr.AddWnd( "XML/heromatchwnd.xml", this );

  00004	57		 push	 edi
  00005	68 00 00 00 00	 push	 OFFSET ??_C@_0BF@NNNPJCBK@XML?1heromatchwnd?4xml?$AA@
  0000a	e8 00 00 00 00	 call	 ?GetSingleton@ioSP2GUIManager@@SAAAV1@XZ ; ioSP2GUIManager::GetSingleton
  0000f	8b 35 00 00 00
	00		 mov	 esi, DWORD PTR __imp_?AddWnd@ioGUIManager@@QAEPAVioWnd@@PBDPAV2@@Z
  00015	8b c8		 mov	 ecx, eax
  00017	ff d6		 call	 esi

; 79   : 	g_GUIMgr.AddWnd( "XML/influencewnd.xml", this );

  00019	57		 push	 edi
  0001a	68 00 00 00 00	 push	 OFFSET ??_C@_0BF@OCMJJIMD@XML?1influencewnd?4xml?$AA@
  0001f	e8 00 00 00 00	 call	 ?GetSingleton@ioSP2GUIManager@@SAAAV1@XZ ; ioSP2GUIManager::GetSingleton
  00024	8b c8		 mov	 ecx, eax
  00026	ff d6		 call	 esi
  00028	5f		 pop	 edi
  00029	5e		 pop	 esi

; 80   : }

  0002a	c3		 ret	 0
?iwm_create@HeroMainWnd@@UAEXXZ ENDP			; HeroMainWnd::iwm_create
; Function compile flags: /Ogsp
_TEXT	ENDS
;	COMDAT ?iwm_hide@HeroMainWnd@@UAEXXZ
_TEXT	SEGMENT
?iwm_hide@HeroMainWnd@@UAEXXZ PROC			; HeroMainWnd::iwm_hide, COMDAT
; _this$ = ecx

; 99   : }

  00000	c3		 ret	 0
?iwm_hide@HeroMainWnd@@UAEXXZ ENDP			; HeroMainWnd::iwm_hide
_TEXT	ENDS
EXTRN	__imp_?IsShow@ioWnd@@QBE_NXZ:PROC
; Function compile flags: /Ogsp
;	COMDAT ?OnProcess@HeroMainWnd@@MAEXM@Z
_TEXT	SEGMENT
_fTimePerSec$ = 8					; size = 4
?OnProcess@HeroMainWnd@@MAEXM@Z PROC			; HeroMainWnd::OnProcess, COMDAT
; _this$ = ecx

; 170  : 	if( !IsShow() )

  00000	ff 15 00 00 00
	00		 call	 DWORD PTR __imp_?IsShow@ioWnd@@QBE_NXZ

; 171  : 		return;
; 172  : }

  00006	c2 04 00	 ret	 4
?OnProcess@HeroMainWnd@@MAEXM@Z ENDP			; HeroMainWnd::OnProcess
_TEXT	ENDS
EXTRN	__imp_?OnRender@ioWnd@@MAEXXZ:PROC
; Function compile flags: /Ogsp
;	COMDAT ?OnRender@HeroMainWnd@@MAEXXZ
_TEXT	SEGMENT
?OnRender@HeroMainWnd@@MAEXXZ PROC			; HeroMainWnd::OnRender, COMDAT
; _this$ = ecx

; 176  : 	ioWnd::OnRender();

  00000	ff 25 00 00 00
	00		 jmp	 DWORD PTR __imp_?OnRender@ioWnd@@MAEXXZ
?OnRender@HeroMainWnd@@MAEXXZ ENDP			; HeroMainWnd::OnRender
_TEXT	ENDS
PUBLIC	??_C@_0CE@FCMGKOOH@config?1sp2_stage_charselect_map?4@ ; `string'
PUBLIC	??_C@_0L@DAEPCAMJ@ladder_cam?$AA@		; `string'
PUBLIC	?iwm_create@HeroMatchRankBtn@@UAEXXZ		; HeroMatchRankBtn::iwm_create
EXTRN	?Initialize@ioUI3DRender@@QAEXPBD0@Z:PROC	; ioUI3DRender::Initialize
EXTRN	??0ioUI3DRender@@QAE@XZ:PROC			; ioUI3DRender::ioUI3DRender
EXTRN	??2@YAPAXI@Z:PROC				; operator new
EXTRN	___CxxFrameHandler3:PROC
EXTRN	@__security_check_cookie@4:PROC
EXTRN	__EH_epilog3:PROC
EXTRN	__EH_prolog3:PROC
;	COMDAT ??_C@_0CE@FCMGKOOH@config?1sp2_stage_charselect_map?4@
CONST	SEGMENT
??_C@_0CE@FCMGKOOH@config?1sp2_stage_charselect_map?4@ DB 'config/sp2_sta'
	DB	'ge_charselect_map.ini', 00H			; `string'
CONST	ENDS
;	COMDAT ??_C@_0L@DAEPCAMJ@ladder_cam?$AA@
CONST	SEGMENT
??_C@_0L@DAEPCAMJ@ladder_cam?$AA@ DB 'ladder_cam', 00H	; `string'
CONST	ENDS
;	COMDAT xdata$x
xdata$x	SEGMENT
__unwindtable$?iwm_create@HeroMatchRankBtn@@UAEXXZ DD 0ffffffffH
	DD	FLAT:__unwindfunclet$?iwm_create@HeroMatchRankBtn@@UAEXXZ$0
__ehfuncinfo$?iwm_create@HeroMatchRankBtn@@UAEXXZ DD 019930522H
	DD	01H
	DD	FLAT:__unwindtable$?iwm_create@HeroMatchRankBtn@@UAEXXZ
	DD	2 DUP(00H)
	DD	2 DUP(00H)
	DD	00H
	DD	01H
; Function compile flags: /Ogsp
xdata$x	ENDS
;	COMDAT ?iwm_create@HeroMatchRankBtn@@UAEXXZ
_TEXT	SEGMENT
$T534271 = -16						; size = 4
__$EHRec$ = -12						; size = 12
?iwm_create@HeroMatchRankBtn@@UAEXXZ PROC		; HeroMatchRankBtn::iwm_create, COMDAT
; _this$ = ecx

; 239  : {

  00000	6a 04		 push	 4
  00002	b8 00 00 00 00	 mov	 eax, __ehhandler$?iwm_create@HeroMatchRankBtn@@UAEXXZ
  00007	e8 00 00 00 00	 call	 __EH_prolog3
  0000c	8b f1		 mov	 esi, ecx

; 240  : 	SAFEDELETE( m_pUI3DRender );

  0000e	8b 8e fc 01 00
	00		 mov	 ecx, DWORD PTR [esi+508]
  00014	85 c9		 test	 ecx, ecx
  00016	74 0d		 je	 SHORT $LN1@iwm_create
  00018	8b 01		 mov	 eax, DWORD PTR [ecx]
  0001a	6a 01		 push	 1
  0001c	ff 10		 call	 DWORD PTR [eax]
  0001e	83 a6 fc 01 00
	00 00		 and	 DWORD PTR [esi+508], 0
$LN1@iwm_create:

; 241  : 
; 242  : 	m_pUI3DRender = new ioUI3DRender;

  00025	6a 48		 push	 72			; 00000048H
  00027	e8 00 00 00 00	 call	 ??2@YAPAXI@Z		; operator new
  0002c	59		 pop	 ecx
  0002d	8b c8		 mov	 ecx, eax
  0002f	89 4d f0	 mov	 DWORD PTR $T534271[ebp], ecx
  00032	83 65 fc 00	 and	 DWORD PTR __$EHRec$[ebp+8], 0
  00036	85 c9		 test	 ecx, ecx
  00038	74 07		 je	 SHORT $LN6@iwm_create
  0003a	e8 00 00 00 00	 call	 ??0ioUI3DRender@@QAE@XZ	; ioUI3DRender::ioUI3DRender
  0003f	eb 02		 jmp	 SHORT $LN7@iwm_create
$LN6@iwm_create:
  00041	33 c0		 xor	 eax, eax
$LN7@iwm_create:
  00043	83 4d fc ff	 or	 DWORD PTR __$EHRec$[ebp+8], -1

; 243  : 	m_pUI3DRender->Initialize( "config/sp2_stage_charselect_map.ini", "ladder_cam" );

  00047	68 00 00 00 00	 push	 OFFSET ??_C@_0L@DAEPCAMJ@ladder_cam?$AA@
  0004c	68 00 00 00 00	 push	 OFFSET ??_C@_0CE@FCMGKOOH@config?1sp2_stage_charselect_map?4@
  00051	8b c8		 mov	 ecx, eax
  00053	89 86 fc 01 00
	00		 mov	 DWORD PTR [esi+508], eax
  00059	e8 00 00 00 00	 call	 ?Initialize@ioUI3DRender@@QAEXPBD0@Z ; ioUI3DRender::Initialize

; 244  : }

  0005e	e8 00 00 00 00	 call	 __EH_epilog3
  00063	c3		 ret	 0
_TEXT	ENDS
;	COMDAT text$x
text$x	SEGMENT
__unwindfunclet$?iwm_create@HeroMatchRankBtn@@UAEXXZ$0:
  00000	ff 75 f0	 push	 DWORD PTR $T534271[ebp]
  00003	e8 00 00 00 00	 call	 ??3@YAXPAX@Z		; operator delete
  00008	59		 pop	 ecx
  00009	c3		 ret	 0
__ehhandler$?iwm_create@HeroMatchRankBtn@@UAEXXZ:
  0000a	8b 54 24 08	 mov	 edx, DWORD PTR [esp+8]
  0000e	8d 42 0c	 lea	 eax, DWORD PTR [edx+12]
  00011	8b 4a ec	 mov	 ecx, DWORD PTR [edx-20]
  00014	33 c8		 xor	 ecx, eax
  00016	e8 00 00 00 00	 call	 @__security_check_cookie@4
  0001b	b8 00 00 00 00	 mov	 eax, OFFSET __ehfuncinfo$?iwm_create@HeroMatchRankBtn@@UAEXXZ
  00020	e9 00 00 00 00	 jmp	 ___CxxFrameHandler3
text$x	ENDS
?iwm_create@HeroMatchRankBtn@@UAEXXZ ENDP		; HeroMatchRankBtn::iwm_create
PUBLIC	?_Adopt@_Iterator_base0@std@@QAEXPBX@Z		; std::_Iterator_base0::_Adopt
; Function compile flags: /Ogsp
; File c:\program files (x86)\microsoft visual studio 10.0\vc\include\xutility
;	COMDAT ?_Adopt@_Iterator_base0@std@@QAEXPBX@Z
_TEXT	SEGMENT
___formal$ = 8						; size = 4
?_Adopt@_Iterator_base0@std@@QAEXPBX@Z PROC		; std::_Iterator_base0::_Adopt, COMDAT
; _this$ = ecx

; 49   : 		}

  00000	c2 04 00	 ret	 4
?_Adopt@_Iterator_base0@std@@QAEXPBX@Z ENDP		; std::_Iterator_base0::_Adopt
_TEXT	ENDS
PUBLIC	?OnProcess@HeroMatchRankBtn@@MAEXM@Z		; HeroMatchRankBtn::OnProcess
EXTRN	?Update@ioCreateChar@@QAEXM@Z:PROC		; ioCreateChar::Update
; Function compile flags: /Ogsp
; File d:\lost saga for developer\youtube\tutorial\source\src\lsclient\gui\heromainwnd.cpp
;	COMDAT ?OnProcess@HeroMatchRankBtn@@MAEXM@Z
_TEXT	SEGMENT
_fTimePerSec$ = 8					; size = 4
?OnProcess@HeroMatchRankBtn@@MAEXM@Z PROC		; HeroMatchRankBtn::OnProcess, COMDAT
; _this$ = ecx

; 449  : {

  00000	55		 push	 ebp
  00001	8b ec		 mov	 ebp, esp
  00003	56		 push	 esi
  00004	8b f1		 mov	 esi, ecx

; 450  : 	if( !IsShow() )

  00006	ff 15 00 00 00
	00		 call	 DWORD PTR __imp_?IsShow@ioWnd@@QBE_NXZ
  0000c	84 c0		 test	 al, al
  0000e	74 1a		 je	 SHORT $LN1@OnProcess

; 451  : 		return;
; 452  : 
; 453  : 	if( m_aMyChar )

  00010	8b 8e 00 02 00
	00		 mov	 ecx, DWORD PTR [esi+512]
  00016	85 c9		 test	 ecx, ecx
  00018	74 10		 je	 SHORT $LN1@OnProcess

; 454  : 		m_aMyChar->Update( fTimePerSec );

  0001a	f3 0f 10 45 08	 movss	 xmm0, DWORD PTR _fTimePerSec$[ebp]
  0001f	51		 push	 ecx
  00020	f3 0f 11 04 24	 movss	 DWORD PTR [esp], xmm0
  00025	e8 00 00 00 00	 call	 ?Update@ioCreateChar@@QAEXM@Z ; ioCreateChar::Update
$LN1@OnProcess:
  0002a	5e		 pop	 esi

; 455  : }

  0002b	5d		 pop	 ebp
  0002c	c2 04 00	 ret	 4
?OnProcess@HeroMatchRankBtn@@MAEXM@Z ENDP		; HeroMatchRankBtn::OnProcess
_TEXT	ENDS
PUBLIC	__$ArrayPad$
PUBLIC	?OnRenderSoldier@HeroMatchRankBtn@@IAEXHH@Z	; HeroMatchRankBtn::OnRenderSoldier
EXTRN	?RenderViewPort@ioUI3DRender@@QAEXPBU_D3DRECT@@_N@Z:PROC ; ioUI3DRender::RenderViewPort
EXTRN	___security_cookie:DWORD
; Function compile flags: /Ogsp
;	COMDAT ?OnRenderSoldier@HeroMatchRankBtn@@IAEXHH@Z
_TEXT	SEGMENT
_rcD3D$ = -20						; size = 16
__$ArrayPad$ = -4					; size = 4
_iXPos$ = 8						; size = 4
_iYPos$ = 12						; size = 4
?OnRenderSoldier@HeroMatchRankBtn@@IAEXHH@Z PROC	; HeroMatchRankBtn::OnRenderSoldier, COMDAT
; _this$ = ecx

; 525  : {

  00000	55		 push	 ebp
  00001	8b ec		 mov	 ebp, esp
  00003	83 ec 14	 sub	 esp, 20			; 00000014H
  00006	a1 00 00 00 00	 mov	 eax, DWORD PTR ___security_cookie
  0000b	33 c5		 xor	 eax, ebp
  0000d	89 45 fc	 mov	 DWORD PTR __$ArrayPad$[ebp], eax
  00010	8b c1		 mov	 eax, ecx

; 526  : 	if( !m_pUI3DRender || !m_aMyChar ) return;

  00012	8b 88 fc 01 00
	00		 mov	 ecx, DWORD PTR [eax+508]
  00018	85 c9		 test	 ecx, ecx
  0001a	74 2f		 je	 SHORT $LN1@OnRenderSo
  0001c	83 b8 00 02 00
	00 00		 cmp	 DWORD PTR [eax+512], 0
  00023	74 26		 je	 SHORT $LN1@OnRenderSo

; 527  : 
; 528  : 	D3DRECT rcD3D;
; 529  : 	rcD3D.x1 = iXPos;

  00025	8b 45 08	 mov	 eax, DWORD PTR _iXPos$[ebp]

; 530  : 	rcD3D.y1 = iYPos;

  00028	8b 55 0c	 mov	 edx, DWORD PTR _iYPos$[ebp]
  0002b	89 45 ec	 mov	 DWORD PTR _rcD3D$[ebp], eax

; 531  : 	rcD3D.x2 = rcD3D.x1 + VIEW_WIDTH;

  0002e	83 c0 79	 add	 eax, 121		; 00000079H
  00031	89 45 f4	 mov	 DWORD PTR _rcD3D$[ebp+8], eax
  00034	89 55 f0	 mov	 DWORD PTR _rcD3D$[ebp+4], edx

; 532  : 	rcD3D.y2 = rcD3D.y1 + VIEW_HEIGHT;
; 533  : 	m_pUI3DRender->RenderViewPort( &rcD3D, true );

  00037	6a 01		 push	 1
  00039	8d 45 ec	 lea	 eax, DWORD PTR _rcD3D$[ebp]
  0003c	81 c2 b1 00 00
	00		 add	 edx, 177		; 000000b1H
  00042	50		 push	 eax
  00043	89 55 f8	 mov	 DWORD PTR _rcD3D$[ebp+12], edx
  00046	e8 00 00 00 00	 call	 ?RenderViewPort@ioUI3DRender@@QAEXPBU_D3DRECT@@_N@Z ; ioUI3DRender::RenderViewPort
$LN1@OnRenderSo:

; 534  : }

  0004b	8b 4d fc	 mov	 ecx, DWORD PTR __$ArrayPad$[ebp]
  0004e	33 cd		 xor	 ecx, ebp
  00050	e8 00 00 00 00	 call	 @__security_check_cookie@4
  00055	c9		 leave
  00056	c2 08 00	 ret	 8
?OnRenderSoldier@HeroMatchRankBtn@@IAEXHH@Z ENDP	; HeroMatchRankBtn::OnRenderSoldier
_TEXT	ENDS
PUBLIC	??_7HeroMatchWnd@@6B@				; HeroMatchWnd::`vftable'
PUBLIC	??0HeroMatchWnd@@QAE@XZ				; HeroMatchWnd::HeroMatchWnd
PUBLIC	??_R4HeroMatchWnd@@6B@				; HeroMatchWnd::`RTTI Complete Object Locator'
PUBLIC	??_R0?AVHeroMatchWnd@@@8			; HeroMatchWnd `RTTI Type Descriptor'
PUBLIC	??_R3HeroMatchWnd@@8				; HeroMatchWnd::`RTTI Class Hierarchy Descriptor'
PUBLIC	??_R2HeroMatchWnd@@8				; HeroMatchWnd::`RTTI Base Class Array'
PUBLIC	??_R1A@?0A@EA@HeroMatchWnd@@8			; HeroMatchWnd::`RTTI Base Class Descriptor at (0,-1,0,64)'
PUBLIC	?AddRenderFrame@HeroMatchWnd@@MAEXABVioHashString@@PAVioUIRenderFrame@@@Z ; HeroMatchWnd::AddRenderFrame
PUBLIC	?AddRenderImage@HeroMatchWnd@@MAEXABVioHashString@@PAVioUIRenderImage@@@Z ; HeroMatchWnd::AddRenderImage
PUBLIC	?OnRender@HeroMatchWnd@@MAEXXZ			; HeroMatchWnd::OnRender
PUBLIC	?OnProcess@HeroMatchWnd@@MAEXM@Z		; HeroMatchWnd::OnProcess
PUBLIC	?iwm_create@HeroMatchWnd@@UAEXXZ		; HeroMatchWnd::iwm_create
PUBLIC	?iwm_command@HeroMatchWnd@@UAEXPAVioWnd@@HK@Z	; HeroMatchWnd::iwm_command
PUBLIC	?iwm_show@HeroMatchWnd@@UAEXXZ			; HeroMatchWnd::iwm_show
PUBLIC	?iwm_hide@HeroMatchWnd@@UAEXXZ			; HeroMatchWnd::iwm_hide
EXTRN	??_EHeroMatchWnd@@UAEPAXI@Z:PROC		; HeroMatchWnd::`vector deleting destructor'
;	COMDAT ??_R1A@?0A@EA@HeroMatchWnd@@8
rdata$r	SEGMENT
??_R1A@?0A@EA@HeroMatchWnd@@8 DD FLAT:??_R0?AVHeroMatchWnd@@@8 ; HeroMatchWnd::`RTTI Base Class Descriptor at (0,-1,0,64)'
	DD	01H
	DD	00H
	DD	0ffffffffH
	DD	00H
	DD	040H
	DD	FLAT:??_R3HeroMatchWnd@@8
rdata$r	ENDS
;	COMDAT ??_R2HeroMatchWnd@@8
rdata$r	SEGMENT
??_R2HeroMatchWnd@@8 DD FLAT:??_R1A@?0A@EA@HeroMatchWnd@@8 ; HeroMatchWnd::`RTTI Base Class Array'
	DD	FLAT:??_R1A@?0A@EA@ioWnd@@8
rdata$r	ENDS
;	COMDAT ??_R3HeroMatchWnd@@8
rdata$r	SEGMENT
??_R3HeroMatchWnd@@8 DD 00H				; HeroMatchWnd::`RTTI Class Hierarchy Descriptor'
	DD	00H
	DD	02H
	DD	FLAT:??_R2HeroMatchWnd@@8
rdata$r	ENDS
;	COMDAT ??_R0?AVHeroMatchWnd@@@8
_DATA	SEGMENT
??_R0?AVHeroMatchWnd@@@8 DD FLAT:??_7type_info@@6B@	; HeroMatchWnd `RTTI Type Descriptor'
	DD	00H
	DB	'.?AVHeroMatchWnd@@', 00H
_DATA	ENDS
;	COMDAT ??_R4HeroMatchWnd@@6B@
rdata$r	SEGMENT
??_R4HeroMatchWnd@@6B@ DD 00H				; HeroMatchWnd::`RTTI Complete Object Locator'
	DD	00H
	DD	00H
	DD	FLAT:??_R0?AVHeroMatchWnd@@@8
	DD	FLAT:??_R3HeroMatchWnd@@8
rdata$r	ENDS
;	COMDAT ??_7HeroMatchWnd@@6B@
CONST	SEGMENT
??_7HeroMatchWnd@@6B@ DD FLAT:??_R4HeroMatchWnd@@6B@	; HeroMatchWnd::`vftable'
	DD	FLAT:?AddRenderFrame@HeroMatchWnd@@MAEXABVioHashString@@PAVioUIRenderFrame@@@Z
	DD	FLAT:?AddRenderImage@HeroMatchWnd@@MAEXABVioHashString@@PAVioUIRenderImage@@@Z
	DD	FLAT:?AddTooltipHelp@ioWnd@@UAEXABVioHashString@@00@Z
	DD	FLAT:?ParseExtraInfo@ioWnd@@UAEXAAVioXMLElement@@@Z
	DD	FLAT:?AddNamedRenderImage@ioWnd@@UAEXABVioHashString@@PAVioUIRenderImage@@@Z
	DD	FLAT:?RemoveNamedRenderImage@ioWnd@@UAEXABVioHashString@@@Z
	DD	FLAT:?GetNamedRenderImage@ioWnd@@UBEPAVioUIRenderImage@@ABVioHashString@@@Z
	DD	FLAT:?SetWindowAlpha@ioWnd@@UAEXH@Z
	DD	FLAT:?SetActive@ioWnd@@UAEXXZ
	DD	FLAT:?SetInActive@ioWnd@@UAEXXZ
	DD	FLAT:?ClearElementImageList@ioWnd@@UAEXXZ
	DD	FLAT:?SetSize@ioWnd@@UAEXHH@Z
	DD	FLAT:?SetPositionToDefault@ioWnd@@UAEXHH_N0@Z
	DD	FLAT:?IsNeedProcess@ioWnd@@UBE_NXZ
	DD	FLAT:?IsCanMouseReaction@ioWnd@@UBE_NXZ
	DD	FLAT:?AddChild@ioWnd@@UAEXPAV1@@Z
	DD	FLAT:?DeleteChild@ioWnd@@UAEXK@Z
	DD	FLAT:?DeleteAllChild@ioWnd@@UAEXXZ
	DD	FLAT:?OnRenderShowAndHide@ioWnd@@MAE_NXZ
	DD	FLAT:?OnRenderShowAndHideByDefault@ioWnd@@MAE_NK@Z
	DD	FLAT:?OnRenderShowAndHideByTop@ioWnd@@MAE_NK@Z
	DD	FLAT:?OnRenderShowAndHideByDown@ioWnd@@MAE_NK@Z
	DD	FLAT:?OnRender@HeroMatchWnd@@MAEXXZ
	DD	FLAT:?OnRenderAfterChild@ioWnd@@MAEXXZ
	DD	FLAT:?OnProcess@HeroMatchWnd@@MAEXM@Z
	DD	FLAT:?OnMouseProcess@ioWnd@@MAEXABVioMouse@@@Z
	DD	FLAT:?CheckFrameReSize@ioWnd@@MAEXHHHH@Z
	DD	FLAT:?RenderImageList@ioWnd@@MAEXHHW4UIRenderType@@@Z
	DD	FLAT:?iwm_create@HeroMatchWnd@@UAEXXZ
	DD	FLAT:?iwm_destroy@ioWnd@@UAEXXZ
	DD	FLAT:?iwm_lbuttondown@ioWnd@@UAEXABVioMouse@@@Z
	DD	FLAT:?iwm_lbuttonup@ioWnd@@UAEXABVioMouse@@@Z
	DD	FLAT:?iwm_lbuttonDBLCLK@ioWnd@@UAEXABVioMouse@@@Z
	DD	FLAT:?iwm_rbuttondown@ioWnd@@UAEXABVioMouse@@@Z
	DD	FLAT:?iwm_rbuttonup@ioWnd@@UAEXABVioMouse@@@Z
	DD	FLAT:?iwm_command@HeroMatchWnd@@UAEXPAVioWnd@@HK@Z
	DD	FLAT:?iwm_mouseover@ioWnd@@UAEXABVioMouse@@@Z
	DD	FLAT:?iwm_mousemove@ioWnd@@UAEXABVioMouse@@@Z
	DD	FLAT:?iwm_mouseleave@ioWnd@@UAEXABVioMouse@@@Z
	DD	FLAT:?iwm_vscroll@ioWnd@@UAEXKH@Z
	DD	FLAT:?iwm_wheel@ioWnd@@UAEXH@Z
	DD	FLAT:?iwm_show@HeroMatchWnd@@UAEXXZ
	DD	FLAT:?iwm_hide@HeroMatchWnd@@UAEXXZ
	DD	FLAT:?iwm_esc@ioWnd@@UAE_NXZ
	DD	FLAT:?iwm_spacebar@ioWnd@@UAE_NXZ
	DD	FLAT:?iwm_gototop@ioWnd@@UAEXXZ
	DD	FLAT:?iwm_dragenter@ioWnd@@UAE?AW4IWDropEffect@@PAVioDragItem@@ABVioMouse@@@Z
	DD	FLAT:?iwm_dragover@ioWnd@@UAE?AW4IWDropEffect@@PAVioDragItem@@ABVioMouse@@@Z
	DD	FLAT:?iwm_dragleave@ioWnd@@UAEXXZ
	DD	FLAT:?iwm_dropitem@ioWnd@@UAE_NPAVioDragItem@@ABVioMouse@@PAV1@@Z
	DD	FLAT:?iwm_dropdone@ioWnd@@UAEXPAVioDragItem@@PAV1@_N@Z
	DD	FLAT:?IsEXType@ioWnd@@UBE_NXZ
	DD	FLAT:?GetWndType@ioWnd@@UBEKXZ
	DD	FLAT:?RenderWnd@ioWnd@@UAEXXZ
	DD	FLAT:?SetIDEX@ioWnd@@UAEXAAK_N@Z
	DD	FLAT:?ParseXML@ioWnd@@UAEXAAVioXMLElement@@@Z
	DD	FLAT:?GetHeaderFileName@ioWnd@@UAEPBDXZ
	DD	FLAT:?GetTemplateName@ioWnd@@UAEPBDXZ
	DD	FLAT:?GetDefClassName@ioWnd@@UBEPBDXZ
	DD	FLAT:?_Clone@ioWnd@@UAEPAV1@XZ
	DD	FLAT:?Copy@ioWnd@@UAEXPAV1@@Z
	DD	FLAT:?Save@ioWnd@@UAE_NAAVioXMLElement@@@Z
	DD	FLAT:?SetSaveData@ioWnd@@UAEXAAVioXMLElement@@@Z
	DD	FLAT:?SetPosX@ioWnd@@UAEXH@Z
	DD	FLAT:?SetPosY@ioWnd@@UAEXH@Z
	DD	FLAT:?SetWidth@ioWnd@@UAEXH@Z
	DD	FLAT:?SetHeight@ioWnd@@UAEXH@Z
	DD	FLAT:?GetNumFixedRenderFrame@ioWnd@@UBEHXZ
	DD	FLAT:?GetFixedRenderFrameType@ioWnd@@UAEPBDH@Z
	DD	FLAT:?GetRenderFrame@ioWnd@@UAEPAPAVioUIRenderElement@@PBD@Z
	DD	FLAT:?GetNumFixedRenderImage@ioWnd@@UBEHXZ
	DD	FLAT:?GetFixedRenderImageType@ioWnd@@UAEPBDH@Z
	DD	FLAT:?GetRenderImage@ioWnd@@UAEPAPAVioUIRenderElement@@PBD@Z
	DD	FLAT:?AddEffect@ioWnd@@UAEXABVioHashString@@PAVioUI3DEffectRender@@@Z
	DD	FLAT:?GetEffect@ioWnd@@UAEPAVioUI3DEffectRender@@VioHashString@@@Z
	DD	FLAT:??_EHeroMatchWnd@@UAEPAXI@Z
; Function compile flags: /Ogsp
CONST	ENDS
;	COMDAT ??0HeroMatchWnd@@QAE@XZ
_TEXT	SEGMENT
??0HeroMatchWnd@@QAE@XZ PROC				; HeroMatchWnd::HeroMatchWnd, COMDAT
; _this$ = ecx

; 537  : {

  00000	56		 push	 esi
  00001	8b f1		 mov	 esi, ecx
  00003	ff 15 00 00 00
	00		 call	 DWORD PTR __imp_??0ioWnd@@QAE@XZ

; 538  : 	m_pBlueBar           = NULL;

  00009	33 c0		 xor	 eax, eax
  0000b	89 86 60 01 00
	00		 mov	 DWORD PTR [esi+352], eax

; 539  : 	m_pRedBar            = NULL;

  00011	89 86 64 01 00
	00		 mov	 DWORD PTR [esi+356], eax

; 540  : 	m_pGrayBar           = NULL;

  00017	89 86 68 01 00
	00		 mov	 DWORD PTR [esi+360], eax

; 541  : 	m_pBlueGra           = NULL;

  0001d	89 86 6c 01 00
	00		 mov	 DWORD PTR [esi+364], eax

; 542  : 	m_pRedGra            = NULL;

  00023	89 86 70 01 00
	00		 mov	 DWORD PTR [esi+368], eax

; 543  : 	m_pGrayGra           = NULL;

  00029	89 86 74 01 00
	00		 mov	 DWORD PTR [esi+372], eax

; 544  : 	m_pBlueOverGra       = NULL;

  0002f	89 86 78 01 00
	00		 mov	 DWORD PTR [esi+376], eax

; 545  : 	m_pRedOverGra        = NULL;

  00035	89 86 7c 01 00
	00		 mov	 DWORD PTR [esi+380], eax

; 546  : 	m_pGrayOverGra       = NULL;

  0003b	89 86 80 01 00
	00		 mov	 DWORD PTR [esi+384], eax

; 547  : 	m_pHeroRankTitle     = NULL;

  00041	89 86 84 01 00
	00		 mov	 DWORD PTR [esi+388], eax

; 548  : 	m_pSeasonHeroTitle	 = NULL;

  00047	89 86 88 01 00
	00		 mov	 DWORD PTR [esi+392], eax

; 549  : 	m_pSeasonRecordTitle = NULL;

  0004d	89 86 8c 01 00
	00		 mov	 DWORD PTR [esi+396], eax

; 550  : 	m_pIconBack		     = NULL;

  00053	89 86 90 01 00
	00		 mov	 DWORD PTR [esi+400], eax

; 551  : 	m_pRecordIcon	     = NULL;

  00059	89 86 94 01 00
	00		 mov	 DWORD PTR [esi+404], eax

; 552  : 	m_pNumber		     = NULL;

  0005f	89 86 98 01 00
	00		 mov	 DWORD PTR [esi+408], eax

; 553  : 	m_pRankText		     = NULL;

  00065	89 86 9c 01 00
	00		 mov	 DWORD PTR [esi+412], eax

; 554  : 	m_pPercentText	     = NULL;

  0006b	89 86 a0 01 00
	00		 mov	 DWORD PTR [esi+416], eax

; 555  : 	m_pNoneText          = NULL;

  00071	89 86 a4 01 00
	00		 mov	 DWORD PTR [esi+420], eax

; 556  : 	m_pNoneIcon          = NULL;

  00077	89 86 a8 01 00
	00		 mov	 DWORD PTR [esi+424], eax

; 557  : 
; 558  : 	m_pCurrentBar        = NULL;

  0007d	89 86 ac 01 00
	00		 mov	 DWORD PTR [esi+428], eax

; 559  : 	m_pCurrentGra        = NULL;

  00083	89 86 b0 01 00
	00		 mov	 DWORD PTR [esi+432], eax

; 560  : 	m_pCurrentOverGra    = NULL;

  00089	89 86 b4 01 00
	00		 mov	 DWORD PTR [esi+436], eax

; 561  : 	m_iMyCampType        = CAMP_NONE;

  0008f	89 86 dc 01 00
	00		 mov	 DWORD PTR [esi+476], eax

; 562  : 
; 563  : 	m_pDarkBar           = NULL;

  00095	89 86 b8 01 00
	00		 mov	 DWORD PTR [esi+440], eax

; 564  : 	m_pLightBar          = NULL;

  0009b	89 86 bc 01 00
	00		 mov	 DWORD PTR [esi+444], eax

; 565  : 
; 566  : 	m_pBlueBarByPlaza    = NULL;

  000a1	89 86 c0 01 00
	00		 mov	 DWORD PTR [esi+448], eax

; 567  : 	m_pRedBarByPlaza     = NULL;

  000a7	89 86 c4 01 00
	00		 mov	 DWORD PTR [esi+452], eax

; 568  : 	m_pGrayBarByPlaza    = NULL;

  000ad	89 86 c8 01 00
	00		 mov	 DWORD PTR [esi+456], eax

; 569  : 
; 570  : 	m_pBlueGraByPlaza    = NULL;

  000b3	89 86 cc 01 00
	00		 mov	 DWORD PTR [esi+460], eax

; 571  : 	m_pRedGraByPlaza     = NULL;

  000b9	89 86 d0 01 00
	00		 mov	 DWORD PTR [esi+464], eax

; 572  : 	m_pGrayGraByPlaza    = NULL;

  000bf	89 86 d4 01 00
	00		 mov	 DWORD PTR [esi+468], eax

; 573  : 
; 574  : 	m_pTextLine			 = NULL;

  000c5	89 86 d8 01 00
	00		 mov	 DWORD PTR [esi+472], eax
  000cb	c7 06 00 00 00
	00		 mov	 DWORD PTR [esi], OFFSET ??_7HeroMatchWnd@@6B@

; 575  : }

  000d1	8b c6		 mov	 eax, esi
  000d3	5e		 pop	 esi
  000d4	c3		 ret	 0
??0HeroMatchWnd@@QAE@XZ ENDP				; HeroMatchWnd::HeroMatchWnd
_TEXT	ENDS
PUBLIC	??1HeroMatchWnd@@UAE@XZ				; HeroMatchWnd::~HeroMatchWnd
;	COMDAT xdata$x
xdata$x	SEGMENT
__unwindtable$??1HeroMatchWnd@@UAE@XZ DD 0ffffffffH
	DD	FLAT:__unwindfunclet$??1HeroMatchWnd@@UAE@XZ$0
__ehfuncinfo$??1HeroMatchWnd@@UAE@XZ DD 019930522H
	DD	01H
	DD	FLAT:__unwindtable$??1HeroMatchWnd@@UAE@XZ
	DD	2 DUP(00H)
	DD	2 DUP(00H)
	DD	00H
	DD	01H
; Function compile flags: /Ogsp
xdata$x	ENDS
;	COMDAT ??1HeroMatchWnd@@UAE@XZ
_TEXT	SEGMENT
_this$ = -16						; size = 4
__$EHRec$ = -12						; size = 12
??1HeroMatchWnd@@UAE@XZ PROC				; HeroMatchWnd::~HeroMatchWnd, COMDAT
; _this$ = ecx

; 578  : {

  00000	6a 04		 push	 4
  00002	b8 00 00 00 00	 mov	 eax, __ehhandler$??1HeroMatchWnd@@UAE@XZ
  00007	e8 00 00 00 00	 call	 __EH_prolog3
  0000c	8b f1		 mov	 esi, ecx
  0000e	89 75 f0	 mov	 DWORD PTR _this$[ebp], esi
  00011	c7 06 00 00 00
	00		 mov	 DWORD PTR [esi], OFFSET ??_7HeroMatchWnd@@6B@

; 579  : 	SAFEDELETE( m_pBlueBar );

  00017	8b 8e 60 01 00
	00		 mov	 ecx, DWORD PTR [esi+352]
  0001d	33 ff		 xor	 edi, edi
  0001f	89 7d fc	 mov	 DWORD PTR __$EHRec$[ebp+8], edi
  00022	3b cf		 cmp	 ecx, edi
  00024	74 0d		 je	 SHORT $LN28@HeroMatchW
  00026	8b 01		 mov	 eax, DWORD PTR [ecx]
  00028	6a 01		 push	 1
  0002a	ff 50 40	 call	 DWORD PTR [eax+64]
  0002d	89 be 60 01 00
	00		 mov	 DWORD PTR [esi+352], edi
$LN28@HeroMatchW:

; 580  : 	SAFEDELETE( m_pRedBar );

  00033	8b 8e 64 01 00
	00		 mov	 ecx, DWORD PTR [esi+356]
  00039	3b cf		 cmp	 ecx, edi
  0003b	74 0d		 je	 SHORT $LN27@HeroMatchW
  0003d	8b 01		 mov	 eax, DWORD PTR [ecx]
  0003f	6a 01		 push	 1
  00041	ff 50 40	 call	 DWORD PTR [eax+64]
  00044	89 be 64 01 00
	00		 mov	 DWORD PTR [esi+356], edi
$LN27@HeroMatchW:

; 581  : 	SAFEDELETE( m_pGrayBar );

  0004a	8b 8e 68 01 00
	00		 mov	 ecx, DWORD PTR [esi+360]
  00050	3b cf		 cmp	 ecx, edi
  00052	74 0d		 je	 SHORT $LN26@HeroMatchW
  00054	8b 01		 mov	 eax, DWORD PTR [ecx]
  00056	6a 01		 push	 1
  00058	ff 50 40	 call	 DWORD PTR [eax+64]
  0005b	89 be 68 01 00
	00		 mov	 DWORD PTR [esi+360], edi
$LN26@HeroMatchW:

; 582  : 	SAFEDELETE( m_pBlueGra );

  00061	8b 8e 6c 01 00
	00		 mov	 ecx, DWORD PTR [esi+364]
  00067	3b cf		 cmp	 ecx, edi
  00069	74 0d		 je	 SHORT $LN25@HeroMatchW
  0006b	8b 01		 mov	 eax, DWORD PTR [ecx]
  0006d	6a 01		 push	 1
  0006f	ff 50 40	 call	 DWORD PTR [eax+64]
  00072	89 be 6c 01 00
	00		 mov	 DWORD PTR [esi+364], edi
$LN25@HeroMatchW:

; 583  : 	SAFEDELETE( m_pRedGra );

  00078	8b 8e 70 01 00
	00		 mov	 ecx, DWORD PTR [esi+368]
  0007e	3b cf		 cmp	 ecx, edi
  00080	74 0d		 je	 SHORT $LN24@HeroMatchW
  00082	8b 01		 mov	 eax, DWORD PTR [ecx]
  00084	6a 01		 push	 1
  00086	ff 50 40	 call	 DWORD PTR [eax+64]
  00089	89 be 70 01 00
	00		 mov	 DWORD PTR [esi+368], edi
$LN24@HeroMatchW:

; 584  : 	SAFEDELETE( m_pGrayGra );

  0008f	8b 8e 74 01 00
	00		 mov	 ecx, DWORD PTR [esi+372]
  00095	3b cf		 cmp	 ecx, edi
  00097	74 0d		 je	 SHORT $LN23@HeroMatchW
  00099	8b 01		 mov	 eax, DWORD PTR [ecx]
  0009b	6a 01		 push	 1
  0009d	ff 50 40	 call	 DWORD PTR [eax+64]
  000a0	89 be 74 01 00
	00		 mov	 DWORD PTR [esi+372], edi
$LN23@HeroMatchW:

; 585  : 	SAFEDELETE( m_pBlueOverGra );

  000a6	8b 8e 78 01 00
	00		 mov	 ecx, DWORD PTR [esi+376]
  000ac	3b cf		 cmp	 ecx, edi
  000ae	74 0d		 je	 SHORT $LN22@HeroMatchW
  000b0	8b 01		 mov	 eax, DWORD PTR [ecx]
  000b2	6a 01		 push	 1
  000b4	ff 50 40	 call	 DWORD PTR [eax+64]
  000b7	89 be 78 01 00
	00		 mov	 DWORD PTR [esi+376], edi
$LN22@HeroMatchW:

; 586  : 	SAFEDELETE( m_pRedOverGra );

  000bd	8b 8e 7c 01 00
	00		 mov	 ecx, DWORD PTR [esi+380]
  000c3	3b cf		 cmp	 ecx, edi
  000c5	74 0d		 je	 SHORT $LN21@HeroMatchW
  000c7	8b 01		 mov	 eax, DWORD PTR [ecx]
  000c9	6a 01		 push	 1
  000cb	ff 50 40	 call	 DWORD PTR [eax+64]
  000ce	89 be 7c 01 00
	00		 mov	 DWORD PTR [esi+380], edi
$LN21@HeroMatchW:

; 587  : 	SAFEDELETE( m_pGrayOverGra );

  000d4	8b 8e 80 01 00
	00		 mov	 ecx, DWORD PTR [esi+384]
  000da	3b cf		 cmp	 ecx, edi
  000dc	74 0d		 je	 SHORT $LN20@HeroMatchW
  000de	8b 01		 mov	 eax, DWORD PTR [ecx]
  000e0	6a 01		 push	 1
  000e2	ff 50 40	 call	 DWORD PTR [eax+64]
  000e5	89 be 80 01 00
	00		 mov	 DWORD PTR [esi+384], edi
$LN20@HeroMatchW:

; 588  : 	SAFEDELETE( m_pHeroRankTitle );

  000eb	8b 8e 84 01 00
	00		 mov	 ecx, DWORD PTR [esi+388]
  000f1	3b cf		 cmp	 ecx, edi
  000f3	74 0d		 je	 SHORT $LN19@HeroMatchW
  000f5	8b 01		 mov	 eax, DWORD PTR [ecx]
  000f7	6a 01		 push	 1
  000f9	ff 50 40	 call	 DWORD PTR [eax+64]
  000fc	89 be 84 01 00
	00		 mov	 DWORD PTR [esi+388], edi
$LN19@HeroMatchW:

; 589  : 	SAFEDELETE( m_pSeasonHeroTitle );

  00102	8b 8e 88 01 00
	00		 mov	 ecx, DWORD PTR [esi+392]
  00108	3b cf		 cmp	 ecx, edi
  0010a	74 0d		 je	 SHORT $LN18@HeroMatchW
  0010c	8b 01		 mov	 eax, DWORD PTR [ecx]
  0010e	6a 01		 push	 1
  00110	ff 50 40	 call	 DWORD PTR [eax+64]
  00113	89 be 88 01 00
	00		 mov	 DWORD PTR [esi+392], edi
$LN18@HeroMatchW:

; 590  : 	SAFEDELETE( m_pSeasonRecordTitle );

  00119	8b 8e 8c 01 00
	00		 mov	 ecx, DWORD PTR [esi+396]
  0011f	3b cf		 cmp	 ecx, edi
  00121	74 0d		 je	 SHORT $LN17@HeroMatchW
  00123	8b 01		 mov	 eax, DWORD PTR [ecx]
  00125	6a 01		 push	 1
  00127	ff 50 40	 call	 DWORD PTR [eax+64]
  0012a	89 be 8c 01 00
	00		 mov	 DWORD PTR [esi+396], edi
$LN17@HeroMatchW:

; 591  : 	SAFEDELETE( m_pIconBack );

  00130	8b 8e 90 01 00
	00		 mov	 ecx, DWORD PTR [esi+400]
  00136	3b cf		 cmp	 ecx, edi
  00138	74 0d		 je	 SHORT $LN16@HeroMatchW
  0013a	8b 01		 mov	 eax, DWORD PTR [ecx]
  0013c	6a 01		 push	 1
  0013e	ff 50 40	 call	 DWORD PTR [eax+64]
  00141	89 be 90 01 00
	00		 mov	 DWORD PTR [esi+400], edi
$LN16@HeroMatchW:

; 592  : 	SAFEDELETE( m_pRecordIcon );

  00147	8b 8e 94 01 00
	00		 mov	 ecx, DWORD PTR [esi+404]
  0014d	3b cf		 cmp	 ecx, edi
  0014f	74 0d		 je	 SHORT $LN15@HeroMatchW
  00151	8b 01		 mov	 eax, DWORD PTR [ecx]
  00153	6a 01		 push	 1
  00155	ff 50 40	 call	 DWORD PTR [eax+64]
  00158	89 be 94 01 00
	00		 mov	 DWORD PTR [esi+404], edi
$LN15@HeroMatchW:

; 593  : 	SAFEDELETE( m_pNumber );

  0015e	8b 8e 98 01 00
	00		 mov	 ecx, DWORD PTR [esi+408]
  00164	3b cf		 cmp	 ecx, edi
  00166	74 0d		 je	 SHORT $LN14@HeroMatchW
  00168	8b 01		 mov	 eax, DWORD PTR [ecx]
  0016a	6a 01		 push	 1
  0016c	ff 50 40	 call	 DWORD PTR [eax+64]
  0016f	89 be 98 01 00
	00		 mov	 DWORD PTR [esi+408], edi
$LN14@HeroMatchW:

; 594  : 	SAFEDELETE( m_pRankText );

  00175	8b 8e 9c 01 00
	00		 mov	 ecx, DWORD PTR [esi+412]
  0017b	3b cf		 cmp	 ecx, edi
  0017d	74 0d		 je	 SHORT $LN13@HeroMatchW
  0017f	8b 01		 mov	 eax, DWORD PTR [ecx]
  00181	6a 01		 push	 1
  00183	ff 50 40	 call	 DWORD PTR [eax+64]
  00186	89 be 9c 01 00
	00		 mov	 DWORD PTR [esi+412], edi
$LN13@HeroMatchW:

; 595  : 	SAFEDELETE( m_pPercentText );

  0018c	8b 8e a0 01 00
	00		 mov	 ecx, DWORD PTR [esi+416]
  00192	3b cf		 cmp	 ecx, edi
  00194	74 0d		 je	 SHORT $LN12@HeroMatchW
  00196	8b 01		 mov	 eax, DWORD PTR [ecx]
  00198	6a 01		 push	 1
  0019a	ff 50 40	 call	 DWORD PTR [eax+64]
  0019d	89 be a0 01 00
	00		 mov	 DWORD PTR [esi+416], edi
$LN12@HeroMatchW:

; 596  : 	SAFEDELETE( m_pNoneText );

  001a3	8b 8e a4 01 00
	00		 mov	 ecx, DWORD PTR [esi+420]
  001a9	3b cf		 cmp	 ecx, edi
  001ab	74 0d		 je	 SHORT $LN11@HeroMatchW
  001ad	8b 01		 mov	 eax, DWORD PTR [ecx]
  001af	6a 01		 push	 1
  001b1	ff 50 40	 call	 DWORD PTR [eax+64]
  001b4	89 be a4 01 00
	00		 mov	 DWORD PTR [esi+420], edi
$LN11@HeroMatchW:

; 597  : 	SAFEDELETE( m_pNoneIcon );

  001ba	8b 8e a8 01 00
	00		 mov	 ecx, DWORD PTR [esi+424]
  001c0	3b cf		 cmp	 ecx, edi
  001c2	74 0d		 je	 SHORT $LN10@HeroMatchW
  001c4	8b 01		 mov	 eax, DWORD PTR [ecx]
  001c6	6a 01		 push	 1
  001c8	ff 50 40	 call	 DWORD PTR [eax+64]
  001cb	89 be a8 01 00
	00		 mov	 DWORD PTR [esi+424], edi
$LN10@HeroMatchW:

; 598  : 	SAFEDELETE( m_pDarkBar );

  001d1	8b 8e b8 01 00
	00		 mov	 ecx, DWORD PTR [esi+440]
  001d7	3b cf		 cmp	 ecx, edi
  001d9	74 0d		 je	 SHORT $LN9@HeroMatchW
  001db	8b 01		 mov	 eax, DWORD PTR [ecx]
  001dd	6a 01		 push	 1
  001df	ff 50 40	 call	 DWORD PTR [eax+64]
  001e2	89 be b8 01 00
	00		 mov	 DWORD PTR [esi+440], edi
$LN9@HeroMatchW:

; 599  : 	SAFEDELETE( m_pLightBar );

  001e8	8b 8e bc 01 00
	00		 mov	 ecx, DWORD PTR [esi+444]
  001ee	3b cf		 cmp	 ecx, edi
  001f0	74 0d		 je	 SHORT $LN8@HeroMatchW
  001f2	8b 01		 mov	 eax, DWORD PTR [ecx]
  001f4	6a 01		 push	 1
  001f6	ff 50 40	 call	 DWORD PTR [eax+64]
  001f9	89 be bc 01 00
	00		 mov	 DWORD PTR [esi+444], edi
$LN8@HeroMatchW:

; 600  : 
; 601  : 	SAFEDELETE( m_pBlueBarByPlaza );

  001ff	8b 8e c0 01 00
	00		 mov	 ecx, DWORD PTR [esi+448]
  00205	3b cf		 cmp	 ecx, edi
  00207	74 0d		 je	 SHORT $LN7@HeroMatchW
  00209	8b 01		 mov	 eax, DWORD PTR [ecx]
  0020b	6a 01		 push	 1
  0020d	ff 50 40	 call	 DWORD PTR [eax+64]
  00210	89 be c0 01 00
	00		 mov	 DWORD PTR [esi+448], edi
$LN7@HeroMatchW:

; 602  : 	SAFEDELETE( m_pRedBarByPlaza );

  00216	8b 8e c4 01 00
	00		 mov	 ecx, DWORD PTR [esi+452]
  0021c	3b cf		 cmp	 ecx, edi
  0021e	74 0d		 je	 SHORT $LN6@HeroMatchW
  00220	8b 01		 mov	 eax, DWORD PTR [ecx]
  00222	6a 01		 push	 1
  00224	ff 50 40	 call	 DWORD PTR [eax+64]
  00227	89 be c4 01 00
	00		 mov	 DWORD PTR [esi+452], edi
$LN6@HeroMatchW:

; 603  : 	SAFEDELETE( m_pGrayBarByPlaza );

  0022d	8b 8e c8 01 00
	00		 mov	 ecx, DWORD PTR [esi+456]
  00233	3b cf		 cmp	 ecx, edi
  00235	74 0d		 je	 SHORT $LN5@HeroMatchW
  00237	8b 01		 mov	 eax, DWORD PTR [ecx]
  00239	6a 01		 push	 1
  0023b	ff 50 40	 call	 DWORD PTR [eax+64]
  0023e	89 be c8 01 00
	00		 mov	 DWORD PTR [esi+456], edi
$LN5@HeroMatchW:

; 604  : 	SAFEDELETE( m_pBlueGraByPlaza );

  00244	8b 8e cc 01 00
	00		 mov	 ecx, DWORD PTR [esi+460]
  0024a	3b cf		 cmp	 ecx, edi
  0024c	74 0d		 je	 SHORT $LN4@HeroMatchW
  0024e	8b 01		 mov	 eax, DWORD PTR [ecx]
  00250	6a 01		 push	 1
  00252	ff 50 40	 call	 DWORD PTR [eax+64]
  00255	89 be cc 01 00
	00		 mov	 DWORD PTR [esi+460], edi
$LN4@HeroMatchW:

; 605  : 	SAFEDELETE( m_pRedGraByPlaza );

  0025b	8b 8e d0 01 00
	00		 mov	 ecx, DWORD PTR [esi+464]
  00261	3b cf		 cmp	 ecx, edi
  00263	74 0d		 je	 SHORT $LN3@HeroMatchW
  00265	8b 01		 mov	 eax, DWORD PTR [ecx]
  00267	6a 01		 push	 1
  00269	ff 50 40	 call	 DWORD PTR [eax+64]
  0026c	89 be d0 01 00
	00		 mov	 DWORD PTR [esi+464], edi
$LN3@HeroMatchW:

; 606  : 	SAFEDELETE( m_pGrayGraByPlaza );

  00272	8b 8e d4 01 00
	00		 mov	 ecx, DWORD PTR [esi+468]
  00278	3b cf		 cmp	 ecx, edi
  0027a	74 0d		 je	 SHORT $LN2@HeroMatchW
  0027c	8b 01		 mov	 eax, DWORD PTR [ecx]
  0027e	6a 01		 push	 1
  00280	ff 50 40	 call	 DWORD PTR [eax+64]
  00283	89 be d4 01 00
	00		 mov	 DWORD PTR [esi+468], edi
$LN2@HeroMatchW:

; 607  : 
; 608  : 	SAFEDELETE( m_pTextLine );

  00289	8b 8e d8 01 00
	00		 mov	 ecx, DWORD PTR [esi+472]
  0028f	3b cf		 cmp	 ecx, edi
  00291	74 0d		 je	 SHORT $LN1@HeroMatchW
  00293	8b 01		 mov	 eax, DWORD PTR [ecx]
  00295	6a 01		 push	 1
  00297	ff 50 40	 call	 DWORD PTR [eax+64]
  0029a	89 be d8 01 00
	00		 mov	 DWORD PTR [esi+472], edi
$LN1@HeroMatchW:

; 609  : }

  002a0	83 4d fc ff	 or	 DWORD PTR __$EHRec$[ebp+8], -1
  002a4	8b ce		 mov	 ecx, esi
  002a6	ff 15 00 00 00
	00		 call	 DWORD PTR __imp_??1ioWnd@@UAE@XZ
  002ac	e8 00 00 00 00	 call	 __EH_epilog3
  002b1	c3		 ret	 0
_TEXT	ENDS
;	COMDAT text$x
text$x	SEGMENT
__unwindfunclet$??1HeroMatchWnd@@UAE@XZ$0:
  00000	8b 4d f0	 mov	 ecx, DWORD PTR _this$[ebp]
  00003	ff 25 00 00 00
	00		 jmp	 DWORD PTR __imp_??1ioWnd@@UAE@XZ
__ehhandler$??1HeroMatchWnd@@UAE@XZ:
  00009	8b 54 24 08	 mov	 edx, DWORD PTR [esp+8]
  0000d	8d 42 0c	 lea	 eax, DWORD PTR [edx+12]
  00010	8b 4a ec	 mov	 ecx, DWORD PTR [edx-20]
  00013	33 c8		 xor	 ecx, eax
  00015	e8 00 00 00 00	 call	 @__security_check_cookie@4
  0001a	b8 00 00 00 00	 mov	 eax, OFFSET __ehfuncinfo$??1HeroMatchWnd@@UAE@XZ
  0001f	e9 00 00 00 00	 jmp	 ___CxxFrameHandler3
text$x	ENDS
??1HeroMatchWnd@@UAE@XZ ENDP				; HeroMatchWnd::~HeroMatchWnd
; Function compile flags: /Ogsp
;	COMDAT ?iwm_create@HeroMatchWnd@@UAEXXZ
_TEXT	SEGMENT
?iwm_create@HeroMatchWnd@@UAEXXZ PROC			; HeroMatchWnd::iwm_create, COMDAT
; _this$ = ecx

; 613  : }

  00000	c3		 ret	 0
?iwm_create@HeroMatchWnd@@UAEXXZ ENDP			; HeroMatchWnd::iwm_create
; Function compile flags: /Ogsp
_TEXT	ENDS
;	COMDAT ?iwm_hide@HeroMatchWnd@@UAEXXZ
_TEXT	SEGMENT
?iwm_hide@HeroMatchWnd@@UAEXXZ PROC			; HeroMatchWnd::iwm_hide, COMDAT
; _this$ = ecx

; 877  : }

  00000	c3		 ret	 0
?iwm_hide@HeroMatchWnd@@UAEXXZ ENDP			; HeroMatchWnd::iwm_hide
_TEXT	ENDS
PUBLIC	__real@4f800000
PUBLIC	?OnRenderHeroTitle@HeroMatchWnd@@IAEXHH@Z	; HeroMatchWnd::OnRenderHeroTitle
EXTRN	?RenderHeroTitleText@ioMyLevelMgr@@QAEXKHH@Z:PROC ; ioMyLevelMgr::RenderHeroTitleText
EXTRN	?RenderHeroTitleIcon@ioMyLevelMgr@@QAEXKHHM@Z:PROC ; ioMyLevelMgr::RenderHeroTitleIcon
EXTRN	?GetSingleton@ioMyLevelMgr@@SAAAV1@XZ:PROC	; ioMyLevelMgr::GetSingleton
EXTRN	?GetHeroTitle@ioMyInfo@@QAEHXZ:PROC		; ioMyInfo::GetHeroTitle
EXTRN	?GetSingleton@ioMyInfo@@SAAAV1@XZ:PROC		; ioMyInfo::GetSingleton
;	COMDAT __real@4f800000
; File d:\lost saga for developer\youtube\tutorial\source\src\lsclient\stdafx.h
CONST	SEGMENT
__real@4f800000 DD 04f800000r			; 4.29497e+009
; Function compile flags: /Ogsp
; File d:\lost saga for developer\youtube\tutorial\source\src\lsclient\gui\heromainwnd.cpp
CONST	ENDS
;	COMDAT ?OnRenderHeroTitle@HeroMatchWnd@@IAEXHH@Z
_TEXT	SEGMENT
_this$ = -4						; size = 4
_iXPos$ = 8						; size = 4
tv257 = 12						; size = 4
_iYPos$ = 12						; size = 4
?OnRenderHeroTitle@HeroMatchWnd@@IAEXHH@Z PROC		; HeroMatchWnd::OnRenderHeroTitle, COMDAT
; _this$ = ecx

; 999  : {

  00000	55		 push	 ebp
  00001	8b ec		 mov	 ebp, esp
  00003	51		 push	 ecx
  00004	53		 push	 ebx

; 1000 : 	if( m_pCurrentBar )

  00005	8b 5d 08	 mov	 ebx, DWORD PTR _iXPos$[ebp]
  00008	56		 push	 esi
  00009	33 f6		 xor	 esi, esi
  0000b	57		 push	 edi
  0000c	8b 7d 0c	 mov	 edi, DWORD PTR _iYPos$[ebp]
  0000f	89 4d fc	 mov	 DWORD PTR _this$[ebp], ecx
  00012	39 b1 ac 01 00
	00		 cmp	 DWORD PTR [ecx+428], esi
  00018	74 2e		 je	 SHORT $LN4@OnRenderHe

; 1001 : 		m_pCurrentBar->Render( iXPos, iYPos );

  0001a	8b 81 ac 01 00
	00		 mov	 eax, DWORD PTR [ecx+428]
  00020	8b 10		 mov	 edx, DWORD PTR [eax]
  00022	56		 push	 esi
  00023	56		 push	 esi
  00024	56		 push	 esi
  00025	56		 push	 esi
  00026	51		 push	 ecx
  00027	0f 57 c0	 xorps	 xmm0, xmm0
  0002a	51		 push	 ecx
  0002b	f3 0f 2a c7	 cvtsi2ss xmm0, edi
  0002f	f3 0f 11 44 24
	04		 movss	 DWORD PTR [esp+4], xmm0
  00035	0f 57 c0	 xorps	 xmm0, xmm0
  00038	f3 0f 2a c3	 cvtsi2ss xmm0, ebx
  0003c	8b c8		 mov	 ecx, eax
  0003e	f3 0f 11 04 24	 movss	 DWORD PTR [esp], xmm0
  00043	ff 12		 call	 DWORD PTR [edx]
  00045	8b 4d fc	 mov	 ecx, DWORD PTR _this$[ebp]
$LN4@OnRenderHe:

; 1002 : 	if( m_pCurrentGra )

  00048	39 b1 b0 01 00
	00		 cmp	 DWORD PTR [ecx+432], esi
  0004e	74 2c		 je	 SHORT $LN3@OnRenderHe

; 1003 : 		m_pCurrentGra->Render( iXPos, iYPos );

  00050	8b 89 b0 01 00
	00		 mov	 ecx, DWORD PTR [ecx+432]
  00056	8b 01		 mov	 eax, DWORD PTR [ecx]
  00058	56		 push	 esi
  00059	56		 push	 esi
  0005a	56		 push	 esi
  0005b	56		 push	 esi
  0005c	0f 57 c0	 xorps	 xmm0, xmm0
  0005f	51		 push	 ecx
  00060	f3 0f 2a c7	 cvtsi2ss xmm0, edi
  00064	51		 push	 ecx
  00065	f3 0f 11 44 24
	04		 movss	 DWORD PTR [esp+4], xmm0
  0006b	0f 57 c0	 xorps	 xmm0, xmm0
  0006e	f3 0f 2a c3	 cvtsi2ss xmm0, ebx
  00072	f3 0f 11 04 24	 movss	 DWORD PTR [esp], xmm0
  00077	ff 10		 call	 DWORD PTR [eax]
  00079	8b 4d fc	 mov	 ecx, DWORD PTR _this$[ebp]
$LN3@OnRenderHe:

; 1004 : 
; 1005 : 	//
; 1006 : 	if( m_pSeasonHeroTitle )

  0007c	39 b1 88 01 00
	00		 cmp	 DWORD PTR [ecx+392], esi
  00082	74 32		 je	 SHORT $LN2@OnRenderHe

; 1007 : 		m_pSeasonHeroTitle->Render( iXPos + 63, iYPos + 113 );

  00084	8b 89 88 01 00
	00		 mov	 ecx, DWORD PTR [ecx+392]
  0008a	8b 01		 mov	 eax, DWORD PTR [ecx]
  0008c	56		 push	 esi
  0008d	56		 push	 esi
  0008e	56		 push	 esi
  0008f	56		 push	 esi
  00090	0f 57 c0	 xorps	 xmm0, xmm0
  00093	51		 push	 ecx
  00094	8d 57 71	 lea	 edx, DWORD PTR [edi+113]
  00097	f3 0f 2a c2	 cvtsi2ss xmm0, edx
  0009b	51		 push	 ecx
  0009c	f3 0f 11 44 24
	04		 movss	 DWORD PTR [esp+4], xmm0
  000a2	8d 53 3f	 lea	 edx, DWORD PTR [ebx+63]
  000a5	0f 57 c0	 xorps	 xmm0, xmm0
  000a8	f3 0f 2a c2	 cvtsi2ss xmm0, edx
  000ac	f3 0f 11 04 24	 movss	 DWORD PTR [esp], xmm0
  000b1	ff 10		 call	 DWORD PTR [eax]
  000b3	8b 4d fc	 mov	 ecx, DWORD PTR _this$[ebp]
$LN2@OnRenderHe:

; 1008 : 
; 1009 : 	if( m_pIconBack )

  000b6	39 b1 90 01 00
	00		 cmp	 DWORD PTR [ecx+400], esi
  000bc	74 30		 je	 SHORT $LN1@OnRenderHe

; 1010 : 		m_pIconBack->Render( iXPos + 63, iYPos + 61, UI_RENDER_MULTIPLY );

  000be	8b 89 90 01 00
	00		 mov	 ecx, DWORD PTR [ecx+400]
  000c4	8b 01		 mov	 eax, DWORD PTR [ecx]
  000c6	56		 push	 esi
  000c7	56		 push	 esi
  000c8	56		 push	 esi
  000c9	6a 08		 push	 8
  000cb	0f 57 c0	 xorps	 xmm0, xmm0
  000ce	51		 push	 ecx
  000cf	8d 57 3d	 lea	 edx, DWORD PTR [edi+61]
  000d2	f3 0f 2a c2	 cvtsi2ss xmm0, edx
  000d6	51		 push	 ecx
  000d7	f3 0f 11 44 24
	04		 movss	 DWORD PTR [esp+4], xmm0
  000dd	8d 53 3f	 lea	 edx, DWORD PTR [ebx+63]
  000e0	0f 57 c0	 xorps	 xmm0, xmm0
  000e3	f3 0f 2a c2	 cvtsi2ss xmm0, edx
  000e7	f3 0f 11 04 24	 movss	 DWORD PTR [esp], xmm0
  000ec	ff 10		 call	 DWORD PTR [eax]
$LN1@OnRenderHe:

; 1011 : 
; 1012 : 	g_LevelMgr.RenderHeroTitleIcon( g_MyInfo.GetHeroTitle(), iXPos + 63, iYPos + 61 );

  000ee	b8 01 00 00 00	 mov	 eax, 1
  000f3	89 45 0c	 mov	 DWORD PTR tv257[ebp], eax
  000f6	db 45 0c	 fild	 DWORD PTR tv257[ebp]
  000f9	8d 73 3f	 lea	 esi, DWORD PTR [ebx+63]
  000fc	85 c0		 test	 eax, eax
  000fe	79 06		 jns	 SHORT $LN9@OnRenderHe
  00100	d8 05 00 00 00
	00		 fadd	 DWORD PTR __real@4f800000
$LN9@OnRenderHe:
  00106	51		 push	 ecx
  00107	8d 47 3d	 lea	 eax, DWORD PTR [edi+61]
  0010a	d9 1c 24	 fstp	 DWORD PTR [esp]
  0010d	50		 push	 eax
  0010e	56		 push	 esi
  0010f	e8 00 00 00 00	 call	 ?GetSingleton@ioMyInfo@@SAAAV1@XZ ; ioMyInfo::GetSingleton
  00114	8b c8		 mov	 ecx, eax
  00116	e8 00 00 00 00	 call	 ?GetHeroTitle@ioMyInfo@@QAEHXZ ; ioMyInfo::GetHeroTitle
  0011b	50		 push	 eax
  0011c	e8 00 00 00 00	 call	 ?GetSingleton@ioMyLevelMgr@@SAAAV1@XZ ; ioMyLevelMgr::GetSingleton
  00121	8b c8		 mov	 ecx, eax
  00123	e8 00 00 00 00	 call	 ?RenderHeroTitleIcon@ioMyLevelMgr@@QAEXKHHM@Z ; ioMyLevelMgr::RenderHeroTitleIcon

; 1013 : 	g_LevelMgr.RenderHeroTitleText( g_MyInfo.GetHeroTitle(), iXPos + 63, iYPos + 132 );

  00128	81 c7 84 00 00
	00		 add	 edi, 132		; 00000084H
  0012e	57		 push	 edi
  0012f	56		 push	 esi
  00130	e8 00 00 00 00	 call	 ?GetSingleton@ioMyInfo@@SAAAV1@XZ ; ioMyInfo::GetSingleton
  00135	8b c8		 mov	 ecx, eax
  00137	e8 00 00 00 00	 call	 ?GetHeroTitle@ioMyInfo@@QAEHXZ ; ioMyInfo::GetHeroTitle
  0013c	50		 push	 eax
  0013d	e8 00 00 00 00	 call	 ?GetSingleton@ioMyLevelMgr@@SAAAV1@XZ ; ioMyLevelMgr::GetSingleton
  00142	8b c8		 mov	 ecx, eax
  00144	e8 00 00 00 00	 call	 ?RenderHeroTitleText@ioMyLevelMgr@@QAEXKHH@Z ; ioMyLevelMgr::RenderHeroTitleText
  00149	5f		 pop	 edi
  0014a	5e		 pop	 esi
  0014b	5b		 pop	 ebx

; 1014 : }

  0014c	c9		 leave
  0014d	c2 08 00	 ret	 8
?OnRenderHeroTitle@HeroMatchWnd@@IAEXHH@Z ENDP		; HeroMatchWnd::OnRenderHeroTitle
_TEXT	ENDS
PUBLIC	__real@c0a00000
PUBLIC	__real@3f800000
PUBLIC	?OnRenderSeasonRecord@HeroMatchWnd@@IAEXHH@Z	; HeroMatchWnd::OnRenderSeasonRecord
EXTRN	__imp_?RenderNum@ioUIRenderImage@@QAEXMMHMMW4UIRenderType@@W4TextureFilterOption@@0W4RenerNumerFormatting@1@@Z:PROC
EXTRN	__imp_?SetHorzFormatting@ioUIRenderImage@@QAEXW4HorzFormatting@1@@Z:PROC
EXTRN	__imp_?GetNumberCount@@YAHH@Z:PROC
EXTRN	?GetHeroSeasonWinLoseRate@ioMyInfo@@QAEMXZ:PROC	; ioMyInfo::GetHeroSeasonWinLoseRate
EXTRN	__ftol2_sse:PROC
;	COMDAT __real@c0a00000
; File d:\lost saga for developer\youtube\tutorial\source\src\lsclient\stdafx.h
CONST	SEGMENT
__real@c0a00000 DD 0c0a00000r			; -5
CONST	ENDS
;	COMDAT __real@3f800000
CONST	SEGMENT
__real@3f800000 DD 03f800000r			; 1
; Function compile flags: /Ogsp
; File d:\lost saga for developer\youtube\tutorial\source\src\lsclient\gui\heromainwnd.cpp
CONST	ENDS
;	COMDAT ?OnRenderSeasonRecord@HeroMatchWnd@@IAEXHH@Z
_TEXT	SEGMENT
tv377 = -8						; size = 4
_iRecordRate$ = -8					; size = 4
_iStartPos$ = -4					; size = 4
_iXPos$ = 8						; size = 4
tv397 = 12						; size = 4
_iYPos$ = 12						; size = 4
?OnRenderSeasonRecord@HeroMatchWnd@@IAEXHH@Z PROC	; HeroMatchWnd::OnRenderSeasonRecord, COMDAT
; _this$ = ecx

; 1017 : {

  00000	55		 push	 ebp
  00001	8b ec		 mov	 ebp, esp
  00003	51		 push	 ecx
  00004	51		 push	 ecx
  00005	53		 push	 ebx
  00006	56		 push	 esi
  00007	8b d9		 mov	 ebx, ecx

; 1018 : 	if( m_pCurrentBar )

  00009	33 f6		 xor	 esi, esi
  0000b	57		 push	 edi

; 1019 : 		m_pCurrentBar->Render( iXPos, iYPos );

  0000c	8b 7d 0c	 mov	 edi, DWORD PTR _iYPos$[ebp]
  0000f	39 b3 ac 01 00
	00		 cmp	 DWORD PTR [ebx+428], esi
  00015	74 2c		 je	 SHORT $LN6@OnRenderSe
  00017	8b 83 ac 01 00
	00		 mov	 eax, DWORD PTR [ebx+428]
  0001d	8b 10		 mov	 edx, DWORD PTR [eax]
  0001f	56		 push	 esi
  00020	56		 push	 esi
  00021	56		 push	 esi
  00022	56		 push	 esi
  00023	51		 push	 ecx
  00024	0f 57 c0	 xorps	 xmm0, xmm0
  00027	51		 push	 ecx
  00028	f3 0f 2a c7	 cvtsi2ss xmm0, edi
  0002c	f3 0f 11 44 24
	04		 movss	 DWORD PTR [esp+4], xmm0
  00032	66 0f 6e 45 08	 movd	 xmm0, DWORD PTR _iXPos$[ebp]
  00037	0f 5b c0	 cvtdq2ps xmm0, xmm0
  0003a	8b c8		 mov	 ecx, eax
  0003c	f3 0f 11 04 24	 movss	 DWORD PTR [esp], xmm0
  00041	ff 12		 call	 DWORD PTR [edx]
$LN6@OnRenderSe:

; 1020 : 	if( m_pCurrentGra )

  00043	39 b3 b0 01 00
	00		 cmp	 DWORD PTR [ebx+432], esi
  00049	74 2a		 je	 SHORT $LN5@OnRenderSe

; 1021 : 		m_pCurrentGra->Render( iXPos, iYPos );

  0004b	8b 8b b0 01 00
	00		 mov	 ecx, DWORD PTR [ebx+432]
  00051	8b 01		 mov	 eax, DWORD PTR [ecx]
  00053	56		 push	 esi
  00054	56		 push	 esi
  00055	56		 push	 esi
  00056	56		 push	 esi
  00057	0f 57 c0	 xorps	 xmm0, xmm0
  0005a	51		 push	 ecx
  0005b	f3 0f 2a c7	 cvtsi2ss xmm0, edi
  0005f	51		 push	 ecx
  00060	f3 0f 11 44 24
	04		 movss	 DWORD PTR [esp+4], xmm0
  00066	66 0f 6e 45 08	 movd	 xmm0, DWORD PTR _iXPos$[ebp]
  0006b	0f 5b c0	 cvtdq2ps xmm0, xmm0
  0006e	f3 0f 11 04 24	 movss	 DWORD PTR [esp], xmm0
  00073	ff 10		 call	 DWORD PTR [eax]
$LN5@OnRenderSe:

; 1022 : 
; 1023 : 	//
; 1024 : 	if( m_pSeasonRecordTitle )

  00075	39 b3 8c 01 00
	00		 cmp	 DWORD PTR [ebx+396], esi
  0007b	74 32		 je	 SHORT $LN4@OnRenderSe

; 1025 : 		m_pSeasonRecordTitle->Render( iXPos + 63, iYPos + 113 );

  0007d	8b 8b 8c 01 00
	00		 mov	 ecx, DWORD PTR [ebx+396]
  00083	8b 01		 mov	 eax, DWORD PTR [ecx]
  00085	56		 push	 esi
  00086	56		 push	 esi
  00087	56		 push	 esi
  00088	56		 push	 esi
  00089	0f 57 c0	 xorps	 xmm0, xmm0
  0008c	8d 57 71	 lea	 edx, DWORD PTR [edi+113]
  0008f	f3 0f 2a c2	 cvtsi2ss xmm0, edx
  00093	8b 55 08	 mov	 edx, DWORD PTR _iXPos$[ebp]
  00096	51		 push	 ecx
  00097	51		 push	 ecx
  00098	f3 0f 11 44 24
	04		 movss	 DWORD PTR [esp+4], xmm0
  0009e	83 c2 3f	 add	 edx, 63			; 0000003fH
  000a1	0f 57 c0	 xorps	 xmm0, xmm0
  000a4	f3 0f 2a c2	 cvtsi2ss xmm0, edx
  000a8	f3 0f 11 04 24	 movss	 DWORD PTR [esp], xmm0
  000ad	ff 10		 call	 DWORD PTR [eax]
$LN4@OnRenderSe:

; 1026 : 
; 1027 : 	if( m_pIconBack )

  000af	39 b3 90 01 00
	00		 cmp	 DWORD PTR [ebx+400], esi
  000b5	74 33		 je	 SHORT $LN3@OnRenderSe

; 1028 : 		m_pIconBack->Render( iXPos + 63, iYPos + 61, UI_RENDER_MULTIPLY );

  000b7	8b 8b 90 01 00
	00		 mov	 ecx, DWORD PTR [ebx+400]
  000bd	8b 01		 mov	 eax, DWORD PTR [ecx]
  000bf	56		 push	 esi
  000c0	56		 push	 esi
  000c1	56		 push	 esi
  000c2	6a 08		 push	 8
  000c4	0f 57 c0	 xorps	 xmm0, xmm0
  000c7	8d 57 3d	 lea	 edx, DWORD PTR [edi+61]
  000ca	f3 0f 2a c2	 cvtsi2ss xmm0, edx
  000ce	8b 55 08	 mov	 edx, DWORD PTR _iXPos$[ebp]
  000d1	51		 push	 ecx
  000d2	51		 push	 ecx
  000d3	f3 0f 11 44 24
	04		 movss	 DWORD PTR [esp+4], xmm0
  000d9	83 c2 3f	 add	 edx, 63			; 0000003fH
  000dc	0f 57 c0	 xorps	 xmm0, xmm0
  000df	f3 0f 2a c2	 cvtsi2ss xmm0, edx
  000e3	f3 0f 11 04 24	 movss	 DWORD PTR [esp], xmm0
  000e8	ff 10		 call	 DWORD PTR [eax]
$LN3@OnRenderSe:

; 1029 : 	if( m_pRecordIcon )

  000ea	39 b3 94 01 00
	00		 cmp	 DWORD PTR [ebx+404], esi
  000f0	74 32		 je	 SHORT $LN2@OnRenderSe

; 1030 : 		m_pRecordIcon->Render( iXPos + 63, iYPos + 61 );

  000f2	8b 8b 94 01 00
	00		 mov	 ecx, DWORD PTR [ebx+404]
  000f8	8b 55 08	 mov	 edx, DWORD PTR _iXPos$[ebp]
  000fb	8b 01		 mov	 eax, DWORD PTR [ecx]
  000fd	56		 push	 esi
  000fe	56		 push	 esi
  000ff	56		 push	 esi
  00100	56		 push	 esi
  00101	0f 57 c0	 xorps	 xmm0, xmm0
  00104	51		 push	 ecx
  00105	83 c7 3d	 add	 edi, 61			; 0000003dH
  00108	f3 0f 2a c7	 cvtsi2ss xmm0, edi
  0010c	51		 push	 ecx
  0010d	f3 0f 11 44 24
	04		 movss	 DWORD PTR [esp+4], xmm0
  00113	83 c2 3f	 add	 edx, 63			; 0000003fH
  00116	0f 57 c0	 xorps	 xmm0, xmm0
  00119	f3 0f 2a c2	 cvtsi2ss xmm0, edx
  0011d	f3 0f 11 04 24	 movss	 DWORD PTR [esp], xmm0
  00122	ff 10		 call	 DWORD PTR [eax]
$LN2@OnRenderSe:

; 1031 : 
; 1032 : 	int iRecordRate  = g_MyInfo.GetHeroSeasonWinLoseRate() * FLOAT100;

  00124	b8 64 00 00 00	 mov	 eax, 100		; 00000064H
  00129	8b f8		 mov	 edi, eax
  0012b	e8 00 00 00 00	 call	 ?GetSingleton@ioMyInfo@@SAAAV1@XZ ; ioMyInfo::GetSingleton
  00130	8b c8		 mov	 ecx, eax
  00132	e8 00 00 00 00	 call	 ?GetHeroSeasonWinLoseRate@ioMyInfo@@QAEMXZ ; ioMyInfo::GetHeroSeasonWinLoseRate
  00137	89 7d f8	 mov	 DWORD PTR tv377[ebp], edi
  0013a	db 45 f8	 fild	 DWORD PTR tv377[ebp]
  0013d	85 ff		 test	 edi, edi
  0013f	79 06		 jns	 SHORT $LN12@OnRenderSe
  00141	d8 05 00 00 00
	00		 fadd	 DWORD PTR __real@4f800000
$LN12@OnRenderSe:
  00147	de c9		 fmulp	 ST(1), ST(0)
  00149	e8 00 00 00 00	 call	 __ftol2_sse

; 1033 : 	int iNumberCount = GetNumberCount( iRecordRate );

  0014e	50		 push	 eax
  0014f	89 45 f8	 mov	 DWORD PTR _iRecordRate$[ebp], eax
  00152	ff 15 00 00 00
	00		 call	 DWORD PTR __imp_?GetNumberCount@@YAHH@Z
  00158	8b f8		 mov	 edi, eax

; 1034 : 	enum { NUM_W = 27, NUM_GAP = 5, TEXT_W = 31,};
; 1035 : 	int iNumberSize = (iNumberCount*NUM_W) - ((iNumberCount-1)*NUM_GAP);

  0015a	6b ff 16	 imul	 edi, 22			; 00000016H
  0015d	83 c7 05	 add	 edi, 5

; 1036 : 	int iStartPos   = (iNumberSize + TEXT_W) / 2;

  00160	8d 47 1f	 lea	 eax, DWORD PTR [edi+31]
  00163	99		 cdq
  00164	2b c2		 sub	 eax, edx
  00166	59		 pop	 ecx

; 1037 : 	if( m_pNumber && m_pPercentText )

  00167	8b 8b 98 01 00
	00		 mov	 ecx, DWORD PTR [ebx+408]
  0016d	d1 f8		 sar	 eax, 1
  0016f	89 45 fc	 mov	 DWORD PTR _iStartPos$[ebp], eax
  00172	3b ce		 cmp	 ecx, esi
  00174	0f 84 a5 00 00
	00		 je	 $LN1@OnRenderSe
  0017a	39 b3 a0 01 00
	00		 cmp	 DWORD PTR [ebx+416], esi
  00180	0f 84 99 00 00
	00		 je	 $LN1@OnRenderSe

; 1038 : 	{
; 1039 : 		m_pNumber->SetHorzFormatting( ioUIRenderImage::HF_LEFT_ALIGN );

  00186	56		 push	 esi
  00187	ff 15 00 00 00
	00		 call	 DWORD PTR __imp_?SetHorzFormatting@ioUIRenderImage@@QAEXW4HorzFormatting@1@@Z

; 1040 : 		m_pNumber->RenderNum( (iXPos + 63) - iStartPos, iYPos + 132, iRecordRate, -NUM_GAP );

  0018d	f3 0f 10 0d 00
	00 00 00	 movss	 xmm1, DWORD PTR __real@3f800000
  00195	8b 45 0c	 mov	 eax, DWORD PTR _iYPos$[ebp]
  00198	56		 push	 esi
  00199	56		 push	 esi
  0019a	56		 push	 esi
  0019b	56		 push	 esi
  0019c	51		 push	 ecx
  0019d	51		 push	 ecx
  0019e	f3 0f 11 4c 24
	04		 movss	 DWORD PTR [esp+4], xmm1
  001a4	f3 0f 10 0d 00
	00 00 00	 movss	 xmm1, DWORD PTR __real@c0a00000
  001ac	f3 0f 11 0c 24	 movss	 DWORD PTR [esp], xmm1
  001b1	ff 75 f8	 push	 DWORD PTR _iRecordRate$[ebp]
  001b4	05 84 00 00 00	 add	 eax, 132		; 00000084H
  001b9	0f 57 c0	 xorps	 xmm0, xmm0
  001bc	f3 0f 2a c0	 cvtsi2ss xmm0, eax
  001c0	8b 45 08	 mov	 eax, DWORD PTR _iXPos$[ebp]
  001c3	2b 45 fc	 sub	 eax, DWORD PTR _iStartPos$[ebp]
  001c6	51		 push	 ecx
  001c7	51		 push	 ecx
  001c8	8b 8b 98 01 00
	00		 mov	 ecx, DWORD PTR [ebx+408]
  001ce	f3 0f 11 44 24
	04		 movss	 DWORD PTR [esp+4], xmm0
  001d4	f3 0f 11 45 0c	 movss	 DWORD PTR tv397[ebp], xmm0
  001d9	83 c0 3f	 add	 eax, 63			; 0000003fH
  001dc	0f 57 c0	 xorps	 xmm0, xmm0
  001df	f3 0f 2a c0	 cvtsi2ss xmm0, eax
  001e3	f3 0f 11 04 24	 movss	 DWORD PTR [esp], xmm0
  001e8	ff 15 00 00 00
	00		 call	 DWORD PTR __imp_?RenderNum@ioUIRenderImage@@QAEXMMHMMW4UIRenderType@@W4TextureFilterOption@@0W4RenerNumerFormatting@1@@Z

; 1041 : 
; 1042 : 		m_pPercentText->Render( ((iXPos + 63) - iStartPos)+(iNumberSize-NUM_GAP), iYPos + 132 );

  001ee	8b 8b a0 01 00
	00		 mov	 ecx, DWORD PTR [ebx+416]
  001f4	2b 7d fc	 sub	 edi, DWORD PTR _iStartPos$[ebp]
  001f7	f3 0f 10 45 0c	 movss	 xmm0, DWORD PTR tv397[ebp]
  001fc	8b 55 08	 mov	 edx, DWORD PTR _iXPos$[ebp]
  001ff	8b 01		 mov	 eax, DWORD PTR [ecx]
  00201	56		 push	 esi
  00202	56		 push	 esi
  00203	56		 push	 esi
  00204	56		 push	 esi
  00205	51		 push	 ecx
  00206	51		 push	 ecx
  00207	f3 0f 11 44 24
	04		 movss	 DWORD PTR [esp+4], xmm0
  0020d	8d 54 17 3a	 lea	 edx, DWORD PTR [edi+edx+58]
  00211	0f 57 c0	 xorps	 xmm0, xmm0
  00214	f3 0f 2a c2	 cvtsi2ss xmm0, edx
  00218	f3 0f 11 04 24	 movss	 DWORD PTR [esp], xmm0
  0021d	ff 10		 call	 DWORD PTR [eax]
$LN1@OnRenderSe:
  0021f	5f		 pop	 edi
  00220	5e		 pop	 esi
  00221	5b		 pop	 ebx

; 1043 : 	}
; 1044 : }

  00222	c9		 leave
  00223	c2 08 00	 ret	 8
?OnRenderSeasonRecord@HeroMatchWnd@@IAEXHH@Z ENDP	; HeroMatchWnd::OnRenderSeasonRecord
_TEXT	ENDS
PUBLIC	??_7GuildHeroRankingListWnd@@6B@		; GuildHeroRankingListWnd::`vftable'
PUBLIC	??0GuildHeroRankingListWnd@@QAE@XZ		; GuildHeroRankingListWnd::GuildHeroRankingListWnd
PUBLIC	??_R4GuildHeroRankingListWnd@@6B@		; GuildHeroRankingListWnd::`RTTI Complete Object Locator'
PUBLIC	??_R0?AVGuildHeroRankingListWnd@@@8		; GuildHeroRankingListWnd `RTTI Type Descriptor'
PUBLIC	??_R3GuildHeroRankingListWnd@@8			; GuildHeroRankingListWnd::`RTTI Class Hierarchy Descriptor'
PUBLIC	??_R2GuildHeroRankingListWnd@@8			; GuildHeroRankingListWnd::`RTTI Base Class Array'
PUBLIC	??_R1A@?0A@EA@GuildHeroRankingListWnd@@8	; GuildHeroRankingListWnd::`RTTI Base Class Descriptor at (0,-1,0,64)'
PUBLIC	??_R1A@?0A@EA@ioMovingWnd@@8			; ioMovingWnd::`RTTI Base Class Descriptor at (0,-1,0,64)'
PUBLIC	??_R0?AVioMovingWnd@@@8				; ioMovingWnd `RTTI Type Descriptor'
PUBLIC	??_R3ioMovingWnd@@8				; ioMovingWnd::`RTTI Class Hierarchy Descriptor'
PUBLIC	??_R2ioMovingWnd@@8				; ioMovingWnd::`RTTI Base Class Array'
PUBLIC	?OnRender@GuildHeroRankingListWnd@@MAEXXZ	; GuildHeroRankingListWnd::OnRender
PUBLIC	?OnProcess@GuildHeroRankingListWnd@@MAEXM@Z	; GuildHeroRankingListWnd::OnProcess
PUBLIC	?iwm_create@GuildHeroRankingListWnd@@UAEXXZ	; GuildHeroRankingListWnd::iwm_create
PUBLIC	?iwm_command@GuildHeroRankingListWnd@@UAEXPAVioWnd@@HK@Z ; GuildHeroRankingListWnd::iwm_command
PUBLIC	?iwm_show@GuildHeroRankingListWnd@@UAEXXZ	; GuildHeroRankingListWnd::iwm_show
PUBLIC	?iwm_hide@GuildHeroRankingListWnd@@UAEXXZ	; GuildHeroRankingListWnd::iwm_hide
EXTRN	__imp_??0ioMovingWnd@@QAE@XZ:PROC
EXTRN	?SetPositionToDefault@ioMovingWnd@@UAEXHH_N0@Z:PROC ; ioMovingWnd::SetPositionToDefault
EXTRN	?OnMouseProcess@ioMovingWnd@@MAEXABVioMouse@@@Z:PROC ; ioMovingWnd::OnMouseProcess
EXTRN	?iwm_lbuttondown@ioMovingWnd@@UAEXABVioMouse@@@Z:PROC ; ioMovingWnd::iwm_lbuttondown
EXTRN	?iwm_lbuttonup@ioMovingWnd@@UAEXABVioMouse@@@Z:PROC ; ioMovingWnd::iwm_lbuttonup
EXTRN	??_EGuildHeroRankingListWnd@@UAEPAXI@Z:PROC	; GuildHeroRankingListWnd::`vector deleting destructor'
;	COMDAT ??_R2ioMovingWnd@@8
rdata$r	SEGMENT
??_R2ioMovingWnd@@8 DD FLAT:??_R1A@?0A@EA@ioMovingWnd@@8 ; ioMovingWnd::`RTTI Base Class Array'
	DD	FLAT:??_R1A@?0A@EA@ioWnd@@8
rdata$r	ENDS
;	COMDAT ??_R3ioMovingWnd@@8
rdata$r	SEGMENT
??_R3ioMovingWnd@@8 DD 00H				; ioMovingWnd::`RTTI Class Hierarchy Descriptor'
	DD	00H
	DD	02H
	DD	FLAT:??_R2ioMovingWnd@@8
rdata$r	ENDS
;	COMDAT ??_R0?AVioMovingWnd@@@8
_DATA	SEGMENT
??_R0?AVioMovingWnd@@@8 DD FLAT:??_7type_info@@6B@	; ioMovingWnd `RTTI Type Descriptor'
	DD	00H
	DB	'.?AVioMovingWnd@@', 00H
_DATA	ENDS
;	COMDAT ??_R1A@?0A@EA@ioMovingWnd@@8
rdata$r	SEGMENT
??_R1A@?0A@EA@ioMovingWnd@@8 DD FLAT:??_R0?AVioMovingWnd@@@8 ; ioMovingWnd::`RTTI Base Class Descriptor at (0,-1,0,64)'
	DD	01H
	DD	00H
	DD	0ffffffffH
	DD	00H
	DD	040H
	DD	FLAT:??_R3ioMovingWnd@@8
rdata$r	ENDS
;	COMDAT ??_R1A@?0A@EA@GuildHeroRankingListWnd@@8
rdata$r	SEGMENT
??_R1A@?0A@EA@GuildHeroRankingListWnd@@8 DD FLAT:??_R0?AVGuildHeroRankingListWnd@@@8 ; GuildHeroRankingListWnd::`RTTI Base Class Descriptor at (0,-1,0,64)'
	DD	02H
	DD	00H
	DD	0ffffffffH
	DD	00H
	DD	040H
	DD	FLAT:??_R3GuildHeroRankingListWnd@@8
rdata$r	ENDS
;	COMDAT ??_R2GuildHeroRankingListWnd@@8
rdata$r	SEGMENT
??_R2GuildHeroRankingListWnd@@8 DD FLAT:??_R1A@?0A@EA@GuildHeroRankingListWnd@@8 ; GuildHeroRankingListWnd::`RTTI Base Class Array'
	DD	FLAT:??_R1A@?0A@EA@ioMovingWnd@@8
	DD	FLAT:??_R1A@?0A@EA@ioWnd@@8
rdata$r	ENDS
;	COMDAT ??_R3GuildHeroRankingListWnd@@8
rdata$r	SEGMENT
??_R3GuildHeroRankingListWnd@@8 DD 00H			; GuildHeroRankingListWnd::`RTTI Class Hierarchy Descriptor'
	DD	00H
	DD	03H
	DD	FLAT:??_R2GuildHeroRankingListWnd@@8
rdata$r	ENDS
;	COMDAT ??_R0?AVGuildHeroRankingListWnd@@@8
_DATA	SEGMENT
??_R0?AVGuildHeroRankingListWnd@@@8 DD FLAT:??_7type_info@@6B@ ; GuildHeroRankingListWnd `RTTI Type Descriptor'
	DD	00H
	DB	'.?AVGuildHeroRankingListWnd@@', 00H
_DATA	ENDS
;	COMDAT ??_R4GuildHeroRankingListWnd@@6B@
rdata$r	SEGMENT
??_R4GuildHeroRankingListWnd@@6B@ DD 00H		; GuildHeroRankingListWnd::`RTTI Complete Object Locator'
	DD	00H
	DD	00H
	DD	FLAT:??_R0?AVGuildHeroRankingListWnd@@@8
	DD	FLAT:??_R3GuildHeroRankingListWnd@@8
rdata$r	ENDS
;	COMDAT ??_7GuildHeroRankingListWnd@@6B@
CONST	SEGMENT
??_7GuildHeroRankingListWnd@@6B@ DD FLAT:??_R4GuildHeroRankingListWnd@@6B@ ; GuildHeroRankingListWnd::`vftable'
	DD	FLAT:?AddRenderFrame@ioWnd@@UAEXABVioHashString@@PAVioUIRenderFrame@@@Z
	DD	FLAT:?AddRenderImage@ioWnd@@UAEXABVioHashString@@PAVioUIRenderImage@@@Z
	DD	FLAT:?AddTooltipHelp@ioWnd@@UAEXABVioHashString@@00@Z
	DD	FLAT:?ParseExtraInfo@ioWnd@@UAEXAAVioXMLElement@@@Z
	DD	FLAT:?AddNamedRenderImage@ioWnd@@UAEXABVioHashString@@PAVioUIRenderImage@@@Z
	DD	FLAT:?RemoveNamedRenderImage@ioWnd@@UAEXABVioHashString@@@Z
	DD	FLAT:?GetNamedRenderImage@ioWnd@@UBEPAVioUIRenderImage@@ABVioHashString@@@Z
	DD	FLAT:?SetWindowAlpha@ioWnd@@UAEXH@Z
	DD	FLAT:?SetActive@ioWnd@@UAEXXZ
	DD	FLAT:?SetInActive@ioWnd@@UAEXXZ
	DD	FLAT:?ClearElementImageList@ioWnd@@UAEXXZ
	DD	FLAT:?SetSize@ioWnd@@UAEXHH@Z
	DD	FLAT:?SetPositionToDefault@ioMovingWnd@@UAEXHH_N0@Z
	DD	FLAT:?IsNeedProcess@ioWnd@@UBE_NXZ
	DD	FLAT:?IsCanMouseReaction@ioWnd@@UBE_NXZ
	DD	FLAT:?AddChild@ioWnd@@UAEXPAV1@@Z
	DD	FLAT:?DeleteChild@ioWnd@@UAEXK@Z
	DD	FLAT:?DeleteAllChild@ioWnd@@UAEXXZ
	DD	FLAT:?OnRenderShowAndHide@ioWnd@@MAE_NXZ
	DD	FLAT:?OnRenderShowAndHideByDefault@ioWnd@@MAE_NK@Z
	DD	FLAT:?OnRenderShowAndHideByTop@ioWnd@@MAE_NK@Z
	DD	FLAT:?OnRenderShowAndHideByDown@ioWnd@@MAE_NK@Z
	DD	FLAT:?OnRender@GuildHeroRankingListWnd@@MAEXXZ
	DD	FLAT:?OnRenderAfterChild@ioWnd@@MAEXXZ
	DD	FLAT:?OnProcess@GuildHeroRankingListWnd@@MAEXM@Z
	DD	FLAT:?OnMouseProcess@ioMovingWnd@@MAEXABVioMouse@@@Z
	DD	FLAT:?CheckFrameReSize@ioWnd@@MAEXHHHH@Z
	DD	FLAT:?RenderImageList@ioWnd@@MAEXHHW4UIRenderType@@@Z
	DD	FLAT:?iwm_create@GuildHeroRankingListWnd@@UAEXXZ
	DD	FLAT:?iwm_destroy@ioWnd@@UAEXXZ
	DD	FLAT:?iwm_lbuttondown@ioMovingWnd@@UAEXABVioMouse@@@Z
	DD	FLAT:?iwm_lbuttonup@ioMovingWnd@@UAEXABVioMouse@@@Z
	DD	FLAT:?iwm_lbuttonDBLCLK@ioWnd@@UAEXABVioMouse@@@Z
	DD	FLAT:?iwm_rbuttondown@ioWnd@@UAEXABVioMouse@@@Z
	DD	FLAT:?iwm_rbuttonup@ioWnd@@UAEXABVioMouse@@@Z
	DD	FLAT:?iwm_command@GuildHeroRankingListWnd@@UAEXPAVioWnd@@HK@Z
	DD	FLAT:?iwm_mouseover@ioWnd@@UAEXABVioMouse@@@Z
	DD	FLAT:?iwm_mousemove@ioWnd@@UAEXABVioMouse@@@Z
	DD	FLAT:?iwm_mouseleave@ioWnd@@UAEXABVioMouse@@@Z
	DD	FLAT:?iwm_vscroll@ioWnd@@UAEXKH@Z
	DD	FLAT:?iwm_wheel@ioWnd@@UAEXH@Z
	DD	FLAT:?iwm_show@GuildHeroRankingListWnd@@UAEXXZ
	DD	FLAT:?iwm_hide@GuildHeroRankingListWnd@@UAEXXZ
	DD	FLAT:?iwm_esc@ioWnd@@UAE_NXZ
	DD	FLAT:?iwm_spacebar@ioWnd@@UAE_NXZ
	DD	FLAT:?iwm_gototop@ioWnd@@UAEXXZ
	DD	FLAT:?iwm_dragenter@ioWnd@@UAE?AW4IWDropEffect@@PAVioDragItem@@ABVioMouse@@@Z
	DD	FLAT:?iwm_dragover@ioWnd@@UAE?AW4IWDropEffect@@PAVioDragItem@@ABVioMouse@@@Z
	DD	FLAT:?iwm_dragleave@ioWnd@@UAEXXZ
	DD	FLAT:?iwm_dropitem@ioWnd@@UAE_NPAVioDragItem@@ABVioMouse@@PAV1@@Z
	DD	FLAT:?iwm_dropdone@ioWnd@@UAEXPAVioDragItem@@PAV1@_N@Z
	DD	FLAT:?IsEXType@ioWnd@@UBE_NXZ
	DD	FLAT:?GetWndType@ioWnd@@UBEKXZ
	DD	FLAT:?RenderWnd@ioWnd@@UAEXXZ
	DD	FLAT:?SetIDEX@ioWnd@@UAEXAAK_N@Z
	DD	FLAT:?ParseXML@ioWnd@@UAEXAAVioXMLElement@@@Z
	DD	FLAT:?GetHeaderFileName@ioWnd@@UAEPBDXZ
	DD	FLAT:?GetTemplateName@ioWnd@@UAEPBDXZ
	DD	FLAT:?GetDefClassName@ioWnd@@UBEPBDXZ
	DD	FLAT:?_Clone@ioWnd@@UAEPAV1@XZ
	DD	FLAT:?Copy@ioWnd@@UAEXPAV1@@Z
	DD	FLAT:?Save@ioWnd@@UAE_NAAVioXMLElement@@@Z
	DD	FLAT:?SetSaveData@ioWnd@@UAEXAAVioXMLElement@@@Z
	DD	FLAT:?SetPosX@ioWnd@@UAEXH@Z
	DD	FLAT:?SetPosY@ioWnd@@UAEXH@Z
	DD	FLAT:?SetWidth@ioWnd@@UAEXH@Z
	DD	FLAT:?SetHeight@ioWnd@@UAEXH@Z
	DD	FLAT:?GetNumFixedRenderFrame@ioWnd@@UBEHXZ
	DD	FLAT:?GetFixedRenderFrameType@ioWnd@@UAEPBDH@Z
	DD	FLAT:?GetRenderFrame@ioWnd@@UAEPAPAVioUIRenderElement@@PBD@Z
	DD	FLAT:?GetNumFixedRenderImage@ioWnd@@UBEHXZ
	DD	FLAT:?GetFixedRenderImageType@ioWnd@@UAEPBDH@Z
	DD	FLAT:?GetRenderImage@ioWnd@@UAEPAPAVioUIRenderElement@@PBD@Z
	DD	FLAT:?AddEffect@ioWnd@@UAEXABVioHashString@@PAVioUI3DEffectRender@@@Z
	DD	FLAT:?GetEffect@ioWnd@@UAEPAVioUI3DEffectRender@@VioHashString@@@Z
	DD	FLAT:??_EGuildHeroRankingListWnd@@UAEPAXI@Z
; Function compile flags: /Ogsp
CONST	ENDS
;	COMDAT ??0GuildHeroRankingListWnd@@QAE@XZ
_TEXT	SEGMENT
??0GuildHeroRankingListWnd@@QAE@XZ PROC			; GuildHeroRankingListWnd::GuildHeroRankingListWnd, COMDAT
; _this$ = ecx

; 1148 : {

  00000	56		 push	 esi
  00001	8b f1		 mov	 esi, ecx
  00003	ff 15 00 00 00
	00		 call	 DWORD PTR __imp_??0ioMovingWnd@@QAE@XZ

; 1149 : 	m_dwTabID   = 0;

  00009	83 a6 90 01 00
	00 00		 and	 DWORD PTR [esi+400], 0
  00010	c7 06 00 00 00
	00		 mov	 DWORD PTR [esi], OFFSET ??_7GuildHeroRankingListWnd@@6B@

; 1150 : }

  00016	8b c6		 mov	 eax, esi
  00018	5e		 pop	 esi
  00019	c3		 ret	 0
??0GuildHeroRankingListWnd@@QAE@XZ ENDP			; GuildHeroRankingListWnd::GuildHeroRankingListWnd
_TEXT	ENDS
PUBLIC	??1GuildHeroRankingListWnd@@UAE@XZ		; GuildHeroRankingListWnd::~GuildHeroRankingListWnd
EXTRN	__imp_??1ioMovingWnd@@UAE@XZ:PROC
; Function compile flags: /Ogsp
;	COMDAT ??1GuildHeroRankingListWnd@@UAE@XZ
_TEXT	SEGMENT
??1GuildHeroRankingListWnd@@UAE@XZ PROC			; GuildHeroRankingListWnd::~GuildHeroRankingListWnd, COMDAT
; _this$ = ecx

; 1153 : {

  00000	c7 01 00 00 00
	00		 mov	 DWORD PTR [ecx], OFFSET ??_7GuildHeroRankingListWnd@@6B@

; 1154 : }

  00006	ff 25 00 00 00
	00		 jmp	 DWORD PTR __imp_??1ioMovingWnd@@UAE@XZ
??1GuildHeroRankingListWnd@@UAE@XZ ENDP			; GuildHeroRankingListWnd::~GuildHeroRankingListWnd
_TEXT	ENDS
PUBLIC	??_R0?AVGuildRankingListWnd@@@8			; GuildRankingListWnd `RTTI Type Descriptor'
PUBLIC	?SetRankRadioBtn@GuildHeroRankingListWnd@@QAEXK@Z ; GuildHeroRankingListWnd::SetRankRadioBtn
EXTRN	__imp_?ShowWnd@ioWnd@@QAEXXZ:PROC
EXTRN	?SetCampRadioBtn@GuildRankingListWnd@@QAEXK@Z:PROC ; GuildRankingListWnd::SetCampRadioBtn
EXTRN	__imp_?FindChildWnd@ioWnd@@QAEPAV1@K@Z:PROC
EXTRN	__imp_?ShowChildWnd@ioWnd@@QAEXK_N@Z:PROC
EXTRN	__imp_?HideChildWnd@ioWnd@@QAEXK_N@Z:PROC
EXTRN	__imp_?CheckRadioButton@ioWnd@@QAEXKKK@Z:PROC
EXTRN	___RTDynamicCast:PROC
;	COMDAT ??_R0?AVGuildRankingListWnd@@@8
_DATA	SEGMENT
??_R0?AVGuildRankingListWnd@@@8 DD FLAT:??_7type_info@@6B@ ; GuildRankingListWnd `RTTI Type Descriptor'
	DD	00H
	DB	'.?AVGuildRankingListWnd@@', 00H
; Function compile flags: /Ogsp
_DATA	ENDS
;	COMDAT ?SetRankRadioBtn@GuildHeroRankingListWnd@@QAEXK@Z
_TEXT	SEGMENT
_dwTabID$ = 8						; size = 4
?SetRankRadioBtn@GuildHeroRankingListWnd@@QAEXK@Z PROC	; GuildHeroRankingListWnd::SetRankRadioBtn, COMDAT
; _this$ = ecx

; 1157 : {

  00000	55		 push	 ebp
  00001	8b ec		 mov	 ebp, esp

; 1158 : 	m_dwTabID = dwTabID;

  00003	8b 45 08	 mov	 eax, DWORD PTR _dwTabID$[ebp]
  00006	53		 push	 ebx
  00007	56		 push	 esi
  00008	57		 push	 edi

; 1159 : 	CheckRadioButton( ID_GUILD_BTN, ID_HERO_TOP100_BTN, m_dwTabID );

  00009	50		 push	 eax
  0000a	6a 03		 push	 3
  0000c	8b f1		 mov	 esi, ecx
  0000e	6a 02		 push	 2
  00010	89 86 90 01 00
	00		 mov	 DWORD PTR [esi+400], eax
  00016	ff 15 00 00 00
	00		 call	 DWORD PTR __imp_?CheckRadioButton@ioWnd@@QAEXKKK@Z

; 1160 : 
; 1161 : 	HideChildWnd( ID_GUILD_RANKING_WND );

  0001c	8b 3d 00 00 00
	00		 mov	 edi, DWORD PTR __imp_?HideChildWnd@ioWnd@@QAEXK_N@Z
  00022	33 db		 xor	 ebx, ebx
  00024	53		 push	 ebx
  00025	6a 0a		 push	 10			; 0000000aH
  00027	8b ce		 mov	 ecx, esi
  00029	ff d7		 call	 edi

; 1162 : 	HideChildWnd( ID_HERO_RANKING_WND );

  0002b	53		 push	 ebx
  0002c	6a 0b		 push	 11			; 0000000bH
  0002e	8b ce		 mov	 ecx, esi
  00030	ff d7		 call	 edi

; 1163 : 
; 1164 : 	switch( m_dwTabID )

  00032	8b 86 90 01 00
	00		 mov	 eax, DWORD PTR [esi+400]
  00038	48		 dec	 eax
  00039	48		 dec	 eax
  0003a	74 10		 je	 SHORT $LN3@SetRankRad
  0003c	48		 dec	 eax
  0003d	75 47		 jne	 SHORT $LN2@SetRankRad

; 1173 : 			}
; 1174 : 		}
; 1175 : 		break;
; 1176 : 	case ID_HERO_TOP100_BTN:
; 1177 : 		{
; 1178 : 			ShowChildWnd( ID_HERO_RANKING_WND );

  0003f	53		 push	 ebx
  00040	6a 0b		 push	 11			; 0000000bH
  00042	8b ce		 mov	 ecx, esi
  00044	ff 15 00 00 00
	00		 call	 DWORD PTR __imp_?ShowChildWnd@ioWnd@@QAEXK_N@Z

; 1179 : 		}
; 1180 : 		break;

  0004a	eb 3a		 jmp	 SHORT $LN2@SetRankRad
$LN3@SetRankRad:

; 1165 : 	{
; 1166 : 	case ID_GUILD_BTN:
; 1167 : 		{
; 1168 : 			GuildRankingListWnd *pRankingList = dynamic_cast<GuildRankingListWnd*>( FindChildWnd( ID_GUILD_RANKING_WND ) );

  0004c	53		 push	 ebx
  0004d	68 00 00 00 00	 push	 OFFSET ??_R0?AVGuildRankingListWnd@@@8
  00052	68 00 00 00 00	 push	 OFFSET ??_R0?AVioWnd@@@8
  00057	53		 push	 ebx
  00058	6a 0a		 push	 10			; 0000000aH
  0005a	8b ce		 mov	 ecx, esi
  0005c	ff 15 00 00 00
	00		 call	 DWORD PTR __imp_?FindChildWnd@ioWnd@@QAEPAV1@K@Z
  00062	50		 push	 eax
  00063	e8 00 00 00 00	 call	 ___RTDynamicCast
  00068	8b f8		 mov	 edi, eax
  0006a	83 c4 14	 add	 esp, 20			; 00000014H

; 1169 : 			if( pRankingList )

  0006d	3b fb		 cmp	 edi, ebx
  0006f	74 15		 je	 SHORT $LN2@SetRankRad

; 1170 : 			{
; 1171 : 				pRankingList->SetCampRadioBtn( m_dwTabID );

  00071	ff b6 90 01 00
	00		 push	 DWORD PTR [esi+400]
  00077	8b cf		 mov	 ecx, edi
  00079	e8 00 00 00 00	 call	 ?SetCampRadioBtn@GuildRankingListWnd@@QAEXK@Z ; GuildRankingListWnd::SetCampRadioBtn

; 1172 : 				pRankingList->ShowWnd();

  0007e	8b cf		 mov	 ecx, edi
  00080	ff 15 00 00 00
	00		 call	 DWORD PTR __imp_?ShowWnd@ioWnd@@QAEXXZ
$LN2@SetRankRad:
  00086	5f		 pop	 edi
  00087	5e		 pop	 esi
  00088	5b		 pop	 ebx

; 1181 : 	}
; 1182 : }

  00089	5d		 pop	 ebp
  0008a	c2 04 00	 ret	 4
?SetRankRadioBtn@GuildHeroRankingListWnd@@QAEXK@Z ENDP	; GuildHeroRankingListWnd::SetRankRadioBtn
_TEXT	ENDS
PUBLIC	??_C@_0BL@DDCIHLKK@XML?1herorankinglistwnd?4xml?$AA@ ; `string'
PUBLIC	??_C@_0BM@HLGJEGDK@XML?1guildrankinglistwnd?4xml?$AA@ ; `string'
;	COMDAT ??_C@_0BL@DDCIHLKK@XML?1herorankinglistwnd?4xml?$AA@
CONST	SEGMENT
??_C@_0BL@DDCIHLKK@XML?1herorankinglistwnd?4xml?$AA@ DB 'XML/herorankingl'
	DB	'istwnd.xml', 00H				; `string'
CONST	ENDS
;	COMDAT ??_C@_0BM@HLGJEGDK@XML?1guildrankinglistwnd?4xml?$AA@
CONST	SEGMENT
??_C@_0BM@HLGJEGDK@XML?1guildrankinglistwnd?4xml?$AA@ DB 'XML/guildrankin'
	DB	'glistwnd.xml', 00H				; `string'
; Function compile flags: /Ogsp
CONST	ENDS
;	COMDAT ?iwm_create@GuildHeroRankingListWnd@@UAEXXZ
_TEXT	SEGMENT
?iwm_create@GuildHeroRankingListWnd@@UAEXXZ PROC	; GuildHeroRankingListWnd::iwm_create, COMDAT
; _this$ = ecx

; 1185 : {

  00000	56		 push	 esi
  00001	57		 push	 edi
  00002	8b f9		 mov	 edi, ecx

; 1186 : 	g_GUIMgr.AddWnd( "XML/guildrankinglistwnd.xml", this );

  00004	57		 push	 edi
  00005	68 00 00 00 00	 push	 OFFSET ??_C@_0BM@HLGJEGDK@XML?1guildrankinglistwnd?4xml?$AA@
  0000a	e8 00 00 00 00	 call	 ?GetSingleton@ioSP2GUIManager@@SAAAV1@XZ ; ioSP2GUIManager::GetSingleton
  0000f	8b 35 00 00 00
	00		 mov	 esi, DWORD PTR __imp_?AddWnd@ioGUIManager@@QAEPAVioWnd@@PBDPAV2@@Z
  00015	8b c8		 mov	 ecx, eax
  00017	ff d6		 call	 esi

; 1187 : 	g_GUIMgr.AddWnd( "XML/herorankinglistwnd.xml", this );

  00019	57		 push	 edi
  0001a	68 00 00 00 00	 push	 OFFSET ??_C@_0BL@DDCIHLKK@XML?1herorankinglistwnd?4xml?$AA@
  0001f	e8 00 00 00 00	 call	 ?GetSingleton@ioSP2GUIManager@@SAAAV1@XZ ; ioSP2GUIManager::GetSingleton
  00024	8b c8		 mov	 ecx, eax
  00026	ff d6		 call	 esi
  00028	5f		 pop	 edi
  00029	5e		 pop	 esi

; 1188 : }

  0002a	c3		 ret	 0
?iwm_create@GuildHeroRankingListWnd@@UAEXXZ ENDP	; GuildHeroRankingListWnd::iwm_create
; Function compile flags: /Ogsp
_TEXT	ENDS
;	COMDAT ?iwm_show@GuildHeroRankingListWnd@@UAEXXZ
_TEXT	SEGMENT
?iwm_show@GuildHeroRankingListWnd@@UAEXXZ PROC		; GuildHeroRankingListWnd::iwm_show, COMDAT
; _this$ = ecx

; 1192 : 	if( m_dwTabID == 0 )

  00000	8b 81 90 01 00
	00		 mov	 eax, DWORD PTR [ecx+400]
  00006	85 c0		 test	 eax, eax
  00008	75 04		 jne	 SHORT $LN2@iwm_show

; 1193 : 	{
; 1194 : 		SetRankRadioBtn( ID_GUILD_BTN );

  0000a	6a 02		 push	 2

; 1195 : 	}
; 1196 : 	else

  0000c	eb 01		 jmp	 SHORT $LN5@iwm_show
$LN2@iwm_show:

; 1197 : 	{
; 1198 : 		SetRankRadioBtn( m_dwTabID );

  0000e	50		 push	 eax
$LN5@iwm_show:
  0000f	e8 00 00 00 00	 call	 ?SetRankRadioBtn@GuildHeroRankingListWnd@@QAEXK@Z ; GuildHeroRankingListWnd::SetRankRadioBtn

; 1199 : 	}
; 1200 : }

  00014	c3		 ret	 0
?iwm_show@GuildHeroRankingListWnd@@UAEXXZ ENDP		; GuildHeroRankingListWnd::iwm_show
; Function compile flags: /Ogsp
_TEXT	ENDS
;	COMDAT ?iwm_hide@GuildHeroRankingListWnd@@UAEXXZ
_TEXT	SEGMENT
?iwm_hide@GuildHeroRankingListWnd@@UAEXXZ PROC		; GuildHeroRankingListWnd::iwm_hide, COMDAT
; _this$ = ecx

; 1203 : {

  00000	56		 push	 esi

; 1204 : 	m_dwTabID   = 0;
; 1205 : 	HideChildWnd( ID_GUILD_RANKING_WND );

  00001	8b 35 00 00 00
	00		 mov	 esi, DWORD PTR __imp_?HideChildWnd@ioWnd@@QAEXK_N@Z
  00007	57		 push	 edi
  00008	6a 00		 push	 0
  0000a	8b f9		 mov	 edi, ecx
  0000c	83 a7 90 01 00
	00 00		 and	 DWORD PTR [edi+400], 0
  00013	6a 0a		 push	 10			; 0000000aH
  00015	ff d6		 call	 esi

; 1206 : 	HideChildWnd( ID_HERO_RANKING_WND );

  00017	6a 00		 push	 0
  00019	6a 0b		 push	 11			; 0000000bH
  0001b	8b cf		 mov	 ecx, edi
  0001d	ff d6		 call	 esi
  0001f	5f		 pop	 edi
  00020	5e		 pop	 esi

; 1207 : }

  00021	c3		 ret	 0
?iwm_hide@GuildHeroRankingListWnd@@UAEXXZ ENDP		; GuildHeroRankingListWnd::iwm_hide
_TEXT	ENDS
EXTRN	__imp_?HideWnd@ioWnd@@QAEXXZ:PROC
EXTRN	__imp_?GetID@ioWnd@@QBEKXZ:PROC
; Function compile flags: /Ogsp
;	COMDAT ?iwm_command@GuildHeroRankingListWnd@@UAEXPAVioWnd@@HK@Z
_TEXT	SEGMENT
_pWnd$ = 8						; size = 4
_cmd$ = 12						; size = 4
_param$ = 16						; size = 4
?iwm_command@GuildHeroRankingListWnd@@UAEXPAVioWnd@@HK@Z PROC ; GuildHeroRankingListWnd::iwm_command, COMDAT
; _this$ = ecx

; 1210 : {

  00000	55		 push	 ebp
  00001	8b ec		 mov	 ebp, esp
  00003	56		 push	 esi
  00004	8b f1		 mov	 esi, ecx

; 1211 : 	DWORD dwID = pWnd->GetID();

  00006	8b 4d 08	 mov	 ecx, DWORD PTR _pWnd$[ebp]
  00009	ff 15 00 00 00
	00		 call	 DWORD PTR __imp_?GetID@ioWnd@@QBEKXZ

; 1212 : 	switch( dwID )

  0000f	83 f8 01	 cmp	 eax, 1
  00012	74 17		 je	 SHORT $LN4@iwm_comman
  00014	76 23		 jbe	 SHORT $LN3@iwm_comman
  00016	83 f8 03	 cmp	 eax, 3
  00019	77 1e		 ja	 SHORT $LN3@iwm_comman

; 1217 : 		break;
; 1218 : 	case ID_GUILD_BTN:
; 1219 : 	case ID_HERO_TOP100_BTN:
; 1220 : 		if( cmd == IOBN_BTNDOWN )

  0001b	83 7d 0c 10	 cmp	 DWORD PTR _cmd$[ebp], 16 ; 00000010H
  0001f	75 18		 jne	 SHORT $LN3@iwm_comman

; 1221 : 		{
; 1222 : 			SetRankRadioBtn( dwID );

  00021	50		 push	 eax
  00022	8b ce		 mov	 ecx, esi
  00024	e8 00 00 00 00	 call	 ?SetRankRadioBtn@GuildHeroRankingListWnd@@QAEXK@Z ; GuildHeroRankingListWnd::SetRankRadioBtn

; 1223 : 		}
; 1224 : 		break;

  00029	eb 0e		 jmp	 SHORT $LN3@iwm_comman
$LN4@iwm_comman:

; 1213 : 	{	
; 1214 : 	case ID_EXIT:
; 1215 : 		if( cmd == IOBN_BTNUP )

  0002b	83 7d 0c 11	 cmp	 DWORD PTR _cmd$[ebp], 17 ; 00000011H
  0002f	75 08		 jne	 SHORT $LN3@iwm_comman

; 1216 : 			HideWnd();

  00031	8b ce		 mov	 ecx, esi
  00033	ff 15 00 00 00
	00		 call	 DWORD PTR __imp_?HideWnd@ioWnd@@QAEXXZ
$LN3@iwm_comman:
  00039	5e		 pop	 esi

; 1225 : 	}
; 1226 : }

  0003a	5d		 pop	 ebp
  0003b	c2 0c 00	 ret	 12			; 0000000cH
?iwm_command@GuildHeroRankingListWnd@@UAEXPAVioWnd@@HK@Z ENDP ; GuildHeroRankingListWnd::iwm_command
_TEXT	ENDS
EXTRN	__imp_?OnProcess@ioWnd@@MAEXM@Z:PROC
; Function compile flags: /Ogsp
;	COMDAT ?OnProcess@GuildHeroRankingListWnd@@MAEXM@Z
_TEXT	SEGMENT
_fTimePerSec$ = 8					; size = 4
?OnProcess@GuildHeroRankingListWnd@@MAEXM@Z PROC	; GuildHeroRankingListWnd::OnProcess, COMDAT
; _this$ = ecx

; 1229 : {

  00000	55		 push	 ebp
  00001	8b ec		 mov	 ebp, esp
  00003	56		 push	 esi
  00004	8b f1		 mov	 esi, ecx

; 1230 : 	if( !IsShow() )

  00006	ff 15 00 00 00
	00		 call	 DWORD PTR __imp_?IsShow@ioWnd@@QBE_NXZ
  0000c	84 c0		 test	 al, al
  0000e	74 13		 je	 SHORT $LN2@OnProcess@2

; 1231 : 		return;
; 1232 : 
; 1233 : 	ioMovingWnd::OnProcess( fTimePerSec );

  00010	f3 0f 10 45 08	 movss	 xmm0, DWORD PTR _fTimePerSec$[ebp]
  00015	51		 push	 ecx
  00016	8b ce		 mov	 ecx, esi
  00018	f3 0f 11 04 24	 movss	 DWORD PTR [esp], xmm0
  0001d	ff 15 00 00 00
	00		 call	 DWORD PTR __imp_?OnProcess@ioWnd@@MAEXM@Z
$LN2@OnProcess@2:
  00023	5e		 pop	 esi

; 1234 : }

  00024	5d		 pop	 ebp
  00025	c2 04 00	 ret	 4
?OnProcess@GuildHeroRankingListWnd@@MAEXM@Z ENDP	; GuildHeroRankingListWnd::OnProcess
; Function compile flags: /Ogsp
_TEXT	ENDS
;	COMDAT ?OnRender@GuildHeroRankingListWnd@@MAEXXZ
_TEXT	SEGMENT
?OnRender@GuildHeroRankingListWnd@@MAEXXZ PROC		; GuildHeroRankingListWnd::OnRender, COMDAT
; _this$ = ecx

; 1238 : 	ioWnd::OnRender();

  00000	ff 25 00 00 00
	00		 jmp	 DWORD PTR __imp_?OnRender@ioWnd@@MAEXXZ
?OnRender@GuildHeroRankingListWnd@@MAEXXZ ENDP		; GuildHeroRankingListWnd::OnRender
_TEXT	ENDS
PUBLIC	?ApplyGuildList@GuildHeroRankingListWnd@@QAEXAAVSP2Packet@@@Z ; GuildHeroRankingListWnd::ApplyGuildList
EXTRN	?ApplyGuildList@GuildRankingListWnd@@QAEXAAVSP2Packet@@@Z:PROC ; GuildRankingListWnd::ApplyGuildList
; Function compile flags: /Ogsp
;	COMDAT ?ApplyGuildList@GuildHeroRankingListWnd@@QAEXAAVSP2Packet@@@Z
_TEXT	SEGMENT
_rkPacket$ = 8						; size = 4
?ApplyGuildList@GuildHeroRankingListWnd@@QAEXAAVSP2Packet@@@Z PROC ; GuildHeroRankingListWnd::ApplyGuildList, COMDAT
; _this$ = ecx

; 1242 : {

  00000	55		 push	 ebp
  00001	8b ec		 mov	 ebp, esp
  00003	56		 push	 esi

; 1243 : 	GuildRankingListWnd *pRankingList = dynamic_cast<GuildRankingListWnd*>( FindChildWnd( ID_GUILD_RANKING_WND ) );

  00004	6a 00		 push	 0
  00006	68 00 00 00 00	 push	 OFFSET ??_R0?AVGuildRankingListWnd@@@8
  0000b	68 00 00 00 00	 push	 OFFSET ??_R0?AVioWnd@@@8
  00010	6a 00		 push	 0
  00012	6a 0a		 push	 10			; 0000000aH
  00014	ff 15 00 00 00
	00		 call	 DWORD PTR __imp_?FindChildWnd@ioWnd@@QAEPAV1@K@Z
  0001a	50		 push	 eax
  0001b	e8 00 00 00 00	 call	 ___RTDynamicCast
  00020	8b f0		 mov	 esi, eax
  00022	83 c4 14	 add	 esp, 20			; 00000014H

; 1244 : 	if( pRankingList && pRankingList->IsShow() )

  00025	85 f6		 test	 esi, esi
  00027	74 16		 je	 SHORT $LN1@ApplyGuild
  00029	8b ce		 mov	 ecx, esi
  0002b	ff 15 00 00 00
	00		 call	 DWORD PTR __imp_?IsShow@ioWnd@@QBE_NXZ
  00031	84 c0		 test	 al, al
  00033	74 0a		 je	 SHORT $LN1@ApplyGuild

; 1245 : 	{
; 1246 : 		pRankingList->ApplyGuildList( rkPacket );

  00035	ff 75 08	 push	 DWORD PTR _rkPacket$[ebp]
  00038	8b ce		 mov	 ecx, esi
  0003a	e8 00 00 00 00	 call	 ?ApplyGuildList@GuildRankingListWnd@@QAEXAAVSP2Packet@@@Z ; GuildRankingListWnd::ApplyGuildList
$LN1@ApplyGuild:
  0003f	5e		 pop	 esi

; 1247 : 	}
; 1248 : }

  00040	5d		 pop	 ebp
  00041	c2 04 00	 ret	 4
?ApplyGuildList@GuildHeroRankingListWnd@@QAEXAAVSP2Packet@@@Z ENDP ; GuildHeroRankingListWnd::ApplyGuildList
_TEXT	ENDS
PUBLIC	??_7HeroRankingListBtn@@6B@			; HeroRankingListBtn::`vftable'
PUBLIC	??0HeroRankingListBtn@@QAE@XZ			; HeroRankingListBtn::HeroRankingListBtn
PUBLIC	??_R4HeroRankingListBtn@@6B@			; HeroRankingListBtn::`RTTI Complete Object Locator'
PUBLIC	??_R0?AVHeroRankingListBtn@@@8			; HeroRankingListBtn `RTTI Type Descriptor'
PUBLIC	??_R3HeroRankingListBtn@@8			; HeroRankingListBtn::`RTTI Class Hierarchy Descriptor'
PUBLIC	??_R2HeroRankingListBtn@@8			; HeroRankingListBtn::`RTTI Base Class Array'
PUBLIC	??_R1A@?0A@EA@HeroRankingListBtn@@8		; HeroRankingListBtn::`RTTI Base Class Descriptor at (0,-1,0,64)'
PUBLIC	??_R1A@?0A@EA@ioButton@@8			; ioButton::`RTTI Base Class Descriptor at (0,-1,0,64)'
PUBLIC	??_R0?AVioButton@@@8				; ioButton `RTTI Type Descriptor'
PUBLIC	??_R3ioButton@@8				; ioButton::`RTTI Class Hierarchy Descriptor'
PUBLIC	??_R2ioButton@@8				; ioButton::`RTTI Base Class Array'
PUBLIC	?OnRender@HeroRankingListBtn@@MAEXXZ		; HeroRankingListBtn::OnRender
PUBLIC	?iwm_lbuttondown@HeroRankingListBtn@@UAEXABVioMouse@@@Z ; HeroRankingListBtn::iwm_lbuttondown
PUBLIC	?iwm_mouseover@HeroRankingListBtn@@UAEXABVioMouse@@@Z ; HeroRankingListBtn::iwm_mouseover
EXTRN	__imp_??1ioHashString@@QAE@XZ:PROC
EXTRN	__imp_??1ioButton@@UAE@XZ:PROC
EXTRN	__imp_?Clear@ioHashString@@QAEXXZ:PROC
EXTRN	__imp_??0ioHashString@@QAE@XZ:PROC
EXTRN	__imp_??0ioButton@@QAE@XZ:PROC
EXTRN	?AddRenderFrame@ioButton@@UAEXABVioHashString@@PAVioUIRenderFrame@@@Z:PROC ; ioButton::AddRenderFrame
EXTRN	?AddRenderImage@ioButton@@UAEXABVioHashString@@PAVioUIRenderImage@@@Z:PROC ; ioButton::AddRenderImage
EXTRN	?ParseExtraInfo@ioButton@@UAEXAAVioXMLElement@@@Z:PROC ; ioButton::ParseExtraInfo
EXTRN	?SetWindowAlpha@ioButton@@UAEXH@Z:PROC		; ioButton::SetWindowAlpha
EXTRN	?OnProcess@ioWnd@@MAEXM@Z:PROC			; ioWnd::OnProcess
EXTRN	?CheckFrameReSize@ioButton@@MAEXHHHH@Z:PROC	; ioButton::CheckFrameReSize
EXTRN	?iwm_create@ioWnd@@UAEXXZ:PROC			; ioWnd::iwm_create
EXTRN	?iwm_lbuttonup@ioButton@@UAEXABVioMouse@@@Z:PROC ; ioButton::iwm_lbuttonup
EXTRN	?iwm_lbuttonDBLCLK@ioButton@@UAEXABVioMouse@@@Z:PROC ; ioButton::iwm_lbuttonDBLCLK
EXTRN	?iwm_rbuttondown@ioButton@@UAEXABVioMouse@@@Z:PROC ; ioButton::iwm_rbuttondown
EXTRN	?iwm_rbuttonup@ioButton@@UAEXABVioMouse@@@Z:PROC ; ioButton::iwm_rbuttonup
EXTRN	?iwm_command@ioWnd@@UAEXPAV1@HK@Z:PROC		; ioWnd::iwm_command
EXTRN	?iwm_show@ioWnd@@UAEXXZ:PROC			; ioWnd::iwm_show
EXTRN	?iwm_hide@ioWnd@@UAEXXZ:PROC			; ioWnd::iwm_hide
EXTRN	?GetWndType@ioButton@@UBEKXZ:PROC		; ioButton::GetWndType
EXTRN	?GetHeaderFileName@ioButton@@UAEPBDXZ:PROC	; ioButton::GetHeaderFileName
EXTRN	?GetTemplateName@ioButton@@UAEPBDXZ:PROC	; ioButton::GetTemplateName
EXTRN	?GetDefClassName@ioButton@@UBEPBDXZ:PROC	; ioButton::GetDefClassName
EXTRN	?_Clone@ioButton@@UAEPAVioWnd@@XZ:PROC		; ioButton::_Clone
EXTRN	?Copy@ioButton@@UAEXPAVioWnd@@@Z:PROC		; ioButton::Copy
EXTRN	?SetSaveData@ioButton@@UAEXAAVioXMLElement@@@Z:PROC ; ioButton::SetSaveData
EXTRN	?GetNumFixedRenderFrame@ioButton@@UBEHXZ:PROC	; ioButton::GetNumFixedRenderFrame
EXTRN	?GetFixedRenderFrameType@ioButton@@UAEPBDH@Z:PROC ; ioButton::GetFixedRenderFrameType
EXTRN	?GetRenderFrame@ioButton@@UAEPAPAVioUIRenderElement@@PBD@Z:PROC ; ioButton::GetRenderFrame
EXTRN	?GetNumFixedRenderImage@ioButton@@UBEHXZ:PROC	; ioButton::GetNumFixedRenderImage
EXTRN	?GetFixedRenderImageType@ioButton@@UAEPBDH@Z:PROC ; ioButton::GetFixedRenderImageType
EXTRN	?GetRenderImage@ioButton@@UAEPAPAVioUIRenderElement@@PBD@Z:PROC ; ioButton::GetRenderImage
EXTRN	??_EHeroRankingListBtn@@UAEPAXI@Z:PROC		; HeroRankingListBtn::`vector deleting destructor'
EXTRN	?OnDrawNormal@ioButton@@MAEXHH@Z:PROC		; ioButton::OnDrawNormal
EXTRN	?OnDrawOvered@ioButton@@MAEXHH@Z:PROC		; ioButton::OnDrawOvered
EXTRN	?OnDrawOveredAdd@ioButton@@MAEXHH@Z:PROC	; ioButton::OnDrawOveredAdd
EXTRN	?OnDrawPushed@ioButton@@MAEXHH@Z:PROC		; ioButton::OnDrawPushed
EXTRN	?OnDrawDisabled@ioButton@@MAEXHH@Z:PROC		; ioButton::OnDrawDisabled
EXTRN	?OnDrawExDisabledNormal@ioButton@@MAEXHH@Z:PROC	; ioButton::OnDrawExDisabledNormal
EXTRN	?OnDrawExDisabledOvered@ioButton@@MAEXHH@Z:PROC	; ioButton::OnDrawExDisabledOvered
EXTRN	?OnDrawExDisabledPushed@ioButton@@MAEXHH@Z:PROC	; ioButton::OnDrawExDisabledPushed
EXTRN	?OnDrawBack@ioButton@@MAEXHH@Z:PROC		; ioButton::OnDrawBack
EXTRN	?OnDrawNormalList@ioButton@@MAEXHH@Z:PROC	; ioButton::OnDrawNormalList
EXTRN	?OnDrawDisableList@ioButton@@MAEXHH@Z:PROC	; ioButton::OnDrawDisableList
;	COMDAT ??_R2ioButton@@8
rdata$r	SEGMENT
??_R2ioButton@@8 DD FLAT:??_R1A@?0A@EA@ioButton@@8	; ioButton::`RTTI Base Class Array'
	DD	FLAT:??_R1A@?0A@EA@ioWnd@@8
rdata$r	ENDS
;	COMDAT ??_R3ioButton@@8
rdata$r	SEGMENT
??_R3ioButton@@8 DD 00H					; ioButton::`RTTI Class Hierarchy Descriptor'
	DD	00H
	DD	02H
	DD	FLAT:??_R2ioButton@@8
rdata$r	ENDS
;	COMDAT ??_R0?AVioButton@@@8
_DATA	SEGMENT
??_R0?AVioButton@@@8 DD FLAT:??_7type_info@@6B@		; ioButton `RTTI Type Descriptor'
	DD	00H
	DB	'.?AVioButton@@', 00H
_DATA	ENDS
;	COMDAT ??_R1A@?0A@EA@ioButton@@8
rdata$r	SEGMENT
??_R1A@?0A@EA@ioButton@@8 DD FLAT:??_R0?AVioButton@@@8	; ioButton::`RTTI Base Class Descriptor at (0,-1,0,64)'
	DD	01H
	DD	00H
	DD	0ffffffffH
	DD	00H
	DD	040H
	DD	FLAT:??_R3ioButton@@8
rdata$r	ENDS
;	COMDAT ??_R1A@?0A@EA@HeroRankingListBtn@@8
rdata$r	SEGMENT
??_R1A@?0A@EA@HeroRankingListBtn@@8 DD FLAT:??_R0?AVHeroRankingListBtn@@@8 ; HeroRankingListBtn::`RTTI Base Class Descriptor at (0,-1,0,64)'
	DD	02H
	DD	00H
	DD	0ffffffffH
	DD	00H
	DD	040H
	DD	FLAT:??_R3HeroRankingListBtn@@8
rdata$r	ENDS
;	COMDAT ??_R2HeroRankingListBtn@@8
rdata$r	SEGMENT
??_R2HeroRankingListBtn@@8 DD FLAT:??_R1A@?0A@EA@HeroRankingListBtn@@8 ; HeroRankingListBtn::`RTTI Base Class Array'
	DD	FLAT:??_R1A@?0A@EA@ioButton@@8
	DD	FLAT:??_R1A@?0A@EA@ioWnd@@8
rdata$r	ENDS
;	COMDAT ??_R3HeroRankingListBtn@@8
rdata$r	SEGMENT
??_R3HeroRankingListBtn@@8 DD 00H			; HeroRankingListBtn::`RTTI Class Hierarchy Descriptor'
	DD	00H
	DD	03H
	DD	FLAT:??_R2HeroRankingListBtn@@8
rdata$r	ENDS
;	COMDAT ??_R0?AVHeroRankingListBtn@@@8
_DATA	SEGMENT
??_R0?AVHeroRankingListBtn@@@8 DD FLAT:??_7type_info@@6B@ ; HeroRankingListBtn `RTTI Type Descriptor'
	DD	00H
	DB	'.?AVHeroRankingListBtn@@', 00H
_DATA	ENDS
;	COMDAT ??_R4HeroRankingListBtn@@6B@
rdata$r	SEGMENT
??_R4HeroRankingListBtn@@6B@ DD 00H			; HeroRankingListBtn::`RTTI Complete Object Locator'
	DD	00H
	DD	00H
	DD	FLAT:??_R0?AVHeroRankingListBtn@@@8
	DD	FLAT:??_R3HeroRankingListBtn@@8
rdata$r	ENDS
;	COMDAT ??_7HeroRankingListBtn@@6B@
CONST	SEGMENT
??_7HeroRankingListBtn@@6B@ DD FLAT:??_R4HeroRankingListBtn@@6B@ ; HeroRankingListBtn::`vftable'
	DD	FLAT:?AddRenderFrame@ioButton@@UAEXABVioHashString@@PAVioUIRenderFrame@@@Z
	DD	FLAT:?AddRenderImage@ioButton@@UAEXABVioHashString@@PAVioUIRenderImage@@@Z
	DD	FLAT:?AddTooltipHelp@ioWnd@@UAEXABVioHashString@@00@Z
	DD	FLAT:?ParseExtraInfo@ioButton@@UAEXAAVioXMLElement@@@Z
	DD	FLAT:?AddNamedRenderImage@ioWnd@@UAEXABVioHashString@@PAVioUIRenderImage@@@Z
	DD	FLAT:?RemoveNamedRenderImage@ioWnd@@UAEXABVioHashString@@@Z
	DD	FLAT:?GetNamedRenderImage@ioWnd@@UBEPAVioUIRenderImage@@ABVioHashString@@@Z
	DD	FLAT:?SetWindowAlpha@ioButton@@UAEXH@Z
	DD	FLAT:?SetActive@ioWnd@@UAEXXZ
	DD	FLAT:?SetInActive@ioWnd@@UAEXXZ
	DD	FLAT:?ClearElementImageList@ioWnd@@UAEXXZ
	DD	FLAT:?SetSize@ioWnd@@UAEXHH@Z
	DD	FLAT:?SetPositionToDefault@ioWnd@@UAEXHH_N0@Z
	DD	FLAT:?IsNeedProcess@ioWnd@@UBE_NXZ
	DD	FLAT:?IsCanMouseReaction@ioWnd@@UBE_NXZ
	DD	FLAT:?AddChild@ioWnd@@UAEXPAV1@@Z
	DD	FLAT:?DeleteChild@ioWnd@@UAEXK@Z
	DD	FLAT:?DeleteAllChild@ioWnd@@UAEXXZ
	DD	FLAT:?OnRenderShowAndHide@ioWnd@@MAE_NXZ
	DD	FLAT:?OnRenderShowAndHideByDefault@ioWnd@@MAE_NK@Z
	DD	FLAT:?OnRenderShowAndHideByTop@ioWnd@@MAE_NK@Z
	DD	FLAT:?OnRenderShowAndHideByDown@ioWnd@@MAE_NK@Z
	DD	FLAT:?OnRender@HeroRankingListBtn@@MAEXXZ
	DD	FLAT:?OnRenderAfterChild@ioWnd@@MAEXXZ
	DD	FLAT:?OnProcess@ioWnd@@MAEXM@Z
	DD	FLAT:?OnMouseProcess@ioWnd@@MAEXABVioMouse@@@Z
	DD	FLAT:?CheckFrameReSize@ioButton@@MAEXHHHH@Z
	DD	FLAT:?RenderImageList@ioWnd@@MAEXHHW4UIRenderType@@@Z
	DD	FLAT:?iwm_create@ioWnd@@UAEXXZ
	DD	FLAT:?iwm_destroy@ioWnd@@UAEXXZ
	DD	FLAT:?iwm_lbuttondown@HeroRankingListBtn@@UAEXABVioMouse@@@Z
	DD	FLAT:?iwm_lbuttonup@ioButton@@UAEXABVioMouse@@@Z
	DD	FLAT:?iwm_lbuttonDBLCLK@ioButton@@UAEXABVioMouse@@@Z
	DD	FLAT:?iwm_rbuttondown@ioButton@@UAEXABVioMouse@@@Z
	DD	FLAT:?iwm_rbuttonup@ioButton@@UAEXABVioMouse@@@Z
	DD	FLAT:?iwm_command@ioWnd@@UAEXPAV1@HK@Z
	DD	FLAT:?iwm_mouseover@HeroRankingListBtn@@UAEXABVioMouse@@@Z
	DD	FLAT:?iwm_mousemove@ioWnd@@UAEXABVioMouse@@@Z
	DD	FLAT:?iwm_mouseleave@ioWnd@@UAEXABVioMouse@@@Z
	DD	FLAT:?iwm_vscroll@ioWnd@@UAEXKH@Z
	DD	FLAT:?iwm_wheel@ioWnd@@UAEXH@Z
	DD	FLAT:?iwm_show@ioWnd@@UAEXXZ
	DD	FLAT:?iwm_hide@ioWnd@@UAEXXZ
	DD	FLAT:?iwm_esc@ioWnd@@UAE_NXZ
	DD	FLAT:?iwm_spacebar@ioWnd@@UAE_NXZ
	DD	FLAT:?iwm_gototop@ioWnd@@UAEXXZ
	DD	FLAT:?iwm_dragenter@ioWnd@@UAE?AW4IWDropEffect@@PAVioDragItem@@ABVioMouse@@@Z
	DD	FLAT:?iwm_dragover@ioWnd@@UAE?AW4IWDropEffect@@PAVioDragItem@@ABVioMouse@@@Z
	DD	FLAT:?iwm_dragleave@ioWnd@@UAEXXZ
	DD	FLAT:?iwm_dropitem@ioWnd@@UAE_NPAVioDragItem@@ABVioMouse@@PAV1@@Z
	DD	FLAT:?iwm_dropdone@ioWnd@@UAEXPAVioDragItem@@PAV1@_N@Z
	DD	FLAT:?IsEXType@ioWnd@@UBE_NXZ
	DD	FLAT:?GetWndType@ioButton@@UBEKXZ
	DD	FLAT:?RenderWnd@ioWnd@@UAEXXZ
	DD	FLAT:?SetIDEX@ioWnd@@UAEXAAK_N@Z
	DD	FLAT:?ParseXML@ioWnd@@UAEXAAVioXMLElement@@@Z
	DD	FLAT:?GetHeaderFileName@ioButton@@UAEPBDXZ
	DD	FLAT:?GetTemplateName@ioButton@@UAEPBDXZ
	DD	FLAT:?GetDefClassName@ioButton@@UBEPBDXZ
	DD	FLAT:?_Clone@ioButton@@UAEPAVioWnd@@XZ
	DD	FLAT:?Copy@ioButton@@UAEXPAVioWnd@@@Z
	DD	FLAT:?Save@ioWnd@@UAE_NAAVioXMLElement@@@Z
	DD	FLAT:?SetSaveData@ioButton@@UAEXAAVioXMLElement@@@Z
	DD	FLAT:?SetPosX@ioWnd@@UAEXH@Z
	DD	FLAT:?SetPosY@ioWnd@@UAEXH@Z
	DD	FLAT:?SetWidth@ioWnd@@UAEXH@Z
	DD	FLAT:?SetHeight@ioWnd@@UAEXH@Z
	DD	FLAT:?GetNumFixedRenderFrame@ioButton@@UBEHXZ
	DD	FLAT:?GetFixedRenderFrameType@ioButton@@UAEPBDH@Z
	DD	FLAT:?GetRenderFrame@ioButton@@UAEPAPAVioUIRenderElement@@PBD@Z
	DD	FLAT:?GetNumFixedRenderImage@ioButton@@UBEHXZ
	DD	FLAT:?GetFixedRenderImageType@ioButton@@UAEPBDH@Z
	DD	FLAT:?GetRenderImage@ioButton@@UAEPAPAVioUIRenderElement@@PBD@Z
	DD	FLAT:?AddEffect@ioWnd@@UAEXABVioHashString@@PAVioUI3DEffectRender@@@Z
	DD	FLAT:?GetEffect@ioWnd@@UAEPAVioUI3DEffectRender@@VioHashString@@@Z
	DD	FLAT:??_EHeroRankingListBtn@@UAEPAXI@Z
	DD	FLAT:?OnDrawNormal@ioButton@@MAEXHH@Z
	DD	FLAT:?OnDrawOvered@ioButton@@MAEXHH@Z
	DD	FLAT:?OnDrawOveredAdd@ioButton@@MAEXHH@Z
	DD	FLAT:?OnDrawPushed@ioButton@@MAEXHH@Z
	DD	FLAT:?OnDrawDisabled@ioButton@@MAEXHH@Z
	DD	FLAT:?OnDrawExDisabledNormal@ioButton@@MAEXHH@Z
	DD	FLAT:?OnDrawExDisabledOvered@ioButton@@MAEXHH@Z
	DD	FLAT:?OnDrawExDisabledPushed@ioButton@@MAEXHH@Z
	DD	FLAT:?OnDrawBack@ioButton@@MAEXHH@Z
	DD	FLAT:?OnDrawNormalList@ioButton@@MAEXHH@Z
	DD	FLAT:?OnDrawDisableList@ioButton@@MAEXHH@Z
CONST	ENDS
;	COMDAT xdata$x
xdata$x	SEGMENT
__unwindtable$??0HeroRankingListBtn@@QAE@XZ DD 0ffffffffH
	DD	FLAT:__unwindfunclet$??0HeroRankingListBtn@@QAE@XZ$0
	DD	00H
	DD	FLAT:__unwindfunclet$??0HeroRankingListBtn@@QAE@XZ$1
	DD	01H
	DD	FLAT:__unwindfunclet$??0HeroRankingListBtn@@QAE@XZ$2
__ehfuncinfo$??0HeroRankingListBtn@@QAE@XZ DD 019930522H
	DD	03H
	DD	FLAT:__unwindtable$??0HeroRankingListBtn@@QAE@XZ
	DD	2 DUP(00H)
	DD	2 DUP(00H)
	DD	00H
	DD	01H
; Function compile flags: /Ogsp
xdata$x	ENDS
;	COMDAT ??0HeroRankingListBtn@@QAE@XZ
_TEXT	SEGMENT
_this$ = -16						; size = 4
__$EHRec$ = -12						; size = 12
??0HeroRankingListBtn@@QAE@XZ PROC			; HeroRankingListBtn::HeroRankingListBtn, COMDAT
; _this$ = ecx

; 1251 : {

  00000	6a 04		 push	 4
  00002	b8 00 00 00 00	 mov	 eax, __ehhandler$??0HeroRankingListBtn@@QAE@XZ
  00007	e8 00 00 00 00	 call	 __EH_prolog3
  0000c	8b f1		 mov	 esi, ecx
  0000e	89 75 f0	 mov	 DWORD PTR _this$[ebp], esi
  00011	ff 15 00 00 00
	00		 call	 DWORD PTR __imp_??0ioButton@@QAE@XZ
  00017	8b 3d 00 00 00
	00		 mov	 edi, DWORD PTR __imp_??0ioHashString@@QAE@XZ
  0001d	83 65 fc 00	 and	 DWORD PTR __$EHRec$[ebp+8], 0
  00021	8d 8e 00 02 00
	00		 lea	 ecx, DWORD PTR [esi+512]
  00027	c7 06 00 00 00
	00		 mov	 DWORD PTR [esi], OFFSET ??_7HeroRankingListBtn@@6B@
  0002d	ff d7		 call	 edi
  0002f	8d 8e 10 02 00
	00		 lea	 ecx, DWORD PTR [esi+528]
  00035	c6 45 fc 01	 mov	 BYTE PTR __$EHRec$[ebp+8], 1
  00039	ff d7		 call	 edi

; 1252 : 	m_iHeroRank = 0;
; 1253 : 
; 1254 : 	m_szBlueCampName.Clear();

  0003b	8b 3d 00 00 00
	00		 mov	 edi, DWORD PTR __imp_?Clear@ioHashString@@QAEXXZ
  00041	83 a6 fc 01 00
	00 00		 and	 DWORD PTR [esi+508], 0
  00048	8d 8e 00 02 00
	00		 lea	 ecx, DWORD PTR [esi+512]
  0004e	c6 45 fc 02	 mov	 BYTE PTR __$EHRec$[ebp+8], 2
  00052	ff d7		 call	 edi

; 1255 : 	m_szRedCampName.Clear();

  00054	8d 8e 10 02 00
	00		 lea	 ecx, DWORD PTR [esi+528]
  0005a	ff d7		 call	 edi

; 1256 : }

  0005c	8b c6		 mov	 eax, esi
  0005e	e8 00 00 00 00	 call	 __EH_epilog3
  00063	c3		 ret	 0
_TEXT	ENDS
;	COMDAT text$x
text$x	SEGMENT
__unwindfunclet$??0HeroRankingListBtn@@QAE@XZ$0:
  00000	8b 4d f0	 mov	 ecx, DWORD PTR _this$[ebp]
  00003	ff 25 00 00 00
	00		 jmp	 DWORD PTR __imp_??1ioButton@@UAE@XZ
__unwindfunclet$??0HeroRankingListBtn@@QAE@XZ$1:
  00009	8b 4d f0	 mov	 ecx, DWORD PTR _this$[ebp]
  0000c	81 c1 00 02 00
	00		 add	 ecx, 512		; 00000200H
  00012	ff 25 00 00 00
	00		 jmp	 DWORD PTR __imp_??1ioHashString@@QAE@XZ
__unwindfunclet$??0HeroRankingListBtn@@QAE@XZ$2:
  00018	8b 4d f0	 mov	 ecx, DWORD PTR _this$[ebp]
  0001b	81 c1 10 02 00
	00		 add	 ecx, 528		; 00000210H
  00021	ff 25 00 00 00
	00		 jmp	 DWORD PTR __imp_??1ioHashString@@QAE@XZ
__ehhandler$??0HeroRankingListBtn@@QAE@XZ:
  00027	8b 54 24 08	 mov	 edx, DWORD PTR [esp+8]
  0002b	8d 42 0c	 lea	 eax, DWORD PTR [edx+12]
  0002e	8b 4a ec	 mov	 ecx, DWORD PTR [edx-20]
  00031	33 c8		 xor	 ecx, eax
  00033	e8 00 00 00 00	 call	 @__security_check_cookie@4
  00038	b8 00 00 00 00	 mov	 eax, OFFSET __ehfuncinfo$??0HeroRankingListBtn@@QAE@XZ
  0003d	e9 00 00 00 00	 jmp	 ___CxxFrameHandler3
text$x	ENDS
??0HeroRankingListBtn@@QAE@XZ ENDP			; HeroRankingListBtn::HeroRankingListBtn
PUBLIC	??1HeroRankingListBtn@@UAE@XZ			; HeroRankingListBtn::~HeroRankingListBtn
;	COMDAT xdata$x
xdata$x	SEGMENT
__unwindtable$??1HeroRankingListBtn@@UAE@XZ DD 0ffffffffH
	DD	FLAT:__unwindfunclet$??1HeroRankingListBtn@@UAE@XZ$0
	DD	00H
	DD	FLAT:__unwindfunclet$??1HeroRankingListBtn@@UAE@XZ$1
__ehfuncinfo$??1HeroRankingListBtn@@UAE@XZ DD 019930522H
	DD	02H
	DD	FLAT:__unwindtable$??1HeroRankingListBtn@@UAE@XZ
	DD	2 DUP(00H)
	DD	2 DUP(00H)
	DD	00H
	DD	01H
; Function compile flags: /Ogsp
xdata$x	ENDS
;	COMDAT ??1HeroRankingListBtn@@UAE@XZ
_TEXT	SEGMENT
_this$ = -16						; size = 4
__$EHRec$ = -12						; size = 12
??1HeroRankingListBtn@@UAE@XZ PROC			; HeroRankingListBtn::~HeroRankingListBtn, COMDAT
; _this$ = ecx

; 1259 : {

  00000	6a 04		 push	 4
  00002	b8 00 00 00 00	 mov	 eax, __ehhandler$??1HeroRankingListBtn@@UAE@XZ
  00007	e8 00 00 00 00	 call	 __EH_prolog3
  0000c	8b f1		 mov	 esi, ecx
  0000e	89 75 f0	 mov	 DWORD PTR _this$[ebp], esi
  00011	c7 06 00 00 00
	00		 mov	 DWORD PTR [esi], OFFSET ??_7HeroRankingListBtn@@6B@

; 1260 : }

  00017	8b 3d 00 00 00
	00		 mov	 edi, DWORD PTR __imp_??1ioHashString@@QAE@XZ
  0001d	8d 8e 10 02 00
	00		 lea	 ecx, DWORD PTR [esi+528]
  00023	c7 45 fc 01 00
	00 00		 mov	 DWORD PTR __$EHRec$[ebp+8], 1
  0002a	ff d7		 call	 edi
  0002c	8d 8e 00 02 00
	00		 lea	 ecx, DWORD PTR [esi+512]
  00032	c6 45 fc 00	 mov	 BYTE PTR __$EHRec$[ebp+8], 0
  00036	ff d7		 call	 edi
  00038	83 4d fc ff	 or	 DWORD PTR __$EHRec$[ebp+8], -1
  0003c	8b ce		 mov	 ecx, esi
  0003e	ff 15 00 00 00
	00		 call	 DWORD PTR __imp_??1ioButton@@UAE@XZ
  00044	e8 00 00 00 00	 call	 __EH_epilog3
  00049	c3		 ret	 0
_TEXT	ENDS
;	COMDAT text$x
text$x	SEGMENT
__unwindfunclet$??1HeroRankingListBtn@@UAE@XZ$0:
  00000	8b 4d f0	 mov	 ecx, DWORD PTR _this$[ebp]
  00003	ff 25 00 00 00
	00		 jmp	 DWORD PTR __imp_??1ioButton@@UAE@XZ
__unwindfunclet$??1HeroRankingListBtn@@UAE@XZ$1:
  00009	8b 4d f0	 mov	 ecx, DWORD PTR _this$[ebp]
  0000c	81 c1 00 02 00
	00		 add	 ecx, 512		; 00000200H
  00012	ff 25 00 00 00
	00		 jmp	 DWORD PTR __imp_??1ioHashString@@QAE@XZ
__ehhandler$??1HeroRankingListBtn@@UAE@XZ:
  00018	8b 54 24 08	 mov	 edx, DWORD PTR [esp+8]
  0001c	8d 42 0c	 lea	 eax, DWORD PTR [edx+12]
  0001f	8b 4a ec	 mov	 ecx, DWORD PTR [edx-20]
  00022	33 c8		 xor	 ecx, eax
  00024	e8 00 00 00 00	 call	 @__security_check_cookie@4
  00029	b8 00 00 00 00	 mov	 eax, OFFSET __ehfuncinfo$??1HeroRankingListBtn@@UAE@XZ
  0002e	e9 00 00 00 00	 jmp	 ___CxxFrameHandler3
text$x	ENDS
??1HeroRankingListBtn@@UAE@XZ ENDP			; HeroRankingListBtn::~HeroRankingListBtn
PUBLIC	??1tagHeroRankData@@QAE@XZ			; tagHeroRankData::~tagHeroRankData
; Function compile flags: /Ogsp
;	COMDAT ??1tagHeroRankData@@QAE@XZ
_TEXT	SEGMENT
??1tagHeroRankData@@QAE@XZ PROC				; tagHeroRankData::~tagHeroRankData, COMDAT
; _this$ = ecx
  00000	83 c1 08	 add	 ecx, 8
  00003	ff 25 00 00 00
	00		 jmp	 DWORD PTR __imp_??1ioHashString@@QAE@XZ
??1tagHeroRankData@@QAE@XZ ENDP				; tagHeroRankData::~tagHeroRankData
_TEXT	ENDS
EXTRN	__imp_?iwm_lbuttondown@ioButton@@UAEXABVioMouse@@@Z:PROC
EXTRN	__imp_?IsEmpty@ioHashString@@QBE_NXZ:PROC
EXTRN	?GetHeroData@ioCampManager@@QAE?AUtagHeroRankData@@H@Z:PROC ; ioCampManager::GetHeroData
EXTRN	?GetSingleton@ioCampManager@@SAAAV1@XZ:PROC	; ioCampManager::GetSingleton
;	COMDAT xdata$x
xdata$x	SEGMENT
__unwindtable$?iwm_lbuttondown@HeroRankingListBtn@@UAEXABVioMouse@@@Z DD 0ffffffffH
	DD	FLAT:__unwindfunclet$?iwm_lbuttondown@HeroRankingListBtn@@UAEXABVioMouse@@@Z$0
__ehfuncinfo$?iwm_lbuttondown@HeroRankingListBtn@@UAEXABVioMouse@@@Z DD 019930522H
	DD	01H
	DD	FLAT:__unwindtable$?iwm_lbuttondown@HeroRankingListBtn@@UAEXABVioMouse@@@Z
	DD	2 DUP(00H)
	DD	2 DUP(00H)
	DD	00H
	DD	01H
; Function compile flags: /Ogsp
xdata$x	ENDS
;	COMDAT ?iwm_lbuttondown@HeroRankingListBtn@@UAEXABVioMouse@@@Z
_TEXT	SEGMENT
_kRankData$ = -56					; size = 44
__$EHRec$ = -12						; size = 12
_mouse$ = 8						; size = 4
?iwm_lbuttondown@HeroRankingListBtn@@UAEXABVioMouse@@@Z PROC ; HeroRankingListBtn::iwm_lbuttondown, COMDAT
; _this$ = ecx

; 1271 : {

  00000	6a 2c		 push	 44			; 0000002cH
  00002	b8 00 00 00 00	 mov	 eax, __ehhandler$?iwm_lbuttondown@HeroRankingListBtn@@UAEXABVioMouse@@@Z
  00007	e8 00 00 00 00	 call	 __EH_prolog3
  0000c	8b f1		 mov	 esi, ecx

; 1272 : 	HeroRankData kRankData = g_CampMgr.GetHeroData( m_iHeroRank );

  0000e	ff b6 fc 01 00
	00		 push	 DWORD PTR [esi+508]
  00014	8d 45 c8	 lea	 eax, DWORD PTR _kRankData$[ebp]
  00017	50		 push	 eax
  00018	e8 00 00 00 00	 call	 ?GetSingleton@ioCampManager@@SAAAV1@XZ ; ioCampManager::GetSingleton
  0001d	8b c8		 mov	 ecx, eax
  0001f	e8 00 00 00 00	 call	 ?GetHeroData@ioCampManager@@QAE?AUtagHeroRankData@@H@Z ; ioCampManager::GetHeroData
  00024	83 65 fc 00	 and	 DWORD PTR __$EHRec$[ebp+8], 0

; 1273 : 	if( kRankData.m_szNick.IsEmpty() )

  00028	8d 4d d0	 lea	 ecx, DWORD PTR _kRankData$[ebp+8]
  0002b	ff 15 00 00 00
	00		 call	 DWORD PTR __imp_?IsEmpty@ioHashString@@QBE_NXZ
  00031	84 c0		 test	 al, al

; 1274 : 		return;

  00033	75 0b		 jne	 SHORT $LN12@iwm_lbutto

; 1275 : 	ioButton::iwm_lbuttondown( mouse );

  00035	ff 75 08	 push	 DWORD PTR _mouse$[ebp]
  00038	8b ce		 mov	 ecx, esi
  0003a	ff 15 00 00 00
	00		 call	 DWORD PTR __imp_?iwm_lbuttondown@ioButton@@UAEXABVioMouse@@@Z
$LN12@iwm_lbutto:

; 1276 : }

  00040	83 4d fc ff	 or	 DWORD PTR __$EHRec$[ebp+8], -1
  00044	8d 4d d0	 lea	 ecx, DWORD PTR _kRankData$[ebp+8]
  00047	ff 15 00 00 00
	00		 call	 DWORD PTR __imp_??1ioHashString@@QAE@XZ
  0004d	e8 00 00 00 00	 call	 __EH_epilog3
  00052	c2 04 00	 ret	 4
_TEXT	ENDS
;	COMDAT text$x
text$x	SEGMENT
__unwindfunclet$?iwm_lbuttondown@HeroRankingListBtn@@UAEXABVioMouse@@@Z$0:
  00000	8d 4d c8	 lea	 ecx, DWORD PTR _kRankData$[ebp]
  00003	e9 00 00 00 00	 jmp	 ??1tagHeroRankData@@QAE@XZ
__ehhandler$?iwm_lbuttondown@HeroRankingListBtn@@UAEXABVioMouse@@@Z:
  00008	8b 54 24 08	 mov	 edx, DWORD PTR [esp+8]
  0000c	8d 42 0c	 lea	 eax, DWORD PTR [edx+12]
  0000f	8b 4a c4	 mov	 ecx, DWORD PTR [edx-60]
  00012	33 c8		 xor	 ecx, eax
  00014	e8 00 00 00 00	 call	 @__security_check_cookie@4
  00019	b8 00 00 00 00	 mov	 eax, OFFSET __ehfuncinfo$?iwm_lbuttondown@HeroRankingListBtn@@UAEXABVioMouse@@@Z
  0001e	e9 00 00 00 00	 jmp	 ___CxxFrameHandler3
text$x	ENDS
?iwm_lbuttondown@HeroRankingListBtn@@UAEXABVioMouse@@@Z ENDP ; HeroRankingListBtn::iwm_lbuttondown
PUBLIC	?SetHeroInfo@HeroRankingListBtn@@QAEXH@Z	; HeroRankingListBtn::SetHeroInfo
EXTRN	__imp_??4ioHashString@@QAEAAV0@ABV0@@Z:PROC
EXTRN	?GetCampName@TournamentNode@@QAEAAVioHashString@@E@Z:PROC ; TournamentNode::GetCampName
EXTRN	?GetTournament@ioTournamentManager@@QAEPAVTournamentNode@@K_N@Z:PROC ; ioTournamentManager::GetTournament
EXTRN	?GetRegularIndex@ioTournamentManager@@QAEKXZ:PROC ; ioTournamentManager::GetRegularIndex
EXTRN	?GetSingleton@ioTournamentManager@@SAAAV1@XZ:PROC ; ioTournamentManager::GetSingleton
; Function compile flags: /Ogsp
;	COMDAT ?SetHeroInfo@HeroRankingListBtn@@QAEXH@Z
_TEXT	SEGMENT
_iHeroRank$ = 8						; size = 4
?SetHeroInfo@HeroRankingListBtn@@QAEXH@Z PROC		; HeroRankingListBtn::SetHeroInfo, COMDAT
; _this$ = ecx

; 1279 : {

  00000	55		 push	 ebp
  00001	8b ec		 mov	 ebp, esp

; 1280 : 	m_iHeroRank   = iHeroRank;	

  00003	8b 45 08	 mov	 eax, DWORD PTR _iHeroRank$[ebp]
  00006	53		 push	 ebx
  00007	56		 push	 esi
  00008	8b f1		 mov	 esi, ecx

; 1281 : 
; 1282 : 	TournamentNode *pTournament = g_TournamentMgr.GetTournament( g_TournamentMgr.GetRegularIndex() );

  0000a	6a 01		 push	 1
  0000c	89 86 fc 01 00
	00		 mov	 DWORD PTR [esi+508], eax
  00012	e8 00 00 00 00	 call	 ?GetSingleton@ioTournamentManager@@SAAAV1@XZ ; ioTournamentManager::GetSingleton
  00017	8b c8		 mov	 ecx, eax
  00019	e8 00 00 00 00	 call	 ?GetRegularIndex@ioTournamentManager@@QAEKXZ ; ioTournamentManager::GetRegularIndex
  0001e	50		 push	 eax
  0001f	e8 00 00 00 00	 call	 ?GetSingleton@ioTournamentManager@@SAAAV1@XZ ; ioTournamentManager::GetSingleton
  00024	8b c8		 mov	 ecx, eax
  00026	e8 00 00 00 00	 call	 ?GetTournament@ioTournamentManager@@QAEPAVTournamentNode@@K_N@Z ; ioTournamentManager::GetTournament
  0002b	8b d8		 mov	 ebx, eax

; 1283 : 	if( pTournament == NULL ) return;

  0002d	85 db		 test	 ebx, ebx
  0002f	74 2c		 je	 SHORT $LN2@SetHeroInf

; 1284 : 
; 1285 : 	m_szBlueCampName = pTournament->GetCampName( CAMP_BLUE );

  00031	57		 push	 edi
  00032	6a 01		 push	 1
  00034	8b cb		 mov	 ecx, ebx
  00036	e8 00 00 00 00	 call	 ?GetCampName@TournamentNode@@QAEAAVioHashString@@E@Z ; TournamentNode::GetCampName
  0003b	8b 3d 00 00 00
	00		 mov	 edi, DWORD PTR __imp_??4ioHashString@@QAEAAV0@ABV0@@Z
  00041	50		 push	 eax
  00042	8d 8e 00 02 00
	00		 lea	 ecx, DWORD PTR [esi+512]
  00048	ff d7		 call	 edi

; 1286 : 	m_szRedCampName = pTournament->GetCampName( CAMP_RED );

  0004a	6a 02		 push	 2
  0004c	8b cb		 mov	 ecx, ebx
  0004e	e8 00 00 00 00	 call	 ?GetCampName@TournamentNode@@QAEAAVioHashString@@E@Z ; TournamentNode::GetCampName
  00053	50		 push	 eax
  00054	8d 8e 10 02 00
	00		 lea	 ecx, DWORD PTR [esi+528]
  0005a	ff d7		 call	 edi
  0005c	5f		 pop	 edi
$LN2@SetHeroInf:
  0005d	5e		 pop	 esi
  0005e	5b		 pop	 ebx

; 1287 : }

  0005f	5d		 pop	 ebp
  00060	c2 04 00	 ret	 4
?SetHeroInfo@HeroRankingListBtn@@QAEXH@Z ENDP		; HeroRankingListBtn::SetHeroInfo
_TEXT	ENDS
PUBLIC	__real@42d20000
PUBLIC	??_C@_01JOAMLHOP@?9?$AA@			; `string'
PUBLIC	__real@3f19999a
PUBLIC	??_C@_0BN@GOADDKFI@HeroRankingListBtn?3?3OnRender?$AA@ ; `string'
PUBLIC	??_C@_00CNPNBAHC@?$AA@				; `string'
EXTRN	__imp_?PrintText@ioFontManager@@QAEXMMMPBDHH@Z:PROC
EXTRN	__imp_?PrintText@ioFontManager@@QAEXMMMPBD0@Z:PROC
EXTRN	?GetHeroTitleString@ioMyLevelMgr@@QAEABVioHashString@@K@Z:PROC ; ioMyLevelMgr::GetHeroTitleString
EXTRN	__imp_?PrintTextWidthCut@ioFontManager@@QAAXMMMMPBDZZ:PROC
EXTRN	__imp_?c_str@ioHashString@@QBEPBDXZ:PROC
EXTRN	?RenderGrade@ioMyLevelMgr@@QAEXABVioHashString@@HHKW4TeamType@@W4UIRenderType@@K@Z:PROC ; ioMyLevelMgr::RenderGrade
EXTRN	__imp_?PrintText@ioFontManager@@QAAXMMMPBDZZ:PROC
EXTRN	__imp_?PrintText@ioFontManager@@QAEXMMMPBDH@Z:PROC
EXTRN	__imp_?GetString@ioStringManager@@QAEPADPBD0HW4FileNamePrefix@1@@Z:PROC
EXTRN	__imp_?GetSingleton@ioStringManager@@SAAAV1@XZ:PROC
EXTRN	__imp_?SetTextColor@ioFontManager@@QAEXK@Z:PROC
EXTRN	__imp_?SetAlignType@ioFontManager@@QAEXW4TextAlignType@@@Z:PROC
EXTRN	__imp_?SetBkColor@ioFontManager@@QAEXHHH@Z:PROC
EXTRN	__imp_?SetTextStyle@ioFontManager@@QAEXW4TextStyle@@@Z:PROC
EXTRN	__imp_?GetSingleton@ioFontManager@@SAAAV1@XZ:PROC
EXTRN	__imp_?GetDerivedPosY@ioWnd@@QBEHXZ:PROC
EXTRN	__imp_?GetDerivedPosX@ioWnd@@QBEHXZ:PROC
EXTRN	__imp_?OnRender@ioButton@@MAEXXZ:PROC
;	COMDAT __real@42d20000
CONST	SEGMENT
__real@42d20000 DD 042d20000r			; 105
CONST	ENDS
;	COMDAT ??_C@_01JOAMLHOP@?9?$AA@
CONST	SEGMENT
??_C@_01JOAMLHOP@?9?$AA@ DB '-', 00H			; `string'
CONST	ENDS
;	COMDAT __real@3f19999a
CONST	SEGMENT
__real@3f19999a DD 03f19999ar			; 0.6
CONST	ENDS
;	COMDAT ??_C@_0BN@GOADDKFI@HeroRankingListBtn?3?3OnRender?$AA@
CONST	SEGMENT
??_C@_0BN@GOADDKFI@HeroRankingListBtn?3?3OnRender?$AA@ DB 'HeroRankingLis'
	DB	'tBtn::OnRender', 00H			; `string'
CONST	ENDS
;	COMDAT ??_C@_00CNPNBAHC@?$AA@
CONST	SEGMENT
??_C@_00CNPNBAHC@?$AA@ DB 00H				; `string'
CONST	ENDS
;	COMDAT xdata$x
xdata$x	SEGMENT
__unwindtable$?OnRender@HeroRankingListBtn@@MAEXXZ DD 0ffffffffH
	DD	FLAT:__unwindfunclet$?OnRender@HeroRankingListBtn@@MAEXXZ$0
__ehfuncinfo$?OnRender@HeroRankingListBtn@@MAEXXZ DD 019930522H
	DD	01H
	DD	FLAT:__unwindtable$?OnRender@HeroRankingListBtn@@MAEXXZ
	DD	2 DUP(00H)
	DD	2 DUP(00H)
	DD	00H
	DD	01H
; Function compile flags: /Ogsp
xdata$x	ENDS
;	COMDAT ?OnRender@HeroRankingListBtn@@MAEXXZ
_TEXT	SEGMENT
_kRankData$ = -68					; size = 44
tv389 = -24						; size = 4
tv352 = -24						; size = 4
tv317 = -24						; size = 4
_iLose$528867 = -24					; size = 4
_iWin$528866 = -20					; size = 4
_iYPos$ = -20						; size = 4
tv428 = -16						; size = 4
__$EHRec$ = -12						; size = 12
?OnRender@HeroRankingListBtn@@MAEXXZ PROC		; HeroRankingListBtn::OnRender, COMDAT
; _this$ = ecx

; 1290 : {

  00000	6a 38		 push	 56			; 00000038H
  00002	b8 00 00 00 00	 mov	 eax, __ehhandler$?OnRender@HeroRankingListBtn@@MAEXXZ
  00007	e8 00 00 00 00	 call	 __EH_prolog3
  0000c	8b d9		 mov	 ebx, ecx

; 1291 : 	ioButton::OnRender();

  0000e	ff 15 00 00 00
	00		 call	 DWORD PTR __imp_?OnRender@ioButton@@MAEXXZ

; 1292 : 
; 1293 : 	int iXPos = GetDerivedPosX();

  00014	8b cb		 mov	 ecx, ebx
  00016	ff 15 00 00 00
	00		 call	 DWORD PTR __imp_?GetDerivedPosX@ioWnd@@QBEHXZ

; 1294 : 	int iYPos = GetDerivedPosY();

  0001c	8b cb		 mov	 ecx, ebx
  0001e	8b f8		 mov	 edi, eax
  00020	ff 15 00 00 00
	00		 call	 DWORD PTR __imp_?GetDerivedPosY@ioWnd@@QBEHXZ

; 1295 : 
; 1296 : 	HeroRankData kRankData = g_CampMgr.GetHeroData( m_iHeroRank );

  00026	ff b3 fc 01 00
	00		 push	 DWORD PTR [ebx+508]
  0002c	89 45 ec	 mov	 DWORD PTR _iYPos$[ebp], eax
  0002f	8d 45 bc	 lea	 eax, DWORD PTR _kRankData$[ebp]
  00032	50		 push	 eax
  00033	e8 00 00 00 00	 call	 ?GetSingleton@ioCampManager@@SAAAV1@XZ ; ioCampManager::GetSingleton
  00038	8b c8		 mov	 ecx, eax
  0003a	e8 00 00 00 00	 call	 ?GetHeroData@ioCampManager@@QAE?AUtagHeroRankData@@H@Z ; ioCampManager::GetHeroData

; 1297 : 
; 1298 : 	g_FontMgr.SetTextStyle( TS_NORMAL );

  0003f	8b 35 00 00 00
	00		 mov	 esi, DWORD PTR __imp_?GetSingleton@ioFontManager@@SAAAV1@XZ
  00045	83 65 fc 00	 and	 DWORD PTR __$EHRec$[ebp+8], 0
  00049	6a 00		 push	 0
  0004b	ff d6		 call	 esi
  0004d	8b c8		 mov	 ecx, eax
  0004f	ff 15 00 00 00
	00		 call	 DWORD PTR __imp_?SetTextStyle@ioFontManager@@QAEXW4TextStyle@@@Z

; 1299 : 	g_FontMgr.SetBkColor( 0, 0, 0 );

  00055	33 c0		 xor	 eax, eax
  00057	50		 push	 eax
  00058	50		 push	 eax
  00059	50		 push	 eax
  0005a	ff d6		 call	 esi
  0005c	8b c8		 mov	 ecx, eax
  0005e	ff 15 00 00 00
	00		 call	 DWORD PTR __imp_?SetBkColor@ioFontManager@@QAEXHHH@Z

; 1300 : 	g_FontMgr.SetAlignType( TAT_LEFT );

  00064	6a 00		 push	 0
  00066	ff d6		 call	 esi
  00068	8b c8		 mov	 ecx, eax
  0006a	ff 15 00 00 00
	00		 call	 DWORD PTR __imp_?SetAlignType@ioFontManager@@QAEXW4TextAlignType@@@Z

; 1301 : 	if( m_bOver || m_bClicked )

  00070	80 bb a8 00 00
	00 00		 cmp	 BYTE PTR [ebx+168], 0
  00077	75 10		 jne	 SHORT $LN17@OnRender
  00079	80 bb a6 00 00
	00 00		 cmp	 BYTE PTR [ebx+166], 0
  00080	75 07		 jne	 SHORT $LN17@OnRender

; 1303 : 	else
; 1304 : 		g_FontMgr.SetTextColor( TCT_DEFAULT_DARKGRAY ); 

  00082	68 3a 3a 3a ff	 push	 -12961222		; ff3a3a3aH
  00087	eb 02		 jmp	 SHORT $LN31@OnRender
$LN17@OnRender:

; 1302 : 		g_FontMgr.SetTextColor( TCT_DEFAULT_WHITE ); 

  00089	6a ff		 push	 -1
$LN31@OnRender:
  0008b	ff d6		 call	 esi
  0008d	8b c8		 mov	 ecx, eax
  0008f	ff 15 00 00 00
	00		 call	 DWORD PTR __imp_?SetTextColor@ioFontManager@@QAEXK@Z

; 1305 : 	g_FontMgr.PrintText( iXPos + 6, iYPos + 3, FONT_SIZE_12, STR(1), kRankData.m_iRank );

  00095	ff 75 bc	 push	 DWORD PTR _kRankData$[ebp]
  00098	8b 45 ec	 mov	 eax, DWORD PTR _iYPos$[ebp]
  0009b	6a 00		 push	 0
  0009d	6a 01		 push	 1
  0009f	83 c0 03	 add	 eax, 3
  000a2	0f 57 c0	 xorps	 xmm0, xmm0
  000a5	68 00 00 00 00	 push	 OFFSET ??_C@_00CNPNBAHC@?$AA@
  000aa	f3 0f 2a c0	 cvtsi2ss xmm0, eax
  000ae	68 00 00 00 00	 push	 OFFSET ??_C@_0BN@GOADDKFI@HeroRankingListBtn?3?3OnRender?$AA@
  000b3	f3 0f 11 45 f0	 movss	 DWORD PTR tv428[ebp], xmm0
  000b8	ff 15 00 00 00
	00		 call	 DWORD PTR __imp_?GetSingleton@ioStringManager@@SAAAV1@XZ
  000be	8b c8		 mov	 ecx, eax
  000c0	ff 15 00 00 00
	00		 call	 DWORD PTR __imp_?GetString@ioStringManager@@QAEPADPBD0HW4FileNamePrefix@1@@Z
  000c6	f3 0f 10 05 00
	00 00 00	 movss	 xmm0, DWORD PTR __real@3f19999a
  000ce	50		 push	 eax
  000cf	83 ec 0c	 sub	 esp, 12			; 0000000cH
  000d2	f3 0f 11 44 24
	08		 movss	 DWORD PTR [esp+8], xmm0
  000d8	f3 0f 10 45 f0	 movss	 xmm0, DWORD PTR tv428[ebp]
  000dd	f3 0f 11 44 24
	04		 movss	 DWORD PTR [esp+4], xmm0
  000e3	8d 47 06	 lea	 eax, DWORD PTR [edi+6]
  000e6	0f 57 c0	 xorps	 xmm0, xmm0
  000e9	f3 0f 2a c0	 cvtsi2ss xmm0, eax
  000ed	f3 0f 11 04 24	 movss	 DWORD PTR [esp], xmm0
  000f2	ff d6		 call	 esi
  000f4	8b c8		 mov	 ecx, eax
  000f6	ff 15 00 00 00
	00		 call	 DWORD PTR __imp_?PrintText@ioFontManager@@QAEXMMMPBDH@Z

; 1306 : 
; 1307 : 	if( kRankData.m_szNick.IsEmpty() )

  000fc	8d 4d c4	 lea	 ecx, DWORD PTR _kRankData$[ebp+8]
  000ff	ff 15 00 00 00
	00		 call	 DWORD PTR __imp_?IsEmpty@ioHashString@@QBE_NXZ
  00105	84 c0		 test	 al, al
  00107	74 41		 je	 SHORT $LN15@OnRender

; 1308 : 	{
; 1309 : 		g_FontMgr.PrintText( iXPos + 50, iYPos + 3, FONT_SIZE_12, "-" );

  00109	f3 0f 10 05 00
	00 00 00	 movss	 xmm0, DWORD PTR __real@3f19999a
  00111	68 00 00 00 00	 push	 OFFSET ??_C@_01JOAMLHOP@?9?$AA@
  00116	83 ec 0c	 sub	 esp, 12			; 0000000cH
  00119	f3 0f 11 44 24
	08		 movss	 DWORD PTR [esp+8], xmm0
  0011f	f3 0f 10 45 f0	 movss	 xmm0, DWORD PTR tv428[ebp]
  00124	f3 0f 11 44 24
	04		 movss	 DWORD PTR [esp+4], xmm0
  0012a	83 c7 32	 add	 edi, 50			; 00000032H
  0012d	0f 57 c0	 xorps	 xmm0, xmm0
  00130	f3 0f 2a c7	 cvtsi2ss xmm0, edi
  00134	f3 0f 11 04 24	 movss	 DWORD PTR [esp], xmm0
  00139	ff d6		 call	 esi
  0013b	50		 push	 eax
  0013c	ff 15 00 00 00
	00		 call	 DWORD PTR __imp_?PrintText@ioFontManager@@QAAXMMMPBDZZ
  00142	83 c4 14	 add	 esp, 20			; 00000014H

; 1310 : 	}
; 1311 : 	else

  00145	e9 ce 02 00 00	 jmp	 $LN14@OnRender
$LN15@OnRender:

; 1312 : 	{
; 1313 : 		// 
; 1314 : 		g_FontMgr.SetTextStyle( TS_NORMAL );

  0014a	6a 00		 push	 0
  0014c	ff d6		 call	 esi
  0014e	8b c8		 mov	 ecx, eax
  00150	ff 15 00 00 00
	00		 call	 DWORD PTR __imp_?SetTextStyle@ioFontManager@@QAEXW4TextStyle@@@Z

; 1315 : 		g_FontMgr.SetBkColor( 0, 0, 0 );

  00156	33 c0		 xor	 eax, eax
  00158	50		 push	 eax
  00159	50		 push	 eax
  0015a	50		 push	 eax
  0015b	ff d6		 call	 esi
  0015d	8b c8		 mov	 ecx, eax
  0015f	ff 15 00 00 00
	00		 call	 DWORD PTR __imp_?SetBkColor@ioFontManager@@QAEXHHH@Z

; 1316 : 		g_FontMgr.SetAlignType( TAT_LEFT );

  00165	6a 00		 push	 0
  00167	ff d6		 call	 esi
  00169	8b c8		 mov	 ecx, eax
  0016b	ff 15 00 00 00
	00		 call	 DWORD PTR __imp_?SetAlignType@ioFontManager@@QAEXW4TextAlignType@@@Z

; 1317 : 		if( m_bOver || m_bClicked )

  00171	80 bb a8 00 00
	00 00		 cmp	 BYTE PTR [ebx+168], 0
  00178	75 34		 jne	 SHORT $LN12@OnRender
  0017a	80 bb a6 00 00
	00 00		 cmp	 BYTE PTR [ebx+166], 0
  00181	75 2b		 jne	 SHORT $LN12@OnRender

; 1321 : 		}
; 1322 : 		else
; 1323 : 		{
; 1324 : 			g_LevelMgr.RenderGrade( kRankData.m_szNick, iXPos + 50, iYPos + 2, kRankData.m_iGradeLevel, TEAM_PRIVATE_1 );

  00183	8b 45 ec	 mov	 eax, DWORD PTR _iYPos$[ebp]
  00186	6a ff		 push	 -1
  00188	6a 00		 push	 0
  0018a	6a 03		 push	 3
  0018c	ff 75 c0	 push	 DWORD PTR _kRankData$[ebp+4]
  0018f	83 c0 02	 add	 eax, 2
  00192	50		 push	 eax
  00193	8d 47 32	 lea	 eax, DWORD PTR [edi+50]
  00196	50		 push	 eax
  00197	8d 45 c4	 lea	 eax, DWORD PTR _kRankData$[ebp+8]
  0019a	50		 push	 eax
  0019b	e8 00 00 00 00	 call	 ?GetSingleton@ioMyLevelMgr@@SAAAV1@XZ ; ioMyLevelMgr::GetSingleton
  001a0	8b c8		 mov	 ecx, eax
  001a2	e8 00 00 00 00	 call	 ?RenderGrade@ioMyLevelMgr@@QAEXABVioHashString@@HHKW4TeamType@@W4UIRenderType@@K@Z ; ioMyLevelMgr::RenderGrade

; 1325 : 			g_FontMgr.SetTextColor( TCT_DEFAULT_DARKGRAY ); 

  001a7	68 3a 3a 3a ff	 push	 -12961222		; ff3a3a3aH
  001ac	eb 26		 jmp	 SHORT $LN32@OnRender
$LN12@OnRender:

; 1318 : 		{
; 1319 : 			g_LevelMgr.RenderGrade( kRankData.m_szNick, iXPos + 50, iYPos + 2, kRankData.m_iGradeLevel, TEAM_PRIVATE_1, UI_RENDER_NORMAL_ADD_COLOR, TCT_DEFAULT_WHITE );

  001ae	8b 45 ec	 mov	 eax, DWORD PTR _iYPos$[ebp]
  001b1	6a ff		 push	 -1
  001b3	6a 04		 push	 4
  001b5	6a 03		 push	 3
  001b7	ff 75 c0	 push	 DWORD PTR _kRankData$[ebp+4]
  001ba	83 c0 02	 add	 eax, 2
  001bd	50		 push	 eax
  001be	8d 47 32	 lea	 eax, DWORD PTR [edi+50]
  001c1	50		 push	 eax
  001c2	8d 45 c4	 lea	 eax, DWORD PTR _kRankData$[ebp+8]
  001c5	50		 push	 eax
  001c6	e8 00 00 00 00	 call	 ?GetSingleton@ioMyLevelMgr@@SAAAV1@XZ ; ioMyLevelMgr::GetSingleton
  001cb	8b c8		 mov	 ecx, eax
  001cd	e8 00 00 00 00	 call	 ?RenderGrade@ioMyLevelMgr@@QAEXABVioHashString@@HHKW4TeamType@@W4UIRenderType@@K@Z ; ioMyLevelMgr::RenderGrade

; 1320 : 			g_FontMgr.SetTextColor( TCT_DEFAULT_WHITE ); 

  001d2	6a ff		 push	 -1
$LN32@OnRender:
  001d4	ff d6		 call	 esi
  001d6	8b c8		 mov	 ecx, eax
  001d8	ff 15 00 00 00
	00		 call	 DWORD PTR __imp_?SetTextColor@ioFontManager@@QAEXK@Z

; 1326 : 		}
; 1327 : 
; 1328 : 		// 
; 1329 : 		g_FontMgr.PrintTextWidthCut( iXPos + 69, iYPos + 3, FONT_SIZE_12, 105.0f, kRankData.m_szNick.c_str() );

  001de	8d 4d c4	 lea	 ecx, DWORD PTR _kRankData$[ebp+8]
  001e1	ff 15 00 00 00
	00		 call	 DWORD PTR __imp_?c_str@ioHashString@@QBEPBDXZ
  001e7	f3 0f 10 05 00
	00 00 00	 movss	 xmm0, DWORD PTR __real@42d20000
  001ef	50		 push	 eax
  001f0	83 ec 10	 sub	 esp, 16			; 00000010H
  001f3	f3 0f 11 44 24
	0c		 movss	 DWORD PTR [esp+12], xmm0
  001f9	f3 0f 10 05 00
	00 00 00	 movss	 xmm0, DWORD PTR __real@3f19999a
  00201	f3 0f 11 44 24
	08		 movss	 DWORD PTR [esp+8], xmm0
  00207	f3 0f 10 45 f0	 movss	 xmm0, DWORD PTR tv428[ebp]
  0020c	f3 0f 11 44 24
	04		 movss	 DWORD PTR [esp+4], xmm0
  00212	8d 47 45	 lea	 eax, DWORD PTR [edi+69]
  00215	0f 57 c0	 xorps	 xmm0, xmm0
  00218	f3 0f 2a c0	 cvtsi2ss xmm0, eax
  0021c	f3 0f 11 04 24	 movss	 DWORD PTR [esp], xmm0
  00221	ff d6		 call	 esi
  00223	50		 push	 eax
  00224	ff 15 00 00 00
	00		 call	 DWORD PTR __imp_?PrintTextWidthCut@ioFontManager@@QAAXMMMMPBDZZ
  0022a	83 c4 18	 add	 esp, 24			; 00000018H

; 1330 : 		
; 1331 : 		if( m_bOver || m_bClicked )

  0022d	80 bb a8 00 00
	00 00		 cmp	 BYTE PTR [ebx+168], 0
  00234	75 2a		 jne	 SHORT $LN9@OnRender
  00236	80 bb a6 00 00
	00 00		 cmp	 BYTE PTR [ebx+166], 0
  0023d	75 21		 jne	 SHORT $LN9@OnRender

; 1333 : 		else if( kRankData.m_iCampPos == CAMP_BLUE )

  0023f	83 7d e0 01	 cmp	 DWORD PTR _kRankData$[ebp+36], 1
  00243	75 07		 jne	 SHORT $LN7@OnRender

; 1334 : 			g_FontMgr.SetTextColor( TCT_DEFAULT_BLUE ); 

  00245	68 b2 46 16 ff	 push	 -15317326		; ff1646b2H
  0024a	eb 16		 jmp	 SHORT $LN33@OnRender
$LN7@OnRender:

; 1335 : 		else if( kRankData.m_iCampPos == CAMP_RED )

  0024c	83 7d e0 02	 cmp	 DWORD PTR _kRankData$[ebp+36], 2
  00250	75 07		 jne	 SHORT $LN5@OnRender

; 1336 : 			g_FontMgr.SetTextColor( TCT_DEFAULT_RED ); 

  00252	68 00 16 b9 ff	 push	 -4647424		; ffb91600H

; 1337 : 		else

  00257	eb 09		 jmp	 SHORT $LN33@OnRender
$LN5@OnRender:

; 1338 : 			g_FontMgr.SetTextColor( TCT_DEFAULT_DARKGRAY ); 

  00259	68 3a 3a 3a ff	 push	 -12961222		; ff3a3a3aH
  0025e	eb 02		 jmp	 SHORT $LN33@OnRender
$LN9@OnRender:

; 1332 : 			g_FontMgr.SetTextColor( TCT_DEFAULT_WHITE ); 

  00260	6a ff		 push	 -1
$LN33@OnRender:
  00262	ff d6		 call	 esi
  00264	8b c8		 mov	 ecx, eax
  00266	ff 15 00 00 00
	00		 call	 DWORD PTR __imp_?SetTextColor@ioFontManager@@QAEXK@Z

; 1339 : 
; 1340 : 		g_FontMgr.SetAlignType( TAT_CENTER );

  0026c	6a 01		 push	 1
  0026e	ff d6		 call	 esi
  00270	8b c8		 mov	 ecx, eax
  00272	ff 15 00 00 00
	00		 call	 DWORD PTR __imp_?SetAlignType@ioFontManager@@QAEXW4TextAlignType@@@Z

; 1341 : 		g_FontMgr.PrintText( iXPos + 236, iYPos + 3, FONT_SIZE_12, STR(9), g_LevelMgr.GetHeroTitleString( kRankData.m_iHeroTitle ).c_str() );

  00278	ff 75 d4	 push	 DWORD PTR _kRankData$[ebp+24]
  0027b	e8 00 00 00 00	 call	 ?GetSingleton@ioMyLevelMgr@@SAAAV1@XZ ; ioMyLevelMgr::GetSingleton
  00280	8b c8		 mov	 ecx, eax
  00282	e8 00 00 00 00	 call	 ?GetHeroTitleString@ioMyLevelMgr@@QAEABVioHashString@@K@Z ; ioMyLevelMgr::GetHeroTitleString
  00287	8b c8		 mov	 ecx, eax
  00289	ff 15 00 00 00
	00		 call	 DWORD PTR __imp_?c_str@ioHashString@@QBEPBDXZ
  0028f	50		 push	 eax
  00290	6a 00		 push	 0
  00292	6a 09		 push	 9
  00294	68 00 00 00 00	 push	 OFFSET ??_C@_00CNPNBAHC@?$AA@
  00299	68 00 00 00 00	 push	 OFFSET ??_C@_0BN@GOADDKFI@HeroRankingListBtn?3?3OnRender?$AA@
  0029e	ff 15 00 00 00
	00		 call	 DWORD PTR __imp_?GetSingleton@ioStringManager@@SAAAV1@XZ
  002a4	8b c8		 mov	 ecx, eax
  002a6	ff 15 00 00 00
	00		 call	 DWORD PTR __imp_?GetString@ioStringManager@@QAEPADPBD0HW4FileNamePrefix@1@@Z
  002ac	f3 0f 10 05 00
	00 00 00	 movss	 xmm0, DWORD PTR __real@3f19999a
  002b4	50		 push	 eax
  002b5	83 ec 0c	 sub	 esp, 12			; 0000000cH
  002b8	f3 0f 11 44 24
	08		 movss	 DWORD PTR [esp+8], xmm0
  002be	f3 0f 10 45 f0	 movss	 xmm0, DWORD PTR tv428[ebp]
  002c3	f3 0f 11 44 24
	04		 movss	 DWORD PTR [esp+4], xmm0
  002c9	8d 87 ec 00 00
	00		 lea	 eax, DWORD PTR [edi+236]
  002cf	0f 57 c0	 xorps	 xmm0, xmm0
  002d2	f3 0f 2a c0	 cvtsi2ss xmm0, eax
  002d6	f3 0f 11 04 24	 movss	 DWORD PTR [esp], xmm0
  002db	ff d6		 call	 esi
  002dd	8b c8		 mov	 ecx, eax
  002df	ff 15 00 00 00
	00		 call	 DWORD PTR __imp_?PrintText@ioFontManager@@QAEXMMMPBD0@Z

; 1342 : 
; 1343 : 		int iWin = kRankData.m_iHeroWin / 30;

  002e5	8b 45 d8	 mov	 eax, DWORD PTR _kRankData$[ebp+28]
  002e8	99		 cdq
  002e9	6a 1e		 push	 30			; 0000001eH
  002eb	59		 pop	 ecx
  002ec	f7 f9		 idiv	 ecx

; 1344 : 		int iLose= kRankData.m_iHeroLose / 10;

  002ee	6a 0a		 push	 10			; 0000000aH
  002f0	59		 pop	 ecx
  002f1	89 45 ec	 mov	 DWORD PTR _iWin$528866[ebp], eax
  002f4	8b 45 dc	 mov	 eax, DWORD PTR _kRankData$[ebp+32]
  002f7	99		 cdq
  002f8	f7 f9		 idiv	 ecx

; 1345 : 		if( m_bOver || m_bClicked )

  002fa	80 bb a8 00 00
	00 00		 cmp	 BYTE PTR [ebx+168], 0
  00301	89 45 e8	 mov	 DWORD PTR _iLose$528867[ebp], eax
  00304	75 10		 jne	 SHORT $LN2@OnRender
  00306	80 bb a6 00 00
	00 00		 cmp	 BYTE PTR [ebx+166], 0
  0030d	75 07		 jne	 SHORT $LN2@OnRender

; 1347 : 		else
; 1348 : 			g_FontMgr.SetTextColor( TCT_DEFAULT_DARKGRAY ); 

  0030f	68 3a 3a 3a ff	 push	 -12961222		; ff3a3a3aH
  00314	eb 02		 jmp	 SHORT $LN34@OnRender
$LN2@OnRender:

; 1346 : 			g_FontMgr.SetTextColor( TCT_DEFAULT_WHITE ); 

  00316	6a ff		 push	 -1
$LN34@OnRender:
  00318	ff d6		 call	 esi
  0031a	8b c8		 mov	 ecx, eax
  0031c	ff 15 00 00 00
	00		 call	 DWORD PTR __imp_?SetTextColor@ioFontManager@@QAEXK@Z

; 1349 : 		g_FontMgr.PrintText( iXPos + 333, iYPos + 3, FONT_SIZE_12, STR(6), iWin, iLose );

  00322	ff 75 e8	 push	 DWORD PTR _iLose$528867[ebp]
  00325	8b 1d 00 00 00
	00		 mov	 ebx, DWORD PTR __imp_?GetSingleton@ioStringManager@@SAAAV1@XZ
  0032b	ff 75 ec	 push	 DWORD PTR _iWin$528866[ebp]
  0032e	6a 00		 push	 0
  00330	6a 06		 push	 6
  00332	68 00 00 00 00	 push	 OFFSET ??_C@_00CNPNBAHC@?$AA@
  00337	68 00 00 00 00	 push	 OFFSET ??_C@_0BN@GOADDKFI@HeroRankingListBtn?3?3OnRender?$AA@
  0033c	ff d3		 call	 ebx
  0033e	8b c8		 mov	 ecx, eax
  00340	ff 15 00 00 00
	00		 call	 DWORD PTR __imp_?GetString@ioStringManager@@QAEPADPBD0HW4FileNamePrefix@1@@Z
  00346	f3 0f 10 05 00
	00 00 00	 movss	 xmm0, DWORD PTR __real@3f19999a
  0034e	50		 push	 eax
  0034f	83 ec 0c	 sub	 esp, 12			; 0000000cH
  00352	f3 0f 11 44 24
	08		 movss	 DWORD PTR [esp+8], xmm0
  00358	f3 0f 10 45 f0	 movss	 xmm0, DWORD PTR tv428[ebp]
  0035d	f3 0f 11 44 24
	04		 movss	 DWORD PTR [esp+4], xmm0
  00363	8d 87 4d 01 00
	00		 lea	 eax, DWORD PTR [edi+333]
  00369	0f 57 c0	 xorps	 xmm0, xmm0
  0036c	f3 0f 2a c0	 cvtsi2ss xmm0, eax
  00370	f3 0f 11 04 24	 movss	 DWORD PTR [esp], xmm0
  00375	ff d6		 call	 esi
  00377	8b c8		 mov	 ecx, eax
  00379	ff 15 00 00 00
	00		 call	 DWORD PTR __imp_?PrintText@ioFontManager@@QAEXMMMPBDHH@Z

; 1350 : 		
; 1351 : 		g_FontMgr.SetAlignType( TAT_RIGHT );

  0037f	6a 02		 push	 2
  00381	ff d6		 call	 esi
  00383	8b c8		 mov	 ecx, eax
  00385	ff 15 00 00 00
	00		 call	 DWORD PTR __imp_?SetAlignType@ioFontManager@@QAEXW4TextAlignType@@@Z

; 1352 : 		int iWinRate = ( (float)( (float)iWin / (float)max( 1, iWin + iLose ) ) ) * FLOAT100;

  0038b	8b 45 e8	 mov	 eax, DWORD PTR _iLose$528867[ebp]
  0038e	03 45 ec	 add	 eax, DWORD PTR _iWin$528866[ebp]
  00391	33 c9		 xor	 ecx, ecx
  00393	41		 inc	 ecx
  00394	89 4d e8	 mov	 DWORD PTR tv352[ebp], ecx
  00397	3b c1		 cmp	 eax, ecx
  00399	7c 03		 jl	 SHORT $LN22@OnRender
  0039b	89 45 e8	 mov	 DWORD PTR tv352[ebp], eax
$LN22@OnRender:
  0039e	b8 64 00 00 00	 mov	 eax, 100		; 00000064H
  003a3	db 45 ec	 fild	 DWORD PTR _iWin$528866[ebp]
  003a6	da 75 e8	 fidiv	 DWORD PTR tv352[ebp]
  003a9	d9 5d e8	 fstp	 DWORD PTR tv389[ebp]
  003ac	d9 45 e8	 fld	 DWORD PTR tv389[ebp]
  003af	89 45 e8	 mov	 DWORD PTR tv317[ebp], eax
  003b2	db 45 e8	 fild	 DWORD PTR tv317[ebp]
  003b5	85 c0		 test	 eax, eax
  003b7	79 06		 jns	 SHORT $LN30@OnRender
  003b9	d8 05 00 00 00
	00		 fadd	 DWORD PTR __real@4f800000
$LN30@OnRender:
  003bf	de c9		 fmulp	 ST(1), ST(0)
  003c1	e8 00 00 00 00	 call	 __ftol2_sse

; 1353 : 		g_FontMgr.PrintText( iXPos + 417, iYPos + 3, FONT_SIZE_12, STR(7), iWinRate );

  003c6	50		 push	 eax
  003c7	6a 00		 push	 0
  003c9	6a 07		 push	 7
  003cb	68 00 00 00 00	 push	 OFFSET ??_C@_00CNPNBAHC@?$AA@
  003d0	68 00 00 00 00	 push	 OFFSET ??_C@_0BN@GOADDKFI@HeroRankingListBtn?3?3OnRender?$AA@
  003d5	ff d3		 call	 ebx
  003d7	8b c8		 mov	 ecx, eax
  003d9	ff 15 00 00 00
	00		 call	 DWORD PTR __imp_?GetString@ioStringManager@@QAEPADPBD0HW4FileNamePrefix@1@@Z
  003df	f3 0f 10 05 00
	00 00 00	 movss	 xmm0, DWORD PTR __real@3f19999a
  003e7	50		 push	 eax
  003e8	83 ec 0c	 sub	 esp, 12			; 0000000cH
  003eb	f3 0f 11 44 24
	08		 movss	 DWORD PTR [esp+8], xmm0
  003f1	f3 0f 10 45 f0	 movss	 xmm0, DWORD PTR tv428[ebp]
  003f6	f3 0f 11 44 24
	04		 movss	 DWORD PTR [esp+4], xmm0
  003fc	81 c7 a1 01 00
	00		 add	 edi, 417		; 000001a1H
  00402	0f 57 c0	 xorps	 xmm0, xmm0
  00405	f3 0f 2a c7	 cvtsi2ss xmm0, edi
  00409	f3 0f 11 04 24	 movss	 DWORD PTR [esp], xmm0
  0040e	ff d6		 call	 esi
  00410	8b c8		 mov	 ecx, eax
  00412	ff 15 00 00 00
	00		 call	 DWORD PTR __imp_?PrintText@ioFontManager@@QAEXMMMPBDH@Z
$LN14@OnRender:

; 1354 : 	}
; 1355 : }

  00418	83 4d fc ff	 or	 DWORD PTR __$EHRec$[ebp+8], -1
  0041c	8d 4d c4	 lea	 ecx, DWORD PTR _kRankData$[ebp+8]
  0041f	ff 15 00 00 00
	00		 call	 DWORD PTR __imp_??1ioHashString@@QAE@XZ
  00425	e8 00 00 00 00	 call	 __EH_epilog3
  0042a	c3		 ret	 0
_TEXT	ENDS
;	COMDAT text$x
text$x	SEGMENT
__unwindfunclet$?OnRender@HeroRankingListBtn@@MAEXXZ$0:
  00000	8d 4d bc	 lea	 ecx, DWORD PTR _kRankData$[ebp]
  00003	e9 00 00 00 00	 jmp	 ??1tagHeroRankData@@QAE@XZ
__ehhandler$?OnRender@HeroRankingListBtn@@MAEXXZ:
  00008	8b 54 24 08	 mov	 edx, DWORD PTR [esp+8]
  0000c	8d 42 0c	 lea	 eax, DWORD PTR [edx+12]
  0000f	8b 4a b8	 mov	 ecx, DWORD PTR [edx-72]
  00012	33 c8		 xor	 ecx, eax
  00014	e8 00 00 00 00	 call	 @__security_check_cookie@4
  00019	b8 00 00 00 00	 mov	 eax, OFFSET __ehfuncinfo$?OnRender@HeroRankingListBtn@@MAEXXZ
  0001e	e9 00 00 00 00	 jmp	 ___CxxFrameHandler3
text$x	ENDS
?OnRender@HeroRankingListBtn@@MAEXXZ ENDP		; HeroRankingListBtn::OnRender
PUBLIC	??_7HeroRankingListWnd@@6B@			; HeroRankingListWnd::`vftable'
PUBLIC	??0HeroRankingListWnd@@QAE@XZ			; HeroRankingListWnd::HeroRankingListWnd
PUBLIC	??_R4HeroRankingListWnd@@6B@			; HeroRankingListWnd::`RTTI Complete Object Locator'
PUBLIC	??_R0?AVHeroRankingListWnd@@@8			; HeroRankingListWnd `RTTI Type Descriptor'
PUBLIC	??_R3HeroRankingListWnd@@8			; HeroRankingListWnd::`RTTI Class Hierarchy Descriptor'
PUBLIC	??_R2HeroRankingListWnd@@8			; HeroRankingListWnd::`RTTI Base Class Array'
PUBLIC	??_R1A@?0A@EA@HeroRankingListWnd@@8		; HeroRankingListWnd::`RTTI Base Class Descriptor at (0,-1,0,64)'
PUBLIC	?OnRender@HeroRankingListWnd@@MAEXXZ		; HeroRankingListWnd::OnRender
PUBLIC	?OnProcess@HeroRankingListWnd@@MAEXM@Z		; HeroRankingListWnd::OnProcess
PUBLIC	?iwm_command@HeroRankingListWnd@@UAEXPAVioWnd@@HK@Z ; HeroRankingListWnd::iwm_command
PUBLIC	?iwm_show@HeroRankingListWnd@@UAEXXZ		; HeroRankingListWnd::iwm_show
PUBLIC	?iwm_hide@HeroRankingListWnd@@UAEXXZ		; HeroRankingListWnd::iwm_hide
EXTRN	??_EHeroRankingListWnd@@UAEPAXI@Z:PROC		; HeroRankingListWnd::`vector deleting destructor'
;	COMDAT ??_R1A@?0A@EA@HeroRankingListWnd@@8
rdata$r	SEGMENT
??_R1A@?0A@EA@HeroRankingListWnd@@8 DD FLAT:??_R0?AVHeroRankingListWnd@@@8 ; HeroRankingListWnd::`RTTI Base Class Descriptor at (0,-1,0,64)'
	DD	02H
	DD	00H
	DD	0ffffffffH
	DD	00H
	DD	040H
	DD	FLAT:??_R3HeroRankingListWnd@@8
rdata$r	ENDS
;	COMDAT ??_R2HeroRankingListWnd@@8
rdata$r	SEGMENT
??_R2HeroRankingListWnd@@8 DD FLAT:??_R1A@?0A@EA@HeroRankingListWnd@@8 ; HeroRankingListWnd::`RTTI Base Class Array'
	DD	FLAT:??_R1A@?0A@EA@ioMovingWnd@@8
	DD	FLAT:??_R1A@?0A@EA@ioWnd@@8
rdata$r	ENDS
;	COMDAT ??_R3HeroRankingListWnd@@8
rdata$r	SEGMENT
??_R3HeroRankingListWnd@@8 DD 00H			; HeroRankingListWnd::`RTTI Class Hierarchy Descriptor'
	DD	00H
	DD	03H
	DD	FLAT:??_R2HeroRankingListWnd@@8
rdata$r	ENDS
;	COMDAT ??_R0?AVHeroRankingListWnd@@@8
_DATA	SEGMENT
??_R0?AVHeroRankingListWnd@@@8 DD FLAT:??_7type_info@@6B@ ; HeroRankingListWnd `RTTI Type Descriptor'
	DD	00H
	DB	'.?AVHeroRankingListWnd@@', 00H
_DATA	ENDS
;	COMDAT ??_R4HeroRankingListWnd@@6B@
rdata$r	SEGMENT
??_R4HeroRankingListWnd@@6B@ DD 00H			; HeroRankingListWnd::`RTTI Complete Object Locator'
	DD	00H
	DD	00H
	DD	FLAT:??_R0?AVHeroRankingListWnd@@@8
	DD	FLAT:??_R3HeroRankingListWnd@@8
rdata$r	ENDS
;	COMDAT ??_7HeroRankingListWnd@@6B@
CONST	SEGMENT
??_7HeroRankingListWnd@@6B@ DD FLAT:??_R4HeroRankingListWnd@@6B@ ; HeroRankingListWnd::`vftable'
	DD	FLAT:?AddRenderFrame@ioWnd@@UAEXABVioHashString@@PAVioUIRenderFrame@@@Z
	DD	FLAT:?AddRenderImage@ioWnd@@UAEXABVioHashString@@PAVioUIRenderImage@@@Z
	DD	FLAT:?AddTooltipHelp@ioWnd@@UAEXABVioHashString@@00@Z
	DD	FLAT:?ParseExtraInfo@ioWnd@@UAEXAAVioXMLElement@@@Z
	DD	FLAT:?AddNamedRenderImage@ioWnd@@UAEXABVioHashString@@PAVioUIRenderImage@@@Z
	DD	FLAT:?RemoveNamedRenderImage@ioWnd@@UAEXABVioHashString@@@Z
	DD	FLAT:?GetNamedRenderImage@ioWnd@@UBEPAVioUIRenderImage@@ABVioHashString@@@Z
	DD	FLAT:?SetWindowAlpha@ioWnd@@UAEXH@Z
	DD	FLAT:?SetActive@ioWnd@@UAEXXZ
	DD	FLAT:?SetInActive@ioWnd@@UAEXXZ
	DD	FLAT:?ClearElementImageList@ioWnd@@UAEXXZ
	DD	FLAT:?SetSize@ioWnd@@UAEXHH@Z
	DD	FLAT:?SetPositionToDefault@ioMovingWnd@@UAEXHH_N0@Z
	DD	FLAT:?IsNeedProcess@ioWnd@@UBE_NXZ
	DD	FLAT:?IsCanMouseReaction@ioWnd@@UBE_NXZ
	DD	FLAT:?AddChild@ioWnd@@UAEXPAV1@@Z
	DD	FLAT:?DeleteChild@ioWnd@@UAEXK@Z
	DD	FLAT:?DeleteAllChild@ioWnd@@UAEXXZ
	DD	FLAT:?OnRenderShowAndHide@ioWnd@@MAE_NXZ
	DD	FLAT:?OnRenderShowAndHideByDefault@ioWnd@@MAE_NK@Z
	DD	FLAT:?OnRenderShowAndHideByTop@ioWnd@@MAE_NK@Z
	DD	FLAT:?OnRenderShowAndHideByDown@ioWnd@@MAE_NK@Z
	DD	FLAT:?OnRender@HeroRankingListWnd@@MAEXXZ
	DD	FLAT:?OnRenderAfterChild@ioWnd@@MAEXXZ
	DD	FLAT:?OnProcess@HeroRankingListWnd@@MAEXM@Z
	DD	FLAT:?OnMouseProcess@ioMovingWnd@@MAEXABVioMouse@@@Z
	DD	FLAT:?CheckFrameReSize@ioWnd@@MAEXHHHH@Z
	DD	FLAT:?RenderImageList@ioWnd@@MAEXHHW4UIRenderType@@@Z
	DD	FLAT:?iwm_create@ioWnd@@UAEXXZ
	DD	FLAT:?iwm_destroy@ioWnd@@UAEXXZ
	DD	FLAT:?iwm_lbuttondown@ioMovingWnd@@UAEXABVioMouse@@@Z
	DD	FLAT:?iwm_lbuttonup@ioMovingWnd@@UAEXABVioMouse@@@Z
	DD	FLAT:?iwm_lbuttonDBLCLK@ioWnd@@UAEXABVioMouse@@@Z
	DD	FLAT:?iwm_rbuttondown@ioWnd@@UAEXABVioMouse@@@Z
	DD	FLAT:?iwm_rbuttonup@ioWnd@@UAEXABVioMouse@@@Z
	DD	FLAT:?iwm_command@HeroRankingListWnd@@UAEXPAVioWnd@@HK@Z
	DD	FLAT:?iwm_mouseover@ioWnd@@UAEXABVioMouse@@@Z
	DD	FLAT:?iwm_mousemove@ioWnd@@UAEXABVioMouse@@@Z
	DD	FLAT:?iwm_mouseleave@ioWnd@@UAEXABVioMouse@@@Z
	DD	FLAT:?iwm_vscroll@ioWnd@@UAEXKH@Z
	DD	FLAT:?iwm_wheel@ioWnd@@UAEXH@Z
	DD	FLAT:?iwm_show@HeroRankingListWnd@@UAEXXZ
	DD	FLAT:?iwm_hide@HeroRankingListWnd@@UAEXXZ
	DD	FLAT:?iwm_esc@ioWnd@@UAE_NXZ
	DD	FLAT:?iwm_spacebar@ioWnd@@UAE_NXZ
	DD	FLAT:?iwm_gototop@ioWnd@@UAEXXZ
	DD	FLAT:?iwm_dragenter@ioWnd@@UAE?AW4IWDropEffect@@PAVioDragItem@@ABVioMouse@@@Z
	DD	FLAT:?iwm_dragover@ioWnd@@UAE?AW4IWDropEffect@@PAVioDragItem@@ABVioMouse@@@Z
	DD	FLAT:?iwm_dragleave@ioWnd@@UAEXXZ
	DD	FLAT:?iwm_dropitem@ioWnd@@UAE_NPAVioDragItem@@ABVioMouse@@PAV1@@Z
	DD	FLAT:?iwm_dropdone@ioWnd@@UAEXPAVioDragItem@@PAV1@_N@Z
	DD	FLAT:?IsEXType@ioWnd@@UBE_NXZ
	DD	FLAT:?GetWndType@ioWnd@@UBEKXZ
	DD	FLAT:?RenderWnd@ioWnd@@UAEXXZ
	DD	FLAT:?SetIDEX@ioWnd@@UAEXAAK_N@Z
	DD	FLAT:?ParseXML@ioWnd@@UAEXAAVioXMLElement@@@Z
	DD	FLAT:?GetHeaderFileName@ioWnd@@UAEPBDXZ
	DD	FLAT:?GetTemplateName@ioWnd@@UAEPBDXZ
	DD	FLAT:?GetDefClassName@ioWnd@@UBEPBDXZ
	DD	FLAT:?_Clone@ioWnd@@UAEPAV1@XZ
	DD	FLAT:?Copy@ioWnd@@UAEXPAV1@@Z
	DD	FLAT:?Save@ioWnd@@UAE_NAAVioXMLElement@@@Z
	DD	FLAT:?SetSaveData@ioWnd@@UAEXAAVioXMLElement@@@Z
	DD	FLAT:?SetPosX@ioWnd@@UAEXH@Z
	DD	FLAT:?SetPosY@ioWnd@@UAEXH@Z
	DD	FLAT:?SetWidth@ioWnd@@UAEXH@Z
	DD	FLAT:?SetHeight@ioWnd@@UAEXH@Z
	DD	FLAT:?GetNumFixedRenderFrame@ioWnd@@UBEHXZ
	DD	FLAT:?GetFixedRenderFrameType@ioWnd@@UAEPBDH@Z
	DD	FLAT:?GetRenderFrame@ioWnd@@UAEPAPAVioUIRenderElement@@PBD@Z
	DD	FLAT:?GetNumFixedRenderImage@ioWnd@@UBEHXZ
	DD	FLAT:?GetFixedRenderImageType@ioWnd@@UAEPBDH@Z
	DD	FLAT:?GetRenderImage@ioWnd@@UAEPAPAVioUIRenderElement@@PBD@Z
	DD	FLAT:?AddEffect@ioWnd@@UAEXABVioHashString@@PAVioUI3DEffectRender@@@Z
	DD	FLAT:?GetEffect@ioWnd@@UAEPAVioUI3DEffectRender@@VioHashString@@@Z
	DD	FLAT:??_EHeroRankingListWnd@@UAEPAXI@Z
; Function compile flags: /Ogsp
CONST	ENDS
;	COMDAT ??0HeroRankingListWnd@@QAE@XZ
_TEXT	SEGMENT
??0HeroRankingListWnd@@QAE@XZ PROC			; HeroRankingListWnd::HeroRankingListWnd, COMDAT
; _this$ = ecx

; 1358 : {

  00000	56		 push	 esi
  00001	8b f1		 mov	 esi, ecx
  00003	ff 15 00 00 00
	00		 call	 DWORD PTR __imp_??0ioMovingWnd@@QAE@XZ

; 1359 : 	m_iCurPage = m_iMaxPage = 0;

  00009	83 a6 94 01 00
	00 00		 and	 DWORD PTR [esi+404], 0
  00010	83 a6 90 01 00
	00 00		 and	 DWORD PTR [esi+400], 0
  00017	c7 06 00 00 00
	00		 mov	 DWORD PTR [esi], OFFSET ??_7HeroRankingListWnd@@6B@

; 1360 : }

  0001d	8b c6		 mov	 eax, esi
  0001f	5e		 pop	 esi
  00020	c3		 ret	 0
??0HeroRankingListWnd@@QAE@XZ ENDP			; HeroRankingListWnd::HeroRankingListWnd
_TEXT	ENDS
PUBLIC	??1HeroRankingListWnd@@UAE@XZ			; HeroRankingListWnd::~HeroRankingListWnd
; Function compile flags: /Ogsp
;	COMDAT ??1HeroRankingListWnd@@UAE@XZ
_TEXT	SEGMENT
??1HeroRankingListWnd@@UAE@XZ PROC			; HeroRankingListWnd::~HeroRankingListWnd, COMDAT
; _this$ = ecx

; 1363 : {

  00000	c7 01 00 00 00
	00		 mov	 DWORD PTR [ecx], OFFSET ??_7HeroRankingListWnd@@6B@

; 1364 : }

  00006	ff 25 00 00 00
	00		 jmp	 DWORD PTR __imp_??1ioMovingWnd@@UAE@XZ
??1HeroRankingListWnd@@UAE@XZ ENDP			; HeroRankingListWnd::~HeroRankingListWnd
; Function compile flags: /Ogsp
_TEXT	ENDS
;	COMDAT ?iwm_hide@HeroRankingListWnd@@UAEXXZ
_TEXT	SEGMENT
?iwm_hide@HeroRankingListWnd@@UAEXXZ PROC		; HeroRankingListWnd::iwm_hide, COMDAT
; _this$ = ecx

; 1375 : 	m_iCurPage = 0;

  00000	83 a1 90 01 00
	00 00		 and	 DWORD PTR [ecx+400], 0

; 1376 : }

  00007	c3		 ret	 0
?iwm_hide@HeroRankingListWnd@@UAEXXZ ENDP		; HeroRankingListWnd::iwm_hide
; Function compile flags: /Ogsp
_TEXT	ENDS
;	COMDAT ?OnProcess@HeroRankingListWnd@@MAEXM@Z
_TEXT	SEGMENT
_fTimePerSec$ = 8					; size = 4
?OnProcess@HeroRankingListWnd@@MAEXM@Z PROC		; HeroRankingListWnd::OnProcess, COMDAT
; _this$ = ecx

; 1420 : 	if( !IsShow() )

  00000	ff 15 00 00 00
	00		 call	 DWORD PTR __imp_?IsShow@ioWnd@@QBE_NXZ

; 1421 : 		return;
; 1422 : }

  00006	c2 04 00	 ret	 4
?OnProcess@HeroRankingListWnd@@MAEXM@Z ENDP		; HeroRankingListWnd::OnProcess
_TEXT	ENDS
PUBLIC	?UpdateSetPage@HeroRankingListWnd@@IAEXH@Z	; HeroRankingListWnd::UpdateSetPage
EXTRN	?SendHeroTop100@ioCampManager@@QAEXHH@Z:PROC	; ioCampManager::SendHeroTop100
; Function compile flags: /Ogsp
;	COMDAT ?UpdateSetPage@HeroRankingListWnd@@IAEXH@Z
_TEXT	SEGMENT
_iCurPage$ = 8						; size = 4
?UpdateSetPage@HeroRankingListWnd@@IAEXH@Z PROC		; HeroRankingListWnd::UpdateSetPage, COMDAT
; _this$ = ecx

; 1494 : {

  00000	55		 push	 ebp
  00001	8b ec		 mov	 ebp, esp
  00003	53		 push	 ebx

; 1495 : 	m_iCurPage = iCurPage;

  00004	8b 5d 08	 mov	 ebx, DWORD PTR _iCurPage$[ebp]
  00007	56		 push	 esi
  00008	57		 push	 edi
  00009	8b f9		 mov	 edi, ecx
  0000b	89 9f 90 01 00
	00		 mov	 DWORD PTR [edi+400], ebx

; 1496 : 	for(int i = 0;i < MAX_PAGE_LIST;i++)

  00011	33 f6		 xor	 esi, esi
$LL9@UpdateSetP:

; 1497 : 	{
; 1498 : 		HeroRankingListBtn *pListBtn = dynamic_cast<HeroRankingListBtn*>( FindChildWnd( ID_LIST_1 + i ) );

  00013	6a 00		 push	 0
  00015	68 00 00 00 00	 push	 OFFSET ??_R0?AVHeroRankingListBtn@@@8
  0001a	68 00 00 00 00	 push	 OFFSET ??_R0?AVioWnd@@@8
  0001f	6a 00		 push	 0
  00021	8d 46 64	 lea	 eax, DWORD PTR [esi+100]
  00024	50		 push	 eax
  00025	8b cf		 mov	 ecx, edi
  00027	ff 15 00 00 00
	00		 call	 DWORD PTR __imp_?FindChildWnd@ioWnd@@QAEPAV1@K@Z
  0002d	50		 push	 eax
  0002e	e8 00 00 00 00	 call	 ___RTDynamicCast
  00033	83 c4 14	 add	 esp, 20			; 00000014H

; 1499 : 		if( pListBtn )

  00036	85 c0		 test	 eax, eax
  00038	74 15		 je	 SHORT $LN3@UpdateSetP

; 1500 : 		{
; 1501 : 			pListBtn->SetHeroInfo( ( m_iCurPage * MAX_PAGE_LIST ) + i + 1 );

  0003a	8b 8f 90 01 00
	00		 mov	 ecx, DWORD PTR [edi+400]
  00040	6b c9 0a	 imul	 ecx, 10			; 0000000aH
  00043	8d 4c 31 01	 lea	 ecx, DWORD PTR [ecx+esi+1]
  00047	51		 push	 ecx
  00048	8b c8		 mov	 ecx, eax
  0004a	e8 00 00 00 00	 call	 ?SetHeroInfo@HeroRankingListBtn@@QAEXH@Z ; HeroRankingListBtn::SetHeroInfo
$LN3@UpdateSetP:

; 1496 : 	for(int i = 0;i < MAX_PAGE_LIST;i++)

  0004f	46		 inc	 esi
  00050	83 fe 0a	 cmp	 esi, 10			; 0000000aH
  00053	7c be		 jl	 SHORT $LL9@UpdateSetP

; 1502 : 		}
; 1503 : 	}
; 1504 : 	g_CampMgr.SendHeroTop100( iCurPage, MAX_PAGE_LIST );

  00055	6a 0a		 push	 10			; 0000000aH
  00057	53		 push	 ebx
  00058	e8 00 00 00 00	 call	 ?GetSingleton@ioCampManager@@SAAAV1@XZ ; ioCampManager::GetSingleton
  0005d	8b c8		 mov	 ecx, eax
  0005f	e8 00 00 00 00	 call	 ?SendHeroTop100@ioCampManager@@QAEXHH@Z ; ioCampManager::SendHeroTop100
  00064	5f		 pop	 edi
  00065	5e		 pop	 esi
  00066	5b		 pop	 ebx

; 1505 : }

  00067	5d		 pop	 ebp
  00068	c2 04 00	 ret	 4
?UpdateSetPage@HeroRankingListWnd@@IAEXH@Z ENDP		; HeroRankingListWnd::UpdateSetPage
_TEXT	ENDS
PUBLIC	??_7HeroMatchHistoryBtn@@6B@			; HeroMatchHistoryBtn::`vftable'
PUBLIC	??0HeroMatchHistoryBtn@@QAE@XZ			; HeroMatchHistoryBtn::HeroMatchHistoryBtn
PUBLIC	??_R4HeroMatchHistoryBtn@@6B@			; HeroMatchHistoryBtn::`RTTI Complete Object Locator'
PUBLIC	??_R0?AVHeroMatchHistoryBtn@@@8			; HeroMatchHistoryBtn `RTTI Type Descriptor'
PUBLIC	??_R3HeroMatchHistoryBtn@@8			; HeroMatchHistoryBtn::`RTTI Class Hierarchy Descriptor'
PUBLIC	??_R2HeroMatchHistoryBtn@@8			; HeroMatchHistoryBtn::`RTTI Base Class Array'
PUBLIC	??_R1A@?0A@EA@HeroMatchHistoryBtn@@8		; HeroMatchHistoryBtn::`RTTI Base Class Descriptor at (0,-1,0,64)'
PUBLIC	?AddRenderImage@HeroMatchHistoryBtn@@MAEXABVioHashString@@PAVioUIRenderImage@@@Z ; HeroMatchHistoryBtn::AddRenderImage
PUBLIC	?OnRender@HeroMatchHistoryBtn@@MAEXXZ		; HeroMatchHistoryBtn::OnRender
PUBLIC	?iwm_show@HeroMatchHistoryBtn@@UAEXXZ		; HeroMatchHistoryBtn::iwm_show
PUBLIC	?iwm_hide@HeroMatchHistoryBtn@@UAEXXZ		; HeroMatchHistoryBtn::iwm_hide
EXTRN	?iwm_lbuttondown@ioButton@@UAEXABVioMouse@@@Z:PROC ; ioButton::iwm_lbuttondown
EXTRN	?iwm_mouseover@ioButton@@UAEXABVioMouse@@@Z:PROC ; ioButton::iwm_mouseover
EXTRN	??_EHeroMatchHistoryBtn@@UAEPAXI@Z:PROC		; HeroMatchHistoryBtn::`vector deleting destructor'
;	COMDAT ??_R1A@?0A@EA@HeroMatchHistoryBtn@@8
rdata$r	SEGMENT
??_R1A@?0A@EA@HeroMatchHistoryBtn@@8 DD FLAT:??_R0?AVHeroMatchHistoryBtn@@@8 ; HeroMatchHistoryBtn::`RTTI Base Class Descriptor at (0,-1,0,64)'
	DD	02H
	DD	00H
	DD	0ffffffffH
	DD	00H
	DD	040H
	DD	FLAT:??_R3HeroMatchHistoryBtn@@8
rdata$r	ENDS
;	COMDAT ??_R2HeroMatchHistoryBtn@@8
rdata$r	SEGMENT
??_R2HeroMatchHistoryBtn@@8 DD FLAT:??_R1A@?0A@EA@HeroMatchHistoryBtn@@8 ; HeroMatchHistoryBtn::`RTTI Base Class Array'
	DD	FLAT:??_R1A@?0A@EA@ioButton@@8
	DD	FLAT:??_R1A@?0A@EA@ioWnd@@8
rdata$r	ENDS
;	COMDAT ??_R3HeroMatchHistoryBtn@@8
rdata$r	SEGMENT
??_R3HeroMatchHistoryBtn@@8 DD 00H			; HeroMatchHistoryBtn::`RTTI Class Hierarchy Descriptor'
	DD	00H
	DD	03H
	DD	FLAT:??_R2HeroMatchHistoryBtn@@8
rdata$r	ENDS
;	COMDAT ??_R0?AVHeroMatchHistoryBtn@@@8
_DATA	SEGMENT
??_R0?AVHeroMatchHistoryBtn@@@8 DD FLAT:??_7type_info@@6B@ ; HeroMatchHistoryBtn `RTTI Type Descriptor'
	DD	00H
	DB	'.?AVHeroMatchHistoryBtn@@', 00H
_DATA	ENDS
;	COMDAT ??_R4HeroMatchHistoryBtn@@6B@
rdata$r	SEGMENT
??_R4HeroMatchHistoryBtn@@6B@ DD 00H			; HeroMatchHistoryBtn::`RTTI Complete Object Locator'
	DD	00H
	DD	00H
	DD	FLAT:??_R0?AVHeroMatchHistoryBtn@@@8
	DD	FLAT:??_R3HeroMatchHistoryBtn@@8
rdata$r	ENDS
;	COMDAT ??_7HeroMatchHistoryBtn@@6B@
CONST	SEGMENT
??_7HeroMatchHistoryBtn@@6B@ DD FLAT:??_R4HeroMatchHistoryBtn@@6B@ ; HeroMatchHistoryBtn::`vftable'
	DD	FLAT:?AddRenderFrame@ioButton@@UAEXABVioHashString@@PAVioUIRenderFrame@@@Z
	DD	FLAT:?AddRenderImage@HeroMatchHistoryBtn@@MAEXABVioHashString@@PAVioUIRenderImage@@@Z
	DD	FLAT:?AddTooltipHelp@ioWnd@@UAEXABVioHashString@@00@Z
	DD	FLAT:?ParseExtraInfo@ioButton@@UAEXAAVioXMLElement@@@Z
	DD	FLAT:?AddNamedRenderImage@ioWnd@@UAEXABVioHashString@@PAVioUIRenderImage@@@Z
	DD	FLAT:?RemoveNamedRenderImage@ioWnd@@UAEXABVioHashString@@@Z
	DD	FLAT:?GetNamedRenderImage@ioWnd@@UBEPAVioUIRenderImage@@ABVioHashString@@@Z
	DD	FLAT:?SetWindowAlpha@ioButton@@UAEXH@Z
	DD	FLAT:?SetActive@ioWnd@@UAEXXZ
	DD	FLAT:?SetInActive@ioWnd@@UAEXXZ
	DD	FLAT:?ClearElementImageList@ioWnd@@UAEXXZ
	DD	FLAT:?SetSize@ioWnd@@UAEXHH@Z
	DD	FLAT:?SetPositionToDefault@ioWnd@@UAEXHH_N0@Z
	DD	FLAT:?IsNeedProcess@ioWnd@@UBE_NXZ
	DD	FLAT:?IsCanMouseReaction@ioWnd@@UBE_NXZ
	DD	FLAT:?AddChild@ioWnd@@UAEXPAV1@@Z
	DD	FLAT:?DeleteChild@ioWnd@@UAEXK@Z
	DD	FLAT:?DeleteAllChild@ioWnd@@UAEXXZ
	DD	FLAT:?OnRenderShowAndHide@ioWnd@@MAE_NXZ
	DD	FLAT:?OnRenderShowAndHideByDefault@ioWnd@@MAE_NK@Z
	DD	FLAT:?OnRenderShowAndHideByTop@ioWnd@@MAE_NK@Z
	DD	FLAT:?OnRenderShowAndHideByDown@ioWnd@@MAE_NK@Z
	DD	FLAT:?OnRender@HeroMatchHistoryBtn@@MAEXXZ
	DD	FLAT:?OnRenderAfterChild@ioWnd@@MAEXXZ
	DD	FLAT:?OnProcess@ioWnd@@MAEXM@Z
	DD	FLAT:?OnMouseProcess@ioWnd@@MAEXABVioMouse@@@Z
	DD	FLAT:?CheckFrameReSize@ioButton@@MAEXHHHH@Z
	DD	FLAT:?RenderImageList@ioWnd@@MAEXHHW4UIRenderType@@@Z
	DD	FLAT:?iwm_create@ioWnd@@UAEXXZ
	DD	FLAT:?iwm_destroy@ioWnd@@UAEXXZ
	DD	FLAT:?iwm_lbuttondown@ioButton@@UAEXABVioMouse@@@Z
	DD	FLAT:?iwm_lbuttonup@ioButton@@UAEXABVioMouse@@@Z
	DD	FLAT:?iwm_lbuttonDBLCLK@ioButton@@UAEXABVioMouse@@@Z
	DD	FLAT:?iwm_rbuttondown@ioButton@@UAEXABVioMouse@@@Z
	DD	FLAT:?iwm_rbuttonup@ioButton@@UAEXABVioMouse@@@Z
	DD	FLAT:?iwm_command@ioWnd@@UAEXPAV1@HK@Z
	DD	FLAT:?iwm_mouseover@ioButton@@UAEXABVioMouse@@@Z
	DD	FLAT:?iwm_mousemove@ioWnd@@UAEXABVioMouse@@@Z
	DD	FLAT:?iwm_mouseleave@ioWnd@@UAEXABVioMouse@@@Z
	DD	FLAT:?iwm_vscroll@ioWnd@@UAEXKH@Z
	DD	FLAT:?iwm_wheel@ioWnd@@UAEXH@Z
	DD	FLAT:?iwm_show@HeroMatchHistoryBtn@@UAEXXZ
	DD	FLAT:?iwm_hide@HeroMatchHistoryBtn@@UAEXXZ
	DD	FLAT:?iwm_esc@ioWnd@@UAE_NXZ
	DD	FLAT:?iwm_spacebar@ioWnd@@UAE_NXZ
	DD	FLAT:?iwm_gototop@ioWnd@@UAEXXZ
	DD	FLAT:?iwm_dragenter@ioWnd@@UAE?AW4IWDropEffect@@PAVioDragItem@@ABVioMouse@@@Z
	DD	FLAT:?iwm_dragover@ioWnd@@UAE?AW4IWDropEffect@@PAVioDragItem@@ABVioMouse@@@Z
	DD	FLAT:?iwm_dragleave@ioWnd@@UAEXXZ
	DD	FLAT:?iwm_dropitem@ioWnd@@UAE_NPAVioDragItem@@ABVioMouse@@PAV1@@Z
	DD	FLAT:?iwm_dropdone@ioWnd@@UAEXPAVioDragItem@@PAV1@_N@Z
	DD	FLAT:?IsEXType@ioWnd@@UBE_NXZ
	DD	FLAT:?GetWndType@ioButton@@UBEKXZ
	DD	FLAT:?RenderWnd@ioWnd@@UAEXXZ
	DD	FLAT:?SetIDEX@ioWnd@@UAEXAAK_N@Z
	DD	FLAT:?ParseXML@ioWnd@@UAEXAAVioXMLElement@@@Z
	DD	FLAT:?GetHeaderFileName@ioButton@@UAEPBDXZ
	DD	FLAT:?GetTemplateName@ioButton@@UAEPBDXZ
	DD	FLAT:?GetDefClassName@ioButton@@UBEPBDXZ
	DD	FLAT:?_Clone@ioButton@@UAEPAVioWnd@@XZ
	DD	FLAT:?Copy@ioButton@@UAEXPAVioWnd@@@Z
	DD	FLAT:?Save@ioWnd@@UAE_NAAVioXMLElement@@@Z
	DD	FLAT:?SetSaveData@ioButton@@UAEXAAVioXMLElement@@@Z
	DD	FLAT:?SetPosX@ioWnd@@UAEXH@Z
	DD	FLAT:?SetPosY@ioWnd@@UAEXH@Z
	DD	FLAT:?SetWidth@ioWnd@@UAEXH@Z
	DD	FLAT:?SetHeight@ioWnd@@UAEXH@Z
	DD	FLAT:?GetNumFixedRenderFrame@ioButton@@UBEHXZ
	DD	FLAT:?GetFixedRenderFrameType@ioButton@@UAEPBDH@Z
	DD	FLAT:?GetRenderFrame@ioButton@@UAEPAPAVioUIRenderElement@@PBD@Z
	DD	FLAT:?GetNumFixedRenderImage@ioButton@@UBEHXZ
	DD	FLAT:?GetFixedRenderImageType@ioButton@@UAEPBDH@Z
	DD	FLAT:?GetRenderImage@ioButton@@UAEPAPAVioUIRenderElement@@PBD@Z
	DD	FLAT:?AddEffect@ioWnd@@UAEXABVioHashString@@PAVioUI3DEffectRender@@@Z
	DD	FLAT:?GetEffect@ioWnd@@UAEPAVioUI3DEffectRender@@VioHashString@@@Z
	DD	FLAT:??_EHeroMatchHistoryBtn@@UAEPAXI@Z
	DD	FLAT:?OnDrawNormal@ioButton@@MAEXHH@Z
	DD	FLAT:?OnDrawOvered@ioButton@@MAEXHH@Z
	DD	FLAT:?OnDrawOveredAdd@ioButton@@MAEXHH@Z
	DD	FLAT:?OnDrawPushed@ioButton@@MAEXHH@Z
	DD	FLAT:?OnDrawDisabled@ioButton@@MAEXHH@Z
	DD	FLAT:?OnDrawExDisabledNormal@ioButton@@MAEXHH@Z
	DD	FLAT:?OnDrawExDisabledOvered@ioButton@@MAEXHH@Z
	DD	FLAT:?OnDrawExDisabledPushed@ioButton@@MAEXHH@Z
	DD	FLAT:?OnDrawBack@ioButton@@MAEXHH@Z
	DD	FLAT:?OnDrawNormalList@ioButton@@MAEXHH@Z
	DD	FLAT:?OnDrawDisableList@ioButton@@MAEXHH@Z
CONST	ENDS
;	COMDAT xdata$x
xdata$x	SEGMENT
__unwindtable$??0HeroMatchHistoryBtn@@QAE@XZ DD 0ffffffffH
	DD	FLAT:__unwindfunclet$??0HeroMatchHistoryBtn@@QAE@XZ$0
__ehfuncinfo$??0HeroMatchHistoryBtn@@QAE@XZ DD 019930522H
	DD	01H
	DD	FLAT:__unwindtable$??0HeroMatchHistoryBtn@@QAE@XZ
	DD	2 DUP(00H)
	DD	2 DUP(00H)
	DD	00H
	DD	01H
; Function compile flags: /Ogsp
xdata$x	ENDS
;	COMDAT ??0HeroMatchHistoryBtn@@QAE@XZ
_TEXT	SEGMENT
_this$ = -16						; size = 4
__$EHRec$ = -12						; size = 12
??0HeroMatchHistoryBtn@@QAE@XZ PROC			; HeroMatchHistoryBtn::HeroMatchHistoryBtn, COMDAT
; _this$ = ecx

; 1508 : {

  00000	6a 04		 push	 4
  00002	b8 00 00 00 00	 mov	 eax, __ehhandler$??0HeroMatchHistoryBtn@@QAE@XZ
  00007	e8 00 00 00 00	 call	 __EH_prolog3
  0000c	8b f1		 mov	 esi, ecx
  0000e	89 75 f0	 mov	 DWORD PTR _this$[ebp], esi
  00011	ff 15 00 00 00
	00		 call	 DWORD PTR __imp_??0ioButton@@QAE@XZ
  00017	33 db		 xor	 ebx, ebx
  00019	8d 8e 28 02 00
	00		 lea	 ecx, DWORD PTR [esi+552]
  0001f	89 5d fc	 mov	 DWORD PTR __$EHRec$[ebp+8], ebx
  00022	c7 06 00 00 00
	00		 mov	 DWORD PTR [esi], OFFSET ??_7HeroMatchHistoryBtn@@6B@
  00028	ff 15 00 00 00
	00		 call	 DWORD PTR __imp_??0ioHashString@@QAE@XZ

; 1509 : 	m_pIconBack	  = NULL;

  0002e	89 9e fc 01 00
	00		 mov	 DWORD PTR [esi+508], ebx

; 1510 : 	m_pResultWin  = NULL;

  00034	89 9e 00 02 00
	00		 mov	 DWORD PTR [esi+512], ebx

; 1511 : 	m_pResultLose = NULL;

  0003a	89 9e 04 02 00
	00		 mov	 DWORD PTR [esi+516], ebx

; 1512 : 	m_pResultDraw = NULL;

  00040	89 9e 08 02 00
	00		 mov	 DWORD PTR [esi+520], ebx

; 1513 : 	m_pNoneData   = NULL;

  00046	89 9e 0c 02 00
	00		 mov	 DWORD PTR [esi+524], ebx

; 1514 : 
; 1515 : 	m_iHeroRank = m_iHeroTitle = m_iCampType = m_iTeamType = m_iGradeLevel = 0;

  0004c	89 9e 18 02 00
	00		 mov	 DWORD PTR [esi+536], ebx
  00052	89 9e 20 02 00
	00		 mov	 DWORD PTR [esi+544], ebx
  00058	89 9e 1c 02 00
	00		 mov	 DWORD PTR [esi+540], ebx
  0005e	89 9e 14 02 00
	00		 mov	 DWORD PTR [esi+532], ebx
  00064	89 9e 10 02 00
	00		 mov	 DWORD PTR [esi+528], ebx

; 1516 : 	m_iBlueScore = m_iRedScore = 0;

  0006a	89 9e 40 02 00
	00		 mov	 DWORD PTR [esi+576], ebx
  00070	89 9e 3c 02 00
	00		 mov	 DWORD PTR [esi+572], ebx

; 1517 : 	m_bResultCheck = false;

  00076	88 9e 44 02 00
	00		 mov	 BYTE PTR [esi+580], bl

; 1518 : 	m_dwResultTime = 0;

  0007c	89 9e 48 02 00
	00		 mov	 DWORD PTR [esi+584], ebx

; 1519 : 	m_bLeave = false;

  00082	88 9e 38 02 00
	00		 mov	 BYTE PTR [esi+568], bl

; 1520 : 	m_eWinTeam = WTT_NONE;

  00088	89 9e 24 02 00
	00		 mov	 DWORD PTR [esi+548], ebx

; 1521 : }

  0008e	8b c6		 mov	 eax, esi
  00090	e8 00 00 00 00	 call	 __EH_epilog3
  00095	c3		 ret	 0
_TEXT	ENDS
;	COMDAT text$x
text$x	SEGMENT
__unwindfunclet$??0HeroMatchHistoryBtn@@QAE@XZ$0:
  00000	8b 4d f0	 mov	 ecx, DWORD PTR _this$[ebp]
  00003	ff 25 00 00 00
	00		 jmp	 DWORD PTR __imp_??1ioButton@@UAE@XZ
__ehhandler$??0HeroMatchHistoryBtn@@QAE@XZ:
  00009	8b 54 24 08	 mov	 edx, DWORD PTR [esp+8]
  0000d	8d 42 0c	 lea	 eax, DWORD PTR [edx+12]
  00010	8b 4a ec	 mov	 ecx, DWORD PTR [edx-20]
  00013	33 c8		 xor	 ecx, eax
  00015	e8 00 00 00 00	 call	 @__security_check_cookie@4
  0001a	b8 00 00 00 00	 mov	 eax, OFFSET __ehfuncinfo$??0HeroMatchHistoryBtn@@QAE@XZ
  0001f	e9 00 00 00 00	 jmp	 ___CxxFrameHandler3
text$x	ENDS
??0HeroMatchHistoryBtn@@QAE@XZ ENDP			; HeroMatchHistoryBtn::HeroMatchHistoryBtn
PUBLIC	??1HeroMatchHistoryBtn@@UAE@XZ			; HeroMatchHistoryBtn::~HeroMatchHistoryBtn
;	COMDAT xdata$x
xdata$x	SEGMENT
__unwindtable$??1HeroMatchHistoryBtn@@UAE@XZ DD 0ffffffffH
	DD	FLAT:__unwindfunclet$??1HeroMatchHistoryBtn@@UAE@XZ$0
	DD	00H
	DD	FLAT:__unwindfunclet$??1HeroMatchHistoryBtn@@UAE@XZ$1
__ehfuncinfo$??1HeroMatchHistoryBtn@@UAE@XZ DD 019930522H
	DD	02H
	DD	FLAT:__unwindtable$??1HeroMatchHistoryBtn@@UAE@XZ
	DD	2 DUP(00H)
	DD	2 DUP(00H)
	DD	00H
	DD	01H
; Function compile flags: /Ogsp
xdata$x	ENDS
;	COMDAT ??1HeroMatchHistoryBtn@@UAE@XZ
_TEXT	SEGMENT
_this$ = -16						; size = 4
__$EHRec$ = -12						; size = 12
??1HeroMatchHistoryBtn@@UAE@XZ PROC			; HeroMatchHistoryBtn::~HeroMatchHistoryBtn, COMDAT
; _this$ = ecx

; 1524 : {

  00000	6a 04		 push	 4
  00002	b8 00 00 00 00	 mov	 eax, __ehhandler$??1HeroMatchHistoryBtn@@UAE@XZ
  00007	e8 00 00 00 00	 call	 __EH_prolog3
  0000c	8b f1		 mov	 esi, ecx
  0000e	89 75 f0	 mov	 DWORD PTR _this$[ebp], esi
  00011	c7 06 00 00 00
	00		 mov	 DWORD PTR [esi], OFFSET ??_7HeroMatchHistoryBtn@@6B@

; 1525 : 	SAFEDELETE( m_pIconBack );

  00017	8b 8e fc 01 00
	00		 mov	 ecx, DWORD PTR [esi+508]
  0001d	33 c0		 xor	 eax, eax
  0001f	40		 inc	 eax
  00020	33 db		 xor	 ebx, ebx
  00022	89 45 fc	 mov	 DWORD PTR __$EHRec$[ebp+8], eax
  00025	3b cb		 cmp	 ecx, ebx
  00027	74 0c		 je	 SHORT $LN5@HeroMatchH
  00029	8b 11		 mov	 edx, DWORD PTR [ecx]
  0002b	50		 push	 eax
  0002c	ff 52 40	 call	 DWORD PTR [edx+64]
  0002f	89 9e fc 01 00
	00		 mov	 DWORD PTR [esi+508], ebx
$LN5@HeroMatchH:

; 1526 : 	SAFEDELETE( m_pResultWin );

  00035	8b 8e 00 02 00
	00		 mov	 ecx, DWORD PTR [esi+512]
  0003b	3b cb		 cmp	 ecx, ebx
  0003d	74 0d		 je	 SHORT $LN4@HeroMatchH
  0003f	8b 01		 mov	 eax, DWORD PTR [ecx]
  00041	6a 01		 push	 1
  00043	ff 50 40	 call	 DWORD PTR [eax+64]
  00046	89 9e 00 02 00
	00		 mov	 DWORD PTR [esi+512], ebx
$LN4@HeroMatchH:

; 1527 : 	SAFEDELETE( m_pResultLose );

  0004c	8b 8e 04 02 00
	00		 mov	 ecx, DWORD PTR [esi+516]
  00052	3b cb		 cmp	 ecx, ebx
  00054	74 0d		 je	 SHORT $LN3@HeroMatchH
  00056	8b 01		 mov	 eax, DWORD PTR [ecx]
  00058	6a 01		 push	 1
  0005a	ff 50 40	 call	 DWORD PTR [eax+64]
  0005d	89 9e 04 02 00
	00		 mov	 DWORD PTR [esi+516], ebx
$LN3@HeroMatchH:

; 1528 : 	SAFEDELETE( m_pResultDraw );

  00063	8b 8e 08 02 00
	00		 mov	 ecx, DWORD PTR [esi+520]
  00069	3b cb		 cmp	 ecx, ebx
  0006b	74 0d		 je	 SHORT $LN2@HeroMatchH
  0006d	8b 01		 mov	 eax, DWORD PTR [ecx]
  0006f	6a 01		 push	 1
  00071	ff 50 40	 call	 DWORD PTR [eax+64]
  00074	89 9e 08 02 00
	00		 mov	 DWORD PTR [esi+520], ebx
$LN2@HeroMatchH:

; 1529 : 	SAFEDELETE( m_pNoneData );

  0007a	8b 8e 0c 02 00
	00		 mov	 ecx, DWORD PTR [esi+524]
  00080	3b cb		 cmp	 ecx, ebx
  00082	74 0d		 je	 SHORT $LN1@HeroMatchH
  00084	8b 01		 mov	 eax, DWORD PTR [ecx]
  00086	6a 01		 push	 1
  00088	ff 50 40	 call	 DWORD PTR [eax+64]
  0008b	89 9e 0c 02 00
	00		 mov	 DWORD PTR [esi+524], ebx
$LN1@HeroMatchH:

; 1530 : }

  00091	8d 8e 28 02 00
	00		 lea	 ecx, DWORD PTR [esi+552]
  00097	88 5d fc	 mov	 BYTE PTR __$EHRec$[ebp+8], bl
  0009a	ff 15 00 00 00
	00		 call	 DWORD PTR __imp_??1ioHashString@@QAE@XZ
  000a0	83 4d fc ff	 or	 DWORD PTR __$EHRec$[ebp+8], -1
  000a4	8b ce		 mov	 ecx, esi
  000a6	ff 15 00 00 00
	00		 call	 DWORD PTR __imp_??1ioButton@@UAE@XZ
  000ac	e8 00 00 00 00	 call	 __EH_epilog3
  000b1	c3		 ret	 0
_TEXT	ENDS
;	COMDAT text$x
text$x	SEGMENT
__unwindfunclet$??1HeroMatchHistoryBtn@@UAE@XZ$0:
  00000	8b 4d f0	 mov	 ecx, DWORD PTR _this$[ebp]
  00003	ff 25 00 00 00
	00		 jmp	 DWORD PTR __imp_??1ioButton@@UAE@XZ
__unwindfunclet$??1HeroMatchHistoryBtn@@UAE@XZ$1:
  00009	8b 4d f0	 mov	 ecx, DWORD PTR _this$[ebp]
  0000c	81 c1 28 02 00
	00		 add	 ecx, 552		; 00000228H
  00012	ff 25 00 00 00
	00		 jmp	 DWORD PTR __imp_??1ioHashString@@QAE@XZ
__ehhandler$??1HeroMatchHistoryBtn@@UAE@XZ:
  00018	8b 54 24 08	 mov	 edx, DWORD PTR [esp+8]
  0001c	8d 42 0c	 lea	 eax, DWORD PTR [edx+12]
  0001f	8b 4a ec	 mov	 ecx, DWORD PTR [edx-20]
  00022	33 c8		 xor	 ecx, eax
  00024	e8 00 00 00 00	 call	 @__security_check_cookie@4
  00029	b8 00 00 00 00	 mov	 eax, OFFSET __ehfuncinfo$??1HeroMatchHistoryBtn@@UAE@XZ
  0002e	e9 00 00 00 00	 jmp	 ___CxxFrameHandler3
text$x	ENDS
??1HeroMatchHistoryBtn@@UAE@XZ ENDP			; HeroMatchHistoryBtn::~HeroMatchHistoryBtn
; Function compile flags: /Ogsp
;	COMDAT ?iwm_show@HeroMatchHistoryBtn@@UAEXXZ
_TEXT	SEGMENT
?iwm_show@HeroMatchHistoryBtn@@UAEXXZ PROC		; HeroMatchHistoryBtn::iwm_show, COMDAT
; _this$ = ecx

; 1567 : 
; 1568 : }

  00000	c3		 ret	 0
?iwm_show@HeroMatchHistoryBtn@@UAEXXZ ENDP		; HeroMatchHistoryBtn::iwm_show
; Function compile flags: /Ogsp
_TEXT	ENDS
;	COMDAT ?iwm_hide@HeroMatchHistoryBtn@@UAEXXZ
_TEXT	SEGMENT
?iwm_hide@HeroMatchHistoryBtn@@UAEXXZ PROC		; HeroMatchHistoryBtn::iwm_hide, COMDAT
; _this$ = ecx

; 1572 : 
; 1573 : }

  00000	c3		 ret	 0
?iwm_hide@HeroMatchHistoryBtn@@UAEXXZ ENDP		; HeroMatchHistoryBtn::iwm_hide
_TEXT	ENDS
PUBLIC	??_C@_0DA@GCLCKDHE@?5?$CFs?5CampType?5?3?5?$CFd?0?5TeamType?5?3?5?$CFd@ ; `string'
PUBLIC	??_C@_0CF@BAFIEKNF@HeroMatchHistoryBtn?3?3SetMatchHis@ ; `string'
PUBLIC	?SetMatchHistory@HeroMatchHistoryBtn@@QAEXH@Z	; HeroMatchHistoryBtn::SetMatchHistory
EXTRN	__imp_?PrintTimeAndLog@CLog@@QAAXHPADZZ:PROC
EXTRN	__imp_?LOG@@3VCLog@@A:BYTE
EXTRN	?GetHeroMatchHistory@ioCampManager@@QAEXHAAH0000AAVioHashString@@AAW4WinTeamType@@AA_N00AAK3@Z:PROC ; ioCampManager::GetHeroMatchHistory
;	COMDAT ??_C@_0DA@GCLCKDHE@?5?$CFs?5CampType?5?3?5?$CFd?0?5TeamType?5?3?5?$CFd@
CONST	SEGMENT
??_C@_0DA@GCLCKDHE@?5?$CFs?5CampType?5?3?5?$CFd?0?5TeamType?5?3?5?$CFd@ DB ' '
	DB	'%s CampType : %d, TeamType : %d, Win Team : %d', 00H ; `string'
CONST	ENDS
;	COMDAT ??_C@_0CF@BAFIEKNF@HeroMatchHistoryBtn?3?3SetMatchHis@
CONST	SEGMENT
??_C@_0CF@BAFIEKNF@HeroMatchHistoryBtn?3?3SetMatchHis@ DB 'HeroMatchHisto'
	DB	'ryBtn::SetMatchHistory', 00H		; `string'
; Function compile flags: /Ogsp
CONST	ENDS
;	COMDAT ?SetMatchHistory@HeroMatchHistoryBtn@@QAEXH@Z
_TEXT	SEGMENT
_iArray$ = 8						; size = 4
?SetMatchHistory@HeroMatchHistoryBtn@@QAEXH@Z PROC	; HeroMatchHistoryBtn::SetMatchHistory, COMDAT
; _this$ = ecx

; 1576 : {

  00000	55		 push	 ebp
  00001	8b ec		 mov	 ebp, esp
  00003	53		 push	 ebx
  00004	56		 push	 esi
  00005	8b f1		 mov	 esi, ecx

; 1577 : 	m_dwResultTime = 0;

  00007	33 db		 xor	 ebx, ebx
  00009	57		 push	 edi

; 1578 : 	m_szNickName.Clear();

  0000a	8d 8e 28 02 00
	00		 lea	 ecx, DWORD PTR [esi+552]
  00010	89 9e 48 02 00
	00		 mov	 DWORD PTR [esi+584], ebx
  00016	ff 15 00 00 00
	00		 call	 DWORD PTR __imp_?Clear@ioHashString@@QAEXXZ

; 1579 : 	m_bResultCheck = false;

  0001c	8d 96 44 02 00
	00		 lea	 edx, DWORD PTR [esi+580]

; 1580 : 	m_bLeave = false;
; 1581 : 	m_iHeroRank = m_iHeroTitle = m_iCampType = m_iTeamType = m_iGradeLevel = m_iBlueScore = m_iRedScore = 0;
; 1582 : 	m_eWinTeam = WTT_NONE;
; 1583 : 	g_CampMgr.GetHeroMatchHistory( iArray, m_iHeroRank, m_iHeroTitle, m_iGradeLevel, m_iCampType, m_iTeamType, m_szNickName, 
; 1584 : 								   m_eWinTeam, m_bLeave, m_iBlueScore, m_iRedScore, m_dwResultTime, m_bResultCheck );

  00022	52		 push	 edx
  00023	88 1a		 mov	 BYTE PTR [edx], bl
  00025	8d 96 48 02 00
	00		 lea	 edx, DWORD PTR [esi+584]
  0002b	52		 push	 edx
  0002c	8d 96 40 02 00
	00		 lea	 edx, DWORD PTR [esi+576]
  00032	52		 push	 edx
  00033	8d 96 3c 02 00
	00		 lea	 edx, DWORD PTR [esi+572]
  00039	52		 push	 edx
  0003a	8d 96 38 02 00
	00		 lea	 edx, DWORD PTR [esi+568]
  00040	52		 push	 edx
  00041	8d be 24 02 00
	00		 lea	 edi, DWORD PTR [esi+548]
  00047	57		 push	 edi
  00048	8d 96 28 02 00
	00		 lea	 edx, DWORD PTR [esi+552]
  0004e	52		 push	 edx
  0004f	8d 86 20 02 00
	00		 lea	 eax, DWORD PTR [esi+544]
  00055	50		 push	 eax
  00056	89 18		 mov	 DWORD PTR [eax], ebx
  00058	8d 8e 1c 02 00
	00		 lea	 ecx, DWORD PTR [esi+540]
  0005e	51		 push	 ecx
  0005f	8d 86 18 02 00
	00		 lea	 eax, DWORD PTR [esi+536]
  00065	50		 push	 eax
  00066	8d 86 14 02 00
	00		 lea	 eax, DWORD PTR [esi+532]
  0006c	50		 push	 eax
  0006d	8d 86 10 02 00
	00		 lea	 eax, DWORD PTR [esi+528]
  00073	50		 push	 eax
  00074	ff 75 08	 push	 DWORD PTR _iArray$[ebp]
  00077	88 9e 38 02 00
	00		 mov	 BYTE PTR [esi+568], bl
  0007d	89 9e 40 02 00
	00		 mov	 DWORD PTR [esi+576], ebx
  00083	89 9e 3c 02 00
	00		 mov	 DWORD PTR [esi+572], ebx
  00089	89 9e 18 02 00
	00		 mov	 DWORD PTR [esi+536], ebx
  0008f	89 19		 mov	 DWORD PTR [ecx], ebx
  00091	89 9e 14 02 00
	00		 mov	 DWORD PTR [esi+532], ebx
  00097	89 9e 10 02 00
	00		 mov	 DWORD PTR [esi+528], ebx
  0009d	89 1f		 mov	 DWORD PTR [edi], ebx
  0009f	e8 00 00 00 00	 call	 ?GetSingleton@ioCampManager@@SAAAV1@XZ ; ioCampManager::GetSingleton
  000a4	8b c8		 mov	 ecx, eax
  000a6	e8 00 00 00 00	 call	 ?GetHeroMatchHistory@ioCampManager@@QAEXHAAH0000AAVioHashString@@AAW4WinTeamType@@AA_N00AAK3@Z ; ioCampManager::GetHeroMatchHistory

; 1585 : 
; 1586 : 	if ( m_eWinTeam != WTT_NONE )

  000ab	8b 3f		 mov	 edi, DWORD PTR [edi]
  000ad	3b fb		 cmp	 edi, ebx
  000af	74 27		 je	 SHORT $LN3@SetMatchHi

; 1587 : 		LOG.PrintTimeAndLog( 0, " %s CampType : %d, TeamType : %d, Win Team : %d", __FUNCTION__, m_iCampType, m_iTeamType, m_eWinTeam );

  000b1	57		 push	 edi
  000b2	ff b6 20 02 00
	00		 push	 DWORD PTR [esi+544]
  000b8	ff b6 1c 02 00
	00		 push	 DWORD PTR [esi+540]
  000be	68 00 00 00 00	 push	 OFFSET ??_C@_0CF@BAFIEKNF@HeroMatchHistoryBtn?3?3SetMatchHis@
  000c3	68 00 00 00 00	 push	 OFFSET ??_C@_0DA@GCLCKDHE@?5?$CFs?5CampType?5?3?5?$CFd?0?5TeamType?5?3?5?$CFd@
  000c8	53		 push	 ebx
  000c9	ff 35 00 00 00
	00		 push	 DWORD PTR __imp_?LOG@@3VCLog@@A
  000cf	ff 15 00 00 00
	00		 call	 DWORD PTR __imp_?PrintTimeAndLog@CLog@@QAAXHPADZZ
  000d5	83 c4 1c	 add	 esp, 28			; 0000001cH
$LN3@SetMatchHi:

; 1588 : 
; 1589 : 	if( m_szNickName.IsEmpty() )

  000d8	8d 8e 28 02 00
	00		 lea	 ecx, DWORD PTR [esi+552]
  000de	ff 15 00 00 00
	00		 call	 DWORD PTR __imp_?IsEmpty@ioHashString@@QBE_NXZ
  000e4	84 c0		 test	 al, al

; 1590 : 	{
; 1591 : 		SetInActive();

  000e6	8b 06		 mov	 eax, DWORD PTR [esi]
  000e8	8b ce		 mov	 ecx, esi
  000ea	74 05		 je	 SHORT $LN2@SetMatchHi
  000ec	ff 50 24	 call	 DWORD PTR [eax+36]

; 1592 : 	}
; 1593 : 	else

  000ef	eb 03		 jmp	 SHORT $LN1@SetMatchHi
$LN2@SetMatchHi:

; 1594 : 	{
; 1595 : 		SetActive();

  000f1	ff 50 20	 call	 DWORD PTR [eax+32]
$LN1@SetMatchHi:
  000f4	5f		 pop	 edi
  000f5	5e		 pop	 esi
  000f6	5b		 pop	 ebx

; 1596 : 	}
; 1597 : }

  000f7	5d		 pop	 ebp
  000f8	c2 04 00	 ret	 4
?SetMatchHistory@HeroMatchHistoryBtn@@QAEXH@Z ENDP	; HeroMatchHistoryBtn::SetMatchHistory
_TEXT	ENDS
PUBLIC	__real@405b800000000000
PUBLIC	__real@42dc0000
PUBLIC	__real@4008000000000000
PUBLIC	??_C@_0BO@HFKLEJBA@HeroMatchHistoryBtn?3?3OnRender?$AA@ ; `string'
PUBLIC	__real@3ef5c28f
PUBLIC	__$ArrayPad$
EXTRN	__imp_?PrintText@ioFontManager@@QAEXMMMPBD00@Z:PROC
EXTRN	__imp_?SafeSprintf@@YAXPADHPBDHH@Z:PROC
EXTRN	__imp_?GetLoopSec@ioFrameTimer@@QBEKXZ:PROC
EXTRN	__imp_?GetSingleton@ioFrameTimer@@SAAAV1@XZ:PROC
EXTRN	?RenderSmallMark@ioGuildMarkMgr@@QAEXKKMMW4UIRenderType@@@Z:PROC ; ioGuildMarkMgr::RenderSmallMark
EXTRN	?GetSingleton@ioGuildMarkMgr@@SAAAV1@XZ:PROC	; ioGuildMarkMgr::GetSingleton
EXTRN	?GetGuildInfo@ioUserInfoMgr@@QAEXABVioHashString@@AAK1@Z:PROC ; ioUserInfoMgr::GetGuildInfo
EXTRN	?GetSingleton@ioUserInfoMgr@@SAAAV1@XZ:PROC	; ioUserInfoMgr::GetSingleton
EXTRN	__imp_?GetTextWidth@ioFontManager@@QAEMPBDW4TextStyle@@MH@Z:PROC
EXTRN	__imp_?SafeSprintf@@YAXPADHPBDH1@Z:PROC
EXTRN	__imp_?SafeSprintf@@YAXPADHPBDH@Z:PROC
EXTRN	__imp_?SafeSprintf@@YAXPADHPBD1@Z:PROC
EXTRN	__imp_?SafeSprintf@@YAXPADHPBDZZ:PROC
EXTRN	__imp_?SetTextColor@ioFontManager@@QAEXHHH@Z:PROC
EXTRN	__imp_?IsDisabled@ioButton@@QBE_NXZ:PROC
EXTRN	_memset:PROC
;	COMDAT __real@405b800000000000
; File d:\lost saga for developer\youtube\tutorial\source\src\lsclient\stdafx.h
CONST	SEGMENT
__real@405b800000000000 DQ 0405b800000000000r	; 110
CONST	ENDS
;	COMDAT __real@42dc0000
CONST	SEGMENT
__real@42dc0000 DD 042dc0000r			; 110
CONST	ENDS
;	COMDAT __real@4008000000000000
CONST	SEGMENT
__real@4008000000000000 DQ 04008000000000000r	; 3
CONST	ENDS
;	COMDAT ??_C@_0BO@HFKLEJBA@HeroMatchHistoryBtn?3?3OnRender?$AA@
CONST	SEGMENT
??_C@_0BO@HFKLEJBA@HeroMatchHistoryBtn?3?3OnRender?$AA@ DB 'HeroMatchHist'
	DB	'oryBtn::OnRender', 00H			; `string'
CONST	ENDS
;	COMDAT __real@3ef5c28f
CONST	SEGMENT
__real@3ef5c28f DD 03ef5c28fr			; 0.48
; Function compile flags: /Ogsp
; File d:\lost saga for developer\youtube\tutorial\source\src\lsclient\gui\heromainwnd.cpp
CONST	ENDS
;	COMDAT ?OnRender@HeroMatchHistoryBtn@@MAEXXZ
_TEXT	SEGMENT
_dwGuildIndex$529060 = -820				; size = 4
tv892 = -816						; size = 4
tv822 = -816						; size = 4
tv818 = -816						; size = 4
_dwGuildMark$529061 = -812				; size = 4
tv835 = -808						; size = 4
$T534632 = -808						; size = 4
_iDay$529066 = -808					; size = 4
tv738 = -804						; size = 4
tv442 = -804						; size = 4
_iYPos$ = -800						; size = 4
tv837 = -796						; size = 4
tv817 = -796						; size = 4
tv819 = -792						; size = 4
_iXPos$ = -792						; size = 4
_pResultIcon$529075 = -788				; size = 4
_iMin$529064 = -788					; size = 4
_iCurrentXPos$529059 = -788				; size = 4
_szResultTime$529068 = -784				; size = 260
_szRankNTitle$529051 = -524				; size = 260
_szResult$529067 = -264					; size = 260
__$ArrayPad$ = -4					; size = 4
?OnRender@HeroMatchHistoryBtn@@MAEXXZ PROC		; HeroMatchHistoryBtn::OnRender, COMDAT
; _this$ = ecx

; 1600 : {

  00000	55		 push	 ebp
  00001	8b ec		 mov	 ebp, esp
  00003	81 ec 34 03 00
	00		 sub	 esp, 820		; 00000334H
  00009	a1 00 00 00 00	 mov	 eax, DWORD PTR ___security_cookie
  0000e	33 c5		 xor	 eax, ebp
  00010	89 45 fc	 mov	 DWORD PTR __$ArrayPad$[ebp], eax
  00013	53		 push	 ebx
  00014	56		 push	 esi
  00015	57		 push	 edi
  00016	8b f1		 mov	 esi, ecx

; 1601 : 	ioButton::OnRender();

  00018	ff 15 00 00 00
	00		 call	 DWORD PTR __imp_?OnRender@ioButton@@MAEXXZ

; 1602 : 
; 1603 : 	int iXPos = GetDerivedPosX();

  0001e	8b ce		 mov	 ecx, esi
  00020	ff 15 00 00 00
	00		 call	 DWORD PTR __imp_?GetDerivedPosX@ioWnd@@QBEHXZ
  00026	8b d8		 mov	 ebx, eax

; 1604 : 	int iYPos = GetDerivedPosY();

  00028	8b ce		 mov	 ecx, esi
  0002a	89 9d e8 fc ff
	ff		 mov	 DWORD PTR _iXPos$[ebp], ebx
  00030	ff 15 00 00 00
	00		 call	 DWORD PTR __imp_?GetDerivedPosY@ioWnd@@QBEHXZ

; 1605 : 	if( IsDisabled() )

  00036	8b ce		 mov	 ecx, esi
  00038	89 85 e0 fc ff
	ff		 mov	 DWORD PTR _iYPos$[ebp], eax
  0003e	ff 15 00 00 00
	00		 call	 DWORD PTR __imp_?IsDisabled@ioButton@@QBE_NXZ

; 1606 : 	{
; 1607 : 		if( m_pNoneData )

  00044	33 ff		 xor	 edi, edi
  00046	84 c0		 test	 al, al
  00048	0f 84 ca 01 00
	00		 je	 $LN30@OnRender@2
  0004e	39 be 0c 02 00
	00		 cmp	 DWORD PTR [esi+524], edi
  00054	0f 84 b9 00 00
	00		 je	 $LN29@OnRender@2

; 1608 : 		{
; 1609 : 			m_pNoneData->SetScale( 0.48f );

  0005a	8b 8e 0c 02 00
	00		 mov	 ecx, DWORD PTR [esi+524]
  00060	f3 0f 10 05 00
	00 00 00	 movss	 xmm0, DWORD PTR __real@3ef5c28f
  00068	8b 01		 mov	 eax, DWORD PTR [ecx]
  0006a	51		 push	 ecx
  0006b	f3 0f 11 04 24	 movss	 DWORD PTR [esp], xmm0
  00070	ff 50 1c	 call	 DWORD PTR [eax+28]

; 1610 : 			m_pNoneData->Render( iXPos + 35, iYPos + 25, UI_RENDER_MULTIPLY );

  00073	8b 8e 0c 02 00
	00		 mov	 ecx, DWORD PTR [esi+524]
  00079	8b 85 e0 fc ff
	ff		 mov	 eax, DWORD PTR _iYPos$[ebp]
  0007f	57		 push	 edi
  00080	57		 push	 edi
  00081	57		 push	 edi
  00082	83 c0 19	 add	 eax, 25			; 00000019H
  00085	6a 08		 push	 8
  00087	0f 57 c0	 xorps	 xmm0, xmm0
  0008a	f3 0f 2a c0	 cvtsi2ss xmm0, eax
  0008e	51		 push	 ecx
  0008f	8d 43 23	 lea	 eax, DWORD PTR [ebx+35]
  00092	51		 push	 ecx
  00093	0f 57 c9	 xorps	 xmm1, xmm1
  00096	f3 0f 2a c8	 cvtsi2ss xmm1, eax
  0009a	8b 01		 mov	 eax, DWORD PTR [ecx]
  0009c	f3 0f 11 44 24
	04		 movss	 DWORD PTR [esp+4], xmm0
  000a2	f3 0f 11 85 e4
	fc ff ff	 movss	 DWORD PTR tv817[ebp], xmm0
  000aa	f3 0f 11 8d e8
	fc ff ff	 movss	 DWORD PTR tv819[ebp], xmm1
  000b2	f3 0f 11 0c 24	 movss	 DWORD PTR [esp], xmm1
  000b7	ff 10		 call	 DWORD PTR [eax]

; 1611 : 			m_pNoneData->Render( iXPos + 35, iYPos + 25, UI_RENDER_MULTIPLY );

  000b9	8b 8e 0c 02 00
	00		 mov	 ecx, DWORD PTR [esi+524]
  000bf	f3 0f 10 85 e4
	fc ff ff	 movss	 xmm0, DWORD PTR tv817[ebp]
  000c7	8b 01		 mov	 eax, DWORD PTR [ecx]
  000c9	57		 push	 edi
  000ca	57		 push	 edi
  000cb	57		 push	 edi
  000cc	6a 08		 push	 8
  000ce	51		 push	 ecx
  000cf	51		 push	 ecx
  000d0	f3 0f 11 44 24
	04		 movss	 DWORD PTR [esp+4], xmm0
  000d6	f3 0f 10 85 e8
	fc ff ff	 movss	 xmm0, DWORD PTR tv819[ebp]
  000de	f3 0f 11 04 24	 movss	 DWORD PTR [esp], xmm0
  000e3	ff 10		 call	 DWORD PTR [eax]

; 1612 : 			m_pNoneData->Render( iXPos + 35, iYPos + 25, UI_RENDER_MULTIPLY );

  000e5	8b b6 0c 02 00
	00		 mov	 esi, DWORD PTR [esi+524]
  000eb	f3 0f 10 85 e4
	fc ff ff	 movss	 xmm0, DWORD PTR tv817[ebp]
  000f3	8b 06		 mov	 eax, DWORD PTR [esi]
  000f5	57		 push	 edi
  000f6	57		 push	 edi
  000f7	57		 push	 edi
  000f8	6a 08		 push	 8
  000fa	51		 push	 ecx
  000fb	51		 push	 ecx
  000fc	f3 0f 11 44 24
	04		 movss	 DWORD PTR [esp+4], xmm0
  00102	f3 0f 10 85 e8
	fc ff ff	 movss	 xmm0, DWORD PTR tv819[ebp]
  0010a	8b ce		 mov	 ecx, esi
  0010c	f3 0f 11 04 24	 movss	 DWORD PTR [esp], xmm0
  00111	ff 10		 call	 DWORD PTR [eax]
$LN29@OnRender@2:

; 1613 : 		}
; 1614 : 
; 1615 : 		g_FontMgr.SetAlignType( TAT_LEFT );

  00113	8b 35 00 00 00
	00		 mov	 esi, DWORD PTR __imp_?GetSingleton@ioFontManager@@SAAAV1@XZ
  00119	57		 push	 edi
  0011a	ff d6		 call	 esi
  0011c	8b c8		 mov	 ecx, eax
  0011e	ff 15 00 00 00
	00		 call	 DWORD PTR __imp_?SetAlignType@ioFontManager@@QAEXW4TextAlignType@@@Z

; 1616 : 		g_FontMgr.SetTextStyle( TS_NORMAL );

  00124	57		 push	 edi
  00125	ff d6		 call	 esi
  00127	8b c8		 mov	 ecx, eax
  00129	ff 15 00 00 00
	00		 call	 DWORD PTR __imp_?SetTextStyle@ioFontManager@@QAEXW4TextStyle@@@Z

; 1617 : 		g_FontMgr.SetBkColor( 0, 0, 0 );

  0012f	57		 push	 edi
  00130	57		 push	 edi
  00131	57		 push	 edi
  00132	ff d6		 call	 esi
  00134	8b c8		 mov	 ecx, eax
  00136	ff 15 00 00 00
	00		 call	 DWORD PTR __imp_?SetBkColor@ioFontManager@@QAEXHHH@Z

; 1618 : 		g_FontMgr.SetTextColor( 128, 128, 128 );

  0013c	b8 80 00 00 00	 mov	 eax, 128		; 00000080H
  00141	50		 push	 eax
  00142	50		 push	 eax
  00143	50		 push	 eax
  00144	ff d6		 call	 esi
  00146	8b c8		 mov	 ecx, eax
  00148	ff 15 00 00 00
	00		 call	 DWORD PTR __imp_?SetTextColor@ioFontManager@@QAEXHHH@Z

; 1619 : 		g_FontMgr.PrintText( iXPos + 64, iYPos + 10, FONT_SIZE_12, STR(1) );

  0014e	57		 push	 edi
  0014f	83 c3 40	 add	 ebx, 64			; 00000040H
  00152	0f 57 c0	 xorps	 xmm0, xmm0
  00155	f3 0f 2a c3	 cvtsi2ss xmm0, ebx
  00159	6a 01		 push	 1
  0015b	bb 00 00 00 00	 mov	 ebx, OFFSET ??_C@_00CNPNBAHC@?$AA@
  00160	53		 push	 ebx
  00161	bf 00 00 00 00	 mov	 edi, OFFSET ??_C@_0BO@HFKLEJBA@HeroMatchHistoryBtn?3?3OnRender?$AA@
  00166	57		 push	 edi
  00167	f3 0f 11 85 e4
	fc ff ff	 movss	 DWORD PTR tv837[ebp], xmm0
  0016f	ff 15 00 00 00
	00		 call	 DWORD PTR __imp_?GetSingleton@ioStringManager@@SAAAV1@XZ
  00175	8b c8		 mov	 ecx, eax
  00177	ff 15 00 00 00
	00		 call	 DWORD PTR __imp_?GetString@ioStringManager@@QAEPADPBD0HW4FileNamePrefix@1@@Z
  0017d	f3 0f 10 05 00
	00 00 00	 movss	 xmm0, DWORD PTR __real@3f19999a
  00185	50		 push	 eax
  00186	8b 85 e0 fc ff
	ff		 mov	 eax, DWORD PTR _iYPos$[ebp]
  0018c	83 ec 0c	 sub	 esp, 12			; 0000000cH
  0018f	f3 0f 11 44 24
	08		 movss	 DWORD PTR [esp+8], xmm0
  00195	83 c0 0a	 add	 eax, 10			; 0000000aH
  00198	0f 57 c0	 xorps	 xmm0, xmm0
  0019b	f3 0f 2a c0	 cvtsi2ss xmm0, eax
  0019f	f3 0f 11 44 24
	04		 movss	 DWORD PTR [esp+4], xmm0
  001a5	f3 0f 10 85 e4
	fc ff ff	 movss	 xmm0, DWORD PTR tv837[ebp]
  001ad	f3 0f 11 04 24	 movss	 DWORD PTR [esp], xmm0
  001b2	ff d6		 call	 esi
  001b4	50		 push	 eax
  001b5	ff 15 00 00 00
	00		 call	 DWORD PTR __imp_?PrintText@ioFontManager@@QAAXMMMPBDZZ
  001bb	83 c4 14	 add	 esp, 20			; 00000014H

; 1620 : 		g_FontMgr.PrintText( iXPos + 64, iYPos + 27, FONT_SIZE_12, STR(2) );

  001be	6a 00		 push	 0
  001c0	6a 02		 push	 2
  001c2	53		 push	 ebx
  001c3	57		 push	 edi
  001c4	ff 15 00 00 00
	00		 call	 DWORD PTR __imp_?GetSingleton@ioStringManager@@SAAAV1@XZ
  001ca	8b c8		 mov	 ecx, eax
  001cc	ff 15 00 00 00
	00		 call	 DWORD PTR __imp_?GetString@ioStringManager@@QAEPADPBD0HW4FileNamePrefix@1@@Z
  001d2	f3 0f 10 05 00
	00 00 00	 movss	 xmm0, DWORD PTR __real@3f19999a
  001da	50		 push	 eax
  001db	8b 85 e0 fc ff
	ff		 mov	 eax, DWORD PTR _iYPos$[ebp]
  001e1	83 ec 0c	 sub	 esp, 12			; 0000000cH
  001e4	f3 0f 11 44 24
	08		 movss	 DWORD PTR [esp+8], xmm0
  001ea	83 c0 1b	 add	 eax, 27			; 0000001bH
  001ed	0f 57 c0	 xorps	 xmm0, xmm0
  001f0	f3 0f 2a c0	 cvtsi2ss xmm0, eax
  001f4	f3 0f 11 44 24
	04		 movss	 DWORD PTR [esp+4], xmm0
  001fa	f3 0f 10 85 e4
	fc ff ff	 movss	 xmm0, DWORD PTR tv837[ebp]
  00202	f3 0f 11 04 24	 movss	 DWORD PTR [esp], xmm0
  00207	ff d6		 call	 esi
  00209	50		 push	 eax
  0020a	ff 15 00 00 00
	00		 call	 DWORD PTR __imp_?PrintText@ioFontManager@@QAAXMMMPBDZZ
  00210	83 c4 14	 add	 esp, 20			; 00000014H

; 1621 : 	}
; 1622 : 	else

  00213	e9 b5 07 00 00	 jmp	 $LN1@OnRender@2
$LN30@OnRender@2:

; 1623 : 	{
; 1624 : 		char szRankNTitle[MAX_PATH] = "";

  00218	68 03 01 00 00	 push	 259			; 00000103H
  0021d	8d 85 f5 fd ff
	ff		 lea	 eax, DWORD PTR _szRankNTitle$529051[ebp+1]
  00223	57		 push	 edi
  00224	50		 push	 eax
  00225	c6 85 f4 fd ff
	ff 00		 mov	 BYTE PTR _szRankNTitle$529051[ebp], 0
  0022c	e8 00 00 00 00	 call	 _memset

; 1625 : 		if( m_iHeroRank == 0 )

  00231	8b 86 10 02 00
	00		 mov	 eax, DWORD PTR [esi+528]
  00237	83 c4 0c	 add	 esp, 12			; 0000000cH
  0023a	3b c7		 cmp	 eax, edi
  0023c	0f 85 8a 00 00
	00		 jne	 $LN27@OnRender@2

; 1626 : 		{
; 1627 : 			if( m_iHeroTitle == 0)

  00242	8b 86 14 02 00
	00		 mov	 eax, DWORD PTR [esi+532]
  00248	3b c7		 cmp	 eax, edi
  0024a	75 38		 jne	 SHORT $LN26@OnRender@2

; 1628 : 				SafeSprintf( szRankNTitle, sizeof( szRankNTitle ), STR(3) );

  0024c	57		 push	 edi
  0024d	6a 03		 push	 3
  0024f	bb 00 00 00 00	 mov	 ebx, OFFSET ??_C@_00CNPNBAHC@?$AA@
  00254	53		 push	 ebx
  00255	bf 00 00 00 00	 mov	 edi, OFFSET ??_C@_0BO@HFKLEJBA@HeroMatchHistoryBtn?3?3OnRender?$AA@
  0025a	57		 push	 edi
  0025b	ff 15 00 00 00
	00		 call	 DWORD PTR __imp_?GetSingleton@ioStringManager@@SAAAV1@XZ
  00261	8b c8		 mov	 ecx, eax
  00263	ff 15 00 00 00
	00		 call	 DWORD PTR __imp_?GetString@ioStringManager@@QAEPADPBD0HW4FileNamePrefix@1@@Z
  00269	50		 push	 eax
  0026a	8d 85 f4 fd ff
	ff		 lea	 eax, DWORD PTR _szRankNTitle$529051[ebp]
  00270	68 04 01 00 00	 push	 260			; 00000104H
  00275	50		 push	 eax
  00276	ff 15 00 00 00
	00		 call	 DWORD PTR __imp_?SafeSprintf@@YAXPADHPBDZZ
  0027c	83 c4 0c	 add	 esp, 12			; 0000000cH

; 1629 : 			else 

  0027f	e9 d7 00 00 00	 jmp	 $LN22@OnRender@2
$LN26@OnRender@2:

; 1630 : 				SafeSprintf( szRankNTitle, sizeof( szRankNTitle ), STR(4), g_LevelMgr.GetHeroTitleString( m_iHeroTitle ).c_str() );

  00284	50		 push	 eax
  00285	e8 00 00 00 00	 call	 ?GetSingleton@ioMyLevelMgr@@SAAAV1@XZ ; ioMyLevelMgr::GetSingleton
  0028a	8b c8		 mov	 ecx, eax
  0028c	e8 00 00 00 00	 call	 ?GetHeroTitleString@ioMyLevelMgr@@QAEABVioHashString@@K@Z ; ioMyLevelMgr::GetHeroTitleString
  00291	8b c8		 mov	 ecx, eax
  00293	ff 15 00 00 00
	00		 call	 DWORD PTR __imp_?c_str@ioHashString@@QBEPBDXZ
  00299	50		 push	 eax
  0029a	57		 push	 edi
  0029b	6a 04		 push	 4
  0029d	bb 00 00 00 00	 mov	 ebx, OFFSET ??_C@_00CNPNBAHC@?$AA@
  002a2	53		 push	 ebx
  002a3	bf 00 00 00 00	 mov	 edi, OFFSET ??_C@_0BO@HFKLEJBA@HeroMatchHistoryBtn?3?3OnRender?$AA@
  002a8	57		 push	 edi
  002a9	ff 15 00 00 00
	00		 call	 DWORD PTR __imp_?GetSingleton@ioStringManager@@SAAAV1@XZ
  002af	8b c8		 mov	 ecx, eax
  002b1	ff 15 00 00 00
	00		 call	 DWORD PTR __imp_?GetString@ioStringManager@@QAEPADPBD0HW4FileNamePrefix@1@@Z
  002b7	50		 push	 eax
  002b8	8d 85 f4 fd ff
	ff		 lea	 eax, DWORD PTR _szRankNTitle$529051[ebp]
  002be	68 04 01 00 00	 push	 260			; 00000104H
  002c3	50		 push	 eax
  002c4	ff 15 00 00 00
	00		 call	 DWORD PTR __imp_?SafeSprintf@@YAXPADHPBD1@Z

; 1631 : 		}
; 1632 : 		else

  002ca	eb 3b		 jmp	 SHORT $LN41@OnRender@2
$LN27@OnRender@2:

; 1633 : 		{
; 1634 : 			if( m_iHeroTitle == 0)

  002cc	8b 8e 14 02 00
	00		 mov	 ecx, DWORD PTR [esi+532]
  002d2	3b cf		 cmp	 ecx, edi
  002d4	75 36		 jne	 SHORT $LN23@OnRender@2

; 1635 : 				SafeSprintf( szRankNTitle, sizeof( szRankNTitle ), STR(5), m_iHeroRank );

  002d6	50		 push	 eax
  002d7	57		 push	 edi
  002d8	6a 05		 push	 5
  002da	bb 00 00 00 00	 mov	 ebx, OFFSET ??_C@_00CNPNBAHC@?$AA@
  002df	53		 push	 ebx
  002e0	bf 00 00 00 00	 mov	 edi, OFFSET ??_C@_0BO@HFKLEJBA@HeroMatchHistoryBtn?3?3OnRender?$AA@
  002e5	57		 push	 edi
  002e6	ff 15 00 00 00
	00		 call	 DWORD PTR __imp_?GetSingleton@ioStringManager@@SAAAV1@XZ
  002ec	8b c8		 mov	 ecx, eax
  002ee	ff 15 00 00 00
	00		 call	 DWORD PTR __imp_?GetString@ioStringManager@@QAEPADPBD0HW4FileNamePrefix@1@@Z
  002f4	50		 push	 eax
  002f5	8d 85 f4 fd ff
	ff		 lea	 eax, DWORD PTR _szRankNTitle$529051[ebp]
  002fb	68 04 01 00 00	 push	 260			; 00000104H
  00300	50		 push	 eax
  00301	ff 15 00 00 00
	00		 call	 DWORD PTR __imp_?SafeSprintf@@YAXPADHPBDH@Z
$LN41@OnRender@2:
  00307	83 c4 10	 add	 esp, 16			; 00000010H

; 1636 : 			else 

  0030a	eb 4f		 jmp	 SHORT $LN22@OnRender@2
$LN23@OnRender@2:

; 1637 : 				SafeSprintf( szRankNTitle, sizeof( szRankNTitle ), STR(6), m_iHeroRank, g_LevelMgr.GetHeroTitleString( m_iHeroTitle ).c_str() );

  0030c	51		 push	 ecx
  0030d	e8 00 00 00 00	 call	 ?GetSingleton@ioMyLevelMgr@@SAAAV1@XZ ; ioMyLevelMgr::GetSingleton
  00312	8b c8		 mov	 ecx, eax
  00314	e8 00 00 00 00	 call	 ?GetHeroTitleString@ioMyLevelMgr@@QAEABVioHashString@@K@Z ; ioMyLevelMgr::GetHeroTitleString
  00319	8b c8		 mov	 ecx, eax
  0031b	ff 15 00 00 00
	00		 call	 DWORD PTR __imp_?c_str@ioHashString@@QBEPBDXZ
  00321	50		 push	 eax
  00322	ff b6 10 02 00
	00		 push	 DWORD PTR [esi+528]
  00328	bb 00 00 00 00	 mov	 ebx, OFFSET ??_C@_00CNPNBAHC@?$AA@
  0032d	57		 push	 edi
  0032e	6a 06		 push	 6
  00330	53		 push	 ebx
  00331	bf 00 00 00 00	 mov	 edi, OFFSET ??_C@_0BO@HFKLEJBA@HeroMatchHistoryBtn?3?3OnRender?$AA@
  00336	57		 push	 edi
  00337	ff 15 00 00 00
	00		 call	 DWORD PTR __imp_?GetSingleton@ioStringManager@@SAAAV1@XZ
  0033d	8b c8		 mov	 ecx, eax
  0033f	ff 15 00 00 00
	00		 call	 DWORD PTR __imp_?GetString@ioStringManager@@QAEPADPBD0HW4FileNamePrefix@1@@Z
  00345	50		 push	 eax
  00346	8d 85 f4 fd ff
	ff		 lea	 eax, DWORD PTR _szRankNTitle$529051[ebp]
  0034c	68 04 01 00 00	 push	 260			; 00000104H
  00351	50		 push	 eax
  00352	ff 15 00 00 00
	00		 call	 DWORD PTR __imp_?SafeSprintf@@YAXPADHPBDH1@Z
  00358	83 c4 14	 add	 esp, 20			; 00000014H
$LN22@OnRender@2:

; 1638 : 		}
; 1639 : 
; 1640 : 		g_FontMgr.SetAlignType( TAT_LEFT );

  0035b	6a 00		 push	 0
  0035d	ff 15 00 00 00
	00		 call	 DWORD PTR __imp_?GetSingleton@ioFontManager@@SAAAV1@XZ
  00363	8b c8		 mov	 ecx, eax
  00365	ff 15 00 00 00
	00		 call	 DWORD PTR __imp_?SetAlignType@ioFontManager@@QAEXW4TextAlignType@@@Z

; 1641 : 		g_FontMgr.SetTextStyle( TS_NORMAL );

  0036b	6a 00		 push	 0
  0036d	ff 15 00 00 00
	00		 call	 DWORD PTR __imp_?GetSingleton@ioFontManager@@SAAAV1@XZ
  00373	8b c8		 mov	 ecx, eax
  00375	ff 15 00 00 00
	00		 call	 DWORD PTR __imp_?SetTextStyle@ioFontManager@@QAEXW4TextStyle@@@Z

; 1642 : 		g_FontMgr.SetBkColor( 0, 0, 0 );

  0037b	33 c0		 xor	 eax, eax
  0037d	50		 push	 eax
  0037e	50		 push	 eax
  0037f	50		 push	 eax
  00380	ff 15 00 00 00
	00		 call	 DWORD PTR __imp_?GetSingleton@ioFontManager@@SAAAV1@XZ
  00386	8b c8		 mov	 ecx, eax
  00388	ff 15 00 00 00
	00		 call	 DWORD PTR __imp_?SetBkColor@ioFontManager@@QAEXHHH@Z

; 1643 : 		g_FontMgr.SetTextColor( TCT_DEFAULT_DARKGRAY );

  0038e	68 3a 3a 3a ff	 push	 -12961222		; ff3a3a3aH
  00393	ff 15 00 00 00
	00		 call	 DWORD PTR __imp_?GetSingleton@ioFontManager@@SAAAV1@XZ
  00399	8b c8		 mov	 ecx, eax
  0039b	ff 15 00 00 00
	00		 call	 DWORD PTR __imp_?SetTextColor@ioFontManager@@QAEXK@Z

; 1644 : 
; 1645 : 		//  & 
; 1646 : 		g_FontMgr.PrintText( iXPos + 64, iYPos + 10, FONT_SIZE_12, szRankNTitle );

  003a1	8b 85 e0 fc ff
	ff		 mov	 eax, DWORD PTR _iYPos$[ebp]
  003a7	f3 0f 10 15 00
	00 00 00	 movss	 xmm2, DWORD PTR __real@3f19999a
  003af	83 c0 0a	 add	 eax, 10			; 0000000aH
  003b2	0f 57 c0	 xorps	 xmm0, xmm0
  003b5	f3 0f 2a c0	 cvtsi2ss xmm0, eax
  003b9	8b 85 e8 fc ff
	ff		 mov	 eax, DWORD PTR _iXPos$[ebp]
  003bf	83 c0 40	 add	 eax, 64			; 00000040H
  003c2	0f 57 c9	 xorps	 xmm1, xmm1
  003c5	f3 0f 2a c8	 cvtsi2ss xmm1, eax
  003c9	8d 85 f4 fd ff
	ff		 lea	 eax, DWORD PTR _szRankNTitle$529051[ebp]
  003cf	50		 push	 eax
  003d0	83 ec 0c	 sub	 esp, 12			; 0000000cH
  003d3	f3 0f 11 54 24
	08		 movss	 DWORD PTR [esp+8], xmm2
  003d9	f3 0f 11 44 24
	04		 movss	 DWORD PTR [esp+4], xmm0
  003df	f3 0f 11 85 d8
	fc ff ff	 movss	 DWORD PTR tv835[ebp], xmm0
  003e7	f3 0f 11 8d e4
	fc ff ff	 movss	 DWORD PTR tv837[ebp], xmm1
  003ef	f3 0f 11 0c 24	 movss	 DWORD PTR [esp], xmm1
  003f4	ff 15 00 00 00
	00		 call	 DWORD PTR __imp_?GetSingleton@ioFontManager@@SAAAV1@XZ
  003fa	50		 push	 eax
  003fb	ff 15 00 00 00
	00		 call	 DWORD PTR __imp_?PrintText@ioFontManager@@QAAXMMMPBDZZ

; 1647 : 
; 1648 : 		// 
; 1649 : 		int iCurrentXPos = g_FontMgr.GetTextWidth( szRankNTitle, TS_NORMAL, FONT_SIZE_12 ) + 3;

  00401	f3 0f 10 05 00
	00 00 00	 movss	 xmm0, DWORD PTR __real@3f19999a
  00409	83 c4 14	 add	 esp, 20			; 00000014H
  0040c	6a 00		 push	 0
  0040e	51		 push	 ecx
  0040f	f3 0f 11 04 24	 movss	 DWORD PTR [esp], xmm0
  00414	8d 85 f4 fd ff
	ff		 lea	 eax, DWORD PTR _szRankNTitle$529051[ebp]
  0041a	6a 00		 push	 0
  0041c	50		 push	 eax
  0041d	ff 15 00 00 00
	00		 call	 DWORD PTR __imp_?GetSingleton@ioFontManager@@SAAAV1@XZ
  00423	8b c8		 mov	 ecx, eax
  00425	ff 15 00 00 00
	00		 call	 DWORD PTR __imp_?GetTextWidth@ioFontManager@@QAEMPBDW4TextStyle@@MH@Z
  0042b	dc 05 00 00 00
	00		 fadd	 QWORD PTR __real@4008000000000000
  00431	e8 00 00 00 00	 call	 __ftol2_sse

; 1650 : 		g_LevelMgr.RenderGrade( m_szNickName, iXPos + 64 + iCurrentXPos, iYPos + 9, m_iGradeLevel, TEAM_PRIVATE_1 );

  00436	8b 95 e0 fc ff
	ff		 mov	 edx, DWORD PTR _iYPos$[ebp]
  0043c	6a ff		 push	 -1
  0043e	6a 00		 push	 0
  00440	6a 03		 push	 3
  00442	ff b6 18 02 00
	00		 push	 DWORD PTR [esi+536]
  00448	83 c2 09	 add	 edx, 9
  0044b	52		 push	 edx
  0044c	8b 95 e8 fc ff
	ff		 mov	 edx, DWORD PTR _iXPos$[ebp]
  00452	89 85 ec fc ff
	ff		 mov	 DWORD PTR _iCurrentXPos$529059[ebp], eax
  00458	8d 44 10 40	 lea	 eax, DWORD PTR [eax+edx+64]
  0045c	8d 8e 28 02 00
	00		 lea	 ecx, DWORD PTR [esi+552]
  00462	50		 push	 eax
  00463	51		 push	 ecx
  00464	e8 00 00 00 00	 call	 ?GetSingleton@ioMyLevelMgr@@SAAAV1@XZ ; ioMyLevelMgr::GetSingleton
  00469	8b c8		 mov	 ecx, eax
  0046b	e8 00 00 00 00	 call	 ?RenderGrade@ioMyLevelMgr@@QAEXABVioHashString@@HHKW4TeamType@@W4UIRenderType@@K@Z ; ioMyLevelMgr::RenderGrade

; 1651 : 		iCurrentXPos += 19;

  00470	83 85 ec fc ff
	ff 13		 add	 DWORD PTR _iCurrentXPos$529059[ebp], 19 ; 00000013H

; 1652 : 		
; 1653 : 		// 
; 1654 : 		g_FontMgr.PrintTextWidthCut( iXPos + 64 + iCurrentXPos, iYPos + 10, FONT_SIZE_12, 110.0f, m_szNickName.c_str() );

  00477	8d 8e 28 02 00
	00		 lea	 ecx, DWORD PTR [esi+552]
  0047d	ff 15 00 00 00
	00		 call	 DWORD PTR __imp_?c_str@ioHashString@@QBEPBDXZ
  00483	f3 0f 10 05 00
	00 00 00	 movss	 xmm0, DWORD PTR __real@42dc0000
  0048b	8b 8d e8 fc ff
	ff		 mov	 ecx, DWORD PTR _iXPos$[ebp]
  00491	50		 push	 eax
  00492	8b 85 ec fc ff
	ff		 mov	 eax, DWORD PTR _iCurrentXPos$529059[ebp]
  00498	83 ec 10	 sub	 esp, 16			; 00000010H
  0049b	f3 0f 11 44 24
	0c		 movss	 DWORD PTR [esp+12], xmm0
  004a1	f3 0f 10 05 00
	00 00 00	 movss	 xmm0, DWORD PTR __real@3f19999a
  004a9	f3 0f 11 44 24
	08		 movss	 DWORD PTR [esp+8], xmm0
  004af	f3 0f 10 85 d8
	fc ff ff	 movss	 xmm0, DWORD PTR tv835[ebp]
  004b7	f3 0f 11 44 24
	04		 movss	 DWORD PTR [esp+4], xmm0
  004bd	8d 44 08 40	 lea	 eax, DWORD PTR [eax+ecx+64]
  004c1	0f 57 c0	 xorps	 xmm0, xmm0
  004c4	f3 0f 2a c0	 cvtsi2ss xmm0, eax
  004c8	f3 0f 11 04 24	 movss	 DWORD PTR [esp], xmm0
  004cd	ff 15 00 00 00
	00		 call	 DWORD PTR __imp_?GetSingleton@ioFontManager@@SAAAV1@XZ
  004d3	50		 push	 eax
  004d4	ff 15 00 00 00
	00		 call	 DWORD PTR __imp_?PrintTextWidthCut@ioFontManager@@QAAXMMMMPBDZZ

; 1655 : 		iCurrentXPos += min( 110.0f, g_FontMgr.GetTextWidth( m_szNickName.c_str(), TS_NORMAL, FONT_SIZE_12 ) ) + 3;

  004da	f3 0f 10 05 00
	00 00 00	 movss	 xmm0, DWORD PTR __real@3f19999a
  004e2	83 c4 18	 add	 esp, 24			; 00000018H
  004e5	6a 00		 push	 0
  004e7	51		 push	 ecx
  004e8	f3 0f 11 04 24	 movss	 DWORD PTR [esp], xmm0
  004ed	6a 00		 push	 0
  004ef	8d 8e 28 02 00
	00		 lea	 ecx, DWORD PTR [esi+552]
  004f5	ff 15 00 00 00
	00		 call	 DWORD PTR __imp_?c_str@ioHashString@@QBEPBDXZ
  004fb	50		 push	 eax
  004fc	ff 15 00 00 00
	00		 call	 DWORD PTR __imp_?GetSingleton@ioFontManager@@SAAAV1@XZ
  00502	8b c8		 mov	 ecx, eax
  00504	ff 15 00 00 00
	00		 call	 DWORD PTR __imp_?GetTextWidth@ioFontManager@@QAEMPBDW4TextStyle@@MH@Z
  0050a	dd 05 00 00 00
	00		 fld	 QWORD PTR __real@405b800000000000
  00510	d9 c9		 fxch	 ST(1)
  00512	df f1		 fcomip	 ST(1)
  00514	dd d8		 fstp	 ST(0)
  00516	76 12		 jbe	 SHORT $LN33@OnRender@2
  00518	f3 0f 10 05 00
	00 00 00	 movss	 xmm0, DWORD PTR __real@42dc0000
  00520	f3 0f 11 85 dc
	fc ff ff	 movss	 DWORD PTR tv442[ebp], xmm0
  00528	eb 33		 jmp	 SHORT $LN34@OnRender@2
$LN33@OnRender@2:
  0052a	f3 0f 10 05 00
	00 00 00	 movss	 xmm0, DWORD PTR __real@3f19999a
  00532	6a 00		 push	 0
  00534	51		 push	 ecx
  00535	f3 0f 11 04 24	 movss	 DWORD PTR [esp], xmm0
  0053a	6a 00		 push	 0
  0053c	8d 8e 28 02 00
	00		 lea	 ecx, DWORD PTR [esi+552]
  00542	ff 15 00 00 00
	00		 call	 DWORD PTR __imp_?c_str@ioHashString@@QBEPBDXZ
  00548	50		 push	 eax
  00549	ff 15 00 00 00
	00		 call	 DWORD PTR __imp_?GetSingleton@ioFontManager@@SAAAV1@XZ
  0054f	8b c8		 mov	 ecx, eax
  00551	ff 15 00 00 00
	00		 call	 DWORD PTR __imp_?GetTextWidth@ioFontManager@@QAEMPBDW4TextStyle@@MH@Z
  00557	d9 9d dc fc ff
	ff		 fstp	 DWORD PTR tv442[ebp]
$LN34@OnRender@2:

; 1656 : 
; 1657 : 		// 
; 1658 : 		DWORD dwGuildIndex, dwGuildMark;
; 1659 : 		g_UserInfoMgr.GetGuildInfo( m_szNickName, dwGuildIndex, dwGuildMark );

  0055d	8d 85 d4 fc ff
	ff		 lea	 eax, DWORD PTR _dwGuildMark$529061[ebp]
  00563	50		 push	 eax
  00564	8d 85 cc fc ff
	ff		 lea	 eax, DWORD PTR _dwGuildIndex$529060[ebp]
  0056a	50		 push	 eax
  0056b	8d 86 28 02 00
	00		 lea	 eax, DWORD PTR [esi+552]
  00571	50		 push	 eax
  00572	e8 00 00 00 00	 call	 ?GetSingleton@ioUserInfoMgr@@SAAAV1@XZ ; ioUserInfoMgr::GetSingleton
  00577	8b c8		 mov	 ecx, eax
  00579	e8 00 00 00 00	 call	 ?GetGuildInfo@ioUserInfoMgr@@QAEXABVioHashString@@AAK1@Z ; ioUserInfoMgr::GetGuildInfo

; 1660 : 		g_GuildMarkMgr.RenderSmallMark( dwGuildIndex, dwGuildMark, iXPos + 64 + iCurrentXPos, iYPos + 11 );	

  0057e	8b 85 e0 fc ff
	ff		 mov	 eax, DWORD PTR _iYPos$[ebp]
  00584	66 0f 6e 8d ec
	fc ff ff	 movd	 xmm1, DWORD PTR _iCurrentXPos$529059[ebp]
  0058c	6a 00		 push	 0
  0058e	0f 57 c0	 xorps	 xmm0, xmm0
  00591	51		 push	 ecx
  00592	51		 push	 ecx
  00593	8b 8d e8 fc ff
	ff		 mov	 ecx, DWORD PTR _iXPos$[ebp]
  00599	83 c0 0b	 add	 eax, 11			; 0000000bH
  0059c	f3 0f 2a c0	 cvtsi2ss xmm0, eax
  005a0	f3 0f 11 44 24
	04		 movss	 DWORD PTR [esp+4], xmm0
  005a6	f3 0f 10 85 dc
	fc ff ff	 movss	 xmm0, DWORD PTR tv442[ebp]
  005ae	0f 5a c0	 cvtps2pd xmm0, xmm0
  005b1	f2 0f 58 05 00
	00 00 00	 addsd	 xmm0, QWORD PTR __real@4008000000000000
  005b9	f3 0f e6 c9	 cvtdq2pd xmm1, xmm1
  005bd	f2 0f 58 c1	 addsd	 xmm0, xmm1
  005c1	f2 0f 2c c0	 cvttsd2si eax, xmm0
  005c5	8d 44 08 40	 lea	 eax, DWORD PTR [eax+ecx+64]
  005c9	0f 57 c0	 xorps	 xmm0, xmm0
  005cc	f3 0f 2a c0	 cvtsi2ss xmm0, eax
  005d0	f3 0f 11 04 24	 movss	 DWORD PTR [esp], xmm0
  005d5	ff b5 d4 fc ff
	ff		 push	 DWORD PTR _dwGuildMark$529061[ebp]
  005db	ff b5 cc fc ff
	ff		 push	 DWORD PTR _dwGuildIndex$529060[ebp]
  005e1	e8 00 00 00 00	 call	 ?GetSingleton@ioGuildMarkMgr@@SAAAV1@XZ ; ioGuildMarkMgr::GetSingleton
  005e6	8b c8		 mov	 ecx, eax
  005e8	e8 00 00 00 00	 call	 ?RenderSmallMark@ioGuildMarkMgr@@QAEXKKMMW4UIRenderType@@@Z ; ioGuildMarkMgr::RenderSmallMark

; 1661 : 
; 1662 : 		// &//
; 1663 : 		int iSec  = ( FRAMEGETTIME() - m_dwResultTime ) / FLOAT1000;

  005ed	b8 e8 03 00 00	 mov	 eax, 1000		; 000003e8H
  005f2	89 85 d8 fc ff
	ff		 mov	 DWORD PTR $T534632[ebp], eax
  005f8	ff 15 00 00 00
	00		 call	 DWORD PTR __imp_?GetSingleton@ioFrameTimer@@SAAAV1@XZ
  005fe	8b c8		 mov	 ecx, eax
  00600	ff 15 00 00 00
	00		 call	 DWORD PTR __imp_?GetLoopSec@ioFrameTimer@@QBEKXZ
  00606	2b 86 48 02 00
	00		 sub	 eax, DWORD PTR [esi+584]
  0060c	89 85 d0 fc ff
	ff		 mov	 DWORD PTR tv822[ebp], eax
  00612	db 85 d0 fc ff
	ff		 fild	 DWORD PTR tv822[ebp]
  00618	79 06		 jns	 SHORT $LN39@OnRender@2
  0061a	d8 05 00 00 00
	00		 fadd	 DWORD PTR __real@4f800000
$LN39@OnRender@2:
  00620	8b 85 d8 fc ff
	ff		 mov	 eax, DWORD PTR $T534632[ebp]
  00626	db 85 d8 fc ff
	ff		 fild	 DWORD PTR $T534632[ebp]
  0062c	85 c0		 test	 eax, eax
  0062e	79 06		 jns	 SHORT $LN40@OnRender@2
  00630	d8 05 00 00 00
	00		 fadd	 DWORD PTR __real@4f800000
$LN40@OnRender@2:
  00636	de f9		 fdivp	 ST(1), ST(0)
  00638	e8 00 00 00 00	 call	 __ftol2_sse

; 1664 : 		int iMin  = max( 1, iSec / 60 );

  0063d	6a 3c		 push	 60			; 0000003cH
  0063f	99		 cdq
  00640	59		 pop	 ecx
  00641	f7 f9		 idiv	 ecx
  00643	33 c9		 xor	 ecx, ecx
  00645	41		 inc	 ecx
  00646	89 8d ec fc ff
	ff		 mov	 DWORD PTR _iMin$529064[ebp], ecx
  0064c	3b c1		 cmp	 eax, ecx
  0064e	7c 06		 jl	 SHORT $LN36@OnRender@2
  00650	89 85 ec fc ff
	ff		 mov	 DWORD PTR _iMin$529064[ebp], eax
$LN36@OnRender@2:

; 1665 : 		int iHour = iMin / 60;

  00656	8b 85 ec fc ff
	ff		 mov	 eax, DWORD PTR _iMin$529064[ebp]
  0065c	6a 3c		 push	 60			; 0000003cH
  0065e	99		 cdq
  0065f	59		 pop	 ecx
  00660	f7 f9		 idiv	 ecx

; 1666 : 		int iDay  = iHour / 24;

  00662	6a 18		 push	 24			; 00000018H
  00664	59		 pop	 ecx

; 1667 : 
; 1668 : 		char szResult[MAX_PATH] = "";

  00665	68 03 01 00 00	 push	 259			; 00000103H
  0066a	6a 00		 push	 0
  0066c	c6 85 f8 fe ff
	ff 00		 mov	 BYTE PTR _szResult$529067[ebp], 0
  00673	89 85 dc fc ff
	ff		 mov	 DWORD PTR tv738[ebp], eax
  00679	89 95 d0 fc ff
	ff		 mov	 DWORD PTR tv892[ebp], edx
  0067f	99		 cdq
  00680	f7 f9		 idiv	 ecx
  00682	89 85 d8 fc ff
	ff		 mov	 DWORD PTR _iDay$529066[ebp], eax
  00688	8d 85 f9 fe ff
	ff		 lea	 eax, DWORD PTR _szResult$529067[ebp+1]
  0068e	50		 push	 eax
  0068f	e8 00 00 00 00	 call	 _memset

; 1669 : 		char szResultTime[MAX_PATH] = "";

  00694	68 03 01 00 00	 push	 259			; 00000103H
  00699	8d 85 f1 fc ff
	ff		 lea	 eax, DWORD PTR _szResultTime$529068[ebp+1]
  0069f	6a 00		 push	 0
  006a1	50		 push	 eax
  006a2	c6 85 f0 fc ff
	ff 00		 mov	 BYTE PTR _szResultTime$529068[ebp], 0
  006a9	e8 00 00 00 00	 call	 _memset

; 1670 : 		// 
; 1671 : 		if( iDay != 0 )

  006ae	33 c0		 xor	 eax, eax
  006b0	83 c4 18	 add	 esp, 24			; 00000018H
  006b3	39 85 d8 fc ff
	ff		 cmp	 DWORD PTR _iDay$529066[ebp], eax
  006b9	74 0b		 je	 SHORT $LN21@OnRender@2

; 1672 : 			SafeSprintf( szResultTime, sizeof( szResultTime ), STR(7), iDay );

  006bb	ff b5 d8 fc ff
	ff		 push	 DWORD PTR _iDay$529066[ebp]
  006c1	50		 push	 eax
  006c2	6a 07		 push	 7
  006c4	eb 5b		 jmp	 SHORT $LN42@OnRender@2
$LN21@OnRender@2:

; 1673 : 		else if( iHour != 0 )

  006c6	39 85 dc fc ff
	ff		 cmp	 DWORD PTR tv738[ebp], eax
  006cc	74 4a		 je	 SHORT $LN19@OnRender@2

; 1674 : 		{
; 1675 : 			if( iMin != 0 )

  006ce	39 85 ec fc ff
	ff		 cmp	 DWORD PTR _iMin$529064[ebp], eax
  006d4	74 37		 je	 SHORT $LN18@OnRender@2

; 1676 : 				SafeSprintf( szResultTime, sizeof( szResultTime ), STR(8), iHour, iMin % 60 );

  006d6	ff b5 d0 fc ff
	ff		 push	 DWORD PTR tv892[ebp]
  006dc	ff b5 dc fc ff
	ff		 push	 DWORD PTR tv738[ebp]
  006e2	50		 push	 eax
  006e3	6a 08		 push	 8
  006e5	53		 push	 ebx
  006e6	57		 push	 edi
  006e7	ff 15 00 00 00
	00		 call	 DWORD PTR __imp_?GetSingleton@ioStringManager@@SAAAV1@XZ
  006ed	8b c8		 mov	 ecx, eax
  006ef	ff 15 00 00 00
	00		 call	 DWORD PTR __imp_?GetString@ioStringManager@@QAEPADPBD0HW4FileNamePrefix@1@@Z
  006f5	50		 push	 eax
  006f6	8d 85 f0 fc ff
	ff		 lea	 eax, DWORD PTR _szResultTime$529068[ebp]
  006fc	68 04 01 00 00	 push	 260			; 00000104H
  00701	50		 push	 eax
  00702	ff 15 00 00 00
	00		 call	 DWORD PTR __imp_?SafeSprintf@@YAXPADHPBDHH@Z
  00708	83 c4 14	 add	 esp, 20			; 00000014H

; 1677 : 			else

  0070b	eb 3a		 jmp	 SHORT $LN16@OnRender@2
$LN18@OnRender@2:

; 1678 : 				SafeSprintf( szResultTime, sizeof( szResultTime ), STR(9), iHour );

  0070d	ff b5 dc fc ff
	ff		 push	 DWORD PTR tv738[ebp]
  00713	50		 push	 eax
  00714	6a 09		 push	 9

; 1679 : 		}
; 1680 : 		else

  00716	eb 09		 jmp	 SHORT $LN42@OnRender@2
$LN19@OnRender@2:

; 1681 : 			SafeSprintf( szResultTime, sizeof( szResultTime ), STR(10), iMin );

  00718	ff b5 ec fc ff
	ff		 push	 DWORD PTR _iMin$529064[ebp]
  0071e	50		 push	 eax
  0071f	6a 0a		 push	 10			; 0000000aH
$LN42@OnRender@2:
  00721	53		 push	 ebx
  00722	57		 push	 edi
  00723	ff 15 00 00 00
	00		 call	 DWORD PTR __imp_?GetSingleton@ioStringManager@@SAAAV1@XZ
  00729	8b c8		 mov	 ecx, eax
  0072b	ff 15 00 00 00
	00		 call	 DWORD PTR __imp_?GetString@ioStringManager@@QAEPADPBD0HW4FileNamePrefix@1@@Z
  00731	50		 push	 eax
  00732	8d 85 f0 fc ff
	ff		 lea	 eax, DWORD PTR _szResultTime$529068[ebp]
  00738	68 04 01 00 00	 push	 260			; 00000104H
  0073d	50		 push	 eax
  0073e	ff 15 00 00 00
	00		 call	 DWORD PTR __imp_?SafeSprintf@@YAXPADHPBDH@Z
  00744	83 c4 10	 add	 esp, 16			; 00000010H
$LN16@OnRender@2:

; 1682 :         
; 1683 : 		// 
; 1684 : 		ioUIRenderImage *pResultIcon = NULL;
; 1685 : 		if( !m_bResultCheck )

  00747	80 be 44 02 00
	00 00		 cmp	 BYTE PTR [esi+580], 0
  0074e	75 2f		 jne	 SHORT $LN15@OnRender@2

; 1686 : 		{
; 1687 : 			SafeSprintf( szResult, sizeof( szResult ), STR(11) );		

  00750	6a 00		 push	 0
  00752	6a 0b		 push	 11			; 0000000bH
  00754	53		 push	 ebx
  00755	57		 push	 edi
  00756	ff 15 00 00 00
	00		 call	 DWORD PTR __imp_?GetSingleton@ioStringManager@@SAAAV1@XZ
  0075c	8b c8		 mov	 ecx, eax
  0075e	ff 15 00 00 00
	00		 call	 DWORD PTR __imp_?GetString@ioStringManager@@QAEPADPBD0HW4FileNamePrefix@1@@Z
  00764	50		 push	 eax
  00765	8d 85 f8 fe ff
	ff		 lea	 eax, DWORD PTR _szResult$529067[ebp]
  0076b	68 04 01 00 00	 push	 260			; 00000104H
  00770	50		 push	 eax
  00771	ff 15 00 00 00
	00		 call	 DWORD PTR __imp_?SafeSprintf@@YAXPADHPBDZZ
  00777	83 c4 0c	 add	 esp, 12			; 0000000cH

; 1688 : 			pResultIcon = m_pResultLose;
; 1689 : 		}
; 1690 : 		else

  0077a	e9 0b 01 00 00	 jmp	 $LN43@OnRender@2
$LN15@OnRender@2:

; 1691 : 		{
; 1692 : 			if( m_iTeamType == TEAM_BLUE )

  0077f	83 be 20 02 00
	00 02		 cmp	 DWORD PTR [esi+544], 2

; 1693 : 			{
; 1694 : 				if( m_eWinTeam == WTT_BLUE_TEAM || m_bLeave )

  00786	8b 86 24 02 00
	00		 mov	 eax, DWORD PTR [esi+548]
  0078c	0f 85 96 00 00
	00		 jne	 $LN13@OnRender@2
  00792	83 f8 02	 cmp	 eax, 2
  00795	74 7f		 je	 SHORT $LN11@OnRender@2
  00797	80 be 38 02 00
	00 00		 cmp	 BYTE PTR [esi+568], 0
  0079e	75 76		 jne	 SHORT $LN11@OnRender@2

; 1697 : 					pResultIcon = m_pResultLose;
; 1698 : 				}
; 1699 : 				else if( m_eWinTeam == WTT_RED_TEAM )
; 1700 : 				{
; 1701 : 					SafeSprintf( szResult, sizeof( szResult ), STR(13), m_iRedScore, m_iBlueScore );

  007a0	ff b6 3c 02 00
	00		 push	 DWORD PTR [esi+572]
  007a6	ff b6 40 02 00
	00		 push	 DWORD PTR [esi+576]
  007ac	6a 00		 push	 0
  007ae	83 f8 01	 cmp	 eax, 1
  007b1	75 33		 jne	 SHORT $LN9@OnRender@2
  007b3	6a 0d		 push	 13			; 0000000dH
$LN46@OnRender@2:
  007b5	53		 push	 ebx
  007b6	57		 push	 edi
  007b7	ff 15 00 00 00
	00		 call	 DWORD PTR __imp_?GetSingleton@ioStringManager@@SAAAV1@XZ
  007bd	8b c8		 mov	 ecx, eax
  007bf	ff 15 00 00 00
	00		 call	 DWORD PTR __imp_?GetString@ioStringManager@@QAEPADPBD0HW4FileNamePrefix@1@@Z
  007c5	50		 push	 eax
  007c6	8d 85 f8 fe ff
	ff		 lea	 eax, DWORD PTR _szResult$529067[ebp]
  007cc	68 04 01 00 00	 push	 260			; 00000104H
  007d1	50		 push	 eax
  007d2	ff 15 00 00 00
	00		 call	 DWORD PTR __imp_?SafeSprintf@@YAXPADHPBDHH@Z

; 1702 : 					pResultIcon = m_pResultWin;

  007d8	8b 86 00 02 00
	00		 mov	 eax, DWORD PTR [esi+512]
  007de	83 c4 14	 add	 esp, 20			; 00000014H

; 1703 : 				}
; 1704 : 				else

  007e1	e9 aa 00 00 00	 jmp	 $LN44@OnRender@2
$LN9@OnRender@2:

; 1705 : 				{
; 1706 : 					SafeSprintf( szResult, sizeof( szResult ), STR(14), m_iRedScore, m_iBlueScore  );

  007e6	6a 0e		 push	 14			; 0000000eH
$LN47@OnRender@2:
  007e8	53		 push	 ebx
  007e9	57		 push	 edi
  007ea	ff 15 00 00 00
	00		 call	 DWORD PTR __imp_?GetSingleton@ioStringManager@@SAAAV1@XZ
  007f0	8b c8		 mov	 ecx, eax
  007f2	ff 15 00 00 00
	00		 call	 DWORD PTR __imp_?GetString@ioStringManager@@QAEPADPBD0HW4FileNamePrefix@1@@Z
  007f8	50		 push	 eax
  007f9	8d 85 f8 fe ff
	ff		 lea	 eax, DWORD PTR _szResult$529067[ebp]
  007ff	68 04 01 00 00	 push	 260			; 00000104H
  00804	50		 push	 eax
  00805	ff 15 00 00 00
	00		 call	 DWORD PTR __imp_?SafeSprintf@@YAXPADHPBDHH@Z

; 1707 : 					pResultIcon = m_pResultDraw;

  0080b	8b 86 08 02 00
	00		 mov	 eax, DWORD PTR [esi+520]
  00811	83 c4 14	 add	 esp, 20			; 00000014H
  00814	eb 7a		 jmp	 SHORT $LN44@OnRender@2
$LN11@OnRender@2:

; 1695 : 				{
; 1696 : 					SafeSprintf( szResult, sizeof( szResult ), STR(12), m_iRedScore, m_iBlueScore );

  00816	ff b6 3c 02 00
	00		 push	 DWORD PTR [esi+572]
  0081c	ff b6 40 02 00
	00		 push	 DWORD PTR [esi+576]
  00822	6a 00		 push	 0
  00824	6a 0c		 push	 12			; 0000000cH

; 1708 : 				}
; 1709 : 			}
; 1710 : 			else

  00826	eb 3c		 jmp	 SHORT $LN45@OnRender@2
$LN13@OnRender@2:

; 1711 : 			{
; 1712 : 				if( m_eWinTeam == WTT_RED_TEAM || m_bLeave )

  00828	83 f8 01	 cmp	 eax, 1
  0082b	74 27		 je	 SHORT $LN5@OnRender@2
  0082d	80 be 38 02 00
	00 00		 cmp	 BYTE PTR [esi+568], 0
  00834	75 1e		 jne	 SHORT $LN5@OnRender@2

; 1716 : 				}
; 1717 : 				else if( m_eWinTeam == WTT_BLUE_TEAM )
; 1718 : 				{	
; 1719 : 					SafeSprintf( szResult, sizeof( szResult ), STR(16), m_iBlueScore, m_iRedScore );

  00836	ff b6 40 02 00
	00		 push	 DWORD PTR [esi+576]
  0083c	ff b6 3c 02 00
	00		 push	 DWORD PTR [esi+572]
  00842	6a 00		 push	 0
  00844	83 f8 02	 cmp	 eax, 2
  00847	75 07		 jne	 SHORT $LN3@OnRender@2
  00849	6a 10		 push	 16			; 00000010H

; 1720 : 					pResultIcon = m_pResultWin;
; 1721 : 				}
; 1722 : 				else

  0084b	e9 65 ff ff ff	 jmp	 $LN46@OnRender@2
$LN3@OnRender@2:

; 1723 : 				{
; 1724 : 					SafeSprintf( szResult, sizeof( szResult ), STR(17), m_iBlueScore, m_iRedScore  );

  00850	6a 11		 push	 17			; 00000011H

; 1725 : 					pResultIcon = m_pResultDraw;

  00852	eb 94		 jmp	 SHORT $LN47@OnRender@2
$LN5@OnRender@2:

; 1713 : 				{
; 1714 : 					SafeSprintf( szResult, sizeof( szResult ), STR(15), m_iBlueScore, m_iRedScore );

  00854	ff b6 40 02 00
	00		 push	 DWORD PTR [esi+576]
  0085a	ff b6 3c 02 00
	00		 push	 DWORD PTR [esi+572]
  00860	6a 00		 push	 0
  00862	6a 0f		 push	 15			; 0000000fH
$LN45@OnRender@2:
  00864	53		 push	 ebx
  00865	57		 push	 edi
  00866	ff 15 00 00 00
	00		 call	 DWORD PTR __imp_?GetSingleton@ioStringManager@@SAAAV1@XZ
  0086c	8b c8		 mov	 ecx, eax
  0086e	ff 15 00 00 00
	00		 call	 DWORD PTR __imp_?GetString@ioStringManager@@QAEPADPBD0HW4FileNamePrefix@1@@Z
  00874	50		 push	 eax
  00875	8d 85 f8 fe ff
	ff		 lea	 eax, DWORD PTR _szResult$529067[ebp]
  0087b	68 04 01 00 00	 push	 260			; 00000104H
  00880	50		 push	 eax
  00881	ff 15 00 00 00
	00		 call	 DWORD PTR __imp_?SafeSprintf@@YAXPADHPBDHH@Z
  00887	83 c4 14	 add	 esp, 20			; 00000014H
$LN43@OnRender@2:

; 1715 : 					pResultIcon = m_pResultLose;

  0088a	8b 86 04 02 00
	00		 mov	 eax, DWORD PTR [esi+516]
$LN44@OnRender@2:

; 1726 : 				}
; 1727 : 			}
; 1728 : 		}
; 1729 : 
; 1730 : 		g_FontMgr.SetTextColor( TCT_DEFAULT_GRAY );

  00890	68 6e 6e 6e ff	 push	 -9539986		; ff6e6e6eH
  00895	89 85 ec fc ff
	ff		 mov	 DWORD PTR _pResultIcon$529075[ebp], eax
  0089b	ff 15 00 00 00
	00		 call	 DWORD PTR __imp_?GetSingleton@ioFontManager@@SAAAV1@XZ
  008a1	8b c8		 mov	 ecx, eax
  008a3	ff 15 00 00 00
	00		 call	 DWORD PTR __imp_?SetTextColor@ioFontManager@@QAEXK@Z

; 1731 : 		g_FontMgr.PrintText( iXPos + 64, iYPos + 27, FONT_SIZE_12, STR(18), szResult, szResultTime );

  008a9	8d 85 f0 fc ff
	ff		 lea	 eax, DWORD PTR _szResultTime$529068[ebp]
  008af	50		 push	 eax
  008b0	8d 85 f8 fe ff
	ff		 lea	 eax, DWORD PTR _szResult$529067[ebp]
  008b6	50		 push	 eax
  008b7	6a 00		 push	 0
  008b9	6a 12		 push	 18			; 00000012H
  008bb	53		 push	 ebx
  008bc	57		 push	 edi
  008bd	ff 15 00 00 00
	00		 call	 DWORD PTR __imp_?GetSingleton@ioStringManager@@SAAAV1@XZ
  008c3	8b c8		 mov	 ecx, eax
  008c5	ff 15 00 00 00
	00		 call	 DWORD PTR __imp_?GetString@ioStringManager@@QAEPADPBD0HW4FileNamePrefix@1@@Z
  008cb	f3 0f 10 05 00
	00 00 00	 movss	 xmm0, DWORD PTR __real@3f19999a
  008d3	50		 push	 eax
  008d4	8b 85 e0 fc ff
	ff		 mov	 eax, DWORD PTR _iYPos$[ebp]
  008da	83 ec 0c	 sub	 esp, 12			; 0000000cH
  008dd	f3 0f 11 44 24
	08		 movss	 DWORD PTR [esp+8], xmm0
  008e3	83 c0 1b	 add	 eax, 27			; 0000001bH
  008e6	0f 57 c0	 xorps	 xmm0, xmm0
  008e9	f3 0f 2a c0	 cvtsi2ss xmm0, eax
  008ed	f3 0f 11 44 24
	04		 movss	 DWORD PTR [esp+4], xmm0
  008f3	f3 0f 10 85 e4
	fc ff ff	 movss	 xmm0, DWORD PTR tv837[ebp]
  008fb	f3 0f 11 04 24	 movss	 DWORD PTR [esp], xmm0
  00900	ff 15 00 00 00
	00		 call	 DWORD PTR __imp_?GetSingleton@ioFontManager@@SAAAV1@XZ
  00906	8b c8		 mov	 ecx, eax
  00908	ff 15 00 00 00
	00		 call	 DWORD PTR __imp_?PrintText@ioFontManager@@QAEXMMMPBD00@Z

; 1732 : 
; 1733 : 		if( m_pIconBack && pResultIcon )

  0090e	33 db		 xor	 ebx, ebx
  00910	39 9e fc 01 00
	00		 cmp	 DWORD PTR [esi+508], ebx
  00916	0f 84 b1 00 00
	00		 je	 $LN1@OnRender@2
  0091c	8b bd ec fc ff
	ff		 mov	 edi, DWORD PTR _pResultIcon$529075[ebp]
  00922	3b fb		 cmp	 edi, ebx
  00924	0f 84 a3 00 00
	00		 je	 $LN1@OnRender@2

; 1734 : 		{
; 1735 : 			m_pIconBack->SetScale( 0.48f );

  0092a	8b 8e fc 01 00
	00		 mov	 ecx, DWORD PTR [esi+508]
  00930	f3 0f 10 05 00
	00 00 00	 movss	 xmm0, DWORD PTR __real@3ef5c28f
  00938	8b 01		 mov	 eax, DWORD PTR [ecx]
  0093a	51		 push	 ecx
  0093b	f3 0f 11 04 24	 movss	 DWORD PTR [esp], xmm0
  00940	ff 50 1c	 call	 DWORD PTR [eax+28]

; 1736 : 			m_pIconBack->Render( iXPos + 35, iYPos + 25, UI_RENDER_MULTIPLY );

  00943	8b 85 e0 fc ff
	ff		 mov	 eax, DWORD PTR _iYPos$[ebp]
  00949	8b b6 fc 01 00
	00		 mov	 esi, DWORD PTR [esi+508]
  0094f	53		 push	 ebx
  00950	53		 push	 ebx
  00951	83 c0 19	 add	 eax, 25			; 00000019H
  00954	53		 push	 ebx
  00955	0f 57 c0	 xorps	 xmm0, xmm0
  00958	f3 0f 2a c0	 cvtsi2ss xmm0, eax
  0095c	8b 85 e8 fc ff
	ff		 mov	 eax, DWORD PTR _iXPos$[ebp]
  00962	6a 08		 push	 8
  00964	51		 push	 ecx
  00965	83 c0 23	 add	 eax, 35			; 00000023H
  00968	51		 push	 ecx
  00969	0f 57 c9	 xorps	 xmm1, xmm1
  0096c	f3 0f 2a c8	 cvtsi2ss xmm1, eax
  00970	8b 06		 mov	 eax, DWORD PTR [esi]
  00972	f3 0f 11 44 24
	04		 movss	 DWORD PTR [esp+4], xmm0
  00978	8b ce		 mov	 ecx, esi
  0097a	f3 0f 11 85 e4
	fc ff ff	 movss	 DWORD PTR tv817[ebp], xmm0
  00982	f3 0f 11 8d e8
	fc ff ff	 movss	 DWORD PTR tv819[ebp], xmm1
  0098a	f3 0f 11 0c 24	 movss	 DWORD PTR [esp], xmm1
  0098f	ff 10		 call	 DWORD PTR [eax]

; 1737 : 			
; 1738 : 			pResultIcon->SetScale( 0.48f );

  00991	f3 0f 10 05 00
	00 00 00	 movss	 xmm0, DWORD PTR __real@3ef5c28f
  00999	8b 07		 mov	 eax, DWORD PTR [edi]
  0099b	51		 push	 ecx
  0099c	8b cf		 mov	 ecx, edi
  0099e	f3 0f 11 04 24	 movss	 DWORD PTR [esp], xmm0
  009a3	ff 50 1c	 call	 DWORD PTR [eax+28]

; 1739 : 			pResultIcon->Render( iXPos + 35, iYPos + 25 );

  009a6	f3 0f 10 85 e4
	fc ff ff	 movss	 xmm0, DWORD PTR tv817[ebp]
  009ae	8b 07		 mov	 eax, DWORD PTR [edi]
  009b0	53		 push	 ebx
  009b1	53		 push	 ebx
  009b2	53		 push	 ebx
  009b3	53		 push	 ebx
  009b4	51		 push	 ecx
  009b5	51		 push	 ecx
  009b6	f3 0f 11 44 24
	04		 movss	 DWORD PTR [esp+4], xmm0
  009bc	f3 0f 10 85 e8
	fc ff ff	 movss	 xmm0, DWORD PTR tv819[ebp]
  009c4	8b cf		 mov	 ecx, edi
  009c6	f3 0f 11 04 24	 movss	 DWORD PTR [esp], xmm0
  009cb	ff 10		 call	 DWORD PTR [eax]
$LN1@OnRender@2:

; 1740 : 		}
; 1741 : 	}
; 1742 : }

  009cd	8b 4d fc	 mov	 ecx, DWORD PTR __$ArrayPad$[ebp]
  009d0	5f		 pop	 edi
  009d1	5e		 pop	 esi
  009d2	33 cd		 xor	 ecx, ebp
  009d4	5b		 pop	 ebx
  009d5	e8 00 00 00 00	 call	 @__security_check_cookie@4
  009da	c9		 leave
  009db	c3		 ret	 0
?OnRender@HeroMatchHistoryBtn@@MAEXXZ ENDP		; HeroMatchHistoryBtn::OnRender
_TEXT	ENDS
PUBLIC	??_7HeroMatchHistoryWnd@@6B@			; HeroMatchHistoryWnd::`vftable'
PUBLIC	??0HeroMatchHistoryWnd@@QAE@XZ			; HeroMatchHistoryWnd::HeroMatchHistoryWnd
PUBLIC	??_R4HeroMatchHistoryWnd@@6B@			; HeroMatchHistoryWnd::`RTTI Complete Object Locator'
PUBLIC	??_R0?AVHeroMatchHistoryWnd@@@8			; HeroMatchHistoryWnd `RTTI Type Descriptor'
PUBLIC	??_R3HeroMatchHistoryWnd@@8			; HeroMatchHistoryWnd::`RTTI Class Hierarchy Descriptor'
PUBLIC	??_R2HeroMatchHistoryWnd@@8			; HeroMatchHistoryWnd::`RTTI Base Class Array'
PUBLIC	??_R1A@?0A@EA@HeroMatchHistoryWnd@@8		; HeroMatchHistoryWnd::`RTTI Base Class Descriptor at (0,-1,0,64)'
PUBLIC	?iwm_command@HeroMatchHistoryWnd@@UAEXPAVioWnd@@HK@Z ; HeroMatchHistoryWnd::iwm_command
PUBLIC	?iwm_vscroll@HeroMatchHistoryWnd@@UAEXKH@Z	; HeroMatchHistoryWnd::iwm_vscroll
PUBLIC	?iwm_wheel@HeroMatchHistoryWnd@@UAEXH@Z		; HeroMatchHistoryWnd::iwm_wheel
PUBLIC	?iwm_show@HeroMatchHistoryWnd@@UAEXXZ		; HeroMatchHistoryWnd::iwm_show
PUBLIC	?iwm_hide@HeroMatchHistoryWnd@@UAEXXZ		; HeroMatchHistoryWnd::iwm_hide
EXTRN	?OnRender@ioWnd@@MAEXXZ:PROC			; ioWnd::OnRender
EXTRN	??_EHeroMatchHistoryWnd@@UAEPAXI@Z:PROC		; HeroMatchHistoryWnd::`vector deleting destructor'
;	COMDAT ??_R1A@?0A@EA@HeroMatchHistoryWnd@@8
rdata$r	SEGMENT
??_R1A@?0A@EA@HeroMatchHistoryWnd@@8 DD FLAT:??_R0?AVHeroMatchHistoryWnd@@@8 ; HeroMatchHistoryWnd::`RTTI Base Class Descriptor at (0,-1,0,64)'
	DD	01H
	DD	00H
	DD	0ffffffffH
	DD	00H
	DD	040H
	DD	FLAT:??_R3HeroMatchHistoryWnd@@8
rdata$r	ENDS
;	COMDAT ??_R2HeroMatchHistoryWnd@@8
rdata$r	SEGMENT
??_R2HeroMatchHistoryWnd@@8 DD FLAT:??_R1A@?0A@EA@HeroMatchHistoryWnd@@8 ; HeroMatchHistoryWnd::`RTTI Base Class Array'
	DD	FLAT:??_R1A@?0A@EA@ioWnd@@8
rdata$r	ENDS
;	COMDAT ??_R3HeroMatchHistoryWnd@@8
rdata$r	SEGMENT
??_R3HeroMatchHistoryWnd@@8 DD 00H			; HeroMatchHistoryWnd::`RTTI Class Hierarchy Descriptor'
	DD	00H
	DD	02H
	DD	FLAT:??_R2HeroMatchHistoryWnd@@8
rdata$r	ENDS
;	COMDAT ??_R0?AVHeroMatchHistoryWnd@@@8
_DATA	SEGMENT
??_R0?AVHeroMatchHistoryWnd@@@8 DD FLAT:??_7type_info@@6B@ ; HeroMatchHistoryWnd `RTTI Type Descriptor'
	DD	00H
	DB	'.?AVHeroMatchHistoryWnd@@', 00H
_DATA	ENDS
;	COMDAT ??_R4HeroMatchHistoryWnd@@6B@
rdata$r	SEGMENT
??_R4HeroMatchHistoryWnd@@6B@ DD 00H			; HeroMatchHistoryWnd::`RTTI Complete Object Locator'
	DD	00H
	DD	00H
	DD	FLAT:??_R0?AVHeroMatchHistoryWnd@@@8
	DD	FLAT:??_R3HeroMatchHistoryWnd@@8
rdata$r	ENDS
;	COMDAT ??_7HeroMatchHistoryWnd@@6B@
CONST	SEGMENT
??_7HeroMatchHistoryWnd@@6B@ DD FLAT:??_R4HeroMatchHistoryWnd@@6B@ ; HeroMatchHistoryWnd::`vftable'
	DD	FLAT:?AddRenderFrame@ioWnd@@UAEXABVioHashString@@PAVioUIRenderFrame@@@Z
	DD	FLAT:?AddRenderImage@ioWnd@@UAEXABVioHashString@@PAVioUIRenderImage@@@Z
	DD	FLAT:?AddTooltipHelp@ioWnd@@UAEXABVioHashString@@00@Z
	DD	FLAT:?ParseExtraInfo@ioWnd@@UAEXAAVioXMLElement@@@Z
	DD	FLAT:?AddNamedRenderImage@ioWnd@@UAEXABVioHashString@@PAVioUIRenderImage@@@Z
	DD	FLAT:?RemoveNamedRenderImage@ioWnd@@UAEXABVioHashString@@@Z
	DD	FLAT:?GetNamedRenderImage@ioWnd@@UBEPAVioUIRenderImage@@ABVioHashString@@@Z
	DD	FLAT:?SetWindowAlpha@ioWnd@@UAEXH@Z
	DD	FLAT:?SetActive@ioWnd@@UAEXXZ
	DD	FLAT:?SetInActive@ioWnd@@UAEXXZ
	DD	FLAT:?ClearElementImageList@ioWnd@@UAEXXZ
	DD	FLAT:?SetSize@ioWnd@@UAEXHH@Z
	DD	FLAT:?SetPositionToDefault@ioWnd@@UAEXHH_N0@Z
	DD	FLAT:?IsNeedProcess@ioWnd@@UBE_NXZ
	DD	FLAT:?IsCanMouseReaction@ioWnd@@UBE_NXZ
	DD	FLAT:?AddChild@ioWnd@@UAEXPAV1@@Z
	DD	FLAT:?DeleteChild@ioWnd@@UAEXK@Z
	DD	FLAT:?DeleteAllChild@ioWnd@@UAEXXZ
	DD	FLAT:?OnRenderShowAndHide@ioWnd@@MAE_NXZ
	DD	FLAT:?OnRenderShowAndHideByDefault@ioWnd@@MAE_NK@Z
	DD	FLAT:?OnRenderShowAndHideByTop@ioWnd@@MAE_NK@Z
	DD	FLAT:?OnRenderShowAndHideByDown@ioWnd@@MAE_NK@Z
	DD	FLAT:?OnRender@ioWnd@@MAEXXZ
	DD	FLAT:?OnRenderAfterChild@ioWnd@@MAEXXZ
	DD	FLAT:?OnProcess@ioWnd@@MAEXM@Z
	DD	FLAT:?OnMouseProcess@ioWnd@@MAEXABVioMouse@@@Z
	DD	FLAT:?CheckFrameReSize@ioWnd@@MAEXHHHH@Z
	DD	FLAT:?RenderImageList@ioWnd@@MAEXHHW4UIRenderType@@@Z
	DD	FLAT:?iwm_create@ioWnd@@UAEXXZ
	DD	FLAT:?iwm_destroy@ioWnd@@UAEXXZ
	DD	FLAT:?iwm_lbuttondown@ioWnd@@UAEXABVioMouse@@@Z
	DD	FLAT:?iwm_lbuttonup@ioWnd@@UAEXABVioMouse@@@Z
	DD	FLAT:?iwm_lbuttonDBLCLK@ioWnd@@UAEXABVioMouse@@@Z
	DD	FLAT:?iwm_rbuttondown@ioWnd@@UAEXABVioMouse@@@Z
	DD	FLAT:?iwm_rbuttonup@ioWnd@@UAEXABVioMouse@@@Z
	DD	FLAT:?iwm_command@HeroMatchHistoryWnd@@UAEXPAVioWnd@@HK@Z
	DD	FLAT:?iwm_mouseover@ioWnd@@UAEXABVioMouse@@@Z
	DD	FLAT:?iwm_mousemove@ioWnd@@UAEXABVioMouse@@@Z
	DD	FLAT:?iwm_mouseleave@ioWnd@@UAEXABVioMouse@@@Z
	DD	FLAT:?iwm_vscroll@HeroMatchHistoryWnd@@UAEXKH@Z
	DD	FLAT:?iwm_wheel@HeroMatchHistoryWnd@@UAEXH@Z
	DD	FLAT:?iwm_show@HeroMatchHistoryWnd@@UAEXXZ
	DD	FLAT:?iwm_hide@HeroMatchHistoryWnd@@UAEXXZ
	DD	FLAT:?iwm_esc@ioWnd@@UAE_NXZ
	DD	FLAT:?iwm_spacebar@ioWnd@@UAE_NXZ
	DD	FLAT:?iwm_gototop@ioWnd@@UAEXXZ
	DD	FLAT:?iwm_dragenter@ioWnd@@UAE?AW4IWDropEffect@@PAVioDragItem@@ABVioMouse@@@Z
	DD	FLAT:?iwm_dragover@ioWnd@@UAE?AW4IWDropEffect@@PAVioDragItem@@ABVioMouse@@@Z
	DD	FLAT:?iwm_dragleave@ioWnd@@UAEXXZ
	DD	FLAT:?iwm_dropitem@ioWnd@@UAE_NPAVioDragItem@@ABVioMouse@@PAV1@@Z
	DD	FLAT:?iwm_dropdone@ioWnd@@UAEXPAVioDragItem@@PAV1@_N@Z
	DD	FLAT:?IsEXType@ioWnd@@UBE_NXZ
	DD	FLAT:?GetWndType@ioWnd@@UBEKXZ
	DD	FLAT:?RenderWnd@ioWnd@@UAEXXZ
	DD	FLAT:?SetIDEX@ioWnd@@UAEXAAK_N@Z
	DD	FLAT:?ParseXML@ioWnd@@UAEXAAVioXMLElement@@@Z
	DD	FLAT:?GetHeaderFileName@ioWnd@@UAEPBDXZ
	DD	FLAT:?GetTemplateName@ioWnd@@UAEPBDXZ
	DD	FLAT:?GetDefClassName@ioWnd@@UBEPBDXZ
	DD	FLAT:?_Clone@ioWnd@@UAEPAV1@XZ
	DD	FLAT:?Copy@ioWnd@@UAEXPAV1@@Z
	DD	FLAT:?Save@ioWnd@@UAE_NAAVioXMLElement@@@Z
	DD	FLAT:?SetSaveData@ioWnd@@UAEXAAVioXMLElement@@@Z
	DD	FLAT:?SetPosX@ioWnd@@UAEXH@Z
	DD	FLAT:?SetPosY@ioWnd@@UAEXH@Z
	DD	FLAT:?SetWidth@ioWnd@@UAEXH@Z
	DD	FLAT:?SetHeight@ioWnd@@UAEXH@Z
	DD	FLAT:?GetNumFixedRenderFrame@ioWnd@@UBEHXZ
	DD	FLAT:?GetFixedRenderFrameType@ioWnd@@UAEPBDH@Z
	DD	FLAT:?GetRenderFrame@ioWnd@@UAEPAPAVioUIRenderElement@@PBD@Z
	DD	FLAT:?GetNumFixedRenderImage@ioWnd@@UBEHXZ
	DD	FLAT:?GetFixedRenderImageType@ioWnd@@UAEPBDH@Z
	DD	FLAT:?GetRenderImage@ioWnd@@UAEPAPAVioUIRenderElement@@PBD@Z
	DD	FLAT:?AddEffect@ioWnd@@UAEXABVioHashString@@PAVioUI3DEffectRender@@@Z
	DD	FLAT:?GetEffect@ioWnd@@UAEPAVioUI3DEffectRender@@VioHashString@@@Z
	DD	FLAT:??_EHeroMatchHistoryWnd@@UAEPAXI@Z
; Function compile flags: /Ogsp
CONST	ENDS
;	COMDAT ??0HeroMatchHistoryWnd@@QAE@XZ
_TEXT	SEGMENT
??0HeroMatchHistoryWnd@@QAE@XZ PROC			; HeroMatchHistoryWnd::HeroMatchHistoryWnd, COMDAT
; _this$ = ecx

; 1745 : {

  00000	56		 push	 esi
  00001	8b f1		 mov	 esi, ecx
  00003	ff 15 00 00 00
	00		 call	 DWORD PTR __imp_??0ioWnd@@QAE@XZ

; 1746 : 	m_iCurPos = 0;

  00009	83 a6 60 01 00
	00 00		 and	 DWORD PTR [esi+352], 0
  00010	c7 06 00 00 00
	00		 mov	 DWORD PTR [esi], OFFSET ??_7HeroMatchHistoryWnd@@6B@

; 1747 : }

  00016	8b c6		 mov	 eax, esi
  00018	5e		 pop	 esi
  00019	c3		 ret	 0
??0HeroMatchHistoryWnd@@QAE@XZ ENDP			; HeroMatchHistoryWnd::HeroMatchHistoryWnd
_TEXT	ENDS
PUBLIC	??1HeroMatchHistoryWnd@@UAE@XZ			; HeroMatchHistoryWnd::~HeroMatchHistoryWnd
; Function compile flags: /Ogsp
;	COMDAT ??1HeroMatchHistoryWnd@@UAE@XZ
_TEXT	SEGMENT
??1HeroMatchHistoryWnd@@UAE@XZ PROC			; HeroMatchHistoryWnd::~HeroMatchHistoryWnd, COMDAT
; _this$ = ecx

; 1750 : {

  00000	c7 01 00 00 00
	00		 mov	 DWORD PTR [ecx], OFFSET ??_7HeroMatchHistoryWnd@@6B@

; 1751 : 
; 1752 : }

  00006	ff 25 00 00 00
	00		 jmp	 DWORD PTR __imp_??1ioWnd@@UAE@XZ
??1HeroMatchHistoryWnd@@UAE@XZ ENDP			; HeroMatchHistoryWnd::~HeroMatchHistoryWnd
; Function compile flags: /Ogsp
_TEXT	ENDS
;	COMDAT ?iwm_hide@HeroMatchHistoryWnd@@UAEXXZ
_TEXT	SEGMENT
?iwm_hide@HeroMatchHistoryWnd@@UAEXXZ PROC		; HeroMatchHistoryWnd::iwm_hide, COMDAT
; _this$ = ecx

; 1767 : 
; 1768 : }

  00000	c3		 ret	 0
?iwm_hide@HeroMatchHistoryWnd@@UAEXXZ ENDP		; HeroMatchHistoryWnd::iwm_hide
_TEXT	ENDS
EXTRN	__imp_?HasWndStyle@ioWnd@@QBE_NK@Z:PROC
EXTRN	?IsMouseBusy@ioApplication@@QAE_NXZ:PROC	; ioApplication::IsMouseBusy
EXTRN	?GetSingleton@ioApplication@@SAAAV1@XZ:PROC	; ioApplication::GetSingleton
EXTRN	__imp_?iwm_wheel@ioWnd@@UAEXH@Z:PROC
; Function compile flags: /Ogsp
;	COMDAT ?iwm_wheel@HeroMatchHistoryWnd@@UAEXH@Z
_TEXT	SEGMENT
_zDelta$ = 8						; size = 4
?iwm_wheel@HeroMatchHistoryWnd@@UAEXH@Z PROC		; HeroMatchHistoryWnd::iwm_wheel, COMDAT
; _this$ = ecx

; 1771 : {

  00000	55		 push	 ebp
  00001	8b ec		 mov	 ebp, esp
  00003	57		 push	 edi
  00004	8b f9		 mov	 edi, ecx

; 1772 : 	if( !IsShow() )

  00006	ff 15 00 00 00
	00		 call	 DWORD PTR __imp_?IsShow@ioWnd@@QBE_NXZ
  0000c	84 c0		 test	 al, al
  0000e	75 0d		 jne	 SHORT $LN8@iwm_wheel

; 1773 : 		ioWnd::iwm_wheel( zDelta );

  00010	ff 75 08	 push	 DWORD PTR _zDelta$[ebp]
  00013	8b cf		 mov	 ecx, edi
  00015	ff 15 00 00 00
	00		 call	 DWORD PTR __imp_?iwm_wheel@ioWnd@@UAEXH@Z

; 1774 : 	else

  0001b	eb 5a		 jmp	 SHORT $LN1@iwm_wheel
$LN8@iwm_wheel:

; 1775 : 	{
; 1776 : 		if( g_App.IsMouseBusy() ) return;

  0001d	e8 00 00 00 00	 call	 ?GetSingleton@ioApplication@@SAAAV1@XZ ; ioApplication::GetSingleton
  00022	8b c8		 mov	 ecx, eax
  00024	e8 00 00 00 00	 call	 ?IsMouseBusy@ioApplication@@QAE_NXZ ; ioApplication::IsMouseBusy
  00029	84 c0		 test	 al, al
  0002b	75 4a		 jne	 SHORT $LN1@iwm_wheel

; 1777 : 
; 1778 : 		ioScroll *pScroll = (ioScroll*)FindChildWnd( ID_VERT_SCROLL );

  0002d	56		 push	 esi
  0002e	68 e8 03 00 00	 push	 1000			; 000003e8H
  00033	8b cf		 mov	 ecx, edi
  00035	ff 15 00 00 00
	00		 call	 DWORD PTR __imp_?FindChildWnd@ioWnd@@QAEPAV1@K@Z
  0003b	8b f0		 mov	 esi, eax

; 1779 : 		if( pScroll == NULL ) return;

  0003d	85 f6		 test	 esi, esi
  0003f	74 35		 je	 SHORT $LN11@iwm_wheel

; 1780 : 		if( pScroll->HasWndStyle( IWS_INACTIVE ) ) return;

  00041	6a 02		 push	 2
  00043	8b ce		 mov	 ecx, esi
  00045	ff 15 00 00 00
	00		 call	 DWORD PTR __imp_?HasWndStyle@ioWnd@@QBE_NK@Z
  0004b	84 c0		 test	 al, al
  0004d	75 27		 jne	 SHORT $LN11@iwm_wheel

; 1781 : 
; 1782 : 		if( zDelta == WHEEL_DELTA )

  0004f	83 7d 08 78	 cmp	 DWORD PTR _zDelta$[ebp], 120 ; 00000078H
  00053	75 09		 jne	 SHORT $LN3@iwm_wheel

; 1783 : 			pScroll->SetScrollPos( m_iCurPos - 1 );

  00055	8b 8f 60 01 00
	00		 mov	 ecx, DWORD PTR [edi+352]
  0005b	49		 dec	 ecx
  0005c	eb 0d		 jmp	 SHORT $LN12@iwm_wheel
$LN3@iwm_wheel:

; 1784 : 		else if( zDelta == -WHEEL_DELTA )

  0005e	83 7d 08 88	 cmp	 DWORD PTR _zDelta$[ebp], -120 ; ffffff88H
  00062	75 12		 jne	 SHORT $LN11@iwm_wheel

; 1785 : 			pScroll->SetScrollPos( m_iCurPos + 1 );

  00064	8b 8f 60 01 00
	00		 mov	 ecx, DWORD PTR [edi+352]
  0006a	41		 inc	 ecx
$LN12@iwm_wheel:
  0006b	8b 06		 mov	 eax, DWORD PTR [esi]
  0006d	51		 push	 ecx
  0006e	8b ce		 mov	 ecx, esi
  00070	ff 90 38 01 00
	00		 call	 DWORD PTR [eax+312]
$LN11@iwm_wheel:
  00076	5e		 pop	 esi
$LN1@iwm_wheel:
  00077	5f		 pop	 edi

; 1786 : 	}
; 1787 : }

  00078	5d		 pop	 ebp
  00079	c2 04 00	 ret	 4
?iwm_wheel@HeroMatchHistoryWnd@@UAEXH@Z ENDP		; HeroMatchHistoryWnd::iwm_wheel
_TEXT	ENDS
EXTRN	?OpenMannerWnd@ioApplication@@QAEXPBD_NW4ChatType@@@Z:PROC ; ioApplication::OpenMannerWnd
; Function compile flags: /Ogsp
;	COMDAT ?iwm_command@HeroMatchHistoryWnd@@UAEXPAVioWnd@@HK@Z
_TEXT	SEGMENT
_pWnd$ = 8						; size = 4
_cmd$ = 12						; size = 4
_param$ = 16						; size = 4
?iwm_command@HeroMatchHistoryWnd@@UAEXPAVioWnd@@HK@Z PROC ; HeroMatchHistoryWnd::iwm_command, COMDAT
; _this$ = ecx

; 1795 : {

  00000	55		 push	 ebp
  00001	8b ec		 mov	 ebp, esp

; 1796 : 	DWORD dwID = pWnd->GetID();

  00003	8b 4d 08	 mov	 ecx, DWORD PTR _pWnd$[ebp]
  00006	ff 15 00 00 00
	00		 call	 DWORD PTR __imp_?GetID@ioWnd@@QBEKXZ

; 1797 : 	switch( dwID )

  0000c	83 c0 9c	 add	 eax, -100		; ffffff9cH
  0000f	83 f8 03	 cmp	 eax, 3
  00012	77 4c		 ja	 SHORT $LN1@iwm_comman@2

; 1798 : 	{
; 1799 : 	case ID_LIST_1:
; 1800 : 	case ID_LIST_2:
; 1801 : 	case ID_LIST_3:
; 1802 : 	case ID_LIST_4:
; 1803 : 		if( cmd == IOBN_BTNUP )

  00014	83 7d 0c 11	 cmp	 DWORD PTR _cmd$[ebp], 17 ; 00000011H
  00018	75 46		 jne	 SHORT $LN1@iwm_comman@2

; 1804 : 		{
; 1805 : 			HeroMatchHistoryBtn *pHistoryBtn = dynamic_cast<HeroMatchHistoryBtn*>(pWnd);

  0001a	56		 push	 esi
  0001b	6a 00		 push	 0
  0001d	68 00 00 00 00	 push	 OFFSET ??_R0?AVHeroMatchHistoryBtn@@@8
  00022	68 00 00 00 00	 push	 OFFSET ??_R0?AVioWnd@@@8
  00027	6a 00		 push	 0
  00029	ff 75 08	 push	 DWORD PTR _pWnd$[ebp]
  0002c	e8 00 00 00 00	 call	 ___RTDynamicCast

; 1806 : 			if( !pHistoryBtn->GetNickName().IsEmpty() )

  00031	8d b0 28 02 00
	00		 lea	 esi, DWORD PTR [eax+552]
  00037	83 c4 14	 add	 esp, 20			; 00000014H
  0003a	8b ce		 mov	 ecx, esi
  0003c	ff 15 00 00 00
	00		 call	 DWORD PTR __imp_?IsEmpty@ioHashString@@QBE_NXZ
  00042	84 c0		 test	 al, al
  00044	75 19		 jne	 SHORT $LN12@iwm_comman@2

; 1807 : 				g_App.OpenMannerWnd( pHistoryBtn->GetNickName().c_str(), false );

  00046	6a ff		 push	 -1
  00048	6a 00		 push	 0
  0004a	8b ce		 mov	 ecx, esi
  0004c	ff 15 00 00 00
	00		 call	 DWORD PTR __imp_?c_str@ioHashString@@QBEPBDXZ
  00052	50		 push	 eax
  00053	e8 00 00 00 00	 call	 ?GetSingleton@ioApplication@@SAAAV1@XZ ; ioApplication::GetSingleton
  00058	8b c8		 mov	 ecx, eax
  0005a	e8 00 00 00 00	 call	 ?OpenMannerWnd@ioApplication@@QAEXPBD_NW4ChatType@@@Z ; ioApplication::OpenMannerWnd
$LN12@iwm_comman@2:
  0005f	5e		 pop	 esi
$LN1@iwm_comman@2:

; 1808 : 		}
; 1809 : 		break;
; 1810 : 	}
; 1811 : }

  00060	5d		 pop	 ebp
  00061	c2 0c 00	 ret	 12			; 0000000cH
?iwm_command@HeroMatchHistoryWnd@@UAEXPAVioWnd@@HK@Z ENDP ; HeroMatchHistoryWnd::iwm_command
_TEXT	ENDS
PUBLIC	?UpdateSetPage@HeroMatchHistoryWnd@@IAEXH@Z	; HeroMatchHistoryWnd::UpdateSetPage
; Function compile flags: /Ogsp
;	COMDAT ?UpdateSetPage@HeroMatchHistoryWnd@@IAEXH@Z
_TEXT	SEGMENT
_iCurPos$ = 8						; size = 4
?UpdateSetPage@HeroMatchHistoryWnd@@IAEXH@Z PROC	; HeroMatchHistoryWnd::UpdateSetPage, COMDAT
; _this$ = ecx

; 1814 : {

  00000	55		 push	 ebp
  00001	8b ec		 mov	 ebp, esp

; 1815 : 	m_iCurPos = iCurPos;

  00003	8b 45 08	 mov	 eax, DWORD PTR _iCurPos$[ebp]
  00006	56		 push	 esi
  00007	57		 push	 edi
  00008	8b f9		 mov	 edi, ecx
  0000a	89 87 60 01 00
	00		 mov	 DWORD PTR [edi+352], eax

; 1816 : 
; 1817 : 	for(int i = 0;i < MAX_PAGE_LIST;i++)

  00010	33 f6		 xor	 esi, esi
$LL4@UpdateSetP@2:

; 1818 : 	{
; 1819 : 		HeroMatchHistoryBtn *pHistoryBtn = dynamic_cast<HeroMatchHistoryBtn*>(FindChildWnd( ID_LIST_1 + i ));

  00012	6a 00		 push	 0
  00014	68 00 00 00 00	 push	 OFFSET ??_R0?AVHeroMatchHistoryBtn@@@8
  00019	68 00 00 00 00	 push	 OFFSET ??_R0?AVioWnd@@@8
  0001e	6a 00		 push	 0
  00020	8d 46 64	 lea	 eax, DWORD PTR [esi+100]
  00023	50		 push	 eax
  00024	8b cf		 mov	 ecx, edi
  00026	ff 15 00 00 00
	00		 call	 DWORD PTR __imp_?FindChildWnd@ioWnd@@QAEPAV1@K@Z
  0002c	50		 push	 eax
  0002d	e8 00 00 00 00	 call	 ___RTDynamicCast
  00032	83 c4 14	 add	 esp, 20			; 00000014H

; 1820 : 		if( pHistoryBtn )

  00035	85 c0		 test	 eax, eax
  00037	74 11		 je	 SHORT $LN3@UpdateSetP@2

; 1821 : 		{
; 1822 : 			pHistoryBtn->SetMatchHistory( (m_iCurPos*MAX_PAGE_LIST) + i );

  00039	8b 8f 60 01 00
	00		 mov	 ecx, DWORD PTR [edi+352]
  0003f	8d 0c 8e	 lea	 ecx, DWORD PTR [esi+ecx*4]
  00042	51		 push	 ecx
  00043	8b c8		 mov	 ecx, eax
  00045	e8 00 00 00 00	 call	 ?SetMatchHistory@HeroMatchHistoryBtn@@QAEXH@Z ; HeroMatchHistoryBtn::SetMatchHistory
$LN3@UpdateSetP@2:

; 1816 : 
; 1817 : 	for(int i = 0;i < MAX_PAGE_LIST;i++)

  0004a	46		 inc	 esi
  0004b	83 fe 04	 cmp	 esi, 4
  0004e	7c c2		 jl	 SHORT $LL4@UpdateSetP@2
  00050	5f		 pop	 edi
  00051	5e		 pop	 esi

; 1823 : 		}
; 1824 : 	}
; 1825 : }

  00052	5d		 pop	 ebp
  00053	c2 04 00	 ret	 4
?UpdateSetPage@HeroMatchHistoryWnd@@IAEXH@Z ENDP	; HeroMatchHistoryWnd::UpdateSetPage
_TEXT	ENDS
PUBLIC	??_7HeroMatchTop100Btn@@6B@			; HeroMatchTop100Btn::`vftable'
PUBLIC	??0HeroMatchTop100Btn@@QAE@XZ			; HeroMatchTop100Btn::HeroMatchTop100Btn
PUBLIC	??_R4HeroMatchTop100Btn@@6B@			; HeroMatchTop100Btn::`RTTI Complete Object Locator'
PUBLIC	??_R0?AVHeroMatchTop100Btn@@@8			; HeroMatchTop100Btn `RTTI Type Descriptor'
PUBLIC	??_R3HeroMatchTop100Btn@@8			; HeroMatchTop100Btn::`RTTI Class Hierarchy Descriptor'
PUBLIC	??_R2HeroMatchTop100Btn@@8			; HeroMatchTop100Btn::`RTTI Base Class Array'
PUBLIC	??_R1A@?0A@EA@HeroMatchTop100Btn@@8		; HeroMatchTop100Btn::`RTTI Base Class Descriptor at (0,-1,0,64)'
PUBLIC	?AddRenderFrame@HeroMatchTop100Btn@@MAEXABVioHashString@@PAVioUIRenderFrame@@@Z ; HeroMatchTop100Btn::AddRenderFrame
PUBLIC	?AddRenderImage@HeroMatchTop100Btn@@MAEXABVioHashString@@PAVioUIRenderImage@@@Z ; HeroMatchTop100Btn::AddRenderImage
PUBLIC	?OnRender@HeroMatchTop100Btn@@MAEXXZ		; HeroMatchTop100Btn::OnRender
PUBLIC	?iwm_show@HeroMatchTop100Btn@@UAEXXZ		; HeroMatchTop100Btn::iwm_show
PUBLIC	?iwm_hide@HeroMatchTop100Btn@@UAEXXZ		; HeroMatchTop100Btn::iwm_hide
EXTRN	??_EHeroMatchTop100Btn@@UAEPAXI@Z:PROC		; HeroMatchTop100Btn::`vector deleting destructor'
;	COMDAT ??_R1A@?0A@EA@HeroMatchTop100Btn@@8
rdata$r	SEGMENT
??_R1A@?0A@EA@HeroMatchTop100Btn@@8 DD FLAT:??_R0?AVHeroMatchTop100Btn@@@8 ; HeroMatchTop100Btn::`RTTI Base Class Descriptor at (0,-1,0,64)'
	DD	02H
	DD	00H
	DD	0ffffffffH
	DD	00H
	DD	040H
	DD	FLAT:??_R3HeroMatchTop100Btn@@8
rdata$r	ENDS
;	COMDAT ??_R2HeroMatchTop100Btn@@8
rdata$r	SEGMENT
??_R2HeroMatchTop100Btn@@8 DD FLAT:??_R1A@?0A@EA@HeroMatchTop100Btn@@8 ; HeroMatchTop100Btn::`RTTI Base Class Array'
	DD	FLAT:??_R1A@?0A@EA@ioButton@@8
	DD	FLAT:??_R1A@?0A@EA@ioWnd@@8
rdata$r	ENDS
;	COMDAT ??_R3HeroMatchTop100Btn@@8
rdata$r	SEGMENT
??_R3HeroMatchTop100Btn@@8 DD 00H			; HeroMatchTop100Btn::`RTTI Class Hierarchy Descriptor'
	DD	00H
	DD	03H
	DD	FLAT:??_R2HeroMatchTop100Btn@@8
rdata$r	ENDS
;	COMDAT ??_R0?AVHeroMatchTop100Btn@@@8
_DATA	SEGMENT
??_R0?AVHeroMatchTop100Btn@@@8 DD FLAT:??_7type_info@@6B@ ; HeroMatchTop100Btn `RTTI Type Descriptor'
	DD	00H
	DB	'.?AVHeroMatchTop100Btn@@', 00H
_DATA	ENDS
;	COMDAT ??_R4HeroMatchTop100Btn@@6B@
rdata$r	SEGMENT
??_R4HeroMatchTop100Btn@@6B@ DD 00H			; HeroMatchTop100Btn::`RTTI Complete Object Locator'
	DD	00H
	DD	00H
	DD	FLAT:??_R0?AVHeroMatchTop100Btn@@@8
	DD	FLAT:??_R3HeroMatchTop100Btn@@8
rdata$r	ENDS
;	COMDAT ??_7HeroMatchTop100Btn@@6B@
CONST	SEGMENT
??_7HeroMatchTop100Btn@@6B@ DD FLAT:??_R4HeroMatchTop100Btn@@6B@ ; HeroMatchTop100Btn::`vftable'
	DD	FLAT:?AddRenderFrame@HeroMatchTop100Btn@@MAEXABVioHashString@@PAVioUIRenderFrame@@@Z
	DD	FLAT:?AddRenderImage@HeroMatchTop100Btn@@MAEXABVioHashString@@PAVioUIRenderImage@@@Z
	DD	FLAT:?AddTooltipHelp@ioWnd@@UAEXABVioHashString@@00@Z
	DD	FLAT:?ParseExtraInfo@ioButton@@UAEXAAVioXMLElement@@@Z
	DD	FLAT:?AddNamedRenderImage@ioWnd@@UAEXABVioHashString@@PAVioUIRenderImage@@@Z
	DD	FLAT:?RemoveNamedRenderImage@ioWnd@@UAEXABVioHashString@@@Z
	DD	FLAT:?GetNamedRenderImage@ioWnd@@UBEPAVioUIRenderImage@@ABVioHashString@@@Z
	DD	FLAT:?SetWindowAlpha@ioButton@@UAEXH@Z
	DD	FLAT:?SetActive@ioWnd@@UAEXXZ
	DD	FLAT:?SetInActive@ioWnd@@UAEXXZ
	DD	FLAT:?ClearElementImageList@ioWnd@@UAEXXZ
	DD	FLAT:?SetSize@ioWnd@@UAEXHH@Z
	DD	FLAT:?SetPositionToDefault@ioWnd@@UAEXHH_N0@Z
	DD	FLAT:?IsNeedProcess@ioWnd@@UBE_NXZ
	DD	FLAT:?IsCanMouseReaction@ioWnd@@UBE_NXZ
	DD	FLAT:?AddChild@ioWnd@@UAEXPAV1@@Z
	DD	FLAT:?DeleteChild@ioWnd@@UAEXK@Z
	DD	FLAT:?DeleteAllChild@ioWnd@@UAEXXZ
	DD	FLAT:?OnRenderShowAndHide@ioWnd@@MAE_NXZ
	DD	FLAT:?OnRenderShowAndHideByDefault@ioWnd@@MAE_NK@Z
	DD	FLAT:?OnRenderShowAndHideByTop@ioWnd@@MAE_NK@Z
	DD	FLAT:?OnRenderShowAndHideByDown@ioWnd@@MAE_NK@Z
	DD	FLAT:?OnRender@HeroMatchTop100Btn@@MAEXXZ
	DD	FLAT:?OnRenderAfterChild@ioWnd@@MAEXXZ
	DD	FLAT:?OnProcess@ioWnd@@MAEXM@Z
	DD	FLAT:?OnMouseProcess@ioWnd@@MAEXABVioMouse@@@Z
	DD	FLAT:?CheckFrameReSize@ioButton@@MAEXHHHH@Z
	DD	FLAT:?RenderImageList@ioWnd@@MAEXHHW4UIRenderType@@@Z
	DD	FLAT:?iwm_create@ioWnd@@UAEXXZ
	DD	FLAT:?iwm_destroy@ioWnd@@UAEXXZ
	DD	FLAT:?iwm_lbuttondown@ioButton@@UAEXABVioMouse@@@Z
	DD	FLAT:?iwm_lbuttonup@ioButton@@UAEXABVioMouse@@@Z
	DD	FLAT:?iwm_lbuttonDBLCLK@ioButton@@UAEXABVioMouse@@@Z
	DD	FLAT:?iwm_rbuttondown@ioButton@@UAEXABVioMouse@@@Z
	DD	FLAT:?iwm_rbuttonup@ioButton@@UAEXABVioMouse@@@Z
	DD	FLAT:?iwm_command@ioWnd@@UAEXPAV1@HK@Z
	DD	FLAT:?iwm_mouseover@ioButton@@UAEXABVioMouse@@@Z
	DD	FLAT:?iwm_mousemove@ioWnd@@UAEXABVioMouse@@@Z
	DD	FLAT:?iwm_mouseleave@ioWnd@@UAEXABVioMouse@@@Z
	DD	FLAT:?iwm_vscroll@ioWnd@@UAEXKH@Z
	DD	FLAT:?iwm_wheel@ioWnd@@UAEXH@Z
	DD	FLAT:?iwm_show@HeroMatchTop100Btn@@UAEXXZ
	DD	FLAT:?iwm_hide@HeroMatchTop100Btn@@UAEXXZ
	DD	FLAT:?iwm_esc@ioWnd@@UAE_NXZ
	DD	FLAT:?iwm_spacebar@ioWnd@@UAE_NXZ
	DD	FLAT:?iwm_gototop@ioWnd@@UAEXXZ
	DD	FLAT:?iwm_dragenter@ioWnd@@UAE?AW4IWDropEffect@@PAVioDragItem@@ABVioMouse@@@Z
	DD	FLAT:?iwm_dragover@ioWnd@@UAE?AW4IWDropEffect@@PAVioDragItem@@ABVioMouse@@@Z
	DD	FLAT:?iwm_dragleave@ioWnd@@UAEXXZ
	DD	FLAT:?iwm_dropitem@ioWnd@@UAE_NPAVioDragItem@@ABVioMouse@@PAV1@@Z
	DD	FLAT:?iwm_dropdone@ioWnd@@UAEXPAVioDragItem@@PAV1@_N@Z
	DD	FLAT:?IsEXType@ioWnd@@UBE_NXZ
	DD	FLAT:?GetWndType@ioButton@@UBEKXZ
	DD	FLAT:?RenderWnd@ioWnd@@UAEXXZ
	DD	FLAT:?SetIDEX@ioWnd@@UAEXAAK_N@Z
	DD	FLAT:?ParseXML@ioWnd@@UAEXAAVioXMLElement@@@Z
	DD	FLAT:?GetHeaderFileName@ioButton@@UAEPBDXZ
	DD	FLAT:?GetTemplateName@ioButton@@UAEPBDXZ
	DD	FLAT:?GetDefClassName@ioButton@@UBEPBDXZ
	DD	FLAT:?_Clone@ioButton@@UAEPAVioWnd@@XZ
	DD	FLAT:?Copy@ioButton@@UAEXPAVioWnd@@@Z
	DD	FLAT:?Save@ioWnd@@UAE_NAAVioXMLElement@@@Z
	DD	FLAT:?SetSaveData@ioButton@@UAEXAAVioXMLElement@@@Z
	DD	FLAT:?SetPosX@ioWnd@@UAEXH@Z
	DD	FLAT:?SetPosY@ioWnd@@UAEXH@Z
	DD	FLAT:?SetWidth@ioWnd@@UAEXH@Z
	DD	FLAT:?SetHeight@ioWnd@@UAEXH@Z
	DD	FLAT:?GetNumFixedRenderFrame@ioButton@@UBEHXZ
	DD	FLAT:?GetFixedRenderFrameType@ioButton@@UAEPBDH@Z
	DD	FLAT:?GetRenderFrame@ioButton@@UAEPAPAVioUIRenderElement@@PBD@Z
	DD	FLAT:?GetNumFixedRenderImage@ioButton@@UBEHXZ
	DD	FLAT:?GetFixedRenderImageType@ioButton@@UAEPBDH@Z
	DD	FLAT:?GetRenderImage@ioButton@@UAEPAPAVioUIRenderElement@@PBD@Z
	DD	FLAT:?AddEffect@ioWnd@@UAEXABVioHashString@@PAVioUI3DEffectRender@@@Z
	DD	FLAT:?GetEffect@ioWnd@@UAEPAVioUI3DEffectRender@@VioHashString@@@Z
	DD	FLAT:??_EHeroMatchTop100Btn@@UAEPAXI@Z
	DD	FLAT:?OnDrawNormal@ioButton@@MAEXHH@Z
	DD	FLAT:?OnDrawOvered@ioButton@@MAEXHH@Z
	DD	FLAT:?OnDrawOveredAdd@ioButton@@MAEXHH@Z
	DD	FLAT:?OnDrawPushed@ioButton@@MAEXHH@Z
	DD	FLAT:?OnDrawDisabled@ioButton@@MAEXHH@Z
	DD	FLAT:?OnDrawExDisabledNormal@ioButton@@MAEXHH@Z
	DD	FLAT:?OnDrawExDisabledOvered@ioButton@@MAEXHH@Z
	DD	FLAT:?OnDrawExDisabledPushed@ioButton@@MAEXHH@Z
	DD	FLAT:?OnDrawBack@ioButton@@MAEXHH@Z
	DD	FLAT:?OnDrawNormalList@ioButton@@MAEXHH@Z
	DD	FLAT:?OnDrawDisableList@ioButton@@MAEXHH@Z
; Function compile flags: /Ogsp
CONST	ENDS
;	COMDAT ??0HeroMatchTop100Btn@@QAE@XZ
_TEXT	SEGMENT
??0HeroMatchTop100Btn@@QAE@XZ PROC			; HeroMatchTop100Btn::HeroMatchTop100Btn, COMDAT
; _this$ = ecx

; 1828 : {

  00000	56		 push	 esi
  00001	8b f1		 mov	 esi, ecx
  00003	ff 15 00 00 00
	00		 call	 DWORD PTR __imp_??0ioButton@@QAE@XZ

; 1829 : 	m_pCustomDisableFrm = NULL;

  00009	33 c0		 xor	 eax, eax
  0000b	89 86 fc 01 00
	00		 mov	 DWORD PTR [esi+508], eax

; 1830 : 	m_pBlueCampBar = NULL;

  00011	89 86 00 02 00
	00		 mov	 DWORD PTR [esi+512], eax

; 1831 : 	m_pRedCampBar  = NULL;

  00017	89 86 04 02 00
	00		 mov	 DWORD PTR [esi+516], eax

; 1832 : 	m_iHeroRank    = 0;

  0001d	89 86 08 02 00
	00		 mov	 DWORD PTR [esi+520], eax
  00023	c7 06 00 00 00
	00		 mov	 DWORD PTR [esi], OFFSET ??_7HeroMatchTop100Btn@@6B@

; 1833 : }

  00029	8b c6		 mov	 eax, esi
  0002b	5e		 pop	 esi
  0002c	c3		 ret	 0
??0HeroMatchTop100Btn@@QAE@XZ ENDP			; HeroMatchTop100Btn::HeroMatchTop100Btn
_TEXT	ENDS
PUBLIC	??1HeroMatchTop100Btn@@UAE@XZ			; HeroMatchTop100Btn::~HeroMatchTop100Btn
;	COMDAT xdata$x
xdata$x	SEGMENT
__unwindtable$??1HeroMatchTop100Btn@@UAE@XZ DD 0ffffffffH
	DD	FLAT:__unwindfunclet$??1HeroMatchTop100Btn@@UAE@XZ$0
__ehfuncinfo$??1HeroMatchTop100Btn@@UAE@XZ DD 019930522H
	DD	01H
	DD	FLAT:__unwindtable$??1HeroMatchTop100Btn@@UAE@XZ
	DD	2 DUP(00H)
	DD	2 DUP(00H)
	DD	00H
	DD	01H
; Function compile flags: /Ogsp
xdata$x	ENDS
;	COMDAT ??1HeroMatchTop100Btn@@UAE@XZ
_TEXT	SEGMENT
_this$ = -16						; size = 4
__$EHRec$ = -12						; size = 12
??1HeroMatchTop100Btn@@UAE@XZ PROC			; HeroMatchTop100Btn::~HeroMatchTop100Btn, COMDAT
; _this$ = ecx

; 1836 : {

  00000	6a 04		 push	 4
  00002	b8 00 00 00 00	 mov	 eax, __ehhandler$??1HeroMatchTop100Btn@@UAE@XZ
  00007	e8 00 00 00 00	 call	 __EH_prolog3
  0000c	8b f1		 mov	 esi, ecx
  0000e	89 75 f0	 mov	 DWORD PTR _this$[ebp], esi
  00011	c7 06 00 00 00
	00		 mov	 DWORD PTR [esi], OFFSET ??_7HeroMatchTop100Btn@@6B@

; 1837 : 	SAFEDELETE( m_pCustomDisableFrm );

  00017	8b 8e fc 01 00
	00		 mov	 ecx, DWORD PTR [esi+508]
  0001d	83 65 fc 00	 and	 DWORD PTR __$EHRec$[ebp+8], 0
  00021	85 c9		 test	 ecx, ecx
  00023	74 0e		 je	 SHORT $LN3@HeroMatchT
  00025	8b 01		 mov	 eax, DWORD PTR [ecx]
  00027	6a 01		 push	 1
  00029	ff 50 40	 call	 DWORD PTR [eax+64]
  0002c	83 a6 fc 01 00
	00 00		 and	 DWORD PTR [esi+508], 0
$LN3@HeroMatchT:

; 1838 : 	SAFEDELETE( m_pBlueCampBar );

  00033	8b 8e 00 02 00
	00		 mov	 ecx, DWORD PTR [esi+512]
  00039	85 c9		 test	 ecx, ecx
  0003b	74 0e		 je	 SHORT $LN2@HeroMatchT
  0003d	8b 01		 mov	 eax, DWORD PTR [ecx]
  0003f	6a 01		 push	 1
  00041	ff 50 40	 call	 DWORD PTR [eax+64]
  00044	83 a6 00 02 00
	00 00		 and	 DWORD PTR [esi+512], 0
$LN2@HeroMatchT:

; 1839 : 	SAFEDELETE( m_pRedCampBar );

  0004b	8b 8e 04 02 00
	00		 mov	 ecx, DWORD PTR [esi+516]
  00051	85 c9		 test	 ecx, ecx
  00053	74 0e		 je	 SHORT $LN1@HeroMatchT
  00055	8b 01		 mov	 eax, DWORD PTR [ecx]
  00057	6a 01		 push	 1
  00059	ff 50 40	 call	 DWORD PTR [eax+64]
  0005c	83 a6 04 02 00
	00 00		 and	 DWORD PTR [esi+516], 0
$LN1@HeroMatchT:

; 1840 : }

  00063	83 4d fc ff	 or	 DWORD PTR __$EHRec$[ebp+8], -1
  00067	8b ce		 mov	 ecx, esi
  00069	ff 15 00 00 00
	00		 call	 DWORD PTR __imp_??1ioButton@@UAE@XZ
  0006f	e8 00 00 00 00	 call	 __EH_epilog3
  00074	c3		 ret	 0
_TEXT	ENDS
;	COMDAT text$x
text$x	SEGMENT
__unwindfunclet$??1HeroMatchTop100Btn@@UAE@XZ$0:
  00000	8b 4d f0	 mov	 ecx, DWORD PTR _this$[ebp]
  00003	ff 25 00 00 00
	00		 jmp	 DWORD PTR __imp_??1ioButton@@UAE@XZ
__ehhandler$??1HeroMatchTop100Btn@@UAE@XZ:
  00009	8b 54 24 08	 mov	 edx, DWORD PTR [esp+8]
  0000d	8d 42 0c	 lea	 eax, DWORD PTR [edx+12]
  00010	8b 4a ec	 mov	 ecx, DWORD PTR [edx-20]
  00013	33 c8		 xor	 ecx, eax
  00015	e8 00 00 00 00	 call	 @__security_check_cookie@4
  0001a	b8 00 00 00 00	 mov	 eax, OFFSET __ehfuncinfo$??1HeroMatchTop100Btn@@UAE@XZ
