; Listing generated by Microsoft (R) Optimizing Compiler Version 16.00.30319.01 

	TITLE	D:\Lost Saga For Developer\Youtube\Tutorial\Source\src\LSClient\GUI\HeroReinforceDownWnd.cpp
	.686P
	.XMM
	include listing.inc
	.model	flat

INCLUDELIB MSVCRT
INCLUDELIB OLDNAMES

PUBLIC	?_EEM_DS@?$deque@UD3DXVECTOR3@@V?$allocator@UD3DXVECTOR3@@@std@@@std@@2HB ; std::deque<D3DXVECTOR3,std::allocator<D3DXVECTOR3> >::_EEM_DS
;	COMDAT ?_EEM_DS@?$deque@UD3DXVECTOR3@@V?$allocator@UD3DXVECTOR3@@@std@@@std@@2HB
CONST	SEGMENT
?_EEM_DS@?$deque@UD3DXVECTOR3@@V?$allocator@UD3DXVECTOR3@@@std@@@std@@2HB DD 01H ; std::deque<D3DXVECTOR3,std::allocator<D3DXVECTOR3> >::_EEM_DS
CONST	ENDS
PUBLIC	?GetMtrlEtcItemCode@ioPowerUpManager@@QAEHXZ	; ioPowerUpManager::GetMtrlEtcItemCode
; Function compile flags: /Ogsp
; File d:\lost saga for developer\youtube\tutorial\source\src\lsclient\iopowerupmanager.h
;	COMDAT ?GetMtrlEtcItemCode@ioPowerUpManager@@QAEHXZ
_TEXT	SEGMENT
?GetMtrlEtcItemCode@ioPowerUpManager@@QAEHXZ PROC	; ioPowerUpManager::GetMtrlEtcItemCode, COMDAT
; _this$ = ecx

; 198  : 	inline int GetMtrlEtcItemCode(){ return m_iMtrlEtcCode; }

  00000	8b 41 34	 mov	 eax, DWORD PTR [ecx+52]
  00003	c3		 ret	 0
?GetMtrlEtcItemCode@ioPowerUpManager@@QAEHXZ ENDP	; ioPowerUpManager::GetMtrlEtcItemCode
_TEXT	ENDS
PUBLIC	?GetPlayMode@ioPlayStage@@QBEPAVioPlayMode@@XZ	; ioPlayStage::GetPlayMode
; Function compile flags: /Ogsp
; File d:\lost saga for developer\youtube\tutorial\source\src\lsclient\ioplaystage.h
;	COMDAT ?GetPlayMode@ioPlayStage@@QBEPAVioPlayMode@@XZ
_TEXT	SEGMENT
?GetPlayMode@ioPlayStage@@QBEPAVioPlayMode@@XZ PROC	; ioPlayStage::GetPlayMode, COMDAT
; _this$ = ecx

; 780  : 	inline ioPlayMode* GetPlayMode() const { return m_pPlayMode; }

  00000	8b 81 10 01 00
	00		 mov	 eax, DWORD PTR [ecx+272]
  00006	c3		 ret	 0
?GetPlayMode@ioPlayStage@@QBEPAVioPlayMode@@XZ ENDP	; ioPlayStage::GetPlayMode
_TEXT	ENDS
PUBLIC	?iwm_show@HeroReinforceDownWnd@@UAEXXZ		; HeroReinforceDownWnd::iwm_show
EXTRN	__imp_?ShowChildWnd@ioWnd@@QAEXK_N@Z:PROC
; Function compile flags: /Ogsp
; File d:\lost saga for developer\youtube\tutorial\source\src\lsclient\gui\heroreinforcedownwnd.cpp
;	COMDAT ?iwm_show@HeroReinforceDownWnd@@UAEXXZ
_TEXT	SEGMENT
?iwm_show@HeroReinforceDownWnd@@UAEXXZ PROC		; HeroReinforceDownWnd::iwm_show, COMDAT
; _this$ = ecx

; 23   : 	ShowChildWnd( HeroReinforceDownWnd::ID_SOLDIER_WND );

  00000	6a 00		 push	 0
  00002	6a 66		 push	 102			; 00000066H
  00004	ff 15 00 00 00
	00		 call	 DWORD PTR __imp_?ShowChildWnd@ioWnd@@QAEXK_N@Z

; 24   : }

  0000a	c3		 ret	 0
?iwm_show@HeroReinforceDownWnd@@UAEXXZ ENDP		; HeroReinforceDownWnd::iwm_show
_TEXT	ENDS
PUBLIC	?iwm_hide@HeroReinforceDownWnd@@UAEXXZ		; HeroReinforceDownWnd::iwm_hide
EXTRN	__imp_?HideChildWnd@ioWnd@@QAEXK_N@Z:PROC
; Function compile flags: /Ogsp
;	COMDAT ?iwm_hide@HeroReinforceDownWnd@@UAEXXZ
_TEXT	SEGMENT
?iwm_hide@HeroReinforceDownWnd@@UAEXXZ PROC		; HeroReinforceDownWnd::iwm_hide, COMDAT
; _this$ = ecx

; 28   : 	HideChildWnd( HeroReinforceDownWnd::ID_SOLDIER_WND );

  00000	6a 00		 push	 0
  00002	6a 66		 push	 102			; 00000066H
  00004	ff 15 00 00 00
	00		 call	 DWORD PTR __imp_?HideChildWnd@ioWnd@@QAEXK_N@Z

; 29   : }

  0000a	c3		 ret	 0
?iwm_hide@HeroReinforceDownWnd@@UAEXXZ ENDP		; HeroReinforceDownWnd::iwm_hide
_TEXT	ENDS
PUBLIC	?ClearList@HeroReinforceDownWnd@@IAEXXZ		; HeroReinforceDownWnd::ClearList
EXTRN	?ClearList@ioComplexStringPrinter@@QAEXXZ:PROC	; ioComplexStringPrinter::ClearList
; Function compile flags: /Ogsp
;	COMDAT ?ClearList@HeroReinforceDownWnd@@IAEXXZ
_TEXT	SEGMENT
?ClearList@HeroReinforceDownWnd@@IAEXXZ PROC		; HeroReinforceDownWnd::ClearList, COMDAT
; _this$ = ecx

; 32   : {

  00000	53		 push	 ebx
  00001	56		 push	 esi
  00002	57		 push	 edi
  00003	8b f1		 mov	 esi, ecx

; 33   : 	for( int i=0; i < HeroReinforceDownWnd::SOLDIER_INFO_CNT; ++i )

  00005	6a 02		 push	 2
  00007	8d be 88 04 00
	00		 lea	 edi, DWORD PTR [esi+1160]
  0000d	5b		 pop	 ebx
$LL6@ClearList:

; 34   : 		m_SoldierInfo[i].ClearList();

  0000e	8b cf		 mov	 ecx, edi
  00010	e8 00 00 00 00	 call	 ?ClearList@ioComplexStringPrinter@@QAEXXZ ; ioComplexStringPrinter::ClearList
  00015	83 c7 20	 add	 edi, 32			; 00000020H
  00018	4b		 dec	 ebx
  00019	75 f3		 jne	 SHORT $LL6@ClearList

; 35   : 
; 36   : 	for( int i=0; i < SOLDIER_REINFORCE_INFO_CNT; ++i )

  0001b	6a 04		 push	 4
  0001d	8d be c8 04 00
	00		 lea	 edi, DWORD PTR [esi+1224]
  00023	5b		 pop	 ebx
$LL3@ClearList:

; 37   : 		m_SoldierReinforceInfo[i].ClearList();

  00024	8b cf		 mov	 ecx, edi
  00026	e8 00 00 00 00	 call	 ?ClearList@ioComplexStringPrinter@@QAEXXZ ; ioComplexStringPrinter::ClearList
  0002b	83 c7 20	 add	 edi, 32			; 00000020H
  0002e	4b		 dec	 ebx
  0002f	75 f3		 jne	 SHORT $LL3@ClearList

; 38   : 
; 39   : 	m_SoulStonePrinter.ClearList();

  00031	8d 8e 48 05 00
	00		 lea	 ecx, DWORD PTR [esi+1352]
  00037	e8 00 00 00 00	 call	 ?ClearList@ioComplexStringPrinter@@QAEXXZ ; ioComplexStringPrinter::ClearList
  0003c	5f		 pop	 edi

; 40   : 
; 41   : 	m_SoldierSelectPrinter.ClearList();

  0003d	8d 8e 68 05 00
	00		 lea	 ecx, DWORD PTR [esi+1384]
  00043	5e		 pop	 esi
  00044	5b		 pop	 ebx
  00045	e9 00 00 00 00	 jmp	 ?ClearList@ioComplexStringPrinter@@QAEXXZ ; ioComplexStringPrinter::ClearList
?ClearList@HeroReinforceDownWnd@@IAEXXZ ENDP		; HeroReinforceDownWnd::ClearList
_TEXT	ENDS
PUBLIC	?ClearList@HeroReinforceDoneWnd@@IAEXXZ		; HeroReinforceDoneWnd::ClearList
; Function compile flags: /Ogsp
;	COMDAT ?ClearList@HeroReinforceDoneWnd@@IAEXXZ
_TEXT	SEGMENT
?ClearList@HeroReinforceDoneWnd@@IAEXXZ PROC		; HeroReinforceDoneWnd::ClearList, COMDAT
; _this$ = ecx

; 339  : {

  00000	53		 push	 ebx
  00001	56		 push	 esi
  00002	57		 push	 edi
  00003	8b f1		 mov	 esi, ecx

; 340  : 	for( int i=0; i < HeroReinforceDoneWnd::SOLDIER_INFO_CNT; ++i )

  00005	6a 02		 push	 2
  00007	8d be 88 04 00
	00		 lea	 edi, DWORD PTR [esi+1160]
  0000d	5b		 pop	 ebx
$LL6@ClearList@2:

; 341  : 		m_SoldierInfo[i].ClearList();

  0000e	8b cf		 mov	 ecx, edi
  00010	e8 00 00 00 00	 call	 ?ClearList@ioComplexStringPrinter@@QAEXXZ ; ioComplexStringPrinter::ClearList
  00015	83 c7 20	 add	 edi, 32			; 00000020H
  00018	4b		 dec	 ebx
  00019	75 f3		 jne	 SHORT $LL6@ClearList@2

; 342  : 
; 343  : 	for( int i=0; i < HeroReinforceDoneWnd::REINFORCED_SOLDIER_INFO_CNT; ++i )

  0001b	6a 04		 push	 4
  0001d	8d be c8 04 00
	00		 lea	 edi, DWORD PTR [esi+1224]
  00023	5b		 pop	 ebx
$LL3@ClearList@2:

; 344  : 		m_ReinforcedSoldierInfo[i].ClearList();

  00024	8b cf		 mov	 ecx, edi
  00026	e8 00 00 00 00	 call	 ?ClearList@ioComplexStringPrinter@@QAEXXZ ; ioComplexStringPrinter::ClearList
  0002b	83 c7 20	 add	 edi, 32			; 00000020H
  0002e	4b		 dec	 ebx
  0002f	75 f3		 jne	 SHORT $LL3@ClearList@2

; 345  : 
; 346  : 	m_SoulStonePrinter.ClearList();

  00031	8d 8e 48 05 00
	00		 lea	 ecx, DWORD PTR [esi+1352]
  00037	e8 00 00 00 00	 call	 ?ClearList@ioComplexStringPrinter@@QAEXXZ ; ioComplexStringPrinter::ClearList
  0003c	5f		 pop	 edi

; 347  : 	m_ReinforcedPrinter.ClearList();

  0003d	8d 8e 68 05 00
	00		 lea	 ecx, DWORD PTR [esi+1384]
  00043	5e		 pop	 esi
  00044	5b		 pop	 ebx
  00045	e9 00 00 00 00	 jmp	 ?ClearList@ioComplexStringPrinter@@QAEXXZ ; ioComplexStringPrinter::ClearList
?ClearList@HeroReinforceDoneWnd@@IAEXXZ ENDP		; HeroReinforceDoneWnd::ClearList
_TEXT	ENDS
PUBLIC	?iwm_show@HeroReinforceDoneWnd@@UAEXXZ		; HeroReinforceDoneWnd::iwm_show
; Function compile flags: /Ogsp
;	COMDAT ?iwm_show@HeroReinforceDoneWnd@@UAEXXZ
_TEXT	SEGMENT
?iwm_show@HeroReinforceDoneWnd@@UAEXXZ PROC		; HeroReinforceDoneWnd::iwm_show, COMDAT
; _this$ = ecx

; 352  : 	ShowChildWnd( HeroReinforceDoneWnd::ID_SOLDIER_WND );

  00000	6a 00		 push	 0
  00002	6a 66		 push	 102			; 00000066H
  00004	ff 15 00 00 00
	00		 call	 DWORD PTR __imp_?ShowChildWnd@ioWnd@@QAEXK_N@Z

; 353  : }

  0000a	c3		 ret	 0
?iwm_show@HeroReinforceDoneWnd@@UAEXXZ ENDP		; HeroReinforceDoneWnd::iwm_show
_TEXT	ENDS
PUBLIC	?iwm_hide@HeroReinforceDoneWnd@@UAEXXZ		; HeroReinforceDoneWnd::iwm_hide
EXTRN	__imp_?StopSound@ioSoundManager@@QAEXABVioHashString@@K@Z:PROC
EXTRN	__imp_?GetSingleton@ioSoundManager@@SAAAV1@XZ:PROC
EXTRN	__imp_?IsEmpty@ioHashString@@QBE_NXZ:PROC
; Function compile flags: /Ogsp
;	COMDAT ?iwm_hide@HeroReinforceDoneWnd@@UAEXXZ
_TEXT	SEGMENT
?iwm_hide@HeroReinforceDoneWnd@@UAEXXZ PROC		; HeroReinforceDoneWnd::iwm_hide, COMDAT
; _this$ = ecx

; 356  : {

  00000	56		 push	 esi

; 357  : 	HideChildWnd( HeroReinforceDoneWnd::ID_SOLDIER_WND );

  00001	6a 00		 push	 0
  00003	6a 66		 push	 102			; 00000066H
  00005	8b f1		 mov	 esi, ecx
  00007	ff 15 00 00 00
	00		 call	 DWORD PTR __imp_?HideChildWnd@ioWnd@@QAEXK_N@Z

; 358  : 	if( !m_szSuccessSound.IsEmpty() )

  0000d	81 c6 98 05 00
	00		 add	 esi, 1432		; 00000598H
  00013	8b ce		 mov	 ecx, esi
  00015	ff 15 00 00 00
	00		 call	 DWORD PTR __imp_?IsEmpty@ioHashString@@QBE_NXZ
  0001b	84 c0		 test	 al, al
  0001d	75 11		 jne	 SHORT $LN1@iwm_hide

; 359  : 		g_SoundMgr.StopSound( m_szSuccessSound, 0 );

  0001f	6a 00		 push	 0
  00021	56		 push	 esi
  00022	ff 15 00 00 00
	00		 call	 DWORD PTR __imp_?GetSingleton@ioSoundManager@@SAAAV1@XZ
  00028	8b c8		 mov	 ecx, eax
  0002a	ff 15 00 00 00
	00		 call	 DWORD PTR __imp_?StopSound@ioSoundManager@@QAEXABVioHashString@@K@Z
$LN1@iwm_hide:
  00030	5e		 pop	 esi

; 360  : }

  00031	c3		 ret	 0
?iwm_hide@HeroReinforceDoneWnd@@UAEXXZ ENDP		; HeroReinforceDoneWnd::iwm_hide
_TEXT	ENDS
PUBLIC	?GetSingleton@?$Singleton@VioEtcItemManager@@@@SAAAVioEtcItemManager@@XZ ; Singleton<ioEtcItemManager>::GetSingleton
EXTRN	?ms_Singleton@?$Singleton@VioEtcItemManager@@@@1PAVioEtcItemManager@@A:DWORD ; Singleton<ioEtcItemManager>::ms_Singleton
; Function compile flags: /Ogsp
; File d:\lost saga for developer\youtube\tutorial\source\src\io3dengine\iosingleton.h
;	COMDAT ?GetSingleton@?$Singleton@VioEtcItemManager@@@@SAAAVioEtcItemManager@@XZ
_TEXT	SEGMENT
?GetSingleton@?$Singleton@VioEtcItemManager@@@@SAAAVioEtcItemManager@@XZ PROC ; Singleton<ioEtcItemManager>::GetSingleton, COMDAT

; 42   : 		assert( ms_Singleton );
; 43   : 		return (*ms_Singleton);

  00000	a1 00 00 00 00	 mov	 eax, DWORD PTR ?ms_Singleton@?$Singleton@VioEtcItemManager@@@@1PAVioEtcItemManager@@A ; Singleton<ioEtcItemManager>::ms_Singleton

; 44   : 	}

  00005	c3		 ret	 0
?GetSingleton@?$Singleton@VioEtcItemManager@@@@SAAAVioEtcItemManager@@XZ ENDP ; Singleton<ioEtcItemManager>::GetSingleton
; Function compile flags: /Ogsp
; File c:\program files (x86)\microsoft sdks\windows\v7.0a\include\strsafe.h
_TEXT	ENDS
;	COMDAT ?StringValidateDestA@@YGJPBDII@Z
_TEXT	SEGMENT
_cchMax$ = 8						; size = 4
?StringValidateDestA@@YGJPBDII@Z PROC			; StringValidateDestA, COMDAT
; _cchDest$ = ecx

; 8721 : {

  00000	55		 push	 ebp
  00001	8b ec		 mov	 ebp, esp

; 8722 :     HRESULT hr = S_OK;

  00003	33 c0		 xor	 eax, eax

; 8723 : 
; 8724 :     if ((cchDest == 0) || (cchDest > cchMax))

  00005	85 c9		 test	 ecx, ecx
  00007	74 05		 je	 SHORT $LN1@StringVali
  00009	3b 4d 08	 cmp	 ecx, DWORD PTR _cchMax$[ebp]
  0000c	76 05		 jbe	 SHORT $LN2@StringVali
$LN1@StringVali:

; 8725 :     {
; 8726 :         hr = STRSAFE_E_INVALID_PARAMETER;

  0000e	b8 57 00 07 80	 mov	 eax, -2147024809	; 80070057H
$LN2@StringVali:

; 8727 :     }
; 8728 : 
; 8729 :     return hr;
; 8730 : }

  00013	5d		 pop	 ebp
  00014	c2 04 00	 ret	 4
?StringValidateDestA@@YGJPBDII@Z ENDP			; StringValidateDestA
_TEXT	ENDS
EXTRN	__imp___vsnprintf:PROC
; Function compile flags: /Ogsp
;	COMDAT ?StringVPrintfWorkerA@@YGJPADIPAIPBD0@Z
_TEXT	SEGMENT
_pcchNewDestLength$ = 8					; size = 4
_pszFormat$ = 12					; size = 4
_argList$ = 16						; size = 4
?StringVPrintfWorkerA@@YGJPADIPAIPBD0@Z PROC		; StringVPrintfWorkerA, COMDAT
; _pszDest$ = edi
; _cchDest$ = eax

; 9029 : {

  00000	55		 push	 ebp
  00001	8b ec		 mov	 ebp, esp
  00003	53		 push	 ebx
  00004	56		 push	 esi

; 9030 :     HRESULT hr = S_OK;
; 9031 :     int iRet;
; 9032 :     size_t cchMax;
; 9033 :     size_t cchNewDestLength = 0;
; 9034 : 
; 9035 :     // leave the last space for the null terminator
; 9036 :     cchMax = cchDest - 1;
; 9037 : 
; 9038 : #if (STRSAFE_USE_SECURE_CRT == 1) && !defined(STRSAFE_LIB_IMPL)
; 9039 :     iRet = _vsnprintf_s(pszDest, cchDest, cchMax, pszFormat, argList);
; 9040 : #else
; 9041 :     #pragma warning(push)
; 9042 :     #pragma warning(disable: __WARNING_BANNED_API_USAGE)// "STRSAFE not included"
; 9043 :     iRet = _vsnprintf(pszDest, cchMax, pszFormat, argList);

  00005	ff 75 10	 push	 DWORD PTR _argList$[ebp]
  00008	8d 70 ff	 lea	 esi, DWORD PTR [eax-1]
  0000b	ff 75 0c	 push	 DWORD PTR _pszFormat$[ebp]
  0000e	33 db		 xor	 ebx, ebx
  00010	56		 push	 esi
  00011	57		 push	 edi
  00012	ff 15 00 00 00
	00		 call	 DWORD PTR __imp___vsnprintf
  00018	83 c4 10	 add	 esp, 16			; 00000010H

; 9044 :     #pragma warning(pop)
; 9045 : #endif
; 9046 :     // ASSERT((iRet < 0) || (((size_t)iRet) <= cchMax));
; 9047 : 
; 9048 :     if ((iRet < 0) || (((size_t)iRet) > cchMax))

  0001b	85 c0		 test	 eax, eax
  0001d	78 0b		 js	 SHORT $LN5@StringVPri
  0001f	3b c6		 cmp	 eax, esi
  00021	77 07		 ja	 SHORT $LN5@StringVPri

; 9058 :     }
; 9059 :     else if (((size_t)iRet) == cchMax)

  00023	75 0f		 jne	 SHORT $LN2@StringVPri

; 9060 :     {
; 9061 :         // need to null terminate the string
; 9062 :         pszDest += cchMax;
; 9063 :         *pszDest = '\0';

  00025	88 1c 3e	 mov	 BYTE PTR [esi+edi], bl

; 9064 : 
; 9065 :         cchNewDestLength = cchMax;
; 9066 :     }
; 9067 :     else

  00028	eb 08		 jmp	 SHORT $LN9@StringVPri
$LN5@StringVPri:

; 9049 :     {
; 9050 :         // need to null terminate the string
; 9051 :         pszDest += cchMax;
; 9052 :         *pszDest = '\0';

  0002a	88 1c 3e	 mov	 BYTE PTR [esi+edi], bl

; 9055 : 
; 9056 :         // we have truncated pszDest
; 9057 :         hr = STRSAFE_E_INSUFFICIENT_BUFFER;

  0002d	bb 7a 00 07 80	 mov	 ebx, -2147024774	; 8007007aH
$LN9@StringVPri:

; 9053 : 
; 9054 :         cchNewDestLength = cchMax;

  00032	8b c6		 mov	 eax, esi
$LN2@StringVPri:

; 9068 :     {
; 9069 :         cchNewDestLength = (size_t)iRet;
; 9070 :     }
; 9071 : 
; 9072 :     if (pcchNewDestLength)

  00034	8b 4d 08	 mov	 ecx, DWORD PTR _pcchNewDestLength$[ebp]
  00037	85 c9		 test	 ecx, ecx
  00039	74 02		 je	 SHORT $LN1@StringVPri

; 9073 :     {
; 9074 :         *pcchNewDestLength = cchNewDestLength;

  0003b	89 01		 mov	 DWORD PTR [ecx], eax
$LN1@StringVPri:
  0003d	5e		 pop	 esi

; 9075 :     }
; 9076 : 
; 9077 :     return hr;

  0003e	8b c3		 mov	 eax, ebx
  00040	5b		 pop	 ebx

; 9078 : }

  00041	5d		 pop	 ebp
  00042	c2 0c 00	 ret	 12			; 0000000cH
?StringVPrintfWorkerA@@YGJPADIPAIPBD0@Z ENDP		; StringVPrintfWorkerA
_TEXT	ENDS
PUBLIC	??_H@YGXPAXIHP6EPAX0@Z@Z			; `vector constructor iterator'
; Function compile flags: /Ogsp
;	COMDAT ??_H@YGXPAXIHP6EPAX0@Z@Z
_TEXT	SEGMENT
___t$ = 8						; size = 4
___s$ = 12						; size = 4
___n$ = 16						; size = 4
___f$ = 20						; size = 4
??_H@YGXPAXIHP6EPAX0@Z@Z PROC				; `vector constructor iterator', COMDAT
  00000	55		 push	 ebp
  00001	8b ec		 mov	 ebp, esp
  00003	ff 4d 10	 dec	 DWORD PTR ___n$[ebp]
  00006	78 12		 js	 SHORT $LN1@vector
  00008	56		 push	 esi
  00009	8b 75 08	 mov	 esi, DWORD PTR ___t$[ebp]
$LL2@vector:
  0000c	8b ce		 mov	 ecx, esi
  0000e	ff 55 14	 call	 DWORD PTR ___f$[ebp]
  00011	03 75 0c	 add	 esi, DWORD PTR ___s$[ebp]
  00014	ff 4d 10	 dec	 DWORD PTR ___n$[ebp]
  00017	79 f3		 jns	 SHORT $LL2@vector
  00019	5e		 pop	 esi
$LN1@vector:
  0001a	5d		 pop	 ebp
  0001b	c2 10 00	 ret	 16			; 00000010H
??_H@YGXPAXIHP6EPAX0@Z@Z ENDP				; `vector constructor iterator'
_TEXT	ENDS
PUBLIC	?_DECSTR@@YAXPADH@Z				; _DECSTR
; Function compile flags: /Ogsp
; File d:\lost saga for developer\youtube\tutorial\source\src\lsclient\stringprotect.h
;	COMDAT ?_DECSTR@@YAXPADH@Z
_TEXT	SEGMENT
_s$ = 8							; size = 4
_l$ = 12						; size = 4
?_DECSTR@@YAXPADH@Z PROC				; _DECSTR, COMDAT

; 40   : __forceinline void _DECSTR(char* s, int l){int i=0,l4=(l-1)/4,*p=(int*)s;s[l-1]=0;for(;i<l4;++i)*(p++)^=0xEAEBECED;for(i=l4*4;i<l-1;++i)s[i]^=0xED-i%4;}

  00000	55		 push	 ebp
  00001	8b ec		 mov	 ebp, esp
  00003	8b 4d 0c	 mov	 ecx, DWORD PTR _l$[ebp]
  00006	56		 push	 esi
  00007	8b 75 08	 mov	 esi, DWORD PTR _s$[ebp]
  0000a	57		 push	 edi
  0000b	8d 79 ff	 lea	 edi, DWORD PTR [ecx-1]
  0000e	8b c7		 mov	 eax, edi
  00010	99		 cdq
  00011	83 e2 03	 and	 edx, 3
  00014	03 c2		 add	 eax, edx
  00016	c1 f8 02	 sar	 eax, 2
  00019	8b d6		 mov	 edx, esi
  0001b	c6 44 0e ff 00	 mov	 BYTE PTR [esi+ecx-1], 0
  00020	85 c0		 test	 eax, eax
  00022	7e 0e		 jle	 SHORT $LN4@DECSTR
  00024	8b c8		 mov	 ecx, eax
$LL6@DECSTR:
  00026	81 32 ed ec eb
	ea		 xor	 DWORD PTR [edx], -353637139 ; eaebecedH
  0002c	83 c2 04	 add	 edx, 4
  0002f	49		 dec	 ecx
  00030	75 f4		 jne	 SHORT $LL6@DECSTR
$LN4@DECSTR:
  00032	c1 e0 02	 shl	 eax, 2
  00035	eb 17		 jmp	 SHORT $LN14@DECSTR
$LL3@DECSTR:
  00037	8b c8		 mov	 ecx, eax
  00039	81 e1 03 00 00
	80		 and	 ecx, -2147483645	; 80000003H
  0003f	79 05		 jns	 SHORT $LN13@DECSTR
  00041	49		 dec	 ecx
  00042	83 c9 fc	 or	 ecx, -4			; fffffffcH
  00045	41		 inc	 ecx
$LN13@DECSTR:
  00046	b2 ed		 mov	 dl, -19			; ffffffedH
  00048	2a d1		 sub	 dl, cl
  0004a	30 14 30	 xor	 BYTE PTR [eax+esi], dl
  0004d	40		 inc	 eax
$LN14@DECSTR:
  0004e	3b c7		 cmp	 eax, edi
  00050	7c e5		 jl	 SHORT $LL3@DECSTR
  00052	5f		 pop	 edi
  00053	5e		 pop	 esi
  00054	5d		 pop	 ebp
  00055	c3		 ret	 0
?_DECSTR@@YAXPADH@Z ENDP				; _DECSTR
_TEXT	ENDS
PUBLIC	?Init@tagCostumeEquipInfo@@QAEXXZ		; tagCostumeEquipInfo::Init
; Function compile flags: /Ogsp
; File d:\lost saga for developer\youtube\tutorial\source\src\lsclient\costumeenumtype.h
;	COMDAT ?Init@tagCostumeEquipInfo@@QAEXXZ
_TEXT	SEGMENT
?Init@tagCostumeEquipInfo@@QAEXXZ PROC			; tagCostumeEquipInfo::Init, COMDAT
; _this$ = ecx

; 31   : 		m_CostumeIdx = 0;

  00000	33 c0		 xor	 eax, eax
  00002	89 01		 mov	 DWORD PTR [ecx], eax

; 32   : 		m_CostumeCode = 0;

  00004	89 41 04	 mov	 DWORD PTR [ecx+4], eax

; 33   : 		m_Costume_Male_Custom = 0;  

  00007	89 41 08	 mov	 DWORD PTR [ecx+8], eax

; 34   : 		m_Costume_Female_Custom = 0;

  0000a	89 41 0c	 mov	 DWORD PTR [ecx+12], eax

; 35   : 	}

  0000d	c3		 ret	 0
?Init@tagCostumeEquipInfo@@QAEXXZ ENDP			; tagCostumeEquipInfo::Init
_TEXT	ENDS
PUBLIC	??0tagCostumeEquipInfo@@QAE@XZ			; tagCostumeEquipInfo::tagCostumeEquipInfo
; Function compile flags: /Ogsp
;	COMDAT ??0tagCostumeEquipInfo@@QAE@XZ
_TEXT	SEGMENT
??0tagCostumeEquipInfo@@QAE@XZ PROC			; tagCostumeEquipInfo::tagCostumeEquipInfo, COMDAT
; _this$ = ecx

; 37   : 	tagCostumeEquipInfo()

  00000	8b c1		 mov	 eax, ecx

; 38   : 	{
; 39   : 		Init();

  00002	33 c9		 xor	 ecx, ecx
  00004	89 08		 mov	 DWORD PTR [eax], ecx
  00006	89 48 04	 mov	 DWORD PTR [eax+4], ecx
  00009	89 48 08	 mov	 DWORD PTR [eax+8], ecx
  0000c	89 48 0c	 mov	 DWORD PTR [eax+12], ecx

; 40   : 	}

  0000f	c3		 ret	 0
??0tagCostumeEquipInfo@@QAE@XZ ENDP			; tagCostumeEquipInfo::tagCostumeEquipInfo
_TEXT	ENDS
PUBLIC	?Init@tagAccessoryEquipInfo@@QAEXXZ		; tagAccessoryEquipInfo::Init
; Function compile flags: /Ogsp
; File d:\lost saga for developer\youtube\tutorial\source\src\lsclient\accessoryenumtype.h
;	COMDAT ?Init@tagAccessoryEquipInfo@@QAEXXZ
_TEXT	SEGMENT
?Init@tagAccessoryEquipInfo@@QAEXXZ PROC		; tagAccessoryEquipInfo::Init, COMDAT
; _this$ = ecx

; 23   : 		m_iAccessoryIdx = 0;

  00000	33 c0		 xor	 eax, eax
  00002	89 01		 mov	 DWORD PTR [ecx], eax

; 24   : 		m_iAccessoryCode = 0;

  00004	89 41 04	 mov	 DWORD PTR [ecx+4], eax

; 25   : 		m_iRandomNumber = 0;

  00007	89 41 08	 mov	 DWORD PTR [ecx+8], eax

; 26   : 	}

  0000a	c3		 ret	 0
?Init@tagAccessoryEquipInfo@@QAEXXZ ENDP		; tagAccessoryEquipInfo::Init
_TEXT	ENDS
PUBLIC	??0tagAccessoryEquipInfo@@QAE@XZ		; tagAccessoryEquipInfo::tagAccessoryEquipInfo
; Function compile flags: /Ogsp
;	COMDAT ??0tagAccessoryEquipInfo@@QAE@XZ
_TEXT	SEGMENT
??0tagAccessoryEquipInfo@@QAE@XZ PROC			; tagAccessoryEquipInfo::tagAccessoryEquipInfo, COMDAT
; _this$ = ecx

; 28   : 	tagAccessoryEquipInfo()

  00000	8b c1		 mov	 eax, ecx

; 29   : 	{
; 30   : 		Init();

  00002	33 c9		 xor	 ecx, ecx
  00004	89 08		 mov	 DWORD PTR [eax], ecx
  00006	89 48 04	 mov	 DWORD PTR [eax+4], ecx
  00009	89 48 08	 mov	 DWORD PTR [eax+8], ecx

; 31   : 	}

  0000c	c3		 ret	 0
??0tagAccessoryEquipInfo@@QAE@XZ ENDP			; tagAccessoryEquipInfo::tagAccessoryEquipInfo
_TEXT	ENDS
PUBLIC	??0ETCITEMSLOT@ioUserEtcItem@@QAE@XZ		; ioUserEtcItem::ETCITEMSLOT::ETCITEMSLOT
; Function compile flags: /Ogsp
; File d:\lost saga for developer\youtube\tutorial\source\src\lsclient\iouseretcitem.h
;	COMDAT ??0ETCITEMSLOT@ioUserEtcItem@@QAE@XZ
_TEXT	SEGMENT
??0ETCITEMSLOT@ioUserEtcItem@@QAE@XZ PROC		; ioUserEtcItem::ETCITEMSLOT::ETCITEMSLOT, COMDAT
; _this$ = ecx

; 22   : 		ETCITEMSLOT()

  00000	8b c1		 mov	 eax, ecx

; 23   : 		{
; 24   : 			m_iType   = 0;

  00002	33 c9		 xor	 ecx, ecx
  00004	89 08		 mov	 DWORD PTR [eax], ecx

; 25   : 			m_iValue1 = 0;

  00006	89 48 04	 mov	 DWORD PTR [eax+4], ecx

; 26   : 			m_iValue2 = 0;

  00009	89 48 08	 mov	 DWORD PTR [eax+8], ecx

; 27   : 		}

  0000c	c3		 ret	 0
??0ETCITEMSLOT@ioUserEtcItem@@QAE@XZ ENDP		; ioUserEtcItem::ETCITEMSLOT::ETCITEMSLOT
_TEXT	ENDS
PUBLIC	?SetUserInfoToolTip@NewShopHelpWnd@@QAEX_N@Z	; NewShopHelpWnd::SetUserInfoToolTip
; Function compile flags: /Ogsp
; File d:\lost saga for developer\youtube\tutorial\source\src\lsclient\gui\newshopbuywnd.h
;	COMDAT ?SetUserInfoToolTip@NewShopHelpWnd@@QAEX_N@Z
_TEXT	SEGMENT
_bUserInfoToolTip$ = 8					; size = 1
?SetUserInfoToolTip@NewShopHelpWnd@@QAEX_N@Z PROC	; NewShopHelpWnd::SetUserInfoToolTip, COMDAT
; _this$ = ecx

; 215  : 	void SetUserInfoToolTip(bool bUserInfoToolTip) { m_bUserInfoToolTip = bUserInfoToolTip; }

  00000	55		 push	 ebp
  00001	8b ec		 mov	 ebp, esp
  00003	8a 45 08	 mov	 al, BYTE PTR _bUserInfoToolTip$[ebp]
  00006	88 81 a9 04 00
	00		 mov	 BYTE PTR [ecx+1193], al
  0000c	5d		 pop	 ebp
  0000d	c2 04 00	 ret	 4
?SetUserInfoToolTip@NewShopHelpWnd@@QAEX_N@Z ENDP	; NewShopHelpWnd::SetUserInfoToolTip
_TEXT	ENDS
PUBLIC	?GetPlayStage@MyInventoryWnd@@QAEPAVioPlayStage@@XZ ; MyInventoryWnd::GetPlayStage
; Function compile flags: /Ogsp
; File d:\lost saga for developer\youtube\tutorial\source\src\lsclient\gui\myinventorywnd.h
;	COMDAT ?GetPlayStage@MyInventoryWnd@@QAEPAVioPlayStage@@XZ
_TEXT	SEGMENT
?GetPlayStage@MyInventoryWnd@@QAEPAVioPlayStage@@XZ PROC ; MyInventoryWnd::GetPlayStage, COMDAT
; _this$ = ecx

; 1503 : 	ioPlayStage *GetPlayStage() { return m_pPlayStage; }

  00000	8b 81 90 01 00
	00		 mov	 eax, DWORD PTR [ecx+400]
  00006	c3		 ret	 0
?GetPlayStage@MyInventoryWnd@@QAEPAVioPlayStage@@XZ ENDP ; MyInventoryWnd::GetPlayStage
_TEXT	ENDS
PUBLIC	?GetSelectCharArray@ioMyInfo@@QBEHXZ		; ioMyInfo::GetSelectCharArray
; Function compile flags: /Ogsp
; File d:\lost saga for developer\youtube\tutorial\source\src\lsclient\iomyinfo.h
;	COMDAT ?GetSelectCharArray@ioMyInfo@@QBEHXZ
_TEXT	SEGMENT
?GetSelectCharArray@ioMyInfo@@QBEHXZ PROC		; ioMyInfo::GetSelectCharArray, COMDAT
; _this$ = ecx

; 613  : 	int  GetSelectCharArray() const { return m_select_char_array; }

  00000	8b 81 c8 00 00
	00		 mov	 eax, DWORD PTR [ecx+200]
  00006	c3		 ret	 0
?GetSelectCharArray@ioMyInfo@@QBEHXZ ENDP		; ioMyInfo::GetSelectCharArray
_TEXT	ENDS
PUBLIC	?GetUserEtcItem@ioMyInfo@@QAEPAVioUserEtcItem@@XZ ; ioMyInfo::GetUserEtcItem
; Function compile flags: /Ogsp
;	COMDAT ?GetUserEtcItem@ioMyInfo@@QAEPAVioUserEtcItem@@XZ
_TEXT	SEGMENT
?GetUserEtcItem@ioMyInfo@@QAEPAVioUserEtcItem@@XZ PROC	; ioMyInfo::GetUserEtcItem, COMDAT
; _this$ = ecx

; 635  : 	ioUserEtcItem* GetUserEtcItem() { return &m_UserEtcItem; }

  00000	8d 81 44 01 00
	00		 lea	 eax, DWORD PTR [ecx+324]
  00006	c3		 ret	 0
?GetUserEtcItem@ioMyInfo@@QAEPAVioUserEtcItem@@XZ ENDP	; ioMyInfo::GetUserEtcItem
_TEXT	ENDS
PUBLIC	?GetMyRoomType@ioMyRoomMode@@SA?AW4MyRoomType@@XZ ; ioMyRoomMode::GetMyRoomType
EXTRN	?m_eMyRoomType@ioMyRoomMode@@1W4MyRoomType@@A:DWORD ; ioMyRoomMode::m_eMyRoomType
; Function compile flags: /Ogsp
; File d:\lost saga for developer\youtube\tutorial\source\src\lsclient\iomyroommode.h
;	COMDAT ?GetMyRoomType@ioMyRoomMode@@SA?AW4MyRoomType@@XZ
_TEXT	SEGMENT
?GetMyRoomType@ioMyRoomMode@@SA?AW4MyRoomType@@XZ PROC	; ioMyRoomMode::GetMyRoomType, COMDAT

; 194  : 	static MyRoomType GetMyRoomType(){ return m_eMyRoomType; }

  00000	a1 00 00 00 00	 mov	 eax, DWORD PTR ?m_eMyRoomType@ioMyRoomMode@@1W4MyRoomType@@A ; ioMyRoomMode::m_eMyRoomType
  00005	c3		 ret	 0
?GetMyRoomType@ioMyRoomMode@@SA?AW4MyRoomType@@XZ ENDP	; ioMyRoomMode::GetMyRoomType
_TEXT	ENDS
PUBLIC	??_7?$CEncrypt@H@@6B@				; CEncrypt<int>::`vftable'
PUBLIC	??1?$CEncrypt@H@@UAE@XZ				; CEncrypt<int>::~CEncrypt<int>
PUBLIC	??_R4?$CEncrypt@H@@6B@				; CEncrypt<int>::`RTTI Complete Object Locator'
PUBLIC	??_R0?AV?$CEncrypt@H@@@8			; CEncrypt<int> `RTTI Type Descriptor'
PUBLIC	??_R3?$CEncrypt@H@@8				; CEncrypt<int>::`RTTI Class Hierarchy Descriptor'
PUBLIC	??_R2?$CEncrypt@H@@8				; CEncrypt<int>::`RTTI Base Class Array'
PUBLIC	??_R1A@?0A@EA@?$CEncrypt@H@@8			; CEncrypt<int>::`RTTI Base Class Descriptor at (0,-1,0,64)'
EXTRN	??1ccddaabb@@UAE@XZ:PROC			; ccddaabb::~ccddaabb
EXTRN	??_7type_info@@6B@:QWORD			; type_info::`vftable'
EXTRN	??_E?$CEncrypt@H@@UAEPAXI@Z:PROC		; CEncrypt<int>::`vector deleting destructor'
;	COMDAT ??_R1A@?0A@EA@?$CEncrypt@H@@8
; File d:\lost saga for developer\youtube\tutorial\source\src\lsclient\encryptvalue.h
rdata$r	SEGMENT
??_R1A@?0A@EA@?$CEncrypt@H@@8 DD FLAT:??_R0?AV?$CEncrypt@H@@@8 ; CEncrypt<int>::`RTTI Base Class Descriptor at (0,-1,0,64)'
	DD	00H
	DD	00H
	DD	0ffffffffH
	DD	00H
	DD	040H
	DD	FLAT:??_R3?$CEncrypt@H@@8
rdata$r	ENDS
;	COMDAT ??_R2?$CEncrypt@H@@8
rdata$r	SEGMENT
??_R2?$CEncrypt@H@@8 DD FLAT:??_R1A@?0A@EA@?$CEncrypt@H@@8 ; CEncrypt<int>::`RTTI Base Class Array'
rdata$r	ENDS
;	COMDAT ??_R3?$CEncrypt@H@@8
rdata$r	SEGMENT
??_R3?$CEncrypt@H@@8 DD 00H				; CEncrypt<int>::`RTTI Class Hierarchy Descriptor'
	DD	00H
	DD	01H
	DD	FLAT:??_R2?$CEncrypt@H@@8
rdata$r	ENDS
;	COMDAT ??_R0?AV?$CEncrypt@H@@@8
_DATA	SEGMENT
??_R0?AV?$CEncrypt@H@@@8 DD FLAT:??_7type_info@@6B@	; CEncrypt<int> `RTTI Type Descriptor'
	DD	00H
	DB	'.?AV?$CEncrypt@H@@', 00H
_DATA	ENDS
;	COMDAT ??_R4?$CEncrypt@H@@6B@
rdata$r	SEGMENT
??_R4?$CEncrypt@H@@6B@ DD 00H				; CEncrypt<int>::`RTTI Complete Object Locator'
	DD	00H
	DD	00H
	DD	FLAT:??_R0?AV?$CEncrypt@H@@@8
	DD	FLAT:??_R3?$CEncrypt@H@@8
rdata$r	ENDS
;	COMDAT ??_7?$CEncrypt@H@@6B@
CONST	SEGMENT
??_7?$CEncrypt@H@@6B@ DD FLAT:??_R4?$CEncrypt@H@@6B@	; CEncrypt<int>::`vftable'
	DD	FLAT:??_E?$CEncrypt@H@@UAEPAXI@Z
; Function compile flags: /Ogsp
CONST	ENDS
;	COMDAT ??1?$CEncrypt@H@@UAE@XZ
_TEXT	SEGMENT
??1?$CEncrypt@H@@UAE@XZ PROC				; CEncrypt<int>::~CEncrypt<int>, COMDAT
; _this$ = ecx

; 127  : 	{

  00000	c7 01 00 00 00
	00		 mov	 DWORD PTR [ecx], OFFSET ??_7?$CEncrypt@H@@6B@

; 128  : 	}

  00006	83 c1 0c	 add	 ecx, 12			; 0000000cH
  00009	e9 00 00 00 00	 jmp	 ??1ccddaabb@@UAE@XZ	; ccddaabb::~ccddaabb
??1?$CEncrypt@H@@UAE@XZ ENDP				; CEncrypt<int>::~CEncrypt<int>
_TEXT	ENDS
PUBLIC	?empty@?$vector@UtagTextPiece@ioComplexStringPrinter@@V?$allocator@UtagTextPiece@ioComplexStringPrinter@@@std@@@std@@QBE_NXZ ; std::vector<ioComplexStringPrinter::tagTextPiece,std::allocator<ioComplexStringPrinter::tagTextPiece> >::empty
; Function compile flags: /Ogsp
; File c:\program files (x86)\microsoft visual studio 10.0\vc\include\vector
;	COMDAT ?empty@?$vector@UtagTextPiece@ioComplexStringPrinter@@V?$allocator@UtagTextPiece@ioComplexStringPrinter@@@std@@@std@@QBE_NXZ
_TEXT	SEGMENT
?empty@?$vector@UtagTextPiece@ioComplexStringPrinter@@V?$allocator@UtagTextPiece@ioComplexStringPrinter@@@std@@@std@@QBE_NXZ PROC ; std::vector<ioComplexStringPrinter::tagTextPiece,std::allocator<ioComplexStringPrinter::tagTextPiece> >::empty, COMDAT
; _this$ = ecx

; 889  : 		return (this->_Myfirst == this->_Mylast);

  00000	8b 01		 mov	 eax, DWORD PTR [ecx]
  00002	2b 41 04	 sub	 eax, DWORD PTR [ecx+4]
  00005	f7 d8		 neg	 eax
  00007	1b c0		 sbb	 eax, eax
  00009	40		 inc	 eax

; 890  : 		}

  0000a	c3		 ret	 0
?empty@?$vector@UtagTextPiece@ioComplexStringPrinter@@V?$allocator@UtagTextPiece@ioComplexStringPrinter@@@std@@@std@@QBE_NXZ ENDP ; std::vector<ioComplexStringPrinter::tagTextPiece,std::allocator<ioComplexStringPrinter::tagTextPiece> >::empty
_TEXT	ENDS
EXTRN	??3@YAXPAX@Z:PROC				; operator delete
; Function compile flags: /Ogsp
;	COMDAT ??_G?$CEncrypt@H@@UAEPAXI@Z
_TEXT	SEGMENT
___flags$ = 8						; size = 4
??_G?$CEncrypt@H@@UAEPAXI@Z PROC			; CEncrypt<int>::`scalar deleting destructor', COMDAT
; _this$ = ecx
  00000	55		 push	 ebp
  00001	8b ec		 mov	 ebp, esp
  00003	56		 push	 esi
  00004	8b f1		 mov	 esi, ecx
  00006	8d 4e 0c	 lea	 ecx, DWORD PTR [esi+12]
  00009	c7 06 00 00 00
	00		 mov	 DWORD PTR [esi], OFFSET ??_7?$CEncrypt@H@@6B@
  0000f	e8 00 00 00 00	 call	 ??1ccddaabb@@UAE@XZ	; ccddaabb::~ccddaabb
  00014	f6 45 08 01	 test	 BYTE PTR ___flags$[ebp], 1
  00018	74 07		 je	 SHORT $LN1@scalar
  0001a	56		 push	 esi
  0001b	e8 00 00 00 00	 call	 ??3@YAXPAX@Z		; operator delete
  00020	59		 pop	 ecx
$LN1@scalar:
  00021	8b c6		 mov	 eax, esi
  00023	5e		 pop	 esi
  00024	5d		 pop	 ebp
  00025	c2 04 00	 ret	 4
??_G?$CEncrypt@H@@UAEPAXI@Z ENDP			; CEncrypt<int>::`scalar deleting destructor'
_TEXT	ENDS
PUBLIC	?EncryptValueToPool@?$CEncrypt@H@@AAEXPBD@Z	; CEncrypt<int>::EncryptValueToPool
EXTRN	?EncryptByte@ccddaabb@@QAEXPBDPADH@Z:PROC	; ccddaabb::EncryptByte
; Function compile flags: /Ogsp
; File d:\lost saga for developer\youtube\tutorial\source\src\lsclient\encryptvalue.h
;	COMDAT ?EncryptValueToPool@?$CEncrypt@H@@AAEXPBD@Z
_TEXT	SEGMENT
_value$ = 8						; size = 4
?EncryptValueToPool@?$CEncrypt@H@@AAEXPBD@Z PROC	; CEncrypt<int>::EncryptValueToPool, COMDAT
; _this$ = ecx

; 67   : 	{

  00000	55		 push	 ebp
  00001	8b ec		 mov	 ebp, esp

; 68   : 		m_RC5.EncryptByte( value, m_MemPool, max(m_ValueSize, DEFAULT_ENCRYPT) );

  00003	0f b7 41 06	 movzx	 eax, WORD PTR [ecx+6]
  00007	83 f8 04	 cmp	 eax, 4
  0000a	77 03		 ja	 SHORT $LN4@EncryptVal
  0000c	6a 04		 push	 4
  0000e	58		 pop	 eax
$LN4@EncryptVal:
  0000f	50		 push	 eax
  00010	8d 41 1c	 lea	 eax, DWORD PTR [ecx+28]
  00013	50		 push	 eax
  00014	ff 75 08	 push	 DWORD PTR _value$[ebp]
  00017	83 c1 0c	 add	 ecx, 12			; 0000000cH
  0001a	e8 00 00 00 00	 call	 ?EncryptByte@ccddaabb@@QAEXPBDPADH@Z ; ccddaabb::EncryptByte

; 69   : 		
; 70   : 	}

  0001f	5d		 pop	 ebp
  00020	c2 04 00	 ret	 4
?EncryptValueToPool@?$CEncrypt@H@@AAEXPBD@Z ENDP	; CEncrypt<int>::EncryptValueToPool
_TEXT	ENDS
PUBLIC	?Init@?$CEncrypt@H@@AAEXXZ			; CEncrypt<int>::Init
EXTRN	?Setup@ccddaabb@@QAEXPBDHH@Z:PROC		; ccddaabb::Setup
EXTRN	__imp__rand:PROC
EXTRN	__imp__timeGetTime@0:PROC
EXTRN	__imp__GetCurrentProcessId@0:PROC
; Function compile flags: /Ogsp
;	COMDAT ?Init@?$CEncrypt@H@@AAEXXZ
_TEXT	SEGMENT
_pid$ = -8						; size = 4
_tick$ = -4						; size = 4
?Init@?$CEncrypt@H@@AAEXXZ PROC				; CEncrypt<int>::Init, COMDAT
; _this$ = ecx

; 73   : 	{

  00000	55		 push	 ebp
  00001	8b ec		 mov	 ebp, esp
  00003	51		 push	 ecx
  00004	51		 push	 ecx
  00005	53		 push	 ebx
  00006	56		 push	 esi
  00007	57		 push	 edi
  00008	8b f1		 mov	 esi, ecx

; 74   : 		DWORD pid = GetCurrentProcessId();

  0000a	ff 15 00 00 00
	00		 call	 DWORD PTR __imp__GetCurrentProcessId@0
  00010	89 45 f8	 mov	 DWORD PTR _pid$[ebp], eax

; 75   : 		DWORD tick = timeGetTime();

  00013	ff 15 00 00 00
	00		 call	 DWORD PTR __imp__timeGetTime@0

; 76   : 		m_ValueSize    = sizeof(type);
; 77   : 		m_MemPoolPos   = (unsigned short)( rand()+pid+tick )%(MAX_MEM_POOL-m_ValueSize);

  00019	8b 3d 00 00 00
	00		 mov	 edi, DWORD PTR __imp__rand
  0001f	89 45 fc	 mov	 DWORD PTR _tick$[ebp], eax
  00022	6a 04		 push	 4
  00024	58		 pop	 eax
  00025	66 89 46 06	 mov	 WORD PTR [esi+6], ax
  00029	ff d7		 call	 edi
  0002b	03 45 f8	 add	 eax, DWORD PTR _pid$[ebp]
  0002e	0f b7 4e 06	 movzx	 ecx, WORD PTR [esi+6]
  00032	03 45 fc	 add	 eax, DWORD PTR _tick$[ebp]
  00035	6a 0c		 push	 12			; 0000000cH
  00037	0f b7 c0	 movzx	 eax, ax
  0003a	5b		 pop	 ebx
  0003b	99		 cdq
  0003c	2b d9		 sub	 ebx, ecx
  0003e	f7 fb		 idiv	 ebx
  00040	66 89 56 04	 mov	 WORD PTR [esi+4], dx

; 78   : 		m_EncryptSeed  = (char)( rand()+pid+tick )%256;

  00044	ff d7		 call	 edi
  00046	02 45 f8	 add	 al, BYTE PTR _pid$[ebp]
  00049	02 45 fc	 add	 al, BYTE PTR _tick$[ebp]
  0004c	0f be c0	 movsx	 eax, al
  0004f	25 ff 00 00 80	 and	 eax, -2147483393	; 800000ffH
  00054	79 07		 jns	 SHORT $LN8@Init
  00056	48		 dec	 eax
  00057	0d 00 ff ff ff	 or	 eax, -256		; ffffff00H
  0005c	40		 inc	 eax
$LN8@Init:
  0005d	88 46 08	 mov	 BYTE PTR [esi+8], al

; 79   : 
; 80   : 		for (int i = 0; i < MAX_MEM_POOL ; i++)

  00060	33 db		 xor	 ebx, ebx
$LL3@Init:

; 81   : 			m_MemPool[i] = (char)( rand()+pid+tick )%256; // 더미

  00062	ff d7		 call	 edi
  00064	02 45 f8	 add	 al, BYTE PTR _pid$[ebp]
  00067	02 45 fc	 add	 al, BYTE PTR _tick$[ebp]
  0006a	0f be c0	 movsx	 eax, al
  0006d	25 ff 00 00 80	 and	 eax, -2147483393	; 800000ffH
  00072	79 07		 jns	 SHORT $LN9@Init
  00074	48		 dec	 eax
  00075	0d 00 ff ff ff	 or	 eax, -256		; ffffff00H
  0007a	40		 inc	 eax
$LN9@Init:
  0007b	88 44 1e 1c	 mov	 BYTE PTR [esi+ebx+28], al
  0007f	43		 inc	 ebx
  00080	83 fb 0c	 cmp	 ebx, 12			; 0000000cH
  00083	7c dd		 jl	 SHORT $LL3@Init

; 82   : 
; 83   : 		//UJ 130913, 최적화: szKey 사용안하도록 간략화
; 84   : 		//char szKey[ccddaabb::KEY_SIZE];//="";
; 85   : 		//for (int i = 0; i < ccddaabb::KEY_SIZE  ; i++)
; 86   : 		//	szKey[i] = (char)( rand()+pid+tick )%256; // 더미
; 87   : 		m_RC5.Setup( NULL, pid, tick );

  00085	ff 75 fc	 push	 DWORD PTR _tick$[ebp]
  00088	8d 4e 0c	 lea	 ecx, DWORD PTR [esi+12]
  0008b	ff 75 f8	 push	 DWORD PTR _pid$[ebp]
  0008e	6a 00		 push	 0
  00090	e8 00 00 00 00	 call	 ?Setup@ccddaabb@@QAEXPBDHH@Z ; ccddaabb::Setup
  00095	5f		 pop	 edi
  00096	5e		 pop	 esi
  00097	5b		 pop	 ebx

; 88   : 
; 89   : #ifdef _NOTUSE
; 90   : 		m_value        = 0;
; 91   : 		EncryptValueToPool((char*)&m_value);
; 92   : 		Debug();
; 93   : #endif
; 94   : 	}

  00098	c9		 leave
  00099	c3		 ret	 0
?Init@?$CEncrypt@H@@AAEXXZ ENDP				; CEncrypt<int>::Init
_TEXT	ENDS
PUBLIC	?DecryptValueToPool@?$CEncrypt@H@@QAEXPAH@Z	; CEncrypt<int>::DecryptValueToPool
EXTRN	?DecryptByte@ccddaabb@@QBEXPBDPADH@Z:PROC	; ccddaabb::DecryptByte
; Function compile flags: /Ogsp
;	COMDAT ?DecryptValueToPool@?$CEncrypt@H@@QAEXPAH@Z
_TEXT	SEGMENT
_value$ = 8						; size = 4
?DecryptValueToPool@?$CEncrypt@H@@QAEXPAH@Z PROC	; CEncrypt<int>::DecryptValueToPool, COMDAT
; _this$ = ecx

; 837  : 	{

  00000	55		 push	 ebp
  00001	8b ec		 mov	 ebp, esp
  00003	56		 push	 esi

; 838  : 		m_RC5.DecryptByte( m_MemPool, m_TempMem, 4 );

  00004	8d 71 28	 lea	 esi, DWORD PTR [ecx+40]
  00007	6a 04		 push	 4
  00009	8d 41 1c	 lea	 eax, DWORD PTR [ecx+28]
  0000c	56		 push	 esi
  0000d	50		 push	 eax
  0000e	83 c1 0c	 add	 ecx, 12			; 0000000cH
  00011	e8 00 00 00 00	 call	 ?DecryptByte@ccddaabb@@QBEXPBDPADH@Z ; ccddaabb::DecryptByte

; 839  : 		*value = *((int*)m_TempMem);

  00016	8b 06		 mov	 eax, DWORD PTR [esi]
  00018	8b 4d 08	 mov	 ecx, DWORD PTR _value$[ebp]
  0001b	89 01		 mov	 DWORD PTR [ecx], eax
  0001d	5e		 pop	 esi

; 840  : 	}

  0001e	5d		 pop	 ebp
  0001f	c2 04 00	 ret	 4
?DecryptValueToPool@?$CEncrypt@H@@QAEXPAH@Z ENDP	; CEncrypt<int>::DecryptValueToPool
_TEXT	ENDS
PUBLIC	?DecryptValueToPool@?$CEncrypt@W4ModeType@@@@QAEXPAW4ModeType@@@Z ; CEncrypt<enum ModeType>::DecryptValueToPool
; Function compile flags: /Ogsp
;	COMDAT ?DecryptValueToPool@?$CEncrypt@W4ModeType@@@@QAEXPAW4ModeType@@@Z
_TEXT	SEGMENT
_value$ = 8						; size = 4
?DecryptValueToPool@?$CEncrypt@W4ModeType@@@@QAEXPAW4ModeType@@@Z PROC ; CEncrypt<enum ModeType>::DecryptValueToPool, COMDAT
; _this$ = ecx

; 3039 : 	{

  00000	55		 push	 ebp
  00001	8b ec		 mov	 ebp, esp
  00003	56		 push	 esi

; 3040 : 		m_RC5.DecryptByte( m_MemPool, m_TempMem, sizeof(ModeType) );

  00004	8d 71 28	 lea	 esi, DWORD PTR [ecx+40]
  00007	6a 04		 push	 4
  00009	8d 41 1c	 lea	 eax, DWORD PTR [ecx+28]
  0000c	56		 push	 esi
  0000d	50		 push	 eax
  0000e	83 c1 0c	 add	 ecx, 12			; 0000000cH
  00011	e8 00 00 00 00	 call	 ?DecryptByte@ccddaabb@@QBEXPBDPADH@Z ; ccddaabb::DecryptByte

; 3041 : 		*value = *((ModeType*)m_TempMem);

  00016	8b 06		 mov	 eax, DWORD PTR [esi]
  00018	8b 4d 08	 mov	 ecx, DWORD PTR _value$[ebp]
  0001b	89 01		 mov	 DWORD PTR [ecx], eax
  0001d	5e		 pop	 esi

; 3042 : 	}

  0001e	5d		 pop	 ebp
  0001f	c2 04 00	 ret	 4
?DecryptValueToPool@?$CEncrypt@W4ModeType@@@@QAEXPAW4ModeType@@@Z ENDP ; CEncrypt<enum ModeType>::DecryptValueToPool
_TEXT	ENDS
PUBLIC	__$ArrayPad$
PUBLIC	??$?8$08@@YA_NABVioHashString@@AAY08$$CBD@Z	; operator==<9>
EXTRN	__imp_?c_str@ioHashString@@QBEPBDXZ:PROC
EXTRN	___security_cookie:DWORD
EXTRN	@__security_check_cookie@4:PROC
; Function compile flags: /Ogsp
; File d:\lost saga for developer\youtube\tutorial\source\src\io3dengine\iohashstring.h
;	COMDAT ??$?8$08@@YA_NABVioHashString@@AAY08$$CBD@Z
_TEXT	SEGMENT
__t$ = -20						; size = 9
__$ArrayPad$ = -4					; size = 4
_lhs$ = 8						; size = 4
_t$ = 12						; size = 4
??$?8$08@@YA_NABVioHashString@@AAY08$$CBD@Z PROC	; operator==<9>, COMDAT

; 146  : {

  00000	55		 push	 ebp
  00001	8b ec		 mov	 ebp, esp
  00003	83 ec 14	 sub	 esp, 20			; 00000014H
  00006	a1 00 00 00 00	 mov	 eax, DWORD PTR ___security_cookie
  0000b	33 c5		 xor	 eax, ebp
  0000d	89 45 fc	 mov	 DWORD PTR __$ArrayPad$[ebp], eax
  00010	8b 45 0c	 mov	 eax, DWORD PTR _t$[ebp]

; 147  : 	_ENCSTR(t, _t); return ( strcmp( lhs.c_str(), _t ) == 0 );

  00013	8a 10		 mov	 dl, BYTE PTR [eax]
  00015	8b 4d 08	 mov	 ecx, DWORD PTR _lhs$[ebp]
  00018	84 d2		 test	 dl, dl
  0001a	0f 84 ee 00 00
	00		 je	 $LN96@operator
  00020	80 f2 ed	 xor	 dl, -19			; ffffffedH
  00023	88 55 ec	 mov	 BYTE PTR __t$[ebp], dl
  00026	8a 50 01	 mov	 dl, BYTE PTR [eax+1]
  00029	84 d2		 test	 dl, dl
  0002b	0f 84 d7 00 00
	00		 je	 $LN95@operator
  00031	80 f2 ec	 xor	 dl, -20			; ffffffecH
  00034	88 55 ed	 mov	 BYTE PTR __t$[ebp+1], dl
  00037	8a 50 02	 mov	 dl, BYTE PTR [eax+2]
  0003a	84 d2		 test	 dl, dl
  0003c	0f 84 c0 00 00
	00		 je	 $LN94@operator
  00042	80 f2 eb	 xor	 dl, -21			; ffffffebH
  00045	88 55 ee	 mov	 BYTE PTR __t$[ebp+2], dl
  00048	8a 50 03	 mov	 dl, BYTE PTR [eax+3]
  0004b	84 d2		 test	 dl, dl
  0004d	0f 84 a9 00 00
	00		 je	 $LN93@operator
  00053	80 f2 ea	 xor	 dl, -22			; ffffffeaH
  00056	88 55 ef	 mov	 BYTE PTR __t$[ebp+3], dl
  00059	8a 50 04	 mov	 dl, BYTE PTR [eax+4]
  0005c	84 d2		 test	 dl, dl
  0005e	0f 84 92 00 00
	00		 je	 $LN92@operator
  00064	80 f2 ed	 xor	 dl, -19			; ffffffedH
  00067	88 55 f0	 mov	 BYTE PTR __t$[ebp+4], dl
  0006a	8a 50 05	 mov	 dl, BYTE PTR [eax+5]
  0006d	84 d2		 test	 dl, dl
  0006f	74 7f		 je	 SHORT $LN91@operator
  00071	80 f2 ec	 xor	 dl, -20			; ffffffecH
  00074	88 55 f1	 mov	 BYTE PTR __t$[ebp+5], dl
  00077	8a 50 06	 mov	 dl, BYTE PTR [eax+6]
  0007a	84 d2		 test	 dl, dl
  0007c	74 6c		 je	 SHORT $LN90@operator
  0007e	80 f2 eb	 xor	 dl, -21			; ffffffebH
  00081	88 55 f2	 mov	 BYTE PTR __t$[ebp+6], dl
  00084	8a 50 07	 mov	 dl, BYTE PTR [eax+7]
  00087	84 d2		 test	 dl, dl
  00089	74 59		 je	 SHORT $LN89@operator
  0008b	80 f2 ea	 xor	 dl, -22			; ffffffeaH
  0008e	80 78 08 00	 cmp	 BYTE PTR [eax+8], 0
  00092	88 55 f3	 mov	 BYTE PTR __t$[ebp+7], dl
  00095	74 7b		 je	 SHORT $LN1@operator
  00097	8a 50 09	 mov	 dl, BYTE PTR [eax+9]
  0009a	84 d2		 test	 dl, dl
  0009c	74 40		 je	 SHORT $LN87@operator
  0009e	80 f2 ec	 xor	 dl, -20			; ffffffecH
  000a1	88 55 f5	 mov	 BYTE PTR __t$[ebp+9], dl
  000a4	8a 50 0a	 mov	 dl, BYTE PTR [eax+10]
  000a7	84 d2		 test	 dl, dl
  000a9	74 2d		 je	 SHORT $LN86@operator
  000ab	80 f2 eb	 xor	 dl, -21			; ffffffebH
  000ae	88 55 f6	 mov	 BYTE PTR __t$[ebp+10], dl
  000b1	8a 50 0b	 mov	 dl, BYTE PTR [eax+11]
  000b4	84 d2		 test	 dl, dl
  000b6	74 1a		 je	 SHORT $LN85@operator
  000b8	8a 40 0c	 mov	 al, BYTE PTR [eax+12]
  000bb	80 f2 ea	 xor	 dl, -22			; ffffffeaH
  000be	88 55 f7	 mov	 BYTE PTR __t$[ebp+11], dl
  000c1	84 c0		 test	 al, al
  000c3	74 07		 je	 SHORT $LN84@operator
  000c5	34 ed		 xor	 al, -19			; ffffffedH
  000c7	88 45 f8	 mov	 BYTE PTR __t$[ebp+12], al
  000ca	eb 46		 jmp	 SHORT $LN1@operator
$LN84@operator:
  000cc	c6 45 f8 ed	 mov	 BYTE PTR __t$[ebp+12], -19 ; ffffffedH
  000d0	eb 40		 jmp	 SHORT $LN1@operator
$LN85@operator:
  000d2	c6 45 f7 ea	 mov	 BYTE PTR __t$[ebp+11], -22 ; ffffffeaH
  000d6	eb 3a		 jmp	 SHORT $LN1@operator
$LN86@operator:
  000d8	c6 45 f6 eb	 mov	 BYTE PTR __t$[ebp+10], -21 ; ffffffebH
  000dc	eb 34		 jmp	 SHORT $LN1@operator
$LN87@operator:
  000de	c6 45 f5 ec	 mov	 BYTE PTR __t$[ebp+9], -20 ; ffffffecH
  000e2	eb 2e		 jmp	 SHORT $LN1@operator
$LN89@operator:
  000e4	c6 45 f3 ea	 mov	 BYTE PTR __t$[ebp+7], -22 ; ffffffeaH
  000e8	eb 28		 jmp	 SHORT $LN1@operator
$LN90@operator:
  000ea	c6 45 f2 eb	 mov	 BYTE PTR __t$[ebp+6], -21 ; ffffffebH
  000ee	eb 22		 jmp	 SHORT $LN1@operator
$LN91@operator:
  000f0	c6 45 f1 ec	 mov	 BYTE PTR __t$[ebp+5], -20 ; ffffffecH
  000f4	eb 1c		 jmp	 SHORT $LN1@operator
$LN92@operator:
  000f6	c6 45 f0 ed	 mov	 BYTE PTR __t$[ebp+4], -19 ; ffffffedH
  000fa	eb 16		 jmp	 SHORT $LN1@operator
$LN93@operator:
  000fc	c6 45 ef ea	 mov	 BYTE PTR __t$[ebp+3], -22 ; ffffffeaH
  00100	eb 10		 jmp	 SHORT $LN1@operator
$LN94@operator:
  00102	c6 45 ee eb	 mov	 BYTE PTR __t$[ebp+2], -21 ; ffffffebH
  00106	eb 0a		 jmp	 SHORT $LN1@operator
$LN95@operator:
  00108	c6 45 ed ec	 mov	 BYTE PTR __t$[ebp+1], -20 ; ffffffecH
  0010c	eb 04		 jmp	 SHORT $LN1@operator
$LN96@operator:
  0010e	c6 45 ec ed	 mov	 BYTE PTR __t$[ebp], -19	; ffffffedH
$LN1@operator:
  00112	6a 02		 push	 2
  00114	8d 45 ec	 lea	 eax, DWORD PTR __t$[ebp]
  00117	c6 45 f4 00	 mov	 BYTE PTR __t$[ebp+8], 0
  0011b	5a		 pop	 edx
$LL104@operator:
  0011c	81 30 ed ec eb
	ea		 xor	 DWORD PTR [eax], -353637139 ; eaebecedH
  00122	83 c0 04	 add	 eax, 4
  00125	4a		 dec	 edx
  00126	75 f4		 jne	 SHORT $LL104@operator
  00128	56		 push	 esi
  00129	8d 75 ec	 lea	 esi, DWORD PTR __t$[ebp]
  0012c	ff 15 00 00 00
	00		 call	 DWORD PTR __imp_?c_str@ioHashString@@QBEPBDXZ
$LL111@operator:
  00132	8a 08		 mov	 cl, BYTE PTR [eax]
  00134	3a 0e		 cmp	 cl, BYTE PTR [esi]
  00136	75 1a		 jne	 SHORT $LN112@operator
  00138	84 c9		 test	 cl, cl
  0013a	74 12		 je	 SHORT $LN113@operator
  0013c	8a 48 01	 mov	 cl, BYTE PTR [eax+1]
  0013f	3a 4e 01	 cmp	 cl, BYTE PTR [esi+1]
  00142	75 0e		 jne	 SHORT $LN112@operator
  00144	83 c0 02	 add	 eax, 2
  00147	83 c6 02	 add	 esi, 2
  0014a	84 c9		 test	 cl, cl
  0014c	75 e4		 jne	 SHORT $LL111@operator
$LN113@operator:
  0014e	33 c0		 xor	 eax, eax
  00150	eb 05		 jmp	 SHORT $LN114@operator
$LN112@operator:
  00152	1b c0		 sbb	 eax, eax
  00154	83 d8 ff	 sbb	 eax, -1
$LN114@operator:
  00157	33 c9		 xor	 ecx, ecx
  00159	85 c0		 test	 eax, eax
  0015b	0f 94 c0	 sete	 al

; 148  : }

  0015e	8b 4d fc	 mov	 ecx, DWORD PTR __$ArrayPad$[ebp]
  00161	33 cd		 xor	 ecx, ebp
  00163	5e		 pop	 esi
  00164	e8 00 00 00 00	 call	 @__security_check_cookie@4
  00169	c9		 leave
  0016a	c3		 ret	 0
??$?8$08@@YA_NABVioHashString@@AAY08$$CBD@Z ENDP	; operator==<9>
_TEXT	ENDS
PUBLIC	?StringCbPrintfA@@YAJPADIPBDZZ			; StringCbPrintfA
; Function compile flags: /Ogsp
; File c:\program files (x86)\microsoft sdks\windows\v7.0a\include\strsafe.h
;	COMDAT ?StringCbPrintfA@@YAJPADIPBDZZ
_TEXT	SEGMENT
_pszDest$ = 8						; size = 4
_cbDest$ = 12						; size = 4
_pszFormat$ = 16					; size = 4
?StringCbPrintfA@@YAJPADIPBDZZ PROC			; StringCbPrintfA, COMDAT

; 4767 : {

  00000	55		 push	 ebp
  00001	8b ec		 mov	 ebp, esp

; 4768 :     HRESULT hr;
; 4769 :     size_t cchDest = cbDest / sizeof(char);
; 4770 : 
; 4771 :     hr = StringValidateDestA(pszDest, cchDest, STRSAFE_MAX_CCH);

  00003	8b 4d 0c	 mov	 ecx, DWORD PTR _cbDest$[ebp]
  00006	33 c0		 xor	 eax, eax
  00008	85 c9		 test	 ecx, ecx
  0000a	74 08		 je	 SHORT $LN4@StringCbPr
  0000c	81 f9 ff ff ff
	7f		 cmp	 ecx, 2147483647		; 7fffffffH
  00012	76 05		 jbe	 SHORT $LN5@StringCbPr
$LN4@StringCbPr:
  00014	b8 57 00 07 80	 mov	 eax, -2147024809	; 80070057H
$LN5@StringCbPr:

; 4772 :     
; 4773 :     if (SUCCEEDED(hr))

  00019	85 c0		 test	 eax, eax
  0001b	78 39		 js	 SHORT $LN1@StringCbPr

; 4774 :     {
; 4775 :         va_list argList;
; 4776 : 
; 4777 :         va_start(argList, pszFormat);
; 4778 : 
; 4779 :         hr = StringVPrintfWorkerA(pszDest,
; 4780 :                                   cchDest,
; 4781 :                                   NULL,
; 4782 :                                   pszFormat,
; 4783 :                                   argList);

  0001d	53		 push	 ebx
  0001e	56		 push	 esi
  0001f	57		 push	 edi
  00020	8b 7d 08	 mov	 edi, DWORD PTR _pszDest$[ebp]
  00023	8d 45 14	 lea	 eax, DWORD PTR _pszFormat$[ebp+4]
  00026	50		 push	 eax
  00027	ff 75 10	 push	 DWORD PTR _pszFormat$[ebp]
  0002a	8d 71 ff	 lea	 esi, DWORD PTR [ecx-1]
  0002d	56		 push	 esi
  0002e	57		 push	 edi
  0002f	33 db		 xor	 ebx, ebx
  00031	ff 15 00 00 00
	00		 call	 DWORD PTR __imp___vsnprintf
  00037	83 c4 10	 add	 esp, 16			; 00000010H
  0003a	85 c0		 test	 eax, eax
  0003c	78 0b		 js	 SHORT $LN12@StringCbPr
  0003e	3b c6		 cmp	 eax, esi
  00040	77 07		 ja	 SHORT $LN12@StringCbPr
  00042	75 0d		 jne	 SHORT $LN9@StringCbPr
  00044	88 1c 3e	 mov	 BYTE PTR [esi+edi], bl
  00047	eb 08		 jmp	 SHORT $LN9@StringCbPr
$LN12@StringCbPr:
  00049	88 1c 3e	 mov	 BYTE PTR [esi+edi], bl
  0004c	bb 7a 00 07 80	 mov	 ebx, -2147024774	; 8007007aH
$LN9@StringCbPr:
  00051	5f		 pop	 edi
  00052	5e		 pop	 esi
  00053	8b c3		 mov	 eax, ebx
  00055	5b		 pop	 ebx
$LN1@StringCbPr:

; 4784 : 
; 4785 :         va_end(argList);
; 4786 :     }
; 4787 : 
; 4788 :     return hr;
; 4789 : }

  00056	5d		 pop	 ebp
  00057	c3		 ret	 0
?StringCbPrintfA@@YAJPADIPBDZZ ENDP			; StringCbPrintfA
_TEXT	ENDS
PUBLIC	??1CHARACTER@@QAE@XZ				; CHARACTER::~CHARACTER
EXTRN	??_M@YGXPAXIHP6EX0@Z@Z:PROC			; `eh vector destructor iterator'
EXTRN	___CxxFrameHandler3:PROC
EXTRN	__EH_epilog3:PROC
EXTRN	__EH_prolog3:PROC
;	COMDAT xdata$x
xdata$x	SEGMENT
__ehfuncinfo$??1CHARACTER@@QAE@XZ DD 019930522H
	DD	0aH
	DD	FLAT:__unwindtable$??1CHARACTER@@QAE@XZ
	DD	2 DUP(00H)
	DD	2 DUP(00H)
	DD	00H
	DD	01H
__unwindtable$??1CHARACTER@@QAE@XZ DD 0ffffffffH
	DD	FLAT:__unwindfunclet$??1CHARACTER@@QAE@XZ$0
	DD	00H
	DD	FLAT:__unwindfunclet$??1CHARACTER@@QAE@XZ$1
	DD	01H
	DD	FLAT:__unwindfunclet$??1CHARACTER@@QAE@XZ$2
	DD	02H
	DD	FLAT:__unwindfunclet$??1CHARACTER@@QAE@XZ$3
	DD	03H
	DD	FLAT:__unwindfunclet$??1CHARACTER@@QAE@XZ$4
	DD	04H
	DD	FLAT:__unwindfunclet$??1CHARACTER@@QAE@XZ$5
	DD	05H
	DD	FLAT:__unwindfunclet$??1CHARACTER@@QAE@XZ$6
	DD	06H
	DD	FLAT:__unwindfunclet$??1CHARACTER@@QAE@XZ$7
	DD	07H
	DD	FLAT:__unwindfunclet$??1CHARACTER@@QAE@XZ$8
	DD	08H
	DD	FLAT:__unwindfunclet$??1CHARACTER@@QAE@XZ$9
; Function compile flags: /Ogsp
xdata$x	ENDS
;	COMDAT ??1CHARACTER@@QAE@XZ
_TEXT	SEGMENT
_this$ = -16						; size = 4
__$EHRec$ = -12						; size = 12
??1CHARACTER@@QAE@XZ PROC				; CHARACTER::~CHARACTER, COMDAT
; _this$ = ecx
  00000	6a 04		 push	 4
  00002	b8 00 00 00 00	 mov	 eax, __ehhandler$??1CHARACTER@@QAE@XZ
  00007	e8 00 00 00 00	 call	 __EH_prolog3
  0000c	8b f1		 mov	 esi, ecx
  0000e	89 75 f0	 mov	 DWORD PTR _this$[ebp], esi
  00011	68 00 00 00 00	 push	 OFFSET ??1?$CEncrypt@H@@UAE@XZ ; CEncrypt<int>::~CEncrypt<int>
  00016	6a 04		 push	 4
  00018	6a 30		 push	 48			; 00000030H
  0001a	8d 86 e0 01 00
	00		 lea	 eax, DWORD PTR [esi+480]
  00020	50		 push	 eax
  00021	c7 45 fc 09 00
	00 00		 mov	 DWORD PTR __$EHRec$[ebp+8], 9
  00028	e8 00 00 00 00	 call	 ??_M@YGXPAXIHP6EX0@Z@Z
  0002d	bf 00 00 00 00	 mov	 edi, OFFSET ??_7?$CEncrypt@H@@6B@
  00032	8d 8e bc 01 00
	00		 lea	 ecx, DWORD PTR [esi+444]
  00038	c6 45 fc 08	 mov	 BYTE PTR __$EHRec$[ebp+8], 8
  0003c	89 be b0 01 00
	00		 mov	 DWORD PTR [esi+432], edi
  00042	e8 00 00 00 00	 call	 ??1ccddaabb@@UAE@XZ	; ccddaabb::~ccddaabb
  00047	8d 8e 8c 01 00
	00		 lea	 ecx, DWORD PTR [esi+396]
  0004d	c6 45 fc 07	 mov	 BYTE PTR __$EHRec$[ebp+8], 7
  00051	89 be 80 01 00
	00		 mov	 DWORD PTR [esi+384], edi
  00057	e8 00 00 00 00	 call	 ??1ccddaabb@@UAE@XZ	; ccddaabb::~ccddaabb
  0005c	8d 8e 5c 01 00
	00		 lea	 ecx, DWORD PTR [esi+348]
  00062	c6 45 fc 06	 mov	 BYTE PTR __$EHRec$[ebp+8], 6
  00066	89 be 50 01 00
	00		 mov	 DWORD PTR [esi+336], edi
  0006c	e8 00 00 00 00	 call	 ??1ccddaabb@@UAE@XZ	; ccddaabb::~ccddaabb
  00071	8d 8e 2c 01 00
	00		 lea	 ecx, DWORD PTR [esi+300]
  00077	c6 45 fc 05	 mov	 BYTE PTR __$EHRec$[ebp+8], 5
  0007b	89 be 20 01 00
	00		 mov	 DWORD PTR [esi+288], edi
  00081	e8 00 00 00 00	 call	 ??1ccddaabb@@UAE@XZ	; ccddaabb::~ccddaabb
  00086	8d 8e fc 00 00
	00		 lea	 ecx, DWORD PTR [esi+252]
  0008c	c6 45 fc 04	 mov	 BYTE PTR __$EHRec$[ebp+8], 4
  00090	89 be f0 00 00
	00		 mov	 DWORD PTR [esi+240], edi
  00096	e8 00 00 00 00	 call	 ??1ccddaabb@@UAE@XZ	; ccddaabb::~ccddaabb
  0009b	8d 8e cc 00 00
	00		 lea	 ecx, DWORD PTR [esi+204]
  000a1	c6 45 fc 03	 mov	 BYTE PTR __$EHRec$[ebp+8], 3
  000a5	89 be c0 00 00
	00		 mov	 DWORD PTR [esi+192], edi
  000ab	e8 00 00 00 00	 call	 ??1ccddaabb@@UAE@XZ	; ccddaabb::~ccddaabb
  000b0	8d 8e 9c 00 00
	00		 lea	 ecx, DWORD PTR [esi+156]
  000b6	c6 45 fc 02	 mov	 BYTE PTR __$EHRec$[ebp+8], 2
  000ba	89 be 90 00 00
	00		 mov	 DWORD PTR [esi+144], edi
  000c0	e8 00 00 00 00	 call	 ??1ccddaabb@@UAE@XZ	; ccddaabb::~ccddaabb
  000c5	8d 4e 6c	 lea	 ecx, DWORD PTR [esi+108]
  000c8	c6 45 fc 01	 mov	 BYTE PTR __$EHRec$[ebp+8], 1
  000cc	89 7e 60	 mov	 DWORD PTR [esi+96], edi
  000cf	e8 00 00 00 00	 call	 ??1ccddaabb@@UAE@XZ	; ccddaabb::~ccddaabb
  000d4	8d 4e 3c	 lea	 ecx, DWORD PTR [esi+60]
  000d7	c6 45 fc 00	 mov	 BYTE PTR __$EHRec$[ebp+8], 0
  000db	89 7e 30	 mov	 DWORD PTR [esi+48], edi
  000de	e8 00 00 00 00	 call	 ??1ccddaabb@@UAE@XZ	; ccddaabb::~ccddaabb
  000e3	83 4d fc ff	 or	 DWORD PTR __$EHRec$[ebp+8], -1
  000e7	8d 4e 0c	 lea	 ecx, DWORD PTR [esi+12]
  000ea	89 3e		 mov	 DWORD PTR [esi], edi
  000ec	e8 00 00 00 00	 call	 ??1ccddaabb@@UAE@XZ	; ccddaabb::~ccddaabb
  000f1	e8 00 00 00 00	 call	 __EH_epilog3
  000f6	c3		 ret	 0
_TEXT	ENDS
;	COMDAT text$x
text$x	SEGMENT
__unwindfunclet$??1CHARACTER@@QAE@XZ$0:
  00000	8b 4d f0	 mov	 ecx, DWORD PTR _this$[ebp]
  00003	e9 00 00 00 00	 jmp	 ??1?$CEncrypt@H@@UAE@XZ	; CEncrypt<int>::~CEncrypt<int>
__unwindfunclet$??1CHARACTER@@QAE@XZ$1:
  00008	8b 4d f0	 mov	 ecx, DWORD PTR _this$[ebp]
  0000b	83 c1 30	 add	 ecx, 48			; 00000030H
  0000e	e9 00 00 00 00	 jmp	 ??1?$CEncrypt@H@@UAE@XZ	; CEncrypt<int>::~CEncrypt<int>
__unwindfunclet$??1CHARACTER@@QAE@XZ$2:
  00013	8b 4d f0	 mov	 ecx, DWORD PTR _this$[ebp]
  00016	83 c1 60	 add	 ecx, 96			; 00000060H
  00019	e9 00 00 00 00	 jmp	 ??1?$CEncrypt@H@@UAE@XZ	; CEncrypt<int>::~CEncrypt<int>
__unwindfunclet$??1CHARACTER@@QAE@XZ$3:
  0001e	8b 4d f0	 mov	 ecx, DWORD PTR _this$[ebp]
  00021	81 c1 90 00 00
	00		 add	 ecx, 144		; 00000090H
  00027	e9 00 00 00 00	 jmp	 ??1?$CEncrypt@H@@UAE@XZ	; CEncrypt<int>::~CEncrypt<int>
__unwindfunclet$??1CHARACTER@@QAE@XZ$4:
  0002c	8b 4d f0	 mov	 ecx, DWORD PTR _this$[ebp]
  0002f	81 c1 c0 00 00
	00		 add	 ecx, 192		; 000000c0H
  00035	e9 00 00 00 00	 jmp	 ??1?$CEncrypt@H@@UAE@XZ	; CEncrypt<int>::~CEncrypt<int>
__unwindfunclet$??1CHARACTER@@QAE@XZ$5:
  0003a	8b 4d f0	 mov	 ecx, DWORD PTR _this$[ebp]
  0003d	81 c1 f0 00 00
	00		 add	 ecx, 240		; 000000f0H
  00043	e9 00 00 00 00	 jmp	 ??1?$CEncrypt@H@@UAE@XZ	; CEncrypt<int>::~CEncrypt<int>
__unwindfunclet$??1CHARACTER@@QAE@XZ$6:
  00048	8b 4d f0	 mov	 ecx, DWORD PTR _this$[ebp]
  0004b	81 c1 20 01 00
	00		 add	 ecx, 288		; 00000120H
  00051	e9 00 00 00 00	 jmp	 ??1?$CEncrypt@H@@UAE@XZ	; CEncrypt<int>::~CEncrypt<int>
__unwindfunclet$??1CHARACTER@@QAE@XZ$7:
  00056	8b 4d f0	 mov	 ecx, DWORD PTR _this$[ebp]
  00059	81 c1 50 01 00
	00		 add	 ecx, 336		; 00000150H
  0005f	e9 00 00 00 00	 jmp	 ??1?$CEncrypt@H@@UAE@XZ	; CEncrypt<int>::~CEncrypt<int>
__unwindfunclet$??1CHARACTER@@QAE@XZ$8:
  00064	8b 4d f0	 mov	 ecx, DWORD PTR _this$[ebp]
  00067	81 c1 80 01 00
	00		 add	 ecx, 384		; 00000180H
  0006d	e9 00 00 00 00	 jmp	 ??1?$CEncrypt@H@@UAE@XZ	; CEncrypt<int>::~CEncrypt<int>
__unwindfunclet$??1CHARACTER@@QAE@XZ$9:
  00072	8b 4d f0	 mov	 ecx, DWORD PTR _this$[ebp]
  00075	81 c1 b0 01 00
	00		 add	 ecx, 432		; 000001b0H
  0007b	e9 00 00 00 00	 jmp	 ??1?$CEncrypt@H@@UAE@XZ	; CEncrypt<int>::~CEncrypt<int>
__ehhandler$??1CHARACTER@@QAE@XZ:
  00080	8b 54 24 08	 mov	 edx, DWORD PTR [esp+8]
  00084	8d 42 0c	 lea	 eax, DWORD PTR [edx+12]
  00087	8b 4a ec	 mov	 ecx, DWORD PTR [edx-20]
  0008a	33 c8		 xor	 ecx, eax
  0008c	e8 00 00 00 00	 call	 @__security_check_cookie@4
  00091	b8 00 00 00 00	 mov	 eax, OFFSET __ehfuncinfo$??1CHARACTER@@QAE@XZ
  00096	e9 00 00 00 00	 jmp	 ___CxxFrameHandler3
text$x	ENDS
??1CHARACTER@@QAE@XZ ENDP				; CHARACTER::~CHARACTER
PUBLIC	?IsEmpty@ioComplexStringPrinter@@QBE_NXZ	; ioComplexStringPrinter::IsEmpty
; Function compile flags: /Ogsp
; File d:\lost saga for developer\youtube\tutorial\source\src\lsclient\iocomplexstringprinter.h
;	COMDAT ?IsEmpty@ioComplexStringPrinter@@QBE_NXZ
_TEXT	SEGMENT
?IsEmpty@ioComplexStringPrinter@@QBE_NXZ PROC		; ioComplexStringPrinter::IsEmpty, COMDAT
; _this$ = ecx

; 124  : 	inline bool IsEmpty() const { return m_vPieceList.empty(); }

  00000	8b 41 0c	 mov	 eax, DWORD PTR [ecx+12]
  00003	2b 41 10	 sub	 eax, DWORD PTR [ecx+16]
  00006	f7 d8		 neg	 eax
  00008	1b c0		 sbb	 eax, eax
  0000a	40		 inc	 eax
  0000b	c3		 ret	 0
?IsEmpty@ioComplexStringPrinter@@QBE_NXZ ENDP		; ioComplexStringPrinter::IsEmpty
_TEXT	ENDS
PUBLIC	??0?$CEncrypt@H@@QAE@XZ				; CEncrypt<int>::CEncrypt<int>
EXTRN	??0ccddaabb@@QAE@XZ:PROC			; ccddaabb::ccddaabb
;	COMDAT xdata$x
; File d:\lost saga for developer\youtube\tutorial\source\src\lsclient\encryptvalue.h
xdata$x	SEGMENT
__unwindtable$??0?$CEncrypt@H@@QAE@XZ DD 0ffffffffH
	DD	FLAT:__unwindfunclet$??0?$CEncrypt@H@@QAE@XZ$0
__ehfuncinfo$??0?$CEncrypt@H@@QAE@XZ DD 019930522H
	DD	01H
	DD	FLAT:__unwindtable$??0?$CEncrypt@H@@QAE@XZ
	DD	2 DUP(00H)
	DD	2 DUP(00H)
	DD	00H
	DD	01H
; Function compile flags: /Ogsp
xdata$x	ENDS
;	COMDAT ??0?$CEncrypt@H@@QAE@XZ
_TEXT	SEGMENT
_this$ = -16						; size = 4
__$EHRec$ = -12						; size = 12
??0?$CEncrypt@H@@QAE@XZ PROC				; CEncrypt<int>::CEncrypt<int>, COMDAT
; _this$ = ecx

; 109  : 	CEncrypt()

  00000	6a 04		 push	 4
  00002	b8 00 00 00 00	 mov	 eax, __ehhandler$??0?$CEncrypt@H@@QAE@XZ
  00007	e8 00 00 00 00	 call	 __EH_prolog3
  0000c	8b f1		 mov	 esi, ecx
  0000e	89 75 f0	 mov	 DWORD PTR _this$[ebp], esi
  00011	8d 4e 0c	 lea	 ecx, DWORD PTR [esi+12]
  00014	c7 06 00 00 00
	00		 mov	 DWORD PTR [esi], OFFSET ??_7?$CEncrypt@H@@6B@
  0001a	e8 00 00 00 00	 call	 ??0ccddaabb@@QAE@XZ	; ccddaabb::ccddaabb
  0001f	83 65 fc 00	 and	 DWORD PTR __$EHRec$[ebp+8], 0

; 110  : 	{
; 111  : 		Init();

  00023	8b ce		 mov	 ecx, esi
  00025	e8 00 00 00 00	 call	 ?Init@?$CEncrypt@H@@AAEXXZ ; CEncrypt<int>::Init

; 112  : 	}

  0002a	8b c6		 mov	 eax, esi
  0002c	e8 00 00 00 00	 call	 __EH_epilog3
  00031	c3		 ret	 0
_TEXT	ENDS
;	COMDAT text$x
text$x	SEGMENT
__unwindfunclet$??0?$CEncrypt@H@@QAE@XZ$0:
  00000	8b 4d f0	 mov	 ecx, DWORD PTR _this$[ebp]
  00003	83 c1 0c	 add	 ecx, 12			; 0000000cH
  00006	e9 00 00 00 00	 jmp	 ??1ccddaabb@@UAE@XZ	; ccddaabb::~ccddaabb
__ehhandler$??0?$CEncrypt@H@@QAE@XZ:
  0000b	8b 54 24 08	 mov	 edx, DWORD PTR [esp+8]
  0000f	8d 42 0c	 lea	 eax, DWORD PTR [edx+12]
  00012	8b 4a ec	 mov	 ecx, DWORD PTR [edx-20]
  00015	33 c8		 xor	 ecx, eax
  00017	e8 00 00 00 00	 call	 @__security_check_cookie@4
  0001c	b8 00 00 00 00	 mov	 eax, OFFSET __ehfuncinfo$??0?$CEncrypt@H@@QAE@XZ
  00021	e9 00 00 00 00	 jmp	 ___CxxFrameHandler3
text$x	ENDS
??0?$CEncrypt@H@@QAE@XZ ENDP				; CEncrypt<int>::CEncrypt<int>
PUBLIC	??B?$CEncrypt@H@@QAEHXZ				; CEncrypt<int>::operator int
; Function compile flags: /Ogsp
;	COMDAT ??B?$CEncrypt@H@@QAEHXZ
_TEXT	SEGMENT
_value$ = -4						; size = 4
??B?$CEncrypt@H@@QAEHXZ PROC				; CEncrypt<int>::operator int, COMDAT
; _this$ = ecx

; 134  : 	{

  00000	55		 push	 ebp
  00001	8b ec		 mov	 ebp, esp
  00003	51		 push	 ecx

; 135  : 		type value;
; 136  : 		DecryptValueToPool(&value);

  00004	8d 45 fc	 lea	 eax, DWORD PTR _value$[ebp]
  00007	50		 push	 eax
  00008	e8 00 00 00 00	 call	 ?DecryptValueToPool@?$CEncrypt@H@@QAEXPAH@Z ; CEncrypt<int>::DecryptValueToPool

; 137  : 
; 138  : #ifdef _NOTUSE
; 139  : 		Debug();
; 140  : #endif
; 141  : 		return value;

  0000d	8b 45 fc	 mov	 eax, DWORD PTR _value$[ebp]

; 142  : 	}

  00010	c9		 leave
  00011	c3		 ret	 0
??B?$CEncrypt@H@@QAEHXZ ENDP				; CEncrypt<int>::operator int
_TEXT	ENDS
PUBLIC	??B?$CEncrypt@H@@QBEHXZ				; CEncrypt<int>::operator int
; Function compile flags: /Ogsp
;	COMDAT ??B?$CEncrypt@H@@QBEHXZ
_TEXT	SEGMENT
_value$ = -4						; size = 4
??B?$CEncrypt@H@@QBEHXZ PROC				; CEncrypt<int>::operator int, COMDAT
; _this$ = ecx

; 145  : 	{

  00000	55		 push	 ebp
  00001	8b ec		 mov	 ebp, esp
  00003	51		 push	 ecx

; 146  : 		//UJ 130829, const도 똑같이 하면 된다 --start
; 147  : 		type value;
; 148  : 		CEncrypt<type>* pThis = const_cast<CEncrypt<type>*>(this);
; 149  : 		pThis->DecryptValueToPool(&value);

  00004	8d 45 fc	 lea	 eax, DWORD PTR _value$[ebp]
  00007	50		 push	 eax
  00008	e8 00 00 00 00	 call	 ?DecryptValueToPool@?$CEncrypt@H@@QAEXPAH@Z ; CEncrypt<int>::DecryptValueToPool

; 150  : 		//// const에서 DecryptValueToPool 사용할 수 없으므로 아래와 같이함.
; 151  :  		//type value;
; 152  : 		//char szTempMem[MAX_ENCRYPT];
; 153  : 		//m_RC5.DecryptByte( m_MemPool, szTempMem, max(m_ValueSize, DEFAULT_ENCRYPT) );
; 154  : 		//memcpy( &value, szTempMem, m_ValueSize );
; 155  : 		//UJ --end
; 156  : 
; 157  : #ifdef _NOTUSE
; 158  : 		Debug();
; 159  : #endif
; 160  : 		return value;

  0000d	8b 45 fc	 mov	 eax, DWORD PTR _value$[ebp]

; 161  : 	}

  00010	c9		 leave
  00011	c3		 ret	 0
??B?$CEncrypt@H@@QBEHXZ ENDP				; CEncrypt<int>::operator int
_TEXT	ENDS
PUBLIC	??4?$CEncrypt@H@@QAEHH@Z			; CEncrypt<int>::operator=
; Function compile flags: /Ogsp
;	COMDAT ??4?$CEncrypt@H@@QAEHH@Z
_TEXT	SEGMENT
_value$ = 8						; size = 4
_inValue$ = 8						; size = 4
??4?$CEncrypt@H@@QAEHH@Z PROC				; CEncrypt<int>::operator=, COMDAT
; _this$ = ecx

; 843  : 	{

  00000	55		 push	 ebp
  00001	8b ec		 mov	 ebp, esp

; 844  : 		type value = inValue;

  00003	8b 45 08	 mov	 eax, DWORD PTR _inValue$[ebp]
  00006	89 45 08	 mov	 DWORD PTR _value$[ebp], eax

; 845  : 		EncryptValueToPool((char*)&value);

  00009	8d 45 08	 lea	 eax, DWORD PTR _value$[ebp]
  0000c	50		 push	 eax
  0000d	e8 00 00 00 00	 call	 ?EncryptValueToPool@?$CEncrypt@H@@AAEXPBD@Z ; CEncrypt<int>::EncryptValueToPool

; 846  : #ifdef _NOTUSE
; 847  : 		m_value = inValue;
; 848  : 		Debug();
; 849  : #endif
; 850  : 		return value;

  00012	8b 45 08	 mov	 eax, DWORD PTR _value$[ebp]

; 851  : 	}

  00015	5d		 pop	 ebp
  00016	c2 04 00	 ret	 4
??4?$CEncrypt@H@@QAEHH@Z ENDP				; CEncrypt<int>::operator=
_TEXT	ENDS
PUBLIC	??B?$CEncrypt@W4ModeType@@@@QAE?AW4ModeType@@XZ	; CEncrypt<enum ModeType>::operator enum ModeType
; Function compile flags: /Ogsp
;	COMDAT ??B?$CEncrypt@W4ModeType@@@@QAE?AW4ModeType@@XZ
_TEXT	SEGMENT
_value$ = -4						; size = 4
??B?$CEncrypt@W4ModeType@@@@QAE?AW4ModeType@@XZ PROC	; CEncrypt<enum ModeType>::operator enum ModeType, COMDAT
; _this$ = ecx

; 134  : 	{

  00000	55		 push	 ebp
  00001	8b ec		 mov	 ebp, esp
  00003	51		 push	 ecx

; 135  : 		type value;
; 136  : 		DecryptValueToPool(&value);

  00004	8d 45 fc	 lea	 eax, DWORD PTR _value$[ebp]
  00007	50		 push	 eax
  00008	e8 00 00 00 00	 call	 ?DecryptValueToPool@?$CEncrypt@W4ModeType@@@@QAEXPAW4ModeType@@@Z ; CEncrypt<enum ModeType>::DecryptValueToPool

; 137  : 
; 138  : #ifdef _NOTUSE
; 139  : 		Debug();
; 140  : #endif
; 141  : 		return value;

  0000d	8b 45 fc	 mov	 eax, DWORD PTR _value$[ebp]

; 142  : 	}

  00010	c9		 leave
  00011	c3		 ret	 0
??B?$CEncrypt@W4ModeType@@@@QAE?AW4ModeType@@XZ ENDP	; CEncrypt<enum ModeType>::operator enum ModeType
_TEXT	ENDS
PUBLIC	_this$GSCopy$
PUBLIC	__$ArrayPad$
PUBLIC	?AddRenderImage@HeroReinforceDownWnd@@UAEXABVioHashString@@PAVioUIRenderImage@@@Z ; HeroReinforceDownWnd::AddRenderImage
EXTRN	__imp_?AddRenderImage@ioWnd@@UAEXABVioHashString@@PAVioUIRenderImage@@@Z:PROC
; Function compile flags: /Ogsp
; File d:\lost saga for developer\youtube\tutorial\source\src\lsclient\gui\heroreinforcedownwnd.cpp
;	COMDAT ?AddRenderImage@HeroReinforceDownWnd@@UAEXABVioHashString@@PAVioUIRenderImage@@@Z
_TEXT	SEGMENT
_this$GSCopy$ = -24					; size = 4
__t$518579 = -20					; size = 9
__$ArrayPad$ = -4					; size = 4
_szType$ = 8						; size = 4
_pImage$ = 12						; size = 4
?AddRenderImage@HeroReinforceDownWnd@@UAEXABVioHashString@@PAVioUIRenderImage@@@Z PROC ; HeroReinforceDownWnd::AddRenderImage, COMDAT
; _this$ = ecx

; 227  : {

  00000	55		 push	 ebp
  00001	8b ec		 mov	 ebp, esp
  00003	83 ec 18	 sub	 esp, 24			; 00000018H
  00006	a1 00 00 00 00	 mov	 eax, DWORD PTR ___security_cookie
  0000b	33 c5		 xor	 eax, ebp
  0000d	89 45 fc	 mov	 DWORD PTR __$ArrayPad$[ebp], eax
  00010	53		 push	 ebx
  00011	8b 5d 0c	 mov	 ebx, DWORD PTR _pImage$[ebp]
  00014	56		 push	 esi
  00015	57		 push	 edi
  00016	8b 7d 08	 mov	 edi, DWORD PTR _szType$[ebp]

; 228  : 	if( szType == "NameLine" )

  00019	6a 02		 push	 2
  0001b	89 4d e8	 mov	 DWORD PTR _this$GSCopy$[ebp], ecx
  0001e	c7 45 ec a3 8d
	86 8f		 mov	 DWORD PTR __t$518579[ebp], -1887007325 ; 8f868da3H
  00025	c7 45 f0 a1 85
	85 8f		 mov	 DWORD PTR __t$518579[ebp+4], -1887074911 ; 8f8585a1H
  0002c	8d 45 ec	 lea	 eax, DWORD PTR __t$518579[ebp]
  0002f	c6 45 f4 00	 mov	 BYTE PTR __t$518579[ebp+8], 0
  00033	59		 pop	 ecx
$LL111@AddRenderI:
  00034	81 30 ed ec eb
	ea		 xor	 DWORD PTR [eax], -353637139 ; eaebecedH
  0003a	83 c0 04	 add	 eax, 4
  0003d	49		 dec	 ecx
  0003e	75 f4		 jne	 SHORT $LL111@AddRenderI
  00040	8b cf		 mov	 ecx, edi
  00042	8d 75 ec	 lea	 esi, DWORD PTR __t$518579[ebp]
  00045	ff 15 00 00 00
	00		 call	 DWORD PTR __imp_?c_str@ioHashString@@QBEPBDXZ
$LL118@AddRenderI:
  0004b	8a 08		 mov	 cl, BYTE PTR [eax]
  0004d	3a 0e		 cmp	 cl, BYTE PTR [esi]
  0004f	75 1a		 jne	 SHORT $LN119@AddRenderI
  00051	84 c9		 test	 cl, cl
  00053	74 12		 je	 SHORT $LN120@AddRenderI
  00055	8a 48 01	 mov	 cl, BYTE PTR [eax+1]
  00058	3a 4e 01	 cmp	 cl, BYTE PTR [esi+1]
  0005b	75 0e		 jne	 SHORT $LN119@AddRenderI
  0005d	83 c0 02	 add	 eax, 2
  00060	83 c6 02	 add	 esi, 2
  00063	84 c9		 test	 cl, cl
  00065	75 e4		 jne	 SHORT $LL118@AddRenderI
$LN120@AddRenderI:
  00067	33 c0		 xor	 eax, eax
  00069	eb 05		 jmp	 SHORT $LN121@AddRenderI
$LN119@AddRenderI:
  0006b	1b c0		 sbb	 eax, eax
  0006d	83 d8 ff	 sbb	 eax, -1
$LN121@AddRenderI:
  00070	85 c0		 test	 eax, eax
  00072	75 23		 jne	 SHORT $LN3@AddRenderI

; 229  : 	{
; 230  : 		SAFEDELETE( m_pNameLine );

  00074	8b 75 e8	 mov	 esi, DWORD PTR _this$GSCopy$[ebp]
  00077	8b 8e 84 04 00
	00		 mov	 ecx, DWORD PTR [esi+1156]
  0007d	85 c9		 test	 ecx, ecx
  0007f	74 0e		 je	 SHORT $LN2@AddRenderI
  00081	8b 01		 mov	 eax, DWORD PTR [ecx]
  00083	6a 01		 push	 1
  00085	ff 50 40	 call	 DWORD PTR [eax+64]
  00088	83 a6 84 04 00
	00 00		 and	 DWORD PTR [esi+1156], 0
$LN2@AddRenderI:

; 231  : 		m_pNameLine = pImage;

  0008f	89 9e 84 04 00
	00		 mov	 DWORD PTR [esi+1156], ebx

; 232  : 	}
; 233  : 	else

  00095	eb 0b		 jmp	 SHORT $LN1@AddRenderI
$LN3@AddRenderI:

; 234  : 		ioWnd::AddRenderImage( szType, pImage );

  00097	8b 4d e8	 mov	 ecx, DWORD PTR _this$GSCopy$[ebp]
  0009a	53		 push	 ebx
  0009b	57		 push	 edi
  0009c	ff 15 00 00 00
	00		 call	 DWORD PTR __imp_?AddRenderImage@ioWnd@@UAEXABVioHashString@@PAVioUIRenderImage@@@Z
$LN1@AddRenderI:

; 235  : }

  000a2	8b 4d fc	 mov	 ecx, DWORD PTR __$ArrayPad$[ebp]
  000a5	5f		 pop	 edi
  000a6	5e		 pop	 esi
  000a7	33 cd		 xor	 ecx, ebp
  000a9	5b		 pop	 ebx
  000aa	e8 00 00 00 00	 call	 @__security_check_cookie@4
  000af	c9		 leave
  000b0	c2 08 00	 ret	 8
?AddRenderImage@HeroReinforceDownWnd@@UAEXABVioHashString@@PAVioUIRenderImage@@@Z ENDP ; HeroReinforceDownWnd::AddRenderImage
_TEXT	ENDS
PUBLIC	?OnRender@HeroReinforceDownWnd@@MAEXXZ		; HeroReinforceDownWnd::OnRender
EXTRN	?PrintFullText@ioComplexStringPrinter@@QAEXMMW4TextAlignType@@E@Z:PROC ; ioComplexStringPrinter::PrintFullText
EXTRN	__imp_?GetDerivedPosY@ioWnd@@QBEHXZ:PROC
EXTRN	__imp_?GetDerivedPosX@ioWnd@@QBEHXZ:PROC
EXTRN	__imp_?OnRender@ioWnd@@MAEXXZ:PROC
EXTRN	__fltused:DWORD
; Function compile flags: /Ogsp
;	COMDAT ?OnRender@HeroReinforceDownWnd@@MAEXXZ
_TEXT	SEGMENT
_nYPos$ = -16						; size = 4
_nXPos$ = -12						; size = 4
_i$516101 = -8						; size = 4
tv299 = -4						; size = 4
?OnRender@HeroReinforceDownWnd@@MAEXXZ PROC		; HeroReinforceDownWnd::OnRender, COMDAT
; _this$ = ecx

; 238  : {

  00000	55		 push	 ebp
  00001	8b ec		 mov	 ebp, esp
  00003	83 ec 10	 sub	 esp, 16			; 00000010H
  00006	53		 push	 ebx
  00007	56		 push	 esi
  00008	57		 push	 edi
  00009	8b f1		 mov	 esi, ecx

; 239  : 	ioWnd::OnRender();

  0000b	ff 15 00 00 00
	00		 call	 DWORD PTR __imp_?OnRender@ioWnd@@MAEXXZ

; 240  : 
; 241  : 	int nXPos = GetDerivedPosX();

  00011	8b ce		 mov	 ecx, esi
  00013	ff 15 00 00 00
	00		 call	 DWORD PTR __imp_?GetDerivedPosX@ioWnd@@QBEHXZ

; 242  : 	int nYPos = GetDerivedPosY();

  00019	8b ce		 mov	 ecx, esi
  0001b	89 45 f4	 mov	 DWORD PTR _nXPos$[ebp], eax
  0001e	ff 15 00 00 00
	00		 call	 DWORD PTR __imp_?GetDerivedPosY@ioWnd@@QBEHXZ

; 243  : 
; 244  : 	enum 
; 245  : 	{	
; 246  : 		SOLDIER_REINFORCE_INFO_OFFSET_X = 33,
; 247  : 		SOLDIER_REINFORCE_INFO_OFFSET_Y = 325,
; 248  : 		SOLDIER_REINFORCE_LINE_GAP	   = 21,
; 249  : 
; 250  : 		SOULSTONE_OFFSET_X = 128,
; 251  : 		SOULSTONE_OFFSET_Y = 407,
; 252  : 	};
; 253  : 
; 254  : 	for( int i=0; i < SOLDIER_REINFORCE_INFO_CNT; ++i )

  00024	83 65 f8 00	 and	 DWORD PTR _i$516101[ebp], 0
  00028	89 45 f0	 mov	 DWORD PTR _nYPos$[ebp], eax
  0002b	05 45 01 00 00	 add	 eax, 325		; 00000145H
  00030	89 45 fc	 mov	 DWORD PTR tv299[ebp], eax
  00033	8d be d4 04 00
	00		 lea	 edi, DWORD PTR [esi+1236]
  00039	bb ff 00 00 00	 mov	 ebx, 255		; 000000ffH
$LL19@OnRender:

; 255  : 	{
; 256  : 		if( m_SoldierReinforceInfo[i].IsEmpty() )

  0003e	8b 07		 mov	 eax, DWORD PTR [edi]
  00040	3b 47 04	 cmp	 eax, DWORD PTR [edi+4]
  00043	74 3d		 je	 SHORT $LN17@OnRender

; 257  : 			break;
; 258  : 
; 259  : 		m_SoldierReinforceInfo[i].PrintFullText( nXPos+SOLDIER_REINFORCE_INFO_OFFSET_X, nYPos+SOLDIER_REINFORCE_INFO_OFFSET_Y+(SOLDIER_REINFORCE_LINE_GAP*i), TAT_LEFT );

  00045	66 0f 6e 45 fc	 movd	 xmm0, DWORD PTR tv299[ebp]
  0004a	8b 45 f4	 mov	 eax, DWORD PTR _nXPos$[ebp]
  0004d	53		 push	 ebx
  0004e	6a 00		 push	 0
  00050	51		 push	 ecx
  00051	51		 push	 ecx
  00052	0f 5b c0	 cvtdq2ps xmm0, xmm0
  00055	f3 0f 11 44 24
	04		 movss	 DWORD PTR [esp+4], xmm0
  0005b	83 c0 21	 add	 eax, 33			; 00000021H
  0005e	0f 57 c0	 xorps	 xmm0, xmm0
  00061	f3 0f 2a c0	 cvtsi2ss xmm0, eax
  00065	8d 4f f4	 lea	 ecx, DWORD PTR [edi-12]
  00068	f3 0f 11 04 24	 movss	 DWORD PTR [esp], xmm0
  0006d	e8 00 00 00 00	 call	 ?PrintFullText@ioComplexStringPrinter@@QAEXMMW4TextAlignType@@E@Z ; ioComplexStringPrinter::PrintFullText
  00072	ff 45 f8	 inc	 DWORD PTR _i$516101[ebp]
  00075	83 45 fc 15	 add	 DWORD PTR tv299[ebp], 21 ; 00000015H
  00079	83 c7 20	 add	 edi, 32			; 00000020H
  0007c	83 7d f8 04	 cmp	 DWORD PTR _i$516101[ebp], 4
  00080	7c bc		 jl	 SHORT $LL19@OnRender
$LN17@OnRender:

; 260  : 	}
; 261  : 
; 262  : 	if ( m_SoulStonePrinter.IsEmpty() )

  00082	8b 8e 54 05 00
	00		 mov	 ecx, DWORD PTR [esi+1364]
  00088	3b 8e 58 05 00
	00		 cmp	 ecx, DWORD PTR [esi+1368]
  0008e	74 37		 je	 SHORT $LN6@OnRender

; 263  : 		return;
; 264  : 
; 265  : 	m_SoulStonePrinter.PrintFullText( nXPos+SOULSTONE_OFFSET_X, nYPos+SOULSTONE_OFFSET_Y, TAT_CENTER );

  00090	8b 45 f0	 mov	 eax, DWORD PTR _nYPos$[ebp]
  00093	53		 push	 ebx
  00094	6a 01		 push	 1
  00096	05 97 01 00 00	 add	 eax, 407		; 00000197H
  0009b	0f 57 c0	 xorps	 xmm0, xmm0
  0009e	f3 0f 2a c0	 cvtsi2ss xmm0, eax
  000a2	8b 45 f4	 mov	 eax, DWORD PTR _nXPos$[ebp]
  000a5	51		 push	 ecx
  000a6	51		 push	 ecx
  000a7	f3 0f 11 44 24
	04		 movss	 DWORD PTR [esp+4], xmm0
  000ad	83 e8 80	 sub	 eax, -128		; ffffff80H
  000b0	0f 57 c0	 xorps	 xmm0, xmm0
  000b3	f3 0f 2a c0	 cvtsi2ss xmm0, eax
  000b7	8d 8e 48 05 00
	00		 lea	 ecx, DWORD PTR [esi+1352]
  000bd	f3 0f 11 04 24	 movss	 DWORD PTR [esp], xmm0
  000c2	e8 00 00 00 00	 call	 ?PrintFullText@ioComplexStringPrinter@@QAEXMMW4TextAlignType@@E@Z ; ioComplexStringPrinter::PrintFullText
$LN6@OnRender:
  000c7	5f		 pop	 edi
  000c8	5e		 pop	 esi
  000c9	5b		 pop	 ebx

; 266  : }

  000ca	c9		 leave
  000cb	c3		 ret	 0
?OnRender@HeroReinforceDownWnd@@MAEXXZ ENDP		; HeroReinforceDownWnd::OnRender
_TEXT	ENDS
PUBLIC	?OnRenderAfterChild@HeroReinforceDownWnd@@MAEXXZ ; HeroReinforceDownWnd::OnRenderAfterChild
; Function compile flags: /Ogsp
;	COMDAT ?OnRenderAfterChild@HeroReinforceDownWnd@@MAEXXZ
_TEXT	SEGMENT
_i$516121 = -12						; size = 4
tv275 = -8						; size = 4
tv273 = -4						; size = 4
?OnRenderAfterChild@HeroReinforceDownWnd@@MAEXXZ PROC	; HeroReinforceDownWnd::OnRenderAfterChild, COMDAT
; _this$ = ecx

; 269  : {

  00000	55		 push	 ebp
  00001	8b ec		 mov	 ebp, esp
  00003	83 ec 0c	 sub	 esp, 12			; 0000000cH
  00006	53		 push	 ebx
  00007	56		 push	 esi
  00008	57		 push	 edi
  00009	8b f9		 mov	 edi, ecx

; 270  : 	int nXPos = GetDerivedPosX();

  0000b	ff 15 00 00 00
	00		 call	 DWORD PTR __imp_?GetDerivedPosX@ioWnd@@QBEHXZ

; 271  : 	int nYPos = GetDerivedPosY();

  00011	8b cf		 mov	 ecx, edi
  00013	8b d8		 mov	 ebx, eax
  00015	ff 15 00 00 00
	00		 call	 DWORD PTR __imp_?GetDerivedPosY@ioWnd@@QBEHXZ

; 272  : 	enum 
; 273  : 	{	
; 274  : 		LINE_OFFSET_X = 28, 
; 275  : 		LINE_OFFSET_Y = 288,
; 276  : 
; 277  : 		SOLDIER_INFO_OFFSET_X = 128,
; 278  : 		SOLDIER_INFO_OFFSET_Y = 285,
; 279  : 		SOLDIER_LINE_GAP	   = 16,
; 280  : 
; 281  : 		SOULDIER_SELECT_OFFSET_X = 131,
; 282  : 		SOULDIER_SELECT_OFFSET_Y = 428,
; 283  : 	};
; 284  : 
; 285  : 	if ( !m_pNameLine ) 		return;

  0001b	33 d2		 xor	 edx, edx
  0001d	8b f0		 mov	 esi, eax
  0001f	39 97 84 04 00
	00		 cmp	 DWORD PTR [edi+1156], edx
  00025	0f 84 cf 00 00
	00		 je	 $LN6@OnRenderAf

; 286  : 
; 287  : 	m_pNameLine->Render( nXPos+LINE_OFFSET_X, nYPos+LINE_OFFSET_Y );

  0002b	8b 8f 84 04 00
	00		 mov	 ecx, DWORD PTR [edi+1156]
  00031	8b 01		 mov	 eax, DWORD PTR [ecx]
  00033	52		 push	 edx
  00034	52		 push	 edx
  00035	52		 push	 edx
  00036	52		 push	 edx
  00037	0f 57 c0	 xorps	 xmm0, xmm0
  0003a	51		 push	 ecx
  0003b	8d 96 20 01 00
	00		 lea	 edx, DWORD PTR [esi+288]
  00041	f3 0f 2a c2	 cvtsi2ss xmm0, edx
  00045	51		 push	 ecx
  00046	f3 0f 11 44 24
	04		 movss	 DWORD PTR [esp+4], xmm0
  0004c	8d 53 1c	 lea	 edx, DWORD PTR [ebx+28]
  0004f	0f 57 c0	 xorps	 xmm0, xmm0
  00052	f3 0f 2a c2	 cvtsi2ss xmm0, edx
  00056	f3 0f 11 04 24	 movss	 DWORD PTR [esp], xmm0
  0005b	ff 10		 call	 DWORD PTR [eax]

; 288  : 
; 289  : 	for( int i=0; i < HeroReinforceDownWnd::SOLDIER_INFO_CNT; ++i )

  0005d	83 65 f4 00	 and	 DWORD PTR _i$516121[ebp], 0
  00061	8d 86 1d 01 00
	00		 lea	 eax, DWORD PTR [esi+285]
  00067	89 45 fc	 mov	 DWORD PTR tv273[ebp], eax
  0006a	8d 87 94 04 00
	00		 lea	 eax, DWORD PTR [edi+1172]
  00070	89 45 f8	 mov	 DWORD PTR tv275[ebp], eax
  00073	eb 03		 jmp	 SHORT $LN4@OnRenderAf
$LL15@OnRenderAf:

; 286  : 
; 287  : 	m_pNameLine->Render( nXPos+LINE_OFFSET_X, nYPos+LINE_OFFSET_Y );

  00075	8b 45 f8	 mov	 eax, DWORD PTR tv275[ebp]
$LN4@OnRenderAf:

; 290  : 	{
; 291  : 		if( m_SoldierInfo[i].IsEmpty() )

  00078	8b 08		 mov	 ecx, DWORD PTR [eax]
  0007a	3b 48 04	 cmp	 ecx, DWORD PTR [eax+4]
  0007d	74 42		 je	 SHORT $LN13@OnRenderAf

; 292  : 			break;
; 293  : 
; 294  : 		m_SoldierInfo[i].PrintFullText( nXPos+SOLDIER_INFO_OFFSET_X, nYPos+SOLDIER_INFO_OFFSET_Y+(SOLDIER_LINE_GAP*i), TAT_CENTER );

  0007f	66 0f 6e 45 fc	 movd	 xmm0, DWORD PTR tv273[ebp]
  00084	68 ff 00 00 00	 push	 255			; 000000ffH
  00089	6a 01		 push	 1
  0008b	51		 push	 ecx
  0008c	51		 push	 ecx
  0008d	0f 5b c0	 cvtdq2ps xmm0, xmm0
  00090	f3 0f 11 44 24
	04		 movss	 DWORD PTR [esp+4], xmm0
  00096	8d 8b 80 00 00
	00		 lea	 ecx, DWORD PTR [ebx+128]
  0009c	0f 57 c0	 xorps	 xmm0, xmm0
  0009f	f3 0f 2a c1	 cvtsi2ss xmm0, ecx
  000a3	8d 48 f4	 lea	 ecx, DWORD PTR [eax-12]
  000a6	f3 0f 11 04 24	 movss	 DWORD PTR [esp], xmm0
  000ab	e8 00 00 00 00	 call	 ?PrintFullText@ioComplexStringPrinter@@QAEXMMW4TextAlignType@@E@Z ; ioComplexStringPrinter::PrintFullText
  000b0	ff 45 f4	 inc	 DWORD PTR _i$516121[ebp]
  000b3	83 45 fc 10	 add	 DWORD PTR tv273[ebp], 16 ; 00000010H
  000b7	83 45 f8 20	 add	 DWORD PTR tv275[ebp], 32 ; 00000020H
  000bb	83 7d f4 02	 cmp	 DWORD PTR _i$516121[ebp], 2
  000bf	7c b4		 jl	 SHORT $LL15@OnRenderAf
$LN13@OnRenderAf:

; 295  : 	}
; 296  : 
; 297  : 	m_SoldierSelectPrinter.PrintFullText( nXPos+SOULDIER_SELECT_OFFSET_X, nYPos+SOULDIER_SELECT_OFFSET_Y, TAT_CENTER );

  000c1	68 ff 00 00 00	 push	 255			; 000000ffH
  000c6	6a 01		 push	 1
  000c8	51		 push	 ecx
  000c9	0f 57 c0	 xorps	 xmm0, xmm0
  000cc	51		 push	 ecx
  000cd	81 c6 ac 01 00
	00		 add	 esi, 428		; 000001acH
  000d3	f3 0f 2a c6	 cvtsi2ss xmm0, esi
  000d7	f3 0f 11 44 24
	04		 movss	 DWORD PTR [esp+4], xmm0
  000dd	81 c3 83 00 00
	00		 add	 ebx, 131		; 00000083H
  000e3	0f 57 c0	 xorps	 xmm0, xmm0
  000e6	f3 0f 2a c3	 cvtsi2ss xmm0, ebx
  000ea	8d 8f 68 05 00
	00		 lea	 ecx, DWORD PTR [edi+1384]
  000f0	f3 0f 11 04 24	 movss	 DWORD PTR [esp], xmm0
  000f5	e8 00 00 00 00	 call	 ?PrintFullText@ioComplexStringPrinter@@QAEXMMW4TextAlignType@@E@Z ; ioComplexStringPrinter::PrintFullText
$LN6@OnRenderAf:
  000fa	5f		 pop	 edi
  000fb	5e		 pop	 esi
  000fc	5b		 pop	 ebx

; 298  : }

  000fd	c9		 leave
  000fe	c3		 ret	 0
?OnRenderAfterChild@HeroReinforceDownWnd@@MAEXXZ ENDP	; HeroReinforceDownWnd::OnRenderAfterChild
_TEXT	ENDS
PUBLIC	??_7HeroReinforceDoneWnd@@6B@			; HeroReinforceDoneWnd::`vftable'
PUBLIC	??1HeroReinforceDoneWnd@@UAE@XZ			; HeroReinforceDoneWnd::~HeroReinforceDoneWnd
PUBLIC	??_R4HeroReinforceDoneWnd@@6B@			; HeroReinforceDoneWnd::`RTTI Complete Object Locator'
PUBLIC	??_R0?AVHeroReinforceDoneWnd@@@8		; HeroReinforceDoneWnd `RTTI Type Descriptor'
PUBLIC	??_R3HeroReinforceDoneWnd@@8			; HeroReinforceDoneWnd::`RTTI Class Hierarchy Descriptor'
PUBLIC	??_R2HeroReinforceDoneWnd@@8			; HeroReinforceDoneWnd::`RTTI Base Class Array'
PUBLIC	??_R1A@?0A@EA@HeroReinforceDoneWnd@@8		; HeroReinforceDoneWnd::`RTTI Base Class Descriptor at (0,-1,0,64)'
PUBLIC	??_R1A@?0A@EA@ioWnd@@8				; ioWnd::`RTTI Base Class Descriptor at (0,-1,0,64)'
PUBLIC	??_R0?AVioWnd@@@8				; ioWnd `RTTI Type Descriptor'
PUBLIC	??_R3ioWnd@@8					; ioWnd::`RTTI Class Hierarchy Descriptor'
PUBLIC	??_R2ioWnd@@8					; ioWnd::`RTTI Base Class Array'
PUBLIC	?AddRenderImage@HeroReinforceDoneWnd@@UAEXABVioHashString@@PAVioUIRenderImage@@@Z ; HeroReinforceDoneWnd::AddRenderImage
PUBLIC	?ParseExtraInfo@HeroReinforceDoneWnd@@UAEXAAVioXMLElement@@@Z ; HeroReinforceDoneWnd::ParseExtraInfo
PUBLIC	?OnRender@HeroReinforceDoneWnd@@MAEXXZ		; HeroReinforceDoneWnd::OnRender
PUBLIC	?OnRenderAfterChild@HeroReinforceDoneWnd@@MAEXXZ ; HeroReinforceDoneWnd::OnRenderAfterChild
PUBLIC	?iwm_command@HeroReinforceDoneWnd@@UAEXPAVioWnd@@HK@Z ; HeroReinforceDoneWnd::iwm_command
EXTRN	__imp_??1ioWnd@@UAE@XZ:PROC
EXTRN	??1ioComplexStringPrinter@@QAE@XZ:PROC		; ioComplexStringPrinter::~ioComplexStringPrinter
EXTRN	__imp_??1ioHashString@@QAE@XZ:PROC
EXTRN	?AddRenderFrame@ioWnd@@UAEXABVioHashString@@PAVioUIRenderFrame@@@Z:PROC ; ioWnd::AddRenderFrame
EXTRN	?AddTooltipHelp@ioWnd@@UAEXABVioHashString@@00@Z:PROC ; ioWnd::AddTooltipHelp
EXTRN	?AddNamedRenderImage@ioWnd@@UAEXABVioHashString@@PAVioUIRenderImage@@@Z:PROC ; ioWnd::AddNamedRenderImage
EXTRN	?RemoveNamedRenderImage@ioWnd@@UAEXABVioHashString@@@Z:PROC ; ioWnd::RemoveNamedRenderImage
EXTRN	?GetNamedRenderImage@ioWnd@@UBEPAVioUIRenderImage@@ABVioHashString@@@Z:PROC ; ioWnd::GetNamedRenderImage
EXTRN	?SetWindowAlpha@ioWnd@@UAEXH@Z:PROC		; ioWnd::SetWindowAlpha
EXTRN	?SetActive@ioWnd@@UAEXXZ:PROC			; ioWnd::SetActive
EXTRN	?SetInActive@ioWnd@@UAEXXZ:PROC			; ioWnd::SetInActive
EXTRN	?ClearElementImageList@ioWnd@@UAEXXZ:PROC	; ioWnd::ClearElementImageList
EXTRN	?SetSize@ioWnd@@UAEXHH@Z:PROC			; ioWnd::SetSize
EXTRN	?SetPositionToDefault@ioWnd@@UAEXHH_N0@Z:PROC	; ioWnd::SetPositionToDefault
EXTRN	?IsNeedProcess@ioWnd@@UBE_NXZ:PROC		; ioWnd::IsNeedProcess
EXTRN	?IsCanMouseReaction@ioWnd@@UBE_NXZ:PROC		; ioWnd::IsCanMouseReaction
EXTRN	?AddChild@ioWnd@@UAEXPAV1@@Z:PROC		; ioWnd::AddChild
EXTRN	?DeleteChild@ioWnd@@UAEXK@Z:PROC		; ioWnd::DeleteChild
EXTRN	?DeleteAllChild@ioWnd@@UAEXXZ:PROC		; ioWnd::DeleteAllChild
EXTRN	?OnRenderShowAndHide@ioWnd@@MAE_NXZ:PROC	; ioWnd::OnRenderShowAndHide
EXTRN	?OnRenderShowAndHideByDefault@ioWnd@@MAE_NK@Z:PROC ; ioWnd::OnRenderShowAndHideByDefault
EXTRN	?OnRenderShowAndHideByTop@ioWnd@@MAE_NK@Z:PROC	; ioWnd::OnRenderShowAndHideByTop
EXTRN	?OnRenderShowAndHideByDown@ioWnd@@MAE_NK@Z:PROC	; ioWnd::OnRenderShowAndHideByDown
EXTRN	?OnProcess@ioWnd@@MAEXM@Z:PROC			; ioWnd::OnProcess
EXTRN	?OnMouseProcess@ioWnd@@MAEXABVioMouse@@@Z:PROC	; ioWnd::OnMouseProcess
EXTRN	?CheckFrameReSize@ioWnd@@MAEXHHHH@Z:PROC	; ioWnd::CheckFrameReSize
EXTRN	?RenderImageList@ioWnd@@MAEXHHW4UIRenderType@@@Z:PROC ; ioWnd::RenderImageList
EXTRN	?iwm_create@ioWnd@@UAEXXZ:PROC			; ioWnd::iwm_create
EXTRN	?iwm_destroy@ioWnd@@UAEXXZ:PROC			; ioWnd::iwm_destroy
EXTRN	?iwm_lbuttondown@ioWnd@@UAEXABVioMouse@@@Z:PROC	; ioWnd::iwm_lbuttondown
EXTRN	?iwm_lbuttonup@ioWnd@@UAEXABVioMouse@@@Z:PROC	; ioWnd::iwm_lbuttonup
EXTRN	?iwm_lbuttonDBLCLK@ioWnd@@UAEXABVioMouse@@@Z:PROC ; ioWnd::iwm_lbuttonDBLCLK
EXTRN	?iwm_rbuttondown@ioWnd@@UAEXABVioMouse@@@Z:PROC	; ioWnd::iwm_rbuttondown
EXTRN	?iwm_rbuttonup@ioWnd@@UAEXABVioMouse@@@Z:PROC	; ioWnd::iwm_rbuttonup
EXTRN	?iwm_mouseover@ioWnd@@UAEXABVioMouse@@@Z:PROC	; ioWnd::iwm_mouseover
EXTRN	?iwm_mousemove@ioWnd@@UAEXABVioMouse@@@Z:PROC	; ioWnd::iwm_mousemove
EXTRN	?iwm_mouseleave@ioWnd@@UAEXABVioMouse@@@Z:PROC	; ioWnd::iwm_mouseleave
EXTRN	?iwm_vscroll@ioWnd@@UAEXKH@Z:PROC		; ioWnd::iwm_vscroll
EXTRN	?iwm_wheel@ioWnd@@UAEXH@Z:PROC			; ioWnd::iwm_wheel
EXTRN	?iwm_esc@ioWnd@@UAE_NXZ:PROC			; ioWnd::iwm_esc
EXTRN	?iwm_spacebar@ioWnd@@UAE_NXZ:PROC		; ioWnd::iwm_spacebar
EXTRN	?iwm_gototop@ioWnd@@UAEXXZ:PROC			; ioWnd::iwm_gototop
EXTRN	?iwm_dragenter@ioWnd@@UAE?AW4IWDropEffect@@PAVioDragItem@@ABVioMouse@@@Z:PROC ; ioWnd::iwm_dragenter
EXTRN	?iwm_dragover@ioWnd@@UAE?AW4IWDropEffect@@PAVioDragItem@@ABVioMouse@@@Z:PROC ; ioWnd::iwm_dragover
EXTRN	?iwm_dragleave@ioWnd@@UAEXXZ:PROC		; ioWnd::iwm_dragleave
EXTRN	?iwm_dropitem@ioWnd@@UAE_NPAVioDragItem@@ABVioMouse@@PAV1@@Z:PROC ; ioWnd::iwm_dropitem
EXTRN	?iwm_dropdone@ioWnd@@UAEXPAVioDragItem@@PAV1@_N@Z:PROC ; ioWnd::iwm_dropdone
EXTRN	?IsEXType@ioWnd@@UBE_NXZ:PROC			; ioWnd::IsEXType
EXTRN	?GetWndType@ioWnd@@UBEKXZ:PROC			; ioWnd::GetWndType
EXTRN	?RenderWnd@ioWnd@@UAEXXZ:PROC			; ioWnd::RenderWnd
EXTRN	?SetIDEX@ioWnd@@UAEXAAK_N@Z:PROC		; ioWnd::SetIDEX
EXTRN	?ParseXML@ioWnd@@UAEXAAVioXMLElement@@@Z:PROC	; ioWnd::ParseXML
EXTRN	?GetHeaderFileName@ioWnd@@UAEPBDXZ:PROC		; ioWnd::GetHeaderFileName
EXTRN	?GetTemplateName@ioWnd@@UAEPBDXZ:PROC		; ioWnd::GetTemplateName
EXTRN	?GetDefClassName@ioWnd@@UBEPBDXZ:PROC		; ioWnd::GetDefClassName
EXTRN	?_Clone@ioWnd@@UAEPAV1@XZ:PROC			; ioWnd::_Clone
EXTRN	?Copy@ioWnd@@UAEXPAV1@@Z:PROC			; ioWnd::Copy
EXTRN	?Save@ioWnd@@UAE_NAAVioXMLElement@@@Z:PROC	; ioWnd::Save
EXTRN	?SetSaveData@ioWnd@@UAEXAAVioXMLElement@@@Z:PROC ; ioWnd::SetSaveData
EXTRN	?SetPosX@ioWnd@@UAEXH@Z:PROC			; ioWnd::SetPosX
EXTRN	?SetPosY@ioWnd@@UAEXH@Z:PROC			; ioWnd::SetPosY
EXTRN	?SetWidth@ioWnd@@UAEXH@Z:PROC			; ioWnd::SetWidth
EXTRN	?SetHeight@ioWnd@@UAEXH@Z:PROC			; ioWnd::SetHeight
EXTRN	?GetNumFixedRenderFrame@ioWnd@@UBEHXZ:PROC	; ioWnd::GetNumFixedRenderFrame
EXTRN	?GetFixedRenderFrameType@ioWnd@@UAEPBDH@Z:PROC	; ioWnd::GetFixedRenderFrameType
EXTRN	?GetRenderFrame@ioWnd@@UAEPAPAVioUIRenderElement@@PBD@Z:PROC ; ioWnd::GetRenderFrame
EXTRN	?GetNumFixedRenderImage@ioWnd@@UBEHXZ:PROC	; ioWnd::GetNumFixedRenderImage
EXTRN	?GetFixedRenderImageType@ioWnd@@UAEPBDH@Z:PROC	; ioWnd::GetFixedRenderImageType
EXTRN	?GetRenderImage@ioWnd@@UAEPAPAVioUIRenderElement@@PBD@Z:PROC ; ioWnd::GetRenderImage
EXTRN	?AddEffect@ioWnd@@UAEXABVioHashString@@PAVioUI3DEffectRender@@@Z:PROC ; ioWnd::AddEffect
EXTRN	?GetEffect@ioWnd@@UAEPAVioUI3DEffectRender@@VioHashString@@@Z:PROC ; ioWnd::GetEffect
EXTRN	??_EHeroReinforceDoneWnd@@UAEPAXI@Z:PROC	; HeroReinforceDoneWnd::`vector deleting destructor'
;	COMDAT ??_R2ioWnd@@8
rdata$r	SEGMENT
??_R2ioWnd@@8 DD FLAT:??_R1A@?0A@EA@ioWnd@@8		; ioWnd::`RTTI Base Class Array'
rdata$r	ENDS
;	COMDAT ??_R3ioWnd@@8
rdata$r	SEGMENT
??_R3ioWnd@@8 DD 00H					; ioWnd::`RTTI Class Hierarchy Descriptor'
	DD	00H
	DD	01H
	DD	FLAT:??_R2ioWnd@@8
rdata$r	ENDS
;	COMDAT ??_R0?AVioWnd@@@8
_DATA	SEGMENT
??_R0?AVioWnd@@@8 DD FLAT:??_7type_info@@6B@		; ioWnd `RTTI Type Descriptor'
	DD	00H
	DB	'.?AVioWnd@@', 00H
_DATA	ENDS
;	COMDAT ??_R1A@?0A@EA@ioWnd@@8
rdata$r	SEGMENT
??_R1A@?0A@EA@ioWnd@@8 DD FLAT:??_R0?AVioWnd@@@8	; ioWnd::`RTTI Base Class Descriptor at (0,-1,0,64)'
	DD	00H
	DD	00H
	DD	0ffffffffH
	DD	00H
	DD	040H
	DD	FLAT:??_R3ioWnd@@8
rdata$r	ENDS
;	COMDAT ??_R1A@?0A@EA@HeroReinforceDoneWnd@@8
rdata$r	SEGMENT
??_R1A@?0A@EA@HeroReinforceDoneWnd@@8 DD FLAT:??_R0?AVHeroReinforceDoneWnd@@@8 ; HeroReinforceDoneWnd::`RTTI Base Class Descriptor at (0,-1,0,64)'
	DD	01H
	DD	00H
	DD	0ffffffffH
	DD	00H
	DD	040H
	DD	FLAT:??_R3HeroReinforceDoneWnd@@8
rdata$r	ENDS
;	COMDAT ??_R2HeroReinforceDoneWnd@@8
rdata$r	SEGMENT
??_R2HeroReinforceDoneWnd@@8 DD FLAT:??_R1A@?0A@EA@HeroReinforceDoneWnd@@8 ; HeroReinforceDoneWnd::`RTTI Base Class Array'
	DD	FLAT:??_R1A@?0A@EA@ioWnd@@8
rdata$r	ENDS
;	COMDAT ??_R3HeroReinforceDoneWnd@@8
rdata$r	SEGMENT
??_R3HeroReinforceDoneWnd@@8 DD 00H			; HeroReinforceDoneWnd::`RTTI Class Hierarchy Descriptor'
	DD	00H
	DD	02H
	DD	FLAT:??_R2HeroReinforceDoneWnd@@8
rdata$r	ENDS
;	COMDAT ??_R0?AVHeroReinforceDoneWnd@@@8
_DATA	SEGMENT
??_R0?AVHeroReinforceDoneWnd@@@8 DD FLAT:??_7type_info@@6B@ ; HeroReinforceDoneWnd `RTTI Type Descriptor'
	DD	00H
	DB	'.?AVHeroReinforceDoneWnd@@', 00H
_DATA	ENDS
;	COMDAT ??_R4HeroReinforceDoneWnd@@6B@
rdata$r	SEGMENT
??_R4HeroReinforceDoneWnd@@6B@ DD 00H			; HeroReinforceDoneWnd::`RTTI Complete Object Locator'
	DD	00H
	DD	00H
	DD	FLAT:??_R0?AVHeroReinforceDoneWnd@@@8
	DD	FLAT:??_R3HeroReinforceDoneWnd@@8
rdata$r	ENDS
;	COMDAT ??_7HeroReinforceDoneWnd@@6B@
CONST	SEGMENT
??_7HeroReinforceDoneWnd@@6B@ DD FLAT:??_R4HeroReinforceDoneWnd@@6B@ ; HeroReinforceDoneWnd::`vftable'
	DD	FLAT:?AddRenderFrame@ioWnd@@UAEXABVioHashString@@PAVioUIRenderFrame@@@Z
	DD	FLAT:?AddRenderImage@HeroReinforceDoneWnd@@UAEXABVioHashString@@PAVioUIRenderImage@@@Z
	DD	FLAT:?AddTooltipHelp@ioWnd@@UAEXABVioHashString@@00@Z
	DD	FLAT:?ParseExtraInfo@HeroReinforceDoneWnd@@UAEXAAVioXMLElement@@@Z
	DD	FLAT:?AddNamedRenderImage@ioWnd@@UAEXABVioHashString@@PAVioUIRenderImage@@@Z
	DD	FLAT:?RemoveNamedRenderImage@ioWnd@@UAEXABVioHashString@@@Z
	DD	FLAT:?GetNamedRenderImage@ioWnd@@UBEPAVioUIRenderImage@@ABVioHashString@@@Z
	DD	FLAT:?SetWindowAlpha@ioWnd@@UAEXH@Z
	DD	FLAT:?SetActive@ioWnd@@UAEXXZ
	DD	FLAT:?SetInActive@ioWnd@@UAEXXZ
	DD	FLAT:?ClearElementImageList@ioWnd@@UAEXXZ
	DD	FLAT:?SetSize@ioWnd@@UAEXHH@Z
	DD	FLAT:?SetPositionToDefault@ioWnd@@UAEXHH_N0@Z
	DD	FLAT:?IsNeedProcess@ioWnd@@UBE_NXZ
	DD	FLAT:?IsCanMouseReaction@ioWnd@@UBE_NXZ
	DD	FLAT:?AddChild@ioWnd@@UAEXPAV1@@Z
	DD	FLAT:?DeleteChild@ioWnd@@UAEXK@Z
	DD	FLAT:?DeleteAllChild@ioWnd@@UAEXXZ
	DD	FLAT:?OnRenderShowAndHide@ioWnd@@MAE_NXZ
	DD	FLAT:?OnRenderShowAndHideByDefault@ioWnd@@MAE_NK@Z
	DD	FLAT:?OnRenderShowAndHideByTop@ioWnd@@MAE_NK@Z
	DD	FLAT:?OnRenderShowAndHideByDown@ioWnd@@MAE_NK@Z
	DD	FLAT:?OnRender@HeroReinforceDoneWnd@@MAEXXZ
	DD	FLAT:?OnRenderAfterChild@HeroReinforceDoneWnd@@MAEXXZ
	DD	FLAT:?OnProcess@ioWnd@@MAEXM@Z
	DD	FLAT:?OnMouseProcess@ioWnd@@MAEXABVioMouse@@@Z
	DD	FLAT:?CheckFrameReSize@ioWnd@@MAEXHHHH@Z
	DD	FLAT:?RenderImageList@ioWnd@@MAEXHHW4UIRenderType@@@Z
	DD	FLAT:?iwm_create@ioWnd@@UAEXXZ
	DD	FLAT:?iwm_destroy@ioWnd@@UAEXXZ
	DD	FLAT:?iwm_lbuttondown@ioWnd@@UAEXABVioMouse@@@Z
	DD	FLAT:?iwm_lbuttonup@ioWnd@@UAEXABVioMouse@@@Z
	DD	FLAT:?iwm_lbuttonDBLCLK@ioWnd@@UAEXABVioMouse@@@Z
	DD	FLAT:?iwm_rbuttondown@ioWnd@@UAEXABVioMouse@@@Z
	DD	FLAT:?iwm_rbuttonup@ioWnd@@UAEXABVioMouse@@@Z
	DD	FLAT:?iwm_command@HeroReinforceDoneWnd@@UAEXPAVioWnd@@HK@Z
	DD	FLAT:?iwm_mouseover@ioWnd@@UAEXABVioMouse@@@Z
	DD	FLAT:?iwm_mousemove@ioWnd@@UAEXABVioMouse@@@Z
	DD	FLAT:?iwm_mouseleave@ioWnd@@UAEXABVioMouse@@@Z
	DD	FLAT:?iwm_vscroll@ioWnd@@UAEXKH@Z
	DD	FLAT:?iwm_wheel@ioWnd@@UAEXH@Z
	DD	FLAT:?iwm_show@HeroReinforceDoneWnd@@UAEXXZ
	DD	FLAT:?iwm_hide@HeroReinforceDoneWnd@@UAEXXZ
	DD	FLAT:?iwm_esc@ioWnd@@UAE_NXZ
	DD	FLAT:?iwm_spacebar@ioWnd@@UAE_NXZ
	DD	FLAT:?iwm_gototop@ioWnd@@UAEXXZ
	DD	FLAT:?iwm_dragenter@ioWnd@@UAE?AW4IWDropEffect@@PAVioDragItem@@ABVioMouse@@@Z
	DD	FLAT:?iwm_dragover@ioWnd@@UAE?AW4IWDropEffect@@PAVioDragItem@@ABVioMouse@@@Z
	DD	FLAT:?iwm_dragleave@ioWnd@@UAEXXZ
	DD	FLAT:?iwm_dropitem@ioWnd@@UAE_NPAVioDragItem@@ABVioMouse@@PAV1@@Z
	DD	FLAT:?iwm_dropdone@ioWnd@@UAEXPAVioDragItem@@PAV1@_N@Z
	DD	FLAT:?IsEXType@ioWnd@@UBE_NXZ
	DD	FLAT:?GetWndType@ioWnd@@UBEKXZ
	DD	FLAT:?RenderWnd@ioWnd@@UAEXXZ
	DD	FLAT:?SetIDEX@ioWnd@@UAEXAAK_N@Z
	DD	FLAT:?ParseXML@ioWnd@@UAEXAAVioXMLElement@@@Z
	DD	FLAT:?GetHeaderFileName@ioWnd@@UAEPBDXZ
	DD	FLAT:?GetTemplateName@ioWnd@@UAEPBDXZ
	DD	FLAT:?GetDefClassName@ioWnd@@UBEPBDXZ
	DD	FLAT:?_Clone@ioWnd@@UAEPAV1@XZ
	DD	FLAT:?Copy@ioWnd@@UAEXPAV1@@Z
	DD	FLAT:?Save@ioWnd@@UAE_NAAVioXMLElement@@@Z
	DD	FLAT:?SetSaveData@ioWnd@@UAEXAAVioXMLElement@@@Z
	DD	FLAT:?SetPosX@ioWnd@@UAEXH@Z
	DD	FLAT:?SetPosY@ioWnd@@UAEXH@Z
	DD	FLAT:?SetWidth@ioWnd@@UAEXH@Z
	DD	FLAT:?SetHeight@ioWnd@@UAEXH@Z
	DD	FLAT:?GetNumFixedRenderFrame@ioWnd@@UBEHXZ
	DD	FLAT:?GetFixedRenderFrameType@ioWnd@@UAEPBDH@Z
	DD	FLAT:?GetRenderFrame@ioWnd@@UAEPAPAVioUIRenderElement@@PBD@Z
	DD	FLAT:?GetNumFixedRenderImage@ioWnd@@UBEHXZ
	DD	FLAT:?GetFixedRenderImageType@ioWnd@@UAEPBDH@Z
	DD	FLAT:?GetRenderImage@ioWnd@@UAEPAPAVioUIRenderElement@@PBD@Z
	DD	FLAT:?AddEffect@ioWnd@@UAEXABVioHashString@@PAVioUI3DEffectRender@@@Z
	DD	FLAT:?GetEffect@ioWnd@@UAEPAVioUI3DEffectRender@@VioHashString@@@Z
	DD	FLAT:??_EHeroReinforceDoneWnd@@UAEPAXI@Z
CONST	ENDS
;	COMDAT xdata$x
xdata$x	SEGMENT
__ehfuncinfo$??1HeroReinforceDoneWnd@@UAE@XZ DD 019930522H
	DD	08H
	DD	FLAT:__unwindtable$??1HeroReinforceDoneWnd@@UAE@XZ
	DD	2 DUP(00H)
	DD	2 DUP(00H)
	DD	00H
	DD	01H
__unwindtable$??1HeroReinforceDoneWnd@@UAE@XZ DD 0ffffffffH
	DD	FLAT:__unwindfunclet$??1HeroReinforceDoneWnd@@UAE@XZ$0
	DD	00H
	DD	FLAT:__unwindfunclet$??1HeroReinforceDoneWnd@@UAE@XZ$1
	DD	01H
	DD	FLAT:__unwindfunclet$??1HeroReinforceDoneWnd@@UAE@XZ$2
	DD	02H
	DD	FLAT:__unwindfunclet$??1HeroReinforceDoneWnd@@UAE@XZ$3
	DD	03H
	DD	FLAT:__unwindfunclet$??1HeroReinforceDoneWnd@@UAE@XZ$4
	DD	04H
	DD	FLAT:__unwindfunclet$??1HeroReinforceDoneWnd@@UAE@XZ$5
	DD	05H
	DD	FLAT:__unwindfunclet$??1HeroReinforceDoneWnd@@UAE@XZ$6
	DD	06H
	DD	FLAT:__unwindfunclet$??1HeroReinforceDoneWnd@@UAE@XZ$7
; Function compile flags: /Ogsp
xdata$x	ENDS
;	COMDAT ??1HeroReinforceDoneWnd@@UAE@XZ
_TEXT	SEGMENT
_this$ = -16						; size = 4
__$EHRec$ = -12						; size = 12
??1HeroReinforceDoneWnd@@UAE@XZ PROC			; HeroReinforceDoneWnd::~HeroReinforceDoneWnd, COMDAT
; _this$ = ecx

; 310  : {

  00000	6a 04		 push	 4
  00002	b8 00 00 00 00	 mov	 eax, __ehhandler$??1HeroReinforceDoneWnd@@UAE@XZ
  00007	e8 00 00 00 00	 call	 __EH_prolog3
  0000c	8b f1		 mov	 esi, ecx
  0000e	89 75 f0	 mov	 DWORD PTR _this$[ebp], esi
  00011	c7 06 00 00 00
	00		 mov	 DWORD PTR [esi], OFFSET ??_7HeroReinforceDoneWnd@@6B@

; 311  : 	SAFEDELETE( m_pNameLine );

  00017	8b 8e 60 01 00
	00		 mov	 ecx, DWORD PTR [esi+352]
  0001d	c7 45 fc 07 00
	00 00		 mov	 DWORD PTR __$EHRec$[ebp+8], 7
  00024	85 c9		 test	 ecx, ecx
  00026	74 0e		 je	 SHORT $LN1@HeroReinfo
  00028	8b 01		 mov	 eax, DWORD PTR [ecx]
  0002a	6a 01		 push	 1
  0002c	ff 50 40	 call	 DWORD PTR [eax+64]
  0002f	83 a6 60 01 00
	00 00		 and	 DWORD PTR [esi+352], 0
$LN1@HeroReinfo:

; 312  : }

  00036	8b 3d 00 00 00
	00		 mov	 edi, DWORD PTR __imp_??1ioHashString@@QAE@XZ
  0003c	8d 8e 98 05 00
	00		 lea	 ecx, DWORD PTR [esi+1432]
  00042	c6 45 fc 06	 mov	 BYTE PTR __$EHRec$[ebp+8], 6
  00046	ff d7		 call	 edi
  00048	8d 8e 88 05 00
	00		 lea	 ecx, DWORD PTR [esi+1416]
  0004e	c6 45 fc 05	 mov	 BYTE PTR __$EHRec$[ebp+8], 5
  00052	ff d7		 call	 edi
  00054	8d 8e 68 05 00
	00		 lea	 ecx, DWORD PTR [esi+1384]
  0005a	c6 45 fc 04	 mov	 BYTE PTR __$EHRec$[ebp+8], 4
  0005e	e8 00 00 00 00	 call	 ??1ioComplexStringPrinter@@QAE@XZ ; ioComplexStringPrinter::~ioComplexStringPrinter
  00063	8d 8e 48 05 00
	00		 lea	 ecx, DWORD PTR [esi+1352]
  00069	c6 45 fc 03	 mov	 BYTE PTR __$EHRec$[ebp+8], 3
  0006d	e8 00 00 00 00	 call	 ??1ioComplexStringPrinter@@QAE@XZ ; ioComplexStringPrinter::~ioComplexStringPrinter
  00072	bf 00 00 00 00	 mov	 edi, OFFSET ??1ioComplexStringPrinter@@QAE@XZ ; ioComplexStringPrinter::~ioComplexStringPrinter
  00077	57		 push	 edi
  00078	6a 04		 push	 4
  0007a	6a 20		 push	 32			; 00000020H
  0007c	8d 86 c8 04 00
	00		 lea	 eax, DWORD PTR [esi+1224]
  00082	50		 push	 eax
  00083	c6 45 fc 02	 mov	 BYTE PTR __$EHRec$[ebp+8], 2
  00087	e8 00 00 00 00	 call	 ??_M@YGXPAXIHP6EX0@Z@Z
  0008c	57		 push	 edi
  0008d	6a 02		 push	 2
  0008f	6a 20		 push	 32			; 00000020H
  00091	8d 86 88 04 00
	00		 lea	 eax, DWORD PTR [esi+1160]
  00097	50		 push	 eax
  00098	c6 45 fc 01	 mov	 BYTE PTR __$EHRec$[ebp+8], 1
  0009c	e8 00 00 00 00	 call	 ??_M@YGXPAXIHP6EX0@Z@Z
  000a1	8d 8e 64 01 00
	00		 lea	 ecx, DWORD PTR [esi+356]
  000a7	c6 45 fc 00	 mov	 BYTE PTR __$EHRec$[ebp+8], 0
  000ab	e8 00 00 00 00	 call	 ??1CHARACTER@@QAE@XZ
  000b0	83 4d fc ff	 or	 DWORD PTR __$EHRec$[ebp+8], -1
  000b4	8b ce		 mov	 ecx, esi
  000b6	ff 15 00 00 00
	00		 call	 DWORD PTR __imp_??1ioWnd@@UAE@XZ
  000bc	e8 00 00 00 00	 call	 __EH_epilog3
  000c1	c3		 ret	 0
_TEXT	ENDS
;	COMDAT text$x
text$x	SEGMENT
__unwindfunclet$??1HeroReinforceDoneWnd@@UAE@XZ$0:
  00000	8b 4d f0	 mov	 ecx, DWORD PTR _this$[ebp]
  00003	ff 25 00 00 00
	00		 jmp	 DWORD PTR __imp_??1ioWnd@@UAE@XZ
__unwindfunclet$??1HeroReinforceDoneWnd@@UAE@XZ$1:
  00009	8b 4d f0	 mov	 ecx, DWORD PTR _this$[ebp]
  0000c	81 c1 64 01 00
	00		 add	 ecx, 356		; 00000164H
  00012	e9 00 00 00 00	 jmp	 ??1CHARACTER@@QAE@XZ
__unwindfunclet$??1HeroReinforceDoneWnd@@UAE@XZ$2:
  00017	68 00 00 00 00	 push	 OFFSET ??1ioComplexStringPrinter@@QAE@XZ ; ioComplexStringPrinter::~ioComplexStringPrinter
  0001c	6a 02		 push	 2
  0001e	6a 20		 push	 32			; 00000020H
  00020	8b 45 f0	 mov	 eax, DWORD PTR _this$[ebp]
  00023	05 88 04 00 00	 add	 eax, 1160		; 00000488H
  00028	50		 push	 eax
  00029	e8 00 00 00 00	 call	 ??_M@YGXPAXIHP6EX0@Z@Z
  0002e	c3		 ret	 0
__unwindfunclet$??1HeroReinforceDoneWnd@@UAE@XZ$3:
  0002f	68 00 00 00 00	 push	 OFFSET ??1ioComplexStringPrinter@@QAE@XZ ; ioComplexStringPrinter::~ioComplexStringPrinter
  00034	6a 04		 push	 4
  00036	6a 20		 push	 32			; 00000020H
  00038	8b 45 f0	 mov	 eax, DWORD PTR _this$[ebp]
  0003b	05 c8 04 00 00	 add	 eax, 1224		; 000004c8H
  00040	50		 push	 eax
  00041	e8 00 00 00 00	 call	 ??_M@YGXPAXIHP6EX0@Z@Z
  00046	c3		 ret	 0
__unwindfunclet$??1HeroReinforceDoneWnd@@UAE@XZ$4:
  00047	8b 4d f0	 mov	 ecx, DWORD PTR _this$[ebp]
  0004a	81 c1 48 05 00
	00		 add	 ecx, 1352		; 00000548H
  00050	e9 00 00 00 00	 jmp	 ??1ioComplexStringPrinter@@QAE@XZ ; ioComplexStringPrinter::~ioComplexStringPrinter
__unwindfunclet$??1HeroReinforceDoneWnd@@UAE@XZ$5:
  00055	8b 4d f0	 mov	 ecx, DWORD PTR _this$[ebp]
  00058	81 c1 68 05 00
	00		 add	 ecx, 1384		; 00000568H
  0005e	e9 00 00 00 00	 jmp	 ??1ioComplexStringPrinter@@QAE@XZ ; ioComplexStringPrinter::~ioComplexStringPrinter
__unwindfunclet$??1HeroReinforceDoneWnd@@UAE@XZ$6:
  00063	8b 4d f0	 mov	 ecx, DWORD PTR _this$[ebp]
  00066	81 c1 88 05 00
	00		 add	 ecx, 1416		; 00000588H
  0006c	ff 25 00 00 00
	00		 jmp	 DWORD PTR __imp_??1ioHashString@@QAE@XZ
__unwindfunclet$??1HeroReinforceDoneWnd@@UAE@XZ$7:
  00072	8b 4d f0	 mov	 ecx, DWORD PTR _this$[ebp]
  00075	81 c1 98 05 00
	00		 add	 ecx, 1432		; 00000598H
  0007b	ff 25 00 00 00
	00		 jmp	 DWORD PTR __imp_??1ioHashString@@QAE@XZ
__ehhandler$??1HeroReinforceDoneWnd@@UAE@XZ:
  00081	8b 54 24 08	 mov	 edx, DWORD PTR [esp+8]
  00085	8d 42 0c	 lea	 eax, DWORD PTR [edx+12]
  00088	8b 4a ec	 mov	 ecx, DWORD PTR [edx-20]
  0008b	33 c8		 xor	 ecx, eax
  0008d	e8 00 00 00 00	 call	 @__security_check_cookie@4
  00092	b8 00 00 00 00	 mov	 eax, OFFSET __ehfuncinfo$??1HeroReinforceDoneWnd@@UAE@XZ
  00097	e9 00 00 00 00	 jmp	 ___CxxFrameHandler3
text$x	ENDS
??1HeroReinforceDoneWnd@@UAE@XZ ENDP			; HeroReinforceDoneWnd::~HeroReinforceDoneWnd
PUBLIC	_this$GSCopy$
PUBLIC	__$ArrayPad$
; Function compile flags: /Ogsp
;	COMDAT ?AddRenderImage@HeroReinforceDoneWnd@@UAEXABVioHashString@@PAVioUIRenderImage@@@Z
_TEXT	SEGMENT
_this$GSCopy$ = -24					; size = 4
__t$518781 = -20					; size = 9
__$ArrayPad$ = -4					; size = 4
_szType$ = 8						; size = 4
_pImage$ = 12						; size = 4
?AddRenderImage@HeroReinforceDoneWnd@@UAEXABVioHashString@@PAVioUIRenderImage@@@Z PROC ; HeroReinforceDoneWnd::AddRenderImage, COMDAT
; _this$ = ecx

; 315  : {

  00000	55		 push	 ebp
  00001	8b ec		 mov	 ebp, esp
  00003	83 ec 18	 sub	 esp, 24			; 00000018H
  00006	a1 00 00 00 00	 mov	 eax, DWORD PTR ___security_cookie
  0000b	33 c5		 xor	 eax, ebp
  0000d	89 45 fc	 mov	 DWORD PTR __$ArrayPad$[ebp], eax
  00010	53		 push	 ebx
  00011	8b 5d 0c	 mov	 ebx, DWORD PTR _pImage$[ebp]
  00014	56		 push	 esi
  00015	57		 push	 edi
  00016	8b 7d 08	 mov	 edi, DWORD PTR _szType$[ebp]

; 316  : 	if( szType == "NameLine" )

  00019	6a 02		 push	 2
  0001b	89 4d e8	 mov	 DWORD PTR _this$GSCopy$[ebp], ecx
  0001e	c7 45 ec a3 8d
	86 8f		 mov	 DWORD PTR __t$518781[ebp], -1887007325 ; 8f868da3H
  00025	c7 45 f0 a1 85
	85 8f		 mov	 DWORD PTR __t$518781[ebp+4], -1887074911 ; 8f8585a1H
  0002c	8d 45 ec	 lea	 eax, DWORD PTR __t$518781[ebp]
  0002f	c6 45 f4 00	 mov	 BYTE PTR __t$518781[ebp+8], 0
  00033	59		 pop	 ecx
$LL111@AddRenderI@2:
  00034	81 30 ed ec eb
	ea		 xor	 DWORD PTR [eax], -353637139 ; eaebecedH
  0003a	83 c0 04	 add	 eax, 4
  0003d	49		 dec	 ecx
  0003e	75 f4		 jne	 SHORT $LL111@AddRenderI@2
  00040	8b cf		 mov	 ecx, edi
  00042	8d 75 ec	 lea	 esi, DWORD PTR __t$518781[ebp]
  00045	ff 15 00 00 00
	00		 call	 DWORD PTR __imp_?c_str@ioHashString@@QBEPBDXZ
$LL118@AddRenderI@2:
  0004b	8a 08		 mov	 cl, BYTE PTR [eax]
  0004d	3a 0e		 cmp	 cl, BYTE PTR [esi]
  0004f	75 1a		 jne	 SHORT $LN119@AddRenderI@2
  00051	84 c9		 test	 cl, cl
  00053	74 12		 je	 SHORT $LN120@AddRenderI@2
  00055	8a 48 01	 mov	 cl, BYTE PTR [eax+1]
  00058	3a 4e 01	 cmp	 cl, BYTE PTR [esi+1]
  0005b	75 0e		 jne	 SHORT $LN119@AddRenderI@2
  0005d	83 c0 02	 add	 eax, 2
  00060	83 c6 02	 add	 esi, 2
  00063	84 c9		 test	 cl, cl
  00065	75 e4		 jne	 SHORT $LL118@AddRenderI@2
$LN120@AddRenderI@2:
  00067	33 c0		 xor	 eax, eax
  00069	eb 05		 jmp	 SHORT $LN121@AddRenderI@2
$LN119@AddRenderI@2:
  0006b	1b c0		 sbb	 eax, eax
  0006d	83 d8 ff	 sbb	 eax, -1
$LN121@AddRenderI@2:
  00070	85 c0		 test	 eax, eax
  00072	75 23		 jne	 SHORT $LN3@AddRenderI@2

; 317  : 	{
; 318  : 		SAFEDELETE( m_pNameLine );

  00074	8b 75 e8	 mov	 esi, DWORD PTR _this$GSCopy$[ebp]
  00077	8b 8e 60 01 00
	00		 mov	 ecx, DWORD PTR [esi+352]
  0007d	85 c9		 test	 ecx, ecx
  0007f	74 0e		 je	 SHORT $LN2@AddRenderI@2
  00081	8b 01		 mov	 eax, DWORD PTR [ecx]
  00083	6a 01		 push	 1
  00085	ff 50 40	 call	 DWORD PTR [eax+64]
  00088	83 a6 60 01 00
	00 00		 and	 DWORD PTR [esi+352], 0
$LN2@AddRenderI@2:

; 319  : 		m_pNameLine = pImage;

  0008f	89 9e 60 01 00
	00		 mov	 DWORD PTR [esi+352], ebx

; 320  : 	}
; 321  : 	else

  00095	eb 0b		 jmp	 SHORT $LN1@AddRenderI@2
$LN3@AddRenderI@2:

; 322  : 		ioWnd::AddRenderImage( szType, pImage );

  00097	8b 4d e8	 mov	 ecx, DWORD PTR _this$GSCopy$[ebp]
  0009a	53		 push	 ebx
  0009b	57		 push	 edi
  0009c	ff 15 00 00 00
	00		 call	 DWORD PTR __imp_?AddRenderImage@ioWnd@@UAEXABVioHashString@@PAVioUIRenderImage@@@Z
$LN1@AddRenderI@2:

; 323  : }

  000a2	8b 4d fc	 mov	 ecx, DWORD PTR __$ArrayPad$[ebp]
  000a5	5f		 pop	 edi
  000a6	5e		 pop	 esi
  000a7	33 cd		 xor	 ecx, ebp
  000a9	5b		 pop	 ebx
  000aa	e8 00 00 00 00	 call	 @__security_check_cookie@4
  000af	c9		 leave
  000b0	c2 08 00	 ret	 8
?AddRenderImage@HeroReinforceDoneWnd@@UAEXABVioHashString@@PAVioUIRenderImage@@@Z ENDP ; HeroReinforceDoneWnd::AddRenderImage
_TEXT	ENDS
PUBLIC	??_C@_0O@JCECJCN@success_sound?$AA@		; `string'
PUBLIC	??_C@_0P@FFKPDIKM@powerup_effect?$AA@		; `string'
PUBLIC	_xElement$GSCopy$
PUBLIC	__$ArrayPad$
EXTRN	__imp_??4ioHashString@@QAEAAV0@PBD@Z:PROC
EXTRN	__imp_?GetStringAttribute@ioXMLElement@@QBEPBDPBD@Z:PROC
EXTRN	__imp_?ParseExtraInfo@ioWnd@@UAEXAAVioXMLElement@@@Z:PROC
EXTRN	_memset:PROC
;	COMDAT ??_C@_0O@JCECJCN@success_sound?$AA@
CONST	SEGMENT
??_C@_0O@JCECJCN@success_sound?$AA@ DB 'success_sound', 00H ; `string'
CONST	ENDS
;	COMDAT ??_C@_0P@FFKPDIKM@powerup_effect?$AA@
CONST	SEGMENT
??_C@_0P@FFKPDIKM@powerup_effect?$AA@ DB 'powerup_effect', 00H ; `string'
; Function compile flags: /Ogsp
CONST	ENDS
;	COMDAT ?ParseExtraInfo@HeroReinforceDoneWnd@@UAEXAAVioXMLElement@@@Z
_TEXT	SEGMENT
_xElement$GSCopy$ = -268				; size = 4
_szKeyName$ = -264					; size = 260
__$ArrayPad$ = -4					; size = 4
_xElement$ = 8						; size = 4
?ParseExtraInfo@HeroReinforceDoneWnd@@UAEXAAVioXMLElement@@@Z PROC ; HeroReinforceDoneWnd::ParseExtraInfo, COMDAT
; _this$ = ecx

; 326  : {

  00000	55		 push	 ebp
  00001	8b ec		 mov	 ebp, esp
  00003	81 ec 0c 01 00
	00		 sub	 esp, 268		; 0000010cH
  00009	a1 00 00 00 00	 mov	 eax, DWORD PTR ___security_cookie
  0000e	33 c5		 xor	 eax, ebp
  00010	89 45 fc	 mov	 DWORD PTR __$ArrayPad$[ebp], eax
  00013	53		 push	 ebx
  00014	8b 5d 08	 mov	 ebx, DWORD PTR _xElement$[ebp]
  00017	56		 push	 esi
  00018	57		 push	 edi

; 327  : 	ioWnd::ParseExtraInfo( xElement );

  00019	53		 push	 ebx
  0001a	8b f9		 mov	 edi, ecx
  0001c	89 9d f4 fe ff
	ff		 mov	 DWORD PTR _xElement$GSCopy$[ebp], ebx
  00022	ff 15 00 00 00
	00		 call	 DWORD PTR __imp_?ParseExtraInfo@ioWnd@@UAEXAAVioXMLElement@@@Z

; 328  : 	char szKeyName[MAX_PATH]="";
; 329  : 	ZeroMemory( szKeyName, sizeof( szKeyName ) );

  00028	be 04 01 00 00	 mov	 esi, 260		; 00000104H
  0002d	56		 push	 esi
  0002e	8d 85 f8 fe ff
	ff		 lea	 eax, DWORD PTR _szKeyName$[ebp]
  00034	6a 00		 push	 0
  00036	50		 push	 eax
  00037	e8 00 00 00 00	 call	 _memset

; 330  : 	StringCbPrintf( szKeyName, sizeof( szKeyName ), "powerup_effect" );

  0003c	68 00 00 00 00	 push	 OFFSET ??_C@_0P@FFKPDIKM@powerup_effect?$AA@
  00041	8d 85 f8 fe ff
	ff		 lea	 eax, DWORD PTR _szKeyName$[ebp]
  00047	56		 push	 esi
  00048	50		 push	 eax
  00049	e8 00 00 00 00	 call	 ?StringCbPrintfA@@YAJPADIPBDZZ ; StringCbPrintfA
  0004e	83 c4 18	 add	 esp, 24			; 00000018H

; 331  : 	m_szEffectName = xElement.GetStringAttribute( szKeyName );

  00051	8d 85 f8 fe ff
	ff		 lea	 eax, DWORD PTR _szKeyName$[ebp]
  00057	8b cb		 mov	 ecx, ebx
  00059	8b 1d 00 00 00
	00		 mov	 ebx, DWORD PTR __imp_?GetStringAttribute@ioXMLElement@@QBEPBDPBD@Z
  0005f	50		 push	 eax
  00060	ff d3		 call	 ebx
  00062	50		 push	 eax
  00063	8d 8f 88 05 00
	00		 lea	 ecx, DWORD PTR [edi+1416]
  00069	ff 15 00 00 00
	00		 call	 DWORD PTR __imp_??4ioHashString@@QAEAAV0@PBD@Z

; 332  : 
; 333  : 	ZeroMemory( szKeyName, sizeof( szKeyName ) );

  0006f	56		 push	 esi
  00070	8d 85 f8 fe ff
	ff		 lea	 eax, DWORD PTR _szKeyName$[ebp]
  00076	6a 00		 push	 0
  00078	50		 push	 eax
  00079	e8 00 00 00 00	 call	 _memset

; 334  : 	StringCbPrintf( szKeyName, sizeof( szKeyName ), "success_sound" );

  0007e	68 00 00 00 00	 push	 OFFSET ??_C@_0O@JCECJCN@success_sound?$AA@
  00083	8d 85 f8 fe ff
	ff		 lea	 eax, DWORD PTR _szKeyName$[ebp]
  00089	56		 push	 esi
  0008a	50		 push	 eax
  0008b	e8 00 00 00 00	 call	 ?StringCbPrintfA@@YAJPADIPBDZZ ; StringCbPrintfA

; 335  : 	m_szSuccessSound = xElement.GetStringAttribute( szKeyName );

  00090	8b 8d f4 fe ff
	ff		 mov	 ecx, DWORD PTR _xElement$GSCopy$[ebp]
  00096	83 c4 18	 add	 esp, 24			; 00000018H
  00099	8d 85 f8 fe ff
	ff		 lea	 eax, DWORD PTR _szKeyName$[ebp]
  0009f	50		 push	 eax
  000a0	ff d3		 call	 ebx
  000a2	50		 push	 eax
  000a3	8d 8f 98 05 00
	00		 lea	 ecx, DWORD PTR [edi+1432]
  000a9	ff 15 00 00 00
	00		 call	 DWORD PTR __imp_??4ioHashString@@QAEAAV0@PBD@Z

; 336  : }

  000af	8b 4d fc	 mov	 ecx, DWORD PTR __$ArrayPad$[ebp]
  000b2	5f		 pop	 edi
  000b3	5e		 pop	 esi
  000b4	33 cd		 xor	 ecx, ebp
  000b6	5b		 pop	 ebx
  000b7	e8 00 00 00 00	 call	 @__security_check_cookie@4
  000bc	c9		 leave
  000bd	c2 04 00	 ret	 4
?ParseExtraInfo@HeroReinforceDoneWnd@@UAEXAAVioXMLElement@@@Z ENDP ; HeroReinforceDoneWnd::ParseExtraInfo
; Function compile flags: /Ogsp
_TEXT	ENDS
;	COMDAT ?OnRender@HeroReinforceDoneWnd@@MAEXXZ
_TEXT	SEGMENT
_nYPos$ = -16						; size = 4
_nXPos$ = -12						; size = 4
_i$516256 = -8						; size = 4
tv344 = -4						; size = 4
?OnRender@HeroReinforceDoneWnd@@MAEXXZ PROC		; HeroReinforceDoneWnd::OnRender, COMDAT
; _this$ = ecx

; 470  : {

  00000	55		 push	 ebp
  00001	8b ec		 mov	 ebp, esp
  00003	83 ec 10	 sub	 esp, 16			; 00000010H
  00006	53		 push	 ebx
  00007	56		 push	 esi
  00008	57		 push	 edi
  00009	8b f1		 mov	 esi, ecx

; 471  : 	ioWnd::OnRender();

  0000b	ff 15 00 00 00
	00		 call	 DWORD PTR __imp_?OnRender@ioWnd@@MAEXXZ

; 472  : 
; 473  : 	int nXPos = GetDerivedPosX();

  00011	8b ce		 mov	 ecx, esi
  00013	ff 15 00 00 00
	00		 call	 DWORD PTR __imp_?GetDerivedPosX@ioWnd@@QBEHXZ

; 474  : 	int nYPos = GetDerivedPosY();

  00019	8b ce		 mov	 ecx, esi
  0001b	89 45 f4	 mov	 DWORD PTR _nXPos$[ebp], eax
  0001e	ff 15 00 00 00
	00		 call	 DWORD PTR __imp_?GetDerivedPosY@ioWnd@@QBEHXZ

; 475  : 
; 476  : 	enum 
; 477  : 	{	
; 478  : 		SOLDIER_REINFORCED_INFO_OFFSET_X = 34,
; 479  : 		SOLDIER_REINFORCED_INFO_OFFSET_Y = 323,
; 480  : 		SOLDIER_REINFORCED_LINE_GAP	   = 21,
; 481  : 
; 482  : 		SOULSTONE_OFFSET_X = 128,
; 483  : 		SOULSTONE_OFFSET_Y = 407,
; 484  : 
; 485  : 		REINFORCED_OFFSET_X = 128,
; 486  : 		REINFORCED_OFFSET_Y = 424,
; 487  : 	};
; 488  : 
; 489  : 	for( int i=0; i < REINFORCED_SOLDIER_INFO_CNT; ++i )

  00024	83 65 f8 00	 and	 DWORD PTR _i$516256[ebp], 0
  00028	89 45 f0	 mov	 DWORD PTR _nYPos$[ebp], eax
  0002b	05 43 01 00 00	 add	 eax, 323		; 00000143H
  00030	89 45 fc	 mov	 DWORD PTR tv344[ebp], eax
  00033	8d 9e d4 04 00
	00		 lea	 ebx, DWORD PTR [esi+1236]
  00039	bf ff 00 00 00	 mov	 edi, 255		; 000000ffH
$LL24@OnRender@2:

; 490  : 	{
; 491  : 		if( m_ReinforcedSoldierInfo[i].IsEmpty() )

  0003e	8b 03		 mov	 eax, DWORD PTR [ebx]
  00040	3b 43 04	 cmp	 eax, DWORD PTR [ebx+4]
  00043	74 3d		 je	 SHORT $LN22@OnRender@2

; 492  : 			break;
; 493  : 
; 494  : 		m_ReinforcedSoldierInfo[i].PrintFullText( nXPos+SOLDIER_REINFORCED_INFO_OFFSET_X, nYPos+SOLDIER_REINFORCED_INFO_OFFSET_Y+(SOLDIER_REINFORCED_LINE_GAP*i), TAT_LEFT );

  00045	66 0f 6e 45 fc	 movd	 xmm0, DWORD PTR tv344[ebp]
  0004a	8b 45 f4	 mov	 eax, DWORD PTR _nXPos$[ebp]
  0004d	57		 push	 edi
  0004e	6a 00		 push	 0
  00050	51		 push	 ecx
  00051	51		 push	 ecx
  00052	0f 5b c0	 cvtdq2ps xmm0, xmm0
  00055	f3 0f 11 44 24
	04		 movss	 DWORD PTR [esp+4], xmm0
  0005b	83 c0 22	 add	 eax, 34			; 00000022H
  0005e	0f 57 c0	 xorps	 xmm0, xmm0
  00061	f3 0f 2a c0	 cvtsi2ss xmm0, eax
  00065	8d 4b f4	 lea	 ecx, DWORD PTR [ebx-12]
  00068	f3 0f 11 04 24	 movss	 DWORD PTR [esp], xmm0
  0006d	e8 00 00 00 00	 call	 ?PrintFullText@ioComplexStringPrinter@@QAEXMMW4TextAlignType@@E@Z ; ioComplexStringPrinter::PrintFullText
  00072	ff 45 f8	 inc	 DWORD PTR _i$516256[ebp]
  00075	83 45 fc 15	 add	 DWORD PTR tv344[ebp], 21 ; 00000015H
  00079	83 c3 20	 add	 ebx, 32			; 00000020H
  0007c	83 7d f8 04	 cmp	 DWORD PTR _i$516256[ebp], 4
  00080	7c bc		 jl	 SHORT $LL24@OnRender@2
$LN22@OnRender@2:

; 495  : 	}
; 496  : 
; 497  : 	if ( !m_SoulStonePrinter.IsEmpty() )

  00082	8b 8e 54 05 00
	00		 mov	 ecx, DWORD PTR [esi+1364]
  00088	3b 8e 58 05 00
	00		 cmp	 ecx, DWORD PTR [esi+1368]
  0008e	74 37		 je	 SHORT $LN25@OnRender@2

; 498  : 		m_SoulStonePrinter.PrintFullText( nXPos+SOULSTONE_OFFSET_X, nYPos+SOULSTONE_OFFSET_Y, TAT_CENTER );

  00090	8b 45 f0	 mov	 eax, DWORD PTR _nYPos$[ebp]
  00093	57		 push	 edi
  00094	6a 01		 push	 1
  00096	05 97 01 00 00	 add	 eax, 407		; 00000197H
  0009b	0f 57 c0	 xorps	 xmm0, xmm0
  0009e	f3 0f 2a c0	 cvtsi2ss xmm0, eax
  000a2	8b 45 f4	 mov	 eax, DWORD PTR _nXPos$[ebp]
  000a5	51		 push	 ecx
  000a6	51		 push	 ecx
  000a7	f3 0f 11 44 24
	04		 movss	 DWORD PTR [esp+4], xmm0
  000ad	83 e8 80	 sub	 eax, -128		; ffffff80H
  000b0	0f 57 c0	 xorps	 xmm0, xmm0
  000b3	f3 0f 2a c0	 cvtsi2ss xmm0, eax
  000b7	8d 8e 48 05 00
	00		 lea	 ecx, DWORD PTR [esi+1352]
  000bd	f3 0f 11 04 24	 movss	 DWORD PTR [esp], xmm0
  000c2	e8 00 00 00 00	 call	 ?PrintFullText@ioComplexStringPrinter@@QAEXMMW4TextAlignType@@E@Z ; ioComplexStringPrinter::PrintFullText
$LN25@OnRender@2:

; 499  : 
; 500  : 	if ( !m_ReinforcedPrinter.IsEmpty() )

  000c7	8b 8e 74 05 00
	00		 mov	 ecx, DWORD PTR [esi+1396]
  000cd	3b 8e 78 05 00
	00		 cmp	 ecx, DWORD PTR [esi+1400]
  000d3	74 37		 je	 SHORT $LN1@OnRender@2

; 501  : 		m_ReinforcedPrinter.PrintFullText( nXPos+REINFORCED_OFFSET_X, nYPos+REINFORCED_OFFSET_Y, TAT_CENTER );

  000d5	8b 45 f0	 mov	 eax, DWORD PTR _nYPos$[ebp]
  000d8	57		 push	 edi
  000d9	6a 01		 push	 1
  000db	05 a8 01 00 00	 add	 eax, 424		; 000001a8H
  000e0	0f 57 c0	 xorps	 xmm0, xmm0
  000e3	f3 0f 2a c0	 cvtsi2ss xmm0, eax
  000e7	8b 45 f4	 mov	 eax, DWORD PTR _nXPos$[ebp]
  000ea	51		 push	 ecx
  000eb	51		 push	 ecx
  000ec	f3 0f 11 44 24
	04		 movss	 DWORD PTR [esp+4], xmm0
  000f2	83 e8 80	 sub	 eax, -128		; ffffff80H
  000f5	0f 57 c0	 xorps	 xmm0, xmm0
  000f8	f3 0f 2a c0	 cvtsi2ss xmm0, eax
  000fc	8d 8e 68 05 00
	00		 lea	 ecx, DWORD PTR [esi+1384]
  00102	f3 0f 11 04 24	 movss	 DWORD PTR [esp], xmm0
  00107	e8 00 00 00 00	 call	 ?PrintFullText@ioComplexStringPrinter@@QAEXMMW4TextAlignType@@E@Z ; ioComplexStringPrinter::PrintFullText
$LN1@OnRender@2:
  0010c	5f		 pop	 edi
  0010d	5e		 pop	 esi
  0010e	5b		 pop	 ebx

; 502  : 
; 503  : }

  0010f	c9		 leave
  00110	c3		 ret	 0
?OnRender@HeroReinforceDoneWnd@@MAEXXZ ENDP		; HeroReinforceDoneWnd::OnRender
; Function compile flags: /Ogsp
_TEXT	ENDS
;	COMDAT ?OnRenderAfterChild@HeroReinforceDoneWnd@@MAEXXZ
_TEXT	SEGMENT
_i$516275 = -8						; size = 4
tv268 = -4						; size = 4
?OnRenderAfterChild@HeroReinforceDoneWnd@@MAEXXZ PROC	; HeroReinforceDoneWnd::OnRenderAfterChild, COMDAT
; _this$ = ecx

; 506  : {

  00000	55		 push	 ebp
  00001	8b ec		 mov	 ebp, esp
  00003	51		 push	 ecx
  00004	51		 push	 ecx
  00005	53		 push	 ebx
  00006	56		 push	 esi
  00007	57		 push	 edi
  00008	8b f9		 mov	 edi, ecx

; 507  : 	int nXPos = GetDerivedPosX();

  0000a	ff 15 00 00 00
	00		 call	 DWORD PTR __imp_?GetDerivedPosX@ioWnd@@QBEHXZ

; 508  : 	int nYPos = GetDerivedPosY();

  00010	8b cf		 mov	 ecx, edi
  00012	8b d8		 mov	 ebx, eax
  00014	ff 15 00 00 00
	00		 call	 DWORD PTR __imp_?GetDerivedPosY@ioWnd@@QBEHXZ

; 509  : 
; 510  : 	enum 
; 511  : 	{	
; 512  : 		LINE_OFFSET_X = 28, 
; 513  : 		LINE_OFFSET_Y = 288,
; 514  : 
; 515  : 		SOLDIER_INFO_OFFSET_X = 128,
; 516  : 		SOLDIER_INFO_OFFSET_Y = 285,
; 517  : 		SOLDIER_LINE_GAP	   = 16,
; 518  : 	};
; 519  : 	if ( !m_pNameLine ) return;

  0001a	33 d2		 xor	 edx, edx
  0001c	8b f0		 mov	 esi, eax
  0001e	39 97 60 01 00
	00		 cmp	 DWORD PTR [edi+352], edx
  00024	0f 84 8d 00 00
	00		 je	 $LN13@OnRenderAf@2

; 520  : 
; 521  : 	m_pNameLine->Render( nXPos+LINE_OFFSET_X, nYPos+LINE_OFFSET_Y );

  0002a	8b 8f 60 01 00
	00		 mov	 ecx, DWORD PTR [edi+352]
  00030	8b 01		 mov	 eax, DWORD PTR [ecx]
  00032	52		 push	 edx
  00033	52		 push	 edx
  00034	52		 push	 edx
  00035	52		 push	 edx
  00036	0f 57 c0	 xorps	 xmm0, xmm0
  00039	51		 push	 ecx
  0003a	8d 96 20 01 00
	00		 lea	 edx, DWORD PTR [esi+288]
  00040	f3 0f 2a c2	 cvtsi2ss xmm0, edx
  00044	51		 push	 ecx
  00045	f3 0f 11 44 24
	04		 movss	 DWORD PTR [esp+4], xmm0
  0004b	8d 53 1c	 lea	 edx, DWORD PTR [ebx+28]
  0004e	0f 57 c0	 xorps	 xmm0, xmm0
  00051	f3 0f 2a c2	 cvtsi2ss xmm0, edx
  00055	f3 0f 11 04 24	 movss	 DWORD PTR [esp], xmm0
  0005a	ff 10		 call	 DWORD PTR [eax]

; 522  : 
; 523  : 	for( int i=0; i < HeroReinforceDoneWnd::SOLDIER_INFO_CNT; ++i )

  0005c	83 65 f8 00	 and	 DWORD PTR _i$516275[ebp], 0
  00060	81 c6 1d 01 00
	00		 add	 esi, 285		; 0000011dH
  00066	89 75 fc	 mov	 DWORD PTR tv268[ebp], esi
  00069	8d b7 94 04 00
	00		 lea	 esi, DWORD PTR [edi+1172]
$LL15@OnRenderAf@2:

; 524  : 	{
; 525  : 		if( m_SoldierInfo[i].IsEmpty() )

  0006f	8b 06		 mov	 eax, DWORD PTR [esi]
  00071	3b 46 04	 cmp	 eax, DWORD PTR [esi+4]
  00074	74 41		 je	 SHORT $LN13@OnRenderAf@2

; 526  : 			break;
; 527  : 
; 528  : 		m_SoldierInfo[i].PrintFullText( nXPos+SOLDIER_INFO_OFFSET_X, nYPos+SOLDIER_INFO_OFFSET_Y+(SOLDIER_LINE_GAP*i), TAT_CENTER );

  00076	66 0f 6e 45 fc	 movd	 xmm0, DWORD PTR tv268[ebp]
  0007b	68 ff 00 00 00	 push	 255			; 000000ffH
  00080	6a 01		 push	 1
  00082	51		 push	 ecx
  00083	51		 push	 ecx
  00084	0f 5b c0	 cvtdq2ps xmm0, xmm0
  00087	f3 0f 11 44 24
	04		 movss	 DWORD PTR [esp+4], xmm0
  0008d	8d 83 80 00 00
	00		 lea	 eax, DWORD PTR [ebx+128]
  00093	0f 57 c0	 xorps	 xmm0, xmm0
  00096	f3 0f 2a c0	 cvtsi2ss xmm0, eax
  0009a	8d 4e f4	 lea	 ecx, DWORD PTR [esi-12]
  0009d	f3 0f 11 04 24	 movss	 DWORD PTR [esp], xmm0
  000a2	e8 00 00 00 00	 call	 ?PrintFullText@ioComplexStringPrinter@@QAEXMMW4TextAlignType@@E@Z ; ioComplexStringPrinter::PrintFullText
  000a7	ff 45 f8	 inc	 DWORD PTR _i$516275[ebp]
  000aa	83 45 fc 10	 add	 DWORD PTR tv268[ebp], 16 ; 00000010H
  000ae	83 c6 20	 add	 esi, 32			; 00000020H
  000b1	83 7d f8 02	 cmp	 DWORD PTR _i$516275[ebp], 2
  000b5	7c b8		 jl	 SHORT $LL15@OnRenderAf@2
$LN13@OnRenderAf@2:
  000b7	5f		 pop	 edi
  000b8	5e		 pop	 esi
  000b9	5b		 pop	 ebx

; 529  : 	}
; 530  : }

  000ba	c9		 leave
  000bb	c3		 ret	 0
?OnRenderAfterChild@HeroReinforceDoneWnd@@MAEXXZ ENDP	; HeroReinforceDoneWnd::OnRenderAfterChild
_TEXT	ENDS
PUBLIC	?Init@CHARACTER@@QAEXXZ				; CHARACTER::Init
; Function compile flags: /Ogsp
; File d:\lost saga for developer\youtube\tutorial\source\src\lsclient\characterinfo.h
;	COMDAT ?Init@CHARACTER@@QAEXXZ
_TEXT	SEGMENT
_value$518988 = -12					; size = 4
tv151 = -8						; size = 4
_value$518984 = -8					; size = 4
_value$518980 = -8					; size = 4
_value$518976 = -8					; size = 4
_value$518972 = -8					; size = 4
_value$518968 = -8					; size = 4
_value$518965 = -8					; size = 4
_value$518961 = -8					; size = 4
_value$518957 = -8					; size = 4
_value$518953 = -8					; size = 4
_value$518949 = -8					; size = 4
tv307 = -4						; size = 4
?Init@CHARACTER@@QAEXXZ PROC				; CHARACTER::Init, COMDAT
; _this$ = ecx

; 350  : 	{

  00000	55		 push	 ebp
  00001	8b ec		 mov	 ebp, esp
  00003	83 ec 0c	 sub	 esp, 12			; 0000000cH
  00006	53		 push	 ebx
  00007	56		 push	 esi
  00008	57		 push	 edi

; 351  : 		m_class_type	    = 0;

  00009	8d 45 f8	 lea	 eax, DWORD PTR _value$518949[ebp]
  0000c	33 ff		 xor	 edi, edi
  0000e	50		 push	 eax
  0000f	8b f1		 mov	 esi, ecx
  00011	89 7d f8	 mov	 DWORD PTR _value$518949[ebp], edi
  00014	e8 00 00 00 00	 call	 ?EncryptValueToPool@?$CEncrypt@H@@AAEXPBD@Z ; CEncrypt<int>::EncryptValueToPool

; 352  : 		m_kindred			= 1;

  00019	33 db		 xor	 ebx, ebx
  0001b	8d 45 f8	 lea	 eax, DWORD PTR _value$518953[ebp]
  0001e	43		 inc	 ebx
  0001f	50		 push	 eax
  00020	8d 4e 30	 lea	 ecx, DWORD PTR [esi+48]
  00023	89 5d f8	 mov	 DWORD PTR _value$518953[ebp], ebx
  00026	e8 00 00 00 00	 call	 ?EncryptValueToPool@?$CEncrypt@H@@AAEXPBD@Z ; CEncrypt<int>::EncryptValueToPool

; 353  : 		m_sex				= 1;

  0002b	8d 45 f8	 lea	 eax, DWORD PTR _value$518957[ebp]
  0002e	50		 push	 eax
  0002f	8d 4e 60	 lea	 ecx, DWORD PTR [esi+96]
  00032	89 5d f8	 mov	 DWORD PTR _value$518957[ebp], ebx
  00035	e8 00 00 00 00	 call	 ?EncryptValueToPool@?$CEncrypt@H@@AAEXPBD@Z ; CEncrypt<int>::EncryptValueToPool

; 354  : 		m_beard				= 1;

  0003a	8d 45 f8	 lea	 eax, DWORD PTR _value$518961[ebp]
  0003d	50		 push	 eax
  0003e	8d 8e 90 00 00
	00		 lea	 ecx, DWORD PTR [esi+144]
  00044	89 5d f8	 mov	 DWORD PTR _value$518961[ebp], ebx
  00047	e8 00 00 00 00	 call	 ?EncryptValueToPool@?$CEncrypt@H@@AAEXPBD@Z ; CEncrypt<int>::EncryptValueToPool

; 355  : 		m_face				= 1;

  0004c	8d 45 f8	 lea	 eax, DWORD PTR _value$518965[ebp]
  0004f	50		 push	 eax
  00050	8d 8e c0 00 00
	00		 lea	 ecx, DWORD PTR [esi+192]
  00056	89 5d f8	 mov	 DWORD PTR _value$518965[ebp], ebx
  00059	e8 00 00 00 00	 call	 ?EncryptValueToPool@?$CEncrypt@H@@AAEXPBD@Z ; CEncrypt<int>::EncryptValueToPool

; 356  : 		m_hair				= 1;

  0005e	8d 45 f8	 lea	 eax, DWORD PTR _value$518968[ebp]
  00061	50		 push	 eax
  00062	8d 8e f0 00 00
	00		 lea	 ecx, DWORD PTR [esi+240]
  00068	89 5d f8	 mov	 DWORD PTR _value$518968[ebp], ebx
  0006b	e8 00 00 00 00	 call	 ?EncryptValueToPool@?$CEncrypt@H@@AAEXPBD@Z ; CEncrypt<int>::EncryptValueToPool

; 357  : 		m_skin_color		= 1;

  00070	8d 45 f8	 lea	 eax, DWORD PTR _value$518972[ebp]
  00073	50		 push	 eax
  00074	8d 8e 20 01 00
	00		 lea	 ecx, DWORD PTR [esi+288]
  0007a	89 5d f8	 mov	 DWORD PTR _value$518972[ebp], ebx
  0007d	e8 00 00 00 00	 call	 ?EncryptValueToPool@?$CEncrypt@H@@AAEXPBD@Z ; CEncrypt<int>::EncryptValueToPool

; 358  : 		m_hair_color		= 1;

  00082	8d 45 f8	 lea	 eax, DWORD PTR _value$518976[ebp]
  00085	50		 push	 eax
  00086	8d 8e 50 01 00
	00		 lea	 ecx, DWORD PTR [esi+336]
  0008c	89 5d f8	 mov	 DWORD PTR _value$518976[ebp], ebx
  0008f	e8 00 00 00 00	 call	 ?EncryptValueToPool@?$CEncrypt@H@@AAEXPBD@Z ; CEncrypt<int>::EncryptValueToPool

; 359  : 		m_accessories		= 1;

  00094	8d 45 f8	 lea	 eax, DWORD PTR _value$518980[ebp]
  00097	50		 push	 eax
  00098	8d 8e 80 01 00
	00		 lea	 ecx, DWORD PTR [esi+384]
  0009e	89 5d f8	 mov	 DWORD PTR _value$518980[ebp], ebx
  000a1	e8 00 00 00 00	 call	 ?EncryptValueToPool@?$CEncrypt@H@@AAEXPBD@Z ; CEncrypt<int>::EncryptValueToPool

; 360  : 		m_underwear			= 1;

  000a6	8d 45 f8	 lea	 eax, DWORD PTR _value$518984[ebp]
  000a9	50		 push	 eax
  000aa	8d 8e b0 01 00
	00		 lea	 ecx, DWORD PTR [esi+432]
  000b0	89 5d f8	 mov	 DWORD PTR _value$518984[ebp], ebx
  000b3	e8 00 00 00 00	 call	 ?EncryptValueToPool@?$CEncrypt@H@@AAEXPBD@Z ; CEncrypt<int>::EncryptValueToPool
  000b8	8d 86 e0 01 00
	00		 lea	 eax, DWORD PTR [esi+480]
  000be	89 45 fc	 mov	 DWORD PTR tv307[ebp], eax
  000c1	c7 45 f8 04 00
	00 00		 mov	 DWORD PTR tv151[ebp], 4
$LL44@Init@2:

; 361  : 
; 362  : 		for(int i = 0; i < MAX_INVENTORY ; i++ )
; 363  : 			m_extra_item[i]	= 0;

  000c8	8b 4d fc	 mov	 ecx, DWORD PTR tv307[ebp]
  000cb	8d 45 f4	 lea	 eax, DWORD PTR _value$518988[ebp]
  000ce	50		 push	 eax
  000cf	89 7d f4	 mov	 DWORD PTR _value$518988[ebp], edi
  000d2	e8 00 00 00 00	 call	 ?EncryptValueToPool@?$CEncrypt@H@@AAEXPBD@Z ; CEncrypt<int>::EncryptValueToPool
  000d7	83 45 fc 30	 add	 DWORD PTR tv307[ebp], 48 ; 00000030H
  000db	ff 4d f8	 dec	 DWORD PTR tv151[ebp]
  000de	75 e8		 jne	 SHORT $LL44@Init@2

; 364  : 
; 365  : 		m_iSlotIndex		= -1;

  000e0	83 8e a0 02 00
	00 ff		 or	 DWORD PTR [esi+672], -1

; 366  : 		m_iLimitSecond		= 0;
; 367  : 
; 368  : 		m_sLeaderType		= CLT_GENERAL;

  000e7	33 c0		 xor	 eax, eax
  000e9	6a 04		 push	 4
  000eb	66 89 86 a8 02
	00 00		 mov	 WORD PTR [esi+680], ax

; 369  : 		m_sRentalType		= CRT_GENERAL;

  000f2	66 89 86 aa 02
	00 00		 mov	 WORD PTR [esi+682], ax

; 370  : 		m_dwRentalMinute	= 0;
; 371  : 		m_ePeriodType		= CPT_TIME;
; 372  : 
; 373  : 		m_bActive			= true;
; 374  : 		m_chExerciseStyle	= 0x00;

  000f9	66 89 86 b5 02
	00 00		 mov	 WORD PTR [esi+693], ax

; 375  : 
; 376  : 		m_iAwakeType		= AWAKE_NONE;
; 377  : 		m_iAwakeLimitTime	= 0;
; 378  : 
; 379  : 		m_eCharPowerUpType = PUGT_NONE;

  00100	88 86 bc 02 00
	00		 mov	 BYTE PTR [esi+700], al
  00106	89 be a4 02 00
	00		 mov	 DWORD PTR [esi+676], edi
  0010c	89 be ac 02 00
	00		 mov	 DWORD PTR [esi+684], edi
  00112	89 be b0 02 00
	00		 mov	 DWORD PTR [esi+688], edi
  00118	88 9e b4 02 00
	00		 mov	 BYTE PTR [esi+692], bl
  0011e	89 be b8 02 00
	00		 mov	 DWORD PTR [esi+696], edi
  00124	8d 86 c8 02 00
	00		 lea	 eax, DWORD PTR [esi+712]
  0012a	59		 pop	 ecx
$LL6@Init@2:

; 380  : 
; 381  : 		for(int i = 0; i < MAX_INVENTORY ; i++ )
; 382  : 			m_EquipCostume[i].Init();

  0012b	89 78 f8	 mov	 DWORD PTR [eax-8], edi
  0012e	89 78 fc	 mov	 DWORD PTR [eax-4], edi
  00131	89 38		 mov	 DWORD PTR [eax], edi
  00133	89 78 04	 mov	 DWORD PTR [eax+4], edi
  00136	83 c0 10	 add	 eax, 16			; 00000010H
  00139	49		 dec	 ecx
  0013a	75 ef		 jne	 SHORT $LL6@Init@2

; 383  : 		for(int i = 0; i < MAX_ACC_INVENTORY ; i++ )

  0013c	6a 03		 push	 3
  0013e	81 c6 08 03 00
	00		 add	 esi, 776		; 00000308H
  00144	58		 pop	 eax
$LL3@Init@2:

; 384  : 			m_EquipAccessory[i].Init();

  00145	89 7e f8	 mov	 DWORD PTR [esi-8], edi
  00148	89 7e fc	 mov	 DWORD PTR [esi-4], edi
  0014b	89 3e		 mov	 DWORD PTR [esi], edi
  0014d	83 c6 0c	 add	 esi, 12			; 0000000cH
  00150	48		 dec	 eax
  00151	75 f2		 jne	 SHORT $LL3@Init@2
  00153	5f		 pop	 edi
  00154	5e		 pop	 esi
  00155	5b		 pop	 ebx

; 385  : 	}

  00156	c9		 leave
  00157	c3		 ret	 0
?Init@CHARACTER@@QAEXXZ ENDP				; CHARACTER::Init
_TEXT	ENDS
PUBLIC	??4CHARACTER@@QAEAAU0@ABU0@@Z			; CHARACTER::operator=
; Function compile flags: /Ogsp
;	COMDAT ??4CHARACTER@@QAEAAU0@ABU0@@Z
_TEXT	SEGMENT
_value$519114 = -12					; size = 4
_value$519109 = -8					; size = 4
tv153 = -4						; size = 4
tv447 = 8						; size = 4
_value$519104 = 8					; size = 4
_value$519099 = 8					; size = 4
_value$519094 = 8					; size = 4
_value$519089 = 8					; size = 4
_value$519084 = 8					; size = 4
_value$519079 = 8					; size = 4
_value$519074 = 8					; size = 4
_value$519069 = 8					; size = 4
_value$519064 = 8					; size = 4
_value$519059 = 8					; size = 4
_value$519054 = 8					; size = 4
_value$519049 = 8					; size = 4
_value$519044 = 8					; size = 4
_value$519039 = 8					; size = 4
_value$519034 = 8					; size = 4
_value$519029 = 8					; size = 4
_value$519024 = 8					; size = 4
_value$519019 = 8					; size = 4
_value$519014 = 8					; size = 4
_value$519009 = 8					; size = 4
_rhs$ = 8						; size = 4
??4CHARACTER@@QAEAAU0@ABU0@@Z PROC			; CHARACTER::operator=, COMDAT
; _this$ = ecx

; 388  : 	{

  00000	55		 push	 ebp
  00001	8b ec		 mov	 ebp, esp
  00003	83 ec 0c	 sub	 esp, 12			; 0000000cH
  00006	53		 push	 ebx
  00007	56		 push	 esi

; 389  : 		m_class_type		= rhs.m_class_type;

  00008	8b 75 08	 mov	 esi, DWORD PTR _rhs$[ebp]
  0000b	57		 push	 edi
  0000c	8d 45 08	 lea	 eax, DWORD PTR _value$519009[ebp]
  0000f	8b d9		 mov	 ebx, ecx
  00011	50		 push	 eax
  00012	8b ce		 mov	 ecx, esi
  00014	e8 00 00 00 00	 call	 ?DecryptValueToPool@?$CEncrypt@H@@QAEXPAH@Z ; CEncrypt<int>::DecryptValueToPool
  00019	8b 45 08	 mov	 eax, DWORD PTR _value$519009[ebp]
  0001c	89 45 08	 mov	 DWORD PTR _value$519014[ebp], eax
  0001f	8d 45 08	 lea	 eax, DWORD PTR _value$519014[ebp]
  00022	50		 push	 eax
  00023	8b cb		 mov	 ecx, ebx
  00025	e8 00 00 00 00	 call	 ?EncryptValueToPool@?$CEncrypt@H@@AAEXPBD@Z ; CEncrypt<int>::EncryptValueToPool

; 390  : 		m_kindred			= rhs.m_kindred;

  0002a	8d 45 08	 lea	 eax, DWORD PTR _value$519019[ebp]
  0002d	50		 push	 eax
  0002e	8d 4e 30	 lea	 ecx, DWORD PTR [esi+48]
  00031	e8 00 00 00 00	 call	 ?DecryptValueToPool@?$CEncrypt@H@@QAEXPAH@Z ; CEncrypt<int>::DecryptValueToPool
  00036	8b 45 08	 mov	 eax, DWORD PTR _value$519019[ebp]
  00039	89 45 08	 mov	 DWORD PTR _value$519024[ebp], eax
  0003c	8d 45 08	 lea	 eax, DWORD PTR _value$519024[ebp]
  0003f	50		 push	 eax
  00040	8d 4b 30	 lea	 ecx, DWORD PTR [ebx+48]
  00043	e8 00 00 00 00	 call	 ?EncryptValueToPool@?$CEncrypt@H@@AAEXPBD@Z ; CEncrypt<int>::EncryptValueToPool

; 391  : 		m_sex				= rhs.m_sex;

  00048	8d 45 08	 lea	 eax, DWORD PTR _value$519029[ebp]
  0004b	50		 push	 eax
  0004c	8d 4e 60	 lea	 ecx, DWORD PTR [esi+96]
  0004f	e8 00 00 00 00	 call	 ?DecryptValueToPool@?$CEncrypt@H@@QAEXPAH@Z ; CEncrypt<int>::DecryptValueToPool
  00054	8b 45 08	 mov	 eax, DWORD PTR _value$519029[ebp]
  00057	89 45 08	 mov	 DWORD PTR _value$519034[ebp], eax
  0005a	8d 45 08	 lea	 eax, DWORD PTR _value$519034[ebp]
  0005d	50		 push	 eax
  0005e	8d 4b 60	 lea	 ecx, DWORD PTR [ebx+96]
  00061	e8 00 00 00 00	 call	 ?EncryptValueToPool@?$CEncrypt@H@@AAEXPBD@Z ; CEncrypt<int>::EncryptValueToPool

; 392  : 		m_beard				= rhs.m_beard;

  00066	8d 45 08	 lea	 eax, DWORD PTR _value$519039[ebp]
  00069	50		 push	 eax
  0006a	8d 8e 90 00 00
	00		 lea	 ecx, DWORD PTR [esi+144]
  00070	e8 00 00 00 00	 call	 ?DecryptValueToPool@?$CEncrypt@H@@QAEXPAH@Z ; CEncrypt<int>::DecryptValueToPool
  00075	8b 45 08	 mov	 eax, DWORD PTR _value$519039[ebp]
  00078	89 45 08	 mov	 DWORD PTR _value$519044[ebp], eax
  0007b	8d 45 08	 lea	 eax, DWORD PTR _value$519044[ebp]
  0007e	50		 push	 eax
  0007f	8d 8b 90 00 00
	00		 lea	 ecx, DWORD PTR [ebx+144]
  00085	e8 00 00 00 00	 call	 ?EncryptValueToPool@?$CEncrypt@H@@AAEXPBD@Z ; CEncrypt<int>::EncryptValueToPool

; 393  : 		m_face				= rhs.m_face;

  0008a	8d 45 08	 lea	 eax, DWORD PTR _value$519049[ebp]
  0008d	50		 push	 eax
  0008e	8d 8e c0 00 00
	00		 lea	 ecx, DWORD PTR [esi+192]
  00094	e8 00 00 00 00	 call	 ?DecryptValueToPool@?$CEncrypt@H@@QAEXPAH@Z ; CEncrypt<int>::DecryptValueToPool
  00099	8b 45 08	 mov	 eax, DWORD PTR _value$519049[ebp]
  0009c	89 45 08	 mov	 DWORD PTR _value$519054[ebp], eax
  0009f	8d 45 08	 lea	 eax, DWORD PTR _value$519054[ebp]
  000a2	50		 push	 eax
  000a3	8d 8b c0 00 00
	00		 lea	 ecx, DWORD PTR [ebx+192]
  000a9	e8 00 00 00 00	 call	 ?EncryptValueToPool@?$CEncrypt@H@@AAEXPBD@Z ; CEncrypt<int>::EncryptValueToPool

; 394  : 		m_hair				= rhs.m_hair;

  000ae	8d 45 08	 lea	 eax, DWORD PTR _value$519059[ebp]
  000b1	50		 push	 eax
  000b2	8d 8e f0 00 00
	00		 lea	 ecx, DWORD PTR [esi+240]
  000b8	e8 00 00 00 00	 call	 ?DecryptValueToPool@?$CEncrypt@H@@QAEXPAH@Z ; CEncrypt<int>::DecryptValueToPool
  000bd	8b 45 08	 mov	 eax, DWORD PTR _value$519059[ebp]
  000c0	89 45 08	 mov	 DWORD PTR _value$519064[ebp], eax
  000c3	8d 45 08	 lea	 eax, DWORD PTR _value$519064[ebp]
  000c6	50		 push	 eax
  000c7	8d 8b f0 00 00
	00		 lea	 ecx, DWORD PTR [ebx+240]
  000cd	e8 00 00 00 00	 call	 ?EncryptValueToPool@?$CEncrypt@H@@AAEXPBD@Z ; CEncrypt<int>::EncryptValueToPool

; 395  : 		m_skin_color		= rhs.m_skin_color;

  000d2	8d 45 08	 lea	 eax, DWORD PTR _value$519069[ebp]
  000d5	50		 push	 eax
  000d6	8d 8e 20 01 00
	00		 lea	 ecx, DWORD PTR [esi+288]
  000dc	e8 00 00 00 00	 call	 ?DecryptValueToPool@?$CEncrypt@H@@QAEXPAH@Z ; CEncrypt<int>::DecryptValueToPool
  000e1	8b 45 08	 mov	 eax, DWORD PTR _value$519069[ebp]
  000e4	89 45 08	 mov	 DWORD PTR _value$519074[ebp], eax
  000e7	8d 45 08	 lea	 eax, DWORD PTR _value$519074[ebp]
  000ea	50		 push	 eax
  000eb	8d 8b 20 01 00
	00		 lea	 ecx, DWORD PTR [ebx+288]
  000f1	e8 00 00 00 00	 call	 ?EncryptValueToPool@?$CEncrypt@H@@AAEXPBD@Z ; CEncrypt<int>::EncryptValueToPool

; 396  : 		m_hair_color		= rhs.m_hair_color;

  000f6	8d 45 08	 lea	 eax, DWORD PTR _value$519079[ebp]
  000f9	50		 push	 eax
  000fa	8d 8e 50 01 00
	00		 lea	 ecx, DWORD PTR [esi+336]
  00100	e8 00 00 00 00	 call	 ?DecryptValueToPool@?$CEncrypt@H@@QAEXPAH@Z ; CEncrypt<int>::DecryptValueToPool
  00105	8b 45 08	 mov	 eax, DWORD PTR _value$519079[ebp]
  00108	89 45 08	 mov	 DWORD PTR _value$519084[ebp], eax
  0010b	8d 45 08	 lea	 eax, DWORD PTR _value$519084[ebp]
  0010e	50		 push	 eax
  0010f	8d 8b 50 01 00
	00		 lea	 ecx, DWORD PTR [ebx+336]
  00115	e8 00 00 00 00	 call	 ?EncryptValueToPool@?$CEncrypt@H@@AAEXPBD@Z ; CEncrypt<int>::EncryptValueToPool

; 397  : 		m_accessories		= rhs.m_accessories;

  0011a	8d 45 08	 lea	 eax, DWORD PTR _value$519089[ebp]
  0011d	50		 push	 eax
  0011e	8d 8e 80 01 00
	00		 lea	 ecx, DWORD PTR [esi+384]
  00124	e8 00 00 00 00	 call	 ?DecryptValueToPool@?$CEncrypt@H@@QAEXPAH@Z ; CEncrypt<int>::DecryptValueToPool
  00129	8b 45 08	 mov	 eax, DWORD PTR _value$519089[ebp]
  0012c	89 45 08	 mov	 DWORD PTR _value$519094[ebp], eax
  0012f	8d 45 08	 lea	 eax, DWORD PTR _value$519094[ebp]
  00132	50		 push	 eax
  00133	8d 8b 80 01 00
	00		 lea	 ecx, DWORD PTR [ebx+384]
  00139	e8 00 00 00 00	 call	 ?EncryptValueToPool@?$CEncrypt@H@@AAEXPBD@Z ; CEncrypt<int>::EncryptValueToPool

; 398  : 		m_underwear			= rhs.m_underwear;

  0013e	8d 45 08	 lea	 eax, DWORD PTR _value$519099[ebp]
  00141	50		 push	 eax
  00142	8d 8e b0 01 00
	00		 lea	 ecx, DWORD PTR [esi+432]
  00148	e8 00 00 00 00	 call	 ?DecryptValueToPool@?$CEncrypt@H@@QAEXPAH@Z ; CEncrypt<int>::DecryptValueToPool
  0014d	8b 45 08	 mov	 eax, DWORD PTR _value$519099[ebp]
  00150	89 45 08	 mov	 DWORD PTR _value$519104[ebp], eax
  00153	8d 45 08	 lea	 eax, DWORD PTR _value$519104[ebp]
  00156	50		 push	 eax
  00157	8d 8b b0 01 00
	00		 lea	 ecx, DWORD PTR [ebx+432]
  0015d	e8 00 00 00 00	 call	 ?EncryptValueToPool@?$CEncrypt@H@@AAEXPBD@Z ; CEncrypt<int>::EncryptValueToPool

; 399  : 
; 400  : 		for( int i = 0; i < MAX_INVENTORY ; i++ )

  00162	89 75 08	 mov	 DWORD PTR tv447[ebp], esi
  00165	29 5d 08	 sub	 DWORD PTR tv447[ebp], ebx
  00168	8d bb e0 01 00
	00		 lea	 edi, DWORD PTR [ebx+480]
  0016e	c7 45 fc 04 00
	00 00		 mov	 DWORD PTR tv153[ebp], 4
$LL63@operator@2:

; 401  : 			m_extra_item[i]	= rhs.m_extra_item[i];

  00175	8b 4d 08	 mov	 ecx, DWORD PTR tv447[ebp]
  00178	8d 45 f8	 lea	 eax, DWORD PTR _value$519109[ebp]
  0017b	50		 push	 eax
  0017c	8d 0c 39	 lea	 ecx, DWORD PTR [ecx+edi]
  0017f	e8 00 00 00 00	 call	 ?DecryptValueToPool@?$CEncrypt@H@@QAEXPAH@Z ; CEncrypt<int>::DecryptValueToPool
  00184	8b 45 f8	 mov	 eax, DWORD PTR _value$519109[ebp]
  00187	89 45 f4	 mov	 DWORD PTR _value$519114[ebp], eax
  0018a	8d 45 f4	 lea	 eax, DWORD PTR _value$519114[ebp]
  0018d	50		 push	 eax
  0018e	8b cf		 mov	 ecx, edi
  00190	e8 00 00 00 00	 call	 ?EncryptValueToPool@?$CEncrypt@H@@AAEXPBD@Z ; CEncrypt<int>::EncryptValueToPool
  00195	83 c7 30	 add	 edi, 48			; 00000030H
  00198	ff 4d fc	 dec	 DWORD PTR tv153[ebp]
  0019b	75 d8		 jne	 SHORT $LL63@operator@2

; 402  : 
; 403  : 		m_iSlotIndex		= rhs.m_iSlotIndex;

  0019d	8b 86 a0 02 00
	00		 mov	 eax, DWORD PTR [esi+672]
  001a3	89 83 a0 02 00
	00		 mov	 DWORD PTR [ebx+672], eax

; 404  : 		m_iLimitSecond		= rhs.m_iLimitSecond;

  001a9	8b 86 a4 02 00
	00		 mov	 eax, DWORD PTR [esi+676]
  001af	89 83 a4 02 00
	00		 mov	 DWORD PTR [ebx+676], eax

; 405  : 
; 406  : 		m_sLeaderType		= rhs.m_sLeaderType;

  001b5	66 8b 86 a8 02
	00 00		 mov	 ax, WORD PTR [esi+680]
  001bc	66 89 83 a8 02
	00 00		 mov	 WORD PTR [ebx+680], ax

; 407  : 		m_sRentalType		= rhs.m_sRentalType;

  001c3	66 8b 86 aa 02
	00 00		 mov	 ax, WORD PTR [esi+682]
  001ca	66 89 83 aa 02
	00 00		 mov	 WORD PTR [ebx+682], ax

; 408  : 		m_dwRentalMinute	= rhs.m_dwRentalMinute;

  001d1	8b 86 ac 02 00
	00		 mov	 eax, DWORD PTR [esi+684]
  001d7	89 83 ac 02 00
	00		 mov	 DWORD PTR [ebx+684], eax

; 409  : 		m_ePeriodType		= rhs.m_ePeriodType;

  001dd	8b 86 b0 02 00
	00		 mov	 eax, DWORD PTR [esi+688]
  001e3	89 83 b0 02 00
	00		 mov	 DWORD PTR [ebx+688], eax

; 410  : 
; 411  : 		m_bActive			= rhs.m_bActive;

  001e9	8a 86 b4 02 00
	00		 mov	 al, BYTE PTR [esi+692]
  001ef	88 83 b4 02 00
	00		 mov	 BYTE PTR [ebx+692], al

; 412  : 		m_chExerciseStyle	= rhs.m_chExerciseStyle;

  001f5	8a 86 b5 02 00
	00		 mov	 al, BYTE PTR [esi+693]
  001fb	88 83 b5 02 00
	00		 mov	 BYTE PTR [ebx+693], al

; 413  : 
; 414  : 		m_iAwakeType		= rhs.m_iAwakeType;

  00201	8a 86 b6 02 00
	00		 mov	 al, BYTE PTR [esi+694]
  00207	88 83 b6 02 00
	00		 mov	 BYTE PTR [ebx+694], al

; 415  : 		m_iAwakeLimitTime	= rhs.m_iAwakeLimitTime;

  0020d	8b 86 b8 02 00
	00		 mov	 eax, DWORD PTR [esi+696]
  00213	89 83 b8 02 00
	00		 mov	 DWORD PTR [ebx+696], eax

; 416  : 
; 417  : 		m_eCharPowerUpType = rhs.m_eCharPowerUpType;

  00219	8a 86 bc 02 00
	00		 mov	 al, BYTE PTR [esi+700]
  0021f	6a 04		 push	 4
  00221	88 83 bc 02 00
	00		 mov	 BYTE PTR [ebx+700], al
  00227	8d 83 c0 02 00
	00		 lea	 eax, DWORD PTR [ebx+704]
  0022d	59		 pop	 ecx
$LL62@operator@2:

; 418  : 
; 419  : 		for(int i = 0; i < MAX_INVENTORY ; i++ )
; 420  : 			m_EquipCostume[i] = rhs.m_EquipCostume[i];

  0022e	8b 55 08	 mov	 edx, DWORD PTR tv447[ebp]
  00231	8d 34 10	 lea	 esi, DWORD PTR [eax+edx]
  00234	8b f8		 mov	 edi, eax
  00236	a5		 movsd
  00237	a5		 movsd
  00238	a5		 movsd
  00239	83 c0 10	 add	 eax, 16			; 00000010H
  0023c	49		 dec	 ecx
  0023d	a5		 movsd
  0023e	75 ee		 jne	 SHORT $LL62@operator@2

; 421  : 		for(int i = 0; i < MAX_ACC_INVENTORY ; i++ )

  00240	6a 03		 push	 3
  00242	8d 83 00 03 00
	00		 lea	 eax, DWORD PTR [ebx+768]
  00248	59		 pop	 ecx
$LL3@operator@2:

; 422  : 			m_EquipAccessory[i] = rhs.m_EquipAccessory[i];

  00249	8b 55 08	 mov	 edx, DWORD PTR tv447[ebp]
  0024c	8d 34 10	 lea	 esi, DWORD PTR [eax+edx]
  0024f	8b f8		 mov	 edi, eax
  00251	a5		 movsd
  00252	a5		 movsd
  00253	83 c0 0c	 add	 eax, 12			; 0000000cH
  00256	49		 dec	 ecx
  00257	a5		 movsd
  00258	75 ef		 jne	 SHORT $LL3@operator@2

; 423  : 
; 424  : 		return *this;

  0025a	5f		 pop	 edi
  0025b	5e		 pop	 esi
  0025c	8b c3		 mov	 eax, ebx
  0025e	5b		 pop	 ebx

; 425  : 	}

  0025f	c9		 leave
  00260	c2 04 00	 ret	 4
??4CHARACTER@@QAEAAU0@ABU0@@Z ENDP			; CHARACTER::operator=
_TEXT	ENDS
PUBLIC	?GetModeType@ioPlayMode@@SA?AW4ModeType@@XZ	; ioPlayMode::GetModeType
EXTRN	?m_ModeType@ioPlayMode@@1V?$CEncrypt@W4ModeType@@@@A:BYTE ; ioPlayMode::m_ModeType
; Function compile flags: /Ogsp
; File d:\lost saga for developer\youtube\tutorial\source\src\lsclient\ioplaymode.h
;	COMDAT ?GetModeType@ioPlayMode@@SA?AW4ModeType@@XZ
_TEXT	SEGMENT
?GetModeType@ioPlayMode@@SA?AW4ModeType@@XZ PROC	; ioPlayMode::GetModeType, COMDAT

; 782  : 	static ModeType GetModeType() { return m_ModeType; }

  00000	6a 04		 push	 4
  00002	68 28 00 00 00	 push	 OFFSET ?m_ModeType@ioPlayMode@@1V?$CEncrypt@W4ModeType@@@@A+40
  00007	68 1c 00 00 00	 push	 OFFSET ?m_ModeType@ioPlayMode@@1V?$CEncrypt@W4ModeType@@@@A+28
  0000c	b9 0c 00 00 00	 mov	 ecx, OFFSET ?m_ModeType@ioPlayMode@@1V?$CEncrypt@W4ModeType@@@@A+12
  00011	e8 00 00 00 00	 call	 ?DecryptByte@ccddaabb@@QBEXPBDPADH@Z ; ccddaabb::DecryptByte
  00016	a1 28 00 00 00	 mov	 eax, DWORD PTR ?m_ModeType@ioPlayMode@@1V?$CEncrypt@W4ModeType@@@@A+40
  0001b	c3		 ret	 0
?GetModeType@ioPlayMode@@SA?AW4ModeType@@XZ ENDP	; ioPlayMode::GetModeType
_TEXT	ENDS
PUBLIC	??_R0?AVioPlayMode@@@8				; ioPlayMode `RTTI Type Descriptor'
PUBLIC	??_R0?AVioMyRoomMode@@@8			; ioMyRoomMode `RTTI Type Descriptor'
PUBLIC	?ToMyRoomMode@@YAPAVioMyRoomMode@@PAVioPlayMode@@@Z ; ToMyRoomMode
EXTRN	___RTDynamicCast:PROC
;	COMDAT ??_R0?AVioPlayMode@@@8
; File d:\lost saga for developer\youtube\tutorial\source\src\lsclient\iomyroommode.h
_DATA	SEGMENT
??_R0?AVioPlayMode@@@8 DD FLAT:??_7type_info@@6B@	; ioPlayMode `RTTI Type Descriptor'
	DD	00H
	DB	'.?AVioPlayMode@@', 00H
_DATA	ENDS
;	COMDAT ??_R0?AVioMyRoomMode@@@8
_DATA	SEGMENT
??_R0?AVioMyRoomMode@@@8 DD FLAT:??_7type_info@@6B@	; ioMyRoomMode `RTTI Type Descriptor'
	DD	00H
	DB	'.?AVioMyRoomMode@@', 00H
; Function compile flags: /Ogsp
_DATA	ENDS
;	COMDAT ?ToMyRoomMode@@YAPAVioMyRoomMode@@PAVioPlayMode@@@Z
_TEXT	SEGMENT
_pMode$ = 8						; size = 4
?ToMyRoomMode@@YAPAVioMyRoomMode@@PAVioPlayMode@@@Z PROC ; ToMyRoomMode, COMDAT

; 202  : {

  00000	55		 push	 ebp
  00001	8b ec		 mov	 ebp, esp

; 203  : 	if( !pMode || pMode->GetModeType() != MT_MYROOM )

  00003	83 7d 08 00	 cmp	 DWORD PTR _pMode$[ebp], 0
  00007	74 25		 je	 SHORT $LN1@ToMyRoomMo
  00009	e8 00 00 00 00	 call	 ?GetModeType@ioPlayMode@@SA?AW4ModeType@@XZ ; ioPlayMode::GetModeType
  0000e	83 f8 18	 cmp	 eax, 24			; 00000018H
  00011	75 1b		 jne	 SHORT $LN1@ToMyRoomMo

; 205  : 
; 206  : 	return dynamic_cast< ioMyRoomMode* >( pMode );

  00013	6a 00		 push	 0
  00015	68 00 00 00 00	 push	 OFFSET ??_R0?AVioMyRoomMode@@@8
  0001a	68 00 00 00 00	 push	 OFFSET ??_R0?AVioPlayMode@@@8
  0001f	6a 00		 push	 0
  00021	ff 75 08	 push	 DWORD PTR _pMode$[ebp]
  00024	e8 00 00 00 00	 call	 ___RTDynamicCast
  00029	83 c4 14	 add	 esp, 20			; 00000014H

; 207  : }

  0002c	5d		 pop	 ebp
  0002d	c3		 ret	 0
$LN1@ToMyRoomMo:

; 204  : 		return NULL;

  0002e	33 c0		 xor	 eax, eax

; 207  : }

  00030	5d		 pop	 ebp
  00031	c3		 ret	 0
?ToMyRoomMode@@YAPAVioMyRoomMode@@PAVioPlayMode@@@Z ENDP ; ToMyRoomMode
_TEXT	ENDS
PUBLIC	??_7HeroReinforceDownWnd@@6B@			; HeroReinforceDownWnd::`vftable'
PUBLIC	??1HeroReinforceDownWnd@@UAE@XZ			; HeroReinforceDownWnd::~HeroReinforceDownWnd
PUBLIC	??_R4HeroReinforceDownWnd@@6B@			; HeroReinforceDownWnd::`RTTI Complete Object Locator'
PUBLIC	??_R0?AVHeroReinforceDownWnd@@@8		; HeroReinforceDownWnd `RTTI Type Descriptor'
PUBLIC	??_R3HeroReinforceDownWnd@@8			; HeroReinforceDownWnd::`RTTI Class Hierarchy Descriptor'
PUBLIC	??_R2HeroReinforceDownWnd@@8			; HeroReinforceDownWnd::`RTTI Base Class Array'
PUBLIC	??_R1A@?0A@EA@HeroReinforceDownWnd@@8		; HeroReinforceDownWnd::`RTTI Base Class Descriptor at (0,-1,0,64)'
PUBLIC	?iwm_command@HeroReinforceDownWnd@@UAEXPAVioWnd@@HK@Z ; HeroReinforceDownWnd::iwm_command
EXTRN	?ParseExtraInfo@ioWnd@@UAEXAAVioXMLElement@@@Z:PROC ; ioWnd::ParseExtraInfo
EXTRN	??_EHeroReinforceDownWnd@@UAEPAXI@Z:PROC	; HeroReinforceDownWnd::`vector deleting destructor'
;	COMDAT ??_R1A@?0A@EA@HeroReinforceDownWnd@@8
; File d:\lost saga for developer\youtube\tutorial\source\src\lsclient\gui\heroreinforcedownwnd.cpp
rdata$r	SEGMENT
??_R1A@?0A@EA@HeroReinforceDownWnd@@8 DD FLAT:??_R0?AVHeroReinforceDownWnd@@@8 ; HeroReinforceDownWnd::`RTTI Base Class Descriptor at (0,-1,0,64)'
	DD	01H
	DD	00H
	DD	0ffffffffH
	DD	00H
	DD	040H
	DD	FLAT:??_R3HeroReinforceDownWnd@@8
rdata$r	ENDS
;	COMDAT ??_R2HeroReinforceDownWnd@@8
rdata$r	SEGMENT
??_R2HeroReinforceDownWnd@@8 DD FLAT:??_R1A@?0A@EA@HeroReinforceDownWnd@@8 ; HeroReinforceDownWnd::`RTTI Base Class Array'
	DD	FLAT:??_R1A@?0A@EA@ioWnd@@8
rdata$r	ENDS
;	COMDAT ??_R3HeroReinforceDownWnd@@8
rdata$r	SEGMENT
??_R3HeroReinforceDownWnd@@8 DD 00H			; HeroReinforceDownWnd::`RTTI Class Hierarchy Descriptor'
	DD	00H
	DD	02H
	DD	FLAT:??_R2HeroReinforceDownWnd@@8
rdata$r	ENDS
;	COMDAT ??_R0?AVHeroReinforceDownWnd@@@8
_DATA	SEGMENT
??_R0?AVHeroReinforceDownWnd@@@8 DD FLAT:??_7type_info@@6B@ ; HeroReinforceDownWnd `RTTI Type Descriptor'
	DD	00H
	DB	'.?AVHeroReinforceDownWnd@@', 00H
_DATA	ENDS
;	COMDAT ??_R4HeroReinforceDownWnd@@6B@
rdata$r	SEGMENT
??_R4HeroReinforceDownWnd@@6B@ DD 00H			; HeroReinforceDownWnd::`RTTI Complete Object Locator'
	DD	00H
	DD	00H
	DD	FLAT:??_R0?AVHeroReinforceDownWnd@@@8
	DD	FLAT:??_R3HeroReinforceDownWnd@@8
rdata$r	ENDS
;	COMDAT ??_7HeroReinforceDownWnd@@6B@
CONST	SEGMENT
??_7HeroReinforceDownWnd@@6B@ DD FLAT:??_R4HeroReinforceDownWnd@@6B@ ; HeroReinforceDownWnd::`vftable'
	DD	FLAT:?AddRenderFrame@ioWnd@@UAEXABVioHashString@@PAVioUIRenderFrame@@@Z
	DD	FLAT:?AddRenderImage@HeroReinforceDownWnd@@UAEXABVioHashString@@PAVioUIRenderImage@@@Z
	DD	FLAT:?AddTooltipHelp@ioWnd@@UAEXABVioHashString@@00@Z
	DD	FLAT:?ParseExtraInfo@ioWnd@@UAEXAAVioXMLElement@@@Z
	DD	FLAT:?AddNamedRenderImage@ioWnd@@UAEXABVioHashString@@PAVioUIRenderImage@@@Z
	DD	FLAT:?RemoveNamedRenderImage@ioWnd@@UAEXABVioHashString@@@Z
	DD	FLAT:?GetNamedRenderImage@ioWnd@@UBEPAVioUIRenderImage@@ABVioHashString@@@Z
	DD	FLAT:?SetWindowAlpha@ioWnd@@UAEXH@Z
	DD	FLAT:?SetActive@ioWnd@@UAEXXZ
	DD	FLAT:?SetInActive@ioWnd@@UAEXXZ
	DD	FLAT:?ClearElementImageList@ioWnd@@UAEXXZ
	DD	FLAT:?SetSize@ioWnd@@UAEXHH@Z
	DD	FLAT:?SetPositionToDefault@ioWnd@@UAEXHH_N0@Z
	DD	FLAT:?IsNeedProcess@ioWnd@@UBE_NXZ
	DD	FLAT:?IsCanMouseReaction@ioWnd@@UBE_NXZ
	DD	FLAT:?AddChild@ioWnd@@UAEXPAV1@@Z
	DD	FLAT:?DeleteChild@ioWnd@@UAEXK@Z
	DD	FLAT:?DeleteAllChild@ioWnd@@UAEXXZ
	DD	FLAT:?OnRenderShowAndHide@ioWnd@@MAE_NXZ
	DD	FLAT:?OnRenderShowAndHideByDefault@ioWnd@@MAE_NK@Z
	DD	FLAT:?OnRenderShowAndHideByTop@ioWnd@@MAE_NK@Z
	DD	FLAT:?OnRenderShowAndHideByDown@ioWnd@@MAE_NK@Z
	DD	FLAT:?OnRender@HeroReinforceDownWnd@@MAEXXZ
	DD	FLAT:?OnRenderAfterChild@HeroReinforceDownWnd@@MAEXXZ
	DD	FLAT:?OnProcess@ioWnd@@MAEXM@Z
	DD	FLAT:?OnMouseProcess@ioWnd@@MAEXABVioMouse@@@Z
	DD	FLAT:?CheckFrameReSize@ioWnd@@MAEXHHHH@Z
	DD	FLAT:?RenderImageList@ioWnd@@MAEXHHW4UIRenderType@@@Z
	DD	FLAT:?iwm_create@ioWnd@@UAEXXZ
	DD	FLAT:?iwm_destroy@ioWnd@@UAEXXZ
	DD	FLAT:?iwm_lbuttondown@ioWnd@@UAEXABVioMouse@@@Z
	DD	FLAT:?iwm_lbuttonup@ioWnd@@UAEXABVioMouse@@@Z
	DD	FLAT:?iwm_lbuttonDBLCLK@ioWnd@@UAEXABVioMouse@@@Z
	DD	FLAT:?iwm_rbuttondown@ioWnd@@UAEXABVioMouse@@@Z
	DD	FLAT:?iwm_rbuttonup@ioWnd@@UAEXABVioMouse@@@Z
	DD	FLAT:?iwm_command@HeroReinforceDownWnd@@UAEXPAVioWnd@@HK@Z
	DD	FLAT:?iwm_mouseover@ioWnd@@UAEXABVioMouse@@@Z
	DD	FLAT:?iwm_mousemove@ioWnd@@UAEXABVioMouse@@@Z
	DD	FLAT:?iwm_mouseleave@ioWnd@@UAEXABVioMouse@@@Z
	DD	FLAT:?iwm_vscroll@ioWnd@@UAEXKH@Z
	DD	FLAT:?iwm_wheel@ioWnd@@UAEXH@Z
	DD	FLAT:?iwm_show@HeroReinforceDownWnd@@UAEXXZ
	DD	FLAT:?iwm_hide@HeroReinforceDownWnd@@UAEXXZ
	DD	FLAT:?iwm_esc@ioWnd@@UAE_NXZ
	DD	FLAT:?iwm_spacebar@ioWnd@@UAE_NXZ
	DD	FLAT:?iwm_gototop@ioWnd@@UAEXXZ
	DD	FLAT:?iwm_dragenter@ioWnd@@UAE?AW4IWDropEffect@@PAVioDragItem@@ABVioMouse@@@Z
	DD	FLAT:?iwm_dragover@ioWnd@@UAE?AW4IWDropEffect@@PAVioDragItem@@ABVioMouse@@@Z
	DD	FLAT:?iwm_dragleave@ioWnd@@UAEXXZ
	DD	FLAT:?iwm_dropitem@ioWnd@@UAE_NPAVioDragItem@@ABVioMouse@@PAV1@@Z
	DD	FLAT:?iwm_dropdone@ioWnd@@UAEXPAVioDragItem@@PAV1@_N@Z
	DD	FLAT:?IsEXType@ioWnd@@UBE_NXZ
	DD	FLAT:?GetWndType@ioWnd@@UBEKXZ
	DD	FLAT:?RenderWnd@ioWnd@@UAEXXZ
	DD	FLAT:?SetIDEX@ioWnd@@UAEXAAK_N@Z
	DD	FLAT:?ParseXML@ioWnd@@UAEXAAVioXMLElement@@@Z
	DD	FLAT:?GetHeaderFileName@ioWnd@@UAEPBDXZ
	DD	FLAT:?GetTemplateName@ioWnd@@UAEPBDXZ
	DD	FLAT:?GetDefClassName@ioWnd@@UBEPBDXZ
	DD	FLAT:?_Clone@ioWnd@@UAEPAV1@XZ
	DD	FLAT:?Copy@ioWnd@@UAEXPAV1@@Z
	DD	FLAT:?Save@ioWnd@@UAE_NAAVioXMLElement@@@Z
	DD	FLAT:?SetSaveData@ioWnd@@UAEXAAVioXMLElement@@@Z
	DD	FLAT:?SetPosX@ioWnd@@UAEXH@Z
	DD	FLAT:?SetPosY@ioWnd@@UAEXH@Z
	DD	FLAT:?SetWidth@ioWnd@@UAEXH@Z
	DD	FLAT:?SetHeight@ioWnd@@UAEXH@Z
	DD	FLAT:?GetNumFixedRenderFrame@ioWnd@@UBEHXZ
	DD	FLAT:?GetFixedRenderFrameType@ioWnd@@UAEPBDH@Z
	DD	FLAT:?GetRenderFrame@ioWnd@@UAEPAPAVioUIRenderElement@@PBD@Z
	DD	FLAT:?GetNumFixedRenderImage@ioWnd@@UBEHXZ
	DD	FLAT:?GetFixedRenderImageType@ioWnd@@UAEPBDH@Z
	DD	FLAT:?GetRenderImage@ioWnd@@UAEPAPAVioUIRenderElement@@PBD@Z
	DD	FLAT:?AddEffect@ioWnd@@UAEXABVioHashString@@PAVioUI3DEffectRender@@@Z
	DD	FLAT:?GetEffect@ioWnd@@UAEPAVioUI3DEffectRender@@VioHashString@@@Z
	DD	FLAT:??_EHeroReinforceDownWnd@@UAEPAXI@Z
CONST	ENDS
;	COMDAT xdata$x
xdata$x	SEGMENT
__ehfuncinfo$??1HeroReinforceDownWnd@@UAE@XZ DD 019930522H
	DD	06H
	DD	FLAT:__unwindtable$??1HeroReinforceDownWnd@@UAE@XZ
	DD	2 DUP(00H)
	DD	2 DUP(00H)
	DD	00H
	DD	01H
__unwindtable$??1HeroReinforceDownWnd@@UAE@XZ DD 0ffffffffH
	DD	FLAT:__unwindfunclet$??1HeroReinforceDownWnd@@UAE@XZ$0
	DD	00H
	DD	FLAT:__unwindfunclet$??1HeroReinforceDownWnd@@UAE@XZ$1
	DD	01H
	DD	FLAT:__unwindfunclet$??1HeroReinforceDownWnd@@UAE@XZ$2
	DD	02H
	DD	FLAT:__unwindfunclet$??1HeroReinforceDownWnd@@UAE@XZ$3
	DD	03H
	DD	FLAT:__unwindfunclet$??1HeroReinforceDownWnd@@UAE@XZ$4
	DD	04H
	DD	FLAT:__unwindfunclet$??1HeroReinforceDownWnd@@UAE@XZ$5
; Function compile flags: /Ogsp
xdata$x	ENDS
;	COMDAT ??1HeroReinforceDownWnd@@UAE@XZ
_TEXT	SEGMENT
_this$ = -16						; size = 4
__$EHRec$ = -12						; size = 12
??1HeroReinforceDownWnd@@UAE@XZ PROC			; HeroReinforceDownWnd::~HeroReinforceDownWnd, COMDAT
; _this$ = ecx

; 16   : {

  00000	6a 04		 push	 4
  00002	b8 00 00 00 00	 mov	 eax, __ehhandler$??1HeroReinforceDownWnd@@UAE@XZ
  00007	e8 00 00 00 00	 call	 __EH_prolog3
  0000c	8b f1		 mov	 esi, ecx
  0000e	89 75 f0	 mov	 DWORD PTR _this$[ebp], esi
  00011	c7 06 00 00 00
	00		 mov	 DWORD PTR [esi], OFFSET ??_7HeroReinforceDownWnd@@6B@

; 17   : 	SAFEDELETE( m_pNameLine );

  00017	8b 8e 84 04 00
	00		 mov	 ecx, DWORD PTR [esi+1156]
  0001d	c7 45 fc 05 00
	00 00		 mov	 DWORD PTR __$EHRec$[ebp+8], 5
  00024	85 c9		 test	 ecx, ecx
  00026	74 0e		 je	 SHORT $LN1@HeroReinfo@2
  00028	8b 01		 mov	 eax, DWORD PTR [ecx]
  0002a	6a 01		 push	 1
  0002c	ff 50 40	 call	 DWORD PTR [eax+64]
  0002f	83 a6 84 04 00
	00 00		 and	 DWORD PTR [esi+1156], 0
$LN1@HeroReinfo@2:

; 18   : 	m_CharInfo.Init();

  00036	8d 8e 60 01 00
	00		 lea	 ecx, DWORD PTR [esi+352]
  0003c	e8 00 00 00 00	 call	 ?Init@CHARACTER@@QAEXXZ	; CHARACTER::Init

; 19   : }

  00041	8d 8e 68 05 00
	00		 lea	 ecx, DWORD PTR [esi+1384]
  00047	c6 45 fc 04	 mov	 BYTE PTR __$EHRec$[ebp+8], 4
  0004b	e8 00 00 00 00	 call	 ??1ioComplexStringPrinter@@QAE@XZ ; ioComplexStringPrinter::~ioComplexStringPrinter
  00050	8d 8e 48 05 00
	00		 lea	 ecx, DWORD PTR [esi+1352]
  00056	c6 45 fc 03	 mov	 BYTE PTR __$EHRec$[ebp+8], 3
  0005a	e8 00 00 00 00	 call	 ??1ioComplexStringPrinter@@QAE@XZ ; ioComplexStringPrinter::~ioComplexStringPrinter
  0005f	bf 00 00 00 00	 mov	 edi, OFFSET ??1ioComplexStringPrinter@@QAE@XZ ; ioComplexStringPrinter::~ioComplexStringPrinter
  00064	57		 push	 edi
  00065	6a 04		 push	 4
  00067	6a 20		 push	 32			; 00000020H
  00069	8d 86 c8 04 00
	00		 lea	 eax, DWORD PTR [esi+1224]
  0006f	50		 push	 eax
  00070	c6 45 fc 02	 mov	 BYTE PTR __$EHRec$[ebp+8], 2
  00074	e8 00 00 00 00	 call	 ??_M@YGXPAXIHP6EX0@Z@Z
  00079	57		 push	 edi
  0007a	6a 02		 push	 2
  0007c	6a 20		 push	 32			; 00000020H
  0007e	8d 86 88 04 00
	00		 lea	 eax, DWORD PTR [esi+1160]
  00084	50		 push	 eax
  00085	c6 45 fc 01	 mov	 BYTE PTR __$EHRec$[ebp+8], 1
  00089	e8 00 00 00 00	 call	 ??_M@YGXPAXIHP6EX0@Z@Z
  0008e	8d 8e 60 01 00
	00		 lea	 ecx, DWORD PTR [esi+352]
  00094	c6 45 fc 00	 mov	 BYTE PTR __$EHRec$[ebp+8], 0
  00098	e8 00 00 00 00	 call	 ??1CHARACTER@@QAE@XZ
  0009d	83 4d fc ff	 or	 DWORD PTR __$EHRec$[ebp+8], -1
  000a1	8b ce		 mov	 ecx, esi
  000a3	ff 15 00 00 00
	00		 call	 DWORD PTR __imp_??1ioWnd@@UAE@XZ
  000a9	e8 00 00 00 00	 call	 __EH_epilog3
  000ae	c3		 ret	 0
_TEXT	ENDS
;	COMDAT text$x
text$x	SEGMENT
__unwindfunclet$??1HeroReinforceDownWnd@@UAE@XZ$0:
  00000	8b 4d f0	 mov	 ecx, DWORD PTR _this$[ebp]
  00003	ff 25 00 00 00
	00		 jmp	 DWORD PTR __imp_??1ioWnd@@UAE@XZ
__unwindfunclet$??1HeroReinforceDownWnd@@UAE@XZ$1:
  00009	8b 4d f0	 mov	 ecx, DWORD PTR _this$[ebp]
  0000c	81 c1 60 01 00
	00		 add	 ecx, 352		; 00000160H
  00012	e9 00 00 00 00	 jmp	 ??1CHARACTER@@QAE@XZ
__unwindfunclet$??1HeroReinforceDownWnd@@UAE@XZ$2:
  00017	68 00 00 00 00	 push	 OFFSET ??1ioComplexStringPrinter@@QAE@XZ ; ioComplexStringPrinter::~ioComplexStringPrinter
  0001c	6a 02		 push	 2
  0001e	6a 20		 push	 32			; 00000020H
  00020	8b 45 f0	 mov	 eax, DWORD PTR _this$[ebp]
  00023	05 88 04 00 00	 add	 eax, 1160		; 00000488H
  00028	50		 push	 eax
  00029	e8 00 00 00 00	 call	 ??_M@YGXPAXIHP6EX0@Z@Z
  0002e	c3		 ret	 0
__unwindfunclet$??1HeroReinforceDownWnd@@UAE@XZ$3:
  0002f	68 00 00 00 00	 push	 OFFSET ??1ioComplexStringPrinter@@QAE@XZ ; ioComplexStringPrinter::~ioComplexStringPrinter
  00034	6a 04		 push	 4
  00036	6a 20		 push	 32			; 00000020H
  00038	8b 45 f0	 mov	 eax, DWORD PTR _this$[ebp]
  0003b	05 c8 04 00 00	 add	 eax, 1224		; 000004c8H
  00040	50		 push	 eax
  00041	e8 00 00 00 00	 call	 ??_M@YGXPAXIHP6EX0@Z@Z
  00046	c3		 ret	 0
__unwindfunclet$??1HeroReinforceDownWnd@@UAE@XZ$4:
  00047	8b 4d f0	 mov	 ecx, DWORD PTR _this$[ebp]
  0004a	81 c1 48 05 00
	00		 add	 ecx, 1352		; 00000548H
  00050	e9 00 00 00 00	 jmp	 ??1ioComplexStringPrinter@@QAE@XZ ; ioComplexStringPrinter::~ioComplexStringPrinter
__unwindfunclet$??1HeroReinforceDownWnd@@UAE@XZ$5:
  00055	8b 4d f0	 mov	 ecx, DWORD PTR _this$[ebp]
  00058	81 c1 68 05 00
	00		 add	 ecx, 1384		; 00000568H
  0005e	e9 00 00 00 00	 jmp	 ??1ioComplexStringPrinter@@QAE@XZ ; ioComplexStringPrinter::~ioComplexStringPrinter
__ehhandler$??1HeroReinforceDownWnd@@UAE@XZ:
  00063	8b 54 24 08	 mov	 edx, DWORD PTR [esp+8]
  00067	8d 42 0c	 lea	 eax, DWORD PTR [edx+12]
  0006a	8b 4a ec	 mov	 ecx, DWORD PTR [edx-20]
  0006d	33 c8		 xor	 ecx, eax
  0006f	e8 00 00 00 00	 call	 @__security_check_cookie@4
  00074	b8 00 00 00 00	 mov	 eax, OFFSET __ehfuncinfo$??1HeroReinforceDownWnd@@UAE@XZ
  00079	e9 00 00 00 00	 jmp	 ___CxxFrameHandler3
text$x	ENDS
??1HeroReinforceDownWnd@@UAE@XZ ENDP			; HeroReinforceDownWnd::~HeroReinforceDownWnd
PUBLIC	__real@3f19999a
PUBLIC	??_C@_0CF@JHKELNL@HeroReinforceDownWnd?3?3SetSoldier@ ; `string'
PUBLIC	??_C@_00CNPNBAHC@?$AA@				; `string'
PUBLIC	__real@3f59999a
PUBLIC	__real@43fa0000
PUBLIC	??_R0?AVNewShopHelpWnd@@@8			; NewShopHelpWnd `RTTI Type Descriptor'
PUBLIC	??_C@_0DP@MJPKAIMK@HeroReinforceDownWnd?3?3SetSoldier@ ; `string'
PUBLIC	_iClassType$GSCopy$
PUBLIC	?SetSoldierInfo@HeroReinforceDownWnd@@QAEXH@Z	; HeroReinforceDownWnd::SetSoldierInfo
EXTRN	__imp_?SafeSprintf@@YAXPADHPBDH@Z:PROC
EXTRN	?SetCharGardePrinter@ioPowerUpManager@@QAEXHHMAAVioComplexStringPrinter@@@Z:PROC ; ioPowerUpManager::SetCharGardePrinter
EXTRN	?AddTextPiece@ioComplexStringPrinter@@QAAXMPBDZZ:PROC ; ioComplexStringPrinter::AddTextPiece
EXTRN	?AddTextPiece@ioComplexStringPrinter@@QAEXMPBDH0@Z:PROC ; ioComplexStringPrinter::AddTextPiece
EXTRN	?GetClassLevel@ioMyInfo@@QAEHH_N@Z:PROC		; ioMyInfo::GetClassLevel
EXTRN	?SetTextColor@ioComplexStringPrinter@@QAEXK@Z:PROC ; ioComplexStringPrinter::SetTextColor
EXTRN	?GetGradeTextColor@ioUIImageRenderManager@@QAEKH@Z:PROC ; ioUIImageRenderManager::GetGradeTextColor
EXTRN	?GetPowerUpGradeType@ioUIImageRenderManager@@QAEHH@Z:PROC ; ioUIImageRenderManager::GetPowerUpGradeType
EXTRN	?GetSingleton@ioUIImageRenderManager@@SAAAV1@XZ:PROC ; ioUIImageRenderManager::GetSingleton
EXTRN	?SetBkColor@ioComplexStringPrinter@@QAEXHHH@Z:PROC ; ioComplexStringPrinter::SetBkColor
EXTRN	?SetTextStyle@ioComplexStringPrinter@@QAEXW4TextStyle@@@Z:PROC ; ioComplexStringPrinter::SetTextStyle
EXTRN	__imp_??0ioHashString@@QAE@PBD@Z:PROC
EXTRN	?GetClassNameA@ioMyInfo@@QAEPBDHH@Z:PROC	; ioMyInfo::GetClassNameA
EXTRN	__imp_?SafeSprintf@@YAXPADHPBD1@Z:PROC
EXTRN	__imp_??0ioHashString@@QAE@ABV0@@Z:PROC
EXTRN	?GetCharGradeTitle@ioPowerUpManager@@QBEABVioHashString@@HH@Z:PROC ; ioPowerUpManager::GetCharGradeTitle
EXTRN	?GetSingleton@ioPowerUpManager@@SAAAV1@XZ:PROC	; ioPowerUpManager::GetSingleton
EXTRN	__imp_?SafeSprintf@@YAXPADHPBDZZ:PROC
EXTRN	__imp_?GetString@ioStringManager@@QAEPADPBD0HW4FileNamePrefix@1@@Z:PROC
EXTRN	__imp_?GetSingleton@ioStringManager@@SAAAV1@XZ:PROC
EXTRN	?GetEtcItem@ioUserEtcItem@@QAE_NHAAUETCITEMSLOT@1@@Z:PROC ; ioUserEtcItem::GetEtcItem
EXTRN	?SetCharScale@NewShopHelpWnd@@QAEXM@Z:PROC	; NewShopHelpWnd::SetCharScale
EXTRN	?SetEquip@NewShopHelpWnd@@QAEX_N00@Z:PROC	; NewShopHelpWnd::SetEquip
EXTRN	?SetChar@NewShopHelpWnd@@QAEXABUCHARACTER@@@Z:PROC ; NewShopHelpWnd::SetChar
EXTRN	?SetZPosition@NewShopHelpWnd@@QAEXM@Z:PROC	; NewShopHelpWnd::SetZPosition
EXTRN	__imp_?FindChildWnd@ioWnd@@QAEPAV1@K@Z:PROC
EXTRN	?GetCharacterToClassType@ioMyInfo@@QAEABUCHARACTER@@H@Z:PROC ; ioMyInfo::GetCharacterToClassType
EXTRN	__imp_?PrintTimeAndLog@CLog@@QAAXHPADZZ:PROC
EXTRN	__imp_?LOG@@3VCLog@@A:BYTE
EXTRN	?GetClassArray@ioMyInfo@@QAEHH@Z:PROC		; ioMyInfo::GetClassArray
EXTRN	?GetSingleton@ioMyInfo@@SAAAV1@XZ:PROC		; ioMyInfo::GetSingleton
EXTRN	__EH_epilog3_GS:PROC
EXTRN	__EH_prolog3_GS:PROC
;	COMDAT __real@3f19999a
; File d:\lost saga for developer\youtube\tutorial\source\src\lsclient\encryptvalue.h
CONST	SEGMENT
__real@3f19999a DD 03f19999ar			; 0.6
CONST	ENDS
;	COMDAT ??_C@_0CF@JHKELNL@HeroReinforceDownWnd?3?3SetSoldier@
CONST	SEGMENT
??_C@_0CF@JHKELNL@HeroReinforceDownWnd?3?3SetSoldier@ DB 'HeroReinforceDo'
	DB	'wnWnd::SetSoldierInfo', 00H			; `string'
CONST	ENDS
;	COMDAT ??_C@_00CNPNBAHC@?$AA@
CONST	SEGMENT
??_C@_00CNPNBAHC@?$AA@ DB 00H				; `string'
CONST	ENDS
;	COMDAT __real@3f59999a
CONST	SEGMENT
__real@3f59999a DD 03f59999ar			; 0.85
CONST	ENDS
;	COMDAT __real@43fa0000
CONST	SEGMENT
__real@43fa0000 DD 043fa0000r			; 500
CONST	ENDS
;	COMDAT ??_R0?AVNewShopHelpWnd@@@8
_DATA	SEGMENT
??_R0?AVNewShopHelpWnd@@@8 DD FLAT:??_7type_info@@6B@	; NewShopHelpWnd `RTTI Type Descriptor'
	DD	00H
	DB	'.?AVNewShopHelpWnd@@', 00H
_DATA	ENDS
;	COMDAT ??_C@_0DP@MJPKAIMK@HeroReinforceDownWnd?3?3SetSoldier@
CONST	SEGMENT
??_C@_0DP@MJPKAIMK@HeroReinforceDownWnd?3?3SetSoldier@ DB 'HeroReinforceD'
	DB	'ownWnd::SetSoldierInfo - iClassType is not exist', 00H ; `string'
CONST	ENDS
;	COMDAT xdata$x
xdata$x	SEGMENT
__unwindtable$?SetSoldierInfo@HeroReinforceDownWnd@@QAEXH@Z DD 0ffffffffH
	DD	FLAT:__unwindfunclet$?SetSoldierInfo@HeroReinforceDownWnd@@QAEXH@Z$0
	DD	0ffffffffH
	DD	FLAT:__unwindfunclet$?SetSoldierInfo@HeroReinforceDownWnd@@QAEXH@Z$1
__ehfuncinfo$?SetSoldierInfo@HeroReinforceDownWnd@@QAEXH@Z DD 019930522H
	DD	02H
	DD	FLAT:__unwindtable$?SetSoldierInfo@HeroReinforceDownWnd@@QAEXH@Z
	DD	2 DUP(00H)
	DD	2 DUP(00H)
	DD	00H
	DD	01H
; Function compile flags: /Ogsp
; File d:\lost saga for developer\youtube\tutorial\source\src\lsclient\gui\heroreinforcedownwnd.cpp
xdata$x	ENDS
;	COMDAT ?SetSoldierInfo@HeroReinforceDownWnd@@QAEXH@Z
_TEXT	SEGMENT
_$S1$ = -328						; size = 16
_value$519191 = -312					; size = 4
_szGradeTitle$515998 = -308				; size = 16
_kSlot$515991 = -304					; size = 12
_iSoulStoneCount$ = -292				; size = 4
_iClassType$GSCopy$ = -288				; size = 4
_i$516003 = -284					; size = 4
tv438 = -280						; size = 4
_value$519186 = -280					; size = 4
_value$519181 = -280					; size = 4
_value$519176 = -280					; size = 4
_szText$ = -276						; size = 260
__$EHRec$ = -12						; size = 12
_iClassType$ = 8					; size = 4
?SetSoldierInfo@HeroReinforceDownWnd@@QAEXH@Z PROC	; HeroReinforceDownWnd::SetSoldierInfo, COMDAT
; _this$ = ecx

; 45   : {

  00000	68 3c 01 00 00	 push	 316			; 0000013cH
  00005	b8 00 00 00 00	 mov	 eax, __ehhandler$?SetSoldierInfo@HeroReinforceDownWnd@@QAEXH@Z
  0000a	e8 00 00 00 00	 call	 __EH_prolog3_GS
  0000f	8b 5d 08	 mov	 ebx, DWORD PTR _iClassType$[ebp]

; 46   : 	if ( g_MyInfo.GetClassArray( iClassType ) == -1 )

  00012	53		 push	 ebx
  00013	8b f1		 mov	 esi, ecx

; 109  : 
; 110  : 	memset( szText, 0, sizeof(szText) );

  00015	89 9d e0 fe ff
	ff		 mov	 DWORD PTR _iClassType$GSCopy$[ebp], ebx
  0001b	e8 00 00 00 00	 call	 ?GetSingleton@ioMyInfo@@SAAAV1@XZ ; ioMyInfo::GetSingleton
  00020	8b c8		 mov	 ecx, eax
  00022	e8 00 00 00 00	 call	 ?GetClassArray@ioMyInfo@@QAEHH@Z ; ioMyInfo::GetClassArray
  00027	83 f8 ff	 cmp	 eax, -1
  0002a	75 1b		 jne	 SHORT $LN10@SetSoldier

; 47   : 	{
; 48   : 		LOG.PrintTimeAndLog( 0, "HeroReinforceDownWnd::SetSoldierInfo - iClassType is not exist" );

  0002c	68 00 00 00 00	 push	 OFFSET ??_C@_0DP@MJPKAIMK@HeroReinforceDownWnd?3?3SetSoldier@
  00031	6a 00		 push	 0
  00033	ff 35 00 00 00
	00		 push	 DWORD PTR __imp_?LOG@@3VCLog@@A
  00039	ff 15 00 00 00
	00		 call	 DWORD PTR __imp_?PrintTimeAndLog@CLog@@QAAXHPADZZ
  0003f	83 c4 0c	 add	 esp, 12			; 0000000cH

; 49   : 		return;

  00042	e9 6c 04 00 00	 jmp	 $LN11@SetSoldier
$LN10@SetSoldier:

; 50   : 	}
; 51   : 
; 52   : 	m_CharInfo.Init();

  00047	8d 8e 60 01 00
	00		 lea	 ecx, DWORD PTR [esi+352]
  0004d	e8 00 00 00 00	 call	 ?Init@CHARACTER@@QAEXXZ	; CHARACTER::Init

; 53   : 	m_CharInfo = g_MyInfo.GetCharacterToClassType( iClassType );

  00052	53		 push	 ebx
  00053	e8 00 00 00 00	 call	 ?GetSingleton@ioMyInfo@@SAAAV1@XZ ; ioMyInfo::GetSingleton
  00058	8b c8		 mov	 ecx, eax
  0005a	e8 00 00 00 00	 call	 ?GetCharacterToClassType@ioMyInfo@@QAEABUCHARACTER@@H@Z ; ioMyInfo::GetCharacterToClassType
  0005f	50		 push	 eax
  00060	8d 8e 60 01 00
	00		 lea	 ecx, DWORD PTR [esi+352]
  00066	e8 00 00 00 00	 call	 ??4CHARACTER@@QAEAAU0@ABU0@@Z ; CHARACTER::operator=

; 54   : 	NewShopHelpWnd *pCharWnd = dynamic_cast<NewShopHelpWnd *>( FindChildWnd( HeroReinforceDownWnd::ID_SOLDIER_WND ) );

  0006b	33 db		 xor	 ebx, ebx
  0006d	53		 push	 ebx
  0006e	68 00 00 00 00	 push	 OFFSET ??_R0?AVNewShopHelpWnd@@@8
  00073	68 00 00 00 00	 push	 OFFSET ??_R0?AVioWnd@@@8
  00078	53		 push	 ebx
  00079	6a 66		 push	 102			; 00000066H
  0007b	8b ce		 mov	 ecx, esi
  0007d	ff 15 00 00 00
	00		 call	 DWORD PTR __imp_?FindChildWnd@ioWnd@@QAEPAV1@K@Z
  00083	50		 push	 eax
  00084	e8 00 00 00 00	 call	 ___RTDynamicCast
  00089	8b f8		 mov	 edi, eax
  0008b	83 c4 14	 add	 esp, 20			; 00000014H

; 55   : 	if( pCharWnd )

  0008e	3b fb		 cmp	 edi, ebx
  00090	74 49		 je	 SHORT $LN9@SetSoldier

; 56   : 	{
; 57   : 		pCharWnd->SetZPosition( 500.0f );

  00092	f3 0f 10 05 00
	00 00 00	 movss	 xmm0, DWORD PTR __real@43fa0000
  0009a	51		 push	 ecx
  0009b	8b cf		 mov	 ecx, edi
  0009d	f3 0f 11 04 24	 movss	 DWORD PTR [esp], xmm0
  000a2	e8 00 00 00 00	 call	 ?SetZPosition@NewShopHelpWnd@@QAEXM@Z ; NewShopHelpWnd::SetZPosition

; 58   : 		pCharWnd->SetChar( m_CharInfo );

  000a7	8d 86 60 01 00
	00		 lea	 eax, DWORD PTR [esi+352]
  000ad	50		 push	 eax
  000ae	8b cf		 mov	 ecx, edi
  000b0	e8 00 00 00 00	 call	 ?SetChar@NewShopHelpWnd@@QAEXABUCHARACTER@@@Z ; NewShopHelpWnd::SetChar

; 59   : 		pCharWnd->SetEquip( false, false, false );

  000b5	53		 push	 ebx
  000b6	53		 push	 ebx
  000b7	53		 push	 ebx
  000b8	8b cf		 mov	 ecx, edi
  000ba	e8 00 00 00 00	 call	 ?SetEquip@NewShopHelpWnd@@QAEX_N00@Z ; NewShopHelpWnd::SetEquip

; 60   : 		pCharWnd->SetUserInfoToolTip( true );
; 61   : 		pCharWnd->SetCharScale( 0.85f );

  000bf	f3 0f 10 05 00
	00 00 00	 movss	 xmm0, DWORD PTR __real@3f59999a
  000c7	51		 push	 ecx
  000c8	8b cf		 mov	 ecx, edi
  000ca	c6 87 a9 04 00
	00 01		 mov	 BYTE PTR [edi+1193], 1
  000d1	f3 0f 11 04 24	 movss	 DWORD PTR [esp], xmm0
  000d6	e8 00 00 00 00	 call	 ?SetCharScale@NewShopHelpWnd@@QAEXM@Z ; NewShopHelpWnd::SetCharScale
$LN9@SetSoldier:

; 62   : 	}
; 63   : 
; 64   : 
; 65   : 	int iSoulStoneCount = 0;

  000db	89 9d dc fe ff
	ff		 mov	 DWORD PTR _iSoulStoneCount$[ebp], ebx

; 66   : 	ioUserEtcItem *pUserEtcItem = g_MyInfo.GetUserEtcItem();

  000e1	e8 00 00 00 00	 call	 ?GetSingleton@ioMyInfo@@SAAAV1@XZ ; ioMyInfo::GetSingleton
  000e6	8d 88 44 01 00
	00		 lea	 ecx, DWORD PTR [eax+324]

; 67   : 	if( pUserEtcItem )

  000ec	3b cb		 cmp	 ecx, ebx
  000ee	74 33		 je	 SHORT $LN7@SetSoldier

; 68   : 	{
; 69   : 		ioUserEtcItem::ETCITEMSLOT kSlot;
; 70   : 		if( pUserEtcItem->GetEtcItem( ioEtcItem::EIT_ETC_SOUL_STONE, kSlot ) )

  000f0	8d 85 d0 fe ff
	ff		 lea	 eax, DWORD PTR _kSlot$515991[ebp]
  000f6	50		 push	 eax
  000f7	68 e7 55 0f 00	 push	 1005031			; 000f55e7H
  000fc	89 9d d0 fe ff
	ff		 mov	 DWORD PTR _kSlot$515991[ebp], ebx
  00102	89 9d d4 fe ff
	ff		 mov	 DWORD PTR _kSlot$515991[ebp+4], ebx
  00108	89 9d d8 fe ff
	ff		 mov	 DWORD PTR _kSlot$515991[ebp+8], ebx
  0010e	e8 00 00 00 00	 call	 ?GetEtcItem@ioUserEtcItem@@QAE_NHAAUETCITEMSLOT@1@@Z ; ioUserEtcItem::GetEtcItem
  00113	84 c0		 test	 al, al
  00115	74 0c		 je	 SHORT $LN7@SetSoldier

; 71   : 			iSoulStoneCount = kSlot.m_iValue1;

  00117	8b 85 d4 fe ff
	ff		 mov	 eax, DWORD PTR _kSlot$515991[ebp+4]
  0011d	89 85 dc fe ff
	ff		 mov	 DWORD PTR _iSoulStoneCount$[ebp], eax
$LN7@SetSoldier:

; 72   : 	}
; 73   : 
; 74   : 	//용병 정보
; 75   : 
; 76   : 	char szBuf[MAX_PATH], szText[MAX_PATH];
; 77   : 	memset( szBuf, 0, sizeof(szBuf) );
; 78   : 	memset( szText, 0, sizeof(szText) );

  00123	bf 04 01 00 00	 mov	 edi, 260		; 00000104H
  00128	57		 push	 edi
  00129	8d 85 ec fe ff
	ff		 lea	 eax, DWORD PTR _szText$[ebp]
  0012f	53		 push	 ebx
  00130	50		 push	 eax
  00131	e8 00 00 00 00	 call	 _memset
  00136	83 c4 0c	 add	 esp, 12			; 0000000cH

; 79   : 
; 80   : 	if( m_CharInfo.m_eCharPowerUpType == PUGT_NONE )

  00139	38 9e 1c 04 00
	00		 cmp	 BYTE PTR [esi+1052], bl
  0013f	75 32		 jne	 SHORT $LN6@SetSoldier

; 81   : 		SafeSprintf( szText, sizeof( szText ), STR(2) );

  00141	53		 push	 ebx
  00142	6a 02		 push	 2
  00144	68 00 00 00 00	 push	 OFFSET ??_C@_00CNPNBAHC@?$AA@
  00149	68 00 00 00 00	 push	 OFFSET ??_C@_0CF@JHKELNL@HeroReinforceDownWnd?3?3SetSoldier@
  0014e	ff 15 00 00 00
	00		 call	 DWORD PTR __imp_?GetSingleton@ioStringManager@@SAAAV1@XZ
  00154	8b c8		 mov	 ecx, eax
  00156	ff 15 00 00 00
	00		 call	 DWORD PTR __imp_?GetString@ioStringManager@@QAEPADPBD0HW4FileNamePrefix@1@@Z
  0015c	50		 push	 eax
  0015d	8d 85 ec fe ff
	ff		 lea	 eax, DWORD PTR _szText$[ebp]
  00163	57		 push	 edi
  00164	50		 push	 eax
  00165	ff 15 00 00 00
	00		 call	 DWORD PTR __imp_?SafeSprintf@@YAXPADHPBDZZ
  0016b	83 c4 0c	 add	 esp, 12			; 0000000cH

; 82   : 	else

  0016e	e9 9a 00 00 00	 jmp	 $LN5@SetSoldier
$LN6@SetSoldier:

; 83   : 	{
; 84   : 		ioHashString szGradeTitle = g_PowerUpManager.GetCharGradeTitle( m_CharInfo.m_class_type, m_CharInfo.m_eCharPowerUpType );

  00173	8d 85 e8 fe ff
	ff		 lea	 eax, DWORD PTR _value$519176[ebp]
  00179	50		 push	 eax
  0017a	8d 8e 60 01 00
	00		 lea	 ecx, DWORD PTR [esi+352]
  00180	e8 00 00 00 00	 call	 ?DecryptValueToPool@?$CEncrypt@H@@QAEXPAH@Z ; CEncrypt<int>::DecryptValueToPool
  00185	0f b6 86 1c 04
	00 00		 movzx	 eax, BYTE PTR [esi+1052]
  0018c	50		 push	 eax
  0018d	ff b5 e8 fe ff
	ff		 push	 DWORD PTR _value$519176[ebp]
  00193	e8 00 00 00 00	 call	 ?GetSingleton@ioPowerUpManager@@SAAAV1@XZ ; ioPowerUpManager::GetSingleton
  00198	8b c8		 mov	 ecx, eax
  0019a	e8 00 00 00 00	 call	 ?GetCharGradeTitle@ioPowerUpManager@@QBEABVioHashString@@HH@Z ; ioPowerUpManager::GetCharGradeTitle
  0019f	50		 push	 eax
  001a0	8d 8d cc fe ff
	ff		 lea	 ecx, DWORD PTR _szGradeTitle$515998[ebp]
  001a6	ff 15 00 00 00
	00		 call	 DWORD PTR __imp_??0ioHashString@@QAE@ABV0@@Z

; 85   : 		if ( szGradeTitle.IsEmpty() )

  001ac	8d 8d cc fe ff
	ff		 lea	 ecx, DWORD PTR _szGradeTitle$515998[ebp]
  001b2	89 5d fc	 mov	 DWORD PTR __$EHRec$[ebp+8], ebx
  001b5	ff 15 00 00 00
	00		 call	 DWORD PTR __imp_?IsEmpty@ioHashString@@QBE_NXZ

; 86   : 			return;

  001bb	8d 8d cc fe ff
	ff		 lea	 ecx, DWORD PTR _szGradeTitle$515998[ebp]
  001c1	84 c0		 test	 al, al
  001c3	0f 85 e0 02 00
	00		 jne	 $LN32@SetSoldier

; 87   : 		SafeSprintf( szText, sizeof( szText ), STR(4), szGradeTitle.c_str() );

  001c9	ff 15 00 00 00
	00		 call	 DWORD PTR __imp_?c_str@ioHashString@@QBEPBDXZ
  001cf	50		 push	 eax
  001d0	53		 push	 ebx
  001d1	6a 04		 push	 4
  001d3	68 00 00 00 00	 push	 OFFSET ??_C@_00CNPNBAHC@?$AA@
  001d8	68 00 00 00 00	 push	 OFFSET ??_C@_0CF@JHKELNL@HeroReinforceDownWnd?3?3SetSoldier@
  001dd	ff 15 00 00 00
	00		 call	 DWORD PTR __imp_?GetSingleton@ioStringManager@@SAAAV1@XZ
  001e3	8b c8		 mov	 ecx, eax
  001e5	ff 15 00 00 00
	00		 call	 DWORD PTR __imp_?GetString@ioStringManager@@QAEPADPBD0HW4FileNamePrefix@1@@Z
  001eb	50		 push	 eax
  001ec	8d 85 ec fe ff
	ff		 lea	 eax, DWORD PTR _szText$[ebp]
  001f2	57		 push	 edi
  001f3	50		 push	 eax
  001f4	ff 15 00 00 00
	00		 call	 DWORD PTR __imp_?SafeSprintf@@YAXPADHPBD1@Z

; 88   : 	}

  001fa	83 4d fc ff	 or	 DWORD PTR __$EHRec$[ebp+8], -1
  001fe	83 c4 10	 add	 esp, 16			; 00000010H
  00201	8d 8d cc fe ff
	ff		 lea	 ecx, DWORD PTR _szGradeTitle$515998[ebp]
  00207	ff 15 00 00 00
	00		 call	 DWORD PTR __imp_??1ioHashString@@QAE@XZ
$LN5@SetSoldier:

; 89   : 
; 90   : 	const ioHashString& szClassName = g_MyInfo.GetClassName( m_CharInfo.m_class_type ) ;

  0020d	8d 85 e8 fe ff
	ff		 lea	 eax, DWORD PTR _value$519181[ebp]
  00213	50		 push	 eax
  00214	8d 8e 60 01 00
	00		 lea	 ecx, DWORD PTR [esi+352]
  0021a	e8 00 00 00 00	 call	 ?DecryptValueToPool@?$CEncrypt@H@@QAEXPAH@Z ; CEncrypt<int>::DecryptValueToPool
  0021f	53		 push	 ebx
  00220	ff b5 e8 fe ff
	ff		 push	 DWORD PTR _value$519181[ebp]
  00226	e8 00 00 00 00	 call	 ?GetSingleton@ioMyInfo@@SAAAV1@XZ ; ioMyInfo::GetSingleton
  0022b	8b c8		 mov	 ecx, eax
  0022d	e8 00 00 00 00	 call	 ?GetClassNameA@ioMyInfo@@QAEPBDHH@Z ; ioMyInfo::GetClassNameA
  00232	50		 push	 eax
  00233	8d 8d b8 fe ff
	ff		 lea	 ecx, DWORD PTR _$S1$[ebp]
  00239	ff 15 00 00 00
	00		 call	 DWORD PTR __imp_??0ioHashString@@QAE@PBD@Z

; 91   : 	//SafeSprintf( szBuf, sizeof( szBuf ), "Lv%d %s", g_MyInfo.GetClassLevel( m_CharInfo.m_class_type, false ), szClassName.c_str() );
; 92   : 	//StringCbPrintf_e( szBuf, sizeof( szBuf ), "Lv%d %s" , g_MyInfo.GetClassLevel( m_CharInfo.m_class_type, false ), szClassName.c_str() );
; 93   : 	ClearList();

  0023f	8b ce		 mov	 ecx, esi
  00241	c7 45 fc 01 00
	00 00		 mov	 DWORD PTR __$EHRec$[ebp+8], 1
  00248	e8 00 00 00 00	 call	 ?ClearList@HeroReinforceDownWnd@@IAEXXZ ; HeroReinforceDownWnd::ClearList

; 94   : 
; 95   : 	//용병 레벨 및 이름
; 96   : 	m_SoldierInfo[0].SetTextStyle( TS_NORMAL );

  0024d	8d 8e 88 04 00
	00		 lea	 ecx, DWORD PTR [esi+1160]
  00253	53		 push	 ebx
  00254	e8 00 00 00 00	 call	 ?SetTextStyle@ioComplexStringPrinter@@QAEXW4TextStyle@@@Z ; ioComplexStringPrinter::SetTextStyle

; 97   : 	m_SoldierInfo[0].SetBkColor( 0, 0, 0 );

  00259	53		 push	 ebx
  0025a	53		 push	 ebx
  0025b	53		 push	 ebx
  0025c	8d 8e 88 04 00
	00		 lea	 ecx, DWORD PTR [esi+1160]
  00262	e8 00 00 00 00	 call	 ?SetBkColor@ioComplexStringPrinter@@QAEXHHH@Z ; ioComplexStringPrinter::SetBkColor

; 98   : 	m_SoldierInfo[0].SetTextColor( g_UIImageRenderMgr.GetGradeTextColor( g_UIImageRenderMgr.GetPowerUpGradeType( iClassType ) ) );

  00267	ff b5 e0 fe ff
	ff		 push	 DWORD PTR _iClassType$GSCopy$[ebp]
  0026d	e8 00 00 00 00	 call	 ?GetSingleton@ioUIImageRenderManager@@SAAAV1@XZ ; ioUIImageRenderManager::GetSingleton
  00272	8b c8		 mov	 ecx, eax
  00274	e8 00 00 00 00	 call	 ?GetPowerUpGradeType@ioUIImageRenderManager@@QAEHH@Z ; ioUIImageRenderManager::GetPowerUpGradeType
  00279	50		 push	 eax
  0027a	e8 00 00 00 00	 call	 ?GetSingleton@ioUIImageRenderManager@@SAAAV1@XZ ; ioUIImageRenderManager::GetSingleton
  0027f	8b c8		 mov	 ecx, eax
  00281	e8 00 00 00 00	 call	 ?GetGradeTextColor@ioUIImageRenderManager@@QAEKH@Z ; ioUIImageRenderManager::GetGradeTextColor
  00286	50		 push	 eax
  00287	8d 8e 88 04 00
	00		 lea	 ecx, DWORD PTR [esi+1160]
  0028d	e8 00 00 00 00	 call	 ?SetTextColor@ioComplexStringPrinter@@QAEXK@Z ; ioComplexStringPrinter::SetTextColor

; 99   : 	m_SoldierInfo[0].AddTextPiece( FONT_SIZE_12, STR(1), g_MyInfo.GetClassLevel( m_CharInfo.m_class_type, false ), szClassName.c_str()  );

  00292	8d 85 e8 fe ff
	ff		 lea	 eax, DWORD PTR _value$519186[ebp]
  00298	50		 push	 eax
  00299	8d 8e 60 01 00
	00		 lea	 ecx, DWORD PTR [esi+352]
  0029f	e8 00 00 00 00	 call	 ?DecryptValueToPool@?$CEncrypt@H@@QAEXPAH@Z ; CEncrypt<int>::DecryptValueToPool
  002a4	8d 8d b8 fe ff
	ff		 lea	 ecx, DWORD PTR _$S1$[ebp]
  002aa	ff 15 00 00 00
	00		 call	 DWORD PTR __imp_?c_str@ioHashString@@QBEPBDXZ
  002b0	50		 push	 eax
  002b1	53		 push	 ebx
  002b2	ff b5 e8 fe ff
	ff		 push	 DWORD PTR _value$519186[ebp]
  002b8	e8 00 00 00 00	 call	 ?GetSingleton@ioMyInfo@@SAAAV1@XZ ; ioMyInfo::GetSingleton
  002bd	8b c8		 mov	 ecx, eax
  002bf	e8 00 00 00 00	 call	 ?GetClassLevel@ioMyInfo@@QAEHH_N@Z ; ioMyInfo::GetClassLevel
  002c4	50		 push	 eax
  002c5	53		 push	 ebx
  002c6	6a 01		 push	 1
  002c8	68 00 00 00 00	 push	 OFFSET ??_C@_00CNPNBAHC@?$AA@
  002cd	68 00 00 00 00	 push	 OFFSET ??_C@_0CF@JHKELNL@HeroReinforceDownWnd?3?3SetSoldier@
  002d2	ff 15 00 00 00
	00		 call	 DWORD PTR __imp_?GetSingleton@ioStringManager@@SAAAV1@XZ
  002d8	8b c8		 mov	 ecx, eax
  002da	ff 15 00 00 00
	00		 call	 DWORD PTR __imp_?GetString@ioStringManager@@QAEPADPBD0HW4FileNamePrefix@1@@Z
  002e0	f3 0f 10 05 00
	00 00 00	 movss	 xmm0, DWORD PTR __real@3f19999a
  002e8	50		 push	 eax
  002e9	51		 push	 ecx
  002ea	8d 8e 88 04 00
	00		 lea	 ecx, DWORD PTR [esi+1160]
  002f0	f3 0f 11 04 24	 movss	 DWORD PTR [esp], xmm0
  002f5	e8 00 00 00 00	 call	 ?AddTextPiece@ioComplexStringPrinter@@QAEXMPBDH0@Z ; ioComplexStringPrinter::AddTextPiece

; 100  : 
; 101  : 	//영구 용병
; 102  : 	m_SoldierInfo[1].SetTextStyle( TS_NORMAL );

  002fa	8d 8e a8 04 00
	00		 lea	 ecx, DWORD PTR [esi+1192]
  00300	53		 push	 ebx
  00301	e8 00 00 00 00	 call	 ?SetTextStyle@ioComplexStringPrinter@@QAEXW4TextStyle@@@Z ; ioComplexStringPrinter::SetTextStyle

; 103  : 	m_SoldierInfo[1].SetBkColor( 0, 0, 0 );	

  00306	53		 push	 ebx
  00307	53		 push	 ebx
  00308	53		 push	 ebx
  00309	8d 8e a8 04 00
	00		 lea	 ecx, DWORD PTR [esi+1192]
  0030f	e8 00 00 00 00	 call	 ?SetBkColor@ioComplexStringPrinter@@QAEXHHH@Z ; ioComplexStringPrinter::SetBkColor

; 104  : 	m_SoldierInfo[1].SetTextColor( TCT_DEFAULT_BLUE );

  00314	68 b2 46 16 ff	 push	 -15317326		; ff1646b2H
  00319	8d 8e a8 04 00
	00		 lea	 ecx, DWORD PTR [esi+1192]
  0031f	e8 00 00 00 00	 call	 ?SetTextColor@ioComplexStringPrinter@@QAEXK@Z ; ioComplexStringPrinter::SetTextColor

; 105  : 	m_SoldierInfo[1].AddTextPiece( FONT_SIZE_12, szText );

  00324	f3 0f 10 05 00
	00 00 00	 movss	 xmm0, DWORD PTR __real@3f19999a
  0032c	8d 85 ec fe ff
	ff		 lea	 eax, DWORD PTR _szText$[ebp]
  00332	50		 push	 eax
  00333	51		 push	 ecx
  00334	8d 86 a8 04 00
	00		 lea	 eax, DWORD PTR [esi+1192]
  0033a	f3 0f 11 04 24	 movss	 DWORD PTR [esp], xmm0
  0033f	50		 push	 eax
  00340	e8 00 00 00 00	 call	 ?AddTextPiece@ioComplexStringPrinter@@QAAXMPBDZZ ; ioComplexStringPrinter::AddTextPiece
  00345	83 c4 0c	 add	 esp, 12			; 0000000cH

; 106  : 
; 107  : 	for( int i=0; i < SOLDIER_REINFORCE_INFO_CNT; ++i )

  00348	8d 86 c8 04 00
	00		 lea	 eax, DWORD PTR [esi+1224]
  0034e	89 9d e4 fe ff
	ff		 mov	 DWORD PTR _i$516003[ebp], ebx
  00354	89 85 e8 fe ff
	ff		 mov	 DWORD PTR tv438[ebp], eax
$LL3@SetSoldier:

; 108  : 		g_PowerUpManager.SetCharGardePrinter( m_CharInfo.m_class_type, i,  FONT_SIZE_12, m_SoldierReinforceInfo[i] );

  0035a	8d 85 c8 fe ff
	ff		 lea	 eax, DWORD PTR _value$519191[ebp]
  00360	50		 push	 eax
  00361	8d 8e 60 01 00
	00		 lea	 ecx, DWORD PTR [esi+352]
  00367	e8 00 00 00 00	 call	 ?DecryptValueToPool@?$CEncrypt@H@@QAEXPAH@Z ; CEncrypt<int>::DecryptValueToPool
  0036c	ff b5 e8 fe ff
	ff		 push	 DWORD PTR tv438[ebp]
  00372	f3 0f 10 05 00
	00 00 00	 movss	 xmm0, DWORD PTR __real@3f19999a
  0037a	51		 push	 ecx
  0037b	f3 0f 11 04 24	 movss	 DWORD PTR [esp], xmm0
  00380	ff b5 e4 fe ff
	ff		 push	 DWORD PTR _i$516003[ebp]
  00386	ff b5 c8 fe ff
	ff		 push	 DWORD PTR _value$519191[ebp]
  0038c	e8 00 00 00 00	 call	 ?GetSingleton@ioPowerUpManager@@SAAAV1@XZ ; ioPowerUpManager::GetSingleton
  00391	8b c8		 mov	 ecx, eax
  00393	e8 00 00 00 00	 call	 ?SetCharGardePrinter@ioPowerUpManager@@QAEXHHMAAVioComplexStringPrinter@@@Z ; ioPowerUpManager::SetCharGardePrinter
  00398	ff 85 e4 fe ff
	ff		 inc	 DWORD PTR _i$516003[ebp]
  0039e	83 85 e8 fe ff
	ff 20		 add	 DWORD PTR tv438[ebp], 32 ; 00000020H
  003a5	83 bd e4 fe ff
	ff 04		 cmp	 DWORD PTR _i$516003[ebp], 4
  003ac	7c ac		 jl	 SHORT $LL3@SetSoldier

; 109  : 
; 110  : 	memset( szText, 0, sizeof(szText) );

  003ae	57		 push	 edi
  003af	8d 85 ec fe ff
	ff		 lea	 eax, DWORD PTR _szText$[ebp]
  003b5	53		 push	 ebx
  003b6	50		 push	 eax
  003b7	e8 00 00 00 00	 call	 _memset
  003bc	83 c4 0c	 add	 esp, 12			; 0000000cH

; 111  : 	//SafeSprintf( szText, sizeof( szText ), STR(3), iSoulStoneCount );
; 112  : 
; 113  : 	m_SoulStonePrinter.SetTextStyle( TS_NORMAL );

  003bf	8d 8e 48 05 00
	00		 lea	 ecx, DWORD PTR [esi+1352]
  003c5	53		 push	 ebx
  003c6	e8 00 00 00 00	 call	 ?SetTextStyle@ioComplexStringPrinter@@QAEXW4TextStyle@@@Z ; ioComplexStringPrinter::SetTextStyle

; 114  : 	m_SoulStonePrinter.SetBkColor( 0, 0, 0 );	

  003cb	53		 push	 ebx
  003cc	53		 push	 ebx
  003cd	53		 push	 ebx
  003ce	8d 8e 48 05 00
	00		 lea	 ecx, DWORD PTR [esi+1352]
  003d4	e8 00 00 00 00	 call	 ?SetBkColor@ioComplexStringPrinter@@QAEXHHH@Z ; ioComplexStringPrinter::SetBkColor

; 115  : 	m_SoulStonePrinter.SetTextColor( TCT_DEFAULT_RED );

  003d9	68 00 16 b9 ff	 push	 -4647424		; ffb91600H
  003de	8d 8e 48 05 00
	00		 lea	 ecx, DWORD PTR [esi+1352]
  003e4	e8 00 00 00 00	 call	 ?SetTextColor@ioComplexStringPrinter@@QAEXK@Z ; ioComplexStringPrinter::SetTextColor

; 116  : 	SafeSprintf( szText, sizeof( szText ), STR(3) , iSoulStoneCount );

  003e9	ff b5 dc fe ff
	ff		 push	 DWORD PTR _iSoulStoneCount$[ebp]
  003ef	53		 push	 ebx
  003f0	6a 03		 push	 3
  003f2	68 00 00 00 00	 push	 OFFSET ??_C@_00CNPNBAHC@?$AA@
  003f7	68 00 00 00 00	 push	 OFFSET ??_C@_0CF@JHKELNL@HeroReinforceDownWnd?3?3SetSoldier@
  003fc	ff 15 00 00 00
	00		 call	 DWORD PTR __imp_?GetSingleton@ioStringManager@@SAAAV1@XZ
  00402	8b c8		 mov	 ecx, eax
  00404	ff 15 00 00 00
	00		 call	 DWORD PTR __imp_?GetString@ioStringManager@@QAEPADPBD0HW4FileNamePrefix@1@@Z
  0040a	50		 push	 eax
  0040b	8d 85 ec fe ff
	ff		 lea	 eax, DWORD PTR _szText$[ebp]
  00411	57		 push	 edi
  00412	50		 push	 eax
  00413	ff 15 00 00 00
	00		 call	 DWORD PTR __imp_?SafeSprintf@@YAXPADHPBDH@Z

; 117  : 	m_SoulStonePrinter.AddTextPiece( FONT_SIZE_12, szText );

  00419	f3 0f 10 05 00
	00 00 00	 movss	 xmm0, DWORD PTR __real@3f19999a
  00421	83 c4 10	 add	 esp, 16			; 00000010H
  00424	8d 85 ec fe ff
	ff		 lea	 eax, DWORD PTR _szText$[ebp]
  0042a	50		 push	 eax
  0042b	51		 push	 ecx
  0042c	8d 86 48 05 00
	00		 lea	 eax, DWORD PTR [esi+1352]
  00432	f3 0f 11 04 24	 movss	 DWORD PTR [esp], xmm0
  00437	50		 push	 eax
  00438	e8 00 00 00 00	 call	 ?AddTextPiece@ioComplexStringPrinter@@QAAXMPBDZZ ; ioComplexStringPrinter::AddTextPiece
  0043d	83 c4 0c	 add	 esp, 12			; 0000000cH

; 118  : 
; 119  : 	m_SoldierSelectPrinter.SetTextStyle( TS_NORMAL );

  00440	81 c6 68 05 00
	00		 add	 esi, 1384		; 00000568H
  00446	53		 push	 ebx
  00447	8b ce		 mov	 ecx, esi
  00449	e8 00 00 00 00	 call	 ?SetTextStyle@ioComplexStringPrinter@@QAEXW4TextStyle@@@Z ; ioComplexStringPrinter::SetTextStyle

; 120  : 	m_SoldierSelectPrinter.SetBkColor( 0, 0, 0 );

  0044e	53		 push	 ebx
  0044f	53		 push	 ebx
  00450	53		 push	 ebx
  00451	8b ce		 mov	 ecx, esi
  00453	e8 00 00 00 00	 call	 ?SetBkColor@ioComplexStringPrinter@@QAEXHHH@Z ; ioComplexStringPrinter::SetBkColor

; 121  : 	m_SoldierSelectPrinter.SetTextColor( g_UIImageRenderMgr.GetGradeTextColor( g_UIImageRenderMgr.GetPowerUpGradeType( iClassType ) ) );

  00458	ff b5 e0 fe ff
	ff		 push	 DWORD PTR _iClassType$GSCopy$[ebp]
  0045e	e8 00 00 00 00	 call	 ?GetSingleton@ioUIImageRenderManager@@SAAAV1@XZ ; ioUIImageRenderManager::GetSingleton
  00463	8b c8		 mov	 ecx, eax
  00465	e8 00 00 00 00	 call	 ?GetPowerUpGradeType@ioUIImageRenderManager@@QAEHH@Z ; ioUIImageRenderManager::GetPowerUpGradeType
  0046a	50		 push	 eax
  0046b	e8 00 00 00 00	 call	 ?GetSingleton@ioUIImageRenderManager@@SAAAV1@XZ ; ioUIImageRenderManager::GetSingleton
  00470	8b c8		 mov	 ecx, eax
  00472	e8 00 00 00 00	 call	 ?GetGradeTextColor@ioUIImageRenderManager@@QAEKH@Z ; ioUIImageRenderManager::GetGradeTextColor
  00477	50		 push	 eax
  00478	8b ce		 mov	 ecx, esi
  0047a	e8 00 00 00 00	 call	 ?SetTextColor@ioComplexStringPrinter@@QAEXK@Z ; ioComplexStringPrinter::SetTextColor

; 122  : 	m_SoldierSelectPrinter.AddTextPiece( FONT_SIZE_12, szClassName.c_str() );

  0047f	8d 8d b8 fe ff
	ff		 lea	 ecx, DWORD PTR _$S1$[ebp]
  00485	ff 15 00 00 00
	00		 call	 DWORD PTR __imp_?c_str@ioHashString@@QBEPBDXZ
  0048b	f3 0f 10 05 00
	00 00 00	 movss	 xmm0, DWORD PTR __real@3f19999a
  00493	50		 push	 eax
  00494	51		 push	 ecx
  00495	f3 0f 11 04 24	 movss	 DWORD PTR [esp], xmm0
  0049a	56		 push	 esi
  0049b	e8 00 00 00 00	 call	 ?AddTextPiece@ioComplexStringPrinter@@QAAXMPBDZZ ; ioComplexStringPrinter::AddTextPiece
  004a0	83 c4 0c	 add	 esp, 12			; 0000000cH

; 123  : }

  004a3	8d 8d b8 fe ff
	ff		 lea	 ecx, DWORD PTR _$S1$[ebp]
$LN32@SetSoldier:
  004a9	83 4d fc ff	 or	 DWORD PTR __$EHRec$[ebp+8], -1
  004ad	ff 15 00 00 00
	00		 call	 DWORD PTR __imp_??1ioHashString@@QAE@XZ
$LN11@SetSoldier:
  004b3	e8 00 00 00 00	 call	 __EH_epilog3_GS
  004b8	c2 04 00	 ret	 4
_TEXT	ENDS
;	COMDAT text$x
text$x	SEGMENT
__unwindfunclet$?SetSoldierInfo@HeroReinforceDownWnd@@QAEXH@Z$0:
  00000	8d 8d cc fe ff
	ff		 lea	 ecx, DWORD PTR _szGradeTitle$515998[ebp]
  00006	ff 25 00 00 00
	00		 jmp	 DWORD PTR __imp_??1ioHashString@@QAE@XZ
__unwindfunclet$?SetSoldierInfo@HeroReinforceDownWnd@@QAEXH@Z$1:
  0000c	8d 8d b8 fe ff
	ff		 lea	 ecx, DWORD PTR _$S1$[ebp]
  00012	ff 25 00 00 00
	00		 jmp	 DWORD PTR __imp_??1ioHashString@@QAE@XZ
__ehhandler$?SetSoldierInfo@HeroReinforceDownWnd@@QAEXH@Z:
  00018	8b 54 24 08	 mov	 edx, DWORD PTR [esp+8]
  0001c	8d 42 0c	 lea	 eax, DWORD PTR [edx+12]
  0001f	8b 8a b4 fe ff
	ff		 mov	 ecx, DWORD PTR [edx-332]
  00025	33 c8		 xor	 ecx, eax
  00027	e8 00 00 00 00	 call	 @__security_check_cookie@4
  0002c	8b 4a fc	 mov	 ecx, DWORD PTR [edx-4]
  0002f	33 c8		 xor	 ecx, eax
  00031	e8 00 00 00 00	 call	 @__security_check_cookie@4
  00036	b8 00 00 00 00	 mov	 eax, OFFSET __ehfuncinfo$?SetSoldierInfo@HeroReinforceDownWnd@@QAEXH@Z
  0003b	e9 00 00 00 00	 jmp	 ___CxxFrameHandler3
text$x	ENDS
?SetSoldierInfo@HeroReinforceDownWnd@@QAEXH@Z ENDP	; HeroReinforceDownWnd::SetSoldierInfo
PUBLIC	??_R0?AVPowerUpSelectWnd@@@8			; PowerUpSelectWnd `RTTI Type Descriptor'
PUBLIC	__real@3f266666
PUBLIC	??_C@_0CC@MNPLCDNJ@HeroReinforceDownWnd?3?3iwm_comman@ ; `string'
PUBLIC	??_R0?AVMyInventoryWnd@@@8			; MyInventoryWnd `RTTI Type Descriptor'
PUBLIC	??_R0?AVioEtcItem@@@8				; ioEtcItem `RTTI Type Descriptor'
PUBLIC	??_R0?AVioEtcItemSoulStone@@@8			; ioEtcItemSoulStone `RTTI Type Descriptor'
PUBLIC	??_R0?AVSoulStoneBuyWnd@@@8			; SoulStoneBuyWnd `RTTI Type Descriptor'
PUBLIC	_this$GSCopy$
EXTRN	?ShowSubWnd@PowerUpSelectWnd@@QAEXH@Z:PROC	; PowerUpSelectWnd::ShowSubWnd
EXTRN	__imp_?GoToTop@ioWnd@@QAEXXZ:PROC
EXTRN	__imp_?IsShow@ioWnd@@QBE_NXZ:PROC
EXTRN	?SetPrevMsgListBox@ioSP2GUIManager@@QAEXPAVioWnd@@H0PAVioComplexStringPrinter@@@Z:PROC ; ioSP2GUIManager::SetPrevMsgListBox
EXTRN	??_L@YGXPAXIHP6EX0@Z1@Z:PROC			; `eh vector constructor iterator'
EXTRN	??0ioComplexStringPrinter@@QAE@XZ:PROC		; ioComplexStringPrinter::ioComplexStringPrinter
EXTRN	?ShowBuyWnd@SoulStoneBuyWnd@@QAEXHH@Z:PROC	; SoulStoneBuyWnd::ShowBuyWnd
EXTRN	?SetMsgBox@ioSP2GUIManager@@QAAXHPAVioWnd@@PBDZZ:PROC ; ioSP2GUIManager::SetMsgBox
EXTRN	?OnUseCharPowerUp@ioEtcItemSoulStone@@QAEXH@Z:PROC ; ioEtcItemSoulStone::OnUseCharPowerUp
EXTRN	?FindEtcItem@ioEtcItemManager@@QAEPAVioEtcItem@@K@Z:PROC ; ioEtcItemManager::FindEtcItem
EXTRN	?GetCharIndexByClassType@ioMyInfo@@QAEKH@Z:PROC	; ioMyInfo::GetCharIndexByClassType
EXTRN	?CheckEnableCharPowerUp@ioPowerUpManager@@QAE_NHAAVioHashString@@@Z:PROC ; ioPowerUpManager::CheckEnableCharPowerUp
EXTRN	__imp_??0ioHashString@@QAE@XZ:PROC
EXTRN	__imp_?FindWnd@ioGUIManager@@QAEPAVioWnd@@K@Z:PROC
EXTRN	?GetSingleton@ioSP2GUIManager@@SAAAV1@XZ:PROC	; ioSP2GUIManager::GetSingleton
EXTRN	?CheckEnableSoulStone@ioPowerUpManager@@QAE_NHHAAH0@Z:PROC ; ioPowerUpManager::CheckEnableSoulStone
EXTRN	__imp_?GetID@ioWnd@@QBEKXZ:PROC
;	COMDAT ??_R0?AVPowerUpSelectWnd@@@8
; File d:\lost saga for developer\youtube\tutorial\source\src\io3dengine\iosingleton.h
_DATA	SEGMENT
??_R0?AVPowerUpSelectWnd@@@8 DD FLAT:??_7type_info@@6B@	; PowerUpSelectWnd `RTTI Type Descriptor'
	DD	00H
	DB	'.?AVPowerUpSelectWnd@@', 00H
_DATA	ENDS
;	COMDAT __real@3f266666
CONST	SEGMENT
__real@3f266666 DD 03f266666r			; 0.65
CONST	ENDS
;	COMDAT ??_C@_0CC@MNPLCDNJ@HeroReinforceDownWnd?3?3iwm_comman@
CONST	SEGMENT
??_C@_0CC@MNPLCDNJ@HeroReinforceDownWnd?3?3iwm_comman@ DB 'HeroReinforceD'
	DB	'ownWnd::iwm_command', 00H			; `string'
CONST	ENDS
;	COMDAT ??_R0?AVMyInventoryWnd@@@8
_DATA	SEGMENT
??_R0?AVMyInventoryWnd@@@8 DD FLAT:??_7type_info@@6B@	; MyInventoryWnd `RTTI Type Descriptor'
	DD	00H
	DB	'.?AVMyInventoryWnd@@', 00H
_DATA	ENDS
;	COMDAT ??_R0?AVioEtcItem@@@8
_DATA	SEGMENT
??_R0?AVioEtcItem@@@8 DD FLAT:??_7type_info@@6B@	; ioEtcItem `RTTI Type Descriptor'
	DD	00H
	DB	'.?AVioEtcItem@@', 00H
_DATA	ENDS
;	COMDAT ??_R0?AVioEtcItemSoulStone@@@8
_DATA	SEGMENT
??_R0?AVioEtcItemSoulStone@@@8 DD FLAT:??_7type_info@@6B@ ; ioEtcItemSoulStone `RTTI Type Descriptor'
	DD	00H
	DB	'.?AVioEtcItemSoulStone@@', 00H
_DATA	ENDS
;	COMDAT ??_R0?AVSoulStoneBuyWnd@@@8
_DATA	SEGMENT
??_R0?AVSoulStoneBuyWnd@@@8 DD FLAT:??_7type_info@@6B@	; SoulStoneBuyWnd `RTTI Type Descriptor'
	DD	00H
	DB	'.?AVSoulStoneBuyWnd@@', 00H
_DATA	ENDS
;	COMDAT xdata$x
xdata$x	SEGMENT
__unwindtable$?iwm_command@HeroReinforceDownWnd@@UAEXPAVioWnd@@HK@Z DD 0ffffffffH
	DD	FLAT:__unwindfunclet$?iwm_command@HeroReinforceDownWnd@@UAEXPAVioWnd@@HK@Z$0
	DD	0ffffffffH
	DD	FLAT:__unwindfunclet$?iwm_command@HeroReinforceDownWnd@@UAEXPAVioWnd@@HK@Z$1
__ehfuncinfo$?iwm_command@HeroReinforceDownWnd@@UAEXPAVioWnd@@HK@Z DD 019930522H
	DD	02H
	DD	FLAT:__unwindtable$?iwm_command@HeroReinforceDownWnd@@UAEXPAVioWnd@@HK@Z
	DD	2 DUP(00H)
	DD	2 DUP(00H)
	DD	00H
	DD	01H
; Function compile flags: /Ogsp
; File d:\lost saga for developer\youtube\tutorial\source\src\lsclient\gui\heroreinforcedownwnd.cpp
xdata$x	ENDS
;	COMDAT ?iwm_command@HeroReinforceDownWnd@@UAEXPAVioWnd@@HK@Z
_TEXT	SEGMENT
_szError$516064 = -700					; size = 16
_iCurMtrlCount$516059 = -684				; size = 4
_iUseMtrlCount$516058 = -680				; size = 4
_this$GSCopy$ = -676					; size = 4
_iCurMtrlCount$516041 = -672				; size = 4
_value$519245 = -668					; size = 4
_value$519220 = -668					; size = 4
_value$519250 = -664					; size = 4
_iUseMtrlCount$516040 = -664				; size = 4
_kPrinter$516047 = -660					; size = 384
_szBuf$516051 = -276					; size = 260
__$EHRec$ = -12						; size = 12
_pWnd$ = 8						; size = 4
_cmd$ = 12						; size = 4
_param$ = 16						; size = 4
?iwm_command@HeroReinforceDownWnd@@UAEXPAVioWnd@@HK@Z PROC ; HeroReinforceDownWnd::iwm_command, COMDAT
; _this$ = ecx

; 126  : {

  00000	68 b0 02 00 00	 push	 688			; 000002b0H
  00005	b8 00 00 00 00	 mov	 eax, __ehhandler$?iwm_command@HeroReinforceDownWnd@@UAEXPAVioWnd@@HK@Z
  0000a	e8 00 00 00 00	 call	 __EH_prolog3_GS
  0000f	8b f1		 mov	 esi, ecx
  00011	8b 4d 08	 mov	 ecx, DWORD PTR _pWnd$[ebp]

; 173  : 			}
; 174  : 
; 175  : 			ioComplexStringPrinter kPrinter[MAX_MSG_LIST_SIZE];

  00014	89 b5 5c fd ff
	ff		 mov	 DWORD PTR _this$GSCopy$[ebp], esi
  0001a	ff 15 00 00 00
	00		 call	 DWORD PTR __imp_?GetID@ioWnd@@QBEKXZ
  00020	83 e8 64	 sub	 eax, 100		; 00000064H
  00023	0f 84 b3 03 00
	00		 je	 $LN20@iwm_comman

; 127  : 	DWORD dwID = pWnd->GetID();	
; 128  : 	switch( dwID )

  00029	48		 dec	 eax
  0002a	0f 84 26 01 00
	00		 je	 $LN15@iwm_comman
  00030	2d ad 26 00 00	 sub	 eax, 9901		; 000026adH
  00035	0f 85 f2 03 00
	00		 jne	 $LN16@iwm_comman

; 192  : 	case MESSAGE_BOX3:
; 193  : 		{
; 194  : 			if( cmd == IOBN_BTNUP )

  0003b	83 7d 0c 11	 cmp	 DWORD PTR _cmd$[ebp], 17 ; 00000011H
  0003f	0f 85 e8 03 00
	00		 jne	 $LN16@iwm_comman

; 195  : 			{
; 196  : 				if( param == IDYES )

  00045	83 7d 10 06	 cmp	 DWORD PTR _param$[ebp], 6
  00049	0f 85 de 03 00
	00		 jne	 $LN16@iwm_comman

; 197  : 				{
; 198  : 					int iClassType	= m_CharInfo.m_class_type;

  0004f	8d 85 68 fd ff
	ff		 lea	 eax, DWORD PTR _value$519250[ebp]
  00055	50		 push	 eax
  00056	8d 8e 60 01 00
	00		 lea	 ecx, DWORD PTR [esi+352]
  0005c	e8 00 00 00 00	 call	 ?DecryptValueToPool@?$CEncrypt@H@@QAEXPAH@Z ; CEncrypt<int>::DecryptValueToPool

; 199  : 					int iUseMtrlCount,iCurMtrlCount;
; 200  : 					if( !g_PowerUpManager.CheckEnableSoulStone( ioPowerUpManager::PIT_HERO ,iClassType, iUseMtrlCount, iCurMtrlCount ) )

  00061	8d 85 54 fd ff
	ff		 lea	 eax, DWORD PTR _iCurMtrlCount$516059[ebp]
  00067	50		 push	 eax
  00068	8d 85 58 fd ff
	ff		 lea	 eax, DWORD PTR _iUseMtrlCount$516058[ebp]
  0006e	50		 push	 eax
  0006f	ff b5 68 fd ff
	ff		 push	 DWORD PTR _value$519250[ebp]
  00075	33 f6		 xor	 esi, esi
  00077	56		 push	 esi
  00078	e8 00 00 00 00	 call	 ?GetSingleton@ioPowerUpManager@@SAAAV1@XZ ; ioPowerUpManager::GetSingleton
  0007d	8b c8		 mov	 ecx, eax
  0007f	e8 00 00 00 00	 call	 ?CheckEnableSoulStone@ioPowerUpManager@@QAE_NHHAAH0@Z ; ioPowerUpManager::CheckEnableSoulStone
  00084	84 c0		 test	 al, al
  00086	75 40		 jne	 SHORT $LN4@iwm_comman

; 201  : 					{
; 202  : 						SoulStoneBuyWnd *pSoulstoneBuyWnd = dynamic_cast<SoulStoneBuyWnd*> ( g_GUIMgr.FindWnd( SOULSTONE_BUY_WND ) );

  00088	56		 push	 esi
  00089	68 00 00 00 00	 push	 OFFSET ??_R0?AVSoulStoneBuyWnd@@@8
  0008e	68 00 00 00 00	 push	 OFFSET ??_R0?AVioWnd@@@8
  00093	56		 push	 esi
  00094	68 6e 18 00 00	 push	 6254			; 0000186eH
  00099	e8 00 00 00 00	 call	 ?GetSingleton@ioSP2GUIManager@@SAAAV1@XZ ; ioSP2GUIManager::GetSingleton
  0009e	8b c8		 mov	 ecx, eax
  000a0	ff 15 00 00 00
	00		 call	 DWORD PTR __imp_?FindWnd@ioGUIManager@@QAEPAVioWnd@@K@Z
  000a6	50		 push	 eax
  000a7	e8 00 00 00 00	 call	 ___RTDynamicCast
  000ac	83 c4 14	 add	 esp, 20			; 00000014H

; 203  : 						if ( pSoulstoneBuyWnd )

  000af	3b c6		 cmp	 eax, esi
  000b1	0f 84 76 03 00
	00		 je	 $LN16@iwm_comman

; 204  : 							pSoulstoneBuyWnd->ShowBuyWnd( iUseMtrlCount, iCurMtrlCount );

  000b7	ff b5 54 fd ff
	ff		 push	 DWORD PTR _iCurMtrlCount$516059[ebp]
  000bd	ff b5 58 fd ff
	ff		 push	 DWORD PTR _iUseMtrlCount$516058[ebp]

; 205  : 						break;

  000c3	e9 bb 01 00 00	 jmp	 $LN49@iwm_comman
$LN4@iwm_comman:

; 206  : 					}
; 207  : 
; 208  : 					ioHashString szError;

  000c8	8d 8d 44 fd ff
	ff		 lea	 ecx, DWORD PTR _szError$516064[ebp]
  000ce	ff 15 00 00 00
	00		 call	 DWORD PTR __imp_??0ioHashString@@QAE@XZ

; 209  : 					if( g_PowerUpManager.CheckEnableCharPowerUp( iClassType, szError ) )

  000d4	8d 85 44 fd ff
	ff		 lea	 eax, DWORD PTR _szError$516064[ebp]
  000da	50		 push	 eax
  000db	ff b5 68 fd ff
	ff		 push	 DWORD PTR _value$519250[ebp]
  000e1	c7 45 fc 01 00
	00 00		 mov	 DWORD PTR __$EHRec$[ebp+8], 1
  000e8	e8 00 00 00 00	 call	 ?GetSingleton@ioPowerUpManager@@SAAAV1@XZ ; ioPowerUpManager::GetSingleton
  000ed	8b c8		 mov	 ecx, eax
  000ef	e8 00 00 00 00	 call	 ?CheckEnableCharPowerUp@ioPowerUpManager@@QAE_NHAAVioHashString@@@Z ; ioPowerUpManager::CheckEnableCharPowerUp
  000f4	84 c0		 test	 al, al
  000f6	74 49		 je	 SHORT $LN1@iwm_comman

; 210  : 					{
; 211  : 						//CheckEnableCharPowerUp함수에서 유효한 값인지 체크됨
; 212  : 						int iCharIndex = g_MyInfo.GetCharIndexByClassType( iClassType );

  000f8	ff b5 68 fd ff
	ff		 push	 DWORD PTR _value$519250[ebp]
  000fe	e8 00 00 00 00	 call	 ?GetSingleton@ioMyInfo@@SAAAV1@XZ ; ioMyInfo::GetSingleton
  00103	8b c8		 mov	 ecx, eax
  00105	e8 00 00 00 00	 call	 ?GetCharIndexByClassType@ioMyInfo@@QAEKH@Z ; ioMyInfo::GetCharIndexByClassType
  0010a	8b f8		 mov	 edi, eax

; 213  : 						ioEtcItemSoulStone* pEtcItem = dynamic_cast<ioEtcItemSoulStone*>( g_EtcItemMgr.FindEtcItem( g_PowerUpManager.GetMtrlEtcItemCode() ) );

  0010c	e8 00 00 00 00	 call	 ?GetSingleton@ioPowerUpManager@@SAAAV1@XZ ; ioPowerUpManager::GetSingleton
  00111	8b 40 34	 mov	 eax, DWORD PTR [eax+52]
  00114	8b 0d 00 00 00
	00		 mov	 ecx, DWORD PTR ?ms_Singleton@?$Singleton@VioEtcItemManager@@@@1PAVioEtcItemManager@@A ; Singleton<ioEtcItemManager>::ms_Singleton
  0011a	56		 push	 esi
  0011b	68 00 00 00 00	 push	 OFFSET ??_R0?AVioEtcItemSoulStone@@@8
  00120	68 00 00 00 00	 push	 OFFSET ??_R0?AVioEtcItem@@@8
  00125	56		 push	 esi
  00126	50		 push	 eax
  00127	e8 00 00 00 00	 call	 ?FindEtcItem@ioEtcItemManager@@QAEPAVioEtcItem@@K@Z ; ioEtcItemManager::FindEtcItem
  0012c	50		 push	 eax
  0012d	e8 00 00 00 00	 call	 ___RTDynamicCast
  00132	83 c4 14	 add	 esp, 20			; 00000014H

; 214  : 						if( pEtcItem )

  00135	3b c6		 cmp	 eax, esi
  00137	74 08		 je	 SHORT $LN1@iwm_comman

; 215  : 						{
; 216  : 							pEtcItem->OnUseCharPowerUp( iCharIndex );

  00139	57		 push	 edi
  0013a	8b c8		 mov	 ecx, eax
  0013c	e8 00 00 00 00	 call	 ?OnUseCharPowerUp@ioEtcItemSoulStone@@QAEXH@Z ; ioEtcItemSoulStone::OnUseCharPowerUp
$LN1@iwm_comman:

; 217  : 						}
; 218  : 					}
; 219  : 				}

  00141	83 4d fc ff	 or	 DWORD PTR __$EHRec$[ebp+8], -1
  00145	8d 8d 44 fd ff
	ff		 lea	 ecx, DWORD PTR _szError$516064[ebp]
  0014b	ff 15 00 00 00
	00		 call	 DWORD PTR __imp_??1ioHashString@@QAE@XZ

; 220  : 			}
; 221  : 		}
; 222  : 		break;

  00151	e9 d7 02 00 00	 jmp	 $LN16@iwm_comman
$LN15@iwm_comman:

; 140  : 			}
; 141  : 		}
; 142  : 		break;
; 143  : 
; 144  : 	case ID_REINFORCE_BTN:
; 145  : 		if( cmd == IOBN_BTNUP )

  00156	83 7d 0c 11	 cmp	 DWORD PTR _cmd$[ebp], 17 ; 00000011H
  0015a	0f 85 cd 02 00
	00		 jne	 $LN16@iwm_comman

; 146  : 		{
; 147  : 			int iCharArray = g_MyInfo.GetClassArray( m_CharInfo.m_class_type );

  00160	8d 85 64 fd ff
	ff		 lea	 eax, DWORD PTR _value$519220[ebp]
  00166	8d be 60 01 00
	00		 lea	 edi, DWORD PTR [esi+352]
  0016c	50		 push	 eax
  0016d	8b cf		 mov	 ecx, edi
  0016f	e8 00 00 00 00	 call	 ?DecryptValueToPool@?$CEncrypt@H@@QAEXPAH@Z ; CEncrypt<int>::DecryptValueToPool
  00174	ff b5 64 fd ff
	ff		 push	 DWORD PTR _value$519220[ebp]
  0017a	e8 00 00 00 00	 call	 ?GetSingleton@ioMyInfo@@SAAAV1@XZ ; ioMyInfo::GetSingleton
  0017f	8b c8		 mov	 ecx, eax
  00181	e8 00 00 00 00	 call	 ?GetClassArray@ioMyInfo@@QAEHH@Z ; ioMyInfo::GetClassArray
  00186	8b d8		 mov	 ebx, eax

; 148  : 			if( iCharArray == g_MyInfo.GetSelectCharArray() )

  00188	e8 00 00 00 00	 call	 ?GetSingleton@ioMyInfo@@SAAAV1@XZ ; ioMyInfo::GetSingleton
  0018d	8b 80 c8 00 00
	00		 mov	 eax, DWORD PTR [eax+200]
  00193	33 f6		 xor	 esi, esi
  00195	3b d8		 cmp	 ebx, eax
  00197	8b 1d 00 00 00
	00		 mov	 ebx, DWORD PTR __imp_?FindWnd@ioGUIManager@@QAEPAVioWnd@@K@Z
  0019d	75 7a		 jne	 SHORT $LN10@iwm_comman

; 149  : 			{
; 150  : 				bool bCheck = true;
; 151  : 				MyInventoryWnd *pInvenWnd = dynamic_cast<MyInventoryWnd*>(g_GUIMgr.FindWnd(MY_INVENTORY_WND));

  0019f	56		 push	 esi
  001a0	68 00 00 00 00	 push	 OFFSET ??_R0?AVMyInventoryWnd@@@8
  001a5	68 00 00 00 00	 push	 OFFSET ??_R0?AVioWnd@@@8
  001aa	56		 push	 esi
  001ab	68 96 17 00 00	 push	 6038			; 00001796H
  001b0	e8 00 00 00 00	 call	 ?GetSingleton@ioSP2GUIManager@@SAAAV1@XZ ; ioSP2GUIManager::GetSingleton
  001b5	8b c8		 mov	 ecx, eax
  001b7	ff d3		 call	 ebx
  001b9	50		 push	 eax
  001ba	e8 00 00 00 00	 call	 ___RTDynamicCast
  001bf	83 c4 14	 add	 esp, 20			; 00000014H

; 152  : 				if( pInvenWnd && pInvenWnd->GetPlayStage() )

  001c2	3b c6		 cmp	 eax, esi
  001c4	74 22		 je	 SHORT $LN47@iwm_comman
  001c6	8b 80 90 01 00
	00		 mov	 eax, DWORD PTR [eax+400]
  001cc	3b c6		 cmp	 eax, esi
  001ce	74 18		 je	 SHORT $LN47@iwm_comman

; 153  : 				{
; 154  : 					ioMyRoomMode *pMyRoom = ToMyRoomMode( pInvenWnd->GetPlayStage()->GetPlayMode() );

  001d0	ff b0 10 01 00
	00		 push	 DWORD PTR [eax+272]
  001d6	e8 00 00 00 00	 call	 ?ToMyRoomMode@@YAPAVioMyRoomMode@@PAVioPlayMode@@@Z ; ToMyRoomMode
  001db	59		 pop	 ecx

; 155  : 					if( pMyRoom && pMyRoom->GetMyRoomType() == MRT_LOBBY )

  001dc	3b c6		 cmp	 eax, esi
  001de	74 08		 je	 SHORT $LN47@iwm_comman
  001e0	39 35 00 00 00
	00		 cmp	 DWORD PTR ?m_eMyRoomType@ioMyRoomMode@@1W4MyRoomType@@A, esi ; ioMyRoomMode::m_eMyRoomType

; 156  : 						bCheck = false;
; 157  : 				}
; 158  : 
; 159  : 				if( bCheck )

  001e6	74 31		 je	 SHORT $LN10@iwm_comman
$LN47@iwm_comman:

; 160  : 				{
; 161  : 					g_GUIMgr.SetMsgBox( MB_OK, NULL, STR(3) );

  001e8	56		 push	 esi
  001e9	6a 03		 push	 3
  001eb	68 00 00 00 00	 push	 OFFSET ??_C@_00CNPNBAHC@?$AA@
  001f0	68 00 00 00 00	 push	 OFFSET ??_C@_0CC@MNPLCDNJ@HeroReinforceDownWnd?3?3iwm_comman@
  001f5	ff 15 00 00 00
	00		 call	 DWORD PTR __imp_?GetSingleton@ioStringManager@@SAAAV1@XZ
  001fb	8b c8		 mov	 ecx, eax
  001fd	ff 15 00 00 00
	00		 call	 DWORD PTR __imp_?GetString@ioStringManager@@QAEPADPBD0HW4FileNamePrefix@1@@Z
  00203	50		 push	 eax
  00204	56		 push	 esi
  00205	56		 push	 esi
  00206	e8 00 00 00 00	 call	 ?GetSingleton@ioSP2GUIManager@@SAAAV1@XZ ; ioSP2GUIManager::GetSingleton
  0020b	50		 push	 eax
  0020c	e8 00 00 00 00	 call	 ?SetMsgBox@ioSP2GUIManager@@QAAXHPAVioWnd@@PBDZZ ; ioSP2GUIManager::SetMsgBox
  00211	83 c4 10	 add	 esp, 16			; 00000010H

; 162  : 					break;

  00214	e9 14 02 00 00	 jmp	 $LN16@iwm_comman
$LN10@iwm_comman:

; 163  : 				}
; 164  : 			}
; 165  : 
; 166  : 			int iUseMtrlCount,iCurMtrlCount;
; 167  : 			if( !g_PowerUpManager.CheckEnableSoulStone( ioPowerUpManager::PIT_HERO ,m_CharInfo.m_class_type, iUseMtrlCount, iCurMtrlCount ) )

  00219	8d 85 64 fd ff
	ff		 lea	 eax, DWORD PTR _value$519245[ebp]
  0021f	50		 push	 eax
  00220	8b cf		 mov	 ecx, edi
  00222	e8 00 00 00 00	 call	 ?DecryptValueToPool@?$CEncrypt@H@@QAEXPAH@Z ; CEncrypt<int>::DecryptValueToPool
  00227	8d 85 60 fd ff
	ff		 lea	 eax, DWORD PTR _iCurMtrlCount$516041[ebp]
  0022d	50		 push	 eax
  0022e	8d 85 68 fd ff
	ff		 lea	 eax, DWORD PTR _iUseMtrlCount$516040[ebp]
  00234	50		 push	 eax
  00235	ff b5 64 fd ff
	ff		 push	 DWORD PTR _value$519245[ebp]
  0023b	56		 push	 esi
  0023c	e8 00 00 00 00	 call	 ?GetSingleton@ioPowerUpManager@@SAAAV1@XZ ; ioPowerUpManager::GetSingleton
  00241	8b c8		 mov	 ecx, eax
  00243	e8 00 00 00 00	 call	 ?CheckEnableSoulStone@ioPowerUpManager@@QAE_NHHAAH0@Z ; ioPowerUpManager::CheckEnableSoulStone
  00248	84 c0		 test	 al, al
  0024a	75 43		 jne	 SHORT $LN9@iwm_comman

; 168  : 			{
; 169  : 				SoulStoneBuyWnd *pSoulstoneBuyWnd = dynamic_cast<SoulStoneBuyWnd*> ( g_GUIMgr.FindWnd( SOULSTONE_BUY_WND ) );

  0024c	56		 push	 esi
  0024d	68 00 00 00 00	 push	 OFFSET ??_R0?AVSoulStoneBuyWnd@@@8
  00252	68 00 00 00 00	 push	 OFFSET ??_R0?AVioWnd@@@8
  00257	56		 push	 esi
  00258	68 6e 18 00 00	 push	 6254			; 0000186eH
  0025d	e8 00 00 00 00	 call	 ?GetSingleton@ioSP2GUIManager@@SAAAV1@XZ ; ioSP2GUIManager::GetSingleton
  00262	8b c8		 mov	 ecx, eax
  00264	ff d3		 call	 ebx
  00266	50		 push	 eax
  00267	e8 00 00 00 00	 call	 ___RTDynamicCast
  0026c	83 c4 14	 add	 esp, 20			; 00000014H

; 170  : 				if ( pSoulstoneBuyWnd )

  0026f	3b c6		 cmp	 eax, esi
  00271	0f 84 b6 01 00
	00		 je	 $LN16@iwm_comman

; 171  : 					pSoulstoneBuyWnd->ShowBuyWnd( iUseMtrlCount, iCurMtrlCount );

  00277	ff b5 60 fd ff
	ff		 push	 DWORD PTR _iCurMtrlCount$516041[ebp]
  0027d	ff b5 68 fd ff
	ff		 push	 DWORD PTR _iUseMtrlCount$516040[ebp]
$LN49@iwm_comman:
  00283	8b c8		 mov	 ecx, eax
  00285	e8 00 00 00 00	 call	 ?ShowBuyWnd@SoulStoneBuyWnd@@QAEXHH@Z ; SoulStoneBuyWnd::ShowBuyWnd

; 172  : 				break;

  0028a	e9 9e 01 00 00	 jmp	 $LN16@iwm_comman
$LN9@iwm_comman:

; 173  : 			}
; 174  : 
; 175  : 			ioComplexStringPrinter kPrinter[MAX_MSG_LIST_SIZE];

  0028f	68 00 00 00 00	 push	 OFFSET ??1ioComplexStringPrinter@@QAE@XZ ; ioComplexStringPrinter::~ioComplexStringPrinter
  00294	68 00 00 00 00	 push	 OFFSET ??0ioComplexStringPrinter@@QAE@XZ ; ioComplexStringPrinter::ioComplexStringPrinter
  00299	6a 0c		 push	 12			; 0000000cH
  0029b	6a 20		 push	 32			; 00000020H
  0029d	8d 85 6c fd ff
	ff		 lea	 eax, DWORD PTR _kPrinter$516047[ebp]
  002a3	50		 push	 eax
  002a4	e8 00 00 00 00	 call	 ??_L@YGXPAXIHP6EX0@Z1@Z

; 176  : 			char szBuf[MAX_PATH];
; 177  : 			memset( szBuf, 0, sizeof(szBuf) );

  002a9	68 04 01 00 00	 push	 260			; 00000104H
  002ae	8d 85 ec fe ff
	ff		 lea	 eax, DWORD PTR _szBuf$516051[ebp]
  002b4	56		 push	 esi
  002b5	50		 push	 eax
  002b6	89 75 fc	 mov	 DWORD PTR __$EHRec$[ebp+8], esi
  002b9	e8 00 00 00 00	 call	 _memset
  002be	83 c4 0c	 add	 esp, 12			; 0000000cH

; 178  : 			kPrinter[0].SetTextStyle( TS_NORMAL );

  002c1	56		 push	 esi
  002c2	8d 8d 6c fd ff
	ff		 lea	 ecx, DWORD PTR _kPrinter$516047[ebp]
  002c8	e8 00 00 00 00	 call	 ?SetTextStyle@ioComplexStringPrinter@@QAEXW4TextStyle@@@Z ; ioComplexStringPrinter::SetTextStyle

; 179  : 			kPrinter[0].SetBkColor( 0, 0, 0 );

  002cd	56		 push	 esi
  002ce	56		 push	 esi
  002cf	56		 push	 esi
  002d0	8d 8d 6c fd ff
	ff		 lea	 ecx, DWORD PTR _kPrinter$516047[ebp]
  002d6	e8 00 00 00 00	 call	 ?SetBkColor@ioComplexStringPrinter@@QAEXHHH@Z ; ioComplexStringPrinter::SetBkColor

; 180  : 			kPrinter[0].SetTextColor( TCT_DEFAULT_DARKGRAY );

  002db	68 3a 3a 3a ff	 push	 -12961222		; ff3a3a3aH
  002e0	8d 8d 6c fd ff
	ff		 lea	 ecx, DWORD PTR _kPrinter$516047[ebp]
  002e6	e8 00 00 00 00	 call	 ?SetTextColor@ioComplexStringPrinter@@QAEXK@Z ; ioComplexStringPrinter::SetTextColor

; 181  : 			SafeSprintf( szBuf, sizeof( szBuf ), STR(1), iUseMtrlCount );

  002eb	ff b5 68 fd ff
	ff		 push	 DWORD PTR _iUseMtrlCount$516040[ebp]
  002f1	8b 3d 00 00 00
	00		 mov	 edi, DWORD PTR __imp_?GetSingleton@ioStringManager@@SAAAV1@XZ
  002f7	56		 push	 esi
  002f8	6a 01		 push	 1
  002fa	68 00 00 00 00	 push	 OFFSET ??_C@_00CNPNBAHC@?$AA@
  002ff	68 00 00 00 00	 push	 OFFSET ??_C@_0CC@MNPLCDNJ@HeroReinforceDownWnd?3?3iwm_comman@
  00304	ff d7		 call	 edi
  00306	8b 1d 00 00 00
	00		 mov	 ebx, DWORD PTR __imp_?GetString@ioStringManager@@QAEPADPBD0HW4FileNamePrefix@1@@Z
  0030c	8b c8		 mov	 ecx, eax
  0030e	ff d3		 call	 ebx
  00310	50		 push	 eax
  00311	8d 85 ec fe ff
	ff		 lea	 eax, DWORD PTR _szBuf$516051[ebp]
  00317	68 04 01 00 00	 push	 260			; 00000104H
  0031c	50		 push	 eax
  0031d	ff 15 00 00 00
	00		 call	 DWORD PTR __imp_?SafeSprintf@@YAXPADHPBDH@Z

; 182  : 			kPrinter[0].AddTextPiece( FONT_SIZE_13, szBuf );

  00323	f3 0f 10 05 00
	00 00 00	 movss	 xmm0, DWORD PTR __real@3f266666
  0032b	83 c4 10	 add	 esp, 16			; 00000010H
  0032e	8d 85 ec fe ff
	ff		 lea	 eax, DWORD PTR _szBuf$516051[ebp]
  00334	50		 push	 eax
  00335	51		 push	 ecx
  00336	8d 85 6c fd ff
	ff		 lea	 eax, DWORD PTR _kPrinter$516047[ebp]
  0033c	f3 0f 11 04 24	 movss	 DWORD PTR [esp], xmm0
  00341	50		 push	 eax
  00342	e8 00 00 00 00	 call	 ?AddTextPiece@ioComplexStringPrinter@@QAAXMPBDZZ ; ioComplexStringPrinter::AddTextPiece
  00347	83 c4 0c	 add	 esp, 12			; 0000000cH

; 183  : 
; 184  : 			kPrinter[1].SetTextStyle( TS_NORMAL );

  0034a	56		 push	 esi
  0034b	8d 8d 8c fd ff
	ff		 lea	 ecx, DWORD PTR _kPrinter$516047[ebp+32]
  00351	e8 00 00 00 00	 call	 ?SetTextStyle@ioComplexStringPrinter@@QAEXW4TextStyle@@@Z ; ioComplexStringPrinter::SetTextStyle

; 185  : 			kPrinter[1].SetBkColor( 0, 0, 0 );

  00356	56		 push	 esi
  00357	56		 push	 esi
  00358	56		 push	 esi
  00359	8d 8d 8c fd ff
	ff		 lea	 ecx, DWORD PTR _kPrinter$516047[ebp+32]
  0035f	e8 00 00 00 00	 call	 ?SetBkColor@ioComplexStringPrinter@@QAEXHHH@Z ; ioComplexStringPrinter::SetBkColor

; 186  : 			kPrinter[1].SetTextColor( TCT_DEFAULT_GRAY );

  00364	68 6e 6e 6e ff	 push	 -9539986		; ff6e6e6eH
  00369	8d 8d 8c fd ff
	ff		 lea	 ecx, DWORD PTR _kPrinter$516047[ebp+32]
  0036f	e8 00 00 00 00	 call	 ?SetTextColor@ioComplexStringPrinter@@QAEXK@Z ; ioComplexStringPrinter::SetTextColor

; 187  : 			kPrinter[1].AddTextPiece( FONT_SIZE_13, STR(2) );

  00374	56		 push	 esi
  00375	6a 02		 push	 2
  00377	68 00 00 00 00	 push	 OFFSET ??_C@_00CNPNBAHC@?$AA@
  0037c	68 00 00 00 00	 push	 OFFSET ??_C@_0CC@MNPLCDNJ@HeroReinforceDownWnd?3?3iwm_comman@
  00381	ff d7		 call	 edi
  00383	8b c8		 mov	 ecx, eax
  00385	ff d3		 call	 ebx
  00387	f3 0f 10 05 00
	00 00 00	 movss	 xmm0, DWORD PTR __real@3f266666
  0038f	50		 push	 eax
  00390	51		 push	 ecx
  00391	8d 85 8c fd ff
	ff		 lea	 eax, DWORD PTR _kPrinter$516047[ebp+32]
  00397	f3 0f 11 04 24	 movss	 DWORD PTR [esp], xmm0
  0039c	50		 push	 eax
  0039d	e8 00 00 00 00	 call	 ?AddTextPiece@ioComplexStringPrinter@@QAAXMPBDZZ ; ioComplexStringPrinter::AddTextPiece
  003a2	83 c4 0c	 add	 esp, 12			; 0000000cH

; 188  : 
; 189  : 			g_GUIMgr.SetPrevMsgListBox( NULL, MB_YESNO, this, kPrinter );

  003a5	8d 85 6c fd ff
	ff		 lea	 eax, DWORD PTR _kPrinter$516047[ebp]
  003ab	50		 push	 eax
  003ac	ff b5 5c fd ff
	ff		 push	 DWORD PTR _this$GSCopy$[ebp]
  003b2	6a 04		 push	 4
  003b4	56		 push	 esi
  003b5	e8 00 00 00 00	 call	 ?GetSingleton@ioSP2GUIManager@@SAAAV1@XZ ; ioSP2GUIManager::GetSingleton
  003ba	8b c8		 mov	 ecx, eax
  003bc	e8 00 00 00 00	 call	 ?SetPrevMsgListBox@ioSP2GUIManager@@QAEXPAVioWnd@@H0PAVioComplexStringPrinter@@@Z ; ioSP2GUIManager::SetPrevMsgListBox

; 190  : 		}

  003c1	83 4d fc ff	 or	 DWORD PTR __$EHRec$[ebp+8], -1
  003c5	68 00 00 00 00	 push	 OFFSET ??1ioComplexStringPrinter@@QAE@XZ ; ioComplexStringPrinter::~ioComplexStringPrinter
  003ca	6a 0c		 push	 12			; 0000000cH
  003cc	6a 20		 push	 32			; 00000020H
  003ce	8d 85 6c fd ff
	ff		 lea	 eax, DWORD PTR _kPrinter$516047[ebp]
  003d4	50		 push	 eax
  003d5	e8 00 00 00 00	 call	 ??_M@YGXPAXIHP6EX0@Z@Z

; 191  : 		break;

  003da	eb 51		 jmp	 SHORT $LN16@iwm_comman
$LN20@iwm_comman:

; 129  : 	{
; 130  : 	case ID_ENABLE_REINFORECE_SOLDIER_SELECT_BTN:
; 131  : 		if( cmd == IOBN_BTNUP )

  003dc	83 7d 0c 11	 cmp	 DWORD PTR _cmd$[ebp], 17 ; 00000011H
  003e0	75 4b		 jne	 SHORT $LN16@iwm_comman

; 132  : 		{
; 133  : 			PowerUpSelectWnd *pWnd = dynamic_cast<PowerUpSelectWnd*>( g_GUIMgr.FindWnd( POWERUP_SELECT_WND ) );

  003e2	33 f6		 xor	 esi, esi
  003e4	56		 push	 esi
  003e5	68 00 00 00 00	 push	 OFFSET ??_R0?AVPowerUpSelectWnd@@@8
  003ea	68 00 00 00 00	 push	 OFFSET ??_R0?AVioWnd@@@8
  003ef	56		 push	 esi
  003f0	68 6d 18 00 00	 push	 6253			; 0000186dH
  003f5	e8 00 00 00 00	 call	 ?GetSingleton@ioSP2GUIManager@@SAAAV1@XZ ; ioSP2GUIManager::GetSingleton
  003fa	8b c8		 mov	 ecx, eax
  003fc	ff 15 00 00 00
	00		 call	 DWORD PTR __imp_?FindWnd@ioGUIManager@@QAEPAVioWnd@@K@Z
  00402	50		 push	 eax
  00403	e8 00 00 00 00	 call	 ___RTDynamicCast
  00408	8b f8		 mov	 edi, eax
  0040a	83 c4 14	 add	 esp, 20			; 00000014H

; 134  : 			if( pWnd )

  0040d	3b fe		 cmp	 edi, esi
  0040f	74 1c		 je	 SHORT $LN16@iwm_comman

; 135  : 			{
; 136  : 				if( pWnd->IsShow() )

  00411	8b cf		 mov	 ecx, edi
  00413	ff 15 00 00 00
	00		 call	 DWORD PTR __imp_?IsShow@ioWnd@@QBE_NXZ

; 137  : 					pWnd->GoToTop();

  00419	8b cf		 mov	 ecx, edi
  0041b	84 c0		 test	 al, al
  0041d	74 08		 je	 SHORT $LN17@iwm_comman
  0041f	ff 15 00 00 00
	00		 call	 DWORD PTR __imp_?GoToTop@ioWnd@@QAEXXZ

; 138  : 				else

  00425	eb 06		 jmp	 SHORT $LN16@iwm_comman
$LN17@iwm_comman:

; 139  : 					pWnd->ShowSubWnd( ioPowerUpManager::PIT_HERO );

  00427	56		 push	 esi
  00428	e8 00 00 00 00	 call	 ?ShowSubWnd@PowerUpSelectWnd@@QAEXH@Z ; PowerUpSelectWnd::ShowSubWnd
$LN16@iwm_comman:

; 223  : 	}
; 224  : }

  0042d	e8 00 00 00 00	 call	 __EH_epilog3_GS
  00432	c2 0c 00	 ret	 12			; 0000000cH
_TEXT	ENDS
;	COMDAT text$x
text$x	SEGMENT
__unwindfunclet$?iwm_command@HeroReinforceDownWnd@@UAEXPAVioWnd@@HK@Z$1:
  00000	8d 8d 44 fd ff
	ff		 lea	 ecx, DWORD PTR _szError$516064[ebp]
  00006	ff 25 00 00 00
	00		 jmp	 DWORD PTR __imp_??1ioHashString@@QAE@XZ
__unwindfunclet$?iwm_command@HeroReinforceDownWnd@@UAEXPAVioWnd@@HK@Z$0:
  0000c	68 00 00 00 00	 push	 OFFSET ??1ioComplexStringPrinter@@QAE@XZ ; ioComplexStringPrinter::~ioComplexStringPrinter
  00011	6a 0c		 push	 12			; 0000000cH
  00013	6a 20		 push	 32			; 00000020H
  00015	8d 85 6c fd ff
	ff		 lea	 eax, DWORD PTR _kPrinter$516047[ebp]
  0001b	50		 push	 eax
  0001c	e8 00 00 00 00	 call	 ??_M@YGXPAXIHP6EX0@Z@Z
  00021	c3		 ret	 0
__ehhandler$?iwm_command@HeroReinforceDownWnd@@UAEXPAVioWnd@@HK@Z:
  00022	8b 54 24 08	 mov	 edx, DWORD PTR [esp+8]
  00026	8d 42 0c	 lea	 eax, DWORD PTR [edx+12]
  00029	8b 8a 40 fd ff
	ff		 mov	 ecx, DWORD PTR [edx-704]
  0002f	33 c8		 xor	 ecx, eax
  00031	e8 00 00 00 00	 call	 @__security_check_cookie@4
  00036	8b 4a fc	 mov	 ecx, DWORD PTR [edx-4]
  00039	33 c8		 xor	 ecx, eax
  0003b	e8 00 00 00 00	 call	 @__security_check_cookie@4
  00040	b8 00 00 00 00	 mov	 eax, OFFSET __ehfuncinfo$?iwm_command@HeroReinforceDownWnd@@UAEXPAVioWnd@@HK@Z
  00045	e9 00 00 00 00	 jmp	 ___CxxFrameHandler3
text$x	ENDS
?iwm_command@HeroReinforceDownWnd@@UAEXPAVioWnd@@HK@Z ENDP ; HeroReinforceDownWnd::iwm_command
; Function compile flags: /Ogsp
;	COMDAT ??_GHeroReinforceDoneWnd@@UAEPAXI@Z
_TEXT	SEGMENT
___flags$ = 8						; size = 4
??_GHeroReinforceDoneWnd@@UAEPAXI@Z PROC		; HeroReinforceDoneWnd::`scalar deleting destructor', COMDAT
; _this$ = ecx
  00000	55		 push	 ebp
  00001	8b ec		 mov	 ebp, esp
  00003	56		 push	 esi
  00004	8b f1		 mov	 esi, ecx
  00006	e8 00 00 00 00	 call	 ??1HeroReinforceDoneWnd@@UAE@XZ ; HeroReinforceDoneWnd::~HeroReinforceDoneWnd
  0000b	f6 45 08 01	 test	 BYTE PTR ___flags$[ebp], 1
  0000f	74 07		 je	 SHORT $LN1@scalar@2
  00011	56		 push	 esi
  00012	e8 00 00 00 00	 call	 ??3@YAXPAX@Z		; operator delete
  00017	59		 pop	 ecx
$LN1@scalar@2:
  00018	8b c6		 mov	 eax, esi
  0001a	5e		 pop	 esi
  0001b	5d		 pop	 ebp
  0001c	c2 04 00	 ret	 4
??_GHeroReinforceDoneWnd@@UAEPAXI@Z ENDP		; HeroReinforceDoneWnd::`scalar deleting destructor'
_TEXT	ENDS
PUBLIC	??_C@_0CC@PNCNPGGA@HeroReinforceDoneWnd?3?3iwm_comman@ ; `string'
PUBLIC	_this$GSCopy$
EXTRN	?ShowSoldierTabDirect@MyInventoryWnd@@QAEXH@Z:PROC ; MyInventoryWnd::ShowSoldierTabDirect
EXTRN	__imp_?HideWnd@ioWnd@@QAEXXZ:PROC
EXTRN	__imp_?GetParent@ioWnd@@QAEPAV1@XZ:PROC
;	COMDAT ??_C@_0CC@PNCNPGGA@HeroReinforceDoneWnd?3?3iwm_comman@
; File d:\lost saga for developer\youtube\tutorial\source\src\io3dengine\iosingleton.h
CONST	SEGMENT
??_C@_0CC@PNCNPGGA@HeroReinforceDoneWnd?3?3iwm_comman@ DB 'HeroReinforceD'
	DB	'oneWnd::iwm_command', 00H			; `string'
CONST	ENDS
;	COMDAT xdata$x
xdata$x	SEGMENT
__unwindtable$?iwm_command@HeroReinforceDoneWnd@@UAEXPAVioWnd@@HK@Z DD 0ffffffffH
	DD	FLAT:__unwindfunclet$?iwm_command@HeroReinforceDoneWnd@@UAEXPAVioWnd@@HK@Z$0
	DD	00H
	DD	FLAT:__unwindfunclet$?iwm_command@HeroReinforceDoneWnd@@UAEXPAVioWnd@@HK@Z$1
	DD	0ffffffffH
	DD	FLAT:__unwindfunclet$?iwm_command@HeroReinforceDoneWnd@@UAEXPAVioWnd@@HK@Z$2
__ehfuncinfo$?iwm_command@HeroReinforceDoneWnd@@UAEXPAVioWnd@@HK@Z DD 019930522H
	DD	03H
	DD	FLAT:__unwindtable$?iwm_command@HeroReinforceDoneWnd@@UAEXPAVioWnd@@HK@Z
	DD	2 DUP(00H)
	DD	2 DUP(00H)
	DD	00H
	DD	01H
; Function compile flags: /Ogsp
; File d:\lost saga for developer\youtube\tutorial\source\src\lsclient\gui\heroreinforcedownwnd.cpp
xdata$x	ENDS
;	COMDAT ?iwm_command@HeroReinforceDoneWnd@@UAEXPAVioWnd@@HK@Z
_TEXT	SEGMENT
_szError$516237 = -716					; size = 16
_szError$516213 = -700					; size = 16
_this$GSCopy$ = -684					; size = 4
_iUseMtrlCount$516231 = -680				; size = 4
_iCurMtrlCount$516208 = -676				; size = 4
_iCurMtrlCount$516232 = -672				; size = 4
_pInvenWnd$516224 = -672				; size = 4
_value$519313 = -668					; size = 4
_value$519308 = -668					; size = 4
_value$519283 = -668					; size = 4
_iCharArray$516197 = -668				; size = 4
_value$519322 = -664					; size = 4
_value$519318 = -664					; size = 4
_iUseMtrlCount$516207 = -664				; size = 4
_kPrinter$516215 = -660					; size = 384
_szBuf$516219 = -276					; size = 260
__$EHRec$ = -12						; size = 12
_pWnd$ = 8						; size = 4
_cmd$ = 12						; size = 4
_param$ = 16						; size = 4
?iwm_command@HeroReinforceDoneWnd@@UAEXPAVioWnd@@HK@Z PROC ; HeroReinforceDoneWnd::iwm_command, COMDAT
; _this$ = ecx

; 363  : {

  00000	68 c0 02 00 00	 push	 704			; 000002c0H
  00005	b8 00 00 00 00	 mov	 eax, __ehhandler$?iwm_command@HeroReinforceDoneWnd@@UAEXPAVioWnd@@HK@Z
  0000a	e8 00 00 00 00	 call	 __EH_prolog3_GS
  0000f	8b f9		 mov	 edi, ecx
  00011	8b 4d 08	 mov	 ecx, DWORD PTR _pWnd$[ebp]

; 404  : 				}
; 405  : 
; 406  : 				ioComplexStringPrinter kPrinter[MAX_MSG_LIST_SIZE];

  00014	89 bd 54 fd ff
	ff		 mov	 DWORD PTR _this$GSCopy$[ebp], edi
  0001a	ff 15 00 00 00
	00		 call	 DWORD PTR __imp_?GetID@ioWnd@@QBEKXZ
  00020	83 e8 64	 sub	 eax, 100		; 00000064H
  00023	0f 84 86 01 00
	00		 je	 $LN19@iwm_comman@2

; 364  : 	DWORD dwID = pWnd->GetID();	
; 365  : 	switch( dwID )

  00029	48		 dec	 eax
  0002a	6a 00		 push	 0
  0002c	5b		 pop	 ebx
  0002d	be 00 00 00 00	 mov	 esi, OFFSET ??_R0?AVioWnd@@@8
  00032	74 0c		 je	 SHORT $LN10@iwm_comman@2
  00034	2d ad 26 00 00	 sub	 eax, 9901		; 000026adH
  00039	74 69		 je	 SHORT $LN8@iwm_comman@2
  0003b	e9 6c 04 00 00	 jmp	 $LN18@iwm_comman@2
$LN10@iwm_comman@2:

; 422  : 		}
; 423  : 		break;
; 424  : 	case ID_SEE_HERO_BTN:
; 425  : 		{
; 426  : 			if( cmd == IOBN_BTNUP )

  00040	83 7d 0c 11	 cmp	 DWORD PTR _cmd$[ebp], 17 ; 00000011H
  00044	0f 85 62 04 00
	00		 jne	 $LN18@iwm_comman@2

; 427  : 			{
; 428  : 				MyInventoryWnd *pInvenWnd = dynamic_cast<MyInventoryWnd*> ( GetParent() );

  0004a	53		 push	 ebx
  0004b	68 00 00 00 00	 push	 OFFSET ??_R0?AVMyInventoryWnd@@@8
  00050	56		 push	 esi
  00051	53		 push	 ebx
  00052	8b cf		 mov	 ecx, edi
  00054	ff 15 00 00 00
	00		 call	 DWORD PTR __imp_?GetParent@ioWnd@@QAEPAV1@XZ
  0005a	50		 push	 eax
  0005b	e8 00 00 00 00	 call	 ___RTDynamicCast
  00060	8b c8		 mov	 ecx, eax
  00062	83 c4 14	 add	 esp, 20			; 00000014H
  00065	89 8d 60 fd ff
	ff		 mov	 DWORD PTR _pInvenWnd$516224[ebp], ecx

; 429  : 				if( pInvenWnd && pInvenWnd->IsShow() )

  0006b	3b cb		 cmp	 ecx, ebx
  0006d	74 3f		 je	 SHORT $LN51@iwm_comman@2
  0006f	ff 15 00 00 00
	00		 call	 DWORD PTR __imp_?IsShow@ioWnd@@QBE_NXZ
  00075	84 c0		 test	 al, al
  00077	74 35		 je	 SHORT $LN51@iwm_comman@2

; 430  : 				{
; 431  : 					HideWnd();

  00079	8b cf		 mov	 ecx, edi
  0007b	ff 15 00 00 00
	00		 call	 DWORD PTR __imp_?HideWnd@ioWnd@@QAEXXZ

; 432  : 					pInvenWnd->ShowSoldierTabDirect( m_CharInfo.m_class_type );

  00081	8d 85 68 fd ff
	ff		 lea	 eax, DWORD PTR _value$519318[ebp]
  00087	50		 push	 eax
  00088	8d 8f 64 01 00
	00		 lea	 ecx, DWORD PTR [edi+356]
  0008e	e8 00 00 00 00	 call	 ?DecryptValueToPool@?$CEncrypt@H@@QAEXPAH@Z ; CEncrypt<int>::DecryptValueToPool
  00093	ff b5 68 fd ff
	ff		 push	 DWORD PTR _value$519318[ebp]
  00099	8b 8d 60 fd ff
	ff		 mov	 ecx, DWORD PTR _pInvenWnd$516224[ebp]
  0009f	e8 00 00 00 00	 call	 ?ShowSoldierTabDirect@MyInventoryWnd@@QAEXH@Z ; MyInventoryWnd::ShowSoldierTabDirect
$LN8@iwm_comman@2:

; 433  : 				}
; 434  : 			}
; 435  : 		}
; 436  : 	case MESSAGE_BOX3:
; 437  : 		{
; 438  : 			if( cmd == IOBN_BTNUP )

  000a4	83 7d 0c 11	 cmp	 DWORD PTR _cmd$[ebp], 17 ; 00000011H
  000a8	0f 85 fe 03 00
	00		 jne	 $LN18@iwm_comman@2
$LN51@iwm_comman@2:

; 439  : 			{
; 440  : 				if( param == IDYES )

  000ae	83 7d 10 06	 cmp	 DWORD PTR _param$[ebp], 6
  000b2	0f 85 f4 03 00
	00		 jne	 $LN18@iwm_comman@2

; 441  : 				{
; 442  : 					int iClassType	= m_CharInfo.m_class_type;	

  000b8	8d 85 68 fd ff
	ff		 lea	 eax, DWORD PTR _value$519322[ebp]
  000be	50		 push	 eax
  000bf	8d 8f 64 01 00
	00		 lea	 ecx, DWORD PTR [edi+356]
  000c5	e8 00 00 00 00	 call	 ?DecryptValueToPool@?$CEncrypt@H@@QAEXPAH@Z ; CEncrypt<int>::DecryptValueToPool

; 443  : 					int iUseMtrlCount,iCurMtrlCount;
; 444  : 					if ( !g_PowerUpManager.CheckEnableSoulStone( ioPowerUpManager::PIT_HERO, iClassType, iUseMtrlCount, iCurMtrlCount ) )

  000ca	8d 85 60 fd ff
	ff		 lea	 eax, DWORD PTR _iCurMtrlCount$516232[ebp]
  000d0	50		 push	 eax
  000d1	8d 85 58 fd ff
	ff		 lea	 eax, DWORD PTR _iUseMtrlCount$516231[ebp]
  000d7	50		 push	 eax
  000d8	ff b5 68 fd ff
	ff		 push	 DWORD PTR _value$519322[ebp]
  000de	53		 push	 ebx
  000df	e8 00 00 00 00	 call	 ?GetSingleton@ioPowerUpManager@@SAAAV1@XZ ; ioPowerUpManager::GetSingleton
  000e4	8b c8		 mov	 ecx, eax
  000e6	e8 00 00 00 00	 call	 ?CheckEnableSoulStone@ioPowerUpManager@@QAE_NHHAAH0@Z ; ioPowerUpManager::CheckEnableSoulStone
  000eb	84 c0		 test	 al, al
  000ed	75 3c		 jne	 SHORT $LN4@iwm_comman@2

; 445  : 					{
; 446  : 						SoulStoneBuyWnd *pSoulstoneBuyWnd = dynamic_cast<SoulStoneBuyWnd*> ( g_GUIMgr.FindWnd( SOULSTONE_BUY_WND ) );

  000ef	53		 push	 ebx
  000f0	68 00 00 00 00	 push	 OFFSET ??_R0?AVSoulStoneBuyWnd@@@8
  000f5	56		 push	 esi
  000f6	53		 push	 ebx
  000f7	68 6e 18 00 00	 push	 6254			; 0000186eH
  000fc	e8 00 00 00 00	 call	 ?GetSingleton@ioSP2GUIManager@@SAAAV1@XZ ; ioSP2GUIManager::GetSingleton
  00101	8b c8		 mov	 ecx, eax
  00103	ff 15 00 00 00
	00		 call	 DWORD PTR __imp_?FindWnd@ioGUIManager@@QAEPAVioWnd@@K@Z
  00109	50		 push	 eax
  0010a	e8 00 00 00 00	 call	 ___RTDynamicCast
  0010f	83 c4 14	 add	 esp, 20			; 00000014H

; 447  : 						if ( pSoulstoneBuyWnd )

  00112	3b c3		 cmp	 eax, ebx
  00114	0f 84 92 03 00
	00		 je	 $LN18@iwm_comman@2

; 448  : 							pSoulstoneBuyWnd->ShowBuyWnd( iUseMtrlCount, iCurMtrlCount );

  0011a	ff b5 60 fd ff
	ff		 push	 DWORD PTR _iCurMtrlCount$516232[ebp]
  00120	ff b5 58 fd ff
	ff		 push	 DWORD PTR _iUseMtrlCount$516231[ebp]

; 449  : 						break;

  00126	e9 ba 01 00 00	 jmp	 $LN56@iwm_comman@2
$LN4@iwm_comman@2:

; 450  : 					}
; 451  : 					ioHashString szError;

  0012b	8d 8d 34 fd ff
	ff		 lea	 ecx, DWORD PTR _szError$516237[ebp]
  00131	ff 15 00 00 00
	00		 call	 DWORD PTR __imp_??0ioHashString@@QAE@XZ

; 452  : 					if( g_PowerUpManager.CheckEnableCharPowerUp( iClassType, szError ) )

  00137	8d 85 34 fd ff
	ff		 lea	 eax, DWORD PTR _szError$516237[ebp]
  0013d	50		 push	 eax
  0013e	ff b5 68 fd ff
	ff		 push	 DWORD PTR _value$519322[ebp]
  00144	c7 45 fc 02 00
	00 00		 mov	 DWORD PTR __$EHRec$[ebp+8], 2
  0014b	e8 00 00 00 00	 call	 ?GetSingleton@ioPowerUpManager@@SAAAV1@XZ ; ioPowerUpManager::GetSingleton
  00150	8b c8		 mov	 ecx, eax
  00152	e8 00 00 00 00	 call	 ?CheckEnableCharPowerUp@ioPowerUpManager@@QAE_NHAAVioHashString@@@Z ; ioPowerUpManager::CheckEnableCharPowerUp
  00157	84 c0		 test	 al, al
  00159	74 49		 je	 SHORT $LN1@iwm_comman@2

; 453  : 					{
; 454  : 						//CheckEnableCharPowerUp함수에서 유효한 값인지 체크됨
; 455  : 						int iCharIndex = g_MyInfo.GetCharIndexByClassType( iClassType );

  0015b	ff b5 68 fd ff
	ff		 push	 DWORD PTR _value$519322[ebp]
  00161	e8 00 00 00 00	 call	 ?GetSingleton@ioMyInfo@@SAAAV1@XZ ; ioMyInfo::GetSingleton
  00166	8b c8		 mov	 ecx, eax
  00168	e8 00 00 00 00	 call	 ?GetCharIndexByClassType@ioMyInfo@@QAEKH@Z ; ioMyInfo::GetCharIndexByClassType
  0016d	8b f0		 mov	 esi, eax

; 456  : 						ioEtcItemSoulStone* pEtcItem = dynamic_cast<ioEtcItemSoulStone*>( g_EtcItemMgr.FindEtcItem( g_PowerUpManager.GetMtrlEtcItemCode() ) );

  0016f	e8 00 00 00 00	 call	 ?GetSingleton@ioPowerUpManager@@SAAAV1@XZ ; ioPowerUpManager::GetSingleton
  00174	8b 40 34	 mov	 eax, DWORD PTR [eax+52]
  00177	8b 0d 00 00 00
	00		 mov	 ecx, DWORD PTR ?ms_Singleton@?$Singleton@VioEtcItemManager@@@@1PAVioEtcItemManager@@A ; Singleton<ioEtcItemManager>::ms_Singleton
  0017d	53		 push	 ebx
  0017e	68 00 00 00 00	 push	 OFFSET ??_R0?AVioEtcItemSoulStone@@@8
  00183	68 00 00 00 00	 push	 OFFSET ??_R0?AVioEtcItem@@@8
  00188	53		 push	 ebx
  00189	50		 push	 eax
  0018a	e8 00 00 00 00	 call	 ?FindEtcItem@ioEtcItemManager@@QAEPAVioEtcItem@@K@Z ; ioEtcItemManager::FindEtcItem
  0018f	50		 push	 eax
  00190	e8 00 00 00 00	 call	 ___RTDynamicCast
  00195	83 c4 14	 add	 esp, 20			; 00000014H

; 457  : 						if( pEtcItem )

  00198	3b c3		 cmp	 eax, ebx
  0019a	74 08		 je	 SHORT $LN1@iwm_comman@2

; 458  : 						{
; 459  : 							pEtcItem->OnUseCharPowerUp( iCharIndex );

  0019c	56		 push	 esi
  0019d	8b c8		 mov	 ecx, eax
  0019f	e8 00 00 00 00	 call	 ?OnUseCharPowerUp@ioEtcItemSoulStone@@QAEXH@Z ; ioEtcItemSoulStone::OnUseCharPowerUp
$LN1@iwm_comman@2:

; 460  : 						}
; 461  : 					}
; 462  : 				}

  001a4	8d 8d 34 fd ff
	ff		 lea	 ecx, DWORD PTR _szError$516237[ebp]

; 463  : 			}
; 464  : 		}
; 465  : 		break;

  001aa	e9 f3 02 00 00	 jmp	 $LN54@iwm_comman@2
$LN19@iwm_comman@2:

; 366  : 	{
; 367  : 	case ID_REINFORECE_AGAIN_BTN:
; 368  : 		{
; 369  : 			if( cmd == IOBN_BTNUP )

  001af	83 7d 0c 11	 cmp	 DWORD PTR _cmd$[ebp], 17 ; 00000011H
  001b3	0f 85 f3 02 00
	00		 jne	 $LN18@iwm_comman@2

; 370  : 			{
; 371  : 				int iCharArray = g_MyInfo.GetClassArray( m_CharInfo.m_class_type );

  001b9	8d 85 64 fd ff
	ff		 lea	 eax, DWORD PTR _value$519283[ebp]
  001bf	8d 8f 64 01 00
	00		 lea	 ecx, DWORD PTR [edi+356]
  001c5	50		 push	 eax
  001c6	e8 00 00 00 00	 call	 ?DecryptValueToPool@?$CEncrypt@H@@QAEXPAH@Z ; CEncrypt<int>::DecryptValueToPool
  001cb	ff b5 64 fd ff
	ff		 push	 DWORD PTR _value$519283[ebp]
  001d1	e8 00 00 00 00	 call	 ?GetSingleton@ioMyInfo@@SAAAV1@XZ ; ioMyInfo::GetSingleton
  001d6	8b c8		 mov	 ecx, eax
  001d8	e8 00 00 00 00	 call	 ?GetClassArray@ioMyInfo@@QAEHH@Z ; ioMyInfo::GetClassArray
  001dd	89 85 64 fd ff
	ff		 mov	 DWORD PTR _iCharArray$516197[ebp], eax

; 372  : 				if( iCharArray == g_MyInfo.GetSelectCharArray() )

  001e3	e8 00 00 00 00	 call	 ?GetSingleton@ioMyInfo@@SAAAV1@XZ ; ioMyInfo::GetSingleton
  001e8	8b 80 c8 00 00
	00		 mov	 eax, DWORD PTR [eax+200]
  001ee	33 db		 xor	 ebx, ebx
  001f0	be 00 00 00 00	 mov	 esi, OFFSET ??_R0?AVioWnd@@@8
  001f5	39 85 64 fd ff
	ff		 cmp	 DWORD PTR _iCharArray$516197[ebp], eax
  001fb	75 7a		 jne	 SHORT $LN14@iwm_comman@2

; 373  : 				{
; 374  : 					bool bCheck = true;
; 375  : 					MyInventoryWnd *pInvenWnd = dynamic_cast<MyInventoryWnd*>(g_GUIMgr.FindWnd(MY_INVENTORY_WND));

  001fd	53		 push	 ebx
  001fe	68 00 00 00 00	 push	 OFFSET ??_R0?AVMyInventoryWnd@@@8
  00203	56		 push	 esi
  00204	53		 push	 ebx
  00205	68 96 17 00 00	 push	 6038			; 00001796H
  0020a	e8 00 00 00 00	 call	 ?GetSingleton@ioSP2GUIManager@@SAAAV1@XZ ; ioSP2GUIManager::GetSingleton
  0020f	8b c8		 mov	 ecx, eax
  00211	ff 15 00 00 00
	00		 call	 DWORD PTR __imp_?FindWnd@ioGUIManager@@QAEPAVioWnd@@K@Z
  00217	50		 push	 eax
  00218	e8 00 00 00 00	 call	 ___RTDynamicCast
  0021d	83 c4 14	 add	 esp, 20			; 00000014H

; 376  : 					if( pInvenWnd && pInvenWnd->GetPlayStage() )

  00220	3b c3		 cmp	 eax, ebx
  00222	74 22		 je	 SHORT $LN52@iwm_comman@2
  00224	8b 80 90 01 00
	00		 mov	 eax, DWORD PTR [eax+400]
  0022a	3b c3		 cmp	 eax, ebx
  0022c	74 18		 je	 SHORT $LN52@iwm_comman@2

; 377  : 					{
; 378  : 						ioMyRoomMode *pMyRoom = ToMyRoomMode( pInvenWnd->GetPlayStage()->GetPlayMode() );

  0022e	ff b0 10 01 00
	00		 push	 DWORD PTR [eax+272]
  00234	e8 00 00 00 00	 call	 ?ToMyRoomMode@@YAPAVioMyRoomMode@@PAVioPlayMode@@@Z ; ToMyRoomMode
  00239	59		 pop	 ecx

; 379  : 						if( pMyRoom && pMyRoom->GetMyRoomType() == MRT_LOBBY )

  0023a	3b c3		 cmp	 eax, ebx
  0023c	74 08		 je	 SHORT $LN52@iwm_comman@2
  0023e	39 1d 00 00 00
	00		 cmp	 DWORD PTR ?m_eMyRoomType@ioMyRoomMode@@1W4MyRoomType@@A, ebx ; ioMyRoomMode::m_eMyRoomType

; 380  : 							bCheck = false;
; 381  : 					}
; 382  : 
; 383  : 					if( bCheck )

  00244	74 31		 je	 SHORT $LN14@iwm_comman@2
$LN52@iwm_comman@2:

; 384  : 					{
; 385  : 						g_GUIMgr.SetMsgBox( MB_OK, NULL, STR(3) );

  00246	53		 push	 ebx
  00247	6a 03		 push	 3
  00249	68 00 00 00 00	 push	 OFFSET ??_C@_00CNPNBAHC@?$AA@
  0024e	68 00 00 00 00	 push	 OFFSET ??_C@_0CC@PNCNPGGA@HeroReinforceDoneWnd?3?3iwm_comman@
  00253	ff 15 00 00 00
	00		 call	 DWORD PTR __imp_?GetSingleton@ioStringManager@@SAAAV1@XZ
  00259	8b c8		 mov	 ecx, eax
  0025b	ff 15 00 00 00
	00		 call	 DWORD PTR __imp_?GetString@ioStringManager@@QAEPADPBD0HW4FileNamePrefix@1@@Z
  00261	50		 push	 eax
  00262	53		 push	 ebx
  00263	53		 push	 ebx
  00264	e8 00 00 00 00	 call	 ?GetSingleton@ioSP2GUIManager@@SAAAV1@XZ ; ioSP2GUIManager::GetSingleton
  00269	50		 push	 eax
  0026a	e8 00 00 00 00	 call	 ?SetMsgBox@ioSP2GUIManager@@QAAXHPAVioWnd@@PBDZZ ; ioSP2GUIManager::SetMsgBox
  0026f	83 c4 10	 add	 esp, 16			; 00000010H

; 386  : 						break;

  00272	e9 35 02 00 00	 jmp	 $LN18@iwm_comman@2
$LN14@iwm_comman@2:

; 387  : 					}
; 388  : 				}
; 389  : 
; 390  : 				int iUseMtrlCount,iCurMtrlCount;
; 391  : 				if( !g_PowerUpManager.CheckEnableSoulStone( ioPowerUpManager::PIT_HERO ,m_CharInfo.m_class_type, iUseMtrlCount, iCurMtrlCount ) )

  00277	8d 85 64 fd ff
	ff		 lea	 eax, DWORD PTR _value$519308[ebp]
  0027d	50		 push	 eax
  0027e	8d 8f 64 01 00
	00		 lea	 ecx, DWORD PTR [edi+356]
  00284	e8 00 00 00 00	 call	 ?DecryptValueToPool@?$CEncrypt@H@@QAEXPAH@Z ; CEncrypt<int>::DecryptValueToPool
  00289	8d 85 5c fd ff
	ff		 lea	 eax, DWORD PTR _iCurMtrlCount$516208[ebp]
  0028f	50		 push	 eax
  00290	8d 85 68 fd ff
	ff		 lea	 eax, DWORD PTR _iUseMtrlCount$516207[ebp]
  00296	50		 push	 eax
  00297	ff b5 64 fd ff
	ff		 push	 DWORD PTR _value$519308[ebp]
  0029d	53		 push	 ebx
  0029e	e8 00 00 00 00	 call	 ?GetSingleton@ioPowerUpManager@@SAAAV1@XZ ; ioPowerUpManager::GetSingleton
  002a3	8b c8		 mov	 ecx, eax
  002a5	e8 00 00 00 00	 call	 ?CheckEnableSoulStone@ioPowerUpManager@@QAE_NHHAAH0@Z ; ioPowerUpManager::CheckEnableSoulStone
  002aa	84 c0		 test	 al, al
  002ac	75 43		 jne	 SHORT $LN13@iwm_comman@2

; 392  : 				{
; 393  : 					SoulStoneBuyWnd *pSoulstoneBuyWnd = dynamic_cast<SoulStoneBuyWnd*> ( g_GUIMgr.FindWnd( SOULSTONE_BUY_WND ) );

  002ae	53		 push	 ebx
  002af	68 00 00 00 00	 push	 OFFSET ??_R0?AVSoulStoneBuyWnd@@@8
  002b4	56		 push	 esi
  002b5	53		 push	 ebx
  002b6	68 6e 18 00 00	 push	 6254			; 0000186eH
  002bb	e8 00 00 00 00	 call	 ?GetSingleton@ioSP2GUIManager@@SAAAV1@XZ ; ioSP2GUIManager::GetSingleton
  002c0	8b c8		 mov	 ecx, eax
  002c2	ff 15 00 00 00
	00		 call	 DWORD PTR __imp_?FindWnd@ioGUIManager@@QAEPAVioWnd@@K@Z
  002c8	50		 push	 eax
  002c9	e8 00 00 00 00	 call	 ___RTDynamicCast
  002ce	83 c4 14	 add	 esp, 20			; 00000014H

; 394  : 					if ( pSoulstoneBuyWnd )

  002d1	3b c3		 cmp	 eax, ebx
  002d3	0f 84 d3 01 00
	00		 je	 $LN18@iwm_comman@2

; 395  : 						pSoulstoneBuyWnd->ShowBuyWnd( iUseMtrlCount, iCurMtrlCount );

  002d9	ff b5 5c fd ff
	ff		 push	 DWORD PTR _iCurMtrlCount$516208[ebp]
  002df	ff b5 68 fd ff
	ff		 push	 DWORD PTR _iUseMtrlCount$516207[ebp]
$LN56@iwm_comman@2:
  002e5	8b c8		 mov	 ecx, eax
  002e7	e8 00 00 00 00	 call	 ?ShowBuyWnd@SoulStoneBuyWnd@@QAEXHH@Z ; SoulStoneBuyWnd::ShowBuyWnd

; 396  : 					break;

  002ec	e9 bb 01 00 00	 jmp	 $LN18@iwm_comman@2
$LN13@iwm_comman@2:

; 397  : 				}
; 398  : 
; 399  : 				ioHashString szError;

  002f1	8d 8d 44 fd ff
	ff		 lea	 ecx, DWORD PTR _szError$516213[ebp]
  002f7	ff 15 00 00 00
	00		 call	 DWORD PTR __imp_??0ioHashString@@QAE@XZ

; 400  : 				if( !g_PowerUpManager.CheckEnableCharPowerUp( m_CharInfo.m_class_type, szError ) )

  002fd	8d 85 64 fd ff
	ff		 lea	 eax, DWORD PTR _value$519313[ebp]
  00303	50		 push	 eax
  00304	8d 8f 64 01 00
	00		 lea	 ecx, DWORD PTR [edi+356]
  0030a	89 5d fc	 mov	 DWORD PTR __$EHRec$[ebp+8], ebx
  0030d	e8 00 00 00 00	 call	 ?DecryptValueToPool@?$CEncrypt@H@@QAEXPAH@Z ; CEncrypt<int>::DecryptValueToPool
  00312	8d 85 44 fd ff
	ff		 lea	 eax, DWORD PTR _szError$516213[ebp]
  00318	50		 push	 eax
  00319	ff b5 64 fd ff
	ff		 push	 DWORD PTR _value$519313[ebp]
  0031f	e8 00 00 00 00	 call	 ?GetSingleton@ioPowerUpManager@@SAAAV1@XZ ; ioPowerUpManager::GetSingleton
  00324	8b c8		 mov	 ecx, eax
  00326	e8 00 00 00 00	 call	 ?CheckEnableCharPowerUp@ioPowerUpManager@@QAE_NHAAVioHashString@@@Z ; ioPowerUpManager::CheckEnableCharPowerUp
  0032b	84 c0		 test	 al, al
  0032d	75 22		 jne	 SHORT $LN11@iwm_comman@2

; 401  : 				{
; 402  : 					g_GUIMgr.SetMsgBox( MB_OK, this, szError.c_str() );

  0032f	8d 8d 44 fd ff
	ff		 lea	 ecx, DWORD PTR _szError$516213[ebp]
  00335	ff 15 00 00 00
	00		 call	 DWORD PTR __imp_?c_str@ioHashString@@QBEPBDXZ
  0033b	50		 push	 eax
  0033c	57		 push	 edi
  0033d	53		 push	 ebx
  0033e	e8 00 00 00 00	 call	 ?GetSingleton@ioSP2GUIManager@@SAAAV1@XZ ; ioSP2GUIManager::GetSingleton
  00343	50		 push	 eax
  00344	e8 00 00 00 00	 call	 ?SetMsgBox@ioSP2GUIManager@@QAAXHPAVioWnd@@PBDZZ ; ioSP2GUIManager::SetMsgBox
  00349	83 c4 10	 add	 esp, 16			; 00000010H

; 403  : 					break;

  0034c	e9 4b 01 00 00	 jmp	 $LN55@iwm_comman@2
$LN11@iwm_comman@2:

; 404  : 				}
; 405  : 
; 406  : 				ioComplexStringPrinter kPrinter[MAX_MSG_LIST_SIZE];

  00351	68 00 00 00 00	 push	 OFFSET ??1ioComplexStringPrinter@@QAE@XZ ; ioComplexStringPrinter::~ioComplexStringPrinter
  00356	68 00 00 00 00	 push	 OFFSET ??0ioComplexStringPrinter@@QAE@XZ ; ioComplexStringPrinter::ioComplexStringPrinter
  0035b	6a 0c		 push	 12			; 0000000cH
  0035d	6a 20		 push	 32			; 00000020H
  0035f	8d 85 6c fd ff
	ff		 lea	 eax, DWORD PTR _kPrinter$516215[ebp]
  00365	50		 push	 eax
  00366	e8 00 00 00 00	 call	 ??_L@YGXPAXIHP6EX0@Z1@Z

; 407  : 				char szBuf[MAX_PATH];
; 408  : 				memset( szBuf, 0, sizeof(szBuf) );

  0036b	68 04 01 00 00	 push	 260			; 00000104H
  00370	8d 85 ec fe ff
	ff		 lea	 eax, DWORD PTR _szBuf$516219[ebp]
  00376	53		 push	 ebx
  00377	50		 push	 eax
  00378	c6 45 fc 01	 mov	 BYTE PTR __$EHRec$[ebp+8], 1
  0037c	e8 00 00 00 00	 call	 _memset
  00381	83 c4 0c	 add	 esp, 12			; 0000000cH

; 409  : 				kPrinter[0].SetTextStyle( TS_NORMAL );

  00384	53		 push	 ebx
  00385	8d 8d 6c fd ff
	ff		 lea	 ecx, DWORD PTR _kPrinter$516215[ebp]
  0038b	e8 00 00 00 00	 call	 ?SetTextStyle@ioComplexStringPrinter@@QAEXW4TextStyle@@@Z ; ioComplexStringPrinter::SetTextStyle

; 410  : 				kPrinter[0].SetBkColor( 0, 0, 0 );

  00390	53		 push	 ebx
  00391	53		 push	 ebx
  00392	53		 push	 ebx
  00393	8d 8d 6c fd ff
	ff		 lea	 ecx, DWORD PTR _kPrinter$516215[ebp]
  00399	e8 00 00 00 00	 call	 ?SetBkColor@ioComplexStringPrinter@@QAEXHHH@Z ; ioComplexStringPrinter::SetBkColor

; 411  : 				kPrinter[0].SetTextColor( TCT_DEFAULT_DARKGRAY );

  0039e	68 3a 3a 3a ff	 push	 -12961222		; ff3a3a3aH
  003a3	8d 8d 6c fd ff
	ff		 lea	 ecx, DWORD PTR _kPrinter$516215[ebp]
  003a9	e8 00 00 00 00	 call	 ?SetTextColor@ioComplexStringPrinter@@QAEXK@Z ; ioComplexStringPrinter::SetTextColor

; 412  : 				SafeSprintf( szBuf, sizeof( szBuf ), STR(1), iUseMtrlCount );

  003ae	ff b5 68 fd ff
	ff		 push	 DWORD PTR _iUseMtrlCount$516207[ebp]
  003b4	8b 35 00 00 00
	00		 mov	 esi, DWORD PTR __imp_?GetSingleton@ioStringManager@@SAAAV1@XZ
  003ba	53		 push	 ebx
  003bb	6a 01		 push	 1
  003bd	68 00 00 00 00	 push	 OFFSET ??_C@_00CNPNBAHC@?$AA@
  003c2	68 00 00 00 00	 push	 OFFSET ??_C@_0CC@PNCNPGGA@HeroReinforceDoneWnd?3?3iwm_comman@
  003c7	ff d6		 call	 esi
  003c9	8b 3d 00 00 00
	00		 mov	 edi, DWORD PTR __imp_?GetString@ioStringManager@@QAEPADPBD0HW4FileNamePrefix@1@@Z
  003cf	8b c8		 mov	 ecx, eax
  003d1	ff d7		 call	 edi
  003d3	50		 push	 eax
  003d4	8d 85 ec fe ff
	ff		 lea	 eax, DWORD PTR _szBuf$516219[ebp]
  003da	68 04 01 00 00	 push	 260			; 00000104H
  003df	50		 push	 eax
  003e0	ff 15 00 00 00
	00		 call	 DWORD PTR __imp_?SafeSprintf@@YAXPADHPBDH@Z

; 413  : 				kPrinter[0].AddTextPiece( FONT_SIZE_13, szBuf );

  003e6	f3 0f 10 05 00
	00 00 00	 movss	 xmm0, DWORD PTR __real@3f266666
  003ee	83 c4 10	 add	 esp, 16			; 00000010H
  003f1	8d 85 ec fe ff
	ff		 lea	 eax, DWORD PTR _szBuf$516219[ebp]
  003f7	50		 push	 eax
  003f8	51		 push	 ecx
  003f9	8d 85 6c fd ff
	ff		 lea	 eax, DWORD PTR _kPrinter$516215[ebp]
  003ff	f3 0f 11 04 24	 movss	 DWORD PTR [esp], xmm0
  00404	50		 push	 eax
  00405	e8 00 00 00 00	 call	 ?AddTextPiece@ioComplexStringPrinter@@QAAXMPBDZZ ; ioComplexStringPrinter::AddTextPiece
  0040a	83 c4 0c	 add	 esp, 12			; 0000000cH

; 414  : 
; 415  : 				kPrinter[1].SetTextStyle( TS_NORMAL );

  0040d	53		 push	 ebx
  0040e	8d 8d 8c fd ff
	ff		 lea	 ecx, DWORD PTR _kPrinter$516215[ebp+32]
  00414	e8 00 00 00 00	 call	 ?SetTextStyle@ioComplexStringPrinter@@QAEXW4TextStyle@@@Z ; ioComplexStringPrinter::SetTextStyle

; 416  : 				kPrinter[1].SetBkColor( 0, 0, 0 );

  00419	53		 push	 ebx
  0041a	53		 push	 ebx
  0041b	53		 push	 ebx
  0041c	8d 8d 8c fd ff
	ff		 lea	 ecx, DWORD PTR _kPrinter$516215[ebp+32]
  00422	e8 00 00 00 00	 call	 ?SetBkColor@ioComplexStringPrinter@@QAEXHHH@Z ; ioComplexStringPrinter::SetBkColor

; 417  : 				kPrinter[1].SetTextColor( TCT_DEFAULT_GRAY );

  00427	68 6e 6e 6e ff	 push	 -9539986		; ff6e6e6eH
  0042c	8d 8d 8c fd ff
	ff		 lea	 ecx, DWORD PTR _kPrinter$516215[ebp+32]
  00432	e8 00 00 00 00	 call	 ?SetTextColor@ioComplexStringPrinter@@QAEXK@Z ; ioComplexStringPrinter::SetTextColor

; 418  : 				kPrinter[1].AddTextPiece( FONT_SIZE_13, STR(2) );

  00437	53		 push	 ebx
  00438	6a 02		 push	 2
  0043a	68 00 00 00 00	 push	 OFFSET ??_C@_00CNPNBAHC@?$AA@
  0043f	68 00 00 00 00	 push	 OFFSET ??_C@_0CC@PNCNPGGA@HeroReinforceDoneWnd?3?3iwm_comman@
  00444	ff d6		 call	 esi
  00446	8b c8		 mov	 ecx, eax
  00448	ff d7		 call	 edi
  0044a	f3 0f 10 05 00
	00 00 00	 movss	 xmm0, DWORD PTR __real@3f266666
  00452	50		 push	 eax
  00453	51		 push	 ecx
  00454	8d 85 8c fd ff
	ff		 lea	 eax, DWORD PTR _kPrinter$516215[ebp+32]
  0045a	f3 0f 11 04 24	 movss	 DWORD PTR [esp], xmm0
  0045f	50		 push	 eax
  00460	e8 00 00 00 00	 call	 ?AddTextPiece@ioComplexStringPrinter@@QAAXMPBDZZ ; ioComplexStringPrinter::AddTextPiece
  00465	83 c4 0c	 add	 esp, 12			; 0000000cH

; 419  : 
; 420  : 				g_GUIMgr.SetPrevMsgListBox( NULL, MB_YESNO, this, kPrinter );

  00468	8d 85 6c fd ff
	ff		 lea	 eax, DWORD PTR _kPrinter$516215[ebp]
  0046e	50		 push	 eax
  0046f	ff b5 54 fd ff
	ff		 push	 DWORD PTR _this$GSCopy$[ebp]
  00475	6a 04		 push	 4
  00477	53		 push	 ebx
  00478	e8 00 00 00 00	 call	 ?GetSingleton@ioSP2GUIManager@@SAAAV1@XZ ; ioSP2GUIManager::GetSingleton
  0047d	8b c8		 mov	 ecx, eax
  0047f	e8 00 00 00 00	 call	 ?SetPrevMsgListBox@ioSP2GUIManager@@QAEXPAVioWnd@@H0PAVioComplexStringPrinter@@@Z ; ioSP2GUIManager::SetPrevMsgListBox

; 421  : 			}

  00484	68 00 00 00 00	 push	 OFFSET ??1ioComplexStringPrinter@@QAE@XZ ; ioComplexStringPrinter::~ioComplexStringPrinter
  00489	6a 0c		 push	 12			; 0000000cH
  0048b	6a 20		 push	 32			; 00000020H
  0048d	8d 85 6c fd ff
	ff		 lea	 eax, DWORD PTR _kPrinter$516215[ebp]
  00493	50		 push	 eax
  00494	88 5d fc	 mov	 BYTE PTR __$EHRec$[ebp+8], bl
  00497	e8 00 00 00 00	 call	 ??_M@YGXPAXIHP6EX0@Z@Z
$LN55@iwm_comman@2:
  0049c	8d 8d 44 fd ff
	ff		 lea	 ecx, DWORD PTR _szError$516213[ebp]
$LN54@iwm_comman@2:
  004a2	83 4d fc ff	 or	 DWORD PTR __$EHRec$[ebp+8], -1
  004a6	ff 15 00 00 00
	00		 call	 DWORD PTR __imp_??1ioHashString@@QAE@XZ
$LN18@iwm_comman@2:

; 466  : 	}
; 467  : }

  004ac	e8 00 00 00 00	 call	 __EH_epilog3_GS
  004b1	c2 0c 00	 ret	 12			; 0000000cH
_TEXT	ENDS
;	COMDAT text$x
text$x	SEGMENT
__unwindfunclet$?iwm_command@HeroReinforceDoneWnd@@UAEXPAVioWnd@@HK@Z$2:
  00000	8d 8d 34 fd ff
	ff		 lea	 ecx, DWORD PTR _szError$516237[ebp]
  00006	ff 25 00 00 00
	00		 jmp	 DWORD PTR __imp_??1ioHashString@@QAE@XZ
__unwindfunclet$?iwm_command@HeroReinforceDoneWnd@@UAEXPAVioWnd@@HK@Z$0:
  0000c	8d 8d 44 fd ff
	ff		 lea	 ecx, DWORD PTR _szError$516213[ebp]
  00012	ff 25 00 00 00
	00		 jmp	 DWORD PTR __imp_??1ioHashString@@QAE@XZ
__unwindfunclet$?iwm_command@HeroReinforceDoneWnd@@UAEXPAVioWnd@@HK@Z$1:
  00018	68 00 00 00 00	 push	 OFFSET ??1ioComplexStringPrinter@@QAE@XZ ; ioComplexStringPrinter::~ioComplexStringPrinter
  0001d	6a 0c		 push	 12			; 0000000cH
  0001f	6a 20		 push	 32			; 00000020H
  00021	8d 85 6c fd ff
	ff		 lea	 eax, DWORD PTR _kPrinter$516215[ebp]
  00027	50		 push	 eax
  00028	e8 00 00 00 00	 call	 ??_M@YGXPAXIHP6EX0@Z@Z
  0002d	c3		 ret	 0
__ehhandler$?iwm_command@HeroReinforceDoneWnd@@UAEXPAVioWnd@@HK@Z:
  0002e	8b 54 24 08	 mov	 edx, DWORD PTR [esp+8]
  00032	8d 42 0c	 lea	 eax, DWORD PTR [edx+12]
  00035	8b 8a 30 fd ff
	ff		 mov	 ecx, DWORD PTR [edx-720]
  0003b	33 c8		 xor	 ecx, eax
  0003d	e8 00 00 00 00	 call	 @__security_check_cookie@4
  00042	8b 4a fc	 mov	 ecx, DWORD PTR [edx-4]
  00045	33 c8		 xor	 ecx, eax
  00047	e8 00 00 00 00	 call	 @__security_check_cookie@4
  0004c	b8 00 00 00 00	 mov	 eax, OFFSET __ehfuncinfo$?iwm_command@HeroReinforceDoneWnd@@UAEXPAVioWnd@@HK@Z
  00051	e9 00 00 00 00	 jmp	 ___CxxFrameHandler3
text$x	ENDS
?iwm_command@HeroReinforceDoneWnd@@UAEXPAVioWnd@@HK@Z ENDP ; HeroReinforceDoneWnd::iwm_command
PUBLIC	??_C@_0CF@FAAKMIMP@HeroReinforceDoneWnd?3?3SetSoldier@ ; `string'
PUBLIC	??_C@_0EC@MCCEHPNE@HeroReinforceDoneWnd?3?3UpdateSold@ ; `string'
PUBLIC	_iClassType$GSCopy$
PUBLIC	?SetSoldierInfo@HeroReinforceDoneWnd@@QAEXH@Z	; HeroReinforceDoneWnd::SetSoldierInfo
EXTRN	?SetCharGardedPrinter@ioPowerUpManager@@QAEXHHHMAAVioComplexStringPrinter@@@Z:PROC ; ioPowerUpManager::SetCharGardedPrinter
EXTRN	__imp_?SafeSprintf@@YAXPADHPBDH1@Z:PROC
EXTRN	__imp_?PlaySoundA@ioSoundManager@@QAEKABVioHashString@@HK@Z:PROC
EXTRN	?CharAttachEffect@NewShopHelpWnd@@QAEPAVioEffect@@ABVioHashString@@PAVioEntityEvent@@@Z:PROC ; NewShopHelpWnd::CharAttachEffect
;	COMDAT ??_C@_0CF@FAAKMIMP@HeroReinforceDoneWnd?3?3SetSoldier@
; File d:\lost saga for developer\youtube\tutorial\source\src\lsclient\encryptvalue.h
CONST	SEGMENT
??_C@_0CF@FAAKMIMP@HeroReinforceDoneWnd?3?3SetSoldier@ DB 'HeroReinforceD'
	DB	'oneWnd::SetSoldierInfo', 00H		; `string'
CONST	ENDS
;	COMDAT ??_C@_0EC@MCCEHPNE@HeroReinforceDoneWnd?3?3UpdateSold@
CONST	SEGMENT
??_C@_0EC@MCCEHPNE@HeroReinforceDoneWnd?3?3UpdateSold@ DB 'HeroReinforceD'
	DB	'oneWnd::UpdateSoldierInfo - iClassType is not exist', 00H ; `string'
CONST	ENDS
;	COMDAT xdata$x
xdata$x	SEGMENT
__unwindtable$?SetSoldierInfo@HeroReinforceDoneWnd@@QAEXH@Z DD 0ffffffffH
	DD	FLAT:__unwindfunclet$?SetSoldierInfo@HeroReinforceDoneWnd@@QAEXH@Z$0
__ehfuncinfo$?SetSoldierInfo@HeroReinforceDoneWnd@@QAEXH@Z DD 019930522H
	DD	01H
	DD	FLAT:__unwindtable$?SetSoldierInfo@HeroReinforceDoneWnd@@QAEXH@Z
	DD	2 DUP(00H)
	DD	2 DUP(00H)
	DD	00H
	DD	01H
; Function compile flags: /Ogsp
; File d:\lost saga for developer\youtube\tutorial\source\src\lsclient\gui\heroreinforcedownwnd.cpp
xdata$x	ENDS
;	COMDAT ?SetSoldierInfo@HeroReinforceDoneWnd@@QAEXH@Z
_TEXT	SEGMENT
_szGradeTitle$ = -580					; size = 16
_kSlot$516294 = -564					; size = 12
_iSoulStoneCount$ = -552				; size = 4
_iClassType$GSCopy$ = -548				; size = 4
_value$519377 = -548					; size = 4
_value$519367 = -544					; size = 4
_i$516302 = -544					; size = 4
tv438 = -540						; size = 4
_value$519372 = -540					; size = 4
_value$519362 = -540					; size = 4
_szBuf$ = -536						; size = 260
_szText$ = -276						; size = 260
__$EHRec$ = -12						; size = 12
_iClassType$ = 8					; size = 4
?SetSoldierInfo@HeroReinforceDoneWnd@@QAEXH@Z PROC	; HeroReinforceDoneWnd::SetSoldierInfo, COMDAT
; _this$ = ecx

; 533  : {

  00000	68 38 02 00 00	 push	 568			; 00000238H
  00005	b8 00 00 00 00	 mov	 eax, __ehhandler$?SetSoldierInfo@HeroReinforceDoneWnd@@QAEXH@Z
  0000a	e8 00 00 00 00	 call	 __EH_prolog3_GS
  0000f	8b 7d 08	 mov	 edi, DWORD PTR _iClassType$[ebp]

; 534  : 	if ( g_MyInfo.GetClassArray( iClassType ) == -1 )

  00012	57		 push	 edi
  00013	8b d9		 mov	 ebx, ecx

; 597  : 
; 598  : 	//soultone 보유 개수
; 599  : 	memset( szText, 0, sizeof(szText) );

  00015	89 bd dc fd ff
	ff		 mov	 DWORD PTR _iClassType$GSCopy$[ebp], edi
  0001b	e8 00 00 00 00	 call	 ?GetSingleton@ioMyInfo@@SAAAV1@XZ ; ioMyInfo::GetSingleton
  00020	8b c8		 mov	 ecx, eax
  00022	e8 00 00 00 00	 call	 ?GetClassArray@ioMyInfo@@QAEHH@Z ; ioMyInfo::GetClassArray
  00027	83 f8 ff	 cmp	 eax, -1
  0002a	75 27		 jne	 SHORT $LN10@SetSoldier@2

; 535  : 	{
; 536  : 		LOG.PrintTimeAndLog( 0, "HeroReinforceDoneWnd::UpdateSoldierInfo - iClassType is not exist" );

  0002c	68 00 00 00 00	 push	 OFFSET ??_C@_0EC@MCCEHPNE@HeroReinforceDoneWnd?3?3UpdateSold@
  00031	33 f6		 xor	 esi, esi
  00033	56		 push	 esi
  00034	ff 35 00 00 00
	00		 push	 DWORD PTR __imp_?LOG@@3VCLog@@A
  0003a	ff 15 00 00 00
	00		 call	 DWORD PTR __imp_?PrintTimeAndLog@CLog@@QAAXHPADZZ
  00040	83 c4 0c	 add	 esp, 12			; 0000000cH

; 537  : 		HideChildWnd( HeroReinforceDoneWnd::ID_SOLDIER_WND );

  00043	56		 push	 esi
  00044	6a 66		 push	 102			; 00000066H
  00046	8b cb		 mov	 ecx, ebx
  00048	ff 15 00 00 00
	00		 call	 DWORD PTR __imp_?HideChildWnd@ioWnd@@QAEXK_N@Z

; 538  : 		return;

  0004e	e9 a2 04 00 00	 jmp	 $LN11@SetSoldier@2
$LN10@SetSoldier@2:

; 539  : 	}
; 540  : 
; 541  : 	m_CharInfo.Init();

  00053	8d 8b 64 01 00
	00		 lea	 ecx, DWORD PTR [ebx+356]
  00059	e8 00 00 00 00	 call	 ?Init@CHARACTER@@QAEXXZ	; CHARACTER::Init

; 542  : 	m_CharInfo = g_MyInfo.GetCharacterToClassType( iClassType );

  0005e	57		 push	 edi
  0005f	e8 00 00 00 00	 call	 ?GetSingleton@ioMyInfo@@SAAAV1@XZ ; ioMyInfo::GetSingleton
  00064	8b c8		 mov	 ecx, eax
  00066	e8 00 00 00 00	 call	 ?GetCharacterToClassType@ioMyInfo@@QAEABUCHARACTER@@H@Z ; ioMyInfo::GetCharacterToClassType
  0006b	50		 push	 eax
  0006c	8d 8b 64 01 00
	00		 lea	 ecx, DWORD PTR [ebx+356]
  00072	e8 00 00 00 00	 call	 ??4CHARACTER@@QAEAAU0@ABU0@@Z ; CHARACTER::operator=

; 543  : 	NewShopHelpWnd *pCharWnd = dynamic_cast<NewShopHelpWnd *>( FindChildWnd( HeroReinforceDoneWnd::ID_SOLDIER_WND ) );

  00077	33 f6		 xor	 esi, esi
  00079	56		 push	 esi
  0007a	68 00 00 00 00	 push	 OFFSET ??_R0?AVNewShopHelpWnd@@@8
  0007f	68 00 00 00 00	 push	 OFFSET ??_R0?AVioWnd@@@8
  00084	56		 push	 esi
  00085	6a 66		 push	 102			; 00000066H
  00087	8b cb		 mov	 ecx, ebx
  00089	ff 15 00 00 00
	00		 call	 DWORD PTR __imp_?FindChildWnd@ioWnd@@QAEPAV1@K@Z
  0008f	50		 push	 eax
  00090	e8 00 00 00 00	 call	 ___RTDynamicCast
  00095	8b f8		 mov	 edi, eax
  00097	83 c4 14	 add	 esp, 20			; 00000014H

; 544  : 	if( pCharWnd )

  0009a	3b fe		 cmp	 edi, esi
  0009c	0f 84 8c 00 00
	00		 je	 $LN7@SetSoldier@2

; 545  : 	{
; 546  : 		pCharWnd->SetZPosition( 500.0f );

  000a2	f3 0f 10 05 00
	00 00 00	 movss	 xmm0, DWORD PTR __real@43fa0000
  000aa	51		 push	 ecx
  000ab	8b cf		 mov	 ecx, edi
  000ad	f3 0f 11 04 24	 movss	 DWORD PTR [esp], xmm0
  000b2	e8 00 00 00 00	 call	 ?SetZPosition@NewShopHelpWnd@@QAEXM@Z ; NewShopHelpWnd::SetZPosition

; 547  : 		pCharWnd->SetChar( m_CharInfo );

  000b7	8d 83 64 01 00
	00		 lea	 eax, DWORD PTR [ebx+356]
  000bd	50		 push	 eax
  000be	8b cf		 mov	 ecx, edi
  000c0	e8 00 00 00 00	 call	 ?SetChar@NewShopHelpWnd@@QAEXABUCHARACTER@@@Z ; NewShopHelpWnd::SetChar

; 548  : 		pCharWnd->SetEquip( false, false, false );

  000c5	56		 push	 esi
  000c6	56		 push	 esi
  000c7	56		 push	 esi
  000c8	8b cf		 mov	 ecx, edi
  000ca	e8 00 00 00 00	 call	 ?SetEquip@NewShopHelpWnd@@QAEX_N00@Z ; NewShopHelpWnd::SetEquip

; 549  : 		pCharWnd->SetUserInfoToolTip( true );
; 550  : 		pCharWnd->SetCharScale( 0.85f );

  000cf	f3 0f 10 05 00
	00 00 00	 movss	 xmm0, DWORD PTR __real@3f59999a
  000d7	51		 push	 ecx
  000d8	8b cf		 mov	 ecx, edi
  000da	c6 87 a9 04 00
	00 01		 mov	 BYTE PTR [edi+1193], 1
  000e1	f3 0f 11 04 24	 movss	 DWORD PTR [esp], xmm0
  000e6	e8 00 00 00 00	 call	 ?SetCharScale@NewShopHelpWnd@@QAEXM@Z ; NewShopHelpWnd::SetCharScale

; 551  : 		if ( !m_szEffectName.IsEmpty() )

  000eb	8d 8b 88 05 00
	00		 lea	 ecx, DWORD PTR [ebx+1416]
  000f1	ff 15 00 00 00
	00		 call	 DWORD PTR __imp_?IsEmpty@ioHashString@@QBE_NXZ
  000f7	84 c0		 test	 al, al
  000f9	75 33		 jne	 SHORT $LN7@SetSoldier@2

; 552  : 		{
; 553  : 			pCharWnd->CharAttachEffect( m_szEffectName );

  000fb	56		 push	 esi
  000fc	8d 83 88 05 00
	00		 lea	 eax, DWORD PTR [ebx+1416]
  00102	50		 push	 eax
  00103	8b cf		 mov	 ecx, edi
  00105	e8 00 00 00 00	 call	 ?CharAttachEffect@NewShopHelpWnd@@QAEPAVioEffect@@ABVioHashString@@PAVioEntityEvent@@@Z ; NewShopHelpWnd::CharAttachEffect

; 554  : 			if( !m_szSuccessSound.IsEmpty() )

  0010a	8d bb 98 05 00
	00		 lea	 edi, DWORD PTR [ebx+1432]
  00110	8b cf		 mov	 ecx, edi
  00112	ff 15 00 00 00
	00		 call	 DWORD PTR __imp_?IsEmpty@ioHashString@@QBE_NXZ
  00118	84 c0		 test	 al, al
  0011a	75 12		 jne	 SHORT $LN7@SetSoldier@2

; 555  : 				g_SoundMgr.PlaySound( m_szSuccessSound, DSBVOLUME_MAX, PSM_THREAD );

  0011c	6a 04		 push	 4
  0011e	56		 push	 esi
  0011f	57		 push	 edi
  00120	ff 15 00 00 00
	00		 call	 DWORD PTR __imp_?GetSingleton@ioSoundManager@@SAAAV1@XZ
  00126	8b c8		 mov	 ecx, eax
  00128	ff 15 00 00 00
	00		 call	 DWORD PTR __imp_?PlaySoundA@ioSoundManager@@QAEKABVioHashString@@HK@Z
$LN7@SetSoldier@2:

; 556  : 		}
; 557  : 	}
; 558  : 
; 559  : 	int iSoulStoneCount = 0;

  0012e	89 b5 d8 fd ff
	ff		 mov	 DWORD PTR _iSoulStoneCount$[ebp], esi

; 560  : 	ioUserEtcItem *pUserEtcItem = g_MyInfo.GetUserEtcItem();

  00134	e8 00 00 00 00	 call	 ?GetSingleton@ioMyInfo@@SAAAV1@XZ ; ioMyInfo::GetSingleton
  00139	8d 88 44 01 00
	00		 lea	 ecx, DWORD PTR [eax+324]

; 561  : 	if( pUserEtcItem )

  0013f	3b ce		 cmp	 ecx, esi
  00141	74 33		 je	 SHORT $LN5@SetSoldier@2

; 562  : 	{
; 563  : 		ioUserEtcItem::ETCITEMSLOT kSlot;
; 564  : 		if( pUserEtcItem->GetEtcItem( ioEtcItem::EIT_ETC_SOUL_STONE, kSlot ) )

  00143	8d 85 cc fd ff
	ff		 lea	 eax, DWORD PTR _kSlot$516294[ebp]
  00149	50		 push	 eax
  0014a	68 e7 55 0f 00	 push	 1005031			; 000f55e7H
  0014f	89 b5 cc fd ff
	ff		 mov	 DWORD PTR _kSlot$516294[ebp], esi
  00155	89 b5 d0 fd ff
	ff		 mov	 DWORD PTR _kSlot$516294[ebp+4], esi
  0015b	89 b5 d4 fd ff
	ff		 mov	 DWORD PTR _kSlot$516294[ebp+8], esi
  00161	e8 00 00 00 00	 call	 ?GetEtcItem@ioUserEtcItem@@QAE_NHAAUETCITEMSLOT@1@@Z ; ioUserEtcItem::GetEtcItem
  00166	84 c0		 test	 al, al
  00168	74 0c		 je	 SHORT $LN5@SetSoldier@2

; 565  : 			iSoulStoneCount = kSlot.m_iValue1;

  0016a	8b 85 d0 fd ff
	ff		 mov	 eax, DWORD PTR _kSlot$516294[ebp+4]
  00170	89 85 d8 fd ff
	ff		 mov	 DWORD PTR _iSoulStoneCount$[ebp], eax
$LN5@SetSoldier@2:

; 566  : 	}
; 567  : 
; 568  : 	//용병 정보
; 569  : 
; 570  : 	char szBuf[MAX_PATH], szText[MAX_PATH];
; 571  : 	memset( szBuf, 0, sizeof(szBuf) );

  00176	bf 04 01 00 00	 mov	 edi, 260		; 00000104H
  0017b	57		 push	 edi
  0017c	8d 85 e8 fd ff
	ff		 lea	 eax, DWORD PTR _szBuf$[ebp]
  00182	56		 push	 esi
  00183	50		 push	 eax
  00184	e8 00 00 00 00	 call	 _memset

; 572  : 	memset( szText, 0, sizeof(szText) );

  00189	57		 push	 edi
  0018a	8d 85 ec fe ff
	ff		 lea	 eax, DWORD PTR _szText$[ebp]
  00190	56		 push	 esi
  00191	50		 push	 eax
  00192	e8 00 00 00 00	 call	 _memset
  00197	83 c4 18	 add	 esp, 24			; 00000018H

; 573  : 
; 574  : 	SafeSprintf( szBuf, sizeof( szBuf ), STR(1), g_MyInfo.GetClassLevel( m_CharInfo.m_class_type, false ), g_MyInfo.GetClassName( m_CharInfo.m_class_type ) );

  0019a	8d 85 e4 fd ff
	ff		 lea	 eax, DWORD PTR _value$519362[ebp]
  001a0	50		 push	 eax
  001a1	8d 8b 64 01 00
	00		 lea	 ecx, DWORD PTR [ebx+356]
  001a7	e8 00 00 00 00	 call	 ?DecryptValueToPool@?$CEncrypt@H@@QAEXPAH@Z ; CEncrypt<int>::DecryptValueToPool
  001ac	8d 85 e0 fd ff
	ff		 lea	 eax, DWORD PTR _value$519367[ebp]
  001b2	50		 push	 eax
  001b3	8d 8b 64 01 00
	00		 lea	 ecx, DWORD PTR [ebx+356]
  001b9	e8 00 00 00 00	 call	 ?DecryptValueToPool@?$CEncrypt@H@@QAEXPAH@Z ; CEncrypt<int>::DecryptValueToPool
  001be	56		 push	 esi
  001bf	ff b5 e4 fd ff
	ff		 push	 DWORD PTR _value$519362[ebp]
  001c5	e8 00 00 00 00	 call	 ?GetSingleton@ioMyInfo@@SAAAV1@XZ ; ioMyInfo::GetSingleton
  001ca	8b c8		 mov	 ecx, eax
  001cc	e8 00 00 00 00	 call	 ?GetClassNameA@ioMyInfo@@QAEPBDHH@Z ; ioMyInfo::GetClassNameA
  001d1	50		 push	 eax
  001d2	56		 push	 esi
  001d3	ff b5 e0 fd ff
	ff		 push	 DWORD PTR _value$519367[ebp]
  001d9	e8 00 00 00 00	 call	 ?GetSingleton@ioMyInfo@@SAAAV1@XZ ; ioMyInfo::GetSingleton
  001de	8b c8		 mov	 ecx, eax
  001e0	e8 00 00 00 00	 call	 ?GetClassLevel@ioMyInfo@@QAEHH_N@Z ; ioMyInfo::GetClassLevel
  001e5	50		 push	 eax
  001e6	56		 push	 esi
  001e7	6a 01		 push	 1
  001e9	68 00 00 00 00	 push	 OFFSET ??_C@_00CNPNBAHC@?$AA@
  001ee	68 00 00 00 00	 push	 OFFSET ??_C@_0CF@FAAKMIMP@HeroReinforceDoneWnd?3?3SetSoldier@
  001f3	ff 15 00 00 00
	00		 call	 DWORD PTR __imp_?GetSingleton@ioStringManager@@SAAAV1@XZ
  001f9	8b c8		 mov	 ecx, eax
  001fb	ff 15 00 00 00
	00		 call	 DWORD PTR __imp_?GetString@ioStringManager@@QAEPADPBD0HW4FileNamePrefix@1@@Z
  00201	50		 push	 eax
  00202	8d 85 e8 fd ff
	ff		 lea	 eax, DWORD PTR _szBuf$[ebp]
  00208	57		 push	 edi
  00209	50		 push	 eax
  0020a	ff 15 00 00 00
	00		 call	 DWORD PTR __imp_?SafeSprintf@@YAXPADHPBDH1@Z
  00210	83 c4 14	 add	 esp, 20			; 00000014H

; 575  : 
; 576  : 	ioHashString szGradeTitle = g_PowerUpManager.GetCharGradeTitle( m_CharInfo.m_class_type, m_CharInfo.m_eCharPowerUpType );

  00213	8d 85 e4 fd ff
	ff		 lea	 eax, DWORD PTR _value$519372[ebp]
  00219	50		 push	 eax
  0021a	8d 8b 64 01 00
	00		 lea	 ecx, DWORD PTR [ebx+356]
  00220	e8 00 00 00 00	 call	 ?DecryptValueToPool@?$CEncrypt@H@@QAEXPAH@Z ; CEncrypt<int>::DecryptValueToPool
  00225	0f b6 83 20 04
	00 00		 movzx	 eax, BYTE PTR [ebx+1056]
  0022c	50		 push	 eax
  0022d	ff b5 e4 fd ff
	ff		 push	 DWORD PTR _value$519372[ebp]
  00233	e8 00 00 00 00	 call	 ?GetSingleton@ioPowerUpManager@@SAAAV1@XZ ; ioPowerUpManager::GetSingleton
  00238	8b c8		 mov	 ecx, eax
  0023a	e8 00 00 00 00	 call	 ?GetCharGradeTitle@ioPowerUpManager@@QBEABVioHashString@@HH@Z ; ioPowerUpManager::GetCharGradeTitle
  0023f	50		 push	 eax
  00240	8d 8d bc fd ff
	ff		 lea	 ecx, DWORD PTR _szGradeTitle$[ebp]
  00246	ff 15 00 00 00
	00		 call	 DWORD PTR __imp_??0ioHashString@@QAE@ABV0@@Z

; 577  : 	if ( szGradeTitle.IsEmpty() )

  0024c	8d 8d bc fd ff
	ff		 lea	 ecx, DWORD PTR _szGradeTitle$[ebp]
  00252	89 75 fc	 mov	 DWORD PTR __$EHRec$[ebp+8], esi
  00255	ff 15 00 00 00
	00		 call	 DWORD PTR __imp_?IsEmpty@ioHashString@@QBE_NXZ

; 578  : 		return;

  0025b	8d 8d bc fd ff
	ff		 lea	 ecx, DWORD PTR _szGradeTitle$[ebp]
  00261	84 c0		 test	 al, al
  00263	0f 85 82 02 00
	00		 jne	 $LN31@SetSoldier@2

; 579  : 	SafeSprintf( szText, sizeof( szText ), STR(2), szGradeTitle.c_str() );

  00269	ff 15 00 00 00
	00		 call	 DWORD PTR __imp_?c_str@ioHashString@@QBEPBDXZ
  0026f	50		 push	 eax
  00270	56		 push	 esi
  00271	6a 02		 push	 2
  00273	68 00 00 00 00	 push	 OFFSET ??_C@_00CNPNBAHC@?$AA@
  00278	68 00 00 00 00	 push	 OFFSET ??_C@_0CF@FAAKMIMP@HeroReinforceDoneWnd?3?3SetSoldier@
  0027d	ff 15 00 00 00
	00		 call	 DWORD PTR __imp_?GetSingleton@ioStringManager@@SAAAV1@XZ
  00283	8b c8		 mov	 ecx, eax
  00285	ff 15 00 00 00
	00		 call	 DWORD PTR __imp_?GetString@ioStringManager@@QAEPADPBD0HW4FileNamePrefix@1@@Z
  0028b	50		 push	 eax
  0028c	8d 85 ec fe ff
	ff		 lea	 eax, DWORD PTR _szText$[ebp]
  00292	57		 push	 edi
  00293	50		 push	 eax
  00294	ff 15 00 00 00
	00		 call	 DWORD PTR __imp_?SafeSprintf@@YAXPADHPBD1@Z
  0029a	83 c4 10	 add	 esp, 16			; 00000010H

; 580  : 
; 581  : 	ClearList();

  0029d	8b cb		 mov	 ecx, ebx
  0029f	e8 00 00 00 00	 call	 ?ClearList@HeroReinforceDoneWnd@@IAEXXZ ; HeroReinforceDoneWnd::ClearList

; 582  : 	//용병 레벨 및 이름
; 583  : 	m_SoldierInfo[0].SetTextStyle( TS_NORMAL );

  002a4	8d 8b 88 04 00
	00		 lea	 ecx, DWORD PTR [ebx+1160]
  002aa	56		 push	 esi
  002ab	e8 00 00 00 00	 call	 ?SetTextStyle@ioComplexStringPrinter@@QAEXW4TextStyle@@@Z ; ioComplexStringPrinter::SetTextStyle

; 584  : 	m_SoldierInfo[0].SetBkColor( 0, 0, 0 );

  002b0	56		 push	 esi
  002b1	56		 push	 esi
  002b2	56		 push	 esi
  002b3	8d 8b 88 04 00
	00		 lea	 ecx, DWORD PTR [ebx+1160]
  002b9	e8 00 00 00 00	 call	 ?SetBkColor@ioComplexStringPrinter@@QAEXHHH@Z ; ioComplexStringPrinter::SetBkColor

; 585  : 	m_SoldierInfo[0].SetTextColor( g_UIImageRenderMgr.GetGradeTextColor( g_UIImageRenderMgr.GetPowerUpGradeType( iClassType ) ) );

  002be	ff b5 dc fd ff
	ff		 push	 DWORD PTR _iClassType$GSCopy$[ebp]
  002c4	e8 00 00 00 00	 call	 ?GetSingleton@ioUIImageRenderManager@@SAAAV1@XZ ; ioUIImageRenderManager::GetSingleton
  002c9	8b c8		 mov	 ecx, eax
  002cb	e8 00 00 00 00	 call	 ?GetPowerUpGradeType@ioUIImageRenderManager@@QAEHH@Z ; ioUIImageRenderManager::GetPowerUpGradeType
  002d0	50		 push	 eax
  002d1	e8 00 00 00 00	 call	 ?GetSingleton@ioUIImageRenderManager@@SAAAV1@XZ ; ioUIImageRenderManager::GetSingleton
  002d6	8b c8		 mov	 ecx, eax
  002d8	e8 00 00 00 00	 call	 ?GetGradeTextColor@ioUIImageRenderManager@@QAEKH@Z ; ioUIImageRenderManager::GetGradeTextColor
  002dd	50		 push	 eax
  002de	8d 8b 88 04 00
	00		 lea	 ecx, DWORD PTR [ebx+1160]
  002e4	e8 00 00 00 00	 call	 ?SetTextColor@ioComplexStringPrinter@@QAEXK@Z ; ioComplexStringPrinter::SetTextColor

; 586  : 	m_SoldierInfo[0].AddTextPiece( FONT_SIZE_12, szBuf );

  002e9	f3 0f 10 05 00
	00 00 00	 movss	 xmm0, DWORD PTR __real@3f19999a
  002f1	8d 85 e8 fd ff
	ff		 lea	 eax, DWORD PTR _szBuf$[ebp]
  002f7	50		 push	 eax
  002f8	51		 push	 ecx
  002f9	8d 83 88 04 00
	00		 lea	 eax, DWORD PTR [ebx+1160]
  002ff	f3 0f 11 04 24	 movss	 DWORD PTR [esp], xmm0
  00304	50		 push	 eax
  00305	e8 00 00 00 00	 call	 ?AddTextPiece@ioComplexStringPrinter@@QAAXMPBDZZ ; ioComplexStringPrinter::AddTextPiece
  0030a	83 c4 0c	 add	 esp, 12			; 0000000cH

; 587  : 
; 588  : 	//영구 용병
; 589  : 	m_SoldierInfo[1].SetTextStyle( TS_NORMAL );

  0030d	8d 8b a8 04 00
	00		 lea	 ecx, DWORD PTR [ebx+1192]
  00313	56		 push	 esi
  00314	e8 00 00 00 00	 call	 ?SetTextStyle@ioComplexStringPrinter@@QAEXW4TextStyle@@@Z ; ioComplexStringPrinter::SetTextStyle

; 590  : 	m_SoldierInfo[1].SetBkColor( 0, 0, 0 );	

  00319	56		 push	 esi
  0031a	56		 push	 esi
  0031b	56		 push	 esi
  0031c	8d 8b a8 04 00
	00		 lea	 ecx, DWORD PTR [ebx+1192]
  00322	e8 00 00 00 00	 call	 ?SetBkColor@ioComplexStringPrinter@@QAEXHHH@Z ; ioComplexStringPrinter::SetBkColor

; 591  : 	m_SoldierInfo[1].SetTextColor( TCT_DEFAULT_BLUE );

  00327	68 b2 46 16 ff	 push	 -15317326		; ff1646b2H
  0032c	8d 8b a8 04 00
	00		 lea	 ecx, DWORD PTR [ebx+1192]
  00332	e8 00 00 00 00	 call	 ?SetTextColor@ioComplexStringPrinter@@QAEXK@Z ; ioComplexStringPrinter::SetTextColor

; 592  : 	m_SoldierInfo[1].AddTextPiece( FONT_SIZE_12, szText );

  00337	f3 0f 10 05 00
	00 00 00	 movss	 xmm0, DWORD PTR __real@3f19999a
  0033f	8d 85 ec fe ff
	ff		 lea	 eax, DWORD PTR _szText$[ebp]
  00345	50		 push	 eax
  00346	51		 push	 ecx
  00347	8d 83 a8 04 00
	00		 lea	 eax, DWORD PTR [ebx+1192]
  0034d	f3 0f 11 04 24	 movss	 DWORD PTR [esp], xmm0
  00352	50		 push	 eax
  00353	e8 00 00 00 00	 call	 ?AddTextPiece@ioComplexStringPrinter@@QAAXMPBDZZ ; ioComplexStringPrinter::AddTextPiece
  00358	8d 83 c8 04 00
	00		 lea	 eax, DWORD PTR [ebx+1224]
  0035e	83 c4 0c	 add	 esp, 12			; 0000000cH

; 593  : 
; 594  : 	//진화된 내용 설명
; 595  : 	for( int i=0; i < REINFORCED_SOLDIER_INFO_CNT; ++i )

  00361	89 b5 e0 fd ff
	ff		 mov	 DWORD PTR _i$516302[ebp], esi
  00367	89 85 e4 fd ff
	ff		 mov	 DWORD PTR tv438[ebp], eax
$LL3@SetSoldier@2:

; 596  : 		g_PowerUpManager.SetCharGardedPrinter( m_CharInfo.m_class_type, m_CharInfo.m_eCharPowerUpType, i,  FONT_SIZE_12, m_ReinforcedSoldierInfo[i] );

  0036d	8d 85 dc fd ff
	ff		 lea	 eax, DWORD PTR _value$519377[ebp]
  00373	50		 push	 eax
  00374	8d 8b 64 01 00
	00		 lea	 ecx, DWORD PTR [ebx+356]
  0037a	e8 00 00 00 00	 call	 ?DecryptValueToPool@?$CEncrypt@H@@QAEXPAH@Z ; CEncrypt<int>::DecryptValueToPool
  0037f	ff b5 e4 fd ff
	ff		 push	 DWORD PTR tv438[ebp]
  00385	f3 0f 10 05 00
	00 00 00	 movss	 xmm0, DWORD PTR __real@3f19999a
  0038d	0f b6 83 20 04
	00 00		 movzx	 eax, BYTE PTR [ebx+1056]
  00394	51		 push	 ecx
  00395	f3 0f 11 04 24	 movss	 DWORD PTR [esp], xmm0
  0039a	ff b5 e0 fd ff
	ff		 push	 DWORD PTR _i$516302[ebp]
  003a0	50		 push	 eax
  003a1	ff b5 dc fd ff
	ff		 push	 DWORD PTR _value$519377[ebp]
  003a7	e8 00 00 00 00	 call	 ?GetSingleton@ioPowerUpManager@@SAAAV1@XZ ; ioPowerUpManager::GetSingleton
  003ac	8b c8		 mov	 ecx, eax
  003ae	e8 00 00 00 00	 call	 ?SetCharGardedPrinter@ioPowerUpManager@@QAEXHHHMAAVioComplexStringPrinter@@@Z ; ioPowerUpManager::SetCharGardedPrinter
  003b3	ff 85 e0 fd ff
	ff		 inc	 DWORD PTR _i$516302[ebp]
  003b9	83 85 e4 fd ff
	ff 20		 add	 DWORD PTR tv438[ebp], 32 ; 00000020H
  003c0	83 bd e0 fd ff
	ff 04		 cmp	 DWORD PTR _i$516302[ebp], 4
  003c7	7c a4		 jl	 SHORT $LL3@SetSoldier@2

; 597  : 
; 598  : 	//soultone 보유 개수
; 599  : 	memset( szText, 0, sizeof(szText) );

  003c9	57		 push	 edi
  003ca	8d 85 ec fe ff
	ff		 lea	 eax, DWORD PTR _szText$[ebp]
  003d0	56		 push	 esi
  003d1	50		 push	 eax
  003d2	e8 00 00 00 00	 call	 _memset
  003d7	83 c4 0c	 add	 esp, 12			; 0000000cH

; 600  : 	SafeSprintf( szText, sizeof( szText ), STR(3), iSoulStoneCount );

  003da	ff b5 d8 fd ff
	ff		 push	 DWORD PTR _iSoulStoneCount$[ebp]
  003e0	56		 push	 esi
  003e1	6a 03		 push	 3
  003e3	68 00 00 00 00	 push	 OFFSET ??_C@_00CNPNBAHC@?$AA@
  003e8	68 00 00 00 00	 push	 OFFSET ??_C@_0CF@FAAKMIMP@HeroReinforceDoneWnd?3?3SetSoldier@
  003ed	ff 15 00 00 00
	00		 call	 DWORD PTR __imp_?GetSingleton@ioStringManager@@SAAAV1@XZ
  003f3	8b c8		 mov	 ecx, eax
  003f5	ff 15 00 00 00
	00		 call	 DWORD PTR __imp_?GetString@ioStringManager@@QAEPADPBD0HW4FileNamePrefix@1@@Z
  003fb	50		 push	 eax
  003fc	8d 85 ec fe ff
	ff		 lea	 eax, DWORD PTR _szText$[ebp]
  00402	57		 push	 edi
  00403	50		 push	 eax
  00404	ff 15 00 00 00
	00		 call	 DWORD PTR __imp_?SafeSprintf@@YAXPADHPBDH@Z
  0040a	83 c4 10	 add	 esp, 16			; 00000010H

; 601  : 	m_SoulStonePrinter.SetTextStyle( TS_NORMAL );

  0040d	8d 8b 48 05 00
	00		 lea	 ecx, DWORD PTR [ebx+1352]
  00413	56		 push	 esi
  00414	e8 00 00 00 00	 call	 ?SetTextStyle@ioComplexStringPrinter@@QAEXW4TextStyle@@@Z ; ioComplexStringPrinter::SetTextStyle

; 602  : 	m_SoulStonePrinter.SetBkColor( 0, 0, 0 );	

  00419	56		 push	 esi
  0041a	56		 push	 esi
  0041b	56		 push	 esi
  0041c	8d 8b 48 05 00
	00		 lea	 ecx, DWORD PTR [ebx+1352]
  00422	e8 00 00 00 00	 call	 ?SetBkColor@ioComplexStringPrinter@@QAEXHHH@Z ; ioComplexStringPrinter::SetBkColor

; 603  : 	m_SoulStonePrinter.SetTextColor( TCT_DEFAULT_RED );

  00427	68 00 16 b9 ff	 push	 -4647424		; ffb91600H
  0042c	8d 8b 48 05 00
	00		 lea	 ecx, DWORD PTR [ebx+1352]
  00432	e8 00 00 00 00	 call	 ?SetTextColor@ioComplexStringPrinter@@QAEXK@Z ; ioComplexStringPrinter::SetTextColor

; 604  : 	m_SoulStonePrinter.AddTextPiece( FONT_SIZE_12, szText );

  00437	f3 0f 10 05 00
	00 00 00	 movss	 xmm0, DWORD PTR __real@3f19999a
  0043f	8d 85 ec fe ff
	ff		 lea	 eax, DWORD PTR _szText$[ebp]
  00445	50		 push	 eax
  00446	51		 push	 ecx
  00447	8d 83 48 05 00
	00		 lea	 eax, DWORD PTR [ebx+1352]
  0044d	f3 0f 11 04 24	 movss	 DWORD PTR [esp], xmm0
  00452	50		 push	 eax
  00453	e8 00 00 00 00	 call	 ?AddTextPiece@ioComplexStringPrinter@@QAAXMPBDZZ ; ioComplexStringPrinter::AddTextPiece

; 605  : 
; 606  : 	memset( szText, 0, sizeof(szText) );

  00458	57		 push	 edi
  00459	8d 85 ec fe ff
	ff		 lea	 eax, DWORD PTR _szText$[ebp]
  0045f	56		 push	 esi
  00460	50		 push	 eax
  00461	e8 00 00 00 00	 call	 _memset
  00466	83 c4 18	 add	 esp, 24			; 00000018H

; 607  : 	SafeSprintf( szText, sizeof( szText ), STR(4),  szGradeTitle.c_str() );

  00469	8d 8d bc fd ff
	ff		 lea	 ecx, DWORD PTR _szGradeTitle$[ebp]
