; Listing generated by Microsoft (R) Optimizing Compiler Version 16.00.30319.01 

	TITLE	D:\Lost Saga For Developer\Youtube\Tutorial\Source\src\LSClient\GUI\HomeEtcItemNeedPopup.cpp
	.686P
	.XMM
	include listing.inc
	.model	flat

INCLUDELIB MSVCRT
INCLUDELIB OLDNAMES

PUBLIC	??_7HomeEtcItemNeedPopup@@6B@			; HomeEtcItemNeedPopup::`vftable'
PUBLIC	??0HomeEtcItemNeedPopup@@QAE@XZ			; HomeEtcItemNeedPopup::HomeEtcItemNeedPopup
PUBLIC	??_R4HomeEtcItemNeedPopup@@6B@			; HomeEtcItemNeedPopup::`RTTI Complete Object Locator'
PUBLIC	??_R0?AVHomeEtcItemNeedPopup@@@8		; HomeEtcItemNeedPopup `RTTI Type Descriptor'
PUBLIC	??_R3HomeEtcItemNeedPopup@@8			; HomeEtcItemNeedPopup::`RTTI Class Hierarchy Descriptor'
PUBLIC	??_R2HomeEtcItemNeedPopup@@8			; HomeEtcItemNeedPopup::`RTTI Base Class Array'
PUBLIC	??_R1A@?0A@EA@HomeEtcItemNeedPopup@@8		; HomeEtcItemNeedPopup::`RTTI Base Class Descriptor at (0,-1,0,64)'
PUBLIC	??_R1A@?0A@EA@ioWnd@@8				; ioWnd::`RTTI Base Class Descriptor at (0,-1,0,64)'
PUBLIC	??_R0?AVioWnd@@@8				; ioWnd `RTTI Type Descriptor'
PUBLIC	??_R3ioWnd@@8					; ioWnd::`RTTI Class Hierarchy Descriptor'
PUBLIC	??_R2ioWnd@@8					; ioWnd::`RTTI Base Class Array'
PUBLIC	?AddRenderImage@HomeEtcItemNeedPopup@@MAEXABVioHashString@@PAVioUIRenderImage@@@Z ; HomeEtcItemNeedPopup::AddRenderImage
PUBLIC	?OnRender@HomeEtcItemNeedPopup@@MAEXXZ		; HomeEtcItemNeedPopup::OnRender
PUBLIC	?iwm_command@HomeEtcItemNeedPopup@@UAEXPAVioWnd@@HK@Z ; HomeEtcItemNeedPopup::iwm_command
PUBLIC	?iwm_show@HomeEtcItemNeedPopup@@UAEXXZ		; HomeEtcItemNeedPopup::iwm_show
EXTRN	__imp_??0ioWnd@@QAE@XZ:PROC
EXTRN	??_7type_info@@6B@:QWORD			; type_info::`vftable'
EXTRN	?AddRenderFrame@ioWnd@@UAEXABVioHashString@@PAVioUIRenderFrame@@@Z:PROC ; ioWnd::AddRenderFrame
EXTRN	?AddTooltipHelp@ioWnd@@UAEXABVioHashString@@00@Z:PROC ; ioWnd::AddTooltipHelp
EXTRN	?ParseExtraInfo@ioWnd@@UAEXAAVioXMLElement@@@Z:PROC ; ioWnd::ParseExtraInfo
EXTRN	?AddNamedRenderImage@ioWnd@@UAEXABVioHashString@@PAVioUIRenderImage@@@Z:PROC ; ioWnd::AddNamedRenderImage
EXTRN	?RemoveNamedRenderImage@ioWnd@@UAEXABVioHashString@@@Z:PROC ; ioWnd::RemoveNamedRenderImage
EXTRN	?GetNamedRenderImage@ioWnd@@UBEPAVioUIRenderImage@@ABVioHashString@@@Z:PROC ; ioWnd::GetNamedRenderImage
EXTRN	?SetWindowAlpha@ioWnd@@UAEXH@Z:PROC		; ioWnd::SetWindowAlpha
EXTRN	?SetActive@ioWnd@@UAEXXZ:PROC			; ioWnd::SetActive
EXTRN	?SetInActive@ioWnd@@UAEXXZ:PROC			; ioWnd::SetInActive
EXTRN	?ClearElementImageList@ioWnd@@UAEXXZ:PROC	; ioWnd::ClearElementImageList
EXTRN	?SetSize@ioWnd@@UAEXHH@Z:PROC			; ioWnd::SetSize
EXTRN	?SetPositionToDefault@ioWnd@@UAEXHH_N0@Z:PROC	; ioWnd::SetPositionToDefault
EXTRN	?IsNeedProcess@ioWnd@@UBE_NXZ:PROC		; ioWnd::IsNeedProcess
EXTRN	?IsCanMouseReaction@ioWnd@@UBE_NXZ:PROC		; ioWnd::IsCanMouseReaction
EXTRN	?AddChild@ioWnd@@UAEXPAV1@@Z:PROC		; ioWnd::AddChild
EXTRN	?DeleteChild@ioWnd@@UAEXK@Z:PROC		; ioWnd::DeleteChild
EXTRN	?DeleteAllChild@ioWnd@@UAEXXZ:PROC		; ioWnd::DeleteAllChild
EXTRN	?OnRenderShowAndHide@ioWnd@@MAE_NXZ:PROC	; ioWnd::OnRenderShowAndHide
EXTRN	?OnRenderShowAndHideByDefault@ioWnd@@MAE_NK@Z:PROC ; ioWnd::OnRenderShowAndHideByDefault
EXTRN	?OnRenderShowAndHideByTop@ioWnd@@MAE_NK@Z:PROC	; ioWnd::OnRenderShowAndHideByTop
EXTRN	?OnRenderShowAndHideByDown@ioWnd@@MAE_NK@Z:PROC	; ioWnd::OnRenderShowAndHideByDown
EXTRN	?OnRenderAfterChild@ioWnd@@MAEXXZ:PROC		; ioWnd::OnRenderAfterChild
EXTRN	?OnProcess@ioWnd@@MAEXM@Z:PROC			; ioWnd::OnProcess
EXTRN	?OnMouseProcess@ioWnd@@MAEXABVioMouse@@@Z:PROC	; ioWnd::OnMouseProcess
EXTRN	?CheckFrameReSize@ioWnd@@MAEXHHHH@Z:PROC	; ioWnd::CheckFrameReSize
EXTRN	?RenderImageList@ioWnd@@MAEXHHW4UIRenderType@@@Z:PROC ; ioWnd::RenderImageList
EXTRN	?iwm_create@ioWnd@@UAEXXZ:PROC			; ioWnd::iwm_create
EXTRN	?iwm_destroy@ioWnd@@UAEXXZ:PROC			; ioWnd::iwm_destroy
EXTRN	?iwm_lbuttondown@ioWnd@@UAEXABVioMouse@@@Z:PROC	; ioWnd::iwm_lbuttondown
EXTRN	?iwm_lbuttonup@ioWnd@@UAEXABVioMouse@@@Z:PROC	; ioWnd::iwm_lbuttonup
EXTRN	?iwm_lbuttonDBLCLK@ioWnd@@UAEXABVioMouse@@@Z:PROC ; ioWnd::iwm_lbuttonDBLCLK
EXTRN	?iwm_rbuttondown@ioWnd@@UAEXABVioMouse@@@Z:PROC	; ioWnd::iwm_rbuttondown
EXTRN	?iwm_rbuttonup@ioWnd@@UAEXABVioMouse@@@Z:PROC	; ioWnd::iwm_rbuttonup
EXTRN	?iwm_mouseover@ioWnd@@UAEXABVioMouse@@@Z:PROC	; ioWnd::iwm_mouseover
EXTRN	?iwm_mousemove@ioWnd@@UAEXABVioMouse@@@Z:PROC	; ioWnd::iwm_mousemove
EXTRN	?iwm_mouseleave@ioWnd@@UAEXABVioMouse@@@Z:PROC	; ioWnd::iwm_mouseleave
EXTRN	?iwm_vscroll@ioWnd@@UAEXKH@Z:PROC		; ioWnd::iwm_vscroll
EXTRN	?iwm_wheel@ioWnd@@UAEXH@Z:PROC			; ioWnd::iwm_wheel
EXTRN	?iwm_hide@ioWnd@@UAEXXZ:PROC			; ioWnd::iwm_hide
EXTRN	?iwm_esc@ioWnd@@UAE_NXZ:PROC			; ioWnd::iwm_esc
EXTRN	?iwm_spacebar@ioWnd@@UAE_NXZ:PROC		; ioWnd::iwm_spacebar
EXTRN	?iwm_gototop@ioWnd@@UAEXXZ:PROC			; ioWnd::iwm_gototop
EXTRN	?iwm_dragenter@ioWnd@@UAE?AW4IWDropEffect@@PAVioDragItem@@ABVioMouse@@@Z:PROC ; ioWnd::iwm_dragenter
EXTRN	?iwm_dragover@ioWnd@@UAE?AW4IWDropEffect@@PAVioDragItem@@ABVioMouse@@@Z:PROC ; ioWnd::iwm_dragover
EXTRN	?iwm_dragleave@ioWnd@@UAEXXZ:PROC		; ioWnd::iwm_dragleave
EXTRN	?iwm_dropitem@ioWnd@@UAE_NPAVioDragItem@@ABVioMouse@@PAV1@@Z:PROC ; ioWnd::iwm_dropitem
EXTRN	?iwm_dropdone@ioWnd@@UAEXPAVioDragItem@@PAV1@_N@Z:PROC ; ioWnd::iwm_dropdone
EXTRN	?IsEXType@ioWnd@@UBE_NXZ:PROC			; ioWnd::IsEXType
EXTRN	?GetWndType@ioWnd@@UBEKXZ:PROC			; ioWnd::GetWndType
EXTRN	?RenderWnd@ioWnd@@UAEXXZ:PROC			; ioWnd::RenderWnd
EXTRN	?SetIDEX@ioWnd@@UAEXAAK_N@Z:PROC		; ioWnd::SetIDEX
EXTRN	?ParseXML@ioWnd@@UAEXAAVioXMLElement@@@Z:PROC	; ioWnd::ParseXML
EXTRN	?GetHeaderFileName@ioWnd@@UAEPBDXZ:PROC		; ioWnd::GetHeaderFileName
EXTRN	?GetTemplateName@ioWnd@@UAEPBDXZ:PROC		; ioWnd::GetTemplateName
EXTRN	?GetDefClassName@ioWnd@@UBEPBDXZ:PROC		; ioWnd::GetDefClassName
EXTRN	?_Clone@ioWnd@@UAEPAV1@XZ:PROC			; ioWnd::_Clone
EXTRN	?Copy@ioWnd@@UAEXPAV1@@Z:PROC			; ioWnd::Copy
EXTRN	?Save@ioWnd@@UAE_NAAVioXMLElement@@@Z:PROC	; ioWnd::Save
EXTRN	?SetSaveData@ioWnd@@UAEXAAVioXMLElement@@@Z:PROC ; ioWnd::SetSaveData
EXTRN	?SetPosX@ioWnd@@UAEXH@Z:PROC			; ioWnd::SetPosX
EXTRN	?SetPosY@ioWnd@@UAEXH@Z:PROC			; ioWnd::SetPosY
EXTRN	?SetWidth@ioWnd@@UAEXH@Z:PROC			; ioWnd::SetWidth
EXTRN	?SetHeight@ioWnd@@UAEXH@Z:PROC			; ioWnd::SetHeight
EXTRN	?GetNumFixedRenderFrame@ioWnd@@UBEHXZ:PROC	; ioWnd::GetNumFixedRenderFrame
EXTRN	?GetFixedRenderFrameType@ioWnd@@UAEPBDH@Z:PROC	; ioWnd::GetFixedRenderFrameType
EXTRN	?GetRenderFrame@ioWnd@@UAEPAPAVioUIRenderElement@@PBD@Z:PROC ; ioWnd::GetRenderFrame
EXTRN	?GetNumFixedRenderImage@ioWnd@@UBEHXZ:PROC	; ioWnd::GetNumFixedRenderImage
EXTRN	?GetFixedRenderImageType@ioWnd@@UAEPBDH@Z:PROC	; ioWnd::GetFixedRenderImageType
EXTRN	?GetRenderImage@ioWnd@@UAEPAPAVioUIRenderElement@@PBD@Z:PROC ; ioWnd::GetRenderImage
EXTRN	?AddEffect@ioWnd@@UAEXABVioHashString@@PAVioUI3DEffectRender@@@Z:PROC ; ioWnd::AddEffect
EXTRN	?GetEffect@ioWnd@@UAEPAVioUI3DEffectRender@@VioHashString@@@Z:PROC ; ioWnd::GetEffect
EXTRN	??_EHomeEtcItemNeedPopup@@UAEPAXI@Z:PROC	; HomeEtcItemNeedPopup::`vector deleting destructor'
;	COMDAT ??_R2ioWnd@@8
; File d:\lost saga for developer\youtube\tutorial\source\src\lsclient\gui\homeetcitemneedpopup.cpp
rdata$r	SEGMENT
??_R2ioWnd@@8 DD FLAT:??_R1A@?0A@EA@ioWnd@@8		; ioWnd::`RTTI Base Class Array'
rdata$r	ENDS
;	COMDAT ??_R3ioWnd@@8
rdata$r	SEGMENT
??_R3ioWnd@@8 DD 00H					; ioWnd::`RTTI Class Hierarchy Descriptor'
	DD	00H
	DD	01H
	DD	FLAT:??_R2ioWnd@@8
rdata$r	ENDS
;	COMDAT ??_R0?AVioWnd@@@8
_DATA	SEGMENT
??_R0?AVioWnd@@@8 DD FLAT:??_7type_info@@6B@		; ioWnd `RTTI Type Descriptor'
	DD	00H
	DB	'.?AVioWnd@@', 00H
_DATA	ENDS
;	COMDAT ??_R1A@?0A@EA@ioWnd@@8
rdata$r	SEGMENT
??_R1A@?0A@EA@ioWnd@@8 DD FLAT:??_R0?AVioWnd@@@8	; ioWnd::`RTTI Base Class Descriptor at (0,-1,0,64)'
	DD	00H
	DD	00H
	DD	0ffffffffH
	DD	00H
	DD	040H
	DD	FLAT:??_R3ioWnd@@8
rdata$r	ENDS
;	COMDAT ??_R1A@?0A@EA@HomeEtcItemNeedPopup@@8
rdata$r	SEGMENT
??_R1A@?0A@EA@HomeEtcItemNeedPopup@@8 DD FLAT:??_R0?AVHomeEtcItemNeedPopup@@@8 ; HomeEtcItemNeedPopup::`RTTI Base Class Descriptor at (0,-1,0,64)'
	DD	01H
	DD	00H
	DD	0ffffffffH
	DD	00H
	DD	040H
	DD	FLAT:??_R3HomeEtcItemNeedPopup@@8
rdata$r	ENDS
;	COMDAT ??_R2HomeEtcItemNeedPopup@@8
rdata$r	SEGMENT
??_R2HomeEtcItemNeedPopup@@8 DD FLAT:??_R1A@?0A@EA@HomeEtcItemNeedPopup@@8 ; HomeEtcItemNeedPopup::`RTTI Base Class Array'
	DD	FLAT:??_R1A@?0A@EA@ioWnd@@8
rdata$r	ENDS
;	COMDAT ??_R3HomeEtcItemNeedPopup@@8
rdata$r	SEGMENT
??_R3HomeEtcItemNeedPopup@@8 DD 00H			; HomeEtcItemNeedPopup::`RTTI Class Hierarchy Descriptor'
	DD	00H
	DD	02H
	DD	FLAT:??_R2HomeEtcItemNeedPopup@@8
rdata$r	ENDS
;	COMDAT ??_R0?AVHomeEtcItemNeedPopup@@@8
_DATA	SEGMENT
??_R0?AVHomeEtcItemNeedPopup@@@8 DD FLAT:??_7type_info@@6B@ ; HomeEtcItemNeedPopup `RTTI Type Descriptor'
	DD	00H
	DB	'.?AVHomeEtcItemNeedPopup@@', 00H
_DATA	ENDS
;	COMDAT ??_R4HomeEtcItemNeedPopup@@6B@
rdata$r	SEGMENT
??_R4HomeEtcItemNeedPopup@@6B@ DD 00H			; HomeEtcItemNeedPopup::`RTTI Complete Object Locator'
	DD	00H
	DD	00H
	DD	FLAT:??_R0?AVHomeEtcItemNeedPopup@@@8
	DD	FLAT:??_R3HomeEtcItemNeedPopup@@8
rdata$r	ENDS
;	COMDAT ??_7HomeEtcItemNeedPopup@@6B@
CONST	SEGMENT
??_7HomeEtcItemNeedPopup@@6B@ DD FLAT:??_R4HomeEtcItemNeedPopup@@6B@ ; HomeEtcItemNeedPopup::`vftable'
	DD	FLAT:?AddRenderFrame@ioWnd@@UAEXABVioHashString@@PAVioUIRenderFrame@@@Z
	DD	FLAT:?AddRenderImage@HomeEtcItemNeedPopup@@MAEXABVioHashString@@PAVioUIRenderImage@@@Z
	DD	FLAT:?AddTooltipHelp@ioWnd@@UAEXABVioHashString@@00@Z
	DD	FLAT:?ParseExtraInfo@ioWnd@@UAEXAAVioXMLElement@@@Z
	DD	FLAT:?AddNamedRenderImage@ioWnd@@UAEXABVioHashString@@PAVioUIRenderImage@@@Z
	DD	FLAT:?RemoveNamedRenderImage@ioWnd@@UAEXABVioHashString@@@Z
	DD	FLAT:?GetNamedRenderImage@ioWnd@@UBEPAVioUIRenderImage@@ABVioHashString@@@Z
	DD	FLAT:?SetWindowAlpha@ioWnd@@UAEXH@Z
	DD	FLAT:?SetActive@ioWnd@@UAEXXZ
	DD	FLAT:?SetInActive@ioWnd@@UAEXXZ
	DD	FLAT:?ClearElementImageList@ioWnd@@UAEXXZ
	DD	FLAT:?SetSize@ioWnd@@UAEXHH@Z
	DD	FLAT:?SetPositionToDefault@ioWnd@@UAEXHH_N0@Z
	DD	FLAT:?IsNeedProcess@ioWnd@@UBE_NXZ
	DD	FLAT:?IsCanMouseReaction@ioWnd@@UBE_NXZ
	DD	FLAT:?AddChild@ioWnd@@UAEXPAV1@@Z
	DD	FLAT:?DeleteChild@ioWnd@@UAEXK@Z
	DD	FLAT:?DeleteAllChild@ioWnd@@UAEXXZ
	DD	FLAT:?OnRenderShowAndHide@ioWnd@@MAE_NXZ
	DD	FLAT:?OnRenderShowAndHideByDefault@ioWnd@@MAE_NK@Z
	DD	FLAT:?OnRenderShowAndHideByTop@ioWnd@@MAE_NK@Z
	DD	FLAT:?OnRenderShowAndHideByDown@ioWnd@@MAE_NK@Z
	DD	FLAT:?OnRender@HomeEtcItemNeedPopup@@MAEXXZ
	DD	FLAT:?OnRenderAfterChild@ioWnd@@MAEXXZ
	DD	FLAT:?OnProcess@ioWnd@@MAEXM@Z
	DD	FLAT:?OnMouseProcess@ioWnd@@MAEXABVioMouse@@@Z
	DD	FLAT:?CheckFrameReSize@ioWnd@@MAEXHHHH@Z
	DD	FLAT:?RenderImageList@ioWnd@@MAEXHHW4UIRenderType@@@Z
	DD	FLAT:?iwm_create@ioWnd@@UAEXXZ
	DD	FLAT:?iwm_destroy@ioWnd@@UAEXXZ
	DD	FLAT:?iwm_lbuttondown@ioWnd@@UAEXABVioMouse@@@Z
	DD	FLAT:?iwm_lbuttonup@ioWnd@@UAEXABVioMouse@@@Z
	DD	FLAT:?iwm_lbuttonDBLCLK@ioWnd@@UAEXABVioMouse@@@Z
	DD	FLAT:?iwm_rbuttondown@ioWnd@@UAEXABVioMouse@@@Z
	DD	FLAT:?iwm_rbuttonup@ioWnd@@UAEXABVioMouse@@@Z
	DD	FLAT:?iwm_command@HomeEtcItemNeedPopup@@UAEXPAVioWnd@@HK@Z
	DD	FLAT:?iwm_mouseover@ioWnd@@UAEXABVioMouse@@@Z
	DD	FLAT:?iwm_mousemove@ioWnd@@UAEXABVioMouse@@@Z
	DD	FLAT:?iwm_mouseleave@ioWnd@@UAEXABVioMouse@@@Z
	DD	FLAT:?iwm_vscroll@ioWnd@@UAEXKH@Z
	DD	FLAT:?iwm_wheel@ioWnd@@UAEXH@Z
	DD	FLAT:?iwm_show@HomeEtcItemNeedPopup@@UAEXXZ
	DD	FLAT:?iwm_hide@ioWnd@@UAEXXZ
	DD	FLAT:?iwm_esc@ioWnd@@UAE_NXZ
	DD	FLAT:?iwm_spacebar@ioWnd@@UAE_NXZ
	DD	FLAT:?iwm_gototop@ioWnd@@UAEXXZ
	DD	FLAT:?iwm_dragenter@ioWnd@@UAE?AW4IWDropEffect@@PAVioDragItem@@ABVioMouse@@@Z
	DD	FLAT:?iwm_dragover@ioWnd@@UAE?AW4IWDropEffect@@PAVioDragItem@@ABVioMouse@@@Z
	DD	FLAT:?iwm_dragleave@ioWnd@@UAEXXZ
	DD	FLAT:?iwm_dropitem@ioWnd@@UAE_NPAVioDragItem@@ABVioMouse@@PAV1@@Z
	DD	FLAT:?iwm_dropdone@ioWnd@@UAEXPAVioDragItem@@PAV1@_N@Z
	DD	FLAT:?IsEXType@ioWnd@@UBE_NXZ
	DD	FLAT:?GetWndType@ioWnd@@UBEKXZ
	DD	FLAT:?RenderWnd@ioWnd@@UAEXXZ
	DD	FLAT:?SetIDEX@ioWnd@@UAEXAAK_N@Z
	DD	FLAT:?ParseXML@ioWnd@@UAEXAAVioXMLElement@@@Z
	DD	FLAT:?GetHeaderFileName@ioWnd@@UAEPBDXZ
	DD	FLAT:?GetTemplateName@ioWnd@@UAEPBDXZ
	DD	FLAT:?GetDefClassName@ioWnd@@UBEPBDXZ
	DD	FLAT:?_Clone@ioWnd@@UAEPAV1@XZ
	DD	FLAT:?Copy@ioWnd@@UAEXPAV1@@Z
	DD	FLAT:?Save@ioWnd@@UAE_NAAVioXMLElement@@@Z
	DD	FLAT:?SetSaveData@ioWnd@@UAEXAAVioXMLElement@@@Z
	DD	FLAT:?SetPosX@ioWnd@@UAEXH@Z
	DD	FLAT:?SetPosY@ioWnd@@UAEXH@Z
	DD	FLAT:?SetWidth@ioWnd@@UAEXH@Z
	DD	FLAT:?SetHeight@ioWnd@@UAEXH@Z
	DD	FLAT:?GetNumFixedRenderFrame@ioWnd@@UBEHXZ
	DD	FLAT:?GetFixedRenderFrameType@ioWnd@@UAEPBDH@Z
	DD	FLAT:?GetRenderFrame@ioWnd@@UAEPAPAVioUIRenderElement@@PBD@Z
	DD	FLAT:?GetNumFixedRenderImage@ioWnd@@UBEHXZ
	DD	FLAT:?GetFixedRenderImageType@ioWnd@@UAEPBDH@Z
	DD	FLAT:?GetRenderImage@ioWnd@@UAEPAPAVioUIRenderElement@@PBD@Z
	DD	FLAT:?AddEffect@ioWnd@@UAEXABVioHashString@@PAVioUI3DEffectRender@@@Z
	DD	FLAT:?GetEffect@ioWnd@@UAEPAVioUI3DEffectRender@@VioHashString@@@Z
	DD	FLAT:??_EHomeEtcItemNeedPopup@@UAEPAXI@Z
; Function compile flags: /Ogsp
CONST	ENDS
;	COMDAT ??0HomeEtcItemNeedPopup@@QAE@XZ
_TEXT	SEGMENT
??0HomeEtcItemNeedPopup@@QAE@XZ PROC			; HomeEtcItemNeedPopup::HomeEtcItemNeedPopup, COMDAT
; _this$ = ecx

; 6    : {

  00000	56		 push	 esi
  00001	8b f1		 mov	 esi, ecx
  00003	ff 15 00 00 00
	00		 call	 DWORD PTR __imp_??0ioWnd@@QAE@XZ

; 7    : 	m_pIconBack = NULL;

  00009	83 a6 60 01 00
	00 00		 and	 DWORD PTR [esi+352], 0

; 8    : 	m_pIcon		= NULL;

  00010	83 a6 64 01 00
	00 00		 and	 DWORD PTR [esi+356], 0
  00017	c7 06 00 00 00
	00		 mov	 DWORD PTR [esi], OFFSET ??_7HomeEtcItemNeedPopup@@6B@

; 9    : }

  0001d	8b c6		 mov	 eax, esi
  0001f	5e		 pop	 esi
  00020	c3		 ret	 0
??0HomeEtcItemNeedPopup@@QAE@XZ ENDP			; HomeEtcItemNeedPopup::HomeEtcItemNeedPopup
_TEXT	ENDS
PUBLIC	??1HomeEtcItemNeedPopup@@UAE@XZ			; HomeEtcItemNeedPopup::~HomeEtcItemNeedPopup
EXTRN	__imp_??1ioWnd@@UAE@XZ:PROC
EXTRN	___CxxFrameHandler3:PROC
EXTRN	@__security_check_cookie@4:PROC
EXTRN	__EH_epilog3:PROC
EXTRN	__EH_prolog3:PROC
;	COMDAT xdata$x
xdata$x	SEGMENT
__unwindtable$??1HomeEtcItemNeedPopup@@UAE@XZ DD 0ffffffffH
	DD	FLAT:__unwindfunclet$??1HomeEtcItemNeedPopup@@UAE@XZ$0
__ehfuncinfo$??1HomeEtcItemNeedPopup@@UAE@XZ DD 019930522H
	DD	01H
	DD	FLAT:__unwindtable$??1HomeEtcItemNeedPopup@@UAE@XZ
	DD	2 DUP(00H)
	DD	2 DUP(00H)
	DD	00H
	DD	01H
; Function compile flags: /Ogsp
xdata$x	ENDS
;	COMDAT ??1HomeEtcItemNeedPopup@@UAE@XZ
_TEXT	SEGMENT
_this$ = -16						; size = 4
__$EHRec$ = -12						; size = 12
??1HomeEtcItemNeedPopup@@UAE@XZ PROC			; HomeEtcItemNeedPopup::~HomeEtcItemNeedPopup, COMDAT
; _this$ = ecx

; 12   : {

  00000	6a 04		 push	 4
  00002	b8 00 00 00 00	 mov	 eax, __ehhandler$??1HomeEtcItemNeedPopup@@UAE@XZ
  00007	e8 00 00 00 00	 call	 __EH_prolog3
  0000c	8b f9		 mov	 edi, ecx
  0000e	89 7d f0	 mov	 DWORD PTR _this$[ebp], edi
  00011	c7 07 00 00 00
	00		 mov	 DWORD PTR [edi], OFFSET ??_7HomeEtcItemNeedPopup@@6B@

; 13   : 	SAFEDELETE( m_pIconBack );

  00017	8b 8f 60 01 00
	00		 mov	 ecx, DWORD PTR [edi+352]
  0001d	83 65 fc 00	 and	 DWORD PTR __$EHRec$[ebp+8], 0
  00021	85 c9		 test	 ecx, ecx
  00023	74 0e		 je	 SHORT $LN2@HomeEtcIte
  00025	8b 01		 mov	 eax, DWORD PTR [ecx]
  00027	6a 01		 push	 1
  00029	ff 50 40	 call	 DWORD PTR [eax+64]
  0002c	83 a7 60 01 00
	00 00		 and	 DWORD PTR [edi+352], 0
$LN2@HomeEtcIte:

; 14   : 	SAFEDELETE( m_pIcon );

  00033	8b 8f 64 01 00
	00		 mov	 ecx, DWORD PTR [edi+356]
  00039	85 c9		 test	 ecx, ecx
  0003b	74 0e		 je	 SHORT $LN1@HomeEtcIte
  0003d	8b 01		 mov	 eax, DWORD PTR [ecx]
  0003f	6a 01		 push	 1
  00041	ff 50 40	 call	 DWORD PTR [eax+64]
  00044	83 a7 64 01 00
	00 00		 and	 DWORD PTR [edi+356], 0
$LN1@HomeEtcIte:

; 15   : }

  0004b	83 4d fc ff	 or	 DWORD PTR __$EHRec$[ebp+8], -1
  0004f	8b cf		 mov	 ecx, edi
  00051	ff 15 00 00 00
	00		 call	 DWORD PTR __imp_??1ioWnd@@UAE@XZ
  00057	e8 00 00 00 00	 call	 __EH_epilog3
  0005c	c3		 ret	 0
_TEXT	ENDS
;	COMDAT text$x
text$x	SEGMENT
__unwindfunclet$??1HomeEtcItemNeedPopup@@UAE@XZ$0:
  00000	8b 4d f0	 mov	 ecx, DWORD PTR _this$[ebp]
  00003	ff 25 00 00 00
	00		 jmp	 DWORD PTR __imp_??1ioWnd@@UAE@XZ
__ehhandler$??1HomeEtcItemNeedPopup@@UAE@XZ:
  00009	8b 54 24 08	 mov	 edx, DWORD PTR [esp+8]
  0000d	8d 42 0c	 lea	 eax, DWORD PTR [edx+12]
  00010	8b 4a ec	 mov	 ecx, DWORD PTR [edx-20]
  00013	33 c8		 xor	 ecx, eax
  00015	e8 00 00 00 00	 call	 @__security_check_cookie@4
  0001a	b8 00 00 00 00	 mov	 eax, OFFSET __ehfuncinfo$??1HomeEtcItemNeedPopup@@UAE@XZ
  0001f	e9 00 00 00 00	 jmp	 ___CxxFrameHandler3
text$x	ENDS
??1HomeEtcItemNeedPopup@@UAE@XZ ENDP			; HomeEtcItemNeedPopup::~HomeEtcItemNeedPopup
; Function compile flags: /Ogsp
;	COMDAT ?iwm_show@HomeEtcItemNeedPopup@@UAEXXZ
_TEXT	SEGMENT
?iwm_show@HomeEtcItemNeedPopup@@UAEXXZ PROC		; HomeEtcItemNeedPopup::iwm_show, COMDAT
; _this$ = ecx

; 19   : }

  00000	c3		 ret	 0
?iwm_show@HomeEtcItemNeedPopup@@UAEXXZ ENDP		; HomeEtcItemNeedPopup::iwm_show
_TEXT	ENDS
PUBLIC	??_R0?AVNewShopWnd@@@8				; NewShopWnd `RTTI Type Descriptor'
EXTRN	?SetDirectTab@NewShopWnd@@QAEXHHH_N@Z:PROC	; NewShopWnd::SetDirectTab
EXTRN	__imp_?ShowWnd@ioWnd@@QAEXXZ:PROC
EXTRN	__imp_?FindWnd@ioGUIManager@@QAEPAVioWnd@@K@Z:PROC
EXTRN	?GetSingleton@ioSP2GUIManager@@SAAAV1@XZ:PROC	; ioSP2GUIManager::GetSingleton
EXTRN	__imp_?HideWnd@ioWnd@@QAEXXZ:PROC
EXTRN	__imp_?GetID@ioWnd@@QBEKXZ:PROC
EXTRN	___RTDynamicCast:PROC
;	COMDAT ??_R0?AVNewShopWnd@@@8
_DATA	SEGMENT
??_R0?AVNewShopWnd@@@8 DD FLAT:??_7type_info@@6B@	; NewShopWnd `RTTI Type Descriptor'
	DD	00H
	DB	'.?AVNewShopWnd@@', 00H
; Function compile flags: /Ogsp
_DATA	ENDS
;	COMDAT ?iwm_command@HomeEtcItemNeedPopup@@UAEXPAVioWnd@@HK@Z
_TEXT	SEGMENT
_pWnd$ = 8						; size = 4
_cmd$ = 12						; size = 4
_param$ = 16						; size = 4
?iwm_command@HomeEtcItemNeedPopup@@UAEXPAVioWnd@@HK@Z PROC ; HomeEtcItemNeedPopup::iwm_command, COMDAT
; _this$ = ecx

; 22   : {

  00000	55		 push	 ebp
  00001	8b ec		 mov	 ebp, esp
  00003	56		 push	 esi
  00004	8b f1		 mov	 esi, ecx

; 23   : 	DWORD dwID = pWnd->GetID();

  00006	8b 4d 08	 mov	 ecx, DWORD PTR _pWnd$[ebp]
  00009	ff 15 00 00 00
	00		 call	 DWORD PTR __imp_?GetID@ioWnd@@QBEKXZ

; 24   : 	switch( dwID )

  0000f	48		 dec	 eax
  00010	74 06		 je	 SHORT $LN5@iwm_comman
  00012	48		 dec	 eax
  00013	74 16		 je	 SHORT $LN3@iwm_comman
  00015	48		 dec	 eax
  00016	75 0e		 jne	 SHORT $LN4@iwm_comman
$LN5@iwm_comman:

; 25   : 	{
; 26   : 	case ID_EXIT:
; 27   : 	case ID_CANCEL:
; 28   : 		if( cmd == IOBN_BTNUP )

  00018	83 7d 0c 11	 cmp	 DWORD PTR _cmd$[ebp], 17 ; 00000011H
  0001c	75 08		 jne	 SHORT $LN4@iwm_comman

; 29   : 		{
; 30   : 			HideWnd();

  0001e	8b ce		 mov	 ecx, esi
  00020	ff 15 00 00 00
	00		 call	 DWORD PTR __imp_?HideWnd@ioWnd@@QAEXXZ
$LN4@iwm_comman:
  00026	5e		 pop	 esi

; 45   : 	}
; 46   : }

  00027	5d		 pop	 ebp
  00028	c2 0c 00	 ret	 12			; 0000000cH
$LN3@iwm_comman:

; 31   : 		}
; 32   : 		break;
; 33   : 	case ID_CREATE_ITEM_BUY:
; 34   : 		if( cmd == IOBN_BTNUP )

  0002b	83 7d 0c 11	 cmp	 DWORD PTR _cmd$[ebp], 17 ; 00000011H
  0002f	75 f5		 jne	 SHORT $LN4@iwm_comman

; 35   : 		{
; 36   : 			HideWnd();

  00031	8b ce		 mov	 ecx, esi
  00033	ff 15 00 00 00
	00		 call	 DWORD PTR __imp_?HideWnd@ioWnd@@QAEXXZ

; 37   : 			NewShopWnd *pNewShopWnd = dynamic_cast<NewShopWnd*>( g_GUIMgr.FindWnd( NEW_SHOP_WND ) );

  00039	6a 00		 push	 0
  0003b	68 00 00 00 00	 push	 OFFSET ??_R0?AVNewShopWnd@@@8
  00040	68 00 00 00 00	 push	 OFFSET ??_R0?AVioWnd@@@8
  00045	6a 00		 push	 0
  00047	68 f8 17 00 00	 push	 6136			; 000017f8H
  0004c	e8 00 00 00 00	 call	 ?GetSingleton@ioSP2GUIManager@@SAAAV1@XZ ; ioSP2GUIManager::GetSingleton
  00051	8b c8		 mov	 ecx, eax
  00053	ff 15 00 00 00
	00		 call	 DWORD PTR __imp_?FindWnd@ioGUIManager@@QAEPAVioWnd@@K@Z
  00059	50		 push	 eax
  0005a	e8 00 00 00 00	 call	 ___RTDynamicCast
  0005f	8b f0		 mov	 esi, eax
  00061	83 c4 14	 add	 esp, 20			; 00000014H

; 38   : 			if( pNewShopWnd )

  00064	85 f6		 test	 esi, esi
  00066	74 be		 je	 SHORT $LN4@iwm_comman

; 39   : 			{
; 40   : 				pNewShopWnd->ShowWnd();

  00068	8b ce		 mov	 ecx, esi
  0006a	ff 15 00 00 00
	00		 call	 DWORD PTR __imp_?ShowWnd@ioWnd@@QAEXXZ

; 41   : 				pNewShopWnd->SetDirectTab( NewShopWnd::ID_ETC_TAB_BTN, ioEtcItem::EIT_ETC_CREATE_HOME, 0 );

  00070	6a 01		 push	 1
  00072	6a 00		 push	 0
  00074	68 a2 6c 4c 00	 push	 5008546			; 004c6ca2H
  00079	6a 69		 push	 105			; 00000069H
  0007b	8b ce		 mov	 ecx, esi
  0007d	e8 00 00 00 00	 call	 ?SetDirectTab@NewShopWnd@@QAEXHHH_N@Z ; NewShopWnd::SetDirectTab

; 42   : 			}
; 43   : 		}
; 44   : 		break;

  00082	eb a2		 jmp	 SHORT $LN4@iwm_comman
?iwm_command@HomeEtcItemNeedPopup@@UAEXPAVioWnd@@HK@Z ENDP ; HomeEtcItemNeedPopup::iwm_command
_TEXT	ENDS
PUBLIC	__real@3f266666
PUBLIC	??_C@_0BP@IEHDACLO@HomeEtcItemNeedPopup?3?3OnRender?$AA@ ; `string'
PUBLIC	??_C@_00CNPNBAHC@?$AA@				; `string'
EXTRN	__imp_?PrintText@ioFontManager@@QAAXMMMPBDZZ:PROC
EXTRN	__imp_?GetString@ioStringManager@@QAEPADPBD0HW4FileNamePrefix@1@@Z:PROC
EXTRN	__imp_?GetSingleton@ioStringManager@@SAAAV1@XZ:PROC
EXTRN	__imp_?SetTextColor@ioFontManager@@QAEXK@Z:PROC
EXTRN	__imp_?SetBkColor@ioFontManager@@QAEXHHH@Z:PROC
EXTRN	__imp_?SetAlignType@ioFontManager@@QAEXW4TextAlignType@@@Z:PROC
EXTRN	__imp_?SetTextStyle@ioFontManager@@QAEXW4TextStyle@@@Z:PROC
EXTRN	__imp_?GetSingleton@ioFontManager@@SAAAV1@XZ:PROC
EXTRN	__imp_?GetDerivedPosY@ioWnd@@QBEHXZ:PROC
EXTRN	__imp_?GetDerivedPosX@ioWnd@@QBEHXZ:PROC
EXTRN	__imp_?OnRender@ioWnd@@MAEXXZ:PROC
EXTRN	__fltused:DWORD
;	COMDAT __real@3f266666
CONST	SEGMENT
__real@3f266666 DD 03f266666r			; 0.65
CONST	ENDS
;	COMDAT ??_C@_0BP@IEHDACLO@HomeEtcItemNeedPopup?3?3OnRender?$AA@
CONST	SEGMENT
??_C@_0BP@IEHDACLO@HomeEtcItemNeedPopup?3?3OnRender?$AA@ DB 'HomeEtcItemN'
	DB	'eedPopup::OnRender', 00H			; `string'
CONST	ENDS
;	COMDAT ??_C@_00CNPNBAHC@?$AA@
CONST	SEGMENT
??_C@_00CNPNBAHC@?$AA@ DB 00H				; `string'
; Function compile flags: /Ogsp
CONST	ENDS
;	COMDAT ?OnRender@HomeEtcItemNeedPopup@@MAEXXZ
_TEXT	SEGMENT
_iXPos$ = -12						; size = 4
tv331 = -8						; size = 4
tv283 = -8						; size = 4
_iYPos$ = -4						; size = 4
?OnRender@HomeEtcItemNeedPopup@@MAEXXZ PROC		; HomeEtcItemNeedPopup::OnRender, COMDAT
; _this$ = ecx

; 67   : {

  00000	55		 push	 ebp
  00001	8b ec		 mov	 ebp, esp
  00003	83 ec 0c	 sub	 esp, 12			; 0000000cH
  00006	53		 push	 ebx
  00007	56		 push	 esi
  00008	57		 push	 edi
  00009	8b f1		 mov	 esi, ecx

; 68   : 	ioWnd::OnRender();

  0000b	ff 15 00 00 00
	00		 call	 DWORD PTR __imp_?OnRender@ioWnd@@MAEXXZ

; 69   : 
; 70   : 	int iXPos = GetDerivedPosX();

  00011	8b ce		 mov	 ecx, esi
  00013	ff 15 00 00 00
	00		 call	 DWORD PTR __imp_?GetDerivedPosX@ioWnd@@QBEHXZ
  00019	8b d8		 mov	 ebx, eax

; 71   : 	int iYPos = GetDerivedPosY();

  0001b	8b ce		 mov	 ecx, esi
  0001d	89 5d f4	 mov	 DWORD PTR _iXPos$[ebp], ebx
  00020	ff 15 00 00 00
	00		 call	 DWORD PTR __imp_?GetDerivedPosY@ioWnd@@QBEHXZ

; 72   : 
; 73   : 	if( m_pIconBack )

  00026	33 ff		 xor	 edi, edi
  00028	8b d0		 mov	 edx, eax
  0002a	89 55 fc	 mov	 DWORD PTR _iYPos$[ebp], edx
  0002d	39 be 60 01 00
	00		 cmp	 DWORD PTR [esi+352], edi
  00033	74 3a		 je	 SHORT $LN2@OnRender

; 74   : 		m_pIconBack->Render( iXPos + 151, iYPos + 98, UI_RENDER_MULTIPLY );

  00035	8b 86 60 01 00
	00		 mov	 eax, DWORD PTR [esi+352]
  0003b	8b 08		 mov	 ecx, DWORD PTR [eax]
  0003d	57		 push	 edi
  0003e	57		 push	 edi
  0003f	57		 push	 edi
  00040	6a 08		 push	 8
  00042	51		 push	 ecx
  00043	83 c2 62	 add	 edx, 98			; 00000062H
  00046	0f 57 c0	 xorps	 xmm0, xmm0
  00049	f3 0f 2a c2	 cvtsi2ss xmm0, edx
  0004d	51		 push	 ecx
  0004e	f3 0f 11 44 24
	04		 movss	 DWORD PTR [esp+4], xmm0
  00054	8d 93 97 00 00
	00		 lea	 edx, DWORD PTR [ebx+151]
  0005a	0f 57 c0	 xorps	 xmm0, xmm0
  0005d	8b c8		 mov	 ecx, eax
  0005f	8b 00		 mov	 eax, DWORD PTR [eax]
  00061	f3 0f 2a c2	 cvtsi2ss xmm0, edx
  00065	f3 0f 11 04 24	 movss	 DWORD PTR [esp], xmm0
  0006a	ff 10		 call	 DWORD PTR [eax]
  0006c	8b 55 fc	 mov	 edx, DWORD PTR _iYPos$[ebp]
$LN2@OnRender:

; 75   : 
; 76   : 	if( m_pIcon )

  0006f	39 be 64 01 00
	00		 cmp	 DWORD PTR [esi+356], edi
  00075	74 32		 je	 SHORT $LN1@OnRender

; 77   : 		m_pIcon->Render( iXPos + 151, iYPos + 98 );

  00077	8b 8e 64 01 00
	00		 mov	 ecx, DWORD PTR [esi+356]
  0007d	8b 01		 mov	 eax, DWORD PTR [ecx]
  0007f	57		 push	 edi
  00080	57		 push	 edi
  00081	57		 push	 edi
  00082	57		 push	 edi
  00083	0f 57 c0	 xorps	 xmm0, xmm0
  00086	51		 push	 ecx
  00087	83 c2 62	 add	 edx, 98			; 00000062H
  0008a	f3 0f 2a c2	 cvtsi2ss xmm0, edx
  0008e	51		 push	 ecx
  0008f	f3 0f 11 44 24
	04		 movss	 DWORD PTR [esp+4], xmm0
  00095	81 c3 97 00 00
	00		 add	 ebx, 151		; 00000097H
  0009b	0f 57 c0	 xorps	 xmm0, xmm0
  0009e	f3 0f 2a c3	 cvtsi2ss xmm0, ebx
  000a2	f3 0f 11 04 24	 movss	 DWORD PTR [esp], xmm0
  000a7	ff 10		 call	 DWORD PTR [eax]
$LN1@OnRender:

; 78   : 
; 79   : 	g_FontMgr.SetTextStyle( TS_NORMAL );

  000a9	8b 35 00 00 00
	00		 mov	 esi, DWORD PTR __imp_?GetSingleton@ioFontManager@@SAAAV1@XZ
  000af	57		 push	 edi
  000b0	ff d6		 call	 esi
  000b2	8b 1d 00 00 00
	00		 mov	 ebx, DWORD PTR __imp_?SetTextStyle@ioFontManager@@QAEXW4TextStyle@@@Z
  000b8	8b c8		 mov	 ecx, eax
  000ba	ff d3		 call	 ebx

; 80   : 	g_FontMgr.SetAlignType( TAT_CENTER );

  000bc	6a 01		 push	 1
  000be	ff d6		 call	 esi
  000c0	8b c8		 mov	 ecx, eax
  000c2	ff 15 00 00 00
	00		 call	 DWORD PTR __imp_?SetAlignType@ioFontManager@@QAEXW4TextAlignType@@@Z

; 81   : 	g_FontMgr.SetBkColor( 0, 0, 0 );

  000c8	57		 push	 edi
  000c9	57		 push	 edi
  000ca	57		 push	 edi
  000cb	ff d6		 call	 esi
  000cd	8b c8		 mov	 ecx, eax
  000cf	ff 15 00 00 00
	00		 call	 DWORD PTR __imp_?SetBkColor@ioFontManager@@QAEXHHH@Z

; 82   : 
; 83   : 	g_FontMgr.SetTextColor( TCT_DEFAULT_DARKGRAY );

  000d5	68 3a 3a 3a ff	 push	 -12961222		; ff3a3a3aH
  000da	ff d6		 call	 esi
  000dc	8b c8		 mov	 ecx, eax
  000de	ff 15 00 00 00
	00		 call	 DWORD PTR __imp_?SetTextColor@ioFontManager@@QAEXK@Z

; 84   : 	g_FontMgr.PrintText( iXPos + 151, iYPos + 144, FONT_SIZE_13, STR(1) );

  000e4	8b 45 f4	 mov	 eax, DWORD PTR _iXPos$[ebp]
  000e7	57		 push	 edi
  000e8	6a 01		 push	 1
  000ea	05 97 00 00 00	 add	 eax, 151		; 00000097H
  000ef	0f 57 c0	 xorps	 xmm0, xmm0
  000f2	68 00 00 00 00	 push	 OFFSET ??_C@_00CNPNBAHC@?$AA@
  000f7	f3 0f 2a c0	 cvtsi2ss xmm0, eax
  000fb	68 00 00 00 00	 push	 OFFSET ??_C@_0BP@IEHDACLO@HomeEtcItemNeedPopup?3?3OnRender?$AA@
  00100	f3 0f 11 45 f8	 movss	 DWORD PTR tv331[ebp], xmm0
  00105	ff 15 00 00 00
	00		 call	 DWORD PTR __imp_?GetSingleton@ioStringManager@@SAAAV1@XZ
  0010b	8b c8		 mov	 ecx, eax
  0010d	ff 15 00 00 00
	00		 call	 DWORD PTR __imp_?GetString@ioStringManager@@QAEPADPBD0HW4FileNamePrefix@1@@Z
  00113	f3 0f 10 05 00
	00 00 00	 movss	 xmm0, DWORD PTR __real@3f266666
  0011b	50		 push	 eax
  0011c	8b 45 fc	 mov	 eax, DWORD PTR _iYPos$[ebp]
  0011f	83 ec 0c	 sub	 esp, 12			; 0000000cH
  00122	f3 0f 11 44 24
	08		 movss	 DWORD PTR [esp+8], xmm0
  00128	05 90 00 00 00	 add	 eax, 144		; 00000090H
  0012d	0f 57 c0	 xorps	 xmm0, xmm0
  00130	f3 0f 2a c0	 cvtsi2ss xmm0, eax
  00134	f3 0f 11 44 24
	04		 movss	 DWORD PTR [esp+4], xmm0
  0013a	f3 0f 10 45 f8	 movss	 xmm0, DWORD PTR tv331[ebp]
  0013f	f3 0f 11 04 24	 movss	 DWORD PTR [esp], xmm0
  00144	ff d6		 call	 esi
  00146	50		 push	 eax
  00147	ff 15 00 00 00
	00		 call	 DWORD PTR __imp_?PrintText@ioFontManager@@QAAXMMMPBDZZ
  0014d	83 c4 14	 add	 esp, 20			; 00000014H

; 85   : 
; 86   : 	g_FontMgr.SetTextStyle( TS_NORMAL );

  00150	57		 push	 edi
  00151	ff d6		 call	 esi
  00153	8b c8		 mov	 ecx, eax
  00155	ff d3		 call	 ebx

; 87   : 	g_FontMgr.SetAlignType( TAT_CENTER );

  00157	6a 01		 push	 1
  00159	ff d6		 call	 esi
  0015b	8b c8		 mov	 ecx, eax
  0015d	ff 15 00 00 00
	00		 call	 DWORD PTR __imp_?SetAlignType@ioFontManager@@QAEXW4TextAlignType@@@Z

; 88   : 	g_FontMgr.SetBkColor( 0, 0, 0 );

  00163	57		 push	 edi
  00164	57		 push	 edi
  00165	57		 push	 edi
  00166	ff d6		 call	 esi
  00168	8b c8		 mov	 ecx, eax
  0016a	ff 15 00 00 00
	00		 call	 DWORD PTR __imp_?SetBkColor@ioFontManager@@QAEXHHH@Z

; 89   : 	g_FontMgr.SetTextColor( TCT_DEFAULT_RED );	

  00170	68 00 16 b9 ff	 push	 -4647424		; ffb91600H
  00175	ff d6		 call	 esi
  00177	8b c8		 mov	 ecx, eax
  00179	ff 15 00 00 00
	00		 call	 DWORD PTR __imp_?SetTextColor@ioFontManager@@QAEXK@Z

; 90   : 	g_FontMgr.PrintText( iXPos + 151, iYPos + 164, FONT_SIZE_13, STR(2) );

  0017f	57		 push	 edi
  00180	6a 02		 push	 2
  00182	68 00 00 00 00	 push	 OFFSET ??_C@_00CNPNBAHC@?$AA@
  00187	68 00 00 00 00	 push	 OFFSET ??_C@_0BP@IEHDACLO@HomeEtcItemNeedPopup?3?3OnRender?$AA@
  0018c	ff 15 00 00 00
	00		 call	 DWORD PTR __imp_?GetSingleton@ioStringManager@@SAAAV1@XZ
  00192	8b c8		 mov	 ecx, eax
  00194	ff 15 00 00 00
	00		 call	 DWORD PTR __imp_?GetString@ioStringManager@@QAEPADPBD0HW4FileNamePrefix@1@@Z
  0019a	f3 0f 10 05 00
	00 00 00	 movss	 xmm0, DWORD PTR __real@3f266666
  001a2	50		 push	 eax
  001a3	8b 45 fc	 mov	 eax, DWORD PTR _iYPos$[ebp]
  001a6	83 ec 0c	 sub	 esp, 12			; 0000000cH
  001a9	f3 0f 11 44 24
	08		 movss	 DWORD PTR [esp+8], xmm0
  001af	05 a4 00 00 00	 add	 eax, 164		; 000000a4H
  001b4	0f 57 c0	 xorps	 xmm0, xmm0
  001b7	f3 0f 2a c0	 cvtsi2ss xmm0, eax
  001bb	f3 0f 11 44 24
	04		 movss	 DWORD PTR [esp+4], xmm0
  001c1	f3 0f 10 45 f8	 movss	 xmm0, DWORD PTR tv331[ebp]
  001c6	f3 0f 11 04 24	 movss	 DWORD PTR [esp], xmm0
  001cb	ff d6		 call	 esi
  001cd	50		 push	 eax
  001ce	ff 15 00 00 00
	00		 call	 DWORD PTR __imp_?PrintText@ioFontManager@@QAAXMMMPBDZZ
  001d4	83 c4 14	 add	 esp, 20			; 00000014H

; 91   : 
; 92   : 	g_FontMgr.SetTextStyle( TS_NORMAL );

  001d7	57		 push	 edi
  001d8	ff d6		 call	 esi
  001da	8b c8		 mov	 ecx, eax
  001dc	ff d3		 call	 ebx

; 93   : 	g_FontMgr.SetAlignType( TAT_CENTER );

  001de	6a 01		 push	 1
  001e0	ff d6		 call	 esi
  001e2	8b c8		 mov	 ecx, eax
  001e4	ff 15 00 00 00
	00		 call	 DWORD PTR __imp_?SetAlignType@ioFontManager@@QAEXW4TextAlignType@@@Z

; 94   : 	g_FontMgr.SetBkColor( 0, 0, 0 );

  001ea	57		 push	 edi
  001eb	57		 push	 edi
  001ec	57		 push	 edi
  001ed	ff d6		 call	 esi
  001ef	8b c8		 mov	 ecx, eax
  001f1	ff 15 00 00 00
	00		 call	 DWORD PTR __imp_?SetBkColor@ioFontManager@@QAEXHHH@Z

; 95   : 	g_FontMgr.SetTextColor( TCT_DEFAULT_GRAY );	

  001f7	68 6e 6e 6e ff	 push	 -9539986		; ff6e6e6eH
  001fc	ff d6		 call	 esi
  001fe	8b c8		 mov	 ecx, eax
  00200	ff 15 00 00 00
	00		 call	 DWORD PTR __imp_?SetTextColor@ioFontManager@@QAEXK@Z

; 96   : 	g_FontMgr.PrintText( iXPos + 151, iYPos + 184, FONT_SIZE_13, STR(3) );

  00206	57		 push	 edi
  00207	6a 03		 push	 3
  00209	68 00 00 00 00	 push	 OFFSET ??_C@_00CNPNBAHC@?$AA@
  0020e	68 00 00 00 00	 push	 OFFSET ??_C@_0BP@IEHDACLO@HomeEtcItemNeedPopup?3?3OnRender?$AA@
  00213	ff 15 00 00 00
	00		 call	 DWORD PTR __imp_?GetSingleton@ioStringManager@@SAAAV1@XZ
  00219	8b c8		 mov	 ecx, eax
  0021b	ff 15 00 00 00
	00		 call	 DWORD PTR __imp_?GetString@ioStringManager@@QAEPADPBD0HW4FileNamePrefix@1@@Z
  00221	f3 0f 10 05 00
	00 00 00	 movss	 xmm0, DWORD PTR __real@3f266666
  00229	50		 push	 eax
  0022a	8b 45 fc	 mov	 eax, DWORD PTR _iYPos$[ebp]
  0022d	83 ec 0c	 sub	 esp, 12			; 0000000cH
  00230	f3 0f 11 44 24
	08		 movss	 DWORD PTR [esp+8], xmm0
  00236	05 b8 00 00 00	 add	 eax, 184		; 000000b8H
  0023b	0f 57 c0	 xorps	 xmm0, xmm0
  0023e	f3 0f 2a c0	 cvtsi2ss xmm0, eax
  00242	f3 0f 11 44 24
	04		 movss	 DWORD PTR [esp+4], xmm0
  00248	f3 0f 10 45 f8	 movss	 xmm0, DWORD PTR tv331[ebp]
  0024d	f3 0f 11 04 24	 movss	 DWORD PTR [esp], xmm0
  00252	ff d6		 call	 esi
  00254	50		 push	 eax
  00255	ff 15 00 00 00
	00		 call	 DWORD PTR __imp_?PrintText@ioFontManager@@QAAXMMMPBDZZ
  0025b	83 c4 14	 add	 esp, 20			; 00000014H

; 97   : 
; 98   : 	g_FontMgr.SetTextStyle( TS_NORMAL );

  0025e	57		 push	 edi
  0025f	ff d6		 call	 esi
  00261	8b c8		 mov	 ecx, eax
  00263	ff d3		 call	 ebx

; 99   : 	g_FontMgr.SetAlignType( TAT_CENTER );

  00265	6a 01		 push	 1
  00267	ff d6		 call	 esi
  00269	8b c8		 mov	 ecx, eax
  0026b	ff 15 00 00 00
	00		 call	 DWORD PTR __imp_?SetAlignType@ioFontManager@@QAEXW4TextAlignType@@@Z

; 100  : 	g_FontMgr.SetBkColor( 0, 0, 0 );

  00271	57		 push	 edi
  00272	57		 push	 edi
  00273	57		 push	 edi
  00274	ff d6		 call	 esi
  00276	8b c8		 mov	 ecx, eax
  00278	ff 15 00 00 00
	00		 call	 DWORD PTR __imp_?SetBkColor@ioFontManager@@QAEXHHH@Z

; 101  : 	g_FontMgr.SetTextColor( TCT_DEFAULT_GRAY );	

  0027e	68 6e 6e 6e ff	 push	 -9539986		; ff6e6e6eH
  00283	ff d6		 call	 esi
  00285	8b c8		 mov	 ecx, eax
  00287	ff 15 00 00 00
	00		 call	 DWORD PTR __imp_?SetTextColor@ioFontManager@@QAEXK@Z

; 102  : 	g_FontMgr.PrintText( iXPos + 151, iYPos + 204, FONT_SIZE_13, STR(4) );

  0028d	57		 push	 edi
  0028e	6a 04		 push	 4
  00290	68 00 00 00 00	 push	 OFFSET ??_C@_00CNPNBAHC@?$AA@
  00295	68 00 00 00 00	 push	 OFFSET ??_C@_0BP@IEHDACLO@HomeEtcItemNeedPopup?3?3OnRender?$AA@
  0029a	ff 15 00 00 00
	00		 call	 DWORD PTR __imp_?GetSingleton@ioStringManager@@SAAAV1@XZ
  002a0	8b c8		 mov	 ecx, eax
  002a2	ff 15 00 00 00
	00		 call	 DWORD PTR __imp_?GetString@ioStringManager@@QAEPADPBD0HW4FileNamePrefix@1@@Z
  002a8	f3 0f 10 05 00
	00 00 00	 movss	 xmm0, DWORD PTR __real@3f266666
  002b0	50		 push	 eax
  002b1	8b 45 fc	 mov	 eax, DWORD PTR _iYPos$[ebp]
  002b4	83 ec 0c	 sub	 esp, 12			; 0000000cH
  002b7	f3 0f 11 44 24
	08		 movss	 DWORD PTR [esp+8], xmm0
  002bd	05 cc 00 00 00	 add	 eax, 204		; 000000ccH
  002c2	0f 57 c0	 xorps	 xmm0, xmm0
  002c5	f3 0f 2a c0	 cvtsi2ss xmm0, eax
  002c9	f3 0f 11 44 24
	04		 movss	 DWORD PTR [esp+4], xmm0
  002cf	f3 0f 10 45 f8	 movss	 xmm0, DWORD PTR tv331[ebp]
  002d4	f3 0f 11 04 24	 movss	 DWORD PTR [esp], xmm0
  002d9	ff d6		 call	 esi
  002db	50		 push	 eax
  002dc	ff 15 00 00 00
	00		 call	 DWORD PTR __imp_?PrintText@ioFontManager@@QAAXMMMPBDZZ
  002e2	83 c4 14	 add	 esp, 20			; 00000014H
  002e5	5f		 pop	 edi
  002e6	5e		 pop	 esi
  002e7	5b		 pop	 ebx

; 103  : 
; 104  : }

  002e8	c9		 leave
  002e9	c3		 ret	 0
?OnRender@HomeEtcItemNeedPopup@@MAEXXZ ENDP		; HomeEtcItemNeedPopup::OnRender
_TEXT	ENDS
PUBLIC	?_DECSTR@@YAXPADH@Z				; _DECSTR
; Function compile flags: /Ogsp
; File d:\lost saga for developer\youtube\tutorial\source\src\lsclient\stringprotect.h
;	COMDAT ?_DECSTR@@YAXPADH@Z
_TEXT	SEGMENT
_s$ = 8							; size = 4
_l$ = 12						; size = 4
?_DECSTR@@YAXPADH@Z PROC				; _DECSTR, COMDAT

; 40   : __forceinline void _DECSTR(char* s, int l){int i=0,l4=(l-1)/4,*p=(int*)s;s[l-1]=0;for(;i<l4;++i)*(p++)^=0xEAEBECED;for(i=l4*4;i<l-1;++i)s[i]^=0xED-i%4;}

  00000	55		 push	 ebp
  00001	8b ec		 mov	 ebp, esp
  00003	8b 4d 0c	 mov	 ecx, DWORD PTR _l$[ebp]
  00006	56		 push	 esi
  00007	8b 75 08	 mov	 esi, DWORD PTR _s$[ebp]
  0000a	57		 push	 edi
  0000b	8d 79 ff	 lea	 edi, DWORD PTR [ecx-1]
  0000e	8b c7		 mov	 eax, edi
  00010	99		 cdq
  00011	83 e2 03	 and	 edx, 3
  00014	03 c2		 add	 eax, edx
  00016	c1 f8 02	 sar	 eax, 2
  00019	8b d6		 mov	 edx, esi
  0001b	c6 44 0e ff 00	 mov	 BYTE PTR [esi+ecx-1], 0
  00020	85 c0		 test	 eax, eax
  00022	7e 0e		 jle	 SHORT $LN4@DECSTR
  00024	8b c8		 mov	 ecx, eax
$LL6@DECSTR:
  00026	81 32 ed ec eb
	ea		 xor	 DWORD PTR [edx], -353637139 ; eaebecedH
  0002c	83 c2 04	 add	 edx, 4
  0002f	49		 dec	 ecx
  00030	75 f4		 jne	 SHORT $LL6@DECSTR
$LN4@DECSTR:
  00032	c1 e0 02	 shl	 eax, 2
  00035	eb 17		 jmp	 SHORT $LN14@DECSTR
$LL3@DECSTR:
  00037	8b c8		 mov	 ecx, eax
  00039	81 e1 03 00 00
	80		 and	 ecx, -2147483645	; 80000003H
  0003f	79 05		 jns	 SHORT $LN13@DECSTR
  00041	49		 dec	 ecx
  00042	83 c9 fc	 or	 ecx, -4			; fffffffcH
  00045	41		 inc	 ecx
$LN13@DECSTR:
  00046	b2 ed		 mov	 dl, -19			; ffffffedH
  00048	2a d1		 sub	 dl, cl
  0004a	30 14 30	 xor	 BYTE PTR [eax+esi], dl
  0004d	40		 inc	 eax
$LN14@DECSTR:
  0004e	3b c7		 cmp	 eax, edi
  00050	7c e5		 jl	 SHORT $LL3@DECSTR
  00052	5f		 pop	 edi
  00053	5e		 pop	 esi
  00054	5d		 pop	 ebp
  00055	c3		 ret	 0
?_DECSTR@@YAXPADH@Z ENDP				; _DECSTR
_TEXT	ENDS
EXTRN	??3@YAXPAX@Z:PROC				; operator delete
; Function compile flags: /Ogsp
;	COMDAT ??_GHomeEtcItemNeedPopup@@UAEPAXI@Z
_TEXT	SEGMENT
___flags$ = 8						; size = 4
??_GHomeEtcItemNeedPopup@@UAEPAXI@Z PROC		; HomeEtcItemNeedPopup::`scalar deleting destructor', COMDAT
; _this$ = ecx
  00000	55		 push	 ebp
  00001	8b ec		 mov	 ebp, esp
  00003	56		 push	 esi
  00004	8b f1		 mov	 esi, ecx
  00006	e8 00 00 00 00	 call	 ??1HomeEtcItemNeedPopup@@UAE@XZ ; HomeEtcItemNeedPopup::~HomeEtcItemNeedPopup
  0000b	f6 45 08 01	 test	 BYTE PTR ___flags$[ebp], 1
  0000f	74 07		 je	 SHORT $LN1@scalar
  00011	56		 push	 esi
  00012	e8 00 00 00 00	 call	 ??3@YAXPAX@Z		; operator delete
  00017	59		 pop	 ecx
$LN1@scalar:
  00018	8b c6		 mov	 eax, esi
  0001a	5e		 pop	 esi
  0001b	5d		 pop	 ebp
  0001c	c2 04 00	 ret	 4
??_GHomeEtcItemNeedPopup@@UAEPAXI@Z ENDP		; HomeEtcItemNeedPopup::`scalar deleting destructor'
_TEXT	ENDS
PUBLIC	__$ArrayPad$
PUBLIC	??$?8$08@@YA_NABVioHashString@@AAY08$$CBD@Z	; operator==<9>
EXTRN	__imp_?c_str@ioHashString@@QBEPBDXZ:PROC
EXTRN	___security_cookie:DWORD
; Function compile flags: /Ogsp
; File d:\lost saga for developer\youtube\tutorial\source\src\io3dengine\iohashstring.h
;	COMDAT ??$?8$08@@YA_NABVioHashString@@AAY08$$CBD@Z
_TEXT	SEGMENT
__t$ = -20						; size = 9
__$ArrayPad$ = -4					; size = 4
_lhs$ = 8						; size = 4
_t$ = 12						; size = 4
??$?8$08@@YA_NABVioHashString@@AAY08$$CBD@Z PROC	; operator==<9>, COMDAT

; 146  : {

  00000	55		 push	 ebp
  00001	8b ec		 mov	 ebp, esp
  00003	83 ec 14	 sub	 esp, 20			; 00000014H
  00006	a1 00 00 00 00	 mov	 eax, DWORD PTR ___security_cookie
  0000b	33 c5		 xor	 eax, ebp
  0000d	89 45 fc	 mov	 DWORD PTR __$ArrayPad$[ebp], eax
  00010	8b 45 0c	 mov	 eax, DWORD PTR _t$[ebp]

; 147  : 	_ENCSTR(t, _t); return ( strcmp( lhs.c_str(), _t ) == 0 );

  00013	8a 10		 mov	 dl, BYTE PTR [eax]
  00015	8b 4d 08	 mov	 ecx, DWORD PTR _lhs$[ebp]
  00018	84 d2		 test	 dl, dl
  0001a	0f 84 ee 00 00
	00		 je	 $LN96@operator
  00020	80 f2 ed	 xor	 dl, -19			; ffffffedH
  00023	88 55 ec	 mov	 BYTE PTR __t$[ebp], dl
  00026	8a 50 01	 mov	 dl, BYTE PTR [eax+1]
  00029	84 d2		 test	 dl, dl
  0002b	0f 84 d7 00 00
	00		 je	 $LN95@operator
  00031	80 f2 ec	 xor	 dl, -20			; ffffffecH
  00034	88 55 ed	 mov	 BYTE PTR __t$[ebp+1], dl
  00037	8a 50 02	 mov	 dl, BYTE PTR [eax+2]
  0003a	84 d2		 test	 dl, dl
  0003c	0f 84 c0 00 00
	00		 je	 $LN94@operator
  00042	80 f2 eb	 xor	 dl, -21			; ffffffebH
  00045	88 55 ee	 mov	 BYTE PTR __t$[ebp+2], dl
  00048	8a 50 03	 mov	 dl, BYTE PTR [eax+3]
  0004b	84 d2		 test	 dl, dl
  0004d	0f 84 a9 00 00
	00		 je	 $LN93@operator
  00053	80 f2 ea	 xor	 dl, -22			; ffffffeaH
  00056	88 55 ef	 mov	 BYTE PTR __t$[ebp+3], dl
  00059	8a 50 04	 mov	 dl, BYTE PTR [eax+4]
  0005c	84 d2		 test	 dl, dl
  0005e	0f 84 92 00 00
	00		 je	 $LN92@operator
  00064	80 f2 ed	 xor	 dl, -19			; ffffffedH
  00067	88 55 f0	 mov	 BYTE PTR __t$[ebp+4], dl
  0006a	8a 50 05	 mov	 dl, BYTE PTR [eax+5]
  0006d	84 d2		 test	 dl, dl
  0006f	74 7f		 je	 SHORT $LN91@operator
  00071	80 f2 ec	 xor	 dl, -20			; ffffffecH
  00074	88 55 f1	 mov	 BYTE PTR __t$[ebp+5], dl
  00077	8a 50 06	 mov	 dl, BYTE PTR [eax+6]
  0007a	84 d2		 test	 dl, dl
  0007c	74 6c		 je	 SHORT $LN90@operator
  0007e	80 f2 eb	 xor	 dl, -21			; ffffffebH
  00081	88 55 f2	 mov	 BYTE PTR __t$[ebp+6], dl
  00084	8a 50 07	 mov	 dl, BYTE PTR [eax+7]
  00087	84 d2		 test	 dl, dl
  00089	74 59		 je	 SHORT $LN89@operator
  0008b	80 f2 ea	 xor	 dl, -22			; ffffffeaH
  0008e	80 78 08 00	 cmp	 BYTE PTR [eax+8], 0
  00092	88 55 f3	 mov	 BYTE PTR __t$[ebp+7], dl
  00095	74 7b		 je	 SHORT $LN1@operator
  00097	8a 50 09	 mov	 dl, BYTE PTR [eax+9]
  0009a	84 d2		 test	 dl, dl
  0009c	74 40		 je	 SHORT $LN87@operator
  0009e	80 f2 ec	 xor	 dl, -20			; ffffffecH
  000a1	88 55 f5	 mov	 BYTE PTR __t$[ebp+9], dl
  000a4	8a 50 0a	 mov	 dl, BYTE PTR [eax+10]
  000a7	84 d2		 test	 dl, dl
  000a9	74 2d		 je	 SHORT $LN86@operator
  000ab	80 f2 eb	 xor	 dl, -21			; ffffffebH
  000ae	88 55 f6	 mov	 BYTE PTR __t$[ebp+10], dl
  000b1	8a 50 0b	 mov	 dl, BYTE PTR [eax+11]
  000b4	84 d2		 test	 dl, dl
  000b6	74 1a		 je	 SHORT $LN85@operator
  000b8	8a 40 0c	 mov	 al, BYTE PTR [eax+12]
  000bb	80 f2 ea	 xor	 dl, -22			; ffffffeaH
  000be	88 55 f7	 mov	 BYTE PTR __t$[ebp+11], dl
  000c1	84 c0		 test	 al, al
  000c3	74 07		 je	 SHORT $LN84@operator
  000c5	34 ed		 xor	 al, -19			; ffffffedH
  000c7	88 45 f8	 mov	 BYTE PTR __t$[ebp+12], al
  000ca	eb 46		 jmp	 SHORT $LN1@operator
$LN84@operator:
  000cc	c6 45 f8 ed	 mov	 BYTE PTR __t$[ebp+12], -19 ; ffffffedH
  000d0	eb 40		 jmp	 SHORT $LN1@operator
$LN85@operator:
  000d2	c6 45 f7 ea	 mov	 BYTE PTR __t$[ebp+11], -22 ; ffffffeaH
  000d6	eb 3a		 jmp	 SHORT $LN1@operator
$LN86@operator:
  000d8	c6 45 f6 eb	 mov	 BYTE PTR __t$[ebp+10], -21 ; ffffffebH
  000dc	eb 34		 jmp	 SHORT $LN1@operator
$LN87@operator:
  000de	c6 45 f5 ec	 mov	 BYTE PTR __t$[ebp+9], -20 ; ffffffecH
  000e2	eb 2e		 jmp	 SHORT $LN1@operator
$LN89@operator:
  000e4	c6 45 f3 ea	 mov	 BYTE PTR __t$[ebp+7], -22 ; ffffffeaH
  000e8	eb 28		 jmp	 SHORT $LN1@operator
$LN90@operator:
  000ea	c6 45 f2 eb	 mov	 BYTE PTR __t$[ebp+6], -21 ; ffffffebH
  000ee	eb 22		 jmp	 SHORT $LN1@operator
$LN91@operator:
  000f0	c6 45 f1 ec	 mov	 BYTE PTR __t$[ebp+5], -20 ; ffffffecH
  000f4	eb 1c		 jmp	 SHORT $LN1@operator
$LN92@operator:
  000f6	c6 45 f0 ed	 mov	 BYTE PTR __t$[ebp+4], -19 ; ffffffedH
  000fa	eb 16		 jmp	 SHORT $LN1@operator
$LN93@operator:
  000fc	c6 45 ef ea	 mov	 BYTE PTR __t$[ebp+3], -22 ; ffffffeaH
  00100	eb 10		 jmp	 SHORT $LN1@operator
$LN94@operator:
  00102	c6 45 ee eb	 mov	 BYTE PTR __t$[ebp+2], -21 ; ffffffebH
  00106	eb 0a		 jmp	 SHORT $LN1@operator
$LN95@operator:
  00108	c6 45 ed ec	 mov	 BYTE PTR __t$[ebp+1], -20 ; ffffffecH
  0010c	eb 04		 jmp	 SHORT $LN1@operator
$LN96@operator:
  0010e	c6 45 ec ed	 mov	 BYTE PTR __t$[ebp], -19	; ffffffedH
$LN1@operator:
  00112	6a 02		 push	 2
  00114	8d 45 ec	 lea	 eax, DWORD PTR __t$[ebp]
  00117	c6 45 f4 00	 mov	 BYTE PTR __t$[ebp+8], 0
  0011b	5a		 pop	 edx
$LL104@operator:
  0011c	81 30 ed ec eb
	ea		 xor	 DWORD PTR [eax], -353637139 ; eaebecedH
  00122	83 c0 04	 add	 eax, 4
  00125	4a		 dec	 edx
  00126	75 f4		 jne	 SHORT $LL104@operator
  00128	56		 push	 esi
  00129	8d 75 ec	 lea	 esi, DWORD PTR __t$[ebp]
  0012c	ff 15 00 00 00
	00		 call	 DWORD PTR __imp_?c_str@ioHashString@@QBEPBDXZ
$LL111@operator:
  00132	8a 08		 mov	 cl, BYTE PTR [eax]
  00134	3a 0e		 cmp	 cl, BYTE PTR [esi]
  00136	75 1a		 jne	 SHORT $LN112@operator
  00138	84 c9		 test	 cl, cl
  0013a	74 12		 je	 SHORT $LN113@operator
  0013c	8a 48 01	 mov	 cl, BYTE PTR [eax+1]
  0013f	3a 4e 01	 cmp	 cl, BYTE PTR [esi+1]
  00142	75 0e		 jne	 SHORT $LN112@operator
  00144	83 c0 02	 add	 eax, 2
  00147	83 c6 02	 add	 esi, 2
  0014a	84 c9		 test	 cl, cl
  0014c	75 e4		 jne	 SHORT $LL111@operator
$LN113@operator:
  0014e	33 c0		 xor	 eax, eax
  00150	eb 05		 jmp	 SHORT $LN114@operator
$LN112@operator:
  00152	1b c0		 sbb	 eax, eax
  00154	83 d8 ff	 sbb	 eax, -1
$LN114@operator:
  00157	33 c9		 xor	 ecx, ecx
  00159	85 c0		 test	 eax, eax
  0015b	0f 94 c0	 sete	 al

; 148  : }

  0015e	8b 4d fc	 mov	 ecx, DWORD PTR __$ArrayPad$[ebp]
  00161	33 cd		 xor	 ecx, ebp
  00163	5e		 pop	 esi
  00164	e8 00 00 00 00	 call	 @__security_check_cookie@4
  00169	c9		 leave
  0016a	c3		 ret	 0
??$?8$08@@YA_NABVioHashString@@AAY08$$CBD@Z ENDP	; operator==<9>
_TEXT	ENDS
PUBLIC	__$ArrayPad$
PUBLIC	??$?8$04@@YA_NABVioHashString@@AAY04$$CBD@Z	; operator==<5>
; Function compile flags: /Ogsp
;	COMDAT ??$?8$04@@YA_NABVioHashString@@AAY04$$CBD@Z
_TEXT	SEGMENT
__t$ = -16						; size = 5
__$ArrayPad$ = -4					; size = 4
_lhs$ = 8						; size = 4
_t$ = 12						; size = 4
??$?8$04@@YA_NABVioHashString@@AAY04$$CBD@Z PROC	; operator==<5>, COMDAT

; 146  : {

  00000	55		 push	 ebp
  00001	8b ec		 mov	 ebp, esp
  00003	83 ec 10	 sub	 esp, 16			; 00000010H
  00006	a1 00 00 00 00	 mov	 eax, DWORD PTR ___security_cookie
  0000b	33 c5		 xor	 eax, ebp
  0000d	89 45 fc	 mov	 DWORD PTR __$ArrayPad$[ebp], eax
  00010	8b 45 0c	 mov	 eax, DWORD PTR _t$[ebp]

; 147  : 	_ENCSTR(t, _t); return ( strcmp( lhs.c_str(), _t ) == 0 );

  00013	8a 10		 mov	 dl, BYTE PTR [eax]
  00015	8b 4d 08	 mov	 ecx, DWORD PTR _lhs$[ebp]
  00018	84 d2		 test	 dl, dl
  0001a	0f 84 92 00 00
	00		 je	 $LN96@operator@2
  00020	80 f2 ed	 xor	 dl, -19			; ffffffedH
  00023	88 55 f0	 mov	 BYTE PTR __t$[ebp], dl
  00026	8a 50 01	 mov	 dl, BYTE PTR [eax+1]
  00029	84 d2		 test	 dl, dl
  0002b	74 7f		 je	 SHORT $LN95@operator@2
  0002d	80 f2 ec	 xor	 dl, -20			; ffffffecH
  00030	88 55 f1	 mov	 BYTE PTR __t$[ebp+1], dl
  00033	8a 50 02	 mov	 dl, BYTE PTR [eax+2]
  00036	84 d2		 test	 dl, dl
  00038	74 6c		 je	 SHORT $LN94@operator@2
  0003a	80 f2 eb	 xor	 dl, -21			; ffffffebH
  0003d	88 55 f2	 mov	 BYTE PTR __t$[ebp+2], dl
  00040	8a 50 03	 mov	 dl, BYTE PTR [eax+3]
  00043	84 d2		 test	 dl, dl
  00045	74 59		 je	 SHORT $LN93@operator@2
  00047	80 f2 ea	 xor	 dl, -22			; ffffffeaH
  0004a	80 78 04 00	 cmp	 BYTE PTR [eax+4], 0
  0004e	88 55 f3	 mov	 BYTE PTR __t$[ebp+3], dl
  00051	74 63		 je	 SHORT $LN1@operator@2
  00053	8a 50 05	 mov	 dl, BYTE PTR [eax+5]
  00056	84 d2		 test	 dl, dl
  00058	74 40		 je	 SHORT $LN91@operator@2
  0005a	80 f2 ec	 xor	 dl, -20			; ffffffecH
  0005d	88 55 f5	 mov	 BYTE PTR __t$[ebp+5], dl
  00060	8a 50 06	 mov	 dl, BYTE PTR [eax+6]
  00063	84 d2		 test	 dl, dl
  00065	74 2d		 je	 SHORT $LN90@operator@2
  00067	80 f2 eb	 xor	 dl, -21			; ffffffebH
  0006a	88 55 f6	 mov	 BYTE PTR __t$[ebp+6], dl
  0006d	8a 50 07	 mov	 dl, BYTE PTR [eax+7]
  00070	84 d2		 test	 dl, dl
  00072	74 1a		 je	 SHORT $LN89@operator@2
  00074	8a 40 08	 mov	 al, BYTE PTR [eax+8]
  00077	80 f2 ea	 xor	 dl, -22			; ffffffeaH
  0007a	88 55 f7	 mov	 BYTE PTR __t$[ebp+7], dl
  0007d	84 c0		 test	 al, al
  0007f	74 07		 je	 SHORT $LN88@operator@2
  00081	34 ed		 xor	 al, -19			; ffffffedH
  00083	88 45 f8	 mov	 BYTE PTR __t$[ebp+8], al
  00086	eb 2e		 jmp	 SHORT $LN1@operator@2
$LN88@operator@2:
  00088	c6 45 f8 ed	 mov	 BYTE PTR __t$[ebp+8], -19 ; ffffffedH
  0008c	eb 28		 jmp	 SHORT $LN1@operator@2
$LN89@operator@2:
  0008e	c6 45 f7 ea	 mov	 BYTE PTR __t$[ebp+7], -22 ; ffffffeaH
  00092	eb 22		 jmp	 SHORT $LN1@operator@2
$LN90@operator@2:
  00094	c6 45 f6 eb	 mov	 BYTE PTR __t$[ebp+6], -21 ; ffffffebH
  00098	eb 1c		 jmp	 SHORT $LN1@operator@2
$LN91@operator@2:
  0009a	c6 45 f5 ec	 mov	 BYTE PTR __t$[ebp+5], -20 ; ffffffecH
  0009e	eb 16		 jmp	 SHORT $LN1@operator@2
$LN93@operator@2:
  000a0	c6 45 f3 ea	 mov	 BYTE PTR __t$[ebp+3], -22 ; ffffffeaH
  000a4	eb 10		 jmp	 SHORT $LN1@operator@2
$LN94@operator@2:
  000a6	c6 45 f2 eb	 mov	 BYTE PTR __t$[ebp+2], -21 ; ffffffebH
  000aa	eb 0a		 jmp	 SHORT $LN1@operator@2
$LN95@operator@2:
  000ac	c6 45 f1 ec	 mov	 BYTE PTR __t$[ebp+1], -20 ; ffffffecH
  000b0	eb 04		 jmp	 SHORT $LN1@operator@2
$LN96@operator@2:
  000b2	c6 45 f0 ed	 mov	 BYTE PTR __t$[ebp], -19	; ffffffedH
$LN1@operator@2:
  000b6	81 75 f0 ed ec
	eb ea		 xor	 DWORD PTR __t$[ebp], -353637139 ; eaebecedH
  000bd	56		 push	 esi
  000be	c6 45 f4 00	 mov	 BYTE PTR __t$[ebp+4], 0
  000c2	8d 75 f0	 lea	 esi, DWORD PTR __t$[ebp]
  000c5	ff 15 00 00 00
	00		 call	 DWORD PTR __imp_?c_str@ioHashString@@QBEPBDXZ
$LL111@operator@2:
  000cb	8a 08		 mov	 cl, BYTE PTR [eax]
  000cd	3a 0e		 cmp	 cl, BYTE PTR [esi]
  000cf	75 1a		 jne	 SHORT $LN112@operator@2
  000d1	84 c9		 test	 cl, cl
  000d3	74 12		 je	 SHORT $LN113@operator@2
  000d5	8a 48 01	 mov	 cl, BYTE PTR [eax+1]
  000d8	3a 4e 01	 cmp	 cl, BYTE PTR [esi+1]
  000db	75 0e		 jne	 SHORT $LN112@operator@2
  000dd	83 c0 02	 add	 eax, 2
  000e0	83 c6 02	 add	 esi, 2
  000e3	84 c9		 test	 cl, cl
  000e5	75 e4		 jne	 SHORT $LL111@operator@2
$LN113@operator@2:
  000e7	33 c0		 xor	 eax, eax
  000e9	eb 05		 jmp	 SHORT $LN114@operator@2
$LN112@operator@2:
  000eb	1b c0		 sbb	 eax, eax
  000ed	83 d8 ff	 sbb	 eax, -1
$LN114@operator@2:
  000f0	33 c9		 xor	 ecx, ecx
  000f2	85 c0		 test	 eax, eax
  000f4	0f 94 c0	 sete	 al

; 148  : }

  000f7	8b 4d fc	 mov	 ecx, DWORD PTR __$ArrayPad$[ebp]
  000fa	33 cd		 xor	 ecx, ebp
  000fc	5e		 pop	 esi
  000fd	e8 00 00 00 00	 call	 @__security_check_cookie@4
  00102	c9		 leave
  00103	c3		 ret	 0
??$?8$04@@YA_NABVioHashString@@AAY04$$CBD@Z ENDP	; operator==<5>
_TEXT	ENDS
PUBLIC	_pImage$GSCopy$
PUBLIC	_this$GSCopy$
PUBLIC	__$ArrayPad$
EXTRN	__imp_?AddRenderImage@ioWnd@@UAEXABVioHashString@@PAVioUIRenderImage@@@Z:PROC
; Function compile flags: /Ogsp
; File d:\lost saga for developer\youtube\tutorial\source\src\lsclient\gui\homeetcitemneedpopup.cpp
;	COMDAT ?AddRenderImage@HomeEtcItemNeedPopup@@MAEXABVioHashString@@PAVioUIRenderImage@@@Z
_TEXT	SEGMENT
_pImage$GSCopy$ = -28					; size = 4
_this$GSCopy$ = -24					; size = 4
__t$505766 = -20					; size = 9
__t$505904 = -16					; size = 5
__$ArrayPad$ = -4					; size = 4
_szType$ = 8						; size = 4
_pImage$ = 12						; size = 4
?AddRenderImage@HomeEtcItemNeedPopup@@MAEXABVioHashString@@PAVioUIRenderImage@@@Z PROC ; HomeEtcItemNeedPopup::AddRenderImage, COMDAT
; _this$ = ecx

; 49   : {

  00000	55		 push	 ebp
  00001	8b ec		 mov	 ebp, esp
  00003	83 ec 1c	 sub	 esp, 28			; 0000001cH
  00006	a1 00 00 00 00	 mov	 eax, DWORD PTR ___security_cookie
  0000b	33 c5		 xor	 eax, ebp
  0000d	89 45 fc	 mov	 DWORD PTR __$ArrayPad$[ebp], eax
  00010	8b 45 0c	 mov	 eax, DWORD PTR _pImage$[ebp]
  00013	53		 push	 ebx
  00014	8b 5d 08	 mov	 ebx, DWORD PTR _szType$[ebp]
  00017	56		 push	 esi
  00018	57		 push	 edi

; 50   : 	if( szType == "IconBack" )

  00019	6a 02		 push	 2
  0001b	89 4d e8	 mov	 DWORD PTR _this$GSCopy$[ebp], ecx

; 61   : 	{
; 62   : 		ioWnd::AddRenderImage( szType, pImage );

  0001e	89 45 e4	 mov	 DWORD PTR _pImage$GSCopy$[ebp], eax
  00021	c7 45 ec a4 8f
	84 84		 mov	 DWORD PTR __t$505766[ebp], -2071687260 ; 84848fa4H
  00028	c7 45 f0 af 8d
	88 81		 mov	 DWORD PTR __t$505766[ebp+4], -2121757265 ; 81888dafH
  0002f	8d 45 ec	 lea	 eax, DWORD PTR __t$505766[ebp]
  00032	c6 45 f4 00	 mov	 BYTE PTR __t$505766[ebp+8], 0
  00036	59		 pop	 ecx
  00037	bf ed ec eb ea	 mov	 edi, -353637139		; eaebecedH
$LL116@AddRenderI:

; 50   : 	if( szType == "IconBack" )

  0003c	31 38		 xor	 DWORD PTR [eax], edi
  0003e	83 c0 04	 add	 eax, 4
  00041	49		 dec	 ecx
  00042	75 f8		 jne	 SHORT $LL116@AddRenderI
  00044	8b cb		 mov	 ecx, ebx
  00046	8d 75 ec	 lea	 esi, DWORD PTR __t$505766[ebp]
  00049	ff 15 00 00 00
	00		 call	 DWORD PTR __imp_?c_str@ioHashString@@QBEPBDXZ
$LL234@AddRenderI:
  0004f	8a 08		 mov	 cl, BYTE PTR [eax]
  00051	3a 0e		 cmp	 cl, BYTE PTR [esi]
  00053	75 1a		 jne	 SHORT $LN235@AddRenderI
  00055	84 c9		 test	 cl, cl
  00057	74 12		 je	 SHORT $LN236@AddRenderI
  00059	8a 48 01	 mov	 cl, BYTE PTR [eax+1]
  0005c	3a 4e 01	 cmp	 cl, BYTE PTR [esi+1]
  0005f	75 0e		 jne	 SHORT $LN235@AddRenderI
  00061	83 c0 02	 add	 eax, 2
  00064	83 c6 02	 add	 esi, 2
  00067	84 c9		 test	 cl, cl
  00069	75 e4		 jne	 SHORT $LL234@AddRenderI
$LN236@AddRenderI:
  0006b	33 c0		 xor	 eax, eax
  0006d	eb 05		 jmp	 SHORT $LN237@AddRenderI
$LN235@AddRenderI:
  0006f	1b c0		 sbb	 eax, eax
  00071	83 d8 ff	 sbb	 eax, -1
$LN237@AddRenderI:
  00074	85 c0		 test	 eax, eax
  00076	75 26		 jne	 SHORT $LN233@AddRenderI

; 51   : 	{
; 52   : 		SAFEDELETE( m_pIconBack );

  00078	8b 75 e8	 mov	 esi, DWORD PTR _this$GSCopy$[ebp]
  0007b	8b 8e 60 01 00
	00		 mov	 ecx, DWORD PTR [esi+352]
  00081	85 c9		 test	 ecx, ecx
  00083	74 0e		 je	 SHORT $LN5@AddRenderI
  00085	8b 01		 mov	 eax, DWORD PTR [ecx]
  00087	6a 01		 push	 1
  00089	ff 50 40	 call	 DWORD PTR [eax+64]
  0008c	83 a6 60 01 00
	00 00		 and	 DWORD PTR [esi+352], 0
$LN5@AddRenderI:

; 53   : 		m_pIconBack = pImage;

  00093	8b 45 e4	 mov	 eax, DWORD PTR _pImage$GSCopy$[ebp]
  00096	89 86 60 01 00
	00		 mov	 DWORD PTR [esi+352], eax
  0009c	eb 75		 jmp	 SHORT $LN1@AddRenderI
$LN233@AddRenderI:

; 54   : 	}
; 55   : 	else if( szType == "Icon" )

  0009e	c7 45 f0 a4 8f
	84 84		 mov	 DWORD PTR __t$505904[ebp], -2071687260 ; 84848fa4H
  000a5	31 7d f0	 xor	 DWORD PTR __t$505904[ebp], edi
  000a8	8b cb		 mov	 ecx, ebx
  000aa	c6 45 f4 00	 mov	 BYTE PTR __t$505904[ebp+4], 0
  000ae	8d 75 f0	 lea	 esi, DWORD PTR __t$505904[ebp]
  000b1	ff 15 00 00 00
	00		 call	 DWORD PTR __imp_?c_str@ioHashString@@QBEPBDXZ
$LL238@AddRenderI:
  000b7	8a 08		 mov	 cl, BYTE PTR [eax]
  000b9	3a 0e		 cmp	 cl, BYTE PTR [esi]
  000bb	75 1a		 jne	 SHORT $LN239@AddRenderI
  000bd	84 c9		 test	 cl, cl
  000bf	74 12		 je	 SHORT $LN240@AddRenderI
  000c1	8a 48 01	 mov	 cl, BYTE PTR [eax+1]
  000c4	3a 4e 01	 cmp	 cl, BYTE PTR [esi+1]
  000c7	75 0e		 jne	 SHORT $LN239@AddRenderI
  000c9	83 c0 02	 add	 eax, 2
  000cc	83 c6 02	 add	 esi, 2
  000cf	84 c9		 test	 cl, cl
  000d1	75 e4		 jne	 SHORT $LL238@AddRenderI
$LN240@AddRenderI:
  000d3	33 c0		 xor	 eax, eax
  000d5	eb 05		 jmp	 SHORT $LN241@AddRenderI
$LN239@AddRenderI:
  000d7	1b c0		 sbb	 eax, eax
  000d9	83 d8 ff	 sbb	 eax, -1
$LN241@AddRenderI:
  000dc	85 c0		 test	 eax, eax
  000de	75 26		 jne	 SHORT $LN3@AddRenderI

; 56   : 	{
; 57   : 		SAFEDELETE( m_pIcon );

  000e0	8b 75 e8	 mov	 esi, DWORD PTR _this$GSCopy$[ebp]
  000e3	8b 8e 64 01 00
	00		 mov	 ecx, DWORD PTR [esi+356]
  000e9	85 c9		 test	 ecx, ecx
  000eb	74 0e		 je	 SHORT $LN2@AddRenderI
  000ed	8b 01		 mov	 eax, DWORD PTR [ecx]
  000ef	6a 01		 push	 1
  000f1	ff 50 40	 call	 DWORD PTR [eax+64]
  000f4	83 a6 64 01 00
	00 00		 and	 DWORD PTR [esi+356], 0
$LN2@AddRenderI:

; 58   : 		m_pIcon = pImage;

  000fb	8b 45 e4	 mov	 eax, DWORD PTR _pImage$GSCopy$[ebp]
  000fe	89 86 64 01 00
	00		 mov	 DWORD PTR [esi+356], eax

; 59   : 	}
; 60   : 	else 

  00104	eb 0d		 jmp	 SHORT $LN1@AddRenderI
$LN3@AddRenderI:

; 61   : 	{
; 62   : 		ioWnd::AddRenderImage( szType, pImage );

  00106	ff 75 e4	 push	 DWORD PTR _pImage$GSCopy$[ebp]
  00109	8b 4d e8	 mov	 ecx, DWORD PTR _this$GSCopy$[ebp]
  0010c	53		 push	 ebx
  0010d	ff 15 00 00 00
	00		 call	 DWORD PTR __imp_?AddRenderImage@ioWnd@@UAEXABVioHashString@@PAVioUIRenderImage@@@Z
$LN1@AddRenderI:

; 63   : 	}
; 64   : }

  00113	8b 4d fc	 mov	 ecx, DWORD PTR __$ArrayPad$[ebp]
  00116	5f		 pop	 edi
  00117	5e		 pop	 esi
  00118	33 cd		 xor	 ecx, ebp
  0011a	5b		 pop	 ebx
  0011b	e8 00 00 00 00	 call	 @__security_check_cookie@4
  00120	c9		 leave
  00121	c2 08 00	 ret	 8
?AddRenderImage@HomeEtcItemNeedPopup@@MAEXABVioHashString@@PAVioUIRenderImage@@@Z ENDP ; HomeEtcItemNeedPopup::AddRenderImage
_TEXT	ENDS
END
