; Listing generated by Microsoft (R) Optimizing Compiler Version 16.00.30319.01 

	TITLE	D:\Lost Saga For Developer\Youtube\Tutorial\Source\src\LSClient\GUI\InvenFourExtraCompoundWnd.cpp
	.686P
	.XMM
	include listing.inc
	.model	flat

INCLUDELIB MSVCRT
INCLUDELIB OLDNAMES

PUBLIC	??RSoldierSort@InvenFourExtraCompoundBuyWnd@@QBE_NABUNewShopPullDownItem@@0@Z ; InvenFourExtraCompoundBuyWnd::SoldierSort::operator()
; Function compile flags: /Ogsp
; File d:\lost saga for developer\youtube\tutorial\source\src\lsclient\gui\invenfourextracompoundwnd.h
;	COMDAT ??RSoldierSort@InvenFourExtraCompoundBuyWnd@@QBE_NABUNewShopPullDownItem@@0@Z
_TEXT	SEGMENT
_lhs$ = 8						; size = 4
_rhs$ = 12						; size = 4
??RSoldierSort@InvenFourExtraCompoundBuyWnd@@QBE_NABUNewShopPullDownItem@@0@Z PROC ; InvenFourExtraCompoundBuyWnd::SoldierSort::operator(), COMDAT
; _this$ = ecx

; 45   : 		{

  00000	55		 push	 ebp
  00001	8b ec		 mov	 ebp, esp

; 46   : 			if( lhs.m_dwTextColor < rhs.m_dwTextColor )

  00003	8b 55 08	 mov	 edx, DWORD PTR _lhs$[ebp]
  00006	8b 42 14	 mov	 eax, DWORD PTR [edx+20]
  00009	56		 push	 esi
  0000a	8b 75 0c	 mov	 esi, DWORD PTR _rhs$[ebp]
  0000d	8b 4e 14	 mov	 ecx, DWORD PTR [esi+20]
  00010	3b c1		 cmp	 eax, ecx
  00012	73 04		 jae	 SHORT $LN6@operator
$LN7@operator:

; 47   : 				return true;

  00014	b0 01		 mov	 al, 1
  00016	eb 0c		 jmp	 SHORT $LN4@operator
$LN6@operator:

; 48   : 			if( lhs.m_dwTextColor == rhs.m_dwTextColor )

  00018	75 08		 jne	 SHORT $LN1@operator

; 49   : 			{
; 50   : 				if( lhs.m_iMagicCode < rhs.m_iMagicCode )

  0001a	8b 42 10	 mov	 eax, DWORD PTR [edx+16]
  0001d	3b 46 10	 cmp	 eax, DWORD PTR [esi+16]

; 51   : 					return true;

  00020	7c f2		 jl	 SHORT $LN7@operator
$LN1@operator:

; 52   : 			}
; 53   : 			return false;

  00022	32 c0		 xor	 al, al
$LN4@operator:
  00024	5e		 pop	 esi

; 54   : 		}

  00025	5d		 pop	 ebp
  00026	c2 08 00	 ret	 8
??RSoldierSort@InvenFourExtraCompoundBuyWnd@@QBE_NABUNewShopPullDownItem@@0@Z ENDP ; InvenFourExtraCompoundBuyWnd::SoldierSort::operator()
_TEXT	ENDS
PUBLIC	?return1@@YAIXZ					; return1
; Function compile flags: /Ogsp
; File d:\lost saga for developer\youtube\tutorial\source\src\lsclient\stdafx.h
;	COMDAT ?return1@@YAIXZ
_TEXT	SEGMENT
?return1@@YAIXZ PROC					; return1, COMDAT

; 17   : 	__forceinline unsigned int return1() { __asm mov eax, 1 };

  00000	b8 01 00 00 00	 mov	 eax, 1
  00005	c3		 ret	 0
?return1@@YAIXZ ENDP					; return1
_TEXT	ENDS
PUBLIC	?return5@@YAIXZ					; return5
; Function compile flags: /Ogsp
;	COMDAT ?return5@@YAIXZ
_TEXT	SEGMENT
?return5@@YAIXZ PROC					; return5, COMDAT

; 18   : 	__forceinline unsigned int return5() { __asm mov eax, 5 };

  00000	b8 05 00 00 00	 mov	 eax, 5
  00005	c3		 ret	 0
?return5@@YAIXZ ENDP					; return5
_TEXT	ENDS
PUBLIC	?return8@@YAIXZ					; return8
; Function compile flags: /Ogsp
;	COMDAT ?return8@@YAIXZ
_TEXT	SEGMENT
?return8@@YAIXZ PROC					; return8, COMDAT

; 19   : 	__forceinline unsigned int return8() { __asm mov eax, 8 };

  00000	b8 08 00 00 00	 mov	 eax, 8
  00005	c3		 ret	 0
?return8@@YAIXZ ENDP					; return8
_TEXT	ENDS
PUBLIC	?return10@@YAIXZ				; return10
; Function compile flags: /Ogsp
;	COMDAT ?return10@@YAIXZ
_TEXT	SEGMENT
?return10@@YAIXZ PROC					; return10, COMDAT

; 21   : 	__forceinline unsigned int return10() { __asm mov eax, 10 };

  00000	b8 0a 00 00 00	 mov	 eax, 10			; 0000000aH
  00005	c3		 ret	 0
?return10@@YAIXZ ENDP					; return10
_TEXT	ENDS
PUBLIC	?return100@@YAIXZ				; return100
; Function compile flags: /Ogsp
;	COMDAT ?return100@@YAIXZ
_TEXT	SEGMENT
?return100@@YAIXZ PROC					; return100, COMDAT

; 25   : 	__forceinline unsigned int return100() { __asm mov eax, 100 };

  00000	b8 64 00 00 00	 mov	 eax, 100		; 00000064H
  00005	c3		 ret	 0
?return100@@YAIXZ ENDP					; return100
_TEXT	ENDS
PUBLIC	?GetSelectExtraItemSlot@SelectExtraItemBtn@@QBEHXZ ; SelectExtraItemBtn::GetSelectExtraItemSlot
; Function compile flags: /Ogsp
; File d:\lost saga for developer\youtube\tutorial\source\src\lsclient\gui\itemcompoundwnd.h
;	COMDAT ?GetSelectExtraItemSlot@SelectExtraItemBtn@@QBEHXZ
_TEXT	SEGMENT
?GetSelectExtraItemSlot@SelectExtraItemBtn@@QBEHXZ PROC	; SelectExtraItemBtn::GetSelectExtraItemSlot, COMDAT
; _this$ = ecx

; 76   : 	inline int GetSelectExtraItemSlot() const { return m_iCurSelectSlot; }

  00000	8b 81 fc 01 00
	00		 mov	 eax, DWORD PTR [ecx+508]
  00006	c3		 ret	 0
?GetSelectExtraItemSlot@SelectExtraItemBtn@@QBEHXZ ENDP	; SelectExtraItemBtn::GetSelectExtraItemSlot
_TEXT	ENDS
PUBLIC	?return1000000000@@YAIXZ			; return1000000000
; Function compile flags: /Ogsp
; File d:\lost saga for developer\youtube\tutorial\source\src\lsclient\stdafx.h
;	COMDAT ?return1000000000@@YAIXZ
_TEXT	SEGMENT
?return1000000000@@YAIXZ PROC				; return1000000000, COMDAT

; 30   : 	__forceinline unsigned int return1000000000() { __asm mov eax, 1000000000 };

  00000	b8 00 ca 9a 3b	 mov	 eax, 1000000000		; 3b9aca00H
  00005	c3		 ret	 0
?return1000000000@@YAIXZ ENDP				; return1000000000
_TEXT	ENDS
PUBLIC	?return_PI@@YAIXZ				; return_PI
; Function compile flags: /Ogsp
;	COMDAT ?return_PI@@YAIXZ
_TEXT	SEGMENT
?return_PI@@YAIXZ PROC					; return_PI, COMDAT

; 31   : 	__forceinline unsigned int return_PI() { __asm mov eax,   3141592654 };

  00000	b8 4e e6 40 bb	 mov	 eax, -1153374642	; bb40e64eH
  00005	c3		 ret	 0
?return_PI@@YAIXZ ENDP					; return_PI
_TEXT	ENDS
PUBLIC	??_C@_0BJ@HMBJNOAB@XML?1FourExtraHelpWnd?4xml?$AA@ ; `string'
PUBLIC	?iwm_create@InvenFourExtraCompoundBuyWnd@@UAEXXZ ; InvenFourExtraCompoundBuyWnd::iwm_create
EXTRN	__imp_?AddWnd@ioGUIManager@@QAEPAVioWnd@@PBDPAV2@@Z:PROC
EXTRN	?GetSingleton@ioSP2GUIManager@@SAAAV1@XZ:PROC	; ioSP2GUIManager::GetSingleton
;	COMDAT ??_C@_0BJ@HMBJNOAB@XML?1FourExtraHelpWnd?4xml?$AA@
; File d:\lost saga for developer\youtube\tutorial\source\src\lsclient\gui\invenfourextracompoundwnd.cpp
CONST	SEGMENT
??_C@_0BJ@HMBJNOAB@XML?1FourExtraHelpWnd?4xml?$AA@ DB 'XML/FourExtraHelpW'
	DB	'nd.xml', 00H				; `string'
; Function compile flags: /Ogsp
CONST	ENDS
;	COMDAT ?iwm_create@InvenFourExtraCompoundBuyWnd@@UAEXXZ
_TEXT	SEGMENT
?iwm_create@InvenFourExtraCompoundBuyWnd@@UAEXXZ PROC	; InvenFourExtraCompoundBuyWnd::iwm_create, COMDAT
; _this$ = ecx

; 90   : 	g_GUIMgr.AddWnd( "XML/FourExtraHelpWnd.xml", this );

  00000	51		 push	 ecx
  00001	68 00 00 00 00	 push	 OFFSET ??_C@_0BJ@HMBJNOAB@XML?1FourExtraHelpWnd?4xml?$AA@
  00006	e8 00 00 00 00	 call	 ?GetSingleton@ioSP2GUIManager@@SAAAV1@XZ ; ioSP2GUIManager::GetSingleton
  0000b	8b c8		 mov	 ecx, eax
  0000d	ff 15 00 00 00
	00		 call	 DWORD PTR __imp_?AddWnd@ioGUIManager@@QAEPAVioWnd@@PBDPAV2@@Z

; 91   : }

  00013	c3		 ret	 0
?iwm_create@InvenFourExtraCompoundBuyWnd@@UAEXXZ ENDP	; InvenFourExtraCompoundBuyWnd::iwm_create
_TEXT	ENDS
PUBLIC	?iwm_hide@InvenFourExtraCompoundBuyWnd@@UAEXXZ	; InvenFourExtraCompoundBuyWnd::iwm_hide
EXTRN	__imp_?HideChildWnd@ioWnd@@QAEXK_N@Z:PROC
; Function compile flags: /Ogsp
;	COMDAT ?iwm_hide@InvenFourExtraCompoundBuyWnd@@UAEXXZ
_TEXT	SEGMENT
?iwm_hide@InvenFourExtraCompoundBuyWnd@@UAEXXZ PROC	; InvenFourExtraCompoundBuyWnd::iwm_hide, COMDAT
; _this$ = ecx

; 146  : 	HideChildWnd( ID_SOLDIER_WND );

  00000	6a 00		 push	 0
  00002	68 e8 03 00 00	 push	 1000			; 000003e8H
  00007	ff 15 00 00 00
	00		 call	 DWORD PTR __imp_?HideChildWnd@ioWnd@@QAEXK_N@Z

; 147  : }

  0000d	c3		 ret	 0
?iwm_hide@InvenFourExtraCompoundBuyWnd@@UAEXXZ ENDP	; InvenFourExtraCompoundBuyWnd::iwm_hide
_TEXT	ENDS
PUBLIC	??1EXTRAITEMSLOT@@QAE@XZ			; EXTRAITEMSLOT::~EXTRAITEMSLOT
EXTRN	__imp_??1ioHashString@@QAE@XZ:PROC
EXTRN	___CxxFrameHandler3:PROC
EXTRN	@__security_check_cookie@4:PROC
EXTRN	__EH_epilog3:PROC
EXTRN	__EH_prolog3:PROC
;	COMDAT xdata$x
xdata$x	SEGMENT
__unwindtable$??1EXTRAITEMSLOT@@QAE@XZ DD 0ffffffffH
	DD	FLAT:__unwindfunclet$??1EXTRAITEMSLOT@@QAE@XZ$0
__ehfuncinfo$??1EXTRAITEMSLOT@@QAE@XZ DD 019930522H
	DD	01H
	DD	FLAT:__unwindtable$??1EXTRAITEMSLOT@@QAE@XZ
	DD	2 DUP(00H)
	DD	2 DUP(00H)
	DD	00H
	DD	01H
; Function compile flags: /Ogsp
xdata$x	ENDS
;	COMDAT ??1EXTRAITEMSLOT@@QAE@XZ
_TEXT	SEGMENT
_this$ = -16						; size = 4
__$EHRec$ = -12						; size = 12
??1EXTRAITEMSLOT@@QAE@XZ PROC				; EXTRAITEMSLOT::~EXTRAITEMSLOT, COMDAT
; _this$ = ecx
  00000	6a 04		 push	 4
  00002	b8 00 00 00 00	 mov	 eax, __ehhandler$??1EXTRAITEMSLOT@@QAE@XZ
  00007	e8 00 00 00 00	 call	 __EH_prolog3
  0000c	8b f9		 mov	 edi, ecx
  0000e	89 7d f0	 mov	 DWORD PTR _this$[ebp], edi
  00011	8b 35 00 00 00
	00		 mov	 esi, DWORD PTR __imp_??1ioHashString@@QAE@XZ
  00017	83 65 fc 00	 and	 DWORD PTR __$EHRec$[ebp+8], 0
  0001b	8d 4f 38	 lea	 ecx, DWORD PTR [edi+56]
  0001e	ff d6		 call	 esi
  00020	83 4d fc ff	 or	 DWORD PTR __$EHRec$[ebp+8], -1
  00024	8d 4f 28	 lea	 ecx, DWORD PTR [edi+40]
  00027	ff d6		 call	 esi
  00029	e8 00 00 00 00	 call	 __EH_epilog3
  0002e	c3		 ret	 0
_TEXT	ENDS
;	COMDAT text$x
text$x	SEGMENT
__unwindfunclet$??1EXTRAITEMSLOT@@QAE@XZ$0:
  00000	8b 4d f0	 mov	 ecx, DWORD PTR _this$[ebp]
  00003	83 c1 28	 add	 ecx, 40			; 00000028H
  00006	ff 25 00 00 00
	00		 jmp	 DWORD PTR __imp_??1ioHashString@@QAE@XZ
__ehhandler$??1EXTRAITEMSLOT@@QAE@XZ:
  0000c	8b 54 24 08	 mov	 edx, DWORD PTR [esp+8]
  00010	8d 42 0c	 lea	 eax, DWORD PTR [edx+12]
  00013	8b 4a ec	 mov	 ecx, DWORD PTR [edx-20]
  00016	33 c8		 xor	 ecx, eax
  00018	e8 00 00 00 00	 call	 @__security_check_cookie@4
  0001d	b8 00 00 00 00	 mov	 eax, OFFSET __ehfuncinfo$??1EXTRAITEMSLOT@@QAE@XZ
  00022	e9 00 00 00 00	 jmp	 ___CxxFrameHandler3
text$x	ENDS
??1EXTRAITEMSLOT@@QAE@XZ ENDP				; EXTRAITEMSLOT::~EXTRAITEMSLOT
PUBLIC	??1NewShopPullDownItem@@QAE@XZ			; NewShopPullDownItem::~NewShopPullDownItem
;	COMDAT xdata$x
xdata$x	SEGMENT
__unwindtable$??1NewShopPullDownItem@@QAE@XZ DD 0ffffffffH
	DD	FLAT:__unwindfunclet$??1NewShopPullDownItem@@QAE@XZ$0
	DD	00H
	DD	FLAT:__unwindfunclet$??1NewShopPullDownItem@@QAE@XZ$1
__ehfuncinfo$??1NewShopPullDownItem@@QAE@XZ DD 019930522H
	DD	02H
	DD	FLAT:__unwindtable$??1NewShopPullDownItem@@QAE@XZ
	DD	2 DUP(00H)
	DD	2 DUP(00H)
	DD	00H
	DD	01H
; Function compile flags: /Ogsp
xdata$x	ENDS
;	COMDAT ??1NewShopPullDownItem@@QAE@XZ
_TEXT	SEGMENT
_this$ = -16						; size = 4
__$EHRec$ = -12						; size = 12
??1NewShopPullDownItem@@QAE@XZ PROC			; NewShopPullDownItem::~NewShopPullDownItem, COMDAT
; _this$ = ecx
  00000	6a 04		 push	 4
  00002	b8 00 00 00 00	 mov	 eax, __ehhandler$??1NewShopPullDownItem@@QAE@XZ
  00007	e8 00 00 00 00	 call	 __EH_prolog3
  0000c	8b f9		 mov	 edi, ecx
  0000e	89 7d f0	 mov	 DWORD PTR _this$[ebp], edi
  00011	8b 35 00 00 00
	00		 mov	 esi, DWORD PTR __imp_??1ioHashString@@QAE@XZ
  00017	8d 4f 3c	 lea	 ecx, DWORD PTR [edi+60]
  0001a	c7 45 fc 01 00
	00 00		 mov	 DWORD PTR __$EHRec$[ebp+8], 1
  00021	ff d6		 call	 esi
  00023	8d 4f 24	 lea	 ecx, DWORD PTR [edi+36]
  00026	c6 45 fc 00	 mov	 BYTE PTR __$EHRec$[ebp+8], 0
  0002a	ff d6		 call	 esi
  0002c	83 4d fc ff	 or	 DWORD PTR __$EHRec$[ebp+8], -1
  00030	8b cf		 mov	 ecx, edi
  00032	ff d6		 call	 esi
  00034	e8 00 00 00 00	 call	 __EH_epilog3
  00039	c3		 ret	 0
_TEXT	ENDS
;	COMDAT text$x
text$x	SEGMENT
__unwindfunclet$??1NewShopPullDownItem@@QAE@XZ$0:
  00000	8b 4d f0	 mov	 ecx, DWORD PTR _this$[ebp]
  00003	ff 25 00 00 00
	00		 jmp	 DWORD PTR __imp_??1ioHashString@@QAE@XZ
__unwindfunclet$??1NewShopPullDownItem@@QAE@XZ$1:
  00009	8b 4d f0	 mov	 ecx, DWORD PTR _this$[ebp]
  0000c	83 c1 24	 add	 ecx, 36			; 00000024H
  0000f	ff 25 00 00 00
	00		 jmp	 DWORD PTR __imp_??1ioHashString@@QAE@XZ
__ehhandler$??1NewShopPullDownItem@@QAE@XZ:
  00015	8b 54 24 08	 mov	 edx, DWORD PTR [esp+8]
  00019	8d 42 0c	 lea	 eax, DWORD PTR [edx+12]
  0001c	8b 4a ec	 mov	 ecx, DWORD PTR [edx-20]
  0001f	33 c8		 xor	 ecx, eax
  00021	e8 00 00 00 00	 call	 @__security_check_cookie@4
  00026	b8 00 00 00 00	 mov	 eax, OFFSET __ehfuncinfo$??1NewShopPullDownItem@@QAE@XZ
  0002b	e9 00 00 00 00	 jmp	 ___CxxFrameHandler3
text$x	ENDS
??1NewShopPullDownItem@@QAE@XZ ENDP			; NewShopPullDownItem::~NewShopPullDownItem
PUBLIC	_sinf
EXTRN	__fltused:DWORD
EXTRN	__CIsin:PROC
; Function compile flags: /Ogsp
; File c:\program files (x86)\microsoft visual studio 10.0\vc\include\math.h
;	COMDAT _sinf
_TEXT	SEGMENT
tv69 = 8						; size = 4
__X$ = 8						; size = 4
_sinf	PROC						; COMDAT

; 430  :         {return ((float)sin((double)_X)); }

  00000	55		 push	 ebp
  00001	8b ec		 mov	 ebp, esp
  00003	d9 45 08	 fld	 DWORD PTR __X$[ebp]
  00006	e8 00 00 00 00	 call	 __CIsin
  0000b	d9 5d 08	 fstp	 DWORD PTR tv69[ebp]
  0000e	d9 45 08	 fld	 DWORD PTR tv69[ebp]
  00011	5d		 pop	 ebp
  00012	c3		 ret	 0
_sinf	ENDP
_TEXT	ENDS
PUBLIC	?sin@@YAMM@Z					; sin
; Function compile flags: /Ogsp
;	COMDAT ?sin@@YAMM@Z
_TEXT	SEGMENT
tv73 = 8						; size = 4
__X$ = 8						; size = 4
?sin@@YAMM@Z PROC					; sin, COMDAT

; 538  :         {return (sinf(_X)); }

  00000	55		 push	 ebp
  00001	8b ec		 mov	 ebp, esp
  00003	d9 45 08	 fld	 DWORD PTR __X$[ebp]
  00006	e8 00 00 00 00	 call	 __CIsin
  0000b	d9 5d 08	 fstp	 DWORD PTR tv73[ebp]
  0000e	d9 45 08	 fld	 DWORD PTR tv73[ebp]
  00011	5d		 pop	 ebp
  00012	c3		 ret	 0
?sin@@YAMM@Z ENDP					; sin
_TEXT	ENDS
PUBLIC	??_C@_00CNPNBAHC@?$AA@				; `string'
PUBLIC	?SetBtnTitle@InvenFourExtraCompoundBuyWnd@@IAEXH@Z ; InvenFourExtraCompoundBuyWnd::SetBtnTitle
EXTRN	__imp_?SetTitleColor@ioWnd@@QAEXKK@Z:PROC
EXTRN	?GetGradeTextColor@ioUIImageRenderManager@@QAEKH@Z:PROC ; ioUIImageRenderManager::GetGradeTextColor
EXTRN	?GetPowerUpGradeType@ioUIImageRenderManager@@QAEHH@Z:PROC ; ioUIImageRenderManager::GetPowerUpGradeType
EXTRN	?GetSingleton@ioUIImageRenderManager@@SAAAV1@XZ:PROC ; ioUIImageRenderManager::GetSingleton
EXTRN	__imp_?SetTitleText@ioWnd@@QAEXPBD0H@Z:PROC
EXTRN	?GetClassNameA@ioMyInfo@@QAEPBDHH@Z:PROC	; ioMyInfo::GetClassNameA
EXTRN	?GetSingleton@ioMyInfo@@SAAAV1@XZ:PROC		; ioMyInfo::GetSingleton
EXTRN	__imp_?FindChildWnd@ioWnd@@QAEPAV1@K@Z:PROC
;	COMDAT ??_C@_00CNPNBAHC@?$AA@
; File d:\lost saga for developer\youtube\tutorial\source\src\lsclient\gui\invenfourextracompoundwnd.cpp
CONST	SEGMENT
??_C@_00CNPNBAHC@?$AA@ DB 00H				; `string'
; Function compile flags: /Ogsp
CONST	ENDS
;	COMDAT ?SetBtnTitle@InvenFourExtraCompoundBuyWnd@@IAEXH@Z
_TEXT	SEGMENT
_iClassType$ = 8					; size = 4
?SetBtnTitle@InvenFourExtraCompoundBuyWnd@@IAEXH@Z PROC	; InvenFourExtraCompoundBuyWnd::SetBtnTitle, COMDAT
; _this$ = ecx

; 344  : {

  00000	55		 push	 ebp
  00001	8b ec		 mov	 ebp, esp
  00003	56		 push	 esi

; 345  : 	ioWnd *pWnd = FindChildWnd( ID_CHAR_SELECT_BTN );

  00004	6a 02		 push	 2
  00006	ff 15 00 00 00
	00		 call	 DWORD PTR __imp_?FindChildWnd@ioWnd@@QAEPAV1@K@Z
  0000c	8b f0		 mov	 esi, eax

; 346  : 	if( !pWnd )

  0000e	85 f6		 test	 esi, esi
  00010	74 48		 je	 SHORT $LN2@SetBtnTitl

; 347  : 		return;
; 348  : 
; 349  : 	pWnd->SetTitleText( g_MyInfo.GetClassName( iClassType ) );	

  00012	6a 00		 push	 0
  00014	68 00 00 00 00	 push	 OFFSET ??_C@_00CNPNBAHC@?$AA@
  00019	6a 00		 push	 0
  0001b	ff 75 08	 push	 DWORD PTR _iClassType$[ebp]
  0001e	e8 00 00 00 00	 call	 ?GetSingleton@ioMyInfo@@SAAAV1@XZ ; ioMyInfo::GetSingleton
  00023	8b c8		 mov	 ecx, eax
  00025	e8 00 00 00 00	 call	 ?GetClassNameA@ioMyInfo@@QAEPBDHH@Z ; ioMyInfo::GetClassNameA
  0002a	50		 push	 eax
  0002b	8b ce		 mov	 ecx, esi
  0002d	ff 15 00 00 00
	00		 call	 DWORD PTR __imp_?SetTitleText@ioWnd@@QAEXPBD0H@Z

; 350  : 	pWnd->SetTitleColor( g_UIImageRenderMgr.GetGradeTextColor( g_UIImageRenderMgr.GetPowerUpGradeType( iClassType ) ), 0 );

  00033	6a 00		 push	 0
  00035	ff 75 08	 push	 DWORD PTR _iClassType$[ebp]
  00038	e8 00 00 00 00	 call	 ?GetSingleton@ioUIImageRenderManager@@SAAAV1@XZ ; ioUIImageRenderManager::GetSingleton
  0003d	8b c8		 mov	 ecx, eax
  0003f	e8 00 00 00 00	 call	 ?GetPowerUpGradeType@ioUIImageRenderManager@@QAEHH@Z ; ioUIImageRenderManager::GetPowerUpGradeType
  00044	50		 push	 eax
  00045	e8 00 00 00 00	 call	 ?GetSingleton@ioUIImageRenderManager@@SAAAV1@XZ ; ioUIImageRenderManager::GetSingleton
  0004a	8b c8		 mov	 ecx, eax
  0004c	e8 00 00 00 00	 call	 ?GetGradeTextColor@ioUIImageRenderManager@@QAEKH@Z ; ioUIImageRenderManager::GetGradeTextColor
  00051	50		 push	 eax
  00052	8b ce		 mov	 ecx, esi
  00054	ff 15 00 00 00
	00		 call	 DWORD PTR __imp_?SetTitleColor@ioWnd@@QAEXKK@Z
$LN2@SetBtnTitl:
  0005a	5e		 pop	 esi

; 351  : }

  0005b	5d		 pop	 ebp
  0005c	c2 04 00	 ret	 4
?SetBtnTitle@InvenFourExtraCompoundBuyWnd@@IAEXH@Z ENDP	; InvenFourExtraCompoundBuyWnd::SetBtnTitle
_TEXT	ENDS
PUBLIC	??_7bad_alloc@std@@6B@				; std::bad_alloc::`vftable'
PUBLIC	??0bad_alloc@std@@QAE@PBD@Z			; std::bad_alloc::bad_alloc
PUBLIC	??_R4bad_alloc@std@@6B@				; std::bad_alloc::`RTTI Complete Object Locator'
PUBLIC	??_R0?AVbad_alloc@std@@@8			; std::bad_alloc `RTTI Type Descriptor'
PUBLIC	??_R3bad_alloc@std@@8				; std::bad_alloc::`RTTI Class Hierarchy Descriptor'
PUBLIC	??_R2bad_alloc@std@@8				; std::bad_alloc::`RTTI Base Class Array'
PUBLIC	??_R1A@?0A@EA@bad_alloc@std@@8			; std::bad_alloc::`RTTI Base Class Descriptor at (0,-1,0,64)'
PUBLIC	??_R1A@?0A@EA@exception@std@@8			; std::exception::`RTTI Base Class Descriptor at (0,-1,0,64)'
PUBLIC	??_R0?AVexception@std@@@8			; std::exception `RTTI Type Descriptor'
PUBLIC	??_R3exception@std@@8				; std::exception::`RTTI Class Hierarchy Descriptor'
PUBLIC	??_R2exception@std@@8				; std::exception::`RTTI Base Class Array'
EXTRN	__imp_??0exception@std@@QAE@ABQBD@Z:PROC
EXTRN	??_7type_info@@6B@:QWORD			; type_info::`vftable'
EXTRN	??_Ebad_alloc@std@@UAEPAXI@Z:PROC		; std::bad_alloc::`vector deleting destructor'
EXTRN	?what@exception@std@@UBEPBDXZ:PROC		; std::exception::what
;	COMDAT ??_R2exception@std@@8
; File c:\program files (x86)\microsoft visual studio 10.0\vc\include\exception
rdata$r	SEGMENT
??_R2exception@std@@8 DD FLAT:??_R1A@?0A@EA@exception@std@@8 ; std::exception::`RTTI Base Class Array'
rdata$r	ENDS
;	COMDAT ??_R3exception@std@@8
rdata$r	SEGMENT
??_R3exception@std@@8 DD 00H				; std::exception::`RTTI Class Hierarchy Descriptor'
	DD	00H
	DD	01H
	DD	FLAT:??_R2exception@std@@8
rdata$r	ENDS
;	COMDAT ??_R0?AVexception@std@@@8
_DATA	SEGMENT
??_R0?AVexception@std@@@8 DD FLAT:??_7type_info@@6B@	; std::exception `RTTI Type Descriptor'
	DD	00H
	DB	'.?AVexception@std@@', 00H
_DATA	ENDS
;	COMDAT ??_R1A@?0A@EA@exception@std@@8
rdata$r	SEGMENT
??_R1A@?0A@EA@exception@std@@8 DD FLAT:??_R0?AVexception@std@@@8 ; std::exception::`RTTI Base Class Descriptor at (0,-1,0,64)'
	DD	00H
	DD	00H
	DD	0ffffffffH
	DD	00H
	DD	040H
	DD	FLAT:??_R3exception@std@@8
rdata$r	ENDS
;	COMDAT ??_R1A@?0A@EA@bad_alloc@std@@8
rdata$r	SEGMENT
??_R1A@?0A@EA@bad_alloc@std@@8 DD FLAT:??_R0?AVbad_alloc@std@@@8 ; std::bad_alloc::`RTTI Base Class Descriptor at (0,-1,0,64)'
	DD	01H
	DD	00H
	DD	0ffffffffH
	DD	00H
	DD	040H
	DD	FLAT:??_R3bad_alloc@std@@8
rdata$r	ENDS
;	COMDAT ??_R2bad_alloc@std@@8
rdata$r	SEGMENT
??_R2bad_alloc@std@@8 DD FLAT:??_R1A@?0A@EA@bad_alloc@std@@8 ; std::bad_alloc::`RTTI Base Class Array'
	DD	FLAT:??_R1A@?0A@EA@exception@std@@8
rdata$r	ENDS
;	COMDAT ??_R3bad_alloc@std@@8
rdata$r	SEGMENT
??_R3bad_alloc@std@@8 DD 00H				; std::bad_alloc::`RTTI Class Hierarchy Descriptor'
	DD	00H
	DD	02H
	DD	FLAT:??_R2bad_alloc@std@@8
rdata$r	ENDS
;	COMDAT ??_R0?AVbad_alloc@std@@@8
_DATA	SEGMENT
??_R0?AVbad_alloc@std@@@8 DD FLAT:??_7type_info@@6B@	; std::bad_alloc `RTTI Type Descriptor'
	DD	00H
	DB	'.?AVbad_alloc@std@@', 00H
_DATA	ENDS
;	COMDAT ??_R4bad_alloc@std@@6B@
rdata$r	SEGMENT
??_R4bad_alloc@std@@6B@ DD 00H				; std::bad_alloc::`RTTI Complete Object Locator'
	DD	00H
	DD	00H
	DD	FLAT:??_R0?AVbad_alloc@std@@@8
	DD	FLAT:??_R3bad_alloc@std@@8
rdata$r	ENDS
;	COMDAT ??_7bad_alloc@std@@6B@
CONST	SEGMENT
??_7bad_alloc@std@@6B@ DD FLAT:??_R4bad_alloc@std@@6B@	; std::bad_alloc::`vftable'
	DD	FLAT:??_Ebad_alloc@std@@UAEPAXI@Z
	DD	FLAT:?what@exception@std@@UBEPBDXZ
; Function compile flags: /Ogsp
CONST	ENDS
;	COMDAT ??0bad_alloc@std@@QAE@PBD@Z
_TEXT	SEGMENT
__Message$ = 8						; size = 4
??0bad_alloc@std@@QAE@PBD@Z PROC			; std::bad_alloc::bad_alloc, COMDAT
; _this$ = ecx

; 345  : 		{	// construct from message string

  00000	55		 push	 ebp
  00001	8b ec		 mov	 ebp, esp
  00003	56		 push	 esi
  00004	8d 45 08	 lea	 eax, DWORD PTR __Message$[ebp]
  00007	50		 push	 eax
  00008	8b f1		 mov	 esi, ecx
  0000a	ff 15 00 00 00
	00		 call	 DWORD PTR __imp_??0exception@std@@QAE@ABQBD@Z
  00010	c7 06 00 00 00
	00		 mov	 DWORD PTR [esi], OFFSET ??_7bad_alloc@std@@6B@

; 346  : 		}

  00016	8b c6		 mov	 eax, esi
  00018	5e		 pop	 esi
  00019	5d		 pop	 ebp
  0001a	c2 04 00	 ret	 4
??0bad_alloc@std@@QAE@PBD@Z ENDP			; std::bad_alloc::bad_alloc
_TEXT	ENDS
PUBLIC	??1bad_alloc@std@@UAE@XZ			; std::bad_alloc::~bad_alloc
EXTRN	__imp_??1exception@std@@UAE@XZ:PROC
; Function compile flags: /Ogsp
;	COMDAT ??1bad_alloc@std@@UAE@XZ
_TEXT	SEGMENT
??1bad_alloc@std@@UAE@XZ PROC				; std::bad_alloc::~bad_alloc, COMDAT
; _this$ = ecx

; 354  : 		{	// destroy the object

  00000	c7 01 00 00 00
	00		 mov	 DWORD PTR [ecx], OFFSET ??_7bad_alloc@std@@6B@

; 355  : 		}

  00006	ff 25 00 00 00
	00		 jmp	 DWORD PTR __imp_??1exception@std@@UAE@XZ
??1bad_alloc@std@@UAE@XZ ENDP				; std::bad_alloc::~bad_alloc
_TEXT	ENDS
EXTRN	??3@YAXPAX@Z:PROC				; operator delete
; Function compile flags: /Ogsp
;	COMDAT ??_Gbad_alloc@std@@UAEPAXI@Z
_TEXT	SEGMENT
___flags$ = 8						; size = 4
??_Gbad_alloc@std@@UAEPAXI@Z PROC			; std::bad_alloc::`scalar deleting destructor', COMDAT
; _this$ = ecx
  00000	55		 push	 ebp
  00001	8b ec		 mov	 ebp, esp
  00003	56		 push	 esi
  00004	8b f1		 mov	 esi, ecx
  00006	c7 06 00 00 00
	00		 mov	 DWORD PTR [esi], OFFSET ??_7bad_alloc@std@@6B@
  0000c	ff 15 00 00 00
	00		 call	 DWORD PTR __imp_??1exception@std@@UAE@XZ
  00012	f6 45 08 01	 test	 BYTE PTR ___flags$[ebp], 1
  00016	74 07		 je	 SHORT $LN1@scalar
  00018	56		 push	 esi
  00019	e8 00 00 00 00	 call	 ??3@YAXPAX@Z		; operator delete
  0001e	59		 pop	 ecx
$LN1@scalar:
  0001f	8b c6		 mov	 eax, esi
  00021	5e		 pop	 esi
  00022	5d		 pop	 ebp
  00023	c2 04 00	 ret	 4
??_Gbad_alloc@std@@UAEPAXI@Z ENDP			; std::bad_alloc::`scalar deleting destructor'
_TEXT	ENDS
PUBLIC	?SetEtcItemType@InvenFourExtraCompoundBuyWnd@@QAEXK@Z ; InvenFourExtraCompoundBuyWnd::SetEtcItemType
; Function compile flags: /Ogsp
; File d:\lost saga for developer\youtube\tutorial\source\src\lsclient\gui\invenfourextracompoundwnd.cpp
;	COMDAT ?SetEtcItemType@InvenFourExtraCompoundBuyWnd@@QAEXK@Z
_TEXT	SEGMENT
_dwEtcItemType$ = 8					; size = 4
?SetEtcItemType@InvenFourExtraCompoundBuyWnd@@QAEXK@Z PROC ; InvenFourExtraCompoundBuyWnd::SetEtcItemType, COMDAT
; _this$ = ecx

; 502  : {

  00000	55		 push	 ebp
  00001	8b ec		 mov	 ebp, esp

; 503  : 	m_dwEtcItemType = dwEtcItemType;

  00003	8b 45 08	 mov	 eax, DWORD PTR _dwEtcItemType$[ebp]
  00006	89 81 60 01 00
	00		 mov	 DWORD PTR [ecx+352], eax

; 504  : }

  0000c	5d		 pop	 ebp
  0000d	c2 04 00	 ret	 4
?SetEtcItemType@InvenFourExtraCompoundBuyWnd@@QAEXK@Z ENDP ; InvenFourExtraCompoundBuyWnd::SetEtcItemType
_TEXT	ENDS
PUBLIC	??_R0?AVioWnd@@@8				; ioWnd `RTTI Type Descriptor'
PUBLIC	??_R0?AVNewShopHelpWnd@@@8			; NewShopHelpWnd `RTTI Type Descriptor'
PUBLIC	__real@3f847ae140000000
PUBLIC	__real@4f800000
PUBLIC	?OnProcess@InvenFourExtraCompoundBuyWnd@@MAEXM@Z ; InvenFourExtraCompoundBuyWnd::OnProcess
EXTRN	?SetEquip@NewShopHelpWnd@@QAEX_N00@Z:PROC	; NewShopHelpWnd::SetEquip
EXTRN	__imp_?GetLoopSec@ioFrameTimer@@QBEKXZ:PROC
EXTRN	__imp_?GetSingleton@ioFrameTimer@@SAAAV1@XZ:PROC
EXTRN	__imp_?IsShow@ioWnd@@QBE_NXZ:PROC
EXTRN	__imp_?OnProcess@ioWnd@@MAEXM@Z:PROC
EXTRN	__ftol2:PROC
EXTRN	___RTDynamicCast:PROC
;	COMDAT ??_R0?AVioWnd@@@8
; File c:\program files (x86)\microsoft visual studio 10.0\vc\include\math.h
_DATA	SEGMENT
??_R0?AVioWnd@@@8 DD FLAT:??_7type_info@@6B@		; ioWnd `RTTI Type Descriptor'
	DD	00H
	DB	'.?AVioWnd@@', 00H
_DATA	ENDS
;	COMDAT ??_R0?AVNewShopHelpWnd@@@8
_DATA	SEGMENT
??_R0?AVNewShopHelpWnd@@@8 DD FLAT:??_7type_info@@6B@	; NewShopHelpWnd `RTTI Type Descriptor'
	DD	00H
	DB	'.?AVNewShopHelpWnd@@', 00H
_DATA	ENDS
;	COMDAT __real@3f847ae140000000
CONST	SEGMENT
__real@3f847ae140000000 DQ 03f847ae140000000r	; 0.01
CONST	ENDS
;	COMDAT __real@4f800000
CONST	SEGMENT
__real@4f800000 DD 04f800000r			; 4.29497e+009
; Function compile flags: /Ogsp
; File d:\lost saga for developer\youtube\tutorial\source\src\lsclient\gui\invenfourextracompoundwnd.cpp
CONST	ENDS
;	COMDAT ?OnProcess@InvenFourExtraCompoundBuyWnd@@MAEXM@Z
_TEXT	SEGMENT
tv763 = -24						; size = 4
tv752 = -24						; size = 4
tv748 = -24						; size = 4
tv744 = -24						; size = 4
tv740 = -24						; size = 4
tv737 = -24						; size = 4
tv733 = -24						; size = 4
tv729 = -24						; size = 4
tv726 = -24						; size = 4
tv722 = -24						; size = 4
tv720 = -24						; size = 4
tv713 = -24						; size = 4
$T515282 = -24						; size = 4
$T515244 = -24						; size = 4
tv799 = -20						; size = 4
tv795 = -20						; size = 4
tv791 = -20						; size = 4
tv787 = -20						; size = 4
tv783 = -20						; size = 4
tv781 = -20						; size = 4
tv774 = -20						; size = 4
tv768 = -20						; size = 4
$T515286 = -20						; size = 4
$T515252 = -20						; size = 4
tv507 = -16						; size = 8
tv810 = -12						; size = 4
tv806 = -12						; size = 4
tv802 = -12						; size = 4
tv754 = -12						; size = 4
$T515260 = -12						; size = 4
tv814 = -8						; size = 4
$T515256 = -8						; size = 4
_dwCurTime$ = -4					; size = 4
_i$510511 = 8						; size = 4
_fTimePerSec$ = 8					; size = 4
?OnProcess@InvenFourExtraCompoundBuyWnd@@MAEXM@Z PROC	; InvenFourExtraCompoundBuyWnd::OnProcess, COMDAT
; _this$ = ecx

; 507  : {

  00000	55		 push	 ebp
  00001	8b ec		 mov	 ebp, esp

; 508  : 	ioWnd::OnProcess( fTimePerSec );

  00003	f3 0f 10 45 08	 movss	 xmm0, DWORD PTR _fTimePerSec$[ebp]
  00008	83 ec 18	 sub	 esp, 24			; 00000018H
  0000b	56		 push	 esi
  0000c	51		 push	 ecx
  0000d	8b f1		 mov	 esi, ecx
  0000f	f3 0f 11 04 24	 movss	 DWORD PTR [esp], xmm0
  00014	ff 15 00 00 00
	00		 call	 DWORD PTR __imp_?OnProcess@ioWnd@@MAEXM@Z

; 509  : 
; 510  : 	if( !IsShow() ) return;

  0001a	8b ce		 mov	 ecx, esi
  0001c	ff 15 00 00 00
	00		 call	 DWORD PTR __imp_?IsShow@ioWnd@@QBE_NXZ
  00022	84 c0		 test	 al, al
  00024	0f 84 dc 02 00
	00		 je	 $LN2@OnProcess

; 511  : 
; 512  : 	DWORD dwCurTime = FRAMEGETTIME();

  0002a	53		 push	 ebx
  0002b	57		 push	 edi
  0002c	ff 15 00 00 00
	00		 call	 DWORD PTR __imp_?GetSingleton@ioFrameTimer@@SAAAV1@XZ
  00032	8b c8		 mov	 ecx, eax
  00034	ff 15 00 00 00
	00		 call	 DWORD PTR __imp_?GetLoopSec@ioFrameTimer@@QBEKXZ
  0003a	8b c8		 mov	 ecx, eax

; 513  : 
; 514  : 	// back ani
; 515  : 	enum { SECOND_BACK_ANI_DELAY = 1000, };
; 516  : 	if( m_dwBackAniCheckTime[0] == 0 && m_dwBackAniCheckTime[1] == 0 )

  0003c	8d be 74 01 00
	00		 lea	 edi, DWORD PTR [esi+372]
  00042	8b 07		 mov	 eax, DWORD PTR [edi]
  00044	89 4d fc	 mov	 DWORD PTR _dwCurTime$[ebp], ecx
  00047	85 c0		 test	 eax, eax
  00049	75 0c		 jne	 SHORT $LN71@OnProcess
  0004b	39 86 78 01 00
	00		 cmp	 DWORD PTR [esi+376], eax

; 517  : 	{
; 518  : 		m_dwBackAniCheckTime[0] = dwCurTime;

  00051	74 68		 je	 SHORT $LN72@OnProcess

; 519  : 	}
; 520  : 	else if( m_dwBackAniCheckTime[0] != 0 && dwCurTime - m_dwBackAniCheckTime[0] > m_dwBackAniTime )

  00053	85 c0		 test	 eax, eax
  00055	74 32		 je	 SHORT $LN50@OnProcess
$LN71@OnProcess:
  00057	8b d1		 mov	 edx, ecx
  00059	2b d0		 sub	 edx, eax
  0005b	3b 96 70 01 00
	00		 cmp	 edx, DWORD PTR [esi+368]
  00061	76 05		 jbe	 SHORT $LN14@OnProcess

; 521  : 	{
; 522  : 		m_dwBackAniCheckTime[0] = 0;

  00063	83 27 00	 and	 DWORD PTR [edi], 0
  00066	eb 55		 jmp	 SHORT $LN52@OnProcess
$LN14@OnProcess:

; 523  : 	}
; 524  : 	else if(  m_dwBackAniCheckTime[0] != 0 && m_dwBackAniCheckTime[1] == 0 && dwCurTime - m_dwBackAniCheckTime[0] > SECOND_BACK_ANI_DELAY )

  00068	85 c0		 test	 eax, eax
  0006a	74 1d		 je	 SHORT $LN50@OnProcess
  0006c	83 be 78 01 00
	00 00		 cmp	 DWORD PTR [esi+376], 0
  00073	75 14		 jne	 SHORT $LN50@OnProcess
  00075	8b d9		 mov	 ebx, ecx
  00077	2b d8		 sub	 ebx, eax
  00079	81 fb e8 03 00
	00		 cmp	 ebx, 1000		; 000003e8H
  0007f	76 08		 jbe	 SHORT $LN50@OnProcess

; 525  : 	{
; 526  : 		m_dwBackAniCheckTime[1] = dwCurTime;

  00081	89 8e 78 01 00
	00		 mov	 DWORD PTR [esi+376], ecx
  00087	eb 34		 jmp	 SHORT $LN52@OnProcess
$LN50@OnProcess:

; 527  : 	}
; 528  : 	else if( m_dwBackAniCheckTime[1] != 0 && dwCurTime - m_dwBackAniCheckTime[1] > m_dwBackAniTime )

  00089	8b 9e 78 01 00
	00		 mov	 ebx, DWORD PTR [esi+376]
  0008f	85 db		 test	 ebx, ebx
  00091	74 2a		 je	 SHORT $LN52@OnProcess
  00093	8b d1		 mov	 edx, ecx
  00095	2b d3		 sub	 edx, ebx
  00097	3b 96 70 01 00
	00		 cmp	 edx, DWORD PTR [esi+368]
  0009d	76 09		 jbe	 SHORT $LN49@OnProcess

; 529  : 	{
; 530  : 		m_dwBackAniCheckTime[1] = 0;

  0009f	83 a6 78 01 00
	00 00		 and	 DWORD PTR [esi+376], 0
  000a6	eb 15		 jmp	 SHORT $LN52@OnProcess
$LN49@OnProcess:

; 531  : 	}	
; 532  : 	else if( m_dwBackAniCheckTime[1] != 0 && m_dwBackAniCheckTime[0] == 0 && dwCurTime - m_dwBackAniCheckTime[1] > SECOND_BACK_ANI_DELAY  )

  000a8	85 db		 test	 ebx, ebx
  000aa	74 11		 je	 SHORT $LN52@OnProcess
  000ac	85 c0		 test	 eax, eax
  000ae	75 0d		 jne	 SHORT $LN52@OnProcess
  000b0	8b c1		 mov	 eax, ecx
  000b2	2b c3		 sub	 eax, ebx
  000b4	3d e8 03 00 00	 cmp	 eax, 1000		; 000003e8H
  000b9	76 02		 jbe	 SHORT $LN52@OnProcess
$LN72@OnProcess:

; 533  : 	{
; 534  : 		m_dwBackAniCheckTime[0] = dwCurTime;

  000bb	89 0f		 mov	 DWORD PTR [edi], ecx
$LN52@OnProcess:

; 535  : 	}
; 536  : 	
; 537  : 	if( m_dwBackAniTime != 0 )

  000bd	83 be 70 01 00
	00 00		 cmp	 DWORD PTR [esi+368], 0
  000c4	0f 84 eb 01 00
	00		 je	 $LN4@OnProcess

; 538  : 	{
; 539  : 		for (int i = 0; i < MAX_BACK_EFFECT ; i++)

  000ca	83 65 08 00	 and	 DWORD PTR _i$510511[ebp], 0
$LL53@OnProcess:

; 540  : 		{
; 541  : 			if( m_dwBackAniCheckTime[i] == 0 )

  000ce	83 3f 00	 cmp	 DWORD PTR [edi], 0
  000d1	0f 84 ce 01 00
	00		 je	 $LN5@OnProcess

; 542  : 				continue;
; 543  : 			m_fBackAniScale[i]  = FLOAT1 + ( ( sin( (float)( FLOAT_PI * FLOAT05*(dwCurTime - m_dwBackAniCheckTime[i])) / (float)m_dwBackAniTime ) * (float)m_dwBackAniSizePerGap ) * 0.01f ); // FLOAT1->1.25f 사이즈

  000d7	b8 01 00 00 00	 mov	 eax, 1
  000dc	89 45 e8	 mov	 DWORD PTR $T515244[ebp], eax
  000df	b8 4e e6 40 bb	 mov	 eax, -1153374642	; bb40e64eH
  000e4	8b d0		 mov	 edx, eax
  000e6	b8 00 ca 9a 3b	 mov	 eax, 1000000000		; 3b9aca00H
  000eb	89 45 ec	 mov	 DWORD PTR $T515252[ebp], eax
  000ee	b8 05 00 00 00	 mov	 eax, 5
  000f3	89 45 f8	 mov	 DWORD PTR $T515256[ebp], eax
  000f6	b8 0a 00 00 00	 mov	 eax, 10			; 0000000aH
  000fb	db 45 f8	 fild	 DWORD PTR $T515256[ebp]
  000fe	89 45 f4	 mov	 DWORD PTR $T515260[ebp], eax
  00101	8b 45 f8	 mov	 eax, DWORD PTR $T515256[ebp]
  00104	85 c0		 test	 eax, eax
  00106	79 06		 jns	 SHORT $LN55@OnProcess
  00108	d8 05 00 00 00
	00		 fadd	 DWORD PTR __real@4f800000
$LN55@OnProcess:
  0010e	8b 45 f4	 mov	 eax, DWORD PTR $T515260[ebp]
  00111	db 45 f4	 fild	 DWORD PTR $T515260[ebp]
  00114	85 c0		 test	 eax, eax
  00116	79 06		 jns	 SHORT $LN56@OnProcess
  00118	d8 05 00 00 00
	00		 fadd	 DWORD PTR __real@4f800000
$LN56@OnProcess:
  0011e	de f9		 fdivp	 ST(1), ST(0)
  00120	d9 5d f4	 fstp	 DWORD PTR tv806[ebp]
  00123	d9 45 f4	 fld	 DWORD PTR tv806[ebp]
  00126	89 55 f4	 mov	 DWORD PTR tv802[ebp], edx
  00129	db 45 f4	 fild	 DWORD PTR tv802[ebp]
  0012c	85 d2		 test	 edx, edx
  0012e	79 06		 jns	 SHORT $LN57@OnProcess
  00130	d8 05 00 00 00
	00		 fadd	 DWORD PTR __real@4f800000
$LN57@OnProcess:
  00136	8b 45 ec	 mov	 eax, DWORD PTR $T515252[ebp]
  00139	db 45 ec	 fild	 DWORD PTR $T515252[ebp]
  0013c	85 c0		 test	 eax, eax
  0013e	79 06		 jns	 SHORT $LN58@OnProcess
  00140	d8 05 00 00 00
	00		 fadd	 DWORD PTR __real@4f800000
$LN58@OnProcess:
  00146	de f9		 fdivp	 ST(1), ST(0)
  00148	2b 0f		 sub	 ecx, DWORD PTR [edi]
  0014a	d9 5d ec	 fstp	 DWORD PTR tv795[ebp]
  0014d	d8 4d ec	 fmul	 DWORD PTR tv795[ebp]
  00150	89 4d ec	 mov	 DWORD PTR tv791[ebp], ecx
  00153	db 45 ec	 fild	 DWORD PTR tv791[ebp]
  00156	79 06		 jns	 SHORT $LN59@OnProcess
  00158	d8 05 00 00 00
	00		 fadd	 DWORD PTR __real@4f800000
$LN59@OnProcess:
  0015e	8b 86 70 01 00
	00		 mov	 eax, DWORD PTR [esi+368]
  00164	de c9		 fmulp	 ST(1), ST(0)
  00166	d9 5d ec	 fstp	 DWORD PTR tv787[ebp]
  00169	d9 45 ec	 fld	 DWORD PTR tv787[ebp]
  0016c	db 86 70 01 00
	00		 fild	 DWORD PTR [esi+368]
  00172	85 c0		 test	 eax, eax
  00174	79 06		 jns	 SHORT $LN60@OnProcess
  00176	d8 05 00 00 00
	00		 fadd	 DWORD PTR __real@4f800000
$LN60@OnProcess:
  0017c	de f9		 fdivp	 ST(1), ST(0)
  0017e	d9 5d ec	 fstp	 DWORD PTR tv781[ebp]
  00181	d9 45 ec	 fld	 DWORD PTR tv781[ebp]
  00184	e8 00 00 00 00	 call	 __CIsin
  00189	d9 5d ec	 fstp	 DWORD PTR tv774[ebp]
  0018c	8b 86 7c 01 00
	00		 mov	 eax, DWORD PTR [esi+380]
  00192	d9 45 ec	 fld	 DWORD PTR tv774[ebp]
  00195	db 86 7c 01 00
	00		 fild	 DWORD PTR [esi+380]
  0019b	85 c0		 test	 eax, eax
  0019d	79 06		 jns	 SHORT $LN61@OnProcess
  0019f	d8 05 00 00 00
	00		 fadd	 DWORD PTR __real@4f800000
$LN61@OnProcess:
  001a5	8b 45 e8	 mov	 eax, DWORD PTR $T515244[ebp]
  001a8	de c9		 fmulp	 ST(1), ST(0)
  001aa	dc 0d 00 00 00
	00		 fmul	 QWORD PTR __real@3f847ae140000000
  001b0	db 45 e8	 fild	 DWORD PTR $T515244[ebp]
  001b3	85 c0		 test	 eax, eax
  001b5	79 06		 jns	 SHORT $LN62@OnProcess
  001b7	d8 05 00 00 00
	00		 fadd	 DWORD PTR __real@4f800000
$LN62@OnProcess:
  001bd	de c1		 faddp	 ST(1), ST(0)
  001bf	d9 5f 10	 fstp	 DWORD PTR [edi+16]

; 544  : 			m_byBackAniAlpha[i] = m_dwBackAniAlphaGap - ( sin( (float)(FLOAT_PI * FLOAT05*(dwCurTime - m_dwBackAniCheckTime[i])) / (float)m_dwBackAniTime) * (float)m_dwBackAniAlphaGap );// 127 -> 255 알파	

  001c2	b8 4e e6 40 bb	 mov	 eax, -1153374642	; bb40e64eH
  001c7	8b c8		 mov	 ecx, eax
  001c9	b8 00 ca 9a 3b	 mov	 eax, 1000000000		; 3b9aca00H
  001ce	8b d0		 mov	 edx, eax
  001d0	b8 05 00 00 00	 mov	 eax, 5
  001d5	89 45 e8	 mov	 DWORD PTR $T515282[ebp], eax
  001d8	b8 0a 00 00 00	 mov	 eax, 10			; 0000000aH
  001dd	db 86 80 01 00
	00		 fild	 DWORD PTR [esi+384]
  001e3	89 45 ec	 mov	 DWORD PTR $T515286[ebp], eax
  001e6	8b 86 80 01 00
	00		 mov	 eax, DWORD PTR [esi+384]
  001ec	85 c0		 test	 eax, eax
  001ee	79 06		 jns	 SHORT $LN63@OnProcess
  001f0	d8 05 00 00 00
	00		 fadd	 DWORD PTR __real@4f800000
$LN63@OnProcess:
  001f6	8b 45 e8	 mov	 eax, DWORD PTR $T515282[ebp]
  001f9	dd 5d f0	 fstp	 QWORD PTR tv507[ebp]
  001fc	db 45 e8	 fild	 DWORD PTR $T515282[ebp]
  001ff	85 c0		 test	 eax, eax
  00201	79 06		 jns	 SHORT $LN64@OnProcess
  00203	d8 05 00 00 00
	00		 fadd	 DWORD PTR __real@4f800000
$LN64@OnProcess:
  00209	8b 45 ec	 mov	 eax, DWORD PTR $T515286[ebp]
  0020c	db 45 ec	 fild	 DWORD PTR $T515286[ebp]
  0020f	85 c0		 test	 eax, eax
  00211	79 06		 jns	 SHORT $LN65@OnProcess
  00213	d8 05 00 00 00
	00		 fadd	 DWORD PTR __real@4f800000
$LN65@OnProcess:
  00219	de f9		 fdivp	 ST(1), ST(0)
  0021b	d9 5d e8	 fstp	 DWORD PTR tv744[ebp]
  0021e	d9 45 e8	 fld	 DWORD PTR tv744[ebp]
  00221	89 4d e8	 mov	 DWORD PTR tv740[ebp], ecx
  00224	db 45 e8	 fild	 DWORD PTR tv740[ebp]
  00227	85 c9		 test	 ecx, ecx
  00229	79 06		 jns	 SHORT $LN66@OnProcess
  0022b	d8 05 00 00 00
	00		 fadd	 DWORD PTR __real@4f800000
$LN66@OnProcess:
  00231	89 55 e8	 mov	 DWORD PTR tv737[ebp], edx
  00234	db 45 e8	 fild	 DWORD PTR tv737[ebp]
  00237	85 d2		 test	 edx, edx
  00239	79 06		 jns	 SHORT $LN67@OnProcess
  0023b	d8 05 00 00 00
	00		 fadd	 DWORD PTR __real@4f800000
$LN67@OnProcess:
  00241	de f9		 fdivp	 ST(1), ST(0)
  00243	8b 45 fc	 mov	 eax, DWORD PTR _dwCurTime$[ebp]
  00246	2b 07		 sub	 eax, DWORD PTR [edi]
  00248	d9 5d e8	 fstp	 DWORD PTR tv733[ebp]
  0024b	d8 4d e8	 fmul	 DWORD PTR tv733[ebp]
  0024e	89 45 e8	 mov	 DWORD PTR tv729[ebp], eax
  00251	db 45 e8	 fild	 DWORD PTR tv729[ebp]
  00254	79 06		 jns	 SHORT $LN68@OnProcess
  00256	d8 05 00 00 00
	00		 fadd	 DWORD PTR __real@4f800000
$LN68@OnProcess:
  0025c	8b 86 70 01 00
	00		 mov	 eax, DWORD PTR [esi+368]
  00262	de c9		 fmulp	 ST(1), ST(0)
  00264	d9 5d e8	 fstp	 DWORD PTR tv726[ebp]
  00267	d9 45 e8	 fld	 DWORD PTR tv726[ebp]
  0026a	db 86 70 01 00
	00		 fild	 DWORD PTR [esi+368]
  00270	85 c0		 test	 eax, eax
  00272	79 06		 jns	 SHORT $LN69@OnProcess
  00274	d8 05 00 00 00
	00		 fadd	 DWORD PTR __real@4f800000
$LN69@OnProcess:
  0027a	de f9		 fdivp	 ST(1), ST(0)
  0027c	d9 5d e8	 fstp	 DWORD PTR tv720[ebp]
  0027f	d9 45 e8	 fld	 DWORD PTR tv720[ebp]
  00282	e8 00 00 00 00	 call	 __CIsin
  00287	d9 5d e8	 fstp	 DWORD PTR tv713[ebp]
  0028a	d9 45 e8	 fld	 DWORD PTR tv713[ebp]
  0028d	dc 4d f0	 fmul	 QWORD PTR tv507[ebp]
  00290	dc 6d f0	 fsubr	 QWORD PTR tv507[ebp]
  00293	e8 00 00 00 00	 call	 __ftol2
  00298	8b 4d 08	 mov	 ecx, DWORD PTR _i$510511[ebp]
  0029b	88 84 31 8c 01
	00 00		 mov	 BYTE PTR [ecx+esi+396], al
  002a2	8b 4d fc	 mov	 ecx, DWORD PTR _dwCurTime$[ebp]
$LN5@OnProcess:

; 538  : 	{
; 539  : 		for (int i = 0; i < MAX_BACK_EFFECT ; i++)

  002a5	ff 45 08	 inc	 DWORD PTR _i$510511[ebp]
  002a8	83 c7 04	 add	 edi, 4
  002ab	83 7d 08 02	 cmp	 DWORD PTR _i$510511[ebp], 2
  002af	0f 8c 19 fe ff
	ff		 jl	 $LL53@OnProcess
$LN4@OnProcess:

; 545  : 		}
; 546  : 	}
; 547  : 	
; 548  : 	// start ani
; 549  : 	enum { MAX_START_ANI_WAIT_TIME = 600, };
; 550  : 	if( m_dwStartAniCheckTime != 0 && ( dwCurTime - m_dwStartAniCheckTime ) > MAX_START_ANI_WAIT_TIME )

  002b5	8b 86 90 01 00
	00		 mov	 eax, DWORD PTR [esi+400]
  002bb	85 c0		 test	 eax, eax
  002bd	74 45		 je	 SHORT $LN54@OnProcess
  002bf	2b c8		 sub	 ecx, eax
  002c1	81 f9 58 02 00
	00		 cmp	 ecx, 600		; 00000258H
  002c7	76 3b		 jbe	 SHORT $LN54@OnProcess

; 551  : 	{
; 552  : 		NewShopHelpWnd *pCharWnd = dynamic_cast<NewShopHelpWnd *>( FindChildWnd( ID_SOLDIER_WND ));

  002c9	6a 00		 push	 0
  002cb	68 00 00 00 00	 push	 OFFSET ??_R0?AVNewShopHelpWnd@@@8
  002d0	68 00 00 00 00	 push	 OFFSET ??_R0?AVioWnd@@@8
  002d5	6a 00		 push	 0
  002d7	68 e8 03 00 00	 push	 1000			; 000003e8H
  002dc	8b ce		 mov	 ecx, esi
  002de	ff 15 00 00 00
	00		 call	 DWORD PTR __imp_?FindChildWnd@ioWnd@@QAEPAV1@K@Z
  002e4	50		 push	 eax
  002e5	e8 00 00 00 00	 call	 ___RTDynamicCast

; 553  : 		if( pCharWnd )

  002ea	33 ff		 xor	 edi, edi
  002ec	83 c4 14	 add	 esp, 20			; 00000014H
  002ef	3b c7		 cmp	 eax, edi
  002f1	74 0b		 je	 SHORT $LN1@OnProcess

; 554  : 		{
; 555  : 			pCharWnd->SetEquip( false, true, false );

  002f3	57		 push	 edi
  002f4	6a 01		 push	 1
  002f6	57		 push	 edi
  002f7	8b c8		 mov	 ecx, eax
  002f9	e8 00 00 00 00	 call	 ?SetEquip@NewShopHelpWnd@@QAEX_N00@Z ; NewShopHelpWnd::SetEquip
$LN1@OnProcess:

; 556  : 		}
; 557  : 
; 558  : 		m_dwStartAniCheckTime = 0;

  002fe	89 be 90 01 00
	00		 mov	 DWORD PTR [esi+400], edi
$LN54@OnProcess:
  00304	5f		 pop	 edi
  00305	5b		 pop	 ebx
$LN2@OnProcess:
  00306	5e		 pop	 esi

; 559  : 	}
; 560  : }

  00307	c9		 leave
  00308	c2 04 00	 ret	 4
?OnProcess@InvenFourExtraCompoundBuyWnd@@MAEXM@Z ENDP	; InvenFourExtraCompoundBuyWnd::OnProcess
_TEXT	ENDS
PUBLIC	??2@YAPAXIPAX@Z					; operator new
; Function compile flags: /Ogsp
; File c:\program files (x86)\microsoft visual studio 10.0\vc\include\new
;	COMDAT ??2@YAPAXIPAX@Z
_TEXT	SEGMENT
___formal$ = 8						; size = 4
__Where$ = 12						; size = 4
??2@YAPAXIPAX@Z PROC					; operator new, COMDAT

; 56   : 	{	// construct array with placement at _Where

  00000	55		 push	 ebp
  00001	8b ec		 mov	 ebp, esp

; 57   : 	return (_Where);

  00003	8b 45 0c	 mov	 eax, DWORD PTR __Where$[ebp]

; 58   : 	}

  00006	5d		 pop	 ebp
  00007	c3		 ret	 0
??2@YAPAXIPAX@Z ENDP					; operator new
_TEXT	ENDS
PUBLIC	??3@YAXPAX0@Z					; operator delete
; Function compile flags: /Ogsp
;	COMDAT ??3@YAXPAX0@Z
_TEXT	SEGMENT
___formal$ = 8						; size = 4
___formal$ = 12						; size = 4
??3@YAXPAX0@Z PROC					; operator delete, COMDAT

; 62   : 	}

  00000	c3		 ret	 0
??3@YAXPAX0@Z ENDP					; operator delete
_TEXT	ENDS
PUBLIC	?iwm_hide@InvenFourExtraCompoundBuyResultWnd@@UAEXXZ ; InvenFourExtraCompoundBuyResultWnd::iwm_hide
EXTRN	__imp_?GetSingleton@ioSoundManager@@SAAAV1@XZ:PROC
EXTRN	__imp_?StopSound@ioSoundManager@@QAEXABVioHashString@@K@Z:PROC
EXTRN	__imp_?IsEmpty@ioHashString@@QBE_NXZ:PROC
; Function compile flags: /Ogsp
; File d:\lost saga for developer\youtube\tutorial\source\src\lsclient\gui\invenfourextracompoundwnd.cpp
;	COMDAT ?iwm_hide@InvenFourExtraCompoundBuyResultWnd@@UAEXXZ
_TEXT	SEGMENT
?iwm_hide@InvenFourExtraCompoundBuyResultWnd@@UAEXXZ PROC ; InvenFourExtraCompoundBuyResultWnd::iwm_hide, COMDAT
; _this$ = ecx

; 703  : {

  00000	53		 push	 ebx
  00001	56		 push	 esi
  00002	57		 push	 edi

; 704  : 	HideChildWnd( ID_SOLDIER_WND );

  00003	6a 00		 push	 0
  00005	68 e8 03 00 00	 push	 1000			; 000003e8H
  0000a	8b d9		 mov	 ebx, ecx
  0000c	ff 15 00 00 00
	00		 call	 DWORD PTR __imp_?HideChildWnd@ioWnd@@QAEXK_N@Z

; 705  : 
; 706  : 	if( !m_szDestroySound.IsEmpty() )

  00012	8d 8b a0 01 00
	00		 lea	 ecx, DWORD PTR [ebx+416]
  00018	ff 15 00 00 00
	00		 call	 DWORD PTR __imp_?IsEmpty@ioHashString@@QBE_NXZ
  0001e	8b 35 00 00 00
	00		 mov	 esi, DWORD PTR __imp_?StopSound@ioSoundManager@@QAEXABVioHashString@@K@Z
  00024	8b 3d 00 00 00
	00		 mov	 edi, DWORD PTR __imp_?GetSingleton@ioSoundManager@@SAAAV1@XZ
  0002a	84 c0		 test	 al, al
  0002c	75 0f		 jne	 SHORT $LN4@iwm_hide

; 707  : 		g_SoundMgr.StopSound( m_szDestroySound, 0 );

  0002e	8d 83 a0 01 00
	00		 lea	 eax, DWORD PTR [ebx+416]
  00034	6a 00		 push	 0
  00036	50		 push	 eax
  00037	ff d7		 call	 edi
  00039	8b c8		 mov	 ecx, eax
  0003b	ff d6		 call	 esi
$LN4@iwm_hide:

; 708  : 
; 709  : 	if( !m_szRollingSound.IsEmpty() )

  0003d	8d 8b b0 01 00
	00		 lea	 ecx, DWORD PTR [ebx+432]
  00043	ff 15 00 00 00
	00		 call	 DWORD PTR __imp_?IsEmpty@ioHashString@@QBE_NXZ
  00049	84 c0		 test	 al, al
  0004b	75 0f		 jne	 SHORT $LN3@iwm_hide

; 710  : 		g_SoundMgr.StopSound( m_szRollingSound, 0 );

  0004d	8d 83 b0 01 00
	00		 lea	 eax, DWORD PTR [ebx+432]
  00053	6a 00		 push	 0
  00055	50		 push	 eax
  00056	ff d7		 call	 edi
  00058	8b c8		 mov	 ecx, eax
  0005a	ff d6		 call	 esi
$LN3@iwm_hide:

; 711  : 
; 712  : 	if( !m_szSuccessSound.IsEmpty() )

  0005c	8d 8b c0 01 00
	00		 lea	 ecx, DWORD PTR [ebx+448]
  00062	ff 15 00 00 00
	00		 call	 DWORD PTR __imp_?IsEmpty@ioHashString@@QBE_NXZ
  00068	84 c0		 test	 al, al
  0006a	75 0f		 jne	 SHORT $LN2@iwm_hide

; 713  : 		g_SoundMgr.StopSound( m_szSuccessSound, 0 );

  0006c	8d 83 c0 01 00
	00		 lea	 eax, DWORD PTR [ebx+448]
  00072	6a 00		 push	 0
  00074	50		 push	 eax
  00075	ff d7		 call	 edi
  00077	8b c8		 mov	 ecx, eax
  00079	ff d6		 call	 esi
$LN2@iwm_hide:

; 714  : 
; 715  : 	if( !m_szFailSound.IsEmpty() )

  0007b	81 c3 d0 01 00
	00		 add	 ebx, 464		; 000001d0H
  00081	8b cb		 mov	 ecx, ebx
  00083	ff 15 00 00 00
	00		 call	 DWORD PTR __imp_?IsEmpty@ioHashString@@QBE_NXZ
  00089	84 c0		 test	 al, al
  0008b	75 09		 jne	 SHORT $LN1@iwm_hide

; 716  : 		g_SoundMgr.StopSound( m_szFailSound, 0 );

  0008d	6a 00		 push	 0
  0008f	53		 push	 ebx
  00090	ff d7		 call	 edi
  00092	8b c8		 mov	 ecx, eax
  00094	ff d6		 call	 esi
$LN1@iwm_hide:

; 717  : }

  00096	5f		 pop	 edi
  00097	5e		 pop	 esi
  00098	5b		 pop	 ebx
  00099	c3		 ret	 0
?iwm_hide@InvenFourExtraCompoundBuyResultWnd@@UAEXXZ ENDP ; InvenFourExtraCompoundBuyResultWnd::iwm_hide
_TEXT	ENDS
PUBLIC	?AddRenderImage@InvenFourExtraCompoundBuyResultWnd@@MAEXABVioHashString@@PAVioUIRenderImage@@@Z ; InvenFourExtraCompoundBuyResultWnd::AddRenderImage
EXTRN	__imp_?AddRenderImage@ioWnd@@UAEXABVioHashString@@PAVioUIRenderImage@@@Z:PROC
; Function compile flags: /Ogsp
;	COMDAT ?AddRenderImage@InvenFourExtraCompoundBuyResultWnd@@MAEXABVioHashString@@PAVioUIRenderImage@@@Z
_TEXT	SEGMENT
_szType$ = 8						; size = 4
_pImage$ = 12						; size = 4
?AddRenderImage@InvenFourExtraCompoundBuyResultWnd@@MAEXABVioHashString@@PAVioUIRenderImage@@@Z PROC ; InvenFourExtraCompoundBuyResultWnd::AddRenderImage, COMDAT
; _this$ = ecx

; 720  : {

  00000	55		 push	 ebp
  00001	8b ec		 mov	 ebp, esp

; 722  : }

  00003	5d		 pop	 ebp

; 721  : 	ioWnd::AddRenderImage( szType, pImage );

  00004	ff 25 00 00 00
	00		 jmp	 DWORD PTR __imp_?AddRenderImage@ioWnd@@UAEXABVioHashString@@PAVioUIRenderImage@@@Z
?AddRenderImage@InvenFourExtraCompoundBuyResultWnd@@MAEXABVioHashString@@PAVioUIRenderImage@@@Z ENDP ; InvenFourExtraCompoundBuyResultWnd::AddRenderImage
_TEXT	ENDS
PUBLIC	?_Adopt@_Iterator_base0@std@@QAEXPBX@Z		; std::_Iterator_base0::_Adopt
; Function compile flags: /Ogsp
; File c:\program files (x86)\microsoft visual studio 10.0\vc\include\xutility
;	COMDAT ?_Adopt@_Iterator_base0@std@@QAEXPBX@Z
_TEXT	SEGMENT
___formal$ = 8						; size = 4
?_Adopt@_Iterator_base0@std@@QAEXPBX@Z PROC		; std::_Iterator_base0::_Adopt, COMDAT
; _this$ = ecx

; 49   : 		}

  00000	c2 04 00	 ret	 4
?_Adopt@_Iterator_base0@std@@QAEXPBX@Z ENDP		; std::_Iterator_base0::_Adopt
_TEXT	ENDS
PUBLIC	??_C@_0CN@BHBBCIMG@InvenFourExtraCompoundBuyResultW@ ; `string'
PUBLIC	__real@3f59999a
PUBLIC	?OnRender@InvenFourExtraCompoundBuyResultWnd@@MAEXXZ ; InvenFourExtraCompoundBuyResultWnd::OnRender
EXTRN	__imp_?GetString@ioStringManager@@QAEPADPBD0HW4FileNamePrefix@1@@Z:PROC
EXTRN	__imp_?GetSingleton@ioStringManager@@SAAAV1@XZ:PROC
EXTRN	__imp_?PrintText@ioFontManager@@QAAXMMMPBDZZ:PROC
EXTRN	__imp_?c_str@ioHashString@@QBEPBDXZ:PROC
EXTRN	__imp_?SetTextColor@ioFontManager@@QAEXK@Z:PROC
EXTRN	__imp_?SetAlignType@ioFontManager@@QAEXW4TextAlignType@@@Z:PROC
EXTRN	__imp_?SetBkColor@ioFontManager@@QAEXHHH@Z:PROC
EXTRN	__imp_?SetTextStyle@ioFontManager@@QAEXW4TextStyle@@@Z:PROC
EXTRN	__imp_?GetSingleton@ioFontManager@@SAAAV1@XZ:PROC
EXTRN	__imp_?GetDerivedPosY@ioWnd@@QBEHXZ:PROC
EXTRN	__imp_?GetDerivedPosX@ioWnd@@QBEHXZ:PROC
EXTRN	__imp_?OnRender@ioWnd@@MAEXXZ:PROC
;	COMDAT ??_C@_0CN@BHBBCIMG@InvenFourExtraCompoundBuyResultW@
; File d:\lost saga for developer\youtube\tutorial\source\src\lsclient\gui\invenfourextracompoundwnd.cpp
CONST	SEGMENT
??_C@_0CN@BHBBCIMG@InvenFourExtraCompoundBuyResultW@ DB 'InvenFourExtraCo'
	DB	'mpoundBuyResultWnd::OnRender', 00H		; `string'
CONST	ENDS
;	COMDAT __real@3f59999a
CONST	SEGMENT
__real@3f59999a DD 03f59999ar			; 0.85
; Function compile flags: /Ogsp
CONST	ENDS
;	COMDAT ?OnRender@InvenFourExtraCompoundBuyResultWnd@@MAEXXZ
_TEXT	SEGMENT
_this$ = -12						; size = 4
tv324 = -8						; size = 4
_iXPos$ = -8						; size = 4
_iYPos$ = -4						; size = 4
?OnRender@InvenFourExtraCompoundBuyResultWnd@@MAEXXZ PROC ; InvenFourExtraCompoundBuyResultWnd::OnRender, COMDAT
; _this$ = ecx

; 890  : {

  00000	55		 push	 ebp
  00001	8b ec		 mov	 ebp, esp
  00003	83 ec 0c	 sub	 esp, 12			; 0000000cH
  00006	53		 push	 ebx
  00007	56		 push	 esi
  00008	8b f1		 mov	 esi, ecx
  0000a	57		 push	 edi
  0000b	89 75 f4	 mov	 DWORD PTR _this$[ebp], esi

; 891  : 	ioWnd::OnRender();

  0000e	ff 15 00 00 00
	00		 call	 DWORD PTR __imp_?OnRender@ioWnd@@MAEXXZ

; 892  : 
; 893  : 	int iXPos = GetDerivedPosX();

  00014	8b ce		 mov	 ecx, esi
  00016	ff 15 00 00 00
	00		 call	 DWORD PTR __imp_?GetDerivedPosX@ioWnd@@QBEHXZ

; 894  : 	int iYPos = GetDerivedPosY();

  0001c	8b ce		 mov	 ecx, esi
  0001e	89 45 f8	 mov	 DWORD PTR _iXPos$[ebp], eax
  00021	ff 15 00 00 00
	00		 call	 DWORD PTR __imp_?GetDerivedPosY@ioWnd@@QBEHXZ

; 895  : 
; 896  : 	enum
; 897  : 	{
; 898  : 		TITLE_X		    = 129,
; 899  : 		TITLE_Y		    = 270,
; 900  : 
; 901  : 		TITLE_Y_GAP     = 23,
; 902  : 
; 903  : 		DESC_X		    = 33,
; 904  : 		DESC_Y		    = 399,
; 905  : 
; 906  : 		ROLLING_EFFECT_WEAPON_X = 55,
; 907  : 		ROLLING_EFFECT_WEAPON_Y = 120,
; 908  : 
; 909  : 		ROLLING_EFFECT_HELMET_X = 203,
; 910  : 		ROLLING_EFFECT_HELMET_Y = 120,
; 911  : 
; 912  : 		ROLLING_EFFECT_ARMOR_X = 55,
; 913  : 		ROLLING_EFFECT_ARMOR_Y = 204,
; 914  : 
; 915  : 		ROLLING_EFFECT_CLOAK_X = 203,
; 916  : 		ROLLING_EFFECT_CLOAK_Y = 204,
; 917  : 	};
; 918  : 
; 919  : 	// Title
; 920  : 	g_FontMgr.SetTextStyle( TS_NORMAL );

  00027	8b 35 00 00 00
	00		 mov	 esi, DWORD PTR __imp_?GetSingleton@ioFontManager@@SAAAV1@XZ
  0002d	33 db		 xor	 ebx, ebx
  0002f	53		 push	 ebx
  00030	89 45 fc	 mov	 DWORD PTR _iYPos$[ebp], eax
  00033	ff d6		 call	 esi
  00035	8b 3d 00 00 00
	00		 mov	 edi, DWORD PTR __imp_?SetTextStyle@ioFontManager@@QAEXW4TextStyle@@@Z
  0003b	8b c8		 mov	 ecx, eax
  0003d	ff d7		 call	 edi

; 921  : 	g_FontMgr.SetBkColor( 0, 0, 0 );

  0003f	53		 push	 ebx
  00040	53		 push	 ebx
  00041	53		 push	 ebx
  00042	ff d6		 call	 esi
  00044	8b c8		 mov	 ecx, eax
  00046	ff 15 00 00 00
	00		 call	 DWORD PTR __imp_?SetBkColor@ioFontManager@@QAEXHHH@Z

; 922  : 	g_FontMgr.SetAlignType( TAT_CENTER );

  0004c	6a 01		 push	 1
  0004e	ff d6		 call	 esi
  00050	8b c8		 mov	 ecx, eax
  00052	ff 15 00 00 00
	00		 call	 DWORD PTR __imp_?SetAlignType@ioFontManager@@QAEXW4TextAlignType@@@Z

; 923  : 	g_FontMgr.SetTextColor( TCT_DEFAULT_DARKGRAY );

  00058	68 3a 3a 3a ff	 push	 -12961222		; ff3a3a3aH
  0005d	ff d6		 call	 esi
  0005f	8b c8		 mov	 ecx, eax
  00061	ff 15 00 00 00
	00		 call	 DWORD PTR __imp_?SetTextColor@ioFontManager@@QAEXK@Z

; 924  : 	g_FontMgr.PrintText( iXPos+TITLE_X, iYPos+TITLE_Y, FONT_SIZE_17, m_sTitleName.c_str() );

  00067	8b 45 f8	 mov	 eax, DWORD PTR _iXPos$[ebp]
  0006a	8b 4d f4	 mov	 ecx, DWORD PTR _this$[ebp]
  0006d	05 81 00 00 00	 add	 eax, 129		; 00000081H
  00072	0f 57 c0	 xorps	 xmm0, xmm0
  00075	f3 0f 2a c0	 cvtsi2ss xmm0, eax
  00079	81 c1 14 02 00
	00		 add	 ecx, 532		; 00000214H
  0007f	f3 0f 11 45 f8	 movss	 DWORD PTR tv324[ebp], xmm0
  00084	ff 15 00 00 00
	00		 call	 DWORD PTR __imp_?c_str@ioHashString@@QBEPBDXZ
  0008a	f3 0f 10 05 00
	00 00 00	 movss	 xmm0, DWORD PTR __real@3f59999a
  00092	50		 push	 eax
  00093	8b 45 fc	 mov	 eax, DWORD PTR _iYPos$[ebp]
  00096	83 ec 0c	 sub	 esp, 12			; 0000000cH
  00099	f3 0f 11 44 24
	08		 movss	 DWORD PTR [esp+8], xmm0
  0009f	05 0e 01 00 00	 add	 eax, 270		; 0000010eH
  000a4	0f 57 c0	 xorps	 xmm0, xmm0
  000a7	f3 0f 2a c0	 cvtsi2ss xmm0, eax
  000ab	f3 0f 11 44 24
	04		 movss	 DWORD PTR [esp+4], xmm0
  000b1	f3 0f 10 45 f8	 movss	 xmm0, DWORD PTR tv324[ebp]
  000b6	f3 0f 11 04 24	 movss	 DWORD PTR [esp], xmm0
  000bb	ff d6		 call	 esi
  000bd	50		 push	 eax
  000be	ff 15 00 00 00
	00		 call	 DWORD PTR __imp_?PrintText@ioFontManager@@QAAXMMMPBDZZ

; 925  : 
; 926  : 	if( m_bResult )

  000c4	8b 45 f4	 mov	 eax, DWORD PTR _this$[ebp]
  000c7	83 c4 14	 add	 esp, 20			; 00000014H

; 929  : 		{
; 930  : 			g_FontMgr.SetTextStyle( TS_NORMAL );

  000ca	53		 push	 ebx
  000cb	38 98 10 02 00
	00		 cmp	 BYTE PTR [eax+528], bl
  000d1	0f 84 98 01 00
	00		 je	 $LN4@OnRender

; 927  : 	{
; 928  : 		if( m_bSuccess )

  000d7	38 98 11 02 00
	00		 cmp	 BYTE PTR [eax+529], bl
  000dd	0f 84 59 01 00
	00		 je	 $LN3@OnRender

; 929  : 		{
; 930  : 			g_FontMgr.SetTextStyle( TS_NORMAL );

  000e3	ff d6		 call	 esi
  000e5	8b c8		 mov	 ecx, eax
  000e7	ff d7		 call	 edi

; 931  : 			g_FontMgr.SetBkColor( 0, 0, 0 );

  000e9	53		 push	 ebx
  000ea	53		 push	 ebx
  000eb	53		 push	 ebx
  000ec	ff d6		 call	 esi
  000ee	8b c8		 mov	 ecx, eax
  000f0	ff 15 00 00 00
	00		 call	 DWORD PTR __imp_?SetBkColor@ioFontManager@@QAEXHHH@Z

; 932  : 			g_FontMgr.SetAlignType( TAT_CENTER );

  000f6	6a 01		 push	 1
  000f8	ff d6		 call	 esi
  000fa	8b c8		 mov	 ecx, eax
  000fc	ff 15 00 00 00
	00		 call	 DWORD PTR __imp_?SetAlignType@ioFontManager@@QAEXW4TextAlignType@@@Z

; 933  : 			g_FontMgr.SetTextColor( TCT_DEFAULT_DARKGRAY );

  00102	68 3a 3a 3a ff	 push	 -12961222		; ff3a3a3aH
  00107	ff d6		 call	 esi
  00109	8b c8		 mov	 ecx, eax
  0010b	ff 15 00 00 00
	00		 call	 DWORD PTR __imp_?SetTextColor@ioFontManager@@QAEXK@Z

; 934  : 			g_FontMgr.PrintText( iXPos+TITLE_X, iYPos+TITLE_Y+TITLE_Y_GAP, FONT_SIZE_17, m_sClassTime.c_str() );	

  00111	8b 4d f4	 mov	 ecx, DWORD PTR _this$[ebp]
  00114	81 c1 24 02 00
	00		 add	 ecx, 548		; 00000224H
  0011a	ff 15 00 00 00
	00		 call	 DWORD PTR __imp_?c_str@ioHashString@@QBEPBDXZ
  00120	f3 0f 10 05 00
	00 00 00	 movss	 xmm0, DWORD PTR __real@3f59999a
  00128	50		 push	 eax
  00129	8b 45 fc	 mov	 eax, DWORD PTR _iYPos$[ebp]
  0012c	83 ec 0c	 sub	 esp, 12			; 0000000cH
  0012f	f3 0f 11 44 24
	08		 movss	 DWORD PTR [esp+8], xmm0
  00135	05 25 01 00 00	 add	 eax, 293		; 00000125H
  0013a	0f 57 c0	 xorps	 xmm0, xmm0
  0013d	f3 0f 2a c0	 cvtsi2ss xmm0, eax
  00141	f3 0f 11 44 24
	04		 movss	 DWORD PTR [esp+4], xmm0
  00147	f3 0f 10 45 f8	 movss	 xmm0, DWORD PTR tv324[ebp]
  0014c	f3 0f 11 04 24	 movss	 DWORD PTR [esp], xmm0
  00151	ff d6		 call	 esi
  00153	50		 push	 eax
  00154	ff 15 00 00 00
	00		 call	 DWORD PTR __imp_?PrintText@ioFontManager@@QAAXMMMPBDZZ
  0015a	83 c4 14	 add	 esp, 20			; 00000014H

; 935  : 
; 936  : 			g_FontMgr.SetTextStyle( TS_NORMAL );

  0015d	53		 push	 ebx
  0015e	ff d6		 call	 esi
  00160	8b c8		 mov	 ecx, eax
  00162	ff d7		 call	 edi

; 937  : 			g_FontMgr.SetBkColor( 0, 0, 0 );

  00164	53		 push	 ebx
  00165	53		 push	 ebx
  00166	53		 push	 ebx
  00167	ff d6		 call	 esi
  00169	8b c8		 mov	 ecx, eax
  0016b	ff 15 00 00 00
	00		 call	 DWORD PTR __imp_?SetBkColor@ioFontManager@@QAEXHHH@Z

; 938  : 			g_FontMgr.SetAlignType( TAT_CENTER );

  00171	6a 01		 push	 1
  00173	ff d6		 call	 esi
  00175	8b c8		 mov	 ecx, eax
  00177	ff 15 00 00 00
	00		 call	 DWORD PTR __imp_?SetAlignType@ioFontManager@@QAEXW4TextAlignType@@@Z

; 939  : 			g_FontMgr.SetTextColor( TCT_DEFAULT_BLUE );

  0017d	68 b2 46 16 ff	 push	 -15317326		; ff1646b2H
  00182	ff d6		 call	 esi
  00184	8b c8		 mov	 ecx, eax
  00186	ff 15 00 00 00
	00		 call	 DWORD PTR __imp_?SetTextColor@ioFontManager@@QAEXK@Z

; 940  : 			g_FontMgr.PrintText( iXPos+TITLE_X, iYPos+TITLE_Y+(TITLE_Y_GAP*2), FONT_SIZE_17, STR(1) );	

  0018c	53		 push	 ebx
  0018d	6a 01		 push	 1
  0018f	68 00 00 00 00	 push	 OFFSET ??_C@_00CNPNBAHC@?$AA@
  00194	68 00 00 00 00	 push	 OFFSET ??_C@_0CN@BHBBCIMG@InvenFourExtraCompoundBuyResultW@
  00199	ff 15 00 00 00
	00		 call	 DWORD PTR __imp_?GetSingleton@ioStringManager@@SAAAV1@XZ
  0019f	8b c8		 mov	 ecx, eax
  001a1	ff 15 00 00 00
	00		 call	 DWORD PTR __imp_?GetString@ioStringManager@@QAEPADPBD0HW4FileNamePrefix@1@@Z
  001a7	f3 0f 10 05 00
	00 00 00	 movss	 xmm0, DWORD PTR __real@3f59999a
  001af	50		 push	 eax
  001b0	8b 45 fc	 mov	 eax, DWORD PTR _iYPos$[ebp]
  001b3	83 ec 0c	 sub	 esp, 12			; 0000000cH
  001b6	f3 0f 11 44 24
	08		 movss	 DWORD PTR [esp+8], xmm0
  001bc	05 3c 01 00 00	 add	 eax, 316		; 0000013cH
  001c1	0f 57 c0	 xorps	 xmm0, xmm0
  001c4	f3 0f 2a c0	 cvtsi2ss xmm0, eax
  001c8	f3 0f 11 44 24
	04		 movss	 DWORD PTR [esp+4], xmm0
  001ce	f3 0f 10 45 f8	 movss	 xmm0, DWORD PTR tv324[ebp]
  001d3	f3 0f 11 04 24	 movss	 DWORD PTR [esp], xmm0
  001d8	ff d6		 call	 esi
  001da	50		 push	 eax
  001db	ff 15 00 00 00
	00		 call	 DWORD PTR __imp_?PrintText@ioFontManager@@QAAXMMMPBDZZ
  001e1	83 c4 14	 add	 esp, 20			; 00000014H

; 941  : 
; 942  : 			g_FontMgr.SetTextStyle( TS_NORMAL );

  001e4	53		 push	 ebx
  001e5	ff d6		 call	 esi
  001e7	8b c8		 mov	 ecx, eax
  001e9	ff d7		 call	 edi

; 943  : 			g_FontMgr.SetBkColor( 0, 0, 0 );

  001eb	53		 push	 ebx
  001ec	53		 push	 ebx
  001ed	53		 push	 ebx
  001ee	ff d6		 call	 esi
  001f0	8b c8		 mov	 ecx, eax
  001f2	ff 15 00 00 00
	00		 call	 DWORD PTR __imp_?SetBkColor@ioFontManager@@QAEXHHH@Z

; 944  : 			g_FontMgr.SetAlignType( TAT_CENTER );

  001f8	6a 01		 push	 1
  001fa	ff d6		 call	 esi
  001fc	8b c8		 mov	 ecx, eax
  001fe	ff 15 00 00 00
	00		 call	 DWORD PTR __imp_?SetAlignType@ioFontManager@@QAEXW4TextAlignType@@@Z

; 945  : 			g_FontMgr.SetTextColor( TCT_DEFAULT_GREEN );

  00204	68 22 72 11 ff	 push	 -15633886		; ff117222H
  00209	ff d6		 call	 esi
  0020b	8b c8		 mov	 ecx, eax
  0020d	ff 15 00 00 00
	00		 call	 DWORD PTR __imp_?SetTextColor@ioFontManager@@QAEXK@Z

; 946  : 			g_FontMgr.PrintText( iXPos+TITLE_X, iYPos+TITLE_Y+(TITLE_Y_GAP*3), FONT_SIZE_17, STR(2) );	

  00213	53		 push	 ebx
  00214	6a 02		 push	 2
  00216	68 00 00 00 00	 push	 OFFSET ??_C@_00CNPNBAHC@?$AA@
  0021b	68 00 00 00 00	 push	 OFFSET ??_C@_0CN@BHBBCIMG@InvenFourExtraCompoundBuyResultW@
  00220	ff 15 00 00 00
	00		 call	 DWORD PTR __imp_?GetSingleton@ioStringManager@@SAAAV1@XZ
  00226	8b c8		 mov	 ecx, eax
  00228	ff 15 00 00 00
	00		 call	 DWORD PTR __imp_?GetString@ioStringManager@@QAEPADPBD0HW4FileNamePrefix@1@@Z
  0022e	50		 push	 eax
  0022f	8b 45 fc	 mov	 eax, DWORD PTR _iYPos$[ebp]
  00232	05 53 01 00 00	 add	 eax, 339		; 00000153H

; 947  : 		}
; 948  : 		else

  00237	e9 85 00 00 00	 jmp	 $LN7@OnRender
$LN3@OnRender:

; 949  : 		{
; 950  : 			g_FontMgr.SetTextStyle( TS_NORMAL );

  0023c	ff d6		 call	 esi
  0023e	8b c8		 mov	 ecx, eax
  00240	ff d7		 call	 edi

; 951  : 			g_FontMgr.SetBkColor( 0, 0, 0 );

  00242	53		 push	 ebx
  00243	53		 push	 ebx
  00244	53		 push	 ebx
  00245	ff d6		 call	 esi
  00247	8b c8		 mov	 ecx, eax
  00249	ff 15 00 00 00
	00		 call	 DWORD PTR __imp_?SetBkColor@ioFontManager@@QAEXHHH@Z

; 952  : 			g_FontMgr.SetAlignType( TAT_CENTER );

  0024f	6a 01		 push	 1
  00251	ff d6		 call	 esi
  00253	8b c8		 mov	 ecx, eax
  00255	ff 15 00 00 00
	00		 call	 DWORD PTR __imp_?SetAlignType@ioFontManager@@QAEXW4TextAlignType@@@Z

; 953  : 			g_FontMgr.SetTextColor( TCT_DEFAULT_RED );

  0025b	68 00 16 b9 ff	 push	 -4647424		; ffb91600H
  00260	ff d6		 call	 esi
  00262	8b c8		 mov	 ecx, eax
  00264	ff 15 00 00 00
	00		 call	 DWORD PTR __imp_?SetTextColor@ioFontManager@@QAEXK@Z

; 954  : 			g_FontMgr.PrintText( iXPos+TITLE_X, iYPos+TITLE_Y+TITLE_Y_GAP, FONT_SIZE_17, STR(3) );

  0026a	53		 push	 ebx
  0026b	6a 03		 push	 3

; 955  : 		}
; 956  : 	}
; 957  : 	else

  0026d	eb 31		 jmp	 SHORT $LN8@OnRender
$LN4@OnRender:

; 958  : 	{
; 959  : 		// rolling
; 960  : 		g_FontMgr.SetTextStyle( TS_NORMAL );

  0026f	ff d6		 call	 esi
  00271	8b c8		 mov	 ecx, eax
  00273	ff d7		 call	 edi

; 961  : 		g_FontMgr.SetBkColor( 0, 0, 0 );

  00275	53		 push	 ebx
  00276	53		 push	 ebx
  00277	53		 push	 ebx
  00278	ff d6		 call	 esi
  0027a	8b c8		 mov	 ecx, eax
  0027c	ff 15 00 00 00
	00		 call	 DWORD PTR __imp_?SetBkColor@ioFontManager@@QAEXHHH@Z

; 962  : 		g_FontMgr.SetAlignType( TAT_CENTER );

  00282	6a 01		 push	 1
  00284	ff d6		 call	 esi
  00286	8b c8		 mov	 ecx, eax
  00288	ff 15 00 00 00
	00		 call	 DWORD PTR __imp_?SetAlignType@ioFontManager@@QAEXW4TextAlignType@@@Z

; 963  : 		g_FontMgr.SetTextColor( TCT_DEFAULT_GRAY );

  0028e	68 6e 6e 6e ff	 push	 -9539986		; ff6e6e6eH
  00293	ff d6		 call	 esi
  00295	8b c8		 mov	 ecx, eax
  00297	ff 15 00 00 00
	00		 call	 DWORD PTR __imp_?SetTextColor@ioFontManager@@QAEXK@Z

; 964  : 		g_FontMgr.PrintText( iXPos+TITLE_X, iYPos+TITLE_Y+TITLE_Y_GAP, FONT_SIZE_17, STR(4) );

  0029d	53		 push	 ebx
  0029e	6a 04		 push	 4
$LN8@OnRender:
  002a0	68 00 00 00 00	 push	 OFFSET ??_C@_00CNPNBAHC@?$AA@
  002a5	68 00 00 00 00	 push	 OFFSET ??_C@_0CN@BHBBCIMG@InvenFourExtraCompoundBuyResultW@
  002aa	ff 15 00 00 00
	00		 call	 DWORD PTR __imp_?GetSingleton@ioStringManager@@SAAAV1@XZ
  002b0	8b c8		 mov	 ecx, eax
  002b2	ff 15 00 00 00
	00		 call	 DWORD PTR __imp_?GetString@ioStringManager@@QAEPADPBD0HW4FileNamePrefix@1@@Z
  002b8	50		 push	 eax
  002b9	8b 45 fc	 mov	 eax, DWORD PTR _iYPos$[ebp]
  002bc	05 25 01 00 00	 add	 eax, 293		; 00000125H
$LN7@OnRender:
  002c1	f3 0f 10 05 00
	00 00 00	 movss	 xmm0, DWORD PTR __real@3f59999a
  002c9	83 ec 0c	 sub	 esp, 12			; 0000000cH
  002cc	f3 0f 11 44 24
	08		 movss	 DWORD PTR [esp+8], xmm0
  002d2	0f 57 c0	 xorps	 xmm0, xmm0
  002d5	f3 0f 2a c0	 cvtsi2ss xmm0, eax
  002d9	f3 0f 11 44 24
	04		 movss	 DWORD PTR [esp+4], xmm0
  002df	f3 0f 10 45 f8	 movss	 xmm0, DWORD PTR tv324[ebp]
  002e4	f3 0f 11 04 24	 movss	 DWORD PTR [esp], xmm0
  002e9	ff d6		 call	 esi
  002eb	50		 push	 eax
  002ec	ff 15 00 00 00
	00		 call	 DWORD PTR __imp_?PrintText@ioFontManager@@QAAXMMMPBDZZ
  002f2	83 c4 14	 add	 esp, 20			; 00000014H
  002f5	5f		 pop	 edi
  002f6	5e		 pop	 esi
  002f7	5b		 pop	 ebx

; 965  : 	}
; 966  : }

  002f8	c9		 leave
  002f9	c3		 ret	 0
?OnRender@InvenFourExtraCompoundBuyResultWnd@@MAEXXZ ENDP ; InvenFourExtraCompoundBuyResultWnd::OnRender
_TEXT	ENDS
PUBLIC	__real@3fcccccd
PUBLIC	__real@40600000
PUBLIC	__$ArrayPad$
PUBLIC	?OnRenderAfterChild@InvenFourExtraCompoundBuyResultWnd@@MAEXXZ ; InvenFourExtraCompoundBuyResultWnd::OnRenderAfterChild
EXTRN	___security_cookie:DWORD
;	COMDAT __real@3fcccccd
CONST	SEGMENT
__real@3fcccccd DD 03fcccccdr			; 1.6
CONST	ENDS
;	COMDAT __real@40600000
CONST	SEGMENT
__real@40600000 DD 040600000r			; 3.5
; Function compile flags: /Ogsp
CONST	ENDS
;	COMDAT ?OnRenderAfterChild@InvenFourExtraCompoundBuyResultWnd@@MAEXXZ
_TEXT	SEGMENT
_iXPos$ = -44						; size = 4
_iYPos$ = -40						; size = 4
_iXPosList$512315 = -36					; size = 16
_iYPosList$512316 = -20					; size = 16
__$ArrayPad$ = -4					; size = 4
?OnRenderAfterChild@InvenFourExtraCompoundBuyResultWnd@@MAEXXZ PROC ; InvenFourExtraCompoundBuyResultWnd::OnRenderAfterChild, COMDAT
; _this$ = ecx

; 969  : {

  00000	55		 push	 ebp
  00001	8b ec		 mov	 ebp, esp
  00003	83 ec 2c	 sub	 esp, 44			; 0000002cH
  00006	a1 00 00 00 00	 mov	 eax, DWORD PTR ___security_cookie
  0000b	33 c5		 xor	 eax, ebp
  0000d	89 45 fc	 mov	 DWORD PTR __$ArrayPad$[ebp], eax
  00010	56		 push	 esi
  00011	57		 push	 edi
  00012	8b f1		 mov	 esi, ecx

; 970  : 	int iXPos = GetDerivedPosX();

  00014	ff 15 00 00 00
	00		 call	 DWORD PTR __imp_?GetDerivedPosX@ioWnd@@QBEHXZ
  0001a	8b f8		 mov	 edi, eax

; 971  : 	int iYPos = GetDerivedPosY();

  0001c	8b ce		 mov	 ecx, esi
  0001e	89 7d d4	 mov	 DWORD PTR _iXPos$[ebp], edi
  00021	ff 15 00 00 00
	00		 call	 DWORD PTR __imp_?GetDerivedPosY@ioWnd@@QBEHXZ

; 972  : 
; 973  : 	enum
; 974  : 	{
; 975  : 		FINAL_EFFECT_X  = 129,
; 976  : 		FINAL_EFFECT_Y  = 162,
; 977  : 
; 978  : 		ROLLING_EFFECT_WEAPON_X = 55,
; 979  : 		ROLLING_EFFECT_WEAPON_Y = 120,
; 980  : 
; 981  : 		ROLLING_EFFECT_HELMET_X = 203,
; 982  : 		ROLLING_EFFECT_HELMET_Y = 120,
; 983  : 
; 984  : 		ROLLING_EFFECT_ARMOR_X = 55,
; 985  : 		ROLLING_EFFECT_ARMOR_Y = 204,
; 986  : 
; 987  : 		ROLLING_EFFECT_CLOAK_X = 203,
; 988  : 		ROLLING_EFFECT_CLOAK_Y = 204,
; 989  : 	};
; 990  : 
; 991  : 	// Effect
; 992  : 	if( m_pEffect )

  00027	83 be 60 01 00
	00 00		 cmp	 DWORD PTR [esi+352], 0
  0002e	89 45 d8	 mov	 DWORD PTR _iYPos$[ebp], eax
  00031	0f 84 e9 00 00
	00		 je	 $LN1@OnRenderAf

; 993  : 	{
; 994  : 		if( m_bResult )

  00037	80 be 10 02 00
	00 00		 cmp	 BYTE PTR [esi+528], 0
  0003e	74 5c		 je	 SHORT $LN5@OnRenderAf

; 995  : 		{
; 996  : 			m_pEffect->SetScale( 3.50f );

  00040	8b 8e 60 01 00
	00		 mov	 ecx, DWORD PTR [esi+352]
  00046	f3 0f 10 05 00
	00 00 00	 movss	 xmm0, DWORD PTR __real@40600000
  0004e	8b 01		 mov	 eax, DWORD PTR [ecx]
  00050	51		 push	 ecx
  00051	f3 0f 11 04 24	 movss	 DWORD PTR [esp], xmm0
  00056	ff 50 1c	 call	 DWORD PTR [eax+28]

; 997  : 			m_pEffect->Render( iXPos+FINAL_EFFECT_X, iYPos+FINAL_EFFECT_Y, UI_RENDER_ADD, TFO_BILINEAR );

  00059	8b 4d d8	 mov	 ecx, DWORD PTR _iYPos$[ebp]
  0005c	8b b6 60 01 00
	00		 mov	 esi, DWORD PTR [esi+352]
  00062	8b 06		 mov	 eax, DWORD PTR [esi]
  00064	6a 00		 push	 0
  00066	6a 00		 push	 0
  00068	6a 01		 push	 1
  0006a	81 c1 a2 00 00
	00		 add	 ecx, 162		; 000000a2H
  00070	6a 03		 push	 3
  00072	51		 push	 ecx
  00073	0f 57 c0	 xorps	 xmm0, xmm0
  00076	f3 0f 2a c1	 cvtsi2ss xmm0, ecx
  0007a	51		 push	 ecx
  0007b	f3 0f 11 44 24
	04		 movss	 DWORD PTR [esp+4], xmm0
  00081	81 c7 81 00 00
	00		 add	 edi, 129		; 00000081H
  00087	0f 57 c0	 xorps	 xmm0, xmm0
  0008a	f3 0f 2a c7	 cvtsi2ss xmm0, edi
  0008e	8b ce		 mov	 ecx, esi
  00090	f3 0f 11 04 24	 movss	 DWORD PTR [esp], xmm0
  00095	ff 10		 call	 DWORD PTR [eax]

; 998  : 		}
; 999  : 		else

  00097	e9 84 00 00 00	 jmp	 $LN1@OnRenderAf
$LN5@OnRenderAf:

; 1000 : 		{
; 1001 : 			enum { MAX_EFFECT = 4, };
; 1002 : 			int iXPosList[MAX_EFFECT]={ ROLLING_EFFECT_WEAPON_X, ROLLING_EFFECT_HELMET_X, ROLLING_EFFECT_ARMOR_X, ROLLING_EFFECT_CLOAK_X };

  0009c	6a 37		 push	 55			; 00000037H
  0009e	59		 pop	 ecx
  0009f	b8 cb 00 00 00	 mov	 eax, 203		; 000000cbH
  000a4	89 45 e0	 mov	 DWORD PTR _iXPosList$512315[ebp+4], eax
  000a7	89 45 e8	 mov	 DWORD PTR _iXPosList$512315[ebp+12], eax

; 1003 : 			int iYPosList[MAX_EFFECT]={ ROLLING_EFFECT_WEAPON_Y, ROLLING_EFFECT_HELMET_Y, ROLLING_EFFECT_ARMOR_Y, ROLLING_EFFECT_CLOAK_Y };

  000aa	6a 78		 push	 120			; 00000078H
  000ac	58		 pop	 eax
  000ad	89 45 ec	 mov	 DWORD PTR _iYPosList$512316[ebp], eax
  000b0	89 45 f0	 mov	 DWORD PTR _iYPosList$512316[ebp+4], eax
  000b3	83 c0 54	 add	 eax, 84			; 00000054H
  000b6	89 4d dc	 mov	 DWORD PTR _iXPosList$512315[ebp], ecx
  000b9	89 4d e4	 mov	 DWORD PTR _iXPosList$512315[ebp+8], ecx
  000bc	89 45 f4	 mov	 DWORD PTR _iYPosList$512316[ebp+8], eax
  000bf	89 45 f8	 mov	 DWORD PTR _iYPosList$512316[ebp+12], eax

; 1004 : 			for (int i = 0; i < MAX_EFFECT ; i++)

  000c2	33 ff		 xor	 edi, edi
$LL11@OnRenderAf:

; 1005 : 			{
; 1006 : 				m_pEffect->SetScale( 1.60f );

  000c4	8b 8e 60 01 00
	00		 mov	 ecx, DWORD PTR [esi+352]
  000ca	f3 0f 10 05 00
	00 00 00	 movss	 xmm0, DWORD PTR __real@3fcccccd
  000d2	8b 01		 mov	 eax, DWORD PTR [ecx]
  000d4	51		 push	 ecx
  000d5	f3 0f 11 04 24	 movss	 DWORD PTR [esp], xmm0
  000da	ff 50 1c	 call	 DWORD PTR [eax+28]

; 1007 : 				m_pEffect->Render( iXPos+iXPosList[i], iYPos+iYPosList[i], UI_RENDER_ADD, TFO_BILINEAR );

  000dd	8b 8e 60 01 00
	00		 mov	 ecx, DWORD PTR [esi+352]
  000e3	8b 54 3d ec	 mov	 edx, DWORD PTR _iYPosList$512316[ebp+edi]
  000e7	03 55 d8	 add	 edx, DWORD PTR _iYPos$[ebp]
  000ea	8b 01		 mov	 eax, DWORD PTR [ecx]
  000ec	6a 00		 push	 0
  000ee	6a 00		 push	 0
  000f0	6a 01		 push	 1
  000f2	6a 03		 push	 3
  000f4	0f 57 c0	 xorps	 xmm0, xmm0
  000f7	f3 0f 2a c2	 cvtsi2ss xmm0, edx
  000fb	8b 54 3d dc	 mov	 edx, DWORD PTR _iXPosList$512315[ebp+edi]
  000ff	03 55 d4	 add	 edx, DWORD PTR _iXPos$[ebp]
  00102	51		 push	 ecx
  00103	51		 push	 ecx
  00104	f3 0f 11 44 24
	04		 movss	 DWORD PTR [esp+4], xmm0
  0010a	0f 57 c0	 xorps	 xmm0, xmm0
  0010d	f3 0f 2a c2	 cvtsi2ss xmm0, edx
  00111	f3 0f 11 04 24	 movss	 DWORD PTR [esp], xmm0
  00116	ff 10		 call	 DWORD PTR [eax]
  00118	83 c7 04	 add	 edi, 4
  0011b	83 ff 10	 cmp	 edi, 16			; 00000010H
  0011e	7c a4		 jl	 SHORT $LL11@OnRenderAf
$LN1@OnRenderAf:

; 1008 : 			}
; 1009 : 		}
; 1010 : 	}
; 1011 : }

  00120	8b 4d fc	 mov	 ecx, DWORD PTR __$ArrayPad$[ebp]
  00123	5f		 pop	 edi
  00124	33 cd		 xor	 ecx, ebp
  00126	5e		 pop	 esi
  00127	e8 00 00 00 00	 call	 @__security_check_cookie@4
  0012c	c9		 leave
  0012d	c3		 ret	 0
?OnRenderAfterChild@InvenFourExtraCompoundBuyResultWnd@@MAEXXZ ENDP ; InvenFourExtraCompoundBuyResultWnd::OnRenderAfterChild
_TEXT	ENDS
PUBLIC	?iwm_create@InvenFourExtraCompoundBuyResultWnd@@UAEXXZ ; InvenFourExtraCompoundBuyResultWnd::iwm_create
; Function compile flags: /Ogsp
;	COMDAT ?iwm_create@InvenFourExtraCompoundBuyResultWnd@@UAEXXZ
_TEXT	SEGMENT
?iwm_create@InvenFourExtraCompoundBuyResultWnd@@UAEXXZ PROC ; InvenFourExtraCompoundBuyResultWnd::iwm_create, COMDAT
; _this$ = ecx

; 1203 : 	g_GUIMgr.AddWnd( "XML/FourExtraHelpWnd.xml", this );

  00000	51		 push	 ecx
  00001	68 00 00 00 00	 push	 OFFSET ??_C@_0BJ@HMBJNOAB@XML?1FourExtraHelpWnd?4xml?$AA@
  00006	e8 00 00 00 00	 call	 ?GetSingleton@ioSP2GUIManager@@SAAAV1@XZ ; ioSP2GUIManager::GetSingleton
  0000b	8b c8		 mov	 ecx, eax
  0000d	ff 15 00 00 00
	00		 call	 DWORD PTR __imp_?AddWnd@ioGUIManager@@QAEPAVioWnd@@PBDPAV2@@Z

; 1204 : }

  00013	c3		 ret	 0
?iwm_create@InvenFourExtraCompoundBuyResultWnd@@UAEXXZ ENDP ; InvenFourExtraCompoundBuyResultWnd::iwm_create
_TEXT	ENDS
PUBLIC	??A?$vector@VioHashString@@V?$allocator@VioHashString@@@std@@@std@@QAEAAVioHashString@@I@Z ; std::vector<ioHashString,std::allocator<ioHashString> >::operator[]
; Function compile flags: /Ogsp
; File c:\program files (x86)\microsoft visual studio 10.0\vc\include\vector
;	COMDAT ??A?$vector@VioHashString@@V?$allocator@VioHashString@@@std@@@std@@QAEAAVioHashString@@I@Z
_TEXT	SEGMENT
__Pos$ = 8						; size = 4
??A?$vector@VioHashString@@V?$allocator@VioHashString@@@std@@@std@@QAEAAVioHashString@@I@Z PROC ; std::vector<ioHashString,std::allocator<ioHashString> >::operator[], COMDAT
; _this$ = ecx

; 928  : 		{	// subscript mutable sequence

  00000	55		 push	 ebp
  00001	8b ec		 mov	 ebp, esp

; 929  :  #if _ITERATOR_DEBUG_LEVEL == 2
; 930  : 		if (size() <= _Pos)
; 931  : 			{	// report error
; 932  : 			_DEBUG_ERROR("vector subscript out of range");
; 933  : 			_SCL_SECURE_OUT_OF_RANGE;
; 934  : 			}
; 935  : 
; 936  :  #elif _ITERATOR_DEBUG_LEVEL == 1
; 937  : 		_SCL_SECURE_VALIDATE_RANGE(_Pos < size());
; 938  :  #endif /* _ITERATOR_DEBUG_LEVEL */
; 939  : 
; 940  : 		return (*(this->_Myfirst + _Pos));

  00003	8b 45 08	 mov	 eax, DWORD PTR __Pos$[ebp]
  00006	c1 e0 04	 shl	 eax, 4
  00009	03 01		 add	 eax, DWORD PTR [ecx]

; 941  : 		}

  0000b	5d		 pop	 ebp
  0000c	c2 04 00	 ret	 4
??A?$vector@VioHashString@@V?$allocator@VioHashString@@@std@@@std@@QAEAAVioHashString@@I@Z ENDP ; std::vector<ioHashString,std::allocator<ioHashString> >::operator[]
_TEXT	ENDS
PUBLIC	?GetSingleton@?$Singleton@VioEtcItemManager@@@@SAAAVioEtcItemManager@@XZ ; Singleton<ioEtcItemManager>::GetSingleton
EXTRN	?ms_Singleton@?$Singleton@VioEtcItemManager@@@@1PAVioEtcItemManager@@A:DWORD ; Singleton<ioEtcItemManager>::ms_Singleton
; Function compile flags: /Ogsp
; File d:\lost saga for developer\youtube\tutorial\source\src\io3dengine\iosingleton.h
;	COMDAT ?GetSingleton@?$Singleton@VioEtcItemManager@@@@SAAAVioEtcItemManager@@XZ
_TEXT	SEGMENT
?GetSingleton@?$Singleton@VioEtcItemManager@@@@SAAAVioEtcItemManager@@XZ PROC ; Singleton<ioEtcItemManager>::GetSingleton, COMDAT

; 42   : 		assert( ms_Singleton );
; 43   : 		return (*ms_Singleton);

  00000	a1 00 00 00 00	 mov	 eax, DWORD PTR ?ms_Singleton@?$Singleton@VioEtcItemManager@@@@1PAVioEtcItemManager@@A ; Singleton<ioEtcItemManager>::ms_Singleton

; 44   : 	}

  00005	c3		 ret	 0
?GetSingleton@?$Singleton@VioEtcItemManager@@@@SAAAVioEtcItemManager@@XZ ENDP ; Singleton<ioEtcItemManager>::GetSingleton
_TEXT	ENDS
PUBLIC	?size@?$vector@UNewShopPullDownItem@@V?$allocator@UNewShopPullDownItem@@@std@@@std@@QBEIXZ ; std::vector<NewShopPullDownItem,std::allocator<NewShopPullDownItem> >::size
; Function compile flags: /Ogsp
; File c:\program files (x86)\microsoft visual studio 10.0\vc\include\vector
;	COMDAT ?size@?$vector@UNewShopPullDownItem@@V?$allocator@UNewShopPullDownItem@@@std@@@std@@QBEIXZ
_TEXT	SEGMENT
?size@?$vector@UNewShopPullDownItem@@V?$allocator@UNewShopPullDownItem@@@std@@@std@@QBEIXZ PROC ; std::vector<NewShopPullDownItem,std::allocator<NewShopPullDownItem> >::size, COMDAT
; _this$ = ecx

; 879  : 		return (this->_Mylast - this->_Myfirst);

  00000	8b 41 04	 mov	 eax, DWORD PTR [ecx+4]
  00003	2b 01		 sub	 eax, DWORD PTR [ecx]
  00005	6a 50		 push	 80			; 00000050H
  00007	99		 cdq
  00008	59		 pop	 ecx
  00009	f7 f9		 idiv	 ecx

; 880  : 		}

  0000b	c3		 ret	 0
?size@?$vector@UNewShopPullDownItem@@V?$allocator@UNewShopPullDownItem@@@std@@@std@@QBEIXZ ENDP ; std::vector<NewShopPullDownItem,std::allocator<NewShopPullDownItem> >::size
_TEXT	ENDS
PUBLIC	?empty@?$vector@UNewShopPullDownItem@@V?$allocator@UNewShopPullDownItem@@@std@@@std@@QBE_NXZ ; std::vector<NewShopPullDownItem,std::allocator<NewShopPullDownItem> >::empty
; Function compile flags: /Ogsp
;	COMDAT ?empty@?$vector@UNewShopPullDownItem@@V?$allocator@UNewShopPullDownItem@@@std@@@std@@QBE_NXZ
_TEXT	SEGMENT
?empty@?$vector@UNewShopPullDownItem@@V?$allocator@UNewShopPullDownItem@@@std@@@std@@QBE_NXZ PROC ; std::vector<NewShopPullDownItem,std::allocator<NewShopPullDownItem> >::empty, COMDAT
; _this$ = ecx

; 889  : 		return (this->_Myfirst == this->_Mylast);

  00000	8b 01		 mov	 eax, DWORD PTR [ecx]
  00002	2b 41 04	 sub	 eax, DWORD PTR [ecx+4]
  00005	f7 d8		 neg	 eax
  00007	1b c0		 sbb	 eax, eax
  00009	40		 inc	 eax

; 890  : 		}

  0000a	c3		 ret	 0
?empty@?$vector@UNewShopPullDownItem@@V?$allocator@UNewShopPullDownItem@@@std@@@std@@QBE_NXZ ENDP ; std::vector<NewShopPullDownItem,std::allocator<NewShopPullDownItem> >::empty
_TEXT	ENDS
PUBLIC	??A?$vector@UNewShopPullDownItem@@V?$allocator@UNewShopPullDownItem@@@std@@@std@@QAEAAUNewShopPullDownItem@@I@Z ; std::vector<NewShopPullDownItem,std::allocator<NewShopPullDownItem> >::operator[]
; Function compile flags: /Ogsp
;	COMDAT ??A?$vector@UNewShopPullDownItem@@V?$allocator@UNewShopPullDownItem@@@std@@@std@@QAEAAUNewShopPullDownItem@@I@Z
_TEXT	SEGMENT
__Pos$ = 8						; size = 4
??A?$vector@UNewShopPullDownItem@@V?$allocator@UNewShopPullDownItem@@@std@@@std@@QAEAAUNewShopPullDownItem@@I@Z PROC ; std::vector<NewShopPullDownItem,std::allocator<NewShopPullDownItem> >::operator[], COMDAT
; _this$ = ecx

; 928  : 		{	// subscript mutable sequence

  00000	55		 push	 ebp
  00001	8b ec		 mov	 ebp, esp

; 929  :  #if _ITERATOR_DEBUG_LEVEL == 2
; 930  : 		if (size() <= _Pos)
; 931  : 			{	// report error
; 932  : 			_DEBUG_ERROR("vector subscript out of range");
; 933  : 			_SCL_SECURE_OUT_OF_RANGE;
; 934  : 			}
; 935  : 
; 936  :  #elif _ITERATOR_DEBUG_LEVEL == 1
; 937  : 		_SCL_SECURE_VALIDATE_RANGE(_Pos < size());
; 938  :  #endif /* _ITERATOR_DEBUG_LEVEL */
; 939  : 
; 940  : 		return (*(this->_Myfirst + _Pos));

  00003	8b 45 08	 mov	 eax, DWORD PTR __Pos$[ebp]
  00006	6b c0 50	 imul	 eax, 80			; 00000050H
  00009	03 01		 add	 eax, DWORD PTR [ecx]

; 941  : 		}

  0000b	5d		 pop	 ebp
  0000c	c2 04 00	 ret	 4
??A?$vector@UNewShopPullDownItem@@V?$allocator@UNewShopPullDownItem@@@std@@@std@@QAEAAUNewShopPullDownItem@@I@Z ENDP ; std::vector<NewShopPullDownItem,std::allocator<NewShopPullDownItem> >::operator[]
_TEXT	ENDS
PUBLIC	?capacity@?$vector@VioHashString@@V?$allocator@VioHashString@@@std@@@std@@QBEIXZ ; std::vector<ioHashString,std::allocator<ioHashString> >::capacity
; Function compile flags: /Ogsp
;	COMDAT ?capacity@?$vector@VioHashString@@V?$allocator@VioHashString@@@std@@@std@@QBEIXZ
_TEXT	SEGMENT
?capacity@?$vector@VioHashString@@V?$allocator@VioHashString@@@std@@@std@@QBEIXZ PROC ; std::vector<ioHashString,std::allocator<ioHashString> >::capacity, COMDAT
; _this$ = ecx

; 777  : 		return (this->_Myend - this->_Myfirst);

  00000	8b 41 08	 mov	 eax, DWORD PTR [ecx+8]
  00003	2b 01		 sub	 eax, DWORD PTR [ecx]
  00005	c1 f8 04	 sar	 eax, 4

; 778  : 		}

  00008	c3		 ret	 0
?capacity@?$vector@VioHashString@@V?$allocator@VioHashString@@@std@@@std@@QBEIXZ ENDP ; std::vector<ioHashString,std::allocator<ioHashString> >::capacity
_TEXT	ENDS
PUBLIC	?_Inside@?$vector@VioHashString@@V?$allocator@VioHashString@@@std@@@std@@IBE_NPBVioHashString@@@Z ; std::vector<ioHashString,std::allocator<ioHashString> >::_Inside
; Function compile flags: /Ogsp
;	COMDAT ?_Inside@?$vector@VioHashString@@V?$allocator@VioHashString@@@std@@@std@@IBE_NPBVioHashString@@@Z
_TEXT	SEGMENT
__Ptr$ = 8						; size = 4
?_Inside@?$vector@VioHashString@@V?$allocator@VioHashString@@@std@@@std@@IBE_NPBVioHashString@@@Z PROC ; std::vector<ioHashString,std::allocator<ioHashString> >::_Inside, COMDAT
; _this$ = ecx

; 1285 : 		{	// test if _Ptr points inside vector

  00000	55		 push	 ebp
  00001	8b ec		 mov	 ebp, esp

; 1286 : 		return (_Ptr < this->_Mylast && this->_Myfirst <= _Ptr);

  00003	8b 45 08	 mov	 eax, DWORD PTR __Ptr$[ebp]
  00006	3b 41 04	 cmp	 eax, DWORD PTR [ecx+4]
  00009	73 09		 jae	 SHORT $LN3@Inside
  0000b	39 01		 cmp	 DWORD PTR [ecx], eax
  0000d	77 05		 ja	 SHORT $LN3@Inside
  0000f	33 c0		 xor	 eax, eax
  00011	40		 inc	 eax
  00012	eb 02		 jmp	 SHORT $LN4@Inside
$LN3@Inside:
  00014	33 c0		 xor	 eax, eax
$LN4@Inside:

; 1287 : 		}

  00016	5d		 pop	 ebp
  00017	c2 04 00	 ret	 4
?_Inside@?$vector@VioHashString@@V?$allocator@VioHashString@@@std@@@std@@IBE_NPBVioHashString@@@Z ENDP ; std::vector<ioHashString,std::allocator<ioHashString> >::_Inside
_TEXT	ENDS
PUBLIC	?_Orphan_range@?$vector@VioHashString@@V?$allocator@VioHashString@@@std@@@std@@IBEXPAVioHashString@@0@Z ; std::vector<ioHashString,std::allocator<ioHashString> >::_Orphan_range
; Function compile flags: /Ogsp
;	COMDAT ?_Orphan_range@?$vector@VioHashString@@V?$allocator@VioHashString@@@std@@@std@@IBEXPAVioHashString@@0@Z
_TEXT	SEGMENT
___formal$ = 8						; size = 4
___formal$ = 12						; size = 4
?_Orphan_range@?$vector@VioHashString@@V?$allocator@VioHashString@@@std@@@std@@IBEXPAVioHashString@@0@Z PROC ; std::vector<ioHashString,std::allocator<ioHashString> >::_Orphan_range, COMDAT
; _this$ = ecx

; 1454 : 		}

  00000	c2 08 00	 ret	 8
?_Orphan_range@?$vector@VioHashString@@V?$allocator@VioHashString@@@std@@@std@@IBEXPAVioHashString@@0@Z ENDP ; std::vector<ioHashString,std::allocator<ioHashString> >::_Orphan_range
_TEXT	ENDS
PUBLIC	?_Inside@?$vector@HV?$allocator@H@std@@@std@@IBE_NPBH@Z ; std::vector<int,std::allocator<int> >::_Inside
; Function compile flags: /Ogsp
;	COMDAT ?_Inside@?$vector@HV?$allocator@H@std@@@std@@IBE_NPBH@Z
_TEXT	SEGMENT
__Ptr$ = 8						; size = 4
?_Inside@?$vector@HV?$allocator@H@std@@@std@@IBE_NPBH@Z PROC ; std::vector<int,std::allocator<int> >::_Inside, COMDAT
; _this$ = ecx

; 1285 : 		{	// test if _Ptr points inside vector

  00000	55		 push	 ebp
  00001	8b ec		 mov	 ebp, esp

; 1286 : 		return (_Ptr < this->_Mylast && this->_Myfirst <= _Ptr);

  00003	8b 45 08	 mov	 eax, DWORD PTR __Ptr$[ebp]
  00006	3b 41 04	 cmp	 eax, DWORD PTR [ecx+4]
  00009	73 09		 jae	 SHORT $LN3@Inside@2
  0000b	39 01		 cmp	 DWORD PTR [ecx], eax
  0000d	77 05		 ja	 SHORT $LN3@Inside@2
  0000f	33 c0		 xor	 eax, eax
  00011	40		 inc	 eax
  00012	eb 02		 jmp	 SHORT $LN4@Inside@2
$LN3@Inside@2:
  00014	33 c0		 xor	 eax, eax
$LN4@Inside@2:

; 1287 : 		}

  00016	5d		 pop	 ebp
  00017	c2 04 00	 ret	 4
?_Inside@?$vector@HV?$allocator@H@std@@@std@@IBE_NPBH@Z ENDP ; std::vector<int,std::allocator<int> >::_Inside
_TEXT	ENDS
PUBLIC	?_Orphan_range@?$vector@HV?$allocator@H@std@@@std@@IBEXPAH0@Z ; std::vector<int,std::allocator<int> >::_Orphan_range
; Function compile flags: /Ogsp
;	COMDAT ?_Orphan_range@?$vector@HV?$allocator@H@std@@@std@@IBEXPAH0@Z
_TEXT	SEGMENT
___formal$ = 8						; size = 4
___formal$ = 12						; size = 4
?_Orphan_range@?$vector@HV?$allocator@H@std@@@std@@IBEXPAH0@Z PROC ; std::vector<int,std::allocator<int> >::_Orphan_range, COMDAT
; _this$ = ecx

; 1454 : 		}

  00000	c2 08 00	 ret	 8
?_Orphan_range@?$vector@HV?$allocator@H@std@@@std@@IBEXPAH0@Z ENDP ; std::vector<int,std::allocator<int> >::_Orphan_range
_TEXT	ENDS
PUBLIC	?_Inside@?$vector@UNewShopPullDownItem@@V?$allocator@UNewShopPullDownItem@@@std@@@std@@IBE_NPBUNewShopPullDownItem@@@Z ; std::vector<NewShopPullDownItem,std::allocator<NewShopPullDownItem> >::_Inside
; Function compile flags: /Ogsp
;	COMDAT ?_Inside@?$vector@UNewShopPullDownItem@@V?$allocator@UNewShopPullDownItem@@@std@@@std@@IBE_NPBUNewShopPullDownItem@@@Z
_TEXT	SEGMENT
__Ptr$ = 8						; size = 4
?_Inside@?$vector@UNewShopPullDownItem@@V?$allocator@UNewShopPullDownItem@@@std@@@std@@IBE_NPBUNewShopPullDownItem@@@Z PROC ; std::vector<NewShopPullDownItem,std::allocator<NewShopPullDownItem> >::_Inside, COMDAT
; _this$ = ecx

; 1285 : 		{	// test if _Ptr points inside vector

  00000	55		 push	 ebp
  00001	8b ec		 mov	 ebp, esp

; 1286 : 		return (_Ptr < this->_Mylast && this->_Myfirst <= _Ptr);

  00003	8b 45 08	 mov	 eax, DWORD PTR __Ptr$[ebp]
  00006	3b 41 04	 cmp	 eax, DWORD PTR [ecx+4]
  00009	73 09		 jae	 SHORT $LN3@Inside@3
  0000b	39 01		 cmp	 DWORD PTR [ecx], eax
  0000d	77 05		 ja	 SHORT $LN3@Inside@3
  0000f	33 c0		 xor	 eax, eax
  00011	40		 inc	 eax
  00012	eb 02		 jmp	 SHORT $LN4@Inside@3
$LN3@Inside@3:
  00014	33 c0		 xor	 eax, eax
$LN4@Inside@3:

; 1287 : 		}

  00016	5d		 pop	 ebp
  00017	c2 04 00	 ret	 4
?_Inside@?$vector@UNewShopPullDownItem@@V?$allocator@UNewShopPullDownItem@@@std@@@std@@IBE_NPBUNewShopPullDownItem@@@Z ENDP ; std::vector<NewShopPullDownItem,std::allocator<NewShopPullDownItem> >::_Inside
_TEXT	ENDS
PUBLIC	?_Orphan_range@?$vector@UNewShopPullDownItem@@V?$allocator@UNewShopPullDownItem@@@std@@@std@@IBEXPAUNewShopPullDownItem@@0@Z ; std::vector<NewShopPullDownItem,std::allocator<NewShopPullDownItem> >::_Orphan_range
; Function compile flags: /Ogsp
;	COMDAT ?_Orphan_range@?$vector@UNewShopPullDownItem@@V?$allocator@UNewShopPullDownItem@@@std@@@std@@IBEXPAUNewShopPullDownItem@@0@Z
_TEXT	SEGMENT
___formal$ = 8						; size = 4
___formal$ = 12						; size = 4
?_Orphan_range@?$vector@UNewShopPullDownItem@@V?$allocator@UNewShopPullDownItem@@@std@@@std@@IBEXPAUNewShopPullDownItem@@0@Z PROC ; std::vector<NewShopPullDownItem,std::allocator<NewShopPullDownItem> >::_Orphan_range, COMDAT
; _this$ = ecx

; 1454 : 		}

  00000	c2 08 00	 ret	 8
?_Orphan_range@?$vector@UNewShopPullDownItem@@V?$allocator@UNewShopPullDownItem@@@std@@@std@@IBEXPAUNewShopPullDownItem@@0@Z ENDP ; std::vector<NewShopPullDownItem,std::allocator<NewShopPullDownItem> >::_Orphan_range
_TEXT	ENDS
PUBLIC	??1?$_Vector_val@UNewShopPullDownItem@@V?$allocator@UNewShopPullDownItem@@@std@@@std@@QAE@XZ ; std::_Vector_val<NewShopPullDownItem,std::allocator<NewShopPullDownItem> >::~_Vector_val<NewShopPullDownItem,std::allocator<NewShopPullDownItem> >
; Function compile flags: /Ogsp
;	COMDAT ??1?$_Vector_val@UNewShopPullDownItem@@V?$allocator@UNewShopPullDownItem@@@std@@@std@@QAE@XZ
_TEXT	SEGMENT
??1?$_Vector_val@UNewShopPullDownItem@@V?$allocator@UNewShopPullDownItem@@@std@@@std@@QAE@XZ PROC ; std::_Vector_val<NewShopPullDownItem,std::allocator<NewShopPullDownItem> >::~_Vector_val<NewShopPullDownItem,std::allocator<NewShopPullDownItem> >, COMDAT
; _this$ = ecx

; 434  : 		}

  00000	c3		 ret	 0
??1?$_Vector_val@UNewShopPullDownItem@@V?$allocator@UNewShopPullDownItem@@@std@@@std@@QAE@XZ ENDP ; std::_Vector_val<NewShopPullDownItem,std::allocator<NewShopPullDownItem> >::~_Vector_val<NewShopPullDownItem,std::allocator<NewShopPullDownItem> >
_TEXT	ENDS
PUBLIC	??0?$allocator@UNewShopPullDownItem@@@std@@QAE@XZ ; std::allocator<NewShopPullDownItem>::allocator<NewShopPullDownItem>
; Function compile flags: /Ogsp
; File c:\program files (x86)\microsoft visual studio 10.0\vc\include\xmemory
;	COMDAT ??0?$allocator@UNewShopPullDownItem@@@std@@QAE@XZ
_TEXT	SEGMENT
??0?$allocator@UNewShopPullDownItem@@@std@@QAE@XZ PROC	; std::allocator<NewShopPullDownItem>::allocator<NewShopPullDownItem>, COMDAT
; _this$ = ecx

; 161  : 	_ALLOCATOR() _THROW0()

  00000	8b c1		 mov	 eax, ecx

; 162  : 		{	// construct default allocator (do nothing)
; 163  : 		}

  00002	c3		 ret	 0
??0?$allocator@UNewShopPullDownItem@@@std@@QAE@XZ ENDP	; std::allocator<NewShopPullDownItem>::allocator<NewShopPullDownItem>
_TEXT	ENDS
PUBLIC	?capacity@?$vector@UNewShopPullDownItem@@V?$allocator@UNewShopPullDownItem@@@std@@@std@@QBEIXZ ; std::vector<NewShopPullDownItem,std::allocator<NewShopPullDownItem> >::capacity
; Function compile flags: /Ogsp
; File c:\program files (x86)\microsoft visual studio 10.0\vc\include\vector
;	COMDAT ?capacity@?$vector@UNewShopPullDownItem@@V?$allocator@UNewShopPullDownItem@@@std@@@std@@QBEIXZ
_TEXT	SEGMENT
?capacity@?$vector@UNewShopPullDownItem@@V?$allocator@UNewShopPullDownItem@@@std@@@std@@QBEIXZ PROC ; std::vector<NewShopPullDownItem,std::allocator<NewShopPullDownItem> >::capacity, COMDAT
; _this$ = ecx

; 777  : 		return (this->_Myend - this->_Myfirst);

  00000	8b 41 08	 mov	 eax, DWORD PTR [ecx+8]
  00003	2b 01		 sub	 eax, DWORD PTR [ecx]
  00005	6a 50		 push	 80			; 00000050H
  00007	99		 cdq
  00008	59		 pop	 ecx
  00009	f7 f9		 idiv	 ecx

; 778  : 		}

  0000b	c3		 ret	 0
?capacity@?$vector@UNewShopPullDownItem@@V?$allocator@UNewShopPullDownItem@@@std@@@std@@QBEIXZ ENDP ; std::vector<NewShopPullDownItem,std::allocator<NewShopPullDownItem> >::capacity
_TEXT	ENDS
PUBLIC	??_C@_0BD@OLBABOEK@vector?$DMT?$DO?5too?5long?$AA@ ; `string'
PUBLIC	?_Xlen@?$vector@UNewShopPullDownItem@@V?$allocator@UNewShopPullDownItem@@@std@@@std@@IBEXXZ ; std::vector<NewShopPullDownItem,std::allocator<NewShopPullDownItem> >::_Xlen
EXTRN	__imp_?_Xlength_error@std@@YAXPBD@Z:PROC
;	COMDAT ??_C@_0BD@OLBABOEK@vector?$DMT?$DO?5too?5long?$AA@
CONST	SEGMENT
??_C@_0BD@OLBABOEK@vector?$DMT?$DO?5too?5long?$AA@ DB 'vector<T> too long'
	DB	00H						; `string'
; Function compile flags: /Ogsp
CONST	ENDS
;	COMDAT ?_Xlen@?$vector@UNewShopPullDownItem@@V?$allocator@UNewShopPullDownItem@@@std@@@std@@IBEXXZ
_TEXT	SEGMENT
?_Xlen@?$vector@UNewShopPullDownItem@@V?$allocator@UNewShopPullDownItem@@@std@@@std@@IBEXXZ PROC ; std::vector<NewShopPullDownItem,std::allocator<NewShopPullDownItem> >::_Xlen, COMDAT
; _this$ = ecx

; 1427 : 		_Xlength_error("vector<T> too long");

  00000	68 00 00 00 00	 push	 OFFSET ??_C@_0BD@OLBABOEK@vector?$DMT?$DO?5too?5long?$AA@
  00005	ff 15 00 00 00
	00		 call	 DWORD PTR __imp_?_Xlength_error@std@@YAXPBD@Z
$LN4@Xlen:
$LN3@Xlen:
  0000b	cc		 int	 3
?_Xlen@?$vector@UNewShopPullDownItem@@V?$allocator@UNewShopPullDownItem@@@std@@@std@@IBEXXZ ENDP ; std::vector<NewShopPullDownItem,std::allocator<NewShopPullDownItem> >::_Xlen
_TEXT	ENDS
PUBLIC	??0?$allocator@UNewShopPullDownItem@@@std@@QAE@ABV01@@Z ; std::allocator<NewShopPullDownItem>::allocator<NewShopPullDownItem>
; Function compile flags: /Ogsp
; File c:\program files (x86)\microsoft visual studio 10.0\vc\include\xmemory
;	COMDAT ??0?$allocator@UNewShopPullDownItem@@@std@@QAE@ABV01@@Z
_TEXT	SEGMENT
___formal$ = 8						; size = 4
??0?$allocator@UNewShopPullDownItem@@@std@@QAE@ABV01@@Z PROC ; std::allocator<NewShopPullDownItem>::allocator<NewShopPullDownItem>, COMDAT
; _this$ = ecx

; 165  : 	_ALLOCATOR(const _ALLOCATOR<_Ty>&) _THROW0()

  00000	8b c1		 mov	 eax, ecx

; 166  : 		{	// construct by copying (do nothing)
; 167  : 		}

  00002	c2 04 00	 ret	 4
??0?$allocator@UNewShopPullDownItem@@@std@@QAE@ABV01@@Z ENDP ; std::allocator<NewShopPullDownItem>::allocator<NewShopPullDownItem>
_TEXT	ENDS
PUBLIC	?deallocate@?$allocator@UNewShopPullDownItem@@@std@@QAEXPAUNewShopPullDownItem@@I@Z ; std::allocator<NewShopPullDownItem>::deallocate
; Function compile flags: /Ogsp
;	COMDAT ?deallocate@?$allocator@UNewShopPullDownItem@@@std@@QAEXPAUNewShopPullDownItem@@I@Z
_TEXT	SEGMENT
__Ptr$ = 8						; size = 4
___formal$ = 12						; size = 4
?deallocate@?$allocator@UNewShopPullDownItem@@@std@@QAEXPAUNewShopPullDownItem@@I@Z PROC ; std::allocator<NewShopPullDownItem>::deallocate, COMDAT
; _this$ = ecx

; 181  : 		{	// deallocate object at _Ptr, ignore size

  00000	55		 push	 ebp
  00001	8b ec		 mov	 ebp, esp

; 182  : 		::operator delete(_Ptr);

  00003	ff 75 08	 push	 DWORD PTR __Ptr$[ebp]
  00006	e8 00 00 00 00	 call	 ??3@YAXPAX@Z		; operator delete
  0000b	59		 pop	 ecx

; 183  : 		}

  0000c	5d		 pop	 ebp
  0000d	c2 08 00	 ret	 8
?deallocate@?$allocator@UNewShopPullDownItem@@@std@@QAEXPAUNewShopPullDownItem@@I@Z ENDP ; std::allocator<NewShopPullDownItem>::deallocate
_TEXT	ENDS
PUBLIC	??0?$_Vector_const_iterator@V?$_Vector_val@UNewShopPullDownItem@@V?$allocator@UNewShopPullDownItem@@@std@@@std@@@std@@QAE@PAUNewShopPullDownItem@@PBU_Container_base0@1@@Z ; std::_Vector_const_iterator<std::_Vector_val<NewShopPullDownItem,std::allocator<NewShopPullDownItem> > >::_Vector_const_iterator<std::_Vector_val<NewShopPullDownItem,std::allocator<NewShopPullDownItem> > >
; Function compile flags: /Ogsp
; File c:\program files (x86)\microsoft visual studio 10.0\vc\include\vector
;	COMDAT ??0?$_Vector_const_iterator@V?$_Vector_val@UNewShopPullDownItem@@V?$allocator@UNewShopPullDownItem@@@std@@@std@@@std@@QAE@PAUNewShopPullDownItem@@PBU_Container_base0@1@@Z
_TEXT	SEGMENT
__Parg$ = 8						; size = 4
__Pvector$ = 12						; size = 4
??0?$_Vector_const_iterator@V?$_Vector_val@UNewShopPullDownItem@@V?$allocator@UNewShopPullDownItem@@@std@@@std@@@std@@QAE@PAUNewShopPullDownItem@@PBU_Container_base0@1@@Z PROC ; std::_Vector_const_iterator<std::_Vector_val<NewShopPullDownItem,std::allocator<NewShopPullDownItem> > >::_Vector_const_iterator<std::_Vector_val<NewShopPullDownItem,std::allocator<NewShopPullDownItem> > >, COMDAT
; _this$ = ecx

; 45   : 		{	// construct with pointer _Parg

  00000	55		 push	 ebp
  00001	8b ec		 mov	 ebp, esp
  00003	8b c1		 mov	 eax, ecx
  00005	8b 4d 08	 mov	 ecx, DWORD PTR __Parg$[ebp]
  00008	89 08		 mov	 DWORD PTR [eax], ecx

; 46   : 		this->_Adopt(_Pvector);
; 47   : 		}

  0000a	5d		 pop	 ebp
  0000b	c2 08 00	 ret	 8
??0?$_Vector_const_iterator@V?$_Vector_val@UNewShopPullDownItem@@V?$allocator@UNewShopPullDownItem@@@std@@@std@@@std@@QAE@PAUNewShopPullDownItem@@PBU_Container_base0@1@@Z ENDP ; std::_Vector_const_iterator<std::_Vector_val<NewShopPullDownItem,std::allocator<NewShopPullDownItem> > >::_Vector_const_iterator<std::_Vector_val<NewShopPullDownItem,std::allocator<NewShopPullDownItem> > >
_TEXT	ENDS
PUBLIC	?max_size@?$allocator@UNewShopPullDownItem@@@std@@QBEIXZ ; std::allocator<NewShopPullDownItem>::max_size
; Function compile flags: /Ogsp
; File c:\program files (x86)\microsoft visual studio 10.0\vc\include\xmemory
;	COMDAT ?max_size@?$allocator@UNewShopPullDownItem@@@std@@QBEIXZ
_TEXT	SEGMENT
?max_size@?$allocator@UNewShopPullDownItem@@@std@@QBEIXZ PROC ; std::allocator<NewShopPullDownItem>::max_size, COMDAT
; _this$ = ecx

; 218  : 		_SIZT _Count = (_SIZT)(-1) / sizeof (_Ty);
; 219  : 		return (0 < _Count ? _Count : 1);

  00000	b8 33 33 33 03	 mov	 eax, 53687091		; 03333333H

; 220  : 		}

  00005	c3		 ret	 0
?max_size@?$allocator@UNewShopPullDownItem@@@std@@QBEIXZ ENDP ; std::allocator<NewShopPullDownItem>::max_size
_TEXT	ENDS
PUBLIC	?_Compat@?$_Vector_const_iterator@V?$_Vector_val@UNewShopPullDownItem@@V?$allocator@UNewShopPullDownItem@@@std@@@std@@@std@@QBEXABV12@@Z ; std::_Vector_const_iterator<std::_Vector_val<NewShopPullDownItem,std::allocator<NewShopPullDownItem> > >::_Compat
; Function compile flags: /Ogsp
; File c:\program files (x86)\microsoft visual studio 10.0\vc\include\vector
;	COMDAT ?_Compat@?$_Vector_const_iterator@V?$_Vector_val@UNewShopPullDownItem@@V?$allocator@UNewShopPullDownItem@@@std@@@std@@@std@@QBEXABV12@@Z
_TEXT	SEGMENT
___formal$ = 8						; size = 4
?_Compat@?$_Vector_const_iterator@V?$_Vector_val@UNewShopPullDownItem@@V?$allocator@UNewShopPullDownItem@@@std@@@std@@@std@@QBEXABV12@@Z PROC ; std::_Vector_const_iterator<std::_Vector_val<NewShopPullDownItem,std::allocator<NewShopPullDownItem> > >::_Compat, COMDAT
; _this$ = ecx

; 253  : 		}

  00000	c2 04 00	 ret	 4
?_Compat@?$_Vector_const_iterator@V?$_Vector_val@UNewShopPullDownItem@@V?$allocator@UNewShopPullDownItem@@@std@@@std@@@std@@QBEXABV12@@Z ENDP ; std::_Vector_const_iterator<std::_Vector_val<NewShopPullDownItem,std::allocator<NewShopPullDownItem> > >::_Compat
_TEXT	ENDS
PUBLIC	??$addressof@$$CBVioHashString@@@std@@YAPBVioHashString@@ABV1@@Z ; std::addressof<ioHashString const >
; Function compile flags: /Ogsp
; File c:\program files (x86)\microsoft visual studio 10.0\vc\include\xmemory
;	COMDAT ??$addressof@$$CBVioHashString@@@std@@YAPBVioHashString@@ABV1@@Z
_TEXT	SEGMENT
__Val$ = 8						; size = 4
??$addressof@$$CBVioHashString@@@std@@YAPBVioHashString@@ABV1@@Z PROC ; std::addressof<ioHashString const >, COMDAT

; 110  : 	{	// return address of _Val

  00000	55		 push	 ebp
  00001	8b ec		 mov	 ebp, esp

; 111  : 	return ((_Ty *) &(char&)_Val);

  00003	8b 45 08	 mov	 eax, DWORD PTR __Val$[ebp]

; 112  : 	}

  00006	5d		 pop	 ebp
  00007	c3		 ret	 0
??$addressof@$$CBVioHashString@@@std@@YAPBVioHashString@@ABV1@@Z ENDP ; std::addressof<ioHashString const >
_TEXT	ENDS
PUBLIC	??$addressof@H@std@@YAPAHAAH@Z			; std::addressof<int>
; Function compile flags: /Ogsp
;	COMDAT ??$addressof@H@std@@YAPAHAAH@Z
_TEXT	SEGMENT
__Val$ = 8						; size = 4
??$addressof@H@std@@YAPAHAAH@Z PROC			; std::addressof<int>, COMDAT

; 110  : 	{	// return address of _Val

  00000	55		 push	 ebp
  00001	8b ec		 mov	 ebp, esp

; 111  : 	return ((_Ty *) &(char&)_Val);

  00003	8b 45 08	 mov	 eax, DWORD PTR __Val$[ebp]

; 112  : 	}

  00006	5d		 pop	 ebp
  00007	c3		 ret	 0
??$addressof@H@std@@YAPAHAAH@Z ENDP			; std::addressof<int>
_TEXT	ENDS
PUBLIC	??$addressof@$$CBUNewShopPullDownItem@@@std@@YAPBUNewShopPullDownItem@@ABU1@@Z ; std::addressof<NewShopPullDownItem const >
; Function compile flags: /Ogsp
;	COMDAT ??$addressof@$$CBUNewShopPullDownItem@@@std@@YAPBUNewShopPullDownItem@@ABU1@@Z
_TEXT	SEGMENT
__Val$ = 8						; size = 4
??$addressof@$$CBUNewShopPullDownItem@@@std@@YAPBUNewShopPullDownItem@@ABU1@@Z PROC ; std::addressof<NewShopPullDownItem const >, COMDAT

; 110  : 	{	// return address of _Val

  00000	55		 push	 ebp
  00001	8b ec		 mov	 ebp, esp

; 111  : 	return ((_Ty *) &(char&)_Val);

  00003	8b 45 08	 mov	 eax, DWORD PTR __Val$[ebp]

; 112  : 	}

  00006	5d		 pop	 ebp
  00007	c3		 ret	 0
??$addressof@$$CBUNewShopPullDownItem@@@std@@YAPBUNewShopPullDownItem@@ABU1@@Z ENDP ; std::addressof<NewShopPullDownItem const >
_TEXT	ENDS
PUBLIC	__TI2?AVbad_alloc@std@@
PUBLIC	??$_Allocate@UNewShopPullDownItem@@@std@@YAPAUNewShopPullDownItem@@IPAU1@@Z ; std::_Allocate<NewShopPullDownItem>
PUBLIC	__CTA2?AVbad_alloc@std@@
PUBLIC	__CT??_R0?AVbad_alloc@std@@@8??0bad_alloc@std@@QAE@ABV01@@Z12
PUBLIC	??0bad_alloc@std@@QAE@ABV01@@Z			; std::bad_alloc::bad_alloc
PUBLIC	__CT??_R0?AVexception@std@@@8??0exception@std@@QAE@ABV01@@Z12
EXTRN	??2@YAPAXI@Z:PROC				; operator new
EXTRN	__CxxThrowException@8:PROC
EXTRN	??0exception@std@@QAE@ABV01@@Z:PROC		; std::exception::exception
;	COMDAT __CT??_R0?AVexception@std@@@8??0exception@std@@QAE@ABV01@@Z12
; File c:\program files (x86)\microsoft visual studio 10.0\vc\include\exception
xdata$x	SEGMENT
__CT??_R0?AVexception@std@@@8??0exception@std@@QAE@ABV01@@Z12 DD 00H
	DD	FLAT:??_R0?AVexception@std@@@8
	DD	00H
	DD	0ffffffffH
	ORG $+4
	DD	0cH
	DD	FLAT:??0exception@std@@QAE@ABV01@@Z
xdata$x	ENDS
;	COMDAT __CT??_R0?AVbad_alloc@std@@@8??0bad_alloc@std@@QAE@ABV01@@Z12
xdata$x	SEGMENT
__CT??_R0?AVbad_alloc@std@@@8??0bad_alloc@std@@QAE@ABV01@@Z12 DD 00H
	DD	FLAT:??_R0?AVbad_alloc@std@@@8
	DD	00H
	DD	0ffffffffH
	ORG $+4
	DD	0cH
	DD	FLAT:??0bad_alloc@std@@QAE@ABV01@@Z
xdata$x	ENDS
;	COMDAT __CTA2?AVbad_alloc@std@@
xdata$x	SEGMENT
__CTA2?AVbad_alloc@std@@ DD 02H
	DD	FLAT:__CT??_R0?AVbad_alloc@std@@@8??0bad_alloc@std@@QAE@ABV01@@Z12
	DD	FLAT:__CT??_R0?AVexception@std@@@8??0exception@std@@QAE@ABV01@@Z12
xdata$x	ENDS
;	COMDAT __TI2?AVbad_alloc@std@@
xdata$x	SEGMENT
__TI2?AVbad_alloc@std@@ DD 00H
	DD	FLAT:??1bad_alloc@std@@UAE@XZ
	DD	00H
	DD	FLAT:__CTA2?AVbad_alloc@std@@
; Function compile flags: /Ogsp
; File c:\program files (x86)\microsoft visual studio 10.0\vc\include\xmemory
xdata$x	ENDS
;	COMDAT ??$_Allocate@UNewShopPullDownItem@@@std@@YAPAUNewShopPullDownItem@@IPAU1@@Z
_TEXT	SEGMENT
$T515443 = -12						; size = 12
$T515448 = 8						; size = 4
__Count$ = 8						; size = 4
___formal$ = 12						; size = 4
??$_Allocate@UNewShopPullDownItem@@@std@@YAPAUNewShopPullDownItem@@IPAU1@@Z PROC ; std::_Allocate<NewShopPullDownItem>, COMDAT

; 30   : 	{	// allocate storage for _Count elements of type _Ty

  00000	55		 push	 ebp
  00001	8b ec		 mov	 ebp, esp

; 31   : 	void *_Ptr = 0;
; 32   : 
; 33   : 	if (_Count <= 0)

  00003	8b 4d 08	 mov	 ecx, DWORD PTR __Count$[ebp]
  00006	83 ec 0c	 sub	 esp, 12			; 0000000cH
  00009	33 c0		 xor	 eax, eax
  0000b	85 c9		 test	 ecx, ecx

; 34   : 		_Count = 0;
; 35   : 	else if (((_SIZT)(-1) / sizeof (_Ty) < _Count)

  0000d	74 3c		 je	 SHORT $LN5@Allocate

; 36   : 		|| (_Ptr = ::operator new(_Count * sizeof (_Ty))) == 0)

  0000f	81 f9 33 33 33
	03		 cmp	 ecx, 53687091		; 03333333H
  00015	77 0e		 ja	 SHORT $LN1@Allocate
  00017	6b c9 50	 imul	 ecx, 80			; 00000050H
  0001a	51		 push	 ecx
  0001b	e8 00 00 00 00	 call	 ??2@YAPAXI@Z		; operator new
  00020	59		 pop	 ecx
  00021	85 c0		 test	 eax, eax

; 38   : 
; 39   : 	return ((_Ty _FARQ *)_Ptr);

  00023	75 26		 jne	 SHORT $LN5@Allocate
$LN1@Allocate:

; 37   : 		_THROW_NCEE(bad_alloc, 0);

  00025	83 65 08 00	 and	 DWORD PTR $T515448[ebp], 0
  00029	8d 45 08	 lea	 eax, DWORD PTR $T515448[ebp]
  0002c	50		 push	 eax
  0002d	8d 4d f4	 lea	 ecx, DWORD PTR $T515443[ebp]
  00030	ff 15 00 00 00
	00		 call	 DWORD PTR __imp_??0exception@std@@QAE@ABQBD@Z
  00036	68 00 00 00 00	 push	 OFFSET __TI2?AVbad_alloc@std@@
  0003b	8d 45 f4	 lea	 eax, DWORD PTR $T515443[ebp]
  0003e	50		 push	 eax
  0003f	c7 45 f4 00 00
	00 00		 mov	 DWORD PTR $T515443[ebp], OFFSET ??_7bad_alloc@std@@6B@
  00046	e8 00 00 00 00	 call	 __CxxThrowException@8
$LN10@Allocate:
$LN5@Allocate:

; 40   : 	}

  0004b	c9		 leave
  0004c	c3		 ret	 0
$LN9@Allocate:
??$_Allocate@UNewShopPullDownItem@@@std@@YAPAUNewShopPullDownItem@@IPAU1@@Z ENDP ; std::_Allocate<NewShopPullDownItem>
_TEXT	ENDS
PUBLIC	??G?$_Vector_const_iterator@V?$_Vector_val@UNewShopPullDownItem@@V?$allocator@UNewShopPullDownItem@@@std@@@std@@@std@@QBEHABV01@@Z ; std::_Vector_const_iterator<std::_Vector_val<NewShopPullDownItem,std::allocator<NewShopPullDownItem> > >::operator-
; Function compile flags: /Ogsp
; File c:\program files (x86)\microsoft visual studio 10.0\vc\include\vector
;	COMDAT ??G?$_Vector_const_iterator@V?$_Vector_val@UNewShopPullDownItem@@V?$allocator@UNewShopPullDownItem@@@std@@@std@@@std@@QBEHABV01@@Z
_TEXT	SEGMENT
__Right$ = 8						; size = 4
??G?$_Vector_const_iterator@V?$_Vector_val@UNewShopPullDownItem@@V?$allocator@UNewShopPullDownItem@@@std@@@std@@@std@@QBEHABV01@@Z PROC ; std::_Vector_const_iterator<std::_Vector_val<NewShopPullDownItem,std::allocator<NewShopPullDownItem> > >::operator-, COMDAT
; _this$ = ecx

; 190  : 		{	// return difference of iterators

  00000	55		 push	 ebp
  00001	8b ec		 mov	 ebp, esp

; 191  : 		_Compat(_Right);
; 192  : 		return (this->_Ptr - _Right._Ptr);

  00003	8b 01		 mov	 eax, DWORD PTR [ecx]
  00005	8b 4d 08	 mov	 ecx, DWORD PTR __Right$[ebp]
  00008	2b 01		 sub	 eax, DWORD PTR [ecx]
  0000a	6a 50		 push	 80			; 00000050H
  0000c	99		 cdq
  0000d	59		 pop	 ecx
  0000e	f7 f9		 idiv	 ecx

; 193  : 		}

  00010	5d		 pop	 ebp
  00011	c2 04 00	 ret	 4
??G?$_Vector_const_iterator@V?$_Vector_val@UNewShopPullDownItem@@V?$allocator@UNewShopPullDownItem@@@std@@@std@@@std@@QBEHABV01@@Z ENDP ; std::_Vector_const_iterator<std::_Vector_val<NewShopPullDownItem,std::allocator<NewShopPullDownItem> > >::operator-
_TEXT	ENDS
PUBLIC	??$forward@AAUNewShopPullDownItem@@@std@@YAAAUNewShopPullDownItem@@AAU1@@Z ; std::forward<NewShopPullDownItem &>
; Function compile flags: /Ogsp
; File c:\program files (x86)\microsoft visual studio 10.0\vc\include\utility
;	COMDAT ??$forward@AAUNewShopPullDownItem@@@std@@YAAAUNewShopPullDownItem@@AAU1@@Z
_TEXT	SEGMENT
__Arg$ = 8						; size = 4
??$forward@AAUNewShopPullDownItem@@@std@@YAAAUNewShopPullDownItem@@AAU1@@Z PROC ; std::forward<NewShopPullDownItem &>, COMDAT

; 78   : 	{	// forward _Arg, given explicitly specified type parameter

  00000	55		 push	 ebp
  00001	8b ec		 mov	 ebp, esp

; 79   : 	return ((_Ty&&)_Arg);

  00003	8b 45 08	 mov	 eax, DWORD PTR __Arg$[ebp]

; 80   : 	}

  00006	5d		 pop	 ebp
  00007	c3		 ret	 0
??$forward@AAUNewShopPullDownItem@@@std@@YAAAUNewShopPullDownItem@@AAU1@@Z ENDP ; std::forward<NewShopPullDownItem &>
_TEXT	ENDS
PUBLIC	??$forward@ABUNewShopPullDownItem@@@std@@YAABUNewShopPullDownItem@@ABU1@@Z ; std::forward<NewShopPullDownItem const &>
; Function compile flags: /Ogsp
;	COMDAT ??$forward@ABUNewShopPullDownItem@@@std@@YAABUNewShopPullDownItem@@ABU1@@Z
_TEXT	SEGMENT
__Arg$ = 8						; size = 4
??$forward@ABUNewShopPullDownItem@@@std@@YAABUNewShopPullDownItem@@ABU1@@Z PROC ; std::forward<NewShopPullDownItem const &>, COMDAT

; 78   : 	{	// forward _Arg, given explicitly specified type parameter

  00000	55		 push	 ebp
  00001	8b ec		 mov	 ebp, esp

; 79   : 	return ((_Ty&&)_Arg);

  00003	8b 45 08	 mov	 eax, DWORD PTR __Arg$[ebp]

; 80   : 	}

  00006	5d		 pop	 ebp
  00007	c3		 ret	 0
??$forward@ABUNewShopPullDownItem@@@std@@YAABUNewShopPullDownItem@@ABU1@@Z ENDP ; std::forward<NewShopPullDownItem const &>
_TEXT	ENDS
PUBLIC	??$_Ptr_cat@UNewShopPullDownItem@@U1@@std@@YA?AU_Nonscalar_ptr_iterator_tag@0@PAUNewShopPullDownItem@@0@Z ; std::_Ptr_cat<NewShopPullDownItem,NewShopPullDownItem>
; Function compile flags: /Ogsp
; File c:\program files (x86)\microsoft visual studio 10.0\vc\include\xutility
;	COMDAT ??$_Ptr_cat@UNewShopPullDownItem@@U1@@std@@YA?AU_Nonscalar_ptr_iterator_tag@0@PAUNewShopPullDownItem@@0@Z
_TEXT	SEGMENT
__Cat$ = -1						; size = 1
___formal$ = 8						; size = 4
___formal$ = 12						; size = 4
??$_Ptr_cat@UNewShopPullDownItem@@U1@@std@@YA?AU_Nonscalar_ptr_iterator_tag@0@PAUNewShopPullDownItem@@0@Z PROC ; std::_Ptr_cat<NewShopPullDownItem,NewShopPullDownItem>, COMDAT

; 516  : 	{	// return pointer category from pointers

  00000	55		 push	 ebp
  00001	8b ec		 mov	 ebp, esp
  00003	51		 push	 ecx

; 517  : 	typename _Ptr_cat_helper<_Elem1, _Elem2>::_Type _Cat;
; 518  : 	return (_Cat);

  00004	8a 45 ff	 mov	 al, BYTE PTR __Cat$[ebp]

; 519  : 	}

  00007	c9		 leave
  00008	c3		 ret	 0
??$_Ptr_cat@UNewShopPullDownItem@@U1@@std@@YA?AU_Nonscalar_ptr_iterator_tag@0@PAUNewShopPullDownItem@@0@Z ENDP ; std::_Ptr_cat<NewShopPullDownItem,NewShopPullDownItem>
_TEXT	ENDS
PUBLIC	??0NewShopPullDownItem@@QAE@ABU0@@Z		; NewShopPullDownItem::NewShopPullDownItem
EXTRN	__imp_??0ioHashString@@QAE@ABV0@@Z:PROC
;	COMDAT xdata$x
xdata$x	SEGMENT
__unwindtable$??0NewShopPullDownItem@@QAE@ABU0@@Z DD 0ffffffffH
	DD	FLAT:__unwindfunclet$??0NewShopPullDownItem@@QAE@ABU0@@Z$0
	DD	00H
	DD	FLAT:__unwindfunclet$??0NewShopPullDownItem@@QAE@ABU0@@Z$1
__ehfuncinfo$??0NewShopPullDownItem@@QAE@ABU0@@Z DD 019930522H
	DD	02H
	DD	FLAT:__unwindtable$??0NewShopPullDownItem@@QAE@ABU0@@Z
	DD	2 DUP(00H)
	DD	2 DUP(00H)
	DD	00H
	DD	01H
; Function compile flags: /Ogsp
xdata$x	ENDS
;	COMDAT ??0NewShopPullDownItem@@QAE@ABU0@@Z
_TEXT	SEGMENT
_this$ = -16						; size = 4
__$EHRec$ = -12						; size = 12
___that$ = 8						; size = 4
??0NewShopPullDownItem@@QAE@ABU0@@Z PROC		; NewShopPullDownItem::NewShopPullDownItem, COMDAT
; _this$ = ecx
  00000	6a 04		 push	 4
  00002	b8 00 00 00 00	 mov	 eax, __ehhandler$??0NewShopPullDownItem@@QAE@ABU0@@Z
  00007	e8 00 00 00 00	 call	 __EH_prolog3
  0000c	8b f1		 mov	 esi, ecx
  0000e	89 75 f0	 mov	 DWORD PTR _this$[ebp], esi
  00011	8b 7d 08	 mov	 edi, DWORD PTR ___that$[ebp]
  00014	8b 1d 00 00 00
	00		 mov	 ebx, DWORD PTR __imp_??0ioHashString@@QAE@ABV0@@Z
  0001a	57		 push	 edi
  0001b	ff d3		 call	 ebx
  0001d	8b 47 10	 mov	 eax, DWORD PTR [edi+16]
  00020	83 65 fc 00	 and	 DWORD PTR __$EHRec$[ebp+8], 0
  00024	89 46 10	 mov	 DWORD PTR [esi+16], eax
  00027	8b 47 14	 mov	 eax, DWORD PTR [edi+20]
  0002a	89 46 14	 mov	 DWORD PTR [esi+20], eax
  0002d	8a 47 18	 mov	 al, BYTE PTR [edi+24]
  00030	88 46 18	 mov	 BYTE PTR [esi+24], al
  00033	8b 47 1c	 mov	 eax, DWORD PTR [edi+28]
  00036	89 46 1c	 mov	 DWORD PTR [esi+28], eax
  00039	8a 47 20	 mov	 al, BYTE PTR [edi+32]
  0003c	88 46 20	 mov	 BYTE PTR [esi+32], al
  0003f	8d 47 24	 lea	 eax, DWORD PTR [edi+36]
  00042	50		 push	 eax
  00043	8d 4e 24	 lea	 ecx, DWORD PTR [esi+36]
  00046	ff d3		 call	 ebx
  00048	8b 47 34	 mov	 eax, DWORD PTR [edi+52]
  0004b	89 46 34	 mov	 DWORD PTR [esi+52], eax
  0004e	8a 47 38	 mov	 al, BYTE PTR [edi+56]
  00051	88 46 38	 mov	 BYTE PTR [esi+56], al
  00054	8d 47 3c	 lea	 eax, DWORD PTR [edi+60]
  00057	50		 push	 eax
  00058	8d 4e 3c	 lea	 ecx, DWORD PTR [esi+60]
  0005b	c6 45 fc 01	 mov	 BYTE PTR __$EHRec$[ebp+8], 1
  0005f	ff d3		 call	 ebx
  00061	8b 47 4c	 mov	 eax, DWORD PTR [edi+76]
  00064	89 46 4c	 mov	 DWORD PTR [esi+76], eax
  00067	8b c6		 mov	 eax, esi
  00069	e8 00 00 00 00	 call	 __EH_epilog3
  0006e	c2 04 00	 ret	 4
_TEXT	ENDS
;	COMDAT text$x
text$x	SEGMENT
__unwindfunclet$??0NewShopPullDownItem@@QAE@ABU0@@Z$0:
  00000	8b 4d f0	 mov	 ecx, DWORD PTR _this$[ebp]
  00003	ff 25 00 00 00
	00		 jmp	 DWORD PTR __imp_??1ioHashString@@QAE@XZ
__unwindfunclet$??0NewShopPullDownItem@@QAE@ABU0@@Z$1:
  00009	8b 4d f0	 mov	 ecx, DWORD PTR _this$[ebp]
  0000c	83 c1 24	 add	 ecx, 36			; 00000024H
  0000f	ff 25 00 00 00
	00		 jmp	 DWORD PTR __imp_??1ioHashString@@QAE@XZ
__ehhandler$??0NewShopPullDownItem@@QAE@ABU0@@Z:
  00015	8b 54 24 08	 mov	 edx, DWORD PTR [esp+8]
  00019	8d 42 0c	 lea	 eax, DWORD PTR [edx+12]
  0001c	8b 4a ec	 mov	 ecx, DWORD PTR [edx-20]
  0001f	33 c8		 xor	 ecx, eax
  00021	e8 00 00 00 00	 call	 @__security_check_cookie@4
  00026	b8 00 00 00 00	 mov	 eax, OFFSET __ehfuncinfo$??0NewShopPullDownItem@@QAE@ABU0@@Z
  0002b	e9 00 00 00 00	 jmp	 ___CxxFrameHandler3
text$x	ENDS
??0NewShopPullDownItem@@QAE@ABU0@@Z ENDP		; NewShopPullDownItem::NewShopPullDownItem
PUBLIC	??4NewShopPullDownItem@@QAEAAU0@ABU0@@Z		; NewShopPullDownItem::operator=
EXTRN	__imp_??4ioHashString@@QAEAAV0@ABV0@@Z:PROC
; Function compile flags: /Ogsp
;	COMDAT ??4NewShopPullDownItem@@QAEAAU0@ABU0@@Z
_TEXT	SEGMENT
___that$ = 8						; size = 4
??4NewShopPullDownItem@@QAEAAU0@ABU0@@Z PROC		; NewShopPullDownItem::operator=, COMDAT
; _this$ = ecx
  00000	55		 push	 ebp
  00001	8b ec		 mov	 ebp, esp
  00003	53		 push	 ebx
  00004	8b 1d 00 00 00
	00		 mov	 ebx, DWORD PTR __imp_??4ioHashString@@QAEAAV0@ABV0@@Z
  0000a	56		 push	 esi
  0000b	57		 push	 edi
  0000c	8b 7d 08	 mov	 edi, DWORD PTR ___that$[ebp]
  0000f	57		 push	 edi
  00010	8b f1		 mov	 esi, ecx
  00012	ff d3		 call	 ebx
  00014	8b 47 10	 mov	 eax, DWORD PTR [edi+16]
  00017	89 46 10	 mov	 DWORD PTR [esi+16], eax
  0001a	8b 47 14	 mov	 eax, DWORD PTR [edi+20]
  0001d	89 46 14	 mov	 DWORD PTR [esi+20], eax
  00020	8a 47 18	 mov	 al, BYTE PTR [edi+24]
  00023	88 46 18	 mov	 BYTE PTR [esi+24], al
  00026	8b 47 1c	 mov	 eax, DWORD PTR [edi+28]
  00029	89 46 1c	 mov	 DWORD PTR [esi+28], eax
  0002c	8a 47 20	 mov	 al, BYTE PTR [edi+32]
  0002f	88 46 20	 mov	 BYTE PTR [esi+32], al
  00032	8d 47 24	 lea	 eax, DWORD PTR [edi+36]
  00035	50		 push	 eax
  00036	8d 4e 24	 lea	 ecx, DWORD PTR [esi+36]
  00039	ff d3		 call	 ebx
  0003b	8b 47 34	 mov	 eax, DWORD PTR [edi+52]
  0003e	89 46 34	 mov	 DWORD PTR [esi+52], eax
  00041	8a 47 38	 mov	 al, BYTE PTR [edi+56]
  00044	88 46 38	 mov	 BYTE PTR [esi+56], al
  00047	8d 47 3c	 lea	 eax, DWORD PTR [edi+60]
  0004a	50		 push	 eax
  0004b	8d 4e 3c	 lea	 ecx, DWORD PTR [esi+60]
  0004e	ff d3		 call	 ebx
  00050	8b 47 4c	 mov	 eax, DWORD PTR [edi+76]
  00053	89 46 4c	 mov	 DWORD PTR [esi+76], eax
  00056	5f		 pop	 edi
  00057	8b c6		 mov	 eax, esi
  00059	5e		 pop	 esi
  0005a	5b		 pop	 ebx
  0005b	5d		 pop	 ebp
  0005c	c2 04 00	 ret	 4
??4NewShopPullDownItem@@QAEAAU0@ABU0@@Z ENDP		; NewShopPullDownItem::operator=
_TEXT	ENDS
PUBLIC	?_Unchecked@?$_Vector_iterator@V?$_Vector_val@UNewShopPullDownItem@@V?$allocator@UNewShopPullDownItem@@@std@@@std@@@std@@QBEPAUNewShopPullDownItem@@XZ ; std::_Vector_iterator<std::_Vector_val<NewShopPullDownItem,std::allocator<NewShopPullDownItem> > >::_Unchecked
; Function compile flags: /Ogsp
; File c:\program files (x86)\microsoft visual studio 10.0\vc\include\vector
;	COMDAT ?_Unchecked@?$_Vector_iterator@V?$_Vector_val@UNewShopPullDownItem@@V?$allocator@UNewShopPullDownItem@@@std@@@std@@@std@@QBEPAUNewShopPullDownItem@@XZ
_TEXT	SEGMENT
?_Unchecked@?$_Vector_iterator@V?$_Vector_val@UNewShopPullDownItem@@V?$allocator@UNewShopPullDownItem@@@std@@@std@@@std@@QBEPAUNewShopPullDownItem@@XZ PROC ; std::_Vector_iterator<std::_Vector_val<NewShopPullDownItem,std::allocator<NewShopPullDownItem> > >::_Unchecked, COMDAT
; _this$ = ecx

; 317  : 		return (_Unchecked_type(this->_Ptr));

  00000	8b 01		 mov	 eax, DWORD PTR [ecx]

; 318  : 		}

  00002	c3		 ret	 0
?_Unchecked@?$_Vector_iterator@V?$_Vector_val@UNewShopPullDownItem@@V?$allocator@UNewShopPullDownItem@@@std@@@std@@@std@@QBEPAUNewShopPullDownItem@@XZ ENDP ; std::_Vector_iterator<std::_Vector_val<NewShopPullDownItem,std::allocator<NewShopPullDownItem> > >::_Unchecked
_TEXT	ENDS
PUBLIC	??$_Val_type@PAVioHashString@@@std@@YAPAVioHashString@@PAV1@@Z ; std::_Val_type<ioHashString *>
; Function compile flags: /Ogsp
; File c:\program files (x86)\microsoft visual studio 10.0\vc\include\xutility
;	COMDAT ??$_Val_type@PAVioHashString@@@std@@YAPAVioHashString@@PAV1@@Z
_TEXT	SEGMENT
___formal$ = 8						; size = 4
??$_Val_type@PAVioHashString@@@std@@YAPAVioHashString@@PAV1@@Z PROC ; std::_Val_type<ioHashString *>, COMDAT

; 790  : 	return (0);

  00000	33 c0		 xor	 eax, eax

; 791  : 	}

  00002	c3		 ret	 0
??$_Val_type@PAVioHashString@@@std@@YAPAVioHashString@@PAV1@@Z ENDP ; std::_Val_type<ioHashString *>
_TEXT	ENDS
PUBLIC	??$move@AAUNewShopPullDownItem@@@std@@YA$$QAUNewShopPullDownItem@@AAU1@@Z ; std::move<NewShopPullDownItem &>
; Function compile flags: /Ogsp
; File c:\program files (x86)\microsoft visual studio 10.0\vc\include\utility
;	COMDAT ??$move@AAUNewShopPullDownItem@@@std@@YA$$QAUNewShopPullDownItem@@AAU1@@Z
_TEXT	SEGMENT
__Arg$ = 8						; size = 4
??$move@AAUNewShopPullDownItem@@@std@@YA$$QAUNewShopPullDownItem@@AAU1@@Z PROC ; std::move<NewShopPullDownItem &>, COMDAT

; 86   : 	{	// forward _Arg as movable

  00000	55		 push	 ebp
  00001	8b ec		 mov	 ebp, esp

; 87   : 	return ((typename tr1::_Remove_reference<_Ty>::_Type&&)_Arg);

  00003	8b 45 08	 mov	 eax, DWORD PTR __Arg$[ebp]

; 88   : 	}

  00006	5d		 pop	 ebp
  00007	c3		 ret	 0
??$move@AAUNewShopPullDownItem@@@std@@YA$$QAUNewShopPullDownItem@@AAU1@@Z ENDP ; std::move<NewShopPullDownItem &>
_TEXT	ENDS
PUBLIC	??$_Val_type@PAUNewShopPullDownItem@@@std@@YAPAUNewShopPullDownItem@@PAU1@@Z ; std::_Val_type<NewShopPullDownItem *>
; Function compile flags: /Ogsp
; File c:\program files (x86)\microsoft visual studio 10.0\vc\include\xutility
;	COMDAT ??$_Val_type@PAUNewShopPullDownItem@@@std@@YAPAUNewShopPullDownItem@@PAU1@@Z
_TEXT	SEGMENT
___formal$ = 8						; size = 4
??$_Val_type@PAUNewShopPullDownItem@@@std@@YAPAUNewShopPullDownItem@@PAU1@@Z PROC ; std::_Val_type<NewShopPullDownItem *>, COMDAT

; 790  : 	return (0);

  00000	33 c0		 xor	 eax, eax

; 791  : 	}

  00002	c3		 ret	 0
??$_Val_type@PAUNewShopPullDownItem@@@std@@YAPAUNewShopPullDownItem@@PAU1@@Z ENDP ; std::_Val_type<NewShopPullDownItem *>
_TEXT	ENDS
PUBLIC	??$_Unchecked@PAUNewShopPullDownItem@@@std@@YAPAUNewShopPullDownItem@@PAU1@@Z ; std::_Unchecked<NewShopPullDownItem *>
; Function compile flags: /Ogsp
;	COMDAT ??$_Unchecked@PAUNewShopPullDownItem@@@std@@YAPAUNewShopPullDownItem@@PAU1@@Z
_TEXT	SEGMENT
__Src$ = 8						; size = 4
??$_Unchecked@PAUNewShopPullDownItem@@@std@@YAPAUNewShopPullDownItem@@PAU1@@Z PROC ; std::_Unchecked<NewShopPullDownItem *>, COMDAT

; 266  : 	{	// construct unchecked from checked, generic

  00000	55		 push	 ebp
  00001	8b ec		 mov	 ebp, esp

; 267  : 	return (_Src);

  00003	8b 45 08	 mov	 eax, DWORD PTR __Src$[ebp]

; 268  : 	}

  00006	5d		 pop	 ebp
  00007	c3		 ret	 0
??$_Unchecked@PAUNewShopPullDownItem@@@std@@YAPAUNewShopPullDownItem@@PAU1@@Z ENDP ; std::_Unchecked<NewShopPullDownItem *>
_TEXT	ENDS
PUBLIC	??$_Dist_type@PAUNewShopPullDownItem@@@std@@YAPAHPAUNewShopPullDownItem@@@Z ; std::_Dist_type<NewShopPullDownItem *>
; Function compile flags: /Ogsp
;	COMDAT ??$_Dist_type@PAUNewShopPullDownItem@@@std@@YAPAHPAUNewShopPullDownItem@@@Z
_TEXT	SEGMENT
___formal$ = 8						; size = 4
??$_Dist_type@PAUNewShopPullDownItem@@@std@@YAPAHPAUNewShopPullDownItem@@@Z PROC ; std::_Dist_type<NewShopPullDownItem *>, COMDAT

; 850  : 	return (0);

  00000	33 c0		 xor	 eax, eax

; 851  : 	}

  00002	c3		 ret	 0
??$_Dist_type@PAUNewShopPullDownItem@@@std@@YAPAHPAUNewShopPullDownItem@@@Z ENDP ; std::_Dist_type<NewShopPullDownItem *>
_TEXT	ENDS
PUBLIC	??_GNewShopPullDownItem@@QAEPAXI@Z		; NewShopPullDownItem::`scalar deleting destructor'
; Function compile flags: /Ogsp
;	COMDAT ??_GNewShopPullDownItem@@QAEPAXI@Z
_TEXT	SEGMENT
___flags$ = 8						; size = 4
??_GNewShopPullDownItem@@QAEPAXI@Z PROC			; NewShopPullDownItem::`scalar deleting destructor', COMDAT
; _this$ = ecx
  00000	55		 push	 ebp
  00001	8b ec		 mov	 ebp, esp
  00003	56		 push	 esi
  00004	8b f1		 mov	 esi, ecx
  00006	e8 00 00 00 00	 call	 ??1NewShopPullDownItem@@QAE@XZ
  0000b	f6 45 08 01	 test	 BYTE PTR ___flags$[ebp], 1
  0000f	74 07		 je	 SHORT $LN1@scalar@2
  00011	56		 push	 esi
  00012	e8 00 00 00 00	 call	 ??3@YAXPAX@Z		; operator delete
  00017	59		 pop	 ecx
$LN1@scalar@2:
  00018	8b c6		 mov	 eax, esi
  0001a	5e		 pop	 esi
  0001b	5d		 pop	 ebp
  0001c	c2 04 00	 ret	 4
??_GNewShopPullDownItem@@QAEPAXI@Z ENDP			; NewShopPullDownItem::`scalar deleting destructor'
_TEXT	ENDS
PUBLIC	??$forward@AAPAUNewShopPullDownItem@@@std@@YAAAPAUNewShopPullDownItem@@AAPAU1@@Z ; std::forward<NewShopPullDownItem * &>
; Function compile flags: /Ogsp
; File c:\program files (x86)\microsoft visual studio 10.0\vc\include\utility
;	COMDAT ??$forward@AAPAUNewShopPullDownItem@@@std@@YAAAPAUNewShopPullDownItem@@AAPAU1@@Z
_TEXT	SEGMENT
__Arg$ = 8						; size = 4
??$forward@AAPAUNewShopPullDownItem@@@std@@YAAAPAUNewShopPullDownItem@@AAPAU1@@Z PROC ; std::forward<NewShopPullDownItem * &>, COMDAT

; 78   : 	{	// forward _Arg, given explicitly specified type parameter

  00000	55		 push	 ebp
  00001	8b ec		 mov	 ebp, esp

; 79   : 	return ((_Ty&&)_Arg);

  00003	8b 45 08	 mov	 eax, DWORD PTR __Arg$[ebp]

; 80   : 	}

  00006	5d		 pop	 ebp
  00007	c3		 ret	 0
??$forward@AAPAUNewShopPullDownItem@@@std@@YAAAPAUNewShopPullDownItem@@AAPAU1@@Z ENDP ; std::forward<NewShopPullDownItem * &>
_TEXT	ENDS
PUBLIC	??$?0AAPAUNewShopPullDownItem@@AAPAU0@@?$_Pair_base@PAUNewShopPullDownItem@@PAU1@@std@@QAE@AAPAUNewShopPullDownItem@@0@Z ; std::_Pair_base<NewShopPullDownItem *,NewShopPullDownItem *>::_Pair_base<NewShopPullDownItem *,NewShopPullDownItem *><NewShopPullDownItem * &,NewShopPullDownItem * &>
; Function compile flags: /Ogsp
;	COMDAT ??$?0AAPAUNewShopPullDownItem@@AAPAU0@@?$_Pair_base@PAUNewShopPullDownItem@@PAU1@@std@@QAE@AAPAUNewShopPullDownItem@@0@Z
_TEXT	SEGMENT
__Val1$ = 8						; size = 4
__Val2$ = 12						; size = 4
??$?0AAPAUNewShopPullDownItem@@AAPAU0@@?$_Pair_base@PAUNewShopPullDownItem@@PAU1@@std@@QAE@AAPAUNewShopPullDownItem@@0@Z PROC ; std::_Pair_base<NewShopPullDownItem *,NewShopPullDownItem *>::_Pair_base<NewShopPullDownItem *,NewShopPullDownItem *><NewShopPullDownItem * &,NewShopPullDownItem * &>, COMDAT
; _this$ = ecx

; 163  : 		{	// construct from moved values

  00000	55		 push	 ebp
  00001	8b ec		 mov	 ebp, esp
  00003	8b c1		 mov	 eax, ecx
  00005	8b 4d 08	 mov	 ecx, DWORD PTR __Val1$[ebp]
  00008	8b 09		 mov	 ecx, DWORD PTR [ecx]
  0000a	89 08		 mov	 DWORD PTR [eax], ecx
  0000c	8b 4d 0c	 mov	 ecx, DWORD PTR __Val2$[ebp]
  0000f	8b 09		 mov	 ecx, DWORD PTR [ecx]
  00011	89 48 04	 mov	 DWORD PTR [eax+4], ecx

; 164  : 		}

  00014	5d		 pop	 ebp
  00015	c2 08 00	 ret	 8
??$?0AAPAUNewShopPullDownItem@@AAPAU0@@?$_Pair_base@PAUNewShopPullDownItem@@PAU1@@std@@QAE@AAPAUNewShopPullDownItem@@0@Z ENDP ; std::_Pair_base<NewShopPullDownItem *,NewShopPullDownItem *>::_Pair_base<NewShopPullDownItem *,NewShopPullDownItem *><NewShopPullDownItem * &,NewShopPullDownItem * &>
_TEXT	ENDS
PUBLIC	??$_Move@AAUNewShopPullDownItem@@@std@@YA$$QAUNewShopPullDownItem@@AAU1@@Z ; std::_Move<NewShopPullDownItem &>
; Function compile flags: /Ogsp
;	COMDAT ??$_Move@AAUNewShopPullDownItem@@@std@@YA$$QAUNewShopPullDownItem@@AAU1@@Z
_TEXT	SEGMENT
__Arg$ = 8						; size = 4
??$_Move@AAUNewShopPullDownItem@@@std@@YA$$QAUNewShopPullDownItem@@AAU1@@Z PROC ; std::_Move<NewShopPullDownItem &>, COMDAT

; 94   : 	{	// forward _Arg as movable

  00000	55		 push	 ebp
  00001	8b ec		 mov	 ebp, esp

; 95   : 	return ((typename tr1::_Remove_reference<_Ty>::_Type&&)_Arg);

  00003	8b 45 08	 mov	 eax, DWORD PTR __Arg$[ebp]

; 96   : 	}

  00006	5d		 pop	 ebp
  00007	c3		 ret	 0
??$_Move@AAUNewShopPullDownItem@@@std@@YA$$QAUNewShopPullDownItem@@AAU1@@Z ENDP ; std::_Move<NewShopPullDownItem &>
_TEXT	ENDS
PUBLIC	??$forward@VioHashString@@@std@@YA$$QAVioHashString@@AAV1@@Z ; std::forward<ioHashString>
; Function compile flags: /Ogsp
;	COMDAT ??$forward@VioHashString@@@std@@YA$$QAVioHashString@@AAV1@@Z
_TEXT	SEGMENT
__Arg$ = 8						; size = 4
??$forward@VioHashString@@@std@@YA$$QAVioHashString@@AAV1@@Z PROC ; std::forward<ioHashString>, COMDAT

; 78   : 	{	// forward _Arg, given explicitly specified type parameter

  00000	55		 push	 ebp
  00001	8b ec		 mov	 ebp, esp

; 79   : 	return ((_Ty&&)_Arg);

  00003	8b 45 08	 mov	 eax, DWORD PTR __Arg$[ebp]

; 80   : 	}

  00006	5d		 pop	 ebp
  00007	c3		 ret	 0
??$forward@VioHashString@@@std@@YA$$QAVioHashString@@AAV1@@Z ENDP ; std::forward<ioHashString>
_TEXT	ENDS
PUBLIC	??$forward@UNewShopPullDownItem@@@std@@YA$$QAUNewShopPullDownItem@@AAU1@@Z ; std::forward<NewShopPullDownItem>
; Function compile flags: /Ogsp
;	COMDAT ??$forward@UNewShopPullDownItem@@@std@@YA$$QAUNewShopPullDownItem@@AAU1@@Z
_TEXT	SEGMENT
__Arg$ = 8						; size = 4
??$forward@UNewShopPullDownItem@@@std@@YA$$QAUNewShopPullDownItem@@AAU1@@Z PROC ; std::forward<NewShopPullDownItem>, COMDAT

; 78   : 	{	// forward _Arg, given explicitly specified type parameter

  00000	55		 push	 ebp
  00001	8b ec		 mov	 ebp, esp

; 79   : 	return ((_Ty&&)_Arg);

  00003	8b 45 08	 mov	 eax, DWORD PTR __Arg$[ebp]

; 80   : 	}

  00006	5d		 pop	 ebp
  00007	c3		 ret	 0
??$forward@UNewShopPullDownItem@@@std@@YA$$QAUNewShopPullDownItem@@AAU1@@Z ENDP ; std::forward<NewShopPullDownItem>
_TEXT	ENDS
PUBLIC	??$_Push_heap@PAUNewShopPullDownItem@@HU1@VSoldierSort@InvenFourExtraCompoundBuyWnd@@@std@@YAXPAUNewShopPullDownItem@@HH$$QAU1@VSoldierSort@InvenFourExtraCompoundBuyWnd@@@Z ; std::_Push_heap<NewShopPullDownItem *,int,NewShopPullDownItem,InvenFourExtraCompoundBuyWnd::SoldierSort>
; Function compile flags: /Ogsp
; File c:\program files (x86)\microsoft visual studio 10.0\vc\include\algorithm
;	COMDAT ??$_Push_heap@PAUNewShopPullDownItem@@HU1@VSoldierSort@InvenFourExtraCompoundBuyWnd@@@std@@YAXPAUNewShopPullDownItem@@HH$$QAU1@VSoldierSort@InvenFourExtraCompoundBuyWnd@@@Z
_TEXT	SEGMENT
__First$ = 8						; size = 4
__Hole$ = 12						; size = 4
__Top$ = 16						; size = 4
__Val$ = 20						; size = 4
__Pred$ = 24						; size = 1
??$_Push_heap@PAUNewShopPullDownItem@@HU1@VSoldierSort@InvenFourExtraCompoundBuyWnd@@@std@@YAXPAUNewShopPullDownItem@@HH$$QAU1@VSoldierSort@InvenFourExtraCompoundBuyWnd@@@Z PROC ; std::_Push_heap<NewShopPullDownItem *,int,NewShopPullDownItem,InvenFourExtraCompoundBuyWnd::SoldierSort>, COMDAT

; 2455 : 	{	// percolate _Hole to _Top or where _Val belongs, using operator<

  00000	55		 push	 ebp
  00001	8b ec		 mov	 ebp, esp
  00003	56		 push	 esi
  00004	57		 push	 edi

; 2456 : 	for (_Diff _Idx = (_Hole - 1) / 2;

  00005	8b 7d 0c	 mov	 edi, DWORD PTR __Hole$[ebp]
  00008	8d 47 ff	 lea	 eax, DWORD PTR [edi-1]
  0000b	99		 cdq
  0000c	2b c2		 sub	 eax, edx
  0000e	8b f0		 mov	 esi, eax
  00010	d1 fe		 sar	 esi, 1

; 2457 : 		_Top < _Hole && _DEBUG_LT_PRED(_Pred, *(_First + _Idx), _Val);
; 2458 : 		_Idx = (_Hole - 1) / 2)

  00012	39 7d 10	 cmp	 DWORD PTR __Top$[ebp], edi
  00015	7d 39		 jge	 SHORT $LN1@Push_heap
  00017	53		 push	 ebx
$LL3@Push_heap:
  00018	ff 75 14	 push	 DWORD PTR __Val$[ebp]
  0001b	8b de		 mov	 ebx, esi
  0001d	6b db 50	 imul	 ebx, 80			; 00000050H
  00020	03 5d 08	 add	 ebx, DWORD PTR __First$[ebp]
  00023	8d 4d 18	 lea	 ecx, DWORD PTR __Pred$[ebp]
  00026	53		 push	 ebx
  00027	e8 00 00 00 00	 call	 ??RSoldierSort@InvenFourExtraCompoundBuyWnd@@QBE_NABUNewShopPullDownItem@@0@Z ; InvenFourExtraCompoundBuyWnd::SoldierSort::operator()
  0002c	84 c0		 test	 al, al
  0002e	74 1f		 je	 SHORT $LN12@Push_heap

; 2459 : 		{	// move _Hole up to parent
; 2460 : 		*(_First + _Hole) = _Move(*(_First + _Idx));

  00030	8b cf		 mov	 ecx, edi
  00032	6b c9 50	 imul	 ecx, 80			; 00000050H
  00035	03 4d 08	 add	 ecx, DWORD PTR __First$[ebp]
  00038	53		 push	 ebx
  00039	e8 00 00 00 00	 call	 ??4NewShopPullDownItem@@QAEAAU0@ABU0@@Z
  0003e	8d 46 ff	 lea	 eax, DWORD PTR [esi-1]
  00041	99		 cdq
  00042	2b c2		 sub	 eax, edx

; 2461 : 		_Hole = _Idx;

  00044	8b fe		 mov	 edi, esi
  00046	d1 f8		 sar	 eax, 1
  00048	8b f0		 mov	 esi, eax
  0004a	39 7d 10	 cmp	 DWORD PTR __Top$[ebp], edi
  0004d	7c c9		 jl	 SHORT $LL3@Push_heap
$LN12@Push_heap:
  0004f	5b		 pop	 ebx
$LN1@Push_heap:

; 2462 : 		}
; 2463 : 
; 2464 : 	*(_First + _Hole) = _Move(_Val);	// drop _Val into final hole

  00050	ff 75 14	 push	 DWORD PTR __Val$[ebp]
  00053	8b cf		 mov	 ecx, edi
  00055	6b c9 50	 imul	 ecx, 80			; 00000050H
  00058	03 4d 08	 add	 ecx, DWORD PTR __First$[ebp]
  0005b	e8 00 00 00 00	 call	 ??4NewShopPullDownItem@@QAEAAU0@ABU0@@Z
  00060	5f		 pop	 edi
  00061	5e		 pop	 esi

; 2465 : 	}

  00062	5d		 pop	 ebp
  00063	c3		 ret	 0
??$_Push_heap@PAUNewShopPullDownItem@@HU1@VSoldierSort@InvenFourExtraCompoundBuyWnd@@@std@@YAXPAUNewShopPullDownItem@@HH$$QAU1@VSoldierSort@InvenFourExtraCompoundBuyWnd@@@Z ENDP ; std::_Push_heap<NewShopPullDownItem *,int,NewShopPullDownItem,InvenFourExtraCompoundBuyWnd::SoldierSort>
_TEXT	ENDS
PUBLIC	??$_Move_backward@PAUNewShopPullDownItem@@PAU1@@std@@YAPAUNewShopPullDownItem@@PAU1@00U_Nonscalar_ptr_iterator_tag@0@@Z ; std::_Move_backward<NewShopPullDownItem *,NewShopPullDownItem *>
; Function compile flags: /Ogsp
; File c:\program files (x86)\microsoft visual studio 10.0\vc\include\xutility
;	COMDAT ??$_Move_backward@PAUNewShopPullDownItem@@PAU1@@std@@YAPAUNewShopPullDownItem@@PAU1@00U_Nonscalar_ptr_iterator_tag@0@@Z
_TEXT	SEGMENT
__First$ = 8						; size = 4
__Last$ = 12						; size = 4
__Dest$ = 16						; size = 4
___formal$ = 20						; size = 1
??$_Move_backward@PAUNewShopPullDownItem@@PAU1@@std@@YAPAUNewShopPullDownItem@@PAU1@00U_Nonscalar_ptr_iterator_tag@0@@Z PROC ; std::_Move_backward<NewShopPullDownItem *,NewShopPullDownItem *>, COMDAT

; 2617 : 	{	// move [_First, _Last) backwards to [..., _Dest), arbitrary iterators

  00000	55		 push	 ebp
  00001	8b ec		 mov	 ebp, esp
  00003	56		 push	 esi

; 2618 : 	while (_First != _Last)

  00004	8b 75 0c	 mov	 esi, DWORD PTR __Last$[ebp]
  00007	39 75 08	 cmp	 DWORD PTR __First$[ebp], esi
  0000a	74 15		 je	 SHORT $LN9@Move_backw
$LL2@Move_backw:

; 2619 : 		*--_Dest = _STD move(*--_Last);

  0000c	83 6d 10 50	 sub	 DWORD PTR __Dest$[ebp], 80 ; 00000050H
  00010	8b 4d 10	 mov	 ecx, DWORD PTR __Dest$[ebp]
  00013	83 ee 50	 sub	 esi, 80			; 00000050H
  00016	56		 push	 esi
  00017	e8 00 00 00 00	 call	 ??4NewShopPullDownItem@@QAEAAU0@ABU0@@Z
  0001c	3b 75 08	 cmp	 esi, DWORD PTR __First$[ebp]
  0001f	75 eb		 jne	 SHORT $LL2@Move_backw
$LN9@Move_backw:

; 2620 : 	return (_Dest);

  00021	8b 45 10	 mov	 eax, DWORD PTR __Dest$[ebp]
  00024	5e		 pop	 esi

; 2621 : 	}

  00025	5d		 pop	 ebp
  00026	c3		 ret	 0
??$_Move_backward@PAUNewShopPullDownItem@@PAU1@@std@@YAPAUNewShopPullDownItem@@PAU1@00U_Nonscalar_ptr_iterator_tag@0@@Z ENDP ; std::_Move_backward<NewShopPullDownItem *,NewShopPullDownItem *>
; Function compile flags: /Ogsp
; File c:\program files (x86)\microsoft sdks\windows\v7.0a\include\strsafe.h
_TEXT	ENDS
;	COMDAT ?StringValidateDestA@@YGJPBDII@Z
_TEXT	SEGMENT
_cchMax$ = 8						; size = 4
?StringValidateDestA@@YGJPBDII@Z PROC			; StringValidateDestA, COMDAT
; _cchDest$ = ecx

; 8721 : {

  00000	55		 push	 ebp
  00001	8b ec		 mov	 ebp, esp

; 8722 :     HRESULT hr = S_OK;

  00003	33 c0		 xor	 eax, eax

; 8723 : 
; 8724 :     if ((cchDest == 0) || (cchDest > cchMax))

  00005	85 c9		 test	 ecx, ecx
  00007	74 05		 je	 SHORT $LN1@StringVali
  00009	3b 4d 08	 cmp	 ecx, DWORD PTR _cchMax$[ebp]
  0000c	76 05		 jbe	 SHORT $LN2@StringVali
$LN1@StringVali:

; 8725 :     {
; 8726 :         hr = STRSAFE_E_INVALID_PARAMETER;

  0000e	b8 57 00 07 80	 mov	 eax, -2147024809	; 80070057H
$LN2@StringVali:

; 8727 :     }
; 8728 : 
; 8729 :     return hr;
; 8730 : }

  00013	5d		 pop	 ebp
  00014	c2 04 00	 ret	 4
?StringValidateDestA@@YGJPBDII@Z ENDP			; StringValidateDestA
_TEXT	ENDS
EXTRN	__imp___vsnprintf:PROC
; Function compile flags: /Ogsp
;	COMDAT ?StringVPrintfWorkerA@@YGJPADIPAIPBD0@Z
_TEXT	SEGMENT
_pcchNewDestLength$ = 8					; size = 4
_pszFormat$ = 12					; size = 4
_argList$ = 16						; size = 4
?StringVPrintfWorkerA@@YGJPADIPAIPBD0@Z PROC		; StringVPrintfWorkerA, COMDAT
; _pszDest$ = edi
; _cchDest$ = eax

; 9029 : {

  00000	55		 push	 ebp
  00001	8b ec		 mov	 ebp, esp
  00003	53		 push	 ebx
  00004	56		 push	 esi

; 9030 :     HRESULT hr = S_OK;
; 9031 :     int iRet;
; 9032 :     size_t cchMax;
; 9033 :     size_t cchNewDestLength = 0;
; 9034 : 
; 9035 :     // leave the last space for the null terminator
; 9036 :     cchMax = cchDest - 1;
; 9037 : 
; 9038 : #if (STRSAFE_USE_SECURE_CRT == 1) && !defined(STRSAFE_LIB_IMPL)
; 9039 :     iRet = _vsnprintf_s(pszDest, cchDest, cchMax, pszFormat, argList);
; 9040 : #else
; 9041 :     #pragma warning(push)
; 9042 :     #pragma warning(disable: __WARNING_BANNED_API_USAGE)// "STRSAFE not included"
; 9043 :     iRet = _vsnprintf(pszDest, cchMax, pszFormat, argList);

  00005	ff 75 10	 push	 DWORD PTR _argList$[ebp]
  00008	8d 70 ff	 lea	 esi, DWORD PTR [eax-1]
  0000b	ff 75 0c	 push	 DWORD PTR _pszFormat$[ebp]
  0000e	33 db		 xor	 ebx, ebx
  00010	56		 push	 esi
  00011	57		 push	 edi
  00012	ff 15 00 00 00
	00		 call	 DWORD PTR __imp___vsnprintf
  00018	83 c4 10	 add	 esp, 16			; 00000010H

; 9044 :     #pragma warning(pop)
; 9045 : #endif
; 9046 :     // ASSERT((iRet < 0) || (((size_t)iRet) <= cchMax));
; 9047 : 
; 9048 :     if ((iRet < 0) || (((size_t)iRet) > cchMax))

  0001b	85 c0		 test	 eax, eax
  0001d	78 0b		 js	 SHORT $LN5@StringVPri
  0001f	3b c6		 cmp	 eax, esi
  00021	77 07		 ja	 SHORT $LN5@StringVPri

; 9058 :     }
; 9059 :     else if (((size_t)iRet) == cchMax)

  00023	75 0f		 jne	 SHORT $LN2@StringVPri

; 9060 :     {
; 9061 :         // need to null terminate the string
; 9062 :         pszDest += cchMax;
; 9063 :         *pszDest = '\0';

  00025	88 1c 3e	 mov	 BYTE PTR [esi+edi], bl

; 9064 : 
; 9065 :         cchNewDestLength = cchMax;
; 9066 :     }
; 9067 :     else

  00028	eb 08		 jmp	 SHORT $LN9@StringVPri
$LN5@StringVPri:

; 9049 :     {
; 9050 :         // need to null terminate the string
; 9051 :         pszDest += cchMax;
; 9052 :         *pszDest = '\0';

  0002a	88 1c 3e	 mov	 BYTE PTR [esi+edi], bl

; 9055 : 
; 9056 :         // we have truncated pszDest
; 9057 :         hr = STRSAFE_E_INSUFFICIENT_BUFFER;

  0002d	bb 7a 00 07 80	 mov	 ebx, -2147024774	; 8007007aH
$LN9@StringVPri:

; 9053 : 
; 9054 :         cchNewDestLength = cchMax;

  00032	8b c6		 mov	 eax, esi
$LN2@StringVPri:

; 9068 :     {
; 9069 :         cchNewDestLength = (size_t)iRet;
; 9070 :     }
; 9071 : 
; 9072 :     if (pcchNewDestLength)

  00034	8b 4d 08	 mov	 ecx, DWORD PTR _pcchNewDestLength$[ebp]
  00037	85 c9		 test	 ecx, ecx
  00039	74 02		 je	 SHORT $LN1@StringVPri

; 9073 :     {
; 9074 :         *pcchNewDestLength = cchNewDestLength;

  0003b	89 01		 mov	 DWORD PTR [ecx], eax
$LN1@StringVPri:
  0003d	5e		 pop	 esi

; 9075 :     }
; 9076 : 
; 9077 :     return hr;

  0003e	8b c3		 mov	 eax, ebx
  00040	5b		 pop	 ebx

; 9078 : }

  00041	5d		 pop	 ebp
  00042	c2 0c 00	 ret	 12			; 0000000cH
?StringVPrintfWorkerA@@YGJPADIPAIPBD0@Z ENDP		; StringVPrintfWorkerA
_TEXT	ENDS
PUBLIC	??_H@YGXPAXIHP6EPAX0@Z@Z			; `vector constructor iterator'
; Function compile flags: /Ogsp
;	COMDAT ??_H@YGXPAXIHP6EPAX0@Z@Z
_TEXT	SEGMENT
___t$ = 8						; size = 4
___s$ = 12						; size = 4
___n$ = 16						; size = 4
___f$ = 20						; size = 4
??_H@YGXPAXIHP6EPAX0@Z@Z PROC				; `vector constructor iterator', COMDAT
  00000	55		 push	 ebp
  00001	8b ec		 mov	 ebp, esp
  00003	ff 4d 10	 dec	 DWORD PTR ___n$[ebp]
  00006	78 12		 js	 SHORT $LN1@vector
  00008	56		 push	 esi
  00009	8b 75 08	 mov	 esi, DWORD PTR ___t$[ebp]
$LL2@vector:
  0000c	8b ce		 mov	 ecx, esi
  0000e	ff 55 14	 call	 DWORD PTR ___f$[ebp]
  00011	03 75 0c	 add	 esi, DWORD PTR ___s$[ebp]
  00014	ff 4d 10	 dec	 DWORD PTR ___n$[ebp]
  00017	79 f3		 jns	 SHORT $LL2@vector
  00019	5e		 pop	 esi
$LN1@vector:
  0001a	5d		 pop	 ebp
  0001b	c2 10 00	 ret	 16			; 00000010H
??_H@YGXPAXIHP6EPAX0@Z@Z ENDP				; `vector constructor iterator'
_TEXT	ENDS
PUBLIC	?_DECSTR@@YAXPADH@Z				; _DECSTR
; Function compile flags: /Ogsp
; File d:\lost saga for developer\youtube\tutorial\source\src\lsclient\stringprotect.h
;	COMDAT ?_DECSTR@@YAXPADH@Z
_TEXT	SEGMENT
_s$ = 8							; size = 4
_l$ = 12						; size = 4
?_DECSTR@@YAXPADH@Z PROC				; _DECSTR, COMDAT

; 40   : __forceinline void _DECSTR(char* s, int l){int i=0,l4=(l-1)/4,*p=(int*)s;s[l-1]=0;for(;i<l4;++i)*(p++)^=0xEAEBECED;for(i=l4*4;i<l-1;++i)s[i]^=0xED-i%4;}

  00000	55		 push	 ebp
  00001	8b ec		 mov	 ebp, esp
  00003	8b 4d 0c	 mov	 ecx, DWORD PTR _l$[ebp]
  00006	56		 push	 esi
  00007	8b 75 08	 mov	 esi, DWORD PTR _s$[ebp]
  0000a	57		 push	 edi
  0000b	8d 79 ff	 lea	 edi, DWORD PTR [ecx-1]
  0000e	8b c7		 mov	 eax, edi
  00010	99		 cdq
  00011	83 e2 03	 and	 edx, 3
  00014	03 c2		 add	 eax, edx
  00016	c1 f8 02	 sar	 eax, 2
  00019	8b d6		 mov	 edx, esi
  0001b	c6 44 0e ff 00	 mov	 BYTE PTR [esi+ecx-1], 0
  00020	85 c0		 test	 eax, eax
  00022	7e 0e		 jle	 SHORT $LN4@DECSTR
  00024	8b c8		 mov	 ecx, eax
$LL6@DECSTR:
  00026	81 32 ed ec eb
	ea		 xor	 DWORD PTR [edx], -353637139 ; eaebecedH
  0002c	83 c2 04	 add	 edx, 4
  0002f	49		 dec	 ecx
  00030	75 f4		 jne	 SHORT $LL6@DECSTR
$LN4@DECSTR:
  00032	c1 e0 02	 shl	 eax, 2
  00035	eb 17		 jmp	 SHORT $LN14@DECSTR
$LL3@DECSTR:
  00037	8b c8		 mov	 ecx, eax
  00039	81 e1 03 00 00
	80		 and	 ecx, -2147483645	; 80000003H
  0003f	79 05		 jns	 SHORT $LN13@DECSTR
  00041	49		 dec	 ecx
  00042	83 c9 fc	 or	 ecx, -4			; fffffffcH
  00045	41		 inc	 ecx
$LN13@DECSTR:
  00046	b2 ed		 mov	 dl, -19			; ffffffedH
  00048	2a d1		 sub	 dl, cl
  0004a	30 14 30	 xor	 BYTE PTR [eax+esi], dl
  0004d	40		 inc	 eax
$LN14@DECSTR:
  0004e	3b c7		 cmp	 eax, edi
  00050	7c e5		 jl	 SHORT $LL3@DECSTR
  00052	5f		 pop	 edi
  00053	5e		 pop	 esi
  00054	5d		 pop	 ebp
  00055	c3		 ret	 0
?_DECSTR@@YAXPADH@Z ENDP				; _DECSTR
_TEXT	ENDS
PUBLIC	?Init@tagCostumeEquipInfo@@QAEXXZ		; tagCostumeEquipInfo::Init
; Function compile flags: /Ogsp
; File d:\lost saga for developer\youtube\tutorial\source\src\lsclient\costumeenumtype.h
;	COMDAT ?Init@tagCostumeEquipInfo@@QAEXXZ
_TEXT	SEGMENT
?Init@tagCostumeEquipInfo@@QAEXXZ PROC			; tagCostumeEquipInfo::Init, COMDAT
; _this$ = ecx

; 31   : 		m_CostumeIdx = 0;

  00000	33 c0		 xor	 eax, eax
  00002	89 01		 mov	 DWORD PTR [ecx], eax

; 32   : 		m_CostumeCode = 0;

  00004	89 41 04	 mov	 DWORD PTR [ecx+4], eax

; 33   : 		m_Costume_Male_Custom = 0;  

  00007	89 41 08	 mov	 DWORD PTR [ecx+8], eax

; 34   : 		m_Costume_Female_Custom = 0;

  0000a	89 41 0c	 mov	 DWORD PTR [ecx+12], eax

; 35   : 	}

  0000d	c3		 ret	 0
?Init@tagCostumeEquipInfo@@QAEXXZ ENDP			; tagCostumeEquipInfo::Init
_TEXT	ENDS
PUBLIC	??0tagCostumeEquipInfo@@QAE@XZ			; tagCostumeEquipInfo::tagCostumeEquipInfo
; Function compile flags: /Ogsp
;	COMDAT ??0tagCostumeEquipInfo@@QAE@XZ
_TEXT	SEGMENT
??0tagCostumeEquipInfo@@QAE@XZ PROC			; tagCostumeEquipInfo::tagCostumeEquipInfo, COMDAT
; _this$ = ecx

; 37   : 	tagCostumeEquipInfo()

  00000	8b c1		 mov	 eax, ecx

; 38   : 	{
; 39   : 		Init();

  00002	33 c9		 xor	 ecx, ecx
  00004	89 08		 mov	 DWORD PTR [eax], ecx
  00006	89 48 04	 mov	 DWORD PTR [eax+4], ecx
  00009	89 48 08	 mov	 DWORD PTR [eax+8], ecx
  0000c	89 48 0c	 mov	 DWORD PTR [eax+12], ecx

; 40   : 	}

  0000f	c3		 ret	 0
??0tagCostumeEquipInfo@@QAE@XZ ENDP			; tagCostumeEquipInfo::tagCostumeEquipInfo
_TEXT	ENDS
PUBLIC	?Init@tagAccessoryEquipInfo@@QAEXXZ		; tagAccessoryEquipInfo::Init
; Function compile flags: /Ogsp
; File d:\lost saga for developer\youtube\tutorial\source\src\lsclient\accessoryenumtype.h
;	COMDAT ?Init@tagAccessoryEquipInfo@@QAEXXZ
_TEXT	SEGMENT
?Init@tagAccessoryEquipInfo@@QAEXXZ PROC		; tagAccessoryEquipInfo::Init, COMDAT
; _this$ = ecx

; 23   : 		m_iAccessoryIdx = 0;

  00000	33 c0		 xor	 eax, eax
  00002	89 01		 mov	 DWORD PTR [ecx], eax

; 24   : 		m_iAccessoryCode = 0;

  00004	89 41 04	 mov	 DWORD PTR [ecx+4], eax

; 25   : 		m_iRandomNumber = 0;

  00007	89 41 08	 mov	 DWORD PTR [ecx+8], eax

; 26   : 	}

  0000a	c3		 ret	 0
?Init@tagAccessoryEquipInfo@@QAEXXZ ENDP		; tagAccessoryEquipInfo::Init
_TEXT	ENDS
PUBLIC	??0tagAccessoryEquipInfo@@QAE@XZ		; tagAccessoryEquipInfo::tagAccessoryEquipInfo
; Function compile flags: /Ogsp
;	COMDAT ??0tagAccessoryEquipInfo@@QAE@XZ
_TEXT	SEGMENT
??0tagAccessoryEquipInfo@@QAE@XZ PROC			; tagAccessoryEquipInfo::tagAccessoryEquipInfo, COMDAT
; _this$ = ecx

; 28   : 	tagAccessoryEquipInfo()

  00000	8b c1		 mov	 eax, ecx

; 29   : 	{
; 30   : 		Init();

  00002	33 c9		 xor	 ecx, ecx
  00004	89 08		 mov	 DWORD PTR [eax], ecx
  00006	89 48 04	 mov	 DWORD PTR [eax+4], ecx
  00009	89 48 08	 mov	 DWORD PTR [eax+8], ecx

; 31   : 	}

  0000c	c3		 ret	 0
??0tagAccessoryEquipInfo@@QAE@XZ ENDP			; tagAccessoryEquipInfo::tagAccessoryEquipInfo
_TEXT	ENDS
PUBLIC	??0ETCITEMSLOT@ioUserEtcItem@@QAE@XZ		; ioUserEtcItem::ETCITEMSLOT::ETCITEMSLOT
; Function compile flags: /Ogsp
; File d:\lost saga for developer\youtube\tutorial\source\src\lsclient\iouseretcitem.h
;	COMDAT ??0ETCITEMSLOT@ioUserEtcItem@@QAE@XZ
_TEXT	SEGMENT
??0ETCITEMSLOT@ioUserEtcItem@@QAE@XZ PROC		; ioUserEtcItem::ETCITEMSLOT::ETCITEMSLOT, COMDAT
; _this$ = ecx

; 22   : 		ETCITEMSLOT()

  00000	8b c1		 mov	 eax, ecx

; 23   : 		{
; 24   : 			m_iType   = 0;

  00002	33 c9		 xor	 ecx, ecx
  00004	89 08		 mov	 DWORD PTR [eax], ecx

; 25   : 			m_iValue1 = 0;

  00006	89 48 04	 mov	 DWORD PTR [eax+4], ecx

; 26   : 			m_iValue2 = 0;

  00009	89 48 08	 mov	 DWORD PTR [eax+8], ecx

; 27   : 		}

  0000c	c3		 ret	 0
??0ETCITEMSLOT@ioUserEtcItem@@QAE@XZ ENDP		; ioUserEtcItem::ETCITEMSLOT::ETCITEMSLOT
_TEXT	ENDS
PUBLIC	?Init@EXTRAITEMSLOT@@QAEXXZ			; EXTRAITEMSLOT::Init
; Function compile flags: /Ogsp
; File d:\lost saga for developer\youtube\tutorial\source\src\lsclient\iouserextraitem.h
;	COMDAT ?Init@EXTRAITEMSLOT@@QAEXXZ
_TEXT	SEGMENT
?Init@EXTRAITEMSLOT@@QAEXXZ PROC			; EXTRAITEMSLOT::Init, COMDAT
; _this$ = ecx

; 50   : 		m_iItemCode = 0;

  00000	33 c0		 xor	 eax, eax

; 51   : 		m_iReinforce = 0;
; 52   : 		m_iIndex = 0;
; 53   : 
; 54   : 		m_PeriodType = EPT_TIME;
; 55   : 		m_iValue1 = 0;
; 56   : 		m_iValue2 = 0;
; 57   : 
; 58   : 		m_iTradeState = EET_DISABLE;
; 59   : 	
; 60   : 		m_dwMaleCustom = 0;
; 61   : 		m_dwFemaleCustom = 0;
; 62   : 		m_failExp = 0;

  00002	33 d2		 xor	 edx, edx
  00004	89 01		 mov	 DWORD PTR [ecx], eax
  00006	89 41 04	 mov	 DWORD PTR [ecx+4], eax
  00009	89 41 08	 mov	 DWORD PTR [ecx+8], eax
  0000c	89 41 0c	 mov	 DWORD PTR [ecx+12], eax
  0000f	89 41 10	 mov	 DWORD PTR [ecx+16], eax
  00012	89 41 14	 mov	 DWORD PTR [ecx+20], eax
  00015	89 41 18	 mov	 DWORD PTR [ecx+24], eax
  00018	89 41 1c	 mov	 DWORD PTR [ecx+28], eax
  0001b	89 41 20	 mov	 DWORD PTR [ecx+32], eax
  0001e	66 89 51 24	 mov	 WORD PTR [ecx+36], dx

; 63   : 
; 64   : 		m_bCharEquip = false;

  00022	88 41 26	 mov	 BYTE PTR [ecx+38], al

; 65   : 	}

  00025	c3		 ret	 0
?Init@EXTRAITEMSLOT@@QAEXXZ ENDP			; EXTRAITEMSLOT::Init
_TEXT	ENDS
PUBLIC	?GetInventorySubManual@ioEtcItem@@QBEHXZ	; ioEtcItem::GetInventorySubManual
; Function compile flags: /Ogsp
; File d:\lost saga for developer\youtube\tutorial\source\src\lsclient\ioetcitem.h
;	COMDAT ?GetInventorySubManual@ioEtcItem@@QBEHXZ
_TEXT	SEGMENT
?GetInventorySubManual@ioEtcItem@@QBEHXZ PROC		; ioEtcItem::GetInventorySubManual, COMDAT
; _this$ = ecx

; 435  : 	inline int     GetInventorySubManual() const { return m_iInventorySubManual; }

  00000	8b 41 4c	 mov	 eax, DWORD PTR [ecx+76]
  00003	c3		 ret	 0
?GetInventorySubManual@ioEtcItem@@QBEHXZ ENDP		; ioEtcItem::GetInventorySubManual
_TEXT	ENDS
PUBLIC	??0NewShopPullDownItem@@QAE@XZ			; NewShopPullDownItem::NewShopPullDownItem
EXTRN	__imp_??0ioHashString@@QAE@XZ:PROC
;	COMDAT xdata$x
; File d:\lost saga for developer\youtube\tutorial\source\src\lsclient\gui\newshopbuywnd.h
xdata$x	SEGMENT
__unwindtable$??0NewShopPullDownItem@@QAE@XZ DD 0ffffffffH
	DD	FLAT:__unwindfunclet$??0NewShopPullDownItem@@QAE@XZ$0
	DD	00H
	DD	FLAT:__unwindfunclet$??0NewShopPullDownItem@@QAE@XZ$1
__ehfuncinfo$??0NewShopPullDownItem@@QAE@XZ DD 019930522H
	DD	02H
	DD	FLAT:__unwindtable$??0NewShopPullDownItem@@QAE@XZ
	DD	2 DUP(00H)
	DD	2 DUP(00H)
	DD	00H
	DD	01H
; Function compile flags: /Ogsp
xdata$x	ENDS
;	COMDAT ??0NewShopPullDownItem@@QAE@XZ
_TEXT	SEGMENT
_this$ = -16						; size = 4
__$EHRec$ = -12						; size = 12
??0NewShopPullDownItem@@QAE@XZ PROC			; NewShopPullDownItem::NewShopPullDownItem, COMDAT
; _this$ = ecx

; 25   : 	NewShopPullDownItem()

  00000	6a 04		 push	 4
  00002	b8 00 00 00 00	 mov	 eax, __ehhandler$??0NewShopPullDownItem@@QAE@XZ
  00007	e8 00 00 00 00	 call	 __EH_prolog3
  0000c	8b f1		 mov	 esi, ecx
  0000e	89 75 f0	 mov	 DWORD PTR _this$[ebp], esi
  00011	8b 3d 00 00 00
	00		 mov	 edi, DWORD PTR __imp_??0ioHashString@@QAE@XZ
  00017	ff d7		 call	 edi
  00019	33 db		 xor	 ebx, ebx
  0001b	8d 4e 24	 lea	 ecx, DWORD PTR [esi+36]
  0001e	89 5d fc	 mov	 DWORD PTR __$EHRec$[ebp+8], ebx
  00021	ff d7		 call	 edi
  00023	8d 4e 3c	 lea	 ecx, DWORD PTR [esi+60]
  00026	c6 45 fc 01	 mov	 BYTE PTR __$EHRec$[ebp+8], 1
  0002a	ff d7		 call	 edi

; 26   : 	{
; 27   : 		m_iMagicCode = 0;

  0002c	89 5e 10	 mov	 DWORD PTR [esi+16], ebx

; 28   : 		m_dwTextColor= 0; 

  0002f	89 5e 14	 mov	 DWORD PTR [esi+20], ebx

; 29   : 		m_bGrowthCatalystItem = false;

  00032	88 5e 18	 mov	 BYTE PTR [esi+24], bl

; 30   : 		m_iGrowthCatalystLevel = 0;

  00035	89 5e 1c	 mov	 DWORD PTR [esi+28], ebx

; 31   : 		m_bCount = false;

  00038	88 5e 20	 mov	 BYTE PTR [esi+32], bl

; 32   : 		m_dwCntTextColor = 0;

  0003b	89 5e 34	 mov	 DWORD PTR [esi+52], ebx

; 33   : 		m_bPetLevel = false;

  0003e	88 5e 38	 mov	 BYTE PTR [esi+56], bl

; 34   : 		m_dwPetLevelTextColor = 0;

  00041	89 5e 4c	 mov	 DWORD PTR [esi+76], ebx

; 35   : 	}

  00044	8b c6		 mov	 eax, esi
  00046	e8 00 00 00 00	 call	 __EH_epilog3
  0004b	c3		 ret	 0
_TEXT	ENDS
;	COMDAT text$x
text$x	SEGMENT
__unwindfunclet$??0NewShopPullDownItem@@QAE@XZ$0:
  00000	8b 4d f0	 mov	 ecx, DWORD PTR _this$[ebp]
  00003	ff 25 00 00 00
	00		 jmp	 DWORD PTR __imp_??1ioHashString@@QAE@XZ
__unwindfunclet$??0NewShopPullDownItem@@QAE@XZ$1:
  00009	8b 4d f0	 mov	 ecx, DWORD PTR _this$[ebp]
  0000c	83 c1 24	 add	 ecx, 36			; 00000024H
  0000f	ff 25 00 00 00
	00		 jmp	 DWORD PTR __imp_??1ioHashString@@QAE@XZ
__ehhandler$??0NewShopPullDownItem@@QAE@XZ:
  00015	8b 54 24 08	 mov	 edx, DWORD PTR [esp+8]
  00019	8d 42 0c	 lea	 eax, DWORD PTR [edx+12]
  0001c	8b 4a ec	 mov	 ecx, DWORD PTR [edx-20]
  0001f	33 c8		 xor	 ecx, eax
  00021	e8 00 00 00 00	 call	 @__security_check_cookie@4
  00026	b8 00 00 00 00	 mov	 eax, OFFSET __ehfuncinfo$??0NewShopPullDownItem@@QAE@XZ
  0002b	e9 00 00 00 00	 jmp	 ___CxxFrameHandler3
text$x	ENDS
??0NewShopPullDownItem@@QAE@XZ ENDP			; NewShopPullDownItem::NewShopPullDownItem
PUBLIC	?GetOpenBtn@NewShopPullDownWnd@@QAEPAVioWnd@@XZ	; NewShopPullDownWnd::GetOpenBtn
; Function compile flags: /Ogsp
;	COMDAT ?GetOpenBtn@NewShopPullDownWnd@@QAEPAVioWnd@@XZ
_TEXT	SEGMENT
?GetOpenBtn@NewShopPullDownWnd@@QAEPAVioWnd@@XZ PROC	; NewShopPullDownWnd::GetOpenBtn, COMDAT
; _this$ = ecx

; 77   : 	ioWnd *GetOpenBtn(){ return m_pOpenBtn; }

  00000	8b 81 98 01 00
	00		 mov	 eax, DWORD PTR [ecx+408]
  00006	c3		 ret	 0
?GetOpenBtn@NewShopPullDownWnd@@QAEPAVioWnd@@XZ ENDP	; NewShopPullDownWnd::GetOpenBtn
_TEXT	ENDS
PUBLIC	?SetMarkType@InventoryIconBtn@@QAEXH@Z		; InventoryIconBtn::SetMarkType
; Function compile flags: /Ogsp
; File d:\lost saga for developer\youtube\tutorial\source\src\lsclient\gui\myinventorywnd.h
;	COMDAT ?SetMarkType@InventoryIconBtn@@QAEXH@Z
_TEXT	SEGMENT
_iMarkType$ = 8						; size = 4
?SetMarkType@InventoryIconBtn@@QAEXH@Z PROC		; InventoryIconBtn::SetMarkType, COMDAT
; _this$ = ecx

; 551  : 	void SetMarkType( int iMarkType ) { m_iMarkType = iMarkType; } 

  00000	55		 push	 ebp
  00001	8b ec		 mov	 ebp, esp
  00003	8b 45 08	 mov	 eax, DWORD PTR _iMarkType$[ebp]
  00006	89 81 3c 02 00
	00		 mov	 DWORD PTR [ecx+572], eax
  0000c	5d		 pop	 ebp
  0000d	c2 04 00	 ret	 4
?SetMarkType@InventoryIconBtn@@QAEXH@Z ENDP		; InventoryIconBtn::SetMarkType
_TEXT	ENDS
PUBLIC	?SetExtraItemCustom@InventoryIconBtn@@QAEX_N@Z	; InventoryIconBtn::SetExtraItemCustom
; Function compile flags: /Ogsp
;	COMDAT ?SetExtraItemCustom@InventoryIconBtn@@QAEX_N@Z
_TEXT	SEGMENT
_bExtraItemCustom$ = 8					; size = 1
?SetExtraItemCustom@InventoryIconBtn@@QAEX_N@Z PROC	; InventoryIconBtn::SetExtraItemCustom, COMDAT
; _this$ = ecx

; 552  : 	void SetExtraItemCustom( bool bExtraItemCustom ){ m_bExtraItemCustom = bExtraItemCustom; }

  00000	55		 push	 ebp
  00001	8b ec		 mov	 ebp, esp
  00003	8a 45 08	 mov	 al, BYTE PTR _bExtraItemCustom$[ebp]
  00006	88 81 78 02 00
	00		 mov	 BYTE PTR [ecx+632], al
  0000c	5d		 pop	 ebp
  0000d	c2 04 00	 ret	 4
?SetExtraItemCustom@InventoryIconBtn@@QAEX_N@Z ENDP	; InventoryIconBtn::SetExtraItemCustom
_TEXT	ENDS
PUBLIC	?GetUserEtcItem@ioMyInfo@@QAEPAVioUserEtcItem@@XZ ; ioMyInfo::GetUserEtcItem
; Function compile flags: /Ogsp
; File d:\lost saga for developer\youtube\tutorial\source\src\lsclient\iomyinfo.h
;	COMDAT ?GetUserEtcItem@ioMyInfo@@QAEPAVioUserEtcItem@@XZ
_TEXT	SEGMENT
?GetUserEtcItem@ioMyInfo@@QAEPAVioUserEtcItem@@XZ PROC	; ioMyInfo::GetUserEtcItem, COMDAT
; _this$ = ecx

; 635  : 	ioUserEtcItem* GetUserEtcItem() { return &m_UserEtcItem; }

  00000	8d 81 44 01 00
	00		 lea	 eax, DWORD PTR [ecx+324]
  00006	c3		 ret	 0
?GetUserEtcItem@ioMyInfo@@QAEPAVioUserEtcItem@@XZ ENDP	; ioMyInfo::GetUserEtcItem
_TEXT	ENDS
PUBLIC	?GetUserExtraItem@ioMyInfo@@QAEPAVioUserExtraItem@@XZ ; ioMyInfo::GetUserExtraItem
; Function compile flags: /Ogsp
;	COMDAT ?GetUserExtraItem@ioMyInfo@@QAEPAVioUserExtraItem@@XZ
_TEXT	SEGMENT
?GetUserExtraItem@ioMyInfo@@QAEPAVioUserExtraItem@@XZ PROC ; ioMyInfo::GetUserExtraItem, COMDAT
; _this$ = ecx

; 636  : 	ioUserExtraItem* GetUserExtraItem() { return &m_UserExtraItem; }

  00000	8d 81 ac 01 00
	00		 lea	 eax, DWORD PTR [ecx+428]
  00006	c3		 ret	 0
?GetUserExtraItem@ioMyInfo@@QAEPAVioUserExtraItem@@XZ ENDP ; ioMyInfo::GetUserExtraItem
_TEXT	ENDS
PUBLIC	?GetSetCode@ioSetItemInfo@@QBEKXZ		; ioSetItemInfo::GetSetCode
; Function compile flags: /Ogsp
; File d:\lost saga for developer\youtube\tutorial\source\src\lsclient\iosetiteminfo.h
;	COMDAT ?GetSetCode@ioSetItemInfo@@QBEKXZ
_TEXT	SEGMENT
?GetSetCode@ioSetItemInfo@@QBEKXZ PROC			; ioSetItemInfo::GetSetCode, COMDAT
; _this$ = ecx

; 116  : 	inline DWORD GetSetCode() const { return m_dwSetCode; }

  00000	8b 41 1c	 mov	 eax, DWORD PTR [ecx+28]
  00003	c3		 ret	 0
?GetSetCode@ioSetItemInfo@@QBEKXZ ENDP			; ioSetItemInfo::GetSetCode
_TEXT	ENDS
PUBLIC	?GetName@ioSetItemInfo@@QBEABVioHashString@@XZ	; ioSetItemInfo::GetName
; Function compile flags: /Ogsp
;	COMDAT ?GetName@ioSetItemInfo@@QBEABVioHashString@@XZ
_TEXT	SEGMENT
?GetName@ioSetItemInfo@@QBEABVioHashString@@XZ PROC	; ioSetItemInfo::GetName, COMDAT
; _this$ = ecx

; 117  : 	inline const ioHashString& GetName() const { return m_SetName; }

  00000	8d 41 08	 lea	 eax, DWORD PTR [ecx+8]
  00003	c3		 ret	 0
?GetName@ioSetItemInfo@@QBEABVioHashString@@XZ ENDP	; ioSetItemInfo::GetName
_TEXT	ENDS
PUBLIC	?size@?$vector@VioHashString@@V?$allocator@VioHashString@@@std@@@std@@QBEIXZ ; std::vector<ioHashString,std::allocator<ioHashString> >::size
; Function compile flags: /Ogsp
; File c:\program files (x86)\microsoft visual studio 10.0\vc\include\vector
;	COMDAT ?size@?$vector@VioHashString@@V?$allocator@VioHashString@@@std@@@std@@QBEIXZ
_TEXT	SEGMENT
?size@?$vector@VioHashString@@V?$allocator@VioHashString@@@std@@@std@@QBEIXZ PROC ; std::vector<ioHashString,std::allocator<ioHashString> >::size, COMDAT
; _this$ = ecx

; 879  : 		return (this->_Mylast - this->_Myfirst);

  00000	8b 41 04	 mov	 eax, DWORD PTR [ecx+4]
  00003	2b 01		 sub	 eax, DWORD PTR [ecx]
  00005	c1 f8 04	 sar	 eax, 4

; 880  : 		}

  00008	c3		 ret	 0
?size@?$vector@VioHashString@@V?$allocator@VioHashString@@@std@@@std@@QBEIXZ ENDP ; std::vector<ioHashString,std::allocator<ioHashString> >::size
_TEXT	ENDS
PUBLIC	?size@?$vector@HV?$allocator@H@std@@@std@@QBEIXZ ; std::vector<int,std::allocator<int> >::size
; Function compile flags: /Ogsp
;	COMDAT ?size@?$vector@HV?$allocator@H@std@@@std@@QBEIXZ
_TEXT	SEGMENT
?size@?$vector@HV?$allocator@H@std@@@std@@QBEIXZ PROC	; std::vector<int,std::allocator<int> >::size, COMDAT
; _this$ = ecx

; 879  : 		return (this->_Mylast - this->_Myfirst);

  00000	8b 41 04	 mov	 eax, DWORD PTR [ecx+4]
  00003	2b 01		 sub	 eax, DWORD PTR [ecx]
  00005	c1 f8 02	 sar	 eax, 2

; 880  : 		}

  00008	c3		 ret	 0
?size@?$vector@HV?$allocator@H@std@@@std@@QBEIXZ ENDP	; std::vector<int,std::allocator<int> >::size
_TEXT	ENDS
PUBLIC	?empty@?$vector@HV?$allocator@H@std@@@std@@QBE_NXZ ; std::vector<int,std::allocator<int> >::empty
; Function compile flags: /Ogsp
;	COMDAT ?empty@?$vector@HV?$allocator@H@std@@@std@@QBE_NXZ
_TEXT	SEGMENT
?empty@?$vector@HV?$allocator@H@std@@@std@@QBE_NXZ PROC	; std::vector<int,std::allocator<int> >::empty, COMDAT
; _this$ = ecx

; 889  : 		return (this->_Myfirst == this->_Mylast);

  00000	8b 01		 mov	 eax, DWORD PTR [ecx]
  00002	2b 41 04	 sub	 eax, DWORD PTR [ecx+4]
  00005	f7 d8		 neg	 eax
  00007	1b c0		 sbb	 eax, eax
  00009	40		 inc	 eax

; 890  : 		}

  0000a	c3		 ret	 0
?empty@?$vector@HV?$allocator@H@std@@@std@@QBE_NXZ ENDP	; std::vector<int,std::allocator<int> >::empty
_TEXT	ENDS
PUBLIC	??A?$vector@HV?$allocator@H@std@@@std@@QAEAAHI@Z ; std::vector<int,std::allocator<int> >::operator[]
; Function compile flags: /Ogsp
;	COMDAT ??A?$vector@HV?$allocator@H@std@@@std@@QAEAAHI@Z
_TEXT	SEGMENT
__Pos$ = 8						; size = 4
??A?$vector@HV?$allocator@H@std@@@std@@QAEAAHI@Z PROC	; std::vector<int,std::allocator<int> >::operator[], COMDAT
; _this$ = ecx

; 928  : 		{	// subscript mutable sequence

  00000	55		 push	 ebp
  00001	8b ec		 mov	 ebp, esp

; 929  :  #if _ITERATOR_DEBUG_LEVEL == 2
; 930  : 		if (size() <= _Pos)
; 931  : 			{	// report error
; 932  : 			_DEBUG_ERROR("vector subscript out of range");
; 933  : 			_SCL_SECURE_OUT_OF_RANGE;
; 934  : 			}
; 935  : 
; 936  :  #elif _ITERATOR_DEBUG_LEVEL == 1
; 937  : 		_SCL_SECURE_VALIDATE_RANGE(_Pos < size());
; 938  :  #endif /* _ITERATOR_DEBUG_LEVEL */
; 939  : 
; 940  : 		return (*(this->_Myfirst + _Pos));

  00003	8b 01		 mov	 eax, DWORD PTR [ecx]
  00005	8b 4d 08	 mov	 ecx, DWORD PTR __Pos$[ebp]
  00008	8d 04 88	 lea	 eax, DWORD PTR [eax+ecx*4]

; 941  : 		}

  0000b	5d		 pop	 ebp
  0000c	c2 04 00	 ret	 4
??A?$vector@HV?$allocator@H@std@@@std@@QAEAAHI@Z ENDP	; std::vector<int,std::allocator<int> >::operator[]
_TEXT	ENDS
PUBLIC	??_7?$CEncrypt@H@@6B@				; CEncrypt<int>::`vftable'
PUBLIC	??1?$CEncrypt@H@@UAE@XZ				; CEncrypt<int>::~CEncrypt<int>
PUBLIC	??_R4?$CEncrypt@H@@6B@				; CEncrypt<int>::`RTTI Complete Object Locator'
PUBLIC	??_R0?AV?$CEncrypt@H@@@8			; CEncrypt<int> `RTTI Type Descriptor'
PUBLIC	??_R3?$CEncrypt@H@@8				; CEncrypt<int>::`RTTI Class Hierarchy Descriptor'
PUBLIC	??_R2?$CEncrypt@H@@8				; CEncrypt<int>::`RTTI Base Class Array'
PUBLIC	??_R1A@?0A@EA@?$CEncrypt@H@@8			; CEncrypt<int>::`RTTI Base Class Descriptor at (0,-1,0,64)'
EXTRN	??1ccddaabb@@UAE@XZ:PROC			; ccddaabb::~ccddaabb
EXTRN	??_E?$CEncrypt@H@@UAEPAXI@Z:PROC		; CEncrypt<int>::`vector deleting destructor'
;	COMDAT ??_R1A@?0A@EA@?$CEncrypt@H@@8
; File d:\lost saga for developer\youtube\tutorial\source\src\lsclient\encryptvalue.h
rdata$r	SEGMENT
??_R1A@?0A@EA@?$CEncrypt@H@@8 DD FLAT:??_R0?AV?$CEncrypt@H@@@8 ; CEncrypt<int>::`RTTI Base Class Descriptor at (0,-1,0,64)'
	DD	00H
	DD	00H
	DD	0ffffffffH
	DD	00H
	DD	040H
	DD	FLAT:??_R3?$CEncrypt@H@@8
rdata$r	ENDS
;	COMDAT ??_R2?$CEncrypt@H@@8
rdata$r	SEGMENT
??_R2?$CEncrypt@H@@8 DD FLAT:??_R1A@?0A@EA@?$CEncrypt@H@@8 ; CEncrypt<int>::`RTTI Base Class Array'
rdata$r	ENDS
;	COMDAT ??_R3?$CEncrypt@H@@8
rdata$r	SEGMENT
??_R3?$CEncrypt@H@@8 DD 00H				; CEncrypt<int>::`RTTI Class Hierarchy Descriptor'
	DD	00H
	DD	01H
	DD	FLAT:??_R2?$CEncrypt@H@@8
rdata$r	ENDS
;	COMDAT ??_R0?AV?$CEncrypt@H@@@8
_DATA	SEGMENT
??_R0?AV?$CEncrypt@H@@@8 DD FLAT:??_7type_info@@6B@	; CEncrypt<int> `RTTI Type Descriptor'
	DD	00H
	DB	'.?AV?$CEncrypt@H@@', 00H
_DATA	ENDS
;	COMDAT ??_R4?$CEncrypt@H@@6B@
rdata$r	SEGMENT
??_R4?$CEncrypt@H@@6B@ DD 00H				; CEncrypt<int>::`RTTI Complete Object Locator'
	DD	00H
	DD	00H
	DD	FLAT:??_R0?AV?$CEncrypt@H@@@8
	DD	FLAT:??_R3?$CEncrypt@H@@8
rdata$r	ENDS
;	COMDAT ??_7?$CEncrypt@H@@6B@
CONST	SEGMENT
??_7?$CEncrypt@H@@6B@ DD FLAT:??_R4?$CEncrypt@H@@6B@	; CEncrypt<int>::`vftable'
	DD	FLAT:??_E?$CEncrypt@H@@UAEPAXI@Z
; Function compile flags: /Ogsp
CONST	ENDS
;	COMDAT ??1?$CEncrypt@H@@UAE@XZ
_TEXT	SEGMENT
??1?$CEncrypt@H@@UAE@XZ PROC				; CEncrypt<int>::~CEncrypt<int>, COMDAT
; _this$ = ecx

; 127  : 	{

  00000	c7 01 00 00 00
	00		 mov	 DWORD PTR [ecx], OFFSET ??_7?$CEncrypt@H@@6B@

; 128  : 	}

  00006	83 c1 0c	 add	 ecx, 12			; 0000000cH
  00009	e9 00 00 00 00	 jmp	 ??1ccddaabb@@UAE@XZ	; ccddaabb::~ccddaabb
??1?$CEncrypt@H@@UAE@XZ ENDP				; CEncrypt<int>::~CEncrypt<int>
_TEXT	ENDS
PUBLIC	?size@?$vector@PAUPriceData@ioClassPrice@@V?$allocator@PAUPriceData@ioClassPrice@@@std@@@std@@QBEIXZ ; std::vector<ioClassPrice::PriceData *,std::allocator<ioClassPrice::PriceData *> >::size
; Function compile flags: /Ogsp
; File c:\program files (x86)\microsoft visual studio 10.0\vc\include\vector
;	COMDAT ?size@?$vector@PAUPriceData@ioClassPrice@@V?$allocator@PAUPriceData@ioClassPrice@@@std@@@std@@QBEIXZ
_TEXT	SEGMENT
?size@?$vector@PAUPriceData@ioClassPrice@@V?$allocator@PAUPriceData@ioClassPrice@@@std@@@std@@QBEIXZ PROC ; std::vector<ioClassPrice::PriceData *,std::allocator<ioClassPrice::PriceData *> >::size, COMDAT
; _this$ = ecx

; 879  : 		return (this->_Mylast - this->_Myfirst);

  00000	8b 41 04	 mov	 eax, DWORD PTR [ecx+4]
  00003	2b 01		 sub	 eax, DWORD PTR [ecx]
  00005	c1 f8 02	 sar	 eax, 2

; 880  : 		}

  00008	c3		 ret	 0
?size@?$vector@PAUPriceData@ioClassPrice@@V?$allocator@PAUPriceData@ioClassPrice@@@std@@@std@@QBEIXZ ENDP ; std::vector<ioClassPrice::PriceData *,std::allocator<ioClassPrice::PriceData *> >::size
; Function compile flags: /Ogsp
_TEXT	ENDS
;	COMDAT ??_G?$CEncrypt@H@@UAEPAXI@Z
_TEXT	SEGMENT
___flags$ = 8						; size = 4
??_G?$CEncrypt@H@@UAEPAXI@Z PROC			; CEncrypt<int>::`scalar deleting destructor', COMDAT
; _this$ = ecx
  00000	55		 push	 ebp
  00001	8b ec		 mov	 ebp, esp
  00003	56		 push	 esi
  00004	8b f1		 mov	 esi, ecx
  00006	8d 4e 0c	 lea	 ecx, DWORD PTR [esi+12]
  00009	c7 06 00 00 00
	00		 mov	 DWORD PTR [esi], OFFSET ??_7?$CEncrypt@H@@6B@
  0000f	e8 00 00 00 00	 call	 ??1ccddaabb@@UAE@XZ	; ccddaabb::~ccddaabb
  00014	f6 45 08 01	 test	 BYTE PTR ___flags$[ebp], 1
  00018	74 07		 je	 SHORT $LN1@scalar@3
  0001a	56		 push	 esi
  0001b	e8 00 00 00 00	 call	 ??3@YAXPAX@Z		; operator delete
  00020	59		 pop	 ecx
$LN1@scalar@3:
  00021	8b c6		 mov	 eax, esi
  00023	5e		 pop	 esi
  00024	5d		 pop	 ebp
  00025	c2 04 00	 ret	 4
??_G?$CEncrypt@H@@UAEPAXI@Z ENDP			; CEncrypt<int>::`scalar deleting destructor'
_TEXT	ENDS
PUBLIC	??0?$allocator@H@std@@QAE@XZ			; std::allocator<int>::allocator<int>
; Function compile flags: /Ogsp
; File c:\program files (x86)\microsoft visual studio 10.0\vc\include\xmemory
;	COMDAT ??0?$allocator@H@std@@QAE@XZ
_TEXT	SEGMENT
??0?$allocator@H@std@@QAE@XZ PROC			; std::allocator<int>::allocator<int>, COMDAT
; _this$ = ecx

; 161  : 	_ALLOCATOR() _THROW0()

  00000	8b c1		 mov	 eax, ecx

; 162  : 		{	// construct default allocator (do nothing)
; 163  : 		}

  00002	c3		 ret	 0
??0?$allocator@H@std@@QAE@XZ ENDP			; std::allocator<int>::allocator<int>
_TEXT	ENDS
PUBLIC	??1?$_Vector_val@VioHashString@@V?$allocator@VioHashString@@@std@@@std@@QAE@XZ ; std::_Vector_val<ioHashString,std::allocator<ioHashString> >::~_Vector_val<ioHashString,std::allocator<ioHashString> >
; Function compile flags: /Ogsp
; File c:\program files (x86)\microsoft visual studio 10.0\vc\include\vector
;	COMDAT ??1?$_Vector_val@VioHashString@@V?$allocator@VioHashString@@@std@@@std@@QAE@XZ
_TEXT	SEGMENT
??1?$_Vector_val@VioHashString@@V?$allocator@VioHashString@@@std@@@std@@QAE@XZ PROC ; std::_Vector_val<ioHashString,std::allocator<ioHashString> >::~_Vector_val<ioHashString,std::allocator<ioHashString> >, COMDAT
; _this$ = ecx

; 434  : 		}

  00000	c3		 ret	 0
??1?$_Vector_val@VioHashString@@V?$allocator@VioHashString@@@std@@@std@@QAE@XZ ENDP ; std::_Vector_val<ioHashString,std::allocator<ioHashString> >::~_Vector_val<ioHashString,std::allocator<ioHashString> >
_TEXT	ENDS
PUBLIC	??0?$allocator@VioHashString@@@std@@QAE@XZ	; std::allocator<ioHashString>::allocator<ioHashString>
; Function compile flags: /Ogsp
; File c:\program files (x86)\microsoft visual studio 10.0\vc\include\xmemory
;	COMDAT ??0?$allocator@VioHashString@@@std@@QAE@XZ
_TEXT	SEGMENT
??0?$allocator@VioHashString@@@std@@QAE@XZ PROC		; std::allocator<ioHashString>::allocator<ioHashString>, COMDAT
; _this$ = ecx

; 161  : 	_ALLOCATOR() _THROW0()

  00000	8b c1		 mov	 eax, ecx

; 162  : 		{	// construct default allocator (do nothing)
; 163  : 		}

  00002	c3		 ret	 0
??0?$allocator@VioHashString@@@std@@QAE@XZ ENDP		; std::allocator<ioHashString>::allocator<ioHashString>
_TEXT	ENDS
PUBLIC	??0?$allocator@VioHashString@@@std@@QAE@ABV01@@Z ; std::allocator<ioHashString>::allocator<ioHashString>
; Function compile flags: /Ogsp
;	COMDAT ??0?$allocator@VioHashString@@@std@@QAE@ABV01@@Z
_TEXT	SEGMENT
___formal$ = 8						; size = 4
??0?$allocator@VioHashString@@@std@@QAE@ABV01@@Z PROC	; std::allocator<ioHashString>::allocator<ioHashString>, COMDAT
; _this$ = ecx

; 165  : 	_ALLOCATOR(const _ALLOCATOR<_Ty>&) _THROW0()

  00000	8b c1		 mov	 eax, ecx

; 166  : 		{	// construct by copying (do nothing)
; 167  : 		}

  00002	c2 04 00	 ret	 4
??0?$allocator@VioHashString@@@std@@QAE@ABV01@@Z ENDP	; std::allocator<ioHashString>::allocator<ioHashString>
_TEXT	ENDS
PUBLIC	??1?$_Vector_val@HV?$allocator@H@std@@@std@@QAE@XZ ; std::_Vector_val<int,std::allocator<int> >::~_Vector_val<int,std::allocator<int> >
; Function compile flags: /Ogsp
; File c:\program files (x86)\microsoft visual studio 10.0\vc\include\vector
;	COMDAT ??1?$_Vector_val@HV?$allocator@H@std@@@std@@QAE@XZ
_TEXT	SEGMENT
??1?$_Vector_val@HV?$allocator@H@std@@@std@@QAE@XZ PROC	; std::_Vector_val<int,std::allocator<int> >::~_Vector_val<int,std::allocator<int> >, COMDAT
; _this$ = ecx

; 434  : 		}

  00000	c3		 ret	 0
??1?$_Vector_val@HV?$allocator@H@std@@@std@@QAE@XZ ENDP	; std::_Vector_val<int,std::allocator<int> >::~_Vector_val<int,std::allocator<int> >
_TEXT	ENDS
PUBLIC	?EncryptValueToPool@?$CEncrypt@H@@AAEXPBD@Z	; CEncrypt<int>::EncryptValueToPool
EXTRN	?EncryptByte@ccddaabb@@QAEXPBDPADH@Z:PROC	; ccddaabb::EncryptByte
; Function compile flags: /Ogsp
; File d:\lost saga for developer\youtube\tutorial\source\src\lsclient\encryptvalue.h
;	COMDAT ?EncryptValueToPool@?$CEncrypt@H@@AAEXPBD@Z
_TEXT	SEGMENT
_value$ = 8						; size = 4
?EncryptValueToPool@?$CEncrypt@H@@AAEXPBD@Z PROC	; CEncrypt<int>::EncryptValueToPool, COMDAT
; _this$ = ecx

; 67   : 	{

  00000	55		 push	 ebp
  00001	8b ec		 mov	 ebp, esp

; 68   : 		m_RC5.EncryptByte( value, m_MemPool, max(m_ValueSize, DEFAULT_ENCRYPT) );

  00003	0f b7 41 06	 movzx	 eax, WORD PTR [ecx+6]
  00007	83 f8 04	 cmp	 eax, 4
  0000a	77 03		 ja	 SHORT $LN4@EncryptVal
  0000c	6a 04		 push	 4
  0000e	58		 pop	 eax
$LN4@EncryptVal:
  0000f	50		 push	 eax
  00010	8d 41 1c	 lea	 eax, DWORD PTR [ecx+28]
  00013	50		 push	 eax
  00014	ff 75 08	 push	 DWORD PTR _value$[ebp]
  00017	83 c1 0c	 add	 ecx, 12			; 0000000cH
  0001a	e8 00 00 00 00	 call	 ?EncryptByte@ccddaabb@@QAEXPBDPADH@Z ; ccddaabb::EncryptByte

; 69   : 		
; 70   : 	}

  0001f	5d		 pop	 ebp
  00020	c2 04 00	 ret	 4
?EncryptValueToPool@?$CEncrypt@H@@AAEXPBD@Z ENDP	; CEncrypt<int>::EncryptValueToPool
_TEXT	ENDS
PUBLIC	?Init@?$CEncrypt@H@@AAEXXZ			; CEncrypt<int>::Init
EXTRN	?Setup@ccddaabb@@QAEXPBDHH@Z:PROC		; ccddaabb::Setup
EXTRN	__imp__rand:PROC
EXTRN	__imp__timeGetTime@0:PROC
EXTRN	__imp__GetCurrentProcessId@0:PROC
; Function compile flags: /Ogsp
;	COMDAT ?Init@?$CEncrypt@H@@AAEXXZ
_TEXT	SEGMENT
_pid$ = -8						; size = 4
_tick$ = -4						; size = 4
?Init@?$CEncrypt@H@@AAEXXZ PROC				; CEncrypt<int>::Init, COMDAT
; _this$ = ecx

; 73   : 	{

  00000	55		 push	 ebp
  00001	8b ec		 mov	 ebp, esp
  00003	51		 push	 ecx
  00004	51		 push	 ecx
  00005	53		 push	 ebx
  00006	56		 push	 esi
  00007	57		 push	 edi
  00008	8b f1		 mov	 esi, ecx

; 74   : 		DWORD pid = GetCurrentProcessId();

  0000a	ff 15 00 00 00
	00		 call	 DWORD PTR __imp__GetCurrentProcessId@0
  00010	89 45 f8	 mov	 DWORD PTR _pid$[ebp], eax

; 75   : 		DWORD tick = timeGetTime();

  00013	ff 15 00 00 00
	00		 call	 DWORD PTR __imp__timeGetTime@0

; 76   : 		m_ValueSize    = sizeof(type);
; 77   : 		m_MemPoolPos   = (unsigned short)( rand()+pid+tick )%(MAX_MEM_POOL-m_ValueSize);

  00019	8b 3d 00 00 00
	00		 mov	 edi, DWORD PTR __imp__rand
  0001f	89 45 fc	 mov	 DWORD PTR _tick$[ebp], eax
  00022	6a 04		 push	 4
  00024	58		 pop	 eax
  00025	66 89 46 06	 mov	 WORD PTR [esi+6], ax
  00029	ff d7		 call	 edi
  0002b	03 45 f8	 add	 eax, DWORD PTR _pid$[ebp]
  0002e	0f b7 4e 06	 movzx	 ecx, WORD PTR [esi+6]
  00032	03 45 fc	 add	 eax, DWORD PTR _tick$[ebp]
  00035	6a 0c		 push	 12			; 0000000cH
  00037	0f b7 c0	 movzx	 eax, ax
  0003a	5b		 pop	 ebx
  0003b	99		 cdq
  0003c	2b d9		 sub	 ebx, ecx
  0003e	f7 fb		 idiv	 ebx
  00040	66 89 56 04	 mov	 WORD PTR [esi+4], dx

; 78   : 		m_EncryptSeed  = (char)( rand()+pid+tick )%256;

  00044	ff d7		 call	 edi
  00046	02 45 f8	 add	 al, BYTE PTR _pid$[ebp]
  00049	02 45 fc	 add	 al, BYTE PTR _tick$[ebp]
  0004c	0f be c0	 movsx	 eax, al
  0004f	25 ff 00 00 80	 and	 eax, -2147483393	; 800000ffH
  00054	79 07		 jns	 SHORT $LN8@Init
  00056	48		 dec	 eax
  00057	0d 00 ff ff ff	 or	 eax, -256		; ffffff00H
  0005c	40		 inc	 eax
$LN8@Init:
  0005d	88 46 08	 mov	 BYTE PTR [esi+8], al

; 79   : 
; 80   : 		for (int i = 0; i < MAX_MEM_POOL ; i++)

  00060	33 db		 xor	 ebx, ebx
$LL3@Init:

; 81   : 			m_MemPool[i] = (char)( rand()+pid+tick )%256; // 더미

  00062	ff d7		 call	 edi
  00064	02 45 f8	 add	 al, BYTE PTR _pid$[ebp]
  00067	02 45 fc	 add	 al, BYTE PTR _tick$[ebp]
  0006a	0f be c0	 movsx	 eax, al
  0006d	25 ff 00 00 80	 and	 eax, -2147483393	; 800000ffH
  00072	79 07		 jns	 SHORT $LN9@Init
  00074	48		 dec	 eax
  00075	0d 00 ff ff ff	 or	 eax, -256		; ffffff00H
  0007a	40		 inc	 eax
$LN9@Init:
  0007b	88 44 1e 1c	 mov	 BYTE PTR [esi+ebx+28], al
  0007f	43		 inc	 ebx
  00080	83 fb 0c	 cmp	 ebx, 12			; 0000000cH
  00083	7c dd		 jl	 SHORT $LL3@Init

; 82   : 
; 83   : 		//UJ 130913, 최적화: szKey 사용안하도록 간략화
; 84   : 		//char szKey[ccddaabb::KEY_SIZE];//="";
; 85   : 		//for (int i = 0; i < ccddaabb::KEY_SIZE  ; i++)
; 86   : 		//	szKey[i] = (char)( rand()+pid+tick )%256; // 더미
; 87   : 		m_RC5.Setup( NULL, pid, tick );

  00085	ff 75 fc	 push	 DWORD PTR _tick$[ebp]
  00088	8d 4e 0c	 lea	 ecx, DWORD PTR [esi+12]
  0008b	ff 75 f8	 push	 DWORD PTR _pid$[ebp]
  0008e	6a 00		 push	 0
  00090	e8 00 00 00 00	 call	 ?Setup@ccddaabb@@QAEXPBDHH@Z ; ccddaabb::Setup
  00095	5f		 pop	 edi
  00096	5e		 pop	 esi
  00097	5b		 pop	 ebx

; 88   : 
; 89   : #ifdef _NOTUSE
; 90   : 		m_value        = 0;
; 91   : 		EncryptValueToPool((char*)&m_value);
; 92   : 		Debug();
; 93   : #endif
; 94   : 	}

  00098	c9		 leave
  00099	c3		 ret	 0
?Init@?$CEncrypt@H@@AAEXXZ ENDP				; CEncrypt<int>::Init
_TEXT	ENDS
PUBLIC	?DecryptValueToPool@?$CEncrypt@H@@QAEXPAH@Z	; CEncrypt<int>::DecryptValueToPool
EXTRN	?DecryptByte@ccddaabb@@QBEXPBDPADH@Z:PROC	; ccddaabb::DecryptByte
; Function compile flags: /Ogsp
;	COMDAT ?DecryptValueToPool@?$CEncrypt@H@@QAEXPAH@Z
_TEXT	SEGMENT
_value$ = 8						; size = 4
?DecryptValueToPool@?$CEncrypt@H@@QAEXPAH@Z PROC	; CEncrypt<int>::DecryptValueToPool, COMDAT
; _this$ = ecx

; 837  : 	{

  00000	55		 push	 ebp
  00001	8b ec		 mov	 ebp, esp
  00003	56		 push	 esi

; 838  : 		m_RC5.DecryptByte( m_MemPool, m_TempMem, 4 );

  00004	8d 71 28	 lea	 esi, DWORD PTR [ecx+40]
  00007	6a 04		 push	 4
  00009	8d 41 1c	 lea	 eax, DWORD PTR [ecx+28]
  0000c	56		 push	 esi
  0000d	50		 push	 eax
  0000e	83 c1 0c	 add	 ecx, 12			; 0000000cH
  00011	e8 00 00 00 00	 call	 ?DecryptByte@ccddaabb@@QBEXPBDPADH@Z ; ccddaabb::DecryptByte

; 839  : 		*value = *((int*)m_TempMem);

  00016	8b 06		 mov	 eax, DWORD PTR [esi]
  00018	8b 4d 08	 mov	 ecx, DWORD PTR _value$[ebp]
  0001b	89 01		 mov	 DWORD PTR [ecx], eax
  0001d	5e		 pop	 esi

; 840  : 	}

  0001e	5d		 pop	 ebp
  0001f	c2 04 00	 ret	 4
?DecryptValueToPool@?$CEncrypt@H@@QAEXPAH@Z ENDP	; CEncrypt<int>::DecryptValueToPool
_TEXT	ENDS
PUBLIC	??0?$_Vector_const_iterator@V?$_Vector_val@HV?$allocator@H@std@@@std@@@std@@QAE@PAHPBU_Container_base0@1@@Z ; std::_Vector_const_iterator<std::_Vector_val<int,std::allocator<int> > >::_Vector_const_iterator<std::_Vector_val<int,std::allocator<int> > >
; Function compile flags: /Ogsp
; File c:\program files (x86)\microsoft visual studio 10.0\vc\include\vector
;	COMDAT ??0?$_Vector_const_iterator@V?$_Vector_val@HV?$allocator@H@std@@@std@@@std@@QAE@PAHPBU_Container_base0@1@@Z
_TEXT	SEGMENT
__Parg$ = 8						; size = 4
__Pvector$ = 12						; size = 4
??0?$_Vector_const_iterator@V?$_Vector_val@HV?$allocator@H@std@@@std@@@std@@QAE@PAHPBU_Container_base0@1@@Z PROC ; std::_Vector_const_iterator<std::_Vector_val<int,std::allocator<int> > >::_Vector_const_iterator<std::_Vector_val<int,std::allocator<int> > >, COMDAT
; _this$ = ecx

; 45   : 		{	// construct with pointer _Parg

  00000	55		 push	 ebp
  00001	8b ec		 mov	 ebp, esp
  00003	8b c1		 mov	 eax, ecx
  00005	8b 4d 08	 mov	 ecx, DWORD PTR __Parg$[ebp]
  00008	89 08		 mov	 DWORD PTR [eax], ecx

; 46   : 		this->_Adopt(_Pvector);
; 47   : 		}

  0000a	5d		 pop	 ebp
  0000b	c2 08 00	 ret	 8
??0?$_Vector_const_iterator@V?$_Vector_val@HV?$allocator@H@std@@@std@@@std@@QAE@PAHPBU_Container_base0@1@@Z ENDP ; std::_Vector_const_iterator<std::_Vector_val<int,std::allocator<int> > >::_Vector_const_iterator<std::_Vector_val<int,std::allocator<int> > >
_TEXT	ENDS
PUBLIC	??0?$_Vector_iterator@V?$_Vector_val@HV?$allocator@H@std@@@std@@@std@@QAE@PAHPBU_Container_base0@1@@Z ; std::_Vector_iterator<std::_Vector_val<int,std::allocator<int> > >::_Vector_iterator<std::_Vector_val<int,std::allocator<int> > >
; Function compile flags: /Ogsp
;	COMDAT ??0?$_Vector_iterator@V?$_Vector_val@HV?$allocator@H@std@@@std@@@std@@QAE@PAHPBU_Container_base0@1@@Z
_TEXT	SEGMENT
__Parg$ = 8						; size = 4
__Pvector$ = 12						; size = 4
??0?$_Vector_iterator@V?$_Vector_val@HV?$allocator@H@std@@@std@@@std@@QAE@PAHPBU_Container_base0@1@@Z PROC ; std::_Vector_iterator<std::_Vector_val<int,std::allocator<int> > >::_Vector_iterator<std::_Vector_val<int,std::allocator<int> > >, COMDAT
; _this$ = ecx

; 304  : 		{	// construct with pointer _Parg

  00000	55		 push	 ebp
  00001	8b ec		 mov	 ebp, esp
  00003	8b c1		 mov	 eax, ecx
  00005	8b 4d 08	 mov	 ecx, DWORD PTR __Parg$[ebp]
  00008	89 08		 mov	 DWORD PTR [eax], ecx

; 305  : 		}

  0000a	5d		 pop	 ebp
  0000b	c2 08 00	 ret	 8
??0?$_Vector_iterator@V?$_Vector_val@HV?$allocator@H@std@@@std@@@std@@QAE@PAHPBU_Container_base0@1@@Z ENDP ; std::_Vector_iterator<std::_Vector_val<int,std::allocator<int> > >::_Vector_iterator<std::_Vector_val<int,std::allocator<int> > >
_TEXT	ENDS
PUBLIC	??0?$allocator@H@std@@QAE@ABV01@@Z		; std::allocator<int>::allocator<int>
; Function compile flags: /Ogsp
; File c:\program files (x86)\microsoft visual studio 10.0\vc\include\xmemory
;	COMDAT ??0?$allocator@H@std@@QAE@ABV01@@Z
_TEXT	SEGMENT
___formal$ = 8						; size = 4
??0?$allocator@H@std@@QAE@ABV01@@Z PROC			; std::allocator<int>::allocator<int>, COMDAT
; _this$ = ecx

; 165  : 	_ALLOCATOR(const _ALLOCATOR<_Ty>&) _THROW0()

  00000	8b c1		 mov	 eax, ecx

; 166  : 		{	// construct by copying (do nothing)
; 167  : 		}

  00002	c2 04 00	 ret	 4
??0?$allocator@H@std@@QAE@ABV01@@Z ENDP			; std::allocator<int>::allocator<int>
_TEXT	ENDS
PUBLIC	?deallocate@?$allocator@H@std@@QAEXPAHI@Z	; std::allocator<int>::deallocate
; Function compile flags: /Ogsp
;	COMDAT ?deallocate@?$allocator@H@std@@QAEXPAHI@Z
_TEXT	SEGMENT
__Ptr$ = 8						; size = 4
___formal$ = 12						; size = 4
?deallocate@?$allocator@H@std@@QAEXPAHI@Z PROC		; std::allocator<int>::deallocate, COMDAT
; _this$ = ecx

; 181  : 		{	// deallocate object at _Ptr, ignore size

  00000	55		 push	 ebp
  00001	8b ec		 mov	 ebp, esp

; 182  : 		::operator delete(_Ptr);

  00003	ff 75 08	 push	 DWORD PTR __Ptr$[ebp]
  00006	e8 00 00 00 00	 call	 ??3@YAXPAX@Z		; operator delete
  0000b	59		 pop	 ecx

; 183  : 		}

  0000c	5d		 pop	 ebp
  0000d	c2 08 00	 ret	 8
?deallocate@?$allocator@H@std@@QAEXPAHI@Z ENDP		; std::allocator<int>::deallocate
_TEXT	ENDS
PUBLIC	?_Xlen@?$vector@VioHashString@@V?$allocator@VioHashString@@@std@@@std@@IBEXXZ ; std::vector<ioHashString,std::allocator<ioHashString> >::_Xlen
; Function compile flags: /Ogsp
; File c:\program files (x86)\microsoft visual studio 10.0\vc\include\vector
;	COMDAT ?_Xlen@?$vector@VioHashString@@V?$allocator@VioHashString@@@std@@@std@@IBEXXZ
_TEXT	SEGMENT
?_Xlen@?$vector@VioHashString@@V?$allocator@VioHashString@@@std@@@std@@IBEXXZ PROC ; std::vector<ioHashString,std::allocator<ioHashString> >::_Xlen, COMDAT
; _this$ = ecx

; 1427 : 		_Xlength_error("vector<T> too long");

  00000	68 00 00 00 00	 push	 OFFSET ??_C@_0BD@OLBABOEK@vector?$DMT?$DO?5too?5long?$AA@
  00005	ff 15 00 00 00
	00		 call	 DWORD PTR __imp_?_Xlength_error@std@@YAXPBD@Z
$LN4@Xlen@2:
$LN3@Xlen@2:
  0000b	cc		 int	 3
?_Xlen@?$vector@VioHashString@@V?$allocator@VioHashString@@@std@@@std@@IBEXXZ ENDP ; std::vector<ioHashString,std::allocator<ioHashString> >::_Xlen
_TEXT	ENDS
PUBLIC	?deallocate@?$allocator@VioHashString@@@std@@QAEXPAVioHashString@@I@Z ; std::allocator<ioHashString>::deallocate
; Function compile flags: /Ogsp
; File c:\program files (x86)\microsoft visual studio 10.0\vc\include\xmemory
;	COMDAT ?deallocate@?$allocator@VioHashString@@@std@@QAEXPAVioHashString@@I@Z
_TEXT	SEGMENT
__Ptr$ = 8						; size = 4
___formal$ = 12						; size = 4
?deallocate@?$allocator@VioHashString@@@std@@QAEXPAVioHashString@@I@Z PROC ; std::allocator<ioHashString>::deallocate, COMDAT
; _this$ = ecx

; 181  : 		{	// deallocate object at _Ptr, ignore size

  00000	55		 push	 ebp
  00001	8b ec		 mov	 ebp, esp

; 182  : 		::operator delete(_Ptr);

  00003	ff 75 08	 push	 DWORD PTR __Ptr$[ebp]
  00006	e8 00 00 00 00	 call	 ??3@YAXPAX@Z		; operator delete
  0000b	59		 pop	 ecx

; 183  : 		}

  0000c	5d		 pop	 ebp
  0000d	c2 08 00	 ret	 8
?deallocate@?$allocator@VioHashString@@@std@@QAEXPAVioHashString@@I@Z ENDP ; std::allocator<ioHashString>::deallocate
_TEXT	ENDS
PUBLIC	?capacity@?$vector@HV?$allocator@H@std@@@std@@QBEIXZ ; std::vector<int,std::allocator<int> >::capacity
; Function compile flags: /Ogsp
; File c:\program files (x86)\microsoft visual studio 10.0\vc\include\vector
;	COMDAT ?capacity@?$vector@HV?$allocator@H@std@@@std@@QBEIXZ
_TEXT	SEGMENT
?capacity@?$vector@HV?$allocator@H@std@@@std@@QBEIXZ PROC ; std::vector<int,std::allocator<int> >::capacity, COMDAT
; _this$ = ecx

; 777  : 		return (this->_Myend - this->_Myfirst);

  00000	8b 41 08	 mov	 eax, DWORD PTR [ecx+8]
  00003	2b 01		 sub	 eax, DWORD PTR [ecx]
  00005	c1 f8 02	 sar	 eax, 2

; 778  : 		}

  00008	c3		 ret	 0
?capacity@?$vector@HV?$allocator@H@std@@@std@@QBEIXZ ENDP ; std::vector<int,std::allocator<int> >::capacity
_TEXT	ENDS
PUBLIC	?_Make_iter@?$vector@HV?$allocator@H@std@@@std@@QBE?AV?$_Vector_iterator@V?$_Vector_val@HV?$allocator@H@std@@@std@@@2@V?$_Vector_const_iterator@V?$_Vector_val@HV?$allocator@H@std@@@std@@@2@@Z ; std::vector<int,std::allocator<int> >::_Make_iter
; Function compile flags: /Ogsp
;	COMDAT ?_Make_iter@?$vector@HV?$allocator@H@std@@@std@@QBE?AV?$_Vector_iterator@V?$_Vector_val@HV?$allocator@H@std@@@std@@@2@V?$_Vector_const_iterator@V?$_Vector_val@HV?$allocator@H@std@@@std@@@2@@Z
_TEXT	SEGMENT
___$ReturnUdt$ = 8					; size = 4
__Where$ = 12						; size = 4
?_Make_iter@?$vector@HV?$allocator@H@std@@@std@@QBE?AV?$_Vector_iterator@V?$_Vector_val@HV?$allocator@H@std@@@std@@@2@V?$_Vector_const_iterator@V?$_Vector_val@HV?$allocator@H@std@@@std@@@2@@Z PROC ; std::vector<int,std::allocator<int> >::_Make_iter, COMDAT
; _this$ = ecx

; 801  : 		{	// make iterator from const_iterator

  00000	55		 push	 ebp
  00001	8b ec		 mov	 ebp, esp

; 802  : 		return (iterator(_Where._Ptr, this));

  00003	8b 45 08	 mov	 eax, DWORD PTR ___$ReturnUdt$[ebp]
  00006	8b 4d 0c	 mov	 ecx, DWORD PTR __Where$[ebp]
  00009	89 08		 mov	 DWORD PTR [eax], ecx

; 803  : 		}

  0000b	5d		 pop	 ebp
  0000c	c2 08 00	 ret	 8
?_Make_iter@?$vector@HV?$allocator@H@std@@@std@@QBE?AV?$_Vector_iterator@V?$_Vector_val@HV?$allocator@H@std@@@std@@@2@V?$_Vector_const_iterator@V?$_Vector_val@HV?$allocator@H@std@@@std@@@2@@Z ENDP ; std::vector<int,std::allocator<int> >::_Make_iter
_TEXT	ENDS
PUBLIC	?_Xlen@?$vector@HV?$allocator@H@std@@@std@@IBEXXZ ; std::vector<int,std::allocator<int> >::_Xlen
; Function compile flags: /Ogsp
;	COMDAT ?_Xlen@?$vector@HV?$allocator@H@std@@@std@@IBEXXZ
_TEXT	SEGMENT
?_Xlen@?$vector@HV?$allocator@H@std@@@std@@IBEXXZ PROC	; std::vector<int,std::allocator<int> >::_Xlen, COMDAT
; _this$ = ecx

; 1427 : 		_Xlength_error("vector<T> too long");

  00000	68 00 00 00 00	 push	 OFFSET ??_C@_0BD@OLBABOEK@vector?$DMT?$DO?5too?5long?$AA@
  00005	ff 15 00 00 00
	00		 call	 DWORD PTR __imp_?_Xlength_error@std@@YAXPBD@Z
$LN4@Xlen@3:
$LN3@Xlen@3:
  0000b	cc		 int	 3
?_Xlen@?$vector@HV?$allocator@H@std@@@std@@IBEXXZ ENDP	; std::vector<int,std::allocator<int> >::_Xlen
_TEXT	ENDS
PUBLIC	??0?$_Vector_const_iterator@V?$_Vector_val@VioHashString@@V?$allocator@VioHashString@@@std@@@std@@@std@@QAE@PAVioHashString@@PBU_Container_base0@1@@Z ; std::_Vector_const_iterator<std::_Vector_val<ioHashString,std::allocator<ioHashString> > >::_Vector_const_iterator<std::_Vector_val<ioHashString,std::allocator<ioHashString> > >
; Function compile flags: /Ogsp
;	COMDAT ??0?$_Vector_const_iterator@V?$_Vector_val@VioHashString@@V?$allocator@VioHashString@@@std@@@std@@@std@@QAE@PAVioHashString@@PBU_Container_base0@1@@Z
_TEXT	SEGMENT
__Parg$ = 8						; size = 4
__Pvector$ = 12						; size = 4
??0?$_Vector_const_iterator@V?$_Vector_val@VioHashString@@V?$allocator@VioHashString@@@std@@@std@@@std@@QAE@PAVioHashString@@PBU_Container_base0@1@@Z PROC ; std::_Vector_const_iterator<std::_Vector_val<ioHashString,std::allocator<ioHashString> > >::_Vector_const_iterator<std::_Vector_val<ioHashString,std::allocator<ioHashString> > >, COMDAT
; _this$ = ecx

; 45   : 		{	// construct with pointer _Parg

  00000	55		 push	 ebp
  00001	8b ec		 mov	 ebp, esp
  00003	8b c1		 mov	 eax, ecx
  00005	8b 4d 08	 mov	 ecx, DWORD PTR __Parg$[ebp]
  00008	89 08		 mov	 DWORD PTR [eax], ecx

; 46   : 		this->_Adopt(_Pvector);
; 47   : 		}

  0000a	5d		 pop	 ebp
  0000b	c2 08 00	 ret	 8
??0?$_Vector_const_iterator@V?$_Vector_val@VioHashString@@V?$allocator@VioHashString@@@std@@@std@@@std@@QAE@PAVioHashString@@PBU_Container_base0@1@@Z ENDP ; std::_Vector_const_iterator<std::_Vector_val<ioHashString,std::allocator<ioHashString> > >::_Vector_const_iterator<std::_Vector_val<ioHashString,std::allocator<ioHashString> > >
_TEXT	ENDS
PUBLIC	??0?$_Vector_iterator@V?$_Vector_val@VioHashString@@V?$allocator@VioHashString@@@std@@@std@@@std@@QAE@PAVioHashString@@PBU_Container_base0@1@@Z ; std::_Vector_iterator<std::_Vector_val<ioHashString,std::allocator<ioHashString> > >::_Vector_iterator<std::_Vector_val<ioHashString,std::allocator<ioHashString> > >
; Function compile flags: /Ogsp
;	COMDAT ??0?$_Vector_iterator@V?$_Vector_val@VioHashString@@V?$allocator@VioHashString@@@std@@@std@@@std@@QAE@PAVioHashString@@PBU_Container_base0@1@@Z
_TEXT	SEGMENT
__Parg$ = 8						; size = 4
__Pvector$ = 12						; size = 4
??0?$_Vector_iterator@V?$_Vector_val@VioHashString@@V?$allocator@VioHashString@@@std@@@std@@@std@@QAE@PAVioHashString@@PBU_Container_base0@1@@Z PROC ; std::_Vector_iterator<std::_Vector_val<ioHashString,std::allocator<ioHashString> > >::_Vector_iterator<std::_Vector_val<ioHashString,std::allocator<ioHashString> > >, COMDAT
; _this$ = ecx

; 304  : 		{	// construct with pointer _Parg

  00000	55		 push	 ebp
  00001	8b ec		 mov	 ebp, esp
  00003	8b c1		 mov	 eax, ecx
  00005	8b 4d 08	 mov	 ecx, DWORD PTR __Parg$[ebp]
  00008	89 08		 mov	 DWORD PTR [eax], ecx

; 305  : 		}

  0000a	5d		 pop	 ebp
  0000b	c2 08 00	 ret	 8
??0?$_Vector_iterator@V?$_Vector_val@VioHashString@@V?$allocator@VioHashString@@@std@@@std@@@std@@QAE@PAVioHashString@@PBU_Container_base0@1@@Z ENDP ; std::_Vector_iterator<std::_Vector_val<ioHashString,std::allocator<ioHashString> > >::_Vector_iterator<std::_Vector_val<ioHashString,std::allocator<ioHashString> > >
_TEXT	ENDS
PUBLIC	?max_size@?$allocator@H@std@@QBEIXZ		; std::allocator<int>::max_size
; Function compile flags: /Ogsp
; File c:\program files (x86)\microsoft visual studio 10.0\vc\include\xmemory
;	COMDAT ?max_size@?$allocator@H@std@@QBEIXZ
_TEXT	SEGMENT
?max_size@?$allocator@H@std@@QBEIXZ PROC		; std::allocator<int>::max_size, COMDAT
; _this$ = ecx

; 218  : 		_SIZT _Count = (_SIZT)(-1) / sizeof (_Ty);
; 219  : 		return (0 < _Count ? _Count : 1);

  00000	b8 ff ff ff 3f	 mov	 eax, 1073741823		; 3fffffffH

; 220  : 		}

  00005	c3		 ret	 0
?max_size@?$allocator@H@std@@QBEIXZ ENDP		; std::allocator<int>::max_size
_TEXT	ENDS
PUBLIC	?max_size@?$allocator@VioHashString@@@std@@QBEIXZ ; std::allocator<ioHashString>::max_size
; Function compile flags: /Ogsp
;	COMDAT ?max_size@?$allocator@VioHashString@@@std@@QBEIXZ
_TEXT	SEGMENT
?max_size@?$allocator@VioHashString@@@std@@QBEIXZ PROC	; std::allocator<ioHashString>::max_size, COMDAT
; _this$ = ecx

; 218  : 		_SIZT _Count = (_SIZT)(-1) / sizeof (_Ty);
; 219  : 		return (0 < _Count ? _Count : 1);

  00000	b8 ff ff ff 0f	 mov	 eax, 268435455		; 0fffffffH

; 220  : 		}

  00005	c3		 ret	 0
?max_size@?$allocator@VioHashString@@@std@@QBEIXZ ENDP	; std::allocator<ioHashString>::max_size
_TEXT	ENDS
PUBLIC	??Y?$_Vector_const_iterator@V?$_Vector_val@HV?$allocator@H@std@@@std@@@std@@QAEAAV01@H@Z ; std::_Vector_const_iterator<std::_Vector_val<int,std::allocator<int> > >::operator+=
; Function compile flags: /Ogsp
; File c:\program files (x86)\microsoft visual studio 10.0\vc\include\vector
;	COMDAT ??Y?$_Vector_const_iterator@V?$_Vector_val@HV?$allocator@H@std@@@std@@@std@@QAEAAV01@H@Z
_TEXT	SEGMENT
__Off$ = 8						; size = 4
??Y?$_Vector_const_iterator@V?$_Vector_val@HV?$allocator@H@std@@@std@@@std@@QAEAAV01@H@Z PROC ; std::_Vector_const_iterator<std::_Vector_val<int,std::allocator<int> > >::operator+=, COMDAT
; _this$ = ecx

; 151  : 		{	// increment by integer

  00000	55		 push	 ebp
  00001	8b ec		 mov	 ebp, esp
  00003	8b c1		 mov	 eax, ecx

; 152  :  #if _ITERATOR_DEBUG_LEVEL == 2
; 153  : 		if (this->_Getcont() == 0
; 154  : 			|| this->_Ptr + _Off < ((_Myvec *)this->_Getcont())->_Myfirst
; 155  : 			|| ((_Myvec *)this->_Getcont())->_Mylast < this->_Ptr + _Off)
; 156  : 			{	// report error
; 157  : 			_DEBUG_ERROR("vector iterator + offset out of range");
; 158  : 			_SCL_SECURE_OUT_OF_RANGE;
; 159  : 			}
; 160  : 
; 161  :  #elif _ITERATOR_DEBUG_LEVEL == 1
; 162  : 		_SCL_SECURE_VALIDATE(this->_Getcont() != 0);
; 163  : 		_SCL_SECURE_VALIDATE_RANGE(
; 164  : 			((_Myvec *)this->_Getcont())->_Myfirst <= this->_Ptr + _Off
; 165  : 			&& this->_Ptr + _Off <= ((_Myvec *)this->_Getcont())->_Mylast);
; 166  :  #endif /* _ITERATOR_DEBUG_LEVEL */
; 167  : 
; 168  : 		_Ptr += _Off;

  00005	8b 4d 08	 mov	 ecx, DWORD PTR __Off$[ebp]
  00008	c1 e1 02	 shl	 ecx, 2
  0000b	01 08		 add	 DWORD PTR [eax], ecx

; 169  : 		return (*this);
; 170  : 		}

  0000d	5d		 pop	 ebp
  0000e	c2 04 00	 ret	 4
??Y?$_Vector_const_iterator@V?$_Vector_val@HV?$allocator@H@std@@@std@@@std@@QAEAAV01@H@Z ENDP ; std::_Vector_const_iterator<std::_Vector_val<int,std::allocator<int> > >::operator+=
_TEXT	ENDS
PUBLIC	?_Compat@?$_Vector_const_iterator@V?$_Vector_val@VioHashString@@V?$allocator@VioHashString@@@std@@@std@@@std@@QBEXABV12@@Z ; std::_Vector_const_iterator<std::_Vector_val<ioHashString,std::allocator<ioHashString> > >::_Compat
; Function compile flags: /Ogsp
;	COMDAT ?_Compat@?$_Vector_const_iterator@V?$_Vector_val@VioHashString@@V?$allocator@VioHashString@@@std@@@std@@@std@@QBEXABV12@@Z
_TEXT	SEGMENT
___formal$ = 8						; size = 4
?_Compat@?$_Vector_const_iterator@V?$_Vector_val@VioHashString@@V?$allocator@VioHashString@@@std@@@std@@@std@@QBEXABV12@@Z PROC ; std::_Vector_const_iterator<std::_Vector_val<ioHashString,std::allocator<ioHashString> > >::_Compat, COMDAT
; _this$ = ecx

; 253  : 		}

  00000	c2 04 00	 ret	 4
?_Compat@?$_Vector_const_iterator@V?$_Vector_val@VioHashString@@V?$allocator@VioHashString@@@std@@@std@@@std@@QBEXABV12@@Z ENDP ; std::_Vector_const_iterator<std::_Vector_val<ioHashString,std::allocator<ioHashString> > >::_Compat
_TEXT	ENDS
PUBLIC	??$_Allocate@VioHashString@@@std@@YAPAVioHashString@@IPAV1@@Z ; std::_Allocate<ioHashString>
; Function compile flags: /Ogsp
; File c:\program files (x86)\microsoft visual studio 10.0\vc\include\xmemory
;	COMDAT ??$_Allocate@VioHashString@@@std@@YAPAVioHashString@@IPAV1@@Z
_TEXT	SEGMENT
$T515738 = -12						; size = 12
$T515742 = 8						; size = 4
__Count$ = 8						; size = 4
___formal$ = 12						; size = 4
??$_Allocate@VioHashString@@@std@@YAPAVioHashString@@IPAV1@@Z PROC ; std::_Allocate<ioHashString>, COMDAT

; 30   : 	{	// allocate storage for _Count elements of type _Ty

  00000	55		 push	 ebp
  00001	8b ec		 mov	 ebp, esp

; 31   : 	void *_Ptr = 0;
; 32   : 
; 33   : 	if (_Count <= 0)

  00003	8b 4d 08	 mov	 ecx, DWORD PTR __Count$[ebp]
  00006	83 ec 0c	 sub	 esp, 12			; 0000000cH
  00009	33 c0		 xor	 eax, eax
  0000b	85 c9		 test	 ecx, ecx

; 34   : 		_Count = 0;
; 35   : 	else if (((_SIZT)(-1) / sizeof (_Ty) < _Count)

  0000d	74 3c		 je	 SHORT $LN5@Allocate@2

; 36   : 		|| (_Ptr = ::operator new(_Count * sizeof (_Ty))) == 0)

  0000f	81 f9 ff ff ff
	0f		 cmp	 ecx, 268435455		; 0fffffffH
  00015	77 0e		 ja	 SHORT $LN1@Allocate@2
  00017	c1 e1 04	 shl	 ecx, 4
  0001a	51		 push	 ecx
  0001b	e8 00 00 00 00	 call	 ??2@YAPAXI@Z		; operator new
  00020	59		 pop	 ecx
  00021	85 c0		 test	 eax, eax

; 38   : 
; 39   : 	return ((_Ty _FARQ *)_Ptr);

  00023	75 26		 jne	 SHORT $LN5@Allocate@2
$LN1@Allocate@2:

; 37   : 		_THROW_NCEE(bad_alloc, 0);

  00025	83 65 08 00	 and	 DWORD PTR $T515742[ebp], 0
  00029	8d 45 08	 lea	 eax, DWORD PTR $T515742[ebp]
  0002c	50		 push	 eax
  0002d	8d 4d f4	 lea	 ecx, DWORD PTR $T515738[ebp]
  00030	ff 15 00 00 00
	00		 call	 DWORD PTR __imp_??0exception@std@@QAE@ABQBD@Z
  00036	68 00 00 00 00	 push	 OFFSET __TI2?AVbad_alloc@std@@
  0003b	8d 45 f4	 lea	 eax, DWORD PTR $T515738[ebp]
  0003e	50		 push	 eax
  0003f	c7 45 f4 00 00
	00 00		 mov	 DWORD PTR $T515738[ebp], OFFSET ??_7bad_alloc@std@@6B@
  00046	e8 00 00 00 00	 call	 __CxxThrowException@8
$LN10@Allocate@2:
$LN5@Allocate@2:

; 40   : 	}

  0004b	c9		 leave
  0004c	c3		 ret	 0
$LN9@Allocate@2:
??$_Allocate@VioHashString@@@std@@YAPAVioHashString@@IPAV1@@Z ENDP ; std::_Allocate<ioHashString>
_TEXT	ENDS
PUBLIC	??$_Allocate@H@std@@YAPAHIPAH@Z			; std::_Allocate<int>
; Function compile flags: /Ogsp
;	COMDAT ??$_Allocate@H@std@@YAPAHIPAH@Z
_TEXT	SEGMENT
$T515747 = -12						; size = 12
$T515751 = 8						; size = 4
__Count$ = 8						; size = 4
___formal$ = 12						; size = 4
??$_Allocate@H@std@@YAPAHIPAH@Z PROC			; std::_Allocate<int>, COMDAT

; 30   : 	{	// allocate storage for _Count elements of type _Ty

  00000	55		 push	 ebp
  00001	8b ec		 mov	 ebp, esp

; 31   : 	void *_Ptr = 0;
; 32   : 
; 33   : 	if (_Count <= 0)

  00003	8b 4d 08	 mov	 ecx, DWORD PTR __Count$[ebp]
  00006	83 ec 0c	 sub	 esp, 12			; 0000000cH
  00009	33 c0		 xor	 eax, eax
  0000b	85 c9		 test	 ecx, ecx

; 34   : 		_Count = 0;
; 35   : 	else if (((_SIZT)(-1) / sizeof (_Ty) < _Count)

  0000d	74 3e		 je	 SHORT $LN5@Allocate@3

; 36   : 		|| (_Ptr = ::operator new(_Count * sizeof (_Ty))) == 0)

  0000f	81 f9 ff ff ff
	3f		 cmp	 ecx, 1073741823		; 3fffffffH
  00015	77 10		 ja	 SHORT $LN1@Allocate@3
  00017	8b c1		 mov	 eax, ecx
  00019	c1 e0 02	 shl	 eax, 2
  0001c	50		 push	 eax
  0001d	e8 00 00 00 00	 call	 ??2@YAPAXI@Z		; operator new
  00022	59		 pop	 ecx
  00023	85 c0		 test	 eax, eax

; 38   : 
; 39   : 	return ((_Ty _FARQ *)_Ptr);

  00025	75 26		 jne	 SHORT $LN5@Allocate@3
$LN1@Allocate@3:

; 37   : 		_THROW_NCEE(bad_alloc, 0);

  00027	83 65 08 00	 and	 DWORD PTR $T515751[ebp], 0
  0002b	8d 45 08	 lea	 eax, DWORD PTR $T515751[ebp]
  0002e	50		 push	 eax
  0002f	8d 4d f4	 lea	 ecx, DWORD PTR $T515747[ebp]
  00032	ff 15 00 00 00
	00		 call	 DWORD PTR __imp_??0exception@std@@QAE@ABQBD@Z
  00038	68 00 00 00 00	 push	 OFFSET __TI2?AVbad_alloc@std@@
  0003d	8d 45 f4	 lea	 eax, DWORD PTR $T515747[ebp]
  00040	50		 push	 eax
  00041	c7 45 f4 00 00
	00 00		 mov	 DWORD PTR $T515747[ebp], OFFSET ??_7bad_alloc@std@@6B@
  00048	e8 00 00 00 00	 call	 __CxxThrowException@8
$LN10@Allocate@3:
$LN5@Allocate@3:

; 40   : 	}

  0004d	c9		 leave
  0004e	c3		 ret	 0
$LN9@Allocate@3:
??$_Allocate@H@std@@YAPAHIPAH@Z ENDP			; std::_Allocate<int>
_TEXT	ENDS
EXTRN	__imp_??0exception@std@@QAE@ABV01@@Z:PROC
; Function compile flags: /Ogsp
;	COMDAT ??0bad_alloc@std@@QAE@ABV01@@Z
_TEXT	SEGMENT
___that$ = 8						; size = 4
??0bad_alloc@std@@QAE@ABV01@@Z PROC			; std::bad_alloc::bad_alloc, COMDAT
; _this$ = ecx
  00000	55		 push	 ebp
  00001	8b ec		 mov	 ebp, esp
  00003	56		 push	 esi
  00004	ff 75 08	 push	 DWORD PTR ___that$[ebp]
  00007	8b f1		 mov	 esi, ecx
  00009	ff 15 00 00 00
	00		 call	 DWORD PTR __imp_??0exception@std@@QAE@ABV01@@Z
  0000f	c7 06 00 00 00
	00		 mov	 DWORD PTR [esi], OFFSET ??_7bad_alloc@std@@6B@
  00015	8b c6		 mov	 eax, esi
  00017	5e		 pop	 esi
  00018	5d		 pop	 ebp
  00019	c2 04 00	 ret	 4
??0bad_alloc@std@@QAE@ABV01@@Z ENDP			; std::bad_alloc::bad_alloc
_TEXT	ENDS
PUBLIC	??$forward@ABVioHashString@@@std@@YAABVioHashString@@ABV1@@Z ; std::forward<ioHashString const &>
; Function compile flags: /Ogsp
; File c:\program files (x86)\microsoft visual studio 10.0\vc\include\utility
;	COMDAT ??$forward@ABVioHashString@@@std@@YAABVioHashString@@ABV1@@Z
_TEXT	SEGMENT
__Arg$ = 8						; size = 4
??$forward@ABVioHashString@@@std@@YAABVioHashString@@ABV1@@Z PROC ; std::forward<ioHashString const &>, COMDAT

; 78   : 	{	// forward _Arg, given explicitly specified type parameter

  00000	55		 push	 ebp
  00001	8b ec		 mov	 ebp, esp

; 79   : 	return ((_Ty&&)_Arg);

  00003	8b 45 08	 mov	 eax, DWORD PTR __Arg$[ebp]

; 80   : 	}

  00006	5d		 pop	 ebp
  00007	c3		 ret	 0
??$forward@ABVioHashString@@@std@@YAABVioHashString@@ABV1@@Z ENDP ; std::forward<ioHashString const &>
_TEXT	ENDS
PUBLIC	??$forward@AAVioHashString@@@std@@YAAAVioHashString@@AAV1@@Z ; std::forward<ioHashString &>
; Function compile flags: /Ogsp
;	COMDAT ??$forward@AAVioHashString@@@std@@YAAAVioHashString@@AAV1@@Z
_TEXT	SEGMENT
__Arg$ = 8						; size = 4
??$forward@AAVioHashString@@@std@@YAAAVioHashString@@AAV1@@Z PROC ; std::forward<ioHashString &>, COMDAT

; 78   : 	{	// forward _Arg, given explicitly specified type parameter

  00000	55		 push	 ebp
  00001	8b ec		 mov	 ebp, esp

; 79   : 	return ((_Ty&&)_Arg);

  00003	8b 45 08	 mov	 eax, DWORD PTR __Arg$[ebp]

; 80   : 	}

  00006	5d		 pop	 ebp
  00007	c3		 ret	 0
??$forward@AAVioHashString@@@std@@YAAAVioHashString@@AAV1@@Z ENDP ; std::forward<ioHashString &>
_TEXT	ENDS
PUBLIC	??$_Val_type@PAH@std@@YAPAHPAH@Z		; std::_Val_type<int *>
; Function compile flags: /Ogsp
; File c:\program files (x86)\microsoft visual studio 10.0\vc\include\xutility
;	COMDAT ??$_Val_type@PAH@std@@YAPAHPAH@Z
_TEXT	SEGMENT
___formal$ = 8						; size = 4
??$_Val_type@PAH@std@@YAPAHPAH@Z PROC			; std::_Val_type<int *>, COMDAT

; 790  : 	return (0);

  00000	33 c0		 xor	 eax, eax

; 791  : 	}

  00002	c3		 ret	 0
??$_Val_type@PAH@std@@YAPAHPAH@Z ENDP			; std::_Val_type<int *>
_TEXT	ENDS
PUBLIC	??$_Ptr_cat@HH@std@@YA?AU_Scalar_ptr_iterator_tag@0@PAH0@Z ; std::_Ptr_cat<int,int>
; Function compile flags: /Ogsp
;	COMDAT ??$_Ptr_cat@HH@std@@YA?AU_Scalar_ptr_iterator_tag@0@PAH0@Z
_TEXT	SEGMENT
__Cat$ = -1						; size = 1
___formal$ = 8						; size = 4
___formal$ = 12						; size = 4
??$_Ptr_cat@HH@std@@YA?AU_Scalar_ptr_iterator_tag@0@PAH0@Z PROC ; std::_Ptr_cat<int,int>, COMDAT

; 516  : 	{	// return pointer category from pointers

  00000	55		 push	 ebp
  00001	8b ec		 mov	 ebp, esp
  00003	51		 push	 ecx

; 517  : 	typename _Ptr_cat_helper<_Elem1, _Elem2>::_Type _Cat;
; 518  : 	return (_Cat);

  00004	8a 45 ff	 mov	 al, BYTE PTR __Cat$[ebp]

; 519  : 	}

  00007	c9		 leave
  00008	c3		 ret	 0
??$_Ptr_cat@HH@std@@YA?AU_Scalar_ptr_iterator_tag@0@PAH0@Z ENDP ; std::_Ptr_cat<int,int>
_TEXT	ENDS
PUBLIC	??$_Ptr_cat@VioHashString@@V1@@std@@YA?AU_Nonscalar_ptr_iterator_tag@0@PAVioHashString@@0@Z ; std::_Ptr_cat<ioHashString,ioHashString>
; Function compile flags: /Ogsp
;	COMDAT ??$_Ptr_cat@VioHashString@@V1@@std@@YA?AU_Nonscalar_ptr_iterator_tag@0@PAVioHashString@@0@Z
_TEXT	SEGMENT
__Cat$ = -1						; size = 1
___formal$ = 8						; size = 4
___formal$ = 12						; size = 4
??$_Ptr_cat@VioHashString@@V1@@std@@YA?AU_Nonscalar_ptr_iterator_tag@0@PAVioHashString@@0@Z PROC ; std::_Ptr_cat<ioHashString,ioHashString>, COMDAT

; 516  : 	{	// return pointer category from pointers

  00000	55		 push	 ebp
  00001	8b ec		 mov	 ebp, esp
  00003	51		 push	 ecx

; 517  : 	typename _Ptr_cat_helper<_Elem1, _Elem2>::_Type _Cat;
; 518  : 	return (_Cat);

  00004	8a 45 ff	 mov	 al, BYTE PTR __Cat$[ebp]

; 519  : 	}

  00007	c9		 leave
  00008	c3		 ret	 0
??$_Ptr_cat@VioHashString@@V1@@std@@YA?AU_Nonscalar_ptr_iterator_tag@0@PAVioHashString@@0@Z ENDP ; std::_Ptr_cat<ioHashString,ioHashString>
_TEXT	ENDS
PUBLIC	??$_Move@PAHPAH@std@@YAPAHPAH00U_Scalar_ptr_iterator_tag@0@@Z ; std::_Move<int *,int *>
EXTRN	__imp__memmove:PROC
; Function compile flags: /Ogsp
;	COMDAT ??$_Move@PAHPAH@std@@YAPAHPAH00U_Scalar_ptr_iterator_tag@0@@Z
_TEXT	SEGMENT
__First$ = 8						; size = 4
__Last$ = 12						; size = 4
__Dest$ = 16						; size = 4
___formal$ = 20						; size = 1
??$_Move@PAHPAH@std@@YAPAHPAH00U_Scalar_ptr_iterator_tag@0@@Z PROC ; std::_Move<int *,int *>, COMDAT

; 2522 : 	{	// move [_First, _Last) to [_Dest, ...), pointers to scalars

  00000	55		 push	 ebp
  00001	8b ec		 mov	 ebp, esp
  00003	56		 push	 esi

; 2523 : 	ptrdiff_t _Count = _Last - _First;

  00004	8b 75 0c	 mov	 esi, DWORD PTR __Last$[ebp]
  00007	2b 75 08	 sub	 esi, DWORD PTR __First$[ebp]
  0000a	57		 push	 edi

; 2524 : 	_CSTD memmove(&*_Dest, &*_First,
; 2525 : 		_Count * sizeof (*_First));

  0000b	8b 7d 10	 mov	 edi, DWORD PTR __Dest$[ebp]
  0000e	c1 fe 02	 sar	 esi, 2
  00011	c1 e6 02	 shl	 esi, 2
  00014	56		 push	 esi
  00015	ff 75 08	 push	 DWORD PTR __First$[ebp]
  00018	57		 push	 edi
  00019	ff 15 00 00 00
	00		 call	 DWORD PTR __imp__memmove
  0001f	83 c4 0c	 add	 esp, 12			; 0000000cH

; 2526 : 	return (_Dest + _Count);

  00022	8d 04 3e	 lea	 eax, DWORD PTR [esi+edi]
  00025	5f		 pop	 edi
  00026	5e		 pop	 esi

; 2527 : 	}

  00027	5d		 pop	 ebp
  00028	c3		 ret	 0
??$_Move@PAHPAH@std@@YAPAHPAH00U_Scalar_ptr_iterator_tag@0@@Z ENDP ; std::_Move<int *,int *>
_TEXT	ENDS
PUBLIC	??$_Destroy_range@V?$allocator@H@std@@@std@@YAXPAH0AAV?$allocator@H@0@U_Scalar_ptr_iterator_tag@0@@Z ; std::_Destroy_range<std::allocator<int> >
; Function compile flags: /Ogsp
; File c:\program files (x86)\microsoft visual studio 10.0\vc\include\xmemory
;	COMDAT ??$_Destroy_range@V?$allocator@H@std@@@std@@YAXPAH0AAV?$allocator@H@0@U_Scalar_ptr_iterator_tag@0@@Z
_TEXT	SEGMENT
__First$ = 8						; size = 4
__Last$ = 12						; size = 4
__Al$ = 16						; size = 4
___formal$ = 20						; size = 1
??$_Destroy_range@V?$allocator@H@std@@@std@@YAXPAH0AAV?$allocator@H@0@U_Scalar_ptr_iterator_tag@0@@Z PROC ; std::_Destroy_range<std::allocator<int> >, COMDAT

; 105  : 	}

  00000	c3		 ret	 0
??$_Destroy_range@V?$allocator@H@std@@@std@@YAXPAH0AAV?$allocator@H@0@U_Scalar_ptr_iterator_tag@0@@Z ENDP ; std::_Destroy_range<std::allocator<int> >
_TEXT	ENDS
PUBLIC	??$move@AAVioHashString@@@std@@YA$$QAVioHashString@@AAV1@@Z ; std::move<ioHashString &>
; Function compile flags: /Ogsp
; File c:\program files (x86)\microsoft visual studio 10.0\vc\include\utility
;	COMDAT ??$move@AAVioHashString@@@std@@YA$$QAVioHashString@@AAV1@@Z
_TEXT	SEGMENT
__Arg$ = 8						; size = 4
??$move@AAVioHashString@@@std@@YA$$QAVioHashString@@AAV1@@Z PROC ; std::move<ioHashString &>, COMDAT

; 86   : 	{	// forward _Arg as movable

  00000	55		 push	 ebp
  00001	8b ec		 mov	 ebp, esp

; 87   : 	return ((typename tr1::_Remove_reference<_Ty>::_Type&&)_Arg);

  00003	8b 45 08	 mov	 eax, DWORD PTR __Arg$[ebp]

; 88   : 	}

  00006	5d		 pop	 ebp
  00007	c3		 ret	 0
??$move@AAVioHashString@@@std@@YA$$QAVioHashString@@AAV1@@Z ENDP ; std::move<ioHashString &>
_TEXT	ENDS
PUBLIC	??$_Uninit_move@HHH@std@@YAPAHPAH00AAV?$allocator@H@0@0U_Scalar_ptr_iterator_tag@0@@Z ; std::_Uninit_move<int,int,int>
; Function compile flags: /Ogsp
; File c:\program files (x86)\microsoft visual studio 10.0\vc\include\memory
;	COMDAT ??$_Uninit_move@HHH@std@@YAPAHPAH00AAV?$allocator@H@0@0U_Scalar_ptr_iterator_tag@0@@Z
_TEXT	SEGMENT
__First$ = 8						; size = 4
__Last$ = 12						; size = 4
__Dest$ = 16						; size = 4
___formal$ = 20						; size = 4
___formal$ = 24						; size = 4
___formal$ = 28						; size = 1
??$_Uninit_move@HHH@std@@YAPAHPAH00AAV?$allocator@H@0@0U_Scalar_ptr_iterator_tag@0@@Z PROC ; std::_Uninit_move<int,int,int>, COMDAT

; 456  : 	{	// move [_First, _Last) to raw _Dest, scalar type

  00000	55		 push	 ebp
  00001	8b ec		 mov	 ebp, esp
  00003	56		 push	 esi

; 457  : 	_DEBUG_RANGE(_First, _Last);
; 458  : 	_DEBUG_POINTER(_Dest);
; 459  : 	size_t _Count = (size_t)(_Last - _First);

  00004	8b 75 0c	 mov	 esi, DWORD PTR __Last$[ebp]
  00007	2b 75 08	 sub	 esi, DWORD PTR __First$[ebp]
  0000a	c1 fe 02	 sar	 esi, 2

; 460  : 	return ((_Ty2 *)_CSTD memmove(&*_Dest, &*_First,
; 461  : 		_Count * sizeof (*_First)) + _Count);	// NB: non-overlapping move

  0000d	c1 e6 02	 shl	 esi, 2
  00010	56		 push	 esi
  00011	ff 75 08	 push	 DWORD PTR __First$[ebp]
  00014	ff 75 10	 push	 DWORD PTR __Dest$[ebp]
  00017	ff 15 00 00 00
	00		 call	 DWORD PTR __imp__memmove
  0001d	83 c4 0c	 add	 esp, 12			; 0000000cH
  00020	03 c6		 add	 eax, esi
  00022	5e		 pop	 esi

; 462  : 	}

  00023	5d		 pop	 ebp
  00024	c3		 ret	 0
??$_Uninit_move@HHH@std@@YAPAHPAH00AAV?$allocator@H@0@0U_Scalar_ptr_iterator_tag@0@@Z ENDP ; std::_Uninit_move<int,int,int>
_TEXT	ENDS
PUBLIC	??_GioHashString@@QAEPAXI@Z			; ioHashString::`scalar deleting destructor'
; Function compile flags: /Ogsp
;	COMDAT ??_GioHashString@@QAEPAXI@Z
_TEXT	SEGMENT
___flags$ = 8						; size = 4
??_GioHashString@@QAEPAXI@Z PROC			; ioHashString::`scalar deleting destructor', COMDAT
; _this$ = ecx
  00000	55		 push	 ebp
  00001	8b ec		 mov	 ebp, esp
  00003	56		 push	 esi
  00004	8b f1		 mov	 esi, ecx
  00006	ff 15 00 00 00
	00		 call	 DWORD PTR __imp_??1ioHashString@@QAE@XZ
  0000c	f6 45 08 01	 test	 BYTE PTR ___flags$[ebp], 1
  00010	74 07		 je	 SHORT $LN1@scalar@4
  00012	56		 push	 esi
  00013	e8 00 00 00 00	 call	 ??3@YAXPAX@Z		; operator delete
  00018	59		 pop	 ecx
$LN1@scalar@4:
  00019	8b c6		 mov	 eax, esi
  0001b	5e		 pop	 esi
  0001c	5d		 pop	 ebp
  0001d	c2 04 00	 ret	 4
??_GioHashString@@QAEPAXI@Z ENDP			; ioHashString::`scalar deleting destructor'
_TEXT	ENDS
PUBLIC	??$forward@H@std@@YA$$QAHAAH@Z			; std::forward<int>
; Function compile flags: /Ogsp
; File c:\program files (x86)\microsoft visual studio 10.0\vc\include\utility
;	COMDAT ??$forward@H@std@@YA$$QAHAAH@Z
_TEXT	SEGMENT
__Arg$ = 8						; size = 4
??$forward@H@std@@YA$$QAHAAH@Z PROC			; std::forward<int>, COMDAT

; 78   : 	{	// forward _Arg, given explicitly specified type parameter

  00000	55		 push	 ebp
  00001	8b ec		 mov	 ebp, esp

; 79   : 	return ((_Ty&&)_Arg);

  00003	8b 45 08	 mov	 eax, DWORD PTR __Arg$[ebp]

; 80   : 	}

  00006	5d		 pop	 ebp
  00007	c3		 ret	 0
??$forward@H@std@@YA$$QAHAAH@Z ENDP			; std::forward<int>
_TEXT	ENDS
PUBLIC	??$_Construct@VioHashString@@ABV1@@std@@YAXPAVioHashString@@ABV1@@Z ; std::_Construct<ioHashString,ioHashString const &>
;	COMDAT xdata$x
xdata$x	SEGMENT
__unwindtable$??$_Construct@VioHashString@@ABV1@@std@@YAXPAVioHashString@@ABV1@@Z DD 0ffffffffH
	DD	FLAT:__unwindfunclet$??$_Construct@VioHashString@@ABV1@@std@@YAXPAVioHashString@@ABV1@@Z$0
__ehfuncinfo$??$_Construct@VioHashString@@ABV1@@std@@YAXPAVioHashString@@ABV1@@Z DD 019930522H
	DD	01H
	DD	FLAT:__unwindtable$??$_Construct@VioHashString@@ABV1@@std@@YAXPAVioHashString@@ABV1@@Z
	DD	2 DUP(00H)
	DD	2 DUP(00H)
	DD	00H
	DD	01H
; Function compile flags: /Ogsp
; File c:\program files (x86)\microsoft visual studio 10.0\vc\include\xmemory
xdata$x	ENDS
;	COMDAT ??$_Construct@VioHashString@@ABV1@@std@@YAXPAVioHashString@@ABV1@@Z
_TEXT	SEGMENT
$T515784 = -16						; size = 4
__$EHRec$ = -12						; size = 12
__Vptr$ = 8						; size = 4
__Ptr$ = 8						; size = 4
__Val$ = 12						; size = 4
??$_Construct@VioHashString@@ABV1@@std@@YAXPAVioHashString@@ABV1@@Z PROC ; std::_Construct<ioHashString,ioHashString const &>, COMDAT

; 46   : 	{	// construct object at _Ptr with value _Val

  00000	6a 04		 push	 4
  00002	b8 00 00 00 00	 mov	 eax, __ehhandler$??$_Construct@VioHashString@@ABV1@@std@@YAXPAVioHashString@@ABV1@@Z
  00007	e8 00 00 00 00	 call	 __EH_prolog3

; 47   : 	void _FARQ *_Vptr = _Ptr;

  0000c	8b 4d 08	 mov	 ecx, DWORD PTR __Ptr$[ebp]
  0000f	89 4d 08	 mov	 DWORD PTR __Vptr$[ebp], ecx

; 48   : 	::new (_Vptr) _Ty1(_STD forward<_Ty2>(_Val));

  00012	89 4d f0	 mov	 DWORD PTR $T515784[ebp], ecx
  00015	83 65 fc 00	 and	 DWORD PTR __$EHRec$[ebp+8], 0
  00019	85 c9		 test	 ecx, ecx
  0001b	74 09		 je	 SHORT $LN3@Construct
  0001d	ff 75 0c	 push	 DWORD PTR __Val$[ebp]
  00020	ff 15 00 00 00
	00		 call	 DWORD PTR __imp_??0ioHashString@@QAE@ABV0@@Z
$LN3@Construct:

; 49   : 	}

  00026	e8 00 00 00 00	 call	 __EH_epilog3
  0002b	c3		 ret	 0
_TEXT	ENDS
;	COMDAT text$x
text$x	SEGMENT
__unwindfunclet$??$_Construct@VioHashString@@ABV1@@std@@YAXPAVioHashString@@ABV1@@Z$0:
  00000	ff 75 08	 push	 DWORD PTR __Vptr$[ebp]
  00003	ff 75 f0	 push	 DWORD PTR $T515784[ebp]
  00006	e8 00 00 00 00	 call	 ??3@YAXPAX0@Z		; operator delete
  0000b	59		 pop	 ecx
  0000c	59		 pop	 ecx
  0000d	c3		 ret	 0
__ehhandler$??$_Construct@VioHashString@@ABV1@@std@@YAXPAVioHashString@@ABV1@@Z:
  0000e	8b 54 24 08	 mov	 edx, DWORD PTR [esp+8]
  00012	8d 42 0c	 lea	 eax, DWORD PTR [edx+12]
  00015	8b 4a ec	 mov	 ecx, DWORD PTR [edx-20]
  00018	33 c8		 xor	 ecx, eax
  0001a	e8 00 00 00 00	 call	 @__security_check_cookie@4
  0001f	b8 00 00 00 00	 mov	 eax, OFFSET __ehfuncinfo$??$_Construct@VioHashString@@ABV1@@std@@YAXPAVioHashString@@ABV1@@Z
  00024	e9 00 00 00 00	 jmp	 ___CxxFrameHandler3
text$x	ENDS
??$_Construct@VioHashString@@ABV1@@std@@YAXPAVioHashString@@ABV1@@Z ENDP ; std::_Construct<ioHashString,ioHashString const &>
PUBLIC	__real@434c0000
PUBLIC	?PrintManual@InvenFourExtraCompoundBuyWnd@@IAEXHHM@Z ; InvenFourExtraCompoundBuyWnd::PrintManual
EXTRN	??1ioComplexStringPrinter@@QAE@XZ:PROC		; ioComplexStringPrinter::~ioComplexStringPrinter
EXTRN	?ClearList@ioComplexStringPrinter@@QAEXXZ:PROC	; ioComplexStringPrinter::ClearList
EXTRN	?PrintFullTextWidthCut@ioComplexStringPrinter@@QAEXMMW4TextAlignType@@ME@Z:PROC ; ioComplexStringPrinter::PrintFullTextWidthCut
EXTRN	??0ioComplexStringPrinter@@QAE@XZ:PROC		; ioComplexStringPrinter::ioComplexStringPrinter
EXTRN	?FindEtcItem@ioEtcItemManager@@QAEPAVioEtcItem@@K@Z:PROC ; ioEtcItemManager::FindEtcItem
;	COMDAT __real@434c0000
; File d:\lost saga for developer\youtube\tutorial\source\src\lsclient\ioetcitem.h
CONST	SEGMENT
__real@434c0000 DD 0434c0000r			; 204
CONST	ENDS
;	COMDAT xdata$x
xdata$x	SEGMENT
__unwindtable$?PrintManual@InvenFourExtraCompoundBuyWnd@@IAEXHHM@Z DD 0ffffffffH
	DD	FLAT:__unwindfunclet$?PrintManual@InvenFourExtraCompoundBuyWnd@@IAEXHHM@Z$0
__ehfuncinfo$?PrintManual@InvenFourExtraCompoundBuyWnd@@IAEXHHM@Z DD 019930522H
	DD	01H
	DD	FLAT:__unwindtable$?PrintManual@InvenFourExtraCompoundBuyWnd@@IAEXHHM@Z
	DD	2 DUP(00H)
	DD	2 DUP(00H)
	DD	00H
	DD	01H
; Function compile flags: /Ogsp
; File d:\lost saga for developer\youtube\tutorial\source\src\lsclient\gui\invenfourextracompoundwnd.cpp
xdata$x	ENDS
;	COMDAT ?PrintManual@InvenFourExtraCompoundBuyWnd@@IAEXHHM@Z
_TEXT	SEGMENT
_kPrinter$ = -48					; size = 32
_iMaxLine$ = -16					; size = 4
__$EHRec$ = -12						; size = 12
tv196 = 8						; size = 4
_a_iXPos$ = 8						; size = 4
_a_iYPos$ = 12						; size = 4
_fScale$ = 16						; size = 4
?PrintManual@InvenFourExtraCompoundBuyWnd@@IAEXHHM@Z PROC ; InvenFourExtraCompoundBuyWnd::PrintManual, COMDAT
; _this$ = ecx

; 597  : {

  00000	6a 24		 push	 36			; 00000024H
  00002	b8 00 00 00 00	 mov	 eax, __ehhandler$?PrintManual@InvenFourExtraCompoundBuyWnd@@IAEXHHM@Z
  00007	e8 00 00 00 00	 call	 __EH_prolog3
  0000c	8b f1		 mov	 esi, ecx

; 598  : 	if( !m_pManual )

  0000e	83 be 64 01 00
	00 00		 cmp	 DWORD PTR [esi+356], 0
  00015	0f 84 c9 00 00
	00		 je	 $LN6@PrintManua

; 599  : 		return;
; 600  : 
; 601  : 	ioEtcItem *pItem = g_EtcItemMgr.FindEtcItem( m_dwEtcItemType );

  0001b	ff b6 60 01 00
	00		 push	 DWORD PTR [esi+352]
  00021	8b 0d 00 00 00
	00		 mov	 ecx, DWORD PTR ?ms_Singleton@?$Singleton@VioEtcItemManager@@@@1PAVioEtcItemManager@@A ; Singleton<ioEtcItemManager>::ms_Singleton
  00027	e8 00 00 00 00	 call	 ?FindEtcItem@ioEtcItemManager@@QAEPAVioEtcItem@@K@Z ; ioEtcItemManager::FindEtcItem

; 602  : 	if( !pItem ) return;

  0002c	85 c0		 test	 eax, eax
  0002e	0f 84 b0 00 00
	00		 je	 $LN6@PrintManua

; 603  : 
; 604  : 	int iSubManual = pItem->GetInventorySubManual() - 1;

  00034	8b 78 4c	 mov	 edi, DWORD PTR [eax+76]

; 605  : 	ioComplexStringPrinter kPrinter;

  00037	8d 4d d0	 lea	 ecx, DWORD PTR _kPrinter$[ebp]
  0003a	4f		 dec	 edi
  0003b	e8 00 00 00 00	 call	 ??0ioComplexStringPrinter@@QAE@XZ ; ioComplexStringPrinter::ioComplexStringPrinter

; 606  : 	int iMaxLine = m_pManual->GetMaxLine( iSubManual );

  00040	8b 8e 64 01 00
	00		 mov	 ecx, DWORD PTR [esi+356]
  00046	8b 01		 mov	 eax, DWORD PTR [ecx]
  00048	83 65 fc 00	 and	 DWORD PTR __$EHRec$[ebp+8], 0
  0004c	57		 push	 edi
  0004d	ff 50 08	 call	 DWORD PTR [eax+8]

; 607  : 	for(int iLine = 1; iLine < iMaxLine; iLine++)

  00050	33 db		 xor	 ebx, ebx
  00052	43		 inc	 ebx
  00053	89 45 f0	 mov	 DWORD PTR _iMaxLine$[ebp], eax
  00056	3b c3		 cmp	 eax, ebx
  00058	7e 7e		 jle	 SHORT $LN1@PrintManua
  0005a	66 0f 6e 45 08	 movd	 xmm0, DWORD PTR _a_iXPos$[ebp]
  0005f	0f 5b c0	 cvtdq2ps xmm0, xmm0
  00062	f3 0f 11 45 08	 movss	 DWORD PTR tv196[ebp], xmm0
$LL3@PrintManua:

; 608  : 	{
; 609  : 		m_pManual->SetPrinter( iSubManual, iLine, fScale, kPrinter);

  00067	8b 8e 64 01 00
	00		 mov	 ecx, DWORD PTR [esi+356]
  0006d	f3 0f 10 45 10	 movss	 xmm0, DWORD PTR _fScale$[ebp]
  00072	8b 01		 mov	 eax, DWORD PTR [ecx]
  00074	8d 55 d0	 lea	 edx, DWORD PTR _kPrinter$[ebp]
  00077	52		 push	 edx
  00078	51		 push	 ecx
  00079	f3 0f 11 04 24	 movss	 DWORD PTR [esp], xmm0
  0007e	53		 push	 ebx
  0007f	57		 push	 edi
  00080	ff 50 10	 call	 DWORD PTR [eax+16]

; 610  : 		a_iYPos += m_pManual->GetSpaceLine( iSubManual, iLine);

  00083	8b 8e 64 01 00
	00		 mov	 ecx, DWORD PTR [esi+356]
  00089	8b 01		 mov	 eax, DWORD PTR [ecx]
  0008b	53		 push	 ebx
  0008c	57		 push	 edi
  0008d	ff 50 0c	 call	 DWORD PTR [eax+12]

; 611  : 		kPrinter.PrintFullTextWidthCut( a_iXPos, a_iYPos, TAT_LEFT, DESC_WIDTH );

  00090	f3 0f 10 05 00
	00 00 00	 movss	 xmm0, DWORD PTR __real@434c0000
  00098	01 45 0c	 add	 DWORD PTR _a_iYPos$[ebp], eax
  0009b	68 ff 00 00 00	 push	 255			; 000000ffH
  000a0	51		 push	 ecx
  000a1	f3 0f 11 04 24	 movss	 DWORD PTR [esp], xmm0
  000a6	66 0f 6e 45 0c	 movd	 xmm0, DWORD PTR _a_iYPos$[ebp]
  000ab	6a 00		 push	 0
  000ad	51		 push	 ecx
  000ae	51		 push	 ecx
  000af	0f 5b c0	 cvtdq2ps xmm0, xmm0
  000b2	f3 0f 11 44 24
	04		 movss	 DWORD PTR [esp+4], xmm0
  000b8	f3 0f 10 45 08	 movss	 xmm0, DWORD PTR tv196[ebp]
  000bd	8d 4d d0	 lea	 ecx, DWORD PTR _kPrinter$[ebp]
  000c0	f3 0f 11 04 24	 movss	 DWORD PTR [esp], xmm0
  000c5	e8 00 00 00 00	 call	 ?PrintFullTextWidthCut@ioComplexStringPrinter@@QAEXMMW4TextAlignType@@ME@Z ; ioComplexStringPrinter::PrintFullTextWidthCut

; 612  : 		kPrinter.ClearList();

  000ca	8d 4d d0	 lea	 ecx, DWORD PTR _kPrinter$[ebp]
  000cd	e8 00 00 00 00	 call	 ?ClearList@ioComplexStringPrinter@@QAEXXZ ; ioComplexStringPrinter::ClearList
  000d2	43		 inc	 ebx
  000d3	3b 5d f0	 cmp	 ebx, DWORD PTR _iMaxLine$[ebp]
  000d6	7c 8f		 jl	 SHORT $LL3@PrintManua
$LN1@PrintManua:

; 613  : 	}
; 614  : }

  000d8	83 4d fc ff	 or	 DWORD PTR __$EHRec$[ebp+8], -1
  000dc	8d 4d d0	 lea	 ecx, DWORD PTR _kPrinter$[ebp]
  000df	e8 00 00 00 00	 call	 ??1ioComplexStringPrinter@@QAE@XZ ; ioComplexStringPrinter::~ioComplexStringPrinter
$LN6@PrintManua:
  000e4	e8 00 00 00 00	 call	 __EH_epilog3
  000e9	c2 0c 00	 ret	 12			; 0000000cH
_TEXT	ENDS
;	COMDAT text$x
text$x	SEGMENT
__unwindfunclet$?PrintManual@InvenFourExtraCompoundBuyWnd@@IAEXHHM@Z$0:
  00000	8d 4d d0	 lea	 ecx, DWORD PTR _kPrinter$[ebp]
  00003	e9 00 00 00 00	 jmp	 ??1ioComplexStringPrinter@@QAE@XZ ; ioComplexStringPrinter::~ioComplexStringPrinter
__ehhandler$?PrintManual@InvenFourExtraCompoundBuyWnd@@IAEXHHM@Z:
  00008	8b 54 24 08	 mov	 edx, DWORD PTR [esp+8]
  0000c	8d 42 0c	 lea	 eax, DWORD PTR [edx+12]
  0000f	8b 4a cc	 mov	 ecx, DWORD PTR [edx-52]
  00012	33 c8		 xor	 ecx, eax
  00014	e8 00 00 00 00	 call	 @__security_check_cookie@4
  00019	b8 00 00 00 00	 mov	 eax, OFFSET __ehfuncinfo$?PrintManual@InvenFourExtraCompoundBuyWnd@@IAEXHHM@Z
  0001e	e9 00 00 00 00	 jmp	 ___CxxFrameHandler3
text$x	ENDS
?PrintManual@InvenFourExtraCompoundBuyWnd@@IAEXHHM@Z ENDP ; InvenFourExtraCompoundBuyWnd::PrintManual
PUBLIC	??_C@_0BJ@MBKFFGIH@?$CFs?5pEtcItem?5?$DN?$DN?5NULL?5?3?5?$CFd?$AA@ ; `string'
PUBLIC	??_C@_0DA@PFDMGIOI@InvenFourExtraCompoundBuyResultW@ ; `string'
PUBLIC	??_R0?AVMyInventoryWnd@@@8			; MyInventoryWnd `RTTI Type Descriptor'
PUBLIC	?iwm_command@InvenFourExtraCompoundBuyResultWnd@@UAEXPAVioWnd@@HK@Z ; InvenFourExtraCompoundBuyResultWnd::iwm_command
EXTRN	__imp_?PrintTimeAndLog@CLog@@QAAXHPADZZ:PROC
EXTRN	__imp_?LOG@@3VCLog@@A:BYTE
EXTRN	?ShowPresentTabDirect@MyInventoryWnd@@QAEXXZ:PROC ; MyInventoryWnd::ShowPresentTabDirect
EXTRN	__imp_?FindWnd@ioGUIManager@@QAEPAVioWnd@@K@Z:PROC
EXTRN	__imp_?HideWnd@ioWnd@@QAEXXZ:PROC
EXTRN	__imp_?GetID@ioWnd@@QBEKXZ:PROC
;	COMDAT ??_C@_0BJ@MBKFFGIH@?$CFs?5pEtcItem?5?$DN?$DN?5NULL?5?3?5?$CFd?$AA@
; File d:\lost saga for developer\youtube\tutorial\source\src\io3dengine\iosingleton.h
CONST	SEGMENT
??_C@_0BJ@MBKFFGIH@?$CFs?5pEtcItem?5?$DN?$DN?5NULL?5?3?5?$CFd?$AA@ DB '%s'
	DB	' pEtcItem == NULL : %d', 00H		; `string'
CONST	ENDS
;	COMDAT ??_C@_0DA@PFDMGIOI@InvenFourExtraCompoundBuyResultW@
CONST	SEGMENT
??_C@_0DA@PFDMGIOI@InvenFourExtraCompoundBuyResultW@ DB 'InvenFourExtraCo'
	DB	'mpoundBuyResultWnd::iwm_command', 00H	; `string'
CONST	ENDS
;	COMDAT ??_R0?AVMyInventoryWnd@@@8
_DATA	SEGMENT
??_R0?AVMyInventoryWnd@@@8 DD FLAT:??_7type_info@@6B@	; MyInventoryWnd `RTTI Type Descriptor'
	DD	00H
	DB	'.?AVMyInventoryWnd@@', 00H
; Function compile flags: /Ogsp
; File d:\lost saga for developer\youtube\tutorial\source\src\lsclient\gui\invenfourextracompoundwnd.cpp
_DATA	ENDS
;	COMDAT ?iwm_command@InvenFourExtraCompoundBuyResultWnd@@UAEXPAVioWnd@@HK@Z
_TEXT	SEGMENT
_pWnd$ = 8						; size = 4
_cmd$ = 12						; size = 4
_param$ = 16						; size = 4
?iwm_command@InvenFourExtraCompoundBuyResultWnd@@UAEXPAVioWnd@@HK@Z PROC ; InvenFourExtraCompoundBuyResultWnd::iwm_command, COMDAT
; _this$ = ecx

; 852  : {

  00000	55		 push	 ebp
  00001	8b ec		 mov	 ebp, esp
  00003	56		 push	 esi
  00004	8b f1		 mov	 esi, ecx

; 853  : 	DWORD dwID = pWnd->GetID();

  00006	8b 4d 08	 mov	 ecx, DWORD PTR _pWnd$[ebp]
  00009	ff 15 00 00 00
	00		 call	 DWORD PTR __imp_?GetID@ioWnd@@QBEKXZ

; 854  : 	switch( dwID )

  0000f	48		 dec	 eax
  00010	48		 dec	 eax
  00011	74 4f		 je	 SHORT $LN4@iwm_comman
  00013	48		 dec	 eax
  00014	0f 85 b2 00 00
	00		 jne	 $LN2@iwm_comman

; 855  : 	{
; 856  : 	case ID_GO:
; 857  : 		if( cmd == IOBN_BTNUP )

  0001a	83 7d 0c 11	 cmp	 DWORD PTR _cmd$[ebp], 17 ; 00000011H
  0001e	0f 85 a8 00 00
	00		 jne	 $LN2@iwm_comman

; 858  : 		{
; 859  : 			HideWnd();

  00024	8b ce		 mov	 ecx, esi
  00026	ff 15 00 00 00
	00		 call	 DWORD PTR __imp_?HideWnd@ioWnd@@QAEXXZ

; 860  : 
; 861  : 			MyInventoryWnd *pInvenWnd = dynamic_cast<MyInventoryWnd*>(g_GUIMgr.FindWnd(MY_INVENTORY_WND));

  0002c	6a 00		 push	 0
  0002e	68 00 00 00 00	 push	 OFFSET ??_R0?AVMyInventoryWnd@@@8
  00033	68 00 00 00 00	 push	 OFFSET ??_R0?AVioWnd@@@8
  00038	6a 00		 push	 0
  0003a	68 96 17 00 00	 push	 6038			; 00001796H
  0003f	e8 00 00 00 00	 call	 ?GetSingleton@ioSP2GUIManager@@SAAAV1@XZ ; ioSP2GUIManager::GetSingleton
  00044	8b c8		 mov	 ecx, eax
  00046	ff 15 00 00 00
	00		 call	 DWORD PTR __imp_?FindWnd@ioGUIManager@@QAEPAVioWnd@@K@Z
  0004c	50		 push	 eax
  0004d	e8 00 00 00 00	 call	 ___RTDynamicCast
  00052	83 c4 14	 add	 esp, 20			; 00000014H

; 862  : 			if( pInvenWnd )

  00055	85 c0		 test	 eax, eax
  00057	74 73		 je	 SHORT $LN2@iwm_comman

; 863  : 			{
; 864  : 				pInvenWnd->ShowPresentTabDirect();

  00059	8b c8		 mov	 ecx, eax
  0005b	e8 00 00 00 00	 call	 ?ShowPresentTabDirect@MyInventoryWnd@@QAEXXZ ; MyInventoryWnd::ShowPresentTabDirect

; 865  : 			}
; 866  : 		}
; 867  : 		break;

  00060	eb 6a		 jmp	 SHORT $LN2@iwm_comman
$LN4@iwm_comman:

; 868  : 	case ID_USE:
; 869  : 		if( cmd == IOBN_BTNUP )

  00062	83 7d 0c 11	 cmp	 DWORD PTR _cmd$[ebp], 17 ; 00000011H
  00066	75 64		 jne	 SHORT $LN2@iwm_comman

; 870  : 		{
; 871  : 			ioUserEtcItem *pUserEtcItem =  g_MyInfo.GetUserEtcItem();

  00068	53		 push	 ebx
  00069	e8 00 00 00 00	 call	 ?GetSingleton@ioMyInfo@@SAAAV1@XZ ; ioMyInfo::GetSingleton
  0006e	8b d8		 mov	 ebx, eax
  00070	81 c3 44 01 00
	00		 add	 ebx, 324		; 00000144H

; 872  : 			if( pUserEtcItem )

  00076	74 53		 je	 SHORT $LN16@iwm_comman

; 873  : 			{
; 874  : 				ioEtcItem *pEtcItem = g_EtcItemMgr.FindEtcItem( m_dwEtcItemType );

  00078	8b 0d 00 00 00
	00		 mov	 ecx, DWORD PTR ?ms_Singleton@?$Singleton@VioEtcItemManager@@@@1PAVioEtcItemManager@@A ; Singleton<ioEtcItemManager>::ms_Singleton
  0007e	57		 push	 edi
  0007f	ff b6 34 02 00
	00		 push	 DWORD PTR [esi+564]
  00085	e8 00 00 00 00	 call	 ?FindEtcItem@ioEtcItemManager@@QAEPAVioEtcItem@@K@Z ; ioEtcItemManager::FindEtcItem
  0008a	8b f8		 mov	 edi, eax

; 875  : 				if( !pEtcItem )

  0008c	85 ff		 test	 edi, edi
  0008e	75 22		 jne	 SHORT $LN1@iwm_comman

; 876  : 				{
; 877  : 					LOG.PrintTimeAndLog( 0, "%s pEtcItem == NULL : %d", __FUNCTION__, m_dwEtcItemType );

  00090	ff b6 34 02 00
	00		 push	 DWORD PTR [esi+564]
  00096	68 00 00 00 00	 push	 OFFSET ??_C@_0DA@PFDMGIOI@InvenFourExtraCompoundBuyResultW@
  0009b	68 00 00 00 00	 push	 OFFSET ??_C@_0BJ@MBKFFGIH@?$CFs?5pEtcItem?5?$DN?$DN?5NULL?5?3?5?$CFd?$AA@
  000a0	50		 push	 eax
  000a1	ff 35 00 00 00
	00		 push	 DWORD PTR __imp_?LOG@@3VCLog@@A
  000a7	ff 15 00 00 00
	00		 call	 DWORD PTR __imp_?PrintTimeAndLog@CLog@@QAAXHPADZZ
  000ad	83 c4 14	 add	 esp, 20			; 00000014H

; 878  : 					return;

  000b0	eb 18		 jmp	 SHORT $LN17@iwm_comman
$LN1@iwm_comman:

; 879  : 				}
; 880  : 				HideWnd();

  000b2	8b ce		 mov	 ecx, esi
  000b4	ff 15 00 00 00
	00		 call	 DWORD PTR __imp_?HideWnd@ioWnd@@QAEXXZ

; 881  : 
; 882  : 				pEtcItem->OnUseBtnPush( m_dwEtcItemType, pUserEtcItem );

  000ba	8b 07		 mov	 eax, DWORD PTR [edi]
  000bc	6a 01		 push	 1
  000be	53		 push	 ebx
  000bf	ff b6 34 02 00
	00		 push	 DWORD PTR [esi+564]
  000c5	8b cf		 mov	 ecx, edi
  000c7	ff 50 20	 call	 DWORD PTR [eax+32]
$LN17@iwm_comman:
  000ca	5f		 pop	 edi
$LN16@iwm_comman:
  000cb	5b		 pop	 ebx
$LN2@iwm_comman:
  000cc	5e		 pop	 esi

; 883  : 			}
; 884  : 		}
; 885  : 		break;
; 886  : 	}
; 887  : }

  000cd	5d		 pop	 ebp
  000ce	c2 0c 00	 ret	 12			; 0000000cH
?iwm_command@InvenFourExtraCompoundBuyResultWnd@@UAEXPAVioWnd@@HK@Z ENDP ; InvenFourExtraCompoundBuyResultWnd::iwm_command
_TEXT	ENDS
PUBLIC	?RollingEffect@InvenFourExtraCompoundBuyResultWnd@@IAEXM@Z ; InvenFourExtraCompoundBuyResultWnd::RollingEffect
EXTRN	__imp_?CreateImageByFullName@ioUIImageSetManager@@QAEPAVioUIRenderImage@@ABVioHashString@@_N@Z:PROC
EXTRN	__imp_?GetSingleton@ioUIImageSetManager@@SAAAV1@XZ:PROC
;	COMDAT xdata$x
; File c:\program files (x86)\microsoft visual studio 10.0\vc\include\vector
xdata$x	SEGMENT
__unwindtable$?RollingEffect@InvenFourExtraCompoundBuyResultWnd@@IAEXM@Z DD 0ffffffffH
	DD	FLAT:__unwindfunclet$?RollingEffect@InvenFourExtraCompoundBuyResultWnd@@IAEXM@Z$0
__ehfuncinfo$?RollingEffect@InvenFourExtraCompoundBuyResultWnd@@IAEXM@Z DD 019930522H
	DD	01H
	DD	FLAT:__unwindtable$?RollingEffect@InvenFourExtraCompoundBuyResultWnd@@IAEXM@Z
	DD	2 DUP(00H)
	DD	2 DUP(00H)
	DD	00H
	DD	01H
; Function compile flags: /Ogsp
; File d:\lost saga for developer\youtube\tutorial\source\src\lsclient\gui\invenfourextracompoundwnd.cpp
xdata$x	ENDS
;	COMDAT ?RollingEffect@InvenFourExtraCompoundBuyResultWnd@@IAEXM@Z
_TEXT	SEGMENT
_szEffect$512359 = -32					; size = 16
_dwCurTime$ = -16					; size = 4
__$EHRec$ = -12						; size = 12
_fTimePerSec$ = 8					; size = 4
?RollingEffect@InvenFourExtraCompoundBuyResultWnd@@IAEXM@Z PROC ; InvenFourExtraCompoundBuyResultWnd::RollingEffect, COMDAT
; _this$ = ecx

; 1052 : {

  00000	6a 14		 push	 20			; 00000014H
  00002	b8 00 00 00 00	 mov	 eax, __ehhandler$?RollingEffect@InvenFourExtraCompoundBuyResultWnd@@IAEXM@Z
  00007	e8 00 00 00 00	 call	 __EH_prolog3
  0000c	8b f1		 mov	 esi, ecx

; 1053 : 	DWORD dwCurTime = FRAMEGETTIME();

  0000e	ff 15 00 00 00
	00		 call	 DWORD PTR __imp_?GetSingleton@ioFrameTimer@@SAAAV1@XZ
  00014	8b c8		 mov	 ecx, eax
  00016	ff 15 00 00 00
	00		 call	 DWORD PTR __imp_?GetLoopSec@ioFrameTimer@@QBEKXZ

; 1054 : 
; 1055 : 	int iEffectListCnt = 0;
; 1056 : 	if( m_bResult && m_bSuccess )

  0001c	33 db		 xor	 ebx, ebx
  0001e	89 45 f0	 mov	 DWORD PTR _dwCurTime$[ebp], eax
  00021	38 9e 10 02 00
	00		 cmp	 BYTE PTR [esi+528], bl
  00027	74 16		 je	 SHORT $LN14@RollingEff
  00029	38 9e 11 02 00
	00		 cmp	 BYTE PTR [esi+529], bl
  0002f	74 0e		 je	 SHORT $LN14@RollingEff

; 1057 : 		iEffectListCnt = m_vSuccessEfffect.size();

  00031	8b be 68 01 00
	00		 mov	 edi, DWORD PTR [esi+360]
  00037	2b be 64 01 00
	00		 sub	 edi, DWORD PTR [esi+356]

; 1058 : 	else

  0003d	eb 0c		 jmp	 SHORT $LN33@RollingEff
$LN14@RollingEff:

; 1059 : 		iEffectListCnt = m_vFailEfffect.size();

  0003f	8b be 78 01 00
	00		 mov	 edi, DWORD PTR [esi+376]
  00045	2b be 74 01 00
	00		 sub	 edi, DWORD PTR [esi+372]
$LN33@RollingEff:
  0004b	c1 ff 04	 sar	 edi, 4

; 1060 : 
; 1061 : 	if( iEffectListCnt == 0 )

  0004e	3b fb		 cmp	 edi, ebx
  00050	75 20		 jne	 SHORT $LN12@RollingEff
$LN35@RollingEff:

; 1062 : 	{
; 1063 : 		SAFEDELETE( m_pEffect );

  00052	8b 8e 60 01 00
	00		 mov	 ecx, DWORD PTR [esi+352]
  00058	3b cb		 cmp	 ecx, ebx
  0005a	0f 84 e9 00 00
	00		 je	 $LN8@RollingEff
  00060	8b 01		 mov	 eax, DWORD PTR [ecx]
  00062	6a 01		 push	 1
  00064	ff 50 40	 call	 DWORD PTR [eax+64]
  00067	89 9e 60 01 00
	00		 mov	 DWORD PTR [esi+352], ebx

; 1064 : 		return;

  0006d	e9 d7 00 00 00	 jmp	 $LN8@RollingEff
$LN12@RollingEff:

; 1065 : 	}
; 1066 : 
; 1067 : 	if( m_iCurEffectArray == iEffectListCnt-1 )

  00072	8d 47 ff	 lea	 eax, DWORD PTR [edi-1]
  00075	39 86 8c 01 00
	00		 cmp	 DWORD PTR [esi+396], eax

; 1068 : 	{
; 1069 : 		SAFEDELETE( m_pEffect );
; 1070 : 		return;

  0007b	74 d5		 je	 SHORT $LN35@RollingEff

; 1071 : 	}
; 1072 : 
; 1073 : 	if( m_dwRollingEffectCheckTime == 0 || dwCurTime - m_dwRollingEffectCheckTime > m_dwRollingEffectTime )		// 교체

  0007d	8b 86 94 01 00
	00		 mov	 eax, DWORD PTR [esi+404]
  00083	3b c3		 cmp	 eax, ebx
  00085	74 11		 je	 SHORT $LN7@RollingEff
  00087	8b 4d f0	 mov	 ecx, DWORD PTR _dwCurTime$[ebp]
  0008a	2b c8		 sub	 ecx, eax
  0008c	3b 8e 90 01 00
	00		 cmp	 ecx, DWORD PTR [esi+400]
  00092	0f 86 b1 00 00
	00		 jbe	 $LN8@RollingEff
$LN7@RollingEff:

; 1074 : 	{
; 1075 : 		SAFEDELETE( m_pEffect );

  00098	8b 8e 60 01 00
	00		 mov	 ecx, DWORD PTR [esi+352]
  0009e	3b cb		 cmp	 ecx, ebx
  000a0	74 0d		 je	 SHORT $LN6@RollingEff
  000a2	8b 01		 mov	 eax, DWORD PTR [ecx]
  000a4	6a 01		 push	 1
  000a6	ff 50 40	 call	 DWORD PTR [eax+64]
  000a9	89 9e 60 01 00
	00		 mov	 DWORD PTR [esi+352], ebx
$LN6@RollingEff:

; 1076 : 
; 1077 : 		m_iCurEffectArray++;

  000af	ff 86 8c 01 00
	00		 inc	 DWORD PTR [esi+396]
  000b5	8b 86 8c 01 00
	00		 mov	 eax, DWORD PTR [esi+396]

; 1078 : 
; 1079 : 		if( !COMPARE( m_iCurEffectArray, 0, iEffectListCnt ) )

  000bb	78 04		 js	 SHORT $LN4@RollingEff
  000bd	3b c7		 cmp	 eax, edi
  000bf	7c 06		 jl	 SHORT $LN5@RollingEff
$LN4@RollingEff:

; 1080 : 			m_iCurEffectArray = 0;

  000c1	89 9e 8c 01 00
	00		 mov	 DWORD PTR [esi+396], ebx
$LN5@RollingEff:

; 1081 : 
; 1082 : 		ioHashString szEffect;

  000c7	8d 4d e0	 lea	 ecx, DWORD PTR _szEffect$512359[ebp]
  000ca	ff 15 00 00 00
	00		 call	 DWORD PTR __imp_??0ioHashString@@QAE@XZ
  000d0	89 5d fc	 mov	 DWORD PTR __$EHRec$[ebp+8], ebx

; 1083 : 		if( m_bResult && m_bSuccess )

  000d3	38 9e 10 02 00
	00		 cmp	 BYTE PTR [esi+528], bl
  000d9	74 19		 je	 SHORT $LN3@RollingEff
  000db	38 9e 11 02 00
	00		 cmp	 BYTE PTR [esi+529], bl
  000e1	74 11		 je	 SHORT $LN3@RollingEff

; 1084 : 			szEffect = m_vSuccessEfffect[m_iCurEffectArray];

  000e3	8b 86 8c 01 00
	00		 mov	 eax, DWORD PTR [esi+396]
  000e9	c1 e0 04	 shl	 eax, 4
  000ec	03 86 64 01 00
	00		 add	 eax, DWORD PTR [esi+356]

; 1085 : 		else

  000f2	eb 0f		 jmp	 SHORT $LN34@RollingEff
$LN3@RollingEff:

; 1086 : 			szEffect = m_vFailEfffect[m_iCurEffectArray];

  000f4	8b 86 8c 01 00
	00		 mov	 eax, DWORD PTR [esi+396]
  000fa	c1 e0 04	 shl	 eax, 4
  000fd	03 86 74 01 00
	00		 add	 eax, DWORD PTR [esi+372]
$LN34@RollingEff:
  00103	50		 push	 eax
  00104	8d 4d e0	 lea	 ecx, DWORD PTR _szEffect$512359[ebp]
  00107	ff 15 00 00 00
	00		 call	 DWORD PTR __imp_??4ioHashString@@QAEAAV0@ABV0@@Z

; 1087 : 
; 1088 : 
; 1089 : 		if( !szEffect.IsEmpty() )

  0010d	8d 4d e0	 lea	 ecx, DWORD PTR _szEffect$512359[ebp]
  00110	ff 15 00 00 00
	00		 call	 DWORD PTR __imp_?IsEmpty@ioHashString@@QBE_NXZ
  00116	84 c0		 test	 al, al
  00118	75 19		 jne	 SHORT $LN1@RollingEff

; 1090 : 		{
; 1091 : 			m_pEffect = g_UIImageSetMgr.CreateImageByFullName( szEffect );

  0011a	8d 45 e0	 lea	 eax, DWORD PTR _szEffect$512359[ebp]
  0011d	53		 push	 ebx
  0011e	50		 push	 eax
  0011f	ff 15 00 00 00
	00		 call	 DWORD PTR __imp_?GetSingleton@ioUIImageSetManager@@SAAAV1@XZ
  00125	8b c8		 mov	 ecx, eax
  00127	ff 15 00 00 00
	00		 call	 DWORD PTR __imp_?CreateImageByFullName@ioUIImageSetManager@@QAEPAVioUIRenderImage@@ABVioHashString@@_N@Z
  0012d	89 86 60 01 00
	00		 mov	 DWORD PTR [esi+352], eax
$LN1@RollingEff:

; 1092 : 		}
; 1093 : 
; 1094 : 		m_dwRollingEffectCheckTime = dwCurTime;

  00133	8b 45 f0	 mov	 eax, DWORD PTR _dwCurTime$[ebp]

; 1095 : 	}

  00136	83 4d fc ff	 or	 DWORD PTR __$EHRec$[ebp+8], -1
  0013a	8d 4d e0	 lea	 ecx, DWORD PTR _szEffect$512359[ebp]
  0013d	89 86 94 01 00
	00		 mov	 DWORD PTR [esi+404], eax
  00143	ff 15 00 00 00
	00		 call	 DWORD PTR __imp_??1ioHashString@@QAE@XZ
$LN8@RollingEff:

; 1096 : }

  00149	e8 00 00 00 00	 call	 __EH_epilog3
  0014e	c2 04 00	 ret	 4
_TEXT	ENDS
;	COMDAT text$x
text$x	SEGMENT
__unwindfunclet$?RollingEffect@InvenFourExtraCompoundBuyResultWnd@@IAEXM@Z$0:
  00000	8d 4d e0	 lea	 ecx, DWORD PTR _szEffect$512359[ebp]
  00003	ff 25 00 00 00
	00		 jmp	 DWORD PTR __imp_??1ioHashString@@QAE@XZ
__ehhandler$?RollingEffect@InvenFourExtraCompoundBuyResultWnd@@IAEXM@Z:
  00009	8b 54 24 08	 mov	 edx, DWORD PTR [esp+8]
  0000d	8d 42 0c	 lea	 eax, DWORD PTR [edx+12]
  00010	8b 4a dc	 mov	 ecx, DWORD PTR [edx-36]
  00013	33 c8		 xor	 ecx, eax
  00015	e8 00 00 00 00	 call	 @__security_check_cookie@4
  0001a	b8 00 00 00 00	 mov	 eax, OFFSET __ehfuncinfo$?RollingEffect@InvenFourExtraCompoundBuyResultWnd@@IAEXM@Z
  0001f	e9 00 00 00 00	 jmp	 ___CxxFrameHandler3
text$x	ENDS
?RollingEffect@InvenFourExtraCompoundBuyResultWnd@@IAEXM@Z ENDP ; InvenFourExtraCompoundBuyResultWnd::RollingEffect
PUBLIC	??_R0?AVioButton@@@8				; ioButton `RTTI Type Descriptor'
PUBLIC	?ReBatchButton@InvenFourExtraCompoundBuyResultWnd@@IAEXH@Z ; InvenFourExtraCompoundBuyResultWnd::ReBatchButton
EXTRN	__imp_?SetChildInActive@ioWnd@@QAEXK@Z:PROC
EXTRN	__imp_?ShowChildWnd@ioWnd@@QAEXK_N@Z:PROC
EXTRN	?GetEtcItem@ioUserEtcItem@@QAE_NHAAUETCITEMSLOT@1@@Z:PROC ; ioUserEtcItem::GetEtcItem
EXTRN	__imp_?ShowWnd@ioWnd@@QAEXXZ:PROC
EXTRN	__imp_?SetOffset@ioUITitle@@QAEXHH@Z:PROC
EXTRN	__imp_?GetTextYOffSet@ioUITitle@@QBEHXZ:PROC
EXTRN	__imp_?GetTitle@ioWnd@@QBEPAVioUITitle@@XZ:PROC
EXTRN	__imp_?SetWndPos@ioWnd@@QAEXHH@Z:PROC
EXTRN	__imp_?GetYPos@ioWnd@@QBEHXZ:PROC
EXTRN	__imp_?GetHeight@ioWnd@@QBEHXZ:PROC
;	COMDAT ??_R0?AVioButton@@@8
; File d:\lost saga for developer\youtube\tutorial\source\src\lsclient\iouseretcitem.h
_DATA	SEGMENT
??_R0?AVioButton@@@8 DD FLAT:??_7type_info@@6B@		; ioButton `RTTI Type Descriptor'
	DD	00H
	DB	'.?AVioButton@@', 00H
; Function compile flags: /Ogsp
; File d:\lost saga for developer\youtube\tutorial\source\src\lsclient\gui\invenfourextracompoundwnd.cpp
_DATA	ENDS
;	COMDAT ?ReBatchButton@InvenFourExtraCompoundBuyResultWnd@@IAEXH@Z
_TEXT	SEGMENT
_kSlot$512387 = -16					; size = 12
_this$ = -4						; size = 4
tv467 = 8						; size = 4
_pTitle$512398 = 8					; size = 4
_iType$ = 8						; size = 4
?ReBatchButton@InvenFourExtraCompoundBuyResultWnd@@IAEXH@Z PROC ; InvenFourExtraCompoundBuyResultWnd::ReBatchButton, COMDAT
; _this$ = ecx

; 1099 : {

  00000	55		 push	 ebp
  00001	8b ec		 mov	 ebp, esp
  00003	83 ec 10	 sub	 esp, 16			; 00000010H

; 1100 : 	enum
; 1101 : 	{
; 1102 : 		ONE_BTN_SIZE	= 204,
; 1103 : 		TWO_BTN_SIZE	= 102,
; 1104 : 
; 1105 : 		ONE_BTN_X		= 27,
; 1106 : 		TWO_BTN_X		= 131,
; 1107 : 
; 1108 : 		ONE_TEXT_X		= 102,
; 1109 : 		TWO_TEXT_X		= 51,
; 1110 : 	};
; 1111 : 
; 1112 : 	switch( iType )

  00006	8b 45 08	 mov	 eax, DWORD PTR _iType$[ebp]
  00009	48		 dec	 eax
  0000a	53		 push	 ebx
  0000b	56		 push	 esi
  0000c	8b d9		 mov	 ebx, ecx
  0000e	57		 push	 edi
  0000f	89 5d fc	 mov	 DWORD PTR _this$[ebp], ebx
  00012	0f 84 b8 01 00
	00		 je	 $LN13@ReBatchBut
  00018	48		 dec	 eax
  00019	0f 85 da 01 00
	00		 jne	 $LN14@ReBatchBut

; 1120 : 		break;
; 1121 : 	case RESULT_BTN:
; 1122 : 		HideChildWnd(ID_ROLLING);

  0001f	8b 3d 00 00 00
	00		 mov	 edi, DWORD PTR __imp_?HideChildWnd@ioWnd@@QAEXK_N@Z
  00025	33 f6		 xor	 esi, esi
  00027	56		 push	 esi
  00028	6a 01		 push	 1
  0002a	ff d7		 call	 edi

; 1123 : 		HideChildWnd(ID_USE);

  0002c	56		 push	 esi
  0002d	6a 02		 push	 2
  0002f	8b cb		 mov	 ecx, ebx
  00031	ff d7		 call	 edi

; 1124 : 		HideChildWnd(ID_GO);

  00033	56		 push	 esi
  00034	6a 03		 push	 3
  00036	8b cb		 mov	 ecx, ebx
  00038	ff d7		 call	 edi

; 1125 : 
; 1126 : 		// 예외처리
; 1127 : 		ioUserEtcItem *pUserEtcItem = g_MyInfo.GetUserEtcItem();

  0003a	e8 00 00 00 00	 call	 ?GetSingleton@ioMyInfo@@SAAAV1@XZ ; ioMyInfo::GetSingleton
  0003f	05 44 01 00 00	 add	 eax, 324		; 00000144H

; 1128 : 		if( !pUserEtcItem )

  00044	75 7f		 jne	 SHORT $LN11@ReBatchBut

; 1129 : 		{
; 1130 : 			ioButton *pButton = dynamic_cast<ioButton*>(FindChildWnd(ID_GO));

  00046	56		 push	 esi
  00047	68 00 00 00 00	 push	 OFFSET ??_R0?AVioButton@@@8
  0004c	68 00 00 00 00	 push	 OFFSET ??_R0?AVioWnd@@@8
  00051	56		 push	 esi
  00052	8b cb		 mov	 ecx, ebx
$LN24@ReBatchBut:
  00054	6a 03		 push	 3
  00056	ff 15 00 00 00
	00		 call	 DWORD PTR __imp_?FindChildWnd@ioWnd@@QAEPAV1@K@Z
  0005c	50		 push	 eax
  0005d	e8 00 00 00 00	 call	 ___RTDynamicCast
  00062	8b f8		 mov	 edi, eax
  00064	83 c4 14	 add	 esp, 20			; 00000014H

; 1131 : 			if( pButton )

  00067	3b fe		 cmp	 edi, esi
  00069	0f 84 8a 01 00
	00		 je	 $LN14@ReBatchBut

; 1132 : 			{
; 1133 : 				pButton->SetSize( ONE_BTN_SIZE, pButton->GetHeight() );

  0006f	8b 1f		 mov	 ebx, DWORD PTR [edi]
  00071	8b cf		 mov	 ecx, edi
  00073	ff 15 00 00 00
	00		 call	 DWORD PTR __imp_?GetHeight@ioWnd@@QBEHXZ
  00079	50		 push	 eax
  0007a	68 cc 00 00 00	 push	 204			; 000000ccH
  0007f	8b cf		 mov	 ecx, edi
  00081	ff 53 2c	 call	 DWORD PTR [ebx+44]

; 1134 : 				pButton->SetWndPos( ONE_BTN_X, pButton->GetYPos() );

  00084	8b cf		 mov	 ecx, edi
  00086	ff 15 00 00 00
	00		 call	 DWORD PTR __imp_?GetYPos@ioWnd@@QBEHXZ
  0008c	50		 push	 eax
  0008d	6a 1b		 push	 27			; 0000001bH
  0008f	8b cf		 mov	 ecx, edi
  00091	ff 15 00 00 00
	00		 call	 DWORD PTR __imp_?SetWndPos@ioWnd@@QAEXHH@Z

; 1135 : 
; 1136 : 				ioUITitle *pTitle =  pButton->GetTitle();

  00097	8b cf		 mov	 ecx, edi
  00099	ff 15 00 00 00
	00		 call	 DWORD PTR __imp_?GetTitle@ioWnd@@QBEPAVioUITitle@@XZ
  0009f	8b d8		 mov	 ebx, eax

; 1137 : 				if( pTitle )

  000a1	3b de		 cmp	 ebx, esi
  000a3	74 13		 je	 SHORT $LN9@ReBatchBut

; 1138 : 				{
; 1139 : 					pTitle->SetOffset( ONE_TEXT_X, pTitle->GetTextYOffSet() );

  000a5	8b cb		 mov	 ecx, ebx
  000a7	ff 15 00 00 00
	00		 call	 DWORD PTR __imp_?GetTextYOffSet@ioUITitle@@QBEHXZ
  000ad	50		 push	 eax
  000ae	6a 66		 push	 102			; 00000066H
$LN22@ReBatchBut:
  000b0	8b cb		 mov	 ecx, ebx
  000b2	ff 15 00 00 00
	00		 call	 DWORD PTR __imp_?SetOffset@ioUITitle@@QAEXHH@Z
$LN9@ReBatchBut:

; 1140 : 				}
; 1141 : 
; 1142 : 				pButton->ShowWnd();

  000b8	8b cf		 mov	 ecx, edi
  000ba	ff 15 00 00 00
	00		 call	 DWORD PTR __imp_?ShowWnd@ioWnd@@QAEXXZ

; 1143 : 			}
; 1144 : 			break;

  000c0	e9 34 01 00 00	 jmp	 $LN14@ReBatchBut
$LN11@ReBatchBut:

; 1145 : 		}
; 1146 : 
; 1147 : 		ioUserEtcItem::ETCITEMSLOT kSlot;
; 1148 : 		if( !pUserEtcItem->GetEtcItem( m_dwEtcItemType, kSlot) )

  000c5	8d 4d f0	 lea	 ecx, DWORD PTR _kSlot$512387[ebp]
  000c8	51		 push	 ecx
  000c9	ff b3 34 02 00
	00		 push	 DWORD PTR [ebx+564]
  000cf	8b c8		 mov	 ecx, eax
  000d1	89 75 f0	 mov	 DWORD PTR _kSlot$512387[ebp], esi
  000d4	89 75 f4	 mov	 DWORD PTR _kSlot$512387[ebp+4], esi
  000d7	89 75 f8	 mov	 DWORD PTR _kSlot$512387[ebp+8], esi
  000da	e8 00 00 00 00	 call	 ?GetEtcItem@ioUserEtcItem@@QAE_NHAAUETCITEMSLOT@1@@Z ; ioUserEtcItem::GetEtcItem

; 1149 : 		{
; 1150 : 			ioButton *pButton = dynamic_cast<ioButton*>(FindChildWnd(ID_GO));

  000df	56		 push	 esi
  000e0	68 00 00 00 00	 push	 OFFSET ??_R0?AVioButton@@@8
  000e5	68 00 00 00 00	 push	 OFFSET ??_R0?AVioWnd@@@8
  000ea	8b cb		 mov	 ecx, ebx
  000ec	56		 push	 esi
  000ed	84 c0		 test	 al, al

; 1151 : 			if( pButton )
; 1152 : 			{
; 1153 : 				pButton->SetSize( ONE_BTN_SIZE, pButton->GetHeight() );
; 1154 : 				pButton->SetWndPos( ONE_BTN_X, pButton->GetYPos() );
; 1155 : 
; 1156 : 				ioUITitle *pTitle =  pButton->GetTitle();
; 1157 : 				if( pTitle )
; 1158 : 				{
; 1159 : 					pTitle->SetOffset( ONE_TEXT_X, pTitle->GetTextYOffSet() );
; 1160 : 				}
; 1161 : 
; 1162 : 				pButton->ShowWnd();
; 1163 : 			}
; 1164 : 		}
; 1165 : 		else

  000ef	0f 84 5f ff ff
	ff		 je	 $LN24@ReBatchBut

; 1166 : 		{
; 1167 : 			ioButton *pButton = dynamic_cast<ioButton*>(FindChildWnd(ID_USE));

  000f5	8b 1d 00 00 00
	00		 mov	 ebx, DWORD PTR __imp_?FindChildWnd@ioWnd@@QAEPAV1@K@Z
  000fb	6a 02		 push	 2
  000fd	ff d3		 call	 ebx
  000ff	50		 push	 eax
  00100	e8 00 00 00 00	 call	 ___RTDynamicCast
  00105	8b f8		 mov	 edi, eax
  00107	83 c4 14	 add	 esp, 20			; 00000014H

; 1168 : 			if( pButton )

  0010a	3b fe		 cmp	 edi, esi
  0010c	74 56		 je	 SHORT $LN4@ReBatchBut

; 1169 : 			{
; 1170 : 				pButton->SetSize( TWO_BTN_SIZE, pButton->GetHeight() );

  0010e	8b 07		 mov	 eax, DWORD PTR [edi]
  00110	8b cf		 mov	 ecx, edi
  00112	89 45 08	 mov	 DWORD PTR tv467[ebp], eax
  00115	ff 15 00 00 00
	00		 call	 DWORD PTR __imp_?GetHeight@ioWnd@@QBEHXZ
  0011b	50		 push	 eax
  0011c	8b 45 08	 mov	 eax, DWORD PTR tv467[ebp]
  0011f	6a 66		 push	 102			; 00000066H
  00121	8b cf		 mov	 ecx, edi
  00123	ff 50 2c	 call	 DWORD PTR [eax+44]

; 1171 : 				pButton->SetWndPos( ONE_BTN_X, pButton->GetYPos() );

  00126	8b cf		 mov	 ecx, edi
  00128	ff 15 00 00 00
	00		 call	 DWORD PTR __imp_?GetYPos@ioWnd@@QBEHXZ
  0012e	50		 push	 eax
  0012f	6a 1b		 push	 27			; 0000001bH
  00131	8b cf		 mov	 ecx, edi
  00133	ff 15 00 00 00
	00		 call	 DWORD PTR __imp_?SetWndPos@ioWnd@@QAEXHH@Z

; 1172 : 
; 1173 : 				ioUITitle *pTitle =  pButton->GetTitle();

  00139	8b cf		 mov	 ecx, edi
  0013b	ff 15 00 00 00
	00		 call	 DWORD PTR __imp_?GetTitle@ioWnd@@QBEPAVioUITitle@@XZ
  00141	8b c8		 mov	 ecx, eax
  00143	89 4d 08	 mov	 DWORD PTR _pTitle$512398[ebp], ecx

; 1174 : 				if( pTitle )

  00146	3b ce		 cmp	 ecx, esi
  00148	74 12		 je	 SHORT $LN3@ReBatchBut

; 1175 : 				{
; 1176 : 					pTitle->SetOffset( TWO_TEXT_X, pTitle->GetTextYOffSet() );

  0014a	ff 15 00 00 00
	00		 call	 DWORD PTR __imp_?GetTextYOffSet@ioUITitle@@QBEHXZ
  00150	8b 4d 08	 mov	 ecx, DWORD PTR _pTitle$512398[ebp]
  00153	50		 push	 eax
  00154	6a 33		 push	 51			; 00000033H
  00156	ff 15 00 00 00
	00		 call	 DWORD PTR __imp_?SetOffset@ioUITitle@@QAEXHH@Z
$LN3@ReBatchBut:

; 1177 : 				}
; 1178 : 
; 1179 : 				pButton->ShowWnd();

  0015c	8b cf		 mov	 ecx, edi
  0015e	ff 15 00 00 00
	00		 call	 DWORD PTR __imp_?ShowWnd@ioWnd@@QAEXXZ
$LN4@ReBatchBut:

; 1180 : 			}
; 1181 : 
; 1182 : 			pButton = dynamic_cast<ioButton*>(FindChildWnd(ID_GO));

  00164	8b 4d fc	 mov	 ecx, DWORD PTR _this$[ebp]
  00167	56		 push	 esi
  00168	68 00 00 00 00	 push	 OFFSET ??_R0?AVioButton@@@8
  0016d	68 00 00 00 00	 push	 OFFSET ??_R0?AVioWnd@@@8
  00172	56		 push	 esi
  00173	6a 03		 push	 3
  00175	ff d3		 call	 ebx
  00177	50		 push	 eax
  00178	e8 00 00 00 00	 call	 ___RTDynamicCast
  0017d	8b f8		 mov	 edi, eax
  0017f	83 c4 14	 add	 esp, 20			; 00000014H

; 1183 : 			if( pButton )

  00182	3b fe		 cmp	 edi, esi
  00184	74 73		 je	 SHORT $LN14@ReBatchBut

; 1184 : 			{
; 1185 : 				pButton->SetSize( TWO_BTN_SIZE, pButton->GetHeight() );

  00186	8b 1f		 mov	 ebx, DWORD PTR [edi]
  00188	8b cf		 mov	 ecx, edi
  0018a	ff 15 00 00 00
	00		 call	 DWORD PTR __imp_?GetHeight@ioWnd@@QBEHXZ
  00190	50		 push	 eax
  00191	6a 66		 push	 102			; 00000066H
  00193	8b cf		 mov	 ecx, edi
  00195	ff 53 2c	 call	 DWORD PTR [ebx+44]

; 1186 : 				pButton->SetWndPos( TWO_BTN_X, pButton->GetYPos() );

  00198	8b cf		 mov	 ecx, edi
  0019a	ff 15 00 00 00
	00		 call	 DWORD PTR __imp_?GetYPos@ioWnd@@QBEHXZ
  001a0	50		 push	 eax
  001a1	68 83 00 00 00	 push	 131			; 00000083H
  001a6	8b cf		 mov	 ecx, edi
  001a8	ff 15 00 00 00
	00		 call	 DWORD PTR __imp_?SetWndPos@ioWnd@@QAEXHH@Z

; 1187 : 
; 1188 : 				ioUITitle *pTitle =  pButton->GetTitle();

  001ae	8b cf		 mov	 ecx, edi
  001b0	ff 15 00 00 00
	00		 call	 DWORD PTR __imp_?GetTitle@ioWnd@@QBEPAVioUITitle@@XZ
  001b6	8b d8		 mov	 ebx, eax

; 1189 : 				if( pTitle )

  001b8	3b de		 cmp	 ebx, esi
  001ba	0f 84 f8 fe ff
	ff		 je	 $LN9@ReBatchBut

; 1190 : 				{
; 1191 : 					pTitle->SetOffset( TWO_TEXT_X, pTitle->GetTextYOffSet() );

  001c0	8b cb		 mov	 ecx, ebx
  001c2	ff 15 00 00 00
	00		 call	 DWORD PTR __imp_?GetTextYOffSet@ioUITitle@@QBEHXZ
  001c8	50		 push	 eax
  001c9	6a 33		 push	 51			; 00000033H

; 1192 : 				}
; 1193 : 
; 1194 : 				pButton->ShowWnd();
; 1195 : 			}
; 1196 : 		}
; 1197 : 		break;

  001cb	e9 e0 fe ff ff	 jmp	 $LN22@ReBatchBut
$LN13@ReBatchBut:

; 1113 : 	{
; 1114 : 	case ROLLING_BTN:
; 1115 : 		ShowChildWnd(ID_ROLLING);

  001d0	33 f6		 xor	 esi, esi
  001d2	56		 push	 esi
  001d3	6a 01		 push	 1
  001d5	ff 15 00 00 00
	00		 call	 DWORD PTR __imp_?ShowChildWnd@ioWnd@@QAEXK_N@Z

; 1116 : 		SetChildInActive(ID_ROLLING);

  001db	6a 01		 push	 1
  001dd	8b cb		 mov	 ecx, ebx
  001df	ff 15 00 00 00
	00		 call	 DWORD PTR __imp_?SetChildInActive@ioWnd@@QAEXK@Z

; 1117 : 
; 1118 : 		HideChildWnd(ID_USE);

  001e5	8b 3d 00 00 00
	00		 mov	 edi, DWORD PTR __imp_?HideChildWnd@ioWnd@@QAEXK_N@Z
  001eb	56		 push	 esi
  001ec	6a 02		 push	 2
  001ee	8b cb		 mov	 ecx, ebx
  001f0	ff d7		 call	 edi

; 1119 : 		HideChildWnd(ID_GO);

  001f2	56		 push	 esi
  001f3	6a 03		 push	 3
  001f5	8b cb		 mov	 ecx, ebx
  001f7	ff d7		 call	 edi
$LN14@ReBatchBut:
  001f9	5f		 pop	 edi
  001fa	5e		 pop	 esi
  001fb	5b		 pop	 ebx

; 1198 : 	}
; 1199 : }

  001fc	c9		 leave
  001fd	c2 04 00	 ret	 4
?ReBatchButton@InvenFourExtraCompoundBuyResultWnd@@IAEXH@Z ENDP ; InvenFourExtraCompoundBuyResultWnd::ReBatchButton
_TEXT	ENDS
PUBLIC	??0?$_Vector_val@UNewShopPullDownItem@@V?$allocator@UNewShopPullDownItem@@@std@@@std@@QAE@V?$allocator@UNewShopPullDownItem@@@1@@Z ; std::_Vector_val<NewShopPullDownItem,std::allocator<NewShopPullDownItem> >::_Vector_val<NewShopPullDownItem,std::allocator<NewShopPullDownItem> >
; Function compile flags: /Ogsp
; File c:\program files (x86)\microsoft visual studio 10.0\vc\include\vector
;	COMDAT ??0?$_Vector_val@UNewShopPullDownItem@@V?$allocator@UNewShopPullDownItem@@@std@@@std@@QAE@V?$allocator@UNewShopPullDownItem@@@1@@Z
_TEXT	SEGMENT
__Al$ = 8						; size = 1
??0?$_Vector_val@UNewShopPullDownItem@@V?$allocator@UNewShopPullDownItem@@@std@@@std@@QAE@V?$allocator@UNewShopPullDownItem@@@1@@Z PROC ; std::_Vector_val<NewShopPullDownItem,std::allocator<NewShopPullDownItem> >::_Vector_val<NewShopPullDownItem,std::allocator<NewShopPullDownItem> >, COMDAT
; _this$ = ecx

; 426  : 		{	// construct allocator from _Al

  00000	8b c1		 mov	 eax, ecx

; 427  : 		_Myfirst = 0;

  00002	33 c9		 xor	 ecx, ecx
  00004	89 08		 mov	 DWORD PTR [eax], ecx

; 428  : 		_Mylast = 0;

  00006	89 48 04	 mov	 DWORD PTR [eax+4], ecx

; 429  : 		_Myend = 0;

  00009	89 48 08	 mov	 DWORD PTR [eax+8], ecx

; 430  : 		}

  0000c	c2 04 00	 ret	 4
??0?$_Vector_val@UNewShopPullDownItem@@V?$allocator@UNewShopPullDownItem@@@std@@@std@@QAE@V?$allocator@UNewShopPullDownItem@@@1@@Z ENDP ; std::_Vector_val<NewShopPullDownItem,std::allocator<NewShopPullDownItem> >::_Vector_val<NewShopPullDownItem,std::allocator<NewShopPullDownItem> >
_TEXT	ENDS
PUBLIC	??0?$_Vector_iterator@V?$_Vector_val@UNewShopPullDownItem@@V?$allocator@UNewShopPullDownItem@@@std@@@std@@@std@@QAE@PAUNewShopPullDownItem@@PBU_Container_base0@1@@Z ; std::_Vector_iterator<std::_Vector_val<NewShopPullDownItem,std::allocator<NewShopPullDownItem> > >::_Vector_iterator<std::_Vector_val<NewShopPullDownItem,std::allocator<NewShopPullDownItem> > >
; Function compile flags: /Ogsp
;	COMDAT ??0?$_Vector_iterator@V?$_Vector_val@UNewShopPullDownItem@@V?$allocator@UNewShopPullDownItem@@@std@@@std@@@std@@QAE@PAUNewShopPullDownItem@@PBU_Container_base0@1@@Z
_TEXT	SEGMENT
__Parg$ = 8						; size = 4
__Pvector$ = 12						; size = 4
??0?$_Vector_iterator@V?$_Vector_val@UNewShopPullDownItem@@V?$allocator@UNewShopPullDownItem@@@std@@@std@@@std@@QAE@PAUNewShopPullDownItem@@PBU_Container_base0@1@@Z PROC ; std::_Vector_iterator<std::_Vector_val<NewShopPullDownItem,std::allocator<NewShopPullDownItem> > >::_Vector_iterator<std::_Vector_val<NewShopPullDownItem,std::allocator<NewShopPullDownItem> > >, COMDAT
; _this$ = ecx

; 304  : 		{	// construct with pointer _Parg

  00000	55		 push	 ebp
  00001	8b ec		 mov	 ebp, esp
  00003	8b c1		 mov	 eax, ecx
  00005	8b 4d 08	 mov	 ecx, DWORD PTR __Parg$[ebp]
  00008	89 08		 mov	 DWORD PTR [eax], ecx

; 305  : 		}

  0000a	5d		 pop	 ebp
  0000b	c2 08 00	 ret	 8
??0?$_Vector_iterator@V?$_Vector_val@UNewShopPullDownItem@@V?$allocator@UNewShopPullDownItem@@@std@@@std@@@std@@QAE@PAUNewShopPullDownItem@@PBU_Container_base0@1@@Z ENDP ; std::_Vector_iterator<std::_Vector_val<NewShopPullDownItem,std::allocator<NewShopPullDownItem> > >::_Vector_iterator<std::_Vector_val<NewShopPullDownItem,std::allocator<NewShopPullDownItem> > >
_TEXT	ENDS
PUBLIC	?_Make_iter@?$vector@UNewShopPullDownItem@@V?$allocator@UNewShopPullDownItem@@@std@@@std@@QBE?AV?$_Vector_iterator@V?$_Vector_val@UNewShopPullDownItem@@V?$allocator@UNewShopPullDownItem@@@std@@@std@@@2@V?$_Vector_const_iterator@V?$_Vector_val@UNewShopPullDownItem@@V?$allocator@UNewShopPullDownItem@@@std@@@std@@@2@@Z ; std::vector<NewShopPullDownItem,std::allocator<NewShopPullDownItem> >::_Make_iter
; Function compile flags: /Ogsp
;	COMDAT ?_Make_iter@?$vector@UNewShopPullDownItem@@V?$allocator@UNewShopPullDownItem@@@std@@@std@@QBE?AV?$_Vector_iterator@V?$_Vector_val@UNewShopPullDownItem@@V?$allocator@UNewShopPullDownItem@@@std@@@std@@@2@V?$_Vector_const_iterator@V?$_Vector_val@UNewShopPullDownItem@@V?$allocator@UNewShopPullDownItem@@@std@@@std@@@2@@Z
_TEXT	SEGMENT
___$ReturnUdt$ = 8					; size = 4
__Where$ = 12						; size = 4
?_Make_iter@?$vector@UNewShopPullDownItem@@V?$allocator@UNewShopPullDownItem@@@std@@@std@@QBE?AV?$_Vector_iterator@V?$_Vector_val@UNewShopPullDownItem@@V?$allocator@UNewShopPullDownItem@@@std@@@std@@@2@V?$_Vector_const_iterator@V?$_Vector_val@UNewShopPullDownItem@@V?$allocator@UNewShopPullDownItem@@@std@@@std@@@2@@Z PROC ; std::vector<NewShopPullDownItem,std::allocator<NewShopPullDownItem> >::_Make_iter, COMDAT
; _this$ = ecx

; 801  : 		{	// make iterator from const_iterator

  00000	55		 push	 ebp
  00001	8b ec		 mov	 ebp, esp

; 802  : 		return (iterator(_Where._Ptr, this));

  00003	8b 45 08	 mov	 eax, DWORD PTR ___$ReturnUdt$[ebp]
  00006	8b 4d 0c	 mov	 ecx, DWORD PTR __Where$[ebp]
  00009	89 08		 mov	 DWORD PTR [eax], ecx

; 803  : 		}

  0000b	5d		 pop	 ebp
  0000c	c2 08 00	 ret	 8
?_Make_iter@?$vector@UNewShopPullDownItem@@V?$allocator@UNewShopPullDownItem@@@std@@@std@@QBE?AV?$_Vector_iterator@V?$_Vector_val@UNewShopPullDownItem@@V?$allocator@UNewShopPullDownItem@@@std@@@std@@@2@V?$_Vector_const_iterator@V?$_Vector_val@UNewShopPullDownItem@@V?$allocator@UNewShopPullDownItem@@@std@@@std@@@2@@Z ENDP ; std::vector<NewShopPullDownItem,std::allocator<NewShopPullDownItem> >::_Make_iter
_TEXT	ENDS
PUBLIC	?max_size@?$vector@UNewShopPullDownItem@@V?$allocator@UNewShopPullDownItem@@@std@@@std@@QBEIXZ ; std::vector<NewShopPullDownItem,std::allocator<NewShopPullDownItem> >::max_size
; Function compile flags: /Ogsp
;	COMDAT ?max_size@?$vector@UNewShopPullDownItem@@V?$allocator@UNewShopPullDownItem@@@std@@@std@@QBEIXZ
_TEXT	SEGMENT
?max_size@?$vector@UNewShopPullDownItem@@V?$allocator@UNewShopPullDownItem@@@std@@@std@@QBEIXZ PROC ; std::vector<NewShopPullDownItem,std::allocator<NewShopPullDownItem> >::max_size, COMDAT
; _this$ = ecx

; 884  : 		return (this->_Alval.max_size());

  00000	b8 33 33 33 03	 mov	 eax, 53687091		; 03333333H

; 885  : 		}

  00005	c3		 ret	 0
?max_size@?$vector@UNewShopPullDownItem@@V?$allocator@UNewShopPullDownItem@@@std@@@std@@QBEIXZ ENDP ; std::vector<NewShopPullDownItem,std::allocator<NewShopPullDownItem> >::max_size
_TEXT	ENDS
PUBLIC	?_Grow_to@?$vector@UNewShopPullDownItem@@V?$allocator@UNewShopPullDownItem@@@std@@@std@@IBEII@Z ; std::vector<NewShopPullDownItem,std::allocator<NewShopPullDownItem> >::_Grow_to
; Function compile flags: /Ogsp
;	COMDAT ?_Grow_to@?$vector@UNewShopPullDownItem@@V?$allocator@UNewShopPullDownItem@@@std@@@std@@IBEII@Z
_TEXT	SEGMENT
__Count$ = 8						; size = 4
?_Grow_to@?$vector@UNewShopPullDownItem@@V?$allocator@UNewShopPullDownItem@@@std@@@std@@IBEII@Z PROC ; std::vector<NewShopPullDownItem,std::allocator<NewShopPullDownItem> >::_Grow_to, COMDAT
; _this$ = ecx

; 1274 : 		{	// grow by 50% or at least to _Count

  00000	55		 push	 ebp
  00001	8b ec		 mov	 ebp, esp

; 1275 : 		size_type _Capacity = capacity();

  00003	8b 41 08	 mov	 eax, DWORD PTR [ecx+8]
  00006	2b 01		 sub	 eax, DWORD PTR [ecx]
  00008	6a 50		 push	 80			; 00000050H
  0000a	99		 cdq
  0000b	59		 pop	 ecx
  0000c	f7 f9		 idiv	 ecx

; 1276 : 
; 1277 : 		_Capacity = max_size() - _Capacity / 2 < _Capacity
; 1278 : 			? 0 : _Capacity + _Capacity / 2;	// try to grow by 50%

  0000e	ba 33 33 33 03	 mov	 edx, 53687091		; 03333333H
  00013	8b c8		 mov	 ecx, eax
  00015	d1 e9		 shr	 ecx, 1
  00017	2b d1		 sub	 edx, ecx
  00019	3b d0		 cmp	 edx, eax
  0001b	73 04		 jae	 SHORT $LN4@Grow_to
  0001d	33 c0		 xor	 eax, eax
  0001f	eb 02		 jmp	 SHORT $LN5@Grow_to
$LN4@Grow_to:
  00021	03 c1		 add	 eax, ecx
$LN5@Grow_to:

; 1279 : 		if (_Capacity < _Count)

  00023	3b 45 08	 cmp	 eax, DWORD PTR __Count$[ebp]

; 1280 : 			_Capacity = _Count;

  00026	0f 42 45 08	 cmovb	 eax, DWORD PTR __Count$[ebp]

; 1281 : 		return (_Capacity);
; 1282 : 		}

  0002a	5d		 pop	 ebp
  0002b	c2 04 00	 ret	 4
?_Grow_to@?$vector@UNewShopPullDownItem@@V?$allocator@UNewShopPullDownItem@@@std@@@std@@IBEII@Z ENDP ; std::vector<NewShopPullDownItem,std::allocator<NewShopPullDownItem> >::_Grow_to
_TEXT	ENDS
PUBLIC	?allocate@?$allocator@UNewShopPullDownItem@@@std@@QAEPAUNewShopPullDownItem@@I@Z ; std::allocator<NewShopPullDownItem>::allocate
; Function compile flags: /Ogsp
; File c:\program files (x86)\microsoft visual studio 10.0\vc\include\xmemory
;	COMDAT ?allocate@?$allocator@UNewShopPullDownItem@@@std@@QAEPAUNewShopPullDownItem@@I@Z
_TEXT	SEGMENT
__Count$ = 8						; size = 4
?allocate@?$allocator@UNewShopPullDownItem@@@std@@QAEPAUNewShopPullDownItem@@I@Z PROC ; std::allocator<NewShopPullDownItem>::allocate, COMDAT
; _this$ = ecx

; 186  : 		{	// allocate array of _Count elements

  00000	55		 push	 ebp
  00001	8b ec		 mov	 ebp, esp

; 187  : 		return (_Allocate(_Count, (pointer)0));

  00003	6a 00		 push	 0
  00005	ff 75 08	 push	 DWORD PTR __Count$[ebp]
  00008	e8 00 00 00 00	 call	 ??$_Allocate@UNewShopPullDownItem@@@std@@YAPAUNewShopPullDownItem@@IPAU1@@Z ; std::_Allocate<NewShopPullDownItem>
  0000d	59		 pop	 ecx
  0000e	59		 pop	 ecx

; 188  : 		}

  0000f	5d		 pop	 ebp
  00010	c2 04 00	 ret	 4
?allocate@?$allocator@UNewShopPullDownItem@@@std@@QAEPAUNewShopPullDownItem@@I@Z ENDP ; std::allocator<NewShopPullDownItem>::allocate
_TEXT	ENDS
PUBLIC	??8?$_Vector_const_iterator@V?$_Vector_val@UNewShopPullDownItem@@V?$allocator@UNewShopPullDownItem@@@std@@@std@@@std@@QBE_NABV01@@Z ; std::_Vector_const_iterator<std::_Vector_val<NewShopPullDownItem,std::allocator<NewShopPullDownItem> > >::operator==
; Function compile flags: /Ogsp
; File c:\program files (x86)\microsoft visual studio 10.0\vc\include\vector
;	COMDAT ??8?$_Vector_const_iterator@V?$_Vector_val@UNewShopPullDownItem@@V?$allocator@UNewShopPullDownItem@@@std@@@std@@@std@@QBE_NABV01@@Z
_TEXT	SEGMENT
__Right$ = 8						; size = 4
??8?$_Vector_const_iterator@V?$_Vector_val@UNewShopPullDownItem@@V?$allocator@UNewShopPullDownItem@@@std@@@std@@@std@@QBE_NABV01@@Z PROC ; std::_Vector_const_iterator<std::_Vector_val<NewShopPullDownItem,std::allocator<NewShopPullDownItem> > >::operator==, COMDAT
; _this$ = ecx

; 201  : 		{	// test for iterator equality

  00000	55		 push	 ebp
  00001	8b ec		 mov	 ebp, esp

; 202  : 		_Compat(_Right);
; 203  : 		return (this->_Ptr == _Right._Ptr);

  00003	8b 01		 mov	 eax, DWORD PTR [ecx]
  00005	8b 4d 08	 mov	 ecx, DWORD PTR __Right$[ebp]
  00008	2b 01		 sub	 eax, DWORD PTR [ecx]
  0000a	f7 d8		 neg	 eax
  0000c	1b c0		 sbb	 eax, eax
  0000e	40		 inc	 eax

; 204  : 		}

  0000f	5d		 pop	 ebp
  00010	c2 04 00	 ret	 4
??8?$_Vector_const_iterator@V?$_Vector_val@UNewShopPullDownItem@@V?$allocator@UNewShopPullDownItem@@@std@@@std@@@std@@QBE_NABV01@@Z ENDP ; std::_Vector_const_iterator<std::_Vector_val<NewShopPullDownItem,std::allocator<NewShopPullDownItem> > >::operator==
_TEXT	ENDS
PUBLIC	__$ArrayPad$
PUBLIC	??$?8$0M@@@YA_NABVioHashString@@AAY0M@$$CBD@Z	; operator==<12>
; Function compile flags: /Ogsp
; File d:\lost saga for developer\youtube\tutorial\source\src\io3dengine\iohashstring.h
;	COMDAT ??$?8$0M@@@YA_NABVioHashString@@AAY0M@$$CBD@Z
_TEXT	SEGMENT
__t$ = -20						; size = 12
__$ArrayPad$ = -4					; size = 4
_lhs$ = 8						; size = 4
_t$ = 12						; size = 4
??$?8$0M@@@YA_NABVioHashString@@AAY0M@$$CBD@Z PROC	; operator==<12>, COMDAT

; 146  : {

  00000	55		 push	 ebp
  00001	8b ec		 mov	 ebp, esp
  00003	83 ec 14	 sub	 esp, 20			; 00000014H
  00006	a1 00 00 00 00	 mov	 eax, DWORD PTR ___security_cookie
  0000b	33 c5		 xor	 eax, ebp
  0000d	89 45 fc	 mov	 DWORD PTR __$ArrayPad$[ebp], eax
  00010	8b 45 0c	 mov	 eax, DWORD PTR _t$[ebp]

; 147  : 	_ENCSTR(t, _t); return ( strcmp( lhs.c_str(), _t ) == 0 );

  00013	8a 10		 mov	 dl, BYTE PTR [eax]
  00015	56		 push	 esi
  00016	57		 push	 edi
  00017	8b 7d 08	 mov	 edi, DWORD PTR _lhs$[ebp]
  0001a	84 d2		 test	 dl, dl
  0001c	0f 84 32 01 00
	00		 je	 $LN96@operator@2
  00022	80 f2 ed	 xor	 dl, -19			; ffffffedH
  00025	88 55 ec	 mov	 BYTE PTR __t$[ebp], dl
  00028	8a 50 01	 mov	 dl, BYTE PTR [eax+1]
  0002b	84 d2		 test	 dl, dl
  0002d	0f 84 1b 01 00
	00		 je	 $LN95@operator@2
  00033	80 f2 ec	 xor	 dl, -20			; ffffffecH
  00036	88 55 ed	 mov	 BYTE PTR __t$[ebp+1], dl
  00039	8a 50 02	 mov	 dl, BYTE PTR [eax+2]
  0003c	84 d2		 test	 dl, dl
  0003e	0f 84 04 01 00
	00		 je	 $LN94@operator@2
  00044	b1 eb		 mov	 cl, -21			; ffffffebH
  00046	32 d1		 xor	 dl, cl
  00048	88 55 ee	 mov	 BYTE PTR __t$[ebp+2], dl
  0004b	8a 50 03	 mov	 dl, BYTE PTR [eax+3]
  0004e	84 d2		 test	 dl, dl
  00050	0f 84 ec 00 00
	00		 je	 $LN93@operator@2
  00056	80 f2 ea	 xor	 dl, -22			; ffffffeaH
  00059	88 55 ef	 mov	 BYTE PTR __t$[ebp+3], dl
  0005c	8a 50 04	 mov	 dl, BYTE PTR [eax+4]
  0005f	84 d2		 test	 dl, dl
  00061	0f 84 d5 00 00
	00		 je	 $LN92@operator@2
  00067	80 f2 ed	 xor	 dl, -19			; ffffffedH
  0006a	88 55 f0	 mov	 BYTE PTR __t$[ebp+4], dl
  0006d	8a 50 05	 mov	 dl, BYTE PTR [eax+5]
  00070	84 d2		 test	 dl, dl
  00072	0f 84 be 00 00
	00		 je	 $LN91@operator@2
  00078	80 f2 ec	 xor	 dl, -20			; ffffffecH
  0007b	88 55 f1	 mov	 BYTE PTR __t$[ebp+5], dl
  0007e	8a 50 06	 mov	 dl, BYTE PTR [eax+6]
  00081	84 d2		 test	 dl, dl
  00083	0f 84 a8 00 00
	00		 je	 $LN90@operator@2
  00089	32 d1		 xor	 dl, cl
  0008b	88 55 f2	 mov	 BYTE PTR __t$[ebp+6], dl
  0008e	8a 50 07	 mov	 dl, BYTE PTR [eax+7]
  00091	84 d2		 test	 dl, dl
  00093	0f 84 92 00 00
	00		 je	 $LN89@operator@2
  00099	80 f2 ea	 xor	 dl, -22			; ffffffeaH
  0009c	88 55 f3	 mov	 BYTE PTR __t$[ebp+7], dl
  0009f	8a 50 08	 mov	 dl, BYTE PTR [eax+8]
  000a2	84 d2		 test	 dl, dl
  000a4	74 7f		 je	 SHORT $LN88@operator@2
  000a6	80 f2 ed	 xor	 dl, -19			; ffffffedH
  000a9	88 55 f4	 mov	 BYTE PTR __t$[ebp+8], dl
  000ac	8a 50 09	 mov	 dl, BYTE PTR [eax+9]
  000af	84 d2		 test	 dl, dl
  000b1	74 6c		 je	 SHORT $LN87@operator@2
  000b3	80 f2 ec	 xor	 dl, -20			; ffffffecH
  000b6	88 55 f5	 mov	 BYTE PTR __t$[ebp+9], dl
  000b9	8a 50 0a	 mov	 dl, BYTE PTR [eax+10]
  000bc	84 d2		 test	 dl, dl
  000be	74 5a		 je	 SHORT $LN86@operator@2
  000c0	32 d1		 xor	 dl, cl
  000c2	80 78 0b 00	 cmp	 BYTE PTR [eax+11], 0
  000c6	88 55 f6	 mov	 BYTE PTR __t$[ebp+10], dl
  000c9	0f 84 89 00 00
	00		 je	 $LN1@operator@2
  000cf	8a 50 0c	 mov	 dl, BYTE PTR [eax+12]
  000d2	84 d2		 test	 dl, dl
  000d4	74 3e		 je	 SHORT $LN84@operator@2
  000d6	80 f2 ed	 xor	 dl, -19			; ffffffedH
  000d9	88 55 f8	 mov	 BYTE PTR __t$[ebp+12], dl
  000dc	8a 50 0d	 mov	 dl, BYTE PTR [eax+13]
  000df	84 d2		 test	 dl, dl
  000e1	74 2b		 je	 SHORT $LN83@operator@2
  000e3	80 f2 ec	 xor	 dl, -20			; ffffffecH
  000e6	88 55 f9	 mov	 BYTE PTR __t$[ebp+13], dl
  000e9	8a 50 0e	 mov	 dl, BYTE PTR [eax+14]
  000ec	84 d2		 test	 dl, dl
  000ee	74 19		 je	 SHORT $LN82@operator@2
  000f0	8a 40 0f	 mov	 al, BYTE PTR [eax+15]
  000f3	32 d1		 xor	 dl, cl
  000f5	88 55 fa	 mov	 BYTE PTR __t$[ebp+14], dl
  000f8	84 c0		 test	 al, al
  000fa	74 07		 je	 SHORT $LN81@operator@2
  000fc	34 ea		 xor	 al, -22			; ffffffeaH
  000fe	88 45 fb	 mov	 BYTE PTR __t$[ebp+15], al
  00101	eb 55		 jmp	 SHORT $LN1@operator@2
$LN81@operator@2:
  00103	c6 45 fb ea	 mov	 BYTE PTR __t$[ebp+15], -22 ; ffffffeaH
  00107	eb 4f		 jmp	 SHORT $LN1@operator@2
$LN82@operator@2:
  00109	88 4d fa	 mov	 BYTE PTR __t$[ebp+14], cl
  0010c	eb 4a		 jmp	 SHORT $LN1@operator@2
$LN83@operator@2:
  0010e	c6 45 f9 ec	 mov	 BYTE PTR __t$[ebp+13], -20 ; ffffffecH
  00112	eb 44		 jmp	 SHORT $LN1@operator@2
$LN84@operator@2:
  00114	c6 45 f8 ed	 mov	 BYTE PTR __t$[ebp+12], -19 ; ffffffedH
  00118	eb 3e		 jmp	 SHORT $LN1@operator@2
$LN86@operator@2:
  0011a	88 4d f6	 mov	 BYTE PTR __t$[ebp+10], cl
  0011d	eb 39		 jmp	 SHORT $LN1@operator@2
$LN87@operator@2:
  0011f	c6 45 f5 ec	 mov	 BYTE PTR __t$[ebp+9], -20 ; ffffffecH
  00123	eb 33		 jmp	 SHORT $LN1@operator@2
$LN88@operator@2:
  00125	c6 45 f4 ed	 mov	 BYTE PTR __t$[ebp+8], -19 ; ffffffedH
  00129	eb 2d		 jmp	 SHORT $LN1@operator@2
$LN89@operator@2:
  0012b	c6 45 f3 ea	 mov	 BYTE PTR __t$[ebp+7], -22 ; ffffffeaH
  0012f	eb 27		 jmp	 SHORT $LN1@operator@2
$LN90@operator@2:
  00131	88 4d f2	 mov	 BYTE PTR __t$[ebp+6], cl
  00134	eb 22		 jmp	 SHORT $LN1@operator@2
$LN91@operator@2:
  00136	c6 45 f1 ec	 mov	 BYTE PTR __t$[ebp+5], -20 ; ffffffecH
  0013a	eb 1c		 jmp	 SHORT $LN1@operator@2
$LN92@operator@2:
  0013c	c6 45 f0 ed	 mov	 BYTE PTR __t$[ebp+4], -19 ; ffffffedH
  00140	eb 16		 jmp	 SHORT $LN1@operator@2
$LN93@operator@2:
  00142	c6 45 ef ea	 mov	 BYTE PTR __t$[ebp+3], -22 ; ffffffeaH
  00146	eb 10		 jmp	 SHORT $LN1@operator@2
$LN94@operator@2:
  00148	c6 45 ee eb	 mov	 BYTE PTR __t$[ebp+2], -21 ; ffffffebH
  0014c	eb 0a		 jmp	 SHORT $LN1@operator@2
$LN95@operator@2:
  0014e	c6 45 ed ec	 mov	 BYTE PTR __t$[ebp+1], -20 ; ffffffecH
  00152	eb 04		 jmp	 SHORT $LN1@operator@2
$LN96@operator@2:
  00154	c6 45 ec ed	 mov	 BYTE PTR __t$[ebp], -19	; ffffffedH
$LN1@operator@2:
  00158	6a 02		 push	 2
  0015a	8d 45 ec	 lea	 eax, DWORD PTR __t$[ebp]
  0015d	c6 45 f7 00	 mov	 BYTE PTR __t$[ebp+11], 0
  00161	5a		 pop	 edx
$LL104@operator@2:
  00162	81 30 ed ec eb
	ea		 xor	 DWORD PTR [eax], -353637139 ; eaebecedH
  00168	83 c0 04	 add	 eax, 4
  0016b	4a		 dec	 edx
  0016c	75 f4		 jne	 SHORT $LL104@operator@2
  0016e	6a 08		 push	 8
  00170	58		 pop	 eax
$LL101@operator@2:
  00171	8b c8		 mov	 ecx, eax
  00173	81 e1 03 00 00
	80		 and	 ecx, -2147483645	; 80000003H
  00179	79 05		 jns	 SHORT $LN115@operator@2
  0017b	49		 dec	 ecx
  0017c	83 c9 fc	 or	 ecx, -4			; fffffffcH
  0017f	41		 inc	 ecx
$LN115@operator@2:
  00180	b2 ed		 mov	 dl, -19			; ffffffedH
  00182	2a d1		 sub	 dl, cl
  00184	30 54 05 ec	 xor	 BYTE PTR __t$[ebp+eax], dl
  00188	40		 inc	 eax
  00189	83 f8 0b	 cmp	 eax, 11			; 0000000bH
  0018c	7c e3		 jl	 SHORT $LL101@operator@2
  0018e	8b cf		 mov	 ecx, edi
  00190	8d 75 ec	 lea	 esi, DWORD PTR __t$[ebp]
  00193	ff 15 00 00 00
	00		 call	 DWORD PTR __imp_?c_str@ioHashString@@QBEPBDXZ
$LL111@operator@2:
  00199	8a 08		 mov	 cl, BYTE PTR [eax]
  0019b	3a 0e		 cmp	 cl, BYTE PTR [esi]
  0019d	75 1a		 jne	 SHORT $LN112@operator@2
  0019f	84 c9		 test	 cl, cl
  001a1	74 12		 je	 SHORT $LN113@operator@2
  001a3	8a 48 01	 mov	 cl, BYTE PTR [eax+1]
  001a6	3a 4e 01	 cmp	 cl, BYTE PTR [esi+1]
  001a9	75 0e		 jne	 SHORT $LN112@operator@2
  001ab	83 c0 02	 add	 eax, 2
  001ae	83 c6 02	 add	 esi, 2
  001b1	84 c9		 test	 cl, cl
  001b3	75 e4		 jne	 SHORT $LL111@operator@2
$LN113@operator@2:
  001b5	33 c0		 xor	 eax, eax
  001b7	eb 05		 jmp	 SHORT $LN114@operator@2
$LN112@operator@2:
  001b9	1b c0		 sbb	 eax, eax
  001bb	83 d8 ff	 sbb	 eax, -1
$LN114@operator@2:
  001be	33 c9		 xor	 ecx, ecx
  001c0	85 c0		 test	 eax, eax
  001c2	0f 94 c0	 sete	 al

; 148  : }

  001c5	8b 4d fc	 mov	 ecx, DWORD PTR __$ArrayPad$[ebp]
  001c8	5f		 pop	 edi
  001c9	33 cd		 xor	 ecx, ebp
  001cb	5e		 pop	 esi
  001cc	e8 00 00 00 00	 call	 @__security_check_cookie@4
  001d1	c9		 leave
  001d2	c3		 ret	 0
??$?8$0M@@@YA_NABVioHashString@@AAY0M@$$CBD@Z ENDP	; operator==<12>
_TEXT	ENDS
PUBLIC	__$ArrayPad$
PUBLIC	??$GetIntAttribute_e@$0BA@@ioXMLElement@@QBEHAAY0BA@$$CBD@Z ; ioXMLElement::GetIntAttribute_e<16>
EXTRN	__imp_?GetIntAttribute@ioXMLElement@@QBEHPBD@Z:PROC
; Function compile flags: /Ogsp
; File d:\lost saga for developer\youtube\tutorial\source\src\io3dengine\ioxmlelement.h
;	COMDAT ??$GetIntAttribute_e@$0BA@@ioXMLElement@@QBEHAAY0BA@$$CBD@Z
_TEXT	SEGMENT
__k$ = -24						; size = 16
__$ArrayPad$ = -4					; size = 4
_k$ = 8							; size = 4
??$GetIntAttribute_e@$0BA@@ioXMLElement@@QBEHAAY0BA@$$CBD@Z PROC ; ioXMLElement::GetIntAttribute_e<16>, COMDAT
; _this$ = ecx

; 86   : 	{

  00000	55		 push	 ebp
  00001	8b ec		 mov	 ebp, esp
  00003	83 ec 18	 sub	 esp, 24			; 00000018H
  00006	a1 00 00 00 00	 mov	 eax, DWORD PTR ___security_cookie
  0000b	33 c5		 xor	 eax, ebp
  0000d	89 45 fc	 mov	 DWORD PTR __$ArrayPad$[ebp], eax
  00010	8b 45 08	 mov	 eax, DWORD PTR _k$[ebp]

; 87   : 		_ENCSTR(k, _k);

  00013	8a 10		 mov	 dl, BYTE PTR [eax]
  00015	56		 push	 esi
  00016	8b f1		 mov	 esi, ecx
  00018	84 d2		 test	 dl, dl
  0001a	0f 84 8c 01 00
	00		 je	 $LN96@GetIntAttr
  00020	80 f2 ed	 xor	 dl, -19			; ffffffedH
  00023	88 55 e8	 mov	 BYTE PTR __k$[ebp], dl
  00026	8a 50 01	 mov	 dl, BYTE PTR [eax+1]
  00029	84 d2		 test	 dl, dl
  0002b	0f 84 75 01 00
	00		 je	 $LN95@GetIntAttr
  00031	80 f2 ec	 xor	 dl, -20			; ffffffecH
  00034	88 55 e9	 mov	 BYTE PTR __k$[ebp+1], dl
  00037	8a 50 02	 mov	 dl, BYTE PTR [eax+2]
  0003a	84 d2		 test	 dl, dl
  0003c	0f 84 5e 01 00
	00		 je	 $LN94@GetIntAttr
  00042	b1 eb		 mov	 cl, -21			; ffffffebH
  00044	32 d1		 xor	 dl, cl
  00046	88 55 ea	 mov	 BYTE PTR __k$[ebp+2], dl
  00049	8a 50 03	 mov	 dl, BYTE PTR [eax+3]
  0004c	84 d2		 test	 dl, dl
  0004e	0f 84 46 01 00
	00		 je	 $LN93@GetIntAttr
  00054	80 f2 ea	 xor	 dl, -22			; ffffffeaH
  00057	88 55 eb	 mov	 BYTE PTR __k$[ebp+3], dl
  0005a	8a 50 04	 mov	 dl, BYTE PTR [eax+4]
  0005d	84 d2		 test	 dl, dl
  0005f	0f 84 2f 01 00
	00		 je	 $LN92@GetIntAttr
  00065	80 f2 ed	 xor	 dl, -19			; ffffffedH
  00068	88 55 ec	 mov	 BYTE PTR __k$[ebp+4], dl
  0006b	8a 50 05	 mov	 dl, BYTE PTR [eax+5]
  0006e	84 d2		 test	 dl, dl
  00070	0f 84 18 01 00
	00		 je	 $LN91@GetIntAttr
  00076	80 f2 ec	 xor	 dl, -20			; ffffffecH
  00079	88 55 ed	 mov	 BYTE PTR __k$[ebp+5], dl
  0007c	8a 50 06	 mov	 dl, BYTE PTR [eax+6]
  0007f	84 d2		 test	 dl, dl
  00081	0f 84 02 01 00
	00		 je	 $LN90@GetIntAttr
  00087	32 d1		 xor	 dl, cl
  00089	88 55 ee	 mov	 BYTE PTR __k$[ebp+6], dl
  0008c	8a 50 07	 mov	 dl, BYTE PTR [eax+7]
  0008f	84 d2		 test	 dl, dl
  00091	0f 84 ec 00 00
	00		 je	 $LN89@GetIntAttr
  00097	80 f2 ea	 xor	 dl, -22			; ffffffeaH
  0009a	88 55 ef	 mov	 BYTE PTR __k$[ebp+7], dl
  0009d	8a 50 08	 mov	 dl, BYTE PTR [eax+8]
  000a0	84 d2		 test	 dl, dl
  000a2	0f 84 d5 00 00
	00		 je	 $LN88@GetIntAttr
  000a8	80 f2 ed	 xor	 dl, -19			; ffffffedH
  000ab	88 55 f0	 mov	 BYTE PTR __k$[ebp+8], dl
  000ae	8a 50 09	 mov	 dl, BYTE PTR [eax+9]
  000b1	84 d2		 test	 dl, dl
  000b3	0f 84 be 00 00
	00		 je	 $LN87@GetIntAttr
  000b9	80 f2 ec	 xor	 dl, -20			; ffffffecH
  000bc	88 55 f1	 mov	 BYTE PTR __k$[ebp+9], dl
  000bf	8a 50 0a	 mov	 dl, BYTE PTR [eax+10]
  000c2	84 d2		 test	 dl, dl
  000c4	0f 84 a8 00 00
	00		 je	 $LN86@GetIntAttr
  000ca	32 d1		 xor	 dl, cl
  000cc	88 55 f2	 mov	 BYTE PTR __k$[ebp+10], dl
  000cf	8a 50 0b	 mov	 dl, BYTE PTR [eax+11]
  000d2	84 d2		 test	 dl, dl
  000d4	0f 84 92 00 00
	00		 je	 $LN85@GetIntAttr
  000da	80 f2 ea	 xor	 dl, -22			; ffffffeaH
  000dd	88 55 f3	 mov	 BYTE PTR __k$[ebp+11], dl
  000e0	8a 50 0c	 mov	 dl, BYTE PTR [eax+12]
  000e3	84 d2		 test	 dl, dl
  000e5	74 7f		 je	 SHORT $LN84@GetIntAttr
  000e7	80 f2 ed	 xor	 dl, -19			; ffffffedH
  000ea	88 55 f4	 mov	 BYTE PTR __k$[ebp+12], dl
  000ed	8a 50 0d	 mov	 dl, BYTE PTR [eax+13]
  000f0	84 d2		 test	 dl, dl
  000f2	74 6c		 je	 SHORT $LN83@GetIntAttr
  000f4	80 f2 ec	 xor	 dl, -20			; ffffffecH
  000f7	88 55 f5	 mov	 BYTE PTR __k$[ebp+13], dl
  000fa	8a 50 0e	 mov	 dl, BYTE PTR [eax+14]
  000fd	84 d2		 test	 dl, dl
  000ff	74 5a		 je	 SHORT $LN82@GetIntAttr
  00101	32 d1		 xor	 dl, cl
  00103	80 78 0f 00	 cmp	 BYTE PTR [eax+15], 0
  00107	88 55 f6	 mov	 BYTE PTR __k$[ebp+14], dl
  0010a	0f 84 a0 00 00
	00		 je	 $LN1@GetIntAttr
  00110	8a 50 10	 mov	 dl, BYTE PTR [eax+16]
  00113	84 d2		 test	 dl, dl
  00115	74 3e		 je	 SHORT $LN80@GetIntAttr
  00117	80 f2 ed	 xor	 dl, -19			; ffffffedH
  0011a	88 55 f8	 mov	 BYTE PTR __k$[ebp+16], dl
  0011d	8a 50 11	 mov	 dl, BYTE PTR [eax+17]
  00120	84 d2		 test	 dl, dl
  00122	74 2b		 je	 SHORT $LN79@GetIntAttr
  00124	80 f2 ec	 xor	 dl, -20			; ffffffecH
  00127	88 55 f9	 mov	 BYTE PTR __k$[ebp+17], dl
  0012a	8a 50 12	 mov	 dl, BYTE PTR [eax+18]
  0012d	84 d2		 test	 dl, dl
  0012f	74 19		 je	 SHORT $LN78@GetIntAttr
  00131	8a 40 13	 mov	 al, BYTE PTR [eax+19]
  00134	32 d1		 xor	 dl, cl
  00136	88 55 fa	 mov	 BYTE PTR __k$[ebp+18], dl
  00139	84 c0		 test	 al, al
  0013b	74 07		 je	 SHORT $LN77@GetIntAttr
  0013d	34 ea		 xor	 al, -22			; ffffffeaH
  0013f	88 45 fb	 mov	 BYTE PTR __k$[ebp+19], al
  00142	eb 6c		 jmp	 SHORT $LN1@GetIntAttr
$LN77@GetIntAttr:
  00144	c6 45 fb ea	 mov	 BYTE PTR __k$[ebp+19], -22 ; ffffffeaH
  00148	eb 66		 jmp	 SHORT $LN1@GetIntAttr
$LN78@GetIntAttr:
  0014a	88 4d fa	 mov	 BYTE PTR __k$[ebp+18], cl
  0014d	eb 61		 jmp	 SHORT $LN1@GetIntAttr
$LN79@GetIntAttr:
  0014f	c6 45 f9 ec	 mov	 BYTE PTR __k$[ebp+17], -20 ; ffffffecH
  00153	eb 5b		 jmp	 SHORT $LN1@GetIntAttr
$LN80@GetIntAttr:
  00155	c6 45 f8 ed	 mov	 BYTE PTR __k$[ebp+16], -19 ; ffffffedH
  00159	eb 55		 jmp	 SHORT $LN1@GetIntAttr
$LN82@GetIntAttr:
  0015b	88 4d f6	 mov	 BYTE PTR __k$[ebp+14], cl
  0015e	eb 50		 jmp	 SHORT $LN1@GetIntAttr
$LN83@GetIntAttr:
  00160	c6 45 f5 ec	 mov	 BYTE PTR __k$[ebp+13], -20 ; ffffffecH
  00164	eb 4a		 jmp	 SHORT $LN1@GetIntAttr
$LN84@GetIntAttr:
  00166	c6 45 f4 ed	 mov	 BYTE PTR __k$[ebp+12], -19 ; ffffffedH
  0016a	eb 44		 jmp	 SHORT $LN1@GetIntAttr
$LN85@GetIntAttr:
  0016c	c6 45 f3 ea	 mov	 BYTE PTR __k$[ebp+11], -22 ; ffffffeaH
  00170	eb 3e		 jmp	 SHORT $LN1@GetIntAttr
$LN86@GetIntAttr:
  00172	88 4d f2	 mov	 BYTE PTR __k$[ebp+10], cl
  00175	eb 39		 jmp	 SHORT $LN1@GetIntAttr
$LN87@GetIntAttr:
  00177	c6 45 f1 ec	 mov	 BYTE PTR __k$[ebp+9], -20 ; ffffffecH
  0017b	eb 33		 jmp	 SHORT $LN1@GetIntAttr
$LN88@GetIntAttr:
  0017d	c6 45 f0 ed	 mov	 BYTE PTR __k$[ebp+8], -19 ; ffffffedH
  00181	eb 2d		 jmp	 SHORT $LN1@GetIntAttr
$LN89@GetIntAttr:
  00183	c6 45 ef ea	 mov	 BYTE PTR __k$[ebp+7], -22 ; ffffffeaH
  00187	eb 27		 jmp	 SHORT $LN1@GetIntAttr
$LN90@GetIntAttr:
  00189	88 4d ee	 mov	 BYTE PTR __k$[ebp+6], cl
  0018c	eb 22		 jmp	 SHORT $LN1@GetIntAttr
$LN91@GetIntAttr:
  0018e	c6 45 ed ec	 mov	 BYTE PTR __k$[ebp+5], -20 ; ffffffecH
  00192	eb 1c		 jmp	 SHORT $LN1@GetIntAttr
$LN92@GetIntAttr:
  00194	c6 45 ec ed	 mov	 BYTE PTR __k$[ebp+4], -19 ; ffffffedH
  00198	eb 16		 jmp	 SHORT $LN1@GetIntAttr
$LN93@GetIntAttr:
  0019a	c6 45 eb ea	 mov	 BYTE PTR __k$[ebp+3], -22 ; ffffffeaH
  0019e	eb 10		 jmp	 SHORT $LN1@GetIntAttr
$LN94@GetIntAttr:
  001a0	c6 45 ea eb	 mov	 BYTE PTR __k$[ebp+2], -21 ; ffffffebH
  001a4	eb 0a		 jmp	 SHORT $LN1@GetIntAttr
$LN95@GetIntAttr:
  001a6	c6 45 e9 ec	 mov	 BYTE PTR __k$[ebp+1], -20 ; ffffffecH
  001aa	eb 04		 jmp	 SHORT $LN1@GetIntAttr
$LN96@GetIntAttr:
  001ac	c6 45 e8 ed	 mov	 BYTE PTR __k$[ebp], -19	; ffffffedH
$LN1@GetIntAttr:
  001b0	6a 03		 push	 3
  001b2	8d 45 e8	 lea	 eax, DWORD PTR __k$[ebp]
  001b5	c6 45 f7 00	 mov	 BYTE PTR __k$[ebp+15], 0
  001b9	5a		 pop	 edx
$LL104@GetIntAttr:
  001ba	81 30 ed ec eb
	ea		 xor	 DWORD PTR [eax], -353637139 ; eaebecedH
  001c0	83 c0 04	 add	 eax, 4
  001c3	4a		 dec	 edx
  001c4	75 f4		 jne	 SHORT $LL104@GetIntAttr
  001c6	6a 0c		 push	 12			; 0000000cH
  001c8	58		 pop	 eax
$LL101@GetIntAttr:
  001c9	8b c8		 mov	 ecx, eax
  001cb	81 e1 03 00 00
	80		 and	 ecx, -2147483645	; 80000003H
  001d1	79 05		 jns	 SHORT $LN111@GetIntAttr
  001d3	49		 dec	 ecx
  001d4	83 c9 fc	 or	 ecx, -4			; fffffffcH
  001d7	41		 inc	 ecx
$LN111@GetIntAttr:
  001d8	b2 ed		 mov	 dl, -19			; ffffffedH
  001da	2a d1		 sub	 dl, cl
  001dc	30 54 05 e8	 xor	 BYTE PTR __k$[ebp+eax], dl
  001e0	40		 inc	 eax
  001e1	83 f8 0f	 cmp	 eax, 15			; 0000000fH
  001e4	7c e3		 jl	 SHORT $LL101@GetIntAttr

; 88   : 		return GetIntAttribute(_k);

  001e6	8d 45 e8	 lea	 eax, DWORD PTR __k$[ebp]
  001e9	50		 push	 eax
  001ea	8b ce		 mov	 ecx, esi
  001ec	ff 15 00 00 00
	00		 call	 DWORD PTR __imp_?GetIntAttribute@ioXMLElement@@QBEHPBD@Z

; 89   : 	}

  001f2	8b 4d fc	 mov	 ecx, DWORD PTR __$ArrayPad$[ebp]
  001f5	33 cd		 xor	 ecx, ebp
  001f7	5e		 pop	 esi
  001f8	e8 00 00 00 00	 call	 @__security_check_cookie@4
  001fd	c9		 leave
  001fe	c2 04 00	 ret	 4
??$GetIntAttribute_e@$0BA@@ioXMLElement@@QBEHAAY0BA@$$CBD@Z ENDP ; ioXMLElement::GetIntAttribute_e<16>
_TEXT	ENDS
PUBLIC	__$ArrayPad$
PUBLIC	??$GetIntAttribute_e@$0BD@@ioXMLElement@@QBEHAAY0BD@$$CBD@Z ; ioXMLElement::GetIntAttribute_e<19>
; Function compile flags: /Ogsp
;	COMDAT ??$GetIntAttribute_e@$0BD@@ioXMLElement@@QBEHAAY0BD@$$CBD@Z
_TEXT	SEGMENT
__k$ = -28						; size = 19
__$ArrayPad$ = -4					; size = 4
_k$ = 8							; size = 4
??$GetIntAttribute_e@$0BD@@ioXMLElement@@QBEHAAY0BD@$$CBD@Z PROC ; ioXMLElement::GetIntAttribute_e<19>, COMDAT
; _this$ = ecx

; 86   : 	{

  00000	55		 push	 ebp
  00001	8b ec		 mov	 ebp, esp
  00003	83 ec 1c	 sub	 esp, 28			; 0000001cH
  00006	a1 00 00 00 00	 mov	 eax, DWORD PTR ___security_cookie
  0000b	33 c5		 xor	 eax, ebp
  0000d	89 45 fc	 mov	 DWORD PTR __$ArrayPad$[ebp], eax
  00010	8b 45 08	 mov	 eax, DWORD PTR _k$[ebp]

; 87   : 		_ENCSTR(k, _k);

  00013	8a 10		 mov	 dl, BYTE PTR [eax]
  00015	56		 push	 esi
  00016	8b f1		 mov	 esi, ecx
  00018	84 d2		 test	 dl, dl
  0001a	0f 84 cf 01 00
	00		 je	 $LN96@GetIntAttr@2
  00020	80 f2 ed	 xor	 dl, -19			; ffffffedH
  00023	88 55 e4	 mov	 BYTE PTR __k$[ebp], dl
  00026	8a 50 01	 mov	 dl, BYTE PTR [eax+1]
  00029	84 d2		 test	 dl, dl
  0002b	0f 84 b8 01 00
	00		 je	 $LN95@GetIntAttr@2
  00031	b1 ec		 mov	 cl, -20			; ffffffecH
  00033	32 d1		 xor	 dl, cl
  00035	88 55 e5	 mov	 BYTE PTR __k$[ebp+1], dl
  00038	8a 50 02	 mov	 dl, BYTE PTR [eax+2]
  0003b	84 d2		 test	 dl, dl
  0003d	0f 84 a0 01 00
	00		 je	 $LN94@GetIntAttr@2
  00043	80 f2 eb	 xor	 dl, -21			; ffffffebH
  00046	88 55 e6	 mov	 BYTE PTR __k$[ebp+2], dl
  00049	8a 50 03	 mov	 dl, BYTE PTR [eax+3]
  0004c	84 d2		 test	 dl, dl
  0004e	0f 84 89 01 00
	00		 je	 $LN93@GetIntAttr@2
  00054	80 f2 ea	 xor	 dl, -22			; ffffffeaH
  00057	88 55 e7	 mov	 BYTE PTR __k$[ebp+3], dl
  0005a	8a 50 04	 mov	 dl, BYTE PTR [eax+4]
  0005d	84 d2		 test	 dl, dl
  0005f	0f 84 72 01 00
	00		 je	 $LN92@GetIntAttr@2
  00065	80 f2 ed	 xor	 dl, -19			; ffffffedH
  00068	88 55 e8	 mov	 BYTE PTR __k$[ebp+4], dl
  0006b	8a 50 05	 mov	 dl, BYTE PTR [eax+5]
  0006e	84 d2		 test	 dl, dl
  00070	0f 84 5c 01 00
	00		 je	 $LN91@GetIntAttr@2
  00076	32 d1		 xor	 dl, cl
  00078	88 55 e9	 mov	 BYTE PTR __k$[ebp+5], dl
  0007b	8a 50 06	 mov	 dl, BYTE PTR [eax+6]
  0007e	84 d2		 test	 dl, dl
  00080	0f 84 46 01 00
	00		 je	 $LN90@GetIntAttr@2
  00086	80 f2 eb	 xor	 dl, -21			; ffffffebH
  00089	88 55 ea	 mov	 BYTE PTR __k$[ebp+6], dl
  0008c	8a 50 07	 mov	 dl, BYTE PTR [eax+7]
  0008f	84 d2		 test	 dl, dl
  00091	0f 84 2f 01 00
	00		 je	 $LN89@GetIntAttr@2
  00097	80 f2 ea	 xor	 dl, -22			; ffffffeaH
  0009a	88 55 eb	 mov	 BYTE PTR __k$[ebp+7], dl
  0009d	8a 50 08	 mov	 dl, BYTE PTR [eax+8]
  000a0	84 d2		 test	 dl, dl
  000a2	0f 84 18 01 00
	00		 je	 $LN88@GetIntAttr@2
  000a8	80 f2 ed	 xor	 dl, -19			; ffffffedH
  000ab	88 55 ec	 mov	 BYTE PTR __k$[ebp+8], dl
  000ae	8a 50 09	 mov	 dl, BYTE PTR [eax+9]
  000b1	84 d2		 test	 dl, dl
  000b3	0f 84 02 01 00
	00		 je	 $LN87@GetIntAttr@2
  000b9	32 d1		 xor	 dl, cl
  000bb	88 55 ed	 mov	 BYTE PTR __k$[ebp+9], dl
  000be	8a 50 0a	 mov	 dl, BYTE PTR [eax+10]
  000c1	84 d2		 test	 dl, dl
  000c3	0f 84 ec 00 00
	00		 je	 $LN86@GetIntAttr@2
  000c9	80 f2 eb	 xor	 dl, -21			; ffffffebH
  000cc	88 55 ee	 mov	 BYTE PTR __k$[ebp+10], dl
  000cf	8a 50 0b	 mov	 dl, BYTE PTR [eax+11]
  000d2	84 d2		 test	 dl, dl
  000d4	0f 84 d5 00 00
	00		 je	 $LN85@GetIntAttr@2
  000da	80 f2 ea	 xor	 dl, -22			; ffffffeaH
  000dd	88 55 ef	 mov	 BYTE PTR __k$[ebp+11], dl
  000e0	8a 50 0c	 mov	 dl, BYTE PTR [eax+12]
  000e3	84 d2		 test	 dl, dl
  000e5	0f 84 be 00 00
	00		 je	 $LN84@GetIntAttr@2
  000eb	80 f2 ed	 xor	 dl, -19			; ffffffedH
  000ee	88 55 f0	 mov	 BYTE PTR __k$[ebp+12], dl
  000f1	8a 50 0d	 mov	 dl, BYTE PTR [eax+13]
  000f4	84 d2		 test	 dl, dl
  000f6	0f 84 a8 00 00
	00		 je	 $LN83@GetIntAttr@2
  000fc	32 d1		 xor	 dl, cl
  000fe	88 55 f1	 mov	 BYTE PTR __k$[ebp+13], dl
  00101	8a 50 0e	 mov	 dl, BYTE PTR [eax+14]
  00104	84 d2		 test	 dl, dl
  00106	0f 84 92 00 00
	00		 je	 $LN82@GetIntAttr@2
  0010c	80 f2 eb	 xor	 dl, -21			; ffffffebH
  0010f	88 55 f2	 mov	 BYTE PTR __k$[ebp+14], dl
  00112	8a 50 0f	 mov	 dl, BYTE PTR [eax+15]
  00115	84 d2		 test	 dl, dl
  00117	74 7f		 je	 SHORT $LN81@GetIntAttr@2
  00119	80 f2 ea	 xor	 dl, -22			; ffffffeaH
  0011c	88 55 f3	 mov	 BYTE PTR __k$[ebp+15], dl
  0011f	8a 50 10	 mov	 dl, BYTE PTR [eax+16]
  00122	84 d2		 test	 dl, dl
  00124	74 6c		 je	 SHORT $LN80@GetIntAttr@2
  00126	80 f2 ed	 xor	 dl, -19			; ffffffedH
  00129	88 55 f4	 mov	 BYTE PTR __k$[ebp+16], dl
  0012c	8a 50 11	 mov	 dl, BYTE PTR [eax+17]
  0012f	84 d2		 test	 dl, dl
  00131	74 5a		 je	 SHORT $LN79@GetIntAttr@2
  00133	32 d1		 xor	 dl, cl
  00135	80 78 12 00	 cmp	 BYTE PTR [eax+18], 0
  00139	88 55 f5	 mov	 BYTE PTR __k$[ebp+17], dl
  0013c	0f 84 b1 00 00
	00		 je	 $LN1@GetIntAttr@2
  00142	8a 50 13	 mov	 dl, BYTE PTR [eax+19]
  00145	84 d2		 test	 dl, dl
  00147	74 3e		 je	 SHORT $LN77@GetIntAttr@2
  00149	80 f2 ea	 xor	 dl, -22			; ffffffeaH
  0014c	88 55 f7	 mov	 BYTE PTR __k$[ebp+19], dl
  0014f	8a 50 14	 mov	 dl, BYTE PTR [eax+20]
  00152	84 d2		 test	 dl, dl
  00154	74 2b		 je	 SHORT $LN76@GetIntAttr@2
  00156	80 f2 ed	 xor	 dl, -19			; ffffffedH
  00159	88 55 f8	 mov	 BYTE PTR __k$[ebp+20], dl
  0015c	8a 50 15	 mov	 dl, BYTE PTR [eax+21]
  0015f	84 d2		 test	 dl, dl
  00161	74 19		 je	 SHORT $LN75@GetIntAttr@2
  00163	8a 40 16	 mov	 al, BYTE PTR [eax+22]
  00166	32 d1		 xor	 dl, cl
  00168	88 55 f9	 mov	 BYTE PTR __k$[ebp+21], dl
  0016b	84 c0		 test	 al, al
  0016d	74 07		 je	 SHORT $LN74@GetIntAttr@2
  0016f	34 eb		 xor	 al, -21			; ffffffebH
  00171	88 45 fa	 mov	 BYTE PTR __k$[ebp+22], al
  00174	eb 7d		 jmp	 SHORT $LN1@GetIntAttr@2
$LN74@GetIntAttr@2:
  00176	c6 45 fa eb	 mov	 BYTE PTR __k$[ebp+22], -21 ; ffffffebH
  0017a	eb 77		 jmp	 SHORT $LN1@GetIntAttr@2
$LN75@GetIntAttr@2:
  0017c	88 4d f9	 mov	 BYTE PTR __k$[ebp+21], cl
  0017f	eb 72		 jmp	 SHORT $LN1@GetIntAttr@2
$LN76@GetIntAttr@2:
  00181	c6 45 f8 ed	 mov	 BYTE PTR __k$[ebp+20], -19 ; ffffffedH
  00185	eb 6c		 jmp	 SHORT $LN1@GetIntAttr@2
$LN77@GetIntAttr@2:
  00187	c6 45 f7 ea	 mov	 BYTE PTR __k$[ebp+19], -22 ; ffffffeaH
  0018b	eb 66		 jmp	 SHORT $LN1@GetIntAttr@2
$LN79@GetIntAttr@2:
  0018d	88 4d f5	 mov	 BYTE PTR __k$[ebp+17], cl
  00190	eb 61		 jmp	 SHORT $LN1@GetIntAttr@2
$LN80@GetIntAttr@2:
  00192	c6 45 f4 ed	 mov	 BYTE PTR __k$[ebp+16], -19 ; ffffffedH
  00196	eb 5b		 jmp	 SHORT $LN1@GetIntAttr@2
$LN81@GetIntAttr@2:
  00198	c6 45 f3 ea	 mov	 BYTE PTR __k$[ebp+15], -22 ; ffffffeaH
  0019c	eb 55		 jmp	 SHORT $LN1@GetIntAttr@2
$LN82@GetIntAttr@2:
  0019e	c6 45 f2 eb	 mov	 BYTE PTR __k$[ebp+14], -21 ; ffffffebH
  001a2	eb 4f		 jmp	 SHORT $LN1@GetIntAttr@2
$LN83@GetIntAttr@2:
  001a4	88 4d f1	 mov	 BYTE PTR __k$[ebp+13], cl
  001a7	eb 4a		 jmp	 SHORT $LN1@GetIntAttr@2
$LN84@GetIntAttr@2:
  001a9	c6 45 f0 ed	 mov	 BYTE PTR __k$[ebp+12], -19 ; ffffffedH
  001ad	eb 44		 jmp	 SHORT $LN1@GetIntAttr@2
$LN85@GetIntAttr@2:
  001af	c6 45 ef ea	 mov	 BYTE PTR __k$[ebp+11], -22 ; ffffffeaH
  001b3	eb 3e		 jmp	 SHORT $LN1@GetIntAttr@2
$LN86@GetIntAttr@2:
  001b5	c6 45 ee eb	 mov	 BYTE PTR __k$[ebp+10], -21 ; ffffffebH
  001b9	eb 38		 jmp	 SHORT $LN1@GetIntAttr@2
$LN87@GetIntAttr@2:
  001bb	88 4d ed	 mov	 BYTE PTR __k$[ebp+9], cl
  001be	eb 33		 jmp	 SHORT $LN1@GetIntAttr@2
$LN88@GetIntAttr@2:
  001c0	c6 45 ec ed	 mov	 BYTE PTR __k$[ebp+8], -19 ; ffffffedH
  001c4	eb 2d		 jmp	 SHORT $LN1@GetIntAttr@2
$LN89@GetIntAttr@2:
  001c6	c6 45 eb ea	 mov	 BYTE PTR __k$[ebp+7], -22 ; ffffffeaH
  001ca	eb 27		 jmp	 SHORT $LN1@GetIntAttr@2
$LN90@GetIntAttr@2:
  001cc	c6 45 ea eb	 mov	 BYTE PTR __k$[ebp+6], -21 ; ffffffebH
  001d0	eb 21		 jmp	 SHORT $LN1@GetIntAttr@2
$LN91@GetIntAttr@2:
  001d2	88 4d e9	 mov	 BYTE PTR __k$[ebp+5], cl
  001d5	eb 1c		 jmp	 SHORT $LN1@GetIntAttr@2
$LN92@GetIntAttr@2:
  001d7	c6 45 e8 ed	 mov	 BYTE PTR __k$[ebp+4], -19 ; ffffffedH
  001db	eb 16		 jmp	 SHORT $LN1@GetIntAttr@2
$LN93@GetIntAttr@2:
  001dd	c6 45 e7 ea	 mov	 BYTE PTR __k$[ebp+3], -22 ; ffffffeaH
  001e1	eb 10		 jmp	 SHORT $LN1@GetIntAttr@2
$LN94@GetIntAttr@2:
  001e3	c6 45 e6 eb	 mov	 BYTE PTR __k$[ebp+2], -21 ; ffffffebH
  001e7	eb 0a		 jmp	 SHORT $LN1@GetIntAttr@2
$LN95@GetIntAttr@2:
  001e9	c6 45 e5 ec	 mov	 BYTE PTR __k$[ebp+1], -20 ; ffffffecH
  001ed	eb 04		 jmp	 SHORT $LN1@GetIntAttr@2
$LN96@GetIntAttr@2:
  001ef	c6 45 e4 ed	 mov	 BYTE PTR __k$[ebp], -19	; ffffffedH
$LN1@GetIntAttr@2:
  001f3	6a 04		 push	 4
  001f5	8d 45 e4	 lea	 eax, DWORD PTR __k$[ebp]
  001f8	c6 45 f6 00	 mov	 BYTE PTR __k$[ebp+18], 0
  001fc	5a		 pop	 edx
$LL104@GetIntAttr@2:
  001fd	81 30 ed ec eb
	ea		 xor	 DWORD PTR [eax], -353637139 ; eaebecedH
  00203	83 c0 04	 add	 eax, 4
  00206	4a		 dec	 edx
  00207	75 f4		 jne	 SHORT $LL104@GetIntAttr@2
  00209	6a 10		 push	 16			; 00000010H
  0020b	58		 pop	 eax
$LL101@GetIntAttr@2:
  0020c	8b c8		 mov	 ecx, eax
  0020e	81 e1 03 00 00
	80		 and	 ecx, -2147483645	; 80000003H
  00214	79 05		 jns	 SHORT $LN111@GetIntAttr@2
  00216	49		 dec	 ecx
  00217	83 c9 fc	 or	 ecx, -4			; fffffffcH
  0021a	41		 inc	 ecx
$LN111@GetIntAttr@2:
  0021b	b2 ed		 mov	 dl, -19			; ffffffedH
  0021d	2a d1		 sub	 dl, cl
  0021f	30 54 05 e4	 xor	 BYTE PTR __k$[ebp+eax], dl
  00223	40		 inc	 eax
  00224	83 f8 12	 cmp	 eax, 18			; 00000012H
  00227	7c e3		 jl	 SHORT $LL101@GetIntAttr@2

; 88   : 		return GetIntAttribute(_k);

  00229	8d 45 e4	 lea	 eax, DWORD PTR __k$[ebp]
  0022c	50		 push	 eax
  0022d	8b ce		 mov	 ecx, esi
  0022f	ff 15 00 00 00
	00		 call	 DWORD PTR __imp_?GetIntAttribute@ioXMLElement@@QBEHPBD@Z

; 89   : 	}

  00235	8b 4d fc	 mov	 ecx, DWORD PTR __$ArrayPad$[ebp]
  00238	33 cd		 xor	 ecx, ebp
  0023a	5e		 pop	 esi
  0023b	e8 00 00 00 00	 call	 @__security_check_cookie@4
  00240	c9		 leave
  00241	c2 04 00	 ret	 4
??$GetIntAttribute_e@$0BD@@ioXMLElement@@QBEHAAY0BD@$$CBD@Z ENDP ; ioXMLElement::GetIntAttribute_e<19>
_TEXT	ENDS
PUBLIC	??$?8$00@ioHashString@@QAE_NAAY00$$CBD@Z	; ioHashString::operator==<1>
; Function compile flags: /Ogsp
; File d:\lost saga for developer\youtube\tutorial\source\src\io3dengine\iohashstring.h
;	COMDAT ??$?8$00@ioHashString@@QAE_NAAY00$$CBD@Z
_TEXT	SEGMENT
__t$ = -5						; size = 1
_t$ = 8							; size = 4
??$?8$00@ioHashString@@QAE_NAAY00$$CBD@Z PROC		; ioHashString::operator==<1>, COMDAT
; _this$ = ecx

; 127  : 	{

  00000	55		 push	 ebp
  00001	8b ec		 mov	 ebp, esp
  00003	51		 push	 ecx
  00004	51		 push	 ecx

; 128  : 		_ENCSTR(t, _t); return ( strcmp( m_pString, _t ) == 0 );

  00005	8b 45 08	 mov	 eax, DWORD PTR _t$[ebp]
  00008	80 38 00	 cmp	 BYTE PTR [eax], 0
  0000b	74 4b		 je	 SHORT $LN2@operator@3
  0000d	8a 50 01	 mov	 dl, BYTE PTR [eax+1]
  00010	84 d2		 test	 dl, dl
  00012	74 40		 je	 SHORT $LN95@operator@3
  00014	80 f2 ec	 xor	 dl, -20			; ffffffecH
  00017	88 55 fc	 mov	 BYTE PTR __t$[ebp+1], dl
  0001a	8a 50 02	 mov	 dl, BYTE PTR [eax+2]
  0001d	84 d2		 test	 dl, dl
  0001f	74 2d		 je	 SHORT $LN94@operator@3
  00021	80 f2 eb	 xor	 dl, -21			; ffffffebH
  00024	88 55 fd	 mov	 BYTE PTR __t$[ebp+2], dl
  00027	8a 50 03	 mov	 dl, BYTE PTR [eax+3]
  0002a	84 d2		 test	 dl, dl
  0002c	74 1a		 je	 SHORT $LN93@operator@3
  0002e	8a 40 04	 mov	 al, BYTE PTR [eax+4]
  00031	80 f2 ea	 xor	 dl, -22			; ffffffeaH
  00034	88 55 fe	 mov	 BYTE PTR __t$[ebp+3], dl
  00037	84 c0		 test	 al, al
  00039	74 07		 je	 SHORT $LN92@operator@3
  0003b	34 ed		 xor	 al, -19			; ffffffedH
  0003d	88 45 ff	 mov	 BYTE PTR __t$[ebp+4], al
  00040	eb 16		 jmp	 SHORT $LN2@operator@3
$LN92@operator@3:
  00042	c6 45 ff ed	 mov	 BYTE PTR __t$[ebp+4], -19 ; ffffffedH
  00046	eb 10		 jmp	 SHORT $LN2@operator@3
$LN93@operator@3:
  00048	c6 45 fe ea	 mov	 BYTE PTR __t$[ebp+3], -22 ; ffffffeaH
  0004c	eb 0a		 jmp	 SHORT $LN2@operator@3
$LN94@operator@3:
  0004e	c6 45 fd eb	 mov	 BYTE PTR __t$[ebp+2], -21 ; ffffffebH
  00052	eb 04		 jmp	 SHORT $LN2@operator@3
$LN95@operator@3:
  00054	c6 45 fc ec	 mov	 BYTE PTR __t$[ebp+1], -20 ; ffffffecH
$LN2@operator@3:
  00058	8b 01		 mov	 eax, DWORD PTR [ecx]
  0005a	c6 45 fb 00	 mov	 BYTE PTR __t$[ebp], 0
  0005e	8d 55 fb	 lea	 edx, DWORD PTR __t$[ebp]
$LL111@operator@3:
  00061	8a 08		 mov	 cl, BYTE PTR [eax]
  00063	3a 0a		 cmp	 cl, BYTE PTR [edx]
  00065	75 1a		 jne	 SHORT $LN112@operator@3
  00067	84 c9		 test	 cl, cl
  00069	74 12		 je	 SHORT $LN113@operator@3
  0006b	8a 48 01	 mov	 cl, BYTE PTR [eax+1]
  0006e	3a 4a 01	 cmp	 cl, BYTE PTR [edx+1]
  00071	75 0e		 jne	 SHORT $LN112@operator@3
  00073	83 c0 02	 add	 eax, 2
  00076	83 c2 02	 add	 edx, 2
  00079	84 c9		 test	 cl, cl
  0007b	75 e4		 jne	 SHORT $LL111@operator@3
$LN113@operator@3:
  0007d	33 c0		 xor	 eax, eax
  0007f	eb 05		 jmp	 SHORT $LN114@operator@3
$LN112@operator@3:
  00081	1b c0		 sbb	 eax, eax
  00083	83 d8 ff	 sbb	 eax, -1
$LN114@operator@3:
  00086	33 c9		 xor	 ecx, ecx
  00088	85 c0		 test	 eax, eax
  0008a	0f 94 c0	 sete	 al

; 129  : 	}

  0008d	c9		 leave
  0008e	c2 04 00	 ret	 4
??$?8$00@ioHashString@@QAE_NAAY00$$CBD@Z ENDP		; ioHashString::operator==<1>
_TEXT	ENDS
PUBLIC	__$ArrayPad$
PUBLIC	??$GetIntAttribute_e@$0O@@ioXMLElement@@QBEHAAY0O@$$CBD@Z ; ioXMLElement::GetIntAttribute_e<14>
; Function compile flags: /Ogsp
; File d:\lost saga for developer\youtube\tutorial\source\src\io3dengine\ioxmlelement.h
;	COMDAT ??$GetIntAttribute_e@$0O@@ioXMLElement@@QBEHAAY0O@$$CBD@Z
_TEXT	SEGMENT
__k$ = -24						; size = 14
__$ArrayPad$ = -4					; size = 4
_k$ = 8							; size = 4
??$GetIntAttribute_e@$0O@@ioXMLElement@@QBEHAAY0O@$$CBD@Z PROC ; ioXMLElement::GetIntAttribute_e<14>, COMDAT
; _this$ = ecx

; 86   : 	{

  00000	55		 push	 ebp
  00001	8b ec		 mov	 ebp, esp
  00003	83 ec 18	 sub	 esp, 24			; 00000018H
  00006	a1 00 00 00 00	 mov	 eax, DWORD PTR ___security_cookie
  0000b	33 c5		 xor	 eax, ebp
  0000d	89 45 fc	 mov	 DWORD PTR __$ArrayPad$[ebp], eax
  00010	8b 45 08	 mov	 eax, DWORD PTR _k$[ebp]

; 87   : 		_ENCSTR(k, _k);

  00013	8a 10		 mov	 dl, BYTE PTR [eax]
  00015	56		 push	 esi
  00016	8b f1		 mov	 esi, ecx
  00018	84 d2		 test	 dl, dl
  0001a	0f 84 64 01 00
	00		 je	 $LN96@GetIntAttr@3
  00020	80 f2 ed	 xor	 dl, -19			; ffffffedH
  00023	88 55 e8	 mov	 BYTE PTR __k$[ebp], dl
  00026	8a 50 01	 mov	 dl, BYTE PTR [eax+1]
  00029	84 d2		 test	 dl, dl
  0002b	0f 84 4d 01 00
	00		 je	 $LN95@GetIntAttr@3
  00031	80 f2 ec	 xor	 dl, -20			; ffffffecH
  00034	88 55 e9	 mov	 BYTE PTR __k$[ebp+1], dl
  00037	8a 50 02	 mov	 dl, BYTE PTR [eax+2]
  0003a	84 d2		 test	 dl, dl
  0003c	0f 84 36 01 00
	00		 je	 $LN94@GetIntAttr@3
  00042	b1 eb		 mov	 cl, -21			; ffffffebH
  00044	32 d1		 xor	 dl, cl
  00046	88 55 ea	 mov	 BYTE PTR __k$[ebp+2], dl
  00049	8a 50 03	 mov	 dl, BYTE PTR [eax+3]
  0004c	84 d2		 test	 dl, dl
  0004e	0f 84 1e 01 00
	00		 je	 $LN93@GetIntAttr@3
  00054	80 f2 ea	 xor	 dl, -22			; ffffffeaH
  00057	88 55 eb	 mov	 BYTE PTR __k$[ebp+3], dl
  0005a	8a 50 04	 mov	 dl, BYTE PTR [eax+4]
  0005d	84 d2		 test	 dl, dl
  0005f	0f 84 07 01 00
	00		 je	 $LN92@GetIntAttr@3
  00065	80 f2 ed	 xor	 dl, -19			; ffffffedH
  00068	88 55 ec	 mov	 BYTE PTR __k$[ebp+4], dl
  0006b	8a 50 05	 mov	 dl, BYTE PTR [eax+5]
  0006e	84 d2		 test	 dl, dl
  00070	0f 84 f0 00 00
	00		 je	 $LN91@GetIntAttr@3
  00076	80 f2 ec	 xor	 dl, -20			; ffffffecH
  00079	88 55 ed	 mov	 BYTE PTR __k$[ebp+5], dl
  0007c	8a 50 06	 mov	 dl, BYTE PTR [eax+6]
  0007f	84 d2		 test	 dl, dl
  00081	0f 84 da 00 00
	00		 je	 $LN90@GetIntAttr@3
  00087	32 d1		 xor	 dl, cl
  00089	88 55 ee	 mov	 BYTE PTR __k$[ebp+6], dl
  0008c	8a 50 07	 mov	 dl, BYTE PTR [eax+7]
  0008f	84 d2		 test	 dl, dl
  00091	0f 84 c4 00 00
	00		 je	 $LN89@GetIntAttr@3
  00097	80 f2 ea	 xor	 dl, -22			; ffffffeaH
  0009a	88 55 ef	 mov	 BYTE PTR __k$[ebp+7], dl
  0009d	8a 50 08	 mov	 dl, BYTE PTR [eax+8]
  000a0	84 d2		 test	 dl, dl
  000a2	0f 84 ad 00 00
	00		 je	 $LN88@GetIntAttr@3
  000a8	80 f2 ed	 xor	 dl, -19			; ffffffedH
  000ab	88 55 f0	 mov	 BYTE PTR __k$[ebp+8], dl
  000ae	8a 50 09	 mov	 dl, BYTE PTR [eax+9]
  000b1	84 d2		 test	 dl, dl
  000b3	0f 84 96 00 00
	00		 je	 $LN87@GetIntAttr@3
  000b9	80 f2 ec	 xor	 dl, -20			; ffffffecH
  000bc	88 55 f1	 mov	 BYTE PTR __k$[ebp+9], dl
  000bf	8a 50 0a	 mov	 dl, BYTE PTR [eax+10]
  000c2	84 d2		 test	 dl, dl
  000c4	0f 84 80 00 00
	00		 je	 $LN86@GetIntAttr@3
  000ca	32 d1		 xor	 dl, cl
  000cc	88 55 f2	 mov	 BYTE PTR __k$[ebp+10], dl
  000cf	8a 50 0b	 mov	 dl, BYTE PTR [eax+11]
  000d2	84 d2		 test	 dl, dl
  000d4	74 6e		 je	 SHORT $LN85@GetIntAttr@3
  000d6	80 f2 ea	 xor	 dl, -22			; ffffffeaH
  000d9	88 55 f3	 mov	 BYTE PTR __k$[ebp+11], dl
  000dc	8a 50 0c	 mov	 dl, BYTE PTR [eax+12]
  000df	84 d2		 test	 dl, dl
  000e1	74 5b		 je	 SHORT $LN84@GetIntAttr@3
  000e3	80 f2 ed	 xor	 dl, -19			; ffffffedH
  000e6	80 78 0d 00	 cmp	 BYTE PTR [eax+13], 0
  000ea	88 55 f4	 mov	 BYTE PTR __k$[ebp+12], dl
  000ed	0f 84 95 00 00
	00		 je	 $LN1@GetIntAttr@3
  000f3	8a 50 0e	 mov	 dl, BYTE PTR [eax+14]
  000f6	84 d2		 test	 dl, dl
  000f8	74 3f		 je	 SHORT $LN82@GetIntAttr@3
  000fa	32 d1		 xor	 dl, cl
  000fc	88 55 f6	 mov	 BYTE PTR __k$[ebp+14], dl
  000ff	8a 50 0f	 mov	 dl, BYTE PTR [eax+15]
  00102	84 d2		 test	 dl, dl
  00104	74 2d		 je	 SHORT $LN81@GetIntAttr@3
  00106	80 f2 ea	 xor	 dl, -22			; ffffffeaH
  00109	88 55 f7	 mov	 BYTE PTR __k$[ebp+15], dl
  0010c	8a 50 10	 mov	 dl, BYTE PTR [eax+16]
  0010f	84 d2		 test	 dl, dl
  00111	74 1a		 je	 SHORT $LN80@GetIntAttr@3
  00113	8a 40 11	 mov	 al, BYTE PTR [eax+17]
  00116	80 f2 ed	 xor	 dl, -19			; ffffffedH
  00119	88 55 f8	 mov	 BYTE PTR __k$[ebp+16], dl
  0011c	84 c0		 test	 al, al
  0011e	74 07		 je	 SHORT $LN79@GetIntAttr@3
  00120	34 ec		 xor	 al, -20			; ffffffecH
  00122	88 45 f9	 mov	 BYTE PTR __k$[ebp+17], al
  00125	eb 61		 jmp	 SHORT $LN1@GetIntAttr@3
$LN79@GetIntAttr@3:
  00127	c6 45 f9 ec	 mov	 BYTE PTR __k$[ebp+17], -20 ; ffffffecH
  0012b	eb 5b		 jmp	 SHORT $LN1@GetIntAttr@3
$LN80@GetIntAttr@3:
  0012d	c6 45 f8 ed	 mov	 BYTE PTR __k$[ebp+16], -19 ; ffffffedH
  00131	eb 55		 jmp	 SHORT $LN1@GetIntAttr@3
$LN81@GetIntAttr@3:
  00133	c6 45 f7 ea	 mov	 BYTE PTR __k$[ebp+15], -22 ; ffffffeaH
  00137	eb 4f		 jmp	 SHORT $LN1@GetIntAttr@3
$LN82@GetIntAttr@3:
  00139	88 4d f6	 mov	 BYTE PTR __k$[ebp+14], cl
  0013c	eb 4a		 jmp	 SHORT $LN1@GetIntAttr@3
$LN84@GetIntAttr@3:
  0013e	c6 45 f4 ed	 mov	 BYTE PTR __k$[ebp+12], -19 ; ffffffedH
  00142	eb 44		 jmp	 SHORT $LN1@GetIntAttr@3
$LN85@GetIntAttr@3:
  00144	c6 45 f3 ea	 mov	 BYTE PTR __k$[ebp+11], -22 ; ffffffeaH
  00148	eb 3e		 jmp	 SHORT $LN1@GetIntAttr@3
$LN86@GetIntAttr@3:
  0014a	88 4d f2	 mov	 BYTE PTR __k$[ebp+10], cl
  0014d	eb 39		 jmp	 SHORT $LN1@GetIntAttr@3
$LN87@GetIntAttr@3:
  0014f	c6 45 f1 ec	 mov	 BYTE PTR __k$[ebp+9], -20 ; ffffffecH
  00153	eb 33		 jmp	 SHORT $LN1@GetIntAttr@3
$LN88@GetIntAttr@3:
  00155	c6 45 f0 ed	 mov	 BYTE PTR __k$[ebp+8], -19 ; ffffffedH
  00159	eb 2d		 jmp	 SHORT $LN1@GetIntAttr@3
$LN89@GetIntAttr@3:
  0015b	c6 45 ef ea	 mov	 BYTE PTR __k$[ebp+7], -22 ; ffffffeaH
  0015f	eb 27		 jmp	 SHORT $LN1@GetIntAttr@3
$LN90@GetIntAttr@3:
  00161	88 4d ee	 mov	 BYTE PTR __k$[ebp+6], cl
  00164	eb 22		 jmp	 SHORT $LN1@GetIntAttr@3
$LN91@GetIntAttr@3:
  00166	c6 45 ed ec	 mov	 BYTE PTR __k$[ebp+5], -20 ; ffffffecH
  0016a	eb 1c		 jmp	 SHORT $LN1@GetIntAttr@3
$LN92@GetIntAttr@3:
  0016c	c6 45 ec ed	 mov	 BYTE PTR __k$[ebp+4], -19 ; ffffffedH
  00170	eb 16		 jmp	 SHORT $LN1@GetIntAttr@3
$LN93@GetIntAttr@3:
  00172	c6 45 eb ea	 mov	 BYTE PTR __k$[ebp+3], -22 ; ffffffeaH
  00176	eb 10		 jmp	 SHORT $LN1@GetIntAttr@3
$LN94@GetIntAttr@3:
  00178	c6 45 ea eb	 mov	 BYTE PTR __k$[ebp+2], -21 ; ffffffebH
  0017c	eb 0a		 jmp	 SHORT $LN1@GetIntAttr@3
$LN95@GetIntAttr@3:
  0017e	c6 45 e9 ec	 mov	 BYTE PTR __k$[ebp+1], -20 ; ffffffecH
  00182	eb 04		 jmp	 SHORT $LN1@GetIntAttr@3
$LN96@GetIntAttr@3:
  00184	c6 45 e8 ed	 mov	 BYTE PTR __k$[ebp], -19	; ffffffedH
$LN1@GetIntAttr@3:
  00188	6a 03		 push	 3
  0018a	8d 45 e8	 lea	 eax, DWORD PTR __k$[ebp]
  0018d	c6 45 f5 00	 mov	 BYTE PTR __k$[ebp+13], 0
  00191	5a		 pop	 edx
$LL104@GetIntAttr@3:
  00192	81 30 ed ec eb
	ea		 xor	 DWORD PTR [eax], -353637139 ; eaebecedH
  00198	83 c0 04	 add	 eax, 4
  0019b	4a		 dec	 edx
  0019c	75 f4		 jne	 SHORT $LL104@GetIntAttr@3
  0019e	80 75 f4 ed	 xor	 BYTE PTR __k$[ebp+12], -19 ; ffffffedH

; 88   : 		return GetIntAttribute(_k);

  001a2	8d 45 e8	 lea	 eax, DWORD PTR __k$[ebp]
  001a5	50		 push	 eax
  001a6	8b ce		 mov	 ecx, esi
  001a8	ff 15 00 00 00
	00		 call	 DWORD PTR __imp_?GetIntAttribute@ioXMLElement@@QBEHPBD@Z

; 89   : 	}

  001ae	8b 4d fc	 mov	 ecx, DWORD PTR __$ArrayPad$[ebp]
  001b1	33 cd		 xor	 ecx, ebp
  001b3	5e		 pop	 esi
  001b4	e8 00 00 00 00	 call	 @__security_check_cookie@4
  001b9	c9		 leave
  001ba	c2 04 00	 ret	 4
??$GetIntAttribute_e@$0O@@ioXMLElement@@QBEHAAY0O@$$CBD@Z ENDP ; ioXMLElement::GetIntAttribute_e<14>
_TEXT	ENDS
PUBLIC	?construct@?$allocator@H@std@@QAEXPAH$$QAH@Z	; std::allocator<int>::construct
; Function compile flags: /Ogsp
; File c:\program files (x86)\microsoft visual studio 10.0\vc\include\xmemory
;	COMDAT ?construct@?$allocator@H@std@@QAEXPAH$$QAH@Z
_TEXT	SEGMENT
__Ptr$ = 8						; size = 4
__Val$ = 12						; size = 4
?construct@?$allocator@H@std@@QAEXPAH$$QAH@Z PROC	; std::allocator<int>::construct, COMDAT
; _this$ = ecx

; 201  : 		{	// construct object at _Ptr with value _Val

  00000	55		 push	 ebp
  00001	8b ec		 mov	 ebp, esp

; 202  : 		::new ((void _FARQ *)_Ptr) _Ty(_STD forward<_Ty>(_Val));

  00003	8b 45 08	 mov	 eax, DWORD PTR __Ptr$[ebp]
  00006	85 c0		 test	 eax, eax
  00008	74 07		 je	 SHORT $LN3@construct
  0000a	8b 4d 0c	 mov	 ecx, DWORD PTR __Val$[ebp]
  0000d	8b 09		 mov	 ecx, DWORD PTR [ecx]
  0000f	89 08		 mov	 DWORD PTR [eax], ecx
$LN3@construct:

; 203  : 		}

  00011	5d		 pop	 ebp
  00012	c2 08 00	 ret	 8
?construct@?$allocator@H@std@@QAEXPAH$$QAH@Z ENDP	; std::allocator<int>::construct
_TEXT	ENDS
PUBLIC	??G?$_Vector_iterator@V?$_Vector_val@UNewShopPullDownItem@@V?$allocator@UNewShopPullDownItem@@@std@@@std@@@std@@QBEHABV?$_Vector_const_iterator@V?$_Vector_val@UNewShopPullDownItem@@V?$allocator@UNewShopPullDownItem@@@std@@@std@@@1@@Z ; std::_Vector_iterator<std::_Vector_val<NewShopPullDownItem,std::allocator<NewShopPullDownItem> > >::operator-
; Function compile flags: /Ogsp
; File c:\program files (x86)\microsoft visual studio 10.0\vc\include\vector
;	COMDAT ??G?$_Vector_iterator@V?$_Vector_val@UNewShopPullDownItem@@V?$allocator@UNewShopPullDownItem@@@std@@@std@@@std@@QBEHABV?$_Vector_const_iterator@V?$_Vector_val@UNewShopPullDownItem@@V?$allocator@UNewShopPullDownItem@@@std@@@std@@@1@@Z
_TEXT	SEGMENT
__Right$ = 8						; size = 4
??G?$_Vector_iterator@V?$_Vector_val@UNewShopPullDownItem@@V?$allocator@UNewShopPullDownItem@@@std@@@std@@@std@@QBEHABV?$_Vector_const_iterator@V?$_Vector_val@UNewShopPullDownItem@@V?$allocator@UNewShopPullDownItem@@@std@@@std@@@1@@Z PROC ; std::_Vector_iterator<std::_Vector_val<NewShopPullDownItem,std::allocator<NewShopPullDownItem> > >::operator-, COMDAT
; _this$ = ecx

; 380  : 		{	// return difference of iterators

  00000	55		 push	 ebp
  00001	8b ec		 mov	 ebp, esp

; 381  : 		return (*(_Mybase *)this - _Right);

  00003	8b 01		 mov	 eax, DWORD PTR [ecx]
  00005	8b 4d 08	 mov	 ecx, DWORD PTR __Right$[ebp]
  00008	2b 01		 sub	 eax, DWORD PTR [ecx]
  0000a	6a 50		 push	 80			; 00000050H
  0000c	99		 cdq
  0000d	59		 pop	 ecx
  0000e	f7 f9		 idiv	 ecx

; 382  : 		}

  00010	5d		 pop	 ebp
  00011	c2 04 00	 ret	 4
??G?$_Vector_iterator@V?$_Vector_val@UNewShopPullDownItem@@V?$allocator@UNewShopPullDownItem@@@std@@@std@@@std@@QBEHABV?$_Vector_const_iterator@V?$_Vector_val@UNewShopPullDownItem@@V?$allocator@UNewShopPullDownItem@@@std@@@std@@@1@@Z ENDP ; std::_Vector_iterator<std::_Vector_val<NewShopPullDownItem,std::allocator<NewShopPullDownItem> > >::operator-
_TEXT	ENDS
PUBLIC	??$_Unchecked@V?$_Vector_val@UNewShopPullDownItem@@V?$allocator@UNewShopPullDownItem@@@std@@@std@@@std@@YAPAUNewShopPullDownItem@@V?$_Vector_iterator@V?$_Vector_val@UNewShopPullDownItem@@V?$allocator@UNewShopPullDownItem@@@std@@@std@@@0@@Z ; std::_Unchecked<std::_Vector_val<NewShopPullDownItem,std::allocator<NewShopPullDownItem> > >
; Function compile flags: /Ogsp
;	COMDAT ??$_Unchecked@V?$_Vector_val@UNewShopPullDownItem@@V?$allocator@UNewShopPullDownItem@@@std@@@std@@@std@@YAPAUNewShopPullDownItem@@V?$_Vector_iterator@V?$_Vector_val@UNewShopPullDownItem@@V?$allocator@UNewShopPullDownItem@@@std@@@std@@@0@@Z
_TEXT	SEGMENT
__Iter$ = 8						; size = 4
??$_Unchecked@V?$_Vector_val@UNewShopPullDownItem@@V?$allocator@UNewShopPullDownItem@@@std@@@std@@@std@@YAPAUNewShopPullDownItem@@V?$_Vector_iterator@V?$_Vector_val@UNewShopPullDownItem@@V?$allocator@UNewShopPullDownItem@@@std@@@std@@@0@@Z PROC ; std::_Unchecked<std::_Vector_val<NewShopPullDownItem,std::allocator<NewShopPullDownItem> > >, COMDAT

; 393  : 	{	// convert to unchecked

  00000	55		 push	 ebp
  00001	8b ec		 mov	 ebp, esp

; 394  : 	return (_Iter._Unchecked());

  00003	8b 45 08	 mov	 eax, DWORD PTR __Iter$[ebp]

; 395  : 	}

  00006	5d		 pop	 ebp
  00007	c3		 ret	 0
??$_Unchecked@V?$_Vector_val@UNewShopPullDownItem@@V?$allocator@UNewShopPullDownItem@@@std@@@std@@@std@@YAPAUNewShopPullDownItem@@V?$_Vector_iterator@V?$_Vector_val@UNewShopPullDownItem@@V?$allocator@UNewShopPullDownItem@@@std@@@std@@@0@@Z ENDP ; std::_Unchecked<std::_Vector_val<NewShopPullDownItem,std::allocator<NewShopPullDownItem> > >
_TEXT	ENDS
PUBLIC	??$construct@AAVioHashString@@@?$allocator@VioHashString@@@std@@QAEXPAVioHashString@@AAV2@@Z ; std::allocator<ioHashString>::construct<ioHashString &>
;	COMDAT xdata$x
; File c:\program files (x86)\microsoft visual studio 10.0\vc\include\utility
xdata$x	SEGMENT
__unwindtable$??$construct@AAVioHashString@@@?$allocator@VioHashString@@@std@@QAEXPAVioHashString@@AAV2@@Z DD 0ffffffffH
	DD	FLAT:__unwindfunclet$??$construct@AAVioHashString@@@?$allocator@VioHashString@@@std@@QAEXPAVioHashString@@AAV2@@Z$0
__ehfuncinfo$??$construct@AAVioHashString@@@?$allocator@VioHashString@@@std@@QAEXPAVioHashString@@AAV2@@Z DD 019930522H
	DD	01H
	DD	FLAT:__unwindtable$??$construct@AAVioHashString@@@?$allocator@VioHashString@@@std@@QAEXPAVioHashString@@AAV2@@Z
	DD	2 DUP(00H)
	DD	2 DUP(00H)
	DD	00H
	DD	01H
; Function compile flags: /Ogsp
; File c:\program files (x86)\microsoft visual studio 10.0\vc\include\xmemory
xdata$x	ENDS
;	COMDAT ??$construct@AAVioHashString@@@?$allocator@VioHashString@@@std@@QAEXPAVioHashString@@AAV2@@Z
_TEXT	SEGMENT
$T516101 = -16						; size = 4
__$EHRec$ = -12						; size = 12
__Ptr$ = 8						; size = 4
__Val$ = 12						; size = 4
??$construct@AAVioHashString@@@?$allocator@VioHashString@@@std@@QAEXPAVioHashString@@AAV2@@Z PROC ; std::allocator<ioHashString>::construct<ioHashString &>, COMDAT
; _this$ = ecx

; 206  : 		void construct(pointer _Ptr, _Other&& _Val)

  00000	6a 04		 push	 4
  00002	b8 00 00 00 00	 mov	 eax, __ehhandler$??$construct@AAVioHashString@@@?$allocator@VioHashString@@@std@@QAEXPAVioHashString@@AAV2@@Z
  00007	e8 00 00 00 00	 call	 __EH_prolog3

; 207  : 		{	// construct object at _Ptr with value _Val
; 208  : 		::new ((void _FARQ *)_Ptr) _Ty(_STD forward<_Other>(_Val));

  0000c	8b 4d 08	 mov	 ecx, DWORD PTR __Ptr$[ebp]
  0000f	89 4d f0	 mov	 DWORD PTR $T516101[ebp], ecx
  00012	83 65 fc 00	 and	 DWORD PTR __$EHRec$[ebp+8], 0
  00016	85 c9		 test	 ecx, ecx
  00018	74 09		 je	 SHORT $LN3@construct@2
  0001a	ff 75 0c	 push	 DWORD PTR __Val$[ebp]
  0001d	ff 15 00 00 00
	00		 call	 DWORD PTR __imp_??0ioHashString@@QAE@ABV0@@Z
$LN3@construct@2:

; 209  : 		}

  00023	e8 00 00 00 00	 call	 __EH_epilog3
  00028	c2 08 00	 ret	 8
_TEXT	ENDS
;	COMDAT text$x
text$x	SEGMENT
__unwindfunclet$??$construct@AAVioHashString@@@?$allocator@VioHashString@@@std@@QAEXPAVioHashString@@AAV2@@Z$0:
  00000	ff 75 08	 push	 DWORD PTR __Ptr$[ebp]
  00003	ff 75 f0	 push	 DWORD PTR $T516101[ebp]
  00006	e8 00 00 00 00	 call	 ??3@YAXPAX0@Z		; operator delete
  0000b	59		 pop	 ecx
  0000c	59		 pop	 ecx
  0000d	c3		 ret	 0
__ehhandler$??$construct@AAVioHashString@@@?$allocator@VioHashString@@@std@@QAEXPAVioHashString@@AAV2@@Z:
  0000e	8b 54 24 08	 mov	 edx, DWORD PTR [esp+8]
  00012	8d 42 0c	 lea	 eax, DWORD PTR [edx+12]
  00015	8b 4a ec	 mov	 ecx, DWORD PTR [edx-20]
  00018	33 c8		 xor	 ecx, eax
  0001a	e8 00 00 00 00	 call	 @__security_check_cookie@4
  0001f	b8 00 00 00 00	 mov	 eax, OFFSET __ehfuncinfo$??$construct@AAVioHashString@@@?$allocator@VioHashString@@@std@@QAEXPAVioHashString@@AAV2@@Z
  00024	e9 00 00 00 00	 jmp	 ___CxxFrameHandler3
text$x	ENDS
??$construct@AAVioHashString@@@?$allocator@VioHashString@@@std@@QAEXPAVioHashString@@AAV2@@Z ENDP ; std::allocator<ioHashString>::construct<ioHashString &>
PUBLIC	??$construct@AAUNewShopPullDownItem@@@?$allocator@UNewShopPullDownItem@@@std@@QAEXPAUNewShopPullDownItem@@AAU2@@Z ; std::allocator<NewShopPullDownItem>::construct<NewShopPullDownItem &>
;	COMDAT xdata$x
; File c:\program files (x86)\microsoft visual studio 10.0\vc\include\utility
xdata$x	SEGMENT
__unwindtable$??$construct@AAUNewShopPullDownItem@@@?$allocator@UNewShopPullDownItem@@@std@@QAEXPAUNewShopPullDownItem@@AAU2@@Z DD 0ffffffffH
	DD	FLAT:__unwindfunclet$??$construct@AAUNewShopPullDownItem@@@?$allocator@UNewShopPullDownItem@@@std@@QAEXPAUNewShopPullDownItem@@AAU2@@Z$0
__ehfuncinfo$??$construct@AAUNewShopPullDownItem@@@?$allocator@UNewShopPullDownItem@@@std@@QAEXPAUNewShopPullDownItem@@AAU2@@Z DD 019930522H
	DD	01H
	DD	FLAT:__unwindtable$??$construct@AAUNewShopPullDownItem@@@?$allocator@UNewShopPullDownItem@@@std@@QAEXPAUNewShopPullDownItem@@AAU2@@Z
	DD	2 DUP(00H)
	DD	2 DUP(00H)
	DD	00H
	DD	01H
; Function compile flags: /Ogsp
; File c:\program files (x86)\microsoft visual studio 10.0\vc\include\xmemory
xdata$x	ENDS
;	COMDAT ??$construct@AAUNewShopPullDownItem@@@?$allocator@UNewShopPullDownItem@@@std@@QAEXPAUNewShopPullDownItem@@AAU2@@Z
_TEXT	SEGMENT
$T516120 = -16						; size = 4
__$EHRec$ = -12						; size = 12
__Ptr$ = 8						; size = 4
__Val$ = 12						; size = 4
??$construct@AAUNewShopPullDownItem@@@?$allocator@UNewShopPullDownItem@@@std@@QAEXPAUNewShopPullDownItem@@AAU2@@Z PROC ; std::allocator<NewShopPullDownItem>::construct<NewShopPullDownItem &>, COMDAT
; _this$ = ecx

; 206  : 		void construct(pointer _Ptr, _Other&& _Val)

  00000	6a 04		 push	 4
  00002	b8 00 00 00 00	 mov	 eax, __ehhandler$??$construct@AAUNewShopPullDownItem@@@?$allocator@UNewShopPullDownItem@@@std@@QAEXPAUNewShopPullDownItem@@AAU2@@Z
  00007	e8 00 00 00 00	 call	 __EH_prolog3

; 207  : 		{	// construct object at _Ptr with value _Val
; 208  : 		::new ((void _FARQ *)_Ptr) _Ty(_STD forward<_Other>(_Val));

  0000c	8b 4d 08	 mov	 ecx, DWORD PTR __Ptr$[ebp]
  0000f	89 4d f0	 mov	 DWORD PTR $T516120[ebp], ecx
  00012	83 65 fc 00	 and	 DWORD PTR __$EHRec$[ebp+8], 0
  00016	85 c9		 test	 ecx, ecx
  00018	74 08		 je	 SHORT $LN3@construct@3
  0001a	ff 75 0c	 push	 DWORD PTR __Val$[ebp]
  0001d	e8 00 00 00 00	 call	 ??0NewShopPullDownItem@@QAE@ABU0@@Z
$LN3@construct@3:

; 209  : 		}

  00022	e8 00 00 00 00	 call	 __EH_epilog3
  00027	c2 08 00	 ret	 8
_TEXT	ENDS
;	COMDAT text$x
text$x	SEGMENT
__unwindfunclet$??$construct@AAUNewShopPullDownItem@@@?$allocator@UNewShopPullDownItem@@@std@@QAEXPAUNewShopPullDownItem@@AAU2@@Z$0:
  00000	ff 75 08	 push	 DWORD PTR __Ptr$[ebp]
  00003	ff 75 f0	 push	 DWORD PTR $T516120[ebp]
  00006	e8 00 00 00 00	 call	 ??3@YAXPAX0@Z		; operator delete
  0000b	59		 pop	 ecx
  0000c	59		 pop	 ecx
  0000d	c3		 ret	 0
__ehhandler$??$construct@AAUNewShopPullDownItem@@@?$allocator@UNewShopPullDownItem@@@std@@QAEXPAUNewShopPullDownItem@@AAU2@@Z:
  0000e	8b 54 24 08	 mov	 edx, DWORD PTR [esp+8]
  00012	8d 42 0c	 lea	 eax, DWORD PTR [edx+12]
  00015	8b 4a ec	 mov	 ecx, DWORD PTR [edx-20]
  00018	33 c8		 xor	 ecx, eax
  0001a	e8 00 00 00 00	 call	 @__security_check_cookie@4
  0001f	b8 00 00 00 00	 mov	 eax, OFFSET __ehfuncinfo$??$construct@AAUNewShopPullDownItem@@@?$allocator@UNewShopPullDownItem@@@std@@QAEXPAUNewShopPullDownItem@@AAU2@@Z
  00024	e9 00 00 00 00	 jmp	 ___CxxFrameHandler3
text$x	ENDS
??$construct@AAUNewShopPullDownItem@@@?$allocator@UNewShopPullDownItem@@@std@@QAEXPAUNewShopPullDownItem@@AAU2@@Z ENDP ; std::allocator<NewShopPullDownItem>::construct<NewShopPullDownItem &>
PUBLIC	??$_Move@PAUNewShopPullDownItem@@PAU1@@std@@YAPAUNewShopPullDownItem@@PAU1@00U_Nonscalar_ptr_iterator_tag@0@@Z ; std::_Move<NewShopPullDownItem *,NewShopPullDownItem *>
; Function compile flags: /Ogsp
; File c:\program files (x86)\microsoft visual studio 10.0\vc\include\xutility
;	COMDAT ??$_Move@PAUNewShopPullDownItem@@PAU1@@std@@YAPAUNewShopPullDownItem@@PAU1@00U_Nonscalar_ptr_iterator_tag@0@@Z
_TEXT	SEGMENT
__First$ = 8						; size = 4
__Last$ = 12						; size = 4
__Dest$ = 16						; size = 4
___formal$ = 20						; size = 1
??$_Move@PAUNewShopPullDownItem@@PAU1@@std@@YAPAUNewShopPullDownItem@@PAU1@00U_Nonscalar_ptr_iterator_tag@0@@Z PROC ; std::_Move<NewShopPullDownItem *,NewShopPullDownItem *>, COMDAT

; 2512 : 	{	// move [_First, _Last) to [_Dest, ...), arbitrary iterators

  00000	55		 push	 ebp
  00001	8b ec		 mov	 ebp, esp
  00003	56		 push	 esi

; 2513 : 	for (; _First != _Last; ++_Dest, ++_First)

  00004	8b 75 08	 mov	 esi, DWORD PTR __First$[ebp]
  00007	eb 10		 jmp	 SHORT $LN11@Move
$LL3@Move:

; 2514 : 		*_Dest = _STD move(*_First);

  00009	8b 4d 10	 mov	 ecx, DWORD PTR __Dest$[ebp]
  0000c	56		 push	 esi
  0000d	e8 00 00 00 00	 call	 ??4NewShopPullDownItem@@QAEAAU0@ABU0@@Z
  00012	83 45 10 50	 add	 DWORD PTR __Dest$[ebp], 80 ; 00000050H
  00016	83 c6 50	 add	 esi, 80			; 00000050H
$LN11@Move:

; 2513 : 	for (; _First != _Last; ++_Dest, ++_First)

  00019	3b 75 0c	 cmp	 esi, DWORD PTR __Last$[ebp]
  0001c	75 eb		 jne	 SHORT $LL3@Move

; 2515 : 	return (_Dest);

  0001e	8b 45 10	 mov	 eax, DWORD PTR __Dest$[ebp]
  00021	5e		 pop	 esi

; 2516 : 	}

  00022	5d		 pop	 ebp
  00023	c3		 ret	 0
??$_Move@PAUNewShopPullDownItem@@PAU1@@std@@YAPAUNewShopPullDownItem@@PAU1@00U_Nonscalar_ptr_iterator_tag@0@@Z ENDP ; std::_Move<NewShopPullDownItem *,NewShopPullDownItem *>
_TEXT	ENDS
PUBLIC	??$_Construct@UNewShopPullDownItem@@ABU1@@std@@YAXPAUNewShopPullDownItem@@ABU1@@Z ; std::_Construct<NewShopPullDownItem,NewShopPullDownItem const &>
;	COMDAT xdata$x
; File c:\program files (x86)\microsoft visual studio 10.0\vc\include\utility
xdata$x	SEGMENT
__unwindtable$??$_Construct@UNewShopPullDownItem@@ABU1@@std@@YAXPAUNewShopPullDownItem@@ABU1@@Z DD 0ffffffffH
	DD	FLAT:__unwindfunclet$??$_Construct@UNewShopPullDownItem@@ABU1@@std@@YAXPAUNewShopPullDownItem@@ABU1@@Z$0
__ehfuncinfo$??$_Construct@UNewShopPullDownItem@@ABU1@@std@@YAXPAUNewShopPullDownItem@@ABU1@@Z DD 019930522H
	DD	01H
	DD	FLAT:__unwindtable$??$_Construct@UNewShopPullDownItem@@ABU1@@std@@YAXPAUNewShopPullDownItem@@ABU1@@Z
	DD	2 DUP(00H)
	DD	2 DUP(00H)
	DD	00H
	DD	01H
; Function compile flags: /Ogsp
; File c:\program files (x86)\microsoft visual studio 10.0\vc\include\xmemory
xdata$x	ENDS
;	COMDAT ??$_Construct@UNewShopPullDownItem@@ABU1@@std@@YAXPAUNewShopPullDownItem@@ABU1@@Z
_TEXT	SEGMENT
$T516148 = -16						; size = 4
__$EHRec$ = -12						; size = 12
__Vptr$ = 8						; size = 4
__Ptr$ = 8						; size = 4
__Val$ = 12						; size = 4
??$_Construct@UNewShopPullDownItem@@ABU1@@std@@YAXPAUNewShopPullDownItem@@ABU1@@Z PROC ; std::_Construct<NewShopPullDownItem,NewShopPullDownItem const &>, COMDAT

; 46   : 	{	// construct object at _Ptr with value _Val

  00000	6a 04		 push	 4
  00002	b8 00 00 00 00	 mov	 eax, __ehhandler$??$_Construct@UNewShopPullDownItem@@ABU1@@std@@YAXPAUNewShopPullDownItem@@ABU1@@Z
  00007	e8 00 00 00 00	 call	 __EH_prolog3

; 47   : 	void _FARQ *_Vptr = _Ptr;

  0000c	8b 4d 08	 mov	 ecx, DWORD PTR __Ptr$[ebp]
  0000f	89 4d 08	 mov	 DWORD PTR __Vptr$[ebp], ecx

; 48   : 	::new (_Vptr) _Ty1(_STD forward<_Ty2>(_Val));

  00012	89 4d f0	 mov	 DWORD PTR $T516148[ebp], ecx
  00015	83 65 fc 00	 and	 DWORD PTR __$EHRec$[ebp+8], 0
  00019	85 c9		 test	 ecx, ecx
  0001b	74 08		 je	 SHORT $LN3@Construct@2
  0001d	ff 75 0c	 push	 DWORD PTR __Val$[ebp]
  00020	e8 00 00 00 00	 call	 ??0NewShopPullDownItem@@QAE@ABU0@@Z
$LN3@Construct@2:

; 49   : 	}

  00025	e8 00 00 00 00	 call	 __EH_epilog3
  0002a	c3		 ret	 0
_TEXT	ENDS
;	COMDAT text$x
text$x	SEGMENT
__unwindfunclet$??$_Construct@UNewShopPullDownItem@@ABU1@@std@@YAXPAUNewShopPullDownItem@@ABU1@@Z$0:
  00000	ff 75 08	 push	 DWORD PTR __Vptr$[ebp]
  00003	ff 75 f0	 push	 DWORD PTR $T516148[ebp]
  00006	e8 00 00 00 00	 call	 ??3@YAXPAX0@Z		; operator delete
  0000b	59		 pop	 ecx
  0000c	59		 pop	 ecx
  0000d	c3		 ret	 0
__ehhandler$??$_Construct@UNewShopPullDownItem@@ABU1@@std@@YAXPAUNewShopPullDownItem@@ABU1@@Z:
  0000e	8b 54 24 08	 mov	 edx, DWORD PTR [esp+8]
  00012	8d 42 0c	 lea	 eax, DWORD PTR [edx+12]
  00015	8b 4a ec	 mov	 ecx, DWORD PTR [edx-20]
  00018	33 c8		 xor	 ecx, eax
  0001a	e8 00 00 00 00	 call	 @__security_check_cookie@4
  0001f	b8 00 00 00 00	 mov	 eax, OFFSET __ehfuncinfo$??$_Construct@UNewShopPullDownItem@@ABU1@@std@@YAXPAUNewShopPullDownItem@@ABU1@@Z
  00024	e9 00 00 00 00	 jmp	 ___CxxFrameHandler3
text$x	ENDS
??$_Construct@UNewShopPullDownItem@@ABU1@@std@@YAXPAUNewShopPullDownItem@@ABU1@@Z ENDP ; std::_Construct<NewShopPullDownItem,NewShopPullDownItem const &>
PUBLIC	??$?0AAPAUNewShopPullDownItem@@AAPAU0@@?$pair@PAUNewShopPullDownItem@@PAU1@@std@@QAE@AAPAUNewShopPullDownItem@@0@Z ; std::pair<NewShopPullDownItem *,NewShopPullDownItem *>::pair<NewShopPullDownItem *,NewShopPullDownItem *><NewShopPullDownItem * &,NewShopPullDownItem * &>
; Function compile flags: /Ogsp
; File c:\program files (x86)\microsoft visual studio 10.0\vc\include\utility
;	COMDAT ??$?0AAPAUNewShopPullDownItem@@AAPAU0@@?$pair@PAUNewShopPullDownItem@@PAU1@@std@@QAE@AAPAUNewShopPullDownItem@@0@Z
_TEXT	SEGMENT
__Val1$ = 8						; size = 4
__Val2$ = 12						; size = 4
??$?0AAPAUNewShopPullDownItem@@AAPAU0@@?$pair@PAUNewShopPullDownItem@@PAU1@@std@@QAE@AAPAUNewShopPullDownItem@@0@Z PROC ; std::pair<NewShopPullDownItem *,NewShopPullDownItem *>::pair<NewShopPullDownItem *,NewShopPullDownItem *><NewShopPullDownItem * &,NewShopPullDownItem * &>, COMDAT
; _this$ = ecx

; 247  : 		{	// construct from moved values

  00000	55		 push	 ebp
  00001	8b ec		 mov	 ebp, esp
  00003	8b c1		 mov	 eax, ecx
  00005	8b 4d 08	 mov	 ecx, DWORD PTR __Val1$[ebp]
  00008	8b 09		 mov	 ecx, DWORD PTR [ecx]
  0000a	89 08		 mov	 DWORD PTR [eax], ecx
  0000c	8b 4d 0c	 mov	 ecx, DWORD PTR __Val2$[ebp]
  0000f	8b 09		 mov	 ecx, DWORD PTR [ecx]
  00011	89 48 04	 mov	 DWORD PTR [eax+4], ecx

; 248  : 		}

  00014	5d		 pop	 ebp
  00015	c2 08 00	 ret	 8
??$?0AAPAUNewShopPullDownItem@@AAPAU0@@?$pair@PAUNewShopPullDownItem@@PAU1@@std@@QAE@AAPAUNewShopPullDownItem@@0@Z ENDP ; std::pair<NewShopPullDownItem *,NewShopPullDownItem *>::pair<NewShopPullDownItem *,NewShopPullDownItem *><NewShopPullDownItem * &,NewShopPullDownItem * &>
_TEXT	ENDS
PUBLIC	??$_Destroy@UNewShopPullDownItem@@@std@@YAXPAUNewShopPullDownItem@@@Z ; std::_Destroy<NewShopPullDownItem>
; Function compile flags: /Ogsp
; File c:\program files (x86)\microsoft visual studio 10.0\vc\include\xmemory
;	COMDAT ??$_Destroy@UNewShopPullDownItem@@@std@@YAXPAUNewShopPullDownItem@@@Z
_TEXT	SEGMENT
__Ptr$ = 8						; size = 4
??$_Destroy@UNewShopPullDownItem@@@std@@YAXPAUNewShopPullDownItem@@@Z PROC ; std::_Destroy<NewShopPullDownItem>, COMDAT

; 62   : 	{	// destroy object at _Ptr

  00000	55		 push	 ebp
  00001	8b ec		 mov	 ebp, esp

; 63   : 	_Ptr->~_Ty();

  00003	8b 4d 08	 mov	 ecx, DWORD PTR __Ptr$[ebp]

; 64   : 	}

  00006	5d		 pop	 ebp

; 63   : 	_Ptr->~_Ty();

  00007	e9 00 00 00 00	 jmp	 ??1NewShopPullDownItem@@QAE@XZ
??$_Destroy@UNewShopPullDownItem@@@std@@YAXPAUNewShopPullDownItem@@@Z ENDP ; std::_Destroy<NewShopPullDownItem>
_TEXT	ENDS
PUBLIC	?construct@?$allocator@VioHashString@@@std@@QAEXPAVioHashString@@$$QAV3@@Z ; std::allocator<ioHashString>::construct
;	COMDAT xdata$x
; File c:\program files (x86)\microsoft visual studio 10.0\vc\include\utility
xdata$x	SEGMENT
__unwindtable$?construct@?$allocator@VioHashString@@@std@@QAEXPAVioHashString@@$$QAV3@@Z DD 0ffffffffH
	DD	FLAT:__unwindfunclet$?construct@?$allocator@VioHashString@@@std@@QAEXPAVioHashString@@$$QAV3@@Z$0
__ehfuncinfo$?construct@?$allocator@VioHashString@@@std@@QAEXPAVioHashString@@$$QAV3@@Z DD 019930522H
	DD	01H
	DD	FLAT:__unwindtable$?construct@?$allocator@VioHashString@@@std@@QAEXPAVioHashString@@$$QAV3@@Z
	DD	2 DUP(00H)
	DD	2 DUP(00H)
	DD	00H
	DD	01H
; Function compile flags: /Ogsp
; File c:\program files (x86)\microsoft visual studio 10.0\vc\include\xmemory
xdata$x	ENDS
;	COMDAT ?construct@?$allocator@VioHashString@@@std@@QAEXPAVioHashString@@$$QAV3@@Z
_TEXT	SEGMENT
$T516196 = -16						; size = 4
__$EHRec$ = -12						; size = 12
__Ptr$ = 8						; size = 4
__Val$ = 12						; size = 4
?construct@?$allocator@VioHashString@@@std@@QAEXPAVioHashString@@$$QAV3@@Z PROC ; std::allocator<ioHashString>::construct, COMDAT
; _this$ = ecx

; 201  : 		{	// construct object at _Ptr with value _Val

  00000	6a 04		 push	 4
  00002	b8 00 00 00 00	 mov	 eax, __ehhandler$?construct@?$allocator@VioHashString@@@std@@QAEXPAVioHashString@@$$QAV3@@Z
  00007	e8 00 00 00 00	 call	 __EH_prolog3

; 202  : 		::new ((void _FARQ *)_Ptr) _Ty(_STD forward<_Ty>(_Val));

  0000c	8b 4d 08	 mov	 ecx, DWORD PTR __Ptr$[ebp]
  0000f	89 4d f0	 mov	 DWORD PTR $T516196[ebp], ecx
  00012	83 65 fc 00	 and	 DWORD PTR __$EHRec$[ebp+8], 0
  00016	85 c9		 test	 ecx, ecx
  00018	74 09		 je	 SHORT $LN3@construct@4
  0001a	ff 75 0c	 push	 DWORD PTR __Val$[ebp]
  0001d	ff 15 00 00 00
	00		 call	 DWORD PTR __imp_??0ioHashString@@QAE@ABV0@@Z
$LN3@construct@4:

; 203  : 		}

  00023	e8 00 00 00 00	 call	 __EH_epilog3
  00028	c2 08 00	 ret	 8
_TEXT	ENDS
;	COMDAT text$x
text$x	SEGMENT
__unwindfunclet$?construct@?$allocator@VioHashString@@@std@@QAEXPAVioHashString@@$$QAV3@@Z$0:
  00000	ff 75 08	 push	 DWORD PTR __Ptr$[ebp]
  00003	ff 75 f0	 push	 DWORD PTR $T516196[ebp]
  00006	e8 00 00 00 00	 call	 ??3@YAXPAX0@Z		; operator delete
  0000b	59		 pop	 ecx
  0000c	59		 pop	 ecx
  0000d	c3		 ret	 0
__ehhandler$?construct@?$allocator@VioHashString@@@std@@QAEXPAVioHashString@@$$QAV3@@Z:
  0000e	8b 54 24 08	 mov	 edx, DWORD PTR [esp+8]
  00012	8d 42 0c	 lea	 eax, DWORD PTR [edx+12]
  00015	8b 4a ec	 mov	 ecx, DWORD PTR [edx-20]
  00018	33 c8		 xor	 ecx, eax
  0001a	e8 00 00 00 00	 call	 @__security_check_cookie@4
  0001f	b8 00 00 00 00	 mov	 eax, OFFSET __ehfuncinfo$?construct@?$allocator@VioHashString@@@std@@QAEXPAVioHashString@@$$QAV3@@Z
  00024	e9 00 00 00 00	 jmp	 ___CxxFrameHandler3
text$x	ENDS
?construct@?$allocator@VioHashString@@@std@@QAEXPAVioHashString@@$$QAV3@@Z ENDP ; std::allocator<ioHashString>::construct
PUBLIC	?construct@?$allocator@UNewShopPullDownItem@@@std@@QAEXPAUNewShopPullDownItem@@$$QAU3@@Z ; std::allocator<NewShopPullDownItem>::construct
;	COMDAT xdata$x
; File c:\program files (x86)\microsoft visual studio 10.0\vc\include\utility
xdata$x	SEGMENT
__unwindtable$?construct@?$allocator@UNewShopPullDownItem@@@std@@QAEXPAUNewShopPullDownItem@@$$QAU3@@Z DD 0ffffffffH
	DD	FLAT:__unwindfunclet$?construct@?$allocator@UNewShopPullDownItem@@@std@@QAEXPAUNewShopPullDownItem@@$$QAU3@@Z$0
__ehfuncinfo$?construct@?$allocator@UNewShopPullDownItem@@@std@@QAEXPAUNewShopPullDownItem@@$$QAU3@@Z DD 019930522H
	DD	01H
	DD	FLAT:__unwindtable$?construct@?$allocator@UNewShopPullDownItem@@@std@@QAEXPAUNewShopPullDownItem@@$$QAU3@@Z
	DD	2 DUP(00H)
	DD	2 DUP(00H)
	DD	00H
	DD	01H
; Function compile flags: /Ogsp
; File c:\program files (x86)\microsoft visual studio 10.0\vc\include\xmemory
xdata$x	ENDS
;	COMDAT ?construct@?$allocator@UNewShopPullDownItem@@@std@@QAEXPAUNewShopPullDownItem@@$$QAU3@@Z
_TEXT	SEGMENT
$T516215 = -16						; size = 4
__$EHRec$ = -12						; size = 12
__Ptr$ = 8						; size = 4
__Val$ = 12						; size = 4
?construct@?$allocator@UNewShopPullDownItem@@@std@@QAEXPAUNewShopPullDownItem@@$$QAU3@@Z PROC ; std::allocator<NewShopPullDownItem>::construct, COMDAT
; _this$ = ecx

; 201  : 		{	// construct object at _Ptr with value _Val

  00000	6a 04		 push	 4
  00002	b8 00 00 00 00	 mov	 eax, __ehhandler$?construct@?$allocator@UNewShopPullDownItem@@@std@@QAEXPAUNewShopPullDownItem@@$$QAU3@@Z
  00007	e8 00 00 00 00	 call	 __EH_prolog3

; 202  : 		::new ((void _FARQ *)_Ptr) _Ty(_STD forward<_Ty>(_Val));

  0000c	8b 4d 08	 mov	 ecx, DWORD PTR __Ptr$[ebp]
  0000f	89 4d f0	 mov	 DWORD PTR $T516215[ebp], ecx
  00012	83 65 fc 00	 and	 DWORD PTR __$EHRec$[ebp+8], 0
  00016	85 c9		 test	 ecx, ecx
  00018	74 08		 je	 SHORT $LN3@construct@5
  0001a	ff 75 0c	 push	 DWORD PTR __Val$[ebp]
  0001d	e8 00 00 00 00	 call	 ??0NewShopPullDownItem@@QAE@ABU0@@Z
$LN3@construct@5:

; 203  : 		}

  00022	e8 00 00 00 00	 call	 __EH_epilog3
  00027	c2 08 00	 ret	 8
_TEXT	ENDS
;	COMDAT text$x
text$x	SEGMENT
__unwindfunclet$?construct@?$allocator@UNewShopPullDownItem@@@std@@QAEXPAUNewShopPullDownItem@@$$QAU3@@Z$0:
  00000	ff 75 08	 push	 DWORD PTR __Ptr$[ebp]
  00003	ff 75 f0	 push	 DWORD PTR $T516215[ebp]
  00006	e8 00 00 00 00	 call	 ??3@YAXPAX0@Z		; operator delete
  0000b	59		 pop	 ecx
  0000c	59		 pop	 ecx
  0000d	c3		 ret	 0
__ehhandler$?construct@?$allocator@UNewShopPullDownItem@@@std@@QAEXPAUNewShopPullDownItem@@$$QAU3@@Z:
  0000e	8b 54 24 08	 mov	 edx, DWORD PTR [esp+8]
  00012	8d 42 0c	 lea	 eax, DWORD PTR [edx+12]
  00015	8b 4a ec	 mov	 ecx, DWORD PTR [edx-20]
  00018	33 c8		 xor	 ecx, eax
  0001a	e8 00 00 00 00	 call	 @__security_check_cookie@4
  0001f	b8 00 00 00 00	 mov	 eax, OFFSET __ehfuncinfo$?construct@?$allocator@UNewShopPullDownItem@@@std@@QAEXPAUNewShopPullDownItem@@$$QAU3@@Z
  00024	e9 00 00 00 00	 jmp	 ___CxxFrameHandler3
text$x	ENDS
?construct@?$allocator@UNewShopPullDownItem@@@std@@QAEXPAUNewShopPullDownItem@@$$QAU3@@Z ENDP ; std::allocator<NewShopPullDownItem>::construct
PUBLIC	??$swap@UNewShopPullDownItem@@@std@@YAXAAUNewShopPullDownItem@@0@Z ; std::swap<NewShopPullDownItem>
;	COMDAT xdata$x
; File c:\program files (x86)\microsoft visual studio 10.0\vc\include\utility
xdata$x	SEGMENT
__unwindtable$??$swap@UNewShopPullDownItem@@@std@@YAXAAUNewShopPullDownItem@@0@Z DD 0ffffffffH
	DD	FLAT:__unwindfunclet$??$swap@UNewShopPullDownItem@@@std@@YAXAAUNewShopPullDownItem@@0@Z$0
__ehfuncinfo$??$swap@UNewShopPullDownItem@@@std@@YAXAAUNewShopPullDownItem@@0@Z DD 019930522H
	DD	01H
	DD	FLAT:__unwindtable$??$swap@UNewShopPullDownItem@@@std@@YAXAAUNewShopPullDownItem@@0@Z
	DD	2 DUP(00H)
	DD	2 DUP(00H)
	DD	00H
	DD	01H
; Function compile flags: /Ogsp
xdata$x	ENDS
;	COMDAT ??$swap@UNewShopPullDownItem@@@std@@YAXAAUNewShopPullDownItem@@0@Z
_TEXT	SEGMENT
__Tmp$ = -92						; size = 80
__$EHRec$ = -12						; size = 12
__Left$ = 8						; size = 4
__Right$ = 12						; size = 4
??$swap@UNewShopPullDownItem@@@std@@YAXAAUNewShopPullDownItem@@0@Z PROC ; std::swap<NewShopPullDownItem>, COMDAT

; 101  : 	{	// exchange values stored at _Left and _Right

  00000	6a 50		 push	 80			; 00000050H
  00002	b8 00 00 00 00	 mov	 eax, __ehhandler$??$swap@UNewShopPullDownItem@@@std@@YAXAAUNewShopPullDownItem@@0@Z
  00007	e8 00 00 00 00	 call	 __EH_prolog3

; 102  : 	_Ty _Tmp = _Move(_Left);

  0000c	ff 75 08	 push	 DWORD PTR __Left$[ebp]
  0000f	8d 4d a4	 lea	 ecx, DWORD PTR __Tmp$[ebp]
  00012	e8 00 00 00 00	 call	 ??0NewShopPullDownItem@@QAE@ABU0@@Z

; 103  : 	_Left = _Move(_Right);

  00017	ff 75 0c	 push	 DWORD PTR __Right$[ebp]
  0001a	8b 4d 08	 mov	 ecx, DWORD PTR __Left$[ebp]
  0001d	83 65 fc 00	 and	 DWORD PTR __$EHRec$[ebp+8], 0
  00021	e8 00 00 00 00	 call	 ??4NewShopPullDownItem@@QAEAAU0@ABU0@@Z

; 104  : 	_Right = _Move(_Tmp);

  00026	8b 4d 0c	 mov	 ecx, DWORD PTR __Right$[ebp]
  00029	8d 45 a4	 lea	 eax, DWORD PTR __Tmp$[ebp]
  0002c	50		 push	 eax
  0002d	e8 00 00 00 00	 call	 ??4NewShopPullDownItem@@QAEAAU0@ABU0@@Z

; 105  : 	}

  00032	83 4d fc ff	 or	 DWORD PTR __$EHRec$[ebp+8], -1
  00036	8d 4d a4	 lea	 ecx, DWORD PTR __Tmp$[ebp]
  00039	e8 00 00 00 00	 call	 ??1NewShopPullDownItem@@QAE@XZ
  0003e	e8 00 00 00 00	 call	 __EH_epilog3
  00043	c3		 ret	 0
_TEXT	ENDS
;	COMDAT text$x
text$x	SEGMENT
__unwindfunclet$??$swap@UNewShopPullDownItem@@@std@@YAXAAUNewShopPullDownItem@@0@Z$0:
  00000	8d 4d a4	 lea	 ecx, DWORD PTR __Tmp$[ebp]
  00003	e9 00 00 00 00	 jmp	 ??1NewShopPullDownItem@@QAE@XZ
__ehhandler$??$swap@UNewShopPullDownItem@@@std@@YAXAAUNewShopPullDownItem@@0@Z:
  00008	8b 54 24 08	 mov	 edx, DWORD PTR [esp+8]
  0000c	8d 42 0c	 lea	 eax, DWORD PTR [edx+12]
  0000f	8b 4a a0	 mov	 ecx, DWORD PTR [edx-96]
  00012	33 c8		 xor	 ecx, eax
  00014	e8 00 00 00 00	 call	 @__security_check_cookie@4
  00019	b8 00 00 00 00	 mov	 eax, OFFSET __ehfuncinfo$??$swap@UNewShopPullDownItem@@@std@@YAXAAUNewShopPullDownItem@@0@Z
  0001e	e9 00 00 00 00	 jmp	 ___CxxFrameHandler3
text$x	ENDS
??$swap@UNewShopPullDownItem@@@std@@YAXAAUNewShopPullDownItem@@0@Z ENDP ; std::swap<NewShopPullDownItem>
PUBLIC	??$_Adjust_heap@PAUNewShopPullDownItem@@HU1@VSoldierSort@InvenFourExtraCompoundBuyWnd@@@std@@YAXPAUNewShopPullDownItem@@HH$$QAU1@VSoldierSort@InvenFourExtraCompoundBuyWnd@@@Z ; std::_Adjust_heap<NewShopPullDownItem *,int,NewShopPullDownItem,InvenFourExtraCompoundBuyWnd::SoldierSort>
; Function compile flags: /Ogsp
; File c:\program files (x86)\microsoft visual studio 10.0\vc\include\algorithm
;	COMDAT ??$_Adjust_heap@PAUNewShopPullDownItem@@HU1@VSoldierSort@InvenFourExtraCompoundBuyWnd@@@std@@YAXPAUNewShopPullDownItem@@HH$$QAU1@VSoldierSort@InvenFourExtraCompoundBuyWnd@@@Z
_TEXT	SEGMENT
__First$ = 8						; size = 4
__Top$ = 12						; size = 4
__Hole$ = 12						; size = 4
__Bottom$ = 16						; size = 4
__Val$ = 20						; size = 4
__Pred$ = 24						; size = 1
??$_Adjust_heap@PAUNewShopPullDownItem@@HU1@VSoldierSort@InvenFourExtraCompoundBuyWnd@@@std@@YAXPAUNewShopPullDownItem@@HH$$QAU1@VSoldierSort@InvenFourExtraCompoundBuyWnd@@@Z PROC ; std::_Adjust_heap<NewShopPullDownItem *,int,NewShopPullDownItem,InvenFourExtraCompoundBuyWnd::SoldierSort>, COMDAT

; 2565 : 	{	// percolate _Hole to _Bottom, then push _Val, using _Pred

  00000	55		 push	 ebp
  00001	8b ec		 mov	 ebp, esp
  00003	53		 push	 ebx

; 2566 : 	_Diff _Top = _Hole;
; 2567 : 	_Diff _Idx = 2 * _Hole + 2;
; 2568 : 
; 2569 : 	for (; _Idx < _Bottom; _Idx = 2 * _Idx + 2)

  00004	8b 5d 08	 mov	 ebx, DWORD PTR __First$[ebp]
  00007	56		 push	 esi
  00008	57		 push	 edi
  00009	8b 7d 0c	 mov	 edi, DWORD PTR __Hole$[ebp]
  0000c	89 7d 0c	 mov	 DWORD PTR __Top$[ebp], edi
  0000f	8d 74 3f 02	 lea	 esi, DWORD PTR [edi+edi+2]
  00013	eb 33		 jmp	 SHORT $LN16@Adjust_hea
$LL5@Adjust_hea:

; 2570 : 		{	// move _Hole down to larger child
; 2571 : 		if (_DEBUG_LT_PRED(_Pred, *(_First + _Idx), *(_First + (_Idx - 1))))

  00015	8b c6		 mov	 eax, esi
  00017	6b c0 50	 imul	 eax, 80			; 00000050H
  0001a	03 c3		 add	 eax, ebx
  0001c	8d 48 b0	 lea	 ecx, DWORD PTR [eax-80]
  0001f	51		 push	 ecx
  00020	50		 push	 eax
  00021	8d 4d 18	 lea	 ecx, DWORD PTR __Pred$[ebp]
  00024	e8 00 00 00 00	 call	 ??RSoldierSort@InvenFourExtraCompoundBuyWnd@@QBE_NABUNewShopPullDownItem@@0@Z ; InvenFourExtraCompoundBuyWnd::SoldierSort::operator()
  00029	84 c0		 test	 al, al
  0002b	74 01		 je	 SHORT $LN2@Adjust_hea

; 2572 : 			--_Idx;

  0002d	4e		 dec	 esi
$LN2@Adjust_hea:

; 2573 : 		*(_First + _Hole) = _Move(*(_First + _Idx));

  0002e	8b c6		 mov	 eax, esi
  00030	6b c0 50	 imul	 eax, 80			; 00000050H
  00033	8b cf		 mov	 ecx, edi
  00035	6b c9 50	 imul	 ecx, 80			; 00000050H
  00038	03 c3		 add	 eax, ebx
  0003a	50		 push	 eax
  0003b	03 cb		 add	 ecx, ebx
  0003d	e8 00 00 00 00	 call	 ??4NewShopPullDownItem@@QAEAAU0@ABU0@@Z

; 2574 : 		_Hole = _Idx;

  00042	8b fe		 mov	 edi, esi
  00044	8d 74 36 02	 lea	 esi, DWORD PTR [esi+esi+2]
$LN16@Adjust_hea:

; 2566 : 	_Diff _Top = _Hole;
; 2567 : 	_Diff _Idx = 2 * _Hole + 2;
; 2568 : 
; 2569 : 	for (; _Idx < _Bottom; _Idx = 2 * _Idx + 2)

  00048	3b 75 10	 cmp	 esi, DWORD PTR __Bottom$[ebp]
  0004b	7c c8		 jl	 SHORT $LL5@Adjust_hea

; 2575 : 		}
; 2576 : 
; 2577 : 	if (_Idx == _Bottom)

  0004d	75 1b		 jne	 SHORT $LN1@Adjust_hea

; 2578 : 		{	// only child at bottom, move _Hole down to it
; 2579 : 		*(_First + _Hole) = _Move(*(_First + (_Bottom - 1)));

  0004f	8b 45 10	 mov	 eax, DWORD PTR __Bottom$[ebp]
  00052	6b c0 50	 imul	 eax, 80			; 00000050H
  00055	8b cf		 mov	 ecx, edi
  00057	6b c9 50	 imul	 ecx, 80			; 00000050H
  0005a	8d 44 18 b0	 lea	 eax, DWORD PTR [eax+ebx-80]
  0005e	50		 push	 eax
  0005f	03 cb		 add	 ecx, ebx
  00061	e8 00 00 00 00	 call	 ??4NewShopPullDownItem@@QAEAAU0@ABU0@@Z

; 2580 : 		_Hole = _Bottom - 1;

  00066	8b 7d 10	 mov	 edi, DWORD PTR __Bottom$[ebp]
  00069	4f		 dec	 edi
$LN1@Adjust_hea:

; 2581 : 		}
; 2582 : 	_Push_heap(_First, _Hole, _Top, _Move(_Val), _Pred);

  0006a	ff 75 18	 push	 DWORD PTR __Pred$[ebp]
  0006d	ff 75 14	 push	 DWORD PTR __Val$[ebp]
  00070	ff 75 0c	 push	 DWORD PTR __Top$[ebp]
  00073	57		 push	 edi
  00074	53		 push	 ebx
  00075	e8 00 00 00 00	 call	 ??$_Push_heap@PAUNewShopPullDownItem@@HU1@VSoldierSort@InvenFourExtraCompoundBuyWnd@@@std@@YAXPAUNewShopPullDownItem@@HH$$QAU1@VSoldierSort@InvenFourExtraCompoundBuyWnd@@@Z ; std::_Push_heap<NewShopPullDownItem *,int,NewShopPullDownItem,InvenFourExtraCompoundBuyWnd::SoldierSort>
  0007a	83 c4 14	 add	 esp, 20			; 00000014H
  0007d	5f		 pop	 edi
  0007e	5e		 pop	 esi
  0007f	5b		 pop	 ebx

; 2583 : 	}

  00080	5d		 pop	 ebp
  00081	c3		 ret	 0
??$_Adjust_heap@PAUNewShopPullDownItem@@HU1@VSoldierSort@InvenFourExtraCompoundBuyWnd@@@std@@YAXPAUNewShopPullDownItem@@HH$$QAU1@VSoldierSort@InvenFourExtraCompoundBuyWnd@@@Z ENDP ; std::_Adjust_heap<NewShopPullDownItem *,int,NewShopPullDownItem,InvenFourExtraCompoundBuyWnd::SoldierSort>
_TEXT	ENDS
PUBLIC	??$_Move_backward@PAUNewShopPullDownItem@@PAU1@@std@@YAPAUNewShopPullDownItem@@PAU1@00@Z ; std::_Move_backward<NewShopPullDownItem *,NewShopPullDownItem *>
; Function compile flags: /Ogsp
; File c:\program files (x86)\microsoft visual studio 10.0\vc\include\xutility
;	COMDAT ??$_Move_backward@PAUNewShopPullDownItem@@PAU1@@std@@YAPAUNewShopPullDownItem@@PAU1@00@Z
_TEXT	SEGMENT
__Cat$516268 = -4					; size = 1
__First$ = 8						; size = 4
__Last$ = 12						; size = 4
__Dest$ = 16						; size = 4
??$_Move_backward@PAUNewShopPullDownItem@@PAU1@@std@@YAPAUNewShopPullDownItem@@PAU1@00@Z PROC ; std::_Move_backward<NewShopPullDownItem *,NewShopPullDownItem *>, COMDAT

; 2638 : 	{	// move [_First, _Last) backwards to [..., _Dest), unchecked

  00000	55		 push	 ebp
  00001	8b ec		 mov	 ebp, esp
  00003	51		 push	 ecx

; 2639 : 	return (_Move_backward(_First, _Last,
; 2640 : 		_Dest, _Ptr_cat(_First, _Dest)));

  00004	ff 75 fc	 push	 DWORD PTR __Cat$516268[ebp]
  00007	ff 75 10	 push	 DWORD PTR __Dest$[ebp]
  0000a	ff 75 0c	 push	 DWORD PTR __Last$[ebp]
  0000d	ff 75 08	 push	 DWORD PTR __First$[ebp]
  00010	e8 00 00 00 00	 call	 ??$_Move_backward@PAUNewShopPullDownItem@@PAU1@@std@@YAPAUNewShopPullDownItem@@PAU1@00U_Nonscalar_ptr_iterator_tag@0@@Z ; std::_Move_backward<NewShopPullDownItem *,NewShopPullDownItem *>
  00015	83 c4 10	 add	 esp, 16			; 00000010H

; 2641 : 	}

  00018	c9		 leave
  00019	c3		 ret	 0
??$_Move_backward@PAUNewShopPullDownItem@@PAU1@@std@@YAPAUNewShopPullDownItem@@PAU1@00@Z ENDP ; std::_Move_backward<NewShopPullDownItem *,NewShopPullDownItem *>
_TEXT	ENDS
PUBLIC	??$_Pop_heap@PAUNewShopPullDownItem@@HU1@VSoldierSort@InvenFourExtraCompoundBuyWnd@@@std@@YAXPAUNewShopPullDownItem@@00$$QAU1@VSoldierSort@InvenFourExtraCompoundBuyWnd@@PAH@Z ; std::_Pop_heap<NewShopPullDownItem *,int,NewShopPullDownItem,InvenFourExtraCompoundBuyWnd::SoldierSort>
; Function compile flags: /Ogsp
; File c:\program files (x86)\microsoft visual studio 10.0\vc\include\algorithm
;	COMDAT ??$_Pop_heap@PAUNewShopPullDownItem@@HU1@VSoldierSort@InvenFourExtraCompoundBuyWnd@@@std@@YAXPAUNewShopPullDownItem@@00$$QAU1@VSoldierSort@InvenFourExtraCompoundBuyWnd@@PAH@Z
_TEXT	SEGMENT
__First$ = 8						; size = 4
__Last$ = 12						; size = 4
__Dest$ = 16						; size = 4
__Val$ = 20						; size = 4
__Pred$ = 24						; size = 1
___formal$ = 28						; size = 4
??$_Pop_heap@PAUNewShopPullDownItem@@HU1@VSoldierSort@InvenFourExtraCompoundBuyWnd@@@std@@YAXPAUNewShopPullDownItem@@00$$QAU1@VSoldierSort@InvenFourExtraCompoundBuyWnd@@PAH@Z PROC ; std::_Pop_heap<NewShopPullDownItem *,int,NewShopPullDownItem,InvenFourExtraCompoundBuyWnd::SoldierSort>, COMDAT

; 2591 : 	{	// pop *_First to *_Dest and reheap, using _Pred

  00000	55		 push	 ebp
  00001	8b ec		 mov	 ebp, esp

; 2592 : 	*_Dest = _Move(*_First);

  00003	ff 75 08	 push	 DWORD PTR __First$[ebp]
  00006	8b 4d 10	 mov	 ecx, DWORD PTR __Dest$[ebp]
  00009	e8 00 00 00 00	 call	 ??4NewShopPullDownItem@@QAEAAU0@ABU0@@Z

; 2593 : 	_Adjust_heap(_First, _Diff(0), _Diff(_Last - _First),
; 2594 : 		_Move(_Val), _Pred);

  0000e	ff 75 18	 push	 DWORD PTR __Pred$[ebp]
  00011	8b 45 0c	 mov	 eax, DWORD PTR __Last$[ebp]
  00014	ff 75 14	 push	 DWORD PTR __Val$[ebp]
  00017	2b 45 08	 sub	 eax, DWORD PTR __First$[ebp]
  0001a	6a 50		 push	 80			; 00000050H
  0001c	59		 pop	 ecx
  0001d	99		 cdq
  0001e	f7 f9		 idiv	 ecx
  00020	50		 push	 eax
  00021	6a 00		 push	 0
  00023	ff 75 08	 push	 DWORD PTR __First$[ebp]
  00026	e8 00 00 00 00	 call	 ??$_Adjust_heap@PAUNewShopPullDownItem@@HU1@VSoldierSort@InvenFourExtraCompoundBuyWnd@@@std@@YAXPAUNewShopPullDownItem@@HH$$QAU1@VSoldierSort@InvenFourExtraCompoundBuyWnd@@@Z ; std::_Adjust_heap<NewShopPullDownItem *,int,NewShopPullDownItem,InvenFourExtraCompoundBuyWnd::SoldierSort>
  0002b	83 c4 14	 add	 esp, 20			; 00000014H

; 2595 : 	}

  0002e	5d		 pop	 ebp
  0002f	c3		 ret	 0
??$_Pop_heap@PAUNewShopPullDownItem@@HU1@VSoldierSort@InvenFourExtraCompoundBuyWnd@@@std@@YAXPAUNewShopPullDownItem@@00$$QAU1@VSoldierSort@InvenFourExtraCompoundBuyWnd@@PAH@Z ENDP ; std::_Pop_heap<NewShopPullDownItem *,int,NewShopPullDownItem,InvenFourExtraCompoundBuyWnd::SoldierSort>
_TEXT	ENDS
PUBLIC	?StringCbPrintfA@@YAJPADIPBDZZ			; StringCbPrintfA
; Function compile flags: /Ogsp
; File c:\program files (x86)\microsoft sdks\windows\v7.0a\include\strsafe.h
;	COMDAT ?StringCbPrintfA@@YAJPADIPBDZZ
_TEXT	SEGMENT
_pszDest$ = 8						; size = 4
_cbDest$ = 12						; size = 4
_pszFormat$ = 16					; size = 4
?StringCbPrintfA@@YAJPADIPBDZZ PROC			; StringCbPrintfA, COMDAT

; 4767 : {

  00000	55		 push	 ebp
  00001	8b ec		 mov	 ebp, esp

; 4768 :     HRESULT hr;
; 4769 :     size_t cchDest = cbDest / sizeof(char);
; 4770 : 
; 4771 :     hr = StringValidateDestA(pszDest, cchDest, STRSAFE_MAX_CCH);

  00003	8b 4d 0c	 mov	 ecx, DWORD PTR _cbDest$[ebp]
  00006	33 c0		 xor	 eax, eax
  00008	85 c9		 test	 ecx, ecx
  0000a	74 08		 je	 SHORT $LN4@StringCbPr
  0000c	81 f9 ff ff ff
	7f		 cmp	 ecx, 2147483647		; 7fffffffH
  00012	76 05		 jbe	 SHORT $LN5@StringCbPr
$LN4@StringCbPr:
  00014	b8 57 00 07 80	 mov	 eax, -2147024809	; 80070057H
$LN5@StringCbPr:

; 4772 :     
; 4773 :     if (SUCCEEDED(hr))

  00019	85 c0		 test	 eax, eax
  0001b	78 39		 js	 SHORT $LN1@StringCbPr

; 4774 :     {
; 4775 :         va_list argList;
; 4776 : 
; 4777 :         va_start(argList, pszFormat);
; 4778 : 
; 4779 :         hr = StringVPrintfWorkerA(pszDest,
; 4780 :                                   cchDest,
; 4781 :                                   NULL,
; 4782 :                                   pszFormat,
; 4783 :                                   argList);

  0001d	53		 push	 ebx
  0001e	56		 push	 esi
  0001f	57		 push	 edi
  00020	8b 7d 08	 mov	 edi, DWORD PTR _pszDest$[ebp]
  00023	8d 45 14	 lea	 eax, DWORD PTR _pszFormat$[ebp+4]
  00026	50		 push	 eax
  00027	ff 75 10	 push	 DWORD PTR _pszFormat$[ebp]
  0002a	8d 71 ff	 lea	 esi, DWORD PTR [ecx-1]
  0002d	56		 push	 esi
  0002e	57		 push	 edi
  0002f	33 db		 xor	 ebx, ebx
  00031	ff 15 00 00 00
	00		 call	 DWORD PTR __imp___vsnprintf
  00037	83 c4 10	 add	 esp, 16			; 00000010H
  0003a	85 c0		 test	 eax, eax
  0003c	78 0b		 js	 SHORT $LN12@StringCbPr
  0003e	3b c6		 cmp	 eax, esi
  00040	77 07		 ja	 SHORT $LN12@StringCbPr
  00042	75 0d		 jne	 SHORT $LN9@StringCbPr
  00044	88 1c 3e	 mov	 BYTE PTR [esi+edi], bl
  00047	eb 08		 jmp	 SHORT $LN9@StringCbPr
$LN12@StringCbPr:
  00049	88 1c 3e	 mov	 BYTE PTR [esi+edi], bl
  0004c	bb 7a 00 07 80	 mov	 ebx, -2147024774	; 8007007aH
$LN9@StringCbPr:
  00051	5f		 pop	 edi
  00052	5e		 pop	 esi
  00053	8b c3		 mov	 eax, ebx
  00055	5b		 pop	 ebx
$LN1@StringCbPr:

; 4784 : 
; 4785 :         va_end(argList);
; 4786 :     }
; 4787 : 
; 4788 :     return hr;
; 4789 : }

  00056	5d		 pop	 ebp
  00057	c3		 ret	 0
?StringCbPrintfA@@YAJPADIPBDZZ ENDP			; StringCbPrintfA
_TEXT	ENDS
PUBLIC	??1CHARACTER@@QAE@XZ				; CHARACTER::~CHARACTER
EXTRN	??_M@YGXPAXIHP6EX0@Z@Z:PROC			; `eh vector destructor iterator'
;	COMDAT xdata$x
xdata$x	SEGMENT
__ehfuncinfo$??1CHARACTER@@QAE@XZ DD 019930522H
	DD	0aH
	DD	FLAT:__unwindtable$??1CHARACTER@@QAE@XZ
	DD	2 DUP(00H)
	DD	2 DUP(00H)
	DD	00H
	DD	01H
__unwindtable$??1CHARACTER@@QAE@XZ DD 0ffffffffH
	DD	FLAT:__unwindfunclet$??1CHARACTER@@QAE@XZ$0
	DD	00H
	DD	FLAT:__unwindfunclet$??1CHARACTER@@QAE@XZ$1
	DD	01H
	DD	FLAT:__unwindfunclet$??1CHARACTER@@QAE@XZ$2
	DD	02H
	DD	FLAT:__unwindfunclet$??1CHARACTER@@QAE@XZ$3
	DD	03H
	DD	FLAT:__unwindfunclet$??1CHARACTER@@QAE@XZ$4
	DD	04H
	DD	FLAT:__unwindfunclet$??1CHARACTER@@QAE@XZ$5
	DD	05H
	DD	FLAT:__unwindfunclet$??1CHARACTER@@QAE@XZ$6
	DD	06H
	DD	FLAT:__unwindfunclet$??1CHARACTER@@QAE@XZ$7
	DD	07H
	DD	FLAT:__unwindfunclet$??1CHARACTER@@QAE@XZ$8
	DD	08H
	DD	FLAT:__unwindfunclet$??1CHARACTER@@QAE@XZ$9
; Function compile flags: /Ogsp
xdata$x	ENDS
;	COMDAT ??1CHARACTER@@QAE@XZ
_TEXT	SEGMENT
_this$ = -16						; size = 4
__$EHRec$ = -12						; size = 12
??1CHARACTER@@QAE@XZ PROC				; CHARACTER::~CHARACTER, COMDAT
; _this$ = ecx
  00000	6a 04		 push	 4
  00002	b8 00 00 00 00	 mov	 eax, __ehhandler$??1CHARACTER@@QAE@XZ
  00007	e8 00 00 00 00	 call	 __EH_prolog3
  0000c	8b f1		 mov	 esi, ecx
  0000e	89 75 f0	 mov	 DWORD PTR _this$[ebp], esi
  00011	68 00 00 00 00	 push	 OFFSET ??1?$CEncrypt@H@@UAE@XZ ; CEncrypt<int>::~CEncrypt<int>
  00016	6a 04		 push	 4
  00018	6a 30		 push	 48			; 00000030H
  0001a	8d 86 e0 01 00
	00		 lea	 eax, DWORD PTR [esi+480]
  00020	50		 push	 eax
  00021	c7 45 fc 09 00
	00 00		 mov	 DWORD PTR __$EHRec$[ebp+8], 9
  00028	e8 00 00 00 00	 call	 ??_M@YGXPAXIHP6EX0@Z@Z
  0002d	bf 00 00 00 00	 mov	 edi, OFFSET ??_7?$CEncrypt@H@@6B@
  00032	8d 8e bc 01 00
	00		 lea	 ecx, DWORD PTR [esi+444]
  00038	c6 45 fc 08	 mov	 BYTE PTR __$EHRec$[ebp+8], 8
  0003c	89 be b0 01 00
	00		 mov	 DWORD PTR [esi+432], edi
  00042	e8 00 00 00 00	 call	 ??1ccddaabb@@UAE@XZ	; ccddaabb::~ccddaabb
  00047	8d 8e 8c 01 00
	00		 lea	 ecx, DWORD PTR [esi+396]
  0004d	c6 45 fc 07	 mov	 BYTE PTR __$EHRec$[ebp+8], 7
  00051	89 be 80 01 00
	00		 mov	 DWORD PTR [esi+384], edi
  00057	e8 00 00 00 00	 call	 ??1ccddaabb@@UAE@XZ	; ccddaabb::~ccddaabb
  0005c	8d 8e 5c 01 00
	00		 lea	 ecx, DWORD PTR [esi+348]
  00062	c6 45 fc 06	 mov	 BYTE PTR __$EHRec$[ebp+8], 6
  00066	89 be 50 01 00
	00		 mov	 DWORD PTR [esi+336], edi
  0006c	e8 00 00 00 00	 call	 ??1ccddaabb@@UAE@XZ	; ccddaabb::~ccddaabb
  00071	8d 8e 2c 01 00
	00		 lea	 ecx, DWORD PTR [esi+300]
  00077	c6 45 fc 05	 mov	 BYTE PTR __$EHRec$[ebp+8], 5
  0007b	89 be 20 01 00
	00		 mov	 DWORD PTR [esi+288], edi
  00081	e8 00 00 00 00	 call	 ??1ccddaabb@@UAE@XZ	; ccddaabb::~ccddaabb
  00086	8d 8e fc 00 00
	00		 lea	 ecx, DWORD PTR [esi+252]
  0008c	c6 45 fc 04	 mov	 BYTE PTR __$EHRec$[ebp+8], 4
  00090	89 be f0 00 00
	00		 mov	 DWORD PTR [esi+240], edi
  00096	e8 00 00 00 00	 call	 ??1ccddaabb@@UAE@XZ	; ccddaabb::~ccddaabb
  0009b	8d 8e cc 00 00
	00		 lea	 ecx, DWORD PTR [esi+204]
  000a1	c6 45 fc 03	 mov	 BYTE PTR __$EHRec$[ebp+8], 3
  000a5	89 be c0 00 00
	00		 mov	 DWORD PTR [esi+192], edi
  000ab	e8 00 00 00 00	 call	 ??1ccddaabb@@UAE@XZ	; ccddaabb::~ccddaabb
  000b0	8d 8e 9c 00 00
	00		 lea	 ecx, DWORD PTR [esi+156]
  000b6	c6 45 fc 02	 mov	 BYTE PTR __$EHRec$[ebp+8], 2
  000ba	89 be 90 00 00
	00		 mov	 DWORD PTR [esi+144], edi
  000c0	e8 00 00 00 00	 call	 ??1ccddaabb@@UAE@XZ	; ccddaabb::~ccddaabb
  000c5	8d 4e 6c	 lea	 ecx, DWORD PTR [esi+108]
  000c8	c6 45 fc 01	 mov	 BYTE PTR __$EHRec$[ebp+8], 1
  000cc	89 7e 60	 mov	 DWORD PTR [esi+96], edi
  000cf	e8 00 00 00 00	 call	 ??1ccddaabb@@UAE@XZ	; ccddaabb::~ccddaabb
  000d4	8d 4e 3c	 lea	 ecx, DWORD PTR [esi+60]
  000d7	c6 45 fc 00	 mov	 BYTE PTR __$EHRec$[ebp+8], 0
  000db	89 7e 30	 mov	 DWORD PTR [esi+48], edi
  000de	e8 00 00 00 00	 call	 ??1ccddaabb@@UAE@XZ	; ccddaabb::~ccddaabb
  000e3	83 4d fc ff	 or	 DWORD PTR __$EHRec$[ebp+8], -1
  000e7	8d 4e 0c	 lea	 ecx, DWORD PTR [esi+12]
  000ea	89 3e		 mov	 DWORD PTR [esi], edi
  000ec	e8 00 00 00 00	 call	 ??1ccddaabb@@UAE@XZ	; ccddaabb::~ccddaabb
  000f1	e8 00 00 00 00	 call	 __EH_epilog3
  000f6	c3		 ret	 0
_TEXT	ENDS
;	COMDAT text$x
text$x	SEGMENT
__unwindfunclet$??1CHARACTER@@QAE@XZ$0:
  00000	8b 4d f0	 mov	 ecx, DWORD PTR _this$[ebp]
  00003	e9 00 00 00 00	 jmp	 ??1?$CEncrypt@H@@UAE@XZ	; CEncrypt<int>::~CEncrypt<int>
__unwindfunclet$??1CHARACTER@@QAE@XZ$1:
  00008	8b 4d f0	 mov	 ecx, DWORD PTR _this$[ebp]
  0000b	83 c1 30	 add	 ecx, 48			; 00000030H
  0000e	e9 00 00 00 00	 jmp	 ??1?$CEncrypt@H@@UAE@XZ	; CEncrypt<int>::~CEncrypt<int>
__unwindfunclet$??1CHARACTER@@QAE@XZ$2:
  00013	8b 4d f0	 mov	 ecx, DWORD PTR _this$[ebp]
  00016	83 c1 60	 add	 ecx, 96			; 00000060H
  00019	e9 00 00 00 00	 jmp	 ??1?$CEncrypt@H@@UAE@XZ	; CEncrypt<int>::~CEncrypt<int>
__unwindfunclet$??1CHARACTER@@QAE@XZ$3:
  0001e	8b 4d f0	 mov	 ecx, DWORD PTR _this$[ebp]
  00021	81 c1 90 00 00
	00		 add	 ecx, 144		; 00000090H
  00027	e9 00 00 00 00	 jmp	 ??1?$CEncrypt@H@@UAE@XZ	; CEncrypt<int>::~CEncrypt<int>
__unwindfunclet$??1CHARACTER@@QAE@XZ$4:
  0002c	8b 4d f0	 mov	 ecx, DWORD PTR _this$[ebp]
  0002f	81 c1 c0 00 00
	00		 add	 ecx, 192		; 000000c0H
  00035	e9 00 00 00 00	 jmp	 ??1?$CEncrypt@H@@UAE@XZ	; CEncrypt<int>::~CEncrypt<int>
__unwindfunclet$??1CHARACTER@@QAE@XZ$5:
  0003a	8b 4d f0	 mov	 ecx, DWORD PTR _this$[ebp]
  0003d	81 c1 f0 00 00
	00		 add	 ecx, 240		; 000000f0H
  00043	e9 00 00 00 00	 jmp	 ??1?$CEncrypt@H@@UAE@XZ	; CEncrypt<int>::~CEncrypt<int>
__unwindfunclet$??1CHARACTER@@QAE@XZ$6:
  00048	8b 4d f0	 mov	 ecx, DWORD PTR _this$[ebp]
  0004b	81 c1 20 01 00
	00		 add	 ecx, 288		; 00000120H
  00051	e9 00 00 00 00	 jmp	 ??1?$CEncrypt@H@@UAE@XZ	; CEncrypt<int>::~CEncrypt<int>
__unwindfunclet$??1CHARACTER@@QAE@XZ$7:
  00056	8b 4d f0	 mov	 ecx, DWORD PTR _this$[ebp]
  00059	81 c1 50 01 00
	00		 add	 ecx, 336		; 00000150H
  0005f	e9 00 00 00 00	 jmp	 ??1?$CEncrypt@H@@UAE@XZ	; CEncrypt<int>::~CEncrypt<int>
__unwindfunclet$??1CHARACTER@@QAE@XZ$8:
  00064	8b 4d f0	 mov	 ecx, DWORD PTR _this$[ebp]
  00067	81 c1 80 01 00
	00		 add	 ecx, 384		; 00000180H
  0006d	e9 00 00 00 00	 jmp	 ??1?$CEncrypt@H@@UAE@XZ	; CEncrypt<int>::~CEncrypt<int>
__unwindfunclet$??1CHARACTER@@QAE@XZ$9:
  00072	8b 4d f0	 mov	 ecx, DWORD PTR _this$[ebp]
  00075	81 c1 b0 01 00
	00		 add	 ecx, 432		; 000001b0H
  0007b	e9 00 00 00 00	 jmp	 ??1?$CEncrypt@H@@UAE@XZ	; CEncrypt<int>::~CEncrypt<int>
__ehhandler$??1CHARACTER@@QAE@XZ:
  00080	8b 54 24 08	 mov	 edx, DWORD PTR [esp+8]
  00084	8d 42 0c	 lea	 eax, DWORD PTR [edx+12]
  00087	8b 4a ec	 mov	 ecx, DWORD PTR [edx-20]
  0008a	33 c8		 xor	 ecx, eax
  0008c	e8 00 00 00 00	 call	 @__security_check_cookie@4
  00091	b8 00 00 00 00	 mov	 eax, OFFSET __ehfuncinfo$??1CHARACTER@@QAE@XZ
  00096	e9 00 00 00 00	 jmp	 ___CxxFrameHandler3
text$x	ENDS
??1CHARACTER@@QAE@XZ ENDP				; CHARACTER::~CHARACTER
PUBLIC	?MaxClassPrice@ioClassPrice@@QAEHXZ		; ioClassPrice::MaxClassPrice
; Function compile flags: /Ogsp
; File d:\lost saga for developer\youtube\tutorial\source\src\lsclient\ioclassprice.h
;	COMDAT ?MaxClassPrice@ioClassPrice@@QAEHXZ
_TEXT	SEGMENT
?MaxClassPrice@ioClassPrice@@QAEHXZ PROC		; ioClassPrice::MaxClassPrice, COMDAT
; _this$ = ecx

; 114  : 	int MaxClassPrice(){ return m_vPriceData.size(); }

  00000	8b 41 08	 mov	 eax, DWORD PTR [ecx+8]
  00003	2b 41 04	 sub	 eax, DWORD PTR [ecx+4]
  00006	c1 f8 02	 sar	 eax, 2
  00009	c3		 ret	 0
?MaxClassPrice@ioClassPrice@@QAEHXZ ENDP		; ioClassPrice::MaxClassPrice
_TEXT	ENDS
PUBLIC	??0EXTRAITEMSLOT@@QAE@XZ			; EXTRAITEMSLOT::EXTRAITEMSLOT
;	COMDAT xdata$x
; File d:\lost saga for developer\youtube\tutorial\source\src\lsclient\iouserextraitem.h
xdata$x	SEGMENT
__unwindtable$??0EXTRAITEMSLOT@@QAE@XZ DD 0ffffffffH
	DD	FLAT:__unwindfunclet$??0EXTRAITEMSLOT@@QAE@XZ$0
__ehfuncinfo$??0EXTRAITEMSLOT@@QAE@XZ DD 019930522H
	DD	01H
	DD	FLAT:__unwindtable$??0EXTRAITEMSLOT@@QAE@XZ
	DD	2 DUP(00H)
	DD	2 DUP(00H)
	DD	00H
	DD	01H
; Function compile flags: /Ogsp
xdata$x	ENDS
;	COMDAT ??0EXTRAITEMSLOT@@QAE@XZ
_TEXT	SEGMENT
_this$ = -16						; size = 4
__$EHRec$ = -12						; size = 12
??0EXTRAITEMSLOT@@QAE@XZ PROC				; EXTRAITEMSLOT::EXTRAITEMSLOT, COMDAT
; _this$ = ecx

; 43   : 	EXTRAITEMSLOT()

  00000	6a 04		 push	 4
  00002	b8 00 00 00 00	 mov	 eax, __ehhandler$??0EXTRAITEMSLOT@@QAE@XZ
  00007	e8 00 00 00 00	 call	 __EH_prolog3
  0000c	8b f1		 mov	 esi, ecx
  0000e	89 75 f0	 mov	 DWORD PTR _this$[ebp], esi
  00011	8b 3d 00 00 00
	00		 mov	 edi, DWORD PTR __imp_??0ioHashString@@QAE@XZ
  00017	8d 4e 28	 lea	 ecx, DWORD PTR [esi+40]
  0001a	ff d7		 call	 edi
  0001c	83 65 fc 00	 and	 DWORD PTR __$EHRec$[ebp+8], 0
  00020	8d 4e 38	 lea	 ecx, DWORD PTR [esi+56]
  00023	ff d7		 call	 edi

; 44   : 	{
; 45   : 		Init();

  00025	8b ce		 mov	 ecx, esi
  00027	e8 00 00 00 00	 call	 ?Init@EXTRAITEMSLOT@@QAEXXZ ; EXTRAITEMSLOT::Init

; 46   : 	}

  0002c	8b c6		 mov	 eax, esi
  0002e	e8 00 00 00 00	 call	 __EH_epilog3
  00033	c3		 ret	 0
_TEXT	ENDS
;	COMDAT text$x
text$x	SEGMENT
__unwindfunclet$??0EXTRAITEMSLOT@@QAE@XZ$0:
  00000	8b 4d f0	 mov	 ecx, DWORD PTR _this$[ebp]
  00003	83 c1 28	 add	 ecx, 40			; 00000028H
  00006	ff 25 00 00 00
	00		 jmp	 DWORD PTR __imp_??1ioHashString@@QAE@XZ
__ehhandler$??0EXTRAITEMSLOT@@QAE@XZ:
  0000c	8b 54 24 08	 mov	 edx, DWORD PTR [esp+8]
  00010	8d 42 0c	 lea	 eax, DWORD PTR [edx+12]
  00013	8b 4a ec	 mov	 ecx, DWORD PTR [edx-20]
  00016	33 c8		 xor	 ecx, eax
  00018	e8 00 00 00 00	 call	 @__security_check_cookie@4
  0001d	b8 00 00 00 00	 mov	 eax, OFFSET __ehfuncinfo$??0EXTRAITEMSLOT@@QAE@XZ
  00022	e9 00 00 00 00	 jmp	 ___CxxFrameHandler3
text$x	ENDS
??0EXTRAITEMSLOT@@QAE@XZ ENDP				; EXTRAITEMSLOT::EXTRAITEMSLOT
PUBLIC	?begin@?$vector@HV?$allocator@H@std@@@std@@QAE?AV?$_Vector_iterator@V?$_Vector_val@HV?$allocator@H@std@@@std@@@2@XZ ; std::vector<int,std::allocator<int> >::begin
; Function compile flags: /Ogsp
; File c:\program files (x86)\microsoft visual studio 10.0\vc\include\vector
;	COMDAT ?begin@?$vector@HV?$allocator@H@std@@@std@@QAE?AV?$_Vector_iterator@V?$_Vector_val@HV?$allocator@H@std@@@std@@@2@XZ
_TEXT	SEGMENT
___$ReturnUdt$ = 8					; size = 4
?begin@?$vector@HV?$allocator@H@std@@@std@@QAE?AV?$_Vector_iterator@V?$_Vector_val@HV?$allocator@H@std@@@std@@@2@XZ PROC ; std::vector<int,std::allocator<int> >::begin, COMDAT
; _this$ = ecx

; 781  : 		{	// return iterator for beginning of mutable sequence

  00000	55		 push	 ebp
  00001	8b ec		 mov	 ebp, esp

; 782  : 		return (iterator(this->_Myfirst, this));

  00003	8b 09		 mov	 ecx, DWORD PTR [ecx]
  00005	8b 45 08	 mov	 eax, DWORD PTR ___$ReturnUdt$[ebp]
  00008	89 08		 mov	 DWORD PTR [eax], ecx

; 783  : 		}

  0000a	5d		 pop	 ebp
  0000b	c2 04 00	 ret	 4
?begin@?$vector@HV?$allocator@H@std@@@std@@QAE?AV?$_Vector_iterator@V?$_Vector_val@HV?$allocator@H@std@@@std@@@2@XZ ENDP ; std::vector<int,std::allocator<int> >::begin
_TEXT	ENDS
PUBLIC	??0?$CEncrypt@H@@QAE@XZ				; CEncrypt<int>::CEncrypt<int>
EXTRN	??0ccddaabb@@QAE@XZ:PROC			; ccddaabb::ccddaabb
;	COMDAT xdata$x
; File d:\lost saga for developer\youtube\tutorial\source\src\lsclient\encryptvalue.h
xdata$x	SEGMENT
__unwindtable$??0?$CEncrypt@H@@QAE@XZ DD 0ffffffffH
	DD	FLAT:__unwindfunclet$??0?$CEncrypt@H@@QAE@XZ$0
__ehfuncinfo$??0?$CEncrypt@H@@QAE@XZ DD 019930522H
	DD	01H
	DD	FLAT:__unwindtable$??0?$CEncrypt@H@@QAE@XZ
	DD	2 DUP(00H)
	DD	2 DUP(00H)
	DD	00H
	DD	01H
; Function compile flags: /Ogsp
xdata$x	ENDS
;	COMDAT ??0?$CEncrypt@H@@QAE@XZ
_TEXT	SEGMENT
_this$ = -16						; size = 4
__$EHRec$ = -12						; size = 12
??0?$CEncrypt@H@@QAE@XZ PROC				; CEncrypt<int>::CEncrypt<int>, COMDAT
; _this$ = ecx

; 109  : 	CEncrypt()

  00000	6a 04		 push	 4
  00002	b8 00 00 00 00	 mov	 eax, __ehhandler$??0?$CEncrypt@H@@QAE@XZ
  00007	e8 00 00 00 00	 call	 __EH_prolog3
  0000c	8b f1		 mov	 esi, ecx
  0000e	89 75 f0	 mov	 DWORD PTR _this$[ebp], esi
  00011	8d 4e 0c	 lea	 ecx, DWORD PTR [esi+12]
  00014	c7 06 00 00 00
	00		 mov	 DWORD PTR [esi], OFFSET ??_7?$CEncrypt@H@@6B@
  0001a	e8 00 00 00 00	 call	 ??0ccddaabb@@QAE@XZ	; ccddaabb::ccddaabb
  0001f	83 65 fc 00	 and	 DWORD PTR __$EHRec$[ebp+8], 0

; 110  : 	{
; 111  : 		Init();

  00023	8b ce		 mov	 ecx, esi
  00025	e8 00 00 00 00	 call	 ?Init@?$CEncrypt@H@@AAEXXZ ; CEncrypt<int>::Init

; 112  : 	}

  0002a	8b c6		 mov	 eax, esi
  0002c	e8 00 00 00 00	 call	 __EH_epilog3
  00031	c3		 ret	 0
_TEXT	ENDS
;	COMDAT text$x
text$x	SEGMENT
__unwindfunclet$??0?$CEncrypt@H@@QAE@XZ$0:
  00000	8b 4d f0	 mov	 ecx, DWORD PTR _this$[ebp]
  00003	83 c1 0c	 add	 ecx, 12			; 0000000cH
  00006	e9 00 00 00 00	 jmp	 ??1ccddaabb@@UAE@XZ	; ccddaabb::~ccddaabb
__ehhandler$??0?$CEncrypt@H@@QAE@XZ:
  0000b	8b 54 24 08	 mov	 edx, DWORD PTR [esp+8]
  0000f	8d 42 0c	 lea	 eax, DWORD PTR [edx+12]
  00012	8b 4a ec	 mov	 ecx, DWORD PTR [edx-20]
  00015	33 c8		 xor	 ecx, eax
  00017	e8 00 00 00 00	 call	 @__security_check_cookie@4
  0001c	b8 00 00 00 00	 mov	 eax, OFFSET __ehfuncinfo$??0?$CEncrypt@H@@QAE@XZ
  00021	e9 00 00 00 00	 jmp	 ___CxxFrameHandler3
text$x	ENDS
??0?$CEncrypt@H@@QAE@XZ ENDP				; CEncrypt<int>::CEncrypt<int>
PUBLIC	??B?$CEncrypt@H@@QAEHXZ				; CEncrypt<int>::operator int
; Function compile flags: /Ogsp
;	COMDAT ??B?$CEncrypt@H@@QAEHXZ
_TEXT	SEGMENT
_value$ = -4						; size = 4
??B?$CEncrypt@H@@QAEHXZ PROC				; CEncrypt<int>::operator int, COMDAT
; _this$ = ecx

; 134  : 	{

  00000	55		 push	 ebp
  00001	8b ec		 mov	 ebp, esp
  00003	51		 push	 ecx

; 135  : 		type value;
; 136  : 		DecryptValueToPool(&value);

  00004	8d 45 fc	 lea	 eax, DWORD PTR _value$[ebp]
  00007	50		 push	 eax
  00008	e8 00 00 00 00	 call	 ?DecryptValueToPool@?$CEncrypt@H@@QAEXPAH@Z ; CEncrypt<int>::DecryptValueToPool

; 137  : 
; 138  : #ifdef _NOTUSE
; 139  : 		Debug();
; 140  : #endif
; 141  : 		return value;

  0000d	8b 45 fc	 mov	 eax, DWORD PTR _value$[ebp]

; 142  : 	}

  00010	c9		 leave
  00011	c3		 ret	 0
??B?$CEncrypt@H@@QAEHXZ ENDP				; CEncrypt<int>::operator int
_TEXT	ENDS
PUBLIC	??4?$CEncrypt@H@@QAEHH@Z			; CEncrypt<int>::operator=
; Function compile flags: /Ogsp
;	COMDAT ??4?$CEncrypt@H@@QAEHH@Z
_TEXT	SEGMENT
_value$ = 8						; size = 4
_inValue$ = 8						; size = 4
??4?$CEncrypt@H@@QAEHH@Z PROC				; CEncrypt<int>::operator=, COMDAT
; _this$ = ecx

; 843  : 	{

  00000	55		 push	 ebp
  00001	8b ec		 mov	 ebp, esp

; 844  : 		type value = inValue;

  00003	8b 45 08	 mov	 eax, DWORD PTR _inValue$[ebp]
  00006	89 45 08	 mov	 DWORD PTR _value$[ebp], eax

; 845  : 		EncryptValueToPool((char*)&value);

  00009	8d 45 08	 lea	 eax, DWORD PTR _value$[ebp]
  0000c	50		 push	 eax
  0000d	e8 00 00 00 00	 call	 ?EncryptValueToPool@?$CEncrypt@H@@AAEXPBD@Z ; CEncrypt<int>::EncryptValueToPool

; 846  : #ifdef _NOTUSE
; 847  : 		m_value = inValue;
; 848  : 		Debug();
; 849  : #endif
; 850  : 		return value;

  00012	8b 45 08	 mov	 eax, DWORD PTR _value$[ebp]

; 851  : 	}

  00015	5d		 pop	 ebp
  00016	c2 04 00	 ret	 4
??4?$CEncrypt@H@@QAEHH@Z ENDP				; CEncrypt<int>::operator=
_TEXT	ENDS
PUBLIC	?begin@?$vector@VioHashString@@V?$allocator@VioHashString@@@std@@@std@@QAE?AV?$_Vector_iterator@V?$_Vector_val@VioHashString@@V?$allocator@VioHashString@@@std@@@std@@@2@XZ ; std::vector<ioHashString,std::allocator<ioHashString> >::begin
; Function compile flags: /Ogsp
; File c:\program files (x86)\microsoft visual studio 10.0\vc\include\vector
;	COMDAT ?begin@?$vector@VioHashString@@V?$allocator@VioHashString@@@std@@@std@@QAE?AV?$_Vector_iterator@V?$_Vector_val@VioHashString@@V?$allocator@VioHashString@@@std@@@std@@@2@XZ
_TEXT	SEGMENT
___$ReturnUdt$ = 8					; size = 4
?begin@?$vector@VioHashString@@V?$allocator@VioHashString@@@std@@@std@@QAE?AV?$_Vector_iterator@V?$_Vector_val@VioHashString@@V?$allocator@VioHashString@@@std@@@std@@@2@XZ PROC ; std::vector<ioHashString,std::allocator<ioHashString> >::begin, COMDAT
; _this$ = ecx

; 781  : 		{	// return iterator for beginning of mutable sequence

  00000	55		 push	 ebp
  00001	8b ec		 mov	 ebp, esp

; 782  : 		return (iterator(this->_Myfirst, this));

  00003	8b 09		 mov	 ecx, DWORD PTR [ecx]
  00005	8b 45 08	 mov	 eax, DWORD PTR ___$ReturnUdt$[ebp]
  00008	89 08		 mov	 DWORD PTR [eax], ecx

; 783  : 		}

  0000a	5d		 pop	 ebp
  0000b	c2 04 00	 ret	 4
?begin@?$vector@VioHashString@@V?$allocator@VioHashString@@@std@@@std@@QAE?AV?$_Vector_iterator@V?$_Vector_val@VioHashString@@V?$allocator@VioHashString@@@std@@@std@@@2@XZ ENDP ; std::vector<ioHashString,std::allocator<ioHashString> >::begin
_TEXT	ENDS
PUBLIC	?end@?$vector@VioHashString@@V?$allocator@VioHashString@@@std@@@std@@QAE?AV?$_Vector_iterator@V?$_Vector_val@VioHashString@@V?$allocator@VioHashString@@@std@@@std@@@2@XZ ; std::vector<ioHashString,std::allocator<ioHashString> >::end
; Function compile flags: /Ogsp
;	COMDAT ?end@?$vector@VioHashString@@V?$allocator@VioHashString@@@std@@@std@@QAE?AV?$_Vector_iterator@V?$_Vector_val@VioHashString@@V?$allocator@VioHashString@@@std@@@std@@@2@XZ
_TEXT	SEGMENT
___$ReturnUdt$ = 8					; size = 4
?end@?$vector@VioHashString@@V?$allocator@VioHashString@@@std@@@std@@QAE?AV?$_Vector_iterator@V?$_Vector_val@VioHashString@@V?$allocator@VioHashString@@@std@@@std@@@2@XZ PROC ; std::vector<ioHashString,std::allocator<ioHashString> >::end, COMDAT
; _this$ = ecx

; 791  : 		{	// return iterator for end of mutable sequence

  00000	55		 push	 ebp
  00001	8b ec		 mov	 ebp, esp

; 792  : 		return (iterator(this->_Mylast, this));

  00003	8b 49 04	 mov	 ecx, DWORD PTR [ecx+4]
  00006	8b 45 08	 mov	 eax, DWORD PTR ___$ReturnUdt$[ebp]
  00009	89 08		 mov	 DWORD PTR [eax], ecx

; 793  : 		}

  0000b	5d		 pop	 ebp
  0000c	c2 04 00	 ret	 4
?end@?$vector@VioHashString@@V?$allocator@VioHashString@@@std@@@std@@QAE?AV?$_Vector_iterator@V?$_Vector_val@VioHashString@@V?$allocator@VioHashString@@@std@@@std@@@2@XZ ENDP ; std::vector<ioHashString,std::allocator<ioHashString> >::end
_TEXT	ENDS
PUBLIC	??0?$_Vector_val@VioHashString@@V?$allocator@VioHashString@@@std@@@std@@QAE@V?$allocator@VioHashString@@@1@@Z ; std::_Vector_val<ioHashString,std::allocator<ioHashString> >::_Vector_val<ioHashString,std::allocator<ioHashString> >
; Function compile flags: /Ogsp
;	COMDAT ??0?$_Vector_val@VioHashString@@V?$allocator@VioHashString@@@std@@@std@@QAE@V?$allocator@VioHashString@@@1@@Z
_TEXT	SEGMENT
__Al$ = 8						; size = 1
??0?$_Vector_val@VioHashString@@V?$allocator@VioHashString@@@std@@@std@@QAE@V?$allocator@VioHashString@@@1@@Z PROC ; std::_Vector_val<ioHashString,std::allocator<ioHashString> >::_Vector_val<ioHashString,std::allocator<ioHashString> >, COMDAT
; _this$ = ecx

; 426  : 		{	// construct allocator from _Al

  00000	8b c1		 mov	 eax, ecx

; 427  : 		_Myfirst = 0;

  00002	33 c9		 xor	 ecx, ecx
  00004	89 08		 mov	 DWORD PTR [eax], ecx

; 428  : 		_Mylast = 0;

  00006	89 48 04	 mov	 DWORD PTR [eax+4], ecx

; 429  : 		_Myend = 0;

  00009	89 48 08	 mov	 DWORD PTR [eax+8], ecx

; 430  : 		}

  0000c	c2 04 00	 ret	 4
??0?$_Vector_val@VioHashString@@V?$allocator@VioHashString@@@std@@@std@@QAE@V?$allocator@VioHashString@@@1@@Z ENDP ; std::_Vector_val<ioHashString,std::allocator<ioHashString> >::_Vector_val<ioHashString,std::allocator<ioHashString> >
_TEXT	ENDS
PUBLIC	??0?$_Vector_val@HV?$allocator@H@std@@@std@@QAE@V?$allocator@H@1@@Z ; std::_Vector_val<int,std::allocator<int> >::_Vector_val<int,std::allocator<int> >
; Function compile flags: /Ogsp
;	COMDAT ??0?$_Vector_val@HV?$allocator@H@std@@@std@@QAE@V?$allocator@H@1@@Z
_TEXT	SEGMENT
__Al$ = 8						; size = 1
??0?$_Vector_val@HV?$allocator@H@std@@@std@@QAE@V?$allocator@H@1@@Z PROC ; std::_Vector_val<int,std::allocator<int> >::_Vector_val<int,std::allocator<int> >, COMDAT
; _this$ = ecx

; 426  : 		{	// construct allocator from _Al

  00000	8b c1		 mov	 eax, ecx

; 427  : 		_Myfirst = 0;

  00002	33 c9		 xor	 ecx, ecx
  00004	89 08		 mov	 DWORD PTR [eax], ecx

; 428  : 		_Mylast = 0;

  00006	89 48 04	 mov	 DWORD PTR [eax+4], ecx

; 429  : 		_Myend = 0;

  00009	89 48 08	 mov	 DWORD PTR [eax+8], ecx

; 430  : 		}

  0000c	c2 04 00	 ret	 4
??0?$_Vector_val@HV?$allocator@H@std@@@std@@QAE@V?$allocator@H@1@@Z ENDP ; std::_Vector_val<int,std::allocator<int> >::_Vector_val<int,std::allocator<int> >
_TEXT	ENDS
PUBLIC	?_Make_iter@?$vector@VioHashString@@V?$allocator@VioHashString@@@std@@@std@@QBE?AV?$_Vector_iterator@V?$_Vector_val@VioHashString@@V?$allocator@VioHashString@@@std@@@std@@@2@V?$_Vector_const_iterator@V?$_Vector_val@VioHashString@@V?$allocator@VioHashString@@@std@@@std@@@2@@Z ; std::vector<ioHashString,std::allocator<ioHashString> >::_Make_iter
; Function compile flags: /Ogsp
;	COMDAT ?_Make_iter@?$vector@VioHashString@@V?$allocator@VioHashString@@@std@@@std@@QBE?AV?$_Vector_iterator@V?$_Vector_val@VioHashString@@V?$allocator@VioHashString@@@std@@@std@@@2@V?$_Vector_const_iterator@V?$_Vector_val@VioHashString@@V?$allocator@VioHashString@@@std@@@std@@@2@@Z
_TEXT	SEGMENT
___$ReturnUdt$ = 8					; size = 4
__Where$ = 12						; size = 4
?_Make_iter@?$vector@VioHashString@@V?$allocator@VioHashString@@@std@@@std@@QBE?AV?$_Vector_iterator@V?$_Vector_val@VioHashString@@V?$allocator@VioHashString@@@std@@@std@@@2@V?$_Vector_const_iterator@V?$_Vector_val@VioHashString@@V?$allocator@VioHashString@@@std@@@std@@@2@@Z PROC ; std::vector<ioHashString,std::allocator<ioHashString> >::_Make_iter, COMDAT
; _this$ = ecx

; 801  : 		{	// make iterator from const_iterator

  00000	55		 push	 ebp
  00001	8b ec		 mov	 ebp, esp

; 802  : 		return (iterator(_Where._Ptr, this));

  00003	8b 45 08	 mov	 eax, DWORD PTR ___$ReturnUdt$[ebp]
  00006	8b 4d 0c	 mov	 ecx, DWORD PTR __Where$[ebp]
  00009	89 08		 mov	 DWORD PTR [eax], ecx

; 803  : 		}

  0000b	5d		 pop	 ebp
  0000c	c2 08 00	 ret	 8
?_Make_iter@?$vector@VioHashString@@V?$allocator@VioHashString@@@std@@@std@@QBE?AV?$_Vector_iterator@V?$_Vector_val@VioHashString@@V?$allocator@VioHashString@@@std@@@std@@@2@V?$_Vector_const_iterator@V?$_Vector_val@VioHashString@@V?$allocator@VioHashString@@@std@@@std@@@2@@Z ENDP ; std::vector<ioHashString,std::allocator<ioHashString> >::_Make_iter
_TEXT	ENDS
PUBLIC	?max_size@?$vector@VioHashString@@V?$allocator@VioHashString@@@std@@@std@@QBEIXZ ; std::vector<ioHashString,std::allocator<ioHashString> >::max_size
; Function compile flags: /Ogsp
;	COMDAT ?max_size@?$vector@VioHashString@@V?$allocator@VioHashString@@@std@@@std@@QBEIXZ
_TEXT	SEGMENT
?max_size@?$vector@VioHashString@@V?$allocator@VioHashString@@@std@@@std@@QBEIXZ PROC ; std::vector<ioHashString,std::allocator<ioHashString> >::max_size, COMDAT
; _this$ = ecx

; 884  : 		return (this->_Alval.max_size());

  00000	b8 ff ff ff 0f	 mov	 eax, 268435455		; 0fffffffH

; 885  : 		}

  00005	c3		 ret	 0
?max_size@?$vector@VioHashString@@V?$allocator@VioHashString@@@std@@@std@@QBEIXZ ENDP ; std::vector<ioHashString,std::allocator<ioHashString> >::max_size
_TEXT	ENDS
PUBLIC	?allocate@?$allocator@VioHashString@@@std@@QAEPAVioHashString@@I@Z ; std::allocator<ioHashString>::allocate
; Function compile flags: /Ogsp
; File c:\program files (x86)\microsoft visual studio 10.0\vc\include\xmemory
;	COMDAT ?allocate@?$allocator@VioHashString@@@std@@QAEPAVioHashString@@I@Z
_TEXT	SEGMENT
__Count$ = 8						; size = 4
?allocate@?$allocator@VioHashString@@@std@@QAEPAVioHashString@@I@Z PROC ; std::allocator<ioHashString>::allocate, COMDAT
; _this$ = ecx

; 186  : 		{	// allocate array of _Count elements

  00000	55		 push	 ebp
  00001	8b ec		 mov	 ebp, esp

; 187  : 		return (_Allocate(_Count, (pointer)0));

  00003	6a 00		 push	 0
  00005	ff 75 08	 push	 DWORD PTR __Count$[ebp]
  00008	e8 00 00 00 00	 call	 ??$_Allocate@VioHashString@@@std@@YAPAVioHashString@@IPAV1@@Z ; std::_Allocate<ioHashString>
  0000d	59		 pop	 ecx
  0000e	59		 pop	 ecx

; 188  : 		}

  0000f	5d		 pop	 ebp
  00010	c2 04 00	 ret	 4
?allocate@?$allocator@VioHashString@@@std@@QAEPAVioHashString@@I@Z ENDP ; std::allocator<ioHashString>::allocate
_TEXT	ENDS
PUBLIC	?max_size@?$vector@HV?$allocator@H@std@@@std@@QBEIXZ ; std::vector<int,std::allocator<int> >::max_size
; Function compile flags: /Ogsp
; File c:\program files (x86)\microsoft visual studio 10.0\vc\include\vector
;	COMDAT ?max_size@?$vector@HV?$allocator@H@std@@@std@@QBEIXZ
_TEXT	SEGMENT
?max_size@?$vector@HV?$allocator@H@std@@@std@@QBEIXZ PROC ; std::vector<int,std::allocator<int> >::max_size, COMDAT
; _this$ = ecx

; 884  : 		return (this->_Alval.max_size());

  00000	b8 ff ff ff 3f	 mov	 eax, 1073741823		; 3fffffffH

; 885  : 		}

  00005	c3		 ret	 0
?max_size@?$vector@HV?$allocator@H@std@@@std@@QBEIXZ ENDP ; std::vector<int,std::allocator<int> >::max_size
_TEXT	ENDS
PUBLIC	?_Grow_to@?$vector@HV?$allocator@H@std@@@std@@IBEII@Z ; std::vector<int,std::allocator<int> >::_Grow_to
; Function compile flags: /Ogsp
;	COMDAT ?_Grow_to@?$vector@HV?$allocator@H@std@@@std@@IBEII@Z
_TEXT	SEGMENT
__Count$ = 8						; size = 4
?_Grow_to@?$vector@HV?$allocator@H@std@@@std@@IBEII@Z PROC ; std::vector<int,std::allocator<int> >::_Grow_to, COMDAT
; _this$ = ecx

; 1274 : 		{	// grow by 50% or at least to _Count

  00000	55		 push	 ebp
  00001	8b ec		 mov	 ebp, esp

; 1275 : 		size_type _Capacity = capacity();

  00003	8b 41 08	 mov	 eax, DWORD PTR [ecx+8]
  00006	2b 01		 sub	 eax, DWORD PTR [ecx]

; 1276 : 
; 1277 : 		_Capacity = max_size() - _Capacity / 2 < _Capacity
; 1278 : 			? 0 : _Capacity + _Capacity / 2;	// try to grow by 50%

  00008	ba ff ff ff 3f	 mov	 edx, 1073741823		; 3fffffffH
  0000d	c1 f8 02	 sar	 eax, 2
  00010	8b c8		 mov	 ecx, eax
  00012	d1 e9		 shr	 ecx, 1
  00014	2b d1		 sub	 edx, ecx
  00016	3b d0		 cmp	 edx, eax
  00018	73 04		 jae	 SHORT $LN4@Grow_to@2
  0001a	33 c0		 xor	 eax, eax
  0001c	eb 02		 jmp	 SHORT $LN5@Grow_to@2
$LN4@Grow_to@2:
  0001e	03 c1		 add	 eax, ecx
$LN5@Grow_to@2:

; 1279 : 		if (_Capacity < _Count)

  00020	3b 45 08	 cmp	 eax, DWORD PTR __Count$[ebp]

; 1280 : 			_Capacity = _Count;

  00023	0f 42 45 08	 cmovb	 eax, DWORD PTR __Count$[ebp]

; 1281 : 		return (_Capacity);
; 1282 : 		}

  00027	5d		 pop	 ebp
  00028	c2 04 00	 ret	 4
?_Grow_to@?$vector@HV?$allocator@H@std@@@std@@IBEII@Z ENDP ; std::vector<int,std::allocator<int> >::_Grow_to
_TEXT	ENDS
PUBLIC	??Y?$_Vector_iterator@V?$_Vector_val@HV?$allocator@H@std@@@std@@@std@@QAEAAV01@H@Z ; std::_Vector_iterator<std::_Vector_val<int,std::allocator<int> > >::operator+=
; Function compile flags: /Ogsp
;	COMDAT ??Y?$_Vector_iterator@V?$_Vector_val@HV?$allocator@H@std@@@std@@@std@@QAEAAV01@H@Z
_TEXT	SEGMENT
__Off$ = 8						; size = 4
??Y?$_Vector_iterator@V?$_Vector_val@HV?$allocator@H@std@@@std@@@std@@QAEAAV01@H@Z PROC ; std::_Vector_iterator<std::_Vector_val<int,std::allocator<int> > >::operator+=, COMDAT
; _this$ = ecx

; 357  : 		{	// increment by integer

  00000	55		 push	 ebp
  00001	8b ec		 mov	 ebp, esp
  00003	8b c1		 mov	 eax, ecx

; 358  : 		*(_Mybase *)this += _Off;

  00005	8b 4d 08	 mov	 ecx, DWORD PTR __Off$[ebp]
  00008	c1 e1 02	 shl	 ecx, 2
  0000b	01 08		 add	 DWORD PTR [eax], ecx

; 359  : 		return (*this);
; 360  : 		}

  0000d	5d		 pop	 ebp
  0000e	c2 04 00	 ret	 4
??Y?$_Vector_iterator@V?$_Vector_val@HV?$allocator@H@std@@@std@@@std@@QAEAAV01@H@Z ENDP ; std::_Vector_iterator<std::_Vector_val<int,std::allocator<int> > >::operator+=
_TEXT	ENDS
PUBLIC	?allocate@?$allocator@H@std@@QAEPAHI@Z		; std::allocator<int>::allocate
; Function compile flags: /Ogsp
; File c:\program files (x86)\microsoft visual studio 10.0\vc\include\xmemory
;	COMDAT ?allocate@?$allocator@H@std@@QAEPAHI@Z
_TEXT	SEGMENT
__Count$ = 8						; size = 4
?allocate@?$allocator@H@std@@QAEPAHI@Z PROC		; std::allocator<int>::allocate, COMDAT
; _this$ = ecx

; 186  : 		{	// allocate array of _Count elements

  00000	55		 push	 ebp
  00001	8b ec		 mov	 ebp, esp

; 187  : 		return (_Allocate(_Count, (pointer)0));

  00003	6a 00		 push	 0
  00005	ff 75 08	 push	 DWORD PTR __Count$[ebp]
  00008	e8 00 00 00 00	 call	 ??$_Allocate@H@std@@YAPAHIPAH@Z ; std::_Allocate<int>
  0000d	59		 pop	 ecx
  0000e	59		 pop	 ecx

; 188  : 		}

  0000f	5d		 pop	 ebp
  00010	c2 04 00	 ret	 4
?allocate@?$allocator@H@std@@QAEPAHI@Z ENDP		; std::allocator<int>::allocate
_TEXT	ENDS
PUBLIC	??8?$_Vector_const_iterator@V?$_Vector_val@VioHashString@@V?$allocator@VioHashString@@@std@@@std@@@std@@QBE_NABV01@@Z ; std::_Vector_const_iterator<std::_Vector_val<ioHashString,std::allocator<ioHashString> > >::operator==
; Function compile flags: /Ogsp
; File c:\program files (x86)\microsoft visual studio 10.0\vc\include\vector
;	COMDAT ??8?$_Vector_const_iterator@V?$_Vector_val@VioHashString@@V?$allocator@VioHashString@@@std@@@std@@@std@@QBE_NABV01@@Z
_TEXT	SEGMENT
__Right$ = 8						; size = 4
??8?$_Vector_const_iterator@V?$_Vector_val@VioHashString@@V?$allocator@VioHashString@@@std@@@std@@@std@@QBE_NABV01@@Z PROC ; std::_Vector_const_iterator<std::_Vector_val<ioHashString,std::allocator<ioHashString> > >::operator==, COMDAT
; _this$ = ecx

; 201  : 		{	// test for iterator equality

  00000	55		 push	 ebp
  00001	8b ec		 mov	 ebp, esp

; 202  : 		_Compat(_Right);
; 203  : 		return (this->_Ptr == _Right._Ptr);

  00003	8b 01		 mov	 eax, DWORD PTR [ecx]
  00005	8b 4d 08	 mov	 ecx, DWORD PTR __Right$[ebp]
  00008	2b 01		 sub	 eax, DWORD PTR [ecx]
  0000a	f7 d8		 neg	 eax
  0000c	1b c0		 sbb	 eax, eax
  0000e	40		 inc	 eax

; 204  : 		}

  0000f	5d		 pop	 ebp
  00010	c2 04 00	 ret	 4
??8?$_Vector_const_iterator@V?$_Vector_val@VioHashString@@V?$allocator@VioHashString@@@std@@@std@@@std@@QBE_NABV01@@Z ENDP ; std::_Vector_const_iterator<std::_Vector_val<ioHashString,std::allocator<ioHashString> > >::operator==
_TEXT	ENDS
PUBLIC	??$_Move@PAHPAH@std@@YAPAHPAH00@Z		; std::_Move<int *,int *>
; Function compile flags: /Ogsp
; File c:\program files (x86)\microsoft visual studio 10.0\vc\include\xutility
;	COMDAT ??$_Move@PAHPAH@std@@YAPAHPAH00@Z
_TEXT	SEGMENT
__Cat$516546 = -4					; size = 1
__First$ = 8						; size = 4
__Last$ = 12						; size = 4
__Dest$ = 16						; size = 4
??$_Move@PAHPAH@std@@YAPAHPAH00@Z PROC			; std::_Move<int *,int *>, COMDAT

; 2533 : 	{	// move [_First, _Last) to [_Dest, ...), unchecked

  00000	55		 push	 ebp
  00001	8b ec		 mov	 ebp, esp
  00003	51		 push	 ecx

; 2534 : 	return (_Move(_First, _Last,
; 2535 : 		_Dest, _Ptr_cat(_First, _Dest)));

  00004	ff 75 fc	 push	 DWORD PTR __Cat$516546[ebp]
  00007	ff 75 10	 push	 DWORD PTR __Dest$[ebp]
  0000a	ff 75 0c	 push	 DWORD PTR __Last$[ebp]
  0000d	ff 75 08	 push	 DWORD PTR __First$[ebp]
  00010	e8 00 00 00 00	 call	 ??$_Move@PAHPAH@std@@YAPAHPAH00U_Scalar_ptr_iterator_tag@0@@Z ; std::_Move<int *,int *>
  00015	83 c4 10	 add	 esp, 16			; 00000010H

; 2536 : 	}

  00018	c9		 leave
  00019	c3		 ret	 0
??$_Move@PAHPAH@std@@YAPAHPAH00@Z ENDP			; std::_Move<int *,int *>
_TEXT	ENDS
PUBLIC	??$_Destroy_range@V?$allocator@H@std@@@std@@YAXPAH0AAV?$allocator@H@0@@Z ; std::_Destroy_range<std::allocator<int> >
; Function compile flags: /Ogsp
; File c:\program files (x86)\microsoft visual studio 10.0\vc\include\xmemory
;	COMDAT ??$_Destroy_range@V?$allocator@H@std@@@std@@YAXPAH0AAV?$allocator@H@0@@Z
_TEXT	SEGMENT
__First$ = 8						; size = 4
__Last$ = 12						; size = 4
__Al$ = 16						; size = 4
??$_Destroy_range@V?$allocator@H@std@@@std@@YAXPAH0AAV?$allocator@H@0@@Z PROC ; std::_Destroy_range<std::allocator<int> >, COMDAT

; 88   : 	_Destroy_range(_First, _Last, _Al, _Ptr_cat(_First, _Last));
; 89   : 	}

  00000	c3		 ret	 0
??$_Destroy_range@V?$allocator@H@std@@@std@@YAXPAH0AAV?$allocator@H@0@@Z ENDP ; std::_Destroy_range<std::allocator<int> >
_TEXT	ENDS
PUBLIC	??$_Move@PAVioHashString@@PAV1@@std@@YAPAVioHashString@@PAV1@00U_Nonscalar_ptr_iterator_tag@0@@Z ; std::_Move<ioHashString *,ioHashString *>
; Function compile flags: /Ogsp
; File c:\program files (x86)\microsoft visual studio 10.0\vc\include\xutility
;	COMDAT ??$_Move@PAVioHashString@@PAV1@@std@@YAPAVioHashString@@PAV1@00U_Nonscalar_ptr_iterator_tag@0@@Z
_TEXT	SEGMENT
__First$ = 8						; size = 4
__Last$ = 12						; size = 4
__Dest$ = 16						; size = 4
___formal$ = 20						; size = 1
??$_Move@PAVioHashString@@PAV1@@std@@YAPAVioHashString@@PAV1@00U_Nonscalar_ptr_iterator_tag@0@@Z PROC ; std::_Move<ioHashString *,ioHashString *>, COMDAT

; 2512 : 	{	// move [_First, _Last) to [_Dest, ...), arbitrary iterators

  00000	55		 push	 ebp
  00001	8b ec		 mov	 ebp, esp
  00003	56		 push	 esi

; 2513 : 	for (; _First != _Last; ++_Dest, ++_First)

  00004	8b 75 08	 mov	 esi, DWORD PTR __First$[ebp]
  00007	eb 11		 jmp	 SHORT $LN11@Move@2
$LL3@Move@2:

; 2514 : 		*_Dest = _STD move(*_First);

  00009	8b 4d 10	 mov	 ecx, DWORD PTR __Dest$[ebp]
  0000c	56		 push	 esi
  0000d	ff 15 00 00 00
	00		 call	 DWORD PTR __imp_??4ioHashString@@QAEAAV0@ABV0@@Z
  00013	83 45 10 10	 add	 DWORD PTR __Dest$[ebp], 16 ; 00000010H
  00017	83 c6 10	 add	 esi, 16			; 00000010H
$LN11@Move@2:

; 2513 : 	for (; _First != _Last; ++_Dest, ++_First)

  0001a	3b 75 0c	 cmp	 esi, DWORD PTR __Last$[ebp]
  0001d	75 ea		 jne	 SHORT $LL3@Move@2

; 2515 : 	return (_Dest);

  0001f	8b 45 10	 mov	 eax, DWORD PTR __Dest$[ebp]
  00022	5e		 pop	 esi

; 2516 : 	}

  00023	5d		 pop	 ebp
  00024	c3		 ret	 0
??$_Move@PAVioHashString@@PAV1@@std@@YAPAVioHashString@@PAV1@00U_Nonscalar_ptr_iterator_tag@0@@Z ENDP ; std::_Move<ioHashString *,ioHashString *>
_TEXT	ENDS
PUBLIC	??$_Uninitialized_move@PAHPAHV?$allocator@H@std@@@std@@YAPAHPAH00AAV?$allocator@H@0@@Z ; std::_Uninitialized_move<int *,int *,std::allocator<int> >
; Function compile flags: /Ogsp
; File c:\program files (x86)\microsoft visual studio 10.0\vc\include\memory
;	COMDAT ??$_Uninitialized_move@PAHPAHV?$allocator@H@std@@@std@@YAPAHPAH00AAV?$allocator@H@0@@Z
_TEXT	SEGMENT
__First$ = 8						; size = 4
__Last$ = 12						; size = 4
__Dest$ = 16						; size = 4
__Al$ = 20						; size = 4
??$_Uninitialized_move@PAHPAHV?$allocator@H@std@@@std@@YAPAHPAH00AAV?$allocator@H@0@@Z PROC ; std::_Uninitialized_move<int *,int *,std::allocator<int> >, COMDAT

; 469  : 	{	// move [_First, _Last) to raw _Dest, using _Al

  00000	55		 push	 ebp
  00001	8b ec		 mov	 ebp, esp
  00003	56		 push	 esi

; 470  : 	return (_Uninit_move(_First, _Last, _Dest, _Al,
; 471  : 		_Val_type(_First), _Ptr_cat(_First, _Dest)));

  00004	8b 75 0c	 mov	 esi, DWORD PTR __Last$[ebp]
  00007	2b 75 08	 sub	 esi, DWORD PTR __First$[ebp]
  0000a	c1 fe 02	 sar	 esi, 2
  0000d	c1 e6 02	 shl	 esi, 2
  00010	56		 push	 esi
  00011	ff 75 08	 push	 DWORD PTR __First$[ebp]
  00014	ff 75 10	 push	 DWORD PTR __Dest$[ebp]
  00017	ff 15 00 00 00
	00		 call	 DWORD PTR __imp__memmove
  0001d	83 c4 0c	 add	 esp, 12			; 0000000cH
  00020	03 c6		 add	 eax, esi
  00022	5e		 pop	 esi

; 472  : 	}

  00023	5d		 pop	 ebp
  00024	c3		 ret	 0
??$_Uninitialized_move@PAHPAHV?$allocator@H@std@@@std@@YAPAHPAH00AAV?$allocator@H@0@@Z ENDP ; std::_Uninitialized_move<int *,int *,std::allocator<int> >
_TEXT	ENDS
PUBLIC	??$_Destroy@VioHashString@@@std@@YAXPAVioHashString@@@Z ; std::_Destroy<ioHashString>
; Function compile flags: /Ogsp
; File c:\program files (x86)\microsoft visual studio 10.0\vc\include\xmemory
;	COMDAT ??$_Destroy@VioHashString@@@std@@YAXPAVioHashString@@@Z
_TEXT	SEGMENT
__Ptr$ = 8						; size = 4
??$_Destroy@VioHashString@@@std@@YAXPAVioHashString@@@Z PROC ; std::_Destroy<ioHashString>, COMDAT

; 62   : 	{	// destroy object at _Ptr

  00000	55		 push	 ebp
  00001	8b ec		 mov	 ebp, esp

; 63   : 	_Ptr->~_Ty();

  00003	8b 4d 08	 mov	 ecx, DWORD PTR __Ptr$[ebp]

; 64   : 	}

  00006	5d		 pop	 ebp

; 63   : 	_Ptr->~_Ty();

  00007	ff 25 00 00 00
	00		 jmp	 DWORD PTR __imp_??1ioHashString@@QAE@XZ
??$_Destroy@VioHashString@@@std@@YAXPAVioHashString@@@Z ENDP ; std::_Destroy<ioHashString>
_TEXT	ENDS
PUBLIC	?construct@?$allocator@VioHashString@@@std@@QAEXPAVioHashString@@ABV3@@Z ; std::allocator<ioHashString>::construct
; Function compile flags: /Ogsp
;	COMDAT ?construct@?$allocator@VioHashString@@@std@@QAEXPAVioHashString@@ABV3@@Z
_TEXT	SEGMENT
__Ptr$ = 8						; size = 4
__Val$ = 12						; size = 4
?construct@?$allocator@VioHashString@@@std@@QAEXPAVioHashString@@ABV3@@Z PROC ; std::allocator<ioHashString>::construct, COMDAT
; _this$ = ecx

; 196  : 		{	// construct object at _Ptr with value _Val

  00000	55		 push	 ebp
  00001	8b ec		 mov	 ebp, esp

; 197  : 		_Construct(_Ptr, _Val);

  00003	ff 75 0c	 push	 DWORD PTR __Val$[ebp]
  00006	ff 75 08	 push	 DWORD PTR __Ptr$[ebp]
  00009	e8 00 00 00 00	 call	 ??$_Construct@VioHashString@@ABV1@@std@@YAXPAVioHashString@@ABV1@@Z ; std::_Construct<ioHashString,ioHashString const &>
  0000e	59		 pop	 ecx
  0000f	59		 pop	 ecx

; 198  : 		}

  00010	5d		 pop	 ebp
  00011	c2 08 00	 ret	 8
?construct@?$allocator@VioHashString@@@std@@QAEXPAVioHashString@@ABV3@@Z ENDP ; std::allocator<ioHashString>::construct
_TEXT	ENDS
PUBLIC	??_7InvenFourExtraCompoundBuyWnd@@6B@		; InvenFourExtraCompoundBuyWnd::`vftable'
PUBLIC	??1InvenFourExtraCompoundBuyWnd@@UAE@XZ		; InvenFourExtraCompoundBuyWnd::~InvenFourExtraCompoundBuyWnd
PUBLIC	??_R4InvenFourExtraCompoundBuyWnd@@6B@		; InvenFourExtraCompoundBuyWnd::`RTTI Complete Object Locator'
PUBLIC	??_R0?AVInvenFourExtraCompoundBuyWnd@@@8	; InvenFourExtraCompoundBuyWnd `RTTI Type Descriptor'
PUBLIC	??_R3InvenFourExtraCompoundBuyWnd@@8		; InvenFourExtraCompoundBuyWnd::`RTTI Class Hierarchy Descriptor'
PUBLIC	??_R2InvenFourExtraCompoundBuyWnd@@8		; InvenFourExtraCompoundBuyWnd::`RTTI Base Class Array'
PUBLIC	??_R1A@?0A@EA@InvenFourExtraCompoundBuyWnd@@8	; InvenFourExtraCompoundBuyWnd::`RTTI Base Class Descriptor at (0,-1,0,64)'
PUBLIC	??_R1A@?0A@EA@ioWnd@@8				; ioWnd::`RTTI Base Class Descriptor at (0,-1,0,64)'
PUBLIC	??_R3ioWnd@@8					; ioWnd::`RTTI Class Hierarchy Descriptor'
PUBLIC	??_R2ioWnd@@8					; ioWnd::`RTTI Base Class Array'
PUBLIC	?AddRenderImage@InvenFourExtraCompoundBuyWnd@@MAEXABVioHashString@@PAVioUIRenderImage@@@Z ; InvenFourExtraCompoundBuyWnd::AddRenderImage
PUBLIC	?ParseExtraInfo@InvenFourExtraCompoundBuyWnd@@MAEXAAVioXMLElement@@@Z ; InvenFourExtraCompoundBuyWnd::ParseExtraInfo
PUBLIC	?OnRender@InvenFourExtraCompoundBuyWnd@@MAEXXZ	; InvenFourExtraCompoundBuyWnd::OnRender
PUBLIC	?iwm_command@InvenFourExtraCompoundBuyWnd@@UAEXPAVioWnd@@HK@Z ; InvenFourExtraCompoundBuyWnd::iwm_command
PUBLIC	?iwm_show@InvenFourExtraCompoundBuyWnd@@UAEXXZ	; InvenFourExtraCompoundBuyWnd::iwm_show
EXTRN	__imp_??1ioWnd@@UAE@XZ:PROC
EXTRN	?AddRenderFrame@ioWnd@@UAEXABVioHashString@@PAVioUIRenderFrame@@@Z:PROC ; ioWnd::AddRenderFrame
EXTRN	?AddTooltipHelp@ioWnd@@UAEXABVioHashString@@00@Z:PROC ; ioWnd::AddTooltipHelp
EXTRN	?AddNamedRenderImage@ioWnd@@UAEXABVioHashString@@PAVioUIRenderImage@@@Z:PROC ; ioWnd::AddNamedRenderImage
EXTRN	?RemoveNamedRenderImage@ioWnd@@UAEXABVioHashString@@@Z:PROC ; ioWnd::RemoveNamedRenderImage
EXTRN	?GetNamedRenderImage@ioWnd@@UBEPAVioUIRenderImage@@ABVioHashString@@@Z:PROC ; ioWnd::GetNamedRenderImage
EXTRN	?SetWindowAlpha@ioWnd@@UAEXH@Z:PROC		; ioWnd::SetWindowAlpha
EXTRN	?SetActive@ioWnd@@UAEXXZ:PROC			; ioWnd::SetActive
EXTRN	?SetInActive@ioWnd@@UAEXXZ:PROC			; ioWnd::SetInActive
EXTRN	?ClearElementImageList@ioWnd@@UAEXXZ:PROC	; ioWnd::ClearElementImageList
EXTRN	?SetSize@ioWnd@@UAEXHH@Z:PROC			; ioWnd::SetSize
EXTRN	?SetPositionToDefault@ioWnd@@UAEXHH_N0@Z:PROC	; ioWnd::SetPositionToDefault
EXTRN	?IsNeedProcess@ioWnd@@UBE_NXZ:PROC		; ioWnd::IsNeedProcess
EXTRN	?IsCanMouseReaction@ioWnd@@UBE_NXZ:PROC		; ioWnd::IsCanMouseReaction
EXTRN	?AddChild@ioWnd@@UAEXPAV1@@Z:PROC		; ioWnd::AddChild
EXTRN	?DeleteChild@ioWnd@@UAEXK@Z:PROC		; ioWnd::DeleteChild
EXTRN	?DeleteAllChild@ioWnd@@UAEXXZ:PROC		; ioWnd::DeleteAllChild
EXTRN	?OnRenderShowAndHide@ioWnd@@MAE_NXZ:PROC	; ioWnd::OnRenderShowAndHide
EXTRN	?OnRenderShowAndHideByDefault@ioWnd@@MAE_NK@Z:PROC ; ioWnd::OnRenderShowAndHideByDefault
EXTRN	?OnRenderShowAndHideByTop@ioWnd@@MAE_NK@Z:PROC	; ioWnd::OnRenderShowAndHideByTop
EXTRN	?OnRenderShowAndHideByDown@ioWnd@@MAE_NK@Z:PROC	; ioWnd::OnRenderShowAndHideByDown
EXTRN	?OnRenderAfterChild@ioWnd@@MAEXXZ:PROC		; ioWnd::OnRenderAfterChild
EXTRN	?OnMouseProcess@ioWnd@@MAEXABVioMouse@@@Z:PROC	; ioWnd::OnMouseProcess
EXTRN	?CheckFrameReSize@ioWnd@@MAEXHHHH@Z:PROC	; ioWnd::CheckFrameReSize
EXTRN	?RenderImageList@ioWnd@@MAEXHHW4UIRenderType@@@Z:PROC ; ioWnd::RenderImageList
EXTRN	?iwm_destroy@ioWnd@@UAEXXZ:PROC			; ioWnd::iwm_destroy
EXTRN	?iwm_lbuttondown@ioWnd@@UAEXABVioMouse@@@Z:PROC	; ioWnd::iwm_lbuttondown
EXTRN	?iwm_lbuttonup@ioWnd@@UAEXABVioMouse@@@Z:PROC	; ioWnd::iwm_lbuttonup
EXTRN	?iwm_lbuttonDBLCLK@ioWnd@@UAEXABVioMouse@@@Z:PROC ; ioWnd::iwm_lbuttonDBLCLK
EXTRN	?iwm_rbuttondown@ioWnd@@UAEXABVioMouse@@@Z:PROC	; ioWnd::iwm_rbuttondown
EXTRN	?iwm_rbuttonup@ioWnd@@UAEXABVioMouse@@@Z:PROC	; ioWnd::iwm_rbuttonup
EXTRN	?iwm_mouseover@ioWnd@@UAEXABVioMouse@@@Z:PROC	; ioWnd::iwm_mouseover
EXTRN	?iwm_mousemove@ioWnd@@UAEXABVioMouse@@@Z:PROC	; ioWnd::iwm_mousemove
EXTRN	?iwm_mouseleave@ioWnd@@UAEXABVioMouse@@@Z:PROC	; ioWnd::iwm_mouseleave
EXTRN	?iwm_vscroll@ioWnd@@UAEXKH@Z:PROC		; ioWnd::iwm_vscroll
EXTRN	?iwm_wheel@ioWnd@@UAEXH@Z:PROC			; ioWnd::iwm_wheel
EXTRN	?iwm_esc@ioWnd@@UAE_NXZ:PROC			; ioWnd::iwm_esc
EXTRN	?iwm_spacebar@ioWnd@@UAE_NXZ:PROC		; ioWnd::iwm_spacebar
EXTRN	?iwm_gototop@ioWnd@@UAEXXZ:PROC			; ioWnd::iwm_gototop
EXTRN	?iwm_dragenter@ioWnd@@UAE?AW4IWDropEffect@@PAVioDragItem@@ABVioMouse@@@Z:PROC ; ioWnd::iwm_dragenter
EXTRN	?iwm_dragover@ioWnd@@UAE?AW4IWDropEffect@@PAVioDragItem@@ABVioMouse@@@Z:PROC ; ioWnd::iwm_dragover
EXTRN	?iwm_dragleave@ioWnd@@UAEXXZ:PROC		; ioWnd::iwm_dragleave
EXTRN	?iwm_dropitem@ioWnd@@UAE_NPAVioDragItem@@ABVioMouse@@PAV1@@Z:PROC ; ioWnd::iwm_dropitem
EXTRN	?iwm_dropdone@ioWnd@@UAEXPAVioDragItem@@PAV1@_N@Z:PROC ; ioWnd::iwm_dropdone
EXTRN	?IsEXType@ioWnd@@UBE_NXZ:PROC			; ioWnd::IsEXType
EXTRN	?GetWndType@ioWnd@@UBEKXZ:PROC			; ioWnd::GetWndType
EXTRN	?RenderWnd@ioWnd@@UAEXXZ:PROC			; ioWnd::RenderWnd
EXTRN	?SetIDEX@ioWnd@@UAEXAAK_N@Z:PROC		; ioWnd::SetIDEX
EXTRN	?ParseXML@ioWnd@@UAEXAAVioXMLElement@@@Z:PROC	; ioWnd::ParseXML
EXTRN	?GetHeaderFileName@ioWnd@@UAEPBDXZ:PROC		; ioWnd::GetHeaderFileName
EXTRN	?GetTemplateName@ioWnd@@UAEPBDXZ:PROC		; ioWnd::GetTemplateName
EXTRN	?GetDefClassName@ioWnd@@UBEPBDXZ:PROC		; ioWnd::GetDefClassName
EXTRN	?_Clone@ioWnd@@UAEPAV1@XZ:PROC			; ioWnd::_Clone
EXTRN	?Copy@ioWnd@@UAEXPAV1@@Z:PROC			; ioWnd::Copy
EXTRN	?Save@ioWnd@@UAE_NAAVioXMLElement@@@Z:PROC	; ioWnd::Save
EXTRN	?SetSaveData@ioWnd@@UAEXAAVioXMLElement@@@Z:PROC ; ioWnd::SetSaveData
EXTRN	?SetPosX@ioWnd@@UAEXH@Z:PROC			; ioWnd::SetPosX
EXTRN	?SetPosY@ioWnd@@UAEXH@Z:PROC			; ioWnd::SetPosY
EXTRN	?SetWidth@ioWnd@@UAEXH@Z:PROC			; ioWnd::SetWidth
EXTRN	?SetHeight@ioWnd@@UAEXH@Z:PROC			; ioWnd::SetHeight
EXTRN	?GetNumFixedRenderFrame@ioWnd@@UBEHXZ:PROC	; ioWnd::GetNumFixedRenderFrame
EXTRN	?GetFixedRenderFrameType@ioWnd@@UAEPBDH@Z:PROC	; ioWnd::GetFixedRenderFrameType
EXTRN	?GetRenderFrame@ioWnd@@UAEPAPAVioUIRenderElement@@PBD@Z:PROC ; ioWnd::GetRenderFrame
EXTRN	?GetNumFixedRenderImage@ioWnd@@UBEHXZ:PROC	; ioWnd::GetNumFixedRenderImage
EXTRN	?GetFixedRenderImageType@ioWnd@@UAEPBDH@Z:PROC	; ioWnd::GetFixedRenderImageType
EXTRN	?GetRenderImage@ioWnd@@UAEPAPAVioUIRenderElement@@PBD@Z:PROC ; ioWnd::GetRenderImage
EXTRN	?AddEffect@ioWnd@@UAEXABVioHashString@@PAVioUI3DEffectRender@@@Z:PROC ; ioWnd::AddEffect
EXTRN	?GetEffect@ioWnd@@UAEPAVioUI3DEffectRender@@VioHashString@@@Z:PROC ; ioWnd::GetEffect
EXTRN	??_EInvenFourExtraCompoundBuyWnd@@UAEPAXI@Z:PROC ; InvenFourExtraCompoundBuyWnd::`vector deleting destructor'
;	COMDAT ??_R2ioWnd@@8
; File d:\lost saga for developer\youtube\tutorial\source\src\lsclient\gui\invenfourextracompoundwnd.cpp
rdata$r	SEGMENT
??_R2ioWnd@@8 DD FLAT:??_R1A@?0A@EA@ioWnd@@8		; ioWnd::`RTTI Base Class Array'
rdata$r	ENDS
;	COMDAT ??_R3ioWnd@@8
rdata$r	SEGMENT
??_R3ioWnd@@8 DD 00H					; ioWnd::`RTTI Class Hierarchy Descriptor'
	DD	00H
	DD	01H
	DD	FLAT:??_R2ioWnd@@8
rdata$r	ENDS
;	COMDAT ??_R1A@?0A@EA@ioWnd@@8
rdata$r	SEGMENT
??_R1A@?0A@EA@ioWnd@@8 DD FLAT:??_R0?AVioWnd@@@8	; ioWnd::`RTTI Base Class Descriptor at (0,-1,0,64)'
	DD	00H
	DD	00H
	DD	0ffffffffH
	DD	00H
	DD	040H
	DD	FLAT:??_R3ioWnd@@8
rdata$r	ENDS
;	COMDAT ??_R1A@?0A@EA@InvenFourExtraCompoundBuyWnd@@8
rdata$r	SEGMENT
??_R1A@?0A@EA@InvenFourExtraCompoundBuyWnd@@8 DD FLAT:??_R0?AVInvenFourExtraCompoundBuyWnd@@@8 ; InvenFourExtraCompoundBuyWnd::`RTTI Base Class Descriptor at (0,-1,0,64)'
	DD	01H
	DD	00H
	DD	0ffffffffH
	DD	00H
	DD	040H
	DD	FLAT:??_R3InvenFourExtraCompoundBuyWnd@@8
rdata$r	ENDS
;	COMDAT ??_R2InvenFourExtraCompoundBuyWnd@@8
rdata$r	SEGMENT
??_R2InvenFourExtraCompoundBuyWnd@@8 DD FLAT:??_R1A@?0A@EA@InvenFourExtraCompoundBuyWnd@@8 ; InvenFourExtraCompoundBuyWnd::`RTTI Base Class Array'
	DD	FLAT:??_R1A@?0A@EA@ioWnd@@8
rdata$r	ENDS
;	COMDAT ??_R3InvenFourExtraCompoundBuyWnd@@8
rdata$r	SEGMENT
??_R3InvenFourExtraCompoundBuyWnd@@8 DD 00H		; InvenFourExtraCompoundBuyWnd::`RTTI Class Hierarchy Descriptor'
	DD	00H
	DD	02H
	DD	FLAT:??_R2InvenFourExtraCompoundBuyWnd@@8
rdata$r	ENDS
;	COMDAT ??_R0?AVInvenFourExtraCompoundBuyWnd@@@8
_DATA	SEGMENT
??_R0?AVInvenFourExtraCompoundBuyWnd@@@8 DD FLAT:??_7type_info@@6B@ ; InvenFourExtraCompoundBuyWnd `RTTI Type Descriptor'
	DD	00H
	DB	'.?AVInvenFourExtraCompoundBuyWnd@@', 00H
_DATA	ENDS
;	COMDAT ??_R4InvenFourExtraCompoundBuyWnd@@6B@
rdata$r	SEGMENT
??_R4InvenFourExtraCompoundBuyWnd@@6B@ DD 00H		; InvenFourExtraCompoundBuyWnd::`RTTI Complete Object Locator'
	DD	00H
	DD	00H
	DD	FLAT:??_R0?AVInvenFourExtraCompoundBuyWnd@@@8
	DD	FLAT:??_R3InvenFourExtraCompoundBuyWnd@@8
rdata$r	ENDS
;	COMDAT ??_7InvenFourExtraCompoundBuyWnd@@6B@
CONST	SEGMENT
??_7InvenFourExtraCompoundBuyWnd@@6B@ DD FLAT:??_R4InvenFourExtraCompoundBuyWnd@@6B@ ; InvenFourExtraCompoundBuyWnd::`vftable'
	DD	FLAT:?AddRenderFrame@ioWnd@@UAEXABVioHashString@@PAVioUIRenderFrame@@@Z
	DD	FLAT:?AddRenderImage@InvenFourExtraCompoundBuyWnd@@MAEXABVioHashString@@PAVioUIRenderImage@@@Z
	DD	FLAT:?AddTooltipHelp@ioWnd@@UAEXABVioHashString@@00@Z
	DD	FLAT:?ParseExtraInfo@InvenFourExtraCompoundBuyWnd@@MAEXAAVioXMLElement@@@Z
	DD	FLAT:?AddNamedRenderImage@ioWnd@@UAEXABVioHashString@@PAVioUIRenderImage@@@Z
	DD	FLAT:?RemoveNamedRenderImage@ioWnd@@UAEXABVioHashString@@@Z
	DD	FLAT:?GetNamedRenderImage@ioWnd@@UBEPAVioUIRenderImage@@ABVioHashString@@@Z
	DD	FLAT:?SetWindowAlpha@ioWnd@@UAEXH@Z
	DD	FLAT:?SetActive@ioWnd@@UAEXXZ
	DD	FLAT:?SetInActive@ioWnd@@UAEXXZ
	DD	FLAT:?ClearElementImageList@ioWnd@@UAEXXZ
	DD	FLAT:?SetSize@ioWnd@@UAEXHH@Z
	DD	FLAT:?SetPositionToDefault@ioWnd@@UAEXHH_N0@Z
	DD	FLAT:?IsNeedProcess@ioWnd@@UBE_NXZ
	DD	FLAT:?IsCanMouseReaction@ioWnd@@UBE_NXZ
	DD	FLAT:?AddChild@ioWnd@@UAEXPAV1@@Z
	DD	FLAT:?DeleteChild@ioWnd@@UAEXK@Z
	DD	FLAT:?DeleteAllChild@ioWnd@@UAEXXZ
	DD	FLAT:?OnRenderShowAndHide@ioWnd@@MAE_NXZ
	DD	FLAT:?OnRenderShowAndHideByDefault@ioWnd@@MAE_NK@Z
	DD	FLAT:?OnRenderShowAndHideByTop@ioWnd@@MAE_NK@Z
	DD	FLAT:?OnRenderShowAndHideByDown@ioWnd@@MAE_NK@Z
	DD	FLAT:?OnRender@InvenFourExtraCompoundBuyWnd@@MAEXXZ
	DD	FLAT:?OnRenderAfterChild@ioWnd@@MAEXXZ
	DD	FLAT:?OnProcess@InvenFourExtraCompoundBuyWnd@@MAEXM@Z
	DD	FLAT:?OnMouseProcess@ioWnd@@MAEXABVioMouse@@@Z
	DD	FLAT:?CheckFrameReSize@ioWnd@@MAEXHHHH@Z
	DD	FLAT:?RenderImageList@ioWnd@@MAEXHHW4UIRenderType@@@Z
	DD	FLAT:?iwm_create@InvenFourExtraCompoundBuyWnd@@UAEXXZ
	DD	FLAT:?iwm_destroy@ioWnd@@UAEXXZ
	DD	FLAT:?iwm_lbuttondown@ioWnd@@UAEXABVioMouse@@@Z
	DD	FLAT:?iwm_lbuttonup@ioWnd@@UAEXABVioMouse@@@Z
	DD	FLAT:?iwm_lbuttonDBLCLK@ioWnd@@UAEXABVioMouse@@@Z
	DD	FLAT:?iwm_rbuttondown@ioWnd@@UAEXABVioMouse@@@Z
	DD	FLAT:?iwm_rbuttonup@ioWnd@@UAEXABVioMouse@@@Z
	DD	FLAT:?iwm_command@InvenFourExtraCompoundBuyWnd@@UAEXPAVioWnd@@HK@Z
	DD	FLAT:?iwm_mouseover@ioWnd@@UAEXABVioMouse@@@Z
	DD	FLAT:?iwm_mousemove@ioWnd@@UAEXABVioMouse@@@Z
	DD	FLAT:?iwm_mouseleave@ioWnd@@UAEXABVioMouse@@@Z
	DD	FLAT:?iwm_vscroll@ioWnd@@UAEXKH@Z
	DD	FLAT:?iwm_wheel@ioWnd@@UAEXH@Z
	DD	FLAT:?iwm_show@InvenFourExtraCompoundBuyWnd@@UAEXXZ
	DD	FLAT:?iwm_hide@InvenFourExtraCompoundBuyWnd@@UAEXXZ
	DD	FLAT:?iwm_esc@ioWnd@@UAE_NXZ
	DD	FLAT:?iwm_spacebar@ioWnd@@UAE_NXZ
	DD	FLAT:?iwm_gototop@ioWnd@@UAEXXZ
	DD	FLAT:?iwm_dragenter@ioWnd@@UAE?AW4IWDropEffect@@PAVioDragItem@@ABVioMouse@@@Z
	DD	FLAT:?iwm_dragover@ioWnd@@UAE?AW4IWDropEffect@@PAVioDragItem@@ABVioMouse@@@Z
	DD	FLAT:?iwm_dragleave@ioWnd@@UAEXXZ
	DD	FLAT:?iwm_dropitem@ioWnd@@UAE_NPAVioDragItem@@ABVioMouse@@PAV1@@Z
	DD	FLAT:?iwm_dropdone@ioWnd@@UAEXPAVioDragItem@@PAV1@_N@Z
	DD	FLAT:?IsEXType@ioWnd@@UBE_NXZ
	DD	FLAT:?GetWndType@ioWnd@@UBEKXZ
	DD	FLAT:?RenderWnd@ioWnd@@UAEXXZ
	DD	FLAT:?SetIDEX@ioWnd@@UAEXAAK_N@Z
	DD	FLAT:?ParseXML@ioWnd@@UAEXAAVioXMLElement@@@Z
	DD	FLAT:?GetHeaderFileName@ioWnd@@UAEPBDXZ
	DD	FLAT:?GetTemplateName@ioWnd@@UAEPBDXZ
	DD	FLAT:?GetDefClassName@ioWnd@@UBEPBDXZ
	DD	FLAT:?_Clone@ioWnd@@UAEPAV1@XZ
	DD	FLAT:?Copy@ioWnd@@UAEXPAV1@@Z
	DD	FLAT:?Save@ioWnd@@UAE_NAAVioXMLElement@@@Z
	DD	FLAT:?SetSaveData@ioWnd@@UAEXAAVioXMLElement@@@Z
	DD	FLAT:?SetPosX@ioWnd@@UAEXH@Z
	DD	FLAT:?SetPosY@ioWnd@@UAEXH@Z
	DD	FLAT:?SetWidth@ioWnd@@UAEXH@Z
	DD	FLAT:?SetHeight@ioWnd@@UAEXH@Z
	DD	FLAT:?GetNumFixedRenderFrame@ioWnd@@UBEHXZ
	DD	FLAT:?GetFixedRenderFrameType@ioWnd@@UAEPBDH@Z
	DD	FLAT:?GetRenderFrame@ioWnd@@UAEPAPAVioUIRenderElement@@PBD@Z
	DD	FLAT:?GetNumFixedRenderImage@ioWnd@@UBEHXZ
	DD	FLAT:?GetFixedRenderImageType@ioWnd@@UAEPBDH@Z
	DD	FLAT:?GetRenderImage@ioWnd@@UAEPAPAVioUIRenderElement@@PBD@Z
	DD	FLAT:?AddEffect@ioWnd@@UAEXABVioHashString@@PAVioUI3DEffectRender@@@Z
	DD	FLAT:?GetEffect@ioWnd@@UAEPAVioUI3DEffectRender@@VioHashString@@@Z
	DD	FLAT:??_EInvenFourExtraCompoundBuyWnd@@UAEPAXI@Z
CONST	ENDS
;	COMDAT xdata$x
xdata$x	SEGMENT
__unwindtable$??1InvenFourExtraCompoundBuyWnd@@UAE@XZ DD 0ffffffffH
	DD	FLAT:__unwindfunclet$??1InvenFourExtraCompoundBuyWnd@@UAE@XZ$0
	DD	00H
	DD	FLAT:__unwindfunclet$??1InvenFourExtraCompoundBuyWnd@@UAE@XZ$1
__ehfuncinfo$??1InvenFourExtraCompoundBuyWnd@@UAE@XZ DD 019930522H
	DD	02H
	DD	FLAT:__unwindtable$??1InvenFourExtraCompoundBuyWnd@@UAE@XZ
	DD	2 DUP(00H)
	DD	2 DUP(00H)
	DD	00H
	DD	01H
; Function compile flags: /Ogsp
xdata$x	ENDS
;	COMDAT ??1InvenFourExtraCompoundBuyWnd@@UAE@XZ
_TEXT	SEGMENT
_this$ = -16						; size = 4
__$EHRec$ = -12						; size = 12
??1InvenFourExtraCompoundBuyWnd@@UAE@XZ PROC		; InvenFourExtraCompoundBuyWnd::~InvenFourExtraCompoundBuyWnd, COMDAT
; _this$ = ecx

; 84   : {

  00000	6a 04		 push	 4
  00002	b8 00 00 00 00	 mov	 eax, __ehhandler$??1InvenFourExtraCompoundBuyWnd@@UAE@XZ
  00007	e8 00 00 00 00	 call	 __EH_prolog3
  0000c	8b f9		 mov	 edi, ecx
  0000e	89 7d f0	 mov	 DWORD PTR _this$[ebp], edi
  00011	c7 07 00 00 00
	00		 mov	 DWORD PTR [edi], OFFSET ??_7InvenFourExtraCompoundBuyWnd@@6B@

; 85   : 	SAFEDELETE( m_pBackEffect );

  00017	8b 8f 6c 01 00
	00		 mov	 ecx, DWORD PTR [edi+364]
  0001d	33 c0		 xor	 eax, eax
  0001f	40		 inc	 eax
  00020	89 45 fc	 mov	 DWORD PTR __$EHRec$[ebp+8], eax
  00023	85 c9		 test	 ecx, ecx
  00025	74 0d		 je	 SHORT $LN1@InvenFourE
  00027	8b 11		 mov	 edx, DWORD PTR [ecx]
  00029	50		 push	 eax
  0002a	ff 52 40	 call	 DWORD PTR [edx+64]
  0002d	83 a7 6c 01 00
	00 00		 and	 DWORD PTR [edi+364], 0
$LN1@InvenFourE:

; 86   : }

  00034	8d 8f 98 01 00
	00		 lea	 ecx, DWORD PTR [edi+408]
  0003a	c6 45 fc 00	 mov	 BYTE PTR __$EHRec$[ebp+8], 0
  0003e	e8 00 00 00 00	 call	 ??1CHARACTER@@QAE@XZ
  00043	83 4d fc ff	 or	 DWORD PTR __$EHRec$[ebp+8], -1
  00047	8b cf		 mov	 ecx, edi
  00049	ff 15 00 00 00
	00		 call	 DWORD PTR __imp_??1ioWnd@@UAE@XZ
  0004f	e8 00 00 00 00	 call	 __EH_epilog3
  00054	c3		 ret	 0
_TEXT	ENDS
;	COMDAT text$x
text$x	SEGMENT
__unwindfunclet$??1InvenFourExtraCompoundBuyWnd@@UAE@XZ$0:
  00000	8b 4d f0	 mov	 ecx, DWORD PTR _this$[ebp]
  00003	ff 25 00 00 00
	00		 jmp	 DWORD PTR __imp_??1ioWnd@@UAE@XZ
__unwindfunclet$??1InvenFourExtraCompoundBuyWnd@@UAE@XZ$1:
  00009	8b 4d f0	 mov	 ecx, DWORD PTR _this$[ebp]
  0000c	81 c1 98 01 00
	00		 add	 ecx, 408		; 00000198H
  00012	e9 00 00 00 00	 jmp	 ??1CHARACTER@@QAE@XZ
__ehhandler$??1InvenFourExtraCompoundBuyWnd@@UAE@XZ:
  00017	8b 54 24 08	 mov	 edx, DWORD PTR [esp+8]
  0001b	8d 42 0c	 lea	 eax, DWORD PTR [edx+12]
  0001e	8b 4a ec	 mov	 ecx, DWORD PTR [edx-20]
  00021	33 c8		 xor	 ecx, eax
  00023	e8 00 00 00 00	 call	 @__security_check_cookie@4
  00028	b8 00 00 00 00	 mov	 eax, OFFSET __ehfuncinfo$??1InvenFourExtraCompoundBuyWnd@@UAE@XZ
  0002d	e9 00 00 00 00	 jmp	 ___CxxFrameHandler3
text$x	ENDS
??1InvenFourExtraCompoundBuyWnd@@UAE@XZ ENDP		; InvenFourExtraCompoundBuyWnd::~InvenFourExtraCompoundBuyWnd
PUBLIC	??_R0?AVInventoryIconBtn@@@8			; InventoryIconBtn `RTTI Type Descriptor'
PUBLIC	?SetIconBtn@InvenFourExtraCompoundBuyWnd@@IAEXKH@Z ; InvenFourExtraCompoundBuyWnd::SetIconBtn
EXTRN	?SetIcon@InventoryIconBtn@@QAE_NPAVioUIRenderImage@@MMHW4NumberType@1@@Z:PROC ; InventoryIconBtn::SetIcon
EXTRN	?GetExtraItem@ioUserExtraItem@@QAE_NHAAUEXTRAITEMSLOT@@@Z:PROC ; ioUserExtraItem::GetExtraItem
;	COMDAT ??_R0?AVInventoryIconBtn@@@8
; File d:\lost saga for developer\youtube\tutorial\source\src\lsclient\stdafx.h
_DATA	SEGMENT
??_R0?AVInventoryIconBtn@@@8 DD FLAT:??_7type_info@@6B@	; InventoryIconBtn `RTTI Type Descriptor'
	DD	00H
	DB	'.?AVInventoryIconBtn@@', 00H
_DATA	ENDS
;	COMDAT xdata$x
xdata$x	SEGMENT
__unwindtable$?SetIconBtn@InvenFourExtraCompoundBuyWnd@@IAEXKH@Z DD 0ffffffffH
	DD	FLAT:__unwindfunclet$?SetIconBtn@InvenFourExtraCompoundBuyWnd@@IAEXKH@Z$0
__ehfuncinfo$?SetIconBtn@InvenFourExtraCompoundBuyWnd@@IAEXKH@Z DD 019930522H
	DD	01H
	DD	FLAT:__unwindtable$?SetIconBtn@InvenFourExtraCompoundBuyWnd@@IAEXKH@Z
	DD	2 DUP(00H)
	DD	2 DUP(00H)
	DD	00H
	DD	01H
; Function compile flags: /Ogsp
; File d:\lost saga for developer\youtube\tutorial\source\src\lsclient\gui\invenfourextracompoundwnd.cpp
xdata$x	ENDS
;	COMDAT ?SetIconBtn@InvenFourExtraCompoundBuyWnd@@IAEXKH@Z
_TEXT	SEGMENT
_kSlot$ = -84						; size = 72
__$EHRec$ = -12						; size = 12
tv286 = 8						; size = 4
tv282 = 8						; size = 4
tv278 = 8						; size = 4
tv276 = 8						; size = 4
tv272 = 8						; size = 4
tv268 = 8						; size = 4
tv256 = 8						; size = 4
tv228 = 8						; size = 4
tv223 = 8						; size = 4
tv220 = 8						; size = 4
tv216 = 8						; size = 4
tv202 = 8						; size = 4
_dwID$ = 8						; size = 4
$T516623 = 12						; size = 4
_iSlotIdx$ = 12						; size = 4
?SetIconBtn@InvenFourExtraCompoundBuyWnd@@IAEXKH@Z PROC	; InvenFourExtraCompoundBuyWnd::SetIconBtn, COMDAT
; _this$ = ecx

; 354  : {

  00000	6a 48		 push	 72			; 00000048H
  00002	b8 00 00 00 00	 mov	 eax, __ehhandler$?SetIconBtn@InvenFourExtraCompoundBuyWnd@@IAEXKH@Z
  00007	e8 00 00 00 00	 call	 __EH_prolog3
  0000c	8b f9		 mov	 edi, ecx

; 355  : 	if( !COMPARE( dwID, ID_WEAPON_ICON_BTN, ID_CLOAK_ICON_BTN + 1 ) ) 

  0000e	8b 75 08	 mov	 esi, DWORD PTR _dwID$[ebp]
  00011	8d 46 f9	 lea	 eax, DWORD PTR [esi-7]
  00014	83 f8 03	 cmp	 eax, 3
  00017	0f 87 b4 01 00
	00		 ja	 $LN9@SetIconBtn

; 356  : 		return;
; 357  : 
; 358  : 	EXTRAITEMSLOT kSlot;

  0001d	8d 4d ac	 lea	 ecx, DWORD PTR _kSlot$[ebp]
  00020	e8 00 00 00 00	 call	 ??0EXTRAITEMSLOT@@QAE@XZ ; EXTRAITEMSLOT::EXTRAITEMSLOT
  00025	33 db		 xor	 ebx, ebx
  00027	89 5d fc	 mov	 DWORD PTR __$EHRec$[ebp+8], ebx

; 359  : 	ioUserExtraItem *pExtraItem = g_MyInfo.GetUserExtraItem();

  0002a	e8 00 00 00 00	 call	 ?GetSingleton@ioMyInfo@@SAAAV1@XZ ; ioMyInfo::GetSingleton
  0002f	8d 88 ac 01 00
	00		 lea	 ecx, DWORD PTR [eax+428]

; 360  : 	if( pExtraItem )

  00035	3b cb		 cmp	 ecx, ebx
  00037	0f 84 88 01 00
	00		 je	 $LN1@SetIconBtn

; 361  : 	{
; 362  : 		if( pExtraItem->GetExtraItem( iSlotIdx, kSlot ) )

  0003d	8d 45 ac	 lea	 eax, DWORD PTR _kSlot$[ebp]
  00040	50		 push	 eax
  00041	ff 75 0c	 push	 DWORD PTR _iSlotIdx$[ebp]
  00044	e8 00 00 00 00	 call	 ?GetExtraItem@ioUserExtraItem@@QAE_NHAAUEXTRAITEMSLOT@@@Z ; ioUserExtraItem::GetExtraItem

; 363  : 		{
; 364  : 			InventoryIconBtn *pIconBtn = dynamic_cast<InventoryIconBtn*>(FindChildWnd( dwID ));

  00049	53		 push	 ebx
  0004a	68 00 00 00 00	 push	 OFFSET ??_R0?AVInventoryIconBtn@@@8
  0004f	68 00 00 00 00	 push	 OFFSET ??_R0?AVioWnd@@@8
  00054	53		 push	 ebx
  00055	8b cf		 mov	 ecx, edi
  00057	56		 push	 esi
  00058	84 c0		 test	 al, al
  0005a	0f 84 d5 00 00
	00		 je	 $LN7@SetIconBtn
  00060	ff 15 00 00 00
	00		 call	 DWORD PTR __imp_?FindChildWnd@ioWnd@@QAEPAV1@K@Z
  00066	50		 push	 eax
  00067	e8 00 00 00 00	 call	 ___RTDynamicCast
  0006c	8b f0		 mov	 esi, eax
  0006e	83 c4 14	 add	 esp, 20			; 00000014H

; 365  : 			if( pIconBtn )

  00071	3b f3		 cmp	 esi, ebx
  00073	0f 84 4c 01 00
	00		 je	 $LN1@SetIconBtn

; 366  : 			{
; 367  : 				ioUIRenderImage *pImg = NULL;
; 368  : 				pImg = g_UIImageSetMgr.CreateImageByFullName( kSlot.m_IconName );

  00079	8d 45 e4	 lea	 eax, DWORD PTR _kSlot$[ebp+56]
  0007c	53		 push	 ebx
  0007d	50		 push	 eax
  0007e	ff 15 00 00 00
	00		 call	 DWORD PTR __imp_?GetSingleton@ioUIImageSetManager@@SAAAV1@XZ
  00084	8b c8		 mov	 ecx, eax
  00086	ff 15 00 00 00
	00		 call	 DWORD PTR __imp_?CreateImageByFullName@ioUIImageSetManager@@QAEPAVioUIRenderImage@@ABVioHashString@@_N@Z
  0008c	8b c8		 mov	 ecx, eax

; 369  : 				pIconBtn->SetIcon( pImg, FLOAT08, FLOAT08, kSlot.m_iReinforce );

  0008e	b8 08 00 00 00	 mov	 eax, 8
  00093	8b d0		 mov	 edx, eax
  00095	b8 0a 00 00 00	 mov	 eax, 10			; 0000000aH
  0009a	8b f8		 mov	 edi, eax
  0009c	b8 08 00 00 00	 mov	 eax, 8
  000a1	89 45 0c	 mov	 DWORD PTR $T516623[ebp], eax
  000a4	b8 0a 00 00 00	 mov	 eax, 10			; 0000000aH
  000a9	53		 push	 ebx
  000aa	ff 75 b0	 push	 DWORD PTR _kSlot$[ebp+4]
  000ad	89 55 08	 mov	 DWORD PTR tv286[ebp], edx
  000b0	db 45 08	 fild	 DWORD PTR tv286[ebp]
  000b3	85 d2		 test	 edx, edx
  000b5	79 06		 jns	 SHORT $LN39@SetIconBtn
  000b7	d8 05 00 00 00
	00		 fadd	 DWORD PTR __real@4f800000
$LN39@SetIconBtn:
  000bd	89 7d 08	 mov	 DWORD PTR tv282[ebp], edi
  000c0	db 45 08	 fild	 DWORD PTR tv282[ebp]
  000c3	85 ff		 test	 edi, edi
  000c5	79 06		 jns	 SHORT $LN40@SetIconBtn
  000c7	d8 05 00 00 00
	00		 fadd	 DWORD PTR __real@4f800000
$LN40@SetIconBtn:
  000cd	de f9		 fdivp	 ST(1), ST(0)
  000cf	8b 55 0c	 mov	 edx, DWORD PTR $T516623[ebp]
  000d2	51		 push	 ecx
  000d3	51		 push	 ecx
  000d4	d9 5d 08	 fstp	 DWORD PTR tv278[ebp]
  000d7	d9 45 08	 fld	 DWORD PTR tv278[ebp]
  000da	d9 5c 24 04	 fstp	 DWORD PTR [esp+4]
  000de	db 45 0c	 fild	 DWORD PTR $T516623[ebp]
  000e1	85 d2		 test	 edx, edx
  000e3	79 06		 jns	 SHORT $LN41@SetIconBtn
  000e5	d8 05 00 00 00
	00		 fadd	 DWORD PTR __real@4f800000
$LN41@SetIconBtn:
  000eb	89 45 08	 mov	 DWORD PTR tv272[ebp], eax
  000ee	db 45 08	 fild	 DWORD PTR tv272[ebp]
  000f1	85 c0		 test	 eax, eax
  000f3	79 06		 jns	 SHORT $LN42@SetIconBtn
  000f5	d8 05 00 00 00
	00		 fadd	 DWORD PTR __real@4f800000
$LN42@SetIconBtn:
  000fb	de f9		 fdivp	 ST(1), ST(0)
  000fd	d9 5d 08	 fstp	 DWORD PTR tv268[ebp]
  00100	d9 45 08	 fld	 DWORD PTR tv268[ebp]
  00103	d9 1c 24	 fstp	 DWORD PTR [esp]
  00106	51		 push	 ecx
  00107	8b ce		 mov	 ecx, esi
  00109	e8 00 00 00 00	 call	 ?SetIcon@InventoryIconBtn@@QAE_NPAVioUIRenderImage@@MMHW4NumberType@1@@Z ; InventoryIconBtn::SetIcon

; 370  : 				pIconBtn->SetMarkType( INVENTORY_MARK_TYPE_NONE );

  0010e	89 9e 3c 02 00
	00		 mov	 DWORD PTR [esi+572], ebx

; 371  : 				if( kSlot.m_dwFemaleCustom > 0 || kSlot.m_dwMaleCustom > 0 )

  00114	39 5d cc	 cmp	 DWORD PTR _kSlot$[ebp+32], ebx
  00117	77 10		 ja	 SHORT $LN4@SetIconBtn
  00119	39 5d c8	 cmp	 DWORD PTR _kSlot$[ebp+28], ebx
  0011c	77 0b		 ja	 SHORT $LN4@SetIconBtn

; 373  : 				else
; 374  : 					pIconBtn->SetExtraItemCustom( false );

  0011e	88 9e 78 02 00
	00		 mov	 BYTE PTR [esi+632], bl
  00124	e9 9c 00 00 00	 jmp	 $LN1@SetIconBtn
$LN4@SetIconBtn:

; 372  : 					pIconBtn->SetExtraItemCustom( true );

  00129	c6 86 78 02 00
	00 01		 mov	 BYTE PTR [esi+632], 1

; 375  : 			}
; 376  : 		}
; 377  : 		else

  00130	e9 90 00 00 00	 jmp	 $LN1@SetIconBtn
$LN7@SetIconBtn:

; 378  : 		{
; 379  : 			InventoryIconBtn *pIconBtn = dynamic_cast<InventoryIconBtn*>(FindChildWnd( dwID ));

  00135	ff 15 00 00 00
	00		 call	 DWORD PTR __imp_?FindChildWnd@ioWnd@@QAEPAV1@K@Z
  0013b	50		 push	 eax
  0013c	e8 00 00 00 00	 call	 ___RTDynamicCast
  00141	8b c8		 mov	 ecx, eax
  00143	83 c4 14	 add	 esp, 20			; 00000014H

; 380  : 			if( pIconBtn )

  00146	3b cb		 cmp	 ecx, ebx
  00148	74 7b		 je	 SHORT $LN1@SetIconBtn

; 381  : 				pIconBtn->SetIcon( NULL, FLOAT08, FLOAT08 );

  0014a	b8 08 00 00 00	 mov	 eax, 8
  0014f	8b d0		 mov	 edx, eax
  00151	b8 0a 00 00 00	 mov	 eax, 10			; 0000000aH
  00156	8b f0		 mov	 esi, eax
  00158	b8 08 00 00 00	 mov	 eax, 8
  0015d	8b f8		 mov	 edi, eax
  0015f	b8 0a 00 00 00	 mov	 eax, 10			; 0000000aH
  00164	53		 push	 ebx
  00165	89 55 08	 mov	 DWORD PTR tv256[ebp], edx
  00168	db 45 08	 fild	 DWORD PTR tv256[ebp]
  0016b	53		 push	 ebx
  0016c	85 d2		 test	 edx, edx
  0016e	79 06		 jns	 SHORT $LN43@SetIconBtn
  00170	d8 05 00 00 00
	00		 fadd	 DWORD PTR __real@4f800000
$LN43@SetIconBtn:
  00176	89 75 08	 mov	 DWORD PTR tv228[ebp], esi
  00179	db 45 08	 fild	 DWORD PTR tv228[ebp]
  0017c	85 f6		 test	 esi, esi
  0017e	79 06		 jns	 SHORT $LN44@SetIconBtn
  00180	d8 05 00 00 00
	00		 fadd	 DWORD PTR __real@4f800000
$LN44@SetIconBtn:
  00186	de f9		 fdivp	 ST(1), ST(0)
  00188	51		 push	 ecx
  00189	51		 push	 ecx
  0018a	d9 5d 08	 fstp	 DWORD PTR tv223[ebp]
  0018d	d9 45 08	 fld	 DWORD PTR tv223[ebp]
  00190	d9 5c 24 04	 fstp	 DWORD PTR [esp+4]
  00194	89 7d 08	 mov	 DWORD PTR tv220[ebp], edi
  00197	db 45 08	 fild	 DWORD PTR tv220[ebp]
  0019a	85 ff		 test	 edi, edi
  0019c	79 06		 jns	 SHORT $LN45@SetIconBtn
  0019e	d8 05 00 00 00
	00		 fadd	 DWORD PTR __real@4f800000
$LN45@SetIconBtn:
  001a4	89 45 08	 mov	 DWORD PTR tv216[ebp], eax
  001a7	db 45 08	 fild	 DWORD PTR tv216[ebp]
  001aa	85 c0		 test	 eax, eax
  001ac	79 06		 jns	 SHORT $LN46@SetIconBtn
  001ae	d8 05 00 00 00
	00		 fadd	 DWORD PTR __real@4f800000
$LN46@SetIconBtn:
  001b4	de f9		 fdivp	 ST(1), ST(0)
  001b6	d9 5d 08	 fstp	 DWORD PTR tv202[ebp]
  001b9	d9 45 08	 fld	 DWORD PTR tv202[ebp]
  001bc	d9 1c 24	 fstp	 DWORD PTR [esp]
  001bf	53		 push	 ebx
  001c0	e8 00 00 00 00	 call	 ?SetIcon@InventoryIconBtn@@QAE_NPAVioUIRenderImage@@MMHW4NumberType@1@@Z ; InventoryIconBtn::SetIcon
$LN1@SetIconBtn:

; 382  : 		}
; 383  : 	}
; 384  : }

  001c5	83 4d fc ff	 or	 DWORD PTR __$EHRec$[ebp+8], -1
  001c9	8d 4d ac	 lea	 ecx, DWORD PTR _kSlot$[ebp]
  001cc	e8 00 00 00 00	 call	 ??1EXTRAITEMSLOT@@QAE@XZ
$LN9@SetIconBtn:
  001d1	e8 00 00 00 00	 call	 __EH_epilog3
  001d6	c2 08 00	 ret	 8
_TEXT	ENDS
;	COMDAT text$x
text$x	SEGMENT
__unwindfunclet$?SetIconBtn@InvenFourExtraCompoundBuyWnd@@IAEXKH@Z$0:
  00000	8d 4d ac	 lea	 ecx, DWORD PTR _kSlot$[ebp]
  00003	e9 00 00 00 00	 jmp	 ??1EXTRAITEMSLOT@@QAE@XZ
__ehhandler$?SetIconBtn@InvenFourExtraCompoundBuyWnd@@IAEXKH@Z:
  00008	8b 54 24 08	 mov	 edx, DWORD PTR [esp+8]
  0000c	8d 42 0c	 lea	 eax, DWORD PTR [edx+12]
  0000f	8b 4a a8	 mov	 ecx, DWORD PTR [edx-88]
  00012	33 c8		 xor	 ecx, eax
  00014	e8 00 00 00 00	 call	 @__security_check_cookie@4
  00019	b8 00 00 00 00	 mov	 eax, OFFSET __ehfuncinfo$?SetIconBtn@InvenFourExtraCompoundBuyWnd@@IAEXKH@Z
  0001e	e9 00 00 00 00	 jmp	 ___CxxFrameHandler3
text$x	ENDS
?SetIconBtn@InvenFourExtraCompoundBuyWnd@@IAEXKH@Z ENDP	; InvenFourExtraCompoundBuyWnd::SetIconBtn
PUBLIC	__real@3f19999a
;	COMDAT __real@3f19999a
; File d:\lost saga for developer\youtube\tutorial\source\src\lsclient\stdafx.h
CONST	SEGMENT
__real@3f19999a DD 03f19999ar			; 0.6
; Function compile flags: /Ogsp
; File d:\lost saga for developer\youtube\tutorial\source\src\lsclient\gui\invenfourextracompoundwnd.cpp
CONST	ENDS
;	COMDAT ?OnRender@InvenFourExtraCompoundBuyWnd@@MAEXXZ
_TEXT	SEGMENT
tv344 = -12						; size = 4
tv284 = -12						; size = 4
tv282 = -8						; size = 4
_i$510551 = -4						; size = 4
_iYPos$ = -4						; size = 4
?OnRender@InvenFourExtraCompoundBuyWnd@@MAEXXZ PROC	; InvenFourExtraCompoundBuyWnd::OnRender, COMDAT
; _this$ = ecx

; 563  : {

  00000	55		 push	 ebp
  00001	8b ec		 mov	 ebp, esp
  00003	83 ec 0c	 sub	 esp, 12			; 0000000cH
  00006	53		 push	 ebx
  00007	56		 push	 esi
  00008	57		 push	 edi
  00009	8b f1		 mov	 esi, ecx

; 564  : 	ioWnd::OnRender();

  0000b	ff 15 00 00 00
	00		 call	 DWORD PTR __imp_?OnRender@ioWnd@@MAEXXZ

; 565  : 
; 566  : 	int iXPos = GetDerivedPosX();

  00011	8b ce		 mov	 ecx, esi
  00013	ff 15 00 00 00
	00		 call	 DWORD PTR __imp_?GetDerivedPosX@ioWnd@@QBEHXZ

; 567  : 	int iYPos = GetDerivedPosY();

  00019	8b ce		 mov	 ecx, esi
  0001b	8b d8		 mov	 ebx, eax
  0001d	ff 15 00 00 00
	00		 call	 DWORD PTR __imp_?GetDerivedPosY@ioWnd@@QBEHXZ

; 568  : 
; 569  : 	enum
; 570  : 	{
; 571  : 		TEXT_X_OFFSET  = 33,
; 572  : 		TEXT_Y_OFFSET  = 399,
; 573  : 
; 574  : 		BACK_X          = 129,
; 575  : 		BACK_Y          = 162,
; 576  : 	};
; 577  : 
; 578  : 	PrintManual( iXPos+TEXT_X_OFFSET, iYPos+TEXT_Y_OFFSET, FONT_SIZE_12 );

  00023	f3 0f 10 05 00
	00 00 00	 movss	 xmm0, DWORD PTR __real@3f19999a
  0002b	51		 push	 ecx
  0002c	89 45 fc	 mov	 DWORD PTR _iYPos$[ebp], eax
  0002f	05 8f 01 00 00	 add	 eax, 399		; 0000018fH
  00034	f3 0f 11 04 24	 movss	 DWORD PTR [esp], xmm0
  00039	50		 push	 eax
  0003a	8d 43 21	 lea	 eax, DWORD PTR [ebx+33]
  0003d	50		 push	 eax
  0003e	8b ce		 mov	 ecx, esi
  00040	e8 00 00 00 00	 call	 ?PrintManual@InvenFourExtraCompoundBuyWnd@@IAEXHHM@Z ; InvenFourExtraCompoundBuyWnd::PrintManual

; 579  : 
; 580  : 	// back
; 581  : 	if( m_pBackEffect )

  00045	33 ff		 xor	 edi, edi
  00047	39 be 6c 01 00
	00		 cmp	 DWORD PTR [esi+364], edi
  0004d	0f 84 db 00 00
	00		 je	 $LN1@OnRender@2

; 582  : 	{
; 583  : 		m_pBackEffect->SetAlpha( 255 );

  00053	8b 8e 6c 01 00
	00		 mov	 ecx, DWORD PTR [esi+364]
  00059	8b 01		 mov	 eax, DWORD PTR [ecx]
  0005b	68 ff 00 00 00	 push	 255			; 000000ffH
  00060	ff 50 30	 call	 DWORD PTR [eax+48]

; 584  : 		m_pBackEffect->SetScale( FLOAT1 );

  00063	b8 01 00 00 00	 mov	 eax, 1
  00068	8b 8e 6c 01 00
	00		 mov	 ecx, DWORD PTR [esi+364]
  0006e	8b 11		 mov	 edx, DWORD PTR [ecx]
  00070	89 45 f4	 mov	 DWORD PTR tv344[ebp], eax
  00073	db 45 f4	 fild	 DWORD PTR tv344[ebp]
  00076	85 c0		 test	 eax, eax
  00078	79 06		 jns	 SHORT $LN12@OnRender@2
  0007a	d8 05 00 00 00
	00		 fadd	 DWORD PTR __real@4f800000
$LN12@OnRender@2:
  00080	51		 push	 ecx
  00081	d9 1c 24	 fstp	 DWORD PTR [esp]
  00084	ff 52 1c	 call	 DWORD PTR [edx+28]

; 585  : 		m_pBackEffect->Render( iXPos+BACK_X, iYPos+BACK_Y );

  00087	8b 8e 6c 01 00
	00		 mov	 ecx, DWORD PTR [esi+364]
  0008d	8b 45 fc	 mov	 eax, DWORD PTR _iYPos$[ebp]
  00090	57		 push	 edi
  00091	57		 push	 edi
  00092	57		 push	 edi
  00093	57		 push	 edi
  00094	05 a2 00 00 00	 add	 eax, 162		; 000000a2H
  00099	51		 push	 ecx
  0009a	51		 push	 ecx
  0009b	0f 57 c0	 xorps	 xmm0, xmm0
  0009e	f3 0f 2a c0	 cvtsi2ss xmm0, eax
  000a2	8b 01		 mov	 eax, DWORD PTR [ecx]
  000a4	81 c3 81 00 00
	00		 add	 ebx, 129		; 00000081H
  000aa	0f 57 c9	 xorps	 xmm1, xmm1
  000ad	f3 0f 2a cb	 cvtsi2ss xmm1, ebx
  000b1	f3 0f 11 44 24
	04		 movss	 DWORD PTR [esp+4], xmm0
  000b7	f3 0f 11 45 f8	 movss	 DWORD PTR tv282[ebp], xmm0
  000bc	f3 0f 11 4d f4	 movss	 DWORD PTR tv284[ebp], xmm1
  000c1	f3 0f 11 0c 24	 movss	 DWORD PTR [esp], xmm1
  000c6	ff 10		 call	 DWORD PTR [eax]

; 586  : 
; 587  : 		for (int i = 0; i < MAX_BACK_EFFECT ; i++)

  000c8	89 7d fc	 mov	 DWORD PTR _i$510551[ebp], edi
  000cb	8d 9e 84 01 00
	00		 lea	 ebx, DWORD PTR [esi+388]
$LL11@OnRender@2:

; 588  : 		{
; 589  : 			m_pBackEffect->SetAlpha( m_byBackAniAlpha[i] );

  000d1	8b 55 fc	 mov	 edx, DWORD PTR _i$510551[ebp]
  000d4	0f b6 94 16 8c
	01 00 00	 movzx	 edx, BYTE PTR [esi+edx+396]
  000dc	8b 8e 6c 01 00
	00		 mov	 ecx, DWORD PTR [esi+364]
  000e2	8b 01		 mov	 eax, DWORD PTR [ecx]
  000e4	52		 push	 edx
  000e5	ff 50 30	 call	 DWORD PTR [eax+48]

; 590  : 			m_pBackEffect->SetScale( m_fBackAniScale[i] );

  000e8	8b 8e 6c 01 00
	00		 mov	 ecx, DWORD PTR [esi+364]
  000ee	f3 0f 10 03	 movss	 xmm0, DWORD PTR [ebx]
  000f2	8b 01		 mov	 eax, DWORD PTR [ecx]
  000f4	51		 push	 ecx
  000f5	f3 0f 11 04 24	 movss	 DWORD PTR [esp], xmm0
  000fa	ff 50 1c	 call	 DWORD PTR [eax+28]

; 591  : 			m_pBackEffect->Render( iXPos+BACK_X, iYPos+BACK_Y );

  000fd	8b 8e 6c 01 00
	00		 mov	 ecx, DWORD PTR [esi+364]
  00103	f3 0f 10 45 f8	 movss	 xmm0, DWORD PTR tv282[ebp]
  00108	8b 01		 mov	 eax, DWORD PTR [ecx]
  0010a	57		 push	 edi
  0010b	57		 push	 edi
  0010c	57		 push	 edi
  0010d	57		 push	 edi
  0010e	51		 push	 ecx
  0010f	51		 push	 ecx
  00110	f3 0f 11 44 24
	04		 movss	 DWORD PTR [esp+4], xmm0
  00116	f3 0f 10 45 f4	 movss	 xmm0, DWORD PTR tv284[ebp]
  0011b	f3 0f 11 04 24	 movss	 DWORD PTR [esp], xmm0
  00120	ff 10		 call	 DWORD PTR [eax]
  00122	ff 45 fc	 inc	 DWORD PTR _i$510551[ebp]
  00125	83 c3 04	 add	 ebx, 4
  00128	83 7d fc 02	 cmp	 DWORD PTR _i$510551[ebp], 2
  0012c	7c a3		 jl	 SHORT $LL11@OnRender@2
$LN1@OnRender@2:
  0012e	5f		 pop	 edi
  0012f	5e		 pop	 esi
  00130	5b		 pop	 ebx

; 592  : 		}
; 593  : 	}
; 594  : }

  00131	c9		 leave
  00132	c3		 ret	 0
?OnRender@InvenFourExtraCompoundBuyWnd@@MAEXXZ ENDP	; InvenFourExtraCompoundBuyWnd::OnRender
_TEXT	ENDS
PUBLIC	??_C@_0BH@BOGEDKNB@?$CFs?5pExtraItem?5?$DN?$DN?5NULL?4?$AA@ ; `string'
PUBLIC	??_C@_0CP@BGLNBKGF@InvenFourExtraCompoundBuyWnd?3?3Se@ ; `string'
PUBLIC	??_R0?AVSelectExtraItemBtn@@@8			; SelectExtraItemBtn `RTTI Type Descriptor'
PUBLIC	__$ArrayPad$
PUBLIC	?SendItemCompound@InvenFourExtraCompoundBuyWnd@@IAEXXZ ; InvenFourExtraCompoundBuyWnd::SendItemCompound
EXTRN	?SetMsgBox@ioSP2GUIManager@@QAAXHPAVioWnd@@PBDZZ:PROC ; ioSP2GUIManager::SetMsgBox
EXTRN	??1SP2Packet@@UAE@XZ:PROC			; SP2Packet::~SP2Packet
EXTRN	?MouseBusy@TCPNetwork@@YAX_N@Z:PROC		; TCPNetwork::MouseBusy
EXTRN	?SendToServer@TCPNetwork@@YAXAAVSP2Packet@@@Z:PROC ; TCPNetwork::SendToServer
EXTRN	??6SP2Packet@@QAEAAV0@H@Z:PROC			; SP2Packet::operator<<
EXTRN	??0SP2Packet@@QAE@K@Z:PROC			; SP2Packet::SP2Packet
EXTRN	__chkstk:PROC
;	COMDAT ??_C@_0BH@BOGEDKNB@?$CFs?5pExtraItem?5?$DN?$DN?5NULL?4?$AA@
; File d:\lost saga for developer\youtube\tutorial\source\src\lsclient\encryptvalue.h
CONST	SEGMENT
??_C@_0BH@BOGEDKNB@?$CFs?5pExtraItem?5?$DN?$DN?5NULL?4?$AA@ DB '%s pExtra'
	DB	'Item == NULL.', 00H				; `string'
CONST	ENDS
;	COMDAT ??_C@_0CP@BGLNBKGF@InvenFourExtraCompoundBuyWnd?3?3Se@
CONST	SEGMENT
??_C@_0CP@BGLNBKGF@InvenFourExtraCompoundBuyWnd?3?3Se@ DB 'InvenFourExtra'
	DB	'CompoundBuyWnd::SendItemCompound', 00H	; `string'
CONST	ENDS
;	COMDAT ??_R0?AVSelectExtraItemBtn@@@8
_DATA	SEGMENT
??_R0?AVSelectExtraItemBtn@@@8 DD FLAT:??_7type_info@@6B@ ; SelectExtraItemBtn `RTTI Type Descriptor'
	DD	00H
	DB	'.?AVSelectExtraItemBtn@@', 00H
_DATA	ENDS
;	COMDAT xdata$x
xdata$x	SEGMENT
__unwindtable$?SendItemCompound@InvenFourExtraCompoundBuyWnd@@IAEXXZ DD 0ffffffffH
	DD	FLAT:__unwindfunclet$?SendItemCompound@InvenFourExtraCompoundBuyWnd@@IAEXXZ$0
	DD	0ffffffffH
	DD	FLAT:__unwindfunclet$?SendItemCompound@InvenFourExtraCompoundBuyWnd@@IAEXXZ$1
__ehfuncinfo$?SendItemCompound@InvenFourExtraCompoundBuyWnd@@IAEXXZ DD 019930522H
	DD	02H
	DD	FLAT:__unwindtable$?SendItemCompound@InvenFourExtraCompoundBuyWnd@@IAEXXZ
	DD	2 DUP(00H)
	DD	2 DUP(00H)
	DD	00H
	DD	01H
; Function compile flags: /Ogsp
; File d:\lost saga for developer\youtube\tutorial\source\src\lsclient\gui\invenfourextracompoundwnd.cpp
xdata$x	ENDS
;	COMDAT ?SendItemCompound@InvenFourExtraCompoundBuyWnd@@IAEXXZ
_TEXT	SEGMENT
_kSlot$510592 = -32900					; size = 72
_value$516695 = -32828					; size = 4
_pExtraItem$ = -32828					; size = 4
_kPacket$ = -32824					; size = 32792
_iItemIndexList$ = -32					; size = 16
__$ArrayPad$ = -16					; size = 4
__$EHRec$ = -12						; size = 12
?SendItemCompound@InvenFourExtraCompoundBuyWnd@@IAEXXZ PROC ; InvenFourExtraCompoundBuyWnd::SendItemCompound, COMDAT
; _this$ = ecx

; 617  : {

  00000	55		 push	 ebp
  00001	8b ec		 mov	 ebp, esp
  00003	6a ff		 push	 -1
  00005	68 00 00 00 00	 push	 __ehhandler$?SendItemCompound@InvenFourExtraCompoundBuyWnd@@IAEXXZ
  0000a	64 a1 00 00 00
	00		 mov	 eax, DWORD PTR fs:0
  00010	50		 push	 eax
  00011	b8 78 80 00 00	 mov	 eax, 32888		; 00008078H
  00016	e8 00 00 00 00	 call	 __chkstk
  0001b	a1 00 00 00 00	 mov	 eax, DWORD PTR ___security_cookie
  00020	33 c5		 xor	 eax, ebp
  00022	89 45 f0	 mov	 DWORD PTR __$ArrayPad$[ebp], eax
  00025	53		 push	 ebx
  00026	56		 push	 esi
  00027	57		 push	 edi
  00028	50		 push	 eax
  00029	8d 45 f4	 lea	 eax, DWORD PTR __$EHRec$[ebp]
  0002c	64 a3 00 00 00
	00		 mov	 DWORD PTR fs:0, eax

; 618  : 	enum { MAX_ITEM = 4, };
; 619  : 	int iItemIndexList[MAX_ITEM]={ 0, 0, 0, 0 };

  00032	33 ff		 xor	 edi, edi
  00034	8b d9		 mov	 ebx, ecx
  00036	89 7d e0	 mov	 DWORD PTR _iItemIndexList$[ebp], edi
  00039	89 7d e4	 mov	 DWORD PTR _iItemIndexList$[ebp+4], edi
  0003c	89 7d e8	 mov	 DWORD PTR _iItemIndexList$[ebp+8], edi
  0003f	89 7d ec	 mov	 DWORD PTR _iItemIndexList$[ebp+12], edi

; 620  : 	for (int i = 0; i < MAX_ITEM ; i++)

  00042	33 f6		 xor	 esi, esi
$LL12@SendItemCo:

; 621  : 	{
; 622  : 		SelectExtraItemBtn *pItem = dynamic_cast<SelectExtraItemBtn*>(FindChildWnd( ID_WEAPON_SELECT_BTN + i ));

  00044	57		 push	 edi
  00045	68 00 00 00 00	 push	 OFFSET ??_R0?AVSelectExtraItemBtn@@@8
  0004a	68 00 00 00 00	 push	 OFFSET ??_R0?AVioWnd@@@8
  0004f	57		 push	 edi
  00050	8d 46 03	 lea	 eax, DWORD PTR [esi+3]
  00053	50		 push	 eax
  00054	8b cb		 mov	 ecx, ebx
  00056	ff 15 00 00 00
	00		 call	 DWORD PTR __imp_?FindChildWnd@ioWnd@@QAEPAV1@K@Z
  0005c	50		 push	 eax
  0005d	e8 00 00 00 00	 call	 ___RTDynamicCast
  00062	83 c4 14	 add	 esp, 20			; 00000014H

; 623  : 		if( !pItem )

  00065	3b c7		 cmp	 eax, edi
  00067	74 0a		 je	 SHORT $LN11@SendItemCo

; 624  : 			continue;
; 625  : 		iItemIndexList[i] = pItem->GetSelectExtraItemSlot();

  00069	8b 80 fc 01 00
	00		 mov	 eax, DWORD PTR [eax+508]
  0006f	89 44 b5 e0	 mov	 DWORD PTR _iItemIndexList$[ebp+esi*4], eax
$LN11@SendItemCo:

; 620  : 	for (int i = 0; i < MAX_ITEM ; i++)

  00073	46		 inc	 esi
  00074	83 fe 04	 cmp	 esi, 4
  00077	7c cb		 jl	 SHORT $LL12@SendItemCo

; 626  : 	}
; 627  : 
; 628  : 	ioUserExtraItem *pExtraItem = g_MyInfo.GetUserExtraItem();

  00079	e8 00 00 00 00	 call	 ?GetSingleton@ioMyInfo@@SAAAV1@XZ ; ioMyInfo::GetSingleton
  0007e	05 ac 01 00 00	 add	 eax, 428		; 000001acH
  00083	89 85 c4 7f ff
	ff		 mov	 DWORD PTR _pExtraItem$[ebp], eax

; 629  : 	if( !pExtraItem )

  00089	3b c7		 cmp	 eax, edi
  0008b	75 1f		 jne	 SHORT $LN8@SendItemCo

; 630  : 	{
; 631  : 		LOG.PrintTimeAndLog( 0, "%s pExtraItem == NULL.", __FUNCTION__ );

  0008d	68 00 00 00 00	 push	 OFFSET ??_C@_0CP@BGLNBKGF@InvenFourExtraCompoundBuyWnd?3?3Se@
  00092	68 00 00 00 00	 push	 OFFSET ??_C@_0BH@BOGEDKNB@?$CFs?5pExtraItem?5?$DN?$DN?5NULL?4?$AA@
  00097	57		 push	 edi
  00098	ff 35 00 00 00
	00		 push	 DWORD PTR __imp_?LOG@@3VCLog@@A
  0009e	ff 15 00 00 00
	00		 call	 DWORD PTR __imp_?PrintTimeAndLog@CLog@@QAAXHPADZZ
  000a4	83 c4 10	 add	 esp, 16			; 00000010H

; 632  : 		return;

  000a7	e9 cd 00 00 00	 jmp	 $LN13@SendItemCo
$LN8@SendItemCo:

; 633  : 	}
; 634  : 
; 635  : 	for (int i = 0; i < MAX_ITEM ; i++)

  000ac	33 f6		 xor	 esi, esi
$LL7@SendItemCo:

; 636  : 	{
; 637  : 		EXTRAITEMSLOT kSlot;

  000ae	8d 8d 7c 7f ff
	ff		 lea	 ecx, DWORD PTR _kSlot$510592[ebp]
  000b4	e8 00 00 00 00	 call	 ??0EXTRAITEMSLOT@@QAE@XZ ; EXTRAITEMSLOT::EXTRAITEMSLOT

; 638  : 		if( !pExtraItem->GetExtraItem( iItemIndexList[i], kSlot ) )

  000b9	8b 8d c4 7f ff
	ff		 mov	 ecx, DWORD PTR _pExtraItem$[ebp]
  000bf	8d 85 7c 7f ff
	ff		 lea	 eax, DWORD PTR _kSlot$510592[ebp]
  000c5	50		 push	 eax
  000c6	ff 74 b5 e0	 push	 DWORD PTR _iItemIndexList$[ebp+esi*4]
  000ca	89 7d fc	 mov	 DWORD PTR __$EHRec$[ebp+8], edi
  000cd	e8 00 00 00 00	 call	 ?GetExtraItem@ioUserExtraItem@@QAE_NHAAUEXTRAITEMSLOT@@@Z ; ioUserExtraItem::GetExtraItem
  000d2	84 c0		 test	 al, al
  000d4	0f 84 b9 00 00
	00		 je	 $LN26@SendItemCo

; 642  : 		}	
; 643  : 	}

  000da	83 4d fc ff	 or	 DWORD PTR __$EHRec$[ebp+8], -1
  000de	8d 8d 7c 7f ff
	ff		 lea	 ecx, DWORD PTR _kSlot$510592[ebp]
  000e4	e8 00 00 00 00	 call	 ??1EXTRAITEMSLOT@@QAE@XZ
  000e9	46		 inc	 esi
  000ea	83 fe 04	 cmp	 esi, 4
  000ed	7c bf		 jl	 SHORT $LL7@SendItemCo

; 644  : 		
; 645  : 	SP2Packet kPacket( CTPK_ETCITEM_USE );

  000ef	68 59 01 00 00	 push	 345			; 00000159H
  000f4	8d 8d c8 7f ff
	ff		 lea	 ecx, DWORD PTR _kPacket$[ebp]
  000fa	e8 00 00 00 00	 call	 ??0SP2Packet@@QAE@K@Z	; SP2Packet::SP2Packet

; 646  : 	kPacket << (int)m_dwEtcItemType;

  000ff	ff b3 60 01 00
	00		 push	 DWORD PTR [ebx+352]
  00105	33 f6		 xor	 esi, esi
  00107	46		 inc	 esi
  00108	8d 8d c8 7f ff
	ff		 lea	 ecx, DWORD PTR _kPacket$[ebp]
  0010e	89 75 fc	 mov	 DWORD PTR __$EHRec$[ebp+8], esi
  00111	e8 00 00 00 00	 call	 ??6SP2Packet@@QAEAAV0@H@Z ; SP2Packet::operator<<

; 647  : 	kPacket << (int)m_CharInfo.m_class_type;

  00116	8d 85 c4 7f ff
	ff		 lea	 eax, DWORD PTR _value$516695[ebp]
  0011c	50		 push	 eax
  0011d	8d 8b 98 01 00
	00		 lea	 ecx, DWORD PTR [ebx+408]
  00123	e8 00 00 00 00	 call	 ?DecryptValueToPool@?$CEncrypt@H@@QAEXPAH@Z ; CEncrypt<int>::DecryptValueToPool
  00128	ff b5 c4 7f ff
	ff		 push	 DWORD PTR _value$516695[ebp]
  0012e	8d 8d c8 7f ff
	ff		 lea	 ecx, DWORD PTR _kPacket$[ebp]
  00134	e8 00 00 00 00	 call	 ??6SP2Packet@@QAEAAV0@H@Z ; SP2Packet::operator<<
$LL3@SendItemCo:

; 648  : 	for (int i = 0; i < MAX_ITEM ; i++)
; 649  : 		kPacket << iItemIndexList[i];

  00139	ff 74 bd e0	 push	 DWORD PTR _iItemIndexList$[ebp+edi*4]
  0013d	8d 8d c8 7f ff
	ff		 lea	 ecx, DWORD PTR _kPacket$[ebp]
  00143	e8 00 00 00 00	 call	 ??6SP2Packet@@QAEAAV0@H@Z ; SP2Packet::operator<<
  00148	47		 inc	 edi
  00149	83 ff 04	 cmp	 edi, 4
  0014c	7c eb		 jl	 SHORT $LL3@SendItemCo

; 650  : 	TCPNetwork::SendToServer( kPacket );

  0014e	8d 85 c8 7f ff
	ff		 lea	 eax, DWORD PTR _kPacket$[ebp]
  00154	50		 push	 eax
  00155	e8 00 00 00 00	 call	 ?SendToServer@TCPNetwork@@YAXAAVSP2Packet@@@Z ; TCPNetwork::SendToServer

; 651  : 
; 652  : 	TCPNetwork::MouseBusy( true );

  0015a	56		 push	 esi
  0015b	e8 00 00 00 00	 call	 ?MouseBusy@TCPNetwork@@YAX_N@Z ; TCPNetwork::MouseBusy
  00160	59		 pop	 ecx
  00161	59		 pop	 ecx

; 653  : 
; 654  : 	HideWnd();

  00162	8b cb		 mov	 ecx, ebx
  00164	ff 15 00 00 00
	00		 call	 DWORD PTR __imp_?HideWnd@ioWnd@@QAEXXZ

; 655  : }

  0016a	83 4d fc ff	 or	 DWORD PTR __$EHRec$[ebp+8], -1
  0016e	8d 8d c8 7f ff
	ff		 lea	 ecx, DWORD PTR _kPacket$[ebp]
  00174	e8 00 00 00 00	 call	 ??1SP2Packet@@UAE@XZ	; SP2Packet::~SP2Packet
$LN13@SendItemCo:
  00179	8b 4d f4	 mov	 ecx, DWORD PTR __$EHRec$[ebp]
  0017c	64 89 0d 00 00
	00 00		 mov	 DWORD PTR fs:0, ecx
  00183	59		 pop	 ecx
  00184	5f		 pop	 edi
  00185	5e		 pop	 esi
  00186	5b		 pop	 ebx
  00187	8b 4d f0	 mov	 ecx, DWORD PTR __$ArrayPad$[ebp]
  0018a	33 cd		 xor	 ecx, ebp
  0018c	e8 00 00 00 00	 call	 @__security_check_cookie@4
  00191	c9		 leave
  00192	c3		 ret	 0
$LN26@SendItemCo:

; 639  : 		{
; 640  : 			g_GUIMgr.SetMsgBox( MB_OK, NULL, STR(1) );

  00193	57		 push	 edi
  00194	6a 01		 push	 1
  00196	68 00 00 00 00	 push	 OFFSET ??_C@_00CNPNBAHC@?$AA@
  0019b	68 00 00 00 00	 push	 OFFSET ??_C@_0CP@BGLNBKGF@InvenFourExtraCompoundBuyWnd?3?3Se@
  001a0	ff 15 00 00 00
	00		 call	 DWORD PTR __imp_?GetSingleton@ioStringManager@@SAAAV1@XZ
  001a6	8b c8		 mov	 ecx, eax
  001a8	ff 15 00 00 00
	00		 call	 DWORD PTR __imp_?GetString@ioStringManager@@QAEPADPBD0HW4FileNamePrefix@1@@Z
  001ae	50		 push	 eax
  001af	57		 push	 edi
  001b0	57		 push	 edi
  001b1	e8 00 00 00 00	 call	 ?GetSingleton@ioSP2GUIManager@@SAAAV1@XZ ; ioSP2GUIManager::GetSingleton
  001b6	50		 push	 eax
  001b7	e8 00 00 00 00	 call	 ?SetMsgBox@ioSP2GUIManager@@QAAXHPAVioWnd@@PBDZZ ; ioSP2GUIManager::SetMsgBox

; 641  : 			return;

  001bc	83 4d fc ff	 or	 DWORD PTR __$EHRec$[ebp+8], -1
  001c0	83 c4 10	 add	 esp, 16			; 00000010H
  001c3	8d 8d 7c 7f ff
	ff		 lea	 ecx, DWORD PTR _kSlot$510592[ebp]
  001c9	e8 00 00 00 00	 call	 ??1EXTRAITEMSLOT@@QAE@XZ
  001ce	eb a9		 jmp	 SHORT $LN13@SendItemCo
_TEXT	ENDS
;	COMDAT text$x
text$x	SEGMENT
__unwindfunclet$?SendItemCompound@InvenFourExtraCompoundBuyWnd@@IAEXXZ$0:
  00000	8d 8d 7c 7f ff
	ff		 lea	 ecx, DWORD PTR _kSlot$510592[ebp]
  00006	e9 00 00 00 00	 jmp	 ??1EXTRAITEMSLOT@@QAE@XZ
__unwindfunclet$?SendItemCompound@InvenFourExtraCompoundBuyWnd@@IAEXXZ$1:
  0000b	8d 8d c8 7f ff
	ff		 lea	 ecx, DWORD PTR _kPacket$[ebp]
  00011	e9 00 00 00 00	 jmp	 ??1SP2Packet@@UAE@XZ	; SP2Packet::~SP2Packet
__ehhandler$?SendItemCompound@InvenFourExtraCompoundBuyWnd@@IAEXXZ:
  00016	8b 54 24 08	 mov	 edx, DWORD PTR [esp+8]
  0001a	8d 42 0c	 lea	 eax, DWORD PTR [edx+12]
  0001d	8b 8a 78 7f ff
	ff		 mov	 ecx, DWORD PTR [edx-32904]
  00023	33 c8		 xor	 ecx, eax
  00025	e8 00 00 00 00	 call	 @__security_check_cookie@4
  0002a	8b 4a fc	 mov	 ecx, DWORD PTR [edx-4]
  0002d	33 c8		 xor	 ecx, eax
  0002f	e8 00 00 00 00	 call	 @__security_check_cookie@4
  00034	b8 00 00 00 00	 mov	 eax, OFFSET __ehfuncinfo$?SendItemCompound@InvenFourExtraCompoundBuyWnd@@IAEXXZ
  00039	e9 00 00 00 00	 jmp	 ___CxxFrameHandler3
text$x	ENDS
?SendItemCompound@InvenFourExtraCompoundBuyWnd@@IAEXXZ ENDP ; InvenFourExtraCompoundBuyWnd::SendItemCompound
PUBLIC	_this$GSCopy$
PUBLIC	__$ArrayPad$
; Function compile flags: /Ogsp
;	COMDAT ?AddRenderImage@InvenFourExtraCompoundBuyWnd@@MAEXABVioHashString@@PAVioUIRenderImage@@@Z
_TEXT	SEGMENT
_this$GSCopy$ = -24					; size = 4
__t$516745 = -20					; size = 12
__$ArrayPad$ = -4					; size = 4
_szType$ = 8						; size = 4
_pImage$ = 12						; size = 4
?AddRenderImage@InvenFourExtraCompoundBuyWnd@@MAEXABVioHashString@@PAVioUIRenderImage@@@Z PROC ; InvenFourExtraCompoundBuyWnd::AddRenderImage, COMDAT
; _this$ = ecx

; 658  : {

  00000	55		 push	 ebp
  00001	8b ec		 mov	 ebp, esp
  00003	83 ec 18	 sub	 esp, 24			; 00000018H
  00006	a1 00 00 00 00	 mov	 eax, DWORD PTR ___security_cookie
  0000b	33 c5		 xor	 eax, ebp
  0000d	89 45 fc	 mov	 DWORD PTR __$ArrayPad$[ebp], eax
  00010	53		 push	 ebx
  00011	8b 5d 0c	 mov	 ebx, DWORD PTR _pImage$[ebp]
  00014	56		 push	 esi
  00015	57		 push	 edi
  00016	8b 7d 08	 mov	 edi, DWORD PTR _szType$[ebp]

; 659  : 	if( szType == "back_effect" )

  00019	6a 02		 push	 2
  0001b	89 4d e8	 mov	 DWORD PTR _this$GSCopy$[ebp], ecx
  0001e	c7 45 ec 8f 8d
	88 81		 mov	 DWORD PTR __t$516745[ebp], -2121757297 ; 81888d8fH
  00025	c7 45 f0 b2 89
	8d 8c		 mov	 DWORD PTR __t$516745[ebp+4], -1936881230 ; 8c8d89b2H
  0002c	8d 45 ec	 lea	 eax, DWORD PTR __t$516745[ebp]
  0002f	c7 45 f4 88 8f
	9f 00		 mov	 DWORD PTR __t$516745[ebp+8], 10456968 ; 009f8f88H
  00036	59		 pop	 ecx
$LL111@AddRenderI:
  00037	81 30 ed ec eb
	ea		 xor	 DWORD PTR [eax], -353637139 ; eaebecedH
  0003d	83 c0 04	 add	 eax, 4
  00040	49		 dec	 ecx
  00041	75 f4		 jne	 SHORT $LL111@AddRenderI
  00043	6a 08		 push	 8
  00045	58		 pop	 eax
$LL108@AddRenderI:
  00046	8b c8		 mov	 ecx, eax
  00048	81 e1 03 00 00
	80		 and	 ecx, -2147483645	; 80000003H
  0004e	79 05		 jns	 SHORT $LN122@AddRenderI
  00050	49		 dec	 ecx
  00051	83 c9 fc	 or	 ecx, -4			; fffffffcH
  00054	41		 inc	 ecx
$LN122@AddRenderI:
  00055	b2 ed		 mov	 dl, -19			; ffffffedH
  00057	2a d1		 sub	 dl, cl
  00059	30 54 05 ec	 xor	 BYTE PTR __t$516745[ebp+eax], dl
  0005d	40		 inc	 eax
  0005e	83 f8 0b	 cmp	 eax, 11			; 0000000bH
  00061	7c e3		 jl	 SHORT $LL108@AddRenderI
  00063	8b cf		 mov	 ecx, edi
  00065	8d 75 ec	 lea	 esi, DWORD PTR __t$516745[ebp]
  00068	ff 15 00 00 00
	00		 call	 DWORD PTR __imp_?c_str@ioHashString@@QBEPBDXZ
$LL118@AddRenderI:
  0006e	8a 08		 mov	 cl, BYTE PTR [eax]
  00070	3a 0e		 cmp	 cl, BYTE PTR [esi]
  00072	75 1a		 jne	 SHORT $LN119@AddRenderI
  00074	84 c9		 test	 cl, cl
  00076	74 12		 je	 SHORT $LN120@AddRenderI
  00078	8a 48 01	 mov	 cl, BYTE PTR [eax+1]
  0007b	3a 4e 01	 cmp	 cl, BYTE PTR [esi+1]
  0007e	75 0e		 jne	 SHORT $LN119@AddRenderI
  00080	83 c0 02	 add	 eax, 2
  00083	83 c6 02	 add	 esi, 2
  00086	84 c9		 test	 cl, cl
  00088	75 e4		 jne	 SHORT $LL118@AddRenderI
$LN120@AddRenderI:
  0008a	33 c0		 xor	 eax, eax
  0008c	eb 05		 jmp	 SHORT $LN121@AddRenderI
$LN119@AddRenderI:
  0008e	1b c0		 sbb	 eax, eax
  00090	83 d8 ff	 sbb	 eax, -1
$LN121@AddRenderI:
  00093	85 c0		 test	 eax, eax
  00095	75 23		 jne	 SHORT $LN3@AddRenderI

; 660  : 	{
; 661  : 		SAFEDELETE( m_pBackEffect );

  00097	8b 75 e8	 mov	 esi, DWORD PTR _this$GSCopy$[ebp]
  0009a	8b 8e 6c 01 00
	00		 mov	 ecx, DWORD PTR [esi+364]
  000a0	85 c9		 test	 ecx, ecx
  000a2	74 0e		 je	 SHORT $LN2@AddRenderI
  000a4	8b 01		 mov	 eax, DWORD PTR [ecx]
  000a6	6a 01		 push	 1
  000a8	ff 50 40	 call	 DWORD PTR [eax+64]
  000ab	83 a6 6c 01 00
	00 00		 and	 DWORD PTR [esi+364], 0
$LN2@AddRenderI:

; 662  : 		m_pBackEffect = pImage;

  000b2	89 9e 6c 01 00
	00		 mov	 DWORD PTR [esi+364], ebx

; 663  : 	}
; 664  : 	else

  000b8	eb 0b		 jmp	 SHORT $LN1@AddRenderI
$LN3@AddRenderI:

; 665  : 		ioWnd::AddRenderImage( szType, pImage );

  000ba	8b 4d e8	 mov	 ecx, DWORD PTR _this$GSCopy$[ebp]
  000bd	53		 push	 ebx
  000be	57		 push	 edi
  000bf	ff 15 00 00 00
	00		 call	 DWORD PTR __imp_?AddRenderImage@ioWnd@@UAEXABVioHashString@@PAVioUIRenderImage@@@Z
$LN1@AddRenderI:

; 666  : }

  000c5	8b 4d fc	 mov	 ecx, DWORD PTR __$ArrayPad$[ebp]
  000c8	5f		 pop	 edi
  000c9	5e		 pop	 esi
  000ca	33 cd		 xor	 ecx, ebp
  000cc	5b		 pop	 ebx
  000cd	e8 00 00 00 00	 call	 @__security_check_cookie@4
  000d2	c9		 leave
  000d3	c2 08 00	 ret	 8
?AddRenderImage@InvenFourExtraCompoundBuyWnd@@MAEXABVioHashString@@PAVioUIRenderImage@@@Z ENDP ; InvenFourExtraCompoundBuyWnd::AddRenderImage
_TEXT	ENDS
PUBLIC	??_C@_0BD@DJJDIDGL@back_ani_alpha_gap?$AA@	; `string'
PUBLIC	??_C@_0BG@DBLBDPBD@back_ani_size_per_gap?$AA@	; `string'
PUBLIC	??_C@_0N@PCKCPBFI@back_ani_gap?$AA@		; `string'
PUBLIC	_xElement$GSCopy$
PUBLIC	__$ArrayPad$
EXTRN	_memset:PROC
;	COMDAT ??_C@_0BD@DJJDIDGL@back_ani_alpha_gap?$AA@
CONST	SEGMENT
??_C@_0BD@DJJDIDGL@back_ani_alpha_gap?$AA@ DB 'back_ani_alpha_gap', 00H ; `string'
CONST	ENDS
;	COMDAT ??_C@_0BG@DBLBDPBD@back_ani_size_per_gap?$AA@
CONST	SEGMENT
??_C@_0BG@DBLBDPBD@back_ani_size_per_gap?$AA@ DB 'back_ani_size_per_gap', 00H ; `string'
CONST	ENDS
;	COMDAT ??_C@_0N@PCKCPBFI@back_ani_gap?$AA@
CONST	SEGMENT
??_C@_0N@PCKCPBFI@back_ani_gap?$AA@ DB 'back_ani_gap', 00H ; `string'
; Function compile flags: /Ogsp
CONST	ENDS
;	COMDAT ?ParseExtraInfo@InvenFourExtraCompoundBuyWnd@@MAEXAAVioXMLElement@@@Z
_TEXT	SEGMENT
_xElement$GSCopy$ = -268				; size = 4
_szKeyName$ = -264					; size = 260
__$ArrayPad$ = -4					; size = 4
_xElement$ = 8						; size = 4
?ParseExtraInfo@InvenFourExtraCompoundBuyWnd@@MAEXAAVioXMLElement@@@Z PROC ; InvenFourExtraCompoundBuyWnd::ParseExtraInfo, COMDAT
; _this$ = ecx

; 669  : {

  00000	55		 push	 ebp
  00001	8b ec		 mov	 ebp, esp
  00003	81 ec 0c 01 00
	00		 sub	 esp, 268		; 0000010cH
  00009	a1 00 00 00 00	 mov	 eax, DWORD PTR ___security_cookie
  0000e	33 c5		 xor	 eax, ebp
  00010	89 45 fc	 mov	 DWORD PTR __$ArrayPad$[ebp], eax
  00013	53		 push	 ebx
  00014	56		 push	 esi
  00015	57		 push	 edi
  00016	8b 7d 08	 mov	 edi, DWORD PTR _xElement$[ebp]

; 670  : 	char szKeyName[MAX_PATH]="";
; 671  : 	ZeroMemory( szKeyName, sizeof( szKeyName ) );

  00019	be 04 01 00 00	 mov	 esi, 260		; 00000104H
  0001e	56		 push	 esi
  0001f	8d 85 f8 fe ff
	ff		 lea	 eax, DWORD PTR _szKeyName$[ebp]
  00025	6a 00		 push	 0
  00027	50		 push	 eax
  00028	8b d9		 mov	 ebx, ecx
  0002a	89 bd f4 fe ff
	ff		 mov	 DWORD PTR _xElement$GSCopy$[ebp], edi
  00030	e8 00 00 00 00	 call	 _memset

; 672  : 	StringCbPrintf( szKeyName, sizeof( szKeyName ), "back_ani_gap" );

  00035	68 00 00 00 00	 push	 OFFSET ??_C@_0N@PCKCPBFI@back_ani_gap?$AA@
  0003a	8d 85 f8 fe ff
	ff		 lea	 eax, DWORD PTR _szKeyName$[ebp]
  00040	56		 push	 esi
  00041	50		 push	 eax
  00042	e8 00 00 00 00	 call	 ?StringCbPrintfA@@YAJPADIPBDZZ ; StringCbPrintfA
  00047	83 c4 18	 add	 esp, 24			; 00000018H

; 673  : 	m_dwBackAniTime = xElement.GetIntAttribute( szKeyName );

  0004a	8d 85 f8 fe ff
	ff		 lea	 eax, DWORD PTR _szKeyName$[ebp]
  00050	8b cf		 mov	 ecx, edi
  00052	8b 3d 00 00 00
	00		 mov	 edi, DWORD PTR __imp_?GetIntAttribute@ioXMLElement@@QBEHPBD@Z
  00058	50		 push	 eax
  00059	ff d7		 call	 edi

; 674  : 
; 675  : 	ZeroMemory( szKeyName, sizeof( szKeyName ) );

  0005b	56		 push	 esi
  0005c	89 83 70 01 00
	00		 mov	 DWORD PTR [ebx+368], eax
  00062	8d 85 f8 fe ff
	ff		 lea	 eax, DWORD PTR _szKeyName$[ebp]
  00068	6a 00		 push	 0
  0006a	50		 push	 eax
  0006b	e8 00 00 00 00	 call	 _memset

; 676  : 	StringCbPrintf( szKeyName, sizeof( szKeyName ), "back_ani_size_per_gap" );

  00070	68 00 00 00 00	 push	 OFFSET ??_C@_0BG@DBLBDPBD@back_ani_size_per_gap?$AA@
  00075	8d 85 f8 fe ff
	ff		 lea	 eax, DWORD PTR _szKeyName$[ebp]
  0007b	56		 push	 esi
  0007c	50		 push	 eax
  0007d	e8 00 00 00 00	 call	 ?StringCbPrintfA@@YAJPADIPBDZZ ; StringCbPrintfA

; 677  : 	m_dwBackAniSizePerGap = xElement.GetIntAttribute( szKeyName );

  00082	8b 8d f4 fe ff
	ff		 mov	 ecx, DWORD PTR _xElement$GSCopy$[ebp]
  00088	83 c4 18	 add	 esp, 24			; 00000018H
  0008b	8d 85 f8 fe ff
	ff		 lea	 eax, DWORD PTR _szKeyName$[ebp]
  00091	50		 push	 eax
  00092	ff d7		 call	 edi

; 678  : 
; 679  : 	ZeroMemory( szKeyName, sizeof( szKeyName ) );

  00094	56		 push	 esi
  00095	89 83 7c 01 00
	00		 mov	 DWORD PTR [ebx+380], eax
  0009b	8d 85 f8 fe ff
	ff		 lea	 eax, DWORD PTR _szKeyName$[ebp]
  000a1	6a 00		 push	 0
  000a3	50		 push	 eax
  000a4	e8 00 00 00 00	 call	 _memset

; 680  : 	StringCbPrintf( szKeyName, sizeof( szKeyName ), "back_ani_alpha_gap" );

  000a9	68 00 00 00 00	 push	 OFFSET ??_C@_0BD@DJJDIDGL@back_ani_alpha_gap?$AA@
  000ae	8d 85 f8 fe ff
	ff		 lea	 eax, DWORD PTR _szKeyName$[ebp]
  000b4	56		 push	 esi
  000b5	50		 push	 eax
  000b6	e8 00 00 00 00	 call	 ?StringCbPrintfA@@YAJPADIPBDZZ ; StringCbPrintfA

; 681  : 	m_dwBackAniAlphaGap = xElement.GetIntAttribute( szKeyName );

  000bb	8b 8d f4 fe ff
	ff		 mov	 ecx, DWORD PTR _xElement$GSCopy$[ebp]
  000c1	83 c4 18	 add	 esp, 24			; 00000018H
  000c4	8d 85 f8 fe ff
	ff		 lea	 eax, DWORD PTR _szKeyName$[ebp]
  000ca	50		 push	 eax
  000cb	ff d7		 call	 edi

; 682  : }

  000cd	8b 4d fc	 mov	 ecx, DWORD PTR __$ArrayPad$[ebp]
  000d0	5f		 pop	 edi
  000d1	5e		 pop	 esi
  000d2	89 83 80 01 00
	00		 mov	 DWORD PTR [ebx+384], eax
  000d8	33 cd		 xor	 ecx, ebp
  000da	5b		 pop	 ebx
  000db	e8 00 00 00 00	 call	 @__security_check_cookie@4
  000e0	c9		 leave
  000e1	c2 04 00	 ret	 4
?ParseExtraInfo@InvenFourExtraCompoundBuyWnd@@MAEXAAVioXMLElement@@@Z ENDP ; InvenFourExtraCompoundBuyWnd::ParseExtraInfo
_TEXT	ENDS
PUBLIC	__real@44160000
PUBLIC	_iClassType$GSCopy$
PUBLIC	_iClassTime$GSCopy$
PUBLIC	__$ArrayPad$
PUBLIC	?ShowResult@InvenFourExtraCompoundBuyResultWnd@@QAEXHHK_N@Z ; InvenFourExtraCompoundBuyResultWnd::ShowResult
EXTRN	?SetCharActionAnimation@NewShopHelpWnd@@QAEXABVioHashString@@MM@Z:PROC ; NewShopHelpWnd::SetCharActionAnimation
EXTRN	?EquipItem@NewShopHelpWnd@@QAEXKKKH_N@Z:PROC	; NewShopHelpWnd::EquipItem
EXTRN	?SetChar@NewShopHelpWnd@@QAEXABUCHARACTER@@@Z:PROC ; NewShopHelpWnd::SetChar
EXTRN	?SetZPosition@NewShopHelpWnd@@QAEXM@Z:PROC	; NewShopHelpWnd::SetZPosition
EXTRN	?GetDefaultCharInfo@NewShopBuyWnd@@SAXAAUCHARACTER@@HH@Z:PROC ; NewShopBuyWnd::GetDefaultCharInfo
EXTRN	__imp_?PlaySoundA@ioSoundManager@@QAEKABVioHashString@@HK@Z:PROC
EXTRN	?GetPresentValue2Text@ioPresentMgr@@QAEABVioHashString@@FHH@Z:PROC ; ioPresentMgr::GetPresentValue2Text
EXTRN	?GetSingleton@ioPresentMgr@@SAAAV1@XZ:PROC	; ioPresentMgr::GetSingleton
EXTRN	__imp_??4ioHashString@@QAEAAV0@PBD@Z:PROC
EXTRN	__imp_?SafeSprintf@@YAXPADHPBDZZ:PROC
;	COMDAT __real@44160000
; File d:\lost saga for developer\youtube\tutorial\source\src\lsclient\stdafx.h
CONST	SEGMENT
__real@44160000 DD 044160000r			; 600
; Function compile flags: /Ogsp
; File d:\lost saga for developer\youtube\tutorial\source\src\lsclient\gui\invenfourextracompoundwnd.cpp
CONST	ENDS
;	COMDAT ?ShowResult@InvenFourExtraCompoundBuyResultWnd@@QAEXHHK_N@Z
_TEXT	SEGMENT
_iClassTime$GSCopy$ = -272				; size = 4
tv348 = -268						; size = 4
tv346 = -268						; size = 4
_iClassType$GSCopy$ = -268				; size = 4
_value$516882 = -268					; size = 4
_value$516878 = -268					; size = 4
_value$516874 = -268					; size = 4
_value$516870 = -268					; size = 4
_szBuf$ = -264						; size = 260
__$ArrayPad$ = -4					; size = 4
_iClassType$ = 8					; size = 4
_iClassTime$ = 12					; size = 4
_dwEtcItemType$ = 16					; size = 4
_bSuccess$ = 20						; size = 1
?ShowResult@InvenFourExtraCompoundBuyResultWnd@@QAEXHHK_N@Z PROC ; InvenFourExtraCompoundBuyResultWnd::ShowResult, COMDAT
; _this$ = ecx

; 794  : {

  00000	55		 push	 ebp
  00001	8b ec		 mov	 ebp, esp
  00003	81 ec 10 01 00
	00		 sub	 esp, 272		; 00000110H
  00009	a1 00 00 00 00	 mov	 eax, DWORD PTR ___security_cookie
  0000e	33 c5		 xor	 eax, ebp
  00010	89 45 fc	 mov	 DWORD PTR __$ArrayPad$[ebp], eax
  00013	8b 45 0c	 mov	 eax, DWORD PTR _iClassTime$[ebp]
  00016	53		 push	 ebx
  00017	56		 push	 esi
  00018	89 85 f0 fe ff
	ff		 mov	 DWORD PTR _iClassTime$GSCopy$[ebp], eax

; 795  : 	m_dwEtcItemType = dwEtcItemType;

  0001e	8b 45 10	 mov	 eax, DWORD PTR _dwEtcItemType$[ebp]
  00021	8b f1		 mov	 esi, ecx
  00023	57		 push	 edi
  00024	8b 7d 08	 mov	 edi, DWORD PTR _iClassType$[ebp]
  00027	89 86 34 02 00
	00		 mov	 DWORD PTR [esi+564], eax

; 796  : 	m_bResult       = false;
; 797  : 	m_bSuccess      = bSuccess;

  0002d	8a 45 14	 mov	 al, BYTE PTR _bSuccess$[ebp]
  00030	33 db		 xor	 ebx, ebx

; 798  : 
; 799  : 	char szBuf[MAX_PATH] = "";

  00032	68 03 01 00 00	 push	 259			; 00000103H
  00037	88 86 11 02 00
	00		 mov	 BYTE PTR [esi+529], al
  0003d	8d 85 f9 fe ff
	ff		 lea	 eax, DWORD PTR _szBuf$[ebp+1]
  00043	53		 push	 ebx
  00044	50		 push	 eax

; 800  : 	SafeSprintf( szBuf, sizeof( szBuf ), g_MyInfo.GetClassName( iClassType ) );
; 801  : 	m_sTitleName  = szBuf;
; 802  : 	m_sClassTime = g_PresentMgr.GetPresentValue2Text( PRESENT_SOLDIER, iClassType, iClassTime );
; 803  : 
; 804  : 	SAFEDELETE(m_pEffect);

  00045	89 bd f4 fe ff
	ff		 mov	 DWORD PTR _iClassType$GSCopy$[ebp], edi
  0004b	88 9e 10 02 00
	00		 mov	 BYTE PTR [esi+528], bl
  00051	88 9d f8 fe ff
	ff		 mov	 BYTE PTR _szBuf$[ebp], bl
  00057	e8 00 00 00 00	 call	 _memset
  0005c	83 c4 0c	 add	 esp, 12			; 0000000cH
  0005f	53		 push	 ebx
  00060	57		 push	 edi
  00061	e8 00 00 00 00	 call	 ?GetSingleton@ioMyInfo@@SAAAV1@XZ ; ioMyInfo::GetSingleton
  00066	8b c8		 mov	 ecx, eax
  00068	e8 00 00 00 00	 call	 ?GetClassNameA@ioMyInfo@@QAEPBDHH@Z ; ioMyInfo::GetClassNameA
  0006d	50		 push	 eax
  0006e	8d 85 f8 fe ff
	ff		 lea	 eax, DWORD PTR _szBuf$[ebp]
  00074	68 04 01 00 00	 push	 260			; 00000104H
  00079	50		 push	 eax
  0007a	ff 15 00 00 00
	00		 call	 DWORD PTR __imp_?SafeSprintf@@YAXPADHPBDZZ
  00080	83 c4 0c	 add	 esp, 12			; 0000000cH
  00083	8d 85 f8 fe ff
	ff		 lea	 eax, DWORD PTR _szBuf$[ebp]
  00089	50		 push	 eax
  0008a	8d 8e 14 02 00
	00		 lea	 ecx, DWORD PTR [esi+532]
  00090	ff 15 00 00 00
	00		 call	 DWORD PTR __imp_??4ioHashString@@QAEAAV0@PBD@Z
  00096	ff b5 f0 fe ff
	ff		 push	 DWORD PTR _iClassTime$GSCopy$[ebp]
  0009c	57		 push	 edi
  0009d	6a 01		 push	 1
  0009f	e8 00 00 00 00	 call	 ?GetSingleton@ioPresentMgr@@SAAAV1@XZ ; ioPresentMgr::GetSingleton
  000a4	8b c8		 mov	 ecx, eax
  000a6	e8 00 00 00 00	 call	 ?GetPresentValue2Text@ioPresentMgr@@QAEABVioHashString@@FHH@Z ; ioPresentMgr::GetPresentValue2Text
  000ab	50		 push	 eax
  000ac	8d 8e 24 02 00
	00		 lea	 ecx, DWORD PTR [esi+548]
  000b2	ff 15 00 00 00
	00		 call	 DWORD PTR __imp_??4ioHashString@@QAEAAV0@ABV0@@Z
  000b8	8b 8e 60 01 00
	00		 mov	 ecx, DWORD PTR [esi+352]
  000be	3b cb		 cmp	 ecx, ebx
  000c0	74 0d		 je	 SHORT $LN5@ShowResult
  000c2	8b 01		 mov	 eax, DWORD PTR [ecx]
  000c4	6a 01		 push	 1
  000c6	ff 50 40	 call	 DWORD PTR [eax+64]
  000c9	89 9e 60 01 00
	00		 mov	 DWORD PTR [esi+352], ebx
$LN5@ShowResult:

; 805  : 
; 806  : 	ShowWnd();

  000cf	8b ce		 mov	 ecx, esi
  000d1	ff 15 00 00 00
	00		 call	 DWORD PTR __imp_?ShowWnd@ioWnd@@QAEXXZ

; 807  : 
; 808  : 	DWORD dwCurTime = FRAMEGETTIME();

  000d7	ff 15 00 00 00
	00		 call	 DWORD PTR __imp_?GetSingleton@ioFrameTimer@@SAAAV1@XZ
  000dd	8b c8		 mov	 ecx, eax
  000df	ff 15 00 00 00
	00		 call	 DWORD PTR __imp_?GetLoopSec@ioFrameTimer@@QBEKXZ

; 809  : 	m_dwRollingEndTime = dwCurTime + m_dwRollingTotalTime;

  000e5	8b 8e 84 01 00
	00		 mov	 ecx, DWORD PTR [esi+388]

; 810  : 	m_dwRollingEffectCheckTime = 0;
; 811  : 	m_dwBackEffectCheckTime = 0;
; 812  : 
; 813  : 	m_iCurEffectArray = -1;

  000eb	83 8e 8c 01 00
	00 ff		 or	 DWORD PTR [esi+396], -1
  000f2	03 c8		 add	 ecx, eax
  000f4	89 8e 88 01 00
	00		 mov	 DWORD PTR [esi+392], ecx

; 814  : 
; 815  : 	ReBatchButton( ROLLING_BTN );

  000fa	6a 01		 push	 1
  000fc	8b ce		 mov	 ecx, esi
  000fe	89 9e 94 01 00
	00		 mov	 DWORD PTR [esi+404], ebx
  00104	89 9e 9c 01 00
	00		 mov	 DWORD PTR [esi+412], ebx
  0010a	e8 00 00 00 00	 call	 ?ReBatchButton@InvenFourExtraCompoundBuyResultWnd@@IAEXH@Z ; InvenFourExtraCompoundBuyResultWnd::ReBatchButton

; 816  : 
; 817  : 	if( !m_szDestroySound.IsEmpty() )

  0010f	8d be a0 01 00
	00		 lea	 edi, DWORD PTR [esi+416]
  00115	8b cf		 mov	 ecx, edi
  00117	ff 15 00 00 00
	00		 call	 DWORD PTR __imp_?IsEmpty@ioHashString@@QBE_NXZ
  0011d	84 c0		 test	 al, al
  0011f	75 12		 jne	 SHORT $LN22@ShowResult

; 818  : 		g_SoundMgr.PlaySound( m_szDestroySound, DSBVOLUME_MAX, PSM_THREAD );

  00121	6a 04		 push	 4
  00123	53		 push	 ebx
  00124	57		 push	 edi
  00125	ff 15 00 00 00
	00		 call	 DWORD PTR __imp_?GetSingleton@ioSoundManager@@SAAAV1@XZ
  0012b	8b c8		 mov	 ecx, eax
  0012d	ff 15 00 00 00
	00		 call	 DWORD PTR __imp_?PlaySoundA@ioSoundManager@@QAEKABVioHashString@@HK@Z
$LN22@ShowResult:

; 819  : 
; 820  : 	if( !m_szRollingSound.IsEmpty() )

  00133	8d be b0 01 00
	00		 lea	 edi, DWORD PTR [esi+432]
  00139	8b cf		 mov	 ecx, edi
  0013b	ff 15 00 00 00
	00		 call	 DWORD PTR __imp_?IsEmpty@ioHashString@@QBE_NXZ
  00141	84 c0		 test	 al, al
  00143	75 12		 jne	 SHORT $LN3@ShowResult

; 821  : 		g_SoundMgr.PlaySound( m_szRollingSound, DSBVOLUME_MAX, PSM_LOOP | PSM_THREAD );

  00145	6a 06		 push	 6
  00147	53		 push	 ebx
  00148	57		 push	 edi
  00149	ff 15 00 00 00
	00		 call	 DWORD PTR __imp_?GetSingleton@ioSoundManager@@SAAAV1@XZ
  0014f	8b c8		 mov	 ecx, eax
  00151	ff 15 00 00 00
	00		 call	 DWORD PTR __imp_?PlaySoundA@ioSoundManager@@QAEKABVioHashString@@HK@Z
$LN3@ShowResult:

; 822  : 
; 823  : 	NewShopBuyWnd::GetDefaultCharInfo( m_CharInfo, iClassType );

  00157	6a ff		 push	 -1
  00159	ff b5 f4 fe ff
	ff		 push	 DWORD PTR _iClassType$GSCopy$[ebp]
  0015f	8d 86 38 02 00
	00		 lea	 eax, DWORD PTR [esi+568]
  00165	50		 push	 eax
  00166	e8 00 00 00 00	 call	 ?GetDefaultCharInfo@NewShopBuyWnd@@SAXAAUCHARACTER@@HH@Z ; NewShopBuyWnd::GetDefaultCharInfo
  0016b	83 c4 0c	 add	 esp, 12			; 0000000cH

; 824  : 	NewShopHelpWnd *pCharWnd = dynamic_cast<NewShopHelpWnd *>( FindChildWnd( ID_SOLDIER_WND ));

  0016e	53		 push	 ebx
  0016f	68 00 00 00 00	 push	 OFFSET ??_R0?AVNewShopHelpWnd@@@8
  00174	68 00 00 00 00	 push	 OFFSET ??_R0?AVioWnd@@@8
  00179	53		 push	 ebx
  0017a	68 e8 03 00 00	 push	 1000			; 000003e8H
  0017f	8b ce		 mov	 ecx, esi
  00181	ff 15 00 00 00
	00		 call	 DWORD PTR __imp_?FindChildWnd@ioWnd@@QAEPAV1@K@Z
  00187	50		 push	 eax
  00188	e8 00 00 00 00	 call	 ___RTDynamicCast
  0018d	8b f8		 mov	 edi, eax
  0018f	83 c4 14	 add	 esp, 20			; 00000014H

; 825  : 	if( pCharWnd )

  00192	3b fb		 cmp	 edi, ebx
  00194	0f 84 35 01 00
	00		 je	 $LN2@ShowResult

; 826  : 	{
; 827  : 		pCharWnd->SetZPosition( 600.0f );

  0019a	f3 0f 10 05 00
	00 00 00	 movss	 xmm0, DWORD PTR __real@44160000
  001a2	51		 push	 ecx
  001a3	8b cf		 mov	 ecx, edi
  001a5	f3 0f 11 04 24	 movss	 DWORD PTR [esp], xmm0
  001aa	e8 00 00 00 00	 call	 ?SetZPosition@NewShopHelpWnd@@QAEXM@Z ; NewShopHelpWnd::SetZPosition

; 828  : 		pCharWnd->SetChar( m_CharInfo );

  001af	8d 86 38 02 00
	00		 lea	 eax, DWORD PTR [esi+568]
  001b5	50		 push	 eax
  001b6	8b cf		 mov	 ecx, edi
  001b8	e8 00 00 00 00	 call	 ?SetChar@NewShopHelpWnd@@QAEXABUCHARACTER@@@Z ; NewShopHelpWnd::SetChar

; 829  : 		pCharWnd->SetEquip( false, true, false );

  001bd	53		 push	 ebx
  001be	6a 01		 push	 1
  001c0	53		 push	 ebx
  001c1	8b cf		 mov	 ecx, edi
  001c3	e8 00 00 00 00	 call	 ?SetEquip@NewShopHelpWnd@@QAEX_N00@Z ; NewShopHelpWnd::SetEquip

; 830  : 		pCharWnd->EquipItem( 10000+m_CharInfo.m_class_type, 0, 0 );

  001c8	8d 85 f4 fe ff
	ff		 lea	 eax, DWORD PTR _value$516870[ebp]
  001ce	50		 push	 eax
  001cf	8d 8e 38 02 00
	00		 lea	 ecx, DWORD PTR [esi+568]
  001d5	e8 00 00 00 00	 call	 ?DecryptValueToPool@?$CEncrypt@H@@QAEXPAH@Z ; CEncrypt<int>::DecryptValueToPool
  001da	8b 85 f4 fe ff
	ff		 mov	 eax, DWORD PTR _value$516870[ebp]
  001e0	53		 push	 ebx
  001e1	53		 push	 ebx
  001e2	53		 push	 ebx
  001e3	53		 push	 ebx
  001e4	05 10 27 00 00	 add	 eax, 10000		; 00002710H
  001e9	50		 push	 eax
  001ea	8b cf		 mov	 ecx, edi
  001ec	e8 00 00 00 00	 call	 ?EquipItem@NewShopHelpWnd@@QAEXKKKH_N@Z ; NewShopHelpWnd::EquipItem

; 831  : 		pCharWnd->EquipItem( 110000+m_CharInfo.m_class_type, 0, 0 );

  001f1	8d 85 f4 fe ff
	ff		 lea	 eax, DWORD PTR _value$516874[ebp]
  001f7	50		 push	 eax
  001f8	8d 8e 38 02 00
	00		 lea	 ecx, DWORD PTR [esi+568]
  001fe	e8 00 00 00 00	 call	 ?DecryptValueToPool@?$CEncrypt@H@@QAEXPAH@Z ; CEncrypt<int>::DecryptValueToPool
  00203	8b 85 f4 fe ff
	ff		 mov	 eax, DWORD PTR _value$516874[ebp]
  00209	53		 push	 ebx
  0020a	53		 push	 ebx
  0020b	53		 push	 ebx
  0020c	53		 push	 ebx
  0020d	05 b0 ad 01 00	 add	 eax, 110000		; 0001adb0H
  00212	50		 push	 eax
  00213	8b cf		 mov	 ecx, edi
  00215	e8 00 00 00 00	 call	 ?EquipItem@NewShopHelpWnd@@QAEXKKKH_N@Z ; NewShopHelpWnd::EquipItem

; 832  : 		pCharWnd->EquipItem( 210000+m_CharInfo.m_class_type, 0, 0 );

  0021a	8d 85 f4 fe ff
	ff		 lea	 eax, DWORD PTR _value$516878[ebp]
  00220	50		 push	 eax
  00221	8d 8e 38 02 00
	00		 lea	 ecx, DWORD PTR [esi+568]
  00227	e8 00 00 00 00	 call	 ?DecryptValueToPool@?$CEncrypt@H@@QAEXPAH@Z ; CEncrypt<int>::DecryptValueToPool
  0022c	8b 85 f4 fe ff
	ff		 mov	 eax, DWORD PTR _value$516878[ebp]
  00232	53		 push	 ebx
  00233	53		 push	 ebx
  00234	53		 push	 ebx
  00235	53		 push	 ebx
  00236	05 50 34 03 00	 add	 eax, 210000		; 00033450H
  0023b	50		 push	 eax
  0023c	8b cf		 mov	 ecx, edi
  0023e	e8 00 00 00 00	 call	 ?EquipItem@NewShopHelpWnd@@QAEXKKKH_N@Z ; NewShopHelpWnd::EquipItem

; 833  : 		pCharWnd->EquipItem( 310000+m_CharInfo.m_class_type, 0, 0 );

  00243	8d 85 f4 fe ff
	ff		 lea	 eax, DWORD PTR _value$516882[ebp]
  00249	50		 push	 eax
  0024a	8d 8e 38 02 00
	00		 lea	 ecx, DWORD PTR [esi+568]
  00250	e8 00 00 00 00	 call	 ?DecryptValueToPool@?$CEncrypt@H@@QAEXPAH@Z ; CEncrypt<int>::DecryptValueToPool
  00255	8b 85 f4 fe ff
	ff		 mov	 eax, DWORD PTR _value$516882[ebp]
  0025b	53		 push	 ebx
  0025c	53		 push	 ebx
  0025d	53		 push	 ebx
  0025e	53		 push	 ebx
  0025f	05 f0 ba 04 00	 add	 eax, 310000		; 0004baf0H
  00264	50		 push	 eax
  00265	8b cf		 mov	 ecx, edi
  00267	e8 00 00 00 00	 call	 ?EquipItem@NewShopHelpWnd@@QAEXKKKH_N@Z ; NewShopHelpWnd::EquipItem

; 834  : 		if( !m_szStartAni.IsEmpty() )

  0026c	81 c6 e0 01 00
	00		 add	 esi, 480		; 000001e0H
  00272	8b ce		 mov	 ecx, esi
  00274	ff 15 00 00 00
	00		 call	 DWORD PTR __imp_?IsEmpty@ioHashString@@QBE_NXZ
  0027a	84 c0		 test	 al, al
  0027c	75 49		 jne	 SHORT $LN1@ShowResult

; 835  : 			pCharWnd->SetCharActionAnimation( m_szStartAni ); // SetEquip 이후에

  0027e	b8 64 00 00 00	 mov	 eax, 100		; 00000064H
  00283	8b c8		 mov	 ecx, eax
  00285	b8 64 00 00 00	 mov	 eax, 100		; 00000064H
  0028a	89 8d f4 fe ff
	ff		 mov	 DWORD PTR tv348[ebp], ecx
  00290	db 85 f4 fe ff
	ff		 fild	 DWORD PTR tv348[ebp]
  00296	85 c9		 test	 ecx, ecx
  00298	79 06		 jns	 SHORT $LN23@ShowResult
  0029a	d8 05 00 00 00
	00		 fadd	 DWORD PTR __real@4f800000
$LN23@ShowResult:
  002a0	51		 push	 ecx
  002a1	51		 push	 ecx
  002a2	d9 5c 24 04	 fstp	 DWORD PTR [esp+4]
  002a6	89 85 f4 fe ff
	ff		 mov	 DWORD PTR tv346[ebp], eax
  002ac	db 85 f4 fe ff
	ff		 fild	 DWORD PTR tv346[ebp]
  002b2	85 c0		 test	 eax, eax
  002b4	79 06		 jns	 SHORT $LN24@ShowResult
  002b6	d8 05 00 00 00
	00		 fadd	 DWORD PTR __real@4f800000
$LN24@ShowResult:
  002bc	d9 1c 24	 fstp	 DWORD PTR [esp]
  002bf	56		 push	 esi
  002c0	8b cf		 mov	 ecx, edi
  002c2	e8 00 00 00 00	 call	 ?SetCharActionAnimation@NewShopHelpWnd@@QAEXABVioHashString@@MM@Z ; NewShopHelpWnd::SetCharActionAnimation
$LN1@ShowResult:

; 836  : 		pCharWnd->ShowWnd();

  002c7	8b cf		 mov	 ecx, edi
  002c9	ff 15 00 00 00
	00		 call	 DWORD PTR __imp_?ShowWnd@ioWnd@@QAEXXZ
$LN2@ShowResult:

; 837  : 	}
; 838  : }

  002cf	8b 4d fc	 mov	 ecx, DWORD PTR __$ArrayPad$[ebp]
  002d2	5f		 pop	 edi
  002d3	5e		 pop	 esi
  002d4	33 cd		 xor	 ecx, ebp
  002d6	5b		 pop	 ebx
  002d7	e8 00 00 00 00	 call	 @__security_check_cookie@4
  002dc	c9		 leave
  002dd	c2 10 00	 ret	 16			; 00000010H
?ShowResult@InvenFourExtraCompoundBuyResultWnd@@QAEXHHK_N@Z ENDP ; InvenFourExtraCompoundBuyResultWnd::ShowResult
_TEXT	ENDS
PUBLIC	?UpdateCompoundInfo@InvenFourExtraCompoundBuyResultWnd@@IAEXXZ ; InvenFourExtraCompoundBuyResultWnd::UpdateCompoundInfo
EXTRN	?SetCharMotionItemAnimation@NewShopHelpWnd@@QAEXABVioHashString@@@Z:PROC ; NewShopHelpWnd::SetCharMotionItemAnimation
; Function compile flags: /Ogsp
;	COMDAT ?UpdateCompoundInfo@InvenFourExtraCompoundBuyResultWnd@@IAEXXZ
_TEXT	SEGMENT
_pCharWnd$512328 = -4					; size = 4
?UpdateCompoundInfo@InvenFourExtraCompoundBuyResultWnd@@IAEXXZ PROC ; InvenFourExtraCompoundBuyResultWnd::UpdateCompoundInfo, COMDAT
; _this$ = ecx

; 1014 : {

  00000	55		 push	 ebp
  00001	8b ec		 mov	 ebp, esp
  00003	51		 push	 ecx
  00004	56		 push	 esi
  00005	8b f1		 mov	 esi, ecx

; 1015 : 	DWORD dwCurTime = FRAMEGETTIME();

  00007	ff 15 00 00 00
	00		 call	 DWORD PTR __imp_?GetSingleton@ioFrameTimer@@SAAAV1@XZ
  0000d	8b c8		 mov	 ecx, eax
  0000f	ff 15 00 00 00
	00		 call	 DWORD PTR __imp_?GetLoopSec@ioFrameTimer@@QBEKXZ

; 1016 : 
; 1017 : 	if( m_dwRollingEndTime < dwCurTime )			// RollingEnd

  00015	39 86 88 01 00
	00		 cmp	 DWORD PTR [esi+392], eax
  0001b	0f 83 eb 00 00
	00		 jae	 $LN8@UpdateComp

; 1018 : 	{
; 1019 : 		if( !m_bResult )

  00021	80 be 10 02 00
	00 00		 cmp	 BYTE PTR [esi+528], 0
  00028	0f 85 de 00 00
	00		 jne	 $LN8@UpdateComp

; 1020 : 		{
; 1021 : 			m_bResult = true;
; 1022 : 			ReBatchButton( RESULT_BTN );

  0002e	53		 push	 ebx
  0002f	57		 push	 edi
  00030	6a 02		 push	 2
  00032	8b ce		 mov	 ecx, esi
  00034	c6 86 10 02 00
	00 01		 mov	 BYTE PTR [esi+528], 1
  0003b	e8 00 00 00 00	 call	 ?ReBatchButton@InvenFourExtraCompoundBuyResultWnd@@IAEXH@Z ; InvenFourExtraCompoundBuyResultWnd::ReBatchButton

; 1023 : 
; 1024 : 			if( !m_szRollingSound.IsEmpty() )

  00040	8d be b0 01 00
	00		 lea	 edi, DWORD PTR [esi+432]
  00046	8b cf		 mov	 ecx, edi
  00048	ff 15 00 00 00
	00		 call	 DWORD PTR __imp_?IsEmpty@ioHashString@@QBE_NXZ
  0004e	8b 1d 00 00 00
	00		 mov	 ebx, DWORD PTR __imp_?GetSingleton@ioSoundManager@@SAAAV1@XZ
  00054	84 c0		 test	 al, al
  00056	75 0d		 jne	 SHORT $LN7@UpdateComp

; 1025 : 				g_SoundMgr.StopSound( m_szRollingSound, 0 );

  00058	6a 00		 push	 0
  0005a	57		 push	 edi
  0005b	ff d3		 call	 ebx
  0005d	8b c8		 mov	 ecx, eax
  0005f	ff 15 00 00 00
	00		 call	 DWORD PTR __imp_?StopSound@ioSoundManager@@QAEXABVioHashString@@K@Z
$LN7@UpdateComp:

; 1026 : 
; 1027 : 			NewShopHelpWnd *pCharWnd = dynamic_cast<NewShopHelpWnd *>( FindChildWnd( ID_SOLDIER_WND ));

  00065	6a 00		 push	 0
  00067	68 00 00 00 00	 push	 OFFSET ??_R0?AVNewShopHelpWnd@@@8
  0006c	68 00 00 00 00	 push	 OFFSET ??_R0?AVioWnd@@@8
  00071	6a 00		 push	 0
  00073	68 e8 03 00 00	 push	 1000			; 000003e8H
  00078	8b ce		 mov	 ecx, esi
  0007a	ff 15 00 00 00
	00		 call	 DWORD PTR __imp_?FindChildWnd@ioWnd@@QAEPAV1@K@Z
  00080	50		 push	 eax
  00081	e8 00 00 00 00	 call	 ___RTDynamicCast
  00086	83 c4 14	 add	 esp, 20			; 00000014H

; 1028 : 			if( m_bSuccess )

  00089	80 be 11 02 00
	00 00		 cmp	 BYTE PTR [esi+529], 0
  00090	89 45 fc	 mov	 DWORD PTR _pCharWnd$512328[ebp], eax
  00093	74 27		 je	 SHORT $LN6@UpdateComp

; 1029 : 			{
; 1030 : 				if( pCharWnd && !m_szSuccessAni.IsEmpty() )

  00095	85 c0		 test	 eax, eax
  00097	74 1b		 je	 SHORT $LN5@UpdateComp
  00099	8d be f0 01 00
	00		 lea	 edi, DWORD PTR [esi+496]
  0009f	8b cf		 mov	 ecx, edi
  000a1	ff 15 00 00 00
	00		 call	 DWORD PTR __imp_?IsEmpty@ioHashString@@QBE_NXZ
  000a7	84 c0		 test	 al, al
  000a9	75 09		 jne	 SHORT $LN5@UpdateComp

; 1031 : 					pCharWnd->SetCharMotionItemAnimation( m_szSuccessAni );

  000ab	8b 4d fc	 mov	 ecx, DWORD PTR _pCharWnd$512328[ebp]
  000ae	57		 push	 edi
  000af	e8 00 00 00 00	 call	 ?SetCharMotionItemAnimation@NewShopHelpWnd@@QAEXABVioHashString@@@Z ; NewShopHelpWnd::SetCharMotionItemAnimation
$LN5@UpdateComp:

; 1032 : 
; 1033 : 				if( !m_szSuccessSound.IsEmpty() )

  000b4	8d be c0 01 00
	00		 lea	 edi, DWORD PTR [esi+448]

; 1034 : 					g_SoundMgr.PlaySound( m_szSuccessSound, DSBVOLUME_MAX, PSM_THREAD );
; 1035 : 			}
; 1036 : 			else

  000ba	eb 25		 jmp	 SHORT $LN13@UpdateComp
$LN6@UpdateComp:

; 1037 : 			{
; 1038 : 				if( pCharWnd && !m_szFailAni.IsEmpty() )

  000bc	85 c0		 test	 eax, eax
  000be	74 1b		 je	 SHORT $LN2@UpdateComp
  000c0	8d be 00 02 00
	00		 lea	 edi, DWORD PTR [esi+512]
  000c6	8b cf		 mov	 ecx, edi
  000c8	ff 15 00 00 00
	00		 call	 DWORD PTR __imp_?IsEmpty@ioHashString@@QBE_NXZ
  000ce	84 c0		 test	 al, al
  000d0	75 09		 jne	 SHORT $LN2@UpdateComp

; 1039 : 					pCharWnd->SetCharMotionItemAnimation( m_szFailAni );

  000d2	8b 4d fc	 mov	 ecx, DWORD PTR _pCharWnd$512328[ebp]
  000d5	57		 push	 edi
  000d6	e8 00 00 00 00	 call	 ?SetCharMotionItemAnimation@NewShopHelpWnd@@QAEXABVioHashString@@@Z ; NewShopHelpWnd::SetCharMotionItemAnimation
$LN2@UpdateComp:

; 1040 : 
; 1041 : 				if( !m_szFailSound.IsEmpty() )

  000db	8d be d0 01 00
	00		 lea	 edi, DWORD PTR [esi+464]
$LN13@UpdateComp:
  000e1	8b cf		 mov	 ecx, edi
  000e3	ff 15 00 00 00
	00		 call	 DWORD PTR __imp_?IsEmpty@ioHashString@@QBE_NXZ
  000e9	84 c0		 test	 al, al
  000eb	75 0f		 jne	 SHORT $LN12@UpdateComp

; 1042 : 					g_SoundMgr.PlaySound( m_szFailSound, DSBVOLUME_MAX, PSM_THREAD );

  000ed	6a 04		 push	 4
  000ef	6a 00		 push	 0
  000f1	57		 push	 edi
  000f2	ff d3		 call	 ebx
  000f4	8b c8		 mov	 ecx, eax
  000f6	ff 15 00 00 00
	00		 call	 DWORD PTR __imp_?PlaySoundA@ioSoundManager@@QAEKABVioHashString@@HK@Z
$LN12@UpdateComp:

; 1043 : 			}
; 1044 : 
; 1045 : 			m_iCurEffectArray = -1;

  000fc	83 8e 8c 01 00
	00 ff		 or	 DWORD PTR [esi+396], -1

; 1046 : 			m_dwRollingEffectCheckTime = 0;

  00103	83 a6 94 01 00
	00 00		 and	 DWORD PTR [esi+404], 0
  0010a	5f		 pop	 edi
  0010b	5b		 pop	 ebx
$LN8@UpdateComp:
  0010c	5e		 pop	 esi

; 1047 : 		}
; 1048 : 	}
; 1049 : }

  0010d	c9		 leave
  0010e	c3		 ret	 0
?UpdateCompoundInfo@InvenFourExtraCompoundBuyResultWnd@@IAEXXZ ENDP ; InvenFourExtraCompoundBuyResultWnd::UpdateCompoundInfo
_TEXT	ENDS
PUBLIC	??0?$vector@UNewShopPullDownItem@@V?$allocator@UNewShopPullDownItem@@@std@@@std@@QAE@XZ ; std::vector<NewShopPullDownItem,std::allocator<NewShopPullDownItem> >::vector<NewShopPullDownItem,std::allocator<NewShopPullDownItem> >
; Function compile flags: /Ogsp
; File c:\program files (x86)\microsoft visual studio 10.0\vc\include\vector
;	COMDAT ??0?$vector@UNewShopPullDownItem@@V?$allocator@UNewShopPullDownItem@@@std@@@std@@QAE@XZ
_TEXT	SEGMENT
??0?$vector@UNewShopPullDownItem@@V?$allocator@UNewShopPullDownItem@@@std@@@std@@QAE@XZ PROC ; std::vector<NewShopPullDownItem,std::allocator<NewShopPullDownItem> >::vector<NewShopPullDownItem,std::allocator<NewShopPullDownItem> >, COMDAT
; _this$ = ecx

; 507  : 		{	// construct empty vector

  00000	8b c1		 mov	 eax, ecx
  00002	33 c9		 xor	 ecx, ecx
  00004	89 08		 mov	 DWORD PTR [eax], ecx
  00006	89 48 04	 mov	 DWORD PTR [eax+4], ecx
  00009	89 48 08	 mov	 DWORD PTR [eax+8], ecx

; 508  : 		}

  0000c	c3		 ret	 0
??0?$vector@UNewShopPullDownItem@@V?$allocator@UNewShopPullDownItem@@@std@@@std@@QAE@XZ ENDP ; std::vector<NewShopPullDownItem,std::allocator<NewShopPullDownItem> >::vector<NewShopPullDownItem,std::allocator<NewShopPullDownItem> >
_TEXT	ENDS
PUBLIC	?begin@?$vector@UNewShopPullDownItem@@V?$allocator@UNewShopPullDownItem@@@std@@@std@@QAE?AV?$_Vector_iterator@V?$_Vector_val@UNewShopPullDownItem@@V?$allocator@UNewShopPullDownItem@@@std@@@std@@@2@XZ ; std::vector<NewShopPullDownItem,std::allocator<NewShopPullDownItem> >::begin
; Function compile flags: /Ogsp
;	COMDAT ?begin@?$vector@UNewShopPullDownItem@@V?$allocator@UNewShopPullDownItem@@@std@@@std@@QAE?AV?$_Vector_iterator@V?$_Vector_val@UNewShopPullDownItem@@V?$allocator@UNewShopPullDownItem@@@std@@@std@@@2@XZ
_TEXT	SEGMENT
___$ReturnUdt$ = 8					; size = 4
?begin@?$vector@UNewShopPullDownItem@@V?$allocator@UNewShopPullDownItem@@@std@@@std@@QAE?AV?$_Vector_iterator@V?$_Vector_val@UNewShopPullDownItem@@V?$allocator@UNewShopPullDownItem@@@std@@@std@@@2@XZ PROC ; std::vector<NewShopPullDownItem,std::allocator<NewShopPullDownItem> >::begin, COMDAT
; _this$ = ecx

; 781  : 		{	// return iterator for beginning of mutable sequence

  00000	55		 push	 ebp
  00001	8b ec		 mov	 ebp, esp

; 782  : 		return (iterator(this->_Myfirst, this));

  00003	8b 09		 mov	 ecx, DWORD PTR [ecx]
  00005	8b 45 08	 mov	 eax, DWORD PTR ___$ReturnUdt$[ebp]
  00008	89 08		 mov	 DWORD PTR [eax], ecx

; 783  : 		}

  0000a	5d		 pop	 ebp
  0000b	c2 04 00	 ret	 4
?begin@?$vector@UNewShopPullDownItem@@V?$allocator@UNewShopPullDownItem@@@std@@@std@@QAE?AV?$_Vector_iterator@V?$_Vector_val@UNewShopPullDownItem@@V?$allocator@UNewShopPullDownItem@@@std@@@std@@@2@XZ ENDP ; std::vector<NewShopPullDownItem,std::allocator<NewShopPullDownItem> >::begin
_TEXT	ENDS
PUBLIC	?end@?$vector@UNewShopPullDownItem@@V?$allocator@UNewShopPullDownItem@@@std@@@std@@QAE?AV?$_Vector_iterator@V?$_Vector_val@UNewShopPullDownItem@@V?$allocator@UNewShopPullDownItem@@@std@@@std@@@2@XZ ; std::vector<NewShopPullDownItem,std::allocator<NewShopPullDownItem> >::end
; Function compile flags: /Ogsp
;	COMDAT ?end@?$vector@UNewShopPullDownItem@@V?$allocator@UNewShopPullDownItem@@@std@@@std@@QAE?AV?$_Vector_iterator@V?$_Vector_val@UNewShopPullDownItem@@V?$allocator@UNewShopPullDownItem@@@std@@@std@@@2@XZ
_TEXT	SEGMENT
___$ReturnUdt$ = 8					; size = 4
?end@?$vector@UNewShopPullDownItem@@V?$allocator@UNewShopPullDownItem@@@std@@@std@@QAE?AV?$_Vector_iterator@V?$_Vector_val@UNewShopPullDownItem@@V?$allocator@UNewShopPullDownItem@@@std@@@std@@@2@XZ PROC ; std::vector<NewShopPullDownItem,std::allocator<NewShopPullDownItem> >::end, COMDAT
; _this$ = ecx

; 791  : 		{	// return iterator for end of mutable sequence

  00000	55		 push	 ebp
  00001	8b ec		 mov	 ebp, esp

; 792  : 		return (iterator(this->_Mylast, this));

  00003	8b 49 04	 mov	 ecx, DWORD PTR [ecx+4]
  00006	8b 45 08	 mov	 eax, DWORD PTR ___$ReturnUdt$[ebp]
  00009	89 08		 mov	 DWORD PTR [eax], ecx

; 793  : 		}

  0000b	5d		 pop	 ebp
  0000c	c2 04 00	 ret	 4
?end@?$vector@UNewShopPullDownItem@@V?$allocator@UNewShopPullDownItem@@@std@@@std@@QAE?AV?$_Vector_iterator@V?$_Vector_val@UNewShopPullDownItem@@V?$allocator@UNewShopPullDownItem@@@std@@@std@@@2@XZ ENDP ; std::vector<NewShopPullDownItem,std::allocator<NewShopPullDownItem> >::end
_TEXT	ENDS
PUBLIC	?_Grow_to@?$vector@VioHashString@@V?$allocator@VioHashString@@@std@@@std@@IBEII@Z ; std::vector<ioHashString,std::allocator<ioHashString> >::_Grow_to
; Function compile flags: /Ogsp
;	COMDAT ?_Grow_to@?$vector@VioHashString@@V?$allocator@VioHashString@@@std@@@std@@IBEII@Z
_TEXT	SEGMENT
__Count$ = 8						; size = 4
?_Grow_to@?$vector@VioHashString@@V?$allocator@VioHashString@@@std@@@std@@IBEII@Z PROC ; std::vector<ioHashString,std::allocator<ioHashString> >::_Grow_to, COMDAT
; _this$ = ecx

; 1274 : 		{	// grow by 50% or at least to _Count

  00000	55		 push	 ebp
  00001	8b ec		 mov	 ebp, esp

; 1275 : 		size_type _Capacity = capacity();

  00003	8b 41 08	 mov	 eax, DWORD PTR [ecx+8]
  00006	2b 01		 sub	 eax, DWORD PTR [ecx]

; 1276 : 
; 1277 : 		_Capacity = max_size() - _Capacity / 2 < _Capacity
; 1278 : 			? 0 : _Capacity + _Capacity / 2;	// try to grow by 50%

  00008	ba ff ff ff 0f	 mov	 edx, 268435455		; 0fffffffH
  0000d	c1 f8 04	 sar	 eax, 4
  00010	8b c8		 mov	 ecx, eax
  00012	d1 e9		 shr	 ecx, 1
  00014	2b d1		 sub	 edx, ecx
  00016	3b d0		 cmp	 edx, eax
  00018	73 04		 jae	 SHORT $LN4@Grow_to@3
  0001a	33 c0		 xor	 eax, eax
  0001c	eb 02		 jmp	 SHORT $LN5@Grow_to@3
$LN4@Grow_to@3:
  0001e	03 c1		 add	 eax, ecx
$LN5@Grow_to@3:

; 1279 : 		if (_Capacity < _Count)

  00020	3b 45 08	 cmp	 eax, DWORD PTR __Count$[ebp]

; 1280 : 			_Capacity = _Count;

  00023	0f 42 45 08	 cmovb	 eax, DWORD PTR __Count$[ebp]

; 1281 : 		return (_Capacity);
; 1282 : 		}

  00027	5d		 pop	 ebp
  00028	c2 04 00	 ret	 4
?_Grow_to@?$vector@VioHashString@@V?$allocator@VioHashString@@@std@@@std@@IBEII@Z ENDP ; std::vector<ioHashString,std::allocator<ioHashString> >::_Grow_to
_TEXT	ENDS
PUBLIC	??9?$_Vector_const_iterator@V?$_Vector_val@UNewShopPullDownItem@@V?$allocator@UNewShopPullDownItem@@@std@@@std@@@std@@QBE_NABV01@@Z ; std::_Vector_const_iterator<std::_Vector_val<NewShopPullDownItem,std::allocator<NewShopPullDownItem> > >::operator!=
; Function compile flags: /Ogsp
;	COMDAT ??9?$_Vector_const_iterator@V?$_Vector_val@UNewShopPullDownItem@@V?$allocator@UNewShopPullDownItem@@@std@@@std@@@std@@QBE_NABV01@@Z
_TEXT	SEGMENT
__Right$ = 8						; size = 4
??9?$_Vector_const_iterator@V?$_Vector_val@UNewShopPullDownItem@@V?$allocator@UNewShopPullDownItem@@@std@@@std@@@std@@QBE_NABV01@@Z PROC ; std::_Vector_const_iterator<std::_Vector_val<NewShopPullDownItem,std::allocator<NewShopPullDownItem> > >::operator!=, COMDAT
; _this$ = ecx

; 207  : 		{	// test for iterator inequality

  00000	55		 push	 ebp
  00001	8b ec		 mov	 ebp, esp

; 208  : 		return (!(*this == _Right));

  00003	8b 01		 mov	 eax, DWORD PTR [ecx]
  00005	8b 55 08	 mov	 edx, DWORD PTR __Right$[ebp]
  00008	33 c9		 xor	 ecx, ecx
  0000a	3b 02		 cmp	 eax, DWORD PTR [edx]
  0000c	0f 95 c0	 setne	 al

; 209  : 		}

  0000f	5d		 pop	 ebp
  00010	c2 04 00	 ret	 4
??9?$_Vector_const_iterator@V?$_Vector_val@UNewShopPullDownItem@@V?$allocator@UNewShopPullDownItem@@@std@@@std@@@std@@QBE_NABV01@@Z ENDP ; std::_Vector_const_iterator<std::_Vector_val<NewShopPullDownItem,std::allocator<NewShopPullDownItem> > >::operator!=
_TEXT	ENDS
PUBLIC	??$_Cons_val@V?$allocator@VioHashString@@@std@@VioHashString@@AAV3@@std@@YAXAAV?$allocator@VioHashString@@@0@PAVioHashString@@AAV2@@Z ; std::_Cons_val<std::allocator<ioHashString>,ioHashString,ioHashString &>
; Function compile flags: /Ogsp
; File c:\program files (x86)\microsoft visual studio 10.0\vc\include\xmemory
;	COMDAT ??$_Cons_val@V?$allocator@VioHashString@@@std@@VioHashString@@AAV3@@std@@YAXAAV?$allocator@VioHashString@@@0@PAVioHashString@@AAV2@@Z
_TEXT	SEGMENT
__Alval$ = 8						; size = 4
__Pdest$ = 12						; size = 4
__Src$ = 16						; size = 4
??$_Cons_val@V?$allocator@VioHashString@@@std@@VioHashString@@AAV3@@std@@YAXAAV?$allocator@VioHashString@@@0@PAVioHashString@@AAV2@@Z PROC ; std::_Cons_val<std::allocator<ioHashString>,ioHashString,ioHashString &>, COMDAT

; 279  : 	{	// construct using allocator

  00000	55		 push	 ebp
  00001	8b ec		 mov	 ebp, esp

; 280  : 	_Alval.construct(_Pdest, _STD forward<_Ty2>(_Src));

  00003	ff 75 10	 push	 DWORD PTR __Src$[ebp]
  00006	8b 4d 08	 mov	 ecx, DWORD PTR __Alval$[ebp]
  00009	ff 75 0c	 push	 DWORD PTR __Pdest$[ebp]
  0000c	e8 00 00 00 00	 call	 ??$construct@AAVioHashString@@@?$allocator@VioHashString@@@std@@QAEXPAVioHashString@@AAV2@@Z ; std::allocator<ioHashString>::construct<ioHashString &>

; 281  : 	}

  00011	5d		 pop	 ebp
  00012	c3		 ret	 0
??$_Cons_val@V?$allocator@VioHashString@@@std@@VioHashString@@AAV3@@std@@YAXAAV?$allocator@VioHashString@@@0@PAVioHashString@@AAV2@@Z ENDP ; std::_Cons_val<std::allocator<ioHashString>,ioHashString,ioHashString &>
_TEXT	ENDS
PUBLIC	??$_Cons_val@V?$allocator@H@std@@HH@std@@YAXAAV?$allocator@H@0@PAH$$QAH@Z ; std::_Cons_val<std::allocator<int>,int,int>
; Function compile flags: /Ogsp
;	COMDAT ??$_Cons_val@V?$allocator@H@std@@HH@std@@YAXAAV?$allocator@H@0@PAH$$QAH@Z
_TEXT	SEGMENT
__Alval$ = 8						; size = 4
__Pdest$ = 12						; size = 4
__Src$ = 16						; size = 4
??$_Cons_val@V?$allocator@H@std@@HH@std@@YAXAAV?$allocator@H@0@PAH$$QAH@Z PROC ; std::_Cons_val<std::allocator<int>,int,int>, COMDAT

; 279  : 	{	// construct using allocator

  00000	55		 push	 ebp
  00001	8b ec		 mov	 ebp, esp

; 280  : 	_Alval.construct(_Pdest, _STD forward<_Ty2>(_Src));

  00003	8b 45 0c	 mov	 eax, DWORD PTR __Pdest$[ebp]
  00006	85 c0		 test	 eax, eax
  00008	74 07		 je	 SHORT $LN7@Cons_val
  0000a	8b 4d 10	 mov	 ecx, DWORD PTR __Src$[ebp]
  0000d	8b 09		 mov	 ecx, DWORD PTR [ecx]
  0000f	89 08		 mov	 DWORD PTR [eax], ecx
$LN7@Cons_val:

; 281  : 	}

  00011	5d		 pop	 ebp
  00012	c3		 ret	 0
??$_Cons_val@V?$allocator@H@std@@HH@std@@YAXAAV?$allocator@H@0@PAH$$QAH@Z ENDP ; std::_Cons_val<std::allocator<int>,int,int>
_TEXT	ENDS
PUBLIC	??$_Cons_val@V?$allocator@UNewShopPullDownItem@@@std@@UNewShopPullDownItem@@AAU3@@std@@YAXAAV?$allocator@UNewShopPullDownItem@@@0@PAUNewShopPullDownItem@@AAU2@@Z ; std::_Cons_val<std::allocator<NewShopPullDownItem>,NewShopPullDownItem,NewShopPullDownItem &>
;	COMDAT xdata$x
; File c:\program files (x86)\microsoft visual studio 10.0\vc\include\utility
xdata$x	SEGMENT
__unwindtable$??$_Cons_val@V?$allocator@UNewShopPullDownItem@@@std@@UNewShopPullDownItem@@AAU3@@std@@YAXAAV?$allocator@UNewShopPullDownItem@@@0@PAUNewShopPullDownItem@@AAU2@@Z DD 0ffffffffH
	DD	FLAT:__unwindfunclet$??$_Cons_val@V?$allocator@UNewShopPullDownItem@@@std@@UNewShopPullDownItem@@AAU3@@std@@YAXAAV?$allocator@UNewShopPullDownItem@@@0@PAUNewShopPullDownItem@@AAU2@@Z$0
__ehfuncinfo$??$_Cons_val@V?$allocator@UNewShopPullDownItem@@@std@@UNewShopPullDownItem@@AAU3@@std@@YAXAAV?$allocator@UNewShopPullDownItem@@@0@PAUNewShopPullDownItem@@AAU2@@Z DD 019930522H
	DD	01H
	DD	FLAT:__unwindtable$??$_Cons_val@V?$allocator@UNewShopPullDownItem@@@std@@UNewShopPullDownItem@@AAU3@@std@@YAXAAV?$allocator@UNewShopPullDownItem@@@0@PAUNewShopPullDownItem@@AAU2@@Z
	DD	2 DUP(00H)
	DD	2 DUP(00H)
	DD	00H
	DD	01H
; Function compile flags: /Ogsp
; File c:\program files (x86)\microsoft visual studio 10.0\vc\include\xmemory
xdata$x	ENDS
;	COMDAT ??$_Cons_val@V?$allocator@UNewShopPullDownItem@@@std@@UNewShopPullDownItem@@AAU3@@std@@YAXAAV?$allocator@UNewShopPullDownItem@@@0@PAUNewShopPullDownItem@@AAU2@@Z
_TEXT	SEGMENT
$T517040 = -16						; size = 4
__$EHRec$ = -12						; size = 12
__Alval$ = 8						; size = 4
__Pdest$ = 12						; size = 4
__Src$ = 16						; size = 4
??$_Cons_val@V?$allocator@UNewShopPullDownItem@@@std@@UNewShopPullDownItem@@AAU3@@std@@YAXAAV?$allocator@UNewShopPullDownItem@@@0@PAUNewShopPullDownItem@@AAU2@@Z PROC ; std::_Cons_val<std::allocator<NewShopPullDownItem>,NewShopPullDownItem,NewShopPullDownItem &>, COMDAT

; 279  : 	{	// construct using allocator

  00000	6a 04		 push	 4
  00002	b8 00 00 00 00	 mov	 eax, __ehhandler$??$_Cons_val@V?$allocator@UNewShopPullDownItem@@@std@@UNewShopPullDownItem@@AAU3@@std@@YAXAAV?$allocator@UNewShopPullDownItem@@@0@PAUNewShopPullDownItem@@AAU2@@Z
  00007	e8 00 00 00 00	 call	 __EH_prolog3

; 280  : 	_Alval.construct(_Pdest, _STD forward<_Ty2>(_Src));

  0000c	8b 4d 0c	 mov	 ecx, DWORD PTR __Pdest$[ebp]
  0000f	89 4d f0	 mov	 DWORD PTR $T517040[ebp], ecx
  00012	83 65 fc 00	 and	 DWORD PTR __$EHRec$[ebp+8], 0
  00016	85 c9		 test	 ecx, ecx
  00018	74 08		 je	 SHORT $LN7@Cons_val@2
  0001a	ff 75 10	 push	 DWORD PTR __Src$[ebp]
  0001d	e8 00 00 00 00	 call	 ??0NewShopPullDownItem@@QAE@ABU0@@Z
$LN7@Cons_val@2:

; 281  : 	}

  00022	e8 00 00 00 00	 call	 __EH_epilog3
  00027	c3		 ret	 0
_TEXT	ENDS
;	COMDAT text$x
text$x	SEGMENT
__unwindfunclet$??$_Cons_val@V?$allocator@UNewShopPullDownItem@@@std@@UNewShopPullDownItem@@AAU3@@std@@YAXAAV?$allocator@UNewShopPullDownItem@@@0@PAUNewShopPullDownItem@@AAU2@@Z$0:
  00000	ff 75 0c	 push	 DWORD PTR __Pdest$[ebp]
  00003	ff 75 f0	 push	 DWORD PTR $T517040[ebp]
  00006	e8 00 00 00 00	 call	 ??3@YAXPAX0@Z		; operator delete
  0000b	59		 pop	 ecx
  0000c	59		 pop	 ecx
  0000d	c3		 ret	 0
__ehhandler$??$_Cons_val@V?$allocator@UNewShopPullDownItem@@@std@@UNewShopPullDownItem@@AAU3@@std@@YAXAAV?$allocator@UNewShopPullDownItem@@@0@PAUNewShopPullDownItem@@AAU2@@Z:
  0000e	8b 54 24 08	 mov	 edx, DWORD PTR [esp+8]
  00012	8d 42 0c	 lea	 eax, DWORD PTR [edx+12]
  00015	8b 4a ec	 mov	 ecx, DWORD PTR [edx-20]
  00018	33 c8		 xor	 ecx, eax
  0001a	e8 00 00 00 00	 call	 @__security_check_cookie@4
  0001f	b8 00 00 00 00	 mov	 eax, OFFSET __ehfuncinfo$??$_Cons_val@V?$allocator@UNewShopPullDownItem@@@std@@UNewShopPullDownItem@@AAU3@@std@@YAXAAV?$allocator@UNewShopPullDownItem@@@0@PAUNewShopPullDownItem@@AAU2@@Z
  00024	e9 00 00 00 00	 jmp	 ___CxxFrameHandler3
text$x	ENDS
??$_Cons_val@V?$allocator@UNewShopPullDownItem@@@std@@UNewShopPullDownItem@@AAU3@@std@@YAXAAV?$allocator@UNewShopPullDownItem@@@0@PAUNewShopPullDownItem@@AAU2@@Z ENDP ; std::_Cons_val<std::allocator<NewShopPullDownItem>,NewShopPullDownItem,NewShopPullDownItem &>
PUBLIC	??$_Move@PAUNewShopPullDownItem@@PAU1@@std@@YAPAUNewShopPullDownItem@@PAU1@00@Z ; std::_Move<NewShopPullDownItem *,NewShopPullDownItem *>
; Function compile flags: /Ogsp
; File c:\program files (x86)\microsoft visual studio 10.0\vc\include\xutility
;	COMDAT ??$_Move@PAUNewShopPullDownItem@@PAU1@@std@@YAPAUNewShopPullDownItem@@PAU1@00@Z
_TEXT	SEGMENT
__Cat$517058 = -4					; size = 1
__First$ = 8						; size = 4
__Last$ = 12						; size = 4
__Dest$ = 16						; size = 4
??$_Move@PAUNewShopPullDownItem@@PAU1@@std@@YAPAUNewShopPullDownItem@@PAU1@00@Z PROC ; std::_Move<NewShopPullDownItem *,NewShopPullDownItem *>, COMDAT

; 2533 : 	{	// move [_First, _Last) to [_Dest, ...), unchecked

  00000	55		 push	 ebp
  00001	8b ec		 mov	 ebp, esp
  00003	51		 push	 ecx

; 2534 : 	return (_Move(_First, _Last,
; 2535 : 		_Dest, _Ptr_cat(_First, _Dest)));

  00004	ff 75 fc	 push	 DWORD PTR __Cat$517058[ebp]
  00007	ff 75 10	 push	 DWORD PTR __Dest$[ebp]
  0000a	ff 75 0c	 push	 DWORD PTR __Last$[ebp]
  0000d	ff 75 08	 push	 DWORD PTR __First$[ebp]
  00010	e8 00 00 00 00	 call	 ??$_Move@PAUNewShopPullDownItem@@PAU1@@std@@YAPAUNewShopPullDownItem@@PAU1@00U_Nonscalar_ptr_iterator_tag@0@@Z ; std::_Move<NewShopPullDownItem *,NewShopPullDownItem *>
  00015	83 c4 10	 add	 esp, 16			; 00000010H

; 2536 : 	}

  00018	c9		 leave
  00019	c3		 ret	 0
??$_Move@PAUNewShopPullDownItem@@PAU1@@std@@YAPAUNewShopPullDownItem@@PAU1@00@Z ENDP ; std::_Move<NewShopPullDownItem *,NewShopPullDownItem *>
_TEXT	ENDS
PUBLIC	?construct@?$allocator@UNewShopPullDownItem@@@std@@QAEXPAUNewShopPullDownItem@@ABU3@@Z ; std::allocator<NewShopPullDownItem>::construct
; Function compile flags: /Ogsp
; File c:\program files (x86)\microsoft visual studio 10.0\vc\include\xmemory
;	COMDAT ?construct@?$allocator@UNewShopPullDownItem@@@std@@QAEXPAUNewShopPullDownItem@@ABU3@@Z
_TEXT	SEGMENT
__Ptr$ = 8						; size = 4
__Val$ = 12						; size = 4
?construct@?$allocator@UNewShopPullDownItem@@@std@@QAEXPAUNewShopPullDownItem@@ABU3@@Z PROC ; std::allocator<NewShopPullDownItem>::construct, COMDAT
; _this$ = ecx

; 196  : 		{	// construct object at _Ptr with value _Val

  00000	55		 push	 ebp
  00001	8b ec		 mov	 ebp, esp

; 197  : 		_Construct(_Ptr, _Val);

  00003	ff 75 0c	 push	 DWORD PTR __Val$[ebp]
  00006	ff 75 08	 push	 DWORD PTR __Ptr$[ebp]
  00009	e8 00 00 00 00	 call	 ??$_Construct@UNewShopPullDownItem@@ABU1@@std@@YAXPAUNewShopPullDownItem@@ABU1@@Z ; std::_Construct<NewShopPullDownItem,NewShopPullDownItem const &>
  0000e	59		 pop	 ecx
  0000f	59		 pop	 ecx

; 198  : 		}

  00010	5d		 pop	 ebp
  00011	c2 08 00	 ret	 8
?construct@?$allocator@UNewShopPullDownItem@@@std@@QAEXPAUNewShopPullDownItem@@ABU3@@Z ENDP ; std::allocator<NewShopPullDownItem>::construct
_TEXT	ENDS
PUBLIC	?destroy@?$allocator@UNewShopPullDownItem@@@std@@QAEXPAUNewShopPullDownItem@@@Z ; std::allocator<NewShopPullDownItem>::destroy
; Function compile flags: /Ogsp
;	COMDAT ?destroy@?$allocator@UNewShopPullDownItem@@@std@@QAEXPAUNewShopPullDownItem@@@Z
_TEXT	SEGMENT
__Ptr$ = 8						; size = 4
?destroy@?$allocator@UNewShopPullDownItem@@@std@@QAEXPAUNewShopPullDownItem@@@Z PROC ; std::allocator<NewShopPullDownItem>::destroy, COMDAT
; _this$ = ecx

; 212  : 		{	// destroy object at _Ptr

  00000	55		 push	 ebp
  00001	8b ec		 mov	 ebp, esp

; 213  : 		_Destroy(_Ptr);

  00003	8b 4d 08	 mov	 ecx, DWORD PTR __Ptr$[ebp]
  00006	e8 00 00 00 00	 call	 ??1NewShopPullDownItem@@QAE@XZ

; 214  : 		}

  0000b	5d		 pop	 ebp
  0000c	c2 04 00	 ret	 4
?destroy@?$allocator@UNewShopPullDownItem@@@std@@QAEXPAUNewShopPullDownItem@@@Z ENDP ; std::allocator<NewShopPullDownItem>::destroy
_TEXT	ENDS
PUBLIC	??$iter_swap@PAUNewShopPullDownItem@@PAU1@@std@@YAXPAUNewShopPullDownItem@@0@Z ; std::iter_swap<NewShopPullDownItem *,NewShopPullDownItem *>
; Function compile flags: /Ogsp
; File c:\program files (x86)\microsoft visual studio 10.0\vc\include\xutility
;	COMDAT ??$iter_swap@PAUNewShopPullDownItem@@PAU1@@std@@YAXPAUNewShopPullDownItem@@0@Z
_TEXT	SEGMENT
__Left$ = 8						; size = 4
__Right$ = 12						; size = 4
??$iter_swap@PAUNewShopPullDownItem@@PAU1@@std@@YAXPAUNewShopPullDownItem@@0@Z PROC ; std::iter_swap<NewShopPullDownItem *,NewShopPullDownItem *>, COMDAT

; 2133 : 	{	// swap *_Left and *_Right

  00000	55		 push	 ebp
  00001	8b ec		 mov	 ebp, esp

; 2135 : 	}

  00003	5d		 pop	 ebp

; 2134 : 	swap(*_Left, *_Right);

  00004	e9 00 00 00 00	 jmp	 ??$swap@UNewShopPullDownItem@@@std@@YAXAAUNewShopPullDownItem@@0@Z ; std::swap<NewShopPullDownItem>
??$iter_swap@PAUNewShopPullDownItem@@PAU1@@std@@YAXPAUNewShopPullDownItem@@0@Z ENDP ; std::iter_swap<NewShopPullDownItem *,NewShopPullDownItem *>
_TEXT	ENDS
PUBLIC	??$_Make_heap@PAUNewShopPullDownItem@@HU1@VSoldierSort@InvenFourExtraCompoundBuyWnd@@@std@@YAXPAUNewShopPullDownItem@@0VSoldierSort@InvenFourExtraCompoundBuyWnd@@PAH0@Z ; std::_Make_heap<NewShopPullDownItem *,int,NewShopPullDownItem,InvenFourExtraCompoundBuyWnd::SoldierSort>
;	COMDAT xdata$x
; File c:\program files (x86)\microsoft visual studio 10.0\vc\include\utility
xdata$x	SEGMENT
__unwindtable$??$_Make_heap@PAUNewShopPullDownItem@@HU1@VSoldierSort@InvenFourExtraCompoundBuyWnd@@@std@@YAXPAUNewShopPullDownItem@@0VSoldierSort@InvenFourExtraCompoundBuyWnd@@PAH0@Z DD 0ffffffffH
	DD	FLAT:__unwindfunclet$??$_Make_heap@PAUNewShopPullDownItem@@HU1@VSoldierSort@InvenFourExtraCompoundBuyWnd@@@std@@YAXPAUNewShopPullDownItem@@0VSoldierSort@InvenFourExtraCompoundBuyWnd@@PAH0@Z$0
__ehfuncinfo$??$_Make_heap@PAUNewShopPullDownItem@@HU1@VSoldierSort@InvenFourExtraCompoundBuyWnd@@@std@@YAXPAUNewShopPullDownItem@@0VSoldierSort@InvenFourExtraCompoundBuyWnd@@PAH0@Z DD 019930522H
	DD	01H
	DD	FLAT:__unwindtable$??$_Make_heap@PAUNewShopPullDownItem@@HU1@VSoldierSort@InvenFourExtraCompoundBuyWnd@@@std@@YAXPAUNewShopPullDownItem@@0VSoldierSort@InvenFourExtraCompoundBuyWnd@@PAH0@Z
	DD	2 DUP(00H)
	DD	2 DUP(00H)
	DD	00H
	DD	01H
; Function compile flags: /Ogsp
; File c:\program files (x86)\microsoft visual studio 10.0\vc\include\algorithm
xdata$x	ENDS
;	COMDAT ??$_Make_heap@PAUNewShopPullDownItem@@HU1@VSoldierSort@InvenFourExtraCompoundBuyWnd@@@std@@YAXPAUNewShopPullDownItem@@0VSoldierSort@InvenFourExtraCompoundBuyWnd@@PAH0@Z
_TEXT	SEGMENT
__Val$514378 = -92					; size = 80
__$EHRec$ = -12						; size = 12
__First$ = 8						; size = 4
__Last$ = 12						; size = 4
__Pred$ = 16						; size = 1
___formal$ = 20						; size = 4
___formal$ = 24						; size = 4
??$_Make_heap@PAUNewShopPullDownItem@@HU1@VSoldierSort@InvenFourExtraCompoundBuyWnd@@@std@@YAXPAUNewShopPullDownItem@@0VSoldierSort@InvenFourExtraCompoundBuyWnd@@PAH0@Z PROC ; std::_Make_heap<NewShopPullDownItem *,int,NewShopPullDownItem,InvenFourExtraCompoundBuyWnd::SoldierSort>, COMDAT

; 2658 : 	{	// make nontrivial [_First, _Last) into a heap, using _Pred

  00000	6a 50		 push	 80			; 00000050H
  00002	b8 00 00 00 00	 mov	 eax, __ehhandler$??$_Make_heap@PAUNewShopPullDownItem@@HU1@VSoldierSort@InvenFourExtraCompoundBuyWnd@@@std@@YAXPAUNewShopPullDownItem@@0VSoldierSort@InvenFourExtraCompoundBuyWnd@@PAH0@Z
  00007	e8 00 00 00 00	 call	 __EH_prolog3

; 2659 : 	_Diff _Bottom = _Last - _First;

  0000c	8b 45 0c	 mov	 eax, DWORD PTR __Last$[ebp]
  0000f	2b 45 08	 sub	 eax, DWORD PTR __First$[ebp]
  00012	6a 50		 push	 80			; 00000050H
  00014	99		 cdq
  00015	59		 pop	 ecx
  00016	f7 f9		 idiv	 ecx
  00018	8b d8		 mov	 ebx, eax

; 2660 : 	for (_Diff _Hole = _Bottom / 2; 0 < _Hole; )

  0001a	99		 cdq
  0001b	2b c2		 sub	 eax, edx
  0001d	8b f0		 mov	 esi, eax
  0001f	d1 fe		 sar	 esi, 1
  00021	85 f6		 test	 esi, esi
  00023	7e 3d		 jle	 SHORT $LN1@Make_heap

; 2659 : 	_Diff _Bottom = _Last - _First;

  00025	8b fe		 mov	 edi, esi
  00027	6b ff 50	 imul	 edi, 80			; 00000050H
  0002a	03 7d 08	 add	 edi, DWORD PTR __First$[ebp]
$LN2@Make_heap:

; 2661 : 		{	// reheap top half, bottom to top
; 2662 : 		--_Hole;

  0002d	83 ef 50	 sub	 edi, 80			; 00000050H

; 2663 : 		_Ty _Val = _Move(*(_First + _Hole));

  00030	57		 push	 edi
  00031	8d 4d a4	 lea	 ecx, DWORD PTR __Val$514378[ebp]
  00034	4e		 dec	 esi
  00035	e8 00 00 00 00	 call	 ??0NewShopPullDownItem@@QAE@ABU0@@Z

; 2664 : 		_Adjust_heap(_First, _Hole, _Bottom,
; 2665 : 			_Move(_Val), _Pred);

  0003a	ff 75 10	 push	 DWORD PTR __Pred$[ebp]
  0003d	83 65 fc 00	 and	 DWORD PTR __$EHRec$[ebp+8], 0
  00041	8d 45 a4	 lea	 eax, DWORD PTR __Val$514378[ebp]
  00044	50		 push	 eax
  00045	53		 push	 ebx
  00046	56		 push	 esi
  00047	ff 75 08	 push	 DWORD PTR __First$[ebp]
  0004a	e8 00 00 00 00	 call	 ??$_Adjust_heap@PAUNewShopPullDownItem@@HU1@VSoldierSort@InvenFourExtraCompoundBuyWnd@@@std@@YAXPAUNewShopPullDownItem@@HH$$QAU1@VSoldierSort@InvenFourExtraCompoundBuyWnd@@@Z ; std::_Adjust_heap<NewShopPullDownItem *,int,NewShopPullDownItem,InvenFourExtraCompoundBuyWnd::SoldierSort>

; 2666 : 		}

  0004f	83 4d fc ff	 or	 DWORD PTR __$EHRec$[ebp+8], -1
  00053	83 c4 14	 add	 esp, 20			; 00000014H
  00056	8d 4d a4	 lea	 ecx, DWORD PTR __Val$514378[ebp]
  00059	e8 00 00 00 00	 call	 ??1NewShopPullDownItem@@QAE@XZ
  0005e	85 f6		 test	 esi, esi
  00060	7f cb		 jg	 SHORT $LN2@Make_heap
$LN1@Make_heap:

; 2667 : 	}

  00062	e8 00 00 00 00	 call	 __EH_epilog3
  00067	c3		 ret	 0
_TEXT	ENDS
;	COMDAT text$x
text$x	SEGMENT
__unwindfunclet$??$_Make_heap@PAUNewShopPullDownItem@@HU1@VSoldierSort@InvenFourExtraCompoundBuyWnd@@@std@@YAXPAUNewShopPullDownItem@@0VSoldierSort@InvenFourExtraCompoundBuyWnd@@PAH0@Z$0:
  00000	8d 4d a4	 lea	 ecx, DWORD PTR __Val$514378[ebp]
  00003	e9 00 00 00 00	 jmp	 ??1NewShopPullDownItem@@QAE@XZ
__ehhandler$??$_Make_heap@PAUNewShopPullDownItem@@HU1@VSoldierSort@InvenFourExtraCompoundBuyWnd@@@std@@YAXPAUNewShopPullDownItem@@0VSoldierSort@InvenFourExtraCompoundBuyWnd@@PAH0@Z:
  00008	8b 54 24 08	 mov	 edx, DWORD PTR [esp+8]
  0000c	8d 42 0c	 lea	 eax, DWORD PTR [edx+12]
  0000f	8b 4a a0	 mov	 ecx, DWORD PTR [edx-96]
  00012	33 c8		 xor	 ecx, eax
  00014	e8 00 00 00 00	 call	 @__security_check_cookie@4
  00019	b8 00 00 00 00	 mov	 eax, OFFSET __ehfuncinfo$??$_Make_heap@PAUNewShopPullDownItem@@HU1@VSoldierSort@InvenFourExtraCompoundBuyWnd@@@std@@YAXPAUNewShopPullDownItem@@0VSoldierSort@InvenFourExtraCompoundBuyWnd@@PAH0@Z
  0001e	e9 00 00 00 00	 jmp	 ___CxxFrameHandler3
text$x	ENDS
??$_Make_heap@PAUNewShopPullDownItem@@HU1@VSoldierSort@InvenFourExtraCompoundBuyWnd@@@std@@YAXPAUNewShopPullDownItem@@0VSoldierSort@InvenFourExtraCompoundBuyWnd@@PAH0@Z ENDP ; std::_Make_heap<NewShopPullDownItem *,int,NewShopPullDownItem,InvenFourExtraCompoundBuyWnd::SoldierSort>
PUBLIC	??$_Insertion_sort1@PAUNewShopPullDownItem@@VSoldierSort@InvenFourExtraCompoundBuyWnd@@U1@@std@@YAXPAUNewShopPullDownItem@@0VSoldierSort@InvenFourExtraCompoundBuyWnd@@0@Z ; std::_Insertion_sort1<NewShopPullDownItem *,InvenFourExtraCompoundBuyWnd::SoldierSort,NewShopPullDownItem>
;	COMDAT xdata$x
; File c:\program files (x86)\microsoft visual studio 10.0\vc\include\utility
xdata$x	SEGMENT
__unwindtable$??$_Insertion_sort1@PAUNewShopPullDownItem@@VSoldierSort@InvenFourExtraCompoundBuyWnd@@U1@@std@@YAXPAUNewShopPullDownItem@@0VSoldierSort@InvenFourExtraCompoundBuyWnd@@0@Z DD 0ffffffffH
	DD	FLAT:__unwindfunclet$??$_Insertion_sort1@PAUNewShopPullDownItem@@VSoldierSort@InvenFourExtraCompoundBuyWnd@@U1@@std@@YAXPAUNewShopPullDownItem@@0VSoldierSort@InvenFourExtraCompoundBuyWnd@@0@Z$0
__ehfuncinfo$??$_Insertion_sort1@PAUNewShopPullDownItem@@VSoldierSort@InvenFourExtraCompoundBuyWnd@@U1@@std@@YAXPAUNewShopPullDownItem@@0VSoldierSort@InvenFourExtraCompoundBuyWnd@@0@Z DD 019930522H
	DD	01H
	DD	FLAT:__unwindtable$??$_Insertion_sort1@PAUNewShopPullDownItem@@VSoldierSort@InvenFourExtraCompoundBuyWnd@@U1@@std@@YAXPAUNewShopPullDownItem@@0VSoldierSort@InvenFourExtraCompoundBuyWnd@@0@Z
	DD	2 DUP(00H)
	DD	2 DUP(00H)
	DD	00H
	DD	01H
; Function compile flags: /Ogsp
; File c:\program files (x86)\microsoft visual studio 10.0\vc\include\algorithm
xdata$x	ENDS
;	COMDAT ??$_Insertion_sort1@PAUNewShopPullDownItem@@VSoldierSort@InvenFourExtraCompoundBuyWnd@@U1@@std@@YAXPAUNewShopPullDownItem@@0VSoldierSort@InvenFourExtraCompoundBuyWnd@@0@Z
_TEXT	SEGMENT
__Val$514413 = -96					; size = 80
__Next1$514412 = -16					; size = 4
__$EHRec$ = -12						; size = 12
__First$ = 8						; size = 4
__Cat$517119 = 12					; size = 1
__Last$ = 12						; size = 4
__Pred$ = 16						; size = 1
___formal$ = 20						; size = 4
??$_Insertion_sort1@PAUNewShopPullDownItem@@VSoldierSort@InvenFourExtraCompoundBuyWnd@@U1@@std@@YAXPAUNewShopPullDownItem@@0VSoldierSort@InvenFourExtraCompoundBuyWnd@@0@Z PROC ; std::_Insertion_sort1<NewShopPullDownItem *,InvenFourExtraCompoundBuyWnd::SoldierSort,NewShopPullDownItem>, COMDAT

; 3650 : 	{	// insertion sort [_First, _Last), using _Pred

  00000	6a 54		 push	 84			; 00000054H
  00002	b8 00 00 00 00	 mov	 eax, __ehhandler$??$_Insertion_sort1@PAUNewShopPullDownItem@@VSoldierSort@InvenFourExtraCompoundBuyWnd@@U1@@std@@YAXPAUNewShopPullDownItem@@0VSoldierSort@InvenFourExtraCompoundBuyWnd@@0@Z
  00007	e8 00 00 00 00	 call	 __EH_prolog3

; 3651 : 	if (_First != _Last)

  0000c	8b 5d 08	 mov	 ebx, DWORD PTR __First$[ebp]
  0000f	3b 5d 0c	 cmp	 ebx, DWORD PTR __Last$[ebp]
  00012	0f 84 8b 00 00
	00		 je	 $LN6@Insertion_

; 3652 : 		for (_BidIt _Next = _First; ++_Next != _Last; )

  00018	8d 7b 50	 lea	 edi, DWORD PTR [ebx+80]
  0001b	eb 7d		 jmp	 SHORT $LN40@Insertion_
$LL7@Insertion_:

; 3653 : 			{	// order next element
; 3654 : 			_BidIt _Next1 = _Next;
; 3655 : 			_Ty _Val = _Move(*_Next);

  0001d	57		 push	 edi
  0001e	8d 4d a0	 lea	 ecx, DWORD PTR __Val$514413[ebp]
  00021	89 7d f0	 mov	 DWORD PTR __Next1$514412[ebp], edi
  00024	e8 00 00 00 00	 call	 ??0NewShopPullDownItem@@QAE@ABU0@@Z

; 3656 : 
; 3657 : 			if (_DEBUG_LT_PRED(_Pred, _Val, *_First))

  00029	8b 43 14	 mov	 eax, DWORD PTR [ebx+20]
  0002c	83 65 fc 00	 and	 DWORD PTR __$EHRec$[ebp+8], 0
  00030	39 45 b4	 cmp	 DWORD PTR __Val$514413[ebp+20], eax
  00033	72 0a		 jb	 SHORT $LN37@Insertion_
  00035	75 1d		 jne	 SHORT $LN5@Insertion_
  00037	8b 45 b0	 mov	 eax, DWORD PTR __Val$514413[ebp+16]
  0003a	3b 43 10	 cmp	 eax, DWORD PTR [ebx+16]
  0003d	7d 15		 jge	 SHORT $LN5@Insertion_
$LN37@Insertion_:

; 3658 : 				{	// found new earliest element, move to front
; 3659 : 				_Move_backward(_First, _Next, ++_Next1);

  0003f	ff 75 0c	 push	 DWORD PTR __Cat$517119[ebp]
  00042	8d 47 50	 lea	 eax, DWORD PTR [edi+80]
  00045	50		 push	 eax
  00046	57		 push	 edi
  00047	53		 push	 ebx
  00048	e8 00 00 00 00	 call	 ??$_Move_backward@PAUNewShopPullDownItem@@PAU1@@std@@YAPAUNewShopPullDownItem@@PAU1@00U_Nonscalar_ptr_iterator_tag@0@@Z ; std::_Move_backward<NewShopPullDownItem *,NewShopPullDownItem *>
  0004d	83 c4 10	 add	 esp, 16			; 00000010H

; 3660 : 				*_First = _Move(_Val);

  00050	8b cb		 mov	 ecx, ebx

; 3661 : 				}
; 3662 : 			else

  00052	eb 2e		 jmp	 SHORT $LN41@Insertion_
$LN5@Insertion_:

; 3652 : 		for (_BidIt _Next = _First; ++_Next != _Last; )

  00054	8d 77 14	 lea	 esi, DWORD PTR [edi+20]
$LL3@Insertion_:

; 3663 : 				{	// look for insertion point after first
; 3664 : 				for (_BidIt _First1 = _Next1;
; 3665 : 					_DEBUG_LT_PRED(_Pred, _Val, *--_First1);
; 3666 : 					_Next1 = _First1)

  00057	83 ee 50	 sub	 esi, 80			; 00000050H
  0005a	8b 06		 mov	 eax, DWORD PTR [esi]
  0005c	39 45 b4	 cmp	 DWORD PTR __Val$514413[ebp+20], eax
  0005f	72 0a		 jb	 SHORT $LN38@Insertion_
  00061	75 1c		 jne	 SHORT $LN25@Insertion_
  00063	8b 45 b0	 mov	 eax, DWORD PTR __Val$514413[ebp+16]
  00066	3b 46 fc	 cmp	 eax, DWORD PTR [esi-4]
  00069	7d 14		 jge	 SHORT $LN25@Insertion_
$LN38@Insertion_:

; 3667 : 					*_Next1 = _Move(*_First1);	// move hole down

  0006b	8b 4d f0	 mov	 ecx, DWORD PTR __Next1$514412[ebp]
  0006e	8d 5e ec	 lea	 ebx, DWORD PTR [esi-20]
  00071	53		 push	 ebx
  00072	e8 00 00 00 00	 call	 ??4NewShopPullDownItem@@QAEAAU0@ABU0@@Z
  00077	89 5d f0	 mov	 DWORD PTR __Next1$514412[ebp], ebx
  0007a	8b 5d 08	 mov	 ebx, DWORD PTR __First$[ebp]
  0007d	eb d8		 jmp	 SHORT $LL3@Insertion_

; 3663 : 				{	// look for insertion point after first
; 3664 : 				for (_BidIt _First1 = _Next1;
; 3665 : 					_DEBUG_LT_PRED(_Pred, _Val, *--_First1);
; 3666 : 					_Next1 = _First1)

$LN25@Insertion_:

; 3668 : 				*_Next1 = _Move(_Val);	// insert element in hole

  0007f	8b 4d f0	 mov	 ecx, DWORD PTR __Next1$514412[ebp]
$LN41@Insertion_:
  00082	8d 45 a0	 lea	 eax, DWORD PTR __Val$514413[ebp]
  00085	50		 push	 eax
  00086	e8 00 00 00 00	 call	 ??4NewShopPullDownItem@@QAEAAU0@ABU0@@Z

; 3669 : 				}
; 3670 : 			}

  0008b	83 4d fc ff	 or	 DWORD PTR __$EHRec$[ebp+8], -1
  0008f	8d 4d a0	 lea	 ecx, DWORD PTR __Val$514413[ebp]
  00092	e8 00 00 00 00	 call	 ??1NewShopPullDownItem@@QAE@XZ
  00097	83 c7 50	 add	 edi, 80			; 00000050H
$LN40@Insertion_:

; 3652 : 		for (_BidIt _Next = _First; ++_Next != _Last; )

  0009a	3b 7d 0c	 cmp	 edi, DWORD PTR __Last$[ebp]
  0009d	0f 85 7a ff ff
	ff		 jne	 $LL7@Insertion_
$LN6@Insertion_:

; 3671 : 	}

  000a3	e8 00 00 00 00	 call	 __EH_epilog3
  000a8	c3		 ret	 0
_TEXT	ENDS
;	COMDAT text$x
text$x	SEGMENT
__unwindfunclet$??$_Insertion_sort1@PAUNewShopPullDownItem@@VSoldierSort@InvenFourExtraCompoundBuyWnd@@U1@@std@@YAXPAUNewShopPullDownItem@@0VSoldierSort@InvenFourExtraCompoundBuyWnd@@0@Z$0:
  00000	8d 4d a0	 lea	 ecx, DWORD PTR __Val$514413[ebp]
  00003	e9 00 00 00 00	 jmp	 ??1NewShopPullDownItem@@QAE@XZ
__ehhandler$??$_Insertion_sort1@PAUNewShopPullDownItem@@VSoldierSort@InvenFourExtraCompoundBuyWnd@@U1@@std@@YAXPAUNewShopPullDownItem@@0VSoldierSort@InvenFourExtraCompoundBuyWnd@@0@Z:
  00008	8b 54 24 08	 mov	 edx, DWORD PTR [esp+8]
  0000c	8d 42 0c	 lea	 eax, DWORD PTR [edx+12]
  0000f	8b 4a 9c	 mov	 ecx, DWORD PTR [edx-100]
  00012	33 c8		 xor	 ecx, eax
  00014	e8 00 00 00 00	 call	 @__security_check_cookie@4
  00019	b8 00 00 00 00	 mov	 eax, OFFSET __ehfuncinfo$??$_Insertion_sort1@PAUNewShopPullDownItem@@VSoldierSort@InvenFourExtraCompoundBuyWnd@@U1@@std@@YAXPAUNewShopPullDownItem@@0VSoldierSort@InvenFourExtraCompoundBuyWnd@@0@Z
  0001e	e9 00 00 00 00	 jmp	 ___CxxFrameHandler3
text$x	ENDS
??$_Insertion_sort1@PAUNewShopPullDownItem@@VSoldierSort@InvenFourExtraCompoundBuyWnd@@U1@@std@@YAXPAUNewShopPullDownItem@@0VSoldierSort@InvenFourExtraCompoundBuyWnd@@0@Z ENDP ; std::_Insertion_sort1<NewShopPullDownItem *,InvenFourExtraCompoundBuyWnd::SoldierSort,NewShopPullDownItem>
PUBLIC	??$_Cons_val@V?$allocator@VioHashString@@@std@@VioHashString@@V3@@std@@YAXAAV?$allocator@VioHashString@@@0@PAVioHashString@@$$QAV2@@Z ; std::_Cons_val<std::allocator<ioHashString>,ioHashString,ioHashString>
; Function compile flags: /Ogsp
; File c:\program files (x86)\microsoft visual studio 10.0\vc\include\xmemory
;	COMDAT ??$_Cons_val@V?$allocator@VioHashString@@@std@@VioHashString@@V3@@std@@YAXAAV?$allocator@VioHashString@@@0@PAVioHashString@@$$QAV2@@Z
_TEXT	SEGMENT
__Alval$ = 8						; size = 4
__Pdest$ = 12						; size = 4
__Src$ = 16						; size = 4
??$_Cons_val@V?$allocator@VioHashString@@@std@@VioHashString@@V3@@std@@YAXAAV?$allocator@VioHashString@@@0@PAVioHashString@@$$QAV2@@Z PROC ; std::_Cons_val<std::allocator<ioHashString>,ioHashString,ioHashString>, COMDAT

; 279  : 	{	// construct using allocator

  00000	55		 push	 ebp
  00001	8b ec		 mov	 ebp, esp

; 280  : 	_Alval.construct(_Pdest, _STD forward<_Ty2>(_Src));

  00003	ff 75 10	 push	 DWORD PTR __Src$[ebp]
  00006	8b 4d 08	 mov	 ecx, DWORD PTR __Alval$[ebp]
  00009	ff 75 0c	 push	 DWORD PTR __Pdest$[ebp]
  0000c	e8 00 00 00 00	 call	 ?construct@?$allocator@VioHashString@@@std@@QAEXPAVioHashString@@$$QAV3@@Z ; std::allocator<ioHashString>::construct

; 281  : 	}

  00011	5d		 pop	 ebp
  00012	c3		 ret	 0
??$_Cons_val@V?$allocator@VioHashString@@@std@@VioHashString@@V3@@std@@YAXAAV?$allocator@VioHashString@@@0@PAVioHashString@@$$QAV2@@Z ENDP ; std::_Cons_val<std::allocator<ioHashString>,ioHashString,ioHashString>
_TEXT	ENDS
PUBLIC	??$_Cons_val@V?$allocator@UNewShopPullDownItem@@@std@@UNewShopPullDownItem@@U3@@std@@YAXAAV?$allocator@UNewShopPullDownItem@@@0@PAUNewShopPullDownItem@@$$QAU2@@Z ; std::_Cons_val<std::allocator<NewShopPullDownItem>,NewShopPullDownItem,NewShopPullDownItem>
;	COMDAT xdata$x
; File c:\program files (x86)\microsoft visual studio 10.0\vc\include\utility
xdata$x	SEGMENT
__unwindtable$??$_Cons_val@V?$allocator@UNewShopPullDownItem@@@std@@UNewShopPullDownItem@@U3@@std@@YAXAAV?$allocator@UNewShopPullDownItem@@@0@PAUNewShopPullDownItem@@$$QAU2@@Z DD 0ffffffffH
	DD	FLAT:__unwindfunclet$??$_Cons_val@V?$allocator@UNewShopPullDownItem@@@std@@UNewShopPullDownItem@@U3@@std@@YAXAAV?$allocator@UNewShopPullDownItem@@@0@PAUNewShopPullDownItem@@$$QAU2@@Z$0
__ehfuncinfo$??$_Cons_val@V?$allocator@UNewShopPullDownItem@@@std@@UNewShopPullDownItem@@U3@@std@@YAXAAV?$allocator@UNewShopPullDownItem@@@0@PAUNewShopPullDownItem@@$$QAU2@@Z DD 019930522H
	DD	01H
	DD	FLAT:__unwindtable$??$_Cons_val@V?$allocator@UNewShopPullDownItem@@@std@@UNewShopPullDownItem@@U3@@std@@YAXAAV?$allocator@UNewShopPullDownItem@@@0@PAUNewShopPullDownItem@@$$QAU2@@Z
	DD	2 DUP(00H)
	DD	2 DUP(00H)
	DD	00H
	DD	01H
; Function compile flags: /Ogsp
; File c:\program files (x86)\microsoft visual studio 10.0\vc\include\xmemory
xdata$x	ENDS
;	COMDAT ??$_Cons_val@V?$allocator@UNewShopPullDownItem@@@std@@UNewShopPullDownItem@@U3@@std@@YAXAAV?$allocator@UNewShopPullDownItem@@@0@PAUNewShopPullDownItem@@$$QAU2@@Z
_TEXT	SEGMENT
$T517174 = -16						; size = 4
__$EHRec$ = -12						; size = 12
__Alval$ = 8						; size = 4
__Pdest$ = 12						; size = 4
__Src$ = 16						; size = 4
??$_Cons_val@V?$allocator@UNewShopPullDownItem@@@std@@UNewShopPullDownItem@@U3@@std@@YAXAAV?$allocator@UNewShopPullDownItem@@@0@PAUNewShopPullDownItem@@$$QAU2@@Z PROC ; std::_Cons_val<std::allocator<NewShopPullDownItem>,NewShopPullDownItem,NewShopPullDownItem>, COMDAT

; 279  : 	{	// construct using allocator

  00000	6a 04		 push	 4
  00002	b8 00 00 00 00	 mov	 eax, __ehhandler$??$_Cons_val@V?$allocator@UNewShopPullDownItem@@@std@@UNewShopPullDownItem@@U3@@std@@YAXAAV?$allocator@UNewShopPullDownItem@@@0@PAUNewShopPullDownItem@@$$QAU2@@Z
  00007	e8 00 00 00 00	 call	 __EH_prolog3

; 280  : 	_Alval.construct(_Pdest, _STD forward<_Ty2>(_Src));

  0000c	8b 4d 0c	 mov	 ecx, DWORD PTR __Pdest$[ebp]
  0000f	89 4d f0	 mov	 DWORD PTR $T517174[ebp], ecx
  00012	83 65 fc 00	 and	 DWORD PTR __$EHRec$[ebp+8], 0
  00016	85 c9		 test	 ecx, ecx
  00018	74 08		 je	 SHORT $LN7@Cons_val@3
  0001a	ff 75 10	 push	 DWORD PTR __Src$[ebp]
  0001d	e8 00 00 00 00	 call	 ??0NewShopPullDownItem@@QAE@ABU0@@Z
$LN7@Cons_val@3:

; 281  : 	}

  00022	e8 00 00 00 00	 call	 __EH_epilog3
  00027	c3		 ret	 0
_TEXT	ENDS
;	COMDAT text$x
text$x	SEGMENT
__unwindfunclet$??$_Cons_val@V?$allocator@UNewShopPullDownItem@@@std@@UNewShopPullDownItem@@U3@@std@@YAXAAV?$allocator@UNewShopPullDownItem@@@0@PAUNewShopPullDownItem@@$$QAU2@@Z$0:
  00000	ff 75 0c	 push	 DWORD PTR __Pdest$[ebp]
  00003	ff 75 f0	 push	 DWORD PTR $T517174[ebp]
  00006	e8 00 00 00 00	 call	 ??3@YAXPAX0@Z		; operator delete
  0000b	59		 pop	 ecx
  0000c	59		 pop	 ecx
  0000d	c3		 ret	 0
__ehhandler$??$_Cons_val@V?$allocator@UNewShopPullDownItem@@@std@@UNewShopPullDownItem@@U3@@std@@YAXAAV?$allocator@UNewShopPullDownItem@@@0@PAUNewShopPullDownItem@@$$QAU2@@Z:
  0000e	8b 54 24 08	 mov	 edx, DWORD PTR [esp+8]
  00012	8d 42 0c	 lea	 eax, DWORD PTR [edx+12]
  00015	8b 4a ec	 mov	 ecx, DWORD PTR [edx-20]
  00018	33 c8		 xor	 ecx, eax
  0001a	e8 00 00 00 00	 call	 @__security_check_cookie@4
  0001f	b8 00 00 00 00	 mov	 eax, OFFSET __ehfuncinfo$??$_Cons_val@V?$allocator@UNewShopPullDownItem@@@std@@UNewShopPullDownItem@@U3@@std@@YAXAAV?$allocator@UNewShopPullDownItem@@@0@PAUNewShopPullDownItem@@$$QAU2@@Z
  00024	e9 00 00 00 00	 jmp	 ___CxxFrameHandler3
text$x	ENDS
??$_Cons_val@V?$allocator@UNewShopPullDownItem@@@std@@UNewShopPullDownItem@@U3@@std@@YAXAAV?$allocator@UNewShopPullDownItem@@@0@PAUNewShopPullDownItem@@$$QAU2@@Z ENDP ; std::_Cons_val<std::allocator<NewShopPullDownItem>,NewShopPullDownItem,NewShopPullDownItem>
PUBLIC	??$_Med3@PAUNewShopPullDownItem@@VSoldierSort@InvenFourExtraCompoundBuyWnd@@@std@@YAXPAUNewShopPullDownItem@@00VSoldierSort@InvenFourExtraCompoundBuyWnd@@@Z ; std::_Med3<NewShopPullDownItem *,InvenFourExtraCompoundBuyWnd::SoldierSort>
; Function compile flags: /Ogsp
; File c:\program files (x86)\microsoft visual studio 10.0\vc\include\algorithm
;	COMDAT ??$_Med3@PAUNewShopPullDownItem@@VSoldierSort@InvenFourExtraCompoundBuyWnd@@@std@@YAXPAUNewShopPullDownItem@@00VSoldierSort@InvenFourExtraCompoundBuyWnd@@@Z
_TEXT	SEGMENT
__First$ = 8						; size = 4
__Mid$ = 12						; size = 4
__Last$ = 16						; size = 4
__Pred$ = 20						; size = 1
??$_Med3@PAUNewShopPullDownItem@@VSoldierSort@InvenFourExtraCompoundBuyWnd@@@std@@YAXPAUNewShopPullDownItem@@00VSoldierSort@InvenFourExtraCompoundBuyWnd@@@Z PROC ; std::_Med3<NewShopPullDownItem *,InvenFourExtraCompoundBuyWnd::SoldierSort>, COMDAT

; 3683 : 	{	// sort median of three elements to middle

  00000	55		 push	 ebp
  00001	8b ec		 mov	 ebp, esp
  00003	56		 push	 esi

; 3684 : 	if (_DEBUG_LT_PRED(_Pred, *_Mid, *_First))

  00004	8b 75 0c	 mov	 esi, DWORD PTR __Mid$[ebp]
  00007	57		 push	 edi
  00008	8b 7d 08	 mov	 edi, DWORD PTR __First$[ebp]
  0000b	57		 push	 edi
  0000c	56		 push	 esi
  0000d	8d 4d 14	 lea	 ecx, DWORD PTR __Pred$[ebp]
  00010	e8 00 00 00 00	 call	 ??RSoldierSort@InvenFourExtraCompoundBuyWnd@@QBE_NABUNewShopPullDownItem@@0@Z ; InvenFourExtraCompoundBuyWnd::SoldierSort::operator()
  00015	84 c0		 test	 al, al
  00017	74 09		 je	 SHORT $LN6@Med3

; 3685 : 		_STD iter_swap(_Mid, _First);

  00019	57		 push	 edi
  0001a	56		 push	 esi
  0001b	e8 00 00 00 00	 call	 ??$swap@UNewShopPullDownItem@@@std@@YAXAAUNewShopPullDownItem@@0@Z ; std::swap<NewShopPullDownItem>
  00020	59		 pop	 ecx
  00021	59		 pop	 ecx
$LN6@Med3:

; 3686 : 	if (_DEBUG_LT_PRED(_Pred, *_Last, *_Mid))

  00022	56		 push	 esi
  00023	ff 75 10	 push	 DWORD PTR __Last$[ebp]
  00026	8d 4d 14	 lea	 ecx, DWORD PTR __Pred$[ebp]
  00029	e8 00 00 00 00	 call	 ??RSoldierSort@InvenFourExtraCompoundBuyWnd@@QBE_NABUNewShopPullDownItem@@0@Z ; InvenFourExtraCompoundBuyWnd::SoldierSort::operator()
  0002e	84 c0		 test	 al, al
  00030	74 0b		 je	 SHORT $LN8@Med3

; 3687 : 		_STD iter_swap(_Last, _Mid);

  00032	56		 push	 esi
  00033	ff 75 10	 push	 DWORD PTR __Last$[ebp]
  00036	e8 00 00 00 00	 call	 ??$swap@UNewShopPullDownItem@@@std@@YAXAAUNewShopPullDownItem@@0@Z ; std::swap<NewShopPullDownItem>
  0003b	59		 pop	 ecx
  0003c	59		 pop	 ecx
$LN8@Med3:

; 3688 : 	if (_DEBUG_LT_PRED(_Pred, *_Mid, *_First))

  0003d	57		 push	 edi
  0003e	56		 push	 esi
  0003f	8d 4d 14	 lea	 ecx, DWORD PTR __Pred$[ebp]
  00042	e8 00 00 00 00	 call	 ??RSoldierSort@InvenFourExtraCompoundBuyWnd@@QBE_NABUNewShopPullDownItem@@0@Z ; InvenFourExtraCompoundBuyWnd::SoldierSort::operator()
  00047	84 c0		 test	 al, al
  00049	74 09		 je	 SHORT $LN10@Med3

; 3689 : 		_STD iter_swap(_Mid, _First);

  0004b	57		 push	 edi
  0004c	56		 push	 esi
  0004d	e8 00 00 00 00	 call	 ??$swap@UNewShopPullDownItem@@@std@@YAXAAUNewShopPullDownItem@@0@Z ; std::swap<NewShopPullDownItem>
  00052	59		 pop	 ecx
  00053	59		 pop	 ecx
$LN10@Med3:
  00054	5f		 pop	 edi
  00055	5e		 pop	 esi

; 3690 : 	}

  00056	5d		 pop	 ebp
  00057	c3		 ret	 0
??$_Med3@PAUNewShopPullDownItem@@VSoldierSort@InvenFourExtraCompoundBuyWnd@@@std@@YAXPAUNewShopPullDownItem@@00VSoldierSort@InvenFourExtraCompoundBuyWnd@@@Z ENDP ; std::_Med3<NewShopPullDownItem *,InvenFourExtraCompoundBuyWnd::SoldierSort>
_TEXT	ENDS
PUBLIC	??$_Pop_heap_0@PAUNewShopPullDownItem@@U1@VSoldierSort@InvenFourExtraCompoundBuyWnd@@@std@@YAXPAUNewShopPullDownItem@@0VSoldierSort@InvenFourExtraCompoundBuyWnd@@0@Z ; std::_Pop_heap_0<NewShopPullDownItem *,NewShopPullDownItem,InvenFourExtraCompoundBuyWnd::SoldierSort>
;	COMDAT xdata$x
; File c:\program files (x86)\microsoft visual studio 10.0\vc\include\utility
xdata$x	SEGMENT
__unwindtable$??$_Pop_heap_0@PAUNewShopPullDownItem@@U1@VSoldierSort@InvenFourExtraCompoundBuyWnd@@@std@@YAXPAUNewShopPullDownItem@@0VSoldierSort@InvenFourExtraCompoundBuyWnd@@0@Z DD 0ffffffffH
	DD	FLAT:__unwindfunclet$??$_Pop_heap_0@PAUNewShopPullDownItem@@U1@VSoldierSort@InvenFourExtraCompoundBuyWnd@@@std@@YAXPAUNewShopPullDownItem@@0VSoldierSort@InvenFourExtraCompoundBuyWnd@@0@Z$0
__ehfuncinfo$??$_Pop_heap_0@PAUNewShopPullDownItem@@U1@VSoldierSort@InvenFourExtraCompoundBuyWnd@@@std@@YAXPAUNewShopPullDownItem@@0VSoldierSort@InvenFourExtraCompoundBuyWnd@@0@Z DD 019930522H
	DD	01H
	DD	FLAT:__unwindtable$??$_Pop_heap_0@PAUNewShopPullDownItem@@U1@VSoldierSort@InvenFourExtraCompoundBuyWnd@@@std@@YAXPAUNewShopPullDownItem@@0VSoldierSort@InvenFourExtraCompoundBuyWnd@@0@Z
	DD	2 DUP(00H)
	DD	2 DUP(00H)
	DD	00H
	DD	01H
; Function compile flags: /Ogsp
; File c:\program files (x86)\microsoft visual studio 10.0\vc\include\algorithm
xdata$x	ENDS
;	COMDAT ??$_Pop_heap_0@PAUNewShopPullDownItem@@U1@VSoldierSort@InvenFourExtraCompoundBuyWnd@@@std@@YAXPAUNewShopPullDownItem@@0VSoldierSort@InvenFourExtraCompoundBuyWnd@@0@Z
_TEXT	SEGMENT
__Val$ = -92						; size = 80
__$EHRec$ = -12						; size = 12
__First$ = 8						; size = 4
__Last$ = 12						; size = 4
__Pred$ = 16						; size = 1
___formal$ = 20						; size = 4
??$_Pop_heap_0@PAUNewShopPullDownItem@@U1@VSoldierSort@InvenFourExtraCompoundBuyWnd@@@std@@YAXPAUNewShopPullDownItem@@0VSoldierSort@InvenFourExtraCompoundBuyWnd@@0@Z PROC ; std::_Pop_heap_0<NewShopPullDownItem *,NewShopPullDownItem,InvenFourExtraCompoundBuyWnd::SoldierSort>, COMDAT

; 2601 : 	{	// pop *_First to *(_Last - 1) and reheap, using _Pred

  00000	6a 50		 push	 80			; 00000050H
  00002	b8 00 00 00 00	 mov	 eax, __ehhandler$??$_Pop_heap_0@PAUNewShopPullDownItem@@U1@VSoldierSort@InvenFourExtraCompoundBuyWnd@@@std@@YAXPAUNewShopPullDownItem@@0VSoldierSort@InvenFourExtraCompoundBuyWnd@@0@Z
  00007	e8 00 00 00 00	 call	 __EH_prolog3

; 2602 : 	_Ty _Val = _Move(*(_Last - 1));

  0000c	8b 75 0c	 mov	 esi, DWORD PTR __Last$[ebp]
  0000f	83 c6 b0	 add	 esi, -80		; ffffffb0H
  00012	56		 push	 esi
  00013	8d 4d a4	 lea	 ecx, DWORD PTR __Val$[ebp]
  00016	e8 00 00 00 00	 call	 ??0NewShopPullDownItem@@QAE@ABU0@@Z
  0001b	83 65 fc 00	 and	 DWORD PTR __$EHRec$[ebp+8], 0

; 2603 : 	_Pop_heap(_First, _Last - 1, _Last - 1,
; 2604 : 		_Move(_Val), _Pred, _Dist_type(_First));

  0001f	6a 00		 push	 0
  00021	ff 75 10	 push	 DWORD PTR __Pred$[ebp]
  00024	8d 45 a4	 lea	 eax, DWORD PTR __Val$[ebp]
  00027	50		 push	 eax
  00028	56		 push	 esi
  00029	56		 push	 esi
  0002a	ff 75 08	 push	 DWORD PTR __First$[ebp]
  0002d	e8 00 00 00 00	 call	 ??$_Pop_heap@PAUNewShopPullDownItem@@HU1@VSoldierSort@InvenFourExtraCompoundBuyWnd@@@std@@YAXPAUNewShopPullDownItem@@00$$QAU1@VSoldierSort@InvenFourExtraCompoundBuyWnd@@PAH@Z ; std::_Pop_heap<NewShopPullDownItem *,int,NewShopPullDownItem,InvenFourExtraCompoundBuyWnd::SoldierSort>

; 2605 : 	}

  00032	83 4d fc ff	 or	 DWORD PTR __$EHRec$[ebp+8], -1
  00036	83 c4 18	 add	 esp, 24			; 00000018H
  00039	8d 4d a4	 lea	 ecx, DWORD PTR __Val$[ebp]
  0003c	e8 00 00 00 00	 call	 ??1NewShopPullDownItem@@QAE@XZ
  00041	e8 00 00 00 00	 call	 __EH_epilog3
  00046	c3		 ret	 0
_TEXT	ENDS
;	COMDAT text$x
text$x	SEGMENT
__unwindfunclet$??$_Pop_heap_0@PAUNewShopPullDownItem@@U1@VSoldierSort@InvenFourExtraCompoundBuyWnd@@@std@@YAXPAUNewShopPullDownItem@@0VSoldierSort@InvenFourExtraCompoundBuyWnd@@0@Z$0:
  00000	8d 4d a4	 lea	 ecx, DWORD PTR __Val$[ebp]
  00003	e9 00 00 00 00	 jmp	 ??1NewShopPullDownItem@@QAE@XZ
__ehhandler$??$_Pop_heap_0@PAUNewShopPullDownItem@@U1@VSoldierSort@InvenFourExtraCompoundBuyWnd@@@std@@YAXPAUNewShopPullDownItem@@0VSoldierSort@InvenFourExtraCompoundBuyWnd@@0@Z:
  00008	8b 54 24 08	 mov	 edx, DWORD PTR [esp+8]
  0000c	8d 42 0c	 lea	 eax, DWORD PTR [edx+12]
  0000f	8b 4a a0	 mov	 ecx, DWORD PTR [edx-96]
  00012	33 c8		 xor	 ecx, eax
  00014	e8 00 00 00 00	 call	 @__security_check_cookie@4
  00019	b8 00 00 00 00	 mov	 eax, OFFSET __ehfuncinfo$??$_Pop_heap_0@PAUNewShopPullDownItem@@U1@VSoldierSort@InvenFourExtraCompoundBuyWnd@@@std@@YAXPAUNewShopPullDownItem@@0VSoldierSort@InvenFourExtraCompoundBuyWnd@@0@Z
  0001e	e9 00 00 00 00	 jmp	 ___CxxFrameHandler3
text$x	ENDS
??$_Pop_heap_0@PAUNewShopPullDownItem@@U1@VSoldierSort@InvenFourExtraCompoundBuyWnd@@@std@@YAXPAUNewShopPullDownItem@@0VSoldierSort@InvenFourExtraCompoundBuyWnd@@0@Z ENDP ; std::_Pop_heap_0<NewShopPullDownItem *,NewShopPullDownItem,InvenFourExtraCompoundBuyWnd::SoldierSort>
PUBLIC	?Init@CHARACTER@@QAEXXZ				; CHARACTER::Init
; Function compile flags: /Ogsp
; File d:\lost saga for developer\youtube\tutorial\source\src\lsclient\characterinfo.h
;	COMDAT ?Init@CHARACTER@@QAEXXZ
_TEXT	SEGMENT
_value$517262 = -12					; size = 4
tv151 = -8						; size = 4
_value$517258 = -8					; size = 4
_value$517254 = -8					; size = 4
_value$517250 = -8					; size = 4
_value$517246 = -8					; size = 4
_value$517242 = -8					; size = 4
_value$517238 = -8					; size = 4
_value$517234 = -8					; size = 4
_value$517230 = -8					; size = 4
_value$517226 = -8					; size = 4
_value$517222 = -8					; size = 4
tv307 = -4						; size = 4
?Init@CHARACTER@@QAEXXZ PROC				; CHARACTER::Init, COMDAT
; _this$ = ecx

; 350  : 	{

  00000	55		 push	 ebp
  00001	8b ec		 mov	 ebp, esp
  00003	83 ec 0c	 sub	 esp, 12			; 0000000cH
  00006	53		 push	 ebx
  00007	56		 push	 esi
  00008	57		 push	 edi

; 351  : 		m_class_type	    = 0;

  00009	8d 45 f8	 lea	 eax, DWORD PTR _value$517222[ebp]
  0000c	33 ff		 xor	 edi, edi
  0000e	50		 push	 eax
  0000f	8b f1		 mov	 esi, ecx
  00011	89 7d f8	 mov	 DWORD PTR _value$517222[ebp], edi
  00014	e8 00 00 00 00	 call	 ?EncryptValueToPool@?$CEncrypt@H@@AAEXPBD@Z ; CEncrypt<int>::EncryptValueToPool

; 352  : 		m_kindred			= 1;

  00019	33 db		 xor	 ebx, ebx
  0001b	8d 45 f8	 lea	 eax, DWORD PTR _value$517226[ebp]
  0001e	43		 inc	 ebx
  0001f	50		 push	 eax
  00020	8d 4e 30	 lea	 ecx, DWORD PTR [esi+48]
  00023	89 5d f8	 mov	 DWORD PTR _value$517226[ebp], ebx
  00026	e8 00 00 00 00	 call	 ?EncryptValueToPool@?$CEncrypt@H@@AAEXPBD@Z ; CEncrypt<int>::EncryptValueToPool

; 353  : 		m_sex				= 1;

  0002b	8d 45 f8	 lea	 eax, DWORD PTR _value$517230[ebp]
  0002e	50		 push	 eax
  0002f	8d 4e 60	 lea	 ecx, DWORD PTR [esi+96]
  00032	89 5d f8	 mov	 DWORD PTR _value$517230[ebp], ebx
  00035	e8 00 00 00 00	 call	 ?EncryptValueToPool@?$CEncrypt@H@@AAEXPBD@Z ; CEncrypt<int>::EncryptValueToPool

; 354  : 		m_beard				= 1;

  0003a	8d 45 f8	 lea	 eax, DWORD PTR _value$517234[ebp]
  0003d	50		 push	 eax
  0003e	8d 8e 90 00 00
	00		 lea	 ecx, DWORD PTR [esi+144]
  00044	89 5d f8	 mov	 DWORD PTR _value$517234[ebp], ebx
  00047	e8 00 00 00 00	 call	 ?EncryptValueToPool@?$CEncrypt@H@@AAEXPBD@Z ; CEncrypt<int>::EncryptValueToPool

; 355  : 		m_face				= 1;

  0004c	8d 45 f8	 lea	 eax, DWORD PTR _value$517238[ebp]
  0004f	50		 push	 eax
  00050	8d 8e c0 00 00
	00		 lea	 ecx, DWORD PTR [esi+192]
  00056	89 5d f8	 mov	 DWORD PTR _value$517238[ebp], ebx
  00059	e8 00 00 00 00	 call	 ?EncryptValueToPool@?$CEncrypt@H@@AAEXPBD@Z ; CEncrypt<int>::EncryptValueToPool

; 356  : 		m_hair				= 1;

  0005e	8d 45 f8	 lea	 eax, DWORD PTR _value$517242[ebp]
  00061	50		 push	 eax
  00062	8d 8e f0 00 00
	00		 lea	 ecx, DWORD PTR [esi+240]
  00068	89 5d f8	 mov	 DWORD PTR _value$517242[ebp], ebx
  0006b	e8 00 00 00 00	 call	 ?EncryptValueToPool@?$CEncrypt@H@@AAEXPBD@Z ; CEncrypt<int>::EncryptValueToPool

; 357  : 		m_skin_color		= 1;

  00070	8d 45 f8	 lea	 eax, DWORD PTR _value$517246[ebp]
  00073	50		 push	 eax
  00074	8d 8e 20 01 00
	00		 lea	 ecx, DWORD PTR [esi+288]
  0007a	89 5d f8	 mov	 DWORD PTR _value$517246[ebp], ebx
  0007d	e8 00 00 00 00	 call	 ?EncryptValueToPool@?$CEncrypt@H@@AAEXPBD@Z ; CEncrypt<int>::EncryptValueToPool

; 358  : 		m_hair_color		= 1;

  00082	8d 45 f8	 lea	 eax, DWORD PTR _value$517250[ebp]
  00085	50		 push	 eax
  00086	8d 8e 50 01 00
	00		 lea	 ecx, DWORD PTR [esi+336]
  0008c	89 5d f8	 mov	 DWORD PTR _value$517250[ebp], ebx
  0008f	e8 00 00 00 00	 call	 ?EncryptValueToPool@?$CEncrypt@H@@AAEXPBD@Z ; CEncrypt<int>::EncryptValueToPool

; 359  : 		m_accessories		= 1;

  00094	8d 45 f8	 lea	 eax, DWORD PTR _value$517254[ebp]
  00097	50		 push	 eax
  00098	8d 8e 80 01 00
	00		 lea	 ecx, DWORD PTR [esi+384]
  0009e	89 5d f8	 mov	 DWORD PTR _value$517254[ebp], ebx
  000a1	e8 00 00 00 00	 call	 ?EncryptValueToPool@?$CEncrypt@H@@AAEXPBD@Z ; CEncrypt<int>::EncryptValueToPool

; 360  : 		m_underwear			= 1;

  000a6	8d 45 f8	 lea	 eax, DWORD PTR _value$517258[ebp]
  000a9	50		 push	 eax
  000aa	8d 8e b0 01 00
	00		 lea	 ecx, DWORD PTR [esi+432]
  000b0	89 5d f8	 mov	 DWORD PTR _value$517258[ebp], ebx
  000b3	e8 00 00 00 00	 call	 ?EncryptValueToPool@?$CEncrypt@H@@AAEXPBD@Z ; CEncrypt<int>::EncryptValueToPool
  000b8	8d 86 e0 01 00
	00		 lea	 eax, DWORD PTR [esi+480]
  000be	89 45 fc	 mov	 DWORD PTR tv307[ebp], eax
  000c1	c7 45 f8 04 00
	00 00		 mov	 DWORD PTR tv151[ebp], 4
$LL44@Init@2:

; 361  : 
; 362  : 		for(int i = 0; i < MAX_INVENTORY ; i++ )
; 363  : 			m_extra_item[i]	= 0;

  000c8	8b 4d fc	 mov	 ecx, DWORD PTR tv307[ebp]
  000cb	8d 45 f4	 lea	 eax, DWORD PTR _value$517262[ebp]
  000ce	50		 push	 eax
  000cf	89 7d f4	 mov	 DWORD PTR _value$517262[ebp], edi
  000d2	e8 00 00 00 00	 call	 ?EncryptValueToPool@?$CEncrypt@H@@AAEXPBD@Z ; CEncrypt<int>::EncryptValueToPool
  000d7	83 45 fc 30	 add	 DWORD PTR tv307[ebp], 48 ; 00000030H
  000db	ff 4d f8	 dec	 DWORD PTR tv151[ebp]
  000de	75 e8		 jne	 SHORT $LL44@Init@2

; 364  : 
; 365  : 		m_iSlotIndex		= -1;

  000e0	83 8e a0 02 00
	00 ff		 or	 DWORD PTR [esi+672], -1

; 366  : 		m_iLimitSecond		= 0;
; 367  : 
; 368  : 		m_sLeaderType		= CLT_GENERAL;

  000e7	33 c0		 xor	 eax, eax
  000e9	6a 04		 push	 4
  000eb	66 89 86 a8 02
	00 00		 mov	 WORD PTR [esi+680], ax

; 369  : 		m_sRentalType		= CRT_GENERAL;

  000f2	66 89 86 aa 02
	00 00		 mov	 WORD PTR [esi+682], ax

; 370  : 		m_dwRentalMinute	= 0;
; 371  : 		m_ePeriodType		= CPT_TIME;
; 372  : 
; 373  : 		m_bActive			= true;
; 374  : 		m_chExerciseStyle	= 0x00;

  000f9	66 89 86 b5 02
	00 00		 mov	 WORD PTR [esi+693], ax

; 375  : 
; 376  : 		m_iAwakeType		= AWAKE_NONE;
; 377  : 		m_iAwakeLimitTime	= 0;
; 378  : 
; 379  : 		m_eCharPowerUpType = PUGT_NONE;

  00100	88 86 bc 02 00
	00		 mov	 BYTE PTR [esi+700], al
  00106	89 be a4 02 00
	00		 mov	 DWORD PTR [esi+676], edi
  0010c	89 be ac 02 00
	00		 mov	 DWORD PTR [esi+684], edi
  00112	89 be b0 02 00
	00		 mov	 DWORD PTR [esi+688], edi
  00118	88 9e b4 02 00
	00		 mov	 BYTE PTR [esi+692], bl
  0011e	89 be b8 02 00
	00		 mov	 DWORD PTR [esi+696], edi
  00124	8d 86 c8 02 00
	00		 lea	 eax, DWORD PTR [esi+712]
  0012a	59		 pop	 ecx
$LL6@Init@2:

; 380  : 
; 381  : 		for(int i = 0; i < MAX_INVENTORY ; i++ )
; 382  : 			m_EquipCostume[i].Init();

  0012b	89 78 f8	 mov	 DWORD PTR [eax-8], edi
  0012e	89 78 fc	 mov	 DWORD PTR [eax-4], edi
  00131	89 38		 mov	 DWORD PTR [eax], edi
  00133	89 78 04	 mov	 DWORD PTR [eax+4], edi
  00136	83 c0 10	 add	 eax, 16			; 00000010H
  00139	49		 dec	 ecx
  0013a	75 ef		 jne	 SHORT $LL6@Init@2

; 383  : 		for(int i = 0; i < MAX_ACC_INVENTORY ; i++ )

  0013c	6a 03		 push	 3
  0013e	81 c6 08 03 00
	00		 add	 esi, 776		; 00000308H
  00144	58		 pop	 eax
$LL3@Init@2:

; 384  : 			m_EquipAccessory[i].Init();

  00145	89 7e f8	 mov	 DWORD PTR [esi-8], edi
  00148	89 7e fc	 mov	 DWORD PTR [esi-4], edi
  0014b	89 3e		 mov	 DWORD PTR [esi], edi
  0014d	83 c6 0c	 add	 esi, 12			; 0000000cH
  00150	48		 dec	 eax
  00151	75 f2		 jne	 SHORT $LL3@Init@2
  00153	5f		 pop	 edi
  00154	5e		 pop	 esi
  00155	5b		 pop	 ebx

; 385  : 	}

  00156	c9		 leave
  00157	c3		 ret	 0
?Init@CHARACTER@@QAEXXZ ENDP				; CHARACTER::Init
_TEXT	ENDS
PUBLIC	??0?$vector@VioHashString@@V?$allocator@VioHashString@@@std@@@std@@QAE@XZ ; std::vector<ioHashString,std::allocator<ioHashString> >::vector<ioHashString,std::allocator<ioHashString> >
; Function compile flags: /Ogsp
; File c:\program files (x86)\microsoft visual studio 10.0\vc\include\vector
;	COMDAT ??0?$vector@VioHashString@@V?$allocator@VioHashString@@@std@@@std@@QAE@XZ
_TEXT	SEGMENT
??0?$vector@VioHashString@@V?$allocator@VioHashString@@@std@@@std@@QAE@XZ PROC ; std::vector<ioHashString,std::allocator<ioHashString> >::vector<ioHashString,std::allocator<ioHashString> >, COMDAT
; _this$ = ecx

; 507  : 		{	// construct empty vector

  00000	8b c1		 mov	 eax, ecx
  00002	33 c9		 xor	 ecx, ecx
  00004	89 08		 mov	 DWORD PTR [eax], ecx
  00006	89 48 04	 mov	 DWORD PTR [eax+4], ecx
  00009	89 48 08	 mov	 DWORD PTR [eax+8], ecx

; 508  : 		}

  0000c	c3		 ret	 0
??0?$vector@VioHashString@@V?$allocator@VioHashString@@@std@@@std@@QAE@XZ ENDP ; std::vector<ioHashString,std::allocator<ioHashString> >::vector<ioHashString,std::allocator<ioHashString> >
_TEXT	ENDS
PUBLIC	??0?$vector@HV?$allocator@H@std@@@std@@QAE@XZ	; std::vector<int,std::allocator<int> >::vector<int,std::allocator<int> >
; Function compile flags: /Ogsp
;	COMDAT ??0?$vector@HV?$allocator@H@std@@@std@@QAE@XZ
_TEXT	SEGMENT
??0?$vector@HV?$allocator@H@std@@@std@@QAE@XZ PROC	; std::vector<int,std::allocator<int> >::vector<int,std::allocator<int> >, COMDAT
; _this$ = ecx

; 507  : 		{	// construct empty vector

  00000	8b c1		 mov	 eax, ecx
  00002	33 c9		 xor	 ecx, ecx
  00004	89 08		 mov	 DWORD PTR [eax], ecx
  00006	89 48 04	 mov	 DWORD PTR [eax+4], ecx
  00009	89 48 08	 mov	 DWORD PTR [eax+8], ecx

; 508  : 		}

  0000c	c3		 ret	 0
??0?$vector@HV?$allocator@H@std@@@std@@QAE@XZ ENDP	; std::vector<int,std::allocator<int> >::vector<int,std::allocator<int> >
_TEXT	ENDS
PUBLIC	??H?$_Vector_iterator@V?$_Vector_val@HV?$allocator@H@std@@@std@@@std@@QBE?AV01@H@Z ; std::_Vector_iterator<std::_Vector_val<int,std::allocator<int> > >::operator+
; Function compile flags: /Ogsp
;	COMDAT ??H?$_Vector_iterator@V?$_Vector_val@HV?$allocator@H@std@@@std@@@std@@QBE?AV01@H@Z
_TEXT	SEGMENT
___$ReturnUdt$ = 8					; size = 4
__Off$ = 12						; size = 4
??H?$_Vector_iterator@V?$_Vector_val@HV?$allocator@H@std@@@std@@@std@@QBE?AV01@H@Z PROC ; std::_Vector_iterator<std::_Vector_val<int,std::allocator<int> > >::operator+, COMDAT
; _this$ = ecx

; 363  : 		{	// return this + integer

  00000	55		 push	 ebp
  00001	8b ec		 mov	 ebp, esp

; 364  : 		_Myiter _Tmp = *this;
; 365  : 		return (_Tmp += _Off);

  00003	8b 01		 mov	 eax, DWORD PTR [ecx]
  00005	8b 4d 0c	 mov	 ecx, DWORD PTR __Off$[ebp]
  00008	8d 0c 88	 lea	 ecx, DWORD PTR [eax+ecx*4]
  0000b	8b 45 08	 mov	 eax, DWORD PTR ___$ReturnUdt$[ebp]
  0000e	89 08		 mov	 DWORD PTR [eax], ecx

; 366  : 		}

  00010	5d		 pop	 ebp
  00011	c2 08 00	 ret	 8
??H?$_Vector_iterator@V?$_Vector_val@HV?$allocator@H@std@@@std@@@std@@QBE?AV01@H@Z ENDP ; std::_Vector_iterator<std::_Vector_val<int,std::allocator<int> > >::operator+
_TEXT	ENDS
PUBLIC	?_Destroy@?$vector@HV?$allocator@H@std@@@std@@IAEXPAH0@Z ; std::vector<int,std::allocator<int> >::_Destroy
; Function compile flags: /Ogsp
;	COMDAT ?_Destroy@?$vector@HV?$allocator@H@std@@@std@@IAEXPAH0@Z
_TEXT	SEGMENT
__First$ = 8						; size = 4
__Last$ = 12						; size = 4
?_Destroy@?$vector@HV?$allocator@H@std@@@std@@IAEXPAH0@Z PROC ; std::vector<int,std::allocator<int> >::_Destroy, COMDAT
; _this$ = ecx

; 1270 : 		_Destroy_range(_First, _Last, this->_Alval);
; 1271 : 		}

  00000	c2 08 00	 ret	 8
?_Destroy@?$vector@HV?$allocator@H@std@@@std@@IAEXPAH0@Z ENDP ; std::vector<int,std::allocator<int> >::_Destroy
_TEXT	ENDS
PUBLIC	??9?$_Vector_const_iterator@V?$_Vector_val@VioHashString@@V?$allocator@VioHashString@@@std@@@std@@@std@@QBE_NABV01@@Z ; std::_Vector_const_iterator<std::_Vector_val<ioHashString,std::allocator<ioHashString> > >::operator!=
; Function compile flags: /Ogsp
;	COMDAT ??9?$_Vector_const_iterator@V?$_Vector_val@VioHashString@@V?$allocator@VioHashString@@@std@@@std@@@std@@QBE_NABV01@@Z
_TEXT	SEGMENT
__Right$ = 8						; size = 4
??9?$_Vector_const_iterator@V?$_Vector_val@VioHashString@@V?$allocator@VioHashString@@@std@@@std@@@std@@QBE_NABV01@@Z PROC ; std::_Vector_const_iterator<std::_Vector_val<ioHashString,std::allocator<ioHashString> > >::operator!=, COMDAT
; _this$ = ecx

; 207  : 		{	// test for iterator inequality

  00000	55		 push	 ebp
  00001	8b ec		 mov	 ebp, esp

; 208  : 		return (!(*this == _Right));

  00003	8b 01		 mov	 eax, DWORD PTR [ecx]
  00005	8b 55 08	 mov	 edx, DWORD PTR __Right$[ebp]
  00008	33 c9		 xor	 ecx, ecx
  0000a	3b 02		 cmp	 eax, DWORD PTR [edx]
  0000c	0f 95 c0	 setne	 al

; 209  : 		}

  0000f	5d		 pop	 ebp
  00010	c2 04 00	 ret	 4
??9?$_Vector_const_iterator@V?$_Vector_val@VioHashString@@V?$allocator@VioHashString@@@std@@@std@@@std@@QBE_NABV01@@Z ENDP ; std::_Vector_const_iterator<std::_Vector_val<ioHashString,std::allocator<ioHashString> > >::operator!=
_TEXT	ENDS
PUBLIC	??$_Move@PAVioHashString@@PAV1@@std@@YAPAVioHashString@@PAV1@00@Z ; std::_Move<ioHashString *,ioHashString *>
; Function compile flags: /Ogsp
; File c:\program files (x86)\microsoft visual studio 10.0\vc\include\xutility
;	COMDAT ??$_Move@PAVioHashString@@PAV1@@std@@YAPAVioHashString@@PAV1@00@Z
_TEXT	SEGMENT
__Cat$517358 = -4					; size = 1
__First$ = 8						; size = 4
__Last$ = 12						; size = 4
__Dest$ = 16						; size = 4
??$_Move@PAVioHashString@@PAV1@@std@@YAPAVioHashString@@PAV1@00@Z PROC ; std::_Move<ioHashString *,ioHashString *>, COMDAT

; 2533 : 	{	// move [_First, _Last) to [_Dest, ...), unchecked

  00000	55		 push	 ebp
  00001	8b ec		 mov	 ebp, esp
  00003	51		 push	 ecx

; 2534 : 	return (_Move(_First, _Last,
; 2535 : 		_Dest, _Ptr_cat(_First, _Dest)));

  00004	ff 75 fc	 push	 DWORD PTR __Cat$517358[ebp]
  00007	ff 75 10	 push	 DWORD PTR __Dest$[ebp]
  0000a	ff 75 0c	 push	 DWORD PTR __Last$[ebp]
  0000d	ff 75 08	 push	 DWORD PTR __First$[ebp]
  00010	e8 00 00 00 00	 call	 ??$_Move@PAVioHashString@@PAV1@@std@@YAPAVioHashString@@PAV1@00U_Nonscalar_ptr_iterator_tag@0@@Z ; std::_Move<ioHashString *,ioHashString *>
  00015	83 c4 10	 add	 esp, 16			; 00000010H

; 2536 : 	}

  00018	c9		 leave
  00019	c3		 ret	 0
??$_Move@PAVioHashString@@PAV1@@std@@YAPAVioHashString@@PAV1@00@Z ENDP ; std::_Move<ioHashString *,ioHashString *>
_TEXT	ENDS
PUBLIC	??$_Umove@PAH@?$vector@HV?$allocator@H@std@@@std@@IAEPAHPAH00@Z ; std::vector<int,std::allocator<int> >::_Umove<int *>
; Function compile flags: /Ogsp
; File c:\program files (x86)\microsoft visual studio 10.0\vc\include\vector
;	COMDAT ??$_Umove@PAH@?$vector@HV?$allocator@H@std@@@std@@IAEPAHPAH00@Z
_TEXT	SEGMENT
__First$ = 8						; size = 4
__Last$ = 12						; size = 4
__Ptr$ = 16						; size = 4
??$_Umove@PAH@?$vector@HV?$allocator@H@std@@@std@@IAEPAHPAH00@Z PROC ; std::vector<int,std::allocator<int> >::_Umove<int *>, COMDAT
; _this$ = ecx

; 1322 : 		pointer _Umove(_Iter _First, _Iter _Last, pointer _Ptr)

  00000	55		 push	 ebp
  00001	8b ec		 mov	 ebp, esp

; 1323 : 		{	// move initializing [_First, _Last), using allocator
; 1324 : 		return (_Uninitialized_move(_First, _Last,
; 1325 : 			_Ptr, this->_Alval));

  00003	83 c1 0c	 add	 ecx, 12			; 0000000cH
  00006	51		 push	 ecx
  00007	ff 75 10	 push	 DWORD PTR __Ptr$[ebp]
  0000a	ff 75 0c	 push	 DWORD PTR __Last$[ebp]
  0000d	ff 75 08	 push	 DWORD PTR __First$[ebp]
  00010	e8 00 00 00 00	 call	 ??$_Uninitialized_move@PAHPAHV?$allocator@H@std@@@std@@YAPAHPAH00AAV?$allocator@H@0@@Z ; std::_Uninitialized_move<int *,int *,std::allocator<int> >
  00015	83 c4 10	 add	 esp, 16			; 00000010H

; 1326 : 		}

  00018	5d		 pop	 ebp
  00019	c2 0c 00	 ret	 12			; 0000000cH
??$_Umove@PAH@?$vector@HV?$allocator@H@std@@@std@@IAEPAHPAH00@Z ENDP ; std::vector<int,std::allocator<int> >::_Umove<int *>
_TEXT	ENDS
PUBLIC	?destroy@?$allocator@VioHashString@@@std@@QAEXPAVioHashString@@@Z ; std::allocator<ioHashString>::destroy
; Function compile flags: /Ogsp
; File c:\program files (x86)\microsoft visual studio 10.0\vc\include\xmemory
;	COMDAT ?destroy@?$allocator@VioHashString@@@std@@QAEXPAVioHashString@@@Z
_TEXT	SEGMENT
__Ptr$ = 8						; size = 4
?destroy@?$allocator@VioHashString@@@std@@QAEXPAVioHashString@@@Z PROC ; std::allocator<ioHashString>::destroy, COMDAT
; _this$ = ecx

; 212  : 		{	// destroy object at _Ptr

  00000	55		 push	 ebp
  00001	8b ec		 mov	 ebp, esp

; 213  : 		_Destroy(_Ptr);

  00003	8b 4d 08	 mov	 ecx, DWORD PTR __Ptr$[ebp]
  00006	ff 15 00 00 00
	00		 call	 DWORD PTR __imp_??1ioHashString@@QAE@XZ

; 214  : 		}

  0000c	5d		 pop	 ebp
  0000d	c2 04 00	 ret	 4
?destroy@?$allocator@VioHashString@@@std@@QAEXPAVioHashString@@@Z ENDP ; std::allocator<ioHashString>::destroy
_TEXT	ENDS
PUBLIC	??$_Cons_val@V?$allocator@VioHashString@@@std@@VioHashString@@ABV3@@std@@YAXAAV?$allocator@VioHashString@@@0@PAVioHashString@@ABV2@@Z ; std::_Cons_val<std::allocator<ioHashString>,ioHashString,ioHashString const &>
; Function compile flags: /Ogsp
;	COMDAT ??$_Cons_val@V?$allocator@VioHashString@@@std@@VioHashString@@ABV3@@std@@YAXAAV?$allocator@VioHashString@@@0@PAVioHashString@@ABV2@@Z
_TEXT	SEGMENT
__Alval$ = 8						; size = 4
__Pdest$ = 12						; size = 4
__Src$ = 16						; size = 4
??$_Cons_val@V?$allocator@VioHashString@@@std@@VioHashString@@ABV3@@std@@YAXAAV?$allocator@VioHashString@@@0@PAVioHashString@@ABV2@@Z PROC ; std::_Cons_val<std::allocator<ioHashString>,ioHashString,ioHashString const &>, COMDAT

; 279  : 	{	// construct using allocator

  00000	55		 push	 ebp
  00001	8b ec		 mov	 ebp, esp

; 280  : 	_Alval.construct(_Pdest, _STD forward<_Ty2>(_Src));

  00003	ff 75 10	 push	 DWORD PTR __Src$[ebp]
  00006	ff 75 0c	 push	 DWORD PTR __Pdest$[ebp]
  00009	e8 00 00 00 00	 call	 ??$_Construct@VioHashString@@ABV1@@std@@YAXPAVioHashString@@ABV1@@Z ; std::_Construct<ioHashString,ioHashString const &>
  0000e	59		 pop	 ecx
  0000f	59		 pop	 ecx

; 281  : 	}

  00010	5d		 pop	 ebp
  00011	c3		 ret	 0
??$_Cons_val@V?$allocator@VioHashString@@@std@@VioHashString@@ABV3@@std@@YAXAAV?$allocator@VioHashString@@@0@PAVioHashString@@ABV2@@Z ENDP ; std::_Cons_val<std::allocator<ioHashString>,ioHashString,ioHashString const &>
; Function compile flags: /Ogsp
_TEXT	ENDS
;	COMDAT ??_GInvenFourExtraCompoundBuyWnd@@UAEPAXI@Z
_TEXT	SEGMENT
___flags$ = 8						; size = 4
??_GInvenFourExtraCompoundBuyWnd@@UAEPAXI@Z PROC	; InvenFourExtraCompoundBuyWnd::`scalar deleting destructor', COMDAT
; _this$ = ecx
  00000	55		 push	 ebp
  00001	8b ec		 mov	 ebp, esp
  00003	56		 push	 esi
  00004	8b f1		 mov	 esi, ecx
  00006	e8 00 00 00 00	 call	 ??1InvenFourExtraCompoundBuyWnd@@UAE@XZ ; InvenFourExtraCompoundBuyWnd::~InvenFourExtraCompoundBuyWnd
  0000b	f6 45 08 01	 test	 BYTE PTR ___flags$[ebp], 1
  0000f	74 07		 je	 SHORT $LN1@scalar@5
  00011	56		 push	 esi
  00012	e8 00 00 00 00	 call	 ??3@YAXPAX@Z		; operator delete
  00017	59		 pop	 ecx
$LN1@scalar@5:
  00018	8b c6		 mov	 eax, esi
  0001a	5e		 pop	 esi
  0001b	5d		 pop	 ebp
  0001c	c2 04 00	 ret	 4
??_GInvenFourExtraCompoundBuyWnd@@UAEPAXI@Z ENDP	; InvenFourExtraCompoundBuyWnd::`scalar deleting destructor'
_TEXT	ENDS
PUBLIC	?OnProcess@InvenFourExtraCompoundBuyResultWnd@@MAEXM@Z ; InvenFourExtraCompoundBuyResultWnd::OnProcess
; Function compile flags: /Ogsp
; File d:\lost saga for developer\youtube\tutorial\source\src\lsclient\gui\invenfourextracompoundwnd.cpp
;	COMDAT ?OnProcess@InvenFourExtraCompoundBuyResultWnd@@MAEXM@Z
_TEXT	SEGMENT
_fTimePerSec$ = 8					; size = 4
?OnProcess@InvenFourExtraCompoundBuyResultWnd@@MAEXM@Z PROC ; InvenFourExtraCompoundBuyResultWnd::OnProcess, COMDAT
; _this$ = ecx

; 841  : {

  00000	55		 push	 ebp
  00001	8b ec		 mov	 ebp, esp

; 842  : 	ioWnd::OnProcess( fTimePerSec );

  00003	f3 0f 10 45 08	 movss	 xmm0, DWORD PTR _fTimePerSec$[ebp]
  00008	56		 push	 esi
  00009	51		 push	 ecx
  0000a	8b f1		 mov	 esi, ecx
  0000c	f3 0f 11 04 24	 movss	 DWORD PTR [esp], xmm0
  00011	ff 15 00 00 00
	00		 call	 DWORD PTR __imp_?OnProcess@ioWnd@@MAEXM@Z

; 843  : 
; 844  : 	if( !IsShow() ) return;

  00017	8b ce		 mov	 ecx, esi
  00019	ff 15 00 00 00
	00		 call	 DWORD PTR __imp_?IsShow@ioWnd@@QBE_NXZ
  0001f	84 c0		 test	 al, al
  00021	74 19		 je	 SHORT $LN2@OnProcess@2

; 845  : 
; 846  : 	RollingEffect( fTimePerSec );

  00023	f3 0f 10 45 08	 movss	 xmm0, DWORD PTR _fTimePerSec$[ebp]
  00028	51		 push	 ecx
  00029	8b ce		 mov	 ecx, esi
  0002b	f3 0f 11 04 24	 movss	 DWORD PTR [esp], xmm0
  00030	e8 00 00 00 00	 call	 ?RollingEffect@InvenFourExtraCompoundBuyResultWnd@@IAEXM@Z ; InvenFourExtraCompoundBuyResultWnd::RollingEffect

; 847  : 
; 848  : 	UpdateCompoundInfo();

  00035	8b ce		 mov	 ecx, esi
  00037	e8 00 00 00 00	 call	 ?UpdateCompoundInfo@InvenFourExtraCompoundBuyResultWnd@@IAEXXZ ; InvenFourExtraCompoundBuyResultWnd::UpdateCompoundInfo
$LN2@OnProcess@2:
  0003c	5e		 pop	 esi

; 849  : }

  0003d	5d		 pop	 ebp
  0003e	c2 04 00	 ret	 4
?OnProcess@InvenFourExtraCompoundBuyResultWnd@@MAEXM@Z ENDP ; InvenFourExtraCompoundBuyResultWnd::OnProcess
_TEXT	ENDS
PUBLIC	?erase@?$vector@HV?$allocator@H@std@@@std@@QAE?AV?$_Vector_iterator@V?$_Vector_val@HV?$allocator@H@std@@@std@@@2@V?$_Vector_const_iterator@V?$_Vector_val@HV?$allocator@H@std@@@std@@@2@@Z ; std::vector<int,std::allocator<int> >::erase
; Function compile flags: /Ogsp
; File c:\program files (x86)\microsoft visual studio 10.0\vc\include\vector
;	COMDAT ?erase@?$vector@HV?$allocator@H@std@@@std@@QAE?AV?$_Vector_iterator@V?$_Vector_val@HV?$allocator@H@std@@@std@@@2@V?$_Vector_const_iterator@V?$_Vector_val@HV?$allocator@H@std@@@std@@@2@@Z
_TEXT	SEGMENT
___$ReturnUdt$ = 8					; size = 4
__Cat$517397 = 12					; size = 1
__Where$ = 12						; size = 4
?erase@?$vector@HV?$allocator@H@std@@@std@@QAE?AV?$_Vector_iterator@V?$_Vector_val@HV?$allocator@H@std@@@std@@@2@V?$_Vector_const_iterator@V?$_Vector_val@HV?$allocator@H@std@@@std@@@2@@Z PROC ; std::vector<int,std::allocator<int> >::erase, COMDAT
; _this$ = ecx

; 1179 : 		{	// erase element at where

  00000	55		 push	 ebp
  00001	8b ec		 mov	 ebp, esp

; 1180 : 		_Move(_VIPTR(_Where) + 1, this->_Mylast,
; 1181 : 			_VIPTR(_Where));

  00003	8b 45 0c	 mov	 eax, DWORD PTR __Where$[ebp]
  00006	56		 push	 esi
  00007	ff 75 0c	 push	 DWORD PTR __Cat$517397[ebp]
  0000a	8b f1		 mov	 esi, ecx
  0000c	50		 push	 eax
  0000d	ff 76 04	 push	 DWORD PTR [esi+4]
  00010	83 c0 04	 add	 eax, 4
  00013	50		 push	 eax
  00014	e8 00 00 00 00	 call	 ??$_Move@PAHPAH@std@@YAPAHPAH00U_Scalar_ptr_iterator_tag@0@@Z ; std::_Move<int *,int *>

; 1182 : 		_Destroy(this->_Mylast - 1, this->_Mylast);
; 1183 : 		--this->_Mylast;
; 1184 : 		return (_Make_iter(_Where));

  00019	8b 45 08	 mov	 eax, DWORD PTR ___$ReturnUdt$[ebp]
  0001c	8b 4d 0c	 mov	 ecx, DWORD PTR __Where$[ebp]
  0001f	83 c4 10	 add	 esp, 16			; 00000010H
  00022	83 46 04 fc	 add	 DWORD PTR [esi+4], -4	; fffffffcH
  00026	89 08		 mov	 DWORD PTR [eax], ecx
  00028	5e		 pop	 esi

; 1185 : 		}

  00029	5d		 pop	 ebp
  0002a	c2 08 00	 ret	 8
?erase@?$vector@HV?$allocator@H@std@@@std@@QAE?AV?$_Vector_iterator@V?$_Vector_val@HV?$allocator@H@std@@@std@@@2@V?$_Vector_const_iterator@V?$_Vector_val@HV?$allocator@H@std@@@std@@@2@@Z ENDP ; std::vector<int,std::allocator<int> >::erase
_TEXT	ENDS
PUBLIC	??$_Cons_val@V?$allocator@UNewShopPullDownItem@@@std@@UNewShopPullDownItem@@ABU3@@std@@YAXAAV?$allocator@UNewShopPullDownItem@@@0@PAUNewShopPullDownItem@@ABU2@@Z ; std::_Cons_val<std::allocator<NewShopPullDownItem>,NewShopPullDownItem,NewShopPullDownItem const &>
; Function compile flags: /Ogsp
; File c:\program files (x86)\microsoft visual studio 10.0\vc\include\xmemory
;	COMDAT ??$_Cons_val@V?$allocator@UNewShopPullDownItem@@@std@@UNewShopPullDownItem@@ABU3@@std@@YAXAAV?$allocator@UNewShopPullDownItem@@@0@PAUNewShopPullDownItem@@ABU2@@Z
_TEXT	SEGMENT
__Alval$ = 8						; size = 4
__Pdest$ = 12						; size = 4
__Src$ = 16						; size = 4
??$_Cons_val@V?$allocator@UNewShopPullDownItem@@@std@@UNewShopPullDownItem@@ABU3@@std@@YAXAAV?$allocator@UNewShopPullDownItem@@@0@PAUNewShopPullDownItem@@ABU2@@Z PROC ; std::_Cons_val<std::allocator<NewShopPullDownItem>,NewShopPullDownItem,NewShopPullDownItem const &>, COMDAT

; 279  : 	{	// construct using allocator

  00000	55		 push	 ebp
  00001	8b ec		 mov	 ebp, esp

; 280  : 	_Alval.construct(_Pdest, _STD forward<_Ty2>(_Src));

  00003	ff 75 10	 push	 DWORD PTR __Src$[ebp]
  00006	ff 75 0c	 push	 DWORD PTR __Pdest$[ebp]
  00009	e8 00 00 00 00	 call	 ??$_Construct@UNewShopPullDownItem@@ABU1@@std@@YAXPAUNewShopPullDownItem@@ABU1@@Z ; std::_Construct<NewShopPullDownItem,NewShopPullDownItem const &>
  0000e	59		 pop	 ecx
  0000f	59		 pop	 ecx

; 281  : 	}

  00010	5d		 pop	 ebp
  00011	c3		 ret	 0
??$_Cons_val@V?$allocator@UNewShopPullDownItem@@@std@@UNewShopPullDownItem@@ABU3@@std@@YAXAAV?$allocator@UNewShopPullDownItem@@@0@PAUNewShopPullDownItem@@ABU2@@Z ENDP ; std::_Cons_val<std::allocator<NewShopPullDownItem>,NewShopPullDownItem,NewShopPullDownItem const &>
_TEXT	ENDS
PUBLIC	??$make_heap@PAUNewShopPullDownItem@@VSoldierSort@InvenFourExtraCompoundBuyWnd@@@std@@YAXPAUNewShopPullDownItem@@0VSoldierSort@InvenFourExtraCompoundBuyWnd@@@Z ; std::make_heap<NewShopPullDownItem *,InvenFourExtraCompoundBuyWnd::SoldierSort>
; Function compile flags: /Ogsp
; File c:\program files (x86)\microsoft visual studio 10.0\vc\include\algorithm
;	COMDAT ??$make_heap@PAUNewShopPullDownItem@@VSoldierSort@InvenFourExtraCompoundBuyWnd@@@std@@YAXPAUNewShopPullDownItem@@0VSoldierSort@InvenFourExtraCompoundBuyWnd@@@Z
_TEXT	SEGMENT
__First$ = 8						; size = 4
__Last$ = 12						; size = 4
__Pred$ = 16						; size = 1
??$make_heap@PAUNewShopPullDownItem@@VSoldierSort@InvenFourExtraCompoundBuyWnd@@@std@@YAXPAUNewShopPullDownItem@@0VSoldierSort@InvenFourExtraCompoundBuyWnd@@@Z PROC ; std::make_heap<NewShopPullDownItem *,InvenFourExtraCompoundBuyWnd::SoldierSort>, COMDAT

; 2672 : 	{	// make [_First, _Last) into a heap, using _Pred

  00000	55		 push	 ebp
  00001	8b ec		 mov	 ebp, esp

; 2673 : 	_DEBUG_RANGE(_First, _Last);
; 2674 : 	_DEBUG_POINTER(_Pred);
; 2675 : 	if (1 < _Last - _First)

  00003	8b 45 0c	 mov	 eax, DWORD PTR __Last$[ebp]
  00006	2b 45 08	 sub	 eax, DWORD PTR __First$[ebp]
  00009	6a 50		 push	 80			; 00000050H
  0000b	99		 cdq
  0000c	59		 pop	 ecx
  0000d	f7 f9		 idiv	 ecx
  0000f	83 f8 01	 cmp	 eax, 1
  00012	7e 15		 jle	 SHORT $LN1@make_heap

; 2676 : 		_Make_heap(_Unchecked(_First), _Unchecked(_Last), _Pred,
; 2677 : 			_Dist_type(_First), _Val_type(_First));

  00014	6a 00		 push	 0
  00016	6a 00		 push	 0
  00018	ff 75 10	 push	 DWORD PTR __Pred$[ebp]
  0001b	ff 75 0c	 push	 DWORD PTR __Last$[ebp]
  0001e	ff 75 08	 push	 DWORD PTR __First$[ebp]
  00021	e8 00 00 00 00	 call	 ??$_Make_heap@PAUNewShopPullDownItem@@HU1@VSoldierSort@InvenFourExtraCompoundBuyWnd@@@std@@YAXPAUNewShopPullDownItem@@0VSoldierSort@InvenFourExtraCompoundBuyWnd@@PAH0@Z ; std::_Make_heap<NewShopPullDownItem *,int,NewShopPullDownItem,InvenFourExtraCompoundBuyWnd::SoldierSort>
  00026	83 c4 14	 add	 esp, 20			; 00000014H
$LN1@make_heap:

; 2678 : 	}

  00029	5d		 pop	 ebp
  0002a	c3		 ret	 0
??$make_heap@PAUNewShopPullDownItem@@VSoldierSort@InvenFourExtraCompoundBuyWnd@@@std@@YAXPAUNewShopPullDownItem@@0VSoldierSort@InvenFourExtraCompoundBuyWnd@@@Z ENDP ; std::make_heap<NewShopPullDownItem *,InvenFourExtraCompoundBuyWnd::SoldierSort>
_TEXT	ENDS
PUBLIC	??$_Insertion_sort@PAUNewShopPullDownItem@@VSoldierSort@InvenFourExtraCompoundBuyWnd@@@std@@YAXPAUNewShopPullDownItem@@0VSoldierSort@InvenFourExtraCompoundBuyWnd@@@Z ; std::_Insertion_sort<NewShopPullDownItem *,InvenFourExtraCompoundBuyWnd::SoldierSort>
; Function compile flags: /Ogsp
;	COMDAT ??$_Insertion_sort@PAUNewShopPullDownItem@@VSoldierSort@InvenFourExtraCompoundBuyWnd@@@std@@YAXPAUNewShopPullDownItem@@0VSoldierSort@InvenFourExtraCompoundBuyWnd@@@Z
_TEXT	SEGMENT
__First$ = 8						; size = 4
__Last$ = 12						; size = 4
__Pred$ = 16						; size = 1
??$_Insertion_sort@PAUNewShopPullDownItem@@VSoldierSort@InvenFourExtraCompoundBuyWnd@@@std@@YAXPAUNewShopPullDownItem@@0VSoldierSort@InvenFourExtraCompoundBuyWnd@@@Z PROC ; std::_Insertion_sort<NewShopPullDownItem *,InvenFourExtraCompoundBuyWnd::SoldierSort>, COMDAT

; 3676 : 	{	// insertion sort [_First, _Last), using _Pred

  00000	55		 push	 ebp
  00001	8b ec		 mov	 ebp, esp

; 3677 : 	_Insertion_sort1(_First, _Last, _Pred, _Val_type(_First));

  00003	6a 00		 push	 0
  00005	ff 75 10	 push	 DWORD PTR __Pred$[ebp]
  00008	ff 75 0c	 push	 DWORD PTR __Last$[ebp]
  0000b	ff 75 08	 push	 DWORD PTR __First$[ebp]
  0000e	e8 00 00 00 00	 call	 ??$_Insertion_sort1@PAUNewShopPullDownItem@@VSoldierSort@InvenFourExtraCompoundBuyWnd@@U1@@std@@YAXPAUNewShopPullDownItem@@0VSoldierSort@InvenFourExtraCompoundBuyWnd@@0@Z ; std::_Insertion_sort1<NewShopPullDownItem *,InvenFourExtraCompoundBuyWnd::SoldierSort,NewShopPullDownItem>
  00013	83 c4 10	 add	 esp, 16			; 00000010H

; 3678 : 	}

  00016	5d		 pop	 ebp
  00017	c3		 ret	 0
??$_Insertion_sort@PAUNewShopPullDownItem@@VSoldierSort@InvenFourExtraCompoundBuyWnd@@@std@@YAXPAUNewShopPullDownItem@@0VSoldierSort@InvenFourExtraCompoundBuyWnd@@@Z ENDP ; std::_Insertion_sort<NewShopPullDownItem *,InvenFourExtraCompoundBuyWnd::SoldierSort>
_TEXT	ENDS
PUBLIC	??$_Dest_val@V?$allocator@UNewShopPullDownItem@@@std@@UNewShopPullDownItem@@@std@@YAXAAV?$allocator@UNewShopPullDownItem@@@0@PAUNewShopPullDownItem@@@Z ; std::_Dest_val<std::allocator<NewShopPullDownItem>,NewShopPullDownItem>
; Function compile flags: /Ogsp
; File c:\program files (x86)\microsoft visual studio 10.0\vc\include\xmemory
;	COMDAT ??$_Dest_val@V?$allocator@UNewShopPullDownItem@@@std@@UNewShopPullDownItem@@@std@@YAXAAV?$allocator@UNewShopPullDownItem@@@0@PAUNewShopPullDownItem@@@Z
_TEXT	SEGMENT
__Alval$ = 8						; size = 4
__Pdest$ = 12						; size = 4
??$_Dest_val@V?$allocator@UNewShopPullDownItem@@@std@@UNewShopPullDownItem@@@std@@YAXAAV?$allocator@UNewShopPullDownItem@@@0@PAUNewShopPullDownItem@@@Z PROC ; std::_Dest_val<std::allocator<NewShopPullDownItem>,NewShopPullDownItem>, COMDAT

; 286  : 	{	// destroy using allocator

  00000	55		 push	 ebp
  00001	8b ec		 mov	 ebp, esp

; 287  : 	_Alval.destroy(_Pdest);

  00003	8b 4d 0c	 mov	 ecx, DWORD PTR __Pdest$[ebp]

; 288  : 	}

  00006	5d		 pop	 ebp

; 287  : 	_Alval.destroy(_Pdest);

  00007	e9 00 00 00 00	 jmp	 ??1NewShopPullDownItem@@QAE@XZ
??$_Dest_val@V?$allocator@UNewShopPullDownItem@@@std@@UNewShopPullDownItem@@@std@@YAXAAV?$allocator@UNewShopPullDownItem@@@0@PAUNewShopPullDownItem@@@Z ENDP ; std::_Dest_val<std::allocator<NewShopPullDownItem>,NewShopPullDownItem>
_TEXT	ENDS
PUBLIC	??$_Median@PAUNewShopPullDownItem@@VSoldierSort@InvenFourExtraCompoundBuyWnd@@@std@@YAXPAUNewShopPullDownItem@@00VSoldierSort@InvenFourExtraCompoundBuyWnd@@@Z ; std::_Median<NewShopPullDownItem *,InvenFourExtraCompoundBuyWnd::SoldierSort>
; Function compile flags: /Ogsp
; File c:\program files (x86)\microsoft visual studio 10.0\vc\include\algorithm
;	COMDAT ??$_Median@PAUNewShopPullDownItem@@VSoldierSort@InvenFourExtraCompoundBuyWnd@@@std@@YAXPAUNewShopPullDownItem@@00VSoldierSort@InvenFourExtraCompoundBuyWnd@@@Z
_TEXT	SEGMENT
tv200 = 8						; size = 4
__First$ = 8						; size = 4
__Mid$ = 12						; size = 4
tv203 = 16						; size = 4
__Last$ = 16						; size = 4
__Pred$ = 20						; size = 1
??$_Median@PAUNewShopPullDownItem@@VSoldierSort@InvenFourExtraCompoundBuyWnd@@@std@@YAXPAUNewShopPullDownItem@@00VSoldierSort@InvenFourExtraCompoundBuyWnd@@@Z PROC ; std::_Median<NewShopPullDownItem *,InvenFourExtraCompoundBuyWnd::SoldierSort>, COMDAT

; 3695 : 	{	// sort median element to middle

  00000	55		 push	 ebp
  00001	8b ec		 mov	 ebp, esp

; 3696 : 	if (40 < _Last - _First)

  00003	8b 4d 08	 mov	 ecx, DWORD PTR __First$[ebp]
  00006	53		 push	 ebx
  00007	8b 5d 10	 mov	 ebx, DWORD PTR __Last$[ebp]
  0000a	56		 push	 esi
  0000b	8b c3		 mov	 eax, ebx
  0000d	2b c1		 sub	 eax, ecx
  0000f	6a 50		 push	 80			; 00000050H
  00011	99		 cdq
  00012	5e		 pop	 esi
  00013	f7 fe		 idiv	 esi
  00015	83 f8 28	 cmp	 eax, 40			; 00000028H
  00018	7e 6b		 jle	 SHORT $LN2@Median

; 3697 : 		{	// median of nine
; 3698 : 		size_t _Step = (_Last - _First + 1) / 8;

  0001a	40		 inc	 eax
  0001b	99		 cdq
  0001c	83 e2 07	 and	 edx, 7
  0001f	03 c2		 add	 eax, edx
  00021	57		 push	 edi

; 3699 : 		_Med3(_First, _First + _Step, _First + 2 * _Step, _Pred);

  00022	ff 75 14	 push	 DWORD PTR __Pred$[ebp]
  00025	c1 f8 03	 sar	 eax, 3
  00028	8b f8		 mov	 edi, eax
  0002a	8b f0		 mov	 esi, eax
  0002c	69 ff a0 00 00
	00		 imul	 edi, 160		; 000000a0H
  00032	6b f6 50	 imul	 esi, 80			; 00000050H
  00035	8d 14 0f	 lea	 edx, DWORD PTR [edi+ecx]
  00038	8d 04 0e	 lea	 eax, DWORD PTR [esi+ecx]
  0003b	52		 push	 edx
  0003c	50		 push	 eax
  0003d	51		 push	 ecx
  0003e	89 45 08	 mov	 DWORD PTR tv200[ebp], eax
  00041	e8 00 00 00 00	 call	 ??$_Med3@PAUNewShopPullDownItem@@VSoldierSort@InvenFourExtraCompoundBuyWnd@@@std@@YAXPAUNewShopPullDownItem@@00VSoldierSort@InvenFourExtraCompoundBuyWnd@@@Z ; std::_Med3<NewShopPullDownItem *,InvenFourExtraCompoundBuyWnd::SoldierSort>

; 3700 : 		_Med3(_Mid - _Step, _Mid, _Mid + _Step, _Pred);

  00046	ff 75 14	 push	 DWORD PTR __Pred$[ebp]
  00049	8b 45 0c	 mov	 eax, DWORD PTR __Mid$[ebp]
  0004c	8d 0c 06	 lea	 ecx, DWORD PTR [esi+eax]
  0004f	51		 push	 ecx
  00050	50		 push	 eax
  00051	2b c6		 sub	 eax, esi
  00053	50		 push	 eax
  00054	e8 00 00 00 00	 call	 ??$_Med3@PAUNewShopPullDownItem@@VSoldierSort@InvenFourExtraCompoundBuyWnd@@@std@@YAXPAUNewShopPullDownItem@@00VSoldierSort@InvenFourExtraCompoundBuyWnd@@@Z ; std::_Med3<NewShopPullDownItem *,InvenFourExtraCompoundBuyWnd::SoldierSort>

; 3701 : 		_Med3(_Last - 2 * _Step, _Last - _Step, _Last, _Pred);

  00059	ff 75 14	 push	 DWORD PTR __Pred$[ebp]
  0005c	89 5d 10	 mov	 DWORD PTR tv203[ebp], ebx
  0005f	29 75 10	 sub	 DWORD PTR tv203[ebp], esi
  00062	53		 push	 ebx
  00063	ff 75 10	 push	 DWORD PTR tv203[ebp]
  00066	2b df		 sub	 ebx, edi
  00068	53		 push	 ebx
  00069	e8 00 00 00 00	 call	 ??$_Med3@PAUNewShopPullDownItem@@VSoldierSort@InvenFourExtraCompoundBuyWnd@@@std@@YAXPAUNewShopPullDownItem@@00VSoldierSort@InvenFourExtraCompoundBuyWnd@@@Z ; std::_Med3<NewShopPullDownItem *,InvenFourExtraCompoundBuyWnd::SoldierSort>

; 3702 : 		_Med3(_First + _Step, _Mid, _Last - _Step, _Pred);

  0006e	ff 75 14	 push	 DWORD PTR __Pred$[ebp]
  00071	ff 75 10	 push	 DWORD PTR tv203[ebp]
  00074	ff 75 0c	 push	 DWORD PTR __Mid$[ebp]
  00077	ff 75 08	 push	 DWORD PTR tv200[ebp]
  0007a	e8 00 00 00 00	 call	 ??$_Med3@PAUNewShopPullDownItem@@VSoldierSort@InvenFourExtraCompoundBuyWnd@@@std@@YAXPAUNewShopPullDownItem@@00VSoldierSort@InvenFourExtraCompoundBuyWnd@@@Z ; std::_Med3<NewShopPullDownItem *,InvenFourExtraCompoundBuyWnd::SoldierSort>
  0007f	83 c4 40	 add	 esp, 64			; 00000040H
  00082	5f		 pop	 edi

; 3703 : 		}
; 3704 : 	else

  00083	eb 10		 jmp	 SHORT $LN1@Median
$LN2@Median:

; 3705 : 		_Med3(_First, _Mid, _Last, _Pred);

  00085	ff 75 14	 push	 DWORD PTR __Pred$[ebp]
  00088	53		 push	 ebx
  00089	ff 75 0c	 push	 DWORD PTR __Mid$[ebp]
  0008c	51		 push	 ecx
  0008d	e8 00 00 00 00	 call	 ??$_Med3@PAUNewShopPullDownItem@@VSoldierSort@InvenFourExtraCompoundBuyWnd@@@std@@YAXPAUNewShopPullDownItem@@00VSoldierSort@InvenFourExtraCompoundBuyWnd@@@Z ; std::_Med3<NewShopPullDownItem *,InvenFourExtraCompoundBuyWnd::SoldierSort>
  00092	83 c4 10	 add	 esp, 16			; 00000010H
$LN1@Median:
  00095	5e		 pop	 esi
  00096	5b		 pop	 ebx

; 3706 : 	}

  00097	5d		 pop	 ebp
  00098	c3		 ret	 0
??$_Median@PAUNewShopPullDownItem@@VSoldierSort@InvenFourExtraCompoundBuyWnd@@@std@@YAXPAUNewShopPullDownItem@@00VSoldierSort@InvenFourExtraCompoundBuyWnd@@@Z ENDP ; std::_Median<NewShopPullDownItem *,InvenFourExtraCompoundBuyWnd::SoldierSort>
_TEXT	ENDS
PUBLIC	??$_Pop_heap@PAUNewShopPullDownItem@@VSoldierSort@InvenFourExtraCompoundBuyWnd@@@std@@YAXPAUNewShopPullDownItem@@0VSoldierSort@InvenFourExtraCompoundBuyWnd@@@Z ; std::_Pop_heap<NewShopPullDownItem *,InvenFourExtraCompoundBuyWnd::SoldierSort>
; Function compile flags: /Ogsp
;	COMDAT ??$_Pop_heap@PAUNewShopPullDownItem@@VSoldierSort@InvenFourExtraCompoundBuyWnd@@@std@@YAXPAUNewShopPullDownItem@@0VSoldierSort@InvenFourExtraCompoundBuyWnd@@@Z
_TEXT	SEGMENT
__First$ = 8						; size = 4
__Last$ = 12						; size = 4
__Pred$ = 16						; size = 1
??$_Pop_heap@PAUNewShopPullDownItem@@VSoldierSort@InvenFourExtraCompoundBuyWnd@@@std@@YAXPAUNewShopPullDownItem@@0VSoldierSort@InvenFourExtraCompoundBuyWnd@@@Z PROC ; std::_Pop_heap<NewShopPullDownItem *,InvenFourExtraCompoundBuyWnd::SoldierSort>, COMDAT

; 2610 : 	{	// pop *_First to *(_Last - 1) and reheap, using _Pred

  00000	55		 push	 ebp
  00001	8b ec		 mov	 ebp, esp

; 2611 : 	_Pop_heap_0(_Unchecked(_First), _Unchecked(_Last), _Pred,
; 2612 : 		_Val_type(_First));

  00003	6a 00		 push	 0
  00005	ff 75 10	 push	 DWORD PTR __Pred$[ebp]
  00008	ff 75 0c	 push	 DWORD PTR __Last$[ebp]
  0000b	ff 75 08	 push	 DWORD PTR __First$[ebp]
  0000e	e8 00 00 00 00	 call	 ??$_Pop_heap_0@PAUNewShopPullDownItem@@U1@VSoldierSort@InvenFourExtraCompoundBuyWnd@@@std@@YAXPAUNewShopPullDownItem@@0VSoldierSort@InvenFourExtraCompoundBuyWnd@@0@Z ; std::_Pop_heap_0<NewShopPullDownItem *,NewShopPullDownItem,InvenFourExtraCompoundBuyWnd::SoldierSort>
  00013	83 c4 10	 add	 esp, 16			; 00000010H

; 2613 : 	}

  00016	5d		 pop	 ebp
  00017	c3		 ret	 0
??$_Pop_heap@PAUNewShopPullDownItem@@VSoldierSort@InvenFourExtraCompoundBuyWnd@@@std@@YAXPAUNewShopPullDownItem@@0VSoldierSort@InvenFourExtraCompoundBuyWnd@@@Z ENDP ; std::_Pop_heap<NewShopPullDownItem *,InvenFourExtraCompoundBuyWnd::SoldierSort>
_TEXT	ENDS
PUBLIC	??0CHARACTER@@QAE@XZ				; CHARACTER::CHARACTER
EXTRN	??_L@YGXPAXIHP6EX0@Z1@Z:PROC			; `eh vector constructor iterator'
;	COMDAT xdata$x
; File d:\lost saga for developer\youtube\tutorial\source\src\lsclient\accessoryenumtype.h
xdata$x	SEGMENT
__ehfuncinfo$??0CHARACTER@@QAE@XZ DD 019930522H
	DD	0bH
	DD	FLAT:__unwindtable$??0CHARACTER@@QAE@XZ
	DD	2 DUP(00H)
	DD	2 DUP(00H)
	DD	00H
	DD	01H
__unwindtable$??0CHARACTER@@QAE@XZ DD 0ffffffffH
	DD	FLAT:__unwindfunclet$??0CHARACTER@@QAE@XZ$0
	DD	00H
	DD	FLAT:__unwindfunclet$??0CHARACTER@@QAE@XZ$1
	DD	01H
	DD	FLAT:__unwindfunclet$??0CHARACTER@@QAE@XZ$2
	DD	02H
	DD	FLAT:__unwindfunclet$??0CHARACTER@@QAE@XZ$3
	DD	03H
	DD	FLAT:__unwindfunclet$??0CHARACTER@@QAE@XZ$4
	DD	04H
	DD	FLAT:__unwindfunclet$??0CHARACTER@@QAE@XZ$5
	DD	05H
	DD	FLAT:__unwindfunclet$??0CHARACTER@@QAE@XZ$6
	DD	06H
	DD	FLAT:__unwindfunclet$??0CHARACTER@@QAE@XZ$7
	DD	07H
	DD	FLAT:__unwindfunclet$??0CHARACTER@@QAE@XZ$8
	DD	08H
	DD	FLAT:__unwindfunclet$??0CHARACTER@@QAE@XZ$9
	DD	09H
	DD	FLAT:__unwindfunclet$??0CHARACTER@@QAE@XZ$10
; Function compile flags: /Ogsp
; File d:\lost saga for developer\youtube\tutorial\source\src\lsclient\characterinfo.h
xdata$x	ENDS
;	COMDAT ??0CHARACTER@@QAE@XZ
_TEXT	SEGMENT
_this$ = -16						; size = 4
__$EHRec$ = -12						; size = 12
??0CHARACTER@@QAE@XZ PROC				; CHARACTER::CHARACTER, COMDAT
; _this$ = ecx

; 344  : 	CHARACTER()

  00000	6a 04		 push	 4
  00002	b8 00 00 00 00	 mov	 eax, __ehhandler$??0CHARACTER@@QAE@XZ
  00007	e8 00 00 00 00	 call	 __EH_prolog3
  0000c	8b f1		 mov	 esi, ecx
  0000e	89 75 f0	 mov	 DWORD PTR _this$[ebp], esi
  00011	e8 00 00 00 00	 call	 ??0?$CEncrypt@H@@QAE@XZ	; CEncrypt<int>::CEncrypt<int>
  00016	33 ff		 xor	 edi, edi
  00018	8d 4e 30	 lea	 ecx, DWORD PTR [esi+48]
  0001b	89 7d fc	 mov	 DWORD PTR __$EHRec$[ebp+8], edi
  0001e	e8 00 00 00 00	 call	 ??0?$CEncrypt@H@@QAE@XZ	; CEncrypt<int>::CEncrypt<int>
  00023	8d 4e 60	 lea	 ecx, DWORD PTR [esi+96]
  00026	c6 45 fc 01	 mov	 BYTE PTR __$EHRec$[ebp+8], 1
  0002a	e8 00 00 00 00	 call	 ??0?$CEncrypt@H@@QAE@XZ	; CEncrypt<int>::CEncrypt<int>
  0002f	8d 8e 90 00 00
	00		 lea	 ecx, DWORD PTR [esi+144]
  00035	c6 45 fc 02	 mov	 BYTE PTR __$EHRec$[ebp+8], 2
  00039	e8 00 00 00 00	 call	 ??0?$CEncrypt@H@@QAE@XZ	; CEncrypt<int>::CEncrypt<int>
  0003e	8d 8e c0 00 00
	00		 lea	 ecx, DWORD PTR [esi+192]
  00044	c6 45 fc 03	 mov	 BYTE PTR __$EHRec$[ebp+8], 3
  00048	e8 00 00 00 00	 call	 ??0?$CEncrypt@H@@QAE@XZ	; CEncrypt<int>::CEncrypt<int>
  0004d	8d 8e f0 00 00
	00		 lea	 ecx, DWORD PTR [esi+240]
  00053	c6 45 fc 04	 mov	 BYTE PTR __$EHRec$[ebp+8], 4
  00057	e8 00 00 00 00	 call	 ??0?$CEncrypt@H@@QAE@XZ	; CEncrypt<int>::CEncrypt<int>
  0005c	8d 8e 20 01 00
	00		 lea	 ecx, DWORD PTR [esi+288]
  00062	c6 45 fc 05	 mov	 BYTE PTR __$EHRec$[ebp+8], 5
  00066	e8 00 00 00 00	 call	 ??0?$CEncrypt@H@@QAE@XZ	; CEncrypt<int>::CEncrypt<int>
  0006b	8d 8e 50 01 00
	00		 lea	 ecx, DWORD PTR [esi+336]
  00071	c6 45 fc 06	 mov	 BYTE PTR __$EHRec$[ebp+8], 6
  00075	e8 00 00 00 00	 call	 ??0?$CEncrypt@H@@QAE@XZ	; CEncrypt<int>::CEncrypt<int>
  0007a	8d 8e 80 01 00
	00		 lea	 ecx, DWORD PTR [esi+384]
  00080	c6 45 fc 07	 mov	 BYTE PTR __$EHRec$[ebp+8], 7
  00084	e8 00 00 00 00	 call	 ??0?$CEncrypt@H@@QAE@XZ	; CEncrypt<int>::CEncrypt<int>
  00089	8d 8e b0 01 00
	00		 lea	 ecx, DWORD PTR [esi+432]
  0008f	c6 45 fc 08	 mov	 BYTE PTR __$EHRec$[ebp+8], 8
  00093	e8 00 00 00 00	 call	 ??0?$CEncrypt@H@@QAE@XZ	; CEncrypt<int>::CEncrypt<int>
  00098	68 00 00 00 00	 push	 OFFSET ??1?$CEncrypt@H@@UAE@XZ ; CEncrypt<int>::~CEncrypt<int>
  0009d	68 00 00 00 00	 push	 OFFSET ??0?$CEncrypt@H@@QAE@XZ ; CEncrypt<int>::CEncrypt<int>
  000a2	6a 04		 push	 4
  000a4	6a 30		 push	 48			; 00000030H
  000a6	8d 86 e0 01 00
	00		 lea	 eax, DWORD PTR [esi+480]
  000ac	50		 push	 eax
  000ad	c6 45 fc 09	 mov	 BYTE PTR __$EHRec$[ebp+8], 9
  000b1	e8 00 00 00 00	 call	 ??_L@YGXPAXIHP6EX0@Z1@Z
  000b6	6a 03		 push	 3
  000b8	c6 45 fc 0a	 mov	 BYTE PTR __$EHRec$[ebp+8], 10 ; 0000000aH
  000bc	8d 86 c0 02 00
	00		 lea	 eax, DWORD PTR [esi+704]
  000c2	59		 pop	 ecx
$LL15@CHARACTER:
  000c3	89 38		 mov	 DWORD PTR [eax], edi
  000c5	89 78 04	 mov	 DWORD PTR [eax+4], edi
  000c8	89 78 08	 mov	 DWORD PTR [eax+8], edi
  000cb	89 78 0c	 mov	 DWORD PTR [eax+12], edi
  000ce	83 c0 10	 add	 eax, 16			; 00000010H
  000d1	49		 dec	 ecx
  000d2	79 ef		 jns	 SHORT $LL15@CHARACTER
  000d4	6a 02		 push	 2
  000d6	8d 86 00 03 00
	00		 lea	 eax, DWORD PTR [esi+768]
  000dc	59		 pop	 ecx
$LL23@CHARACTER:
  000dd	89 38		 mov	 DWORD PTR [eax], edi
  000df	89 78 04	 mov	 DWORD PTR [eax+4], edi
  000e2	89 78 08	 mov	 DWORD PTR [eax+8], edi
  000e5	83 c0 0c	 add	 eax, 12			; 0000000cH
  000e8	49		 dec	 ecx
  000e9	79 f2		 jns	 SHORT $LL23@CHARACTER

; 345  : 	{
; 346  : 		Init();

  000eb	8b ce		 mov	 ecx, esi
  000ed	e8 00 00 00 00	 call	 ?Init@CHARACTER@@QAEXXZ	; CHARACTER::Init

; 347  : 	}

  000f2	8b c6		 mov	 eax, esi
  000f4	e8 00 00 00 00	 call	 __EH_epilog3
  000f9	c3		 ret	 0
_TEXT	ENDS
;	COMDAT text$x
text$x	SEGMENT
__unwindfunclet$??0CHARACTER@@QAE@XZ$0:
  00000	8b 4d f0	 mov	 ecx, DWORD PTR _this$[ebp]
  00003	e9 00 00 00 00	 jmp	 ??1?$CEncrypt@H@@UAE@XZ	; CEncrypt<int>::~CEncrypt<int>
__unwindfunclet$??0CHARACTER@@QAE@XZ$1:
  00008	8b 4d f0	 mov	 ecx, DWORD PTR _this$[ebp]
  0000b	83 c1 30	 add	 ecx, 48			; 00000030H
  0000e	e9 00 00 00 00	 jmp	 ??1?$CEncrypt@H@@UAE@XZ	; CEncrypt<int>::~CEncrypt<int>
__unwindfunclet$??0CHARACTER@@QAE@XZ$2:
  00013	8b 4d f0	 mov	 ecx, DWORD PTR _this$[ebp]
  00016	83 c1 60	 add	 ecx, 96			; 00000060H
  00019	e9 00 00 00 00	 jmp	 ??1?$CEncrypt@H@@UAE@XZ	; CEncrypt<int>::~CEncrypt<int>
__unwindfunclet$??0CHARACTER@@QAE@XZ$3:
  0001e	8b 4d f0	 mov	 ecx, DWORD PTR _this$[ebp]
  00021	81 c1 90 00 00
	00		 add	 ecx, 144		; 00000090H
  00027	e9 00 00 00 00	 jmp	 ??1?$CEncrypt@H@@UAE@XZ	; CEncrypt<int>::~CEncrypt<int>
__unwindfunclet$??0CHARACTER@@QAE@XZ$4:
  0002c	8b 4d f0	 mov	 ecx, DWORD PTR _this$[ebp]
  0002f	81 c1 c0 00 00
	00		 add	 ecx, 192		; 000000c0H
  00035	e9 00 00 00 00	 jmp	 ??1?$CEncrypt@H@@UAE@XZ	; CEncrypt<int>::~CEncrypt<int>
__unwindfunclet$??0CHARACTER@@QAE@XZ$5:
  0003a	8b 4d f0	 mov	 ecx, DWORD PTR _this$[ebp]
  0003d	81 c1 f0 00 00
	00		 add	 ecx, 240		; 000000f0H
  00043	e9 00 00 00 00	 jmp	 ??1?$CEncrypt@H@@UAE@XZ	; CEncrypt<int>::~CEncrypt<int>
__unwindfunclet$??0CHARACTER@@QAE@XZ$6:
  00048	8b 4d f0	 mov	 ecx, DWORD PTR _this$[ebp]
  0004b	81 c1 20 01 00
	00		 add	 ecx, 288		; 00000120H
  00051	e9 00 00 00 00	 jmp	 ??1?$CEncrypt@H@@UAE@XZ	; CEncrypt<int>::~CEncrypt<int>
__unwindfunclet$??0CHARACTER@@QAE@XZ$7:
  00056	8b 4d f0	 mov	 ecx, DWORD PTR _this$[ebp]
  00059	81 c1 50 01 00
	00		 add	 ecx, 336		; 00000150H
  0005f	e9 00 00 00 00	 jmp	 ??1?$CEncrypt@H@@UAE@XZ	; CEncrypt<int>::~CEncrypt<int>
__unwindfunclet$??0CHARACTER@@QAE@XZ$8:
  00064	8b 4d f0	 mov	 ecx, DWORD PTR _this$[ebp]
  00067	81 c1 80 01 00
	00		 add	 ecx, 384		; 00000180H
  0006d	e9 00 00 00 00	 jmp	 ??1?$CEncrypt@H@@UAE@XZ	; CEncrypt<int>::~CEncrypt<int>
__unwindfunclet$??0CHARACTER@@QAE@XZ$9:
  00072	8b 4d f0	 mov	 ecx, DWORD PTR _this$[ebp]
  00075	81 c1 b0 01 00
	00		 add	 ecx, 432		; 000001b0H
  0007b	e9 00 00 00 00	 jmp	 ??1?$CEncrypt@H@@UAE@XZ	; CEncrypt<int>::~CEncrypt<int>
__unwindfunclet$??0CHARACTER@@QAE@XZ$10:
  00080	68 00 00 00 00	 push	 OFFSET ??1?$CEncrypt@H@@UAE@XZ ; CEncrypt<int>::~CEncrypt<int>
  00085	6a 04		 push	 4
  00087	6a 30		 push	 48			; 00000030H
  00089	8b 45 f0	 mov	 eax, DWORD PTR _this$[ebp]
  0008c	05 e0 01 00 00	 add	 eax, 480		; 000001e0H
  00091	50		 push	 eax
  00092	e8 00 00 00 00	 call	 ??_M@YGXPAXIHP6EX0@Z@Z
  00097	c3		 ret	 0
__ehhandler$??0CHARACTER@@QAE@XZ:
  00098	8b 54 24 08	 mov	 edx, DWORD PTR [esp+8]
  0009c	8d 42 0c	 lea	 eax, DWORD PTR [edx+12]
  0009f	8b 4a ec	 mov	 ecx, DWORD PTR [edx-20]
  000a2	33 c8		 xor	 ecx, eax
  000a4	e8 00 00 00 00	 call	 @__security_check_cookie@4
  000a9	b8 00 00 00 00	 mov	 eax, OFFSET __ehfuncinfo$??0CHARACTER@@QAE@XZ
  000ae	e9 00 00 00 00	 jmp	 ___CxxFrameHandler3
text$x	ENDS
??0CHARACTER@@QAE@XZ ENDP				; CHARACTER::CHARACTER
PUBLIC	?_Tidy@?$vector@HV?$allocator@H@std@@@std@@IAEXXZ ; std::vector<int,std::allocator<int> >::_Tidy
EXTRN	__imp_?_Orphan_all@_Container_base0@std@@QAEXXZ:PROC
; Function compile flags: /Ogsp
; File c:\program files (x86)\microsoft visual studio 10.0\vc\include\vector
;	COMDAT ?_Tidy@?$vector@HV?$allocator@H@std@@@std@@IAEXXZ
_TEXT	SEGMENT
?_Tidy@?$vector@HV?$allocator@H@std@@@std@@IAEXXZ PROC	; std::vector<int,std::allocator<int> >::_Tidy, COMDAT
; _this$ = ecx

; 1301 : 		{	// free all storage

  00000	56		 push	 esi
  00001	8b f1		 mov	 esi, ecx

; 1302 : 		if (this->_Myfirst != 0)

  00003	83 3e 00	 cmp	 DWORD PTR [esi], 0
  00006	74 0e		 je	 SHORT $LN12@Tidy

; 1303 : 			{	// something to free, destroy and deallocate it
; 1304 : 			this->_Orphan_all();

  00008	ff 15 00 00 00
	00		 call	 DWORD PTR __imp_?_Orphan_all@_Container_base0@std@@QAEXXZ

; 1305 : 			_Destroy(this->_Myfirst, this->_Mylast);
; 1306 : 			this->_Alval.deallocate(this->_Myfirst,
; 1307 : 				this->_Myend - this->_Myfirst);

  0000e	ff 36		 push	 DWORD PTR [esi]
  00010	e8 00 00 00 00	 call	 ??3@YAXPAX@Z		; operator delete
  00015	59		 pop	 ecx
$LN12@Tidy:

; 1308 : 			}
; 1309 : 		this->_Myfirst = 0;

  00016	83 26 00	 and	 DWORD PTR [esi], 0

; 1310 : 		this->_Mylast = 0;

  00019	83 66 04 00	 and	 DWORD PTR [esi+4], 0

; 1311 : 		this->_Myend = 0;

  0001d	83 66 08 00	 and	 DWORD PTR [esi+8], 0
  00021	5e		 pop	 esi

; 1312 : 		}

  00022	c3		 ret	 0
?_Tidy@?$vector@HV?$allocator@H@std@@@std@@IAEXXZ ENDP	; std::vector<int,std::allocator<int> >::_Tidy
_TEXT	ENDS
PUBLIC	?reserve@?$vector@HV?$allocator@H@std@@@std@@QAEXI@Z ; std::vector<int,std::allocator<int> >::reserve
; Function compile flags: /Ogsp
;	COMDAT ?reserve@?$vector@HV?$allocator@H@std@@@std@@QAEXI@Z
_TEXT	SEGMENT
__Count$ = 8						; size = 4
?reserve@?$vector@HV?$allocator@H@std@@@std@@QAEXI@Z PROC ; std::vector<int,std::allocator<int> >::reserve, COMDAT
; _this$ = ecx

; 746  : 		{	// determine new minimum length of allocated storage

  00000	55		 push	 ebp
  00001	8b ec		 mov	 ebp, esp

; 747  : 		if (max_size() < _Count)

  00003	81 7d 08 ff ff
	ff 3f		 cmp	 DWORD PTR __Count$[ebp], 1073741823 ; 3fffffffH
  0000a	56		 push	 esi
  0000b	8b f1		 mov	 esi, ecx
  0000d	76 0b		 jbe	 SHORT $LN5@reserve

; 748  : 			_Xlen();	// result too long

  0000f	68 00 00 00 00	 push	 OFFSET ??_C@_0BD@OLBABOEK@vector?$DMT?$DO?5too?5long?$AA@
  00014	ff 15 00 00 00
	00		 call	 DWORD PTR __imp_?_Xlength_error@std@@YAXPBD@Z
$LN43@reserve:
$LN5@reserve:

; 749  : 		else if (capacity() < _Count)

  0001a	8b 46 08	 mov	 eax, DWORD PTR [esi+8]
  0001d	2b 06		 sub	 eax, DWORD PTR [esi]
  0001f	c1 f8 02	 sar	 eax, 2
  00022	3b 45 08	 cmp	 eax, DWORD PTR __Count$[ebp]
  00025	73 52		 jae	 SHORT $LN3@reserve

; 750  : 			{	// not enough room, reallocate
; 751  : 			pointer _Ptr = this->_Alval.allocate(_Count);

  00027	53		 push	 ebx
  00028	57		 push	 edi
  00029	6a 00		 push	 0
  0002b	ff 75 08	 push	 DWORD PTR __Count$[ebp]
  0002e	e8 00 00 00 00	 call	 ??$_Allocate@H@std@@YAPAHIPAH@Z ; std::_Allocate<int>

; 752  : 
; 753  : 			_TRY_BEGIN
; 754  : 			_Umove(this->_Myfirst, this->_Mylast, _Ptr);

  00033	8b 0e		 mov	 ecx, DWORD PTR [esi]
  00035	8d 56 0c	 lea	 edx, DWORD PTR [esi+12]
  00038	52		 push	 edx
  00039	8b d8		 mov	 ebx, eax
  0003b	8b 46 04	 mov	 eax, DWORD PTR [esi+4]
  0003e	53		 push	 ebx
  0003f	50		 push	 eax
  00040	51		 push	 ecx
  00041	e8 00 00 00 00	 call	 ??$_Uninitialized_move@PAHPAHV?$allocator@H@std@@@std@@YAPAHPAH00AAV?$allocator@H@0@@Z ; std::_Uninitialized_move<int *,int *,std::allocator<int> >

; 755  : 			_CATCH_ALL
; 756  : 			this->_Alval.deallocate(_Ptr, _Count);
; 757  : 			_RERAISE;
; 758  : 			_CATCH_END
; 759  : 
; 760  : 			size_type _Size = size();

  00046	8b 06		 mov	 eax, DWORD PTR [esi]
  00048	8b 7e 04	 mov	 edi, DWORD PTR [esi+4]
  0004b	2b f8		 sub	 edi, eax
  0004d	83 c4 18	 add	 esp, 24			; 00000018H
  00050	c1 ff 02	 sar	 edi, 2

; 761  : 			if (this->_Myfirst != 0)

  00053	85 c0		 test	 eax, eax
  00055	74 07		 je	 SHORT $LN39@reserve

; 762  : 				{	// destroy and deallocate old array
; 763  : 				_Destroy(this->_Myfirst, this->_Mylast);
; 764  : 				this->_Alval.deallocate(this->_Myfirst,
; 765  : 					this->_Myend - this->_Myfirst);

  00057	50		 push	 eax
  00058	e8 00 00 00 00	 call	 ??3@YAXPAX@Z		; operator delete
  0005d	59		 pop	 ecx
$LN39@reserve:

; 766  : 				}
; 767  : 
; 768  : 			this->_Orphan_all();

  0005e	8b ce		 mov	 ecx, esi
  00060	ff 15 00 00 00
	00		 call	 DWORD PTR __imp_?_Orphan_all@_Container_base0@std@@QAEXXZ

; 769  : 			this->_Myend = _Ptr + _Count;

  00066	8b 45 08	 mov	 eax, DWORD PTR __Count$[ebp]
  00069	8d 04 83	 lea	 eax, DWORD PTR [ebx+eax*4]
  0006c	89 46 08	 mov	 DWORD PTR [esi+8], eax

; 770  : 			this->_Mylast = _Ptr + _Size;

  0006f	8d 04 bb	 lea	 eax, DWORD PTR [ebx+edi*4]
  00072	5f		 pop	 edi

; 771  : 			this->_Myfirst = _Ptr;

  00073	89 1e		 mov	 DWORD PTR [esi], ebx
  00075	89 46 04	 mov	 DWORD PTR [esi+4], eax
  00078	5b		 pop	 ebx
$LN3@reserve:
  00079	5e		 pop	 esi

; 772  : 			}
; 773  : 		}

  0007a	5d		 pop	 ebp
  0007b	c2 04 00	 ret	 4
$LN42@reserve:
?reserve@?$vector@HV?$allocator@H@std@@@std@@QAEXI@Z ENDP ; std::vector<int,std::allocator<int> >::reserve
_TEXT	ENDS
PUBLIC	??$_Dest_val@V?$allocator@VioHashString@@@std@@VioHashString@@@std@@YAXAAV?$allocator@VioHashString@@@0@PAVioHashString@@@Z ; std::_Dest_val<std::allocator<ioHashString>,ioHashString>
; Function compile flags: /Ogsp
; File c:\program files (x86)\microsoft visual studio 10.0\vc\include\xmemory
;	COMDAT ??$_Dest_val@V?$allocator@VioHashString@@@std@@VioHashString@@@std@@YAXAAV?$allocator@VioHashString@@@0@PAVioHashString@@@Z
_TEXT	SEGMENT
__Alval$ = 8						; size = 4
__Pdest$ = 12						; size = 4
??$_Dest_val@V?$allocator@VioHashString@@@std@@VioHashString@@@std@@YAXAAV?$allocator@VioHashString@@@0@PAVioHashString@@@Z PROC ; std::_Dest_val<std::allocator<ioHashString>,ioHashString>, COMDAT

; 286  : 	{	// destroy using allocator

  00000	55		 push	 ebp
  00001	8b ec		 mov	 ebp, esp

; 287  : 	_Alval.destroy(_Pdest);

  00003	8b 4d 0c	 mov	 ecx, DWORD PTR __Pdest$[ebp]

; 288  : 	}

  00006	5d		 pop	 ebp

; 287  : 	_Alval.destroy(_Pdest);

  00007	ff 25 00 00 00
	00		 jmp	 DWORD PTR __imp_??1ioHashString@@QAE@XZ
??$_Dest_val@V?$allocator@VioHashString@@@std@@VioHashString@@@std@@YAXAAV?$allocator@VioHashString@@@0@PAVioHashString@@@Z ENDP ; std::_Dest_val<std::allocator<ioHashString>,ioHashString>
_TEXT	ENDS
PUBLIC	??0InvenFourExtraCompoundBuyWnd@@QAE@XZ		; InvenFourExtraCompoundBuyWnd::InvenFourExtraCompoundBuyWnd
EXTRN	__imp_??0ioWnd@@QAE@XZ:PROC
;	COMDAT xdata$x
; File d:\lost saga for developer\youtube\tutorial\source\src\lsclient\encryptvalue.h
xdata$x	SEGMENT
__unwindtable$??0InvenFourExtraCompoundBuyWnd@@QAE@XZ DD 0ffffffffH
	DD	FLAT:__unwindfunclet$??0InvenFourExtraCompoundBuyWnd@@QAE@XZ$0
	DD	00H
	DD	FLAT:__unwindfunclet$??0InvenFourExtraCompoundBuyWnd@@QAE@XZ$1
__ehfuncinfo$??0InvenFourExtraCompoundBuyWnd@@QAE@XZ DD 019930522H
	DD	02H
	DD	FLAT:__unwindtable$??0InvenFourExtraCompoundBuyWnd@@QAE@XZ
	DD	2 DUP(00H)
	DD	2 DUP(00H)
	DD	00H
	DD	01H
; Function compile flags: /Ogsp
; File d:\lost saga for developer\youtube\tutorial\source\src\lsclient\gui\invenfourextracompoundwnd.cpp
xdata$x	ENDS
;	COMDAT ??0InvenFourExtraCompoundBuyWnd@@QAE@XZ
_TEXT	SEGMENT
_this$ = -20						; size = 4
_value$517756 = -16					; size = 4
_value$517752 = -16					; size = 4
_value$517748 = -16					; size = 4
_value$517744 = -16					; size = 4
_value$517740 = -16					; size = 4
_value$517736 = -16					; size = 4
_value$517732 = -16					; size = 4
_value$517728 = -16					; size = 4
_value$517724 = -16					; size = 4
_value$517720 = -16					; size = 4
__$EHRec$ = -12						; size = 12
??0InvenFourExtraCompoundBuyWnd@@QAE@XZ PROC		; InvenFourExtraCompoundBuyWnd::InvenFourExtraCompoundBuyWnd, COMDAT
; _this$ = ecx

; 48   : {

  00000	6a 08		 push	 8
  00002	b8 00 00 00 00	 mov	 eax, __ehhandler$??0InvenFourExtraCompoundBuyWnd@@QAE@XZ
  00007	e8 00 00 00 00	 call	 __EH_prolog3
  0000c	8b f1		 mov	 esi, ecx
  0000e	89 75 ec	 mov	 DWORD PTR _this$[ebp], esi
  00011	ff 15 00 00 00
	00		 call	 DWORD PTR __imp_??0ioWnd@@QAE@XZ
  00017	33 ff		 xor	 edi, edi
  00019	8d 8e 98 01 00
	00		 lea	 ecx, DWORD PTR [esi+408]
  0001f	89 7d fc	 mov	 DWORD PTR __$EHRec$[ebp+8], edi
  00022	c7 06 00 00 00
	00		 mov	 DWORD PTR [esi], OFFSET ??_7InvenFourExtraCompoundBuyWnd@@6B@
  00028	e8 00 00 00 00	 call	 ??0CHARACTER@@QAE@XZ	; CHARACTER::CHARACTER
  0002d	33 db		 xor	 ebx, ebx

; 49   : 	m_dwEtcItemType = 0;
; 50   : 
; 51   : 	m_CharInfo.m_class_type = 1;

  0002f	8d 45 f0	 lea	 eax, DWORD PTR _value$517720[ebp]
  00032	43		 inc	 ebx
  00033	50		 push	 eax
  00034	8d 8e 98 01 00
	00		 lea	 ecx, DWORD PTR [esi+408]
  0003a	88 5d fc	 mov	 BYTE PTR __$EHRec$[ebp+8], bl
  0003d	89 be 60 01 00
	00		 mov	 DWORD PTR [esi+352], edi
  00043	89 5d f0	 mov	 DWORD PTR _value$517720[ebp], ebx
  00046	e8 00 00 00 00	 call	 ?EncryptValueToPool@?$CEncrypt@H@@AAEXPBD@Z ; CEncrypt<int>::EncryptValueToPool

; 52   : 	m_CharInfo.m_kindred	= 1;

  0004b	8d 45 f0	 lea	 eax, DWORD PTR _value$517724[ebp]
  0004e	50		 push	 eax
  0004f	8d 8e c8 01 00
	00		 lea	 ecx, DWORD PTR [esi+456]
  00055	89 5d f0	 mov	 DWORD PTR _value$517724[ebp], ebx
  00058	e8 00 00 00 00	 call	 ?EncryptValueToPool@?$CEncrypt@H@@AAEXPBD@Z ; CEncrypt<int>::EncryptValueToPool

; 53   : 	m_CharInfo.m_sex		= 1;

  0005d	8d 45 f0	 lea	 eax, DWORD PTR _value$517728[ebp]
  00060	50		 push	 eax
  00061	8d 8e f8 01 00
	00		 lea	 ecx, DWORD PTR [esi+504]
  00067	89 5d f0	 mov	 DWORD PTR _value$517728[ebp], ebx
  0006a	e8 00 00 00 00	 call	 ?EncryptValueToPool@?$CEncrypt@H@@AAEXPBD@Z ; CEncrypt<int>::EncryptValueToPool

; 54   : 	m_CharInfo.m_beard	    = 1;

  0006f	8d 45 f0	 lea	 eax, DWORD PTR _value$517732[ebp]
  00072	50		 push	 eax
  00073	8d 8e 28 02 00
	00		 lea	 ecx, DWORD PTR [esi+552]
  00079	89 5d f0	 mov	 DWORD PTR _value$517732[ebp], ebx
  0007c	e8 00 00 00 00	 call	 ?EncryptValueToPool@?$CEncrypt@H@@AAEXPBD@Z ; CEncrypt<int>::EncryptValueToPool

; 55   : 	m_CharInfo.m_face	    = 1;

  00081	8d 45 f0	 lea	 eax, DWORD PTR _value$517736[ebp]
  00084	50		 push	 eax
  00085	8d 8e 58 02 00
	00		 lea	 ecx, DWORD PTR [esi+600]
  0008b	89 5d f0	 mov	 DWORD PTR _value$517736[ebp], ebx
  0008e	e8 00 00 00 00	 call	 ?EncryptValueToPool@?$CEncrypt@H@@AAEXPBD@Z ; CEncrypt<int>::EncryptValueToPool

; 56   : 	m_CharInfo.m_hair	    = 1;

  00093	8d 45 f0	 lea	 eax, DWORD PTR _value$517740[ebp]
  00096	50		 push	 eax
  00097	8d 8e 88 02 00
	00		 lea	 ecx, DWORD PTR [esi+648]
  0009d	89 5d f0	 mov	 DWORD PTR _value$517740[ebp], ebx
  000a0	e8 00 00 00 00	 call	 ?EncryptValueToPool@?$CEncrypt@H@@AAEXPBD@Z ; CEncrypt<int>::EncryptValueToPool

; 57   : 	m_CharInfo.m_skin_color = 1;

  000a5	8d 45 f0	 lea	 eax, DWORD PTR _value$517744[ebp]
  000a8	50		 push	 eax
  000a9	8d 8e b8 02 00
	00		 lea	 ecx, DWORD PTR [esi+696]
  000af	89 5d f0	 mov	 DWORD PTR _value$517744[ebp], ebx
  000b2	e8 00 00 00 00	 call	 ?EncryptValueToPool@?$CEncrypt@H@@AAEXPBD@Z ; CEncrypt<int>::EncryptValueToPool

; 58   : 	m_CharInfo.m_hair_color = 1;

  000b7	8d 45 f0	 lea	 eax, DWORD PTR _value$517748[ebp]
  000ba	50		 push	 eax
  000bb	8d 8e e8 02 00
	00		 lea	 ecx, DWORD PTR [esi+744]
  000c1	89 5d f0	 mov	 DWORD PTR _value$517748[ebp], ebx
  000c4	e8 00 00 00 00	 call	 ?EncryptValueToPool@?$CEncrypt@H@@AAEXPBD@Z ; CEncrypt<int>::EncryptValueToPool

; 59   : 	m_CharInfo.m_accessories= 1;

  000c9	8d 45 f0	 lea	 eax, DWORD PTR _value$517752[ebp]
  000cc	50		 push	 eax
  000cd	8d 8e 18 03 00
	00		 lea	 ecx, DWORD PTR [esi+792]
  000d3	89 5d f0	 mov	 DWORD PTR _value$517752[ebp], ebx
  000d6	e8 00 00 00 00	 call	 ?EncryptValueToPool@?$CEncrypt@H@@AAEXPBD@Z ; CEncrypt<int>::EncryptValueToPool

; 60   : 	m_CharInfo.m_underwear  = 1;

  000db	8d 45 f0	 lea	 eax, DWORD PTR _value$517756[ebp]
  000de	50		 push	 eax
  000df	8d 8e 48 03 00
	00		 lea	 ecx, DWORD PTR [esi+840]
  000e5	89 5d f0	 mov	 DWORD PTR _value$517756[ebp], ebx
  000e8	e8 00 00 00 00	 call	 ?EncryptValueToPool@?$CEncrypt@H@@AAEXPBD@Z ; CEncrypt<int>::EncryptValueToPool

; 61   : 
; 62   : 	m_pManual     = NULL;

  000ed	89 be 64 01 00
	00		 mov	 DWORD PTR [esi+356], edi

; 63   : 	m_pBackEffect = NULL;

  000f3	89 be 6c 01 00
	00		 mov	 DWORD PTR [esi+364], edi

; 64   : 
; 65   : 	m_dwBackAniTime       = 0;

  000f9	89 be 70 01 00
	00		 mov	 DWORD PTR [esi+368], edi

; 66   : 	m_dwBackAniSizePerGap = 0;

  000ff	89 be 7c 01 00
	00		 mov	 DWORD PTR [esi+380], edi

; 67   : 	m_dwBackAniAlphaGap   = 0;

  00105	89 be 80 01 00
	00		 mov	 DWORD PTR [esi+384], edi

; 68   : 
; 69   : 	for (int i = 0; i < MAX_BACK_EFFECT ; i++)

  0010b	33 c9		 xor	 ecx, ecx
  0010d	8d 86 84 01 00
	00		 lea	 eax, DWORD PTR [esi+388]
$LL3@InvenFourE@2:

; 70   : 	{
; 71   : 		m_dwBackAniCheckTime[i] = 0;
; 72   : 		m_fBackAniScale[i]      = 0.0f;

  00113	0f 57 c0	 xorps	 xmm0, xmm0
  00116	89 78 f0	 mov	 DWORD PTR [eax-16], edi
  00119	f3 0f 11 00	 movss	 DWORD PTR [eax], xmm0

; 73   : 		m_byBackAniAlpha[i]     = 0;	

  0011d	c6 84 0e 8c 01
	00 00 00	 mov	 BYTE PTR [esi+ecx+396], 0
  00125	41		 inc	 ecx
  00126	83 c0 04	 add	 eax, 4
  00129	83 f9 02	 cmp	 ecx, 2
  0012c	7c e5		 jl	 SHORT $LL3@InvenFourE@2

; 74   : 	}
; 75   : 	m_dwStartAniCheckTime = 0;

  0012e	89 be 90 01 00
	00		 mov	 DWORD PTR [esi+400], edi

; 76   : 
; 77   : 	m_bReleaseHelmet = false;

  00134	c7 86 94 01 00
	00 00 00 00 00	 mov	 DWORD PTR [esi+404], 0

; 78   : 	m_bReleaseArmor  = false;
; 79   : 	m_bReleaseCloak  = false;
; 80   : 	m_bReleaseWeapon = false;
; 81   : }

  0013e	8b c6		 mov	 eax, esi
  00140	e8 00 00 00 00	 call	 __EH_epilog3
  00145	c3		 ret	 0
_TEXT	ENDS
;	COMDAT text$x
text$x	SEGMENT
__unwindfunclet$??0InvenFourExtraCompoundBuyWnd@@QAE@XZ$0:
  00000	8b 4d ec	 mov	 ecx, DWORD PTR _this$[ebp]
  00003	ff 25 00 00 00
	00		 jmp	 DWORD PTR __imp_??1ioWnd@@UAE@XZ
__unwindfunclet$??0InvenFourExtraCompoundBuyWnd@@QAE@XZ$1:
  00009	8b 4d ec	 mov	 ecx, DWORD PTR _this$[ebp]
  0000c	81 c1 98 01 00
	00		 add	 ecx, 408		; 00000198H
  00012	e9 00 00 00 00	 jmp	 ??1CHARACTER@@QAE@XZ
__ehhandler$??0InvenFourExtraCompoundBuyWnd@@QAE@XZ:
  00017	8b 54 24 08	 mov	 edx, DWORD PTR [esp+8]
  0001b	8d 42 0c	 lea	 eax, DWORD PTR [edx+12]
  0001e	8b 4a e8	 mov	 ecx, DWORD PTR [edx-24]
  00021	33 c8		 xor	 ecx, eax
  00023	e8 00 00 00 00	 call	 @__security_check_cookie@4
  00028	b8 00 00 00 00	 mov	 eax, OFFSET __ehfuncinfo$??0InvenFourExtraCompoundBuyWnd@@QAE@XZ
  0002d	e9 00 00 00 00	 jmp	 ___CxxFrameHandler3
text$x	ENDS
??0InvenFourExtraCompoundBuyWnd@@QAE@XZ ENDP		; InvenFourExtraCompoundBuyWnd::InvenFourExtraCompoundBuyWnd
PUBLIC	??$_Destroy_range@V?$allocator@UNewShopPullDownItem@@@std@@@std@@YAXPAUNewShopPullDownItem@@0AAV?$allocator@UNewShopPullDownItem@@@0@U_Nonscalar_ptr_iterator_tag@0@@Z ; std::_Destroy_range<std::allocator<NewShopPullDownItem> >
; Function compile flags: /Ogsp
; File c:\program files (x86)\microsoft visual studio 10.0\vc\include\xmemory
;	COMDAT ??$_Destroy_range@V?$allocator@UNewShopPullDownItem@@@std@@@std@@YAXPAUNewShopPullDownItem@@0AAV?$allocator@UNewShopPullDownItem@@@0@U_Nonscalar_ptr_iterator_tag@0@@Z
_TEXT	SEGMENT
__First$ = 8						; size = 4
__Last$ = 12						; size = 4
__Al$ = 16						; size = 4
___formal$ = 20						; size = 1
??$_Destroy_range@V?$allocator@UNewShopPullDownItem@@@std@@@std@@YAXPAUNewShopPullDownItem@@0AAV?$allocator@UNewShopPullDownItem@@@0@U_Nonscalar_ptr_iterator_tag@0@@Z PROC ; std::_Destroy_range<std::allocator<NewShopPullDownItem> >, COMDAT

; 95   : 	{	// destroy [_First, _Last), arbitrary type

  00000	55		 push	 ebp
  00001	8b ec		 mov	 ebp, esp
  00003	56		 push	 esi

; 96   : 	for (; _First != _Last; ++_First)

  00004	8b 75 08	 mov	 esi, DWORD PTR __First$[ebp]
  00007	eb 0a		 jmp	 SHORT $LN17@Destroy_ra
$LL3@Destroy_ra:

; 97   : 		_Dest_val(_Al, _First);

  00009	8b ce		 mov	 ecx, esi
  0000b	e8 00 00 00 00	 call	 ??1NewShopPullDownItem@@QAE@XZ
  00010	83 c6 50	 add	 esi, 80			; 00000050H
$LN17@Destroy_ra:

; 96   : 	for (; _First != _Last; ++_First)

  00013	3b 75 0c	 cmp	 esi, DWORD PTR __Last$[ebp]
  00016	75 f1		 jne	 SHORT $LL3@Destroy_ra
  00018	5e		 pop	 esi

; 98   : 	}

  00019	5d		 pop	 ebp
  0001a	c3		 ret	 0
??$_Destroy_range@V?$allocator@UNewShopPullDownItem@@@std@@@std@@YAXPAUNewShopPullDownItem@@0AAV?$allocator@UNewShopPullDownItem@@@0@U_Nonscalar_ptr_iterator_tag@0@@Z ENDP ; std::_Destroy_range<std::allocator<NewShopPullDownItem> >
_TEXT	ENDS
PUBLIC	??$_Unguarded_partition@PAUNewShopPullDownItem@@VSoldierSort@InvenFourExtraCompoundBuyWnd@@@std@@YA?AU?$pair@PAUNewShopPullDownItem@@PAU1@@0@PAUNewShopPullDownItem@@0VSoldierSort@InvenFourExtraCompoundBuyWnd@@@Z ; std::_Unguarded_partition<NewShopPullDownItem *,InvenFourExtraCompoundBuyWnd::SoldierSort>
; Function compile flags: /Ogsp
; File c:\program files (x86)\microsoft visual studio 10.0\vc\include\algorithm
;	COMDAT ??$_Unguarded_partition@PAUNewShopPullDownItem@@VSoldierSort@InvenFourExtraCompoundBuyWnd@@@std@@YA?AU?$pair@PAUNewShopPullDownItem@@PAU1@@0@PAUNewShopPullDownItem@@0VSoldierSort@InvenFourExtraCompoundBuyWnd@@@Z
_TEXT	SEGMENT
tv352 = -8						; size = 4
tv264 = -8						; size = 4
__Glast$ = -4						; size = 4
___$ReturnUdt$ = 8					; size = 4
__First$ = 12						; size = 4
__Last$ = 16						; size = 4
__Pred$ = 20						; size = 1
??$_Unguarded_partition@PAUNewShopPullDownItem@@VSoldierSort@InvenFourExtraCompoundBuyWnd@@@std@@YA?AU?$pair@PAUNewShopPullDownItem@@PAU1@@0@PAUNewShopPullDownItem@@0VSoldierSort@InvenFourExtraCompoundBuyWnd@@@Z PROC ; std::_Unguarded_partition<NewShopPullDownItem *,InvenFourExtraCompoundBuyWnd::SoldierSort>, COMDAT

; 3712 : 	{	// partition [_First, _Last), using _Pred

  00000	55		 push	 ebp
  00001	8b ec		 mov	 ebp, esp
  00003	51		 push	 ecx
  00004	51		 push	 ecx

; 3713 : 	_RanIt _Mid = _First + (_Last - _First) / 2;

  00005	8b 4d 10	 mov	 ecx, DWORD PTR __Last$[ebp]
  00008	53		 push	 ebx
  00009	8b 5d 0c	 mov	 ebx, DWORD PTR __First$[ebp]
  0000c	56		 push	 esi
  0000d	57		 push	 edi
  0000e	8b c1		 mov	 eax, ecx
  00010	2b c3		 sub	 eax, ebx
  00012	6a 50		 push	 80			; 00000050H
  00014	5e		 pop	 esi
  00015	99		 cdq
  00016	f7 fe		 idiv	 esi

; 3714 : 	_Median(_First, _Mid, _Last - 1, _Pred);

  00018	ff 75 14	 push	 DWORD PTR __Pred$[ebp]
  0001b	83 c1 b0	 add	 ecx, -80		; ffffffb0H
  0001e	51		 push	 ecx
  0001f	99		 cdq
  00020	2b c2		 sub	 eax, edx
  00022	8b f0		 mov	 esi, eax
  00024	d1 fe		 sar	 esi, 1
  00026	6b f6 50	 imul	 esi, 80			; 00000050H
  00029	03 f3		 add	 esi, ebx
  0002b	56		 push	 esi
  0002c	53		 push	 ebx
  0002d	e8 00 00 00 00	 call	 ??$_Median@PAUNewShopPullDownItem@@VSoldierSort@InvenFourExtraCompoundBuyWnd@@@std@@YAXPAUNewShopPullDownItem@@00VSoldierSort@InvenFourExtraCompoundBuyWnd@@@Z ; std::_Median<NewShopPullDownItem *,InvenFourExtraCompoundBuyWnd::SoldierSort>
  00032	83 c4 10	 add	 esp, 16			; 00000010H

; 3715 : 	_RanIt _Pfirst = _Mid;
; 3716 : 	_RanIt _Plast = _Pfirst + 1;

  00035	8d 7e 50	 lea	 edi, DWORD PTR [esi+80]
  00038	eb 27		 jmp	 SHORT $LN72@Unguarded_
$LL27@Unguarded_:

; 3717 : 
; 3718 : 	while (_First < _Pfirst
; 3719 : 		&& !_DEBUG_LT_PRED(_Pred, *(_Pfirst - 1), *_Pfirst)
; 3720 : 		&& !_Pred(*_Pfirst, *(_Pfirst - 1)))

  0003a	8d 46 b0	 lea	 eax, DWORD PTR [esi-80]
  0003d	56		 push	 esi
  0003e	50		 push	 eax
  0003f	8d 4d 14	 lea	 ecx, DWORD PTR __Pred$[ebp]
  00042	89 45 f8	 mov	 DWORD PTR tv264[ebp], eax
  00045	e8 00 00 00 00	 call	 ??RSoldierSort@InvenFourExtraCompoundBuyWnd@@QBE_NABUNewShopPullDownItem@@0@Z ; InvenFourExtraCompoundBuyWnd::SoldierSort::operator()
  0004a	84 c0		 test	 al, al
  0004c	75 38		 jne	 SHORT $LN73@Unguarded_
  0004e	ff 75 f8	 push	 DWORD PTR tv264[ebp]
  00051	8d 4d 14	 lea	 ecx, DWORD PTR __Pred$[ebp]
  00054	56		 push	 esi
  00055	e8 00 00 00 00	 call	 ??RSoldierSort@InvenFourExtraCompoundBuyWnd@@QBE_NABUNewShopPullDownItem@@0@Z ; InvenFourExtraCompoundBuyWnd::SoldierSort::operator()
  0005a	84 c0		 test	 al, al
  0005c	75 28		 jne	 SHORT $LN73@Unguarded_

; 3721 : 		--_Pfirst;

  0005e	8b 75 f8	 mov	 esi, DWORD PTR tv264[ebp]
$LN72@Unguarded_:

; 3717 : 
; 3718 : 	while (_First < _Pfirst
; 3719 : 		&& !_DEBUG_LT_PRED(_Pred, *(_Pfirst - 1), *_Pfirst)
; 3720 : 		&& !_Pred(*_Pfirst, *(_Pfirst - 1)))

  00061	3b de		 cmp	 ebx, esi
  00063	72 d5		 jb	 SHORT $LL27@Unguarded_

; 3725 : 		++_Plast;

  00065	eb 1f		 jmp	 SHORT $LN73@Unguarded_
$LL25@Unguarded_:

; 3722 : 	while (_Plast < _Last
; 3723 : 		&& !_DEBUG_LT_PRED(_Pred, *_Plast, *_Pfirst)
; 3724 : 		&& !_Pred(*_Pfirst, *_Plast))

  00067	56		 push	 esi
  00068	57		 push	 edi
  00069	8d 4d 14	 lea	 ecx, DWORD PTR __Pred$[ebp]
  0006c	e8 00 00 00 00	 call	 ??RSoldierSort@InvenFourExtraCompoundBuyWnd@@QBE_NABUNewShopPullDownItem@@0@Z ; InvenFourExtraCompoundBuyWnd::SoldierSort::operator()
  00071	84 c0		 test	 al, al
  00073	75 16		 jne	 SHORT $LN24@Unguarded_
  00075	57		 push	 edi
  00076	56		 push	 esi
  00077	8d 4d 14	 lea	 ecx, DWORD PTR __Pred$[ebp]
  0007a	e8 00 00 00 00	 call	 ??RSoldierSort@InvenFourExtraCompoundBuyWnd@@QBE_NABUNewShopPullDownItem@@0@Z ; InvenFourExtraCompoundBuyWnd::SoldierSort::operator()
  0007f	84 c0		 test	 al, al
  00081	75 08		 jne	 SHORT $LN24@Unguarded_

; 3725 : 		++_Plast;

  00083	83 c7 50	 add	 edi, 80			; 00000050H
$LN73@Unguarded_:

; 3722 : 	while (_Plast < _Last
; 3723 : 		&& !_DEBUG_LT_PRED(_Pred, *_Plast, *_Pfirst)
; 3724 : 		&& !_Pred(*_Pfirst, *_Plast))

  00086	3b 7d 10	 cmp	 edi, DWORD PTR __Last$[ebp]
  00089	72 dc		 jb	 SHORT $LL25@Unguarded_
$LN24@Unguarded_:

; 3726 : 
; 3727 : 	_RanIt _Gfirst = _Plast;

  0008b	8b df		 mov	 ebx, edi

; 3728 : 	_RanIt _Glast = _Pfirst;

  0008d	89 75 fc	 mov	 DWORD PTR __Glast$[ebp], esi

; 3729 : 
; 3730 : 	for (; ; )
; 3731 : 		{	// partition
; 3732 : 		for (; _Gfirst < _Last; ++_Gfirst)

  00090	eb 2d		 jmp	 SHORT $LN75@Unguarded_
$LL21@Unguarded_:

; 3733 : 			if (_DEBUG_LT_PRED(_Pred, *_Pfirst, *_Gfirst))

  00092	53		 push	 ebx
  00093	56		 push	 esi
  00094	8d 4d 14	 lea	 ecx, DWORD PTR __Pred$[ebp]
  00097	e8 00 00 00 00	 call	 ??RSoldierSort@InvenFourExtraCompoundBuyWnd@@QBE_NABUNewShopPullDownItem@@0@Z ; InvenFourExtraCompoundBuyWnd::SoldierSort::operator()
  0009c	84 c0		 test	 al, al
  0009e	75 1c		 jne	 SHORT $LN20@Unguarded_

; 3734 : 				;
; 3735 : 			else if (_Pred(*_Gfirst, *_Pfirst))

  000a0	56		 push	 esi
  000a1	53		 push	 ebx
  000a2	8d 4d 14	 lea	 ecx, DWORD PTR __Pred$[ebp]
  000a5	e8 00 00 00 00	 call	 ??RSoldierSort@InvenFourExtraCompoundBuyWnd@@QBE_NABUNewShopPullDownItem@@0@Z ; InvenFourExtraCompoundBuyWnd::SoldierSort::operator()
  000aa	84 c0		 test	 al, al
  000ac	75 16		 jne	 SHORT $LN69@Unguarded_

; 3736 : 				break;
; 3737 : 			else
; 3738 : 				_STD iter_swap(_Plast++, _Gfirst);

  000ae	8b c7		 mov	 eax, edi
  000b0	53		 push	 ebx
  000b1	83 c7 50	 add	 edi, 80			; 00000050H
  000b4	50		 push	 eax
$LN76@Unguarded_:
  000b5	e8 00 00 00 00	 call	 ??$swap@UNewShopPullDownItem@@@std@@YAXAAUNewShopPullDownItem@@0@Z ; std::swap<NewShopPullDownItem>
  000ba	59		 pop	 ecx
  000bb	59		 pop	 ecx
$LN20@Unguarded_:

; 3729 : 
; 3730 : 	for (; ; )
; 3731 : 		{	// partition
; 3732 : 		for (; _Gfirst < _Last; ++_Gfirst)

  000bc	83 c3 50	 add	 ebx, 80			; 00000050H
$LN75@Unguarded_:
  000bf	3b 5d 10	 cmp	 ebx, DWORD PTR __Last$[ebp]
  000c2	72 ce		 jb	 SHORT $LL21@Unguarded_
$LN69@Unguarded_:

; 3739 : 		for (; _First < _Glast; --_Glast)

  000c4	8b 45 fc	 mov	 eax, DWORD PTR __Glast$[ebp]
  000c7	39 45 0c	 cmp	 DWORD PTR __First$[ebp], eax
  000ca	73 44		 jae	 SHORT $LN71@Unguarded_
  000cc	83 c0 b0	 add	 eax, -80		; ffffffb0H
  000cf	89 45 f8	 mov	 DWORD PTR tv352[ebp], eax
$LL70@Unguarded_:

; 3740 : 			if (_DEBUG_LT_PRED(_Pred, *(_Glast - 1), *_Pfirst))

  000d2	56		 push	 esi
  000d3	ff 75 f8	 push	 DWORD PTR tv352[ebp]
  000d6	8d 4d 14	 lea	 ecx, DWORD PTR __Pred$[ebp]
  000d9	e8 00 00 00 00	 call	 ??RSoldierSort@InvenFourExtraCompoundBuyWnd@@QBE_NABUNewShopPullDownItem@@0@Z ; InvenFourExtraCompoundBuyWnd::SoldierSort::operator()
  000de	84 c0		 test	 al, al
  000e0	75 1e		 jne	 SHORT $LN13@Unguarded_

; 3741 : 				;
; 3742 : 			else if (_Pred(*_Pfirst, *(_Glast - 1)))

  000e2	ff 75 f8	 push	 DWORD PTR tv352[ebp]
  000e5	8d 4d 14	 lea	 ecx, DWORD PTR __Pred$[ebp]
  000e8	56		 push	 esi
  000e9	e8 00 00 00 00	 call	 ??RSoldierSort@InvenFourExtraCompoundBuyWnd@@QBE_NABUNewShopPullDownItem@@0@Z ; InvenFourExtraCompoundBuyWnd::SoldierSort::operator()
  000ee	84 c0		 test	 al, al
  000f0	75 1e		 jne	 SHORT $LN71@Unguarded_

; 3743 : 				break;
; 3744 : 			else
; 3745 : 				_STD iter_swap(--_Pfirst, _Glast - 1);

  000f2	ff 75 f8	 push	 DWORD PTR tv352[ebp]
  000f5	83 ee 50	 sub	 esi, 80			; 00000050H
  000f8	56		 push	 esi
  000f9	e8 00 00 00 00	 call	 ??$swap@UNewShopPullDownItem@@@std@@YAXAAUNewShopPullDownItem@@0@Z ; std::swap<NewShopPullDownItem>
  000fe	59		 pop	 ecx
  000ff	59		 pop	 ecx
$LN13@Unguarded_:

; 3739 : 		for (; _First < _Glast; --_Glast)

  00100	83 6d fc 50	 sub	 DWORD PTR __Glast$[ebp], 80 ; 00000050H
  00104	8b 45 0c	 mov	 eax, DWORD PTR __First$[ebp]
  00107	83 6d f8 50	 sub	 DWORD PTR tv352[ebp], 80 ; 00000050H
  0010b	3b 45 fc	 cmp	 eax, DWORD PTR __Glast$[ebp]
  0010e	72 c2		 jb	 SHORT $LL70@Unguarded_
$LN71@Unguarded_:

; 3746 : 		if (_Glast == _First && _Gfirst == _Last)

  00110	8b 45 fc	 mov	 eax, DWORD PTR __Glast$[ebp]
  00113	3b 45 0c	 cmp	 eax, DWORD PTR __First$[ebp]
  00116	75 1f		 jne	 SHORT $LN6@Unguarded_
  00118	3b 5d 10	 cmp	 ebx, DWORD PTR __Last$[ebp]
  0011b	74 4d		 je	 SHORT $LN64@Unguarded_

; 3748 : 
; 3749 : 		if (_Glast == _First)
; 3750 : 			{	// no room at bottom, rotate pivot upward
; 3751 : 			if (_Plast != _Gfirst)

  0011d	3b fb		 cmp	 edi, ebx
  0011f	74 09		 je	 SHORT $LN46@Unguarded_

; 3752 : 				_STD iter_swap(_Pfirst, _Plast);

  00121	57		 push	 edi
  00122	56		 push	 esi
  00123	e8 00 00 00 00	 call	 ??$swap@UNewShopPullDownItem@@@std@@YAXAAUNewShopPullDownItem@@0@Z ; std::swap<NewShopPullDownItem>
  00128	59		 pop	 ecx
  00129	59		 pop	 ecx
$LN46@Unguarded_:

; 3753 : 			++_Plast;
; 3754 : 			_STD iter_swap(_Pfirst++, _Gfirst++);

  0012a	53		 push	 ebx
  0012b	56		 push	 esi
  0012c	83 c7 50	 add	 edi, 80			; 00000050H
  0012f	83 c6 50	 add	 esi, 80			; 00000050H
  00132	83 c3 50	 add	 ebx, 80			; 00000050H
  00135	eb 20		 jmp	 SHORT $LN74@Unguarded_
$LN6@Unguarded_:

; 3755 : 			}
; 3756 : 		else if (_Gfirst == _Last)
; 3757 : 			{	// no room at top, rotate pivot downward
; 3758 : 			if (--_Glast != --_Pfirst)

  00137	83 e8 50	 sub	 eax, 80			; 00000050H
  0013a	89 45 fc	 mov	 DWORD PTR __Glast$[ebp], eax
  0013d	3b 5d 10	 cmp	 ebx, DWORD PTR __Last$[ebp]
  00140	75 21		 jne	 SHORT $LN3@Unguarded_
  00142	83 ee 50	 sub	 esi, 80			; 00000050H
  00145	3b c6		 cmp	 eax, esi
  00147	74 09		 je	 SHORT $LN50@Unguarded_

; 3759 : 				_STD iter_swap(_Glast, _Pfirst);

  00149	56		 push	 esi
  0014a	50		 push	 eax
  0014b	e8 00 00 00 00	 call	 ??$swap@UNewShopPullDownItem@@@std@@YAXAAUNewShopPullDownItem@@0@Z ; std::swap<NewShopPullDownItem>
  00150	59		 pop	 ecx
  00151	59		 pop	 ecx
$LN50@Unguarded_:

; 3760 : 			_STD iter_swap(_Pfirst, --_Plast);

  00152	83 ef 50	 sub	 edi, 80			; 00000050H
  00155	57		 push	 edi
  00156	56		 push	 esi
$LN74@Unguarded_:
  00157	e8 00 00 00 00	 call	 ??$swap@UNewShopPullDownItem@@@std@@YAXAAUNewShopPullDownItem@@0@Z ; std::swap<NewShopPullDownItem>
  0015c	59		 pop	 ecx
  0015d	59		 pop	 ecx

; 3761 : 			}
; 3762 : 		else

  0015e	e9 5c ff ff ff	 jmp	 $LN75@Unguarded_
$LN3@Unguarded_:

; 3763 : 			_STD iter_swap(_Gfirst++, --_Glast);

  00163	50		 push	 eax
  00164	53		 push	 ebx

; 3764 : 		}

  00165	e9 4b ff ff ff	 jmp	 $LN76@Unguarded_
$LN64@Unguarded_:

; 3747 : 			return (_STD pair<_RanIt, _RanIt>(_Pfirst, _Plast));

  0016a	8b 45 08	 mov	 eax, DWORD PTR ___$ReturnUdt$[ebp]
  0016d	89 78 04	 mov	 DWORD PTR [eax+4], edi
  00170	5f		 pop	 edi
  00171	89 30		 mov	 DWORD PTR [eax], esi
  00173	5e		 pop	 esi
  00174	5b		 pop	 ebx

; 3765 : 	}

  00175	c9		 leave
  00176	c3		 ret	 0
??$_Unguarded_partition@PAUNewShopPullDownItem@@VSoldierSort@InvenFourExtraCompoundBuyWnd@@@std@@YA?AU?$pair@PAUNewShopPullDownItem@@PAU1@@0@PAUNewShopPullDownItem@@0VSoldierSort@InvenFourExtraCompoundBuyWnd@@@Z ENDP ; std::_Unguarded_partition<NewShopPullDownItem *,InvenFourExtraCompoundBuyWnd::SoldierSort>
_TEXT	ENDS
PUBLIC	??$_Uninit_move@PAVioHashString@@PAV1@V?$allocator@VioHashString@@@std@@V1@@std@@YAPAVioHashString@@PAV1@00AAV?$allocator@VioHashString@@@0@0U_Nonscalar_ptr_iterator_tag@0@@Z ; std::_Uninit_move<ioHashString *,ioHashString *,std::allocator<ioHashString>,ioHashString>
EXTRN	__EH_prolog3_catch:PROC
;	COMDAT xdata$x
; File c:\program files (x86)\microsoft visual studio 10.0\vc\include\vector
xdata$x	SEGMENT
__catchsym$??$_Uninit_move@PAVioHashString@@PAV1@V?$allocator@VioHashString@@@std@@V1@@std@@YAPAVioHashString@@PAV1@00AAV?$allocator@VioHashString@@@0@0U_Nonscalar_ptr_iterator_tag@0@@Z$2 DD 040H
	DD	00H
	DD	00H
	DD	FLAT:__catch$??$_Uninit_move@PAVioHashString@@PAV1@V?$allocator@VioHashString@@@std@@V1@@std@@YAPAVioHashString@@PAV1@00AAV?$allocator@VioHashString@@@0@0U_Nonscalar_ptr_iterator_tag@0@@Z$0
__unwindtable$??$_Uninit_move@PAVioHashString@@PAV1@V?$allocator@VioHashString@@@std@@V1@@std@@YAPAVioHashString@@PAV1@00AAV?$allocator@VioHashString@@@0@0U_Nonscalar_ptr_iterator_tag@0@@Z DD 0ffffffffH
	DD	00H
	DD	0ffffffffH
	DD	00H
__tryblocktable$??$_Uninit_move@PAVioHashString@@PAV1@V?$allocator@VioHashString@@@std@@V1@@std@@YAPAVioHashString@@PAV1@00AAV?$allocator@VioHashString@@@0@0U_Nonscalar_ptr_iterator_tag@0@@Z DD 00H
	DD	00H
	DD	01H
	DD	01H
	DD	FLAT:__catchsym$??$_Uninit_move@PAVioHashString@@PAV1@V?$allocator@VioHashString@@@std@@V1@@std@@YAPAVioHashString@@PAV1@00AAV?$allocator@VioHashString@@@0@0U_Nonscalar_ptr_iterator_tag@0@@Z$2
__ehfuncinfo$??$_Uninit_move@PAVioHashString@@PAV1@V?$allocator@VioHashString@@@std@@V1@@std@@YAPAVioHashString@@PAV1@00AAV?$allocator@VioHashString@@@0@0U_Nonscalar_ptr_iterator_tag@0@@Z DD 019930522H
	DD	02H
	DD	FLAT:__unwindtable$??$_Uninit_move@PAVioHashString@@PAV1@V?$allocator@VioHashString@@@std@@V1@@std@@YAPAVioHashString@@PAV1@00AAV?$allocator@VioHashString@@@0@0U_Nonscalar_ptr_iterator_tag@0@@Z
	DD	01H
	DD	FLAT:__tryblocktable$??$_Uninit_move@PAVioHashString@@PAV1@V?$allocator@VioHashString@@@std@@V1@@std@@YAPAVioHashString@@PAV1@00AAV?$allocator@VioHashString@@@0@0U_Nonscalar_ptr_iterator_tag@0@@Z
	DD	2 DUP(00H)
	DD	00H
	DD	01H
; Function compile flags: /Ogsp
; File c:\program files (x86)\microsoft visual studio 10.0\vc\include\memory
xdata$x	ENDS
;	COMDAT ??$_Uninit_move@PAVioHashString@@PAV1@V?$allocator@VioHashString@@@std@@V1@@std@@YAPAVioHashString@@PAV1@00AAV?$allocator@VioHashString@@@0@0U_Nonscalar_ptr_iterator_tag@0@@Z
_TEXT	SEGMENT
__Next$ = -20						; size = 4
__$EHRec$ = -16						; size = 16
__First$ = 8						; size = 4
__Last$ = 12						; size = 4
__Dest$ = 16						; size = 4
__Al$ = 20						; size = 4
___formal$ = 24						; size = 4
___formal$ = 28						; size = 1
??$_Uninit_move@PAVioHashString@@PAV1@V?$allocator@VioHashString@@@std@@V1@@std@@YAPAVioHashString@@PAV1@00AAV?$allocator@VioHashString@@@0@0U_Nonscalar_ptr_iterator_tag@0@@Z PROC ; std::_Uninit_move<ioHashString *,ioHashString *,std::allocator<ioHashString>,ioHashString>, COMDAT

; 424  : 	{	// move [_First, _Last) to raw _Dest, using _Al, arbitrary type

  00000	6a 08		 push	 8
  00002	b8 00 00 00 00	 mov	 eax, __ehhandler$??$_Uninit_move@PAVioHashString@@PAV1@V?$allocator@VioHashString@@@std@@V1@@std@@YAPAVioHashString@@PAV1@00AAV?$allocator@VioHashString@@@0@0U_Nonscalar_ptr_iterator_tag@0@@Z
  00007	e8 00 00 00 00	 call	 __EH_prolog3_catch

; 425  : 	_DEBUG_RANGE(_First, _Last);
; 426  : 	_DEBUG_POINTER(_Dest);
; 427  : 	_FwdIt _Next = _Dest;

  0000c	8b 45 10	 mov	 eax, DWORD PTR __Dest$[ebp]

; 428  : 
; 429  : 	_TRY_BEGIN

  0000f	83 65 fc 00	 and	 DWORD PTR __$EHRec$[ebp+12], 0
  00013	8b 75 08	 mov	 esi, DWORD PTR __First$[ebp]
  00016	89 45 ec	 mov	 DWORD PTR __Next$[ebp], eax
$LL6@Uninit_mov:

; 430  : 	for (; _First != _Last; ++_Dest, ++_First)

  00019	3b 75 0c	 cmp	 esi, DWORD PTR __Last$[ebp]
  0001c	74 33		 je	 SHORT $LN4@Uninit_mov

; 431  : 		_Cons_val(_Al, _Dest, (_Valty &&)*_First);

  0001e	8b 4d 14	 mov	 ecx, DWORD PTR __Al$[ebp]
  00021	56		 push	 esi
  00022	ff 75 10	 push	 DWORD PTR __Dest$[ebp]
  00025	e8 00 00 00 00	 call	 ?construct@?$allocator@VioHashString@@@std@@QAEXPAVioHashString@@$$QAV3@@Z ; std::allocator<ioHashString>::construct
  0002a	83 45 10 10	 add	 DWORD PTR __Dest$[ebp], 16 ; 00000010H
  0002e	83 c6 10	 add	 esi, 16			; 00000010H
  00031	eb e6		 jmp	 SHORT $LL6@Uninit_mov
__catch$??$_Uninit_move@PAVioHashString@@PAV1@V?$allocator@VioHashString@@@std@@V1@@std@@YAPAVioHashString@@PAV1@00AAV?$allocator@VioHashString@@@0@0U_Nonscalar_ptr_iterator_tag@0@@Z$0:

; 432  : 	_CATCH_ALL
; 433  : 	for (; _Next != _Dest; ++_Next)

  00033	8b 75 ec	 mov	 esi, DWORD PTR __Next$[ebp]
  00036	eb 0b		 jmp	 SHORT $LN33@Uninit_mov
$LL3@Uninit_mov:

; 434  : 		_Dest_val(_Al, _Next);

  00038	8b ce		 mov	 ecx, esi
  0003a	ff 15 00 00 00
	00		 call	 DWORD PTR __imp_??1ioHashString@@QAE@XZ
  00040	83 c6 10	 add	 esi, 16			; 00000010H
$LN33@Uninit_mov:

; 432  : 	_CATCH_ALL
; 433  : 	for (; _Next != _Dest; ++_Next)

  00043	3b 75 10	 cmp	 esi, DWORD PTR __Dest$[ebp]
  00046	75 f0		 jne	 SHORT $LL3@Uninit_mov

; 435  : 	_RERAISE;

  00048	6a 00		 push	 0
  0004a	6a 00		 push	 0
  0004c	e8 00 00 00 00	 call	 __CxxThrowException@8
$LN34@Uninit_mov:
$LN4@Uninit_mov:

; 436  : 	_CATCH_END
; 437  : 	return (_Dest);

  00051	8b 45 10	 mov	 eax, DWORD PTR __Dest$[ebp]

; 438  : 	}

  00054	e8 00 00 00 00	 call	 __EH_epilog3
  00059	c3		 ret	 0
$LN32@Uninit_mov:
_TEXT	ENDS
;	COMDAT text$x
text$x	SEGMENT
__ehhandler$??$_Uninit_move@PAVioHashString@@PAV1@V?$allocator@VioHashString@@@std@@V1@@std@@YAPAVioHashString@@PAV1@00AAV?$allocator@VioHashString@@@0@0U_Nonscalar_ptr_iterator_tag@0@@Z:
  00000	8b 54 24 08	 mov	 edx, DWORD PTR [esp+8]
  00004	8d 42 0c	 lea	 eax, DWORD PTR [edx+12]
  00007	8b 4a e8	 mov	 ecx, DWORD PTR [edx-24]
  0000a	33 c8		 xor	 ecx, eax
  0000c	e8 00 00 00 00	 call	 @__security_check_cookie@4
  00011	b8 00 00 00 00	 mov	 eax, OFFSET __ehfuncinfo$??$_Uninit_move@PAVioHashString@@PAV1@V?$allocator@VioHashString@@@std@@V1@@std@@YAPAVioHashString@@PAV1@00AAV?$allocator@VioHashString@@@0@0U_Nonscalar_ptr_iterator_tag@0@@Z
  00016	e9 00 00 00 00	 jmp	 ___CxxFrameHandler3
text$x	ENDS
??$_Uninit_move@PAVioHashString@@PAV1@V?$allocator@VioHashString@@@std@@V1@@std@@YAPAVioHashString@@PAV1@00AAV?$allocator@VioHashString@@@0@0U_Nonscalar_ptr_iterator_tag@0@@Z ENDP ; std::_Uninit_move<ioHashString *,ioHashString *,std::allocator<ioHashString>,ioHashString>
PUBLIC	??$_Uninit_move@PAUNewShopPullDownItem@@PAU1@V?$allocator@UNewShopPullDownItem@@@std@@U1@@std@@YAPAUNewShopPullDownItem@@PAU1@00AAV?$allocator@UNewShopPullDownItem@@@0@0U_Nonscalar_ptr_iterator_tag@0@@Z ; std::_Uninit_move<NewShopPullDownItem *,NewShopPullDownItem *,std::allocator<NewShopPullDownItem>,NewShopPullDownItem>
;	COMDAT xdata$x
; File c:\program files (x86)\microsoft visual studio 10.0\vc\include\xmemory
xdata$x	SEGMENT
__catchsym$??$_Uninit_move@PAUNewShopPullDownItem@@PAU1@V?$allocator@UNewShopPullDownItem@@@std@@U1@@std@@YAPAUNewShopPullDownItem@@PAU1@00AAV?$allocator@UNewShopPullDownItem@@@0@0U_Nonscalar_ptr_iterator_tag@0@@Z$2 DD 040H
	DD	00H
	DD	00H
	DD	FLAT:__catch$??$_Uninit_move@PAUNewShopPullDownItem@@PAU1@V?$allocator@UNewShopPullDownItem@@@std@@U1@@std@@YAPAUNewShopPullDownItem@@PAU1@00AAV?$allocator@UNewShopPullDownItem@@@0@0U_Nonscalar_ptr_iterator_tag@0@@Z$0
__unwindtable$??$_Uninit_move@PAUNewShopPullDownItem@@PAU1@V?$allocator@UNewShopPullDownItem@@@std@@U1@@std@@YAPAUNewShopPullDownItem@@PAU1@00AAV?$allocator@UNewShopPullDownItem@@@0@0U_Nonscalar_ptr_iterator_tag@0@@Z DD 0ffffffffH
	DD	00H
	DD	0ffffffffH
	DD	00H
__tryblocktable$??$_Uninit_move@PAUNewShopPullDownItem@@PAU1@V?$allocator@UNewShopPullDownItem@@@std@@U1@@std@@YAPAUNewShopPullDownItem@@PAU1@00AAV?$allocator@UNewShopPullDownItem@@@0@0U_Nonscalar_ptr_iterator_tag@0@@Z DD 00H
	DD	00H
	DD	01H
	DD	01H
	DD	FLAT:__catchsym$??$_Uninit_move@PAUNewShopPullDownItem@@PAU1@V?$allocator@UNewShopPullDownItem@@@std@@U1@@std@@YAPAUNewShopPullDownItem@@PAU1@00AAV?$allocator@UNewShopPullDownItem@@@0@0U_Nonscalar_ptr_iterator_tag@0@@Z$2
__ehfuncinfo$??$_Uninit_move@PAUNewShopPullDownItem@@PAU1@V?$allocator@UNewShopPullDownItem@@@std@@U1@@std@@YAPAUNewShopPullDownItem@@PAU1@00AAV?$allocator@UNewShopPullDownItem@@@0@0U_Nonscalar_ptr_iterator_tag@0@@Z DD 019930522H
	DD	02H
	DD	FLAT:__unwindtable$??$_Uninit_move@PAUNewShopPullDownItem@@PAU1@V?$allocator@UNewShopPullDownItem@@@std@@U1@@std@@YAPAUNewShopPullDownItem@@PAU1@00AAV?$allocator@UNewShopPullDownItem@@@0@0U_Nonscalar_ptr_iterator_tag@0@@Z
	DD	01H
	DD	FLAT:__tryblocktable$??$_Uninit_move@PAUNewShopPullDownItem@@PAU1@V?$allocator@UNewShopPullDownItem@@@std@@U1@@std@@YAPAUNewShopPullDownItem@@PAU1@00AAV?$allocator@UNewShopPullDownItem@@@0@0U_Nonscalar_ptr_iterator_tag@0@@Z
	DD	2 DUP(00H)
	DD	00H
	DD	01H
; Function compile flags: /Ogsp
; File c:\program files (x86)\microsoft visual studio 10.0\vc\include\memory
xdata$x	ENDS
;	COMDAT ??$_Uninit_move@PAUNewShopPullDownItem@@PAU1@V?$allocator@UNewShopPullDownItem@@@std@@U1@@std@@YAPAUNewShopPullDownItem@@PAU1@00AAV?$allocator@UNewShopPullDownItem@@@0@0U_Nonscalar_ptr_iterator_tag@0@@Z
_TEXT	SEGMENT
__Next$ = -20						; size = 4
__$EHRec$ = -16						; size = 16
__First$ = 8						; size = 4
__Last$ = 12						; size = 4
__Dest$ = 16						; size = 4
__Al$ = 20						; size = 4
___formal$ = 24						; size = 4
___formal$ = 28						; size = 1
??$_Uninit_move@PAUNewShopPullDownItem@@PAU1@V?$allocator@UNewShopPullDownItem@@@std@@U1@@std@@YAPAUNewShopPullDownItem@@PAU1@00AAV?$allocator@UNewShopPullDownItem@@@0@0U_Nonscalar_ptr_iterator_tag@0@@Z PROC ; std::_Uninit_move<NewShopPullDownItem *,NewShopPullDownItem *,std::allocator<NewShopPullDownItem>,NewShopPullDownItem>, COMDAT

; 424  : 	{	// move [_First, _Last) to raw _Dest, using _Al, arbitrary type

  00000	6a 08		 push	 8
  00002	b8 00 00 00 00	 mov	 eax, __ehhandler$??$_Uninit_move@PAUNewShopPullDownItem@@PAU1@V?$allocator@UNewShopPullDownItem@@@std@@U1@@std@@YAPAUNewShopPullDownItem@@PAU1@00AAV?$allocator@UNewShopPullDownItem@@@0@0U_Nonscalar_ptr_iterator_tag@0@@Z
  00007	e8 00 00 00 00	 call	 __EH_prolog3_catch

; 425  : 	_DEBUG_RANGE(_First, _Last);
; 426  : 	_DEBUG_POINTER(_Dest);
; 427  : 	_FwdIt _Next = _Dest;

  0000c	8b 45 10	 mov	 eax, DWORD PTR __Dest$[ebp]

; 428  : 
; 429  : 	_TRY_BEGIN

  0000f	83 65 fc 00	 and	 DWORD PTR __$EHRec$[ebp+12], 0
  00013	8b 75 08	 mov	 esi, DWORD PTR __First$[ebp]
  00016	89 45 ec	 mov	 DWORD PTR __Next$[ebp], eax
$LL6@Uninit_mov@2:

; 430  : 	for (; _First != _Last; ++_Dest, ++_First)

  00019	3b 75 0c	 cmp	 esi, DWORD PTR __Last$[ebp]
  0001c	74 35		 je	 SHORT $LN4@Uninit_mov@2

; 431  : 		_Cons_val(_Al, _Dest, (_Valty &&)*_First);

  0001e	56		 push	 esi
  0001f	ff 75 10	 push	 DWORD PTR __Dest$[ebp]
  00022	ff 75 14	 push	 DWORD PTR __Al$[ebp]
  00025	e8 00 00 00 00	 call	 ??$_Cons_val@V?$allocator@UNewShopPullDownItem@@@std@@UNewShopPullDownItem@@U3@@std@@YAXAAV?$allocator@UNewShopPullDownItem@@@0@PAUNewShopPullDownItem@@$$QAU2@@Z ; std::_Cons_val<std::allocator<NewShopPullDownItem>,NewShopPullDownItem,NewShopPullDownItem>
  0002a	83 45 10 50	 add	 DWORD PTR __Dest$[ebp], 80 ; 00000050H
  0002e	83 c4 0c	 add	 esp, 12			; 0000000cH
  00031	83 c6 50	 add	 esi, 80			; 00000050H
  00034	eb e3		 jmp	 SHORT $LL6@Uninit_mov@2
__catch$??$_Uninit_move@PAUNewShopPullDownItem@@PAU1@V?$allocator@UNewShopPullDownItem@@@std@@U1@@std@@YAPAUNewShopPullDownItem@@PAU1@00AAV?$allocator@UNewShopPullDownItem@@@0@0U_Nonscalar_ptr_iterator_tag@0@@Z$0:

; 432  : 	_CATCH_ALL
; 433  : 	for (; _Next != _Dest; ++_Next)

  00036	8b 75 ec	 mov	 esi, DWORD PTR __Next$[ebp]
  00039	eb 0a		 jmp	 SHORT $LN29@Uninit_mov@2
$LL3@Uninit_mov@2:

; 434  : 		_Dest_val(_Al, _Next);

  0003b	8b ce		 mov	 ecx, esi
  0003d	e8 00 00 00 00	 call	 ??1NewShopPullDownItem@@QAE@XZ
  00042	83 c6 50	 add	 esi, 80			; 00000050H
$LN29@Uninit_mov@2:

; 432  : 	_CATCH_ALL
; 433  : 	for (; _Next != _Dest; ++_Next)

  00045	3b 75 10	 cmp	 esi, DWORD PTR __Dest$[ebp]
  00048	75 f1		 jne	 SHORT $LL3@Uninit_mov@2

; 435  : 	_RERAISE;

  0004a	6a 00		 push	 0
  0004c	6a 00		 push	 0
  0004e	e8 00 00 00 00	 call	 __CxxThrowException@8
$LN30@Uninit_mov@2:
$LN4@Uninit_mov@2:

; 436  : 	_CATCH_END
; 437  : 	return (_Dest);

  00053	8b 45 10	 mov	 eax, DWORD PTR __Dest$[ebp]

; 438  : 	}

  00056	e8 00 00 00 00	 call	 __EH_epilog3
  0005b	c3		 ret	 0
$LN28@Uninit_mov@2:
_TEXT	ENDS
;	COMDAT text$x
text$x	SEGMENT
__ehhandler$??$_Uninit_move@PAUNewShopPullDownItem@@PAU1@V?$allocator@UNewShopPullDownItem@@@std@@U1@@std@@YAPAUNewShopPullDownItem@@PAU1@00AAV?$allocator@UNewShopPullDownItem@@@0@0U_Nonscalar_ptr_iterator_tag@0@@Z:
  00000	8b 54 24 08	 mov	 edx, DWORD PTR [esp+8]
  00004	8d 42 0c	 lea	 eax, DWORD PTR [edx+12]
  00007	8b 4a e8	 mov	 ecx, DWORD PTR [edx-24]
  0000a	33 c8		 xor	 ecx, eax
  0000c	e8 00 00 00 00	 call	 @__security_check_cookie@4
  00011	b8 00 00 00 00	 mov	 eax, OFFSET __ehfuncinfo$??$_Uninit_move@PAUNewShopPullDownItem@@PAU1@V?$allocator@UNewShopPullDownItem@@@std@@U1@@std@@YAPAUNewShopPullDownItem@@PAU1@00AAV?$allocator@UNewShopPullDownItem@@@0@0U_Nonscalar_ptr_iterator_tag@0@@Z
  00016	e9 00 00 00 00	 jmp	 ___CxxFrameHandler3
text$x	ENDS
??$_Uninit_move@PAUNewShopPullDownItem@@PAU1@V?$allocator@UNewShopPullDownItem@@@std@@U1@@std@@YAPAUNewShopPullDownItem@@PAU1@00AAV?$allocator@UNewShopPullDownItem@@@0@0U_Nonscalar_ptr_iterator_tag@0@@Z ENDP ; std::_Uninit_move<NewShopPullDownItem *,NewShopPullDownItem *,std::allocator<NewShopPullDownItem>,NewShopPullDownItem>
PUBLIC	??$_Sort_heap@PAUNewShopPullDownItem@@VSoldierSort@InvenFourExtraCompoundBuyWnd@@@std@@YAXPAUNewShopPullDownItem@@0VSoldierSort@InvenFourExtraCompoundBuyWnd@@@Z ; std::_Sort_heap<NewShopPullDownItem *,InvenFourExtraCompoundBuyWnd::SoldierSort>
; Function compile flags: /Ogsp
; File c:\program files (x86)\microsoft visual studio 10.0\vc\include\algorithm
;	COMDAT ??$_Sort_heap@PAUNewShopPullDownItem@@VSoldierSort@InvenFourExtraCompoundBuyWnd@@@std@@YAXPAUNewShopPullDownItem@@0VSoldierSort@InvenFourExtraCompoundBuyWnd@@@Z
_TEXT	SEGMENT
__First$ = 8						; size = 4
__Last$ = 12						; size = 4
__Pred$ = 16						; size = 1
??$_Sort_heap@PAUNewShopPullDownItem@@VSoldierSort@InvenFourExtraCompoundBuyWnd@@@std@@YAXPAUNewShopPullDownItem@@0VSoldierSort@InvenFourExtraCompoundBuyWnd@@@Z PROC ; std::_Sort_heap<NewShopPullDownItem *,InvenFourExtraCompoundBuyWnd::SoldierSort>, COMDAT

; 2700 : 	{	// order heap by repeatedly popping, using _Pred

  00000	55		 push	 ebp
  00001	8b ec		 mov	 ebp, esp

; 2701 : 	for (; 1 < _Last - _First; --_Last)

  00003	8b 4d 0c	 mov	 ecx, DWORD PTR __Last$[ebp]
  00006	2b 4d 08	 sub	 ecx, DWORD PTR __First$[ebp]
  00009	57		 push	 edi
  0000a	8b c1		 mov	 eax, ecx
  0000c	6a 50		 push	 80			; 00000050H
  0000e	99		 cdq
  0000f	5f		 pop	 edi
  00010	f7 ff		 idiv	 edi
  00012	83 f8 01	 cmp	 eax, 1
  00015	7e 29		 jle	 SHORT $LN1@Sort_heap
  00017	8b f9		 mov	 edi, ecx
$LL3@Sort_heap:

; 2702 : 		_Pop_heap(_First, _Last, _Pred);

  00019	6a 00		 push	 0
  0001b	ff 75 10	 push	 DWORD PTR __Pred$[ebp]
  0001e	ff 75 0c	 push	 DWORD PTR __Last$[ebp]
  00021	ff 75 08	 push	 DWORD PTR __First$[ebp]
  00024	e8 00 00 00 00	 call	 ??$_Pop_heap_0@PAUNewShopPullDownItem@@U1@VSoldierSort@InvenFourExtraCompoundBuyWnd@@@std@@YAXPAUNewShopPullDownItem@@0VSoldierSort@InvenFourExtraCompoundBuyWnd@@0@Z ; std::_Pop_heap_0<NewShopPullDownItem *,NewShopPullDownItem,InvenFourExtraCompoundBuyWnd::SoldierSort>
  00029	83 c4 10	 add	 esp, 16			; 00000010H
  0002c	83 ef 50	 sub	 edi, 80			; 00000050H
  0002f	8b c7		 mov	 eax, edi
  00031	6a 50		 push	 80			; 00000050H
  00033	99		 cdq
  00034	59		 pop	 ecx
  00035	f7 f9		 idiv	 ecx
  00037	83 6d 0c 50	 sub	 DWORD PTR __Last$[ebp], 80 ; 00000050H
  0003b	83 f8 01	 cmp	 eax, 1
  0003e	7f d9		 jg	 SHORT $LL3@Sort_heap
$LN1@Sort_heap:
  00040	5f		 pop	 edi

; 2703 : 	}

  00041	5d		 pop	 ebp
  00042	c3		 ret	 0
??$_Sort_heap@PAUNewShopPullDownItem@@VSoldierSort@InvenFourExtraCompoundBuyWnd@@@std@@YAXPAUNewShopPullDownItem@@0VSoldierSort@InvenFourExtraCompoundBuyWnd@@@Z ENDP ; std::_Sort_heap<NewShopPullDownItem *,InvenFourExtraCompoundBuyWnd::SoldierSort>
_TEXT	ENDS
PUBLIC	??1?$vector@HV?$allocator@H@std@@@std@@QAE@XZ	; std::vector<int,std::allocator<int> >::~vector<int,std::allocator<int> >
; Function compile flags: /Ogsp
; File c:\program files (x86)\microsoft visual studio 10.0\vc\include\vector
;	COMDAT ??1?$vector@HV?$allocator@H@std@@@std@@QAE@XZ
_TEXT	SEGMENT
??1?$vector@HV?$allocator@H@std@@@std@@QAE@XZ PROC	; std::vector<int,std::allocator<int> >::~vector<int,std::allocator<int> >, COMDAT
; _this$ = ecx

; 705  : 		_Tidy();

  00000	e9 00 00 00 00	 jmp	 ?_Tidy@?$vector@HV?$allocator@H@std@@@std@@IAEXXZ ; std::vector<int,std::allocator<int> >::_Tidy
??1?$vector@HV?$allocator@H@std@@@std@@QAE@XZ ENDP	; std::vector<int,std::allocator<int> >::~vector<int,std::allocator<int> >
_TEXT	ENDS
PUBLIC	?_Reserve@?$vector@HV?$allocator@H@std@@@std@@IAEXI@Z ; std::vector<int,std::allocator<int> >::_Reserve
; Function compile flags: /Ogsp
;	COMDAT ?_Reserve@?$vector@HV?$allocator@H@std@@@std@@IAEXI@Z
_TEXT	SEGMENT
__Count$ = 8						; size = 4
?_Reserve@?$vector@HV?$allocator@H@std@@@std@@IAEXI@Z PROC ; std::vector<int,std::allocator<int> >::_Reserve, COMDAT
; _this$ = ecx

; 1290 : 		{	// ensure room for _Count new elements, grow exponentially

  00000	55		 push	 ebp
  00001	8b ec		 mov	 ebp, esp
  00003	56		 push	 esi
  00004	8b f1		 mov	 esi, ecx

; 1291 : 		size_type _Size = size();

  00006	8b 0e		 mov	 ecx, DWORD PTR [esi]
  00008	8b 46 04	 mov	 eax, DWORD PTR [esi+4]
  0000b	2b c1		 sub	 eax, ecx

; 1292 : 		if (max_size() - _Count < _Size)

  0000d	ba ff ff ff 3f	 mov	 edx, 1073741823		; 3fffffffH
  00012	2b 55 08	 sub	 edx, DWORD PTR __Count$[ebp]
  00015	c1 f8 02	 sar	 eax, 2
  00018	3b d0		 cmp	 edx, eax
  0001a	73 0b		 jae	 SHORT $LN4@Reserve

; 1293 : 			_Xlen();

  0001c	68 00 00 00 00	 push	 OFFSET ??_C@_0BD@OLBABOEK@vector?$DMT?$DO?5too?5long?$AA@
  00021	ff 15 00 00 00
	00		 call	 DWORD PTR __imp_?_Xlength_error@std@@YAXPBD@Z
$LN21@Reserve:
$LN4@Reserve:

; 1294 : 		else if ((_Size += _Count) <= capacity())

  00027	8b 56 08	 mov	 edx, DWORD PTR [esi+8]
  0002a	03 45 08	 add	 eax, DWORD PTR __Count$[ebp]
  0002d	2b d1		 sub	 edx, ecx
  0002f	c1 fa 02	 sar	 edx, 2
  00032	3b c2		 cmp	 eax, edx
  00034	76 10		 jbe	 SHORT $LN1@Reserve

; 1295 : 			;
; 1296 : 		else
; 1297 : 			reserve(_Grow_to(_Size));

  00036	50		 push	 eax
  00037	8b ce		 mov	 ecx, esi
  00039	e8 00 00 00 00	 call	 ?_Grow_to@?$vector@HV?$allocator@H@std@@@std@@IBEII@Z ; std::vector<int,std::allocator<int> >::_Grow_to
  0003e	50		 push	 eax
  0003f	8b ce		 mov	 ecx, esi
  00041	e8 00 00 00 00	 call	 ?reserve@?$vector@HV?$allocator@H@std@@@std@@QAEXI@Z ; std::vector<int,std::allocator<int> >::reserve
$LN1@Reserve:
  00046	5e		 pop	 esi

; 1298 : 		}

  00047	5d		 pop	 ebp
  00048	c2 04 00	 ret	 4
$LN20@Reserve:
?_Reserve@?$vector@HV?$allocator@H@std@@@std@@IAEXI@Z ENDP ; std::vector<int,std::allocator<int> >::_Reserve
_TEXT	ENDS
PUBLIC	??$_Destroy_range@V?$allocator@VioHashString@@@std@@@std@@YAXPAVioHashString@@0AAV?$allocator@VioHashString@@@0@U_Nonscalar_ptr_iterator_tag@0@@Z ; std::_Destroy_range<std::allocator<ioHashString> >
; Function compile flags: /Ogsp
; File c:\program files (x86)\microsoft visual studio 10.0\vc\include\xmemory
;	COMDAT ??$_Destroy_range@V?$allocator@VioHashString@@@std@@@std@@YAXPAVioHashString@@0AAV?$allocator@VioHashString@@@0@U_Nonscalar_ptr_iterator_tag@0@@Z
_TEXT	SEGMENT
__First$ = 8						; size = 4
__Last$ = 12						; size = 4
__Al$ = 16						; size = 4
___formal$ = 20						; size = 1
??$_Destroy_range@V?$allocator@VioHashString@@@std@@@std@@YAXPAVioHashString@@0AAV?$allocator@VioHashString@@@0@U_Nonscalar_ptr_iterator_tag@0@@Z PROC ; std::_Destroy_range<std::allocator<ioHashString> >, COMDAT

; 95   : 	{	// destroy [_First, _Last), arbitrary type

  00000	55		 push	 ebp
  00001	8b ec		 mov	 ebp, esp
  00003	56		 push	 esi

; 96   : 	for (; _First != _Last; ++_First)

  00004	8b 75 08	 mov	 esi, DWORD PTR __First$[ebp]
  00007	eb 0b		 jmp	 SHORT $LN17@Destroy_ra@2
$LL3@Destroy_ra@2:

; 97   : 		_Dest_val(_Al, _First);

  00009	8b ce		 mov	 ecx, esi
  0000b	ff 15 00 00 00
	00		 call	 DWORD PTR __imp_??1ioHashString@@QAE@XZ
  00011	83 c6 10	 add	 esi, 16			; 00000010H
$LN17@Destroy_ra@2:

; 96   : 	for (; _First != _Last; ++_First)

  00014	3b 75 0c	 cmp	 esi, DWORD PTR __Last$[ebp]
  00017	75 f0		 jne	 SHORT $LL3@Destroy_ra@2
  00019	5e		 pop	 esi

; 98   : 	}

  0001a	5d		 pop	 ebp
  0001b	c3		 ret	 0
??$_Destroy_range@V?$allocator@VioHashString@@@std@@@std@@YAXPAVioHashString@@0AAV?$allocator@VioHashString@@@0@U_Nonscalar_ptr_iterator_tag@0@@Z ENDP ; std::_Destroy_range<std::allocator<ioHashString> >
_TEXT	ENDS
PUBLIC	?push_back@?$vector@HV?$allocator@H@std@@@std@@QAEX$$QAH@Z ; std::vector<int,std::allocator<int> >::push_back
; Function compile flags: /Ogsp
; File c:\program files (x86)\microsoft visual studio 10.0\vc\include\vector
;	COMDAT ?push_back@?$vector@HV?$allocator@H@std@@@std@@QAEX$$QAH@Z
_TEXT	SEGMENT
__Val$ = 8						; size = 4
?push_back@?$vector@HV?$allocator@H@std@@@std@@QAEX$$QAH@Z PROC ; std::vector<int,std::allocator<int> >::push_back, COMDAT
; _this$ = ecx

; 631  : 		{	// insert element at end

  00000	55		 push	 ebp
  00001	8b ec		 mov	 ebp, esp
  00003	56		 push	 esi
  00004	8b f1		 mov	 esi, ecx

; 632  : 		if (_Inside(_STD addressof(_Val)))

  00006	8b 46 04	 mov	 eax, DWORD PTR [esi+4]
  00009	57		 push	 edi
  0000a	8b 7d 08	 mov	 edi, DWORD PTR __Val$[ebp]
  0000d	3b f8		 cmp	 edi, eax
  0000f	73 27		 jae	 SHORT $LN4@push_back
  00011	8b 0e		 mov	 ecx, DWORD PTR [esi]
  00013	3b cf		 cmp	 ecx, edi
  00015	77 21		 ja	 SHORT $LN4@push_back

; 633  : 			{	// push back an element
; 634  : 			size_type _Idx = _STD addressof(_Val) - this->_Myfirst;

  00017	2b f9		 sub	 edi, ecx
  00019	c1 ff 02	 sar	 edi, 2

; 635  : 			if (this->_Mylast == this->_Myend)

  0001c	3b 46 08	 cmp	 eax, DWORD PTR [esi+8]
  0001f	75 09		 jne	 SHORT $LN3@push_back

; 636  : 				_Reserve(1);

  00021	6a 01		 push	 1
  00023	8b ce		 mov	 ecx, esi
  00025	e8 00 00 00 00	 call	 ?_Reserve@?$vector@HV?$allocator@H@std@@@std@@IAEXI@Z ; std::vector<int,std::allocator<int> >::_Reserve
$LN3@push_back:

; 637  : 			_Orphan_range(this->_Mylast, this->_Mylast);
; 638  : 			_Cons_val(this->_Alval,
; 639  : 				this->_Mylast,
; 640  : 				_STD forward<_Ty>(this->_Myfirst[_Idx]));

  0002a	8b 46 04	 mov	 eax, DWORD PTR [esi+4]
  0002d	85 c0		 test	 eax, eax
  0002f	74 20		 je	 SHORT $LN41@push_back
  00031	8b 0e		 mov	 ecx, DWORD PTR [esi]
  00033	8b 0c b9	 mov	 ecx, DWORD PTR [ecx+edi*4]

; 641  : 			++this->_Mylast;
; 642  : 			}
; 643  : 		else

  00036	eb 17		 jmp	 SHORT $LN48@push_back
$LN4@push_back:

; 644  : 			{	// push back a non-element
; 645  : 			if (this->_Mylast == this->_Myend)

  00038	3b 46 08	 cmp	 eax, DWORD PTR [esi+8]
  0003b	75 09		 jne	 SHORT $LN1@push_back

; 646  : 				_Reserve(1);

  0003d	6a 01		 push	 1
  0003f	8b ce		 mov	 ecx, esi
  00041	e8 00 00 00 00	 call	 ?_Reserve@?$vector@HV?$allocator@H@std@@@std@@IAEXI@Z ; std::vector<int,std::allocator<int> >::_Reserve
$LN1@push_back:

; 647  : 			_Orphan_range(this->_Mylast, this->_Mylast);
; 648  : 			_Cons_val(this->_Alval,
; 649  : 				this->_Mylast,
; 650  : 				_STD forward<_Ty>(_Val));

  00046	8b 46 04	 mov	 eax, DWORD PTR [esi+4]
  00049	85 c0		 test	 eax, eax
  0004b	74 04		 je	 SHORT $LN41@push_back
  0004d	8b 0f		 mov	 ecx, DWORD PTR [edi]
$LN48@push_back:
  0004f	89 08		 mov	 DWORD PTR [eax], ecx
$LN41@push_back:

; 651  : 			++this->_Mylast;

  00051	83 46 04 04	 add	 DWORD PTR [esi+4], 4
  00055	5f		 pop	 edi
  00056	5e		 pop	 esi

; 652  : 			}
; 653  : 		}

  00057	5d		 pop	 ebp
  00058	c2 04 00	 ret	 4
?push_back@?$vector@HV?$allocator@H@std@@@std@@QAEX$$QAH@Z ENDP ; std::vector<int,std::allocator<int> >::push_back
_TEXT	ENDS
PUBLIC	??$_Destroy_range@V?$allocator@UNewShopPullDownItem@@@std@@@std@@YAXPAUNewShopPullDownItem@@0AAV?$allocator@UNewShopPullDownItem@@@0@@Z ; std::_Destroy_range<std::allocator<NewShopPullDownItem> >
; Function compile flags: /Ogsp
; File c:\program files (x86)\microsoft visual studio 10.0\vc\include\xmemory
;	COMDAT ??$_Destroy_range@V?$allocator@UNewShopPullDownItem@@@std@@@std@@YAXPAUNewShopPullDownItem@@0AAV?$allocator@UNewShopPullDownItem@@@0@@Z
_TEXT	SEGMENT
__First$ = 8						; size = 4
__Last$ = 12						; size = 4
__Al$ = 16						; size = 4
??$_Destroy_range@V?$allocator@UNewShopPullDownItem@@@std@@@std@@YAXPAUNewShopPullDownItem@@0AAV?$allocator@UNewShopPullDownItem@@@0@@Z PROC ; std::_Destroy_range<std::allocator<NewShopPullDownItem> >, COMDAT

; 87   : 	{	// destroy [_First, _Last)

  00000	55		 push	 ebp
  00001	8b ec		 mov	 ebp, esp
  00003	56		 push	 esi

; 88   : 	_Destroy_range(_First, _Last, _Al, _Ptr_cat(_First, _Last));

  00004	8b 75 08	 mov	 esi, DWORD PTR __First$[ebp]
  00007	eb 0a		 jmp	 SHORT $LN21@Destroy_ra@3
$LL7@Destroy_ra@3:
  00009	8b ce		 mov	 ecx, esi
  0000b	e8 00 00 00 00	 call	 ??1NewShopPullDownItem@@QAE@XZ
  00010	83 c6 50	 add	 esi, 80			; 00000050H
$LN21@Destroy_ra@3:
  00013	3b 75 0c	 cmp	 esi, DWORD PTR __Last$[ebp]
  00016	75 f1		 jne	 SHORT $LL7@Destroy_ra@3
  00018	5e		 pop	 esi

; 89   : 	}

  00019	5d		 pop	 ebp
  0001a	c3		 ret	 0
??$_Destroy_range@V?$allocator@UNewShopPullDownItem@@@std@@@std@@YAXPAUNewShopPullDownItem@@0AAV?$allocator@UNewShopPullDownItem@@@0@@Z ENDP ; std::_Destroy_range<std::allocator<NewShopPullDownItem> >
_TEXT	ENDS
PUBLIC	??$_Uninitialized_move@PAVioHashString@@PAV1@V?$allocator@VioHashString@@@std@@@std@@YAPAVioHashString@@PAV1@00AAV?$allocator@VioHashString@@@0@@Z ; std::_Uninitialized_move<ioHashString *,ioHashString *,std::allocator<ioHashString> >
; Function compile flags: /Ogsp
; File c:\program files (x86)\microsoft visual studio 10.0\vc\include\memory
;	COMDAT ??$_Uninitialized_move@PAVioHashString@@PAV1@V?$allocator@VioHashString@@@std@@@std@@YAPAVioHashString@@PAV1@00AAV?$allocator@VioHashString@@@0@@Z
_TEXT	SEGMENT
__Cat$518255 = -4					; size = 1
__First$ = 8						; size = 4
__Last$ = 12						; size = 4
__Dest$ = 16						; size = 4
__Al$ = 20						; size = 4
??$_Uninitialized_move@PAVioHashString@@PAV1@V?$allocator@VioHashString@@@std@@@std@@YAPAVioHashString@@PAV1@00AAV?$allocator@VioHashString@@@0@@Z PROC ; std::_Uninitialized_move<ioHashString *,ioHashString *,std::allocator<ioHashString> >, COMDAT

; 469  : 	{	// move [_First, _Last) to raw _Dest, using _Al

  00000	55		 push	 ebp
  00001	8b ec		 mov	 ebp, esp
  00003	51		 push	 ecx

; 470  : 	return (_Uninit_move(_First, _Last, _Dest, _Al,
; 471  : 		_Val_type(_First), _Ptr_cat(_First, _Dest)));

  00004	ff 75 fc	 push	 DWORD PTR __Cat$518255[ebp]
  00007	6a 00		 push	 0
  00009	ff 75 14	 push	 DWORD PTR __Al$[ebp]
  0000c	ff 75 10	 push	 DWORD PTR __Dest$[ebp]
  0000f	ff 75 0c	 push	 DWORD PTR __Last$[ebp]
  00012	ff 75 08	 push	 DWORD PTR __First$[ebp]
  00015	e8 00 00 00 00	 call	 ??$_Uninit_move@PAVioHashString@@PAV1@V?$allocator@VioHashString@@@std@@V1@@std@@YAPAVioHashString@@PAV1@00AAV?$allocator@VioHashString@@@0@0U_Nonscalar_ptr_iterator_tag@0@@Z ; std::_Uninit_move<ioHashString *,ioHashString *,std::allocator<ioHashString>,ioHashString>
  0001a	83 c4 18	 add	 esp, 24			; 00000018H

; 472  : 	}

  0001d	c9		 leave
  0001e	c3		 ret	 0
??$_Uninitialized_move@PAVioHashString@@PAV1@V?$allocator@VioHashString@@@std@@@std@@YAPAVioHashString@@PAV1@00AAV?$allocator@VioHashString@@@0@@Z ENDP ; std::_Uninitialized_move<ioHashString *,ioHashString *,std::allocator<ioHashString> >
_TEXT	ENDS
PUBLIC	??$_Uninitialized_move@PAUNewShopPullDownItem@@PAU1@V?$allocator@UNewShopPullDownItem@@@std@@@std@@YAPAUNewShopPullDownItem@@PAU1@00AAV?$allocator@UNewShopPullDownItem@@@0@@Z ; std::_Uninitialized_move<NewShopPullDownItem *,NewShopPullDownItem *,std::allocator<NewShopPullDownItem> >
; Function compile flags: /Ogsp
;	COMDAT ??$_Uninitialized_move@PAUNewShopPullDownItem@@PAU1@V?$allocator@UNewShopPullDownItem@@@std@@@std@@YAPAUNewShopPullDownItem@@PAU1@00AAV?$allocator@UNewShopPullDownItem@@@0@@Z
_TEXT	SEGMENT
__Cat$518264 = -4					; size = 1
__First$ = 8						; size = 4
__Last$ = 12						; size = 4
__Dest$ = 16						; size = 4
__Al$ = 20						; size = 4
??$_Uninitialized_move@PAUNewShopPullDownItem@@PAU1@V?$allocator@UNewShopPullDownItem@@@std@@@std@@YAPAUNewShopPullDownItem@@PAU1@00AAV?$allocator@UNewShopPullDownItem@@@0@@Z PROC ; std::_Uninitialized_move<NewShopPullDownItem *,NewShopPullDownItem *,std::allocator<NewShopPullDownItem> >, COMDAT

; 469  : 	{	// move [_First, _Last) to raw _Dest, using _Al

  00000	55		 push	 ebp
  00001	8b ec		 mov	 ebp, esp
  00003	51		 push	 ecx

; 470  : 	return (_Uninit_move(_First, _Last, _Dest, _Al,
; 471  : 		_Val_type(_First), _Ptr_cat(_First, _Dest)));

  00004	ff 75 fc	 push	 DWORD PTR __Cat$518264[ebp]
  00007	6a 00		 push	 0
  00009	ff 75 14	 push	 DWORD PTR __Al$[ebp]
  0000c	ff 75 10	 push	 DWORD PTR __Dest$[ebp]
  0000f	ff 75 0c	 push	 DWORD PTR __Last$[ebp]
  00012	ff 75 08	 push	 DWORD PTR __First$[ebp]
  00015	e8 00 00 00 00	 call	 ??$_Uninit_move@PAUNewShopPullDownItem@@PAU1@V?$allocator@UNewShopPullDownItem@@@std@@U1@@std@@YAPAUNewShopPullDownItem@@PAU1@00AAV?$allocator@UNewShopPullDownItem@@@0@0U_Nonscalar_ptr_iterator_tag@0@@Z ; std::_Uninit_move<NewShopPullDownItem *,NewShopPullDownItem *,std::allocator<NewShopPullDownItem>,NewShopPullDownItem>
  0001a	83 c4 18	 add	 esp, 24			; 00000018H

; 472  : 	}

  0001d	c9		 leave
  0001e	c3		 ret	 0
??$_Uninitialized_move@PAUNewShopPullDownItem@@PAU1@V?$allocator@UNewShopPullDownItem@@@std@@@std@@YAPAUNewShopPullDownItem@@PAU1@00AAV?$allocator@UNewShopPullDownItem@@@0@@Z ENDP ; std::_Uninitialized_move<NewShopPullDownItem *,NewShopPullDownItem *,std::allocator<NewShopPullDownItem> >
_TEXT	ENDS
PUBLIC	??$sort_heap@PAUNewShopPullDownItem@@VSoldierSort@InvenFourExtraCompoundBuyWnd@@@std@@YAXPAUNewShopPullDownItem@@0VSoldierSort@InvenFourExtraCompoundBuyWnd@@@Z ; std::sort_heap<NewShopPullDownItem *,InvenFourExtraCompoundBuyWnd::SoldierSort>
; Function compile flags: /Ogsp
; File c:\program files (x86)\microsoft visual studio 10.0\vc\include\algorithm
;	COMDAT ??$sort_heap@PAUNewShopPullDownItem@@VSoldierSort@InvenFourExtraCompoundBuyWnd@@@std@@YAXPAUNewShopPullDownItem@@0VSoldierSort@InvenFourExtraCompoundBuyWnd@@@Z
_TEXT	SEGMENT
__First$ = 8						; size = 4
__Last$ = 12						; size = 4
__Pred$ = 16						; size = 1
??$sort_heap@PAUNewShopPullDownItem@@VSoldierSort@InvenFourExtraCompoundBuyWnd@@@std@@YAXPAUNewShopPullDownItem@@0VSoldierSort@InvenFourExtraCompoundBuyWnd@@@Z PROC ; std::sort_heap<NewShopPullDownItem *,InvenFourExtraCompoundBuyWnd::SoldierSort>, COMDAT

; 2708 : 	{	// order heap by repeatedly popping, using _Pred

  00000	55		 push	 ebp
  00001	8b ec		 mov	 ebp, esp

; 2709 : 	_DEBUG_RANGE(_First, _Last);
; 2710 : 	_DEBUG_POINTER(_Pred);
; 2711 : 	_DEBUG_HEAP_PRED(_First, _Last, _Pred);
; 2712 : 	_Sort_heap(_Unchecked(_First), _Unchecked(_Last), _Pred);

  00003	ff 75 10	 push	 DWORD PTR __Pred$[ebp]
  00006	ff 75 0c	 push	 DWORD PTR __Last$[ebp]
  00009	ff 75 08	 push	 DWORD PTR __First$[ebp]
  0000c	e8 00 00 00 00	 call	 ??$_Sort_heap@PAUNewShopPullDownItem@@VSoldierSort@InvenFourExtraCompoundBuyWnd@@@std@@YAXPAUNewShopPullDownItem@@0VSoldierSort@InvenFourExtraCompoundBuyWnd@@@Z ; std::_Sort_heap<NewShopPullDownItem *,InvenFourExtraCompoundBuyWnd::SoldierSort>
  00011	83 c4 0c	 add	 esp, 12			; 0000000cH

; 2713 : 	}

  00014	5d		 pop	 ebp
  00015	c3		 ret	 0
??$sort_heap@PAUNewShopPullDownItem@@VSoldierSort@InvenFourExtraCompoundBuyWnd@@@std@@YAXPAUNewShopPullDownItem@@0VSoldierSort@InvenFourExtraCompoundBuyWnd@@@Z ENDP ; std::sort_heap<NewShopPullDownItem *,InvenFourExtraCompoundBuyWnd::SoldierSort>
_TEXT	ENDS
PUBLIC	??$_Destroy_range@V?$allocator@VioHashString@@@std@@@std@@YAXPAVioHashString@@0AAV?$allocator@VioHashString@@@0@@Z ; std::_Destroy_range<std::allocator<ioHashString> >
; Function compile flags: /Ogsp
; File c:\program files (x86)\microsoft visual studio 10.0\vc\include\xmemory
;	COMDAT ??$_Destroy_range@V?$allocator@VioHashString@@@std@@@std@@YAXPAVioHashString@@0AAV?$allocator@VioHashString@@@0@@Z
_TEXT	SEGMENT
__First$ = 8						; size = 4
__Last$ = 12						; size = 4
__Al$ = 16						; size = 4
??$_Destroy_range@V?$allocator@VioHashString@@@std@@@std@@YAXPAVioHashString@@0AAV?$allocator@VioHashString@@@0@@Z PROC ; std::_Destroy_range<std::allocator<ioHashString> >, COMDAT

; 87   : 	{	// destroy [_First, _Last)

  00000	55		 push	 ebp
  00001	8b ec		 mov	 ebp, esp
  00003	56		 push	 esi

; 88   : 	_Destroy_range(_First, _Last, _Al, _Ptr_cat(_First, _Last));

  00004	8b 75 08	 mov	 esi, DWORD PTR __First$[ebp]
  00007	eb 0b		 jmp	 SHORT $LN21@Destroy_ra@4
$LL7@Destroy_ra@4:
  00009	8b ce		 mov	 ecx, esi
  0000b	ff 15 00 00 00
	00		 call	 DWORD PTR __imp_??1ioHashString@@QAE@XZ
  00011	83 c6 10	 add	 esi, 16			; 00000010H
$LN21@Destroy_ra@4:
  00014	3b 75 0c	 cmp	 esi, DWORD PTR __Last$[ebp]
  00017	75 f0		 jne	 SHORT $LL7@Destroy_ra@4
  00019	5e		 pop	 esi

; 89   : 	}

  0001a	5d		 pop	 ebp
  0001b	c3		 ret	 0
??$_Destroy_range@V?$allocator@VioHashString@@@std@@@std@@YAXPAVioHashString@@0AAV?$allocator@VioHashString@@@0@@Z ENDP ; std::_Destroy_range<std::allocator<ioHashString> >
_TEXT	ENDS
PUBLIC	?IsHaveAllExtra@InvenFourExtraCompoundBuyWnd@@IAE_NH@Z ; InvenFourExtraCompoundBuyWnd::IsHaveAllExtra
EXTRN	?GetExtraItemArray@ioUserExtraItem@@QAE_NHAAUEXTRAITEMSLOT@@@Z:PROC ; ioUserExtraItem::GetExtraItemArray
EXTRN	?GetExtraItemCnt@ioUserExtraItem@@QAEHXZ:PROC	; ioUserExtraItem::GetExtraItemCnt
;	COMDAT xdata$x
; File c:\program files (x86)\microsoft visual studio 10.0\vc\include\vector
xdata$x	SEGMENT
__unwindtable$?IsHaveAllExtra@InvenFourExtraCompoundBuyWnd@@IAE_NH@Z DD 0ffffffffH
	DD	FLAT:__unwindfunclet$?IsHaveAllExtra@InvenFourExtraCompoundBuyWnd@@IAE_NH@Z$0
	DD	00H
	DD	FLAT:__unwindfunclet$?IsHaveAllExtra@InvenFourExtraCompoundBuyWnd@@IAE_NH@Z$1
__ehfuncinfo$?IsHaveAllExtra@InvenFourExtraCompoundBuyWnd@@IAE_NH@Z DD 019930522H
	DD	02H
	DD	FLAT:__unwindtable$?IsHaveAllExtra@InvenFourExtraCompoundBuyWnd@@IAE_NH@Z
	DD	2 DUP(00H)
	DD	2 DUP(00H)
	DD	00H
	DD	01H
; Function compile flags: /Ogsp
; File d:\lost saga for developer\youtube\tutorial\source\src\lsclient\gui\invenfourextracompoundwnd.cpp
xdata$x	ENDS
;	COMDAT ?IsHaveAllExtra@InvenFourExtraCompoundBuyWnd@@IAE_NH@Z
_TEXT	SEGMENT
_kSlot$510134 = -108					; size = 72
_vExtraItemCode$ = -36					; size = 16
$T518341 = -20						; size = 4
_iSize$ = -16						; size = 4
__$EHRec$ = -12						; size = 12
_i$510130 = 8						; size = 4
$T518336 = 8						; size = 4
$T518335 = 8						; size = 4
$T518334 = 8						; size = 4
$T518333 = 8						; size = 4
_iClassType$ = 8					; size = 4
?IsHaveAllExtra@InvenFourExtraCompoundBuyWnd@@IAE_NH@Z PROC ; InvenFourExtraCompoundBuyWnd::IsHaveAllExtra, COMDAT
; _this$ = ecx

; 150  : {

  00000	6a 60		 push	 96			; 00000060H
  00002	b8 00 00 00 00	 mov	 eax, __ehhandler$?IsHaveAllExtra@InvenFourExtraCompoundBuyWnd@@IAE_NH@Z
  00007	e8 00 00 00 00	 call	 __EH_prolog3

; 151  : 	ioUserExtraItem *pItem = g_MyInfo.GetUserExtraItem();

  0000c	e8 00 00 00 00	 call	 ?GetSingleton@ioMyInfo@@SAAAV1@XZ ; ioMyInfo::GetSingleton
  00011	8d b8 ac 01 00
	00		 lea	 edi, DWORD PTR [eax+428]

; 152  : 	if( !pItem ) return false;

  00017	33 db		 xor	 ebx, ebx
  00019	3b fb		 cmp	 edi, ebx
  0001b	75 0a		 jne	 SHORT $LN13@IsHaveAllE
  0001d	32 c0		 xor	 al, al
$LN14@IsHaveAllE:

; 190  : 		return false;
; 191  : 
; 192  : 	return true;
; 193  : }

  0001f	e8 00 00 00 00	 call	 __EH_epilog3
  00024	c2 04 00	 ret	 4
$LN13@IsHaveAllE:

; 153  : 
; 154  : 	enum { MAX_EXTRA_ITEM = 4, };
; 155  : 	IntVec vExtraItemCode;

  00027	89 5d dc	 mov	 DWORD PTR _vExtraItemCode$[ebp], ebx
  0002a	89 5d e0	 mov	 DWORD PTR _vExtraItemCode$[ebp+4], ebx
  0002d	89 5d e4	 mov	 DWORD PTR _vExtraItemCode$[ebp+8], ebx

; 156  : 	vExtraItemCode.reserve( MAX_EXTRA_ITEM );

  00030	6a 04		 push	 4
  00032	8d 4d dc	 lea	 ecx, DWORD PTR _vExtraItemCode$[ebp]
  00035	89 5d fc	 mov	 DWORD PTR __$EHRec$[ebp+8], ebx
  00038	e8 00 00 00 00	 call	 ?reserve@?$vector@HV?$allocator@H@std@@@std@@QAEXI@Z ; std::vector<int,std::allocator<int> >::reserve

; 157  : 	vExtraItemCode.push_back(  10000+iClassType );

  0003d	8b 75 08	 mov	 esi, DWORD PTR _iClassType$[ebp]
  00040	8d 86 10 27 00
	00		 lea	 eax, DWORD PTR [esi+10000]
  00046	89 45 08	 mov	 DWORD PTR $T518333[ebp], eax
  00049	8d 45 08	 lea	 eax, DWORD PTR $T518333[ebp]
  0004c	50		 push	 eax
  0004d	8d 4d dc	 lea	 ecx, DWORD PTR _vExtraItemCode$[ebp]
  00050	e8 00 00 00 00	 call	 ?push_back@?$vector@HV?$allocator@H@std@@@std@@QAEX$$QAH@Z ; std::vector<int,std::allocator<int> >::push_back

; 158  : 	vExtraItemCode.push_back( 110000+iClassType );

  00055	8d 86 b0 ad 01
	00		 lea	 eax, DWORD PTR [esi+110000]
  0005b	89 45 08	 mov	 DWORD PTR $T518334[ebp], eax
  0005e	8d 45 08	 lea	 eax, DWORD PTR $T518334[ebp]
  00061	50		 push	 eax
  00062	8d 4d dc	 lea	 ecx, DWORD PTR _vExtraItemCode$[ebp]
  00065	e8 00 00 00 00	 call	 ?push_back@?$vector@HV?$allocator@H@std@@@std@@QAEX$$QAH@Z ; std::vector<int,std::allocator<int> >::push_back

; 159  : 	vExtraItemCode.push_back( 210000+iClassType );

  0006a	8d 86 50 34 03
	00		 lea	 eax, DWORD PTR [esi+210000]
  00070	89 45 08	 mov	 DWORD PTR $T518335[ebp], eax
  00073	8d 45 08	 lea	 eax, DWORD PTR $T518335[ebp]
  00076	50		 push	 eax
  00077	8d 4d dc	 lea	 ecx, DWORD PTR _vExtraItemCode$[ebp]
  0007a	e8 00 00 00 00	 call	 ?push_back@?$vector@HV?$allocator@H@std@@@std@@QAEX$$QAH@Z ; std::vector<int,std::allocator<int> >::push_back

; 160  : 	vExtraItemCode.push_back( 310000+iClassType );

  0007f	8d 45 08	 lea	 eax, DWORD PTR $T518336[ebp]
  00082	81 c6 f0 ba 04
	00		 add	 esi, 310000		; 0004baf0H
  00088	50		 push	 eax
  00089	8d 4d dc	 lea	 ecx, DWORD PTR _vExtraItemCode$[ebp]
  0008c	89 75 08	 mov	 DWORD PTR $T518336[ebp], esi
  0008f	e8 00 00 00 00	 call	 ?push_back@?$vector@HV?$allocator@H@std@@@std@@QAEX$$QAH@Z ; std::vector<int,std::allocator<int> >::push_back

; 161  : 
; 162  : 	int iSize = pItem->GetExtraItemCnt();

  00094	8b cf		 mov	 ecx, edi
  00096	e8 00 00 00 00	 call	 ?GetExtraItemCnt@ioUserExtraItem@@QAEHXZ ; ioUserExtraItem::GetExtraItemCnt
  0009b	89 45 f0	 mov	 DWORD PTR _iSize$[ebp], eax

; 163  : 	for( int i=0; i < iSize; i++ )

  0009e	89 5d 08	 mov	 DWORD PTR _i$510130[ebp], ebx
  000a1	3b c3		 cmp	 eax, ebx
  000a3	7e 73		 jle	 SHORT $LN10@IsHaveAllE
$LL12@IsHaveAllE:

; 164  : 	{
; 165  : 		EXTRAITEMSLOT kSlot;

  000a5	8d 4d 94	 lea	 ecx, DWORD PTR _kSlot$510134[ebp]
  000a8	e8 00 00 00 00	 call	 ??0EXTRAITEMSLOT@@QAE@XZ ; EXTRAITEMSLOT::EXTRAITEMSLOT

; 166  : 		if( !pItem->GetExtraItemArray( i, kSlot ) )

  000ad	8d 45 94	 lea	 eax, DWORD PTR _kSlot$510134[ebp]
  000b0	50		 push	 eax
  000b1	ff 75 08	 push	 DWORD PTR _i$510130[ebp]
  000b4	8b cf		 mov	 ecx, edi
  000b6	c6 45 fc 01	 mov	 BYTE PTR __$EHRec$[ebp+8], 1
  000ba	e8 00 00 00 00	 call	 ?GetExtraItemArray@ioUserExtraItem@@QAE_NHAAUEXTRAITEMSLOT@@@Z ; ioUserExtraItem::GetExtraItemArray
  000bf	84 c0		 test	 al, al

; 167  : 			continue;

  000c1	74 3f		 je	 SHORT $LN3@IsHaveAllE

; 168  : 
; 169  : 		if( kSlot.m_PeriodType != EPT_MORTMAIN )

  000c3	83 7d a0 01	 cmp	 DWORD PTR _kSlot$510134[ebp+12], 1

; 170  : 			continue;

  000c7	75 39		 jne	 SHORT $LN3@IsHaveAllE

; 171  : 
; 172  : 		if( kSlot.m_bCharEquip )

  000c9	38 5d ba	 cmp	 BYTE PTR _kSlot$510134[ebp+38], bl

; 173  : 			continue;

  000cc	75 34		 jne	 SHORT $LN3@IsHaveAllE

; 174  : 
; 175  : 		int iCodeSize = vExtraItemCode.size();

  000ce	8b 45 e0	 mov	 eax, DWORD PTR _vExtraItemCode$[ebp+4]
  000d1	8b 55 dc	 mov	 edx, DWORD PTR _vExtraItemCode$[ebp]
  000d4	2b c2		 sub	 eax, edx
  000d6	c1 f8 02	 sar	 eax, 2

; 176  : 		if( iCodeSize == 0 )

  000d9	3b c3		 cmp	 eax, ebx
  000db	74 45		 je	 SHORT $LN63@IsHaveAllE

; 178  : 
; 179  : 		for (int j = 0; j < iCodeSize ; j++)

  000dd	33 c9		 xor	 ecx, ecx
  000df	3b c3		 cmp	 eax, ebx
  000e1	7e 1f		 jle	 SHORT $LN3@IsHaveAllE
$LL5@IsHaveAllE:

; 180  : 		{
; 181  : 			if( kSlot.m_iItemCode == vExtraItemCode[j] )	

  000e3	8b 75 94	 mov	 esi, DWORD PTR _kSlot$510134[ebp]
  000e6	3b 34 8a	 cmp	 esi, DWORD PTR [edx+ecx*4]
  000e9	74 07		 je	 SHORT $LN62@IsHaveAllE

; 178  : 
; 179  : 		for (int j = 0; j < iCodeSize ; j++)

  000eb	41		 inc	 ecx
  000ec	3b c8		 cmp	 ecx, eax
  000ee	7c f3		 jl	 SHORT $LL5@IsHaveAllE

; 176  : 		if( iCodeSize == 0 )

  000f0	eb 10		 jmp	 SHORT $LN3@IsHaveAllE
$LN62@IsHaveAllE:

; 182  : 			{
; 183  : 				vExtraItemCode.erase( vExtraItemCode.begin() + j );

  000f2	8d 04 8a	 lea	 eax, DWORD PTR [edx+ecx*4]
  000f5	50		 push	 eax
  000f6	8d 45 ec	 lea	 eax, DWORD PTR $T518341[ebp]
  000f9	50		 push	 eax
  000fa	8d 4d dc	 lea	 ecx, DWORD PTR _vExtraItemCode$[ebp]
  000fd	e8 00 00 00 00	 call	 ?erase@?$vector@HV?$allocator@H@std@@@std@@QAE?AV?$_Vector_iterator@V?$_Vector_val@HV?$allocator@H@std@@@std@@@2@V?$_Vector_const_iterator@V?$_Vector_val@HV?$allocator@H@std@@@std@@@2@@Z ; std::vector<int,std::allocator<int> >::erase
$LN3@IsHaveAllE:

; 184  : 				break;
; 185  : 			}
; 186  : 		}
; 187  : 	}

  00102	8d 4d 94	 lea	 ecx, DWORD PTR _kSlot$510134[ebp]
  00105	88 5d fc	 mov	 BYTE PTR __$EHRec$[ebp+8], bl
  00108	e8 00 00 00 00	 call	 ??1EXTRAITEMSLOT@@QAE@XZ
  0010d	ff 45 08	 inc	 DWORD PTR _i$510130[ebp]
  00110	8b 45 08	 mov	 eax, DWORD PTR _i$510130[ebp]
  00113	3b 45 f0	 cmp	 eax, DWORD PTR _iSize$[ebp]
  00116	7c 8d		 jl	 SHORT $LL12@IsHaveAllE
$LN10@IsHaveAllE:

; 188  : 
; 189  : 	if( !vExtraItemCode.empty() )

  00118	8b 45 dc	 mov	 eax, DWORD PTR _vExtraItemCode$[ebp]
  0011b	3b 45 e0	 cmp	 eax, DWORD PTR _vExtraItemCode$[ebp+4]
  0011e	75 0f		 jne	 SHORT $LN66@IsHaveAllE
  00120	eb 0b		 jmp	 SHORT $LN69@IsHaveAllE
$LN63@IsHaveAllE:

; 177  : 			return true;

  00122	8d 4d 94	 lea	 ecx, DWORD PTR _kSlot$510134[ebp]
  00125	88 5d fc	 mov	 BYTE PTR __$EHRec$[ebp+8], bl
  00128	e8 00 00 00 00	 call	 ??1EXTRAITEMSLOT@@QAE@XZ
$LN69@IsHaveAllE:
  0012d	b3 01		 mov	 bl, 1
$LN66@IsHaveAllE:
  0012f	83 4d fc ff	 or	 DWORD PTR __$EHRec$[ebp+8], -1
  00133	8d 4d dc	 lea	 ecx, DWORD PTR _vExtraItemCode$[ebp]
  00136	e8 00 00 00 00	 call	 ?_Tidy@?$vector@HV?$allocator@H@std@@@std@@IAEXXZ ; std::vector<int,std::allocator<int> >::_Tidy
  0013b	8a c3		 mov	 al, bl
  0013d	e9 dd fe ff ff	 jmp	 $LN14@IsHaveAllE
_TEXT	ENDS
;	COMDAT text$x
text$x	SEGMENT
__unwindfunclet$?IsHaveAllExtra@InvenFourExtraCompoundBuyWnd@@IAE_NH@Z$0:
  00000	8d 4d dc	 lea	 ecx, DWORD PTR _vExtraItemCode$[ebp]
  00003	e9 00 00 00 00	 jmp	 ??1?$vector@HV?$allocator@H@std@@@std@@QAE@XZ ; std::vector<int,std::allocator<int> >::~vector<int,std::allocator<int> >
__unwindfunclet$?IsHaveAllExtra@InvenFourExtraCompoundBuyWnd@@IAE_NH@Z$1:
  00008	8d 4d 94	 lea	 ecx, DWORD PTR _kSlot$510134[ebp]
  0000b	e9 00 00 00 00	 jmp	 ??1EXTRAITEMSLOT@@QAE@XZ
__ehhandler$?IsHaveAllExtra@InvenFourExtraCompoundBuyWnd@@IAE_NH@Z:
  00010	8b 54 24 08	 mov	 edx, DWORD PTR [esp+8]
  00014	8d 42 0c	 lea	 eax, DWORD PTR [edx+12]
  00017	8b 4a 90	 mov	 ecx, DWORD PTR [edx-112]
  0001a	33 c8		 xor	 ecx, eax
  0001c	e8 00 00 00 00	 call	 @__security_check_cookie@4
  00021	b8 00 00 00 00	 mov	 eax, OFFSET __ehfuncinfo$?IsHaveAllExtra@InvenFourExtraCompoundBuyWnd@@IAE_NH@Z
  00026	e9 00 00 00 00	 jmp	 ___CxxFrameHandler3
text$x	ENDS
?IsHaveAllExtra@InvenFourExtraCompoundBuyWnd@@IAE_NH@Z ENDP ; InvenFourExtraCompoundBuyWnd::IsHaveAllExtra
PUBLIC	?_Destroy@?$vector@UNewShopPullDownItem@@V?$allocator@UNewShopPullDownItem@@@std@@@std@@IAEXPAUNewShopPullDownItem@@0@Z ; std::vector<NewShopPullDownItem,std::allocator<NewShopPullDownItem> >::_Destroy
; Function compile flags: /Ogsp
; File c:\program files (x86)\microsoft visual studio 10.0\vc\include\vector
;	COMDAT ?_Destroy@?$vector@UNewShopPullDownItem@@V?$allocator@UNewShopPullDownItem@@@std@@@std@@IAEXPAUNewShopPullDownItem@@0@Z
_TEXT	SEGMENT
__First$ = 8						; size = 4
__Last$ = 12						; size = 4
?_Destroy@?$vector@UNewShopPullDownItem@@V?$allocator@UNewShopPullDownItem@@@std@@@std@@IAEXPAUNewShopPullDownItem@@0@Z PROC ; std::vector<NewShopPullDownItem,std::allocator<NewShopPullDownItem> >::_Destroy, COMDAT
; _this$ = ecx

; 1269 : 		{	// destroy [_First, _Last) using allocator

  00000	55		 push	 ebp
  00001	8b ec		 mov	 ebp, esp
  00003	56		 push	 esi

; 1270 : 		_Destroy_range(_First, _Last, this->_Alval);

  00004	8b 75 08	 mov	 esi, DWORD PTR __First$[ebp]
  00007	eb 0a		 jmp	 SHORT $LN23@Destroy
$LL9@Destroy:
  00009	8b ce		 mov	 ecx, esi
  0000b	e8 00 00 00 00	 call	 ??1NewShopPullDownItem@@QAE@XZ
  00010	83 c6 50	 add	 esi, 80			; 00000050H
$LN23@Destroy:
  00013	3b 75 0c	 cmp	 esi, DWORD PTR __Last$[ebp]
  00016	75 f1		 jne	 SHORT $LL9@Destroy
  00018	5e		 pop	 esi

; 1271 : 		}

  00019	5d		 pop	 ebp
  0001a	c2 08 00	 ret	 8
?_Destroy@?$vector@UNewShopPullDownItem@@V?$allocator@UNewShopPullDownItem@@@std@@@std@@IAEXPAUNewShopPullDownItem@@0@Z ENDP ; std::vector<NewShopPullDownItem,std::allocator<NewShopPullDownItem> >::_Destroy
_TEXT	ENDS
PUBLIC	??$_Umove@PAVioHashString@@@?$vector@VioHashString@@V?$allocator@VioHashString@@@std@@@std@@IAEPAVioHashString@@PAV2@00@Z ; std::vector<ioHashString,std::allocator<ioHashString> >::_Umove<ioHashString *>
; Function compile flags: /Ogsp
;	COMDAT ??$_Umove@PAVioHashString@@@?$vector@VioHashString@@V?$allocator@VioHashString@@@std@@@std@@IAEPAVioHashString@@PAV2@00@Z
_TEXT	SEGMENT
__First$ = 8						; size = 4
__Last$ = 12						; size = 4
__Ptr$ = 16						; size = 4
??$_Umove@PAVioHashString@@@?$vector@VioHashString@@V?$allocator@VioHashString@@@std@@@std@@IAEPAVioHashString@@PAV2@00@Z PROC ; std::vector<ioHashString,std::allocator<ioHashString> >::_Umove<ioHashString *>, COMDAT
; _this$ = ecx

; 1322 : 		pointer _Umove(_Iter _First, _Iter _Last, pointer _Ptr)

  00000	55		 push	 ebp
  00001	8b ec		 mov	 ebp, esp

; 1323 : 		{	// move initializing [_First, _Last), using allocator
; 1324 : 		return (_Uninitialized_move(_First, _Last,
; 1325 : 			_Ptr, this->_Alval));

  00003	83 c1 0c	 add	 ecx, 12			; 0000000cH
  00006	51		 push	 ecx
  00007	ff 75 10	 push	 DWORD PTR __Ptr$[ebp]
  0000a	ff 75 0c	 push	 DWORD PTR __Last$[ebp]
  0000d	ff 75 08	 push	 DWORD PTR __First$[ebp]
  00010	e8 00 00 00 00	 call	 ??$_Uninitialized_move@PAVioHashString@@PAV1@V?$allocator@VioHashString@@@std@@@std@@YAPAVioHashString@@PAV1@00AAV?$allocator@VioHashString@@@0@@Z ; std::_Uninitialized_move<ioHashString *,ioHashString *,std::allocator<ioHashString> >
  00015	83 c4 10	 add	 esp, 16			; 00000010H

; 1326 : 		}

  00018	5d		 pop	 ebp
  00019	c2 0c 00	 ret	 12			; 0000000cH
??$_Umove@PAVioHashString@@@?$vector@VioHashString@@V?$allocator@VioHashString@@@std@@@std@@IAEPAVioHashString@@PAV2@00@Z ENDP ; std::vector<ioHashString,std::allocator<ioHashString> >::_Umove<ioHashString *>
_TEXT	ENDS
PUBLIC	??$_Umove@PAUNewShopPullDownItem@@@?$vector@UNewShopPullDownItem@@V?$allocator@UNewShopPullDownItem@@@std@@@std@@IAEPAUNewShopPullDownItem@@PAU2@00@Z ; std::vector<NewShopPullDownItem,std::allocator<NewShopPullDownItem> >::_Umove<NewShopPullDownItem *>
; Function compile flags: /Ogsp
;	COMDAT ??$_Umove@PAUNewShopPullDownItem@@@?$vector@UNewShopPullDownItem@@V?$allocator@UNewShopPullDownItem@@@std@@@std@@IAEPAUNewShopPullDownItem@@PAU2@00@Z
_TEXT	SEGMENT
__First$ = 8						; size = 4
__Last$ = 12						; size = 4
__Ptr$ = 16						; size = 4
??$_Umove@PAUNewShopPullDownItem@@@?$vector@UNewShopPullDownItem@@V?$allocator@UNewShopPullDownItem@@@std@@@std@@IAEPAUNewShopPullDownItem@@PAU2@00@Z PROC ; std::vector<NewShopPullDownItem,std::allocator<NewShopPullDownItem> >::_Umove<NewShopPullDownItem *>, COMDAT
; _this$ = ecx

; 1322 : 		pointer _Umove(_Iter _First, _Iter _Last, pointer _Ptr)

  00000	55		 push	 ebp
  00001	8b ec		 mov	 ebp, esp

; 1323 : 		{	// move initializing [_First, _Last), using allocator
; 1324 : 		return (_Uninitialized_move(_First, _Last,
; 1325 : 			_Ptr, this->_Alval));

  00003	83 c1 0c	 add	 ecx, 12			; 0000000cH
  00006	51		 push	 ecx
  00007	ff 75 10	 push	 DWORD PTR __Ptr$[ebp]
  0000a	ff 75 0c	 push	 DWORD PTR __Last$[ebp]
  0000d	ff 75 08	 push	 DWORD PTR __First$[ebp]
  00010	e8 00 00 00 00	 call	 ??$_Uninitialized_move@PAUNewShopPullDownItem@@PAU1@V?$allocator@UNewShopPullDownItem@@@std@@@std@@YAPAUNewShopPullDownItem@@PAU1@00AAV?$allocator@UNewShopPullDownItem@@@0@@Z ; std::_Uninitialized_move<NewShopPullDownItem *,NewShopPullDownItem *,std::allocator<NewShopPullDownItem> >
  00015	83 c4 10	 add	 esp, 16			; 00000010H

; 1326 : 		}

  00018	5d		 pop	 ebp
  00019	c2 0c 00	 ret	 12			; 0000000cH
??$_Umove@PAUNewShopPullDownItem@@@?$vector@UNewShopPullDownItem@@V?$allocator@UNewShopPullDownItem@@@std@@@std@@IAEPAUNewShopPullDownItem@@PAU2@00@Z ENDP ; std::vector<NewShopPullDownItem,std::allocator<NewShopPullDownItem> >::_Umove<NewShopPullDownItem *>
_TEXT	ENDS
PUBLIC	??$_Sort@PAUNewShopPullDownItem@@HVSoldierSort@InvenFourExtraCompoundBuyWnd@@@std@@YAXPAUNewShopPullDownItem@@0HVSoldierSort@InvenFourExtraCompoundBuyWnd@@@Z ; std::_Sort<NewShopPullDownItem *,int,InvenFourExtraCompoundBuyWnd::SoldierSort>
; Function compile flags: /Ogsp
; File c:\program files (x86)\microsoft visual studio 10.0\vc\include\algorithm
;	COMDAT ??$_Sort@PAUNewShopPullDownItem@@HVSoldierSort@InvenFourExtraCompoundBuyWnd@@@std@@YAXPAUNewShopPullDownItem@@0HVSoldierSort@InvenFourExtraCompoundBuyWnd@@@Z
_TEXT	SEGMENT
__Mid$513935 = -8					; size = 8
__First$ = 8						; size = 4
__Last$ = 12						; size = 4
__Ideal$ = 16						; size = 4
__Pred$ = 20						; size = 1
??$_Sort@PAUNewShopPullDownItem@@HVSoldierSort@InvenFourExtraCompoundBuyWnd@@@std@@YAXPAUNewShopPullDownItem@@0HVSoldierSort@InvenFourExtraCompoundBuyWnd@@@Z PROC ; std::_Sort<NewShopPullDownItem *,int,InvenFourExtraCompoundBuyWnd::SoldierSort>, COMDAT

; 3771 : 	{	// order [_First, _Last), using _Pred

  00000	55		 push	 ebp
  00001	8b ec		 mov	 ebp, esp
  00003	51		 push	 ecx
  00004	51		 push	 ecx
  00005	53		 push	 ebx

; 3772 : 	_Diff _Count;
; 3773 : 	for (; _ISORT_MAX < (_Count = _Last - _First) && 0 < _Ideal; )

  00006	8b 5d 08	 mov	 ebx, DWORD PTR __First$[ebp]
  00009	57		 push	 edi
  0000a	8b 7d 0c	 mov	 edi, DWORD PTR __Last$[ebp]
  0000d	8b c7		 mov	 eax, edi
  0000f	2b c3		 sub	 eax, ebx
  00011	6a 50		 push	 80			; 00000050H
  00013	99		 cdq
  00014	59		 pop	 ecx
  00015	f7 f9		 idiv	 ecx
  00017	83 f8 20	 cmp	 eax, 32			; 00000020H
  0001a	0f 8e 9c 00 00
	00		 jle	 $LN22@Sort
  00020	56		 push	 esi
  00021	8b 75 10	 mov	 esi, DWORD PTR __Ideal$[ebp]
$LL7@Sort:
  00024	85 f6		 test	 esi, esi
  00026	7e 75		 jle	 SHORT $LN6@Sort

; 3774 : 		{	// divide and conquer by quicksort
; 3775 : 		_STD pair<_RanIt, _RanIt> _Mid =
; 3776 : 			_Unguarded_partition(_First, _Last, _Pred);

  00028	ff 75 14	 push	 DWORD PTR __Pred$[ebp]
  0002b	8d 45 f8	 lea	 eax, DWORD PTR __Mid$513935[ebp]
  0002e	57		 push	 edi
  0002f	53		 push	 ebx
  00030	50		 push	 eax
  00031	e8 00 00 00 00	 call	 ??$_Unguarded_partition@PAUNewShopPullDownItem@@VSoldierSort@InvenFourExtraCompoundBuyWnd@@@std@@YA?AU?$pair@PAUNewShopPullDownItem@@PAU1@@0@PAUNewShopPullDownItem@@0VSoldierSort@InvenFourExtraCompoundBuyWnd@@@Z ; std::_Unguarded_partition<NewShopPullDownItem *,InvenFourExtraCompoundBuyWnd::SoldierSort>

; 3777 : 		_Ideal /= 2, _Ideal += _Ideal / 2;	// allow 1.5 log2(N) divisions

  00036	8b c6		 mov	 eax, esi
  00038	99		 cdq
  00039	2b c2		 sub	 eax, edx
  0003b	d1 f8		 sar	 eax, 1
  0003d	8b f0		 mov	 esi, eax
  0003f	99		 cdq
  00040	2b c2		 sub	 eax, edx
  00042	d1 f8		 sar	 eax, 1
  00044	03 f0		 add	 esi, eax
  00046	83 c4 10	 add	 esp, 16			; 00000010H

; 3778 : 
; 3779 : 		if (_Mid.first - _First < _Last - _Mid.second)

  00049	8b c7		 mov	 eax, edi
  0004b	2b 45 fc	 sub	 eax, DWORD PTR __Mid$513935[ebp+4]
  0004e	6a 50		 push	 80			; 00000050H
  00050	99		 cdq
  00051	59		 pop	 ecx
  00052	f7 f9		 idiv	 ecx
  00054	6a 50		 push	 80			; 00000050H
  00056	8b c8		 mov	 ecx, eax
  00058	8b 45 f8	 mov	 eax, DWORD PTR __Mid$513935[ebp]
  0005b	2b c3		 sub	 eax, ebx
  0005d	5b		 pop	 ebx
  0005e	99		 cdq
  0005f	f7 fb		 idiv	 ebx

; 3780 : 			{	// loop on second half
; 3781 : 			_Sort(_First, _Mid.first, _Ideal, _Pred);

  00061	ff 75 14	 push	 DWORD PTR __Pred$[ebp]
  00064	56		 push	 esi
  00065	3b c1		 cmp	 eax, ecx
  00067	7d 13		 jge	 SHORT $LN5@Sort
  00069	ff 75 f8	 push	 DWORD PTR __Mid$513935[ebp]
  0006c	ff 75 08	 push	 DWORD PTR __First$[ebp]
  0006f	e8 00 00 00 00	 call	 ??$_Sort@PAUNewShopPullDownItem@@HVSoldierSort@InvenFourExtraCompoundBuyWnd@@@std@@YAXPAUNewShopPullDownItem@@0HVSoldierSort@InvenFourExtraCompoundBuyWnd@@@Z ; std::_Sort<NewShopPullDownItem *,int,InvenFourExtraCompoundBuyWnd::SoldierSort>

; 3782 : 			_First = _Mid.second;

  00074	8b 5d fc	 mov	 ebx, DWORD PTR __Mid$513935[ebp+4]
  00077	89 5d 08	 mov	 DWORD PTR __First$[ebp], ebx

; 3783 : 			}
; 3784 : 		else

  0007a	eb 0f		 jmp	 SHORT $LN23@Sort
$LN5@Sort:

; 3785 : 			{	// loop on first half
; 3786 : 			_Sort(_Mid.second, _Last, _Ideal, _Pred);

  0007c	57		 push	 edi
  0007d	ff 75 fc	 push	 DWORD PTR __Mid$513935[ebp+4]
  00080	e8 00 00 00 00	 call	 ??$_Sort@PAUNewShopPullDownItem@@HVSoldierSort@InvenFourExtraCompoundBuyWnd@@@std@@YAXPAUNewShopPullDownItem@@0HVSoldierSort@InvenFourExtraCompoundBuyWnd@@@Z ; std::_Sort<NewShopPullDownItem *,int,InvenFourExtraCompoundBuyWnd::SoldierSort>

; 3787 : 			_Last = _Mid.first;

  00085	8b 7d f8	 mov	 edi, DWORD PTR __Mid$513935[ebp]
  00088	8b 5d 08	 mov	 ebx, DWORD PTR __First$[ebp]
$LN23@Sort:

; 3772 : 	_Diff _Count;
; 3773 : 	for (; _ISORT_MAX < (_Count = _Last - _First) && 0 < _Ideal; )

  0008b	83 c4 10	 add	 esp, 16			; 00000010H
  0008e	8b c7		 mov	 eax, edi
  00090	2b c3		 sub	 eax, ebx
  00092	6a 50		 push	 80			; 00000050H
  00094	99		 cdq
  00095	59		 pop	 ecx
  00096	f7 f9		 idiv	 ecx
  00098	83 f8 20	 cmp	 eax, 32			; 00000020H
  0009b	7f 87		 jg	 SHORT $LL7@Sort
$LN6@Sort:
  0009d	5e		 pop	 esi

; 3788 : 			}
; 3789 : 		}
; 3790 : 
; 3791 : 	if (_ISORT_MAX < _Count)

  0009e	83 f8 20	 cmp	 eax, 32			; 00000020H
  000a1	7e 19		 jle	 SHORT $LN22@Sort

; 3792 : 		{	// heap sort if too many divisions
; 3793 : 		_STD make_heap(_First, _Last, _Pred);

  000a3	ff 75 14	 push	 DWORD PTR __Pred$[ebp]
  000a6	57		 push	 edi
  000a7	53		 push	 ebx
  000a8	e8 00 00 00 00	 call	 ??$make_heap@PAUNewShopPullDownItem@@VSoldierSort@InvenFourExtraCompoundBuyWnd@@@std@@YAXPAUNewShopPullDownItem@@0VSoldierSort@InvenFourExtraCompoundBuyWnd@@@Z ; std::make_heap<NewShopPullDownItem *,InvenFourExtraCompoundBuyWnd::SoldierSort>

; 3794 : 		_STD sort_heap(_First, _Last, _Pred);

  000ad	ff 75 14	 push	 DWORD PTR __Pred$[ebp]
  000b0	57		 push	 edi
  000b1	53		 push	 ebx
  000b2	e8 00 00 00 00	 call	 ??$_Sort_heap@PAUNewShopPullDownItem@@VSoldierSort@InvenFourExtraCompoundBuyWnd@@@std@@YAXPAUNewShopPullDownItem@@0VSoldierSort@InvenFourExtraCompoundBuyWnd@@@Z ; std::_Sort_heap<NewShopPullDownItem *,InvenFourExtraCompoundBuyWnd::SoldierSort>
  000b7	83 c4 18	 add	 esp, 24			; 00000018H
  000ba	eb 14		 jmp	 SHORT $LN16@Sort
$LN22@Sort:

; 3795 : 		}
; 3796 : 	else if (1 < _Count)

  000bc	83 f8 01	 cmp	 eax, 1
  000bf	7e 0f		 jle	 SHORT $LN16@Sort

; 3797 : 		_Insertion_sort(_First, _Last, _Pred);	// small

  000c1	6a 00		 push	 0
  000c3	ff 75 14	 push	 DWORD PTR __Pred$[ebp]
  000c6	57		 push	 edi
  000c7	53		 push	 ebx
  000c8	e8 00 00 00 00	 call	 ??$_Insertion_sort1@PAUNewShopPullDownItem@@VSoldierSort@InvenFourExtraCompoundBuyWnd@@U1@@std@@YAXPAUNewShopPullDownItem@@0VSoldierSort@InvenFourExtraCompoundBuyWnd@@0@Z ; std::_Insertion_sort1<NewShopPullDownItem *,InvenFourExtraCompoundBuyWnd::SoldierSort,NewShopPullDownItem>
  000cd	83 c4 10	 add	 esp, 16			; 00000010H
$LN16@Sort:
  000d0	5f		 pop	 edi
  000d1	5b		 pop	 ebx

; 3798 : 	}

  000d2	c9		 leave
  000d3	c3		 ret	 0
??$_Sort@PAUNewShopPullDownItem@@HVSoldierSort@InvenFourExtraCompoundBuyWnd@@@std@@YAXPAUNewShopPullDownItem@@0HVSoldierSort@InvenFourExtraCompoundBuyWnd@@@Z ENDP ; std::_Sort<NewShopPullDownItem *,int,InvenFourExtraCompoundBuyWnd::SoldierSort>
_TEXT	ENDS
PUBLIC	?_Destroy@?$vector@VioHashString@@V?$allocator@VioHashString@@@std@@@std@@IAEXPAVioHashString@@0@Z ; std::vector<ioHashString,std::allocator<ioHashString> >::_Destroy
; Function compile flags: /Ogsp
; File c:\program files (x86)\microsoft visual studio 10.0\vc\include\vector
;	COMDAT ?_Destroy@?$vector@VioHashString@@V?$allocator@VioHashString@@@std@@@std@@IAEXPAVioHashString@@0@Z
_TEXT	SEGMENT
__First$ = 8						; size = 4
__Last$ = 12						; size = 4
?_Destroy@?$vector@VioHashString@@V?$allocator@VioHashString@@@std@@@std@@IAEXPAVioHashString@@0@Z PROC ; std::vector<ioHashString,std::allocator<ioHashString> >::_Destroy, COMDAT
; _this$ = ecx

; 1269 : 		{	// destroy [_First, _Last) using allocator

  00000	55		 push	 ebp
  00001	8b ec		 mov	 ebp, esp
  00003	56		 push	 esi

; 1270 : 		_Destroy_range(_First, _Last, this->_Alval);

  00004	8b 75 08	 mov	 esi, DWORD PTR __First$[ebp]
  00007	eb 0b		 jmp	 SHORT $LN23@Destroy@2
$LL9@Destroy@2:
  00009	8b ce		 mov	 ecx, esi
  0000b	ff 15 00 00 00
	00		 call	 DWORD PTR __imp_??1ioHashString@@QAE@XZ
  00011	83 c6 10	 add	 esi, 16			; 00000010H
$LN23@Destroy@2:
  00014	3b 75 0c	 cmp	 esi, DWORD PTR __Last$[ebp]
  00017	75 f0		 jne	 SHORT $LL9@Destroy@2
  00019	5e		 pop	 esi

; 1271 : 		}

  0001a	5d		 pop	 ebp
  0001b	c2 08 00	 ret	 8
?_Destroy@?$vector@VioHashString@@V?$allocator@VioHashString@@@std@@@std@@IAEXPAVioHashString@@0@Z ENDP ; std::vector<ioHashString,std::allocator<ioHashString> >::_Destroy
_TEXT	ENDS
PUBLIC	?reserve@?$vector@VioHashString@@V?$allocator@VioHashString@@@std@@@std@@QAEXI@Z ; std::vector<ioHashString,std::allocator<ioHashString> >::reserve
;	COMDAT xdata$x
; File c:\program files (x86)\microsoft visual studio 10.0\vc\include\xmemory
xdata$x	SEGMENT
__catchsym$?reserve@?$vector@VioHashString@@V?$allocator@VioHashString@@@std@@@std@@QAEXI@Z$2 DD 040H
	DD	00H
	DD	00H
	DD	FLAT:__catch$?reserve@?$vector@VioHashString@@V?$allocator@VioHashString@@@std@@@std@@QAEXI@Z$0
__unwindtable$?reserve@?$vector@VioHashString@@V?$allocator@VioHashString@@@std@@@std@@QAEXI@Z DD 0ffffffffH
	DD	00H
	DD	0ffffffffH
	DD	00H
__tryblocktable$?reserve@?$vector@VioHashString@@V?$allocator@VioHashString@@@std@@@std@@QAEXI@Z DD 00H
	DD	00H
	DD	01H
	DD	01H
	DD	FLAT:__catchsym$?reserve@?$vector@VioHashString@@V?$allocator@VioHashString@@@std@@@std@@QAEXI@Z$2
__ehfuncinfo$?reserve@?$vector@VioHashString@@V?$allocator@VioHashString@@@std@@@std@@QAEXI@Z DD 019930522H
	DD	02H
	DD	FLAT:__unwindtable$?reserve@?$vector@VioHashString@@V?$allocator@VioHashString@@@std@@@std@@QAEXI@Z
	DD	01H
	DD	FLAT:__tryblocktable$?reserve@?$vector@VioHashString@@V?$allocator@VioHashString@@@std@@@std@@QAEXI@Z
	DD	2 DUP(00H)
	DD	00H
	DD	01H
; Function compile flags: /Ogsp
; File c:\program files (x86)\microsoft visual studio 10.0\vc\include\vector
xdata$x	ENDS
;	COMDAT ?reserve@?$vector@VioHashString@@V?$allocator@VioHashString@@@std@@@std@@QAEXI@Z
_TEXT	SEGMENT
tv300 = -24						; size = 4
__Ptr$512412 = -20					; size = 4
__$EHRec$ = -16						; size = 16
$T518736 = 8						; size = 4
__Count$ = 8						; size = 4
?reserve@?$vector@VioHashString@@V?$allocator@VioHashString@@@std@@@std@@QAEXI@Z PROC ; std::vector<ioHashString,std::allocator<ioHashString> >::reserve, COMDAT
; _this$ = ecx

; 746  : 		{	// determine new minimum length of allocated storage

  00000	6a 0c		 push	 12			; 0000000cH
  00002	b8 00 00 00 00	 mov	 eax, __ehhandler$?reserve@?$vector@VioHashString@@V?$allocator@VioHashString@@@std@@@std@@QAEXI@Z
  00007	e8 00 00 00 00	 call	 __EH_prolog3_catch
  0000c	8b f1		 mov	 esi, ecx

; 747  : 		if (max_size() < _Count)

  0000e	8b 5d 08	 mov	 ebx, DWORD PTR __Count$[ebp]
  00011	81 fb ff ff ff
	0f		 cmp	 ebx, 268435455		; 0fffffffH
  00017	76 0b		 jbe	 SHORT $LN5@reserve@2

; 748  : 			_Xlen();	// result too long

  00019	68 00 00 00 00	 push	 OFFSET ??_C@_0BD@OLBABOEK@vector?$DMT?$DO?5too?5long?$AA@
  0001e	ff 15 00 00 00
	00		 call	 DWORD PTR __imp_?_Xlength_error@std@@YAXPBD@Z
$LN59@reserve@2:
$LN5@reserve@2:

; 749  : 		else if (capacity() < _Count)

  00024	8b 46 08	 mov	 eax, DWORD PTR [esi+8]
  00027	2b 06		 sub	 eax, DWORD PTR [esi]
  00029	c1 f8 04	 sar	 eax, 4
  0002c	3b c3		 cmp	 eax, ebx
  0002e	73 7a		 jae	 SHORT $LN3@reserve@2

; 750  : 			{	// not enough room, reallocate
; 751  : 			pointer _Ptr = this->_Alval.allocate(_Count);

  00030	6a 00		 push	 0
  00032	53		 push	 ebx
  00033	e8 00 00 00 00	 call	 ??$_Allocate@VioHashString@@@std@@YAPAVioHashString@@IPAV1@@Z ; std::_Allocate<ioHashString>

; 752  : 
; 753  : 			_TRY_BEGIN
; 754  : 			_Umove(this->_Myfirst, this->_Mylast, _Ptr);

  00038	8b 0e		 mov	 ecx, DWORD PTR [esi]
  0003a	83 65 fc 00	 and	 DWORD PTR __$EHRec$[ebp+12], 0
  0003e	8d 56 0c	 lea	 edx, DWORD PTR [esi+12]
  00041	52		 push	 edx
  00042	89 45 ec	 mov	 DWORD PTR __Ptr$512412[ebp], eax
  00045	ff 75 ec	 push	 DWORD PTR __Ptr$512412[ebp]
  00048	8b 46 04	 mov	 eax, DWORD PTR [esi+4]
  0004b	50		 push	 eax
  0004c	51		 push	 ecx
  0004d	e8 00 00 00 00	 call	 ??$_Uninitialized_move@PAVioHashString@@PAV1@V?$allocator@VioHashString@@@std@@@std@@YAPAVioHashString@@PAV1@00AAV?$allocator@VioHashString@@@0@@Z ; std::_Uninitialized_move<ioHashString *,ioHashString *,std::allocator<ioHashString> >

; 758  : 			_CATCH_END
; 759  : 
; 760  : 			size_type _Size = size();

  00052	8b 4e 04	 mov	 ecx, DWORD PTR [esi+4]
  00055	8b 06		 mov	 eax, DWORD PTR [esi]
  00057	83 4d fc ff	 or	 DWORD PTR __$EHRec$[ebp+12], -1
  0005b	8b f9		 mov	 edi, ecx
  0005d	83 c4 18	 add	 esp, 24			; 00000018H
  00060	2b f8		 sub	 edi, eax
  00062	89 4d e8	 mov	 DWORD PTR tv300[ebp], ecx
  00065	85 c0		 test	 eax, eax
  00067	74 24		 je	 SHORT $LN51@reserve@2

; 761  : 			if (this->_Myfirst != 0)
; 762  : 				{	// destroy and deallocate old array
; 763  : 				_Destroy(this->_Myfirst, this->_Mylast);

  00069	89 45 08	 mov	 DWORD PTR $T518736[ebp], eax
  0006c	3b c1		 cmp	 eax, ecx
  0006e	74 15		 je	 SHORT $LN37@reserve@2
$LN39@reserve@2:
  00070	8b 4d 08	 mov	 ecx, DWORD PTR $T518736[ebp]
  00073	ff 15 00 00 00
	00		 call	 DWORD PTR __imp_??1ioHashString@@QAE@XZ
  00079	83 45 08 10	 add	 DWORD PTR $T518736[ebp], 16 ; 00000010H
  0007d	8b 45 08	 mov	 eax, DWORD PTR $T518736[ebp]
  00080	3b 45 e8	 cmp	 eax, DWORD PTR tv300[ebp]
  00083	75 eb		 jne	 SHORT $LN39@reserve@2
$LN37@reserve@2:

; 764  : 				this->_Alval.deallocate(this->_Myfirst,
; 765  : 					this->_Myend - this->_Myfirst);

  00085	ff 36		 push	 DWORD PTR [esi]
  00087	e8 00 00 00 00	 call	 ??3@YAXPAX@Z		; operator delete
  0008c	59		 pop	 ecx
$LN51@reserve@2:

; 766  : 				}
; 767  : 
; 768  : 			this->_Orphan_all();

  0008d	8b ce		 mov	 ecx, esi
  0008f	ff 15 00 00 00
	00		 call	 DWORD PTR __imp_?_Orphan_all@_Container_base0@std@@QAEXXZ

; 769  : 			this->_Myend = _Ptr + _Count;

  00095	8b 45 ec	 mov	 eax, DWORD PTR __Ptr$512412[ebp]
  00098	c1 e3 04	 shl	 ebx, 4
  0009b	03 d8		 add	 ebx, eax

; 770  : 			this->_Mylast = _Ptr + _Size;

  0009d	83 e7 f0	 and	 edi, -16		; fffffff0H
  000a0	03 f8		 add	 edi, eax
  000a2	89 5e 08	 mov	 DWORD PTR [esi+8], ebx
  000a5	89 7e 04	 mov	 DWORD PTR [esi+4], edi

; 771  : 			this->_Myfirst = _Ptr;

  000a8	89 06		 mov	 DWORD PTR [esi], eax
$LN3@reserve@2:

; 772  : 			}
; 773  : 		}

  000aa	e8 00 00 00 00	 call	 __EH_epilog3
  000af	c2 04 00	 ret	 4
__catch$?reserve@?$vector@VioHashString@@V?$allocator@VioHashString@@@std@@@std@@QAEXI@Z$0:

; 755  : 			_CATCH_ALL
; 756  : 			this->_Alval.deallocate(_Ptr, _Count);

  000b2	ff 75 ec	 push	 DWORD PTR __Ptr$512412[ebp]
  000b5	e8 00 00 00 00	 call	 ??3@YAXPAX@Z		; operator delete
  000ba	59		 pop	 ecx

; 757  : 			_RERAISE;

  000bb	6a 00		 push	 0
  000bd	6a 00		 push	 0
  000bf	e8 00 00 00 00	 call	 __CxxThrowException@8
$LN60@reserve@2:
$LN58@reserve@2:
  000c4	cc		 int	 3
_TEXT	ENDS
;	COMDAT text$x
text$x	SEGMENT
__ehhandler$?reserve@?$vector@VioHashString@@V?$allocator@VioHashString@@@std@@@std@@QAEXI@Z:
  00000	8b 54 24 08	 mov	 edx, DWORD PTR [esp+8]
  00004	8d 42 0c	 lea	 eax, DWORD PTR [edx+12]
  00007	8b 4a e4	 mov	 ecx, DWORD PTR [edx-28]
  0000a	33 c8		 xor	 ecx, eax
  0000c	e8 00 00 00 00	 call	 @__security_check_cookie@4
  00011	b8 00 00 00 00	 mov	 eax, OFFSET __ehfuncinfo$?reserve@?$vector@VioHashString@@V?$allocator@VioHashString@@@std@@@std@@QAEXI@Z
  00016	e9 00 00 00 00	 jmp	 ___CxxFrameHandler3
text$x	ENDS
?reserve@?$vector@VioHashString@@V?$allocator@VioHashString@@@std@@@std@@QAEXI@Z ENDP ; std::vector<ioHashString,std::allocator<ioHashString> >::reserve
PUBLIC	?_Reserve@?$vector@VioHashString@@V?$allocator@VioHashString@@@std@@@std@@IAEXI@Z ; std::vector<ioHashString,std::allocator<ioHashString> >::_Reserve
; Function compile flags: /Ogsp
;	COMDAT ?_Reserve@?$vector@VioHashString@@V?$allocator@VioHashString@@@std@@@std@@IAEXI@Z
_TEXT	SEGMENT
__Count$ = 8						; size = 4
?_Reserve@?$vector@VioHashString@@V?$allocator@VioHashString@@@std@@@std@@IAEXI@Z PROC ; std::vector<ioHashString,std::allocator<ioHashString> >::_Reserve, COMDAT
; _this$ = ecx

; 1290 : 		{	// ensure room for _Count new elements, grow exponentially

  00000	55		 push	 ebp
  00001	8b ec		 mov	 ebp, esp
  00003	56		 push	 esi
  00004	8b f1		 mov	 esi, ecx

; 1291 : 		size_type _Size = size();

  00006	8b 0e		 mov	 ecx, DWORD PTR [esi]
  00008	8b 46 04	 mov	 eax, DWORD PTR [esi+4]
  0000b	2b c1		 sub	 eax, ecx

; 1292 : 		if (max_size() - _Count < _Size)

  0000d	ba ff ff ff 0f	 mov	 edx, 268435455		; 0fffffffH
  00012	2b 55 08	 sub	 edx, DWORD PTR __Count$[ebp]
  00015	c1 f8 04	 sar	 eax, 4
  00018	3b d0		 cmp	 edx, eax
  0001a	73 0b		 jae	 SHORT $LN4@Reserve@2

; 1293 : 			_Xlen();

  0001c	68 00 00 00 00	 push	 OFFSET ??_C@_0BD@OLBABOEK@vector?$DMT?$DO?5too?5long?$AA@
  00021	ff 15 00 00 00
	00		 call	 DWORD PTR __imp_?_Xlength_error@std@@YAXPBD@Z
$LN21@Reserve@2:
$LN4@Reserve@2:

; 1294 : 		else if ((_Size += _Count) <= capacity())

  00027	8b 56 08	 mov	 edx, DWORD PTR [esi+8]
  0002a	03 45 08	 add	 eax, DWORD PTR __Count$[ebp]
  0002d	2b d1		 sub	 edx, ecx
  0002f	c1 fa 04	 sar	 edx, 4
  00032	3b c2		 cmp	 eax, edx
  00034	76 10		 jbe	 SHORT $LN1@Reserve@2

; 1295 : 			;
; 1296 : 		else
; 1297 : 			reserve(_Grow_to(_Size));

  00036	50		 push	 eax
  00037	8b ce		 mov	 ecx, esi
  00039	e8 00 00 00 00	 call	 ?_Grow_to@?$vector@VioHashString@@V?$allocator@VioHashString@@@std@@@std@@IBEII@Z ; std::vector<ioHashString,std::allocator<ioHashString> >::_Grow_to
  0003e	50		 push	 eax
  0003f	8b ce		 mov	 ecx, esi
  00041	e8 00 00 00 00	 call	 ?reserve@?$vector@VioHashString@@V?$allocator@VioHashString@@@std@@@std@@QAEXI@Z ; std::vector<ioHashString,std::allocator<ioHashString> >::reserve
$LN1@Reserve@2:
  00046	5e		 pop	 esi

; 1298 : 		}

  00047	5d		 pop	 ebp
  00048	c2 04 00	 ret	 4
$LN20@Reserve@2:
?_Reserve@?$vector@VioHashString@@V?$allocator@VioHashString@@@std@@@std@@IAEXI@Z ENDP ; std::vector<ioHashString,std::allocator<ioHashString> >::_Reserve
_TEXT	ENDS
PUBLIC	?erase@?$vector@UNewShopPullDownItem@@V?$allocator@UNewShopPullDownItem@@@std@@@std@@QAE?AV?$_Vector_iterator@V?$_Vector_val@UNewShopPullDownItem@@V?$allocator@UNewShopPullDownItem@@@std@@@std@@@2@V?$_Vector_const_iterator@V?$_Vector_val@UNewShopPullDownItem@@V?$allocator@UNewShopPullDownItem@@@std@@@std@@@2@0@Z ; std::vector<NewShopPullDownItem,std::allocator<NewShopPullDownItem> >::erase
; Function compile flags: /Ogsp
;	COMDAT ?erase@?$vector@UNewShopPullDownItem@@V?$allocator@UNewShopPullDownItem@@@std@@@std@@QAE?AV?$_Vector_iterator@V?$_Vector_val@UNewShopPullDownItem@@V?$allocator@UNewShopPullDownItem@@@std@@@std@@@2@V?$_Vector_const_iterator@V?$_Vector_val@UNewShopPullDownItem@@V?$allocator@UNewShopPullDownItem@@@std@@@std@@@2@0@Z
_TEXT	SEGMENT
$T518961 = -4						; size = 4
___$ReturnUdt$ = 8					; size = 4
__First_arg$ = 12					; size = 4
__Cat$518906 = 16					; size = 1
__Last_arg$ = 16					; size = 4
?erase@?$vector@UNewShopPullDownItem@@V?$allocator@UNewShopPullDownItem@@@std@@@std@@QAE?AV?$_Vector_iterator@V?$_Vector_val@UNewShopPullDownItem@@V?$allocator@UNewShopPullDownItem@@@std@@@std@@@2@V?$_Vector_const_iterator@V?$_Vector_val@UNewShopPullDownItem@@V?$allocator@UNewShopPullDownItem@@@std@@@std@@@2@0@Z PROC ; std::vector<NewShopPullDownItem,std::allocator<NewShopPullDownItem> >::erase, COMDAT
; _this$ = ecx

; 1190 : 		{	// erase [_First, _Last)

  00000	55		 push	 ebp
  00001	8b ec		 mov	 ebp, esp
  00003	51		 push	 ecx

; 1191 : 		iterator _First = _Make_iter(_First_arg);

  00004	8b 45 08	 mov	 eax, DWORD PTR ___$ReturnUdt$[ebp]
  00007	56		 push	 esi
  00008	8b f1		 mov	 esi, ecx
  0000a	8b 4d 0c	 mov	 ecx, DWORD PTR __First_arg$[ebp]
  0000d	89 08		 mov	 DWORD PTR [eax], ecx

; 1192 : 		iterator _Last = _Make_iter(_Last_arg);
; 1193 : 
; 1194 : 		if (_First != _Last)

  0000f	3b 4d 10	 cmp	 ecx, DWORD PTR __Last_arg$[ebp]
  00012	74 37		 je	 SHORT $LN1@erase

; 1195 : 			{	// worth doing, copy down over hole
; 1196 :  #if _ITERATOR_DEBUG_LEVEL == 2
; 1197 : 			if (_Last < _First || _VICONT(_First) != this
; 1198 : 				|| _VIPTR(_First) < this->_Myfirst
; 1199 : 				|| this->_Mylast < _VIPTR(_Last))
; 1200 : 				_DEBUG_ERROR("vector erase iterator outside range");
; 1201 : 			pointer _Ptr = _Move(_VIPTR(_Last), this->_Mylast,
; 1202 : 				_VIPTR(_First));
; 1203 : 			_Orphan_range(_VIPTR(_First), this->_Mylast);
; 1204 : 
; 1205 :  #else /* _ITERATOR_DEBUG_LEVEL == 2 */
; 1206 : 			pointer _Ptr = _Move(_VIPTR(_Last), this->_Mylast,
; 1207 : 				_VIPTR(_First));

  00014	8b 46 04	 mov	 eax, DWORD PTR [esi+4]
  00017	53		 push	 ebx
  00018	57		 push	 edi
  00019	ff 75 10	 push	 DWORD PTR __Cat$518906[ebp]
  0001c	51		 push	 ecx
  0001d	50		 push	 eax
  0001e	ff 75 10	 push	 DWORD PTR __Last_arg$[ebp]
  00021	e8 00 00 00 00	 call	 ??$_Move@PAUNewShopPullDownItem@@PAU1@@std@@YAPAUNewShopPullDownItem@@PAU1@00U_Nonscalar_ptr_iterator_tag@0@@Z ; std::_Move<NewShopPullDownItem *,NewShopPullDownItem *>

; 1208 :  #endif /* _ITERATOR_DEBUG_LEVEL == 2 */
; 1209 : 
; 1210 : 			_Destroy(_Ptr, this->_Mylast);

  00026	8b 7e 04	 mov	 edi, DWORD PTR [esi+4]
  00029	8b d8		 mov	 ebx, eax
  0002b	83 c4 10	 add	 esp, 16			; 00000010H
  0002e	89 5d fc	 mov	 DWORD PTR $T518961[ebp], ebx
  00031	3b df		 cmp	 ebx, edi
  00033	74 11		 je	 SHORT $LN36@erase
$LL52@erase:
  00035	8b 4d fc	 mov	 ecx, DWORD PTR $T518961[ebp]
  00038	e8 00 00 00 00	 call	 ??1NewShopPullDownItem@@QAE@XZ
  0003d	83 45 fc 50	 add	 DWORD PTR $T518961[ebp], 80 ; 00000050H
  00041	39 7d fc	 cmp	 DWORD PTR $T518961[ebp], edi
  00044	75 ef		 jne	 SHORT $LL52@erase
$LN36@erase:

; 1211 : 			this->_Mylast = _Ptr;

  00046	5f		 pop	 edi
  00047	89 5e 04	 mov	 DWORD PTR [esi+4], ebx
  0004a	5b		 pop	 ebx
$LN1@erase:

; 1212 : 			}
; 1213 : 		return (_First);

  0004b	8b 45 08	 mov	 eax, DWORD PTR ___$ReturnUdt$[ebp]
  0004e	5e		 pop	 esi

; 1214 : 		}

  0004f	c9		 leave
  00050	c2 0c 00	 ret	 12			; 0000000cH
?erase@?$vector@UNewShopPullDownItem@@V?$allocator@UNewShopPullDownItem@@@std@@@std@@QAE?AV?$_Vector_iterator@V?$_Vector_val@UNewShopPullDownItem@@V?$allocator@UNewShopPullDownItem@@@std@@@std@@@2@V?$_Vector_const_iterator@V?$_Vector_val@UNewShopPullDownItem@@V?$allocator@UNewShopPullDownItem@@@std@@@std@@@2@0@Z ENDP ; std::vector<NewShopPullDownItem,std::allocator<NewShopPullDownItem> >::erase
_TEXT	ENDS
PUBLIC	?_Tidy@?$vector@UNewShopPullDownItem@@V?$allocator@UNewShopPullDownItem@@@std@@@std@@IAEXXZ ; std::vector<NewShopPullDownItem,std::allocator<NewShopPullDownItem> >::_Tidy
; Function compile flags: /Ogsp
;	COMDAT ?_Tidy@?$vector@UNewShopPullDownItem@@V?$allocator@UNewShopPullDownItem@@@std@@@std@@IAEXXZ
_TEXT	SEGMENT
?_Tidy@?$vector@UNewShopPullDownItem@@V?$allocator@UNewShopPullDownItem@@@std@@@std@@IAEXXZ PROC ; std::vector<NewShopPullDownItem,std::allocator<NewShopPullDownItem> >::_Tidy, COMDAT
; _this$ = ecx

; 1301 : 		{	// free all storage

  00000	56		 push	 esi
  00001	8b f1		 mov	 esi, ecx

; 1302 : 		if (this->_Myfirst != 0)

  00003	83 3e 00	 cmp	 DWORD PTR [esi], 0
  00006	74 27		 je	 SHORT $LN24@Tidy@2

; 1303 : 			{	// something to free, destroy and deallocate it
; 1304 : 			this->_Orphan_all();

  00008	53		 push	 ebx
  00009	57		 push	 edi
  0000a	ff 15 00 00 00
	00		 call	 DWORD PTR __imp_?_Orphan_all@_Container_base0@std@@QAEXXZ

; 1305 : 			_Destroy(this->_Myfirst, this->_Mylast);

  00010	8b 5e 04	 mov	 ebx, DWORD PTR [esi+4]
  00013	8b 3e		 mov	 edi, DWORD PTR [esi]
  00015	eb 0a		 jmp	 SHORT $LN28@Tidy@2
$LL12@Tidy@2:
  00017	8b cf		 mov	 ecx, edi
  00019	e8 00 00 00 00	 call	 ??1NewShopPullDownItem@@QAE@XZ
  0001e	83 c7 50	 add	 edi, 80			; 00000050H
$LN28@Tidy@2:
  00021	3b fb		 cmp	 edi, ebx
  00023	75 f2		 jne	 SHORT $LL12@Tidy@2

; 1306 : 			this->_Alval.deallocate(this->_Myfirst,
; 1307 : 				this->_Myend - this->_Myfirst);

  00025	ff 36		 push	 DWORD PTR [esi]
  00027	e8 00 00 00 00	 call	 ??3@YAXPAX@Z		; operator delete
  0002c	59		 pop	 ecx
  0002d	5f		 pop	 edi
  0002e	5b		 pop	 ebx
$LN24@Tidy@2:

; 1308 : 			}
; 1309 : 		this->_Myfirst = 0;

  0002f	33 c0		 xor	 eax, eax
  00031	89 06		 mov	 DWORD PTR [esi], eax

; 1310 : 		this->_Mylast = 0;

  00033	89 46 04	 mov	 DWORD PTR [esi+4], eax

; 1311 : 		this->_Myend = 0;

  00036	89 46 08	 mov	 DWORD PTR [esi+8], eax
  00039	5e		 pop	 esi

; 1312 : 		}

  0003a	c3		 ret	 0
?_Tidy@?$vector@UNewShopPullDownItem@@V?$allocator@UNewShopPullDownItem@@@std@@@std@@IAEXXZ ENDP ; std::vector<NewShopPullDownItem,std::allocator<NewShopPullDownItem> >::_Tidy
_TEXT	ENDS
PUBLIC	?reserve@?$vector@UNewShopPullDownItem@@V?$allocator@UNewShopPullDownItem@@@std@@@std@@QAEXI@Z ; std::vector<NewShopPullDownItem,std::allocator<NewShopPullDownItem> >::reserve
;	COMDAT xdata$x
; File c:\program files (x86)\microsoft visual studio 10.0\vc\include\xmemory
xdata$x	SEGMENT
__catchsym$?reserve@?$vector@UNewShopPullDownItem@@V?$allocator@UNewShopPullDownItem@@@std@@@std@@QAEXI@Z$2 DD 040H
	DD	00H
	DD	00H
	DD	FLAT:__catch$?reserve@?$vector@UNewShopPullDownItem@@V?$allocator@UNewShopPullDownItem@@@std@@@std@@QAEXI@Z$0
__unwindtable$?reserve@?$vector@UNewShopPullDownItem@@V?$allocator@UNewShopPullDownItem@@@std@@@std@@QAEXI@Z DD 0ffffffffH
	DD	00H
	DD	0ffffffffH
	DD	00H
__tryblocktable$?reserve@?$vector@UNewShopPullDownItem@@V?$allocator@UNewShopPullDownItem@@@std@@@std@@QAEXI@Z DD 00H
	DD	00H
	DD	01H
	DD	01H
	DD	FLAT:__catchsym$?reserve@?$vector@UNewShopPullDownItem@@V?$allocator@UNewShopPullDownItem@@@std@@@std@@QAEXI@Z$2
__ehfuncinfo$?reserve@?$vector@UNewShopPullDownItem@@V?$allocator@UNewShopPullDownItem@@@std@@@std@@QAEXI@Z DD 019930522H
	DD	02H
	DD	FLAT:__unwindtable$?reserve@?$vector@UNewShopPullDownItem@@V?$allocator@UNewShopPullDownItem@@@std@@@std@@QAEXI@Z
	DD	01H
	DD	FLAT:__tryblocktable$?reserve@?$vector@UNewShopPullDownItem@@V?$allocator@UNewShopPullDownItem@@@std@@@std@@QAEXI@Z
	DD	2 DUP(00H)
	DD	00H
	DD	01H
; Function compile flags: /Ogsp
; File c:\program files (x86)\microsoft visual studio 10.0\vc\include\vector
xdata$x	ENDS
;	COMDAT ?reserve@?$vector@UNewShopPullDownItem@@V?$allocator@UNewShopPullDownItem@@@std@@@std@@QAEXI@Z
_TEXT	SEGMENT
__Ptr$512609 = -24					; size = 4
$T519207 = -20						; size = 4
__$EHRec$ = -16						; size = 16
__Count$ = 8						; size = 4
?reserve@?$vector@UNewShopPullDownItem@@V?$allocator@UNewShopPullDownItem@@@std@@@std@@QAEXI@Z PROC ; std::vector<NewShopPullDownItem,std::allocator<NewShopPullDownItem> >::reserve, COMDAT
; _this$ = ecx

; 746  : 		{	// determine new minimum length of allocated storage

  00000	6a 0c		 push	 12			; 0000000cH
  00002	b8 00 00 00 00	 mov	 eax, __ehhandler$?reserve@?$vector@UNewShopPullDownItem@@V?$allocator@UNewShopPullDownItem@@@std@@@std@@QAEXI@Z
  00007	e8 00 00 00 00	 call	 __EH_prolog3_catch
  0000c	8b f1		 mov	 esi, ecx

; 747  : 		if (max_size() < _Count)

  0000e	81 7d 08 33 33
	33 03		 cmp	 DWORD PTR __Count$[ebp], 53687091 ; 03333333H
  00015	76 0b		 jbe	 SHORT $LN5@reserve@3

; 748  : 			_Xlen();	// result too long

  00017	68 00 00 00 00	 push	 OFFSET ??_C@_0BD@OLBABOEK@vector?$DMT?$DO?5too?5long?$AA@
  0001c	ff 15 00 00 00
	00		 call	 DWORD PTR __imp_?_Xlength_error@std@@YAXPBD@Z
$LN59@reserve@3:
$LN5@reserve@3:

; 749  : 		else if (capacity() < _Count)

  00022	8b 46 08	 mov	 eax, DWORD PTR [esi+8]
  00025	2b 06		 sub	 eax, DWORD PTR [esi]
  00027	6a 50		 push	 80			; 00000050H
  00029	99		 cdq
  0002a	59		 pop	 ecx
  0002b	f7 f9		 idiv	 ecx
  0002d	3b 45 08	 cmp	 eax, DWORD PTR __Count$[ebp]
  00030	0f 83 80 00 00
	00		 jae	 $LN3@reserve@3

; 750  : 			{	// not enough room, reallocate
; 751  : 			pointer _Ptr = this->_Alval.allocate(_Count);

  00036	6a 00		 push	 0
  00038	ff 75 08	 push	 DWORD PTR __Count$[ebp]
  0003b	e8 00 00 00 00	 call	 ??$_Allocate@UNewShopPullDownItem@@@std@@YAPAUNewShopPullDownItem@@IPAU1@@Z ; std::_Allocate<NewShopPullDownItem>

; 752  : 
; 753  : 			_TRY_BEGIN
; 754  : 			_Umove(this->_Myfirst, this->_Mylast, _Ptr);

  00040	8b 0e		 mov	 ecx, DWORD PTR [esi]
  00042	83 65 fc 00	 and	 DWORD PTR __$EHRec$[ebp+12], 0
  00046	8d 56 0c	 lea	 edx, DWORD PTR [esi+12]
  00049	52		 push	 edx
  0004a	89 45 e8	 mov	 DWORD PTR __Ptr$512609[ebp], eax
  0004d	ff 75 e8	 push	 DWORD PTR __Ptr$512609[ebp]
  00050	8b 46 04	 mov	 eax, DWORD PTR [esi+4]
  00053	50		 push	 eax
  00054	51		 push	 ecx
  00055	e8 00 00 00 00	 call	 ??$_Uninitialized_move@PAUNewShopPullDownItem@@PAU1@V?$allocator@UNewShopPullDownItem@@@std@@@std@@YAPAUNewShopPullDownItem@@PAU1@00AAV?$allocator@UNewShopPullDownItem@@@0@@Z ; std::_Uninitialized_move<NewShopPullDownItem *,NewShopPullDownItem *,std::allocator<NewShopPullDownItem> >

; 758  : 			_CATCH_END
; 759  : 
; 760  : 			size_type _Size = size();

  0005a	8b 5e 04	 mov	 ebx, DWORD PTR [esi+4]
  0005d	8b 0e		 mov	 ecx, DWORD PTR [esi]
  0005f	83 c4 18	 add	 esp, 24			; 00000018H
  00062	8b c3		 mov	 eax, ebx
  00064	2b c1		 sub	 eax, ecx
  00066	6a 50		 push	 80			; 00000050H
  00068	99		 cdq
  00069	5f		 pop	 edi
  0006a	f7 ff		 idiv	 edi
  0006c	83 4d fc ff	 or	 DWORD PTR __$EHRec$[ebp+12], -1
  00070	8b f8		 mov	 edi, eax
  00072	85 c9		 test	 ecx, ecx
  00074	74 20		 je	 SHORT $LN51@reserve@3

; 761  : 			if (this->_Myfirst != 0)
; 762  : 				{	// destroy and deallocate old array
; 763  : 				_Destroy(this->_Myfirst, this->_Mylast);

  00076	89 4d ec	 mov	 DWORD PTR $T519207[ebp], ecx
  00079	3b cb		 cmp	 ecx, ebx
  0007b	74 11		 je	 SHORT $LN37@reserve@3
$LN39@reserve@3:
  0007d	8b 4d ec	 mov	 ecx, DWORD PTR $T519207[ebp]
  00080	e8 00 00 00 00	 call	 ??1NewShopPullDownItem@@QAE@XZ
  00085	83 45 ec 50	 add	 DWORD PTR $T519207[ebp], 80 ; 00000050H
  00089	39 5d ec	 cmp	 DWORD PTR $T519207[ebp], ebx
  0008c	75 ef		 jne	 SHORT $LN39@reserve@3
$LN37@reserve@3:

; 764  : 				this->_Alval.deallocate(this->_Myfirst,
; 765  : 					this->_Myend - this->_Myfirst);

  0008e	ff 36		 push	 DWORD PTR [esi]
  00090	e8 00 00 00 00	 call	 ??3@YAXPAX@Z		; operator delete
  00095	59		 pop	 ecx
$LN51@reserve@3:

; 766  : 				}
; 767  : 
; 768  : 			this->_Orphan_all();

  00096	8b ce		 mov	 ecx, esi
  00098	ff 15 00 00 00
	00		 call	 DWORD PTR __imp_?_Orphan_all@_Container_base0@std@@QAEXXZ

; 769  : 			this->_Myend = _Ptr + _Count;
; 770  : 			this->_Mylast = _Ptr + _Size;

  0009e	6b ff 50	 imul	 edi, 80			; 00000050H
  000a1	8b 45 08	 mov	 eax, DWORD PTR __Count$[ebp]
  000a4	8b 4d e8	 mov	 ecx, DWORD PTR __Ptr$512609[ebp]
  000a7	6b c0 50	 imul	 eax, 80			; 00000050H
  000aa	03 c1		 add	 eax, ecx
  000ac	03 f9		 add	 edi, ecx
  000ae	89 46 08	 mov	 DWORD PTR [esi+8], eax
  000b1	89 7e 04	 mov	 DWORD PTR [esi+4], edi

; 771  : 			this->_Myfirst = _Ptr;

  000b4	89 0e		 mov	 DWORD PTR [esi], ecx
$LN3@reserve@3:

; 772  : 			}
; 773  : 		}

  000b6	e8 00 00 00 00	 call	 __EH_epilog3
  000bb	c2 04 00	 ret	 4
__catch$?reserve@?$vector@UNewShopPullDownItem@@V?$allocator@UNewShopPullDownItem@@@std@@@std@@QAEXI@Z$0:

; 755  : 			_CATCH_ALL
; 756  : 			this->_Alval.deallocate(_Ptr, _Count);

  000be	ff 75 e8	 push	 DWORD PTR __Ptr$512609[ebp]
  000c1	e8 00 00 00 00	 call	 ??3@YAXPAX@Z		; operator delete
  000c6	59		 pop	 ecx

; 757  : 			_RERAISE;

  000c7	6a 00		 push	 0
  000c9	6a 00		 push	 0
  000cb	e8 00 00 00 00	 call	 __CxxThrowException@8
$LN60@reserve@3:
$LN58@reserve@3:
  000d0	cc		 int	 3
_TEXT	ENDS
;	COMDAT text$x
text$x	SEGMENT
__ehhandler$?reserve@?$vector@UNewShopPullDownItem@@V?$allocator@UNewShopPullDownItem@@@std@@@std@@QAEXI@Z:
  00000	8b 54 24 08	 mov	 edx, DWORD PTR [esp+8]
  00004	8d 42 0c	 lea	 eax, DWORD PTR [edx+12]
  00007	8b 4a e4	 mov	 ecx, DWORD PTR [edx-28]
  0000a	33 c8		 xor	 ecx, eax
  0000c	e8 00 00 00 00	 call	 @__security_check_cookie@4
  00011	b8 00 00 00 00	 mov	 eax, OFFSET __ehfuncinfo$?reserve@?$vector@UNewShopPullDownItem@@V?$allocator@UNewShopPullDownItem@@@std@@@std@@QAEXI@Z
  00016	e9 00 00 00 00	 jmp	 ___CxxFrameHandler3
text$x	ENDS
?reserve@?$vector@UNewShopPullDownItem@@V?$allocator@UNewShopPullDownItem@@@std@@@std@@QAEXI@Z ENDP ; std::vector<NewShopPullDownItem,std::allocator<NewShopPullDownItem> >::reserve
PUBLIC	??$sort@V?$_Vector_iterator@V?$_Vector_val@UNewShopPullDownItem@@V?$allocator@UNewShopPullDownItem@@@std@@@std@@@std@@VSoldierSort@InvenFourExtraCompoundBuyWnd@@@std@@YAXV?$_Vector_iterator@V?$_Vector_val@UNewShopPullDownItem@@V?$allocator@UNewShopPullDownItem@@@std@@@std@@@0@0VSoldierSort@InvenFourExtraCompoundBuyWnd@@@Z ; std::sort<std::_Vector_iterator<std::_Vector_val<NewShopPullDownItem,std::allocator<NewShopPullDownItem> > >,InvenFourExtraCompoundBuyWnd::SoldierSort>
; Function compile flags: /Ogsp
; File c:\program files (x86)\microsoft visual studio 10.0\vc\include\algorithm
;	COMDAT ??$sort@V?$_Vector_iterator@V?$_Vector_val@UNewShopPullDownItem@@V?$allocator@UNewShopPullDownItem@@@std@@@std@@@std@@VSoldierSort@InvenFourExtraCompoundBuyWnd@@@std@@YAXV?$_Vector_iterator@V?$_Vector_val@UNewShopPullDownItem@@V?$allocator@UNewShopPullDownItem@@@std@@@std@@@0@0VSoldierSort@InvenFourExtraCompoundBuyWnd@@@Z
_TEXT	SEGMENT
__First$ = 8						; size = 4
__Last$ = 12						; size = 4
__Pred$ = 16						; size = 1
??$sort@V?$_Vector_iterator@V?$_Vector_val@UNewShopPullDownItem@@V?$allocator@UNewShopPullDownItem@@@std@@@std@@@std@@VSoldierSort@InvenFourExtraCompoundBuyWnd@@@std@@YAXV?$_Vector_iterator@V?$_Vector_val@UNewShopPullDownItem@@V?$allocator@UNewShopPullDownItem@@@std@@@std@@@0@0VSoldierSort@InvenFourExtraCompoundBuyWnd@@@Z PROC ; std::sort<std::_Vector_iterator<std::_Vector_val<NewShopPullDownItem,std::allocator<NewShopPullDownItem> > >,InvenFourExtraCompoundBuyWnd::SoldierSort>, COMDAT

; 3803 : 	{	// order [_First, _Last), using _Pred

  00000	55		 push	 ebp
  00001	8b ec		 mov	 ebp, esp

; 3804 : 	_DEBUG_RANGE(_First, _Last);
; 3805 : 	_DEBUG_POINTER(_Pred);
; 3806 : 	_Sort(_Unchecked(_First), _Unchecked(_Last), _Last - _First, _Pred);

  00003	ff 75 10	 push	 DWORD PTR __Pred$[ebp]
  00006	8b 45 0c	 mov	 eax, DWORD PTR __Last$[ebp]
  00009	2b 45 08	 sub	 eax, DWORD PTR __First$[ebp]
  0000c	6a 50		 push	 80			; 00000050H
  0000e	59		 pop	 ecx
  0000f	99		 cdq
  00010	f7 f9		 idiv	 ecx
  00012	50		 push	 eax
  00013	ff 75 0c	 push	 DWORD PTR __Last$[ebp]
  00016	ff 75 08	 push	 DWORD PTR __First$[ebp]
  00019	e8 00 00 00 00	 call	 ??$_Sort@PAUNewShopPullDownItem@@HVSoldierSort@InvenFourExtraCompoundBuyWnd@@@std@@YAXPAUNewShopPullDownItem@@0HVSoldierSort@InvenFourExtraCompoundBuyWnd@@@Z ; std::_Sort<NewShopPullDownItem *,int,InvenFourExtraCompoundBuyWnd::SoldierSort>
  0001e	83 c4 10	 add	 esp, 16			; 00000010H

; 3807 : 	}

  00021	5d		 pop	 ebp
  00022	c3		 ret	 0
??$sort@V?$_Vector_iterator@V?$_Vector_val@UNewShopPullDownItem@@V?$allocator@UNewShopPullDownItem@@@std@@@std@@@std@@VSoldierSort@InvenFourExtraCompoundBuyWnd@@@std@@YAXV?$_Vector_iterator@V?$_Vector_val@UNewShopPullDownItem@@V?$allocator@UNewShopPullDownItem@@@std@@@std@@@0@0VSoldierSort@InvenFourExtraCompoundBuyWnd@@@Z ENDP ; std::sort<std::_Vector_iterator<std::_Vector_val<NewShopPullDownItem,std::allocator<NewShopPullDownItem> > >,InvenFourExtraCompoundBuyWnd::SoldierSort>
_TEXT	ENDS
PUBLIC	?erase@?$vector@VioHashString@@V?$allocator@VioHashString@@@std@@@std@@QAE?AV?$_Vector_iterator@V?$_Vector_val@VioHashString@@V?$allocator@VioHashString@@@std@@@std@@@2@V?$_Vector_const_iterator@V?$_Vector_val@VioHashString@@V?$allocator@VioHashString@@@std@@@std@@@2@0@Z ; std::vector<ioHashString,std::allocator<ioHashString> >::erase
; Function compile flags: /Ogsp
; File c:\program files (x86)\microsoft visual studio 10.0\vc\include\vector
;	COMDAT ?erase@?$vector@VioHashString@@V?$allocator@VioHashString@@@std@@@std@@QAE?AV?$_Vector_iterator@V?$_Vector_val@VioHashString@@V?$allocator@VioHashString@@@std@@@std@@@2@V?$_Vector_const_iterator@V?$_Vector_val@VioHashString@@V?$allocator@VioHashString@@@std@@@std@@@2@0@Z
_TEXT	SEGMENT
$T519437 = -4						; size = 4
___$ReturnUdt$ = 8					; size = 4
__First_arg$ = 12					; size = 4
__Cat$519382 = 16					; size = 1
__Last_arg$ = 16					; size = 4
?erase@?$vector@VioHashString@@V?$allocator@VioHashString@@@std@@@std@@QAE?AV?$_Vector_iterator@V?$_Vector_val@VioHashString@@V?$allocator@VioHashString@@@std@@@std@@@2@V?$_Vector_const_iterator@V?$_Vector_val@VioHashString@@V?$allocator@VioHashString@@@std@@@std@@@2@0@Z PROC ; std::vector<ioHashString,std::allocator<ioHashString> >::erase, COMDAT
; _this$ = ecx

; 1190 : 		{	// erase [_First, _Last)

  00000	55		 push	 ebp
  00001	8b ec		 mov	 ebp, esp
  00003	51		 push	 ecx

; 1191 : 		iterator _First = _Make_iter(_First_arg);

  00004	8b 45 08	 mov	 eax, DWORD PTR ___$ReturnUdt$[ebp]
  00007	56		 push	 esi
  00008	8b f1		 mov	 esi, ecx
  0000a	8b 4d 0c	 mov	 ecx, DWORD PTR __First_arg$[ebp]
  0000d	89 08		 mov	 DWORD PTR [eax], ecx

; 1192 : 		iterator _Last = _Make_iter(_Last_arg);
; 1193 : 
; 1194 : 		if (_First != _Last)

  0000f	3b 4d 10	 cmp	 ecx, DWORD PTR __Last_arg$[ebp]
  00012	74 38		 je	 SHORT $LN1@erase@2

; 1195 : 			{	// worth doing, copy down over hole
; 1196 :  #if _ITERATOR_DEBUG_LEVEL == 2
; 1197 : 			if (_Last < _First || _VICONT(_First) != this
; 1198 : 				|| _VIPTR(_First) < this->_Myfirst
; 1199 : 				|| this->_Mylast < _VIPTR(_Last))
; 1200 : 				_DEBUG_ERROR("vector erase iterator outside range");
; 1201 : 			pointer _Ptr = _Move(_VIPTR(_Last), this->_Mylast,
; 1202 : 				_VIPTR(_First));
; 1203 : 			_Orphan_range(_VIPTR(_First), this->_Mylast);
; 1204 : 
; 1205 :  #else /* _ITERATOR_DEBUG_LEVEL == 2 */
; 1206 : 			pointer _Ptr = _Move(_VIPTR(_Last), this->_Mylast,
; 1207 : 				_VIPTR(_First));

  00014	8b 46 04	 mov	 eax, DWORD PTR [esi+4]
  00017	53		 push	 ebx
  00018	57		 push	 edi
  00019	ff 75 10	 push	 DWORD PTR __Cat$519382[ebp]
  0001c	51		 push	 ecx
  0001d	50		 push	 eax
  0001e	ff 75 10	 push	 DWORD PTR __Last_arg$[ebp]
  00021	e8 00 00 00 00	 call	 ??$_Move@PAVioHashString@@PAV1@@std@@YAPAVioHashString@@PAV1@00U_Nonscalar_ptr_iterator_tag@0@@Z ; std::_Move<ioHashString *,ioHashString *>

; 1208 :  #endif /* _ITERATOR_DEBUG_LEVEL == 2 */
; 1209 : 
; 1210 : 			_Destroy(_Ptr, this->_Mylast);

  00026	8b 7e 04	 mov	 edi, DWORD PTR [esi+4]
  00029	8b d8		 mov	 ebx, eax
  0002b	83 c4 10	 add	 esp, 16			; 00000010H
  0002e	89 5d fc	 mov	 DWORD PTR $T519437[ebp], ebx
  00031	3b df		 cmp	 ebx, edi
  00033	74 12		 je	 SHORT $LN36@erase@2
$LL52@erase@2:
  00035	8b 4d fc	 mov	 ecx, DWORD PTR $T519437[ebp]
  00038	ff 15 00 00 00
	00		 call	 DWORD PTR __imp_??1ioHashString@@QAE@XZ
  0003e	83 45 fc 10	 add	 DWORD PTR $T519437[ebp], 16 ; 00000010H
  00042	39 7d fc	 cmp	 DWORD PTR $T519437[ebp], edi
  00045	75 ee		 jne	 SHORT $LL52@erase@2
$LN36@erase@2:

; 1211 : 			this->_Mylast = _Ptr;

  00047	5f		 pop	 edi
  00048	89 5e 04	 mov	 DWORD PTR [esi+4], ebx
  0004b	5b		 pop	 ebx
$LN1@erase@2:

; 1212 : 			}
; 1213 : 		return (_First);

  0004c	8b 45 08	 mov	 eax, DWORD PTR ___$ReturnUdt$[ebp]
  0004f	5e		 pop	 esi

; 1214 : 		}

  00050	c9		 leave
  00051	c2 0c 00	 ret	 12			; 0000000cH
?erase@?$vector@VioHashString@@V?$allocator@VioHashString@@@std@@@std@@QAE?AV?$_Vector_iterator@V?$_Vector_val@VioHashString@@V?$allocator@VioHashString@@@std@@@std@@@2@V?$_Vector_const_iterator@V?$_Vector_val@VioHashString@@V?$allocator@VioHashString@@@std@@@std@@@2@0@Z ENDP ; std::vector<ioHashString,std::allocator<ioHashString> >::erase
_TEXT	ENDS
PUBLIC	?_Tidy@?$vector@VioHashString@@V?$allocator@VioHashString@@@std@@@std@@IAEXXZ ; std::vector<ioHashString,std::allocator<ioHashString> >::_Tidy
; Function compile flags: /Ogsp
;	COMDAT ?_Tidy@?$vector@VioHashString@@V?$allocator@VioHashString@@@std@@@std@@IAEXXZ
_TEXT	SEGMENT
?_Tidy@?$vector@VioHashString@@V?$allocator@VioHashString@@@std@@@std@@IAEXXZ PROC ; std::vector<ioHashString,std::allocator<ioHashString> >::_Tidy, COMDAT
; _this$ = ecx

; 1301 : 		{	// free all storage

  00000	56		 push	 esi
  00001	8b f1		 mov	 esi, ecx

; 1302 : 		if (this->_Myfirst != 0)

  00003	83 3e 00	 cmp	 DWORD PTR [esi], 0
  00006	74 28		 je	 SHORT $LN24@Tidy@3

; 1303 : 			{	// something to free, destroy and deallocate it
; 1304 : 			this->_Orphan_all();

  00008	53		 push	 ebx
  00009	57		 push	 edi
  0000a	ff 15 00 00 00
	00		 call	 DWORD PTR __imp_?_Orphan_all@_Container_base0@std@@QAEXXZ

; 1305 : 			_Destroy(this->_Myfirst, this->_Mylast);

  00010	8b 5e 04	 mov	 ebx, DWORD PTR [esi+4]
  00013	8b 3e		 mov	 edi, DWORD PTR [esi]
  00015	eb 0b		 jmp	 SHORT $LN28@Tidy@3
$LL12@Tidy@3:
  00017	8b cf		 mov	 ecx, edi
  00019	ff 15 00 00 00
	00		 call	 DWORD PTR __imp_??1ioHashString@@QAE@XZ
  0001f	83 c7 10	 add	 edi, 16			; 00000010H
$LN28@Tidy@3:
  00022	3b fb		 cmp	 edi, ebx
  00024	75 f1		 jne	 SHORT $LL12@Tidy@3

; 1306 : 			this->_Alval.deallocate(this->_Myfirst,
; 1307 : 				this->_Myend - this->_Myfirst);

  00026	ff 36		 push	 DWORD PTR [esi]
  00028	e8 00 00 00 00	 call	 ??3@YAXPAX@Z		; operator delete
  0002d	59		 pop	 ecx
  0002e	5f		 pop	 edi
  0002f	5b		 pop	 ebx
$LN24@Tidy@3:

; 1308 : 			}
; 1309 : 		this->_Myfirst = 0;

  00030	33 c0		 xor	 eax, eax
  00032	89 06		 mov	 DWORD PTR [esi], eax

; 1310 : 		this->_Mylast = 0;

  00034	89 46 04	 mov	 DWORD PTR [esi+4], eax

; 1311 : 		this->_Myend = 0;

  00037	89 46 08	 mov	 DWORD PTR [esi+8], eax
  0003a	5e		 pop	 esi

; 1312 : 		}

  0003b	c3		 ret	 0
?_Tidy@?$vector@VioHashString@@V?$allocator@VioHashString@@@std@@@std@@IAEXXZ ENDP ; std::vector<ioHashString,std::allocator<ioHashString> >::_Tidy
_TEXT	ENDS
PUBLIC	?push_back@?$vector@VioHashString@@V?$allocator@VioHashString@@@std@@@std@@QAEXABVioHashString@@@Z ; std::vector<ioHashString,std::allocator<ioHashString> >::push_back
; Function compile flags: /Ogsp
;	COMDAT ?push_back@?$vector@VioHashString@@V?$allocator@VioHashString@@@std@@@std@@QAEXABVioHashString@@@Z
_TEXT	SEGMENT
__Val$ = 8						; size = 4
?push_back@?$vector@VioHashString@@V?$allocator@VioHashString@@@std@@@std@@QAEXABVioHashString@@@Z PROC ; std::vector<ioHashString,std::allocator<ioHashString> >::push_back, COMDAT
; _this$ = ecx

; 976  : 		{	// insert element at end

  00000	55		 push	 ebp
  00001	8b ec		 mov	 ebp, esp
  00003	56		 push	 esi
  00004	8b f1		 mov	 esi, ecx

; 977  : 		if (_Inside(_STD addressof(_Val)))

  00006	8b 46 04	 mov	 eax, DWORD PTR [esi+4]
  00009	57		 push	 edi
  0000a	8b 7d 08	 mov	 edi, DWORD PTR __Val$[ebp]
  0000d	3b f8		 cmp	 edi, eax
  0000f	73 29		 jae	 SHORT $LN4@push_back@2
  00011	8b 0e		 mov	 ecx, DWORD PTR [esi]
  00013	3b cf		 cmp	 ecx, edi
  00015	77 23		 ja	 SHORT $LN4@push_back@2

; 978  : 			{	// push back an element
; 979  : 			size_type _Idx = _STD addressof(_Val) - this->_Myfirst;

  00017	2b f9		 sub	 edi, ecx

; 980  : 			if (this->_Mylast == this->_Myend)

  00019	3b 46 08	 cmp	 eax, DWORD PTR [esi+8]
  0001c	75 09		 jne	 SHORT $LN3@push_back@2

; 981  : 				_Reserve(1);

  0001e	6a 01		 push	 1
  00020	8b ce		 mov	 ecx, esi
  00022	e8 00 00 00 00	 call	 ?_Reserve@?$vector@VioHashString@@V?$allocator@VioHashString@@@std@@@std@@IAEXI@Z ; std::vector<ioHashString,std::allocator<ioHashString> >::_Reserve
$LN3@push_back@2:

; 982  : 			_Orphan_range(this->_Mylast, this->_Mylast);
; 983  : 			_Cons_val(this->_Alval,
; 984  : 				this->_Mylast,
; 985  : 				this->_Myfirst[_Idx]);

  00027	83 e7 f0	 and	 edi, -16		; fffffff0H
  0002a	03 3e		 add	 edi, DWORD PTR [esi]
  0002c	8d 4e 0c	 lea	 ecx, DWORD PTR [esi+12]
  0002f	57		 push	 edi
  00030	ff 76 04	 push	 DWORD PTR [esi+4]
  00033	e8 00 00 00 00	 call	 ??$construct@AAVioHashString@@@?$allocator@VioHashString@@@std@@QAEXPAVioHashString@@AAV2@@Z ; std::allocator<ioHashString>::construct<ioHashString &>

; 986  : 			++this->_Mylast;
; 987  : 			}
; 988  : 		else

  00038	eb 19		 jmp	 SHORT $LN30@push_back@2
$LN4@push_back@2:

; 989  : 			{	// push back a non-element
; 990  : 			if (this->_Mylast == this->_Myend)

  0003a	3b 46 08	 cmp	 eax, DWORD PTR [esi+8]
  0003d	75 09		 jne	 SHORT $LN1@push_back@2

; 991  : 				_Reserve(1);

  0003f	6a 01		 push	 1
  00041	8b ce		 mov	 ecx, esi
  00043	e8 00 00 00 00	 call	 ?_Reserve@?$vector@VioHashString@@V?$allocator@VioHashString@@@std@@@std@@IAEXI@Z ; std::vector<ioHashString,std::allocator<ioHashString> >::_Reserve
$LN1@push_back@2:

; 992  : 			_Orphan_range(this->_Mylast, this->_Mylast);
; 993  : 			_Cons_val(this->_Alval,
; 994  : 				this->_Mylast,
; 995  : 				_Val);

  00048	57		 push	 edi
  00049	ff 76 04	 push	 DWORD PTR [esi+4]
  0004c	e8 00 00 00 00	 call	 ??$_Construct@VioHashString@@ABV1@@std@@YAXPAVioHashString@@ABV1@@Z ; std::_Construct<ioHashString,ioHashString const &>
  00051	59		 pop	 ecx
  00052	59		 pop	 ecx
$LN30@push_back@2:

; 996  : 			++this->_Mylast;

  00053	83 46 04 10	 add	 DWORD PTR [esi+4], 16	; 00000010H
  00057	5f		 pop	 edi
  00058	5e		 pop	 esi

; 997  : 			}
; 998  : 		}

  00059	5d		 pop	 ebp
  0005a	c2 04 00	 ret	 4
?push_back@?$vector@VioHashString@@V?$allocator@VioHashString@@@std@@@std@@QAEXABVioHashString@@@Z ENDP ; std::vector<ioHashString,std::allocator<ioHashString> >::push_back
_TEXT	ENDS
PUBLIC	??1?$vector@UNewShopPullDownItem@@V?$allocator@UNewShopPullDownItem@@@std@@@std@@QAE@XZ ; std::vector<NewShopPullDownItem,std::allocator<NewShopPullDownItem> >::~vector<NewShopPullDownItem,std::allocator<NewShopPullDownItem> >
; Function compile flags: /Ogsp
;	COMDAT ??1?$vector@UNewShopPullDownItem@@V?$allocator@UNewShopPullDownItem@@@std@@@std@@QAE@XZ
_TEXT	SEGMENT
??1?$vector@UNewShopPullDownItem@@V?$allocator@UNewShopPullDownItem@@@std@@@std@@QAE@XZ PROC ; std::vector<NewShopPullDownItem,std::allocator<NewShopPullDownItem> >::~vector<NewShopPullDownItem,std::allocator<NewShopPullDownItem> >, COMDAT
; _this$ = ecx

; 705  : 		_Tidy();

  00000	e9 00 00 00 00	 jmp	 ?_Tidy@?$vector@UNewShopPullDownItem@@V?$allocator@UNewShopPullDownItem@@@std@@@std@@IAEXXZ ; std::vector<NewShopPullDownItem,std::allocator<NewShopPullDownItem> >::_Tidy
??1?$vector@UNewShopPullDownItem@@V?$allocator@UNewShopPullDownItem@@@std@@@std@@QAE@XZ ENDP ; std::vector<NewShopPullDownItem,std::allocator<NewShopPullDownItem> >::~vector<NewShopPullDownItem,std::allocator<NewShopPullDownItem> >
_TEXT	ENDS
PUBLIC	?clear@?$vector@UNewShopPullDownItem@@V?$allocator@UNewShopPullDownItem@@@std@@@std@@QAEXXZ ; std::vector<NewShopPullDownItem,std::allocator<NewShopPullDownItem> >::clear
; Function compile flags: /Ogsp
;	COMDAT ?clear@?$vector@UNewShopPullDownItem@@V?$allocator@UNewShopPullDownItem@@@std@@@std@@QAEXXZ
_TEXT	SEGMENT
$T519650 = -4						; size = 4
?clear@?$vector@UNewShopPullDownItem@@V?$allocator@UNewShopPullDownItem@@@std@@@std@@QAEXXZ PROC ; std::vector<NewShopPullDownItem,std::allocator<NewShopPullDownItem> >::clear, COMDAT
; _this$ = ecx

; 1217 : 		{	// erase all

  00000	55		 push	 ebp
  00001	8b ec		 mov	 ebp, esp
  00003	51		 push	 ecx

; 1218 : 		erase(begin(), end());

  00004	8b 41 04	 mov	 eax, DWORD PTR [ecx+4]
  00007	8b 11		 mov	 edx, DWORD PTR [ecx]
  00009	50		 push	 eax
  0000a	52		 push	 edx
  0000b	8d 45 fc	 lea	 eax, DWORD PTR $T519650[ebp]
  0000e	50		 push	 eax
  0000f	e8 00 00 00 00	 call	 ?erase@?$vector@UNewShopPullDownItem@@V?$allocator@UNewShopPullDownItem@@@std@@@std@@QAE?AV?$_Vector_iterator@V?$_Vector_val@UNewShopPullDownItem@@V?$allocator@UNewShopPullDownItem@@@std@@@std@@@2@V?$_Vector_const_iterator@V?$_Vector_val@UNewShopPullDownItem@@V?$allocator@UNewShopPullDownItem@@@std@@@std@@@2@0@Z ; std::vector<NewShopPullDownItem,std::allocator<NewShopPullDownItem> >::erase

; 1219 : 		}

  00014	c9		 leave
  00015	c3		 ret	 0
?clear@?$vector@UNewShopPullDownItem@@V?$allocator@UNewShopPullDownItem@@@std@@@std@@QAEXXZ ENDP ; std::vector<NewShopPullDownItem,std::allocator<NewShopPullDownItem> >::clear
_TEXT	ENDS
PUBLIC	?_Reserve@?$vector@UNewShopPullDownItem@@V?$allocator@UNewShopPullDownItem@@@std@@@std@@IAEXI@Z ; std::vector<NewShopPullDownItem,std::allocator<NewShopPullDownItem> >::_Reserve
; Function compile flags: /Ogsp
;	COMDAT ?_Reserve@?$vector@UNewShopPullDownItem@@V?$allocator@UNewShopPullDownItem@@@std@@@std@@IAEXI@Z
_TEXT	SEGMENT
__Count$ = 8						; size = 4
?_Reserve@?$vector@UNewShopPullDownItem@@V?$allocator@UNewShopPullDownItem@@@std@@@std@@IAEXI@Z PROC ; std::vector<NewShopPullDownItem,std::allocator<NewShopPullDownItem> >::_Reserve, COMDAT
; _this$ = ecx

; 1290 : 		{	// ensure room for _Count new elements, grow exponentially

  00000	55		 push	 ebp
  00001	8b ec		 mov	 ebp, esp
  00003	56		 push	 esi
  00004	8b f1		 mov	 esi, ecx

; 1291 : 		size_type _Size = size();

  00006	8b 0e		 mov	 ecx, DWORD PTR [esi]
  00008	8b 46 04	 mov	 eax, DWORD PTR [esi+4]
  0000b	2b c1		 sub	 eax, ecx
  0000d	57		 push	 edi
  0000e	99		 cdq
  0000f	6a 50		 push	 80			; 00000050H
  00011	5f		 pop	 edi
  00012	f7 ff		 idiv	 edi
  00014	8b f8		 mov	 edi, eax

; 1292 : 		if (max_size() - _Count < _Size)

  00016	b8 33 33 33 03	 mov	 eax, 53687091		; 03333333H
  0001b	2b 45 08	 sub	 eax, DWORD PTR __Count$[ebp]
  0001e	3b c7		 cmp	 eax, edi
  00020	73 0b		 jae	 SHORT $LN4@Reserve@3

; 1293 : 			_Xlen();

  00022	68 00 00 00 00	 push	 OFFSET ??_C@_0BD@OLBABOEK@vector?$DMT?$DO?5too?5long?$AA@
  00027	ff 15 00 00 00
	00		 call	 DWORD PTR __imp_?_Xlength_error@std@@YAXPBD@Z
$LN21@Reserve@3:
$LN4@Reserve@3:

; 1294 : 		else if ((_Size += _Count) <= capacity())

  0002d	8b 46 08	 mov	 eax, DWORD PTR [esi+8]
  00030	2b c1		 sub	 eax, ecx
  00032	6a 50		 push	 80			; 00000050H
  00034	99		 cdq
  00035	59		 pop	 ecx
  00036	f7 f9		 idiv	 ecx
  00038	03 7d 08	 add	 edi, DWORD PTR __Count$[ebp]
  0003b	3b f8		 cmp	 edi, eax
  0003d	76 10		 jbe	 SHORT $LN1@Reserve@3

; 1295 : 			;
; 1296 : 		else
; 1297 : 			reserve(_Grow_to(_Size));

  0003f	57		 push	 edi
  00040	8b ce		 mov	 ecx, esi
  00042	e8 00 00 00 00	 call	 ?_Grow_to@?$vector@UNewShopPullDownItem@@V?$allocator@UNewShopPullDownItem@@@std@@@std@@IBEII@Z ; std::vector<NewShopPullDownItem,std::allocator<NewShopPullDownItem> >::_Grow_to
  00047	50		 push	 eax
  00048	8b ce		 mov	 ecx, esi
  0004a	e8 00 00 00 00	 call	 ?reserve@?$vector@UNewShopPullDownItem@@V?$allocator@UNewShopPullDownItem@@@std@@@std@@QAEXI@Z ; std::vector<NewShopPullDownItem,std::allocator<NewShopPullDownItem> >::reserve
$LN1@Reserve@3:
  0004f	5f		 pop	 edi
  00050	5e		 pop	 esi

; 1298 : 		}

  00051	5d		 pop	 ebp
  00052	c2 04 00	 ret	 4
$LN20@Reserve@3:
?_Reserve@?$vector@UNewShopPullDownItem@@V?$allocator@UNewShopPullDownItem@@@std@@@std@@IAEXI@Z ENDP ; std::vector<NewShopPullDownItem,std::allocator<NewShopPullDownItem> >::_Reserve
_TEXT	ENDS
PUBLIC	??1?$vector@VioHashString@@V?$allocator@VioHashString@@@std@@@std@@QAE@XZ ; std::vector<ioHashString,std::allocator<ioHashString> >::~vector<ioHashString,std::allocator<ioHashString> >
; Function compile flags: /Ogsp
;	COMDAT ??1?$vector@VioHashString@@V?$allocator@VioHashString@@@std@@@std@@QAE@XZ
_TEXT	SEGMENT
??1?$vector@VioHashString@@V?$allocator@VioHashString@@@std@@@std@@QAE@XZ PROC ; std::vector<ioHashString,std::allocator<ioHashString> >::~vector<ioHashString,std::allocator<ioHashString> >, COMDAT
; _this$ = ecx

; 705  : 		_Tidy();

  00000	e9 00 00 00 00	 jmp	 ?_Tidy@?$vector@VioHashString@@V?$allocator@VioHashString@@@std@@@std@@IAEXXZ ; std::vector<ioHashString,std::allocator<ioHashString> >::_Tidy
??1?$vector@VioHashString@@V?$allocator@VioHashString@@@std@@@std@@QAE@XZ ENDP ; std::vector<ioHashString,std::allocator<ioHashString> >::~vector<ioHashString,std::allocator<ioHashString> >
_TEXT	ENDS
PUBLIC	?clear@?$vector@VioHashString@@V?$allocator@VioHashString@@@std@@@std@@QAEXXZ ; std::vector<ioHashString,std::allocator<ioHashString> >::clear
; Function compile flags: /Ogsp
;	COMDAT ?clear@?$vector@VioHashString@@V?$allocator@VioHashString@@@std@@@std@@QAEXXZ
_TEXT	SEGMENT
$T519744 = -4						; size = 4
?clear@?$vector@VioHashString@@V?$allocator@VioHashString@@@std@@@std@@QAEXXZ PROC ; std::vector<ioHashString,std::allocator<ioHashString> >::clear, COMDAT
; _this$ = ecx

; 1217 : 		{	// erase all

  00000	55		 push	 ebp
  00001	8b ec		 mov	 ebp, esp
  00003	51		 push	 ecx

; 1218 : 		erase(begin(), end());

  00004	8b 41 04	 mov	 eax, DWORD PTR [ecx+4]
  00007	8b 11		 mov	 edx, DWORD PTR [ecx]
  00009	50		 push	 eax
  0000a	52		 push	 edx
  0000b	8d 45 fc	 lea	 eax, DWORD PTR $T519744[ebp]
  0000e	50		 push	 eax
  0000f	e8 00 00 00 00	 call	 ?erase@?$vector@VioHashString@@V?$allocator@VioHashString@@@std@@@std@@QAE?AV?$_Vector_iterator@V?$_Vector_val@VioHashString@@V?$allocator@VioHashString@@@std@@@std@@@2@V?$_Vector_const_iterator@V?$_Vector_val@VioHashString@@V?$allocator@VioHashString@@@std@@@std@@@2@0@Z ; std::vector<ioHashString,std::allocator<ioHashString> >::erase

; 1219 : 		}

  00014	c9		 leave
  00015	c3		 ret	 0
?clear@?$vector@VioHashString@@V?$allocator@VioHashString@@@std@@@std@@QAEXXZ ENDP ; std::vector<ioHashString,std::allocator<ioHashString> >::clear
_TEXT	ENDS
PUBLIC	??_7InvenFourExtraCompoundBuyResultWnd@@6B@	; InvenFourExtraCompoundBuyResultWnd::`vftable'
PUBLIC	??0InvenFourExtraCompoundBuyResultWnd@@QAE@XZ	; InvenFourExtraCompoundBuyResultWnd::InvenFourExtraCompoundBuyResultWnd
PUBLIC	??_R4InvenFourExtraCompoundBuyResultWnd@@6B@	; InvenFourExtraCompoundBuyResultWnd::`RTTI Complete Object Locator'
PUBLIC	??_R0?AVInvenFourExtraCompoundBuyResultWnd@@@8	; InvenFourExtraCompoundBuyResultWnd `RTTI Type Descriptor'
PUBLIC	??_R3InvenFourExtraCompoundBuyResultWnd@@8	; InvenFourExtraCompoundBuyResultWnd::`RTTI Class Hierarchy Descriptor'
PUBLIC	??_R2InvenFourExtraCompoundBuyResultWnd@@8	; InvenFourExtraCompoundBuyResultWnd::`RTTI Base Class Array'
PUBLIC	??_R1A@?0A@EA@InvenFourExtraCompoundBuyResultWnd@@8 ; InvenFourExtraCompoundBuyResultWnd::`RTTI Base Class Descriptor at (0,-1,0,64)'
PUBLIC	?ParseExtraInfo@InvenFourExtraCompoundBuyResultWnd@@MAEXAAVioXMLElement@@@Z ; InvenFourExtraCompoundBuyResultWnd::ParseExtraInfo
EXTRN	?iwm_show@ioWnd@@UAEXXZ:PROC			; ioWnd::iwm_show
EXTRN	??_EInvenFourExtraCompoundBuyResultWnd@@UAEPAXI@Z:PROC ; InvenFourExtraCompoundBuyResultWnd::`vector deleting destructor'
;	COMDAT ??_R1A@?0A@EA@InvenFourExtraCompoundBuyResultWnd@@8
; File c:\program files (x86)\microsoft visual studio 10.0\vc\include\xmemory
rdata$r	SEGMENT
??_R1A@?0A@EA@InvenFourExtraCompoundBuyResultWnd@@8 DD FLAT:??_R0?AVInvenFourExtraCompoundBuyResultWnd@@@8 ; InvenFourExtraCompoundBuyResultWnd::`RTTI Base Class Descriptor at (0,-1,0,64)'
	DD	01H
	DD	00H
	DD	0ffffffffH
	DD	00H
	DD	040H
	DD	FLAT:??_R3InvenFourExtraCompoundBuyResultWnd@@8
rdata$r	ENDS
;	COMDAT ??_R2InvenFourExtraCompoundBuyResultWnd@@8
rdata$r	SEGMENT
??_R2InvenFourExtraCompoundBuyResultWnd@@8 DD FLAT:??_R1A@?0A@EA@InvenFourExtraCompoundBuyResultWnd@@8 ; InvenFourExtraCompoundBuyResultWnd::`RTTI Base Class Array'
	DD	FLAT:??_R1A@?0A@EA@ioWnd@@8
rdata$r	ENDS
;	COMDAT ??_R3InvenFourExtraCompoundBuyResultWnd@@8
rdata$r	SEGMENT
??_R3InvenFourExtraCompoundBuyResultWnd@@8 DD 00H	; InvenFourExtraCompoundBuyResultWnd::`RTTI Class Hierarchy Descriptor'
	DD	00H
	DD	02H
	DD	FLAT:??_R2InvenFourExtraCompoundBuyResultWnd@@8
rdata$r	ENDS
;	COMDAT ??_R0?AVInvenFourExtraCompoundBuyResultWnd@@@8
_DATA	SEGMENT
??_R0?AVInvenFourExtraCompoundBuyResultWnd@@@8 DD FLAT:??_7type_info@@6B@ ; InvenFourExtraCompoundBuyResultWnd `RTTI Type Descriptor'
	DD	00H
	DB	'.?AVInvenFourExtraCompoundBuyResultWnd@@', 00H
_DATA	ENDS
;	COMDAT ??_R4InvenFourExtraCompoundBuyResultWnd@@6B@
rdata$r	SEGMENT
??_R4InvenFourExtraCompoundBuyResultWnd@@6B@ DD 00H	; InvenFourExtraCompoundBuyResultWnd::`RTTI Complete Object Locator'
	DD	00H
	DD	00H
	DD	FLAT:??_R0?AVInvenFourExtraCompoundBuyResultWnd@@@8
	DD	FLAT:??_R3InvenFourExtraCompoundBuyResultWnd@@8
rdata$r	ENDS
;	COMDAT ??_7InvenFourExtraCompoundBuyResultWnd@@6B@
CONST	SEGMENT
??_7InvenFourExtraCompoundBuyResultWnd@@6B@ DD FLAT:??_R4InvenFourExtraCompoundBuyResultWnd@@6B@ ; InvenFourExtraCompoundBuyResultWnd::`vftable'
	DD	FLAT:?AddRenderFrame@ioWnd@@UAEXABVioHashString@@PAVioUIRenderFrame@@@Z
	DD	FLAT:?AddRenderImage@InvenFourExtraCompoundBuyResultWnd@@MAEXABVioHashString@@PAVioUIRenderImage@@@Z
	DD	FLAT:?AddTooltipHelp@ioWnd@@UAEXABVioHashString@@00@Z
	DD	FLAT:?ParseExtraInfo@InvenFourExtraCompoundBuyResultWnd@@MAEXAAVioXMLElement@@@Z
	DD	FLAT:?AddNamedRenderImage@ioWnd@@UAEXABVioHashString@@PAVioUIRenderImage@@@Z
	DD	FLAT:?RemoveNamedRenderImage@ioWnd@@UAEXABVioHashString@@@Z
	DD	FLAT:?GetNamedRenderImage@ioWnd@@UBEPAVioUIRenderImage@@ABVioHashString@@@Z
	DD	FLAT:?SetWindowAlpha@ioWnd@@UAEXH@Z
	DD	FLAT:?SetActive@ioWnd@@UAEXXZ
	DD	FLAT:?SetInActive@ioWnd@@UAEXXZ
	DD	FLAT:?ClearElementImageList@ioWnd@@UAEXXZ
	DD	FLAT:?SetSize@ioWnd@@UAEXHH@Z
	DD	FLAT:?SetPositionToDefault@ioWnd@@UAEXHH_N0@Z
	DD	FLAT:?IsNeedProcess@ioWnd@@UBE_NXZ
	DD	FLAT:?IsCanMouseReaction@ioWnd@@UBE_NXZ
	DD	FLAT:?AddChild@ioWnd@@UAEXPAV1@@Z
	DD	FLAT:?DeleteChild@ioWnd@@UAEXK@Z
	DD	FLAT:?DeleteAllChild@ioWnd@@UAEXXZ
	DD	FLAT:?OnRenderShowAndHide@ioWnd@@MAE_NXZ
	DD	FLAT:?OnRenderShowAndHideByDefault@ioWnd@@MAE_NK@Z
	DD	FLAT:?OnRenderShowAndHideByTop@ioWnd@@MAE_NK@Z
	DD	FLAT:?OnRenderShowAndHideByDown@ioWnd@@MAE_NK@Z
	DD	FLAT:?OnRender@InvenFourExtraCompoundBuyResultWnd@@MAEXXZ
	DD	FLAT:?OnRenderAfterChild@InvenFourExtraCompoundBuyResultWnd@@MAEXXZ
	DD	FLAT:?OnProcess@InvenFourExtraCompoundBuyResultWnd@@MAEXM@Z
	DD	FLAT:?OnMouseProcess@ioWnd@@MAEXABVioMouse@@@Z
	DD	FLAT:?CheckFrameReSize@ioWnd@@MAEXHHHH@Z
	DD	FLAT:?RenderImageList@ioWnd@@MAEXHHW4UIRenderType@@@Z
	DD	FLAT:?iwm_create@InvenFourExtraCompoundBuyResultWnd@@UAEXXZ
	DD	FLAT:?iwm_destroy@ioWnd@@UAEXXZ
	DD	FLAT:?iwm_lbuttondown@ioWnd@@UAEXABVioMouse@@@Z
	DD	FLAT:?iwm_lbuttonup@ioWnd@@UAEXABVioMouse@@@Z
	DD	FLAT:?iwm_lbuttonDBLCLK@ioWnd@@UAEXABVioMouse@@@Z
	DD	FLAT:?iwm_rbuttondown@ioWnd@@UAEXABVioMouse@@@Z
	DD	FLAT:?iwm_rbuttonup@ioWnd@@UAEXABVioMouse@@@Z
	DD	FLAT:?iwm_command@InvenFourExtraCompoundBuyResultWnd@@UAEXPAVioWnd@@HK@Z
	DD	FLAT:?iwm_mouseover@ioWnd@@UAEXABVioMouse@@@Z
	DD	FLAT:?iwm_mousemove@ioWnd@@UAEXABVioMouse@@@Z
	DD	FLAT:?iwm_mouseleave@ioWnd@@UAEXABVioMouse@@@Z
	DD	FLAT:?iwm_vscroll@ioWnd@@UAEXKH@Z
	DD	FLAT:?iwm_wheel@ioWnd@@UAEXH@Z
	DD	FLAT:?iwm_show@ioWnd@@UAEXXZ
	DD	FLAT:?iwm_hide@InvenFourExtraCompoundBuyResultWnd@@UAEXXZ
	DD	FLAT:?iwm_esc@ioWnd@@UAE_NXZ
	DD	FLAT:?iwm_spacebar@ioWnd@@UAE_NXZ
	DD	FLAT:?iwm_gototop@ioWnd@@UAEXXZ
	DD	FLAT:?iwm_dragenter@ioWnd@@UAE?AW4IWDropEffect@@PAVioDragItem@@ABVioMouse@@@Z
	DD	FLAT:?iwm_dragover@ioWnd@@UAE?AW4IWDropEffect@@PAVioDragItem@@ABVioMouse@@@Z
	DD	FLAT:?iwm_dragleave@ioWnd@@UAEXXZ
	DD	FLAT:?iwm_dropitem@ioWnd@@UAE_NPAVioDragItem@@ABVioMouse@@PAV1@@Z
	DD	FLAT:?iwm_dropdone@ioWnd@@UAEXPAVioDragItem@@PAV1@_N@Z
	DD	FLAT:?IsEXType@ioWnd@@UBE_NXZ
	DD	FLAT:?GetWndType@ioWnd@@UBEKXZ
	DD	FLAT:?RenderWnd@ioWnd@@UAEXXZ
	DD	FLAT:?SetIDEX@ioWnd@@UAEXAAK_N@Z
	DD	FLAT:?ParseXML@ioWnd@@UAEXAAVioXMLElement@@@Z
	DD	FLAT:?GetHeaderFileName@ioWnd@@UAEPBDXZ
	DD	FLAT:?GetTemplateName@ioWnd@@UAEPBDXZ
	DD	FLAT:?GetDefClassName@ioWnd@@UBEPBDXZ
	DD	FLAT:?_Clone@ioWnd@@UAEPAV1@XZ
	DD	FLAT:?Copy@ioWnd@@UAEXPAV1@@Z
	DD	FLAT:?Save@ioWnd@@UAE_NAAVioXMLElement@@@Z
	DD	FLAT:?SetSaveData@ioWnd@@UAEXAAVioXMLElement@@@Z
	DD	FLAT:?SetPosX@ioWnd@@UAEXH@Z
	DD	FLAT:?SetPosY@ioWnd@@UAEXH@Z
	DD	FLAT:?SetWidth@ioWnd@@UAEXH@Z
	DD	FLAT:?SetHeight@ioWnd@@UAEXH@Z
	DD	FLAT:?GetNumFixedRenderFrame@ioWnd@@UBEHXZ
	DD	FLAT:?GetFixedRenderFrameType@ioWnd@@UAEPBDH@Z
	DD	FLAT:?GetRenderFrame@ioWnd@@UAEPAPAVioUIRenderElement@@PBD@Z
	DD	FLAT:?GetNumFixedRenderImage@ioWnd@@UBEHXZ
	DD	FLAT:?GetFixedRenderImageType@ioWnd@@UAEPBDH@Z
	DD	FLAT:?GetRenderImage@ioWnd@@UAEPAPAVioUIRenderElement@@PBD@Z
	DD	FLAT:?AddEffect@ioWnd@@UAEXABVioHashString@@PAVioUI3DEffectRender@@@Z
	DD	FLAT:?GetEffect@ioWnd@@UAEPAVioUI3DEffectRender@@VioHashString@@@Z
	DD	FLAT:??_EInvenFourExtraCompoundBuyResultWnd@@UAEPAXI@Z
CONST	ENDS
;	COMDAT xdata$x
xdata$x	SEGMENT
__ehfuncinfo$??0InvenFourExtraCompoundBuyResultWnd@@QAE@XZ DD 019930522H
	DD	0cH
	DD	FLAT:__unwindtable$??0InvenFourExtraCompoundBuyResultWnd@@QAE@XZ
	DD	2 DUP(00H)
	DD	2 DUP(00H)
	DD	00H
	DD	01H
__unwindtable$??0InvenFourExtraCompoundBuyResultWnd@@QAE@XZ DD 0ffffffffH
	DD	FLAT:__unwindfunclet$??0InvenFourExtraCompoundBuyResultWnd@@QAE@XZ$0
	DD	00H
	DD	FLAT:__unwindfunclet$??0InvenFourExtraCompoundBuyResultWnd@@QAE@XZ$1
	DD	01H
	DD	FLAT:__unwindfunclet$??0InvenFourExtraCompoundBuyResultWnd@@QAE@XZ$2
	DD	02H
	DD	FLAT:__unwindfunclet$??0InvenFourExtraCompoundBuyResultWnd@@QAE@XZ$3
	DD	03H
	DD	FLAT:__unwindfunclet$??0InvenFourExtraCompoundBuyResultWnd@@QAE@XZ$4
	DD	04H
	DD	FLAT:__unwindfunclet$??0InvenFourExtraCompoundBuyResultWnd@@QAE@XZ$5
	DD	05H
	DD	FLAT:__unwindfunclet$??0InvenFourExtraCompoundBuyResultWnd@@QAE@XZ$6
	DD	06H
	DD	FLAT:__unwindfunclet$??0InvenFourExtraCompoundBuyResultWnd@@QAE@XZ$7
	DD	07H
	DD	FLAT:__unwindfunclet$??0InvenFourExtraCompoundBuyResultWnd@@QAE@XZ$8
	DD	08H
	DD	FLAT:__unwindfunclet$??0InvenFourExtraCompoundBuyResultWnd@@QAE@XZ$9
	DD	09H
	DD	FLAT:__unwindfunclet$??0InvenFourExtraCompoundBuyResultWnd@@QAE@XZ$10
	DD	0aH
	DD	FLAT:__unwindfunclet$??0InvenFourExtraCompoundBuyResultWnd@@QAE@XZ$11
; Function compile flags: /Ogsp
; File d:\lost saga for developer\youtube\tutorial\source\src\lsclient\gui\invenfourextracompoundwnd.cpp
xdata$x	ENDS
;	COMDAT ??0InvenFourExtraCompoundBuyResultWnd@@QAE@XZ
_TEXT	SEGMENT
_this$ = -16						; size = 4
__$EHRec$ = -12						; size = 12
??0InvenFourExtraCompoundBuyResultWnd@@QAE@XZ PROC	; InvenFourExtraCompoundBuyResultWnd::InvenFourExtraCompoundBuyResultWnd, COMDAT
; _this$ = ecx

; 685  : {

  00000	6a 04		 push	 4
  00002	b8 00 00 00 00	 mov	 eax, __ehhandler$??0InvenFourExtraCompoundBuyResultWnd@@QAE@XZ
  00007	e8 00 00 00 00	 call	 __EH_prolog3
  0000c	8b f1		 mov	 esi, ecx
  0000e	89 75 f0	 mov	 DWORD PTR _this$[ebp], esi
  00011	ff 15 00 00 00
	00		 call	 DWORD PTR __imp_??0ioWnd@@QAE@XZ
  00017	33 db		 xor	 ebx, ebx
  00019	c7 06 00 00 00
	00		 mov	 DWORD PTR [esi], OFFSET ??_7InvenFourExtraCompoundBuyResultWnd@@6B@
  0001f	89 5d fc	 mov	 DWORD PTR __$EHRec$[ebp+8], ebx
  00022	89 9e 64 01 00
	00		 mov	 DWORD PTR [esi+356], ebx
  00028	89 9e 68 01 00
	00		 mov	 DWORD PTR [esi+360], ebx
  0002e	89 9e 6c 01 00
	00		 mov	 DWORD PTR [esi+364], ebx
  00034	89 9e 74 01 00
	00		 mov	 DWORD PTR [esi+372], ebx
  0003a	89 9e 78 01 00
	00		 mov	 DWORD PTR [esi+376], ebx
  00040	89 9e 7c 01 00
	00		 mov	 DWORD PTR [esi+380], ebx
  00046	8b 3d 00 00 00
	00		 mov	 edi, DWORD PTR __imp_??0ioHashString@@QAE@XZ
  0004c	8d 8e a0 01 00
	00		 lea	 ecx, DWORD PTR [esi+416]
  00052	c6 45 fc 02	 mov	 BYTE PTR __$EHRec$[ebp+8], 2
  00056	ff d7		 call	 edi
  00058	8d 8e b0 01 00
	00		 lea	 ecx, DWORD PTR [esi+432]
  0005e	c6 45 fc 03	 mov	 BYTE PTR __$EHRec$[ebp+8], 3
  00062	ff d7		 call	 edi
  00064	8d 8e c0 01 00
	00		 lea	 ecx, DWORD PTR [esi+448]
  0006a	c6 45 fc 04	 mov	 BYTE PTR __$EHRec$[ebp+8], 4
  0006e	ff d7		 call	 edi
  00070	8d 8e d0 01 00
	00		 lea	 ecx, DWORD PTR [esi+464]
  00076	c6 45 fc 05	 mov	 BYTE PTR __$EHRec$[ebp+8], 5
  0007a	ff d7		 call	 edi
  0007c	8d 8e e0 01 00
	00		 lea	 ecx, DWORD PTR [esi+480]
  00082	c6 45 fc 06	 mov	 BYTE PTR __$EHRec$[ebp+8], 6
  00086	ff d7		 call	 edi
  00088	8d 8e f0 01 00
	00		 lea	 ecx, DWORD PTR [esi+496]
  0008e	c6 45 fc 07	 mov	 BYTE PTR __$EHRec$[ebp+8], 7
  00092	ff d7		 call	 edi
  00094	8d 8e 00 02 00
	00		 lea	 ecx, DWORD PTR [esi+512]
  0009a	c6 45 fc 08	 mov	 BYTE PTR __$EHRec$[ebp+8], 8
  0009e	ff d7		 call	 edi
  000a0	8d 8e 14 02 00
	00		 lea	 ecx, DWORD PTR [esi+532]
  000a6	c6 45 fc 09	 mov	 BYTE PTR __$EHRec$[ebp+8], 9
  000aa	ff d7		 call	 edi
  000ac	8d 8e 24 02 00
	00		 lea	 ecx, DWORD PTR [esi+548]
  000b2	c6 45 fc 0a	 mov	 BYTE PTR __$EHRec$[ebp+8], 10 ; 0000000aH
  000b6	ff d7		 call	 edi
  000b8	8d 8e 38 02 00
	00		 lea	 ecx, DWORD PTR [esi+568]
  000be	c6 45 fc 0b	 mov	 BYTE PTR __$EHRec$[ebp+8], 11 ; 0000000bH
  000c2	e8 00 00 00 00	 call	 ??0CHARACTER@@QAE@XZ	; CHARACTER::CHARACTER

; 686  : 	m_pEffect     = NULL;

  000c7	89 9e 60 01 00
	00		 mov	 DWORD PTR [esi+352], ebx

; 687  : 
; 688  : 	m_bResult = false;

  000cd	66 89 9e 10 02
	00 00		 mov	 WORD PTR [esi+528], bx

; 689  : 	m_bSuccess = false;
; 690  : 
; 691  : 	m_dwEtcItemType = 0;

  000d4	89 9e 34 02 00
	00		 mov	 DWORD PTR [esi+564], ebx

; 692  : }

  000da	8b c6		 mov	 eax, esi
  000dc	e8 00 00 00 00	 call	 __EH_epilog3
  000e1	c3		 ret	 0
_TEXT	ENDS
;	COMDAT text$x
text$x	SEGMENT
__unwindfunclet$??0InvenFourExtraCompoundBuyResultWnd@@QAE@XZ$0:
  00000	8b 4d f0	 mov	 ecx, DWORD PTR _this$[ebp]
  00003	ff 25 00 00 00
	00		 jmp	 DWORD PTR __imp_??1ioWnd@@UAE@XZ
__unwindfunclet$??0InvenFourExtraCompoundBuyResultWnd@@QAE@XZ$1:
  00009	8b 4d f0	 mov	 ecx, DWORD PTR _this$[ebp]
  0000c	81 c1 64 01 00
	00		 add	 ecx, 356		; 00000164H
  00012	e9 00 00 00 00	 jmp	 ??1?$vector@VioHashString@@V?$allocator@VioHashString@@@std@@@std@@QAE@XZ ; std::vector<ioHashString,std::allocator<ioHashString> >::~vector<ioHashString,std::allocator<ioHashString> >
__unwindfunclet$??0InvenFourExtraCompoundBuyResultWnd@@QAE@XZ$2:
  00017	8b 4d f0	 mov	 ecx, DWORD PTR _this$[ebp]
  0001a	81 c1 74 01 00
	00		 add	 ecx, 372		; 00000174H
  00020	e9 00 00 00 00	 jmp	 ??1?$vector@VioHashString@@V?$allocator@VioHashString@@@std@@@std@@QAE@XZ ; std::vector<ioHashString,std::allocator<ioHashString> >::~vector<ioHashString,std::allocator<ioHashString> >
__unwindfunclet$??0InvenFourExtraCompoundBuyResultWnd@@QAE@XZ$3:
  00025	8b 4d f0	 mov	 ecx, DWORD PTR _this$[ebp]
  00028	81 c1 a0 01 00
	00		 add	 ecx, 416		; 000001a0H
  0002e	ff 25 00 00 00
	00		 jmp	 DWORD PTR __imp_??1ioHashString@@QAE@XZ
__unwindfunclet$??0InvenFourExtraCompoundBuyResultWnd@@QAE@XZ$4:
  00034	8b 4d f0	 mov	 ecx, DWORD PTR _this$[ebp]
  00037	81 c1 b0 01 00
	00		 add	 ecx, 432		; 000001b0H
  0003d	ff 25 00 00 00
	00		 jmp	 DWORD PTR __imp_??1ioHashString@@QAE@XZ
__unwindfunclet$??0InvenFourExtraCompoundBuyResultWnd@@QAE@XZ$5:
  00043	8b 4d f0	 mov	 ecx, DWORD PTR _this$[ebp]
  00046	81 c1 c0 01 00
	00		 add	 ecx, 448		; 000001c0H
  0004c	ff 25 00 00 00
	00		 jmp	 DWORD PTR __imp_??1ioHashString@@QAE@XZ
__unwindfunclet$??0InvenFourExtraCompoundBuyResultWnd@@QAE@XZ$6:
  00052	8b 4d f0	 mov	 ecx, DWORD PTR _this$[ebp]
  00055	81 c1 d0 01 00
	00		 add	 ecx, 464		; 000001d0H
  0005b	ff 25 00 00 00
	00		 jmp	 DWORD PTR __imp_??1ioHashString@@QAE@XZ
__unwindfunclet$??0InvenFourExtraCompoundBuyResultWnd@@QAE@XZ$7:
  00061	8b 4d f0	 mov	 ecx, DWORD PTR _this$[ebp]
  00064	81 c1 e0 01 00
	00		 add	 ecx, 480		; 000001e0H
  0006a	ff 25 00 00 00
	00		 jmp	 DWORD PTR __imp_??1ioHashString@@QAE@XZ
__unwindfunclet$??0InvenFourExtraCompoundBuyResultWnd@@QAE@XZ$8:
  00070	8b 4d f0	 mov	 ecx, DWORD PTR _this$[ebp]
  00073	81 c1 f0 01 00
	00		 add	 ecx, 496		; 000001f0H
  00079	ff 25 00 00 00
	00		 jmp	 DWORD PTR __imp_??1ioHashString@@QAE@XZ
__unwindfunclet$??0InvenFourExtraCompoundBuyResultWnd@@QAE@XZ$9:
  0007f	8b 4d f0	 mov	 ecx, DWORD PTR _this$[ebp]
  00082	81 c1 00 02 00
	00		 add	 ecx, 512		; 00000200H
  00088	ff 25 00 00 00
	00		 jmp	 DWORD PTR __imp_??1ioHashString@@QAE@XZ
__unwindfunclet$??0InvenFourExtraCompoundBuyResultWnd@@QAE@XZ$10:
  0008e	8b 4d f0	 mov	 ecx, DWORD PTR _this$[ebp]
  00091	81 c1 14 02 00
	00		 add	 ecx, 532		; 00000214H
  00097	ff 25 00 00 00
	00		 jmp	 DWORD PTR __imp_??1ioHashString@@QAE@XZ
__unwindfunclet$??0InvenFourExtraCompoundBuyResultWnd@@QAE@XZ$11:
  0009d	8b 4d f0	 mov	 ecx, DWORD PTR _this$[ebp]
  000a0	81 c1 24 02 00
	00		 add	 ecx, 548		; 00000224H
  000a6	ff 25 00 00 00
	00		 jmp	 DWORD PTR __imp_??1ioHashString@@QAE@XZ
__ehhandler$??0InvenFourExtraCompoundBuyResultWnd@@QAE@XZ:
  000ac	8b 54 24 08	 mov	 edx, DWORD PTR [esp+8]
  000b0	8d 42 0c	 lea	 eax, DWORD PTR [edx+12]
  000b3	8b 4a ec	 mov	 ecx, DWORD PTR [edx-20]
  000b6	33 c8		 xor	 ecx, eax
  000b8	e8 00 00 00 00	 call	 @__security_check_cookie@4
  000bd	b8 00 00 00 00	 mov	 eax, OFFSET __ehfuncinfo$??0InvenFourExtraCompoundBuyResultWnd@@QAE@XZ
  000c2	e9 00 00 00 00	 jmp	 ___CxxFrameHandler3
text$x	ENDS
??0InvenFourExtraCompoundBuyResultWnd@@QAE@XZ ENDP	; InvenFourExtraCompoundBuyResultWnd::InvenFourExtraCompoundBuyResultWnd
PUBLIC	??1InvenFourExtraCompoundBuyResultWnd@@UAE@XZ	; InvenFourExtraCompoundBuyResultWnd::~InvenFourExtraCompoundBuyResultWnd
;	COMDAT xdata$x
; File c:\program files (x86)\microsoft visual studio 10.0\vc\include\vector
xdata$x	SEGMENT
__ehfuncinfo$??1InvenFourExtraCompoundBuyResultWnd@@UAE@XZ DD 019930522H
	DD	0dH
	DD	FLAT:__unwindtable$??1InvenFourExtraCompoundBuyResultWnd@@UAE@XZ
	DD	2 DUP(00H)
	DD	2 DUP(00H)
	DD	00H
	DD	01H
__unwindtable$??1InvenFourExtraCompoundBuyResultWnd@@UAE@XZ DD 0ffffffffH
	DD	FLAT:__unwindfunclet$??1InvenFourExtraCompoundBuyResultWnd@@UAE@XZ$0
	DD	00H
	DD	FLAT:__unwindfunclet$??1InvenFourExtraCompoundBuyResultWnd@@UAE@XZ$1
	DD	01H
	DD	FLAT:__unwindfunclet$??1InvenFourExtraCompoundBuyResultWnd@@UAE@XZ$2
	DD	02H
	DD	FLAT:__unwindfunclet$??1InvenFourExtraCompoundBuyResultWnd@@UAE@XZ$3
	DD	03H
	DD	FLAT:__unwindfunclet$??1InvenFourExtraCompoundBuyResultWnd@@UAE@XZ$4
	DD	04H
	DD	FLAT:__unwindfunclet$??1InvenFourExtraCompoundBuyResultWnd@@UAE@XZ$5
	DD	05H
	DD	FLAT:__unwindfunclet$??1InvenFourExtraCompoundBuyResultWnd@@UAE@XZ$6
	DD	06H
	DD	FLAT:__unwindfunclet$??1InvenFourExtraCompoundBuyResultWnd@@UAE@XZ$7
	DD	07H
	DD	FLAT:__unwindfunclet$??1InvenFourExtraCompoundBuyResultWnd@@UAE@XZ$8
	DD	08H
	DD	FLAT:__unwindfunclet$??1InvenFourExtraCompoundBuyResultWnd@@UAE@XZ$9
	DD	09H
	DD	FLAT:__unwindfunclet$??1InvenFourExtraCompoundBuyResultWnd@@UAE@XZ$10
	DD	0aH
	DD	FLAT:__unwindfunclet$??1InvenFourExtraCompoundBuyResultWnd@@UAE@XZ$11
	DD	0bH
	DD	FLAT:__unwindfunclet$??1InvenFourExtraCompoundBuyResultWnd@@UAE@XZ$12
; Function compile flags: /Ogsp
; File d:\lost saga for developer\youtube\tutorial\source\src\lsclient\gui\invenfourextracompoundwnd.cpp
xdata$x	ENDS
;	COMDAT ??1InvenFourExtraCompoundBuyResultWnd@@UAE@XZ
_TEXT	SEGMENT
$T520027 = -20						; size = 4
$T519947 = -20						; size = 4
_this$ = -16						; size = 4
__$EHRec$ = -12						; size = 12
??1InvenFourExtraCompoundBuyResultWnd@@UAE@XZ PROC	; InvenFourExtraCompoundBuyResultWnd::~InvenFourExtraCompoundBuyResultWnd, COMDAT
; _this$ = ecx

; 695  : {

  00000	6a 08		 push	 8
  00002	b8 00 00 00 00	 mov	 eax, __ehhandler$??1InvenFourExtraCompoundBuyResultWnd@@UAE@XZ
  00007	e8 00 00 00 00	 call	 __EH_prolog3
  0000c	8b f1		 mov	 esi, ecx
  0000e	89 75 f0	 mov	 DWORD PTR _this$[ebp], esi
  00011	c7 06 00 00 00
	00		 mov	 DWORD PTR [esi], OFFSET ??_7InvenFourExtraCompoundBuyResultWnd@@6B@

; 696  : 	SAFEDELETE( m_pEffect );

  00017	8b 8e 60 01 00
	00		 mov	 ecx, DWORD PTR [esi+352]
  0001d	c7 45 fc 0c 00
	00 00		 mov	 DWORD PTR __$EHRec$[ebp+8], 12 ; 0000000cH
  00024	85 c9		 test	 ecx, ecx
  00026	74 0e		 je	 SHORT $LN1@InvenFourE@3
  00028	8b 01		 mov	 eax, DWORD PTR [ecx]
  0002a	6a 01		 push	 1
  0002c	ff 50 40	 call	 DWORD PTR [eax+64]
  0002f	83 a6 60 01 00
	00 00		 and	 DWORD PTR [esi+352], 0
$LN1@InvenFourE@3:

; 697  : 
; 698  : 	m_vSuccessEfffect.clear();

  00036	8b 86 68 01 00
	00		 mov	 eax, DWORD PTR [esi+360]
  0003c	8b 8e 64 01 00
	00		 mov	 ecx, DWORD PTR [esi+356]
  00042	50		 push	 eax
  00043	51		 push	 ecx
  00044	8d 45 ec	 lea	 eax, DWORD PTR $T519947[ebp]
  00047	50		 push	 eax
  00048	8d 8e 64 01 00
	00		 lea	 ecx, DWORD PTR [esi+356]
  0004e	e8 00 00 00 00	 call	 ?erase@?$vector@VioHashString@@V?$allocator@VioHashString@@@std@@@std@@QAE?AV?$_Vector_iterator@V?$_Vector_val@VioHashString@@V?$allocator@VioHashString@@@std@@@std@@@2@V?$_Vector_const_iterator@V?$_Vector_val@VioHashString@@V?$allocator@VioHashString@@@std@@@std@@@2@0@Z ; std::vector<ioHashString,std::allocator<ioHashString> >::erase

; 699  : 	m_vFailEfffect.clear();

  00053	8d 8e 74 01 00
	00		 lea	 ecx, DWORD PTR [esi+372]
  00059	8b 41 04	 mov	 eax, DWORD PTR [ecx+4]
  0005c	8b 11		 mov	 edx, DWORD PTR [ecx]
  0005e	50		 push	 eax
  0005f	52		 push	 edx
  00060	8d 45 ec	 lea	 eax, DWORD PTR $T520027[ebp]
  00063	50		 push	 eax
  00064	e8 00 00 00 00	 call	 ?erase@?$vector@VioHashString@@V?$allocator@VioHashString@@@std@@@std@@QAE?AV?$_Vector_iterator@V?$_Vector_val@VioHashString@@V?$allocator@VioHashString@@@std@@@std@@@2@V?$_Vector_const_iterator@V?$_Vector_val@VioHashString@@V?$allocator@VioHashString@@@std@@@std@@@2@0@Z ; std::vector<ioHashString,std::allocator<ioHashString> >::erase

; 700  : }

  00069	8d 8e 38 02 00
	00		 lea	 ecx, DWORD PTR [esi+568]
  0006f	c6 45 fc 0b	 mov	 BYTE PTR __$EHRec$[ebp+8], 11 ; 0000000bH
  00073	e8 00 00 00 00	 call	 ??1CHARACTER@@QAE@XZ
  00078	8b 3d 00 00 00
	00		 mov	 edi, DWORD PTR __imp_??1ioHashString@@QAE@XZ
  0007e	8d 8e 24 02 00
	00		 lea	 ecx, DWORD PTR [esi+548]
  00084	c6 45 fc 0a	 mov	 BYTE PTR __$EHRec$[ebp+8], 10 ; 0000000aH
  00088	ff d7		 call	 edi
  0008a	8d 8e 14 02 00
	00		 lea	 ecx, DWORD PTR [esi+532]
  00090	c6 45 fc 09	 mov	 BYTE PTR __$EHRec$[ebp+8], 9
  00094	ff d7		 call	 edi
  00096	8d 8e 00 02 00
	00		 lea	 ecx, DWORD PTR [esi+512]
  0009c	c6 45 fc 08	 mov	 BYTE PTR __$EHRec$[ebp+8], 8
  000a0	ff d7		 call	 edi
  000a2	8d 8e f0 01 00
	00		 lea	 ecx, DWORD PTR [esi+496]
  000a8	c6 45 fc 07	 mov	 BYTE PTR __$EHRec$[ebp+8], 7
  000ac	ff d7		 call	 edi
  000ae	8d 8e e0 01 00
	00		 lea	 ecx, DWORD PTR [esi+480]
  000b4	c6 45 fc 06	 mov	 BYTE PTR __$EHRec$[ebp+8], 6
  000b8	ff d7		 call	 edi
  000ba	8d 8e d0 01 00
	00		 lea	 ecx, DWORD PTR [esi+464]
  000c0	c6 45 fc 05	 mov	 BYTE PTR __$EHRec$[ebp+8], 5
  000c4	ff d7		 call	 edi
  000c6	8d 8e c0 01 00
	00		 lea	 ecx, DWORD PTR [esi+448]
  000cc	c6 45 fc 04	 mov	 BYTE PTR __$EHRec$[ebp+8], 4
  000d0	ff d7		 call	 edi
  000d2	8d 8e b0 01 00
	00		 lea	 ecx, DWORD PTR [esi+432]
  000d8	c6 45 fc 03	 mov	 BYTE PTR __$EHRec$[ebp+8], 3
  000dc	ff d7		 call	 edi
  000de	8d 8e a0 01 00
	00		 lea	 ecx, DWORD PTR [esi+416]
  000e4	c6 45 fc 02	 mov	 BYTE PTR __$EHRec$[ebp+8], 2
  000e8	ff d7		 call	 edi
  000ea	8d 8e 74 01 00
	00		 lea	 ecx, DWORD PTR [esi+372]
  000f0	c6 45 fc 01	 mov	 BYTE PTR __$EHRec$[ebp+8], 1
  000f4	e8 00 00 00 00	 call	 ?_Tidy@?$vector@VioHashString@@V?$allocator@VioHashString@@@std@@@std@@IAEXXZ ; std::vector<ioHashString,std::allocator<ioHashString> >::_Tidy
  000f9	8d 8e 64 01 00
	00		 lea	 ecx, DWORD PTR [esi+356]
  000ff	c6 45 fc 00	 mov	 BYTE PTR __$EHRec$[ebp+8], 0
  00103	e8 00 00 00 00	 call	 ?_Tidy@?$vector@VioHashString@@V?$allocator@VioHashString@@@std@@@std@@IAEXXZ ; std::vector<ioHashString,std::allocator<ioHashString> >::_Tidy
  00108	83 4d fc ff	 or	 DWORD PTR __$EHRec$[ebp+8], -1
  0010c	8b ce		 mov	 ecx, esi
  0010e	ff 15 00 00 00
	00		 call	 DWORD PTR __imp_??1ioWnd@@UAE@XZ
  00114	e8 00 00 00 00	 call	 __EH_epilog3
  00119	c3		 ret	 0
_TEXT	ENDS
;	COMDAT text$x
text$x	SEGMENT
__unwindfunclet$??1InvenFourExtraCompoundBuyResultWnd@@UAE@XZ$0:
  00000	8b 4d f0	 mov	 ecx, DWORD PTR _this$[ebp]
  00003	ff 25 00 00 00
	00		 jmp	 DWORD PTR __imp_??1ioWnd@@UAE@XZ
__unwindfunclet$??1InvenFourExtraCompoundBuyResultWnd@@UAE@XZ$1:
  00009	8b 4d f0	 mov	 ecx, DWORD PTR _this$[ebp]
  0000c	81 c1 64 01 00
	00		 add	 ecx, 356		; 00000164H
  00012	e9 00 00 00 00	 jmp	 ??1?$vector@VioHashString@@V?$allocator@VioHashString@@@std@@@std@@QAE@XZ ; std::vector<ioHashString,std::allocator<ioHashString> >::~vector<ioHashString,std::allocator<ioHashString> >
__unwindfunclet$??1InvenFourExtraCompoundBuyResultWnd@@UAE@XZ$2:
  00017	8b 4d f0	 mov	 ecx, DWORD PTR _this$[ebp]
  0001a	81 c1 74 01 00
	00		 add	 ecx, 372		; 00000174H
  00020	e9 00 00 00 00	 jmp	 ??1?$vector@VioHashString@@V?$allocator@VioHashString@@@std@@@std@@QAE@XZ ; std::vector<ioHashString,std::allocator<ioHashString> >::~vector<ioHashString,std::allocator<ioHashString> >
__unwindfunclet$??1InvenFourExtraCompoundBuyResultWnd@@UAE@XZ$3:
  00025	8b 4d f0	 mov	 ecx, DWORD PTR _this$[ebp]
  00028	81 c1 a0 01 00
	00		 add	 ecx, 416		; 000001a0H
  0002e	ff 25 00 00 00
	00		 jmp	 DWORD PTR __imp_??1ioHashString@@QAE@XZ
__unwindfunclet$??1InvenFourExtraCompoundBuyResultWnd@@UAE@XZ$4:
  00034	8b 4d f0	 mov	 ecx, DWORD PTR _this$[ebp]
  00037	81 c1 b0 01 00
	00		 add	 ecx, 432		; 000001b0H
  0003d	ff 25 00 00 00
	00		 jmp	 DWORD PTR __imp_??1ioHashString@@QAE@XZ
__unwindfunclet$??1InvenFourExtraCompoundBuyResultWnd@@UAE@XZ$5:
  00043	8b 4d f0	 mov	 ecx, DWORD PTR _this$[ebp]
  00046	81 c1 c0 01 00
	00		 add	 ecx, 448		; 000001c0H
  0004c	ff 25 00 00 00
	00		 jmp	 DWORD PTR __imp_??1ioHashString@@QAE@XZ
__unwindfunclet$??1InvenFourExtraCompoundBuyResultWnd@@UAE@XZ$6:
  00052	8b 4d f0	 mov	 ecx, DWORD PTR _this$[ebp]
  00055	81 c1 d0 01 00
	00		 add	 ecx, 464		; 000001d0H
  0005b	ff 25 00 00 00
	00		 jmp	 DWORD PTR __imp_??1ioHashString@@QAE@XZ
__unwindfunclet$??1InvenFourExtraCompoundBuyResultWnd@@UAE@XZ$7:
  00061	8b 4d f0	 mov	 ecx, DWORD PTR _this$[ebp]
  00064	81 c1 e0 01 00
	00		 add	 ecx, 480		; 000001e0H
  0006a	ff 25 00 00 00
	00		 jmp	 DWORD PTR __imp_??1ioHashString@@QAE@XZ
__unwindfunclet$??1InvenFourExtraCompoundBuyResultWnd@@UAE@XZ$8:
  00070	8b 4d f0	 mov	 ecx, DWORD PTR _this$[ebp]
  00073	81 c1 f0 01 00
	00		 add	 ecx, 496		; 000001f0H
  00079	ff 25 00 00 00
	00		 jmp	 DWORD PTR __imp_??1ioHashString@@QAE@XZ
__unwindfunclet$??1InvenFourExtraCompoundBuyResultWnd@@UAE@XZ$9:
  0007f	8b 4d f0	 mov	 ecx, DWORD PTR _this$[ebp]
  00082	81 c1 00 02 00
	00		 add	 ecx, 512		; 00000200H
  00088	ff 25 00 00 00
	00		 jmp	 DWORD PTR __imp_??1ioHashString@@QAE@XZ
__unwindfunclet$??1InvenFourExtraCompoundBuyResultWnd@@UAE@XZ$10:
  0008e	8b 4d f0	 mov	 ecx, DWORD PTR _this$[ebp]
  00091	81 c1 14 02 00
	00		 add	 ecx, 532		; 00000214H
  00097	ff 25 00 00 00
	00		 jmp	 DWORD PTR __imp_??1ioHashString@@QAE@XZ
__unwindfunclet$??1InvenFourExtraCompoundBuyResultWnd@@UAE@XZ$11:
  0009d	8b 4d f0	 mov	 ecx, DWORD PTR _this$[ebp]
  000a0	81 c1 24 02 00
	00		 add	 ecx, 548		; 00000224H
  000a6	ff 25 00 00 00
	00		 jmp	 DWORD PTR __imp_??1ioHashString@@QAE@XZ
__unwindfunclet$??1InvenFourExtraCompoundBuyResultWnd@@UAE@XZ$12:
  000ac	8b 4d f0	 mov	 ecx, DWORD PTR _this$[ebp]
  000af	81 c1 38 02 00
	00		 add	 ecx, 568		; 00000238H
  000b5	e9 00 00 00 00	 jmp	 ??1CHARACTER@@QAE@XZ
__ehhandler$??1InvenFourExtraCompoundBuyResultWnd@@UAE@XZ:
  000ba	8b 54 24 08	 mov	 edx, DWORD PTR [esp+8]
  000be	8d 42 0c	 lea	 eax, DWORD PTR [edx+12]
  000c1	8b 4a e8	 mov	 ecx, DWORD PTR [edx-24]
  000c4	33 c8		 xor	 ecx, eax
  000c6	e8 00 00 00 00	 call	 @__security_check_cookie@4
  000cb	b8 00 00 00 00	 mov	 eax, OFFSET __ehfuncinfo$??1InvenFourExtraCompoundBuyResultWnd@@UAE@XZ
  000d0	e9 00 00 00 00	 jmp	 ___CxxFrameHandler3
text$x	ENDS
??1InvenFourExtraCompoundBuyResultWnd@@UAE@XZ ENDP	; InvenFourExtraCompoundBuyResultWnd::~InvenFourExtraCompoundBuyResultWnd
PUBLIC	_xElement$GSCopy$
PUBLIC	_this$GSCopy$
EXTRN	__imp_??0ioHashString@@QAE@PBD@Z:PROC
EXTRN	__imp_?GetStringAttribute@ioXMLElement@@QBEPBDPBD@Z:PROC
EXTRN	__EH_epilog3_GS:PROC
EXTRN	__EH_prolog3_GS:PROC
;	COMDAT xdata$x
; File d:\lost saga for developer\youtube\tutorial\source\src\lsclient\stringprotect.h
xdata$x	SEGMENT
__unwindtable$?ParseExtraInfo@InvenFourExtraCompoundBuyResultWnd@@MAEXAAVioXMLElement@@@Z DD 0ffffffffH
	DD	FLAT:__unwindfunclet$?ParseExtraInfo@InvenFourExtraCompoundBuyResultWnd@@MAEXAAVioXMLElement@@@Z$0
	DD	00H
	DD	FLAT:__unwindfunclet$?ParseExtraInfo@InvenFourExtraCompoundBuyResultWnd@@MAEXAAVioXMLElement@@@Z$1
	DD	00H
	DD	FLAT:__unwindfunclet$?ParseExtraInfo@InvenFourExtraCompoundBuyResultWnd@@MAEXAAVioXMLElement@@@Z$2
__ehfuncinfo$?ParseExtraInfo@InvenFourExtraCompoundBuyResultWnd@@MAEXAAVioXMLElement@@@Z DD 019930522H
	DD	03H
	DD	FLAT:__unwindtable$?ParseExtraInfo@InvenFourExtraCompoundBuyResultWnd@@MAEXAAVioXMLElement@@@Z
	DD	2 DUP(00H)
	DD	2 DUP(00H)
	DD	00H
	DD	01H
; Function compile flags: /Ogsp
; File d:\lost saga for developer\youtube\tutorial\source\src\lsclient\gui\invenfourextracompoundwnd.cpp
xdata$x	ENDS
;	COMDAT ?ParseExtraInfo@InvenFourExtraCompoundBuyResultWnd@@MAEXAAVioXMLElement@@@Z
_TEXT	SEGMENT
_szTemp$ = -620						; size = 16
__t$520865 = -601					; size = 1
__t$520525 = -601					; size = 1
_iMax$ = -596						; size = 4
_this$GSCopy$ = -592					; size = 4
tv11402 = -588						; size = 4
tv11285 = -588						; size = 4
$T520696 = -588						; size = 4
$T520356 = -588						; size = 4
_i$512053 = -588					; size = 4
_i$511885 = -588					; size = 4
_xElement$GSCopy$ = -584				; size = 4
_szName$512057 = -580					; size = 260
_szName$511889 = -580					; size = 260
_szKeyName$ = -320					; size = 260
__k$520989 = -60					; size = 14
_szEffect$512210 = -60					; size = 16
_szEffect$512042 = -60					; size = 16
___encStr$511727 = -60					; size = 15
___encStr$511119 = -60					; size = 14
___encStr$510967 = -60					; size = 14
___encStr$510815 = -60					; size = 14
___encStr$511271 = -56					; size = 11
__k$520742 = -40					; size = 16
__k$520486 = -40					; size = 19
__k$520184 = -40					; size = 16
___encStr$511893 = -40					; size = 18
___encStr$511575 = -40					; size = 17
___encStr$511423 = -40					; size = 16
___encStr$510662 = -40					; size = 17
___encStr$512061 = -36					; size = 15
__$EHRec$ = -12						; size = 12
_xElement$ = 8						; size = 4
?ParseExtraInfo@InvenFourExtraCompoundBuyResultWnd@@MAEXAAVioXMLElement@@@Z PROC ; InvenFourExtraCompoundBuyResultWnd::ParseExtraInfo, COMDAT
; _this$ = ecx

; 725  : {

  00000	68 60 02 00 00	 push	 608			; 00000260H
  00005	b8 00 00 00 00	 mov	 eax, __ehhandler$?ParseExtraInfo@InvenFourExtraCompoundBuyResultWnd@@MAEXAAVioXMLElement@@@Z
  0000a	e8 00 00 00 00	 call	 __EH_prolog3_GS
  0000f	8b 7d 08	 mov	 edi, DWORD PTR _xElement$[ebp]

; 726  : 	char szKeyName[MAX_PATH]="";

  00012	33 db		 xor	 ebx, ebx
  00014	68 03 01 00 00	 push	 259			; 00000103H
  00019	8d 85 c1 fe ff
	ff		 lea	 eax, DWORD PTR _szKeyName$[ebp+1]
  0001f	53		 push	 ebx
  00020	50		 push	 eax
  00021	89 8d b0 fd ff
	ff		 mov	 DWORD PTR _this$GSCopy$[ebp], ecx

; 789  : 
; 790  : 	m_dwBackEffectTime = xElement.GetIntAttribute_e( "Back_Gap_Time" );

  00027	89 bd b8 fd ff
	ff		 mov	 DWORD PTR _xElement$GSCopy$[ebp], edi
  0002d	88 9d c0 fe ff
	ff		 mov	 BYTE PTR _szKeyName$[ebp], bl
  00033	e8 00 00 00 00	 call	 _memset
  00038	83 c4 0c	 add	 esp, 12			; 0000000cH
  0003b	8d 8d 94 fd ff
	ff		 lea	 ecx, DWORD PTR _szTemp$[ebp]
  00041	ff 15 00 00 00
	00		 call	 DWORD PTR __imp_??0ioHashString@@QAE@XZ
  00047	be 04 01 00 00	 mov	 esi, 260		; 00000104H
  0004c	56		 push	 esi
  0004d	8d 85 c0 fe ff
	ff		 lea	 eax, DWORD PTR _szKeyName$[ebp]
  00053	53		 push	 ebx
  00054	50		 push	 eax
  00055	89 5d fc	 mov	 DWORD PTR __$EHRec$[ebp+8], ebx
  00058	e8 00 00 00 00	 call	 _memset
  0005d	83 c4 0c	 add	 esp, 12			; 0000000cH
  00060	6a 04		 push	 4
  00062	c7 45 d8 9f 83
	87 86		 mov	 DWORD PTR ___encStr$510662[ebp], -2037939297 ; 8687839fH
  00069	c7 45 dc 84 82
	8c b5		 mov	 DWORD PTR ___encStr$510662[ebp+4], -1249082748 ; b58c8284H
  00070	c7 45 e0 89 99
	99 8b		 mov	 DWORD PTR ___encStr$510662[ebp+8], -1952867959 ; 8b999989H
  00077	c7 45 e4 99 85
	84 84		 mov	 DWORD PTR ___encStr$510662[ebp+12], -2071689831 ; 84848599H
  0007e	8d 45 d8	 lea	 eax, DWORD PTR ___encStr$510662[ebp]
  00081	88 5d e8	 mov	 BYTE PTR ___encStr$510662[ebp+16], bl
  00084	59		 pop	 ecx
$LL1009@ParseExtra:

; 727  : 	ioHashString szTemp;
; 728  : 
; 729  : 	ZeroMemory( szKeyName, sizeof( szKeyName ) );
; 730  : 	StringCbPrintf_e( szKeyName, sizeof( szKeyName ), "rolling_duration" );

  00085	81 30 ed ec eb
	ea		 xor	 DWORD PTR [eax], -353637139 ; eaebecedH
  0008b	83 c0 04	 add	 eax, 4
  0008e	49		 dec	 ecx
  0008f	75 f4		 jne	 SHORT $LL1009@ParseExtra
  00091	8d 45 d8	 lea	 eax, DWORD PTR ___encStr$510662[ebp]
  00094	50		 push	 eax
  00095	8d 85 c0 fe ff
	ff		 lea	 eax, DWORD PTR _szKeyName$[ebp]
  0009b	56		 push	 esi
  0009c	50		 push	 eax
  0009d	e8 00 00 00 00	 call	 ?StringCbPrintfA@@YAJPADIPBDZZ ; StringCbPrintfA
  000a2	83 c4 0c	 add	 esp, 12			; 0000000cH

; 731  : 	m_dwRollingTotalTime = xElement.GetIntAttribute( szKeyName );

  000a5	8d 85 c0 fe ff
	ff		 lea	 eax, DWORD PTR _szKeyName$[ebp]
  000ab	50		 push	 eax
  000ac	8b cf		 mov	 ecx, edi
  000ae	ff 15 00 00 00
	00		 call	 DWORD PTR __imp_?GetIntAttribute@ioXMLElement@@QBEHPBD@Z
  000b4	8b 8d b0 fd ff
	ff		 mov	 ecx, DWORD PTR _this$GSCopy$[ebp]

; 732  : 
; 733  : 	ZeroMemory( szKeyName, sizeof( szKeyName ) );

  000ba	56		 push	 esi
  000bb	89 81 84 01 00
	00		 mov	 DWORD PTR [ecx+388], eax
  000c1	8d 85 c0 fe ff
	ff		 lea	 eax, DWORD PTR _szKeyName$[ebp]
  000c7	53		 push	 ebx
  000c8	50		 push	 eax
  000c9	e8 00 00 00 00	 call	 _memset
  000ce	83 c4 0c	 add	 esp, 12			; 0000000cH
  000d1	6a 03		 push	 3

; 734  : 	StringCbPrintf_e( szKeyName, sizeof( szKeyName ), "destroy_sound" );

  000d3	c7 45 c4 89 89
	98 9e		 mov	 DWORD PTR ___encStr$510815[ebp], -1634170487 ; 9e988989H
  000da	c7 45 c8 9f 83
	92 b5		 mov	 DWORD PTR ___encStr$510815[ebp+4], -1248689249 ; b592839fH
  000e1	c7 45 cc 9e 83
	9e 84		 mov	 DWORD PTR ___encStr$510815[ebp+8], -2069986402 ; 849e839eH
  000e8	8d 45 c4	 lea	 eax, DWORD PTR ___encStr$510815[ebp]
  000eb	66 c7 45 d0 89
	00		 mov	 WORD PTR ___encStr$510815[ebp+12], 137 ; 00000089H
  000f1	59		 pop	 ecx
$LL1017@ParseExtra:
  000f2	81 30 ed ec eb
	ea		 xor	 DWORD PTR [eax], -353637139 ; eaebecedH
  000f8	83 c0 04	 add	 eax, 4
  000fb	49		 dec	 ecx
  000fc	75 f4		 jne	 SHORT $LL1017@ParseExtra
  000fe	80 75 d0 ed	 xor	 BYTE PTR ___encStr$510815[ebp+12], -19 ; ffffffedH
  00102	8d 45 c4	 lea	 eax, DWORD PTR ___encStr$510815[ebp]
  00105	50		 push	 eax
  00106	8d 85 c0 fe ff
	ff		 lea	 eax, DWORD PTR _szKeyName$[ebp]
  0010c	56		 push	 esi
  0010d	50		 push	 eax
  0010e	e8 00 00 00 00	 call	 ?StringCbPrintfA@@YAJPADIPBDZZ ; StringCbPrintfA

; 735  : 	m_szDestroySound = xElement.GetStringAttribute( szKeyName );

  00113	8b 8d b8 fd ff
	ff		 mov	 ecx, DWORD PTR _xElement$GSCopy$[ebp]
  00119	83 c4 0c	 add	 esp, 12			; 0000000cH
  0011c	8d 85 c0 fe ff
	ff		 lea	 eax, DWORD PTR _szKeyName$[ebp]
  00122	50		 push	 eax
  00123	ff 15 00 00 00
	00		 call	 DWORD PTR __imp_?GetStringAttribute@ioXMLElement@@QBEPBDPBD@Z
  00129	8b 8d b0 fd ff
	ff		 mov	 ecx, DWORD PTR _this$GSCopy$[ebp]
  0012f	8b 3d 00 00 00
	00		 mov	 edi, DWORD PTR __imp_??4ioHashString@@QAEAAV0@PBD@Z
  00135	50		 push	 eax
  00136	81 c1 a0 01 00
	00		 add	 ecx, 416		; 000001a0H
  0013c	ff d7		 call	 edi

; 736  : 
; 737  : 	ZeroMemory( szKeyName, sizeof( szKeyName ) );

  0013e	56		 push	 esi
  0013f	8d 85 c0 fe ff
	ff		 lea	 eax, DWORD PTR _szKeyName$[ebp]
  00145	53		 push	 ebx
  00146	50		 push	 eax
  00147	e8 00 00 00 00	 call	 _memset
  0014c	83 c4 0c	 add	 esp, 12			; 0000000cH
  0014f	6a 03		 push	 3

; 738  : 	StringCbPrintf_e( szKeyName, sizeof( szKeyName ), "rolling_sound" );

  00151	c7 45 c4 9f 83
	87 86		 mov	 DWORD PTR ___encStr$510967[ebp], -2037939297 ; 8687839fH
  00158	c7 45 c8 84 82
	8c b5		 mov	 DWORD PTR ___encStr$510967[ebp+4], -1249082748 ; b58c8284H
  0015f	c7 45 cc 9e 83
	9e 84		 mov	 DWORD PTR ___encStr$510967[ebp+8], -2069986402 ; 849e839eH
  00166	8d 45 c4	 lea	 eax, DWORD PTR ___encStr$510967[ebp]
  00169	66 c7 45 d0 89
	00		 mov	 WORD PTR ___encStr$510967[ebp+12], 137 ; 00000089H
  0016f	59		 pop	 ecx
$LL1025@ParseExtra:
  00170	81 30 ed ec eb
	ea		 xor	 DWORD PTR [eax], -353637139 ; eaebecedH
  00176	83 c0 04	 add	 eax, 4
  00179	49		 dec	 ecx
  0017a	75 f4		 jne	 SHORT $LL1025@ParseExtra
  0017c	80 75 d0 ed	 xor	 BYTE PTR ___encStr$510967[ebp+12], -19 ; ffffffedH
  00180	8d 45 c4	 lea	 eax, DWORD PTR ___encStr$510967[ebp]
  00183	50		 push	 eax
  00184	8d 85 c0 fe ff
	ff		 lea	 eax, DWORD PTR _szKeyName$[ebp]
  0018a	56		 push	 esi
  0018b	50		 push	 eax
  0018c	e8 00 00 00 00	 call	 ?StringCbPrintfA@@YAJPADIPBDZZ ; StringCbPrintfA

; 739  : 	m_szRollingSound = xElement.GetStringAttribute( szKeyName );

  00191	8b 8d b8 fd ff
	ff		 mov	 ecx, DWORD PTR _xElement$GSCopy$[ebp]
  00197	83 c4 0c	 add	 esp, 12			; 0000000cH
  0019a	8d 85 c0 fe ff
	ff		 lea	 eax, DWORD PTR _szKeyName$[ebp]
  001a0	50		 push	 eax
  001a1	ff 15 00 00 00
	00		 call	 DWORD PTR __imp_?GetStringAttribute@ioXMLElement@@QBEPBDPBD@Z
  001a7	8b 8d b0 fd ff
	ff		 mov	 ecx, DWORD PTR _this$GSCopy$[ebp]
  001ad	50		 push	 eax
  001ae	81 c1 b0 01 00
	00		 add	 ecx, 432		; 000001b0H
  001b4	ff d7		 call	 edi

; 740  : 
; 741  : 	ZeroMemory( szKeyName, sizeof( szKeyName ) );

  001b6	56		 push	 esi
  001b7	8d 85 c0 fe ff
	ff		 lea	 eax, DWORD PTR _szKeyName$[ebp]
  001bd	53		 push	 ebx
  001be	50		 push	 eax
  001bf	e8 00 00 00 00	 call	 _memset
  001c4	83 c4 0c	 add	 esp, 12			; 0000000cH
  001c7	6a 03		 push	 3

; 742  : 	StringCbPrintf_e( szKeyName, sizeof( szKeyName ), "success_sound" );

  001c9	c7 45 c4 9e 99
	88 89		 mov	 DWORD PTR ___encStr$511119[ebp], -1987536482 ; 8988999eH
  001d0	c7 45 c8 88 9f
	98 b5		 mov	 DWORD PTR ___encStr$511119[ebp+4], -1248288888 ; b5989f88H
  001d7	c7 45 cc 9e 83
	9e 84		 mov	 DWORD PTR ___encStr$511119[ebp+8], -2069986402 ; 849e839eH
  001de	8d 45 c4	 lea	 eax, DWORD PTR ___encStr$511119[ebp]
  001e1	66 c7 45 d0 89
	00		 mov	 WORD PTR ___encStr$511119[ebp+12], 137 ; 00000089H
  001e7	59		 pop	 ecx
$LL1033@ParseExtra:
  001e8	81 30 ed ec eb
	ea		 xor	 DWORD PTR [eax], -353637139 ; eaebecedH
  001ee	83 c0 04	 add	 eax, 4
  001f1	49		 dec	 ecx
  001f2	75 f4		 jne	 SHORT $LL1033@ParseExtra
  001f4	80 75 d0 ed	 xor	 BYTE PTR ___encStr$511119[ebp+12], -19 ; ffffffedH
  001f8	8d 45 c4	 lea	 eax, DWORD PTR ___encStr$511119[ebp]
  001fb	50		 push	 eax
  001fc	8d 85 c0 fe ff
	ff		 lea	 eax, DWORD PTR _szKeyName$[ebp]
  00202	56		 push	 esi
  00203	50		 push	 eax
  00204	e8 00 00 00 00	 call	 ?StringCbPrintfA@@YAJPADIPBDZZ ; StringCbPrintfA

; 743  : 	m_szSuccessSound = xElement.GetStringAttribute( szKeyName );

  00209	8b 8d b8 fd ff
	ff		 mov	 ecx, DWORD PTR _xElement$GSCopy$[ebp]
  0020f	83 c4 0c	 add	 esp, 12			; 0000000cH
  00212	8d 85 c0 fe ff
	ff		 lea	 eax, DWORD PTR _szKeyName$[ebp]
  00218	50		 push	 eax
  00219	ff 15 00 00 00
	00		 call	 DWORD PTR __imp_?GetStringAttribute@ioXMLElement@@QBEPBDPBD@Z
  0021f	8b 8d b0 fd ff
	ff		 mov	 ecx, DWORD PTR _this$GSCopy$[ebp]
  00225	50		 push	 eax
  00226	81 c1 c0 01 00
	00		 add	 ecx, 448		; 000001c0H
  0022c	ff d7		 call	 edi

; 744  : 
; 745  : 	ZeroMemory( szKeyName, sizeof( szKeyName ) );

  0022e	56		 push	 esi
  0022f	8d 85 c0 fe ff
	ff		 lea	 eax, DWORD PTR _szKeyName$[ebp]
  00235	53		 push	 ebx
  00236	50		 push	 eax
  00237	e8 00 00 00 00	 call	 _memset
  0023c	83 c4 0c	 add	 esp, 12			; 0000000cH
  0023f	6a 02		 push	 2

; 746  : 	StringCbPrintf_e( szKeyName, sizeof( szKeyName ), "fail_sound" );

  00241	c7 45 c8 8b 8d
	82 86		 mov	 DWORD PTR ___encStr$511271[ebp], -2038264437 ; 86828d8bH
  00248	c7 45 cc b2 9f
	84 9f		 mov	 DWORD PTR ___encStr$511271[ebp+4], -1618698318 ; 9f849fb2H
  0024f	66 c7 45 d0 83
	88		 mov	 WORD PTR ___encStr$511271[ebp+8], 34947 ; 00008883H
  00255	8d 45 c8	 lea	 eax, DWORD PTR ___encStr$511271[ebp]
  00258	88 5d d2	 mov	 BYTE PTR ___encStr$511271[ebp+10], bl
  0025b	59		 pop	 ecx
$LL1041@ParseExtra:
  0025c	81 30 ed ec eb
	ea		 xor	 DWORD PTR [eax], -353637139 ; eaebecedH
  00262	83 c0 04	 add	 eax, 4
  00265	49		 dec	 ecx
  00266	75 f4		 jne	 SHORT $LL1041@ParseExtra
  00268	6a 08		 push	 8
  0026a	58		 pop	 eax
$LL1038@ParseExtra:
  0026b	8b c8		 mov	 ecx, eax
  0026d	81 e1 03 00 00
	80		 and	 ecx, -2147483645	; 80000003H
  00273	79 05		 jns	 SHORT $LN1838@ParseExtra
  00275	49		 dec	 ecx
  00276	83 c9 fc	 or	 ecx, -4			; fffffffcH
  00279	41		 inc	 ecx
$LN1838@ParseExtra:
  0027a	b2 ed		 mov	 dl, -19			; ffffffedH
  0027c	2a d1		 sub	 dl, cl
  0027e	30 54 05 c8	 xor	 BYTE PTR ___encStr$511271[ebp+eax], dl
  00282	40		 inc	 eax
  00283	83 f8 0a	 cmp	 eax, 10			; 0000000aH
  00286	7c e3		 jl	 SHORT $LL1038@ParseExtra
  00288	8d 45 c8	 lea	 eax, DWORD PTR ___encStr$511271[ebp]
  0028b	50		 push	 eax
  0028c	8d 85 c0 fe ff
	ff		 lea	 eax, DWORD PTR _szKeyName$[ebp]
  00292	56		 push	 esi
  00293	50		 push	 eax
  00294	e8 00 00 00 00	 call	 ?StringCbPrintfA@@YAJPADIPBDZZ ; StringCbPrintfA

; 747  : 	m_szFailSound = xElement.GetStringAttribute( szKeyName );

  00299	8b 8d b8 fd ff
	ff		 mov	 ecx, DWORD PTR _xElement$GSCopy$[ebp]
  0029f	83 c4 0c	 add	 esp, 12			; 0000000cH
  002a2	8d 85 c0 fe ff
	ff		 lea	 eax, DWORD PTR _szKeyName$[ebp]
  002a8	50		 push	 eax
  002a9	ff 15 00 00 00
	00		 call	 DWORD PTR __imp_?GetStringAttribute@ioXMLElement@@QBEPBDPBD@Z
  002af	8b 8d b0 fd ff
	ff		 mov	 ecx, DWORD PTR _this$GSCopy$[ebp]
  002b5	50		 push	 eax
  002b6	81 c1 d0 01 00
	00		 add	 ecx, 464		; 000001d0H
  002bc	ff d7		 call	 edi

; 748  : 
; 749  : 	ZeroMemory( szKeyName, sizeof( szKeyName ) );

  002be	56		 push	 esi
  002bf	8d 85 c0 fe ff
	ff		 lea	 eax, DWORD PTR _szKeyName$[ebp]
  002c5	53		 push	 ebx
  002c6	50		 push	 eax
  002c7	e8 00 00 00 00	 call	 _memset
  002cc	83 c4 0c	 add	 esp, 12			; 0000000cH
  002cf	6a 03		 push	 3

; 750  : 	StringCbPrintf_e( szKeyName, sizeof( szKeyName ), "start_animation" );

  002d1	c7 45 d8 9e 98
	8a 98		 mov	 DWORD PTR ___encStr$511423[ebp], -1735747426 ; 988a989eH
  002d8	c7 45 dc 99 b3
	8a 84		 mov	 DWORD PTR ___encStr$511423[ebp+4], -2071284839 ; 848ab399H
  002df	c7 45 e0 84 81
	8a 9e		 mov	 DWORD PTR ___encStr$511423[ebp+8], -1635090044 ; 9e8a8184H
  002e6	8d 45 d8	 lea	 eax, DWORD PTR ___encStr$511423[ebp]
  002e9	c7 45 e4 84 83
	85 00		 mov	 DWORD PTR ___encStr$511423[ebp+12], 8749956 ; 00858384H
  002f0	59		 pop	 ecx
$LL1049@ParseExtra:
  002f1	81 30 ed ec eb
	ea		 xor	 DWORD PTR [eax], -353637139 ; eaebecedH
  002f7	83 c0 04	 add	 eax, 4
  002fa	49		 dec	 ecx
  002fb	75 f4		 jne	 SHORT $LL1049@ParseExtra
  002fd	6a 0c		 push	 12			; 0000000cH
  002ff	58		 pop	 eax
$LL1046@ParseExtra:
  00300	8b c8		 mov	 ecx, eax
  00302	81 e1 03 00 00
	80		 and	 ecx, -2147483645	; 80000003H
  00308	79 05		 jns	 SHORT $LN1839@ParseExtra
  0030a	49		 dec	 ecx
  0030b	83 c9 fc	 or	 ecx, -4			; fffffffcH
  0030e	41		 inc	 ecx
$LN1839@ParseExtra:
  0030f	b2 ed		 mov	 dl, -19			; ffffffedH
  00311	2a d1		 sub	 dl, cl
  00313	30 54 05 d8	 xor	 BYTE PTR ___encStr$511423[ebp+eax], dl
  00317	40		 inc	 eax
  00318	83 f8 0f	 cmp	 eax, 15			; 0000000fH
  0031b	7c e3		 jl	 SHORT $LL1046@ParseExtra
  0031d	8d 45 d8	 lea	 eax, DWORD PTR ___encStr$511423[ebp]
  00320	50		 push	 eax
  00321	8d 85 c0 fe ff
	ff		 lea	 eax, DWORD PTR _szKeyName$[ebp]
  00327	56		 push	 esi
  00328	50		 push	 eax
  00329	e8 00 00 00 00	 call	 ?StringCbPrintfA@@YAJPADIPBDZZ ; StringCbPrintfA

; 751  : 	m_szStartAni = xElement.GetStringAttribute( szKeyName );

  0032e	8b 8d b8 fd ff
	ff		 mov	 ecx, DWORD PTR _xElement$GSCopy$[ebp]
  00334	83 c4 0c	 add	 esp, 12			; 0000000cH
  00337	8d 85 c0 fe ff
	ff		 lea	 eax, DWORD PTR _szKeyName$[ebp]
  0033d	50		 push	 eax
  0033e	ff 15 00 00 00
	00		 call	 DWORD PTR __imp_?GetStringAttribute@ioXMLElement@@QBEPBDPBD@Z
  00344	8b 8d b0 fd ff
	ff		 mov	 ecx, DWORD PTR _this$GSCopy$[ebp]
  0034a	50		 push	 eax
  0034b	81 c1 e0 01 00
	00		 add	 ecx, 480		; 000001e0H
  00351	ff d7		 call	 edi

; 752  : 
; 753  : 	ZeroMemory( szKeyName, sizeof( szKeyName ) );

  00353	56		 push	 esi
  00354	8d 85 c0 fe ff
	ff		 lea	 eax, DWORD PTR _szKeyName$[ebp]
  0035a	53		 push	 ebx
  0035b	50		 push	 eax
  0035c	e8 00 00 00 00	 call	 _memset
  00361	83 c4 0c	 add	 esp, 12			; 0000000cH
  00364	6a 04		 push	 4

; 754  : 	StringCbPrintf_e( szKeyName, sizeof( szKeyName ), "sucess_animation" );

  00366	c7 45 d8 9e 99
	88 8f		 mov	 DWORD PTR ___encStr$511575[ebp], -1886873186 ; 8f88999eH
  0036d	c7 45 dc 9e 9f
	b4 8b		 mov	 DWORD PTR ___encStr$511575[ebp+4], -1951096930 ; 8bb49f9eH
  00374	c7 45 e0 83 85
	86 8b		 mov	 DWORD PTR ___encStr$511575[ebp+8], -1954118269 ; 8b868583H
  0037b	c7 45 e4 99 85
	84 84		 mov	 DWORD PTR ___encStr$511575[ebp+12], -2071689831 ; 84848599H
  00382	8d 45 d8	 lea	 eax, DWORD PTR ___encStr$511575[ebp]
  00385	88 5d e8	 mov	 BYTE PTR ___encStr$511575[ebp+16], bl
  00388	59		 pop	 ecx
$LL1057@ParseExtra:
  00389	81 30 ed ec eb
	ea		 xor	 DWORD PTR [eax], -353637139 ; eaebecedH
  0038f	83 c0 04	 add	 eax, 4
  00392	49		 dec	 ecx
  00393	75 f4		 jne	 SHORT $LL1057@ParseExtra
  00395	8d 45 d8	 lea	 eax, DWORD PTR ___encStr$511575[ebp]
  00398	50		 push	 eax
  00399	8d 85 c0 fe ff
	ff		 lea	 eax, DWORD PTR _szKeyName$[ebp]
  0039f	56		 push	 esi
  003a0	50		 push	 eax
  003a1	e8 00 00 00 00	 call	 ?StringCbPrintfA@@YAJPADIPBDZZ ; StringCbPrintfA

; 755  : 	m_szSuccessAni = xElement.GetStringAttribute( szKeyName );

  003a6	8b 8d b8 fd ff
	ff		 mov	 ecx, DWORD PTR _xElement$GSCopy$[ebp]
  003ac	83 c4 0c	 add	 esp, 12			; 0000000cH
  003af	8d 85 c0 fe ff
	ff		 lea	 eax, DWORD PTR _szKeyName$[ebp]
  003b5	50		 push	 eax
  003b6	ff 15 00 00 00
	00		 call	 DWORD PTR __imp_?GetStringAttribute@ioXMLElement@@QBEPBDPBD@Z
  003bc	8b 8d b0 fd ff
	ff		 mov	 ecx, DWORD PTR _this$GSCopy$[ebp]
  003c2	50		 push	 eax
  003c3	81 c1 f0 01 00
	00		 add	 ecx, 496		; 000001f0H
  003c9	ff d7		 call	 edi

; 756  : 
; 757  : 	ZeroMemory( szKeyName, sizeof( szKeyName ) );

  003cb	56		 push	 esi
  003cc	8d 85 c0 fe ff
	ff		 lea	 eax, DWORD PTR _szKeyName$[ebp]
  003d2	53		 push	 ebx
  003d3	50		 push	 eax
  003d4	e8 00 00 00 00	 call	 _memset
  003d9	83 c4 0c	 add	 esp, 12			; 0000000cH
  003dc	6a 03		 push	 3

; 758  : 	StringCbPrintf_e( szKeyName, sizeof( szKeyName ), "fail_animation" );

  003de	c7 45 c4 8b 8d
	82 86		 mov	 DWORD PTR ___encStr$511727[ebp], -2038264437 ; 86828d8bH
  003e5	c7 45 c8 b2 8d
	85 83		 mov	 DWORD PTR ___encStr$511727[ebp+4], -2088399438 ; 83858db2H
  003ec	c7 45 cc 80 8d
	9f 83		 mov	 DWORD PTR ___encStr$511727[ebp+8], -2086695552 ; 839f8d80H
  003f3	66 c7 45 d0 82
	82		 mov	 WORD PTR ___encStr$511727[ebp+12], 33410 ; 00008282H
  003f9	8d 45 c4	 lea	 eax, DWORD PTR ___encStr$511727[ebp]
  003fc	88 5d d2	 mov	 BYTE PTR ___encStr$511727[ebp+14], bl
  003ff	59		 pop	 ecx
$LL1065@ParseExtra:
  00400	81 30 ed ec eb
	ea		 xor	 DWORD PTR [eax], -353637139 ; eaebecedH
  00406	83 c0 04	 add	 eax, 4
  00409	49		 dec	 ecx
  0040a	75 f4		 jne	 SHORT $LL1065@ParseExtra
  0040c	6a 0c		 push	 12			; 0000000cH
  0040e	58		 pop	 eax
$LL1062@ParseExtra:
  0040f	8b c8		 mov	 ecx, eax
  00411	81 e1 03 00 00
	80		 and	 ecx, -2147483645	; 80000003H
  00417	79 05		 jns	 SHORT $LN1840@ParseExtra
  00419	49		 dec	 ecx
  0041a	83 c9 fc	 or	 ecx, -4			; fffffffcH
  0041d	41		 inc	 ecx
$LN1840@ParseExtra:
  0041e	b2 ed		 mov	 dl, -19			; ffffffedH
  00420	2a d1		 sub	 dl, cl
  00422	30 54 05 c4	 xor	 BYTE PTR ___encStr$511727[ebp+eax], dl
  00426	40		 inc	 eax
  00427	83 f8 0e	 cmp	 eax, 14			; 0000000eH
  0042a	7c e3		 jl	 SHORT $LL1062@ParseExtra
  0042c	8d 45 c4	 lea	 eax, DWORD PTR ___encStr$511727[ebp]
  0042f	50		 push	 eax
  00430	8d 85 c0 fe ff
	ff		 lea	 eax, DWORD PTR _szKeyName$[ebp]
  00436	56		 push	 esi
  00437	50		 push	 eax
  00438	e8 00 00 00 00	 call	 ?StringCbPrintfA@@YAJPADIPBDZZ ; StringCbPrintfA

; 759  : 	m_szFailAni = xElement.GetStringAttribute( szKeyName );

  0043d	8b 8d b8 fd ff
	ff		 mov	 ecx, DWORD PTR _xElement$GSCopy$[ebp]
  00443	83 c4 0c	 add	 esp, 12			; 0000000cH
  00446	8d 85 c0 fe ff
	ff		 lea	 eax, DWORD PTR _szKeyName$[ebp]
  0044c	50		 push	 eax
  0044d	ff 15 00 00 00
	00		 call	 DWORD PTR __imp_?GetStringAttribute@ioXMLElement@@QBEPBDPBD@Z
  00453	8b 8d b0 fd ff
	ff		 mov	 ecx, DWORD PTR _this$GSCopy$[ebp]
  00459	50		 push	 eax
  0045a	81 c1 00 02 00
	00		 add	 ecx, 512		; 00000200H
  00460	ff d7		 call	 edi
  00462	6a 03		 push	 3

; 760  : 
; 761  : 
; 762  : 	m_dwRollingEffectTime = xElement.GetIntAttribute_e( "Effect_Gap_Time" );

  00464	c7 45 d8 a8 8a
	8d 8f		 mov	 DWORD PTR __k$520184[ebp], -1886549336 ; 8f8d8aa8H
  0046b	c7 45 dc 8e 98
	b4 ad		 mov	 DWORD PTR __k$520184[ebp+4], -1380673394 ; adb4988eH
  00472	c7 45 e0 8c 9c
	b4 be		 mov	 DWORD PTR __k$520184[ebp+8], -1095459700 ; beb49c8cH
  00479	8d 45 d8	 lea	 eax, DWORD PTR __k$520184[ebp]
  0047c	c7 45 e4 84 81
	8e 00		 mov	 DWORD PTR __k$520184[ebp+12], 9339268 ; 008e8184H
  00483	59		 pop	 ecx
$LL1171@ParseExtra:
  00484	81 30 ed ec eb
	ea		 xor	 DWORD PTR [eax], -353637139 ; eaebecedH
  0048a	83 c0 04	 add	 eax, 4
  0048d	49		 dec	 ecx
  0048e	75 f4		 jne	 SHORT $LL1171@ParseExtra
  00490	6a 0c		 push	 12			; 0000000cH
  00492	5f		 pop	 edi
$LL1168@ParseExtra:
  00493	8b c7		 mov	 eax, edi
  00495	25 03 00 00 80	 and	 eax, -2147483645	; 80000003H
  0049a	79 05		 jns	 SHORT $LN1841@ParseExtra
  0049c	48		 dec	 eax
  0049d	83 c8 fc	 or	 eax, -4			; fffffffcH
  004a0	40		 inc	 eax
$LN1841@ParseExtra:
  004a1	b1 ed		 mov	 cl, -19			; ffffffedH
  004a3	2a c8		 sub	 cl, al
  004a5	30 4c 3d d8	 xor	 BYTE PTR __k$520184[ebp+edi], cl
  004a9	47		 inc	 edi
  004aa	83 ff 0f	 cmp	 edi, 15			; 0000000fH
  004ad	7c e4		 jl	 SHORT $LL1168@ParseExtra
  004af	8b 8d b8 fd ff
	ff		 mov	 ecx, DWORD PTR _xElement$GSCopy$[ebp]
  004b5	8d 45 d8	 lea	 eax, DWORD PTR __k$520184[ebp]
  004b8	50		 push	 eax
  004b9	ff 15 00 00 00
	00		 call	 DWORD PTR __imp_?GetIntAttribute@ioXMLElement@@QBEHPBD@Z
  004bf	8b bd b0 fd ff
	ff		 mov	 edi, DWORD PTR _this$GSCopy$[ebp]
  004c5	89 87 90 01 00
	00		 mov	 DWORD PTR [edi+400], eax

; 763  : 
; 764  : 	m_vSuccessEfffect.clear();

  004cb	8b 87 68 01 00
	00		 mov	 eax, DWORD PTR [edi+360]
  004d1	81 c7 64 01 00
	00		 add	 edi, 356		; 00000164H
  004d7	8b 0f		 mov	 ecx, DWORD PTR [edi]
  004d9	50		 push	 eax
  004da	51		 push	 ecx
  004db	8d 85 b4 fd ff
	ff		 lea	 eax, DWORD PTR $T520356[ebp]
  004e1	50		 push	 eax
  004e2	8b cf		 mov	 ecx, edi
  004e4	e8 00 00 00 00	 call	 ?erase@?$vector@VioHashString@@V?$allocator@VioHashString@@@std@@@std@@QAE?AV?$_Vector_iterator@V?$_Vector_val@VioHashString@@V?$allocator@VioHashString@@@std@@@std@@@2@V?$_Vector_const_iterator@V?$_Vector_val@VioHashString@@V?$allocator@VioHashString@@@std@@@std@@@2@0@Z ; std::vector<ioHashString,std::allocator<ioHashString> >::erase
  004e9	6a 04		 push	 4

; 765  : 	int iMax = xElement.GetIntAttribute_e( "Max_Success_Effect" );

  004eb	c7 45 d8 a0 8d
	93 b5		 mov	 DWORD PTR __k$520486[ebp], -1248621152 ; b5938da0H
  004f2	c7 45 dc be 99
	88 89		 mov	 DWORD PTR __k$520486[ebp+4], -1987536450 ; 898899beH
  004f9	c7 45 e0 88 9f
	98 b5		 mov	 DWORD PTR __k$520486[ebp+8], -1248288888 ; b5989f88H
  00500	c7 45 e4 a8 8a
	8d 8f		 mov	 DWORD PTR __k$520486[ebp+12], -1886549336 ; 8f8d8aa8H
  00507	66 c7 45 e8 8e
	98		 mov	 WORD PTR __k$520486[ebp+16], 39054 ; 0000988eH
  0050d	8d 45 d8	 lea	 eax, DWORD PTR __k$520486[ebp]
  00510	88 5d ea	 mov	 BYTE PTR __k$520486[ebp+18], bl
  00513	59		 pop	 ecx
$LL1295@ParseExtra:
  00514	81 30 ed ec eb
	ea		 xor	 DWORD PTR [eax], -353637139 ; eaebecedH
  0051a	83 c0 04	 add	 eax, 4
  0051d	49		 dec	 ecx
  0051e	75 f4		 jne	 SHORT $LL1295@ParseExtra
  00520	6a 10		 push	 16			; 00000010H
  00522	58		 pop	 eax
$LL1292@ParseExtra:
  00523	8b c8		 mov	 ecx, eax
  00525	81 e1 03 00 00
	80		 and	 ecx, -2147483645	; 80000003H
  0052b	79 05		 jns	 SHORT $LN1842@ParseExtra
  0052d	49		 dec	 ecx
  0052e	83 c9 fc	 or	 ecx, -4			; fffffffcH
  00531	41		 inc	 ecx
$LN1842@ParseExtra:
  00532	b2 ed		 mov	 dl, -19			; ffffffedH
  00534	2a d1		 sub	 dl, cl
  00536	30 54 05 d8	 xor	 BYTE PTR __k$520486[ebp+eax], dl
  0053a	40		 inc	 eax
  0053b	83 f8 12	 cmp	 eax, 18			; 00000012H
  0053e	7c e3		 jl	 SHORT $LL1292@ParseExtra
  00540	8b 8d b8 fd ff
	ff		 mov	 ecx, DWORD PTR _xElement$GSCopy$[ebp]
  00546	8d 45 d8	 lea	 eax, DWORD PTR __k$520486[ebp]
  00549	50		 push	 eax
  0054a	ff 15 00 00 00
	00		 call	 DWORD PTR __imp_?GetIntAttribute@ioXMLElement@@QBEHPBD@Z

; 766  : 	m_vSuccessEfffect.reserve( iMax );

  00550	50		 push	 eax
  00551	8b cf		 mov	 ecx, edi
  00553	89 85 ac fd ff
	ff		 mov	 DWORD PTR _iMax$[ebp], eax
  00559	e8 00 00 00 00	 call	 ?reserve@?$vector@VioHashString@@V?$allocator@VioHashString@@@std@@@std@@QAEXI@Z ; std::vector<ioHashString,std::allocator<ioHashString> >::reserve

; 767  : 	for (int i = 0; i < iMax ; i++)

  0055e	89 9d b4 fd ff
	ff		 mov	 DWORD PTR _i$511885[ebp], ebx
  00564	39 9d ac fd ff
	ff		 cmp	 DWORD PTR _iMax$[ebp], ebx
  0056a	0f 8e 0b 01 00
	00		 jle	 $LN204@ParseExtra
$LL206@ParseExtra:

; 768  : 	{
; 769  : 		char szName[MAX_PATH]="";

  00570	68 03 01 00 00	 push	 259			; 00000103H
  00575	8d 85 bd fd ff
	ff		 lea	 eax, DWORD PTR _szName$511889[ebp+1]
  0057b	53		 push	 ebx
  0057c	50		 push	 eax
  0057d	88 9d bc fd ff
	ff		 mov	 BYTE PTR _szName$511889[ebp], bl
  00583	e8 00 00 00 00	 call	 _memset
  00588	83 c4 0c	 add	 esp, 12			; 0000000cH
  0058b	6a 04		 push	 4

; 770  : 		StringCbPrintf_e( szName, sizeof( szName ), "Success_Effect_%d", i+1 );

  0058d	c7 45 d8 be 99
	88 89		 mov	 DWORD PTR ___encStr$511893[ebp], -1987536450 ; 898899beH
  00594	c7 45 dc 88 9f
	98 b5		 mov	 DWORD PTR ___encStr$511893[ebp+4], -1248288888 ; b5989f88H
  0059b	c7 45 e0 a8 8a
	8d 8f		 mov	 DWORD PTR ___encStr$511893[ebp+8], -1886549336 ; 8f8d8aa8H
  005a2	c7 45 e4 8e 98
	b4 cf		 mov	 DWORD PTR ___encStr$511893[ebp+12], -810248050 ; cfb4988eH
  005a9	8d 45 d8	 lea	 eax, DWORD PTR ___encStr$511893[ebp]
  005ac	66 c7 45 e8 89
	00		 mov	 WORD PTR ___encStr$511893[ebp+16], 137 ; 00000089H
  005b2	59		 pop	 ecx
$LL1303@ParseExtra:
  005b3	81 30 ed ec eb
	ea		 xor	 DWORD PTR [eax], -353637139 ; eaebecedH
  005b9	83 c0 04	 add	 eax, 4
  005bc	49		 dec	 ecx
  005bd	75 f4		 jne	 SHORT $LL1303@ParseExtra
  005bf	8b 85 b4 fd ff
	ff		 mov	 eax, DWORD PTR _i$511885[ebp]
  005c5	80 75 e8 ed	 xor	 BYTE PTR ___encStr$511893[ebp+16], -19 ; ffffffedH
  005c9	40		 inc	 eax
  005ca	50		 push	 eax
  005cb	89 85 b4 fd ff
	ff		 mov	 DWORD PTR tv11285[ebp], eax
  005d1	8d 45 d8	 lea	 eax, DWORD PTR ___encStr$511893[ebp]
  005d4	50		 push	 eax
  005d5	8d 85 bc fd ff
	ff		 lea	 eax, DWORD PTR _szName$511889[ebp]
  005db	56		 push	 esi
  005dc	50		 push	 eax
  005dd	e8 00 00 00 00	 call	 ?StringCbPrintfA@@YAJPADIPBDZZ ; StringCbPrintfA

; 771  : 		ioHashString szEffect = xElement.GetStringAttribute( szName );

  005e2	8b 8d b8 fd ff
	ff		 mov	 ecx, DWORD PTR _xElement$GSCopy$[ebp]
  005e8	83 c4 10	 add	 esp, 16			; 00000010H
  005eb	8d 85 bc fd ff
	ff		 lea	 eax, DWORD PTR _szName$511889[ebp]
  005f1	50		 push	 eax
  005f2	ff 15 00 00 00
	00		 call	 DWORD PTR __imp_?GetStringAttribute@ioXMLElement@@QBEPBDPBD@Z
  005f8	50		 push	 eax
  005f9	8d 4d c4	 lea	 ecx, DWORD PTR _szEffect$512042[ebp]
  005fc	ff 15 00 00 00
	00		 call	 DWORD PTR __imp_??0ioHashString@@QAE@PBD@Z

; 772  : 		if( szEffect == "" )

  00602	8b 45 c4	 mov	 eax, DWORD PTR _szEffect$512042[ebp]
  00605	c6 45 fc 01	 mov	 BYTE PTR __$EHRec$[ebp+8], 1
  00609	88 9d a7 fd ff
	ff		 mov	 BYTE PTR __t$520525[ebp], bl
  0060f	8d 8d a7 fd ff
	ff		 lea	 ecx, DWORD PTR __t$520525[ebp]
$LL1827@ParseExtra:
  00615	8a 10		 mov	 dl, BYTE PTR [eax]
  00617	3a 11		 cmp	 dl, BYTE PTR [ecx]
  00619	75 1a		 jne	 SHORT $LN1828@ParseExtra
  0061b	3a d3		 cmp	 dl, bl
  0061d	74 12		 je	 SHORT $LN1829@ParseExtra
  0061f	8a 50 01	 mov	 dl, BYTE PTR [eax+1]
  00622	3a 51 01	 cmp	 dl, BYTE PTR [ecx+1]
  00625	75 0e		 jne	 SHORT $LN1828@ParseExtra
  00627	83 c0 02	 add	 eax, 2
  0062a	83 c1 02	 add	 ecx, 2
  0062d	3a d3		 cmp	 dl, bl
  0062f	75 e4		 jne	 SHORT $LL1827@ParseExtra
$LN1829@ParseExtra:
  00631	33 c0		 xor	 eax, eax
  00633	eb 05		 jmp	 SHORT $LN1830@ParseExtra
$LN1828@ParseExtra:
  00635	1b c0		 sbb	 eax, eax
  00637	83 d8 ff	 sbb	 eax, -1
$LN1830@ParseExtra:
  0063a	3b c3		 cmp	 eax, ebx
  0063c	74 31		 je	 SHORT $LN1790@ParseExtra

; 774  : 		m_vSuccessEfffect.push_back( szEffect );

  0063e	8d 45 c4	 lea	 eax, DWORD PTR _szEffect$512042[ebp]
  00641	50		 push	 eax
  00642	8b cf		 mov	 ecx, edi
  00644	e8 00 00 00 00	 call	 ?push_back@?$vector@VioHashString@@V?$allocator@VioHashString@@@std@@@std@@QAEXABVioHashString@@@Z ; std::vector<ioHashString,std::allocator<ioHashString> >::push_back

; 775  : 	}

  00649	8d 4d c4	 lea	 ecx, DWORD PTR _szEffect$512042[ebp]
  0064c	88 5d fc	 mov	 BYTE PTR __$EHRec$[ebp+8], bl
  0064f	ff 15 00 00 00
	00		 call	 DWORD PTR __imp_??1ioHashString@@QAE@XZ
  00655	8b 85 b4 fd ff
	ff		 mov	 eax, DWORD PTR tv11285[ebp]
  0065b	89 85 b4 fd ff
	ff		 mov	 DWORD PTR _i$511885[ebp], eax
  00661	3b 85 ac fd ff
	ff		 cmp	 eax, DWORD PTR _iMax$[ebp]
  00667	0f 8c 03 ff ff
	ff		 jl	 $LL206@ParseExtra

; 785  : 		if( szEffect == "" )

  0066d	eb 0c		 jmp	 SHORT $LN204@ParseExtra
$LN1790@ParseExtra:

; 773  : 			break;

  0066f	8d 4d c4	 lea	 ecx, DWORD PTR _szEffect$512042[ebp]
  00672	88 5d fc	 mov	 BYTE PTR __$EHRec$[ebp+8], bl
  00675	ff 15 00 00 00
	00		 call	 DWORD PTR __imp_??1ioHashString@@QAE@XZ
$LN204@ParseExtra:

; 776  : 
; 777  : 	m_vFailEfffect.clear();

  0067b	8b bd b0 fd ff
	ff		 mov	 edi, DWORD PTR _this$GSCopy$[ebp]
  00681	8b 87 78 01 00
	00		 mov	 eax, DWORD PTR [edi+376]
  00687	81 c7 74 01 00
	00		 add	 edi, 372		; 00000174H
  0068d	8b 0f		 mov	 ecx, DWORD PTR [edi]
  0068f	50		 push	 eax
  00690	51		 push	 ecx
  00691	8d 85 b4 fd ff
	ff		 lea	 eax, DWORD PTR $T520696[ebp]
  00697	50		 push	 eax
  00698	8b cf		 mov	 ecx, edi
  0069a	e8 00 00 00 00	 call	 ?erase@?$vector@VioHashString@@V?$allocator@VioHashString@@@std@@@std@@QAE?AV?$_Vector_iterator@V?$_Vector_val@VioHashString@@V?$allocator@VioHashString@@@std@@@std@@@2@V?$_Vector_const_iterator@V?$_Vector_val@VioHashString@@V?$allocator@VioHashString@@@std@@@std@@@2@0@Z ; std::vector<ioHashString,std::allocator<ioHashString> >::erase
  0069f	6a 03		 push	 3

; 778  : 	iMax = xElement.GetIntAttribute_e( "Max_Fail_Effect" );

  006a1	c7 45 d8 a0 8d
	93 b5		 mov	 DWORD PTR __k$520742[ebp], -1248621152 ; b5938da0H
  006a8	c7 45 dc ab 8d
	82 86		 mov	 DWORD PTR __k$520742[ebp+4], -2038264405 ; 86828dabH
  006af	c7 45 e0 b2 a9
	8d 8c		 mov	 DWORD PTR __k$520742[ebp+8], -1936873038 ; 8c8da9b2H
  006b6	8d 45 d8	 lea	 eax, DWORD PTR __k$520742[ebp]
  006b9	c7 45 e4 88 8f
	9f 00		 mov	 DWORD PTR __k$520742[ebp+12], 10456968 ; 009f8f88H
  006c0	59		 pop	 ecx
$LL1533@ParseExtra:
  006c1	81 30 ed ec eb
	ea		 xor	 DWORD PTR [eax], -353637139 ; eaebecedH
  006c7	83 c0 04	 add	 eax, 4
  006ca	49		 dec	 ecx
  006cb	75 f4		 jne	 SHORT $LL1533@ParseExtra
  006cd	6a 0c		 push	 12			; 0000000cH
  006cf	58		 pop	 eax
$LL1530@ParseExtra:
  006d0	8b c8		 mov	 ecx, eax
  006d2	81 e1 03 00 00
	80		 and	 ecx, -2147483645	; 80000003H
  006d8	79 05		 jns	 SHORT $LN1843@ParseExtra
  006da	49		 dec	 ecx
  006db	83 c9 fc	 or	 ecx, -4			; fffffffcH
  006de	41		 inc	 ecx
$LN1843@ParseExtra:
  006df	b2 ed		 mov	 dl, -19			; ffffffedH
  006e1	2a d1		 sub	 dl, cl
  006e3	30 54 05 d8	 xor	 BYTE PTR __k$520742[ebp+eax], dl
  006e7	40		 inc	 eax
  006e8	83 f8 0f	 cmp	 eax, 15			; 0000000fH
  006eb	7c e3		 jl	 SHORT $LL1530@ParseExtra
  006ed	8b 8d b8 fd ff
	ff		 mov	 ecx, DWORD PTR _xElement$GSCopy$[ebp]
  006f3	8d 45 d8	 lea	 eax, DWORD PTR __k$520742[ebp]
  006f6	50		 push	 eax
  006f7	ff 15 00 00 00
	00		 call	 DWORD PTR __imp_?GetIntAttribute@ioXMLElement@@QBEHPBD@Z

; 779  : 	m_vFailEfffect.reserve( iMax );

  006fd	50		 push	 eax
  006fe	8b cf		 mov	 ecx, edi
  00700	89 85 ac fd ff
	ff		 mov	 DWORD PTR _iMax$[ebp], eax
  00706	e8 00 00 00 00	 call	 ?reserve@?$vector@VioHashString@@V?$allocator@VioHashString@@@std@@@std@@QAEXI@Z ; std::vector<ioHashString,std::allocator<ioHashString> >::reserve

; 780  : 	for (int i = 0; i < iMax ; i++)

  0070b	89 9d b4 fd ff
	ff		 mov	 DWORD PTR _i$512053[ebp], ebx
  00711	39 9d ac fd ff
	ff		 cmp	 DWORD PTR _iMax$[ebp], ebx
  00717	0f 8e 23 01 00
	00		 jle	 $LN101@ParseExtra
$LL103@ParseExtra:

; 781  : 	{
; 782  : 		char szName[MAX_PATH]="";

  0071d	68 03 01 00 00	 push	 259			; 00000103H
  00722	8d 85 bd fd ff
	ff		 lea	 eax, DWORD PTR _szName$512057[ebp+1]
  00728	53		 push	 ebx
  00729	50		 push	 eax
  0072a	88 9d bc fd ff
	ff		 mov	 BYTE PTR _szName$512057[ebp], bl
  00730	e8 00 00 00 00	 call	 _memset
  00735	83 c4 0c	 add	 esp, 12			; 0000000cH
  00738	6a 03		 push	 3

; 783  : 		StringCbPrintf_e( szName, sizeof( szName ), "Fail_Effect_%d", i+1 );

  0073a	c7 45 dc ab 8d
	82 86		 mov	 DWORD PTR ___encStr$512061[ebp], -2038264405 ; 86828dabH
  00741	c7 45 e0 b2 a9
	8d 8c		 mov	 DWORD PTR ___encStr$512061[ebp+4], -1936873038 ; 8c8da9b2H
  00748	c7 45 e4 88 8f
	9f b5		 mov	 DWORD PTR ___encStr$512061[ebp+8], -1247834232 ; b59f8f88H
  0074f	66 c7 45 e8 c8
	88		 mov	 WORD PTR ___encStr$512061[ebp+12], 35016 ; 000088c8H
  00755	8d 45 dc	 lea	 eax, DWORD PTR ___encStr$512061[ebp]
  00758	88 5d ea	 mov	 BYTE PTR ___encStr$512061[ebp+14], bl
  0075b	59		 pop	 ecx
$LL1541@ParseExtra:
  0075c	81 30 ed ec eb
	ea		 xor	 DWORD PTR [eax], -353637139 ; eaebecedH
  00762	83 c0 04	 add	 eax, 4
  00765	49		 dec	 ecx
  00766	75 f4		 jne	 SHORT $LL1541@ParseExtra
  00768	6a 0c		 push	 12			; 0000000cH
  0076a	58		 pop	 eax
$LL1538@ParseExtra:
  0076b	8b c8		 mov	 ecx, eax
  0076d	81 e1 03 00 00
	80		 and	 ecx, -2147483645	; 80000003H
  00773	79 05		 jns	 SHORT $LN1844@ParseExtra
  00775	49		 dec	 ecx
  00776	83 c9 fc	 or	 ecx, -4			; fffffffcH
  00779	41		 inc	 ecx
$LN1844@ParseExtra:
  0077a	b2 ed		 mov	 dl, -19			; ffffffedH
  0077c	2a d1		 sub	 dl, cl
  0077e	30 54 05 dc	 xor	 BYTE PTR ___encStr$512061[ebp+eax], dl
  00782	40		 inc	 eax
  00783	83 f8 0e	 cmp	 eax, 14			; 0000000eH
  00786	7c e3		 jl	 SHORT $LL1538@ParseExtra
  00788	8b 85 b4 fd ff
	ff		 mov	 eax, DWORD PTR _i$512053[ebp]
  0078e	40		 inc	 eax
  0078f	50		 push	 eax
  00790	89 85 b4 fd ff
	ff		 mov	 DWORD PTR tv11402[ebp], eax
  00796	8d 45 dc	 lea	 eax, DWORD PTR ___encStr$512061[ebp]
  00799	50		 push	 eax
  0079a	8d 85 bc fd ff
	ff		 lea	 eax, DWORD PTR _szName$512057[ebp]
  007a0	56		 push	 esi
  007a1	50		 push	 eax
  007a2	e8 00 00 00 00	 call	 ?StringCbPrintfA@@YAJPADIPBDZZ ; StringCbPrintfA

; 784  : 		ioHashString szEffect = xElement.GetStringAttribute( szName );

  007a7	8b 8d b8 fd ff
	ff		 mov	 ecx, DWORD PTR _xElement$GSCopy$[ebp]
  007ad	83 c4 10	 add	 esp, 16			; 00000010H
  007b0	8d 85 bc fd ff
	ff		 lea	 eax, DWORD PTR _szName$512057[ebp]
  007b6	50		 push	 eax
  007b7	ff 15 00 00 00
	00		 call	 DWORD PTR __imp_?GetStringAttribute@ioXMLElement@@QBEPBDPBD@Z
  007bd	50		 push	 eax
  007be	8d 4d c4	 lea	 ecx, DWORD PTR _szEffect$512210[ebp]
  007c1	ff 15 00 00 00
	00		 call	 DWORD PTR __imp_??0ioHashString@@QAE@PBD@Z

; 785  : 		if( szEffect == "" )

  007c7	8b 45 c4	 mov	 eax, DWORD PTR _szEffect$512210[ebp]
  007ca	c6 45 fc 02	 mov	 BYTE PTR __$EHRec$[ebp+8], 2
  007ce	88 9d a7 fd ff
	ff		 mov	 BYTE PTR __t$520865[ebp], bl
  007d4	8d 8d a7 fd ff
	ff		 lea	 ecx, DWORD PTR __t$520865[ebp]
$LL1831@ParseExtra:
  007da	8a 10		 mov	 dl, BYTE PTR [eax]
  007dc	3a 11		 cmp	 dl, BYTE PTR [ecx]
  007de	75 1a		 jne	 SHORT $LN1832@ParseExtra
  007e0	3a d3		 cmp	 dl, bl
  007e2	74 12		 je	 SHORT $LN1833@ParseExtra
  007e4	8a 50 01	 mov	 dl, BYTE PTR [eax+1]
  007e7	3a 51 01	 cmp	 dl, BYTE PTR [ecx+1]
  007ea	75 0e		 jne	 SHORT $LN1832@ParseExtra
  007ec	83 c0 02	 add	 eax, 2
  007ef	83 c1 02	 add	 ecx, 2
  007f2	3a d3		 cmp	 dl, bl
  007f4	75 e4		 jne	 SHORT $LL1831@ParseExtra
$LN1833@ParseExtra:
  007f6	33 c0		 xor	 eax, eax
  007f8	eb 05		 jmp	 SHORT $LN1834@ParseExtra
$LN1832@ParseExtra:
  007fa	1b c0		 sbb	 eax, eax
  007fc	83 d8 ff	 sbb	 eax, -1
$LN1834@ParseExtra:
  007ff	3b c3		 cmp	 eax, ebx
  00801	74 31		 je	 SHORT $LN1791@ParseExtra

; 787  : 		m_vFailEfffect.push_back( szEffect );

  00803	8d 45 c4	 lea	 eax, DWORD PTR _szEffect$512210[ebp]
  00806	50		 push	 eax
  00807	8b cf		 mov	 ecx, edi
  00809	e8 00 00 00 00	 call	 ?push_back@?$vector@VioHashString@@V?$allocator@VioHashString@@@std@@@std@@QAEXABVioHashString@@@Z ; std::vector<ioHashString,std::allocator<ioHashString> >::push_back

; 788  : 	}

  0080e	8d 4d c4	 lea	 ecx, DWORD PTR _szEffect$512210[ebp]
  00811	88 5d fc	 mov	 BYTE PTR __$EHRec$[ebp+8], bl
  00814	ff 15 00 00 00
	00		 call	 DWORD PTR __imp_??1ioHashString@@QAE@XZ
  0081a	8b 85 b4 fd ff
	ff		 mov	 eax, DWORD PTR tv11402[ebp]
  00820	89 85 b4 fd ff
	ff		 mov	 DWORD PTR _i$512053[ebp], eax
  00826	3b 85 ac fd ff
	ff		 cmp	 eax, DWORD PTR _iMax$[ebp]
  0082c	0f 8c eb fe ff
	ff		 jl	 $LL103@ParseExtra

; 785  : 		if( szEffect == "" )

  00832	eb 0c		 jmp	 SHORT $LN101@ParseExtra
$LN1791@ParseExtra:

; 786  : 			break;

  00834	8d 4d c4	 lea	 ecx, DWORD PTR _szEffect$512210[ebp]
  00837	88 5d fc	 mov	 BYTE PTR __$EHRec$[ebp+8], bl
  0083a	ff 15 00 00 00
	00		 call	 DWORD PTR __imp_??1ioHashString@@QAE@XZ
$LN101@ParseExtra:

; 789  : 
; 790  : 	m_dwBackEffectTime = xElement.GetIntAttribute_e( "Back_Gap_Time" );

  00840	6a 03		 push	 3
  00842	c7 45 c4 af 8d
	88 81		 mov	 DWORD PTR __k$520989[ebp], -2121757265 ; 81888dafH
  00849	c7 45 c8 b2 ab
	8a 9a		 mov	 DWORD PTR __k$520989[ebp+4], -1702188110 ; 9a8aabb2H
  00850	c7 45 cc b2 b8
	82 87		 mov	 DWORD PTR __k$520989[ebp+8], -2021476174 ; 8782b8b2H
  00857	8d 45 c4	 lea	 eax, DWORD PTR __k$520989[ebp]
  0085a	66 c7 45 d0 88
	00		 mov	 WORD PTR __k$520989[ebp+12], 136 ; 00000088H
  00860	59		 pop	 ecx
$LL1753@ParseExtra:
  00861	81 30 ed ec eb
	ea		 xor	 DWORD PTR [eax], -353637139 ; eaebecedH
  00867	83 c0 04	 add	 eax, 4
  0086a	49		 dec	 ecx
  0086b	75 f4		 jne	 SHORT $LL1753@ParseExtra
  0086d	8b 8d b8 fd ff
	ff		 mov	 ecx, DWORD PTR _xElement$GSCopy$[ebp]
  00873	80 75 d0 ed	 xor	 BYTE PTR __k$520989[ebp+12], -19 ; ffffffedH
  00877	8d 45 c4	 lea	 eax, DWORD PTR __k$520989[ebp]
  0087a	50		 push	 eax
  0087b	ff 15 00 00 00
	00		 call	 DWORD PTR __imp_?GetIntAttribute@ioXMLElement@@QBEHPBD@Z
  00881	8b 8d b0 fd ff
	ff		 mov	 ecx, DWORD PTR _this$GSCopy$[ebp]

; 791  : }

  00887	83 4d fc ff	 or	 DWORD PTR __$EHRec$[ebp+8], -1
  0088b	89 81 98 01 00
	00		 mov	 DWORD PTR [ecx+408], eax
  00891	8d 8d 94 fd ff
	ff		 lea	 ecx, DWORD PTR _szTemp$[ebp]
  00897	ff 15 00 00 00
	00		 call	 DWORD PTR __imp_??1ioHashString@@QAE@XZ
  0089d	e8 00 00 00 00	 call	 __EH_epilog3_GS
  008a2	c2 04 00	 ret	 4
_TEXT	ENDS
;	COMDAT text$x
text$x	SEGMENT
__unwindfunclet$?ParseExtraInfo@InvenFourExtraCompoundBuyResultWnd@@MAEXAAVioXMLElement@@@Z$0:
  00000	8d 8d 94 fd ff
	ff		 lea	 ecx, DWORD PTR _szTemp$[ebp]
  00006	ff 25 00 00 00
	00		 jmp	 DWORD PTR __imp_??1ioHashString@@QAE@XZ
__unwindfunclet$?ParseExtraInfo@InvenFourExtraCompoundBuyResultWnd@@MAEXAAVioXMLElement@@@Z$1:
  0000c	8d 4d c4	 lea	 ecx, DWORD PTR _szEffect$512042[ebp]
  0000f	ff 25 00 00 00
	00		 jmp	 DWORD PTR __imp_??1ioHashString@@QAE@XZ
__unwindfunclet$?ParseExtraInfo@InvenFourExtraCompoundBuyResultWnd@@MAEXAAVioXMLElement@@@Z$2:
  00015	8d 4d c4	 lea	 ecx, DWORD PTR _szEffect$512210[ebp]
  00018	ff 25 00 00 00
	00		 jmp	 DWORD PTR __imp_??1ioHashString@@QAE@XZ
__ehhandler$?ParseExtraInfo@InvenFourExtraCompoundBuyResultWnd@@MAEXAAVioXMLElement@@@Z:
  0001e	8b 54 24 08	 mov	 edx, DWORD PTR [esp+8]
  00022	8d 42 0c	 lea	 eax, DWORD PTR [edx+12]
  00025	8b 8a 90 fd ff
	ff		 mov	 ecx, DWORD PTR [edx-624]
  0002b	33 c8		 xor	 ecx, eax
  0002d	e8 00 00 00 00	 call	 @__security_check_cookie@4
  00032	8b 4a fc	 mov	 ecx, DWORD PTR [edx-4]
  00035	33 c8		 xor	 ecx, eax
  00037	e8 00 00 00 00	 call	 @__security_check_cookie@4
  0003c	b8 00 00 00 00	 mov	 eax, OFFSET __ehfuncinfo$?ParseExtraInfo@InvenFourExtraCompoundBuyResultWnd@@MAEXAAVioXMLElement@@@Z
  00041	e9 00 00 00 00	 jmp	 ___CxxFrameHandler3
text$x	ENDS
?ParseExtraInfo@InvenFourExtraCompoundBuyResultWnd@@MAEXAAVioXMLElement@@@Z ENDP ; InvenFourExtraCompoundBuyResultWnd::ParseExtraInfo
PUBLIC	?push_back@?$vector@UNewShopPullDownItem@@V?$allocator@UNewShopPullDownItem@@@std@@@std@@QAEXABUNewShopPullDownItem@@@Z ; std::vector<NewShopPullDownItem,std::allocator<NewShopPullDownItem> >::push_back
; Function compile flags: /Ogsp
; File c:\program files (x86)\microsoft visual studio 10.0\vc\include\vector
;	COMDAT ?push_back@?$vector@UNewShopPullDownItem@@V?$allocator@UNewShopPullDownItem@@@std@@@std@@QAEXABUNewShopPullDownItem@@@Z
_TEXT	SEGMENT
__Val$ = 8						; size = 4
?push_back@?$vector@UNewShopPullDownItem@@V?$allocator@UNewShopPullDownItem@@@std@@@std@@QAEXABUNewShopPullDownItem@@@Z PROC ; std::vector<NewShopPullDownItem,std::allocator<NewShopPullDownItem> >::push_back, COMDAT
; _this$ = ecx

; 976  : 		{	// insert element at end

  00000	55		 push	 ebp
  00001	8b ec		 mov	 ebp, esp
  00003	56		 push	 esi
  00004	8b f1		 mov	 esi, ecx

; 977  : 		if (_Inside(_STD addressof(_Val)))

  00006	8b 4e 04	 mov	 ecx, DWORD PTR [esi+4]
  00009	57		 push	 edi
  0000a	8b 7d 08	 mov	 edi, DWORD PTR __Val$[ebp]
  0000d	3b f9		 cmp	 edi, ecx
  0000f	73 37		 jae	 SHORT $LN4@push_back@3
  00011	8b 16		 mov	 edx, DWORD PTR [esi]
  00013	3b d7		 cmp	 edx, edi
  00015	77 31		 ja	 SHORT $LN4@push_back@3

; 978  : 			{	// push back an element
; 979  : 			size_type _Idx = _STD addressof(_Val) - this->_Myfirst;

  00017	8b c7		 mov	 eax, edi
  00019	2b c2		 sub	 eax, edx
  0001b	6a 50		 push	 80			; 00000050H
  0001d	99		 cdq
  0001e	5f		 pop	 edi
  0001f	f7 ff		 idiv	 edi
  00021	8b f8		 mov	 edi, eax

; 980  : 			if (this->_Mylast == this->_Myend)

  00023	3b 4e 08	 cmp	 ecx, DWORD PTR [esi+8]
  00026	75 09		 jne	 SHORT $LN3@push_back@3

; 981  : 				_Reserve(1);

  00028	6a 01		 push	 1
  0002a	8b ce		 mov	 ecx, esi
  0002c	e8 00 00 00 00	 call	 ?_Reserve@?$vector@UNewShopPullDownItem@@V?$allocator@UNewShopPullDownItem@@@std@@@std@@IAEXI@Z ; std::vector<NewShopPullDownItem,std::allocator<NewShopPullDownItem> >::_Reserve
$LN3@push_back@3:

; 982  : 			_Orphan_range(this->_Mylast, this->_Mylast);
; 983  : 			_Cons_val(this->_Alval,
; 984  : 				this->_Mylast,
; 985  : 				this->_Myfirst[_Idx]);

  00031	6b ff 50	 imul	 edi, 80			; 00000050H
  00034	03 3e		 add	 edi, DWORD PTR [esi]
  00036	8d 46 0c	 lea	 eax, DWORD PTR [esi+12]
  00039	57		 push	 edi
  0003a	ff 76 04	 push	 DWORD PTR [esi+4]
  0003d	50		 push	 eax
  0003e	e8 00 00 00 00	 call	 ??$_Cons_val@V?$allocator@UNewShopPullDownItem@@@std@@UNewShopPullDownItem@@AAU3@@std@@YAXAAV?$allocator@UNewShopPullDownItem@@@0@PAUNewShopPullDownItem@@AAU2@@Z ; std::_Cons_val<std::allocator<NewShopPullDownItem>,NewShopPullDownItem,NewShopPullDownItem &>
  00043	83 c4 0c	 add	 esp, 12			; 0000000cH

; 986  : 			++this->_Mylast;
; 987  : 			}
; 988  : 		else

  00046	eb 19		 jmp	 SHORT $LN26@push_back@3
$LN4@push_back@3:

; 989  : 			{	// push back a non-element
; 990  : 			if (this->_Mylast == this->_Myend)

  00048	3b 4e 08	 cmp	 ecx, DWORD PTR [esi+8]
  0004b	75 09		 jne	 SHORT $LN1@push_back@3

; 991  : 				_Reserve(1);

  0004d	6a 01		 push	 1
  0004f	8b ce		 mov	 ecx, esi
  00051	e8 00 00 00 00	 call	 ?_Reserve@?$vector@UNewShopPullDownItem@@V?$allocator@UNewShopPullDownItem@@@std@@@std@@IAEXI@Z ; std::vector<NewShopPullDownItem,std::allocator<NewShopPullDownItem> >::_Reserve
$LN1@push_back@3:

; 992  : 			_Orphan_range(this->_Mylast, this->_Mylast);
; 993  : 			_Cons_val(this->_Alval,
; 994  : 				this->_Mylast,
; 995  : 				_Val);

  00056	57		 push	 edi
  00057	ff 76 04	 push	 DWORD PTR [esi+4]
  0005a	e8 00 00 00 00	 call	 ??$_Construct@UNewShopPullDownItem@@ABU1@@std@@YAXPAUNewShopPullDownItem@@ABU1@@Z ; std::_Construct<NewShopPullDownItem,NewShopPullDownItem const &>
  0005f	59		 pop	 ecx
  00060	59		 pop	 ecx
$LN26@push_back@3:

; 996  : 			++this->_Mylast;

  00061	83 46 04 50	 add	 DWORD PTR [esi+4], 80	; 00000050H
  00065	5f		 pop	 edi
  00066	5e		 pop	 esi

; 997  : 			}
; 998  : 		}

  00067	5d		 pop	 ebp
  00068	c2 04 00	 ret	 4
?push_back@?$vector@UNewShopPullDownItem@@V?$allocator@UNewShopPullDownItem@@@std@@@std@@QAEXABUNewShopPullDownItem@@@Z ENDP ; std::vector<NewShopPullDownItem,std::allocator<NewShopPullDownItem> >::push_back
_TEXT	ENDS
PUBLIC	??_R0?AVioEtcItem@@@8				; ioEtcItem `RTTI Type Descriptor'
PUBLIC	??_R0?AVioEtcItemFourExtraCompound@@@8		; ioEtcItemFourExtraCompound `RTTI Type Descriptor'
PUBLIC	?GetSoldierList@InvenFourExtraCompoundBuyWnd@@IAEXAAV?$vector@UNewShopPullDownItem@@V?$allocator@UNewShopPullDownItem@@@std@@@std@@@Z ; InvenFourExtraCompoundBuyWnd::GetSoldierList
EXTRN	?IsRightSoldierCode@ioEtcItemFourExtraCompound@@QAE_NH@Z:PROC ; ioEtcItemFourExtraCompound::IsRightSoldierCode
EXTRN	?IsCharMortmain@ioMyInfo@@QAE_NH@Z:PROC		; ioMyInfo::IsCharMortmain
EXTRN	?IsCharExerciseStyleToClassType@ioMyInfo@@QAE_NHH@Z:PROC ; ioMyInfo::IsCharExerciseStyleToClassType
EXTRN	?GetSetInfoByIdx@ioSetItemInfoManager@@QBEPBVioSetItemInfo@@H@Z:PROC ; ioSetItemInfoManager::GetSetInfoByIdx
EXTRN	?GetSingeton@ioSetItemInfoManager@@SAAAV1@XZ:PROC ; ioSetItemInfoManager::GetSingeton
EXTRN	?ArrayToSetItemIdx@ioClassPrice@@QAEHH@Z:PROC	; ioClassPrice::ArrayToSetItemIdx
EXTRN	?GetSingleton@ioClassPrice@@SAAAV1@XZ:PROC	; ioClassPrice::GetSingleton
;	COMDAT ??_R0?AVioEtcItem@@@8
; File c:\program files (x86)\microsoft visual studio 10.0\vc\include\xutility
_DATA	SEGMENT
??_R0?AVioEtcItem@@@8 DD FLAT:??_7type_info@@6B@	; ioEtcItem `RTTI Type Descriptor'
	DD	00H
	DB	'.?AVioEtcItem@@', 00H
_DATA	ENDS
;	COMDAT ??_R0?AVioEtcItemFourExtraCompound@@@8
_DATA	SEGMENT
??_R0?AVioEtcItemFourExtraCompound@@@8 DD FLAT:??_7type_info@@6B@ ; ioEtcItemFourExtraCompound `RTTI Type Descriptor'
	DD	00H
	DB	'.?AVioEtcItemFourExtraCompound@@', 00H
_DATA	ENDS
;	COMDAT xdata$x
xdata$x	SEGMENT
__unwindtable$?GetSoldierList@InvenFourExtraCompoundBuyWnd@@IAEXAAV?$vector@UNewShopPullDownItem@@V?$allocator@UNewShopPullDownItem@@@std@@@std@@@Z DD 0ffffffffH
	DD	FLAT:__unwindfunclet$?GetSoldierList@InvenFourExtraCompoundBuyWnd@@IAEXAAV?$vector@UNewShopPullDownItem@@V?$allocator@UNewShopPullDownItem@@@std@@@std@@@Z$0
__ehfuncinfo$?GetSoldierList@InvenFourExtraCompoundBuyWnd@@IAEXAAV?$vector@UNewShopPullDownItem@@V?$allocator@UNewShopPullDownItem@@@std@@@std@@@Z DD 019930522H
	DD	01H
	DD	FLAT:__unwindtable$?GetSoldierList@InvenFourExtraCompoundBuyWnd@@IAEXAAV?$vector@UNewShopPullDownItem@@V?$allocator@UNewShopPullDownItem@@@std@@@std@@@Z
	DD	2 DUP(00H)
	DD	2 DUP(00H)
	DD	00H
	DD	01H
; Function compile flags: /Ogsp
; File d:\lost saga for developer\youtube\tutorial\source\src\lsclient\gui\invenfourextracompoundwnd.cpp
xdata$x	ENDS
;	COMDAT ?GetSoldierList@InvenFourExtraCompoundBuyWnd@@IAEXAAV?$vector@UNewShopPullDownItem@@V?$allocator@UNewShopPullDownItem@@@std@@@std@@@Z
_TEXT	SEGMENT
_kItem$510176 = -100					; size = 80
_pInfo$510165 = -20					; size = 4
_this$ = -16						; size = 4
__$EHRec$ = -12						; size = 12
$T521236 = 8						; size = 1
$T521301 = 8						; size = 4
_i$510160 = 8						; size = 4
_rkList$ = 8						; size = 4
?GetSoldierList@InvenFourExtraCompoundBuyWnd@@IAEXAAV?$vector@UNewShopPullDownItem@@V?$allocator@UNewShopPullDownItem@@@std@@@std@@@Z PROC ; InvenFourExtraCompoundBuyWnd::GetSoldierList, COMDAT
; _this$ = ecx

; 196  : {

  00000	6a 58		 push	 88			; 00000058H
  00002	b8 00 00 00 00	 mov	 eax, __ehhandler$?GetSoldierList@InvenFourExtraCompoundBuyWnd@@IAEXAAV?$vector@UNewShopPullDownItem@@V?$allocator@UNewShopPullDownItem@@@std@@@std@@@Z
  00007	e8 00 00 00 00	 call	 __EH_prolog3
  0000c	89 4d f0	 mov	 DWORD PTR _this$[ebp], ecx

; 197  : 	rkList.clear();

  0000f	8b 7d 08	 mov	 edi, DWORD PTR _rkList$[ebp]
  00012	8b 47 04	 mov	 eax, DWORD PTR [edi+4]
  00015	8b 0f		 mov	 ecx, DWORD PTR [edi]
  00017	50		 push	 eax
  00018	51		 push	 ecx
  00019	8d 45 08	 lea	 eax, DWORD PTR $T521301[ebp]
  0001c	50		 push	 eax
  0001d	8b cf		 mov	 ecx, edi
  0001f	e8 00 00 00 00	 call	 ?erase@?$vector@UNewShopPullDownItem@@V?$allocator@UNewShopPullDownItem@@@std@@@std@@QAE?AV?$_Vector_iterator@V?$_Vector_val@UNewShopPullDownItem@@V?$allocator@UNewShopPullDownItem@@@std@@@std@@@2@V?$_Vector_const_iterator@V?$_Vector_val@UNewShopPullDownItem@@V?$allocator@UNewShopPullDownItem@@@std@@@std@@@2@0@Z ; std::vector<NewShopPullDownItem,std::allocator<NewShopPullDownItem> >::erase

; 198  : 
; 199  : 	int iMaxClass = g_ClassPrice.MaxClassPrice();

  00024	e8 00 00 00 00	 call	 ?GetSingleton@ioClassPrice@@SAAAV1@XZ ; ioClassPrice::GetSingleton
  00029	8b 70 08	 mov	 esi, DWORD PTR [eax+8]
  0002c	2b 70 04	 sub	 esi, DWORD PTR [eax+4]

; 200  : 	for (int i = 0; i <  iMaxClass; i++)

  0002f	83 65 08 00	 and	 DWORD PTR _i$510160[ebp], 0
  00033	c1 fe 02	 sar	 esi, 2
  00036	85 f6		 test	 esi, esi
  00038	0f 8e 0a 01 00
	00		 jle	 $LN10@GetSoldier
$LN12@GetSoldier:

; 201  : 	{
; 202  : 		//if( !g_ClassPrice.IsActiveClass( i ) ) continue;
; 203  : 
; 204  : 		int iSetIdx = g_ClassPrice.ArrayToSetItemIdx( i );

  0003e	ff 75 08	 push	 DWORD PTR _i$510160[ebp]
  00041	e8 00 00 00 00	 call	 ?GetSingleton@ioClassPrice@@SAAAV1@XZ ; ioClassPrice::GetSingleton
  00046	8b c8		 mov	 ecx, eax
  00048	e8 00 00 00 00	 call	 ?ArrayToSetItemIdx@ioClassPrice@@QAEHH@Z ; ioClassPrice::ArrayToSetItemIdx

; 205  : 		const ioSetItemInfo *pInfo = g_SetItemInfoMgr.GetSetInfoByIdx( iSetIdx );

  0004d	50		 push	 eax
  0004e	e8 00 00 00 00	 call	 ?GetSingeton@ioSetItemInfoManager@@SAAAV1@XZ ; ioSetItemInfoManager::GetSingeton
  00053	8b c8		 mov	 ecx, eax
  00055	e8 00 00 00 00	 call	 ?GetSetInfoByIdx@ioSetItemInfoManager@@QBEPBVioSetItemInfo@@H@Z ; ioSetItemInfoManager::GetSetInfoByIdx
  0005a	89 45 ec	 mov	 DWORD PTR _pInfo$510165[ebp], eax

; 206  : 		if( !pInfo ) continue;

  0005d	85 c0		 test	 eax, eax
  0005f	0f 84 d7 00 00
	00		 je	 $LN11@GetSoldier

; 207  : 
; 208  : 		int iClassType = pInfo->GetSetCode() - SET_ITEM_CODE;

  00065	8b 58 1c	 mov	 ebx, DWORD PTR [eax+28]
  00068	81 c3 a0 51 f5
	ff		 add	 ebx, -700000		; fff551a0H

; 209  : 
; 210  : 		if( g_MyInfo.IsCharExerciseStyleToClassType( iClassType, EXERCISE_RENTAL ) == false )  // 대여 용병은 선택 가능

  0006e	6a 04		 push	 4
  00070	53		 push	 ebx
  00071	e8 00 00 00 00	 call	 ?GetSingleton@ioMyInfo@@SAAAV1@XZ ; ioMyInfo::GetSingleton
  00076	8b c8		 mov	 ecx, eax
  00078	e8 00 00 00 00	 call	 ?IsCharExerciseStyleToClassType@ioMyInfo@@QAE_NHH@Z ; ioMyInfo::IsCharExerciseStyleToClassType
  0007d	84 c0		 test	 al, al
  0007f	75 15		 jne	 SHORT $LN7@GetSoldier

; 211  : 		{
; 212  : 			if( g_MyInfo.IsCharMortmain( iClassType ) ) continue;      // 영구 용병은 리스트에서 제외

  00081	53		 push	 ebx
  00082	e8 00 00 00 00	 call	 ?GetSingleton@ioMyInfo@@SAAAV1@XZ ; ioMyInfo::GetSingleton
  00087	8b c8		 mov	 ecx, eax
  00089	e8 00 00 00 00	 call	 ?IsCharMortmain@ioMyInfo@@QAE_NH@Z ; ioMyInfo::IsCharMortmain
  0008e	84 c0		 test	 al, al
  00090	0f 85 a6 00 00
	00		 jne	 $LN11@GetSoldier
$LN7@GetSoldier:

; 213  : 		}
; 214  : 
; 215  : 		ioEtcItemFourExtraCompound *pEtcItem = dynamic_cast< ioEtcItemFourExtraCompound* > (g_EtcItemMgr.FindEtcItem( m_dwEtcItemType ));

  00096	8b 45 f0	 mov	 eax, DWORD PTR _this$[ebp]
  00099	8b 0d 00 00 00
	00		 mov	 ecx, DWORD PTR ?ms_Singleton@?$Singleton@VioEtcItemManager@@@@1PAVioEtcItemManager@@A ; Singleton<ioEtcItemManager>::ms_Singleton
  0009f	6a 00		 push	 0
  000a1	68 00 00 00 00	 push	 OFFSET ??_R0?AVioEtcItemFourExtraCompound@@@8
  000a6	68 00 00 00 00	 push	 OFFSET ??_R0?AVioEtcItem@@@8
  000ab	6a 00		 push	 0
  000ad	ff b0 60 01 00
	00		 push	 DWORD PTR [eax+352]
  000b3	e8 00 00 00 00	 call	 ?FindEtcItem@ioEtcItemManager@@QAEPAVioEtcItem@@K@Z ; ioEtcItemManager::FindEtcItem
  000b8	50		 push	 eax
  000b9	e8 00 00 00 00	 call	 ___RTDynamicCast
  000be	83 c4 14	 add	 esp, 20			; 00000014H

; 216  : 		if( pEtcItem )

  000c1	85 c0		 test	 eax, eax
  000c3	74 77		 je	 SHORT $LN11@GetSoldier

; 217  : 		{
; 218  : 			if( !pEtcItem->IsRightSoldierCode( iClassType ) ) continue;

  000c5	53		 push	 ebx
  000c6	8b c8		 mov	 ecx, eax
  000c8	e8 00 00 00 00	 call	 ?IsRightSoldierCode@ioEtcItemFourExtraCompound@@QAE_NH@Z ; ioEtcItemFourExtraCompound::IsRightSoldierCode
  000cd	84 c0		 test	 al, al
  000cf	74 6b		 je	 SHORT $LN11@GetSoldier

; 219  : 		}
; 220  : 		else
; 221  : 		{
; 222  : 			continue;
; 223  : 		}
; 224  : 
; 225  : 		NewShopPullDownItem kItem;

  000d1	8d 4d 9c	 lea	 ecx, DWORD PTR _kItem$510176[ebp]
  000d4	e8 00 00 00 00	 call	 ??0NewShopPullDownItem@@QAE@XZ ; NewShopPullDownItem::NewShopPullDownItem

; 226  : 		kItem.m_iMagicCode = iClassType;
; 227  : 		kItem.m_szName     = pInfo->GetName();

  000d9	8b 45 ec	 mov	 eax, DWORD PTR _pInfo$510165[ebp]
  000dc	83 65 fc 00	 and	 DWORD PTR __$EHRec$[ebp+8], 0
  000e0	83 c0 08	 add	 eax, 8
  000e3	50		 push	 eax
  000e4	8d 4d 9c	 lea	 ecx, DWORD PTR _kItem$510176[ebp]
  000e7	89 5d ac	 mov	 DWORD PTR _kItem$510176[ebp+16], ebx
  000ea	ff 15 00 00 00
	00		 call	 DWORD PTR __imp_??4ioHashString@@QAEAAV0@ABV0@@Z

; 228  : 		if( IsHaveAllExtra( iClassType ) )

  000f0	8b 4d f0	 mov	 ecx, DWORD PTR _this$[ebp]
  000f3	53		 push	 ebx
  000f4	e8 00 00 00 00	 call	 ?IsHaveAllExtra@InvenFourExtraCompoundBuyWnd@@IAE_NH@Z ; InvenFourExtraCompoundBuyWnd::IsHaveAllExtra
  000f9	84 c0		 test	 al, al
  000fb	74 21		 je	 SHORT $LN3@GetSoldier

; 229  : 			kItem.m_dwTextColor= g_UIImageRenderMgr.GetGradeTextColor( g_UIImageRenderMgr.GetPowerUpGradeType( kItem.m_iMagicCode ) );

  000fd	ff 75 ac	 push	 DWORD PTR _kItem$510176[ebp+16]
  00100	e8 00 00 00 00	 call	 ?GetSingleton@ioUIImageRenderManager@@SAAAV1@XZ ; ioUIImageRenderManager::GetSingleton
  00105	8b c8		 mov	 ecx, eax
  00107	e8 00 00 00 00	 call	 ?GetPowerUpGradeType@ioUIImageRenderManager@@QAEHH@Z ; ioUIImageRenderManager::GetPowerUpGradeType
  0010c	50		 push	 eax
  0010d	e8 00 00 00 00	 call	 ?GetSingleton@ioUIImageRenderManager@@SAAAV1@XZ ; ioUIImageRenderManager::GetSingleton
  00112	8b c8		 mov	 ecx, eax
  00114	e8 00 00 00 00	 call	 ?GetGradeTextColor@ioUIImageRenderManager@@QAEKH@Z ; ioUIImageRenderManager::GetGradeTextColor
  00119	89 45 b0	 mov	 DWORD PTR _kItem$510176[ebp+20], eax

; 230  : 		else

  0011c	eb 07		 jmp	 SHORT $LN2@GetSoldier
$LN3@GetSoldier:

; 231  : 			kItem.m_dwTextColor= TCT_DEFAULT_GRAY;

  0011e	c7 45 b0 6e 6e
	6e ff		 mov	 DWORD PTR _kItem$510176[ebp+20], -9539986 ; ff6e6e6eH
$LN2@GetSoldier:

; 232  : 		rkList.push_back( kItem );

  00125	8d 45 9c	 lea	 eax, DWORD PTR _kItem$510176[ebp]
  00128	50		 push	 eax
  00129	8b cf		 mov	 ecx, edi
  0012b	e8 00 00 00 00	 call	 ?push_back@?$vector@UNewShopPullDownItem@@V?$allocator@UNewShopPullDownItem@@@std@@@std@@QAEXABUNewShopPullDownItem@@@Z ; std::vector<NewShopPullDownItem,std::allocator<NewShopPullDownItem> >::push_back

; 233  : 	}

  00130	83 4d fc ff	 or	 DWORD PTR __$EHRec$[ebp+8], -1
  00134	8d 4d 9c	 lea	 ecx, DWORD PTR _kItem$510176[ebp]
  00137	e8 00 00 00 00	 call	 ??1NewShopPullDownItem@@QAE@XZ
$LN11@GetSoldier:

; 200  : 	for (int i = 0; i <  iMaxClass; i++)

  0013c	ff 45 08	 inc	 DWORD PTR _i$510160[ebp]
  0013f	39 75 08	 cmp	 DWORD PTR _i$510160[ebp], esi
  00142	0f 8c f6 fe ff
	ff		 jl	 $LN12@GetSoldier
$LN10@GetSoldier:

; 234  : 
; 235  : 	if( rkList.empty() ) return;

  00148	8b 07		 mov	 eax, DWORD PTR [edi]
  0014a	8b 7f 04	 mov	 edi, DWORD PTR [edi+4]
  0014d	3b c7		 cmp	 eax, edi
  0014f	74 0d		 je	 SHORT $LN13@GetSoldier

; 236  : 
; 237  : 	std::sort( rkList.begin() , rkList.end(), SoldierSort() );

  00151	ff 75 08	 push	 DWORD PTR $T521236[ebp]
  00154	57		 push	 edi
  00155	50		 push	 eax
  00156	e8 00 00 00 00	 call	 ??$sort@V?$_Vector_iterator@V?$_Vector_val@UNewShopPullDownItem@@V?$allocator@UNewShopPullDownItem@@@std@@@std@@@std@@VSoldierSort@InvenFourExtraCompoundBuyWnd@@@std@@YAXV?$_Vector_iterator@V?$_Vector_val@UNewShopPullDownItem@@V?$allocator@UNewShopPullDownItem@@@std@@@std@@@0@0VSoldierSort@InvenFourExtraCompoundBuyWnd@@@Z ; std::sort<std::_Vector_iterator<std::_Vector_val<NewShopPullDownItem,std::allocator<NewShopPullDownItem> > >,InvenFourExtraCompoundBuyWnd::SoldierSort>
  0015b	83 c4 0c	 add	 esp, 12			; 0000000cH
$LN13@GetSoldier:

; 238  : }

  0015e	e8 00 00 00 00	 call	 __EH_epilog3
  00163	c2 04 00	 ret	 4
_TEXT	ENDS
;	COMDAT text$x
text$x	SEGMENT
__unwindfunclet$?GetSoldierList@InvenFourExtraCompoundBuyWnd@@IAEXAAV?$vector@UNewShopPullDownItem@@V?$allocator@UNewShopPullDownItem@@@std@@@std@@@Z$0:
  00000	8d 4d 9c	 lea	 ecx, DWORD PTR _kItem$510176[ebp]
  00003	e9 00 00 00 00	 jmp	 ??1NewShopPullDownItem@@QAE@XZ
__ehhandler$?GetSoldierList@InvenFourExtraCompoundBuyWnd@@IAEXAAV?$vector@UNewShopPullDownItem@@V?$allocator@UNewShopPullDownItem@@@std@@@std@@@Z:
  00008	8b 54 24 08	 mov	 edx, DWORD PTR [esp+8]
  0000c	8d 42 0c	 lea	 eax, DWORD PTR [edx+12]
  0000f	8b 4a 98	 mov	 ecx, DWORD PTR [edx-104]
  00012	33 c8		 xor	 ecx, eax
  00014	e8 00 00 00 00	 call	 @__security_check_cookie@4
  00019	b8 00 00 00 00	 mov	 eax, OFFSET __ehfuncinfo$?GetSoldierList@InvenFourExtraCompoundBuyWnd@@IAEXAAV?$vector@UNewShopPullDownItem@@V?$allocator@UNewShopPullDownItem@@@std@@@std@@@Z
  0001e	e9 00 00 00 00	 jmp	 ___CxxFrameHandler3
text$x	ENDS
?GetSoldierList@InvenFourExtraCompoundBuyWnd@@IAEXAAV?$vector@UNewShopPullDownItem@@V?$allocator@UNewShopPullDownItem@@@std@@@std@@@Z ENDP ; InvenFourExtraCompoundBuyWnd::GetSoldierList
PUBLIC	??_C@_06PLEFGEEG@?$CFs?5?$CL?$CFd?$AA@		; `string'
PUBLIC	??_C@_0CL@INNCADDG@InvenFourExtraCompoundBuyWnd?3?3Ge@ ; `string'
PUBLIC	_rkList$GSCopy$
PUBLIC	?GetExtraList@InvenFourExtraCompoundBuyWnd@@IAEXKHAAV?$vector@UNewShopPullDownItem@@V?$allocator@UNewShopPullDownItem@@@std@@@std@@@Z ; InvenFourExtraCompoundBuyWnd::GetExtraList
EXTRN	__imp_?SafeSprintf@@YAXPADHPBD1H@Z:PROC
;	COMDAT ??_C@_06PLEFGEEG@?$CFs?5?$CL?$CFd?$AA@
; File d:\lost saga for developer\youtube\tutorial\source\src\lsclient\iomyinfo.h
CONST	SEGMENT
??_C@_06PLEFGEEG@?$CFs?5?$CL?$CFd?$AA@ DB '%s +%d', 00H	; `string'
CONST	ENDS
;	COMDAT ??_C@_0CL@INNCADDG@InvenFourExtraCompoundBuyWnd?3?3Ge@
CONST	SEGMENT
??_C@_0CL@INNCADDG@InvenFourExtraCompoundBuyWnd?3?3Ge@ DB 'InvenFourExtra'
	DB	'CompoundBuyWnd::GetExtraList', 00H		; `string'
CONST	ENDS
;	COMDAT xdata$x
xdata$x	SEGMENT
__unwindtable$?GetExtraList@InvenFourExtraCompoundBuyWnd@@IAEXKHAAV?$vector@UNewShopPullDownItem@@V?$allocator@UNewShopPullDownItem@@@std@@@std@@@Z DD 0ffffffffH
	DD	FLAT:__unwindfunclet$?GetExtraList@InvenFourExtraCompoundBuyWnd@@IAEXKHAAV?$vector@UNewShopPullDownItem@@V?$allocator@UNewShopPullDownItem@@@std@@@std@@@Z$0
	DD	00H
	DD	FLAT:__unwindfunclet$?GetExtraList@InvenFourExtraCompoundBuyWnd@@IAEXKHAAV?$vector@UNewShopPullDownItem@@V?$allocator@UNewShopPullDownItem@@@std@@@std@@@Z$1
__ehfuncinfo$?GetExtraList@InvenFourExtraCompoundBuyWnd@@IAEXKHAAV?$vector@UNewShopPullDownItem@@V?$allocator@UNewShopPullDownItem@@@std@@@std@@@Z DD 019930522H
	DD	02H
	DD	FLAT:__unwindtable$?GetExtraList@InvenFourExtraCompoundBuyWnd@@IAEXKHAAV?$vector@UNewShopPullDownItem@@V?$allocator@UNewShopPullDownItem@@@std@@@std@@@Z
	DD	2 DUP(00H)
	DD	2 DUP(00H)
	DD	00H
	DD	01H
; Function compile flags: /Ogsp
; File d:\lost saga for developer\youtube\tutorial\source\src\lsclient\gui\invenfourextracompoundwnd.cpp
xdata$x	ENDS
;	COMDAT ?GetExtraList@InvenFourExtraCompoundBuyWnd@@IAEXKHAAV?$vector@UNewShopPullDownItem@@V?$allocator@UNewShopPullDownItem@@@std@@@std@@@Z
_TEXT	SEGMENT
_kItem$510347 = -448					; size = 80
_kSlot$510341 = -368					; size = 72
_pItem$ = -296						; size = 4
_rkList$GSCopy$ = -292					; size = 4
$T521469 = -288						; size = 4
_iSize$ = -288						; size = 4
_iExtraCode$ = -284					; size = 4
_i$510337 = -280					; size = 4
_szName$510348 = -276					; size = 260
__$EHRec$ = -12						; size = 12
_dwID$ = 8						; size = 4
_iClassType$ = 12					; size = 4
_rkList$ = 16						; size = 4
?GetExtraList@InvenFourExtraCompoundBuyWnd@@IAEXKHAAV?$vector@UNewShopPullDownItem@@V?$allocator@UNewShopPullDownItem@@@std@@@std@@@Z PROC ; InvenFourExtraCompoundBuyWnd::GetExtraList, COMDAT
; _this$ = ecx

; 241  : {

  00000	68 b4 01 00 00	 push	 436			; 000001b4H
  00005	b8 00 00 00 00	 mov	 eax, __ehhandler$?GetExtraList@InvenFourExtraCompoundBuyWnd@@IAEXKHAAV?$vector@UNewShopPullDownItem@@V?$allocator@UNewShopPullDownItem@@@std@@@std@@@Z
  0000a	e8 00 00 00 00	 call	 __EH_prolog3_GS
  0000f	8b 4d 10	 mov	 ecx, DWORD PTR _rkList$[ebp]

; 242  : 	rkList.clear();

  00012	8b 41 04	 mov	 eax, DWORD PTR [ecx+4]
  00015	8b 11		 mov	 edx, DWORD PTR [ecx]
  00017	50		 push	 eax
  00018	52		 push	 edx
  00019	8d 85 e0 fe ff
	ff		 lea	 eax, DWORD PTR $T521469[ebp]
  0001f	50		 push	 eax

; 243  : 
; 244  : 	ioUserExtraItem *pItem = g_MyInfo.GetUserExtraItem();

  00020	89 8d dc fe ff
	ff		 mov	 DWORD PTR _rkList$GSCopy$[ebp], ecx
  00026	e8 00 00 00 00	 call	 ?erase@?$vector@UNewShopPullDownItem@@V?$allocator@UNewShopPullDownItem@@@std@@@std@@QAE?AV?$_Vector_iterator@V?$_Vector_val@UNewShopPullDownItem@@V?$allocator@UNewShopPullDownItem@@@std@@@std@@@2@V?$_Vector_const_iterator@V?$_Vector_val@UNewShopPullDownItem@@V?$allocator@UNewShopPullDownItem@@@std@@@std@@@2@0@Z ; std::vector<NewShopPullDownItem,std::allocator<NewShopPullDownItem> >::erase
  0002b	e8 00 00 00 00	 call	 ?GetSingleton@ioMyInfo@@SAAAV1@XZ ; ioMyInfo::GetSingleton
  00030	8d 88 ac 01 00
	00		 lea	 ecx, DWORD PTR [eax+428]
  00036	89 8d d8 fe ff
	ff		 mov	 DWORD PTR _pItem$[ebp], ecx

; 245  : 	if( !pItem )

  0003c	85 c9		 test	 ecx, ecx
  0003e	0f 84 e7 01 00
	00		 je	 $LN14@GetExtraLi

; 246  : 		return;
; 247  : 
; 248  : 	int iExtraCode = 0;
; 249  : 	if( dwID == ID_WEAPON_SELECT_BTN )

  00044	8b 45 08	 mov	 eax, DWORD PTR _dwID$[ebp]
  00047	83 f8 03	 cmp	 eax, 3
  0004a	75 0a		 jne	 SHORT $LN20@GetExtraLi

; 250  : 		iExtraCode = 10000+iClassType;

  0004c	8b 45 0c	 mov	 eax, DWORD PTR _iClassType$[ebp]
  0004f	05 10 27 00 00	 add	 eax, 10000		; 00002710H
  00054	eb 2f		 jmp	 SHORT $LN49@GetExtraLi
$LN20@GetExtraLi:

; 251  : 	else if( dwID == ID_ARMOR_SELECT_BTN )

  00056	83 f8 04	 cmp	 eax, 4
  00059	75 0a		 jne	 SHORT $LN18@GetExtraLi

; 252  : 		iExtraCode = 110000+iClassType;

  0005b	8b 45 0c	 mov	 eax, DWORD PTR _iClassType$[ebp]
  0005e	05 b0 ad 01 00	 add	 eax, 110000		; 0001adb0H
  00063	eb 20		 jmp	 SHORT $LN49@GetExtraLi
$LN18@GetExtraLi:

; 253  : 	else if( dwID == ID_HELMET_SELECT_BTN )

  00065	83 f8 05	 cmp	 eax, 5
  00068	75 0a		 jne	 SHORT $LN16@GetExtraLi

; 254  : 		iExtraCode = 210000+iClassType;

  0006a	8b 45 0c	 mov	 eax, DWORD PTR _iClassType$[ebp]
  0006d	05 50 34 03 00	 add	 eax, 210000		; 00033450H
  00072	eb 11		 jmp	 SHORT $LN49@GetExtraLi
$LN16@GetExtraLi:

; 255  : 	else if( dwID == ID_CLOAK_SELECT_BTN )

  00074	83 f8 06	 cmp	 eax, 6
  00077	0f 85 ae 01 00
	00		 jne	 $LN14@GetExtraLi

; 256  : 		iExtraCode = 310000+iClassType;

  0007d	8b 45 0c	 mov	 eax, DWORD PTR _iClassType$[ebp]
  00080	05 f0 ba 04 00	 add	 eax, 310000		; 0004baf0H
$LN49@GetExtraLi:
  00085	89 85 e4 fe ff
	ff		 mov	 DWORD PTR _iExtraCode$[ebp], eax

; 257  : 	else
; 258  : 		return;
; 259  : 
; 260  : 	int iSize = pItem->GetExtraItemCnt();

  0008b	e8 00 00 00 00	 call	 ?GetExtraItemCnt@ioUserExtraItem@@QAEHXZ ; ioUserExtraItem::GetExtraItemCnt

; 261  : 	for( int i=0; i < iSize; i++ )

  00090	83 a5 e8 fe ff
	ff 00		 and	 DWORD PTR _i$510337[ebp], 0
  00097	89 85 e0 fe ff
	ff		 mov	 DWORD PTR _iSize$[ebp], eax
  0009d	85 c0		 test	 eax, eax
  0009f	0f 8e 86 01 00
	00		 jle	 $LN14@GetExtraLi
  000a5	8b 3d 00 00 00
	00		 mov	 edi, DWORD PTR __imp_?SafeSprintf@@YAXPADHPBD1H@Z
  000ab	8b 1d 00 00 00
	00		 mov	 ebx, DWORD PTR __imp_?GetString@ioStringManager@@QAEPADPBD0HW4FileNamePrefix@1@@Z
  000b1	be 04 01 00 00	 mov	 esi, 260		; 00000104H
$LL12@GetExtraLi:

; 262  : 	{
; 263  : 		EXTRAITEMSLOT kSlot;

  000b6	8d 8d 90 fe ff
	ff		 lea	 ecx, DWORD PTR _kSlot$510341[ebp]
  000bc	e8 00 00 00 00	 call	 ??0EXTRAITEMSLOT@@QAE@XZ ; EXTRAITEMSLOT::EXTRAITEMSLOT

; 264  : 		if( !pItem->GetExtraItemArray( i, kSlot ) )

  000c1	8b 8d d8 fe ff
	ff		 mov	 ecx, DWORD PTR _pItem$[ebp]
  000c7	83 65 fc 00	 and	 DWORD PTR __$EHRec$[ebp+8], 0
  000cb	8d 85 90 fe ff
	ff		 lea	 eax, DWORD PTR _kSlot$510341[ebp]
  000d1	50		 push	 eax
  000d2	ff b5 e8 fe ff
	ff		 push	 DWORD PTR _i$510337[ebp]
  000d8	e8 00 00 00 00	 call	 ?GetExtraItemArray@ioUserExtraItem@@QAE_NHAAUEXTRAITEMSLOT@@@Z ; ioUserExtraItem::GetExtraItemArray
  000dd	84 c0		 test	 al, al

; 265  : 			continue;

  000df	0f 84 1f 01 00
	00		 je	 $LN50@GetExtraLi

; 266  : 		if( kSlot.m_bCharEquip )

  000e5	80 bd b6 fe ff
	ff 00		 cmp	 BYTE PTR _kSlot$510341[ebp+38], 0

; 267  : 			continue;

  000ec	0f 85 12 01 00
	00		 jne	 $LN50@GetExtraLi

; 268  : 		if( kSlot.m_PeriodType != EPT_MORTMAIN )

  000f2	83 bd 9c fe ff
	ff 01		 cmp	 DWORD PTR _kSlot$510341[ebp+12], 1

; 269  : 			continue;

  000f9	0f 85 05 01 00
	00		 jne	 $LN50@GetExtraLi

; 270  : 		if( kSlot.m_PeriodType != EPT_MORTMAIN )
; 271  : 			continue;
; 272  : 		if( kSlot.m_iItemCode != iExtraCode )

  000ff	8b 85 e4 fe ff
	ff		 mov	 eax, DWORD PTR _iExtraCode$[ebp]
  00105	39 85 90 fe ff
	ff		 cmp	 DWORD PTR _kSlot$510341[ebp], eax

; 273  : 			continue;

  0010b	0f 85 f3 00 00
	00		 jne	 $LN50@GetExtraLi

; 274  : 
; 275  : 		NewShopPullDownItem kItem;

  00111	8d 8d 40 fe ff
	ff		 lea	 ecx, DWORD PTR _kItem$510347[ebp]
  00117	e8 00 00 00 00	 call	 ??0NewShopPullDownItem@@QAE@XZ ; NewShopPullDownItem::NewShopPullDownItem

; 276  : 		kItem.m_iMagicCode = kSlot.m_iIndex;

  0011c	8b 85 98 fe ff
	ff		 mov	 eax, DWORD PTR _kSlot$510341[ebp+8]

; 277  : 
; 278  : 		char szName[MAX_PATH]="";

  00122	68 03 01 00 00	 push	 259			; 00000103H
  00127	89 85 50 fe ff
	ff		 mov	 DWORD PTR _kItem$510347[ebp+16], eax
  0012d	8d 85 ed fe ff
	ff		 lea	 eax, DWORD PTR _szName$510348[ebp+1]
  00133	6a 00		 push	 0
  00135	50		 push	 eax
  00136	c6 45 fc 01	 mov	 BYTE PTR __$EHRec$[ebp+8], 1
  0013a	c6 85 ec fe ff
	ff 00		 mov	 BYTE PTR _szName$510348[ebp], 0
  00141	e8 00 00 00 00	 call	 _memset
  00146	83 c4 0c	 add	 esp, 12			; 0000000cH

; 279  : 
; 280  : 		if( kSlot.m_iTradeState == EET_ENABLE )

  00149	83 bd a8 fe ff
	ff 02		 cmp	 DWORD PTR _kSlot$510341[ebp+24], 2

; 281  : 		{
; 282  : 			SafeSprintf( szName, sizeof( szName ), STR(1), kSlot.m_Name.c_str(), kSlot.m_iReinforce );

  00150	ff b5 94 fe ff
	ff		 push	 DWORD PTR _kSlot$510341[ebp+4]
  00156	8d 8d b8 fe ff
	ff		 lea	 ecx, DWORD PTR _kSlot$510341[ebp+40]
  0015c	75 36		 jne	 SHORT $LN4@GetExtraLi
  0015e	ff 15 00 00 00
	00		 call	 DWORD PTR __imp_?c_str@ioHashString@@QBEPBDXZ
  00164	50		 push	 eax
  00165	6a 00		 push	 0
  00167	6a 01		 push	 1
$LN52@GetExtraLi:
  00169	68 00 00 00 00	 push	 OFFSET ??_C@_00CNPNBAHC@?$AA@
  0016e	68 00 00 00 00	 push	 OFFSET ??_C@_0CL@INNCADDG@InvenFourExtraCompoundBuyWnd?3?3Ge@
  00173	ff 15 00 00 00
	00		 call	 DWORD PTR __imp_?GetSingleton@ioStringManager@@SAAAV1@XZ
  00179	8b c8		 mov	 ecx, eax
  0017b	ff d3		 call	 ebx
  0017d	50		 push	 eax
  0017e	8d 85 ec fe ff
	ff		 lea	 eax, DWORD PTR _szName$510348[ebp]
  00184	56		 push	 esi
  00185	50		 push	 eax
  00186	ff d7		 call	 edi

; 283  : 			kItem.m_dwTextColor = TCT_DEFAULT_RED;

  00188	c7 85 54 fe ff
	ff 00 16 b9 ff	 mov	 DWORD PTR _kItem$510347[ebp+20], -4647424 ; ffb91600H
  00192	eb 39		 jmp	 SHORT $LN51@GetExtraLi
$LN4@GetExtraLi:

; 284  : 		}
; 285  : 		else if( kSlot.m_iTradeState == EET_NORMAL )

  00194	83 bd a8 fe ff
	ff 01		 cmp	 DWORD PTR _kSlot$510341[ebp+24], 1
  0019b	75 0d		 jne	 SHORT $LN2@GetExtraLi

; 286  : 		{
; 287  : 			SafeSprintf( szName, sizeof( szName ), STR(2), kSlot.m_Name.c_str(), kSlot.m_iReinforce );

  0019d	ff 15 00 00 00
	00		 call	 DWORD PTR __imp_?c_str@ioHashString@@QBEPBDXZ
  001a3	50		 push	 eax
  001a4	6a 00		 push	 0
  001a6	6a 02		 push	 2

; 288  : 			kItem.m_dwTextColor = TCT_DEFAULT_RED;
; 289  : 		}
; 290  : 		else

  001a8	eb bf		 jmp	 SHORT $LN52@GetExtraLi
$LN2@GetExtraLi:

; 291  : 		{
; 292  : 			StringCbPrintf( szName, sizeof( szName ), "%s +%d", kSlot.m_Name.c_str(), kSlot.m_iReinforce );

  001aa	ff 15 00 00 00
	00		 call	 DWORD PTR __imp_?c_str@ioHashString@@QBEPBDXZ
  001b0	50		 push	 eax
  001b1	68 00 00 00 00	 push	 OFFSET ??_C@_06PLEFGEEG@?$CFs?5?$CL?$CFd?$AA@
  001b6	8d 85 ec fe ff
	ff		 lea	 eax, DWORD PTR _szName$510348[ebp]
  001bc	56		 push	 esi
  001bd	50		 push	 eax
  001be	e8 00 00 00 00	 call	 ?StringCbPrintfA@@YAJPADIPBDZZ ; StringCbPrintfA

; 293  : 			kItem.m_dwTextColor = TCT_DEFAULT_DARKGRAY;

  001c3	c7 85 54 fe ff
	ff 3a 3a 3a ff	 mov	 DWORD PTR _kItem$510347[ebp+20], -12961222 ; ff3a3a3aH
$LN51@GetExtraLi:

; 294  : 		}
; 295  : 
; 296  : 		kItem.m_szName      = szName;

  001cd	83 c4 14	 add	 esp, 20			; 00000014H
  001d0	8d 85 ec fe ff
	ff		 lea	 eax, DWORD PTR _szName$510348[ebp]
  001d6	50		 push	 eax
  001d7	8d 8d 40 fe ff
	ff		 lea	 ecx, DWORD PTR _kItem$510347[ebp]
  001dd	ff 15 00 00 00
	00		 call	 DWORD PTR __imp_??4ioHashString@@QAEAAV0@PBD@Z

; 297  : 		rkList.push_back( kItem );

  001e3	8b 8d dc fe ff
	ff		 mov	 ecx, DWORD PTR _rkList$GSCopy$[ebp]
  001e9	8d 85 40 fe ff
	ff		 lea	 eax, DWORD PTR _kItem$510347[ebp]
  001ef	50		 push	 eax
  001f0	e8 00 00 00 00	 call	 ?push_back@?$vector@UNewShopPullDownItem@@V?$allocator@UNewShopPullDownItem@@@std@@@std@@QAEXABUNewShopPullDownItem@@@Z ; std::vector<NewShopPullDownItem,std::allocator<NewShopPullDownItem> >::push_back

; 298  : 	}

  001f5	8d 8d 40 fe ff
	ff		 lea	 ecx, DWORD PTR _kItem$510347[ebp]
  001fb	c6 45 fc 00	 mov	 BYTE PTR __$EHRec$[ebp+8], 0
  001ff	e8 00 00 00 00	 call	 ??1NewShopPullDownItem@@QAE@XZ
$LN50@GetExtraLi:
  00204	83 4d fc ff	 or	 DWORD PTR __$EHRec$[ebp+8], -1
  00208	8d 8d 90 fe ff
	ff		 lea	 ecx, DWORD PTR _kSlot$510341[ebp]
  0020e	e8 00 00 00 00	 call	 ??1EXTRAITEMSLOT@@QAE@XZ
  00213	ff 85 e8 fe ff
	ff		 inc	 DWORD PTR _i$510337[ebp]
  00219	8b 85 e8 fe ff
	ff		 mov	 eax, DWORD PTR _i$510337[ebp]
  0021f	3b 85 e0 fe ff
	ff		 cmp	 eax, DWORD PTR _iSize$[ebp]
  00225	0f 8c 8b fe ff
	ff		 jl	 $LL12@GetExtraLi
$LN14@GetExtraLi:

; 299  : }

  0022b	e8 00 00 00 00	 call	 __EH_epilog3_GS
  00230	c2 0c 00	 ret	 12			; 0000000cH
_TEXT	ENDS
;	COMDAT text$x
text$x	SEGMENT
__unwindfunclet$?GetExtraList@InvenFourExtraCompoundBuyWnd@@IAEXKHAAV?$vector@UNewShopPullDownItem@@V?$allocator@UNewShopPullDownItem@@@std@@@std@@@Z$0:
  00000	8d 8d 90 fe ff
	ff		 lea	 ecx, DWORD PTR _kSlot$510341[ebp]
  00006	e9 00 00 00 00	 jmp	 ??1EXTRAITEMSLOT@@QAE@XZ
__unwindfunclet$?GetExtraList@InvenFourExtraCompoundBuyWnd@@IAEXKHAAV?$vector@UNewShopPullDownItem@@V?$allocator@UNewShopPullDownItem@@@std@@@std@@@Z$1:
  0000b	8d 8d 40 fe ff
	ff		 lea	 ecx, DWORD PTR _kItem$510347[ebp]
  00011	e9 00 00 00 00	 jmp	 ??1NewShopPullDownItem@@QAE@XZ
__ehhandler$?GetExtraList@InvenFourExtraCompoundBuyWnd@@IAEXKHAAV?$vector@UNewShopPullDownItem@@V?$allocator@UNewShopPullDownItem@@@std@@@std@@@Z:
  00016	8b 54 24 08	 mov	 edx, DWORD PTR [esp+8]
  0001a	8d 42 0c	 lea	 eax, DWORD PTR [edx+12]
  0001d	8b 8a 3c fe ff
	ff		 mov	 ecx, DWORD PTR [edx-452]
  00023	33 c8		 xor	 ecx, eax
  00025	e8 00 00 00 00	 call	 @__security_check_cookie@4
  0002a	8b 4a fc	 mov	 ecx, DWORD PTR [edx-4]
  0002d	33 c8		 xor	 ecx, eax
  0002f	e8 00 00 00 00	 call	 @__security_check_cookie@4
  00034	b8 00 00 00 00	 mov	 eax, OFFSET __ehfuncinfo$?GetExtraList@InvenFourExtraCompoundBuyWnd@@IAEXKHAAV?$vector@UNewShopPullDownItem@@V?$allocator@UNewShopPullDownItem@@@std@@@std@@@Z
  00039	e9 00 00 00 00	 jmp	 ___CxxFrameHandler3
text$x	ENDS
?GetExtraList@InvenFourExtraCompoundBuyWnd@@IAEXKHAAV?$vector@UNewShopPullDownItem@@V?$allocator@UNewShopPullDownItem@@@std@@@std@@@Z ENDP ; InvenFourExtraCompoundBuyWnd::GetExtraList
PUBLIC	??_C@_0CO@MMCLGJKP@InvenFourExtraCompoundBuyWnd?3?3Se@ ; `string'
PUBLIC	??_R0?AVNewShopPullDownWnd@@@8			; NewShopPullDownWnd `RTTI Type Descriptor'
PUBLIC	?SetPullDownMenu@InvenFourExtraCompoundBuyWnd@@IAEXPAVioWnd@@@Z ; InvenFourExtraCompoundBuyWnd::SetPullDownMenu
EXTRN	?InsertItem@NewShopPullDownWnd@@QAEXAAUNewShopPullDownItem@@@Z:PROC ; NewShopPullDownWnd::InsertItem
EXTRN	?CreatePullDown@NewShopPullDownWnd@@QAEXPAVioWnd@@HH@Z:PROC ; NewShopPullDownWnd::CreatePullDown
EXTRN	__imp_?GetXPos@ioWnd@@QBEHXZ:PROC
;	COMDAT ??_C@_0CO@MMCLGJKP@InvenFourExtraCompoundBuyWnd?3?3Se@
; File c:\program files (x86)\microsoft visual studio 10.0\vc\include\vector
CONST	SEGMENT
??_C@_0CO@MMCLGJKP@InvenFourExtraCompoundBuyWnd?3?3Se@ DB 'InvenFourExtra'
	DB	'CompoundBuyWnd::SetPullDownMenu', 00H	; `string'
CONST	ENDS
;	COMDAT ??_R0?AVNewShopPullDownWnd@@@8
_DATA	SEGMENT
??_R0?AVNewShopPullDownWnd@@@8 DD FLAT:??_7type_info@@6B@ ; NewShopPullDownWnd `RTTI Type Descriptor'
	DD	00H
	DB	'.?AVNewShopPullDownWnd@@', 00H
_DATA	ENDS
;	COMDAT xdata$x
xdata$x	SEGMENT
__unwindtable$?SetPullDownMenu@InvenFourExtraCompoundBuyWnd@@IAEXPAVioWnd@@@Z DD 0ffffffffH
	DD	FLAT:__unwindfunclet$?SetPullDownMenu@InvenFourExtraCompoundBuyWnd@@IAEXPAVioWnd@@@Z$0
__ehfuncinfo$?SetPullDownMenu@InvenFourExtraCompoundBuyWnd@@IAEXPAVioWnd@@@Z DD 019930522H
	DD	01H
	DD	FLAT:__unwindtable$?SetPullDownMenu@InvenFourExtraCompoundBuyWnd@@IAEXPAVioWnd@@@Z
	DD	2 DUP(00H)
	DD	2 DUP(00H)
	DD	00H
	DD	01H
; Function compile flags: /Ogsp
; File d:\lost saga for developer\youtube\tutorial\source\src\lsclient\gui\invenfourextracompoundwnd.cpp
xdata$x	ENDS
;	COMDAT ?SetPullDownMenu@InvenFourExtraCompoundBuyWnd@@IAEXPAVioWnd@@@Z
_TEXT	SEGMENT
_kItemList$510369 = -36					; size = 16
_value$521534 = -20					; size = 4
_this$ = -16						; size = 4
__$EHRec$ = -12						; size = 12
_pOpenBtn$ = 8						; size = 4
?SetPullDownMenu@InvenFourExtraCompoundBuyWnd@@IAEXPAVioWnd@@@Z PROC ; InvenFourExtraCompoundBuyWnd::SetPullDownMenu, COMDAT
; _this$ = ecx

; 302  : {

  00000	6a 18		 push	 24			; 00000018H
  00002	b8 00 00 00 00	 mov	 eax, __ehhandler$?SetPullDownMenu@InvenFourExtraCompoundBuyWnd@@IAEXPAVioWnd@@@Z
  00007	e8 00 00 00 00	 call	 __EH_prolog3
  0000c	89 4d f0	 mov	 DWORD PTR _this$[ebp], ecx

; 303  : 	if( !pOpenBtn ) return;

  0000f	8b 5d 08	 mov	 ebx, DWORD PTR _pOpenBtn$[ebp]
  00012	33 f6		 xor	 esi, esi
  00014	3b de		 cmp	 ebx, esi
  00016	0f 84 7a 01 00
	00		 je	 $LN32@SetPullDow

; 304  : 
; 305  : 	NewShopPullDownWnd *pPullDownWnd = dynamic_cast<NewShopPullDownWnd *>(FindChildWnd( ID_PULLDOWN_WND ));

  0001c	56		 push	 esi
  0001d	68 00 00 00 00	 push	 OFFSET ??_R0?AVNewShopPullDownWnd@@@8
  00022	68 00 00 00 00	 push	 OFFSET ??_R0?AVioWnd@@@8
  00027	56		 push	 esi
  00028	68 e9 03 00 00	 push	 1001			; 000003e9H
  0002d	ff 15 00 00 00
	00		 call	 DWORD PTR __imp_?FindChildWnd@ioWnd@@QAEPAV1@K@Z
  00033	50		 push	 eax
  00034	e8 00 00 00 00	 call	 ___RTDynamicCast
  00039	8b f8		 mov	 edi, eax
  0003b	83 c4 14	 add	 esp, 20			; 00000014H

; 306  : 	if( pPullDownWnd )

  0003e	3b fe		 cmp	 edi, esi
  00040	0f 84 50 01 00
	00		 je	 $LN32@SetPullDow

; 307  : 	{
; 308  : 		if( pPullDownWnd->IsShow() )

  00046	8b cf		 mov	 ecx, edi
  00048	ff 15 00 00 00
	00		 call	 DWORD PTR __imp_?IsShow@ioWnd@@QBE_NXZ
  0004e	84 c0		 test	 al, al
  00050	74 0d		 je	 SHORT $LN10@SetPullDow

; 309  : 			pPullDownWnd->HideWnd();

  00052	8b cf		 mov	 ecx, edi
  00054	ff 15 00 00 00
	00		 call	 DWORD PTR __imp_?HideWnd@ioWnd@@QAEXXZ

; 310  : 		else

  0005a	e9 37 01 00 00	 jmp	 $LN32@SetPullDow
$LN10@SetPullDow:

; 311  : 		{
; 312  : 			pPullDownWnd->CreatePullDown( pOpenBtn, pOpenBtn->GetXPos(), pOpenBtn->GetYPos() + 24 );

  0005f	8b cb		 mov	 ecx, ebx
  00061	ff 15 00 00 00
	00		 call	 DWORD PTR __imp_?GetYPos@ioWnd@@QBEHXZ
  00067	83 c0 18	 add	 eax, 24			; 00000018H
  0006a	50		 push	 eax
  0006b	8b cb		 mov	 ecx, ebx
  0006d	ff 15 00 00 00
	00		 call	 DWORD PTR __imp_?GetXPos@ioWnd@@QBEHXZ
  00073	50		 push	 eax
  00074	53		 push	 ebx
  00075	8b cf		 mov	 ecx, edi
  00077	e8 00 00 00 00	 call	 ?CreatePullDown@NewShopPullDownWnd@@QAEXPAVioWnd@@HH@Z ; NewShopPullDownWnd::CreatePullDown

; 313  : 
; 314  : 			vNewShopPullDownItem kItemList;

  0007c	89 75 dc	 mov	 DWORD PTR _kItemList$510369[ebp], esi
  0007f	89 75 e0	 mov	 DWORD PTR _kItemList$510369[ebp+4], esi
  00082	89 75 e4	 mov	 DWORD PTR _kItemList$510369[ebp+8], esi

; 315  : 			if( pOpenBtn->GetID() == ID_CHAR_SELECT_BTN )

  00085	8b cb		 mov	 ecx, ebx
  00087	89 75 fc	 mov	 DWORD PTR __$EHRec$[ebp+8], esi
  0008a	ff 15 00 00 00
	00		 call	 DWORD PTR __imp_?GetID@ioWnd@@QBEKXZ

; 316  : 				GetSoldierList( kItemList );

  00090	8b 4d f0	 mov	 ecx, DWORD PTR _this$[ebp]
  00093	83 f8 02	 cmp	 eax, 2
  00096	75 0b		 jne	 SHORT $LN8@SetPullDow
  00098	8d 45 dc	 lea	 eax, DWORD PTR _kItemList$510369[ebp]
  0009b	50		 push	 eax
  0009c	e8 00 00 00 00	 call	 ?GetSoldierList@InvenFourExtraCompoundBuyWnd@@IAEXAAV?$vector@UNewShopPullDownItem@@V?$allocator@UNewShopPullDownItem@@@std@@@std@@@Z ; InvenFourExtraCompoundBuyWnd::GetSoldierList

; 317  : 			else

  000a1	eb 27		 jmp	 SHORT $LN7@SetPullDow
$LN8@SetPullDow:

; 318  : 				GetExtraList( pOpenBtn->GetID(), m_CharInfo.m_class_type, kItemList );

  000a3	8d 45 ec	 lea	 eax, DWORD PTR _value$521534[ebp]
  000a6	50		 push	 eax
  000a7	81 c1 98 01 00
	00		 add	 ecx, 408		; 00000198H
  000ad	e8 00 00 00 00	 call	 ?DecryptValueToPool@?$CEncrypt@H@@QAEXPAH@Z ; CEncrypt<int>::DecryptValueToPool
  000b2	8d 45 dc	 lea	 eax, DWORD PTR _kItemList$510369[ebp]
  000b5	50		 push	 eax
  000b6	ff 75 ec	 push	 DWORD PTR _value$521534[ebp]
  000b9	8b cb		 mov	 ecx, ebx
  000bb	ff 15 00 00 00
	00		 call	 DWORD PTR __imp_?GetID@ioWnd@@QBEKXZ
  000c1	8b 4d f0	 mov	 ecx, DWORD PTR _this$[ebp]
  000c4	50		 push	 eax
  000c5	e8 00 00 00 00	 call	 ?GetExtraList@InvenFourExtraCompoundBuyWnd@@IAEXKHAAV?$vector@UNewShopPullDownItem@@V?$allocator@UNewShopPullDownItem@@@std@@@std@@@Z ; InvenFourExtraCompoundBuyWnd::GetExtraList
$LN7@SetPullDow:

; 319  : 
; 320  : 			for(int i = 0;i < (int)kItemList.size();i++)

  000ca	8b 45 e0	 mov	 eax, DWORD PTR _kItemList$510369[ebp+4]
  000cd	2b 45 dc	 sub	 eax, DWORD PTR _kItemList$510369[ebp]
  000d0	6a 50		 push	 80			; 00000050H
  000d2	99		 cdq
  000d3	59		 pop	 ecx
  000d4	f7 f9		 idiv	 ecx
  000d6	33 db		 xor	 ebx, ebx
  000d8	85 c0		 test	 eax, eax
  000da	7e 21		 jle	 SHORT $LN4@SetPullDow
$LL6@SetPullDow:

; 321  : 			{
; 322  : 				pPullDownWnd->InsertItem( kItemList[i] );

  000dc	8b 45 dc	 mov	 eax, DWORD PTR _kItemList$510369[ebp]
  000df	03 c6		 add	 eax, esi
  000e1	50		 push	 eax
  000e2	8b cf		 mov	 ecx, edi
  000e4	e8 00 00 00 00	 call	 ?InsertItem@NewShopPullDownWnd@@QAEXAAUNewShopPullDownItem@@@Z ; NewShopPullDownWnd::InsertItem
  000e9	8b 45 e0	 mov	 eax, DWORD PTR _kItemList$510369[ebp+4]
  000ec	2b 45 dc	 sub	 eax, DWORD PTR _kItemList$510369[ebp]
  000ef	6a 50		 push	 80			; 00000050H
  000f1	99		 cdq
  000f2	59		 pop	 ecx
  000f3	f7 f9		 idiv	 ecx
  000f5	43		 inc	 ebx
  000f6	83 c6 50	 add	 esi, 80			; 00000050H
  000f9	3b d8		 cmp	 ebx, eax
  000fb	7c df		 jl	 SHORT $LL6@SetPullDow
$LN4@SetPullDow:

; 323  : 			}
; 324  : 			pPullDownWnd->ShowWnd();

  000fd	8b cf		 mov	 ecx, edi
  000ff	ff 15 00 00 00
	00		 call	 DWORD PTR __imp_?ShowWnd@ioWnd@@QAEXXZ

; 325  : 
; 326  : 			int iHeight = pPullDownWnd->GetHeight();

  00105	8b cf		 mov	 ecx, edi
  00107	ff 15 00 00 00
	00		 call	 DWORD PTR __imp_?GetHeight@ioWnd@@QBEHXZ

; 327  : 			int iEndYPos = pPullDownWnd->GetYPos() + iHeight;

  0010d	8b cf		 mov	 ecx, edi
  0010f	8b d8		 mov	 ebx, eax
  00111	ff 15 00 00 00
	00		 call	 DWORD PTR __imp_?GetYPos@ioWnd@@QBEHXZ

; 328  : 			if( iEndYPos >= GetHeight() )

  00117	8b 4d f0	 mov	 ecx, DWORD PTR _this$[ebp]
  0011a	8d 34 03	 lea	 esi, DWORD PTR [ebx+eax]
  0011d	ff 15 00 00 00
	00		 call	 DWORD PTR __imp_?GetHeight@ioWnd@@QBEHXZ
  00123	3b f0		 cmp	 esi, eax
  00125	7c 1f		 jl	 SHORT $LN3@SetPullDow

; 329  : 			{
; 330  : 				int iNewYPos = pOpenBtn->GetYPos() - iHeight - 1;

  00127	8b 4d 08	 mov	 ecx, DWORD PTR _pOpenBtn$[ebp]
  0012a	ff 15 00 00 00
	00		 call	 DWORD PTR __imp_?GetYPos@ioWnd@@QBEHXZ

; 331  : 				pPullDownWnd->SetWndPos( pOpenBtn->GetXPos(), iNewYPos );

  00130	8b 4d 08	 mov	 ecx, DWORD PTR _pOpenBtn$[ebp]
  00133	2b c3		 sub	 eax, ebx
  00135	48		 dec	 eax
  00136	50		 push	 eax
  00137	ff 15 00 00 00
	00		 call	 DWORD PTR __imp_?GetXPos@ioWnd@@QBEHXZ
  0013d	50		 push	 eax
  0013e	8b cf		 mov	 ecx, edi
  00140	ff 15 00 00 00
	00		 call	 DWORD PTR __imp_?SetWndPos@ioWnd@@QAEXHH@Z
$LN3@SetPullDow:

; 332  : 			}
; 333  : 
; 334  : 			if( pOpenBtn->GetID() != ID_CHAR_SELECT_BTN )

  00146	8b 4d 08	 mov	 ecx, DWORD PTR _pOpenBtn$[ebp]
  00149	ff 15 00 00 00
	00		 call	 DWORD PTR __imp_?GetID@ioWnd@@QBEKXZ
  0014f	83 f8 02	 cmp	 eax, 2
  00152	74 36		 je	 SHORT $LN1@SetPullDow

; 335  : 			{
; 336  : 				if( kItemList.empty() )

  00154	8b 45 dc	 mov	 eax, DWORD PTR _kItemList$510369[ebp]
  00157	3b 45 e0	 cmp	 eax, DWORD PTR _kItemList$510369[ebp+4]
  0015a	75 2e		 jne	 SHORT $LN1@SetPullDow

; 337  : 					g_GUIMgr.SetMsgBox( MB_OK, NULL, STR(1) );

  0015c	33 f6		 xor	 esi, esi
  0015e	56		 push	 esi
  0015f	6a 01		 push	 1
  00161	68 00 00 00 00	 push	 OFFSET ??_C@_00CNPNBAHC@?$AA@
  00166	68 00 00 00 00	 push	 OFFSET ??_C@_0CO@MMCLGJKP@InvenFourExtraCompoundBuyWnd?3?3Se@
  0016b	ff 15 00 00 00
	00		 call	 DWORD PTR __imp_?GetSingleton@ioStringManager@@SAAAV1@XZ
  00171	8b c8		 mov	 ecx, eax
  00173	ff 15 00 00 00
	00		 call	 DWORD PTR __imp_?GetString@ioStringManager@@QAEPADPBD0HW4FileNamePrefix@1@@Z
  00179	50		 push	 eax
  0017a	56		 push	 esi
  0017b	56		 push	 esi
  0017c	e8 00 00 00 00	 call	 ?GetSingleton@ioSP2GUIManager@@SAAAV1@XZ ; ioSP2GUIManager::GetSingleton
  00181	50		 push	 eax
  00182	e8 00 00 00 00	 call	 ?SetMsgBox@ioSP2GUIManager@@QAAXHPAVioWnd@@PBDZZ ; ioSP2GUIManager::SetMsgBox
  00187	83 c4 10	 add	 esp, 16			; 00000010H
$LN1@SetPullDow:

; 338  : 			}
; 339  : 		}

  0018a	83 4d fc ff	 or	 DWORD PTR __$EHRec$[ebp+8], -1
  0018e	8d 4d dc	 lea	 ecx, DWORD PTR _kItemList$510369[ebp]
  00191	e8 00 00 00 00	 call	 ?_Tidy@?$vector@UNewShopPullDownItem@@V?$allocator@UNewShopPullDownItem@@@std@@@std@@IAEXXZ ; std::vector<NewShopPullDownItem,std::allocator<NewShopPullDownItem> >::_Tidy
$LN32@SetPullDow:

; 340  : 	}
; 341  : }

  00196	e8 00 00 00 00	 call	 __EH_epilog3
  0019b	c2 04 00	 ret	 4
_TEXT	ENDS
;	COMDAT text$x
text$x	SEGMENT
__unwindfunclet$?SetPullDownMenu@InvenFourExtraCompoundBuyWnd@@IAEXPAVioWnd@@@Z$0:
  00000	8d 4d dc	 lea	 ecx, DWORD PTR _kItemList$510369[ebp]
  00003	e9 00 00 00 00	 jmp	 ??1?$vector@UNewShopPullDownItem@@V?$allocator@UNewShopPullDownItem@@@std@@@std@@QAE@XZ ; std::vector<NewShopPullDownItem,std::allocator<NewShopPullDownItem> >::~vector<NewShopPullDownItem,std::allocator<NewShopPullDownItem> >
__ehhandler$?SetPullDownMenu@InvenFourExtraCompoundBuyWnd@@IAEXPAVioWnd@@@Z:
  00008	8b 54 24 08	 mov	 edx, DWORD PTR [esp+8]
  0000c	8d 42 0c	 lea	 eax, DWORD PTR [edx+12]
  0000f	8b 4a d8	 mov	 ecx, DWORD PTR [edx-40]
  00012	33 c8		 xor	 ecx, eax
  00014	e8 00 00 00 00	 call	 @__security_check_cookie@4
  00019	b8 00 00 00 00	 mov	 eax, OFFSET __ehfuncinfo$?SetPullDownMenu@InvenFourExtraCompoundBuyWnd@@IAEXPAVioWnd@@@Z
  0001e	e9 00 00 00 00	 jmp	 ___CxxFrameHandler3
text$x	ENDS
?SetPullDownMenu@InvenFourExtraCompoundBuyWnd@@IAEXPAVioWnd@@@Z ENDP ; InvenFourExtraCompoundBuyWnd::SetPullDownMenu
PUBLIC	?PullDownBtnUP@InvenFourExtraCompoundBuyWnd@@IAEXPAVioWnd@@H@Z ; InvenFourExtraCompoundBuyWnd::PullDownBtnUP
EXTRN	?ReleaseItem@NewShopHelpWnd@@QAEXH@Z:PROC	; NewShopHelpWnd::ReleaseItem
EXTRN	?SetSelectExtraItemSlot@SelectExtraItemBtn@@QAEXH@Z:PROC ; SelectExtraItemBtn::SetSelectExtraItemSlot
EXTRN	?InitData@SelectExtraItemBtn@@QAEXXZ:PROC	; SelectExtraItemBtn::InitData
;	COMDAT xdata$x
; File c:\program files (x86)\microsoft visual studio 10.0\vc\include\vector
xdata$x	SEGMENT
__unwindtable$?PullDownBtnUP@InvenFourExtraCompoundBuyWnd@@IAEXPAVioWnd@@H@Z DD 0ffffffffH
	DD	FLAT:__unwindfunclet$?PullDownBtnUP@InvenFourExtraCompoundBuyWnd@@IAEXPAVioWnd@@H@Z$0
__ehfuncinfo$?PullDownBtnUP@InvenFourExtraCompoundBuyWnd@@IAEXPAVioWnd@@H@Z DD 019930522H
	DD	01H
	DD	FLAT:__unwindtable$?PullDownBtnUP@InvenFourExtraCompoundBuyWnd@@IAEXPAVioWnd@@H@Z
	DD	2 DUP(00H)
	DD	2 DUP(00H)
	DD	00H
	DD	01H
; Function compile flags: /Ogsp
; File d:\lost saga for developer\youtube\tutorial\source\src\lsclient\gui\invenfourextracompoundwnd.cpp
xdata$x	ENDS
;	COMDAT ?PullDownBtnUP@InvenFourExtraCompoundBuyWnd@@IAEXPAVioWnd@@H@Z
_TEXT	SEGMENT
_kItemList$ = -32					; size = 16
_value$521592 = -16					; size = 4
__$EHRec$ = -12						; size = 12
_value$521678 = 8					; size = 4
_value$521674 = 8					; size = 4
_value$521670 = 8					; size = 4
_value$521666 = 8					; size = 4
_pOpenBtn$ = 8						; size = 4
_pCharWnd$ = 12						; size = 4
_i$510468 = 12						; size = 4
_i$510461 = 12						; size = 4
_iListArray$ = 12					; size = 4
?PullDownBtnUP@InvenFourExtraCompoundBuyWnd@@IAEXPAVioWnd@@H@Z PROC ; InvenFourExtraCompoundBuyWnd::PullDownBtnUP, COMDAT
; _this$ = ecx

; 422  : {

  00000	6a 14		 push	 20			; 00000014H
  00002	b8 00 00 00 00	 mov	 eax, __ehhandler$?PullDownBtnUP@InvenFourExtraCompoundBuyWnd@@IAEXPAVioWnd@@H@Z
  00007	e8 00 00 00 00	 call	 __EH_prolog3
  0000c	8b f9		 mov	 edi, ecx

; 423  : 	if( !pOpenBtn ) return;

  0000e	8b 75 08	 mov	 esi, DWORD PTR _pOpenBtn$[ebp]
  00011	33 db		 xor	 ebx, ebx
  00013	3b f3		 cmp	 esi, ebx
  00015	0f 84 b6 02 00
	00		 je	 $LN87@PullDownBt

; 424  : 	
; 425  : 	vNewShopPullDownItem kItemList;

  0001b	89 5d e0	 mov	 DWORD PTR _kItemList$[ebp], ebx
  0001e	89 5d e4	 mov	 DWORD PTR _kItemList$[ebp+4], ebx
  00021	89 5d e8	 mov	 DWORD PTR _kItemList$[ebp+8], ebx

; 426  : 	if( pOpenBtn->GetID() == ID_CHAR_SELECT_BTN )

  00024	8b ce		 mov	 ecx, esi
  00026	89 5d fc	 mov	 DWORD PTR __$EHRec$[ebp+8], ebx
  00029	ff 15 00 00 00
	00		 call	 DWORD PTR __imp_?GetID@ioWnd@@QBEKXZ
  0002f	83 f8 02	 cmp	 eax, 2
  00032	75 0d		 jne	 SHORT $LN26@PullDownBt

; 427  : 		GetSoldierList( kItemList );

  00034	8d 45 e0	 lea	 eax, DWORD PTR _kItemList$[ebp]
  00037	50		 push	 eax
  00038	8b cf		 mov	 ecx, edi
  0003a	e8 00 00 00 00	 call	 ?GetSoldierList@InvenFourExtraCompoundBuyWnd@@IAEXAAV?$vector@UNewShopPullDownItem@@V?$allocator@UNewShopPullDownItem@@@std@@@std@@@Z ; InvenFourExtraCompoundBuyWnd::GetSoldierList

; 428  : 	else

  0003f	eb 26		 jmp	 SHORT $LN25@PullDownBt
$LN26@PullDownBt:

; 429  : 		GetExtraList( pOpenBtn->GetID(), m_CharInfo.m_class_type, kItemList );

  00041	8d 45 f0	 lea	 eax, DWORD PTR _value$521592[ebp]
  00044	50		 push	 eax
  00045	8d 8f 98 01 00
	00		 lea	 ecx, DWORD PTR [edi+408]
  0004b	e8 00 00 00 00	 call	 ?DecryptValueToPool@?$CEncrypt@H@@QAEXPAH@Z ; CEncrypt<int>::DecryptValueToPool
  00050	8d 45 e0	 lea	 eax, DWORD PTR _kItemList$[ebp]
  00053	50		 push	 eax
  00054	ff 75 f0	 push	 DWORD PTR _value$521592[ebp]
  00057	8b ce		 mov	 ecx, esi
  00059	ff 15 00 00 00
	00		 call	 DWORD PTR __imp_?GetID@ioWnd@@QBEKXZ
  0005f	50		 push	 eax
  00060	8b cf		 mov	 ecx, edi
  00062	e8 00 00 00 00	 call	 ?GetExtraList@InvenFourExtraCompoundBuyWnd@@IAEXKHAAV?$vector@UNewShopPullDownItem@@V?$allocator@UNewShopPullDownItem@@@std@@@std@@@Z ; InvenFourExtraCompoundBuyWnd::GetExtraList
$LN25@PullDownBt:

; 430  : 
; 431  : 	if( !COMPARE( iListArray, 0, (int)kItemList.size() ) ) return;		

  00067	39 5d 0c	 cmp	 DWORD PTR _iListArray$[ebp], ebx
  0006a	0f 8c 55 02 00
	00		 jl	 $LN23@PullDownBt
  00070	8b 45 e4	 mov	 eax, DWORD PTR _kItemList$[ebp+4]
  00073	2b 45 e0	 sub	 eax, DWORD PTR _kItemList$[ebp]
  00076	6a 50		 push	 80			; 00000050H
  00078	99		 cdq
  00079	59		 pop	 ecx
  0007a	f7 f9		 idiv	 ecx
  0007c	39 45 0c	 cmp	 DWORD PTR _iListArray$[ebp], eax
  0007f	0f 8d 40 02 00
	00		 jge	 $LN23@PullDownBt

; 432  : 	
; 433  : 
; 434  : 	if( pOpenBtn->GetID() == ID_CHAR_SELECT_BTN )

  00085	8b ce		 mov	 ecx, esi
  00087	ff 15 00 00 00
	00		 call	 DWORD PTR __imp_?GetID@ioWnd@@QBEKXZ
  0008d	83 f8 02	 cmp	 eax, 2
  00090	0f 85 85 00 00
	00		 jne	 $LN22@PullDownBt

; 435  : 	{
; 436  : 		// btn
; 437  : 		if( m_iCurBtnUpClassType == kItemList[iListArray].m_iMagicCode ) return;

  00096	8b 75 0c	 mov	 esi, DWORD PTR _iListArray$[ebp]
  00099	8b 45 e0	 mov	 eax, DWORD PTR _kItemList$[ebp]
  0009c	6b f6 50	 imul	 esi, 80			; 00000050H
  0009f	8b 97 68 01 00
	00		 mov	 edx, DWORD PTR [edi+360]
  000a5	8d 44 06 10	 lea	 eax, DWORD PTR [esi+eax+16]
  000a9	3b 10		 cmp	 edx, DWORD PTR [eax]
  000ab	0f 84 14 02 00
	00		 je	 $LN23@PullDownBt

; 438  : 
; 439  : 		m_iCurBtnUpClassType = kItemList[iListArray].m_iMagicCode;

  000b1	8b 10		 mov	 edx, DWORD PTR [eax]
  000b3	89 97 68 01 00
	00		 mov	 DWORD PTR [edi+360], edx

; 440  : 		SetBtnTitle( kItemList[iListArray].m_iMagicCode );

  000b9	ff 30		 push	 DWORD PTR [eax]
  000bb	8b cf		 mov	 ecx, edi
  000bd	e8 00 00 00 00	 call	 ?SetBtnTitle@InvenFourExtraCompoundBuyWnd@@IAEXH@Z ; InvenFourExtraCompoundBuyWnd::SetBtnTitle

; 441  : 
; 442  : 		enum { MAX_ITEM = 4, };
; 443  : 		for (int i = 0; i < MAX_ITEM ; i++)

  000c2	89 5d 0c	 mov	 DWORD PTR _i$510461[ebp], ebx
$LN20@PullDownBt:

; 444  : 		{
; 445  : 			SelectExtraItemBtn *pItem = dynamic_cast<SelectExtraItemBtn*>(FindChildWnd( ID_WEAPON_SELECT_BTN + i ));

  000c5	8b 45 0c	 mov	 eax, DWORD PTR _i$510461[ebp]
  000c8	53		 push	 ebx
  000c9	68 00 00 00 00	 push	 OFFSET ??_R0?AVSelectExtraItemBtn@@@8
  000ce	68 00 00 00 00	 push	 OFFSET ??_R0?AVioWnd@@@8
  000d3	53		 push	 ebx
  000d4	83 c0 03	 add	 eax, 3
  000d7	50		 push	 eax
  000d8	8b cf		 mov	 ecx, edi
  000da	ff 15 00 00 00
	00		 call	 DWORD PTR __imp_?FindChildWnd@ioWnd@@QAEPAV1@K@Z
  000e0	50		 push	 eax
  000e1	e8 00 00 00 00	 call	 ___RTDynamicCast
  000e6	83 c4 14	 add	 esp, 20			; 00000014H

; 446  : 			if( !pItem )

  000e9	3b c3		 cmp	 eax, ebx
  000eb	74 07		 je	 SHORT $LN19@PullDownBt

; 447  : 				continue;
; 448  : 			pItem->InitData();

  000ed	8b c8		 mov	 ecx, eax
  000ef	e8 00 00 00 00	 call	 ?InitData@SelectExtraItemBtn@@QAEXXZ ; SelectExtraItemBtn::InitData
$LN19@PullDownBt:

; 441  : 
; 442  : 		enum { MAX_ITEM = 4, };
; 443  : 		for (int i = 0; i < MAX_ITEM ; i++)

  000f4	ff 45 0c	 inc	 DWORD PTR _i$510461[ebp]
  000f7	83 7d 0c 04	 cmp	 DWORD PTR _i$510461[ebp], 4
  000fb	7c c8		 jl	 SHORT $LN20@PullDownBt

; 449  : 		}
; 450  : 
; 451  : 		for (int i = 0; i < MAX_ITEM ; i++)

  000fd	89 5d 0c	 mov	 DWORD PTR _i$510468[ebp], ebx
$LN16@PullDownBt:

; 452  : 		{
; 453  : 			SetIconBtn( ID_WEAPON_ICON_BTN + i, -1 ); // -1 : 아이콘 초기화

  00100	8b 45 0c	 mov	 eax, DWORD PTR _i$510468[ebp]
  00103	6a ff		 push	 -1
  00105	83 c0 07	 add	 eax, 7
  00108	50		 push	 eax
  00109	8b cf		 mov	 ecx, edi
  0010b	e8 00 00 00 00	 call	 ?SetIconBtn@InvenFourExtraCompoundBuyWnd@@IAEXKH@Z ; InvenFourExtraCompoundBuyWnd::SetIconBtn
  00110	ff 45 0c	 inc	 DWORD PTR _i$510468[ebp]
  00113	83 7d 0c 04	 cmp	 DWORD PTR _i$510468[ebp], 4
  00117	7c e7		 jl	 SHORT $LN16@PullDownBt

; 454  : 		}
; 455  : 	}
; 456  : 	else

  00119	eb 59		 jmp	 SHORT $LN13@PullDownBt
$LN22@PullDownBt:

; 457  : 	{
; 458  : 		// btn
; 459  : 		SelectExtraItemBtn *pItemBtn = dynamic_cast<SelectExtraItemBtn*>( pOpenBtn );

  0011b	53		 push	 ebx
  0011c	68 00 00 00 00	 push	 OFFSET ??_R0?AVSelectExtraItemBtn@@@8
  00121	68 00 00 00 00	 push	 OFFSET ??_R0?AVioWnd@@@8
  00126	53		 push	 ebx
  00127	56		 push	 esi
  00128	e8 00 00 00 00	 call	 ___RTDynamicCast
  0012d	83 c4 14	 add	 esp, 20			; 00000014H

; 460  : 		if( !pItemBtn ) return;

  00130	3b c3		 cmp	 eax, ebx
  00132	0f 84 8d 01 00
	00		 je	 $LN23@PullDownBt

; 461  : 		
; 462  : 		if( pItemBtn->GetSelectExtraItemSlot() == kItemList[iListArray].m_iMagicCode ) return;

  00138	8b 75 0c	 mov	 esi, DWORD PTR _iListArray$[ebp]
  0013b	8b 4d e0	 mov	 ecx, DWORD PTR _kItemList$[ebp]
  0013e	6b f6 50	 imul	 esi, 80			; 00000050H
  00141	8b 4c 0e 10	 mov	 ecx, DWORD PTR [esi+ecx+16]
  00145	39 88 fc 01 00
	00		 cmp	 DWORD PTR [eax+508], ecx
  0014b	0f 84 74 01 00
	00		 je	 $LN23@PullDownBt

; 463  : 
; 464  : 		pItemBtn->SetSelectExtraItemSlot( kItemList[iListArray].m_iMagicCode );

  00151	51		 push	 ecx
  00152	8b c8		 mov	 ecx, eax
  00154	e8 00 00 00 00	 call	 ?SetSelectExtraItemSlot@SelectExtraItemBtn@@QAEXH@Z ; SelectExtraItemBtn::SetSelectExtraItemSlot

; 465  : 		SetIconBtn( pOpenBtn->GetID() + ADD_SELECT_TO_ICON, kItemList[iListArray].m_iMagicCode );

  00159	8b 45 e0	 mov	 eax, DWORD PTR _kItemList$[ebp]
  0015c	ff 74 30 10	 push	 DWORD PTR [eax+esi+16]
  00160	8b 4d 08	 mov	 ecx, DWORD PTR _pOpenBtn$[ebp]
  00163	ff 15 00 00 00
	00		 call	 DWORD PTR __imp_?GetID@ioWnd@@QBEKXZ
  00169	83 c0 04	 add	 eax, 4
  0016c	50		 push	 eax
  0016d	8b cf		 mov	 ecx, edi
  0016f	e8 00 00 00 00	 call	 ?SetIconBtn@InvenFourExtraCompoundBuyWnd@@IAEXKH@Z ; InvenFourExtraCompoundBuyWnd::SetIconBtn
$LN13@PullDownBt:

; 466  : 	}
; 467  : 	
; 468  : 	// char
; 469  : 	NewShopHelpWnd *pCharWnd = dynamic_cast<NewShopHelpWnd *>( FindChildWnd( ID_SOLDIER_WND ));

  00174	53		 push	 ebx
  00175	68 00 00 00 00	 push	 OFFSET ??_R0?AVNewShopHelpWnd@@@8
  0017a	68 00 00 00 00	 push	 OFFSET ??_R0?AVioWnd@@@8
  0017f	53		 push	 ebx
  00180	68 e8 03 00 00	 push	 1000			; 000003e8H
  00185	8b cf		 mov	 ecx, edi
  00187	ff 15 00 00 00
	00		 call	 DWORD PTR __imp_?FindChildWnd@ioWnd@@QAEPAV1@K@Z
  0018d	50		 push	 eax
  0018e	e8 00 00 00 00	 call	 ___RTDynamicCast
  00193	83 c4 14	 add	 esp, 20			; 00000014H
  00196	89 45 0c	 mov	 DWORD PTR _pCharWnd$[ebp], eax

; 470  : 	if( !pCharWnd ) return;

  00199	3b c3		 cmp	 eax, ebx
  0019b	0f 84 24 01 00
	00		 je	 $LN23@PullDownBt

; 471  : 	
; 472  : 	if( pOpenBtn->GetID() == ID_CHAR_SELECT_BTN )

  001a1	8b 4d 08	 mov	 ecx, DWORD PTR _pOpenBtn$[ebp]
  001a4	ff 15 00 00 00
	00		 call	 DWORD PTR __imp_?GetID@ioWnd@@QBEKXZ
  001aa	83 f8 02	 cmp	 eax, 2
  001ad	75 46		 jne	 SHORT $LN9@PullDownBt

; 473  : 	{
; 474  : 		NewShopBuyWnd::GetDefaultCharInfo( m_CharInfo, kItemList[iListArray].m_iMagicCode );

  001af	8b 45 e0	 mov	 eax, DWORD PTR _kItemList$[ebp]
  001b2	6a ff		 push	 -1
  001b4	ff 74 06 10	 push	 DWORD PTR [esi+eax+16]
  001b8	81 c7 98 01 00
	00		 add	 edi, 408		; 00000198H
  001be	57		 push	 edi
  001bf	e8 00 00 00 00	 call	 ?GetDefaultCharInfo@NewShopBuyWnd@@SAXAAUCHARACTER@@HH@Z ; NewShopBuyWnd::GetDefaultCharInfo

; 475  : 		pCharWnd->SetZPosition( 600.0f );

  001c4	f3 0f 10 05 00
	00 00 00	 movss	 xmm0, DWORD PTR __real@44160000
  001cc	59		 pop	 ecx
  001cd	59		 pop	 ecx
  001ce	8b 4d 0c	 mov	 ecx, DWORD PTR _pCharWnd$[ebp]
  001d1	f3 0f 11 04 24	 movss	 DWORD PTR [esp], xmm0
  001d6	e8 00 00 00 00	 call	 ?SetZPosition@NewShopHelpWnd@@QAEXM@Z ; NewShopHelpWnd::SetZPosition

; 476  : 		pCharWnd->SetChar( m_CharInfo );

  001db	8b 4d 0c	 mov	 ecx, DWORD PTR _pCharWnd$[ebp]
  001de	57		 push	 edi
  001df	e8 00 00 00 00	 call	 ?SetChar@NewShopHelpWnd@@QAEXABUCHARACTER@@@Z ; NewShopHelpWnd::SetChar

; 477  : 		pCharWnd->SetEquip( false, true, false );

  001e4	8b 4d 0c	 mov	 ecx, DWORD PTR _pCharWnd$[ebp]
  001e7	53		 push	 ebx
  001e8	6a 01		 push	 1
  001ea	53		 push	 ebx
  001eb	e8 00 00 00 00	 call	 ?SetEquip@NewShopHelpWnd@@QAEX_N00@Z ; NewShopHelpWnd::SetEquip
  001f0	e9 d0 00 00 00	 jmp	 $LN23@PullDownBt
$LN9@PullDownBt:

; 478  : 	}
; 479  : 	else if( pOpenBtn->GetID() == ID_WEAPON_SELECT_BTN )

  001f5	8b 75 08	 mov	 esi, DWORD PTR _pOpenBtn$[ebp]
  001f8	8b ce		 mov	 ecx, esi
  001fa	ff 15 00 00 00
	00		 call	 DWORD PTR __imp_?GetID@ioWnd@@QBEKXZ
  00200	83 f8 03	 cmp	 eax, 3
  00203	75 25		 jne	 SHORT $LN7@PullDownBt

; 480  : 	{
; 481  : 		pCharWnd->ReleaseItem( ioCreateChar::CCS_WEAPON );

  00205	8b 4d 0c	 mov	 ecx, DWORD PTR _pCharWnd$[ebp]
  00208	53		 push	 ebx
  00209	e8 00 00 00 00	 call	 ?ReleaseItem@NewShopHelpWnd@@QAEXH@Z ; NewShopHelpWnd::ReleaseItem

; 482  : 		pCharWnd->EquipItem( 10000+m_CharInfo.m_class_type, 0, 0 );

  0020e	8d 45 08	 lea	 eax, DWORD PTR _value$521666[ebp]
  00211	50		 push	 eax
  00212	8d 8f 98 01 00
	00		 lea	 ecx, DWORD PTR [edi+408]
  00218	e8 00 00 00 00	 call	 ?DecryptValueToPool@?$CEncrypt@H@@QAEXPAH@Z ; CEncrypt<int>::DecryptValueToPool
  0021d	8b 45 08	 mov	 eax, DWORD PTR _value$521666[ebp]
  00220	05 10 27 00 00	 add	 eax, 10000		; 00002710H
  00225	e9 8e 00 00 00	 jmp	 $LN99@PullDownBt
$LN7@PullDownBt:

; 483  : 	}
; 484  : 	else if( pOpenBtn->GetID() == ID_ARMOR_SELECT_BTN )

  0022a	8b ce		 mov	 ecx, esi
  0022c	ff 15 00 00 00
	00		 call	 DWORD PTR __imp_?GetID@ioWnd@@QBEKXZ
  00232	83 f8 04	 cmp	 eax, 4
  00235	75 23		 jne	 SHORT $LN5@PullDownBt

; 485  : 	{
; 486  : 		pCharWnd->ReleaseItem( ioCreateChar::CCS_ARMOR );

  00237	8b 4d 0c	 mov	 ecx, DWORD PTR _pCharWnd$[ebp]
  0023a	6a 01		 push	 1
  0023c	e8 00 00 00 00	 call	 ?ReleaseItem@NewShopHelpWnd@@QAEXH@Z ; NewShopHelpWnd::ReleaseItem

; 487  : 		pCharWnd->EquipItem( 110000+m_CharInfo.m_class_type, 0, 0 );

  00241	8d 45 08	 lea	 eax, DWORD PTR _value$521670[ebp]
  00244	50		 push	 eax
  00245	8d 8f 98 01 00
	00		 lea	 ecx, DWORD PTR [edi+408]
  0024b	e8 00 00 00 00	 call	 ?DecryptValueToPool@?$CEncrypt@H@@QAEXPAH@Z ; CEncrypt<int>::DecryptValueToPool
  00250	8b 45 08	 mov	 eax, DWORD PTR _value$521670[ebp]
  00253	05 b0 ad 01 00	 add	 eax, 110000		; 0001adb0H
  00258	eb 5e		 jmp	 SHORT $LN99@PullDownBt
$LN5@PullDownBt:

; 488  : 	}
; 489  : 	else if( pOpenBtn->GetID() == ID_HELMET_SELECT_BTN )

  0025a	8b ce		 mov	 ecx, esi
  0025c	ff 15 00 00 00
	00		 call	 DWORD PTR __imp_?GetID@ioWnd@@QBEKXZ
  00262	83 f8 05	 cmp	 eax, 5
  00265	75 23		 jne	 SHORT $LN3@PullDownBt

; 490  : 	{
; 491  : 		pCharWnd->ReleaseItem( ioCreateChar::CCS_HELMET );

  00267	8b 4d 0c	 mov	 ecx, DWORD PTR _pCharWnd$[ebp]
  0026a	6a 02		 push	 2
  0026c	e8 00 00 00 00	 call	 ?ReleaseItem@NewShopHelpWnd@@QAEXH@Z ; NewShopHelpWnd::ReleaseItem

; 492  : 		pCharWnd->EquipItem( 210000+m_CharInfo.m_class_type, 0, 0 );

  00271	8d 45 08	 lea	 eax, DWORD PTR _value$521674[ebp]
  00274	50		 push	 eax
  00275	8d 8f 98 01 00
	00		 lea	 ecx, DWORD PTR [edi+408]
  0027b	e8 00 00 00 00	 call	 ?DecryptValueToPool@?$CEncrypt@H@@QAEXPAH@Z ; CEncrypt<int>::DecryptValueToPool
  00280	8b 45 08	 mov	 eax, DWORD PTR _value$521674[ebp]
  00283	05 50 34 03 00	 add	 eax, 210000		; 00033450H
  00288	eb 2e		 jmp	 SHORT $LN99@PullDownBt
$LN3@PullDownBt:

; 493  : 	}
; 494  : 	else if( pOpenBtn->GetID() == ID_CLOAK_SELECT_BTN )

  0028a	8b ce		 mov	 ecx, esi
  0028c	ff 15 00 00 00
	00		 call	 DWORD PTR __imp_?GetID@ioWnd@@QBEKXZ
  00292	83 f8 06	 cmp	 eax, 6
  00295	75 2e		 jne	 SHORT $LN23@PullDownBt

; 495  : 	{
; 496  : 		pCharWnd->ReleaseItem( ioCreateChar::CCS_CLOAK );

  00297	8b 4d 0c	 mov	 ecx, DWORD PTR _pCharWnd$[ebp]
  0029a	6a 03		 push	 3
  0029c	e8 00 00 00 00	 call	 ?ReleaseItem@NewShopHelpWnd@@QAEXH@Z ; NewShopHelpWnd::ReleaseItem

; 497  : 		pCharWnd->EquipItem( 310000+m_CharInfo.m_class_type, 0, 0 );

  002a1	8d 45 08	 lea	 eax, DWORD PTR _value$521678[ebp]
  002a4	50		 push	 eax
  002a5	8d 8f 98 01 00
	00		 lea	 ecx, DWORD PTR [edi+408]
  002ab	e8 00 00 00 00	 call	 ?DecryptValueToPool@?$CEncrypt@H@@QAEXPAH@Z ; CEncrypt<int>::DecryptValueToPool
  002b0	8b 45 08	 mov	 eax, DWORD PTR _value$521678[ebp]
  002b3	05 f0 ba 04 00	 add	 eax, 310000		; 0004baf0H
$LN99@PullDownBt:
  002b8	8b 4d 0c	 mov	 ecx, DWORD PTR _pCharWnd$[ebp]
  002bb	53		 push	 ebx
  002bc	53		 push	 ebx
  002bd	53		 push	 ebx
  002be	53		 push	 ebx
  002bf	50		 push	 eax
  002c0	e8 00 00 00 00	 call	 ?EquipItem@NewShopHelpWnd@@QAEXKKKH_N@Z ; NewShopHelpWnd::EquipItem
$LN23@PullDownBt:

; 430  : 
; 431  : 	if( !COMPARE( iListArray, 0, (int)kItemList.size() ) ) return;		

  002c5	83 4d fc ff	 or	 DWORD PTR __$EHRec$[ebp+8], -1
  002c9	8d 4d e0	 lea	 ecx, DWORD PTR _kItemList$[ebp]
  002cc	e8 00 00 00 00	 call	 ?_Tidy@?$vector@UNewShopPullDownItem@@V?$allocator@UNewShopPullDownItem@@@std@@@std@@IAEXXZ ; std::vector<NewShopPullDownItem,std::allocator<NewShopPullDownItem> >::_Tidy

; 498  : 	}
; 499  : }

$LN87@PullDownBt:
  002d1	e8 00 00 00 00	 call	 __EH_epilog3
  002d6	c2 08 00	 ret	 8
_TEXT	ENDS
;	COMDAT text$x
text$x	SEGMENT
__unwindfunclet$?PullDownBtnUP@InvenFourExtraCompoundBuyWnd@@IAEXPAVioWnd@@H@Z$0:
  00000	8d 4d e0	 lea	 ecx, DWORD PTR _kItemList$[ebp]
  00003	e9 00 00 00 00	 jmp	 ??1?$vector@UNewShopPullDownItem@@V?$allocator@UNewShopPullDownItem@@@std@@@std@@QAE@XZ ; std::vector<NewShopPullDownItem,std::allocator<NewShopPullDownItem> >::~vector<NewShopPullDownItem,std::allocator<NewShopPullDownItem> >
__ehhandler$?PullDownBtnUP@InvenFourExtraCompoundBuyWnd@@IAEXPAVioWnd@@H@Z:
  00008	8b 54 24 08	 mov	 edx, DWORD PTR [esp+8]
  0000c	8d 42 0c	 lea	 eax, DWORD PTR [edx+12]
  0000f	8b 4a dc	 mov	 ecx, DWORD PTR [edx-36]
  00012	33 c8		 xor	 ecx, eax
  00014	e8 00 00 00 00	 call	 @__security_check_cookie@4
  00019	b8 00 00 00 00	 mov	 eax, OFFSET __ehfuncinfo$?PullDownBtnUP@InvenFourExtraCompoundBuyWnd@@IAEXPAVioWnd@@H@Z
  0001e	e9 00 00 00 00	 jmp	 ___CxxFrameHandler3
text$x	ENDS
?PullDownBtnUP@InvenFourExtraCompoundBuyWnd@@IAEXPAVioWnd@@H@Z ENDP ; InvenFourExtraCompoundBuyWnd::PullDownBtnUP
; Function compile flags: /Ogsp
;	COMDAT ??_GInvenFourExtraCompoundBuyResultWnd@@UAEPAXI@Z
_TEXT	SEGMENT
___flags$ = 8						; size = 4
??_GInvenFourExtraCompoundBuyResultWnd@@UAEPAXI@Z PROC	; InvenFourExtraCompoundBuyResultWnd::`scalar deleting destructor', COMDAT
; _this$ = ecx
  00000	55		 push	 ebp
  00001	8b ec		 mov	 ebp, esp
  00003	56		 push	 esi
  00004	8b f1		 mov	 esi, ecx
  00006	e8 00 00 00 00	 call	 ??1InvenFourExtraCompoundBuyResultWnd@@UAE@XZ ; InvenFourExtraCompoundBuyResultWnd::~InvenFourExtraCompoundBuyResultWnd
  0000b	f6 45 08 01	 test	 BYTE PTR ___flags$[ebp], 1
  0000f	74 07		 je	 SHORT $LN1@scalar@6
  00011	56		 push	 esi
  00012	e8 00 00 00 00	 call	 ??3@YAXPAX@Z		; operator delete
  00017	59		 pop	 ecx
$LN1@scalar@6:
  00018	8b c6		 mov	 eax, esi
  0001a	5e		 pop	 esi
  0001b	5d		 pop	 ebp
  0001c	c2 04 00	 ret	 4
??_GInvenFourExtraCompoundBuyResultWnd@@UAEPAXI@Z ENDP	; InvenFourExtraCompoundBuyResultWnd::`scalar deleting destructor'
_TEXT	ENDS
PUBLIC	??_C@_0BH@FOAGEFDF@public_change_pose?4ani?$AA@	; `string'
EXTRN	?GetSingletonPtr@ioEtcInvenSubManualMgr@@SAPAV1@XZ:PROC ; ioEtcInvenSubManualMgr::GetSingletonPtr
;	COMDAT ??_C@_0BH@FOAGEFDF@public_change_pose?4ani?$AA@
; File c:\program files (x86)\microsoft visual studio 10.0\vc\include\vector
CONST	SEGMENT
??_C@_0BH@FOAGEFDF@public_change_pose?4ani?$AA@ DB 'public_change_pose.an'
	DB	'i', 00H					; `string'
CONST	ENDS
;	COMDAT xdata$x
xdata$x	SEGMENT
__unwindtable$?iwm_show@InvenFourExtraCompoundBuyWnd@@UAEXXZ DD 0ffffffffH
	DD	FLAT:__unwindfunclet$?iwm_show@InvenFourExtraCompoundBuyWnd@@UAEXXZ$0
	DD	00H
	DD	FLAT:__unwindfunclet$?iwm_show@InvenFourExtraCompoundBuyWnd@@UAEXXZ$1
__ehfuncinfo$?iwm_show@InvenFourExtraCompoundBuyWnd@@UAEXXZ DD 019930522H
	DD	02H
	DD	FLAT:__unwindtable$?iwm_show@InvenFourExtraCompoundBuyWnd@@UAEXXZ
	DD	2 DUP(00H)
	DD	2 DUP(00H)
	DD	00H
	DD	01H
; Function compile flags: /Ogsp
; File d:\lost saga for developer\youtube\tutorial\source\src\lsclient\gui\invenfourextracompoundwnd.cpp
xdata$x	ENDS
;	COMDAT ?iwm_show@InvenFourExtraCompoundBuyWnd@@UAEXXZ
_TEXT	SEGMENT
$T521705 = -48						; size = 16
_kItemList$ = -32					; size = 16
tv390 = -16						; size = 4
tv388 = -16						; size = 4
__$EHRec$ = -12						; size = 12
?iwm_show@InvenFourExtraCompoundBuyWnd@@UAEXXZ PROC	; InvenFourExtraCompoundBuyWnd::iwm_show, COMDAT
; _this$ = ecx

; 94   : {

  00000	6a 24		 push	 36			; 00000024H
  00002	b8 00 00 00 00	 mov	 eax, __ehhandler$?iwm_show@InvenFourExtraCompoundBuyWnd@@UAEXXZ
  00007	e8 00 00 00 00	 call	 __EH_prolog3
  0000c	8b f1		 mov	 esi, ecx

; 95   : 	m_pManual = ioEtcInvenSubManualMgr::GetSingletonPtr();

  0000e	e8 00 00 00 00	 call	 ?GetSingletonPtr@ioEtcInvenSubManualMgr@@SAPAV1@XZ ; ioEtcInvenSubManualMgr::GetSingletonPtr

; 96   : 
; 97   : 	// 버튼 세팅
; 98   : 	vNewShopPullDownItem kItemList;

  00013	33 db		 xor	 ebx, ebx
  00015	89 86 64 01 00
	00		 mov	 DWORD PTR [esi+356], eax
  0001b	89 5d e0	 mov	 DWORD PTR _kItemList$[ebp], ebx
  0001e	89 5d e4	 mov	 DWORD PTR _kItemList$[ebp+4], ebx
  00021	89 5d e8	 mov	 DWORD PTR _kItemList$[ebp+8], ebx

; 99   : 	GetSoldierList( kItemList );

  00024	8d 45 e0	 lea	 eax, DWORD PTR _kItemList$[ebp]
  00027	50		 push	 eax
  00028	8b ce		 mov	 ecx, esi
  0002a	89 5d fc	 mov	 DWORD PTR __$EHRec$[ebp+8], ebx
  0002d	e8 00 00 00 00	 call	 ?GetSoldierList@InvenFourExtraCompoundBuyWnd@@IAEXAAV?$vector@UNewShopPullDownItem@@V?$allocator@UNewShopPullDownItem@@@std@@@std@@@Z ; InvenFourExtraCompoundBuyWnd::GetSoldierList

; 100  : 
; 101  : 	if( !kItemList.empty() )

  00032	8b 45 e0	 mov	 eax, DWORD PTR _kItemList$[ebp]
  00035	3b 45 e4	 cmp	 eax, DWORD PTR _kItemList$[ebp+4]
  00038	74 21		 je	 SHORT $LN12@iwm_show

; 102  : 	{
; 103  : 		NewShopBuyWnd::GetDefaultCharInfo( m_CharInfo, kItemList[0].m_iMagicCode );

  0003a	6a ff		 push	 -1
  0003c	ff 70 10	 push	 DWORD PTR [eax+16]
  0003f	8d 86 98 01 00
	00		 lea	 eax, DWORD PTR [esi+408]
  00045	50		 push	 eax
  00046	e8 00 00 00 00	 call	 ?GetDefaultCharInfo@NewShopBuyWnd@@SAXAAUCHARACTER@@HH@Z ; NewShopBuyWnd::GetDefaultCharInfo

; 104  : 		SetBtnTitle( kItemList[0].m_iMagicCode );

  0004b	8b 45 e0	 mov	 eax, DWORD PTR _kItemList$[ebp]
  0004e	83 c4 0c	 add	 esp, 12			; 0000000cH
  00051	ff 70 10	 push	 DWORD PTR [eax+16]
  00054	8b ce		 mov	 ecx, esi
  00056	e8 00 00 00 00	 call	 ?SetBtnTitle@InvenFourExtraCompoundBuyWnd@@IAEXH@Z ; InvenFourExtraCompoundBuyWnd::SetBtnTitle
$LN12@iwm_show:

; 105  : 	}
; 106  : 
; 107  : 	NewShopHelpWnd *pCharWnd = dynamic_cast<NewShopHelpWnd *>( FindChildWnd( ID_SOLDIER_WND ));

  0005b	53		 push	 ebx
  0005c	68 00 00 00 00	 push	 OFFSET ??_R0?AVNewShopHelpWnd@@@8
  00061	68 00 00 00 00	 push	 OFFSET ??_R0?AVioWnd@@@8
  00066	53		 push	 ebx
  00067	68 e8 03 00 00	 push	 1000			; 000003e8H
  0006c	8b ce		 mov	 ecx, esi
  0006e	ff 15 00 00 00
	00		 call	 DWORD PTR __imp_?FindChildWnd@ioWnd@@QAEPAV1@K@Z
  00074	50		 push	 eax
  00075	e8 00 00 00 00	 call	 ___RTDynamicCast
  0007a	8b f8		 mov	 edi, eax
  0007c	83 c4 14	 add	 esp, 20			; 00000014H

; 108  : 	if( pCharWnd )

  0007f	3b fb		 cmp	 edi, ebx
  00081	0f 84 94 00 00
	00		 je	 $LN11@iwm_show

; 109  : 	{
; 110  : 		pCharWnd->SetZPosition( 600.0f );

  00087	f3 0f 10 05 00
	00 00 00	 movss	 xmm0, DWORD PTR __real@44160000
  0008f	51		 push	 ecx
  00090	8b cf		 mov	 ecx, edi
  00092	f3 0f 11 04 24	 movss	 DWORD PTR [esp], xmm0
  00097	e8 00 00 00 00	 call	 ?SetZPosition@NewShopHelpWnd@@QAEXM@Z ; NewShopHelpWnd::SetZPosition

; 111  : 		pCharWnd->SetChar( m_CharInfo );

  0009c	8d 86 98 01 00
	00		 lea	 eax, DWORD PTR [esi+408]
  000a2	50		 push	 eax
  000a3	8b cf		 mov	 ecx, edi
  000a5	e8 00 00 00 00	 call	 ?SetChar@NewShopHelpWnd@@QAEXABUCHARACTER@@@Z ; NewShopHelpWnd::SetChar

; 112  : 		pCharWnd->SetEquip( false, true, false );

  000aa	53		 push	 ebx
  000ab	6a 01		 push	 1
  000ad	53		 push	 ebx
  000ae	8b cf		 mov	 ecx, edi
  000b0	e8 00 00 00 00	 call	 ?SetEquip@NewShopHelpWnd@@QAEX_N00@Z ; NewShopHelpWnd::SetEquip

; 113  : 		pCharWnd->SetCharActionAnimation( "public_change_pose.ani" );

  000b5	68 00 00 00 00	 push	 OFFSET ??_C@_0BH@FOAGEFDF@public_change_pose?4ani?$AA@
  000ba	8d 4d d0	 lea	 ecx, DWORD PTR $T521705[ebp]
  000bd	ff 15 00 00 00
	00		 call	 DWORD PTR __imp_??0ioHashString@@QAE@PBD@Z
  000c3	c6 45 fc 01	 mov	 BYTE PTR __$EHRec$[ebp+8], 1
  000c7	b8 64 00 00 00	 mov	 eax, 100		; 00000064H
  000cc	8b c8		 mov	 ecx, eax
  000ce	b8 64 00 00 00	 mov	 eax, 100		; 00000064H
  000d3	89 4d f0	 mov	 DWORD PTR tv390[ebp], ecx
  000d6	db 45 f0	 fild	 DWORD PTR tv390[ebp]
  000d9	85 c9		 test	 ecx, ecx
  000db	79 06		 jns	 SHORT $LN47@iwm_show
  000dd	d8 05 00 00 00
	00		 fadd	 DWORD PTR __real@4f800000
$LN47@iwm_show:
  000e3	51		 push	 ecx
  000e4	51		 push	 ecx
  000e5	89 45 f0	 mov	 DWORD PTR tv388[ebp], eax
  000e8	d9 5c 24 04	 fstp	 DWORD PTR [esp+4]
  000ec	db 45 f0	 fild	 DWORD PTR tv388[ebp]
  000ef	85 c0		 test	 eax, eax
  000f1	79 06		 jns	 SHORT $LN48@iwm_show
  000f3	d8 05 00 00 00
	00		 fadd	 DWORD PTR __real@4f800000
$LN48@iwm_show:
  000f9	8d 45 d0	 lea	 eax, DWORD PTR $T521705[ebp]
  000fc	d9 1c 24	 fstp	 DWORD PTR [esp]
  000ff	50		 push	 eax
  00100	8b cf		 mov	 ecx, edi
  00102	e8 00 00 00 00	 call	 ?SetCharActionAnimation@NewShopHelpWnd@@QAEXABVioHashString@@MM@Z ; NewShopHelpWnd::SetCharActionAnimation
  00107	8d 4d d0	 lea	 ecx, DWORD PTR $T521705[ebp]
  0010a	88 5d fc	 mov	 BYTE PTR __$EHRec$[ebp+8], bl
  0010d	ff 15 00 00 00
	00		 call	 DWORD PTR __imp_??1ioHashString@@QAE@XZ

; 114  : 		pCharWnd->ShowWnd();

  00113	8b cf		 mov	 ecx, edi
  00115	ff 15 00 00 00
	00		 call	 DWORD PTR __imp_?ShowWnd@ioWnd@@QAEXXZ
$LN11@iwm_show:

; 115  : 	}
; 116  : 
; 117  : 	ShowChildWnd( ID_CHAR_SELECT_BTN, true ); // btn이 뒤로 가는 현상 때문에 

  0011b	6a 01		 push	 1
  0011d	6a 02		 push	 2
  0011f	8b ce		 mov	 ecx, esi
  00121	ff 15 00 00 00
	00		 call	 DWORD PTR __imp_?ShowChildWnd@ioWnd@@QAEXK_N@Z

; 118  : 
; 119  : 	// init btn
; 120  : 	enum { MAX_ITEM = 4, };
; 121  : 	for (int i = 0; i < MAX_ITEM ; i++)

  00127	33 ff		 xor	 edi, edi
$LL10@iwm_show:

; 122  : 	{
; 123  : 		SelectExtraItemBtn *pItem = dynamic_cast<SelectExtraItemBtn*>(FindChildWnd( ID_WEAPON_SELECT_BTN + i ));

  00129	53		 push	 ebx
  0012a	68 00 00 00 00	 push	 OFFSET ??_R0?AVSelectExtraItemBtn@@@8
  0012f	68 00 00 00 00	 push	 OFFSET ??_R0?AVioWnd@@@8
  00134	53		 push	 ebx
  00135	8d 47 03	 lea	 eax, DWORD PTR [edi+3]
  00138	50		 push	 eax
  00139	8b ce		 mov	 ecx, esi
  0013b	ff 15 00 00 00
	00		 call	 DWORD PTR __imp_?FindChildWnd@ioWnd@@QAEPAV1@K@Z
  00141	50		 push	 eax
  00142	e8 00 00 00 00	 call	 ___RTDynamicCast
  00147	83 c4 14	 add	 esp, 20			; 00000014H

; 124  : 		if( !pItem )

  0014a	3b c3		 cmp	 eax, ebx
  0014c	74 07		 je	 SHORT $LN9@iwm_show

; 125  : 			continue;
; 126  : 		pItem->InitData();

  0014e	8b c8		 mov	 ecx, eax
  00150	e8 00 00 00 00	 call	 ?InitData@SelectExtraItemBtn@@QAEXXZ ; SelectExtraItemBtn::InitData
$LN9@iwm_show:

; 118  : 
; 119  : 	// init btn
; 120  : 	enum { MAX_ITEM = 4, };
; 121  : 	for (int i = 0; i < MAX_ITEM ; i++)

  00155	47		 inc	 edi
  00156	83 ff 04	 cmp	 edi, 4
  00159	7c ce		 jl	 SHORT $LL10@iwm_show

; 127  : 	}
; 128  : 
; 129  : 	for (int i = 0; i < MAX_ITEM ; i++)

  0015b	33 ff		 xor	 edi, edi
$LL6@iwm_show:

; 130  : 	{
; 131  : 		SetIconBtn( ID_WEAPON_ICON_BTN + i, -1 ); // -1 : 아이콘 초기화

  0015d	6a ff		 push	 -1
  0015f	8d 47 07	 lea	 eax, DWORD PTR [edi+7]
  00162	50		 push	 eax
  00163	8b ce		 mov	 ecx, esi
  00165	e8 00 00 00 00	 call	 ?SetIconBtn@InvenFourExtraCompoundBuyWnd@@IAEXKH@Z ; InvenFourExtraCompoundBuyWnd::SetIconBtn
  0016a	47		 inc	 edi
  0016b	83 ff 04	 cmp	 edi, 4
  0016e	7c ed		 jl	 SHORT $LL6@iwm_show

; 132  : 	}
; 133  : 
; 134  : 	for (int i = 0; i < MAX_BACK_EFFECT ; i++)

  00170	33 c9		 xor	 ecx, ecx
  00172	8d 86 84 01 00
	00		 lea	 eax, DWORD PTR [esi+388]
$LL3@iwm_show:

; 135  : 	{
; 136  : 		m_dwBackAniCheckTime[i] = 0;
; 137  : 		m_fBackAniScale[i]      = 0.0f;

  00178	0f 57 c0	 xorps	 xmm0, xmm0
  0017b	89 58 f0	 mov	 DWORD PTR [eax-16], ebx
  0017e	f3 0f 11 00	 movss	 DWORD PTR [eax], xmm0

; 138  : 		m_byBackAniAlpha[i]     = 0;	

  00182	88 9c 0e 8c 01
	00 00		 mov	 BYTE PTR [esi+ecx+396], bl
  00189	41		 inc	 ecx
  0018a	83 c0 04	 add	 eax, 4
  0018d	83 f9 02	 cmp	 ecx, 2
  00190	7c e6		 jl	 SHORT $LL3@iwm_show

; 139  : 	}
; 140  : 
; 141  : 	m_dwStartAniCheckTime = FRAMEGETTIME();

  00192	ff 15 00 00 00
	00		 call	 DWORD PTR __imp_?GetSingleton@ioFrameTimer@@SAAAV1@XZ
  00198	8b c8		 mov	 ecx, eax
  0019a	ff 15 00 00 00
	00		 call	 DWORD PTR __imp_?GetLoopSec@ioFrameTimer@@QBEKXZ

; 142  : }

  001a0	83 4d fc ff	 or	 DWORD PTR __$EHRec$[ebp+8], -1
  001a4	8d 4d e0	 lea	 ecx, DWORD PTR _kItemList$[ebp]
  001a7	89 86 90 01 00
	00		 mov	 DWORD PTR [esi+400], eax
  001ad	e8 00 00 00 00	 call	 ?_Tidy@?$vector@UNewShopPullDownItem@@V?$allocator@UNewShopPullDownItem@@@std@@@std@@IAEXXZ ; std::vector<NewShopPullDownItem,std::allocator<NewShopPullDownItem> >::_Tidy
  001b2	e8 00 00 00 00	 call	 __EH_epilog3
  001b7	c3		 ret	 0
_TEXT	ENDS
;	COMDAT text$x
text$x	SEGMENT
__unwindfunclet$?iwm_show@InvenFourExtraCompoundBuyWnd@@UAEXXZ$0:
  00000	8d 4d e0	 lea	 ecx, DWORD PTR _kItemList$[ebp]
  00003	e9 00 00 00 00	 jmp	 ??1?$vector@UNewShopPullDownItem@@V?$allocator@UNewShopPullDownItem@@@std@@@std@@QAE@XZ ; std::vector<NewShopPullDownItem,std::allocator<NewShopPullDownItem> >::~vector<NewShopPullDownItem,std::allocator<NewShopPullDownItem> >
__unwindfunclet$?iwm_show@InvenFourExtraCompoundBuyWnd@@UAEXXZ$1:
  00008	8d 4d d0	 lea	 ecx, DWORD PTR $T521705[ebp]
  0000b	ff 25 00 00 00
	00		 jmp	 DWORD PTR __imp_??1ioHashString@@QAE@XZ
__ehhandler$?iwm_show@InvenFourExtraCompoundBuyWnd@@UAEXXZ:
  00011	8b 54 24 08	 mov	 edx, DWORD PTR [esp+8]
  00015	8d 42 0c	 lea	 eax, DWORD PTR [edx+12]
  00018	8b 4a cc	 mov	 ecx, DWORD PTR [edx-52]
  0001b	33 c8		 xor	 ecx, eax
  0001d	e8 00 00 00 00	 call	 @__security_check_cookie@4
  00022	b8 00 00 00 00	 mov	 eax, OFFSET __ehfuncinfo$?iwm_show@InvenFourExtraCompoundBuyWnd@@UAEXXZ
  00027	e9 00 00 00 00	 jmp	 ___CxxFrameHandler3
text$x	ENDS
?iwm_show@InvenFourExtraCompoundBuyWnd@@UAEXXZ ENDP	; InvenFourExtraCompoundBuyWnd::iwm_show
; Function compile flags: /Ogsp
;	COMDAT ?iwm_command@InvenFourExtraCompoundBuyWnd@@UAEXPAVioWnd@@HK@Z
_TEXT	SEGMENT
_pWnd$ = 8						; size = 4
_cmd$ = 12						; size = 4
_param$ = 16						; size = 4
?iwm_command@InvenFourExtraCompoundBuyWnd@@UAEXPAVioWnd@@HK@Z PROC ; InvenFourExtraCompoundBuyWnd::iwm_command, COMDAT
; _this$ = ecx

; 387  : {

  00000	55		 push	 ebp
  00001	8b ec		 mov	 ebp, esp
  00003	56		 push	 esi
  00004	57		 push	 edi
  00005	8b f9		 mov	 edi, ecx

; 388  : 	DWORD dwID = pWnd->GetID();

  00007	8b 4d 08	 mov	 ecx, DWORD PTR _pWnd$[ebp]
  0000a	ff 15 00 00 00
	00		 call	 DWORD PTR __imp_?GetID@ioWnd@@QBEKXZ

; 389  : 	switch( dwID )

  00010	83 f8 01	 cmp	 eax, 1
  00013	74 5f		 je	 SHORT $LN7@iwm_comman@2
  00015	76 6a		 jbe	 SHORT $LN6@iwm_comman@2
  00017	83 f8 06	 cmp	 eax, 6
  0001a	76 46		 jbe	 SHORT $LN5@iwm_comman@2
  0001c	3d e9 03 00 00	 cmp	 eax, 1001		; 000003e9H
  00021	75 5e		 jne	 SHORT $LN6@iwm_comman@2

; 407  : 	case ID_PULLDOWN_WND:
; 408  : 		if( cmd == IOBN_BTNUP )

  00023	83 7d 0c 11	 cmp	 DWORD PTR _cmd$[ebp], 17 ; 00000011H
  00027	75 58		 jne	 SHORT $LN6@iwm_comman@2

; 409  : 		{
; 410  : 			NewShopPullDownWnd *pPullDownWnd = dynamic_cast<NewShopPullDownWnd *>(pWnd);

  00029	6a 00		 push	 0
  0002b	68 00 00 00 00	 push	 OFFSET ??_R0?AVNewShopPullDownWnd@@@8
  00030	68 00 00 00 00	 push	 OFFSET ??_R0?AVioWnd@@@8
  00035	6a 00		 push	 0
  00037	ff 75 08	 push	 DWORD PTR _pWnd$[ebp]
  0003a	e8 00 00 00 00	 call	 ___RTDynamicCast
  0003f	8b f0		 mov	 esi, eax
  00041	83 c4 14	 add	 esp, 20			; 00000014H

; 411  : 			if( pPullDownWnd )

  00044	85 f6		 test	 esi, esi
  00046	74 39		 je	 SHORT $LN6@iwm_comman@2

; 412  : 			{
; 413  : 				PullDownBtnUP( pPullDownWnd->GetOpenBtn(), param );

  00048	ff 75 10	 push	 DWORD PTR _param$[ebp]
  0004b	8b cf		 mov	 ecx, edi
  0004d	ff b6 98 01 00
	00		 push	 DWORD PTR [esi+408]
  00053	e8 00 00 00 00	 call	 ?PullDownBtnUP@InvenFourExtraCompoundBuyWnd@@IAEXPAVioWnd@@H@Z ; InvenFourExtraCompoundBuyWnd::PullDownBtnUP

; 414  : 				pPullDownWnd->HideWnd();

  00058	8b ce		 mov	 ecx, esi
  0005a	ff 15 00 00 00
	00		 call	 DWORD PTR __imp_?HideWnd@ioWnd@@QAEXXZ

; 415  : 			}
; 416  : 		}
; 417  : 		break;

  00060	eb 1f		 jmp	 SHORT $LN6@iwm_comman@2
$LN5@iwm_comman@2:

; 395  : 		}
; 396  : 		break;
; 397  : 	case ID_CHAR_SELECT_BTN:
; 398  : 	case ID_WEAPON_SELECT_BTN:
; 399  : 	case ID_ARMOR_SELECT_BTN:
; 400  : 	case ID_HELMET_SELECT_BTN:
; 401  : 	case ID_CLOAK_SELECT_BTN:
; 402  : 		if( cmd == IOBN_BTNUP )

  00062	83 7d 0c 11	 cmp	 DWORD PTR _cmd$[ebp], 17 ; 00000011H
  00066	75 19		 jne	 SHORT $LN6@iwm_comman@2

; 403  : 		{
; 404  : 			SetPullDownMenu( pWnd );

  00068	ff 75 08	 push	 DWORD PTR _pWnd$[ebp]
  0006b	8b cf		 mov	 ecx, edi
  0006d	e8 00 00 00 00	 call	 ?SetPullDownMenu@InvenFourExtraCompoundBuyWnd@@IAEXPAVioWnd@@@Z ; InvenFourExtraCompoundBuyWnd::SetPullDownMenu

; 405  : 		}
; 406  : 		break;

  00072	eb 0d		 jmp	 SHORT $LN6@iwm_comman@2
$LN7@iwm_comman@2:

; 390  : 	{
; 391  : 	case ID_BUY_BTN:
; 392  : 		if( cmd == IOBN_BTNUP )

  00074	83 7d 0c 11	 cmp	 DWORD PTR _cmd$[ebp], 17 ; 00000011H
  00078	75 07		 jne	 SHORT $LN6@iwm_comman@2

; 393  : 		{
; 394  : 			SendItemCompound();

  0007a	8b cf		 mov	 ecx, edi
  0007c	e8 00 00 00 00	 call	 ?SendItemCompound@InvenFourExtraCompoundBuyWnd@@IAEXXZ ; InvenFourExtraCompoundBuyWnd::SendItemCompound
$LN6@iwm_comman@2:
  00081	5f		 pop	 edi
  00082	5e		 pop	 esi

; 418  : 	}
; 419  : }

  00083	5d		 pop	 ebp
  00084	c2 0c 00	 ret	 12			; 0000000cH
?iwm_command@InvenFourExtraCompoundBuyWnd@@UAEXPAVioWnd@@HK@Z ENDP ; InvenFourExtraCompoundBuyWnd::iwm_command
_TEXT	ENDS
END
