; Listing generated by Microsoft (R) Optimizing Compiler Version 16.00.30319.01 

	TITLE	D:\Lost Saga For Developer\Youtube\Tutorial\Source\src\LSClient\GUI\InventorySelectItemWnd.cpp
	.686P
	.XMM
	include listing.inc
	.model	flat

INCLUDELIB MSVCRT
INCLUDELIB OLDNAMES

PUBLIC	?GetTabType@InventorySelectItemRadioButton@@QAEABHXZ ; InventorySelectItemRadioButton::GetTabType
; Function compile flags: /Ogsp
; File d:\lost saga for developer\youtube\tutorial\source\src\lsclient\gui\inventoryselectitemwnd.h
;	COMDAT ?GetTabType@InventorySelectItemRadioButton@@QAEABHXZ
_TEXT	SEGMENT
?GetTabType@InventorySelectItemRadioButton@@QAEABHXZ PROC ; InventorySelectItemRadioButton::GetTabType, COMDAT
; _this$ = ecx

; 12   : 	const int& GetTabType(){ return m_iTabType; }

  00000	8d 81 fc 01 00
	00		 lea	 eax, DWORD PTR [ecx+508]
  00006	c3		 ret	 0
?GetTabType@InventorySelectItemRadioButton@@QAEABHXZ ENDP ; InventorySelectItemRadioButton::GetTabType
_TEXT	ENDS
PUBLIC	?GetItemName@InventorySelectItemBtn@@QAEABVioHashString@@XZ ; InventorySelectItemBtn::GetItemName
; Function compile flags: /Ogsp
;	COMDAT ?GetItemName@InventorySelectItemBtn@@QAEABVioHashString@@XZ
_TEXT	SEGMENT
?GetItemName@InventorySelectItemBtn@@QAEABVioHashString@@XZ PROC ; InventorySelectItemBtn::GetItemName, COMDAT
; _this$ = ecx

; 49   : 	const ioHashString& GetItemName() { return m_ItemInfo.m_szName; }

  00000	8d 81 70 02 00
	00		 lea	 eax, DWORD PTR [ecx+624]
  00006	c3		 ret	 0
?GetItemName@InventorySelectItemBtn@@QAEABVioHashString@@XZ ENDP ; InventorySelectItemBtn::GetItemName
_TEXT	ENDS
PUBLIC	??_7InventorySelectItemRadioButton@@6B@		; InventorySelectItemRadioButton::`vftable'
PUBLIC	??0InventorySelectItemRadioButton@@QAE@XZ	; InventorySelectItemRadioButton::InventorySelectItemRadioButton
PUBLIC	??_R4InventorySelectItemRadioButton@@6B@	; InventorySelectItemRadioButton::`RTTI Complete Object Locator'
PUBLIC	??_R0?AVInventorySelectItemRadioButton@@@8	; InventorySelectItemRadioButton `RTTI Type Descriptor'
PUBLIC	??_R3InventorySelectItemRadioButton@@8		; InventorySelectItemRadioButton::`RTTI Class Hierarchy Descriptor'
PUBLIC	??_R2InventorySelectItemRadioButton@@8		; InventorySelectItemRadioButton::`RTTI Base Class Array'
PUBLIC	??_R1A@?0A@EA@InventorySelectItemRadioButton@@8	; InventorySelectItemRadioButton::`RTTI Base Class Descriptor at (0,-1,0,64)'
PUBLIC	??_R1A@?0A@EA@ioRadioButton@@8			; ioRadioButton::`RTTI Base Class Descriptor at (0,-1,0,64)'
PUBLIC	??_R0?AVioRadioButton@@@8			; ioRadioButton `RTTI Type Descriptor'
PUBLIC	??_R3ioRadioButton@@8				; ioRadioButton::`RTTI Class Hierarchy Descriptor'
PUBLIC	??_R2ioRadioButton@@8				; ioRadioButton::`RTTI Base Class Array'
PUBLIC	??_R1A@?0A@EA@ioButton@@8			; ioButton::`RTTI Base Class Descriptor at (0,-1,0,64)'
PUBLIC	??_R0?AVioButton@@@8				; ioButton `RTTI Type Descriptor'
PUBLIC	??_R3ioButton@@8				; ioButton::`RTTI Class Hierarchy Descriptor'
PUBLIC	??_R2ioButton@@8				; ioButton::`RTTI Base Class Array'
PUBLIC	??_R1A@?0A@EA@ioWnd@@8				; ioWnd::`RTTI Base Class Descriptor at (0,-1,0,64)'
PUBLIC	??_R0?AVioWnd@@@8				; ioWnd `RTTI Type Descriptor'
PUBLIC	??_R3ioWnd@@8					; ioWnd::`RTTI Class Hierarchy Descriptor'
PUBLIC	??_R2ioWnd@@8					; ioWnd::`RTTI Base Class Array'
PUBLIC	?ParseExtraInfo@InventorySelectItemRadioButton@@UAEXAAVioXMLElement@@@Z ; InventorySelectItemRadioButton::ParseExtraInfo
EXTRN	__imp_??0ioRadioButton@@QAE@XZ:PROC
EXTRN	??_7type_info@@6B@:QWORD			; type_info::`vftable'
EXTRN	?AddRenderFrame@ioButton@@UAEXABVioHashString@@PAVioUIRenderFrame@@@Z:PROC ; ioButton::AddRenderFrame
EXTRN	?AddRenderImage@ioButton@@UAEXABVioHashString@@PAVioUIRenderImage@@@Z:PROC ; ioButton::AddRenderImage
EXTRN	?AddTooltipHelp@ioWnd@@UAEXABVioHashString@@00@Z:PROC ; ioWnd::AddTooltipHelp
EXTRN	?AddNamedRenderImage@ioWnd@@UAEXABVioHashString@@PAVioUIRenderImage@@@Z:PROC ; ioWnd::AddNamedRenderImage
EXTRN	?RemoveNamedRenderImage@ioWnd@@UAEXABVioHashString@@@Z:PROC ; ioWnd::RemoveNamedRenderImage
EXTRN	?GetNamedRenderImage@ioWnd@@UBEPAVioUIRenderImage@@ABVioHashString@@@Z:PROC ; ioWnd::GetNamedRenderImage
EXTRN	?SetWindowAlpha@ioButton@@UAEXH@Z:PROC		; ioButton::SetWindowAlpha
EXTRN	?SetActive@ioWnd@@UAEXXZ:PROC			; ioWnd::SetActive
EXTRN	?SetInActive@ioWnd@@UAEXXZ:PROC			; ioWnd::SetInActive
EXTRN	?ClearElementImageList@ioWnd@@UAEXXZ:PROC	; ioWnd::ClearElementImageList
EXTRN	?SetSize@ioWnd@@UAEXHH@Z:PROC			; ioWnd::SetSize
EXTRN	?SetPositionToDefault@ioWnd@@UAEXHH_N0@Z:PROC	; ioWnd::SetPositionToDefault
EXTRN	?IsNeedProcess@ioWnd@@UBE_NXZ:PROC		; ioWnd::IsNeedProcess
EXTRN	?IsCanMouseReaction@ioWnd@@UBE_NXZ:PROC		; ioWnd::IsCanMouseReaction
EXTRN	?AddChild@ioWnd@@UAEXPAV1@@Z:PROC		; ioWnd::AddChild
EXTRN	?DeleteChild@ioWnd@@UAEXK@Z:PROC		; ioWnd::DeleteChild
EXTRN	?DeleteAllChild@ioWnd@@UAEXXZ:PROC		; ioWnd::DeleteAllChild
EXTRN	?OnRenderShowAndHide@ioWnd@@MAE_NXZ:PROC	; ioWnd::OnRenderShowAndHide
EXTRN	?OnRenderShowAndHideByDefault@ioWnd@@MAE_NK@Z:PROC ; ioWnd::OnRenderShowAndHideByDefault
EXTRN	?OnRenderShowAndHideByTop@ioWnd@@MAE_NK@Z:PROC	; ioWnd::OnRenderShowAndHideByTop
EXTRN	?OnRenderShowAndHideByDown@ioWnd@@MAE_NK@Z:PROC	; ioWnd::OnRenderShowAndHideByDown
EXTRN	?OnRender@ioButton@@MAEXXZ:PROC			; ioButton::OnRender
EXTRN	?OnRenderAfterChild@ioWnd@@MAEXXZ:PROC		; ioWnd::OnRenderAfterChild
EXTRN	?OnProcess@ioWnd@@MAEXM@Z:PROC			; ioWnd::OnProcess
EXTRN	?OnMouseProcess@ioWnd@@MAEXABVioMouse@@@Z:PROC	; ioWnd::OnMouseProcess
EXTRN	?CheckFrameReSize@ioButton@@MAEXHHHH@Z:PROC	; ioButton::CheckFrameReSize
EXTRN	?RenderImageList@ioWnd@@MAEXHHW4UIRenderType@@@Z:PROC ; ioWnd::RenderImageList
EXTRN	?iwm_create@ioWnd@@UAEXXZ:PROC			; ioWnd::iwm_create
EXTRN	?iwm_destroy@ioWnd@@UAEXXZ:PROC			; ioWnd::iwm_destroy
EXTRN	?iwm_lbuttondown@ioButton@@UAEXABVioMouse@@@Z:PROC ; ioButton::iwm_lbuttondown
EXTRN	?iwm_lbuttonup@ioRadioButton@@UAEXABVioMouse@@@Z:PROC ; ioRadioButton::iwm_lbuttonup
EXTRN	?iwm_lbuttonDBLCLK@ioButton@@UAEXABVioMouse@@@Z:PROC ; ioButton::iwm_lbuttonDBLCLK
EXTRN	?iwm_rbuttondown@ioButton@@UAEXABVioMouse@@@Z:PROC ; ioButton::iwm_rbuttondown
EXTRN	?iwm_rbuttonup@ioButton@@UAEXABVioMouse@@@Z:PROC ; ioButton::iwm_rbuttonup
EXTRN	?iwm_command@ioWnd@@UAEXPAV1@HK@Z:PROC		; ioWnd::iwm_command
EXTRN	?iwm_mouseover@ioButton@@UAEXABVioMouse@@@Z:PROC ; ioButton::iwm_mouseover
EXTRN	?iwm_mousemove@ioWnd@@UAEXABVioMouse@@@Z:PROC	; ioWnd::iwm_mousemove
EXTRN	?iwm_mouseleave@ioRadioButton@@UAEXABVioMouse@@@Z:PROC ; ioRadioButton::iwm_mouseleave
EXTRN	?iwm_vscroll@ioWnd@@UAEXKH@Z:PROC		; ioWnd::iwm_vscroll
EXTRN	?iwm_wheel@ioWnd@@UAEXH@Z:PROC			; ioWnd::iwm_wheel
EXTRN	?iwm_show@ioWnd@@UAEXXZ:PROC			; ioWnd::iwm_show
EXTRN	?iwm_hide@ioWnd@@UAEXXZ:PROC			; ioWnd::iwm_hide
EXTRN	?iwm_esc@ioWnd@@UAE_NXZ:PROC			; ioWnd::iwm_esc
EXTRN	?iwm_spacebar@ioWnd@@UAE_NXZ:PROC		; ioWnd::iwm_spacebar
EXTRN	?iwm_gototop@ioWnd@@UAEXXZ:PROC			; ioWnd::iwm_gototop
EXTRN	?iwm_dragenter@ioWnd@@UAE?AW4IWDropEffect@@PAVioDragItem@@ABVioMouse@@@Z:PROC ; ioWnd::iwm_dragenter
EXTRN	?iwm_dragover@ioWnd@@UAE?AW4IWDropEffect@@PAVioDragItem@@ABVioMouse@@@Z:PROC ; ioWnd::iwm_dragover
EXTRN	?iwm_dragleave@ioWnd@@UAEXXZ:PROC		; ioWnd::iwm_dragleave
EXTRN	?iwm_dropitem@ioWnd@@UAE_NPAVioDragItem@@ABVioMouse@@PAV1@@Z:PROC ; ioWnd::iwm_dropitem
EXTRN	?iwm_dropdone@ioWnd@@UAEXPAVioDragItem@@PAV1@_N@Z:PROC ; ioWnd::iwm_dropdone
EXTRN	?IsEXType@ioWnd@@UBE_NXZ:PROC			; ioWnd::IsEXType
EXTRN	?GetWndType@ioRadioButton@@UBEKXZ:PROC		; ioRadioButton::GetWndType
EXTRN	?RenderWnd@ioWnd@@UAEXXZ:PROC			; ioWnd::RenderWnd
EXTRN	?SetIDEX@ioWnd@@UAEXAAK_N@Z:PROC		; ioWnd::SetIDEX
EXTRN	?ParseXML@ioWnd@@UAEXAAVioXMLElement@@@Z:PROC	; ioWnd::ParseXML
EXTRN	?GetHeaderFileName@ioRadioButton@@UAEPBDXZ:PROC	; ioRadioButton::GetHeaderFileName
EXTRN	?GetTemplateName@ioRadioButton@@UAEPBDXZ:PROC	; ioRadioButton::GetTemplateName
EXTRN	?GetDefClassName@ioRadioButton@@UBEPBDXZ:PROC	; ioRadioButton::GetDefClassName
EXTRN	?_Clone@ioRadioButton@@UAEPAVioWnd@@XZ:PROC	; ioRadioButton::_Clone
EXTRN	?Copy@ioButton@@UAEXPAVioWnd@@@Z:PROC		; ioButton::Copy
EXTRN	?Save@ioWnd@@UAE_NAAVioXMLElement@@@Z:PROC	; ioWnd::Save
EXTRN	?SetSaveData@ioButton@@UAEXAAVioXMLElement@@@Z:PROC ; ioButton::SetSaveData
EXTRN	?SetPosX@ioWnd@@UAEXH@Z:PROC			; ioWnd::SetPosX
EXTRN	?SetPosY@ioWnd@@UAEXH@Z:PROC			; ioWnd::SetPosY
EXTRN	?SetWidth@ioWnd@@UAEXH@Z:PROC			; ioWnd::SetWidth
EXTRN	?SetHeight@ioWnd@@UAEXH@Z:PROC			; ioWnd::SetHeight
EXTRN	?GetNumFixedRenderFrame@ioButton@@UBEHXZ:PROC	; ioButton::GetNumFixedRenderFrame
EXTRN	?GetFixedRenderFrameType@ioButton@@UAEPBDH@Z:PROC ; ioButton::GetFixedRenderFrameType
EXTRN	?GetRenderFrame@ioButton@@UAEPAPAVioUIRenderElement@@PBD@Z:PROC ; ioButton::GetRenderFrame
EXTRN	?GetNumFixedRenderImage@ioButton@@UBEHXZ:PROC	; ioButton::GetNumFixedRenderImage
EXTRN	?GetFixedRenderImageType@ioButton@@UAEPBDH@Z:PROC ; ioButton::GetFixedRenderImageType
EXTRN	?GetRenderImage@ioButton@@UAEPAPAVioUIRenderElement@@PBD@Z:PROC ; ioButton::GetRenderImage
EXTRN	?AddEffect@ioWnd@@UAEXABVioHashString@@PAVioUI3DEffectRender@@@Z:PROC ; ioWnd::AddEffect
EXTRN	?GetEffect@ioWnd@@UAEPAVioUI3DEffectRender@@VioHashString@@@Z:PROC ; ioWnd::GetEffect
EXTRN	??_EInventorySelectItemRadioButton@@UAEPAXI@Z:PROC ; InventorySelectItemRadioButton::`vector deleting destructor'
EXTRN	?OnDrawNormal@ioButton@@MAEXHH@Z:PROC		; ioButton::OnDrawNormal
EXTRN	?OnDrawOvered@ioButton@@MAEXHH@Z:PROC		; ioButton::OnDrawOvered
EXTRN	?OnDrawOveredAdd@ioButton@@MAEXHH@Z:PROC	; ioButton::OnDrawOveredAdd
EXTRN	?OnDrawPushed@ioRadioButton@@MAEXHH@Z:PROC	; ioRadioButton::OnDrawPushed
EXTRN	?OnDrawDisabled@ioButton@@MAEXHH@Z:PROC		; ioButton::OnDrawDisabled
EXTRN	?OnDrawExDisabledNormal@ioButton@@MAEXHH@Z:PROC	; ioButton::OnDrawExDisabledNormal
EXTRN	?OnDrawExDisabledOvered@ioButton@@MAEXHH@Z:PROC	; ioButton::OnDrawExDisabledOvered
EXTRN	?OnDrawExDisabledPushed@ioButton@@MAEXHH@Z:PROC	; ioButton::OnDrawExDisabledPushed
EXTRN	?OnDrawBack@ioButton@@MAEXHH@Z:PROC		; ioButton::OnDrawBack
EXTRN	?OnDrawNormalList@ioButton@@MAEXHH@Z:PROC	; ioButton::OnDrawNormalList
EXTRN	?OnDrawDisableList@ioButton@@MAEXHH@Z:PROC	; ioButton::OnDrawDisableList
;	COMDAT ??_R2ioWnd@@8
; File d:\lost saga for developer\youtube\tutorial\source\src\lsclient\gui\inventoryselectitemwnd.cpp
rdata$r	SEGMENT
??_R2ioWnd@@8 DD FLAT:??_R1A@?0A@EA@ioWnd@@8		; ioWnd::`RTTI Base Class Array'
rdata$r	ENDS
;	COMDAT ??_R3ioWnd@@8
rdata$r	SEGMENT
??_R3ioWnd@@8 DD 00H					; ioWnd::`RTTI Class Hierarchy Descriptor'
	DD	00H
	DD	01H
	DD	FLAT:??_R2ioWnd@@8
rdata$r	ENDS
;	COMDAT ??_R0?AVioWnd@@@8
_DATA	SEGMENT
??_R0?AVioWnd@@@8 DD FLAT:??_7type_info@@6B@		; ioWnd `RTTI Type Descriptor'
	DD	00H
	DB	'.?AVioWnd@@', 00H
_DATA	ENDS
;	COMDAT ??_R1A@?0A@EA@ioWnd@@8
rdata$r	SEGMENT
??_R1A@?0A@EA@ioWnd@@8 DD FLAT:??_R0?AVioWnd@@@8	; ioWnd::`RTTI Base Class Descriptor at (0,-1,0,64)'
	DD	00H
	DD	00H
	DD	0ffffffffH
	DD	00H
	DD	040H
	DD	FLAT:??_R3ioWnd@@8
rdata$r	ENDS
;	COMDAT ??_R2ioButton@@8
rdata$r	SEGMENT
??_R2ioButton@@8 DD FLAT:??_R1A@?0A@EA@ioButton@@8	; ioButton::`RTTI Base Class Array'
	DD	FLAT:??_R1A@?0A@EA@ioWnd@@8
rdata$r	ENDS
;	COMDAT ??_R3ioButton@@8
rdata$r	SEGMENT
??_R3ioButton@@8 DD 00H					; ioButton::`RTTI Class Hierarchy Descriptor'
	DD	00H
	DD	02H
	DD	FLAT:??_R2ioButton@@8
rdata$r	ENDS
;	COMDAT ??_R0?AVioButton@@@8
_DATA	SEGMENT
??_R0?AVioButton@@@8 DD FLAT:??_7type_info@@6B@		; ioButton `RTTI Type Descriptor'
	DD	00H
	DB	'.?AVioButton@@', 00H
_DATA	ENDS
;	COMDAT ??_R1A@?0A@EA@ioButton@@8
rdata$r	SEGMENT
??_R1A@?0A@EA@ioButton@@8 DD FLAT:??_R0?AVioButton@@@8	; ioButton::`RTTI Base Class Descriptor at (0,-1,0,64)'
	DD	01H
	DD	00H
	DD	0ffffffffH
	DD	00H
	DD	040H
	DD	FLAT:??_R3ioButton@@8
rdata$r	ENDS
;	COMDAT ??_R2ioRadioButton@@8
rdata$r	SEGMENT
??_R2ioRadioButton@@8 DD FLAT:??_R1A@?0A@EA@ioRadioButton@@8 ; ioRadioButton::`RTTI Base Class Array'
	DD	FLAT:??_R1A@?0A@EA@ioButton@@8
	DD	FLAT:??_R1A@?0A@EA@ioWnd@@8
rdata$r	ENDS
;	COMDAT ??_R3ioRadioButton@@8
rdata$r	SEGMENT
??_R3ioRadioButton@@8 DD 00H				; ioRadioButton::`RTTI Class Hierarchy Descriptor'
	DD	00H
	DD	03H
	DD	FLAT:??_R2ioRadioButton@@8
rdata$r	ENDS
;	COMDAT ??_R0?AVioRadioButton@@@8
_DATA	SEGMENT
??_R0?AVioRadioButton@@@8 DD FLAT:??_7type_info@@6B@	; ioRadioButton `RTTI Type Descriptor'
	DD	00H
	DB	'.?AVioRadioButton@@', 00H
_DATA	ENDS
;	COMDAT ??_R1A@?0A@EA@ioRadioButton@@8
rdata$r	SEGMENT
??_R1A@?0A@EA@ioRadioButton@@8 DD FLAT:??_R0?AVioRadioButton@@@8 ; ioRadioButton::`RTTI Base Class Descriptor at (0,-1,0,64)'
	DD	02H
	DD	00H
	DD	0ffffffffH
	DD	00H
	DD	040H
	DD	FLAT:??_R3ioRadioButton@@8
rdata$r	ENDS
;	COMDAT ??_R1A@?0A@EA@InventorySelectItemRadioButton@@8
rdata$r	SEGMENT
??_R1A@?0A@EA@InventorySelectItemRadioButton@@8 DD FLAT:??_R0?AVInventorySelectItemRadioButton@@@8 ; InventorySelectItemRadioButton::`RTTI Base Class Descriptor at (0,-1,0,64)'
	DD	03H
	DD	00H
	DD	0ffffffffH
	DD	00H
	DD	040H
	DD	FLAT:??_R3InventorySelectItemRadioButton@@8
rdata$r	ENDS
;	COMDAT ??_R2InventorySelectItemRadioButton@@8
rdata$r	SEGMENT
??_R2InventorySelectItemRadioButton@@8 DD FLAT:??_R1A@?0A@EA@InventorySelectItemRadioButton@@8 ; InventorySelectItemRadioButton::`RTTI Base Class Array'
	DD	FLAT:??_R1A@?0A@EA@ioRadioButton@@8
	DD	FLAT:??_R1A@?0A@EA@ioButton@@8
	DD	FLAT:??_R1A@?0A@EA@ioWnd@@8
rdata$r	ENDS
;	COMDAT ??_R3InventorySelectItemRadioButton@@8
rdata$r	SEGMENT
??_R3InventorySelectItemRadioButton@@8 DD 00H		; InventorySelectItemRadioButton::`RTTI Class Hierarchy Descriptor'
	DD	00H
	DD	04H
	DD	FLAT:??_R2InventorySelectItemRadioButton@@8
rdata$r	ENDS
;	COMDAT ??_R0?AVInventorySelectItemRadioButton@@@8
_DATA	SEGMENT
??_R0?AVInventorySelectItemRadioButton@@@8 DD FLAT:??_7type_info@@6B@ ; InventorySelectItemRadioButton `RTTI Type Descriptor'
	DD	00H
	DB	'.?AVInventorySelectItemRadioButton@@', 00H
_DATA	ENDS
;	COMDAT ??_R4InventorySelectItemRadioButton@@6B@
rdata$r	SEGMENT
??_R4InventorySelectItemRadioButton@@6B@ DD 00H		; InventorySelectItemRadioButton::`RTTI Complete Object Locator'
	DD	00H
	DD	00H
	DD	FLAT:??_R0?AVInventorySelectItemRadioButton@@@8
	DD	FLAT:??_R3InventorySelectItemRadioButton@@8
rdata$r	ENDS
;	COMDAT ??_7InventorySelectItemRadioButton@@6B@
CONST	SEGMENT
??_7InventorySelectItemRadioButton@@6B@ DD FLAT:??_R4InventorySelectItemRadioButton@@6B@ ; InventorySelectItemRadioButton::`vftable'
	DD	FLAT:?AddRenderFrame@ioButton@@UAEXABVioHashString@@PAVioUIRenderFrame@@@Z
	DD	FLAT:?AddRenderImage@ioButton@@UAEXABVioHashString@@PAVioUIRenderImage@@@Z
	DD	FLAT:?AddTooltipHelp@ioWnd@@UAEXABVioHashString@@00@Z
	DD	FLAT:?ParseExtraInfo@InventorySelectItemRadioButton@@UAEXAAVioXMLElement@@@Z
	DD	FLAT:?AddNamedRenderImage@ioWnd@@UAEXABVioHashString@@PAVioUIRenderImage@@@Z
	DD	FLAT:?RemoveNamedRenderImage@ioWnd@@UAEXABVioHashString@@@Z
	DD	FLAT:?GetNamedRenderImage@ioWnd@@UBEPAVioUIRenderImage@@ABVioHashString@@@Z
	DD	FLAT:?SetWindowAlpha@ioButton@@UAEXH@Z
	DD	FLAT:?SetActive@ioWnd@@UAEXXZ
	DD	FLAT:?SetInActive@ioWnd@@UAEXXZ
	DD	FLAT:?ClearElementImageList@ioWnd@@UAEXXZ
	DD	FLAT:?SetSize@ioWnd@@UAEXHH@Z
	DD	FLAT:?SetPositionToDefault@ioWnd@@UAEXHH_N0@Z
	DD	FLAT:?IsNeedProcess@ioWnd@@UBE_NXZ
	DD	FLAT:?IsCanMouseReaction@ioWnd@@UBE_NXZ
	DD	FLAT:?AddChild@ioWnd@@UAEXPAV1@@Z
	DD	FLAT:?DeleteChild@ioWnd@@UAEXK@Z
	DD	FLAT:?DeleteAllChild@ioWnd@@UAEXXZ
	DD	FLAT:?OnRenderShowAndHide@ioWnd@@MAE_NXZ
	DD	FLAT:?OnRenderShowAndHideByDefault@ioWnd@@MAE_NK@Z
	DD	FLAT:?OnRenderShowAndHideByTop@ioWnd@@MAE_NK@Z
	DD	FLAT:?OnRenderShowAndHideByDown@ioWnd@@MAE_NK@Z
	DD	FLAT:?OnRender@ioButton@@MAEXXZ
	DD	FLAT:?OnRenderAfterChild@ioWnd@@MAEXXZ
	DD	FLAT:?OnProcess@ioWnd@@MAEXM@Z
	DD	FLAT:?OnMouseProcess@ioWnd@@MAEXABVioMouse@@@Z
	DD	FLAT:?CheckFrameReSize@ioButton@@MAEXHHHH@Z
	DD	FLAT:?RenderImageList@ioWnd@@MAEXHHW4UIRenderType@@@Z
	DD	FLAT:?iwm_create@ioWnd@@UAEXXZ
	DD	FLAT:?iwm_destroy@ioWnd@@UAEXXZ
	DD	FLAT:?iwm_lbuttondown@ioButton@@UAEXABVioMouse@@@Z
	DD	FLAT:?iwm_lbuttonup@ioRadioButton@@UAEXABVioMouse@@@Z
	DD	FLAT:?iwm_lbuttonDBLCLK@ioButton@@UAEXABVioMouse@@@Z
	DD	FLAT:?iwm_rbuttondown@ioButton@@UAEXABVioMouse@@@Z
	DD	FLAT:?iwm_rbuttonup@ioButton@@UAEXABVioMouse@@@Z
	DD	FLAT:?iwm_command@ioWnd@@UAEXPAV1@HK@Z
	DD	FLAT:?iwm_mouseover@ioButton@@UAEXABVioMouse@@@Z
	DD	FLAT:?iwm_mousemove@ioWnd@@UAEXABVioMouse@@@Z
	DD	FLAT:?iwm_mouseleave@ioRadioButton@@UAEXABVioMouse@@@Z
	DD	FLAT:?iwm_vscroll@ioWnd@@UAEXKH@Z
	DD	FLAT:?iwm_wheel@ioWnd@@UAEXH@Z
	DD	FLAT:?iwm_show@ioWnd@@UAEXXZ
	DD	FLAT:?iwm_hide@ioWnd@@UAEXXZ
	DD	FLAT:?iwm_esc@ioWnd@@UAE_NXZ
	DD	FLAT:?iwm_spacebar@ioWnd@@UAE_NXZ
	DD	FLAT:?iwm_gototop@ioWnd@@UAEXXZ
	DD	FLAT:?iwm_dragenter@ioWnd@@UAE?AW4IWDropEffect@@PAVioDragItem@@ABVioMouse@@@Z
	DD	FLAT:?iwm_dragover@ioWnd@@UAE?AW4IWDropEffect@@PAVioDragItem@@ABVioMouse@@@Z
	DD	FLAT:?iwm_dragleave@ioWnd@@UAEXXZ
	DD	FLAT:?iwm_dropitem@ioWnd@@UAE_NPAVioDragItem@@ABVioMouse@@PAV1@@Z
	DD	FLAT:?iwm_dropdone@ioWnd@@UAEXPAVioDragItem@@PAV1@_N@Z
	DD	FLAT:?IsEXType@ioWnd@@UBE_NXZ
	DD	FLAT:?GetWndType@ioRadioButton@@UBEKXZ
	DD	FLAT:?RenderWnd@ioWnd@@UAEXXZ
	DD	FLAT:?SetIDEX@ioWnd@@UAEXAAK_N@Z
	DD	FLAT:?ParseXML@ioWnd@@UAEXAAVioXMLElement@@@Z
	DD	FLAT:?GetHeaderFileName@ioRadioButton@@UAEPBDXZ
	DD	FLAT:?GetTemplateName@ioRadioButton@@UAEPBDXZ
	DD	FLAT:?GetDefClassName@ioRadioButton@@UBEPBDXZ
	DD	FLAT:?_Clone@ioRadioButton@@UAEPAVioWnd@@XZ
	DD	FLAT:?Copy@ioButton@@UAEXPAVioWnd@@@Z
	DD	FLAT:?Save@ioWnd@@UAE_NAAVioXMLElement@@@Z
	DD	FLAT:?SetSaveData@ioButton@@UAEXAAVioXMLElement@@@Z
	DD	FLAT:?SetPosX@ioWnd@@UAEXH@Z
	DD	FLAT:?SetPosY@ioWnd@@UAEXH@Z
	DD	FLAT:?SetWidth@ioWnd@@UAEXH@Z
	DD	FLAT:?SetHeight@ioWnd@@UAEXH@Z
	DD	FLAT:?GetNumFixedRenderFrame@ioButton@@UBEHXZ
	DD	FLAT:?GetFixedRenderFrameType@ioButton@@UAEPBDH@Z
	DD	FLAT:?GetRenderFrame@ioButton@@UAEPAPAVioUIRenderElement@@PBD@Z
	DD	FLAT:?GetNumFixedRenderImage@ioButton@@UBEHXZ
	DD	FLAT:?GetFixedRenderImageType@ioButton@@UAEPBDH@Z
	DD	FLAT:?GetRenderImage@ioButton@@UAEPAPAVioUIRenderElement@@PBD@Z
	DD	FLAT:?AddEffect@ioWnd@@UAEXABVioHashString@@PAVioUI3DEffectRender@@@Z
	DD	FLAT:?GetEffect@ioWnd@@UAEPAVioUI3DEffectRender@@VioHashString@@@Z
	DD	FLAT:??_EInventorySelectItemRadioButton@@UAEPAXI@Z
	DD	FLAT:?OnDrawNormal@ioButton@@MAEXHH@Z
	DD	FLAT:?OnDrawOvered@ioButton@@MAEXHH@Z
	DD	FLAT:?OnDrawOveredAdd@ioButton@@MAEXHH@Z
	DD	FLAT:?OnDrawPushed@ioRadioButton@@MAEXHH@Z
	DD	FLAT:?OnDrawDisabled@ioButton@@MAEXHH@Z
	DD	FLAT:?OnDrawExDisabledNormal@ioButton@@MAEXHH@Z
	DD	FLAT:?OnDrawExDisabledOvered@ioButton@@MAEXHH@Z
	DD	FLAT:?OnDrawExDisabledPushed@ioButton@@MAEXHH@Z
	DD	FLAT:?OnDrawBack@ioButton@@MAEXHH@Z
	DD	FLAT:?OnDrawNormalList@ioButton@@MAEXHH@Z
	DD	FLAT:?OnDrawDisableList@ioButton@@MAEXHH@Z
; Function compile flags: /Ogsp
CONST	ENDS
;	COMDAT ??0InventorySelectItemRadioButton@@QAE@XZ
_TEXT	SEGMENT
??0InventorySelectItemRadioButton@@QAE@XZ PROC		; InventorySelectItemRadioButton::InventorySelectItemRadioButton, COMDAT
; _this$ = ecx

; 5    : {

  00000	56		 push	 esi
  00001	8b f1		 mov	 esi, ecx
  00003	ff 15 00 00 00
	00		 call	 DWORD PTR __imp_??0ioRadioButton@@QAE@XZ

; 6    : 	m_iTabType = 0;

  00009	83 a6 fc 01 00
	00 00		 and	 DWORD PTR [esi+508], 0
  00010	c7 06 00 00 00
	00		 mov	 DWORD PTR [esi], OFFSET ??_7InventorySelectItemRadioButton@@6B@

; 7    : }

  00016	8b c6		 mov	 eax, esi
  00018	5e		 pop	 esi
  00019	c3		 ret	 0
??0InventorySelectItemRadioButton@@QAE@XZ ENDP		; InventorySelectItemRadioButton::InventorySelectItemRadioButton
_TEXT	ENDS
PUBLIC	??1InventorySelectItemRadioButton@@UAE@XZ	; InventorySelectItemRadioButton::~InventorySelectItemRadioButton
EXTRN	__imp_??1ioRadioButton@@UAE@XZ:PROC
; Function compile flags: /Ogsp
;	COMDAT ??1InventorySelectItemRadioButton@@UAE@XZ
_TEXT	SEGMENT
??1InventorySelectItemRadioButton@@UAE@XZ PROC		; InventorySelectItemRadioButton::~InventorySelectItemRadioButton, COMDAT
; _this$ = ecx

; 10   : {

  00000	c7 01 00 00 00
	00		 mov	 DWORD PTR [ecx], OFFSET ??_7InventorySelectItemRadioButton@@6B@

; 11   : 
; 12   : }

  00006	ff 25 00 00 00
	00		 jmp	 DWORD PTR __imp_??1ioRadioButton@@UAE@XZ
??1InventorySelectItemRadioButton@@UAE@XZ ENDP		; InventorySelectItemRadioButton::~InventorySelectItemRadioButton
_TEXT	ENDS
PUBLIC	??1InventorySelectItem@@QAE@XZ			; InventorySelectItem::~InventorySelectItem
EXTRN	__imp_??1ioHashString@@QAE@XZ:PROC
EXTRN	___CxxFrameHandler3:PROC
EXTRN	@__security_check_cookie@4:PROC
EXTRN	__EH_epilog3:PROC
EXTRN	__EH_prolog3:PROC
;	COMDAT xdata$x
xdata$x	SEGMENT
__unwindtable$??1InventorySelectItem@@QAE@XZ DD 0ffffffffH
	DD	FLAT:__unwindfunclet$??1InventorySelectItem@@QAE@XZ$0
	DD	00H
	DD	FLAT:__unwindfunclet$??1InventorySelectItem@@QAE@XZ$1
	DD	01H
	DD	FLAT:__unwindfunclet$??1InventorySelectItem@@QAE@XZ$2
__ehfuncinfo$??1InventorySelectItem@@QAE@XZ DD 019930522H
	DD	03H
	DD	FLAT:__unwindtable$??1InventorySelectItem@@QAE@XZ
	DD	2 DUP(00H)
	DD	2 DUP(00H)
	DD	00H
	DD	01H
; Function compile flags: /Ogsp
xdata$x	ENDS
;	COMDAT ??1InventorySelectItem@@QAE@XZ
_TEXT	SEGMENT
_this$ = -16						; size = 4
__$EHRec$ = -12						; size = 12
??1InventorySelectItem@@QAE@XZ PROC			; InventorySelectItem::~InventorySelectItem, COMDAT
; _this$ = ecx
  00000	6a 04		 push	 4
  00002	b8 00 00 00 00	 mov	 eax, __ehhandler$??1InventorySelectItem@@QAE@XZ
  00007	e8 00 00 00 00	 call	 __EH_prolog3
  0000c	8b f9		 mov	 edi, ecx
  0000e	89 7d f0	 mov	 DWORD PTR _this$[ebp], edi
  00011	8b 35 00 00 00
	00		 mov	 esi, DWORD PTR __imp_??1ioHashString@@QAE@XZ
  00017	8d 4f 40	 lea	 ecx, DWORD PTR [edi+64]
  0001a	c7 45 fc 02 00
	00 00		 mov	 DWORD PTR __$EHRec$[ebp+8], 2
  00021	ff d6		 call	 esi
  00023	8d 4f 2c	 lea	 ecx, DWORD PTR [edi+44]
  00026	c6 45 fc 01	 mov	 BYTE PTR __$EHRec$[ebp+8], 1
  0002a	ff d6		 call	 esi
  0002c	8d 4f 1c	 lea	 ecx, DWORD PTR [edi+28]
  0002f	c6 45 fc 00	 mov	 BYTE PTR __$EHRec$[ebp+8], 0
  00033	ff d6		 call	 esi
  00035	83 4d fc ff	 or	 DWORD PTR __$EHRec$[ebp+8], -1
  00039	8d 4f 0c	 lea	 ecx, DWORD PTR [edi+12]
  0003c	ff d6		 call	 esi
  0003e	e8 00 00 00 00	 call	 __EH_epilog3
  00043	c3		 ret	 0
_TEXT	ENDS
;	COMDAT text$x
text$x	SEGMENT
__unwindfunclet$??1InventorySelectItem@@QAE@XZ$0:
  00000	8b 4d f0	 mov	 ecx, DWORD PTR _this$[ebp]
  00003	83 c1 0c	 add	 ecx, 12			; 0000000cH
  00006	ff 25 00 00 00
	00		 jmp	 DWORD PTR __imp_??1ioHashString@@QAE@XZ
__unwindfunclet$??1InventorySelectItem@@QAE@XZ$1:
  0000c	8b 4d f0	 mov	 ecx, DWORD PTR _this$[ebp]
  0000f	83 c1 1c	 add	 ecx, 28			; 0000001cH
  00012	ff 25 00 00 00
	00		 jmp	 DWORD PTR __imp_??1ioHashString@@QAE@XZ
__unwindfunclet$??1InventorySelectItem@@QAE@XZ$2:
  00018	8b 4d f0	 mov	 ecx, DWORD PTR _this$[ebp]
  0001b	83 c1 2c	 add	 ecx, 44			; 0000002cH
  0001e	ff 25 00 00 00
	00		 jmp	 DWORD PTR __imp_??1ioHashString@@QAE@XZ
__ehhandler$??1InventorySelectItem@@QAE@XZ:
  00024	8b 54 24 08	 mov	 edx, DWORD PTR [esp+8]
  00028	8d 42 0c	 lea	 eax, DWORD PTR [edx+12]
  0002b	8b 4a ec	 mov	 ecx, DWORD PTR [edx-20]
  0002e	33 c8		 xor	 ecx, eax
  00030	e8 00 00 00 00	 call	 @__security_check_cookie@4
  00035	b8 00 00 00 00	 mov	 eax, OFFSET __ehfuncinfo$??1InventorySelectItem@@QAE@XZ
  0003a	e9 00 00 00 00	 jmp	 ___CxxFrameHandler3
text$x	ENDS
??1InventorySelectItem@@QAE@XZ ENDP			; InventorySelectItem::~InventorySelectItem
PUBLIC	??_7InventorySelectItemBtn@@6B@			; InventorySelectItemBtn::`vftable'
PUBLIC	??1InventorySelectItemBtn@@UAE@XZ		; InventorySelectItemBtn::~InventorySelectItemBtn
PUBLIC	??_R4InventorySelectItemBtn@@6B@		; InventorySelectItemBtn::`RTTI Complete Object Locator'
PUBLIC	??_R0?AVInventorySelectItemBtn@@@8		; InventorySelectItemBtn `RTTI Type Descriptor'
PUBLIC	??_R3InventorySelectItemBtn@@8			; InventorySelectItemBtn::`RTTI Class Hierarchy Descriptor'
PUBLIC	??_R2InventorySelectItemBtn@@8			; InventorySelectItemBtn::`RTTI Base Class Array'
PUBLIC	??_R1A@?0A@EA@InventorySelectItemBtn@@8		; InventorySelectItemBtn::`RTTI Base Class Descriptor at (0,-1,0,64)'
PUBLIC	?AddRenderImage@InventorySelectItemBtn@@UAEXABVioHashString@@PAVioUIRenderImage@@@Z ; InventorySelectItemBtn::AddRenderImage
PUBLIC	?OnRender@InventorySelectItemBtn@@MAEXXZ	; InventorySelectItemBtn::OnRender
PUBLIC	?iwm_lbuttonup@InventorySelectItemBtn@@UAEXABVioMouse@@@Z ; InventorySelectItemBtn::iwm_lbuttonup
PUBLIC	?iwm_command@InventorySelectItemBtn@@UAEXPAVioWnd@@HK@Z ; InventorySelectItemBtn::iwm_command
EXTRN	__imp_??1ioButton@@UAE@XZ:PROC
EXTRN	??_M@YGXPAXIHP6EX0@Z@Z:PROC			; `eh vector destructor iterator'
EXTRN	??1ioComplexStringPrinter@@QAE@XZ:PROC		; ioComplexStringPrinter::~ioComplexStringPrinter
EXTRN	?ParseExtraInfo@ioButton@@UAEXAAVioXMLElement@@@Z:PROC ; ioButton::ParseExtraInfo
EXTRN	?iwm_mouseleave@ioWnd@@UAEXABVioMouse@@@Z:PROC	; ioWnd::iwm_mouseleave
EXTRN	?GetWndType@ioButton@@UBEKXZ:PROC		; ioButton::GetWndType
EXTRN	?GetHeaderFileName@ioButton@@UAEPBDXZ:PROC	; ioButton::GetHeaderFileName
EXTRN	?GetTemplateName@ioButton@@UAEPBDXZ:PROC	; ioButton::GetTemplateName
EXTRN	?GetDefClassName@ioButton@@UBEPBDXZ:PROC	; ioButton::GetDefClassName
EXTRN	?_Clone@ioButton@@UAEPAVioWnd@@XZ:PROC		; ioButton::_Clone
EXTRN	??_EInventorySelectItemBtn@@UAEPAXI@Z:PROC	; InventorySelectItemBtn::`vector deleting destructor'
EXTRN	?OnDrawPushed@ioButton@@MAEXHH@Z:PROC		; ioButton::OnDrawPushed
;	COMDAT ??_R1A@?0A@EA@InventorySelectItemBtn@@8
rdata$r	SEGMENT
??_R1A@?0A@EA@InventorySelectItemBtn@@8 DD FLAT:??_R0?AVInventorySelectItemBtn@@@8 ; InventorySelectItemBtn::`RTTI Base Class Descriptor at (0,-1,0,64)'
	DD	02H
	DD	00H
	DD	0ffffffffH
	DD	00H
	DD	040H
	DD	FLAT:??_R3InventorySelectItemBtn@@8
rdata$r	ENDS
;	COMDAT ??_R2InventorySelectItemBtn@@8
rdata$r	SEGMENT
??_R2InventorySelectItemBtn@@8 DD FLAT:??_R1A@?0A@EA@InventorySelectItemBtn@@8 ; InventorySelectItemBtn::`RTTI Base Class Array'
	DD	FLAT:??_R1A@?0A@EA@ioButton@@8
	DD	FLAT:??_R1A@?0A@EA@ioWnd@@8
rdata$r	ENDS
;	COMDAT ??_R3InventorySelectItemBtn@@8
rdata$r	SEGMENT
??_R3InventorySelectItemBtn@@8 DD 00H			; InventorySelectItemBtn::`RTTI Class Hierarchy Descriptor'
	DD	00H
	DD	03H
	DD	FLAT:??_R2InventorySelectItemBtn@@8
rdata$r	ENDS
;	COMDAT ??_R0?AVInventorySelectItemBtn@@@8
_DATA	SEGMENT
??_R0?AVInventorySelectItemBtn@@@8 DD FLAT:??_7type_info@@6B@ ; InventorySelectItemBtn `RTTI Type Descriptor'
	DD	00H
	DB	'.?AVInventorySelectItemBtn@@', 00H
_DATA	ENDS
;	COMDAT ??_R4InventorySelectItemBtn@@6B@
rdata$r	SEGMENT
??_R4InventorySelectItemBtn@@6B@ DD 00H			; InventorySelectItemBtn::`RTTI Complete Object Locator'
	DD	00H
	DD	00H
	DD	FLAT:??_R0?AVInventorySelectItemBtn@@@8
	DD	FLAT:??_R3InventorySelectItemBtn@@8
rdata$r	ENDS
;	COMDAT ??_7InventorySelectItemBtn@@6B@
CONST	SEGMENT
??_7InventorySelectItemBtn@@6B@ DD FLAT:??_R4InventorySelectItemBtn@@6B@ ; InventorySelectItemBtn::`vftable'
	DD	FLAT:?AddRenderFrame@ioButton@@UAEXABVioHashString@@PAVioUIRenderFrame@@@Z
	DD	FLAT:?AddRenderImage@InventorySelectItemBtn@@UAEXABVioHashString@@PAVioUIRenderImage@@@Z
	DD	FLAT:?AddTooltipHelp@ioWnd@@UAEXABVioHashString@@00@Z
	DD	FLAT:?ParseExtraInfo@ioButton@@UAEXAAVioXMLElement@@@Z
	DD	FLAT:?AddNamedRenderImage@ioWnd@@UAEXABVioHashString@@PAVioUIRenderImage@@@Z
	DD	FLAT:?RemoveNamedRenderImage@ioWnd@@UAEXABVioHashString@@@Z
	DD	FLAT:?GetNamedRenderImage@ioWnd@@UBEPAVioUIRenderImage@@ABVioHashString@@@Z
	DD	FLAT:?SetWindowAlpha@ioButton@@UAEXH@Z
	DD	FLAT:?SetActive@ioWnd@@UAEXXZ
	DD	FLAT:?SetInActive@ioWnd@@UAEXXZ
	DD	FLAT:?ClearElementImageList@ioWnd@@UAEXXZ
	DD	FLAT:?SetSize@ioWnd@@UAEXHH@Z
	DD	FLAT:?SetPositionToDefault@ioWnd@@UAEXHH_N0@Z
	DD	FLAT:?IsNeedProcess@ioWnd@@UBE_NXZ
	DD	FLAT:?IsCanMouseReaction@ioWnd@@UBE_NXZ
	DD	FLAT:?AddChild@ioWnd@@UAEXPAV1@@Z
	DD	FLAT:?DeleteChild@ioWnd@@UAEXK@Z
	DD	FLAT:?DeleteAllChild@ioWnd@@UAEXXZ
	DD	FLAT:?OnRenderShowAndHide@ioWnd@@MAE_NXZ
	DD	FLAT:?OnRenderShowAndHideByDefault@ioWnd@@MAE_NK@Z
	DD	FLAT:?OnRenderShowAndHideByTop@ioWnd@@MAE_NK@Z
	DD	FLAT:?OnRenderShowAndHideByDown@ioWnd@@MAE_NK@Z
	DD	FLAT:?OnRender@InventorySelectItemBtn@@MAEXXZ
	DD	FLAT:?OnRenderAfterChild@ioWnd@@MAEXXZ
	DD	FLAT:?OnProcess@ioWnd@@MAEXM@Z
	DD	FLAT:?OnMouseProcess@ioWnd@@MAEXABVioMouse@@@Z
	DD	FLAT:?CheckFrameReSize@ioButton@@MAEXHHHH@Z
	DD	FLAT:?RenderImageList@ioWnd@@MAEXHHW4UIRenderType@@@Z
	DD	FLAT:?iwm_create@ioWnd@@UAEXXZ
	DD	FLAT:?iwm_destroy@ioWnd@@UAEXXZ
	DD	FLAT:?iwm_lbuttondown@ioButton@@UAEXABVioMouse@@@Z
	DD	FLAT:?iwm_lbuttonup@InventorySelectItemBtn@@UAEXABVioMouse@@@Z
	DD	FLAT:?iwm_lbuttonDBLCLK@ioButton@@UAEXABVioMouse@@@Z
	DD	FLAT:?iwm_rbuttondown@ioButton@@UAEXABVioMouse@@@Z
	DD	FLAT:?iwm_rbuttonup@ioButton@@UAEXABVioMouse@@@Z
	DD	FLAT:?iwm_command@InventorySelectItemBtn@@UAEXPAVioWnd@@HK@Z
	DD	FLAT:?iwm_mouseover@ioButton@@UAEXABVioMouse@@@Z
	DD	FLAT:?iwm_mousemove@ioWnd@@UAEXABVioMouse@@@Z
	DD	FLAT:?iwm_mouseleave@ioWnd@@UAEXABVioMouse@@@Z
	DD	FLAT:?iwm_vscroll@ioWnd@@UAEXKH@Z
	DD	FLAT:?iwm_wheel@ioWnd@@UAEXH@Z
	DD	FLAT:?iwm_show@ioWnd@@UAEXXZ
	DD	FLAT:?iwm_hide@ioWnd@@UAEXXZ
	DD	FLAT:?iwm_esc@ioWnd@@UAE_NXZ
	DD	FLAT:?iwm_spacebar@ioWnd@@UAE_NXZ
	DD	FLAT:?iwm_gototop@ioWnd@@UAEXXZ
	DD	FLAT:?iwm_dragenter@ioWnd@@UAE?AW4IWDropEffect@@PAVioDragItem@@ABVioMouse@@@Z
	DD	FLAT:?iwm_dragover@ioWnd@@UAE?AW4IWDropEffect@@PAVioDragItem@@ABVioMouse@@@Z
	DD	FLAT:?iwm_dragleave@ioWnd@@UAEXXZ
	DD	FLAT:?iwm_dropitem@ioWnd@@UAE_NPAVioDragItem@@ABVioMouse@@PAV1@@Z
	DD	FLAT:?iwm_dropdone@ioWnd@@UAEXPAVioDragItem@@PAV1@_N@Z
	DD	FLAT:?IsEXType@ioWnd@@UBE_NXZ
	DD	FLAT:?GetWndType@ioButton@@UBEKXZ
	DD	FLAT:?RenderWnd@ioWnd@@UAEXXZ
	DD	FLAT:?SetIDEX@ioWnd@@UAEXAAK_N@Z
	DD	FLAT:?ParseXML@ioWnd@@UAEXAAVioXMLElement@@@Z
	DD	FLAT:?GetHeaderFileName@ioButton@@UAEPBDXZ
	DD	FLAT:?GetTemplateName@ioButton@@UAEPBDXZ
	DD	FLAT:?GetDefClassName@ioButton@@UBEPBDXZ
	DD	FLAT:?_Clone@ioButton@@UAEPAVioWnd@@XZ
	DD	FLAT:?Copy@ioButton@@UAEXPAVioWnd@@@Z
	DD	FLAT:?Save@ioWnd@@UAE_NAAVioXMLElement@@@Z
	DD	FLAT:?SetSaveData@ioButton@@UAEXAAVioXMLElement@@@Z
	DD	FLAT:?SetPosX@ioWnd@@UAEXH@Z
	DD	FLAT:?SetPosY@ioWnd@@UAEXH@Z
	DD	FLAT:?SetWidth@ioWnd@@UAEXH@Z
	DD	FLAT:?SetHeight@ioWnd@@UAEXH@Z
	DD	FLAT:?GetNumFixedRenderFrame@ioButton@@UBEHXZ
	DD	FLAT:?GetFixedRenderFrameType@ioButton@@UAEPBDH@Z
	DD	FLAT:?GetRenderFrame@ioButton@@UAEPAPAVioUIRenderElement@@PBD@Z
	DD	FLAT:?GetNumFixedRenderImage@ioButton@@UBEHXZ
	DD	FLAT:?GetFixedRenderImageType@ioButton@@UAEPBDH@Z
	DD	FLAT:?GetRenderImage@ioButton@@UAEPAPAVioUIRenderElement@@PBD@Z
	DD	FLAT:?AddEffect@ioWnd@@UAEXABVioHashString@@PAVioUI3DEffectRender@@@Z
	DD	FLAT:?GetEffect@ioWnd@@UAEPAVioUI3DEffectRender@@VioHashString@@@Z
	DD	FLAT:??_EInventorySelectItemBtn@@UAEPAXI@Z
	DD	FLAT:?OnDrawNormal@ioButton@@MAEXHH@Z
	DD	FLAT:?OnDrawOvered@ioButton@@MAEXHH@Z
	DD	FLAT:?OnDrawOveredAdd@ioButton@@MAEXHH@Z
	DD	FLAT:?OnDrawPushed@ioButton@@MAEXHH@Z
	DD	FLAT:?OnDrawDisabled@ioButton@@MAEXHH@Z
	DD	FLAT:?OnDrawExDisabledNormal@ioButton@@MAEXHH@Z
	DD	FLAT:?OnDrawExDisabledOvered@ioButton@@MAEXHH@Z
	DD	FLAT:?OnDrawExDisabledPushed@ioButton@@MAEXHH@Z
	DD	FLAT:?OnDrawBack@ioButton@@MAEXHH@Z
	DD	FLAT:?OnDrawNormalList@ioButton@@MAEXHH@Z
	DD	FLAT:?OnDrawDisableList@ioButton@@MAEXHH@Z
CONST	ENDS
;	COMDAT xdata$x
xdata$x	SEGMENT
__unwindtable$??1InventorySelectItemBtn@@UAE@XZ DD 0ffffffffH
	DD	FLAT:__unwindfunclet$??1InventorySelectItemBtn@@UAE@XZ$0
	DD	00H
	DD	FLAT:__unwindfunclet$??1InventorySelectItemBtn@@UAE@XZ$1
	DD	01H
	DD	FLAT:__unwindfunclet$??1InventorySelectItemBtn@@UAE@XZ$2
__ehfuncinfo$??1InventorySelectItemBtn@@UAE@XZ DD 019930522H
	DD	03H
	DD	FLAT:__unwindtable$??1InventorySelectItemBtn@@UAE@XZ
	DD	2 DUP(00H)
	DD	2 DUP(00H)
	DD	00H
	DD	01H
; Function compile flags: /Ogsp
xdata$x	ENDS
;	COMDAT ??1InventorySelectItemBtn@@UAE@XZ
_TEXT	SEGMENT
_this$ = -16						; size = 4
__$EHRec$ = -12						; size = 12
??1InventorySelectItemBtn@@UAE@XZ PROC			; InventorySelectItemBtn::~InventorySelectItemBtn, COMDAT
; _this$ = ecx

; 31   : {

  00000	6a 04		 push	 4
  00002	b8 00 00 00 00	 mov	 eax, __ehhandler$??1InventorySelectItemBtn@@UAE@XZ
  00007	e8 00 00 00 00	 call	 __EH_prolog3
  0000c	8b f1		 mov	 esi, ecx
  0000e	89 75 f0	 mov	 DWORD PTR _this$[ebp], esi
  00011	c7 06 00 00 00
	00		 mov	 DWORD PTR [esi], OFFSET ??_7InventorySelectItemBtn@@6B@

; 32   : 	SAFEDELETE( m_pIconEmptyImg );

  00017	8b 8e 5c 02 00
	00		 mov	 ecx, DWORD PTR [esi+604]
  0001d	c7 45 fc 02 00
	00 00		 mov	 DWORD PTR __$EHRec$[ebp+8], 2
  00024	85 c9		 test	 ecx, ecx
  00026	74 0e		 je	 SHORT $LN2@InventoryS
  00028	8b 01		 mov	 eax, DWORD PTR [ecx]
  0002a	6a 01		 push	 1
  0002c	ff 50 40	 call	 DWORD PTR [eax+64]
  0002f	83 a6 5c 02 00
	00 00		 and	 DWORD PTR [esi+604], 0
$LN2@InventoryS:

; 33   : 	SAFEDELETE( m_pIconImg );

  00036	8b 8e 60 02 00
	00		 mov	 ecx, DWORD PTR [esi+608]
  0003c	85 c9		 test	 ecx, ecx
  0003e	74 0e		 je	 SHORT $LN1@InventoryS
  00040	8b 01		 mov	 eax, DWORD PTR [ecx]
  00042	6a 01		 push	 1
  00044	ff 50 40	 call	 DWORD PTR [eax+64]
  00047	83 a6 60 02 00
	00 00		 and	 DWORD PTR [esi+608], 0
$LN1@InventoryS:

; 34   : }

  0004e	8d 8e 64 02 00
	00		 lea	 ecx, DWORD PTR [esi+612]
  00054	c6 45 fc 01	 mov	 BYTE PTR __$EHRec$[ebp+8], 1
  00058	e8 00 00 00 00	 call	 ??1InventorySelectItem@@QAE@XZ
  0005d	68 00 00 00 00	 push	 OFFSET ??1ioComplexStringPrinter@@QAE@XZ ; ioComplexStringPrinter::~ioComplexStringPrinter
  00062	6a 03		 push	 3
  00064	6a 20		 push	 32			; 00000020H
  00066	8d 86 fc 01 00
	00		 lea	 eax, DWORD PTR [esi+508]
  0006c	50		 push	 eax
  0006d	c6 45 fc 00	 mov	 BYTE PTR __$EHRec$[ebp+8], 0
  00071	e8 00 00 00 00	 call	 ??_M@YGXPAXIHP6EX0@Z@Z
  00076	83 4d fc ff	 or	 DWORD PTR __$EHRec$[ebp+8], -1
  0007a	8b ce		 mov	 ecx, esi
  0007c	ff 15 00 00 00
	00		 call	 DWORD PTR __imp_??1ioButton@@UAE@XZ
  00082	e8 00 00 00 00	 call	 __EH_epilog3
  00087	c3		 ret	 0
_TEXT	ENDS
;	COMDAT text$x
text$x	SEGMENT
__unwindfunclet$??1InventorySelectItemBtn@@UAE@XZ$0:
  00000	8b 4d f0	 mov	 ecx, DWORD PTR _this$[ebp]
  00003	ff 25 00 00 00
	00		 jmp	 DWORD PTR __imp_??1ioButton@@UAE@XZ
__unwindfunclet$??1InventorySelectItemBtn@@UAE@XZ$1:
  00009	68 00 00 00 00	 push	 OFFSET ??1ioComplexStringPrinter@@QAE@XZ ; ioComplexStringPrinter::~ioComplexStringPrinter
  0000e	6a 03		 push	 3
  00010	6a 20		 push	 32			; 00000020H
  00012	8b 45 f0	 mov	 eax, DWORD PTR _this$[ebp]
  00015	05 fc 01 00 00	 add	 eax, 508		; 000001fcH
  0001a	50		 push	 eax
  0001b	e8 00 00 00 00	 call	 ??_M@YGXPAXIHP6EX0@Z@Z
  00020	c3		 ret	 0
__unwindfunclet$??1InventorySelectItemBtn@@UAE@XZ$2:
  00021	8b 4d f0	 mov	 ecx, DWORD PTR _this$[ebp]
  00024	81 c1 64 02 00
	00		 add	 ecx, 612		; 00000264H
  0002a	e9 00 00 00 00	 jmp	 ??1InventorySelectItem@@QAE@XZ
__ehhandler$??1InventorySelectItemBtn@@UAE@XZ:
  0002f	8b 54 24 08	 mov	 edx, DWORD PTR [esp+8]
  00033	8d 42 0c	 lea	 eax, DWORD PTR [edx+12]
  00036	8b 4a ec	 mov	 ecx, DWORD PTR [edx-20]
  00039	33 c8		 xor	 ecx, eax
  0003b	e8 00 00 00 00	 call	 @__security_check_cookie@4
  00040	b8 00 00 00 00	 mov	 eax, OFFSET __ehfuncinfo$??1InventorySelectItemBtn@@UAE@XZ
  00045	e9 00 00 00 00	 jmp	 ___CxxFrameHandler3
text$x	ENDS
??1InventorySelectItemBtn@@UAE@XZ ENDP			; InventorySelectItemBtn::~InventorySelectItemBtn
PUBLIC	?ClearDesc@InventorySelectItemBtn@@IAEXXZ	; InventorySelectItemBtn::ClearDesc
EXTRN	?ClearList@ioComplexStringPrinter@@QAEXXZ:PROC	; ioComplexStringPrinter::ClearList
; Function compile flags: /Ogsp
;	COMDAT ?ClearDesc@InventorySelectItemBtn@@IAEXXZ
_TEXT	SEGMENT
?ClearDesc@InventorySelectItemBtn@@IAEXXZ PROC		; InventorySelectItemBtn::ClearDesc, COMDAT
; _this$ = ecx

; 50   : {

  00000	56		 push	 esi
  00001	57		 push	 edi

; 51   : 	for (int i = 0; i < MAX_DESC ; i++)

  00002	6a 03		 push	 3
  00004	8d b1 fc 01 00
	00		 lea	 esi, DWORD PTR [ecx+508]
  0000a	5f		 pop	 edi
$LL3@ClearDesc:

; 52   : 		m_szDescArray[i].ClearList();

  0000b	8b ce		 mov	 ecx, esi
  0000d	e8 00 00 00 00	 call	 ?ClearList@ioComplexStringPrinter@@QAEXXZ ; ioComplexStringPrinter::ClearList
  00012	83 c6 20	 add	 esi, 32			; 00000020H
  00015	4f		 dec	 edi
  00016	75 f3		 jne	 SHORT $LL3@ClearDesc

; 53   : }

  00018	5f		 pop	 edi
  00019	5e		 pop	 esi
  0001a	c3		 ret	 0
?ClearDesc@InventorySelectItemBtn@@IAEXXZ ENDP		; InventorySelectItemBtn::ClearDesc
_TEXT	ENDS
EXTRN	__imp_?GetParent@ioWnd@@QAEPAV1@XZ:PROC
EXTRN	__imp_?GetID@ioWnd@@QBEKXZ:PROC
; Function compile flags: /Ogsp
;	COMDAT ?iwm_command@InventorySelectItemBtn@@UAEXPAVioWnd@@HK@Z
_TEXT	SEGMENT
_pWnd$ = 8						; size = 4
_cmd$ = 12						; size = 4
_param$ = 16						; size = 4
?iwm_command@InventorySelectItemBtn@@UAEXPAVioWnd@@HK@Z PROC ; InventorySelectItemBtn::iwm_command, COMDAT
; _this$ = ecx

; 56   : {

  00000	55		 push	 ebp
  00001	8b ec		 mov	 ebp, esp
  00003	56		 push	 esi
  00004	8b f1		 mov	 esi, ecx

; 57   : 	DWORD dwID = pWnd->GetID();

  00006	8b 4d 08	 mov	 ecx, DWORD PTR _pWnd$[ebp]
  00009	ff 15 00 00 00
	00		 call	 DWORD PTR __imp_?GetID@ioWnd@@QBEKXZ

; 58   : 
; 59   : 	switch( dwID )

  0000f	48		 dec	 eax
  00010	74 1b		 je	 SHORT $LN4@iwm_comman
  00012	48		 dec	 eax
  00013	75 49		 jne	 SHORT $LN1@iwm_comman

; 60   : 	{
; 61   : 	case ID_SELECT_BTN:
; 62   : 		if( cmd == IOBN_BTNUP )

  00015	83 7d 0c 11	 cmp	 DWORD PTR _cmd$[ebp], 17 ; 00000011H
  00019	75 43		 jne	 SHORT $LN1@iwm_comman

; 63   : 		{
; 64   : 			GetParent()->iwm_command( this, cmd, m_ItemInfo.m_iMagicCode );

  0001b	8b ce		 mov	 ecx, esi
  0001d	ff 15 00 00 00
	00		 call	 DWORD PTR __imp_?GetParent@ioWnd@@QAEPAV1@XZ
  00023	ff b6 64 02 00
	00		 push	 DWORD PTR [esi+612]
  00029	6a 11		 push	 17			; 00000011H

; 65   : 		}
; 66   : 		break;

  0002b	eb 26		 jmp	 SHORT $LN11@iwm_comman
$LN4@iwm_comman:

; 67   : 	case ID_ICON_BTN:
; 68   : 		if( cmd == IOWN_OVERED )

  0002d	83 7d 0c 04	 cmp	 DWORD PTR _cmd$[ebp], 4
  00031	75 0e		 jne	 SHORT $LN3@iwm_comman

; 69   : 		{
; 70   : 			GetParent()->iwm_command( this, cmd, 0 );

  00033	8b ce		 mov	 ecx, esi
  00035	ff 15 00 00 00
	00		 call	 DWORD PTR __imp_?GetParent@ioWnd@@QAEPAV1@XZ
  0003b	6a 00		 push	 0
  0003d	6a 04		 push	 4
  0003f	eb 12		 jmp	 SHORT $LN11@iwm_comman
$LN3@iwm_comman:

; 71   : 		}
; 72   : 		else if( cmd == IOWN_LEAVED )

  00041	83 7d 0c 03	 cmp	 DWORD PTR _cmd$[ebp], 3
  00045	75 17		 jne	 SHORT $LN1@iwm_comman

; 73   : 		{
; 74   : 			GetParent()->iwm_command( this, cmd, 0 );

  00047	8b ce		 mov	 ecx, esi
  00049	ff 15 00 00 00
	00		 call	 DWORD PTR __imp_?GetParent@ioWnd@@QAEPAV1@XZ
  0004f	6a 00		 push	 0
  00051	6a 03		 push	 3
$LN11@iwm_comman:
  00053	8b 10		 mov	 edx, DWORD PTR [eax]
  00055	56		 push	 esi
  00056	8b c8		 mov	 ecx, eax
  00058	ff 92 8c 00 00
	00		 call	 DWORD PTR [edx+140]
$LN1@iwm_comman:
  0005e	5e		 pop	 esi

; 75   : 		}
; 76   : 		break;
; 77   : 	}
; 78   : }

  0005f	5d		 pop	 ebp
  00060	c2 0c 00	 ret	 12			; 0000000cH
?iwm_command@InventorySelectItemBtn@@UAEXPAVioWnd@@HK@Z ENDP ; InventorySelectItemBtn::iwm_command
_TEXT	ENDS
PUBLIC	??4InventorySelectItem@@QAEAAU0@ABU0@@Z		; InventorySelectItem::operator=
EXTRN	__imp_??4ioHashString@@QAEAAV0@ABV0@@Z:PROC
; Function compile flags: /Ogsp
;	COMDAT ??4InventorySelectItem@@QAEAAU0@ABU0@@Z
_TEXT	SEGMENT
___that$ = 8						; size = 4
??4InventorySelectItem@@QAEAAU0@ABU0@@Z PROC		; InventorySelectItem::operator=, COMDAT
; _this$ = ecx
  00000	55		 push	 ebp
  00001	8b ec		 mov	 ebp, esp
  00003	53		 push	 ebx
  00004	8b 1d 00 00 00
	00		 mov	 ebx, DWORD PTR __imp_??4ioHashString@@QAEAAV0@ABV0@@Z
  0000a	56		 push	 esi
  0000b	57		 push	 edi
  0000c	8b 7d 08	 mov	 edi, DWORD PTR ___that$[ebp]
  0000f	8b 07		 mov	 eax, DWORD PTR [edi]
  00011	8b f1		 mov	 esi, ecx
  00013	89 06		 mov	 DWORD PTR [esi], eax
  00015	8b 47 04	 mov	 eax, DWORD PTR [edi+4]
  00018	89 46 04	 mov	 DWORD PTR [esi+4], eax
  0001b	8b 47 08	 mov	 eax, DWORD PTR [edi+8]
  0001e	89 46 08	 mov	 DWORD PTR [esi+8], eax
  00021	8d 47 0c	 lea	 eax, DWORD PTR [edi+12]
  00024	50		 push	 eax
  00025	8d 4e 0c	 lea	 ecx, DWORD PTR [esi+12]
  00028	ff d3		 call	 ebx
  0002a	8d 47 1c	 lea	 eax, DWORD PTR [edi+28]
  0002d	50		 push	 eax
  0002e	8d 4e 1c	 lea	 ecx, DWORD PTR [esi+28]
  00031	ff d3		 call	 ebx
  00033	8d 47 2c	 lea	 eax, DWORD PTR [edi+44]
  00036	50		 push	 eax
  00037	8d 4e 2c	 lea	 ecx, DWORD PTR [esi+44]
  0003a	ff d3		 call	 ebx
  0003c	8b 47 3c	 mov	 eax, DWORD PTR [edi+60]
  0003f	89 46 3c	 mov	 DWORD PTR [esi+60], eax
  00042	8d 47 40	 lea	 eax, DWORD PTR [edi+64]
  00045	50		 push	 eax
  00046	8d 4e 40	 lea	 ecx, DWORD PTR [esi+64]
  00049	ff d3		 call	 ebx
  0004b	8b 47 50	 mov	 eax, DWORD PTR [edi+80]
  0004e	89 46 50	 mov	 DWORD PTR [esi+80], eax
  00051	5f		 pop	 edi
  00052	8b c6		 mov	 eax, esi
  00054	5e		 pop	 esi
  00055	5b		 pop	 ebx
  00056	5d		 pop	 ebp
  00057	c2 04 00	 ret	 4
??4InventorySelectItem@@QAEAAU0@ABU0@@Z ENDP		; InventorySelectItem::operator=
_TEXT	ENDS
EXTRN	__imp_?IsExDisabled@ioButton@@QBE_NXZ:PROC
EXTRN	__imp_?iwm_lbuttonup@ioWnd@@UAEXABVioMouse@@@Z:PROC
; Function compile flags: /Ogsp
;	COMDAT ?iwm_lbuttonup@InventorySelectItemBtn@@UAEXABVioMouse@@@Z
_TEXT	SEGMENT
_mouse$ = 8						; size = 4
?iwm_lbuttonup@InventorySelectItemBtn@@UAEXABVioMouse@@@Z PROC ; InventorySelectItemBtn::iwm_lbuttonup, COMDAT
; _this$ = ecx

; 244  : {

  00000	55		 push	 ebp
  00001	8b ec		 mov	 ebp, esp
  00003	56		 push	 esi

; 245  : 	ioWnd::iwm_lbuttonup( mouse );

  00004	ff 75 08	 push	 DWORD PTR _mouse$[ebp]
  00007	8b f1		 mov	 esi, ecx
  00009	ff 15 00 00 00
	00		 call	 DWORD PTR __imp_?iwm_lbuttonup@ioWnd@@UAEXABVioMouse@@@Z

; 246  : 
; 247  : 	if( m_pParent )

  0000f	83 7e 40 00	 cmp	 DWORD PTR [esi+64], 0
  00013	74 20		 je	 SHORT $LN1@iwm_lbutto

; 248  : 	{
; 249  : 		if( IsExDisabled() )

  00015	8b ce		 mov	 ecx, esi
  00017	ff 15 00 00 00
	00		 call	 DWORD PTR __imp_?IsExDisabled@ioButton@@QBE_NXZ

; 250  : 			m_pParent->iwm_command( this, IOEX_BTNUP, -1 );

  0001d	8b 4e 40	 mov	 ecx, DWORD PTR [esi+64]
  00020	84 c0		 test	 al, al
  00022	8b 01		 mov	 eax, DWORD PTR [ecx]
  00024	6a ff		 push	 -1
  00026	74 04		 je	 SHORT $LN2@iwm_lbutto
  00028	6a 16		 push	 22			; 00000016H

; 251  : 		else

  0002a	eb 02		 jmp	 SHORT $LN6@iwm_lbutto
$LN2@iwm_lbutto:

; 252  : 			m_pParent->iwm_command( this, IOBN_BTNUP, -1 );

  0002c	6a 11		 push	 17			; 00000011H
$LN6@iwm_lbutto:
  0002e	56		 push	 esi
  0002f	ff 90 8c 00 00
	00		 call	 DWORD PTR [eax+140]
$LN1@iwm_lbutto:
  00035	5e		 pop	 esi

; 253  : 	}
; 254  : }

  00036	5d		 pop	 ebp
  00037	c2 04 00	 ret	 4
?iwm_lbuttonup@InventorySelectItemBtn@@UAEXABVioMouse@@@Z ENDP ; InventorySelectItemBtn::iwm_lbuttonup
_TEXT	ENDS
PUBLIC	??_7bad_alloc@std@@6B@				; std::bad_alloc::`vftable'
PUBLIC	??0bad_alloc@std@@QAE@PBD@Z			; std::bad_alloc::bad_alloc
PUBLIC	??_R4bad_alloc@std@@6B@				; std::bad_alloc::`RTTI Complete Object Locator'
PUBLIC	??_R0?AVbad_alloc@std@@@8			; std::bad_alloc `RTTI Type Descriptor'
PUBLIC	??_R3bad_alloc@std@@8				; std::bad_alloc::`RTTI Class Hierarchy Descriptor'
PUBLIC	??_R2bad_alloc@std@@8				; std::bad_alloc::`RTTI Base Class Array'
PUBLIC	??_R1A@?0A@EA@bad_alloc@std@@8			; std::bad_alloc::`RTTI Base Class Descriptor at (0,-1,0,64)'
PUBLIC	??_R1A@?0A@EA@exception@std@@8			; std::exception::`RTTI Base Class Descriptor at (0,-1,0,64)'
PUBLIC	??_R0?AVexception@std@@@8			; std::exception `RTTI Type Descriptor'
PUBLIC	??_R3exception@std@@8				; std::exception::`RTTI Class Hierarchy Descriptor'
PUBLIC	??_R2exception@std@@8				; std::exception::`RTTI Base Class Array'
EXTRN	__imp_??0exception@std@@QAE@ABQBD@Z:PROC
EXTRN	??_Ebad_alloc@std@@UAEPAXI@Z:PROC		; std::bad_alloc::`vector deleting destructor'
EXTRN	?what@exception@std@@UBEPBDXZ:PROC		; std::exception::what
;	COMDAT ??_R2exception@std@@8
; File c:\program files (x86)\microsoft visual studio 10.0\vc\include\exception
rdata$r	SEGMENT
??_R2exception@std@@8 DD FLAT:??_R1A@?0A@EA@exception@std@@8 ; std::exception::`RTTI Base Class Array'
rdata$r	ENDS
;	COMDAT ??_R3exception@std@@8
rdata$r	SEGMENT
??_R3exception@std@@8 DD 00H				; std::exception::`RTTI Class Hierarchy Descriptor'
	DD	00H
	DD	01H
	DD	FLAT:??_R2exception@std@@8
rdata$r	ENDS
;	COMDAT ??_R0?AVexception@std@@@8
_DATA	SEGMENT
??_R0?AVexception@std@@@8 DD FLAT:??_7type_info@@6B@	; std::exception `RTTI Type Descriptor'
	DD	00H
	DB	'.?AVexception@std@@', 00H
_DATA	ENDS
;	COMDAT ??_R1A@?0A@EA@exception@std@@8
rdata$r	SEGMENT
??_R1A@?0A@EA@exception@std@@8 DD FLAT:??_R0?AVexception@std@@@8 ; std::exception::`RTTI Base Class Descriptor at (0,-1,0,64)'
	DD	00H
	DD	00H
	DD	0ffffffffH
	DD	00H
	DD	040H
	DD	FLAT:??_R3exception@std@@8
rdata$r	ENDS
;	COMDAT ??_R1A@?0A@EA@bad_alloc@std@@8
rdata$r	SEGMENT
??_R1A@?0A@EA@bad_alloc@std@@8 DD FLAT:??_R0?AVbad_alloc@std@@@8 ; std::bad_alloc::`RTTI Base Class Descriptor at (0,-1,0,64)'
	DD	01H
	DD	00H
	DD	0ffffffffH
	DD	00H
	DD	040H
	DD	FLAT:??_R3bad_alloc@std@@8
rdata$r	ENDS
;	COMDAT ??_R2bad_alloc@std@@8
rdata$r	SEGMENT
??_R2bad_alloc@std@@8 DD FLAT:??_R1A@?0A@EA@bad_alloc@std@@8 ; std::bad_alloc::`RTTI Base Class Array'
	DD	FLAT:??_R1A@?0A@EA@exception@std@@8
rdata$r	ENDS
;	COMDAT ??_R3bad_alloc@std@@8
rdata$r	SEGMENT
??_R3bad_alloc@std@@8 DD 00H				; std::bad_alloc::`RTTI Class Hierarchy Descriptor'
	DD	00H
	DD	02H
	DD	FLAT:??_R2bad_alloc@std@@8
rdata$r	ENDS
;	COMDAT ??_R0?AVbad_alloc@std@@@8
_DATA	SEGMENT
??_R0?AVbad_alloc@std@@@8 DD FLAT:??_7type_info@@6B@	; std::bad_alloc `RTTI Type Descriptor'
	DD	00H
	DB	'.?AVbad_alloc@std@@', 00H
_DATA	ENDS
;	COMDAT ??_R4bad_alloc@std@@6B@
rdata$r	SEGMENT
??_R4bad_alloc@std@@6B@ DD 00H				; std::bad_alloc::`RTTI Complete Object Locator'
	DD	00H
	DD	00H
	DD	FLAT:??_R0?AVbad_alloc@std@@@8
	DD	FLAT:??_R3bad_alloc@std@@8
rdata$r	ENDS
;	COMDAT ??_7bad_alloc@std@@6B@
CONST	SEGMENT
??_7bad_alloc@std@@6B@ DD FLAT:??_R4bad_alloc@std@@6B@	; std::bad_alloc::`vftable'
	DD	FLAT:??_Ebad_alloc@std@@UAEPAXI@Z
	DD	FLAT:?what@exception@std@@UBEPBDXZ
; Function compile flags: /Ogsp
CONST	ENDS
;	COMDAT ??0bad_alloc@std@@QAE@PBD@Z
_TEXT	SEGMENT
__Message$ = 8						; size = 4
??0bad_alloc@std@@QAE@PBD@Z PROC			; std::bad_alloc::bad_alloc, COMDAT
; _this$ = ecx

; 345  : 		{	// construct from message string

  00000	55		 push	 ebp
  00001	8b ec		 mov	 ebp, esp
  00003	56		 push	 esi
  00004	8d 45 08	 lea	 eax, DWORD PTR __Message$[ebp]
  00007	50		 push	 eax
  00008	8b f1		 mov	 esi, ecx
  0000a	ff 15 00 00 00
	00		 call	 DWORD PTR __imp_??0exception@std@@QAE@ABQBD@Z
  00010	c7 06 00 00 00
	00		 mov	 DWORD PTR [esi], OFFSET ??_7bad_alloc@std@@6B@

; 346  : 		}

  00016	8b c6		 mov	 eax, esi
  00018	5e		 pop	 esi
  00019	5d		 pop	 ebp
  0001a	c2 04 00	 ret	 4
??0bad_alloc@std@@QAE@PBD@Z ENDP			; std::bad_alloc::bad_alloc
_TEXT	ENDS
PUBLIC	??1bad_alloc@std@@UAE@XZ			; std::bad_alloc::~bad_alloc
EXTRN	__imp_??1exception@std@@UAE@XZ:PROC
; Function compile flags: /Ogsp
;	COMDAT ??1bad_alloc@std@@UAE@XZ
_TEXT	SEGMENT
??1bad_alloc@std@@UAE@XZ PROC				; std::bad_alloc::~bad_alloc, COMDAT
; _this$ = ecx

; 354  : 		{	// destroy the object

  00000	c7 01 00 00 00
	00		 mov	 DWORD PTR [ecx], OFFSET ??_7bad_alloc@std@@6B@

; 355  : 		}

  00006	ff 25 00 00 00
	00		 jmp	 DWORD PTR __imp_??1exception@std@@UAE@XZ
??1bad_alloc@std@@UAE@XZ ENDP				; std::bad_alloc::~bad_alloc
_TEXT	ENDS
EXTRN	??3@YAXPAX@Z:PROC				; operator delete
; Function compile flags: /Ogsp
;	COMDAT ??_Gbad_alloc@std@@UAEPAXI@Z
_TEXT	SEGMENT
___flags$ = 8						; size = 4
??_Gbad_alloc@std@@UAEPAXI@Z PROC			; std::bad_alloc::`scalar deleting destructor', COMDAT
; _this$ = ecx
  00000	55		 push	 ebp
  00001	8b ec		 mov	 ebp, esp
  00003	56		 push	 esi
  00004	8b f1		 mov	 esi, ecx
  00006	c7 06 00 00 00
	00		 mov	 DWORD PTR [esi], OFFSET ??_7bad_alloc@std@@6B@
  0000c	ff 15 00 00 00
	00		 call	 DWORD PTR __imp_??1exception@std@@UAE@XZ
  00012	f6 45 08 01	 test	 BYTE PTR ___flags$[ebp], 1
  00016	74 07		 je	 SHORT $LN1@scalar
  00018	56		 push	 esi
  00019	e8 00 00 00 00	 call	 ??3@YAXPAX@Z		; operator delete
  0001e	59		 pop	 ecx
$LN1@scalar:
  0001f	8b c6		 mov	 eax, esi
  00021	5e		 pop	 esi
  00022	5d		 pop	 ebp
  00023	c2 04 00	 ret	 4
??_Gbad_alloc@std@@UAEPAXI@Z ENDP			; std::bad_alloc::`scalar deleting destructor'
_TEXT	ENDS
PUBLIC	??2@YAPAXIPAX@Z					; operator new
; Function compile flags: /Ogsp
; File c:\program files (x86)\microsoft visual studio 10.0\vc\include\new
;	COMDAT ??2@YAPAXIPAX@Z
_TEXT	SEGMENT
___formal$ = 8						; size = 4
__Where$ = 12						; size = 4
??2@YAPAXIPAX@Z PROC					; operator new, COMDAT

; 56   : 	{	// construct array with placement at _Where

  00000	55		 push	 ebp
  00001	8b ec		 mov	 ebp, esp

; 57   : 	return (_Where);

  00003	8b 45 0c	 mov	 eax, DWORD PTR __Where$[ebp]

; 58   : 	}

  00006	5d		 pop	 ebp
  00007	c3		 ret	 0
??2@YAPAXIPAX@Z ENDP					; operator new
_TEXT	ENDS
PUBLIC	??3@YAXPAX0@Z					; operator delete
; Function compile flags: /Ogsp
;	COMDAT ??3@YAXPAX0@Z
_TEXT	SEGMENT
___formal$ = 8						; size = 4
___formal$ = 12						; size = 4
??3@YAXPAX0@Z PROC					; operator delete, COMDAT

; 62   : 	}

  00000	c3		 ret	 0
??3@YAXPAX0@Z ENDP					; operator delete
_TEXT	ENDS
PUBLIC	?IsRightTab@InventorySelectItemWnd@@IAE_NKH@Z	; InventorySelectItemWnd::IsRightTab
EXTRN	__imp_?FindChildWnd@ioWnd@@QAEPAV1@K@Z:PROC
EXTRN	___RTDynamicCast:PROC
; Function compile flags: /Ogsp
; File d:\lost saga for developer\youtube\tutorial\source\src\lsclient\gui\inventoryselectitemwnd.cpp
;	COMDAT ?IsRightTab@InventorySelectItemWnd@@IAE_NKH@Z
_TEXT	SEGMENT
_dwTabID$ = 8						; size = 4
_iType$ = 12						; size = 4
?IsRightTab@InventorySelectItemWnd@@IAE_NKH@Z PROC	; InventorySelectItemWnd::IsRightTab, COMDAT
; _this$ = ecx

; 593  : {

  00000	55		 push	 ebp
  00001	8b ec		 mov	 ebp, esp

; 594  : 	InventorySelectItemRadioButton* pButton = dynamic_cast<InventorySelectItemRadioButton*>( FindChildWnd( dwTabID ) );

  00003	6a 00		 push	 0
  00005	68 00 00 00 00	 push	 OFFSET ??_R0?AVInventorySelectItemRadioButton@@@8
  0000a	68 00 00 00 00	 push	 OFFSET ??_R0?AVioWnd@@@8
  0000f	6a 00		 push	 0
  00011	ff 75 08	 push	 DWORD PTR _dwTabID$[ebp]
  00014	ff 15 00 00 00
	00		 call	 DWORD PTR __imp_?FindChildWnd@ioWnd@@QAEPAV1@K@Z
  0001a	50		 push	 eax
  0001b	e8 00 00 00 00	 call	 ___RTDynamicCast
  00020	83 c4 14	 add	 esp, 20			; 00000014H

; 595  : 	if( pButton )

  00023	85 c0		 test	 eax, eax
  00025	74 14		 je	 SHORT $LN1@IsRightTab

; 596  : 	{
; 597  : 		if ( pButton->GetTabType() == -1 )

  00027	8b 80 fc 01 00
	00		 mov	 eax, DWORD PTR [eax+508]
  0002d	83 f8 ff	 cmp	 eax, -1
  00030	75 04		 jne	 SHORT $LN3@IsRightTab
$LN11@IsRightTab:

; 598  : 			return true;

  00032	b0 01		 mov	 al, 1
  00034	eb 07		 jmp	 SHORT $LN5@IsRightTab
$LN3@IsRightTab:

; 599  : 		else if ( pButton->GetTabType() == iType )

  00036	3b 45 0c	 cmp	 eax, DWORD PTR _iType$[ebp]

; 600  : 			return true;

  00039	74 f7		 je	 SHORT $LN11@IsRightTab
$LN1@IsRightTab:

; 601  : 	}
; 602  : 	return false;

  0003b	32 c0		 xor	 al, al
$LN5@IsRightTab:

; 603  : }

  0003d	5d		 pop	 ebp
  0003e	c2 08 00	 ret	 8
?IsRightTab@InventorySelectItemWnd@@IAE_NKH@Z ENDP	; InventorySelectItemWnd::IsRightTab
_TEXT	ENDS
PUBLIC	??_R0?AVioEdit@@@8				; ioEdit `RTTI Type Descriptor'
PUBLIC	?OnProcess@InventorySelectItemWnd@@MAEXM@Z	; InventorySelectItemWnd::OnProcess
EXTRN	__imp_??4ioHashString@@QAEAAV0@PBD@Z:PROC
EXTRN	__imp_?GetString@ioInputBox@@QBEPBDXZ:PROC
EXTRN	__imp_?IsBackSpace@ioInputBox@@QAE_NXZ:PROC
EXTRN	__imp_?IsKeyDown@ioInputBox@@QAE_NXZ:PROC
EXTRN	__imp_?IsEnter@ioInputBox@@QAE_NXZ:PROC
EXTRN	__imp_?GetSingleton@ioInputBox@@SAAAV1@XZ:PROC
EXTRN	__imp_?IsKeyFocus@ioEdit@@QBE_NXZ:PROC
EXTRN	__imp_?IsShow@ioWnd@@QBE_NXZ:PROC
;	COMDAT ??_R0?AVioEdit@@@8
_DATA	SEGMENT
??_R0?AVioEdit@@@8 DD FLAT:??_7type_info@@6B@		; ioEdit `RTTI Type Descriptor'
	DD	00H
	DB	'.?AVioEdit@@', 00H
; Function compile flags: /Ogsp
_DATA	ENDS
;	COMDAT ?OnProcess@InventorySelectItemWnd@@MAEXM@Z
_TEXT	SEGMENT
_fTimePerSec$ = 8					; size = 4
?OnProcess@InventorySelectItemWnd@@MAEXM@Z PROC		; InventorySelectItemWnd::OnProcess, COMDAT
; _this$ = ecx

; 648  : {

  00000	56		 push	 esi
  00001	8b f1		 mov	 esi, ecx

; 649  : 	if( !IsShow() )

  00003	ff 15 00 00 00
	00		 call	 DWORD PTR __imp_?IsShow@ioWnd@@QBE_NXZ
  00009	84 c0		 test	 al, al
  0000b	0f 84 93 00 00
	00		 je	 $LN2@OnProcess

; 650  : 		return;
; 651  : 
; 652  : 	ioEdit* pEdit = dynamic_cast<ioEdit*>( FindChildWnd( ID_FIND_EDIT ) );

  00011	57		 push	 edi
  00012	8b 3d 00 00 00
	00		 mov	 edi, DWORD PTR __imp_?FindChildWnd@ioWnd@@QAEPAV1@K@Z
  00018	6a 00		 push	 0
  0001a	68 00 00 00 00	 push	 OFFSET ??_R0?AVioEdit@@@8
  0001f	68 00 00 00 00	 push	 OFFSET ??_R0?AVioWnd@@@8
  00024	6a 00		 push	 0
  00026	6a 02		 push	 2
  00028	8b ce		 mov	 ecx, esi
  0002a	ff d7		 call	 edi
  0002c	50		 push	 eax
  0002d	e8 00 00 00 00	 call	 ___RTDynamicCast
  00032	83 c4 14	 add	 esp, 20			; 00000014H

; 653  : 	if( pEdit && pEdit->IsKeyFocus() )

  00035	85 c0		 test	 eax, eax
  00037	74 6a		 je	 SHORT $LN9@OnProcess
  00039	8b c8		 mov	 ecx, eax
  0003b	ff 15 00 00 00
	00		 call	 DWORD PTR __imp_?IsKeyFocus@ioEdit@@QBE_NXZ
  00041	84 c0		 test	 al, al
  00043	74 5e		 je	 SHORT $LN9@OnProcess

; 654  : 	{
; 655  : 		if( g_InputBox.IsEnter() )

  00045	53		 push	 ebx
  00046	8b 1d 00 00 00
	00		 mov	 ebx, DWORD PTR __imp_?GetSingleton@ioInputBox@@SAAAV1@XZ
  0004c	ff d3		 call	 ebx
  0004e	8b c8		 mov	 ecx, eax
  00050	ff 15 00 00 00
	00		 call	 DWORD PTR __imp_?IsEnter@ioInputBox@@QAE_NXZ
  00056	84 c0		 test	 al, al

; 656  : 		{
; 657  : 			iwm_command( FindChildWnd( ID_FIND_BTN ), IOBN_BTNUP, 0 );

  00058	75 33		 jne	 SHORT $LN11@OnProcess

; 658  : 		}
; 659  : 
; 660  : 		else if( g_InputBox.IsKeyDown() || g_InputBox.IsBackSpace() )

  0005a	ff d3		 call	 ebx
  0005c	8b c8		 mov	 ecx, eax
  0005e	ff 15 00 00 00
	00		 call	 DWORD PTR __imp_?IsKeyDown@ioInputBox@@QAE_NXZ
  00064	84 c0		 test	 al, al
  00066	75 0e		 jne	 SHORT $LN1@OnProcess
  00068	ff d3		 call	 ebx
  0006a	8b c8		 mov	 ecx, eax
  0006c	ff 15 00 00 00
	00		 call	 DWORD PTR __imp_?IsBackSpace@ioInputBox@@QAE_NXZ
  00072	84 c0		 test	 al, al
  00074	74 2c		 je	 SHORT $LN10@OnProcess
$LN1@OnProcess:

; 661  : 		{
; 662  : 			m_szCurrFindKeyword = g_InputBox.GetString();

  00076	ff d3		 call	 ebx
  00078	8b c8		 mov	 ecx, eax
  0007a	ff 15 00 00 00
	00		 call	 DWORD PTR __imp_?GetString@ioInputBox@@QBEPBDXZ
  00080	50		 push	 eax
  00081	8d 8e 78 01 00
	00		 lea	 ecx, DWORD PTR [esi+376]
  00087	ff 15 00 00 00
	00		 call	 DWORD PTR __imp_??4ioHashString@@QAEAAV0@PBD@Z
$LN11@OnProcess:

; 663  : 			iwm_command( FindChildWnd( ID_FIND_BTN ), IOBN_BTNUP, 0 );

  0008d	8b 1e		 mov	 ebx, DWORD PTR [esi]
  0008f	6a 00		 push	 0
  00091	6a 11		 push	 17			; 00000011H
  00093	6a 03		 push	 3
  00095	8b ce		 mov	 ecx, esi
  00097	ff d7		 call	 edi
  00099	50		 push	 eax
  0009a	8b ce		 mov	 ecx, esi
  0009c	ff 93 8c 00 00
	00		 call	 DWORD PTR [ebx+140]
$LN10@OnProcess:
  000a2	5b		 pop	 ebx
$LN9@OnProcess:
  000a3	5f		 pop	 edi
$LN2@OnProcess:
  000a4	5e		 pop	 esi

; 664  : 		}
; 665  : 	}
; 666  : }

  000a5	c2 04 00	 ret	 4
?OnProcess@InventorySelectItemWnd@@MAEXM@Z ENDP		; InventorySelectItemWnd::OnProcess
_TEXT	ENDS
PUBLIC	?OnRender@InventorySelectItemWnd@@MAEXXZ	; InventorySelectItemWnd::OnRender
EXTRN	__imp_?OnRender@ioWnd@@MAEXXZ:PROC
EXTRN	__imp_?GetDerivedPosY@ioWnd@@QBEHXZ:PROC
EXTRN	__imp_?GetDerivedPosX@ioWnd@@QBEHXZ:PROC
EXTRN	__fltused:DWORD
; Function compile flags: /Ogsp
;	COMDAT ?OnRender@InventorySelectItemWnd@@MAEXXZ
_TEXT	SEGMENT
?OnRender@InventorySelectItemWnd@@MAEXXZ PROC		; InventorySelectItemWnd::OnRender, COMDAT
; _this$ = ecx

; 669  : {

  00000	53		 push	 ebx
  00001	56		 push	 esi
  00002	57		 push	 edi
  00003	8b f1		 mov	 esi, ecx

; 670  : 	int iXPos = GetDerivedPosX();

  00005	ff 15 00 00 00
	00		 call	 DWORD PTR __imp_?GetDerivedPosX@ioWnd@@QBEHXZ

; 671  : 	int iYPos = GetDerivedPosY();

  0000b	8b ce		 mov	 ecx, esi
  0000d	8b f8		 mov	 edi, eax
  0000f	ff 15 00 00 00
	00		 call	 DWORD PTR __imp_?GetDerivedPosY@ioWnd@@QBEHXZ

; 672  : 
; 673  : 	ioWnd::OnRender();

  00015	8b ce		 mov	 ecx, esi
  00017	8b d8		 mov	 ebx, eax
  00019	ff 15 00 00 00
	00		 call	 DWORD PTR __imp_?OnRender@ioWnd@@MAEXXZ

; 674  : 
; 675  : 	enum
; 676  : 	{
; 677  : 		X_OFFSET = 17,
; 678  : 		Y_OFFSET = 474,
; 679  : 	};
; 680  : 
; 681  : 	if( m_pEditFrm )

  0001f	33 c9		 xor	 ecx, ecx
  00021	39 8e 74 01 00
	00		 cmp	 DWORD PTR [esi+372], ecx
  00027	74 34		 je	 SHORT $LN1@OnRender

; 682  : 		m_pEditFrm->Render( iXPos+X_OFFSET, iYPos+Y_OFFSET );

  00029	8b 86 74 01 00
	00		 mov	 eax, DWORD PTR [esi+372]
  0002f	8b 10		 mov	 edx, DWORD PTR [eax]
  00031	51		 push	 ecx
  00032	51		 push	 ecx
  00033	51		 push	 ecx
  00034	51		 push	 ecx
  00035	51		 push	 ecx
  00036	0f 57 c0	 xorps	 xmm0, xmm0
  00039	51		 push	 ecx
  0003a	81 c3 da 01 00
	00		 add	 ebx, 474		; 000001daH
  00040	f3 0f 2a c3	 cvtsi2ss xmm0, ebx
  00044	f3 0f 11 44 24
	04		 movss	 DWORD PTR [esp+4], xmm0
  0004a	83 c7 11	 add	 edi, 17			; 00000011H
  0004d	0f 57 c0	 xorps	 xmm0, xmm0
  00050	f3 0f 2a c7	 cvtsi2ss xmm0, edi
  00054	8b c8		 mov	 ecx, eax
  00056	f3 0f 11 04 24	 movss	 DWORD PTR [esp], xmm0
  0005b	ff 12		 call	 DWORD PTR [edx]
$LN1@OnRender:

; 683  : }

  0005d	5f		 pop	 edi
  0005e	5e		 pop	 esi
  0005f	5b		 pop	 ebx
  00060	c3		 ret	 0
?OnRender@InventorySelectItemWnd@@MAEXXZ ENDP		; InventorySelectItemWnd::OnRender
_TEXT	ENDS
PUBLIC	?iwm_hide@InventorySelectItemWnd@@UAEXXZ	; InventorySelectItemWnd::iwm_hide
EXTRN	__imp_?HideWnd@ioWnd@@QAEXXZ:PROC
; Function compile flags: /Ogsp
;	COMDAT ?iwm_hide@InventorySelectItemWnd@@UAEXXZ
_TEXT	SEGMENT
?iwm_hide@InventorySelectItemWnd@@UAEXXZ PROC		; InventorySelectItemWnd::iwm_hide, COMDAT
; _this$ = ecx

; 686  : {

  00000	53		 push	 ebx
  00001	56		 push	 esi
  00002	8b f1		 mov	 esi, ecx

; 687  : 	for ( DWORD i = m_dwCurMinTabID; i < m_dwCurMaxTabID+1 ; i++)

  00004	8b 86 6c 01 00
	00		 mov	 eax, DWORD PTR [esi+364]
  0000a	8b 9e 68 01 00
	00		 mov	 ebx, DWORD PTR [esi+360]
  00010	40		 inc	 eax
  00011	3b d8		 cmp	 ebx, eax
  00013	73 48		 jae	 SHORT $LN2@iwm_hide
  00015	57		 push	 edi
$LL4@iwm_hide:

; 688  : 	{
; 689  : 		ioRadioButton *pButton = dynamic_cast<ioRadioButton*> ( FindChildWnd( i ) );

  00016	6a 00		 push	 0
  00018	68 00 00 00 00	 push	 OFFSET ??_R0?AVioRadioButton@@@8
  0001d	68 00 00 00 00	 push	 OFFSET ??_R0?AVioWnd@@@8
  00022	6a 00		 push	 0
  00024	53		 push	 ebx
  00025	8b ce		 mov	 ecx, esi
  00027	ff 15 00 00 00
	00		 call	 DWORD PTR __imp_?FindChildWnd@ioWnd@@QAEPAV1@K@Z
  0002d	50		 push	 eax
  0002e	e8 00 00 00 00	 call	 ___RTDynamicCast
  00033	8b f8		 mov	 edi, eax
  00035	83 c4 14	 add	 esp, 20			; 00000014H

; 690  : 		if( pButton && pButton->IsShow() )

  00038	85 ff		 test	 edi, edi
  0003a	74 14		 je	 SHORT $LN3@iwm_hide
  0003c	8b cf		 mov	 ecx, edi
  0003e	ff 15 00 00 00
	00		 call	 DWORD PTR __imp_?IsShow@ioWnd@@QBE_NXZ
  00044	84 c0		 test	 al, al
  00046	74 08		 je	 SHORT $LN3@iwm_hide

; 691  : 			pButton->HideWnd();

  00048	8b cf		 mov	 ecx, edi
  0004a	ff 15 00 00 00
	00		 call	 DWORD PTR __imp_?HideWnd@ioWnd@@QAEXXZ
$LN3@iwm_hide:

; 687  : 	for ( DWORD i = m_dwCurMinTabID; i < m_dwCurMaxTabID+1 ; i++)

  00050	8b 86 6c 01 00
	00		 mov	 eax, DWORD PTR [esi+364]
  00056	43		 inc	 ebx
  00057	40		 inc	 eax
  00058	3b d8		 cmp	 ebx, eax
  0005a	72 ba		 jb	 SHORT $LL4@iwm_hide
  0005c	5f		 pop	 edi
$LN2@iwm_hide:
  0005d	5e		 pop	 esi
  0005e	5b		 pop	 ebx

; 692  : 	}
; 693  : }

  0005f	c3		 ret	 0
?iwm_hide@InventorySelectItemWnd@@UAEXXZ ENDP		; InventorySelectItemWnd::iwm_hide
_TEXT	ENDS
PUBLIC	??_7InventorySelectItemToolTip@@6B@		; InventorySelectItemToolTip::`vftable'
PUBLIC	??0InventorySelectItemToolTip@@QAE@XZ		; InventorySelectItemToolTip::InventorySelectItemToolTip
PUBLIC	??_R4InventorySelectItemToolTip@@6B@		; InventorySelectItemToolTip::`RTTI Complete Object Locator'
PUBLIC	??_R0?AVInventorySelectItemToolTip@@@8		; InventorySelectItemToolTip `RTTI Type Descriptor'
PUBLIC	??_R3InventorySelectItemToolTip@@8		; InventorySelectItemToolTip::`RTTI Class Hierarchy Descriptor'
PUBLIC	??_R2InventorySelectItemToolTip@@8		; InventorySelectItemToolTip::`RTTI Base Class Array'
PUBLIC	??_R1A@?0A@EA@InventorySelectItemToolTip@@8	; InventorySelectItemToolTip::`RTTI Base Class Descriptor at (0,-1,0,64)'
PUBLIC	?ParseExtraInfo@InventorySelectItemToolTip@@UAEXAAVioXMLElement@@@Z ; InventorySelectItemToolTip::ParseExtraInfo
PUBLIC	?OnRender@InventorySelectItemToolTip@@MAEXXZ	; InventorySelectItemToolTip::OnRender
PUBLIC	?OnProcess@InventorySelectItemToolTip@@MAEXM@Z	; InventorySelectItemToolTip::OnProcess
EXTRN	__imp_??1ioWnd@@UAE@XZ:PROC
EXTRN	__imp_?Clear@ioHashString@@QAEXXZ:PROC
EXTRN	__imp_??0ioHashString@@QAE@XZ:PROC
EXTRN	??0ioComplexStringPrinter@@QAE@XZ:PROC		; ioComplexStringPrinter::ioComplexStringPrinter
EXTRN	__imp_??0ioWnd@@QAE@XZ:PROC
EXTRN	?AddRenderFrame@ioWnd@@UAEXABVioHashString@@PAVioUIRenderFrame@@@Z:PROC ; ioWnd::AddRenderFrame
EXTRN	?AddRenderImage@ioWnd@@UAEXABVioHashString@@PAVioUIRenderImage@@@Z:PROC ; ioWnd::AddRenderImage
EXTRN	?SetWindowAlpha@ioWnd@@UAEXH@Z:PROC		; ioWnd::SetWindowAlpha
EXTRN	?CheckFrameReSize@ioWnd@@MAEXHHHH@Z:PROC	; ioWnd::CheckFrameReSize
EXTRN	?iwm_lbuttondown@ioWnd@@UAEXABVioMouse@@@Z:PROC	; ioWnd::iwm_lbuttondown
EXTRN	?iwm_lbuttonup@ioWnd@@UAEXABVioMouse@@@Z:PROC	; ioWnd::iwm_lbuttonup
EXTRN	?iwm_lbuttonDBLCLK@ioWnd@@UAEXABVioMouse@@@Z:PROC ; ioWnd::iwm_lbuttonDBLCLK
EXTRN	?iwm_rbuttondown@ioWnd@@UAEXABVioMouse@@@Z:PROC	; ioWnd::iwm_rbuttondown
EXTRN	?iwm_rbuttonup@ioWnd@@UAEXABVioMouse@@@Z:PROC	; ioWnd::iwm_rbuttonup
EXTRN	?iwm_mouseover@ioWnd@@UAEXABVioMouse@@@Z:PROC	; ioWnd::iwm_mouseover
EXTRN	?GetWndType@ioWnd@@UBEKXZ:PROC			; ioWnd::GetWndType
EXTRN	?GetHeaderFileName@ioWnd@@UAEPBDXZ:PROC		; ioWnd::GetHeaderFileName
EXTRN	?GetTemplateName@ioWnd@@UAEPBDXZ:PROC		; ioWnd::GetTemplateName
EXTRN	?GetDefClassName@ioWnd@@UBEPBDXZ:PROC		; ioWnd::GetDefClassName
EXTRN	?_Clone@ioWnd@@UAEPAV1@XZ:PROC			; ioWnd::_Clone
EXTRN	?Copy@ioWnd@@UAEXPAV1@@Z:PROC			; ioWnd::Copy
EXTRN	?SetSaveData@ioWnd@@UAEXAAVioXMLElement@@@Z:PROC ; ioWnd::SetSaveData
EXTRN	?GetNumFixedRenderFrame@ioWnd@@UBEHXZ:PROC	; ioWnd::GetNumFixedRenderFrame
EXTRN	?GetFixedRenderFrameType@ioWnd@@UAEPBDH@Z:PROC	; ioWnd::GetFixedRenderFrameType
EXTRN	?GetRenderFrame@ioWnd@@UAEPAPAVioUIRenderElement@@PBD@Z:PROC ; ioWnd::GetRenderFrame
EXTRN	?GetNumFixedRenderImage@ioWnd@@UBEHXZ:PROC	; ioWnd::GetNumFixedRenderImage
EXTRN	?GetFixedRenderImageType@ioWnd@@UAEPBDH@Z:PROC	; ioWnd::GetFixedRenderImageType
EXTRN	?GetRenderImage@ioWnd@@UAEPAPAVioUIRenderElement@@PBD@Z:PROC ; ioWnd::GetRenderImage
EXTRN	??_EInventorySelectItemToolTip@@UAEPAXI@Z:PROC	; InventorySelectItemToolTip::`vector deleting destructor'
;	COMDAT ??_R1A@?0A@EA@InventorySelectItemToolTip@@8
rdata$r	SEGMENT
??_R1A@?0A@EA@InventorySelectItemToolTip@@8 DD FLAT:??_R0?AVInventorySelectItemToolTip@@@8 ; InventorySelectItemToolTip::`RTTI Base Class Descriptor at (0,-1,0,64)'
	DD	01H
	DD	00H
	DD	0ffffffffH
	DD	00H
	DD	040H
	DD	FLAT:??_R3InventorySelectItemToolTip@@8
rdata$r	ENDS
;	COMDAT ??_R2InventorySelectItemToolTip@@8
rdata$r	SEGMENT
??_R2InventorySelectItemToolTip@@8 DD FLAT:??_R1A@?0A@EA@InventorySelectItemToolTip@@8 ; InventorySelectItemToolTip::`RTTI Base Class Array'
	DD	FLAT:??_R1A@?0A@EA@ioWnd@@8
rdata$r	ENDS
;	COMDAT ??_R3InventorySelectItemToolTip@@8
rdata$r	SEGMENT
??_R3InventorySelectItemToolTip@@8 DD 00H		; InventorySelectItemToolTip::`RTTI Class Hierarchy Descriptor'
	DD	00H
	DD	02H
	DD	FLAT:??_R2InventorySelectItemToolTip@@8
rdata$r	ENDS
;	COMDAT ??_R0?AVInventorySelectItemToolTip@@@8
_DATA	SEGMENT
??_R0?AVInventorySelectItemToolTip@@@8 DD FLAT:??_7type_info@@6B@ ; InventorySelectItemToolTip `RTTI Type Descriptor'
	DD	00H
	DB	'.?AVInventorySelectItemToolTip@@', 00H
_DATA	ENDS
;	COMDAT ??_R4InventorySelectItemToolTip@@6B@
rdata$r	SEGMENT
??_R4InventorySelectItemToolTip@@6B@ DD 00H		; InventorySelectItemToolTip::`RTTI Complete Object Locator'
	DD	00H
	DD	00H
	DD	FLAT:??_R0?AVInventorySelectItemToolTip@@@8
	DD	FLAT:??_R3InventorySelectItemToolTip@@8
rdata$r	ENDS
;	COMDAT ??_7InventorySelectItemToolTip@@6B@
CONST	SEGMENT
??_7InventorySelectItemToolTip@@6B@ DD FLAT:??_R4InventorySelectItemToolTip@@6B@ ; InventorySelectItemToolTip::`vftable'
	DD	FLAT:?AddRenderFrame@ioWnd@@UAEXABVioHashString@@PAVioUIRenderFrame@@@Z
	DD	FLAT:?AddRenderImage@ioWnd@@UAEXABVioHashString@@PAVioUIRenderImage@@@Z
	DD	FLAT:?AddTooltipHelp@ioWnd@@UAEXABVioHashString@@00@Z
	DD	FLAT:?ParseExtraInfo@InventorySelectItemToolTip@@UAEXAAVioXMLElement@@@Z
	DD	FLAT:?AddNamedRenderImage@ioWnd@@UAEXABVioHashString@@PAVioUIRenderImage@@@Z
	DD	FLAT:?RemoveNamedRenderImage@ioWnd@@UAEXABVioHashString@@@Z
	DD	FLAT:?GetNamedRenderImage@ioWnd@@UBEPAVioUIRenderImage@@ABVioHashString@@@Z
	DD	FLAT:?SetWindowAlpha@ioWnd@@UAEXH@Z
	DD	FLAT:?SetActive@ioWnd@@UAEXXZ
	DD	FLAT:?SetInActive@ioWnd@@UAEXXZ
	DD	FLAT:?ClearElementImageList@ioWnd@@UAEXXZ
	DD	FLAT:?SetSize@ioWnd@@UAEXHH@Z
	DD	FLAT:?SetPositionToDefault@ioWnd@@UAEXHH_N0@Z
	DD	FLAT:?IsNeedProcess@ioWnd@@UBE_NXZ
	DD	FLAT:?IsCanMouseReaction@ioWnd@@UBE_NXZ
	DD	FLAT:?AddChild@ioWnd@@UAEXPAV1@@Z
	DD	FLAT:?DeleteChild@ioWnd@@UAEXK@Z
	DD	FLAT:?DeleteAllChild@ioWnd@@UAEXXZ
	DD	FLAT:?OnRenderShowAndHide@ioWnd@@MAE_NXZ
	DD	FLAT:?OnRenderShowAndHideByDefault@ioWnd@@MAE_NK@Z
	DD	FLAT:?OnRenderShowAndHideByTop@ioWnd@@MAE_NK@Z
	DD	FLAT:?OnRenderShowAndHideByDown@ioWnd@@MAE_NK@Z
	DD	FLAT:?OnRender@InventorySelectItemToolTip@@MAEXXZ
	DD	FLAT:?OnRenderAfterChild@ioWnd@@MAEXXZ
	DD	FLAT:?OnProcess@InventorySelectItemToolTip@@MAEXM@Z
	DD	FLAT:?OnMouseProcess@ioWnd@@MAEXABVioMouse@@@Z
	DD	FLAT:?CheckFrameReSize@ioWnd@@MAEXHHHH@Z
	DD	FLAT:?RenderImageList@ioWnd@@MAEXHHW4UIRenderType@@@Z
	DD	FLAT:?iwm_create@ioWnd@@UAEXXZ
	DD	FLAT:?iwm_destroy@ioWnd@@UAEXXZ
	DD	FLAT:?iwm_lbuttondown@ioWnd@@UAEXABVioMouse@@@Z
	DD	FLAT:?iwm_lbuttonup@ioWnd@@UAEXABVioMouse@@@Z
	DD	FLAT:?iwm_lbuttonDBLCLK@ioWnd@@UAEXABVioMouse@@@Z
	DD	FLAT:?iwm_rbuttondown@ioWnd@@UAEXABVioMouse@@@Z
	DD	FLAT:?iwm_rbuttonup@ioWnd@@UAEXABVioMouse@@@Z
	DD	FLAT:?iwm_command@ioWnd@@UAEXPAV1@HK@Z
	DD	FLAT:?iwm_mouseover@ioWnd@@UAEXABVioMouse@@@Z
	DD	FLAT:?iwm_mousemove@ioWnd@@UAEXABVioMouse@@@Z
	DD	FLAT:?iwm_mouseleave@ioWnd@@UAEXABVioMouse@@@Z
	DD	FLAT:?iwm_vscroll@ioWnd@@UAEXKH@Z
	DD	FLAT:?iwm_wheel@ioWnd@@UAEXH@Z
	DD	FLAT:?iwm_show@ioWnd@@UAEXXZ
	DD	FLAT:?iwm_hide@ioWnd@@UAEXXZ
	DD	FLAT:?iwm_esc@ioWnd@@UAE_NXZ
	DD	FLAT:?iwm_spacebar@ioWnd@@UAE_NXZ
	DD	FLAT:?iwm_gototop@ioWnd@@UAEXXZ
	DD	FLAT:?iwm_dragenter@ioWnd@@UAE?AW4IWDropEffect@@PAVioDragItem@@ABVioMouse@@@Z
	DD	FLAT:?iwm_dragover@ioWnd@@UAE?AW4IWDropEffect@@PAVioDragItem@@ABVioMouse@@@Z
	DD	FLAT:?iwm_dragleave@ioWnd@@UAEXXZ
	DD	FLAT:?iwm_dropitem@ioWnd@@UAE_NPAVioDragItem@@ABVioMouse@@PAV1@@Z
	DD	FLAT:?iwm_dropdone@ioWnd@@UAEXPAVioDragItem@@PAV1@_N@Z
	DD	FLAT:?IsEXType@ioWnd@@UBE_NXZ
	DD	FLAT:?GetWndType@ioWnd@@UBEKXZ
	DD	FLAT:?RenderWnd@ioWnd@@UAEXXZ
	DD	FLAT:?SetIDEX@ioWnd@@UAEXAAK_N@Z
	DD	FLAT:?ParseXML@ioWnd@@UAEXAAVioXMLElement@@@Z
	DD	FLAT:?GetHeaderFileName@ioWnd@@UAEPBDXZ
	DD	FLAT:?GetTemplateName@ioWnd@@UAEPBDXZ
	DD	FLAT:?GetDefClassName@ioWnd@@UBEPBDXZ
	DD	FLAT:?_Clone@ioWnd@@UAEPAV1@XZ
	DD	FLAT:?Copy@ioWnd@@UAEXPAV1@@Z
	DD	FLAT:?Save@ioWnd@@UAE_NAAVioXMLElement@@@Z
	DD	FLAT:?SetSaveData@ioWnd@@UAEXAAVioXMLElement@@@Z
	DD	FLAT:?SetPosX@ioWnd@@UAEXH@Z
	DD	FLAT:?SetPosY@ioWnd@@UAEXH@Z
	DD	FLAT:?SetWidth@ioWnd@@UAEXH@Z
	DD	FLAT:?SetHeight@ioWnd@@UAEXH@Z
	DD	FLAT:?GetNumFixedRenderFrame@ioWnd@@UBEHXZ
	DD	FLAT:?GetFixedRenderFrameType@ioWnd@@UAEPBDH@Z
	DD	FLAT:?GetRenderFrame@ioWnd@@UAEPAPAVioUIRenderElement@@PBD@Z
	DD	FLAT:?GetNumFixedRenderImage@ioWnd@@UBEHXZ
	DD	FLAT:?GetFixedRenderImageType@ioWnd@@UAEPBDH@Z
	DD	FLAT:?GetRenderImage@ioWnd@@UAEPAPAVioUIRenderElement@@PBD@Z
	DD	FLAT:?AddEffect@ioWnd@@UAEXABVioHashString@@PAVioUI3DEffectRender@@@Z
	DD	FLAT:?GetEffect@ioWnd@@UAEPAVioUI3DEffectRender@@VioHashString@@@Z
	DD	FLAT:??_EInventorySelectItemToolTip@@UAEPAXI@Z
CONST	ENDS
;	COMDAT xdata$x
xdata$x	SEGMENT
__unwindtable$??0InventorySelectItemToolTip@@QAE@XZ DD 0ffffffffH
	DD	FLAT:__unwindfunclet$??0InventorySelectItemToolTip@@QAE@XZ$0
	DD	00H
	DD	FLAT:__unwindfunclet$??0InventorySelectItemToolTip@@QAE@XZ$1
	DD	01H
	DD	FLAT:__unwindfunclet$??0InventorySelectItemToolTip@@QAE@XZ$2
__ehfuncinfo$??0InventorySelectItemToolTip@@QAE@XZ DD 019930522H
	DD	03H
	DD	FLAT:__unwindtable$??0InventorySelectItemToolTip@@QAE@XZ
	DD	2 DUP(00H)
	DD	2 DUP(00H)
	DD	00H
	DD	01H
; Function compile flags: /Ogsp
xdata$x	ENDS
;	COMDAT ??0InventorySelectItemToolTip@@QAE@XZ
_TEXT	SEGMENT
_this$ = -16						; size = 4
__$EHRec$ = -12						; size = 12
??0InventorySelectItemToolTip@@QAE@XZ PROC		; InventorySelectItemToolTip::InventorySelectItemToolTip, COMDAT
; _this$ = ecx

; 698  : {

  00000	6a 04		 push	 4
  00002	b8 00 00 00 00	 mov	 eax, __ehhandler$??0InventorySelectItemToolTip@@QAE@XZ
  00007	e8 00 00 00 00	 call	 __EH_prolog3
  0000c	8b f1		 mov	 esi, ecx
  0000e	89 75 f0	 mov	 DWORD PTR _this$[ebp], esi
  00011	ff 15 00 00 00
	00		 call	 DWORD PTR __imp_??0ioWnd@@QAE@XZ
  00017	83 65 fc 00	 and	 DWORD PTR __$EHRec$[ebp+8], 0
  0001b	8d 8e 60 01 00
	00		 lea	 ecx, DWORD PTR [esi+352]
  00021	c7 06 00 00 00
	00		 mov	 DWORD PTR [esi], OFFSET ??_7InventorySelectItemToolTip@@6B@
  00027	e8 00 00 00 00	 call	 ??0ioComplexStringPrinter@@QAE@XZ ; ioComplexStringPrinter::ioComplexStringPrinter
  0002c	8d 8e 80 01 00
	00		 lea	 ecx, DWORD PTR [esi+384]
  00032	c6 45 fc 01	 mov	 BYTE PTR __$EHRec$[ebp+8], 1
  00036	ff 15 00 00 00
	00		 call	 DWORD PTR __imp_??0ioHashString@@QAE@XZ

; 699  : 	m_szName.ClearList();

  0003c	8d 8e 60 01 00
	00		 lea	 ecx, DWORD PTR [esi+352]
  00042	c6 45 fc 02	 mov	 BYTE PTR __$EHRec$[ebp+8], 2
  00046	e8 00 00 00 00	 call	 ?ClearList@ioComplexStringPrinter@@QAEXXZ ; ioComplexStringPrinter::ClearList

; 700  : 	m_szOverSnd.Clear();

  0004b	8d 8e 80 01 00
	00		 lea	 ecx, DWORD PTR [esi+384]
  00051	ff 15 00 00 00
	00		 call	 DWORD PTR __imp_?Clear@ioHashString@@QAEXXZ

; 701  : }

  00057	8b c6		 mov	 eax, esi
  00059	e8 00 00 00 00	 call	 __EH_epilog3
  0005e	c3		 ret	 0
_TEXT	ENDS
;	COMDAT text$x
text$x	SEGMENT
__unwindfunclet$??0InventorySelectItemToolTip@@QAE@XZ$0:
  00000	8b 4d f0	 mov	 ecx, DWORD PTR _this$[ebp]
  00003	ff 25 00 00 00
	00		 jmp	 DWORD PTR __imp_??1ioWnd@@UAE@XZ
__unwindfunclet$??0InventorySelectItemToolTip@@QAE@XZ$1:
  00009	8b 4d f0	 mov	 ecx, DWORD PTR _this$[ebp]
  0000c	81 c1 60 01 00
	00		 add	 ecx, 352		; 00000160H
  00012	e9 00 00 00 00	 jmp	 ??1ioComplexStringPrinter@@QAE@XZ ; ioComplexStringPrinter::~ioComplexStringPrinter
__unwindfunclet$??0InventorySelectItemToolTip@@QAE@XZ$2:
  00017	8b 4d f0	 mov	 ecx, DWORD PTR _this$[ebp]
  0001a	81 c1 80 01 00
	00		 add	 ecx, 384		; 00000180H
  00020	ff 25 00 00 00
	00		 jmp	 DWORD PTR __imp_??1ioHashString@@QAE@XZ
__ehhandler$??0InventorySelectItemToolTip@@QAE@XZ:
  00026	8b 54 24 08	 mov	 edx, DWORD PTR [esp+8]
  0002a	8d 42 0c	 lea	 eax, DWORD PTR [edx+12]
  0002d	8b 4a ec	 mov	 ecx, DWORD PTR [edx-20]
  00030	33 c8		 xor	 ecx, eax
  00032	e8 00 00 00 00	 call	 @__security_check_cookie@4
  00037	b8 00 00 00 00	 mov	 eax, OFFSET __ehfuncinfo$??0InventorySelectItemToolTip@@QAE@XZ
  0003c	e9 00 00 00 00	 jmp	 ___CxxFrameHandler3
text$x	ENDS
??0InventorySelectItemToolTip@@QAE@XZ ENDP		; InventorySelectItemToolTip::InventorySelectItemToolTip
PUBLIC	?length@?$char_traits@D@std@@SAIPBD@Z		; std::char_traits<char>::length
; Function compile flags: /Ogsp
; File c:\program files (x86)\microsoft visual studio 10.0\vc\include\iosfwd
;	COMDAT ?length@?$char_traits@D@std@@SAIPBD@Z
_TEXT	SEGMENT
__First$ = 8						; size = 4
?length@?$char_traits@D@std@@SAIPBD@Z PROC		; std::char_traits<char>::length, COMDAT

; 490  : 		{	// find length of null-terminated string

  00000	55		 push	 ebp
  00001	8b ec		 mov	 ebp, esp

; 491  : 		return (_CSTD strlen(_First));

  00003	8b 45 08	 mov	 eax, DWORD PTR __First$[ebp]
  00006	8d 50 01	 lea	 edx, DWORD PTR [eax+1]
$LL3@length:
  00009	8a 08		 mov	 cl, BYTE PTR [eax]
  0000b	40		 inc	 eax
  0000c	84 c9		 test	 cl, cl
  0000e	75 f9		 jne	 SHORT $LL3@length
  00010	2b c2		 sub	 eax, edx

; 492  : 		}

  00012	5d		 pop	 ebp
  00013	c3		 ret	 0
?length@?$char_traits@D@std@@SAIPBD@Z ENDP		; std::char_traits<char>::length
_TEXT	ENDS
PUBLIC	?copy@?$char_traits@D@std@@SAPADPADPBDI@Z	; std::char_traits<char>::copy
EXTRN	_memcpy:PROC
; Function compile flags: /Ogsp
;	COMDAT ?copy@?$char_traits@D@std@@SAPADPADPBDI@Z
_TEXT	SEGMENT
__First1$ = 8						; size = 4
__First2$ = 12						; size = 4
__Count$ = 16						; size = 4
?copy@?$char_traits@D@std@@SAPADPADPBDI@Z PROC		; std::char_traits<char>::copy, COMDAT

; 496  : 		{	// copy [_First1, _First1 + _Count) to [_First2, ...)

  00000	55		 push	 ebp
  00001	8b ec		 mov	 ebp, esp

; 498  : 		}

  00003	5d		 pop	 ebp

; 497  : 		return ((_Elem *)_CSTD memcpy(_First1, _First2, _Count));

  00004	e9 00 00 00 00	 jmp	 _memcpy
?copy@?$char_traits@D@std@@SAPADPADPBDI@Z ENDP		; std::char_traits<char>::copy
_TEXT	ENDS
PUBLIC	??1InventorySelectItemToolTip@@UAE@XZ		; InventorySelectItemToolTip::~InventorySelectItemToolTip
;	COMDAT xdata$x
; File d:\lost saga for developer\youtube\tutorial\source\src\lsclient\gui\inventoryselectitemwnd.cpp
xdata$x	SEGMENT
__unwindtable$??1InventorySelectItemToolTip@@UAE@XZ DD 0ffffffffH
	DD	FLAT:__unwindfunclet$??1InventorySelectItemToolTip@@UAE@XZ$0
	DD	00H
	DD	FLAT:__unwindfunclet$??1InventorySelectItemToolTip@@UAE@XZ$1
__ehfuncinfo$??1InventorySelectItemToolTip@@UAE@XZ DD 019930522H
	DD	02H
	DD	FLAT:__unwindtable$??1InventorySelectItemToolTip@@UAE@XZ
	DD	2 DUP(00H)
	DD	2 DUP(00H)
	DD	00H
	DD	01H
; Function compile flags: /Ogsp
xdata$x	ENDS
;	COMDAT ??1InventorySelectItemToolTip@@UAE@XZ
_TEXT	SEGMENT
_this$ = -16						; size = 4
__$EHRec$ = -12						; size = 12
??1InventorySelectItemToolTip@@UAE@XZ PROC		; InventorySelectItemToolTip::~InventorySelectItemToolTip, COMDAT
; _this$ = ecx

; 704  : {

  00000	6a 04		 push	 4
  00002	b8 00 00 00 00	 mov	 eax, __ehhandler$??1InventorySelectItemToolTip@@UAE@XZ
  00007	e8 00 00 00 00	 call	 __EH_prolog3
  0000c	8b f1		 mov	 esi, ecx
  0000e	89 75 f0	 mov	 DWORD PTR _this$[ebp], esi
  00011	c7 06 00 00 00
	00		 mov	 DWORD PTR [esi], OFFSET ??_7InventorySelectItemToolTip@@6B@

; 705  : 
; 706  : }

  00017	8d 8e 80 01 00
	00		 lea	 ecx, DWORD PTR [esi+384]
  0001d	c7 45 fc 01 00
	00 00		 mov	 DWORD PTR __$EHRec$[ebp+8], 1
  00024	ff 15 00 00 00
	00		 call	 DWORD PTR __imp_??1ioHashString@@QAE@XZ
  0002a	8d 8e 60 01 00
	00		 lea	 ecx, DWORD PTR [esi+352]
  00030	c6 45 fc 00	 mov	 BYTE PTR __$EHRec$[ebp+8], 0
  00034	e8 00 00 00 00	 call	 ??1ioComplexStringPrinter@@QAE@XZ ; ioComplexStringPrinter::~ioComplexStringPrinter
  00039	83 4d fc ff	 or	 DWORD PTR __$EHRec$[ebp+8], -1
  0003d	8b ce		 mov	 ecx, esi
  0003f	ff 15 00 00 00
	00		 call	 DWORD PTR __imp_??1ioWnd@@UAE@XZ
  00045	e8 00 00 00 00	 call	 __EH_epilog3
  0004a	c3		 ret	 0
_TEXT	ENDS
;	COMDAT text$x
text$x	SEGMENT
__unwindfunclet$??1InventorySelectItemToolTip@@UAE@XZ$0:
  00000	8b 4d f0	 mov	 ecx, DWORD PTR _this$[ebp]
  00003	ff 25 00 00 00
	00		 jmp	 DWORD PTR __imp_??1ioWnd@@UAE@XZ
__unwindfunclet$??1InventorySelectItemToolTip@@UAE@XZ$1:
  00009	8b 4d f0	 mov	 ecx, DWORD PTR _this$[ebp]
  0000c	81 c1 60 01 00
	00		 add	 ecx, 352		; 00000160H
  00012	e9 00 00 00 00	 jmp	 ??1ioComplexStringPrinter@@QAE@XZ ; ioComplexStringPrinter::~ioComplexStringPrinter
__ehhandler$??1InventorySelectItemToolTip@@UAE@XZ:
  00017	8b 54 24 08	 mov	 edx, DWORD PTR [esp+8]
  0001b	8d 42 0c	 lea	 eax, DWORD PTR [edx+12]
  0001e	8b 4a ec	 mov	 ecx, DWORD PTR [edx-20]
  00021	33 c8		 xor	 ecx, eax
  00023	e8 00 00 00 00	 call	 @__security_check_cookie@4
  00028	b8 00 00 00 00	 mov	 eax, OFFSET __ehfuncinfo$??1InventorySelectItemToolTip@@UAE@XZ
  0002d	e9 00 00 00 00	 jmp	 ___CxxFrameHandler3
text$x	ENDS
??1InventorySelectItemToolTip@@UAE@XZ ENDP		; InventorySelectItemToolTip::~InventorySelectItemToolTip
PUBLIC	?move@?$char_traits@D@std@@SAPADPADPBDI@Z	; std::char_traits<char>::move
EXTRN	__imp__memmove:PROC
; Function compile flags: /Ogsp
; File c:\program files (x86)\microsoft visual studio 10.0\vc\include\iosfwd
;	COMDAT ?move@?$char_traits@D@std@@SAPADPADPBDI@Z
_TEXT	SEGMENT
__First1$ = 8						; size = 4
__First2$ = 12						; size = 4
__Count$ = 16						; size = 4
?move@?$char_traits@D@std@@SAPADPADPBDI@Z PROC		; std::char_traits<char>::move, COMDAT

; 516  : 		{	// copy [_First1, _First1 + _Count) to [_First2, ...)

  00000	55		 push	 ebp
  00001	8b ec		 mov	 ebp, esp

; 518  : 		}

  00003	5d		 pop	 ebp

; 517  : 		return ((_Elem *)_CSTD memmove(_First1, _First2, _Count));

  00004	ff 25 00 00 00
	00		 jmp	 DWORD PTR __imp__memmove
?move@?$char_traits@D@std@@SAPADPADPBDI@Z ENDP		; std::char_traits<char>::move
_TEXT	ENDS
PUBLIC	?assign@?$char_traits@D@std@@SAXAADABD@Z	; std::char_traits<char>::assign
; Function compile flags: /Ogsp
;	COMDAT ?assign@?$char_traits@D@std@@SAXAADABD@Z
_TEXT	SEGMENT
__Left$ = 8						; size = 4
__Right$ = 12						; size = 4
?assign@?$char_traits@D@std@@SAXAADABD@Z PROC		; std::char_traits<char>::assign, COMDAT

; 526  : 		{	// assign an element

  00000	55		 push	 ebp
  00001	8b ec		 mov	 ebp, esp

; 527  : 		_Left = _Right;

  00003	8b 45 0c	 mov	 eax, DWORD PTR __Right$[ebp]
  00006	8a 00		 mov	 al, BYTE PTR [eax]
  00008	8b 4d 08	 mov	 ecx, DWORD PTR __Left$[ebp]
  0000b	88 01		 mov	 BYTE PTR [ecx], al

; 528  : 		}

  0000d	5d		 pop	 ebp
  0000e	c3		 ret	 0
?assign@?$char_traits@D@std@@SAXAADABD@Z ENDP		; std::char_traits<char>::assign
_TEXT	ENDS
PUBLIC	?empty@?$basic_string@DU?$char_traits@D@std@@V?$allocator@D@2@@std@@QBE_NXZ ; std::basic_string<char,std::char_traits<char>,std::allocator<char> >::empty
; Function compile flags: /Ogsp
; File c:\program files (x86)\microsoft visual studio 10.0\vc\include\xstring
;	COMDAT ?empty@?$basic_string@DU?$char_traits@D@std@@V?$allocator@D@2@@std@@QBE_NXZ
_TEXT	SEGMENT
?empty@?$basic_string@DU?$char_traits@D@std@@V?$allocator@D@2@@std@@QBE_NXZ PROC ; std::basic_string<char,std::char_traits<char>,std::allocator<char> >::empty, COMDAT
; _this$ = ecx

; 1551 : 		return (this->_Mysize == 0);

  00000	33 c0		 xor	 eax, eax
  00002	39 41 10	 cmp	 DWORD PTR [ecx+16], eax
  00005	0f 94 c0	 sete	 al

; 1552 : 		}

  00008	c3		 ret	 0
?empty@?$basic_string@DU?$char_traits@D@std@@V?$allocator@D@2@@std@@QBE_NXZ ENDP ; std::basic_string<char,std::char_traits<char>,std::allocator<char> >::empty
_TEXT	ENDS
PUBLIC	??A?$vector@VioHashString@@V?$allocator@VioHashString@@@std@@@std@@QBEABVioHashString@@I@Z ; std::vector<ioHashString,std::allocator<ioHashString> >::operator[]
; Function compile flags: /Ogsp
; File c:\program files (x86)\microsoft visual studio 10.0\vc\include\vector
;	COMDAT ??A?$vector@VioHashString@@V?$allocator@VioHashString@@@std@@@std@@QBEABVioHashString@@I@Z
_TEXT	SEGMENT
__Pos$ = 8						; size = 4
??A?$vector@VioHashString@@V?$allocator@VioHashString@@@std@@@std@@QBEABVioHashString@@I@Z PROC ; std::vector<ioHashString,std::allocator<ioHashString> >::operator[], COMDAT
; _this$ = ecx

; 912  : 		{	// subscript nonmutable sequence

  00000	55		 push	 ebp
  00001	8b ec		 mov	 ebp, esp

; 913  :  #if _ITERATOR_DEBUG_LEVEL == 2
; 914  : 		if (size() <= _Pos)
; 915  : 			{	// report error
; 916  : 			_DEBUG_ERROR("vector subscript out of range");
; 917  : 			_SCL_SECURE_OUT_OF_RANGE;
; 918  : 			}
; 919  : 
; 920  :  #elif _ITERATOR_DEBUG_LEVEL == 1
; 921  : 		_SCL_SECURE_VALIDATE_RANGE(_Pos < size());
; 922  :  #endif /* _ITERATOR_DEBUG_LEVEL */
; 923  : 
; 924  : 		return (*(this->_Myfirst + _Pos));

  00003	8b 45 08	 mov	 eax, DWORD PTR __Pos$[ebp]
  00006	c1 e0 04	 shl	 eax, 4
  00009	03 01		 add	 eax, DWORD PTR [ecx]

; 925  : 		}

  0000b	5d		 pop	 ebp
  0000c	c2 04 00	 ret	 4
??A?$vector@VioHashString@@V?$allocator@VioHashString@@@std@@@std@@QBEABVioHashString@@I@Z ENDP ; std::vector<ioHashString,std::allocator<ioHashString> >::operator[]
_TEXT	ENDS
PUBLIC	?size@?$vector@UInventorySelectItem@@V?$allocator@UInventorySelectItem@@@std@@@std@@QBEIXZ ; std::vector<InventorySelectItem,std::allocator<InventorySelectItem> >::size
; Function compile flags: /Ogsp
;	COMDAT ?size@?$vector@UInventorySelectItem@@V?$allocator@UInventorySelectItem@@@std@@@std@@QBEIXZ
_TEXT	SEGMENT
?size@?$vector@UInventorySelectItem@@V?$allocator@UInventorySelectItem@@@std@@@std@@QBEIXZ PROC ; std::vector<InventorySelectItem,std::allocator<InventorySelectItem> >::size, COMDAT
; _this$ = ecx

; 879  : 		return (this->_Mylast - this->_Myfirst);

  00000	8b 41 04	 mov	 eax, DWORD PTR [ecx+4]
  00003	2b 01		 sub	 eax, DWORD PTR [ecx]
  00005	6a 54		 push	 84			; 00000054H
  00007	99		 cdq
  00008	59		 pop	 ecx
  00009	f7 f9		 idiv	 ecx

; 880  : 		}

  0000b	c3		 ret	 0
?size@?$vector@UInventorySelectItem@@V?$allocator@UInventorySelectItem@@@std@@@std@@QBEIXZ ENDP ; std::vector<InventorySelectItem,std::allocator<InventorySelectItem> >::size
_TEXT	ENDS
PUBLIC	?empty@?$vector@UInventorySelectItem@@V?$allocator@UInventorySelectItem@@@std@@@std@@QBE_NXZ ; std::vector<InventorySelectItem,std::allocator<InventorySelectItem> >::empty
; Function compile flags: /Ogsp
;	COMDAT ?empty@?$vector@UInventorySelectItem@@V?$allocator@UInventorySelectItem@@@std@@@std@@QBE_NXZ
_TEXT	SEGMENT
?empty@?$vector@UInventorySelectItem@@V?$allocator@UInventorySelectItem@@@std@@@std@@QBE_NXZ PROC ; std::vector<InventorySelectItem,std::allocator<InventorySelectItem> >::empty, COMDAT
; _this$ = ecx

; 889  : 		return (this->_Myfirst == this->_Mylast);

  00000	8b 01		 mov	 eax, DWORD PTR [ecx]
  00002	2b 41 04	 sub	 eax, DWORD PTR [ecx+4]
  00005	f7 d8		 neg	 eax
  00007	1b c0		 sbb	 eax, eax
  00009	40		 inc	 eax

; 890  : 		}

  0000a	c3		 ret	 0
?empty@?$vector@UInventorySelectItem@@V?$allocator@UInventorySelectItem@@@std@@@std@@QBE_NXZ ENDP ; std::vector<InventorySelectItem,std::allocator<InventorySelectItem> >::empty
_TEXT	ENDS
PUBLIC	??A?$vector@UInventorySelectItem@@V?$allocator@UInventorySelectItem@@@std@@@std@@QAEAAUInventorySelectItem@@I@Z ; std::vector<InventorySelectItem,std::allocator<InventorySelectItem> >::operator[]
; Function compile flags: /Ogsp
;	COMDAT ??A?$vector@UInventorySelectItem@@V?$allocator@UInventorySelectItem@@@std@@@std@@QAEAAUInventorySelectItem@@I@Z
_TEXT	SEGMENT
__Pos$ = 8						; size = 4
??A?$vector@UInventorySelectItem@@V?$allocator@UInventorySelectItem@@@std@@@std@@QAEAAUInventorySelectItem@@I@Z PROC ; std::vector<InventorySelectItem,std::allocator<InventorySelectItem> >::operator[], COMDAT
; _this$ = ecx

; 928  : 		{	// subscript mutable sequence

  00000	55		 push	 ebp
  00001	8b ec		 mov	 ebp, esp

; 929  :  #if _ITERATOR_DEBUG_LEVEL == 2
; 930  : 		if (size() <= _Pos)
; 931  : 			{	// report error
; 932  : 			_DEBUG_ERROR("vector subscript out of range");
; 933  : 			_SCL_SECURE_OUT_OF_RANGE;
; 934  : 			}
; 935  : 
; 936  :  #elif _ITERATOR_DEBUG_LEVEL == 1
; 937  : 		_SCL_SECURE_VALIDATE_RANGE(_Pos < size());
; 938  :  #endif /* _ITERATOR_DEBUG_LEVEL */
; 939  : 
; 940  : 		return (*(this->_Myfirst + _Pos));

  00003	8b 45 08	 mov	 eax, DWORD PTR __Pos$[ebp]
  00006	6b c0 54	 imul	 eax, 84			; 00000054H
  00009	03 01		 add	 eax, DWORD PTR [ecx]

; 941  : 		}

  0000b	5d		 pop	 ebp
  0000c	c2 04 00	 ret	 4
??A?$vector@UInventorySelectItem@@V?$allocator@UInventorySelectItem@@@std@@@std@@QAEAAUInventorySelectItem@@I@Z ENDP ; std::vector<InventorySelectItem,std::allocator<InventorySelectItem> >::operator[]
_TEXT	ENDS
PUBLIC	?capacity@?$vector@UInventorySelectItem@@V?$allocator@UInventorySelectItem@@@std@@@std@@QBEIXZ ; std::vector<InventorySelectItem,std::allocator<InventorySelectItem> >::capacity
; Function compile flags: /Ogsp
;	COMDAT ?capacity@?$vector@UInventorySelectItem@@V?$allocator@UInventorySelectItem@@@std@@@std@@QBEIXZ
_TEXT	SEGMENT
?capacity@?$vector@UInventorySelectItem@@V?$allocator@UInventorySelectItem@@@std@@@std@@QBEIXZ PROC ; std::vector<InventorySelectItem,std::allocator<InventorySelectItem> >::capacity, COMDAT
; _this$ = ecx

; 777  : 		return (this->_Myend - this->_Myfirst);

  00000	8b 41 08	 mov	 eax, DWORD PTR [ecx+8]
  00003	2b 01		 sub	 eax, DWORD PTR [ecx]
  00005	6a 54		 push	 84			; 00000054H
  00007	99		 cdq
  00008	59		 pop	 ecx
  00009	f7 f9		 idiv	 ecx

; 778  : 		}

  0000b	c3		 ret	 0
?capacity@?$vector@UInventorySelectItem@@V?$allocator@UInventorySelectItem@@@std@@@std@@QBEIXZ ENDP ; std::vector<InventorySelectItem,std::allocator<InventorySelectItem> >::capacity
_TEXT	ENDS
PUBLIC	?_Inside@?$vector@UInventorySelectItem@@V?$allocator@UInventorySelectItem@@@std@@@std@@IBE_NPBUInventorySelectItem@@@Z ; std::vector<InventorySelectItem,std::allocator<InventorySelectItem> >::_Inside
; Function compile flags: /Ogsp
;	COMDAT ?_Inside@?$vector@UInventorySelectItem@@V?$allocator@UInventorySelectItem@@@std@@@std@@IBE_NPBUInventorySelectItem@@@Z
_TEXT	SEGMENT
__Ptr$ = 8						; size = 4
?_Inside@?$vector@UInventorySelectItem@@V?$allocator@UInventorySelectItem@@@std@@@std@@IBE_NPBUInventorySelectItem@@@Z PROC ; std::vector<InventorySelectItem,std::allocator<InventorySelectItem> >::_Inside, COMDAT
; _this$ = ecx

; 1285 : 		{	// test if _Ptr points inside vector

  00000	55		 push	 ebp
  00001	8b ec		 mov	 ebp, esp

; 1286 : 		return (_Ptr < this->_Mylast && this->_Myfirst <= _Ptr);

  00003	8b 45 08	 mov	 eax, DWORD PTR __Ptr$[ebp]
  00006	3b 41 04	 cmp	 eax, DWORD PTR [ecx+4]
  00009	73 09		 jae	 SHORT $LN3@Inside
  0000b	39 01		 cmp	 DWORD PTR [ecx], eax
  0000d	77 05		 ja	 SHORT $LN3@Inside
  0000f	33 c0		 xor	 eax, eax
  00011	40		 inc	 eax
  00012	eb 02		 jmp	 SHORT $LN4@Inside
$LN3@Inside:
  00014	33 c0		 xor	 eax, eax
$LN4@Inside:

; 1287 : 		}

  00016	5d		 pop	 ebp
  00017	c2 04 00	 ret	 4
?_Inside@?$vector@UInventorySelectItem@@V?$allocator@UInventorySelectItem@@@std@@@std@@IBE_NPBUInventorySelectItem@@@Z ENDP ; std::vector<InventorySelectItem,std::allocator<InventorySelectItem> >::_Inside
_TEXT	ENDS
PUBLIC	?_Orphan_range@?$vector@UInventorySelectItem@@V?$allocator@UInventorySelectItem@@@std@@@std@@IBEXPAUInventorySelectItem@@0@Z ; std::vector<InventorySelectItem,std::allocator<InventorySelectItem> >::_Orphan_range
; Function compile flags: /Ogsp
;	COMDAT ?_Orphan_range@?$vector@UInventorySelectItem@@V?$allocator@UInventorySelectItem@@@std@@@std@@IBEXPAUInventorySelectItem@@0@Z
_TEXT	SEGMENT
___formal$ = 8						; size = 4
___formal$ = 12						; size = 4
?_Orphan_range@?$vector@UInventorySelectItem@@V?$allocator@UInventorySelectItem@@@std@@@std@@IBEXPAUInventorySelectItem@@0@Z PROC ; std::vector<InventorySelectItem,std::allocator<InventorySelectItem> >::_Orphan_range, COMDAT
; _this$ = ecx

; 1454 : 		}

  00000	c2 08 00	 ret	 8
?_Orphan_range@?$vector@UInventorySelectItem@@V?$allocator@UInventorySelectItem@@@std@@@std@@IBEXPAUInventorySelectItem@@0@Z ENDP ; std::vector<InventorySelectItem,std::allocator<InventorySelectItem> >::_Orphan_range
_TEXT	ENDS
PUBLIC	??1?$_Vector_val@UInventorySelectItem@@V?$allocator@UInventorySelectItem@@@std@@@std@@QAE@XZ ; std::_Vector_val<InventorySelectItem,std::allocator<InventorySelectItem> >::~_Vector_val<InventorySelectItem,std::allocator<InventorySelectItem> >
; Function compile flags: /Ogsp
;	COMDAT ??1?$_Vector_val@UInventorySelectItem@@V?$allocator@UInventorySelectItem@@@std@@@std@@QAE@XZ
_TEXT	SEGMENT
??1?$_Vector_val@UInventorySelectItem@@V?$allocator@UInventorySelectItem@@@std@@@std@@QAE@XZ PROC ; std::_Vector_val<InventorySelectItem,std::allocator<InventorySelectItem> >::~_Vector_val<InventorySelectItem,std::allocator<InventorySelectItem> >, COMDAT
; _this$ = ecx

; 434  : 		}

  00000	c3		 ret	 0
??1?$_Vector_val@UInventorySelectItem@@V?$allocator@UInventorySelectItem@@@std@@@std@@QAE@XZ ENDP ; std::_Vector_val<InventorySelectItem,std::allocator<InventorySelectItem> >::~_Vector_val<InventorySelectItem,std::allocator<InventorySelectItem> >
_TEXT	ENDS
PUBLIC	??0?$allocator@UInventorySelectItem@@@std@@QAE@XZ ; std::allocator<InventorySelectItem>::allocator<InventorySelectItem>
; Function compile flags: /Ogsp
; File c:\program files (x86)\microsoft visual studio 10.0\vc\include\xmemory
;	COMDAT ??0?$allocator@UInventorySelectItem@@@std@@QAE@XZ
_TEXT	SEGMENT
??0?$allocator@UInventorySelectItem@@@std@@QAE@XZ PROC	; std::allocator<InventorySelectItem>::allocator<InventorySelectItem>, COMDAT
; _this$ = ecx

; 161  : 	_ALLOCATOR() _THROW0()

  00000	8b c1		 mov	 eax, ecx

; 162  : 		{	// construct default allocator (do nothing)
; 163  : 		}

  00002	c3		 ret	 0
??0?$allocator@UInventorySelectItem@@@std@@QAE@XZ ENDP	; std::allocator<InventorySelectItem>::allocator<InventorySelectItem>
_TEXT	ENDS
PUBLIC	??0?$allocator@UInventorySelectItem@@@std@@QAE@ABV01@@Z ; std::allocator<InventorySelectItem>::allocator<InventorySelectItem>
; Function compile flags: /Ogsp
;	COMDAT ??0?$allocator@UInventorySelectItem@@@std@@QAE@ABV01@@Z
_TEXT	SEGMENT
___formal$ = 8						; size = 4
??0?$allocator@UInventorySelectItem@@@std@@QAE@ABV01@@Z PROC ; std::allocator<InventorySelectItem>::allocator<InventorySelectItem>, COMDAT
; _this$ = ecx

; 165  : 	_ALLOCATOR(const _ALLOCATOR<_Ty>&) _THROW0()

  00000	8b c1		 mov	 eax, ecx

; 166  : 		{	// construct by copying (do nothing)
; 167  : 		}

  00002	c2 04 00	 ret	 4
??0?$allocator@UInventorySelectItem@@@std@@QAE@ABV01@@Z ENDP ; std::allocator<InventorySelectItem>::allocator<InventorySelectItem>
_TEXT	ENDS
PUBLIC	?deallocate@?$allocator@UInventorySelectItem@@@std@@QAEXPAUInventorySelectItem@@I@Z ; std::allocator<InventorySelectItem>::deallocate
; Function compile flags: /Ogsp
;	COMDAT ?deallocate@?$allocator@UInventorySelectItem@@@std@@QAEXPAUInventorySelectItem@@I@Z
_TEXT	SEGMENT
__Ptr$ = 8						; size = 4
___formal$ = 12						; size = 4
?deallocate@?$allocator@UInventorySelectItem@@@std@@QAEXPAUInventorySelectItem@@I@Z PROC ; std::allocator<InventorySelectItem>::deallocate, COMDAT
; _this$ = ecx

; 181  : 		{	// deallocate object at _Ptr, ignore size

  00000	55		 push	 ebp
  00001	8b ec		 mov	 ebp, esp

; 182  : 		::operator delete(_Ptr);

  00003	ff 75 08	 push	 DWORD PTR __Ptr$[ebp]
  00006	e8 00 00 00 00	 call	 ??3@YAXPAX@Z		; operator delete
  0000b	59		 pop	 ecx

; 183  : 		}

  0000c	5d		 pop	 ebp
  0000d	c2 08 00	 ret	 8
?deallocate@?$allocator@UInventorySelectItem@@@std@@QAEXPAUInventorySelectItem@@I@Z ENDP ; std::allocator<InventorySelectItem>::deallocate
_TEXT	ENDS
PUBLIC	?_Adopt@_Iterator_base0@std@@QAEXPBX@Z		; std::_Iterator_base0::_Adopt
; Function compile flags: /Ogsp
; File c:\program files (x86)\microsoft visual studio 10.0\vc\include\xutility
;	COMDAT ?_Adopt@_Iterator_base0@std@@QAEXPBX@Z
_TEXT	SEGMENT
___formal$ = 8						; size = 4
?_Adopt@_Iterator_base0@std@@QAEXPBX@Z PROC		; std::_Iterator_base0::_Adopt, COMDAT
; _this$ = ecx

; 49   : 		}

  00000	c2 04 00	 ret	 4
?_Adopt@_Iterator_base0@std@@QAEXPBX@Z ENDP		; std::_Iterator_base0::_Adopt
_TEXT	ENDS
PUBLIC	??_C@_0BD@OLBABOEK@vector?$DMT?$DO?5too?5long?$AA@ ; `string'
PUBLIC	?_Xlen@?$vector@UInventorySelectItem@@V?$allocator@UInventorySelectItem@@@std@@@std@@IBEXXZ ; std::vector<InventorySelectItem,std::allocator<InventorySelectItem> >::_Xlen
EXTRN	__imp_?_Xlength_error@std@@YAXPBD@Z:PROC
;	COMDAT ??_C@_0BD@OLBABOEK@vector?$DMT?$DO?5too?5long?$AA@
; File c:\program files (x86)\microsoft visual studio 10.0\vc\include\vector
CONST	SEGMENT
??_C@_0BD@OLBABOEK@vector?$DMT?$DO?5too?5long?$AA@ DB 'vector<T> too long'
	DB	00H						; `string'
; Function compile flags: /Ogsp
CONST	ENDS
;	COMDAT ?_Xlen@?$vector@UInventorySelectItem@@V?$allocator@UInventorySelectItem@@@std@@@std@@IBEXXZ
_TEXT	SEGMENT
?_Xlen@?$vector@UInventorySelectItem@@V?$allocator@UInventorySelectItem@@@std@@@std@@IBEXXZ PROC ; std::vector<InventorySelectItem,std::allocator<InventorySelectItem> >::_Xlen, COMDAT
; _this$ = ecx

; 1427 : 		_Xlength_error("vector<T> too long");

  00000	68 00 00 00 00	 push	 OFFSET ??_C@_0BD@OLBABOEK@vector?$DMT?$DO?5too?5long?$AA@
  00005	ff 15 00 00 00
	00		 call	 DWORD PTR __imp_?_Xlength_error@std@@YAXPBD@Z
$LN4@Xlen:
$LN3@Xlen:
  0000b	cc		 int	 3
?_Xlen@?$vector@UInventorySelectItem@@V?$allocator@UInventorySelectItem@@@std@@@std@@IBEXXZ ENDP ; std::vector<InventorySelectItem,std::allocator<InventorySelectItem> >::_Xlen
_TEXT	ENDS
PUBLIC	??0?$_Vector_const_iterator@V?$_Vector_val@UInventorySelectItem@@V?$allocator@UInventorySelectItem@@@std@@@std@@@std@@QAE@PAUInventorySelectItem@@PBU_Container_base0@1@@Z ; std::_Vector_const_iterator<std::_Vector_val<InventorySelectItem,std::allocator<InventorySelectItem> > >::_Vector_const_iterator<std::_Vector_val<InventorySelectItem,std::allocator<InventorySelectItem> > >
; Function compile flags: /Ogsp
;	COMDAT ??0?$_Vector_const_iterator@V?$_Vector_val@UInventorySelectItem@@V?$allocator@UInventorySelectItem@@@std@@@std@@@std@@QAE@PAUInventorySelectItem@@PBU_Container_base0@1@@Z
_TEXT	SEGMENT
__Parg$ = 8						; size = 4
__Pvector$ = 12						; size = 4
??0?$_Vector_const_iterator@V?$_Vector_val@UInventorySelectItem@@V?$allocator@UInventorySelectItem@@@std@@@std@@@std@@QAE@PAUInventorySelectItem@@PBU_Container_base0@1@@Z PROC ; std::_Vector_const_iterator<std::_Vector_val<InventorySelectItem,std::allocator<InventorySelectItem> > >::_Vector_const_iterator<std::_Vector_val<InventorySelectItem,std::allocator<InventorySelectItem> > >, COMDAT
; _this$ = ecx

; 45   : 		{	// construct with pointer _Parg

  00000	55		 push	 ebp
  00001	8b ec		 mov	 ebp, esp
  00003	8b c1		 mov	 eax, ecx
  00005	8b 4d 08	 mov	 ecx, DWORD PTR __Parg$[ebp]
  00008	89 08		 mov	 DWORD PTR [eax], ecx

; 46   : 		this->_Adopt(_Pvector);
; 47   : 		}

  0000a	5d		 pop	 ebp
  0000b	c2 08 00	 ret	 8
??0?$_Vector_const_iterator@V?$_Vector_val@UInventorySelectItem@@V?$allocator@UInventorySelectItem@@@std@@@std@@@std@@QAE@PAUInventorySelectItem@@PBU_Container_base0@1@@Z ENDP ; std::_Vector_const_iterator<std::_Vector_val<InventorySelectItem,std::allocator<InventorySelectItem> > >::_Vector_const_iterator<std::_Vector_val<InventorySelectItem,std::allocator<InventorySelectItem> > >
_TEXT	ENDS
PUBLIC	??0?$_Vector_iterator@V?$_Vector_val@UInventorySelectItem@@V?$allocator@UInventorySelectItem@@@std@@@std@@@std@@QAE@PAUInventorySelectItem@@PBU_Container_base0@1@@Z ; std::_Vector_iterator<std::_Vector_val<InventorySelectItem,std::allocator<InventorySelectItem> > >::_Vector_iterator<std::_Vector_val<InventorySelectItem,std::allocator<InventorySelectItem> > >
; Function compile flags: /Ogsp
;	COMDAT ??0?$_Vector_iterator@V?$_Vector_val@UInventorySelectItem@@V?$allocator@UInventorySelectItem@@@std@@@std@@@std@@QAE@PAUInventorySelectItem@@PBU_Container_base0@1@@Z
_TEXT	SEGMENT
__Parg$ = 8						; size = 4
__Pvector$ = 12						; size = 4
??0?$_Vector_iterator@V?$_Vector_val@UInventorySelectItem@@V?$allocator@UInventorySelectItem@@@std@@@std@@@std@@QAE@PAUInventorySelectItem@@PBU_Container_base0@1@@Z PROC ; std::_Vector_iterator<std::_Vector_val<InventorySelectItem,std::allocator<InventorySelectItem> > >::_Vector_iterator<std::_Vector_val<InventorySelectItem,std::allocator<InventorySelectItem> > >, COMDAT
; _this$ = ecx

; 304  : 		{	// construct with pointer _Parg

  00000	55		 push	 ebp
  00001	8b ec		 mov	 ebp, esp
  00003	8b c1		 mov	 eax, ecx
  00005	8b 4d 08	 mov	 ecx, DWORD PTR __Parg$[ebp]
  00008	89 08		 mov	 DWORD PTR [eax], ecx

; 305  : 		}

  0000a	5d		 pop	 ebp
  0000b	c2 08 00	 ret	 8
??0?$_Vector_iterator@V?$_Vector_val@UInventorySelectItem@@V?$allocator@UInventorySelectItem@@@std@@@std@@@std@@QAE@PAUInventorySelectItem@@PBU_Container_base0@1@@Z ENDP ; std::_Vector_iterator<std::_Vector_val<InventorySelectItem,std::allocator<InventorySelectItem> > >::_Vector_iterator<std::_Vector_val<InventorySelectItem,std::allocator<InventorySelectItem> > >
_TEXT	ENDS
PUBLIC	?max_size@?$allocator@UInventorySelectItem@@@std@@QBEIXZ ; std::allocator<InventorySelectItem>::max_size
; Function compile flags: /Ogsp
; File c:\program files (x86)\microsoft visual studio 10.0\vc\include\xmemory
;	COMDAT ?max_size@?$allocator@UInventorySelectItem@@@std@@QBEIXZ
_TEXT	SEGMENT
?max_size@?$allocator@UInventorySelectItem@@@std@@QBEIXZ PROC ; std::allocator<InventorySelectItem>::max_size, COMDAT
; _this$ = ecx

; 218  : 		_SIZT _Count = (_SIZT)(-1) / sizeof (_Ty);
; 219  : 		return (0 < _Count ? _Count : 1);

  00000	b8 c3 30 0c 03	 mov	 eax, 51130563		; 030c30c3H

; 220  : 		}

  00005	c3		 ret	 0
?max_size@?$allocator@UInventorySelectItem@@@std@@QBEIXZ ENDP ; std::allocator<InventorySelectItem>::max_size
_TEXT	ENDS
PUBLIC	?_Compat@?$_Vector_const_iterator@V?$_Vector_val@UInventorySelectItem@@V?$allocator@UInventorySelectItem@@@std@@@std@@@std@@QBEXABV12@@Z ; std::_Vector_const_iterator<std::_Vector_val<InventorySelectItem,std::allocator<InventorySelectItem> > >::_Compat
; Function compile flags: /Ogsp
; File c:\program files (x86)\microsoft visual studio 10.0\vc\include\vector
;	COMDAT ?_Compat@?$_Vector_const_iterator@V?$_Vector_val@UInventorySelectItem@@V?$allocator@UInventorySelectItem@@@std@@@std@@@std@@QBEXABV12@@Z
_TEXT	SEGMENT
___formal$ = 8						; size = 4
?_Compat@?$_Vector_const_iterator@V?$_Vector_val@UInventorySelectItem@@V?$allocator@UInventorySelectItem@@@std@@@std@@@std@@QBEXABV12@@Z PROC ; std::_Vector_const_iterator<std::_Vector_val<InventorySelectItem,std::allocator<InventorySelectItem> > >::_Compat, COMDAT
; _this$ = ecx

; 253  : 		}

  00000	c2 04 00	 ret	 4
?_Compat@?$_Vector_const_iterator@V?$_Vector_val@UInventorySelectItem@@V?$allocator@UInventorySelectItem@@@std@@@std@@@std@@QBEXABV12@@Z ENDP ; std::_Vector_const_iterator<std::_Vector_val<InventorySelectItem,std::allocator<InventorySelectItem> > >::_Compat
_TEXT	ENDS
PUBLIC	??$addressof@$$CBUInventorySelectItem@@@std@@YAPBUInventorySelectItem@@ABU1@@Z ; std::addressof<InventorySelectItem const >
; Function compile flags: /Ogsp
; File c:\program files (x86)\microsoft visual studio 10.0\vc\include\xmemory
;	COMDAT ??$addressof@$$CBUInventorySelectItem@@@std@@YAPBUInventorySelectItem@@ABU1@@Z
_TEXT	SEGMENT
__Val$ = 8						; size = 4
??$addressof@$$CBUInventorySelectItem@@@std@@YAPBUInventorySelectItem@@ABU1@@Z PROC ; std::addressof<InventorySelectItem const >, COMDAT

; 110  : 	{	// return address of _Val

  00000	55		 push	 ebp
  00001	8b ec		 mov	 ebp, esp

; 111  : 	return ((_Ty *) &(char&)_Val);

  00003	8b 45 08	 mov	 eax, DWORD PTR __Val$[ebp]

; 112  : 	}

  00006	5d		 pop	 ebp
  00007	c3		 ret	 0
??$addressof@$$CBUInventorySelectItem@@@std@@YAPBUInventorySelectItem@@ABU1@@Z ENDP ; std::addressof<InventorySelectItem const >
_TEXT	ENDS
PUBLIC	__TI2?AVbad_alloc@std@@
PUBLIC	??$_Allocate@UInventorySelectItem@@@std@@YAPAUInventorySelectItem@@IPAU1@@Z ; std::_Allocate<InventorySelectItem>
PUBLIC	__CTA2?AVbad_alloc@std@@
PUBLIC	__CT??_R0?AVbad_alloc@std@@@8??0bad_alloc@std@@QAE@ABV01@@Z12
PUBLIC	??0bad_alloc@std@@QAE@ABV01@@Z			; std::bad_alloc::bad_alloc
PUBLIC	__CT??_R0?AVexception@std@@@8??0exception@std@@QAE@ABV01@@Z12
EXTRN	??2@YAPAXI@Z:PROC				; operator new
EXTRN	__CxxThrowException@8:PROC
EXTRN	??0exception@std@@QAE@ABV01@@Z:PROC		; std::exception::exception
;	COMDAT __CT??_R0?AVexception@std@@@8??0exception@std@@QAE@ABV01@@Z12
; File c:\program files (x86)\microsoft visual studio 10.0\vc\include\exception
xdata$x	SEGMENT
__CT??_R0?AVexception@std@@@8??0exception@std@@QAE@ABV01@@Z12 DD 00H
	DD	FLAT:??_R0?AVexception@std@@@8
	DD	00H
	DD	0ffffffffH
	ORG $+4
	DD	0cH
	DD	FLAT:??0exception@std@@QAE@ABV01@@Z
xdata$x	ENDS
;	COMDAT __CT??_R0?AVbad_alloc@std@@@8??0bad_alloc@std@@QAE@ABV01@@Z12
xdata$x	SEGMENT
__CT??_R0?AVbad_alloc@std@@@8??0bad_alloc@std@@QAE@ABV01@@Z12 DD 00H
	DD	FLAT:??_R0?AVbad_alloc@std@@@8
	DD	00H
	DD	0ffffffffH
	ORG $+4
	DD	0cH
	DD	FLAT:??0bad_alloc@std@@QAE@ABV01@@Z
xdata$x	ENDS
;	COMDAT __CTA2?AVbad_alloc@std@@
xdata$x	SEGMENT
__CTA2?AVbad_alloc@std@@ DD 02H
	DD	FLAT:__CT??_R0?AVbad_alloc@std@@@8??0bad_alloc@std@@QAE@ABV01@@Z12
	DD	FLAT:__CT??_R0?AVexception@std@@@8??0exception@std@@QAE@ABV01@@Z12
xdata$x	ENDS
;	COMDAT __TI2?AVbad_alloc@std@@
xdata$x	SEGMENT
__TI2?AVbad_alloc@std@@ DD 00H
	DD	FLAT:??1bad_alloc@std@@UAE@XZ
	DD	00H
	DD	FLAT:__CTA2?AVbad_alloc@std@@
; Function compile flags: /Ogsp
; File c:\program files (x86)\microsoft visual studio 10.0\vc\include\xmemory
xdata$x	ENDS
;	COMDAT ??$_Allocate@UInventorySelectItem@@@std@@YAPAUInventorySelectItem@@IPAU1@@Z
_TEXT	SEGMENT
$T508471 = -12						; size = 12
$T508476 = 8						; size = 4
__Count$ = 8						; size = 4
___formal$ = 12						; size = 4
??$_Allocate@UInventorySelectItem@@@std@@YAPAUInventorySelectItem@@IPAU1@@Z PROC ; std::_Allocate<InventorySelectItem>, COMDAT

; 30   : 	{	// allocate storage for _Count elements of type _Ty

  00000	55		 push	 ebp
  00001	8b ec		 mov	 ebp, esp

; 31   : 	void *_Ptr = 0;
; 32   : 
; 33   : 	if (_Count <= 0)

  00003	8b 4d 08	 mov	 ecx, DWORD PTR __Count$[ebp]
  00006	83 ec 0c	 sub	 esp, 12			; 0000000cH
  00009	33 c0		 xor	 eax, eax
  0000b	85 c9		 test	 ecx, ecx

; 34   : 		_Count = 0;
; 35   : 	else if (((_SIZT)(-1) / sizeof (_Ty) < _Count)

  0000d	74 3c		 je	 SHORT $LN5@Allocate

; 36   : 		|| (_Ptr = ::operator new(_Count * sizeof (_Ty))) == 0)

  0000f	81 f9 c3 30 0c
	03		 cmp	 ecx, 51130563		; 030c30c3H
  00015	77 0e		 ja	 SHORT $LN1@Allocate
  00017	6b c9 54	 imul	 ecx, 84			; 00000054H
  0001a	51		 push	 ecx
  0001b	e8 00 00 00 00	 call	 ??2@YAPAXI@Z		; operator new
  00020	59		 pop	 ecx
  00021	85 c0		 test	 eax, eax

; 38   : 
; 39   : 	return ((_Ty _FARQ *)_Ptr);

  00023	75 26		 jne	 SHORT $LN5@Allocate
$LN1@Allocate:

; 37   : 		_THROW_NCEE(bad_alloc, 0);

  00025	83 65 08 00	 and	 DWORD PTR $T508476[ebp], 0
  00029	8d 45 08	 lea	 eax, DWORD PTR $T508476[ebp]
  0002c	50		 push	 eax
  0002d	8d 4d f4	 lea	 ecx, DWORD PTR $T508471[ebp]
  00030	ff 15 00 00 00
	00		 call	 DWORD PTR __imp_??0exception@std@@QAE@ABQBD@Z
  00036	68 00 00 00 00	 push	 OFFSET __TI2?AVbad_alloc@std@@
  0003b	8d 45 f4	 lea	 eax, DWORD PTR $T508471[ebp]
  0003e	50		 push	 eax
  0003f	c7 45 f4 00 00
	00 00		 mov	 DWORD PTR $T508471[ebp], OFFSET ??_7bad_alloc@std@@6B@
  00046	e8 00 00 00 00	 call	 __CxxThrowException@8
$LN10@Allocate:
$LN5@Allocate:

; 40   : 	}

  0004b	c9		 leave
  0004c	c3		 ret	 0
$LN9@Allocate:
??$_Allocate@UInventorySelectItem@@@std@@YAPAUInventorySelectItem@@IPAU1@@Z ENDP ; std::_Allocate<InventorySelectItem>
_TEXT	ENDS
PUBLIC	??$_Ptr_cat@UInventorySelectItem@@U1@@std@@YA?AU_Nonscalar_ptr_iterator_tag@0@PAUInventorySelectItem@@0@Z ; std::_Ptr_cat<InventorySelectItem,InventorySelectItem>
; Function compile flags: /Ogsp
; File c:\program files (x86)\microsoft visual studio 10.0\vc\include\xutility
;	COMDAT ??$_Ptr_cat@UInventorySelectItem@@U1@@std@@YA?AU_Nonscalar_ptr_iterator_tag@0@PAUInventorySelectItem@@0@Z
_TEXT	SEGMENT
__Cat$ = -1						; size = 1
___formal$ = 8						; size = 4
___formal$ = 12						; size = 4
??$_Ptr_cat@UInventorySelectItem@@U1@@std@@YA?AU_Nonscalar_ptr_iterator_tag@0@PAUInventorySelectItem@@0@Z PROC ; std::_Ptr_cat<InventorySelectItem,InventorySelectItem>, COMDAT

; 516  : 	{	// return pointer category from pointers

  00000	55		 push	 ebp
  00001	8b ec		 mov	 ebp, esp
  00003	51		 push	 ecx

; 517  : 	typename _Ptr_cat_helper<_Elem1, _Elem2>::_Type _Cat;
; 518  : 	return (_Cat);

  00004	8a 45 ff	 mov	 al, BYTE PTR __Cat$[ebp]

; 519  : 	}

  00007	c9		 leave
  00008	c3		 ret	 0
??$_Ptr_cat@UInventorySelectItem@@U1@@std@@YA?AU_Nonscalar_ptr_iterator_tag@0@PAUInventorySelectItem@@0@Z ENDP ; std::_Ptr_cat<InventorySelectItem,InventorySelectItem>
_TEXT	ENDS
PUBLIC	??$_Copy_impl@PAUInventorySelectItem@@PAU1@@std@@YAPAUInventorySelectItem@@PAU1@00U_Nonscalar_ptr_iterator_tag@0@@Z ; std::_Copy_impl<InventorySelectItem *,InventorySelectItem *>
; Function compile flags: /Ogsp
;	COMDAT ??$_Copy_impl@PAUInventorySelectItem@@PAU1@@std@@YAPAUInventorySelectItem@@PAU1@00U_Nonscalar_ptr_iterator_tag@0@@Z
_TEXT	SEGMENT
__First$ = 8						; size = 4
__Last$ = 12						; size = 4
__Dest$ = 16						; size = 4
___formal$ = 20						; size = 1
??$_Copy_impl@PAUInventorySelectItem@@PAU1@@std@@YAPAUInventorySelectItem@@PAU1@00U_Nonscalar_ptr_iterator_tag@0@@Z PROC ; std::_Copy_impl<InventorySelectItem *,InventorySelectItem *>, COMDAT

; 2142 : 	{	// copy [_First, _Last) to [_Dest, ...), arbitrary iterators

  00000	55		 push	 ebp
  00001	8b ec		 mov	 ebp, esp
  00003	56		 push	 esi

; 2143 : 	for (; _First != _Last; ++_Dest, ++_First)

  00004	8b 75 08	 mov	 esi, DWORD PTR __First$[ebp]
  00007	eb 10		 jmp	 SHORT $LN9@Copy_impl
$LL3@Copy_impl:

; 2144 : 		*_Dest = *_First;

  00009	8b 4d 10	 mov	 ecx, DWORD PTR __Dest$[ebp]
  0000c	56		 push	 esi
  0000d	e8 00 00 00 00	 call	 ??4InventorySelectItem@@QAEAAU0@ABU0@@Z
  00012	83 45 10 54	 add	 DWORD PTR __Dest$[ebp], 84 ; 00000054H
  00016	83 c6 54	 add	 esi, 84			; 00000054H
$LN9@Copy_impl:

; 2143 : 	for (; _First != _Last; ++_Dest, ++_First)

  00019	3b 75 0c	 cmp	 esi, DWORD PTR __Last$[ebp]
  0001c	75 eb		 jne	 SHORT $LL3@Copy_impl

; 2145 : 	return (_Dest);

  0001e	8b 45 10	 mov	 eax, DWORD PTR __Dest$[ebp]
  00021	5e		 pop	 esi

; 2146 : 	}

  00022	5d		 pop	 ebp
  00023	c3		 ret	 0
??$_Copy_impl@PAUInventorySelectItem@@PAU1@@std@@YAPAUInventorySelectItem@@PAU1@00U_Nonscalar_ptr_iterator_tag@0@@Z ENDP ; std::_Copy_impl<InventorySelectItem *,InventorySelectItem *>
_TEXT	ENDS
PUBLIC	??$forward@AAUInventorySelectItem@@@std@@YAAAUInventorySelectItem@@AAU1@@Z ; std::forward<InventorySelectItem &>
; Function compile flags: /Ogsp
; File c:\program files (x86)\microsoft visual studio 10.0\vc\include\utility
;	COMDAT ??$forward@AAUInventorySelectItem@@@std@@YAAAUInventorySelectItem@@AAU1@@Z
_TEXT	SEGMENT
__Arg$ = 8						; size = 4
??$forward@AAUInventorySelectItem@@@std@@YAAAUInventorySelectItem@@AAU1@@Z PROC ; std::forward<InventorySelectItem &>, COMDAT

; 78   : 	{	// forward _Arg, given explicitly specified type parameter

  00000	55		 push	 ebp
  00001	8b ec		 mov	 ebp, esp

; 79   : 	return ((_Ty&&)_Arg);

  00003	8b 45 08	 mov	 eax, DWORD PTR __Arg$[ebp]

; 80   : 	}

  00006	5d		 pop	 ebp
  00007	c3		 ret	 0
??$forward@AAUInventorySelectItem@@@std@@YAAAUInventorySelectItem@@AAU1@@Z ENDP ; std::forward<InventorySelectItem &>
_TEXT	ENDS
PUBLIC	??$forward@ABUInventorySelectItem@@@std@@YAABUInventorySelectItem@@ABU1@@Z ; std::forward<InventorySelectItem const &>
; Function compile flags: /Ogsp
;	COMDAT ??$forward@ABUInventorySelectItem@@@std@@YAABUInventorySelectItem@@ABU1@@Z
_TEXT	SEGMENT
__Arg$ = 8						; size = 4
??$forward@ABUInventorySelectItem@@@std@@YAABUInventorySelectItem@@ABU1@@Z PROC ; std::forward<InventorySelectItem const &>, COMDAT

; 78   : 	{	// forward _Arg, given explicitly specified type parameter

  00000	55		 push	 ebp
  00001	8b ec		 mov	 ebp, esp

; 79   : 	return ((_Ty&&)_Arg);

  00003	8b 45 08	 mov	 eax, DWORD PTR __Arg$[ebp]

; 80   : 	}

  00006	5d		 pop	 ebp
  00007	c3		 ret	 0
??$forward@ABUInventorySelectItem@@@std@@YAABUInventorySelectItem@@ABU1@@Z ENDP ; std::forward<InventorySelectItem const &>
_TEXT	ENDS
PUBLIC	??0InventorySelectItem@@QAE@ABU0@@Z		; InventorySelectItem::InventorySelectItem
EXTRN	__imp_??0ioHashString@@QAE@ABV0@@Z:PROC
;	COMDAT xdata$x
xdata$x	SEGMENT
__unwindtable$??0InventorySelectItem@@QAE@ABU0@@Z DD 0ffffffffH
	DD	FLAT:__unwindfunclet$??0InventorySelectItem@@QAE@ABU0@@Z$0
	DD	00H
	DD	FLAT:__unwindfunclet$??0InventorySelectItem@@QAE@ABU0@@Z$1
	DD	01H
	DD	FLAT:__unwindfunclet$??0InventorySelectItem@@QAE@ABU0@@Z$2
__ehfuncinfo$??0InventorySelectItem@@QAE@ABU0@@Z DD 019930522H
	DD	03H
	DD	FLAT:__unwindtable$??0InventorySelectItem@@QAE@ABU0@@Z
	DD	2 DUP(00H)
	DD	2 DUP(00H)
	DD	00H
	DD	01H
; Function compile flags: /Ogsp
xdata$x	ENDS
;	COMDAT ??0InventorySelectItem@@QAE@ABU0@@Z
_TEXT	SEGMENT
_this$ = -16						; size = 4
__$EHRec$ = -12						; size = 12
___that$ = 8						; size = 4
??0InventorySelectItem@@QAE@ABU0@@Z PROC		; InventorySelectItem::InventorySelectItem, COMDAT
; _this$ = ecx
  00000	6a 04		 push	 4
  00002	b8 00 00 00 00	 mov	 eax, __ehhandler$??0InventorySelectItem@@QAE@ABU0@@Z
  00007	e8 00 00 00 00	 call	 __EH_prolog3
  0000c	8b f1		 mov	 esi, ecx
  0000e	89 75 f0	 mov	 DWORD PTR _this$[ebp], esi
  00011	8b 7d 08	 mov	 edi, DWORD PTR ___that$[ebp]
  00014	8b 07		 mov	 eax, DWORD PTR [edi]
  00016	8b 1d 00 00 00
	00		 mov	 ebx, DWORD PTR __imp_??0ioHashString@@QAE@ABV0@@Z
  0001c	89 06		 mov	 DWORD PTR [esi], eax
  0001e	8b 47 04	 mov	 eax, DWORD PTR [edi+4]
  00021	89 46 04	 mov	 DWORD PTR [esi+4], eax
  00024	8b 47 08	 mov	 eax, DWORD PTR [edi+8]
  00027	89 46 08	 mov	 DWORD PTR [esi+8], eax
  0002a	8d 47 0c	 lea	 eax, DWORD PTR [edi+12]
  0002d	50		 push	 eax
  0002e	8d 4e 0c	 lea	 ecx, DWORD PTR [esi+12]
  00031	ff d3		 call	 ebx
  00033	83 65 fc 00	 and	 DWORD PTR __$EHRec$[ebp+8], 0
  00037	8d 47 1c	 lea	 eax, DWORD PTR [edi+28]
  0003a	50		 push	 eax
  0003b	8d 4e 1c	 lea	 ecx, DWORD PTR [esi+28]
  0003e	ff d3		 call	 ebx
  00040	8d 47 2c	 lea	 eax, DWORD PTR [edi+44]
  00043	50		 push	 eax
  00044	8d 4e 2c	 lea	 ecx, DWORD PTR [esi+44]
  00047	c6 45 fc 01	 mov	 BYTE PTR __$EHRec$[ebp+8], 1
  0004b	ff d3		 call	 ebx
  0004d	8b 47 3c	 mov	 eax, DWORD PTR [edi+60]
  00050	89 46 3c	 mov	 DWORD PTR [esi+60], eax
  00053	8d 47 40	 lea	 eax, DWORD PTR [edi+64]
  00056	50		 push	 eax
  00057	8d 4e 40	 lea	 ecx, DWORD PTR [esi+64]
  0005a	c6 45 fc 02	 mov	 BYTE PTR __$EHRec$[ebp+8], 2
  0005e	ff d3		 call	 ebx
  00060	8b 47 50	 mov	 eax, DWORD PTR [edi+80]
  00063	89 46 50	 mov	 DWORD PTR [esi+80], eax
  00066	8b c6		 mov	 eax, esi
  00068	e8 00 00 00 00	 call	 __EH_epilog3
  0006d	c2 04 00	 ret	 4
_TEXT	ENDS
;	COMDAT text$x
text$x	SEGMENT
__unwindfunclet$??0InventorySelectItem@@QAE@ABU0@@Z$0:
  00000	8b 4d f0	 mov	 ecx, DWORD PTR _this$[ebp]
  00003	83 c1 0c	 add	 ecx, 12			; 0000000cH
  00006	ff 25 00 00 00
	00		 jmp	 DWORD PTR __imp_??1ioHashString@@QAE@XZ
__unwindfunclet$??0InventorySelectItem@@QAE@ABU0@@Z$1:
  0000c	8b 4d f0	 mov	 ecx, DWORD PTR _this$[ebp]
  0000f	83 c1 1c	 add	 ecx, 28			; 0000001cH
  00012	ff 25 00 00 00
	00		 jmp	 DWORD PTR __imp_??1ioHashString@@QAE@XZ
__unwindfunclet$??0InventorySelectItem@@QAE@ABU0@@Z$2:
  00018	8b 4d f0	 mov	 ecx, DWORD PTR _this$[ebp]
  0001b	83 c1 2c	 add	 ecx, 44			; 0000002cH
  0001e	ff 25 00 00 00
	00		 jmp	 DWORD PTR __imp_??1ioHashString@@QAE@XZ
__ehhandler$??0InventorySelectItem@@QAE@ABU0@@Z:
  00024	8b 54 24 08	 mov	 edx, DWORD PTR [esp+8]
  00028	8d 42 0c	 lea	 eax, DWORD PTR [edx+12]
  0002b	8b 4a ec	 mov	 ecx, DWORD PTR [edx-20]
  0002e	33 c8		 xor	 ecx, eax
  00030	e8 00 00 00 00	 call	 @__security_check_cookie@4
  00035	b8 00 00 00 00	 mov	 eax, OFFSET __ehfuncinfo$??0InventorySelectItem@@QAE@ABU0@@Z
  0003a	e9 00 00 00 00	 jmp	 ___CxxFrameHandler3
text$x	ENDS
??0InventorySelectItem@@QAE@ABU0@@Z ENDP		; InventorySelectItem::InventorySelectItem
PUBLIC	?_Unchecked@?$_String_iterator@DU?$char_traits@D@std@@V?$allocator@D@2@@std@@QBEPADXZ ; std::_String_iterator<char,std::char_traits<char>,std::allocator<char> >::_Unchecked
; Function compile flags: /Ogsp
; File c:\program files (x86)\microsoft visual studio 10.0\vc\include\xstring
;	COMDAT ?_Unchecked@?$_String_iterator@DU?$char_traits@D@std@@V?$allocator@D@2@@std@@QBEPADXZ
_TEXT	SEGMENT
?_Unchecked@?$_String_iterator@DU?$char_traits@D@std@@V?$allocator@D@2@@std@@QBEPADXZ PROC ; std::_String_iterator<char,std::char_traits<char>,std::allocator<char> >::_Unchecked, COMDAT
; _this$ = ecx

; 338  : 		return (_Unchecked_type(this->_Ptr));

  00000	8b 01		 mov	 eax, DWORD PTR [ecx]

; 339  : 		}

  00002	c3		 ret	 0
?_Unchecked@?$_String_iterator@DU?$char_traits@D@std@@V?$allocator@D@2@@std@@QBEPADXZ ENDP ; std::_String_iterator<char,std::char_traits<char>,std::allocator<char> >::_Unchecked
_TEXT	ENDS
PUBLIC	??$_Ptr_cat@V?$_Vector_const_iterator@V?$_Vector_val@UInventorySelectItem@@V?$allocator@UInventorySelectItem@@@std@@@std@@@std@@PAUInventorySelectItem@@@std@@YA?AU_Nonscalar_ptr_iterator_tag@0@AAV?$_Vector_const_iterator@V?$_Vector_val@UInventorySelectItem@@V?$allocator@UInventorySelectItem@@@std@@@std@@@0@AAPAUInventorySelectItem@@@Z ; std::_Ptr_cat<std::_Vector_const_iterator<std::_Vector_val<InventorySelectItem,std::allocator<InventorySelectItem> > >,InventorySelectItem *>
; Function compile flags: /Ogsp
; File c:\program files (x86)\microsoft visual studio 10.0\vc\include\xutility
;	COMDAT ??$_Ptr_cat@V?$_Vector_const_iterator@V?$_Vector_val@UInventorySelectItem@@V?$allocator@UInventorySelectItem@@@std@@@std@@@std@@PAUInventorySelectItem@@@std@@YA?AU_Nonscalar_ptr_iterator_tag@0@AAV?$_Vector_const_iterator@V?$_Vector_val@UInventorySelectItem@@V?$allocator@UInventorySelectItem@@@std@@@std@@@0@AAPAUInventorySelectItem@@@Z
_TEXT	SEGMENT
__Cat$ = -1						; size = 1
___formal$ = 8						; size = 4
___formal$ = 12						; size = 4
??$_Ptr_cat@V?$_Vector_const_iterator@V?$_Vector_val@UInventorySelectItem@@V?$allocator@UInventorySelectItem@@@std@@@std@@@std@@PAUInventorySelectItem@@@std@@YA?AU_Nonscalar_ptr_iterator_tag@0@AAV?$_Vector_const_iterator@V?$_Vector_val@UInventorySelectItem@@V?$allocator@UInventorySelectItem@@@std@@@std@@@0@AAPAUInventorySelectItem@@@Z PROC ; std::_Ptr_cat<std::_Vector_const_iterator<std::_Vector_val<InventorySelectItem,std::allocator<InventorySelectItem> > >,InventorySelectItem *>, COMDAT

; 485  : 	{	// return pointer category from arbitrary arguments

  00000	55		 push	 ebp
  00001	8b ec		 mov	 ebp, esp
  00003	51		 push	 ecx

; 486  : 	_Nonscalar_ptr_iterator_tag _Cat;
; 487  : 	return (_Cat);

  00004	8a 45 ff	 mov	 al, BYTE PTR __Cat$[ebp]

; 488  : 	}

  00007	c9		 leave
  00008	c3		 ret	 0
??$_Ptr_cat@V?$_Vector_const_iterator@V?$_Vector_val@UInventorySelectItem@@V?$allocator@UInventorySelectItem@@@std@@@std@@@std@@PAUInventorySelectItem@@@std@@YA?AU_Nonscalar_ptr_iterator_tag@0@AAV?$_Vector_const_iterator@V?$_Vector_val@UInventorySelectItem@@V?$allocator@UInventorySelectItem@@@std@@@std@@@0@AAPAUInventorySelectItem@@@Z ENDP ; std::_Ptr_cat<std::_Vector_const_iterator<std::_Vector_val<InventorySelectItem,std::allocator<InventorySelectItem> > >,InventorySelectItem *>
_TEXT	ENDS
PUBLIC	??$move@AAUInventorySelectItem@@@std@@YA$$QAUInventorySelectItem@@AAU1@@Z ; std::move<InventorySelectItem &>
; Function compile flags: /Ogsp
; File c:\program files (x86)\microsoft visual studio 10.0\vc\include\utility
;	COMDAT ??$move@AAUInventorySelectItem@@@std@@YA$$QAUInventorySelectItem@@AAU1@@Z
_TEXT	SEGMENT
__Arg$ = 8						; size = 4
??$move@AAUInventorySelectItem@@@std@@YA$$QAUInventorySelectItem@@AAU1@@Z PROC ; std::move<InventorySelectItem &>, COMDAT

; 86   : 	{	// forward _Arg as movable

  00000	55		 push	 ebp
  00001	8b ec		 mov	 ebp, esp

; 87   : 	return ((typename tr1::_Remove_reference<_Ty>::_Type&&)_Arg);

  00003	8b 45 08	 mov	 eax, DWORD PTR __Arg$[ebp]

; 88   : 	}

  00006	5d		 pop	 ebp
  00007	c3		 ret	 0
??$move@AAUInventorySelectItem@@@std@@YA$$QAUInventorySelectItem@@AAU1@@Z ENDP ; std::move<InventorySelectItem &>
_TEXT	ENDS
PUBLIC	??$_Val_type@PAUInventorySelectItem@@@std@@YAPAUInventorySelectItem@@PAU1@@Z ; std::_Val_type<InventorySelectItem *>
; Function compile flags: /Ogsp
; File c:\program files (x86)\microsoft visual studio 10.0\vc\include\xutility
;	COMDAT ??$_Val_type@PAUInventorySelectItem@@@std@@YAPAUInventorySelectItem@@PAU1@@Z
_TEXT	SEGMENT
___formal$ = 8						; size = 4
??$_Val_type@PAUInventorySelectItem@@@std@@YAPAUInventorySelectItem@@PAU1@@Z PROC ; std::_Val_type<InventorySelectItem *>, COMDAT

; 790  : 	return (0);

  00000	33 c0		 xor	 eax, eax

; 791  : 	}

  00002	c3		 ret	 0
??$_Val_type@PAUInventorySelectItem@@@std@@YAPAUInventorySelectItem@@PAU1@@Z ENDP ; std::_Val_type<InventorySelectItem *>
_TEXT	ENDS
PUBLIC	??D?$_Vector_const_iterator@V?$_Vector_val@UInventorySelectItem@@V?$allocator@UInventorySelectItem@@@std@@@std@@@std@@QBEABUInventorySelectItem@@XZ ; std::_Vector_const_iterator<std::_Vector_val<InventorySelectItem,std::allocator<InventorySelectItem> > >::operator*
; Function compile flags: /Ogsp
; File c:\program files (x86)\microsoft visual studio 10.0\vc\include\vector
;	COMDAT ??D?$_Vector_const_iterator@V?$_Vector_val@UInventorySelectItem@@V?$allocator@UInventorySelectItem@@@std@@@std@@@std@@QBEABUInventorySelectItem@@XZ
_TEXT	SEGMENT
??D?$_Vector_const_iterator@V?$_Vector_val@UInventorySelectItem@@V?$allocator@UInventorySelectItem@@@std@@@std@@@std@@QBEABUInventorySelectItem@@XZ PROC ; std::_Vector_const_iterator<std::_Vector_val<InventorySelectItem,std::allocator<InventorySelectItem> > >::operator*, COMDAT
; _this$ = ecx

; 64   :  #if _ITERATOR_DEBUG_LEVEL == 2
; 65   : 		if (this->_Getcont() == 0
; 66   : 			|| this->_Ptr == 0
; 67   : 			|| this->_Ptr < ((_Myvec *)this->_Getcont())->_Myfirst
; 68   : 			|| ((_Myvec *)this->_Getcont())->_Mylast <= this->_Ptr)
; 69   : 			{	// report error
; 70   : 			_DEBUG_ERROR("vector iterator not dereferencable");
; 71   : 			_SCL_SECURE_OUT_OF_RANGE;
; 72   : 			}
; 73   : 
; 74   :  #elif _ITERATOR_DEBUG_LEVEL == 1
; 75   : 		_SCL_SECURE_VALIDATE(this->_Getcont() != 0);
; 76   : 		_SCL_SECURE_VALIDATE_RANGE(
; 77   : 			this->_Ptr != 0
; 78   : 			&& ((_Myvec *)this->_Getcont())->_Myfirst <= this->_Ptr
; 79   : 			&& this->_Ptr < ((_Myvec *)this->_Getcont())->_Mylast);
; 80   :  #endif /* _ITERATOR_DEBUG_LEVEL */
; 81   : 
; 82   : 		__analysis_assume(this->_Ptr != 0);
; 83   : 
; 84   : 		return (*this->_Ptr);

  00000	8b 01		 mov	 eax, DWORD PTR [ecx]

; 85   : 		}

  00002	c3		 ret	 0
??D?$_Vector_const_iterator@V?$_Vector_val@UInventorySelectItem@@V?$allocator@UInventorySelectItem@@@std@@@std@@@std@@QBEABUInventorySelectItem@@XZ ENDP ; std::_Vector_const_iterator<std::_Vector_val<InventorySelectItem,std::allocator<InventorySelectItem> > >::operator*
_TEXT	ENDS
PUBLIC	??E?$_Vector_const_iterator@V?$_Vector_val@UInventorySelectItem@@V?$allocator@UInventorySelectItem@@@std@@@std@@@std@@QAEAAV01@XZ ; std::_Vector_const_iterator<std::_Vector_val<InventorySelectItem,std::allocator<InventorySelectItem> > >::operator++
; Function compile flags: /Ogsp
;	COMDAT ??E?$_Vector_const_iterator@V?$_Vector_val@UInventorySelectItem@@V?$allocator@UInventorySelectItem@@@std@@@std@@@std@@QAEAAV01@XZ
_TEXT	SEGMENT
??E?$_Vector_const_iterator@V?$_Vector_val@UInventorySelectItem@@V?$allocator@UInventorySelectItem@@@std@@@std@@@std@@QAEAAV01@XZ PROC ; std::_Vector_const_iterator<std::_Vector_val<InventorySelectItem,std::allocator<InventorySelectItem> > >::operator++, COMDAT
; _this$ = ecx

; 93   : 		{	// preincrement

  00000	8b c1		 mov	 eax, ecx

; 94   :  #if _ITERATOR_DEBUG_LEVEL == 2
; 95   : 		if (this->_Getcont() == 0
; 96   : 			|| this->_Ptr == 0
; 97   : 			|| ((_Myvec *)this->_Getcont())->_Mylast <= this->_Ptr)
; 98   : 			{	// report error
; 99   : 			_DEBUG_ERROR("vector iterator not incrementable");
; 100  : 			_SCL_SECURE_OUT_OF_RANGE;
; 101  : 			}
; 102  : 
; 103  :  #elif _ITERATOR_DEBUG_LEVEL == 1
; 104  : 		_SCL_SECURE_VALIDATE(this->_Getcont() != 0);
; 105  : 		_SCL_SECURE_VALIDATE_RANGE(
; 106  : 			this->_Ptr != 0
; 107  : 			&& this->_Ptr < ((_Myvec *)this->_Getcont())->_Mylast);
; 108  :  #endif /* _ITERATOR_DEBUG_LEVEL */
; 109  : 
; 110  : 		++this->_Ptr;

  00002	83 00 54	 add	 DWORD PTR [eax], 84	; 00000054H

; 111  : 		return (*this);
; 112  : 		}

  00005	c3		 ret	 0
??E?$_Vector_const_iterator@V?$_Vector_val@UInventorySelectItem@@V?$allocator@UInventorySelectItem@@@std@@@std@@@std@@QAEAAV01@XZ ENDP ; std::_Vector_const_iterator<std::_Vector_val<InventorySelectItem,std::allocator<InventorySelectItem> > >::operator++
_TEXT	ENDS
PUBLIC	??_GInventorySelectItem@@QAEPAXI@Z		; InventorySelectItem::`scalar deleting destructor'
; Function compile flags: /Ogsp
;	COMDAT ??_GInventorySelectItem@@QAEPAXI@Z
_TEXT	SEGMENT
___flags$ = 8						; size = 4
??_GInventorySelectItem@@QAEPAXI@Z PROC			; InventorySelectItem::`scalar deleting destructor', COMDAT
; _this$ = ecx
  00000	55		 push	 ebp
  00001	8b ec		 mov	 ebp, esp
  00003	56		 push	 esi
  00004	8b f1		 mov	 esi, ecx
  00006	e8 00 00 00 00	 call	 ??1InventorySelectItem@@QAE@XZ
  0000b	f6 45 08 01	 test	 BYTE PTR ___flags$[ebp], 1
  0000f	74 07		 je	 SHORT $LN1@scalar@2
  00011	56		 push	 esi
  00012	e8 00 00 00 00	 call	 ??3@YAXPAX@Z		; operator delete
  00017	59		 pop	 ecx
$LN1@scalar@2:
  00018	8b c6		 mov	 eax, esi
  0001a	5e		 pop	 esi
  0001b	5d		 pop	 ebp
  0001c	c2 04 00	 ret	 4
??_GInventorySelectItem@@QAEPAXI@Z ENDP			; InventorySelectItem::`scalar deleting destructor'
_TEXT	ENDS
PUBLIC	??$forward@UInventorySelectItem@@@std@@YA$$QAUInventorySelectItem@@AAU1@@Z ; std::forward<InventorySelectItem>
; Function compile flags: /Ogsp
; File c:\program files (x86)\microsoft visual studio 10.0\vc\include\utility
;	COMDAT ??$forward@UInventorySelectItem@@@std@@YA$$QAUInventorySelectItem@@AAU1@@Z
_TEXT	SEGMENT
__Arg$ = 8						; size = 4
??$forward@UInventorySelectItem@@@std@@YA$$QAUInventorySelectItem@@AAU1@@Z PROC ; std::forward<InventorySelectItem>, COMDAT

; 78   : 	{	// forward _Arg, given explicitly specified type parameter

  00000	55		 push	 ebp
  00001	8b ec		 mov	 ebp, esp

; 79   : 	return ((_Ty&&)_Arg);

  00003	8b 45 08	 mov	 eax, DWORD PTR __Arg$[ebp]

; 80   : 	}

  00006	5d		 pop	 ebp
  00007	c3		 ret	 0
??$forward@UInventorySelectItem@@@std@@YA$$QAUInventorySelectItem@@AAU1@@Z ENDP ; std::forward<InventorySelectItem>
_TEXT	ENDS
PUBLIC	?_DECSTR@@YAXPADH@Z				; _DECSTR
; Function compile flags: /Ogsp
; File d:\lost saga for developer\youtube\tutorial\source\src\lsclient\stringprotect.h
;	COMDAT ?_DECSTR@@YAXPADH@Z
_TEXT	SEGMENT
_s$ = 8							; size = 4
_l$ = 12						; size = 4
?_DECSTR@@YAXPADH@Z PROC				; _DECSTR, COMDAT

; 40   : __forceinline void _DECSTR(char* s, int l){int i=0,l4=(l-1)/4,*p=(int*)s;s[l-1]=0;for(;i<l4;++i)*(p++)^=0xEAEBECED;for(i=l4*4;i<l-1;++i)s[i]^=0xED-i%4;}

  00000	55		 push	 ebp
  00001	8b ec		 mov	 ebp, esp
  00003	8b 4d 0c	 mov	 ecx, DWORD PTR _l$[ebp]
  00006	56		 push	 esi
  00007	8b 75 08	 mov	 esi, DWORD PTR _s$[ebp]
  0000a	57		 push	 edi
  0000b	8d 79 ff	 lea	 edi, DWORD PTR [ecx-1]
  0000e	8b c7		 mov	 eax, edi
  00010	99		 cdq
  00011	83 e2 03	 and	 edx, 3
  00014	03 c2		 add	 eax, edx
  00016	c1 f8 02	 sar	 eax, 2
  00019	8b d6		 mov	 edx, esi
  0001b	c6 44 0e ff 00	 mov	 BYTE PTR [esi+ecx-1], 0
  00020	85 c0		 test	 eax, eax
  00022	7e 0e		 jle	 SHORT $LN4@DECSTR
  00024	8b c8		 mov	 ecx, eax
$LL6@DECSTR:
  00026	81 32 ed ec eb
	ea		 xor	 DWORD PTR [edx], -353637139 ; eaebecedH
  0002c	83 c2 04	 add	 edx, 4
  0002f	49		 dec	 ecx
  00030	75 f4		 jne	 SHORT $LL6@DECSTR
$LN4@DECSTR:
  00032	c1 e0 02	 shl	 eax, 2
  00035	eb 17		 jmp	 SHORT $LN14@DECSTR
$LL3@DECSTR:
  00037	8b c8		 mov	 ecx, eax
  00039	81 e1 03 00 00
	80		 and	 ecx, -2147483645	; 80000003H
  0003f	79 05		 jns	 SHORT $LN13@DECSTR
  00041	49		 dec	 ecx
  00042	83 c9 fc	 or	 ecx, -4			; fffffffcH
  00045	41		 inc	 ecx
$LN13@DECSTR:
  00046	b2 ed		 mov	 dl, -19			; ffffffedH
  00048	2a d1		 sub	 dl, cl
  0004a	30 14 30	 xor	 BYTE PTR [eax+esi], dl
  0004d	40		 inc	 eax
$LN14@DECSTR:
  0004e	3b c7		 cmp	 eax, edi
  00050	7c e5		 jl	 SHORT $LL3@DECSTR
  00052	5f		 pop	 edi
  00053	5e		 pop	 esi
  00054	5d		 pop	 ebp
  00055	c3		 ret	 0
?_DECSTR@@YAXPADH@Z ENDP				; _DECSTR
_TEXT	ENDS
PUBLIC	?GetFullWidth@ioComplexStringPrinter@@QBEMXZ	; ioComplexStringPrinter::GetFullWidth
; Function compile flags: /Ogsp
; File d:\lost saga for developer\youtube\tutorial\source\src\lsclient\iocomplexstringprinter.h
;	COMDAT ?GetFullWidth@ioComplexStringPrinter@@QBEMXZ
_TEXT	SEGMENT
?GetFullWidth@ioComplexStringPrinter@@QBEMXZ PROC	; ioComplexStringPrinter::GetFullWidth, COMDAT
; _this$ = ecx

; 125  : 	inline float GetFullWidth() const { return m_fFullWidth; }

  00000	d9 41 1c	 fld	 DWORD PTR [ecx+28]
  00003	c3		 ret	 0
?GetFullWidth@ioComplexStringPrinter@@QBEMXZ ENDP	; ioComplexStringPrinter::GetFullWidth
_TEXT	ENDS
PUBLIC	?GetMouse@ioApplication@@QAEPAVioLSMouse@@XZ	; ioApplication::GetMouse
; Function compile flags: /Ogsp
; File d:\lost saga for developer\youtube\tutorial\source\src\lsclient\ioapplication.h
;	COMDAT ?GetMouse@ioApplication@@QAEPAVioLSMouse@@XZ
_TEXT	SEGMENT
?GetMouse@ioApplication@@QAEPAVioLSMouse@@XZ PROC	; ioApplication::GetMouse, COMDAT
; _this$ = ecx

; 796  : 	inline ioLSMouse* GetMouse(){ return &m_Mouse;	}

  00000	8d 81 90 00 00
	00		 lea	 eax, DWORD PTR [ecx+144]
  00006	c3		 ret	 0
?GetMouse@ioApplication@@QAEPAVioLSMouse@@XZ ENDP	; ioApplication::GetMouse
_TEXT	ENDS
PUBLIC	?Init@InventorySelectItem@@QAEXXZ		; InventorySelectItem::Init
; Function compile flags: /Ogsp
; File d:\lost saga for developer\youtube\tutorial\source\src\lsclient\gui\myinventorywnd.h
;	COMDAT ?Init@InventorySelectItem@@QAEXXZ
_TEXT	SEGMENT
?Init@InventorySelectItem@@QAEXXZ PROC			; InventorySelectItem::Init, COMDAT
; _this$ = ecx

; 457  : 	{

  00000	56		 push	 esi
  00001	8b f1		 mov	 esi, ecx

; 458  : 		m_iNeedCoin = -1;

  00003	83 4e 08 ff	 or	 DWORD PTR [esi+8], -1

; 459  : 		m_iTabType = -1;

  00007	83 4e 04 ff	 or	 DWORD PTR [esi+4], -1

; 460  : 		m_iMagicCode = -1;

  0000b	83 0e ff	 or	 DWORD PTR [esi], -1
  0000e	57		 push	 edi

; 461  : 		m_dwSubTextColor = TCT_DEFAULT_BLUE;
; 462  : 		m_szName.Clear();

  0000f	8b 3d 00 00 00
	00		 mov	 edi, DWORD PTR __imp_?Clear@ioHashString@@QAEXXZ
  00015	8d 4e 0c	 lea	 ecx, DWORD PTR [esi+12]
  00018	c7 46 3c b2 46
	16 ff		 mov	 DWORD PTR [esi+60], -15317326 ; ff1646b2H
  0001f	ff d7		 call	 edi

; 463  : 		m_szIconName.Clear();

  00021	8d 4e 1c	 lea	 ecx, DWORD PTR [esi+28]
  00024	ff d7		 call	 edi

; 464  : 		m_szSubText.Clear();

  00026	8d 4e 2c	 lea	 ecx, DWORD PTR [esi+44]
  00029	ff d7		 call	 edi

; 465  : 		m_szSubText2.Clear();

  0002b	8d 4e 40	 lea	 ecx, DWORD PTR [esi+64]
  0002e	ff d7		 call	 edi

; 466  : 		m_nGrade = 0;

  00030	83 66 50 00	 and	 DWORD PTR [esi+80], 0
  00034	5f		 pop	 edi
  00035	5e		 pop	 esi

; 467  : 	}

  00036	c3		 ret	 0
?Init@InventorySelectItem@@QAEXXZ ENDP			; InventorySelectItem::Init
_TEXT	ENDS
PUBLIC	?SetMarkType@InventoryIconBtn@@QAEXH@Z		; InventoryIconBtn::SetMarkType
; Function compile flags: /Ogsp
;	COMDAT ?SetMarkType@InventoryIconBtn@@QAEXH@Z
_TEXT	SEGMENT
_iMarkType$ = 8						; size = 4
?SetMarkType@InventoryIconBtn@@QAEXH@Z PROC		; InventoryIconBtn::SetMarkType, COMDAT
; _this$ = ecx

; 551  : 	void SetMarkType( int iMarkType ) { m_iMarkType = iMarkType; } 

  00000	55		 push	 ebp
  00001	8b ec		 mov	 ebp, esp
  00003	8b 45 08	 mov	 eax, DWORD PTR _iMarkType$[ebp]
  00006	89 81 3c 02 00
	00		 mov	 DWORD PTR [ecx+572], eax
  0000c	5d		 pop	 ebp
  0000d	c2 04 00	 ret	 4
?SetMarkType@InventoryIconBtn@@QAEXH@Z ENDP		; InventoryIconBtn::SetMarkType
_TEXT	ENDS
PUBLIC	?SetCostume@InventoryIconBtn@@QAEX_N@Z		; InventoryIconBtn::SetCostume
; Function compile flags: /Ogsp
;	COMDAT ?SetCostume@InventoryIconBtn@@QAEX_N@Z
_TEXT	SEGMENT
_bIsCostume$ = 8					; size = 1
?SetCostume@InventoryIconBtn@@QAEX_N@Z PROC		; InventoryIconBtn::SetCostume, COMDAT
; _this$ = ecx

; 554  : 	void SetCostume( bool bIsCostume ){ m_bIsCostume = bIsCostume; }

  00000	55		 push	 ebp
  00001	8b ec		 mov	 ebp, esp
  00003	8a 45 08	 mov	 al, BYTE PTR _bIsCostume$[ebp]
  00006	88 81 80 02 00
	00		 mov	 BYTE PTR [ecx+640], al
  0000c	5d		 pop	 ebp
  0000d	c2 04 00	 ret	 4
?SetCostume@InventoryIconBtn@@QAEX_N@Z ENDP		; InventoryIconBtn::SetCostume
_TEXT	ENDS
PUBLIC	?SetGradeType@InventoryIconBtn@@QAEXH@Z		; InventoryIconBtn::SetGradeType
; Function compile flags: /Ogsp
;	COMDAT ?SetGradeType@InventoryIconBtn@@QAEXH@Z
_TEXT	SEGMENT
_nGradeType$ = 8					; size = 4
?SetGradeType@InventoryIconBtn@@QAEXH@Z PROC		; InventoryIconBtn::SetGradeType, COMDAT
; _this$ = ecx

; 555  : 	void SetGradeType( int nGradeType ){ m_nGradeType = nGradeType; }

  00000	55		 push	 ebp
  00001	8b ec		 mov	 ebp, esp
  00003	8b 45 08	 mov	 eax, DWORD PTR _nGradeType$[ebp]
  00006	89 81 84 02 00
	00		 mov	 DWORD PTR [ecx+644], eax
  0000c	5d		 pop	 ebp
  0000d	c2 04 00	 ret	 4
?SetGradeType@InventoryIconBtn@@QAEXH@Z ENDP		; InventoryIconBtn::SetGradeType
_TEXT	ENDS
PUBLIC	?GetPreOverWnd@ioSP2GUIManager@@QAEPAVioWnd@@XZ	; ioSP2GUIManager::GetPreOverWnd
; Function compile flags: /Ogsp
; File d:\lost saga for developer\youtube\tutorial\source\src\lsclient\gui\iosp2guimanager.h
;	COMDAT ?GetPreOverWnd@ioSP2GUIManager@@QAEPAVioWnd@@XZ
_TEXT	SEGMENT
?GetPreOverWnd@ioSP2GUIManager@@QAEPAVioWnd@@XZ PROC	; ioSP2GUIManager::GetPreOverWnd, COMDAT
; _this$ = ecx

; 220  : 	ioWnd *GetPreOverWnd(){ return m_pPreOverWnd; }

  00000	8b 41 10	 mov	 eax, DWORD PTR [ecx+16]
  00003	c3		 ret	 0
?GetPreOverWnd@ioSP2GUIManager@@QAEPAVioWnd@@XZ ENDP	; ioSP2GUIManager::GetPreOverWnd
_TEXT	ENDS
PUBLIC	?size@?$basic_string@DU?$char_traits@D@std@@V?$allocator@D@2@@std@@QBEIXZ ; std::basic_string<char,std::char_traits<char>,std::allocator<char> >::size
; Function compile flags: /Ogsp
; File c:\program files (x86)\microsoft visual studio 10.0\vc\include\xstring
;	COMDAT ?size@?$basic_string@DU?$char_traits@D@std@@V?$allocator@D@2@@std@@QBEIXZ
_TEXT	SEGMENT
?size@?$basic_string@DU?$char_traits@D@std@@V?$allocator@D@2@@std@@QBEIXZ PROC ; std::basic_string<char,std::char_traits<char>,std::allocator<char> >::size, COMDAT
; _this$ = ecx

; 1512 : 		return (this->_Mysize);

  00000	8b 41 10	 mov	 eax, DWORD PTR [ecx+16]

; 1513 : 		}

  00003	c3		 ret	 0
?size@?$basic_string@DU?$char_traits@D@std@@V?$allocator@D@2@@std@@QBEIXZ ENDP ; std::basic_string<char,std::char_traits<char>,std::allocator<char> >::size
_TEXT	ENDS
PUBLIC	?size@?$vector@VioHashString@@V?$allocator@VioHashString@@@std@@@std@@QBEIXZ ; std::vector<ioHashString,std::allocator<ioHashString> >::size
; Function compile flags: /Ogsp
; File c:\program files (x86)\microsoft visual studio 10.0\vc\include\vector
;	COMDAT ?size@?$vector@VioHashString@@V?$allocator@VioHashString@@@std@@@std@@QBEIXZ
_TEXT	SEGMENT
?size@?$vector@VioHashString@@V?$allocator@VioHashString@@@std@@@std@@QBEIXZ PROC ; std::vector<ioHashString,std::allocator<ioHashString> >::size, COMDAT
; _this$ = ecx

; 879  : 		return (this->_Mylast - this->_Myfirst);

  00000	8b 41 04	 mov	 eax, DWORD PTR [ecx+4]
  00003	2b 01		 sub	 eax, DWORD PTR [ecx]
  00005	c1 f8 04	 sar	 eax, 4

; 880  : 		}

  00008	c3		 ret	 0
?size@?$vector@VioHashString@@V?$allocator@VioHashString@@@std@@@std@@QBEIXZ ENDP ; std::vector<ioHashString,std::allocator<ioHashString> >::size
_TEXT	ENDS
PUBLIC	?empty@?$vector@UtagTextPiece@ioComplexStringPrinter@@V?$allocator@UtagTextPiece@ioComplexStringPrinter@@@std@@@std@@QBE_NXZ ; std::vector<ioComplexStringPrinter::tagTextPiece,std::allocator<ioComplexStringPrinter::tagTextPiece> >::empty
; Function compile flags: /Ogsp
;	COMDAT ?empty@?$vector@UtagTextPiece@ioComplexStringPrinter@@V?$allocator@UtagTextPiece@ioComplexStringPrinter@@@std@@@std@@QBE_NXZ
_TEXT	SEGMENT
?empty@?$vector@UtagTextPiece@ioComplexStringPrinter@@V?$allocator@UtagTextPiece@ioComplexStringPrinter@@@std@@@std@@QBE_NXZ PROC ; std::vector<ioComplexStringPrinter::tagTextPiece,std::allocator<ioComplexStringPrinter::tagTextPiece> >::empty, COMDAT
; _this$ = ecx

; 889  : 		return (this->_Myfirst == this->_Mylast);

  00000	8b 01		 mov	 eax, DWORD PTR [ecx]
  00002	2b 41 04	 sub	 eax, DWORD PTR [ecx+4]
  00005	f7 d8		 neg	 eax
  00007	1b c0		 sbb	 eax, eax
  00009	40		 inc	 eax

; 890  : 		}

  0000a	c3		 ret	 0
?empty@?$vector@UtagTextPiece@ioComplexStringPrinter@@V?$allocator@UtagTextPiece@ioComplexStringPrinter@@@std@@@std@@QBE_NXZ ENDP ; std::vector<ioComplexStringPrinter::tagTextPiece,std::allocator<ioComplexStringPrinter::tagTextPiece> >::empty
_TEXT	ENDS
PUBLIC	?_Myptr@?$basic_string@DU?$char_traits@D@std@@V?$allocator@D@2@@std@@QBEPBDXZ ; std::basic_string<char,std::char_traits<char>,std::allocator<char> >::_Myptr
; Function compile flags: /Ogsp
; File c:\program files (x86)\microsoft visual studio 10.0\vc\include\xstring
;	COMDAT ?_Myptr@?$basic_string@DU?$char_traits@D@std@@V?$allocator@D@2@@std@@QBEPBDXZ
_TEXT	SEGMENT
?_Myptr@?$basic_string@DU?$char_traits@D@std@@V?$allocator@D@2@@std@@QBEPBDXZ PROC ; std::basic_string<char,std::char_traits<char>,std::allocator<char> >::_Myptr, COMDAT
; _this$ = ecx

; 2010 : 		return (this->_BUF_SIZE <= this->_Myres ? this->_Bx._Ptr
; 2011 : 			: this->_Bx._Buf);

  00000	83 79 14 10	 cmp	 DWORD PTR [ecx+20], 16	; 00000010H
  00004	72 03		 jb	 SHORT $LN3@Myptr
  00006	8b 01		 mov	 eax, DWORD PTR [ecx]

; 2012 : 		}

  00008	c3		 ret	 0
$LN3@Myptr:

; 2010 : 		return (this->_BUF_SIZE <= this->_Myres ? this->_Bx._Ptr
; 2011 : 			: this->_Bx._Buf);

  00009	8b c1		 mov	 eax, ecx

; 2012 : 		}

  0000b	c3		 ret	 0
?_Myptr@?$basic_string@DU?$char_traits@D@std@@V?$allocator@D@2@@std@@QBEPBDXZ ENDP ; std::basic_string<char,std::char_traits<char>,std::allocator<char> >::_Myptr
_TEXT	ENDS
PUBLIC	??1?$_String_val@DV?$allocator@D@std@@@std@@QAE@XZ ; std::_String_val<char,std::allocator<char> >::~_String_val<char,std::allocator<char> >
; Function compile flags: /Ogsp
;	COMDAT ??1?$_String_val@DV?$allocator@D@std@@@std@@QAE@XZ
_TEXT	SEGMENT
??1?$_String_val@DV?$allocator@D@std@@@std@@QAE@XZ PROC	; std::_String_val<char,std::allocator<char> >::~_String_val<char,std::allocator<char> >, COMDAT
; _this$ = ecx

; 459  : 		}

  00000	c3		 ret	 0
??1?$_String_val@DV?$allocator@D@std@@@std@@QAE@XZ ENDP	; std::_String_val<char,std::allocator<char> >::~_String_val<char,std::allocator<char> >
_TEXT	ENDS
PUBLIC	??0?$allocator@D@std@@QAE@XZ			; std::allocator<char>::allocator<char>
; Function compile flags: /Ogsp
; File c:\program files (x86)\microsoft visual studio 10.0\vc\include\xmemory
;	COMDAT ??0?$allocator@D@std@@QAE@XZ
_TEXT	SEGMENT
??0?$allocator@D@std@@QAE@XZ PROC			; std::allocator<char>::allocator<char>, COMDAT
; _this$ = ecx

; 161  : 	_ALLOCATOR() _THROW0()

  00000	8b c1		 mov	 eax, ecx

; 162  : 		{	// construct default allocator (do nothing)
; 163  : 		}

  00002	c3		 ret	 0
??0?$allocator@D@std@@QAE@XZ ENDP			; std::allocator<char>::allocator<char>
_TEXT	ENDS
PUBLIC	??0?$allocator@D@std@@QAE@ABV01@@Z		; std::allocator<char>::allocator<char>
; Function compile flags: /Ogsp
;	COMDAT ??0?$allocator@D@std@@QAE@ABV01@@Z
_TEXT	SEGMENT
___formal$ = 8						; size = 4
??0?$allocator@D@std@@QAE@ABV01@@Z PROC			; std::allocator<char>::allocator<char>, COMDAT
; _this$ = ecx

; 165  : 	_ALLOCATOR(const _ALLOCATOR<_Ty>&) _THROW0()

  00000	8b c1		 mov	 eax, ecx

; 166  : 		{	// construct by copying (do nothing)
; 167  : 		}

  00002	c2 04 00	 ret	 4
??0?$allocator@D@std@@QAE@ABV01@@Z ENDP			; std::allocator<char>::allocator<char>
_TEXT	ENDS
PUBLIC	??1?$_Vector_val@VioHashString@@V?$allocator@VioHashString@@@std@@@std@@QAE@XZ ; std::_Vector_val<ioHashString,std::allocator<ioHashString> >::~_Vector_val<ioHashString,std::allocator<ioHashString> >
; Function compile flags: /Ogsp
; File c:\program files (x86)\microsoft visual studio 10.0\vc\include\vector
;	COMDAT ??1?$_Vector_val@VioHashString@@V?$allocator@VioHashString@@@std@@@std@@QAE@XZ
_TEXT	SEGMENT
??1?$_Vector_val@VioHashString@@V?$allocator@VioHashString@@@std@@@std@@QAE@XZ PROC ; std::_Vector_val<ioHashString,std::allocator<ioHashString> >::~_Vector_val<ioHashString,std::allocator<ioHashString> >, COMDAT
; _this$ = ecx

; 434  : 		}

  00000	c3		 ret	 0
??1?$_Vector_val@VioHashString@@V?$allocator@VioHashString@@@std@@@std@@QAE@XZ ENDP ; std::_Vector_val<ioHashString,std::allocator<ioHashString> >::~_Vector_val<ioHashString,std::allocator<ioHashString> >
_TEXT	ENDS
PUBLIC	??D?$_String_const_iterator@DU?$char_traits@D@std@@V?$allocator@D@2@@std@@QBEABDXZ ; std::_String_const_iterator<char,std::char_traits<char>,std::allocator<char> >::operator*
; Function compile flags: /Ogsp
; File c:\program files (x86)\microsoft visual studio 10.0\vc\include\xstring
;	COMDAT ??D?$_String_const_iterator@DU?$char_traits@D@std@@V?$allocator@D@2@@std@@QBEABDXZ
_TEXT	SEGMENT
??D?$_String_const_iterator@DU?$char_traits@D@std@@V?$allocator@D@2@@std@@QBEABDXZ PROC ; std::_String_const_iterator<char,std::char_traits<char>,std::allocator<char> >::operator*, COMDAT
; _this$ = ecx

; 71   :  #if _ITERATOR_DEBUG_LEVEL == 2
; 72   : 		if (this->_Getcont() == 0
; 73   : 			|| this->_Ptr == 0
; 74   : 			|| this->_Ptr < ((_Mystr *)this->_Getcont())->_Myptr()
; 75   : 			|| ((_Mystr *)this->_Getcont())->_Myptr()
; 76   : 				+ ((_Mystr *)this->_Getcont())->_Mysize <= this->_Ptr)
; 77   : 			{	// report error
; 78   : 			_DEBUG_ERROR("string iterator not dereferencable");
; 79   : 			_SCL_SECURE_OUT_OF_RANGE;
; 80   : 			}
; 81   : 
; 82   :  #elif _ITERATOR_DEBUG_LEVEL == 1
; 83   : 		_SCL_SECURE_VALIDATE(this->_Getcont() != 0 && this->_Ptr != 0);
; 84   : 		_SCL_SECURE_VALIDATE_RANGE(
; 85   : 			((_Mystr *)this->_Getcont())->_Myptr() <= this->_Ptr
; 86   : 			&& this->_Ptr < ((_Mystr *)this->_Getcont())->_Myptr()
; 87   : 				+ ((_Mystr *)this->_Getcont())->_Mysize);
; 88   :  #endif /* _ITERATOR_DEBUG_LEVEL */
; 89   : 
; 90   : 		__analysis_assume(this->_Ptr != 0);
; 91   : 
; 92   : 		return (*this->_Ptr);

  00000	8b 01		 mov	 eax, DWORD PTR [ecx]

; 93   : 		}

  00002	c3		 ret	 0
??D?$_String_const_iterator@DU?$char_traits@D@std@@V?$allocator@D@2@@std@@QBEABDXZ ENDP ; std::_String_const_iterator<char,std::char_traits<char>,std::allocator<char> >::operator*
_TEXT	ENDS
PUBLIC	??E?$_String_const_iterator@DU?$char_traits@D@std@@V?$allocator@D@2@@std@@QAEAAV01@XZ ; std::_String_const_iterator<char,std::char_traits<char>,std::allocator<char> >::operator++
; Function compile flags: /Ogsp
;	COMDAT ??E?$_String_const_iterator@DU?$char_traits@D@std@@V?$allocator@D@2@@std@@QAEAAV01@XZ
_TEXT	SEGMENT
??E?$_String_const_iterator@DU?$char_traits@D@std@@V?$allocator@D@2@@std@@QAEAAV01@XZ PROC ; std::_String_const_iterator<char,std::char_traits<char>,std::allocator<char> >::operator++, COMDAT
; _this$ = ecx

; 101  : 		{	// preincrement

  00000	8b c1		 mov	 eax, ecx

; 102  :  #if _ITERATOR_DEBUG_LEVEL == 2
; 103  : 		if (this->_Getcont() == 0
; 104  : 			|| this->_Ptr == 0
; 105  : 			|| ((_Mystr *)this->_Getcont())->_Myptr()
; 106  : 				+ ((_Mystr *)this->_Getcont())->_Mysize <= this->_Ptr)
; 107  : 			{	// report error
; 108  : 			_DEBUG_ERROR("string iterator not incrementable");
; 109  : 			_SCL_SECURE_OUT_OF_RANGE;
; 110  : 			}
; 111  : 
; 112  :  #elif _ITERATOR_DEBUG_LEVEL == 1
; 113  : 		_SCL_SECURE_VALIDATE(this->_Getcont() != 0 && this->_Ptr != 0);
; 114  : 		_SCL_SECURE_VALIDATE_RANGE(
; 115  : 			this->_Ptr < ((_Mystr *)this->_Getcont())->_Myptr()
; 116  : 				+ ((_Mystr *)this->_Getcont())->_Mysize);
; 117  :  #endif /* _ITERATOR_DEBUG_LEVEL */
; 118  : 
; 119  : 		++this->_Ptr;

  00002	ff 00		 inc	 DWORD PTR [eax]

; 120  : 		return (*this);
; 121  : 		}

  00004	c3		 ret	 0
??E?$_String_const_iterator@DU?$char_traits@D@std@@V?$allocator@D@2@@std@@QAEAAV01@XZ ENDP ; std::_String_const_iterator<char,std::char_traits<char>,std::allocator<char> >::operator++
_TEXT	ENDS
PUBLIC	?_Myptr@?$basic_string@DU?$char_traits@D@std@@V?$allocator@D@2@@std@@QAEPADXZ ; std::basic_string<char,std::char_traits<char>,std::allocator<char> >::_Myptr
; Function compile flags: /Ogsp
;	COMDAT ?_Myptr@?$basic_string@DU?$char_traits@D@std@@V?$allocator@D@2@@std@@QAEPADXZ
_TEXT	SEGMENT
?_Myptr@?$basic_string@DU?$char_traits@D@std@@V?$allocator@D@2@@std@@QAEPADXZ PROC ; std::basic_string<char,std::char_traits<char>,std::allocator<char> >::_Myptr, COMDAT
; _this$ = ecx

; 2004 : 		return (this->_BUF_SIZE <= this->_Myres ? this->_Bx._Ptr
; 2005 : 			: this->_Bx._Buf);

  00000	83 79 14 10	 cmp	 DWORD PTR [ecx+20], 16	; 00000010H
  00004	72 03		 jb	 SHORT $LN3@Myptr@2
  00006	8b 01		 mov	 eax, DWORD PTR [ecx]

; 2006 : 		}

  00008	c3		 ret	 0
$LN3@Myptr@2:

; 2004 : 		return (this->_BUF_SIZE <= this->_Myres ? this->_Bx._Ptr
; 2005 : 			: this->_Bx._Buf);

  00009	8b c1		 mov	 eax, ecx

; 2006 : 		}

  0000b	c3		 ret	 0
?_Myptr@?$basic_string@DU?$char_traits@D@std@@V?$allocator@D@2@@std@@QAEPADXZ ENDP ; std::basic_string<char,std::char_traits<char>,std::allocator<char> >::_Myptr
_TEXT	ENDS
PUBLIC	??_C@_0BA@JFNIOLAK@string?5too?5long?$AA@	; `string'
PUBLIC	?_Xlen@?$basic_string@DU?$char_traits@D@std@@V?$allocator@D@2@@std@@QBEXXZ ; std::basic_string<char,std::char_traits<char>,std::allocator<char> >::_Xlen
;	COMDAT ??_C@_0BA@JFNIOLAK@string?5too?5long?$AA@
CONST	SEGMENT
??_C@_0BA@JFNIOLAK@string?5too?5long?$AA@ DB 'string too long', 00H ; `string'
; Function compile flags: /Ogsp
CONST	ENDS
;	COMDAT ?_Xlen@?$basic_string@DU?$char_traits@D@std@@V?$allocator@D@2@@std@@QBEXXZ
_TEXT	SEGMENT
?_Xlen@?$basic_string@DU?$char_traits@D@std@@V?$allocator@D@2@@std@@QBEXXZ PROC ; std::basic_string<char,std::char_traits<char>,std::allocator<char> >::_Xlen, COMDAT
; _this$ = ecx

; 2016 : 		_Xlength_error("string too long");

  00000	68 00 00 00 00	 push	 OFFSET ??_C@_0BA@JFNIOLAK@string?5too?5long?$AA@
  00005	ff 15 00 00 00
	00		 call	 DWORD PTR __imp_?_Xlength_error@std@@YAXPBD@Z
$LN4@Xlen@2:
$LN3@Xlen@2:
  0000b	cc		 int	 3
?_Xlen@?$basic_string@DU?$char_traits@D@std@@V?$allocator@D@2@@std@@QBEXXZ ENDP ; std::basic_string<char,std::char_traits<char>,std::allocator<char> >::_Xlen
_TEXT	ENDS
PUBLIC	??_C@_0BI@CFPLBAOH@invalid?5string?5position?$AA@ ; `string'
PUBLIC	?_Xran@?$basic_string@DU?$char_traits@D@std@@V?$allocator@D@2@@std@@QBEXXZ ; std::basic_string<char,std::char_traits<char>,std::allocator<char> >::_Xran
EXTRN	__imp_?_Xout_of_range@std@@YAXPBD@Z:PROC
;	COMDAT ??_C@_0BI@CFPLBAOH@invalid?5string?5position?$AA@
CONST	SEGMENT
??_C@_0BI@CFPLBAOH@invalid?5string?5position?$AA@ DB 'invalid string posi'
	DB	'tion', 00H					; `string'
; Function compile flags: /Ogsp
CONST	ENDS
;	COMDAT ?_Xran@?$basic_string@DU?$char_traits@D@std@@V?$allocator@D@2@@std@@QBEXXZ
_TEXT	SEGMENT
?_Xran@?$basic_string@DU?$char_traits@D@std@@V?$allocator@D@2@@std@@QBEXXZ PROC ; std::basic_string<char,std::char_traits<char>,std::allocator<char> >::_Xran, COMDAT
; _this$ = ecx

; 2021 : 		_Xout_of_range("invalid string position");

  00000	68 00 00 00 00	 push	 OFFSET ??_C@_0BI@CFPLBAOH@invalid?5string?5position?$AA@
  00005	ff 15 00 00 00
	00		 call	 DWORD PTR __imp_?_Xout_of_range@std@@YAXPBD@Z
$LN4@Xran:
$LN3@Xran:
  0000b	cc		 int	 3
?_Xran@?$basic_string@DU?$char_traits@D@std@@V?$allocator@D@2@@std@@QBEXXZ ENDP ; std::basic_string<char,std::char_traits<char>,std::allocator<char> >::_Xran
_TEXT	ENDS
PUBLIC	?deallocate@?$allocator@D@std@@QAEXPADI@Z	; std::allocator<char>::deallocate
; Function compile flags: /Ogsp
; File c:\program files (x86)\microsoft visual studio 10.0\vc\include\xmemory
;	COMDAT ?deallocate@?$allocator@D@std@@QAEXPADI@Z
_TEXT	SEGMENT
__Ptr$ = 8						; size = 4
___formal$ = 12						; size = 4
?deallocate@?$allocator@D@std@@QAEXPADI@Z PROC		; std::allocator<char>::deallocate, COMDAT
; _this$ = ecx

; 181  : 		{	// deallocate object at _Ptr, ignore size

  00000	55		 push	 ebp
  00001	8b ec		 mov	 ebp, esp

; 182  : 		::operator delete(_Ptr);

  00003	ff 75 08	 push	 DWORD PTR __Ptr$[ebp]
  00006	e8 00 00 00 00	 call	 ??3@YAXPAX@Z		; operator delete
  0000b	59		 pop	 ecx

; 183  : 		}

  0000c	5d		 pop	 ebp
  0000d	c2 08 00	 ret	 8
?deallocate@?$allocator@D@std@@QAEXPADI@Z ENDP		; std::allocator<char>::deallocate
_TEXT	ENDS
PUBLIC	?deallocate@?$allocator@VioHashString@@@std@@QAEXPAVioHashString@@I@Z ; std::allocator<ioHashString>::deallocate
; Function compile flags: /Ogsp
;	COMDAT ?deallocate@?$allocator@VioHashString@@@std@@QAEXPAVioHashString@@I@Z
_TEXT	SEGMENT
__Ptr$ = 8						; size = 4
___formal$ = 12						; size = 4
?deallocate@?$allocator@VioHashString@@@std@@QAEXPAVioHashString@@I@Z PROC ; std::allocator<ioHashString>::deallocate, COMDAT
; _this$ = ecx

; 181  : 		{	// deallocate object at _Ptr, ignore size

  00000	55		 push	 ebp
  00001	8b ec		 mov	 ebp, esp

; 182  : 		::operator delete(_Ptr);

  00003	ff 75 08	 push	 DWORD PTR __Ptr$[ebp]
  00006	e8 00 00 00 00	 call	 ??3@YAXPAX@Z		; operator delete
  0000b	59		 pop	 ecx

; 183  : 		}

  0000c	5d		 pop	 ebp
  0000d	c2 08 00	 ret	 8
?deallocate@?$allocator@VioHashString@@@std@@QAEXPAVioHashString@@I@Z ENDP ; std::allocator<ioHashString>::deallocate
_TEXT	ENDS
PUBLIC	?_Inside@?$basic_string@DU?$char_traits@D@std@@V?$allocator@D@2@@std@@QAE_NPBD@Z ; std::basic_string<char,std::char_traits<char>,std::allocator<char> >::_Inside
; Function compile flags: /Ogsp
; File c:\program files (x86)\microsoft visual studio 10.0\vc\include\xstring
;	COMDAT ?_Inside@?$basic_string@DU?$char_traits@D@std@@V?$allocator@D@2@@std@@QAE_NPBD@Z
_TEXT	SEGMENT
__Ptr$ = 8						; size = 4
?_Inside@?$basic_string@DU?$char_traits@D@std@@V?$allocator@D@2@@std@@QAE_NPBD@Z PROC ; std::basic_string<char,std::char_traits<char>,std::allocator<char> >::_Inside, COMDAT
; _this$ = ecx

; 1973 : 		{	// test if _Ptr points inside string

  00000	55		 push	 ebp
  00001	8b ec		 mov	 ebp, esp

; 1974 : 		if (_Ptr == 0 || _Ptr < _Myptr() || _Myptr() + this->_Mysize <= _Ptr)

  00003	83 7d 08 00	 cmp	 DWORD PTR __Ptr$[ebp], 0
  00007	74 2c		 je	 SHORT $LN2@Inside@2
  00009	8b 51 14	 mov	 edx, DWORD PTR [ecx+20]
  0000c	83 fa 10	 cmp	 edx, 16			; 00000010H
  0000f	72 04		 jb	 SHORT $LN8@Inside@2
  00011	8b 01		 mov	 eax, DWORD PTR [ecx]
  00013	eb 02		 jmp	 SHORT $LN9@Inside@2
$LN8@Inside@2:
  00015	8b c1		 mov	 eax, ecx
$LN9@Inside@2:
  00017	39 45 08	 cmp	 DWORD PTR __Ptr$[ebp], eax
  0001a	72 19		 jb	 SHORT $LN2@Inside@2
  0001c	83 fa 10	 cmp	 edx, 16			; 00000010H
  0001f	72 04		 jb	 SHORT $LN12@Inside@2
  00021	8b 01		 mov	 eax, DWORD PTR [ecx]
  00023	eb 02		 jmp	 SHORT $LN13@Inside@2
$LN12@Inside@2:
  00025	8b c1		 mov	 eax, ecx
$LN13@Inside@2:
  00027	8b 49 10	 mov	 ecx, DWORD PTR [ecx+16]
  0002a	03 c8		 add	 ecx, eax
  0002c	3b 4d 08	 cmp	 ecx, DWORD PTR __Ptr$[ebp]
  0002f	76 04		 jbe	 SHORT $LN2@Inside@2

; 1976 : 		else
; 1977 : 			return (true);

  00031	b0 01		 mov	 al, 1
  00033	eb 02		 jmp	 SHORT $LN1@Inside@2
$LN2@Inside@2:

; 1975 : 			return (false);	// don't ask

  00035	32 c0		 xor	 al, al
$LN1@Inside@2:

; 1978 : 		}

  00037	5d		 pop	 ebp
  00038	c2 04 00	 ret	 4
?_Inside@?$basic_string@DU?$char_traits@D@std@@V?$allocator@D@2@@std@@QAE_NPBD@Z ENDP ; std::basic_string<char,std::char_traits<char>,std::allocator<char> >::_Inside
_TEXT	ENDS
PUBLIC	??0?$_String_const_iterator@DU?$char_traits@D@std@@V?$allocator@D@2@@std@@QAE@PBDPBU_Container_base0@1@@Z ; std::_String_const_iterator<char,std::char_traits<char>,std::allocator<char> >::_String_const_iterator<char,std::char_traits<char>,std::allocator<char> >
; Function compile flags: /Ogsp
;	COMDAT ??0?$_String_const_iterator@DU?$char_traits@D@std@@V?$allocator@D@2@@std@@QAE@PBDPBU_Container_base0@1@@Z
_TEXT	SEGMENT
__Parg$ = 8						; size = 4
__Pstring$ = 12						; size = 4
??0?$_String_const_iterator@DU?$char_traits@D@std@@V?$allocator@D@2@@std@@QAE@PBDPBU_Container_base0@1@@Z PROC ; std::_String_const_iterator<char,std::char_traits<char>,std::allocator<char> >::_String_const_iterator<char,std::char_traits<char>,std::allocator<char> >, COMDAT
; _this$ = ecx

; 50   : 	_String_const_iterator(pointer _Parg, const _Container_base *_Pstring)

  00000	55		 push	 ebp
  00001	8b ec		 mov	 ebp, esp
  00003	8b c1		 mov	 eax, ecx

; 51   : 		{	// construct with pointer _Parg
; 52   : 		this->_Adopt(_Pstring);
; 53   : 		this->_Ptr = _Parg;

  00005	8b 4d 08	 mov	 ecx, DWORD PTR __Parg$[ebp]
  00008	89 08		 mov	 DWORD PTR [eax], ecx

; 54   : 		}

  0000a	5d		 pop	 ebp
  0000b	c2 08 00	 ret	 8
??0?$_String_const_iterator@DU?$char_traits@D@std@@V?$allocator@D@2@@std@@QAE@PBDPBU_Container_base0@1@@Z ENDP ; std::_String_const_iterator<char,std::char_traits<char>,std::allocator<char> >::_String_const_iterator<char,std::char_traits<char>,std::allocator<char> >
_TEXT	ENDS
PUBLIC	?max_size@?$allocator@D@std@@QBEIXZ		; std::allocator<char>::max_size
; Function compile flags: /Ogsp
; File c:\program files (x86)\microsoft visual studio 10.0\vc\include\xmemory
;	COMDAT ?max_size@?$allocator@D@std@@QBEIXZ
_TEXT	SEGMENT
?max_size@?$allocator@D@std@@QBEIXZ PROC		; std::allocator<char>::max_size, COMDAT
; _this$ = ecx

; 218  : 		_SIZT _Count = (_SIZT)(-1) / sizeof (_Ty);
; 219  : 		return (0 < _Count ? _Count : 1);

  00000	83 c8 ff	 or	 eax, -1

; 220  : 		}

  00003	c3		 ret	 0
?max_size@?$allocator@D@std@@QBEIXZ ENDP		; std::allocator<char>::max_size
_TEXT	ENDS
PUBLIC	?_Compat@?$_String_const_iterator@DU?$char_traits@D@std@@V?$allocator@D@2@@std@@QBEXABV12@@Z ; std::_String_const_iterator<char,std::char_traits<char>,std::allocator<char> >::_Compat
; Function compile flags: /Ogsp
; File c:\program files (x86)\microsoft visual studio 10.0\vc\include\xstring
;	COMDAT ?_Compat@?$_String_const_iterator@DU?$char_traits@D@std@@V?$allocator@D@2@@std@@QBEXABV12@@Z
_TEXT	SEGMENT
___formal$ = 8						; size = 4
?_Compat@?$_String_const_iterator@DU?$char_traits@D@std@@V?$allocator@D@2@@std@@QBEXABV12@@Z PROC ; std::_String_const_iterator<char,std::char_traits<char>,std::allocator<char> >::_Compat, COMDAT
; _this$ = ecx

; 264  : 		}

  00000	c2 04 00	 ret	 4
?_Compat@?$_String_const_iterator@DU?$char_traits@D@std@@V?$allocator@D@2@@std@@QBEXABV12@@Z ENDP ; std::_String_const_iterator<char,std::char_traits<char>,std::allocator<char> >::_Compat
_TEXT	ENDS
PUBLIC	??$_Allocate@D@std@@YAPADIPAD@Z			; std::_Allocate<char>
; Function compile flags: /Ogsp
; File c:\program files (x86)\microsoft visual studio 10.0\vc\include\xmemory
;	COMDAT ??$_Allocate@D@std@@YAPADIPAD@Z
_TEXT	SEGMENT
$T508631 = -12						; size = 12
$T508635 = 8						; size = 4
__Count$ = 8						; size = 4
___formal$ = 12						; size = 4
??$_Allocate@D@std@@YAPADIPAD@Z PROC			; std::_Allocate<char>, COMDAT

; 30   : 	{	// allocate storage for _Count elements of type _Ty

  00000	55		 push	 ebp
  00001	8b ec		 mov	 ebp, esp

; 31   : 	void *_Ptr = 0;

  00003	33 c0		 xor	 eax, eax
  00005	83 ec 0c	 sub	 esp, 12			; 0000000cH

; 32   : 
; 33   : 	if (_Count <= 0)

  00008	39 45 08	 cmp	 DWORD PTR __Count$[ebp], eax

; 34   : 		_Count = 0;
; 35   : 	else if (((_SIZT)(-1) / sizeof (_Ty) < _Count)

  0000b	76 39		 jbe	 SHORT $LN5@Allocate@2

; 36   : 		|| (_Ptr = ::operator new(_Count * sizeof (_Ty))) == 0)

  0000d	83 7d 08 ff	 cmp	 DWORD PTR __Count$[ebp], -1
  00011	77 0d		 ja	 SHORT $LN1@Allocate@2
  00013	ff 75 08	 push	 DWORD PTR __Count$[ebp]
  00016	e8 00 00 00 00	 call	 ??2@YAPAXI@Z		; operator new
  0001b	59		 pop	 ecx
  0001c	85 c0		 test	 eax, eax

; 38   : 
; 39   : 	return ((_Ty _FARQ *)_Ptr);

  0001e	75 26		 jne	 SHORT $LN5@Allocate@2
$LN1@Allocate@2:

; 37   : 		_THROW_NCEE(bad_alloc, 0);

  00020	83 65 08 00	 and	 DWORD PTR $T508635[ebp], 0
  00024	8d 45 08	 lea	 eax, DWORD PTR $T508635[ebp]
  00027	50		 push	 eax
  00028	8d 4d f4	 lea	 ecx, DWORD PTR $T508631[ebp]
  0002b	ff 15 00 00 00
	00		 call	 DWORD PTR __imp_??0exception@std@@QAE@ABQBD@Z
  00031	68 00 00 00 00	 push	 OFFSET __TI2?AVbad_alloc@std@@
  00036	8d 45 f4	 lea	 eax, DWORD PTR $T508631[ebp]
  00039	50		 push	 eax
  0003a	c7 45 f4 00 00
	00 00		 mov	 DWORD PTR $T508631[ebp], OFFSET ??_7bad_alloc@std@@6B@
  00041	e8 00 00 00 00	 call	 __CxxThrowException@8
$LN10@Allocate@2:
$LN5@Allocate@2:

; 40   : 	}

  00046	c9		 leave
  00047	c3		 ret	 0
$LN9@Allocate@2:
??$_Allocate@D@std@@YAPADIPAD@Z ENDP			; std::_Allocate<char>
_TEXT	ENDS
EXTRN	__imp_??0exception@std@@QAE@ABV01@@Z:PROC
; Function compile flags: /Ogsp
;	COMDAT ??0bad_alloc@std@@QAE@ABV01@@Z
_TEXT	SEGMENT
___that$ = 8						; size = 4
??0bad_alloc@std@@QAE@ABV01@@Z PROC			; std::bad_alloc::bad_alloc, COMDAT
; _this$ = ecx
  00000	55		 push	 ebp
  00001	8b ec		 mov	 ebp, esp
  00003	56		 push	 esi
  00004	ff 75 08	 push	 DWORD PTR ___that$[ebp]
  00007	8b f1		 mov	 esi, ecx
  00009	ff 15 00 00 00
	00		 call	 DWORD PTR __imp_??0exception@std@@QAE@ABV01@@Z
  0000f	c7 06 00 00 00
	00		 mov	 DWORD PTR [esi], OFFSET ??_7bad_alloc@std@@6B@
  00015	8b c6		 mov	 eax, esi
  00017	5e		 pop	 esi
  00018	5d		 pop	 ebp
  00019	c2 04 00	 ret	 4
??0bad_alloc@std@@QAE@ABV01@@Z ENDP			; std::bad_alloc::bad_alloc
_TEXT	ENDS
PUBLIC	??$_Ptr_cat@VioHashString@@V1@@std@@YA?AU_Nonscalar_ptr_iterator_tag@0@PAVioHashString@@0@Z ; std::_Ptr_cat<ioHashString,ioHashString>
; Function compile flags: /Ogsp
; File c:\program files (x86)\microsoft visual studio 10.0\vc\include\xutility
;	COMDAT ??$_Ptr_cat@VioHashString@@V1@@std@@YA?AU_Nonscalar_ptr_iterator_tag@0@PAVioHashString@@0@Z
_TEXT	SEGMENT
__Cat$ = -1						; size = 1
___formal$ = 8						; size = 4
___formal$ = 12						; size = 4
??$_Ptr_cat@VioHashString@@V1@@std@@YA?AU_Nonscalar_ptr_iterator_tag@0@PAVioHashString@@0@Z PROC ; std::_Ptr_cat<ioHashString,ioHashString>, COMDAT

; 516  : 	{	// return pointer category from pointers

  00000	55		 push	 ebp
  00001	8b ec		 mov	 ebp, esp
  00003	51		 push	 ecx

; 517  : 	typename _Ptr_cat_helper<_Elem1, _Elem2>::_Type _Cat;
; 518  : 	return (_Cat);

  00004	8a 45 ff	 mov	 al, BYTE PTR __Cat$[ebp]

; 519  : 	}

  00007	c9		 leave
  00008	c3		 ret	 0
??$_Ptr_cat@VioHashString@@V1@@std@@YA?AU_Nonscalar_ptr_iterator_tag@0@PAVioHashString@@0@Z ENDP ; std::_Ptr_cat<ioHashString,ioHashString>
_TEXT	ENDS
PUBLIC	??_GioHashString@@QAEPAXI@Z			; ioHashString::`scalar deleting destructor'
; Function compile flags: /Ogsp
;	COMDAT ??_GioHashString@@QAEPAXI@Z
_TEXT	SEGMENT
___flags$ = 8						; size = 4
??_GioHashString@@QAEPAXI@Z PROC			; ioHashString::`scalar deleting destructor', COMDAT
; _this$ = ecx
  00000	55		 push	 ebp
  00001	8b ec		 mov	 ebp, esp
  00003	56		 push	 esi
  00004	8b f1		 mov	 esi, ecx
  00006	ff 15 00 00 00
	00		 call	 DWORD PTR __imp_??1ioHashString@@QAE@XZ
  0000c	f6 45 08 01	 test	 BYTE PTR ___flags$[ebp], 1
  00010	74 07		 je	 SHORT $LN1@scalar@3
  00012	56		 push	 esi
  00013	e8 00 00 00 00	 call	 ??3@YAXPAX@Z		; operator delete
  00018	59		 pop	 ecx
$LN1@scalar@3:
  00019	8b c6		 mov	 eax, esi
  0001b	5e		 pop	 esi
  0001c	5d		 pop	 ebp
  0001d	c2 04 00	 ret	 4
??_GioHashString@@QAEPAXI@Z ENDP			; ioHashString::`scalar deleting destructor'
; Function compile flags: /Ogsp
_TEXT	ENDS
;	COMDAT ??_GInventorySelectItemRadioButton@@UAEPAXI@Z
_TEXT	SEGMENT
___flags$ = 8						; size = 4
??_GInventorySelectItemRadioButton@@UAEPAXI@Z PROC	; InventorySelectItemRadioButton::`scalar deleting destructor', COMDAT
; _this$ = ecx
  00000	55		 push	 ebp
  00001	8b ec		 mov	 ebp, esp
  00003	56		 push	 esi
  00004	8b f1		 mov	 esi, ecx
  00006	e8 00 00 00 00	 call	 ??1InventorySelectItemRadioButton@@UAE@XZ ; InventorySelectItemRadioButton::~InventorySelectItemRadioButton
  0000b	f6 45 08 01	 test	 BYTE PTR ___flags$[ebp], 1
  0000f	74 07		 je	 SHORT $LN1@scalar@4
  00011	56		 push	 esi
  00012	e8 00 00 00 00	 call	 ??3@YAXPAX@Z		; operator delete
  00017	59		 pop	 ecx
$LN1@scalar@4:
  00018	8b c6		 mov	 eax, esi
  0001a	5e		 pop	 esi
  0001b	5d		 pop	 ebp
  0001c	c2 04 00	 ret	 4
??_GInventorySelectItemRadioButton@@UAEPAXI@Z ENDP	; InventorySelectItemRadioButton::`scalar deleting destructor'
; Function compile flags: /Ogsp
_TEXT	ENDS
;	COMDAT ??_GInventorySelectItemBtn@@UAEPAXI@Z
_TEXT	SEGMENT
___flags$ = 8						; size = 4
??_GInventorySelectItemBtn@@UAEPAXI@Z PROC		; InventorySelectItemBtn::`scalar deleting destructor', COMDAT
; _this$ = ecx
  00000	55		 push	 ebp
  00001	8b ec		 mov	 ebp, esp
  00003	56		 push	 esi
  00004	8b f1		 mov	 esi, ecx
  00006	e8 00 00 00 00	 call	 ??1InventorySelectItemBtn@@UAE@XZ ; InventorySelectItemBtn::~InventorySelectItemBtn
  0000b	f6 45 08 01	 test	 BYTE PTR ___flags$[ebp], 1
  0000f	74 07		 je	 SHORT $LN1@scalar@5
  00011	56		 push	 esi
  00012	e8 00 00 00 00	 call	 ??3@YAXPAX@Z		; operator delete
  00017	59		 pop	 ecx
$LN1@scalar@5:
  00018	8b c6		 mov	 eax, esi
  0001a	5e		 pop	 esi
  0001b	5d		 pop	 ebp
  0001c	c2 04 00	 ret	 4
??_GInventorySelectItemBtn@@UAEPAXI@Z ENDP		; InventorySelectItemBtn::`scalar deleting destructor'
_TEXT	ENDS
PUBLIC	__real@3f0ccccd
PUBLIC	__real@3f266666
PUBLIC	??_C@_00CNPNBAHC@?$AA@				; `string'
PUBLIC	__real@3f800000
PUBLIC	??_C@_0BB@KHJEJDJO@?$CFs?5pBtn?5?$DN?$DN?5NULL?4?$AA@ ; `string'
PUBLIC	??_C@_0CA@BNJCCAPA@InventorySelectItemBtn?3?3SetInfo?$AA@ ; `string'
PUBLIC	??_R0?AVInventoryIconBtn@@@8			; InventoryIconBtn `RTTI Type Descriptor'
PUBLIC	?SetInfo@InventorySelectItemBtn@@IAE_NXZ	; InventorySelectItemBtn::SetInfo
EXTRN	?AddTextPiece@ioComplexStringPrinter@@QAEXMPBD0@Z:PROC ; ioComplexStringPrinter::AddTextPiece
EXTRN	__imp_?GetSingleton@ioStringManager@@SAAAV1@XZ:PROC
EXTRN	__imp_?c_str@ioHashString@@QBEPBDXZ:PROC
EXTRN	?SetTextColor@ioComplexStringPrinter@@QAEXK@Z:PROC ; ioComplexStringPrinter::SetTextColor
EXTRN	?SetBkColor@ioComplexStringPrinter@@QAEXHHH@Z:PROC ; ioComplexStringPrinter::SetBkColor
EXTRN	?SetTextStyle@ioComplexStringPrinter@@QAEXW4TextStyle@@@Z:PROC ; ioComplexStringPrinter::SetTextStyle
EXTRN	__imp_?GetString@ioStringManager@@QAEPADPBD0HW4FileNamePrefix@1@@Z:PROC
EXTRN	?SetIcon@InventoryIconBtn@@QAE_NPAVioUIRenderImage@@MMHW4NumberType@1@@Z:PROC ; InventoryIconBtn::SetIcon
EXTRN	__imp_?CreateImageByFullName@ioUIImageSetManager@@QAEPAVioUIRenderImage@@ABVioHashString@@_N@Z:PROC
EXTRN	__imp_?GetSingleton@ioUIImageSetManager@@SAAAV1@XZ:PROC
EXTRN	__imp_?IsEmpty@ioHashString@@QBE_NXZ:PROC
EXTRN	__imp_?PrintTimeAndLog@CLog@@QAAXHPADZZ:PROC
EXTRN	__imp_?LOG@@3VCLog@@A:BYTE
EXTRN	__imp_?ShowChildWnd@ioWnd@@QAEXK_N@Z:PROC
;	COMDAT __real@3f0ccccd
; File d:\lost saga for developer\youtube\tutorial\source\src\lsclient\gui\myinventorywnd.h
CONST	SEGMENT
__real@3f0ccccd DD 03f0ccccdr			; 0.55
CONST	ENDS
;	COMDAT __real@3f266666
CONST	SEGMENT
__real@3f266666 DD 03f266666r			; 0.65
CONST	ENDS
;	COMDAT ??_C@_00CNPNBAHC@?$AA@
CONST	SEGMENT
??_C@_00CNPNBAHC@?$AA@ DB 00H				; `string'
CONST	ENDS
;	COMDAT __real@3f800000
CONST	SEGMENT
__real@3f800000 DD 03f800000r			; 1
CONST	ENDS
;	COMDAT ??_C@_0BB@KHJEJDJO@?$CFs?5pBtn?5?$DN?$DN?5NULL?4?$AA@
CONST	SEGMENT
??_C@_0BB@KHJEJDJO@?$CFs?5pBtn?5?$DN?$DN?5NULL?4?$AA@ DB '%s pBtn == NULL'
	DB	'.', 00H					; `string'
CONST	ENDS
;	COMDAT ??_C@_0CA@BNJCCAPA@InventorySelectItemBtn?3?3SetInfo?$AA@
CONST	SEGMENT
??_C@_0CA@BNJCCAPA@InventorySelectItemBtn?3?3SetInfo?$AA@ DB 'InventorySe'
	DB	'lectItemBtn::SetInfo', 00H			; `string'
CONST	ENDS
;	COMDAT ??_R0?AVInventoryIconBtn@@@8
_DATA	SEGMENT
??_R0?AVInventoryIconBtn@@@8 DD FLAT:??_7type_info@@6B@	; InventoryIconBtn `RTTI Type Descriptor'
	DD	00H
	DB	'.?AVInventoryIconBtn@@', 00H
_DATA	ENDS
;	COMDAT xdata$x
xdata$x	SEGMENT
__unwindtable$?SetInfo@InventorySelectItemBtn@@IAE_NXZ DD 0ffffffffH
	DD	FLAT:__unwindfunclet$?SetInfo@InventorySelectItemBtn@@IAE_NXZ$0
__ehfuncinfo$?SetInfo@InventorySelectItemBtn@@IAE_NXZ DD 019930522H
	DD	01H
	DD	FLAT:__unwindtable$?SetInfo@InventorySelectItemBtn@@IAE_NXZ
	DD	2 DUP(00H)
	DD	2 DUP(00H)
	DD	00H
	DD	01H
; Function compile flags: /Ogsp
; File d:\lost saga for developer\youtube\tutorial\source\src\lsclient\gui\inventoryselectitemwnd.cpp
xdata$x	ENDS
;	COMDAT ?SetInfo@InventorySelectItemBtn@@IAE_NXZ
_TEXT	SEGMENT
_szIcon$ = -32						; size = 16
tv316 = -16						; size = 4
_pImg$ = -16						; size = 4
__$EHRec$ = -12						; size = 12
?SetInfo@InventorySelectItemBtn@@IAE_NXZ PROC		; InventorySelectItemBtn::SetInfo, COMDAT
; _this$ = ecx

; 103  : {

  00000	6a 14		 push	 20			; 00000014H
  00002	b8 00 00 00 00	 mov	 eax, __ehhandler$?SetInfo@InventorySelectItemBtn@@IAE_NXZ
  00007	e8 00 00 00 00	 call	 __EH_prolog3
  0000c	8b f1		 mov	 esi, ecx

; 104  : 	if( m_ItemInfo.m_iMagicCode == -1 )

  0000e	83 be 64 02 00
	00 ff		 cmp	 DWORD PTR [esi+612], -1
  00015	75 07		 jne	 SHORT $LN6@SetInfo
$LN18@SetInfo:

; 105  : 		return false;

  00017	32 c0		 xor	 al, al
  00019	e9 53 02 00 00	 jmp	 $LN7@SetInfo
$LN6@SetInfo:

; 106  : 
; 107  : 	// icon btn
; 108  : 	ShowChildWnd( ID_ICON_BTN );

  0001e	8b 1d 00 00 00
	00		 mov	 ebx, DWORD PTR __imp_?ShowChildWnd@ioWnd@@QAEXK_N@Z
  00024	33 ff		 xor	 edi, edi
  00026	57		 push	 edi
  00027	6a 01		 push	 1
  00029	ff d3		 call	 ebx

; 109  : 	ShowChildWnd( ID_SELECT_BTN );

  0002b	57		 push	 edi
  0002c	6a 02		 push	 2
  0002e	8b ce		 mov	 ecx, esi
  00030	ff d3		 call	 ebx

; 110  : 
; 111  : 	InventoryIconBtn *pBtn = dynamic_cast< InventoryIconBtn* > ( FindChildWnd( ID_ICON_BTN ) );

  00032	57		 push	 edi
  00033	68 00 00 00 00	 push	 OFFSET ??_R0?AVInventoryIconBtn@@@8
  00038	68 00 00 00 00	 push	 OFFSET ??_R0?AVioWnd@@@8
  0003d	57		 push	 edi
  0003e	6a 01		 push	 1
  00040	8b ce		 mov	 ecx, esi
  00042	ff 15 00 00 00
	00		 call	 DWORD PTR __imp_?FindChildWnd@ioWnd@@QAEPAV1@K@Z
  00048	50		 push	 eax
  00049	e8 00 00 00 00	 call	 ___RTDynamicCast
  0004e	8b d8		 mov	 ebx, eax
  00050	83 c4 14	 add	 esp, 20			; 00000014H

; 112  : 	if( !pBtn )

  00053	3b df		 cmp	 ebx, edi
  00055	75 1c		 jne	 SHORT $LN5@SetInfo

; 113  : 	{
; 114  : 		LOG.PrintTimeAndLog( 0, "%s pBtn == NULL.", __FUNCTION__ );

  00057	68 00 00 00 00	 push	 OFFSET ??_C@_0CA@BNJCCAPA@InventorySelectItemBtn?3?3SetInfo?$AA@
  0005c	68 00 00 00 00	 push	 OFFSET ??_C@_0BB@KHJEJDJO@?$CFs?5pBtn?5?$DN?$DN?5NULL?4?$AA@
  00061	57		 push	 edi
  00062	ff 35 00 00 00
	00		 push	 DWORD PTR __imp_?LOG@@3VCLog@@A
  00068	ff 15 00 00 00
	00		 call	 DWORD PTR __imp_?PrintTimeAndLog@CLog@@QAAXHPADZZ
  0006e	83 c4 10	 add	 esp, 16			; 00000010H

; 115  : 		return false;

  00071	eb a4		 jmp	 SHORT $LN18@SetInfo
$LN5@SetInfo:

; 116  : 	}
; 117  : 
; 118  : 	ioUIRenderImage *pImg = NULL;
; 119  : 	ioHashString szIcon = m_ItemInfo.m_szIconName;

  00073	8d 86 80 02 00
	00		 lea	 eax, DWORD PTR [esi+640]
  00079	50		 push	 eax
  0007a	8d 4d e0	 lea	 ecx, DWORD PTR _szIcon$[ebp]
  0007d	89 7d f0	 mov	 DWORD PTR _pImg$[ebp], edi
  00080	ff 15 00 00 00
	00		 call	 DWORD PTR __imp_??0ioHashString@@QAE@ABV0@@Z

; 120  : 	if( !szIcon.IsEmpty() )

  00086	8d 4d e0	 lea	 ecx, DWORD PTR _szIcon$[ebp]
  00089	89 7d fc	 mov	 DWORD PTR __$EHRec$[ebp+8], edi
  0008c	ff 15 00 00 00
	00		 call	 DWORD PTR __imp_?IsEmpty@ioHashString@@QBE_NXZ
  00092	84 c0		 test	 al, al
  00094	75 16		 jne	 SHORT $LN4@SetInfo

; 121  : 		pImg = g_UIImageSetMgr.CreateImageByFullName( szIcon );

  00096	8d 45 e0	 lea	 eax, DWORD PTR _szIcon$[ebp]
  00099	57		 push	 edi
  0009a	50		 push	 eax
  0009b	ff 15 00 00 00
	00		 call	 DWORD PTR __imp_?GetSingleton@ioUIImageSetManager@@SAAAV1@XZ
  000a1	8b c8		 mov	 ecx, eax
  000a3	ff 15 00 00 00
	00		 call	 DWORD PTR __imp_?CreateImageByFullName@ioUIImageSetManager@@QAEPAVioUIRenderImage@@ABVioHashString@@_N@Z
  000a9	89 45 f0	 mov	 DWORD PTR _pImg$[ebp], eax
$LN4@SetInfo:

; 122  : 	pBtn->SetIcon( pImg, 1.0f, 1.0f );

  000ac	f3 0f 10 05 00
	00 00 00	 movss	 xmm0, DWORD PTR __real@3f800000
  000b4	57		 push	 edi
  000b5	57		 push	 edi
  000b6	51		 push	 ecx
  000b7	51		 push	 ecx
  000b8	f3 0f 11 44 24
	04		 movss	 DWORD PTR [esp+4], xmm0
  000be	f3 0f 11 04 24	 movss	 DWORD PTR [esp], xmm0
  000c3	ff 75 f0	 push	 DWORD PTR _pImg$[ebp]
  000c6	8b cb		 mov	 ecx, ebx
  000c8	e8 00 00 00 00	 call	 ?SetIcon@InventoryIconBtn@@QAE_NPAVioUIRenderImage@@MMHW4NumberType@1@@Z ; InventoryIconBtn::SetIcon

; 123  : 	pBtn->SetGradeType( m_ItemInfo.m_nGrade );

  000cd	8b 86 b4 02 00
	00		 mov	 eax, DWORD PTR [esi+692]
  000d3	89 83 84 02 00
	00		 mov	 DWORD PTR [ebx+644], eax

; 124  : 	pBtn->SetMarkType( INVENTORY_MARK_TYPE_NONE );

  000d9	89 bb 3c 02 00
	00		 mov	 DWORD PTR [ebx+572], edi

; 125  : 	pBtn->SetCostume( m_bIsCostume );

  000df	8a 86 b8 02 00
	00		 mov	 al, BYTE PTR [esi+696]

; 126  : 
; 127  : 	// desc
; 128  : 	ClearDesc();

  000e5	8b ce		 mov	 ecx, esi
  000e7	88 83 80 02 00
	00		 mov	 BYTE PTR [ebx+640], al
  000ed	e8 00 00 00 00	 call	 ?ClearDesc@InventorySelectItemBtn@@IAEXXZ ; InventorySelectItemBtn::ClearDesc

; 129  : 
; 130  : 	if ( !m_ItemInfo.m_szName.IsEmpty() )

  000f2	8d 8e 70 02 00
	00		 lea	 ecx, DWORD PTR [esi+624]
  000f8	ff 15 00 00 00
	00		 call	 DWORD PTR __imp_?IsEmpty@ioHashString@@QBE_NXZ
  000fe	8b 1d 00 00 00
	00		 mov	 ebx, DWORD PTR __imp_?GetString@ioStringManager@@QAEPADPBD0HW4FileNamePrefix@1@@Z
  00104	84 c0		 test	 al, al
  00106	75 68		 jne	 SHORT $LN3@SetInfo

; 131  : 	{
; 132  : 		m_szDescArray[0].SetTextStyle( TS_NORMAL );

  00108	8d 8e fc 01 00
	00		 lea	 ecx, DWORD PTR [esi+508]
  0010e	57		 push	 edi
  0010f	e8 00 00 00 00	 call	 ?SetTextStyle@ioComplexStringPrinter@@QAEXW4TextStyle@@@Z ; ioComplexStringPrinter::SetTextStyle

; 133  : 		m_szDescArray[0].SetBkColor( 0, 0, 0 );	

  00114	57		 push	 edi
  00115	57		 push	 edi
  00116	57		 push	 edi
  00117	8d 8e fc 01 00
	00		 lea	 ecx, DWORD PTR [esi+508]
  0011d	e8 00 00 00 00	 call	 ?SetBkColor@ioComplexStringPrinter@@QAEXHHH@Z ; ioComplexStringPrinter::SetBkColor

; 134  : 		m_szDescArray[0].SetTextColor( TCT_DEFAULT_DARKGRAY ); // 

  00122	68 3a 3a 3a ff	 push	 -12961222		; ff3a3a3aH
  00127	8d 8e fc 01 00
	00		 lea	 ecx, DWORD PTR [esi+508]
  0012d	e8 00 00 00 00	 call	 ?SetTextColor@ioComplexStringPrinter@@QAEXK@Z ; ioComplexStringPrinter::SetTextColor

; 135  : 		m_szDescArray[0].AddTextPiece( FONT_SIZE_13, STR(1), m_ItemInfo.m_szName.c_str() );

  00132	8d 8e 70 02 00
	00		 lea	 ecx, DWORD PTR [esi+624]
  00138	ff 15 00 00 00
	00		 call	 DWORD PTR __imp_?c_str@ioHashString@@QBEPBDXZ
  0013e	50		 push	 eax
  0013f	57		 push	 edi
  00140	6a 01		 push	 1
  00142	68 00 00 00 00	 push	 OFFSET ??_C@_00CNPNBAHC@?$AA@
  00147	68 00 00 00 00	 push	 OFFSET ??_C@_0CA@BNJCCAPA@InventorySelectItemBtn?3?3SetInfo?$AA@
  0014c	ff 15 00 00 00
	00		 call	 DWORD PTR __imp_?GetSingleton@ioStringManager@@SAAAV1@XZ
  00152	8b c8		 mov	 ecx, eax
  00154	ff d3		 call	 ebx
  00156	f3 0f 10 05 00
	00 00 00	 movss	 xmm0, DWORD PTR __real@3f266666
  0015e	50		 push	 eax
  0015f	51		 push	 ecx
  00160	8d 8e fc 01 00
	00		 lea	 ecx, DWORD PTR [esi+508]
  00166	f3 0f 11 04 24	 movss	 DWORD PTR [esp], xmm0
  0016b	e8 00 00 00 00	 call	 ?AddTextPiece@ioComplexStringPrinter@@QAEXMPBD0@Z ; ioComplexStringPrinter::AddTextPiece
$LN3@SetInfo:

; 136  : 	}
; 137  : 
; 138  : 	if ( !m_ItemInfo.m_szSubText.IsEmpty() )

  00170	8d 8e 90 02 00
	00		 lea	 ecx, DWORD PTR [esi+656]
  00176	ff 15 00 00 00
	00		 call	 DWORD PTR __imp_?IsEmpty@ioHashString@@QBE_NXZ
  0017c	84 c0		 test	 al, al
  0017e	75 74		 jne	 SHORT $LN2@SetInfo

; 139  : 	{
; 140  : 		m_szDescArray[1].ClearList();

  00180	8d 8e 1c 02 00
	00		 lea	 ecx, DWORD PTR [esi+540]
  00186	e8 00 00 00 00	 call	 ?ClearList@ioComplexStringPrinter@@QAEXXZ ; ioComplexStringPrinter::ClearList

; 141  : 		m_szDescArray[1].SetTextStyle( TS_NORMAL );

  0018b	57		 push	 edi
  0018c	8d 8e 1c 02 00
	00		 lea	 ecx, DWORD PTR [esi+540]
  00192	e8 00 00 00 00	 call	 ?SetTextStyle@ioComplexStringPrinter@@QAEXW4TextStyle@@@Z ; ioComplexStringPrinter::SetTextStyle

; 142  : 		m_szDescArray[1].SetBkColor( 0, 0, 0 );	

  00197	57		 push	 edi
  00198	57		 push	 edi
  00199	57		 push	 edi
  0019a	8d 8e 1c 02 00
	00		 lea	 ecx, DWORD PTR [esi+540]
  001a0	e8 00 00 00 00	 call	 ?SetBkColor@ioComplexStringPrinter@@QAEXHHH@Z ; ioComplexStringPrinter::SetBkColor

; 143  : 		m_szDescArray[1].SetTextColor( m_ItemInfo.m_dwSubTextColor );

  001a5	ff b6 a0 02 00
	00		 push	 DWORD PTR [esi+672]
  001ab	8d 8e 1c 02 00
	00		 lea	 ecx, DWORD PTR [esi+540]
  001b1	e8 00 00 00 00	 call	 ?SetTextColor@ioComplexStringPrinter@@QAEXK@Z ; ioComplexStringPrinter::SetTextColor

; 144  : 		m_szDescArray[1].AddTextPiece( FONT_SIZE_13, STR(2), m_ItemInfo.m_szSubText.c_str() );

  001b6	8d 8e 90 02 00
	00		 lea	 ecx, DWORD PTR [esi+656]
  001bc	ff 15 00 00 00
	00		 call	 DWORD PTR __imp_?c_str@ioHashString@@QBEPBDXZ
  001c2	50		 push	 eax
  001c3	57		 push	 edi
  001c4	6a 02		 push	 2
  001c6	68 00 00 00 00	 push	 OFFSET ??_C@_00CNPNBAHC@?$AA@
  001cb	68 00 00 00 00	 push	 OFFSET ??_C@_0CA@BNJCCAPA@InventorySelectItemBtn?3?3SetInfo?$AA@
  001d0	ff 15 00 00 00
	00		 call	 DWORD PTR __imp_?GetSingleton@ioStringManager@@SAAAV1@XZ
  001d6	8b c8		 mov	 ecx, eax
  001d8	ff d3		 call	 ebx
  001da	f3 0f 10 05 00
	00 00 00	 movss	 xmm0, DWORD PTR __real@3f266666
  001e2	50		 push	 eax
  001e3	51		 push	 ecx
  001e4	8d 8e 1c 02 00
	00		 lea	 ecx, DWORD PTR [esi+540]
  001ea	f3 0f 11 04 24	 movss	 DWORD PTR [esp], xmm0
  001ef	e8 00 00 00 00	 call	 ?AddTextPiece@ioComplexStringPrinter@@QAEXMPBD0@Z ; ioComplexStringPrinter::AddTextPiece
$LN2@SetInfo:

; 145  : 	}
; 146  : 
; 147  : 	if ( !m_ItemInfo.m_szSubText2.IsEmpty() )

  001f4	8d 8e a4 02 00
	00		 lea	 ecx, DWORD PTR [esi+676]
  001fa	89 4d f0	 mov	 DWORD PTR tv316[ebp], ecx
  001fd	ff 15 00 00 00
	00		 call	 DWORD PTR __imp_?IsEmpty@ioHashString@@QBE_NXZ
  00203	84 c0		 test	 al, al
  00205	75 5b		 jne	 SHORT $LN1@SetInfo

; 148  : 	{
; 149  : 		m_szDescArray[2].SetTextStyle( TS_NORMAL );

  00207	81 c6 3c 02 00
	00		 add	 esi, 572		; 0000023cH
  0020d	57		 push	 edi
  0020e	8b ce		 mov	 ecx, esi
  00210	e8 00 00 00 00	 call	 ?SetTextStyle@ioComplexStringPrinter@@QAEXW4TextStyle@@@Z ; ioComplexStringPrinter::SetTextStyle

; 150  : 		m_szDescArray[2].SetBkColor( 0, 0, 0 );	

  00215	57		 push	 edi
  00216	57		 push	 edi
  00217	57		 push	 edi
  00218	8b ce		 mov	 ecx, esi
  0021a	e8 00 00 00 00	 call	 ?SetBkColor@ioComplexStringPrinter@@QAEXHHH@Z ; ioComplexStringPrinter::SetBkColor

; 151  : 		m_szDescArray[2].SetTextColor( TCT_DEFAULT_GRAY );

  0021f	68 6e 6e 6e ff	 push	 -9539986		; ff6e6e6eH
  00224	8b ce		 mov	 ecx, esi
  00226	e8 00 00 00 00	 call	 ?SetTextColor@ioComplexStringPrinter@@QAEXK@Z ; ioComplexStringPrinter::SetTextColor

; 152  : 		m_szDescArray[2].AddTextPiece( FONT_SIZE_11, STR(3), m_ItemInfo.m_szSubText2.c_str() );

  0022b	8b 4d f0	 mov	 ecx, DWORD PTR tv316[ebp]
  0022e	ff 15 00 00 00
	00		 call	 DWORD PTR __imp_?c_str@ioHashString@@QBEPBDXZ
  00234	50		 push	 eax
  00235	57		 push	 edi
  00236	6a 03		 push	 3
  00238	68 00 00 00 00	 push	 OFFSET ??_C@_00CNPNBAHC@?$AA@
  0023d	68 00 00 00 00	 push	 OFFSET ??_C@_0CA@BNJCCAPA@InventorySelectItemBtn?3?3SetInfo?$AA@
  00242	ff 15 00 00 00
	00		 call	 DWORD PTR __imp_?GetSingleton@ioStringManager@@SAAAV1@XZ
  00248	8b c8		 mov	 ecx, eax
  0024a	ff d3		 call	 ebx
  0024c	f3 0f 10 05 00
	00 00 00	 movss	 xmm0, DWORD PTR __real@3f0ccccd
  00254	50		 push	 eax
  00255	51		 push	 ecx
  00256	8b ce		 mov	 ecx, esi
  00258	f3 0f 11 04 24	 movss	 DWORD PTR [esp], xmm0
  0025d	e8 00 00 00 00	 call	 ?AddTextPiece@ioComplexStringPrinter@@QAEXMPBD0@Z ; ioComplexStringPrinter::AddTextPiece
$LN1@SetInfo:

; 153  : 	}
; 154  : 
; 155  : 	return true;

  00262	83 4d fc ff	 or	 DWORD PTR __$EHRec$[ebp+8], -1
  00266	8d 4d e0	 lea	 ecx, DWORD PTR _szIcon$[ebp]
  00269	ff 15 00 00 00
	00		 call	 DWORD PTR __imp_??1ioHashString@@QAE@XZ
  0026f	b0 01		 mov	 al, 1
$LN7@SetInfo:

; 156  : }

  00271	e8 00 00 00 00	 call	 __EH_epilog3
  00276	c3		 ret	 0
_TEXT	ENDS
;	COMDAT text$x
text$x	SEGMENT
__unwindfunclet$?SetInfo@InventorySelectItemBtn@@IAE_NXZ$0:
  00000	8d 4d e0	 lea	 ecx, DWORD PTR _szIcon$[ebp]
  00003	ff 25 00 00 00
	00		 jmp	 DWORD PTR __imp_??1ioHashString@@QAE@XZ
__ehhandler$?SetInfo@InventorySelectItemBtn@@IAE_NXZ:
  00009	8b 54 24 08	 mov	 edx, DWORD PTR [esp+8]
  0000d	8d 42 0c	 lea	 eax, DWORD PTR [edx+12]
  00010	8b 4a dc	 mov	 ecx, DWORD PTR [edx-36]
  00013	33 c8		 xor	 ecx, eax
  00015	e8 00 00 00 00	 call	 @__security_check_cookie@4
  0001a	b8 00 00 00 00	 mov	 eax, OFFSET __ehfuncinfo$?SetInfo@InventorySelectItemBtn@@IAE_NXZ
  0001f	e9 00 00 00 00	 jmp	 ___CxxFrameHandler3
text$x	ENDS
?SetInfo@InventorySelectItemBtn@@IAE_NXZ ENDP		; InventorySelectItemBtn::SetInfo
PUBLIC	??_C@_01JOAMLHOP@?9?$AA@			; `string'
PUBLIC	??_C@_0CB@LHLLCDHN@InventorySelectItemBtn?3?3SetBlank@ ; `string'
PUBLIC	?SetBlank@InventorySelectItemBtn@@QAEXXZ	; InventorySelectItemBtn::SetBlank
EXTRN	?AddTextPiece@ioComplexStringPrinter@@QAAXMPBDZZ:PROC ; ioComplexStringPrinter::AddTextPiece
EXTRN	__imp_?HideChildWnd@ioWnd@@QAEXK_N@Z:PROC
;	COMDAT ??_C@_01JOAMLHOP@?9?$AA@
CONST	SEGMENT
??_C@_01JOAMLHOP@?9?$AA@ DB '-', 00H			; `string'
CONST	ENDS
;	COMDAT ??_C@_0CB@LHLLCDHN@InventorySelectItemBtn?3?3SetBlank@
CONST	SEGMENT
??_C@_0CB@LHLLCDHN@InventorySelectItemBtn?3?3SetBlank@ DB 'InventorySelec'
	DB	'tItemBtn::SetBlank', 00H			; `string'
; Function compile flags: /Ogsp
CONST	ENDS
;	COMDAT ?SetBlank@InventorySelectItemBtn@@QAEXXZ
_TEXT	SEGMENT
?SetBlank@InventorySelectItemBtn@@QAEXXZ PROC		; InventorySelectItemBtn::SetBlank, COMDAT
; _this$ = ecx

; 159  : {

  00000	53		 push	 ebx
  00001	56		 push	 esi
  00002	8b f1		 mov	 esi, ecx

; 160  : 	SetInActive();

  00004	8b 06		 mov	 eax, DWORD PTR [esi]
  00006	57		 push	 edi
  00007	ff 50 24	 call	 DWORD PTR [eax+36]

; 161  : 
; 162  : 	m_ItemInfo.Init();

  0000a	8d 8e 64 02 00
	00		 lea	 ecx, DWORD PTR [esi+612]
  00010	e8 00 00 00 00	 call	 ?Init@InventorySelectItem@@QAEXXZ ; InventorySelectItem::Init

; 163  : 
; 164  : 	HideChildWnd( ID_ICON_BTN );

  00015	8b 3d 00 00 00
	00		 mov	 edi, DWORD PTR __imp_?HideChildWnd@ioWnd@@QAEXK_N@Z
  0001b	33 db		 xor	 ebx, ebx
  0001d	53		 push	 ebx
  0001e	6a 01		 push	 1
  00020	8b ce		 mov	 ecx, esi
  00022	ff d7		 call	 edi

; 165  : 	HideChildWnd( ID_SELECT_BTN );

  00024	53		 push	 ebx
  00025	6a 02		 push	 2
  00027	8b ce		 mov	 ecx, esi
  00029	ff d7		 call	 edi

; 166  : 
; 167  : 	ClearDesc();

  0002b	8b ce		 mov	 ecx, esi
  0002d	e8 00 00 00 00	 call	 ?ClearDesc@InventorySelectItemBtn@@IAEXXZ ; InventorySelectItemBtn::ClearDesc

; 168  : 
; 169  : 	m_szDescArray[0].SetTextStyle( TS_NORMAL );

  00032	53		 push	 ebx
  00033	8d 8e fc 01 00
	00		 lea	 ecx, DWORD PTR [esi+508]
  00039	e8 00 00 00 00	 call	 ?SetTextStyle@ioComplexStringPrinter@@QAEXW4TextStyle@@@Z ; ioComplexStringPrinter::SetTextStyle

; 170  : 	m_szDescArray[0].SetBkColor( 0, 0, 0 );	

  0003e	53		 push	 ebx
  0003f	53		 push	 ebx
  00040	53		 push	 ebx
  00041	8d 8e fc 01 00
	00		 lea	 ecx, DWORD PTR [esi+508]
  00047	e8 00 00 00 00	 call	 ?SetBkColor@ioComplexStringPrinter@@QAEXHHH@Z ; ioComplexStringPrinter::SetBkColor

; 171  : 	m_szDescArray[0].SetTextColor( TCT_DEFAULT_GRAY );

  0004c	bf 6e 6e 6e ff	 mov	 edi, -9539986		; ff6e6e6eH
  00051	57		 push	 edi
  00052	8d 8e fc 01 00
	00		 lea	 ecx, DWORD PTR [esi+508]
  00058	e8 00 00 00 00	 call	 ?SetTextColor@ioComplexStringPrinter@@QAEXK@Z ; ioComplexStringPrinter::SetTextColor

; 172  : 	m_szDescArray[0].AddTextPiece( FONT_SIZE_13, STR(1) );

  0005d	53		 push	 ebx
  0005e	6a 01		 push	 1
  00060	68 00 00 00 00	 push	 OFFSET ??_C@_00CNPNBAHC@?$AA@
  00065	68 00 00 00 00	 push	 OFFSET ??_C@_0CB@LHLLCDHN@InventorySelectItemBtn?3?3SetBlank@
  0006a	ff 15 00 00 00
	00		 call	 DWORD PTR __imp_?GetSingleton@ioStringManager@@SAAAV1@XZ
  00070	8b c8		 mov	 ecx, eax
  00072	ff 15 00 00 00
	00		 call	 DWORD PTR __imp_?GetString@ioStringManager@@QAEPADPBD0HW4FileNamePrefix@1@@Z
  00078	f3 0f 10 05 00
	00 00 00	 movss	 xmm0, DWORD PTR __real@3f266666
  00080	50		 push	 eax
  00081	51		 push	 ecx
  00082	8d 86 fc 01 00
	00		 lea	 eax, DWORD PTR [esi+508]
  00088	f3 0f 11 04 24	 movss	 DWORD PTR [esp], xmm0
  0008d	50		 push	 eax
  0008e	e8 00 00 00 00	 call	 ?AddTextPiece@ioComplexStringPrinter@@QAAXMPBDZZ ; ioComplexStringPrinter::AddTextPiece
  00093	83 c4 0c	 add	 esp, 12			; 0000000cH

; 173  : 
; 174  : 	m_szDescArray[1].SetTextStyle( TS_NORMAL );

  00096	8d 8e 1c 02 00
	00		 lea	 ecx, DWORD PTR [esi+540]
  0009c	53		 push	 ebx
  0009d	e8 00 00 00 00	 call	 ?SetTextStyle@ioComplexStringPrinter@@QAEXW4TextStyle@@@Z ; ioComplexStringPrinter::SetTextStyle

; 175  : 	m_szDescArray[1].SetBkColor( 0, 0, 0 );	

  000a2	53		 push	 ebx
  000a3	53		 push	 ebx
  000a4	53		 push	 ebx
  000a5	8d 8e 1c 02 00
	00		 lea	 ecx, DWORD PTR [esi+540]
  000ab	e8 00 00 00 00	 call	 ?SetBkColor@ioComplexStringPrinter@@QAEXHHH@Z ; ioComplexStringPrinter::SetBkColor

; 176  : 	m_szDescArray[1].SetTextColor( TCT_DEFAULT_GRAY );

  000b0	57		 push	 edi
  000b1	8d 8e 1c 02 00
	00		 lea	 ecx, DWORD PTR [esi+540]
  000b7	e8 00 00 00 00	 call	 ?SetTextColor@ioComplexStringPrinter@@QAEXK@Z ; ioComplexStringPrinter::SetTextColor

; 177  : 	m_szDescArray[1].AddTextPiece( FONT_SIZE_11, "-" );

  000bc	f3 0f 10 05 00
	00 00 00	 movss	 xmm0, DWORD PTR __real@3f0ccccd
  000c4	68 00 00 00 00	 push	 OFFSET ??_C@_01JOAMLHOP@?9?$AA@
  000c9	51		 push	 ecx
  000ca	8d 86 1c 02 00
	00		 lea	 eax, DWORD PTR [esi+540]
  000d0	f3 0f 11 04 24	 movss	 DWORD PTR [esp], xmm0
  000d5	50		 push	 eax
  000d6	e8 00 00 00 00	 call	 ?AddTextPiece@ioComplexStringPrinter@@QAAXMPBDZZ ; ioComplexStringPrinter::AddTextPiece
  000db	83 c4 0c	 add	 esp, 12			; 0000000cH

; 178  : 
; 179  : 	m_szDescArray[2].SetTextStyle( TS_NORMAL );

  000de	8d 8e 3c 02 00
	00		 lea	 ecx, DWORD PTR [esi+572]
  000e4	53		 push	 ebx
  000e5	e8 00 00 00 00	 call	 ?SetTextStyle@ioComplexStringPrinter@@QAEXW4TextStyle@@@Z ; ioComplexStringPrinter::SetTextStyle

; 180  : 	m_szDescArray[2].SetBkColor( 0, 0, 0 );	

  000ea	53		 push	 ebx
  000eb	53		 push	 ebx
  000ec	53		 push	 ebx
  000ed	8d 8e 3c 02 00
	00		 lea	 ecx, DWORD PTR [esi+572]
  000f3	e8 00 00 00 00	 call	 ?SetBkColor@ioComplexStringPrinter@@QAEXHHH@Z ; ioComplexStringPrinter::SetBkColor

; 181  : 	m_szDescArray[2].SetTextColor( TCT_DEFAULT_GRAY );

  000f8	57		 push	 edi
  000f9	8d be 3c 02 00
	00		 lea	 edi, DWORD PTR [esi+572]
  000ff	8b cf		 mov	 ecx, edi
  00101	e8 00 00 00 00	 call	 ?SetTextColor@ioComplexStringPrinter@@QAEXK@Z ; ioComplexStringPrinter::SetTextColor

; 182  : 	m_szDescArray[2].AddTextPiece( FONT_SIZE_11, "" );

  00106	f3 0f 10 05 00
	00 00 00	 movss	 xmm0, DWORD PTR __real@3f0ccccd
  0010e	68 00 00 00 00	 push	 OFFSET ??_C@_00CNPNBAHC@?$AA@
  00113	51		 push	 ecx
  00114	f3 0f 11 04 24	 movss	 DWORD PTR [esp], xmm0
  00119	57		 push	 edi
  0011a	e8 00 00 00 00	 call	 ?AddTextPiece@ioComplexStringPrinter@@QAAXMPBDZZ ; ioComplexStringPrinter::AddTextPiece
  0011f	83 c4 0c	 add	 esp, 12			; 0000000cH
  00122	5f		 pop	 edi

; 183  : 
; 184  : 	m_bIsCostume = false;

  00123	88 9e b8 02 00
	00		 mov	 BYTE PTR [esi+696], bl
  00129	5e		 pop	 esi
  0012a	5b		 pop	 ebx

; 185  : }

  0012b	c3		 ret	 0
?SetBlank@InventorySelectItemBtn@@QAEXXZ ENDP		; InventorySelectItemBtn::SetBlank
_TEXT	ENDS
PUBLIC	??_C@_0CE@DMLEJCOI@InventorySelectItemWnd?3?3SetRadio@ ; `string'
PUBLIC	?SetRadioBtn@InventorySelectItemWnd@@IAEXABV?$vector@VioHashString@@V?$allocator@VioHashString@@@std@@@std@@@Z ; InventorySelectItemWnd::SetRadioBtn
EXTRN	__imp_?ShowWnd@ioWnd@@QAEXXZ:PROC
EXTRN	__imp_?SetTitleText@ioWnd@@QAEXPBD0H@Z:PROC
;	COMDAT ??_C@_0CE@DMLEJCOI@InventorySelectItemWnd?3?3SetRadio@
; File c:\program files (x86)\microsoft visual studio 10.0\vc\include\vector
CONST	SEGMENT
??_C@_0CE@DMLEJCOI@InventorySelectItemWnd?3?3SetRadio@ DB 'InventorySelec'
	DB	'tItemWnd::SetRadioBtn', 00H			; `string'
; Function compile flags: /Ogsp
; File d:\lost saga for developer\youtube\tutorial\source\src\lsclient\gui\inventoryselectitemwnd.cpp
CONST	ENDS
;	COMDAT ?SetRadioBtn@InventorySelectItemWnd@@IAEXABV?$vector@VioHashString@@V?$allocator@VioHashString@@@std@@@std@@@Z
_TEXT	SEGMENT
_pRadioButton$505825 = -8				; size = 4
tv285 = -4						; size = 4
_i$505821 = 8						; size = 4
_pRadioButton$505810 = 8				; size = 4
_vRadioBtnNameList$ = 8					; size = 4
?SetRadioBtn@InventorySelectItemWnd@@IAEXABV?$vector@VioHashString@@V?$allocator@VioHashString@@@std@@@std@@@Z PROC ; InventorySelectItemWnd::SetRadioBtn, COMDAT
; _this$ = ecx

; 323  : {

  00000	55		 push	 ebp
  00001	8b ec		 mov	 ebp, esp
  00003	51		 push	 ecx
  00004	51		 push	 ecx
  00005	53		 push	 ebx

; 324  : 	int iBtnSize = vRadioBtnNameList.size();

  00006	8b 5d 08	 mov	 ebx, DWORD PTR _vRadioBtnNameList$[ebp]
  00009	56		 push	 esi
  0000a	57		 push	 edi
  0000b	8b 7b 04	 mov	 edi, DWORD PTR [ebx+4]
  0000e	2b 3b		 sub	 edi, DWORD PTR [ebx]
  00010	8b f1		 mov	 esi, ecx
  00012	c1 ff 04	 sar	 edi, 4

; 325  : 
; 326  : 	switch( iBtnSize )

  00015	8b c7		 mov	 eax, edi
  00017	33 c9		 xor	 ecx, ecx
  00019	2b c1		 sub	 eax, ecx
  0001b	0f 84 d3 00 00
	00		 je	 $LN12@SetRadioBt
  00021	48		 dec	 eax
  00022	0f 84 b5 00 00
	00		 je	 $LN10@SetRadioBt
  00028	48		 dec	 eax
  00029	0f 84 90 00 00
	00		 je	 $LN9@SetRadioBt
  0002f	48		 dec	 eax
  00030	74 6d		 je	 SHORT $LN8@SetRadioBt
  00032	48		 dec	 eax
  00033	74 4a		 je	 SHORT $LN7@SetRadioBt
  00035	48		 dec	 eax
  00036	74 27		 je	 SHORT $LN6@SetRadioBt
  00038	48		 dec	 eax
  00039	0f 85 22 01 00
	00		 jne	 $LN24@SetRadioBt

; 365  : 	case 6:
; 366  : 		{
; 367  : 			m_dwCurTabID = m_dwCurMinTabID = ID_TAB6_1_BTN;

  0003f	b8 a1 00 00 00	 mov	 eax, 161		; 000000a1H
  00044	89 86 68 01 00
	00		 mov	 DWORD PTR [esi+360], eax
  0004a	89 86 64 01 00
	00		 mov	 DWORD PTR [esi+356], eax

; 368  : 			m_dwCurMaxTabID = ID_TAB6_6_BTN;

  00050	c7 86 6c 01 00
	00 a6 00 00 00	 mov	 DWORD PTR [esi+364], 166 ; 000000a6H

; 369  : 		}
; 370  : 		break;

  0005a	e9 02 01 00 00	 jmp	 $LN24@SetRadioBt
$LN6@SetRadioBt:

; 359  : 	case 5:
; 360  : 		{
; 361  : 			m_dwCurTabID = m_dwCurMinTabID = ID_TAB5_1_BTN;

  0005f	b8 97 00 00 00	 mov	 eax, 151		; 00000097H
  00064	89 86 68 01 00
	00		 mov	 DWORD PTR [esi+360], eax
  0006a	89 86 64 01 00
	00		 mov	 DWORD PTR [esi+356], eax

; 362  : 			m_dwCurMaxTabID = ID_TAB5_5_BTN;

  00070	c7 86 6c 01 00
	00 9b 00 00 00	 mov	 DWORD PTR [esi+364], 155 ; 0000009bH

; 363  : 		}
; 364  : 		break;

  0007a	e9 e2 00 00 00	 jmp	 $LN24@SetRadioBt
$LN7@SetRadioBt:

; 353  : 	case 4:
; 354  : 		{
; 355  : 			m_dwCurTabID = m_dwCurMinTabID = ID_TAB4_1_BTN;

  0007f	b8 8d 00 00 00	 mov	 eax, 141		; 0000008dH
  00084	89 86 68 01 00
	00		 mov	 DWORD PTR [esi+360], eax
  0008a	89 86 64 01 00
	00		 mov	 DWORD PTR [esi+356], eax

; 356  : 			m_dwCurMaxTabID = ID_TAB4_4_BTN;

  00090	c7 86 6c 01 00
	00 90 00 00 00	 mov	 DWORD PTR [esi+364], 144 ; 00000090H

; 357  : 		}
; 358  : 		break;

  0009a	e9 c2 00 00 00	 jmp	 $LN24@SetRadioBt
$LN8@SetRadioBt:

; 347  : 	case 3:
; 348  : 		{
; 349  : 			m_dwCurTabID = m_dwCurMinTabID = ID_TAB3_1_BTN;

  0009f	b8 83 00 00 00	 mov	 eax, 131		; 00000083H
  000a4	89 86 68 01 00
	00		 mov	 DWORD PTR [esi+360], eax
  000aa	89 86 64 01 00
	00		 mov	 DWORD PTR [esi+356], eax

; 350  : 			m_dwCurMaxTabID = ID_TAB3_3_BTN;

  000b0	c7 86 6c 01 00
	00 85 00 00 00	 mov	 DWORD PTR [esi+364], 133 ; 00000085H

; 351  : 		}
; 352  : 		break;

  000ba	e9 a2 00 00 00	 jmp	 $LN24@SetRadioBt
$LN9@SetRadioBt:

; 341  : 	case 2:
; 342  : 		{
; 343  : 			m_dwCurTabID = m_dwCurMinTabID = ID_TAB2_1_BTN;

  000bf	6a 79		 push	 121			; 00000079H
  000c1	58		 pop	 eax
  000c2	89 86 68 01 00
	00		 mov	 DWORD PTR [esi+360], eax
  000c8	89 86 64 01 00
	00		 mov	 DWORD PTR [esi+356], eax

; 344  : 			m_dwCurMaxTabID = ID_TAB2_2_BTN;

  000ce	c7 86 6c 01 00
	00 7a 00 00 00	 mov	 DWORD PTR [esi+364], 122 ; 0000007aH

; 345  : 		}
; 346  : 		break;

  000d8	e9 84 00 00 00	 jmp	 $LN24@SetRadioBt
$LN10@SetRadioBt:

; 336  : 		}
; 337  : 		break;
; 338  : 	case 1:
; 339  : 		m_dwCurTabID = m_dwCurMinTabID = m_dwCurMaxTabID = ID_TAB1_1_BTN;

  000dd	6a 6f		 push	 111			; 0000006fH
  000df	58		 pop	 eax
  000e0	89 86 6c 01 00
	00		 mov	 DWORD PTR [esi+364], eax
  000e6	89 86 68 01 00
	00		 mov	 DWORD PTR [esi+360], eax
  000ec	89 86 64 01 00
	00		 mov	 DWORD PTR [esi+356], eax

; 340  : 		break;

  000f2	eb 6d		 jmp	 SHORT $LN24@SetRadioBt
$LN12@SetRadioBt:

; 327  : 	{
; 328  : 	case 0 :
; 329  : 		{
; 330  : 			m_dwCurTabID = m_dwCurMinTabID = m_dwCurMaxTabID = ID_TAB1_1_BTN;

  000f4	6a 6f		 push	 111			; 0000006fH
  000f6	58		 pop	 eax

; 331  : 			InventorySelectItemRadioButton *pRadioButton = dynamic_cast<InventorySelectItemRadioButton *>( FindChildWnd( ID_TAB1_1_BTN ) );

  000f7	51		 push	 ecx
  000f8	68 00 00 00 00	 push	 OFFSET ??_R0?AVInventorySelectItemRadioButton@@@8
  000fd	68 00 00 00 00	 push	 OFFSET ??_R0?AVioWnd@@@8
  00102	51		 push	 ecx
  00103	50		 push	 eax
  00104	8b ce		 mov	 ecx, esi
  00106	89 86 6c 01 00
	00		 mov	 DWORD PTR [esi+364], eax
  0010c	89 86 68 01 00
	00		 mov	 DWORD PTR [esi+360], eax
  00112	89 86 64 01 00
	00		 mov	 DWORD PTR [esi+356], eax
  00118	ff 15 00 00 00
	00		 call	 DWORD PTR __imp_?FindChildWnd@ioWnd@@QAEPAV1@K@Z
  0011e	50		 push	 eax
  0011f	e8 00 00 00 00	 call	 ___RTDynamicCast
  00124	83 c4 14	 add	 esp, 20			; 00000014H
  00127	89 45 08	 mov	 DWORD PTR _pRadioButton$505810[ebp], eax

; 332  : 			if ( !pRadioButton )

  0012a	85 c0		 test	 eax, eax
  0012c	74 33		 je	 SHORT $LN24@SetRadioBt

; 333  : 				break;
; 334  : 			pRadioButton->SetTitleText( STR(1) );

  0012e	6a 00		 push	 0
  00130	b8 00 00 00 00	 mov	 eax, OFFSET ??_C@_00CNPNBAHC@?$AA@
  00135	50		 push	 eax
  00136	6a 00		 push	 0
  00138	6a 01		 push	 1
  0013a	50		 push	 eax
  0013b	68 00 00 00 00	 push	 OFFSET ??_C@_0CE@DMLEJCOI@InventorySelectItemWnd?3?3SetRadio@
  00140	ff 15 00 00 00
	00		 call	 DWORD PTR __imp_?GetSingleton@ioStringManager@@SAAAV1@XZ
  00146	8b c8		 mov	 ecx, eax
  00148	ff 15 00 00 00
	00		 call	 DWORD PTR __imp_?GetString@ioStringManager@@QAEPADPBD0HW4FileNamePrefix@1@@Z
  0014e	8b 4d 08	 mov	 ecx, DWORD PTR _pRadioButton$505810[ebp]
  00151	50		 push	 eax
  00152	ff 15 00 00 00
	00		 call	 DWORD PTR __imp_?SetTitleText@ioWnd@@QAEXPBD0H@Z

; 335  : 			pRadioButton->ShowWnd();

  00158	8b 4d 08	 mov	 ecx, DWORD PTR _pRadioButton$505810[ebp]
  0015b	ff 15 00 00 00
	00		 call	 DWORD PTR __imp_?ShowWnd@ioWnd@@QAEXXZ
$LN24@SetRadioBt:

; 371  : 	}
; 372  : 
; 373  : 	for( int i=0 ; i<iBtnSize; ++i )

  00161	83 65 08 00	 and	 DWORD PTR _i$505821[ebp], 0
  00165	85 ff		 test	 edi, edi
  00167	7e 65		 jle	 SHORT $LN22@SetRadioBt
  00169	83 65 fc 00	 and	 DWORD PTR tv285[ebp], 0
$LL25@SetRadioBt:

; 374  : 	{
; 375  : 		InventorySelectItemRadioButton *pRadioButton = dynamic_cast<InventorySelectItemRadioButton *>( FindChildWnd( m_dwCurTabID + i ) );

  0016d	8b 86 64 01 00
	00		 mov	 eax, DWORD PTR [esi+356]
  00173	03 45 08	 add	 eax, DWORD PTR _i$505821[ebp]
  00176	6a 00		 push	 0
  00178	68 00 00 00 00	 push	 OFFSET ??_R0?AVInventorySelectItemRadioButton@@@8
  0017d	68 00 00 00 00	 push	 OFFSET ??_R0?AVioWnd@@@8
  00182	6a 00		 push	 0
  00184	50		 push	 eax
  00185	8b ce		 mov	 ecx, esi
  00187	ff 15 00 00 00
	00		 call	 DWORD PTR __imp_?FindChildWnd@ioWnd@@QAEPAV1@K@Z
  0018d	50		 push	 eax
  0018e	e8 00 00 00 00	 call	 ___RTDynamicCast
  00193	83 c4 14	 add	 esp, 20			; 00000014H
  00196	89 45 f8	 mov	 DWORD PTR _pRadioButton$505825[ebp], eax

; 376  : 		if ( !pRadioButton )

  00199	85 c0		 test	 eax, eax
  0019b	74 31		 je	 SHORT $LN22@SetRadioBt

; 371  : 	}
; 372  : 
; 373  : 	for( int i=0 ; i<iBtnSize; ++i )

  0019d	8b 0b		 mov	 ecx, DWORD PTR [ebx]
  0019f	03 4d fc	 add	 ecx, DWORD PTR tv285[ebp]

; 377  : 			break;
; 378  : 
; 379  : 		pRadioButton->SetTitleText( vRadioBtnNameList[i].c_str() );

  001a2	6a 00		 push	 0
  001a4	68 00 00 00 00	 push	 OFFSET ??_C@_00CNPNBAHC@?$AA@
  001a9	ff 15 00 00 00
	00		 call	 DWORD PTR __imp_?c_str@ioHashString@@QBEPBDXZ
  001af	8b 4d f8	 mov	 ecx, DWORD PTR _pRadioButton$505825[ebp]
  001b2	50		 push	 eax
  001b3	ff 15 00 00 00
	00		 call	 DWORD PTR __imp_?SetTitleText@ioWnd@@QAEXPBD0H@Z

; 380  : 		pRadioButton->ShowWnd();

  001b9	8b 4d f8	 mov	 ecx, DWORD PTR _pRadioButton$505825[ebp]
  001bc	ff 15 00 00 00
	00		 call	 DWORD PTR __imp_?ShowWnd@ioWnd@@QAEXXZ
  001c2	ff 45 08	 inc	 DWORD PTR _i$505821[ebp]
  001c5	83 45 fc 10	 add	 DWORD PTR tv285[ebp], 16 ; 00000010H
  001c9	39 7d 08	 cmp	 DWORD PTR _i$505821[ebp], edi
  001cc	7c 9f		 jl	 SHORT $LL25@SetRadioBt
$LN22@SetRadioBt:
  001ce	5f		 pop	 edi
  001cf	5e		 pop	 esi
  001d0	5b		 pop	 ebx

; 381  : 	}
; 382  : }

  001d1	c9		 leave
  001d2	c2 04 00	 ret	 4
?SetRadioBtn@InventorySelectItemWnd@@IAEXABV?$vector@VioHashString@@V?$allocator@VioHashString@@@std@@@std@@@Z ENDP ; InventorySelectItemWnd::SetRadioBtn
_TEXT	ENDS
PUBLIC	??_R0?AVioScroll@@@8				; ioScroll `RTTI Type Descriptor'
PUBLIC	?iwm_wheel@InventorySelectItemWnd@@UAEXH@Z	; InventorySelectItemWnd::iwm_wheel
EXTRN	__imp_??1ioMouse@@UAE@XZ:PROC
EXTRN	__imp_??0ioMouse@@QAE@XZ:PROC
EXTRN	?GetSingleton@ioSP2GUIManager@@SAAAV1@XZ:PROC	; ioSP2GUIManager::GetSingleton
EXTRN	__imp_?iwm_wheel@ioWnd@@UAEXH@Z:PROC
;	COMDAT ??_R0?AVioScroll@@@8
; File d:\lost saga for developer\youtube\tutorial\source\src\lsclient\gui\iosp2guimanager.h
_DATA	SEGMENT
??_R0?AVioScroll@@@8 DD FLAT:??_7type_info@@6B@		; ioScroll `RTTI Type Descriptor'
	DD	00H
	DB	'.?AVioScroll@@', 00H
_DATA	ENDS
;	COMDAT xdata$x
xdata$x	SEGMENT
__unwindtable$?iwm_wheel@InventorySelectItemWnd@@UAEXH@Z DD 0ffffffffH
	DD	FLAT:__unwindfunclet$?iwm_wheel@InventorySelectItemWnd@@UAEXH@Z$0
	DD	0ffffffffH
	DD	FLAT:__unwindfunclet$?iwm_wheel@InventorySelectItemWnd@@UAEXH@Z$1
__ehfuncinfo$?iwm_wheel@InventorySelectItemWnd@@UAEXH@Z DD 019930522H
	DD	02H
	DD	FLAT:__unwindtable$?iwm_wheel@InventorySelectItemWnd@@UAEXH@Z
	DD	2 DUP(00H)
	DD	2 DUP(00H)
	DD	00H
	DD	01H
; Function compile flags: /Ogsp
; File d:\lost saga for developer\youtube\tutorial\source\src\lsclient\gui\inventoryselectitemwnd.cpp
xdata$x	ENDS
;	COMDAT ?iwm_wheel@InventorySelectItemWnd@@UAEXH@Z
_TEXT	SEGMENT
_NullMouse$505851 = -148				; size = 68
_NullMouse$505844 = -80					; size = 68
__$EHRec$ = -12						; size = 12
_zDelta$ = 8						; size = 4
?iwm_wheel@InventorySelectItemWnd@@UAEXH@Z PROC		; InventorySelectItemWnd::iwm_wheel, COMDAT
; _this$ = ecx

; 390  : {

  00000	68 88 00 00 00	 push	 136			; 00000088H
  00005	b8 00 00 00 00	 mov	 eax, __ehhandler$?iwm_wheel@InventorySelectItemWnd@@UAEXH@Z
  0000a	e8 00 00 00 00	 call	 __EH_prolog3
  0000f	8b f1		 mov	 esi, ecx

; 391  : 	if( !IsShow() )

  00011	ff 15 00 00 00
	00		 call	 DWORD PTR __imp_?IsShow@ioWnd@@QBE_NXZ
  00017	84 c0		 test	 al, al
  00019	75 10		 jne	 SHORT $LN9@iwm_wheel

; 392  : 	{
; 393  : 		ioWnd::iwm_wheel( zDelta );

  0001b	ff 75 08	 push	 DWORD PTR _zDelta$[ebp]
  0001e	8b ce		 mov	 ecx, esi
  00020	ff 15 00 00 00
	00		 call	 DWORD PTR __imp_?iwm_wheel@ioWnd@@UAEXH@Z

; 394  : 	}
; 395  : 	else

  00026	e9 f7 00 00 00	 jmp	 $LN1@iwm_wheel
$LN9@iwm_wheel:

; 396  : 	{ 
; 397  : 		//        .
; 398  : 		if( zDelta == WHEEL_DELTA )

  0002b	83 7d 08 78	 cmp	 DWORD PTR _zDelta$[ebp], 120 ; 00000078H
  0002f	75 6d		 jne	 SHORT $LN7@iwm_wheel

; 399  : 		{
; 400  : 			ioScroll *pScroll = dynamic_cast<ioScroll*>( FindChildWnd( ID_VERT_SCROLL ) );

  00031	33 ff		 xor	 edi, edi
  00033	57		 push	 edi
  00034	68 00 00 00 00	 push	 OFFSET ??_R0?AVioScroll@@@8
  00039	68 00 00 00 00	 push	 OFFSET ??_R0?AVioWnd@@@8
  0003e	57		 push	 edi
  0003f	68 e9 03 00 00	 push	 1001			; 000003e9H
  00044	8b ce		 mov	 ecx, esi
  00046	ff 15 00 00 00
	00		 call	 DWORD PTR __imp_?FindChildWnd@ioWnd@@QAEPAV1@K@Z
  0004c	50		 push	 eax
  0004d	e8 00 00 00 00	 call	 ___RTDynamicCast
  00052	83 c4 14	 add	 esp, 20			; 00000014H

; 401  : 			if( pScroll )

  00055	3b c7		 cmp	 eax, edi
  00057	74 12		 je	 SHORT $LN6@iwm_wheel

; 402  : 				pScroll->SetScrollPos( m_iCurPage - 1 );

  00059	8b 8e 60 01 00
	00		 mov	 ecx, DWORD PTR [esi+352]
  0005f	8b 10		 mov	 edx, DWORD PTR [eax]
  00061	49		 dec	 ecx
  00062	51		 push	 ecx
  00063	8b c8		 mov	 ecx, eax
  00065	ff 92 38 01 00
	00		 call	 DWORD PTR [edx+312]
$LN6@iwm_wheel:

; 403  : 
; 404  : 			if( g_GUIMgr.GetPreOverWnd() )

  0006b	e8 00 00 00 00	 call	 ?GetSingleton@ioSP2GUIManager@@SAAAV1@XZ ; ioSP2GUIManager::GetSingleton
  00070	39 78 10	 cmp	 DWORD PTR [eax+16], edi
  00073	0f 84 a9 00 00
	00		 je	 $LN1@iwm_wheel

; 405  : 			{
; 406  : 				ioMouse NullMouse;

  00079	8d 4d b0	 lea	 ecx, DWORD PTR _NullMouse$505844[ebp]
  0007c	ff 15 00 00 00
	00		 call	 DWORD PTR __imp_??0ioMouse@@QAE@XZ
  00082	89 7d fc	 mov	 DWORD PTR __$EHRec$[ebp+8], edi

; 407  : 				g_GUIMgr.GetPreOverWnd()->iwm_mouseover( NullMouse );

  00085	e8 00 00 00 00	 call	 ?GetSingleton@ioSP2GUIManager@@SAAAV1@XZ ; ioSP2GUIManager::GetSingleton
  0008a	8b 48 10	 mov	 ecx, DWORD PTR [eax+16]
  0008d	8b 01		 mov	 eax, DWORD PTR [ecx]
  0008f	8d 55 b0	 lea	 edx, DWORD PTR _NullMouse$505844[ebp]
  00092	52		 push	 edx
  00093	ff 90 90 00 00
	00		 call	 DWORD PTR [eax+144]

; 408  : 			}

  00099	8d 4d b0	 lea	 ecx, DWORD PTR _NullMouse$505844[ebp]

; 409  : 		}

  0009c	eb 7a		 jmp	 SHORT $LN23@iwm_wheel
$LN7@iwm_wheel:

; 410  : 		else if( zDelta == -WHEEL_DELTA )

  0009e	83 7d 08 88	 cmp	 DWORD PTR _zDelta$[ebp], -120 ; ffffff88H
  000a2	75 7e		 jne	 SHORT $LN1@iwm_wheel

; 411  : 		{
; 412  : 			ioScroll *pScroll = dynamic_cast<ioScroll*>( FindChildWnd( ID_VERT_SCROLL ) );

  000a4	33 ff		 xor	 edi, edi
  000a6	57		 push	 edi
  000a7	68 00 00 00 00	 push	 OFFSET ??_R0?AVioScroll@@@8
  000ac	68 00 00 00 00	 push	 OFFSET ??_R0?AVioWnd@@@8
  000b1	57		 push	 edi
  000b2	68 e9 03 00 00	 push	 1001			; 000003e9H
  000b7	8b ce		 mov	 ecx, esi
  000b9	ff 15 00 00 00
	00		 call	 DWORD PTR __imp_?FindChildWnd@ioWnd@@QAEPAV1@K@Z
  000bf	50		 push	 eax
  000c0	e8 00 00 00 00	 call	 ___RTDynamicCast
  000c5	83 c4 14	 add	 esp, 20			; 00000014H

; 413  : 			if( pScroll )

  000c8	3b c7		 cmp	 eax, edi
  000ca	74 12		 je	 SHORT $LN2@iwm_wheel

; 414  : 				pScroll->SetScrollPos( m_iCurPage + 1 );

  000cc	8b 8e 60 01 00
	00		 mov	 ecx, DWORD PTR [esi+352]
  000d2	8b 10		 mov	 edx, DWORD PTR [eax]
  000d4	41		 inc	 ecx
  000d5	51		 push	 ecx
  000d6	8b c8		 mov	 ecx, eax
  000d8	ff 92 38 01 00
	00		 call	 DWORD PTR [edx+312]
$LN2@iwm_wheel:

; 415  : 
; 416  : 			if( g_GUIMgr.GetPreOverWnd() )

  000de	e8 00 00 00 00	 call	 ?GetSingleton@ioSP2GUIManager@@SAAAV1@XZ ; ioSP2GUIManager::GetSingleton
  000e3	39 78 10	 cmp	 DWORD PTR [eax+16], edi
  000e6	74 3a		 je	 SHORT $LN1@iwm_wheel

; 417  : 			{
; 418  : 				ioMouse NullMouse;

  000e8	8d 8d 6c ff ff
	ff		 lea	 ecx, DWORD PTR _NullMouse$505851[ebp]
  000ee	ff 15 00 00 00
	00		 call	 DWORD PTR __imp_??0ioMouse@@QAE@XZ
  000f4	c7 45 fc 01 00
	00 00		 mov	 DWORD PTR __$EHRec$[ebp+8], 1

; 419  : 				g_GUIMgr.GetPreOverWnd()->iwm_mouseover( NullMouse );

  000fb	e8 00 00 00 00	 call	 ?GetSingleton@ioSP2GUIManager@@SAAAV1@XZ ; ioSP2GUIManager::GetSingleton
  00100	8b 48 10	 mov	 ecx, DWORD PTR [eax+16]
  00103	8b 01		 mov	 eax, DWORD PTR [ecx]
  00105	8d 95 6c ff ff
	ff		 lea	 edx, DWORD PTR _NullMouse$505851[ebp]
  0010b	52		 push	 edx
  0010c	ff 90 90 00 00
	00		 call	 DWORD PTR [eax+144]

; 420  : 			}

  00112	8d 8d 6c ff ff
	ff		 lea	 ecx, DWORD PTR _NullMouse$505851[ebp]
$LN23@iwm_wheel:
  00118	83 4d fc ff	 or	 DWORD PTR __$EHRec$[ebp+8], -1
  0011c	ff 15 00 00 00
	00		 call	 DWORD PTR __imp_??1ioMouse@@UAE@XZ
$LN1@iwm_wheel:

; 421  : 		}
; 422  : 	}
; 423  : }

  00122	e8 00 00 00 00	 call	 __EH_epilog3
  00127	c2 04 00	 ret	 4
_TEXT	ENDS
;	COMDAT text$x
text$x	SEGMENT
__unwindfunclet$?iwm_wheel@InventorySelectItemWnd@@UAEXH@Z$0:
  00000	8d 4d b0	 lea	 ecx, DWORD PTR _NullMouse$505844[ebp]
  00003	ff 25 00 00 00
	00		 jmp	 DWORD PTR __imp_??1ioMouse@@UAE@XZ
__unwindfunclet$?iwm_wheel@InventorySelectItemWnd@@UAEXH@Z$1:
  00009	8d 8d 6c ff ff
	ff		 lea	 ecx, DWORD PTR _NullMouse$505851[ebp]
  0000f	ff 25 00 00 00
	00		 jmp	 DWORD PTR __imp_??1ioMouse@@UAE@XZ
__ehhandler$?iwm_wheel@InventorySelectItemWnd@@UAEXH@Z:
  00015	8b 54 24 08	 mov	 edx, DWORD PTR [esp+8]
  00019	8d 42 0c	 lea	 eax, DWORD PTR [edx+12]
  0001c	8b 8a 68 ff ff
	ff		 mov	 ecx, DWORD PTR [edx-152]
  00022	33 c8		 xor	 ecx, eax
  00024	e8 00 00 00 00	 call	 @__security_check_cookie@4
  00029	b8 00 00 00 00	 mov	 eax, OFFSET __ehfuncinfo$?iwm_wheel@InventorySelectItemWnd@@UAEXH@Z
  0002e	e9 00 00 00 00	 jmp	 ___CxxFrameHandler3
text$x	ENDS
?iwm_wheel@InventorySelectItemWnd@@UAEXH@Z ENDP		; InventorySelectItemWnd::iwm_wheel
; Function compile flags: /Ogsp
;	COMDAT ??_GInventorySelectItemToolTip@@UAEPAXI@Z
_TEXT	SEGMENT
___flags$ = 8						; size = 4
??_GInventorySelectItemToolTip@@UAEPAXI@Z PROC		; InventorySelectItemToolTip::`scalar deleting destructor', COMDAT
; _this$ = ecx
  00000	55		 push	 ebp
  00001	8b ec		 mov	 ebp, esp
  00003	56		 push	 esi
  00004	8b f1		 mov	 esi, ecx
  00006	e8 00 00 00 00	 call	 ??1InventorySelectItemToolTip@@UAE@XZ ; InventorySelectItemToolTip::~InventorySelectItemToolTip
  0000b	f6 45 08 01	 test	 BYTE PTR ___flags$[ebp], 1
  0000f	74 07		 je	 SHORT $LN1@scalar@6
  00011	56		 push	 esi
  00012	e8 00 00 00 00	 call	 ??3@YAXPAX@Z		; operator delete
  00017	59		 pop	 ecx
$LN1@scalar@6:
  00018	8b c6		 mov	 eax, esi
  0001a	5e		 pop	 esi
  0001b	5d		 pop	 ebp
  0001c	c2 04 00	 ret	 4
??_GInventorySelectItemToolTip@@UAEPAXI@Z ENDP		; InventorySelectItemToolTip::`scalar deleting destructor'
_TEXT	ENDS
EXTRN	__imp_?GoToTop@ioWnd@@QAEXXZ:PROC
EXTRN	__imp_?SetScreenWndPos@ioWnd@@QAEXHH@Z:PROC
EXTRN	?GetNotCutWndPos@Help@@YAXHHHHAAH0@Z:PROC	; Help::GetNotCutWndPos
EXTRN	__imp_?GetWidth@ioWnd@@QBEHXZ:PROC
EXTRN	__imp_?GetHeight@ioWnd@@QBEHXZ:PROC
EXTRN	__imp_?GetMousePos@ioMouse@@QBEABUtagPOINT@@XZ:PROC
EXTRN	?SetToolTipCursor@ioLSMouse@@QAEXXZ:PROC	; ioLSMouse::SetToolTipCursor
EXTRN	?GetSingleton@ioApplication@@SAAAV1@XZ:PROC	; ioApplication::GetSingleton
; Function compile flags: /Ogsp
;	COMDAT ?OnProcess@InventorySelectItemToolTip@@MAEXM@Z
_TEXT	SEGMENT
_iXPos$506043 = -8					; size = 4
_iYPos$506044 = -4					; size = 4
_fTimePerSec$ = 8					; size = 4
?OnProcess@InventorySelectItemToolTip@@MAEXM@Z PROC	; InventorySelectItemToolTip::OnProcess, COMDAT
; _this$ = ecx

; 715  : {

  00000	55		 push	 ebp
  00001	8b ec		 mov	 ebp, esp
  00003	51		 push	 ecx
  00004	51		 push	 ecx
  00005	57		 push	 edi
  00006	8b f9		 mov	 edi, ecx

; 716  : 	if ( IsShow() )

  00008	ff 15 00 00 00
	00		 call	 DWORD PTR __imp_?IsShow@ioWnd@@QBE_NXZ
  0000e	84 c0		 test	 al, al
  00010	74 71		 je	 SHORT $LN2@OnProcess@2

; 717  : 	{
; 718  : 		ioLSMouse *pMouse = g_App.GetMouse();

  00012	56		 push	 esi
  00013	e8 00 00 00 00	 call	 ?GetSingleton@ioApplication@@SAAAV1@XZ ; ioApplication::GetSingleton
  00018	8b f0		 mov	 esi, eax
  0001a	81 c6 90 00 00
	00		 add	 esi, 144		; 00000090H

; 719  : 		if( !pMouse ) return;

  00020	74 60		 je	 SHORT $LN7@OnProcess@2

; 720  : 		pMouse->SetToolTipCursor();

  00022	53		 push	 ebx
  00023	8b ce		 mov	 ecx, esi
  00025	e8 00 00 00 00	 call	 ?SetToolTipCursor@ioLSMouse@@QAEXXZ ; ioLSMouse::SetToolTipCursor

; 721  : 		int iXPos = 0;

  0002a	83 65 f8 00	 and	 DWORD PTR _iXPos$506043[ebp], 0

; 722  : 		int iYPos = 0;

  0002e	83 65 fc 00	 and	 DWORD PTR _iYPos$506044[ebp], 0

; 723  : 		Help::GetNotCutWndPos( pMouse->GetMousePos().x, pMouse->GetMousePos().y, GetWidth(), GetHeight(), iXPos, iYPos );

  00032	8b ce		 mov	 ecx, esi
  00034	ff 15 00 00 00
	00		 call	 DWORD PTR __imp_?GetMousePos@ioMouse@@QBEABUtagPOINT@@XZ
  0003a	8b d8		 mov	 ebx, eax
  0003c	8d 45 fc	 lea	 eax, DWORD PTR _iYPos$506044[ebp]
  0003f	50		 push	 eax
  00040	8d 45 f8	 lea	 eax, DWORD PTR _iXPos$506043[ebp]
  00043	50		 push	 eax
  00044	8b cf		 mov	 ecx, edi
  00046	ff 15 00 00 00
	00		 call	 DWORD PTR __imp_?GetHeight@ioWnd@@QBEHXZ
  0004c	50		 push	 eax
  0004d	8b cf		 mov	 ecx, edi
  0004f	ff 15 00 00 00
	00		 call	 DWORD PTR __imp_?GetWidth@ioWnd@@QBEHXZ
  00055	50		 push	 eax
  00056	8b ce		 mov	 ecx, esi
  00058	ff 15 00 00 00
	00		 call	 DWORD PTR __imp_?GetMousePos@ioMouse@@QBEABUtagPOINT@@XZ
  0005e	ff 70 04	 push	 DWORD PTR [eax+4]
  00061	ff 33		 push	 DWORD PTR [ebx]
  00063	e8 00 00 00 00	 call	 ?GetNotCutWndPos@Help@@YAXHHHHAAH0@Z ; Help::GetNotCutWndPos
  00068	83 c4 18	 add	 esp, 24			; 00000018H

; 724  : 		SetScreenWndPos( iXPos, iYPos );

  0006b	ff 75 fc	 push	 DWORD PTR _iYPos$506044[ebp]
  0006e	8b cf		 mov	 ecx, edi
  00070	ff 75 f8	 push	 DWORD PTR _iXPos$506043[ebp]
  00073	ff 15 00 00 00
	00		 call	 DWORD PTR __imp_?SetScreenWndPos@ioWnd@@QAEXHH@Z

; 725  : 		GoToTop();

  00079	8b cf		 mov	 ecx, edi
  0007b	ff 15 00 00 00
	00		 call	 DWORD PTR __imp_?GoToTop@ioWnd@@QAEXXZ
  00081	5b		 pop	 ebx
$LN7@OnProcess@2:
  00082	5e		 pop	 esi
$LN2@OnProcess@2:
  00083	5f		 pop	 edi

; 726  : 	}
; 727  : }

  00084	c9		 leave
  00085	c2 04 00	 ret	 4
?OnProcess@InventorySelectItemToolTip@@MAEXM@Z ENDP	; InventorySelectItemToolTip::OnProcess
_TEXT	ENDS
PUBLIC	__real@402c000000000000
PUBLIC	__real@3f19999a
PUBLIC	?SetInfo@InventorySelectItemToolTip@@QAE_NABVioHashString@@@Z ; InventorySelectItemToolTip::SetInfo
EXTRN	__imp_?PlaySoundA@ioSoundManager@@QAEKABVioHashString@@HK@Z:PROC
EXTRN	__imp_?GetSingleton@ioSoundManager@@SAAAV1@XZ:PROC
;	COMDAT __real@402c000000000000
; File d:\lost saga for developer\youtube\tutorial\source\src\lsclient\iocomplexstringprinter.h
CONST	SEGMENT
__real@402c000000000000 DQ 0402c000000000000r	; 14
CONST	ENDS
;	COMDAT __real@3f19999a
CONST	SEGMENT
__real@3f19999a DD 03f19999ar			; 0.6
; Function compile flags: /Ogsp
; File d:\lost saga for developer\youtube\tutorial\source\src\lsclient\gui\inventoryselectitemwnd.cpp
CONST	ENDS
;	COMDAT ?SetInfo@InventorySelectItemToolTip@@QAE_NABVioHashString@@@Z
_TEXT	SEGMENT
_szName$ = 8						; size = 4
?SetInfo@InventorySelectItemToolTip@@QAE_NABVioHashString@@@Z PROC ; InventorySelectItemToolTip::SetInfo, COMDAT
; _this$ = ecx

; 730  : {

  00000	55		 push	 ebp
  00001	8b ec		 mov	 ebp, esp
  00003	56		 push	 esi
  00004	8b f1		 mov	 esi, ecx

; 731  : 	if ( szName.IsEmpty() )

  00006	8b 4d 08	 mov	 ecx, DWORD PTR _szName$[ebp]
  00009	ff 15 00 00 00
	00		 call	 DWORD PTR __imp_?IsEmpty@ioHashString@@QBE_NXZ
  0000f	84 c0		 test	 al, al
  00011	74 0f		 je	 SHORT $LN2@SetInfo@2

; 732  : 	{
; 733  : 		HideWnd();

  00013	8b ce		 mov	 ecx, esi
  00015	ff 15 00 00 00
	00		 call	 DWORD PTR __imp_?HideWnd@ioWnd@@QAEXXZ

; 734  : 		return false;

  0001b	32 c0		 xor	 al, al
  0001d	e9 99 00 00 00	 jmp	 $LN3@SetInfo@2
$LN2@SetInfo@2:
  00022	53		 push	 ebx
  00023	57		 push	 edi

; 735  : 	}
; 736  : 
; 737  : 	m_szName.ClearList();

  00024	8d be 60 01 00
	00		 lea	 edi, DWORD PTR [esi+352]
  0002a	8b cf		 mov	 ecx, edi
  0002c	e8 00 00 00 00	 call	 ?ClearList@ioComplexStringPrinter@@QAEXXZ ; ioComplexStringPrinter::ClearList

; 738  : 	m_szName.SetTextStyle( TS_NORMAL );

  00031	33 db		 xor	 ebx, ebx
  00033	53		 push	 ebx
  00034	8b cf		 mov	 ecx, edi
  00036	e8 00 00 00 00	 call	 ?SetTextStyle@ioComplexStringPrinter@@QAEXW4TextStyle@@@Z ; ioComplexStringPrinter::SetTextStyle

; 739  : 	m_szName.SetBkColor( 0, 0, 0 );	

  0003b	53		 push	 ebx
  0003c	53		 push	 ebx
  0003d	53		 push	 ebx
  0003e	8b cf		 mov	 ecx, edi
  00040	e8 00 00 00 00	 call	 ?SetBkColor@ioComplexStringPrinter@@QAEXHHH@Z ; ioComplexStringPrinter::SetBkColor

; 740  : 	m_szName.SetTextColor( TCT_DEFAULT_DARKGRAY ); // 

  00045	68 3a 3a 3a ff	 push	 -12961222		; ff3a3a3aH
  0004a	8b cf		 mov	 ecx, edi
  0004c	e8 00 00 00 00	 call	 ?SetTextColor@ioComplexStringPrinter@@QAEXK@Z ; ioComplexStringPrinter::SetTextColor

; 741  : 
; 742  : 	m_szName.AddTextPiece( FONT_SIZE_12, szName.c_str() );

  00051	8b 4d 08	 mov	 ecx, DWORD PTR _szName$[ebp]
  00054	ff 15 00 00 00
	00		 call	 DWORD PTR __imp_?c_str@ioHashString@@QBEPBDXZ
  0005a	f3 0f 10 05 00
	00 00 00	 movss	 xmm0, DWORD PTR __real@3f19999a
  00062	50		 push	 eax
  00063	51		 push	 ecx
  00064	f3 0f 11 04 24	 movss	 DWORD PTR [esp], xmm0
  00069	57		 push	 edi
  0006a	e8 00 00 00 00	 call	 ?AddTextPiece@ioComplexStringPrinter@@QAAXMPBDZZ ; ioComplexStringPrinter::AddTextPiece

; 743  : 
; 744  : 	int iMaxWidth  = m_szName.GetFullWidth() + SIDE_TEXT_GAP;
; 745  : 	int iMaxHeight = MIN_HEIGHT;
; 746  : 	SetSize( iMaxWidth, iMaxHeight );

  0006f	f3 0f 10 86 7c
	01 00 00	 movss	 xmm0, DWORD PTR [esi+380]
  00077	8b 06		 mov	 eax, DWORD PTR [esi]
  00079	83 c4 0c	 add	 esp, 12			; 0000000cH
  0007c	0f 5a c0	 cvtps2pd xmm0, xmm0
  0007f	f2 0f 58 05 00
	00 00 00	 addsd	 xmm0, QWORD PTR __real@402c000000000000
  00087	6a 1a		 push	 26			; 0000001aH
  00089	f2 0f 2c c8	 cvttsd2si ecx, xmm0
  0008d	51		 push	 ecx
  0008e	8b ce		 mov	 ecx, esi
  00090	ff 50 2c	 call	 DWORD PTR [eax+44]

; 747  : 	//ShowWnd();
; 748  : 
; 749  : 	if( !m_szOverSnd.IsEmpty() )

  00093	81 c6 80 01 00
	00		 add	 esi, 384		; 00000180H
  00099	8b ce		 mov	 ecx, esi
  0009b	ff 15 00 00 00
	00		 call	 DWORD PTR __imp_?IsEmpty@ioHashString@@QBE_NXZ
  000a1	84 c0		 test	 al, al
  000a3	75 12		 jne	 SHORT $LN1@SetInfo@2

; 750  : 		g_SoundMgr.PlaySound( m_szOverSnd );

  000a5	6a 04		 push	 4
  000a7	53		 push	 ebx
  000a8	56		 push	 esi
  000a9	ff 15 00 00 00
	00		 call	 DWORD PTR __imp_?GetSingleton@ioSoundManager@@SAAAV1@XZ
  000af	8b c8		 mov	 ecx, eax
  000b1	ff 15 00 00 00
	00		 call	 DWORD PTR __imp_?PlaySoundA@ioSoundManager@@QAEKABVioHashString@@HK@Z
$LN1@SetInfo@2:

; 751  : 
; 752  : 	return true;

  000b7	5f		 pop	 edi
  000b8	b0 01		 mov	 al, 1
  000ba	5b		 pop	 ebx
$LN3@SetInfo@2:
  000bb	5e		 pop	 esi

; 753  : }

  000bc	5d		 pop	 ebp
  000bd	c2 04 00	 ret	 4
?SetInfo@InventorySelectItemToolTip@@QAE_NABVioHashString@@@Z ENDP ; InventorySelectItemToolTip::SetInfo
_TEXT	ENDS
PUBLIC	?begin@?$vector@UInventorySelectItem@@V?$allocator@UInventorySelectItem@@@std@@@std@@QAE?AV?$_Vector_iterator@V?$_Vector_val@UInventorySelectItem@@V?$allocator@UInventorySelectItem@@@std@@@std@@@2@XZ ; std::vector<InventorySelectItem,std::allocator<InventorySelectItem> >::begin
; Function compile flags: /Ogsp
; File c:\program files (x86)\microsoft visual studio 10.0\vc\include\vector
;	COMDAT ?begin@?$vector@UInventorySelectItem@@V?$allocator@UInventorySelectItem@@@std@@@std@@QAE?AV?$_Vector_iterator@V?$_Vector_val@UInventorySelectItem@@V?$allocator@UInventorySelectItem@@@std@@@std@@@2@XZ
_TEXT	SEGMENT
___$ReturnUdt$ = 8					; size = 4
?begin@?$vector@UInventorySelectItem@@V?$allocator@UInventorySelectItem@@@std@@@std@@QAE?AV?$_Vector_iterator@V?$_Vector_val@UInventorySelectItem@@V?$allocator@UInventorySelectItem@@@std@@@std@@@2@XZ PROC ; std::vector<InventorySelectItem,std::allocator<InventorySelectItem> >::begin, COMDAT
; _this$ = ecx

; 781  : 		{	// return iterator for beginning of mutable sequence

  00000	55		 push	 ebp
  00001	8b ec		 mov	 ebp, esp

; 782  : 		return (iterator(this->_Myfirst, this));

  00003	8b 09		 mov	 ecx, DWORD PTR [ecx]
  00005	8b 45 08	 mov	 eax, DWORD PTR ___$ReturnUdt$[ebp]
  00008	89 08		 mov	 DWORD PTR [eax], ecx

; 783  : 		}

  0000a	5d		 pop	 ebp
  0000b	c2 04 00	 ret	 4
?begin@?$vector@UInventorySelectItem@@V?$allocator@UInventorySelectItem@@@std@@@std@@QAE?AV?$_Vector_iterator@V?$_Vector_val@UInventorySelectItem@@V?$allocator@UInventorySelectItem@@@std@@@std@@@2@XZ ENDP ; std::vector<InventorySelectItem,std::allocator<InventorySelectItem> >::begin
_TEXT	ENDS
PUBLIC	?begin@?$vector@UInventorySelectItem@@V?$allocator@UInventorySelectItem@@@std@@@std@@QBE?AV?$_Vector_const_iterator@V?$_Vector_val@UInventorySelectItem@@V?$allocator@UInventorySelectItem@@@std@@@std@@@2@XZ ; std::vector<InventorySelectItem,std::allocator<InventorySelectItem> >::begin
; Function compile flags: /Ogsp
;	COMDAT ?begin@?$vector@UInventorySelectItem@@V?$allocator@UInventorySelectItem@@@std@@@std@@QBE?AV?$_Vector_const_iterator@V?$_Vector_val@UInventorySelectItem@@V?$allocator@UInventorySelectItem@@@std@@@std@@@2@XZ
_TEXT	SEGMENT
___$ReturnUdt$ = 8					; size = 4
?begin@?$vector@UInventorySelectItem@@V?$allocator@UInventorySelectItem@@@std@@@std@@QBE?AV?$_Vector_const_iterator@V?$_Vector_val@UInventorySelectItem@@V?$allocator@UInventorySelectItem@@@std@@@std@@@2@XZ PROC ; std::vector<InventorySelectItem,std::allocator<InventorySelectItem> >::begin, COMDAT
; _this$ = ecx

; 786  : 		{	// return iterator for beginning of nonmutable sequence

  00000	55		 push	 ebp
  00001	8b ec		 mov	 ebp, esp

; 787  : 		return (const_iterator(this->_Myfirst, this));

  00003	8b 09		 mov	 ecx, DWORD PTR [ecx]
  00005	8b 45 08	 mov	 eax, DWORD PTR ___$ReturnUdt$[ebp]
  00008	89 08		 mov	 DWORD PTR [eax], ecx

; 788  : 		}

  0000a	5d		 pop	 ebp
  0000b	c2 04 00	 ret	 4
?begin@?$vector@UInventorySelectItem@@V?$allocator@UInventorySelectItem@@@std@@@std@@QBE?AV?$_Vector_const_iterator@V?$_Vector_val@UInventorySelectItem@@V?$allocator@UInventorySelectItem@@@std@@@std@@@2@XZ ENDP ; std::vector<InventorySelectItem,std::allocator<InventorySelectItem> >::begin
_TEXT	ENDS
PUBLIC	?end@?$vector@UInventorySelectItem@@V?$allocator@UInventorySelectItem@@@std@@@std@@QAE?AV?$_Vector_iterator@V?$_Vector_val@UInventorySelectItem@@V?$allocator@UInventorySelectItem@@@std@@@std@@@2@XZ ; std::vector<InventorySelectItem,std::allocator<InventorySelectItem> >::end
; Function compile flags: /Ogsp
;	COMDAT ?end@?$vector@UInventorySelectItem@@V?$allocator@UInventorySelectItem@@@std@@@std@@QAE?AV?$_Vector_iterator@V?$_Vector_val@UInventorySelectItem@@V?$allocator@UInventorySelectItem@@@std@@@std@@@2@XZ
_TEXT	SEGMENT
___$ReturnUdt$ = 8					; size = 4
?end@?$vector@UInventorySelectItem@@V?$allocator@UInventorySelectItem@@@std@@@std@@QAE?AV?$_Vector_iterator@V?$_Vector_val@UInventorySelectItem@@V?$allocator@UInventorySelectItem@@@std@@@std@@@2@XZ PROC ; std::vector<InventorySelectItem,std::allocator<InventorySelectItem> >::end, COMDAT
; _this$ = ecx

; 791  : 		{	// return iterator for end of mutable sequence

  00000	55		 push	 ebp
  00001	8b ec		 mov	 ebp, esp

; 792  : 		return (iterator(this->_Mylast, this));

  00003	8b 49 04	 mov	 ecx, DWORD PTR [ecx+4]
  00006	8b 45 08	 mov	 eax, DWORD PTR ___$ReturnUdt$[ebp]
  00009	89 08		 mov	 DWORD PTR [eax], ecx

; 793  : 		}

  0000b	5d		 pop	 ebp
  0000c	c2 04 00	 ret	 4
?end@?$vector@UInventorySelectItem@@V?$allocator@UInventorySelectItem@@@std@@@std@@QAE?AV?$_Vector_iterator@V?$_Vector_val@UInventorySelectItem@@V?$allocator@UInventorySelectItem@@@std@@@std@@@2@XZ ENDP ; std::vector<InventorySelectItem,std::allocator<InventorySelectItem> >::end
_TEXT	ENDS
PUBLIC	?end@?$vector@UInventorySelectItem@@V?$allocator@UInventorySelectItem@@@std@@@std@@QBE?AV?$_Vector_const_iterator@V?$_Vector_val@UInventorySelectItem@@V?$allocator@UInventorySelectItem@@@std@@@std@@@2@XZ ; std::vector<InventorySelectItem,std::allocator<InventorySelectItem> >::end
; Function compile flags: /Ogsp
;	COMDAT ?end@?$vector@UInventorySelectItem@@V?$allocator@UInventorySelectItem@@@std@@@std@@QBE?AV?$_Vector_const_iterator@V?$_Vector_val@UInventorySelectItem@@V?$allocator@UInventorySelectItem@@@std@@@std@@@2@XZ
_TEXT	SEGMENT
___$ReturnUdt$ = 8					; size = 4
?end@?$vector@UInventorySelectItem@@V?$allocator@UInventorySelectItem@@@std@@@std@@QBE?AV?$_Vector_const_iterator@V?$_Vector_val@UInventorySelectItem@@V?$allocator@UInventorySelectItem@@@std@@@std@@@2@XZ PROC ; std::vector<InventorySelectItem,std::allocator<InventorySelectItem> >::end, COMDAT
; _this$ = ecx

; 796  : 		{	// return iterator for end of nonmutable sequence

  00000	55		 push	 ebp
  00001	8b ec		 mov	 ebp, esp

; 797  : 		return (const_iterator(this->_Mylast, this));

  00003	8b 49 04	 mov	 ecx, DWORD PTR [ecx+4]
  00006	8b 45 08	 mov	 eax, DWORD PTR ___$ReturnUdt$[ebp]
  00009	89 08		 mov	 DWORD PTR [eax], ecx

; 798  : 		}

  0000b	5d		 pop	 ebp
  0000c	c2 04 00	 ret	 4
?end@?$vector@UInventorySelectItem@@V?$allocator@UInventorySelectItem@@@std@@@std@@QBE?AV?$_Vector_const_iterator@V?$_Vector_val@UInventorySelectItem@@V?$allocator@UInventorySelectItem@@@std@@@std@@@2@XZ ENDP ; std::vector<InventorySelectItem,std::allocator<InventorySelectItem> >::end
_TEXT	ENDS
PUBLIC	??0?$_Vector_val@UInventorySelectItem@@V?$allocator@UInventorySelectItem@@@std@@@std@@QAE@V?$allocator@UInventorySelectItem@@@1@@Z ; std::_Vector_val<InventorySelectItem,std::allocator<InventorySelectItem> >::_Vector_val<InventorySelectItem,std::allocator<InventorySelectItem> >
; Function compile flags: /Ogsp
;	COMDAT ??0?$_Vector_val@UInventorySelectItem@@V?$allocator@UInventorySelectItem@@@std@@@std@@QAE@V?$allocator@UInventorySelectItem@@@1@@Z
_TEXT	SEGMENT
__Al$ = 8						; size = 1
??0?$_Vector_val@UInventorySelectItem@@V?$allocator@UInventorySelectItem@@@std@@@std@@QAE@V?$allocator@UInventorySelectItem@@@1@@Z PROC ; std::_Vector_val<InventorySelectItem,std::allocator<InventorySelectItem> >::_Vector_val<InventorySelectItem,std::allocator<InventorySelectItem> >, COMDAT
; _this$ = ecx

; 426  : 		{	// construct allocator from _Al

  00000	8b c1		 mov	 eax, ecx

; 427  : 		_Myfirst = 0;

  00002	33 c9		 xor	 ecx, ecx
  00004	89 08		 mov	 DWORD PTR [eax], ecx

; 428  : 		_Mylast = 0;

  00006	89 48 04	 mov	 DWORD PTR [eax+4], ecx

; 429  : 		_Myend = 0;

  00009	89 48 08	 mov	 DWORD PTR [eax+8], ecx

; 430  : 		}

  0000c	c2 04 00	 ret	 4
??0?$_Vector_val@UInventorySelectItem@@V?$allocator@UInventorySelectItem@@@std@@@std@@QAE@V?$allocator@UInventorySelectItem@@@1@@Z ENDP ; std::_Vector_val<InventorySelectItem,std::allocator<InventorySelectItem> >::_Vector_val<InventorySelectItem,std::allocator<InventorySelectItem> >
_TEXT	ENDS
PUBLIC	?_Make_iter@?$vector@UInventorySelectItem@@V?$allocator@UInventorySelectItem@@@std@@@std@@QBE?AV?$_Vector_iterator@V?$_Vector_val@UInventorySelectItem@@V?$allocator@UInventorySelectItem@@@std@@@std@@@2@V?$_Vector_const_iterator@V?$_Vector_val@UInventorySelectItem@@V?$allocator@UInventorySelectItem@@@std@@@std@@@2@@Z ; std::vector<InventorySelectItem,std::allocator<InventorySelectItem> >::_Make_iter
; Function compile flags: /Ogsp
;	COMDAT ?_Make_iter@?$vector@UInventorySelectItem@@V?$allocator@UInventorySelectItem@@@std@@@std@@QBE?AV?$_Vector_iterator@V?$_Vector_val@UInventorySelectItem@@V?$allocator@UInventorySelectItem@@@std@@@std@@@2@V?$_Vector_const_iterator@V?$_Vector_val@UInventorySelectItem@@V?$allocator@UInventorySelectItem@@@std@@@std@@@2@@Z
_TEXT	SEGMENT
___$ReturnUdt$ = 8					; size = 4
__Where$ = 12						; size = 4
?_Make_iter@?$vector@UInventorySelectItem@@V?$allocator@UInventorySelectItem@@@std@@@std@@QBE?AV?$_Vector_iterator@V?$_Vector_val@UInventorySelectItem@@V?$allocator@UInventorySelectItem@@@std@@@std@@@2@V?$_Vector_const_iterator@V?$_Vector_val@UInventorySelectItem@@V?$allocator@UInventorySelectItem@@@std@@@std@@@2@@Z PROC ; std::vector<InventorySelectItem,std::allocator<InventorySelectItem> >::_Make_iter, COMDAT
; _this$ = ecx

; 801  : 		{	// make iterator from const_iterator

  00000	55		 push	 ebp
  00001	8b ec		 mov	 ebp, esp

; 802  : 		return (iterator(_Where._Ptr, this));

  00003	8b 45 08	 mov	 eax, DWORD PTR ___$ReturnUdt$[ebp]
  00006	8b 4d 0c	 mov	 ecx, DWORD PTR __Where$[ebp]
  00009	89 08		 mov	 DWORD PTR [eax], ecx

; 803  : 		}

  0000b	5d		 pop	 ebp
  0000c	c2 08 00	 ret	 8
?_Make_iter@?$vector@UInventorySelectItem@@V?$allocator@UInventorySelectItem@@@std@@@std@@QBE?AV?$_Vector_iterator@V?$_Vector_val@UInventorySelectItem@@V?$allocator@UInventorySelectItem@@@std@@@std@@@2@V?$_Vector_const_iterator@V?$_Vector_val@UInventorySelectItem@@V?$allocator@UInventorySelectItem@@@std@@@std@@@2@@Z ENDP ; std::vector<InventorySelectItem,std::allocator<InventorySelectItem> >::_Make_iter
_TEXT	ENDS
PUBLIC	?max_size@?$vector@UInventorySelectItem@@V?$allocator@UInventorySelectItem@@@std@@@std@@QBEIXZ ; std::vector<InventorySelectItem,std::allocator<InventorySelectItem> >::max_size
; Function compile flags: /Ogsp
;	COMDAT ?max_size@?$vector@UInventorySelectItem@@V?$allocator@UInventorySelectItem@@@std@@@std@@QBEIXZ
_TEXT	SEGMENT
?max_size@?$vector@UInventorySelectItem@@V?$allocator@UInventorySelectItem@@@std@@@std@@QBEIXZ PROC ; std::vector<InventorySelectItem,std::allocator<InventorySelectItem> >::max_size, COMDAT
; _this$ = ecx

; 884  : 		return (this->_Alval.max_size());

  00000	b8 c3 30 0c 03	 mov	 eax, 51130563		; 030c30c3H

; 885  : 		}

  00005	c3		 ret	 0
?max_size@?$vector@UInventorySelectItem@@V?$allocator@UInventorySelectItem@@@std@@@std@@QBEIXZ ENDP ; std::vector<InventorySelectItem,std::allocator<InventorySelectItem> >::max_size
_TEXT	ENDS
PUBLIC	?_Grow_to@?$vector@UInventorySelectItem@@V?$allocator@UInventorySelectItem@@@std@@@std@@IBEII@Z ; std::vector<InventorySelectItem,std::allocator<InventorySelectItem> >::_Grow_to
; Function compile flags: /Ogsp
;	COMDAT ?_Grow_to@?$vector@UInventorySelectItem@@V?$allocator@UInventorySelectItem@@@std@@@std@@IBEII@Z
_TEXT	SEGMENT
__Count$ = 8						; size = 4
?_Grow_to@?$vector@UInventorySelectItem@@V?$allocator@UInventorySelectItem@@@std@@@std@@IBEII@Z PROC ; std::vector<InventorySelectItem,std::allocator<InventorySelectItem> >::_Grow_to, COMDAT
; _this$ = ecx

; 1274 : 		{	// grow by 50% or at least to _Count

  00000	55		 push	 ebp
  00001	8b ec		 mov	 ebp, esp

; 1275 : 		size_type _Capacity = capacity();

  00003	8b 41 08	 mov	 eax, DWORD PTR [ecx+8]
  00006	2b 01		 sub	 eax, DWORD PTR [ecx]
  00008	6a 54		 push	 84			; 00000054H
  0000a	99		 cdq
  0000b	59		 pop	 ecx
  0000c	f7 f9		 idiv	 ecx

; 1276 : 
; 1277 : 		_Capacity = max_size() - _Capacity / 2 < _Capacity
; 1278 : 			? 0 : _Capacity + _Capacity / 2;	// try to grow by 50%

  0000e	ba c3 30 0c 03	 mov	 edx, 51130563		; 030c30c3H
  00013	8b c8		 mov	 ecx, eax
  00015	d1 e9		 shr	 ecx, 1
  00017	2b d1		 sub	 edx, ecx
  00019	3b d0		 cmp	 edx, eax
  0001b	73 04		 jae	 SHORT $LN4@Grow_to
  0001d	33 c0		 xor	 eax, eax
  0001f	eb 02		 jmp	 SHORT $LN5@Grow_to
$LN4@Grow_to:
  00021	03 c1		 add	 eax, ecx
$LN5@Grow_to:

; 1279 : 		if (_Capacity < _Count)

  00023	3b 45 08	 cmp	 eax, DWORD PTR __Count$[ebp]

; 1280 : 			_Capacity = _Count;

  00026	0f 42 45 08	 cmovb	 eax, DWORD PTR __Count$[ebp]

; 1281 : 		return (_Capacity);
; 1282 : 		}

  0002a	5d		 pop	 ebp
  0002b	c2 04 00	 ret	 4
?_Grow_to@?$vector@UInventorySelectItem@@V?$allocator@UInventorySelectItem@@@std@@@std@@IBEII@Z ENDP ; std::vector<InventorySelectItem,std::allocator<InventorySelectItem> >::_Grow_to
_TEXT	ENDS
PUBLIC	?allocate@?$allocator@UInventorySelectItem@@@std@@QAEPAUInventorySelectItem@@I@Z ; std::allocator<InventorySelectItem>::allocate
; Function compile flags: /Ogsp
; File c:\program files (x86)\microsoft visual studio 10.0\vc\include\xmemory
;	COMDAT ?allocate@?$allocator@UInventorySelectItem@@@std@@QAEPAUInventorySelectItem@@I@Z
_TEXT	SEGMENT
__Count$ = 8						; size = 4
?allocate@?$allocator@UInventorySelectItem@@@std@@QAEPAUInventorySelectItem@@I@Z PROC ; std::allocator<InventorySelectItem>::allocate, COMDAT
; _this$ = ecx

; 186  : 		{	// allocate array of _Count elements

  00000	55		 push	 ebp
  00001	8b ec		 mov	 ebp, esp

; 187  : 		return (_Allocate(_Count, (pointer)0));

  00003	6a 00		 push	 0
  00005	ff 75 08	 push	 DWORD PTR __Count$[ebp]
  00008	e8 00 00 00 00	 call	 ??$_Allocate@UInventorySelectItem@@@std@@YAPAUInventorySelectItem@@IPAU1@@Z ; std::_Allocate<InventorySelectItem>
  0000d	59		 pop	 ecx
  0000e	59		 pop	 ecx

; 188  : 		}

  0000f	5d		 pop	 ebp
  00010	c2 04 00	 ret	 4
?allocate@?$allocator@UInventorySelectItem@@@std@@QAEPAUInventorySelectItem@@I@Z ENDP ; std::allocator<InventorySelectItem>::allocate
_TEXT	ENDS
PUBLIC	??8?$_Vector_const_iterator@V?$_Vector_val@UInventorySelectItem@@V?$allocator@UInventorySelectItem@@@std@@@std@@@std@@QBE_NABV01@@Z ; std::_Vector_const_iterator<std::_Vector_val<InventorySelectItem,std::allocator<InventorySelectItem> > >::operator==
; Function compile flags: /Ogsp
; File c:\program files (x86)\microsoft visual studio 10.0\vc\include\vector
;	COMDAT ??8?$_Vector_const_iterator@V?$_Vector_val@UInventorySelectItem@@V?$allocator@UInventorySelectItem@@@std@@@std@@@std@@QBE_NABV01@@Z
_TEXT	SEGMENT
__Right$ = 8						; size = 4
??8?$_Vector_const_iterator@V?$_Vector_val@UInventorySelectItem@@V?$allocator@UInventorySelectItem@@@std@@@std@@@std@@QBE_NABV01@@Z PROC ; std::_Vector_const_iterator<std::_Vector_val<InventorySelectItem,std::allocator<InventorySelectItem> > >::operator==, COMDAT
; _this$ = ecx

; 201  : 		{	// test for iterator equality

  00000	55		 push	 ebp
  00001	8b ec		 mov	 ebp, esp

; 202  : 		_Compat(_Right);
; 203  : 		return (this->_Ptr == _Right._Ptr);

  00003	8b 01		 mov	 eax, DWORD PTR [ecx]
  00005	8b 4d 08	 mov	 ecx, DWORD PTR __Right$[ebp]
  00008	2b 01		 sub	 eax, DWORD PTR [ecx]
  0000a	f7 d8		 neg	 eax
  0000c	1b c0		 sbb	 eax, eax
  0000e	40		 inc	 eax

; 204  : 		}

  0000f	5d		 pop	 ebp
  00010	c2 04 00	 ret	 4
??8?$_Vector_const_iterator@V?$_Vector_val@UInventorySelectItem@@V?$allocator@UInventorySelectItem@@@std@@@std@@@std@@QBE_NABV01@@Z ENDP ; std::_Vector_const_iterator<std::_Vector_val<InventorySelectItem,std::allocator<InventorySelectItem> > >::operator==
_TEXT	ENDS
PUBLIC	__$ArrayPad$
PUBLIC	??$GetIntAttribute_e@$07@ioXMLElement@@QBEHAAY07$$CBD@Z ; ioXMLElement::GetIntAttribute_e<8>
EXTRN	__imp_?GetIntAttribute@ioXMLElement@@QBEHPBD@Z:PROC
EXTRN	___security_cookie:DWORD
; Function compile flags: /Ogsp
; File d:\lost saga for developer\youtube\tutorial\source\src\io3dengine\ioxmlelement.h
;	COMDAT ??$GetIntAttribute_e@$07@ioXMLElement@@QBEHAAY07$$CBD@Z
_TEXT	SEGMENT
__k$ = -16						; size = 8
__$ArrayPad$ = -4					; size = 4
_k$ = 8							; size = 4
??$GetIntAttribute_e@$07@ioXMLElement@@QBEHAAY07$$CBD@Z PROC ; ioXMLElement::GetIntAttribute_e<8>, COMDAT
; _this$ = ecx

; 86   : 	{

  00000	55		 push	 ebp
  00001	8b ec		 mov	 ebp, esp
  00003	83 ec 10	 sub	 esp, 16			; 00000010H
  00006	a1 00 00 00 00	 mov	 eax, DWORD PTR ___security_cookie
  0000b	33 c5		 xor	 eax, ebp
  0000d	89 45 fc	 mov	 DWORD PTR __$ArrayPad$[ebp], eax
  00010	8b 45 08	 mov	 eax, DWORD PTR _k$[ebp]

; 87   : 		_ENCSTR(k, _k);

  00013	8a 10		 mov	 dl, BYTE PTR [eax]
  00015	56		 push	 esi
  00016	8b f1		 mov	 esi, ecx
  00018	84 d2		 test	 dl, dl
  0001a	0f 84 d7 00 00
	00		 je	 $LN96@GetIntAttr
  00020	80 f2 ed	 xor	 dl, -19			; ffffffedH
  00023	88 55 f0	 mov	 BYTE PTR __k$[ebp], dl
  00026	8a 50 01	 mov	 dl, BYTE PTR [eax+1]
  00029	84 d2		 test	 dl, dl
  0002b	0f 84 c0 00 00
	00		 je	 $LN95@GetIntAttr
  00031	80 f2 ec	 xor	 dl, -20			; ffffffecH
  00034	88 55 f1	 mov	 BYTE PTR __k$[ebp+1], dl
  00037	8a 50 02	 mov	 dl, BYTE PTR [eax+2]
  0003a	84 d2		 test	 dl, dl
  0003c	0f 84 a9 00 00
	00		 je	 $LN94@GetIntAttr
  00042	80 f2 eb	 xor	 dl, -21			; ffffffebH
  00045	88 55 f2	 mov	 BYTE PTR __k$[ebp+2], dl
  00048	8a 50 03	 mov	 dl, BYTE PTR [eax+3]
  0004b	84 d2		 test	 dl, dl
  0004d	0f 84 92 00 00
	00		 je	 $LN93@GetIntAttr
  00053	80 f2 ea	 xor	 dl, -22			; ffffffeaH
  00056	88 55 f3	 mov	 BYTE PTR __k$[ebp+3], dl
  00059	8a 50 04	 mov	 dl, BYTE PTR [eax+4]
  0005c	84 d2		 test	 dl, dl
  0005e	74 7f		 je	 SHORT $LN92@GetIntAttr
  00060	80 f2 ed	 xor	 dl, -19			; ffffffedH
  00063	88 55 f4	 mov	 BYTE PTR __k$[ebp+4], dl
  00066	8a 50 05	 mov	 dl, BYTE PTR [eax+5]
  00069	84 d2		 test	 dl, dl
  0006b	74 6c		 je	 SHORT $LN91@GetIntAttr
  0006d	80 f2 ec	 xor	 dl, -20			; ffffffecH
  00070	88 55 f5	 mov	 BYTE PTR __k$[ebp+5], dl
  00073	8a 50 06	 mov	 dl, BYTE PTR [eax+6]
  00076	84 d2		 test	 dl, dl
  00078	74 59		 je	 SHORT $LN90@GetIntAttr
  0007a	80 f2 eb	 xor	 dl, -21			; ffffffebH
  0007d	80 78 07 00	 cmp	 BYTE PTR [eax+7], 0
  00081	88 55 f6	 mov	 BYTE PTR __k$[ebp+6], dl
  00084	74 75		 je	 SHORT $LN1@GetIntAttr
  00086	8a 50 08	 mov	 dl, BYTE PTR [eax+8]
  00089	84 d2		 test	 dl, dl
  0008b	74 40		 je	 SHORT $LN88@GetIntAttr
  0008d	80 f2 ed	 xor	 dl, -19			; ffffffedH
  00090	88 55 f8	 mov	 BYTE PTR __k$[ebp+8], dl
  00093	8a 50 09	 mov	 dl, BYTE PTR [eax+9]
  00096	84 d2		 test	 dl, dl
  00098	74 2d		 je	 SHORT $LN87@GetIntAttr
  0009a	80 f2 ec	 xor	 dl, -20			; ffffffecH
  0009d	88 55 f9	 mov	 BYTE PTR __k$[ebp+9], dl
  000a0	8a 50 0a	 mov	 dl, BYTE PTR [eax+10]
  000a3	84 d2		 test	 dl, dl
  000a5	74 1a		 je	 SHORT $LN86@GetIntAttr
  000a7	8a 40 0b	 mov	 al, BYTE PTR [eax+11]
  000aa	80 f2 eb	 xor	 dl, -21			; ffffffebH
  000ad	88 55 fa	 mov	 BYTE PTR __k$[ebp+10], dl
  000b0	84 c0		 test	 al, al
  000b2	74 07		 je	 SHORT $LN85@GetIntAttr
  000b4	34 ea		 xor	 al, -22			; ffffffeaH
  000b6	88 45 fb	 mov	 BYTE PTR __k$[ebp+11], al
  000b9	eb 40		 jmp	 SHORT $LN1@GetIntAttr
$LN85@GetIntAttr:
  000bb	c6 45 fb ea	 mov	 BYTE PTR __k$[ebp+11], -22 ; ffffffeaH
  000bf	eb 3a		 jmp	 SHORT $LN1@GetIntAttr
$LN86@GetIntAttr:
  000c1	c6 45 fa eb	 mov	 BYTE PTR __k$[ebp+10], -21 ; ffffffebH
  000c5	eb 34		 jmp	 SHORT $LN1@GetIntAttr
$LN87@GetIntAttr:
  000c7	c6 45 f9 ec	 mov	 BYTE PTR __k$[ebp+9], -20 ; ffffffecH
  000cb	eb 2e		 jmp	 SHORT $LN1@GetIntAttr
$LN88@GetIntAttr:
  000cd	c6 45 f8 ed	 mov	 BYTE PTR __k$[ebp+8], -19 ; ffffffedH
  000d1	eb 28		 jmp	 SHORT $LN1@GetIntAttr
$LN90@GetIntAttr:
  000d3	c6 45 f6 eb	 mov	 BYTE PTR __k$[ebp+6], -21 ; ffffffebH
  000d7	eb 22		 jmp	 SHORT $LN1@GetIntAttr
$LN91@GetIntAttr:
  000d9	c6 45 f5 ec	 mov	 BYTE PTR __k$[ebp+5], -20 ; ffffffecH
  000dd	eb 1c		 jmp	 SHORT $LN1@GetIntAttr
$LN92@GetIntAttr:
  000df	c6 45 f4 ed	 mov	 BYTE PTR __k$[ebp+4], -19 ; ffffffedH
  000e3	eb 16		 jmp	 SHORT $LN1@GetIntAttr
$LN93@GetIntAttr:
  000e5	c6 45 f3 ea	 mov	 BYTE PTR __k$[ebp+3], -22 ; ffffffeaH
  000e9	eb 10		 jmp	 SHORT $LN1@GetIntAttr
$LN94@GetIntAttr:
  000eb	c6 45 f2 eb	 mov	 BYTE PTR __k$[ebp+2], -21 ; ffffffebH
  000ef	eb 0a		 jmp	 SHORT $LN1@GetIntAttr
$LN95@GetIntAttr:
  000f1	c6 45 f1 ec	 mov	 BYTE PTR __k$[ebp+1], -20 ; ffffffecH
  000f5	eb 04		 jmp	 SHORT $LN1@GetIntAttr
$LN96@GetIntAttr:
  000f7	c6 45 f0 ed	 mov	 BYTE PTR __k$[ebp], -19	; ffffffedH
$LN1@GetIntAttr:
  000fb	81 75 f0 ed ec
	eb ea		 xor	 DWORD PTR __k$[ebp], -353637139 ; eaebecedH
  00102	6a 04		 push	 4
  00104	c6 45 f7 00	 mov	 BYTE PTR __k$[ebp+7], 0
  00108	58		 pop	 eax
$LL101@GetIntAttr:
  00109	8b c8		 mov	 ecx, eax
  0010b	81 e1 03 00 00
	80		 and	 ecx, -2147483645	; 80000003H
  00111	79 05		 jns	 SHORT $LN111@GetIntAttr
  00113	49		 dec	 ecx
  00114	83 c9 fc	 or	 ecx, -4			; fffffffcH
  00117	41		 inc	 ecx
$LN111@GetIntAttr:
  00118	b2 ed		 mov	 dl, -19			; ffffffedH
  0011a	2a d1		 sub	 dl, cl
  0011c	30 54 05 f0	 xor	 BYTE PTR __k$[ebp+eax], dl
  00120	40		 inc	 eax
  00121	83 f8 07	 cmp	 eax, 7
  00124	7c e3		 jl	 SHORT $LL101@GetIntAttr

; 88   : 		return GetIntAttribute(_k);

  00126	8d 45 f0	 lea	 eax, DWORD PTR __k$[ebp]
  00129	50		 push	 eax
  0012a	8b ce		 mov	 ecx, esi
  0012c	ff 15 00 00 00
	00		 call	 DWORD PTR __imp_?GetIntAttribute@ioXMLElement@@QBEHPBD@Z

; 89   : 	}

  00132	8b 4d fc	 mov	 ecx, DWORD PTR __$ArrayPad$[ebp]
  00135	33 cd		 xor	 ecx, ebp
  00137	5e		 pop	 esi
  00138	e8 00 00 00 00	 call	 @__security_check_cookie@4
  0013d	c9		 leave
  0013e	c2 04 00	 ret	 4
??$GetIntAttribute_e@$07@ioXMLElement@@QBEHAAY07$$CBD@Z ENDP ; ioXMLElement::GetIntAttribute_e<8>
_TEXT	ENDS
PUBLIC	__$ArrayPad$
PUBLIC	??$?8$0M@@@YA_NABVioHashString@@AAY0M@$$CBD@Z	; operator==<12>
; Function compile flags: /Ogsp
; File d:\lost saga for developer\youtube\tutorial\source\src\io3dengine\iohashstring.h
;	COMDAT ??$?8$0M@@@YA_NABVioHashString@@AAY0M@$$CBD@Z
_TEXT	SEGMENT
__t$ = -20						; size = 12
__$ArrayPad$ = -4					; size = 4
_lhs$ = 8						; size = 4
_t$ = 12						; size = 4
??$?8$0M@@@YA_NABVioHashString@@AAY0M@$$CBD@Z PROC	; operator==<12>, COMDAT

; 146  : {

  00000	55		 push	 ebp
  00001	8b ec		 mov	 ebp, esp
  00003	83 ec 14	 sub	 esp, 20			; 00000014H
  00006	a1 00 00 00 00	 mov	 eax, DWORD PTR ___security_cookie
  0000b	33 c5		 xor	 eax, ebp
  0000d	89 45 fc	 mov	 DWORD PTR __$ArrayPad$[ebp], eax
  00010	8b 45 0c	 mov	 eax, DWORD PTR _t$[ebp]

; 147  : 	_ENCSTR(t, _t); return ( strcmp( lhs.c_str(), _t ) == 0 );

  00013	8a 10		 mov	 dl, BYTE PTR [eax]
  00015	56		 push	 esi
  00016	57		 push	 edi
  00017	8b 7d 08	 mov	 edi, DWORD PTR _lhs$[ebp]
  0001a	84 d2		 test	 dl, dl
  0001c	0f 84 32 01 00
	00		 je	 $LN96@operator
  00022	80 f2 ed	 xor	 dl, -19			; ffffffedH
  00025	88 55 ec	 mov	 BYTE PTR __t$[ebp], dl
  00028	8a 50 01	 mov	 dl, BYTE PTR [eax+1]
  0002b	84 d2		 test	 dl, dl
  0002d	0f 84 1b 01 00
	00		 je	 $LN95@operator
  00033	80 f2 ec	 xor	 dl, -20			; ffffffecH
  00036	88 55 ed	 mov	 BYTE PTR __t$[ebp+1], dl
  00039	8a 50 02	 mov	 dl, BYTE PTR [eax+2]
  0003c	84 d2		 test	 dl, dl
  0003e	0f 84 04 01 00
	00		 je	 $LN94@operator
  00044	b1 eb		 mov	 cl, -21			; ffffffebH
  00046	32 d1		 xor	 dl, cl
  00048	88 55 ee	 mov	 BYTE PTR __t$[ebp+2], dl
  0004b	8a 50 03	 mov	 dl, BYTE PTR [eax+3]
  0004e	84 d2		 test	 dl, dl
  00050	0f 84 ec 00 00
	00		 je	 $LN93@operator
  00056	80 f2 ea	 xor	 dl, -22			; ffffffeaH
  00059	88 55 ef	 mov	 BYTE PTR __t$[ebp+3], dl
  0005c	8a 50 04	 mov	 dl, BYTE PTR [eax+4]
  0005f	84 d2		 test	 dl, dl
  00061	0f 84 d5 00 00
	00		 je	 $LN92@operator
  00067	80 f2 ed	 xor	 dl, -19			; ffffffedH
  0006a	88 55 f0	 mov	 BYTE PTR __t$[ebp+4], dl
  0006d	8a 50 05	 mov	 dl, BYTE PTR [eax+5]
  00070	84 d2		 test	 dl, dl
  00072	0f 84 be 00 00
	00		 je	 $LN91@operator
  00078	80 f2 ec	 xor	 dl, -20			; ffffffecH
  0007b	88 55 f1	 mov	 BYTE PTR __t$[ebp+5], dl
  0007e	8a 50 06	 mov	 dl, BYTE PTR [eax+6]
  00081	84 d2		 test	 dl, dl
  00083	0f 84 a8 00 00
	00		 je	 $LN90@operator
  00089	32 d1		 xor	 dl, cl
  0008b	88 55 f2	 mov	 BYTE PTR __t$[ebp+6], dl
  0008e	8a 50 07	 mov	 dl, BYTE PTR [eax+7]
  00091	84 d2		 test	 dl, dl
  00093	0f 84 92 00 00
	00		 je	 $LN89@operator
  00099	80 f2 ea	 xor	 dl, -22			; ffffffeaH
  0009c	88 55 f3	 mov	 BYTE PTR __t$[ebp+7], dl
  0009f	8a 50 08	 mov	 dl, BYTE PTR [eax+8]
  000a2	84 d2		 test	 dl, dl
  000a4	74 7f		 je	 SHORT $LN88@operator
  000a6	80 f2 ed	 xor	 dl, -19			; ffffffedH
  000a9	88 55 f4	 mov	 BYTE PTR __t$[ebp+8], dl
  000ac	8a 50 09	 mov	 dl, BYTE PTR [eax+9]
  000af	84 d2		 test	 dl, dl
  000b1	74 6c		 je	 SHORT $LN87@operator
  000b3	80 f2 ec	 xor	 dl, -20			; ffffffecH
  000b6	88 55 f5	 mov	 BYTE PTR __t$[ebp+9], dl
  000b9	8a 50 0a	 mov	 dl, BYTE PTR [eax+10]
  000bc	84 d2		 test	 dl, dl
  000be	74 5a		 je	 SHORT $LN86@operator
  000c0	32 d1		 xor	 dl, cl
  000c2	80 78 0b 00	 cmp	 BYTE PTR [eax+11], 0
  000c6	88 55 f6	 mov	 BYTE PTR __t$[ebp+10], dl
  000c9	0f 84 89 00 00
	00		 je	 $LN1@operator
  000cf	8a 50 0c	 mov	 dl, BYTE PTR [eax+12]
  000d2	84 d2		 test	 dl, dl
  000d4	74 3e		 je	 SHORT $LN84@operator
  000d6	80 f2 ed	 xor	 dl, -19			; ffffffedH
  000d9	88 55 f8	 mov	 BYTE PTR __t$[ebp+12], dl
  000dc	8a 50 0d	 mov	 dl, BYTE PTR [eax+13]
  000df	84 d2		 test	 dl, dl
  000e1	74 2b		 je	 SHORT $LN83@operator
  000e3	80 f2 ec	 xor	 dl, -20			; ffffffecH
  000e6	88 55 f9	 mov	 BYTE PTR __t$[ebp+13], dl
  000e9	8a 50 0e	 mov	 dl, BYTE PTR [eax+14]
  000ec	84 d2		 test	 dl, dl
  000ee	74 19		 je	 SHORT $LN82@operator
  000f0	8a 40 0f	 mov	 al, BYTE PTR [eax+15]
  000f3	32 d1		 xor	 dl, cl
  000f5	88 55 fa	 mov	 BYTE PTR __t$[ebp+14], dl
  000f8	84 c0		 test	 al, al
  000fa	74 07		 je	 SHORT $LN81@operator
  000fc	34 ea		 xor	 al, -22			; ffffffeaH
  000fe	88 45 fb	 mov	 BYTE PTR __t$[ebp+15], al
  00101	eb 55		 jmp	 SHORT $LN1@operator
$LN81@operator:
  00103	c6 45 fb ea	 mov	 BYTE PTR __t$[ebp+15], -22 ; ffffffeaH
  00107	eb 4f		 jmp	 SHORT $LN1@operator
$LN82@operator:
  00109	88 4d fa	 mov	 BYTE PTR __t$[ebp+14], cl
  0010c	eb 4a		 jmp	 SHORT $LN1@operator
$LN83@operator:
  0010e	c6 45 f9 ec	 mov	 BYTE PTR __t$[ebp+13], -20 ; ffffffecH
  00112	eb 44		 jmp	 SHORT $LN1@operator
$LN84@operator:
  00114	c6 45 f8 ed	 mov	 BYTE PTR __t$[ebp+12], -19 ; ffffffedH
  00118	eb 3e		 jmp	 SHORT $LN1@operator
$LN86@operator:
  0011a	88 4d f6	 mov	 BYTE PTR __t$[ebp+10], cl
  0011d	eb 39		 jmp	 SHORT $LN1@operator
$LN87@operator:
  0011f	c6 45 f5 ec	 mov	 BYTE PTR __t$[ebp+9], -20 ; ffffffecH
  00123	eb 33		 jmp	 SHORT $LN1@operator
$LN88@operator:
  00125	c6 45 f4 ed	 mov	 BYTE PTR __t$[ebp+8], -19 ; ffffffedH
  00129	eb 2d		 jmp	 SHORT $LN1@operator
$LN89@operator:
  0012b	c6 45 f3 ea	 mov	 BYTE PTR __t$[ebp+7], -22 ; ffffffeaH
  0012f	eb 27		 jmp	 SHORT $LN1@operator
$LN90@operator:
  00131	88 4d f2	 mov	 BYTE PTR __t$[ebp+6], cl
  00134	eb 22		 jmp	 SHORT $LN1@operator
$LN91@operator:
  00136	c6 45 f1 ec	 mov	 BYTE PTR __t$[ebp+5], -20 ; ffffffecH
  0013a	eb 1c		 jmp	 SHORT $LN1@operator
$LN92@operator:
  0013c	c6 45 f0 ed	 mov	 BYTE PTR __t$[ebp+4], -19 ; ffffffedH
  00140	eb 16		 jmp	 SHORT $LN1@operator
$LN93@operator:
  00142	c6 45 ef ea	 mov	 BYTE PTR __t$[ebp+3], -22 ; ffffffeaH
  00146	eb 10		 jmp	 SHORT $LN1@operator
$LN94@operator:
  00148	c6 45 ee eb	 mov	 BYTE PTR __t$[ebp+2], -21 ; ffffffebH
  0014c	eb 0a		 jmp	 SHORT $LN1@operator
$LN95@operator:
  0014e	c6 45 ed ec	 mov	 BYTE PTR __t$[ebp+1], -20 ; ffffffecH
  00152	eb 04		 jmp	 SHORT $LN1@operator
$LN96@operator:
  00154	c6 45 ec ed	 mov	 BYTE PTR __t$[ebp], -19	; ffffffedH
$LN1@operator:
  00158	6a 02		 push	 2
  0015a	8d 45 ec	 lea	 eax, DWORD PTR __t$[ebp]
  0015d	c6 45 f7 00	 mov	 BYTE PTR __t$[ebp+11], 0
  00161	5a		 pop	 edx
$LL104@operator:
  00162	81 30 ed ec eb
	ea		 xor	 DWORD PTR [eax], -353637139 ; eaebecedH
  00168	83 c0 04	 add	 eax, 4
  0016b	4a		 dec	 edx
  0016c	75 f4		 jne	 SHORT $LL104@operator
  0016e	6a 08		 push	 8
  00170	58		 pop	 eax
$LL101@operator:
  00171	8b c8		 mov	 ecx, eax
  00173	81 e1 03 00 00
	80		 and	 ecx, -2147483645	; 80000003H
  00179	79 05		 jns	 SHORT $LN115@operator
  0017b	49		 dec	 ecx
  0017c	83 c9 fc	 or	 ecx, -4			; fffffffcH
  0017f	41		 inc	 ecx
$LN115@operator:
  00180	b2 ed		 mov	 dl, -19			; ffffffedH
  00182	2a d1		 sub	 dl, cl
  00184	30 54 05 ec	 xor	 BYTE PTR __t$[ebp+eax], dl
  00188	40		 inc	 eax
  00189	83 f8 0b	 cmp	 eax, 11			; 0000000bH
  0018c	7c e3		 jl	 SHORT $LL101@operator
  0018e	8b cf		 mov	 ecx, edi
  00190	8d 75 ec	 lea	 esi, DWORD PTR __t$[ebp]
  00193	ff 15 00 00 00
	00		 call	 DWORD PTR __imp_?c_str@ioHashString@@QBEPBDXZ
$LL111@operator:
  00199	8a 08		 mov	 cl, BYTE PTR [eax]
  0019b	3a 0e		 cmp	 cl, BYTE PTR [esi]
  0019d	75 1a		 jne	 SHORT $LN112@operator
  0019f	84 c9		 test	 cl, cl
  001a1	74 12		 je	 SHORT $LN113@operator
  001a3	8a 48 01	 mov	 cl, BYTE PTR [eax+1]
  001a6	3a 4e 01	 cmp	 cl, BYTE PTR [esi+1]
  001a9	75 0e		 jne	 SHORT $LN112@operator
  001ab	83 c0 02	 add	 eax, 2
  001ae	83 c6 02	 add	 esi, 2
  001b1	84 c9		 test	 cl, cl
  001b3	75 e4		 jne	 SHORT $LL111@operator
$LN113@operator:
  001b5	33 c0		 xor	 eax, eax
  001b7	eb 05		 jmp	 SHORT $LN114@operator
$LN112@operator:
  001b9	1b c0		 sbb	 eax, eax
  001bb	83 d8 ff	 sbb	 eax, -1
$LN114@operator:
  001be	33 c9		 xor	 ecx, ecx
  001c0	85 c0		 test	 eax, eax
  001c2	0f 94 c0	 sete	 al

; 148  : }

  001c5	8b 4d fc	 mov	 ecx, DWORD PTR __$ArrayPad$[ebp]
  001c8	5f		 pop	 edi
  001c9	33 cd		 xor	 ecx, ebp
  001cb	5e		 pop	 esi
  001cc	e8 00 00 00 00	 call	 @__security_check_cookie@4
  001d1	c9		 leave
  001d2	c3		 ret	 0
??$?8$0M@@@YA_NABVioHashString@@AAY0M@$$CBD@Z ENDP	; operator==<12>
_TEXT	ENDS
PUBLIC	__$ArrayPad$
PUBLIC	??$?8$07@@YA_NABVioHashString@@AAY07$$CBD@Z	; operator==<8>
; Function compile flags: /Ogsp
;	COMDAT ??$?8$07@@YA_NABVioHashString@@AAY07$$CBD@Z
_TEXT	SEGMENT
__t$ = -16						; size = 8
__$ArrayPad$ = -4					; size = 4
_lhs$ = 8						; size = 4
_t$ = 12						; size = 4
??$?8$07@@YA_NABVioHashString@@AAY07$$CBD@Z PROC	; operator==<8>, COMDAT

; 146  : {

  00000	55		 push	 ebp
  00001	8b ec		 mov	 ebp, esp
  00003	83 ec 10	 sub	 esp, 16			; 00000010H
  00006	a1 00 00 00 00	 mov	 eax, DWORD PTR ___security_cookie
  0000b	33 c5		 xor	 eax, ebp
  0000d	89 45 fc	 mov	 DWORD PTR __$ArrayPad$[ebp], eax
  00010	8b 45 0c	 mov	 eax, DWORD PTR _t$[ebp]

; 147  : 	_ENCSTR(t, _t); return ( strcmp( lhs.c_str(), _t ) == 0 );

  00013	8a 10		 mov	 dl, BYTE PTR [eax]
  00015	56		 push	 esi
  00016	57		 push	 edi
  00017	8b 7d 08	 mov	 edi, DWORD PTR _lhs$[ebp]
  0001a	84 d2		 test	 dl, dl
  0001c	0f 84 d7 00 00
	00		 je	 $LN96@operator@2
  00022	80 f2 ed	 xor	 dl, -19			; ffffffedH
  00025	88 55 f0	 mov	 BYTE PTR __t$[ebp], dl
  00028	8a 50 01	 mov	 dl, BYTE PTR [eax+1]
  0002b	84 d2		 test	 dl, dl
  0002d	0f 84 c0 00 00
	00		 je	 $LN95@operator@2
  00033	80 f2 ec	 xor	 dl, -20			; ffffffecH
  00036	88 55 f1	 mov	 BYTE PTR __t$[ebp+1], dl
  00039	8a 50 02	 mov	 dl, BYTE PTR [eax+2]
  0003c	84 d2		 test	 dl, dl
  0003e	0f 84 a9 00 00
	00		 je	 $LN94@operator@2
  00044	80 f2 eb	 xor	 dl, -21			; ffffffebH
  00047	88 55 f2	 mov	 BYTE PTR __t$[ebp+2], dl
  0004a	8a 50 03	 mov	 dl, BYTE PTR [eax+3]
  0004d	84 d2		 test	 dl, dl
  0004f	0f 84 92 00 00
	00		 je	 $LN93@operator@2
  00055	80 f2 ea	 xor	 dl, -22			; ffffffeaH
  00058	88 55 f3	 mov	 BYTE PTR __t$[ebp+3], dl
  0005b	8a 50 04	 mov	 dl, BYTE PTR [eax+4]
  0005e	84 d2		 test	 dl, dl
  00060	74 7f		 je	 SHORT $LN92@operator@2
  00062	80 f2 ed	 xor	 dl, -19			; ffffffedH
  00065	88 55 f4	 mov	 BYTE PTR __t$[ebp+4], dl
  00068	8a 50 05	 mov	 dl, BYTE PTR [eax+5]
  0006b	84 d2		 test	 dl, dl
  0006d	74 6c		 je	 SHORT $LN91@operator@2
  0006f	80 f2 ec	 xor	 dl, -20			; ffffffecH
  00072	88 55 f5	 mov	 BYTE PTR __t$[ebp+5], dl
  00075	8a 50 06	 mov	 dl, BYTE PTR [eax+6]
  00078	84 d2		 test	 dl, dl
  0007a	74 59		 je	 SHORT $LN90@operator@2
  0007c	80 f2 eb	 xor	 dl, -21			; ffffffebH
  0007f	80 78 07 00	 cmp	 BYTE PTR [eax+7], 0
  00083	88 55 f6	 mov	 BYTE PTR __t$[ebp+6], dl
  00086	74 75		 je	 SHORT $LN1@operator@2
  00088	8a 50 08	 mov	 dl, BYTE PTR [eax+8]
  0008b	84 d2		 test	 dl, dl
  0008d	74 40		 je	 SHORT $LN88@operator@2
  0008f	80 f2 ed	 xor	 dl, -19			; ffffffedH
  00092	88 55 f8	 mov	 BYTE PTR __t$[ebp+8], dl
  00095	8a 50 09	 mov	 dl, BYTE PTR [eax+9]
  00098	84 d2		 test	 dl, dl
  0009a	74 2d		 je	 SHORT $LN87@operator@2
  0009c	80 f2 ec	 xor	 dl, -20			; ffffffecH
  0009f	88 55 f9	 mov	 BYTE PTR __t$[ebp+9], dl
  000a2	8a 50 0a	 mov	 dl, BYTE PTR [eax+10]
  000a5	84 d2		 test	 dl, dl
  000a7	74 1a		 je	 SHORT $LN86@operator@2
  000a9	8a 40 0b	 mov	 al, BYTE PTR [eax+11]
  000ac	80 f2 eb	 xor	 dl, -21			; ffffffebH
  000af	88 55 fa	 mov	 BYTE PTR __t$[ebp+10], dl
  000b2	84 c0		 test	 al, al
  000b4	74 07		 je	 SHORT $LN85@operator@2
  000b6	34 ea		 xor	 al, -22			; ffffffeaH
  000b8	88 45 fb	 mov	 BYTE PTR __t$[ebp+11], al
  000bb	eb 40		 jmp	 SHORT $LN1@operator@2
$LN85@operator@2:
  000bd	c6 45 fb ea	 mov	 BYTE PTR __t$[ebp+11], -22 ; ffffffeaH
  000c1	eb 3a		 jmp	 SHORT $LN1@operator@2
$LN86@operator@2:
  000c3	c6 45 fa eb	 mov	 BYTE PTR __t$[ebp+10], -21 ; ffffffebH
  000c7	eb 34		 jmp	 SHORT $LN1@operator@2
$LN87@operator@2:
  000c9	c6 45 f9 ec	 mov	 BYTE PTR __t$[ebp+9], -20 ; ffffffecH
  000cd	eb 2e		 jmp	 SHORT $LN1@operator@2
$LN88@operator@2:
  000cf	c6 45 f8 ed	 mov	 BYTE PTR __t$[ebp+8], -19 ; ffffffedH
  000d3	eb 28		 jmp	 SHORT $LN1@operator@2
$LN90@operator@2:
  000d5	c6 45 f6 eb	 mov	 BYTE PTR __t$[ebp+6], -21 ; ffffffebH
  000d9	eb 22		 jmp	 SHORT $LN1@operator@2
$LN91@operator@2:
  000db	c6 45 f5 ec	 mov	 BYTE PTR __t$[ebp+5], -20 ; ffffffecH
  000df	eb 1c		 jmp	 SHORT $LN1@operator@2
$LN92@operator@2:
  000e1	c6 45 f4 ed	 mov	 BYTE PTR __t$[ebp+4], -19 ; ffffffedH
  000e5	eb 16		 jmp	 SHORT $LN1@operator@2
$LN93@operator@2:
  000e7	c6 45 f3 ea	 mov	 BYTE PTR __t$[ebp+3], -22 ; ffffffeaH
  000eb	eb 10		 jmp	 SHORT $LN1@operator@2
$LN94@operator@2:
  000ed	c6 45 f2 eb	 mov	 BYTE PTR __t$[ebp+2], -21 ; ffffffebH
  000f1	eb 0a		 jmp	 SHORT $LN1@operator@2
$LN95@operator@2:
  000f3	c6 45 f1 ec	 mov	 BYTE PTR __t$[ebp+1], -20 ; ffffffecH
  000f7	eb 04		 jmp	 SHORT $LN1@operator@2
$LN96@operator@2:
  000f9	c6 45 f0 ed	 mov	 BYTE PTR __t$[ebp], -19	; ffffffedH
$LN1@operator@2:
  000fd	81 75 f0 ed ec
	eb ea		 xor	 DWORD PTR __t$[ebp], -353637139 ; eaebecedH
  00104	6a 04		 push	 4
  00106	c6 45 f7 00	 mov	 BYTE PTR __t$[ebp+7], 0
  0010a	58		 pop	 eax
$LL101@operator@2:
  0010b	8b c8		 mov	 ecx, eax
  0010d	81 e1 03 00 00
	80		 and	 ecx, -2147483645	; 80000003H
  00113	79 05		 jns	 SHORT $LN115@operator@2
  00115	49		 dec	 ecx
  00116	83 c9 fc	 or	 ecx, -4			; fffffffcH
  00119	41		 inc	 ecx
$LN115@operator@2:
  0011a	b2 ed		 mov	 dl, -19			; ffffffedH
  0011c	2a d1		 sub	 dl, cl
  0011e	30 54 05 f0	 xor	 BYTE PTR __t$[ebp+eax], dl
  00122	40		 inc	 eax
  00123	83 f8 07	 cmp	 eax, 7
  00126	7c e3		 jl	 SHORT $LL101@operator@2
  00128	8b cf		 mov	 ecx, edi
  0012a	8d 75 f0	 lea	 esi, DWORD PTR __t$[ebp]
  0012d	ff 15 00 00 00
	00		 call	 DWORD PTR __imp_?c_str@ioHashString@@QBEPBDXZ
$LL111@operator@2:
  00133	8a 08		 mov	 cl, BYTE PTR [eax]
  00135	3a 0e		 cmp	 cl, BYTE PTR [esi]
  00137	75 1a		 jne	 SHORT $LN112@operator@2
  00139	84 c9		 test	 cl, cl
  0013b	74 12		 je	 SHORT $LN113@operator@2
  0013d	8a 48 01	 mov	 cl, BYTE PTR [eax+1]
  00140	3a 4e 01	 cmp	 cl, BYTE PTR [esi+1]
  00143	75 0e		 jne	 SHORT $LN112@operator@2
  00145	83 c0 02	 add	 eax, 2
  00148	83 c6 02	 add	 esi, 2
  0014b	84 c9		 test	 cl, cl
  0014d	75 e4		 jne	 SHORT $LL111@operator@2
$LN113@operator@2:
  0014f	33 c0		 xor	 eax, eax
  00151	eb 05		 jmp	 SHORT $LN114@operator@2
$LN112@operator@2:
  00153	1b c0		 sbb	 eax, eax
  00155	83 d8 ff	 sbb	 eax, -1
$LN114@operator@2:
  00158	33 c9		 xor	 ecx, ecx
  0015a	85 c0		 test	 eax, eax
  0015c	0f 94 c0	 sete	 al

; 148  : }

  0015f	8b 4d fc	 mov	 ecx, DWORD PTR __$ArrayPad$[ebp]
  00162	5f		 pop	 edi
  00163	33 cd		 xor	 ecx, ebp
  00165	5e		 pop	 esi
  00166	e8 00 00 00 00	 call	 @__security_check_cookie@4
  0016b	c9		 leave
  0016c	c3		 ret	 0
??$?8$07@@YA_NABVioHashString@@AAY07$$CBD@Z ENDP	; operator==<8>
_TEXT	ENDS
PUBLIC	__$ArrayPad$
PUBLIC	??$GetStringAttribute_e@$0O@@ioXMLElement@@QBEPBDAAY0O@$$CBD@Z ; ioXMLElement::GetStringAttribute_e<14>
EXTRN	__imp_?GetStringAttribute@ioXMLElement@@QBEPBDPBD@Z:PROC
; Function compile flags: /Ogsp
; File d:\lost saga for developer\youtube\tutorial\source\src\io3dengine\ioxmlelement.h
;	COMDAT ??$GetStringAttribute_e@$0O@@ioXMLElement@@QBEPBDAAY0O@$$CBD@Z
_TEXT	SEGMENT
__k$ = -24						; size = 14
__$ArrayPad$ = -4					; size = 4
_k$ = 8							; size = 4
??$GetStringAttribute_e@$0O@@ioXMLElement@@QBEPBDAAY0O@$$CBD@Z PROC ; ioXMLElement::GetStringAttribute_e<14>, COMDAT
; _this$ = ecx

; 107  : 	{

  00000	55		 push	 ebp
  00001	8b ec		 mov	 ebp, esp
  00003	83 ec 18	 sub	 esp, 24			; 00000018H
  00006	a1 00 00 00 00	 mov	 eax, DWORD PTR ___security_cookie
  0000b	33 c5		 xor	 eax, ebp
  0000d	89 45 fc	 mov	 DWORD PTR __$ArrayPad$[ebp], eax
  00010	8b 45 08	 mov	 eax, DWORD PTR _k$[ebp]

; 108  : 		_ENCSTR(k, _k);

  00013	8a 10		 mov	 dl, BYTE PTR [eax]
  00015	56		 push	 esi
  00016	8b f1		 mov	 esi, ecx
  00018	84 d2		 test	 dl, dl
  0001a	0f 84 64 01 00
	00		 je	 $LN96@GetStringA
  00020	80 f2 ed	 xor	 dl, -19			; ffffffedH
  00023	88 55 e8	 mov	 BYTE PTR __k$[ebp], dl
  00026	8a 50 01	 mov	 dl, BYTE PTR [eax+1]
  00029	84 d2		 test	 dl, dl
  0002b	0f 84 4d 01 00
	00		 je	 $LN95@GetStringA
  00031	80 f2 ec	 xor	 dl, -20			; ffffffecH
  00034	88 55 e9	 mov	 BYTE PTR __k$[ebp+1], dl
  00037	8a 50 02	 mov	 dl, BYTE PTR [eax+2]
  0003a	84 d2		 test	 dl, dl
  0003c	0f 84 36 01 00
	00		 je	 $LN94@GetStringA
  00042	b1 eb		 mov	 cl, -21			; ffffffebH
  00044	32 d1		 xor	 dl, cl
  00046	88 55 ea	 mov	 BYTE PTR __k$[ebp+2], dl
  00049	8a 50 03	 mov	 dl, BYTE PTR [eax+3]
  0004c	84 d2		 test	 dl, dl
  0004e	0f 84 1e 01 00
	00		 je	 $LN93@GetStringA
  00054	80 f2 ea	 xor	 dl, -22			; ffffffeaH
  00057	88 55 eb	 mov	 BYTE PTR __k$[ebp+3], dl
  0005a	8a 50 04	 mov	 dl, BYTE PTR [eax+4]
  0005d	84 d2		 test	 dl, dl
  0005f	0f 84 07 01 00
	00		 je	 $LN92@GetStringA
  00065	80 f2 ed	 xor	 dl, -19			; ffffffedH
  00068	88 55 ec	 mov	 BYTE PTR __k$[ebp+4], dl
  0006b	8a 50 05	 mov	 dl, BYTE PTR [eax+5]
  0006e	84 d2		 test	 dl, dl
  00070	0f 84 f0 00 00
	00		 je	 $LN91@GetStringA
  00076	80 f2 ec	 xor	 dl, -20			; ffffffecH
  00079	88 55 ed	 mov	 BYTE PTR __k$[ebp+5], dl
  0007c	8a 50 06	 mov	 dl, BYTE PTR [eax+6]
  0007f	84 d2		 test	 dl, dl
  00081	0f 84 da 00 00
	00		 je	 $LN90@GetStringA
  00087	32 d1		 xor	 dl, cl
  00089	88 55 ee	 mov	 BYTE PTR __k$[ebp+6], dl
  0008c	8a 50 07	 mov	 dl, BYTE PTR [eax+7]
  0008f	84 d2		 test	 dl, dl
  00091	0f 84 c4 00 00
	00		 je	 $LN89@GetStringA
  00097	80 f2 ea	 xor	 dl, -22			; ffffffeaH
  0009a	88 55 ef	 mov	 BYTE PTR __k$[ebp+7], dl
  0009d	8a 50 08	 mov	 dl, BYTE PTR [eax+8]
  000a0	84 d2		 test	 dl, dl
  000a2	0f 84 ad 00 00
	00		 je	 $LN88@GetStringA
  000a8	80 f2 ed	 xor	 dl, -19			; ffffffedH
  000ab	88 55 f0	 mov	 BYTE PTR __k$[ebp+8], dl
  000ae	8a 50 09	 mov	 dl, BYTE PTR [eax+9]
  000b1	84 d2		 test	 dl, dl
  000b3	0f 84 96 00 00
	00		 je	 $LN87@GetStringA
  000b9	80 f2 ec	 xor	 dl, -20			; ffffffecH
  000bc	88 55 f1	 mov	 BYTE PTR __k$[ebp+9], dl
  000bf	8a 50 0a	 mov	 dl, BYTE PTR [eax+10]
  000c2	84 d2		 test	 dl, dl
  000c4	0f 84 80 00 00
	00		 je	 $LN86@GetStringA
  000ca	32 d1		 xor	 dl, cl
  000cc	88 55 f2	 mov	 BYTE PTR __k$[ebp+10], dl
  000cf	8a 50 0b	 mov	 dl, BYTE PTR [eax+11]
  000d2	84 d2		 test	 dl, dl
  000d4	74 6e		 je	 SHORT $LN85@GetStringA
  000d6	80 f2 ea	 xor	 dl, -22			; ffffffeaH
  000d9	88 55 f3	 mov	 BYTE PTR __k$[ebp+11], dl
  000dc	8a 50 0c	 mov	 dl, BYTE PTR [eax+12]
  000df	84 d2		 test	 dl, dl
  000e1	74 5b		 je	 SHORT $LN84@GetStringA
  000e3	80 f2 ed	 xor	 dl, -19			; ffffffedH
  000e6	80 78 0d 00	 cmp	 BYTE PTR [eax+13], 0
  000ea	88 55 f4	 mov	 BYTE PTR __k$[ebp+12], dl
  000ed	0f 84 95 00 00
	00		 je	 $LN1@GetStringA
  000f3	8a 50 0e	 mov	 dl, BYTE PTR [eax+14]
  000f6	84 d2		 test	 dl, dl
  000f8	74 3f		 je	 SHORT $LN82@GetStringA
  000fa	32 d1		 xor	 dl, cl
  000fc	88 55 f6	 mov	 BYTE PTR __k$[ebp+14], dl
  000ff	8a 50 0f	 mov	 dl, BYTE PTR [eax+15]
  00102	84 d2		 test	 dl, dl
  00104	74 2d		 je	 SHORT $LN81@GetStringA
  00106	80 f2 ea	 xor	 dl, -22			; ffffffeaH
  00109	88 55 f7	 mov	 BYTE PTR __k$[ebp+15], dl
  0010c	8a 50 10	 mov	 dl, BYTE PTR [eax+16]
  0010f	84 d2		 test	 dl, dl
  00111	74 1a		 je	 SHORT $LN80@GetStringA
  00113	8a 40 11	 mov	 al, BYTE PTR [eax+17]
  00116	80 f2 ed	 xor	 dl, -19			; ffffffedH
  00119	88 55 f8	 mov	 BYTE PTR __k$[ebp+16], dl
  0011c	84 c0		 test	 al, al
  0011e	74 07		 je	 SHORT $LN79@GetStringA
  00120	34 ec		 xor	 al, -20			; ffffffecH
  00122	88 45 f9	 mov	 BYTE PTR __k$[ebp+17], al
  00125	eb 61		 jmp	 SHORT $LN1@GetStringA
$LN79@GetStringA:
  00127	c6 45 f9 ec	 mov	 BYTE PTR __k$[ebp+17], -20 ; ffffffecH
  0012b	eb 5b		 jmp	 SHORT $LN1@GetStringA
$LN80@GetStringA:
  0012d	c6 45 f8 ed	 mov	 BYTE PTR __k$[ebp+16], -19 ; ffffffedH
  00131	eb 55		 jmp	 SHORT $LN1@GetStringA
$LN81@GetStringA:
  00133	c6 45 f7 ea	 mov	 BYTE PTR __k$[ebp+15], -22 ; ffffffeaH
  00137	eb 4f		 jmp	 SHORT $LN1@GetStringA
$LN82@GetStringA:
  00139	88 4d f6	 mov	 BYTE PTR __k$[ebp+14], cl
  0013c	eb 4a		 jmp	 SHORT $LN1@GetStringA
$LN84@GetStringA:
  0013e	c6 45 f4 ed	 mov	 BYTE PTR __k$[ebp+12], -19 ; ffffffedH
  00142	eb 44		 jmp	 SHORT $LN1@GetStringA
$LN85@GetStringA:
  00144	c6 45 f3 ea	 mov	 BYTE PTR __k$[ebp+11], -22 ; ffffffeaH
  00148	eb 3e		 jmp	 SHORT $LN1@GetStringA
$LN86@GetStringA:
  0014a	88 4d f2	 mov	 BYTE PTR __k$[ebp+10], cl
  0014d	eb 39		 jmp	 SHORT $LN1@GetStringA
$LN87@GetStringA:
  0014f	c6 45 f1 ec	 mov	 BYTE PTR __k$[ebp+9], -20 ; ffffffecH
  00153	eb 33		 jmp	 SHORT $LN1@GetStringA
$LN88@GetStringA:
  00155	c6 45 f0 ed	 mov	 BYTE PTR __k$[ebp+8], -19 ; ffffffedH
  00159	eb 2d		 jmp	 SHORT $LN1@GetStringA
$LN89@GetStringA:
  0015b	c6 45 ef ea	 mov	 BYTE PTR __k$[ebp+7], -22 ; ffffffeaH
  0015f	eb 27		 jmp	 SHORT $LN1@GetStringA
$LN90@GetStringA:
  00161	88 4d ee	 mov	 BYTE PTR __k$[ebp+6], cl
  00164	eb 22		 jmp	 SHORT $LN1@GetStringA
$LN91@GetStringA:
  00166	c6 45 ed ec	 mov	 BYTE PTR __k$[ebp+5], -20 ; ffffffecH
  0016a	eb 1c		 jmp	 SHORT $LN1@GetStringA
$LN92@GetStringA:
  0016c	c6 45 ec ed	 mov	 BYTE PTR __k$[ebp+4], -19 ; ffffffedH
  00170	eb 16		 jmp	 SHORT $LN1@GetStringA
$LN93@GetStringA:
  00172	c6 45 eb ea	 mov	 BYTE PTR __k$[ebp+3], -22 ; ffffffeaH
  00176	eb 10		 jmp	 SHORT $LN1@GetStringA
$LN94@GetStringA:
  00178	c6 45 ea eb	 mov	 BYTE PTR __k$[ebp+2], -21 ; ffffffebH
  0017c	eb 0a		 jmp	 SHORT $LN1@GetStringA
$LN95@GetStringA:
  0017e	c6 45 e9 ec	 mov	 BYTE PTR __k$[ebp+1], -20 ; ffffffecH
  00182	eb 04		 jmp	 SHORT $LN1@GetStringA
$LN96@GetStringA:
  00184	c6 45 e8 ed	 mov	 BYTE PTR __k$[ebp], -19	; ffffffedH
$LN1@GetStringA:
  00188	6a 03		 push	 3
  0018a	8d 45 e8	 lea	 eax, DWORD PTR __k$[ebp]
  0018d	c6 45 f5 00	 mov	 BYTE PTR __k$[ebp+13], 0
  00191	5a		 pop	 edx
$LL104@GetStringA:
  00192	81 30 ed ec eb
	ea		 xor	 DWORD PTR [eax], -353637139 ; eaebecedH
  00198	83 c0 04	 add	 eax, 4
  0019b	4a		 dec	 edx
  0019c	75 f4		 jne	 SHORT $LL104@GetStringA
  0019e	80 75 f4 ed	 xor	 BYTE PTR __k$[ebp+12], -19 ; ffffffedH

; 109  : 		return GetStringAttribute(_k);

  001a2	8d 45 e8	 lea	 eax, DWORD PTR __k$[ebp]
  001a5	50		 push	 eax
  001a6	8b ce		 mov	 ecx, esi
  001a8	ff 15 00 00 00
	00		 call	 DWORD PTR __imp_?GetStringAttribute@ioXMLElement@@QBEPBDPBD@Z

; 110  : 	}

  001ae	8b 4d fc	 mov	 ecx, DWORD PTR __$ArrayPad$[ebp]
  001b1	33 cd		 xor	 ecx, ebp
  001b3	5e		 pop	 esi
  001b4	e8 00 00 00 00	 call	 @__security_check_cookie@4
  001b9	c9		 leave
  001ba	c2 04 00	 ret	 4
??$GetStringAttribute_e@$0O@@ioXMLElement@@QBEPBDAAY0O@$$CBD@Z ENDP ; ioXMLElement::GetStringAttribute_e<14>
_TEXT	ENDS
PUBLIC	??$_Copy_impl@PAUInventorySelectItem@@PAU1@@std@@YAPAUInventorySelectItem@@PAU1@00@Z ; std::_Copy_impl<InventorySelectItem *,InventorySelectItem *>
; Function compile flags: /Ogsp
; File c:\program files (x86)\microsoft visual studio 10.0\vc\include\xutility
;	COMDAT ??$_Copy_impl@PAUInventorySelectItem@@PAU1@@std@@YAPAUInventorySelectItem@@PAU1@00@Z
_TEXT	SEGMENT
__Cat$508969 = -4					; size = 1
__First$ = 8						; size = 4
__Last$ = 12						; size = 4
__Dest$ = 16						; size = 4
??$_Copy_impl@PAUInventorySelectItem@@PAU1@@std@@YAPAUInventorySelectItem@@PAU1@00@Z PROC ; std::_Copy_impl<InventorySelectItem *,InventorySelectItem *>, COMDAT

; 2163 : 	{	// copy [_First, _Last) to [_Dest, ...)

  00000	55		 push	 ebp
  00001	8b ec		 mov	 ebp, esp
  00003	51		 push	 ecx

; 2164 : 	return (_Copy_impl(_First, _Last,
; 2165 : 		_Dest, _Ptr_cat(_First, _Dest)));

  00004	ff 75 fc	 push	 DWORD PTR __Cat$508969[ebp]
  00007	ff 75 10	 push	 DWORD PTR __Dest$[ebp]
  0000a	ff 75 0c	 push	 DWORD PTR __Last$[ebp]
  0000d	ff 75 08	 push	 DWORD PTR __First$[ebp]
  00010	e8 00 00 00 00	 call	 ??$_Copy_impl@PAUInventorySelectItem@@PAU1@@std@@YAPAUInventorySelectItem@@PAU1@00U_Nonscalar_ptr_iterator_tag@0@@Z ; std::_Copy_impl<InventorySelectItem *,InventorySelectItem *>
  00015	83 c4 10	 add	 esp, 16			; 00000010H

; 2166 : 	}

  00018	c9		 leave
  00019	c3		 ret	 0
??$_Copy_impl@PAUInventorySelectItem@@PAU1@@std@@YAPAUInventorySelectItem@@PAU1@00@Z ENDP ; std::_Copy_impl<InventorySelectItem *,InventorySelectItem *>
_TEXT	ENDS
PUBLIC	??$_Unchecked@DU?$char_traits@D@std@@V?$allocator@D@2@@std@@YAPADV?$_String_iterator@DU?$char_traits@D@std@@V?$allocator@D@2@@0@@Z ; std::_Unchecked<char,std::char_traits<char>,std::allocator<char> >
; Function compile flags: /Ogsp
; File c:\program files (x86)\microsoft visual studio 10.0\vc\include\xstring
;	COMDAT ??$_Unchecked@DU?$char_traits@D@std@@V?$allocator@D@2@@std@@YAPADV?$_String_iterator@DU?$char_traits@D@std@@V?$allocator@D@2@@0@@Z
_TEXT	SEGMENT
__Iter$ = 8						; size = 4
??$_Unchecked@DU?$char_traits@D@std@@V?$allocator@D@2@@std@@YAPADV?$_String_iterator@DU?$char_traits@D@std@@V?$allocator@D@2@@0@@Z PROC ; std::_Unchecked<char,std::char_traits<char>,std::allocator<char> >, COMDAT

; 416  : 	{	// convert to unchecked

  00000	55		 push	 ebp
  00001	8b ec		 mov	 ebp, esp

; 417  : 	return (_Iter._Unchecked());

  00003	8b 45 08	 mov	 eax, DWORD PTR __Iter$[ebp]

; 418  : 	}

  00006	5d		 pop	 ebp
  00007	c3		 ret	 0
??$_Unchecked@DU?$char_traits@D@std@@V?$allocator@D@2@@std@@YAPADV?$_String_iterator@DU?$char_traits@D@std@@V?$allocator@D@2@@0@@Z ENDP ; std::_Unchecked<char,std::char_traits<char>,std::allocator<char> >
_TEXT	ENDS
PUBLIC	??$construct@AAUInventorySelectItem@@@?$allocator@UInventorySelectItem@@@std@@QAEXPAUInventorySelectItem@@AAU2@@Z ; std::allocator<InventorySelectItem>::construct<InventorySelectItem &>
;	COMDAT xdata$x
; File c:\program files (x86)\microsoft visual studio 10.0\vc\include\utility
xdata$x	SEGMENT
__unwindtable$??$construct@AAUInventorySelectItem@@@?$allocator@UInventorySelectItem@@@std@@QAEXPAUInventorySelectItem@@AAU2@@Z DD 0ffffffffH
	DD	FLAT:__unwindfunclet$??$construct@AAUInventorySelectItem@@@?$allocator@UInventorySelectItem@@@std@@QAEXPAUInventorySelectItem@@AAU2@@Z$0
__ehfuncinfo$??$construct@AAUInventorySelectItem@@@?$allocator@UInventorySelectItem@@@std@@QAEXPAUInventorySelectItem@@AAU2@@Z DD 019930522H
	DD	01H
	DD	FLAT:__unwindtable$??$construct@AAUInventorySelectItem@@@?$allocator@UInventorySelectItem@@@std@@QAEXPAUInventorySelectItem@@AAU2@@Z
	DD	2 DUP(00H)
	DD	2 DUP(00H)
	DD	00H
	DD	01H
; Function compile flags: /Ogsp
; File c:\program files (x86)\microsoft visual studio 10.0\vc\include\xmemory
xdata$x	ENDS
;	COMDAT ??$construct@AAUInventorySelectItem@@@?$allocator@UInventorySelectItem@@@std@@QAEXPAUInventorySelectItem@@AAU2@@Z
_TEXT	SEGMENT
$T508978 = -16						; size = 4
__$EHRec$ = -12						; size = 12
__Ptr$ = 8						; size = 4
__Val$ = 12						; size = 4
??$construct@AAUInventorySelectItem@@@?$allocator@UInventorySelectItem@@@std@@QAEXPAUInventorySelectItem@@AAU2@@Z PROC ; std::allocator<InventorySelectItem>::construct<InventorySelectItem &>, COMDAT
; _this$ = ecx

; 206  : 		void construct(pointer _Ptr, _Other&& _Val)

  00000	6a 04		 push	 4
  00002	b8 00 00 00 00	 mov	 eax, __ehhandler$??$construct@AAUInventorySelectItem@@@?$allocator@UInventorySelectItem@@@std@@QAEXPAUInventorySelectItem@@AAU2@@Z
  00007	e8 00 00 00 00	 call	 __EH_prolog3

; 207  : 		{	// construct object at _Ptr with value _Val
; 208  : 		::new ((void _FARQ *)_Ptr) _Ty(_STD forward<_Other>(_Val));

  0000c	8b 4d 08	 mov	 ecx, DWORD PTR __Ptr$[ebp]
  0000f	89 4d f0	 mov	 DWORD PTR $T508978[ebp], ecx
  00012	83 65 fc 00	 and	 DWORD PTR __$EHRec$[ebp+8], 0
  00016	85 c9		 test	 ecx, ecx
  00018	74 08		 je	 SHORT $LN3@construct
  0001a	ff 75 0c	 push	 DWORD PTR __Val$[ebp]
  0001d	e8 00 00 00 00	 call	 ??0InventorySelectItem@@QAE@ABU0@@Z
$LN3@construct:

; 209  : 		}

  00022	e8 00 00 00 00	 call	 __EH_epilog3
  00027	c2 08 00	 ret	 8
_TEXT	ENDS
;	COMDAT text$x
text$x	SEGMENT
__unwindfunclet$??$construct@AAUInventorySelectItem@@@?$allocator@UInventorySelectItem@@@std@@QAEXPAUInventorySelectItem@@AAU2@@Z$0:
  00000	ff 75 08	 push	 DWORD PTR __Ptr$[ebp]
  00003	ff 75 f0	 push	 DWORD PTR $T508978[ebp]
  00006	e8 00 00 00 00	 call	 ??3@YAXPAX0@Z		; operator delete
  0000b	59		 pop	 ecx
  0000c	59		 pop	 ecx
  0000d	c3		 ret	 0
__ehhandler$??$construct@AAUInventorySelectItem@@@?$allocator@UInventorySelectItem@@@std@@QAEXPAUInventorySelectItem@@AAU2@@Z:
  0000e	8b 54 24 08	 mov	 edx, DWORD PTR [esp+8]
  00012	8d 42 0c	 lea	 eax, DWORD PTR [edx+12]
  00015	8b 4a ec	 mov	 ecx, DWORD PTR [edx-20]
  00018	33 c8		 xor	 ecx, eax
  0001a	e8 00 00 00 00	 call	 @__security_check_cookie@4
  0001f	b8 00 00 00 00	 mov	 eax, OFFSET __ehfuncinfo$??$construct@AAUInventorySelectItem@@@?$allocator@UInventorySelectItem@@@std@@QAEXPAUInventorySelectItem@@AAU2@@Z
  00024	e9 00 00 00 00	 jmp	 ___CxxFrameHandler3
text$x	ENDS
??$construct@AAUInventorySelectItem@@@?$allocator@UInventorySelectItem@@@std@@QAEXPAUInventorySelectItem@@AAU2@@Z ENDP ; std::allocator<InventorySelectItem>::construct<InventorySelectItem &>
PUBLIC	??$_Move@PAUInventorySelectItem@@PAU1@@std@@YAPAUInventorySelectItem@@PAU1@00U_Nonscalar_ptr_iterator_tag@0@@Z ; std::_Move<InventorySelectItem *,InventorySelectItem *>
; Function compile flags: /Ogsp
; File c:\program files (x86)\microsoft visual studio 10.0\vc\include\xutility
;	COMDAT ??$_Move@PAUInventorySelectItem@@PAU1@@std@@YAPAUInventorySelectItem@@PAU1@00U_Nonscalar_ptr_iterator_tag@0@@Z
_TEXT	SEGMENT
__First$ = 8						; size = 4
__Last$ = 12						; size = 4
__Dest$ = 16						; size = 4
___formal$ = 20						; size = 1
??$_Move@PAUInventorySelectItem@@PAU1@@std@@YAPAUInventorySelectItem@@PAU1@00U_Nonscalar_ptr_iterator_tag@0@@Z PROC ; std::_Move<InventorySelectItem *,InventorySelectItem *>, COMDAT

; 2512 : 	{	// move [_First, _Last) to [_Dest, ...), arbitrary iterators

  00000	55		 push	 ebp
  00001	8b ec		 mov	 ebp, esp
  00003	56		 push	 esi

; 2513 : 	for (; _First != _Last; ++_Dest, ++_First)

  00004	8b 75 08	 mov	 esi, DWORD PTR __First$[ebp]
  00007	eb 10		 jmp	 SHORT $LN11@Move
$LL3@Move:

; 2514 : 		*_Dest = _STD move(*_First);

  00009	8b 4d 10	 mov	 ecx, DWORD PTR __Dest$[ebp]
  0000c	56		 push	 esi
  0000d	e8 00 00 00 00	 call	 ??4InventorySelectItem@@QAEAAU0@ABU0@@Z
  00012	83 45 10 54	 add	 DWORD PTR __Dest$[ebp], 84 ; 00000054H
  00016	83 c6 54	 add	 esi, 84			; 00000054H
$LN11@Move:

; 2513 : 	for (; _First != _Last; ++_Dest, ++_First)

  00019	3b 75 0c	 cmp	 esi, DWORD PTR __Last$[ebp]
  0001c	75 eb		 jne	 SHORT $LL3@Move

; 2515 : 	return (_Dest);

  0001e	8b 45 10	 mov	 eax, DWORD PTR __Dest$[ebp]
  00021	5e		 pop	 esi

; 2516 : 	}

  00022	5d		 pop	 ebp
  00023	c3		 ret	 0
??$_Move@PAUInventorySelectItem@@PAU1@@std@@YAPAUInventorySelectItem@@PAU1@00U_Nonscalar_ptr_iterator_tag@0@@Z ENDP ; std::_Move<InventorySelectItem *,InventorySelectItem *>
_TEXT	ENDS
PUBLIC	??$_Construct@UInventorySelectItem@@ABU1@@std@@YAXPAUInventorySelectItem@@ABU1@@Z ; std::_Construct<InventorySelectItem,InventorySelectItem const &>
;	COMDAT xdata$x
; File c:\program files (x86)\microsoft visual studio 10.0\vc\include\utility
xdata$x	SEGMENT
__unwindtable$??$_Construct@UInventorySelectItem@@ABU1@@std@@YAXPAUInventorySelectItem@@ABU1@@Z DD 0ffffffffH
	DD	FLAT:__unwindfunclet$??$_Construct@UInventorySelectItem@@ABU1@@std@@YAXPAUInventorySelectItem@@ABU1@@Z$0
__ehfuncinfo$??$_Construct@UInventorySelectItem@@ABU1@@std@@YAXPAUInventorySelectItem@@ABU1@@Z DD 019930522H
	DD	01H
	DD	FLAT:__unwindtable$??$_Construct@UInventorySelectItem@@ABU1@@std@@YAXPAUInventorySelectItem@@ABU1@@Z
	DD	2 DUP(00H)
	DD	2 DUP(00H)
	DD	00H
	DD	01H
; Function compile flags: /Ogsp
; File c:\program files (x86)\microsoft visual studio 10.0\vc\include\xmemory
xdata$x	ENDS
;	COMDAT ??$_Construct@UInventorySelectItem@@ABU1@@std@@YAXPAUInventorySelectItem@@ABU1@@Z
_TEXT	SEGMENT
$T509006 = -16						; size = 4
__$EHRec$ = -12						; size = 12
__Vptr$ = 8						; size = 4
__Ptr$ = 8						; size = 4
__Val$ = 12						; size = 4
??$_Construct@UInventorySelectItem@@ABU1@@std@@YAXPAUInventorySelectItem@@ABU1@@Z PROC ; std::_Construct<InventorySelectItem,InventorySelectItem const &>, COMDAT

; 46   : 	{	// construct object at _Ptr with value _Val

  00000	6a 04		 push	 4
  00002	b8 00 00 00 00	 mov	 eax, __ehhandler$??$_Construct@UInventorySelectItem@@ABU1@@std@@YAXPAUInventorySelectItem@@ABU1@@Z
  00007	e8 00 00 00 00	 call	 __EH_prolog3

; 47   : 	void _FARQ *_Vptr = _Ptr;

  0000c	8b 4d 08	 mov	 ecx, DWORD PTR __Ptr$[ebp]
  0000f	89 4d 08	 mov	 DWORD PTR __Vptr$[ebp], ecx

; 48   : 	::new (_Vptr) _Ty1(_STD forward<_Ty2>(_Val));

  00012	89 4d f0	 mov	 DWORD PTR $T509006[ebp], ecx
  00015	83 65 fc 00	 and	 DWORD PTR __$EHRec$[ebp+8], 0
  00019	85 c9		 test	 ecx, ecx
  0001b	74 08		 je	 SHORT $LN3@Construct
  0001d	ff 75 0c	 push	 DWORD PTR __Val$[ebp]
  00020	e8 00 00 00 00	 call	 ??0InventorySelectItem@@QAE@ABU0@@Z
$LN3@Construct:

; 49   : 	}

  00025	e8 00 00 00 00	 call	 __EH_epilog3
  0002a	c3		 ret	 0
_TEXT	ENDS
;	COMDAT text$x
text$x	SEGMENT
__unwindfunclet$??$_Construct@UInventorySelectItem@@ABU1@@std@@YAXPAUInventorySelectItem@@ABU1@@Z$0:
  00000	ff 75 08	 push	 DWORD PTR __Vptr$[ebp]
  00003	ff 75 f0	 push	 DWORD PTR $T509006[ebp]
  00006	e8 00 00 00 00	 call	 ??3@YAXPAX0@Z		; operator delete
  0000b	59		 pop	 ecx
  0000c	59		 pop	 ecx
  0000d	c3		 ret	 0
__ehhandler$??$_Construct@UInventorySelectItem@@ABU1@@std@@YAXPAUInventorySelectItem@@ABU1@@Z:
  0000e	8b 54 24 08	 mov	 edx, DWORD PTR [esp+8]
  00012	8d 42 0c	 lea	 eax, DWORD PTR [edx+12]
  00015	8b 4a ec	 mov	 ecx, DWORD PTR [edx-20]
  00018	33 c8		 xor	 ecx, eax
  0001a	e8 00 00 00 00	 call	 @__security_check_cookie@4
  0001f	b8 00 00 00 00	 mov	 eax, OFFSET __ehfuncinfo$??$_Construct@UInventorySelectItem@@ABU1@@std@@YAXPAUInventorySelectItem@@ABU1@@Z
  00024	e9 00 00 00 00	 jmp	 ___CxxFrameHandler3
text$x	ENDS
??$_Construct@UInventorySelectItem@@ABU1@@std@@YAXPAUInventorySelectItem@@ABU1@@Z ENDP ; std::_Construct<InventorySelectItem,InventorySelectItem const &>
PUBLIC	??E?$_String_iterator@DU?$char_traits@D@std@@V?$allocator@D@2@@std@@QAEAAV01@XZ ; std::_String_iterator<char,std::char_traits<char>,std::allocator<char> >::operator++
; Function compile flags: /Ogsp
; File c:\program files (x86)\microsoft visual studio 10.0\vc\include\xstring
;	COMDAT ??E?$_String_iterator@DU?$char_traits@D@std@@V?$allocator@D@2@@std@@QAEAAV01@XZ
_TEXT	SEGMENT
??E?$_String_iterator@DU?$char_traits@D@std@@V?$allocator@D@2@@std@@QAEAAV01@XZ PROC ; std::_String_iterator<char,std::char_traits<char>,std::allocator<char> >::operator++, COMDAT
; _this$ = ecx

; 352  : 		{	// preincrement

  00000	8b c1		 mov	 eax, ecx

; 353  : 		++*(_Mybase *)this;

  00002	ff 00		 inc	 DWORD PTR [eax]

; 354  : 		return (*this);
; 355  : 		}

  00004	c3		 ret	 0
??E?$_String_iterator@DU?$char_traits@D@std@@V?$allocator@D@2@@std@@QAEAAV01@XZ ENDP ; std::_String_iterator<char,std::char_traits<char>,std::allocator<char> >::operator++
_TEXT	ENDS
PUBLIC	??$_Destroy@UInventorySelectItem@@@std@@YAXPAUInventorySelectItem@@@Z ; std::_Destroy<InventorySelectItem>
; Function compile flags: /Ogsp
; File c:\program files (x86)\microsoft visual studio 10.0\vc\include\xmemory
;	COMDAT ??$_Destroy@UInventorySelectItem@@@std@@YAXPAUInventorySelectItem@@@Z
_TEXT	SEGMENT
__Ptr$ = 8						; size = 4
??$_Destroy@UInventorySelectItem@@@std@@YAXPAUInventorySelectItem@@@Z PROC ; std::_Destroy<InventorySelectItem>, COMDAT

; 62   : 	{	// destroy object at _Ptr

  00000	55		 push	 ebp
  00001	8b ec		 mov	 ebp, esp

; 63   : 	_Ptr->~_Ty();

  00003	8b 4d 08	 mov	 ecx, DWORD PTR __Ptr$[ebp]

; 64   : 	}

  00006	5d		 pop	 ebp

; 63   : 	_Ptr->~_Ty();

  00007	e9 00 00 00 00	 jmp	 ??1InventorySelectItem@@QAE@XZ
??$_Destroy@UInventorySelectItem@@@std@@YAXPAUInventorySelectItem@@@Z ENDP ; std::_Destroy<InventorySelectItem>
_TEXT	ENDS
PUBLIC	?construct@?$allocator@UInventorySelectItem@@@std@@QAEXPAUInventorySelectItem@@$$QAU3@@Z ; std::allocator<InventorySelectItem>::construct
;	COMDAT xdata$x
; File c:\program files (x86)\microsoft visual studio 10.0\vc\include\utility
xdata$x	SEGMENT
__unwindtable$?construct@?$allocator@UInventorySelectItem@@@std@@QAEXPAUInventorySelectItem@@$$QAU3@@Z DD 0ffffffffH
	DD	FLAT:__unwindfunclet$?construct@?$allocator@UInventorySelectItem@@@std@@QAEXPAUInventorySelectItem@@$$QAU3@@Z$0
__ehfuncinfo$?construct@?$allocator@UInventorySelectItem@@@std@@QAEXPAUInventorySelectItem@@$$QAU3@@Z DD 019930522H
	DD	01H
	DD	FLAT:__unwindtable$?construct@?$allocator@UInventorySelectItem@@@std@@QAEXPAUInventorySelectItem@@$$QAU3@@Z
	DD	2 DUP(00H)
	DD	2 DUP(00H)
	DD	00H
	DD	01H
; Function compile flags: /Ogsp
; File c:\program files (x86)\microsoft visual studio 10.0\vc\include\xmemory
xdata$x	ENDS
;	COMDAT ?construct@?$allocator@UInventorySelectItem@@@std@@QAEXPAUInventorySelectItem@@$$QAU3@@Z
_TEXT	SEGMENT
$T509039 = -16						; size = 4
__$EHRec$ = -12						; size = 12
__Ptr$ = 8						; size = 4
__Val$ = 12						; size = 4
?construct@?$allocator@UInventorySelectItem@@@std@@QAEXPAUInventorySelectItem@@$$QAU3@@Z PROC ; std::allocator<InventorySelectItem>::construct, COMDAT
; _this$ = ecx

; 201  : 		{	// construct object at _Ptr with value _Val

  00000	6a 04		 push	 4
  00002	b8 00 00 00 00	 mov	 eax, __ehhandler$?construct@?$allocator@UInventorySelectItem@@@std@@QAEXPAUInventorySelectItem@@$$QAU3@@Z
  00007	e8 00 00 00 00	 call	 __EH_prolog3

; 202  : 		::new ((void _FARQ *)_Ptr) _Ty(_STD forward<_Ty>(_Val));

  0000c	8b 4d 08	 mov	 ecx, DWORD PTR __Ptr$[ebp]
  0000f	89 4d f0	 mov	 DWORD PTR $T509039[ebp], ecx
  00012	83 65 fc 00	 and	 DWORD PTR __$EHRec$[ebp+8], 0
  00016	85 c9		 test	 ecx, ecx
  00018	74 08		 je	 SHORT $LN3@construct@2
  0001a	ff 75 0c	 push	 DWORD PTR __Val$[ebp]
  0001d	e8 00 00 00 00	 call	 ??0InventorySelectItem@@QAE@ABU0@@Z
$LN3@construct@2:

; 203  : 		}

  00022	e8 00 00 00 00	 call	 __EH_epilog3
  00027	c2 08 00	 ret	 8
_TEXT	ENDS
;	COMDAT text$x
text$x	SEGMENT
__unwindfunclet$?construct@?$allocator@UInventorySelectItem@@@std@@QAEXPAUInventorySelectItem@@$$QAU3@@Z$0:
  00000	ff 75 08	 push	 DWORD PTR __Ptr$[ebp]
  00003	ff 75 f0	 push	 DWORD PTR $T509039[ebp]
  00006	e8 00 00 00 00	 call	 ??3@YAXPAX0@Z		; operator delete
  0000b	59		 pop	 ecx
  0000c	59		 pop	 ecx
  0000d	c3		 ret	 0
__ehhandler$?construct@?$allocator@UInventorySelectItem@@@std@@QAEXPAUInventorySelectItem@@$$QAU3@@Z:
  0000e	8b 54 24 08	 mov	 edx, DWORD PTR [esp+8]
  00012	8d 42 0c	 lea	 eax, DWORD PTR [edx+12]
  00015	8b 4a ec	 mov	 ecx, DWORD PTR [edx-20]
  00018	33 c8		 xor	 ecx, eax
  0001a	e8 00 00 00 00	 call	 @__security_check_cookie@4
  0001f	b8 00 00 00 00	 mov	 eax, OFFSET __ehfuncinfo$?construct@?$allocator@UInventorySelectItem@@@std@@QAEXPAUInventorySelectItem@@$$QAU3@@Z
  00024	e9 00 00 00 00	 jmp	 ___CxxFrameHandler3
text$x	ENDS
?construct@?$allocator@UInventorySelectItem@@@std@@QAEXPAUInventorySelectItem@@$$QAU3@@Z ENDP ; std::allocator<InventorySelectItem>::construct
PUBLIC	?IsEmpty@ioComplexStringPrinter@@QBE_NXZ	; ioComplexStringPrinter::IsEmpty
; Function compile flags: /Ogsp
; File d:\lost saga for developer\youtube\tutorial\source\src\lsclient\iocomplexstringprinter.h
;	COMDAT ?IsEmpty@ioComplexStringPrinter@@QBE_NXZ
_TEXT	SEGMENT
?IsEmpty@ioComplexStringPrinter@@QBE_NXZ PROC		; ioComplexStringPrinter::IsEmpty, COMDAT
; _this$ = ecx

; 124  : 	inline bool IsEmpty() const { return m_vPieceList.empty(); }

  00000	8b 41 0c	 mov	 eax, DWORD PTR [ecx+12]
  00003	2b 41 10	 sub	 eax, DWORD PTR [ecx+16]
  00006	f7 d8		 neg	 eax
  00008	1b c0		 sbb	 eax, eax
  0000a	40		 inc	 eax
  0000b	c3		 ret	 0
?IsEmpty@ioComplexStringPrinter@@QBE_NXZ ENDP		; ioComplexStringPrinter::IsEmpty
_TEXT	ENDS
PUBLIC	??0InventorySelectItem@@QAE@XZ			; InventorySelectItem::InventorySelectItem
;	COMDAT xdata$x
; File d:\lost saga for developer\youtube\tutorial\source\src\lsclient\gui\myinventorywnd.h
xdata$x	SEGMENT
__unwindtable$??0InventorySelectItem@@QAE@XZ DD 0ffffffffH
	DD	FLAT:__unwindfunclet$??0InventorySelectItem@@QAE@XZ$0
	DD	00H
	DD	FLAT:__unwindfunclet$??0InventorySelectItem@@QAE@XZ$1
	DD	01H
	DD	FLAT:__unwindfunclet$??0InventorySelectItem@@QAE@XZ$2
	DD	02H
	DD	FLAT:__unwindfunclet$??0InventorySelectItem@@QAE@XZ$3
__ehfuncinfo$??0InventorySelectItem@@QAE@XZ DD 019930522H
	DD	04H
	DD	FLAT:__unwindtable$??0InventorySelectItem@@QAE@XZ
	DD	2 DUP(00H)
	DD	2 DUP(00H)
	DD	00H
	DD	01H
; Function compile flags: /Ogsp
xdata$x	ENDS
;	COMDAT ??0InventorySelectItem@@QAE@XZ
_TEXT	SEGMENT
_this$ = -16						; size = 4
__$EHRec$ = -12						; size = 12
??0InventorySelectItem@@QAE@XZ PROC			; InventorySelectItem::InventorySelectItem, COMDAT
; _this$ = ecx

; 451  : 	InventorySelectItem()

  00000	6a 04		 push	 4
  00002	b8 00 00 00 00	 mov	 eax, __ehhandler$??0InventorySelectItem@@QAE@XZ
  00007	e8 00 00 00 00	 call	 __EH_prolog3
  0000c	8b f9		 mov	 edi, ecx
  0000e	89 7d f0	 mov	 DWORD PTR _this$[ebp], edi
  00011	8b 35 00 00 00
	00		 mov	 esi, DWORD PTR __imp_??0ioHashString@@QAE@XZ
  00017	8d 4f 0c	 lea	 ecx, DWORD PTR [edi+12]
  0001a	ff d6		 call	 esi
  0001c	83 65 fc 00	 and	 DWORD PTR __$EHRec$[ebp+8], 0
  00020	8d 4f 1c	 lea	 ecx, DWORD PTR [edi+28]
  00023	ff d6		 call	 esi
  00025	8d 4f 2c	 lea	 ecx, DWORD PTR [edi+44]
  00028	c6 45 fc 01	 mov	 BYTE PTR __$EHRec$[ebp+8], 1
  0002c	ff d6		 call	 esi
  0002e	8d 4f 40	 lea	 ecx, DWORD PTR [edi+64]
  00031	c6 45 fc 02	 mov	 BYTE PTR __$EHRec$[ebp+8], 2
  00035	ff d6		 call	 esi

; 452  : 	{
; 453  : 		Init();

  00037	8b cf		 mov	 ecx, edi
  00039	c6 45 fc 03	 mov	 BYTE PTR __$EHRec$[ebp+8], 3
  0003d	e8 00 00 00 00	 call	 ?Init@InventorySelectItem@@QAEXXZ ; InventorySelectItem::Init

; 454  : 	}

  00042	8b c7		 mov	 eax, edi
  00044	e8 00 00 00 00	 call	 __EH_epilog3
  00049	c3		 ret	 0
_TEXT	ENDS
;	COMDAT text$x
text$x	SEGMENT
__unwindfunclet$??0InventorySelectItem@@QAE@XZ$0:
  00000	8b 4d f0	 mov	 ecx, DWORD PTR _this$[ebp]
  00003	83 c1 0c	 add	 ecx, 12			; 0000000cH
  00006	ff 25 00 00 00
	00		 jmp	 DWORD PTR __imp_??1ioHashString@@QAE@XZ
__unwindfunclet$??0InventorySelectItem@@QAE@XZ$1:
  0000c	8b 4d f0	 mov	 ecx, DWORD PTR _this$[ebp]
  0000f	83 c1 1c	 add	 ecx, 28			; 0000001cH
  00012	ff 25 00 00 00
	00		 jmp	 DWORD PTR __imp_??1ioHashString@@QAE@XZ
__unwindfunclet$??0InventorySelectItem@@QAE@XZ$2:
  00018	8b 4d f0	 mov	 ecx, DWORD PTR _this$[ebp]
  0001b	83 c1 2c	 add	 ecx, 44			; 0000002cH
  0001e	ff 25 00 00 00
	00		 jmp	 DWORD PTR __imp_??1ioHashString@@QAE@XZ
__unwindfunclet$??0InventorySelectItem@@QAE@XZ$3:
  00024	8b 4d f0	 mov	 ecx, DWORD PTR _this$[ebp]
  00027	83 c1 40	 add	 ecx, 64			; 00000040H
  0002a	ff 25 00 00 00
	00		 jmp	 DWORD PTR __imp_??1ioHashString@@QAE@XZ
__ehhandler$??0InventorySelectItem@@QAE@XZ:
  00030	8b 54 24 08	 mov	 edx, DWORD PTR [esp+8]
  00034	8d 42 0c	 lea	 eax, DWORD PTR [edx+12]
  00037	8b 4a ec	 mov	 ecx, DWORD PTR [edx-20]
  0003a	33 c8		 xor	 ecx, eax
  0003c	e8 00 00 00 00	 call	 @__security_check_cookie@4
  00041	b8 00 00 00 00	 mov	 eax, OFFSET __ehfuncinfo$??0InventorySelectItem@@QAE@XZ
  00046	e9 00 00 00 00	 jmp	 ___CxxFrameHandler3
text$x	ENDS
??0InventorySelectItem@@QAE@XZ ENDP			; InventorySelectItem::InventorySelectItem
PUBLIC	?c_str@?$basic_string@DU?$char_traits@D@std@@V?$allocator@D@2@@std@@QBEPBDXZ ; std::basic_string<char,std::char_traits<char>,std::allocator<char> >::c_str
; Function compile flags: /Ogsp
; File c:\program files (x86)\microsoft visual studio 10.0\vc\include\xstring
;	COMDAT ?c_str@?$basic_string@DU?$char_traits@D@std@@V?$allocator@D@2@@std@@QBEPBDXZ
_TEXT	SEGMENT
?c_str@?$basic_string@DU?$char_traits@D@std@@V?$allocator@D@2@@std@@QBEPBDXZ PROC ; std::basic_string<char,std::char_traits<char>,std::allocator<char> >::c_str, COMDAT
; _this$ = ecx

; 1497 : 		return (_Myptr());

  00000	83 79 14 10	 cmp	 DWORD PTR [ecx+20], 16	; 00000010H
  00004	72 03		 jb	 SHORT $LN5@c_str
  00006	8b 01		 mov	 eax, DWORD PTR [ecx]

; 1498 : 		}

  00008	c3		 ret	 0

; 1497 : 		return (_Myptr());

$LN5@c_str:
  00009	8b c1		 mov	 eax, ecx

; 1498 : 		}

  0000b	c3		 ret	 0
?c_str@?$basic_string@DU?$char_traits@D@std@@V?$allocator@D@2@@std@@QBEPBDXZ ENDP ; std::basic_string<char,std::char_traits<char>,std::allocator<char> >::c_str
_TEXT	ENDS
PUBLIC	??0?$_String_val@DV?$allocator@D@std@@@std@@QAE@V?$allocator@D@1@@Z ; std::_String_val<char,std::allocator<char> >::_String_val<char,std::allocator<char> >
; Function compile flags: /Ogsp
;	COMDAT ??0?$_String_val@DV?$allocator@D@std@@@std@@QAE@V?$allocator@D@1@@Z
_TEXT	SEGMENT
__Al$ = 8						; size = 1
??0?$_String_val@DV?$allocator@D@std@@@std@@QAE@V?$allocator@D@1@@Z PROC ; std::_String_val<char,std::allocator<char> >::_String_val<char,std::allocator<char> >, COMDAT
; _this$ = ecx

; 454  : 		{	// construct allocator from _Al

  00000	8b c1		 mov	 eax, ecx

; 455  : 		}

  00002	c2 04 00	 ret	 4
??0?$_String_val@DV?$allocator@D@std@@@std@@QAE@V?$allocator@D@1@@Z ENDP ; std::_String_val<char,std::allocator<char> >::_String_val<char,std::allocator<char> >
_TEXT	ENDS
PUBLIC	??D?$_String_iterator@DU?$char_traits@D@std@@V?$allocator@D@2@@std@@QBEAADXZ ; std::_String_iterator<char,std::char_traits<char>,std::allocator<char> >::operator*
; Function compile flags: /Ogsp
;	COMDAT ??D?$_String_iterator@DU?$char_traits@D@std@@V?$allocator@D@2@@std@@QBEAADXZ
_TEXT	SEGMENT
??D?$_String_iterator@DU?$char_traits@D@std@@V?$allocator@D@2@@std@@QBEAADXZ PROC ; std::_String_iterator<char,std::char_traits<char>,std::allocator<char> >::operator*, COMDAT
; _this$ = ecx

; 343  : 		return ((reference)**(_Mybase *)this);

  00000	8b 01		 mov	 eax, DWORD PTR [ecx]

; 344  : 		}

  00002	c3		 ret	 0
??D?$_String_iterator@DU?$char_traits@D@std@@V?$allocator@D@2@@std@@QBEAADXZ ENDP ; std::_String_iterator<char,std::char_traits<char>,std::allocator<char> >::operator*
_TEXT	ENDS
PUBLIC	?_Eos@?$basic_string@DU?$char_traits@D@std@@V?$allocator@D@2@@std@@QAEXI@Z ; std::basic_string<char,std::char_traits<char>,std::allocator<char> >::_Eos
; Function compile flags: /Ogsp
;	COMDAT ?_Eos@?$basic_string@DU?$char_traits@D@std@@V?$allocator@D@2@@std@@QAEXI@Z
_TEXT	SEGMENT
__Newsize$ = 8						; size = 4
?_Eos@?$basic_string@DU?$char_traits@D@std@@V?$allocator@D@2@@std@@QAEXI@Z PROC ; std::basic_string<char,std::char_traits<char>,std::allocator<char> >::_Eos, COMDAT
; _this$ = ecx

; 1953 : 		{	// set new length and null terminator

  00000	55		 push	 ebp
  00001	8b ec		 mov	 ebp, esp

; 1954 : 		_Traits::assign(_Myptr()[this->_Mysize = _Newsize], _Elem());

  00003	83 79 14 10	 cmp	 DWORD PTR [ecx+20], 16	; 00000010H
  00007	8b 45 08	 mov	 eax, DWORD PTR __Newsize$[ebp]
  0000a	89 41 10	 mov	 DWORD PTR [ecx+16], eax
  0000d	72 02		 jb	 SHORT $LN5@Eos
  0000f	8b 09		 mov	 ecx, DWORD PTR [ecx]
$LN5@Eos:
  00011	c6 04 01 00	 mov	 BYTE PTR [ecx+eax], 0

; 1955 : 		}

  00015	5d		 pop	 ebp
  00016	c2 04 00	 ret	 4
?_Eos@?$basic_string@DU?$char_traits@D@std@@V?$allocator@D@2@@std@@QAEXI@Z ENDP ; std::basic_string<char,std::char_traits<char>,std::allocator<char> >::_Eos
_TEXT	ENDS
PUBLIC	??0?$_String_iterator@DU?$char_traits@D@std@@V?$allocator@D@2@@std@@QAE@PADPBU_Container_base0@1@@Z ; std::_String_iterator<char,std::char_traits<char>,std::allocator<char> >::_String_iterator<char,std::char_traits<char>,std::allocator<char> >
; Function compile flags: /Ogsp
;	COMDAT ??0?$_String_iterator@DU?$char_traits@D@std@@V?$allocator@D@2@@std@@QAE@PADPBU_Container_base0@1@@Z
_TEXT	SEGMENT
__Parg$ = 8						; size = 4
__Pstring$ = 12						; size = 4
??0?$_String_iterator@DU?$char_traits@D@std@@V?$allocator@D@2@@std@@QAE@PADPBU_Container_base0@1@@Z PROC ; std::_String_iterator<char,std::char_traits<char>,std::allocator<char> >::_String_iterator<char,std::char_traits<char>,std::allocator<char> >, COMDAT
; _this$ = ecx

; 325  : 		{	// construct with pointer _Parg

  00000	55		 push	 ebp
  00001	8b ec		 mov	 ebp, esp
  00003	8b c1		 mov	 eax, ecx
  00005	8b 4d 08	 mov	 ecx, DWORD PTR __Parg$[ebp]
  00008	89 08		 mov	 DWORD PTR [eax], ecx

; 326  : 		}

  0000a	5d		 pop	 ebp
  0000b	c2 08 00	 ret	 8
??0?$_String_iterator@DU?$char_traits@D@std@@V?$allocator@D@2@@std@@QAE@PADPBU_Container_base0@1@@Z ENDP ; std::_String_iterator<char,std::char_traits<char>,std::allocator<char> >::_String_iterator<char,std::char_traits<char>,std::allocator<char> >
_TEXT	ENDS
PUBLIC	?max_size@?$basic_string@DU?$char_traits@D@std@@V?$allocator@D@2@@std@@QBEIXZ ; std::basic_string<char,std::char_traits<char>,std::allocator<char> >::max_size
; Function compile flags: /Ogsp
;	COMDAT ?max_size@?$basic_string@DU?$char_traits@D@std@@V?$allocator@D@2@@std@@QBEIXZ
_TEXT	SEGMENT
?max_size@?$basic_string@DU?$char_traits@D@std@@V?$allocator@D@2@@std@@QBEIXZ PROC ; std::basic_string<char,std::char_traits<char>,std::allocator<char> >::max_size, COMDAT
; _this$ = ecx

; 1517 : 		size_type _Num = this->_Alval.max_size();
; 1518 : 		return (_Num <= 1 ? 1 : _Num - 1);

  00000	6a fe		 push	 -2			; fffffffeH
  00002	58		 pop	 eax

; 1519 : 		}

  00003	c3		 ret	 0
?max_size@?$basic_string@DU?$char_traits@D@std@@V?$allocator@D@2@@std@@QBEIXZ ENDP ; std::basic_string<char,std::char_traits<char>,std::allocator<char> >::max_size
_TEXT	ENDS
PUBLIC	??8?$_String_const_iterator@DU?$char_traits@D@std@@V?$allocator@D@2@@std@@QBE_NABV01@@Z ; std::_String_const_iterator<char,std::char_traits<char>,std::allocator<char> >::operator==
; Function compile flags: /Ogsp
;	COMDAT ??8?$_String_const_iterator@DU?$char_traits@D@std@@V?$allocator@D@2@@std@@QBE_NABV01@@Z
_TEXT	SEGMENT
__Right$ = 8						; size = 4
??8?$_String_const_iterator@DU?$char_traits@D@std@@V?$allocator@D@2@@std@@QBE_NABV01@@Z PROC ; std::_String_const_iterator<char,std::char_traits<char>,std::allocator<char> >::operator==, COMDAT
; _this$ = ecx

; 212  : 		{	// test for iterator equality

  00000	55		 push	 ebp
  00001	8b ec		 mov	 ebp, esp

; 213  : 		_Compat(_Right);
; 214  : 		return (this->_Ptr == _Right._Ptr);

  00003	8b 01		 mov	 eax, DWORD PTR [ecx]
  00005	8b 4d 08	 mov	 ecx, DWORD PTR __Right$[ebp]
  00008	2b 01		 sub	 eax, DWORD PTR [ecx]
  0000a	f7 d8		 neg	 eax
  0000c	1b c0		 sbb	 eax, eax
  0000e	40		 inc	 eax

; 215  : 		}

  0000f	5d		 pop	 ebp
  00010	c2 04 00	 ret	 4
??8?$_String_const_iterator@DU?$char_traits@D@std@@V?$allocator@D@2@@std@@QBE_NABV01@@Z ENDP ; std::_String_const_iterator<char,std::char_traits<char>,std::allocator<char> >::operator==
_TEXT	ENDS
PUBLIC	?allocate@?$allocator@D@std@@QAEPADI@Z		; std::allocator<char>::allocate
; Function compile flags: /Ogsp
; File c:\program files (x86)\microsoft visual studio 10.0\vc\include\xmemory
;	COMDAT ?allocate@?$allocator@D@std@@QAEPADI@Z
_TEXT	SEGMENT
__Count$ = 8						; size = 4
?allocate@?$allocator@D@std@@QAEPADI@Z PROC		; std::allocator<char>::allocate, COMDAT
; _this$ = ecx

; 186  : 		{	// allocate array of _Count elements

  00000	55		 push	 ebp
  00001	8b ec		 mov	 ebp, esp

; 187  : 		return (_Allocate(_Count, (pointer)0));

  00003	6a 00		 push	 0
  00005	ff 75 08	 push	 DWORD PTR __Count$[ebp]
  00008	e8 00 00 00 00	 call	 ??$_Allocate@D@std@@YAPADIPAD@Z ; std::_Allocate<char>
  0000d	59		 pop	 ecx
  0000e	59		 pop	 ecx

; 188  : 		}

  0000f	5d		 pop	 ebp
  00010	c2 04 00	 ret	 4
?allocate@?$allocator@D@std@@QAEPADI@Z ENDP		; std::allocator<char>::allocate
_TEXT	ENDS
PUBLIC	??$_Destroy@VioHashString@@@std@@YAXPAVioHashString@@@Z ; std::_Destroy<ioHashString>
; Function compile flags: /Ogsp
;	COMDAT ??$_Destroy@VioHashString@@@std@@YAXPAVioHashString@@@Z
_TEXT	SEGMENT
__Ptr$ = 8						; size = 4
??$_Destroy@VioHashString@@@std@@YAXPAVioHashString@@@Z PROC ; std::_Destroy<ioHashString>, COMDAT

; 62   : 	{	// destroy object at _Ptr

  00000	55		 push	 ebp
  00001	8b ec		 mov	 ebp, esp

; 63   : 	_Ptr->~_Ty();

  00003	8b 4d 08	 mov	 ecx, DWORD PTR __Ptr$[ebp]

; 64   : 	}

  00006	5d		 pop	 ebp

; 63   : 	_Ptr->~_Ty();

  00007	ff 25 00 00 00
	00		 jmp	 DWORD PTR __imp_??1ioHashString@@QAE@XZ
??$_Destroy@VioHashString@@@std@@YAXPAVioHashString@@@Z ENDP ; std::_Destroy<ioHashString>
_TEXT	ENDS
PUBLIC	__$ArrayPad$
EXTRN	__imp_?ParseExtraInfo@ioButton@@UAEXAAVioXMLElement@@@Z:PROC
; Function compile flags: /Ogsp
; File d:\lost saga for developer\youtube\tutorial\source\src\lsclient\gui\inventoryselectitemwnd.cpp
;	COMDAT ?ParseExtraInfo@InventorySelectItemRadioButton@@UAEXAAVioXMLElement@@@Z
_TEXT	SEGMENT
__k$509177 = -16					; size = 8
__$ArrayPad$ = -4					; size = 4
_xElement$ = 8						; size = 4
?ParseExtraInfo@InventorySelectItemRadioButton@@UAEXAAVioXMLElement@@@Z PROC ; InventorySelectItemRadioButton::ParseExtraInfo, COMDAT
; _this$ = ecx

; 15   : {

  00000	55		 push	 ebp
  00001	8b ec		 mov	 ebp, esp
  00003	83 ec 10	 sub	 esp, 16			; 00000010H
  00006	a1 00 00 00 00	 mov	 eax, DWORD PTR ___security_cookie
  0000b	33 c5		 xor	 eax, ebp
  0000d	89 45 fc	 mov	 DWORD PTR __$ArrayPad$[ebp], eax
  00010	56		 push	 esi
  00011	8b 75 08	 mov	 esi, DWORD PTR _xElement$[ebp]
  00014	57		 push	 edi

; 16   : 	ioRadioButton::ParseExtraInfo( xElement );

  00015	56		 push	 esi
  00016	8b f9		 mov	 edi, ecx
  00018	ff 15 00 00 00
	00		 call	 DWORD PTR __imp_?ParseExtraInfo@ioButton@@UAEXAAVioXMLElement@@@Z

; 17   : 
; 18   : 	m_iTabType = xElement.GetIntAttribute_e( "TabType" );

  0001e	6a 04		 push	 4
  00020	c7 45 f0 b9 8d
	89 be		 mov	 DWORD PTR __k$509177[ebp], -1098281543 ; be898db9H
  00027	81 75 f0 ed ec
	eb ea		 xor	 DWORD PTR __k$509177[ebp], -353637139 ; eaebecedH
  0002e	c7 45 f4 94 9c
	8e 00		 mov	 DWORD PTR __k$509177[ebp+4], 9346196 ; 008e9c94H
  00035	58		 pop	 eax
$LL103@ParseExtra:
  00036	8b c8		 mov	 ecx, eax
  00038	81 e1 03 00 00
	80		 and	 ecx, -2147483645	; 80000003H
  0003e	79 05		 jns	 SHORT $LN113@ParseExtra
  00040	49		 dec	 ecx
  00041	83 c9 fc	 or	 ecx, -4			; fffffffcH
  00044	41		 inc	 ecx
$LN113@ParseExtra:
  00045	b2 ed		 mov	 dl, -19			; ffffffedH
  00047	2a d1		 sub	 dl, cl
  00049	30 54 05 f0	 xor	 BYTE PTR __k$509177[ebp+eax], dl
  0004d	40		 inc	 eax
  0004e	83 f8 07	 cmp	 eax, 7
  00051	7c e3		 jl	 SHORT $LL103@ParseExtra
  00053	8d 45 f0	 lea	 eax, DWORD PTR __k$509177[ebp]
  00056	50		 push	 eax
  00057	8b ce		 mov	 ecx, esi
  00059	ff 15 00 00 00
	00		 call	 DWORD PTR __imp_?GetIntAttribute@ioXMLElement@@QBEHPBD@Z

; 19   : }

  0005f	8b 4d fc	 mov	 ecx, DWORD PTR __$ArrayPad$[ebp]
  00062	89 87 fc 01 00
	00		 mov	 DWORD PTR [edi+508], eax
  00068	5f		 pop	 edi
  00069	33 cd		 xor	 ecx, ebp
  0006b	5e		 pop	 esi
  0006c	e8 00 00 00 00	 call	 @__security_check_cookie@4
  00071	c9		 leave
  00072	c2 04 00	 ret	 4
?ParseExtraInfo@InventorySelectItemRadioButton@@UAEXAAVioXMLElement@@@Z ENDP ; InventorySelectItemRadioButton::ParseExtraInfo
_TEXT	ENDS
PUBLIC	??0InventorySelectItemBtn@@QAE@XZ		; InventorySelectItemBtn::InventorySelectItemBtn
EXTRN	??_L@YGXPAXIHP6EX0@Z1@Z:PROC			; `eh vector constructor iterator'
EXTRN	__imp_??0ioButton@@QAE@XZ:PROC
;	COMDAT xdata$x
xdata$x	SEGMENT
__unwindtable$??0InventorySelectItemBtn@@QAE@XZ DD 0ffffffffH
	DD	FLAT:__unwindfunclet$??0InventorySelectItemBtn@@QAE@XZ$0
	DD	00H
	DD	FLAT:__unwindfunclet$??0InventorySelectItemBtn@@QAE@XZ$1
__ehfuncinfo$??0InventorySelectItemBtn@@QAE@XZ DD 019930522H
	DD	02H
	DD	FLAT:__unwindtable$??0InventorySelectItemBtn@@QAE@XZ
	DD	2 DUP(00H)
	DD	2 DUP(00H)
	DD	00H
	DD	01H
; Function compile flags: /Ogsp
xdata$x	ENDS
;	COMDAT ??0InventorySelectItemBtn@@QAE@XZ
_TEXT	SEGMENT
_this$ = -16						; size = 4
__$EHRec$ = -12						; size = 12
??0InventorySelectItemBtn@@QAE@XZ PROC			; InventorySelectItemBtn::InventorySelectItemBtn, COMDAT
; _this$ = ecx

; 24   : {

  00000	6a 04		 push	 4
  00002	b8 00 00 00 00	 mov	 eax, __ehhandler$??0InventorySelectItemBtn@@QAE@XZ
  00007	e8 00 00 00 00	 call	 __EH_prolog3
  0000c	8b f1		 mov	 esi, ecx
  0000e	89 75 f0	 mov	 DWORD PTR _this$[ebp], esi
  00011	ff 15 00 00 00
	00		 call	 DWORD PTR __imp_??0ioButton@@QAE@XZ
  00017	83 65 fc 00	 and	 DWORD PTR __$EHRec$[ebp+8], 0
  0001b	68 00 00 00 00	 push	 OFFSET ??1ioComplexStringPrinter@@QAE@XZ ; ioComplexStringPrinter::~ioComplexStringPrinter
  00020	68 00 00 00 00	 push	 OFFSET ??0ioComplexStringPrinter@@QAE@XZ ; ioComplexStringPrinter::ioComplexStringPrinter
  00025	6a 03		 push	 3
  00027	6a 20		 push	 32			; 00000020H
  00029	8d 86 fc 01 00
	00		 lea	 eax, DWORD PTR [esi+508]
  0002f	50		 push	 eax
  00030	c7 06 00 00 00
	00		 mov	 DWORD PTR [esi], OFFSET ??_7InventorySelectItemBtn@@6B@
  00036	e8 00 00 00 00	 call	 ??_L@YGXPAXIHP6EX0@Z1@Z
  0003b	8d 8e 64 02 00
	00		 lea	 ecx, DWORD PTR [esi+612]
  00041	c6 45 fc 01	 mov	 BYTE PTR __$EHRec$[ebp+8], 1
  00045	e8 00 00 00 00	 call	 ??0InventorySelectItem@@QAE@XZ ; InventorySelectItem::InventorySelectItem

; 25   : 	m_pIconEmptyImg = NULL;

  0004a	83 a6 5c 02 00
	00 00		 and	 DWORD PTR [esi+604], 0

; 26   : 	m_pIconImg		= NULL;

  00051	83 a6 60 02 00
	00 00		 and	 DWORD PTR [esi+608], 0

; 27   : 	m_bIsCostume = false;

  00058	c6 86 b8 02 00
	00 00		 mov	 BYTE PTR [esi+696], 0

; 28   : }

  0005f	8b c6		 mov	 eax, esi
  00061	e8 00 00 00 00	 call	 __EH_epilog3
  00066	c3		 ret	 0
_TEXT	ENDS
;	COMDAT text$x
text$x	SEGMENT
__unwindfunclet$??0InventorySelectItemBtn@@QAE@XZ$0:
  00000	8b 4d f0	 mov	 ecx, DWORD PTR _this$[ebp]
  00003	ff 25 00 00 00
	00		 jmp	 DWORD PTR __imp_??1ioButton@@UAE@XZ
__unwindfunclet$??0InventorySelectItemBtn@@QAE@XZ$1:
  00009	68 00 00 00 00	 push	 OFFSET ??1ioComplexStringPrinter@@QAE@XZ ; ioComplexStringPrinter::~ioComplexStringPrinter
  0000e	6a 03		 push	 3
  00010	6a 20		 push	 32			; 00000020H
  00012	8b 45 f0	 mov	 eax, DWORD PTR _this$[ebp]
  00015	05 fc 01 00 00	 add	 eax, 508		; 000001fcH
  0001a	50		 push	 eax
  0001b	e8 00 00 00 00	 call	 ??_M@YGXPAXIHP6EX0@Z@Z
  00020	c3		 ret	 0
__ehhandler$??0InventorySelectItemBtn@@QAE@XZ:
  00021	8b 54 24 08	 mov	 edx, DWORD PTR [esp+8]
  00025	8d 42 0c	 lea	 eax, DWORD PTR [edx+12]
  00028	8b 4a ec	 mov	 ecx, DWORD PTR [edx-20]
  0002b	33 c8		 xor	 ecx, eax
  0002d	e8 00 00 00 00	 call	 @__security_check_cookie@4
  00032	b8 00 00 00 00	 mov	 eax, OFFSET __ehfuncinfo$??0InventorySelectItemBtn@@QAE@XZ
  00037	e9 00 00 00 00	 jmp	 ___CxxFrameHandler3
text$x	ENDS
??0InventorySelectItemBtn@@QAE@XZ ENDP			; InventorySelectItemBtn::InventorySelectItemBtn
PUBLIC	_this$GSCopy$
PUBLIC	__$ArrayPad$
EXTRN	__imp_?AddRenderImage@ioButton@@UAEXABVioHashString@@PAVioUIRenderImage@@@Z:PROC
; Function compile flags: /Ogsp
;	COMDAT ?AddRenderImage@InventorySelectItemBtn@@UAEXABVioHashString@@PAVioUIRenderImage@@@Z
_TEXT	SEGMENT
_this$GSCopy$ = -24					; size = 4
__t$509326 = -20					; size = 12
__$ArrayPad$ = -4					; size = 4
_szType$ = 8						; size = 4
_pImage$ = 12						; size = 4
?AddRenderImage@InventorySelectItemBtn@@UAEXABVioHashString@@PAVioUIRenderImage@@@Z PROC ; InventorySelectItemBtn::AddRenderImage, COMDAT
; _this$ = ecx

; 37   : {

  00000	55		 push	 ebp
  00001	8b ec		 mov	 ebp, esp
  00003	83 ec 18	 sub	 esp, 24			; 00000018H
  00006	a1 00 00 00 00	 mov	 eax, DWORD PTR ___security_cookie
  0000b	33 c5		 xor	 eax, ebp
  0000d	89 45 fc	 mov	 DWORD PTR __$ArrayPad$[ebp], eax
  00010	53		 push	 ebx
  00011	8b 5d 0c	 mov	 ebx, DWORD PTR _pImage$[ebp]
  00014	56		 push	 esi
  00015	57		 push	 edi
  00016	8b 7d 08	 mov	 edi, DWORD PTR _szType$[ebp]

; 38   : 	if( szType == "empty_image" )

  00019	6a 02		 push	 2
  0001b	89 4d e8	 mov	 DWORD PTR _this$GSCopy$[ebp], ecx
  0001e	c7 45 ec 88 81
	9b 9e		 mov	 DWORD PTR __t$509326[ebp], -1633975928 ; 9e9b8188H
  00025	c7 45 f0 94 b3
	82 87		 mov	 DWORD PTR __t$509326[ebp+4], -2021477484 ; 8782b394H
  0002c	8d 45 ec	 lea	 eax, DWORD PTR __t$509326[ebp]
  0002f	c7 45 f4 8c 8b
	8e 00		 mov	 DWORD PTR __t$509326[ebp+8], 9341836 ; 008e8b8cH
  00036	59		 pop	 ecx
$LL111@AddRenderI:
  00037	81 30 ed ec eb
	ea		 xor	 DWORD PTR [eax], -353637139 ; eaebecedH
  0003d	83 c0 04	 add	 eax, 4
  00040	49		 dec	 ecx
  00041	75 f4		 jne	 SHORT $LL111@AddRenderI
  00043	6a 08		 push	 8
  00045	58		 pop	 eax
$LL108@AddRenderI:
  00046	8b c8		 mov	 ecx, eax
  00048	81 e1 03 00 00
	80		 and	 ecx, -2147483645	; 80000003H
  0004e	79 05		 jns	 SHORT $LN122@AddRenderI
  00050	49		 dec	 ecx
  00051	83 c9 fc	 or	 ecx, -4			; fffffffcH
  00054	41		 inc	 ecx
$LN122@AddRenderI:
  00055	b2 ed		 mov	 dl, -19			; ffffffedH
  00057	2a d1		 sub	 dl, cl
  00059	30 54 05 ec	 xor	 BYTE PTR __t$509326[ebp+eax], dl
  0005d	40		 inc	 eax
  0005e	83 f8 0b	 cmp	 eax, 11			; 0000000bH
  00061	7c e3		 jl	 SHORT $LL108@AddRenderI
  00063	8b cf		 mov	 ecx, edi
  00065	8d 75 ec	 lea	 esi, DWORD PTR __t$509326[ebp]
  00068	ff 15 00 00 00
	00		 call	 DWORD PTR __imp_?c_str@ioHashString@@QBEPBDXZ
$LL118@AddRenderI:
  0006e	8a 08		 mov	 cl, BYTE PTR [eax]
  00070	3a 0e		 cmp	 cl, BYTE PTR [esi]
  00072	75 1a		 jne	 SHORT $LN119@AddRenderI
  00074	84 c9		 test	 cl, cl
  00076	74 12		 je	 SHORT $LN120@AddRenderI
  00078	8a 48 01	 mov	 cl, BYTE PTR [eax+1]
  0007b	3a 4e 01	 cmp	 cl, BYTE PTR [esi+1]
  0007e	75 0e		 jne	 SHORT $LN119@AddRenderI
  00080	83 c0 02	 add	 eax, 2
  00083	83 c6 02	 add	 esi, 2
  00086	84 c9		 test	 cl, cl
  00088	75 e4		 jne	 SHORT $LL118@AddRenderI
$LN120@AddRenderI:
  0008a	33 c0		 xor	 eax, eax
  0008c	eb 05		 jmp	 SHORT $LN121@AddRenderI
$LN119@AddRenderI:
  0008e	1b c0		 sbb	 eax, eax
  00090	83 d8 ff	 sbb	 eax, -1
$LN121@AddRenderI:
  00093	85 c0		 test	 eax, eax
  00095	75 23		 jne	 SHORT $LN3@AddRenderI

; 39   : 	{
; 40   : 		SAFEDELETE( m_pIconEmptyImg );

  00097	8b 75 e8	 mov	 esi, DWORD PTR _this$GSCopy$[ebp]
  0009a	8b 8e 5c 02 00
	00		 mov	 ecx, DWORD PTR [esi+604]
  000a0	85 c9		 test	 ecx, ecx
  000a2	74 0e		 je	 SHORT $LN2@AddRenderI
  000a4	8b 01		 mov	 eax, DWORD PTR [ecx]
  000a6	6a 01		 push	 1
  000a8	ff 50 40	 call	 DWORD PTR [eax+64]
  000ab	83 a6 5c 02 00
	00 00		 and	 DWORD PTR [esi+604], 0
$LN2@AddRenderI:

; 41   : 		m_pIconEmptyImg = pImage;

  000b2	89 9e 5c 02 00
	00		 mov	 DWORD PTR [esi+604], ebx

; 42   : 	}
; 43   : 	else

  000b8	eb 0b		 jmp	 SHORT $LN1@AddRenderI
$LN3@AddRenderI:

; 44   : 	{
; 45   : 		ioButton::AddRenderImage( szType, pImage );

  000ba	8b 4d e8	 mov	 ecx, DWORD PTR _this$GSCopy$[ebp]
  000bd	53		 push	 ebx
  000be	57		 push	 edi
  000bf	ff 15 00 00 00
	00		 call	 DWORD PTR __imp_?AddRenderImage@ioButton@@UAEXABVioHashString@@PAVioUIRenderImage@@@Z
$LN1@AddRenderI:

; 46   : 	}
; 47   : }

  000c5	8b 4d fc	 mov	 ecx, DWORD PTR __$ArrayPad$[ebp]
  000c8	5f		 pop	 edi
  000c9	5e		 pop	 esi
  000ca	33 cd		 xor	 ecx, ebp
  000cc	5b		 pop	 ebx
  000cd	e8 00 00 00 00	 call	 @__security_check_cookie@4
  000d2	c9		 leave
  000d3	c2 08 00	 ret	 8
?AddRenderImage@InventorySelectItemBtn@@UAEXABVioHashString@@PAVioUIRenderImage@@@Z ENDP ; InventorySelectItemBtn::AddRenderImage
_TEXT	ENDS
PUBLIC	?SetItemInfo@InventorySelectItemBtn@@QAEXABUInventorySelectItem@@H_N@Z ; InventorySelectItemBtn::SetItemInfo
EXTRN	__imp_?SetChildActive@ioWnd@@QAEXK@Z:PROC
EXTRN	__imp_?SetChildInActive@ioWnd@@QAEXK@Z:PROC
; Function compile flags: /Ogsp
;	COMDAT ?SetItemInfo@InventorySelectItemBtn@@QAEXABUInventorySelectItem@@H_N@Z
_TEXT	SEGMENT
_rkItem$ = 8						; size = 4
_iEtcItemCount$ = 12					; size = 4
_bIsCostume$ = 16					; size = 1
?SetItemInfo@InventorySelectItemBtn@@QAEXABUInventorySelectItem@@H_N@Z PROC ; InventorySelectItemBtn::SetItemInfo, COMDAT
; _this$ = ecx

; 81   : {

  00000	55		 push	 ebp
  00001	8b ec		 mov	 ebp, esp
  00003	56		 push	 esi
  00004	57		 push	 edi
  00005	8b f1		 mov	 esi, ecx

; 82   : 	SetBlank();

  00007	e8 00 00 00 00	 call	 ?SetBlank@InventorySelectItemBtn@@QAEXXZ ; InventorySelectItemBtn::SetBlank

; 83   : 	SetActive();

  0000c	8b 06		 mov	 eax, DWORD PTR [esi]
  0000e	8b ce		 mov	 ecx, esi
  00010	ff 50 20	 call	 DWORD PTR [eax+32]

; 84   : 
; 85   : 	m_bIsCostume = bIsCostume;

  00013	8a 45 10	 mov	 al, BYTE PTR _bIsCostume$[ebp]

; 86   : 
; 87   : 	m_ItemInfo.Init();

  00016	8d 8e 64 02 00
	00		 lea	 ecx, DWORD PTR [esi+612]
  0001c	88 86 b8 02 00
	00		 mov	 BYTE PTR [esi+696], al
  00022	e8 00 00 00 00	 call	 ?Init@InventorySelectItem@@QAEXXZ ; InventorySelectItem::Init

; 88   : 	m_ItemInfo = rkItem;

  00027	ff 75 08	 push	 DWORD PTR _rkItem$[ebp]
  0002a	8d 8e 64 02 00
	00		 lea	 ecx, DWORD PTR [esi+612]
  00030	e8 00 00 00 00	 call	 ??4InventorySelectItem@@QAEAAU0@ABU0@@Z

; 89   : 
; 90   : 	if ( iEtcItemCount < m_ItemInfo.m_iNeedCoin )

  00035	8b 45 0c	 mov	 eax, DWORD PTR _iEtcItemCount$[ebp]

; 91   : 		SetChildInActive( ID_SELECT_BTN );

  00038	6a 02		 push	 2
  0003a	8b ce		 mov	 ecx, esi
  0003c	3b 86 6c 02 00
	00		 cmp	 eax, DWORD PTR [esi+620]
  00042	7d 08		 jge	 SHORT $LN3@SetItemInf
  00044	ff 15 00 00 00
	00		 call	 DWORD PTR __imp_?SetChildInActive@ioWnd@@QAEXK@Z

; 92   : 	else

  0004a	eb 06		 jmp	 SHORT $LN2@SetItemInf
$LN3@SetItemInf:

; 93   : 		SetChildActive( ID_SELECT_BTN );

  0004c	ff 15 00 00 00
	00		 call	 DWORD PTR __imp_?SetChildActive@ioWnd@@QAEXK@Z
$LN2@SetItemInf:

; 94   : 
; 95   : 	if( !SetInfo() )

  00052	8b ce		 mov	 ecx, esi
  00054	e8 00 00 00 00	 call	 ?SetInfo@InventorySelectItemBtn@@IAE_NXZ ; InventorySelectItemBtn::SetInfo
  00059	84 c0		 test	 al, al
  0005b	75 07		 jne	 SHORT $LN1@SetItemInf

; 96   : 	{
; 97   : 		SetBlank();

  0005d	8b ce		 mov	 ecx, esi
  0005f	e8 00 00 00 00	 call	 ?SetBlank@InventorySelectItemBtn@@QAEXXZ ; InventorySelectItemBtn::SetBlank
$LN1@SetItemInf:
  00064	5f		 pop	 edi
  00065	5e		 pop	 esi

; 98   : 		return;
; 99   : 	}
; 100  : }

  00066	5d		 pop	 ebp
  00067	c2 0c 00	 ret	 12			; 0000000cH
?SetItemInfo@InventorySelectItemBtn@@QAEXABUInventorySelectItem@@H_N@Z ENDP ; InventorySelectItemBtn::SetItemInfo
_TEXT	ENDS
PUBLIC	__real@42b40000
PUBLIC	?RenderDesc@InventorySelectItemBtn@@IAEXHH@Z	; InventorySelectItemBtn::RenderDesc
EXTRN	?PrintFullTextWidthCut@ioComplexStringPrinter@@QAEXMMW4TextAlignType@@ME@Z:PROC ; ioComplexStringPrinter::PrintFullTextWidthCut
;	COMDAT __real@42b40000
; File c:\program files (x86)\microsoft visual studio 10.0\vc\include\vector
CONST	SEGMENT
__real@42b40000 DD 042b40000r			; 90
; Function compile flags: /Ogsp
; File d:\lost saga for developer\youtube\tutorial\source\src\lsclient\gui\inventoryselectitemwnd.cpp
CONST	ENDS
;	COMDAT ?RenderDesc@InventorySelectItemBtn@@IAEXHH@Z
_TEXT	SEGMENT
_iXPos$ = 8						; size = 4
_iYPos$ = 12						; size = 4
?RenderDesc@InventorySelectItemBtn@@IAEXHH@Z PROC	; InventorySelectItemBtn::RenderDesc, COMDAT
; _this$ = ecx

; 212  : {

  00000	55		 push	 ebp
  00001	8b ec		 mov	 ebp, esp

; 213  : 	enum 
; 214  : 	{
; 215  : 		X_OFFSET           = 52,
; 216  : 		Y_OFFSET           = 105,
; 217  : 		Y_LINE_GAP         = 16,
; 218  : 		Y_OFFSET_SECOND    = -8,
; 219  : 	};
; 220  : 
; 221  : 	iXPos += X_OFFSET;

  00003	83 45 08 34	 add	 DWORD PTR _iXPos$[ebp], 52 ; 00000034H
  00007	53		 push	 ebx
  00008	56		 push	 esi
  00009	57		 push	 edi

; 222  : 	iYPos += Y_OFFSET;

  0000a	8b 7d 0c	 mov	 edi, DWORD PTR _iYPos$[ebp]
  0000d	8d 81 08 02 00
	00		 lea	 eax, DWORD PTR [ecx+520]
  00013	6a 03		 push	 3
  00015	83 c7 69	 add	 edi, 105		; 00000069H

; 223  : 
; 224  : 	int iDescCnt = 0;

  00018	33 f6		 xor	 esi, esi
  0001a	8b c8		 mov	 ecx, eax
  0001c	5a		 pop	 edx
$LL9@RenderDesc:

; 226  : 	{
; 227  : 		if(! m_szDescArray[i].IsEmpty() )

  0001d	8b 19		 mov	 ebx, DWORD PTR [ecx]
  0001f	3b 59 04	 cmp	 ebx, DWORD PTR [ecx+4]
  00022	74 01		 je	 SHORT $LN8@RenderDesc

; 228  : 			iDescCnt++;

  00024	46		 inc	 esi
$LN8@RenderDesc:

; 225  : 	for( int i = 0 ; i < MAX_DESC ; i++ )

  00025	83 c1 20	 add	 ecx, 32			; 00000020H
  00028	4a		 dec	 edx
  00029	75 f2		 jne	 SHORT $LL9@RenderDesc

; 229  : 	}
; 230  : 
; 231  : 	if( iDescCnt == 3 )

  0002b	6a 03		 push	 3
  0002d	5b		 pop	 ebx
  0002e	3b f3		 cmp	 esi, ebx
  00030	75 03		 jne	 SHORT $LN5@RenderDesc

; 232  : 		iYPos += Y_OFFSET_SECOND;

  00032	83 ef 08	 sub	 edi, 8
$LN5@RenderDesc:

; 233  : 
; 234  : 	for( int i = 0 ; i < MAX_DESC ; i++ )

  00035	8b f0		 mov	 esi, eax
$LL4@RenderDesc:

; 235  : 	{
; 236  : 		if( m_szDescArray[i].IsEmpty() )

  00037	8b 06		 mov	 eax, DWORD PTR [esi]
  00039	3b 46 04	 cmp	 eax, DWORD PTR [esi+4]
  0003c	74 39		 je	 SHORT $LN3@RenderDesc

; 237  : 			continue;
; 238  : 
; 239  : 		m_szDescArray[i].PrintFullTextWidthCut( iXPos, iYPos + ( Y_LINE_GAP * i ), TAT_CENTER, INVENTORY_ITEM_INFO_WIDTHCUT_SIZE );

  0003e	f3 0f 10 05 00
	00 00 00	 movss	 xmm0, DWORD PTR __real@42b40000
  00046	68 ff 00 00 00	 push	 255			; 000000ffH
  0004b	51		 push	 ecx
  0004c	f3 0f 11 04 24	 movss	 DWORD PTR [esp], xmm0
  00051	6a 01		 push	 1
  00053	51		 push	 ecx
  00054	0f 57 c0	 xorps	 xmm0, xmm0
  00057	51		 push	 ecx
  00058	f3 0f 2a c7	 cvtsi2ss xmm0, edi
  0005c	f3 0f 11 44 24
	04		 movss	 DWORD PTR [esp+4], xmm0
  00062	66 0f 6e 45 08	 movd	 xmm0, DWORD PTR _iXPos$[ebp]
  00067	0f 5b c0	 cvtdq2ps xmm0, xmm0
  0006a	8d 4e f4	 lea	 ecx, DWORD PTR [esi-12]
  0006d	f3 0f 11 04 24	 movss	 DWORD PTR [esp], xmm0
  00072	e8 00 00 00 00	 call	 ?PrintFullTextWidthCut@ioComplexStringPrinter@@QAEXMMW4TextAlignType@@ME@Z ; ioComplexStringPrinter::PrintFullTextWidthCut
$LN3@RenderDesc:

; 233  : 
; 234  : 	for( int i = 0 ; i < MAX_DESC ; i++ )

  00077	83 c7 10	 add	 edi, 16			; 00000010H
  0007a	83 c6 20	 add	 esi, 32			; 00000020H
  0007d	4b		 dec	 ebx
  0007e	75 b7		 jne	 SHORT $LL4@RenderDesc
  00080	5f		 pop	 edi
  00081	5e		 pop	 esi
  00082	5b		 pop	 ebx

; 240  : 	}
; 241  : }

  00083	5d		 pop	 ebp
  00084	c2 08 00	 ret	 8
?RenderDesc@InventorySelectItemBtn@@IAEXHH@Z ENDP	; InventorySelectItemBtn::RenderDesc
_TEXT	ENDS
PUBLIC	_this$GSCopy$
PUBLIC	__$ArrayPad$
PUBLIC	?AddRenderFrame@InventorySelectItemWnd@@MAEXABVioHashString@@PAVioUIRenderFrame@@@Z ; InventorySelectItemWnd::AddRenderFrame
EXTRN	__imp_?AddRenderFrame@ioWnd@@UAEXABVioHashString@@PAVioUIRenderFrame@@@Z:PROC
; Function compile flags: /Ogsp
;	COMDAT ?AddRenderFrame@InventorySelectItemWnd@@MAEXABVioHashString@@PAVioUIRenderFrame@@@Z
_TEXT	SEGMENT
_this$GSCopy$ = -20					; size = 4
__t$509497 = -16					; size = 8
__$ArrayPad$ = -4					; size = 4
_szType$ = 8						; size = 4
_pFrame$ = 12						; size = 4
?AddRenderFrame@InventorySelectItemWnd@@MAEXABVioHashString@@PAVioUIRenderFrame@@@Z PROC ; InventorySelectItemWnd::AddRenderFrame, COMDAT
; _this$ = ecx

; 275  : {

  00000	55		 push	 ebp
  00001	8b ec		 mov	 ebp, esp
  00003	83 ec 14	 sub	 esp, 20			; 00000014H
  00006	a1 00 00 00 00	 mov	 eax, DWORD PTR ___security_cookie
  0000b	33 c5		 xor	 eax, ebp
  0000d	89 45 fc	 mov	 DWORD PTR __$ArrayPad$[ebp], eax
  00010	53		 push	 ebx
  00011	8b 5d 0c	 mov	 ebx, DWORD PTR _pFrame$[ebp]
  00014	56		 push	 esi
  00015	57		 push	 edi
  00016	8b 7d 08	 mov	 edi, DWORD PTR _szType$[ebp]

; 276  : 	if( szType == "EditFrm" )

  00019	6a 04		 push	 4
  0001b	c7 45 f0 a8 88
	82 9e		 mov	 DWORD PTR __t$509497[ebp], -1635612504 ; 9e8288a8H
  00022	81 75 f0 ed ec
	eb ea		 xor	 DWORD PTR __t$509497[ebp], -353637139 ; eaebecedH
  00029	89 4d ec	 mov	 DWORD PTR _this$GSCopy$[ebp], ecx
  0002c	c7 45 f4 ab 9e
	86 00		 mov	 DWORD PTR __t$509497[ebp+4], 8822443 ; 00869eabH
  00033	58		 pop	 eax
$LL108@AddRenderF:
  00034	8b c8		 mov	 ecx, eax
  00036	81 e1 03 00 00
	80		 and	 ecx, -2147483645	; 80000003H
  0003c	79 05		 jns	 SHORT $LN122@AddRenderF
  0003e	49		 dec	 ecx
  0003f	83 c9 fc	 or	 ecx, -4			; fffffffcH
  00042	41		 inc	 ecx
$LN122@AddRenderF:
  00043	b2 ed		 mov	 dl, -19			; ffffffedH
  00045	2a d1		 sub	 dl, cl
  00047	30 54 05 f0	 xor	 BYTE PTR __t$509497[ebp+eax], dl
  0004b	40		 inc	 eax
  0004c	83 f8 07	 cmp	 eax, 7
  0004f	7c e3		 jl	 SHORT $LL108@AddRenderF
  00051	8b cf		 mov	 ecx, edi
  00053	8d 75 f0	 lea	 esi, DWORD PTR __t$509497[ebp]
  00056	ff 15 00 00 00
	00		 call	 DWORD PTR __imp_?c_str@ioHashString@@QBEPBDXZ
$LL118@AddRenderF:
  0005c	8a 08		 mov	 cl, BYTE PTR [eax]
  0005e	3a 0e		 cmp	 cl, BYTE PTR [esi]
  00060	75 1a		 jne	 SHORT $LN119@AddRenderF
  00062	84 c9		 test	 cl, cl
  00064	74 12		 je	 SHORT $LN120@AddRenderF
  00066	8a 48 01	 mov	 cl, BYTE PTR [eax+1]
  00069	3a 4e 01	 cmp	 cl, BYTE PTR [esi+1]
  0006c	75 0e		 jne	 SHORT $LN119@AddRenderF
  0006e	83 c0 02	 add	 eax, 2
  00071	83 c6 02	 add	 esi, 2
  00074	84 c9		 test	 cl, cl
  00076	75 e4		 jne	 SHORT $LL118@AddRenderF
$LN120@AddRenderF:
  00078	33 c0		 xor	 eax, eax
  0007a	eb 05		 jmp	 SHORT $LN121@AddRenderF
$LN119@AddRenderF:
  0007c	1b c0		 sbb	 eax, eax
  0007e	83 d8 ff	 sbb	 eax, -1
$LN121@AddRenderF:
  00081	85 c0		 test	 eax, eax
  00083	75 23		 jne	 SHORT $LN3@AddRenderF

; 277  : 	{
; 278  : 		SAFEDELETE( m_pEditFrm );

  00085	8b 75 ec	 mov	 esi, DWORD PTR _this$GSCopy$[ebp]
  00088	8b 8e 74 01 00
	00		 mov	 ecx, DWORD PTR [esi+372]
  0008e	85 c9		 test	 ecx, ecx
  00090	74 0e		 je	 SHORT $LN2@AddRenderF
  00092	8b 01		 mov	 eax, DWORD PTR [ecx]
  00094	6a 01		 push	 1
  00096	ff 50 40	 call	 DWORD PTR [eax+64]
  00099	83 a6 74 01 00
	00 00		 and	 DWORD PTR [esi+372], 0
$LN2@AddRenderF:

; 279  : 		m_pEditFrm = pFrame;

  000a0	89 9e 74 01 00
	00		 mov	 DWORD PTR [esi+372], ebx

; 280  : 	}
; 281  : 	else

  000a6	eb 0b		 jmp	 SHORT $LN1@AddRenderF
$LN3@AddRenderF:

; 282  : 	{
; 283  : 		ioWnd::AddRenderFrame( szType, pFrame );

  000a8	8b 4d ec	 mov	 ecx, DWORD PTR _this$GSCopy$[ebp]
  000ab	53		 push	 ebx
  000ac	57		 push	 edi
  000ad	ff 15 00 00 00
	00		 call	 DWORD PTR __imp_?AddRenderFrame@ioWnd@@UAEXABVioHashString@@PAVioUIRenderFrame@@@Z
$LN1@AddRenderF:

; 284  : 	}
; 285  : }

  000b3	8b 4d fc	 mov	 ecx, DWORD PTR __$ArrayPad$[ebp]
  000b6	5f		 pop	 edi
  000b7	5e		 pop	 esi
  000b8	33 cd		 xor	 ecx, ebp
  000ba	5b		 pop	 ebx
  000bb	e8 00 00 00 00	 call	 @__security_check_cookie@4
  000c0	c9		 leave
  000c1	c2 08 00	 ret	 8
?AddRenderFrame@InventorySelectItemWnd@@MAEXABVioHashString@@PAVioUIRenderFrame@@@Z ENDP ; InventorySelectItemWnd::AddRenderFrame
_TEXT	ENDS
PUBLIC	?UpdatePage@InventorySelectItemWnd@@IAEXH@Z	; InventorySelectItemWnd::UpdatePage
; Function compile flags: /Ogsp
;	COMDAT ?UpdatePage@InventorySelectItemWnd@@IAEXH@Z
_TEXT	SEGMENT
_iItemSize$ = -12					; size = 4
tv182 = -8						; size = 4
_pItem$505973 = -4					; size = 4
tv278 = 8						; size = 4
_iNewPage$ = 8						; size = 4
?UpdatePage@InventorySelectItemWnd@@IAEXH@Z PROC	; InventorySelectItemWnd::UpdatePage, COMDAT
; _this$ = ecx

; 606  : {

  00000	55		 push	 ebp
  00001	8b ec		 mov	 ebp, esp
  00003	83 ec 0c	 sub	 esp, 12			; 0000000cH
  00006	53		 push	 ebx
  00007	56		 push	 esi
  00008	57		 push	 edi
  00009	8b f1		 mov	 esi, ecx

; 607  : 	for (int i = 0; i < MAX_ITEM_INFO_WND_BTN ; i++)

  0000b	33 ff		 xor	 edi, edi
$LL9@UpdatePage:

; 608  : 		HideChildWnd( ID_ITEM_INFO_WND_1_BTN + i );

  0000d	6a 00		 push	 0
  0000f	8d 87 c9 00 00
	00		 lea	 eax, DWORD PTR [edi+201]
  00015	50		 push	 eax
  00016	8b ce		 mov	 ecx, esi
  00018	ff 15 00 00 00
	00		 call	 DWORD PTR __imp_?HideChildWnd@ioWnd@@QAEXK_N@Z
  0001e	47		 inc	 edi
  0001f	83 ff 08	 cmp	 edi, 8
  00022	7c e9		 jl	 SHORT $LL9@UpdatePage

; 609  : 
; 610  : 	m_iCurPage = iNewPage;

  00024	8b 4d 08	 mov	 ecx, DWORD PTR _iNewPage$[ebp]
  00027	89 8e 60 01 00
	00		 mov	 DWORD PTR [esi+352], ecx

; 611  : 	int iItemSize = m_vCurItemList.size();

  0002d	8b 86 9c 01 00
	00		 mov	 eax, DWORD PTR [esi+412]
  00033	2b 86 98 01 00
	00		 sub	 eax, DWORD PTR [esi+408]
  00039	6a 54		 push	 84			; 00000054H
  0003b	99		 cdq
  0003c	5f		 pop	 edi
  0003d	f7 ff		 idiv	 edi

; 612  : 	int iStartArray = m_iCurPage * PAGE_PER_ITEM_NUM;

  0003f	8b f9		 mov	 edi, ecx
  00041	c1 e7 02	 shl	 edi, 2
  00044	8b df		 mov	 ebx, edi

; 613  : 
; 614  : 	for( int i = 0 ; i < MAX_ITEM_INFO_WND_BTN ; i++ )

  00046	c7 45 08 c9 00
	00 00		 mov	 DWORD PTR tv278[ebp], 201 ; 000000c9H
  0004d	6b db 54	 imul	 ebx, 84			; 00000054H
  00050	29 7d 08	 sub	 DWORD PTR tv278[ebp], edi
  00053	c7 45 f8 08 00
	00 00		 mov	 DWORD PTR tv182[ebp], 8
  0005a	89 45 f4	 mov	 DWORD PTR _iItemSize$[ebp], eax
$LL20@UpdatePage:

; 615  : 	{
; 616  : 		InventorySelectItemBtn *pItem = dynamic_cast<InventorySelectItemBtn*>( FindChildWnd(ID_ITEM_INFO_WND_1_BTN + i) );

  0005d	8b 45 08	 mov	 eax, DWORD PTR tv278[ebp]
  00060	6a 00		 push	 0
  00062	68 00 00 00 00	 push	 OFFSET ??_R0?AVInventorySelectItemBtn@@@8
  00067	68 00 00 00 00	 push	 OFFSET ??_R0?AVioWnd@@@8
  0006c	6a 00		 push	 0
  0006e	03 c7		 add	 eax, edi
  00070	50		 push	 eax
  00071	8b ce		 mov	 ecx, esi
  00073	ff 15 00 00 00
	00		 call	 DWORD PTR __imp_?FindChildWnd@ioWnd@@QAEPAV1@K@Z
  00079	50		 push	 eax
  0007a	e8 00 00 00 00	 call	 ___RTDynamicCast
  0007f	8b c8		 mov	 ecx, eax
  00081	83 c4 14	 add	 esp, 20			; 00000014H
  00084	89 4d fc	 mov	 DWORD PTR _pItem$505973[ebp], ecx

; 617  : 		if( !pItem )

  00087	85 c9		 test	 ecx, ecx
  00089	74 38		 je	 SHORT $LN5@UpdatePage

; 618  : 			continue;
; 619  : 
; 620  : 		pItem->ShowWnd();

  0008b	ff 15 00 00 00
	00		 call	 DWORD PTR __imp_?ShowWnd@ioWnd@@QAEXXZ

; 621  : 
; 622  : 		int iCurArray = iStartArray + i;
; 623  : 
; 624  : 		if( !COMPARE( iCurArray, 0, iItemSize ) )

  00091	85 ff		 test	 edi, edi
  00093	78 26		 js	 SHORT $LN1@UpdatePage
  00095	3b 7d f4	 cmp	 edi, DWORD PTR _iItemSize$[ebp]
  00098	7d 21		 jge	 SHORT $LN1@UpdatePage

; 628  : 			continue;
; 629  : 		}
; 630  : 
; 631  : 		pItem->SetItemInfo( m_vCurItemList[ iCurArray ], m_iEtcItemCount, m_bIsCostume );

  0009a	0f b6 86 b0 01
	00 00		 movzx	 eax, BYTE PTR [esi+432]
  000a1	8b 4d fc	 mov	 ecx, DWORD PTR _pItem$505973[ebp]
  000a4	50		 push	 eax
  000a5	8b 86 98 01 00
	00		 mov	 eax, DWORD PTR [esi+408]
  000ab	ff b6 ac 01 00
	00		 push	 DWORD PTR [esi+428]
  000b1	03 c3		 add	 eax, ebx
  000b3	50		 push	 eax
  000b4	e8 00 00 00 00	 call	 ?SetItemInfo@InventorySelectItemBtn@@QAEXABUInventorySelectItem@@H_N@Z ; InventorySelectItemBtn::SetItemInfo

; 632  : 	}

  000b9	eb 08		 jmp	 SHORT $LN5@UpdatePage
$LN1@UpdatePage:

; 625  : 		{
; 626  : 			// 
; 627  : 			pItem->SetBlank();

  000bb	8b 4d fc	 mov	 ecx, DWORD PTR _pItem$505973[ebp]
  000be	e8 00 00 00 00	 call	 ?SetBlank@InventorySelectItemBtn@@QAEXXZ ; InventorySelectItemBtn::SetBlank
$LN5@UpdatePage:

; 613  : 
; 614  : 	for( int i = 0 ; i < MAX_ITEM_INFO_WND_BTN ; i++ )

  000c3	47		 inc	 edi
  000c4	83 c3 54	 add	 ebx, 84			; 00000054H
  000c7	ff 4d f8	 dec	 DWORD PTR tv182[ebp]
  000ca	75 91		 jne	 SHORT $LL20@UpdatePage
  000cc	5f		 pop	 edi
  000cd	5e		 pop	 esi
  000ce	5b		 pop	 ebx

; 633  : }

  000cf	c9		 leave
  000d0	c2 04 00	 ret	 4
?UpdatePage@InventorySelectItemWnd@@IAEXH@Z ENDP	; InventorySelectItemWnd::UpdatePage
_TEXT	ENDS
PUBLIC	__$ArrayPad$
EXTRN	__imp_?ParseExtraInfo@ioWnd@@UAEXAAVioXMLElement@@@Z:PROC
; Function compile flags: /Ogsp
;	COMDAT ?ParseExtraInfo@InventorySelectItemToolTip@@UAEXAAVioXMLElement@@@Z
_TEXT	SEGMENT
__k$509637 = -24					; size = 14
__$ArrayPad$ = -4					; size = 4
_xElement$ = 8						; size = 4
?ParseExtraInfo@InventorySelectItemToolTip@@UAEXAAVioXMLElement@@@Z PROC ; InventorySelectItemToolTip::ParseExtraInfo, COMDAT
; _this$ = ecx

; 709  : {

  00000	55		 push	 ebp
  00001	8b ec		 mov	 ebp, esp
  00003	83 ec 18	 sub	 esp, 24			; 00000018H
  00006	a1 00 00 00 00	 mov	 eax, DWORD PTR ___security_cookie
  0000b	33 c5		 xor	 eax, ebp
  0000d	89 45 fc	 mov	 DWORD PTR __$ArrayPad$[ebp], eax
  00010	56		 push	 esi
  00011	8b 75 08	 mov	 esi, DWORD PTR _xElement$[ebp]
  00014	57		 push	 edi

; 710  : 	ioWnd::ParseExtraInfo( xElement );

  00015	56		 push	 esi
  00016	8b f9		 mov	 edi, ecx
  00018	ff 15 00 00 00
	00		 call	 DWORD PTR __imp_?ParseExtraInfo@ioWnd@@UAEXAAVioXMLElement@@@Z

; 711  : 	m_szOverSnd = xElement.GetStringAttribute_e( "InfoOverSound" );

  0001e	6a 03		 push	 3
  00020	c7 45 e8 a4 82
	8d 85		 mov	 DWORD PTR __k$509637[ebp], -2054323548 ; 858d82a4H
  00027	c7 45 ec a2 9a
	8e 98		 mov	 DWORD PTR __k$509637[ebp+4], -1735484766 ; 988e9aa2H
  0002e	c7 45 f0 be 83
	9e 84		 mov	 DWORD PTR __k$509637[ebp+8], -2069986370 ; 849e83beH
  00035	8d 45 e8	 lea	 eax, DWORD PTR __k$509637[ebp]
  00038	66 c7 45 f4 89
	00		 mov	 WORD PTR __k$509637[ebp+12], 137 ; 00000089H
  0003e	59		 pop	 ecx
$LL106@ParseExtra@2:
  0003f	81 30 ed ec eb
	ea		 xor	 DWORD PTR [eax], -353637139 ; eaebecedH
  00045	83 c0 04	 add	 eax, 4
  00048	49		 dec	 ecx
  00049	75 f4		 jne	 SHORT $LL106@ParseExtra@2
  0004b	80 75 f4 ed	 xor	 BYTE PTR __k$509637[ebp+12], -19 ; ffffffedH
  0004f	8d 45 e8	 lea	 eax, DWORD PTR __k$509637[ebp]
  00052	50		 push	 eax
  00053	8b ce		 mov	 ecx, esi
  00055	ff 15 00 00 00
	00		 call	 DWORD PTR __imp_?GetStringAttribute@ioXMLElement@@QBEPBDPBD@Z
  0005b	50		 push	 eax
  0005c	8d 8f 80 01 00
	00		 lea	 ecx, DWORD PTR [edi+384]
  00062	ff 15 00 00 00
	00		 call	 DWORD PTR __imp_??4ioHashString@@QAEAAV0@PBD@Z

; 712  : }

  00068	8b 4d fc	 mov	 ecx, DWORD PTR __$ArrayPad$[ebp]
  0006b	5f		 pop	 edi
  0006c	33 cd		 xor	 ecx, ebp
  0006e	5e		 pop	 esi
  0006f	e8 00 00 00 00	 call	 @__security_check_cookie@4
  00074	c9		 leave
  00075	c2 04 00	 ret	 4
?ParseExtraInfo@InventorySelectItemToolTip@@UAEXAAVioXMLElement@@@Z ENDP ; InventorySelectItemToolTip::ParseExtraInfo
_TEXT	ENDS
EXTRN	?PrintFullText@ioComplexStringPrinter@@QAEXMMW4TextAlignType@@E@Z:PROC ; ioComplexStringPrinter::PrintFullText
; Function compile flags: /Ogsp
;	COMDAT ?OnRender@InventorySelectItemToolTip@@MAEXXZ
_TEXT	SEGMENT
?OnRender@InventorySelectItemToolTip@@MAEXXZ PROC	; InventorySelectItemToolTip::OnRender, COMDAT
; _this$ = ecx

; 756  : {

  00000	56		 push	 esi
  00001	57		 push	 edi
  00002	8b f1		 mov	 esi, ecx

; 757  : 	ioWnd::OnRender();

  00004	ff 15 00 00 00
	00		 call	 DWORD PTR __imp_?OnRender@ioWnd@@MAEXXZ

; 758  : 	int iXPos = GetDerivedPosX() + 7;

  0000a	8b ce		 mov	 ecx, esi
  0000c	ff 15 00 00 00
	00		 call	 DWORD PTR __imp_?GetDerivedPosX@ioWnd@@QBEHXZ

; 759  : 	int iYPos = GetDerivedPosY() + 6;

  00012	8b ce		 mov	 ecx, esi
  00014	8d 78 07	 lea	 edi, DWORD PTR [eax+7]
  00017	ff 15 00 00 00
	00		 call	 DWORD PTR __imp_?GetDerivedPosY@ioWnd@@QBEHXZ

; 760  : 	if( !m_szName.IsEmpty() )

  0001d	8d 8e 6c 01 00
	00		 lea	 ecx, DWORD PTR [esi+364]
  00023	8b 11		 mov	 edx, DWORD PTR [ecx]
  00025	83 c0 06	 add	 eax, 6
  00028	3b 51 04	 cmp	 edx, DWORD PTR [ecx+4]
  0002b	74 2d		 je	 SHORT $LN1@OnRender@2

; 761  : 		m_szName.PrintFullText( iXPos, iYPos, TAT_LEFT );

  0002d	68 ff 00 00 00	 push	 255			; 000000ffH
  00032	6a 00		 push	 0
  00034	51		 push	 ecx
  00035	0f 57 c0	 xorps	 xmm0, xmm0
  00038	51		 push	 ecx
  00039	f3 0f 2a c0	 cvtsi2ss xmm0, eax
  0003d	f3 0f 11 44 24
	04		 movss	 DWORD PTR [esp+4], xmm0
  00043	0f 57 c0	 xorps	 xmm0, xmm0
  00046	f3 0f 2a c7	 cvtsi2ss xmm0, edi
  0004a	8d 8e 60 01 00
	00		 lea	 ecx, DWORD PTR [esi+352]
  00050	f3 0f 11 04 24	 movss	 DWORD PTR [esp], xmm0
  00055	e8 00 00 00 00	 call	 ?PrintFullText@ioComplexStringPrinter@@QAEXMMW4TextAlignType@@E@Z ; ioComplexStringPrinter::PrintFullText
$LN1@OnRender@2:

; 762  : }

  0005a	5f		 pop	 edi
  0005b	5e		 pop	 esi
  0005c	c3		 ret	 0
?OnRender@InventorySelectItemToolTip@@MAEXXZ ENDP	; InventorySelectItemToolTip::OnRender
_TEXT	ENDS
PUBLIC	??0?$vector@UInventorySelectItem@@V?$allocator@UInventorySelectItem@@@std@@@std@@QAE@XZ ; std::vector<InventorySelectItem,std::allocator<InventorySelectItem> >::vector<InventorySelectItem,std::allocator<InventorySelectItem> >
; Function compile flags: /Ogsp
; File c:\program files (x86)\microsoft visual studio 10.0\vc\include\vector
;	COMDAT ??0?$vector@UInventorySelectItem@@V?$allocator@UInventorySelectItem@@@std@@@std@@QAE@XZ
_TEXT	SEGMENT
??0?$vector@UInventorySelectItem@@V?$allocator@UInventorySelectItem@@@std@@@std@@QAE@XZ PROC ; std::vector<InventorySelectItem,std::allocator<InventorySelectItem> >::vector<InventorySelectItem,std::allocator<InventorySelectItem> >, COMDAT
; _this$ = ecx

; 507  : 		{	// construct empty vector

  00000	8b c1		 mov	 eax, ecx
  00002	33 c9		 xor	 ecx, ecx
  00004	89 08		 mov	 DWORD PTR [eax], ecx
  00006	89 48 04	 mov	 DWORD PTR [eax+4], ecx
  00009	89 48 08	 mov	 DWORD PTR [eax+8], ecx

; 508  : 		}

  0000c	c3		 ret	 0
??0?$vector@UInventorySelectItem@@V?$allocator@UInventorySelectItem@@@std@@@std@@QAE@XZ ENDP ; std::vector<InventorySelectItem,std::allocator<InventorySelectItem> >::vector<InventorySelectItem,std::allocator<InventorySelectItem> >
_TEXT	ENDS
PUBLIC	?_Buy@?$vector@UInventorySelectItem@@V?$allocator@UInventorySelectItem@@@std@@@std@@IAE_NI@Z ; std::vector<InventorySelectItem,std::allocator<InventorySelectItem> >::_Buy
; Function compile flags: /Ogsp
;	COMDAT ?_Buy@?$vector@UInventorySelectItem@@V?$allocator@UInventorySelectItem@@@std@@@std@@IAE_NI@Z
_TEXT	SEGMENT
__Capacity$ = 8						; size = 4
?_Buy@?$vector@UInventorySelectItem@@V?$allocator@UInventorySelectItem@@@std@@@std@@IAE_NI@Z PROC ; std::vector<InventorySelectItem,std::allocator<InventorySelectItem> >::_Buy, COMDAT
; _this$ = ecx

; 1250 : 		{	// allocate array with _Capacity elements

  00000	55		 push	 ebp
  00001	8b ec		 mov	 ebp, esp
  00003	56		 push	 esi

; 1251 : 		this->_Myfirst = 0;

  00004	33 c0		 xor	 eax, eax
  00006	57		 push	 edi

; 1252 : 		this->_Mylast = 0;
; 1253 : 		this->_Myend = 0;
; 1254 : 
; 1255 : 		if (_Capacity == 0)

  00007	8b 7d 08	 mov	 edi, DWORD PTR __Capacity$[ebp]
  0000a	8b f1		 mov	 esi, ecx
  0000c	89 06		 mov	 DWORD PTR [esi], eax
  0000e	89 46 04	 mov	 DWORD PTR [esi+4], eax
  00011	89 46 08	 mov	 DWORD PTR [esi+8], eax
  00014	3b f8		 cmp	 edi, eax
  00016	75 04		 jne	 SHORT $LN4@Buy

; 1256 : 			return (false);

  00018	32 c0		 xor	 al, al
  0001a	eb 2b		 jmp	 SHORT $LN5@Buy
$LN4@Buy:

; 1257 : 		else if (max_size() < _Capacity)

  0001c	81 ff c3 30 0c
	03		 cmp	 edi, 51130563		; 030c30c3H
  00022	76 0b		 jbe	 SHORT $LN2@Buy

; 1258 : 			_Xlen();	// result too long

  00024	68 00 00 00 00	 push	 OFFSET ??_C@_0BD@OLBABOEK@vector?$DMT?$DO?5too?5long?$AA@
  00029	ff 15 00 00 00
	00		 call	 DWORD PTR __imp_?_Xlength_error@std@@YAXPBD@Z
$LN19@Buy:
$LN2@Buy:

; 1259 : 		else
; 1260 : 			{	// nonempty array, allocate storage
; 1261 : 			this->_Myfirst = this->_Alval.allocate(_Capacity);

  0002f	50		 push	 eax
  00030	57		 push	 edi
  00031	e8 00 00 00 00	 call	 ??$_Allocate@UInventorySelectItem@@@std@@YAPAUInventorySelectItem@@IPAU1@@Z ; std::_Allocate<InventorySelectItem>

; 1262 : 			this->_Mylast = this->_Myfirst;
; 1263 : 			this->_Myend = this->_Myfirst + _Capacity;

  00036	6b ff 54	 imul	 edi, 84			; 00000054H
  00039	03 f8		 add	 edi, eax
  0003b	59		 pop	 ecx
  0003c	89 06		 mov	 DWORD PTR [esi], eax
  0003e	89 46 04	 mov	 DWORD PTR [esi+4], eax
  00041	59		 pop	 ecx
  00042	89 7e 08	 mov	 DWORD PTR [esi+8], edi

; 1264 : 			}
; 1265 : 		return (true);

  00045	b0 01		 mov	 al, 1
$LN5@Buy:
  00047	5f		 pop	 edi
  00048	5e		 pop	 esi

; 1266 : 		}

  00049	5d		 pop	 ebp
  0004a	c2 04 00	 ret	 4
$LN18@Buy:
?_Buy@?$vector@UInventorySelectItem@@V?$allocator@UInventorySelectItem@@@std@@@std@@IAE_NI@Z ENDP ; std::vector<InventorySelectItem,std::allocator<InventorySelectItem> >::_Buy
_TEXT	ENDS
PUBLIC	??9?$_Vector_const_iterator@V?$_Vector_val@UInventorySelectItem@@V?$allocator@UInventorySelectItem@@@std@@@std@@@std@@QBE_NABV01@@Z ; std::_Vector_const_iterator<std::_Vector_val<InventorySelectItem,std::allocator<InventorySelectItem> > >::operator!=
; Function compile flags: /Ogsp
;	COMDAT ??9?$_Vector_const_iterator@V?$_Vector_val@UInventorySelectItem@@V?$allocator@UInventorySelectItem@@@std@@@std@@@std@@QBE_NABV01@@Z
_TEXT	SEGMENT
__Right$ = 8						; size = 4
??9?$_Vector_const_iterator@V?$_Vector_val@UInventorySelectItem@@V?$allocator@UInventorySelectItem@@@std@@@std@@@std@@QBE_NABV01@@Z PROC ; std::_Vector_const_iterator<std::_Vector_val<InventorySelectItem,std::allocator<InventorySelectItem> > >::operator!=, COMDAT
; _this$ = ecx

; 207  : 		{	// test for iterator inequality

  00000	55		 push	 ebp
  00001	8b ec		 mov	 ebp, esp

; 208  : 		return (!(*this == _Right));

  00003	8b 01		 mov	 eax, DWORD PTR [ecx]
  00005	8b 55 08	 mov	 edx, DWORD PTR __Right$[ebp]
  00008	33 c9		 xor	 ecx, ecx
  0000a	3b 02		 cmp	 eax, DWORD PTR [edx]
  0000c	0f 95 c0	 setne	 al

; 209  : 		}

  0000f	5d		 pop	 ebp
  00010	c2 04 00	 ret	 4
??9?$_Vector_const_iterator@V?$_Vector_val@UInventorySelectItem@@V?$allocator@UInventorySelectItem@@@std@@@std@@@std@@QBE_NABV01@@Z ENDP ; std::_Vector_const_iterator<std::_Vector_val<InventorySelectItem,std::allocator<InventorySelectItem> > >::operator!=
_TEXT	ENDS
PUBLIC	??$_Cons_val@V?$allocator@UInventorySelectItem@@@std@@UInventorySelectItem@@AAU3@@std@@YAXAAV?$allocator@UInventorySelectItem@@@0@PAUInventorySelectItem@@AAU2@@Z ; std::_Cons_val<std::allocator<InventorySelectItem>,InventorySelectItem,InventorySelectItem &>
;	COMDAT xdata$x
; File c:\program files (x86)\microsoft visual studio 10.0\vc\include\utility
xdata$x	SEGMENT
__unwindtable$??$_Cons_val@V?$allocator@UInventorySelectItem@@@std@@UInventorySelectItem@@AAU3@@std@@YAXAAV?$allocator@UInventorySelectItem@@@0@PAUInventorySelectItem@@AAU2@@Z DD 0ffffffffH
	DD	FLAT:__unwindfunclet$??$_Cons_val@V?$allocator@UInventorySelectItem@@@std@@UInventorySelectItem@@AAU3@@std@@YAXAAV?$allocator@UInventorySelectItem@@@0@PAUInventorySelectItem@@AAU2@@Z$0
__ehfuncinfo$??$_Cons_val@V?$allocator@UInventorySelectItem@@@std@@UInventorySelectItem@@AAU3@@std@@YAXAAV?$allocator@UInventorySelectItem@@@0@PAUInventorySelectItem@@AAU2@@Z DD 019930522H
	DD	01H
	DD	FLAT:__unwindtable$??$_Cons_val@V?$allocator@UInventorySelectItem@@@std@@UInventorySelectItem@@AAU3@@std@@YAXAAV?$allocator@UInventorySelectItem@@@0@PAUInventorySelectItem@@AAU2@@Z
	DD	2 DUP(00H)
	DD	2 DUP(00H)
	DD	00H
	DD	01H
; Function compile flags: /Ogsp
; File c:\program files (x86)\microsoft visual studio 10.0\vc\include\xmemory
xdata$x	ENDS
;	COMDAT ??$_Cons_val@V?$allocator@UInventorySelectItem@@@std@@UInventorySelectItem@@AAU3@@std@@YAXAAV?$allocator@UInventorySelectItem@@@0@PAUInventorySelectItem@@AAU2@@Z
_TEXT	SEGMENT
$T509839 = -16						; size = 4
__$EHRec$ = -12						; size = 12
__Alval$ = 8						; size = 4
__Pdest$ = 12						; size = 4
__Src$ = 16						; size = 4
??$_Cons_val@V?$allocator@UInventorySelectItem@@@std@@UInventorySelectItem@@AAU3@@std@@YAXAAV?$allocator@UInventorySelectItem@@@0@PAUInventorySelectItem@@AAU2@@Z PROC ; std::_Cons_val<std::allocator<InventorySelectItem>,InventorySelectItem,InventorySelectItem &>, COMDAT

; 279  : 	{	// construct using allocator

  00000	6a 04		 push	 4
  00002	b8 00 00 00 00	 mov	 eax, __ehhandler$??$_Cons_val@V?$allocator@UInventorySelectItem@@@std@@UInventorySelectItem@@AAU3@@std@@YAXAAV?$allocator@UInventorySelectItem@@@0@PAUInventorySelectItem@@AAU2@@Z
  00007	e8 00 00 00 00	 call	 __EH_prolog3

; 280  : 	_Alval.construct(_Pdest, _STD forward<_Ty2>(_Src));

  0000c	8b 4d 0c	 mov	 ecx, DWORD PTR __Pdest$[ebp]
  0000f	89 4d f0	 mov	 DWORD PTR $T509839[ebp], ecx
  00012	83 65 fc 00	 and	 DWORD PTR __$EHRec$[ebp+8], 0
  00016	85 c9		 test	 ecx, ecx
  00018	74 08		 je	 SHORT $LN7@Cons_val
  0001a	ff 75 10	 push	 DWORD PTR __Src$[ebp]
  0001d	e8 00 00 00 00	 call	 ??0InventorySelectItem@@QAE@ABU0@@Z
$LN7@Cons_val:

; 281  : 	}

  00022	e8 00 00 00 00	 call	 __EH_epilog3
  00027	c3		 ret	 0
_TEXT	ENDS
;	COMDAT text$x
text$x	SEGMENT
__unwindfunclet$??$_Cons_val@V?$allocator@UInventorySelectItem@@@std@@UInventorySelectItem@@AAU3@@std@@YAXAAV?$allocator@UInventorySelectItem@@@0@PAUInventorySelectItem@@AAU2@@Z$0:
  00000	ff 75 0c	 push	 DWORD PTR __Pdest$[ebp]
  00003	ff 75 f0	 push	 DWORD PTR $T509839[ebp]
  00006	e8 00 00 00 00	 call	 ??3@YAXPAX0@Z		; operator delete
  0000b	59		 pop	 ecx
  0000c	59		 pop	 ecx
  0000d	c3		 ret	 0
__ehhandler$??$_Cons_val@V?$allocator@UInventorySelectItem@@@std@@UInventorySelectItem@@AAU3@@std@@YAXAAV?$allocator@UInventorySelectItem@@@0@PAUInventorySelectItem@@AAU2@@Z:
  0000e	8b 54 24 08	 mov	 edx, DWORD PTR [esp+8]
  00012	8d 42 0c	 lea	 eax, DWORD PTR [edx+12]
  00015	8b 4a ec	 mov	 ecx, DWORD PTR [edx-20]
  00018	33 c8		 xor	 ecx, eax
  0001a	e8 00 00 00 00	 call	 @__security_check_cookie@4
  0001f	b8 00 00 00 00	 mov	 eax, OFFSET __ehfuncinfo$??$_Cons_val@V?$allocator@UInventorySelectItem@@@std@@UInventorySelectItem@@AAU3@@std@@YAXAAV?$allocator@UInventorySelectItem@@@0@PAUInventorySelectItem@@AAU2@@Z
  00024	e9 00 00 00 00	 jmp	 ___CxxFrameHandler3
text$x	ENDS
??$_Cons_val@V?$allocator@UInventorySelectItem@@@std@@UInventorySelectItem@@AAU3@@std@@YAXAAV?$allocator@UInventorySelectItem@@@0@PAUInventorySelectItem@@AAU2@@Z ENDP ; std::_Cons_val<std::allocator<InventorySelectItem>,InventorySelectItem,InventorySelectItem &>
PUBLIC	??$_Move@PAUInventorySelectItem@@PAU1@@std@@YAPAUInventorySelectItem@@PAU1@00@Z ; std::_Move<InventorySelectItem *,InventorySelectItem *>
; Function compile flags: /Ogsp
; File c:\program files (x86)\microsoft visual studio 10.0\vc\include\xutility
;	COMDAT ??$_Move@PAUInventorySelectItem@@PAU1@@std@@YAPAUInventorySelectItem@@PAU1@00@Z
_TEXT	SEGMENT
__Cat$509857 = -4					; size = 1
__First$ = 8						; size = 4
__Last$ = 12						; size = 4
__Dest$ = 16						; size = 4
??$_Move@PAUInventorySelectItem@@PAU1@@std@@YAPAUInventorySelectItem@@PAU1@00@Z PROC ; std::_Move<InventorySelectItem *,InventorySelectItem *>, COMDAT

; 2533 : 	{	// move [_First, _Last) to [_Dest, ...), unchecked

  00000	55		 push	 ebp
  00001	8b ec		 mov	 ebp, esp
  00003	51		 push	 ecx

; 2534 : 	return (_Move(_First, _Last,
; 2535 : 		_Dest, _Ptr_cat(_First, _Dest)));

  00004	ff 75 fc	 push	 DWORD PTR __Cat$509857[ebp]
  00007	ff 75 10	 push	 DWORD PTR __Dest$[ebp]
  0000a	ff 75 0c	 push	 DWORD PTR __Last$[ebp]
  0000d	ff 75 08	 push	 DWORD PTR __First$[ebp]
  00010	e8 00 00 00 00	 call	 ??$_Move@PAUInventorySelectItem@@PAU1@@std@@YAPAUInventorySelectItem@@PAU1@00U_Nonscalar_ptr_iterator_tag@0@@Z ; std::_Move<InventorySelectItem *,InventorySelectItem *>
  00015	83 c4 10	 add	 esp, 16			; 00000010H

; 2536 : 	}

  00018	c9		 leave
  00019	c3		 ret	 0
??$_Move@PAUInventorySelectItem@@PAU1@@std@@YAPAUInventorySelectItem@@PAU1@00@Z ENDP ; std::_Move<InventorySelectItem *,InventorySelectItem *>
_TEXT	ENDS
PUBLIC	?construct@?$allocator@UInventorySelectItem@@@std@@QAEXPAUInventorySelectItem@@ABU3@@Z ; std::allocator<InventorySelectItem>::construct
; Function compile flags: /Ogsp
; File c:\program files (x86)\microsoft visual studio 10.0\vc\include\xmemory
;	COMDAT ?construct@?$allocator@UInventorySelectItem@@@std@@QAEXPAUInventorySelectItem@@ABU3@@Z
_TEXT	SEGMENT
__Ptr$ = 8						; size = 4
__Val$ = 12						; size = 4
?construct@?$allocator@UInventorySelectItem@@@std@@QAEXPAUInventorySelectItem@@ABU3@@Z PROC ; std::allocator<InventorySelectItem>::construct, COMDAT
; _this$ = ecx

; 196  : 		{	// construct object at _Ptr with value _Val

  00000	55		 push	 ebp
  00001	8b ec		 mov	 ebp, esp

; 197  : 		_Construct(_Ptr, _Val);

  00003	ff 75 0c	 push	 DWORD PTR __Val$[ebp]
  00006	ff 75 08	 push	 DWORD PTR __Ptr$[ebp]
  00009	e8 00 00 00 00	 call	 ??$_Construct@UInventorySelectItem@@ABU1@@std@@YAXPAUInventorySelectItem@@ABU1@@Z ; std::_Construct<InventorySelectItem,InventorySelectItem const &>
  0000e	59		 pop	 ecx
  0000f	59		 pop	 ecx

; 198  : 		}

  00010	5d		 pop	 ebp
  00011	c2 08 00	 ret	 8
?construct@?$allocator@UInventorySelectItem@@@std@@QAEXPAUInventorySelectItem@@ABU3@@Z ENDP ; std::allocator<InventorySelectItem>::construct
_TEXT	ENDS
PUBLIC	??$_Transform@PADV?$_String_iterator@DU?$char_traits@D@std@@V?$allocator@D@2@@std@@P6AHH@Z@std@@YA?AV?$_String_iterator@DU?$char_traits@D@std@@V?$allocator@D@2@@0@PAD0V10@P6AHH@Z@Z ; std::_Transform<char *,std::_String_iterator<char,std::char_traits<char>,std::allocator<char> >,int (__cdecl*)(int)>
; Function compile flags: /Ogsp
; File c:\program files (x86)\microsoft visual studio 10.0\vc\include\algorithm
;	COMDAT ??$_Transform@PADV?$_String_iterator@DU?$char_traits@D@std@@V?$allocator@D@2@@std@@P6AHH@Z@std@@YA?AV?$_String_iterator@DU?$char_traits@D@std@@V?$allocator@D@2@@0@PAD0V10@P6AHH@Z@Z
_TEXT	SEGMENT
___$ReturnUdt$ = 8					; size = 4
__First$ = 12						; size = 4
__Last$ = 16						; size = 4
__Dest$ = 20						; size = 4
__Func$ = 24						; size = 4
??$_Transform@PADV?$_String_iterator@DU?$char_traits@D@std@@V?$allocator@D@2@@std@@P6AHH@Z@std@@YA?AV?$_String_iterator@DU?$char_traits@D@std@@V?$allocator@D@2@@0@PAD0V10@P6AHH@Z@Z PROC ; std::_Transform<char *,std::_String_iterator<char,std::char_traits<char>,std::allocator<char> >,int (__cdecl*)(int)>, COMDAT

; 1041 : 	{	// transform [_First, _Last) with _Func

  00000	55		 push	 ebp
  00001	8b ec		 mov	 ebp, esp
  00003	56		 push	 esi

; 1042 : 	for (; _First != _Last; ++_First, ++_Dest)

  00004	8b 75 0c	 mov	 esi, DWORD PTR __First$[ebp]
  00007	3b 75 10	 cmp	 esi, DWORD PTR __Last$[ebp]
  0000a	74 18		 je	 SHORT $LN16@Transform
  0000c	57		 push	 edi
$LL8@Transform:

; 1043 : 		*_Dest = _Func(*_First);

  0000d	0f be 06	 movsx	 eax, BYTE PTR [esi]
  00010	8b 7d 14	 mov	 edi, DWORD PTR __Dest$[ebp]
  00013	50		 push	 eax
  00014	ff 55 18	 call	 DWORD PTR __Func$[ebp]
  00017	46		 inc	 esi
  00018	88 07		 mov	 BYTE PTR [edi], al
  0001a	ff 45 14	 inc	 DWORD PTR __Dest$[ebp]
  0001d	59		 pop	 ecx
  0001e	3b 75 10	 cmp	 esi, DWORD PTR __Last$[ebp]
  00021	75 ea		 jne	 SHORT $LL8@Transform
  00023	5f		 pop	 edi
$LN16@Transform:

; 1044 : 	return (_Dest);

  00024	8b 45 08	 mov	 eax, DWORD PTR ___$ReturnUdt$[ebp]
  00027	8b 4d 14	 mov	 ecx, DWORD PTR __Dest$[ebp]
  0002a	89 08		 mov	 DWORD PTR [eax], ecx
  0002c	5e		 pop	 esi

; 1045 : 	}

  0002d	5d		 pop	 ebp
  0002e	c3		 ret	 0
??$_Transform@PADV?$_String_iterator@DU?$char_traits@D@std@@V?$allocator@D@2@@std@@P6AHH@Z@std@@YA?AV?$_String_iterator@DU?$char_traits@D@std@@V?$allocator@D@2@@0@PAD0V10@P6AHH@Z@Z ENDP ; std::_Transform<char *,std::_String_iterator<char,std::char_traits<char>,std::allocator<char> >,int (__cdecl*)(int)>
_TEXT	ENDS
PUBLIC	?destroy@?$allocator@UInventorySelectItem@@@std@@QAEXPAUInventorySelectItem@@@Z ; std::allocator<InventorySelectItem>::destroy
; Function compile flags: /Ogsp
; File c:\program files (x86)\microsoft visual studio 10.0\vc\include\xmemory
;	COMDAT ?destroy@?$allocator@UInventorySelectItem@@@std@@QAEXPAUInventorySelectItem@@@Z
_TEXT	SEGMENT
__Ptr$ = 8						; size = 4
?destroy@?$allocator@UInventorySelectItem@@@std@@QAEXPAUInventorySelectItem@@@Z PROC ; std::allocator<InventorySelectItem>::destroy, COMDAT
; _this$ = ecx

; 212  : 		{	// destroy object at _Ptr

  00000	55		 push	 ebp
  00001	8b ec		 mov	 ebp, esp

; 213  : 		_Destroy(_Ptr);

  00003	8b 4d 08	 mov	 ecx, DWORD PTR __Ptr$[ebp]
  00006	e8 00 00 00 00	 call	 ??1InventorySelectItem@@QAE@XZ

; 214  : 		}

  0000b	5d		 pop	 ebp
  0000c	c2 04 00	 ret	 4
?destroy@?$allocator@UInventorySelectItem@@@std@@QAEXPAUInventorySelectItem@@@Z ENDP ; std::allocator<InventorySelectItem>::destroy
_TEXT	ENDS
PUBLIC	??$_Cons_val@V?$allocator@UInventorySelectItem@@@std@@UInventorySelectItem@@U3@@std@@YAXAAV?$allocator@UInventorySelectItem@@@0@PAUInventorySelectItem@@$$QAU2@@Z ; std::_Cons_val<std::allocator<InventorySelectItem>,InventorySelectItem,InventorySelectItem>
;	COMDAT xdata$x
; File c:\program files (x86)\microsoft visual studio 10.0\vc\include\utility
xdata$x	SEGMENT
__unwindtable$??$_Cons_val@V?$allocator@UInventorySelectItem@@@std@@UInventorySelectItem@@U3@@std@@YAXAAV?$allocator@UInventorySelectItem@@@0@PAUInventorySelectItem@@$$QAU2@@Z DD 0ffffffffH
	DD	FLAT:__unwindfunclet$??$_Cons_val@V?$allocator@UInventorySelectItem@@@std@@UInventorySelectItem@@U3@@std@@YAXAAV?$allocator@UInventorySelectItem@@@0@PAUInventorySelectItem@@$$QAU2@@Z$0
__ehfuncinfo$??$_Cons_val@V?$allocator@UInventorySelectItem@@@std@@UInventorySelectItem@@U3@@std@@YAXAAV?$allocator@UInventorySelectItem@@@0@PAUInventorySelectItem@@$$QAU2@@Z DD 019930522H
	DD	01H
	DD	FLAT:__unwindtable$??$_Cons_val@V?$allocator@UInventorySelectItem@@@std@@UInventorySelectItem@@U3@@std@@YAXAAV?$allocator@UInventorySelectItem@@@0@PAUInventorySelectItem@@$$QAU2@@Z
	DD	2 DUP(00H)
	DD	2 DUP(00H)
	DD	00H
	DD	01H
; Function compile flags: /Ogsp
; File c:\program files (x86)\microsoft visual studio 10.0\vc\include\xmemory
xdata$x	ENDS
;	COMDAT ??$_Cons_val@V?$allocator@UInventorySelectItem@@@std@@UInventorySelectItem@@U3@@std@@YAXAAV?$allocator@UInventorySelectItem@@@0@PAUInventorySelectItem@@$$QAU2@@Z
_TEXT	SEGMENT
$T509915 = -16						; size = 4
__$EHRec$ = -12						; size = 12
__Alval$ = 8						; size = 4
__Pdest$ = 12						; size = 4
__Src$ = 16						; size = 4
??$_Cons_val@V?$allocator@UInventorySelectItem@@@std@@UInventorySelectItem@@U3@@std@@YAXAAV?$allocator@UInventorySelectItem@@@0@PAUInventorySelectItem@@$$QAU2@@Z PROC ; std::_Cons_val<std::allocator<InventorySelectItem>,InventorySelectItem,InventorySelectItem>, COMDAT

; 279  : 	{	// construct using allocator

  00000	6a 04		 push	 4
  00002	b8 00 00 00 00	 mov	 eax, __ehhandler$??$_Cons_val@V?$allocator@UInventorySelectItem@@@std@@UInventorySelectItem@@U3@@std@@YAXAAV?$allocator@UInventorySelectItem@@@0@PAUInventorySelectItem@@$$QAU2@@Z
  00007	e8 00 00 00 00	 call	 __EH_prolog3

; 280  : 	_Alval.construct(_Pdest, _STD forward<_Ty2>(_Src));

  0000c	8b 4d 0c	 mov	 ecx, DWORD PTR __Pdest$[ebp]
  0000f	89 4d f0	 mov	 DWORD PTR $T509915[ebp], ecx
  00012	83 65 fc 00	 and	 DWORD PTR __$EHRec$[ebp+8], 0
  00016	85 c9		 test	 ecx, ecx
  00018	74 08		 je	 SHORT $LN7@Cons_val@2
  0001a	ff 75 10	 push	 DWORD PTR __Src$[ebp]
  0001d	e8 00 00 00 00	 call	 ??0InventorySelectItem@@QAE@ABU0@@Z
$LN7@Cons_val@2:

; 281  : 	}

  00022	e8 00 00 00 00	 call	 __EH_epilog3
  00027	c3		 ret	 0
_TEXT	ENDS
;	COMDAT text$x
text$x	SEGMENT
__unwindfunclet$??$_Cons_val@V?$allocator@UInventorySelectItem@@@std@@UInventorySelectItem@@U3@@std@@YAXAAV?$allocator@UInventorySelectItem@@@0@PAUInventorySelectItem@@$$QAU2@@Z$0:
  00000	ff 75 0c	 push	 DWORD PTR __Pdest$[ebp]
  00003	ff 75 f0	 push	 DWORD PTR $T509915[ebp]
  00006	e8 00 00 00 00	 call	 ??3@YAXPAX0@Z		; operator delete
  0000b	59		 pop	 ecx
  0000c	59		 pop	 ecx
  0000d	c3		 ret	 0
__ehhandler$??$_Cons_val@V?$allocator@UInventorySelectItem@@@std@@UInventorySelectItem@@U3@@std@@YAXAAV?$allocator@UInventorySelectItem@@@0@PAUInventorySelectItem@@$$QAU2@@Z:
  0000e	8b 54 24 08	 mov	 edx, DWORD PTR [esp+8]
  00012	8d 42 0c	 lea	 eax, DWORD PTR [edx+12]
  00015	8b 4a ec	 mov	 ecx, DWORD PTR [edx-20]
  00018	33 c8		 xor	 ecx, eax
  0001a	e8 00 00 00 00	 call	 @__security_check_cookie@4
  0001f	b8 00 00 00 00	 mov	 eax, OFFSET __ehfuncinfo$??$_Cons_val@V?$allocator@UInventorySelectItem@@@std@@UInventorySelectItem@@U3@@std@@YAXAAV?$allocator@UInventorySelectItem@@@0@PAUInventorySelectItem@@$$QAU2@@Z
  00024	e9 00 00 00 00	 jmp	 ___CxxFrameHandler3
text$x	ENDS
??$_Cons_val@V?$allocator@UInventorySelectItem@@@std@@UInventorySelectItem@@U3@@std@@YAXAAV?$allocator@UInventorySelectItem@@@0@PAUInventorySelectItem@@$$QAU2@@Z ENDP ; std::_Cons_val<std::allocator<InventorySelectItem>,InventorySelectItem,InventorySelectItem>
PUBLIC	?begin@?$basic_string@DU?$char_traits@D@std@@V?$allocator@D@2@@std@@QAE?AV?$_String_iterator@DU?$char_traits@D@std@@V?$allocator@D@2@@2@XZ ; std::basic_string<char,std::char_traits<char>,std::allocator<char> >::begin
; Function compile flags: /Ogsp
; File c:\program files (x86)\microsoft visual studio 10.0\vc\include\xstring
;	COMDAT ?begin@?$basic_string@DU?$char_traits@D@std@@V?$allocator@D@2@@std@@QAE?AV?$_String_iterator@DU?$char_traits@D@std@@V?$allocator@D@2@@2@XZ
_TEXT	SEGMENT
___$ReturnUdt$ = 8					; size = 4
?begin@?$basic_string@DU?$char_traits@D@std@@V?$allocator@D@2@@std@@QAE?AV?$_String_iterator@DU?$char_traits@D@std@@V?$allocator@D@2@@2@XZ PROC ; std::basic_string<char,std::char_traits<char>,std::allocator<char> >::begin, COMDAT
; _this$ = ecx

; 1351 : 		{	// return iterator for beginning of mutable sequence

  00000	55		 push	 ebp
  00001	8b ec		 mov	 ebp, esp

; 1352 : 		return (_STRING_ITERATOR(_Myptr()));

  00003	83 79 14 10	 cmp	 DWORD PTR [ecx+20], 16	; 00000010H
  00007	72 02		 jb	 SHORT $LN5@begin
  00009	8b 09		 mov	 ecx, DWORD PTR [ecx]
$LN5@begin:
  0000b	8b 45 08	 mov	 eax, DWORD PTR ___$ReturnUdt$[ebp]
  0000e	89 08		 mov	 DWORD PTR [eax], ecx

; 1353 : 		}

  00010	5d		 pop	 ebp
  00011	c2 04 00	 ret	 4
?begin@?$basic_string@DU?$char_traits@D@std@@V?$allocator@D@2@@std@@QAE?AV?$_String_iterator@DU?$char_traits@D@std@@V?$allocator@D@2@@2@XZ ENDP ; std::basic_string<char,std::char_traits<char>,std::allocator<char> >::begin
_TEXT	ENDS
PUBLIC	?end@?$basic_string@DU?$char_traits@D@std@@V?$allocator@D@2@@std@@QAE?AV?$_String_iterator@DU?$char_traits@D@std@@V?$allocator@D@2@@2@XZ ; std::basic_string<char,std::char_traits<char>,std::allocator<char> >::end
; Function compile flags: /Ogsp
;	COMDAT ?end@?$basic_string@DU?$char_traits@D@std@@V?$allocator@D@2@@std@@QAE?AV?$_String_iterator@DU?$char_traits@D@std@@V?$allocator@D@2@@2@XZ
_TEXT	SEGMENT
___$ReturnUdt$ = 8					; size = 4
?end@?$basic_string@DU?$char_traits@D@std@@V?$allocator@D@2@@std@@QAE?AV?$_String_iterator@DU?$char_traits@D@std@@V?$allocator@D@2@@2@XZ PROC ; std::basic_string<char,std::char_traits<char>,std::allocator<char> >::end, COMDAT
; _this$ = ecx

; 1361 : 		{	// return iterator for end of mutable sequence

  00000	55		 push	 ebp
  00001	8b ec		 mov	 ebp, esp

; 1362 : 		return (_STRING_ITERATOR(_Myptr() + this->_Mysize));

  00003	83 79 14 10	 cmp	 DWORD PTR [ecx+20], 16	; 00000010H
  00007	72 04		 jb	 SHORT $LN5@end
  00009	8b 01		 mov	 eax, DWORD PTR [ecx]
  0000b	eb 02		 jmp	 SHORT $LN6@end
$LN5@end:
  0000d	8b c1		 mov	 eax, ecx
$LN6@end:
  0000f	8b 49 10	 mov	 ecx, DWORD PTR [ecx+16]
  00012	03 c8		 add	 ecx, eax
  00014	8b 45 08	 mov	 eax, DWORD PTR ___$ReturnUdt$[ebp]
  00017	89 08		 mov	 DWORD PTR [eax], ecx

; 1363 : 		}

  00019	5d		 pop	 ebp
  0001a	c2 04 00	 ret	 4
?end@?$basic_string@DU?$char_traits@D@std@@V?$allocator@D@2@@std@@QAE?AV?$_String_iterator@DU?$char_traits@D@std@@V?$allocator@D@2@@2@XZ ENDP ; std::basic_string<char,std::char_traits<char>,std::allocator<char> >::end
_TEXT	ENDS
PUBLIC	?_Tidy@?$basic_string@DU?$char_traits@D@std@@V?$allocator@D@2@@std@@QAEX_NI@Z ; std::basic_string<char,std::char_traits<char>,std::allocator<char> >::_Tidy
; Function compile flags: /Ogsp
;	COMDAT ?_Tidy@?$basic_string@DU?$char_traits@D@std@@V?$allocator@D@2@@std@@QAEX_NI@Z
_TEXT	SEGMENT
__Built$ = 8						; size = 1
__Newsize$ = 12						; size = 4
?_Tidy@?$basic_string@DU?$char_traits@D@std@@V?$allocator@D@2@@std@@QAEX_NI@Z PROC ; std::basic_string<char,std::char_traits<char>,std::allocator<char> >::_Tidy, COMDAT
; _this$ = ecx

; 1988 : 		{	// initialize buffer, deallocating any storage

  00000	55		 push	 ebp
  00001	8b ec		 mov	 ebp, esp

; 1989 : 		if (!_Built)

  00003	80 7d 08 00	 cmp	 BYTE PTR __Built$[ebp], 0
  00007	56		 push	 esi
  00008	57		 push	 edi
  00009	8b 7d 0c	 mov	 edi, DWORD PTR __Newsize$[ebp]
  0000c	8b f1		 mov	 esi, ecx
  0000e	74 20		 je	 SHORT $LN9@Tidy

; 1990 : 			;
; 1991 : 		else if (this->_BUF_SIZE <= this->_Myres)

  00010	83 7e 14 10	 cmp	 DWORD PTR [esi+20], 16	; 00000010H
  00014	72 1a		 jb	 SHORT $LN9@Tidy

; 1992 : 			{	// copy any leftovers to small buffer and deallocate
; 1993 : 			_Elem *_Ptr = this->_Bx._Ptr;

  00016	53		 push	 ebx
  00017	8b 1e		 mov	 ebx, DWORD PTR [esi]

; 1994 : 			if (0 < _Newsize)

  00019	85 ff		 test	 edi, edi
  0001b	74 0b		 je	 SHORT $LN7@Tidy

; 1995 : 				_Traits::copy(this->_Bx._Buf, _Ptr, _Newsize);

  0001d	57		 push	 edi
  0001e	53		 push	 ebx
  0001f	56		 push	 esi
  00020	e8 00 00 00 00	 call	 _memcpy
  00025	83 c4 0c	 add	 esp, 12			; 0000000cH
$LN7@Tidy:

; 1996 : 			this->_Alval.deallocate(_Ptr, this->_Myres + 1);

  00028	53		 push	 ebx
  00029	e8 00 00 00 00	 call	 ??3@YAXPAX@Z		; operator delete
  0002e	59		 pop	 ecx
  0002f	5b		 pop	 ebx
$LN9@Tidy:

; 1997 : 			}
; 1998 : 		this->_Myres = this->_BUF_SIZE - 1;
; 1999 : 		_Eos(_Newsize);

  00030	89 7e 10	 mov	 DWORD PTR [esi+16], edi
  00033	c7 46 14 0f 00
	00 00		 mov	 DWORD PTR [esi+20], 15	; 0000000fH
  0003a	c6 04 37 00	 mov	 BYTE PTR [edi+esi], 0
  0003e	5f		 pop	 edi
  0003f	5e		 pop	 esi

; 2000 : 		}

  00040	5d		 pop	 ebp
  00041	c2 08 00	 ret	 8
?_Tidy@?$basic_string@DU?$char_traits@D@std@@V?$allocator@D@2@@std@@QAEX_NI@Z ENDP ; std::basic_string<char,std::char_traits<char>,std::allocator<char> >::_Tidy
_TEXT	ENDS
PUBLIC	?erase@?$basic_string@DU?$char_traits@D@std@@V?$allocator@D@2@@std@@QAEAAV12@II@Z ; std::basic_string<char,std::char_traits<char>,std::allocator<char> >::erase
; Function compile flags: /Ogsp
;	COMDAT ?erase@?$basic_string@DU?$char_traits@D@std@@V?$allocator@D@2@@std@@QAEAAV12@II@Z
_TEXT	SEGMENT
__Off$ = 8						; size = 4
__Count$ = 12						; size = 4
?erase@?$basic_string@DU?$char_traits@D@std@@V?$allocator@D@2@@std@@QAEAAV12@II@Z PROC ; std::basic_string<char,std::char_traits<char>,std::allocator<char> >::erase, COMDAT
; _this$ = ecx

; 1109 : 		{	// erase elements [_Off, _Off + _Count)

  00000	55		 push	 ebp
  00001	8b ec		 mov	 ebp, esp
  00003	53		 push	 ebx
  00004	56		 push	 esi
  00005	8b f1		 mov	 esi, ecx

; 1110 : 		if (this->_Mysize < _Off)

  00007	8b 46 10	 mov	 eax, DWORD PTR [esi+16]
  0000a	8b 4d 08	 mov	 ecx, DWORD PTR __Off$[ebp]
  0000d	3b c1		 cmp	 eax, ecx
  0000f	73 0b		 jae	 SHORT $LN3@erase

; 1111 : 			_Xran();	// _Off off end

  00011	68 00 00 00 00	 push	 OFFSET ??_C@_0BI@CFPLBAOH@invalid?5string?5position?$AA@
  00016	ff 15 00 00 00
	00		 call	 DWORD PTR __imp_?_Xout_of_range@std@@YAXPBD@Z
$LN28@erase:
$LN3@erase:

; 1112 : 		if (this->_Mysize - _Off < _Count)

  0001c	8b 5d 0c	 mov	 ebx, DWORD PTR __Count$[ebp]
  0001f	2b c1		 sub	 eax, ecx
  00021	3b c3		 cmp	 eax, ebx

; 1113 : 			_Count = this->_Mysize - _Off;	// trim _Count

  00023	0f 42 d8	 cmovb	 ebx, eax

; 1114 : 		if (0 < _Count)

  00026	85 db		 test	 ebx, ebx
  00028	74 47		 je	 SHORT $LN25@erase

; 1115 : 			{	// move elements down
; 1116 : 			_Traits::move(_Myptr() + _Off, _Myptr() + _Off + _Count,
; 1117 : 				this->_Mysize - _Off - _Count);

  0002a	8b 56 14	 mov	 edx, DWORD PTR [esi+20]
  0002d	57		 push	 edi
  0002e	83 fa 10	 cmp	 edx, 16			; 00000010H
  00031	72 04		 jb	 SHORT $LN11@erase
  00033	8b 3e		 mov	 edi, DWORD PTR [esi]
  00035	eb 02		 jmp	 SHORT $LN12@erase
$LN11@erase:
  00037	8b fe		 mov	 edi, esi
$LN12@erase:
  00039	83 fa 10	 cmp	 edx, 16			; 00000010H
  0003c	72 04		 jb	 SHORT $LN15@erase
  0003e	8b 16		 mov	 edx, DWORD PTR [esi]
  00040	eb 02		 jmp	 SHORT $LN16@erase
$LN15@erase:
  00042	8b d6		 mov	 edx, esi
$LN16@erase:
  00044	2b c3		 sub	 eax, ebx
  00046	03 f9		 add	 edi, ecx
  00048	50		 push	 eax
  00049	03 fb		 add	 edi, ebx
  0004b	03 d1		 add	 edx, ecx
  0004d	57		 push	 edi
  0004e	52		 push	 edx
  0004f	ff 15 00 00 00
	00		 call	 DWORD PTR __imp__memmove

; 1118 : 			size_type _Newsize = this->_Mysize - _Count;

  00055	8b 46 10	 mov	 eax, DWORD PTR [esi+16]
  00058	83 c4 0c	 add	 esp, 12			; 0000000cH
  0005b	2b c3		 sub	 eax, ebx

; 1119 : 			_Eos(_Newsize);

  0005d	83 7e 14 10	 cmp	 DWORD PTR [esi+20], 16	; 00000010H
  00061	89 46 10	 mov	 DWORD PTR [esi+16], eax
  00064	5f		 pop	 edi
  00065	72 04		 jb	 SHORT $LN23@erase
  00067	8b 0e		 mov	 ecx, DWORD PTR [esi]
  00069	eb 02		 jmp	 SHORT $LN24@erase
$LN23@erase:
  0006b	8b ce		 mov	 ecx, esi
$LN24@erase:
  0006d	c6 04 01 00	 mov	 BYTE PTR [ecx+eax], 0
$LN25@erase:

; 1120 : 			}
; 1121 : 		return (*this);

  00071	8b c6		 mov	 eax, esi
  00073	5e		 pop	 esi
  00074	5b		 pop	 ebx

; 1122 : 		}

  00075	5d		 pop	 ebp
  00076	c2 08 00	 ret	 8
$LN27@erase:
?erase@?$basic_string@DU?$char_traits@D@std@@V?$allocator@D@2@@std@@QAEAAV12@II@Z ENDP ; std::basic_string<char,std::char_traits<char>,std::allocator<char> >::erase
_TEXT	ENDS
PUBLIC	??9?$_String_const_iterator@DU?$char_traits@D@std@@V?$allocator@D@2@@std@@QBE_NABV01@@Z ; std::_String_const_iterator<char,std::char_traits<char>,std::allocator<char> >::operator!=
; Function compile flags: /Ogsp
;	COMDAT ??9?$_String_const_iterator@DU?$char_traits@D@std@@V?$allocator@D@2@@std@@QBE_NABV01@@Z
_TEXT	SEGMENT
__Right$ = 8						; size = 4
??9?$_String_const_iterator@DU?$char_traits@D@std@@V?$allocator@D@2@@std@@QBE_NABV01@@Z PROC ; std::_String_const_iterator<char,std::char_traits<char>,std::allocator<char> >::operator!=, COMDAT
; _this$ = ecx

; 218  : 		{	// test for iterator inequality

  00000	55		 push	 ebp
  00001	8b ec		 mov	 ebp, esp

; 219  : 		return (!(*this == _Right));

  00003	8b 01		 mov	 eax, DWORD PTR [ecx]
  00005	8b 55 08	 mov	 edx, DWORD PTR __Right$[ebp]
  00008	33 c9		 xor	 ecx, ecx
  0000a	3b 02		 cmp	 eax, DWORD PTR [edx]
  0000c	0f 95 c0	 setne	 al

; 220  : 		}

  0000f	5d		 pop	 ebp
  00010	c2 04 00	 ret	 4
??9?$_String_const_iterator@DU?$char_traits@D@std@@V?$allocator@D@2@@std@@QBE_NABV01@@Z ENDP ; std::_String_const_iterator<char,std::char_traits<char>,std::allocator<char> >::operator!=
_TEXT	ENDS
PUBLIC	?_Copy@?$basic_string@DU?$char_traits@D@std@@V?$allocator@D@2@@std@@QAEXII@Z ; std::basic_string<char,std::char_traits<char>,std::allocator<char> >::_Copy
EXTRN	__EH_prolog3_catch:PROC
;	COMDAT xdata$x
; File c:\program files (x86)\microsoft visual studio 10.0\vc\include\iosfwd
xdata$x	SEGMENT
__catchsym$?_Copy@?$basic_string@DU?$char_traits@D@std@@V?$allocator@D@2@@std@@QAEXII@Z$5 DD 040H
	DD	00H
	DD	00H
	DD	FLAT:__catch$?_Copy@?$basic_string@DU?$char_traits@D@std@@V?$allocator@D@2@@std@@QAEXII@Z$0
__catchsym$?_Copy@?$basic_string@DU?$char_traits@D@std@@V?$allocator@D@2@@std@@QAEXII@Z$4 DD 040H
	DD	00H
	DD	00H
	DD	FLAT:__catch$?_Copy@?$basic_string@DU?$char_traits@D@std@@V?$allocator@D@2@@std@@QAEXII@Z$1
__unwindtable$?_Copy@?$basic_string@DU?$char_traits@D@std@@V?$allocator@D@2@@std@@QAEXII@Z DD 0ffffffffH
	DD	00H
	DD	0ffffffffH
	DD	00H
	DD	01H
	DD	00H
	DD	01H
	DD	00H
__ehfuncinfo$?_Copy@?$basic_string@DU?$char_traits@D@std@@V?$allocator@D@2@@std@@QAEXII@Z DD 019930522H
	DD	04H
	DD	FLAT:__unwindtable$?_Copy@?$basic_string@DU?$char_traits@D@std@@V?$allocator@D@2@@std@@QAEXII@Z
	DD	02H
	DD	FLAT:__tryblocktable$?_Copy@?$basic_string@DU?$char_traits@D@std@@V?$allocator@D@2@@std@@QAEXII@Z
	DD	2 DUP(00H)
	DD	00H
	DD	01H
__tryblocktable$?_Copy@?$basic_string@DU?$char_traits@D@std@@V?$allocator@D@2@@std@@QAEXII@Z DD 02H
	DD	02H
	DD	03H
	DD	01H
	DD	FLAT:__catchsym$?_Copy@?$basic_string@DU?$char_traits@D@std@@V?$allocator@D@2@@std@@QAEXII@Z$4
	DD	00H
	DD	00H
	DD	03H
	DD	01H
	DD	FLAT:__catchsym$?_Copy@?$basic_string@DU?$char_traits@D@std@@V?$allocator@D@2@@std@@QAEXII@Z$5
; Function compile flags: /Ogsp
; File c:\program files (x86)\microsoft visual studio 10.0\vc\include\xstring
xdata$x	ENDS
;	COMDAT ?_Copy@?$basic_string@DU?$char_traits@D@std@@V?$allocator@D@2@@std@@QAEXII@Z
_TEXT	SEGMENT
_this$ = -24						; size = 4
tv296 = -20						; size = 4
__Newres$ = -20						; size = 4
__$EHRec$ = -16						; size = 16
__Ptr$ = 8						; size = 4
__Newsize$ = 8						; size = 4
__Oldlen$ = 12						; size = 4
?_Copy@?$basic_string@DU?$char_traits@D@std@@V?$allocator@D@2@@std@@QAEXII@Z PROC ; std::basic_string<char,std::char_traits<char>,std::allocator<char> >::_Copy, COMDAT
; _this$ = ecx

; 1919 : 		{	// copy _Oldlen elements to newly allocated buffer

  00000	6a 0c		 push	 12			; 0000000cH
  00002	b8 00 00 00 00	 mov	 eax, __ehhandler$?_Copy@?$basic_string@DU?$char_traits@D@std@@V?$allocator@D@2@@std@@QAEXII@Z
  00007	e8 00 00 00 00	 call	 __EH_prolog3_catch
  0000c	8b f1		 mov	 esi, ecx
  0000e	89 75 e8	 mov	 DWORD PTR _this$[ebp], esi

; 1920 : 		size_type _Newres = _Newsize | this->_ALLOC_MASK;

  00011	8b 7d 08	 mov	 edi, DWORD PTR __Newsize$[ebp]
  00014	83 cf 0f	 or	 edi, 15			; 0000000fH

; 1921 : 		if (max_size() < _Newres)

  00017	83 ff fe	 cmp	 edi, -2			; fffffffeH
  0001a	76 05		 jbe	 SHORT $LN9@Copy

; 1922 : 			_Newres = _Newsize;	// undo roundup if too big

  0001c	8b 7d 08	 mov	 edi, DWORD PTR __Newsize$[ebp]
  0001f	eb 27		 jmp	 SHORT $LN5@Copy
$LN9@Copy:

; 1923 : 		else if (this->_Myres / 2 <= _Newres / 3)

  00021	33 d2		 xor	 edx, edx
  00023	6a 03		 push	 3
  00025	8b c7		 mov	 eax, edi
  00027	5b		 pop	 ebx
  00028	f7 f3		 div	 ebx
  0002a	8b 4e 14	 mov	 ecx, DWORD PTR [esi+20]
  0002d	89 4d ec	 mov	 DWORD PTR tv296[ebp], ecx
  00030	d1 6d ec	 shr	 DWORD PTR tv296[ebp], 1
  00033	8b 55 ec	 mov	 edx, DWORD PTR tv296[ebp]
  00036	3b d0		 cmp	 edx, eax
  00038	76 0e		 jbe	 SHORT $LN5@Copy

; 1924 : 			;
; 1925 : 		else if (this->_Myres <= max_size() - this->_Myres / 2)

  0003a	6a fe		 push	 -2			; fffffffeH
  0003c	5f		 pop	 edi
  0003d	8b c7		 mov	 eax, edi
  0003f	2b c2		 sub	 eax, edx
  00041	3b c8		 cmp	 ecx, eax
  00043	77 03		 ja	 SHORT $LN5@Copy

; 1926 : 			_Newres = this->_Myres
; 1927 : 				+ this->_Myres / 2;	// grow exponentially if possible

  00045	8d 3c 0a	 lea	 edi, DWORD PTR [edx+ecx]
$LN5@Copy:

; 1928 : 		else
; 1929 : 			_Newres = max_size();	// settle for max_size()
; 1930 : 
; 1931 : 		_Elem *_Ptr;
; 1932 : 		_TRY_BEGIN

  00048	83 65 fc 00	 and	 DWORD PTR __$EHRec$[ebp+12], 0

; 1933 : 			_Ptr = this->_Alval.allocate(_Newres + 1);

  0004c	8d 47 01	 lea	 eax, DWORD PTR [edi+1]
  0004f	6a 00		 push	 0
  00051	50		 push	 eax
  00052	e8 00 00 00 00	 call	 ??$_Allocate@D@std@@YAPADIPAD@Z ; std::_Allocate<char>
  00057	59		 pop	 ecx
  00058	59		 pop	 ecx
  00059	89 45 08	 mov	 DWORD PTR __Ptr$[ebp], eax
  0005c	eb 27		 jmp	 SHORT $LN19@Copy
__catch$?_Copy@?$basic_string@DU?$char_traits@D@std@@V?$allocator@D@2@@std@@QAEXII@Z$0:

; 1934 : 		_CATCH_ALL
; 1935 : 			_Newres = _Newsize;	// allocation failed, undo roundup and retry

  0005e	8b 45 08	 mov	 eax, DWORD PTR __Newsize$[ebp]
  00061	89 65 f0	 mov	 DWORD PTR __$EHRec$[ebp], esp
  00064	89 45 ec	 mov	 DWORD PTR __Newres$[ebp], eax

; 1936 : 			_TRY_BEGIN
; 1937 : 				_Ptr = this->_Alval.allocate(_Newres + 1);

  00067	40		 inc	 eax
  00068	6a 00		 push	 0
  0006a	50		 push	 eax
  0006b	c6 45 fc 02	 mov	 BYTE PTR __$EHRec$[ebp+12], 2
  0006f	e8 00 00 00 00	 call	 ??$_Allocate@D@std@@YAPADIPAD@Z ; std::_Allocate<char>
  00074	59		 pop	 ecx
  00075	89 45 08	 mov	 DWORD PTR __Ptr$[ebp], eax
  00078	59		 pop	 ecx

; 1941 : 			_CATCH_END
; 1942 : 		_CATCH_END

  00079	b8 00 00 00 00	 mov	 eax, $LN63@Copy
  0007e	c3		 ret	 0
$LN63@Copy:
  0007f	8b 75 e8	 mov	 esi, DWORD PTR _this$[ebp]
  00082	8b 7d ec	 mov	 edi, DWORD PTR __Newres$[ebp]
$LN19@Copy:

; 1943 : 
; 1944 : 		if (0 < _Oldlen)

  00085	8b 5d 0c	 mov	 ebx, DWORD PTR __Oldlen$[ebp]
  00088	85 db		 test	 ebx, ebx
  0008a	74 19		 je	 SHORT $LN52@Copy

; 1945 : 			_Traits::copy(_Ptr, _Myptr(), _Oldlen);	// copy existing elements

  0008c	83 7e 14 10	 cmp	 DWORD PTR [esi+20], 16	; 00000010H
  00090	72 04		 jb	 SHORT $LN50@Copy
  00092	8b 06		 mov	 eax, DWORD PTR [esi]
  00094	eb 02		 jmp	 SHORT $LN51@Copy
$LN50@Copy:
  00096	8b c6		 mov	 eax, esi
$LN51@Copy:
  00098	53		 push	 ebx
  00099	50		 push	 eax
  0009a	ff 75 08	 push	 DWORD PTR __Ptr$[ebp]
  0009d	e8 00 00 00 00	 call	 _memcpy
  000a2	83 c4 0c	 add	 esp, 12			; 0000000cH
$LN52@Copy:

; 1946 : 		_Tidy(true);

  000a5	6a 00		 push	 0
  000a7	6a 01		 push	 1
  000a9	8b ce		 mov	 ecx, esi
  000ab	e8 00 00 00 00	 call	 ?_Tidy@?$basic_string@DU?$char_traits@D@std@@V?$allocator@D@2@@std@@QAEX_NI@Z ; std::basic_string<char,std::char_traits<char>,std::allocator<char> >::_Tidy

; 1947 : 		this->_Bx._Ptr = _Ptr;

  000b0	8b 45 08	 mov	 eax, DWORD PTR __Ptr$[ebp]
  000b3	89 06		 mov	 DWORD PTR [esi], eax

; 1948 : 		this->_Myres = _Newres;
; 1949 : 		_Eos(_Oldlen);

  000b5	83 ff 10	 cmp	 edi, 16			; 00000010H
  000b8	89 7e 14	 mov	 DWORD PTR [esi+20], edi
  000bb	89 5e 10	 mov	 DWORD PTR [esi+16], ebx
  000be	0f 42 c6	 cmovb	 eax, esi
  000c1	c6 04 18 00	 mov	 BYTE PTR [eax+ebx], 0

; 1950 : 		}

  000c5	e8 00 00 00 00	 call	 __EH_epilog3
  000ca	c2 08 00	 ret	 8
__catch$?_Copy@?$basic_string@DU?$char_traits@D@std@@V?$allocator@D@2@@std@@QAEXII@Z$1:

; 1938 : 			_CATCH_ALL
; 1939 : 			_Tidy(true);	// failed again, discard storage and reraise

  000cd	8b 4d e8	 mov	 ecx, DWORD PTR _this$[ebp]
  000d0	33 f6		 xor	 esi, esi
  000d2	56		 push	 esi
  000d3	6a 01		 push	 1
  000d5	e8 00 00 00 00	 call	 ?_Tidy@?$basic_string@DU?$char_traits@D@std@@V?$allocator@D@2@@std@@QAEX_NI@Z ; std::basic_string<char,std::char_traits<char>,std::allocator<char> >::_Tidy

; 1940 : 			_RERAISE;

  000da	56		 push	 esi
  000db	56		 push	 esi
  000dc	e8 00 00 00 00	 call	 __CxxThrowException@8
$LN67@Copy:
$LN66@Copy:
  000e1	cc		 int	 3
_TEXT	ENDS
;	COMDAT text$x
text$x	SEGMENT
__ehhandler$?_Copy@?$basic_string@DU?$char_traits@D@std@@V?$allocator@D@2@@std@@QAEXII@Z:
  00000	8b 54 24 08	 mov	 edx, DWORD PTR [esp+8]
  00004	8d 42 0c	 lea	 eax, DWORD PTR [edx+12]
  00007	8b 4a e4	 mov	 ecx, DWORD PTR [edx-28]
  0000a	33 c8		 xor	 ecx, eax
  0000c	e8 00 00 00 00	 call	 @__security_check_cookie@4
  00011	b8 00 00 00 00	 mov	 eax, OFFSET __ehfuncinfo$?_Copy@?$basic_string@DU?$char_traits@D@std@@V?$allocator@D@2@@std@@QAEXII@Z
  00016	e9 00 00 00 00	 jmp	 ___CxxFrameHandler3
text$x	ENDS
?_Copy@?$basic_string@DU?$char_traits@D@std@@V?$allocator@D@2@@std@@QAEXII@Z ENDP ; std::basic_string<char,std::char_traits<char>,std::allocator<char> >::_Copy
PUBLIC	?destroy@?$allocator@VioHashString@@@std@@QAEXPAVioHashString@@@Z ; std::allocator<ioHashString>::destroy
; Function compile flags: /Ogsp
; File c:\program files (x86)\microsoft visual studio 10.0\vc\include\xmemory
;	COMDAT ?destroy@?$allocator@VioHashString@@@std@@QAEXPAVioHashString@@@Z
_TEXT	SEGMENT
__Ptr$ = 8						; size = 4
?destroy@?$allocator@VioHashString@@@std@@QAEXPAVioHashString@@@Z PROC ; std::allocator<ioHashString>::destroy, COMDAT
; _this$ = ecx

; 212  : 		{	// destroy object at _Ptr

  00000	55		 push	 ebp
  00001	8b ec		 mov	 ebp, esp

; 213  : 		_Destroy(_Ptr);

  00003	8b 4d 08	 mov	 ecx, DWORD PTR __Ptr$[ebp]
  00006	ff 15 00 00 00
	00		 call	 DWORD PTR __imp_??1ioHashString@@QAE@XZ

; 214  : 		}

  0000c	5d		 pop	 ebp
  0000d	c2 04 00	 ret	 4
?destroy@?$allocator@VioHashString@@@std@@QAEXPAVioHashString@@@Z ENDP ; std::allocator<ioHashString>::destroy
_TEXT	ENDS
EXTRN	__imp_?OnRender@ioButton@@MAEXXZ:PROC
EXTRN	__imp_?HasWndStyle@ioWnd@@QBE_NK@Z:PROC
; Function compile flags: /Ogsp
; File d:\lost saga for developer\youtube\tutorial\source\src\lsclient\gui\inventoryselectitemwnd.cpp
;	COMDAT ?OnRender@InventorySelectItemBtn@@MAEXXZ
_TEXT	SEGMENT
_iYPos$ = -4						; size = 4
?OnRender@InventorySelectItemBtn@@MAEXXZ PROC		; InventorySelectItemBtn::OnRender, COMDAT
; _this$ = ecx

; 188  : {

  00000	55		 push	 ebp
  00001	8b ec		 mov	 ebp, esp
  00003	51		 push	 ecx
  00004	53		 push	 ebx
  00005	56		 push	 esi
  00006	57		 push	 edi
  00007	8b f9		 mov	 edi, ecx

; 189  : 	int iXPos = GetDerivedPosX();

  00009	ff 15 00 00 00
	00		 call	 DWORD PTR __imp_?GetDerivedPosX@ioWnd@@QBEHXZ

; 190  : 	int iYPos = GetDerivedPosY();

  0000f	8b cf		 mov	 ecx, edi
  00011	8b d8		 mov	 ebx, eax
  00013	ff 15 00 00 00
	00		 call	 DWORD PTR __imp_?GetDerivedPosY@ioWnd@@QBEHXZ

; 191  : 
; 192  : 	if( HasWndStyle( IWS_INACTIVE ) )

  00019	6a 02		 push	 2
  0001b	8b cf		 mov	 ecx, edi
  0001d	89 45 fc	 mov	 DWORD PTR _iYPos$[ebp], eax
  00020	ff 15 00 00 00
	00		 call	 DWORD PTR __imp_?HasWndStyle@ioWnd@@QBE_NK@Z
  00026	84 c0		 test	 al, al
  00028	0f 84 81 00 00
	00		 je	 $LN6@OnRender@3

; 193  : 	{	
; 194  : 		if( m_pDisableFrm )

  0002e	33 f6		 xor	 esi, esi
  00030	39 b7 74 01 00
	00		 cmp	 DWORD PTR [edi+372], esi
  00036	74 08		 je	 SHORT $LN5@OnRender@3

; 195  : 			m_pDisableFrm->Render( iXPos, iYPos );

  00038	8b 8f 74 01 00
	00		 mov	 ecx, DWORD PTR [edi+372]
  0003e	eb 0e		 jmp	 SHORT $LN10@OnRender@3
$LN5@OnRender@3:

; 196  : 		else if( m_pNormalFrm )

  00040	39 b7 60 01 00
	00		 cmp	 DWORD PTR [edi+352], esi
  00046	74 2a		 je	 SHORT $LN3@OnRender@3

; 197  : 			m_pNormalFrm->Render( iXPos, iYPos );

  00048	8b 8f 60 01 00
	00		 mov	 ecx, DWORD PTR [edi+352]
$LN10@OnRender@3:
  0004e	66 0f 6e 45 fc	 movd	 xmm0, DWORD PTR _iYPos$[ebp]
  00053	8b 01		 mov	 eax, DWORD PTR [ecx]
  00055	56		 push	 esi
  00056	56		 push	 esi
  00057	56		 push	 esi
  00058	56		 push	 esi
  00059	51		 push	 ecx
  0005a	51		 push	 ecx
  0005b	0f 5b c0	 cvtdq2ps xmm0, xmm0
  0005e	f3 0f 11 44 24
	04		 movss	 DWORD PTR [esp+4], xmm0
  00064	0f 57 c0	 xorps	 xmm0, xmm0
  00067	f3 0f 2a c3	 cvtsi2ss xmm0, ebx
  0006b	f3 0f 11 04 24	 movss	 DWORD PTR [esp], xmm0
  00070	ff 10		 call	 DWORD PTR [eax]
$LN3@OnRender@3:

; 198  : 
; 199  : 		//   .
; 200  : 		if( m_pIconEmptyImg )

  00072	39 b7 5c 02 00
	00		 cmp	 DWORD PTR [edi+604], esi
  00078	74 3d		 je	 SHORT $LN9@OnRender@3

; 201  : 			m_pIconEmptyImg->Render( iXPos+52, iYPos+49, UI_RENDER_MULTIPLY );

  0007a	8b 8f 5c 02 00
	00		 mov	 ecx, DWORD PTR [edi+604]
  00080	8b 55 fc	 mov	 edx, DWORD PTR _iYPos$[ebp]
  00083	8b 01		 mov	 eax, DWORD PTR [ecx]
  00085	56		 push	 esi
  00086	56		 push	 esi
  00087	56		 push	 esi
  00088	6a 08		 push	 8
  0008a	83 c2 31	 add	 edx, 49			; 00000031H
  0008d	0f 57 c0	 xorps	 xmm0, xmm0
  00090	f3 0f 2a c2	 cvtsi2ss xmm0, edx
  00094	51		 push	 ecx
  00095	51		 push	 ecx
  00096	f3 0f 11 44 24
	04		 movss	 DWORD PTR [esp+4], xmm0
  0009c	8d 53 34	 lea	 edx, DWORD PTR [ebx+52]
  0009f	0f 57 c0	 xorps	 xmm0, xmm0
  000a2	f3 0f 2a c2	 cvtsi2ss xmm0, edx
  000a6	f3 0f 11 04 24	 movss	 DWORD PTR [esp], xmm0
  000ab	ff 10		 call	 DWORD PTR [eax]

; 202  : 	}
; 203  : 	else

  000ad	eb 08		 jmp	 SHORT $LN9@OnRender@3
$LN6@OnRender@3:

; 204  : 	{
; 205  : 		ioButton::OnRender();

  000af	8b cf		 mov	 ecx, edi
  000b1	ff 15 00 00 00
	00		 call	 DWORD PTR __imp_?OnRender@ioButton@@MAEXXZ
$LN9@OnRender@3:

; 206  : 	}
; 207  : 
; 208  : 	RenderDesc( iXPos, iYPos );

  000b7	ff 75 fc	 push	 DWORD PTR _iYPos$[ebp]
  000ba	8b cf		 mov	 ecx, edi
  000bc	53		 push	 ebx
  000bd	e8 00 00 00 00	 call	 ?RenderDesc@InventorySelectItemBtn@@IAEXHH@Z ; InventorySelectItemBtn::RenderDesc
  000c2	5f		 pop	 edi
  000c3	5e		 pop	 esi
  000c4	5b		 pop	 ebx

; 209  : }

  000c5	c9		 leave
  000c6	c3		 ret	 0
?OnRender@InventorySelectItemBtn@@MAEXXZ ENDP		; InventorySelectItemBtn::OnRender
_TEXT	ENDS
PUBLIC	?iwm_vscroll@InventorySelectItemWnd@@UAEXKH@Z	; InventorySelectItemWnd::iwm_vscroll
; Function compile flags: /Ogsp
;	COMDAT ?iwm_vscroll@InventorySelectItemWnd@@UAEXKH@Z
_TEXT	SEGMENT
_dwID$ = 8						; size = 4
_curPos$ = 12						; size = 4
?iwm_vscroll@InventorySelectItemWnd@@UAEXKH@Z PROC	; InventorySelectItemWnd::iwm_vscroll, COMDAT
; _this$ = ecx

; 385  : {

  00000	55		 push	 ebp
  00001	8b ec		 mov	 ebp, esp

; 386  : 	UpdatePage( curPos );

  00003	ff 75 0c	 push	 DWORD PTR _curPos$[ebp]
  00006	e8 00 00 00 00	 call	 ?UpdatePage@InventorySelectItemWnd@@IAEXH@Z ; InventorySelectItemWnd::UpdatePage

; 387  : }

  0000b	5d		 pop	 ebp
  0000c	c2 08 00	 ret	 8
?iwm_vscroll@InventorySelectItemWnd@@UAEXKH@Z ENDP	; InventorySelectItemWnd::iwm_vscroll
_TEXT	ENDS
PUBLIC	??$transform@V?$_String_iterator@DU?$char_traits@D@std@@V?$allocator@D@2@@std@@V12@P6AHH@Z@std@@YA?AV?$_String_iterator@DU?$char_traits@D@std@@V?$allocator@D@2@@0@V10@00P6AHH@Z@Z ; std::transform<std::_String_iterator<char,std::char_traits<char>,std::allocator<char> >,std::_String_iterator<char,std::char_traits<char>,std::allocator<char> >,int (__cdecl*)(int)>
; Function compile flags: /Ogsp
; File c:\program files (x86)\microsoft visual studio 10.0\vc\include\algorithm
;	COMDAT ??$transform@V?$_String_iterator@DU?$char_traits@D@std@@V?$allocator@D@2@@std@@V12@P6AHH@Z@std@@YA?AV?$_String_iterator@DU?$char_traits@D@std@@V?$allocator@D@2@@0@V10@00P6AHH@Z@Z
_TEXT	SEGMENT
___$ReturnUdt$ = 8					; size = 4
__First$ = 12						; size = 4
__Last$ = 16						; size = 4
__Dest$ = 20						; size = 4
__Func$ = 24						; size = 4
??$transform@V?$_String_iterator@DU?$char_traits@D@std@@V?$allocator@D@2@@std@@V12@P6AHH@Z@std@@YA?AV?$_String_iterator@DU?$char_traits@D@std@@V?$allocator@D@2@@0@V10@00P6AHH@Z@Z PROC ; std::transform<std::_String_iterator<char,std::char_traits<char>,std::allocator<char> >,std::_String_iterator<char,std::char_traits<char>,std::allocator<char> >,int (__cdecl*)(int)>, COMDAT

; 1053 : 	{	// transform [_First, _Last) with _Func

  00000	55		 push	 ebp
  00001	8b ec		 mov	 ebp, esp

; 1054 : 	if (_First != _Last)

  00003	8b 45 0c	 mov	 eax, DWORD PTR __First$[ebp]
  00006	3b 45 10	 cmp	 eax, DWORD PTR __Last$[ebp]
  00009	74 1a		 je	 SHORT $LN1@transform

; 1055 : 		return (_Transform(_Unchecked(_First), _Unchecked(_Last),
; 1056 : 			_Dest, _Func));

  0000b	ff 75 18	 push	 DWORD PTR __Func$[ebp]
  0000e	ff 75 14	 push	 DWORD PTR __Dest$[ebp]
  00011	ff 75 10	 push	 DWORD PTR __Last$[ebp]
  00014	50		 push	 eax
  00015	ff 75 08	 push	 DWORD PTR ___$ReturnUdt$[ebp]
  00018	e8 00 00 00 00	 call	 ??$_Transform@PADV?$_String_iterator@DU?$char_traits@D@std@@V?$allocator@D@2@@std@@P6AHH@Z@std@@YA?AV?$_String_iterator@DU?$char_traits@D@std@@V?$allocator@D@2@@0@PAD0V10@P6AHH@Z@Z ; std::_Transform<char *,std::_String_iterator<char,std::char_traits<char>,std::allocator<char> >,int (__cdecl*)(int)>
  0001d	8b 45 08	 mov	 eax, DWORD PTR ___$ReturnUdt$[ebp]
  00020	83 c4 14	 add	 esp, 20			; 00000014H

; 1058 : 	}

  00023	5d		 pop	 ebp
  00024	c3		 ret	 0
$LN1@transform:

; 1057 : 	return (_Dest);

  00025	8b 45 08	 mov	 eax, DWORD PTR ___$ReturnUdt$[ebp]
  00028	8b 4d 14	 mov	 ecx, DWORD PTR __Dest$[ebp]
  0002b	89 08		 mov	 DWORD PTR [eax], ecx

; 1058 : 	}

  0002d	5d		 pop	 ebp
  0002e	c3		 ret	 0
??$transform@V?$_String_iterator@DU?$char_traits@D@std@@V?$allocator@D@2@@std@@V12@P6AHH@Z@std@@YA?AV?$_String_iterator@DU?$char_traits@D@std@@V?$allocator@D@2@@0@V10@00P6AHH@Z@Z ENDP ; std::transform<std::_String_iterator<char,std::char_traits<char>,std::allocator<char> >,std::_String_iterator<char,std::char_traits<char>,std::allocator<char> >,int (__cdecl*)(int)>
_TEXT	ENDS
PUBLIC	??$_Cons_val@V?$allocator@UInventorySelectItem@@@std@@UInventorySelectItem@@ABU3@@std@@YAXAAV?$allocator@UInventorySelectItem@@@0@PAUInventorySelectItem@@ABU2@@Z ; std::_Cons_val<std::allocator<InventorySelectItem>,InventorySelectItem,InventorySelectItem const &>
; Function compile flags: /Ogsp
; File c:\program files (x86)\microsoft visual studio 10.0\vc\include\xmemory
;	COMDAT ??$_Cons_val@V?$allocator@UInventorySelectItem@@@std@@UInventorySelectItem@@ABU3@@std@@YAXAAV?$allocator@UInventorySelectItem@@@0@PAUInventorySelectItem@@ABU2@@Z
_TEXT	SEGMENT
__Alval$ = 8						; size = 4
__Pdest$ = 12						; size = 4
__Src$ = 16						; size = 4
??$_Cons_val@V?$allocator@UInventorySelectItem@@@std@@UInventorySelectItem@@ABU3@@std@@YAXAAV?$allocator@UInventorySelectItem@@@0@PAUInventorySelectItem@@ABU2@@Z PROC ; std::_Cons_val<std::allocator<InventorySelectItem>,InventorySelectItem,InventorySelectItem const &>, COMDAT

; 279  : 	{	// construct using allocator

  00000	55		 push	 ebp
  00001	8b ec		 mov	 ebp, esp

; 280  : 	_Alval.construct(_Pdest, _STD forward<_Ty2>(_Src));

  00003	ff 75 10	 push	 DWORD PTR __Src$[ebp]
  00006	ff 75 0c	 push	 DWORD PTR __Pdest$[ebp]
  00009	e8 00 00 00 00	 call	 ??$_Construct@UInventorySelectItem@@ABU1@@std@@YAXPAUInventorySelectItem@@ABU1@@Z ; std::_Construct<InventorySelectItem,InventorySelectItem const &>
  0000e	59		 pop	 ecx
  0000f	59		 pop	 ecx

; 281  : 	}

  00010	5d		 pop	 ebp
  00011	c3		 ret	 0
??$_Cons_val@V?$allocator@UInventorySelectItem@@@std@@UInventorySelectItem@@ABU3@@std@@YAXAAV?$allocator@UInventorySelectItem@@@0@PAUInventorySelectItem@@ABU2@@Z ENDP ; std::_Cons_val<std::allocator<InventorySelectItem>,InventorySelectItem,InventorySelectItem const &>
_TEXT	ENDS
PUBLIC	??$_Dest_val@V?$allocator@UInventorySelectItem@@@std@@UInventorySelectItem@@@std@@YAXAAV?$allocator@UInventorySelectItem@@@0@PAUInventorySelectItem@@@Z ; std::_Dest_val<std::allocator<InventorySelectItem>,InventorySelectItem>
; Function compile flags: /Ogsp
;	COMDAT ??$_Dest_val@V?$allocator@UInventorySelectItem@@@std@@UInventorySelectItem@@@std@@YAXAAV?$allocator@UInventorySelectItem@@@0@PAUInventorySelectItem@@@Z
_TEXT	SEGMENT
__Alval$ = 8						; size = 4
__Pdest$ = 12						; size = 4
??$_Dest_val@V?$allocator@UInventorySelectItem@@@std@@UInventorySelectItem@@@std@@YAXAAV?$allocator@UInventorySelectItem@@@0@PAUInventorySelectItem@@@Z PROC ; std::_Dest_val<std::allocator<InventorySelectItem>,InventorySelectItem>, COMDAT

; 286  : 	{	// destroy using allocator

  00000	55		 push	 ebp
  00001	8b ec		 mov	 ebp, esp

; 287  : 	_Alval.destroy(_Pdest);

  00003	8b 4d 0c	 mov	 ecx, DWORD PTR __Pdest$[ebp]

; 288  : 	}

  00006	5d		 pop	 ebp

; 287  : 	_Alval.destroy(_Pdest);

  00007	e9 00 00 00 00	 jmp	 ??1InventorySelectItem@@QAE@XZ
??$_Dest_val@V?$allocator@UInventorySelectItem@@@std@@UInventorySelectItem@@@std@@YAXAAV?$allocator@UInventorySelectItem@@@0@PAUInventorySelectItem@@@Z ENDP ; std::_Dest_val<std::allocator<InventorySelectItem>,InventorySelectItem>
_TEXT	ENDS
PUBLIC	??$_Uninit_move@PAUInventorySelectItem@@PAU1@V?$allocator@UInventorySelectItem@@@std@@U1@@std@@YAPAUInventorySelectItem@@PAU1@00AAV?$allocator@UInventorySelectItem@@@0@0U_Nonscalar_ptr_iterator_tag@0@@Z ; std::_Uninit_move<InventorySelectItem *,InventorySelectItem *,std::allocator<InventorySelectItem>,InventorySelectItem>
;	COMDAT xdata$x
xdata$x	SEGMENT
__catchsym$??$_Uninit_move@PAUInventorySelectItem@@PAU1@V?$allocator@UInventorySelectItem@@@std@@U1@@std@@YAPAUInventorySelectItem@@PAU1@00AAV?$allocator@UInventorySelectItem@@@0@0U_Nonscalar_ptr_iterator_tag@0@@Z$2 DD 040H
	DD	00H
	DD	00H
	DD	FLAT:__catch$??$_Uninit_move@PAUInventorySelectItem@@PAU1@V?$allocator@UInventorySelectItem@@@std@@U1@@std@@YAPAUInventorySelectItem@@PAU1@00AAV?$allocator@UInventorySelectItem@@@0@0U_Nonscalar_ptr_iterator_tag@0@@Z$0
__unwindtable$??$_Uninit_move@PAUInventorySelectItem@@PAU1@V?$allocator@UInventorySelectItem@@@std@@U1@@std@@YAPAUInventorySelectItem@@PAU1@00AAV?$allocator@UInventorySelectItem@@@0@0U_Nonscalar_ptr_iterator_tag@0@@Z DD 0ffffffffH
	DD	00H
	DD	0ffffffffH
	DD	00H
__tryblocktable$??$_Uninit_move@PAUInventorySelectItem@@PAU1@V?$allocator@UInventorySelectItem@@@std@@U1@@std@@YAPAUInventorySelectItem@@PAU1@00AAV?$allocator@UInventorySelectItem@@@0@0U_Nonscalar_ptr_iterator_tag@0@@Z DD 00H
	DD	00H
	DD	01H
	DD	01H
	DD	FLAT:__catchsym$??$_Uninit_move@PAUInventorySelectItem@@PAU1@V?$allocator@UInventorySelectItem@@@std@@U1@@std@@YAPAUInventorySelectItem@@PAU1@00AAV?$allocator@UInventorySelectItem@@@0@0U_Nonscalar_ptr_iterator_tag@0@@Z$2
__ehfuncinfo$??$_Uninit_move@PAUInventorySelectItem@@PAU1@V?$allocator@UInventorySelectItem@@@std@@U1@@std@@YAPAUInventorySelectItem@@PAU1@00AAV?$allocator@UInventorySelectItem@@@0@0U_Nonscalar_ptr_iterator_tag@0@@Z DD 019930522H
	DD	02H
	DD	FLAT:__unwindtable$??$_Uninit_move@PAUInventorySelectItem@@PAU1@V?$allocator@UInventorySelectItem@@@std@@U1@@std@@YAPAUInventorySelectItem@@PAU1@00AAV?$allocator@UInventorySelectItem@@@0@0U_Nonscalar_ptr_iterator_tag@0@@Z
	DD	01H
	DD	FLAT:__tryblocktable$??$_Uninit_move@PAUInventorySelectItem@@PAU1@V?$allocator@UInventorySelectItem@@@std@@U1@@std@@YAPAUInventorySelectItem@@PAU1@00AAV?$allocator@UInventorySelectItem@@@0@0U_Nonscalar_ptr_iterator_tag@0@@Z
	DD	2 DUP(00H)
	DD	00H
	DD	01H
; Function compile flags: /Ogsp
; File c:\program files (x86)\microsoft visual studio 10.0\vc\include\memory
xdata$x	ENDS
;	COMDAT ??$_Uninit_move@PAUInventorySelectItem@@PAU1@V?$allocator@UInventorySelectItem@@@std@@U1@@std@@YAPAUInventorySelectItem@@PAU1@00AAV?$allocator@UInventorySelectItem@@@0@0U_Nonscalar_ptr_iterator_tag@0@@Z
_TEXT	SEGMENT
__Next$ = -20						; size = 4
__$EHRec$ = -16						; size = 16
__First$ = 8						; size = 4
__Last$ = 12						; size = 4
__Dest$ = 16						; size = 4
__Al$ = 20						; size = 4
___formal$ = 24						; size = 4
___formal$ = 28						; size = 1
??$_Uninit_move@PAUInventorySelectItem@@PAU1@V?$allocator@UInventorySelectItem@@@std@@U1@@std@@YAPAUInventorySelectItem@@PAU1@00AAV?$allocator@UInventorySelectItem@@@0@0U_Nonscalar_ptr_iterator_tag@0@@Z PROC ; std::_Uninit_move<InventorySelectItem *,InventorySelectItem *,std::allocator<InventorySelectItem>,InventorySelectItem>, COMDAT

; 424  : 	{	// move [_First, _Last) to raw _Dest, using _Al, arbitrary type

  00000	6a 08		 push	 8
  00002	b8 00 00 00 00	 mov	 eax, __ehhandler$??$_Uninit_move@PAUInventorySelectItem@@PAU1@V?$allocator@UInventorySelectItem@@@std@@U1@@std@@YAPAUInventorySelectItem@@PAU1@00AAV?$allocator@UInventorySelectItem@@@0@0U_Nonscalar_ptr_iterator_tag@0@@Z
  00007	e8 00 00 00 00	 call	 __EH_prolog3_catch

; 425  : 	_DEBUG_RANGE(_First, _Last);
; 426  : 	_DEBUG_POINTER(_Dest);
; 427  : 	_FwdIt _Next = _Dest;

  0000c	8b 45 10	 mov	 eax, DWORD PTR __Dest$[ebp]

; 428  : 
; 429  : 	_TRY_BEGIN

  0000f	83 65 fc 00	 and	 DWORD PTR __$EHRec$[ebp+12], 0
  00013	8b 75 08	 mov	 esi, DWORD PTR __First$[ebp]
  00016	89 45 ec	 mov	 DWORD PTR __Next$[ebp], eax
$LL6@Uninit_mov:

; 430  : 	for (; _First != _Last; ++_Dest, ++_First)

  00019	3b 75 0c	 cmp	 esi, DWORD PTR __Last$[ebp]
  0001c	74 35		 je	 SHORT $LN4@Uninit_mov

; 431  : 		_Cons_val(_Al, _Dest, (_Valty &&)*_First);

  0001e	56		 push	 esi
  0001f	ff 75 10	 push	 DWORD PTR __Dest$[ebp]
  00022	ff 75 14	 push	 DWORD PTR __Al$[ebp]
  00025	e8 00 00 00 00	 call	 ??$_Cons_val@V?$allocator@UInventorySelectItem@@@std@@UInventorySelectItem@@U3@@std@@YAXAAV?$allocator@UInventorySelectItem@@@0@PAUInventorySelectItem@@$$QAU2@@Z ; std::_Cons_val<std::allocator<InventorySelectItem>,InventorySelectItem,InventorySelectItem>
  0002a	83 45 10 54	 add	 DWORD PTR __Dest$[ebp], 84 ; 00000054H
  0002e	83 c4 0c	 add	 esp, 12			; 0000000cH
  00031	83 c6 54	 add	 esi, 84			; 00000054H
  00034	eb e3		 jmp	 SHORT $LL6@Uninit_mov
__catch$??$_Uninit_move@PAUInventorySelectItem@@PAU1@V?$allocator@UInventorySelectItem@@@std@@U1@@std@@YAPAUInventorySelectItem@@PAU1@00AAV?$allocator@UInventorySelectItem@@@0@0U_Nonscalar_ptr_iterator_tag@0@@Z$0:

; 432  : 	_CATCH_ALL
; 433  : 	for (; _Next != _Dest; ++_Next)

  00036	8b 75 ec	 mov	 esi, DWORD PTR __Next$[ebp]
  00039	eb 0a		 jmp	 SHORT $LN29@Uninit_mov
$LL3@Uninit_mov:

; 434  : 		_Dest_val(_Al, _Next);

  0003b	8b ce		 mov	 ecx, esi
  0003d	e8 00 00 00 00	 call	 ??1InventorySelectItem@@QAE@XZ
  00042	83 c6 54	 add	 esi, 84			; 00000054H
$LN29@Uninit_mov:

; 432  : 	_CATCH_ALL
; 433  : 	for (; _Next != _Dest; ++_Next)

  00045	3b 75 10	 cmp	 esi, DWORD PTR __Dest$[ebp]
  00048	75 f1		 jne	 SHORT $LL3@Uninit_mov

; 435  : 	_RERAISE;

  0004a	6a 00		 push	 0
  0004c	6a 00		 push	 0
  0004e	e8 00 00 00 00	 call	 __CxxThrowException@8
$LN30@Uninit_mov:
$LN4@Uninit_mov:

; 436  : 	_CATCH_END
; 437  : 	return (_Dest);

  00053	8b 45 10	 mov	 eax, DWORD PTR __Dest$[ebp]

; 438  : 	}

  00056	e8 00 00 00 00	 call	 __EH_epilog3
  0005b	c3		 ret	 0
$LN28@Uninit_mov:
_TEXT	ENDS
;	COMDAT text$x
text$x	SEGMENT
__ehhandler$??$_Uninit_move@PAUInventorySelectItem@@PAU1@V?$allocator@UInventorySelectItem@@@std@@U1@@std@@YAPAUInventorySelectItem@@PAU1@00AAV?$allocator@UInventorySelectItem@@@0@0U_Nonscalar_ptr_iterator_tag@0@@Z:
  00000	8b 54 24 08	 mov	 edx, DWORD PTR [esp+8]
  00004	8d 42 0c	 lea	 eax, DWORD PTR [edx+12]
  00007	8b 4a e8	 mov	 ecx, DWORD PTR [edx-24]
  0000a	33 c8		 xor	 ecx, eax
  0000c	e8 00 00 00 00	 call	 @__security_check_cookie@4
  00011	b8 00 00 00 00	 mov	 eax, OFFSET __ehfuncinfo$??$_Uninit_move@PAUInventorySelectItem@@PAU1@V?$allocator@UInventorySelectItem@@@std@@U1@@std@@YAPAUInventorySelectItem@@PAU1@00AAV?$allocator@UInventorySelectItem@@@0@0U_Nonscalar_ptr_iterator_tag@0@@Z
  00016	e9 00 00 00 00	 jmp	 ___CxxFrameHandler3
text$x	ENDS
??$_Uninit_move@PAUInventorySelectItem@@PAU1@V?$allocator@UInventorySelectItem@@@std@@U1@@std@@YAPAUInventorySelectItem@@PAU1@00AAV?$allocator@UInventorySelectItem@@@0@0U_Nonscalar_ptr_iterator_tag@0@@Z ENDP ; std::_Uninit_move<InventorySelectItem *,InventorySelectItem *,std::allocator<InventorySelectItem>,InventorySelectItem>
PUBLIC	??1?$basic_string@DU?$char_traits@D@std@@V?$allocator@D@2@@std@@QAE@XZ ; std::basic_string<char,std::char_traits<char>,std::allocator<char> >::~basic_string<char,std::char_traits<char>,std::allocator<char> >
; Function compile flags: /Ogsp
; File c:\program files (x86)\microsoft visual studio 10.0\vc\include\xstring
;	COMDAT ??1?$basic_string@DU?$char_traits@D@std@@V?$allocator@D@2@@std@@QAE@XZ
_TEXT	SEGMENT
??1?$basic_string@DU?$char_traits@D@std@@V?$allocator@D@2@@std@@QAE@XZ PROC ; std::basic_string<char,std::char_traits<char>,std::allocator<char> >::~basic_string<char,std::char_traits<char>,std::allocator<char> >, COMDAT
; _this$ = ecx

; 754  : 		_Tidy(true);

  00000	6a 00		 push	 0
  00002	6a 01		 push	 1
  00004	e8 00 00 00 00	 call	 ?_Tidy@?$basic_string@DU?$char_traits@D@std@@V?$allocator@D@2@@std@@QAEX_NI@Z ; std::basic_string<char,std::char_traits<char>,std::allocator<char> >::_Tidy

; 755  : 		}

  00009	c3		 ret	 0
??1?$basic_string@DU?$char_traits@D@std@@V?$allocator@D@2@@std@@QAE@XZ ENDP ; std::basic_string<char,std::char_traits<char>,std::allocator<char> >::~basic_string<char,std::char_traits<char>,std::allocator<char> >
_TEXT	ENDS
PUBLIC	?_Grow@?$basic_string@DU?$char_traits@D@std@@V?$allocator@D@2@@std@@QAE_NI_N@Z ; std::basic_string<char,std::char_traits<char>,std::allocator<char> >::_Grow
; Function compile flags: /Ogsp
;	COMDAT ?_Grow@?$basic_string@DU?$char_traits@D@std@@V?$allocator@D@2@@std@@QAE_NI_N@Z
_TEXT	SEGMENT
__Newsize$ = 8						; size = 4
__Trim$ = 12						; size = 1
?_Grow@?$basic_string@DU?$char_traits@D@std@@V?$allocator@D@2@@std@@QAE_NI_N@Z PROC ; std::basic_string<char,std::char_traits<char>,std::allocator<char> >::_Grow, COMDAT
; _this$ = ecx

; 1959 : 		{	// ensure buffer is big enough, trim to size if _Trim is true

  00000	55		 push	 ebp
  00001	8b ec		 mov	 ebp, esp
  00003	56		 push	 esi

; 1960 : 		if (max_size() < _Newsize)

  00004	8b 75 08	 mov	 esi, DWORD PTR __Newsize$[ebp]
  00007	83 fe fe	 cmp	 esi, -2			; fffffffeH
  0000a	76 0b		 jbe	 SHORT $LN6@Grow

; 1961 : 			_Xlen();	// result too long

  0000c	68 00 00 00 00	 push	 OFFSET ??_C@_0BA@JFNIOLAK@string?5too?5long?$AA@
  00011	ff 15 00 00 00
	00		 call	 DWORD PTR __imp_?_Xlength_error@std@@YAXPBD@Z
$LN31@Grow:
$LN6@Grow:

; 1962 : 		if (this->_Myres < _Newsize)

  00017	8b 41 14	 mov	 eax, DWORD PTR [ecx+20]
  0001a	3b c6		 cmp	 eax, esi
  0001c	73 0b		 jae	 SHORT $LN5@Grow

; 1963 : 			_Copy(_Newsize, this->_Mysize);	// reallocate to grow

  0001e	ff 71 10	 push	 DWORD PTR [ecx+16]
  00021	56		 push	 esi
  00022	e8 00 00 00 00	 call	 ?_Copy@?$basic_string@DU?$char_traits@D@std@@V?$allocator@D@2@@std@@QAEXII@Z ; std::basic_string<char,std::char_traits<char>,std::allocator<char> >::_Copy
  00027	eb 2e		 jmp	 SHORT $LN28@Grow
$LN5@Grow:

; 1964 : 		else if (_Trim && _Newsize < this->_BUF_SIZE)

  00029	33 d2		 xor	 edx, edx
  0002b	38 55 0c	 cmp	 BYTE PTR __Trim$[ebp], dl
  0002e	74 17		 je	 SHORT $LN3@Grow
  00030	83 fe 10	 cmp	 esi, 16			; 00000010H
  00033	73 12		 jae	 SHORT $LN3@Grow

; 1965 : 			_Tidy(true,	// copy and deallocate if trimming to small string
; 1966 : 				_Newsize < this->_Mysize ? _Newsize : this->_Mysize);

  00035	8b 41 10	 mov	 eax, DWORD PTR [ecx+16]
  00038	3b f0		 cmp	 esi, eax
  0003a	0f 42 c6	 cmovb	 eax, esi
  0003d	50		 push	 eax
  0003e	6a 01		 push	 1
  00040	e8 00 00 00 00	 call	 ?_Tidy@?$basic_string@DU?$char_traits@D@std@@V?$allocator@D@2@@std@@QAEX_NI@Z ; std::basic_string<char,std::char_traits<char>,std::allocator<char> >::_Tidy
  00045	eb 10		 jmp	 SHORT $LN28@Grow
$LN3@Grow:

; 1967 : 		else if (_Newsize == 0)

  00047	3b f2		 cmp	 esi, edx
  00049	75 0c		 jne	 SHORT $LN28@Grow

; 1968 : 			_Eos(0);	// new size is zero, just null terminate

  0004b	89 51 10	 mov	 DWORD PTR [ecx+16], edx
  0004e	83 f8 10	 cmp	 eax, 16			; 00000010H
  00051	72 02		 jb	 SHORT $LN26@Grow
  00053	8b 09		 mov	 ecx, DWORD PTR [ecx]
$LN26@Grow:
  00055	88 11		 mov	 BYTE PTR [ecx], dl
$LN28@Grow:

; 1969 : 		return (0 < _Newsize);	// return true only if more work to do

  00057	33 c0		 xor	 eax, eax
  00059	3b c6		 cmp	 eax, esi
  0005b	1b c0		 sbb	 eax, eax
  0005d	f7 d8		 neg	 eax
  0005f	5e		 pop	 esi

; 1970 : 		}

  00060	5d		 pop	 ebp
  00061	c2 08 00	 ret	 8
$LN30@Grow:
?_Grow@?$basic_string@DU?$char_traits@D@std@@V?$allocator@D@2@@std@@QAE_NI_N@Z ENDP ; std::basic_string<char,std::char_traits<char>,std::allocator<char> >::_Grow
_TEXT	ENDS
PUBLIC	??$_Dest_val@V?$allocator@VioHashString@@@std@@VioHashString@@@std@@YAXAAV?$allocator@VioHashString@@@0@PAVioHashString@@@Z ; std::_Dest_val<std::allocator<ioHashString>,ioHashString>
; Function compile flags: /Ogsp
; File c:\program files (x86)\microsoft visual studio 10.0\vc\include\xmemory
;	COMDAT ??$_Dest_val@V?$allocator@VioHashString@@@std@@VioHashString@@@std@@YAXAAV?$allocator@VioHashString@@@0@PAVioHashString@@@Z
_TEXT	SEGMENT
__Alval$ = 8						; size = 4
__Pdest$ = 12						; size = 4
??$_Dest_val@V?$allocator@VioHashString@@@std@@VioHashString@@@std@@YAXAAV?$allocator@VioHashString@@@0@PAVioHashString@@@Z PROC ; std::_Dest_val<std::allocator<ioHashString>,ioHashString>, COMDAT

; 286  : 	{	// destroy using allocator

  00000	55		 push	 ebp
  00001	8b ec		 mov	 ebp, esp

; 287  : 	_Alval.destroy(_Pdest);

  00003	8b 4d 0c	 mov	 ecx, DWORD PTR __Pdest$[ebp]

; 288  : 	}

  00006	5d		 pop	 ebp

; 287  : 	_Alval.destroy(_Pdest);

  00007	ff 25 00 00 00
	00		 jmp	 DWORD PTR __imp_??1ioHashString@@QAE@XZ
??$_Dest_val@V?$allocator@VioHashString@@@std@@VioHashString@@@std@@YAXAAV?$allocator@VioHashString@@@0@PAVioHashString@@@Z ENDP ; std::_Dest_val<std::allocator<ioHashString>,ioHashString>
_TEXT	ENDS
PUBLIC	??$_Destroy_range@V?$allocator@UInventorySelectItem@@@std@@@std@@YAXPAUInventorySelectItem@@0AAV?$allocator@UInventorySelectItem@@@0@U_Nonscalar_ptr_iterator_tag@0@@Z ; std::_Destroy_range<std::allocator<InventorySelectItem> >
; Function compile flags: /Ogsp
;	COMDAT ??$_Destroy_range@V?$allocator@UInventorySelectItem@@@std@@@std@@YAXPAUInventorySelectItem@@0AAV?$allocator@UInventorySelectItem@@@0@U_Nonscalar_ptr_iterator_tag@0@@Z
_TEXT	SEGMENT
__First$ = 8						; size = 4
__Last$ = 12						; size = 4
__Al$ = 16						; size = 4
___formal$ = 20						; size = 1
??$_Destroy_range@V?$allocator@UInventorySelectItem@@@std@@@std@@YAXPAUInventorySelectItem@@0AAV?$allocator@UInventorySelectItem@@@0@U_Nonscalar_ptr_iterator_tag@0@@Z PROC ; std::_Destroy_range<std::allocator<InventorySelectItem> >, COMDAT

; 95   : 	{	// destroy [_First, _Last), arbitrary type

  00000	55		 push	 ebp
  00001	8b ec		 mov	 ebp, esp
  00003	56		 push	 esi

; 96   : 	for (; _First != _Last; ++_First)

  00004	8b 75 08	 mov	 esi, DWORD PTR __First$[ebp]
  00007	eb 0a		 jmp	 SHORT $LN17@Destroy_ra
$LL3@Destroy_ra:

; 97   : 		_Dest_val(_Al, _First);

  00009	8b ce		 mov	 ecx, esi
  0000b	e8 00 00 00 00	 call	 ??1InventorySelectItem@@QAE@XZ
  00010	83 c6 54	 add	 esi, 84			; 00000054H
$LN17@Destroy_ra:

; 96   : 	for (; _First != _Last; ++_First)

  00013	3b 75 0c	 cmp	 esi, DWORD PTR __Last$[ebp]
  00016	75 f1		 jne	 SHORT $LL3@Destroy_ra
  00018	5e		 pop	 esi

; 98   : 	}

  00019	5d		 pop	 ebp
  0001a	c3		 ret	 0
??$_Destroy_range@V?$allocator@UInventorySelectItem@@@std@@@std@@YAXPAUInventorySelectItem@@0AAV?$allocator@UInventorySelectItem@@@0@U_Nonscalar_ptr_iterator_tag@0@@Z ENDP ; std::_Destroy_range<std::allocator<InventorySelectItem> >
_TEXT	ENDS
PUBLIC	??$_Uninitialized_move@PAUInventorySelectItem@@PAU1@V?$allocator@UInventorySelectItem@@@std@@@std@@YAPAUInventorySelectItem@@PAU1@00AAV?$allocator@UInventorySelectItem@@@0@@Z ; std::_Uninitialized_move<InventorySelectItem *,InventorySelectItem *,std::allocator<InventorySelectItem> >
; Function compile flags: /Ogsp
; File c:\program files (x86)\microsoft visual studio 10.0\vc\include\memory
;	COMDAT ??$_Uninitialized_move@PAUInventorySelectItem@@PAU1@V?$allocator@UInventorySelectItem@@@std@@@std@@YAPAUInventorySelectItem@@PAU1@00AAV?$allocator@UInventorySelectItem@@@0@@Z
_TEXT	SEGMENT
__Cat$510441 = -4					; size = 1
__First$ = 8						; size = 4
__Last$ = 12						; size = 4
__Dest$ = 16						; size = 4
__Al$ = 20						; size = 4
??$_Uninitialized_move@PAUInventorySelectItem@@PAU1@V?$allocator@UInventorySelectItem@@@std@@@std@@YAPAUInventorySelectItem@@PAU1@00AAV?$allocator@UInventorySelectItem@@@0@@Z PROC ; std::_Uninitialized_move<InventorySelectItem *,InventorySelectItem *,std::allocator<InventorySelectItem> >, COMDAT

; 469  : 	{	// move [_First, _Last) to raw _Dest, using _Al

  00000	55		 push	 ebp
  00001	8b ec		 mov	 ebp, esp
  00003	51		 push	 ecx

; 470  : 	return (_Uninit_move(_First, _Last, _Dest, _Al,
; 471  : 		_Val_type(_First), _Ptr_cat(_First, _Dest)));

  00004	ff 75 fc	 push	 DWORD PTR __Cat$510441[ebp]
  00007	6a 00		 push	 0
  00009	ff 75 14	 push	 DWORD PTR __Al$[ebp]
  0000c	ff 75 10	 push	 DWORD PTR __Dest$[ebp]
  0000f	ff 75 0c	 push	 DWORD PTR __Last$[ebp]
  00012	ff 75 08	 push	 DWORD PTR __First$[ebp]
  00015	e8 00 00 00 00	 call	 ??$_Uninit_move@PAUInventorySelectItem@@PAU1@V?$allocator@UInventorySelectItem@@@std@@U1@@std@@YAPAUInventorySelectItem@@PAU1@00AAV?$allocator@UInventorySelectItem@@@0@0U_Nonscalar_ptr_iterator_tag@0@@Z ; std::_Uninit_move<InventorySelectItem *,InventorySelectItem *,std::allocator<InventorySelectItem>,InventorySelectItem>
  0001a	83 c4 18	 add	 esp, 24			; 00000018H

; 472  : 	}

  0001d	c9		 leave
  0001e	c3		 ret	 0
??$_Uninitialized_move@PAUInventorySelectItem@@PAU1@V?$allocator@UInventorySelectItem@@@std@@@std@@YAPAUInventorySelectItem@@PAU1@00AAV?$allocator@UInventorySelectItem@@@0@@Z ENDP ; std::_Uninitialized_move<InventorySelectItem *,InventorySelectItem *,std::allocator<InventorySelectItem> >
_TEXT	ENDS
PUBLIC	??$_Uninit_copy@V?$_Vector_const_iterator@V?$_Vector_val@UInventorySelectItem@@V?$allocator@UInventorySelectItem@@@std@@@std@@@std@@PAUInventorySelectItem@@V?$allocator@UInventorySelectItem@@@2@@std@@YAPAUInventorySelectItem@@V?$_Vector_const_iterator@V?$_Vector_val@UInventorySelectItem@@V?$allocator@UInventorySelectItem@@@std@@@std@@@0@0PAU1@AAV?$allocator@UInventorySelectItem@@@0@U_Nonscalar_ptr_iterator_tag@0@@Z ; std::_Uninit_copy<std::_Vector_const_iterator<std::_Vector_val<InventorySelectItem,std::allocator<InventorySelectItem> > >,InventorySelectItem *,std::allocator<InventorySelectItem> >
;	COMDAT xdata$x
; File c:\program files (x86)\microsoft visual studio 10.0\vc\include\xmemory
xdata$x	SEGMENT
__catchsym$??$_Uninit_copy@V?$_Vector_const_iterator@V?$_Vector_val@UInventorySelectItem@@V?$allocator@UInventorySelectItem@@@std@@@std@@@std@@PAUInventorySelectItem@@V?$allocator@UInventorySelectItem@@@2@@std@@YAPAUInventorySelectItem@@V?$_Vector_const_iterator@V?$_Vector_val@UInventorySelectItem@@V?$allocator@UInventorySelectItem@@@std@@@std@@@0@0PAU1@AAV?$allocator@UInventorySelectItem@@@0@U_Nonscalar_ptr_iterator_tag@0@@Z$2 DD 040H
	DD	00H
	DD	00H
	DD	FLAT:__catch$??$_Uninit_copy@V?$_Vector_const_iterator@V?$_Vector_val@UInventorySelectItem@@V?$allocator@UInventorySelectItem@@@std@@@std@@@std@@PAUInventorySelectItem@@V?$allocator@UInventorySelectItem@@@2@@std@@YAPAUInventorySelectItem@@V?$_Vector_const_iterator@V?$_Vector_val@UInventorySelectItem@@V?$allocator@UInventorySelectItem@@@std@@@std@@@0@0PAU1@AAV?$allocator@UInventorySelectItem@@@0@U_Nonscalar_ptr_iterator_tag@0@@Z$0
__unwindtable$??$_Uninit_copy@V?$_Vector_const_iterator@V?$_Vector_val@UInventorySelectItem@@V?$allocator@UInventorySelectItem@@@std@@@std@@@std@@PAUInventorySelectItem@@V?$allocator@UInventorySelectItem@@@2@@std@@YAPAUInventorySelectItem@@V?$_Vector_const_iterator@V?$_Vector_val@UInventorySelectItem@@V?$allocator@UInventorySelectItem@@@std@@@std@@@0@0PAU1@AAV?$allocator@UInventorySelectItem@@@0@U_Nonscalar_ptr_iterator_tag@0@@Z DD 0ffffffffH
	DD	00H
	DD	0ffffffffH
	DD	00H
__tryblocktable$??$_Uninit_copy@V?$_Vector_const_iterator@V?$_Vector_val@UInventorySelectItem@@V?$allocator@UInventorySelectItem@@@std@@@std@@@std@@PAUInventorySelectItem@@V?$allocator@UInventorySelectItem@@@2@@std@@YAPAUInventorySelectItem@@V?$_Vector_const_iterator@V?$_Vector_val@UInventorySelectItem@@V?$allocator@UInventorySelectItem@@@std@@@std@@@0@0PAU1@AAV?$allocator@UInventorySelectItem@@@0@U_Nonscalar_ptr_iterator_tag@0@@Z DD 00H
	DD	00H
	DD	01H
	DD	01H
	DD	FLAT:__catchsym$??$_Uninit_copy@V?$_Vector_const_iterator@V?$_Vector_val@UInventorySelectItem@@V?$allocator@UInventorySelectItem@@@std@@@std@@@std@@PAUInventorySelectItem@@V?$allocator@UInventorySelectItem@@@2@@std@@YAPAUInventorySelectItem@@V?$_Vector_const_iterator@V?$_Vector_val@UInventorySelectItem@@V?$allocator@UInventorySelectItem@@@std@@@std@@@0@0PAU1@AAV?$allocator@UInventorySelectItem@@@0@U_Nonscalar_ptr_iterator_tag@0@@Z$2
__ehfuncinfo$??$_Uninit_copy@V?$_Vector_const_iterator@V?$_Vector_val@UInventorySelectItem@@V?$allocator@UInventorySelectItem@@@std@@@std@@@std@@PAUInventorySelectItem@@V?$allocator@UInventorySelectItem@@@2@@std@@YAPAUInventorySelectItem@@V?$_Vector_const_iterator@V?$_Vector_val@UInventorySelectItem@@V?$allocator@UInventorySelectItem@@@std@@@std@@@0@0PAU1@AAV?$allocator@UInventorySelectItem@@@0@U_Nonscalar_ptr_iterator_tag@0@@Z DD 019930522H
	DD	02H
	DD	FLAT:__unwindtable$??$_Uninit_copy@V?$_Vector_const_iterator@V?$_Vector_val@UInventorySelectItem@@V?$allocator@UInventorySelectItem@@@std@@@std@@@std@@PAUInventorySelectItem@@V?$allocator@UInventorySelectItem@@@2@@std@@YAPAUInventorySelectItem@@V?$_Vector_const_iterator@V?$_Vector_val@UInventorySelectItem@@V?$allocator@UInventorySelectItem@@@std@@@std@@@0@0PAU1@AAV?$allocator@UInventorySelectItem@@@0@U_Nonscalar_ptr_iterator_tag@0@@Z
	DD	01H
	DD	FLAT:__tryblocktable$??$_Uninit_copy@V?$_Vector_const_iterator@V?$_Vector_val@UInventorySelectItem@@V?$allocator@UInventorySelectItem@@@std@@@std@@@std@@PAUInventorySelectItem@@V?$allocator@UInventorySelectItem@@@2@@std@@YAPAUInventorySelectItem@@V?$_Vector_const_iterator@V?$_Vector_val@UInventorySelectItem@@V?$allocator@UInventorySelectItem@@@std@@@std@@@0@0PAU1@AAV?$allocator@UInventorySelectItem@@@0@U_Nonscalar_ptr_iterator_tag@0@@Z
	DD	2 DUP(00H)
	DD	00H
	DD	01H
; Function compile flags: /Ogsp
; File c:\program files (x86)\microsoft visual studio 10.0\vc\include\memory
xdata$x	ENDS
;	COMDAT ??$_Uninit_copy@V?$_Vector_const_iterator@V?$_Vector_val@UInventorySelectItem@@V?$allocator@UInventorySelectItem@@@std@@@std@@@std@@PAUInventorySelectItem@@V?$allocator@UInventorySelectItem@@@2@@std@@YAPAUInventorySelectItem@@V?$_Vector_const_iterator@V?$_Vector_val@UInventorySelectItem@@V?$allocator@UInventorySelectItem@@@std@@@std@@@0@0PAU1@AAV?$allocator@UInventorySelectItem@@@0@U_Nonscalar_ptr_iterator_tag@0@@Z
_TEXT	SEGMENT
__Next$ = -20						; size = 4
__$EHRec$ = -16						; size = 16
__First$ = 8						; size = 4
__Last$ = 12						; size = 4
__Dest$ = 16						; size = 4
__Al$ = 20						; size = 4
___formal$ = 24						; size = 1
??$_Uninit_copy@V?$_Vector_const_iterator@V?$_Vector_val@UInventorySelectItem@@V?$allocator@UInventorySelectItem@@@std@@@std@@@std@@PAUInventorySelectItem@@V?$allocator@UInventorySelectItem@@@2@@std@@YAPAUInventorySelectItem@@V?$_Vector_const_iterator@V?$_Vector_val@UInventorySelectItem@@V?$allocator@UInventorySelectItem@@@std@@@std@@@0@0PAU1@AAV?$allocator@UInventorySelectItem@@@0@U_Nonscalar_ptr_iterator_tag@0@@Z PROC ; std::_Uninit_copy<std::_Vector_const_iterator<std::_Vector_val<InventorySelectItem,std::allocator<InventorySelectItem> > >,InventorySelectItem *,std::allocator<InventorySelectItem> >, COMDAT

; 369  : 	{	// copy [_First, _Last) to raw _Dest, using _Al, arbitrary type

  00000	6a 08		 push	 8
  00002	b8 00 00 00 00	 mov	 eax, __ehhandler$??$_Uninit_copy@V?$_Vector_const_iterator@V?$_Vector_val@UInventorySelectItem@@V?$allocator@UInventorySelectItem@@@std@@@std@@@std@@PAUInventorySelectItem@@V?$allocator@UInventorySelectItem@@@2@@std@@YAPAUInventorySelectItem@@V?$_Vector_const_iterator@V?$_Vector_val@UInventorySelectItem@@V?$allocator@UInventorySelectItem@@@std@@@std@@@0@0PAU1@AAV?$allocator@UInventorySelectItem@@@0@U_Nonscalar_ptr_iterator_tag@0@@Z
  00007	e8 00 00 00 00	 call	 __EH_prolog3_catch

; 370  : 	_DEBUG_RANGE(_First, _Last);
; 371  : 	_DEBUG_POINTER(_Dest);
; 372  : 	_FwdIt _Next = _Dest;

  0000c	8b 45 10	 mov	 eax, DWORD PTR __Dest$[ebp]

; 373  : 
; 374  : 	_TRY_BEGIN

  0000f	83 65 fc 00	 and	 DWORD PTR __$EHRec$[ebp+12], 0
  00013	89 45 ec	 mov	 DWORD PTR __Next$[ebp], eax

; 375  : 	for (; _First != _Last; ++_Dest, ++_First)

$LL14@Uninit_cop:
  00016	8b 45 08	 mov	 eax, DWORD PTR __First$[ebp]
  00019	3b 45 0c	 cmp	 eax, DWORD PTR __Last$[ebp]
  0001c	74 32		 je	 SHORT $LN4@Uninit_cop

; 376  : 		_Cons_val(_Al, _Dest, *_First);

  0001e	50		 push	 eax
  0001f	ff 75 10	 push	 DWORD PTR __Dest$[ebp]
  00022	e8 00 00 00 00	 call	 ??$_Construct@UInventorySelectItem@@ABU1@@std@@YAXPAUInventorySelectItem@@ABU1@@Z ; std::_Construct<InventorySelectItem,InventorySelectItem const &>
  00027	83 45 10 54	 add	 DWORD PTR __Dest$[ebp], 84 ; 00000054H
  0002b	83 45 08 54	 add	 DWORD PTR __First$[ebp], 84 ; 00000054H
  0002f	59		 pop	 ecx
  00030	59		 pop	 ecx
  00031	eb e3		 jmp	 SHORT $LL14@Uninit_cop
__catch$??$_Uninit_copy@V?$_Vector_const_iterator@V?$_Vector_val@UInventorySelectItem@@V?$allocator@UInventorySelectItem@@@std@@@std@@@std@@PAUInventorySelectItem@@V?$allocator@UInventorySelectItem@@@2@@std@@YAPAUInventorySelectItem@@V?$_Vector_const_iterator@V?$_Vector_val@UInventorySelectItem@@V?$allocator@UInventorySelectItem@@@std@@@std@@@0@0PAU1@AAV?$allocator@UInventorySelectItem@@@0@U_Nonscalar_ptr_iterator_tag@0@@Z$0:

; 377  : 	_CATCH_ALL
; 378  : 	for (; _Next != _Dest; ++_Next)

  00033	8b 75 ec	 mov	 esi, DWORD PTR __Next$[ebp]
  00036	eb 0a		 jmp	 SHORT $LN45@Uninit_cop
$LL3@Uninit_cop:

; 379  : 		_Dest_val(_Al, _Next);

  00038	8b ce		 mov	 ecx, esi
  0003a	e8 00 00 00 00	 call	 ??1InventorySelectItem@@QAE@XZ
  0003f	83 c6 54	 add	 esi, 84			; 00000054H
$LN45@Uninit_cop:

; 377  : 	_CATCH_ALL
; 378  : 	for (; _Next != _Dest; ++_Next)

  00042	3b 75 10	 cmp	 esi, DWORD PTR __Dest$[ebp]
  00045	75 f1		 jne	 SHORT $LL3@Uninit_cop

; 380  : 	_RERAISE;

  00047	6a 00		 push	 0
  00049	6a 00		 push	 0
  0004b	e8 00 00 00 00	 call	 __CxxThrowException@8
$LN46@Uninit_cop:
$LN4@Uninit_cop:

; 381  : 	_CATCH_END
; 382  : 	return (_Dest);

  00050	8b 45 10	 mov	 eax, DWORD PTR __Dest$[ebp]

; 383  : 	}

  00053	e8 00 00 00 00	 call	 __EH_epilog3
  00058	c3		 ret	 0
$LN44@Uninit_cop:
_TEXT	ENDS
;	COMDAT text$x
text$x	SEGMENT
__ehhandler$??$_Uninit_copy@V?$_Vector_const_iterator@V?$_Vector_val@UInventorySelectItem@@V?$allocator@UInventorySelectItem@@@std@@@std@@@std@@PAUInventorySelectItem@@V?$allocator@UInventorySelectItem@@@2@@std@@YAPAUInventorySelectItem@@V?$_Vector_const_iterator@V?$_Vector_val@UInventorySelectItem@@V?$allocator@UInventorySelectItem@@@std@@@std@@@0@0PAU1@AAV?$allocator@UInventorySelectItem@@@0@U_Nonscalar_ptr_iterator_tag@0@@Z:
  00000	8b 54 24 08	 mov	 edx, DWORD PTR [esp+8]
  00004	8d 42 0c	 lea	 eax, DWORD PTR [edx+12]
  00007	8b 4a e8	 mov	 ecx, DWORD PTR [edx-24]
  0000a	33 c8		 xor	 ecx, eax
  0000c	e8 00 00 00 00	 call	 @__security_check_cookie@4
  00011	b8 00 00 00 00	 mov	 eax, OFFSET __ehfuncinfo$??$_Uninit_copy@V?$_Vector_const_iterator@V?$_Vector_val@UInventorySelectItem@@V?$allocator@UInventorySelectItem@@@std@@@std@@@std@@PAUInventorySelectItem@@V?$allocator@UInventorySelectItem@@@2@@std@@YAPAUInventorySelectItem@@V?$_Vector_const_iterator@V?$_Vector_val@UInventorySelectItem@@V?$allocator@UInventorySelectItem@@@std@@@std@@@0@0PAU1@AAV?$allocator@UInventorySelectItem@@@0@U_Nonscalar_ptr_iterator_tag@0@@Z
  00016	e9 00 00 00 00	 jmp	 ___CxxFrameHandler3
text$x	ENDS
??$_Uninit_copy@V?$_Vector_const_iterator@V?$_Vector_val@UInventorySelectItem@@V?$allocator@UInventorySelectItem@@@std@@@std@@@std@@PAUInventorySelectItem@@V?$allocator@UInventorySelectItem@@@2@@std@@YAPAUInventorySelectItem@@V?$_Vector_const_iterator@V?$_Vector_val@UInventorySelectItem@@V?$allocator@UInventorySelectItem@@@std@@@std@@@0@0PAU1@AAV?$allocator@UInventorySelectItem@@@0@U_Nonscalar_ptr_iterator_tag@0@@Z ENDP ; std::_Uninit_copy<std::_Vector_const_iterator<std::_Vector_val<InventorySelectItem,std::allocator<InventorySelectItem> > >,InventorySelectItem *,std::allocator<InventorySelectItem> >
PUBLIC	??$_Uninit_copy@PAUInventorySelectItem@@PAU1@V?$allocator@UInventorySelectItem@@@std@@@std@@YAPAUInventorySelectItem@@PAU1@00AAV?$allocator@UInventorySelectItem@@@0@U_Nonscalar_ptr_iterator_tag@0@@Z ; std::_Uninit_copy<InventorySelectItem *,InventorySelectItem *,std::allocator<InventorySelectItem> >
;	COMDAT xdata$x
; File c:\program files (x86)\microsoft visual studio 10.0\vc\include\xmemory
xdata$x	SEGMENT
__catchsym$??$_Uninit_copy@PAUInventorySelectItem@@PAU1@V?$allocator@UInventorySelectItem@@@std@@@std@@YAPAUInventorySelectItem@@PAU1@00AAV?$allocator@UInventorySelectItem@@@0@U_Nonscalar_ptr_iterator_tag@0@@Z$2 DD 040H
	DD	00H
	DD	00H
	DD	FLAT:__catch$??$_Uninit_copy@PAUInventorySelectItem@@PAU1@V?$allocator@UInventorySelectItem@@@std@@@std@@YAPAUInventorySelectItem@@PAU1@00AAV?$allocator@UInventorySelectItem@@@0@U_Nonscalar_ptr_iterator_tag@0@@Z$0
__unwindtable$??$_Uninit_copy@PAUInventorySelectItem@@PAU1@V?$allocator@UInventorySelectItem@@@std@@@std@@YAPAUInventorySelectItem@@PAU1@00AAV?$allocator@UInventorySelectItem@@@0@U_Nonscalar_ptr_iterator_tag@0@@Z DD 0ffffffffH
	DD	00H
	DD	0ffffffffH
	DD	00H
__tryblocktable$??$_Uninit_copy@PAUInventorySelectItem@@PAU1@V?$allocator@UInventorySelectItem@@@std@@@std@@YAPAUInventorySelectItem@@PAU1@00AAV?$allocator@UInventorySelectItem@@@0@U_Nonscalar_ptr_iterator_tag@0@@Z DD 00H
	DD	00H
	DD	01H
	DD	01H
	DD	FLAT:__catchsym$??$_Uninit_copy@PAUInventorySelectItem@@PAU1@V?$allocator@UInventorySelectItem@@@std@@@std@@YAPAUInventorySelectItem@@PAU1@00AAV?$allocator@UInventorySelectItem@@@0@U_Nonscalar_ptr_iterator_tag@0@@Z$2
__ehfuncinfo$??$_Uninit_copy@PAUInventorySelectItem@@PAU1@V?$allocator@UInventorySelectItem@@@std@@@std@@YAPAUInventorySelectItem@@PAU1@00AAV?$allocator@UInventorySelectItem@@@0@U_Nonscalar_ptr_iterator_tag@0@@Z DD 019930522H
	DD	02H
	DD	FLAT:__unwindtable$??$_Uninit_copy@PAUInventorySelectItem@@PAU1@V?$allocator@UInventorySelectItem@@@std@@@std@@YAPAUInventorySelectItem@@PAU1@00AAV?$allocator@UInventorySelectItem@@@0@U_Nonscalar_ptr_iterator_tag@0@@Z
	DD	01H
	DD	FLAT:__tryblocktable$??$_Uninit_copy@PAUInventorySelectItem@@PAU1@V?$allocator@UInventorySelectItem@@@std@@@std@@YAPAUInventorySelectItem@@PAU1@00AAV?$allocator@UInventorySelectItem@@@0@U_Nonscalar_ptr_iterator_tag@0@@Z
	DD	2 DUP(00H)
	DD	00H
	DD	01H
; Function compile flags: /Ogsp
; File c:\program files (x86)\microsoft visual studio 10.0\vc\include\memory
xdata$x	ENDS
;	COMDAT ??$_Uninit_copy@PAUInventorySelectItem@@PAU1@V?$allocator@UInventorySelectItem@@@std@@@std@@YAPAUInventorySelectItem@@PAU1@00AAV?$allocator@UInventorySelectItem@@@0@U_Nonscalar_ptr_iterator_tag@0@@Z
_TEXT	SEGMENT
__Next$ = -20						; size = 4
__$EHRec$ = -16						; size = 16
__First$ = 8						; size = 4
__Last$ = 12						; size = 4
__Dest$ = 16						; size = 4
__Al$ = 20						; size = 4
___formal$ = 24						; size = 1
??$_Uninit_copy@PAUInventorySelectItem@@PAU1@V?$allocator@UInventorySelectItem@@@std@@@std@@YAPAUInventorySelectItem@@PAU1@00AAV?$allocator@UInventorySelectItem@@@0@U_Nonscalar_ptr_iterator_tag@0@@Z PROC ; std::_Uninit_copy<InventorySelectItem *,InventorySelectItem *,std::allocator<InventorySelectItem> >, COMDAT

; 369  : 	{	// copy [_First, _Last) to raw _Dest, using _Al, arbitrary type

  00000	6a 08		 push	 8
  00002	b8 00 00 00 00	 mov	 eax, __ehhandler$??$_Uninit_copy@PAUInventorySelectItem@@PAU1@V?$allocator@UInventorySelectItem@@@std@@@std@@YAPAUInventorySelectItem@@PAU1@00AAV?$allocator@UInventorySelectItem@@@0@U_Nonscalar_ptr_iterator_tag@0@@Z
  00007	e8 00 00 00 00	 call	 __EH_prolog3_catch

; 370  : 	_DEBUG_RANGE(_First, _Last);
; 371  : 	_DEBUG_POINTER(_Dest);
; 372  : 	_FwdIt _Next = _Dest;

  0000c	8b 45 10	 mov	 eax, DWORD PTR __Dest$[ebp]

; 373  : 
; 374  : 	_TRY_BEGIN

  0000f	83 65 fc 00	 and	 DWORD PTR __$EHRec$[ebp+12], 0
  00013	8b 75 08	 mov	 esi, DWORD PTR __First$[ebp]
  00016	89 45 ec	 mov	 DWORD PTR __Next$[ebp], eax
$LL6@Uninit_cop@2:

; 375  : 	for (; _First != _Last; ++_Dest, ++_First)

  00019	3b 75 0c	 cmp	 esi, DWORD PTR __Last$[ebp]
  0001c	74 35		 je	 SHORT $LN4@Uninit_cop@2

; 376  : 		_Cons_val(_Al, _Dest, *_First);

  0001e	56		 push	 esi
  0001f	ff 75 10	 push	 DWORD PTR __Dest$[ebp]
  00022	ff 75 14	 push	 DWORD PTR __Al$[ebp]
  00025	e8 00 00 00 00	 call	 ??$_Cons_val@V?$allocator@UInventorySelectItem@@@std@@UInventorySelectItem@@AAU3@@std@@YAXAAV?$allocator@UInventorySelectItem@@@0@PAUInventorySelectItem@@AAU2@@Z ; std::_Cons_val<std::allocator<InventorySelectItem>,InventorySelectItem,InventorySelectItem &>
  0002a	83 45 10 54	 add	 DWORD PTR __Dest$[ebp], 84 ; 00000054H
  0002e	83 c4 0c	 add	 esp, 12			; 0000000cH
  00031	83 c6 54	 add	 esi, 84			; 00000054H
  00034	eb e3		 jmp	 SHORT $LL6@Uninit_cop@2
__catch$??$_Uninit_copy@PAUInventorySelectItem@@PAU1@V?$allocator@UInventorySelectItem@@@std@@@std@@YAPAUInventorySelectItem@@PAU1@00AAV?$allocator@UInventorySelectItem@@@0@U_Nonscalar_ptr_iterator_tag@0@@Z$0:

; 377  : 	_CATCH_ALL
; 378  : 	for (; _Next != _Dest; ++_Next)

  00036	8b 75 ec	 mov	 esi, DWORD PTR __Next$[ebp]
  00039	eb 0a		 jmp	 SHORT $LN29@Uninit_cop@2
$LL3@Uninit_cop@2:

; 379  : 		_Dest_val(_Al, _Next);

  0003b	8b ce		 mov	 ecx, esi
  0003d	e8 00 00 00 00	 call	 ??1InventorySelectItem@@QAE@XZ
  00042	83 c6 54	 add	 esi, 84			; 00000054H
$LN29@Uninit_cop@2:

; 377  : 	_CATCH_ALL
; 378  : 	for (; _Next != _Dest; ++_Next)

  00045	3b 75 10	 cmp	 esi, DWORD PTR __Dest$[ebp]
  00048	75 f1		 jne	 SHORT $LL3@Uninit_cop@2

; 380  : 	_RERAISE;

  0004a	6a 00		 push	 0
  0004c	6a 00		 push	 0
  0004e	e8 00 00 00 00	 call	 __CxxThrowException@8
$LN30@Uninit_cop@2:
$LN4@Uninit_cop@2:

; 381  : 	_CATCH_END
; 382  : 	return (_Dest);

  00053	8b 45 10	 mov	 eax, DWORD PTR __Dest$[ebp]

; 383  : 	}

  00056	e8 00 00 00 00	 call	 __EH_epilog3
  0005b	c3		 ret	 0
$LN28@Uninit_cop@2:
_TEXT	ENDS
;	COMDAT text$x
text$x	SEGMENT
__ehhandler$??$_Uninit_copy@PAUInventorySelectItem@@PAU1@V?$allocator@UInventorySelectItem@@@std@@@std@@YAPAUInventorySelectItem@@PAU1@00AAV?$allocator@UInventorySelectItem@@@0@U_Nonscalar_ptr_iterator_tag@0@@Z:
  00000	8b 54 24 08	 mov	 edx, DWORD PTR [esp+8]
  00004	8d 42 0c	 lea	 eax, DWORD PTR [edx+12]
  00007	8b 4a e8	 mov	 ecx, DWORD PTR [edx-24]
  0000a	33 c8		 xor	 ecx, eax
  0000c	e8 00 00 00 00	 call	 @__security_check_cookie@4
  00011	b8 00 00 00 00	 mov	 eax, OFFSET __ehfuncinfo$??$_Uninit_copy@PAUInventorySelectItem@@PAU1@V?$allocator@UInventorySelectItem@@@std@@@std@@YAPAUInventorySelectItem@@PAU1@00AAV?$allocator@UInventorySelectItem@@@0@U_Nonscalar_ptr_iterator_tag@0@@Z
  00016	e9 00 00 00 00	 jmp	 ___CxxFrameHandler3
text$x	ENDS
??$_Uninit_copy@PAUInventorySelectItem@@PAU1@V?$allocator@UInventorySelectItem@@@std@@@std@@YAPAUInventorySelectItem@@PAU1@00AAV?$allocator@UInventorySelectItem@@@0@U_Nonscalar_ptr_iterator_tag@0@@Z ENDP ; std::_Uninit_copy<InventorySelectItem *,InventorySelectItem *,std::allocator<InventorySelectItem> >
PUBLIC	?assign@?$basic_string@DU?$char_traits@D@std@@V?$allocator@D@2@@std@@QAEAAV12@ABV12@II@Z ; std::basic_string<char,std::char_traits<char>,std::allocator<char> >::assign
; Function compile flags: /Ogsp
; File c:\program files (x86)\microsoft visual studio 10.0\vc\include\xstring
;	COMDAT ?assign@?$basic_string@DU?$char_traits@D@std@@V?$allocator@D@2@@std@@QAEAAV12@ABV12@II@Z
_TEXT	SEGMENT
__Right$ = 8						; size = 4
__Roff$ = 12						; size = 4
__Count$ = 16						; size = 4
?assign@?$basic_string@DU?$char_traits@D@std@@V?$allocator@D@2@@std@@QAEAAV12@ABV12@II@Z PROC ; std::basic_string<char,std::char_traits<char>,std::allocator<char> >::assign, COMDAT
; _this$ = ecx

; 893  : 		{	// assign _Right [_Roff, _Roff + _Count)

  00000	55		 push	 ebp
  00001	8b ec		 mov	 ebp, esp
  00003	53		 push	 ebx

; 894  : 		if (_Right.size() < _Roff)

  00004	8b 5d 08	 mov	 ebx, DWORD PTR __Right$[ebp]
  00007	8b 43 10	 mov	 eax, DWORD PTR [ebx+16]
  0000a	56		 push	 esi
  0000b	8b f1		 mov	 esi, ecx
  0000d	8b 4d 0c	 mov	 ecx, DWORD PTR __Roff$[ebp]
  00010	57		 push	 edi
  00011	3b c1		 cmp	 eax, ecx
  00013	73 0b		 jae	 SHORT $LN5@assign

; 895  : 			_Xran();	// _Roff off end

  00015	68 00 00 00 00	 push	 OFFSET ??_C@_0BI@CFPLBAOH@invalid?5string?5position?$AA@
  0001a	ff 15 00 00 00
	00		 call	 DWORD PTR __imp_?_Xout_of_range@std@@YAXPBD@Z
$LN34@assign:
$LN5@assign:

; 896  : 		size_type _Num = _Right.size() - _Roff;

  00020	2b c1		 sub	 eax, ecx
  00022	8b f8		 mov	 edi, eax

; 897  : 		if (_Count < _Num)

  00024	39 7d 10	 cmp	 DWORD PTR __Count$[ebp], edi

; 898  : 			_Num = _Count;	// trim _Num to size

  00027	0f 42 7d 10	 cmovb	 edi, DWORD PTR __Count$[ebp]

; 899  : 
; 900  : 		if (this == &_Right)

  0002b	3b f3		 cmp	 esi, ebx
  0002d	75 1a		 jne	 SHORT $LN3@assign

; 901  : 			erase((size_type)(_Roff + _Num)), erase(0, _Roff);	// substring

  0002f	03 f9		 add	 edi, ecx
  00031	6a ff		 push	 -1
  00033	57		 push	 edi
  00034	8b ce		 mov	 ecx, esi
  00036	e8 00 00 00 00	 call	 ?erase@?$basic_string@DU?$char_traits@D@std@@V?$allocator@D@2@@std@@QAEAAV12@II@Z ; std::basic_string<char,std::char_traits<char>,std::allocator<char> >::erase
  0003b	ff 75 0c	 push	 DWORD PTR __Roff$[ebp]
  0003e	8b ce		 mov	 ecx, esi
  00040	6a 00		 push	 0
  00042	e8 00 00 00 00	 call	 ?erase@?$basic_string@DU?$char_traits@D@std@@V?$allocator@D@2@@std@@QAEAAV12@II@Z ; std::basic_string<char,std::char_traits<char>,std::allocator<char> >::erase
  00047	eb 47		 jmp	 SHORT $LN31@assign
$LN3@assign:

; 902  : 		else if (_Grow(_Num))

  00049	6a 00		 push	 0
  0004b	57		 push	 edi
  0004c	8b ce		 mov	 ecx, esi
  0004e	e8 00 00 00 00	 call	 ?_Grow@?$basic_string@DU?$char_traits@D@std@@V?$allocator@D@2@@std@@QAE_NI_N@Z ; std::basic_string<char,std::char_traits<char>,std::allocator<char> >::_Grow
  00053	84 c0		 test	 al, al
  00055	74 39		 je	 SHORT $LN31@assign

; 903  : 			{	// make room and assign new stuff
; 904  : 			_Traits::copy(_Myptr(), _Right._Myptr() + _Roff, _Num);

  00057	83 7b 14 10	 cmp	 DWORD PTR [ebx+20], 16	; 00000010H
  0005b	72 04		 jb	 SHORT $LN17@assign
  0005d	8b 03		 mov	 eax, DWORD PTR [ebx]
  0005f	eb 02		 jmp	 SHORT $LN18@assign
$LN17@assign:
  00061	8b c3		 mov	 eax, ebx
$LN18@assign:
  00063	83 7e 14 10	 cmp	 DWORD PTR [esi+20], 16	; 00000010H
  00067	72 04		 jb	 SHORT $LN21@assign
  00069	8b 0e		 mov	 ecx, DWORD PTR [esi]
  0006b	eb 02		 jmp	 SHORT $LN22@assign
$LN21@assign:
  0006d	8b ce		 mov	 ecx, esi
$LN22@assign:
  0006f	03 45 0c	 add	 eax, DWORD PTR __Roff$[ebp]
  00072	57		 push	 edi
  00073	50		 push	 eax
  00074	51		 push	 ecx
  00075	e8 00 00 00 00	 call	 _memcpy
  0007a	83 c4 0c	 add	 esp, 12			; 0000000cH

; 905  : 			_Eos(_Num);

  0007d	83 7e 14 10	 cmp	 DWORD PTR [esi+20], 16	; 00000010H
  00081	89 7e 10	 mov	 DWORD PTR [esi+16], edi
  00084	72 04		 jb	 SHORT $LN29@assign
  00086	8b 06		 mov	 eax, DWORD PTR [esi]
  00088	eb 02		 jmp	 SHORT $LN30@assign
$LN29@assign:
  0008a	8b c6		 mov	 eax, esi
$LN30@assign:
  0008c	c6 04 38 00	 mov	 BYTE PTR [eax+edi], 0
$LN31@assign:

; 906  : 			}
; 907  : 		return (*this);

  00090	5f		 pop	 edi
  00091	8b c6		 mov	 eax, esi
  00093	5e		 pop	 esi
  00094	5b		 pop	 ebx

; 908  : 		}

  00095	5d		 pop	 ebp
  00096	c2 0c 00	 ret	 12			; 0000000cH
$LN33@assign:
?assign@?$basic_string@DU?$char_traits@D@std@@V?$allocator@D@2@@std@@QAEAAV12@ABV12@II@Z ENDP ; std::basic_string<char,std::char_traits<char>,std::allocator<char> >::assign
_TEXT	ENDS
PUBLIC	?assign@?$basic_string@DU?$char_traits@D@std@@V?$allocator@D@2@@std@@QAEAAV12@PBDI@Z ; std::basic_string<char,std::char_traits<char>,std::allocator<char> >::assign
; Function compile flags: /Ogsp
;	COMDAT ?assign@?$basic_string@DU?$char_traits@D@std@@V?$allocator@D@2@@std@@QAEAAV12@PBDI@Z
_TEXT	SEGMENT
__Ptr$ = 8						; size = 4
__Count$ = 12						; size = 4
?assign@?$basic_string@DU?$char_traits@D@std@@V?$allocator@D@2@@std@@QAEAAV12@PBDI@Z PROC ; std::basic_string<char,std::char_traits<char>,std::allocator<char> >::assign, COMDAT
; _this$ = ecx

; 911  : 		{	// assign [_Ptr, _Ptr + _Count)

  00000	55		 push	 ebp
  00001	8b ec		 mov	 ebp, esp
  00003	53		 push	 ebx

; 912  :  #if _ITERATOR_DEBUG_LEVEL == 2
; 913  : 		if (_Count != 0)
; 914  : 			_DEBUG_POINTER(_Ptr);
; 915  :  #endif /* _ITERATOR_DEBUG_LEVEL == 2 */
; 916  : 
; 917  : 		if (_Inside(_Ptr))

  00004	8b 5d 08	 mov	 ebx, DWORD PTR __Ptr$[ebp]
  00007	56		 push	 esi
  00008	53		 push	 ebx
  00009	8b f1		 mov	 esi, ecx
  0000b	e8 00 00 00 00	 call	 ?_Inside@?$basic_string@DU?$char_traits@D@std@@V?$allocator@D@2@@std@@QAE_NPBD@Z ; std::basic_string<char,std::char_traits<char>,std::allocator<char> >::_Inside
  00010	84 c0		 test	 al, al
  00012	74 1c		 je	 SHORT $LN2@assign@2

; 918  : 			return (assign(*this, _Ptr - _Myptr(), _Count));	// substring

  00014	83 7e 14 10	 cmp	 DWORD PTR [esi+20], 16	; 00000010H
  00018	72 04		 jb	 SHORT $LN7@assign@2
  0001a	8b 06		 mov	 eax, DWORD PTR [esi]
  0001c	eb 02		 jmp	 SHORT $LN8@assign@2
$LN7@assign@2:
  0001e	8b c6		 mov	 eax, esi
$LN8@assign@2:
  00020	ff 75 0c	 push	 DWORD PTR __Count$[ebp]
  00023	2b d8		 sub	 ebx, eax
  00025	53		 push	 ebx
  00026	56		 push	 esi
  00027	8b ce		 mov	 ecx, esi
  00029	e8 00 00 00 00	 call	 ?assign@?$basic_string@DU?$char_traits@D@std@@V?$allocator@D@2@@std@@QAEAAV12@ABV12@II@Z ; std::basic_string<char,std::char_traits<char>,std::allocator<char> >::assign
  0002e	eb 3f		 jmp	 SHORT $LN3@assign@2
$LN2@assign@2:
  00030	57		 push	 edi

; 919  : 
; 920  : 		if (_Grow(_Count))

  00031	8b 7d 0c	 mov	 edi, DWORD PTR __Count$[ebp]
  00034	6a 00		 push	 0
  00036	57		 push	 edi
  00037	8b ce		 mov	 ecx, esi
  00039	e8 00 00 00 00	 call	 ?_Grow@?$basic_string@DU?$char_traits@D@std@@V?$allocator@D@2@@std@@QAE_NI_N@Z ; std::basic_string<char,std::char_traits<char>,std::allocator<char> >::_Grow
  0003e	84 c0		 test	 al, al
  00040	74 2a		 je	 SHORT $LN21@assign@2

; 921  : 			{	// make room and assign new stuff
; 922  : 			_Traits::copy(_Myptr(), _Ptr, _Count);

  00042	83 7e 14 10	 cmp	 DWORD PTR [esi+20], 16	; 00000010H
  00046	72 04		 jb	 SHORT $LN11@assign@2
  00048	8b 06		 mov	 eax, DWORD PTR [esi]
  0004a	eb 02		 jmp	 SHORT $LN12@assign@2
$LN11@assign@2:
  0004c	8b c6		 mov	 eax, esi
$LN12@assign@2:
  0004e	57		 push	 edi
  0004f	53		 push	 ebx
  00050	50		 push	 eax
  00051	e8 00 00 00 00	 call	 _memcpy
  00056	83 c4 0c	 add	 esp, 12			; 0000000cH

; 923  : 			_Eos(_Count);

  00059	83 7e 14 10	 cmp	 DWORD PTR [esi+20], 16	; 00000010H
  0005d	89 7e 10	 mov	 DWORD PTR [esi+16], edi
  00060	72 04		 jb	 SHORT $LN19@assign@2
  00062	8b 06		 mov	 eax, DWORD PTR [esi]
  00064	eb 02		 jmp	 SHORT $LN20@assign@2
$LN19@assign@2:
  00066	8b c6		 mov	 eax, esi
$LN20@assign@2:
  00068	c6 04 38 00	 mov	 BYTE PTR [eax+edi], 0
$LN21@assign@2:

; 924  : 			}
; 925  : 		return (*this);

  0006c	8b c6		 mov	 eax, esi
  0006e	5f		 pop	 edi
$LN3@assign@2:
  0006f	5e		 pop	 esi
  00070	5b		 pop	 ebx

; 926  : 		}

  00071	5d		 pop	 ebp
  00072	c2 08 00	 ret	 8
?assign@?$basic_string@DU?$char_traits@D@std@@V?$allocator@D@2@@std@@QAEAAV12@PBDI@Z ENDP ; std::basic_string<char,std::char_traits<char>,std::allocator<char> >::assign
_TEXT	ENDS
PUBLIC	??$_Destroy_range@V?$allocator@VioHashString@@@std@@@std@@YAXPAVioHashString@@0AAV?$allocator@VioHashString@@@0@U_Nonscalar_ptr_iterator_tag@0@@Z ; std::_Destroy_range<std::allocator<ioHashString> >
; Function compile flags: /Ogsp
; File c:\program files (x86)\microsoft visual studio 10.0\vc\include\xmemory
;	COMDAT ??$_Destroy_range@V?$allocator@VioHashString@@@std@@@std@@YAXPAVioHashString@@0AAV?$allocator@VioHashString@@@0@U_Nonscalar_ptr_iterator_tag@0@@Z
_TEXT	SEGMENT
__First$ = 8						; size = 4
__Last$ = 12						; size = 4
__Al$ = 16						; size = 4
___formal$ = 20						; size = 1
??$_Destroy_range@V?$allocator@VioHashString@@@std@@@std@@YAXPAVioHashString@@0AAV?$allocator@VioHashString@@@0@U_Nonscalar_ptr_iterator_tag@0@@Z PROC ; std::_Destroy_range<std::allocator<ioHashString> >, COMDAT

; 95   : 	{	// destroy [_First, _Last), arbitrary type

  00000	55		 push	 ebp
  00001	8b ec		 mov	 ebp, esp
  00003	56		 push	 esi

; 96   : 	for (; _First != _Last; ++_First)

  00004	8b 75 08	 mov	 esi, DWORD PTR __First$[ebp]
  00007	eb 0b		 jmp	 SHORT $LN17@Destroy_ra@2
$LL3@Destroy_ra@2:

; 97   : 		_Dest_val(_Al, _First);

  00009	8b ce		 mov	 ecx, esi
  0000b	ff 15 00 00 00
	00		 call	 DWORD PTR __imp_??1ioHashString@@QAE@XZ
  00011	83 c6 10	 add	 esi, 16			; 00000010H
$LN17@Destroy_ra@2:

; 96   : 	for (; _First != _Last; ++_First)

  00014	3b 75 0c	 cmp	 esi, DWORD PTR __Last$[ebp]
  00017	75 f0		 jne	 SHORT $LL3@Destroy_ra@2
  00019	5e		 pop	 esi

; 98   : 	}

  0001a	5d		 pop	 ebp
  0001b	c3		 ret	 0
??$_Destroy_range@V?$allocator@VioHashString@@@std@@@std@@YAXPAVioHashString@@0AAV?$allocator@VioHashString@@@0@U_Nonscalar_ptr_iterator_tag@0@@Z ENDP ; std::_Destroy_range<std::allocator<ioHashString> >
_TEXT	ENDS
PUBLIC	??$_Destroy_range@V?$allocator@UInventorySelectItem@@@std@@@std@@YAXPAUInventorySelectItem@@0AAV?$allocator@UInventorySelectItem@@@0@@Z ; std::_Destroy_range<std::allocator<InventorySelectItem> >
; Function compile flags: /Ogsp
;	COMDAT ??$_Destroy_range@V?$allocator@UInventorySelectItem@@@std@@@std@@YAXPAUInventorySelectItem@@0AAV?$allocator@UInventorySelectItem@@@0@@Z
_TEXT	SEGMENT
__First$ = 8						; size = 4
__Last$ = 12						; size = 4
__Al$ = 16						; size = 4
??$_Destroy_range@V?$allocator@UInventorySelectItem@@@std@@@std@@YAXPAUInventorySelectItem@@0AAV?$allocator@UInventorySelectItem@@@0@@Z PROC ; std::_Destroy_range<std::allocator<InventorySelectItem> >, COMDAT

; 87   : 	{	// destroy [_First, _Last)

  00000	55		 push	 ebp
  00001	8b ec		 mov	 ebp, esp
  00003	56		 push	 esi

; 88   : 	_Destroy_range(_First, _Last, _Al, _Ptr_cat(_First, _Last));

  00004	8b 75 08	 mov	 esi, DWORD PTR __First$[ebp]
  00007	eb 0a		 jmp	 SHORT $LN21@Destroy_ra@3
$LL7@Destroy_ra@3:
  00009	8b ce		 mov	 ecx, esi
  0000b	e8 00 00 00 00	 call	 ??1InventorySelectItem@@QAE@XZ
  00010	83 c6 54	 add	 esi, 84			; 00000054H
$LN21@Destroy_ra@3:
  00013	3b 75 0c	 cmp	 esi, DWORD PTR __Last$[ebp]
  00016	75 f1		 jne	 SHORT $LL7@Destroy_ra@3
  00018	5e		 pop	 esi

; 89   : 	}

  00019	5d		 pop	 ebp
  0001a	c3		 ret	 0
??$_Destroy_range@V?$allocator@UInventorySelectItem@@@std@@@std@@YAXPAUInventorySelectItem@@0AAV?$allocator@UInventorySelectItem@@@0@@Z ENDP ; std::_Destroy_range<std::allocator<InventorySelectItem> >
_TEXT	ENDS
PUBLIC	??$_Umove@PAUInventorySelectItem@@@?$vector@UInventorySelectItem@@V?$allocator@UInventorySelectItem@@@std@@@std@@IAEPAUInventorySelectItem@@PAU2@00@Z ; std::vector<InventorySelectItem,std::allocator<InventorySelectItem> >::_Umove<InventorySelectItem *>
; Function compile flags: /Ogsp
; File c:\program files (x86)\microsoft visual studio 10.0\vc\include\vector
;	COMDAT ??$_Umove@PAUInventorySelectItem@@@?$vector@UInventorySelectItem@@V?$allocator@UInventorySelectItem@@@std@@@std@@IAEPAUInventorySelectItem@@PAU2@00@Z
_TEXT	SEGMENT
__First$ = 8						; size = 4
__Last$ = 12						; size = 4
__Ptr$ = 16						; size = 4
??$_Umove@PAUInventorySelectItem@@@?$vector@UInventorySelectItem@@V?$allocator@UInventorySelectItem@@@std@@@std@@IAEPAUInventorySelectItem@@PAU2@00@Z PROC ; std::vector<InventorySelectItem,std::allocator<InventorySelectItem> >::_Umove<InventorySelectItem *>, COMDAT
; _this$ = ecx

; 1322 : 		pointer _Umove(_Iter _First, _Iter _Last, pointer _Ptr)

  00000	55		 push	 ebp
  00001	8b ec		 mov	 ebp, esp

; 1323 : 		{	// move initializing [_First, _Last), using allocator
; 1324 : 		return (_Uninitialized_move(_First, _Last,
; 1325 : 			_Ptr, this->_Alval));

  00003	83 c1 0c	 add	 ecx, 12			; 0000000cH
  00006	51		 push	 ecx
  00007	ff 75 10	 push	 DWORD PTR __Ptr$[ebp]
  0000a	ff 75 0c	 push	 DWORD PTR __Last$[ebp]
  0000d	ff 75 08	 push	 DWORD PTR __First$[ebp]
  00010	e8 00 00 00 00	 call	 ??$_Uninitialized_move@PAUInventorySelectItem@@PAU1@V?$allocator@UInventorySelectItem@@@std@@@std@@YAPAUInventorySelectItem@@PAU1@00AAV?$allocator@UInventorySelectItem@@@0@@Z ; std::_Uninitialized_move<InventorySelectItem *,InventorySelectItem *,std::allocator<InventorySelectItem> >
  00015	83 c4 10	 add	 esp, 16			; 00000010H

; 1326 : 		}

  00018	5d		 pop	 ebp
  00019	c2 0c 00	 ret	 12			; 0000000cH
??$_Umove@PAUInventorySelectItem@@@?$vector@UInventorySelectItem@@V?$allocator@UInventorySelectItem@@@std@@@std@@IAEPAUInventorySelectItem@@PAU2@00@Z ENDP ; std::vector<InventorySelectItem,std::allocator<InventorySelectItem> >::_Umove<InventorySelectItem *>
_TEXT	ENDS
PUBLIC	??$_Uninitialized_copy@V?$_Vector_const_iterator@V?$_Vector_val@UInventorySelectItem@@V?$allocator@UInventorySelectItem@@@std@@@std@@@std@@PAUInventorySelectItem@@V?$allocator@UInventorySelectItem@@@2@@std@@YAPAUInventorySelectItem@@V?$_Vector_const_iterator@V?$_Vector_val@UInventorySelectItem@@V?$allocator@UInventorySelectItem@@@std@@@std@@@0@0PAU1@AAV?$allocator@UInventorySelectItem@@@0@@Z ; std::_Uninitialized_copy<std::_Vector_const_iterator<std::_Vector_val<InventorySelectItem,std::allocator<InventorySelectItem> > >,InventorySelectItem *,std::allocator<InventorySelectItem> >
; Function compile flags: /Ogsp
; File c:\program files (x86)\microsoft visual studio 10.0\vc\include\memory
;	COMDAT ??$_Uninitialized_copy@V?$_Vector_const_iterator@V?$_Vector_val@UInventorySelectItem@@V?$allocator@UInventorySelectItem@@@std@@@std@@@std@@PAUInventorySelectItem@@V?$allocator@UInventorySelectItem@@@2@@std@@YAPAUInventorySelectItem@@V?$_Vector_const_iterator@V?$_Vector_val@UInventorySelectItem@@V?$allocator@UInventorySelectItem@@@std@@@std@@@0@0PAU1@AAV?$allocator@UInventorySelectItem@@@0@@Z
_TEXT	SEGMENT
__Cat$510768 = -4					; size = 1
__First$ = 8						; size = 4
__Last$ = 12						; size = 4
__Dest$ = 16						; size = 4
__Al$ = 20						; size = 4
??$_Uninitialized_copy@V?$_Vector_const_iterator@V?$_Vector_val@UInventorySelectItem@@V?$allocator@UInventorySelectItem@@@std@@@std@@@std@@PAUInventorySelectItem@@V?$allocator@UInventorySelectItem@@@2@@std@@YAPAUInventorySelectItem@@V?$_Vector_const_iterator@V?$_Vector_val@UInventorySelectItem@@V?$allocator@UInventorySelectItem@@@std@@@std@@@0@0PAU1@AAV?$allocator@UInventorySelectItem@@@0@@Z PROC ; std::_Uninitialized_copy<std::_Vector_const_iterator<std::_Vector_val<InventorySelectItem,std::allocator<InventorySelectItem> > >,InventorySelectItem *,std::allocator<InventorySelectItem> >, COMDAT

; 412  : 	{	// copy [_First, _Last) to raw _Dest, using _Al

  00000	55		 push	 ebp
  00001	8b ec		 mov	 ebp, esp
  00003	51		 push	 ecx

; 413  : 	return (_Uninit_copy(_First, _Last, _Dest, _Al,
; 414  : 		_Ptr_cat(_First, _Dest)));

  00004	ff 75 fc	 push	 DWORD PTR __Cat$510768[ebp]
  00007	ff 75 14	 push	 DWORD PTR __Al$[ebp]
  0000a	ff 75 10	 push	 DWORD PTR __Dest$[ebp]
  0000d	ff 75 0c	 push	 DWORD PTR __Last$[ebp]
  00010	ff 75 08	 push	 DWORD PTR __First$[ebp]
  00013	e8 00 00 00 00	 call	 ??$_Uninit_copy@V?$_Vector_const_iterator@V?$_Vector_val@UInventorySelectItem@@V?$allocator@UInventorySelectItem@@@std@@@std@@@std@@PAUInventorySelectItem@@V?$allocator@UInventorySelectItem@@@2@@std@@YAPAUInventorySelectItem@@V?$_Vector_const_iterator@V?$_Vector_val@UInventorySelectItem@@V?$allocator@UInventorySelectItem@@@std@@@std@@@0@0PAU1@AAV?$allocator@UInventorySelectItem@@@0@U_Nonscalar_ptr_iterator_tag@0@@Z ; std::_Uninit_copy<std::_Vector_const_iterator<std::_Vector_val<InventorySelectItem,std::allocator<InventorySelectItem> > >,InventorySelectItem *,std::allocator<InventorySelectItem> >
  00018	83 c4 14	 add	 esp, 20			; 00000014H

; 415  : 	}

  0001b	c9		 leave
  0001c	c3		 ret	 0
??$_Uninitialized_copy@V?$_Vector_const_iterator@V?$_Vector_val@UInventorySelectItem@@V?$allocator@UInventorySelectItem@@@std@@@std@@@std@@PAUInventorySelectItem@@V?$allocator@UInventorySelectItem@@@2@@std@@YAPAUInventorySelectItem@@V?$_Vector_const_iterator@V?$_Vector_val@UInventorySelectItem@@V?$allocator@UInventorySelectItem@@@std@@@std@@@0@0PAU1@AAV?$allocator@UInventorySelectItem@@@0@@Z ENDP ; std::_Uninitialized_copy<std::_Vector_const_iterator<std::_Vector_val<InventorySelectItem,std::allocator<InventorySelectItem> > >,InventorySelectItem *,std::allocator<InventorySelectItem> >
_TEXT	ENDS
PUBLIC	??$_Uninitialized_copy@PAUInventorySelectItem@@PAU1@V?$allocator@UInventorySelectItem@@@std@@@std@@YAPAUInventorySelectItem@@PAU1@00AAV?$allocator@UInventorySelectItem@@@0@@Z ; std::_Uninitialized_copy<InventorySelectItem *,InventorySelectItem *,std::allocator<InventorySelectItem> >
; Function compile flags: /Ogsp
;	COMDAT ??$_Uninitialized_copy@PAUInventorySelectItem@@PAU1@V?$allocator@UInventorySelectItem@@@std@@@std@@YAPAUInventorySelectItem@@PAU1@00AAV?$allocator@UInventorySelectItem@@@0@@Z
_TEXT	SEGMENT
__Cat$510775 = -4					; size = 1
__First$ = 8						; size = 4
__Last$ = 12						; size = 4
__Dest$ = 16						; size = 4
__Al$ = 20						; size = 4
??$_Uninitialized_copy@PAUInventorySelectItem@@PAU1@V?$allocator@UInventorySelectItem@@@std@@@std@@YAPAUInventorySelectItem@@PAU1@00AAV?$allocator@UInventorySelectItem@@@0@@Z PROC ; std::_Uninitialized_copy<InventorySelectItem *,InventorySelectItem *,std::allocator<InventorySelectItem> >, COMDAT

; 412  : 	{	// copy [_First, _Last) to raw _Dest, using _Al

  00000	55		 push	 ebp
  00001	8b ec		 mov	 ebp, esp
  00003	51		 push	 ecx

; 413  : 	return (_Uninit_copy(_First, _Last, _Dest, _Al,
; 414  : 		_Ptr_cat(_First, _Dest)));

  00004	ff 75 fc	 push	 DWORD PTR __Cat$510775[ebp]
  00007	ff 75 14	 push	 DWORD PTR __Al$[ebp]
  0000a	ff 75 10	 push	 DWORD PTR __Dest$[ebp]
  0000d	ff 75 0c	 push	 DWORD PTR __Last$[ebp]
  00010	ff 75 08	 push	 DWORD PTR __First$[ebp]
  00013	e8 00 00 00 00	 call	 ??$_Uninit_copy@PAUInventorySelectItem@@PAU1@V?$allocator@UInventorySelectItem@@@std@@@std@@YAPAUInventorySelectItem@@PAU1@00AAV?$allocator@UInventorySelectItem@@@0@U_Nonscalar_ptr_iterator_tag@0@@Z ; std::_Uninit_copy<InventorySelectItem *,InventorySelectItem *,std::allocator<InventorySelectItem> >
  00018	83 c4 14	 add	 esp, 20			; 00000014H

; 415  : 	}

  0001b	c9		 leave
  0001c	c3		 ret	 0
??$_Uninitialized_copy@PAUInventorySelectItem@@PAU1@V?$allocator@UInventorySelectItem@@@std@@@std@@YAPAUInventorySelectItem@@PAU1@00AAV?$allocator@UInventorySelectItem@@@0@@Z ENDP ; std::_Uninitialized_copy<InventorySelectItem *,InventorySelectItem *,std::allocator<InventorySelectItem> >
_TEXT	ENDS
PUBLIC	?assign@?$basic_string@DU?$char_traits@D@std@@V?$allocator@D@2@@std@@QAEAAV12@PBD@Z ; std::basic_string<char,std::char_traits<char>,std::allocator<char> >::assign
; Function compile flags: /Ogsp
; File c:\program files (x86)\microsoft visual studio 10.0\vc\include\xstring
;	COMDAT ?assign@?$basic_string@DU?$char_traits@D@std@@V?$allocator@D@2@@std@@QAEAAV12@PBD@Z
_TEXT	SEGMENT
__Ptr$ = 8						; size = 4
?assign@?$basic_string@DU?$char_traits@D@std@@V?$allocator@D@2@@std@@QAEAAV12@PBD@Z PROC ; std::basic_string<char,std::char_traits<char>,std::allocator<char> >::assign, COMDAT
; _this$ = ecx

; 929  : 		{	// assign [_Ptr, <null>)

  00000	55		 push	 ebp
  00001	8b ec		 mov	 ebp, esp

; 930  : 		_DEBUG_POINTER(_Ptr);
; 931  : 		return (assign(_Ptr, _Traits::length(_Ptr)));

  00003	8b 45 08	 mov	 eax, DWORD PTR __Ptr$[ebp]
  00006	8d 50 01	 lea	 edx, DWORD PTR [eax+1]
  00009	53		 push	 ebx
$LL5@assign@3:
  0000a	8a 18		 mov	 bl, BYTE PTR [eax]
  0000c	40		 inc	 eax
  0000d	84 db		 test	 bl, bl
  0000f	75 f9		 jne	 SHORT $LL5@assign@3
  00011	2b c2		 sub	 eax, edx
  00013	50		 push	 eax
  00014	ff 75 08	 push	 DWORD PTR __Ptr$[ebp]
  00017	e8 00 00 00 00	 call	 ?assign@?$basic_string@DU?$char_traits@D@std@@V?$allocator@D@2@@std@@QAEAAV12@PBDI@Z ; std::basic_string<char,std::char_traits<char>,std::allocator<char> >::assign
  0001c	5b		 pop	 ebx

; 932  : 		}

  0001d	5d		 pop	 ebp
  0001e	c2 04 00	 ret	 4
?assign@?$basic_string@DU?$char_traits@D@std@@V?$allocator@D@2@@std@@QAEAAV12@PBD@Z ENDP ; std::basic_string<char,std::char_traits<char>,std::allocator<char> >::assign
_TEXT	ENDS
PUBLIC	??$_Destroy_range@V?$allocator@VioHashString@@@std@@@std@@YAXPAVioHashString@@0AAV?$allocator@VioHashString@@@0@@Z ; std::_Destroy_range<std::allocator<ioHashString> >
; Function compile flags: /Ogsp
; File c:\program files (x86)\microsoft visual studio 10.0\vc\include\xmemory
;	COMDAT ??$_Destroy_range@V?$allocator@VioHashString@@@std@@@std@@YAXPAVioHashString@@0AAV?$allocator@VioHashString@@@0@@Z
_TEXT	SEGMENT
__First$ = 8						; size = 4
__Last$ = 12						; size = 4
__Al$ = 16						; size = 4
??$_Destroy_range@V?$allocator@VioHashString@@@std@@@std@@YAXPAVioHashString@@0AAV?$allocator@VioHashString@@@0@@Z PROC ; std::_Destroy_range<std::allocator<ioHashString> >, COMDAT

; 87   : 	{	// destroy [_First, _Last)

  00000	55		 push	 ebp
  00001	8b ec		 mov	 ebp, esp
  00003	56		 push	 esi

; 88   : 	_Destroy_range(_First, _Last, _Al, _Ptr_cat(_First, _Last));

  00004	8b 75 08	 mov	 esi, DWORD PTR __First$[ebp]
  00007	eb 0b		 jmp	 SHORT $LN21@Destroy_ra@4
$LL7@Destroy_ra@4:
  00009	8b ce		 mov	 ecx, esi
  0000b	ff 15 00 00 00
	00		 call	 DWORD PTR __imp_??1ioHashString@@QAE@XZ
  00011	83 c6 10	 add	 esi, 16			; 00000010H
$LN21@Destroy_ra@4:
  00014	3b 75 0c	 cmp	 esi, DWORD PTR __Last$[ebp]
  00017	75 f0		 jne	 SHORT $LL7@Destroy_ra@4
  00019	5e		 pop	 esi

; 89   : 	}

  0001a	5d		 pop	 ebp
  0001b	c3		 ret	 0
??$_Destroy_range@V?$allocator@VioHashString@@@std@@@std@@YAXPAVioHashString@@0AAV?$allocator@VioHashString@@@0@@Z ENDP ; std::_Destroy_range<std::allocator<ioHashString> >
_TEXT	ENDS
PUBLIC	?_Destroy@?$vector@UInventorySelectItem@@V?$allocator@UInventorySelectItem@@@std@@@std@@IAEXPAUInventorySelectItem@@0@Z ; std::vector<InventorySelectItem,std::allocator<InventorySelectItem> >::_Destroy
; Function compile flags: /Ogsp
; File c:\program files (x86)\microsoft visual studio 10.0\vc\include\vector
;	COMDAT ?_Destroy@?$vector@UInventorySelectItem@@V?$allocator@UInventorySelectItem@@@std@@@std@@IAEXPAUInventorySelectItem@@0@Z
_TEXT	SEGMENT
__First$ = 8						; size = 4
__Last$ = 12						; size = 4
?_Destroy@?$vector@UInventorySelectItem@@V?$allocator@UInventorySelectItem@@@std@@@std@@IAEXPAUInventorySelectItem@@0@Z PROC ; std::vector<InventorySelectItem,std::allocator<InventorySelectItem> >::_Destroy, COMDAT
; _this$ = ecx

; 1269 : 		{	// destroy [_First, _Last) using allocator

  00000	55		 push	 ebp
  00001	8b ec		 mov	 ebp, esp
  00003	56		 push	 esi

; 1270 : 		_Destroy_range(_First, _Last, this->_Alval);

  00004	8b 75 08	 mov	 esi, DWORD PTR __First$[ebp]
  00007	eb 0a		 jmp	 SHORT $LN23@Destroy
$LL9@Destroy:
  00009	8b ce		 mov	 ecx, esi
  0000b	e8 00 00 00 00	 call	 ??1InventorySelectItem@@QAE@XZ
  00010	83 c6 54	 add	 esi, 84			; 00000054H
$LN23@Destroy:
  00013	3b 75 0c	 cmp	 esi, DWORD PTR __Last$[ebp]
  00016	75 f1		 jne	 SHORT $LL9@Destroy
  00018	5e		 pop	 esi

; 1271 : 		}

  00019	5d		 pop	 ebp
  0001a	c2 08 00	 ret	 8
?_Destroy@?$vector@UInventorySelectItem@@V?$allocator@UInventorySelectItem@@@std@@@std@@IAEXPAUInventorySelectItem@@0@Z ENDP ; std::vector<InventorySelectItem,std::allocator<InventorySelectItem> >::_Destroy
_TEXT	ENDS
PUBLIC	?_Tidy@?$vector@UInventorySelectItem@@V?$allocator@UInventorySelectItem@@@std@@@std@@IAEXXZ ; std::vector<InventorySelectItem,std::allocator<InventorySelectItem> >::_Tidy
EXTRN	__imp_?_Orphan_all@_Container_base0@std@@QAEXXZ:PROC
; Function compile flags: /Ogsp
;	COMDAT ?_Tidy@?$vector@UInventorySelectItem@@V?$allocator@UInventorySelectItem@@@std@@@std@@IAEXXZ
_TEXT	SEGMENT
?_Tidy@?$vector@UInventorySelectItem@@V?$allocator@UInventorySelectItem@@@std@@@std@@IAEXXZ PROC ; std::vector<InventorySelectItem,std::allocator<InventorySelectItem> >::_Tidy, COMDAT
; _this$ = ecx

; 1301 : 		{	// free all storage

  00000	56		 push	 esi
  00001	8b f1		 mov	 esi, ecx

; 1302 : 		if (this->_Myfirst != 0)

  00003	83 3e 00	 cmp	 DWORD PTR [esi], 0
  00006	74 27		 je	 SHORT $LN24@Tidy@2

; 1303 : 			{	// something to free, destroy and deallocate it
; 1304 : 			this->_Orphan_all();

  00008	53		 push	 ebx
  00009	57		 push	 edi
  0000a	ff 15 00 00 00
	00		 call	 DWORD PTR __imp_?_Orphan_all@_Container_base0@std@@QAEXXZ

; 1305 : 			_Destroy(this->_Myfirst, this->_Mylast);

  00010	8b 5e 04	 mov	 ebx, DWORD PTR [esi+4]
  00013	8b 3e		 mov	 edi, DWORD PTR [esi]
  00015	eb 0a		 jmp	 SHORT $LN28@Tidy@2
$LL12@Tidy@2:
  00017	8b cf		 mov	 ecx, edi
  00019	e8 00 00 00 00	 call	 ??1InventorySelectItem@@QAE@XZ
  0001e	83 c7 54	 add	 edi, 84			; 00000054H
$LN28@Tidy@2:
  00021	3b fb		 cmp	 edi, ebx
  00023	75 f2		 jne	 SHORT $LL12@Tidy@2

; 1306 : 			this->_Alval.deallocate(this->_Myfirst,
; 1307 : 				this->_Myend - this->_Myfirst);

  00025	ff 36		 push	 DWORD PTR [esi]
  00027	e8 00 00 00 00	 call	 ??3@YAXPAX@Z		; operator delete
  0002c	59		 pop	 ecx
  0002d	5f		 pop	 edi
  0002e	5b		 pop	 ebx
$LN24@Tidy@2:

; 1308 : 			}
; 1309 : 		this->_Myfirst = 0;

  0002f	33 c0		 xor	 eax, eax
  00031	89 06		 mov	 DWORD PTR [esi], eax

; 1310 : 		this->_Mylast = 0;

  00033	89 46 04	 mov	 DWORD PTR [esi+4], eax

; 1311 : 		this->_Myend = 0;

  00036	89 46 08	 mov	 DWORD PTR [esi+8], eax
  00039	5e		 pop	 esi

; 1312 : 		}

  0003a	c3		 ret	 0
?_Tidy@?$vector@UInventorySelectItem@@V?$allocator@UInventorySelectItem@@@std@@@std@@IAEXXZ ENDP ; std::vector<InventorySelectItem,std::allocator<InventorySelectItem> >::_Tidy
_TEXT	ENDS
PUBLIC	?reserve@?$vector@UInventorySelectItem@@V?$allocator@UInventorySelectItem@@@std@@@std@@QAEXI@Z ; std::vector<InventorySelectItem,std::allocator<InventorySelectItem> >::reserve
;	COMDAT xdata$x
; File c:\program files (x86)\microsoft visual studio 10.0\vc\include\xmemory
xdata$x	SEGMENT
__catchsym$?reserve@?$vector@UInventorySelectItem@@V?$allocator@UInventorySelectItem@@@std@@@std@@QAEXI@Z$2 DD 040H
	DD	00H
	DD	00H
	DD	FLAT:__catch$?reserve@?$vector@UInventorySelectItem@@V?$allocator@UInventorySelectItem@@@std@@@std@@QAEXI@Z$0
__unwindtable$?reserve@?$vector@UInventorySelectItem@@V?$allocator@UInventorySelectItem@@@std@@@std@@QAEXI@Z DD 0ffffffffH
	DD	00H
	DD	0ffffffffH
	DD	00H
__tryblocktable$?reserve@?$vector@UInventorySelectItem@@V?$allocator@UInventorySelectItem@@@std@@@std@@QAEXI@Z DD 00H
	DD	00H
	DD	01H
	DD	01H
	DD	FLAT:__catchsym$?reserve@?$vector@UInventorySelectItem@@V?$allocator@UInventorySelectItem@@@std@@@std@@QAEXI@Z$2
__ehfuncinfo$?reserve@?$vector@UInventorySelectItem@@V?$allocator@UInventorySelectItem@@@std@@@std@@QAEXI@Z DD 019930522H
	DD	02H
	DD	FLAT:__unwindtable$?reserve@?$vector@UInventorySelectItem@@V?$allocator@UInventorySelectItem@@@std@@@std@@QAEXI@Z
	DD	01H
	DD	FLAT:__tryblocktable$?reserve@?$vector@UInventorySelectItem@@V?$allocator@UInventorySelectItem@@@std@@@std@@QAEXI@Z
	DD	2 DUP(00H)
	DD	00H
	DD	01H
; Function compile flags: /Ogsp
; File c:\program files (x86)\microsoft visual studio 10.0\vc\include\vector
xdata$x	ENDS
;	COMDAT ?reserve@?$vector@UInventorySelectItem@@V?$allocator@UInventorySelectItem@@@std@@@std@@QAEXI@Z
_TEXT	SEGMENT
__Ptr$506372 = -24					; size = 4
$T511111 = -20						; size = 4
__$EHRec$ = -16						; size = 16
__Count$ = 8						; size = 4
?reserve@?$vector@UInventorySelectItem@@V?$allocator@UInventorySelectItem@@@std@@@std@@QAEXI@Z PROC ; std::vector<InventorySelectItem,std::allocator<InventorySelectItem> >::reserve, COMDAT
; _this$ = ecx

; 746  : 		{	// determine new minimum length of allocated storage

  00000	6a 0c		 push	 12			; 0000000cH
  00002	b8 00 00 00 00	 mov	 eax, __ehhandler$?reserve@?$vector@UInventorySelectItem@@V?$allocator@UInventorySelectItem@@@std@@@std@@QAEXI@Z
  00007	e8 00 00 00 00	 call	 __EH_prolog3_catch
  0000c	8b f1		 mov	 esi, ecx

; 747  : 		if (max_size() < _Count)

  0000e	81 7d 08 c3 30
	0c 03		 cmp	 DWORD PTR __Count$[ebp], 51130563 ; 030c30c3H
  00015	76 0b		 jbe	 SHORT $LN5@reserve

; 748  : 			_Xlen();	// result too long

  00017	68 00 00 00 00	 push	 OFFSET ??_C@_0BD@OLBABOEK@vector?$DMT?$DO?5too?5long?$AA@
  0001c	ff 15 00 00 00
	00		 call	 DWORD PTR __imp_?_Xlength_error@std@@YAXPBD@Z
$LN59@reserve:
$LN5@reserve:

; 749  : 		else if (capacity() < _Count)

  00022	8b 46 08	 mov	 eax, DWORD PTR [esi+8]
  00025	2b 06		 sub	 eax, DWORD PTR [esi]
  00027	6a 54		 push	 84			; 00000054H
  00029	99		 cdq
  0002a	59		 pop	 ecx
  0002b	f7 f9		 idiv	 ecx
  0002d	3b 45 08	 cmp	 eax, DWORD PTR __Count$[ebp]
  00030	0f 83 80 00 00
	00		 jae	 $LN3@reserve

; 750  : 			{	// not enough room, reallocate
; 751  : 			pointer _Ptr = this->_Alval.allocate(_Count);

  00036	6a 00		 push	 0
  00038	ff 75 08	 push	 DWORD PTR __Count$[ebp]
  0003b	e8 00 00 00 00	 call	 ??$_Allocate@UInventorySelectItem@@@std@@YAPAUInventorySelectItem@@IPAU1@@Z ; std::_Allocate<InventorySelectItem>

; 752  : 
; 753  : 			_TRY_BEGIN
; 754  : 			_Umove(this->_Myfirst, this->_Mylast, _Ptr);

  00040	8b 0e		 mov	 ecx, DWORD PTR [esi]
  00042	83 65 fc 00	 and	 DWORD PTR __$EHRec$[ebp+12], 0
  00046	8d 56 0c	 lea	 edx, DWORD PTR [esi+12]
  00049	52		 push	 edx
  0004a	89 45 e8	 mov	 DWORD PTR __Ptr$506372[ebp], eax
  0004d	ff 75 e8	 push	 DWORD PTR __Ptr$506372[ebp]
  00050	8b 46 04	 mov	 eax, DWORD PTR [esi+4]
  00053	50		 push	 eax
  00054	51		 push	 ecx
  00055	e8 00 00 00 00	 call	 ??$_Uninitialized_move@PAUInventorySelectItem@@PAU1@V?$allocator@UInventorySelectItem@@@std@@@std@@YAPAUInventorySelectItem@@PAU1@00AAV?$allocator@UInventorySelectItem@@@0@@Z ; std::_Uninitialized_move<InventorySelectItem *,InventorySelectItem *,std::allocator<InventorySelectItem> >

; 758  : 			_CATCH_END
; 759  : 
; 760  : 			size_type _Size = size();

  0005a	8b 5e 04	 mov	 ebx, DWORD PTR [esi+4]
  0005d	8b 0e		 mov	 ecx, DWORD PTR [esi]
  0005f	83 c4 18	 add	 esp, 24			; 00000018H
  00062	8b c3		 mov	 eax, ebx
  00064	2b c1		 sub	 eax, ecx
  00066	6a 54		 push	 84			; 00000054H
  00068	99		 cdq
  00069	5f		 pop	 edi
  0006a	f7 ff		 idiv	 edi
  0006c	83 4d fc ff	 or	 DWORD PTR __$EHRec$[ebp+12], -1
  00070	8b f8		 mov	 edi, eax
  00072	85 c9		 test	 ecx, ecx
  00074	74 20		 je	 SHORT $LN51@reserve

; 761  : 			if (this->_Myfirst != 0)
; 762  : 				{	// destroy and deallocate old array
; 763  : 				_Destroy(this->_Myfirst, this->_Mylast);

  00076	89 4d ec	 mov	 DWORD PTR $T511111[ebp], ecx
  00079	3b cb		 cmp	 ecx, ebx
  0007b	74 11		 je	 SHORT $LN37@reserve
$LN39@reserve:
  0007d	8b 4d ec	 mov	 ecx, DWORD PTR $T511111[ebp]
  00080	e8 00 00 00 00	 call	 ??1InventorySelectItem@@QAE@XZ
  00085	83 45 ec 54	 add	 DWORD PTR $T511111[ebp], 84 ; 00000054H
  00089	39 5d ec	 cmp	 DWORD PTR $T511111[ebp], ebx
  0008c	75 ef		 jne	 SHORT $LN39@reserve
$LN37@reserve:

; 764  : 				this->_Alval.deallocate(this->_Myfirst,
; 765  : 					this->_Myend - this->_Myfirst);

  0008e	ff 36		 push	 DWORD PTR [esi]
  00090	e8 00 00 00 00	 call	 ??3@YAXPAX@Z		; operator delete
  00095	59		 pop	 ecx
$LN51@reserve:

; 766  : 				}
; 767  : 
; 768  : 			this->_Orphan_all();

  00096	8b ce		 mov	 ecx, esi
  00098	ff 15 00 00 00
	00		 call	 DWORD PTR __imp_?_Orphan_all@_Container_base0@std@@QAEXXZ

; 769  : 			this->_Myend = _Ptr + _Count;
; 770  : 			this->_Mylast = _Ptr + _Size;

  0009e	6b ff 54	 imul	 edi, 84			; 00000054H
  000a1	8b 45 08	 mov	 eax, DWORD PTR __Count$[ebp]
  000a4	8b 4d e8	 mov	 ecx, DWORD PTR __Ptr$506372[ebp]
  000a7	6b c0 54	 imul	 eax, 84			; 00000054H
  000aa	03 c1		 add	 eax, ecx
  000ac	03 f9		 add	 edi, ecx
  000ae	89 46 08	 mov	 DWORD PTR [esi+8], eax
  000b1	89 7e 04	 mov	 DWORD PTR [esi+4], edi

; 771  : 			this->_Myfirst = _Ptr;

  000b4	89 0e		 mov	 DWORD PTR [esi], ecx
$LN3@reserve:

; 772  : 			}
; 773  : 		}

  000b6	e8 00 00 00 00	 call	 __EH_epilog3
  000bb	c2 04 00	 ret	 4
__catch$?reserve@?$vector@UInventorySelectItem@@V?$allocator@UInventorySelectItem@@@std@@@std@@QAEXI@Z$0:

; 755  : 			_CATCH_ALL
; 756  : 			this->_Alval.deallocate(_Ptr, _Count);

  000be	ff 75 e8	 push	 DWORD PTR __Ptr$506372[ebp]
  000c1	e8 00 00 00 00	 call	 ??3@YAXPAX@Z		; operator delete
  000c6	59		 pop	 ecx

; 757  : 			_RERAISE;

  000c7	6a 00		 push	 0
  000c9	6a 00		 push	 0
  000cb	e8 00 00 00 00	 call	 __CxxThrowException@8
$LN60@reserve:
$LN58@reserve:
  000d0	cc		 int	 3
_TEXT	ENDS
;	COMDAT text$x
text$x	SEGMENT
__ehhandler$?reserve@?$vector@UInventorySelectItem@@V?$allocator@UInventorySelectItem@@@std@@@std@@QAEXI@Z:
  00000	8b 54 24 08	 mov	 edx, DWORD PTR [esp+8]
  00004	8d 42 0c	 lea	 eax, DWORD PTR [edx+12]
  00007	8b 4a e4	 mov	 ecx, DWORD PTR [edx-28]
  0000a	33 c8		 xor	 ecx, eax
  0000c	e8 00 00 00 00	 call	 @__security_check_cookie@4
  00011	b8 00 00 00 00	 mov	 eax, OFFSET __ehfuncinfo$?reserve@?$vector@UInventorySelectItem@@V?$allocator@UInventorySelectItem@@@std@@@std@@QAEXI@Z
  00016	e9 00 00 00 00	 jmp	 ___CxxFrameHandler3
text$x	ENDS
?reserve@?$vector@UInventorySelectItem@@V?$allocator@UInventorySelectItem@@@std@@@std@@QAEXI@Z ENDP ; std::vector<InventorySelectItem,std::allocator<InventorySelectItem> >::reserve
PUBLIC	??$_Ucopy@V?$_Vector_const_iterator@V?$_Vector_val@UInventorySelectItem@@V?$allocator@UInventorySelectItem@@@std@@@std@@@std@@@?$vector@UInventorySelectItem@@V?$allocator@UInventorySelectItem@@@std@@@std@@IAEPAUInventorySelectItem@@V?$_Vector_const_iterator@V?$_Vector_val@UInventorySelectItem@@V?$allocator@UInventorySelectItem@@@std@@@std@@@1@0PAU2@@Z ; std::vector<InventorySelectItem,std::allocator<InventorySelectItem> >::_Ucopy<std::_Vector_const_iterator<std::_Vector_val<InventorySelectItem,std::allocator<InventorySelectItem> > > >
; Function compile flags: /Ogsp
;	COMDAT ??$_Ucopy@V?$_Vector_const_iterator@V?$_Vector_val@UInventorySelectItem@@V?$allocator@UInventorySelectItem@@@std@@@std@@@std@@@?$vector@UInventorySelectItem@@V?$allocator@UInventorySelectItem@@@std@@@std@@IAEPAUInventorySelectItem@@V?$_Vector_const_iterator@V?$_Vector_val@UInventorySelectItem@@V?$allocator@UInventorySelectItem@@@std@@@std@@@1@0PAU2@@Z
_TEXT	SEGMENT
__First$ = 8						; size = 4
__Last$ = 12						; size = 4
__Cat$511188 = 16					; size = 1
__Ptr$ = 16						; size = 4
??$_Ucopy@V?$_Vector_const_iterator@V?$_Vector_val@UInventorySelectItem@@V?$allocator@UInventorySelectItem@@@std@@@std@@@std@@@?$vector@UInventorySelectItem@@V?$allocator@UInventorySelectItem@@@std@@@std@@IAEPAUInventorySelectItem@@V?$_Vector_const_iterator@V?$_Vector_val@UInventorySelectItem@@V?$allocator@UInventorySelectItem@@@std@@@std@@@1@0PAU2@@Z PROC ; std::vector<InventorySelectItem,std::allocator<InventorySelectItem> >::_Ucopy<std::_Vector_const_iterator<std::_Vector_val<InventorySelectItem,std::allocator<InventorySelectItem> > > >, COMDAT
; _this$ = ecx

; 1315 : 		pointer _Ucopy(_Iter _First, _Iter _Last, pointer _Ptr)

  00000	55		 push	 ebp
  00001	8b ec		 mov	 ebp, esp

; 1316 : 		{	// copy initializing [_First, _Last), using allocator
; 1317 : 		return (_Uninitialized_copy(_First, _Last,
; 1318 : 			_Ptr, this->_Alval));

  00003	ff 75 10	 push	 DWORD PTR __Cat$511188[ebp]
  00006	83 c1 0c	 add	 ecx, 12			; 0000000cH
  00009	51		 push	 ecx
  0000a	ff 75 10	 push	 DWORD PTR __Ptr$[ebp]
  0000d	ff 75 0c	 push	 DWORD PTR __Last$[ebp]
  00010	ff 75 08	 push	 DWORD PTR __First$[ebp]
  00013	e8 00 00 00 00	 call	 ??$_Uninit_copy@V?$_Vector_const_iterator@V?$_Vector_val@UInventorySelectItem@@V?$allocator@UInventorySelectItem@@@std@@@std@@@std@@PAUInventorySelectItem@@V?$allocator@UInventorySelectItem@@@2@@std@@YAPAUInventorySelectItem@@V?$_Vector_const_iterator@V?$_Vector_val@UInventorySelectItem@@V?$allocator@UInventorySelectItem@@@std@@@std@@@0@0PAU1@AAV?$allocator@UInventorySelectItem@@@0@U_Nonscalar_ptr_iterator_tag@0@@Z ; std::_Uninit_copy<std::_Vector_const_iterator<std::_Vector_val<InventorySelectItem,std::allocator<InventorySelectItem> > >,InventorySelectItem *,std::allocator<InventorySelectItem> >
  00018	83 c4 14	 add	 esp, 20			; 00000014H

; 1319 : 		}

  0001b	5d		 pop	 ebp
  0001c	c2 0c 00	 ret	 12			; 0000000cH
??$_Ucopy@V?$_Vector_const_iterator@V?$_Vector_val@UInventorySelectItem@@V?$allocator@UInventorySelectItem@@@std@@@std@@@std@@@?$vector@UInventorySelectItem@@V?$allocator@UInventorySelectItem@@@std@@@std@@IAEPAUInventorySelectItem@@V?$_Vector_const_iterator@V?$_Vector_val@UInventorySelectItem@@V?$allocator@UInventorySelectItem@@@std@@@std@@@1@0PAU2@@Z ENDP ; std::vector<InventorySelectItem,std::allocator<InventorySelectItem> >::_Ucopy<std::_Vector_const_iterator<std::_Vector_val<InventorySelectItem,std::allocator<InventorySelectItem> > > >
_TEXT	ENDS
PUBLIC	??$_Ucopy@PAUInventorySelectItem@@@?$vector@UInventorySelectItem@@V?$allocator@UInventorySelectItem@@@std@@@std@@IAEPAUInventorySelectItem@@PAU2@00@Z ; std::vector<InventorySelectItem,std::allocator<InventorySelectItem> >::_Ucopy<InventorySelectItem *>
; Function compile flags: /Ogsp
;	COMDAT ??$_Ucopy@PAUInventorySelectItem@@@?$vector@UInventorySelectItem@@V?$allocator@UInventorySelectItem@@@std@@@std@@IAEPAUInventorySelectItem@@PAU2@00@Z
_TEXT	SEGMENT
__First$ = 8						; size = 4
__Last$ = 12						; size = 4
__Cat$511204 = 16					; size = 1
__Ptr$ = 16						; size = 4
??$_Ucopy@PAUInventorySelectItem@@@?$vector@UInventorySelectItem@@V?$allocator@UInventorySelectItem@@@std@@@std@@IAEPAUInventorySelectItem@@PAU2@00@Z PROC ; std::vector<InventorySelectItem,std::allocator<InventorySelectItem> >::_Ucopy<InventorySelectItem *>, COMDAT
; _this$ = ecx

; 1315 : 		pointer _Ucopy(_Iter _First, _Iter _Last, pointer _Ptr)

  00000	55		 push	 ebp
  00001	8b ec		 mov	 ebp, esp

; 1316 : 		{	// copy initializing [_First, _Last), using allocator
; 1317 : 		return (_Uninitialized_copy(_First, _Last,
; 1318 : 			_Ptr, this->_Alval));

  00003	ff 75 10	 push	 DWORD PTR __Cat$511204[ebp]
  00006	83 c1 0c	 add	 ecx, 12			; 0000000cH
  00009	51		 push	 ecx
  0000a	ff 75 10	 push	 DWORD PTR __Ptr$[ebp]
  0000d	ff 75 0c	 push	 DWORD PTR __Last$[ebp]
  00010	ff 75 08	 push	 DWORD PTR __First$[ebp]
  00013	e8 00 00 00 00	 call	 ??$_Uninit_copy@PAUInventorySelectItem@@PAU1@V?$allocator@UInventorySelectItem@@@std@@@std@@YAPAUInventorySelectItem@@PAU1@00AAV?$allocator@UInventorySelectItem@@@0@U_Nonscalar_ptr_iterator_tag@0@@Z ; std::_Uninit_copy<InventorySelectItem *,InventorySelectItem *,std::allocator<InventorySelectItem> >
  00018	83 c4 14	 add	 esp, 20			; 00000014H

; 1319 : 		}

  0001b	5d		 pop	 ebp
  0001c	c2 0c 00	 ret	 12			; 0000000cH
??$_Ucopy@PAUInventorySelectItem@@@?$vector@UInventorySelectItem@@V?$allocator@UInventorySelectItem@@@std@@@std@@IAEPAUInventorySelectItem@@PAU2@00@Z ENDP ; std::vector<InventorySelectItem,std::allocator<InventorySelectItem> >::_Ucopy<InventorySelectItem *>
_TEXT	ENDS
PUBLIC	??0?$basic_string@DU?$char_traits@D@std@@V?$allocator@D@2@@std@@QAE@PBD@Z ; std::basic_string<char,std::char_traits<char>,std::allocator<char> >::basic_string<char,std::char_traits<char>,std::allocator<char> >
; Function compile flags: /Ogsp
; File c:\program files (x86)\microsoft visual studio 10.0\vc\include\xstring
;	COMDAT ??0?$basic_string@DU?$char_traits@D@std@@V?$allocator@D@2@@std@@QAE@PBD@Z
_TEXT	SEGMENT
__Ptr$ = 8						; size = 4
??0?$basic_string@DU?$char_traits@D@std@@V?$allocator@D@2@@std@@QAE@PBD@Z PROC ; std::basic_string<char,std::char_traits<char>,std::allocator<char> >::basic_string<char,std::char_traits<char>,std::allocator<char> >, COMDAT
; _this$ = ecx

; 592  : 		{	// construct from [_Ptr, <null>)

  00000	55		 push	 ebp
  00001	8b ec		 mov	 ebp, esp
  00003	56		 push	 esi

; 593  : 		_Tidy();
; 594  : 		assign(_Ptr);

  00004	ff 75 08	 push	 DWORD PTR __Ptr$[ebp]
  00007	8b f1		 mov	 esi, ecx
  00009	83 66 10 00	 and	 DWORD PTR [esi+16], 0
  0000d	c7 46 14 0f 00
	00 00		 mov	 DWORD PTR [esi+20], 15	; 0000000fH
  00014	c6 06 00	 mov	 BYTE PTR [esi], 0
  00017	e8 00 00 00 00	 call	 ?assign@?$basic_string@DU?$char_traits@D@std@@V?$allocator@D@2@@std@@QAEAAV12@PBD@Z ; std::basic_string<char,std::char_traits<char>,std::allocator<char> >::assign

; 595  : 		}

  0001c	8b c6		 mov	 eax, esi
  0001e	5e		 pop	 esi
  0001f	5d		 pop	 ebp
  00020	c2 04 00	 ret	 4
??0?$basic_string@DU?$char_traits@D@std@@V?$allocator@D@2@@std@@QAE@PBD@Z ENDP ; std::basic_string<char,std::char_traits<char>,std::allocator<char> >::basic_string<char,std::char_traits<char>,std::allocator<char> >
_TEXT	ENDS
PUBLIC	?_Destroy@?$vector@VioHashString@@V?$allocator@VioHashString@@@std@@@std@@IAEXPAVioHashString@@0@Z ; std::vector<ioHashString,std::allocator<ioHashString> >::_Destroy
; Function compile flags: /Ogsp
; File c:\program files (x86)\microsoft visual studio 10.0\vc\include\vector
;	COMDAT ?_Destroy@?$vector@VioHashString@@V?$allocator@VioHashString@@@std@@@std@@IAEXPAVioHashString@@0@Z
_TEXT	SEGMENT
__First$ = 8						; size = 4
__Last$ = 12						; size = 4
?_Destroy@?$vector@VioHashString@@V?$allocator@VioHashString@@@std@@@std@@IAEXPAVioHashString@@0@Z PROC ; std::vector<ioHashString,std::allocator<ioHashString> >::_Destroy, COMDAT
; _this$ = ecx

; 1269 : 		{	// destroy [_First, _Last) using allocator

  00000	55		 push	 ebp
  00001	8b ec		 mov	 ebp, esp
  00003	56		 push	 esi

; 1270 : 		_Destroy_range(_First, _Last, this->_Alval);

  00004	8b 75 08	 mov	 esi, DWORD PTR __First$[ebp]
  00007	eb 0b		 jmp	 SHORT $LN23@Destroy@2
$LL9@Destroy@2:
  00009	8b ce		 mov	 ecx, esi
  0000b	ff 15 00 00 00
	00		 call	 DWORD PTR __imp_??1ioHashString@@QAE@XZ
  00011	83 c6 10	 add	 esi, 16			; 00000010H
$LN23@Destroy@2:
  00014	3b 75 0c	 cmp	 esi, DWORD PTR __Last$[ebp]
  00017	75 f0		 jne	 SHORT $LL9@Destroy@2
  00019	5e		 pop	 esi

; 1271 : 		}

  0001a	5d		 pop	 ebp
  0001b	c2 08 00	 ret	 8
?_Destroy@?$vector@VioHashString@@V?$allocator@VioHashString@@@std@@@std@@IAEXPAVioHashString@@0@Z ENDP ; std::vector<ioHashString,std::allocator<ioHashString> >::_Destroy
_TEXT	ENDS
PUBLIC	??0?$vector@UInventorySelectItem@@V?$allocator@UInventorySelectItem@@@std@@@std@@QAE@ABV01@@Z ; std::vector<InventorySelectItem,std::allocator<InventorySelectItem> >::vector<InventorySelectItem,std::allocator<InventorySelectItem> >
;	COMDAT xdata$x
; File c:\program files (x86)\microsoft visual studio 10.0\vc\include\xutility
xdata$x	SEGMENT
__catchsym$??0?$vector@UInventorySelectItem@@V?$allocator@UInventorySelectItem@@@std@@@std@@QAE@ABV01@@Z$2 DD 040H
	DD	00H
	DD	00H
	DD	FLAT:__catch$??0?$vector@UInventorySelectItem@@V?$allocator@UInventorySelectItem@@@std@@@std@@QAE@ABV01@@Z$0
__unwindtable$??0?$vector@UInventorySelectItem@@V?$allocator@UInventorySelectItem@@@std@@@std@@QAE@ABV01@@Z DD 0ffffffffH
	DD	00H
	DD	0ffffffffH
	DD	00H
__tryblocktable$??0?$vector@UInventorySelectItem@@V?$allocator@UInventorySelectItem@@@std@@@std@@QAE@ABV01@@Z DD 00H
	DD	00H
	DD	01H
	DD	01H
	DD	FLAT:__catchsym$??0?$vector@UInventorySelectItem@@V?$allocator@UInventorySelectItem@@@std@@@std@@QAE@ABV01@@Z$2
__ehfuncinfo$??0?$vector@UInventorySelectItem@@V?$allocator@UInventorySelectItem@@@std@@@std@@QAE@ABV01@@Z DD 019930522H
	DD	02H
	DD	FLAT:__unwindtable$??0?$vector@UInventorySelectItem@@V?$allocator@UInventorySelectItem@@@std@@@std@@QAE@ABV01@@Z
	DD	01H
	DD	FLAT:__tryblocktable$??0?$vector@UInventorySelectItem@@V?$allocator@UInventorySelectItem@@@std@@@std@@QAE@ABV01@@Z
	DD	2 DUP(00H)
	DD	00H
	DD	01H
; Function compile flags: /Ogsp
; File c:\program files (x86)\microsoft visual studio 10.0\vc\include\vector
xdata$x	ENDS
;	COMDAT ??0?$vector@UInventorySelectItem@@V?$allocator@UInventorySelectItem@@@std@@@std@@QAE@ABV01@@Z
_TEXT	SEGMENT
_this$ = -20						; size = 4
__$EHRec$ = -16						; size = 16
__Cat$511425 = 8					; size = 1
__Right$ = 8						; size = 4
??0?$vector@UInventorySelectItem@@V?$allocator@UInventorySelectItem@@@std@@@std@@QAE@ABV01@@Z PROC ; std::vector<InventorySelectItem,std::allocator<InventorySelectItem> >::vector<InventorySelectItem,std::allocator<InventorySelectItem> >, COMDAT
; _this$ = ecx

; 535  : 		{	// construct by copying _Right

  00000	6a 08		 push	 8
  00002	b8 00 00 00 00	 mov	 eax, __ehhandler$??0?$vector@UInventorySelectItem@@V?$allocator@UInventorySelectItem@@@std@@@std@@QAE@ABV01@@Z
  00007	e8 00 00 00 00	 call	 __EH_prolog3_catch
  0000c	8b f1		 mov	 esi, ecx
  0000e	89 75 ec	 mov	 DWORD PTR _this$[ebp], esi

; 536  : 		if (_Buy(_Right.size()))

  00011	8b 7d 08	 mov	 edi, DWORD PTR __Right$[ebp]
  00014	33 db		 xor	 ebx, ebx
  00016	89 1e		 mov	 DWORD PTR [esi], ebx
  00018	89 5e 04	 mov	 DWORD PTR [esi+4], ebx
  0001b	89 5e 08	 mov	 DWORD PTR [esi+8], ebx
  0001e	8b 47 04	 mov	 eax, DWORD PTR [edi+4]
  00021	2b 07		 sub	 eax, DWORD PTR [edi]
  00023	6a 54		 push	 84			; 00000054H
  00025	59		 pop	 ecx
  00026	99		 cdq
  00027	f7 f9		 idiv	 ecx
  00029	8b ce		 mov	 ecx, esi
  0002b	50		 push	 eax
  0002c	e8 00 00 00 00	 call	 ?_Buy@?$vector@UInventorySelectItem@@V?$allocator@UInventorySelectItem@@@std@@@std@@IAE_NI@Z ; std::vector<InventorySelectItem,std::allocator<InventorySelectItem> >::_Buy
  00031	84 c0		 test	 al, al
  00033	74 1f		 je	 SHORT $LN7@vector

; 537  : 			_TRY_BEGIN
; 538  : 			this->_Mylast = _Ucopy(_Right.begin(), _Right.end(),
; 539  : 				this->_Myfirst);

  00035	ff 75 08	 push	 DWORD PTR __Cat$511425[ebp]
  00038	8b 0e		 mov	 ecx, DWORD PTR [esi]
  0003a	8b 47 04	 mov	 eax, DWORD PTR [edi+4]
  0003d	8b 3f		 mov	 edi, DWORD PTR [edi]
  0003f	8d 56 0c	 lea	 edx, DWORD PTR [esi+12]
  00042	52		 push	 edx
  00043	51		 push	 ecx
  00044	50		 push	 eax
  00045	57		 push	 edi
  00046	89 5d fc	 mov	 DWORD PTR __$EHRec$[ebp+12], ebx
  00049	e8 00 00 00 00	 call	 ??$_Uninit_copy@V?$_Vector_const_iterator@V?$_Vector_val@UInventorySelectItem@@V?$allocator@UInventorySelectItem@@@std@@@std@@@std@@PAUInventorySelectItem@@V?$allocator@UInventorySelectItem@@@2@@std@@YAPAUInventorySelectItem@@V?$_Vector_const_iterator@V?$_Vector_val@UInventorySelectItem@@V?$allocator@UInventorySelectItem@@@std@@@std@@@0@0PAU1@AAV?$allocator@UInventorySelectItem@@@0@U_Nonscalar_ptr_iterator_tag@0@@Z ; std::_Uninit_copy<std::_Vector_const_iterator<std::_Vector_val<InventorySelectItem,std::allocator<InventorySelectItem> > >,InventorySelectItem *,std::allocator<InventorySelectItem> >
  0004e	83 c4 14	 add	 esp, 20			; 00000014H
  00051	89 46 04	 mov	 DWORD PTR [esi+4], eax
$LN7@vector:

; 543  : 			_CATCH_END
; 544  : 		}

  00054	8b c6		 mov	 eax, esi
  00056	e8 00 00 00 00	 call	 __EH_epilog3
  0005b	c2 04 00	 ret	 4
__catch$??0?$vector@UInventorySelectItem@@V?$allocator@UInventorySelectItem@@@std@@@std@@QAE@ABV01@@Z$0:

; 540  : 			_CATCH_ALL
; 541  : 			_Tidy();

  0005e	8b 4d ec	 mov	 ecx, DWORD PTR _this$[ebp]
  00061	e8 00 00 00 00	 call	 ?_Tidy@?$vector@UInventorySelectItem@@V?$allocator@UInventorySelectItem@@@std@@@std@@IAEXXZ ; std::vector<InventorySelectItem,std::allocator<InventorySelectItem> >::_Tidy

; 542  : 			_RERAISE;

  00066	33 db		 xor	 ebx, ebx
  00068	53		 push	 ebx
  00069	53		 push	 ebx
  0006a	e8 00 00 00 00	 call	 __CxxThrowException@8
$LN38@vector:
$LN37@vector:
  0006f	cc		 int	 3
_TEXT	ENDS
;	COMDAT text$x
text$x	SEGMENT
__ehhandler$??0?$vector@UInventorySelectItem@@V?$allocator@UInventorySelectItem@@@std@@@std@@QAE@ABV01@@Z:
  00000	8b 54 24 08	 mov	 edx, DWORD PTR [esp+8]
  00004	8d 42 0c	 lea	 eax, DWORD PTR [edx+12]
  00007	8b 4a e8	 mov	 ecx, DWORD PTR [edx-24]
  0000a	33 c8		 xor	 ecx, eax
  0000c	e8 00 00 00 00	 call	 @__security_check_cookie@4
  00011	b8 00 00 00 00	 mov	 eax, OFFSET __ehfuncinfo$??0?$vector@UInventorySelectItem@@V?$allocator@UInventorySelectItem@@@std@@@std@@QAE@ABV01@@Z
  00016	e9 00 00 00 00	 jmp	 ___CxxFrameHandler3
text$x	ENDS
??0?$vector@UInventorySelectItem@@V?$allocator@UInventorySelectItem@@@std@@@std@@QAE@ABV01@@Z ENDP ; std::vector<InventorySelectItem,std::allocator<InventorySelectItem> >::vector<InventorySelectItem,std::allocator<InventorySelectItem> >
PUBLIC	??1?$vector@UInventorySelectItem@@V?$allocator@UInventorySelectItem@@@std@@@std@@QAE@XZ ; std::vector<InventorySelectItem,std::allocator<InventorySelectItem> >::~vector<InventorySelectItem,std::allocator<InventorySelectItem> >
; Function compile flags: /Ogsp
;	COMDAT ??1?$vector@UInventorySelectItem@@V?$allocator@UInventorySelectItem@@@std@@@std@@QAE@XZ
_TEXT	SEGMENT
??1?$vector@UInventorySelectItem@@V?$allocator@UInventorySelectItem@@@std@@@std@@QAE@XZ PROC ; std::vector<InventorySelectItem,std::allocator<InventorySelectItem> >::~vector<InventorySelectItem,std::allocator<InventorySelectItem> >, COMDAT
; _this$ = ecx

; 705  : 		_Tidy();

  00000	e9 00 00 00 00	 jmp	 ?_Tidy@?$vector@UInventorySelectItem@@V?$allocator@UInventorySelectItem@@@std@@@std@@IAEXXZ ; std::vector<InventorySelectItem,std::allocator<InventorySelectItem> >::_Tidy
??1?$vector@UInventorySelectItem@@V?$allocator@UInventorySelectItem@@@std@@@std@@QAE@XZ ENDP ; std::vector<InventorySelectItem,std::allocator<InventorySelectItem> >::~vector<InventorySelectItem,std::allocator<InventorySelectItem> >
_TEXT	ENDS
PUBLIC	?erase@?$vector@UInventorySelectItem@@V?$allocator@UInventorySelectItem@@@std@@@std@@QAE?AV?$_Vector_iterator@V?$_Vector_val@UInventorySelectItem@@V?$allocator@UInventorySelectItem@@@std@@@std@@@2@V?$_Vector_const_iterator@V?$_Vector_val@UInventorySelectItem@@V?$allocator@UInventorySelectItem@@@std@@@std@@@2@0@Z ; std::vector<InventorySelectItem,std::allocator<InventorySelectItem> >::erase
; Function compile flags: /Ogsp
;	COMDAT ?erase@?$vector@UInventorySelectItem@@V?$allocator@UInventorySelectItem@@@std@@@std@@QAE?AV?$_Vector_iterator@V?$_Vector_val@UInventorySelectItem@@V?$allocator@UInventorySelectItem@@@std@@@std@@@2@V?$_Vector_const_iterator@V?$_Vector_val@UInventorySelectItem@@V?$allocator@UInventorySelectItem@@@std@@@std@@@2@0@Z
_TEXT	SEGMENT
$T511578 = -4						; size = 4
___$ReturnUdt$ = 8					; size = 4
__First_arg$ = 12					; size = 4
__Cat$511524 = 16					; size = 1
__Last_arg$ = 16					; size = 4
?erase@?$vector@UInventorySelectItem@@V?$allocator@UInventorySelectItem@@@std@@@std@@QAE?AV?$_Vector_iterator@V?$_Vector_val@UInventorySelectItem@@V?$allocator@UInventorySelectItem@@@std@@@std@@@2@V?$_Vector_const_iterator@V?$_Vector_val@UInventorySelectItem@@V?$allocator@UInventorySelectItem@@@std@@@std@@@2@0@Z PROC ; std::vector<InventorySelectItem,std::allocator<InventorySelectItem> >::erase, COMDAT
; _this$ = ecx

; 1190 : 		{	// erase [_First, _Last)

  00000	55		 push	 ebp
  00001	8b ec		 mov	 ebp, esp
  00003	51		 push	 ecx

; 1191 : 		iterator _First = _Make_iter(_First_arg);

  00004	8b 45 08	 mov	 eax, DWORD PTR ___$ReturnUdt$[ebp]
  00007	56		 push	 esi
  00008	8b f1		 mov	 esi, ecx
  0000a	8b 4d 0c	 mov	 ecx, DWORD PTR __First_arg$[ebp]
  0000d	89 08		 mov	 DWORD PTR [eax], ecx

; 1192 : 		iterator _Last = _Make_iter(_Last_arg);
; 1193 : 
; 1194 : 		if (_First != _Last)

  0000f	3b 4d 10	 cmp	 ecx, DWORD PTR __Last_arg$[ebp]
  00012	74 37		 je	 SHORT $LN1@erase@2

; 1195 : 			{	// worth doing, copy down over hole
; 1196 :  #if _ITERATOR_DEBUG_LEVEL == 2
; 1197 : 			if (_Last < _First || _VICONT(_First) != this
; 1198 : 				|| _VIPTR(_First) < this->_Myfirst
; 1199 : 				|| this->_Mylast < _VIPTR(_Last))
; 1200 : 				_DEBUG_ERROR("vector erase iterator outside range");
; 1201 : 			pointer _Ptr = _Move(_VIPTR(_Last), this->_Mylast,
; 1202 : 				_VIPTR(_First));
; 1203 : 			_Orphan_range(_VIPTR(_First), this->_Mylast);
; 1204 : 
; 1205 :  #else /* _ITERATOR_DEBUG_LEVEL == 2 */
; 1206 : 			pointer _Ptr = _Move(_VIPTR(_Last), this->_Mylast,
; 1207 : 				_VIPTR(_First));

  00014	8b 46 04	 mov	 eax, DWORD PTR [esi+4]
  00017	53		 push	 ebx
  00018	57		 push	 edi
  00019	ff 75 10	 push	 DWORD PTR __Cat$511524[ebp]
  0001c	51		 push	 ecx
  0001d	50		 push	 eax
  0001e	ff 75 10	 push	 DWORD PTR __Last_arg$[ebp]
  00021	e8 00 00 00 00	 call	 ??$_Move@PAUInventorySelectItem@@PAU1@@std@@YAPAUInventorySelectItem@@PAU1@00U_Nonscalar_ptr_iterator_tag@0@@Z ; std::_Move<InventorySelectItem *,InventorySelectItem *>

; 1208 :  #endif /* _ITERATOR_DEBUG_LEVEL == 2 */
; 1209 : 
; 1210 : 			_Destroy(_Ptr, this->_Mylast);

  00026	8b 7e 04	 mov	 edi, DWORD PTR [esi+4]
  00029	8b d8		 mov	 ebx, eax
  0002b	83 c4 10	 add	 esp, 16			; 00000010H
  0002e	89 5d fc	 mov	 DWORD PTR $T511578[ebp], ebx
  00031	3b df		 cmp	 ebx, edi
  00033	74 11		 je	 SHORT $LN36@erase@2
$LL52@erase@2:
  00035	8b 4d fc	 mov	 ecx, DWORD PTR $T511578[ebp]
  00038	e8 00 00 00 00	 call	 ??1InventorySelectItem@@QAE@XZ
  0003d	83 45 fc 54	 add	 DWORD PTR $T511578[ebp], 84 ; 00000054H
  00041	39 7d fc	 cmp	 DWORD PTR $T511578[ebp], edi
  00044	75 ef		 jne	 SHORT $LL52@erase@2
$LN36@erase@2:

; 1211 : 			this->_Mylast = _Ptr;

  00046	5f		 pop	 edi
  00047	89 5e 04	 mov	 DWORD PTR [esi+4], ebx
  0004a	5b		 pop	 ebx
$LN1@erase@2:

; 1212 : 			}
; 1213 : 		return (_First);

  0004b	8b 45 08	 mov	 eax, DWORD PTR ___$ReturnUdt$[ebp]
  0004e	5e		 pop	 esi

; 1214 : 		}

  0004f	c9		 leave
  00050	c2 0c 00	 ret	 12			; 0000000cH
?erase@?$vector@UInventorySelectItem@@V?$allocator@UInventorySelectItem@@@std@@@std@@QAE?AV?$_Vector_iterator@V?$_Vector_val@UInventorySelectItem@@V?$allocator@UInventorySelectItem@@@std@@@std@@@2@V?$_Vector_const_iterator@V?$_Vector_val@UInventorySelectItem@@V?$allocator@UInventorySelectItem@@@std@@@std@@@2@0@Z ENDP ; std::vector<InventorySelectItem,std::allocator<InventorySelectItem> >::erase
_TEXT	ENDS
PUBLIC	?_Reserve@?$vector@UInventorySelectItem@@V?$allocator@UInventorySelectItem@@@std@@@std@@IAEXI@Z ; std::vector<InventorySelectItem,std::allocator<InventorySelectItem> >::_Reserve
; Function compile flags: /Ogsp
;	COMDAT ?_Reserve@?$vector@UInventorySelectItem@@V?$allocator@UInventorySelectItem@@@std@@@std@@IAEXI@Z
_TEXT	SEGMENT
__Count$ = 8						; size = 4
?_Reserve@?$vector@UInventorySelectItem@@V?$allocator@UInventorySelectItem@@@std@@@std@@IAEXI@Z PROC ; std::vector<InventorySelectItem,std::allocator<InventorySelectItem> >::_Reserve, COMDAT
; _this$ = ecx

; 1290 : 		{	// ensure room for _Count new elements, grow exponentially

  00000	55		 push	 ebp
  00001	8b ec		 mov	 ebp, esp
  00003	56		 push	 esi
  00004	8b f1		 mov	 esi, ecx

; 1291 : 		size_type _Size = size();

  00006	8b 0e		 mov	 ecx, DWORD PTR [esi]
  00008	8b 46 04	 mov	 eax, DWORD PTR [esi+4]
  0000b	2b c1		 sub	 eax, ecx
  0000d	57		 push	 edi
  0000e	99		 cdq
  0000f	6a 54		 push	 84			; 00000054H
  00011	5f		 pop	 edi
  00012	f7 ff		 idiv	 edi
  00014	8b f8		 mov	 edi, eax

; 1292 : 		if (max_size() - _Count < _Size)

  00016	b8 c3 30 0c 03	 mov	 eax, 51130563		; 030c30c3H
  0001b	2b 45 08	 sub	 eax, DWORD PTR __Count$[ebp]
  0001e	3b c7		 cmp	 eax, edi
  00020	73 0b		 jae	 SHORT $LN4@Reserve

; 1293 : 			_Xlen();

  00022	68 00 00 00 00	 push	 OFFSET ??_C@_0BD@OLBABOEK@vector?$DMT?$DO?5too?5long?$AA@
  00027	ff 15 00 00 00
	00		 call	 DWORD PTR __imp_?_Xlength_error@std@@YAXPBD@Z
$LN21@Reserve:
$LN4@Reserve:

; 1294 : 		else if ((_Size += _Count) <= capacity())

  0002d	8b 46 08	 mov	 eax, DWORD PTR [esi+8]
  00030	2b c1		 sub	 eax, ecx
  00032	6a 54		 push	 84			; 00000054H
  00034	99		 cdq
  00035	59		 pop	 ecx
  00036	f7 f9		 idiv	 ecx
  00038	03 7d 08	 add	 edi, DWORD PTR __Count$[ebp]
  0003b	3b f8		 cmp	 edi, eax
  0003d	76 10		 jbe	 SHORT $LN1@Reserve

; 1295 : 			;
; 1296 : 		else
; 1297 : 			reserve(_Grow_to(_Size));

  0003f	57		 push	 edi
  00040	8b ce		 mov	 ecx, esi
  00042	e8 00 00 00 00	 call	 ?_Grow_to@?$vector@UInventorySelectItem@@V?$allocator@UInventorySelectItem@@@std@@@std@@IBEII@Z ; std::vector<InventorySelectItem,std::allocator<InventorySelectItem> >::_Grow_to
  00047	50		 push	 eax
  00048	8b ce		 mov	 ecx, esi
  0004a	e8 00 00 00 00	 call	 ?reserve@?$vector@UInventorySelectItem@@V?$allocator@UInventorySelectItem@@@std@@@std@@QAEXI@Z ; std::vector<InventorySelectItem,std::allocator<InventorySelectItem> >::reserve
$LN1@Reserve:
  0004f	5f		 pop	 edi
  00050	5e		 pop	 esi

; 1298 : 		}

  00051	5d		 pop	 ebp
  00052	c2 04 00	 ret	 4
$LN20@Reserve:
?_Reserve@?$vector@UInventorySelectItem@@V?$allocator@UInventorySelectItem@@@std@@@std@@IAEXI@Z ENDP ; std::vector<InventorySelectItem,std::allocator<InventorySelectItem> >::_Reserve
_TEXT	ENDS
PUBLIC	?_Tidy@?$vector@VioHashString@@V?$allocator@VioHashString@@@std@@@std@@IAEXXZ ; std::vector<ioHashString,std::allocator<ioHashString> >::_Tidy
; Function compile flags: /Ogsp
;	COMDAT ?_Tidy@?$vector@VioHashString@@V?$allocator@VioHashString@@@std@@@std@@IAEXXZ
_TEXT	SEGMENT
?_Tidy@?$vector@VioHashString@@V?$allocator@VioHashString@@@std@@@std@@IAEXXZ PROC ; std::vector<ioHashString,std::allocator<ioHashString> >::_Tidy, COMDAT
; _this$ = ecx

; 1301 : 		{	// free all storage

  00000	56		 push	 esi
  00001	8b f1		 mov	 esi, ecx

; 1302 : 		if (this->_Myfirst != 0)

  00003	83 3e 00	 cmp	 DWORD PTR [esi], 0
  00006	74 28		 je	 SHORT $LN24@Tidy@3

; 1303 : 			{	// something to free, destroy and deallocate it
; 1304 : 			this->_Orphan_all();

  00008	53		 push	 ebx
  00009	57		 push	 edi
  0000a	ff 15 00 00 00
	00		 call	 DWORD PTR __imp_?_Orphan_all@_Container_base0@std@@QAEXXZ

; 1305 : 			_Destroy(this->_Myfirst, this->_Mylast);

  00010	8b 5e 04	 mov	 ebx, DWORD PTR [esi+4]
  00013	8b 3e		 mov	 edi, DWORD PTR [esi]
  00015	eb 0b		 jmp	 SHORT $LN28@Tidy@3
$LL12@Tidy@3:
  00017	8b cf		 mov	 ecx, edi
  00019	ff 15 00 00 00
	00		 call	 DWORD PTR __imp_??1ioHashString@@QAE@XZ
  0001f	83 c7 10	 add	 edi, 16			; 00000010H
$LN28@Tidy@3:
  00022	3b fb		 cmp	 edi, ebx
  00024	75 f1		 jne	 SHORT $LL12@Tidy@3

; 1306 : 			this->_Alval.deallocate(this->_Myfirst,
; 1307 : 				this->_Myend - this->_Myfirst);

  00026	ff 36		 push	 DWORD PTR [esi]
  00028	e8 00 00 00 00	 call	 ??3@YAXPAX@Z		; operator delete
  0002d	59		 pop	 ecx
  0002e	5f		 pop	 edi
  0002f	5b		 pop	 ebx
$LN24@Tidy@3:

; 1308 : 			}
; 1309 : 		this->_Myfirst = 0;

  00030	33 c0		 xor	 eax, eax
  00032	89 06		 mov	 DWORD PTR [esi], eax

; 1310 : 		this->_Mylast = 0;

  00034	89 46 04	 mov	 DWORD PTR [esi+4], eax

; 1311 : 		this->_Myend = 0;

  00037	89 46 08	 mov	 DWORD PTR [esi+8], eax
  0003a	5e		 pop	 esi

; 1312 : 		}

  0003b	c3		 ret	 0
?_Tidy@?$vector@VioHashString@@V?$allocator@VioHashString@@@std@@@std@@IAEXXZ ENDP ; std::vector<ioHashString,std::allocator<ioHashString> >::_Tidy
_TEXT	ENDS
PUBLIC	??_7InventorySelectItemWnd@@6B@			; InventorySelectItemWnd::`vftable'
PUBLIC	??1InventorySelectItemWnd@@UAE@XZ		; InventorySelectItemWnd::~InventorySelectItemWnd
PUBLIC	??_R4InventorySelectItemWnd@@6B@		; InventorySelectItemWnd::`RTTI Complete Object Locator'
PUBLIC	??_R0?AVInventorySelectItemWnd@@@8		; InventorySelectItemWnd `RTTI Type Descriptor'
PUBLIC	??_R3InventorySelectItemWnd@@8			; InventorySelectItemWnd::`RTTI Class Hierarchy Descriptor'
PUBLIC	??_R2InventorySelectItemWnd@@8			; InventorySelectItemWnd::`RTTI Base Class Array'
PUBLIC	??_R1A@?0A@EA@InventorySelectItemWnd@@8		; InventorySelectItemWnd::`RTTI Base Class Descriptor at (0,-1,0,64)'
PUBLIC	?iwm_command@InventorySelectItemWnd@@UAEXPAVioWnd@@HK@Z ; InventorySelectItemWnd::iwm_command
EXTRN	?ParseExtraInfo@ioWnd@@UAEXAAVioXMLElement@@@Z:PROC ; ioWnd::ParseExtraInfo
EXTRN	??_EInventorySelectItemWnd@@UAEPAXI@Z:PROC	; InventorySelectItemWnd::`vector deleting destructor'
;	COMDAT ??_R1A@?0A@EA@InventorySelectItemWnd@@8
rdata$r	SEGMENT
??_R1A@?0A@EA@InventorySelectItemWnd@@8 DD FLAT:??_R0?AVInventorySelectItemWnd@@@8 ; InventorySelectItemWnd::`RTTI Base Class Descriptor at (0,-1,0,64)'
	DD	01H
	DD	00H
	DD	0ffffffffH
	DD	00H
	DD	040H
	DD	FLAT:??_R3InventorySelectItemWnd@@8
rdata$r	ENDS
;	COMDAT ??_R2InventorySelectItemWnd@@8
rdata$r	SEGMENT
??_R2InventorySelectItemWnd@@8 DD FLAT:??_R1A@?0A@EA@InventorySelectItemWnd@@8 ; InventorySelectItemWnd::`RTTI Base Class Array'
	DD	FLAT:??_R1A@?0A@EA@ioWnd@@8
rdata$r	ENDS
;	COMDAT ??_R3InventorySelectItemWnd@@8
rdata$r	SEGMENT
??_R3InventorySelectItemWnd@@8 DD 00H			; InventorySelectItemWnd::`RTTI Class Hierarchy Descriptor'
	DD	00H
	DD	02H
	DD	FLAT:??_R2InventorySelectItemWnd@@8
rdata$r	ENDS
;	COMDAT ??_R0?AVInventorySelectItemWnd@@@8
_DATA	SEGMENT
??_R0?AVInventorySelectItemWnd@@@8 DD FLAT:??_7type_info@@6B@ ; InventorySelectItemWnd `RTTI Type Descriptor'
	DD	00H
	DB	'.?AVInventorySelectItemWnd@@', 00H
_DATA	ENDS
;	COMDAT ??_R4InventorySelectItemWnd@@6B@
rdata$r	SEGMENT
??_R4InventorySelectItemWnd@@6B@ DD 00H			; InventorySelectItemWnd::`RTTI Complete Object Locator'
	DD	00H
	DD	00H
	DD	FLAT:??_R0?AVInventorySelectItemWnd@@@8
	DD	FLAT:??_R3InventorySelectItemWnd@@8
rdata$r	ENDS
;	COMDAT ??_7InventorySelectItemWnd@@6B@
CONST	SEGMENT
??_7InventorySelectItemWnd@@6B@ DD FLAT:??_R4InventorySelectItemWnd@@6B@ ; InventorySelectItemWnd::`vftable'
	DD	FLAT:?AddRenderFrame@InventorySelectItemWnd@@MAEXABVioHashString@@PAVioUIRenderFrame@@@Z
	DD	FLAT:?AddRenderImage@ioWnd@@UAEXABVioHashString@@PAVioUIRenderImage@@@Z
	DD	FLAT:?AddTooltipHelp@ioWnd@@UAEXABVioHashString@@00@Z
	DD	FLAT:?ParseExtraInfo@ioWnd@@UAEXAAVioXMLElement@@@Z
	DD	FLAT:?AddNamedRenderImage@ioWnd@@UAEXABVioHashString@@PAVioUIRenderImage@@@Z
	DD	FLAT:?RemoveNamedRenderImage@ioWnd@@UAEXABVioHashString@@@Z
	DD	FLAT:?GetNamedRenderImage@ioWnd@@UBEPAVioUIRenderImage@@ABVioHashString@@@Z
	DD	FLAT:?SetWindowAlpha@ioWnd@@UAEXH@Z
	DD	FLAT:?SetActive@ioWnd@@UAEXXZ
	DD	FLAT:?SetInActive@ioWnd@@UAEXXZ
	DD	FLAT:?ClearElementImageList@ioWnd@@UAEXXZ
	DD	FLAT:?SetSize@ioWnd@@UAEXHH@Z
	DD	FLAT:?SetPositionToDefault@ioWnd@@UAEXHH_N0@Z
	DD	FLAT:?IsNeedProcess@ioWnd@@UBE_NXZ
	DD	FLAT:?IsCanMouseReaction@ioWnd@@UBE_NXZ
	DD	FLAT:?AddChild@ioWnd@@UAEXPAV1@@Z
	DD	FLAT:?DeleteChild@ioWnd@@UAEXK@Z
	DD	FLAT:?DeleteAllChild@ioWnd@@UAEXXZ
	DD	FLAT:?OnRenderShowAndHide@ioWnd@@MAE_NXZ
	DD	FLAT:?OnRenderShowAndHideByDefault@ioWnd@@MAE_NK@Z
	DD	FLAT:?OnRenderShowAndHideByTop@ioWnd@@MAE_NK@Z
	DD	FLAT:?OnRenderShowAndHideByDown@ioWnd@@MAE_NK@Z
	DD	FLAT:?OnRender@InventorySelectItemWnd@@MAEXXZ
	DD	FLAT:?OnRenderAfterChild@ioWnd@@MAEXXZ
	DD	FLAT:?OnProcess@InventorySelectItemWnd@@MAEXM@Z
	DD	FLAT:?OnMouseProcess@ioWnd@@MAEXABVioMouse@@@Z
	DD	FLAT:?CheckFrameReSize@ioWnd@@MAEXHHHH@Z
	DD	FLAT:?RenderImageList@ioWnd@@MAEXHHW4UIRenderType@@@Z
	DD	FLAT:?iwm_create@ioWnd@@UAEXXZ
	DD	FLAT:?iwm_destroy@ioWnd@@UAEXXZ
	DD	FLAT:?iwm_lbuttondown@ioWnd@@UAEXABVioMouse@@@Z
	DD	FLAT:?iwm_lbuttonup@ioWnd@@UAEXABVioMouse@@@Z
	DD	FLAT:?iwm_lbuttonDBLCLK@ioWnd@@UAEXABVioMouse@@@Z
	DD	FLAT:?iwm_rbuttondown@ioWnd@@UAEXABVioMouse@@@Z
	DD	FLAT:?iwm_rbuttonup@ioWnd@@UAEXABVioMouse@@@Z
	DD	FLAT:?iwm_command@InventorySelectItemWnd@@UAEXPAVioWnd@@HK@Z
	DD	FLAT:?iwm_mouseover@ioWnd@@UAEXABVioMouse@@@Z
	DD	FLAT:?iwm_mousemove@ioWnd@@UAEXABVioMouse@@@Z
	DD	FLAT:?iwm_mouseleave@ioWnd@@UAEXABVioMouse@@@Z
	DD	FLAT:?iwm_vscroll@InventorySelectItemWnd@@UAEXKH@Z
	DD	FLAT:?iwm_wheel@InventorySelectItemWnd@@UAEXH@Z
	DD	FLAT:?iwm_show@ioWnd@@UAEXXZ
	DD	FLAT:?iwm_hide@InventorySelectItemWnd@@UAEXXZ
	DD	FLAT:?iwm_esc@ioWnd@@UAE_NXZ
	DD	FLAT:?iwm_spacebar@ioWnd@@UAE_NXZ
	DD	FLAT:?iwm_gototop@ioWnd@@UAEXXZ
	DD	FLAT:?iwm_dragenter@ioWnd@@UAE?AW4IWDropEffect@@PAVioDragItem@@ABVioMouse@@@Z
	DD	FLAT:?iwm_dragover@ioWnd@@UAE?AW4IWDropEffect@@PAVioDragItem@@ABVioMouse@@@Z
	DD	FLAT:?iwm_dragleave@ioWnd@@UAEXXZ
	DD	FLAT:?iwm_dropitem@ioWnd@@UAE_NPAVioDragItem@@ABVioMouse@@PAV1@@Z
	DD	FLAT:?iwm_dropdone@ioWnd@@UAEXPAVioDragItem@@PAV1@_N@Z
	DD	FLAT:?IsEXType@ioWnd@@UBE_NXZ
	DD	FLAT:?GetWndType@ioWnd@@UBEKXZ
	DD	FLAT:?RenderWnd@ioWnd@@UAEXXZ
	DD	FLAT:?SetIDEX@ioWnd@@UAEXAAK_N@Z
	DD	FLAT:?ParseXML@ioWnd@@UAEXAAVioXMLElement@@@Z
	DD	FLAT:?GetHeaderFileName@ioWnd@@UAEPBDXZ
	DD	FLAT:?GetTemplateName@ioWnd@@UAEPBDXZ
	DD	FLAT:?GetDefClassName@ioWnd@@UBEPBDXZ
	DD	FLAT:?_Clone@ioWnd@@UAEPAV1@XZ
	DD	FLAT:?Copy@ioWnd@@UAEXPAV1@@Z
	DD	FLAT:?Save@ioWnd@@UAE_NAAVioXMLElement@@@Z
	DD	FLAT:?SetSaveData@ioWnd@@UAEXAAVioXMLElement@@@Z
	DD	FLAT:?SetPosX@ioWnd@@UAEXH@Z
	DD	FLAT:?SetPosY@ioWnd@@UAEXH@Z
	DD	FLAT:?SetWidth@ioWnd@@UAEXH@Z
	DD	FLAT:?SetHeight@ioWnd@@UAEXH@Z
	DD	FLAT:?GetNumFixedRenderFrame@ioWnd@@UBEHXZ
	DD	FLAT:?GetFixedRenderFrameType@ioWnd@@UAEPBDH@Z
	DD	FLAT:?GetRenderFrame@ioWnd@@UAEPAPAVioUIRenderElement@@PBD@Z
	DD	FLAT:?GetNumFixedRenderImage@ioWnd@@UBEHXZ
	DD	FLAT:?GetFixedRenderImageType@ioWnd@@UAEPBDH@Z
	DD	FLAT:?GetRenderImage@ioWnd@@UAEPAPAVioUIRenderElement@@PBD@Z
	DD	FLAT:?AddEffect@ioWnd@@UAEXABVioHashString@@PAVioUI3DEffectRender@@@Z
	DD	FLAT:?GetEffect@ioWnd@@UAEPAVioUI3DEffectRender@@VioHashString@@@Z
	DD	FLAT:??_EInventorySelectItemWnd@@UAEPAXI@Z
CONST	ENDS
;	COMDAT xdata$x
xdata$x	SEGMENT
__unwindtable$??1InventorySelectItemWnd@@UAE@XZ DD 0ffffffffH
	DD	FLAT:__unwindfunclet$??1InventorySelectItemWnd@@UAE@XZ$0
	DD	00H
	DD	FLAT:__unwindfunclet$??1InventorySelectItemWnd@@UAE@XZ$1
	DD	01H
	DD	FLAT:__unwindfunclet$??1InventorySelectItemWnd@@UAE@XZ$2
	DD	02H
	DD	FLAT:__unwindfunclet$??1InventorySelectItemWnd@@UAE@XZ$3
__ehfuncinfo$??1InventorySelectItemWnd@@UAE@XZ DD 019930522H
	DD	04H
	DD	FLAT:__unwindtable$??1InventorySelectItemWnd@@UAE@XZ
	DD	2 DUP(00H)
	DD	2 DUP(00H)
	DD	00H
	DD	01H
; Function compile flags: /Ogsp
; File d:\lost saga for developer\youtube\tutorial\source\src\lsclient\gui\inventoryselectitemwnd.cpp
xdata$x	ENDS
;	COMDAT ??1InventorySelectItemWnd@@UAE@XZ
_TEXT	SEGMENT
_this$ = -16						; size = 4
__$EHRec$ = -12						; size = 12
??1InventorySelectItemWnd@@UAE@XZ PROC			; InventorySelectItemWnd::~InventorySelectItemWnd, COMDAT
; _this$ = ecx

; 269  : {

  00000	6a 04		 push	 4
  00002	b8 00 00 00 00	 mov	 eax, __ehhandler$??1InventorySelectItemWnd@@UAE@XZ
  00007	e8 00 00 00 00	 call	 __EH_prolog3
  0000c	8b f1		 mov	 esi, ecx
  0000e	89 75 f0	 mov	 DWORD PTR _this$[ebp], esi
  00011	c7 06 00 00 00
	00		 mov	 DWORD PTR [esi], OFFSET ??_7InventorySelectItemWnd@@6B@

; 270  : 	SAFEDELETE( m_pEditFrm );

  00017	8b 8e 74 01 00
	00		 mov	 ecx, DWORD PTR [esi+372]
  0001d	c7 45 fc 03 00
	00 00		 mov	 DWORD PTR __$EHRec$[ebp+8], 3
  00024	85 c9		 test	 ecx, ecx
  00026	74 0e		 je	 SHORT $LN1@InventoryS@2
  00028	8b 01		 mov	 eax, DWORD PTR [ecx]
  0002a	6a 01		 push	 1
  0002c	ff 50 40	 call	 DWORD PTR [eax+64]
  0002f	83 a6 74 01 00
	00 00		 and	 DWORD PTR [esi+372], 0
$LN1@InventoryS@2:

; 271  : 	m_pPreSelectedWnd = NULL;

  00036	83 a6 a8 01 00
	00 00		 and	 DWORD PTR [esi+424], 0

; 272  : }

  0003d	8d 8e 98 01 00
	00		 lea	 ecx, DWORD PTR [esi+408]
  00043	c6 45 fc 02	 mov	 BYTE PTR __$EHRec$[ebp+8], 2
  00047	e8 00 00 00 00	 call	 ?_Tidy@?$vector@UInventorySelectItem@@V?$allocator@UInventorySelectItem@@@std@@@std@@IAEXXZ ; std::vector<InventorySelectItem,std::allocator<InventorySelectItem> >::_Tidy
  0004c	8d 8e 88 01 00
	00		 lea	 ecx, DWORD PTR [esi+392]
  00052	c6 45 fc 01	 mov	 BYTE PTR __$EHRec$[ebp+8], 1
  00056	e8 00 00 00 00	 call	 ?_Tidy@?$vector@UInventorySelectItem@@V?$allocator@UInventorySelectItem@@@std@@@std@@IAEXXZ ; std::vector<InventorySelectItem,std::allocator<InventorySelectItem> >::_Tidy
  0005b	8d 8e 78 01 00
	00		 lea	 ecx, DWORD PTR [esi+376]
  00061	c6 45 fc 00	 mov	 BYTE PTR __$EHRec$[ebp+8], 0
  00065	ff 15 00 00 00
	00		 call	 DWORD PTR __imp_??1ioHashString@@QAE@XZ
  0006b	83 4d fc ff	 or	 DWORD PTR __$EHRec$[ebp+8], -1
  0006f	8b ce		 mov	 ecx, esi
  00071	ff 15 00 00 00
	00		 call	 DWORD PTR __imp_??1ioWnd@@UAE@XZ
  00077	e8 00 00 00 00	 call	 __EH_epilog3
  0007c	c3		 ret	 0
_TEXT	ENDS
;	COMDAT text$x
text$x	SEGMENT
__unwindfunclet$??1InventorySelectItemWnd@@UAE@XZ$0:
  00000	8b 4d f0	 mov	 ecx, DWORD PTR _this$[ebp]
  00003	ff 25 00 00 00
	00		 jmp	 DWORD PTR __imp_??1ioWnd@@UAE@XZ
__unwindfunclet$??1InventorySelectItemWnd@@UAE@XZ$1:
  00009	8b 4d f0	 mov	 ecx, DWORD PTR _this$[ebp]
  0000c	81 c1 78 01 00
	00		 add	 ecx, 376		; 00000178H
  00012	ff 25 00 00 00
	00		 jmp	 DWORD PTR __imp_??1ioHashString@@QAE@XZ
__unwindfunclet$??1InventorySelectItemWnd@@UAE@XZ$2:
  00018	8b 4d f0	 mov	 ecx, DWORD PTR _this$[ebp]
  0001b	81 c1 88 01 00
	00		 add	 ecx, 392		; 00000188H
  00021	e9 00 00 00 00	 jmp	 ??1?$vector@UInventorySelectItem@@V?$allocator@UInventorySelectItem@@@std@@@std@@QAE@XZ ; std::vector<InventorySelectItem,std::allocator<InventorySelectItem> >::~vector<InventorySelectItem,std::allocator<InventorySelectItem> >
__unwindfunclet$??1InventorySelectItemWnd@@UAE@XZ$3:
  00026	8b 4d f0	 mov	 ecx, DWORD PTR _this$[ebp]
  00029	81 c1 98 01 00
	00		 add	 ecx, 408		; 00000198H
  0002f	e9 00 00 00 00	 jmp	 ??1?$vector@UInventorySelectItem@@V?$allocator@UInventorySelectItem@@@std@@@std@@QAE@XZ ; std::vector<InventorySelectItem,std::allocator<InventorySelectItem> >::~vector<InventorySelectItem,std::allocator<InventorySelectItem> >
__ehhandler$??1InventorySelectItemWnd@@UAE@XZ:
  00034	8b 54 24 08	 mov	 edx, DWORD PTR [esp+8]
  00038	8d 42 0c	 lea	 eax, DWORD PTR [edx+12]
  0003b	8b 4a ec	 mov	 ecx, DWORD PTR [edx-20]
  0003e	33 c8		 xor	 ecx, eax
  00040	e8 00 00 00 00	 call	 @__security_check_cookie@4
  00045	b8 00 00 00 00	 mov	 eax, OFFSET __ehfuncinfo$??1InventorySelectItemWnd@@UAE@XZ
  0004a	e9 00 00 00 00	 jmp	 ___CxxFrameHandler3
text$x	ENDS
??1InventorySelectItemWnd@@UAE@XZ ENDP			; InventorySelectItemWnd::~InventorySelectItemWnd
PUBLIC	?push_back@?$vector@UInventorySelectItem@@V?$allocator@UInventorySelectItem@@@std@@@std@@QAEXABUInventorySelectItem@@@Z ; std::vector<InventorySelectItem,std::allocator<InventorySelectItem> >::push_back
; Function compile flags: /Ogsp
; File c:\program files (x86)\microsoft visual studio 10.0\vc\include\vector
;	COMDAT ?push_back@?$vector@UInventorySelectItem@@V?$allocator@UInventorySelectItem@@@std@@@std@@QAEXABUInventorySelectItem@@@Z
_TEXT	SEGMENT
__Val$ = 8						; size = 4
?push_back@?$vector@UInventorySelectItem@@V?$allocator@UInventorySelectItem@@@std@@@std@@QAEXABUInventorySelectItem@@@Z PROC ; std::vector<InventorySelectItem,std::allocator<InventorySelectItem> >::push_back, COMDAT
; _this$ = ecx

; 976  : 		{	// insert element at end

  00000	55		 push	 ebp
  00001	8b ec		 mov	 ebp, esp
  00003	56		 push	 esi
  00004	8b f1		 mov	 esi, ecx

; 977  : 		if (_Inside(_STD addressof(_Val)))

  00006	8b 4e 04	 mov	 ecx, DWORD PTR [esi+4]
  00009	57		 push	 edi
  0000a	8b 7d 08	 mov	 edi, DWORD PTR __Val$[ebp]
  0000d	3b f9		 cmp	 edi, ecx
  0000f	73 37		 jae	 SHORT $LN4@push_back
  00011	8b 16		 mov	 edx, DWORD PTR [esi]
  00013	3b d7		 cmp	 edx, edi
  00015	77 31		 ja	 SHORT $LN4@push_back

; 978  : 			{	// push back an element
; 979  : 			size_type _Idx = _STD addressof(_Val) - this->_Myfirst;

  00017	8b c7		 mov	 eax, edi
  00019	2b c2		 sub	 eax, edx
  0001b	6a 54		 push	 84			; 00000054H
  0001d	99		 cdq
  0001e	5f		 pop	 edi
  0001f	f7 ff		 idiv	 edi
  00021	8b f8		 mov	 edi, eax

; 980  : 			if (this->_Mylast == this->_Myend)

  00023	3b 4e 08	 cmp	 ecx, DWORD PTR [esi+8]
  00026	75 09		 jne	 SHORT $LN3@push_back

; 981  : 				_Reserve(1);

  00028	6a 01		 push	 1
  0002a	8b ce		 mov	 ecx, esi
  0002c	e8 00 00 00 00	 call	 ?_Reserve@?$vector@UInventorySelectItem@@V?$allocator@UInventorySelectItem@@@std@@@std@@IAEXI@Z ; std::vector<InventorySelectItem,std::allocator<InventorySelectItem> >::_Reserve
$LN3@push_back:

; 982  : 			_Orphan_range(this->_Mylast, this->_Mylast);
; 983  : 			_Cons_val(this->_Alval,
; 984  : 				this->_Mylast,
; 985  : 				this->_Myfirst[_Idx]);

  00031	6b ff 54	 imul	 edi, 84			; 00000054H
  00034	03 3e		 add	 edi, DWORD PTR [esi]
  00036	8d 46 0c	 lea	 eax, DWORD PTR [esi+12]
  00039	57		 push	 edi
  0003a	ff 76 04	 push	 DWORD PTR [esi+4]
  0003d	50		 push	 eax
  0003e	e8 00 00 00 00	 call	 ??$_Cons_val@V?$allocator@UInventorySelectItem@@@std@@UInventorySelectItem@@AAU3@@std@@YAXAAV?$allocator@UInventorySelectItem@@@0@PAUInventorySelectItem@@AAU2@@Z ; std::_Cons_val<std::allocator<InventorySelectItem>,InventorySelectItem,InventorySelectItem &>
  00043	83 c4 0c	 add	 esp, 12			; 0000000cH

; 986  : 			++this->_Mylast;
; 987  : 			}
; 988  : 		else

  00046	eb 19		 jmp	 SHORT $LN26@push_back
$LN4@push_back:

; 989  : 			{	// push back a non-element
; 990  : 			if (this->_Mylast == this->_Myend)

  00048	3b 4e 08	 cmp	 ecx, DWORD PTR [esi+8]
  0004b	75 09		 jne	 SHORT $LN1@push_back

; 991  : 				_Reserve(1);

  0004d	6a 01		 push	 1
  0004f	8b ce		 mov	 ecx, esi
  00051	e8 00 00 00 00	 call	 ?_Reserve@?$vector@UInventorySelectItem@@V?$allocator@UInventorySelectItem@@@std@@@std@@IAEXI@Z ; std::vector<InventorySelectItem,std::allocator<InventorySelectItem> >::_Reserve
$LN1@push_back:

; 992  : 			_Orphan_range(this->_Mylast, this->_Mylast);
; 993  : 			_Cons_val(this->_Alval,
; 994  : 				this->_Mylast,
; 995  : 				_Val);

  00056	57		 push	 edi
  00057	ff 76 04	 push	 DWORD PTR [esi+4]
  0005a	e8 00 00 00 00	 call	 ??$_Construct@UInventorySelectItem@@ABU1@@std@@YAXPAUInventorySelectItem@@ABU1@@Z ; std::_Construct<InventorySelectItem,InventorySelectItem const &>
  0005f	59		 pop	 ecx
  00060	59		 pop	 ecx
$LN26@push_back:

; 996  : 			++this->_Mylast;

  00061	83 46 04 54	 add	 DWORD PTR [esi+4], 84	; 00000054H
  00065	5f		 pop	 edi
  00066	5e		 pop	 esi

; 997  : 			}
; 998  : 		}

  00067	5d		 pop	 ebp
  00068	c2 04 00	 ret	 4
?push_back@?$vector@UInventorySelectItem@@V?$allocator@UInventorySelectItem@@@std@@@std@@QAEXABUInventorySelectItem@@@Z ENDP ; std::vector<InventorySelectItem,std::allocator<InventorySelectItem> >::push_back
_TEXT	ENDS
PUBLIC	?clear@?$vector@UInventorySelectItem@@V?$allocator@UInventorySelectItem@@@std@@@std@@QAEXXZ ; std::vector<InventorySelectItem,std::allocator<InventorySelectItem> >::clear
; Function compile flags: /Ogsp
;	COMDAT ?clear@?$vector@UInventorySelectItem@@V?$allocator@UInventorySelectItem@@@std@@@std@@QAEXXZ
_TEXT	SEGMENT
$T511836 = -4						; size = 4
?clear@?$vector@UInventorySelectItem@@V?$allocator@UInventorySelectItem@@@std@@@std@@QAEXXZ PROC ; std::vector<InventorySelectItem,std::allocator<InventorySelectItem> >::clear, COMDAT
; _this$ = ecx

; 1217 : 		{	// erase all

  00000	55		 push	 ebp
  00001	8b ec		 mov	 ebp, esp
  00003	51		 push	 ecx

; 1218 : 		erase(begin(), end());

  00004	8b 41 04	 mov	 eax, DWORD PTR [ecx+4]
  00007	8b 11		 mov	 edx, DWORD PTR [ecx]
  00009	50		 push	 eax
  0000a	52		 push	 edx
  0000b	8d 45 fc	 lea	 eax, DWORD PTR $T511836[ebp]
  0000e	50		 push	 eax
  0000f	e8 00 00 00 00	 call	 ?erase@?$vector@UInventorySelectItem@@V?$allocator@UInventorySelectItem@@@std@@@std@@QAE?AV?$_Vector_iterator@V?$_Vector_val@UInventorySelectItem@@V?$allocator@UInventorySelectItem@@@std@@@std@@@2@V?$_Vector_const_iterator@V?$_Vector_val@UInventorySelectItem@@V?$allocator@UInventorySelectItem@@@std@@@std@@@2@0@Z ; std::vector<InventorySelectItem,std::allocator<InventorySelectItem> >::erase

; 1219 : 		}

  00014	c9		 leave
  00015	c3		 ret	 0
?clear@?$vector@UInventorySelectItem@@V?$allocator@UInventorySelectItem@@@std@@@std@@QAEXXZ ENDP ; std::vector<InventorySelectItem,std::allocator<InventorySelectItem> >::clear
_TEXT	ENDS
PUBLIC	??1?$vector@VioHashString@@V?$allocator@VioHashString@@@std@@@std@@QAE@XZ ; std::vector<ioHashString,std::allocator<ioHashString> >::~vector<ioHashString,std::allocator<ioHashString> >
; Function compile flags: /Ogsp
;	COMDAT ??1?$vector@VioHashString@@V?$allocator@VioHashString@@@std@@@std@@QAE@XZ
_TEXT	SEGMENT
??1?$vector@VioHashString@@V?$allocator@VioHashString@@@std@@@std@@QAE@XZ PROC ; std::vector<ioHashString,std::allocator<ioHashString> >::~vector<ioHashString,std::allocator<ioHashString> >, COMDAT
; _this$ = ecx

; 705  : 		_Tidy();

  00000	e9 00 00 00 00	 jmp	 ?_Tidy@?$vector@VioHashString@@V?$allocator@VioHashString@@@std@@@std@@IAEXXZ ; std::vector<ioHashString,std::allocator<ioHashString> >::_Tidy
??1?$vector@VioHashString@@V?$allocator@VioHashString@@@std@@@std@@QAE@XZ ENDP ; std::vector<ioHashString,std::allocator<ioHashString> >::~vector<ioHashString,std::allocator<ioHashString> >
_TEXT	ENDS
PUBLIC	??0InventorySelectItemWnd@@QAE@XZ		; InventorySelectItemWnd::InventorySelectItemWnd
;	COMDAT xdata$x
; File c:\program files (x86)\microsoft visual studio 10.0\vc\include\xutility
xdata$x	SEGMENT
__unwindtable$??0InventorySelectItemWnd@@QAE@XZ DD 0ffffffffH
	DD	FLAT:__unwindfunclet$??0InventorySelectItemWnd@@QAE@XZ$0
	DD	00H
	DD	FLAT:__unwindfunclet$??0InventorySelectItemWnd@@QAE@XZ$1
	DD	01H
	DD	FLAT:__unwindfunclet$??0InventorySelectItemWnd@@QAE@XZ$2
	DD	02H
	DD	FLAT:__unwindfunclet$??0InventorySelectItemWnd@@QAE@XZ$3
__ehfuncinfo$??0InventorySelectItemWnd@@QAE@XZ DD 019930522H
	DD	04H
	DD	FLAT:__unwindtable$??0InventorySelectItemWnd@@QAE@XZ
	DD	2 DUP(00H)
	DD	2 DUP(00H)
	DD	00H
	DD	01H
; Function compile flags: /Ogsp
; File d:\lost saga for developer\youtube\tutorial\source\src\lsclient\gui\inventoryselectitemwnd.cpp
xdata$x	ENDS
;	COMDAT ??0InventorySelectItemWnd@@QAE@XZ
_TEXT	SEGMENT
$T512091 = -20						; size = 4
$T512018 = -20						; size = 4
_this$ = -16						; size = 4
__$EHRec$ = -12						; size = 12
??0InventorySelectItemWnd@@QAE@XZ PROC			; InventorySelectItemWnd::InventorySelectItemWnd, COMDAT
; _this$ = ecx

; 258  : {

  00000	6a 08		 push	 8
  00002	b8 00 00 00 00	 mov	 eax, __ehhandler$??0InventorySelectItemWnd@@QAE@XZ
  00007	e8 00 00 00 00	 call	 __EH_prolog3
  0000c	8b f1		 mov	 esi, ecx
  0000e	89 75 f0	 mov	 DWORD PTR _this$[ebp], esi
  00011	ff 15 00 00 00
	00		 call	 DWORD PTR __imp_??0ioWnd@@QAE@XZ
  00017	33 db		 xor	 ebx, ebx
  00019	8d 8e 78 01 00
	00		 lea	 ecx, DWORD PTR [esi+376]
  0001f	89 5d fc	 mov	 DWORD PTR __$EHRec$[ebp+8], ebx
  00022	c7 06 00 00 00
	00		 mov	 DWORD PTR [esi], OFFSET ??_7InventorySelectItemWnd@@6B@
  00028	ff 15 00 00 00
	00		 call	 DWORD PTR __imp_??0ioHashString@@QAE@XZ
  0002e	89 9e 88 01 00
	00		 mov	 DWORD PTR [esi+392], ebx
  00034	89 9e 8c 01 00
	00		 mov	 DWORD PTR [esi+396], ebx
  0003a	89 9e 90 01 00
	00		 mov	 DWORD PTR [esi+400], ebx
  00040	33 c0		 xor	 eax, eax
  00042	89 86 98 01 00
	00		 mov	 DWORD PTR [esi+408], eax
  00048	89 86 9c 01 00
	00		 mov	 DWORD PTR [esi+412], eax
  0004e	89 86 a0 01 00
	00		 mov	 DWORD PTR [esi+416], eax

; 259  : 	m_iCurPage			= 0;
; 260  : 	m_pEditFrm			= NULL;
; 261  : 	m_pPreSelectedWnd	= NULL;
; 262  : 	m_szCurrFindKeyword.Clear();

  00054	8d 8e 78 01 00
	00		 lea	 ecx, DWORD PTR [esi+376]
  0005a	c6 45 fc 03	 mov	 BYTE PTR __$EHRec$[ebp+8], 3
  0005e	89 86 60 01 00
	00		 mov	 DWORD PTR [esi+352], eax
  00064	89 86 74 01 00
	00		 mov	 DWORD PTR [esi+372], eax
  0006a	89 86 a8 01 00
	00		 mov	 DWORD PTR [esi+424], eax
  00070	ff 15 00 00 00
	00		 call	 DWORD PTR __imp_?Clear@ioHashString@@QAEXXZ

; 263  : 	m_vAllItemList.clear();

  00076	8b 86 8c 01 00
	00		 mov	 eax, DWORD PTR [esi+396]
  0007c	8b 8e 88 01 00
	00		 mov	 ecx, DWORD PTR [esi+392]
  00082	50		 push	 eax
  00083	51		 push	 ecx
  00084	8d 45 ec	 lea	 eax, DWORD PTR $T512018[ebp]
  00087	50		 push	 eax
  00088	8d 8e 88 01 00
	00		 lea	 ecx, DWORD PTR [esi+392]
  0008e	e8 00 00 00 00	 call	 ?erase@?$vector@UInventorySelectItem@@V?$allocator@UInventorySelectItem@@@std@@@std@@QAE?AV?$_Vector_iterator@V?$_Vector_val@UInventorySelectItem@@V?$allocator@UInventorySelectItem@@@std@@@std@@@2@V?$_Vector_const_iterator@V?$_Vector_val@UInventorySelectItem@@V?$allocator@UInventorySelectItem@@@std@@@std@@@2@0@Z ; std::vector<InventorySelectItem,std::allocator<InventorySelectItem> >::erase

; 264  : 	m_vCurItemList.clear();

  00093	8b 86 9c 01 00
	00		 mov	 eax, DWORD PTR [esi+412]
  00099	8b 8e 98 01 00
	00		 mov	 ecx, DWORD PTR [esi+408]
  0009f	50		 push	 eax
  000a0	51		 push	 ecx
  000a1	8d 45 ec	 lea	 eax, DWORD PTR $T512091[ebp]
  000a4	50		 push	 eax
  000a5	8d 8e 98 01 00
	00		 lea	 ecx, DWORD PTR [esi+408]
  000ab	e8 00 00 00 00	 call	 ?erase@?$vector@UInventorySelectItem@@V?$allocator@UInventorySelectItem@@@std@@@std@@QAE?AV?$_Vector_iterator@V?$_Vector_val@UInventorySelectItem@@V?$allocator@UInventorySelectItem@@@std@@@std@@@2@V?$_Vector_const_iterator@V?$_Vector_val@UInventorySelectItem@@V?$allocator@UInventorySelectItem@@@std@@@std@@@2@0@Z ; std::vector<InventorySelectItem,std::allocator<InventorySelectItem> >::erase

; 265  : 	m_bIsCostume = false;

  000b0	88 9e b0 01 00
	00		 mov	 BYTE PTR [esi+432], bl

; 266  : }

  000b6	8b c6		 mov	 eax, esi
  000b8	e8 00 00 00 00	 call	 __EH_epilog3
  000bd	c3		 ret	 0
_TEXT	ENDS
;	COMDAT text$x
text$x	SEGMENT
__unwindfunclet$??0InventorySelectItemWnd@@QAE@XZ$0:
  00000	8b 4d f0	 mov	 ecx, DWORD PTR _this$[ebp]
  00003	ff 25 00 00 00
	00		 jmp	 DWORD PTR __imp_??1ioWnd@@UAE@XZ
__unwindfunclet$??0InventorySelectItemWnd@@QAE@XZ$1:
  00009	8b 4d f0	 mov	 ecx, DWORD PTR _this$[ebp]
  0000c	81 c1 78 01 00
	00		 add	 ecx, 376		; 00000178H
  00012	ff 25 00 00 00
	00		 jmp	 DWORD PTR __imp_??1ioHashString@@QAE@XZ
__unwindfunclet$??0InventorySelectItemWnd@@QAE@XZ$2:
  00018	8b 4d f0	 mov	 ecx, DWORD PTR _this$[ebp]
  0001b	81 c1 88 01 00
	00		 add	 ecx, 392		; 00000188H
  00021	e9 00 00 00 00	 jmp	 ??1?$vector@UInventorySelectItem@@V?$allocator@UInventorySelectItem@@@std@@@std@@QAE@XZ ; std::vector<InventorySelectItem,std::allocator<InventorySelectItem> >::~vector<InventorySelectItem,std::allocator<InventorySelectItem> >
__unwindfunclet$??0InventorySelectItemWnd@@QAE@XZ$3:
  00026	8b 4d f0	 mov	 ecx, DWORD PTR _this$[ebp]
  00029	81 c1 98 01 00
	00		 add	 ecx, 408		; 00000198H
  0002f	e9 00 00 00 00	 jmp	 ??1?$vector@UInventorySelectItem@@V?$allocator@UInventorySelectItem@@@std@@@std@@QAE@XZ ; std::vector<InventorySelectItem,std::allocator<InventorySelectItem> >::~vector<InventorySelectItem,std::allocator<InventorySelectItem> >
__ehhandler$??0InventorySelectItemWnd@@QAE@XZ:
  00034	8b 54 24 08	 mov	 edx, DWORD PTR [esp+8]
  00038	8d 42 0c	 lea	 eax, DWORD PTR [edx+12]
  0003b	8b 4a e8	 mov	 ecx, DWORD PTR [edx-24]
  0003e	33 c8		 xor	 ecx, eax
  00040	e8 00 00 00 00	 call	 @__security_check_cookie@4
  00045	b8 00 00 00 00	 mov	 eax, OFFSET __ehfuncinfo$??0InventorySelectItemWnd@@QAE@XZ
  0004a	e9 00 00 00 00	 jmp	 ___CxxFrameHandler3
text$x	ENDS
??0InventorySelectItemWnd@@QAE@XZ ENDP			; InventorySelectItemWnd::InventorySelectItemWnd
; Function compile flags: /Ogsp
;	COMDAT ??_GInventorySelectItemWnd@@UAEPAXI@Z
_TEXT	SEGMENT
___flags$ = 8						; size = 4
??_GInventorySelectItemWnd@@UAEPAXI@Z PROC		; InventorySelectItemWnd::`scalar deleting destructor', COMDAT
; _this$ = ecx
  00000	55		 push	 ebp
  00001	8b ec		 mov	 ebp, esp
  00003	56		 push	 esi
  00004	8b f1		 mov	 esi, ecx
  00006	e8 00 00 00 00	 call	 ??1InventorySelectItemWnd@@UAE@XZ ; InventorySelectItemWnd::~InventorySelectItemWnd
  0000b	f6 45 08 01	 test	 BYTE PTR ___flags$[ebp], 1
  0000f	74 07		 je	 SHORT $LN1@scalar@7
  00011	56		 push	 esi
  00012	e8 00 00 00 00	 call	 ??3@YAXPAX@Z		; operator delete
  00017	59		 pop	 ecx
$LN1@scalar@7:
  00018	8b c6		 mov	 eax, esi
  0001a	5e		 pop	 esi
  0001b	5d		 pop	 ebp
  0001c	c2 04 00	 ret	 4
??_GInventorySelectItemWnd@@UAEPAXI@Z ENDP		; InventorySelectItemWnd::`scalar deleting destructor'
_TEXT	ENDS
PUBLIC	_this$GSCopy$
PUBLIC	?SetCurItemInfoVec@InventorySelectItemWnd@@IAEXKPBD@Z ; InventorySelectItemWnd::SetCurItemInfoVec
EXTRN	__imp__strstr:PROC
EXTRN	?Strstr@Help@@YA_NPBD0@Z:PROC			; Help::Strstr
EXTRN	?GetLocal@ioLocalManager@@QAEPAVioLocalParent@@W4LocalType@ioLocalManagerParent@@@Z:PROC ; ioLocalManager::GetLocal
EXTRN	?GetSingleton@ioLocalManager@@SAAAV1@XZ:PROC	; ioLocalManager::GetSingleton
EXTRN	__imp_?GetLocalType@ioLocalManagerParent@@SA?AW4LocalType@1@XZ:PROC
EXTRN	__imp__tolower:PROC
EXTRN	__EH_epilog3_GS:PROC
EXTRN	__EH_prolog3_GS:PROC
;	COMDAT xdata$x
; File c:\program files (x86)\microsoft visual studio 10.0\vc\include\vector
xdata$x	SEGMENT
__unwindtable$?SetCurItemInfoVec@InventorySelectItemWnd@@IAEXKPBD@Z DD 0ffffffffH
	DD	FLAT:__unwindfunclet$?SetCurItemInfoVec@InventorySelectItemWnd@@IAEXKPBD@Z$0
	DD	00H
	DD	FLAT:__unwindfunclet$?SetCurItemInfoVec@InventorySelectItemWnd@@IAEXKPBD@Z$1
	DD	01H
	DD	FLAT:__unwindfunclet$?SetCurItemInfoVec@InventorySelectItemWnd@@IAEXKPBD@Z$2
__ehfuncinfo$?SetCurItemInfoVec@InventorySelectItemWnd@@IAEXKPBD@Z DD 019930522H
	DD	03H
	DD	FLAT:__unwindtable$?SetCurItemInfoVec@InventorySelectItemWnd@@IAEXKPBD@Z
	DD	2 DUP(00H)
	DD	2 DUP(00H)
	DD	00H
	DD	01H
; Function compile flags: /Ogsp
; File d:\lost saga for developer\youtube\tutorial\source\src\lsclient\gui\inventoryselectitemwnd.cpp
xdata$x	ENDS
;	COMDAT ?SetCurItemInfoVec@InventorySelectItemWnd@@IAEXKPBD@Z
_TEXT	SEGMENT
$T512128 = -108						; size = 4
_vTotalList$ = -104					; size = 16
_this$GSCopy$ = -88					; size = 4
tv941 = -84						; size = 4
tv770 = -80						; size = 4
$T512197 = -80						; size = 4
$T512124 = -80						; size = 4
_bFind$ = -73						; size = 1
_szItemName$505936 = -72				; size = 28
_szFindText$ = -44					; size = 28
__$EHRec$ = -12						; size = 12
_dwTabID$ = 8						; size = 4
_szFind$ = 12						; size = 4
?SetCurItemInfoVec@InventorySelectItemWnd@@IAEXKPBD@Z PROC ; InventorySelectItemWnd::SetCurItemInfoVec, COMDAT
; _this$ = ecx

; 546  : {

  00000	6a 60		 push	 96			; 00000060H
  00002	b8 00 00 00 00	 mov	 eax, __ehhandler$?SetCurItemInfoVec@InventorySelectItemWnd@@IAEXKPBD@Z
  00007	e8 00 00 00 00	 call	 __EH_prolog3_GS
  0000c	8b 7d 0c	 mov	 edi, DWORD PTR _szFind$[ebp]
  0000f	8b f1		 mov	 esi, ecx

; 547  : 	if( m_vAllItemList.empty() )

  00011	8d 86 88 01 00
	00		 lea	 eax, DWORD PTR [esi+392]
  00017	8b 08		 mov	 ecx, DWORD PTR [eax]

; 589  : 	}
; 590  : }

  00019	89 75 a8	 mov	 DWORD PTR _this$GSCopy$[ebp], esi
  0001c	3b 48 04	 cmp	 ecx, DWORD PTR [eax+4]
  0001f	0f 84 e7 01 00
	00		 je	 $LN210@SetCurItem

; 548  : 		return;
; 549  : 
; 550  : 	vInventorySelectItemList vTotalList = m_vAllItemList;

  00025	50		 push	 eax
  00026	8d 4d 98	 lea	 ecx, DWORD PTR _vTotalList$[ebp]
  00029	e8 00 00 00 00	 call	 ??0?$vector@UInventorySelectItem@@V?$allocator@UInventorySelectItem@@@std@@@std@@QAE@ABV01@@Z ; std::vector<InventorySelectItem,std::allocator<InventorySelectItem> >::vector<InventorySelectItem,std::allocator<InventorySelectItem> >

; 551  : 	m_vCurItemList.clear();

  0002e	8b 86 9c 01 00
	00		 mov	 eax, DWORD PTR [esi+412]
  00034	8b 8e 98 01 00
	00		 mov	 ecx, DWORD PTR [esi+408]
  0003a	50		 push	 eax
  0003b	51		 push	 ecx
  0003c	8d 45 b0	 lea	 eax, DWORD PTR $T512197[ebp]
  0003f	33 db		 xor	 ebx, ebx
  00041	50		 push	 eax
  00042	8d 8e 98 01 00
	00		 lea	 ecx, DWORD PTR [esi+408]
  00048	89 5d fc	 mov	 DWORD PTR __$EHRec$[ebp+8], ebx
  0004b	e8 00 00 00 00	 call	 ?erase@?$vector@UInventorySelectItem@@V?$allocator@UInventorySelectItem@@@std@@@std@@QAE?AV?$_Vector_iterator@V?$_Vector_val@UInventorySelectItem@@V?$allocator@UInventorySelectItem@@@std@@@std@@@2@V?$_Vector_const_iterator@V?$_Vector_val@UInventorySelectItem@@V?$allocator@UInventorySelectItem@@@std@@@std@@@2@0@Z ; std::vector<InventorySelectItem,std::allocator<InventorySelectItem> >::erase

; 552  : 
; 553  : 	bool bFind = false;
; 554  : 	std::string	 szFindText = szFind;

  00050	57		 push	 edi
  00051	8d 4d d4	 lea	 ecx, DWORD PTR _szFindText$[ebp]
  00054	88 5d b7	 mov	 BYTE PTR _bFind$[ebp], bl
  00057	c7 45 e8 0f 00
	00 00		 mov	 DWORD PTR _szFindText$[ebp+20], 15 ; 0000000fH
  0005e	89 5d e4	 mov	 DWORD PTR _szFindText$[ebp+16], ebx
  00061	88 5d d4	 mov	 BYTE PTR _szFindText$[ebp], bl
  00064	e8 00 00 00 00	 call	 ?assign@?$basic_string@DU?$char_traits@D@std@@V?$allocator@D@2@@std@@QAEAAV12@PBD@Z ; std::basic_string<char,std::char_traits<char>,std::allocator<char> >::assign

; 555  : 	if( !szFindText.empty() )

  00069	8b 4d e4	 mov	 ecx, DWORD PTR _szFindText$[ebp+16]
  0006c	c6 45 fc 01	 mov	 BYTE PTR __$EHRec$[ebp+8], 1
  00070	3b cb		 cmp	 ecx, ebx
  00072	74 39		 je	 SHORT $LN11@SetCurItem

; 556  : 	{
; 557  : 		bFind = true;
; 558  : 		std::transform( szFindText.begin(), szFindText.end(), szFindText.begin(), tolower );

  00074	83 7d e8 10	 cmp	 DWORD PTR _szFindText$[ebp+20], 16 ; 00000010H
  00078	8b 55 d4	 mov	 edx, DWORD PTR _szFindText$[ebp]
  0007b	c6 45 b7 01	 mov	 BYTE PTR _bFind$[ebp], 1
  0007f	0f 83 04 01 00
	00		 jae	 $LN219@SetCurItem
  00085	8d 55 d4	 lea	 edx, DWORD PTR _szFindText$[ebp]
  00088	8b c2		 mov	 eax, edx
$LN83@SetCurItem:
  0008a	03 c1		 add	 eax, ecx
  0008c	83 7d e8 10	 cmp	 DWORD PTR _szFindText$[ebp+20], 16 ; 00000010H
  00090	8b 4d d4	 mov	 ecx, DWORD PTR _szFindText$[ebp]
  00093	73 03		 jae	 SHORT $LN95@SetCurItem
  00095	8d 4d d4	 lea	 ecx, DWORD PTR _szFindText$[ebp]
$LN95@SetCurItem:
  00098	ff 35 00 00 00
	00		 push	 DWORD PTR __imp__tolower
  0009e	52		 push	 edx
  0009f	50		 push	 eax
  000a0	51		 push	 ecx
  000a1	8d 45 b0	 lea	 eax, DWORD PTR $T512124[ebp]
  000a4	50		 push	 eax
  000a5	e8 00 00 00 00	 call	 ??$transform@V?$_String_iterator@DU?$char_traits@D@std@@V?$allocator@D@2@@std@@V12@P6AHH@Z@std@@YA?AV?$_String_iterator@DU?$char_traits@D@std@@V?$allocator@D@2@@0@V10@00P6AHH@Z@Z ; std::transform<std::_String_iterator<char,std::char_traits<char>,std::allocator<char> >,std::_String_iterator<char,std::char_traits<char>,std::allocator<char> >,int (__cdecl*)(int)>
  000aa	83 c4 14	 add	 esp, 20			; 00000014H
$LN11@SetCurItem:

; 559  : 	}
; 560  : 
; 561  : 	int iSize = vTotalList.size();

  000ad	8b 45 9c	 mov	 eax, DWORD PTR _vTotalList$[ebp+4]
  000b0	2b 45 98	 sub	 eax, DWORD PTR _vTotalList$[ebp]
  000b3	6a 54		 push	 84			; 00000054H
  000b5	99		 cdq
  000b6	59		 pop	 ecx
  000b7	f7 f9		 idiv	 ecx

; 562  : 	for( int i = 0; i < iSize ; i++ )

  000b9	3b c3		 cmp	 eax, ebx
  000bb	0f 8e 34 01 00
	00		 jle	 $LN8@SetCurItem

; 559  : 	}
; 560  : 
; 561  : 	int iSize = vTotalList.size();

  000c1	89 5d ac	 mov	 DWORD PTR tv941[ebp], ebx
  000c4	89 45 b0	 mov	 DWORD PTR tv770[ebp], eax
$LN10@SetCurItem:

; 563  : 	{
; 564  : 		const InventorySelectItem& rkInfo = vTotalList[i];

  000c7	8b 45 98	 mov	 eax, DWORD PTR _vTotalList$[ebp]
  000ca	8b 4d ac	 mov	 ecx, DWORD PTR tv941[ebp]

; 565  : 		if( bFind )

  000cd	38 5d b7	 cmp	 BYTE PTR _bFind$[ebp], bl
  000d0	0f 84 ed 00 00
	00		 je	 $LN7@SetCurItem

; 566  : 		{
; 567  : 			std::string szItemName = rkInfo.m_szName.c_str();

  000d6	8d 4c 08 0c	 lea	 ecx, DWORD PTR [eax+ecx+12]
  000da	ff 15 00 00 00
	00		 call	 DWORD PTR __imp_?c_str@ioHashString@@QBEPBDXZ
  000e0	50		 push	 eax
  000e1	8d 4d b8	 lea	 ecx, DWORD PTR _szItemName$505936[ebp]
  000e4	c7 45 cc 0f 00
	00 00		 mov	 DWORD PTR _szItemName$505936[ebp+20], 15 ; 0000000fH
  000eb	89 5d c8	 mov	 DWORD PTR _szItemName$505936[ebp+16], ebx
  000ee	88 5d b8	 mov	 BYTE PTR _szItemName$505936[ebp], bl
  000f1	e8 00 00 00 00	 call	 ?assign@?$basic_string@DU?$char_traits@D@std@@V?$allocator@D@2@@std@@QAEAAV12@PBD@Z ; std::basic_string<char,std::char_traits<char>,std::allocator<char> >::assign

; 568  : 			std::transform( szItemName.begin(), szItemName.end(), szItemName.begin(), tolower );

  000f6	83 7d cc 10	 cmp	 DWORD PTR _szItemName$505936[ebp+20], 16 ; 00000010H
  000fa	8b 4d b8	 mov	 ecx, DWORD PTR _szItemName$505936[ebp]
  000fd	c6 45 fc 02	 mov	 BYTE PTR __$EHRec$[ebp+8], 2
  00101	8b d1		 mov	 edx, ecx
  00103	0f 83 88 00 00
	00		 jae	 $LN221@SetCurItem
  00109	8d 55 b8	 lea	 edx, DWORD PTR _szItemName$505936[ebp]
  0010c	8b c2		 mov	 eax, edx
$LN149@SetCurItem:
  0010e	03 45 c8	 add	 eax, DWORD PTR _szItemName$505936[ebp+16]
  00111	83 7d cc 10	 cmp	 DWORD PTR _szItemName$505936[ebp+20], 16 ; 00000010H
  00115	73 03		 jae	 SHORT $LN161@SetCurItem
  00117	8d 4d b8	 lea	 ecx, DWORD PTR _szItemName$505936[ebp]
$LN161@SetCurItem:
  0011a	ff 35 00 00 00
	00		 push	 DWORD PTR __imp__tolower
  00120	52		 push	 edx
  00121	50		 push	 eax
  00122	51		 push	 ecx
  00123	8d 45 94	 lea	 eax, DWORD PTR $T512128[ebp]
  00126	50		 push	 eax
  00127	e8 00 00 00 00	 call	 ??$transform@V?$_String_iterator@DU?$char_traits@D@std@@V?$allocator@D@2@@std@@V12@P6AHH@Z@std@@YA?AV?$_String_iterator@DU?$char_traits@D@std@@V?$allocator@D@2@@0@V10@00P6AHH@Z@Z ; std::transform<std::_String_iterator<char,std::char_traits<char>,std::allocator<char> >,std::_String_iterator<char,std::char_traits<char>,std::allocator<char> >,int (__cdecl*)(int)>
  0012c	83 c4 14	 add	 esp, 20			; 00000014H

; 569  : 			ioLocalParent *pLocal = g_LocalMgr.GetLocal( ioLocalManager::GetLocalType() );

  0012f	ff 15 00 00 00
	00		 call	 DWORD PTR __imp_?GetLocalType@ioLocalManagerParent@@SA?AW4LocalType@1@XZ
  00135	50		 push	 eax
  00136	e8 00 00 00 00	 call	 ?GetSingleton@ioLocalManager@@SAAAV1@XZ ; ioLocalManager::GetSingleton
  0013b	8b c8		 mov	 ecx, eax
  0013d	e8 00 00 00 00	 call	 ?GetLocal@ioLocalManager@@QAEPAVioLocalParent@@W4LocalType@ioLocalManagerParent@@@Z ; ioLocalManager::GetLocal

; 570  : 			if( pLocal && pLocal->GetType() == ioLocalManager::LCT_KOREA )

  00142	3b c3		 cmp	 eax, ebx
  00144	74 52		 je	 SHORT $LN6@SetCurItem
  00146	8b 10		 mov	 edx, DWORD PTR [eax]
  00148	8b c8		 mov	 ecx, eax
  0014a	ff 12		 call	 DWORD PTR [edx]
  0014c	3d 06 2e 1f 07	 cmp	 eax, 119483910		; 071f2e06H
  00151	75 45		 jne	 SHORT $LN6@SetCurItem

; 571  : 			{
; 572  : 				//  (  )
; 573  : 				if( !Help::Strstr( szItemName.c_str(), szFindText.c_str() ) )

  00153	83 7d e8 10	 cmp	 DWORD PTR _szFindText$[ebp+20], 16 ; 00000010H
  00157	8b 4d d4	 mov	 ecx, DWORD PTR _szFindText$[ebp]
  0015a	73 03		 jae	 SHORT $LN173@SetCurItem
  0015c	8d 4d d4	 lea	 ecx, DWORD PTR _szFindText$[ebp]
$LN173@SetCurItem:
  0015f	83 7d cc 10	 cmp	 DWORD PTR _szItemName$505936[ebp+20], 16 ; 00000010H
  00163	8b 45 b8	 mov	 eax, DWORD PTR _szItemName$505936[ebp]
  00166	73 03		 jae	 SHORT $LN179@SetCurItem
  00168	8d 45 b8	 lea	 eax, DWORD PTR _szItemName$505936[ebp]
$LN179@SetCurItem:
  0016b	51		 push	 ecx
  0016c	50		 push	 eax
  0016d	e8 00 00 00 00	 call	 ?Strstr@Help@@YA_NPBD0@Z ; Help::Strstr
  00172	84 c0		 test	 al, al
$LN223@SetCurItem:
  00174	59		 pop	 ecx
  00175	59		 pop	 ecx

; 574  : 					continue;

  00176	53		 push	 ebx
  00177	c6 45 fc 01	 mov	 BYTE PTR __$EHRec$[ebp+8], 1
  0017b	8d 4d b8	 lea	 ecx, DWORD PTR _szItemName$505936[ebp]
  0017e	6a 01		 push	 1
  00180	75 3a		 jne	 SHORT $LN3@SetCurItem
  00182	e8 00 00 00 00	 call	 ?_Tidy@?$basic_string@DU?$char_traits@D@std@@V?$allocator@D@2@@std@@QAEX_NI@Z ; std::basic_string<char,std::char_traits<char>,std::allocator<char> >::_Tidy
  00187	eb 5f		 jmp	 SHORT $LN9@SetCurItem
$LN219@SetCurItem:

; 556  : 	{
; 557  : 		bFind = true;
; 558  : 		std::transform( szFindText.begin(), szFindText.end(), szFindText.begin(), tolower );

  00189	8b 45 d4	 mov	 eax, DWORD PTR _szFindText$[ebp]
  0018c	e9 f9 fe ff ff	 jmp	 $LN83@SetCurItem
$LN221@SetCurItem:

; 568  : 			std::transform( szItemName.begin(), szItemName.end(), szItemName.begin(), tolower );

  00191	8b c1		 mov	 eax, ecx
  00193	e9 76 ff ff ff	 jmp	 $LN149@SetCurItem
$LN6@SetCurItem:

; 575  : 			}
; 576  : 			else
; 577  : 			{
; 578  : 				if( strstr( szItemName.c_str(), szFindText.c_str() ) == NULL )

  00198	83 7d e8 10	 cmp	 DWORD PTR _szFindText$[ebp+20], 16 ; 00000010H
  0019c	8b 4d d4	 mov	 ecx, DWORD PTR _szFindText$[ebp]
  0019f	73 03		 jae	 SHORT $LN189@SetCurItem
  001a1	8d 4d d4	 lea	 ecx, DWORD PTR _szFindText$[ebp]
$LN189@SetCurItem:
  001a4	83 7d cc 10	 cmp	 DWORD PTR _szItemName$505936[ebp+20], 16 ; 00000010H
  001a8	8b 45 b8	 mov	 eax, DWORD PTR _szItemName$505936[ebp]
  001ab	73 03		 jae	 SHORT $LN195@SetCurItem
  001ad	8d 45 b8	 lea	 eax, DWORD PTR _szItemName$505936[ebp]
$LN195@SetCurItem:
  001b0	51		 push	 ecx
  001b1	50		 push	 eax
  001b2	ff 15 00 00 00
	00		 call	 DWORD PTR __imp__strstr
  001b8	85 c0		 test	 eax, eax

; 579  : 					continue;

  001ba	eb b8		 jmp	 SHORT $LN223@SetCurItem
$LN3@SetCurItem:

; 580  : 			}
; 581  : 		}

  001bc	e8 00 00 00 00	 call	 ?_Tidy@?$basic_string@DU?$char_traits@D@std@@V?$allocator@D@2@@std@@QAEX_NI@Z ; std::basic_string<char,std::char_traits<char>,std::allocator<char> >::_Tidy

; 582  : 		else

  001c1	eb 13		 jmp	 SHORT $LN1@SetCurItem
$LN7@SetCurItem:

; 583  : 		{
; 584  : 			if( !IsRightTab( dwTabID, rkInfo.m_iTabType ) )

  001c3	ff 74 08 04	 push	 DWORD PTR [eax+ecx+4]
  001c7	8b 4d a8	 mov	 ecx, DWORD PTR _this$GSCopy$[ebp]
  001ca	ff 75 08	 push	 DWORD PTR _dwTabID$[ebp]
  001cd	e8 00 00 00 00	 call	 ?IsRightTab@InventorySelectItemWnd@@IAE_NKH@Z ; InventorySelectItemWnd::IsRightTab
  001d2	84 c0		 test	 al, al
  001d4	74 12		 je	 SHORT $LN9@SetCurItem
$LN1@SetCurItem:

; 585  : 				continue;
; 586  : 		}
; 587  : 
; 588  : 		m_vCurItemList.push_back( vTotalList[i] );

  001d6	8b 4d ac	 mov	 ecx, DWORD PTR tv941[ebp]
  001d9	03 4d 98	 add	 ecx, DWORD PTR _vTotalList$[ebp]
  001dc	51		 push	 ecx
  001dd	8d 8e 98 01 00
	00		 lea	 ecx, DWORD PTR [esi+408]
  001e3	e8 00 00 00 00	 call	 ?push_back@?$vector@UInventorySelectItem@@V?$allocator@UInventorySelectItem@@@std@@@std@@QAEXABUInventorySelectItem@@@Z ; std::vector<InventorySelectItem,std::allocator<InventorySelectItem> >::push_back
$LN9@SetCurItem:

; 562  : 	for( int i = 0; i < iSize ; i++ )

  001e8	83 45 ac 54	 add	 DWORD PTR tv941[ebp], 84 ; 00000054H
  001ec	ff 4d b0	 dec	 DWORD PTR tv770[ebp]
  001ef	0f 85 d2 fe ff
	ff		 jne	 $LN10@SetCurItem
$LN8@SetCurItem:

; 589  : 	}
; 590  : }

  001f5	53		 push	 ebx
  001f6	6a 01		 push	 1
  001f8	8d 4d d4	 lea	 ecx, DWORD PTR _szFindText$[ebp]
  001fb	e8 00 00 00 00	 call	 ?_Tidy@?$basic_string@DU?$char_traits@D@std@@V?$allocator@D@2@@std@@QAEX_NI@Z ; std::basic_string<char,std::char_traits<char>,std::allocator<char> >::_Tidy
  00200	83 4d fc ff	 or	 DWORD PTR __$EHRec$[ebp+8], -1
  00204	8d 4d 98	 lea	 ecx, DWORD PTR _vTotalList$[ebp]
  00207	e8 00 00 00 00	 call	 ?_Tidy@?$vector@UInventorySelectItem@@V?$allocator@UInventorySelectItem@@@std@@@std@@IAEXXZ ; std::vector<InventorySelectItem,std::allocator<InventorySelectItem> >::_Tidy
$LN210@SetCurItem:
  0020c	e8 00 00 00 00	 call	 __EH_epilog3_GS
  00211	c2 08 00	 ret	 8
_TEXT	ENDS
;	COMDAT text$x
text$x	SEGMENT
__unwindfunclet$?SetCurItemInfoVec@InventorySelectItemWnd@@IAEXKPBD@Z$0:
  00000	8d 4d 98	 lea	 ecx, DWORD PTR _vTotalList$[ebp]
  00003	e9 00 00 00 00	 jmp	 ??1?$vector@UInventorySelectItem@@V?$allocator@UInventorySelectItem@@@std@@@std@@QAE@XZ ; std::vector<InventorySelectItem,std::allocator<InventorySelectItem> >::~vector<InventorySelectItem,std::allocator<InventorySelectItem> >
__unwindfunclet$?SetCurItemInfoVec@InventorySelectItemWnd@@IAEXKPBD@Z$1:
  00008	8d 4d d4	 lea	 ecx, DWORD PTR _szFindText$[ebp]
  0000b	e9 00 00 00 00	 jmp	 ??1?$basic_string@DU?$char_traits@D@std@@V?$allocator@D@2@@std@@QAE@XZ ; std::basic_string<char,std::char_traits<char>,std::allocator<char> >::~basic_string<char,std::char_traits<char>,std::allocator<char> >
__unwindfunclet$?SetCurItemInfoVec@InventorySelectItemWnd@@IAEXKPBD@Z$2:
  00010	8d 4d b8	 lea	 ecx, DWORD PTR _szItemName$505936[ebp]
  00013	e9 00 00 00 00	 jmp	 ??1?$basic_string@DU?$char_traits@D@std@@V?$allocator@D@2@@std@@QAE@XZ ; std::basic_string<char,std::char_traits<char>,std::allocator<char> >::~basic_string<char,std::char_traits<char>,std::allocator<char> >
__ehhandler$?SetCurItemInfoVec@InventorySelectItemWnd@@IAEXKPBD@Z:
  00018	8b 54 24 08	 mov	 edx, DWORD PTR [esp+8]
  0001c	8d 42 0c	 lea	 eax, DWORD PTR [edx+12]
  0001f	8b 4a 90	 mov	 ecx, DWORD PTR [edx-112]
  00022	33 c8		 xor	 ecx, eax
  00024	e8 00 00 00 00	 call	 @__security_check_cookie@4
  00029	8b 4a fc	 mov	 ecx, DWORD PTR [edx-4]
  0002c	33 c8		 xor	 ecx, eax
  0002e	e8 00 00 00 00	 call	 @__security_check_cookie@4
  00033	b8 00 00 00 00	 mov	 eax, OFFSET __ehfuncinfo$?SetCurItemInfoVec@InventorySelectItemWnd@@IAEXKPBD@Z
  00038	e9 00 00 00 00	 jmp	 ___CxxFrameHandler3
text$x	ENDS
?SetCurItemInfoVec@InventorySelectItemWnd@@IAEXKPBD@Z ENDP ; InventorySelectItemWnd::SetCurItemInfoVec
PUBLIC	??4?$vector@UInventorySelectItem@@V?$allocator@UInventorySelectItem@@@std@@@std@@QAEAAV01@ABV01@@Z ; std::vector<InventorySelectItem,std::allocator<InventorySelectItem> >::operator=
; Function compile flags: /Ogsp
; File c:\program files (x86)\microsoft visual studio 10.0\vc\include\vector
;	COMDAT ??4?$vector@UInventorySelectItem@@V?$allocator@UInventorySelectItem@@@std@@@std@@QAEAAV01@ABV01@@Z
_TEXT	SEGMENT
tv555 = -4						; size = 4
tv551 = 8						; size = 4
__Cat$513116 = 8					; size = 1
__Cat$512990 = 8					; size = 1
__Cat$512967 = 8					; size = 1
__Cat$512846 = 8					; size = 1
$T512901 = 8						; size = 4
$T512813 = 8						; size = 4
__Right$ = 8						; size = 4
??4?$vector@UInventorySelectItem@@V?$allocator@UInventorySelectItem@@@std@@@std@@QAEAAV01@ABV01@@Z PROC ; std::vector<InventorySelectItem,std::allocator<InventorySelectItem> >::operator=, COMDAT
; _this$ = ecx

; 709  : 		{	// assign _Right

  00000	55		 push	 ebp
  00001	8b ec		 mov	 ebp, esp
  00003	51		 push	 ecx
  00004	56		 push	 esi
  00005	57		 push	 edi

; 710  : 		if (this != &_Right)

  00006	8b 7d 08	 mov	 edi, DWORD PTR __Right$[ebp]
  00009	8b f1		 mov	 esi, ecx
  0000b	3b f7		 cmp	 esi, edi
  0000d	0f 84 16 01 00
	00		 je	 $LN1@operator@3

; 711  : 			{	// worth doing
; 712  : 			this->_Orphan_all();

  00013	ff 15 00 00 00
	00		 call	 DWORD PTR __imp_?_Orphan_all@_Container_base0@std@@QAEXXZ

; 713  : 
; 714  : 			if (_Right.size() == 0)

  00019	8b 47 04	 mov	 eax, DWORD PTR [edi+4]
  0001c	2b 07		 sub	 eax, DWORD PTR [edi]
  0001e	6a 54		 push	 84			; 00000054H
  00020	99		 cdq
  00021	59		 pop	 ecx
  00022	f7 f9		 idiv	 ecx
  00024	89 45 08	 mov	 DWORD PTR tv551[ebp], eax
  00027	85 c0		 test	 eax, eax

; 715  : 				clear();	// new sequence empty, erase existing sequence

  00029	8b 46 04	 mov	 eax, DWORD PTR [esi+4]
  0002c	75 14		 jne	 SHORT $LN8@operator@3
  0002e	8b 0e		 mov	 ecx, DWORD PTR [esi]
  00030	50		 push	 eax
  00031	51		 push	 ecx
  00032	8d 45 08	 lea	 eax, DWORD PTR $T512813[ebp]
  00035	50		 push	 eax
  00036	8b ce		 mov	 ecx, esi
  00038	e8 00 00 00 00	 call	 ?erase@?$vector@UInventorySelectItem@@V?$allocator@UInventorySelectItem@@@std@@@std@@QAE?AV?$_Vector_iterator@V?$_Vector_val@UInventorySelectItem@@V?$allocator@UInventorySelectItem@@@std@@@std@@@2@V?$_Vector_const_iterator@V?$_Vector_val@UInventorySelectItem@@V?$allocator@UInventorySelectItem@@@std@@@std@@@2@0@Z ; std::vector<InventorySelectItem,std::allocator<InventorySelectItem> >::erase

; 716  : 			else if (_Right.size() <= size())

  0003d	e9 e7 00 00 00	 jmp	 $LN1@operator@3
$LN8@operator@3:
  00042	53		 push	 ebx
  00043	8b 1e		 mov	 ebx, DWORD PTR [esi]
  00045	89 45 fc	 mov	 DWORD PTR tv555[ebp], eax
  00048	2b c3		 sub	 eax, ebx
  0004a	6a 54		 push	 84			; 00000054H
  0004c	99		 cdq
  0004d	59		 pop	 ecx
  0004e	f7 f9		 idiv	 ecx
  00050	8b c8		 mov	 ecx, eax
  00052	39 4d 08	 cmp	 DWORD PTR tv551[ebp], ecx
  00055	77 41		 ja	 SHORT $LN6@operator@3

; 717  : 				{	// enough elements, copy new and destroy old
; 718  : 				pointer _Ptr = _STD _Copy_impl(_Right._Myfirst, _Right._Mylast,
; 719  : 					this->_Myfirst);	// copy new

  00057	ff 75 08	 push	 DWORD PTR __Cat$512846[ebp]
  0005a	53		 push	 ebx
  0005b	ff 77 04	 push	 DWORD PTR [edi+4]
  0005e	ff 37		 push	 DWORD PTR [edi]
  00060	e8 00 00 00 00	 call	 ??$_Copy_impl@PAUInventorySelectItem@@PAU1@@std@@YAPAUInventorySelectItem@@PAU1@00U_Nonscalar_ptr_iterator_tag@0@@Z ; std::_Copy_impl<InventorySelectItem *,InventorySelectItem *>

; 720  : 				_Destroy(_Ptr, this->_Mylast);	// destroy old

  00065	8b 5e 04	 mov	 ebx, DWORD PTR [esi+4]
  00068	83 c4 10	 add	 esp, 16			; 00000010H
  0006b	89 45 08	 mov	 DWORD PTR $T512901[ebp], eax
  0006e	3b c3		 cmp	 eax, ebx
  00070	74 11		 je	 SHORT $LN46@operator@3
$LL114@operator@3:
  00072	8b 4d 08	 mov	 ecx, DWORD PTR $T512901[ebp]
  00075	e8 00 00 00 00	 call	 ??1InventorySelectItem@@QAE@XZ
  0007a	83 45 08 54	 add	 DWORD PTR $T512901[ebp], 84 ; 00000054H
  0007e	39 5d 08	 cmp	 DWORD PTR $T512901[ebp], ebx
  00081	75 ef		 jne	 SHORT $LL114@operator@3
$LN46@operator@3:

; 721  : 				this->_Mylast = this->_Myfirst + _Right.size();

  00083	8b 47 04	 mov	 eax, DWORD PTR [edi+4]
  00086	2b 07		 sub	 eax, DWORD PTR [edi]
  00088	6a 54		 push	 84			; 00000054H
  0008a	99		 cdq
  0008b	59		 pop	 ecx
  0008c	f7 f9		 idiv	 ecx
  0008e	6b c0 54	 imul	 eax, 84			; 00000054H
  00091	03 06		 add	 eax, DWORD PTR [esi]

; 722  : 				}
; 723  : 			else if (_Right.size() <= capacity())

  00093	e9 8d 00 00 00	 jmp	 $LN116@operator@3
$LN6@operator@3:
  00098	8b 46 08	 mov	 eax, DWORD PTR [esi+8]
  0009b	2b c3		 sub	 eax, ebx
  0009d	6a 54		 push	 84			; 00000054H
  0009f	99		 cdq
  000a0	5b		 pop	 ebx
  000a1	f7 fb		 idiv	 ebx
  000a3	39 45 08	 cmp	 DWORD PTR tv551[ebp], eax
  000a6	77 2e		 ja	 SHORT $LN4@operator@3

; 724  : 				{	// enough room, copy and construct new
; 725  : 				pointer _Ptr = _Right._Myfirst + size();
; 726  : 				_STD _Copy_impl(_Right._Myfirst, _Ptr, this->_Myfirst);

  000a8	ff 75 08	 push	 DWORD PTR __Cat$512967[ebp]
  000ab	6b c9 54	 imul	 ecx, 84			; 00000054H
  000ae	8b 07		 mov	 eax, DWORD PTR [edi]
  000b0	ff 36		 push	 DWORD PTR [esi]
  000b2	8d 1c 08	 lea	 ebx, DWORD PTR [eax+ecx]
  000b5	53		 push	 ebx
  000b6	50		 push	 eax
  000b7	e8 00 00 00 00	 call	 ??$_Copy_impl@PAUInventorySelectItem@@PAU1@@std@@YAPAUInventorySelectItem@@PAU1@00U_Nonscalar_ptr_iterator_tag@0@@Z ; std::_Copy_impl<InventorySelectItem *,InventorySelectItem *>

; 727  : 				this->_Mylast = _Ucopy(_Ptr, _Right._Mylast, this->_Mylast);

  000bc	ff 75 08	 push	 DWORD PTR __Cat$512990[ebp]
  000bf	8b 46 04	 mov	 eax, DWORD PTR [esi+4]
  000c2	8b 7f 04	 mov	 edi, DWORD PTR [edi+4]
  000c5	8d 4e 0c	 lea	 ecx, DWORD PTR [esi+12]
  000c8	51		 push	 ecx
  000c9	50		 push	 eax
  000ca	57		 push	 edi
  000cb	53		 push	 ebx
  000cc	e8 00 00 00 00	 call	 ??$_Uninit_copy@PAUInventorySelectItem@@PAU1@V?$allocator@UInventorySelectItem@@@std@@@std@@YAPAUInventorySelectItem@@PAU1@00AAV?$allocator@UInventorySelectItem@@@0@U_Nonscalar_ptr_iterator_tag@0@@Z ; std::_Uninit_copy<InventorySelectItem *,InventorySelectItem *,std::allocator<InventorySelectItem> >
  000d1	83 c4 24	 add	 esp, 36			; 00000024H

; 728  : 				}
; 729  : 			else

  000d4	eb 4f		 jmp	 SHORT $LN116@operator@3
$LN4@operator@3:

; 730  : 				{	// not enough room, allocate new array and construct new
; 731  : 				if (this->_Myfirst != 0)

  000d6	8b 1e		 mov	 ebx, DWORD PTR [esi]
  000d8	85 db		 test	 ebx, ebx
  000da	74 19		 je	 SHORT $LN113@operator@3
  000dc	eb 0a		 jmp	 SHORT $LN117@operator@3

; 732  : 					{	// discard old array
; 733  : 					_Destroy(this->_Myfirst, this->_Mylast);

$LL86@operator@3:
  000de	8b cb		 mov	 ecx, ebx
  000e0	e8 00 00 00 00	 call	 ??1InventorySelectItem@@QAE@XZ
  000e5	83 c3 54	 add	 ebx, 84			; 00000054H
$LN117@operator@3:
  000e8	3b 5d fc	 cmp	 ebx, DWORD PTR tv555[ebp]
  000eb	75 f1		 jne	 SHORT $LL86@operator@3

; 734  : 					this->_Alval.deallocate(this->_Myfirst,
; 735  : 						this->_Myend - this->_Myfirst);

  000ed	ff 36		 push	 DWORD PTR [esi]
  000ef	e8 00 00 00 00	 call	 ??3@YAXPAX@Z		; operator delete
  000f4	59		 pop	 ecx
$LN113@operator@3:

; 736  : 					}
; 737  : 				if (_Buy(_Right.size()))

  000f5	8b 47 04	 mov	 eax, DWORD PTR [edi+4]
  000f8	2b 07		 sub	 eax, DWORD PTR [edi]
  000fa	6a 54		 push	 84			; 00000054H
  000fc	59		 pop	 ecx
  000fd	99		 cdq
  000fe	f7 f9		 idiv	 ecx
  00100	8b ce		 mov	 ecx, esi
  00102	50		 push	 eax
  00103	e8 00 00 00 00	 call	 ?_Buy@?$vector@UInventorySelectItem@@V?$allocator@UInventorySelectItem@@@std@@@std@@IAE_NI@Z ; std::vector<InventorySelectItem,std::allocator<InventorySelectItem> >::_Buy
  00108	84 c0		 test	 al, al
  0010a	74 1c		 je	 SHORT $LN115@operator@3

; 738  : 					this->_Mylast = _Ucopy(_Right._Myfirst, _Right._Mylast,
; 739  : 						this->_Myfirst);

  0010c	ff 75 08	 push	 DWORD PTR __Cat$513116[ebp]
  0010f	8b 06		 mov	 eax, DWORD PTR [esi]
  00111	8b 4f 04	 mov	 ecx, DWORD PTR [edi+4]
  00114	8b 3f		 mov	 edi, DWORD PTR [edi]
  00116	8d 56 0c	 lea	 edx, DWORD PTR [esi+12]
  00119	52		 push	 edx
  0011a	50		 push	 eax
  0011b	51		 push	 ecx
  0011c	57		 push	 edi
  0011d	e8 00 00 00 00	 call	 ??$_Uninit_copy@PAUInventorySelectItem@@PAU1@V?$allocator@UInventorySelectItem@@@std@@@std@@YAPAUInventorySelectItem@@PAU1@00AAV?$allocator@UInventorySelectItem@@@0@U_Nonscalar_ptr_iterator_tag@0@@Z ; std::_Uninit_copy<InventorySelectItem *,InventorySelectItem *,std::allocator<InventorySelectItem> >
  00122	83 c4 14	 add	 esp, 20			; 00000014H
$LN116@operator@3:
  00125	89 46 04	 mov	 DWORD PTR [esi+4], eax
$LN115@operator@3:
  00128	5b		 pop	 ebx
$LN1@operator@3:
  00129	5f		 pop	 edi

; 740  : 				}
; 741  : 			}
; 742  : 		return (*this);

  0012a	8b c6		 mov	 eax, esi
  0012c	5e		 pop	 esi

; 743  : 		}

  0012d	c9		 leave
  0012e	c2 04 00	 ret	 4
??4?$vector@UInventorySelectItem@@V?$allocator@UInventorySelectItem@@@std@@@std@@QAEAAV01@ABV01@@Z ENDP ; std::vector<InventorySelectItem,std::allocator<InventorySelectItem> >::operator=
_TEXT	ENDS
PUBLIC	?ChangeTab@InventorySelectItemWnd@@IAEXKPBD@Z	; InventorySelectItemWnd::ChangeTab
EXTRN	__imp_?SetClick@ioRadioButton@@QAEX_N@Z:PROC
EXTRN	__imp_?CheckRadioButton@ioWnd@@QAEXKKK@Z:PROC
; Function compile flags: /Ogsp
; File d:\lost saga for developer\youtube\tutorial\source\src\lsclient\gui\inventoryselectitemwnd.cpp
;	COMDAT ?ChangeTab@InventorySelectItemWnd@@IAEXKPBD@Z
_TEXT	SEGMENT
_i$505893 = 8						; size = 4
_dwID$ = 8						; size = 4
_szFind$ = 12						; size = 4
?ChangeTab@InventorySelectItemWnd@@IAEXKPBD@Z PROC	; InventorySelectItemWnd::ChangeTab, COMDAT
; _this$ = ecx

; 507  : {

  00000	55		 push	 ebp
  00001	8b ec		 mov	 ebp, esp
  00003	53		 push	 ebx
  00004	56		 push	 esi

; 508  : 	if( strcmp( szFind, "" ) == 0 )

  00005	8b 75 0c	 mov	 esi, DWORD PTR _szFind$[ebp]
  00008	8b d9		 mov	 ebx, ecx
  0000a	33 c9		 xor	 ecx, ecx
  0000c	57		 push	 edi
  0000d	41		 inc	 ecx
  0000e	bf 00 00 00 00	 mov	 edi, OFFSET ??_C@_00CNPNBAHC@?$AA@
  00013	33 c0		 xor	 eax, eax
  00015	f3 a6		 repe cmpsb
  00017	8b 35 00 00 00
	00		 mov	 esi, DWORD PTR __imp_?FindChildWnd@ioWnd@@QAEPAV1@K@Z
  0001d	bf 00 00 00 00	 mov	 edi, OFFSET ??_R0?AVioWnd@@@8
  00022	75 22		 jne	 SHORT $LN8@ChangeTab

; 509  : 	{
; 510  : 		CheckRadioButton( m_dwCurMinTabID, m_dwCurMaxTabID, dwID );

  00024	ff 75 08	 push	 DWORD PTR _dwID$[ebp]
  00027	8b cb		 mov	 ecx, ebx
  00029	ff b3 6c 01 00
	00		 push	 DWORD PTR [ebx+364]
  0002f	ff b3 68 01 00
	00		 push	 DWORD PTR [ebx+360]
  00035	ff 15 00 00 00
	00		 call	 DWORD PTR __imp_?CheckRadioButton@ioWnd@@QAEXKKK@Z

; 511  : 		m_dwCurTabID = dwID;

  0003b	8b 45 08	 mov	 eax, DWORD PTR _dwID$[ebp]
  0003e	89 83 64 01 00
	00		 mov	 DWORD PTR [ebx+356], eax

; 512  : 	}
; 513  : 	else

  00044	eb 4b		 jmp	 SHORT $LN4@ChangeTab
$LN8@ChangeTab:

; 514  : 	{
; 515  : 		//        
; 516  : 		for ( DWORD i = m_dwCurMinTabID; i < m_dwCurMaxTabID+1 ; i++)

  00046	8b 8b 6c 01 00
	00		 mov	 ecx, DWORD PTR [ebx+364]
  0004c	8b 83 68 01 00
	00		 mov	 eax, DWORD PTR [ebx+360]
  00052	41		 inc	 ecx
  00053	89 45 08	 mov	 DWORD PTR _i$505893[ebp], eax
  00056	3b c1		 cmp	 eax, ecx
  00058	73 37		 jae	 SHORT $LN4@ChangeTab
$LL16@ChangeTab:

; 517  : 		{
; 518  : 			ioRadioButton *pButton = dynamic_cast<ioRadioButton*> ( FindChildWnd( i ) );

  0005a	6a 00		 push	 0
  0005c	68 00 00 00 00	 push	 OFFSET ??_R0?AVioRadioButton@@@8
  00061	57		 push	 edi
  00062	6a 00		 push	 0
  00064	ff 75 08	 push	 DWORD PTR _i$505893[ebp]
  00067	8b cb		 mov	 ecx, ebx
  00069	ff d6		 call	 esi
  0006b	50		 push	 eax
  0006c	e8 00 00 00 00	 call	 ___RTDynamicCast
  00071	83 c4 14	 add	 esp, 20			; 00000014H

; 519  : 			if( !pButton )

  00074	85 c0		 test	 eax, eax
  00076	74 0a		 je	 SHORT $LN5@ChangeTab

; 520  : 				continue;
; 521  : 
; 522  : 			pButton->SetClick( false );

  00078	6a 00		 push	 0
  0007a	8b c8		 mov	 ecx, eax
  0007c	ff 15 00 00 00
	00		 call	 DWORD PTR __imp_?SetClick@ioRadioButton@@QAEX_N@Z
$LN5@ChangeTab:

; 514  : 	{
; 515  : 		//        
; 516  : 		for ( DWORD i = m_dwCurMinTabID; i < m_dwCurMaxTabID+1 ; i++)

  00082	ff 45 08	 inc	 DWORD PTR _i$505893[ebp]
  00085	8b 83 6c 01 00
	00		 mov	 eax, DWORD PTR [ebx+364]
  0008b	40		 inc	 eax
  0008c	39 45 08	 cmp	 DWORD PTR _i$505893[ebp], eax
  0008f	72 c9		 jb	 SHORT $LL16@ChangeTab
$LN4@ChangeTab:

; 523  : 		}
; 524  : 	}
; 525  : 
; 526  : 	SetCurItemInfoVec( m_dwCurTabID, szFind );

  00091	ff 75 0c	 push	 DWORD PTR _szFind$[ebp]
  00094	8b cb		 mov	 ecx, ebx
  00096	ff b3 64 01 00
	00		 push	 DWORD PTR [ebx+356]
  0009c	e8 00 00 00 00	 call	 ?SetCurItemInfoVec@InventorySelectItemWnd@@IAEXKPBD@Z ; InventorySelectItemWnd::SetCurItemInfoVec

; 527  : 
; 528  : 	m_iCurPage = 0;

  000a1	33 c0		 xor	 eax, eax

; 529  : 
; 530  : 	ioScroll *pScroll = dynamic_cast<ioScroll*>( FindChildWnd( ID_VERT_SCROLL ) );

  000a3	50		 push	 eax
  000a4	68 00 00 00 00	 push	 OFFSET ??_R0?AVioScroll@@@8
  000a9	57		 push	 edi
  000aa	50		 push	 eax
  000ab	68 e9 03 00 00	 push	 1001			; 000003e9H
  000b0	8b cb		 mov	 ecx, ebx
  000b2	89 83 60 01 00
	00		 mov	 DWORD PTR [ebx+352], eax
  000b8	ff d6		 call	 esi
  000ba	50		 push	 eax
  000bb	e8 00 00 00 00	 call	 ___RTDynamicCast
  000c0	8b f0		 mov	 esi, eax
  000c2	83 c4 14	 add	 esp, 20			; 00000014H

; 531  : 	if( pScroll )

  000c5	85 f6		 test	 esi, esi
  000c7	74 57		 je	 SHORT $LN2@ChangeTab

; 532  : 	{
; 533  : 		int iItemSize = 0;
; 534  : 		iItemSize = m_vCurItemList.size();

  000c9	8b 83 9c 01 00
	00		 mov	 eax, DWORD PTR [ebx+412]
  000cf	2b 83 98 01 00
	00		 sub	 eax, DWORD PTR [ebx+408]
  000d5	6a 54		 push	 84			; 00000054H
  000d7	99		 cdq
  000d8	59		 pop	 ecx
  000d9	f7 f9		 idiv	 ecx
  000db	8b c8		 mov	 ecx, eax

; 535  : 		int iMaxPos =  iItemSize / PAGE_PER_ITEM_NUM;

  000dd	99		 cdq
  000de	83 e2 03	 and	 edx, 3
  000e1	8d 3c 02	 lea	 edi, DWORD PTR [edx+eax]
  000e4	c1 ff 02	 sar	 edi, 2

; 536  : 		if( iItemSize % PAGE_PER_ITEM_NUM )

  000e7	81 e1 03 00 00
	80		 and	 ecx, -2147483645	; 80000003H
  000ed	79 05		 jns	 SHORT $LN17@ChangeTab
  000ef	49		 dec	 ecx
  000f0	83 c9 fc	 or	 ecx, -4			; fffffffcH
  000f3	41		 inc	 ecx
$LN17@ChangeTab:
  000f4	74 01		 je	 SHORT $LN1@ChangeTab

; 537  : 			iMaxPos++;

  000f6	47		 inc	 edi
$LN1@ChangeTab:

; 538  : 
; 539  : 		pScroll->SetPageRange(2);

  000f7	8b 06		 mov	 eax, DWORD PTR [esi]
  000f9	6a 02		 push	 2
  000fb	8b ce		 mov	 ecx, esi
  000fd	ff 90 34 01 00
	00		 call	 DWORD PTR [eax+308]

; 540  : 		pScroll->SetScrollRange( 0, iMaxPos );

  00103	8b 06		 mov	 eax, DWORD PTR [esi]
  00105	57		 push	 edi
  00106	6a 00		 push	 0
  00108	8b ce		 mov	 ecx, esi
  0010a	ff 90 30 01 00
	00		 call	 DWORD PTR [eax+304]

; 541  : 		pScroll->SetScrollPos( m_iCurPage );

  00110	ff b3 60 01 00
	00		 push	 DWORD PTR [ebx+352]
  00116	8b 06		 mov	 eax, DWORD PTR [esi]
  00118	8b ce		 mov	 ecx, esi
  0011a	ff 90 38 01 00
	00		 call	 DWORD PTR [eax+312]
$LN2@ChangeTab:
  00120	5f		 pop	 edi
  00121	5e		 pop	 esi
  00122	5b		 pop	 ebx

; 542  : 	}
; 543  : }

  00123	5d		 pop	 ebp
  00124	c2 08 00	 ret	 8
?ChangeTab@InventorySelectItemWnd@@IAEXKPBD@Z ENDP	; InventorySelectItemWnd::ChangeTab
_TEXT	ENDS
PUBLIC	??_C@_0BC@NAPHGJDA@?$CFs?5pEdit?5?$DN?$DN?5NULL?4?$AA@ ; `string'
PUBLIC	??_C@_0CA@ECFKEPDL@InventorySelectItemWnd?3?3SetFind?$AA@ ; `string'
PUBLIC	?SetFind@InventorySelectItemWnd@@IAEXXZ		; InventorySelectItemWnd::SetFind
;	COMDAT ??_C@_0BC@NAPHGJDA@?$CFs?5pEdit?5?$DN?$DN?5NULL?4?$AA@
CONST	SEGMENT
??_C@_0BC@NAPHGJDA@?$CFs?5pEdit?5?$DN?$DN?5NULL?4?$AA@ DB '%s pEdit == NU'
	DB	'LL.', 00H					; `string'
CONST	ENDS
;	COMDAT ??_C@_0CA@ECFKEPDL@InventorySelectItemWnd?3?3SetFind?$AA@
CONST	SEGMENT
??_C@_0CA@ECFKEPDL@InventorySelectItemWnd?3?3SetFind?$AA@ DB 'InventorySe'
	DB	'lectItemWnd::SetFind', 00H			; `string'
; Function compile flags: /Ogsp
CONST	ENDS
;	COMDAT ?SetFind@InventorySelectItemWnd@@IAEXXZ
_TEXT	SEGMENT
?SetFind@InventorySelectItemWnd@@IAEXXZ PROC		; InventorySelectItemWnd::SetFind, COMDAT
; _this$ = ecx

; 636  : {

  00000	56		 push	 esi

; 637  : 	ioEdit *pEdit = dynamic_cast<ioEdit*> ( FindChildWnd( ID_FIND_EDIT ) );

  00001	6a 00		 push	 0
  00003	68 00 00 00 00	 push	 OFFSET ??_R0?AVioEdit@@@8
  00008	68 00 00 00 00	 push	 OFFSET ??_R0?AVioWnd@@@8
  0000d	6a 00		 push	 0
  0000f	6a 02		 push	 2
  00011	8b f1		 mov	 esi, ecx
  00013	ff 15 00 00 00
	00		 call	 DWORD PTR __imp_?FindChildWnd@ioWnd@@QAEPAV1@K@Z
  00019	50		 push	 eax
  0001a	e8 00 00 00 00	 call	 ___RTDynamicCast
  0001f	83 c4 14	 add	 esp, 20			; 00000014H

; 638  : 	if( !pEdit )

  00022	85 c0		 test	 eax, eax
  00024	75 1c		 jne	 SHORT $LN1@SetFind

; 639  : 	{
; 640  : 		LOG.PrintTimeAndLog( 0, "%s pEdit == NULL.", __FUNCTION__ );

  00026	68 00 00 00 00	 push	 OFFSET ??_C@_0CA@ECFKEPDL@InventorySelectItemWnd?3?3SetFind?$AA@
  0002b	68 00 00 00 00	 push	 OFFSET ??_C@_0BC@NAPHGJDA@?$CFs?5pEdit?5?$DN?$DN?5NULL?4?$AA@
  00030	50		 push	 eax
  00031	ff 35 00 00 00
	00		 push	 DWORD PTR __imp_?LOG@@3VCLog@@A
  00037	ff 15 00 00 00
	00		 call	 DWORD PTR __imp_?PrintTimeAndLog@CLog@@QAAXHPADZZ
  0003d	83 c4 10	 add	 esp, 16			; 00000010H
  00040	5e		 pop	 esi

; 645  : }

  00041	c3		 ret	 0
$LN1@SetFind:

; 641  : 		return;
; 642  : 	}
; 643  : 
; 644  : 	ChangeTab( m_dwCurTabID, m_szCurrFindKeyword.c_str() );

  00042	8d 8e 78 01 00
	00		 lea	 ecx, DWORD PTR [esi+376]
  00048	ff 15 00 00 00
	00		 call	 DWORD PTR __imp_?c_str@ioHashString@@QBEPBDXZ
  0004e	50		 push	 eax
  0004f	ff b6 64 01 00
	00		 push	 DWORD PTR [esi+356]
  00055	8b ce		 mov	 ecx, esi
  00057	e8 00 00 00 00	 call	 ?ChangeTab@InventorySelectItemWnd@@IAEXKPBD@Z ; InventorySelectItemWnd::ChangeTab
  0005c	5e		 pop	 esi

; 645  : }

  0005d	c3		 ret	 0
?SetFind@InventorySelectItemWnd@@IAEXXZ ENDP		; InventorySelectItemWnd::SetFind
_TEXT	ENDS
PUBLIC	??_C@_0DD@DIEAIMK@InventorySelectItemWnd?3?3ShowInve@ ; `string'
PUBLIC	?ShowInventorySelectItemWnd@InventorySelectItemWnd@@QAEXV?$vector@UInventorySelectItem@@V?$allocator@UInventorySelectItem@@@std@@@std@@PAVioWnd@@V?$vector@VioHashString@@V?$allocator@VioHashString@@@std@@@3@VioHashString@@H_N@Z ; InventorySelectItemWnd::ShowInventorySelectItemWnd
EXTRN	__imp_?ClearString@ioEdit@@QAEXXZ:PROC
EXTRN	__imp_?SafeSprintf@@YAXPADHPBD1H@Z:PROC
;	COMDAT ??_C@_0DD@DIEAIMK@InventorySelectItemWnd?3?3ShowInve@
; File c:\program files (x86)\microsoft visual studio 10.0\vc\include\vector
CONST	SEGMENT
??_C@_0DD@DIEAIMK@InventorySelectItemWnd?3?3ShowInve@ DB 'InventorySelect'
	DB	'ItemWnd::ShowInventorySelectItemWnd', 00H	; `string'
CONST	ENDS
;	COMDAT xdata$x
xdata$x	SEGMENT
__unwindtable$?ShowInventorySelectItemWnd@InventorySelectItemWnd@@QAEXV?$vector@UInventorySelectItem@@V?$allocator@UInventorySelectItem@@@std@@@std@@PAVioWnd@@V?$vector@VioHashString@@V?$allocator@VioHashString@@@std@@@3@VioHashString@@H_N@Z DD 0ffffffffH
	DD	FLAT:__unwindfunclet$?ShowInventorySelectItemWnd@InventorySelectItemWnd@@QAEXV?$vector@UInventorySelectItem@@V?$allocator@UInventorySelectItem@@@std@@@std@@PAVioWnd@@V?$vector@VioHashString@@V?$allocator@VioHashString@@@std@@@3@VioHashString@@H_N@Z$0
	DD	00H
	DD	FLAT:__unwindfunclet$?ShowInventorySelectItemWnd@InventorySelectItemWnd@@QAEXV?$vector@UInventorySelectItem@@V?$allocator@UInventorySelectItem@@@std@@@std@@PAVioWnd@@V?$vector@VioHashString@@V?$allocator@VioHashString@@@std@@@3@VioHashString@@H_N@Z$1
	DD	01H
	DD	FLAT:__unwindfunclet$?ShowInventorySelectItemWnd@InventorySelectItemWnd@@QAEXV?$vector@UInventorySelectItem@@V?$allocator@UInventorySelectItem@@@std@@@std@@PAVioWnd@@V?$vector@VioHashString@@V?$allocator@VioHashString@@@std@@@3@VioHashString@@H_N@Z$2
__ehfuncinfo$?ShowInventorySelectItemWnd@InventorySelectItemWnd@@QAEXV?$vector@UInventorySelectItem@@V?$allocator@UInventorySelectItem@@@std@@@std@@PAVioWnd@@V?$vector@VioHashString@@V?$allocator@VioHashString@@@std@@@3@VioHashString@@H_N@Z DD 019930522H
	DD	03H
	DD	FLAT:__unwindtable$?ShowInventorySelectItemWnd@InventorySelectItemWnd@@QAEXV?$vector@UInventorySelectItem@@V?$allocator@UInventorySelectItem@@@std@@@std@@PAVioWnd@@V?$vector@VioHashString@@V?$allocator@VioHashString@@@std@@@3@VioHashString@@H_N@Z
	DD	2 DUP(00H)
	DD	2 DUP(00H)
	DD	00H
	DD	01H
; Function compile flags: /Ogsp
; File d:\lost saga for developer\youtube\tutorial\source\src\lsclient\gui\inventoryselectitemwnd.cpp
xdata$x	ENDS
;	COMDAT ?ShowInventorySelectItemWnd@InventorySelectItemWnd@@QAEXV?$vector@UInventorySelectItem@@V?$allocator@UInventorySelectItem@@@std@@@std@@PAVioWnd@@V?$vector@VioHashString@@V?$allocator@VioHashString@@@std@@@3@VioHashString@@H_N@Z
_TEXT	SEGMENT
$T513213 = -280						; size = 4
_szBuf$505794 = -276					; size = 260
__$EHRec$ = -12						; size = 12
_vitemList$ = 8						; size = 16
_pPreSelectedWnd$ = 24					; size = 4
_vRadioBtnNameList$ = 28				; size = 16
_szTitleName$ = 44					; size = 16
_iEtcItemCount$ = 60					; size = 4
_bIsCostume$ = 64					; size = 1
?ShowInventorySelectItemWnd@InventorySelectItemWnd@@QAEXV?$vector@UInventorySelectItem@@V?$allocator@UInventorySelectItem@@@std@@@std@@PAVioWnd@@V?$vector@VioHashString@@V?$allocator@VioHashString@@@std@@@3@VioHashString@@H_N@Z PROC ; InventorySelectItemWnd::ShowInventorySelectItemWnd, COMDAT
; _this$ = ecx

; 288  : {

  00000	68 0c 01 00 00	 push	 268			; 0000010cH
  00005	b8 00 00 00 00	 mov	 eax, __ehhandler$?ShowInventorySelectItemWnd@InventorySelectItemWnd@@QAEXV?$vector@UInventorySelectItem@@V?$allocator@UInventorySelectItem@@@std@@@std@@PAVioWnd@@V?$vector@VioHashString@@V?$allocator@VioHashString@@@std@@@3@VioHashString@@H_N@Z
  0000a	e8 00 00 00 00	 call	 __EH_prolog3_GS
  0000f	8b f1		 mov	 esi, ecx

; 289  : 	SetRadioBtn( vRadioBtnNameList );

  00011	8d 45 1c	 lea	 eax, DWORD PTR _vRadioBtnNameList$[ebp]
  00014	50		 push	 eax
  00015	c7 45 fc 02 00
	00 00		 mov	 DWORD PTR __$EHRec$[ebp+8], 2
  0001c	e8 00 00 00 00	 call	 ?SetRadioBtn@InventorySelectItemWnd@@IAEXABV?$vector@VioHashString@@V?$allocator@VioHashString@@@std@@@std@@@Z ; InventorySelectItemWnd::SetRadioBtn

; 290  : 
; 291  : 	m_iEtcItemCount = iEtcItemCount;

  00021	8b 45 3c	 mov	 eax, DWORD PTR _iEtcItemCount$[ebp]
  00024	89 86 ac 01 00
	00		 mov	 DWORD PTR [esi+428], eax

; 292  : 	m_bIsCostume = bIsCostume;

  0002a	8a 45 40	 mov	 al, BYTE PTR _bIsCostume$[ebp]

; 293  : 
; 294  : 	if ( szTitleName.IsEmpty() )

  0002d	8d 4d 2c	 lea	 ecx, DWORD PTR _szTitleName$[ebp]
  00030	88 86 b0 01 00
	00		 mov	 BYTE PTR [esi+432], al
  00036	ff 15 00 00 00
	00		 call	 DWORD PTR __imp_?IsEmpty@ioHashString@@QBE_NXZ
  0003c	84 c0		 test	 al, al
  0003e	74 22		 je	 SHORT $LN4@ShowInvent

; 295  : 		SetTitleText( STR(2) );

  00040	33 db		 xor	 ebx, ebx
  00042	53		 push	 ebx
  00043	bf 00 00 00 00	 mov	 edi, OFFSET ??_C@_00CNPNBAHC@?$AA@
  00048	57		 push	 edi
  00049	53		 push	 ebx
  0004a	6a 02		 push	 2
  0004c	57		 push	 edi
  0004d	68 00 00 00 00	 push	 OFFSET ??_C@_0DD@DIEAIMK@InventorySelectItemWnd?3?3ShowInve@
  00052	ff 15 00 00 00
	00		 call	 DWORD PTR __imp_?GetSingleton@ioStringManager@@SAAAV1@XZ
  00058	8b c8		 mov	 ecx, eax
  0005a	ff 15 00 00 00
	00		 call	 DWORD PTR __imp_?GetString@ioStringManager@@QAEPADPBD0HW4FileNamePrefix@1@@Z

; 296  : 	else

  00060	eb 4c		 jmp	 SHORT $LN37@ShowInvent
$LN4@ShowInvent:

; 297  : 	{
; 298  : 		char szBuf[MAX_PATH];
; 299  : 		SafeSprintf( szBuf, sizeof( szBuf), STR(3), szTitleName.c_str(), m_iEtcItemCount );

  00062	ff b6 ac 01 00
	00		 push	 DWORD PTR [esi+428]
  00068	8d 4d 2c	 lea	 ecx, DWORD PTR _szTitleName$[ebp]
  0006b	ff 15 00 00 00
	00		 call	 DWORD PTR __imp_?c_str@ioHashString@@QBEPBDXZ
  00071	50		 push	 eax
  00072	33 db		 xor	 ebx, ebx
  00074	53		 push	 ebx
  00075	6a 03		 push	 3
  00077	bf 00 00 00 00	 mov	 edi, OFFSET ??_C@_00CNPNBAHC@?$AA@
  0007c	57		 push	 edi
  0007d	68 00 00 00 00	 push	 OFFSET ??_C@_0DD@DIEAIMK@InventorySelectItemWnd?3?3ShowInve@
  00082	ff 15 00 00 00
	00		 call	 DWORD PTR __imp_?GetSingleton@ioStringManager@@SAAAV1@XZ
  00088	8b c8		 mov	 ecx, eax
  0008a	ff 15 00 00 00
	00		 call	 DWORD PTR __imp_?GetString@ioStringManager@@QAEPADPBD0HW4FileNamePrefix@1@@Z
  00090	50		 push	 eax
  00091	8d 85 ec fe ff
	ff		 lea	 eax, DWORD PTR _szBuf$505794[ebp]
  00097	68 04 01 00 00	 push	 260			; 00000104H
  0009c	50		 push	 eax
  0009d	ff 15 00 00 00
	00		 call	 DWORD PTR __imp_?SafeSprintf@@YAXPADHPBD1H@Z
  000a3	83 c4 14	 add	 esp, 20			; 00000014H

; 300  : 		SetTitleText( szBuf );

  000a6	53		 push	 ebx
  000a7	57		 push	 edi
  000a8	8d 85 ec fe ff
	ff		 lea	 eax, DWORD PTR _szBuf$505794[ebp]
$LN37@ShowInvent:
  000ae	50		 push	 eax
  000af	8b ce		 mov	 ecx, esi
  000b1	ff 15 00 00 00
	00		 call	 DWORD PTR __imp_?SetTitleText@ioWnd@@QAEXPBD0H@Z

; 301  : 	}
; 302  : 	
; 303  : 	m_vAllItemList = vitemList;

  000b7	8d 45 08	 lea	 eax, DWORD PTR _vitemList$[ebp]
  000ba	50		 push	 eax
  000bb	8d 8e 88 01 00
	00		 lea	 ecx, DWORD PTR [esi+392]
  000c1	e8 00 00 00 00	 call	 ??4?$vector@UInventorySelectItem@@V?$allocator@UInventorySelectItem@@@std@@@std@@QAEAAV01@ABV01@@Z ; std::vector<InventorySelectItem,std::allocator<InventorySelectItem> >::operator=

; 304  : 	m_vCurItemList.clear();

  000c6	8d 8e 98 01 00
	00		 lea	 ecx, DWORD PTR [esi+408]
  000cc	8b 41 04	 mov	 eax, DWORD PTR [ecx+4]
  000cf	8b 11		 mov	 edx, DWORD PTR [ecx]
  000d1	50		 push	 eax
  000d2	52		 push	 edx
  000d3	8d 85 e8 fe ff
	ff		 lea	 eax, DWORD PTR $T513213[ebp]
  000d9	50		 push	 eax
  000da	e8 00 00 00 00	 call	 ?erase@?$vector@UInventorySelectItem@@V?$allocator@UInventorySelectItem@@@std@@@std@@QAE?AV?$_Vector_iterator@V?$_Vector_val@UInventorySelectItem@@V?$allocator@UInventorySelectItem@@@std@@@std@@@2@V?$_Vector_const_iterator@V?$_Vector_val@UInventorySelectItem@@V?$allocator@UInventorySelectItem@@@std@@@std@@@2@0@Z ; std::vector<InventorySelectItem,std::allocator<InventorySelectItem> >::erase

; 305  : 	m_szCurrFindKeyword.Clear();

  000df	8d 8e 78 01 00
	00		 lea	 ecx, DWORD PTR [esi+376]
  000e5	ff 15 00 00 00
	00		 call	 DWORD PTR __imp_?Clear@ioHashString@@QAEXXZ

; 306  : 
; 307  : 	ChangeTab( m_dwCurTabID, "" );

  000eb	57		 push	 edi
  000ec	ff b6 64 01 00
	00		 push	 DWORD PTR [esi+356]
  000f2	8b ce		 mov	 ecx, esi
  000f4	e8 00 00 00 00	 call	 ?ChangeTab@InventorySelectItemWnd@@IAEXKPBD@Z ; InventorySelectItemWnd::ChangeTab

; 308  : 	ioEdit *pEdit = dynamic_cast<ioEdit*> ( FindChildWnd( ID_FIND_EDIT ) );

  000f9	53		 push	 ebx
  000fa	68 00 00 00 00	 push	 OFFSET ??_R0?AVioEdit@@@8
  000ff	68 00 00 00 00	 push	 OFFSET ??_R0?AVioWnd@@@8
  00104	53		 push	 ebx
  00105	6a 02		 push	 2
  00107	8b ce		 mov	 ecx, esi
  00109	ff 15 00 00 00
	00		 call	 DWORD PTR __imp_?FindChildWnd@ioWnd@@QAEPAV1@K@Z
  0010f	50		 push	 eax
  00110	e8 00 00 00 00	 call	 ___RTDynamicCast
  00115	8b f8		 mov	 edi, eax
  00117	83 c4 14	 add	 esp, 20			; 00000014H

; 309  : 	if( pEdit )

  0011a	3b fb		 cmp	 edi, ebx
  0011c	74 12		 je	 SHORT $LN2@ShowInvent

; 310  : 	{
; 311  : 		pEdit->ClearString();

  0011e	8b cf		 mov	 ecx, edi
  00120	ff 15 00 00 00
	00		 call	 DWORD PTR __imp_?ClearString@ioEdit@@QAEXXZ

; 312  : 		pEdit->KillKeyFocus();

  00126	8b 07		 mov	 eax, DWORD PTR [edi]
  00128	8b cf		 mov	 ecx, edi
  0012a	ff 90 34 01 00
	00		 call	 DWORD PTR [eax+308]
$LN2@ShowInvent:

; 313  : 	}
; 314  : 
; 315  : 	m_pPreSelectedWnd = NULL;
; 316  : 	if ( pPreSelectedWnd != NULL )

  00130	8b 4d 18	 mov	 ecx, DWORD PTR _pPreSelectedWnd$[ebp]
  00133	89 9e a8 01 00
	00		 mov	 DWORD PTR [esi+424], ebx
  00139	3b cb		 cmp	 ecx, ebx
  0013b	74 06		 je	 SHORT $LN1@ShowInvent

; 317  : 		m_pPreSelectedWnd = pPreSelectedWnd;

  0013d	89 8e a8 01 00
	00		 mov	 DWORD PTR [esi+424], ecx
$LN1@ShowInvent:

; 318  : 
; 319  : 	ShowWnd();

  00143	8b ce		 mov	 ecx, esi
  00145	ff 15 00 00 00
	00		 call	 DWORD PTR __imp_?ShowWnd@ioWnd@@QAEXXZ

; 320  : }

  0014b	8d 4d 08	 lea	 ecx, DWORD PTR _vitemList$[ebp]
  0014e	c6 45 fc 01	 mov	 BYTE PTR __$EHRec$[ebp+8], 1
  00152	e8 00 00 00 00	 call	 ?_Tidy@?$vector@UInventorySelectItem@@V?$allocator@UInventorySelectItem@@@std@@@std@@IAEXXZ ; std::vector<InventorySelectItem,std::allocator<InventorySelectItem> >::_Tidy
  00157	8d 4d 1c	 lea	 ecx, DWORD PTR _vRadioBtnNameList$[ebp]
  0015a	88 5d fc	 mov	 BYTE PTR __$EHRec$[ebp+8], bl
  0015d	e8 00 00 00 00	 call	 ?_Tidy@?$vector@VioHashString@@V?$allocator@VioHashString@@@std@@@std@@IAEXXZ ; std::vector<ioHashString,std::allocator<ioHashString> >::_Tidy
  00162	83 4d fc ff	 or	 DWORD PTR __$EHRec$[ebp+8], -1
  00166	8d 4d 2c	 lea	 ecx, DWORD PTR _szTitleName$[ebp]
  00169	ff 15 00 00 00
	00		 call	 DWORD PTR __imp_??1ioHashString@@QAE@XZ
  0016f	e8 00 00 00 00	 call	 __EH_epilog3_GS
  00174	c2 3c 00	 ret	 60			; 0000003cH
_TEXT	ENDS
;	COMDAT text$x
text$x	SEGMENT
__unwindfunclet$?ShowInventorySelectItemWnd@InventorySelectItemWnd@@QAEXV?$vector@UInventorySelectItem@@V?$allocator@UInventorySelectItem@@@std@@@std@@PAVioWnd@@V?$vector@VioHashString@@V?$allocator@VioHashString@@@std@@@3@VioHashString@@H_N@Z$0:
  00000	8d 4d 2c	 lea	 ecx, DWORD PTR _szTitleName$[ebp]
  00003	ff 25 00 00 00
	00		 jmp	 DWORD PTR __imp_??1ioHashString@@QAE@XZ
__unwindfunclet$?ShowInventorySelectItemWnd@InventorySelectItemWnd@@QAEXV?$vector@UInventorySelectItem@@V?$allocator@UInventorySelectItem@@@std@@@std@@PAVioWnd@@V?$vector@VioHashString@@V?$allocator@VioHashString@@@std@@@3@VioHashString@@H_N@Z$1:
  00009	8d 4d 1c	 lea	 ecx, DWORD PTR _vRadioBtnNameList$[ebp]
  0000c	e9 00 00 00 00	 jmp	 ??1?$vector@VioHashString@@V?$allocator@VioHashString@@@std@@@std@@QAE@XZ ; std::vector<ioHashString,std::allocator<ioHashString> >::~vector<ioHashString,std::allocator<ioHashString> >
__unwindfunclet$?ShowInventorySelectItemWnd@InventorySelectItemWnd@@QAEXV?$vector@UInventorySelectItem@@V?$allocator@UInventorySelectItem@@@std@@@std@@PAVioWnd@@V?$vector@VioHashString@@V?$allocator@VioHashString@@@std@@@3@VioHashString@@H_N@Z$2:
  00011	8d 4d 08	 lea	 ecx, DWORD PTR _vitemList$[ebp]
  00014	e9 00 00 00 00	 jmp	 ??1?$vector@UInventorySelectItem@@V?$allocator@UInventorySelectItem@@@std@@@std@@QAE@XZ ; std::vector<InventorySelectItem,std::allocator<InventorySelectItem> >::~vector<InventorySelectItem,std::allocator<InventorySelectItem> >
__ehhandler$?ShowInventorySelectItemWnd@InventorySelectItemWnd@@QAEXV?$vector@UInventorySelectItem@@V?$allocator@UInventorySelectItem@@@std@@@std@@PAVioWnd@@V?$vector@VioHashString@@V?$allocator@VioHashString@@@std@@@3@VioHashString@@H_N@Z:
  00019	8b 54 24 08	 mov	 edx, DWORD PTR [esp+8]
  0001d	8d 42 0c	 lea	 eax, DWORD PTR [edx+12]
  00020	8b 8a e4 fe ff
	ff		 mov	 ecx, DWORD PTR [edx-284]
  00026	33 c8		 xor	 ecx, eax
  00028	e8 00 00 00 00	 call	 @__security_check_cookie@4
  0002d	8b 4a fc	 mov	 ecx, DWORD PTR [edx-4]
  00030	33 c8		 xor	 ecx, eax
  00032	e8 00 00 00 00	 call	 @__security_check_cookie@4
  00037	b8 00 00 00 00	 mov	 eax, OFFSET __ehfuncinfo$?ShowInventorySelectItemWnd@InventorySelectItemWnd@@QAEXV?$vector@UInventorySelectItem@@V?$allocator@UInventorySelectItem@@@std@@@std@@PAVioWnd@@V?$vector@VioHashString@@V?$allocator@VioHashString@@@std@@@3@VioHashString@@H_N@Z
  0003c	e9 00 00 00 00	 jmp	 ___CxxFrameHandler3
text$x	ENDS
?ShowInventorySelectItemWnd@InventorySelectItemWnd@@QAEXV?$vector@UInventorySelectItem@@V?$allocator@UInventorySelectItem@@@std@@@std@@PAVioWnd@@V?$vector@VioHashString@@V?$allocator@VioHashString@@@std@@@3@VioHashString@@H_N@Z ENDP ; InventorySelectItemWnd::ShowInventorySelectItemWnd
; Function compile flags: /Ogsp
;	COMDAT ?iwm_command@InventorySelectItemWnd@@UAEXPAVioWnd@@HK@Z
_TEXT	SEGMENT
_this$ = -4						; size = 4
_pWnd$ = 8						; size = 4
tv255 = 12						; size = 4
_cmd$ = 12						; size = 4
_param$ = 16						; size = 4
?iwm_command@InventorySelectItemWnd@@UAEXPAVioWnd@@HK@Z PROC ; InventorySelectItemWnd::iwm_command, COMDAT
; _this$ = ecx

; 426  : {

  00000	55		 push	 ebp
  00001	8b ec		 mov	 ebp, esp
  00003	51		 push	 ecx
  00004	53		 push	 ebx
  00005	56		 push	 esi
  00006	8b f1		 mov	 esi, ecx

; 427  : 	DWORD dwID = pWnd->GetID();

  00008	8b 4d 08	 mov	 ecx, DWORD PTR _pWnd$[ebp]
  0000b	57		 push	 edi
  0000c	89 75 fc	 mov	 DWORD PTR _this$[ebp], esi
  0000f	ff 15 00 00 00
	00		 call	 DWORD PTR __imp_?GetID@ioWnd@@QBEKXZ

; 428  : 	switch( dwID )

  00015	3d 85 00 00 00	 cmp	 eax, 133		; 00000085H
  0001a	77 4e		 ja	 SHORT $LN22@iwm_comman@2
  0001c	3d 83 00 00 00	 cmp	 eax, 131		; 00000083H
  00021	73 7d		 jae	 SHORT $LN15@iwm_comman@2
  00023	83 f8 01	 cmp	 eax, 1
  00026	74 33		 je	 SHORT $LN17@iwm_comman@2
  00028	83 f8 03	 cmp	 eax, 3
  0002b	74 18		 je	 SHORT $LN2@iwm_comman@2
  0002d	83 f8 6f	 cmp	 eax, 111		; 0000006fH
  00030	74 6e		 je	 SHORT $LN15@iwm_comman@2
  00032	83 f8 78	 cmp	 eax, 120		; 00000078H
  00035	0f 86 77 01 00
	00		 jbe	 $LN3@iwm_comman@2
  0003b	83 f8 7a	 cmp	 eax, 122		; 0000007aH
  0003e	76 60		 jbe	 SHORT $LN15@iwm_comman@2
  00040	e9 6d 01 00 00	 jmp	 $LN3@iwm_comman@2
$LN2@iwm_comman@2:

; 496  : 		break;
; 497  : 	case ID_FIND_BTN:
; 498  : 		if( cmd == IOBN_BTNUP )

  00045	83 7d 0c 11	 cmp	 DWORD PTR _cmd$[ebp], 17 ; 00000011H
  00049	0f 85 63 01 00
	00		 jne	 $LN3@iwm_comman@2

; 499  : 		{
; 500  : 			SetFind();

  0004f	8b ce		 mov	 ecx, esi
  00051	e8 00 00 00 00	 call	 ?SetFind@InventorySelectItemWnd@@IAEXXZ ; InventorySelectItemWnd::SetFind

; 501  : 		}
; 502  : 		break;

  00056	e9 57 01 00 00	 jmp	 $LN3@iwm_comman@2
$LN17@iwm_comman@2:

; 429  : 	{
; 430  : 	case ID_EXIT_BTN:
; 431  : 		if( cmd == IOBN_BTNUP )

  0005b	83 7d 0c 11	 cmp	 DWORD PTR _cmd$[ebp], 17 ; 00000011H
  0005f	0f 85 4d 01 00
	00		 jne	 $LN3@iwm_comman@2

; 432  : 		{
; 433  : 			HideWnd();
; 434  : 		}
; 435  : 		break;

  00065	e9 99 00 00 00	 jmp	 $LN28@iwm_comman@2
$LN22@iwm_comman@2:

; 428  : 	switch( dwID )

  0006a	3d a6 00 00 00	 cmp	 eax, 166		; 000000a6H
  0006f	77 4b		 ja	 SHORT $LN23@iwm_comman@2
  00071	3d a1 00 00 00	 cmp	 eax, 161		; 000000a1H
  00076	73 28		 jae	 SHORT $LN15@iwm_comman@2
  00078	3d 8d 00 00 00	 cmp	 eax, 141		; 0000008dH
  0007d	0f 82 2f 01 00
	00		 jb	 $LN3@iwm_comman@2
  00083	3d 90 00 00 00	 cmp	 eax, 144		; 00000090H
  00088	76 16		 jbe	 SHORT $LN15@iwm_comman@2
  0008a	3d 96 00 00 00	 cmp	 eax, 150		; 00000096H
  0008f	0f 86 1d 01 00
	00		 jbe	 $LN3@iwm_comman@2
  00095	3d 9b 00 00 00	 cmp	 eax, 155		; 0000009bH
  0009a	0f 87 12 01 00
	00		 ja	 $LN3@iwm_comman@2
$LN15@iwm_comman@2:

; 436  : 	case ID_TAB1_1_BTN:
; 437  : 	case ID_TAB2_1_BTN:
; 438  : 	case ID_TAB2_2_BTN:
; 439  : 	case ID_TAB3_1_BTN:
; 440  : 	case ID_TAB3_2_BTN:
; 441  : 	case ID_TAB3_3_BTN:
; 442  : 	case ID_TAB4_1_BTN:
; 443  : 	case ID_TAB4_2_BTN:
; 444  : 	case ID_TAB4_3_BTN:
; 445  : 	case ID_TAB4_4_BTN:
; 446  : 	case ID_TAB5_1_BTN:
; 447  : 	case ID_TAB5_2_BTN:
; 448  : 	case ID_TAB5_3_BTN:
; 449  : 	case ID_TAB5_4_BTN:
; 450  : 	case ID_TAB5_5_BTN:
; 451  : 	case ID_TAB6_1_BTN:
; 452  : 	case ID_TAB6_2_BTN:
; 453  : 	case ID_TAB6_3_BTN:
; 454  : 	case ID_TAB6_4_BTN:
; 455  : 	case ID_TAB6_5_BTN:
; 456  : 	case ID_TAB6_6_BTN:
; 457  : 		if( cmd == IOBN_BTNDOWN )

  000a0	83 7d 0c 10	 cmp	 DWORD PTR _cmd$[ebp], 16 ; 00000010H
  000a4	0f 85 08 01 00
	00		 jne	 $LN3@iwm_comman@2

; 458  : 		{
; 459  : 			ChangeTab( dwID, "" );

  000aa	68 00 00 00 00	 push	 OFFSET ??_C@_00CNPNBAHC@?$AA@
  000af	50		 push	 eax
  000b0	8b ce		 mov	 ecx, esi
  000b2	e8 00 00 00 00	 call	 ?ChangeTab@InventorySelectItemWnd@@IAEXKPBD@Z ; InventorySelectItemWnd::ChangeTab

; 460  : 		}
; 461  : 		break;

  000b7	e9 f6 00 00 00	 jmp	 $LN3@iwm_comman@2
$LN23@iwm_comman@2:

; 428  : 	switch( dwID )

  000bc	3d c9 00 00 00	 cmp	 eax, 201		; 000000c9H
  000c1	0f 82 eb 00 00
	00		 jb	 $LN3@iwm_comman@2
  000c7	3d d0 00 00 00	 cmp	 eax, 208		; 000000d0H
  000cc	0f 87 e0 00 00
	00		 ja	 $LN3@iwm_comman@2

; 462  : 	case ID_ITEM_INFO_WND_1_BTN:
; 463  : 	case ID_ITEM_INFO_WND_2_BTN:
; 464  : 	case ID_ITEM_INFO_WND_3_BTN:
; 465  : 	case ID_ITEM_INFO_WND_4_BTN:
; 466  : 	case ID_ITEM_INFO_WND_5_BTN:
; 467  : 	case ID_ITEM_INFO_WND_6_BTN:
; 468  : 	case ID_ITEM_INFO_WND_7_BTN:
; 469  : 	case ID_ITEM_INFO_WND_8_BTN:
; 470  : 		if( cmd == IOBN_BTNUP )

  000d2	83 7d 0c 11	 cmp	 DWORD PTR _cmd$[ebp], 17 ; 00000011H
  000d6	75 38		 jne	 SHORT $LN12@iwm_comman@2

; 471  : 		{
; 472  : 			if ( m_pPreSelectedWnd && param != -1 )

  000d8	83 be a8 01 00
	00 00		 cmp	 DWORD PTR [esi+424], 0
  000df	0f 84 cd 00 00
	00		 je	 $LN3@iwm_comman@2
  000e5	83 7d 10 ff	 cmp	 DWORD PTR _param$[ebp], -1
  000e9	0f 84 c3 00 00
	00		 je	 $LN3@iwm_comman@2

; 473  : 			{
; 474  : 				m_pPreSelectedWnd->iwm_command( this, IOBN_BTNUP, param );

  000ef	ff 75 10	 push	 DWORD PTR _param$[ebp]
  000f2	8b 8e a8 01 00
	00		 mov	 ecx, DWORD PTR [esi+424]
  000f8	8b 01		 mov	 eax, DWORD PTR [ecx]
  000fa	6a 11		 push	 17			; 00000011H
  000fc	56		 push	 esi
  000fd	ff 90 8c 00 00
	00		 call	 DWORD PTR [eax+140]
$LN28@iwm_comman@2:

; 475  : 				HideWnd();

  00103	8b ce		 mov	 ecx, esi
  00105	ff 15 00 00 00
	00		 call	 DWORD PTR __imp_?HideWnd@ioWnd@@QAEXXZ

; 476  : 			}
; 477  : 		}

  0010b	e9 a2 00 00 00	 jmp	 $LN3@iwm_comman@2
$LN12@iwm_comman@2:

; 478  : 		else if( cmd == IOWN_OVERED )

  00110	83 7d 0c 04	 cmp	 DWORD PTR _cmd$[ebp], 4
  00114	0f 85 83 00 00
	00		 jne	 $LN9@iwm_comman@2

; 479  : 		{
; 480  : 			InventorySelectItemBtn *pInfo = dynamic_cast<InventorySelectItemBtn*>( FindChildWnd( dwID ) );

  0011a	33 db		 xor	 ebx, ebx
  0011c	53		 push	 ebx
  0011d	68 00 00 00 00	 push	 OFFSET ??_R0?AVInventorySelectItemBtn@@@8
  00122	bf 00 00 00 00	 mov	 edi, OFFSET ??_R0?AVioWnd@@@8
  00127	57		 push	 edi
  00128	53		 push	 ebx
  00129	8b ce		 mov	 ecx, esi
  0012b	8b 35 00 00 00
	00		 mov	 esi, DWORD PTR __imp_?FindChildWnd@ioWnd@@QAEPAV1@K@Z
  00131	50		 push	 eax
  00132	ff d6		 call	 esi
  00134	50		 push	 eax
  00135	e8 00 00 00 00	 call	 ___RTDynamicCast
  0013a	83 c4 14	 add	 esp, 20			; 00000014H

; 481  : 			if ( pInfo )

  0013d	3b c3		 cmp	 eax, ebx
  0013f	74 71		 je	 SHORT $LN3@iwm_comman@2

; 482  : 			{
; 483  : 				if ( !pInfo->GetItemName().IsEmpty() )

  00141	8d 88 70 02 00
	00		 lea	 ecx, DWORD PTR [eax+624]
  00147	89 4d 0c	 mov	 DWORD PTR tv255[ebp], ecx
  0014a	ff 15 00 00 00
	00		 call	 DWORD PTR __imp_?IsEmpty@ioHashString@@QBE_NXZ
  00150	84 c0		 test	 al, al
  00152	75 5e		 jne	 SHORT $LN3@iwm_comman@2

; 484  : 				{
; 485  : 					InventorySelectItemToolTip *pTooltip = dynamic_cast<InventorySelectItemToolTip*>( FindChildWnd( ID_TOOLTIP ) );

  00154	8b 4d fc	 mov	 ecx, DWORD PTR _this$[ebp]
  00157	53		 push	 ebx
  00158	68 00 00 00 00	 push	 OFFSET ??_R0?AVInventorySelectItemToolTip@@@8
  0015d	57		 push	 edi
  0015e	53		 push	 ebx
  0015f	bf 2c 01 00 00	 mov	 edi, 300		; 0000012cH
  00164	57		 push	 edi
  00165	ff d6		 call	 esi
  00167	50		 push	 eax
  00168	e8 00 00 00 00	 call	 ___RTDynamicCast
  0016d	8b f0		 mov	 esi, eax
  0016f	83 c4 14	 add	 esp, 20			; 00000014H

; 486  : 					if( pTooltip && !pTooltip->IsShow() )

  00172	3b f3		 cmp	 esi, ebx
  00174	74 3c		 je	 SHORT $LN3@iwm_comman@2
  00176	8b ce		 mov	 ecx, esi
  00178	ff 15 00 00 00
	00		 call	 DWORD PTR __imp_?IsShow@ioWnd@@QBE_NXZ
  0017e	84 c0		 test	 al, al
  00180	75 30		 jne	 SHORT $LN3@iwm_comman@2

; 487  : 					{
; 488  : 						if( pTooltip->SetInfo( pInfo->GetItemName() ) )

  00182	ff 75 0c	 push	 DWORD PTR tv255[ebp]
  00185	8b ce		 mov	 ecx, esi
  00187	e8 00 00 00 00	 call	 ?SetInfo@InventorySelectItemToolTip@@QAE_NABVioHashString@@@Z ; InventorySelectItemToolTip::SetInfo
  0018c	84 c0		 test	 al, al
  0018e	74 22		 je	 SHORT $LN3@iwm_comman@2

; 489  : 							ShowChildWnd( ID_TOOLTIP );

  00190	8b 4d fc	 mov	 ecx, DWORD PTR _this$[ebp]
  00193	53		 push	 ebx
  00194	57		 push	 edi
  00195	ff 15 00 00 00
	00		 call	 DWORD PTR __imp_?ShowChildWnd@ioWnd@@QAEXK_N@Z

; 490  : 					}
; 491  : 				}
; 492  : 			}
; 493  : 		}

  0019b	eb 15		 jmp	 SHORT $LN3@iwm_comman@2
$LN9@iwm_comman@2:

; 494  : 		else if( cmd == IOWN_LEAVED )

  0019d	83 7d 0c 03	 cmp	 DWORD PTR _cmd$[ebp], 3
  001a1	75 0f		 jne	 SHORT $LN3@iwm_comman@2

; 495  : 			HideChildWnd( ID_TOOLTIP );

  001a3	6a 00		 push	 0
  001a5	68 2c 01 00 00	 push	 300			; 0000012cH
  001aa	8b ce		 mov	 ecx, esi
  001ac	ff 15 00 00 00
	00		 call	 DWORD PTR __imp_?HideChildWnd@ioWnd@@QAEXK_N@Z
$LN3@iwm_comman@2:
  001b2	5f		 pop	 edi
  001b3	5e		 pop	 esi
  001b4	5b		 pop	 ebx

; 503  : 	}
; 504  : }

  001b5	c9		 leave
  001b6	c2 0c 00	 ret	 12			; 0000000cH
?iwm_command@InventorySelectItemWnd@@UAEXPAVioWnd@@HK@Z ENDP ; InventorySelectItemWnd::iwm_command
_TEXT	ENDS
END
