; Listing generated by Microsoft (R) Optimizing Compiler Version 16.00.30319.01 

	TITLE	D:\Lost Saga For Developer\Youtube\Tutorial\Source\src\LSClient\io2DCircleGauge.cpp
	.686P
	.XMM
	include listing.inc
	.model	flat

INCLUDELIB MSVCRT
INCLUDELIB OLDNAMES

PUBLIC	??_7io2DCircleGauge@@6B@			; io2DCircleGauge::`vftable'
PUBLIC	??0io2DCircleGauge@@QAE@XZ			; io2DCircleGauge::io2DCircleGauge
PUBLIC	??_R4io2DCircleGauge@@6B@			; io2DCircleGauge::`RTTI Complete Object Locator'
PUBLIC	??_R0?AVio2DCircleGauge@@@8			; io2DCircleGauge `RTTI Type Descriptor'
PUBLIC	??_R3io2DCircleGauge@@8				; io2DCircleGauge::`RTTI Class Hierarchy Descriptor'
PUBLIC	??_R2io2DCircleGauge@@8				; io2DCircleGauge::`RTTI Base Class Array'
PUBLIC	??_R1A@?0A@EA@io2DCircleGauge@@8		; io2DCircleGauge::`RTTI Base Class Descriptor at (0,-1,0,64)'
EXTRN	??_7type_info@@6B@:QWORD			; type_info::`vftable'
EXTRN	??_Eio2DCircleGauge@@UAEPAXI@Z:PROC		; io2DCircleGauge::`vector deleting destructor'
;	COMDAT ??_R1A@?0A@EA@io2DCircleGauge@@8
; File d:\lost saga for developer\youtube\tutorial\source\src\lsclient\io2dcirclegauge.cpp
rdata$r	SEGMENT
??_R1A@?0A@EA@io2DCircleGauge@@8 DD FLAT:??_R0?AVio2DCircleGauge@@@8 ; io2DCircleGauge::`RTTI Base Class Descriptor at (0,-1,0,64)'
	DD	00H
	DD	00H
	DD	0ffffffffH
	DD	00H
	DD	040H
	DD	FLAT:??_R3io2DCircleGauge@@8
rdata$r	ENDS
;	COMDAT ??_R2io2DCircleGauge@@8
rdata$r	SEGMENT
??_R2io2DCircleGauge@@8 DD FLAT:??_R1A@?0A@EA@io2DCircleGauge@@8 ; io2DCircleGauge::`RTTI Base Class Array'
rdata$r	ENDS
;	COMDAT ??_R3io2DCircleGauge@@8
rdata$r	SEGMENT
??_R3io2DCircleGauge@@8 DD 00H				; io2DCircleGauge::`RTTI Class Hierarchy Descriptor'
	DD	00H
	DD	01H
	DD	FLAT:??_R2io2DCircleGauge@@8
rdata$r	ENDS
;	COMDAT ??_R0?AVio2DCircleGauge@@@8
_DATA	SEGMENT
??_R0?AVio2DCircleGauge@@@8 DD FLAT:??_7type_info@@6B@	; io2DCircleGauge `RTTI Type Descriptor'
	DD	00H
	DB	'.?AVio2DCircleGauge@@', 00H
_DATA	ENDS
;	COMDAT ??_R4io2DCircleGauge@@6B@
rdata$r	SEGMENT
??_R4io2DCircleGauge@@6B@ DD 00H			; io2DCircleGauge::`RTTI Complete Object Locator'
	DD	00H
	DD	00H
	DD	FLAT:??_R0?AVio2DCircleGauge@@@8
	DD	FLAT:??_R3io2DCircleGauge@@8
rdata$r	ENDS
;	COMDAT ??_7io2DCircleGauge@@6B@
CONST	SEGMENT
??_7io2DCircleGauge@@6B@ DD FLAT:??_R4io2DCircleGauge@@6B@ ; io2DCircleGauge::`vftable'
	DD	FLAT:??_Eio2DCircleGauge@@UAEPAXI@Z
; Function compile flags: /Ogsp
CONST	ENDS
;	COMDAT ??0io2DCircleGauge@@QAE@XZ
_TEXT	SEGMENT
??0io2DCircleGauge@@QAE@XZ PROC				; io2DCircleGauge::io2DCircleGauge, COMDAT
; _this$ = ecx

; 12   : {

  00000	8b c1		 mov	 eax, ecx

; 13   : 	m_pGaugeData = NULL;
; 14   : 	m_pGaugeTex  = NULL;
; 15   : 
; 16   : 	m_iRenderX = -1;

  00002	83 48 0c ff	 or	 DWORD PTR [eax+12], -1

; 17   : 	m_iRenderY = -1;

  00006	83 48 10 ff	 or	 DWORD PTR [eax+16], -1

; 18   : 
; 19   : 	m_iMaxCount  = 0;
; 20   : 	m_iFrontSkip = 0;
; 21   : 	m_iBackSkip  = 0;
; 22   : 	m_iCurRenderCount = -1;

  0000a	83 48 20 ff	 or	 DWORD PTR [eax+32], -1
  0000e	33 c9		 xor	 ecx, ecx
  00010	c7 00 00 00 00
	00		 mov	 DWORD PTR [eax], OFFSET ??_7io2DCircleGauge@@6B@
  00016	89 48 04	 mov	 DWORD PTR [eax+4], ecx
  00019	89 48 08	 mov	 DWORD PTR [eax+8], ecx
  0001c	89 48 14	 mov	 DWORD PTR [eax+20], ecx
  0001f	89 48 18	 mov	 DWORD PTR [eax+24], ecx
  00022	89 48 1c	 mov	 DWORD PTR [eax+28], ecx

; 23   : 
; 24   : 	m_eStartType = ST_6OCLOCK;

  00025	89 48 24	 mov	 DWORD PTR [eax+36], ecx

; 25   : }

  00028	c3		 ret	 0
??0io2DCircleGauge@@QAE@XZ ENDP				; io2DCircleGauge::io2DCircleGauge
_TEXT	ENDS
PUBLIC	?return1@@YAIXZ					; return1
; Function compile flags: /Ogsp
; File d:\lost saga for developer\youtube\tutorial\source\src\lsclient\stdafx.h
;	COMDAT ?return1@@YAIXZ
_TEXT	SEGMENT
?return1@@YAIXZ PROC					; return1, COMDAT

; 17   : 	__forceinline unsigned int return1() { __asm mov eax, 1 };

  00000	b8 01 00 00 00	 mov	 eax, 1
  00005	c3		 ret	 0
?return1@@YAIXZ ENDP					; return1
_TEXT	ENDS
PUBLIC	??_GioMeshData@@QAEPAXI@Z			; ioMeshData::`scalar deleting destructor'
EXTRN	??3@YAXPAX@Z:PROC				; operator delete
EXTRN	__imp_??1ioMeshData@@QAE@XZ:PROC
; Function compile flags: /Ogsp
;	COMDAT ??_GioMeshData@@QAEPAXI@Z
_TEXT	SEGMENT
___flags$ = 8						; size = 4
??_GioMeshData@@QAEPAXI@Z PROC				; ioMeshData::`scalar deleting destructor', COMDAT
; _this$ = ecx
  00000	55		 push	 ebp
  00001	8b ec		 mov	 ebp, esp
  00003	56		 push	 esi
  00004	8b f1		 mov	 esi, ecx
  00006	ff 15 00 00 00
	00		 call	 DWORD PTR __imp_??1ioMeshData@@QAE@XZ
  0000c	f6 45 08 01	 test	 BYTE PTR ___flags$[ebp], 1
  00010	74 07		 je	 SHORT $LN1@scalar
  00012	56		 push	 esi
  00013	e8 00 00 00 00	 call	 ??3@YAXPAX@Z		; operator delete
  00018	59		 pop	 ecx
$LN1@scalar:
  00019	8b c6		 mov	 eax, esi
  0001b	5e		 pop	 esi
  0001c	5d		 pop	 ebp
  0001d	c2 04 00	 ret	 4
??_GioMeshData@@QAEPAXI@Z ENDP				; ioMeshData::`scalar deleting destructor'
_TEXT	ENDS
PUBLIC	?return5@@YAIXZ					; return5
; Function compile flags: /Ogsp
;	COMDAT ?return5@@YAIXZ
_TEXT	SEGMENT
?return5@@YAIXZ PROC					; return5, COMDAT

; 18   : 	__forceinline unsigned int return5() { __asm mov eax, 5 };

  00000	b8 05 00 00 00	 mov	 eax, 5
  00005	c3		 ret	 0
?return5@@YAIXZ ENDP					; return5
_TEXT	ENDS
PUBLIC	?InitResource@io2DCircleGauge@@QAEXPBDHHHW4StartType@1@@Z ; io2DCircleGauge::InitResource
EXTRN	__imp_?SetBinding@ioMeshData@@QAEXIPAVioVertexBufferInstance@@@Z:PROC
EXTRN	__imp_?CreateExclusiveInstance@ioVertexBufferManager@@QAEPAVioVertexBufferInstance@@W4BufferType@@KHW4BufferUsage@@@Z:PROC
EXTRN	__imp_?GetSingleton@ioVertexBufferManager@@SAAAV1@XZ:PROC
EXTRN	__imp_?InsertStreamSource@ioMeshData@@QAEXHK@Z:PROC
EXTRN	__imp_??0ioMeshData@@QAE@XZ:PROC
EXTRN	??2@YAPAXI@Z:PROC				; operator new
EXTRN	__imp_??1ioHashString@@QAE@XZ:PROC
EXTRN	__imp_?CreateTexture@ioTextureManager@@QAEPAVioTexture@@ABVioHashString@@KHW4TextureQuality@@_N22@Z:PROC
EXTRN	__imp_??0ioHashString@@QAE@PBD@Z:PROC
EXTRN	__imp_?GetSingleton@ioTextureManager@@SAAAV1@XZ:PROC
EXTRN	___CxxFrameHandler3:PROC
EXTRN	@__security_check_cookie@4:PROC
EXTRN	__EH_epilog3:PROC
EXTRN	__EH_prolog3:PROC
;	COMDAT xdata$x
; File d:\lost saga for developer\youtube\tutorial\source\src\lsclient\io2dcirclegauge.cpp
xdata$x	SEGMENT
__unwindtable$?InitResource@io2DCircleGauge@@QAEXPBDHHHW4StartType@1@@Z DD 0ffffffffH
	DD	FLAT:__unwindfunclet$?InitResource@io2DCircleGauge@@QAEXPBDHHHW4StartType@1@@Z$0
	DD	0ffffffffH
	DD	FLAT:__unwindfunclet$?InitResource@io2DCircleGauge@@QAEXPBDHHHW4StartType@1@@Z$1
__ehfuncinfo$?InitResource@io2DCircleGauge@@QAEXPBDHHHW4StartType@1@@Z DD 019930522H
	DD	02H
	DD	FLAT:__unwindtable$?InitResource@io2DCircleGauge@@QAEXPBDHHHW4StartType@1@@Z
	DD	2 DUP(00H)
	DD	2 DUP(00H)
	DD	00H
	DD	01H
; Function compile flags: /Ogsp
xdata$x	ENDS
;	COMDAT ?InitResource@io2DCircleGauge@@QAEXPBDHHHW4StartType@1@@Z
_TEXT	SEGMENT
$T505418 = -28						; size = 16
__$EHRec$ = -12						; size = 12
$T505424 = 8						; size = 4
_szTexFileName$ = 8					; size = 4
_iDivideCount$ = 12					; size = 4
_iFrontSkip$ = 16					; size = 4
_iBackSkip$ = 20					; size = 4
_eType$ = 24						; size = 4
?InitResource@io2DCircleGauge@@QAEXPBDHHHW4StartType@1@@Z PROC ; io2DCircleGauge::InitResource, COMDAT
; _this$ = ecx

; 45   : {

  00000	6a 10		 push	 16			; 00000010H
  00002	b8 00 00 00 00	 mov	 eax, __ehhandler$?InitResource@io2DCircleGauge@@QAEXPBDHHHW4StartType@1@@Z
  00007	e8 00 00 00 00	 call	 __EH_prolog3
  0000c	8b f1		 mov	 esi, ecx

; 46   : 	assert( iDivideCount > 0 );
; 47   : 	assert( iDivideCount > iFrontSkip + iBackSkip );
; 48   : 
; 49   : 	DESTROY_TEXTURE( m_pGaugeTex );

  0000e	8b 3d 00 00 00
	00		 mov	 edi, DWORD PTR __imp_?GetSingleton@ioTextureManager@@SAAAV1@XZ
  00014	33 db		 xor	 ebx, ebx
  00016	39 5e 08	 cmp	 DWORD PTR [esi+8], ebx
  00019	74 0f		 je	 SHORT $LN2@InitResour
  0001b	ff d7		 call	 edi
  0001d	ff 76 08	 push	 DWORD PTR [esi+8]
  00020	8b 10		 mov	 edx, DWORD PTR [eax]
  00022	8b c8		 mov	 ecx, eax
  00024	ff 52 14	 call	 DWORD PTR [edx+20]
  00027	89 5e 08	 mov	 DWORD PTR [esi+8], ebx
$LN2@InitResour:

; 50   : 	m_pGaugeTex = g_TextureMgr.CreateTexture( szTexFileName, 0, 1, TQ_HIGH );

  0002a	ff 75 08	 push	 DWORD PTR _szTexFileName$[ebp]
  0002d	8d 4d e4	 lea	 ecx, DWORD PTR $T505418[ebp]
  00030	ff 15 00 00 00
	00		 call	 DWORD PTR __imp_??0ioHashString@@QAE@PBD@Z
  00036	53		 push	 ebx
  00037	6a 01		 push	 1
  00039	53		 push	 ebx
  0003a	6a 03		 push	 3
  0003c	6a 01		 push	 1
  0003e	8d 45 e4	 lea	 eax, DWORD PTR $T505418[ebp]
  00041	53		 push	 ebx
  00042	50		 push	 eax
  00043	89 5d fc	 mov	 DWORD PTR __$EHRec$[ebp+8], ebx
  00046	ff d7		 call	 edi
  00048	8b c8		 mov	 ecx, eax
  0004a	ff 15 00 00 00
	00		 call	 DWORD PTR __imp_?CreateTexture@ioTextureManager@@QAEPAVioTexture@@ABVioHashString@@KHW4TextureQuality@@_N22@Z
  00050	83 4d fc ff	 or	 DWORD PTR __$EHRec$[ebp+8], -1
  00054	8d 4d e4	 lea	 ecx, DWORD PTR $T505418[ebp]
  00057	89 46 08	 mov	 DWORD PTR [esi+8], eax
  0005a	ff 15 00 00 00
	00		 call	 DWORD PTR __imp_??1ioHashString@@QAE@XZ

; 51   : 
; 52   : 	m_iMaxCount  = iDivideCount;

  00060	8b 45 0c	 mov	 eax, DWORD PTR _iDivideCount$[ebp]

; 53   : 	m_iFrontSkip = iFrontSkip;
; 54   : 	m_iBackSkip  = iBackSkip;
; 55   : 	m_iCurRenderCount = 0;
; 56   : 	m_eStartType = eType;
; 57   : 
; 58   : 	SAFEDELETE( m_pGaugeData );

  00063	8b 7e 04	 mov	 edi, DWORD PTR [esi+4]
  00066	89 46 14	 mov	 DWORD PTR [esi+20], eax
  00069	8b 45 10	 mov	 eax, DWORD PTR _iFrontSkip$[ebp]
  0006c	89 46 18	 mov	 DWORD PTR [esi+24], eax
  0006f	8b 45 14	 mov	 eax, DWORD PTR _iBackSkip$[ebp]
  00072	89 46 1c	 mov	 DWORD PTR [esi+28], eax
  00075	8b 45 18	 mov	 eax, DWORD PTR _eType$[ebp]
  00078	89 5e 20	 mov	 DWORD PTR [esi+32], ebx
  0007b	89 46 24	 mov	 DWORD PTR [esi+36], eax
  0007e	3b fb		 cmp	 edi, ebx
  00080	74 12		 je	 SHORT $LN1@InitResour
  00082	8b cf		 mov	 ecx, edi
  00084	ff 15 00 00 00
	00		 call	 DWORD PTR __imp_??1ioMeshData@@QAE@XZ
  0008a	57		 push	 edi
  0008b	e8 00 00 00 00	 call	 ??3@YAXPAX@Z		; operator delete
  00090	59		 pop	 ecx
  00091	89 5e 04	 mov	 DWORD PTR [esi+4], ebx
$LN1@InitResour:

; 59   : 
; 60   : 	// Triangle Fan => VertexCount = FaceCount + 2
; 61   : 	int iNeedVtxCount = ( m_iMaxCount - m_iFrontSkip - m_iBackSkip ) + 2;

  00094	8b 7e 14	 mov	 edi, DWORD PTR [esi+20]
  00097	2b 7e 18	 sub	 edi, DWORD PTR [esi+24]

; 62   : 
; 63   : 	m_pGaugeData = new ioMeshData;

  0009a	6a 14		 push	 20			; 00000014H
  0009c	2b 7e 1c	 sub	 edi, DWORD PTR [esi+28]
  0009f	83 c7 02	 add	 edi, 2
  000a2	e8 00 00 00 00	 call	 ??2@YAPAXI@Z		; operator new
  000a7	59		 pop	 ecx
  000a8	89 45 08	 mov	 DWORD PTR $T505424[ebp], eax
  000ab	c7 45 fc 01 00
	00 00		 mov	 DWORD PTR __$EHRec$[ebp+8], 1
  000b2	3b c3		 cmp	 eax, ebx
  000b4	74 0a		 je	 SHORT $LN7@InitResour
  000b6	8b c8		 mov	 ecx, eax
  000b8	ff 15 00 00 00
	00		 call	 DWORD PTR __imp_??0ioMeshData@@QAE@XZ
  000be	eb 02		 jmp	 SHORT $LN8@InitResour
$LN7@InitResour:
  000c0	33 c0		 xor	 eax, eax
$LN8@InitResour:
  000c2	83 4d fc ff	 or	 DWORD PTR __$EHRec$[ebp+8], -1

; 64   : 	m_pGaugeData->InsertStreamSource( 0, IOFVF_POSITIONW | IOFVF_UV0 );

  000c6	bb 04 01 00 00	 mov	 ebx, 260		; 00000104H
  000cb	53		 push	 ebx
  000cc	6a 00		 push	 0
  000ce	8b c8		 mov	 ecx, eax
  000d0	89 46 04	 mov	 DWORD PTR [esi+4], eax
  000d3	ff 15 00 00 00
	00		 call	 DWORD PTR __imp_?InsertStreamSource@ioMeshData@@QAEXHK@Z

; 65   : 
; 66   : 	ioVertexBufferInstance *pVtxInstance = NULL;
; 67   : 	pVtxInstance = g_VtxBufMgr.CreateExclusiveInstance( BT_MANAGED,
; 68   : 														IOFVF_POSITIONW | IOFVF_UV0,
; 69   : 														iNeedVtxCount );

  000d9	6a 00		 push	 0
  000db	57		 push	 edi
  000dc	53		 push	 ebx
  000dd	6a 01		 push	 1
  000df	ff 15 00 00 00
	00		 call	 DWORD PTR __imp_?GetSingleton@ioVertexBufferManager@@SAAAV1@XZ
  000e5	8b c8		 mov	 ecx, eax
  000e7	ff 15 00 00 00
	00		 call	 DWORD PTR __imp_?CreateExclusiveInstance@ioVertexBufferManager@@QAEPAVioVertexBufferInstance@@W4BufferType@@KHW4BufferUsage@@@Z

; 70   : 
; 71   : 	m_pGaugeData->SetBinding( 0, pVtxInstance );

  000ed	8b 4e 04	 mov	 ecx, DWORD PTR [esi+4]
  000f0	50		 push	 eax
  000f1	6a 00		 push	 0
  000f3	ff 15 00 00 00
	00		 call	 DWORD PTR __imp_?SetBinding@ioMeshData@@QAEXIPAVioVertexBufferInstance@@@Z

; 72   : 	m_pGaugeData->m_iVertexCount = iNeedVtxCount;

  000f9	8b 76 04	 mov	 esi, DWORD PTR [esi+4]
  000fc	89 7e 0c	 mov	 DWORD PTR [esi+12], edi

; 73   : }

  000ff	e8 00 00 00 00	 call	 __EH_epilog3
  00104	c2 14 00	 ret	 20			; 00000014H
_TEXT	ENDS
;	COMDAT text$x
text$x	SEGMENT
__unwindfunclet$?InitResource@io2DCircleGauge@@QAEXPBDHHHW4StartType@1@@Z$0:
  00000	8d 4d e4	 lea	 ecx, DWORD PTR $T505418[ebp]
  00003	ff 25 00 00 00
	00		 jmp	 DWORD PTR __imp_??1ioHashString@@QAE@XZ
__unwindfunclet$?InitResource@io2DCircleGauge@@QAEXPBDHHHW4StartType@1@@Z$1:
  00009	ff 75 08	 push	 DWORD PTR $T505424[ebp]
  0000c	e8 00 00 00 00	 call	 ??3@YAXPAX@Z		; operator delete
  00011	59		 pop	 ecx
  00012	c3		 ret	 0
__ehhandler$?InitResource@io2DCircleGauge@@QAEXPBDHHHW4StartType@1@@Z:
  00013	8b 54 24 08	 mov	 edx, DWORD PTR [esp+8]
  00017	8d 42 0c	 lea	 eax, DWORD PTR [edx+12]
  0001a	8b 4a e0	 mov	 ecx, DWORD PTR [edx-32]
  0001d	33 c8		 xor	 ecx, eax
  0001f	e8 00 00 00 00	 call	 @__security_check_cookie@4
  00024	b8 00 00 00 00	 mov	 eax, OFFSET __ehfuncinfo$?InitResource@io2DCircleGauge@@QAEXPBDHHHW4StartType@1@@Z
  00029	e9 00 00 00 00	 jmp	 ___CxxFrameHandler3
text$x	ENDS
?InitResource@io2DCircleGauge@@QAEXPBDHHHW4StartType@1@@Z ENDP ; io2DCircleGauge::InitResource
PUBLIC	?return10@@YAIXZ				; return10
; Function compile flags: /Ogsp
; File d:\lost saga for developer\youtube\tutorial\source\src\lsclient\stdafx.h
;	COMDAT ?return10@@YAIXZ
_TEXT	SEGMENT
?return10@@YAIXZ PROC					; return10, COMDAT

; 21   : 	__forceinline unsigned int return10() { __asm mov eax, 10 };

  00000	b8 0a 00 00 00	 mov	 eax, 10			; 0000000aH
  00005	c3		 ret	 0
?return10@@YAIXZ ENDP					; return10
_TEXT	ENDS
PUBLIC	?return90@@YAIXZ				; return90
; Function compile flags: /Ogsp
;	COMDAT ?return90@@YAIXZ
_TEXT	SEGMENT
?return90@@YAIXZ PROC					; return90, COMDAT

; 24   : 	__forceinline unsigned int return90() { __asm mov eax, 90 };

  00000	b8 5a 00 00 00	 mov	 eax, 90			; 0000005aH
  00005	c3		 ret	 0
?return90@@YAIXZ ENDP					; return90
_TEXT	ENDS
PUBLIC	?return360@@YAIXZ				; return360
; Function compile flags: /Ogsp
;	COMDAT ?return360@@YAIXZ
_TEXT	SEGMENT
?return360@@YAIXZ PROC					; return360, COMDAT

; 27   : 	__forceinline unsigned int return360() { __asm mov eax, 360 };

  00000	b8 68 01 00 00	 mov	 eax, 360		; 00000168H
  00005	c3		 ret	 0
?return360@@YAIXZ ENDP					; return360
_TEXT	ENDS
PUBLIC	?IsNeedRender@io2DCircleGauge@@QBE_NXZ		; io2DCircleGauge::IsNeedRender
EXTRN	__imp_?IsLoaded@ioResource@@QBE_NXZ:PROC
; Function compile flags: /Ogsp
; File d:\lost saga for developer\youtube\tutorial\source\src\lsclient\io2dcirclegauge.cpp
;	COMDAT ?IsNeedRender@io2DCircleGauge@@QBE_NXZ
_TEXT	SEGMENT
?IsNeedRender@io2DCircleGauge@@QBE_NXZ PROC		; io2DCircleGauge::IsNeedRender, COMDAT
; _this$ = ecx

; 149  : 	if( !m_pGaugeData )	return false;

  00000	83 79 04 00	 cmp	 DWORD PTR [ecx+4], 0
  00004	74 1a		 je	 SHORT $LN1@IsNeedRend

; 150  : 	if( m_iCurRenderCount <= 0 ) return false;

  00006	83 79 20 00	 cmp	 DWORD PTR [ecx+32], 0
  0000a	7e 14		 jle	 SHORT $LN1@IsNeedRend

; 151  : 	if( !m_pGaugeTex || !m_pGaugeTex->IsLoaded() )

  0000c	8b 49 08	 mov	 ecx, DWORD PTR [ecx+8]
  0000f	85 c9		 test	 ecx, ecx
  00011	74 0d		 je	 SHORT $LN1@IsNeedRend
  00013	ff 15 00 00 00
	00		 call	 DWORD PTR __imp_?IsLoaded@ioResource@@QBE_NXZ
  00019	84 c0		 test	 al, al
  0001b	74 03		 je	 SHORT $LN1@IsNeedRend

; 153  : 
; 154  : 	return true;

  0001d	b0 01		 mov	 al, 1

; 155  : }

  0001f	c3		 ret	 0
$LN1@IsNeedRend:

; 152  : 		return false;

  00020	32 c0		 xor	 al, al

; 155  : }

  00022	c3		 ret	 0
?IsNeedRender@io2DCircleGauge@@QBE_NXZ ENDP		; io2DCircleGauge::IsNeedRender
_TEXT	ENDS
PUBLIC	?Render@io2DCircleGauge@@QAEXPAVioRenderSystem@@@Z ; io2DCircleGauge::Render
EXTRN	__imp_?RenderPrimitive@ioRenderSystem@@QAEXW4_D3DPRIMITIVETYPE@@II@Z:PROC
EXTRN	__imp_?SetFillMode@ioRenderSystem@@QAEXW4FillMode@@@Z:PROC
EXTRN	__imp_?DisableTextureUnitsFrom@ioRenderSystem@@QAEXH@Z:PROC
EXTRN	__imp_?SetTextureStageAlphaBlend@ioRenderSystem@@QAEXHW4_D3DTEXTUREOP@@KK@Z:PROC
EXTRN	__imp_?SetTextureStageColorBlend@ioRenderSystem@@QAEXHW4_D3DTEXTUREOP@@KK@Z:PROC
EXTRN	__imp_?SetTexture@ioRenderSystem@@QAEXHPAUIDirect3DTexture9@@@Z:PROC
EXTRN	__imp_?GetTexture@ioTexture@@QBEPAUIDirect3DTexture9@@XZ:PROC
EXTRN	__imp_?SetTextureTransformFlag@ioRenderSystem@@QAEXHK@Z:PROC
EXTRN	__imp_?SetTextureFiltering@ioRenderSystem@@QAEXHW4TextureFilterOption@@@Z:PROC
EXTRN	__imp_?SetTextureAddressMode@ioRenderSystem@@QAEXHW4TextureAddressMode@@@Z:PROC
EXTRN	__imp_?SetAlphaTest@ioRenderSystem@@QAEXW4_D3DCMPFUNC@@H@Z:PROC
EXTRN	__imp_?SetCullingMode@ioRenderSystem@@QAEXW4CullingMode@@@Z:PROC
EXTRN	__imp_?SetSceneBlend@ioRenderSystem@@QAEXW4_D3DBLENDOP@@W4_D3DBLEND@@1@Z:PROC
EXTRN	__imp_?SetDepthFunction@ioRenderSystem@@QAEXW4_D3DCMPFUNC@@_N1@Z:PROC
EXTRN	__imp_?DisableShader@ioRenderSystem@@QAEXXZ:PROC
EXTRN	__imp_?SetIndexBufferInstance@ioRenderSystem@@QAE_NPAVioIndexBufferInstance@@@Z:PROC
EXTRN	__imp_?SetVertexBufferBinder@ioRenderSystem@@QAEXPAVioVertexBufferBinder@@@Z:PROC
EXTRN	__imp_?SetVertexDeclaration@ioRenderSystem@@QAEXPAVioVertexDeclaration@@@Z:PROC
EXTRN	__imp_?SetModelMatrixIdentity@ioRenderSystem@@QAEXXZ:PROC
; Function compile flags: /Ogsp
;	COMDAT ?Render@io2DCircleGauge@@QAEXPAVioRenderSystem@@@Z
_TEXT	SEGMENT
_pSystem$ = 8						; size = 4
?Render@io2DCircleGauge@@QAEXPAVioRenderSystem@@@Z PROC	; io2DCircleGauge::Render, COMDAT
; _this$ = ecx

; 158  : {

  00000	55		 push	 ebp
  00001	8b ec		 mov	 ebp, esp
  00003	53		 push	 ebx
  00004	8b d9		 mov	 ebx, ecx

; 159  : 	if( !IsNeedRender() )

  00006	e8 00 00 00 00	 call	 ?IsNeedRender@io2DCircleGauge@@QBE_NXZ ; io2DCircleGauge::IsNeedRender
  0000b	84 c0		 test	 al, al
  0000d	0f 84 de 00 00
	00		 je	 $LN2@Render

; 160  : 		return;
; 161  : 
; 162  : 	pSystem->SetModelMatrixIdentity();

  00013	56		 push	 esi
  00014	8b 75 08	 mov	 esi, DWORD PTR _pSystem$[ebp]
  00017	57		 push	 edi
  00018	8b ce		 mov	 ecx, esi
  0001a	ff 15 00 00 00
	00		 call	 DWORD PTR __imp_?SetModelMatrixIdentity@ioRenderSystem@@QAEXXZ

; 163  : 	pSystem->SetVertexDeclaration( m_pGaugeData->m_pVertexDeclaration );

  00020	8b 43 04	 mov	 eax, DWORD PTR [ebx+4]
  00023	ff 30		 push	 DWORD PTR [eax]
  00025	8b ce		 mov	 ecx, esi
  00027	ff 15 00 00 00
	00		 call	 DWORD PTR __imp_?SetVertexDeclaration@ioRenderSystem@@QAEXPAVioVertexDeclaration@@@Z

; 164  : 	pSystem->SetVertexBufferBinder( m_pGaugeData->m_pVertexBufferBinder );

  0002d	8b 43 04	 mov	 eax, DWORD PTR [ebx+4]
  00030	ff 70 04	 push	 DWORD PTR [eax+4]
  00033	8b ce		 mov	 ecx, esi
  00035	ff 15 00 00 00
	00		 call	 DWORD PTR __imp_?SetVertexBufferBinder@ioRenderSystem@@QAEXPAVioVertexBufferBinder@@@Z

; 165  : 	pSystem->SetIndexBufferInstance( NULL );

  0003b	33 ff		 xor	 edi, edi
  0003d	57		 push	 edi
  0003e	8b ce		 mov	 ecx, esi
  00040	ff 15 00 00 00
	00		 call	 DWORD PTR __imp_?SetIndexBufferInstance@ioRenderSystem@@QAE_NPAVioIndexBufferInstance@@@Z

; 166  : 	pSystem->DisableShader();

  00046	8b ce		 mov	 ecx, esi
  00048	ff 15 00 00 00
	00		 call	 DWORD PTR __imp_?DisableShader@ioRenderSystem@@QAEXXZ

; 167  : 
; 168  : 	pSystem->SetDepthFunction( D3DCMP_LESSEQUAL, false, true );

  0004e	6a 01		 push	 1
  00050	57		 push	 edi
  00051	6a 04		 push	 4
  00053	8b ce		 mov	 ecx, esi
  00055	ff 15 00 00 00
	00		 call	 DWORD PTR __imp_?SetDepthFunction@ioRenderSystem@@QAEXW4_D3DCMPFUNC@@_N1@Z

; 169  : 	pSystem->SetSceneBlend( D3DBLENDOP_ADD, D3DBLEND_SRCALPHA, D3DBLEND_INVSRCALPHA );

  0005b	6a 06		 push	 6
  0005d	6a 05		 push	 5
  0005f	6a 01		 push	 1
  00061	8b ce		 mov	 ecx, esi
  00063	ff 15 00 00 00
	00		 call	 DWORD PTR __imp_?SetSceneBlend@ioRenderSystem@@QAEXW4_D3DBLENDOP@@W4_D3DBLEND@@1@Z

; 170  : 	pSystem->SetCullingMode( CM_CCW );

  00069	6a 03		 push	 3
  0006b	8b ce		 mov	 ecx, esi
  0006d	ff 15 00 00 00
	00		 call	 DWORD PTR __imp_?SetCullingMode@ioRenderSystem@@QAEXW4CullingMode@@@Z

; 171  : 	pSystem->SetAlphaTest( D3DCMP_GREATER, 0 );

  00073	57		 push	 edi
  00074	6a 05		 push	 5
  00076	8b ce		 mov	 ecx, esi
  00078	ff 15 00 00 00
	00		 call	 DWORD PTR __imp_?SetAlphaTest@ioRenderSystem@@QAEXW4_D3DCMPFUNC@@H@Z

; 172  : 
; 173  : 	pSystem->SetTextureAddressMode( 0, TAM_CLAMP );

  0007e	6a 03		 push	 3
  00080	57		 push	 edi
  00081	8b ce		 mov	 ecx, esi
  00083	ff 15 00 00 00
	00		 call	 DWORD PTR __imp_?SetTextureAddressMode@ioRenderSystem@@QAEXHW4TextureAddressMode@@@Z

; 174  : 	pSystem->SetTextureFiltering( 0, TFO_BILINEAR );

  00089	6a 01		 push	 1
  0008b	57		 push	 edi
  0008c	8b ce		 mov	 ecx, esi
  0008e	ff 15 00 00 00
	00		 call	 DWORD PTR __imp_?SetTextureFiltering@ioRenderSystem@@QAEXHW4TextureFilterOption@@@Z

; 175  : 	pSystem->SetTextureTransformFlag( 0, D3DTTFF_DISABLE );

  00094	57		 push	 edi
  00095	57		 push	 edi
  00096	8b ce		 mov	 ecx, esi
  00098	ff 15 00 00 00
	00		 call	 DWORD PTR __imp_?SetTextureTransformFlag@ioRenderSystem@@QAEXHK@Z

; 176  : 
; 177  : 	pSystem->SetTexture( 0, m_pGaugeTex->GetTexture() );

  0009e	8b 4b 08	 mov	 ecx, DWORD PTR [ebx+8]
  000a1	ff 15 00 00 00
	00		 call	 DWORD PTR __imp_?GetTexture@ioTexture@@QBEPAUIDirect3DTexture9@@XZ
  000a7	50		 push	 eax
  000a8	57		 push	 edi
  000a9	8b ce		 mov	 ecx, esi
  000ab	ff 15 00 00 00
	00		 call	 DWORD PTR __imp_?SetTexture@ioRenderSystem@@QAEXHPAUIDirect3DTexture9@@@Z

; 178  : 	pSystem->SetTextureStageColorBlend( 0, D3DTOP_SELECTARG1, D3DTA_TEXTURE, D3DTA_DIFFUSE );

  000b1	57		 push	 edi
  000b2	6a 02		 push	 2
  000b4	6a 02		 push	 2
  000b6	57		 push	 edi
  000b7	8b ce		 mov	 ecx, esi
  000b9	ff 15 00 00 00
	00		 call	 DWORD PTR __imp_?SetTextureStageColorBlend@ioRenderSystem@@QAEXHW4_D3DTEXTUREOP@@KK@Z

; 179  : 	pSystem->SetTextureStageAlphaBlend( 0, D3DTOP_SELECTARG1, D3DTA_TEXTURE, D3DTA_DIFFUSE );

  000bf	57		 push	 edi
  000c0	6a 02		 push	 2
  000c2	6a 02		 push	 2
  000c4	57		 push	 edi
  000c5	8b ce		 mov	 ecx, esi
  000c7	ff 15 00 00 00
	00		 call	 DWORD PTR __imp_?SetTextureStageAlphaBlend@ioRenderSystem@@QAEXHW4_D3DTEXTUREOP@@KK@Z

; 180  : 	pSystem->DisableTextureUnitsFrom( 1 );

  000cd	6a 01		 push	 1
  000cf	8b ce		 mov	 ecx, esi
  000d1	ff 15 00 00 00
	00		 call	 DWORD PTR __imp_?DisableTextureUnitsFrom@ioRenderSystem@@QAEXH@Z

; 181  : 
; 182  : 	pSystem->SetFillMode( FM_SOLID );

  000d7	6a 03		 push	 3
  000d9	8b ce		 mov	 ecx, esi
  000db	ff 15 00 00 00
	00		 call	 DWORD PTR __imp_?SetFillMode@ioRenderSystem@@QAEXW4FillMode@@@Z

; 183  : 	pSystem->RenderPrimitive( D3DPT_TRIANGLEFAN, 0, m_iCurRenderCount );

  000e1	ff 73 20	 push	 DWORD PTR [ebx+32]
  000e4	8b ce		 mov	 ecx, esi
  000e6	57		 push	 edi
  000e7	6a 06		 push	 6
  000e9	ff 15 00 00 00
	00		 call	 DWORD PTR __imp_?RenderPrimitive@ioRenderSystem@@QAEXW4_D3DPRIMITIVETYPE@@II@Z
  000ef	5f		 pop	 edi
  000f0	5e		 pop	 esi
$LN2@Render:
  000f1	5b		 pop	 ebx

; 184  : /*
; 185  : 	pSystem->SetTextureFactor( 0xff000000 );
; 186  : 	pSystem->SetTextureStageColorBlend( 0, D3DTOP_SELECTARG1, D3DTA_TFACTOR, D3DTA_DIFFUSE );
; 187  : 	pSystem->SetTextureStageAlphaBlend( 0, D3DTOP_SELECTARG1, D3DTA_TFACTOR, D3DTA_DIFFUSE );
; 188  : 
; 189  : 	pSystem->SetFillMode( FM_WIREFRAME );
; 190  : 	pSystem->RenderPrimitive( D3DPT_TRIANGLEFAN, 0, m_iCurRenderCount );
; 191  : 
; 192  : 	pSystem->SetFillMode( FM_SOLID );
; 193  : */
; 194  : }

  000f2	5d		 pop	 ebp
  000f3	c2 04 00	 ret	 4
?Render@io2DCircleGauge@@QAEXPAVioRenderSystem@@@Z ENDP	; io2DCircleGauge::Render
_TEXT	ENDS
PUBLIC	__real@3f91df46a2526c7a
PUBLIC	??$DEGtoRAD@M@@YAMM@Z				; DEGtoRAD<float>
EXTRN	__fltused:DWORD
;	COMDAT __real@3f91df46a2526c7a
; File d:\lost saga for developer\youtube\tutorial\source\src\lsclient\veryoftenusedefine.h
CONST	SEGMENT
__real@3f91df46a2526c7a DQ 03f91df46a2526c7ar	; 0.0174533
; Function compile flags: /Ogsp
CONST	ENDS
;	COMDAT ??$DEGtoRAD@M@@YAMM@Z
_TEXT	SEGMENT
tv129 = 8						; size = 4
_val$ = 8						; size = 4
??$DEGtoRAD@M@@YAMM@Z PROC				; DEGtoRAD<float>, COMDAT

; 20   : type  DEGtoRAD (type val) {return (type) (val * 0.0174532925199);}

  00000	55		 push	 ebp
  00001	8b ec		 mov	 ebp, esp
  00003	d9 45 08	 fld	 DWORD PTR _val$[ebp]
  00006	dc 0d 00 00 00
	00		 fmul	 QWORD PTR __real@3f91df46a2526c7a
  0000c	d9 5d 08	 fstp	 DWORD PTR tv129[ebp]
  0000f	d9 45 08	 fld	 DWORD PTR tv129[ebp]
  00012	5d		 pop	 ebp
  00013	c3		 ret	 0
??$DEGtoRAD@M@@YAMM@Z ENDP				; DEGtoRAD<float>
_TEXT	ENDS
PUBLIC	_cosf
EXTRN	__CIcos:PROC
; Function compile flags: /Ogsp
; File c:\program files (x86)\microsoft visual studio 10.0\vc\include\math.h
;	COMDAT _cosf
_TEXT	SEGMENT
tv69 = 8						; size = 4
__X$ = 8						; size = 4
_cosf	PROC						; COMDAT

; 410  :         {return ((float)cos((double)_X)); }

  00000	55		 push	 ebp
  00001	8b ec		 mov	 ebp, esp
  00003	d9 45 08	 fld	 DWORD PTR __X$[ebp]
  00006	e8 00 00 00 00	 call	 __CIcos
  0000b	d9 5d 08	 fstp	 DWORD PTR tv69[ebp]
  0000e	d9 45 08	 fld	 DWORD PTR tv69[ebp]
  00011	5d		 pop	 ebp
  00012	c3		 ret	 0
_cosf	ENDP
_TEXT	ENDS
PUBLIC	_sinf
EXTRN	__CIsin:PROC
; Function compile flags: /Ogsp
;	COMDAT _sinf
_TEXT	SEGMENT
tv69 = 8						; size = 4
__X$ = 8						; size = 4
_sinf	PROC						; COMDAT

; 430  :         {return ((float)sin((double)_X)); }

  00000	55		 push	 ebp
  00001	8b ec		 mov	 ebp, esp
  00003	d9 45 08	 fld	 DWORD PTR __X$[ebp]
  00006	e8 00 00 00 00	 call	 __CIsin
  0000b	d9 5d 08	 fstp	 DWORD PTR tv69[ebp]
  0000e	d9 45 08	 fld	 DWORD PTR tv69[ebp]
  00011	5d		 pop	 ebp
  00012	c3		 ret	 0
_sinf	ENDP
_TEXT	ENDS
PUBLIC	??1io2DCircleGauge@@UAE@XZ			; io2DCircleGauge::~io2DCircleGauge
EXTRN	__imp_?DeleteAllBindingBuffers@ioMeshData@@QAEXXZ:PROC
; Function compile flags: /Ogsp
; File d:\lost saga for developer\youtube\tutorial\source\src\lsclient\io2dcirclegauge.cpp
;	COMDAT ??1io2DCircleGauge@@UAE@XZ
_TEXT	SEGMENT
??1io2DCircleGauge@@UAE@XZ PROC				; io2DCircleGauge::~io2DCircleGauge, COMDAT
; _this$ = ecx

; 28   : {

  00000	56		 push	 esi
  00001	8b f1		 mov	 esi, ecx

; 29   : 	if( m_pGaugeData )

  00003	8b 4e 04	 mov	 ecx, DWORD PTR [esi+4]
  00006	c7 06 00 00 00
	00		 mov	 DWORD PTR [esi], OFFSET ??_7io2DCircleGauge@@6B@
  0000c	85 c9		 test	 ecx, ecx
  0000e	74 22		 je	 SHORT $LN2@io2DCircle

; 30   : 	{
; 31   : 		m_pGaugeData->DeleteAllBindingBuffers();

  00010	57		 push	 edi
  00011	ff 15 00 00 00
	00		 call	 DWORD PTR __imp_?DeleteAllBindingBuffers@ioMeshData@@QAEXXZ

; 32   : 
; 33   : 		delete m_pGaugeData;

  00017	8b 7e 04	 mov	 edi, DWORD PTR [esi+4]
  0001a	85 ff		 test	 edi, edi
  0001c	74 0f		 je	 SHORT $LN7@io2DCircle
  0001e	8b cf		 mov	 ecx, edi
  00020	ff 15 00 00 00
	00		 call	 DWORD PTR __imp_??1ioMeshData@@QAE@XZ
  00026	57		 push	 edi
  00027	e8 00 00 00 00	 call	 ??3@YAXPAX@Z		; operator delete
  0002c	59		 pop	 ecx
$LN7@io2DCircle:

; 34   : 		m_pGaugeData = NULL;

  0002d	83 66 04 00	 and	 DWORD PTR [esi+4], 0
  00031	5f		 pop	 edi
$LN2@io2DCircle:

; 35   : 	}
; 36   : 
; 37   : 	DESTROY_TEXTURE( m_pGaugeTex );

  00032	83 7e 08 00	 cmp	 DWORD PTR [esi+8], 0
  00036	74 14		 je	 SHORT $LN1@io2DCircle
  00038	ff 15 00 00 00
	00		 call	 DWORD PTR __imp_?GetSingleton@ioTextureManager@@SAAAV1@XZ
  0003e	ff 76 08	 push	 DWORD PTR [esi+8]
  00041	8b 10		 mov	 edx, DWORD PTR [eax]
  00043	8b c8		 mov	 ecx, eax
  00045	ff 52 14	 call	 DWORD PTR [edx+20]
  00048	83 66 08 00	 and	 DWORD PTR [esi+8], 0
$LN1@io2DCircle:
  0004c	5e		 pop	 esi

; 38   : }

  0004d	c3		 ret	 0
??1io2DCircleGauge@@UAE@XZ ENDP				; io2DCircleGauge::~io2DCircleGauge
_TEXT	ENDS
PUBLIC	__real@43870000
PUBLIC	__real@3c23d70a
PUBLIC	__real@4f800000
PUBLIC	?UpdateGauge@io2DCircleGauge@@QAEXHHM@Z		; io2DCircleGauge::UpdateGauge
EXTRN	__imp_?UnLock@ioVertexBufferInstance@@QAE_NXZ:PROC
EXTRN	__imp_?GetBuffer@ioVertexBufferInstance@@QAEPAXXZ:PROC
EXTRN	__imp_?GetHeight@ioTexture@@QBEHXZ:PROC
EXTRN	__imp_?GetWidth@ioTexture@@QBEHXZ:PROC
EXTRN	__imp_?Lock@ioVertexBufferInstance@@QAE_NKHH@Z:PROC
EXTRN	__imp_?GetVtxInstance@ioMeshData@@QAEPAVioVertexBufferInstance@@I@Z:PROC
;	COMDAT __real@43870000
; File d:\lost saga for developer\youtube\tutorial\source\src\lsclient\stdafx.h
CONST	SEGMENT
__real@43870000 DD 043870000r			; 270
CONST	ENDS
;	COMDAT __real@3c23d70a
CONST	SEGMENT
__real@3c23d70a DD 03c23d70ar			; 0.01
CONST	ENDS
;	COMDAT __real@4f800000
CONST	SEGMENT
__real@4f800000 DD 04f800000r			; 4.29497e+009
; Function compile flags: /Ogsp
; File d:\lost saga for developer\youtube\tutorial\source\src\lsclient\io2dcirclegauge.cpp
CONST	ENDS
;	COMDAT ?UpdateGauge@io2DCircleGauge@@QAEXHHM@Z
_TEXT	SEGMENT
tv885 = -40						; size = 4
tv875 = -40						; size = 4
tv867 = -40						; size = 4
tv772 = -40						; size = 4
tv739 = -40						; size = 4
tv731 = -40						; size = 4
tv727 = -40						; size = 4
tv723 = -40						; size = 4
tv719 = -40						; size = 4
tv715 = -40						; size = 4
tv711 = -40						; size = 4
tv702 = -40						; size = 4
tv698 = -40						; size = 4
tv694 = -40						; size = 4
tv690 = -40						; size = 4
tv686 = -40						; size = 4
tv682 = -40						; size = 4
_pInstance$ = -36					; size = 4
tv769 = -32						; size = 4
tv767 = -32						; size = 4
tv636 = -32						; size = 4
tv412 = -32						; size = 4
_iTexWidth$ = -32					; size = 4
_fRadOffset$ = -28					; size = 4
_iTexHeight$ = -28					; size = 4
tv752 = -24						; size = 4
tv746 = -24						; size = 4
_fYRate$505302 = -24					; size = 4
_fXRate$505301 = -20					; size = 4
_fHalfHeight$ = -16					; size = 4
_fCenterY$ = -12					; size = 4
_fCenterX$ = -8						; size = 4
tv75 = -4						; size = 4
_fHalfWidth$ = -4					; size = 4
_iXPos$ = 8						; size = 4
_iYPos$ = 12						; size = 4
tv858 = 16						; size = 4
tv845 = 16						; size = 4
tv841 = 16						; size = 4
tv837 = 16						; size = 4
tv829 = 16						; size = 4
tv825 = 16						; size = 4
tv821 = 16						; size = 4
tv808 = 16						; size = 4
tv803 = 16						; size = 4
tv799 = 16						; size = 4
tv795 = 16						; size = 4
tv790 = 16						; size = 4
tv786 = 16						; size = 4
tv782 = 16						; size = 4
tv776 = 16						; size = 4
tv762 = 16						; size = 4
_fCurRad$ = 16						; size = 4
_fStart$ = 16						; size = 4
_fRate$ = 16						; size = 4
?UpdateGauge@io2DCircleGauge@@QAEXHHM@Z PROC		; io2DCircleGauge::UpdateGauge, COMDAT
; _this$ = ecx

; 76   : {

  00000	55		 push	 ebp
  00001	8b ec		 mov	 ebp, esp
  00003	83 ec 28	 sub	 esp, 40			; 00000028H
  00006	56		 push	 esi
  00007	57		 push	 edi
  00008	8b f1		 mov	 esi, ecx

; 77   : 	fRate = max( 0.0f, min( fRate, FLOAT1 ) );

  0000a	b8 01 00 00 00	 mov	 eax, 1
  0000f	d9 45 10	 fld	 DWORD PTR _fRate$[ebp]
  00012	89 45 d8	 mov	 DWORD PTR tv885[ebp], eax
  00015	db 45 d8	 fild	 DWORD PTR tv885[ebp]
  00018	85 c0		 test	 eax, eax
  0001a	79 06		 jns	 SHORT $LN80@UpdateGaug
  0001c	d8 05 00 00 00
	00		 fadd	 DWORD PTR __real@4f800000
$LN80@UpdateGaug:
  00022	df f1		 fcomip	 ST(1)
  00024	dd d8		 fstp	 ST(0)
  00026	76 0c		 jbe	 SHORT $LN14@UpdateGaug
  00028	f3 0f 10 45 10	 movss	 xmm0, DWORD PTR _fRate$[ebp]
  0002d	f3 0f 11 45 fc	 movss	 DWORD PTR tv75[ebp], xmm0
  00032	eb 18		 jmp	 SHORT $LN15@UpdateGaug
$LN14@UpdateGaug:
  00034	b8 01 00 00 00	 mov	 eax, 1
  00039	89 45 d8	 mov	 DWORD PTR tv875[ebp], eax
  0003c	db 45 d8	 fild	 DWORD PTR tv875[ebp]
  0003f	85 c0		 test	 eax, eax
  00041	79 06		 jns	 SHORT $LN81@UpdateGaug
  00043	d8 05 00 00 00
	00		 fadd	 DWORD PTR __real@4f800000
$LN81@UpdateGaug:
  00049	d9 5d fc	 fstp	 DWORD PTR tv75[ebp]
$LN15@UpdateGaug:
  0004c	f3 0f 10 45 fc	 movss	 xmm0, DWORD PTR tv75[ebp]
  00051	0f 57 c9	 xorps	 xmm1, xmm1
  00054	0f 5a c0	 cvtps2pd xmm0, xmm0
  00057	66 0f 2f c8	 comisd	 xmm1, xmm0
  0005b	76 0a		 jbe	 SHORT $LN18@UpdateGaug
  0005d	0f 57 c0	 xorps	 xmm0, xmm0
  00060	f3 0f 11 45 10	 movss	 DWORD PTR _fRate$[ebp], xmm0
  00065	eb 36		 jmp	 SHORT $LN17@UpdateGaug
$LN18@UpdateGaug:
  00067	b8 01 00 00 00	 mov	 eax, 1
  0006c	d9 45 10	 fld	 DWORD PTR _fRate$[ebp]
  0006f	89 45 d8	 mov	 DWORD PTR tv867[ebp], eax
  00072	db 45 d8	 fild	 DWORD PTR tv867[ebp]
  00075	85 c0		 test	 eax, eax
  00077	79 06		 jns	 SHORT $LN82@UpdateGaug
  00079	d8 05 00 00 00
	00		 fadd	 DWORD PTR __real@4f800000
$LN82@UpdateGaug:
  0007f	df f1		 fcomip	 ST(1)
  00081	dd d8		 fstp	 ST(0)
  00083	77 18		 ja	 SHORT $LN17@UpdateGaug
  00085	b8 01 00 00 00	 mov	 eax, 1
  0008a	89 45 10	 mov	 DWORD PTR tv858[ebp], eax
  0008d	db 45 10	 fild	 DWORD PTR tv858[ebp]
  00090	85 c0		 test	 eax, eax
  00092	79 06		 jns	 SHORT $LN83@UpdateGaug
  00094	d8 05 00 00 00
	00		 fadd	 DWORD PTR __real@4f800000
$LN83@UpdateGaug:
  0009a	d9 5d 10	 fstp	 DWORD PTR _fRate$[ebp]
$LN17@UpdateGaug:

; 78   : 
; 79   : 	int iMaxRenderFace = m_iMaxCount - m_iFrontSkip - m_iBackSkip;
; 80   : 	m_iCurRenderCount = (int)( (float)iMaxRenderFace * fRate );

  0009d	8b 46 14	 mov	 eax, DWORD PTR [esi+20]
  000a0	2b 46 1c	 sub	 eax, DWORD PTR [esi+28]
  000a3	f3 0f 10 4d 10	 movss	 xmm1, DWORD PTR _fRate$[ebp]
  000a8	2b 46 18	 sub	 eax, DWORD PTR [esi+24]

; 81   : 
; 82   : 	// RHW출력이기때문에 위치가 바뀌면 버퍼를 갱신해야한다.
; 83   : 	if( m_iRenderX == iXPos && m_iRenderY == iYPos )

  000ab	8b 7d 08	 mov	 edi, DWORD PTR _iXPos$[ebp]
  000ae	0f 57 c0	 xorps	 xmm0, xmm0
  000b1	f3 0f 2a c0	 cvtsi2ss xmm0, eax
  000b5	0f 5a c0	 cvtps2pd xmm0, xmm0
  000b8	0f 5a c9	 cvtps2pd xmm1, xmm1
  000bb	f2 0f 59 c1	 mulsd	 xmm0, xmm1
  000bf	f2 0f 2c c0	 cvttsd2si eax, xmm0
  000c3	89 46 20	 mov	 DWORD PTR [esi+32], eax
  000c6	39 7e 0c	 cmp	 DWORD PTR [esi+12], edi
  000c9	75 0c		 jne	 SHORT $LN78@UpdateGaug
  000cb	8b 45 0c	 mov	 eax, DWORD PTR _iYPos$[ebp]
  000ce	39 46 10	 cmp	 DWORD PTR [esi+16], eax
  000d1	0f 84 dc 03 00
	00		 je	 $LN9@UpdateGaug
$LN78@UpdateGaug:

; 84   : 		return;
; 85   : 
; 86   : 	if( !m_pGaugeTex || !m_pGaugeTex->IsLoaded() )

  000d7	8b 4e 08	 mov	 ecx, DWORD PTR [esi+8]
  000da	53		 push	 ebx
  000db	33 db		 xor	 ebx, ebx
  000dd	3b cb		 cmp	 ecx, ebx
  000df	0f 84 cd 03 00
	00		 je	 $LN79@UpdateGaug
  000e5	ff 15 00 00 00
	00		 call	 DWORD PTR __imp_?IsLoaded@ioResource@@QBE_NXZ
  000eb	84 c0		 test	 al, al
  000ed	0f 84 bf 03 00
	00		 je	 $LN79@UpdateGaug

; 87   : 		return;
; 88   : 
; 89   : 	ioVertexBufferInstance *pInstance = m_pGaugeData->GetVtxInstance(0);

  000f3	8b 4e 04	 mov	 ecx, DWORD PTR [esi+4]
  000f6	53		 push	 ebx
  000f7	ff 15 00 00 00
	00		 call	 DWORD PTR __imp_?GetVtxInstance@ioMeshData@@QAEPAVioVertexBufferInstance@@I@Z
  000fd	8b c8		 mov	 ecx, eax
  000ff	89 4d dc	 mov	 DWORD PTR _pInstance$[ebp], ecx

; 90   : 	if( !pInstance )	return;

  00102	3b cb		 cmp	 ecx, ebx
  00104	0f 84 a8 03 00
	00		 je	 $LN79@UpdateGaug

; 91   : 	if( !pInstance->Lock() )	return;

  0010a	53		 push	 ebx
  0010b	53		 push	 ebx
  0010c	53		 push	 ebx
  0010d	ff 15 00 00 00
	00		 call	 DWORD PTR __imp_?Lock@ioVertexBufferInstance@@QAE_NKHH@Z
  00113	84 c0		 test	 al, al
  00115	0f 84 97 03 00
	00		 je	 $LN79@UpdateGaug

; 92   : 
; 93   : 	int iTexWidth  = m_pGaugeTex->GetWidth();

  0011b	8b 4e 08	 mov	 ecx, DWORD PTR [esi+8]
  0011e	ff 15 00 00 00
	00		 call	 DWORD PTR __imp_?GetWidth@ioTexture@@QBEHXZ

; 94   : 	int iTexHeight = m_pGaugeTex->GetHeight();

  00124	8b 4e 08	 mov	 ecx, DWORD PTR [esi+8]
  00127	89 45 e0	 mov	 DWORD PTR _iTexWidth$[ebp], eax
  0012a	ff 15 00 00 00
	00		 call	 DWORD PTR __imp_?GetHeight@ioTexture@@QBEHXZ
  00130	89 45 e4	 mov	 DWORD PTR _iTexHeight$[ebp], eax

; 95   : 
; 96   : 	float fHalfWidth  = (float)iTexWidth * FLOAT05;

  00133	b8 05 00 00 00	 mov	 eax, 5
  00138	8b c8		 mov	 ecx, eax
  0013a	b8 0a 00 00 00	 mov	 eax, 10			; 0000000aH
  0013f	89 4d 10	 mov	 DWORD PTR tv845[ebp], ecx
  00142	db 45 10	 fild	 DWORD PTR tv845[ebp]
  00145	85 c9		 test	 ecx, ecx
  00147	79 06		 jns	 SHORT $LN84@UpdateGaug
  00149	d8 05 00 00 00
	00		 fadd	 DWORD PTR __real@4f800000
$LN84@UpdateGaug:
  0014f	89 45 10	 mov	 DWORD PTR tv841[ebp], eax
  00152	db 45 10	 fild	 DWORD PTR tv841[ebp]
  00155	85 c0		 test	 eax, eax
  00157	79 06		 jns	 SHORT $LN85@UpdateGaug
  00159	d8 05 00 00 00
	00		 fadd	 DWORD PTR __real@4f800000
$LN85@UpdateGaug:
  0015f	de f9		 fdivp	 ST(1), ST(0)
  00161	d9 5d 10	 fstp	 DWORD PTR tv837[ebp]
  00164	d9 45 10	 fld	 DWORD PTR tv837[ebp]
  00167	da 4d e0	 fimul	 DWORD PTR _iTexWidth$[ebp]
  0016a	d9 5d fc	 fstp	 DWORD PTR _fHalfWidth$[ebp]

; 97   : 	float fHalfHeight = (float)iTexHeight * FLOAT05;

  0016d	b8 05 00 00 00	 mov	 eax, 5
  00172	8b c8		 mov	 ecx, eax
  00174	b8 0a 00 00 00	 mov	 eax, 10			; 0000000aH
  00179	89 4d 10	 mov	 DWORD PTR tv829[ebp], ecx
  0017c	db 45 10	 fild	 DWORD PTR tv829[ebp]
  0017f	85 c9		 test	 ecx, ecx
  00181	79 06		 jns	 SHORT $LN86@UpdateGaug
  00183	d8 05 00 00 00
	00		 fadd	 DWORD PTR __real@4f800000
$LN86@UpdateGaug:
  00189	89 45 10	 mov	 DWORD PTR tv825[ebp], eax
  0018c	db 45 10	 fild	 DWORD PTR tv825[ebp]
  0018f	85 c0		 test	 eax, eax
  00191	79 06		 jns	 SHORT $LN87@UpdateGaug
  00193	d8 05 00 00 00
	00		 fadd	 DWORD PTR __real@4f800000
$LN87@UpdateGaug:
  00199	de f9		 fdivp	 ST(1), ST(0)

; 98   : 
; 99   : 	float fCenterX = (float)iXPos + fHalfWidth;

  0019b	f3 0f 10 4d fc	 movss	 xmm1, DWORD PTR _fHalfWidth$[ebp]

; 100  : 	float fCenterY = (float)iYPos + fHalfHeight;
; 101  : 
; 102  : 	ioVtxRHWTex *pBuf = (ioVtxRHWTex*)pInstance->GetBuffer();

  001a0	8b 4d dc	 mov	 ecx, DWORD PTR _pInstance$[ebp]
  001a3	0f 57 c0	 xorps	 xmm0, xmm0
  001a6	f3 0f 2a c7	 cvtsi2ss xmm0, edi
  001aa	0f 5a c0	 cvtps2pd xmm0, xmm0
  001ad	0f 5a c9	 cvtps2pd xmm1, xmm1
  001b0	f2 0f 58 c1	 addsd	 xmm0, xmm1
  001b4	66 0f 5a c0	 cvtpd2ps xmm0, xmm0
  001b8	f3 0f 11 45 f8	 movss	 DWORD PTR _fCenterX$[ebp], xmm0
  001bd	66 0f 6e 45 0c	 movd	 xmm0, DWORD PTR _iYPos$[ebp]
  001c2	0f 5b c0	 cvtdq2ps xmm0, xmm0
  001c5	f3 0f 5a c0	 cvtss2sd xmm0, xmm0
  001c9	d9 5d 10	 fstp	 DWORD PTR tv821[ebp]
  001cc	d9 45 10	 fld	 DWORD PTR tv821[ebp]
  001cf	da 4d e4	 fimul	 DWORD PTR _iTexHeight$[ebp]
  001d2	d9 5d f0	 fstp	 DWORD PTR _fHalfHeight$[ebp]
  001d5	f3 0f 10 4d f0	 movss	 xmm1, DWORD PTR _fHalfHeight$[ebp]
  001da	0f 5a c9	 cvtps2pd xmm1, xmm1
  001dd	f2 0f 58 c1	 addsd	 xmm0, xmm1
  001e1	f2 0f 5a c0	 cvtsd2ss xmm0, xmm0
  001e5	f3 0f 11 45 f4	 movss	 DWORD PTR _fCenterY$[ebp], xmm0
  001ea	ff 15 00 00 00
	00		 call	 DWORD PTR __imp_?GetBuffer@ioVertexBufferInstance@@QAEPAXXZ

; 103  : 
; 104  : 	// Center
; 105  : 	pBuf[0].vPos.x = fCenterX;

  001f0	f3 0f 10 45 f8	 movss	 xmm0, DWORD PTR _fCenterX$[ebp]
  001f5	8b c8		 mov	 ecx, eax
  001f7	f3 0f 11 01	 movss	 DWORD PTR [ecx], xmm0

; 106  : 	pBuf[0].vPos.y = fCenterY;

  001fb	f3 0f 10 45 f4	 movss	 xmm0, DWORD PTR _fCenterY$[ebp]
  00200	f3 0f 11 41 04	 movss	 DWORD PTR [ecx+4], xmm0

; 107  : 	pBuf[0].vPos.z = 0.01f;

  00205	f3 0f 10 05 00
	00 00 00	 movss	 xmm0, DWORD PTR __real@3c23d70a
  0020d	f3 0f 11 41 08	 movss	 DWORD PTR [ecx+8], xmm0

; 108  : 	pBuf[0].fRHW = FLOAT1;

  00212	b8 01 00 00 00	 mov	 eax, 1
  00217	89 45 10	 mov	 DWORD PTR tv808[ebp], eax
  0021a	db 45 10	 fild	 DWORD PTR tv808[ebp]
  0021d	85 c0		 test	 eax, eax
  0021f	79 06		 jns	 SHORT $LN88@UpdateGaug
  00221	d8 05 00 00 00
	00		 fadd	 DWORD PTR __real@4f800000
$LN88@UpdateGaug:
  00227	d9 59 0c	 fstp	 DWORD PTR [ecx+12]

; 109  : 	pBuf[0].u = FLOAT05;

  0022a	b8 05 00 00 00	 mov	 eax, 5
  0022f	8b d0		 mov	 edx, eax
  00231	b8 0a 00 00 00	 mov	 eax, 10			; 0000000aH
  00236	89 55 10	 mov	 DWORD PTR tv803[ebp], edx
  00239	db 45 10	 fild	 DWORD PTR tv803[ebp]
  0023c	85 d2		 test	 edx, edx
  0023e	79 06		 jns	 SHORT $LN89@UpdateGaug
  00240	d8 05 00 00 00
	00		 fadd	 DWORD PTR __real@4f800000
$LN89@UpdateGaug:
  00246	89 45 10	 mov	 DWORD PTR tv799[ebp], eax
  00249	db 45 10	 fild	 DWORD PTR tv799[ebp]
  0024c	85 c0		 test	 eax, eax
  0024e	79 06		 jns	 SHORT $LN90@UpdateGaug
  00250	d8 05 00 00 00
	00		 fadd	 DWORD PTR __real@4f800000
$LN90@UpdateGaug:
  00256	de f9		 fdivp	 ST(1), ST(0)
  00258	d9 5d 10	 fstp	 DWORD PTR tv795[ebp]
  0025b	d9 45 10	 fld	 DWORD PTR tv795[ebp]
  0025e	d9 59 10	 fstp	 DWORD PTR [ecx+16]

; 110  : 	pBuf[0].v = FLOAT05;

  00261	b8 05 00 00 00	 mov	 eax, 5
  00266	8b d0		 mov	 edx, eax
  00268	b8 0a 00 00 00	 mov	 eax, 10			; 0000000aH
  0026d	89 55 10	 mov	 DWORD PTR tv790[ebp], edx
  00270	db 45 10	 fild	 DWORD PTR tv790[ebp]
  00273	85 d2		 test	 edx, edx
  00275	79 06		 jns	 SHORT $LN91@UpdateGaug
  00277	d8 05 00 00 00
	00		 fadd	 DWORD PTR __real@4f800000
$LN91@UpdateGaug:
  0027d	89 45 10	 mov	 DWORD PTR tv786[ebp], eax
  00280	db 45 10	 fild	 DWORD PTR tv786[ebp]
  00283	85 c0		 test	 eax, eax
  00285	79 06		 jns	 SHORT $LN92@UpdateGaug
  00287	d8 05 00 00 00
	00		 fadd	 DWORD PTR __real@4f800000
$LN92@UpdateGaug:
  0028d	de f9		 fdivp	 ST(1), ST(0)

; 111  : 
; 112  : 	float fStart = 270.0f;

  0028f	f3 0f 10 05 00
	00 00 00	 movss	 xmm0, DWORD PTR __real@43870000
  00297	d9 5d 10	 fstp	 DWORD PTR tv782[ebp]
  0029a	d9 45 10	 fld	 DWORD PTR tv782[ebp]
  0029d	d9 59 14	 fstp	 DWORD PTR [ecx+20]
  002a0	f3 0f 11 45 10	 movss	 DWORD PTR _fStart$[ebp], xmm0

; 113  : 	if( m_eStartType == ST_6OCLOCK )

  002a5	8b 46 24	 mov	 eax, DWORD PTR [esi+36]
  002a8	3b c3		 cmp	 eax, ebx
  002aa	75 07		 jne	 SHORT $LN6@UpdateGaug

; 114  : 		fStart = 270.0f;

  002ac	f3 0f 11 45 10	 movss	 DWORD PTR _fStart$[ebp], xmm0
  002b1	eb 1d		 jmp	 SHORT $LN4@UpdateGaug
$LN6@UpdateGaug:

; 115  : 	else if( m_eStartType == ST_12OCLOCK )

  002b3	83 f8 01	 cmp	 eax, 1
  002b6	75 18		 jne	 SHORT $LN4@UpdateGaug

; 116  : 		fStart = FLOAT90;

  002b8	b8 5a 00 00 00	 mov	 eax, 90			; 0000005aH
  002bd	89 45 10	 mov	 DWORD PTR tv776[ebp], eax
  002c0	db 45 10	 fild	 DWORD PTR tv776[ebp]
  002c3	85 c0		 test	 eax, eax
  002c5	79 06		 jns	 SHORT $LN93@UpdateGaug
  002c7	d8 05 00 00 00
	00		 fadd	 DWORD PTR __real@4f800000
$LN93@UpdateGaug:
  002cd	d9 5d 10	 fstp	 DWORD PTR _fStart$[ebp]
$LN4@UpdateGaug:

; 117  : 
; 118  : 	// Divide Points
; 119  : 	float fRadOffset = DEGtoRAD( FLOAT360 / (float)( m_iMaxCount + 1 ) );

  002d0	b8 68 01 00 00	 mov	 eax, 360		; 00000168H
  002d5	8b 56 14	 mov	 edx, DWORD PTR [esi+20]
  002d8	89 45 d8	 mov	 DWORD PTR tv772[ebp], eax
  002db	db 45 d8	 fild	 DWORD PTR tv772[ebp]
  002de	85 c0		 test	 eax, eax
  002e0	79 06		 jns	 SHORT $LN94@UpdateGaug
  002e2	d8 05 00 00 00
	00		 fadd	 DWORD PTR __real@4f800000
$LN94@UpdateGaug:
  002e8	8d 42 01	 lea	 eax, DWORD PTR [edx+1]
  002eb	89 45 e0	 mov	 DWORD PTR tv769[ebp], eax
  002ee	da 75 e0	 fidiv	 DWORD PTR tv769[ebp]

; 120  : 	float fCurRad = DEGtoRAD( fStart ) - fRadOffset * (float)m_iFrontSkip;

  002f1	8b 46 18	 mov	 eax, DWORD PTR [esi+24]

; 121  : 
; 122  : 	int iCurIdx = 1;
; 123  : 	int iLastCount = m_iMaxCount - m_iBackSkip + 1;

  002f4	2b 56 1c	 sub	 edx, DWORD PTR [esi+28]
  002f7	42		 inc	 edx
  002f8	d9 5d e0	 fstp	 DWORD PTR tv767[ebp]
  002fb	d9 45 e0	 fld	 DWORD PTR tv767[ebp]
  002fe	dd 05 00 00 00
	00		 fld	 QWORD PTR __real@3f91df46a2526c7a
  00304	dc c9		 fmul	 ST(1), ST(0)
  00306	89 45 e0	 mov	 DWORD PTR tv636[ebp], eax
  00309	d9 c9		 fxch	 ST(1)
  0030b	d9 5d e4	 fstp	 DWORD PTR _fRadOffset$[ebp]
  0030e	d8 4d 10	 fmul	 DWORD PTR _fStart$[ebp]
  00311	d9 5d 10	 fstp	 DWORD PTR tv762[ebp]
  00314	d9 45 10	 fld	 DWORD PTR tv762[ebp]
  00317	db 45 e0	 fild	 DWORD PTR tv636[ebp]
  0031a	d8 4d e4	 fmul	 DWORD PTR _fRadOffset$[ebp]
  0031d	de e9		 fsubp	 ST(1), ST(0)
  0031f	d9 5d 10	 fstp	 DWORD PTR _fCurRad$[ebp]

; 124  : 
; 125  : 	for( int i=m_iFrontSkip ; i<iLastCount ; i++ )

  00322	3b c2		 cmp	 eax, edx
  00324	0f 8d 76 01 00
	00		 jge	 $LN1@UpdateGaug

; 117  : 
; 118  : 	// Divide Points
; 119  : 	float fRadOffset = DEGtoRAD( FLOAT360 / (float)( m_iMaxCount + 1 ) );

  0032a	2b d0		 sub	 edx, eax
  0032c	8d 79 20	 lea	 edi, DWORD PTR [ecx+32]
  0032f	89 55 e0	 mov	 DWORD PTR tv412[ebp], edx
$LL3@UpdateGaug:

; 126  : 	{
; 127  : 		float fXRate = cosf( fCurRad );

  00332	d9 45 10	 fld	 DWORD PTR _fCurRad$[ebp]
  00335	e8 00 00 00 00	 call	 __CIcos
  0033a	d9 5d e8	 fstp	 DWORD PTR tv752[ebp]
  0033d	d9 45 e8	 fld	 DWORD PTR tv752[ebp]
  00340	d9 5d ec	 fstp	 DWORD PTR _fXRate$505301[ebp]

; 128  : 		float fYRate = sinf( fCurRad );

  00343	d9 45 10	 fld	 DWORD PTR _fCurRad$[ebp]
  00346	e8 00 00 00 00	 call	 __CIsin
  0034b	d9 5d e8	 fstp	 DWORD PTR tv746[ebp]
  0034e	d9 45 e8	 fld	 DWORD PTR tv746[ebp]

; 129  : 
; 130  : 		pBuf[iCurIdx].vPos.x = fCenterX + fXRate * fHalfWidth;
; 131  : 		pBuf[iCurIdx].vPos.y = fCenterY - fYRate * fHalfHeight;
; 132  : 		pBuf[iCurIdx].vPos.z = 0.01f;

  00351	f3 0f 10 05 00
	00 00 00	 movss	 xmm0, DWORD PTR __real@3c23d70a
  00359	d9 5d e8	 fstp	 DWORD PTR _fYRate$505302[ebp]
  0035c	f3 0f 11 07	 movss	 DWORD PTR [edi], xmm0
  00360	d9 45 ec	 fld	 DWORD PTR _fXRate$505301[ebp]
  00363	d8 4d fc	 fmul	 DWORD PTR _fHalfWidth$[ebp]
  00366	d8 45 f8	 fadd	 DWORD PTR _fCenterX$[ebp]
  00369	d9 5f f8	 fstp	 DWORD PTR [edi-8]
  0036c	d9 45 f4	 fld	 DWORD PTR _fCenterY$[ebp]
  0036f	d9 45 e8	 fld	 DWORD PTR _fYRate$505302[ebp]
  00372	d8 4d f0	 fmul	 DWORD PTR _fHalfHeight$[ebp]
  00375	de e9		 fsubp	 ST(1), ST(0)
  00377	d9 5f fc	 fstp	 DWORD PTR [edi-4]

; 133  : 		pBuf[iCurIdx].fRHW = FLOAT1;

  0037a	b8 01 00 00 00	 mov	 eax, 1
  0037f	89 45 d8	 mov	 DWORD PTR tv739[ebp], eax
  00382	db 45 d8	 fild	 DWORD PTR tv739[ebp]
  00385	85 c0		 test	 eax, eax
  00387	79 06		 jns	 SHORT $LN95@UpdateGaug
  00389	d8 05 00 00 00
	00		 fadd	 DWORD PTR __real@4f800000
$LN95@UpdateGaug:
  0038f	d9 5f 04	 fstp	 DWORD PTR [edi+4]

; 134  : 		pBuf[iCurIdx].u = FLOAT05 + fXRate * FLOAT05;

  00392	b8 05 00 00 00	 mov	 eax, 5
  00397	8b c8		 mov	 ecx, eax
  00399	b8 0a 00 00 00	 mov	 eax, 10			; 0000000aH
  0039e	8b d0		 mov	 edx, eax
  003a0	b8 05 00 00 00	 mov	 eax, 5
  003a5	8b d8		 mov	 ebx, eax
  003a7	b8 0a 00 00 00	 mov	 eax, 10			; 0000000aH
  003ac	89 5d d8	 mov	 DWORD PTR tv731[ebp], ebx
  003af	db 45 d8	 fild	 DWORD PTR tv731[ebp]
  003b2	85 db		 test	 ebx, ebx
  003b4	79 06		 jns	 SHORT $LN96@UpdateGaug
  003b6	d8 05 00 00 00
	00		 fadd	 DWORD PTR __real@4f800000
$LN96@UpdateGaug:
  003bc	89 45 d8	 mov	 DWORD PTR tv727[ebp], eax
  003bf	db 45 d8	 fild	 DWORD PTR tv727[ebp]
  003c2	85 c0		 test	 eax, eax
  003c4	79 06		 jns	 SHORT $LN97@UpdateGaug
  003c6	d8 05 00 00 00
	00		 fadd	 DWORD PTR __real@4f800000
$LN97@UpdateGaug:
  003cc	de f9		 fdivp	 ST(1), ST(0)
  003ce	d9 5d d8	 fstp	 DWORD PTR tv723[ebp]
  003d1	d9 45 d8	 fld	 DWORD PTR tv723[ebp]
  003d4	d8 4d ec	 fmul	 DWORD PTR _fXRate$505301[ebp]
  003d7	89 4d d8	 mov	 DWORD PTR tv719[ebp], ecx
  003da	db 45 d8	 fild	 DWORD PTR tv719[ebp]
  003dd	85 c9		 test	 ecx, ecx
  003df	79 06		 jns	 SHORT $LN98@UpdateGaug
  003e1	d8 05 00 00 00
	00		 fadd	 DWORD PTR __real@4f800000
$LN98@UpdateGaug:
  003e7	89 55 d8	 mov	 DWORD PTR tv715[ebp], edx
  003ea	db 45 d8	 fild	 DWORD PTR tv715[ebp]
  003ed	85 d2		 test	 edx, edx
  003ef	79 06		 jns	 SHORT $LN99@UpdateGaug
  003f1	d8 05 00 00 00
	00		 fadd	 DWORD PTR __real@4f800000
$LN99@UpdateGaug:
  003f7	de f9		 fdivp	 ST(1), ST(0)
  003f9	d9 5d d8	 fstp	 DWORD PTR tv711[ebp]
  003fc	d8 45 d8	 fadd	 DWORD PTR tv711[ebp]
  003ff	d9 5f 08	 fstp	 DWORD PTR [edi+8]

; 135  : 		pBuf[iCurIdx].v = FLOAT05 - fYRate * FLOAT05;

  00402	b8 05 00 00 00	 mov	 eax, 5
  00407	8b c8		 mov	 ecx, eax
  00409	b8 0a 00 00 00	 mov	 eax, 10			; 0000000aH
  0040e	8b d0		 mov	 edx, eax
  00410	b8 05 00 00 00	 mov	 eax, 5
  00415	8b d8		 mov	 ebx, eax
  00417	b8 0a 00 00 00	 mov	 eax, 10			; 0000000aH
  0041c	89 4d d8	 mov	 DWORD PTR tv702[ebp], ecx
  0041f	db 45 d8	 fild	 DWORD PTR tv702[ebp]
  00422	85 c9		 test	 ecx, ecx
  00424	79 06		 jns	 SHORT $LN100@UpdateGaug
  00426	d8 05 00 00 00
	00		 fadd	 DWORD PTR __real@4f800000
$LN100@UpdateGaug:
  0042c	89 55 d8	 mov	 DWORD PTR tv698[ebp], edx
  0042f	db 45 d8	 fild	 DWORD PTR tv698[ebp]
  00432	85 d2		 test	 edx, edx
  00434	79 06		 jns	 SHORT $LN101@UpdateGaug
  00436	d8 05 00 00 00
	00		 fadd	 DWORD PTR __real@4f800000
$LN101@UpdateGaug:
  0043c	de f9		 fdivp	 ST(1), ST(0)
  0043e	d9 5d d8	 fstp	 DWORD PTR tv694[ebp]
  00441	d9 45 d8	 fld	 DWORD PTR tv694[ebp]
  00444	89 5d d8	 mov	 DWORD PTR tv690[ebp], ebx
  00447	db 45 d8	 fild	 DWORD PTR tv690[ebp]
  0044a	85 db		 test	 ebx, ebx
  0044c	79 06		 jns	 SHORT $LN102@UpdateGaug
  0044e	d8 05 00 00 00
	00		 fadd	 DWORD PTR __real@4f800000
$LN102@UpdateGaug:
  00454	89 45 d8	 mov	 DWORD PTR tv686[ebp], eax
  00457	db 45 d8	 fild	 DWORD PTR tv686[ebp]
  0045a	85 c0		 test	 eax, eax
  0045c	79 06		 jns	 SHORT $LN103@UpdateGaug
  0045e	d8 05 00 00 00
	00		 fadd	 DWORD PTR __real@4f800000
$LN103@UpdateGaug:
  00464	de f9		 fdivp	 ST(1), ST(0)

; 136  : 
; 137  : 		iCurIdx++;
; 138  : 		fCurRad -= fRadOffset;

  00466	f3 0f 10 45 10	 movss	 xmm0, DWORD PTR _fCurRad$[ebp]
  0046b	f3 0f 10 4d e4	 movss	 xmm1, DWORD PTR _fRadOffset$[ebp]
  00470	0f 5a c0	 cvtps2pd xmm0, xmm0
  00473	0f 5a c9	 cvtps2pd xmm1, xmm1
  00476	83 c7 18	 add	 edi, 24			; 00000018H
  00479	ff 4d e0	 dec	 DWORD PTR tv412[ebp]
  0047c	f2 0f 5c c1	 subsd	 xmm0, xmm1
  00480	f2 0f 5a c0	 cvtsd2ss xmm0, xmm0
  00484	f3 0f 11 45 10	 movss	 DWORD PTR _fCurRad$[ebp], xmm0
  00489	d9 5d d8	 fstp	 DWORD PTR tv682[ebp]
  0048c	d9 45 d8	 fld	 DWORD PTR tv682[ebp]
  0048f	d8 4d e8	 fmul	 DWORD PTR _fYRate$505302[ebp]
  00492	de e9		 fsubp	 ST(1), ST(0)
  00494	d9 5f f4	 fstp	 DWORD PTR [edi-12]
  00497	0f 85 95 fe ff
	ff		 jne	 $LL3@UpdateGaug

; 124  : 
; 125  : 	for( int i=m_iFrontSkip ; i<iLastCount ; i++ )

  0049d	8b 7d 08	 mov	 edi, DWORD PTR _iXPos$[ebp]
$LN1@UpdateGaug:

; 139  : 	}
; 140  : 
; 141  : 	pInstance->UnLock();

  004a0	8b 4d dc	 mov	 ecx, DWORD PTR _pInstance$[ebp]
  004a3	ff 15 00 00 00
	00		 call	 DWORD PTR __imp_?UnLock@ioVertexBufferInstance@@QAE_NXZ

; 142  : 
; 143  : 	m_iRenderX = iXPos;
; 144  : 	m_iRenderY = iYPos;

  004a9	8b 45 0c	 mov	 eax, DWORD PTR _iYPos$[ebp]
  004ac	89 7e 0c	 mov	 DWORD PTR [esi+12], edi
  004af	89 46 10	 mov	 DWORD PTR [esi+16], eax
$LN79@UpdateGaug:
  004b2	5b		 pop	 ebx
$LN9@UpdateGaug:
  004b3	5f		 pop	 edi
  004b4	5e		 pop	 esi

; 145  : }

  004b5	c9		 leave
  004b6	c2 0c 00	 ret	 12			; 0000000cH
?UpdateGauge@io2DCircleGauge@@QAEXHHM@Z ENDP		; io2DCircleGauge::UpdateGauge
; Function compile flags: /Ogsp
_TEXT	ENDS
;	COMDAT ??_Gio2DCircleGauge@@UAEPAXI@Z
_TEXT	SEGMENT
___flags$ = 8						; size = 4
??_Gio2DCircleGauge@@UAEPAXI@Z PROC			; io2DCircleGauge::`scalar deleting destructor', COMDAT
; _this$ = ecx
  00000	55		 push	 ebp
  00001	8b ec		 mov	 ebp, esp
  00003	56		 push	 esi
  00004	8b f1		 mov	 esi, ecx
  00006	e8 00 00 00 00	 call	 ??1io2DCircleGauge@@UAE@XZ ; io2DCircleGauge::~io2DCircleGauge
  0000b	f6 45 08 01	 test	 BYTE PTR ___flags$[ebp], 1
  0000f	74 07		 je	 SHORT $LN1@scalar@2
  00011	56		 push	 esi
  00012	e8 00 00 00 00	 call	 ??3@YAXPAX@Z		; operator delete
  00017	59		 pop	 ecx
$LN1@scalar@2:
  00018	8b c6		 mov	 eax, esi
  0001a	5e		 pop	 esi
  0001b	5d		 pop	 ebp
  0001c	c2 04 00	 ret	 4
??_Gio2DCircleGauge@@UAEPAXI@Z ENDP			; io2DCircleGauge::`scalar deleting destructor'
_TEXT	ENDS
END
