; Listing generated by Microsoft (R) Optimizing Compiler Version 16.00.30319.01 

	TITLE	D:\Lost Saga For Developer\Youtube\Tutorial\Source\src\LSClient\io3DCharEmoticon.cpp
	.686P
	.XMM
	include listing.inc
	.model	flat

INCLUDELIB MSVCRT
INCLUDELIB OLDNAMES

PUBLIC	?m_iXOffset@io3DCharEmoticon@@0HA		; io3DCharEmoticon::m_iXOffset
PUBLIC	?m_iYOffset@io3DCharEmoticon@@0HA		; io3DCharEmoticon::m_iYOffset
PUBLIC	?m_dwChangeStartGap@io3DCharEmoticon@@0KA	; io3DCharEmoticon::m_dwChangeStartGap
PUBLIC	?m_dwChangeDuration@io3DCharEmoticon@@0KA	; io3DCharEmoticon::m_dwChangeDuration
PUBLIC	?m_dwChangeOnOffGap@io3DCharEmoticon@@0KA	; io3DCharEmoticon::m_dwChangeOnOffGap
PUBLIC	?m_dwSpecialStartGap@io3DCharEmoticon@@0KA	; io3DCharEmoticon::m_dwSpecialStartGap
PUBLIC	?m_dwSpecialDuration@io3DCharEmoticon@@0KA	; io3DCharEmoticon::m_dwSpecialDuration
PUBLIC	?m_dwSpecialOnOffGap@io3DCharEmoticon@@0KA	; io3DCharEmoticon::m_dwSpecialOnOffGap
PUBLIC	?m_bChangeOutLineThick@io3DCharEmoticon@@0_NA	; io3DCharEmoticon::m_bChangeOutLineThick
_BSS	SEGMENT
?m_iXOffset@io3DCharEmoticon@@0HA DD 01H DUP (?)	; io3DCharEmoticon::m_iXOffset
?m_iYOffset@io3DCharEmoticon@@0HA DD 01H DUP (?)	; io3DCharEmoticon::m_iYOffset
?m_dwChangeStartGap@io3DCharEmoticon@@0KA DD 01H DUP (?) ; io3DCharEmoticon::m_dwChangeStartGap
?m_dwChangeDuration@io3DCharEmoticon@@0KA DD 01H DUP (?) ; io3DCharEmoticon::m_dwChangeDuration
?m_dwChangeOnOffGap@io3DCharEmoticon@@0KA DD 01H DUP (?) ; io3DCharEmoticon::m_dwChangeOnOffGap
?m_dwSpecialStartGap@io3DCharEmoticon@@0KA DD 01H DUP (?) ; io3DCharEmoticon::m_dwSpecialStartGap
?m_dwSpecialDuration@io3DCharEmoticon@@0KA DD 01H DUP (?) ; io3DCharEmoticon::m_dwSpecialDuration
?m_dwSpecialOnOffGap@io3DCharEmoticon@@0KA DD 01H DUP (?) ; io3DCharEmoticon::m_dwSpecialOnOffGap
?m_bChangeOutLineThick@io3DCharEmoticon@@0_NA DB 01H DUP (?) ; io3DCharEmoticon::m_bChangeOutLineThick
_BSS	ENDS
PUBLIC	??0io3DCharEmoticon@@QAE@XZ			; io3DCharEmoticon::io3DCharEmoticon
EXTRN	__imp_??1ioHashString@@QAE@XZ:PROC
EXTRN	__imp_??0ioHashString@@QAE@XZ:PROC
EXTRN	___CxxFrameHandler3:PROC
EXTRN	@__security_check_cookie@4:PROC
EXTRN	__EH_epilog3:PROC
EXTRN	__EH_prolog3:PROC
;	COMDAT xdata$x
; File d:\lost saga for developer\youtube\tutorial\source\src\lsclient\io3dcharemoticon.cpp
xdata$x	SEGMENT
__unwindtable$??0io3DCharEmoticon@@QAE@XZ DD 0ffffffffH
	DD	FLAT:__unwindfunclet$??0io3DCharEmoticon@@QAE@XZ$0
__ehfuncinfo$??0io3DCharEmoticon@@QAE@XZ DD 019930522H
	DD	01H
	DD	FLAT:__unwindtable$??0io3DCharEmoticon@@QAE@XZ
	DD	2 DUP(00H)
	DD	2 DUP(00H)
	DD	00H
	DD	01H
; Function compile flags: /Ogsp
xdata$x	ENDS
;	COMDAT ??0io3DCharEmoticon@@QAE@XZ
_TEXT	SEGMENT
_this$ = -16						; size = 4
__$EHRec$ = -12						; size = 12
??0io3DCharEmoticon@@QAE@XZ PROC			; io3DCharEmoticon::io3DCharEmoticon, COMDAT
; _this$ = ecx

; 35   : {

  00000	6a 04		 push	 4
  00002	b8 00 00 00 00	 mov	 eax, __ehhandler$??0io3DCharEmoticon@@QAE@XZ
  00007	e8 00 00 00 00	 call	 __EH_prolog3
  0000c	8b f1		 mov	 esi, ecx
  0000e	89 75 f0	 mov	 DWORD PTR _this$[ebp], esi
  00011	8b 3d 00 00 00
	00		 mov	 edi, DWORD PTR __imp_??0ioHashString@@QAE@XZ
  00017	8d 4e 10	 lea	 ecx, DWORD PTR [esi+16]
  0001a	ff d7		 call	 edi
  0001c	33 db		 xor	 ebx, ebx
  0001e	8d 4e 30	 lea	 ecx, DWORD PTR [esi+48]
  00021	89 5d fc	 mov	 DWORD PTR __$EHRec$[ebp+8], ebx
  00024	ff d7		 call	 edi

; 36   : 	m_pUI3DRender = NULL;

  00026	89 1e		 mov	 DWORD PTR [esi], ebx

; 37   : 	m_pAvata = NULL;

  00028	89 5e 04	 mov	 DWORD PTR [esi+4], ebx

; 38   : 
; 39   : 	m_FaceChange = FC_READY;

  0002b	89 5e 20	 mov	 DWORD PTR [esi+32], ebx

; 40   : 	m_dwSetStart = 0;

  0002e	89 5e 24	 mov	 DWORD PTR [esi+36], ebx

; 41   : 
; 42   : 	m_iMaxChangeCount = 1;

  00031	c7 46 28 01 00
	00 00		 mov	 DWORD PTR [esi+40], 1

; 43   : 	m_iCurChangeCount = 0;

  00038	89 5e 2c	 mov	 DWORD PTR [esi+44], ebx

; 44   : 
; 45   : 	m_SpecialType = SPA_NONE;

  0003b	89 5e 40	 mov	 DWORD PTR [esi+64], ebx

; 46   : }

  0003e	8b c6		 mov	 eax, esi
  00040	e8 00 00 00 00	 call	 __EH_epilog3
  00045	c3		 ret	 0
_TEXT	ENDS
;	COMDAT text$x
text$x	SEGMENT
__unwindfunclet$??0io3DCharEmoticon@@QAE@XZ$0:
  00000	8b 4d f0	 mov	 ecx, DWORD PTR _this$[ebp]
  00003	83 c1 10	 add	 ecx, 16			; 00000010H
  00006	ff 25 00 00 00
	00		 jmp	 DWORD PTR __imp_??1ioHashString@@QAE@XZ
__ehhandler$??0io3DCharEmoticon@@QAE@XZ:
  0000c	8b 54 24 08	 mov	 edx, DWORD PTR [esp+8]
  00010	8d 42 0c	 lea	 eax, DWORD PTR [edx+12]
  00013	8b 4a ec	 mov	 ecx, DWORD PTR [edx-20]
  00016	33 c8		 xor	 ecx, eax
  00018	e8 00 00 00 00	 call	 @__security_check_cookie@4
  0001d	b8 00 00 00 00	 mov	 eax, OFFSET __ehfuncinfo$??0io3DCharEmoticon@@QAE@XZ
  00022	e9 00 00 00 00	 jmp	 ___CxxFrameHandler3
text$x	ENDS
??0io3DCharEmoticon@@QAE@XZ ENDP			; io3DCharEmoticon::io3DCharEmoticon
PUBLIC	?return1@@YAIXZ					; return1
; Function compile flags: /Ogsp
; File d:\lost saga for developer\youtube\tutorial\source\src\lsclient\stdafx.h
;	COMDAT ?return1@@YAIXZ
_TEXT	SEGMENT
?return1@@YAIXZ PROC					; return1, COMDAT

; 17   : 	__forceinline unsigned int return1() { __asm mov eax, 1 };

  00000	b8 01 00 00 00	 mov	 eax, 1
  00005	c3		 ret	 0
?return1@@YAIXZ ENDP					; return1
_TEXT	ENDS
PUBLIC	??1io3DCharEmoticon@@QAE@XZ			; io3DCharEmoticon::~io3DCharEmoticon
;	COMDAT xdata$x
; File d:\lost saga for developer\youtube\tutorial\source\src\lsclient\io3dcharemoticon.cpp
xdata$x	SEGMENT
__unwindtable$??1io3DCharEmoticon@@QAE@XZ DD 0ffffffffH
	DD	FLAT:__unwindfunclet$??1io3DCharEmoticon@@QAE@XZ$0
	DD	00H
	DD	FLAT:__unwindfunclet$??1io3DCharEmoticon@@QAE@XZ$1
__ehfuncinfo$??1io3DCharEmoticon@@QAE@XZ DD 019930522H
	DD	02H
	DD	FLAT:__unwindtable$??1io3DCharEmoticon@@QAE@XZ
	DD	2 DUP(00H)
	DD	2 DUP(00H)
	DD	00H
	DD	01H
; Function compile flags: /Ogsp
xdata$x	ENDS
;	COMDAT ??1io3DCharEmoticon@@QAE@XZ
_TEXT	SEGMENT
_this$ = -16						; size = 4
__$EHRec$ = -12						; size = 12
??1io3DCharEmoticon@@QAE@XZ PROC			; io3DCharEmoticon::~io3DCharEmoticon, COMDAT
; _this$ = ecx

; 49   : {

  00000	6a 04		 push	 4
  00002	b8 00 00 00 00	 mov	 eax, __ehhandler$??1io3DCharEmoticon@@QAE@XZ
  00007	e8 00 00 00 00	 call	 __EH_prolog3
  0000c	8b f1		 mov	 esi, ecx
  0000e	89 75 f0	 mov	 DWORD PTR _this$[ebp], esi

; 50   : 	SAFEDELETE( m_pAvata );

  00011	8b 4e 04	 mov	 ecx, DWORD PTR [esi+4]
  00014	33 ff		 xor	 edi, edi
  00016	47		 inc	 edi
  00017	89 7d fc	 mov	 DWORD PTR __$EHRec$[ebp+8], edi
  0001a	85 c9		 test	 ecx, ecx
  0001c	74 0a		 je	 SHORT $LN2@io3DCharEm
  0001e	8b 01		 mov	 eax, DWORD PTR [ecx]
  00020	57		 push	 edi
  00021	ff 50 04	 call	 DWORD PTR [eax+4]
  00024	83 66 04 00	 and	 DWORD PTR [esi+4], 0
$LN2@io3DCharEm:

; 51   : 	SAFEDELETE( m_pUI3DRender );

  00028	8b 0e		 mov	 ecx, DWORD PTR [esi]
  0002a	85 c9		 test	 ecx, ecx
  0002c	74 08		 je	 SHORT $LN1@io3DCharEm
  0002e	8b 01		 mov	 eax, DWORD PTR [ecx]
  00030	57		 push	 edi
  00031	ff 10		 call	 DWORD PTR [eax]
  00033	83 26 00	 and	 DWORD PTR [esi], 0
$LN1@io3DCharEm:

; 52   : }

  00036	8b 3d 00 00 00
	00		 mov	 edi, DWORD PTR __imp_??1ioHashString@@QAE@XZ
  0003c	8d 4e 30	 lea	 ecx, DWORD PTR [esi+48]
  0003f	c6 45 fc 00	 mov	 BYTE PTR __$EHRec$[ebp+8], 0
  00043	ff d7		 call	 edi
  00045	83 4d fc ff	 or	 DWORD PTR __$EHRec$[ebp+8], -1
  00049	8d 4e 10	 lea	 ecx, DWORD PTR [esi+16]
  0004c	ff d7		 call	 edi
  0004e	e8 00 00 00 00	 call	 __EH_epilog3
  00053	c3		 ret	 0
_TEXT	ENDS
;	COMDAT text$x
text$x	SEGMENT
__unwindfunclet$??1io3DCharEmoticon@@QAE@XZ$0:
  00000	8b 4d f0	 mov	 ecx, DWORD PTR _this$[ebp]
  00003	83 c1 10	 add	 ecx, 16			; 00000010H
  00006	ff 25 00 00 00
	00		 jmp	 DWORD PTR __imp_??1ioHashString@@QAE@XZ
__unwindfunclet$??1io3DCharEmoticon@@QAE@XZ$1:
  0000c	8b 4d f0	 mov	 ecx, DWORD PTR _this$[ebp]
  0000f	83 c1 30	 add	 ecx, 48			; 00000030H
  00012	ff 25 00 00 00
	00		 jmp	 DWORD PTR __imp_??1ioHashString@@QAE@XZ
__ehhandler$??1io3DCharEmoticon@@QAE@XZ:
  00018	8b 54 24 08	 mov	 edx, DWORD PTR [esp+8]
  0001c	8d 42 0c	 lea	 eax, DWORD PTR [edx+12]
  0001f	8b 4a ec	 mov	 ecx, DWORD PTR [edx-20]
  00022	33 c8		 xor	 ecx, eax
  00024	e8 00 00 00 00	 call	 @__security_check_cookie@4
  00029	b8 00 00 00 00	 mov	 eax, OFFSET __ehfuncinfo$??1io3DCharEmoticon@@QAE@XZ
  0002e	e9 00 00 00 00	 jmp	 ___CxxFrameHandler3
text$x	ENDS
??1io3DCharEmoticon@@QAE@XZ ENDP			; io3DCharEmoticon::~io3DCharEmoticon
PUBLIC	?return10@@YAIXZ				; return10
; Function compile flags: /Ogsp
; File d:\lost saga for developer\youtube\tutorial\source\src\lsclient\stdafx.h
;	COMDAT ?return10@@YAIXZ
_TEXT	SEGMENT
?return10@@YAIXZ PROC					; return10, COMDAT

; 21   : 	__forceinline unsigned int return10() { __asm mov eax, 10 };

  00000	b8 0a 00 00 00	 mov	 eax, 10			; 0000000aH
  00005	c3		 ret	 0
?return10@@YAIXZ ENDP					; return10
_TEXT	ENDS
PUBLIC	?return100@@YAIXZ				; return100
; Function compile flags: /Ogsp
;	COMDAT ?return100@@YAIXZ
_TEXT	SEGMENT
?return100@@YAIXZ PROC					; return100, COMDAT

; 25   : 	__forceinline unsigned int return100() { __asm mov eax, 100 };

  00000	b8 64 00 00 00	 mov	 eax, 100		; 00000064H
  00005	c3		 ret	 0
?return100@@YAIXZ ENDP					; return100
_TEXT	ENDS
PUBLIC	??_C@_0CE@FCMGKOOH@config?1sp2_stage_charselect_map?4@ ; `string'
PUBLIC	?Initialize@io3DCharEmoticon@@QAEXABVioHashString@@@Z ; io3DCharEmoticon::Initialize
EXTRN	??3@YAXPAX@Z:PROC				; operator delete
EXTRN	?Initialize@ioUI3DRender@@QAEXPBD0@Z:PROC	; ioUI3DRender::Initialize
EXTRN	__imp_?c_str@ioHashString@@QBEPBDXZ:PROC
EXTRN	??0ioUI3DRender@@QAE@XZ:PROC			; ioUI3DRender::ioUI3DRender
EXTRN	??2@YAPAXI@Z:PROC				; operator new
;	COMDAT ??_C@_0CE@FCMGKOOH@config?1sp2_stage_charselect_map?4@
; File d:\lost saga for developer\youtube\tutorial\source\src\lsclient\io3dcharemoticon.cpp
CONST	SEGMENT
??_C@_0CE@FCMGKOOH@config?1sp2_stage_charselect_map?4@ DB 'config/sp2_sta'
	DB	'ge_charselect_map.ini', 00H			; `string'
CONST	ENDS
;	COMDAT xdata$x
xdata$x	SEGMENT
__unwindtable$?Initialize@io3DCharEmoticon@@QAEXABVioHashString@@@Z DD 0ffffffffH
	DD	FLAT:__unwindfunclet$?Initialize@io3DCharEmoticon@@QAEXABVioHashString@@@Z$0
__ehfuncinfo$?Initialize@io3DCharEmoticon@@QAEXABVioHashString@@@Z DD 019930522H
	DD	01H
	DD	FLAT:__unwindtable$?Initialize@io3DCharEmoticon@@QAEXABVioHashString@@@Z
	DD	2 DUP(00H)
	DD	2 DUP(00H)
	DD	00H
	DD	01H
; Function compile flags: /Ogsp
xdata$x	ENDS
;	COMDAT ?Initialize@io3DCharEmoticon@@QAEXABVioHashString@@@Z
_TEXT	SEGMENT
$T510946 = -16						; size = 4
__$EHRec$ = -12						; size = 12
_rkCamName$ = 8						; size = 4
?Initialize@io3DCharEmoticon@@QAEXABVioHashString@@@Z PROC ; io3DCharEmoticon::Initialize, COMDAT
; _this$ = ecx

; 122  : {

  00000	6a 04		 push	 4
  00002	b8 00 00 00 00	 mov	 eax, __ehhandler$?Initialize@io3DCharEmoticon@@QAEXABVioHashString@@@Z
  00007	e8 00 00 00 00	 call	 __EH_prolog3
  0000c	8b f1		 mov	 esi, ecx

; 123  : 	m_pUI3DRender = new ioUI3DRender;

  0000e	6a 48		 push	 72			; 00000048H
  00010	e8 00 00 00 00	 call	 ??2@YAPAXI@Z		; operator new
  00015	59		 pop	 ecx
  00016	8b c8		 mov	 ecx, eax
  00018	89 4d f0	 mov	 DWORD PTR $T510946[ebp], ecx
  0001b	83 65 fc 00	 and	 DWORD PTR __$EHRec$[ebp+8], 0
  0001f	85 c9		 test	 ecx, ecx
  00021	74 07		 je	 SHORT $LN3@Initialize
  00023	e8 00 00 00 00	 call	 ??0ioUI3DRender@@QAE@XZ	; ioUI3DRender::ioUI3DRender
  00028	eb 02		 jmp	 SHORT $LN4@Initialize
$LN3@Initialize:
  0002a	33 c0		 xor	 eax, eax
$LN4@Initialize:

; 124  : 	m_pUI3DRender->Initialize( "config/sp2_stage_charselect_map.ini", rkCamName.c_str() );

  0002c	8b 4d 08	 mov	 ecx, DWORD PTR _rkCamName$[ebp]
  0002f	83 4d fc ff	 or	 DWORD PTR __$EHRec$[ebp+8], -1
  00033	89 06		 mov	 DWORD PTR [esi], eax
  00035	ff 15 00 00 00
	00		 call	 DWORD PTR __imp_?c_str@ioHashString@@QBEPBDXZ
  0003b	8b 0e		 mov	 ecx, DWORD PTR [esi]
  0003d	50		 push	 eax
  0003e	68 00 00 00 00	 push	 OFFSET ??_C@_0CE@FCMGKOOH@config?1sp2_stage_charselect_map?4@
  00043	e8 00 00 00 00	 call	 ?Initialize@ioUI3DRender@@QAEXPBD0@Z ; ioUI3DRender::Initialize

; 125  : 
; 126  : 	m_SpecialType = SPA_NONE;

  00048	83 66 40 00	 and	 DWORD PTR [esi+64], 0

; 127  : }

  0004c	e8 00 00 00 00	 call	 __EH_epilog3
  00051	c2 04 00	 ret	 4
_TEXT	ENDS
;	COMDAT text$x
text$x	SEGMENT
__unwindfunclet$?Initialize@io3DCharEmoticon@@QAEXABVioHashString@@@Z$0:
  00000	ff 75 f0	 push	 DWORD PTR $T510946[ebp]
  00003	e8 00 00 00 00	 call	 ??3@YAXPAX@Z		; operator delete
  00008	59		 pop	 ecx
  00009	c3		 ret	 0
__ehhandler$?Initialize@io3DCharEmoticon@@QAEXABVioHashString@@@Z:
  0000a	8b 54 24 08	 mov	 edx, DWORD PTR [esp+8]
  0000e	8d 42 0c	 lea	 eax, DWORD PTR [edx+12]
  00011	8b 4a ec	 mov	 ecx, DWORD PTR [edx-20]
  00014	33 c8		 xor	 ecx, eax
  00016	e8 00 00 00 00	 call	 @__security_check_cookie@4
  0001b	b8 00 00 00 00	 mov	 eax, OFFSET __ehfuncinfo$?Initialize@io3DCharEmoticon@@QAEXABVioHashString@@@Z
  00020	e9 00 00 00 00	 jmp	 ___CxxFrameHandler3
text$x	ENDS
?Initialize@io3DCharEmoticon@@QAEXABVioHashString@@@Z ENDP ; io3DCharEmoticon::Initialize
PUBLIC	??_7bad_alloc@std@@6B@				; std::bad_alloc::`vftable'
PUBLIC	??0bad_alloc@std@@QAE@PBD@Z			; std::bad_alloc::bad_alloc
PUBLIC	??_R4bad_alloc@std@@6B@				; std::bad_alloc::`RTTI Complete Object Locator'
PUBLIC	??_R0?AVbad_alloc@std@@@8			; std::bad_alloc `RTTI Type Descriptor'
PUBLIC	??_R3bad_alloc@std@@8				; std::bad_alloc::`RTTI Class Hierarchy Descriptor'
PUBLIC	??_R2bad_alloc@std@@8				; std::bad_alloc::`RTTI Base Class Array'
PUBLIC	??_R1A@?0A@EA@bad_alloc@std@@8			; std::bad_alloc::`RTTI Base Class Descriptor at (0,-1,0,64)'
PUBLIC	??_R1A@?0A@EA@exception@std@@8			; std::exception::`RTTI Base Class Descriptor at (0,-1,0,64)'
PUBLIC	??_R0?AVexception@std@@@8			; std::exception `RTTI Type Descriptor'
PUBLIC	??_R3exception@std@@8				; std::exception::`RTTI Class Hierarchy Descriptor'
PUBLIC	??_R2exception@std@@8				; std::exception::`RTTI Base Class Array'
EXTRN	__imp_??0exception@std@@QAE@ABQBD@Z:PROC
EXTRN	??_7type_info@@6B@:QWORD			; type_info::`vftable'
EXTRN	??_Ebad_alloc@std@@UAEPAXI@Z:PROC		; std::bad_alloc::`vector deleting destructor'
EXTRN	?what@exception@std@@UBEPBDXZ:PROC		; std::exception::what
;	COMDAT ??_R2exception@std@@8
; File c:\program files (x86)\microsoft visual studio 10.0\vc\include\exception
rdata$r	SEGMENT
??_R2exception@std@@8 DD FLAT:??_R1A@?0A@EA@exception@std@@8 ; std::exception::`RTTI Base Class Array'
rdata$r	ENDS
;	COMDAT ??_R3exception@std@@8
rdata$r	SEGMENT
??_R3exception@std@@8 DD 00H				; std::exception::`RTTI Class Hierarchy Descriptor'
	DD	00H
	DD	01H
	DD	FLAT:??_R2exception@std@@8
rdata$r	ENDS
;	COMDAT ??_R0?AVexception@std@@@8
_DATA	SEGMENT
??_R0?AVexception@std@@@8 DD FLAT:??_7type_info@@6B@	; std::exception `RTTI Type Descriptor'
	DD	00H
	DB	'.?AVexception@std@@', 00H
_DATA	ENDS
;	COMDAT ??_R1A@?0A@EA@exception@std@@8
rdata$r	SEGMENT
??_R1A@?0A@EA@exception@std@@8 DD FLAT:??_R0?AVexception@std@@@8 ; std::exception::`RTTI Base Class Descriptor at (0,-1,0,64)'
	DD	00H
	DD	00H
	DD	0ffffffffH
	DD	00H
	DD	040H
	DD	FLAT:??_R3exception@std@@8
rdata$r	ENDS
;	COMDAT ??_R1A@?0A@EA@bad_alloc@std@@8
rdata$r	SEGMENT
??_R1A@?0A@EA@bad_alloc@std@@8 DD FLAT:??_R0?AVbad_alloc@std@@@8 ; std::bad_alloc::`RTTI Base Class Descriptor at (0,-1,0,64)'
	DD	01H
	DD	00H
	DD	0ffffffffH
	DD	00H
	DD	040H
	DD	FLAT:??_R3bad_alloc@std@@8
rdata$r	ENDS
;	COMDAT ??_R2bad_alloc@std@@8
rdata$r	SEGMENT
??_R2bad_alloc@std@@8 DD FLAT:??_R1A@?0A@EA@bad_alloc@std@@8 ; std::bad_alloc::`RTTI Base Class Array'
	DD	FLAT:??_R1A@?0A@EA@exception@std@@8
rdata$r	ENDS
;	COMDAT ??_R3bad_alloc@std@@8
rdata$r	SEGMENT
??_R3bad_alloc@std@@8 DD 00H				; std::bad_alloc::`RTTI Class Hierarchy Descriptor'
	DD	00H
	DD	02H
	DD	FLAT:??_R2bad_alloc@std@@8
rdata$r	ENDS
;	COMDAT ??_R0?AVbad_alloc@std@@@8
_DATA	SEGMENT
??_R0?AVbad_alloc@std@@@8 DD FLAT:??_7type_info@@6B@	; std::bad_alloc `RTTI Type Descriptor'
	DD	00H
	DB	'.?AVbad_alloc@std@@', 00H
_DATA	ENDS
;	COMDAT ??_R4bad_alloc@std@@6B@
rdata$r	SEGMENT
??_R4bad_alloc@std@@6B@ DD 00H				; std::bad_alloc::`RTTI Complete Object Locator'
	DD	00H
	DD	00H
	DD	FLAT:??_R0?AVbad_alloc@std@@@8
	DD	FLAT:??_R3bad_alloc@std@@8
rdata$r	ENDS
;	COMDAT ??_7bad_alloc@std@@6B@
CONST	SEGMENT
??_7bad_alloc@std@@6B@ DD FLAT:??_R4bad_alloc@std@@6B@	; std::bad_alloc::`vftable'
	DD	FLAT:??_Ebad_alloc@std@@UAEPAXI@Z
	DD	FLAT:?what@exception@std@@UBEPBDXZ
; Function compile flags: /Ogsp
CONST	ENDS
;	COMDAT ??0bad_alloc@std@@QAE@PBD@Z
_TEXT	SEGMENT
__Message$ = 8						; size = 4
??0bad_alloc@std@@QAE@PBD@Z PROC			; std::bad_alloc::bad_alloc, COMDAT
; _this$ = ecx

; 345  : 		{	// construct from message string

  00000	55		 push	 ebp
  00001	8b ec		 mov	 ebp, esp
  00003	56		 push	 esi
  00004	8d 45 08	 lea	 eax, DWORD PTR __Message$[ebp]
  00007	50		 push	 eax
  00008	8b f1		 mov	 esi, ecx
  0000a	ff 15 00 00 00
	00		 call	 DWORD PTR __imp_??0exception@std@@QAE@ABQBD@Z
  00010	c7 06 00 00 00
	00		 mov	 DWORD PTR [esi], OFFSET ??_7bad_alloc@std@@6B@

; 346  : 		}

  00016	8b c6		 mov	 eax, esi
  00018	5e		 pop	 esi
  00019	5d		 pop	 ebp
  0001a	c2 04 00	 ret	 4
??0bad_alloc@std@@QAE@PBD@Z ENDP			; std::bad_alloc::bad_alloc
_TEXT	ENDS
PUBLIC	??1bad_alloc@std@@UAE@XZ			; std::bad_alloc::~bad_alloc
EXTRN	__imp_??1exception@std@@UAE@XZ:PROC
; Function compile flags: /Ogsp
;	COMDAT ??1bad_alloc@std@@UAE@XZ
_TEXT	SEGMENT
??1bad_alloc@std@@UAE@XZ PROC				; std::bad_alloc::~bad_alloc, COMDAT
; _this$ = ecx

; 354  : 		{	// destroy the object

  00000	c7 01 00 00 00
	00		 mov	 DWORD PTR [ecx], OFFSET ??_7bad_alloc@std@@6B@

; 355  : 		}

  00006	ff 25 00 00 00
	00		 jmp	 DWORD PTR __imp_??1exception@std@@UAE@XZ
??1bad_alloc@std@@UAE@XZ ENDP				; std::bad_alloc::~bad_alloc
; Function compile flags: /Ogsp
_TEXT	ENDS
;	COMDAT ??_Gbad_alloc@std@@UAEPAXI@Z
_TEXT	SEGMENT
___flags$ = 8						; size = 4
??_Gbad_alloc@std@@UAEPAXI@Z PROC			; std::bad_alloc::`scalar deleting destructor', COMDAT
; _this$ = ecx
  00000	55		 push	 ebp
  00001	8b ec		 mov	 ebp, esp
  00003	56		 push	 esi
  00004	8b f1		 mov	 esi, ecx
  00006	c7 06 00 00 00
	00		 mov	 DWORD PTR [esi], OFFSET ??_7bad_alloc@std@@6B@
  0000c	ff 15 00 00 00
	00		 call	 DWORD PTR __imp_??1exception@std@@UAE@XZ
  00012	f6 45 08 01	 test	 BYTE PTR ___flags$[ebp], 1
  00016	74 07		 je	 SHORT $LN1@scalar
  00018	56		 push	 esi
  00019	e8 00 00 00 00	 call	 ??3@YAXPAX@Z		; operator delete
  0001e	59		 pop	 ecx
$LN1@scalar:
  0001f	8b c6		 mov	 eax, esi
  00021	5e		 pop	 esi
  00022	5d		 pop	 ebp
  00023	c2 04 00	 ret	 4
??_Gbad_alloc@std@@UAEPAXI@Z ENDP			; std::bad_alloc::`scalar deleting destructor'
_TEXT	ENDS
PUBLIC	??2@YAPAXIPAX@Z					; operator new
; Function compile flags: /Ogsp
; File c:\program files (x86)\microsoft visual studio 10.0\vc\include\new
;	COMDAT ??2@YAPAXIPAX@Z
_TEXT	SEGMENT
___formal$ = 8						; size = 4
__Where$ = 12						; size = 4
??2@YAPAXIPAX@Z PROC					; operator new, COMDAT

; 56   : 	{	// construct array with placement at _Where

  00000	55		 push	 ebp
  00001	8b ec		 mov	 ebp, esp

; 57   : 	return (_Where);

  00003	8b 45 0c	 mov	 eax, DWORD PTR __Where$[ebp]

; 58   : 	}

  00006	5d		 pop	 ebp
  00007	c3		 ret	 0
??2@YAPAXIPAX@Z ENDP					; operator new
_TEXT	ENDS
PUBLIC	??3@YAXPAX0@Z					; operator delete
; Function compile flags: /Ogsp
;	COMDAT ??3@YAXPAX0@Z
_TEXT	SEGMENT
___formal$ = 8						; size = 4
___formal$ = 12						; size = 4
??3@YAXPAX0@Z PROC					; operator delete, COMDAT

; 62   : 	}

  00000	c3		 ret	 0
??3@YAXPAX0@Z ENDP					; operator delete
_TEXT	ENDS
PUBLIC	?Update@io3DCharEmoticon@@QAEXHH@Z		; io3DCharEmoticon::Update
EXTRN	__imp_?PlaySoundA@ioSoundManager@@QAEKABVioHashString@@HK@Z:PROC
EXTRN	__imp_?GetSingleton@ioSoundManager@@SAAAV1@XZ:PROC
EXTRN	?ChangeFaceTexture@ioCreateChar@@QAEXABVioHashString@@@Z:PROC ; ioCreateChar::ChangeFaceTexture
EXTRN	?RestoreDefaultFace@ioCreateChar@@QAEXXZ:PROC	; ioCreateChar::RestoreDefaultFace
EXTRN	__imp_?GetLoopSec@ioFrameTimer@@QBEKXZ:PROC
EXTRN	__imp_?GetSingleton@ioFrameTimer@@SAAAV1@XZ:PROC
EXTRN	__imp_?IsEmpty@ioHashString@@QBE_NXZ:PROC
; Function compile flags: /Ogsp
; File d:\lost saga for developer\youtube\tutorial\source\src\lsclient\io3dcharemoticon.cpp
;	COMDAT ?Update@io3DCharEmoticon@@QAEXHH@Z
_TEXT	SEGMENT
_dwPastTime$ = 8					; size = 4
_iXPos$ = 8						; size = 4
_iYPos$ = 12						; size = 4
?Update@io3DCharEmoticon@@QAEXHH@Z PROC			; io3DCharEmoticon::Update, COMDAT
; _this$ = ecx

; 368  : {

  00000	55		 push	 ebp
  00001	8b ec		 mov	 ebp, esp

; 369  : 	m_iXPos = iXPos;

  00003	8b 45 08	 mov	 eax, DWORD PTR _iXPos$[ebp]
  00006	56		 push	 esi
  00007	8b f1		 mov	 esi, ecx
  00009	89 46 08	 mov	 DWORD PTR [esi+8], eax

; 370  : 	m_iYPos = iYPos;

  0000c	8b 45 0c	 mov	 eax, DWORD PTR _iYPos$[ebp]

; 371  : 
; 372  : 	if( m_ChangeFaceTex.IsEmpty() )

  0000f	8d 4e 10	 lea	 ecx, DWORD PTR [esi+16]
  00012	89 46 0c	 mov	 DWORD PTR [esi+12], eax
  00015	ff 15 00 00 00
	00		 call	 DWORD PTR __imp_?IsEmpty@ioHashString@@QBE_NXZ
  0001b	84 c0		 test	 al, al
  0001d	0f 85 da 00 00
	00		 jne	 $LN10@Update

; 373  : 		return;
; 374  : 
; 375  : 	DWORD dwCurTime = FRAMEGETTIME();

  00023	ff 15 00 00 00
	00		 call	 DWORD PTR __imp_?GetSingleton@ioFrameTimer@@SAAAV1@XZ
  00029	8b c8		 mov	 ecx, eax
  0002b	ff 15 00 00 00
	00		 call	 DWORD PTR __imp_?GetLoopSec@ioFrameTimer@@QBEKXZ

; 376  : 	if( m_dwSetStart > dwCurTime )

  00031	8b 4e 24	 mov	 ecx, DWORD PTR [esi+36]
  00034	3b c8		 cmp	 ecx, eax
  00036	0f 87 c1 00 00
	00		 ja	 $LN10@Update

; 377  : 		return;
; 378  : 
; 379  : 	DWORD dwPastTime = dwCurTime - m_dwSetStart;
; 380  : 	DWORD dwStartGap = m_dwChangeStartGap;
; 381  : 	DWORD dwDuration = m_dwChangeDuration;

  0003c	8b 15 00 00 00
	00		 mov	 edx, DWORD PTR ?m_dwChangeDuration@io3DCharEmoticon@@0KA ; io3DCharEmoticon::m_dwChangeDuration
  00042	2b c1		 sub	 eax, ecx

; 382  : 	DWORD dwOnOffGap = m_dwChangeOnOffGap;
; 383  : 
; 384  : 	if( m_SpecialType != SPA_NONE )

  00044	83 7e 40 00	 cmp	 DWORD PTR [esi+64], 0
  00048	8b 0d 00 00 00
	00		 mov	 ecx, DWORD PTR ?m_dwChangeStartGap@io3DCharEmoticon@@0KA ; io3DCharEmoticon::m_dwChangeStartGap
  0004e	57		 push	 edi
  0004f	8b 3d 00 00 00
	00		 mov	 edi, DWORD PTR ?m_dwChangeOnOffGap@io3DCharEmoticon@@0KA ; io3DCharEmoticon::m_dwChangeOnOffGap
  00055	89 45 08	 mov	 DWORD PTR _dwPastTime$[ebp], eax
  00058	74 12		 je	 SHORT $LN14@Update

; 385  : 	{
; 386  : 		dwStartGap = m_dwSpecialStartGap;

  0005a	8b 0d 00 00 00
	00		 mov	 ecx, DWORD PTR ?m_dwSpecialStartGap@io3DCharEmoticon@@0KA ; io3DCharEmoticon::m_dwSpecialStartGap

; 387  : 		dwDuration = m_dwSpecialDuration;

  00060	8b 15 00 00 00
	00		 mov	 edx, DWORD PTR ?m_dwSpecialDuration@io3DCharEmoticon@@0KA ; io3DCharEmoticon::m_dwSpecialDuration

; 388  : 		dwOnOffGap = m_dwSpecialOnOffGap;

  00066	8b 3d 00 00 00
	00		 mov	 edi, DWORD PTR ?m_dwSpecialOnOffGap@io3DCharEmoticon@@0KA ; io3DCharEmoticon::m_dwSpecialOnOffGap
$LN14@Update:

; 389  : 	}
; 390  : 
; 391  : 	switch( m_FaceChange )

  0006c	8b 46 20	 mov	 eax, DWORD PTR [esi+32]
  0006f	83 e8 00	 sub	 eax, 0
  00072	74 58		 je	 SHORT $LN11@Update
  00074	48		 dec	 eax
  00075	0f 85 81 00 00
	00		 jne	 $LN19@Update

; 400  : 		}
; 401  : 		break;
; 402  : 	case FC_DURATION:
; 403  : 		if( dwPastTime >= dwStartGap + dwDuration )

  0007b	03 d1		 add	 edx, ecx
  0007d	39 55 08	 cmp	 DWORD PTR _dwPastTime$[ebp], edx
  00080	72 17		 jb	 SHORT $LN8@Update

; 404  : 		{
; 405  : 			// 현재 짝수라면 이미 복구되어 있다.
; 406  : 			if( m_iCurChangeCount & 1 )

  00082	f6 46 2c 01	 test	 BYTE PTR [esi+44], 1
  00086	74 08		 je	 SHORT $LN7@Update

; 407  : 			{
; 408  : 				m_pAvata->RestoreDefaultFace();

  00088	8b 4e 04	 mov	 ecx, DWORD PTR [esi+4]
  0008b	e8 00 00 00 00	 call	 ?RestoreDefaultFace@ioCreateChar@@QAEXXZ ; ioCreateChar::RestoreDefaultFace
$LN7@Update:

; 409  : 			}
; 410  : 
; 411  : 			m_FaceChange = FC_DONE;

  00090	c7 46 20 02 00
	00 00		 mov	 DWORD PTR [esi+32], 2

; 412  : 		}
; 413  : 		else

  00097	eb 63		 jmp	 SHORT $LN19@Update
$LN8@Update:

; 414  : 		{
; 415  : 			if( m_iMaxChangeCount > m_iCurChangeCount )

  00099	8b 56 2c	 mov	 edx, DWORD PTR [esi+44]
  0009c	39 56 28	 cmp	 DWORD PTR [esi+40], edx
  0009f	7e 5b		 jle	 SHORT $LN19@Update

; 416  : 			{
; 417  : 				DWORD dwOnOffTime = dwStartGap + m_iCurChangeCount * dwOnOffGap;

  000a1	8b c2		 mov	 eax, edx
  000a3	0f af c7	 imul	 eax, edi
  000a6	03 c1		 add	 eax, ecx

; 418  : 				if( dwPastTime > dwOnOffTime )

  000a8	39 45 08	 cmp	 DWORD PTR _dwPastTime$[ebp], eax
  000ab	76 4f		 jbe	 SHORT $LN19@Update

; 419  : 				{
; 420  : 					m_iCurChangeCount++;
; 421  : 
; 422  : 					if( m_iCurChangeCount & 1 )
; 423  : 					{
; 424  : 						m_pAvata->ChangeFaceTexture( m_ChangeFaceTex );

  000ad	8b 4e 04	 mov	 ecx, DWORD PTR [esi+4]
  000b0	8d 42 01	 lea	 eax, DWORD PTR [edx+1]
  000b3	89 46 2c	 mov	 DWORD PTR [esi+44], eax
  000b6	a8 01		 test	 al, 1
  000b8	74 0b		 je	 SHORT $LN3@Update
  000ba	8d 46 10	 lea	 eax, DWORD PTR [esi+16]
  000bd	50		 push	 eax
  000be	e8 00 00 00 00	 call	 ?ChangeFaceTexture@ioCreateChar@@QAEXABVioHashString@@@Z ; ioCreateChar::ChangeFaceTexture

; 425  : 
; 426  : 					}
; 427  : 					else

  000c3	eb 37		 jmp	 SHORT $LN19@Update
$LN3@Update:

; 428  : 					{
; 429  : 						m_pAvata->RestoreDefaultFace();

  000c5	e8 00 00 00 00	 call	 ?RestoreDefaultFace@ioCreateChar@@QAEXXZ ; ioCreateChar::RestoreDefaultFace

; 430  : 					}
; 431  : 				}
; 432  : 			}
; 433  : 		}
; 434  : 		break;

  000ca	eb 30		 jmp	 SHORT $LN19@Update
$LN11@Update:

; 392  : 	{
; 393  : 	case FC_READY:
; 394  : 		if( dwPastTime >= dwStartGap )

  000cc	39 4d 08	 cmp	 DWORD PTR _dwPastTime$[ebp], ecx
  000cf	72 2b		 jb	 SHORT $LN19@Update

; 395  : 		{
; 396  : 			m_pAvata->ChangeFaceTexture( m_ChangeFaceTex );

  000d1	8b 4e 04	 mov	 ecx, DWORD PTR [esi+4]
  000d4	8d 46 10	 lea	 eax, DWORD PTR [esi+16]
  000d7	50		 push	 eax
  000d8	e8 00 00 00 00	 call	 ?ChangeFaceTexture@ioCreateChar@@QAEXABVioHashString@@@Z ; ioCreateChar::ChangeFaceTexture

; 397  : 			m_FaceChange = FC_DURATION;

  000dd	33 c0		 xor	 eax, eax
  000df	40		 inc	 eax

; 398  : 			m_iCurChangeCount = 1;
; 399  : 			g_SoundMgr.PlaySound( m_CurChatSound );

  000e0	6a 04		 push	 4
  000e2	89 46 20	 mov	 DWORD PTR [esi+32], eax
  000e5	89 46 2c	 mov	 DWORD PTR [esi+44], eax
  000e8	6a 00		 push	 0
  000ea	83 c6 30	 add	 esi, 48			; 00000030H
  000ed	56		 push	 esi
  000ee	ff 15 00 00 00
	00		 call	 DWORD PTR __imp_?GetSingleton@ioSoundManager@@SAAAV1@XZ
  000f4	8b c8		 mov	 ecx, eax
  000f6	ff 15 00 00 00
	00		 call	 DWORD PTR __imp_?PlaySoundA@ioSoundManager@@QAEKABVioHashString@@HK@Z
$LN19@Update:
  000fc	5f		 pop	 edi
$LN10@Update:
  000fd	5e		 pop	 esi

; 435  : 	case FC_DONE:
; 436  : 		break;
; 437  : 	}
; 438  : }

  000fe	5d		 pop	 ebp
  000ff	c2 08 00	 ret	 8
?Update@io3DCharEmoticon@@QAEXHH@Z ENDP			; io3DCharEmoticon::Update
_TEXT	ENDS
PUBLIC	__$ArrayPad$
PUBLIC	?Render@io3DCharEmoticon@@QAEXXZ		; io3DCharEmoticon::Render
EXTRN	?Render@ioUI3DRender@@QAEXPBUD3DXMATRIX@@_N@Z:PROC ; ioUI3DRender::Render
EXTRN	?MakeUIProjection@ioUI3DRender@@QAE?AUD3DXMATRIX@@HH@Z:PROC ; ioUI3DRender::MakeUIProjection
EXTRN	___security_cookie:DWORD
; Function compile flags: /Ogsp
;	COMDAT ?Render@io3DCharEmoticon@@QAEXXZ
_TEXT	SEGMENT
_matUI$506763 = -68					; size = 64
__$ArrayPad$ = -4					; size = 4
?Render@io3DCharEmoticon@@QAEXXZ PROC			; io3DCharEmoticon::Render, COMDAT
; _this$ = ecx

; 441  : {

  00000	55		 push	 ebp
  00001	8b ec		 mov	 ebp, esp
  00003	83 ec 44	 sub	 esp, 68			; 00000044H
  00006	a1 00 00 00 00	 mov	 eax, DWORD PTR ___security_cookie
  0000b	33 c5		 xor	 eax, ebp
  0000d	89 45 fc	 mov	 DWORD PTR __$ArrayPad$[ebp], eax
  00010	56		 push	 esi
  00011	8b f1		 mov	 esi, ecx

; 442  : 	if( m_pAvata && m_pUI3DRender )

  00013	83 7e 04 00	 cmp	 DWORD PTR [esi+4], 0
  00017	74 30		 je	 SHORT $LN1@Render
  00019	8b 0e		 mov	 ecx, DWORD PTR [esi]
  0001b	85 c9		 test	 ecx, ecx
  0001d	74 2a		 je	 SHORT $LN1@Render

; 443  : 	{
; 444  : 		D3DXMATRIX matUI = m_pUI3DRender->MakeUIProjection( m_iXPos + m_iXOffset, m_iYPos + m_iYOffset );			

  0001f	8b 46 0c	 mov	 eax, DWORD PTR [esi+12]
  00022	03 05 00 00 00
	00		 add	 eax, DWORD PTR ?m_iYOffset@io3DCharEmoticon@@0HA ; io3DCharEmoticon::m_iYOffset
  00028	50		 push	 eax
  00029	8b 46 08	 mov	 eax, DWORD PTR [esi+8]
  0002c	03 05 00 00 00
	00		 add	 eax, DWORD PTR ?m_iXOffset@io3DCharEmoticon@@0HA ; io3DCharEmoticon::m_iXOffset
  00032	50		 push	 eax
  00033	8d 45 bc	 lea	 eax, DWORD PTR _matUI$506763[ebp]
  00036	50		 push	 eax
  00037	e8 00 00 00 00	 call	 ?MakeUIProjection@ioUI3DRender@@QAE?AUD3DXMATRIX@@HH@Z ; ioUI3DRender::MakeUIProjection

; 445  : 		m_pUI3DRender->Render( &matUI, true );

  0003c	8b 0e		 mov	 ecx, DWORD PTR [esi]
  0003e	6a 01		 push	 1
  00040	8d 45 bc	 lea	 eax, DWORD PTR _matUI$506763[ebp]
  00043	50		 push	 eax
  00044	e8 00 00 00 00	 call	 ?Render@ioUI3DRender@@QAEXPBUD3DXMATRIX@@_N@Z ; ioUI3DRender::Render
$LN1@Render:

; 446  : 	}
; 447  : }

  00049	8b 4d fc	 mov	 ecx, DWORD PTR __$ArrayPad$[ebp]
  0004c	33 cd		 xor	 ecx, ebp
  0004e	5e		 pop	 esi
  0004f	e8 00 00 00 00	 call	 @__security_check_cookie@4
  00054	c9		 leave
  00055	c3		 ret	 0
?Render@io3DCharEmoticon@@QAEXXZ ENDP			; io3DCharEmoticon::Render
_TEXT	ENDS
PUBLIC	__$ArrayPad$
PUBLIC	?RenderViewPort@io3DCharEmoticon@@QAEXHHHH@Z	; io3DCharEmoticon::RenderViewPort
EXTRN	?RenderViewPort@ioUI3DRender@@QAEXPBU_D3DRECT@@_N@Z:PROC ; ioUI3DRender::RenderViewPort
; Function compile flags: /Ogsp
;	COMDAT ?RenderViewPort@io3DCharEmoticon@@QAEXHHHH@Z
_TEXT	SEGMENT
_rcD3D$506773 = -20					; size = 16
__$ArrayPad$ = -4					; size = 4
_iXPos$ = 8						; size = 4
_iYPos$ = 12						; size = 4
_iViewWidth$ = 16					; size = 4
_iViewHeight$ = 20					; size = 4
?RenderViewPort@io3DCharEmoticon@@QAEXHHHH@Z PROC	; io3DCharEmoticon::RenderViewPort, COMDAT
; _this$ = ecx

; 450  : {

  00000	55		 push	 ebp
  00001	8b ec		 mov	 ebp, esp
  00003	83 ec 14	 sub	 esp, 20			; 00000014H
  00006	a1 00 00 00 00	 mov	 eax, DWORD PTR ___security_cookie
  0000b	33 c5		 xor	 eax, ebp
  0000d	89 45 fc	 mov	 DWORD PTR __$ArrayPad$[ebp], eax
  00010	8b c1		 mov	 eax, ecx

; 451  : 	if( m_pAvata && m_pUI3DRender )

  00012	83 78 04 00	 cmp	 DWORD PTR [eax+4], 0
  00016	74 2b		 je	 SHORT $LN1@RenderView
  00018	8b 08		 mov	 ecx, DWORD PTR [eax]
  0001a	85 c9		 test	 ecx, ecx
  0001c	74 25		 je	 SHORT $LN1@RenderView

; 452  : 	{
; 453  : 		D3DRECT rcD3D;
; 454  : 		rcD3D.x1 = iXPos;

  0001e	8b 45 08	 mov	 eax, DWORD PTR _iXPos$[ebp]

; 455  : 		rcD3D.y1 = iYPos;

  00021	8b 55 0c	 mov	 edx, DWORD PTR _iYPos$[ebp]
  00024	89 45 ec	 mov	 DWORD PTR _rcD3D$506773[ebp], eax

; 456  : 		rcD3D.x2 = rcD3D.x1 + iViewWidth;

  00027	03 45 10	 add	 eax, DWORD PTR _iViewWidth$[ebp]
  0002a	56		 push	 esi
  0002b	89 55 f0	 mov	 DWORD PTR _rcD3D$506773[ebp+4], edx

; 457  : 		rcD3D.y2 = rcD3D.y1 + iViewHeight;

  0002e	03 55 14	 add	 edx, DWORD PTR _iViewHeight$[ebp]
  00031	89 45 f4	 mov	 DWORD PTR _rcD3D$506773[ebp+8], eax

; 458  : 		m_pUI3DRender->RenderViewPort( &rcD3D, true );

  00034	6a 01		 push	 1
  00036	8d 45 ec	 lea	 eax, DWORD PTR _rcD3D$506773[ebp]
  00039	50		 push	 eax
  0003a	89 55 f8	 mov	 DWORD PTR _rcD3D$506773[ebp+12], edx
  0003d	e8 00 00 00 00	 call	 ?RenderViewPort@ioUI3DRender@@QAEXPBU_D3DRECT@@_N@Z ; ioUI3DRender::RenderViewPort
  00042	5e		 pop	 esi
$LN1@RenderView:

; 459  : 	}
; 460  : }

  00043	8b 4d fc	 mov	 ecx, DWORD PTR __$ArrayPad$[ebp]
  00046	33 cd		 xor	 ecx, ebp
  00048	e8 00 00 00 00	 call	 @__security_check_cookie@4
  0004d	c9		 leave
  0004e	c2 10 00	 ret	 16			; 00000010H
?RenderViewPort@io3DCharEmoticon@@QAEXHHHH@Z ENDP	; io3DCharEmoticon::RenderViewPort
_TEXT	ENDS
PUBLIC	?empty@?$vector@VioHashString@@V?$allocator@VioHashString@@@std@@@std@@QBE_NXZ ; std::vector<ioHashString,std::allocator<ioHashString> >::empty
; Function compile flags: /Ogsp
; File c:\program files (x86)\microsoft visual studio 10.0\vc\include\vector
;	COMDAT ?empty@?$vector@VioHashString@@V?$allocator@VioHashString@@@std@@@std@@QBE_NXZ
_TEXT	SEGMENT
?empty@?$vector@VioHashString@@V?$allocator@VioHashString@@@std@@@std@@QBE_NXZ PROC ; std::vector<ioHashString,std::allocator<ioHashString> >::empty, COMDAT
; _this$ = ecx

; 889  : 		return (this->_Myfirst == this->_Mylast);

  00000	8b 01		 mov	 eax, DWORD PTR [ecx]
  00002	2b 41 04	 sub	 eax, DWORD PTR [ecx+4]
  00005	f7 d8		 neg	 eax
  00007	1b c0		 sbb	 eax, eax
  00009	40		 inc	 eax

; 890  : 		}

  0000a	c3		 ret	 0
?empty@?$vector@VioHashString@@V?$allocator@VioHashString@@@std@@@std@@QBE_NXZ ENDP ; std::vector<ioHashString,std::allocator<ioHashString> >::empty
_TEXT	ENDS
PUBLIC	??A?$vector@VioHashString@@V?$allocator@VioHashString@@@std@@@std@@QBEABVioHashString@@I@Z ; std::vector<ioHashString,std::allocator<ioHashString> >::operator[]
; Function compile flags: /Ogsp
;	COMDAT ??A?$vector@VioHashString@@V?$allocator@VioHashString@@@std@@@std@@QBEABVioHashString@@I@Z
_TEXT	SEGMENT
__Pos$ = 8						; size = 4
??A?$vector@VioHashString@@V?$allocator@VioHashString@@@std@@@std@@QBEABVioHashString@@I@Z PROC ; std::vector<ioHashString,std::allocator<ioHashString> >::operator[], COMDAT
; _this$ = ecx

; 912  : 		{	// subscript nonmutable sequence

  00000	55		 push	 ebp
  00001	8b ec		 mov	 ebp, esp

; 913  :  #if _ITERATOR_DEBUG_LEVEL == 2
; 914  : 		if (size() <= _Pos)
; 915  : 			{	// report error
; 916  : 			_DEBUG_ERROR("vector subscript out of range");
; 917  : 			_SCL_SECURE_OUT_OF_RANGE;
; 918  : 			}
; 919  : 
; 920  :  #elif _ITERATOR_DEBUG_LEVEL == 1
; 921  : 		_SCL_SECURE_VALIDATE_RANGE(_Pos < size());
; 922  :  #endif /* _ITERATOR_DEBUG_LEVEL */
; 923  : 
; 924  : 		return (*(this->_Myfirst + _Pos));

  00003	8b 45 08	 mov	 eax, DWORD PTR __Pos$[ebp]
  00006	c1 e0 04	 shl	 eax, 4
  00009	03 01		 add	 eax, DWORD PTR [ecx]

; 925  : 		}

  0000b	5d		 pop	 ebp
  0000c	c2 04 00	 ret	 4
??A?$vector@VioHashString@@V?$allocator@VioHashString@@@std@@@std@@QBEABVioHashString@@I@Z ENDP ; std::vector<ioHashString,std::allocator<ioHashString> >::operator[]
_TEXT	ENDS
PUBLIC	?capacity@?$vector@VioHashString@@V?$allocator@VioHashString@@@std@@@std@@QBEIXZ ; std::vector<ioHashString,std::allocator<ioHashString> >::capacity
; Function compile flags: /Ogsp
;	COMDAT ?capacity@?$vector@VioHashString@@V?$allocator@VioHashString@@@std@@@std@@QBEIXZ
_TEXT	SEGMENT
?capacity@?$vector@VioHashString@@V?$allocator@VioHashString@@@std@@@std@@QBEIXZ PROC ; std::vector<ioHashString,std::allocator<ioHashString> >::capacity, COMDAT
; _this$ = ecx

; 777  : 		return (this->_Myend - this->_Myfirst);

  00000	8b 41 08	 mov	 eax, DWORD PTR [ecx+8]
  00003	2b 01		 sub	 eax, DWORD PTR [ecx]
  00005	c1 f8 04	 sar	 eax, 4

; 778  : 		}

  00008	c3		 ret	 0
?capacity@?$vector@VioHashString@@V?$allocator@VioHashString@@@std@@@std@@QBEIXZ ENDP ; std::vector<ioHashString,std::allocator<ioHashString> >::capacity
_TEXT	ENDS
PUBLIC	?_Inside@?$vector@VioHashString@@V?$allocator@VioHashString@@@std@@@std@@IBE_NPBVioHashString@@@Z ; std::vector<ioHashString,std::allocator<ioHashString> >::_Inside
; Function compile flags: /Ogsp
;	COMDAT ?_Inside@?$vector@VioHashString@@V?$allocator@VioHashString@@@std@@@std@@IBE_NPBVioHashString@@@Z
_TEXT	SEGMENT
__Ptr$ = 8						; size = 4
?_Inside@?$vector@VioHashString@@V?$allocator@VioHashString@@@std@@@std@@IBE_NPBVioHashString@@@Z PROC ; std::vector<ioHashString,std::allocator<ioHashString> >::_Inside, COMDAT
; _this$ = ecx

; 1285 : 		{	// test if _Ptr points inside vector

  00000	55		 push	 ebp
  00001	8b ec		 mov	 ebp, esp

; 1286 : 		return (_Ptr < this->_Mylast && this->_Myfirst <= _Ptr);

  00003	8b 45 08	 mov	 eax, DWORD PTR __Ptr$[ebp]
  00006	3b 41 04	 cmp	 eax, DWORD PTR [ecx+4]
  00009	73 09		 jae	 SHORT $LN3@Inside
  0000b	39 01		 cmp	 DWORD PTR [ecx], eax
  0000d	77 05		 ja	 SHORT $LN3@Inside
  0000f	33 c0		 xor	 eax, eax
  00011	40		 inc	 eax
  00012	eb 02		 jmp	 SHORT $LN4@Inside
$LN3@Inside:
  00014	33 c0		 xor	 eax, eax
$LN4@Inside:

; 1287 : 		}

  00016	5d		 pop	 ebp
  00017	c2 04 00	 ret	 4
?_Inside@?$vector@VioHashString@@V?$allocator@VioHashString@@@std@@@std@@IBE_NPBVioHashString@@@Z ENDP ; std::vector<ioHashString,std::allocator<ioHashString> >::_Inside
_TEXT	ENDS
PUBLIC	?_Orphan_range@?$vector@VioHashString@@V?$allocator@VioHashString@@@std@@@std@@IBEXPAVioHashString@@0@Z ; std::vector<ioHashString,std::allocator<ioHashString> >::_Orphan_range
; Function compile flags: /Ogsp
;	COMDAT ?_Orphan_range@?$vector@VioHashString@@V?$allocator@VioHashString@@@std@@@std@@IBEXPAVioHashString@@0@Z
_TEXT	SEGMENT
___formal$ = 8						; size = 4
___formal$ = 12						; size = 4
?_Orphan_range@?$vector@VioHashString@@V?$allocator@VioHashString@@@std@@@std@@IBEXPAVioHashString@@0@Z PROC ; std::vector<ioHashString,std::allocator<ioHashString> >::_Orphan_range, COMDAT
; _this$ = ecx

; 1454 : 		}

  00000	c2 08 00	 ret	 8
?_Orphan_range@?$vector@VioHashString@@V?$allocator@VioHashString@@@std@@@std@@IBEXPAVioHashString@@0@Z ENDP ; std::vector<ioHashString,std::allocator<ioHashString> >::_Orphan_range
_TEXT	ENDS
PUBLIC	??R?$less@H@std@@QBE_NABH0@Z			; std::less<int>::operator()
; Function compile flags: /Ogsp
; File c:\program files (x86)\microsoft visual studio 10.0\vc\include\xfunctional
;	COMDAT ??R?$less@H@std@@QBE_NABH0@Z
_TEXT	SEGMENT
__Left$ = 8						; size = 4
__Right$ = 12						; size = 4
??R?$less@H@std@@QBE_NABH0@Z PROC			; std::less<int>::operator(), COMDAT
; _this$ = ecx

; 124  : 		{	// apply operator< to operands

  00000	55		 push	 ebp
  00001	8b ec		 mov	 ebp, esp

; 125  : 		return (_Left < _Right);

  00003	8b 45 08	 mov	 eax, DWORD PTR __Left$[ebp]
  00006	8b 00		 mov	 eax, DWORD PTR [eax]
  00008	8b 55 0c	 mov	 edx, DWORD PTR __Right$[ebp]
  0000b	33 c9		 xor	 ecx, ecx
  0000d	3b 02		 cmp	 eax, DWORD PTR [edx]
  0000f	0f 9c c0	 setl	 al

; 126  : 		}

  00012	5d		 pop	 ebp
  00013	c2 08 00	 ret	 8
??R?$less@H@std@@QBE_NABH0@Z ENDP			; std::less<int>::operator()
_TEXT	ENDS
PUBLIC	?size@?$_Tree@V?$_Tmap_traits@HV?$vector@VioHashString@@V?$allocator@VioHashString@@@std@@@std@@U?$less@H@2@V?$allocator@U?$pair@$$CBHV?$vector@VioHashString@@V?$allocator@VioHashString@@@std@@@std@@@std@@@2@$0A@@std@@@std@@QBEIXZ ; std::_Tree<std::_Tmap_traits<int,std::vector<ioHashString,std::allocator<ioHashString> >,std::less<int>,std::allocator<std::pair<int const ,std::vector<ioHashString,std::allocator<ioHashString> > > >,0> >::size
; Function compile flags: /Ogsp
; File c:\program files (x86)\microsoft visual studio 10.0\vc\include\xtree
;	COMDAT ?size@?$_Tree@V?$_Tmap_traits@HV?$vector@VioHashString@@V?$allocator@VioHashString@@@std@@@std@@U?$less@H@2@V?$allocator@U?$pair@$$CBHV?$vector@VioHashString@@V?$allocator@VioHashString@@@std@@@std@@@std@@@2@$0A@@std@@@std@@QBEIXZ
_TEXT	SEGMENT
?size@?$_Tree@V?$_Tmap_traits@HV?$vector@VioHashString@@V?$allocator@VioHashString@@@std@@@std@@U?$less@H@2@V?$allocator@U?$pair@$$CBHV?$vector@VioHashString@@V?$allocator@VioHashString@@@std@@@std@@@std@@@2@$0A@@std@@@std@@QBEIXZ PROC ; std::_Tree<std::_Tmap_traits<int,std::vector<ioHashString,std::allocator<ioHashString> >,std::less<int>,std::allocator<std::pair<int const ,std::vector<ioHashString,std::allocator<ioHashString> > > >,0> >::size, COMDAT
; _this$ = ecx

; 869  : 		return (this->_Mysize);

  00000	8b 41 08	 mov	 eax, DWORD PTR [ecx+8]

; 870  : 		}

  00003	c3		 ret	 0
?size@?$_Tree@V?$_Tmap_traits@HV?$vector@VioHashString@@V?$allocator@VioHashString@@@std@@@std@@U?$less@H@2@V?$allocator@U?$pair@$$CBHV?$vector@VioHashString@@V?$allocator@VioHashString@@@std@@@std@@@std@@@2@$0A@@std@@@std@@QBEIXZ ENDP ; std::_Tree<std::_Tmap_traits<int,std::vector<ioHashString,std::allocator<ioHashString> >,std::less<int>,std::allocator<std::pair<int const ,std::vector<ioHashString,std::allocator<ioHashString> > > >,0> >::size
_TEXT	ENDS
PUBLIC	??0?$allocator@U?$pair@$$CBHV?$vector@VioHashString@@V?$allocator@VioHashString@@@std@@@std@@@std@@@std@@QAE@XZ ; std::allocator<std::pair<int const ,std::vector<ioHashString,std::allocator<ioHashString> > > >::allocator<std::pair<int const ,std::vector<ioHashString,std::allocator<ioHashString> > > >
; Function compile flags: /Ogsp
; File c:\program files (x86)\microsoft visual studio 10.0\vc\include\xmemory
;	COMDAT ??0?$allocator@U?$pair@$$CBHV?$vector@VioHashString@@V?$allocator@VioHashString@@@std@@@std@@@std@@@std@@QAE@XZ
_TEXT	SEGMENT
??0?$allocator@U?$pair@$$CBHV?$vector@VioHashString@@V?$allocator@VioHashString@@@std@@@std@@@std@@@std@@QAE@XZ PROC ; std::allocator<std::pair<int const ,std::vector<ioHashString,std::allocator<ioHashString> > > >::allocator<std::pair<int const ,std::vector<ioHashString,std::allocator<ioHashString> > > >, COMDAT
; _this$ = ecx

; 161  : 	_ALLOCATOR() _THROW0()

  00000	8b c1		 mov	 eax, ecx

; 162  : 		{	// construct default allocator (do nothing)
; 163  : 		}

  00002	c3		 ret	 0
??0?$allocator@U?$pair@$$CBHV?$vector@VioHashString@@V?$allocator@VioHashString@@@std@@@std@@@std@@@std@@QAE@XZ ENDP ; std::allocator<std::pair<int const ,std::vector<ioHashString,std::allocator<ioHashString> > > >::allocator<std::pair<int const ,std::vector<ioHashString,std::allocator<ioHashString> > > >
_TEXT	ENDS
PUBLIC	??8?$_Tree_const_iterator@V?$_Tree_val@V?$_Tmap_traits@HV?$vector@VioHashString@@V?$allocator@VioHashString@@@std@@@std@@U?$less@H@2@V?$allocator@U?$pair@$$CBHV?$vector@VioHashString@@V?$allocator@VioHashString@@@std@@@std@@@std@@@2@$0A@@std@@@std@@@std@@QBE_NABV01@@Z ; std::_Tree_const_iterator<std::_Tree_val<std::_Tmap_traits<int,std::vector<ioHashString,std::allocator<ioHashString> >,std::less<int>,std::allocator<std::pair<int const ,std::vector<ioHashString,std::allocator<ioHashString> > > >,0> > >::operator==
; Function compile flags: /Ogsp
; File c:\program files (x86)\microsoft visual studio 10.0\vc\include\xtree
;	COMDAT ??8?$_Tree_const_iterator@V?$_Tree_val@V?$_Tmap_traits@HV?$vector@VioHashString@@V?$allocator@VioHashString@@@std@@@std@@U?$less@H@2@V?$allocator@U?$pair@$$CBHV?$vector@VioHashString@@V?$allocator@VioHashString@@@std@@@std@@@std@@@2@$0A@@std@@@std@@@std@@QBE_NABV01@@Z
_TEXT	SEGMENT
__Right$ = 8						; size = 4
??8?$_Tree_const_iterator@V?$_Tree_val@V?$_Tmap_traits@HV?$vector@VioHashString@@V?$allocator@VioHashString@@@std@@@std@@U?$less@H@2@V?$allocator@U?$pair@$$CBHV?$vector@VioHashString@@V?$allocator@VioHashString@@@std@@@std@@@std@@@2@$0A@@std@@@std@@@std@@QBE_NABV01@@Z PROC ; std::_Tree_const_iterator<std::_Tree_val<std::_Tmap_traits<int,std::vector<ioHashString,std::allocator<ioHashString> >,std::less<int>,std::allocator<std::pair<int const ,std::vector<ioHashString,std::allocator<ioHashString> > > >,0> > >::operator==, COMDAT
; _this$ = ecx

; 316  : 		{	// test for iterator equality

  00000	55		 push	 ebp
  00001	8b ec		 mov	 ebp, esp

; 317  :  #if _ITERATOR_DEBUG_LEVEL == 2
; 318  : 		if (this->_Getcont() == 0
; 319  : 			|| this->_Getcont() != _Right._Getcont())
; 320  : 			{	// report error
; 321  : 			_DEBUG_ERROR("map/set iterators incompatible");
; 322  : 			_SCL_SECURE_INVALID_ARGUMENT;
; 323  : 			}
; 324  : 
; 325  :  #elif _ITERATOR_DEBUG_LEVEL == 1
; 326  : 		_SCL_SECURE_VALIDATE(this->_Getcont() != 0
; 327  : 			&& this->_Getcont() == _Right._Getcont());
; 328  :  #endif /* _ITERATOR_DEBUG_LEVEL */
; 329  : 
; 330  : 		return (this->_Ptr == _Right._Ptr);

  00003	8b 01		 mov	 eax, DWORD PTR [ecx]
  00005	8b 4d 08	 mov	 ecx, DWORD PTR __Right$[ebp]
  00008	2b 01		 sub	 eax, DWORD PTR [ecx]
  0000a	f7 d8		 neg	 eax
  0000c	1b c0		 sbb	 eax, eax
  0000e	40		 inc	 eax

; 331  : 		}

  0000f	5d		 pop	 ebp
  00010	c2 04 00	 ret	 4
??8?$_Tree_const_iterator@V?$_Tree_val@V?$_Tmap_traits@HV?$vector@VioHashString@@V?$allocator@VioHashString@@@std@@@std@@U?$less@H@2@V?$allocator@U?$pair@$$CBHV?$vector@VioHashString@@V?$allocator@VioHashString@@@std@@@std@@@std@@@2@$0A@@std@@@std@@@std@@QBE_NABV01@@Z ENDP ; std::_Tree_const_iterator<std::_Tree_val<std::_Tmap_traits<int,std::vector<ioHashString,std::allocator<ioHashString> >,std::less<int>,std::allocator<std::pair<int const ,std::vector<ioHashString,std::allocator<ioHashString> > > >,0> > >::operator==
_TEXT	ENDS
PUBLIC	?_Mynode@?$_Tree_unchecked_const_iterator@V?$_Tree_val@V?$_Tmap_traits@HV?$vector@VioHashString@@V?$allocator@VioHashString@@@std@@@std@@U?$less@H@2@V?$allocator@U?$pair@$$CBHV?$vector@VioHashString@@V?$allocator@VioHashString@@@std@@@std@@@std@@@2@$0A@@std@@@std@@U_Iterator_base0@2@@std@@QBEPAU_Node@?$_Tree_nod@V?$_Tmap_traits@HV?$vector@VioHashString@@V?$allocator@VioHashString@@@std@@@std@@U?$less@H@2@V?$allocator@U?$pair@$$CBHV?$vector@VioHashString@@V?$allocator@VioHashString@@@std@@@std@@@std@@@2@$0A@@std@@@2@XZ ; std::_Tree_unchecked_const_iterator<std::_Tree_val<std::_Tmap_traits<int,std::vector<ioHashString,std::allocator<ioHashString> >,std::less<int>,std::allocator<std::pair<int const ,std::vector<ioHashString,std::allocator<ioHashString> > > >,0> >,std::_Iterator_base0>::_Mynode
; Function compile flags: /Ogsp
;	COMDAT ?_Mynode@?$_Tree_unchecked_const_iterator@V?$_Tree_val@V?$_Tmap_traits@HV?$vector@VioHashString@@V?$allocator@VioHashString@@@std@@@std@@U?$less@H@2@V?$allocator@U?$pair@$$CBHV?$vector@VioHashString@@V?$allocator@VioHashString@@@std@@@std@@@std@@@2@$0A@@std@@@std@@U_Iterator_base0@2@@std@@QBEPAU_Node@?$_Tree_nod@V?$_Tmap_traits@HV?$vector@VioHashString@@V?$allocator@VioHashString@@@std@@@std@@U?$less@H@2@V?$allocator@U?$pair@$$CBHV?$vector@VioHashString@@V?$allocator@VioHashString@@@std@@@std@@@std@@@2@$0A@@std@@@2@XZ
_TEXT	SEGMENT
?_Mynode@?$_Tree_unchecked_const_iterator@V?$_Tree_val@V?$_Tmap_traits@HV?$vector@VioHashString@@V?$allocator@VioHashString@@@std@@@std@@U?$less@H@2@V?$allocator@U?$pair@$$CBHV?$vector@VioHashString@@V?$allocator@VioHashString@@@std@@@std@@@std@@@2@$0A@@std@@@std@@U_Iterator_base0@2@@std@@QBEPAU_Node@?$_Tree_nod@V?$_Tmap_traits@HV?$vector@VioHashString@@V?$allocator@VioHashString@@@std@@@std@@U?$less@H@2@V?$allocator@U?$pair@$$CBHV?$vector@VioHashString@@V?$allocator@VioHashString@@@std@@@std@@@std@@@2@$0A@@std@@@2@XZ PROC ; std::_Tree_unchecked_const_iterator<std::_Tree_val<std::_Tmap_traits<int,std::vector<ioHashString,std::allocator<ioHashString> >,std::less<int>,std::allocator<std::pair<int const ,std::vector<ioHashString,std::allocator<ioHashString> > > >,0> >,std::_Iterator_base0>::_Mynode, COMDAT
; _this$ = ecx

; 122  : 		return (_Ptr);

  00000	8b 01		 mov	 eax, DWORD PTR [ecx]

; 123  : 		}

  00002	c3		 ret	 0
?_Mynode@?$_Tree_unchecked_const_iterator@V?$_Tree_val@V?$_Tmap_traits@HV?$vector@VioHashString@@V?$allocator@VioHashString@@@std@@@std@@U?$less@H@2@V?$allocator@U?$pair@$$CBHV?$vector@VioHashString@@V?$allocator@VioHashString@@@std@@@std@@@std@@@2@$0A@@std@@@std@@U_Iterator_base0@2@@std@@QBEPAU_Node@?$_Tree_nod@V?$_Tmap_traits@HV?$vector@VioHashString@@V?$allocator@VioHashString@@@std@@@std@@U?$less@H@2@V?$allocator@U?$pair@$$CBHV?$vector@VioHashString@@V?$allocator@VioHashString@@@std@@@std@@@std@@@2@$0A@@std@@@2@XZ ENDP ; std::_Tree_unchecked_const_iterator<std::_Tree_val<std::_Tmap_traits<int,std::vector<ioHashString,std::allocator<ioHashString> >,std::less<int>,std::allocator<std::pair<int const ,std::vector<ioHashString,std::allocator<ioHashString> > > >,0> >,std::_Iterator_base0>::_Mynode
_TEXT	ENDS
PUBLIC	?_Left@?$_Tree_val@V?$_Tmap_traits@HV?$vector@VioHashString@@V?$allocator@VioHashString@@@std@@@std@@U?$less@H@2@V?$allocator@U?$pair@$$CBHV?$vector@VioHashString@@V?$allocator@VioHashString@@@std@@@std@@@std@@@2@$0A@@std@@@std@@SAAAPAU_Node@?$_Tree_nod@V?$_Tmap_traits@HV?$vector@VioHashString@@V?$allocator@VioHashString@@@std@@@std@@U?$less@H@2@V?$allocator@U?$pair@$$CBHV?$vector@VioHashString@@V?$allocator@VioHashString@@@std@@@std@@@std@@@2@$0A@@std@@@2@PAU342@@Z ; std::_Tree_val<std::_Tmap_traits<int,std::vector<ioHashString,std::allocator<ioHashString> >,std::less<int>,std::allocator<std::pair<int const ,std::vector<ioHashString,std::allocator<ioHashString> > > >,0> >::_Left
; Function compile flags: /Ogsp
;	COMDAT ?_Left@?$_Tree_val@V?$_Tmap_traits@HV?$vector@VioHashString@@V?$allocator@VioHashString@@@std@@@std@@U?$less@H@2@V?$allocator@U?$pair@$$CBHV?$vector@VioHashString@@V?$allocator@VioHashString@@@std@@@std@@@std@@@2@$0A@@std@@@std@@SAAAPAU_Node@?$_Tree_nod@V?$_Tmap_traits@HV?$vector@VioHashString@@V?$allocator@VioHashString@@@std@@@std@@U?$less@H@2@V?$allocator@U?$pair@$$CBHV?$vector@VioHashString@@V?$allocator@VioHashString@@@std@@@std@@@std@@@2@$0A@@std@@@2@PAU342@@Z
_TEXT	SEGMENT
__Pnode$ = 8						; size = 4
?_Left@?$_Tree_val@V?$_Tmap_traits@HV?$vector@VioHashString@@V?$allocator@VioHashString@@@std@@@std@@U?$less@H@2@V?$allocator@U?$pair@$$CBHV?$vector@VioHashString@@V?$allocator@VioHashString@@@std@@@std@@@std@@@2@$0A@@std@@@std@@SAAAPAU_Node@?$_Tree_nod@V?$_Tmap_traits@HV?$vector@VioHashString@@V?$allocator@VioHashString@@@std@@@std@@U?$less@H@2@V?$allocator@U?$pair@$$CBHV?$vector@VioHashString@@V?$allocator@VioHashString@@@std@@@std@@@std@@@2@$0A@@std@@@2@PAU342@@Z PROC ; std::_Tree_val<std::_Tmap_traits<int,std::vector<ioHashString,std::allocator<ioHashString> >,std::less<int>,std::allocator<std::pair<int const ,std::vector<ioHashString,std::allocator<ioHashString> > > >,0> >::_Left, COMDAT

; 621  : 		{	// return reference to left pointer in node

  00000	55		 push	 ebp
  00001	8b ec		 mov	 ebp, esp

; 622  : 		return ((_Nodepref)(*_Pnode)._Left);

  00003	8b 45 08	 mov	 eax, DWORD PTR __Pnode$[ebp]

; 623  : 		}

  00006	5d		 pop	 ebp
  00007	c3		 ret	 0
?_Left@?$_Tree_val@V?$_Tmap_traits@HV?$vector@VioHashString@@V?$allocator@VioHashString@@@std@@@std@@U?$less@H@2@V?$allocator@U?$pair@$$CBHV?$vector@VioHashString@@V?$allocator@VioHashString@@@std@@@std@@@std@@@2@$0A@@std@@@std@@SAAAPAU_Node@?$_Tree_nod@V?$_Tmap_traits@HV?$vector@VioHashString@@V?$allocator@VioHashString@@@std@@@std@@U?$less@H@2@V?$allocator@U?$pair@$$CBHV?$vector@VioHashString@@V?$allocator@VioHashString@@@std@@@std@@@std@@@2@$0A@@std@@@2@PAU342@@Z ENDP ; std::_Tree_val<std::_Tmap_traits<int,std::vector<ioHashString,std::allocator<ioHashString> >,std::less<int>,std::allocator<std::pair<int const ,std::vector<ioHashString,std::allocator<ioHashString> > > >,0> >::_Left
_TEXT	ENDS
PUBLIC	?_Myval@?$_Tree_val@V?$_Tmap_traits@HV?$vector@VioHashString@@V?$allocator@VioHashString@@@std@@@std@@U?$less@H@2@V?$allocator@U?$pair@$$CBHV?$vector@VioHashString@@V?$allocator@VioHashString@@@std@@@std@@@std@@@2@$0A@@std@@@std@@SAAAU?$pair@$$CBHV?$vector@VioHashString@@V?$allocator@VioHashString@@@std@@@std@@@2@PAU_Node@?$_Tree_nod@V?$_Tmap_traits@HV?$vector@VioHashString@@V?$allocator@VioHashString@@@std@@@std@@U?$less@H@2@V?$allocator@U?$pair@$$CBHV?$vector@VioHashString@@V?$allocator@VioHashString@@@std@@@std@@@std@@@2@$0A@@std@@@2@@Z ; std::_Tree_val<std::_Tmap_traits<int,std::vector<ioHashString,std::allocator<ioHashString> >,std::less<int>,std::allocator<std::pair<int const ,std::vector<ioHashString,std::allocator<ioHashString> > > >,0> >::_Myval
; Function compile flags: /Ogsp
;	COMDAT ?_Myval@?$_Tree_val@V?$_Tmap_traits@HV?$vector@VioHashString@@V?$allocator@VioHashString@@@std@@@std@@U?$less@H@2@V?$allocator@U?$pair@$$CBHV?$vector@VioHashString@@V?$allocator@VioHashString@@@std@@@std@@@std@@@2@$0A@@std@@@std@@SAAAU?$pair@$$CBHV?$vector@VioHashString@@V?$allocator@VioHashString@@@std@@@std@@@2@PAU_Node@?$_Tree_nod@V?$_Tmap_traits@HV?$vector@VioHashString@@V?$allocator@VioHashString@@@std@@@std@@U?$less@H@2@V?$allocator@U?$pair@$$CBHV?$vector@VioHashString@@V?$allocator@VioHashString@@@std@@@std@@@std@@@2@$0A@@std@@@2@@Z
_TEXT	SEGMENT
__Pnode$ = 8						; size = 4
?_Myval@?$_Tree_val@V?$_Tmap_traits@HV?$vector@VioHashString@@V?$allocator@VioHashString@@@std@@@std@@U?$less@H@2@V?$allocator@U?$pair@$$CBHV?$vector@VioHashString@@V?$allocator@VioHashString@@@std@@@std@@@std@@@2@$0A@@std@@@std@@SAAAU?$pair@$$CBHV?$vector@VioHashString@@V?$allocator@VioHashString@@@std@@@std@@@2@PAU_Node@?$_Tree_nod@V?$_Tmap_traits@HV?$vector@VioHashString@@V?$allocator@VioHashString@@@std@@@std@@U?$less@H@2@V?$allocator@U?$pair@$$CBHV?$vector@VioHashString@@V?$allocator@VioHashString@@@std@@@std@@@std@@@2@$0A@@std@@@2@@Z PROC ; std::_Tree_val<std::_Tmap_traits<int,std::vector<ioHashString,std::allocator<ioHashString> >,std::less<int>,std::allocator<std::pair<int const ,std::vector<ioHashString,std::allocator<ioHashString> > > >,0> >::_Myval, COMDAT

; 636  : 		{	// return reference to value in node

  00000	55		 push	 ebp
  00001	8b ec		 mov	 ebp, esp

; 637  : 		return ((reference)(*_Pnode)._Myval);

  00003	8b 45 08	 mov	 eax, DWORD PTR __Pnode$[ebp]
  00006	83 c0 0c	 add	 eax, 12			; 0000000cH

; 638  : 		}

  00009	5d		 pop	 ebp
  0000a	c3		 ret	 0
?_Myval@?$_Tree_val@V?$_Tmap_traits@HV?$vector@VioHashString@@V?$allocator@VioHashString@@@std@@@std@@U?$less@H@2@V?$allocator@U?$pair@$$CBHV?$vector@VioHashString@@V?$allocator@VioHashString@@@std@@@std@@@std@@@2@$0A@@std@@@std@@SAAAU?$pair@$$CBHV?$vector@VioHashString@@V?$allocator@VioHashString@@@std@@@std@@@2@PAU_Node@?$_Tree_nod@V?$_Tmap_traits@HV?$vector@VioHashString@@V?$allocator@VioHashString@@@std@@@std@@U?$less@H@2@V?$allocator@U?$pair@$$CBHV?$vector@VioHashString@@V?$allocator@VioHashString@@@std@@@std@@@std@@@2@$0A@@std@@@2@@Z ENDP ; std::_Tree_val<std::_Tmap_traits<int,std::vector<ioHashString,std::allocator<ioHashString> >,std::less<int>,std::allocator<std::pair<int const ,std::vector<ioHashString,std::allocator<ioHashString> > > >,0> >::_Myval
_TEXT	ENDS
PUBLIC	??0?$allocator@U?$pair@$$CBHV?$vector@VioHashString@@V?$allocator@VioHashString@@@std@@@std@@@std@@@std@@QAE@ABV01@@Z ; std::allocator<std::pair<int const ,std::vector<ioHashString,std::allocator<ioHashString> > > >::allocator<std::pair<int const ,std::vector<ioHashString,std::allocator<ioHashString> > > >
; Function compile flags: /Ogsp
; File c:\program files (x86)\microsoft visual studio 10.0\vc\include\xmemory
;	COMDAT ??0?$allocator@U?$pair@$$CBHV?$vector@VioHashString@@V?$allocator@VioHashString@@@std@@@std@@@std@@@std@@QAE@ABV01@@Z
_TEXT	SEGMENT
___formal$ = 8						; size = 4
??0?$allocator@U?$pair@$$CBHV?$vector@VioHashString@@V?$allocator@VioHashString@@@std@@@std@@@std@@@std@@QAE@ABV01@@Z PROC ; std::allocator<std::pair<int const ,std::vector<ioHashString,std::allocator<ioHashString> > > >::allocator<std::pair<int const ,std::vector<ioHashString,std::allocator<ioHashString> > > >, COMDAT
; _this$ = ecx

; 165  : 	_ALLOCATOR(const _ALLOCATOR<_Ty>&) _THROW0()

  00000	8b c1		 mov	 eax, ecx

; 166  : 		{	// construct by copying (do nothing)
; 167  : 		}

  00002	c2 04 00	 ret	 4
??0?$allocator@U?$pair@$$CBHV?$vector@VioHashString@@V?$allocator@VioHashString@@@std@@@std@@@std@@@std@@QAE@ABV01@@Z ENDP ; std::allocator<std::pair<int const ,std::vector<ioHashString,std::allocator<ioHashString> > > >::allocator<std::pair<int const ,std::vector<ioHashString,std::allocator<ioHashString> > > >
_TEXT	ENDS
PUBLIC	?deallocate@?$allocator@U_Node@?$_Tree_nod@V?$_Tmap_traits@HV?$vector@VioHashString@@V?$allocator@VioHashString@@@std@@@std@@U?$less@H@2@V?$allocator@U?$pair@$$CBHV?$vector@VioHashString@@V?$allocator@VioHashString@@@std@@@std@@@std@@@2@$0A@@std@@@std@@@std@@QAEXPAU_Node@?$_Tree_nod@V?$_Tmap_traits@HV?$vector@VioHashString@@V?$allocator@VioHashString@@@std@@@std@@U?$less@H@2@V?$allocator@U?$pair@$$CBHV?$vector@VioHashString@@V?$allocator@VioHashString@@@std@@@std@@@std@@@2@$0A@@std@@@2@I@Z ; std::allocator<std::_Tree_nod<std::_Tmap_traits<int,std::vector<ioHashString,std::allocator<ioHashString> >,std::less<int>,std::allocator<std::pair<int const ,std::vector<ioHashString,std::allocator<ioHashString> > > >,0> >::_Node>::deallocate
; Function compile flags: /Ogsp
;	COMDAT ?deallocate@?$allocator@U_Node@?$_Tree_nod@V?$_Tmap_traits@HV?$vector@VioHashString@@V?$allocator@VioHashString@@@std@@@std@@U?$less@H@2@V?$allocator@U?$pair@$$CBHV?$vector@VioHashString@@V?$allocator@VioHashString@@@std@@@std@@@std@@@2@$0A@@std@@@std@@@std@@QAEXPAU_Node@?$_Tree_nod@V?$_Tmap_traits@HV?$vector@VioHashString@@V?$allocator@VioHashString@@@std@@@std@@U?$less@H@2@V?$allocator@U?$pair@$$CBHV?$vector@VioHashString@@V?$allocator@VioHashString@@@std@@@std@@@std@@@2@$0A@@std@@@2@I@Z
_TEXT	SEGMENT
__Ptr$ = 8						; size = 4
___formal$ = 12						; size = 4
?deallocate@?$allocator@U_Node@?$_Tree_nod@V?$_Tmap_traits@HV?$vector@VioHashString@@V?$allocator@VioHashString@@@std@@@std@@U?$less@H@2@V?$allocator@U?$pair@$$CBHV?$vector@VioHashString@@V?$allocator@VioHashString@@@std@@@std@@@std@@@2@$0A@@std@@@std@@@std@@QAEXPAU_Node@?$_Tree_nod@V?$_Tmap_traits@HV?$vector@VioHashString@@V?$allocator@VioHashString@@@std@@@std@@U?$less@H@2@V?$allocator@U?$pair@$$CBHV?$vector@VioHashString@@V?$allocator@VioHashString@@@std@@@std@@@std@@@2@$0A@@std@@@2@I@Z PROC ; std::allocator<std::_Tree_nod<std::_Tmap_traits<int,std::vector<ioHashString,std::allocator<ioHashString> >,std::less<int>,std::allocator<std::pair<int const ,std::vector<ioHashString,std::allocator<ioHashString> > > >,0> >::_Node>::deallocate, COMDAT
; _this$ = ecx

; 181  : 		{	// deallocate object at _Ptr, ignore size

  00000	55		 push	 ebp
  00001	8b ec		 mov	 ebp, esp

; 182  : 		::operator delete(_Ptr);

  00003	ff 75 08	 push	 DWORD PTR __Ptr$[ebp]
  00006	e8 00 00 00 00	 call	 ??3@YAXPAX@Z		; operator delete
  0000b	59		 pop	 ecx

; 183  : 		}

  0000c	5d		 pop	 ebp
  0000d	c2 08 00	 ret	 8
?deallocate@?$allocator@U_Node@?$_Tree_nod@V?$_Tmap_traits@HV?$vector@VioHashString@@V?$allocator@VioHashString@@@std@@@std@@U?$less@H@2@V?$allocator@U?$pair@$$CBHV?$vector@VioHashString@@V?$allocator@VioHashString@@@std@@@std@@@std@@@2@$0A@@std@@@std@@@std@@QAEXPAU_Node@?$_Tree_nod@V?$_Tmap_traits@HV?$vector@VioHashString@@V?$allocator@VioHashString@@@std@@@std@@U?$less@H@2@V?$allocator@U?$pair@$$CBHV?$vector@VioHashString@@V?$allocator@VioHashString@@@std@@@std@@@std@@@2@$0A@@std@@@2@I@Z ENDP ; std::allocator<std::_Tree_nod<std::_Tmap_traits<int,std::vector<ioHashString,std::allocator<ioHashString> >,std::less<int>,std::allocator<std::pair<int const ,std::vector<ioHashString,std::allocator<ioHashString> > > >,0> >::_Node>::deallocate
_TEXT	ENDS
PUBLIC	??D?$_Tree_const_iterator@V?$_Tree_val@V?$_Tmap_traits@HV?$vector@VioHashString@@V?$allocator@VioHashString@@@std@@@std@@U?$less@H@2@V?$allocator@U?$pair@$$CBHV?$vector@VioHashString@@V?$allocator@VioHashString@@@std@@@std@@@std@@@2@$0A@@std@@@std@@@std@@QBEABU?$pair@$$CBHV?$vector@VioHashString@@V?$allocator@VioHashString@@@std@@@std@@@1@XZ ; std::_Tree_const_iterator<std::_Tree_val<std::_Tmap_traits<int,std::vector<ioHashString,std::allocator<ioHashString> >,std::less<int>,std::allocator<std::pair<int const ,std::vector<ioHashString,std::allocator<ioHashString> > > >,0> > >::operator*
; Function compile flags: /Ogsp
; File c:\program files (x86)\microsoft visual studio 10.0\vc\include\xtree
;	COMDAT ??D?$_Tree_const_iterator@V?$_Tree_val@V?$_Tmap_traits@HV?$vector@VioHashString@@V?$allocator@VioHashString@@@std@@@std@@U?$less@H@2@V?$allocator@U?$pair@$$CBHV?$vector@VioHashString@@V?$allocator@VioHashString@@@std@@@std@@@std@@@2@$0A@@std@@@std@@@std@@QBEABU?$pair@$$CBHV?$vector@VioHashString@@V?$allocator@VioHashString@@@std@@@std@@@1@XZ
_TEXT	SEGMENT
??D?$_Tree_const_iterator@V?$_Tree_val@V?$_Tmap_traits@HV?$vector@VioHashString@@V?$allocator@VioHashString@@@std@@@std@@U?$less@H@2@V?$allocator@U?$pair@$$CBHV?$vector@VioHashString@@V?$allocator@VioHashString@@@std@@@std@@@std@@@2@$0A@@std@@@std@@@std@@QBEABU?$pair@$$CBHV?$vector@VioHashString@@V?$allocator@VioHashString@@@std@@@std@@@1@XZ PROC ; std::_Tree_const_iterator<std::_Tree_val<std::_Tmap_traits<int,std::vector<ioHashString,std::allocator<ioHashString> >,std::less<int>,std::allocator<std::pair<int const ,std::vector<ioHashString,std::allocator<ioHashString> > > >,0> > >::operator*, COMDAT
; _this$ = ecx

; 231  :  #if _ITERATOR_DEBUG_LEVEL == 2
; 232  : 		if (this->_Getcont() == 0
; 233  : 			|| this->_Ptr == 0
; 234  : 			|| this->_Ptr == ((_Mytree *)this->_Getcont())->_Myhead)
; 235  : 			{	// report error
; 236  : 			_DEBUG_ERROR("map/set iterator not dereferencable");
; 237  : 			_SCL_SECURE_OUT_OF_RANGE;
; 238  : 			}
; 239  : 
; 240  :  #elif _ITERATOR_DEBUG_LEVEL == 1
; 241  : 		_SCL_SECURE_VALIDATE(this->_Getcont() != 0 && this->_Ptr != 0);
; 242  : 		_SCL_SECURE_VALIDATE_RANGE(this->_Ptr !=
; 243  : 			((_Mytree *)this->_Getcont())->_Myhead);
; 244  :  #endif /* _ITERATOR_DEBUG_LEVEL */
; 245  : 
; 246  : 		return (_Mytree::_Myval(this->_Ptr));

  00000	8b 01		 mov	 eax, DWORD PTR [ecx]
  00002	83 c0 0c	 add	 eax, 12			; 0000000cH

; 247  : 		}

  00005	c3		 ret	 0
??D?$_Tree_const_iterator@V?$_Tree_val@V?$_Tmap_traits@HV?$vector@VioHashString@@V?$allocator@VioHashString@@@std@@@std@@U?$less@H@2@V?$allocator@U?$pair@$$CBHV?$vector@VioHashString@@V?$allocator@VioHashString@@@std@@@std@@@std@@@2@$0A@@std@@@std@@@std@@QBEABU?$pair@$$CBHV?$vector@VioHashString@@V?$allocator@VioHashString@@@std@@@std@@@1@XZ ENDP ; std::_Tree_const_iterator<std::_Tree_val<std::_Tmap_traits<int,std::vector<ioHashString,std::allocator<ioHashString> >,std::less<int>,std::allocator<std::pair<int const ,std::vector<ioHashString,std::allocator<ioHashString> > > >,0> > >::operator*
_TEXT	ENDS
PUBLIC	?_Adopt@_Iterator_base0@std@@QAEXPBX@Z		; std::_Iterator_base0::_Adopt
; Function compile flags: /Ogsp
; File c:\program files (x86)\microsoft visual studio 10.0\vc\include\xutility
;	COMDAT ?_Adopt@_Iterator_base0@std@@QAEXPBX@Z
_TEXT	SEGMENT
___formal$ = 8						; size = 4
?_Adopt@_Iterator_base0@std@@QAEXPBX@Z PROC		; std::_Iterator_base0::_Adopt, COMDAT
; _this$ = ecx

; 49   : 		}

  00000	c2 04 00	 ret	 4
?_Adopt@_Iterator_base0@std@@QAEXPBX@Z ENDP		; std::_Iterator_base0::_Adopt
_TEXT	ENDS
PUBLIC	?_Color@?$_Tree_val@V?$_Tmap_traits@HV?$vector@VioHashString@@V?$allocator@VioHashString@@@std@@@std@@U?$less@H@2@V?$allocator@U?$pair@$$CBHV?$vector@VioHashString@@V?$allocator@VioHashString@@@std@@@std@@@std@@@2@$0A@@std@@@std@@SAAADPAU_Node@?$_Tree_nod@V?$_Tmap_traits@HV?$vector@VioHashString@@V?$allocator@VioHashString@@@std@@@std@@U?$less@H@2@V?$allocator@U?$pair@$$CBHV?$vector@VioHashString@@V?$allocator@VioHashString@@@std@@@std@@@std@@@2@$0A@@std@@@2@@Z ; std::_Tree_val<std::_Tmap_traits<int,std::vector<ioHashString,std::allocator<ioHashString> >,std::less<int>,std::allocator<std::pair<int const ,std::vector<ioHashString,std::allocator<ioHashString> > > >,0> >::_Color
; Function compile flags: /Ogsp
; File c:\program files (x86)\microsoft visual studio 10.0\vc\include\xtree
;	COMDAT ?_Color@?$_Tree_val@V?$_Tmap_traits@HV?$vector@VioHashString@@V?$allocator@VioHashString@@@std@@@std@@U?$less@H@2@V?$allocator@U?$pair@$$CBHV?$vector@VioHashString@@V?$allocator@VioHashString@@@std@@@std@@@std@@@2@$0A@@std@@@std@@SAAADPAU_Node@?$_Tree_nod@V?$_Tmap_traits@HV?$vector@VioHashString@@V?$allocator@VioHashString@@@std@@@std@@U?$less@H@2@V?$allocator@U?$pair@$$CBHV?$vector@VioHashString@@V?$allocator@VioHashString@@@std@@@std@@@std@@@2@$0A@@std@@@2@@Z
_TEXT	SEGMENT
__Pnode$ = 8						; size = 4
?_Color@?$_Tree_val@V?$_Tmap_traits@HV?$vector@VioHashString@@V?$allocator@VioHashString@@@std@@@std@@U?$less@H@2@V?$allocator@U?$pair@$$CBHV?$vector@VioHashString@@V?$allocator@VioHashString@@@std@@@std@@@std@@@2@$0A@@std@@@std@@SAAADPAU_Node@?$_Tree_nod@V?$_Tmap_traits@HV?$vector@VioHashString@@V?$allocator@VioHashString@@@std@@@std@@U?$less@H@2@V?$allocator@U?$pair@$$CBHV?$vector@VioHashString@@V?$allocator@VioHashString@@@std@@@std@@@std@@@2@$0A@@std@@@2@@Z PROC ; std::_Tree_val<std::_Tmap_traits<int,std::vector<ioHashString,std::allocator<ioHashString> >,std::less<int>,std::allocator<std::pair<int const ,std::vector<ioHashString,std::allocator<ioHashString> > > >,0> >::_Color, COMDAT

; 606  : 		{	// return reference to color in node

  00000	55		 push	 ebp
  00001	8b ec		 mov	 ebp, esp

; 607  : 		return ((char&)(*_Pnode)._Color);

  00003	8b 45 08	 mov	 eax, DWORD PTR __Pnode$[ebp]
  00006	83 c0 20	 add	 eax, 32			; 00000020H

; 608  : 		}

  00009	5d		 pop	 ebp
  0000a	c3		 ret	 0
?_Color@?$_Tree_val@V?$_Tmap_traits@HV?$vector@VioHashString@@V?$allocator@VioHashString@@@std@@@std@@U?$less@H@2@V?$allocator@U?$pair@$$CBHV?$vector@VioHashString@@V?$allocator@VioHashString@@@std@@@std@@@std@@@2@$0A@@std@@@std@@SAAADPAU_Node@?$_Tree_nod@V?$_Tmap_traits@HV?$vector@VioHashString@@V?$allocator@VioHashString@@@std@@@std@@U?$less@H@2@V?$allocator@U?$pair@$$CBHV?$vector@VioHashString@@V?$allocator@VioHashString@@@std@@@std@@@std@@@2@$0A@@std@@@2@@Z ENDP ; std::_Tree_val<std::_Tmap_traits<int,std::vector<ioHashString,std::allocator<ioHashString> >,std::less<int>,std::allocator<std::pair<int const ,std::vector<ioHashString,std::allocator<ioHashString> > > >,0> >::_Color
_TEXT	ENDS
PUBLIC	?_Isnil@?$_Tree_val@V?$_Tmap_traits@HV?$vector@VioHashString@@V?$allocator@VioHashString@@@std@@@std@@U?$less@H@2@V?$allocator@U?$pair@$$CBHV?$vector@VioHashString@@V?$allocator@VioHashString@@@std@@@std@@@std@@@2@$0A@@std@@@std@@SAAADPAU_Node@?$_Tree_nod@V?$_Tmap_traits@HV?$vector@VioHashString@@V?$allocator@VioHashString@@@std@@@std@@U?$less@H@2@V?$allocator@U?$pair@$$CBHV?$vector@VioHashString@@V?$allocator@VioHashString@@@std@@@std@@@std@@@2@$0A@@std@@@2@@Z ; std::_Tree_val<std::_Tmap_traits<int,std::vector<ioHashString,std::allocator<ioHashString> >,std::less<int>,std::allocator<std::pair<int const ,std::vector<ioHashString,std::allocator<ioHashString> > > >,0> >::_Isnil
; Function compile flags: /Ogsp
;	COMDAT ?_Isnil@?$_Tree_val@V?$_Tmap_traits@HV?$vector@VioHashString@@V?$allocator@VioHashString@@@std@@@std@@U?$less@H@2@V?$allocator@U?$pair@$$CBHV?$vector@VioHashString@@V?$allocator@VioHashString@@@std@@@std@@@std@@@2@$0A@@std@@@std@@SAAADPAU_Node@?$_Tree_nod@V?$_Tmap_traits@HV?$vector@VioHashString@@V?$allocator@VioHashString@@@std@@@std@@U?$less@H@2@V?$allocator@U?$pair@$$CBHV?$vector@VioHashString@@V?$allocator@VioHashString@@@std@@@std@@@std@@@2@$0A@@std@@@2@@Z
_TEXT	SEGMENT
__Pnode$ = 8						; size = 4
?_Isnil@?$_Tree_val@V?$_Tmap_traits@HV?$vector@VioHashString@@V?$allocator@VioHashString@@@std@@@std@@U?$less@H@2@V?$allocator@U?$pair@$$CBHV?$vector@VioHashString@@V?$allocator@VioHashString@@@std@@@std@@@std@@@2@$0A@@std@@@std@@SAAADPAU_Node@?$_Tree_nod@V?$_Tmap_traits@HV?$vector@VioHashString@@V?$allocator@VioHashString@@@std@@@std@@U?$less@H@2@V?$allocator@U?$pair@$$CBHV?$vector@VioHashString@@V?$allocator@VioHashString@@@std@@@std@@@std@@@2@$0A@@std@@@2@@Z PROC ; std::_Tree_val<std::_Tmap_traits<int,std::vector<ioHashString,std::allocator<ioHashString> >,std::less<int>,std::allocator<std::pair<int const ,std::vector<ioHashString,std::allocator<ioHashString> > > >,0> >::_Isnil, COMDAT

; 611  : 		{	// return reference to nil flag in node

  00000	55		 push	 ebp
  00001	8b ec		 mov	 ebp, esp

; 612  : 		return ((char&)(*_Pnode)._Isnil);

  00003	8b 45 08	 mov	 eax, DWORD PTR __Pnode$[ebp]
  00006	83 c0 21	 add	 eax, 33			; 00000021H

; 613  : 		}

  00009	5d		 pop	 ebp
  0000a	c3		 ret	 0
?_Isnil@?$_Tree_val@V?$_Tmap_traits@HV?$vector@VioHashString@@V?$allocator@VioHashString@@@std@@@std@@U?$less@H@2@V?$allocator@U?$pair@$$CBHV?$vector@VioHashString@@V?$allocator@VioHashString@@@std@@@std@@@std@@@2@$0A@@std@@@std@@SAAADPAU_Node@?$_Tree_nod@V?$_Tmap_traits@HV?$vector@VioHashString@@V?$allocator@VioHashString@@@std@@@std@@U?$less@H@2@V?$allocator@U?$pair@$$CBHV?$vector@VioHashString@@V?$allocator@VioHashString@@@std@@@std@@@std@@@2@$0A@@std@@@2@@Z ENDP ; std::_Tree_val<std::_Tmap_traits<int,std::vector<ioHashString,std::allocator<ioHashString> >,std::less<int>,std::allocator<std::pair<int const ,std::vector<ioHashString,std::allocator<ioHashString> > > >,0> >::_Isnil
_TEXT	ENDS
PUBLIC	?_Parent@?$_Tree_val@V?$_Tmap_traits@HV?$vector@VioHashString@@V?$allocator@VioHashString@@@std@@@std@@U?$less@H@2@V?$allocator@U?$pair@$$CBHV?$vector@VioHashString@@V?$allocator@VioHashString@@@std@@@std@@@std@@@2@$0A@@std@@@std@@SAAAPAU_Node@?$_Tree_nod@V?$_Tmap_traits@HV?$vector@VioHashString@@V?$allocator@VioHashString@@@std@@@std@@U?$less@H@2@V?$allocator@U?$pair@$$CBHV?$vector@VioHashString@@V?$allocator@VioHashString@@@std@@@std@@@std@@@2@$0A@@std@@@2@PAU342@@Z ; std::_Tree_val<std::_Tmap_traits<int,std::vector<ioHashString,std::allocator<ioHashString> >,std::less<int>,std::allocator<std::pair<int const ,std::vector<ioHashString,std::allocator<ioHashString> > > >,0> >::_Parent
; Function compile flags: /Ogsp
;	COMDAT ?_Parent@?$_Tree_val@V?$_Tmap_traits@HV?$vector@VioHashString@@V?$allocator@VioHashString@@@std@@@std@@U?$less@H@2@V?$allocator@U?$pair@$$CBHV?$vector@VioHashString@@V?$allocator@VioHashString@@@std@@@std@@@std@@@2@$0A@@std@@@std@@SAAAPAU_Node@?$_Tree_nod@V?$_Tmap_traits@HV?$vector@VioHashString@@V?$allocator@VioHashString@@@std@@@std@@U?$less@H@2@V?$allocator@U?$pair@$$CBHV?$vector@VioHashString@@V?$allocator@VioHashString@@@std@@@std@@@std@@@2@$0A@@std@@@2@PAU342@@Z
_TEXT	SEGMENT
__Pnode$ = 8						; size = 4
?_Parent@?$_Tree_val@V?$_Tmap_traits@HV?$vector@VioHashString@@V?$allocator@VioHashString@@@std@@@std@@U?$less@H@2@V?$allocator@U?$pair@$$CBHV?$vector@VioHashString@@V?$allocator@VioHashString@@@std@@@std@@@std@@@2@$0A@@std@@@std@@SAAAPAU_Node@?$_Tree_nod@V?$_Tmap_traits@HV?$vector@VioHashString@@V?$allocator@VioHashString@@@std@@@std@@U?$less@H@2@V?$allocator@U?$pair@$$CBHV?$vector@VioHashString@@V?$allocator@VioHashString@@@std@@@std@@@std@@@2@$0A@@std@@@2@PAU342@@Z PROC ; std::_Tree_val<std::_Tmap_traits<int,std::vector<ioHashString,std::allocator<ioHashString> >,std::less<int>,std::allocator<std::pair<int const ,std::vector<ioHashString,std::allocator<ioHashString> > > >,0> >::_Parent, COMDAT

; 626  : 		{	// return reference to parent pointer in node

  00000	55		 push	 ebp
  00001	8b ec		 mov	 ebp, esp

; 627  : 		return ((_Nodepref)(*_Pnode)._Parent);

  00003	8b 45 08	 mov	 eax, DWORD PTR __Pnode$[ebp]
  00006	83 c0 04	 add	 eax, 4

; 628  : 		}

  00009	5d		 pop	 ebp
  0000a	c3		 ret	 0
?_Parent@?$_Tree_val@V?$_Tmap_traits@HV?$vector@VioHashString@@V?$allocator@VioHashString@@@std@@@std@@U?$less@H@2@V?$allocator@U?$pair@$$CBHV?$vector@VioHashString@@V?$allocator@VioHashString@@@std@@@std@@@std@@@2@$0A@@std@@@std@@SAAAPAU_Node@?$_Tree_nod@V?$_Tmap_traits@HV?$vector@VioHashString@@V?$allocator@VioHashString@@@std@@@std@@U?$less@H@2@V?$allocator@U?$pair@$$CBHV?$vector@VioHashString@@V?$allocator@VioHashString@@@std@@@std@@@std@@@2@$0A@@std@@@2@PAU342@@Z ENDP ; std::_Tree_val<std::_Tmap_traits<int,std::vector<ioHashString,std::allocator<ioHashString> >,std::less<int>,std::allocator<std::pair<int const ,std::vector<ioHashString,std::allocator<ioHashString> > > >,0> >::_Parent
_TEXT	ENDS
PUBLIC	?_Right@?$_Tree_val@V?$_Tmap_traits@HV?$vector@VioHashString@@V?$allocator@VioHashString@@@std@@@std@@U?$less@H@2@V?$allocator@U?$pair@$$CBHV?$vector@VioHashString@@V?$allocator@VioHashString@@@std@@@std@@@std@@@2@$0A@@std@@@std@@SAAAPAU_Node@?$_Tree_nod@V?$_Tmap_traits@HV?$vector@VioHashString@@V?$allocator@VioHashString@@@std@@@std@@U?$less@H@2@V?$allocator@U?$pair@$$CBHV?$vector@VioHashString@@V?$allocator@VioHashString@@@std@@@std@@@std@@@2@$0A@@std@@@2@PAU342@@Z ; std::_Tree_val<std::_Tmap_traits<int,std::vector<ioHashString,std::allocator<ioHashString> >,std::less<int>,std::allocator<std::pair<int const ,std::vector<ioHashString,std::allocator<ioHashString> > > >,0> >::_Right
; Function compile flags: /Ogsp
;	COMDAT ?_Right@?$_Tree_val@V?$_Tmap_traits@HV?$vector@VioHashString@@V?$allocator@VioHashString@@@std@@@std@@U?$less@H@2@V?$allocator@U?$pair@$$CBHV?$vector@VioHashString@@V?$allocator@VioHashString@@@std@@@std@@@std@@@2@$0A@@std@@@std@@SAAAPAU_Node@?$_Tree_nod@V?$_Tmap_traits@HV?$vector@VioHashString@@V?$allocator@VioHashString@@@std@@@std@@U?$less@H@2@V?$allocator@U?$pair@$$CBHV?$vector@VioHashString@@V?$allocator@VioHashString@@@std@@@std@@@std@@@2@$0A@@std@@@2@PAU342@@Z
_TEXT	SEGMENT
__Pnode$ = 8						; size = 4
?_Right@?$_Tree_val@V?$_Tmap_traits@HV?$vector@VioHashString@@V?$allocator@VioHashString@@@std@@@std@@U?$less@H@2@V?$allocator@U?$pair@$$CBHV?$vector@VioHashString@@V?$allocator@VioHashString@@@std@@@std@@@std@@@2@$0A@@std@@@std@@SAAAPAU_Node@?$_Tree_nod@V?$_Tmap_traits@HV?$vector@VioHashString@@V?$allocator@VioHashString@@@std@@@std@@U?$less@H@2@V?$allocator@U?$pair@$$CBHV?$vector@VioHashString@@V?$allocator@VioHashString@@@std@@@std@@@std@@@2@$0A@@std@@@2@PAU342@@Z PROC ; std::_Tree_val<std::_Tmap_traits<int,std::vector<ioHashString,std::allocator<ioHashString> >,std::less<int>,std::allocator<std::pair<int const ,std::vector<ioHashString,std::allocator<ioHashString> > > >,0> >::_Right, COMDAT

; 631  : 		{	// return reference to right pointer in node

  00000	55		 push	 ebp
  00001	8b ec		 mov	 ebp, esp

; 632  : 		return ((_Nodepref)(*_Pnode)._Right);

  00003	8b 45 08	 mov	 eax, DWORD PTR __Pnode$[ebp]
  00006	83 c0 08	 add	 eax, 8

; 633  : 		}

  00009	5d		 pop	 ebp
  0000a	c3		 ret	 0
?_Right@?$_Tree_val@V?$_Tmap_traits@HV?$vector@VioHashString@@V?$allocator@VioHashString@@@std@@@std@@U?$less@H@2@V?$allocator@U?$pair@$$CBHV?$vector@VioHashString@@V?$allocator@VioHashString@@@std@@@std@@@std@@@2@$0A@@std@@@std@@SAAAPAU_Node@?$_Tree_nod@V?$_Tmap_traits@HV?$vector@VioHashString@@V?$allocator@VioHashString@@@std@@@std@@U?$less@H@2@V?$allocator@U?$pair@$$CBHV?$vector@VioHashString@@V?$allocator@VioHashString@@@std@@@std@@@std@@@2@$0A@@std@@@2@PAU342@@Z ENDP ; std::_Tree_val<std::_Tmap_traits<int,std::vector<ioHashString,std::allocator<ioHashString> >,std::less<int>,std::allocator<std::pair<int const ,std::vector<ioHashString,std::allocator<ioHashString> > > >,0> >::_Right
_TEXT	ENDS
PUBLIC	?_Max@?$_Tree_val@V?$_Tmap_traits@HV?$vector@VioHashString@@V?$allocator@VioHashString@@@std@@@std@@U?$less@H@2@V?$allocator@U?$pair@$$CBHV?$vector@VioHashString@@V?$allocator@VioHashString@@@std@@@std@@@std@@@2@$0A@@std@@@std@@SAPAU_Node@?$_Tree_nod@V?$_Tmap_traits@HV?$vector@VioHashString@@V?$allocator@VioHashString@@@std@@@std@@U?$less@H@2@V?$allocator@U?$pair@$$CBHV?$vector@VioHashString@@V?$allocator@VioHashString@@@std@@@std@@@std@@@2@$0A@@std@@@2@PAU342@@Z ; std::_Tree_val<std::_Tmap_traits<int,std::vector<ioHashString,std::allocator<ioHashString> >,std::less<int>,std::allocator<std::pair<int const ,std::vector<ioHashString,std::allocator<ioHashString> > > >,0> >::_Max
; Function compile flags: /Ogsp
;	COMDAT ?_Max@?$_Tree_val@V?$_Tmap_traits@HV?$vector@VioHashString@@V?$allocator@VioHashString@@@std@@@std@@U?$less@H@2@V?$allocator@U?$pair@$$CBHV?$vector@VioHashString@@V?$allocator@VioHashString@@@std@@@std@@@std@@@2@$0A@@std@@@std@@SAPAU_Node@?$_Tree_nod@V?$_Tmap_traits@HV?$vector@VioHashString@@V?$allocator@VioHashString@@@std@@@std@@U?$less@H@2@V?$allocator@U?$pair@$$CBHV?$vector@VioHashString@@V?$allocator@VioHashString@@@std@@@std@@@std@@@2@$0A@@std@@@2@PAU342@@Z
_TEXT	SEGMENT
__Pnode$ = 8						; size = 4
?_Max@?$_Tree_val@V?$_Tmap_traits@HV?$vector@VioHashString@@V?$allocator@VioHashString@@@std@@@std@@U?$less@H@2@V?$allocator@U?$pair@$$CBHV?$vector@VioHashString@@V?$allocator@VioHashString@@@std@@@std@@@std@@@2@$0A@@std@@@std@@SAPAU_Node@?$_Tree_nod@V?$_Tmap_traits@HV?$vector@VioHashString@@V?$allocator@VioHashString@@@std@@@std@@U?$less@H@2@V?$allocator@U?$pair@$$CBHV?$vector@VioHashString@@V?$allocator@VioHashString@@@std@@@std@@@std@@@2@$0A@@std@@@2@PAU342@@Z PROC ; std::_Tree_val<std::_Tmap_traits<int,std::vector<ioHashString,std::allocator<ioHashString> >,std::less<int>,std::allocator<std::pair<int const ,std::vector<ioHashString,std::allocator<ioHashString> > > >,0> >::_Max, COMDAT

; 641  : 		{	// return rightmost node in subtree at _Pnode

  00000	55		 push	 ebp
  00001	8b ec		 mov	 ebp, esp

; 642  : 		while (!_Isnil(_Right(_Pnode)))

  00003	8b 45 08	 mov	 eax, DWORD PTR __Pnode$[ebp]
  00006	eb 02		 jmp	 SHORT $LN14@Max
$LL2@Max:

; 643  : 			_Pnode = _Right(_Pnode);

  00008	8b c1		 mov	 eax, ecx
$LN14@Max:

; 642  : 		while (!_Isnil(_Right(_Pnode)))

  0000a	8b 48 08	 mov	 ecx, DWORD PTR [eax+8]
  0000d	80 79 21 00	 cmp	 BYTE PTR [ecx+33], 0
  00011	74 f5		 je	 SHORT $LL2@Max

; 644  : 		return (_Pnode);
; 645  : 		}

  00013	5d		 pop	 ebp
  00014	c3		 ret	 0
?_Max@?$_Tree_val@V?$_Tmap_traits@HV?$vector@VioHashString@@V?$allocator@VioHashString@@@std@@@std@@U?$less@H@2@V?$allocator@U?$pair@$$CBHV?$vector@VioHashString@@V?$allocator@VioHashString@@@std@@@std@@@std@@@2@$0A@@std@@@std@@SAPAU_Node@?$_Tree_nod@V?$_Tmap_traits@HV?$vector@VioHashString@@V?$allocator@VioHashString@@@std@@@std@@U?$less@H@2@V?$allocator@U?$pair@$$CBHV?$vector@VioHashString@@V?$allocator@VioHashString@@@std@@@std@@@std@@@2@$0A@@std@@@2@PAU342@@Z ENDP ; std::_Tree_val<std::_Tmap_traits<int,std::vector<ioHashString,std::allocator<ioHashString> >,std::less<int>,std::allocator<std::pair<int const ,std::vector<ioHashString,std::allocator<ioHashString> > > >,0> >::_Max
_TEXT	ENDS
PUBLIC	?_Min@?$_Tree_val@V?$_Tmap_traits@HV?$vector@VioHashString@@V?$allocator@VioHashString@@@std@@@std@@U?$less@H@2@V?$allocator@U?$pair@$$CBHV?$vector@VioHashString@@V?$allocator@VioHashString@@@std@@@std@@@std@@@2@$0A@@std@@@std@@SAPAU_Node@?$_Tree_nod@V?$_Tmap_traits@HV?$vector@VioHashString@@V?$allocator@VioHashString@@@std@@@std@@U?$less@H@2@V?$allocator@U?$pair@$$CBHV?$vector@VioHashString@@V?$allocator@VioHashString@@@std@@@std@@@std@@@2@$0A@@std@@@2@PAU342@@Z ; std::_Tree_val<std::_Tmap_traits<int,std::vector<ioHashString,std::allocator<ioHashString> >,std::less<int>,std::allocator<std::pair<int const ,std::vector<ioHashString,std::allocator<ioHashString> > > >,0> >::_Min
; Function compile flags: /Ogsp
;	COMDAT ?_Min@?$_Tree_val@V?$_Tmap_traits@HV?$vector@VioHashString@@V?$allocator@VioHashString@@@std@@@std@@U?$less@H@2@V?$allocator@U?$pair@$$CBHV?$vector@VioHashString@@V?$allocator@VioHashString@@@std@@@std@@@std@@@2@$0A@@std@@@std@@SAPAU_Node@?$_Tree_nod@V?$_Tmap_traits@HV?$vector@VioHashString@@V?$allocator@VioHashString@@@std@@@std@@U?$less@H@2@V?$allocator@U?$pair@$$CBHV?$vector@VioHashString@@V?$allocator@VioHashString@@@std@@@std@@@std@@@2@$0A@@std@@@2@PAU342@@Z
_TEXT	SEGMENT
__Pnode$ = 8						; size = 4
?_Min@?$_Tree_val@V?$_Tmap_traits@HV?$vector@VioHashString@@V?$allocator@VioHashString@@@std@@@std@@U?$less@H@2@V?$allocator@U?$pair@$$CBHV?$vector@VioHashString@@V?$allocator@VioHashString@@@std@@@std@@@std@@@2@$0A@@std@@@std@@SAPAU_Node@?$_Tree_nod@V?$_Tmap_traits@HV?$vector@VioHashString@@V?$allocator@VioHashString@@@std@@@std@@U?$less@H@2@V?$allocator@U?$pair@$$CBHV?$vector@VioHashString@@V?$allocator@VioHashString@@@std@@@std@@@std@@@2@$0A@@std@@@2@PAU342@@Z PROC ; std::_Tree_val<std::_Tmap_traits<int,std::vector<ioHashString,std::allocator<ioHashString> >,std::less<int>,std::allocator<std::pair<int const ,std::vector<ioHashString,std::allocator<ioHashString> > > >,0> >::_Min, COMDAT

; 648  : 		{	// return leftmost node in subtree at _Pnode

  00000	55		 push	 ebp
  00001	8b ec		 mov	 ebp, esp

; 649  : 		while (!_Isnil(_Left(_Pnode)))

  00003	8b 45 08	 mov	 eax, DWORD PTR __Pnode$[ebp]
  00006	eb 02		 jmp	 SHORT $LN14@Min
$LL2@Min:

; 650  : 			_Pnode = _Left(_Pnode);

  00008	8b c1		 mov	 eax, ecx
$LN14@Min:

; 649  : 		while (!_Isnil(_Left(_Pnode)))

  0000a	8b 08		 mov	 ecx, DWORD PTR [eax]
  0000c	80 79 21 00	 cmp	 BYTE PTR [ecx+33], 0
  00010	74 f6		 je	 SHORT $LL2@Min

; 651  : 		return (_Pnode);
; 652  : 		}

  00012	5d		 pop	 ebp
  00013	c3		 ret	 0
?_Min@?$_Tree_val@V?$_Tmap_traits@HV?$vector@VioHashString@@V?$allocator@VioHashString@@@std@@@std@@U?$less@H@2@V?$allocator@U?$pair@$$CBHV?$vector@VioHashString@@V?$allocator@VioHashString@@@std@@@std@@@std@@@2@$0A@@std@@@std@@SAPAU_Node@?$_Tree_nod@V?$_Tmap_traits@HV?$vector@VioHashString@@V?$allocator@VioHashString@@@std@@@std@@U?$less@H@2@V?$allocator@U?$pair@$$CBHV?$vector@VioHashString@@V?$allocator@VioHashString@@@std@@@std@@@std@@@2@$0A@@std@@@2@PAU342@@Z ENDP ; std::_Tree_val<std::_Tmap_traits<int,std::vector<ioHashString,std::allocator<ioHashString> >,std::less<int>,std::allocator<std::pair<int const ,std::vector<ioHashString,std::allocator<ioHashString> > > >,0> >::_Min
_TEXT	ENDS
PUBLIC	??0?$_Tree_unchecked_const_iterator@V?$_Tree_val@V?$_Tmap_traits@HV?$vector@VioHashString@@V?$allocator@VioHashString@@@std@@@std@@U?$less@H@2@V?$allocator@U?$pair@$$CBHV?$vector@VioHashString@@V?$allocator@VioHashString@@@std@@@std@@@std@@@2@$0A@@std@@@std@@U_Iterator_base0@2@@std@@QAE@PAU_Node@?$_Tree_nod@V?$_Tmap_traits@HV?$vector@VioHashString@@V?$allocator@VioHashString@@@std@@@std@@U?$less@H@2@V?$allocator@U?$pair@$$CBHV?$vector@VioHashString@@V?$allocator@VioHashString@@@std@@@std@@@std@@@2@$0A@@std@@@1@PBV?$_Tree_val@V?$_Tmap_traits@HV?$vector@VioHashString@@V?$allocator@VioHashString@@@std@@@std@@U?$less@H@2@V?$allocator@U?$pair@$$CBHV?$vector@VioHashString@@V?$allocator@VioHashString@@@std@@@std@@@std@@@2@$0A@@std@@@1@@Z ; std::_Tree_unchecked_const_iterator<std::_Tree_val<std::_Tmap_traits<int,std::vector<ioHashString,std::allocator<ioHashString> >,std::less<int>,std::allocator<std::pair<int const ,std::vector<ioHashString,std::allocator<ioHashString> > > >,0> >,std::_Iterator_base0>::_Tree_unchecked_const_iterator<std::_Tree_val<std::_Tmap_traits<int,std::vector<ioHashString,std::allocator<ioHashString> >,std::less<int>,std::allocator<std::pair<int const ,std::vector<ioHashString,std::allocator<ioHashString> > > >,0> >,std::_Iterator_base0>
; Function compile flags: /Ogsp
;	COMDAT ??0?$_Tree_unchecked_const_iterator@V?$_Tree_val@V?$_Tmap_traits@HV?$vector@VioHashString@@V?$allocator@VioHashString@@@std@@@std@@U?$less@H@2@V?$allocator@U?$pair@$$CBHV?$vector@VioHashString@@V?$allocator@VioHashString@@@std@@@std@@@std@@@2@$0A@@std@@@std@@U_Iterator_base0@2@@std@@QAE@PAU_Node@?$_Tree_nod@V?$_Tmap_traits@HV?$vector@VioHashString@@V?$allocator@VioHashString@@@std@@@std@@U?$less@H@2@V?$allocator@U?$pair@$$CBHV?$vector@VioHashString@@V?$allocator@VioHashString@@@std@@@std@@@std@@@2@$0A@@std@@@1@PBV?$_Tree_val@V?$_Tmap_traits@HV?$vector@VioHashString@@V?$allocator@VioHashString@@@std@@@std@@U?$less@H@2@V?$allocator@U?$pair@$$CBHV?$vector@VioHashString@@V?$allocator@VioHashString@@@std@@@std@@@std@@@2@$0A@@std@@@1@@Z
_TEXT	SEGMENT
__Pnode$ = 8						; size = 4
__Plist$ = 12						; size = 4
??0?$_Tree_unchecked_const_iterator@V?$_Tree_val@V?$_Tmap_traits@HV?$vector@VioHashString@@V?$allocator@VioHashString@@@std@@@std@@U?$less@H@2@V?$allocator@U?$pair@$$CBHV?$vector@VioHashString@@V?$allocator@VioHashString@@@std@@@std@@@std@@@2@$0A@@std@@@std@@U_Iterator_base0@2@@std@@QAE@PAU_Node@?$_Tree_nod@V?$_Tmap_traits@HV?$vector@VioHashString@@V?$allocator@VioHashString@@@std@@@std@@U?$less@H@2@V?$allocator@U?$pair@$$CBHV?$vector@VioHashString@@V?$allocator@VioHashString@@@std@@@std@@@std@@@2@$0A@@std@@@1@PBV?$_Tree_val@V?$_Tmap_traits@HV?$vector@VioHashString@@V?$allocator@VioHashString@@@std@@@std@@U?$less@H@2@V?$allocator@U?$pair@$$CBHV?$vector@VioHashString@@V?$allocator@VioHashString@@@std@@@std@@@std@@@2@$0A@@std@@@1@@Z PROC ; std::_Tree_unchecked_const_iterator<std::_Tree_val<std::_Tmap_traits<int,std::vector<ioHashString,std::allocator<ioHashString> >,std::less<int>,std::allocator<std::pair<int const ,std::vector<ioHashString,std::allocator<ioHashString> > > >,0> >,std::_Iterator_base0>::_Tree_unchecked_const_iterator<std::_Tree_val<std::_Tmap_traits<int,std::vector<ioHashString,std::allocator<ioHashString> >,std::less<int>,std::allocator<std::pair<int const ,std::vector<ioHashString,std::allocator<ioHashString> > > >,0> >,std::_Iterator_base0>, COMDAT
; _this$ = ecx

; 43   : 		{	// construct with node pointer _Pnode

  00000	55		 push	 ebp
  00001	8b ec		 mov	 ebp, esp
  00003	8b c1		 mov	 eax, ecx
  00005	8b 4d 08	 mov	 ecx, DWORD PTR __Pnode$[ebp]
  00008	89 08		 mov	 DWORD PTR [eax], ecx

; 44   : 		this->_Adopt(_Plist);
; 45   : 		}

  0000a	5d		 pop	 ebp
  0000b	c2 08 00	 ret	 8
??0?$_Tree_unchecked_const_iterator@V?$_Tree_val@V?$_Tmap_traits@HV?$vector@VioHashString@@V?$allocator@VioHashString@@@std@@@std@@U?$less@H@2@V?$allocator@U?$pair@$$CBHV?$vector@VioHashString@@V?$allocator@VioHashString@@@std@@@std@@@std@@@2@$0A@@std@@@std@@U_Iterator_base0@2@@std@@QAE@PAU_Node@?$_Tree_nod@V?$_Tmap_traits@HV?$vector@VioHashString@@V?$allocator@VioHashString@@@std@@@std@@U?$less@H@2@V?$allocator@U?$pair@$$CBHV?$vector@VioHashString@@V?$allocator@VioHashString@@@std@@@std@@@std@@@2@$0A@@std@@@1@PBV?$_Tree_val@V?$_Tmap_traits@HV?$vector@VioHashString@@V?$allocator@VioHashString@@@std@@@std@@U?$less@H@2@V?$allocator@U?$pair@$$CBHV?$vector@VioHashString@@V?$allocator@VioHashString@@@std@@@std@@@std@@@2@$0A@@std@@@1@@Z ENDP ; std::_Tree_unchecked_const_iterator<std::_Tree_val<std::_Tmap_traits<int,std::vector<ioHashString,std::allocator<ioHashString> >,std::less<int>,std::allocator<std::pair<int const ,std::vector<ioHashString,std::allocator<ioHashString> > > >,0> >,std::_Iterator_base0>::_Tree_unchecked_const_iterator<std::_Tree_val<std::_Tmap_traits<int,std::vector<ioHashString,std::allocator<ioHashString> >,std::less<int>,std::allocator<std::pair<int const ,std::vector<ioHashString,std::allocator<ioHashString> > > >,0> >,std::_Iterator_base0>
_TEXT	ENDS
PUBLIC	?_Rmost@?$_Tree@V?$_Tmap_traits@HV?$vector@VioHashString@@V?$allocator@VioHashString@@@std@@@std@@U?$less@H@2@V?$allocator@U?$pair@$$CBHV?$vector@VioHashString@@V?$allocator@VioHashString@@@std@@@std@@@std@@@2@$0A@@std@@@std@@IBEAAPAU_Node@?$_Tree_nod@V?$_Tmap_traits@HV?$vector@VioHashString@@V?$allocator@VioHashString@@@std@@@std@@U?$less@H@2@V?$allocator@U?$pair@$$CBHV?$vector@VioHashString@@V?$allocator@VioHashString@@@std@@@std@@@std@@@2@$0A@@std@@@2@XZ ; std::_Tree<std::_Tmap_traits<int,std::vector<ioHashString,std::allocator<ioHashString> >,std::less<int>,std::allocator<std::pair<int const ,std::vector<ioHashString,std::allocator<ioHashString> > > >,0> >::_Rmost
; Function compile flags: /Ogsp
;	COMDAT ?_Rmost@?$_Tree@V?$_Tmap_traits@HV?$vector@VioHashString@@V?$allocator@VioHashString@@@std@@@std@@U?$less@H@2@V?$allocator@U?$pair@$$CBHV?$vector@VioHashString@@V?$allocator@VioHashString@@@std@@@std@@@std@@@2@$0A@@std@@@std@@IBEAAPAU_Node@?$_Tree_nod@V?$_Tmap_traits@HV?$vector@VioHashString@@V?$allocator@VioHashString@@@std@@@std@@U?$less@H@2@V?$allocator@U?$pair@$$CBHV?$vector@VioHashString@@V?$allocator@VioHashString@@@std@@@std@@@std@@@2@$0A@@std@@@2@XZ
_TEXT	SEGMENT
?_Rmost@?$_Tree@V?$_Tmap_traits@HV?$vector@VioHashString@@V?$allocator@VioHashString@@@std@@@std@@U?$less@H@2@V?$allocator@U?$pair@$$CBHV?$vector@VioHashString@@V?$allocator@VioHashString@@@std@@@std@@@std@@@2@$0A@@std@@@std@@IBEAAPAU_Node@?$_Tree_nod@V?$_Tmap_traits@HV?$vector@VioHashString@@V?$allocator@VioHashString@@@std@@@std@@U?$less@H@2@V?$allocator@U?$pair@$$CBHV?$vector@VioHashString@@V?$allocator@VioHashString@@@std@@@std@@@std@@@2@$0A@@std@@@2@XZ PROC ; std::_Tree<std::_Tmap_traits<int,std::vector<ioHashString,std::allocator<ioHashString> >,std::less<int>,std::allocator<std::pair<int const ,std::vector<ioHashString,std::allocator<ioHashString> > > >,0> >::_Rmost, COMDAT
; _this$ = ecx

; 1784 : 		return (this->_Right(this->_Myhead));

  00000	8b 41 04	 mov	 eax, DWORD PTR [ecx+4]
  00003	83 c0 08	 add	 eax, 8

; 1785 : 		}

  00006	c3		 ret	 0
?_Rmost@?$_Tree@V?$_Tmap_traits@HV?$vector@VioHashString@@V?$allocator@VioHashString@@@std@@@std@@U?$less@H@2@V?$allocator@U?$pair@$$CBHV?$vector@VioHashString@@V?$allocator@VioHashString@@@std@@@std@@@std@@@2@$0A@@std@@@std@@IBEAAPAU_Node@?$_Tree_nod@V?$_Tmap_traits@HV?$vector@VioHashString@@V?$allocator@VioHashString@@@std@@@std@@U?$less@H@2@V?$allocator@U?$pair@$$CBHV?$vector@VioHashString@@V?$allocator@VioHashString@@@std@@@std@@@std@@@2@$0A@@std@@@2@XZ ENDP ; std::_Tree<std::_Tmap_traits<int,std::vector<ioHashString,std::allocator<ioHashString> >,std::less<int>,std::allocator<std::pair<int const ,std::vector<ioHashString,std::allocator<ioHashString> > > >,0> >::_Rmost
_TEXT	ENDS
PUBLIC	??0?$_Tmap_traits@HV?$vector@VioHashString@@V?$allocator@VioHashString@@@std@@@std@@U?$less@H@2@V?$allocator@U?$pair@$$CBHV?$vector@VioHashString@@V?$allocator@VioHashString@@@std@@@std@@@std@@@2@$0A@@std@@QAE@U?$less@H@1@@Z ; std::_Tmap_traits<int,std::vector<ioHashString,std::allocator<ioHashString> >,std::less<int>,std::allocator<std::pair<int const ,std::vector<ioHashString,std::allocator<ioHashString> > > >,0>::_Tmap_traits<int,std::vector<ioHashString,std::allocator<ioHashString> >,std::less<int>,std::allocator<std::pair<int const ,std::vector<ioHashString,std::allocator<ioHashString> > > >,0>
; Function compile flags: /Ogsp
; File c:\program files (x86)\microsoft visual studio 10.0\vc\include\map
;	COMDAT ??0?$_Tmap_traits@HV?$vector@VioHashString@@V?$allocator@VioHashString@@@std@@@std@@U?$less@H@2@V?$allocator@U?$pair@$$CBHV?$vector@VioHashString@@V?$allocator@VioHashString@@@std@@@std@@@std@@@2@$0A@@std@@QAE@U?$less@H@1@@Z
_TEXT	SEGMENT
__Parg$ = 8						; size = 1
??0?$_Tmap_traits@HV?$vector@VioHashString@@V?$allocator@VioHashString@@@std@@@std@@U?$less@H@2@V?$allocator@U?$pair@$$CBHV?$vector@VioHashString@@V?$allocator@VioHashString@@@std@@@std@@@std@@@2@$0A@@std@@QAE@U?$less@H@1@@Z PROC ; std::_Tmap_traits<int,std::vector<ioHashString,std::allocator<ioHashString> >,std::less<int>,std::allocator<std::pair<int const ,std::vector<ioHashString,std::allocator<ioHashString> > > >,0>::_Tmap_traits<int,std::vector<ioHashString,std::allocator<ioHashString> >,std::less<int>,std::allocator<std::pair<int const ,std::vector<ioHashString,std::allocator<ioHashString> > > >,0>, COMDAT
; _this$ = ecx

; 40   : 		{	// construct with specified comparator

  00000	8b c1		 mov	 eax, ecx

; 41   : 		}

  00002	c2 04 00	 ret	 4
??0?$_Tmap_traits@HV?$vector@VioHashString@@V?$allocator@VioHashString@@@std@@@std@@U?$less@H@2@V?$allocator@U?$pair@$$CBHV?$vector@VioHashString@@V?$allocator@VioHashString@@@std@@@std@@@std@@@2@$0A@@std@@QAE@U?$less@H@1@@Z ENDP ; std::_Tmap_traits<int,std::vector<ioHashString,std::allocator<ioHashString> >,std::less<int>,std::allocator<std::pair<int const ,std::vector<ioHashString,std::allocator<ioHashString> > > >,0>::_Tmap_traits<int,std::vector<ioHashString,std::allocator<ioHashString> >,std::less<int>,std::allocator<std::pair<int const ,std::vector<ioHashString,std::allocator<ioHashString> > > >,0>
_TEXT	ENDS
PUBLIC	??$addressof@VioHashString@@@std@@YAPAVioHashString@@AAV1@@Z ; std::addressof<ioHashString>
; Function compile flags: /Ogsp
; File c:\program files (x86)\microsoft visual studio 10.0\vc\include\xmemory
;	COMDAT ??$addressof@VioHashString@@@std@@YAPAVioHashString@@AAV1@@Z
_TEXT	SEGMENT
__Val$ = 8						; size = 4
??$addressof@VioHashString@@@std@@YAPAVioHashString@@AAV1@@Z PROC ; std::addressof<ioHashString>, COMDAT

; 110  : 	{	// return address of _Val

  00000	55		 push	 ebp
  00001	8b ec		 mov	 ebp, esp

; 111  : 	return ((_Ty *) &(char&)_Val);

  00003	8b 45 08	 mov	 eax, DWORD PTR __Val$[ebp]

; 112  : 	}

  00006	5d		 pop	 ebp
  00007	c3		 ret	 0
??$addressof@VioHashString@@@std@@YAPAVioHashString@@AAV1@@Z ENDP ; std::addressof<ioHashString>
_TEXT	ENDS
PUBLIC	??$forward@VioHashString@@@std@@YA$$QAVioHashString@@AAV1@@Z ; std::forward<ioHashString>
; Function compile flags: /Ogsp
; File c:\program files (x86)\microsoft visual studio 10.0\vc\include\utility
;	COMDAT ??$forward@VioHashString@@@std@@YA$$QAVioHashString@@AAV1@@Z
_TEXT	SEGMENT
__Arg$ = 8						; size = 4
??$forward@VioHashString@@@std@@YA$$QAVioHashString@@AAV1@@Z PROC ; std::forward<ioHashString>, COMDAT

; 78   : 	{	// forward _Arg, given explicitly specified type parameter

  00000	55		 push	 ebp
  00001	8b ec		 mov	 ebp, esp

; 79   : 	return ((_Ty&&)_Arg);

  00003	8b 45 08	 mov	 eax, DWORD PTR __Arg$[ebp]

; 80   : 	}

  00006	5d		 pop	 ebp
  00007	c3		 ret	 0
??$forward@VioHashString@@@std@@YA$$QAVioHashString@@AAV1@@Z ENDP ; std::forward<ioHashString>
_TEXT	ENDS
PUBLIC	??$_Kfn@$$CBHV?$vector@VioHashString@@V?$allocator@VioHashString@@@std@@@std@@@?$_Tmap_traits@HV?$vector@VioHashString@@V?$allocator@VioHashString@@@std@@@std@@U?$less@H@2@V?$allocator@U?$pair@$$CBHV?$vector@VioHashString@@V?$allocator@VioHashString@@@std@@@std@@@std@@@2@$0A@@std@@SAABHABU?$pair@$$CBHV?$vector@VioHashString@@V?$allocator@VioHashString@@@std@@@std@@@1@@Z ; std::_Tmap_traits<int,std::vector<ioHashString,std::allocator<ioHashString> >,std::less<int>,std::allocator<std::pair<int const ,std::vector<ioHashString,std::allocator<ioHashString> > > >,0>::_Kfn<int const ,std::vector<ioHashString,std::allocator<ioHashString> > >
; Function compile flags: /Ogsp
; File c:\program files (x86)\microsoft visual studio 10.0\vc\include\map
;	COMDAT ??$_Kfn@$$CBHV?$vector@VioHashString@@V?$allocator@VioHashString@@@std@@@std@@@?$_Tmap_traits@HV?$vector@VioHashString@@V?$allocator@VioHashString@@@std@@@std@@U?$less@H@2@V?$allocator@U?$pair@$$CBHV?$vector@VioHashString@@V?$allocator@VioHashString@@@std@@@std@@@std@@@2@$0A@@std@@SAABHABU?$pair@$$CBHV?$vector@VioHashString@@V?$allocator@VioHashString@@@std@@@std@@@1@@Z
_TEXT	SEGMENT
__Val$ = 8						; size = 4
??$_Kfn@$$CBHV?$vector@VioHashString@@V?$allocator@VioHashString@@@std@@@std@@@?$_Tmap_traits@HV?$vector@VioHashString@@V?$allocator@VioHashString@@@std@@@std@@U?$less@H@2@V?$allocator@U?$pair@$$CBHV?$vector@VioHashString@@V?$allocator@VioHashString@@@std@@@std@@@std@@@2@$0A@@std@@SAABHABU?$pair@$$CBHV?$vector@VioHashString@@V?$allocator@VioHashString@@@std@@@std@@@1@@Z PROC ; std::_Tmap_traits<int,std::vector<ioHashString,std::allocator<ioHashString> >,std::less<int>,std::allocator<std::pair<int const ,std::vector<ioHashString,std::allocator<ioHashString> > > >,0>::_Kfn<int const ,std::vector<ioHashString,std::allocator<ioHashString> > >, COMDAT

; 66   : 		static const _Kty& _Kfn(const _STD pair<_Ty1, _Ty2>& _Val)

  00000	55		 push	 ebp
  00001	8b ec		 mov	 ebp, esp

; 67   : 		{	// extract key from element value
; 68   : 		return (_Val.first);

  00003	8b 45 08	 mov	 eax, DWORD PTR __Val$[ebp]

; 69   : 		}

  00006	5d		 pop	 ebp
  00007	c3		 ret	 0
??$_Kfn@$$CBHV?$vector@VioHashString@@V?$allocator@VioHashString@@@std@@@std@@@?$_Tmap_traits@HV?$vector@VioHashString@@V?$allocator@VioHashString@@@std@@@std@@U?$less@H@2@V?$allocator@U?$pair@$$CBHV?$vector@VioHashString@@V?$allocator@VioHashString@@@std@@@std@@@std@@@2@$0A@@std@@SAABHABU?$pair@$$CBHV?$vector@VioHashString@@V?$allocator@VioHashString@@@std@@@std@@@1@@Z ENDP ; std::_Tmap_traits<int,std::vector<ioHashString,std::allocator<ioHashString> >,std::less<int>,std::allocator<std::pair<int const ,std::vector<ioHashString,std::allocator<ioHashString> > > >,0>::_Kfn<int const ,std::vector<ioHashString,std::allocator<ioHashString> > >
_TEXT	ENDS
PUBLIC	??$move@AAV?$vector@VioHashString@@V?$allocator@VioHashString@@@std@@@std@@@std@@YA$$QAV?$vector@VioHashString@@V?$allocator@VioHashString@@@std@@@0@AAV10@@Z ; std::move<std::vector<ioHashString,std::allocator<ioHashString> > &>
; Function compile flags: /Ogsp
; File c:\program files (x86)\microsoft visual studio 10.0\vc\include\utility
;	COMDAT ??$move@AAV?$vector@VioHashString@@V?$allocator@VioHashString@@@std@@@std@@@std@@YA$$QAV?$vector@VioHashString@@V?$allocator@VioHashString@@@std@@@0@AAV10@@Z
_TEXT	SEGMENT
__Arg$ = 8						; size = 4
??$move@AAV?$vector@VioHashString@@V?$allocator@VioHashString@@@std@@@std@@@std@@YA$$QAV?$vector@VioHashString@@V?$allocator@VioHashString@@@std@@@0@AAV10@@Z PROC ; std::move<std::vector<ioHashString,std::allocator<ioHashString> > &>, COMDAT

; 86   : 	{	// forward _Arg as movable

  00000	55		 push	 ebp
  00001	8b ec		 mov	 ebp, esp

; 87   : 	return ((typename tr1::_Remove_reference<_Ty>::_Type&&)_Arg);

  00003	8b 45 08	 mov	 eax, DWORD PTR __Arg$[ebp]

; 88   : 	}

  00006	5d		 pop	 ebp
  00007	c3		 ret	 0
??$move@AAV?$vector@VioHashString@@V?$allocator@VioHashString@@@std@@@std@@@std@@YA$$QAV?$vector@VioHashString@@V?$allocator@VioHashString@@@std@@@0@AAV10@@Z ENDP ; std::move<std::vector<ioHashString,std::allocator<ioHashString> > &>
_TEXT	ENDS
PUBLIC	??$forward@V?$vector@VioHashString@@V?$allocator@VioHashString@@@std@@@std@@@std@@YA$$QAV?$vector@VioHashString@@V?$allocator@VioHashString@@@std@@@0@AAV10@@Z ; std::forward<std::vector<ioHashString,std::allocator<ioHashString> > >
; Function compile flags: /Ogsp
;	COMDAT ??$forward@V?$vector@VioHashString@@V?$allocator@VioHashString@@@std@@@std@@@std@@YA$$QAV?$vector@VioHashString@@V?$allocator@VioHashString@@@std@@@0@AAV10@@Z
_TEXT	SEGMENT
__Arg$ = 8						; size = 4
??$forward@V?$vector@VioHashString@@V?$allocator@VioHashString@@@std@@@std@@@std@@YA$$QAV?$vector@VioHashString@@V?$allocator@VioHashString@@@std@@@0@AAV10@@Z PROC ; std::forward<std::vector<ioHashString,std::allocator<ioHashString> > >, COMDAT

; 78   : 	{	// forward _Arg, given explicitly specified type parameter

  00000	55		 push	 ebp
  00001	8b ec		 mov	 ebp, esp

; 79   : 	return ((_Ty&&)_Arg);

  00003	8b 45 08	 mov	 eax, DWORD PTR __Arg$[ebp]

; 80   : 	}

  00006	5d		 pop	 ebp
  00007	c3		 ret	 0
??$forward@V?$vector@VioHashString@@V?$allocator@VioHashString@@@std@@@std@@@std@@YA$$QAV?$vector@VioHashString@@V?$allocator@VioHashString@@@std@@@0@AAV10@@Z ENDP ; std::forward<std::vector<ioHashString,std::allocator<ioHashString> > >
_TEXT	ENDS
PUBLIC	??$addressof@U?$pair@$$CBHV?$vector@VioHashString@@V?$allocator@VioHashString@@@std@@@std@@@std@@@std@@YAPAU?$pair@$$CBHV?$vector@VioHashString@@V?$allocator@VioHashString@@@std@@@std@@@0@AAU10@@Z ; std::addressof<std::pair<int const ,std::vector<ioHashString,std::allocator<ioHashString> > > >
; Function compile flags: /Ogsp
; File c:\program files (x86)\microsoft visual studio 10.0\vc\include\xmemory
;	COMDAT ??$addressof@U?$pair@$$CBHV?$vector@VioHashString@@V?$allocator@VioHashString@@@std@@@std@@@std@@@std@@YAPAU?$pair@$$CBHV?$vector@VioHashString@@V?$allocator@VioHashString@@@std@@@std@@@0@AAU10@@Z
_TEXT	SEGMENT
__Val$ = 8						; size = 4
??$addressof@U?$pair@$$CBHV?$vector@VioHashString@@V?$allocator@VioHashString@@@std@@@std@@@std@@@std@@YAPAU?$pair@$$CBHV?$vector@VioHashString@@V?$allocator@VioHashString@@@std@@@std@@@0@AAU10@@Z PROC ; std::addressof<std::pair<int const ,std::vector<ioHashString,std::allocator<ioHashString> > > >, COMDAT

; 110  : 	{	// return address of _Val

  00000	55		 push	 ebp
  00001	8b ec		 mov	 ebp, esp

; 111  : 	return ((_Ty *) &(char&)_Val);

  00003	8b 45 08	 mov	 eax, DWORD PTR __Val$[ebp]

; 112  : 	}

  00006	5d		 pop	 ebp
  00007	c3		 ret	 0
??$addressof@U?$pair@$$CBHV?$vector@VioHashString@@V?$allocator@VioHashString@@@std@@@std@@@std@@@std@@YAPAU?$pair@$$CBHV?$vector@VioHashString@@V?$allocator@VioHashString@@@std@@@std@@@0@AAU10@@Z ENDP ; std::addressof<std::pair<int const ,std::vector<ioHashString,std::allocator<ioHashString> > > >
_TEXT	ENDS
PUBLIC	??$?0U?$pair@$$CBHV?$vector@VioHashString@@V?$allocator@VioHashString@@@std@@@std@@@std@@@?$allocator@U_Node@?$_Tree_nod@V?$_Tmap_traits@HV?$vector@VioHashString@@V?$allocator@VioHashString@@@std@@@std@@U?$less@H@2@V?$allocator@U?$pair@$$CBHV?$vector@VioHashString@@V?$allocator@VioHashString@@@std@@@std@@@std@@@2@$0A@@std@@@std@@@std@@QAE@ABV?$allocator@U?$pair@$$CBHV?$vector@VioHashString@@V?$allocator@VioHashString@@@std@@@std@@@std@@@1@@Z ; std::allocator<std::_Tree_nod<std::_Tmap_traits<int,std::vector<ioHashString,std::allocator<ioHashString> >,std::less<int>,std::allocator<std::pair<int const ,std::vector<ioHashString,std::allocator<ioHashString> > > >,0> >::_Node>::allocator<std::_Tree_nod<std::_Tmap_traits<int,std::vector<ioHashString,std::allocator<ioHashString> >,std::less<int>,std::allocator<std::pair<int const ,std::vector<ioHashString,std::allocator<ioHashString> > > >,0> >::_Node><std::pair<int const ,std::vector<ioHashString,std::allocator<ioHashString> > > >
; Function compile flags: /Ogsp
;	COMDAT ??$?0U?$pair@$$CBHV?$vector@VioHashString@@V?$allocator@VioHashString@@@std@@@std@@@std@@@?$allocator@U_Node@?$_Tree_nod@V?$_Tmap_traits@HV?$vector@VioHashString@@V?$allocator@VioHashString@@@std@@@std@@U?$less@H@2@V?$allocator@U?$pair@$$CBHV?$vector@VioHashString@@V?$allocator@VioHashString@@@std@@@std@@@std@@@2@$0A@@std@@@std@@@std@@QAE@ABV?$allocator@U?$pair@$$CBHV?$vector@VioHashString@@V?$allocator@VioHashString@@@std@@@std@@@std@@@1@@Z
_TEXT	SEGMENT
___formal$ = 8						; size = 4
??$?0U?$pair@$$CBHV?$vector@VioHashString@@V?$allocator@VioHashString@@@std@@@std@@@std@@@?$allocator@U_Node@?$_Tree_nod@V?$_Tmap_traits@HV?$vector@VioHashString@@V?$allocator@VioHashString@@@std@@@std@@U?$less@H@2@V?$allocator@U?$pair@$$CBHV?$vector@VioHashString@@V?$allocator@VioHashString@@@std@@@std@@@std@@@2@$0A@@std@@@std@@@std@@QAE@ABV?$allocator@U?$pair@$$CBHV?$vector@VioHashString@@V?$allocator@VioHashString@@@std@@@std@@@std@@@1@@Z PROC ; std::allocator<std::_Tree_nod<std::_Tmap_traits<int,std::vector<ioHashString,std::allocator<ioHashString> >,std::less<int>,std::allocator<std::pair<int const ,std::vector<ioHashString,std::allocator<ioHashString> > > >,0> >::_Node>::allocator<std::_Tree_nod<std::_Tmap_traits<int,std::vector<ioHashString,std::allocator<ioHashString> >,std::less<int>,std::allocator<std::pair<int const ,std::vector<ioHashString,std::allocator<ioHashString> > > >,0> >::_Node><std::pair<int const ,std::vector<ioHashString,std::allocator<ioHashString> > > >, COMDAT
; _this$ = ecx

; 170  : 		_ALLOCATOR(const _ALLOCATOR<_Other>&) _THROW0()

  00000	8b c1		 mov	 eax, ecx

; 171  : 		{	// construct from a related allocator (do nothing)
; 172  : 		}

  00002	c2 04 00	 ret	 4
??$?0U?$pair@$$CBHV?$vector@VioHashString@@V?$allocator@VioHashString@@@std@@@std@@@std@@@?$allocator@U_Node@?$_Tree_nod@V?$_Tmap_traits@HV?$vector@VioHashString@@V?$allocator@VioHashString@@@std@@@std@@U?$less@H@2@V?$allocator@U?$pair@$$CBHV?$vector@VioHashString@@V?$allocator@VioHashString@@@std@@@std@@@std@@@2@$0A@@std@@@std@@@std@@QAE@ABV?$allocator@U?$pair@$$CBHV?$vector@VioHashString@@V?$allocator@VioHashString@@@std@@@std@@@std@@@1@@Z ENDP ; std::allocator<std::_Tree_nod<std::_Tmap_traits<int,std::vector<ioHashString,std::allocator<ioHashString> >,std::less<int>,std::allocator<std::pair<int const ,std::vector<ioHashString,std::allocator<ioHashString> > > >,0> >::_Node>::allocator<std::_Tree_nod<std::_Tmap_traits<int,std::vector<ioHashString,std::allocator<ioHashString> >,std::less<int>,std::allocator<std::pair<int const ,std::vector<ioHashString,std::allocator<ioHashString> > > >,0> >::_Node><std::pair<int const ,std::vector<ioHashString,std::allocator<ioHashString> > > >
_TEXT	ENDS
PUBLIC	__TI2?AVbad_alloc@std@@
PUBLIC	??$_Allocate@U_Node@?$_Tree_nod@V?$_Tmap_traits@HV?$vector@VioHashString@@V?$allocator@VioHashString@@@std@@@std@@U?$less@H@2@V?$allocator@U?$pair@$$CBHV?$vector@VioHashString@@V?$allocator@VioHashString@@@std@@@std@@@std@@@2@$0A@@std@@@std@@@std@@YAPAU_Node@?$_Tree_nod@V?$_Tmap_traits@HV?$vector@VioHashString@@V?$allocator@VioHashString@@@std@@@std@@U?$less@H@2@V?$allocator@U?$pair@$$CBHV?$vector@VioHashString@@V?$allocator@VioHashString@@@std@@@std@@@std@@@2@$0A@@std@@@0@IPAU120@@Z ; std::_Allocate<std::_Tree_nod<std::_Tmap_traits<int,std::vector<ioHashString,std::allocator<ioHashString> >,std::less<int>,std::allocator<std::pair<int const ,std::vector<ioHashString,std::allocator<ioHashString> > > >,0> >::_Node>
PUBLIC	__CTA2?AVbad_alloc@std@@
PUBLIC	__CT??_R0?AVbad_alloc@std@@@8??0bad_alloc@std@@QAE@ABV01@@Z12
PUBLIC	??0bad_alloc@std@@QAE@ABV01@@Z			; std::bad_alloc::bad_alloc
PUBLIC	__CT??_R0?AVexception@std@@@8??0exception@std@@QAE@ABV01@@Z12
EXTRN	__CxxThrowException@8:PROC
EXTRN	??0exception@std@@QAE@ABV01@@Z:PROC		; std::exception::exception
;	COMDAT __CT??_R0?AVexception@std@@@8??0exception@std@@QAE@ABV01@@Z12
; File c:\program files (x86)\microsoft visual studio 10.0\vc\include\exception
xdata$x	SEGMENT
__CT??_R0?AVexception@std@@@8??0exception@std@@QAE@ABV01@@Z12 DD 00H
	DD	FLAT:??_R0?AVexception@std@@@8
	DD	00H
	DD	0ffffffffH
	ORG $+4
	DD	0cH
	DD	FLAT:??0exception@std@@QAE@ABV01@@Z
xdata$x	ENDS
;	COMDAT __CT??_R0?AVbad_alloc@std@@@8??0bad_alloc@std@@QAE@ABV01@@Z12
xdata$x	SEGMENT
__CT??_R0?AVbad_alloc@std@@@8??0bad_alloc@std@@QAE@ABV01@@Z12 DD 00H
	DD	FLAT:??_R0?AVbad_alloc@std@@@8
	DD	00H
	DD	0ffffffffH
	ORG $+4
	DD	0cH
	DD	FLAT:??0bad_alloc@std@@QAE@ABV01@@Z
xdata$x	ENDS
;	COMDAT __CTA2?AVbad_alloc@std@@
xdata$x	SEGMENT
__CTA2?AVbad_alloc@std@@ DD 02H
	DD	FLAT:__CT??_R0?AVbad_alloc@std@@@8??0bad_alloc@std@@QAE@ABV01@@Z12
	DD	FLAT:__CT??_R0?AVexception@std@@@8??0exception@std@@QAE@ABV01@@Z12
xdata$x	ENDS
;	COMDAT __TI2?AVbad_alloc@std@@
xdata$x	SEGMENT
__TI2?AVbad_alloc@std@@ DD 00H
	DD	FLAT:??1bad_alloc@std@@UAE@XZ
	DD	00H
	DD	FLAT:__CTA2?AVbad_alloc@std@@
; Function compile flags: /Ogsp
; File c:\program files (x86)\microsoft visual studio 10.0\vc\include\xmemory
xdata$x	ENDS
;	COMDAT ??$_Allocate@U_Node@?$_Tree_nod@V?$_Tmap_traits@HV?$vector@VioHashString@@V?$allocator@VioHashString@@@std@@@std@@U?$less@H@2@V?$allocator@U?$pair@$$CBHV?$vector@VioHashString@@V?$allocator@VioHashString@@@std@@@std@@@std@@@2@$0A@@std@@@std@@@std@@YAPAU_Node@?$_Tree_nod@V?$_Tmap_traits@HV?$vector@VioHashString@@V?$allocator@VioHashString@@@std@@@std@@U?$less@H@2@V?$allocator@U?$pair@$$CBHV?$vector@VioHashString@@V?$allocator@VioHashString@@@std@@@std@@@std@@@2@$0A@@std@@@0@IPAU120@@Z
_TEXT	SEGMENT
$T511098 = -12						; size = 12
$T511103 = 8						; size = 4
__Count$ = 8						; size = 4
___formal$ = 12						; size = 4
??$_Allocate@U_Node@?$_Tree_nod@V?$_Tmap_traits@HV?$vector@VioHashString@@V?$allocator@VioHashString@@@std@@@std@@U?$less@H@2@V?$allocator@U?$pair@$$CBHV?$vector@VioHashString@@V?$allocator@VioHashString@@@std@@@std@@@std@@@2@$0A@@std@@@std@@@std@@YAPAU_Node@?$_Tree_nod@V?$_Tmap_traits@HV?$vector@VioHashString@@V?$allocator@VioHashString@@@std@@@std@@U?$less@H@2@V?$allocator@U?$pair@$$CBHV?$vector@VioHashString@@V?$allocator@VioHashString@@@std@@@std@@@std@@@2@$0A@@std@@@0@IPAU120@@Z PROC ; std::_Allocate<std::_Tree_nod<std::_Tmap_traits<int,std::vector<ioHashString,std::allocator<ioHashString> >,std::less<int>,std::allocator<std::pair<int const ,std::vector<ioHashString,std::allocator<ioHashString> > > >,0> >::_Node>, COMDAT

; 30   : 	{	// allocate storage for _Count elements of type _Ty

  00000	55		 push	 ebp
  00001	8b ec		 mov	 ebp, esp

; 31   : 	void *_Ptr = 0;
; 32   : 
; 33   : 	if (_Count <= 0)

  00003	8b 4d 08	 mov	 ecx, DWORD PTR __Count$[ebp]
  00006	83 ec 0c	 sub	 esp, 12			; 0000000cH
  00009	33 c0		 xor	 eax, eax
  0000b	85 c9		 test	 ecx, ecx

; 34   : 		_Count = 0;
; 35   : 	else if (((_SIZT)(-1) / sizeof (_Ty) < _Count)

  0000d	74 3c		 je	 SHORT $LN5@Allocate

; 36   : 		|| (_Ptr = ::operator new(_Count * sizeof (_Ty))) == 0)

  0000f	81 f9 c7 71 1c
	07		 cmp	 ecx, 119304647		; 071c71c7H
  00015	77 0e		 ja	 SHORT $LN1@Allocate
  00017	6b c9 24	 imul	 ecx, 36			; 00000024H
  0001a	51		 push	 ecx
  0001b	e8 00 00 00 00	 call	 ??2@YAPAXI@Z		; operator new
  00020	59		 pop	 ecx
  00021	85 c0		 test	 eax, eax

; 38   : 
; 39   : 	return ((_Ty _FARQ *)_Ptr);

  00023	75 26		 jne	 SHORT $LN5@Allocate
$LN1@Allocate:

; 37   : 		_THROW_NCEE(bad_alloc, 0);

  00025	83 65 08 00	 and	 DWORD PTR $T511103[ebp], 0
  00029	8d 45 08	 lea	 eax, DWORD PTR $T511103[ebp]
  0002c	50		 push	 eax
  0002d	8d 4d f4	 lea	 ecx, DWORD PTR $T511098[ebp]
  00030	ff 15 00 00 00
	00		 call	 DWORD PTR __imp_??0exception@std@@QAE@ABQBD@Z
  00036	68 00 00 00 00	 push	 OFFSET __TI2?AVbad_alloc@std@@
  0003b	8d 45 f4	 lea	 eax, DWORD PTR $T511098[ebp]
  0003e	50		 push	 eax
  0003f	c7 45 f4 00 00
	00 00		 mov	 DWORD PTR $T511098[ebp], OFFSET ??_7bad_alloc@std@@6B@
  00046	e8 00 00 00 00	 call	 __CxxThrowException@8
$LN10@Allocate:
$LN5@Allocate:

; 40   : 	}

  0004b	c9		 leave
  0004c	c3		 ret	 0
$LN9@Allocate:
??$_Allocate@U_Node@?$_Tree_nod@V?$_Tmap_traits@HV?$vector@VioHashString@@V?$allocator@VioHashString@@@std@@@std@@U?$less@H@2@V?$allocator@U?$pair@$$CBHV?$vector@VioHashString@@V?$allocator@VioHashString@@@std@@@std@@@std@@@2@$0A@@std@@@std@@@std@@YAPAU_Node@?$_Tree_nod@V?$_Tmap_traits@HV?$vector@VioHashString@@V?$allocator@VioHashString@@@std@@@std@@U?$less@H@2@V?$allocator@U?$pair@$$CBHV?$vector@VioHashString@@V?$allocator@VioHashString@@@std@@@std@@@std@@@2@$0A@@std@@@0@IPAU120@@Z ENDP ; std::_Allocate<std::_Tree_nod<std::_Tmap_traits<int,std::vector<ioHashString,std::allocator<ioHashString> >,std::less<int>,std::allocator<std::pair<int const ,std::vector<ioHashString,std::allocator<ioHashString> > > >,0> >::_Node>
_TEXT	ENDS
PUBLIC	?construct@?$allocator@VioHashString@@@std@@QAEXPAVioHashString@@$$QAV3@@Z ; std::allocator<ioHashString>::construct
EXTRN	__imp_??0ioHashString@@QAE@ABV0@@Z:PROC
;	COMDAT xdata$x
; File c:\program files (x86)\microsoft visual studio 10.0\vc\include\utility
xdata$x	SEGMENT
__unwindtable$?construct@?$allocator@VioHashString@@@std@@QAEXPAVioHashString@@$$QAV3@@Z DD 0ffffffffH
	DD	FLAT:__unwindfunclet$?construct@?$allocator@VioHashString@@@std@@QAEXPAVioHashString@@$$QAV3@@Z$0
__ehfuncinfo$?construct@?$allocator@VioHashString@@@std@@QAEXPAVioHashString@@$$QAV3@@Z DD 019930522H
	DD	01H
	DD	FLAT:__unwindtable$?construct@?$allocator@VioHashString@@@std@@QAEXPAVioHashString@@$$QAV3@@Z
	DD	2 DUP(00H)
	DD	2 DUP(00H)
	DD	00H
	DD	01H
; Function compile flags: /Ogsp
; File c:\program files (x86)\microsoft visual studio 10.0\vc\include\xmemory
xdata$x	ENDS
;	COMDAT ?construct@?$allocator@VioHashString@@@std@@QAEXPAVioHashString@@$$QAV3@@Z
_TEXT	SEGMENT
$T511109 = -16						; size = 4
__$EHRec$ = -12						; size = 12
__Ptr$ = 8						; size = 4
__Val$ = 12						; size = 4
?construct@?$allocator@VioHashString@@@std@@QAEXPAVioHashString@@$$QAV3@@Z PROC ; std::allocator<ioHashString>::construct, COMDAT
; _this$ = ecx

; 201  : 		{	// construct object at _Ptr with value _Val

  00000	6a 04		 push	 4
  00002	b8 00 00 00 00	 mov	 eax, __ehhandler$?construct@?$allocator@VioHashString@@@std@@QAEXPAVioHashString@@$$QAV3@@Z
  00007	e8 00 00 00 00	 call	 __EH_prolog3

; 202  : 		::new ((void _FARQ *)_Ptr) _Ty(_STD forward<_Ty>(_Val));

  0000c	8b 4d 08	 mov	 ecx, DWORD PTR __Ptr$[ebp]
  0000f	89 4d f0	 mov	 DWORD PTR $T511109[ebp], ecx
  00012	83 65 fc 00	 and	 DWORD PTR __$EHRec$[ebp+8], 0
  00016	85 c9		 test	 ecx, ecx
  00018	74 09		 je	 SHORT $LN3@construct
  0001a	ff 75 0c	 push	 DWORD PTR __Val$[ebp]
  0001d	ff 15 00 00 00
	00		 call	 DWORD PTR __imp_??0ioHashString@@QAE@ABV0@@Z
$LN3@construct:

; 203  : 		}

  00023	e8 00 00 00 00	 call	 __EH_epilog3
  00028	c2 08 00	 ret	 8
_TEXT	ENDS
;	COMDAT text$x
text$x	SEGMENT
__unwindfunclet$?construct@?$allocator@VioHashString@@@std@@QAEXPAVioHashString@@$$QAV3@@Z$0:
  00000	ff 75 08	 push	 DWORD PTR __Ptr$[ebp]
  00003	ff 75 f0	 push	 DWORD PTR $T511109[ebp]
  00006	e8 00 00 00 00	 call	 ??3@YAXPAX0@Z		; operator delete
  0000b	59		 pop	 ecx
  0000c	59		 pop	 ecx
  0000d	c3		 ret	 0
__ehhandler$?construct@?$allocator@VioHashString@@@std@@QAEXPAVioHashString@@$$QAV3@@Z:
  0000e	8b 54 24 08	 mov	 edx, DWORD PTR [esp+8]
  00012	8d 42 0c	 lea	 eax, DWORD PTR [edx+12]
  00015	8b 4a ec	 mov	 ecx, DWORD PTR [edx-20]
  00018	33 c8		 xor	 ecx, eax
  0001a	e8 00 00 00 00	 call	 @__security_check_cookie@4
  0001f	b8 00 00 00 00	 mov	 eax, OFFSET __ehfuncinfo$?construct@?$allocator@VioHashString@@@std@@QAEXPAVioHashString@@$$QAV3@@Z
  00024	e9 00 00 00 00	 jmp	 ___CxxFrameHandler3
text$x	ENDS
?construct@?$allocator@VioHashString@@@std@@QAEXPAVioHashString@@$$QAV3@@Z ENDP ; std::allocator<ioHashString>::construct
PUBLIC	??0?$_Tree_unchecked_const_iterator@V?$_Tree_val@V?$_Tmap_traits@HV?$vector@VioHashString@@V?$allocator@VioHashString@@@std@@@std@@U?$less@H@2@V?$allocator@U?$pair@$$CBHV?$vector@VioHashString@@V?$allocator@VioHashString@@@std@@@std@@@std@@@2@$0A@@std@@@std@@U_Iterator_base0@2@@std@@QAE@XZ ; std::_Tree_unchecked_const_iterator<std::_Tree_val<std::_Tmap_traits<int,std::vector<ioHashString,std::allocator<ioHashString> >,std::less<int>,std::allocator<std::pair<int const ,std::vector<ioHashString,std::allocator<ioHashString> > > >,0> >,std::_Iterator_base0>::_Tree_unchecked_const_iterator<std::_Tree_val<std::_Tmap_traits<int,std::vector<ioHashString,std::allocator<ioHashString> >,std::less<int>,std::allocator<std::pair<int const ,std::vector<ioHashString,std::allocator<ioHashString> > > >,0> >,std::_Iterator_base0>
; Function compile flags: /Ogsp
; File c:\program files (x86)\microsoft visual studio 10.0\vc\include\xtree
;	COMDAT ??0?$_Tree_unchecked_const_iterator@V?$_Tree_val@V?$_Tmap_traits@HV?$vector@VioHashString@@V?$allocator@VioHashString@@@std@@@std@@U?$less@H@2@V?$allocator@U?$pair@$$CBHV?$vector@VioHashString@@V?$allocator@VioHashString@@@std@@@std@@@std@@@2@$0A@@std@@@std@@U_Iterator_base0@2@@std@@QAE@XZ
_TEXT	SEGMENT
??0?$_Tree_unchecked_const_iterator@V?$_Tree_val@V?$_Tmap_traits@HV?$vector@VioHashString@@V?$allocator@VioHashString@@@std@@@std@@U?$less@H@2@V?$allocator@U?$pair@$$CBHV?$vector@VioHashString@@V?$allocator@VioHashString@@@std@@@std@@@std@@@2@$0A@@std@@@std@@U_Iterator_base0@2@@std@@QAE@XZ PROC ; std::_Tree_unchecked_const_iterator<std::_Tree_val<std::_Tmap_traits<int,std::vector<ioHashString,std::allocator<ioHashString> >,std::less<int>,std::allocator<std::pair<int const ,std::vector<ioHashString,std::allocator<ioHashString> > > >,0> >,std::_Iterator_base0>::_Tree_unchecked_const_iterator<std::_Tree_val<std::_Tmap_traits<int,std::vector<ioHashString,std::allocator<ioHashString> >,std::less<int>,std::allocator<std::pair<int const ,std::vector<ioHashString,std::allocator<ioHashString> > > >,0> >,std::_Iterator_base0>, COMDAT
; _this$ = ecx

; 38   : 		{	// construct with null node pointer

  00000	8b c1		 mov	 eax, ecx
  00002	83 20 00	 and	 DWORD PTR [eax], 0

; 39   : 		}

  00005	c3		 ret	 0
??0?$_Tree_unchecked_const_iterator@V?$_Tree_val@V?$_Tmap_traits@HV?$vector@VioHashString@@V?$allocator@VioHashString@@@std@@@std@@U?$less@H@2@V?$allocator@U?$pair@$$CBHV?$vector@VioHashString@@V?$allocator@VioHashString@@@std@@@std@@@std@@@2@$0A@@std@@@std@@U_Iterator_base0@2@@std@@QAE@XZ ENDP ; std::_Tree_unchecked_const_iterator<std::_Tree_val<std::_Tmap_traits<int,std::vector<ioHashString,std::allocator<ioHashString> >,std::less<int>,std::allocator<std::pair<int const ,std::vector<ioHashString,std::allocator<ioHashString> > > >,0> >,std::_Iterator_base0>::_Tree_unchecked_const_iterator<std::_Tree_val<std::_Tmap_traits<int,std::vector<ioHashString,std::allocator<ioHashString> >,std::less<int>,std::allocator<std::pair<int const ,std::vector<ioHashString,std::allocator<ioHashString> > > >,0> >,std::_Iterator_base0>
_TEXT	ENDS
PUBLIC	?max_size@?$allocator@U?$pair@$$CBHV?$vector@VioHashString@@V?$allocator@VioHashString@@@std@@@std@@@std@@@std@@QBEIXZ ; std::allocator<std::pair<int const ,std::vector<ioHashString,std::allocator<ioHashString> > > >::max_size
; Function compile flags: /Ogsp
; File c:\program files (x86)\microsoft visual studio 10.0\vc\include\xmemory
;	COMDAT ?max_size@?$allocator@U?$pair@$$CBHV?$vector@VioHashString@@V?$allocator@VioHashString@@@std@@@std@@@std@@@std@@QBEIXZ
_TEXT	SEGMENT
?max_size@?$allocator@U?$pair@$$CBHV?$vector@VioHashString@@V?$allocator@VioHashString@@@std@@@std@@@std@@@std@@QBEIXZ PROC ; std::allocator<std::pair<int const ,std::vector<ioHashString,std::allocator<ioHashString> > > >::max_size, COMDAT
; _this$ = ecx

; 218  : 		_SIZT _Count = (_SIZT)(-1) / sizeof (_Ty);
; 219  : 		return (0 < _Count ? _Count : 1);

  00000	b8 cc cc cc 0c	 mov	 eax, 214748364		; 0cccccccH

; 220  : 		}

  00005	c3		 ret	 0
?max_size@?$allocator@U?$pair@$$CBHV?$vector@VioHashString@@V?$allocator@VioHashString@@@std@@@std@@@std@@@std@@QBEIXZ ENDP ; std::allocator<std::pair<int const ,std::vector<ioHashString,std::allocator<ioHashString> > > >::max_size
_TEXT	ENDS
PUBLIC	??$_Copy_impl@PAVioHashString@@PAV1@@std@@YAPAVioHashString@@PAV1@00U_Nonscalar_ptr_iterator_tag@0@@Z ; std::_Copy_impl<ioHashString *,ioHashString *>
EXTRN	__imp_??4ioHashString@@QAEAAV0@ABV0@@Z:PROC
; Function compile flags: /Ogsp
; File c:\program files (x86)\microsoft visual studio 10.0\vc\include\xutility
;	COMDAT ??$_Copy_impl@PAVioHashString@@PAV1@@std@@YAPAVioHashString@@PAV1@00U_Nonscalar_ptr_iterator_tag@0@@Z
_TEXT	SEGMENT
__First$ = 8						; size = 4
__Last$ = 12						; size = 4
__Dest$ = 16						; size = 4
___formal$ = 20						; size = 1
??$_Copy_impl@PAVioHashString@@PAV1@@std@@YAPAVioHashString@@PAV1@00U_Nonscalar_ptr_iterator_tag@0@@Z PROC ; std::_Copy_impl<ioHashString *,ioHashString *>, COMDAT

; 2142 : 	{	// copy [_First, _Last) to [_Dest, ...), arbitrary iterators

  00000	55		 push	 ebp
  00001	8b ec		 mov	 ebp, esp
  00003	56		 push	 esi

; 2143 : 	for (; _First != _Last; ++_Dest, ++_First)

  00004	8b 75 08	 mov	 esi, DWORD PTR __First$[ebp]
  00007	eb 11		 jmp	 SHORT $LN9@Copy_impl
$LL3@Copy_impl:

; 2144 : 		*_Dest = *_First;

  00009	8b 4d 10	 mov	 ecx, DWORD PTR __Dest$[ebp]
  0000c	56		 push	 esi
  0000d	ff 15 00 00 00
	00		 call	 DWORD PTR __imp_??4ioHashString@@QAEAAV0@ABV0@@Z
  00013	83 45 10 10	 add	 DWORD PTR __Dest$[ebp], 16 ; 00000010H
  00017	83 c6 10	 add	 esi, 16			; 00000010H
$LN9@Copy_impl:

; 2143 : 	for (; _First != _Last; ++_Dest, ++_First)

  0001a	3b 75 0c	 cmp	 esi, DWORD PTR __Last$[ebp]
  0001d	75 ea		 jne	 SHORT $LL3@Copy_impl

; 2145 : 	return (_Dest);

  0001f	8b 45 10	 mov	 eax, DWORD PTR __Dest$[ebp]
  00022	5e		 pop	 esi

; 2146 : 	}

  00023	5d		 pop	 ebp
  00024	c3		 ret	 0
??$_Copy_impl@PAVioHashString@@PAV1@@std@@YAPAVioHashString@@PAV1@00U_Nonscalar_ptr_iterator_tag@0@@Z ENDP ; std::_Copy_impl<ioHashString *,ioHashString *>
_TEXT	ENDS
PUBLIC	??$forward@U?$pair@$$CBHV?$vector@VioHashString@@V?$allocator@VioHashString@@@std@@@std@@@std@@@std@@YA$$QAU?$pair@$$CBHV?$vector@VioHashString@@V?$allocator@VioHashString@@@std@@@std@@@0@AAU10@@Z ; std::forward<std::pair<int const ,std::vector<ioHashString,std::allocator<ioHashString> > > >
; Function compile flags: /Ogsp
; File c:\program files (x86)\microsoft visual studio 10.0\vc\include\utility
;	COMDAT ??$forward@U?$pair@$$CBHV?$vector@VioHashString@@V?$allocator@VioHashString@@@std@@@std@@@std@@@std@@YA$$QAU?$pair@$$CBHV?$vector@VioHashString@@V?$allocator@VioHashString@@@std@@@std@@@0@AAU10@@Z
_TEXT	SEGMENT
__Arg$ = 8						; size = 4
??$forward@U?$pair@$$CBHV?$vector@VioHashString@@V?$allocator@VioHashString@@@std@@@std@@@std@@@std@@YA$$QAU?$pair@$$CBHV?$vector@VioHashString@@V?$allocator@VioHashString@@@std@@@std@@@0@AAU10@@Z PROC ; std::forward<std::pair<int const ,std::vector<ioHashString,std::allocator<ioHashString> > > >, COMDAT

; 78   : 	{	// forward _Arg, given explicitly specified type parameter

  00000	55		 push	 ebp
  00001	8b ec		 mov	 ebp, esp

; 79   : 	return ((_Ty&&)_Arg);

  00003	8b 45 08	 mov	 eax, DWORD PTR __Arg$[ebp]

; 80   : 	}

  00006	5d		 pop	 ebp
  00007	c3		 ret	 0
??$forward@U?$pair@$$CBHV?$vector@VioHashString@@V?$allocator@VioHashString@@@std@@@std@@@std@@@std@@YA$$QAU?$pair@$$CBHV?$vector@VioHashString@@V?$allocator@VioHashString@@@std@@@std@@@0@AAU10@@Z ENDP ; std::forward<std::pair<int const ,std::vector<ioHashString,std::allocator<ioHashString> > > >
_TEXT	ENDS
PUBLIC	??$?8VioHashString@@V0@@std@@YA_NABV?$allocator@VioHashString@@@0@0@Z ; std::operator==<ioHashString,ioHashString>
; Function compile flags: /Ogsp
; File c:\program files (x86)\microsoft visual studio 10.0\vc\include\xmemory
;	COMDAT ??$?8VioHashString@@V0@@std@@YA_NABV?$allocator@VioHashString@@@0@0@Z
_TEXT	SEGMENT
___formal$ = 8						; size = 4
___formal$ = 12						; size = 4
??$?8VioHashString@@V0@@std@@YA_NABV?$allocator@VioHashString@@@0@0@Z PROC ; std::operator==<ioHashString,ioHashString>, COMDAT

; 263  : 	return (true);

  00000	b0 01		 mov	 al, 1

; 264  : 	}

  00002	c3		 ret	 0
??$?8VioHashString@@V0@@std@@YA_NABV?$allocator@VioHashString@@@0@0@Z ENDP ; std::operator==<ioHashString,ioHashString>
_TEXT	ENDS
PUBLIC	??$move@AAV?$_Tree_iterator@V?$_Tree_val@V?$_Tmap_traits@HV?$vector@VioHashString@@V?$allocator@VioHashString@@@std@@@std@@U?$less@H@2@V?$allocator@U?$pair@$$CBHV?$vector@VioHashString@@V?$allocator@VioHashString@@@std@@@std@@@std@@@2@$0A@@std@@@std@@@std@@@std@@YA$$QAV?$_Tree_iterator@V?$_Tree_val@V?$_Tmap_traits@HV?$vector@VioHashString@@V?$allocator@VioHashString@@@std@@@std@@U?$less@H@2@V?$allocator@U?$pair@$$CBHV?$vector@VioHashString@@V?$allocator@VioHashString@@@std@@@std@@@std@@@2@$0A@@std@@@std@@@0@AAV10@@Z ; std::move<std::_Tree_iterator<std::_Tree_val<std::_Tmap_traits<int,std::vector<ioHashString,std::allocator<ioHashString> >,std::less<int>,std::allocator<std::pair<int const ,std::vector<ioHashString,std::allocator<ioHashString> > > >,0> > > &>
; Function compile flags: /Ogsp
; File c:\program files (x86)\microsoft visual studio 10.0\vc\include\utility
;	COMDAT ??$move@AAV?$_Tree_iterator@V?$_Tree_val@V?$_Tmap_traits@HV?$vector@VioHashString@@V?$allocator@VioHashString@@@std@@@std@@U?$less@H@2@V?$allocator@U?$pair@$$CBHV?$vector@VioHashString@@V?$allocator@VioHashString@@@std@@@std@@@std@@@2@$0A@@std@@@std@@@std@@@std@@YA$$QAV?$_Tree_iterator@V?$_Tree_val@V?$_Tmap_traits@HV?$vector@VioHashString@@V?$allocator@VioHashString@@@std@@@std@@U?$less@H@2@V?$allocator@U?$pair@$$CBHV?$vector@VioHashString@@V?$allocator@VioHashString@@@std@@@std@@@std@@@2@$0A@@std@@@std@@@0@AAV10@@Z
_TEXT	SEGMENT
__Arg$ = 8						; size = 4
??$move@AAV?$_Tree_iterator@V?$_Tree_val@V?$_Tmap_traits@HV?$vector@VioHashString@@V?$allocator@VioHashString@@@std@@@std@@U?$less@H@2@V?$allocator@U?$pair@$$CBHV?$vector@VioHashString@@V?$allocator@VioHashString@@@std@@@std@@@std@@@2@$0A@@std@@@std@@@std@@@std@@YA$$QAV?$_Tree_iterator@V?$_Tree_val@V?$_Tmap_traits@HV?$vector@VioHashString@@V?$allocator@VioHashString@@@std@@@std@@U?$less@H@2@V?$allocator@U?$pair@$$CBHV?$vector@VioHashString@@V?$allocator@VioHashString@@@std@@@std@@@std@@@2@$0A@@std@@@std@@@0@AAV10@@Z PROC ; std::move<std::_Tree_iterator<std::_Tree_val<std::_Tmap_traits<int,std::vector<ioHashString,std::allocator<ioHashString> >,std::less<int>,std::allocator<std::pair<int const ,std::vector<ioHashString,std::allocator<ioHashString> > > >,0> > > &>, COMDAT

; 86   : 	{	// forward _Arg as movable

  00000	55		 push	 ebp
  00001	8b ec		 mov	 ebp, esp

; 87   : 	return ((typename tr1::_Remove_reference<_Ty>::_Type&&)_Arg);

  00003	8b 45 08	 mov	 eax, DWORD PTR __Arg$[ebp]

; 88   : 	}

  00006	5d		 pop	 ebp
  00007	c3		 ret	 0
??$move@AAV?$_Tree_iterator@V?$_Tree_val@V?$_Tmap_traits@HV?$vector@VioHashString@@V?$allocator@VioHashString@@@std@@@std@@U?$less@H@2@V?$allocator@U?$pair@$$CBHV?$vector@VioHashString@@V?$allocator@VioHashString@@@std@@@std@@@std@@@2@$0A@@std@@@std@@@std@@@std@@YA$$QAV?$_Tree_iterator@V?$_Tree_val@V?$_Tmap_traits@HV?$vector@VioHashString@@V?$allocator@VioHashString@@@std@@@std@@U?$less@H@2@V?$allocator@U?$pair@$$CBHV?$vector@VioHashString@@V?$allocator@VioHashString@@@std@@@std@@@std@@@2@$0A@@std@@@std@@@0@AAV10@@Z ENDP ; std::move<std::_Tree_iterator<std::_Tree_val<std::_Tmap_traits<int,std::vector<ioHashString,std::allocator<ioHashString> >,std::less<int>,std::allocator<std::pair<int const ,std::vector<ioHashString,std::allocator<ioHashString> > > >,0> > > &>
_TEXT	ENDS
PUBLIC	??$_Val_type@PAVioHashString@@@std@@YAPAVioHashString@@PAV1@@Z ; std::_Val_type<ioHashString *>
; Function compile flags: /Ogsp
; File c:\program files (x86)\microsoft visual studio 10.0\vc\include\xutility
;	COMDAT ??$_Val_type@PAVioHashString@@@std@@YAPAVioHashString@@PAV1@@Z
_TEXT	SEGMENT
___formal$ = 8						; size = 4
??$_Val_type@PAVioHashString@@@std@@YAPAVioHashString@@PAV1@@Z PROC ; std::_Val_type<ioHashString *>, COMDAT

; 790  : 	return (0);

  00000	33 c0		 xor	 eax, eax

; 791  : 	}

  00002	c3		 ret	 0
??$_Val_type@PAVioHashString@@@std@@YAPAVioHashString@@PAV1@@Z ENDP ; std::_Val_type<ioHashString *>
_TEXT	ENDS
PUBLIC	??$forward@AAV?$_Tree_iterator@V?$_Tree_val@V?$_Tmap_traits@HV?$vector@VioHashString@@V?$allocator@VioHashString@@@std@@@std@@U?$less@H@2@V?$allocator@U?$pair@$$CBHV?$vector@VioHashString@@V?$allocator@VioHashString@@@std@@@std@@@std@@@2@$0A@@std@@@std@@@std@@@std@@YAAAV?$_Tree_iterator@V?$_Tree_val@V?$_Tmap_traits@HV?$vector@VioHashString@@V?$allocator@VioHashString@@@std@@@std@@U?$less@H@2@V?$allocator@U?$pair@$$CBHV?$vector@VioHashString@@V?$allocator@VioHashString@@@std@@@std@@@std@@@2@$0A@@std@@@std@@@0@AAV10@@Z ; std::forward<std::_Tree_iterator<std::_Tree_val<std::_Tmap_traits<int,std::vector<ioHashString,std::allocator<ioHashString> >,std::less<int>,std::allocator<std::pair<int const ,std::vector<ioHashString,std::allocator<ioHashString> > > >,0> > > &>
; Function compile flags: /Ogsp
; File c:\program files (x86)\microsoft visual studio 10.0\vc\include\utility
;	COMDAT ??$forward@AAV?$_Tree_iterator@V?$_Tree_val@V?$_Tmap_traits@HV?$vector@VioHashString@@V?$allocator@VioHashString@@@std@@@std@@U?$less@H@2@V?$allocator@U?$pair@$$CBHV?$vector@VioHashString@@V?$allocator@VioHashString@@@std@@@std@@@std@@@2@$0A@@std@@@std@@@std@@@std@@YAAAV?$_Tree_iterator@V?$_Tree_val@V?$_Tmap_traits@HV?$vector@VioHashString@@V?$allocator@VioHashString@@@std@@@std@@U?$less@H@2@V?$allocator@U?$pair@$$CBHV?$vector@VioHashString@@V?$allocator@VioHashString@@@std@@@std@@@std@@@2@$0A@@std@@@std@@@0@AAV10@@Z
_TEXT	SEGMENT
__Arg$ = 8						; size = 4
??$forward@AAV?$_Tree_iterator@V?$_Tree_val@V?$_Tmap_traits@HV?$vector@VioHashString@@V?$allocator@VioHashString@@@std@@@std@@U?$less@H@2@V?$allocator@U?$pair@$$CBHV?$vector@VioHashString@@V?$allocator@VioHashString@@@std@@@std@@@std@@@2@$0A@@std@@@std@@@std@@@std@@YAAAV?$_Tree_iterator@V?$_Tree_val@V?$_Tmap_traits@HV?$vector@VioHashString@@V?$allocator@VioHashString@@@std@@@std@@U?$less@H@2@V?$allocator@U?$pair@$$CBHV?$vector@VioHashString@@V?$allocator@VioHashString@@@std@@@std@@@std@@@2@$0A@@std@@@std@@@0@AAV10@@Z PROC ; std::forward<std::_Tree_iterator<std::_Tree_val<std::_Tmap_traits<int,std::vector<ioHashString,std::allocator<ioHashString> >,std::less<int>,std::allocator<std::pair<int const ,std::vector<ioHashString,std::allocator<ioHashString> > > >,0> > > &>, COMDAT

; 78   : 	{	// forward _Arg, given explicitly specified type parameter

  00000	55		 push	 ebp
  00001	8b ec		 mov	 ebp, esp

; 79   : 	return ((_Ty&&)_Arg);

  00003	8b 45 08	 mov	 eax, DWORD PTR __Arg$[ebp]

; 80   : 	}

  00006	5d		 pop	 ebp
  00007	c3		 ret	 0
??$forward@AAV?$_Tree_iterator@V?$_Tree_val@V?$_Tmap_traits@HV?$vector@VioHashString@@V?$allocator@VioHashString@@@std@@@std@@U?$less@H@2@V?$allocator@U?$pair@$$CBHV?$vector@VioHashString@@V?$allocator@VioHashString@@@std@@@std@@@std@@@2@$0A@@std@@@std@@@std@@@std@@YAAAV?$_Tree_iterator@V?$_Tree_val@V?$_Tmap_traits@HV?$vector@VioHashString@@V?$allocator@VioHashString@@@std@@@std@@U?$less@H@2@V?$allocator@U?$pair@$$CBHV?$vector@VioHashString@@V?$allocator@VioHashString@@@std@@@std@@@std@@@2@$0A@@std@@@std@@@0@AAV10@@Z ENDP ; std::forward<std::_Tree_iterator<std::_Tree_val<std::_Tmap_traits<int,std::vector<ioHashString,std::allocator<ioHashString> >,std::less<int>,std::allocator<std::pair<int const ,std::vector<ioHashString,std::allocator<ioHashString> > > >,0> > > &>
_TEXT	ENDS
PUBLIC	??$forward@$$CBH@std@@YA$$QBHABH@Z		; std::forward<int const >
; Function compile flags: /Ogsp
;	COMDAT ??$forward@$$CBH@std@@YA$$QBHABH@Z
_TEXT	SEGMENT
__Arg$ = 8						; size = 4
??$forward@$$CBH@std@@YA$$QBHABH@Z PROC			; std::forward<int const >, COMDAT

; 78   : 	{	// forward _Arg, given explicitly specified type parameter

  00000	55		 push	 ebp
  00001	8b ec		 mov	 ebp, esp

; 79   : 	return ((_Ty&&)_Arg);

  00003	8b 45 08	 mov	 eax, DWORD PTR __Arg$[ebp]

; 80   : 	}

  00006	5d		 pop	 ebp
  00007	c3		 ret	 0
??$forward@$$CBH@std@@YA$$QBHABH@Z ENDP			; std::forward<int const >
_TEXT	ENDS
PUBLIC	??$move@ABH@std@@YA$$QBHABH@Z			; std::move<int const &>
; Function compile flags: /Ogsp
;	COMDAT ??$move@ABH@std@@YA$$QBHABH@Z
_TEXT	SEGMENT
__Arg$ = 8						; size = 4
??$move@ABH@std@@YA$$QBHABH@Z PROC			; std::move<int const &>, COMDAT

; 86   : 	{	// forward _Arg as movable

  00000	55		 push	 ebp
  00001	8b ec		 mov	 ebp, esp

; 87   : 	return ((typename tr1::_Remove_reference<_Ty>::_Type&&)_Arg);

  00003	8b 45 08	 mov	 eax, DWORD PTR __Arg$[ebp]

; 88   : 	}

  00006	5d		 pop	 ebp
  00007	c3		 ret	 0
??$move@ABH@std@@YA$$QBHABH@Z ENDP			; std::move<int const &>
; Function compile flags: /Ogsp
; File c:\program files (x86)\microsoft sdks\windows\v7.0a\include\strsafe.h
_TEXT	ENDS
;	COMDAT ?StringValidateDestA@@YGJPBDII@Z
_TEXT	SEGMENT
_cchMax$ = 8						; size = 4
?StringValidateDestA@@YGJPBDII@Z PROC			; StringValidateDestA, COMDAT
; _cchDest$ = ecx

; 8721 : {

  00000	55		 push	 ebp
  00001	8b ec		 mov	 ebp, esp

; 8722 :     HRESULT hr = S_OK;

  00003	33 c0		 xor	 eax, eax

; 8723 : 
; 8724 :     if ((cchDest == 0) || (cchDest > cchMax))

  00005	85 c9		 test	 ecx, ecx
  00007	74 05		 je	 SHORT $LN1@StringVali
  00009	3b 4d 08	 cmp	 ecx, DWORD PTR _cchMax$[ebp]
  0000c	76 05		 jbe	 SHORT $LN2@StringVali
$LN1@StringVali:

; 8725 :     {
; 8726 :         hr = STRSAFE_E_INVALID_PARAMETER;

  0000e	b8 57 00 07 80	 mov	 eax, -2147024809	; 80070057H
$LN2@StringVali:

; 8727 :     }
; 8728 : 
; 8729 :     return hr;
; 8730 : }

  00013	5d		 pop	 ebp
  00014	c2 04 00	 ret	 4
?StringValidateDestA@@YGJPBDII@Z ENDP			; StringValidateDestA
_TEXT	ENDS
EXTRN	__imp___vsnprintf:PROC
; Function compile flags: /Ogsp
;	COMDAT ?StringVPrintfWorkerA@@YGJPADIPAIPBD0@Z
_TEXT	SEGMENT
_pcchNewDestLength$ = 8					; size = 4
_pszFormat$ = 12					; size = 4
_argList$ = 16						; size = 4
?StringVPrintfWorkerA@@YGJPADIPAIPBD0@Z PROC		; StringVPrintfWorkerA, COMDAT
; _pszDest$ = edi
; _cchDest$ = eax

; 9029 : {

  00000	55		 push	 ebp
  00001	8b ec		 mov	 ebp, esp
  00003	53		 push	 ebx
  00004	56		 push	 esi

; 9030 :     HRESULT hr = S_OK;
; 9031 :     int iRet;
; 9032 :     size_t cchMax;
; 9033 :     size_t cchNewDestLength = 0;
; 9034 : 
; 9035 :     // leave the last space for the null terminator
; 9036 :     cchMax = cchDest - 1;
; 9037 : 
; 9038 : #if (STRSAFE_USE_SECURE_CRT == 1) && !defined(STRSAFE_LIB_IMPL)
; 9039 :     iRet = _vsnprintf_s(pszDest, cchDest, cchMax, pszFormat, argList);
; 9040 : #else
; 9041 :     #pragma warning(push)
; 9042 :     #pragma warning(disable: __WARNING_BANNED_API_USAGE)// "STRSAFE not included"
; 9043 :     iRet = _vsnprintf(pszDest, cchMax, pszFormat, argList);

  00005	ff 75 10	 push	 DWORD PTR _argList$[ebp]
  00008	8d 70 ff	 lea	 esi, DWORD PTR [eax-1]
  0000b	ff 75 0c	 push	 DWORD PTR _pszFormat$[ebp]
  0000e	33 db		 xor	 ebx, ebx
  00010	56		 push	 esi
  00011	57		 push	 edi
  00012	ff 15 00 00 00
	00		 call	 DWORD PTR __imp___vsnprintf
  00018	83 c4 10	 add	 esp, 16			; 00000010H

; 9044 :     #pragma warning(pop)
; 9045 : #endif
; 9046 :     // ASSERT((iRet < 0) || (((size_t)iRet) <= cchMax));
; 9047 : 
; 9048 :     if ((iRet < 0) || (((size_t)iRet) > cchMax))

  0001b	85 c0		 test	 eax, eax
  0001d	78 0b		 js	 SHORT $LN5@StringVPri
  0001f	3b c6		 cmp	 eax, esi
  00021	77 07		 ja	 SHORT $LN5@StringVPri

; 9058 :     }
; 9059 :     else if (((size_t)iRet) == cchMax)

  00023	75 0f		 jne	 SHORT $LN2@StringVPri

; 9060 :     {
; 9061 :         // need to null terminate the string
; 9062 :         pszDest += cchMax;
; 9063 :         *pszDest = '\0';

  00025	88 1c 3e	 mov	 BYTE PTR [esi+edi], bl

; 9064 : 
; 9065 :         cchNewDestLength = cchMax;
; 9066 :     }
; 9067 :     else

  00028	eb 08		 jmp	 SHORT $LN9@StringVPri
$LN5@StringVPri:

; 9049 :     {
; 9050 :         // need to null terminate the string
; 9051 :         pszDest += cchMax;
; 9052 :         *pszDest = '\0';

  0002a	88 1c 3e	 mov	 BYTE PTR [esi+edi], bl

; 9055 : 
; 9056 :         // we have truncated pszDest
; 9057 :         hr = STRSAFE_E_INSUFFICIENT_BUFFER;

  0002d	bb 7a 00 07 80	 mov	 ebx, -2147024774	; 8007007aH
$LN9@StringVPri:

; 9053 : 
; 9054 :         cchNewDestLength = cchMax;

  00032	8b c6		 mov	 eax, esi
$LN2@StringVPri:

; 9068 :     {
; 9069 :         cchNewDestLength = (size_t)iRet;
; 9070 :     }
; 9071 : 
; 9072 :     if (pcchNewDestLength)

  00034	8b 4d 08	 mov	 ecx, DWORD PTR _pcchNewDestLength$[ebp]
  00037	85 c9		 test	 ecx, ecx
  00039	74 02		 je	 SHORT $LN1@StringVPri

; 9073 :     {
; 9074 :         *pcchNewDestLength = cchNewDestLength;

  0003b	89 01		 mov	 DWORD PTR [ecx], eax
$LN1@StringVPri:
  0003d	5e		 pop	 esi

; 9075 :     }
; 9076 : 
; 9077 :     return hr;

  0003e	8b c3		 mov	 eax, ebx
  00040	5b		 pop	 ebx

; 9078 : }

  00041	5d		 pop	 ebp
  00042	c2 0c 00	 ret	 12			; 0000000cH
?StringVPrintfWorkerA@@YGJPADIPAIPBD0@Z ENDP		; StringVPrintfWorkerA
_TEXT	ENDS
PUBLIC	?_DECSTR@@YAXPADH@Z				; _DECSTR
; Function compile flags: /Ogsp
; File d:\lost saga for developer\youtube\tutorial\source\src\lsclient\stringprotect.h
;	COMDAT ?_DECSTR@@YAXPADH@Z
_TEXT	SEGMENT
_s$ = 8							; size = 4
_l$ = 12						; size = 4
?_DECSTR@@YAXPADH@Z PROC				; _DECSTR, COMDAT

; 40   : __forceinline void _DECSTR(char* s, int l){int i=0,l4=(l-1)/4,*p=(int*)s;s[l-1]=0;for(;i<l4;++i)*(p++)^=0xEAEBECED;for(i=l4*4;i<l-1;++i)s[i]^=0xED-i%4;}

  00000	55		 push	 ebp
  00001	8b ec		 mov	 ebp, esp
  00003	8b 4d 0c	 mov	 ecx, DWORD PTR _l$[ebp]
  00006	56		 push	 esi
  00007	8b 75 08	 mov	 esi, DWORD PTR _s$[ebp]
  0000a	57		 push	 edi
  0000b	8d 79 ff	 lea	 edi, DWORD PTR [ecx-1]
  0000e	8b c7		 mov	 eax, edi
  00010	99		 cdq
  00011	83 e2 03	 and	 edx, 3
  00014	03 c2		 add	 eax, edx
  00016	c1 f8 02	 sar	 eax, 2
  00019	8b d6		 mov	 edx, esi
  0001b	c6 44 0e ff 00	 mov	 BYTE PTR [esi+ecx-1], 0
  00020	85 c0		 test	 eax, eax
  00022	7e 0e		 jle	 SHORT $LN4@DECSTR
  00024	8b c8		 mov	 ecx, eax
$LL6@DECSTR:
  00026	81 32 ed ec eb
	ea		 xor	 DWORD PTR [edx], -353637139 ; eaebecedH
  0002c	83 c2 04	 add	 edx, 4
  0002f	49		 dec	 ecx
  00030	75 f4		 jne	 SHORT $LL6@DECSTR
$LN4@DECSTR:
  00032	c1 e0 02	 shl	 eax, 2
  00035	eb 17		 jmp	 SHORT $LN14@DECSTR
$LL3@DECSTR:
  00037	8b c8		 mov	 ecx, eax
  00039	81 e1 03 00 00
	80		 and	 ecx, -2147483645	; 80000003H
  0003f	79 05		 jns	 SHORT $LN13@DECSTR
  00041	49		 dec	 ecx
  00042	83 c9 fc	 or	 ecx, -4			; fffffffcH
  00045	41		 inc	 ecx
$LN13@DECSTR:
  00046	b2 ed		 mov	 dl, -19			; ffffffedH
  00048	2a d1		 sub	 dl, cl
  0004a	30 14 30	 xor	 BYTE PTR [eax+esi], dl
  0004d	40		 inc	 eax
$LN14@DECSTR:
  0004e	3b c7		 cmp	 eax, edi
  00050	7c e5		 jl	 SHORT $LL3@DECSTR
  00052	5f		 pop	 edi
  00053	5e		 pop	 esi
  00054	5d		 pop	 ebp
  00055	c3		 ret	 0
?_DECSTR@@YAXPADH@Z ENDP				; _DECSTR
_TEXT	ENDS
PUBLIC	?size@?$vector@VioHashString@@V?$allocator@VioHashString@@@std@@@std@@QBEIXZ ; std::vector<ioHashString,std::allocator<ioHashString> >::size
; Function compile flags: /Ogsp
; File c:\program files (x86)\microsoft visual studio 10.0\vc\include\vector
;	COMDAT ?size@?$vector@VioHashString@@V?$allocator@VioHashString@@@std@@@std@@QBEIXZ
_TEXT	SEGMENT
?size@?$vector@VioHashString@@V?$allocator@VioHashString@@@std@@@std@@QBEIXZ PROC ; std::vector<ioHashString,std::allocator<ioHashString> >::size, COMDAT
; _this$ = ecx

; 879  : 		return (this->_Mylast - this->_Myfirst);

  00000	8b 41 04	 mov	 eax, DWORD PTR [ecx+4]
  00003	2b 01		 sub	 eax, DWORD PTR [ecx]
  00005	c1 f8 04	 sar	 eax, 4

; 880  : 		}

  00008	c3		 ret	 0
?size@?$vector@VioHashString@@V?$allocator@VioHashString@@@std@@@std@@QBEIXZ ENDP ; std::vector<ioHashString,std::allocator<ioHashString> >::size
_TEXT	ENDS
PUBLIC	??1?$_Vector_val@VioHashString@@V?$allocator@VioHashString@@@std@@@std@@QAE@XZ ; std::_Vector_val<ioHashString,std::allocator<ioHashString> >::~_Vector_val<ioHashString,std::allocator<ioHashString> >
; Function compile flags: /Ogsp
;	COMDAT ??1?$_Vector_val@VioHashString@@V?$allocator@VioHashString@@@std@@@std@@QAE@XZ
_TEXT	SEGMENT
??1?$_Vector_val@VioHashString@@V?$allocator@VioHashString@@@std@@@std@@QAE@XZ PROC ; std::_Vector_val<ioHashString,std::allocator<ioHashString> >::~_Vector_val<ioHashString,std::allocator<ioHashString> >, COMDAT
; _this$ = ecx

; 434  : 		}

  00000	c3		 ret	 0
??1?$_Vector_val@VioHashString@@V?$allocator@VioHashString@@@std@@@std@@QAE@XZ ENDP ; std::_Vector_val<ioHashString,std::allocator<ioHashString> >::~_Vector_val<ioHashString,std::allocator<ioHashString> >
_TEXT	ENDS
PUBLIC	??0?$allocator@VioHashString@@@std@@QAE@XZ	; std::allocator<ioHashString>::allocator<ioHashString>
; Function compile flags: /Ogsp
; File c:\program files (x86)\microsoft visual studio 10.0\vc\include\xmemory
;	COMDAT ??0?$allocator@VioHashString@@@std@@QAE@XZ
_TEXT	SEGMENT
??0?$allocator@VioHashString@@@std@@QAE@XZ PROC		; std::allocator<ioHashString>::allocator<ioHashString>, COMDAT
; _this$ = ecx

; 161  : 	_ALLOCATOR() _THROW0()

  00000	8b c1		 mov	 eax, ecx

; 162  : 		{	// construct default allocator (do nothing)
; 163  : 		}

  00002	c3		 ret	 0
??0?$allocator@VioHashString@@@std@@QAE@XZ ENDP		; std::allocator<ioHashString>::allocator<ioHashString>
_TEXT	ENDS
PUBLIC	??0?$allocator@VioHashString@@@std@@QAE@ABV01@@Z ; std::allocator<ioHashString>::allocator<ioHashString>
; Function compile flags: /Ogsp
;	COMDAT ??0?$allocator@VioHashString@@@std@@QAE@ABV01@@Z
_TEXT	SEGMENT
___formal$ = 8						; size = 4
??0?$allocator@VioHashString@@@std@@QAE@ABV01@@Z PROC	; std::allocator<ioHashString>::allocator<ioHashString>, COMDAT
; _this$ = ecx

; 165  : 	_ALLOCATOR(const _ALLOCATOR<_Ty>&) _THROW0()

  00000	8b c1		 mov	 eax, ecx

; 166  : 		{	// construct by copying (do nothing)
; 167  : 		}

  00002	c2 04 00	 ret	 4
??0?$allocator@VioHashString@@@std@@QAE@ABV01@@Z ENDP	; std::allocator<ioHashString>::allocator<ioHashString>
_TEXT	ENDS
PUBLIC	?DecryptValueToPool@?$CEncrypt@H@@QAEXPAH@Z	; CEncrypt<int>::DecryptValueToPool
EXTRN	?DecryptByte@ccddaabb@@QBEXPBDPADH@Z:PROC	; ccddaabb::DecryptByte
; Function compile flags: /Ogsp
; File d:\lost saga for developer\youtube\tutorial\source\src\lsclient\encryptvalue.h
;	COMDAT ?DecryptValueToPool@?$CEncrypt@H@@QAEXPAH@Z
_TEXT	SEGMENT
_value$ = 8						; size = 4
?DecryptValueToPool@?$CEncrypt@H@@QAEXPAH@Z PROC	; CEncrypt<int>::DecryptValueToPool, COMDAT
; _this$ = ecx

; 837  : 	{

  00000	55		 push	 ebp
  00001	8b ec		 mov	 ebp, esp
  00003	56		 push	 esi

; 838  : 		m_RC5.DecryptByte( m_MemPool, m_TempMem, 4 );

  00004	8d 71 28	 lea	 esi, DWORD PTR [ecx+40]
  00007	6a 04		 push	 4
  00009	8d 41 1c	 lea	 eax, DWORD PTR [ecx+28]
  0000c	56		 push	 esi
  0000d	50		 push	 eax
  0000e	83 c1 0c	 add	 ecx, 12			; 0000000cH
  00011	e8 00 00 00 00	 call	 ?DecryptByte@ccddaabb@@QBEXPBDPADH@Z ; ccddaabb::DecryptByte

; 839  : 		*value = *((int*)m_TempMem);

  00016	8b 06		 mov	 eax, DWORD PTR [esi]
  00018	8b 4d 08	 mov	 ecx, DWORD PTR _value$[ebp]
  0001b	89 01		 mov	 DWORD PTR [ecx], eax
  0001d	5e		 pop	 esi

; 840  : 	}

  0001e	5d		 pop	 ebp
  0001f	c2 04 00	 ret	 4
?DecryptValueToPool@?$CEncrypt@H@@QAEXPAH@Z ENDP	; CEncrypt<int>::DecryptValueToPool
_TEXT	ENDS
PUBLIC	??_C@_0BD@OLBABOEK@vector?$DMT?$DO?5too?5long?$AA@ ; `string'
PUBLIC	?_Xlen@?$vector@VioHashString@@V?$allocator@VioHashString@@@std@@@std@@IBEXXZ ; std::vector<ioHashString,std::allocator<ioHashString> >::_Xlen
EXTRN	__imp_?_Xlength_error@std@@YAXPBD@Z:PROC
;	COMDAT ??_C@_0BD@OLBABOEK@vector?$DMT?$DO?5too?5long?$AA@
; File c:\program files (x86)\microsoft visual studio 10.0\vc\include\vector
CONST	SEGMENT
??_C@_0BD@OLBABOEK@vector?$DMT?$DO?5too?5long?$AA@ DB 'vector<T> too long'
	DB	00H						; `string'
; Function compile flags: /Ogsp
CONST	ENDS
;	COMDAT ?_Xlen@?$vector@VioHashString@@V?$allocator@VioHashString@@@std@@@std@@IBEXXZ
_TEXT	SEGMENT
?_Xlen@?$vector@VioHashString@@V?$allocator@VioHashString@@@std@@@std@@IBEXXZ PROC ; std::vector<ioHashString,std::allocator<ioHashString> >::_Xlen, COMDAT
; _this$ = ecx

; 1427 : 		_Xlength_error("vector<T> too long");

  00000	68 00 00 00 00	 push	 OFFSET ??_C@_0BD@OLBABOEK@vector?$DMT?$DO?5too?5long?$AA@
  00005	ff 15 00 00 00
	00		 call	 DWORD PTR __imp_?_Xlength_error@std@@YAXPBD@Z
$LN4@Xlen:
$LN3@Xlen:
  0000b	cc		 int	 3
?_Xlen@?$vector@VioHashString@@V?$allocator@VioHashString@@@std@@@std@@IBEXXZ ENDP ; std::vector<ioHashString,std::allocator<ioHashString> >::_Xlen
_TEXT	ENDS
PUBLIC	?deallocate@?$allocator@VioHashString@@@std@@QAEXPAVioHashString@@I@Z ; std::allocator<ioHashString>::deallocate
; Function compile flags: /Ogsp
; File c:\program files (x86)\microsoft visual studio 10.0\vc\include\xmemory
;	COMDAT ?deallocate@?$allocator@VioHashString@@@std@@QAEXPAVioHashString@@I@Z
_TEXT	SEGMENT
__Ptr$ = 8						; size = 4
___formal$ = 12						; size = 4
?deallocate@?$allocator@VioHashString@@@std@@QAEXPAVioHashString@@I@Z PROC ; std::allocator<ioHashString>::deallocate, COMDAT
; _this$ = ecx

; 181  : 		{	// deallocate object at _Ptr, ignore size

  00000	55		 push	 ebp
  00001	8b ec		 mov	 ebp, esp

; 182  : 		::operator delete(_Ptr);

  00003	ff 75 08	 push	 DWORD PTR __Ptr$[ebp]
  00006	e8 00 00 00 00	 call	 ??3@YAXPAX@Z		; operator delete
  0000b	59		 pop	 ecx

; 183  : 		}

  0000c	5d		 pop	 ebp
  0000d	c2 08 00	 ret	 8
?deallocate@?$allocator@VioHashString@@@std@@QAEXPAVioHashString@@I@Z ENDP ; std::allocator<ioHashString>::deallocate
_TEXT	ENDS
PUBLIC	??0?$_Vector_const_iterator@V?$_Vector_val@VioHashString@@V?$allocator@VioHashString@@@std@@@std@@@std@@QAE@PAVioHashString@@PBU_Container_base0@1@@Z ; std::_Vector_const_iterator<std::_Vector_val<ioHashString,std::allocator<ioHashString> > >::_Vector_const_iterator<std::_Vector_val<ioHashString,std::allocator<ioHashString> > >
; Function compile flags: /Ogsp
; File c:\program files (x86)\microsoft visual studio 10.0\vc\include\vector
;	COMDAT ??0?$_Vector_const_iterator@V?$_Vector_val@VioHashString@@V?$allocator@VioHashString@@@std@@@std@@@std@@QAE@PAVioHashString@@PBU_Container_base0@1@@Z
_TEXT	SEGMENT
__Parg$ = 8						; size = 4
__Pvector$ = 12						; size = 4
??0?$_Vector_const_iterator@V?$_Vector_val@VioHashString@@V?$allocator@VioHashString@@@std@@@std@@@std@@QAE@PAVioHashString@@PBU_Container_base0@1@@Z PROC ; std::_Vector_const_iterator<std::_Vector_val<ioHashString,std::allocator<ioHashString> > >::_Vector_const_iterator<std::_Vector_val<ioHashString,std::allocator<ioHashString> > >, COMDAT
; _this$ = ecx

; 45   : 		{	// construct with pointer _Parg

  00000	55		 push	 ebp
  00001	8b ec		 mov	 ebp, esp
  00003	8b c1		 mov	 eax, ecx
  00005	8b 4d 08	 mov	 ecx, DWORD PTR __Parg$[ebp]
  00008	89 08		 mov	 DWORD PTR [eax], ecx

; 46   : 		this->_Adopt(_Pvector);
; 47   : 		}

  0000a	5d		 pop	 ebp
  0000b	c2 08 00	 ret	 8
??0?$_Vector_const_iterator@V?$_Vector_val@VioHashString@@V?$allocator@VioHashString@@@std@@@std@@@std@@QAE@PAVioHashString@@PBU_Container_base0@1@@Z ENDP ; std::_Vector_const_iterator<std::_Vector_val<ioHashString,std::allocator<ioHashString> > >::_Vector_const_iterator<std::_Vector_val<ioHashString,std::allocator<ioHashString> > >
_TEXT	ENDS
PUBLIC	??0?$_Vector_iterator@V?$_Vector_val@VioHashString@@V?$allocator@VioHashString@@@std@@@std@@@std@@QAE@PAVioHashString@@PBU_Container_base0@1@@Z ; std::_Vector_iterator<std::_Vector_val<ioHashString,std::allocator<ioHashString> > >::_Vector_iterator<std::_Vector_val<ioHashString,std::allocator<ioHashString> > >
; Function compile flags: /Ogsp
;	COMDAT ??0?$_Vector_iterator@V?$_Vector_val@VioHashString@@V?$allocator@VioHashString@@@std@@@std@@@std@@QAE@PAVioHashString@@PBU_Container_base0@1@@Z
_TEXT	SEGMENT
__Parg$ = 8						; size = 4
__Pvector$ = 12						; size = 4
??0?$_Vector_iterator@V?$_Vector_val@VioHashString@@V?$allocator@VioHashString@@@std@@@std@@@std@@QAE@PAVioHashString@@PBU_Container_base0@1@@Z PROC ; std::_Vector_iterator<std::_Vector_val<ioHashString,std::allocator<ioHashString> > >::_Vector_iterator<std::_Vector_val<ioHashString,std::allocator<ioHashString> > >, COMDAT
; _this$ = ecx

; 304  : 		{	// construct with pointer _Parg

  00000	55		 push	 ebp
  00001	8b ec		 mov	 ebp, esp
  00003	8b c1		 mov	 eax, ecx
  00005	8b 4d 08	 mov	 ecx, DWORD PTR __Parg$[ebp]
  00008	89 08		 mov	 DWORD PTR [eax], ecx

; 305  : 		}

  0000a	5d		 pop	 ebp
  0000b	c2 08 00	 ret	 8
??0?$_Vector_iterator@V?$_Vector_val@VioHashString@@V?$allocator@VioHashString@@@std@@@std@@@std@@QAE@PAVioHashString@@PBU_Container_base0@1@@Z ENDP ; std::_Vector_iterator<std::_Vector_val<ioHashString,std::allocator<ioHashString> > >::_Vector_iterator<std::_Vector_val<ioHashString,std::allocator<ioHashString> > >
_TEXT	ENDS
PUBLIC	?max_size@?$allocator@VioHashString@@@std@@QBEIXZ ; std::allocator<ioHashString>::max_size
; Function compile flags: /Ogsp
; File c:\program files (x86)\microsoft visual studio 10.0\vc\include\xmemory
;	COMDAT ?max_size@?$allocator@VioHashString@@@std@@QBEIXZ
_TEXT	SEGMENT
?max_size@?$allocator@VioHashString@@@std@@QBEIXZ PROC	; std::allocator<ioHashString>::max_size, COMDAT
; _this$ = ecx

; 218  : 		_SIZT _Count = (_SIZT)(-1) / sizeof (_Ty);
; 219  : 		return (0 < _Count ? _Count : 1);

  00000	b8 ff ff ff 0f	 mov	 eax, 268435455		; 0fffffffH

; 220  : 		}

  00005	c3		 ret	 0
?max_size@?$allocator@VioHashString@@@std@@QBEIXZ ENDP	; std::allocator<ioHashString>::max_size
_TEXT	ENDS
PUBLIC	?_Compat@?$_Vector_const_iterator@V?$_Vector_val@VioHashString@@V?$allocator@VioHashString@@@std@@@std@@@std@@QBEXABV12@@Z ; std::_Vector_const_iterator<std::_Vector_val<ioHashString,std::allocator<ioHashString> > >::_Compat
; Function compile flags: /Ogsp
; File c:\program files (x86)\microsoft visual studio 10.0\vc\include\vector
;	COMDAT ?_Compat@?$_Vector_const_iterator@V?$_Vector_val@VioHashString@@V?$allocator@VioHashString@@@std@@@std@@@std@@QBEXABV12@@Z
_TEXT	SEGMENT
___formal$ = 8						; size = 4
?_Compat@?$_Vector_const_iterator@V?$_Vector_val@VioHashString@@V?$allocator@VioHashString@@@std@@@std@@@std@@QBEXABV12@@Z PROC ; std::_Vector_const_iterator<std::_Vector_val<ioHashString,std::allocator<ioHashString> > >::_Compat, COMDAT
; _this$ = ecx

; 253  : 		}

  00000	c2 04 00	 ret	 4
?_Compat@?$_Vector_const_iterator@V?$_Vector_val@VioHashString@@V?$allocator@VioHashString@@@std@@@std@@@std@@QBEXABV12@@Z ENDP ; std::_Vector_const_iterator<std::_Vector_val<ioHashString,std::allocator<ioHashString> > >::_Compat
_TEXT	ENDS
PUBLIC	??$_Allocate@VioHashString@@@std@@YAPAVioHashString@@IPAV1@@Z ; std::_Allocate<ioHashString>
; Function compile flags: /Ogsp
; File c:\program files (x86)\microsoft visual studio 10.0\vc\include\xmemory
;	COMDAT ??$_Allocate@VioHashString@@@std@@YAPAVioHashString@@IPAV1@@Z
_TEXT	SEGMENT
$T511214 = -12						; size = 12
$T511218 = 8						; size = 4
__Count$ = 8						; size = 4
___formal$ = 12						; size = 4
??$_Allocate@VioHashString@@@std@@YAPAVioHashString@@IPAV1@@Z PROC ; std::_Allocate<ioHashString>, COMDAT

; 30   : 	{	// allocate storage for _Count elements of type _Ty

  00000	55		 push	 ebp
  00001	8b ec		 mov	 ebp, esp

; 31   : 	void *_Ptr = 0;
; 32   : 
; 33   : 	if (_Count <= 0)

  00003	8b 4d 08	 mov	 ecx, DWORD PTR __Count$[ebp]
  00006	83 ec 0c	 sub	 esp, 12			; 0000000cH
  00009	33 c0		 xor	 eax, eax
  0000b	85 c9		 test	 ecx, ecx

; 34   : 		_Count = 0;
; 35   : 	else if (((_SIZT)(-1) / sizeof (_Ty) < _Count)

  0000d	74 3c		 je	 SHORT $LN5@Allocate@2

; 36   : 		|| (_Ptr = ::operator new(_Count * sizeof (_Ty))) == 0)

  0000f	81 f9 ff ff ff
	0f		 cmp	 ecx, 268435455		; 0fffffffH
  00015	77 0e		 ja	 SHORT $LN1@Allocate@2
  00017	c1 e1 04	 shl	 ecx, 4
  0001a	51		 push	 ecx
  0001b	e8 00 00 00 00	 call	 ??2@YAPAXI@Z		; operator new
  00020	59		 pop	 ecx
  00021	85 c0		 test	 eax, eax

; 38   : 
; 39   : 	return ((_Ty _FARQ *)_Ptr);

  00023	75 26		 jne	 SHORT $LN5@Allocate@2
$LN1@Allocate@2:

; 37   : 		_THROW_NCEE(bad_alloc, 0);

  00025	83 65 08 00	 and	 DWORD PTR $T511218[ebp], 0
  00029	8d 45 08	 lea	 eax, DWORD PTR $T511218[ebp]
  0002c	50		 push	 eax
  0002d	8d 4d f4	 lea	 ecx, DWORD PTR $T511214[ebp]
  00030	ff 15 00 00 00
	00		 call	 DWORD PTR __imp_??0exception@std@@QAE@ABQBD@Z
  00036	68 00 00 00 00	 push	 OFFSET __TI2?AVbad_alloc@std@@
  0003b	8d 45 f4	 lea	 eax, DWORD PTR $T511214[ebp]
  0003e	50		 push	 eax
  0003f	c7 45 f4 00 00
	00 00		 mov	 DWORD PTR $T511214[ebp], OFFSET ??_7bad_alloc@std@@6B@
  00046	e8 00 00 00 00	 call	 __CxxThrowException@8
$LN10@Allocate@2:
$LN5@Allocate@2:

; 40   : 	}

  0004b	c9		 leave
  0004c	c3		 ret	 0
$LN9@Allocate@2:
??$_Allocate@VioHashString@@@std@@YAPAVioHashString@@IPAV1@@Z ENDP ; std::_Allocate<ioHashString>
_TEXT	ENDS
EXTRN	__imp_??0exception@std@@QAE@ABV01@@Z:PROC
; Function compile flags: /Ogsp
;	COMDAT ??0bad_alloc@std@@QAE@ABV01@@Z
_TEXT	SEGMENT
___that$ = 8						; size = 4
??0bad_alloc@std@@QAE@ABV01@@Z PROC			; std::bad_alloc::bad_alloc, COMDAT
; _this$ = ecx
  00000	55		 push	 ebp
  00001	8b ec		 mov	 ebp, esp
  00003	56		 push	 esi
  00004	ff 75 08	 push	 DWORD PTR ___that$[ebp]
  00007	8b f1		 mov	 esi, ecx
  00009	ff 15 00 00 00
	00		 call	 DWORD PTR __imp_??0exception@std@@QAE@ABV01@@Z
  0000f	c7 06 00 00 00
	00		 mov	 DWORD PTR [esi], OFFSET ??_7bad_alloc@std@@6B@
  00015	8b c6		 mov	 eax, esi
  00017	5e		 pop	 esi
  00018	5d		 pop	 ebp
  00019	c2 04 00	 ret	 4
??0bad_alloc@std@@QAE@ABV01@@Z ENDP			; std::bad_alloc::bad_alloc
_TEXT	ENDS
PUBLIC	??$forward@AAVioHashString@@@std@@YAAAVioHashString@@AAV1@@Z ; std::forward<ioHashString &>
; Function compile flags: /Ogsp
; File c:\program files (x86)\microsoft visual studio 10.0\vc\include\utility
;	COMDAT ??$forward@AAVioHashString@@@std@@YAAAVioHashString@@AAV1@@Z
_TEXT	SEGMENT
__Arg$ = 8						; size = 4
??$forward@AAVioHashString@@@std@@YAAAVioHashString@@AAV1@@Z PROC ; std::forward<ioHashString &>, COMDAT

; 78   : 	{	// forward _Arg, given explicitly specified type parameter

  00000	55		 push	 ebp
  00001	8b ec		 mov	 ebp, esp

; 79   : 	return ((_Ty&&)_Arg);

  00003	8b 45 08	 mov	 eax, DWORD PTR __Arg$[ebp]

; 80   : 	}

  00006	5d		 pop	 ebp
  00007	c3		 ret	 0
??$forward@AAVioHashString@@@std@@YAAAVioHashString@@AAV1@@Z ENDP ; std::forward<ioHashString &>
_TEXT	ENDS
PUBLIC	??$_Ptr_cat@VioHashString@@V1@@std@@YA?AU_Nonscalar_ptr_iterator_tag@0@PAVioHashString@@0@Z ; std::_Ptr_cat<ioHashString,ioHashString>
; Function compile flags: /Ogsp
; File c:\program files (x86)\microsoft visual studio 10.0\vc\include\xutility
;	COMDAT ??$_Ptr_cat@VioHashString@@V1@@std@@YA?AU_Nonscalar_ptr_iterator_tag@0@PAVioHashString@@0@Z
_TEXT	SEGMENT
__Cat$ = -1						; size = 1
___formal$ = 8						; size = 4
___formal$ = 12						; size = 4
??$_Ptr_cat@VioHashString@@V1@@std@@YA?AU_Nonscalar_ptr_iterator_tag@0@PAVioHashString@@0@Z PROC ; std::_Ptr_cat<ioHashString,ioHashString>, COMDAT

; 516  : 	{	// return pointer category from pointers

  00000	55		 push	 ebp
  00001	8b ec		 mov	 ebp, esp
  00003	51		 push	 ecx

; 517  : 	typename _Ptr_cat_helper<_Elem1, _Elem2>::_Type _Cat;
; 518  : 	return (_Cat);

  00004	8a 45 ff	 mov	 al, BYTE PTR __Cat$[ebp]

; 519  : 	}

  00007	c9		 leave
  00008	c3		 ret	 0
??$_Ptr_cat@VioHashString@@V1@@std@@YA?AU_Nonscalar_ptr_iterator_tag@0@PAVioHashString@@0@Z ENDP ; std::_Ptr_cat<ioHashString,ioHashString>
_TEXT	ENDS
PUBLIC	??$_Move@AAD@std@@YA$$QADAAD@Z			; std::_Move<char &>
; Function compile flags: /Ogsp
; File c:\program files (x86)\microsoft visual studio 10.0\vc\include\utility
;	COMDAT ??$_Move@AAD@std@@YA$$QADAAD@Z
_TEXT	SEGMENT
__Arg$ = 8						; size = 4
??$_Move@AAD@std@@YA$$QADAAD@Z PROC			; std::_Move<char &>, COMDAT

; 94   : 	{	// forward _Arg as movable

  00000	55		 push	 ebp
  00001	8b ec		 mov	 ebp, esp

; 95   : 	return ((typename tr1::_Remove_reference<_Ty>::_Type&&)_Arg);

  00003	8b 45 08	 mov	 eax, DWORD PTR __Arg$[ebp]

; 96   : 	}

  00006	5d		 pop	 ebp
  00007	c3		 ret	 0
??$_Move@AAD@std@@YA$$QADAAD@Z ENDP			; std::_Move<char &>
_TEXT	ENDS
PUBLIC	??$move@AA_N@std@@YA$$QA_NAA_N@Z		; std::move<bool &>
; Function compile flags: /Ogsp
;	COMDAT ??$move@AA_N@std@@YA$$QA_NAA_N@Z
_TEXT	SEGMENT
__Arg$ = 8						; size = 4
??$move@AA_N@std@@YA$$QA_NAA_N@Z PROC			; std::move<bool &>, COMDAT

; 86   : 	{	// forward _Arg as movable

  00000	55		 push	 ebp
  00001	8b ec		 mov	 ebp, esp

; 87   : 	return ((typename tr1::_Remove_reference<_Ty>::_Type&&)_Arg);

  00003	8b 45 08	 mov	 eax, DWORD PTR __Arg$[ebp]

; 88   : 	}

  00006	5d		 pop	 ebp
  00007	c3		 ret	 0
??$move@AA_N@std@@YA$$QA_NAA_N@Z ENDP			; std::move<bool &>
_TEXT	ENDS
PUBLIC	??$move@AAVioHashString@@@std@@YA$$QAVioHashString@@AAV1@@Z ; std::move<ioHashString &>
; Function compile flags: /Ogsp
;	COMDAT ??$move@AAVioHashString@@@std@@YA$$QAVioHashString@@AAV1@@Z
_TEXT	SEGMENT
__Arg$ = 8						; size = 4
??$move@AAVioHashString@@@std@@YA$$QAVioHashString@@AAV1@@Z PROC ; std::move<ioHashString &>, COMDAT

; 86   : 	{	// forward _Arg as movable

  00000	55		 push	 ebp
  00001	8b ec		 mov	 ebp, esp

; 87   : 	return ((typename tr1::_Remove_reference<_Ty>::_Type&&)_Arg);

  00003	8b 45 08	 mov	 eax, DWORD PTR __Arg$[ebp]

; 88   : 	}

  00006	5d		 pop	 ebp
  00007	c3		 ret	 0
??$move@AAVioHashString@@@std@@YA$$QAVioHashString@@AAV1@@Z ENDP ; std::move<ioHashString &>
_TEXT	ENDS
PUBLIC	??$forward@_N@std@@YA$$QA_NAA_N@Z		; std::forward<bool>
; Function compile flags: /Ogsp
;	COMDAT ??$forward@_N@std@@YA$$QA_NAA_N@Z
_TEXT	SEGMENT
__Arg$ = 8						; size = 4
??$forward@_N@std@@YA$$QA_NAA_N@Z PROC			; std::forward<bool>, COMDAT

; 78   : 	{	// forward _Arg, given explicitly specified type parameter

  00000	55		 push	 ebp
  00001	8b ec		 mov	 ebp, esp

; 79   : 	return ((_Ty&&)_Arg);

  00003	8b 45 08	 mov	 eax, DWORD PTR __Arg$[ebp]

; 80   : 	}

  00006	5d		 pop	 ebp
  00007	c3		 ret	 0
??$forward@_N@std@@YA$$QA_NAA_N@Z ENDP			; std::forward<bool>
_TEXT	ENDS
PUBLIC	??D?$_Vector_const_iterator@V?$_Vector_val@VioHashString@@V?$allocator@VioHashString@@@std@@@std@@@std@@QBEABVioHashString@@XZ ; std::_Vector_const_iterator<std::_Vector_val<ioHashString,std::allocator<ioHashString> > >::operator*
; Function compile flags: /Ogsp
; File c:\program files (x86)\microsoft visual studio 10.0\vc\include\vector
;	COMDAT ??D?$_Vector_const_iterator@V?$_Vector_val@VioHashString@@V?$allocator@VioHashString@@@std@@@std@@@std@@QBEABVioHashString@@XZ
_TEXT	SEGMENT
??D?$_Vector_const_iterator@V?$_Vector_val@VioHashString@@V?$allocator@VioHashString@@@std@@@std@@@std@@QBEABVioHashString@@XZ PROC ; std::_Vector_const_iterator<std::_Vector_val<ioHashString,std::allocator<ioHashString> > >::operator*, COMDAT
; _this$ = ecx

; 64   :  #if _ITERATOR_DEBUG_LEVEL == 2
; 65   : 		if (this->_Getcont() == 0
; 66   : 			|| this->_Ptr == 0
; 67   : 			|| this->_Ptr < ((_Myvec *)this->_Getcont())->_Myfirst
; 68   : 			|| ((_Myvec *)this->_Getcont())->_Mylast <= this->_Ptr)
; 69   : 			{	// report error
; 70   : 			_DEBUG_ERROR("vector iterator not dereferencable");
; 71   : 			_SCL_SECURE_OUT_OF_RANGE;
; 72   : 			}
; 73   : 
; 74   :  #elif _ITERATOR_DEBUG_LEVEL == 1
; 75   : 		_SCL_SECURE_VALIDATE(this->_Getcont() != 0);
; 76   : 		_SCL_SECURE_VALIDATE_RANGE(
; 77   : 			this->_Ptr != 0
; 78   : 			&& ((_Myvec *)this->_Getcont())->_Myfirst <= this->_Ptr
; 79   : 			&& this->_Ptr < ((_Myvec *)this->_Getcont())->_Mylast);
; 80   :  #endif /* _ITERATOR_DEBUG_LEVEL */
; 81   : 
; 82   : 		__analysis_assume(this->_Ptr != 0);
; 83   : 
; 84   : 		return (*this->_Ptr);

  00000	8b 01		 mov	 eax, DWORD PTR [ecx]

; 85   : 		}

  00002	c3		 ret	 0
??D?$_Vector_const_iterator@V?$_Vector_val@VioHashString@@V?$allocator@VioHashString@@@std@@@std@@@std@@QBEABVioHashString@@XZ ENDP ; std::_Vector_const_iterator<std::_Vector_val<ioHashString,std::allocator<ioHashString> > >::operator*
_TEXT	ENDS
PUBLIC	??E?$_Vector_const_iterator@V?$_Vector_val@VioHashString@@V?$allocator@VioHashString@@@std@@@std@@@std@@QAEAAV01@XZ ; std::_Vector_const_iterator<std::_Vector_val<ioHashString,std::allocator<ioHashString> > >::operator++
; Function compile flags: /Ogsp
;	COMDAT ??E?$_Vector_const_iterator@V?$_Vector_val@VioHashString@@V?$allocator@VioHashString@@@std@@@std@@@std@@QAEAAV01@XZ
_TEXT	SEGMENT
??E?$_Vector_const_iterator@V?$_Vector_val@VioHashString@@V?$allocator@VioHashString@@@std@@@std@@@std@@QAEAAV01@XZ PROC ; std::_Vector_const_iterator<std::_Vector_val<ioHashString,std::allocator<ioHashString> > >::operator++, COMDAT
; _this$ = ecx

; 93   : 		{	// preincrement

  00000	8b c1		 mov	 eax, ecx

; 94   :  #if _ITERATOR_DEBUG_LEVEL == 2
; 95   : 		if (this->_Getcont() == 0
; 96   : 			|| this->_Ptr == 0
; 97   : 			|| ((_Myvec *)this->_Getcont())->_Mylast <= this->_Ptr)
; 98   : 			{	// report error
; 99   : 			_DEBUG_ERROR("vector iterator not incrementable");
; 100  : 			_SCL_SECURE_OUT_OF_RANGE;
; 101  : 			}
; 102  : 
; 103  :  #elif _ITERATOR_DEBUG_LEVEL == 1
; 104  : 		_SCL_SECURE_VALIDATE(this->_Getcont() != 0);
; 105  : 		_SCL_SECURE_VALIDATE_RANGE(
; 106  : 			this->_Ptr != 0
; 107  : 			&& this->_Ptr < ((_Myvec *)this->_Getcont())->_Mylast);
; 108  :  #endif /* _ITERATOR_DEBUG_LEVEL */
; 109  : 
; 110  : 		++this->_Ptr;

  00002	83 00 10	 add	 DWORD PTR [eax], 16	; 00000010H

; 111  : 		return (*this);
; 112  : 		}

  00005	c3		 ret	 0
??E?$_Vector_const_iterator@V?$_Vector_val@VioHashString@@V?$allocator@VioHashString@@@std@@@std@@@std@@QAEAAV01@XZ ENDP ; std::_Vector_const_iterator<std::_Vector_val<ioHashString,std::allocator<ioHashString> > >::operator++
_TEXT	ENDS
PUBLIC	??_GioHashString@@QAEPAXI@Z			; ioHashString::`scalar deleting destructor'
; Function compile flags: /Ogsp
;	COMDAT ??_GioHashString@@QAEPAXI@Z
_TEXT	SEGMENT
___flags$ = 8						; size = 4
??_GioHashString@@QAEPAXI@Z PROC			; ioHashString::`scalar deleting destructor', COMDAT
; _this$ = ecx
  00000	55		 push	 ebp
  00001	8b ec		 mov	 ebp, esp
  00003	56		 push	 esi
  00004	8b f1		 mov	 esi, ecx
  00006	ff 15 00 00 00
	00		 call	 DWORD PTR __imp_??1ioHashString@@QAE@XZ
  0000c	f6 45 08 01	 test	 BYTE PTR ___flags$[ebp], 1
  00010	74 07		 je	 SHORT $LN1@scalar@2
  00012	56		 push	 esi
  00013	e8 00 00 00 00	 call	 ??3@YAXPAX@Z		; operator delete
  00018	59		 pop	 ecx
$LN1@scalar@2:
  00019	8b c6		 mov	 eax, esi
  0001b	5e		 pop	 esi
  0001c	5d		 pop	 ebp
  0001d	c2 04 00	 ret	 4
??_GioHashString@@QAEPAXI@Z ENDP			; ioHashString::`scalar deleting destructor'
_TEXT	ENDS
PUBLIC	?PlayRandomTalk@io3DCharEmoticon@@IAEXABV?$vector@VioHashString@@V?$allocator@VioHashString@@@std@@@std@@@Z ; io3DCharEmoticon::PlayRandomTalk
EXTRN	__imp__rand:PROC
EXTRN	__imp_?Clear@ioHashString@@QAEXXZ:PROC
; Function compile flags: /Ogsp
; File d:\lost saga for developer\youtube\tutorial\source\src\lsclient\io3dcharemoticon.cpp
;	COMDAT ?PlayRandomTalk@io3DCharEmoticon@@IAEXABV?$vector@VioHashString@@V?$allocator@VioHashString@@@std@@@std@@@Z
_TEXT	SEGMENT
_rkList$ = 8						; size = 4
?PlayRandomTalk@io3DCharEmoticon@@IAEXABV?$vector@VioHashString@@V?$allocator@VioHashString@@@std@@@std@@@Z PROC ; io3DCharEmoticon::PlayRandomTalk, COMDAT
; _this$ = ecx

; 356  : {

  00000	55		 push	 ebp
  00001	8b ec		 mov	 ebp, esp
  00003	56		 push	 esi
  00004	57		 push	 edi

; 357  : 	m_CurChatSound.Clear();

  00005	8d 79 30	 lea	 edi, DWORD PTR [ecx+48]
  00008	8b cf		 mov	 ecx, edi
  0000a	ff 15 00 00 00
	00		 call	 DWORD PTR __imp_?Clear@ioHashString@@QAEXXZ

; 358  : 
; 359  : 	if( !rkList.empty() )

  00010	8b 75 08	 mov	 esi, DWORD PTR _rkList$[ebp]
  00013	8b 0e		 mov	 ecx, DWORD PTR [esi]
  00015	8b 46 04	 mov	 eax, DWORD PTR [esi+4]
  00018	3b c8		 cmp	 ecx, eax
  0001a	74 20		 je	 SHORT $LN1@PlayRandom

; 360  : 	{
; 361  : 		int iSoundCount = rkList.size();

  0001c	2b c1		 sub	 eax, ecx
  0001e	c1 f8 04	 sar	 eax, 4
  00021	53		 push	 ebx
  00022	8b d8		 mov	 ebx, eax

; 362  : 		int iSoundIdx = rand() % iSoundCount;

  00024	ff 15 00 00 00
	00		 call	 DWORD PTR __imp__rand
  0002a	99		 cdq
  0002b	f7 fb		 idiv	 ebx

; 363  : 		m_CurChatSound = rkList[iSoundIdx];

  0002d	8b cf		 mov	 ecx, edi
  0002f	c1 e2 04	 shl	 edx, 4
  00032	03 16		 add	 edx, DWORD PTR [esi]
  00034	52		 push	 edx
  00035	ff 15 00 00 00
	00		 call	 DWORD PTR __imp_??4ioHashString@@QAEAAV0@ABV0@@Z
  0003b	5b		 pop	 ebx
$LN1@PlayRandom:
  0003c	5f		 pop	 edi
  0003d	5e		 pop	 esi

; 364  : 	}
; 365  : }

  0003e	5d		 pop	 ebp
  0003f	c2 04 00	 ret	 4
?PlayRandomTalk@io3DCharEmoticon@@IAEXABV?$vector@VioHashString@@V?$allocator@VioHashString@@@std@@@std@@@Z ENDP ; io3DCharEmoticon::PlayRandomTalk
_TEXT	ENDS
PUBLIC	?empty@?$_Tree@V?$_Tmap_traits@HV?$vector@VioHashString@@V?$allocator@VioHashString@@@std@@@std@@U?$less@H@2@V?$allocator@U?$pair@$$CBHV?$vector@VioHashString@@V?$allocator@VioHashString@@@std@@@std@@@std@@@2@$0A@@std@@@std@@QBE_NXZ ; std::_Tree<std::_Tmap_traits<int,std::vector<ioHashString,std::allocator<ioHashString> >,std::less<int>,std::allocator<std::pair<int const ,std::vector<ioHashString,std::allocator<ioHashString> > > >,0> >::empty
; Function compile flags: /Ogsp
; File c:\program files (x86)\microsoft visual studio 10.0\vc\include\xtree
;	COMDAT ?empty@?$_Tree@V?$_Tmap_traits@HV?$vector@VioHashString@@V?$allocator@VioHashString@@@std@@@std@@U?$less@H@2@V?$allocator@U?$pair@$$CBHV?$vector@VioHashString@@V?$allocator@VioHashString@@@std@@@std@@@std@@@2@$0A@@std@@@std@@QBE_NXZ
_TEXT	SEGMENT
?empty@?$_Tree@V?$_Tmap_traits@HV?$vector@VioHashString@@V?$allocator@VioHashString@@@std@@@std@@U?$less@H@2@V?$allocator@U?$pair@$$CBHV?$vector@VioHashString@@V?$allocator@VioHashString@@@std@@@std@@@std@@@2@$0A@@std@@@std@@QBE_NXZ PROC ; std::_Tree<std::_Tmap_traits<int,std::vector<ioHashString,std::allocator<ioHashString> >,std::less<int>,std::allocator<std::pair<int const ,std::vector<ioHashString,std::allocator<ioHashString> > > >,0> >::empty, COMDAT
; _this$ = ecx

; 879  : 		return (size() == 0);

  00000	33 c0		 xor	 eax, eax
  00002	39 41 08	 cmp	 DWORD PTR [ecx+8], eax
  00005	0f 94 c0	 sete	 al

; 880  : 		}

  00008	c3		 ret	 0
?empty@?$_Tree@V?$_Tmap_traits@HV?$vector@VioHashString@@V?$allocator@VioHashString@@@std@@@std@@U?$less@H@2@V?$allocator@U?$pair@$$CBHV?$vector@VioHashString@@V?$allocator@VioHashString@@@std@@@std@@@std@@@2@$0A@@std@@@std@@QBE_NXZ ENDP ; std::_Tree<std::_Tmap_traits<int,std::vector<ioHashString,std::allocator<ioHashString> >,std::less<int>,std::allocator<std::pair<int const ,std::vector<ioHashString,std::allocator<ioHashString> > > >,0> >::empty
_TEXT	ENDS
PUBLIC	??9?$_Tree_const_iterator@V?$_Tree_val@V?$_Tmap_traits@HV?$vector@VioHashString@@V?$allocator@VioHashString@@@std@@@std@@U?$less@H@2@V?$allocator@U?$pair@$$CBHV?$vector@VioHashString@@V?$allocator@VioHashString@@@std@@@std@@@std@@@2@$0A@@std@@@std@@@std@@QBE_NABV01@@Z ; std::_Tree_const_iterator<std::_Tree_val<std::_Tmap_traits<int,std::vector<ioHashString,std::allocator<ioHashString> >,std::less<int>,std::allocator<std::pair<int const ,std::vector<ioHashString,std::allocator<ioHashString> > > >,0> > >::operator!=
; Function compile flags: /Ogsp
;	COMDAT ??9?$_Tree_const_iterator@V?$_Tree_val@V?$_Tmap_traits@HV?$vector@VioHashString@@V?$allocator@VioHashString@@@std@@@std@@U?$less@H@2@V?$allocator@U?$pair@$$CBHV?$vector@VioHashString@@V?$allocator@VioHashString@@@std@@@std@@@std@@@2@$0A@@std@@@std@@@std@@QBE_NABV01@@Z
_TEXT	SEGMENT
__Right$ = 8						; size = 4
??9?$_Tree_const_iterator@V?$_Tree_val@V?$_Tmap_traits@HV?$vector@VioHashString@@V?$allocator@VioHashString@@@std@@@std@@U?$less@H@2@V?$allocator@U?$pair@$$CBHV?$vector@VioHashString@@V?$allocator@VioHashString@@@std@@@std@@@std@@@2@$0A@@std@@@std@@@std@@QBE_NABV01@@Z PROC ; std::_Tree_const_iterator<std::_Tree_val<std::_Tmap_traits<int,std::vector<ioHashString,std::allocator<ioHashString> >,std::less<int>,std::allocator<std::pair<int const ,std::vector<ioHashString,std::allocator<ioHashString> > > >,0> > >::operator!=, COMDAT
; _this$ = ecx

; 334  : 		{	// test for iterator inequality

  00000	55		 push	 ebp
  00001	8b ec		 mov	 ebp, esp

; 335  : 		return (!(*this == _Right));

  00003	8b 01		 mov	 eax, DWORD PTR [ecx]
  00005	8b 55 08	 mov	 edx, DWORD PTR __Right$[ebp]
  00008	33 c9		 xor	 ecx, ecx
  0000a	3b 02		 cmp	 eax, DWORD PTR [edx]
  0000c	0f 95 c0	 setne	 al

; 336  : 		}

  0000f	5d		 pop	 ebp
  00010	c2 04 00	 ret	 4
??9?$_Tree_const_iterator@V?$_Tree_val@V?$_Tmap_traits@HV?$vector@VioHashString@@V?$allocator@VioHashString@@@std@@@std@@U?$less@H@2@V?$allocator@U?$pair@$$CBHV?$vector@VioHashString@@V?$allocator@VioHashString@@@std@@@std@@@std@@@2@$0A@@std@@@std@@@std@@QBE_NABV01@@Z ENDP ; std::_Tree_const_iterator<std::_Tree_val<std::_Tmap_traits<int,std::vector<ioHashString,std::allocator<ioHashString> >,std::less<int>,std::allocator<std::pair<int const ,std::vector<ioHashString,std::allocator<ioHashString> > > >,0> > >::operator!=
_TEXT	ENDS
PUBLIC	?_Lmost@?$_Tree@V?$_Tmap_traits@HV?$vector@VioHashString@@V?$allocator@VioHashString@@@std@@@std@@U?$less@H@2@V?$allocator@U?$pair@$$CBHV?$vector@VioHashString@@V?$allocator@VioHashString@@@std@@@std@@@std@@@2@$0A@@std@@@std@@IBEAAPAU_Node@?$_Tree_nod@V?$_Tmap_traits@HV?$vector@VioHashString@@V?$allocator@VioHashString@@@std@@@std@@U?$less@H@2@V?$allocator@U?$pair@$$CBHV?$vector@VioHashString@@V?$allocator@VioHashString@@@std@@@std@@@std@@@2@$0A@@std@@@2@XZ ; std::_Tree<std::_Tmap_traits<int,std::vector<ioHashString,std::allocator<ioHashString> >,std::less<int>,std::allocator<std::pair<int const ,std::vector<ioHashString,std::allocator<ioHashString> > > >,0> >::_Lmost
; Function compile flags: /Ogsp
;	COMDAT ?_Lmost@?$_Tree@V?$_Tmap_traits@HV?$vector@VioHashString@@V?$allocator@VioHashString@@@std@@@std@@U?$less@H@2@V?$allocator@U?$pair@$$CBHV?$vector@VioHashString@@V?$allocator@VioHashString@@@std@@@std@@@std@@@2@$0A@@std@@@std@@IBEAAPAU_Node@?$_Tree_nod@V?$_Tmap_traits@HV?$vector@VioHashString@@V?$allocator@VioHashString@@@std@@@std@@U?$less@H@2@V?$allocator@U?$pair@$$CBHV?$vector@VioHashString@@V?$allocator@VioHashString@@@std@@@std@@@std@@@2@$0A@@std@@@2@XZ
_TEXT	SEGMENT
?_Lmost@?$_Tree@V?$_Tmap_traits@HV?$vector@VioHashString@@V?$allocator@VioHashString@@@std@@@std@@U?$less@H@2@V?$allocator@U?$pair@$$CBHV?$vector@VioHashString@@V?$allocator@VioHashString@@@std@@@std@@@std@@@2@$0A@@std@@@std@@IBEAAPAU_Node@?$_Tree_nod@V?$_Tmap_traits@HV?$vector@VioHashString@@V?$allocator@VioHashString@@@std@@@std@@U?$less@H@2@V?$allocator@U?$pair@$$CBHV?$vector@VioHashString@@V?$allocator@VioHashString@@@std@@@std@@@std@@@2@$0A@@std@@@2@XZ PROC ; std::_Tree<std::_Tmap_traits<int,std::vector<ioHashString,std::allocator<ioHashString> >,std::less<int>,std::allocator<std::pair<int const ,std::vector<ioHashString,std::allocator<ioHashString> > > >,0> >::_Lmost, COMDAT
; _this$ = ecx

; 1759 : 		return (this->_Left(this->_Myhead));

  00000	8b 41 04	 mov	 eax, DWORD PTR [ecx+4]

; 1760 : 		}

  00003	c3		 ret	 0
?_Lmost@?$_Tree@V?$_Tmap_traits@HV?$vector@VioHashString@@V?$allocator@VioHashString@@@std@@@std@@U?$less@H@2@V?$allocator@U?$pair@$$CBHV?$vector@VioHashString@@V?$allocator@VioHashString@@@std@@@std@@@std@@@2@$0A@@std@@@std@@IBEAAPAU_Node@?$_Tree_nod@V?$_Tmap_traits@HV?$vector@VioHashString@@V?$allocator@VioHashString@@@std@@@std@@U?$less@H@2@V?$allocator@U?$pair@$$CBHV?$vector@VioHashString@@V?$allocator@VioHashString@@@std@@@std@@@std@@@2@$0A@@std@@@2@XZ ENDP ; std::_Tree<std::_Tmap_traits<int,std::vector<ioHashString,std::allocator<ioHashString> >,std::less<int>,std::allocator<std::pair<int const ,std::vector<ioHashString,std::allocator<ioHashString> > > >,0> >::_Lmost
_TEXT	ENDS
PUBLIC	??1?$_Tree_val@V?$_Tmap_traits@HV?$vector@VioHashString@@V?$allocator@VioHashString@@@std@@@std@@U?$less@H@2@V?$allocator@U?$pair@$$CBHV?$vector@VioHashString@@V?$allocator@VioHashString@@@std@@@std@@@std@@@2@$0A@@std@@@std@@QAE@XZ ; std::_Tree_val<std::_Tmap_traits<int,std::vector<ioHashString,std::allocator<ioHashString> >,std::less<int>,std::allocator<std::pair<int const ,std::vector<ioHashString,std::allocator<ioHashString> > > >,0> >::~_Tree_val<std::_Tmap_traits<int,std::vector<ioHashString,std::allocator<ioHashString> >,std::less<int>,std::allocator<std::pair<int const ,std::vector<ioHashString,std::allocator<ioHashString> > > >,0> >
; Function compile flags: /Ogsp
;	COMDAT ??1?$_Tree_val@V?$_Tmap_traits@HV?$vector@VioHashString@@V?$allocator@VioHashString@@@std@@@std@@U?$less@H@2@V?$allocator@U?$pair@$$CBHV?$vector@VioHashString@@V?$allocator@VioHashString@@@std@@@std@@@std@@@2@$0A@@std@@@std@@QAE@XZ
_TEXT	SEGMENT
??1?$_Tree_val@V?$_Tmap_traits@HV?$vector@VioHashString@@V?$allocator@VioHashString@@@std@@@std@@U?$less@H@2@V?$allocator@U?$pair@$$CBHV?$vector@VioHashString@@V?$allocator@VioHashString@@@std@@@std@@@std@@@2@$0A@@std@@@std@@QAE@XZ PROC ; std::_Tree_val<std::_Tmap_traits<int,std::vector<ioHashString,std::allocator<ioHashString> >,std::less<int>,std::allocator<std::pair<int const ,std::vector<ioHashString,std::allocator<ioHashString> > > >,0> >::~_Tree_val<std::_Tmap_traits<int,std::vector<ioHashString,std::allocator<ioHashString> >,std::less<int>,std::allocator<std::pair<int const ,std::vector<ioHashString,std::allocator<ioHashString> > > >,0> >, COMDAT
; _this$ = ecx

; 555  : 		this->_Alnod.deallocate(this->_Myhead, 1);

  00000	ff 71 04	 push	 DWORD PTR [ecx+4]
  00003	e8 00 00 00 00	 call	 ??3@YAXPAX@Z		; operator delete
  00008	59		 pop	 ecx

; 556  : 		}

  00009	c3		 ret	 0
??1?$_Tree_val@V?$_Tmap_traits@HV?$vector@VioHashString@@V?$allocator@VioHashString@@@std@@@std@@U?$less@H@2@V?$allocator@U?$pair@$$CBHV?$vector@VioHashString@@V?$allocator@VioHashString@@@std@@@std@@@std@@@2@$0A@@std@@@std@@QAE@XZ ENDP ; std::_Tree_val<std::_Tmap_traits<int,std::vector<ioHashString,std::allocator<ioHashString> >,std::less<int>,std::allocator<std::pair<int const ,std::vector<ioHashString,std::allocator<ioHashString> > > >,0> >::~_Tree_val<std::_Tmap_traits<int,std::vector<ioHashString,std::allocator<ioHashString> >,std::less<int>,std::allocator<std::pair<int const ,std::vector<ioHashString,std::allocator<ioHashString> > > >,0> >
_TEXT	ENDS
PUBLIC	?_Key@?$_Tree_val@V?$_Tmap_traits@HV?$vector@VioHashString@@V?$allocator@VioHashString@@@std@@@std@@U?$less@H@2@V?$allocator@U?$pair@$$CBHV?$vector@VioHashString@@V?$allocator@VioHashString@@@std@@@std@@@std@@@2@$0A@@std@@@std@@SAAAHPAU_Node@?$_Tree_nod@V?$_Tmap_traits@HV?$vector@VioHashString@@V?$allocator@VioHashString@@@std@@@std@@U?$less@H@2@V?$allocator@U?$pair@$$CBHV?$vector@VioHashString@@V?$allocator@VioHashString@@@std@@@std@@@std@@@2@$0A@@std@@@2@@Z ; std::_Tree_val<std::_Tmap_traits<int,std::vector<ioHashString,std::allocator<ioHashString> >,std::less<int>,std::allocator<std::pair<int const ,std::vector<ioHashString,std::allocator<ioHashString> > > >,0> >::_Key
; Function compile flags: /Ogsp
;	COMDAT ?_Key@?$_Tree_val@V?$_Tmap_traits@HV?$vector@VioHashString@@V?$allocator@VioHashString@@@std@@@std@@U?$less@H@2@V?$allocator@U?$pair@$$CBHV?$vector@VioHashString@@V?$allocator@VioHashString@@@std@@@std@@@std@@@2@$0A@@std@@@std@@SAAAHPAU_Node@?$_Tree_nod@V?$_Tmap_traits@HV?$vector@VioHashString@@V?$allocator@VioHashString@@@std@@@std@@U?$less@H@2@V?$allocator@U?$pair@$$CBHV?$vector@VioHashString@@V?$allocator@VioHashString@@@std@@@std@@@std@@@2@$0A@@std@@@2@@Z
_TEXT	SEGMENT
__Pnode$ = 8						; size = 4
?_Key@?$_Tree_val@V?$_Tmap_traits@HV?$vector@VioHashString@@V?$allocator@VioHashString@@@std@@@std@@U?$less@H@2@V?$allocator@U?$pair@$$CBHV?$vector@VioHashString@@V?$allocator@VioHashString@@@std@@@std@@@std@@@2@$0A@@std@@@std@@SAAAHPAU_Node@?$_Tree_nod@V?$_Tmap_traits@HV?$vector@VioHashString@@V?$allocator@VioHashString@@@std@@@std@@U?$less@H@2@V?$allocator@U?$pair@$$CBHV?$vector@VioHashString@@V?$allocator@VioHashString@@@std@@@std@@@std@@@2@$0A@@std@@@2@@Z PROC ; std::_Tree_val<std::_Tmap_traits<int,std::vector<ioHashString,std::allocator<ioHashString> >,std::less<int>,std::allocator<std::pair<int const ,std::vector<ioHashString,std::allocator<ioHashString> > > >,0> >::_Key, COMDAT

; 616  : 		{	// return reference to key in node

  00000	55		 push	 ebp
  00001	8b ec		 mov	 ebp, esp

; 617  : 		return ((key_type&)_Traits::_Kfn(_Myval(_Pnode)));

  00003	8b 45 08	 mov	 eax, DWORD PTR __Pnode$[ebp]
  00006	83 c0 0c	 add	 eax, 12			; 0000000cH

; 618  : 		}

  00009	5d		 pop	 ebp
  0000a	c3		 ret	 0
?_Key@?$_Tree_val@V?$_Tmap_traits@HV?$vector@VioHashString@@V?$allocator@VioHashString@@@std@@@std@@U?$less@H@2@V?$allocator@U?$pair@$$CBHV?$vector@VioHashString@@V?$allocator@VioHashString@@@std@@@std@@@std@@@2@$0A@@std@@@std@@SAAAHPAU_Node@?$_Tree_nod@V?$_Tmap_traits@HV?$vector@VioHashString@@V?$allocator@VioHashString@@@std@@@std@@U?$less@H@2@V?$allocator@U?$pair@$$CBHV?$vector@VioHashString@@V?$allocator@VioHashString@@@std@@@std@@@std@@@2@$0A@@std@@@2@@Z ENDP ; std::_Tree_val<std::_Tmap_traits<int,std::vector<ioHashString,std::allocator<ioHashString> >,std::less<int>,std::allocator<std::pair<int const ,std::vector<ioHashString,std::allocator<ioHashString> > > >,0> >::_Key
_TEXT	ENDS
PUBLIC	??D?$_Tree_iterator@V?$_Tree_val@V?$_Tmap_traits@HV?$vector@VioHashString@@V?$allocator@VioHashString@@@std@@@std@@U?$less@H@2@V?$allocator@U?$pair@$$CBHV?$vector@VioHashString@@V?$allocator@VioHashString@@@std@@@std@@@std@@@2@$0A@@std@@@std@@@std@@QBEAAU?$pair@$$CBHV?$vector@VioHashString@@V?$allocator@VioHashString@@@std@@@std@@@1@XZ ; std::_Tree_iterator<std::_Tree_val<std::_Tmap_traits<int,std::vector<ioHashString,std::allocator<ioHashString> >,std::less<int>,std::allocator<std::pair<int const ,std::vector<ioHashString,std::allocator<ioHashString> > > >,0> > >::operator*
; Function compile flags: /Ogsp
;	COMDAT ??D?$_Tree_iterator@V?$_Tree_val@V?$_Tmap_traits@HV?$vector@VioHashString@@V?$allocator@VioHashString@@@std@@@std@@U?$less@H@2@V?$allocator@U?$pair@$$CBHV?$vector@VioHashString@@V?$allocator@VioHashString@@@std@@@std@@@std@@@2@$0A@@std@@@std@@@std@@QBEAAU?$pair@$$CBHV?$vector@VioHashString@@V?$allocator@VioHashString@@@std@@@std@@@1@XZ
_TEXT	SEGMENT
??D?$_Tree_iterator@V?$_Tree_val@V?$_Tmap_traits@HV?$vector@VioHashString@@V?$allocator@VioHashString@@@std@@@std@@U?$less@H@2@V?$allocator@U?$pair@$$CBHV?$vector@VioHashString@@V?$allocator@VioHashString@@@std@@@std@@@std@@@2@$0A@@std@@@std@@@std@@QBEAAU?$pair@$$CBHV?$vector@VioHashString@@V?$allocator@VioHashString@@@std@@@std@@@1@XZ PROC ; std::_Tree_iterator<std::_Tree_val<std::_Tmap_traits<int,std::vector<ioHashString,std::allocator<ioHashString> >,std::less<int>,std::allocator<std::pair<int const ,std::vector<ioHashString,std::allocator<ioHashString> > > >,0> > >::operator*, COMDAT
; _this$ = ecx

; 396  : 		return ((reference)**(_Mybase *)this);

  00000	8b 01		 mov	 eax, DWORD PTR [ecx]
  00002	83 c0 0c	 add	 eax, 12			; 0000000cH

; 397  : 		}

  00005	c3		 ret	 0
??D?$_Tree_iterator@V?$_Tree_val@V?$_Tmap_traits@HV?$vector@VioHashString@@V?$allocator@VioHashString@@@std@@@std@@U?$less@H@2@V?$allocator@U?$pair@$$CBHV?$vector@VioHashString@@V?$allocator@VioHashString@@@std@@@std@@@std@@@2@$0A@@std@@@std@@@std@@QBEAAU?$pair@$$CBHV?$vector@VioHashString@@V?$allocator@VioHashString@@@std@@@std@@@1@XZ ENDP ; std::_Tree_iterator<std::_Tree_val<std::_Tmap_traits<int,std::vector<ioHashString,std::allocator<ioHashString> >,std::less<int>,std::allocator<std::pair<int const ,std::vector<ioHashString,std::allocator<ioHashString> > > >,0> > >::operator*
_TEXT	ENDS
PUBLIC	??0?$_Tree_const_iterator@V?$_Tree_val@V?$_Tmap_traits@HV?$vector@VioHashString@@V?$allocator@VioHashString@@@std@@@std@@U?$less@H@2@V?$allocator@U?$pair@$$CBHV?$vector@VioHashString@@V?$allocator@VioHashString@@@std@@@std@@@std@@@2@$0A@@std@@@std@@@std@@QAE@PAU_Node@?$_Tree_nod@V?$_Tmap_traits@HV?$vector@VioHashString@@V?$allocator@VioHashString@@@std@@@std@@U?$less@H@2@V?$allocator@U?$pair@$$CBHV?$vector@VioHashString@@V?$allocator@VioHashString@@@std@@@std@@@std@@@2@$0A@@std@@@1@PBV?$_Tree_val@V?$_Tmap_traits@HV?$vector@VioHashString@@V?$allocator@VioHashString@@@std@@@std@@U?$less@H@2@V?$allocator@U?$pair@$$CBHV?$vector@VioHashString@@V?$allocator@VioHashString@@@std@@@std@@@std@@@2@$0A@@std@@@1@@Z ; std::_Tree_const_iterator<std::_Tree_val<std::_Tmap_traits<int,std::vector<ioHashString,std::allocator<ioHashString> >,std::less<int>,std::allocator<std::pair<int const ,std::vector<ioHashString,std::allocator<ioHashString> > > >,0> > >::_Tree_const_iterator<std::_Tree_val<std::_Tmap_traits<int,std::vector<ioHashString,std::allocator<ioHashString> >,std::less<int>,std::allocator<std::pair<int const ,std::vector<ioHashString,std::allocator<ioHashString> > > >,0> > >
; Function compile flags: /Ogsp
;	COMDAT ??0?$_Tree_const_iterator@V?$_Tree_val@V?$_Tmap_traits@HV?$vector@VioHashString@@V?$allocator@VioHashString@@@std@@@std@@U?$less@H@2@V?$allocator@U?$pair@$$CBHV?$vector@VioHashString@@V?$allocator@VioHashString@@@std@@@std@@@std@@@2@$0A@@std@@@std@@@std@@QAE@PAU_Node@?$_Tree_nod@V?$_Tmap_traits@HV?$vector@VioHashString@@V?$allocator@VioHashString@@@std@@@std@@U?$less@H@2@V?$allocator@U?$pair@$$CBHV?$vector@VioHashString@@V?$allocator@VioHashString@@@std@@@std@@@std@@@2@$0A@@std@@@1@PBV?$_Tree_val@V?$_Tmap_traits@HV?$vector@VioHashString@@V?$allocator@VioHashString@@@std@@@std@@U?$less@H@2@V?$allocator@U?$pair@$$CBHV?$vector@VioHashString@@V?$allocator@VioHashString@@@std@@@std@@@std@@@2@$0A@@std@@@1@@Z
_TEXT	SEGMENT
__Pnode$ = 8						; size = 4
__Plist$ = 12						; size = 4
??0?$_Tree_const_iterator@V?$_Tree_val@V?$_Tmap_traits@HV?$vector@VioHashString@@V?$allocator@VioHashString@@@std@@@std@@U?$less@H@2@V?$allocator@U?$pair@$$CBHV?$vector@VioHashString@@V?$allocator@VioHashString@@@std@@@std@@@std@@@2@$0A@@std@@@std@@@std@@QAE@PAU_Node@?$_Tree_nod@V?$_Tmap_traits@HV?$vector@VioHashString@@V?$allocator@VioHashString@@@std@@@std@@U?$less@H@2@V?$allocator@U?$pair@$$CBHV?$vector@VioHashString@@V?$allocator@VioHashString@@@std@@@std@@@std@@@2@$0A@@std@@@1@PBV?$_Tree_val@V?$_Tmap_traits@HV?$vector@VioHashString@@V?$allocator@VioHashString@@@std@@@std@@U?$less@H@2@V?$allocator@U?$pair@$$CBHV?$vector@VioHashString@@V?$allocator@VioHashString@@@std@@@std@@@std@@@2@$0A@@std@@@1@@Z PROC ; std::_Tree_const_iterator<std::_Tree_val<std::_Tmap_traits<int,std::vector<ioHashString,std::allocator<ioHashString> >,std::less<int>,std::allocator<std::pair<int const ,std::vector<ioHashString,std::allocator<ioHashString> > > >,0> > >::_Tree_const_iterator<std::_Tree_val<std::_Tmap_traits<int,std::vector<ioHashString,std::allocator<ioHashString> >,std::less<int>,std::allocator<std::pair<int const ,std::vector<ioHashString,std::allocator<ioHashString> > > >,0> > >, COMDAT
; _this$ = ecx

; 213  : 		{	// construct with node pointer _Pnode

  00000	55		 push	 ebp
  00001	8b ec		 mov	 ebp, esp
  00003	8b c1		 mov	 eax, ecx
  00005	8b 4d 08	 mov	 ecx, DWORD PTR __Pnode$[ebp]
  00008	89 08		 mov	 DWORD PTR [eax], ecx

; 214  : 		}

  0000a	5d		 pop	 ebp
  0000b	c2 08 00	 ret	 8
??0?$_Tree_const_iterator@V?$_Tree_val@V?$_Tmap_traits@HV?$vector@VioHashString@@V?$allocator@VioHashString@@@std@@@std@@U?$less@H@2@V?$allocator@U?$pair@$$CBHV?$vector@VioHashString@@V?$allocator@VioHashString@@@std@@@std@@@std@@@2@$0A@@std@@@std@@@std@@QAE@PAU_Node@?$_Tree_nod@V?$_Tmap_traits@HV?$vector@VioHashString@@V?$allocator@VioHashString@@@std@@@std@@U?$less@H@2@V?$allocator@U?$pair@$$CBHV?$vector@VioHashString@@V?$allocator@VioHashString@@@std@@@std@@@std@@@2@$0A@@std@@@1@PBV?$_Tree_val@V?$_Tmap_traits@HV?$vector@VioHashString@@V?$allocator@VioHashString@@@std@@@std@@U?$less@H@2@V?$allocator@U?$pair@$$CBHV?$vector@VioHashString@@V?$allocator@VioHashString@@@std@@@std@@@std@@@2@$0A@@std@@@1@@Z ENDP ; std::_Tree_const_iterator<std::_Tree_val<std::_Tmap_traits<int,std::vector<ioHashString,std::allocator<ioHashString> >,std::less<int>,std::allocator<std::pair<int const ,std::vector<ioHashString,std::allocator<ioHashString> > > >,0> > >::_Tree_const_iterator<std::_Tree_val<std::_Tmap_traits<int,std::vector<ioHashString,std::allocator<ioHashString> >,std::less<int>,std::allocator<std::pair<int const ,std::vector<ioHashString,std::allocator<ioHashString> > > >,0> > >
_TEXT	ENDS
PUBLIC	??E?$_Tree_unchecked_const_iterator@V?$_Tree_val@V?$_Tmap_traits@HV?$vector@VioHashString@@V?$allocator@VioHashString@@@std@@@std@@U?$less@H@2@V?$allocator@U?$pair@$$CBHV?$vector@VioHashString@@V?$allocator@VioHashString@@@std@@@std@@@std@@@2@$0A@@std@@@std@@U_Iterator_base0@2@@std@@QAEAAV01@XZ ; std::_Tree_unchecked_const_iterator<std::_Tree_val<std::_Tmap_traits<int,std::vector<ioHashString,std::allocator<ioHashString> >,std::less<int>,std::allocator<std::pair<int const ,std::vector<ioHashString,std::allocator<ioHashString> > > >,0> >,std::_Iterator_base0>::operator++
; Function compile flags: /Ogsp
;	COMDAT ??E?$_Tree_unchecked_const_iterator@V?$_Tree_val@V?$_Tmap_traits@HV?$vector@VioHashString@@V?$allocator@VioHashString@@@std@@@std@@U?$less@H@2@V?$allocator@U?$pair@$$CBHV?$vector@VioHashString@@V?$allocator@VioHashString@@@std@@@std@@@std@@@2@$0A@@std@@@std@@U_Iterator_base0@2@@std@@QAEAAV01@XZ
_TEXT	SEGMENT
??E?$_Tree_unchecked_const_iterator@V?$_Tree_val@V?$_Tmap_traits@HV?$vector@VioHashString@@V?$allocator@VioHashString@@@std@@@std@@U?$less@H@2@V?$allocator@U?$pair@$$CBHV?$vector@VioHashString@@V?$allocator@VioHashString@@@std@@@std@@@std@@@2@$0A@@std@@@std@@U_Iterator_base0@2@@std@@QAEAAV01@XZ PROC ; std::_Tree_unchecked_const_iterator<std::_Tree_val<std::_Tmap_traits<int,std::vector<ioHashString,std::allocator<ioHashString> >,std::less<int>,std::allocator<std::pair<int const ,std::vector<ioHashString,std::allocator<ioHashString> > > >,0> >,std::_Iterator_base0>::operator++, COMDAT
; _this$ = ecx

; 58   : 		{	// preincrement

  00000	8b c1		 mov	 eax, ecx

; 59   : 		if (_Mytree::_Isnil(_Ptr))

  00002	8b 08		 mov	 ecx, DWORD PTR [eax]
  00004	53		 push	 ebx
  00005	32 db		 xor	 bl, bl
  00007	38 59 21	 cmp	 BYTE PTR [ecx+33], bl
  0000a	75 2d		 jne	 SHORT $LN3@operator

; 60   : 			;	// end() shouldn't be incremented, don't move
; 61   : 		else if (!_Mytree::_Isnil(_Mytree::_Right(_Ptr)))

  0000c	8b 51 08	 mov	 edx, DWORD PTR [ecx+8]
  0000f	38 5a 21	 cmp	 BYTE PTR [edx+33], bl
  00012	75 0d		 jne	 SHORT $LN34@operator

; 62   : 			_Ptr = _Mytree::_Min(
; 63   : 				_Mytree::_Right(_Ptr));	// ==> smallest of right subtree

$LL18@operator:
  00014	8b ca		 mov	 ecx, edx
  00016	8b 11		 mov	 edx, DWORD PTR [ecx]
  00018	38 5a 21	 cmp	 BYTE PTR [edx+33], bl
  0001b	74 f7		 je	 SHORT $LL18@operator
  0001d	89 08		 mov	 DWORD PTR [eax], ecx
  0001f	5b		 pop	 ebx

; 71   : 			}
; 72   : 		return (*this);
; 73   : 		}

  00020	c3		 ret	 0
$LN34@operator:

; 64   : 		else
; 65   : 			{	// climb looking for right subtree
; 66   : 			_Nodeptr _Pnode;
; 67   : 			while (!_Mytree::_Isnil(_Pnode = _Mytree::_Parent(_Ptr))
; 68   : 				&& _Ptr == _Mytree::_Right(_Pnode))

  00021	8b 51 04	 mov	 edx, DWORD PTR [ecx+4]
  00024	eb 0c		 jmp	 SHORT $LN38@operator
$LL2@operator:
  00026	8b 08		 mov	 ecx, DWORD PTR [eax]
  00028	3b 4a 08	 cmp	 ecx, DWORD PTR [edx+8]
  0002b	75 0a		 jne	 SHORT $LN1@operator

; 69   : 				_Ptr = _Pnode;	// ==> parent while right subtree

  0002d	89 10		 mov	 DWORD PTR [eax], edx
  0002f	8b 52 04	 mov	 edx, DWORD PTR [edx+4]
$LN38@operator:

; 64   : 		else
; 65   : 			{	// climb looking for right subtree
; 66   : 			_Nodeptr _Pnode;
; 67   : 			while (!_Mytree::_Isnil(_Pnode = _Mytree::_Parent(_Ptr))
; 68   : 				&& _Ptr == _Mytree::_Right(_Pnode))

  00032	38 5a 21	 cmp	 BYTE PTR [edx+33], bl
  00035	74 ef		 je	 SHORT $LL2@operator
$LN1@operator:

; 70   : 			_Ptr = _Pnode;	// ==> parent (head if end())

  00037	89 10		 mov	 DWORD PTR [eax], edx
$LN3@operator:
  00039	5b		 pop	 ebx

; 71   : 			}
; 72   : 		return (*this);
; 73   : 		}

  0003a	c3		 ret	 0
??E?$_Tree_unchecked_const_iterator@V?$_Tree_val@V?$_Tmap_traits@HV?$vector@VioHashString@@V?$allocator@VioHashString@@@std@@@std@@U?$less@H@2@V?$allocator@U?$pair@$$CBHV?$vector@VioHashString@@V?$allocator@VioHashString@@@std@@@std@@@std@@@2@$0A@@std@@@std@@U_Iterator_base0@2@@std@@QAEAAV01@XZ ENDP ; std::_Tree_unchecked_const_iterator<std::_Tree_val<std::_Tmap_traits<int,std::vector<ioHashString,std::allocator<ioHashString> >,std::less<int>,std::allocator<std::pair<int const ,std::vector<ioHashString,std::allocator<ioHashString> > > >,0> >,std::_Iterator_base0>::operator++
_TEXT	ENDS
PUBLIC	??F?$_Tree_unchecked_const_iterator@V?$_Tree_val@V?$_Tmap_traits@HV?$vector@VioHashString@@V?$allocator@VioHashString@@@std@@@std@@U?$less@H@2@V?$allocator@U?$pair@$$CBHV?$vector@VioHashString@@V?$allocator@VioHashString@@@std@@@std@@@std@@@2@$0A@@std@@@std@@U_Iterator_base0@2@@std@@QAEAAV01@XZ ; std::_Tree_unchecked_const_iterator<std::_Tree_val<std::_Tmap_traits<int,std::vector<ioHashString,std::allocator<ioHashString> >,std::less<int>,std::allocator<std::pair<int const ,std::vector<ioHashString,std::allocator<ioHashString> > > >,0> >,std::_Iterator_base0>::operator--
; Function compile flags: /Ogsp
;	COMDAT ??F?$_Tree_unchecked_const_iterator@V?$_Tree_val@V?$_Tmap_traits@HV?$vector@VioHashString@@V?$allocator@VioHashString@@@std@@@std@@U?$less@H@2@V?$allocator@U?$pair@$$CBHV?$vector@VioHashString@@V?$allocator@VioHashString@@@std@@@std@@@std@@@2@$0A@@std@@@std@@U_Iterator_base0@2@@std@@QAEAAV01@XZ
_TEXT	SEGMENT
??F?$_Tree_unchecked_const_iterator@V?$_Tree_val@V?$_Tmap_traits@HV?$vector@VioHashString@@V?$allocator@VioHashString@@@std@@@std@@U?$less@H@2@V?$allocator@U?$pair@$$CBHV?$vector@VioHashString@@V?$allocator@VioHashString@@@std@@@std@@@std@@@2@$0A@@std@@@std@@U_Iterator_base0@2@@std@@QAEAAV01@XZ PROC ; std::_Tree_unchecked_const_iterator<std::_Tree_val<std::_Tmap_traits<int,std::vector<ioHashString,std::allocator<ioHashString> >,std::less<int>,std::allocator<std::pair<int const ,std::vector<ioHashString,std::allocator<ioHashString> > > >,0> >,std::_Iterator_base0>::operator--, COMDAT
; _this$ = ecx

; 83   : 		{	// predecrement

  00000	8b c1		 mov	 eax, ecx

; 84   : 		if (_Mytree::_Isnil(_Ptr))

  00002	8b 08		 mov	 ecx, DWORD PTR [eax]
  00004	53		 push	 ebx
  00005	32 db		 xor	 bl, bl
  00007	38 59 21	 cmp	 BYTE PTR [ecx+33], bl
  0000a	74 07		 je	 SHORT $LN8@operator@2

; 85   : 			_Ptr = _Mytree::_Right(_Ptr);	// end() ==> rightmost

  0000c	8b 49 08	 mov	 ecx, DWORD PTR [ecx+8]
  0000f	89 08		 mov	 DWORD PTR [eax], ecx
  00011	5b		 pop	 ebx

; 99   : 			}
; 100  : 		return (*this);
; 101  : 		}

  00012	c3		 ret	 0
$LN8@operator@2:

; 86   : 		else if (!_Mytree::_Isnil(_Mytree::_Left(_Ptr)))

  00013	8b 11		 mov	 edx, DWORD PTR [ecx]
  00015	38 5a 21	 cmp	 BYTE PTR [edx+33], bl
  00018	74 07		 je	 SHORT $LN44@operator@2

; 90   : 			{	// climb looking for left subtree
; 91   : 			_Nodeptr _Pnode;
; 92   : 			while (!_Mytree::_Isnil(_Pnode = _Mytree::_Parent(_Ptr))
; 93   : 				&& _Ptr == _Mytree::_Left(_Pnode))

  0001a	8b 51 04	 mov	 edx, DWORD PTR [ecx+4]
  0001d	eb 17		 jmp	 SHORT $LN46@operator@2

; 87   : 			_Ptr = _Mytree::_Max(
; 88   : 				_Mytree::_Left(_Ptr));	// ==> largest of left subtree

$LL22@operator@2:
  0001f	8b d1		 mov	 edx, ecx
$LN44@operator@2:
  00021	8b 4a 08	 mov	 ecx, DWORD PTR [edx+8]
  00024	38 59 21	 cmp	 BYTE PTR [ecx+33], bl
  00027	74 f6		 je	 SHORT $LL22@operator@2

; 89   : 		else

  00029	eb 17		 jmp	 SHORT $LN45@operator@2
$LL4@operator@2:

; 90   : 			{	// climb looking for left subtree
; 91   : 			_Nodeptr _Pnode;
; 92   : 			while (!_Mytree::_Isnil(_Pnode = _Mytree::_Parent(_Ptr))
; 93   : 				&& _Ptr == _Mytree::_Left(_Pnode))

  0002b	8b 08		 mov	 ecx, DWORD PTR [eax]
  0002d	3b 0a		 cmp	 ecx, DWORD PTR [edx]
  0002f	75 0a		 jne	 SHORT $LN3@operator@2

; 94   : 				_Ptr = _Pnode;	// ==> parent while left subtree

  00031	89 10		 mov	 DWORD PTR [eax], edx
  00033	8b 52 04	 mov	 edx, DWORD PTR [edx+4]
$LN46@operator@2:

; 90   : 			{	// climb looking for left subtree
; 91   : 			_Nodeptr _Pnode;
; 92   : 			while (!_Mytree::_Isnil(_Pnode = _Mytree::_Parent(_Ptr))
; 93   : 				&& _Ptr == _Mytree::_Left(_Pnode))

  00036	38 5a 21	 cmp	 BYTE PTR [edx+33], bl
  00039	74 f0		 je	 SHORT $LL4@operator@2
$LN3@operator@2:

; 95   : 			if (_Mytree::_Isnil(_Ptr))

  0003b	8b 08		 mov	 ecx, DWORD PTR [eax]
  0003d	38 59 21	 cmp	 BYTE PTR [ecx+33], bl
  00040	75 02		 jne	 SHORT $LN1@operator@2
$LN45@operator@2:

; 96   : 				;	// begin() shouldn't be decremented, don't move
; 97   : 			else
; 98   : 				_Ptr = _Pnode;	// ==> parent if not head

  00042	89 10		 mov	 DWORD PTR [eax], edx
$LN1@operator@2:
  00044	5b		 pop	 ebx

; 99   : 			}
; 100  : 		return (*this);
; 101  : 		}

  00045	c3		 ret	 0
??F?$_Tree_unchecked_const_iterator@V?$_Tree_val@V?$_Tmap_traits@HV?$vector@VioHashString@@V?$allocator@VioHashString@@@std@@@std@@U?$less@H@2@V?$allocator@U?$pair@$$CBHV?$vector@VioHashString@@V?$allocator@VioHashString@@@std@@@std@@@std@@@2@$0A@@std@@@std@@U_Iterator_base0@2@@std@@QAEAAV01@XZ ENDP ; std::_Tree_unchecked_const_iterator<std::_Tree_val<std::_Tmap_traits<int,std::vector<ioHashString,std::allocator<ioHashString> >,std::less<int>,std::allocator<std::pair<int const ,std::vector<ioHashString,std::allocator<ioHashString> > > >,0> >,std::_Iterator_base0>::operator--
_TEXT	ENDS
PUBLIC	?_Root@?$_Tree@V?$_Tmap_traits@HV?$vector@VioHashString@@V?$allocator@VioHashString@@@std@@@std@@U?$less@H@2@V?$allocator@U?$pair@$$CBHV?$vector@VioHashString@@V?$allocator@VioHashString@@@std@@@std@@@std@@@2@$0A@@std@@@std@@IBEAAPAU_Node@?$_Tree_nod@V?$_Tmap_traits@HV?$vector@VioHashString@@V?$allocator@VioHashString@@@std@@@std@@U?$less@H@2@V?$allocator@U?$pair@$$CBHV?$vector@VioHashString@@V?$allocator@VioHashString@@@std@@@std@@@std@@@2@$0A@@std@@@2@XZ ; std::_Tree<std::_Tmap_traits<int,std::vector<ioHashString,std::allocator<ioHashString> >,std::less<int>,std::allocator<std::pair<int const ,std::vector<ioHashString,std::allocator<ioHashString> > > >,0> >::_Root
; Function compile flags: /Ogsp
;	COMDAT ?_Root@?$_Tree@V?$_Tmap_traits@HV?$vector@VioHashString@@V?$allocator@VioHashString@@@std@@@std@@U?$less@H@2@V?$allocator@U?$pair@$$CBHV?$vector@VioHashString@@V?$allocator@VioHashString@@@std@@@std@@@std@@@2@$0A@@std@@@std@@IBEAAPAU_Node@?$_Tree_nod@V?$_Tmap_traits@HV?$vector@VioHashString@@V?$allocator@VioHashString@@@std@@@std@@U?$less@H@2@V?$allocator@U?$pair@$$CBHV?$vector@VioHashString@@V?$allocator@VioHashString@@@std@@@std@@@std@@@2@$0A@@std@@@2@XZ
_TEXT	SEGMENT
?_Root@?$_Tree@V?$_Tmap_traits@HV?$vector@VioHashString@@V?$allocator@VioHashString@@@std@@@std@@U?$less@H@2@V?$allocator@U?$pair@$$CBHV?$vector@VioHashString@@V?$allocator@VioHashString@@@std@@@std@@@std@@@2@$0A@@std@@@std@@IBEAAPAU_Node@?$_Tree_nod@V?$_Tmap_traits@HV?$vector@VioHashString@@V?$allocator@VioHashString@@@std@@@std@@U?$less@H@2@V?$allocator@U?$pair@$$CBHV?$vector@VioHashString@@V?$allocator@VioHashString@@@std@@@std@@@std@@@2@$0A@@std@@@2@XZ PROC ; std::_Tree<std::_Tmap_traits<int,std::vector<ioHashString,std::allocator<ioHashString> >,std::less<int>,std::allocator<std::pair<int const ,std::vector<ioHashString,std::allocator<ioHashString> > > >,0> >::_Root, COMDAT
; _this$ = ecx

; 1789 : 		return (this->_Parent(this->_Myhead));

  00000	8b 41 04	 mov	 eax, DWORD PTR [ecx+4]
  00003	83 c0 04	 add	 eax, 4

; 1790 : 		}

  00006	c3		 ret	 0
?_Root@?$_Tree@V?$_Tmap_traits@HV?$vector@VioHashString@@V?$allocator@VioHashString@@@std@@@std@@U?$less@H@2@V?$allocator@U?$pair@$$CBHV?$vector@VioHashString@@V?$allocator@VioHashString@@@std@@@std@@@std@@@2@$0A@@std@@@std@@IBEAAPAU_Node@?$_Tree_nod@V?$_Tmap_traits@HV?$vector@VioHashString@@V?$allocator@VioHashString@@@std@@@std@@U?$less@H@2@V?$allocator@U?$pair@$$CBHV?$vector@VioHashString@@V?$allocator@VioHashString@@@std@@@std@@@std@@@2@$0A@@std@@@2@XZ ENDP ; std::_Tree<std::_Tmap_traits<int,std::vector<ioHashString,std::allocator<ioHashString> >,std::less<int>,std::allocator<std::pair<int const ,std::vector<ioHashString,std::allocator<ioHashString> > > >,0> >::_Root
_TEXT	ENDS
PUBLIC	??0?$_Tree_nod@V?$_Tmap_traits@HV?$vector@VioHashString@@V?$allocator@VioHashString@@@std@@@std@@U?$less@H@2@V?$allocator@U?$pair@$$CBHV?$vector@VioHashString@@V?$allocator@VioHashString@@@std@@@std@@@std@@@2@$0A@@std@@@std@@QAE@ABU?$less@H@1@V?$allocator@U?$pair@$$CBHV?$vector@VioHashString@@V?$allocator@VioHashString@@@std@@@std@@@std@@@1@@Z ; std::_Tree_nod<std::_Tmap_traits<int,std::vector<ioHashString,std::allocator<ioHashString> >,std::less<int>,std::allocator<std::pair<int const ,std::vector<ioHashString,std::allocator<ioHashString> > > >,0> >::_Tree_nod<std::_Tmap_traits<int,std::vector<ioHashString,std::allocator<ioHashString> >,std::less<int>,std::allocator<std::pair<int const ,std::vector<ioHashString,std::allocator<ioHashString> > > >,0> >
; Function compile flags: /Ogsp
;	COMDAT ??0?$_Tree_nod@V?$_Tmap_traits@HV?$vector@VioHashString@@V?$allocator@VioHashString@@@std@@@std@@U?$less@H@2@V?$allocator@U?$pair@$$CBHV?$vector@VioHashString@@V?$allocator@VioHashString@@@std@@@std@@@std@@@2@$0A@@std@@@std@@QAE@ABU?$less@H@1@V?$allocator@U?$pair@$$CBHV?$vector@VioHashString@@V?$allocator@VioHashString@@@std@@@std@@@std@@@1@@Z
_TEXT	SEGMENT
__Parg$ = 8						; size = 4
__Al$ = 12						; size = 1
??0?$_Tree_nod@V?$_Tmap_traits@HV?$vector@VioHashString@@V?$allocator@VioHashString@@@std@@@std@@U?$less@H@2@V?$allocator@U?$pair@$$CBHV?$vector@VioHashString@@V?$allocator@VioHashString@@@std@@@std@@@std@@@2@$0A@@std@@@std@@QAE@ABU?$less@H@1@V?$allocator@U?$pair@$$CBHV?$vector@VioHashString@@V?$allocator@VioHashString@@@std@@@std@@@std@@@1@@Z PROC ; std::_Tree_nod<std::_Tmap_traits<int,std::vector<ioHashString,std::allocator<ioHashString> >,std::less<int>,std::allocator<std::pair<int const ,std::vector<ioHashString,std::allocator<ioHashString> > > >,0> >::_Tree_nod<std::_Tmap_traits<int,std::vector<ioHashString,std::allocator<ioHashString> >,std::less<int>,std::allocator<std::pair<int const ,std::vector<ioHashString,std::allocator<ioHashString> > > >,0> >, COMDAT
; _this$ = ecx

; 482  : 		{	// construct traits from _Parg and allocators from _Al

  00000	8b c1		 mov	 eax, ecx

; 483  : 		}

  00002	c2 08 00	 ret	 8
??0?$_Tree_nod@V?$_Tmap_traits@HV?$vector@VioHashString@@V?$allocator@VioHashString@@@std@@@std@@U?$less@H@2@V?$allocator@U?$pair@$$CBHV?$vector@VioHashString@@V?$allocator@VioHashString@@@std@@@std@@@std@@@2@$0A@@std@@@std@@QAE@ABU?$less@H@1@V?$allocator@U?$pair@$$CBHV?$vector@VioHashString@@V?$allocator@VioHashString@@@std@@@std@@@std@@@1@@Z ENDP ; std::_Tree_nod<std::_Tmap_traits<int,std::vector<ioHashString,std::allocator<ioHashString> >,std::less<int>,std::allocator<std::pair<int const ,std::vector<ioHashString,std::allocator<ioHashString> > > >,0> >::_Tree_nod<std::_Tmap_traits<int,std::vector<ioHashString,std::allocator<ioHashString> >,std::less<int>,std::allocator<std::pair<int const ,std::vector<ioHashString,std::allocator<ioHashString> > > >,0> >
_TEXT	ENDS
PUBLIC	?allocate@?$allocator@U_Node@?$_Tree_nod@V?$_Tmap_traits@HV?$vector@VioHashString@@V?$allocator@VioHashString@@@std@@@std@@U?$less@H@2@V?$allocator@U?$pair@$$CBHV?$vector@VioHashString@@V?$allocator@VioHashString@@@std@@@std@@@std@@@2@$0A@@std@@@std@@@std@@QAEPAU_Node@?$_Tree_nod@V?$_Tmap_traits@HV?$vector@VioHashString@@V?$allocator@VioHashString@@@std@@@std@@U?$less@H@2@V?$allocator@U?$pair@$$CBHV?$vector@VioHashString@@V?$allocator@VioHashString@@@std@@@std@@@std@@@2@$0A@@std@@@2@I@Z ; std::allocator<std::_Tree_nod<std::_Tmap_traits<int,std::vector<ioHashString,std::allocator<ioHashString> >,std::less<int>,std::allocator<std::pair<int const ,std::vector<ioHashString,std::allocator<ioHashString> > > >,0> >::_Node>::allocate
; Function compile flags: /Ogsp
; File c:\program files (x86)\microsoft visual studio 10.0\vc\include\xmemory
;	COMDAT ?allocate@?$allocator@U_Node@?$_Tree_nod@V?$_Tmap_traits@HV?$vector@VioHashString@@V?$allocator@VioHashString@@@std@@@std@@U?$less@H@2@V?$allocator@U?$pair@$$CBHV?$vector@VioHashString@@V?$allocator@VioHashString@@@std@@@std@@@std@@@2@$0A@@std@@@std@@@std@@QAEPAU_Node@?$_Tree_nod@V?$_Tmap_traits@HV?$vector@VioHashString@@V?$allocator@VioHashString@@@std@@@std@@U?$less@H@2@V?$allocator@U?$pair@$$CBHV?$vector@VioHashString@@V?$allocator@VioHashString@@@std@@@std@@@std@@@2@$0A@@std@@@2@I@Z
_TEXT	SEGMENT
__Count$ = 8						; size = 4
?allocate@?$allocator@U_Node@?$_Tree_nod@V?$_Tmap_traits@HV?$vector@VioHashString@@V?$allocator@VioHashString@@@std@@@std@@U?$less@H@2@V?$allocator@U?$pair@$$CBHV?$vector@VioHashString@@V?$allocator@VioHashString@@@std@@@std@@@std@@@2@$0A@@std@@@std@@@std@@QAEPAU_Node@?$_Tree_nod@V?$_Tmap_traits@HV?$vector@VioHashString@@V?$allocator@VioHashString@@@std@@@std@@U?$less@H@2@V?$allocator@U?$pair@$$CBHV?$vector@VioHashString@@V?$allocator@VioHashString@@@std@@@std@@@std@@@2@$0A@@std@@@2@I@Z PROC ; std::allocator<std::_Tree_nod<std::_Tmap_traits<int,std::vector<ioHashString,std::allocator<ioHashString> >,std::less<int>,std::allocator<std::pair<int const ,std::vector<ioHashString,std::allocator<ioHashString> > > >,0> >::_Node>::allocate, COMDAT
; _this$ = ecx

; 186  : 		{	// allocate array of _Count elements

  00000	55		 push	 ebp
  00001	8b ec		 mov	 ebp, esp

; 187  : 		return (_Allocate(_Count, (pointer)0));

  00003	6a 00		 push	 0
  00005	ff 75 08	 push	 DWORD PTR __Count$[ebp]
  00008	e8 00 00 00 00	 call	 ??$_Allocate@U_Node@?$_Tree_nod@V?$_Tmap_traits@HV?$vector@VioHashString@@V?$allocator@VioHashString@@@std@@@std@@U?$less@H@2@V?$allocator@U?$pair@$$CBHV?$vector@VioHashString@@V?$allocator@VioHashString@@@std@@@std@@@std@@@2@$0A@@std@@@std@@@std@@YAPAU_Node@?$_Tree_nod@V?$_Tmap_traits@HV?$vector@VioHashString@@V?$allocator@VioHashString@@@std@@@std@@U?$less@H@2@V?$allocator@U?$pair@$$CBHV?$vector@VioHashString@@V?$allocator@VioHashString@@@std@@@std@@@std@@@2@$0A@@std@@@0@IPAU120@@Z ; std::_Allocate<std::_Tree_nod<std::_Tmap_traits<int,std::vector<ioHashString,std::allocator<ioHashString> >,std::less<int>,std::allocator<std::pair<int const ,std::vector<ioHashString,std::allocator<ioHashString> > > >,0> >::_Node>
  0000d	59		 pop	 ecx
  0000e	59		 pop	 ecx

; 188  : 		}

  0000f	5d		 pop	 ebp
  00010	c2 04 00	 ret	 4
?allocate@?$allocator@U_Node@?$_Tree_nod@V?$_Tmap_traits@HV?$vector@VioHashString@@V?$allocator@VioHashString@@@std@@@std@@U?$less@H@2@V?$allocator@U?$pair@$$CBHV?$vector@VioHashString@@V?$allocator@VioHashString@@@std@@@std@@@std@@@2@$0A@@std@@@std@@@std@@QAEPAU_Node@?$_Tree_nod@V?$_Tmap_traits@HV?$vector@VioHashString@@V?$allocator@VioHashString@@@std@@@std@@U?$less@H@2@V?$allocator@U?$pair@$$CBHV?$vector@VioHashString@@V?$allocator@VioHashString@@@std@@@std@@@std@@@2@$0A@@std@@@2@I@Z ENDP ; std::allocator<std::_Tree_nod<std::_Tmap_traits<int,std::vector<ioHashString,std::allocator<ioHashString> >,std::less<int>,std::allocator<std::pair<int const ,std::vector<ioHashString,std::allocator<ioHashString> > > >,0> >::_Node>::allocate
_TEXT	ENDS
PUBLIC	?_Lrotate@?$_Tree@V?$_Tmap_traits@HV?$vector@VioHashString@@V?$allocator@VioHashString@@@std@@@std@@U?$less@H@2@V?$allocator@U?$pair@$$CBHV?$vector@VioHashString@@V?$allocator@VioHashString@@@std@@@std@@@std@@@2@$0A@@std@@@std@@IAEXPAU_Node@?$_Tree_nod@V?$_Tmap_traits@HV?$vector@VioHashString@@V?$allocator@VioHashString@@@std@@@std@@U?$less@H@2@V?$allocator@U?$pair@$$CBHV?$vector@VioHashString@@V?$allocator@VioHashString@@@std@@@std@@@std@@@2@$0A@@std@@@2@@Z ; std::_Tree<std::_Tmap_traits<int,std::vector<ioHashString,std::allocator<ioHashString> >,std::less<int>,std::allocator<std::pair<int const ,std::vector<ioHashString,std::allocator<ioHashString> > > >,0> >::_Lrotate
; Function compile flags: /Ogsp
; File c:\program files (x86)\microsoft visual studio 10.0\vc\include\xtree
;	COMDAT ?_Lrotate@?$_Tree@V?$_Tmap_traits@HV?$vector@VioHashString@@V?$allocator@VioHashString@@@std@@@std@@U?$less@H@2@V?$allocator@U?$pair@$$CBHV?$vector@VioHashString@@V?$allocator@VioHashString@@@std@@@std@@@std@@@2@$0A@@std@@@std@@IAEXPAU_Node@?$_Tree_nod@V?$_Tmap_traits@HV?$vector@VioHashString@@V?$allocator@VioHashString@@@std@@@std@@U?$less@H@2@V?$allocator@U?$pair@$$CBHV?$vector@VioHashString@@V?$allocator@VioHashString@@@std@@@std@@@std@@@2@$0A@@std@@@2@@Z
_TEXT	SEGMENT
__Wherenode$ = 8					; size = 4
?_Lrotate@?$_Tree@V?$_Tmap_traits@HV?$vector@VioHashString@@V?$allocator@VioHashString@@@std@@@std@@U?$less@H@2@V?$allocator@U?$pair@$$CBHV?$vector@VioHashString@@V?$allocator@VioHashString@@@std@@@std@@@std@@@2@$0A@@std@@@std@@IAEXPAU_Node@?$_Tree_nod@V?$_Tmap_traits@HV?$vector@VioHashString@@V?$allocator@VioHashString@@@std@@@std@@U?$less@H@2@V?$allocator@U?$pair@$$CBHV?$vector@VioHashString@@V?$allocator@VioHashString@@@std@@@std@@@std@@@2@$0A@@std@@@2@@Z PROC ; std::_Tree<std::_Tmap_traits<int,std::vector<ioHashString,std::allocator<ioHashString> >,std::less<int>,std::allocator<std::pair<int const ,std::vector<ioHashString,std::allocator<ioHashString> > > >,0> >::_Lrotate, COMDAT
; _this$ = ecx

; 1763 : 		{	// promote right node to root of subtree

  00000	55		 push	 ebp
  00001	8b ec		 mov	 ebp, esp

; 1764 : 		_Nodeptr _Pnode = this->_Right(_Wherenode);

  00003	8b 55 08	 mov	 edx, DWORD PTR __Wherenode$[ebp]
  00006	8b 42 08	 mov	 eax, DWORD PTR [edx+8]
  00009	56		 push	 esi

; 1765 : 		this->_Right(_Wherenode) = this->_Left(_Pnode);

  0000a	8b 30		 mov	 esi, DWORD PTR [eax]
  0000c	89 72 08	 mov	 DWORD PTR [edx+8], esi

; 1766 : 
; 1767 : 		if (!this->_Isnil(this->_Left(_Pnode)))

  0000f	8b 30		 mov	 esi, DWORD PTR [eax]
  00011	80 7e 21 00	 cmp	 BYTE PTR [esi+33], 0
  00015	75 03		 jne	 SHORT $LN5@Lrotate

; 1768 : 			this->_Parent(this->_Left(_Pnode)) = _Wherenode;

  00017	89 56 04	 mov	 DWORD PTR [esi+4], edx
$LN5@Lrotate:

; 1769 : 		this->_Parent(_Pnode) = this->_Parent(_Wherenode);

  0001a	8b 72 04	 mov	 esi, DWORD PTR [edx+4]
  0001d	89 70 04	 mov	 DWORD PTR [eax+4], esi

; 1770 : 
; 1771 : 		if (_Wherenode == _Root())

  00020	8b 49 04	 mov	 ecx, DWORD PTR [ecx+4]
  00023	5e		 pop	 esi
  00024	3b 51 04	 cmp	 edx, DWORD PTR [ecx+4]
  00027	75 05		 jne	 SHORT $LN4@Lrotate

; 1772 : 			_Root() = _Pnode;

  00029	89 41 04	 mov	 DWORD PTR [ecx+4], eax

; 1773 : 		else if (_Wherenode == this->_Left(this->_Parent(_Wherenode)))

  0002c	eb 0e		 jmp	 SHORT $LN1@Lrotate
$LN4@Lrotate:
  0002e	8b 4a 04	 mov	 ecx, DWORD PTR [edx+4]
  00031	3b 11		 cmp	 edx, DWORD PTR [ecx]
  00033	75 04		 jne	 SHORT $LN2@Lrotate

; 1774 : 			this->_Left(this->_Parent(_Wherenode)) = _Pnode;

  00035	89 01		 mov	 DWORD PTR [ecx], eax

; 1775 : 		else

  00037	eb 03		 jmp	 SHORT $LN1@Lrotate
$LN2@Lrotate:

; 1776 : 			this->_Right(this->_Parent(_Wherenode)) = _Pnode;

  00039	89 41 08	 mov	 DWORD PTR [ecx+8], eax
$LN1@Lrotate:

; 1777 : 
; 1778 : 		this->_Left(_Pnode) = _Wherenode;

  0003c	89 10		 mov	 DWORD PTR [eax], edx

; 1779 : 		this->_Parent(_Wherenode) = _Pnode;

  0003e	89 42 04	 mov	 DWORD PTR [edx+4], eax

; 1780 : 		}

  00041	5d		 pop	 ebp
  00042	c2 04 00	 ret	 4
?_Lrotate@?$_Tree@V?$_Tmap_traits@HV?$vector@VioHashString@@V?$allocator@VioHashString@@@std@@@std@@U?$less@H@2@V?$allocator@U?$pair@$$CBHV?$vector@VioHashString@@V?$allocator@VioHashString@@@std@@@std@@@std@@@2@$0A@@std@@@std@@IAEXPAU_Node@?$_Tree_nod@V?$_Tmap_traits@HV?$vector@VioHashString@@V?$allocator@VioHashString@@@std@@@std@@U?$less@H@2@V?$allocator@U?$pair@$$CBHV?$vector@VioHashString@@V?$allocator@VioHashString@@@std@@@std@@@std@@@2@$0A@@std@@@2@@Z ENDP ; std::_Tree<std::_Tmap_traits<int,std::vector<ioHashString,std::allocator<ioHashString> >,std::less<int>,std::allocator<std::pair<int const ,std::vector<ioHashString,std::allocator<ioHashString> > > >,0> >::_Lrotate
_TEXT	ENDS
PUBLIC	?_Rrotate@?$_Tree@V?$_Tmap_traits@HV?$vector@VioHashString@@V?$allocator@VioHashString@@@std@@@std@@U?$less@H@2@V?$allocator@U?$pair@$$CBHV?$vector@VioHashString@@V?$allocator@VioHashString@@@std@@@std@@@std@@@2@$0A@@std@@@std@@IAEXPAU_Node@?$_Tree_nod@V?$_Tmap_traits@HV?$vector@VioHashString@@V?$allocator@VioHashString@@@std@@@std@@U?$less@H@2@V?$allocator@U?$pair@$$CBHV?$vector@VioHashString@@V?$allocator@VioHashString@@@std@@@std@@@std@@@2@$0A@@std@@@2@@Z ; std::_Tree<std::_Tmap_traits<int,std::vector<ioHashString,std::allocator<ioHashString> >,std::less<int>,std::allocator<std::pair<int const ,std::vector<ioHashString,std::allocator<ioHashString> > > >,0> >::_Rrotate
; Function compile flags: /Ogsp
;	COMDAT ?_Rrotate@?$_Tree@V?$_Tmap_traits@HV?$vector@VioHashString@@V?$allocator@VioHashString@@@std@@@std@@U?$less@H@2@V?$allocator@U?$pair@$$CBHV?$vector@VioHashString@@V?$allocator@VioHashString@@@std@@@std@@@std@@@2@$0A@@std@@@std@@IAEXPAU_Node@?$_Tree_nod@V?$_Tmap_traits@HV?$vector@VioHashString@@V?$allocator@VioHashString@@@std@@@std@@U?$less@H@2@V?$allocator@U?$pair@$$CBHV?$vector@VioHashString@@V?$allocator@VioHashString@@@std@@@std@@@std@@@2@$0A@@std@@@2@@Z
_TEXT	SEGMENT
__Wherenode$ = 8					; size = 4
?_Rrotate@?$_Tree@V?$_Tmap_traits@HV?$vector@VioHashString@@V?$allocator@VioHashString@@@std@@@std@@U?$less@H@2@V?$allocator@U?$pair@$$CBHV?$vector@VioHashString@@V?$allocator@VioHashString@@@std@@@std@@@std@@@2@$0A@@std@@@std@@IAEXPAU_Node@?$_Tree_nod@V?$_Tmap_traits@HV?$vector@VioHashString@@V?$allocator@VioHashString@@@std@@@std@@U?$less@H@2@V?$allocator@U?$pair@$$CBHV?$vector@VioHashString@@V?$allocator@VioHashString@@@std@@@std@@@std@@@2@$0A@@std@@@2@@Z PROC ; std::_Tree<std::_Tmap_traits<int,std::vector<ioHashString,std::allocator<ioHashString> >,std::less<int>,std::allocator<std::pair<int const ,std::vector<ioHashString,std::allocator<ioHashString> > > >,0> >::_Rrotate, COMDAT
; _this$ = ecx

; 1793 : 		{	// promote left node to root of subtree

  00000	55		 push	 ebp
  00001	8b ec		 mov	 ebp, esp

; 1794 : 		_Nodeptr _Pnode = this->_Left(_Wherenode);

  00003	8b 55 08	 mov	 edx, DWORD PTR __Wherenode$[ebp]
  00006	8b 02		 mov	 eax, DWORD PTR [edx]
  00008	56		 push	 esi

; 1795 : 		this->_Left(_Wherenode) = this->_Right(_Pnode);

  00009	8b 70 08	 mov	 esi, DWORD PTR [eax+8]
  0000c	89 32		 mov	 DWORD PTR [edx], esi

; 1796 : 
; 1797 : 		if (!this->_Isnil(this->_Right(_Pnode)))

  0000e	8b 70 08	 mov	 esi, DWORD PTR [eax+8]
  00011	80 7e 21 00	 cmp	 BYTE PTR [esi+33], 0
  00015	75 03		 jne	 SHORT $LN5@Rrotate

; 1798 : 			this->_Parent(this->_Right(_Pnode)) = _Wherenode;

  00017	89 56 04	 mov	 DWORD PTR [esi+4], edx
$LN5@Rrotate:

; 1799 : 		this->_Parent(_Pnode) = this->_Parent(_Wherenode);

  0001a	8b 72 04	 mov	 esi, DWORD PTR [edx+4]
  0001d	89 70 04	 mov	 DWORD PTR [eax+4], esi

; 1800 : 
; 1801 : 		if (_Wherenode == _Root())

  00020	8b 49 04	 mov	 ecx, DWORD PTR [ecx+4]
  00023	5e		 pop	 esi
  00024	3b 51 04	 cmp	 edx, DWORD PTR [ecx+4]
  00027	75 05		 jne	 SHORT $LN4@Rrotate

; 1802 : 			_Root() = _Pnode;

  00029	89 41 04	 mov	 DWORD PTR [ecx+4], eax

; 1803 : 		else if (_Wherenode == this->_Right(this->_Parent(_Wherenode)))

  0002c	eb 0f		 jmp	 SHORT $LN1@Rrotate
$LN4@Rrotate:
  0002e	8b 4a 04	 mov	 ecx, DWORD PTR [edx+4]
  00031	3b 51 08	 cmp	 edx, DWORD PTR [ecx+8]
  00034	75 05		 jne	 SHORT $LN2@Rrotate

; 1804 : 			this->_Right(this->_Parent(_Wherenode)) = _Pnode;

  00036	89 41 08	 mov	 DWORD PTR [ecx+8], eax

; 1805 : 		else

  00039	eb 02		 jmp	 SHORT $LN1@Rrotate
$LN2@Rrotate:

; 1806 : 			this->_Left(this->_Parent(_Wherenode)) = _Pnode;

  0003b	89 01		 mov	 DWORD PTR [ecx], eax
$LN1@Rrotate:

; 1807 : 
; 1808 : 		this->_Right(_Pnode) = _Wherenode;

  0003d	89 50 08	 mov	 DWORD PTR [eax+8], edx

; 1809 : 		this->_Parent(_Wherenode) = _Pnode;

  00040	89 42 04	 mov	 DWORD PTR [edx+4], eax

; 1810 : 		}

  00043	5d		 pop	 ebp
  00044	c2 04 00	 ret	 4
?_Rrotate@?$_Tree@V?$_Tmap_traits@HV?$vector@VioHashString@@V?$allocator@VioHashString@@@std@@@std@@U?$less@H@2@V?$allocator@U?$pair@$$CBHV?$vector@VioHashString@@V?$allocator@VioHashString@@@std@@@std@@@std@@@2@$0A@@std@@@std@@IAEXPAU_Node@?$_Tree_nod@V?$_Tmap_traits@HV?$vector@VioHashString@@V?$allocator@VioHashString@@@std@@@std@@U?$less@H@2@V?$allocator@U?$pair@$$CBHV?$vector@VioHashString@@V?$allocator@VioHashString@@@std@@@std@@@std@@@2@$0A@@std@@@2@@Z ENDP ; std::_Tree<std::_Tmap_traits<int,std::vector<ioHashString,std::allocator<ioHashString> >,std::less<int>,std::allocator<std::pair<int const ,std::vector<ioHashString,std::allocator<ioHashString> > > >,0> >::_Rrotate
_TEXT	ENDS
PUBLIC	?get_allocator@?$vector@VioHashString@@V?$allocator@VioHashString@@@std@@@std@@QBE?AV?$allocator@VioHashString@@@2@XZ ; std::vector<ioHashString,std::allocator<ioHashString> >::get_allocator
; Function compile flags: /Ogsp
; File c:\program files (x86)\microsoft visual studio 10.0\vc\include\vector
;	COMDAT ?get_allocator@?$vector@VioHashString@@V?$allocator@VioHashString@@@std@@@std@@QBE?AV?$allocator@VioHashString@@@2@XZ
_TEXT	SEGMENT
___$ReturnUdt$ = 8					; size = 4
?get_allocator@?$vector@VioHashString@@V?$allocator@VioHashString@@@std@@@std@@QBE?AV?$allocator@VioHashString@@@2@XZ PROC ; std::vector<ioHashString,std::allocator<ioHashString> >::get_allocator, COMDAT
; _this$ = ecx

; 893  : 		{	// return allocator object for values

  00000	55		 push	 ebp
  00001	8b ec		 mov	 ebp, esp

; 894  : 		return (this->_Alval);

  00003	8b 45 08	 mov	 eax, DWORD PTR ___$ReturnUdt$[ebp]

; 895  : 		}

  00006	5d		 pop	 ebp
  00007	c2 04 00	 ret	 4
?get_allocator@?$vector@VioHashString@@V?$allocator@VioHashString@@@std@@@std@@QBE?AV?$allocator@VioHashString@@@2@XZ ENDP ; std::vector<ioHashString,std::allocator<ioHashString> >::get_allocator
_TEXT	ENDS
PUBLIC	??D?$_Vector_iterator@V?$_Vector_val@VioHashString@@V?$allocator@VioHashString@@@std@@@std@@@std@@QBEAAVioHashString@@XZ ; std::_Vector_iterator<std::_Vector_val<ioHashString,std::allocator<ioHashString> > >::operator*
; Function compile flags: /Ogsp
;	COMDAT ??D?$_Vector_iterator@V?$_Vector_val@VioHashString@@V?$allocator@VioHashString@@@std@@@std@@@std@@QBEAAVioHashString@@XZ
_TEXT	SEGMENT
??D?$_Vector_iterator@V?$_Vector_val@VioHashString@@V?$allocator@VioHashString@@@std@@@std@@@std@@QBEAAVioHashString@@XZ PROC ; std::_Vector_iterator<std::_Vector_val<ioHashString,std::allocator<ioHashString> > >::operator*, COMDAT
; _this$ = ecx

; 322  : 		return ((reference)**(_Mybase *)this);

  00000	8b 01		 mov	 eax, DWORD PTR [ecx]

; 323  : 		}

  00002	c3		 ret	 0
??D?$_Vector_iterator@V?$_Vector_val@VioHashString@@V?$allocator@VioHashString@@@std@@@std@@@std@@QBEAAVioHashString@@XZ ENDP ; std::_Vector_iterator<std::_Vector_val<ioHashString,std::allocator<ioHashString> > >::operator*
_TEXT	ENDS
PUBLIC	??E?$_Vector_iterator@V?$_Vector_val@VioHashString@@V?$allocator@VioHashString@@@std@@@std@@@std@@QAEAAV01@XZ ; std::_Vector_iterator<std::_Vector_val<ioHashString,std::allocator<ioHashString> > >::operator++
; Function compile flags: /Ogsp
;	COMDAT ??E?$_Vector_iterator@V?$_Vector_val@VioHashString@@V?$allocator@VioHashString@@@std@@@std@@@std@@QAEAAV01@XZ
_TEXT	SEGMENT
??E?$_Vector_iterator@V?$_Vector_val@VioHashString@@V?$allocator@VioHashString@@@std@@@std@@@std@@QAEAAV01@XZ PROC ; std::_Vector_iterator<std::_Vector_val<ioHashString,std::allocator<ioHashString> > >::operator++, COMDAT
; _this$ = ecx

; 331  : 		{	// preincrement

  00000	8b c1		 mov	 eax, ecx

; 332  : 		++*(_Mybase *)this;

  00002	83 00 10	 add	 DWORD PTR [eax], 16	; 00000010H

; 333  : 		return (*this);
; 334  : 		}

  00005	c3		 ret	 0
??E?$_Vector_iterator@V?$_Vector_val@VioHashString@@V?$allocator@VioHashString@@@std@@@std@@@std@@QAEAAV01@XZ ENDP ; std::_Vector_iterator<std::_Vector_val<ioHashString,std::allocator<ioHashString> > >::operator++
_TEXT	ENDS
PUBLIC	__$ArrayPad$
PUBLIC	??$SetTitle_e@$0BB@@ioINILoader@@QAEXAAY0BB@$$CBD@Z ; ioINILoader::SetTitle_e<17>
EXTRN	__imp_?SetTitle@ioINILoader@@QAEXPBD@Z:PROC
; Function compile flags: /Ogsp
; File d:\lost saga for developer\youtube\tutorial\source\src\io3dengine\ioiniloader.h
;	COMDAT ??$SetTitle_e@$0BB@@ioINILoader@@QAEXAAY0BB@$$CBD@Z
_TEXT	SEGMENT
__t$ = -28						; size = 17
__$ArrayPad$ = -4					; size = 4
_t$ = 8							; size = 4
??$SetTitle_e@$0BB@@ioINILoader@@QAEXAAY0BB@$$CBD@Z PROC ; ioINILoader::SetTitle_e<17>, COMDAT
; _this$ = ecx

; 188  : 	{

  00000	55		 push	 ebp
  00001	8b ec		 mov	 ebp, esp
  00003	83 ec 1c	 sub	 esp, 28			; 0000001cH
  00006	a1 00 00 00 00	 mov	 eax, DWORD PTR ___security_cookie
  0000b	33 c5		 xor	 eax, ebp
  0000d	89 45 fc	 mov	 DWORD PTR __$ArrayPad$[ebp], eax
  00010	8b 45 08	 mov	 eax, DWORD PTR _t$[ebp]

; 189  : 		_ENCSTR(t, _t);

  00013	8a 10		 mov	 dl, BYTE PTR [eax]
  00015	56		 push	 esi
  00016	8b f1		 mov	 esi, ecx
  00018	84 d2		 test	 dl, dl
  0001a	0f 84 a7 01 00
	00		 je	 $LN96@SetTitle_e
  00020	80 f2 ed	 xor	 dl, -19			; ffffffedH
  00023	88 55 e4	 mov	 BYTE PTR __t$[ebp], dl
  00026	8a 50 01	 mov	 dl, BYTE PTR [eax+1]
  00029	84 d2		 test	 dl, dl
  0002b	0f 84 90 01 00
	00		 je	 $LN95@SetTitle_e
  00031	b1 ec		 mov	 cl, -20			; ffffffecH
  00033	32 d1		 xor	 dl, cl
  00035	88 55 e5	 mov	 BYTE PTR __t$[ebp+1], dl
  00038	8a 50 02	 mov	 dl, BYTE PTR [eax+2]
  0003b	84 d2		 test	 dl, dl
  0003d	0f 84 78 01 00
	00		 je	 $LN94@SetTitle_e
  00043	80 f2 eb	 xor	 dl, -21			; ffffffebH
  00046	88 55 e6	 mov	 BYTE PTR __t$[ebp+2], dl
  00049	8a 50 03	 mov	 dl, BYTE PTR [eax+3]
  0004c	84 d2		 test	 dl, dl
  0004e	0f 84 61 01 00
	00		 je	 $LN93@SetTitle_e
  00054	80 f2 ea	 xor	 dl, -22			; ffffffeaH
  00057	88 55 e7	 mov	 BYTE PTR __t$[ebp+3], dl
  0005a	8a 50 04	 mov	 dl, BYTE PTR [eax+4]
  0005d	84 d2		 test	 dl, dl
  0005f	0f 84 4a 01 00
	00		 je	 $LN92@SetTitle_e
  00065	80 f2 ed	 xor	 dl, -19			; ffffffedH
  00068	88 55 e8	 mov	 BYTE PTR __t$[ebp+4], dl
  0006b	8a 50 05	 mov	 dl, BYTE PTR [eax+5]
  0006e	84 d2		 test	 dl, dl
  00070	0f 84 34 01 00
	00		 je	 $LN91@SetTitle_e
  00076	32 d1		 xor	 dl, cl
  00078	88 55 e9	 mov	 BYTE PTR __t$[ebp+5], dl
  0007b	8a 50 06	 mov	 dl, BYTE PTR [eax+6]
  0007e	84 d2		 test	 dl, dl
  00080	0f 84 1e 01 00
	00		 je	 $LN90@SetTitle_e
  00086	80 f2 eb	 xor	 dl, -21			; ffffffebH
  00089	88 55 ea	 mov	 BYTE PTR __t$[ebp+6], dl
  0008c	8a 50 07	 mov	 dl, BYTE PTR [eax+7]
  0008f	84 d2		 test	 dl, dl
  00091	0f 84 07 01 00
	00		 je	 $LN89@SetTitle_e
  00097	80 f2 ea	 xor	 dl, -22			; ffffffeaH
  0009a	88 55 eb	 mov	 BYTE PTR __t$[ebp+7], dl
  0009d	8a 50 08	 mov	 dl, BYTE PTR [eax+8]
  000a0	84 d2		 test	 dl, dl
  000a2	0f 84 f0 00 00
	00		 je	 $LN88@SetTitle_e
  000a8	80 f2 ed	 xor	 dl, -19			; ffffffedH
  000ab	88 55 ec	 mov	 BYTE PTR __t$[ebp+8], dl
  000ae	8a 50 09	 mov	 dl, BYTE PTR [eax+9]
  000b1	84 d2		 test	 dl, dl
  000b3	0f 84 da 00 00
	00		 je	 $LN87@SetTitle_e
  000b9	32 d1		 xor	 dl, cl
  000bb	88 55 ed	 mov	 BYTE PTR __t$[ebp+9], dl
  000be	8a 50 0a	 mov	 dl, BYTE PTR [eax+10]
  000c1	84 d2		 test	 dl, dl
  000c3	0f 84 c4 00 00
	00		 je	 $LN86@SetTitle_e
  000c9	80 f2 eb	 xor	 dl, -21			; ffffffebH
  000cc	88 55 ee	 mov	 BYTE PTR __t$[ebp+10], dl
  000cf	8a 50 0b	 mov	 dl, BYTE PTR [eax+11]
  000d2	84 d2		 test	 dl, dl
  000d4	0f 84 ad 00 00
	00		 je	 $LN85@SetTitle_e
  000da	80 f2 ea	 xor	 dl, -22			; ffffffeaH
  000dd	88 55 ef	 mov	 BYTE PTR __t$[ebp+11], dl
  000e0	8a 50 0c	 mov	 dl, BYTE PTR [eax+12]
  000e3	84 d2		 test	 dl, dl
  000e5	0f 84 96 00 00
	00		 je	 $LN84@SetTitle_e
  000eb	80 f2 ed	 xor	 dl, -19			; ffffffedH
  000ee	88 55 f0	 mov	 BYTE PTR __t$[ebp+12], dl
  000f1	8a 50 0d	 mov	 dl, BYTE PTR [eax+13]
  000f4	84 d2		 test	 dl, dl
  000f6	0f 84 80 00 00
	00		 je	 $LN83@SetTitle_e
  000fc	32 d1		 xor	 dl, cl
  000fe	88 55 f1	 mov	 BYTE PTR __t$[ebp+13], dl
  00101	8a 50 0e	 mov	 dl, BYTE PTR [eax+14]
  00104	84 d2		 test	 dl, dl
  00106	74 6e		 je	 SHORT $LN82@SetTitle_e
  00108	80 f2 eb	 xor	 dl, -21			; ffffffebH
  0010b	88 55 f2	 mov	 BYTE PTR __t$[ebp+14], dl
  0010e	8a 50 0f	 mov	 dl, BYTE PTR [eax+15]
  00111	84 d2		 test	 dl, dl
  00113	74 5b		 je	 SHORT $LN81@SetTitle_e
  00115	80 f2 ea	 xor	 dl, -22			; ffffffeaH
  00118	80 78 10 00	 cmp	 BYTE PTR [eax+16], 0
  0011c	88 55 f3	 mov	 BYTE PTR __t$[ebp+15], dl
  0011f	0f 84 a6 00 00
	00		 je	 $LN1@SetTitle_e
  00125	8a 50 11	 mov	 dl, BYTE PTR [eax+17]
  00128	84 d2		 test	 dl, dl
  0012a	74 3f		 je	 SHORT $LN79@SetTitle_e
  0012c	32 d1		 xor	 dl, cl
  0012e	88 55 f5	 mov	 BYTE PTR __t$[ebp+17], dl
  00131	8a 50 12	 mov	 dl, BYTE PTR [eax+18]
  00134	84 d2		 test	 dl, dl
  00136	74 2d		 je	 SHORT $LN78@SetTitle_e
  00138	80 f2 eb	 xor	 dl, -21			; ffffffebH
  0013b	88 55 f6	 mov	 BYTE PTR __t$[ebp+18], dl
  0013e	8a 50 13	 mov	 dl, BYTE PTR [eax+19]
  00141	84 d2		 test	 dl, dl
  00143	74 1a		 je	 SHORT $LN77@SetTitle_e
  00145	8a 40 14	 mov	 al, BYTE PTR [eax+20]
  00148	80 f2 ea	 xor	 dl, -22			; ffffffeaH
  0014b	88 55 f7	 mov	 BYTE PTR __t$[ebp+19], dl
  0014e	84 c0		 test	 al, al
  00150	74 07		 je	 SHORT $LN76@SetTitle_e
  00152	34 ed		 xor	 al, -19			; ffffffedH
  00154	88 45 f8	 mov	 BYTE PTR __t$[ebp+20], al
  00157	eb 72		 jmp	 SHORT $LN1@SetTitle_e
$LN76@SetTitle_e:
  00159	c6 45 f8 ed	 mov	 BYTE PTR __t$[ebp+20], -19 ; ffffffedH
  0015d	eb 6c		 jmp	 SHORT $LN1@SetTitle_e
$LN77@SetTitle_e:
  0015f	c6 45 f7 ea	 mov	 BYTE PTR __t$[ebp+19], -22 ; ffffffeaH
  00163	eb 66		 jmp	 SHORT $LN1@SetTitle_e
$LN78@SetTitle_e:
  00165	c6 45 f6 eb	 mov	 BYTE PTR __t$[ebp+18], -21 ; ffffffebH
  00169	eb 60		 jmp	 SHORT $LN1@SetTitle_e
$LN79@SetTitle_e:
  0016b	88 4d f5	 mov	 BYTE PTR __t$[ebp+17], cl
  0016e	eb 5b		 jmp	 SHORT $LN1@SetTitle_e
$LN81@SetTitle_e:
  00170	c6 45 f3 ea	 mov	 BYTE PTR __t$[ebp+15], -22 ; ffffffeaH
  00174	eb 55		 jmp	 SHORT $LN1@SetTitle_e
$LN82@SetTitle_e:
  00176	c6 45 f2 eb	 mov	 BYTE PTR __t$[ebp+14], -21 ; ffffffebH
  0017a	eb 4f		 jmp	 SHORT $LN1@SetTitle_e
$LN83@SetTitle_e:
  0017c	88 4d f1	 mov	 BYTE PTR __t$[ebp+13], cl
  0017f	eb 4a		 jmp	 SHORT $LN1@SetTitle_e
$LN84@SetTitle_e:
  00181	c6 45 f0 ed	 mov	 BYTE PTR __t$[ebp+12], -19 ; ffffffedH
  00185	eb 44		 jmp	 SHORT $LN1@SetTitle_e
$LN85@SetTitle_e:
  00187	c6 45 ef ea	 mov	 BYTE PTR __t$[ebp+11], -22 ; ffffffeaH
  0018b	eb 3e		 jmp	 SHORT $LN1@SetTitle_e
$LN86@SetTitle_e:
  0018d	c6 45 ee eb	 mov	 BYTE PTR __t$[ebp+10], -21 ; ffffffebH
  00191	eb 38		 jmp	 SHORT $LN1@SetTitle_e
$LN87@SetTitle_e:
  00193	88 4d ed	 mov	 BYTE PTR __t$[ebp+9], cl
  00196	eb 33		 jmp	 SHORT $LN1@SetTitle_e
$LN88@SetTitle_e:
  00198	c6 45 ec ed	 mov	 BYTE PTR __t$[ebp+8], -19 ; ffffffedH
  0019c	eb 2d		 jmp	 SHORT $LN1@SetTitle_e
$LN89@SetTitle_e:
  0019e	c6 45 eb ea	 mov	 BYTE PTR __t$[ebp+7], -22 ; ffffffeaH
  001a2	eb 27		 jmp	 SHORT $LN1@SetTitle_e
$LN90@SetTitle_e:
  001a4	c6 45 ea eb	 mov	 BYTE PTR __t$[ebp+6], -21 ; ffffffebH
  001a8	eb 21		 jmp	 SHORT $LN1@SetTitle_e
$LN91@SetTitle_e:
  001aa	88 4d e9	 mov	 BYTE PTR __t$[ebp+5], cl
  001ad	eb 1c		 jmp	 SHORT $LN1@SetTitle_e
$LN92@SetTitle_e:
  001af	c6 45 e8 ed	 mov	 BYTE PTR __t$[ebp+4], -19 ; ffffffedH
  001b3	eb 16		 jmp	 SHORT $LN1@SetTitle_e
$LN93@SetTitle_e:
  001b5	c6 45 e7 ea	 mov	 BYTE PTR __t$[ebp+3], -22 ; ffffffeaH
  001b9	eb 10		 jmp	 SHORT $LN1@SetTitle_e
$LN94@SetTitle_e:
  001bb	c6 45 e6 eb	 mov	 BYTE PTR __t$[ebp+2], -21 ; ffffffebH
  001bf	eb 0a		 jmp	 SHORT $LN1@SetTitle_e
$LN95@SetTitle_e:
  001c1	c6 45 e5 ec	 mov	 BYTE PTR __t$[ebp+1], -20 ; ffffffecH
  001c5	eb 04		 jmp	 SHORT $LN1@SetTitle_e
$LN96@SetTitle_e:
  001c7	c6 45 e4 ed	 mov	 BYTE PTR __t$[ebp], -19	; ffffffedH
$LN1@SetTitle_e:
  001cb	6a 04		 push	 4
  001cd	8d 45 e4	 lea	 eax, DWORD PTR __t$[ebp]
  001d0	c6 45 f4 00	 mov	 BYTE PTR __t$[ebp+16], 0
  001d4	5a		 pop	 edx
$LL104@SetTitle_e:
  001d5	81 30 ed ec eb
	ea		 xor	 DWORD PTR [eax], -353637139 ; eaebecedH
  001db	83 c0 04	 add	 eax, 4
  001de	4a		 dec	 edx
  001df	75 f4		 jne	 SHORT $LL104@SetTitle_e

; 190  : 		SetTitle(_t);

  001e1	8d 45 e4	 lea	 eax, DWORD PTR __t$[ebp]
  001e4	50		 push	 eax
  001e5	8b ce		 mov	 ecx, esi
  001e7	ff 15 00 00 00
	00		 call	 DWORD PTR __imp_?SetTitle@ioINILoader@@QAEXPBD@Z

; 191  : 	}

  001ed	8b 4d fc	 mov	 ecx, DWORD PTR __$ArrayPad$[ebp]
  001f0	33 cd		 xor	 ecx, ebp
  001f2	5e		 pop	 esi
  001f3	e8 00 00 00 00	 call	 @__security_check_cookie@4
  001f8	c9		 leave
  001f9	c2 04 00	 ret	 4
??$SetTitle_e@$0BB@@ioINILoader@@QAEXAAY0BB@$$CBD@Z ENDP ; ioINILoader::SetTitle_e<17>
_TEXT	ENDS
PUBLIC	__$ArrayPad$
PUBLIC	??$LoadFloat_e@$05@ioINILoader@@QAEMAAY05$$CBDM@Z ; ioINILoader::LoadFloat_e<6>
EXTRN	__imp_?LoadFloat@ioINILoader@@QAEMPBDM@Z:PROC
EXTRN	__fltused:DWORD
; Function compile flags: /Ogsp
;	COMDAT ??$LoadFloat_e@$05@ioINILoader@@QAEMAAY05$$CBDM@Z
_TEXT	SEGMENT
__k$ = -16						; size = 6
__$ArrayPad$ = -4					; size = 4
_k$ = 8							; size = 4
_f$ = 12						; size = 4
??$LoadFloat_e@$05@ioINILoader@@QAEMAAY05$$CBDM@Z PROC	; ioINILoader::LoadFloat_e<6>, COMDAT
; _this$ = ecx

; 135  : 	{

  00000	55		 push	 ebp
  00001	8b ec		 mov	 ebp, esp
  00003	83 ec 10	 sub	 esp, 16			; 00000010H
  00006	a1 00 00 00 00	 mov	 eax, DWORD PTR ___security_cookie
  0000b	33 c5		 xor	 eax, ebp
  0000d	89 45 fc	 mov	 DWORD PTR __$ArrayPad$[ebp], eax
  00010	8b 45 08	 mov	 eax, DWORD PTR _k$[ebp]

; 136  : 		_ENCSTR(k, _k);

  00013	8a 10		 mov	 dl, BYTE PTR [eax]
  00015	84 d2		 test	 dl, dl
  00017	0f 84 a9 00 00
	00		 je	 $LN96@LoadFloat_
  0001d	80 f2 ed	 xor	 dl, -19			; ffffffedH
  00020	88 55 f0	 mov	 BYTE PTR __k$[ebp], dl
  00023	8a 50 01	 mov	 dl, BYTE PTR [eax+1]
  00026	84 d2		 test	 dl, dl
  00028	0f 84 92 00 00
	00		 je	 $LN95@LoadFloat_
  0002e	80 f2 ec	 xor	 dl, -20			; ffffffecH
  00031	88 55 f1	 mov	 BYTE PTR __k$[ebp+1], dl
  00034	8a 50 02	 mov	 dl, BYTE PTR [eax+2]
  00037	84 d2		 test	 dl, dl
  00039	74 7f		 je	 SHORT $LN94@LoadFloat_
  0003b	80 f2 eb	 xor	 dl, -21			; ffffffebH
  0003e	88 55 f2	 mov	 BYTE PTR __k$[ebp+2], dl
  00041	8a 50 03	 mov	 dl, BYTE PTR [eax+3]
  00044	84 d2		 test	 dl, dl
  00046	74 6c		 je	 SHORT $LN93@LoadFloat_
  00048	80 f2 ea	 xor	 dl, -22			; ffffffeaH
  0004b	88 55 f3	 mov	 BYTE PTR __k$[ebp+3], dl
  0004e	8a 50 04	 mov	 dl, BYTE PTR [eax+4]
  00051	84 d2		 test	 dl, dl
  00053	74 59		 je	 SHORT $LN92@LoadFloat_
  00055	80 f2 ed	 xor	 dl, -19			; ffffffedH
  00058	80 78 05 00	 cmp	 BYTE PTR [eax+5], 0
  0005c	88 55 f4	 mov	 BYTE PTR __k$[ebp+4], dl
  0005f	74 69		 je	 SHORT $LN1@LoadFloat_
  00061	8a 50 06	 mov	 dl, BYTE PTR [eax+6]
  00064	84 d2		 test	 dl, dl
  00066	74 40		 je	 SHORT $LN90@LoadFloat_
  00068	80 f2 eb	 xor	 dl, -21			; ffffffebH
  0006b	88 55 f6	 mov	 BYTE PTR __k$[ebp+6], dl
  0006e	8a 50 07	 mov	 dl, BYTE PTR [eax+7]
  00071	84 d2		 test	 dl, dl
  00073	74 2d		 je	 SHORT $LN89@LoadFloat_
  00075	80 f2 ea	 xor	 dl, -22			; ffffffeaH
  00078	88 55 f7	 mov	 BYTE PTR __k$[ebp+7], dl
  0007b	8a 50 08	 mov	 dl, BYTE PTR [eax+8]
  0007e	84 d2		 test	 dl, dl
  00080	74 1a		 je	 SHORT $LN88@LoadFloat_
  00082	8a 40 09	 mov	 al, BYTE PTR [eax+9]
  00085	80 f2 ed	 xor	 dl, -19			; ffffffedH
  00088	88 55 f8	 mov	 BYTE PTR __k$[ebp+8], dl
  0008b	84 c0		 test	 al, al
  0008d	74 07		 je	 SHORT $LN87@LoadFloat_
  0008f	34 ec		 xor	 al, -20			; ffffffecH
  00091	88 45 f9	 mov	 BYTE PTR __k$[ebp+9], al
  00094	eb 34		 jmp	 SHORT $LN1@LoadFloat_
$LN87@LoadFloat_:
  00096	c6 45 f9 ec	 mov	 BYTE PTR __k$[ebp+9], -20 ; ffffffecH
  0009a	eb 2e		 jmp	 SHORT $LN1@LoadFloat_
$LN88@LoadFloat_:
  0009c	c6 45 f8 ed	 mov	 BYTE PTR __k$[ebp+8], -19 ; ffffffedH
  000a0	eb 28		 jmp	 SHORT $LN1@LoadFloat_
$LN89@LoadFloat_:
  000a2	c6 45 f7 ea	 mov	 BYTE PTR __k$[ebp+7], -22 ; ffffffeaH
  000a6	eb 22		 jmp	 SHORT $LN1@LoadFloat_
$LN90@LoadFloat_:
  000a8	c6 45 f6 eb	 mov	 BYTE PTR __k$[ebp+6], -21 ; ffffffebH
  000ac	eb 1c		 jmp	 SHORT $LN1@LoadFloat_
$LN92@LoadFloat_:
  000ae	c6 45 f4 ed	 mov	 BYTE PTR __k$[ebp+4], -19 ; ffffffedH
  000b2	eb 16		 jmp	 SHORT $LN1@LoadFloat_
$LN93@LoadFloat_:
  000b4	c6 45 f3 ea	 mov	 BYTE PTR __k$[ebp+3], -22 ; ffffffeaH
  000b8	eb 10		 jmp	 SHORT $LN1@LoadFloat_
$LN94@LoadFloat_:
  000ba	c6 45 f2 eb	 mov	 BYTE PTR __k$[ebp+2], -21 ; ffffffebH
  000be	eb 0a		 jmp	 SHORT $LN1@LoadFloat_
$LN95@LoadFloat_:
  000c0	c6 45 f1 ec	 mov	 BYTE PTR __k$[ebp+1], -20 ; ffffffecH
  000c4	eb 04		 jmp	 SHORT $LN1@LoadFloat_
$LN96@LoadFloat_:
  000c6	c6 45 f0 ed	 mov	 BYTE PTR __k$[ebp], -19	; ffffffedH
$LN1@LoadFloat_:

; 137  : 		return LoadFloat(_k, f);

  000ca	f3 0f 10 45 0c	 movss	 xmm0, DWORD PTR _f$[ebp]
  000cf	81 75 f0 ed ec
	eb ea		 xor	 DWORD PTR __k$[ebp], -353637139 ; eaebecedH
  000d6	80 75 f4 ed	 xor	 BYTE PTR __k$[ebp+4], -19 ; ffffffedH
  000da	51		 push	 ecx
  000db	8d 45 f0	 lea	 eax, DWORD PTR __k$[ebp]
  000de	f3 0f 11 04 24	 movss	 DWORD PTR [esp], xmm0
  000e3	50		 push	 eax
  000e4	c6 45 f5 00	 mov	 BYTE PTR __k$[ebp+5], 0
  000e8	ff 15 00 00 00
	00		 call	 DWORD PTR __imp_?LoadFloat@ioINILoader@@QAEMPBDM@Z

; 138  : 	}

  000ee	8b 4d fc	 mov	 ecx, DWORD PTR __$ArrayPad$[ebp]
  000f1	33 cd		 xor	 ecx, ebp
  000f3	e8 00 00 00 00	 call	 @__security_check_cookie@4
  000f8	c9		 leave
  000f9	c2 08 00	 ret	 8
??$LoadFloat_e@$05@ioINILoader@@QAEMAAY05$$CBDM@Z ENDP	; ioINILoader::LoadFloat_e<6>
_TEXT	ENDS
PUBLIC	__$ArrayPad$
PUBLIC	??$LoadInt_e@$08@ioINILoader@@QAEHAAY08$$CBDH@Z	; ioINILoader::LoadInt_e<9>
EXTRN	__imp_?LoadInt@ioINILoader@@QAEHPBDH@Z:PROC
; Function compile flags: /Ogsp
;	COMDAT ??$LoadInt_e@$08@ioINILoader@@QAEHAAY08$$CBDH@Z
_TEXT	SEGMENT
__k$ = -20						; size = 9
__$ArrayPad$ = -4					; size = 4
_k$ = 8							; size = 4
_i$ = 12						; size = 4
??$LoadInt_e@$08@ioINILoader@@QAEHAAY08$$CBDH@Z PROC	; ioINILoader::LoadInt_e<9>, COMDAT
; _this$ = ecx

; 118  : 	{

  00000	55		 push	 ebp
  00001	8b ec		 mov	 ebp, esp
  00003	83 ec 14	 sub	 esp, 20			; 00000014H
  00006	a1 00 00 00 00	 mov	 eax, DWORD PTR ___security_cookie
  0000b	33 c5		 xor	 eax, ebp
  0000d	89 45 fc	 mov	 DWORD PTR __$ArrayPad$[ebp], eax
  00010	8b 45 08	 mov	 eax, DWORD PTR _k$[ebp]

; 119  : 		_ENCSTR(k, _k);

  00013	8a 10		 mov	 dl, BYTE PTR [eax]
  00015	84 d2		 test	 dl, dl
  00017	0f 84 ee 00 00
	00		 je	 $LN96@LoadInt_e
  0001d	80 f2 ed	 xor	 dl, -19			; ffffffedH
  00020	88 55 ec	 mov	 BYTE PTR __k$[ebp], dl
  00023	8a 50 01	 mov	 dl, BYTE PTR [eax+1]
  00026	84 d2		 test	 dl, dl
  00028	0f 84 d7 00 00
	00		 je	 $LN95@LoadInt_e
  0002e	80 f2 ec	 xor	 dl, -20			; ffffffecH
  00031	88 55 ed	 mov	 BYTE PTR __k$[ebp+1], dl
  00034	8a 50 02	 mov	 dl, BYTE PTR [eax+2]
  00037	84 d2		 test	 dl, dl
  00039	0f 84 c0 00 00
	00		 je	 $LN94@LoadInt_e
  0003f	80 f2 eb	 xor	 dl, -21			; ffffffebH
  00042	88 55 ee	 mov	 BYTE PTR __k$[ebp+2], dl
  00045	8a 50 03	 mov	 dl, BYTE PTR [eax+3]
  00048	84 d2		 test	 dl, dl
  0004a	0f 84 a9 00 00
	00		 je	 $LN93@LoadInt_e
  00050	80 f2 ea	 xor	 dl, -22			; ffffffeaH
  00053	88 55 ef	 mov	 BYTE PTR __k$[ebp+3], dl
  00056	8a 50 04	 mov	 dl, BYTE PTR [eax+4]
  00059	84 d2		 test	 dl, dl
  0005b	0f 84 92 00 00
	00		 je	 $LN92@LoadInt_e
  00061	80 f2 ed	 xor	 dl, -19			; ffffffedH
  00064	88 55 f0	 mov	 BYTE PTR __k$[ebp+4], dl
  00067	8a 50 05	 mov	 dl, BYTE PTR [eax+5]
  0006a	84 d2		 test	 dl, dl
  0006c	74 7f		 je	 SHORT $LN91@LoadInt_e
  0006e	80 f2 ec	 xor	 dl, -20			; ffffffecH
  00071	88 55 f1	 mov	 BYTE PTR __k$[ebp+5], dl
  00074	8a 50 06	 mov	 dl, BYTE PTR [eax+6]
  00077	84 d2		 test	 dl, dl
  00079	74 6c		 je	 SHORT $LN90@LoadInt_e
  0007b	80 f2 eb	 xor	 dl, -21			; ffffffebH
  0007e	88 55 f2	 mov	 BYTE PTR __k$[ebp+6], dl
  00081	8a 50 07	 mov	 dl, BYTE PTR [eax+7]
  00084	84 d2		 test	 dl, dl
  00086	74 59		 je	 SHORT $LN89@LoadInt_e
  00088	80 f2 ea	 xor	 dl, -22			; ffffffeaH
  0008b	80 78 08 00	 cmp	 BYTE PTR [eax+8], 0
  0008f	88 55 f3	 mov	 BYTE PTR __k$[ebp+7], dl
  00092	74 7b		 je	 SHORT $LN1@LoadInt_e
  00094	8a 50 09	 mov	 dl, BYTE PTR [eax+9]
  00097	84 d2		 test	 dl, dl
  00099	74 40		 je	 SHORT $LN87@LoadInt_e
  0009b	80 f2 ec	 xor	 dl, -20			; ffffffecH
  0009e	88 55 f5	 mov	 BYTE PTR __k$[ebp+9], dl
  000a1	8a 50 0a	 mov	 dl, BYTE PTR [eax+10]
  000a4	84 d2		 test	 dl, dl
  000a6	74 2d		 je	 SHORT $LN86@LoadInt_e
  000a8	80 f2 eb	 xor	 dl, -21			; ffffffebH
  000ab	88 55 f6	 mov	 BYTE PTR __k$[ebp+10], dl
  000ae	8a 50 0b	 mov	 dl, BYTE PTR [eax+11]
  000b1	84 d2		 test	 dl, dl
  000b3	74 1a		 je	 SHORT $LN85@LoadInt_e
  000b5	8a 40 0c	 mov	 al, BYTE PTR [eax+12]
  000b8	80 f2 ea	 xor	 dl, -22			; ffffffeaH
  000bb	88 55 f7	 mov	 BYTE PTR __k$[ebp+11], dl
  000be	84 c0		 test	 al, al
  000c0	74 07		 je	 SHORT $LN84@LoadInt_e
  000c2	34 ed		 xor	 al, -19			; ffffffedH
  000c4	88 45 f8	 mov	 BYTE PTR __k$[ebp+12], al
  000c7	eb 46		 jmp	 SHORT $LN1@LoadInt_e
$LN84@LoadInt_e:
  000c9	c6 45 f8 ed	 mov	 BYTE PTR __k$[ebp+12], -19 ; ffffffedH
  000cd	eb 40		 jmp	 SHORT $LN1@LoadInt_e
$LN85@LoadInt_e:
  000cf	c6 45 f7 ea	 mov	 BYTE PTR __k$[ebp+11], -22 ; ffffffeaH
  000d3	eb 3a		 jmp	 SHORT $LN1@LoadInt_e
$LN86@LoadInt_e:
  000d5	c6 45 f6 eb	 mov	 BYTE PTR __k$[ebp+10], -21 ; ffffffebH
  000d9	eb 34		 jmp	 SHORT $LN1@LoadInt_e
$LN87@LoadInt_e:
  000db	c6 45 f5 ec	 mov	 BYTE PTR __k$[ebp+9], -20 ; ffffffecH
  000df	eb 2e		 jmp	 SHORT $LN1@LoadInt_e
$LN89@LoadInt_e:
  000e1	c6 45 f3 ea	 mov	 BYTE PTR __k$[ebp+7], -22 ; ffffffeaH
  000e5	eb 28		 jmp	 SHORT $LN1@LoadInt_e
$LN90@LoadInt_e:
  000e7	c6 45 f2 eb	 mov	 BYTE PTR __k$[ebp+6], -21 ; ffffffebH
  000eb	eb 22		 jmp	 SHORT $LN1@LoadInt_e
$LN91@LoadInt_e:
  000ed	c6 45 f1 ec	 mov	 BYTE PTR __k$[ebp+5], -20 ; ffffffecH
  000f1	eb 1c		 jmp	 SHORT $LN1@LoadInt_e
$LN92@LoadInt_e:
  000f3	c6 45 f0 ed	 mov	 BYTE PTR __k$[ebp+4], -19 ; ffffffedH
  000f7	eb 16		 jmp	 SHORT $LN1@LoadInt_e
$LN93@LoadInt_e:
  000f9	c6 45 ef ea	 mov	 BYTE PTR __k$[ebp+3], -22 ; ffffffeaH
  000fd	eb 10		 jmp	 SHORT $LN1@LoadInt_e
$LN94@LoadInt_e:
  000ff	c6 45 ee eb	 mov	 BYTE PTR __k$[ebp+2], -21 ; ffffffebH
  00103	eb 0a		 jmp	 SHORT $LN1@LoadInt_e
$LN95@LoadInt_e:
  00105	c6 45 ed ec	 mov	 BYTE PTR __k$[ebp+1], -20 ; ffffffecH
  00109	eb 04		 jmp	 SHORT $LN1@LoadInt_e
$LN96@LoadInt_e:
  0010b	c6 45 ec ed	 mov	 BYTE PTR __k$[ebp], -19	; ffffffedH
$LN1@LoadInt_e:
  0010f	6a 02		 push	 2
  00111	8d 45 ec	 lea	 eax, DWORD PTR __k$[ebp]
  00114	c6 45 f4 00	 mov	 BYTE PTR __k$[ebp+8], 0
  00118	5a		 pop	 edx
$LL104@LoadInt_e:
  00119	81 30 ed ec eb
	ea		 xor	 DWORD PTR [eax], -353637139 ; eaebecedH
  0011f	83 c0 04	 add	 eax, 4
  00122	4a		 dec	 edx
  00123	75 f4		 jne	 SHORT $LL104@LoadInt_e

; 120  : 		return LoadInt(_k, i);

  00125	ff 75 0c	 push	 DWORD PTR _i$[ebp]
  00128	8d 45 ec	 lea	 eax, DWORD PTR __k$[ebp]
  0012b	50		 push	 eax
  0012c	ff 15 00 00 00
	00		 call	 DWORD PTR __imp_?LoadInt@ioINILoader@@QAEHPBDH@Z

; 121  : 	}

  00132	8b 4d fc	 mov	 ecx, DWORD PTR __$ArrayPad$[ebp]
  00135	33 cd		 xor	 ecx, ebp
  00137	e8 00 00 00 00	 call	 @__security_check_cookie@4
  0013c	c9		 leave
  0013d	c2 08 00	 ret	 8
??$LoadInt_e@$08@ioINILoader@@QAEHAAY08$$CBDH@Z ENDP	; ioINILoader::LoadInt_e<9>
_TEXT	ENDS
PUBLIC	_this$GSCopy$
PUBLIC	__$ArrayPad$
PUBLIC	??$LoadString_e@$0BE@@ioINILoader@@QAEXAAY0BE@$$CBDAAY00$$CBDPADH@Z ; ioINILoader::LoadString_e<20>
EXTRN	__imp_?LoadStringA@ioINILoader@@QAEXPBD0PADH@Z:PROC
; Function compile flags: /Ogsp
;	COMDAT ??$LoadString_e@$0BE@@ioINILoader@@QAEXAAY0BE@$$CBDAAY00$$CBDPADH@Z
_TEXT	SEGMENT
_this$GSCopy$ = -32					; size = 4
__k$ = -28						; size = 20
__$ArrayPad$ = -4					; size = 4
_k$ = 8							; size = 4
_d$ = 12						; size = 4
_b$ = 16						; size = 4
_i$ = 20						; size = 4
??$LoadString_e@$0BE@@ioINILoader@@QAEXAAY0BE@$$CBDAAY00$$CBDPADH@Z PROC ; ioINILoader::LoadString_e<20>, COMDAT
; _this$ = ecx

; 161  : 	{

  00000	55		 push	 ebp
  00001	8b ec		 mov	 ebp, esp
  00003	83 ec 20	 sub	 esp, 32			; 00000020H
  00006	a1 00 00 00 00	 mov	 eax, DWORD PTR ___security_cookie
  0000b	33 c5		 xor	 eax, ebp
  0000d	89 45 fc	 mov	 DWORD PTR __$ArrayPad$[ebp], eax
  00010	8b 45 08	 mov	 eax, DWORD PTR _k$[ebp]

; 162  : 		_ENCSTR(k, _k);

  00013	8a 10		 mov	 dl, BYTE PTR [eax]
  00015	53		 push	 ebx
  00016	56		 push	 esi
  00017	8b 75 0c	 mov	 esi, DWORD PTR _d$[ebp]
  0001a	57		 push	 edi
  0001b	8b 7d 10	 mov	 edi, DWORD PTR _b$[ebp]
  0001e	89 4d e0	 mov	 DWORD PTR _this$GSCopy$[ebp], ecx
  00021	84 d2		 test	 dl, dl
  00023	0f 84 dd 01 00
	00		 je	 $LN96@LoadString
  00029	80 f2 ed	 xor	 dl, -19			; ffffffedH
  0002c	88 55 e4	 mov	 BYTE PTR __k$[ebp], dl
  0002f	8a 50 01	 mov	 dl, BYTE PTR [eax+1]
  00032	84 d2		 test	 dl, dl
  00034	0f 84 c6 01 00
	00		 je	 $LN95@LoadString
  0003a	b3 ec		 mov	 bl, -20			; ffffffecH
  0003c	32 d3		 xor	 dl, bl
  0003e	88 55 e5	 mov	 BYTE PTR __k$[ebp+1], dl
  00041	8a 50 02	 mov	 dl, BYTE PTR [eax+2]
  00044	84 d2		 test	 dl, dl
  00046	0f 84 ae 01 00
	00		 je	 $LN94@LoadString
  0004c	b1 eb		 mov	 cl, -21			; ffffffebH
  0004e	32 d1		 xor	 dl, cl
  00050	88 55 e6	 mov	 BYTE PTR __k$[ebp+2], dl
  00053	8a 50 03	 mov	 dl, BYTE PTR [eax+3]
  00056	84 d2		 test	 dl, dl
  00058	0f 84 96 01 00
	00		 je	 $LN93@LoadString
  0005e	80 f2 ea	 xor	 dl, -22			; ffffffeaH
  00061	88 55 e7	 mov	 BYTE PTR __k$[ebp+3], dl
  00064	8a 50 04	 mov	 dl, BYTE PTR [eax+4]
  00067	84 d2		 test	 dl, dl
  00069	0f 84 7f 01 00
	00		 je	 $LN92@LoadString
  0006f	80 f2 ed	 xor	 dl, -19			; ffffffedH
  00072	88 55 e8	 mov	 BYTE PTR __k$[ebp+4], dl
  00075	8a 50 05	 mov	 dl, BYTE PTR [eax+5]
  00078	84 d2		 test	 dl, dl
  0007a	0f 84 69 01 00
	00		 je	 $LN91@LoadString
  00080	32 d3		 xor	 dl, bl
  00082	88 55 e9	 mov	 BYTE PTR __k$[ebp+5], dl
  00085	8a 50 06	 mov	 dl, BYTE PTR [eax+6]
  00088	84 d2		 test	 dl, dl
  0008a	0f 84 54 01 00
	00		 je	 $LN90@LoadString
  00090	32 d1		 xor	 dl, cl
  00092	88 55 ea	 mov	 BYTE PTR __k$[ebp+6], dl
  00095	8a 50 07	 mov	 dl, BYTE PTR [eax+7]
  00098	84 d2		 test	 dl, dl
  0009a	0f 84 3e 01 00
	00		 je	 $LN89@LoadString
  000a0	80 f2 ea	 xor	 dl, -22			; ffffffeaH
  000a3	88 55 eb	 mov	 BYTE PTR __k$[ebp+7], dl
  000a6	8a 50 08	 mov	 dl, BYTE PTR [eax+8]
  000a9	84 d2		 test	 dl, dl
  000ab	0f 84 27 01 00
	00		 je	 $LN88@LoadString
  000b1	80 f2 ed	 xor	 dl, -19			; ffffffedH
  000b4	88 55 ec	 mov	 BYTE PTR __k$[ebp+8], dl
  000b7	8a 50 09	 mov	 dl, BYTE PTR [eax+9]
  000ba	84 d2		 test	 dl, dl
  000bc	0f 84 11 01 00
	00		 je	 $LN87@LoadString
  000c2	32 d3		 xor	 dl, bl
  000c4	88 55 ed	 mov	 BYTE PTR __k$[ebp+9], dl
  000c7	8a 50 0a	 mov	 dl, BYTE PTR [eax+10]
  000ca	84 d2		 test	 dl, dl
  000cc	0f 84 fc 00 00
	00		 je	 $LN86@LoadString
  000d2	32 d1		 xor	 dl, cl
  000d4	88 55 ee	 mov	 BYTE PTR __k$[ebp+10], dl
  000d7	8a 50 0b	 mov	 dl, BYTE PTR [eax+11]
  000da	84 d2		 test	 dl, dl
  000dc	0f 84 e6 00 00
	00		 je	 $LN85@LoadString
  000e2	80 f2 ea	 xor	 dl, -22			; ffffffeaH
  000e5	88 55 ef	 mov	 BYTE PTR __k$[ebp+11], dl
  000e8	8a 50 0c	 mov	 dl, BYTE PTR [eax+12]
  000eb	84 d2		 test	 dl, dl
  000ed	0f 84 cf 00 00
	00		 je	 $LN84@LoadString
  000f3	80 f2 ed	 xor	 dl, -19			; ffffffedH
  000f6	88 55 f0	 mov	 BYTE PTR __k$[ebp+12], dl
  000f9	8a 50 0d	 mov	 dl, BYTE PTR [eax+13]
  000fc	84 d2		 test	 dl, dl
  000fe	0f 84 b9 00 00
	00		 je	 $LN83@LoadString
  00104	32 d3		 xor	 dl, bl
  00106	88 55 f1	 mov	 BYTE PTR __k$[ebp+13], dl
  00109	8a 50 0e	 mov	 dl, BYTE PTR [eax+14]
  0010c	84 d2		 test	 dl, dl
  0010e	0f 84 a4 00 00
	00		 je	 $LN82@LoadString
  00114	32 d1		 xor	 dl, cl
  00116	88 55 f2	 mov	 BYTE PTR __k$[ebp+14], dl
  00119	8a 50 0f	 mov	 dl, BYTE PTR [eax+15]
  0011c	84 d2		 test	 dl, dl
  0011e	0f 84 8e 00 00
	00		 je	 $LN81@LoadString
  00124	80 f2 ea	 xor	 dl, -22			; ffffffeaH
  00127	88 55 f3	 mov	 BYTE PTR __k$[ebp+15], dl
  0012a	8a 50 10	 mov	 dl, BYTE PTR [eax+16]
  0012d	84 d2		 test	 dl, dl
  0012f	74 7b		 je	 SHORT $LN80@LoadString
  00131	80 f2 ed	 xor	 dl, -19			; ffffffedH
  00134	88 55 f4	 mov	 BYTE PTR __k$[ebp+16], dl
  00137	8a 50 11	 mov	 dl, BYTE PTR [eax+17]
  0013a	84 d2		 test	 dl, dl
  0013c	74 69		 je	 SHORT $LN79@LoadString
  0013e	32 d3		 xor	 dl, bl
  00140	88 55 f5	 mov	 BYTE PTR __k$[ebp+17], dl
  00143	8a 50 12	 mov	 dl, BYTE PTR [eax+18]
  00146	84 d2		 test	 dl, dl
  00148	74 58		 je	 SHORT $LN78@LoadString
  0014a	32 d1		 xor	 dl, cl
  0014c	80 78 13 00	 cmp	 BYTE PTR [eax+19], 0
  00150	88 55 f6	 mov	 BYTE PTR __k$[ebp+18], dl
  00153	0f 84 b1 00 00
	00		 je	 $LN111@LoadString
  00159	8a 50 14	 mov	 dl, BYTE PTR [eax+20]
  0015c	84 d2		 test	 dl, dl
  0015e	74 3c		 je	 SHORT $LN76@LoadString
  00160	80 f2 ed	 xor	 dl, -19			; ffffffedH
  00163	88 55 f8	 mov	 BYTE PTR __k$[ebp+20], dl
  00166	8a 50 15	 mov	 dl, BYTE PTR [eax+21]
  00169	84 d2		 test	 dl, dl
  0016b	74 2a		 je	 SHORT $LN75@LoadString
  0016d	32 d3		 xor	 dl, bl
  0016f	88 55 f9	 mov	 BYTE PTR __k$[ebp+21], dl
  00172	8a 50 16	 mov	 dl, BYTE PTR [eax+22]
  00175	84 d2		 test	 dl, dl
  00177	74 19		 je	 SHORT $LN74@LoadString
  00179	8a 40 17	 mov	 al, BYTE PTR [eax+23]
  0017c	32 d1		 xor	 dl, cl
  0017e	88 55 fa	 mov	 BYTE PTR __k$[ebp+22], dl
  00181	84 c0		 test	 al, al
  00183	74 07		 je	 SHORT $LN73@LoadString
  00185	34 ea		 xor	 al, -22			; ffffffeaH
  00187	88 45 fb	 mov	 BYTE PTR __k$[ebp+23], al
  0018a	eb 7e		 jmp	 SHORT $LN111@LoadString
$LN73@LoadString:
  0018c	c6 45 fb ea	 mov	 BYTE PTR __k$[ebp+23], -22 ; ffffffeaH
  00190	eb 78		 jmp	 SHORT $LN111@LoadString
$LN74@LoadString:
  00192	88 4d fa	 mov	 BYTE PTR __k$[ebp+22], cl
  00195	eb 73		 jmp	 SHORT $LN111@LoadString
$LN75@LoadString:
  00197	88 5d f9	 mov	 BYTE PTR __k$[ebp+21], bl
  0019a	eb 6e		 jmp	 SHORT $LN111@LoadString
$LN76@LoadString:
  0019c	c6 45 f8 ed	 mov	 BYTE PTR __k$[ebp+20], -19 ; ffffffedH
  001a0	eb 68		 jmp	 SHORT $LN111@LoadString
$LN78@LoadString:
  001a2	88 4d f6	 mov	 BYTE PTR __k$[ebp+18], cl
  001a5	eb 63		 jmp	 SHORT $LN111@LoadString
$LN79@LoadString:
  001a7	88 5d f5	 mov	 BYTE PTR __k$[ebp+17], bl
  001aa	eb 5e		 jmp	 SHORT $LN111@LoadString
$LN80@LoadString:
  001ac	c6 45 f4 ed	 mov	 BYTE PTR __k$[ebp+16], -19 ; ffffffedH
  001b0	eb 58		 jmp	 SHORT $LN111@LoadString
$LN81@LoadString:
  001b2	c6 45 f3 ea	 mov	 BYTE PTR __k$[ebp+15], -22 ; ffffffeaH
  001b6	eb 52		 jmp	 SHORT $LN111@LoadString
$LN82@LoadString:
  001b8	88 4d f2	 mov	 BYTE PTR __k$[ebp+14], cl
  001bb	eb 4d		 jmp	 SHORT $LN111@LoadString
$LN83@LoadString:
  001bd	88 5d f1	 mov	 BYTE PTR __k$[ebp+13], bl
  001c0	eb 48		 jmp	 SHORT $LN111@LoadString
$LN84@LoadString:
  001c2	c6 45 f0 ed	 mov	 BYTE PTR __k$[ebp+12], -19 ; ffffffedH
  001c6	eb 42		 jmp	 SHORT $LN111@LoadString
$LN85@LoadString:
  001c8	c6 45 ef ea	 mov	 BYTE PTR __k$[ebp+11], -22 ; ffffffeaH
  001cc	eb 3c		 jmp	 SHORT $LN111@LoadString
$LN86@LoadString:
  001ce	88 4d ee	 mov	 BYTE PTR __k$[ebp+10], cl
  001d1	eb 37		 jmp	 SHORT $LN111@LoadString
$LN87@LoadString:
  001d3	88 5d ed	 mov	 BYTE PTR __k$[ebp+9], bl
  001d6	eb 32		 jmp	 SHORT $LN111@LoadString
$LN88@LoadString:
  001d8	c6 45 ec ed	 mov	 BYTE PTR __k$[ebp+8], -19 ; ffffffedH
  001dc	eb 2c		 jmp	 SHORT $LN111@LoadString
$LN89@LoadString:
  001de	c6 45 eb ea	 mov	 BYTE PTR __k$[ebp+7], -22 ; ffffffeaH
  001e2	eb 26		 jmp	 SHORT $LN111@LoadString
$LN90@LoadString:
  001e4	88 4d ea	 mov	 BYTE PTR __k$[ebp+6], cl
  001e7	eb 21		 jmp	 SHORT $LN111@LoadString
$LN91@LoadString:
  001e9	88 5d e9	 mov	 BYTE PTR __k$[ebp+5], bl
  001ec	eb 1c		 jmp	 SHORT $LN111@LoadString
$LN92@LoadString:
  001ee	c6 45 e8 ed	 mov	 BYTE PTR __k$[ebp+4], -19 ; ffffffedH
  001f2	eb 16		 jmp	 SHORT $LN111@LoadString
$LN93@LoadString:
  001f4	c6 45 e7 ea	 mov	 BYTE PTR __k$[ebp+3], -22 ; ffffffeaH
  001f8	eb 10		 jmp	 SHORT $LN111@LoadString
$LN94@LoadString:
  001fa	c6 45 e6 eb	 mov	 BYTE PTR __k$[ebp+2], -21 ; ffffffebH
  001fe	eb 0a		 jmp	 SHORT $LN111@LoadString
$LN95@LoadString:
  00200	c6 45 e5 ec	 mov	 BYTE PTR __k$[ebp+1], -20 ; ffffffecH
  00204	eb 04		 jmp	 SHORT $LN111@LoadString
$LN96@LoadString:
  00206	c6 45 e4 ed	 mov	 BYTE PTR __k$[ebp], -19	; ffffffedH
$LN111@LoadString:
  0020a	6a 04		 push	 4
  0020c	8d 45 e4	 lea	 eax, DWORD PTR __k$[ebp]
  0020f	c6 45 f7 00	 mov	 BYTE PTR __k$[ebp+19], 0
  00213	5a		 pop	 edx
$LL104@LoadString:
  00214	81 30 ed ec eb
	ea		 xor	 DWORD PTR [eax], -353637139 ; eaebecedH
  0021a	83 c0 04	 add	 eax, 4
  0021d	4a		 dec	 edx
  0021e	75 f4		 jne	 SHORT $LL104@LoadString
  00220	6a 10		 push	 16			; 00000010H
  00222	58		 pop	 eax
$LL101@LoadString:
  00223	8b c8		 mov	 ecx, eax
  00225	81 e1 03 00 00
	80		 and	 ecx, -2147483645	; 80000003H
  0022b	79 05		 jns	 SHORT $LN112@LoadString
  0022d	49		 dec	 ecx
  0022e	83 c9 fc	 or	 ecx, -4			; fffffffcH
  00231	41		 inc	 ecx
$LN112@LoadString:
  00232	b2 ed		 mov	 dl, -19			; ffffffedH
  00234	2a d1		 sub	 dl, cl
  00236	30 54 05 e4	 xor	 BYTE PTR __k$[ebp+eax], dl
  0023a	40		 inc	 eax
  0023b	83 f8 13	 cmp	 eax, 19			; 00000013H
  0023e	7c e3		 jl	 SHORT $LL101@LoadString

; 163  : 		LoadString(_k, d, b, i);

  00240	ff 75 14	 push	 DWORD PTR _i$[ebp]
  00243	8b 4d e0	 mov	 ecx, DWORD PTR _this$GSCopy$[ebp]
  00246	57		 push	 edi
  00247	56		 push	 esi
  00248	8d 45 e4	 lea	 eax, DWORD PTR __k$[ebp]
  0024b	50		 push	 eax
  0024c	ff 15 00 00 00
	00		 call	 DWORD PTR __imp_?LoadStringA@ioINILoader@@QAEXPBD0PADH@Z

; 164  : 	}

  00252	8b 4d fc	 mov	 ecx, DWORD PTR __$ArrayPad$[ebp]
  00255	5f		 pop	 edi
  00256	5e		 pop	 esi
  00257	33 cd		 xor	 ecx, ebp
  00259	5b		 pop	 ebx
  0025a	e8 00 00 00 00	 call	 @__security_check_cookie@4
  0025f	c9		 leave
  00260	c2 10 00	 ret	 16			; 00000010H
??$LoadString_e@$0BE@@ioINILoader@@QAEXAAY0BE@$$CBDAAY00$$CBDPADH@Z ENDP ; ioINILoader::LoadString_e<20>
_TEXT	ENDS
PUBLIC	_this$GSCopy$
PUBLIC	__$ArrayPad$
PUBLIC	??$LoadString_e@$0BB@@ioINILoader@@QAEXAAY0BB@$$CBDAAY00$$CBDPADH@Z ; ioINILoader::LoadString_e<17>
; Function compile flags: /Ogsp
;	COMDAT ??$LoadString_e@$0BB@@ioINILoader@@QAEXAAY0BB@$$CBDAAY00$$CBDPADH@Z
_TEXT	SEGMENT
_this$GSCopy$ = -32					; size = 4
__k$ = -28						; size = 17
__$ArrayPad$ = -4					; size = 4
_k$ = 8							; size = 4
_d$ = 12						; size = 4
_b$ = 16						; size = 4
_i$ = 20						; size = 4
??$LoadString_e@$0BB@@ioINILoader@@QAEXAAY0BB@$$CBDAAY00$$CBDPADH@Z PROC ; ioINILoader::LoadString_e<17>, COMDAT
; _this$ = ecx

; 161  : 	{

  00000	55		 push	 ebp
  00001	8b ec		 mov	 ebp, esp
  00003	83 ec 20	 sub	 esp, 32			; 00000020H
  00006	a1 00 00 00 00	 mov	 eax, DWORD PTR ___security_cookie
  0000b	33 c5		 xor	 eax, ebp
  0000d	89 45 fc	 mov	 DWORD PTR __$ArrayPad$[ebp], eax
  00010	8b 45 08	 mov	 eax, DWORD PTR _k$[ebp]

; 162  : 		_ENCSTR(k, _k);

  00013	8a 10		 mov	 dl, BYTE PTR [eax]
  00015	56		 push	 esi
  00016	8b 75 0c	 mov	 esi, DWORD PTR _d$[ebp]
  00019	57		 push	 edi
  0001a	8b 7d 10	 mov	 edi, DWORD PTR _b$[ebp]
  0001d	89 4d e0	 mov	 DWORD PTR _this$GSCopy$[ebp], ecx
  00020	84 d2		 test	 dl, dl
  00022	0f 84 a7 01 00
	00		 je	 $LN96@LoadString@2
  00028	80 f2 ed	 xor	 dl, -19			; ffffffedH
  0002b	88 55 e4	 mov	 BYTE PTR __k$[ebp], dl
  0002e	8a 50 01	 mov	 dl, BYTE PTR [eax+1]
  00031	84 d2		 test	 dl, dl
  00033	0f 84 90 01 00
	00		 je	 $LN95@LoadString@2
  00039	b1 ec		 mov	 cl, -20			; ffffffecH
  0003b	32 d1		 xor	 dl, cl
  0003d	88 55 e5	 mov	 BYTE PTR __k$[ebp+1], dl
  00040	8a 50 02	 mov	 dl, BYTE PTR [eax+2]
  00043	84 d2		 test	 dl, dl
  00045	0f 84 78 01 00
	00		 je	 $LN94@LoadString@2
  0004b	80 f2 eb	 xor	 dl, -21			; ffffffebH
  0004e	88 55 e6	 mov	 BYTE PTR __k$[ebp+2], dl
  00051	8a 50 03	 mov	 dl, BYTE PTR [eax+3]
  00054	84 d2		 test	 dl, dl
  00056	0f 84 61 01 00
	00		 je	 $LN93@LoadString@2
  0005c	80 f2 ea	 xor	 dl, -22			; ffffffeaH
  0005f	88 55 e7	 mov	 BYTE PTR __k$[ebp+3], dl
  00062	8a 50 04	 mov	 dl, BYTE PTR [eax+4]
  00065	84 d2		 test	 dl, dl
  00067	0f 84 4a 01 00
	00		 je	 $LN92@LoadString@2
  0006d	80 f2 ed	 xor	 dl, -19			; ffffffedH
  00070	88 55 e8	 mov	 BYTE PTR __k$[ebp+4], dl
  00073	8a 50 05	 mov	 dl, BYTE PTR [eax+5]
  00076	84 d2		 test	 dl, dl
  00078	0f 84 34 01 00
	00		 je	 $LN91@LoadString@2
  0007e	32 d1		 xor	 dl, cl
  00080	88 55 e9	 mov	 BYTE PTR __k$[ebp+5], dl
  00083	8a 50 06	 mov	 dl, BYTE PTR [eax+6]
  00086	84 d2		 test	 dl, dl
  00088	0f 84 1e 01 00
	00		 je	 $LN90@LoadString@2
  0008e	80 f2 eb	 xor	 dl, -21			; ffffffebH
  00091	88 55 ea	 mov	 BYTE PTR __k$[ebp+6], dl
  00094	8a 50 07	 mov	 dl, BYTE PTR [eax+7]
  00097	84 d2		 test	 dl, dl
  00099	0f 84 07 01 00
	00		 je	 $LN89@LoadString@2
  0009f	80 f2 ea	 xor	 dl, -22			; ffffffeaH
  000a2	88 55 eb	 mov	 BYTE PTR __k$[ebp+7], dl
  000a5	8a 50 08	 mov	 dl, BYTE PTR [eax+8]
  000a8	84 d2		 test	 dl, dl
  000aa	0f 84 f0 00 00
	00		 je	 $LN88@LoadString@2
  000b0	80 f2 ed	 xor	 dl, -19			; ffffffedH
  000b3	88 55 ec	 mov	 BYTE PTR __k$[ebp+8], dl
  000b6	8a 50 09	 mov	 dl, BYTE PTR [eax+9]
  000b9	84 d2		 test	 dl, dl
  000bb	0f 84 da 00 00
	00		 je	 $LN87@LoadString@2
  000c1	32 d1		 xor	 dl, cl
  000c3	88 55 ed	 mov	 BYTE PTR __k$[ebp+9], dl
  000c6	8a 50 0a	 mov	 dl, BYTE PTR [eax+10]
  000c9	84 d2		 test	 dl, dl
  000cb	0f 84 c4 00 00
	00		 je	 $LN86@LoadString@2
  000d1	80 f2 eb	 xor	 dl, -21			; ffffffebH
  000d4	88 55 ee	 mov	 BYTE PTR __k$[ebp+10], dl
  000d7	8a 50 0b	 mov	 dl, BYTE PTR [eax+11]
  000da	84 d2		 test	 dl, dl
  000dc	0f 84 ad 00 00
	00		 je	 $LN85@LoadString@2
  000e2	80 f2 ea	 xor	 dl, -22			; ffffffeaH
  000e5	88 55 ef	 mov	 BYTE PTR __k$[ebp+11], dl
  000e8	8a 50 0c	 mov	 dl, BYTE PTR [eax+12]
  000eb	84 d2		 test	 dl, dl
  000ed	0f 84 96 00 00
	00		 je	 $LN84@LoadString@2
  000f3	80 f2 ed	 xor	 dl, -19			; ffffffedH
  000f6	88 55 f0	 mov	 BYTE PTR __k$[ebp+12], dl
  000f9	8a 50 0d	 mov	 dl, BYTE PTR [eax+13]
  000fc	84 d2		 test	 dl, dl
  000fe	0f 84 80 00 00
	00		 je	 $LN83@LoadString@2
  00104	32 d1		 xor	 dl, cl
  00106	88 55 f1	 mov	 BYTE PTR __k$[ebp+13], dl
  00109	8a 50 0e	 mov	 dl, BYTE PTR [eax+14]
  0010c	84 d2		 test	 dl, dl
  0010e	74 6e		 je	 SHORT $LN82@LoadString@2
  00110	80 f2 eb	 xor	 dl, -21			; ffffffebH
  00113	88 55 f2	 mov	 BYTE PTR __k$[ebp+14], dl
  00116	8a 50 0f	 mov	 dl, BYTE PTR [eax+15]
  00119	84 d2		 test	 dl, dl
  0011b	74 5b		 je	 SHORT $LN81@LoadString@2
  0011d	80 f2 ea	 xor	 dl, -22			; ffffffeaH
  00120	80 78 10 00	 cmp	 BYTE PTR [eax+16], 0
  00124	88 55 f3	 mov	 BYTE PTR __k$[ebp+15], dl
  00127	0f 84 a6 00 00
	00		 je	 $LN111@LoadString@2
  0012d	8a 50 11	 mov	 dl, BYTE PTR [eax+17]
  00130	84 d2		 test	 dl, dl
  00132	74 3f		 je	 SHORT $LN79@LoadString@2
  00134	32 d1		 xor	 dl, cl
  00136	88 55 f5	 mov	 BYTE PTR __k$[ebp+17], dl
  00139	8a 50 12	 mov	 dl, BYTE PTR [eax+18]
  0013c	84 d2		 test	 dl, dl
  0013e	74 2d		 je	 SHORT $LN78@LoadString@2
  00140	80 f2 eb	 xor	 dl, -21			; ffffffebH
  00143	88 55 f6	 mov	 BYTE PTR __k$[ebp+18], dl
  00146	8a 50 13	 mov	 dl, BYTE PTR [eax+19]
  00149	84 d2		 test	 dl, dl
  0014b	74 1a		 je	 SHORT $LN77@LoadString@2
  0014d	8a 40 14	 mov	 al, BYTE PTR [eax+20]
  00150	80 f2 ea	 xor	 dl, -22			; ffffffeaH
  00153	88 55 f7	 mov	 BYTE PTR __k$[ebp+19], dl
  00156	84 c0		 test	 al, al
  00158	74 07		 je	 SHORT $LN76@LoadString@2
  0015a	34 ed		 xor	 al, -19			; ffffffedH
  0015c	88 45 f8	 mov	 BYTE PTR __k$[ebp+20], al
  0015f	eb 72		 jmp	 SHORT $LN111@LoadString@2
$LN76@LoadString@2:
  00161	c6 45 f8 ed	 mov	 BYTE PTR __k$[ebp+20], -19 ; ffffffedH
  00165	eb 6c		 jmp	 SHORT $LN111@LoadString@2
$LN77@LoadString@2:
  00167	c6 45 f7 ea	 mov	 BYTE PTR __k$[ebp+19], -22 ; ffffffeaH
  0016b	eb 66		 jmp	 SHORT $LN111@LoadString@2
$LN78@LoadString@2:
  0016d	c6 45 f6 eb	 mov	 BYTE PTR __k$[ebp+18], -21 ; ffffffebH
  00171	eb 60		 jmp	 SHORT $LN111@LoadString@2
$LN79@LoadString@2:
  00173	88 4d f5	 mov	 BYTE PTR __k$[ebp+17], cl
  00176	eb 5b		 jmp	 SHORT $LN111@LoadString@2
$LN81@LoadString@2:
  00178	c6 45 f3 ea	 mov	 BYTE PTR __k$[ebp+15], -22 ; ffffffeaH
  0017c	eb 55		 jmp	 SHORT $LN111@LoadString@2
$LN82@LoadString@2:
  0017e	c6 45 f2 eb	 mov	 BYTE PTR __k$[ebp+14], -21 ; ffffffebH
  00182	eb 4f		 jmp	 SHORT $LN111@LoadString@2
$LN83@LoadString@2:
  00184	88 4d f1	 mov	 BYTE PTR __k$[ebp+13], cl
  00187	eb 4a		 jmp	 SHORT $LN111@LoadString@2
$LN84@LoadString@2:
  00189	c6 45 f0 ed	 mov	 BYTE PTR __k$[ebp+12], -19 ; ffffffedH
  0018d	eb 44		 jmp	 SHORT $LN111@LoadString@2
$LN85@LoadString@2:
  0018f	c6 45 ef ea	 mov	 BYTE PTR __k$[ebp+11], -22 ; ffffffeaH
  00193	eb 3e		 jmp	 SHORT $LN111@LoadString@2
$LN86@LoadString@2:
  00195	c6 45 ee eb	 mov	 BYTE PTR __k$[ebp+10], -21 ; ffffffebH
  00199	eb 38		 jmp	 SHORT $LN111@LoadString@2
$LN87@LoadString@2:
  0019b	88 4d ed	 mov	 BYTE PTR __k$[ebp+9], cl
  0019e	eb 33		 jmp	 SHORT $LN111@LoadString@2
$LN88@LoadString@2:
  001a0	c6 45 ec ed	 mov	 BYTE PTR __k$[ebp+8], -19 ; ffffffedH
  001a4	eb 2d		 jmp	 SHORT $LN111@LoadString@2
$LN89@LoadString@2:
  001a6	c6 45 eb ea	 mov	 BYTE PTR __k$[ebp+7], -22 ; ffffffeaH
  001aa	eb 27		 jmp	 SHORT $LN111@LoadString@2
$LN90@LoadString@2:
  001ac	c6 45 ea eb	 mov	 BYTE PTR __k$[ebp+6], -21 ; ffffffebH
  001b0	eb 21		 jmp	 SHORT $LN111@LoadString@2
$LN91@LoadString@2:
  001b2	88 4d e9	 mov	 BYTE PTR __k$[ebp+5], cl
  001b5	eb 1c		 jmp	 SHORT $LN111@LoadString@2
$LN92@LoadString@2:
  001b7	c6 45 e8 ed	 mov	 BYTE PTR __k$[ebp+4], -19 ; ffffffedH
  001bb	eb 16		 jmp	 SHORT $LN111@LoadString@2
$LN93@LoadString@2:
  001bd	c6 45 e7 ea	 mov	 BYTE PTR __k$[ebp+3], -22 ; ffffffeaH
  001c1	eb 10		 jmp	 SHORT $LN111@LoadString@2
$LN94@LoadString@2:
  001c3	c6 45 e6 eb	 mov	 BYTE PTR __k$[ebp+2], -21 ; ffffffebH
  001c7	eb 0a		 jmp	 SHORT $LN111@LoadString@2
$LN95@LoadString@2:
  001c9	c6 45 e5 ec	 mov	 BYTE PTR __k$[ebp+1], -20 ; ffffffecH
  001cd	eb 04		 jmp	 SHORT $LN111@LoadString@2
$LN96@LoadString@2:
  001cf	c6 45 e4 ed	 mov	 BYTE PTR __k$[ebp], -19	; ffffffedH
$LN111@LoadString@2:
  001d3	6a 04		 push	 4
  001d5	8d 45 e4	 lea	 eax, DWORD PTR __k$[ebp]
  001d8	c6 45 f4 00	 mov	 BYTE PTR __k$[ebp+16], 0
  001dc	5a		 pop	 edx
$LL104@LoadString@2:
  001dd	81 30 ed ec eb
	ea		 xor	 DWORD PTR [eax], -353637139 ; eaebecedH
  001e3	83 c0 04	 add	 eax, 4
  001e6	4a		 dec	 edx
  001e7	75 f4		 jne	 SHORT $LL104@LoadString@2

; 163  : 		LoadString(_k, d, b, i);

  001e9	ff 75 14	 push	 DWORD PTR _i$[ebp]
  001ec	8b 4d e0	 mov	 ecx, DWORD PTR _this$GSCopy$[ebp]
  001ef	57		 push	 edi
  001f0	56		 push	 esi
  001f1	8d 45 e4	 lea	 eax, DWORD PTR __k$[ebp]
  001f4	50		 push	 eax
  001f5	ff 15 00 00 00
	00		 call	 DWORD PTR __imp_?LoadStringA@ioINILoader@@QAEXPBD0PADH@Z

; 164  : 	}

  001fb	8b 4d fc	 mov	 ecx, DWORD PTR __$ArrayPad$[ebp]
  001fe	5f		 pop	 edi
  001ff	33 cd		 xor	 ecx, ebp
  00201	5e		 pop	 esi
  00202	e8 00 00 00 00	 call	 @__security_check_cookie@4
  00207	c9		 leave
  00208	c2 10 00	 ret	 16			; 00000010H
??$LoadString_e@$0BB@@ioINILoader@@QAEXAAY0BB@$$CBDAAY00$$CBDPADH@Z ENDP ; ioINILoader::LoadString_e<17>
_TEXT	ENDS
PUBLIC	_this$GSCopy$
PUBLIC	__$ArrayPad$
PUBLIC	??$LoadString_e@$0BA@@ioINILoader@@QAEXAAY0BA@$$CBDAAY00$$CBDPADH@Z ; ioINILoader::LoadString_e<16>
; Function compile flags: /Ogsp
;	COMDAT ??$LoadString_e@$0BA@@ioINILoader@@QAEXAAY0BA@$$CBDAAY00$$CBDPADH@Z
_TEXT	SEGMENT
_this$GSCopy$ = -28					; size = 4
__k$ = -24						; size = 16
__$ArrayPad$ = -4					; size = 4
_k$ = 8							; size = 4
_d$ = 12						; size = 4
_b$ = 16						; size = 4
_i$ = 20						; size = 4
??$LoadString_e@$0BA@@ioINILoader@@QAEXAAY0BA@$$CBDAAY00$$CBDPADH@Z PROC ; ioINILoader::LoadString_e<16>, COMDAT
; _this$ = ecx

; 161  : 	{

  00000	55		 push	 ebp
  00001	8b ec		 mov	 ebp, esp
  00003	83 ec 1c	 sub	 esp, 28			; 0000001cH
  00006	a1 00 00 00 00	 mov	 eax, DWORD PTR ___security_cookie
  0000b	33 c5		 xor	 eax, ebp
  0000d	89 45 fc	 mov	 DWORD PTR __$ArrayPad$[ebp], eax
  00010	8b 45 08	 mov	 eax, DWORD PTR _k$[ebp]

; 162  : 		_ENCSTR(k, _k);

  00013	8a 10		 mov	 dl, BYTE PTR [eax]
  00015	56		 push	 esi
  00016	8b 75 0c	 mov	 esi, DWORD PTR _d$[ebp]
  00019	57		 push	 edi
  0001a	8b 7d 10	 mov	 edi, DWORD PTR _b$[ebp]
  0001d	89 4d e4	 mov	 DWORD PTR _this$GSCopy$[ebp], ecx
  00020	84 d2		 test	 dl, dl
  00022	0f 84 8c 01 00
	00		 je	 $LN96@LoadString@3
  00028	80 f2 ed	 xor	 dl, -19			; ffffffedH
  0002b	88 55 e8	 mov	 BYTE PTR __k$[ebp], dl
  0002e	8a 50 01	 mov	 dl, BYTE PTR [eax+1]
  00031	84 d2		 test	 dl, dl
  00033	0f 84 75 01 00
	00		 je	 $LN95@LoadString@3
  00039	80 f2 ec	 xor	 dl, -20			; ffffffecH
  0003c	88 55 e9	 mov	 BYTE PTR __k$[ebp+1], dl
  0003f	8a 50 02	 mov	 dl, BYTE PTR [eax+2]
  00042	84 d2		 test	 dl, dl
  00044	0f 84 5e 01 00
	00		 je	 $LN94@LoadString@3
  0004a	b1 eb		 mov	 cl, -21			; ffffffebH
  0004c	32 d1		 xor	 dl, cl
  0004e	88 55 ea	 mov	 BYTE PTR __k$[ebp+2], dl
  00051	8a 50 03	 mov	 dl, BYTE PTR [eax+3]
  00054	84 d2		 test	 dl, dl
  00056	0f 84 46 01 00
	00		 je	 $LN93@LoadString@3
  0005c	80 f2 ea	 xor	 dl, -22			; ffffffeaH
  0005f	88 55 eb	 mov	 BYTE PTR __k$[ebp+3], dl
  00062	8a 50 04	 mov	 dl, BYTE PTR [eax+4]
  00065	84 d2		 test	 dl, dl
  00067	0f 84 2f 01 00
	00		 je	 $LN92@LoadString@3
  0006d	80 f2 ed	 xor	 dl, -19			; ffffffedH
  00070	88 55 ec	 mov	 BYTE PTR __k$[ebp+4], dl
  00073	8a 50 05	 mov	 dl, BYTE PTR [eax+5]
  00076	84 d2		 test	 dl, dl
  00078	0f 84 18 01 00
	00		 je	 $LN91@LoadString@3
  0007e	80 f2 ec	 xor	 dl, -20			; ffffffecH
  00081	88 55 ed	 mov	 BYTE PTR __k$[ebp+5], dl
  00084	8a 50 06	 mov	 dl, BYTE PTR [eax+6]
  00087	84 d2		 test	 dl, dl
  00089	0f 84 02 01 00
	00		 je	 $LN90@LoadString@3
  0008f	32 d1		 xor	 dl, cl
  00091	88 55 ee	 mov	 BYTE PTR __k$[ebp+6], dl
  00094	8a 50 07	 mov	 dl, BYTE PTR [eax+7]
  00097	84 d2		 test	 dl, dl
  00099	0f 84 ec 00 00
	00		 je	 $LN89@LoadString@3
  0009f	80 f2 ea	 xor	 dl, -22			; ffffffeaH
  000a2	88 55 ef	 mov	 BYTE PTR __k$[ebp+7], dl
  000a5	8a 50 08	 mov	 dl, BYTE PTR [eax+8]
  000a8	84 d2		 test	 dl, dl
  000aa	0f 84 d5 00 00
	00		 je	 $LN88@LoadString@3
  000b0	80 f2 ed	 xor	 dl, -19			; ffffffedH
  000b3	88 55 f0	 mov	 BYTE PTR __k$[ebp+8], dl
  000b6	8a 50 09	 mov	 dl, BYTE PTR [eax+9]
  000b9	84 d2		 test	 dl, dl
  000bb	0f 84 be 00 00
	00		 je	 $LN87@LoadString@3
  000c1	80 f2 ec	 xor	 dl, -20			; ffffffecH
  000c4	88 55 f1	 mov	 BYTE PTR __k$[ebp+9], dl
  000c7	8a 50 0a	 mov	 dl, BYTE PTR [eax+10]
  000ca	84 d2		 test	 dl, dl
  000cc	0f 84 a8 00 00
	00		 je	 $LN86@LoadString@3
  000d2	32 d1		 xor	 dl, cl
  000d4	88 55 f2	 mov	 BYTE PTR __k$[ebp+10], dl
  000d7	8a 50 0b	 mov	 dl, BYTE PTR [eax+11]
  000da	84 d2		 test	 dl, dl
  000dc	0f 84 92 00 00
	00		 je	 $LN85@LoadString@3
  000e2	80 f2 ea	 xor	 dl, -22			; ffffffeaH
  000e5	88 55 f3	 mov	 BYTE PTR __k$[ebp+11], dl
  000e8	8a 50 0c	 mov	 dl, BYTE PTR [eax+12]
  000eb	84 d2		 test	 dl, dl
  000ed	74 7f		 je	 SHORT $LN84@LoadString@3
  000ef	80 f2 ed	 xor	 dl, -19			; ffffffedH
  000f2	88 55 f4	 mov	 BYTE PTR __k$[ebp+12], dl
  000f5	8a 50 0d	 mov	 dl, BYTE PTR [eax+13]
  000f8	84 d2		 test	 dl, dl
  000fa	74 6c		 je	 SHORT $LN83@LoadString@3
  000fc	80 f2 ec	 xor	 dl, -20			; ffffffecH
  000ff	88 55 f5	 mov	 BYTE PTR __k$[ebp+13], dl
  00102	8a 50 0e	 mov	 dl, BYTE PTR [eax+14]
  00105	84 d2		 test	 dl, dl
  00107	74 5a		 je	 SHORT $LN82@LoadString@3
  00109	32 d1		 xor	 dl, cl
  0010b	80 78 0f 00	 cmp	 BYTE PTR [eax+15], 0
  0010f	88 55 f6	 mov	 BYTE PTR __k$[ebp+14], dl
  00112	0f 84 a0 00 00
	00		 je	 $LN111@LoadString@3
  00118	8a 50 10	 mov	 dl, BYTE PTR [eax+16]
  0011b	84 d2		 test	 dl, dl
  0011d	74 3e		 je	 SHORT $LN80@LoadString@3
  0011f	80 f2 ed	 xor	 dl, -19			; ffffffedH
  00122	88 55 f8	 mov	 BYTE PTR __k$[ebp+16], dl
  00125	8a 50 11	 mov	 dl, BYTE PTR [eax+17]
  00128	84 d2		 test	 dl, dl
  0012a	74 2b		 je	 SHORT $LN79@LoadString@3
  0012c	80 f2 ec	 xor	 dl, -20			; ffffffecH
  0012f	88 55 f9	 mov	 BYTE PTR __k$[ebp+17], dl
  00132	8a 50 12	 mov	 dl, BYTE PTR [eax+18]
  00135	84 d2		 test	 dl, dl
  00137	74 19		 je	 SHORT $LN78@LoadString@3
  00139	8a 40 13	 mov	 al, BYTE PTR [eax+19]
  0013c	32 d1		 xor	 dl, cl
  0013e	88 55 fa	 mov	 BYTE PTR __k$[ebp+18], dl
  00141	84 c0		 test	 al, al
  00143	74 07		 je	 SHORT $LN77@LoadString@3
  00145	34 ea		 xor	 al, -22			; ffffffeaH
  00147	88 45 fb	 mov	 BYTE PTR __k$[ebp+19], al
  0014a	eb 6c		 jmp	 SHORT $LN111@LoadString@3
$LN77@LoadString@3:
  0014c	c6 45 fb ea	 mov	 BYTE PTR __k$[ebp+19], -22 ; ffffffeaH
  00150	eb 66		 jmp	 SHORT $LN111@LoadString@3
$LN78@LoadString@3:
  00152	88 4d fa	 mov	 BYTE PTR __k$[ebp+18], cl
  00155	eb 61		 jmp	 SHORT $LN111@LoadString@3
$LN79@LoadString@3:
  00157	c6 45 f9 ec	 mov	 BYTE PTR __k$[ebp+17], -20 ; ffffffecH
  0015b	eb 5b		 jmp	 SHORT $LN111@LoadString@3
$LN80@LoadString@3:
  0015d	c6 45 f8 ed	 mov	 BYTE PTR __k$[ebp+16], -19 ; ffffffedH
  00161	eb 55		 jmp	 SHORT $LN111@LoadString@3
$LN82@LoadString@3:
  00163	88 4d f6	 mov	 BYTE PTR __k$[ebp+14], cl
  00166	eb 50		 jmp	 SHORT $LN111@LoadString@3
$LN83@LoadString@3:
  00168	c6 45 f5 ec	 mov	 BYTE PTR __k$[ebp+13], -20 ; ffffffecH
  0016c	eb 4a		 jmp	 SHORT $LN111@LoadString@3
$LN84@LoadString@3:
  0016e	c6 45 f4 ed	 mov	 BYTE PTR __k$[ebp+12], -19 ; ffffffedH
  00172	eb 44		 jmp	 SHORT $LN111@LoadString@3
$LN85@LoadString@3:
  00174	c6 45 f3 ea	 mov	 BYTE PTR __k$[ebp+11], -22 ; ffffffeaH
  00178	eb 3e		 jmp	 SHORT $LN111@LoadString@3
$LN86@LoadString@3:
  0017a	88 4d f2	 mov	 BYTE PTR __k$[ebp+10], cl
  0017d	eb 39		 jmp	 SHORT $LN111@LoadString@3
$LN87@LoadString@3:
  0017f	c6 45 f1 ec	 mov	 BYTE PTR __k$[ebp+9], -20 ; ffffffecH
  00183	eb 33		 jmp	 SHORT $LN111@LoadString@3
$LN88@LoadString@3:
  00185	c6 45 f0 ed	 mov	 BYTE PTR __k$[ebp+8], -19 ; ffffffedH
  00189	eb 2d		 jmp	 SHORT $LN111@LoadString@3
$LN89@LoadString@3:
  0018b	c6 45 ef ea	 mov	 BYTE PTR __k$[ebp+7], -22 ; ffffffeaH
  0018f	eb 27		 jmp	 SHORT $LN111@LoadString@3
$LN90@LoadString@3:
  00191	88 4d ee	 mov	 BYTE PTR __k$[ebp+6], cl
  00194	eb 22		 jmp	 SHORT $LN111@LoadString@3
$LN91@LoadString@3:
  00196	c6 45 ed ec	 mov	 BYTE PTR __k$[ebp+5], -20 ; ffffffecH
  0019a	eb 1c		 jmp	 SHORT $LN111@LoadString@3
$LN92@LoadString@3:
  0019c	c6 45 ec ed	 mov	 BYTE PTR __k$[ebp+4], -19 ; ffffffedH
  001a0	eb 16		 jmp	 SHORT $LN111@LoadString@3
$LN93@LoadString@3:
  001a2	c6 45 eb ea	 mov	 BYTE PTR __k$[ebp+3], -22 ; ffffffeaH
  001a6	eb 10		 jmp	 SHORT $LN111@LoadString@3
$LN94@LoadString@3:
  001a8	c6 45 ea eb	 mov	 BYTE PTR __k$[ebp+2], -21 ; ffffffebH
  001ac	eb 0a		 jmp	 SHORT $LN111@LoadString@3
$LN95@LoadString@3:
  001ae	c6 45 e9 ec	 mov	 BYTE PTR __k$[ebp+1], -20 ; ffffffecH
  001b2	eb 04		 jmp	 SHORT $LN111@LoadString@3
$LN96@LoadString@3:
  001b4	c6 45 e8 ed	 mov	 BYTE PTR __k$[ebp], -19	; ffffffedH
$LN111@LoadString@3:
  001b8	6a 03		 push	 3
  001ba	8d 45 e8	 lea	 eax, DWORD PTR __k$[ebp]
  001bd	c6 45 f7 00	 mov	 BYTE PTR __k$[ebp+15], 0
  001c1	5a		 pop	 edx
$LL104@LoadString@3:
  001c2	81 30 ed ec eb
	ea		 xor	 DWORD PTR [eax], -353637139 ; eaebecedH
  001c8	83 c0 04	 add	 eax, 4
  001cb	4a		 dec	 edx
  001cc	75 f4		 jne	 SHORT $LL104@LoadString@3
  001ce	6a 0c		 push	 12			; 0000000cH
  001d0	58		 pop	 eax
$LL101@LoadString@3:
  001d1	8b c8		 mov	 ecx, eax
  001d3	81 e1 03 00 00
	80		 and	 ecx, -2147483645	; 80000003H
  001d9	79 05		 jns	 SHORT $LN112@LoadString@3
  001db	49		 dec	 ecx
  001dc	83 c9 fc	 or	 ecx, -4			; fffffffcH
  001df	41		 inc	 ecx
$LN112@LoadString@3:
  001e0	b2 ed		 mov	 dl, -19			; ffffffedH
  001e2	2a d1		 sub	 dl, cl
  001e4	30 54 05 e8	 xor	 BYTE PTR __k$[ebp+eax], dl
  001e8	40		 inc	 eax
  001e9	83 f8 0f	 cmp	 eax, 15			; 0000000fH
  001ec	7c e3		 jl	 SHORT $LL101@LoadString@3

; 163  : 		LoadString(_k, d, b, i);

  001ee	ff 75 14	 push	 DWORD PTR _i$[ebp]
  001f1	8b 4d e4	 mov	 ecx, DWORD PTR _this$GSCopy$[ebp]
  001f4	57		 push	 edi
  001f5	56		 push	 esi
  001f6	8d 45 e8	 lea	 eax, DWORD PTR __k$[ebp]
  001f9	50		 push	 eax
  001fa	ff 15 00 00 00
	00		 call	 DWORD PTR __imp_?LoadStringA@ioINILoader@@QAEXPBD0PADH@Z

; 164  : 	}

  00200	8b 4d fc	 mov	 ecx, DWORD PTR __$ArrayPad$[ebp]
  00203	5f		 pop	 edi
  00204	33 cd		 xor	 ecx, ebp
  00206	5e		 pop	 esi
  00207	e8 00 00 00 00	 call	 @__security_check_cookie@4
  0020c	c9		 leave
  0020d	c2 10 00	 ret	 16			; 00000010H
??$LoadString_e@$0BA@@ioINILoader@@QAEXAAY0BA@$$CBDAAY00$$CBDPADH@Z ENDP ; ioINILoader::LoadString_e<16>
_TEXT	ENDS
PUBLIC	_this$GSCopy$
PUBLIC	__$ArrayPad$
PUBLIC	??$LoadString_e@$0BD@@ioINILoader@@QAEXAAY0BD@$$CBDAAY00$$CBDPADH@Z ; ioINILoader::LoadString_e<19>
; Function compile flags: /Ogsp
;	COMDAT ??$LoadString_e@$0BD@@ioINILoader@@QAEXAAY0BD@$$CBDAAY00$$CBDPADH@Z
_TEXT	SEGMENT
_this$GSCopy$ = -32					; size = 4
__k$ = -28						; size = 19
__$ArrayPad$ = -4					; size = 4
_k$ = 8							; size = 4
_d$ = 12						; size = 4
_b$ = 16						; size = 4
_i$ = 20						; size = 4
??$LoadString_e@$0BD@@ioINILoader@@QAEXAAY0BD@$$CBDAAY00$$CBDPADH@Z PROC ; ioINILoader::LoadString_e<19>, COMDAT
; _this$ = ecx

; 161  : 	{

  00000	55		 push	 ebp
  00001	8b ec		 mov	 ebp, esp
  00003	83 ec 20	 sub	 esp, 32			; 00000020H
  00006	a1 00 00 00 00	 mov	 eax, DWORD PTR ___security_cookie
  0000b	33 c5		 xor	 eax, ebp
  0000d	89 45 fc	 mov	 DWORD PTR __$ArrayPad$[ebp], eax
  00010	8b 45 08	 mov	 eax, DWORD PTR _k$[ebp]

; 162  : 		_ENCSTR(k, _k);

  00013	8a 10		 mov	 dl, BYTE PTR [eax]
  00015	56		 push	 esi
  00016	8b 75 0c	 mov	 esi, DWORD PTR _d$[ebp]
  00019	57		 push	 edi
  0001a	8b 7d 10	 mov	 edi, DWORD PTR _b$[ebp]
  0001d	89 4d e0	 mov	 DWORD PTR _this$GSCopy$[ebp], ecx
  00020	84 d2		 test	 dl, dl
  00022	0f 84 cf 01 00
	00		 je	 $LN96@LoadString@4
  00028	80 f2 ed	 xor	 dl, -19			; ffffffedH
  0002b	88 55 e4	 mov	 BYTE PTR __k$[ebp], dl
  0002e	8a 50 01	 mov	 dl, BYTE PTR [eax+1]
  00031	84 d2		 test	 dl, dl
  00033	0f 84 b8 01 00
	00		 je	 $LN95@LoadString@4
  00039	b1 ec		 mov	 cl, -20			; ffffffecH
  0003b	32 d1		 xor	 dl, cl
  0003d	88 55 e5	 mov	 BYTE PTR __k$[ebp+1], dl
  00040	8a 50 02	 mov	 dl, BYTE PTR [eax+2]
  00043	84 d2		 test	 dl, dl
  00045	0f 84 a0 01 00
	00		 je	 $LN94@LoadString@4
  0004b	80 f2 eb	 xor	 dl, -21			; ffffffebH
  0004e	88 55 e6	 mov	 BYTE PTR __k$[ebp+2], dl
  00051	8a 50 03	 mov	 dl, BYTE PTR [eax+3]
  00054	84 d2		 test	 dl, dl
  00056	0f 84 89 01 00
	00		 je	 $LN93@LoadString@4
  0005c	80 f2 ea	 xor	 dl, -22			; ffffffeaH
  0005f	88 55 e7	 mov	 BYTE PTR __k$[ebp+3], dl
  00062	8a 50 04	 mov	 dl, BYTE PTR [eax+4]
  00065	84 d2		 test	 dl, dl
  00067	0f 84 72 01 00
	00		 je	 $LN92@LoadString@4
  0006d	80 f2 ed	 xor	 dl, -19			; ffffffedH
  00070	88 55 e8	 mov	 BYTE PTR __k$[ebp+4], dl
  00073	8a 50 05	 mov	 dl, BYTE PTR [eax+5]
  00076	84 d2		 test	 dl, dl
  00078	0f 84 5c 01 00
	00		 je	 $LN91@LoadString@4
  0007e	32 d1		 xor	 dl, cl
  00080	88 55 e9	 mov	 BYTE PTR __k$[ebp+5], dl
  00083	8a 50 06	 mov	 dl, BYTE PTR [eax+6]
  00086	84 d2		 test	 dl, dl
  00088	0f 84 46 01 00
	00		 je	 $LN90@LoadString@4
  0008e	80 f2 eb	 xor	 dl, -21			; ffffffebH
  00091	88 55 ea	 mov	 BYTE PTR __k$[ebp+6], dl
  00094	8a 50 07	 mov	 dl, BYTE PTR [eax+7]
  00097	84 d2		 test	 dl, dl
  00099	0f 84 2f 01 00
	00		 je	 $LN89@LoadString@4
  0009f	80 f2 ea	 xor	 dl, -22			; ffffffeaH
  000a2	88 55 eb	 mov	 BYTE PTR __k$[ebp+7], dl
  000a5	8a 50 08	 mov	 dl, BYTE PTR [eax+8]
  000a8	84 d2		 test	 dl, dl
  000aa	0f 84 18 01 00
	00		 je	 $LN88@LoadString@4
  000b0	80 f2 ed	 xor	 dl, -19			; ffffffedH
  000b3	88 55 ec	 mov	 BYTE PTR __k$[ebp+8], dl
  000b6	8a 50 09	 mov	 dl, BYTE PTR [eax+9]
  000b9	84 d2		 test	 dl, dl
  000bb	0f 84 02 01 00
	00		 je	 $LN87@LoadString@4
  000c1	32 d1		 xor	 dl, cl
  000c3	88 55 ed	 mov	 BYTE PTR __k$[ebp+9], dl
  000c6	8a 50 0a	 mov	 dl, BYTE PTR [eax+10]
  000c9	84 d2		 test	 dl, dl
  000cb	0f 84 ec 00 00
	00		 je	 $LN86@LoadString@4
  000d1	80 f2 eb	 xor	 dl, -21			; ffffffebH
  000d4	88 55 ee	 mov	 BYTE PTR __k$[ebp+10], dl
  000d7	8a 50 0b	 mov	 dl, BYTE PTR [eax+11]
  000da	84 d2		 test	 dl, dl
  000dc	0f 84 d5 00 00
	00		 je	 $LN85@LoadString@4
  000e2	80 f2 ea	 xor	 dl, -22			; ffffffeaH
  000e5	88 55 ef	 mov	 BYTE PTR __k$[ebp+11], dl
  000e8	8a 50 0c	 mov	 dl, BYTE PTR [eax+12]
  000eb	84 d2		 test	 dl, dl
  000ed	0f 84 be 00 00
	00		 je	 $LN84@LoadString@4
  000f3	80 f2 ed	 xor	 dl, -19			; ffffffedH
  000f6	88 55 f0	 mov	 BYTE PTR __k$[ebp+12], dl
  000f9	8a 50 0d	 mov	 dl, BYTE PTR [eax+13]
  000fc	84 d2		 test	 dl, dl
  000fe	0f 84 a8 00 00
	00		 je	 $LN83@LoadString@4
  00104	32 d1		 xor	 dl, cl
  00106	88 55 f1	 mov	 BYTE PTR __k$[ebp+13], dl
  00109	8a 50 0e	 mov	 dl, BYTE PTR [eax+14]
  0010c	84 d2		 test	 dl, dl
  0010e	0f 84 92 00 00
	00		 je	 $LN82@LoadString@4
  00114	80 f2 eb	 xor	 dl, -21			; ffffffebH
  00117	88 55 f2	 mov	 BYTE PTR __k$[ebp+14], dl
  0011a	8a 50 0f	 mov	 dl, BYTE PTR [eax+15]
  0011d	84 d2		 test	 dl, dl
  0011f	74 7f		 je	 SHORT $LN81@LoadString@4
  00121	80 f2 ea	 xor	 dl, -22			; ffffffeaH
  00124	88 55 f3	 mov	 BYTE PTR __k$[ebp+15], dl
  00127	8a 50 10	 mov	 dl, BYTE PTR [eax+16]
  0012a	84 d2		 test	 dl, dl
  0012c	74 6c		 je	 SHORT $LN80@LoadString@4
  0012e	80 f2 ed	 xor	 dl, -19			; ffffffedH
  00131	88 55 f4	 mov	 BYTE PTR __k$[ebp+16], dl
  00134	8a 50 11	 mov	 dl, BYTE PTR [eax+17]
  00137	84 d2		 test	 dl, dl
  00139	74 5a		 je	 SHORT $LN79@LoadString@4
  0013b	32 d1		 xor	 dl, cl
  0013d	80 78 12 00	 cmp	 BYTE PTR [eax+18], 0
  00141	88 55 f5	 mov	 BYTE PTR __k$[ebp+17], dl
  00144	0f 84 b1 00 00
	00		 je	 $LN111@LoadString@4
  0014a	8a 50 13	 mov	 dl, BYTE PTR [eax+19]
  0014d	84 d2		 test	 dl, dl
  0014f	74 3e		 je	 SHORT $LN77@LoadString@4
  00151	80 f2 ea	 xor	 dl, -22			; ffffffeaH
  00154	88 55 f7	 mov	 BYTE PTR __k$[ebp+19], dl
  00157	8a 50 14	 mov	 dl, BYTE PTR [eax+20]
  0015a	84 d2		 test	 dl, dl
  0015c	74 2b		 je	 SHORT $LN76@LoadString@4
  0015e	80 f2 ed	 xor	 dl, -19			; ffffffedH
  00161	88 55 f8	 mov	 BYTE PTR __k$[ebp+20], dl
  00164	8a 50 15	 mov	 dl, BYTE PTR [eax+21]
  00167	84 d2		 test	 dl, dl
  00169	74 19		 je	 SHORT $LN75@LoadString@4
  0016b	8a 40 16	 mov	 al, BYTE PTR [eax+22]
  0016e	32 d1		 xor	 dl, cl
  00170	88 55 f9	 mov	 BYTE PTR __k$[ebp+21], dl
  00173	84 c0		 test	 al, al
  00175	74 07		 je	 SHORT $LN74@LoadString@4
  00177	34 eb		 xor	 al, -21			; ffffffebH
  00179	88 45 fa	 mov	 BYTE PTR __k$[ebp+22], al
  0017c	eb 7d		 jmp	 SHORT $LN111@LoadString@4
$LN74@LoadString@4:
  0017e	c6 45 fa eb	 mov	 BYTE PTR __k$[ebp+22], -21 ; ffffffebH
  00182	eb 77		 jmp	 SHORT $LN111@LoadString@4
$LN75@LoadString@4:
  00184	88 4d f9	 mov	 BYTE PTR __k$[ebp+21], cl
  00187	eb 72		 jmp	 SHORT $LN111@LoadString@4
$LN76@LoadString@4:
  00189	c6 45 f8 ed	 mov	 BYTE PTR __k$[ebp+20], -19 ; ffffffedH
  0018d	eb 6c		 jmp	 SHORT $LN111@LoadString@4
$LN77@LoadString@4:
  0018f	c6 45 f7 ea	 mov	 BYTE PTR __k$[ebp+19], -22 ; ffffffeaH
  00193	eb 66		 jmp	 SHORT $LN111@LoadString@4
$LN79@LoadString@4:
  00195	88 4d f5	 mov	 BYTE PTR __k$[ebp+17], cl
  00198	eb 61		 jmp	 SHORT $LN111@LoadString@4
$LN80@LoadString@4:
  0019a	c6 45 f4 ed	 mov	 BYTE PTR __k$[ebp+16], -19 ; ffffffedH
  0019e	eb 5b		 jmp	 SHORT $LN111@LoadString@4
$LN81@LoadString@4:
  001a0	c6 45 f3 ea	 mov	 BYTE PTR __k$[ebp+15], -22 ; ffffffeaH
  001a4	eb 55		 jmp	 SHORT $LN111@LoadString@4
$LN82@LoadString@4:
  001a6	c6 45 f2 eb	 mov	 BYTE PTR __k$[ebp+14], -21 ; ffffffebH
  001aa	eb 4f		 jmp	 SHORT $LN111@LoadString@4
$LN83@LoadString@4:
  001ac	88 4d f1	 mov	 BYTE PTR __k$[ebp+13], cl
  001af	eb 4a		 jmp	 SHORT $LN111@LoadString@4
$LN84@LoadString@4:
  001b1	c6 45 f0 ed	 mov	 BYTE PTR __k$[ebp+12], -19 ; ffffffedH
  001b5	eb 44		 jmp	 SHORT $LN111@LoadString@4
$LN85@LoadString@4:
  001b7	c6 45 ef ea	 mov	 BYTE PTR __k$[ebp+11], -22 ; ffffffeaH
  001bb	eb 3e		 jmp	 SHORT $LN111@LoadString@4
$LN86@LoadString@4:
  001bd	c6 45 ee eb	 mov	 BYTE PTR __k$[ebp+10], -21 ; ffffffebH
  001c1	eb 38		 jmp	 SHORT $LN111@LoadString@4
$LN87@LoadString@4:
  001c3	88 4d ed	 mov	 BYTE PTR __k$[ebp+9], cl
  001c6	eb 33		 jmp	 SHORT $LN111@LoadString@4
$LN88@LoadString@4:
  001c8	c6 45 ec ed	 mov	 BYTE PTR __k$[ebp+8], -19 ; ffffffedH
  001cc	eb 2d		 jmp	 SHORT $LN111@LoadString@4
$LN89@LoadString@4:
  001ce	c6 45 eb ea	 mov	 BYTE PTR __k$[ebp+7], -22 ; ffffffeaH
  001d2	eb 27		 jmp	 SHORT $LN111@LoadString@4
$LN90@LoadString@4:
  001d4	c6 45 ea eb	 mov	 BYTE PTR __k$[ebp+6], -21 ; ffffffebH
  001d8	eb 21		 jmp	 SHORT $LN111@LoadString@4
$LN91@LoadString@4:
  001da	88 4d e9	 mov	 BYTE PTR __k$[ebp+5], cl
  001dd	eb 1c		 jmp	 SHORT $LN111@LoadString@4
$LN92@LoadString@4:
  001df	c6 45 e8 ed	 mov	 BYTE PTR __k$[ebp+4], -19 ; ffffffedH
  001e3	eb 16		 jmp	 SHORT $LN111@LoadString@4
$LN93@LoadString@4:
  001e5	c6 45 e7 ea	 mov	 BYTE PTR __k$[ebp+3], -22 ; ffffffeaH
  001e9	eb 10		 jmp	 SHORT $LN111@LoadString@4
$LN94@LoadString@4:
  001eb	c6 45 e6 eb	 mov	 BYTE PTR __k$[ebp+2], -21 ; ffffffebH
  001ef	eb 0a		 jmp	 SHORT $LN111@LoadString@4
$LN95@LoadString@4:
  001f1	c6 45 e5 ec	 mov	 BYTE PTR __k$[ebp+1], -20 ; ffffffecH
  001f5	eb 04		 jmp	 SHORT $LN111@LoadString@4
$LN96@LoadString@4:
  001f7	c6 45 e4 ed	 mov	 BYTE PTR __k$[ebp], -19	; ffffffedH
$LN111@LoadString@4:
  001fb	6a 04		 push	 4
  001fd	8d 45 e4	 lea	 eax, DWORD PTR __k$[ebp]
  00200	c6 45 f6 00	 mov	 BYTE PTR __k$[ebp+18], 0
  00204	5a		 pop	 edx
$LL104@LoadString@4:
  00205	81 30 ed ec eb
	ea		 xor	 DWORD PTR [eax], -353637139 ; eaebecedH
  0020b	83 c0 04	 add	 eax, 4
  0020e	4a		 dec	 edx
  0020f	75 f4		 jne	 SHORT $LL104@LoadString@4
  00211	6a 10		 push	 16			; 00000010H
  00213	58		 pop	 eax
$LL101@LoadString@4:
  00214	8b c8		 mov	 ecx, eax
  00216	81 e1 03 00 00
	80		 and	 ecx, -2147483645	; 80000003H
  0021c	79 05		 jns	 SHORT $LN112@LoadString@4
  0021e	49		 dec	 ecx
  0021f	83 c9 fc	 or	 ecx, -4			; fffffffcH
  00222	41		 inc	 ecx
$LN112@LoadString@4:
  00223	b2 ed		 mov	 dl, -19			; ffffffedH
  00225	2a d1		 sub	 dl, cl
  00227	30 54 05 e4	 xor	 BYTE PTR __k$[ebp+eax], dl
  0022b	40		 inc	 eax
  0022c	83 f8 12	 cmp	 eax, 18			; 00000012H
  0022f	7c e3		 jl	 SHORT $LL101@LoadString@4

; 163  : 		LoadString(_k, d, b, i);

  00231	ff 75 14	 push	 DWORD PTR _i$[ebp]
  00234	8b 4d e0	 mov	 ecx, DWORD PTR _this$GSCopy$[ebp]
  00237	57		 push	 edi
  00238	56		 push	 esi
  00239	8d 45 e4	 lea	 eax, DWORD PTR __k$[ebp]
  0023c	50		 push	 eax
  0023d	ff 15 00 00 00
	00		 call	 DWORD PTR __imp_?LoadStringA@ioINILoader@@QAEXPBD0PADH@Z

; 164  : 	}

  00243	8b 4d fc	 mov	 ecx, DWORD PTR __$ArrayPad$[ebp]
  00246	5f		 pop	 edi
  00247	33 cd		 xor	 ecx, ebp
  00249	5e		 pop	 esi
  0024a	e8 00 00 00 00	 call	 @__security_check_cookie@4
  0024f	c9		 leave
  00250	c2 10 00	 ret	 16			; 00000010H
??$LoadString_e@$0BD@@ioINILoader@@QAEXAAY0BD@$$CBDAAY00$$CBDPADH@Z ENDP ; ioINILoader::LoadString_e<19>
_TEXT	ENDS
PUBLIC	__$ArrayPad$
PUBLIC	??$LoadInt_e@$0BB@@ioINILoader@@QAEHAAY0BB@$$CBDH@Z ; ioINILoader::LoadInt_e<17>
; Function compile flags: /Ogsp
;	COMDAT ??$LoadInt_e@$0BB@@ioINILoader@@QAEHAAY0BB@$$CBDH@Z
_TEXT	SEGMENT
__k$ = -28						; size = 17
__$ArrayPad$ = -4					; size = 4
_k$ = 8							; size = 4
_i$ = 12						; size = 4
??$LoadInt_e@$0BB@@ioINILoader@@QAEHAAY0BB@$$CBDH@Z PROC ; ioINILoader::LoadInt_e<17>, COMDAT
; _this$ = ecx

; 118  : 	{

  00000	55		 push	 ebp
  00001	8b ec		 mov	 ebp, esp
  00003	83 ec 1c	 sub	 esp, 28			; 0000001cH
  00006	a1 00 00 00 00	 mov	 eax, DWORD PTR ___security_cookie
  0000b	33 c5		 xor	 eax, ebp
  0000d	89 45 fc	 mov	 DWORD PTR __$ArrayPad$[ebp], eax
  00010	8b 45 08	 mov	 eax, DWORD PTR _k$[ebp]

; 119  : 		_ENCSTR(k, _k);

  00013	8a 10		 mov	 dl, BYTE PTR [eax]
  00015	56		 push	 esi
  00016	8b f1		 mov	 esi, ecx
  00018	84 d2		 test	 dl, dl
  0001a	0f 84 a7 01 00
	00		 je	 $LN96@LoadInt_e@2
  00020	80 f2 ed	 xor	 dl, -19			; ffffffedH
  00023	88 55 e4	 mov	 BYTE PTR __k$[ebp], dl
  00026	8a 50 01	 mov	 dl, BYTE PTR [eax+1]
  00029	84 d2		 test	 dl, dl
  0002b	0f 84 90 01 00
	00		 je	 $LN95@LoadInt_e@2
  00031	b1 ec		 mov	 cl, -20			; ffffffecH
  00033	32 d1		 xor	 dl, cl
  00035	88 55 e5	 mov	 BYTE PTR __k$[ebp+1], dl
  00038	8a 50 02	 mov	 dl, BYTE PTR [eax+2]
  0003b	84 d2		 test	 dl, dl
  0003d	0f 84 78 01 00
	00		 je	 $LN94@LoadInt_e@2
  00043	80 f2 eb	 xor	 dl, -21			; ffffffebH
  00046	88 55 e6	 mov	 BYTE PTR __k$[ebp+2], dl
  00049	8a 50 03	 mov	 dl, BYTE PTR [eax+3]
  0004c	84 d2		 test	 dl, dl
  0004e	0f 84 61 01 00
	00		 je	 $LN93@LoadInt_e@2
  00054	80 f2 ea	 xor	 dl, -22			; ffffffeaH
  00057	88 55 e7	 mov	 BYTE PTR __k$[ebp+3], dl
  0005a	8a 50 04	 mov	 dl, BYTE PTR [eax+4]
  0005d	84 d2		 test	 dl, dl
  0005f	0f 84 4a 01 00
	00		 je	 $LN92@LoadInt_e@2
  00065	80 f2 ed	 xor	 dl, -19			; ffffffedH
  00068	88 55 e8	 mov	 BYTE PTR __k$[ebp+4], dl
  0006b	8a 50 05	 mov	 dl, BYTE PTR [eax+5]
  0006e	84 d2		 test	 dl, dl
  00070	0f 84 34 01 00
	00		 je	 $LN91@LoadInt_e@2
  00076	32 d1		 xor	 dl, cl
  00078	88 55 e9	 mov	 BYTE PTR __k$[ebp+5], dl
  0007b	8a 50 06	 mov	 dl, BYTE PTR [eax+6]
  0007e	84 d2		 test	 dl, dl
  00080	0f 84 1e 01 00
	00		 je	 $LN90@LoadInt_e@2
  00086	80 f2 eb	 xor	 dl, -21			; ffffffebH
  00089	88 55 ea	 mov	 BYTE PTR __k$[ebp+6], dl
  0008c	8a 50 07	 mov	 dl, BYTE PTR [eax+7]
  0008f	84 d2		 test	 dl, dl
  00091	0f 84 07 01 00
	00		 je	 $LN89@LoadInt_e@2
  00097	80 f2 ea	 xor	 dl, -22			; ffffffeaH
  0009a	88 55 eb	 mov	 BYTE PTR __k$[ebp+7], dl
  0009d	8a 50 08	 mov	 dl, BYTE PTR [eax+8]
  000a0	84 d2		 test	 dl, dl
  000a2	0f 84 f0 00 00
	00		 je	 $LN88@LoadInt_e@2
  000a8	80 f2 ed	 xor	 dl, -19			; ffffffedH
  000ab	88 55 ec	 mov	 BYTE PTR __k$[ebp+8], dl
  000ae	8a 50 09	 mov	 dl, BYTE PTR [eax+9]
  000b1	84 d2		 test	 dl, dl
  000b3	0f 84 da 00 00
	00		 je	 $LN87@LoadInt_e@2
  000b9	32 d1		 xor	 dl, cl
  000bb	88 55 ed	 mov	 BYTE PTR __k$[ebp+9], dl
  000be	8a 50 0a	 mov	 dl, BYTE PTR [eax+10]
  000c1	84 d2		 test	 dl, dl
  000c3	0f 84 c4 00 00
	00		 je	 $LN86@LoadInt_e@2
  000c9	80 f2 eb	 xor	 dl, -21			; ffffffebH
  000cc	88 55 ee	 mov	 BYTE PTR __k$[ebp+10], dl
  000cf	8a 50 0b	 mov	 dl, BYTE PTR [eax+11]
  000d2	84 d2		 test	 dl, dl
  000d4	0f 84 ad 00 00
	00		 je	 $LN85@LoadInt_e@2
  000da	80 f2 ea	 xor	 dl, -22			; ffffffeaH
  000dd	88 55 ef	 mov	 BYTE PTR __k$[ebp+11], dl
  000e0	8a 50 0c	 mov	 dl, BYTE PTR [eax+12]
  000e3	84 d2		 test	 dl, dl
  000e5	0f 84 96 00 00
	00		 je	 $LN84@LoadInt_e@2
  000eb	80 f2 ed	 xor	 dl, -19			; ffffffedH
  000ee	88 55 f0	 mov	 BYTE PTR __k$[ebp+12], dl
  000f1	8a 50 0d	 mov	 dl, BYTE PTR [eax+13]
  000f4	84 d2		 test	 dl, dl
  000f6	0f 84 80 00 00
	00		 je	 $LN83@LoadInt_e@2
  000fc	32 d1		 xor	 dl, cl
  000fe	88 55 f1	 mov	 BYTE PTR __k$[ebp+13], dl
  00101	8a 50 0e	 mov	 dl, BYTE PTR [eax+14]
  00104	84 d2		 test	 dl, dl
  00106	74 6e		 je	 SHORT $LN82@LoadInt_e@2
  00108	80 f2 eb	 xor	 dl, -21			; ffffffebH
  0010b	88 55 f2	 mov	 BYTE PTR __k$[ebp+14], dl
  0010e	8a 50 0f	 mov	 dl, BYTE PTR [eax+15]
  00111	84 d2		 test	 dl, dl
  00113	74 5b		 je	 SHORT $LN81@LoadInt_e@2
  00115	80 f2 ea	 xor	 dl, -22			; ffffffeaH
  00118	80 78 10 00	 cmp	 BYTE PTR [eax+16], 0
  0011c	88 55 f3	 mov	 BYTE PTR __k$[ebp+15], dl
  0011f	0f 84 a6 00 00
	00		 je	 $LN1@LoadInt_e@2
  00125	8a 50 11	 mov	 dl, BYTE PTR [eax+17]
  00128	84 d2		 test	 dl, dl
  0012a	74 3f		 je	 SHORT $LN79@LoadInt_e@2
  0012c	32 d1		 xor	 dl, cl
  0012e	88 55 f5	 mov	 BYTE PTR __k$[ebp+17], dl
  00131	8a 50 12	 mov	 dl, BYTE PTR [eax+18]
  00134	84 d2		 test	 dl, dl
  00136	74 2d		 je	 SHORT $LN78@LoadInt_e@2
  00138	80 f2 eb	 xor	 dl, -21			; ffffffebH
  0013b	88 55 f6	 mov	 BYTE PTR __k$[ebp+18], dl
  0013e	8a 50 13	 mov	 dl, BYTE PTR [eax+19]
  00141	84 d2		 test	 dl, dl
  00143	74 1a		 je	 SHORT $LN77@LoadInt_e@2
  00145	8a 40 14	 mov	 al, BYTE PTR [eax+20]
  00148	80 f2 ea	 xor	 dl, -22			; ffffffeaH
  0014b	88 55 f7	 mov	 BYTE PTR __k$[ebp+19], dl
  0014e	84 c0		 test	 al, al
  00150	74 07		 je	 SHORT $LN76@LoadInt_e@2
  00152	34 ed		 xor	 al, -19			; ffffffedH
  00154	88 45 f8	 mov	 BYTE PTR __k$[ebp+20], al
  00157	eb 72		 jmp	 SHORT $LN1@LoadInt_e@2
$LN76@LoadInt_e@2:
  00159	c6 45 f8 ed	 mov	 BYTE PTR __k$[ebp+20], -19 ; ffffffedH
  0015d	eb 6c		 jmp	 SHORT $LN1@LoadInt_e@2
$LN77@LoadInt_e@2:
  0015f	c6 45 f7 ea	 mov	 BYTE PTR __k$[ebp+19], -22 ; ffffffeaH
  00163	eb 66		 jmp	 SHORT $LN1@LoadInt_e@2
$LN78@LoadInt_e@2:
  00165	c6 45 f6 eb	 mov	 BYTE PTR __k$[ebp+18], -21 ; ffffffebH
  00169	eb 60		 jmp	 SHORT $LN1@LoadInt_e@2
$LN79@LoadInt_e@2:
  0016b	88 4d f5	 mov	 BYTE PTR __k$[ebp+17], cl
  0016e	eb 5b		 jmp	 SHORT $LN1@LoadInt_e@2
$LN81@LoadInt_e@2:
  00170	c6 45 f3 ea	 mov	 BYTE PTR __k$[ebp+15], -22 ; ffffffeaH
  00174	eb 55		 jmp	 SHORT $LN1@LoadInt_e@2
$LN82@LoadInt_e@2:
  00176	c6 45 f2 eb	 mov	 BYTE PTR __k$[ebp+14], -21 ; ffffffebH
  0017a	eb 4f		 jmp	 SHORT $LN1@LoadInt_e@2
$LN83@LoadInt_e@2:
  0017c	88 4d f1	 mov	 BYTE PTR __k$[ebp+13], cl
  0017f	eb 4a		 jmp	 SHORT $LN1@LoadInt_e@2
$LN84@LoadInt_e@2:
  00181	c6 45 f0 ed	 mov	 BYTE PTR __k$[ebp+12], -19 ; ffffffedH
  00185	eb 44		 jmp	 SHORT $LN1@LoadInt_e@2
$LN85@LoadInt_e@2:
  00187	c6 45 ef ea	 mov	 BYTE PTR __k$[ebp+11], -22 ; ffffffeaH
  0018b	eb 3e		 jmp	 SHORT $LN1@LoadInt_e@2
$LN86@LoadInt_e@2:
  0018d	c6 45 ee eb	 mov	 BYTE PTR __k$[ebp+10], -21 ; ffffffebH
  00191	eb 38		 jmp	 SHORT $LN1@LoadInt_e@2
$LN87@LoadInt_e@2:
  00193	88 4d ed	 mov	 BYTE PTR __k$[ebp+9], cl
  00196	eb 33		 jmp	 SHORT $LN1@LoadInt_e@2
$LN88@LoadInt_e@2:
  00198	c6 45 ec ed	 mov	 BYTE PTR __k$[ebp+8], -19 ; ffffffedH
  0019c	eb 2d		 jmp	 SHORT $LN1@LoadInt_e@2
$LN89@LoadInt_e@2:
  0019e	c6 45 eb ea	 mov	 BYTE PTR __k$[ebp+7], -22 ; ffffffeaH
  001a2	eb 27		 jmp	 SHORT $LN1@LoadInt_e@2
$LN90@LoadInt_e@2:
  001a4	c6 45 ea eb	 mov	 BYTE PTR __k$[ebp+6], -21 ; ffffffebH
  001a8	eb 21		 jmp	 SHORT $LN1@LoadInt_e@2
$LN91@LoadInt_e@2:
  001aa	88 4d e9	 mov	 BYTE PTR __k$[ebp+5], cl
  001ad	eb 1c		 jmp	 SHORT $LN1@LoadInt_e@2
$LN92@LoadInt_e@2:
  001af	c6 45 e8 ed	 mov	 BYTE PTR __k$[ebp+4], -19 ; ffffffedH
  001b3	eb 16		 jmp	 SHORT $LN1@LoadInt_e@2
$LN93@LoadInt_e@2:
  001b5	c6 45 e7 ea	 mov	 BYTE PTR __k$[ebp+3], -22 ; ffffffeaH
  001b9	eb 10		 jmp	 SHORT $LN1@LoadInt_e@2
$LN94@LoadInt_e@2:
  001bb	c6 45 e6 eb	 mov	 BYTE PTR __k$[ebp+2], -21 ; ffffffebH
  001bf	eb 0a		 jmp	 SHORT $LN1@LoadInt_e@2
$LN95@LoadInt_e@2:
  001c1	c6 45 e5 ec	 mov	 BYTE PTR __k$[ebp+1], -20 ; ffffffecH
  001c5	eb 04		 jmp	 SHORT $LN1@LoadInt_e@2
$LN96@LoadInt_e@2:
  001c7	c6 45 e4 ed	 mov	 BYTE PTR __k$[ebp], -19	; ffffffedH
$LN1@LoadInt_e@2:
  001cb	6a 04		 push	 4
  001cd	8d 45 e4	 lea	 eax, DWORD PTR __k$[ebp]
  001d0	c6 45 f4 00	 mov	 BYTE PTR __k$[ebp+16], 0
  001d4	5a		 pop	 edx
$LL104@LoadInt_e@2:
  001d5	81 30 ed ec eb
	ea		 xor	 DWORD PTR [eax], -353637139 ; eaebecedH
  001db	83 c0 04	 add	 eax, 4
  001de	4a		 dec	 edx
  001df	75 f4		 jne	 SHORT $LL104@LoadInt_e@2

; 120  : 		return LoadInt(_k, i);

  001e1	ff 75 0c	 push	 DWORD PTR _i$[ebp]
  001e4	8d 45 e4	 lea	 eax, DWORD PTR __k$[ebp]
  001e7	50		 push	 eax
  001e8	8b ce		 mov	 ecx, esi
  001ea	ff 15 00 00 00
	00		 call	 DWORD PTR __imp_?LoadInt@ioINILoader@@QAEHPBDH@Z

; 121  : 	}

  001f0	8b 4d fc	 mov	 ecx, DWORD PTR __$ArrayPad$[ebp]
  001f3	33 cd		 xor	 ecx, ebp
  001f5	5e		 pop	 esi
  001f6	e8 00 00 00 00	 call	 @__security_check_cookie@4
  001fb	c9		 leave
  001fc	c2 08 00	 ret	 8
??$LoadInt_e@$0BB@@ioINILoader@@QAEHAAY0BB@$$CBDH@Z ENDP ; ioINILoader::LoadInt_e<17>
_TEXT	ENDS
PUBLIC	__$ArrayPad$
PUBLIC	??$LoadInt_e@$0BA@@ioINILoader@@QAEHAAY0BA@$$CBDH@Z ; ioINILoader::LoadInt_e<16>
; Function compile flags: /Ogsp
;	COMDAT ??$LoadInt_e@$0BA@@ioINILoader@@QAEHAAY0BA@$$CBDH@Z
_TEXT	SEGMENT
__k$ = -24						; size = 16
__$ArrayPad$ = -4					; size = 4
_k$ = 8							; size = 4
_i$ = 12						; size = 4
??$LoadInt_e@$0BA@@ioINILoader@@QAEHAAY0BA@$$CBDH@Z PROC ; ioINILoader::LoadInt_e<16>, COMDAT
; _this$ = ecx

; 118  : 	{

  00000	55		 push	 ebp
  00001	8b ec		 mov	 ebp, esp
  00003	83 ec 18	 sub	 esp, 24			; 00000018H
  00006	a1 00 00 00 00	 mov	 eax, DWORD PTR ___security_cookie
  0000b	33 c5		 xor	 eax, ebp
  0000d	89 45 fc	 mov	 DWORD PTR __$ArrayPad$[ebp], eax
  00010	8b 45 08	 mov	 eax, DWORD PTR _k$[ebp]

; 119  : 		_ENCSTR(k, _k);

  00013	8a 10		 mov	 dl, BYTE PTR [eax]
  00015	56		 push	 esi
  00016	8b f1		 mov	 esi, ecx
  00018	84 d2		 test	 dl, dl
  0001a	0f 84 8c 01 00
	00		 je	 $LN96@LoadInt_e@3
  00020	80 f2 ed	 xor	 dl, -19			; ffffffedH
  00023	88 55 e8	 mov	 BYTE PTR __k$[ebp], dl
  00026	8a 50 01	 mov	 dl, BYTE PTR [eax+1]
  00029	84 d2		 test	 dl, dl
  0002b	0f 84 75 01 00
	00		 je	 $LN95@LoadInt_e@3
  00031	80 f2 ec	 xor	 dl, -20			; ffffffecH
  00034	88 55 e9	 mov	 BYTE PTR __k$[ebp+1], dl
  00037	8a 50 02	 mov	 dl, BYTE PTR [eax+2]
  0003a	84 d2		 test	 dl, dl
  0003c	0f 84 5e 01 00
	00		 je	 $LN94@LoadInt_e@3
  00042	b1 eb		 mov	 cl, -21			; ffffffebH
  00044	32 d1		 xor	 dl, cl
  00046	88 55 ea	 mov	 BYTE PTR __k$[ebp+2], dl
  00049	8a 50 03	 mov	 dl, BYTE PTR [eax+3]
  0004c	84 d2		 test	 dl, dl
  0004e	0f 84 46 01 00
	00		 je	 $LN93@LoadInt_e@3
  00054	80 f2 ea	 xor	 dl, -22			; ffffffeaH
  00057	88 55 eb	 mov	 BYTE PTR __k$[ebp+3], dl
  0005a	8a 50 04	 mov	 dl, BYTE PTR [eax+4]
  0005d	84 d2		 test	 dl, dl
  0005f	0f 84 2f 01 00
	00		 je	 $LN92@LoadInt_e@3
  00065	80 f2 ed	 xor	 dl, -19			; ffffffedH
  00068	88 55 ec	 mov	 BYTE PTR __k$[ebp+4], dl
  0006b	8a 50 05	 mov	 dl, BYTE PTR [eax+5]
  0006e	84 d2		 test	 dl, dl
  00070	0f 84 18 01 00
	00		 je	 $LN91@LoadInt_e@3
  00076	80 f2 ec	 xor	 dl, -20			; ffffffecH
  00079	88 55 ed	 mov	 BYTE PTR __k$[ebp+5], dl
  0007c	8a 50 06	 mov	 dl, BYTE PTR [eax+6]
  0007f	84 d2		 test	 dl, dl
  00081	0f 84 02 01 00
	00		 je	 $LN90@LoadInt_e@3
  00087	32 d1		 xor	 dl, cl
  00089	88 55 ee	 mov	 BYTE PTR __k$[ebp+6], dl
  0008c	8a 50 07	 mov	 dl, BYTE PTR [eax+7]
  0008f	84 d2		 test	 dl, dl
  00091	0f 84 ec 00 00
	00		 je	 $LN89@LoadInt_e@3
  00097	80 f2 ea	 xor	 dl, -22			; ffffffeaH
  0009a	88 55 ef	 mov	 BYTE PTR __k$[ebp+7], dl
  0009d	8a 50 08	 mov	 dl, BYTE PTR [eax+8]
  000a0	84 d2		 test	 dl, dl
  000a2	0f 84 d5 00 00
	00		 je	 $LN88@LoadInt_e@3
  000a8	80 f2 ed	 xor	 dl, -19			; ffffffedH
  000ab	88 55 f0	 mov	 BYTE PTR __k$[ebp+8], dl
  000ae	8a 50 09	 mov	 dl, BYTE PTR [eax+9]
  000b1	84 d2		 test	 dl, dl
  000b3	0f 84 be 00 00
	00		 je	 $LN87@LoadInt_e@3
  000b9	80 f2 ec	 xor	 dl, -20			; ffffffecH
  000bc	88 55 f1	 mov	 BYTE PTR __k$[ebp+9], dl
  000bf	8a 50 0a	 mov	 dl, BYTE PTR [eax+10]
  000c2	84 d2		 test	 dl, dl
  000c4	0f 84 a8 00 00
	00		 je	 $LN86@LoadInt_e@3
  000ca	32 d1		 xor	 dl, cl
  000cc	88 55 f2	 mov	 BYTE PTR __k$[ebp+10], dl
  000cf	8a 50 0b	 mov	 dl, BYTE PTR [eax+11]
  000d2	84 d2		 test	 dl, dl
  000d4	0f 84 92 00 00
	00		 je	 $LN85@LoadInt_e@3
  000da	80 f2 ea	 xor	 dl, -22			; ffffffeaH
  000dd	88 55 f3	 mov	 BYTE PTR __k$[ebp+11], dl
  000e0	8a 50 0c	 mov	 dl, BYTE PTR [eax+12]
  000e3	84 d2		 test	 dl, dl
  000e5	74 7f		 je	 SHORT $LN84@LoadInt_e@3
  000e7	80 f2 ed	 xor	 dl, -19			; ffffffedH
  000ea	88 55 f4	 mov	 BYTE PTR __k$[ebp+12], dl
  000ed	8a 50 0d	 mov	 dl, BYTE PTR [eax+13]
  000f0	84 d2		 test	 dl, dl
  000f2	74 6c		 je	 SHORT $LN83@LoadInt_e@3
  000f4	80 f2 ec	 xor	 dl, -20			; ffffffecH
  000f7	88 55 f5	 mov	 BYTE PTR __k$[ebp+13], dl
  000fa	8a 50 0e	 mov	 dl, BYTE PTR [eax+14]
  000fd	84 d2		 test	 dl, dl
  000ff	74 5a		 je	 SHORT $LN82@LoadInt_e@3
  00101	32 d1		 xor	 dl, cl
  00103	80 78 0f 00	 cmp	 BYTE PTR [eax+15], 0
  00107	88 55 f6	 mov	 BYTE PTR __k$[ebp+14], dl
  0010a	0f 84 a0 00 00
	00		 je	 $LN1@LoadInt_e@3
  00110	8a 50 10	 mov	 dl, BYTE PTR [eax+16]
  00113	84 d2		 test	 dl, dl
  00115	74 3e		 je	 SHORT $LN80@LoadInt_e@3
  00117	80 f2 ed	 xor	 dl, -19			; ffffffedH
  0011a	88 55 f8	 mov	 BYTE PTR __k$[ebp+16], dl
  0011d	8a 50 11	 mov	 dl, BYTE PTR [eax+17]
  00120	84 d2		 test	 dl, dl
  00122	74 2b		 je	 SHORT $LN79@LoadInt_e@3
  00124	80 f2 ec	 xor	 dl, -20			; ffffffecH
  00127	88 55 f9	 mov	 BYTE PTR __k$[ebp+17], dl
  0012a	8a 50 12	 mov	 dl, BYTE PTR [eax+18]
  0012d	84 d2		 test	 dl, dl
  0012f	74 19		 je	 SHORT $LN78@LoadInt_e@3
  00131	8a 40 13	 mov	 al, BYTE PTR [eax+19]
  00134	32 d1		 xor	 dl, cl
  00136	88 55 fa	 mov	 BYTE PTR __k$[ebp+18], dl
  00139	84 c0		 test	 al, al
  0013b	74 07		 je	 SHORT $LN77@LoadInt_e@3
  0013d	34 ea		 xor	 al, -22			; ffffffeaH
  0013f	88 45 fb	 mov	 BYTE PTR __k$[ebp+19], al
  00142	eb 6c		 jmp	 SHORT $LN1@LoadInt_e@3
$LN77@LoadInt_e@3:
  00144	c6 45 fb ea	 mov	 BYTE PTR __k$[ebp+19], -22 ; ffffffeaH
  00148	eb 66		 jmp	 SHORT $LN1@LoadInt_e@3
$LN78@LoadInt_e@3:
  0014a	88 4d fa	 mov	 BYTE PTR __k$[ebp+18], cl
  0014d	eb 61		 jmp	 SHORT $LN1@LoadInt_e@3
$LN79@LoadInt_e@3:
  0014f	c6 45 f9 ec	 mov	 BYTE PTR __k$[ebp+17], -20 ; ffffffecH
  00153	eb 5b		 jmp	 SHORT $LN1@LoadInt_e@3
$LN80@LoadInt_e@3:
  00155	c6 45 f8 ed	 mov	 BYTE PTR __k$[ebp+16], -19 ; ffffffedH
  00159	eb 55		 jmp	 SHORT $LN1@LoadInt_e@3
$LN82@LoadInt_e@3:
  0015b	88 4d f6	 mov	 BYTE PTR __k$[ebp+14], cl
  0015e	eb 50		 jmp	 SHORT $LN1@LoadInt_e@3
$LN83@LoadInt_e@3:
  00160	c6 45 f5 ec	 mov	 BYTE PTR __k$[ebp+13], -20 ; ffffffecH
  00164	eb 4a		 jmp	 SHORT $LN1@LoadInt_e@3
$LN84@LoadInt_e@3:
  00166	c6 45 f4 ed	 mov	 BYTE PTR __k$[ebp+12], -19 ; ffffffedH
  0016a	eb 44		 jmp	 SHORT $LN1@LoadInt_e@3
$LN85@LoadInt_e@3:
  0016c	c6 45 f3 ea	 mov	 BYTE PTR __k$[ebp+11], -22 ; ffffffeaH
  00170	eb 3e		 jmp	 SHORT $LN1@LoadInt_e@3
$LN86@LoadInt_e@3:
  00172	88 4d f2	 mov	 BYTE PTR __k$[ebp+10], cl
  00175	eb 39		 jmp	 SHORT $LN1@LoadInt_e@3
$LN87@LoadInt_e@3:
  00177	c6 45 f1 ec	 mov	 BYTE PTR __k$[ebp+9], -20 ; ffffffecH
  0017b	eb 33		 jmp	 SHORT $LN1@LoadInt_e@3
$LN88@LoadInt_e@3:
  0017d	c6 45 f0 ed	 mov	 BYTE PTR __k$[ebp+8], -19 ; ffffffedH
  00181	eb 2d		 jmp	 SHORT $LN1@LoadInt_e@3
$LN89@LoadInt_e@3:
  00183	c6 45 ef ea	 mov	 BYTE PTR __k$[ebp+7], -22 ; ffffffeaH
  00187	eb 27		 jmp	 SHORT $LN1@LoadInt_e@3
$LN90@LoadInt_e@3:
  00189	88 4d ee	 mov	 BYTE PTR __k$[ebp+6], cl
  0018c	eb 22		 jmp	 SHORT $LN1@LoadInt_e@3
$LN91@LoadInt_e@3:
  0018e	c6 45 ed ec	 mov	 BYTE PTR __k$[ebp+5], -20 ; ffffffecH
  00192	eb 1c		 jmp	 SHORT $LN1@LoadInt_e@3
$LN92@LoadInt_e@3:
  00194	c6 45 ec ed	 mov	 BYTE PTR __k$[ebp+4], -19 ; ffffffedH
  00198	eb 16		 jmp	 SHORT $LN1@LoadInt_e@3
$LN93@LoadInt_e@3:
  0019a	c6 45 eb ea	 mov	 BYTE PTR __k$[ebp+3], -22 ; ffffffeaH
  0019e	eb 10		 jmp	 SHORT $LN1@LoadInt_e@3
$LN94@LoadInt_e@3:
  001a0	c6 45 ea eb	 mov	 BYTE PTR __k$[ebp+2], -21 ; ffffffebH
  001a4	eb 0a		 jmp	 SHORT $LN1@LoadInt_e@3
$LN95@LoadInt_e@3:
  001a6	c6 45 e9 ec	 mov	 BYTE PTR __k$[ebp+1], -20 ; ffffffecH
  001aa	eb 04		 jmp	 SHORT $LN1@LoadInt_e@3
$LN96@LoadInt_e@3:
  001ac	c6 45 e8 ed	 mov	 BYTE PTR __k$[ebp], -19	; ffffffedH
$LN1@LoadInt_e@3:
  001b0	6a 03		 push	 3
  001b2	8d 45 e8	 lea	 eax, DWORD PTR __k$[ebp]
  001b5	c6 45 f7 00	 mov	 BYTE PTR __k$[ebp+15], 0
  001b9	5a		 pop	 edx
$LL104@LoadInt_e@3:
  001ba	81 30 ed ec eb
	ea		 xor	 DWORD PTR [eax], -353637139 ; eaebecedH
  001c0	83 c0 04	 add	 eax, 4
  001c3	4a		 dec	 edx
  001c4	75 f4		 jne	 SHORT $LL104@LoadInt_e@3
  001c6	6a 0c		 push	 12			; 0000000cH
  001c8	58		 pop	 eax
$LL101@LoadInt_e@3:
  001c9	8b c8		 mov	 ecx, eax
  001cb	81 e1 03 00 00
	80		 and	 ecx, -2147483645	; 80000003H
  001d1	79 05		 jns	 SHORT $LN111@LoadInt_e@3
  001d3	49		 dec	 ecx
  001d4	83 c9 fc	 or	 ecx, -4			; fffffffcH
  001d7	41		 inc	 ecx
$LN111@LoadInt_e@3:
  001d8	b2 ed		 mov	 dl, -19			; ffffffedH
  001da	2a d1		 sub	 dl, cl
  001dc	30 54 05 e8	 xor	 BYTE PTR __k$[ebp+eax], dl
  001e0	40		 inc	 eax
  001e1	83 f8 0f	 cmp	 eax, 15			; 0000000fH
  001e4	7c e3		 jl	 SHORT $LL101@LoadInt_e@3

; 120  : 		return LoadInt(_k, i);

  001e6	ff 75 0c	 push	 DWORD PTR _i$[ebp]
  001e9	8d 45 e8	 lea	 eax, DWORD PTR __k$[ebp]
  001ec	50		 push	 eax
  001ed	8b ce		 mov	 ecx, esi
  001ef	ff 15 00 00 00
	00		 call	 DWORD PTR __imp_?LoadInt@ioINILoader@@QAEHPBDH@Z

; 121  : 	}

  001f5	8b 4d fc	 mov	 ecx, DWORD PTR __$ArrayPad$[ebp]
  001f8	33 cd		 xor	 ecx, ebp
  001fa	5e		 pop	 esi
  001fb	e8 00 00 00 00	 call	 @__security_check_cookie@4
  00200	c9		 leave
  00201	c2 08 00	 ret	 8
??$LoadInt_e@$0BA@@ioINILoader@@QAEHAAY0BA@$$CBDH@Z ENDP ; ioINILoader::LoadInt_e<16>
_TEXT	ENDS
PUBLIC	__$ArrayPad$
PUBLIC	??$LoadInt_e@$0BC@@ioINILoader@@QAEHAAY0BC@$$CBDH@Z ; ioINILoader::LoadInt_e<18>
; Function compile flags: /Ogsp
;	COMDAT ??$LoadInt_e@$0BC@@ioINILoader@@QAEHAAY0BC@$$CBDH@Z
_TEXT	SEGMENT
__k$ = -28						; size = 18
__$ArrayPad$ = -4					; size = 4
_k$ = 8							; size = 4
_i$ = 12						; size = 4
??$LoadInt_e@$0BC@@ioINILoader@@QAEHAAY0BC@$$CBDH@Z PROC ; ioINILoader::LoadInt_e<18>, COMDAT
; _this$ = ecx

; 118  : 	{

  00000	55		 push	 ebp
  00001	8b ec		 mov	 ebp, esp
  00003	83 ec 1c	 sub	 esp, 28			; 0000001cH
  00006	a1 00 00 00 00	 mov	 eax, DWORD PTR ___security_cookie
  0000b	33 c5		 xor	 eax, ebp
  0000d	89 45 fc	 mov	 DWORD PTR __$ArrayPad$[ebp], eax
  00010	8b 45 08	 mov	 eax, DWORD PTR _k$[ebp]

; 119  : 		_ENCSTR(k, _k);

  00013	8a 10		 mov	 dl, BYTE PTR [eax]
  00015	56		 push	 esi
  00016	8b f1		 mov	 esi, ecx
  00018	84 d2		 test	 dl, dl
  0001a	0f 84 be 01 00
	00		 je	 $LN96@LoadInt_e@4
  00020	80 f2 ed	 xor	 dl, -19			; ffffffedH
  00023	88 55 e4	 mov	 BYTE PTR __k$[ebp], dl
  00026	8a 50 01	 mov	 dl, BYTE PTR [eax+1]
  00029	84 d2		 test	 dl, dl
  0002b	0f 84 a7 01 00
	00		 je	 $LN95@LoadInt_e@4
  00031	80 f2 ec	 xor	 dl, -20			; ffffffecH
  00034	88 55 e5	 mov	 BYTE PTR __k$[ebp+1], dl
  00037	8a 50 02	 mov	 dl, BYTE PTR [eax+2]
  0003a	84 d2		 test	 dl, dl
  0003c	0f 84 90 01 00
	00		 je	 $LN94@LoadInt_e@4
  00042	b1 eb		 mov	 cl, -21			; ffffffebH
  00044	32 d1		 xor	 dl, cl
  00046	88 55 e6	 mov	 BYTE PTR __k$[ebp+2], dl
  00049	8a 50 03	 mov	 dl, BYTE PTR [eax+3]
  0004c	84 d2		 test	 dl, dl
  0004e	0f 84 78 01 00
	00		 je	 $LN93@LoadInt_e@4
  00054	80 f2 ea	 xor	 dl, -22			; ffffffeaH
  00057	88 55 e7	 mov	 BYTE PTR __k$[ebp+3], dl
  0005a	8a 50 04	 mov	 dl, BYTE PTR [eax+4]
  0005d	84 d2		 test	 dl, dl
  0005f	0f 84 61 01 00
	00		 je	 $LN92@LoadInt_e@4
  00065	80 f2 ed	 xor	 dl, -19			; ffffffedH
  00068	88 55 e8	 mov	 BYTE PTR __k$[ebp+4], dl
  0006b	8a 50 05	 mov	 dl, BYTE PTR [eax+5]
  0006e	84 d2		 test	 dl, dl
  00070	0f 84 4a 01 00
	00		 je	 $LN91@LoadInt_e@4
  00076	80 f2 ec	 xor	 dl, -20			; ffffffecH
  00079	88 55 e9	 mov	 BYTE PTR __k$[ebp+5], dl
  0007c	8a 50 06	 mov	 dl, BYTE PTR [eax+6]
  0007f	84 d2		 test	 dl, dl
  00081	0f 84 34 01 00
	00		 je	 $LN90@LoadInt_e@4
  00087	32 d1		 xor	 dl, cl
  00089	88 55 ea	 mov	 BYTE PTR __k$[ebp+6], dl
  0008c	8a 50 07	 mov	 dl, BYTE PTR [eax+7]
  0008f	84 d2		 test	 dl, dl
  00091	0f 84 1e 01 00
	00		 je	 $LN89@LoadInt_e@4
  00097	80 f2 ea	 xor	 dl, -22			; ffffffeaH
  0009a	88 55 eb	 mov	 BYTE PTR __k$[ebp+7], dl
  0009d	8a 50 08	 mov	 dl, BYTE PTR [eax+8]
  000a0	84 d2		 test	 dl, dl
  000a2	0f 84 07 01 00
	00		 je	 $LN88@LoadInt_e@4
  000a8	80 f2 ed	 xor	 dl, -19			; ffffffedH
  000ab	88 55 ec	 mov	 BYTE PTR __k$[ebp+8], dl
  000ae	8a 50 09	 mov	 dl, BYTE PTR [eax+9]
  000b1	84 d2		 test	 dl, dl
  000b3	0f 84 f0 00 00
	00		 je	 $LN87@LoadInt_e@4
  000b9	80 f2 ec	 xor	 dl, -20			; ffffffecH
  000bc	88 55 ed	 mov	 BYTE PTR __k$[ebp+9], dl
  000bf	8a 50 0a	 mov	 dl, BYTE PTR [eax+10]
  000c2	84 d2		 test	 dl, dl
  000c4	0f 84 da 00 00
	00		 je	 $LN86@LoadInt_e@4
  000ca	32 d1		 xor	 dl, cl
  000cc	88 55 ee	 mov	 BYTE PTR __k$[ebp+10], dl
  000cf	8a 50 0b	 mov	 dl, BYTE PTR [eax+11]
  000d2	84 d2		 test	 dl, dl
  000d4	0f 84 c4 00 00
	00		 je	 $LN85@LoadInt_e@4
  000da	80 f2 ea	 xor	 dl, -22			; ffffffeaH
  000dd	88 55 ef	 mov	 BYTE PTR __k$[ebp+11], dl
  000e0	8a 50 0c	 mov	 dl, BYTE PTR [eax+12]
  000e3	84 d2		 test	 dl, dl
  000e5	0f 84 ad 00 00
	00		 je	 $LN84@LoadInt_e@4
  000eb	80 f2 ed	 xor	 dl, -19			; ffffffedH
  000ee	88 55 f0	 mov	 BYTE PTR __k$[ebp+12], dl
  000f1	8a 50 0d	 mov	 dl, BYTE PTR [eax+13]
  000f4	84 d2		 test	 dl, dl
  000f6	0f 84 96 00 00
	00		 je	 $LN83@LoadInt_e@4
  000fc	80 f2 ec	 xor	 dl, -20			; ffffffecH
  000ff	88 55 f1	 mov	 BYTE PTR __k$[ebp+13], dl
  00102	8a 50 0e	 mov	 dl, BYTE PTR [eax+14]
  00105	84 d2		 test	 dl, dl
  00107	0f 84 80 00 00
	00		 je	 $LN82@LoadInt_e@4
  0010d	32 d1		 xor	 dl, cl
  0010f	88 55 f2	 mov	 BYTE PTR __k$[ebp+14], dl
  00112	8a 50 0f	 mov	 dl, BYTE PTR [eax+15]
  00115	84 d2		 test	 dl, dl
  00117	74 6e		 je	 SHORT $LN81@LoadInt_e@4
  00119	80 f2 ea	 xor	 dl, -22			; ffffffeaH
  0011c	88 55 f3	 mov	 BYTE PTR __k$[ebp+15], dl
  0011f	8a 50 10	 mov	 dl, BYTE PTR [eax+16]
  00122	84 d2		 test	 dl, dl
  00124	74 5b		 je	 SHORT $LN80@LoadInt_e@4
  00126	80 f2 ed	 xor	 dl, -19			; ffffffedH
  00129	80 78 11 00	 cmp	 BYTE PTR [eax+17], 0
  0012d	88 55 f4	 mov	 BYTE PTR __k$[ebp+16], dl
  00130	0f 84 ac 00 00
	00		 je	 $LN1@LoadInt_e@4
  00136	8a 50 12	 mov	 dl, BYTE PTR [eax+18]
  00139	84 d2		 test	 dl, dl
  0013b	74 3f		 je	 SHORT $LN78@LoadInt_e@4
  0013d	32 d1		 xor	 dl, cl
  0013f	88 55 f6	 mov	 BYTE PTR __k$[ebp+18], dl
  00142	8a 50 13	 mov	 dl, BYTE PTR [eax+19]
  00145	84 d2		 test	 dl, dl
  00147	74 2d		 je	 SHORT $LN77@LoadInt_e@4
  00149	80 f2 ea	 xor	 dl, -22			; ffffffeaH
  0014c	88 55 f7	 mov	 BYTE PTR __k$[ebp+19], dl
  0014f	8a 50 14	 mov	 dl, BYTE PTR [eax+20]
  00152	84 d2		 test	 dl, dl
  00154	74 1a		 je	 SHORT $LN76@LoadInt_e@4
  00156	8a 40 15	 mov	 al, BYTE PTR [eax+21]
  00159	80 f2 ed	 xor	 dl, -19			; ffffffedH
  0015c	88 55 f8	 mov	 BYTE PTR __k$[ebp+20], dl
  0015f	84 c0		 test	 al, al
  00161	74 07		 je	 SHORT $LN75@LoadInt_e@4
  00163	34 ec		 xor	 al, -20			; ffffffecH
  00165	88 45 f9	 mov	 BYTE PTR __k$[ebp+21], al
  00168	eb 78		 jmp	 SHORT $LN1@LoadInt_e@4
$LN75@LoadInt_e@4:
  0016a	c6 45 f9 ec	 mov	 BYTE PTR __k$[ebp+21], -20 ; ffffffecH
  0016e	eb 72		 jmp	 SHORT $LN1@LoadInt_e@4
$LN76@LoadInt_e@4:
  00170	c6 45 f8 ed	 mov	 BYTE PTR __k$[ebp+20], -19 ; ffffffedH
  00174	eb 6c		 jmp	 SHORT $LN1@LoadInt_e@4
$LN77@LoadInt_e@4:
  00176	c6 45 f7 ea	 mov	 BYTE PTR __k$[ebp+19], -22 ; ffffffeaH
  0017a	eb 66		 jmp	 SHORT $LN1@LoadInt_e@4
$LN78@LoadInt_e@4:
  0017c	88 4d f6	 mov	 BYTE PTR __k$[ebp+18], cl
  0017f	eb 61		 jmp	 SHORT $LN1@LoadInt_e@4
$LN80@LoadInt_e@4:
  00181	c6 45 f4 ed	 mov	 BYTE PTR __k$[ebp+16], -19 ; ffffffedH
  00185	eb 5b		 jmp	 SHORT $LN1@LoadInt_e@4
$LN81@LoadInt_e@4:
  00187	c6 45 f3 ea	 mov	 BYTE PTR __k$[ebp+15], -22 ; ffffffeaH
  0018b	eb 55		 jmp	 SHORT $LN1@LoadInt_e@4
$LN82@LoadInt_e@4:
  0018d	88 4d f2	 mov	 BYTE PTR __k$[ebp+14], cl
  00190	eb 50		 jmp	 SHORT $LN1@LoadInt_e@4
$LN83@LoadInt_e@4:
  00192	c6 45 f1 ec	 mov	 BYTE PTR __k$[ebp+13], -20 ; ffffffecH
  00196	eb 4a		 jmp	 SHORT $LN1@LoadInt_e@4
$LN84@LoadInt_e@4:
  00198	c6 45 f0 ed	 mov	 BYTE PTR __k$[ebp+12], -19 ; ffffffedH
  0019c	eb 44		 jmp	 SHORT $LN1@LoadInt_e@4
$LN85@LoadInt_e@4:
  0019e	c6 45 ef ea	 mov	 BYTE PTR __k$[ebp+11], -22 ; ffffffeaH
  001a2	eb 3e		 jmp	 SHORT $LN1@LoadInt_e@4
$LN86@LoadInt_e@4:
  001a4	88 4d ee	 mov	 BYTE PTR __k$[ebp+10], cl
  001a7	eb 39		 jmp	 SHORT $LN1@LoadInt_e@4
$LN87@LoadInt_e@4:
  001a9	c6 45 ed ec	 mov	 BYTE PTR __k$[ebp+9], -20 ; ffffffecH
  001ad	eb 33		 jmp	 SHORT $LN1@LoadInt_e@4
$LN88@LoadInt_e@4:
  001af	c6 45 ec ed	 mov	 BYTE PTR __k$[ebp+8], -19 ; ffffffedH
  001b3	eb 2d		 jmp	 SHORT $LN1@LoadInt_e@4
$LN89@LoadInt_e@4:
  001b5	c6 45 eb ea	 mov	 BYTE PTR __k$[ebp+7], -22 ; ffffffeaH
  001b9	eb 27		 jmp	 SHORT $LN1@LoadInt_e@4
$LN90@LoadInt_e@4:
  001bb	88 4d ea	 mov	 BYTE PTR __k$[ebp+6], cl
  001be	eb 22		 jmp	 SHORT $LN1@LoadInt_e@4
$LN91@LoadInt_e@4:
  001c0	c6 45 e9 ec	 mov	 BYTE PTR __k$[ebp+5], -20 ; ffffffecH
  001c4	eb 1c		 jmp	 SHORT $LN1@LoadInt_e@4
$LN92@LoadInt_e@4:
  001c6	c6 45 e8 ed	 mov	 BYTE PTR __k$[ebp+4], -19 ; ffffffedH
  001ca	eb 16		 jmp	 SHORT $LN1@LoadInt_e@4
$LN93@LoadInt_e@4:
  001cc	c6 45 e7 ea	 mov	 BYTE PTR __k$[ebp+3], -22 ; ffffffeaH
  001d0	eb 10		 jmp	 SHORT $LN1@LoadInt_e@4
$LN94@LoadInt_e@4:
  001d2	c6 45 e6 eb	 mov	 BYTE PTR __k$[ebp+2], -21 ; ffffffebH
  001d6	eb 0a		 jmp	 SHORT $LN1@LoadInt_e@4
$LN95@LoadInt_e@4:
  001d8	c6 45 e5 ec	 mov	 BYTE PTR __k$[ebp+1], -20 ; ffffffecH
  001dc	eb 04		 jmp	 SHORT $LN1@LoadInt_e@4
$LN96@LoadInt_e@4:
  001de	c6 45 e4 ed	 mov	 BYTE PTR __k$[ebp], -19	; ffffffedH
$LN1@LoadInt_e@4:
  001e2	6a 04		 push	 4
  001e4	8d 45 e4	 lea	 eax, DWORD PTR __k$[ebp]
  001e7	c6 45 f5 00	 mov	 BYTE PTR __k$[ebp+17], 0
  001eb	5a		 pop	 edx
$LL104@LoadInt_e@4:
  001ec	81 30 ed ec eb
	ea		 xor	 DWORD PTR [eax], -353637139 ; eaebecedH
  001f2	83 c0 04	 add	 eax, 4
  001f5	4a		 dec	 edx
  001f6	75 f4		 jne	 SHORT $LL104@LoadInt_e@4

; 120  : 		return LoadInt(_k, i);

  001f8	ff 75 0c	 push	 DWORD PTR _i$[ebp]
  001fb	80 75 f4 ed	 xor	 BYTE PTR __k$[ebp+16], -19 ; ffffffedH
  001ff	8d 45 e4	 lea	 eax, DWORD PTR __k$[ebp]
  00202	50		 push	 eax
  00203	8b ce		 mov	 ecx, esi
  00205	ff 15 00 00 00
	00		 call	 DWORD PTR __imp_?LoadInt@ioINILoader@@QAEHPBDH@Z

; 121  : 	}

  0020b	8b 4d fc	 mov	 ecx, DWORD PTR __$ArrayPad$[ebp]
  0020e	33 cd		 xor	 ecx, ebp
  00210	5e		 pop	 esi
  00211	e8 00 00 00 00	 call	 @__security_check_cookie@4
  00216	c9		 leave
  00217	c2 08 00	 ret	 8
??$LoadInt_e@$0BC@@ioINILoader@@QAEHAAY0BC@$$CBDH@Z ENDP ; ioINILoader::LoadInt_e<18>
_TEXT	ENDS
PUBLIC	__$ArrayPad$
PUBLIC	??$LoadInt_e@$0BD@@ioINILoader@@QAEHAAY0BD@$$CBDH@Z ; ioINILoader::LoadInt_e<19>
; Function compile flags: /Ogsp
;	COMDAT ??$LoadInt_e@$0BD@@ioINILoader@@QAEHAAY0BD@$$CBDH@Z
_TEXT	SEGMENT
__k$ = -28						; size = 19
__$ArrayPad$ = -4					; size = 4
_k$ = 8							; size = 4
_i$ = 12						; size = 4
??$LoadInt_e@$0BD@@ioINILoader@@QAEHAAY0BD@$$CBDH@Z PROC ; ioINILoader::LoadInt_e<19>, COMDAT
; _this$ = ecx

; 118  : 	{

  00000	55		 push	 ebp
  00001	8b ec		 mov	 ebp, esp
  00003	83 ec 1c	 sub	 esp, 28			; 0000001cH
  00006	a1 00 00 00 00	 mov	 eax, DWORD PTR ___security_cookie
  0000b	33 c5		 xor	 eax, ebp
  0000d	89 45 fc	 mov	 DWORD PTR __$ArrayPad$[ebp], eax
  00010	8b 45 08	 mov	 eax, DWORD PTR _k$[ebp]

; 119  : 		_ENCSTR(k, _k);

  00013	8a 10		 mov	 dl, BYTE PTR [eax]
  00015	56		 push	 esi
  00016	8b f1		 mov	 esi, ecx
  00018	84 d2		 test	 dl, dl
  0001a	0f 84 cf 01 00
	00		 je	 $LN96@LoadInt_e@5
  00020	80 f2 ed	 xor	 dl, -19			; ffffffedH
  00023	88 55 e4	 mov	 BYTE PTR __k$[ebp], dl
  00026	8a 50 01	 mov	 dl, BYTE PTR [eax+1]
  00029	84 d2		 test	 dl, dl
  0002b	0f 84 b8 01 00
	00		 je	 $LN95@LoadInt_e@5
  00031	b1 ec		 mov	 cl, -20			; ffffffecH
  00033	32 d1		 xor	 dl, cl
  00035	88 55 e5	 mov	 BYTE PTR __k$[ebp+1], dl
  00038	8a 50 02	 mov	 dl, BYTE PTR [eax+2]
  0003b	84 d2		 test	 dl, dl
  0003d	0f 84 a0 01 00
	00		 je	 $LN94@LoadInt_e@5
  00043	80 f2 eb	 xor	 dl, -21			; ffffffebH
  00046	88 55 e6	 mov	 BYTE PTR __k$[ebp+2], dl
  00049	8a 50 03	 mov	 dl, BYTE PTR [eax+3]
  0004c	84 d2		 test	 dl, dl
  0004e	0f 84 89 01 00
	00		 je	 $LN93@LoadInt_e@5
  00054	80 f2 ea	 xor	 dl, -22			; ffffffeaH
  00057	88 55 e7	 mov	 BYTE PTR __k$[ebp+3], dl
  0005a	8a 50 04	 mov	 dl, BYTE PTR [eax+4]
  0005d	84 d2		 test	 dl, dl
  0005f	0f 84 72 01 00
	00		 je	 $LN92@LoadInt_e@5
  00065	80 f2 ed	 xor	 dl, -19			; ffffffedH
  00068	88 55 e8	 mov	 BYTE PTR __k$[ebp+4], dl
  0006b	8a 50 05	 mov	 dl, BYTE PTR [eax+5]
  0006e	84 d2		 test	 dl, dl
  00070	0f 84 5c 01 00
	00		 je	 $LN91@LoadInt_e@5
  00076	32 d1		 xor	 dl, cl
  00078	88 55 e9	 mov	 BYTE PTR __k$[ebp+5], dl
  0007b	8a 50 06	 mov	 dl, BYTE PTR [eax+6]
  0007e	84 d2		 test	 dl, dl
  00080	0f 84 46 01 00
	00		 je	 $LN90@LoadInt_e@5
  00086	80 f2 eb	 xor	 dl, -21			; ffffffebH
  00089	88 55 ea	 mov	 BYTE PTR __k$[ebp+6], dl
  0008c	8a 50 07	 mov	 dl, BYTE PTR [eax+7]
  0008f	84 d2		 test	 dl, dl
  00091	0f 84 2f 01 00
	00		 je	 $LN89@LoadInt_e@5
  00097	80 f2 ea	 xor	 dl, -22			; ffffffeaH
  0009a	88 55 eb	 mov	 BYTE PTR __k$[ebp+7], dl
  0009d	8a 50 08	 mov	 dl, BYTE PTR [eax+8]
  000a0	84 d2		 test	 dl, dl
  000a2	0f 84 18 01 00
	00		 je	 $LN88@LoadInt_e@5
  000a8	80 f2 ed	 xor	 dl, -19			; ffffffedH
  000ab	88 55 ec	 mov	 BYTE PTR __k$[ebp+8], dl
  000ae	8a 50 09	 mov	 dl, BYTE PTR [eax+9]
  000b1	84 d2		 test	 dl, dl
  000b3	0f 84 02 01 00
	00		 je	 $LN87@LoadInt_e@5
  000b9	32 d1		 xor	 dl, cl
  000bb	88 55 ed	 mov	 BYTE PTR __k$[ebp+9], dl
  000be	8a 50 0a	 mov	 dl, BYTE PTR [eax+10]
  000c1	84 d2		 test	 dl, dl
  000c3	0f 84 ec 00 00
	00		 je	 $LN86@LoadInt_e@5
  000c9	80 f2 eb	 xor	 dl, -21			; ffffffebH
  000cc	88 55 ee	 mov	 BYTE PTR __k$[ebp+10], dl
  000cf	8a 50 0b	 mov	 dl, BYTE PTR [eax+11]
  000d2	84 d2		 test	 dl, dl
  000d4	0f 84 d5 00 00
	00		 je	 $LN85@LoadInt_e@5
  000da	80 f2 ea	 xor	 dl, -22			; ffffffeaH
  000dd	88 55 ef	 mov	 BYTE PTR __k$[ebp+11], dl
  000e0	8a 50 0c	 mov	 dl, BYTE PTR [eax+12]
  000e3	84 d2		 test	 dl, dl
  000e5	0f 84 be 00 00
	00		 je	 $LN84@LoadInt_e@5
  000eb	80 f2 ed	 xor	 dl, -19			; ffffffedH
  000ee	88 55 f0	 mov	 BYTE PTR __k$[ebp+12], dl
  000f1	8a 50 0d	 mov	 dl, BYTE PTR [eax+13]
  000f4	84 d2		 test	 dl, dl
  000f6	0f 84 a8 00 00
	00		 je	 $LN83@LoadInt_e@5
  000fc	32 d1		 xor	 dl, cl
  000fe	88 55 f1	 mov	 BYTE PTR __k$[ebp+13], dl
  00101	8a 50 0e	 mov	 dl, BYTE PTR [eax+14]
  00104	84 d2		 test	 dl, dl
  00106	0f 84 92 00 00
	00		 je	 $LN82@LoadInt_e@5
  0010c	80 f2 eb	 xor	 dl, -21			; ffffffebH
  0010f	88 55 f2	 mov	 BYTE PTR __k$[ebp+14], dl
  00112	8a 50 0f	 mov	 dl, BYTE PTR [eax+15]
  00115	84 d2		 test	 dl, dl
  00117	74 7f		 je	 SHORT $LN81@LoadInt_e@5
  00119	80 f2 ea	 xor	 dl, -22			; ffffffeaH
  0011c	88 55 f3	 mov	 BYTE PTR __k$[ebp+15], dl
  0011f	8a 50 10	 mov	 dl, BYTE PTR [eax+16]
  00122	84 d2		 test	 dl, dl
  00124	74 6c		 je	 SHORT $LN80@LoadInt_e@5
  00126	80 f2 ed	 xor	 dl, -19			; ffffffedH
  00129	88 55 f4	 mov	 BYTE PTR __k$[ebp+16], dl
  0012c	8a 50 11	 mov	 dl, BYTE PTR [eax+17]
  0012f	84 d2		 test	 dl, dl
  00131	74 5a		 je	 SHORT $LN79@LoadInt_e@5
  00133	32 d1		 xor	 dl, cl
  00135	80 78 12 00	 cmp	 BYTE PTR [eax+18], 0
  00139	88 55 f5	 mov	 BYTE PTR __k$[ebp+17], dl
  0013c	0f 84 b1 00 00
	00		 je	 $LN1@LoadInt_e@5
  00142	8a 50 13	 mov	 dl, BYTE PTR [eax+19]
  00145	84 d2		 test	 dl, dl
  00147	74 3e		 je	 SHORT $LN77@LoadInt_e@5
  00149	80 f2 ea	 xor	 dl, -22			; ffffffeaH
  0014c	88 55 f7	 mov	 BYTE PTR __k$[ebp+19], dl
  0014f	8a 50 14	 mov	 dl, BYTE PTR [eax+20]
  00152	84 d2		 test	 dl, dl
  00154	74 2b		 je	 SHORT $LN76@LoadInt_e@5
  00156	80 f2 ed	 xor	 dl, -19			; ffffffedH
  00159	88 55 f8	 mov	 BYTE PTR __k$[ebp+20], dl
  0015c	8a 50 15	 mov	 dl, BYTE PTR [eax+21]
  0015f	84 d2		 test	 dl, dl
  00161	74 19		 je	 SHORT $LN75@LoadInt_e@5
  00163	8a 40 16	 mov	 al, BYTE PTR [eax+22]
  00166	32 d1		 xor	 dl, cl
  00168	88 55 f9	 mov	 BYTE PTR __k$[ebp+21], dl
  0016b	84 c0		 test	 al, al
  0016d	74 07		 je	 SHORT $LN74@LoadInt_e@5
  0016f	34 eb		 xor	 al, -21			; ffffffebH
  00171	88 45 fa	 mov	 BYTE PTR __k$[ebp+22], al
  00174	eb 7d		 jmp	 SHORT $LN1@LoadInt_e@5
$LN74@LoadInt_e@5:
  00176	c6 45 fa eb	 mov	 BYTE PTR __k$[ebp+22], -21 ; ffffffebH
  0017a	eb 77		 jmp	 SHORT $LN1@LoadInt_e@5
$LN75@LoadInt_e@5:
  0017c	88 4d f9	 mov	 BYTE PTR __k$[ebp+21], cl
  0017f	eb 72		 jmp	 SHORT $LN1@LoadInt_e@5
$LN76@LoadInt_e@5:
  00181	c6 45 f8 ed	 mov	 BYTE PTR __k$[ebp+20], -19 ; ffffffedH
  00185	eb 6c		 jmp	 SHORT $LN1@LoadInt_e@5
$LN77@LoadInt_e@5:
  00187	c6 45 f7 ea	 mov	 BYTE PTR __k$[ebp+19], -22 ; ffffffeaH
  0018b	eb 66		 jmp	 SHORT $LN1@LoadInt_e@5
$LN79@LoadInt_e@5:
  0018d	88 4d f5	 mov	 BYTE PTR __k$[ebp+17], cl
  00190	eb 61		 jmp	 SHORT $LN1@LoadInt_e@5
$LN80@LoadInt_e@5:
  00192	c6 45 f4 ed	 mov	 BYTE PTR __k$[ebp+16], -19 ; ffffffedH
  00196	eb 5b		 jmp	 SHORT $LN1@LoadInt_e@5
$LN81@LoadInt_e@5:
  00198	c6 45 f3 ea	 mov	 BYTE PTR __k$[ebp+15], -22 ; ffffffeaH
  0019c	eb 55		 jmp	 SHORT $LN1@LoadInt_e@5
$LN82@LoadInt_e@5:
  0019e	c6 45 f2 eb	 mov	 BYTE PTR __k$[ebp+14], -21 ; ffffffebH
  001a2	eb 4f		 jmp	 SHORT $LN1@LoadInt_e@5
$LN83@LoadInt_e@5:
  001a4	88 4d f1	 mov	 BYTE PTR __k$[ebp+13], cl
  001a7	eb 4a		 jmp	 SHORT $LN1@LoadInt_e@5
$LN84@LoadInt_e@5:
  001a9	c6 45 f0 ed	 mov	 BYTE PTR __k$[ebp+12], -19 ; ffffffedH
  001ad	eb 44		 jmp	 SHORT $LN1@LoadInt_e@5
$LN85@LoadInt_e@5:
  001af	c6 45 ef ea	 mov	 BYTE PTR __k$[ebp+11], -22 ; ffffffeaH
  001b3	eb 3e		 jmp	 SHORT $LN1@LoadInt_e@5
$LN86@LoadInt_e@5:
  001b5	c6 45 ee eb	 mov	 BYTE PTR __k$[ebp+10], -21 ; ffffffebH
  001b9	eb 38		 jmp	 SHORT $LN1@LoadInt_e@5
$LN87@LoadInt_e@5:
  001bb	88 4d ed	 mov	 BYTE PTR __k$[ebp+9], cl
  001be	eb 33		 jmp	 SHORT $LN1@LoadInt_e@5
$LN88@LoadInt_e@5:
  001c0	c6 45 ec ed	 mov	 BYTE PTR __k$[ebp+8], -19 ; ffffffedH
  001c4	eb 2d		 jmp	 SHORT $LN1@LoadInt_e@5
$LN89@LoadInt_e@5:
  001c6	c6 45 eb ea	 mov	 BYTE PTR __k$[ebp+7], -22 ; ffffffeaH
  001ca	eb 27		 jmp	 SHORT $LN1@LoadInt_e@5
$LN90@LoadInt_e@5:
  001cc	c6 45 ea eb	 mov	 BYTE PTR __k$[ebp+6], -21 ; ffffffebH
  001d0	eb 21		 jmp	 SHORT $LN1@LoadInt_e@5
$LN91@LoadInt_e@5:
  001d2	88 4d e9	 mov	 BYTE PTR __k$[ebp+5], cl
  001d5	eb 1c		 jmp	 SHORT $LN1@LoadInt_e@5
$LN92@LoadInt_e@5:
  001d7	c6 45 e8 ed	 mov	 BYTE PTR __k$[ebp+4], -19 ; ffffffedH
  001db	eb 16		 jmp	 SHORT $LN1@LoadInt_e@5
$LN93@LoadInt_e@5:
  001dd	c6 45 e7 ea	 mov	 BYTE PTR __k$[ebp+3], -22 ; ffffffeaH
  001e1	eb 10		 jmp	 SHORT $LN1@LoadInt_e@5
$LN94@LoadInt_e@5:
  001e3	c6 45 e6 eb	 mov	 BYTE PTR __k$[ebp+2], -21 ; ffffffebH
  001e7	eb 0a		 jmp	 SHORT $LN1@LoadInt_e@5
$LN95@LoadInt_e@5:
  001e9	c6 45 e5 ec	 mov	 BYTE PTR __k$[ebp+1], -20 ; ffffffecH
  001ed	eb 04		 jmp	 SHORT $LN1@LoadInt_e@5
$LN96@LoadInt_e@5:
  001ef	c6 45 e4 ed	 mov	 BYTE PTR __k$[ebp], -19	; ffffffedH
$LN1@LoadInt_e@5:
  001f3	6a 04		 push	 4
  001f5	8d 45 e4	 lea	 eax, DWORD PTR __k$[ebp]
  001f8	c6 45 f6 00	 mov	 BYTE PTR __k$[ebp+18], 0
  001fc	5a		 pop	 edx
$LL104@LoadInt_e@5:
  001fd	81 30 ed ec eb
	ea		 xor	 DWORD PTR [eax], -353637139 ; eaebecedH
  00203	83 c0 04	 add	 eax, 4
  00206	4a		 dec	 edx
  00207	75 f4		 jne	 SHORT $LL104@LoadInt_e@5
  00209	6a 10		 push	 16			; 00000010H
  0020b	58		 pop	 eax
$LL101@LoadInt_e@5:
  0020c	8b c8		 mov	 ecx, eax
  0020e	81 e1 03 00 00
	80		 and	 ecx, -2147483645	; 80000003H
  00214	79 05		 jns	 SHORT $LN111@LoadInt_e@5
  00216	49		 dec	 ecx
  00217	83 c9 fc	 or	 ecx, -4			; fffffffcH
  0021a	41		 inc	 ecx
$LN111@LoadInt_e@5:
  0021b	b2 ed		 mov	 dl, -19			; ffffffedH
  0021d	2a d1		 sub	 dl, cl
  0021f	30 54 05 e4	 xor	 BYTE PTR __k$[ebp+eax], dl
  00223	40		 inc	 eax
  00224	83 f8 12	 cmp	 eax, 18			; 00000012H
  00227	7c e3		 jl	 SHORT $LL101@LoadInt_e@5

; 120  : 		return LoadInt(_k, i);

  00229	ff 75 0c	 push	 DWORD PTR _i$[ebp]
  0022c	8d 45 e4	 lea	 eax, DWORD PTR __k$[ebp]
  0022f	50		 push	 eax
  00230	8b ce		 mov	 ecx, esi
  00232	ff 15 00 00 00
	00		 call	 DWORD PTR __imp_?LoadInt@ioINILoader@@QAEHPBDH@Z

; 121  : 	}

  00238	8b 4d fc	 mov	 ecx, DWORD PTR __$ArrayPad$[ebp]
  0023b	33 cd		 xor	 ecx, ebp
  0023d	5e		 pop	 esi
  0023e	e8 00 00 00 00	 call	 @__security_check_cookie@4
  00243	c9		 leave
  00244	c2 08 00	 ret	 8
??$LoadInt_e@$0BD@@ioINILoader@@QAEHAAY0BD@$$CBDH@Z ENDP ; ioINILoader::LoadInt_e<19>
_TEXT	ENDS
PUBLIC	__$ArrayPad$
PUBLIC	??$LoadFloat_e@$0BD@@ioINILoader@@QAEMAAY0BD@$$CBDM@Z ; ioINILoader::LoadFloat_e<19>
; Function compile flags: /Ogsp
;	COMDAT ??$LoadFloat_e@$0BD@@ioINILoader@@QAEMAAY0BD@$$CBDM@Z
_TEXT	SEGMENT
__k$ = -28						; size = 19
__$ArrayPad$ = -4					; size = 4
_k$ = 8							; size = 4
_f$ = 12						; size = 4
??$LoadFloat_e@$0BD@@ioINILoader@@QAEMAAY0BD@$$CBDM@Z PROC ; ioINILoader::LoadFloat_e<19>, COMDAT
; _this$ = ecx

; 135  : 	{

  00000	55		 push	 ebp
  00001	8b ec		 mov	 ebp, esp
  00003	83 ec 1c	 sub	 esp, 28			; 0000001cH
  00006	a1 00 00 00 00	 mov	 eax, DWORD PTR ___security_cookie
  0000b	33 c5		 xor	 eax, ebp
  0000d	89 45 fc	 mov	 DWORD PTR __$ArrayPad$[ebp], eax
  00010	8b 45 08	 mov	 eax, DWORD PTR _k$[ebp]

; 136  : 		_ENCSTR(k, _k);

  00013	8a 10		 mov	 dl, BYTE PTR [eax]
  00015	56		 push	 esi
  00016	8b f1		 mov	 esi, ecx
  00018	84 d2		 test	 dl, dl
  0001a	0f 84 cf 01 00
	00		 je	 $LN96@LoadFloat_@2
  00020	80 f2 ed	 xor	 dl, -19			; ffffffedH
  00023	88 55 e4	 mov	 BYTE PTR __k$[ebp], dl
  00026	8a 50 01	 mov	 dl, BYTE PTR [eax+1]
  00029	84 d2		 test	 dl, dl
  0002b	0f 84 b8 01 00
	00		 je	 $LN95@LoadFloat_@2
  00031	b1 ec		 mov	 cl, -20			; ffffffecH
  00033	32 d1		 xor	 dl, cl
  00035	88 55 e5	 mov	 BYTE PTR __k$[ebp+1], dl
  00038	8a 50 02	 mov	 dl, BYTE PTR [eax+2]
  0003b	84 d2		 test	 dl, dl
  0003d	0f 84 a0 01 00
	00		 je	 $LN94@LoadFloat_@2
  00043	80 f2 eb	 xor	 dl, -21			; ffffffebH
  00046	88 55 e6	 mov	 BYTE PTR __k$[ebp+2], dl
  00049	8a 50 03	 mov	 dl, BYTE PTR [eax+3]
  0004c	84 d2		 test	 dl, dl
  0004e	0f 84 89 01 00
	00		 je	 $LN93@LoadFloat_@2
  00054	80 f2 ea	 xor	 dl, -22			; ffffffeaH
  00057	88 55 e7	 mov	 BYTE PTR __k$[ebp+3], dl
  0005a	8a 50 04	 mov	 dl, BYTE PTR [eax+4]
  0005d	84 d2		 test	 dl, dl
  0005f	0f 84 72 01 00
	00		 je	 $LN92@LoadFloat_@2
  00065	80 f2 ed	 xor	 dl, -19			; ffffffedH
  00068	88 55 e8	 mov	 BYTE PTR __k$[ebp+4], dl
  0006b	8a 50 05	 mov	 dl, BYTE PTR [eax+5]
  0006e	84 d2		 test	 dl, dl
  00070	0f 84 5c 01 00
	00		 je	 $LN91@LoadFloat_@2
  00076	32 d1		 xor	 dl, cl
  00078	88 55 e9	 mov	 BYTE PTR __k$[ebp+5], dl
  0007b	8a 50 06	 mov	 dl, BYTE PTR [eax+6]
  0007e	84 d2		 test	 dl, dl
  00080	0f 84 46 01 00
	00		 je	 $LN90@LoadFloat_@2
  00086	80 f2 eb	 xor	 dl, -21			; ffffffebH
  00089	88 55 ea	 mov	 BYTE PTR __k$[ebp+6], dl
  0008c	8a 50 07	 mov	 dl, BYTE PTR [eax+7]
  0008f	84 d2		 test	 dl, dl
  00091	0f 84 2f 01 00
	00		 je	 $LN89@LoadFloat_@2
  00097	80 f2 ea	 xor	 dl, -22			; ffffffeaH
  0009a	88 55 eb	 mov	 BYTE PTR __k$[ebp+7], dl
  0009d	8a 50 08	 mov	 dl, BYTE PTR [eax+8]
  000a0	84 d2		 test	 dl, dl
  000a2	0f 84 18 01 00
	00		 je	 $LN88@LoadFloat_@2
  000a8	80 f2 ed	 xor	 dl, -19			; ffffffedH
  000ab	88 55 ec	 mov	 BYTE PTR __k$[ebp+8], dl
  000ae	8a 50 09	 mov	 dl, BYTE PTR [eax+9]
  000b1	84 d2		 test	 dl, dl
  000b3	0f 84 02 01 00
	00		 je	 $LN87@LoadFloat_@2
  000b9	32 d1		 xor	 dl, cl
  000bb	88 55 ed	 mov	 BYTE PTR __k$[ebp+9], dl
  000be	8a 50 0a	 mov	 dl, BYTE PTR [eax+10]
  000c1	84 d2		 test	 dl, dl
  000c3	0f 84 ec 00 00
	00		 je	 $LN86@LoadFloat_@2
  000c9	80 f2 eb	 xor	 dl, -21			; ffffffebH
  000cc	88 55 ee	 mov	 BYTE PTR __k$[ebp+10], dl
  000cf	8a 50 0b	 mov	 dl, BYTE PTR [eax+11]
  000d2	84 d2		 test	 dl, dl
  000d4	0f 84 d5 00 00
	00		 je	 $LN85@LoadFloat_@2
  000da	80 f2 ea	 xor	 dl, -22			; ffffffeaH
  000dd	88 55 ef	 mov	 BYTE PTR __k$[ebp+11], dl
  000e0	8a 50 0c	 mov	 dl, BYTE PTR [eax+12]
  000e3	84 d2		 test	 dl, dl
  000e5	0f 84 be 00 00
	00		 je	 $LN84@LoadFloat_@2
  000eb	80 f2 ed	 xor	 dl, -19			; ffffffedH
  000ee	88 55 f0	 mov	 BYTE PTR __k$[ebp+12], dl
  000f1	8a 50 0d	 mov	 dl, BYTE PTR [eax+13]
  000f4	84 d2		 test	 dl, dl
  000f6	0f 84 a8 00 00
	00		 je	 $LN83@LoadFloat_@2
  000fc	32 d1		 xor	 dl, cl
  000fe	88 55 f1	 mov	 BYTE PTR __k$[ebp+13], dl
  00101	8a 50 0e	 mov	 dl, BYTE PTR [eax+14]
  00104	84 d2		 test	 dl, dl
  00106	0f 84 92 00 00
	00		 je	 $LN82@LoadFloat_@2
  0010c	80 f2 eb	 xor	 dl, -21			; ffffffebH
  0010f	88 55 f2	 mov	 BYTE PTR __k$[ebp+14], dl
  00112	8a 50 0f	 mov	 dl, BYTE PTR [eax+15]
  00115	84 d2		 test	 dl, dl
  00117	74 7f		 je	 SHORT $LN81@LoadFloat_@2
  00119	80 f2 ea	 xor	 dl, -22			; ffffffeaH
  0011c	88 55 f3	 mov	 BYTE PTR __k$[ebp+15], dl
  0011f	8a 50 10	 mov	 dl, BYTE PTR [eax+16]
  00122	84 d2		 test	 dl, dl
  00124	74 6c		 je	 SHORT $LN80@LoadFloat_@2
  00126	80 f2 ed	 xor	 dl, -19			; ffffffedH
  00129	88 55 f4	 mov	 BYTE PTR __k$[ebp+16], dl
  0012c	8a 50 11	 mov	 dl, BYTE PTR [eax+17]
  0012f	84 d2		 test	 dl, dl
  00131	74 5a		 je	 SHORT $LN79@LoadFloat_@2
  00133	32 d1		 xor	 dl, cl
  00135	80 78 12 00	 cmp	 BYTE PTR [eax+18], 0
  00139	88 55 f5	 mov	 BYTE PTR __k$[ebp+17], dl
  0013c	0f 84 b1 00 00
	00		 je	 $LN1@LoadFloat_@2
  00142	8a 50 13	 mov	 dl, BYTE PTR [eax+19]
  00145	84 d2		 test	 dl, dl
  00147	74 3e		 je	 SHORT $LN77@LoadFloat_@2
  00149	80 f2 ea	 xor	 dl, -22			; ffffffeaH
  0014c	88 55 f7	 mov	 BYTE PTR __k$[ebp+19], dl
  0014f	8a 50 14	 mov	 dl, BYTE PTR [eax+20]
  00152	84 d2		 test	 dl, dl
  00154	74 2b		 je	 SHORT $LN76@LoadFloat_@2
  00156	80 f2 ed	 xor	 dl, -19			; ffffffedH
  00159	88 55 f8	 mov	 BYTE PTR __k$[ebp+20], dl
  0015c	8a 50 15	 mov	 dl, BYTE PTR [eax+21]
  0015f	84 d2		 test	 dl, dl
  00161	74 19		 je	 SHORT $LN75@LoadFloat_@2
  00163	8a 40 16	 mov	 al, BYTE PTR [eax+22]
  00166	32 d1		 xor	 dl, cl
  00168	88 55 f9	 mov	 BYTE PTR __k$[ebp+21], dl
  0016b	84 c0		 test	 al, al
  0016d	74 07		 je	 SHORT $LN74@LoadFloat_@2
  0016f	34 eb		 xor	 al, -21			; ffffffebH
  00171	88 45 fa	 mov	 BYTE PTR __k$[ebp+22], al
  00174	eb 7d		 jmp	 SHORT $LN1@LoadFloat_@2
$LN74@LoadFloat_@2:
  00176	c6 45 fa eb	 mov	 BYTE PTR __k$[ebp+22], -21 ; ffffffebH
  0017a	eb 77		 jmp	 SHORT $LN1@LoadFloat_@2
$LN75@LoadFloat_@2:
  0017c	88 4d f9	 mov	 BYTE PTR __k$[ebp+21], cl
  0017f	eb 72		 jmp	 SHORT $LN1@LoadFloat_@2
$LN76@LoadFloat_@2:
  00181	c6 45 f8 ed	 mov	 BYTE PTR __k$[ebp+20], -19 ; ffffffedH
  00185	eb 6c		 jmp	 SHORT $LN1@LoadFloat_@2
$LN77@LoadFloat_@2:
  00187	c6 45 f7 ea	 mov	 BYTE PTR __k$[ebp+19], -22 ; ffffffeaH
  0018b	eb 66		 jmp	 SHORT $LN1@LoadFloat_@2
$LN79@LoadFloat_@2:
  0018d	88 4d f5	 mov	 BYTE PTR __k$[ebp+17], cl
  00190	eb 61		 jmp	 SHORT $LN1@LoadFloat_@2
$LN80@LoadFloat_@2:
  00192	c6 45 f4 ed	 mov	 BYTE PTR __k$[ebp+16], -19 ; ffffffedH
  00196	eb 5b		 jmp	 SHORT $LN1@LoadFloat_@2
$LN81@LoadFloat_@2:
  00198	c6 45 f3 ea	 mov	 BYTE PTR __k$[ebp+15], -22 ; ffffffeaH
  0019c	eb 55		 jmp	 SHORT $LN1@LoadFloat_@2
$LN82@LoadFloat_@2:
  0019e	c6 45 f2 eb	 mov	 BYTE PTR __k$[ebp+14], -21 ; ffffffebH
  001a2	eb 4f		 jmp	 SHORT $LN1@LoadFloat_@2
$LN83@LoadFloat_@2:
  001a4	88 4d f1	 mov	 BYTE PTR __k$[ebp+13], cl
  001a7	eb 4a		 jmp	 SHORT $LN1@LoadFloat_@2
$LN84@LoadFloat_@2:
  001a9	c6 45 f0 ed	 mov	 BYTE PTR __k$[ebp+12], -19 ; ffffffedH
  001ad	eb 44		 jmp	 SHORT $LN1@LoadFloat_@2
$LN85@LoadFloat_@2:
  001af	c6 45 ef ea	 mov	 BYTE PTR __k$[ebp+11], -22 ; ffffffeaH
  001b3	eb 3e		 jmp	 SHORT $LN1@LoadFloat_@2
$LN86@LoadFloat_@2:
  001b5	c6 45 ee eb	 mov	 BYTE PTR __k$[ebp+10], -21 ; ffffffebH
  001b9	eb 38		 jmp	 SHORT $LN1@LoadFloat_@2
$LN87@LoadFloat_@2:
  001bb	88 4d ed	 mov	 BYTE PTR __k$[ebp+9], cl
  001be	eb 33		 jmp	 SHORT $LN1@LoadFloat_@2
$LN88@LoadFloat_@2:
  001c0	c6 45 ec ed	 mov	 BYTE PTR __k$[ebp+8], -19 ; ffffffedH
  001c4	eb 2d		 jmp	 SHORT $LN1@LoadFloat_@2
$LN89@LoadFloat_@2:
  001c6	c6 45 eb ea	 mov	 BYTE PTR __k$[ebp+7], -22 ; ffffffeaH
  001ca	eb 27		 jmp	 SHORT $LN1@LoadFloat_@2
$LN90@LoadFloat_@2:
  001cc	c6 45 ea eb	 mov	 BYTE PTR __k$[ebp+6], -21 ; ffffffebH
  001d0	eb 21		 jmp	 SHORT $LN1@LoadFloat_@2
$LN91@LoadFloat_@2:
  001d2	88 4d e9	 mov	 BYTE PTR __k$[ebp+5], cl
  001d5	eb 1c		 jmp	 SHORT $LN1@LoadFloat_@2
$LN92@LoadFloat_@2:
  001d7	c6 45 e8 ed	 mov	 BYTE PTR __k$[ebp+4], -19 ; ffffffedH
  001db	eb 16		 jmp	 SHORT $LN1@LoadFloat_@2
$LN93@LoadFloat_@2:
  001dd	c6 45 e7 ea	 mov	 BYTE PTR __k$[ebp+3], -22 ; ffffffeaH
  001e1	eb 10		 jmp	 SHORT $LN1@LoadFloat_@2
$LN94@LoadFloat_@2:
  001e3	c6 45 e6 eb	 mov	 BYTE PTR __k$[ebp+2], -21 ; ffffffebH
  001e7	eb 0a		 jmp	 SHORT $LN1@LoadFloat_@2
$LN95@LoadFloat_@2:
  001e9	c6 45 e5 ec	 mov	 BYTE PTR __k$[ebp+1], -20 ; ffffffecH
  001ed	eb 04		 jmp	 SHORT $LN1@LoadFloat_@2
$LN96@LoadFloat_@2:
  001ef	c6 45 e4 ed	 mov	 BYTE PTR __k$[ebp], -19	; ffffffedH
$LN1@LoadFloat_@2:
  001f3	6a 04		 push	 4
  001f5	8d 45 e4	 lea	 eax, DWORD PTR __k$[ebp]
  001f8	c6 45 f6 00	 mov	 BYTE PTR __k$[ebp+18], 0
  001fc	5a		 pop	 edx
$LL104@LoadFloat_@2:
  001fd	81 30 ed ec eb
	ea		 xor	 DWORD PTR [eax], -353637139 ; eaebecedH
  00203	83 c0 04	 add	 eax, 4
  00206	4a		 dec	 edx
  00207	75 f4		 jne	 SHORT $LL104@LoadFloat_@2
  00209	6a 10		 push	 16			; 00000010H
  0020b	58		 pop	 eax
$LL101@LoadFloat_@2:
  0020c	8b c8		 mov	 ecx, eax
  0020e	81 e1 03 00 00
	80		 and	 ecx, -2147483645	; 80000003H
  00214	79 05		 jns	 SHORT $LN111@LoadFloat_@2
  00216	49		 dec	 ecx
  00217	83 c9 fc	 or	 ecx, -4			; fffffffcH
  0021a	41		 inc	 ecx
$LN111@LoadFloat_@2:
  0021b	b2 ed		 mov	 dl, -19			; ffffffedH
  0021d	2a d1		 sub	 dl, cl
  0021f	30 54 05 e4	 xor	 BYTE PTR __k$[ebp+eax], dl
  00223	40		 inc	 eax
  00224	83 f8 12	 cmp	 eax, 18			; 00000012H
  00227	7c e3		 jl	 SHORT $LL101@LoadFloat_@2

; 137  : 		return LoadFloat(_k, f);

  00229	f3 0f 10 45 0c	 movss	 xmm0, DWORD PTR _f$[ebp]
  0022e	51		 push	 ecx
  0022f	8d 45 e4	 lea	 eax, DWORD PTR __k$[ebp]
  00232	f3 0f 11 04 24	 movss	 DWORD PTR [esp], xmm0
  00237	50		 push	 eax
  00238	8b ce		 mov	 ecx, esi
  0023a	ff 15 00 00 00
	00		 call	 DWORD PTR __imp_?LoadFloat@ioINILoader@@QAEMPBDM@Z

; 138  : 	}

  00240	8b 4d fc	 mov	 ecx, DWORD PTR __$ArrayPad$[ebp]
  00243	33 cd		 xor	 ecx, ebp
  00245	5e		 pop	 esi
  00246	e8 00 00 00 00	 call	 @__security_check_cookie@4
  0024b	c9		 leave
  0024c	c2 08 00	 ret	 8
??$LoadFloat_e@$0BD@@ioINILoader@@QAEMAAY0BD@$$CBDM@Z ENDP ; ioINILoader::LoadFloat_e<19>
_TEXT	ENDS
PUBLIC	__$ArrayPad$
PUBLIC	??$LoadBool_e@$0P@@ioINILoader@@QAE_NAAY0P@$$CBD_N@Z ; ioINILoader::LoadBool_e<15>
EXTRN	__imp_?LoadBool@ioINILoader@@QAE_NPBD_N@Z:PROC
; Function compile flags: /Ogsp
;	COMDAT ??$LoadBool_e@$0P@@ioINILoader@@QAE_NAAY0P@$$CBD_N@Z
_TEXT	SEGMENT
__k$ = -24						; size = 15
__$ArrayPad$ = -4					; size = 4
_k$ = 8							; size = 4
_b$ = 12						; size = 1
??$LoadBool_e@$0P@@ioINILoader@@QAE_NAAY0P@$$CBD_N@Z PROC ; ioINILoader::LoadBool_e<15>, COMDAT
; _this$ = ecx

; 101  : 	{

  00000	55		 push	 ebp
  00001	8b ec		 mov	 ebp, esp
  00003	83 ec 18	 sub	 esp, 24			; 00000018H
  00006	a1 00 00 00 00	 mov	 eax, DWORD PTR ___security_cookie
  0000b	33 c5		 xor	 eax, ebp
  0000d	89 45 fc	 mov	 DWORD PTR __$ArrayPad$[ebp], eax
  00010	8b 45 08	 mov	 eax, DWORD PTR _k$[ebp]

; 102  : 		_ENCSTR(k, _k);

  00013	8a 10		 mov	 dl, BYTE PTR [eax]
  00015	56		 push	 esi
  00016	8b f1		 mov	 esi, ecx
  00018	84 d2		 test	 dl, dl
  0001a	0f 84 75 01 00
	00		 je	 $LN96@LoadBool_e
  00020	80 f2 ed	 xor	 dl, -19			; ffffffedH
  00023	88 55 e8	 mov	 BYTE PTR __k$[ebp], dl
  00026	8a 50 01	 mov	 dl, BYTE PTR [eax+1]
  00029	84 d2		 test	 dl, dl
  0002b	0f 84 5e 01 00
	00		 je	 $LN95@LoadBool_e
  00031	b1 ec		 mov	 cl, -20			; ffffffecH
  00033	32 d1		 xor	 dl, cl
  00035	88 55 e9	 mov	 BYTE PTR __k$[ebp+1], dl
  00038	8a 50 02	 mov	 dl, BYTE PTR [eax+2]
  0003b	84 d2		 test	 dl, dl
  0003d	0f 84 46 01 00
	00		 je	 $LN94@LoadBool_e
  00043	80 f2 eb	 xor	 dl, -21			; ffffffebH
  00046	88 55 ea	 mov	 BYTE PTR __k$[ebp+2], dl
  00049	8a 50 03	 mov	 dl, BYTE PTR [eax+3]
  0004c	84 d2		 test	 dl, dl
  0004e	0f 84 2f 01 00
	00		 je	 $LN93@LoadBool_e
  00054	80 f2 ea	 xor	 dl, -22			; ffffffeaH
  00057	88 55 eb	 mov	 BYTE PTR __k$[ebp+3], dl
  0005a	8a 50 04	 mov	 dl, BYTE PTR [eax+4]
  0005d	84 d2		 test	 dl, dl
  0005f	0f 84 18 01 00
	00		 je	 $LN92@LoadBool_e
  00065	80 f2 ed	 xor	 dl, -19			; ffffffedH
  00068	88 55 ec	 mov	 BYTE PTR __k$[ebp+4], dl
  0006b	8a 50 05	 mov	 dl, BYTE PTR [eax+5]
  0006e	84 d2		 test	 dl, dl
  00070	0f 84 02 01 00
	00		 je	 $LN91@LoadBool_e
  00076	32 d1		 xor	 dl, cl
  00078	88 55 ed	 mov	 BYTE PTR __k$[ebp+5], dl
  0007b	8a 50 06	 mov	 dl, BYTE PTR [eax+6]
  0007e	84 d2		 test	 dl, dl
  00080	0f 84 ec 00 00
	00		 je	 $LN90@LoadBool_e
  00086	80 f2 eb	 xor	 dl, -21			; ffffffebH
  00089	88 55 ee	 mov	 BYTE PTR __k$[ebp+6], dl
  0008c	8a 50 07	 mov	 dl, BYTE PTR [eax+7]
  0008f	84 d2		 test	 dl, dl
  00091	0f 84 d5 00 00
	00		 je	 $LN89@LoadBool_e
  00097	80 f2 ea	 xor	 dl, -22			; ffffffeaH
  0009a	88 55 ef	 mov	 BYTE PTR __k$[ebp+7], dl
  0009d	8a 50 08	 mov	 dl, BYTE PTR [eax+8]
  000a0	84 d2		 test	 dl, dl
  000a2	0f 84 be 00 00
	00		 je	 $LN88@LoadBool_e
  000a8	80 f2 ed	 xor	 dl, -19			; ffffffedH
  000ab	88 55 f0	 mov	 BYTE PTR __k$[ebp+8], dl
  000ae	8a 50 09	 mov	 dl, BYTE PTR [eax+9]
  000b1	84 d2		 test	 dl, dl
  000b3	0f 84 a8 00 00
	00		 je	 $LN87@LoadBool_e
  000b9	32 d1		 xor	 dl, cl
  000bb	88 55 f1	 mov	 BYTE PTR __k$[ebp+9], dl
  000be	8a 50 0a	 mov	 dl, BYTE PTR [eax+10]
  000c1	84 d2		 test	 dl, dl
  000c3	0f 84 92 00 00
	00		 je	 $LN86@LoadBool_e
  000c9	80 f2 eb	 xor	 dl, -21			; ffffffebH
  000cc	88 55 f2	 mov	 BYTE PTR __k$[ebp+10], dl
  000cf	8a 50 0b	 mov	 dl, BYTE PTR [eax+11]
  000d2	84 d2		 test	 dl, dl
  000d4	74 7f		 je	 SHORT $LN85@LoadBool_e
  000d6	80 f2 ea	 xor	 dl, -22			; ffffffeaH
  000d9	88 55 f3	 mov	 BYTE PTR __k$[ebp+11], dl
  000dc	8a 50 0c	 mov	 dl, BYTE PTR [eax+12]
  000df	84 d2		 test	 dl, dl
  000e1	74 6c		 je	 SHORT $LN84@LoadBool_e
  000e3	80 f2 ed	 xor	 dl, -19			; ffffffedH
  000e6	88 55 f4	 mov	 BYTE PTR __k$[ebp+12], dl
  000e9	8a 50 0d	 mov	 dl, BYTE PTR [eax+13]
  000ec	84 d2		 test	 dl, dl
  000ee	74 5a		 je	 SHORT $LN83@LoadBool_e
  000f0	32 d1		 xor	 dl, cl
  000f2	80 78 0e 00	 cmp	 BYTE PTR [eax+14], 0
  000f6	88 55 f5	 mov	 BYTE PTR __k$[ebp+13], dl
  000f9	0f 84 9a 00 00
	00		 je	 $LN1@LoadBool_e
  000ff	8a 50 0f	 mov	 dl, BYTE PTR [eax+15]
  00102	84 d2		 test	 dl, dl
  00104	74 3e		 je	 SHORT $LN81@LoadBool_e
  00106	80 f2 ea	 xor	 dl, -22			; ffffffeaH
  00109	88 55 f7	 mov	 BYTE PTR __k$[ebp+15], dl
  0010c	8a 50 10	 mov	 dl, BYTE PTR [eax+16]
  0010f	84 d2		 test	 dl, dl
  00111	74 2b		 je	 SHORT $LN80@LoadBool_e
  00113	80 f2 ed	 xor	 dl, -19			; ffffffedH
  00116	88 55 f8	 mov	 BYTE PTR __k$[ebp+16], dl
  00119	8a 50 11	 mov	 dl, BYTE PTR [eax+17]
  0011c	84 d2		 test	 dl, dl
  0011e	74 19		 je	 SHORT $LN79@LoadBool_e
  00120	8a 40 12	 mov	 al, BYTE PTR [eax+18]
  00123	32 d1		 xor	 dl, cl
  00125	88 55 f9	 mov	 BYTE PTR __k$[ebp+17], dl
  00128	84 c0		 test	 al, al
  0012a	74 07		 je	 SHORT $LN78@LoadBool_e
  0012c	34 eb		 xor	 al, -21			; ffffffebH
  0012e	88 45 fa	 mov	 BYTE PTR __k$[ebp+18], al
  00131	eb 66		 jmp	 SHORT $LN1@LoadBool_e
$LN78@LoadBool_e:
  00133	c6 45 fa eb	 mov	 BYTE PTR __k$[ebp+18], -21 ; ffffffebH
  00137	eb 60		 jmp	 SHORT $LN1@LoadBool_e
$LN79@LoadBool_e:
  00139	88 4d f9	 mov	 BYTE PTR __k$[ebp+17], cl
  0013c	eb 5b		 jmp	 SHORT $LN1@LoadBool_e
$LN80@LoadBool_e:
  0013e	c6 45 f8 ed	 mov	 BYTE PTR __k$[ebp+16], -19 ; ffffffedH
  00142	eb 55		 jmp	 SHORT $LN1@LoadBool_e
$LN81@LoadBool_e:
  00144	c6 45 f7 ea	 mov	 BYTE PTR __k$[ebp+15], -22 ; ffffffeaH
  00148	eb 4f		 jmp	 SHORT $LN1@LoadBool_e
$LN83@LoadBool_e:
  0014a	88 4d f5	 mov	 BYTE PTR __k$[ebp+13], cl
  0014d	eb 4a		 jmp	 SHORT $LN1@LoadBool_e
$LN84@LoadBool_e:
  0014f	c6 45 f4 ed	 mov	 BYTE PTR __k$[ebp+12], -19 ; ffffffedH
  00153	eb 44		 jmp	 SHORT $LN1@LoadBool_e
$LN85@LoadBool_e:
  00155	c6 45 f3 ea	 mov	 BYTE PTR __k$[ebp+11], -22 ; ffffffeaH
  00159	eb 3e		 jmp	 SHORT $LN1@LoadBool_e
$LN86@LoadBool_e:
  0015b	c6 45 f2 eb	 mov	 BYTE PTR __k$[ebp+10], -21 ; ffffffebH
  0015f	eb 38		 jmp	 SHORT $LN1@LoadBool_e
$LN87@LoadBool_e:
  00161	88 4d f1	 mov	 BYTE PTR __k$[ebp+9], cl
  00164	eb 33		 jmp	 SHORT $LN1@LoadBool_e
$LN88@LoadBool_e:
  00166	c6 45 f0 ed	 mov	 BYTE PTR __k$[ebp+8], -19 ; ffffffedH
  0016a	eb 2d		 jmp	 SHORT $LN1@LoadBool_e
$LN89@LoadBool_e:
  0016c	c6 45 ef ea	 mov	 BYTE PTR __k$[ebp+7], -22 ; ffffffeaH
  00170	eb 27		 jmp	 SHORT $LN1@LoadBool_e
$LN90@LoadBool_e:
  00172	c6 45 ee eb	 mov	 BYTE PTR __k$[ebp+6], -21 ; ffffffebH
  00176	eb 21		 jmp	 SHORT $LN1@LoadBool_e
$LN91@LoadBool_e:
  00178	88 4d ed	 mov	 BYTE PTR __k$[ebp+5], cl
  0017b	eb 1c		 jmp	 SHORT $LN1@LoadBool_e
$LN92@LoadBool_e:
  0017d	c6 45 ec ed	 mov	 BYTE PTR __k$[ebp+4], -19 ; ffffffedH
  00181	eb 16		 jmp	 SHORT $LN1@LoadBool_e
$LN93@LoadBool_e:
  00183	c6 45 eb ea	 mov	 BYTE PTR __k$[ebp+3], -22 ; ffffffeaH
  00187	eb 10		 jmp	 SHORT $LN1@LoadBool_e
$LN94@LoadBool_e:
  00189	c6 45 ea eb	 mov	 BYTE PTR __k$[ebp+2], -21 ; ffffffebH
  0018d	eb 0a		 jmp	 SHORT $LN1@LoadBool_e
$LN95@LoadBool_e:
  0018f	c6 45 e9 ec	 mov	 BYTE PTR __k$[ebp+1], -20 ; ffffffecH
  00193	eb 04		 jmp	 SHORT $LN1@LoadBool_e
$LN96@LoadBool_e:
  00195	c6 45 e8 ed	 mov	 BYTE PTR __k$[ebp], -19	; ffffffedH
$LN1@LoadBool_e:
  00199	6a 03		 push	 3
  0019b	8d 45 e8	 lea	 eax, DWORD PTR __k$[ebp]
  0019e	c6 45 f6 00	 mov	 BYTE PTR __k$[ebp+14], 0
  001a2	5a		 pop	 edx
$LL104@LoadBool_e:
  001a3	81 30 ed ec eb
	ea		 xor	 DWORD PTR [eax], -353637139 ; eaebecedH
  001a9	83 c0 04	 add	 eax, 4
  001ac	4a		 dec	 edx
  001ad	75 f4		 jne	 SHORT $LL104@LoadBool_e
  001af	6a 0c		 push	 12			; 0000000cH
  001b1	58		 pop	 eax
$LL101@LoadBool_e:
  001b2	8b c8		 mov	 ecx, eax
  001b4	81 e1 03 00 00
	80		 and	 ecx, -2147483645	; 80000003H
  001ba	79 05		 jns	 SHORT $LN111@LoadBool_e
  001bc	49		 dec	 ecx
  001bd	83 c9 fc	 or	 ecx, -4			; fffffffcH
  001c0	41		 inc	 ecx
$LN111@LoadBool_e:
  001c1	b2 ed		 mov	 dl, -19			; ffffffedH
  001c3	2a d1		 sub	 dl, cl
  001c5	30 54 05 e8	 xor	 BYTE PTR __k$[ebp+eax], dl
  001c9	40		 inc	 eax
  001ca	83 f8 0e	 cmp	 eax, 14			; 0000000eH
  001cd	7c e3		 jl	 SHORT $LL101@LoadBool_e

; 103  : 		return LoadBool(_k, b);

  001cf	ff 75 0c	 push	 DWORD PTR _b$[ebp]
  001d2	8d 45 e8	 lea	 eax, DWORD PTR __k$[ebp]
  001d5	50		 push	 eax
  001d6	8b ce		 mov	 ecx, esi
  001d8	ff 15 00 00 00
	00		 call	 DWORD PTR __imp_?LoadBool@ioINILoader@@QAE_NPBD_N@Z

; 104  : 	}

  001de	8b 4d fc	 mov	 ecx, DWORD PTR __$ArrayPad$[ebp]
  001e1	33 cd		 xor	 ecx, ebp
  001e3	5e		 pop	 esi
  001e4	e8 00 00 00 00	 call	 @__security_check_cookie@4
  001e9	c9		 leave
  001ea	c2 08 00	 ret	 8
??$LoadBool_e@$0P@@ioINILoader@@QAE_NAAY0P@$$CBD_N@Z ENDP ; ioINILoader::LoadBool_e<15>
_TEXT	ENDS
PUBLIC	__$ArrayPad$
PUBLIC	??$SetTitle_e@$0L@@ioINILoader@@QAEXAAY0L@$$CBD@Z ; ioINILoader::SetTitle_e<11>
; Function compile flags: /Ogsp
;	COMDAT ??$SetTitle_e@$0L@@ioINILoader@@QAEXAAY0L@$$CBD@Z
_TEXT	SEGMENT
__t$ = -20						; size = 11
__$ArrayPad$ = -4					; size = 4
_t$ = 8							; size = 4
??$SetTitle_e@$0L@@ioINILoader@@QAEXAAY0L@$$CBD@Z PROC	; ioINILoader::SetTitle_e<11>, COMDAT
; _this$ = ecx

; 188  : 	{

  00000	55		 push	 ebp
  00001	8b ec		 mov	 ebp, esp
  00003	83 ec 14	 sub	 esp, 20			; 00000014H
  00006	a1 00 00 00 00	 mov	 eax, DWORD PTR ___security_cookie
  0000b	33 c5		 xor	 eax, ebp
  0000d	89 45 fc	 mov	 DWORD PTR __$ArrayPad$[ebp], eax
  00010	8b 45 08	 mov	 eax, DWORD PTR _t$[ebp]

; 189  : 		_ENCSTR(t, _t);

  00013	8a 10		 mov	 dl, BYTE PTR [eax]
  00015	56		 push	 esi
  00016	8b f1		 mov	 esi, ecx
  00018	84 d2		 test	 dl, dl
  0001a	0f 84 24 01 00
	00		 je	 $LN96@SetTitle_e@2
  00020	80 f2 ed	 xor	 dl, -19			; ffffffedH
  00023	88 55 ec	 mov	 BYTE PTR __t$[ebp], dl
  00026	8a 50 01	 mov	 dl, BYTE PTR [eax+1]
  00029	84 d2		 test	 dl, dl
  0002b	0f 84 0d 01 00
	00		 je	 $LN95@SetTitle_e@2
  00031	80 f2 ec	 xor	 dl, -20			; ffffffecH
  00034	88 55 ed	 mov	 BYTE PTR __t$[ebp+1], dl
  00037	8a 50 02	 mov	 dl, BYTE PTR [eax+2]
  0003a	84 d2		 test	 dl, dl
  0003c	0f 84 f6 00 00
	00		 je	 $LN94@SetTitle_e@2
  00042	80 f2 eb	 xor	 dl, -21			; ffffffebH
  00045	88 55 ee	 mov	 BYTE PTR __t$[ebp+2], dl
  00048	8a 50 03	 mov	 dl, BYTE PTR [eax+3]
  0004b	84 d2		 test	 dl, dl
  0004d	0f 84 df 00 00
	00		 je	 $LN93@SetTitle_e@2
  00053	80 f2 ea	 xor	 dl, -22			; ffffffeaH
  00056	88 55 ef	 mov	 BYTE PTR __t$[ebp+3], dl
  00059	8a 50 04	 mov	 dl, BYTE PTR [eax+4]
  0005c	84 d2		 test	 dl, dl
  0005e	0f 84 c8 00 00
	00		 je	 $LN92@SetTitle_e@2
  00064	80 f2 ed	 xor	 dl, -19			; ffffffedH
  00067	88 55 f0	 mov	 BYTE PTR __t$[ebp+4], dl
  0006a	8a 50 05	 mov	 dl, BYTE PTR [eax+5]
  0006d	84 d2		 test	 dl, dl
  0006f	0f 84 b1 00 00
	00		 je	 $LN91@SetTitle_e@2
  00075	80 f2 ec	 xor	 dl, -20			; ffffffecH
  00078	88 55 f1	 mov	 BYTE PTR __t$[ebp+5], dl
  0007b	8a 50 06	 mov	 dl, BYTE PTR [eax+6]
  0007e	84 d2		 test	 dl, dl
  00080	0f 84 9a 00 00
	00		 je	 $LN90@SetTitle_e@2
  00086	80 f2 eb	 xor	 dl, -21			; ffffffebH
  00089	88 55 f2	 mov	 BYTE PTR __t$[ebp+6], dl
  0008c	8a 50 07	 mov	 dl, BYTE PTR [eax+7]
  0008f	84 d2		 test	 dl, dl
  00091	0f 84 83 00 00
	00		 je	 $LN89@SetTitle_e@2
  00097	80 f2 ea	 xor	 dl, -22			; ffffffeaH
  0009a	88 55 f3	 mov	 BYTE PTR __t$[ebp+7], dl
  0009d	8a 50 08	 mov	 dl, BYTE PTR [eax+8]
  000a0	84 d2		 test	 dl, dl
  000a2	74 70		 je	 SHORT $LN88@SetTitle_e@2
  000a4	80 f2 ed	 xor	 dl, -19			; ffffffedH
  000a7	88 55 f4	 mov	 BYTE PTR __t$[ebp+8], dl
  000aa	8a 50 09	 mov	 dl, BYTE PTR [eax+9]
  000ad	84 d2		 test	 dl, dl
  000af	74 5d		 je	 SHORT $LN87@SetTitle_e@2
  000b1	80 f2 ec	 xor	 dl, -20			; ffffffecH
  000b4	80 78 0a 00	 cmp	 BYTE PTR [eax+10], 0
  000b8	88 55 f5	 mov	 BYTE PTR __t$[ebp+9], dl
  000bb	0f 84 87 00 00
	00		 je	 $LN1@SetTitle_e@2
  000c1	8a 50 0b	 mov	 dl, BYTE PTR [eax+11]
  000c4	84 d2		 test	 dl, dl
  000c6	74 40		 je	 SHORT $LN85@SetTitle_e@2
  000c8	80 f2 ea	 xor	 dl, -22			; ffffffeaH
  000cb	88 55 f7	 mov	 BYTE PTR __t$[ebp+11], dl
  000ce	8a 50 0c	 mov	 dl, BYTE PTR [eax+12]
  000d1	84 d2		 test	 dl, dl
  000d3	74 2d		 je	 SHORT $LN84@SetTitle_e@2
  000d5	80 f2 ed	 xor	 dl, -19			; ffffffedH
  000d8	88 55 f8	 mov	 BYTE PTR __t$[ebp+12], dl
  000db	8a 50 0d	 mov	 dl, BYTE PTR [eax+13]
  000de	84 d2		 test	 dl, dl
  000e0	74 1a		 je	 SHORT $LN83@SetTitle_e@2
  000e2	8a 40 0e	 mov	 al, BYTE PTR [eax+14]
  000e5	80 f2 ec	 xor	 dl, -20			; ffffffecH
  000e8	88 55 f9	 mov	 BYTE PTR __t$[ebp+13], dl
  000eb	84 c0		 test	 al, al
  000ed	74 07		 je	 SHORT $LN82@SetTitle_e@2
  000ef	34 eb		 xor	 al, -21			; ffffffebH
  000f1	88 45 fa	 mov	 BYTE PTR __t$[ebp+14], al
  000f4	eb 52		 jmp	 SHORT $LN1@SetTitle_e@2
$LN82@SetTitle_e@2:
  000f6	c6 45 fa eb	 mov	 BYTE PTR __t$[ebp+14], -21 ; ffffffebH
  000fa	eb 4c		 jmp	 SHORT $LN1@SetTitle_e@2
$LN83@SetTitle_e@2:
  000fc	c6 45 f9 ec	 mov	 BYTE PTR __t$[ebp+13], -20 ; ffffffecH
  00100	eb 46		 jmp	 SHORT $LN1@SetTitle_e@2
$LN84@SetTitle_e@2:
  00102	c6 45 f8 ed	 mov	 BYTE PTR __t$[ebp+12], -19 ; ffffffedH
  00106	eb 40		 jmp	 SHORT $LN1@SetTitle_e@2
$LN85@SetTitle_e@2:
  00108	c6 45 f7 ea	 mov	 BYTE PTR __t$[ebp+11], -22 ; ffffffeaH
  0010c	eb 3a		 jmp	 SHORT $LN1@SetTitle_e@2
$LN87@SetTitle_e@2:
  0010e	c6 45 f5 ec	 mov	 BYTE PTR __t$[ebp+9], -20 ; ffffffecH
  00112	eb 34		 jmp	 SHORT $LN1@SetTitle_e@2
$LN88@SetTitle_e@2:
  00114	c6 45 f4 ed	 mov	 BYTE PTR __t$[ebp+8], -19 ; ffffffedH
  00118	eb 2e		 jmp	 SHORT $LN1@SetTitle_e@2
$LN89@SetTitle_e@2:
  0011a	c6 45 f3 ea	 mov	 BYTE PTR __t$[ebp+7], -22 ; ffffffeaH
  0011e	eb 28		 jmp	 SHORT $LN1@SetTitle_e@2
$LN90@SetTitle_e@2:
  00120	c6 45 f2 eb	 mov	 BYTE PTR __t$[ebp+6], -21 ; ffffffebH
  00124	eb 22		 jmp	 SHORT $LN1@SetTitle_e@2
$LN91@SetTitle_e@2:
  00126	c6 45 f1 ec	 mov	 BYTE PTR __t$[ebp+5], -20 ; ffffffecH
  0012a	eb 1c		 jmp	 SHORT $LN1@SetTitle_e@2
$LN92@SetTitle_e@2:
  0012c	c6 45 f0 ed	 mov	 BYTE PTR __t$[ebp+4], -19 ; ffffffedH
  00130	eb 16		 jmp	 SHORT $LN1@SetTitle_e@2
$LN93@SetTitle_e@2:
  00132	c6 45 ef ea	 mov	 BYTE PTR __t$[ebp+3], -22 ; ffffffeaH
  00136	eb 10		 jmp	 SHORT $LN1@SetTitle_e@2
$LN94@SetTitle_e@2:
  00138	c6 45 ee eb	 mov	 BYTE PTR __t$[ebp+2], -21 ; ffffffebH
  0013c	eb 0a		 jmp	 SHORT $LN1@SetTitle_e@2
$LN95@SetTitle_e@2:
  0013e	c6 45 ed ec	 mov	 BYTE PTR __t$[ebp+1], -20 ; ffffffecH
  00142	eb 04		 jmp	 SHORT $LN1@SetTitle_e@2
$LN96@SetTitle_e@2:
  00144	c6 45 ec ed	 mov	 BYTE PTR __t$[ebp], -19	; ffffffedH
$LN1@SetTitle_e@2:
  00148	6a 02		 push	 2
  0014a	8d 45 ec	 lea	 eax, DWORD PTR __t$[ebp]
  0014d	c6 45 f6 00	 mov	 BYTE PTR __t$[ebp+10], 0
  00151	5a		 pop	 edx
$LL104@SetTitle_e@2:
  00152	81 30 ed ec eb
	ea		 xor	 DWORD PTR [eax], -353637139 ; eaebecedH
  00158	83 c0 04	 add	 eax, 4
  0015b	4a		 dec	 edx
  0015c	75 f4		 jne	 SHORT $LL104@SetTitle_e@2
  0015e	6a 08		 push	 8
  00160	58		 pop	 eax
$LL101@SetTitle_e@2:
  00161	8b c8		 mov	 ecx, eax
  00163	81 e1 03 00 00
	80		 and	 ecx, -2147483645	; 80000003H
  00169	79 05		 jns	 SHORT $LN111@SetTitle_e@2
  0016b	49		 dec	 ecx
  0016c	83 c9 fc	 or	 ecx, -4			; fffffffcH
  0016f	41		 inc	 ecx
$LN111@SetTitle_e@2:
  00170	b2 ed		 mov	 dl, -19			; ffffffedH
  00172	2a d1		 sub	 dl, cl
  00174	30 54 05 ec	 xor	 BYTE PTR __t$[ebp+eax], dl
  00178	40		 inc	 eax
  00179	83 f8 0a	 cmp	 eax, 10			; 0000000aH
  0017c	7c e3		 jl	 SHORT $LL101@SetTitle_e@2

; 190  : 		SetTitle(_t);

  0017e	8d 45 ec	 lea	 eax, DWORD PTR __t$[ebp]
  00181	50		 push	 eax
  00182	8b ce		 mov	 ecx, esi
  00184	ff 15 00 00 00
	00		 call	 DWORD PTR __imp_?SetTitle@ioINILoader@@QAEXPBD@Z

; 191  : 	}

  0018a	8b 4d fc	 mov	 ecx, DWORD PTR __$ArrayPad$[ebp]
  0018d	33 cd		 xor	 ecx, ebp
  0018f	5e		 pop	 esi
  00190	e8 00 00 00 00	 call	 @__security_check_cookie@4
  00195	c9		 leave
  00196	c2 04 00	 ret	 4
??$SetTitle_e@$0L@@ioINILoader@@QAEXAAY0L@$$CBD@Z ENDP	; ioINILoader::SetTitle_e<11>
_TEXT	ENDS
PUBLIC	__$ArrayPad$
PUBLIC	??$LoadInt_e@$0BG@@ioINILoader@@QAEHAAY0BG@$$CBDH@Z ; ioINILoader::LoadInt_e<22>
; Function compile flags: /Ogsp
;	COMDAT ??$LoadInt_e@$0BG@@ioINILoader@@QAEHAAY0BG@$$CBDH@Z
_TEXT	SEGMENT
__k$ = -32						; size = 22
__$ArrayPad$ = -4					; size = 4
_k$ = 8							; size = 4
_i$ = 12						; size = 4
??$LoadInt_e@$0BG@@ioINILoader@@QAEHAAY0BG@$$CBDH@Z PROC ; ioINILoader::LoadInt_e<22>, COMDAT
; _this$ = ecx

; 118  : 	{

  00000	55		 push	 ebp
  00001	8b ec		 mov	 ebp, esp
  00003	83 ec 20	 sub	 esp, 32			; 00000020H
  00006	a1 00 00 00 00	 mov	 eax, DWORD PTR ___security_cookie
  0000b	33 c5		 xor	 eax, ebp
  0000d	89 45 fc	 mov	 DWORD PTR __$ArrayPad$[ebp], eax
  00010	8b 45 08	 mov	 eax, DWORD PTR _k$[ebp]

; 119  : 		_ENCSTR(k, _k);

  00013	8a 10		 mov	 dl, BYTE PTR [eax]
  00015	53		 push	 ebx
  00016	56		 push	 esi
  00017	8b f1		 mov	 esi, ecx
  00019	84 d2		 test	 dl, dl
  0001b	0f 84 15 02 00
	00		 je	 $LN96@LoadInt_e@6
  00021	80 f2 ed	 xor	 dl, -19			; ffffffedH
  00024	88 55 e0	 mov	 BYTE PTR __k$[ebp], dl
  00027	8a 50 01	 mov	 dl, BYTE PTR [eax+1]
  0002a	84 d2		 test	 dl, dl
  0002c	0f 84 fe 01 00
	00		 je	 $LN95@LoadInt_e@6
  00032	80 f2 ec	 xor	 dl, -20			; ffffffecH
  00035	88 55 e1	 mov	 BYTE PTR __k$[ebp+1], dl
  00038	8a 50 02	 mov	 dl, BYTE PTR [eax+2]
  0003b	84 d2		 test	 dl, dl
  0003d	0f 84 e7 01 00
	00		 je	 $LN94@LoadInt_e@6
  00043	b1 eb		 mov	 cl, -21			; ffffffebH
  00045	32 d1		 xor	 dl, cl
  00047	88 55 e2	 mov	 BYTE PTR __k$[ebp+2], dl
  0004a	8a 50 03	 mov	 dl, BYTE PTR [eax+3]
  0004d	84 d2		 test	 dl, dl
  0004f	0f 84 cf 01 00
	00		 je	 $LN93@LoadInt_e@6
  00055	b3 ea		 mov	 bl, -22			; ffffffeaH
  00057	32 d3		 xor	 dl, bl
  00059	88 55 e3	 mov	 BYTE PTR __k$[ebp+3], dl
  0005c	8a 50 04	 mov	 dl, BYTE PTR [eax+4]
  0005f	84 d2		 test	 dl, dl
  00061	0f 84 b7 01 00
	00		 je	 $LN92@LoadInt_e@6
  00067	80 f2 ed	 xor	 dl, -19			; ffffffedH
  0006a	88 55 e4	 mov	 BYTE PTR __k$[ebp+4], dl
  0006d	8a 50 05	 mov	 dl, BYTE PTR [eax+5]
  00070	84 d2		 test	 dl, dl
  00072	0f 84 a0 01 00
	00		 je	 $LN91@LoadInt_e@6
  00078	80 f2 ec	 xor	 dl, -20			; ffffffecH
  0007b	88 55 e5	 mov	 BYTE PTR __k$[ebp+5], dl
  0007e	8a 50 06	 mov	 dl, BYTE PTR [eax+6]
  00081	84 d2		 test	 dl, dl
  00083	0f 84 8a 01 00
	00		 je	 $LN90@LoadInt_e@6
  00089	32 d1		 xor	 dl, cl
  0008b	88 55 e6	 mov	 BYTE PTR __k$[ebp+6], dl
  0008e	8a 50 07	 mov	 dl, BYTE PTR [eax+7]
  00091	84 d2		 test	 dl, dl
  00093	0f 84 75 01 00
	00		 je	 $LN89@LoadInt_e@6
  00099	32 d3		 xor	 dl, bl
  0009b	88 55 e7	 mov	 BYTE PTR __k$[ebp+7], dl
  0009e	8a 50 08	 mov	 dl, BYTE PTR [eax+8]
  000a1	84 d2		 test	 dl, dl
  000a3	0f 84 5f 01 00
	00		 je	 $LN88@LoadInt_e@6
  000a9	80 f2 ed	 xor	 dl, -19			; ffffffedH
  000ac	88 55 e8	 mov	 BYTE PTR __k$[ebp+8], dl
  000af	8a 50 09	 mov	 dl, BYTE PTR [eax+9]
  000b2	84 d2		 test	 dl, dl
  000b4	0f 84 48 01 00
	00		 je	 $LN87@LoadInt_e@6
  000ba	80 f2 ec	 xor	 dl, -20			; ffffffecH
  000bd	88 55 e9	 mov	 BYTE PTR __k$[ebp+9], dl
  000c0	8a 50 0a	 mov	 dl, BYTE PTR [eax+10]
  000c3	84 d2		 test	 dl, dl
  000c5	0f 84 32 01 00
	00		 je	 $LN86@LoadInt_e@6
  000cb	32 d1		 xor	 dl, cl
  000cd	88 55 ea	 mov	 BYTE PTR __k$[ebp+10], dl
  000d0	8a 50 0b	 mov	 dl, BYTE PTR [eax+11]
  000d3	84 d2		 test	 dl, dl
  000d5	0f 84 1d 01 00
	00		 je	 $LN85@LoadInt_e@6
  000db	32 d3		 xor	 dl, bl
  000dd	88 55 eb	 mov	 BYTE PTR __k$[ebp+11], dl
  000e0	8a 50 0c	 mov	 dl, BYTE PTR [eax+12]
  000e3	84 d2		 test	 dl, dl
  000e5	0f 84 07 01 00
	00		 je	 $LN84@LoadInt_e@6
  000eb	80 f2 ed	 xor	 dl, -19			; ffffffedH
  000ee	88 55 ec	 mov	 BYTE PTR __k$[ebp+12], dl
  000f1	8a 50 0d	 mov	 dl, BYTE PTR [eax+13]
  000f4	84 d2		 test	 dl, dl
  000f6	0f 84 f0 00 00
	00		 je	 $LN83@LoadInt_e@6
  000fc	80 f2 ec	 xor	 dl, -20			; ffffffecH
  000ff	88 55 ed	 mov	 BYTE PTR __k$[ebp+13], dl
  00102	8a 50 0e	 mov	 dl, BYTE PTR [eax+14]
  00105	84 d2		 test	 dl, dl
  00107	0f 84 da 00 00
	00		 je	 $LN82@LoadInt_e@6
  0010d	32 d1		 xor	 dl, cl
  0010f	88 55 ee	 mov	 BYTE PTR __k$[ebp+14], dl
  00112	8a 50 0f	 mov	 dl, BYTE PTR [eax+15]
  00115	84 d2		 test	 dl, dl
  00117	0f 84 c5 00 00
	00		 je	 $LN81@LoadInt_e@6
  0011d	32 d3		 xor	 dl, bl
  0011f	88 55 ef	 mov	 BYTE PTR __k$[ebp+15], dl
  00122	8a 50 10	 mov	 dl, BYTE PTR [eax+16]
  00125	84 d2		 test	 dl, dl
  00127	0f 84 af 00 00
	00		 je	 $LN80@LoadInt_e@6
  0012d	80 f2 ed	 xor	 dl, -19			; ffffffedH
  00130	88 55 f0	 mov	 BYTE PTR __k$[ebp+16], dl
  00133	8a 50 11	 mov	 dl, BYTE PTR [eax+17]
  00136	84 d2		 test	 dl, dl
  00138	0f 84 98 00 00
	00		 je	 $LN79@LoadInt_e@6
  0013e	80 f2 ec	 xor	 dl, -20			; ffffffecH
  00141	88 55 f1	 mov	 BYTE PTR __k$[ebp+17], dl
  00144	8a 50 12	 mov	 dl, BYTE PTR [eax+18]
  00147	84 d2		 test	 dl, dl
  00149	0f 84 82 00 00
	00		 je	 $LN78@LoadInt_e@6
  0014f	32 d1		 xor	 dl, cl
  00151	88 55 f2	 mov	 BYTE PTR __k$[ebp+18], dl
  00154	8a 50 13	 mov	 dl, BYTE PTR [eax+19]
  00157	84 d2		 test	 dl, dl
  00159	74 71		 je	 SHORT $LN77@LoadInt_e@6
  0015b	32 d3		 xor	 dl, bl
  0015d	88 55 f3	 mov	 BYTE PTR __k$[ebp+19], dl
  00160	8a 50 14	 mov	 dl, BYTE PTR [eax+20]
  00163	84 d2		 test	 dl, dl
  00165	74 5f		 je	 SHORT $LN76@LoadInt_e@6
  00167	80 f2 ed	 xor	 dl, -19			; ffffffedH
  0016a	80 78 15 00	 cmp	 BYTE PTR [eax+21], 0
  0016e	88 55 f4	 mov	 BYTE PTR __k$[ebp+20], dl
  00171	0f 84 c3 00 00
	00		 je	 $LN1@LoadInt_e@6
  00177	8a 50 16	 mov	 dl, BYTE PTR [eax+22]
  0017a	84 d2		 test	 dl, dl
  0017c	74 43		 je	 SHORT $LN74@LoadInt_e@6
  0017e	32 d1		 xor	 dl, cl
  00180	88 55 f6	 mov	 BYTE PTR __k$[ebp+22], dl
  00183	8a 50 17	 mov	 dl, BYTE PTR [eax+23]
  00186	84 d2		 test	 dl, dl
  00188	74 32		 je	 SHORT $LN73@LoadInt_e@6
  0018a	32 d3		 xor	 dl, bl
  0018c	88 55 f7	 mov	 BYTE PTR __k$[ebp+23], dl
  0018f	8a 50 18	 mov	 dl, BYTE PTR [eax+24]
  00192	84 d2		 test	 dl, dl
  00194	74 20		 je	 SHORT $LN72@LoadInt_e@6
  00196	8a 40 19	 mov	 al, BYTE PTR [eax+25]
  00199	80 f2 ed	 xor	 dl, -19			; ffffffedH
  0019c	88 55 f8	 mov	 BYTE PTR __k$[ebp+24], dl
  0019f	84 c0		 test	 al, al
  001a1	74 0a		 je	 SHORT $LN71@LoadInt_e@6
  001a3	34 ec		 xor	 al, -20			; ffffffecH
  001a5	88 45 f9	 mov	 BYTE PTR __k$[ebp+25], al
  001a8	e9 8d 00 00 00	 jmp	 $LN1@LoadInt_e@6
$LN71@LoadInt_e@6:
  001ad	c6 45 f9 ec	 mov	 BYTE PTR __k$[ebp+25], -20 ; ffffffecH
  001b1	e9 84 00 00 00	 jmp	 $LN1@LoadInt_e@6
$LN72@LoadInt_e@6:
  001b6	c6 45 f8 ed	 mov	 BYTE PTR __k$[ebp+24], -19 ; ffffffedH
  001ba	eb 7e		 jmp	 SHORT $LN1@LoadInt_e@6
$LN73@LoadInt_e@6:
  001bc	88 5d f7	 mov	 BYTE PTR __k$[ebp+23], bl
  001bf	eb 79		 jmp	 SHORT $LN1@LoadInt_e@6
$LN74@LoadInt_e@6:
  001c1	88 4d f6	 mov	 BYTE PTR __k$[ebp+22], cl
  001c4	eb 74		 jmp	 SHORT $LN1@LoadInt_e@6
$LN76@LoadInt_e@6:
  001c6	c6 45 f4 ed	 mov	 BYTE PTR __k$[ebp+20], -19 ; ffffffedH
  001ca	eb 6e		 jmp	 SHORT $LN1@LoadInt_e@6
$LN77@LoadInt_e@6:
  001cc	88 5d f3	 mov	 BYTE PTR __k$[ebp+19], bl
  001cf	eb 69		 jmp	 SHORT $LN1@LoadInt_e@6
$LN78@LoadInt_e@6:
  001d1	88 4d f2	 mov	 BYTE PTR __k$[ebp+18], cl
  001d4	eb 64		 jmp	 SHORT $LN1@LoadInt_e@6
$LN79@LoadInt_e@6:
  001d6	c6 45 f1 ec	 mov	 BYTE PTR __k$[ebp+17], -20 ; ffffffecH
  001da	eb 5e		 jmp	 SHORT $LN1@LoadInt_e@6
$LN80@LoadInt_e@6:
  001dc	c6 45 f0 ed	 mov	 BYTE PTR __k$[ebp+16], -19 ; ffffffedH
  001e0	eb 58		 jmp	 SHORT $LN1@LoadInt_e@6
$LN81@LoadInt_e@6:
  001e2	88 5d ef	 mov	 BYTE PTR __k$[ebp+15], bl
  001e5	eb 53		 jmp	 SHORT $LN1@LoadInt_e@6
$LN82@LoadInt_e@6:
  001e7	88 4d ee	 mov	 BYTE PTR __k$[ebp+14], cl
  001ea	eb 4e		 jmp	 SHORT $LN1@LoadInt_e@6
$LN83@LoadInt_e@6:
  001ec	c6 45 ed ec	 mov	 BYTE PTR __k$[ebp+13], -20 ; ffffffecH
  001f0	eb 48		 jmp	 SHORT $LN1@LoadInt_e@6
$LN84@LoadInt_e@6:
  001f2	c6 45 ec ed	 mov	 BYTE PTR __k$[ebp+12], -19 ; ffffffedH
  001f6	eb 42		 jmp	 SHORT $LN1@LoadInt_e@6
$LN85@LoadInt_e@6:
  001f8	88 5d eb	 mov	 BYTE PTR __k$[ebp+11], bl
  001fb	eb 3d		 jmp	 SHORT $LN1@LoadInt_e@6
$LN86@LoadInt_e@6:
  001fd	88 4d ea	 mov	 BYTE PTR __k$[ebp+10], cl
  00200	eb 38		 jmp	 SHORT $LN1@LoadInt_e@6
$LN87@LoadInt_e@6:
  00202	c6 45 e9 ec	 mov	 BYTE PTR __k$[ebp+9], -20 ; ffffffecH
  00206	eb 32		 jmp	 SHORT $LN1@LoadInt_e@6
$LN88@LoadInt_e@6:
  00208	c6 45 e8 ed	 mov	 BYTE PTR __k$[ebp+8], -19 ; ffffffedH
  0020c	eb 2c		 jmp	 SHORT $LN1@LoadInt_e@6
$LN89@LoadInt_e@6:
  0020e	88 5d e7	 mov	 BYTE PTR __k$[ebp+7], bl
  00211	eb 27		 jmp	 SHORT $LN1@LoadInt_e@6
$LN90@LoadInt_e@6:
  00213	88 4d e6	 mov	 BYTE PTR __k$[ebp+6], cl
  00216	eb 22		 jmp	 SHORT $LN1@LoadInt_e@6
$LN91@LoadInt_e@6:
  00218	c6 45 e5 ec	 mov	 BYTE PTR __k$[ebp+5], -20 ; ffffffecH
  0021c	eb 1c		 jmp	 SHORT $LN1@LoadInt_e@6
$LN92@LoadInt_e@6:
  0021e	c6 45 e4 ed	 mov	 BYTE PTR __k$[ebp+4], -19 ; ffffffedH
  00222	eb 16		 jmp	 SHORT $LN1@LoadInt_e@6
$LN93@LoadInt_e@6:
  00224	c6 45 e3 ea	 mov	 BYTE PTR __k$[ebp+3], -22 ; ffffffeaH
  00228	eb 10		 jmp	 SHORT $LN1@LoadInt_e@6
$LN94@LoadInt_e@6:
  0022a	c6 45 e2 eb	 mov	 BYTE PTR __k$[ebp+2], -21 ; ffffffebH
  0022e	eb 0a		 jmp	 SHORT $LN1@LoadInt_e@6
$LN95@LoadInt_e@6:
  00230	c6 45 e1 ec	 mov	 BYTE PTR __k$[ebp+1], -20 ; ffffffecH
  00234	eb 04		 jmp	 SHORT $LN1@LoadInt_e@6
$LN96@LoadInt_e@6:
  00236	c6 45 e0 ed	 mov	 BYTE PTR __k$[ebp], -19	; ffffffedH
$LN1@LoadInt_e@6:
  0023a	6a 05		 push	 5
  0023c	8d 45 e0	 lea	 eax, DWORD PTR __k$[ebp]
  0023f	c6 45 f5 00	 mov	 BYTE PTR __k$[ebp+21], 0
  00243	5a		 pop	 edx
$LL104@LoadInt_e@6:
  00244	81 30 ed ec eb
	ea		 xor	 DWORD PTR [eax], -353637139 ; eaebecedH
  0024a	83 c0 04	 add	 eax, 4
  0024d	4a		 dec	 edx
  0024e	75 f4		 jne	 SHORT $LL104@LoadInt_e@6

; 120  : 		return LoadInt(_k, i);

  00250	ff 75 0c	 push	 DWORD PTR _i$[ebp]
  00253	80 75 f4 ed	 xor	 BYTE PTR __k$[ebp+20], -19 ; ffffffedH
  00257	8d 45 e0	 lea	 eax, DWORD PTR __k$[ebp]
  0025a	50		 push	 eax
  0025b	8b ce		 mov	 ecx, esi
  0025d	ff 15 00 00 00
	00		 call	 DWORD PTR __imp_?LoadInt@ioINILoader@@QAEHPBDH@Z

; 121  : 	}

  00263	8b 4d fc	 mov	 ecx, DWORD PTR __$ArrayPad$[ebp]
  00266	5e		 pop	 esi
  00267	33 cd		 xor	 ecx, ebp
  00269	5b		 pop	 ebx
  0026a	e8 00 00 00 00	 call	 @__security_check_cookie@4
  0026f	c9		 leave
  00270	c2 08 00	 ret	 8
??$LoadInt_e@$0BG@@ioINILoader@@QAEHAAY0BG@$$CBDH@Z ENDP ; ioINILoader::LoadInt_e<22>
_TEXT	ENDS
PUBLIC	__$ArrayPad$
PUBLIC	??$LoadInt_e@$0L@@ioINILoader@@QAEHAAY0L@$$CBDH@Z ; ioINILoader::LoadInt_e<11>
; Function compile flags: /Ogsp
;	COMDAT ??$LoadInt_e@$0L@@ioINILoader@@QAEHAAY0L@$$CBDH@Z
_TEXT	SEGMENT
__k$ = -20						; size = 11
__$ArrayPad$ = -4					; size = 4
_k$ = 8							; size = 4
_i$ = 12						; size = 4
??$LoadInt_e@$0L@@ioINILoader@@QAEHAAY0L@$$CBDH@Z PROC	; ioINILoader::LoadInt_e<11>, COMDAT
; _this$ = ecx

; 118  : 	{

  00000	55		 push	 ebp
  00001	8b ec		 mov	 ebp, esp
  00003	83 ec 14	 sub	 esp, 20			; 00000014H
  00006	a1 00 00 00 00	 mov	 eax, DWORD PTR ___security_cookie
  0000b	33 c5		 xor	 eax, ebp
  0000d	89 45 fc	 mov	 DWORD PTR __$ArrayPad$[ebp], eax
  00010	8b 45 08	 mov	 eax, DWORD PTR _k$[ebp]

; 119  : 		_ENCSTR(k, _k);

  00013	8a 10		 mov	 dl, BYTE PTR [eax]
  00015	56		 push	 esi
  00016	8b f1		 mov	 esi, ecx
  00018	84 d2		 test	 dl, dl
  0001a	0f 84 24 01 00
	00		 je	 $LN96@LoadInt_e@7
  00020	80 f2 ed	 xor	 dl, -19			; ffffffedH
  00023	88 55 ec	 mov	 BYTE PTR __k$[ebp], dl
  00026	8a 50 01	 mov	 dl, BYTE PTR [eax+1]
  00029	84 d2		 test	 dl, dl
  0002b	0f 84 0d 01 00
	00		 je	 $LN95@LoadInt_e@7
  00031	80 f2 ec	 xor	 dl, -20			; ffffffecH
  00034	88 55 ed	 mov	 BYTE PTR __k$[ebp+1], dl
  00037	8a 50 02	 mov	 dl, BYTE PTR [eax+2]
  0003a	84 d2		 test	 dl, dl
  0003c	0f 84 f6 00 00
	00		 je	 $LN94@LoadInt_e@7
  00042	80 f2 eb	 xor	 dl, -21			; ffffffebH
  00045	88 55 ee	 mov	 BYTE PTR __k$[ebp+2], dl
  00048	8a 50 03	 mov	 dl, BYTE PTR [eax+3]
  0004b	84 d2		 test	 dl, dl
  0004d	0f 84 df 00 00
	00		 je	 $LN93@LoadInt_e@7
  00053	80 f2 ea	 xor	 dl, -22			; ffffffeaH
  00056	88 55 ef	 mov	 BYTE PTR __k$[ebp+3], dl
  00059	8a 50 04	 mov	 dl, BYTE PTR [eax+4]
  0005c	84 d2		 test	 dl, dl
  0005e	0f 84 c8 00 00
	00		 je	 $LN92@LoadInt_e@7
  00064	80 f2 ed	 xor	 dl, -19			; ffffffedH
  00067	88 55 f0	 mov	 BYTE PTR __k$[ebp+4], dl
  0006a	8a 50 05	 mov	 dl, BYTE PTR [eax+5]
  0006d	84 d2		 test	 dl, dl
  0006f	0f 84 b1 00 00
	00		 je	 $LN91@LoadInt_e@7
  00075	80 f2 ec	 xor	 dl, -20			; ffffffecH
  00078	88 55 f1	 mov	 BYTE PTR __k$[ebp+5], dl
  0007b	8a 50 06	 mov	 dl, BYTE PTR [eax+6]
  0007e	84 d2		 test	 dl, dl
  00080	0f 84 9a 00 00
	00		 je	 $LN90@LoadInt_e@7
  00086	80 f2 eb	 xor	 dl, -21			; ffffffebH
  00089	88 55 f2	 mov	 BYTE PTR __k$[ebp+6], dl
  0008c	8a 50 07	 mov	 dl, BYTE PTR [eax+7]
  0008f	84 d2		 test	 dl, dl
  00091	0f 84 83 00 00
	00		 je	 $LN89@LoadInt_e@7
  00097	80 f2 ea	 xor	 dl, -22			; ffffffeaH
  0009a	88 55 f3	 mov	 BYTE PTR __k$[ebp+7], dl
  0009d	8a 50 08	 mov	 dl, BYTE PTR [eax+8]
  000a0	84 d2		 test	 dl, dl
  000a2	74 70		 je	 SHORT $LN88@LoadInt_e@7
  000a4	80 f2 ed	 xor	 dl, -19			; ffffffedH
  000a7	88 55 f4	 mov	 BYTE PTR __k$[ebp+8], dl
  000aa	8a 50 09	 mov	 dl, BYTE PTR [eax+9]
  000ad	84 d2		 test	 dl, dl
  000af	74 5d		 je	 SHORT $LN87@LoadInt_e@7
  000b1	80 f2 ec	 xor	 dl, -20			; ffffffecH
  000b4	80 78 0a 00	 cmp	 BYTE PTR [eax+10], 0
  000b8	88 55 f5	 mov	 BYTE PTR __k$[ebp+9], dl
  000bb	0f 84 87 00 00
	00		 je	 $LN1@LoadInt_e@7
  000c1	8a 50 0b	 mov	 dl, BYTE PTR [eax+11]
  000c4	84 d2		 test	 dl, dl
  000c6	74 40		 je	 SHORT $LN85@LoadInt_e@7
  000c8	80 f2 ea	 xor	 dl, -22			; ffffffeaH
  000cb	88 55 f7	 mov	 BYTE PTR __k$[ebp+11], dl
  000ce	8a 50 0c	 mov	 dl, BYTE PTR [eax+12]
  000d1	84 d2		 test	 dl, dl
  000d3	74 2d		 je	 SHORT $LN84@LoadInt_e@7
  000d5	80 f2 ed	 xor	 dl, -19			; ffffffedH
  000d8	88 55 f8	 mov	 BYTE PTR __k$[ebp+12], dl
  000db	8a 50 0d	 mov	 dl, BYTE PTR [eax+13]
  000de	84 d2		 test	 dl, dl
  000e0	74 1a		 je	 SHORT $LN83@LoadInt_e@7
  000e2	8a 40 0e	 mov	 al, BYTE PTR [eax+14]
  000e5	80 f2 ec	 xor	 dl, -20			; ffffffecH
  000e8	88 55 f9	 mov	 BYTE PTR __k$[ebp+13], dl
  000eb	84 c0		 test	 al, al
  000ed	74 07		 je	 SHORT $LN82@LoadInt_e@7
  000ef	34 eb		 xor	 al, -21			; ffffffebH
  000f1	88 45 fa	 mov	 BYTE PTR __k$[ebp+14], al
  000f4	eb 52		 jmp	 SHORT $LN1@LoadInt_e@7
$LN82@LoadInt_e@7:
  000f6	c6 45 fa eb	 mov	 BYTE PTR __k$[ebp+14], -21 ; ffffffebH
  000fa	eb 4c		 jmp	 SHORT $LN1@LoadInt_e@7
$LN83@LoadInt_e@7:
  000fc	c6 45 f9 ec	 mov	 BYTE PTR __k$[ebp+13], -20 ; ffffffecH
  00100	eb 46		 jmp	 SHORT $LN1@LoadInt_e@7
$LN84@LoadInt_e@7:
  00102	c6 45 f8 ed	 mov	 BYTE PTR __k$[ebp+12], -19 ; ffffffedH
  00106	eb 40		 jmp	 SHORT $LN1@LoadInt_e@7
$LN85@LoadInt_e@7:
  00108	c6 45 f7 ea	 mov	 BYTE PTR __k$[ebp+11], -22 ; ffffffeaH
  0010c	eb 3a		 jmp	 SHORT $LN1@LoadInt_e@7
$LN87@LoadInt_e@7:
  0010e	c6 45 f5 ec	 mov	 BYTE PTR __k$[ebp+9], -20 ; ffffffecH
  00112	eb 34		 jmp	 SHORT $LN1@LoadInt_e@7
$LN88@LoadInt_e@7:
  00114	c6 45 f4 ed	 mov	 BYTE PTR __k$[ebp+8], -19 ; ffffffedH
  00118	eb 2e		 jmp	 SHORT $LN1@LoadInt_e@7
$LN89@LoadInt_e@7:
  0011a	c6 45 f3 ea	 mov	 BYTE PTR __k$[ebp+7], -22 ; ffffffeaH
  0011e	eb 28		 jmp	 SHORT $LN1@LoadInt_e@7
$LN90@LoadInt_e@7:
  00120	c6 45 f2 eb	 mov	 BYTE PTR __k$[ebp+6], -21 ; ffffffebH
  00124	eb 22		 jmp	 SHORT $LN1@LoadInt_e@7
$LN91@LoadInt_e@7:
  00126	c6 45 f1 ec	 mov	 BYTE PTR __k$[ebp+5], -20 ; ffffffecH
  0012a	eb 1c		 jmp	 SHORT $LN1@LoadInt_e@7
$LN92@LoadInt_e@7:
  0012c	c6 45 f0 ed	 mov	 BYTE PTR __k$[ebp+4], -19 ; ffffffedH
  00130	eb 16		 jmp	 SHORT $LN1@LoadInt_e@7
$LN93@LoadInt_e@7:
  00132	c6 45 ef ea	 mov	 BYTE PTR __k$[ebp+3], -22 ; ffffffeaH
  00136	eb 10		 jmp	 SHORT $LN1@LoadInt_e@7
$LN94@LoadInt_e@7:
  00138	c6 45 ee eb	 mov	 BYTE PTR __k$[ebp+2], -21 ; ffffffebH
  0013c	eb 0a		 jmp	 SHORT $LN1@LoadInt_e@7
$LN95@LoadInt_e@7:
  0013e	c6 45 ed ec	 mov	 BYTE PTR __k$[ebp+1], -20 ; ffffffecH
  00142	eb 04		 jmp	 SHORT $LN1@LoadInt_e@7
$LN96@LoadInt_e@7:
  00144	c6 45 ec ed	 mov	 BYTE PTR __k$[ebp], -19	; ffffffedH
$LN1@LoadInt_e@7:
  00148	6a 02		 push	 2
  0014a	8d 45 ec	 lea	 eax, DWORD PTR __k$[ebp]
  0014d	c6 45 f6 00	 mov	 BYTE PTR __k$[ebp+10], 0
  00151	5a		 pop	 edx
$LL104@LoadInt_e@7:
  00152	81 30 ed ec eb
	ea		 xor	 DWORD PTR [eax], -353637139 ; eaebecedH
  00158	83 c0 04	 add	 eax, 4
  0015b	4a		 dec	 edx
  0015c	75 f4		 jne	 SHORT $LL104@LoadInt_e@7
  0015e	6a 08		 push	 8
  00160	58		 pop	 eax
$LL101@LoadInt_e@7:
  00161	8b c8		 mov	 ecx, eax
  00163	81 e1 03 00 00
	80		 and	 ecx, -2147483645	; 80000003H
  00169	79 05		 jns	 SHORT $LN111@LoadInt_e@7
  0016b	49		 dec	 ecx
  0016c	83 c9 fc	 or	 ecx, -4			; fffffffcH
  0016f	41		 inc	 ecx
$LN111@LoadInt_e@7:
  00170	b2 ed		 mov	 dl, -19			; ffffffedH
  00172	2a d1		 sub	 dl, cl
  00174	30 54 05 ec	 xor	 BYTE PTR __k$[ebp+eax], dl
  00178	40		 inc	 eax
  00179	83 f8 0a	 cmp	 eax, 10			; 0000000aH
  0017c	7c e3		 jl	 SHORT $LL101@LoadInt_e@7

; 120  : 		return LoadInt(_k, i);

  0017e	ff 75 0c	 push	 DWORD PTR _i$[ebp]
  00181	8d 45 ec	 lea	 eax, DWORD PTR __k$[ebp]
  00184	50		 push	 eax
  00185	8b ce		 mov	 ecx, esi
  00187	ff 15 00 00 00
	00		 call	 DWORD PTR __imp_?LoadInt@ioINILoader@@QAEHPBDH@Z

; 121  : 	}

  0018d	8b 4d fc	 mov	 ecx, DWORD PTR __$ArrayPad$[ebp]
  00190	33 cd		 xor	 ecx, ebp
  00192	5e		 pop	 esi
  00193	e8 00 00 00 00	 call	 @__security_check_cookie@4
  00198	c9		 leave
  00199	c2 08 00	 ret	 8
??$LoadInt_e@$0L@@ioINILoader@@QAEHAAY0L@$$CBDH@Z ENDP	; ioINILoader::LoadInt_e<11>
_TEXT	ENDS
PUBLIC	__$ArrayPad$
PUBLIC	??$LoadInt_e@$0M@@ioINILoader@@QAEHAAY0M@$$CBDH@Z ; ioINILoader::LoadInt_e<12>
; Function compile flags: /Ogsp
;	COMDAT ??$LoadInt_e@$0M@@ioINILoader@@QAEHAAY0M@$$CBDH@Z
_TEXT	SEGMENT
__k$ = -20						; size = 12
__$ArrayPad$ = -4					; size = 4
_k$ = 8							; size = 4
_i$ = 12						; size = 4
??$LoadInt_e@$0M@@ioINILoader@@QAEHAAY0M@$$CBDH@Z PROC	; ioINILoader::LoadInt_e<12>, COMDAT
; _this$ = ecx

; 118  : 	{

  00000	55		 push	 ebp
  00001	8b ec		 mov	 ebp, esp
  00003	83 ec 14	 sub	 esp, 20			; 00000014H
  00006	a1 00 00 00 00	 mov	 eax, DWORD PTR ___security_cookie
  0000b	33 c5		 xor	 eax, ebp
  0000d	89 45 fc	 mov	 DWORD PTR __$ArrayPad$[ebp], eax
  00010	8b 45 08	 mov	 eax, DWORD PTR _k$[ebp]

; 119  : 		_ENCSTR(k, _k);

  00013	8a 10		 mov	 dl, BYTE PTR [eax]
  00015	56		 push	 esi
  00016	8b f1		 mov	 esi, ecx
  00018	84 d2		 test	 dl, dl
  0001a	0f 84 32 01 00
	00		 je	 $LN96@LoadInt_e@8
  00020	80 f2 ed	 xor	 dl, -19			; ffffffedH
  00023	88 55 ec	 mov	 BYTE PTR __k$[ebp], dl
  00026	8a 50 01	 mov	 dl, BYTE PTR [eax+1]
  00029	84 d2		 test	 dl, dl
  0002b	0f 84 1b 01 00
	00		 je	 $LN95@LoadInt_e@8
  00031	80 f2 ec	 xor	 dl, -20			; ffffffecH
  00034	88 55 ed	 mov	 BYTE PTR __k$[ebp+1], dl
  00037	8a 50 02	 mov	 dl, BYTE PTR [eax+2]
  0003a	84 d2		 test	 dl, dl
  0003c	0f 84 04 01 00
	00		 je	 $LN94@LoadInt_e@8
  00042	b1 eb		 mov	 cl, -21			; ffffffebH
  00044	32 d1		 xor	 dl, cl
  00046	88 55 ee	 mov	 BYTE PTR __k$[ebp+2], dl
  00049	8a 50 03	 mov	 dl, BYTE PTR [eax+3]
  0004c	84 d2		 test	 dl, dl
  0004e	0f 84 ec 00 00
	00		 je	 $LN93@LoadInt_e@8
  00054	80 f2 ea	 xor	 dl, -22			; ffffffeaH
  00057	88 55 ef	 mov	 BYTE PTR __k$[ebp+3], dl
  0005a	8a 50 04	 mov	 dl, BYTE PTR [eax+4]
  0005d	84 d2		 test	 dl, dl
  0005f	0f 84 d5 00 00
	00		 je	 $LN92@LoadInt_e@8
  00065	80 f2 ed	 xor	 dl, -19			; ffffffedH
  00068	88 55 f0	 mov	 BYTE PTR __k$[ebp+4], dl
  0006b	8a 50 05	 mov	 dl, BYTE PTR [eax+5]
  0006e	84 d2		 test	 dl, dl
  00070	0f 84 be 00 00
	00		 je	 $LN91@LoadInt_e@8
  00076	80 f2 ec	 xor	 dl, -20			; ffffffecH
  00079	88 55 f1	 mov	 BYTE PTR __k$[ebp+5], dl
  0007c	8a 50 06	 mov	 dl, BYTE PTR [eax+6]
  0007f	84 d2		 test	 dl, dl
  00081	0f 84 a8 00 00
	00		 je	 $LN90@LoadInt_e@8
  00087	32 d1		 xor	 dl, cl
  00089	88 55 f2	 mov	 BYTE PTR __k$[ebp+6], dl
  0008c	8a 50 07	 mov	 dl, BYTE PTR [eax+7]
  0008f	84 d2		 test	 dl, dl
  00091	0f 84 92 00 00
	00		 je	 $LN89@LoadInt_e@8
  00097	80 f2 ea	 xor	 dl, -22			; ffffffeaH
  0009a	88 55 f3	 mov	 BYTE PTR __k$[ebp+7], dl
  0009d	8a 50 08	 mov	 dl, BYTE PTR [eax+8]
  000a0	84 d2		 test	 dl, dl
  000a2	74 7f		 je	 SHORT $LN88@LoadInt_e@8
  000a4	80 f2 ed	 xor	 dl, -19			; ffffffedH
  000a7	88 55 f4	 mov	 BYTE PTR __k$[ebp+8], dl
  000aa	8a 50 09	 mov	 dl, BYTE PTR [eax+9]
  000ad	84 d2		 test	 dl, dl
  000af	74 6c		 je	 SHORT $LN87@LoadInt_e@8
  000b1	80 f2 ec	 xor	 dl, -20			; ffffffecH
  000b4	88 55 f5	 mov	 BYTE PTR __k$[ebp+9], dl
  000b7	8a 50 0a	 mov	 dl, BYTE PTR [eax+10]
  000ba	84 d2		 test	 dl, dl
  000bc	74 5a		 je	 SHORT $LN86@LoadInt_e@8
  000be	32 d1		 xor	 dl, cl
  000c0	80 78 0b 00	 cmp	 BYTE PTR [eax+11], 0
  000c4	88 55 f6	 mov	 BYTE PTR __k$[ebp+10], dl
  000c7	0f 84 89 00 00
	00		 je	 $LN1@LoadInt_e@8
  000cd	8a 50 0c	 mov	 dl, BYTE PTR [eax+12]
  000d0	84 d2		 test	 dl, dl
  000d2	74 3e		 je	 SHORT $LN84@LoadInt_e@8
  000d4	80 f2 ed	 xor	 dl, -19			; ffffffedH
  000d7	88 55 f8	 mov	 BYTE PTR __k$[ebp+12], dl
  000da	8a 50 0d	 mov	 dl, BYTE PTR [eax+13]
  000dd	84 d2		 test	 dl, dl
  000df	74 2b		 je	 SHORT $LN83@LoadInt_e@8
  000e1	80 f2 ec	 xor	 dl, -20			; ffffffecH
  000e4	88 55 f9	 mov	 BYTE PTR __k$[ebp+13], dl
  000e7	8a 50 0e	 mov	 dl, BYTE PTR [eax+14]
  000ea	84 d2		 test	 dl, dl
  000ec	74 19		 je	 SHORT $LN82@LoadInt_e@8
  000ee	8a 40 0f	 mov	 al, BYTE PTR [eax+15]
  000f1	32 d1		 xor	 dl, cl
  000f3	88 55 fa	 mov	 BYTE PTR __k$[ebp+14], dl
  000f6	84 c0		 test	 al, al
  000f8	74 07		 je	 SHORT $LN81@LoadInt_e@8
  000fa	34 ea		 xor	 al, -22			; ffffffeaH
  000fc	88 45 fb	 mov	 BYTE PTR __k$[ebp+15], al
  000ff	eb 55		 jmp	 SHORT $LN1@LoadInt_e@8
$LN81@LoadInt_e@8:
  00101	c6 45 fb ea	 mov	 BYTE PTR __k$[ebp+15], -22 ; ffffffeaH
  00105	eb 4f		 jmp	 SHORT $LN1@LoadInt_e@8
$LN82@LoadInt_e@8:
  00107	88 4d fa	 mov	 BYTE PTR __k$[ebp+14], cl
  0010a	eb 4a		 jmp	 SHORT $LN1@LoadInt_e@8
$LN83@LoadInt_e@8:
  0010c	c6 45 f9 ec	 mov	 BYTE PTR __k$[ebp+13], -20 ; ffffffecH
  00110	eb 44		 jmp	 SHORT $LN1@LoadInt_e@8
$LN84@LoadInt_e@8:
  00112	c6 45 f8 ed	 mov	 BYTE PTR __k$[ebp+12], -19 ; ffffffedH
  00116	eb 3e		 jmp	 SHORT $LN1@LoadInt_e@8
$LN86@LoadInt_e@8:
  00118	88 4d f6	 mov	 BYTE PTR __k$[ebp+10], cl
  0011b	eb 39		 jmp	 SHORT $LN1@LoadInt_e@8
$LN87@LoadInt_e@8:
  0011d	c6 45 f5 ec	 mov	 BYTE PTR __k$[ebp+9], -20 ; ffffffecH
  00121	eb 33		 jmp	 SHORT $LN1@LoadInt_e@8
$LN88@LoadInt_e@8:
  00123	c6 45 f4 ed	 mov	 BYTE PTR __k$[ebp+8], -19 ; ffffffedH
  00127	eb 2d		 jmp	 SHORT $LN1@LoadInt_e@8
$LN89@LoadInt_e@8:
  00129	c6 45 f3 ea	 mov	 BYTE PTR __k$[ebp+7], -22 ; ffffffeaH
  0012d	eb 27		 jmp	 SHORT $LN1@LoadInt_e@8
$LN90@LoadInt_e@8:
  0012f	88 4d f2	 mov	 BYTE PTR __k$[ebp+6], cl
  00132	eb 22		 jmp	 SHORT $LN1@LoadInt_e@8
$LN91@LoadInt_e@8:
  00134	c6 45 f1 ec	 mov	 BYTE PTR __k$[ebp+5], -20 ; ffffffecH
  00138	eb 1c		 jmp	 SHORT $LN1@LoadInt_e@8
$LN92@LoadInt_e@8:
  0013a	c6 45 f0 ed	 mov	 BYTE PTR __k$[ebp+4], -19 ; ffffffedH
  0013e	eb 16		 jmp	 SHORT $LN1@LoadInt_e@8
$LN93@LoadInt_e@8:
  00140	c6 45 ef ea	 mov	 BYTE PTR __k$[ebp+3], -22 ; ffffffeaH
  00144	eb 10		 jmp	 SHORT $LN1@LoadInt_e@8
$LN94@LoadInt_e@8:
  00146	c6 45 ee eb	 mov	 BYTE PTR __k$[ebp+2], -21 ; ffffffebH
  0014a	eb 0a		 jmp	 SHORT $LN1@LoadInt_e@8
$LN95@LoadInt_e@8:
  0014c	c6 45 ed ec	 mov	 BYTE PTR __k$[ebp+1], -20 ; ffffffecH
  00150	eb 04		 jmp	 SHORT $LN1@LoadInt_e@8
$LN96@LoadInt_e@8:
  00152	c6 45 ec ed	 mov	 BYTE PTR __k$[ebp], -19	; ffffffedH
$LN1@LoadInt_e@8:
  00156	6a 02		 push	 2
  00158	8d 45 ec	 lea	 eax, DWORD PTR __k$[ebp]
  0015b	c6 45 f7 00	 mov	 BYTE PTR __k$[ebp+11], 0
  0015f	5a		 pop	 edx
$LL104@LoadInt_e@8:
  00160	81 30 ed ec eb
	ea		 xor	 DWORD PTR [eax], -353637139 ; eaebecedH
  00166	83 c0 04	 add	 eax, 4
  00169	4a		 dec	 edx
  0016a	75 f4		 jne	 SHORT $LL104@LoadInt_e@8
  0016c	6a 08		 push	 8
  0016e	58		 pop	 eax
$LL101@LoadInt_e@8:
  0016f	8b c8		 mov	 ecx, eax
  00171	81 e1 03 00 00
	80		 and	 ecx, -2147483645	; 80000003H
  00177	79 05		 jns	 SHORT $LN111@LoadInt_e@8
  00179	49		 dec	 ecx
  0017a	83 c9 fc	 or	 ecx, -4			; fffffffcH
  0017d	41		 inc	 ecx
$LN111@LoadInt_e@8:
  0017e	b2 ed		 mov	 dl, -19			; ffffffedH
  00180	2a d1		 sub	 dl, cl
  00182	30 54 05 ec	 xor	 BYTE PTR __k$[ebp+eax], dl
  00186	40		 inc	 eax
  00187	83 f8 0b	 cmp	 eax, 11			; 0000000bH
  0018a	7c e3		 jl	 SHORT $LL101@LoadInt_e@8

; 120  : 		return LoadInt(_k, i);

  0018c	ff 75 0c	 push	 DWORD PTR _i$[ebp]
  0018f	8d 45 ec	 lea	 eax, DWORD PTR __k$[ebp]
  00192	50		 push	 eax
  00193	8b ce		 mov	 ecx, esi
  00195	ff 15 00 00 00
	00		 call	 DWORD PTR __imp_?LoadInt@ioINILoader@@QAEHPBDH@Z

; 121  : 	}

  0019b	8b 4d fc	 mov	 ecx, DWORD PTR __$ArrayPad$[ebp]
  0019e	33 cd		 xor	 ecx, ebp
  001a0	5e		 pop	 esi
  001a1	e8 00 00 00 00	 call	 @__security_check_cookie@4
  001a6	c9		 leave
  001a7	c2 08 00	 ret	 8
??$LoadInt_e@$0M@@ioINILoader@@QAEHAAY0M@$$CBDH@Z ENDP	; ioINILoader::LoadInt_e<12>
_TEXT	ENDS
PUBLIC	??$_Cons_val@V?$allocator@VioHashString@@@std@@VioHashString@@V3@@std@@YAXAAV?$allocator@VioHashString@@@0@PAVioHashString@@$$QAV2@@Z ; std::_Cons_val<std::allocator<ioHashString>,ioHashString,ioHashString>
; Function compile flags: /Ogsp
; File c:\program files (x86)\microsoft visual studio 10.0\vc\include\xmemory
;	COMDAT ??$_Cons_val@V?$allocator@VioHashString@@@std@@VioHashString@@V3@@std@@YAXAAV?$allocator@VioHashString@@@0@PAVioHashString@@$$QAV2@@Z
_TEXT	SEGMENT
__Alval$ = 8						; size = 4
__Pdest$ = 12						; size = 4
__Src$ = 16						; size = 4
??$_Cons_val@V?$allocator@VioHashString@@@std@@VioHashString@@V3@@std@@YAXAAV?$allocator@VioHashString@@@0@PAVioHashString@@$$QAV2@@Z PROC ; std::_Cons_val<std::allocator<ioHashString>,ioHashString,ioHashString>, COMDAT

; 279  : 	{	// construct using allocator

  00000	55		 push	 ebp
  00001	8b ec		 mov	 ebp, esp

; 280  : 	_Alval.construct(_Pdest, _STD forward<_Ty2>(_Src));

  00003	ff 75 10	 push	 DWORD PTR __Src$[ebp]
  00006	8b 4d 08	 mov	 ecx, DWORD PTR __Alval$[ebp]
  00009	ff 75 0c	 push	 DWORD PTR __Pdest$[ebp]
  0000c	e8 00 00 00 00	 call	 ?construct@?$allocator@VioHashString@@@std@@QAEXPAVioHashString@@$$QAV3@@Z ; std::allocator<ioHashString>::construct

; 281  : 	}

  00011	5d		 pop	 ebp
  00012	c3		 ret	 0
??$_Cons_val@V?$allocator@VioHashString@@@std@@VioHashString@@V3@@std@@YAXAAV?$allocator@VioHashString@@@0@PAVioHashString@@$$QAV2@@Z ENDP ; std::_Cons_val<std::allocator<ioHashString>,ioHashString,ioHashString>
_TEXT	ENDS
PUBLIC	??$_Copy_impl@PAVioHashString@@PAV1@@std@@YAPAVioHashString@@PAV1@00@Z ; std::_Copy_impl<ioHashString *,ioHashString *>
; Function compile flags: /Ogsp
; File c:\program files (x86)\microsoft visual studio 10.0\vc\include\xutility
;	COMDAT ??$_Copy_impl@PAVioHashString@@PAV1@@std@@YAPAVioHashString@@PAV1@00@Z
_TEXT	SEGMENT
__Cat$511991 = -4					; size = 1
__First$ = 8						; size = 4
__Last$ = 12						; size = 4
__Dest$ = 16						; size = 4
??$_Copy_impl@PAVioHashString@@PAV1@@std@@YAPAVioHashString@@PAV1@00@Z PROC ; std::_Copy_impl<ioHashString *,ioHashString *>, COMDAT

; 2163 : 	{	// copy [_First, _Last) to [_Dest, ...)

  00000	55		 push	 ebp
  00001	8b ec		 mov	 ebp, esp
  00003	51		 push	 ecx

; 2164 : 	return (_Copy_impl(_First, _Last,
; 2165 : 		_Dest, _Ptr_cat(_First, _Dest)));

  00004	ff 75 fc	 push	 DWORD PTR __Cat$511991[ebp]
  00007	ff 75 10	 push	 DWORD PTR __Dest$[ebp]
  0000a	ff 75 0c	 push	 DWORD PTR __Last$[ebp]
  0000d	ff 75 08	 push	 DWORD PTR __First$[ebp]
  00010	e8 00 00 00 00	 call	 ??$_Copy_impl@PAVioHashString@@PAV1@@std@@YAPAVioHashString@@PAV1@00U_Nonscalar_ptr_iterator_tag@0@@Z ; std::_Copy_impl<ioHashString *,ioHashString *>
  00015	83 c4 10	 add	 esp, 16			; 00000010H

; 2166 : 	}

  00018	c9		 leave
  00019	c3		 ret	 0
??$_Copy_impl@PAVioHashString@@PAV1@@std@@YAPAVioHashString@@PAV1@00@Z ENDP ; std::_Copy_impl<ioHashString *,ioHashString *>
_TEXT	ENDS
PUBLIC	??$?9VioHashString@@V0@@std@@YA_NABV?$allocator@VioHashString@@@0@0@Z ; std::operator!=<ioHashString,ioHashString>
; Function compile flags: /Ogsp
; File c:\program files (x86)\microsoft visual studio 10.0\vc\include\xmemory
;	COMDAT ??$?9VioHashString@@V0@@std@@YA_NABV?$allocator@VioHashString@@@0@0@Z
_TEXT	SEGMENT
__Left$ = 8						; size = 4
__Right$ = 12						; size = 4
??$?9VioHashString@@V0@@std@@YA_NABV?$allocator@VioHashString@@@0@0@Z PROC ; std::operator!=<ioHashString,ioHashString>, COMDAT

; 271  : 	return (!(_Left == _Right));

  00000	32 c0		 xor	 al, al

; 272  : 	}

  00002	c3		 ret	 0
??$?9VioHashString@@V0@@std@@YA_NABV?$allocator@VioHashString@@@0@0@Z ENDP ; std::operator!=<ioHashString,ioHashString>
_TEXT	ENDS
PUBLIC	??0?$_Tree_const_iterator@V?$_Tree_val@V?$_Tmap_traits@HV?$vector@VioHashString@@V?$allocator@VioHashString@@@std@@@std@@U?$less@H@2@V?$allocator@U?$pair@$$CBHV?$vector@VioHashString@@V?$allocator@VioHashString@@@std@@@std@@@std@@@2@$0A@@std@@@std@@@std@@QAE@XZ ; std::_Tree_const_iterator<std::_Tree_val<std::_Tmap_traits<int,std::vector<ioHashString,std::allocator<ioHashString> >,std::less<int>,std::allocator<std::pair<int const ,std::vector<ioHashString,std::allocator<ioHashString> > > >,0> > >::_Tree_const_iterator<std::_Tree_val<std::_Tmap_traits<int,std::vector<ioHashString,std::allocator<ioHashString> >,std::less<int>,std::allocator<std::pair<int const ,std::vector<ioHashString,std::allocator<ioHashString> > > >,0> > >
; Function compile flags: /Ogsp
; File c:\program files (x86)\microsoft visual studio 10.0\vc\include\xtree
;	COMDAT ??0?$_Tree_const_iterator@V?$_Tree_val@V?$_Tmap_traits@HV?$vector@VioHashString@@V?$allocator@VioHashString@@@std@@@std@@U?$less@H@2@V?$allocator@U?$pair@$$CBHV?$vector@VioHashString@@V?$allocator@VioHashString@@@std@@@std@@@std@@@2@$0A@@std@@@std@@@std@@QAE@XZ
_TEXT	SEGMENT
??0?$_Tree_const_iterator@V?$_Tree_val@V?$_Tmap_traits@HV?$vector@VioHashString@@V?$allocator@VioHashString@@@std@@@std@@U?$less@H@2@V?$allocator@U?$pair@$$CBHV?$vector@VioHashString@@V?$allocator@VioHashString@@@std@@@std@@@std@@@2@$0A@@std@@@std@@@std@@QAE@XZ PROC ; std::_Tree_const_iterator<std::_Tree_val<std::_Tmap_traits<int,std::vector<ioHashString,std::allocator<ioHashString> >,std::less<int>,std::allocator<std::pair<int const ,std::vector<ioHashString,std::allocator<ioHashString> > > >,0> > >::_Tree_const_iterator<std::_Tree_val<std::_Tmap_traits<int,std::vector<ioHashString,std::allocator<ioHashString> >,std::less<int>,std::allocator<std::pair<int const ,std::vector<ioHashString,std::allocator<ioHashString> > > >,0> > >, COMDAT
; _this$ = ecx

; 208  : 		{	// construct with null node pointer

  00000	8b c1		 mov	 eax, ecx
  00002	83 20 00	 and	 DWORD PTR [eax], 0

; 209  : 		}

  00005	c3		 ret	 0
??0?$_Tree_const_iterator@V?$_Tree_val@V?$_Tmap_traits@HV?$vector@VioHashString@@V?$allocator@VioHashString@@@std@@@std@@U?$less@H@2@V?$allocator@U?$pair@$$CBHV?$vector@VioHashString@@V?$allocator@VioHashString@@@std@@@std@@@std@@@2@$0A@@std@@@std@@@std@@QAE@XZ ENDP ; std::_Tree_const_iterator<std::_Tree_val<std::_Tmap_traits<int,std::vector<ioHashString,std::allocator<ioHashString> >,std::less<int>,std::allocator<std::pair<int const ,std::vector<ioHashString,std::allocator<ioHashString> > > >,0> > >::_Tree_const_iterator<std::_Tree_val<std::_Tmap_traits<int,std::vector<ioHashString,std::allocator<ioHashString> >,std::less<int>,std::allocator<std::pair<int const ,std::vector<ioHashString,std::allocator<ioHashString> > > >,0> > >
_TEXT	ENDS
PUBLIC	?max_size@?$_Tree@V?$_Tmap_traits@HV?$vector@VioHashString@@V?$allocator@VioHashString@@@std@@@std@@U?$less@H@2@V?$allocator@U?$pair@$$CBHV?$vector@VioHashString@@V?$allocator@VioHashString@@@std@@@std@@@std@@@2@$0A@@std@@@std@@QBEIXZ ; std::_Tree<std::_Tmap_traits<int,std::vector<ioHashString,std::allocator<ioHashString> >,std::less<int>,std::allocator<std::pair<int const ,std::vector<ioHashString,std::allocator<ioHashString> > > >,0> >::max_size
; Function compile flags: /Ogsp
;	COMDAT ?max_size@?$_Tree@V?$_Tmap_traits@HV?$vector@VioHashString@@V?$allocator@VioHashString@@@std@@@std@@U?$less@H@2@V?$allocator@U?$pair@$$CBHV?$vector@VioHashString@@V?$allocator@VioHashString@@@std@@@std@@@std@@@2@$0A@@std@@@std@@QBEIXZ
_TEXT	SEGMENT
?max_size@?$_Tree@V?$_Tmap_traits@HV?$vector@VioHashString@@V?$allocator@VioHashString@@@std@@@std@@U?$less@H@2@V?$allocator@U?$pair@$$CBHV?$vector@VioHashString@@V?$allocator@VioHashString@@@std@@@std@@@std@@@2@$0A@@std@@@std@@QBEIXZ PROC ; std::_Tree<std::_Tmap_traits<int,std::vector<ioHashString,std::allocator<ioHashString> >,std::less<int>,std::allocator<std::pair<int const ,std::vector<ioHashString,std::allocator<ioHashString> > > >,0> >::max_size, COMDAT
; _this$ = ecx

; 874  : 		return (this->_Alval.max_size());

  00000	b8 cc cc cc 0c	 mov	 eax, 214748364		; 0cccccccH

; 875  : 		}

  00005	c3		 ret	 0
?max_size@?$_Tree@V?$_Tmap_traits@HV?$vector@VioHashString@@V?$allocator@VioHashString@@@std@@@std@@U?$less@H@2@V?$allocator@U?$pair@$$CBHV?$vector@VioHashString@@V?$allocator@VioHashString@@@std@@@std@@@std@@@2@$0A@@std@@@std@@QBEIXZ ENDP ; std::_Tree<std::_Tmap_traits<int,std::vector<ioHashString,std::allocator<ioHashString> >,std::less<int>,std::allocator<std::pair<int const ,std::vector<ioHashString,std::allocator<ioHashString> > > >,0> >::max_size
_TEXT	ENDS
PUBLIC	??0?$_Pair_base@V?$_Tree_iterator@V?$_Tree_val@V?$_Tmap_traits@HV?$vector@VioHashString@@V?$allocator@VioHashString@@@std@@@std@@U?$less@H@2@V?$allocator@U?$pair@$$CBHV?$vector@VioHashString@@V?$allocator@VioHashString@@@std@@@std@@@std@@@2@$0A@@std@@@std@@@std@@_N@std@@QAE@$$QAV?$_Tree_iterator@V?$_Tree_val@V?$_Tmap_traits@HV?$vector@VioHashString@@V?$allocator@VioHashString@@@std@@@std@@U?$less@H@2@V?$allocator@U?$pair@$$CBHV?$vector@VioHashString@@V?$allocator@VioHashString@@@std@@@std@@@std@@@2@$0A@@std@@@std@@@1@$$QA_N@Z ; std::_Pair_base<std::_Tree_iterator<std::_Tree_val<std::_Tmap_traits<int,std::vector<ioHashString,std::allocator<ioHashString> >,std::less<int>,std::allocator<std::pair<int const ,std::vector<ioHashString,std::allocator<ioHashString> > > >,0> > >,bool>::_Pair_base<std::_Tree_iterator<std::_Tree_val<std::_Tmap_traits<int,std::vector<ioHashString,std::allocator<ioHashString> >,std::less<int>,std::allocator<std::pair<int const ,std::vector<ioHashString,std::allocator<ioHashString> > > >,0> > >,bool>
; Function compile flags: /Ogsp
; File c:\program files (x86)\microsoft visual studio 10.0\vc\include\utility
;	COMDAT ??0?$_Pair_base@V?$_Tree_iterator@V?$_Tree_val@V?$_Tmap_traits@HV?$vector@VioHashString@@V?$allocator@VioHashString@@@std@@@std@@U?$less@H@2@V?$allocator@U?$pair@$$CBHV?$vector@VioHashString@@V?$allocator@VioHashString@@@std@@@std@@@std@@@2@$0A@@std@@@std@@@std@@_N@std@@QAE@$$QAV?$_Tree_iterator@V?$_Tree_val@V?$_Tmap_traits@HV?$vector@VioHashString@@V?$allocator@VioHashString@@@std@@@std@@U?$less@H@2@V?$allocator@U?$pair@$$CBHV?$vector@VioHashString@@V?$allocator@VioHashString@@@std@@@std@@@std@@@2@$0A@@std@@@std@@@1@$$QA_N@Z
_TEXT	SEGMENT
__Val1$ = 8						; size = 4
__Val2$ = 12						; size = 4
??0?$_Pair_base@V?$_Tree_iterator@V?$_Tree_val@V?$_Tmap_traits@HV?$vector@VioHashString@@V?$allocator@VioHashString@@@std@@@std@@U?$less@H@2@V?$allocator@U?$pair@$$CBHV?$vector@VioHashString@@V?$allocator@VioHashString@@@std@@@std@@@std@@@2@$0A@@std@@@std@@@std@@_N@std@@QAE@$$QAV?$_Tree_iterator@V?$_Tree_val@V?$_Tmap_traits@HV?$vector@VioHashString@@V?$allocator@VioHashString@@@std@@@std@@U?$less@H@2@V?$allocator@U?$pair@$$CBHV?$vector@VioHashString@@V?$allocator@VioHashString@@@std@@@std@@@std@@@2@$0A@@std@@@std@@@1@$$QA_N@Z PROC ; std::_Pair_base<std::_Tree_iterator<std::_Tree_val<std::_Tmap_traits<int,std::vector<ioHashString,std::allocator<ioHashString> >,std::less<int>,std::allocator<std::pair<int const ,std::vector<ioHashString,std::allocator<ioHashString> > > >,0> > >,bool>::_Pair_base<std::_Tree_iterator<std::_Tree_val<std::_Tmap_traits<int,std::vector<ioHashString,std::allocator<ioHashString> >,std::less<int>,std::allocator<std::pair<int const ,std::vector<ioHashString,std::allocator<ioHashString> > > >,0> > >,bool>, COMDAT
; _this$ = ecx

; 145  : 		{	// construct from specified values

  00000	55		 push	 ebp
  00001	8b ec		 mov	 ebp, esp
  00003	8b c1		 mov	 eax, ecx
  00005	8b 4d 08	 mov	 ecx, DWORD PTR __Val1$[ebp]
  00008	8b 09		 mov	 ecx, DWORD PTR [ecx]
  0000a	89 08		 mov	 DWORD PTR [eax], ecx
  0000c	8b 4d 0c	 mov	 ecx, DWORD PTR __Val2$[ebp]
  0000f	8a 09		 mov	 cl, BYTE PTR [ecx]
  00011	88 48 04	 mov	 BYTE PTR [eax+4], cl

; 146  : 		}

  00014	5d		 pop	 ebp
  00015	c2 08 00	 ret	 8
??0?$_Pair_base@V?$_Tree_iterator@V?$_Tree_val@V?$_Tmap_traits@HV?$vector@VioHashString@@V?$allocator@VioHashString@@@std@@@std@@U?$less@H@2@V?$allocator@U?$pair@$$CBHV?$vector@VioHashString@@V?$allocator@VioHashString@@@std@@@std@@@std@@@2@$0A@@std@@@std@@@std@@_N@std@@QAE@$$QAV?$_Tree_iterator@V?$_Tree_val@V?$_Tmap_traits@HV?$vector@VioHashString@@V?$allocator@VioHashString@@@std@@@std@@U?$less@H@2@V?$allocator@U?$pair@$$CBHV?$vector@VioHashString@@V?$allocator@VioHashString@@@std@@@std@@@std@@@2@$0A@@std@@@std@@@1@$$QA_N@Z ENDP ; std::_Pair_base<std::_Tree_iterator<std::_Tree_val<std::_Tmap_traits<int,std::vector<ioHashString,std::allocator<ioHashString> >,std::less<int>,std::allocator<std::pair<int const ,std::vector<ioHashString,std::allocator<ioHashString> > > >,0> > >,bool>::_Pair_base<std::_Tree_iterator<std::_Tree_val<std::_Tmap_traits<int,std::vector<ioHashString,std::allocator<ioHashString> >,std::less<int>,std::allocator<std::pair<int const ,std::vector<ioHashString,std::allocator<ioHashString> > > >,0> > >,bool>
_TEXT	ENDS
PUBLIC	?_Buynode@?$_Tree_val@V?$_Tmap_traits@HV?$vector@VioHashString@@V?$allocator@VioHashString@@@std@@@std@@U?$less@H@2@V?$allocator@U?$pair@$$CBHV?$vector@VioHashString@@V?$allocator@VioHashString@@@std@@@std@@@std@@@2@$0A@@std@@@std@@QAEPAU_Node@?$_Tree_nod@V?$_Tmap_traits@HV?$vector@VioHashString@@V?$allocator@VioHashString@@@std@@@std@@U?$less@H@2@V?$allocator@U?$pair@$$CBHV?$vector@VioHashString@@V?$allocator@VioHashString@@@std@@@std@@@std@@@2@$0A@@std@@@2@XZ ; std::_Tree_val<std::_Tmap_traits<int,std::vector<ioHashString,std::allocator<ioHashString> >,std::less<int>,std::allocator<std::pair<int const ,std::vector<ioHashString,std::allocator<ioHashString> > > >,0> >::_Buynode
; Function compile flags: /Ogsp
; File c:\program files (x86)\microsoft visual studio 10.0\vc\include\xtree
;	COMDAT ?_Buynode@?$_Tree_val@V?$_Tmap_traits@HV?$vector@VioHashString@@V?$allocator@VioHashString@@@std@@@std@@U?$less@H@2@V?$allocator@U?$pair@$$CBHV?$vector@VioHashString@@V?$allocator@VioHashString@@@std@@@std@@@std@@@2@$0A@@std@@@std@@QAEPAU_Node@?$_Tree_nod@V?$_Tmap_traits@HV?$vector@VioHashString@@V?$allocator@VioHashString@@@std@@@std@@U?$less@H@2@V?$allocator@U?$pair@$$CBHV?$vector@VioHashString@@V?$allocator@VioHashString@@@std@@@std@@@std@@@2@$0A@@std@@@2@XZ
_TEXT	SEGMENT
$T512054 = -16						; size = 12
$T512032 = -4						; size = 4
?_Buynode@?$_Tree_val@V?$_Tmap_traits@HV?$vector@VioHashString@@V?$allocator@VioHashString@@@std@@@std@@U?$less@H@2@V?$allocator@U?$pair@$$CBHV?$vector@VioHashString@@V?$allocator@VioHashString@@@std@@@std@@@std@@@2@$0A@@std@@@std@@QAEPAU_Node@?$_Tree_nod@V?$_Tmap_traits@HV?$vector@VioHashString@@V?$allocator@VioHashString@@@std@@@std@@U?$less@H@2@V?$allocator@U?$pair@$$CBHV?$vector@VioHashString@@V?$allocator@VioHashString@@@std@@@std@@@std@@@2@$0A@@std@@@2@XZ PROC ; std::_Tree_val<std::_Tmap_traits<int,std::vector<ioHashString,std::allocator<ioHashString> >,std::less<int>,std::allocator<std::pair<int const ,std::vector<ioHashString,std::allocator<ioHashString> > > >,0> >::_Buynode, COMDAT
; _this$ = ecx

; 559  : 		{	// allocate a node

  00000	55		 push	 ebp
  00001	8b ec		 mov	 ebp, esp
  00003	83 ec 10	 sub	 esp, 16			; 00000010H
  00006	56		 push	 esi

; 560  : 		_Nodeptr _Wherenode = this->_Alnod.allocate(1);

  00007	6a 24		 push	 36			; 00000024H
  00009	8b f1		 mov	 esi, ecx
  0000b	e8 00 00 00 00	 call	 ??2@YAPAXI@Z		; operator new
  00010	59		 pop	 ecx
  00011	33 c9		 xor	 ecx, ecx
  00013	3b c1		 cmp	 eax, ecx
  00015	74 18		 je	 SHORT $LN5@Buynode

; 561  : 
; 562  : 		this->_Left(_Wherenode) = this->_Myhead;

  00017	8b 56 04	 mov	 edx, DWORD PTR [esi+4]
  0001a	89 10		 mov	 DWORD PTR [eax], edx

; 563  : 		this->_Parent(_Wherenode) = this->_Myhead;

  0001c	8b 56 04	 mov	 edx, DWORD PTR [esi+4]
  0001f	89 50 04	 mov	 DWORD PTR [eax+4], edx

; 564  : 		this->_Right(_Wherenode) = this->_Myhead;

  00022	8b 56 04	 mov	 edx, DWORD PTR [esi+4]
  00025	89 50 08	 mov	 DWORD PTR [eax+8], edx

; 565  : 		this->_Color(_Wherenode) = this->_Red;

  00028	66 89 48 20	 mov	 WORD PTR [eax+32], cx
  0002c	5e		 pop	 esi

; 566  : 		this->_Isnil(_Wherenode) = false;
; 567  : 		return (_Wherenode);
; 568  : 		}

  0002d	c9		 leave
  0002e	c3		 ret	 0

; 560  : 		_Nodeptr _Wherenode = this->_Alnod.allocate(1);

$LN5@Buynode:
  0002f	8d 45 fc	 lea	 eax, DWORD PTR $T512032[ebp]
  00032	89 4d fc	 mov	 DWORD PTR $T512032[ebp], ecx
  00035	50		 push	 eax
  00036	8d 4d f0	 lea	 ecx, DWORD PTR $T512054[ebp]
  00039	ff 15 00 00 00
	00		 call	 DWORD PTR __imp_??0exception@std@@QAE@ABQBD@Z
  0003f	68 00 00 00 00	 push	 OFFSET __TI2?AVbad_alloc@std@@
  00044	8d 45 f0	 lea	 eax, DWORD PTR $T512054[ebp]
  00047	50		 push	 eax
  00048	c7 45 f0 00 00
	00 00		 mov	 DWORD PTR $T512054[ebp], OFFSET ??_7bad_alloc@std@@6B@
  0004f	e8 00 00 00 00	 call	 __CxxThrowException@8
$LN27@Buynode:
$LN26@Buynode:
  00054	cc		 int	 3
?_Buynode@?$_Tree_val@V?$_Tmap_traits@HV?$vector@VioHashString@@V?$allocator@VioHashString@@@std@@@std@@U?$less@H@2@V?$allocator@U?$pair@$$CBHV?$vector@VioHashString@@V?$allocator@VioHashString@@@std@@@std@@@std@@@2@$0A@@std@@@std@@QAEPAU_Node@?$_Tree_nod@V?$_Tmap_traits@HV?$vector@VioHashString@@V?$allocator@VioHashString@@@std@@@std@@U?$less@H@2@V?$allocator@U?$pair@$$CBHV?$vector@VioHashString@@V?$allocator@VioHashString@@@std@@@std@@@std@@@2@$0A@@std@@@2@XZ ENDP ; std::_Tree_val<std::_Tmap_traits<int,std::vector<ioHashString,std::allocator<ioHashString> >,std::less<int>,std::allocator<std::pair<int const ,std::vector<ioHashString,std::allocator<ioHashString> > > >,0> >::_Buynode
_TEXT	ENDS
PUBLIC	??$?0AAV?$_Tree_iterator@V?$_Tree_val@V?$_Tmap_traits@HV?$vector@VioHashString@@V?$allocator@VioHashString@@@std@@@std@@U?$less@H@2@V?$allocator@U?$pair@$$CBHV?$vector@VioHashString@@V?$allocator@VioHashString@@@std@@@std@@@std@@@2@$0A@@std@@@std@@@std@@_N@?$_Pair_base@V?$_Tree_iterator@V?$_Tree_val@V?$_Tmap_traits@HV?$vector@VioHashString@@V?$allocator@VioHashString@@@std@@@std@@U?$less@H@2@V?$allocator@U?$pair@$$CBHV?$vector@VioHashString@@V?$allocator@VioHashString@@@std@@@std@@@std@@@2@$0A@@std@@@std@@@std@@_N@std@@QAE@AAV?$_Tree_iterator@V?$_Tree_val@V?$_Tmap_traits@HV?$vector@VioHashString@@V?$allocator@VioHashString@@@std@@@std@@U?$less@H@2@V?$allocator@U?$pair@$$CBHV?$vector@VioHashString@@V?$allocator@VioHashString@@@std@@@std@@@std@@@2@$0A@@std@@@std@@@1@$$QA_N@Z ; std::_Pair_base<std::_Tree_iterator<std::_Tree_val<std::_Tmap_traits<int,std::vector<ioHashString,std::allocator<ioHashString> >,std::less<int>,std::allocator<std::pair<int const ,std::vector<ioHashString,std::allocator<ioHashString> > > >,0> > >,bool>::_Pair_base<std::_Tree_iterator<std::_Tree_val<std::_Tmap_traits<int,std::vector<ioHashString,std::allocator<ioHashString> >,std::less<int>,std::allocator<std::pair<int const ,std::vector<ioHashString,std::allocator<ioHashString> > > >,0> > >,bool><std::_Tree_iterator<std::_Tree_val<std::_Tmap_traits<int,std::vector<ioHashString,std::allocator<ioHashString> >,std::less<int>,std::allocator<std::pair<int const ,std::vector<ioHashString,std::allocator<ioHashString> > > >,0> > > &,bool>
; Function compile flags: /Ogsp
; File c:\program files (x86)\microsoft visual studio 10.0\vc\include\utility
;	COMDAT ??$?0AAV?$_Tree_iterator@V?$_Tree_val@V?$_Tmap_traits@HV?$vector@VioHashString@@V?$allocator@VioHashString@@@std@@@std@@U?$less@H@2@V?$allocator@U?$pair@$$CBHV?$vector@VioHashString@@V?$allocator@VioHashString@@@std@@@std@@@std@@@2@$0A@@std@@@std@@@std@@_N@?$_Pair_base@V?$_Tree_iterator@V?$_Tree_val@V?$_Tmap_traits@HV?$vector@VioHashString@@V?$allocator@VioHashString@@@std@@@std@@U?$less@H@2@V?$allocator@U?$pair@$$CBHV?$vector@VioHashString@@V?$allocator@VioHashString@@@std@@@std@@@std@@@2@$0A@@std@@@std@@@std@@_N@std@@QAE@AAV?$_Tree_iterator@V?$_Tree_val@V?$_Tmap_traits@HV?$vector@VioHashString@@V?$allocator@VioHashString@@@std@@@std@@U?$less@H@2@V?$allocator@U?$pair@$$CBHV?$vector@VioHashString@@V?$allocator@VioHashString@@@std@@@std@@@std@@@2@$0A@@std@@@std@@@1@$$QA_N@Z
_TEXT	SEGMENT
__Val1$ = 8						; size = 4
__Val2$ = 12						; size = 4
??$?0AAV?$_Tree_iterator@V?$_Tree_val@V?$_Tmap_traits@HV?$vector@VioHashString@@V?$allocator@VioHashString@@@std@@@std@@U?$less@H@2@V?$allocator@U?$pair@$$CBHV?$vector@VioHashString@@V?$allocator@VioHashString@@@std@@@std@@@std@@@2@$0A@@std@@@std@@@std@@_N@?$_Pair_base@V?$_Tree_iterator@V?$_Tree_val@V?$_Tmap_traits@HV?$vector@VioHashString@@V?$allocator@VioHashString@@@std@@@std@@U?$less@H@2@V?$allocator@U?$pair@$$CBHV?$vector@VioHashString@@V?$allocator@VioHashString@@@std@@@std@@@std@@@2@$0A@@std@@@std@@@std@@_N@std@@QAE@AAV?$_Tree_iterator@V?$_Tree_val@V?$_Tmap_traits@HV?$vector@VioHashString@@V?$allocator@VioHashString@@@std@@@std@@U?$less@H@2@V?$allocator@U?$pair@$$CBHV?$vector@VioHashString@@V?$allocator@VioHashString@@@std@@@std@@@std@@@2@$0A@@std@@@std@@@1@$$QA_N@Z PROC ; std::_Pair_base<std::_Tree_iterator<std::_Tree_val<std::_Tmap_traits<int,std::vector<ioHashString,std::allocator<ioHashString> >,std::less<int>,std::allocator<std::pair<int const ,std::vector<ioHashString,std::allocator<ioHashString> > > >,0> > >,bool>::_Pair_base<std::_Tree_iterator<std::_Tree_val<std::_Tmap_traits<int,std::vector<ioHashString,std::allocator<ioHashString> >,std::less<int>,std::allocator<std::pair<int const ,std::vector<ioHashString,std::allocator<ioHashString> > > >,0> > >,bool><std::_Tree_iterator<std::_Tree_val<std::_Tmap_traits<int,std::vector<ioHashString,std::allocator<ioHashString> >,std::less<int>,std::allocator<std::pair<int const ,std::vector<ioHashString,std::allocator<ioHashString> > > >,0> > > &,bool>, COMDAT
; _this$ = ecx

; 163  : 		{	// construct from moved values

  00000	55		 push	 ebp
  00001	8b ec		 mov	 ebp, esp
  00003	8b c1		 mov	 eax, ecx
  00005	8b 4d 08	 mov	 ecx, DWORD PTR __Val1$[ebp]
  00008	8b 09		 mov	 ecx, DWORD PTR [ecx]
  0000a	89 08		 mov	 DWORD PTR [eax], ecx
  0000c	8b 4d 0c	 mov	 ecx, DWORD PTR __Val2$[ebp]
  0000f	8a 09		 mov	 cl, BYTE PTR [ecx]
  00011	88 48 04	 mov	 BYTE PTR [eax+4], cl

; 164  : 		}

  00014	5d		 pop	 ebp
  00015	c2 08 00	 ret	 8
??$?0AAV?$_Tree_iterator@V?$_Tree_val@V?$_Tmap_traits@HV?$vector@VioHashString@@V?$allocator@VioHashString@@@std@@@std@@U?$less@H@2@V?$allocator@U?$pair@$$CBHV?$vector@VioHashString@@V?$allocator@VioHashString@@@std@@@std@@@std@@@2@$0A@@std@@@std@@@std@@_N@?$_Pair_base@V?$_Tree_iterator@V?$_Tree_val@V?$_Tmap_traits@HV?$vector@VioHashString@@V?$allocator@VioHashString@@@std@@@std@@U?$less@H@2@V?$allocator@U?$pair@$$CBHV?$vector@VioHashString@@V?$allocator@VioHashString@@@std@@@std@@@std@@@2@$0A@@std@@@std@@@std@@_N@std@@QAE@AAV?$_Tree_iterator@V?$_Tree_val@V?$_Tmap_traits@HV?$vector@VioHashString@@V?$allocator@VioHashString@@@std@@@std@@U?$less@H@2@V?$allocator@U?$pair@$$CBHV?$vector@VioHashString@@V?$allocator@VioHashString@@@std@@@std@@@std@@@2@$0A@@std@@@std@@@1@$$QA_N@Z ENDP ; std::_Pair_base<std::_Tree_iterator<std::_Tree_val<std::_Tmap_traits<int,std::vector<ioHashString,std::allocator<ioHashString> >,std::less<int>,std::allocator<std::pair<int const ,std::vector<ioHashString,std::allocator<ioHashString> > > >,0> > >,bool>::_Pair_base<std::_Tree_iterator<std::_Tree_val<std::_Tmap_traits<int,std::vector<ioHashString,std::allocator<ioHashString> >,std::less<int>,std::allocator<std::pair<int const ,std::vector<ioHashString,std::allocator<ioHashString> > > >,0> > >,bool><std::_Tree_iterator<std::_Tree_val<std::_Tmap_traits<int,std::vector<ioHashString,std::allocator<ioHashString> >,std::less<int>,std::allocator<std::pair<int const ,std::vector<ioHashString,std::allocator<ioHashString> > > >,0> > > &,bool>
_TEXT	ENDS
PUBLIC	??$construct@AAVioHashString@@@?$allocator@VioHashString@@@std@@QAEXPAVioHashString@@AAV2@@Z ; std::allocator<ioHashString>::construct<ioHashString &>
;	COMDAT xdata$x
xdata$x	SEGMENT
__unwindtable$??$construct@AAVioHashString@@@?$allocator@VioHashString@@@std@@QAEXPAVioHashString@@AAV2@@Z DD 0ffffffffH
	DD	FLAT:__unwindfunclet$??$construct@AAVioHashString@@@?$allocator@VioHashString@@@std@@QAEXPAVioHashString@@AAV2@@Z$0
__ehfuncinfo$??$construct@AAVioHashString@@@?$allocator@VioHashString@@@std@@QAEXPAVioHashString@@AAV2@@Z DD 019930522H
	DD	01H
	DD	FLAT:__unwindtable$??$construct@AAVioHashString@@@?$allocator@VioHashString@@@std@@QAEXPAVioHashString@@AAV2@@Z
	DD	2 DUP(00H)
	DD	2 DUP(00H)
	DD	00H
	DD	01H
; Function compile flags: /Ogsp
; File c:\program files (x86)\microsoft visual studio 10.0\vc\include\xmemory
xdata$x	ENDS
;	COMDAT ??$construct@AAVioHashString@@@?$allocator@VioHashString@@@std@@QAEXPAVioHashString@@AAV2@@Z
_TEXT	SEGMENT
$T512088 = -16						; size = 4
__$EHRec$ = -12						; size = 12
__Ptr$ = 8						; size = 4
__Val$ = 12						; size = 4
??$construct@AAVioHashString@@@?$allocator@VioHashString@@@std@@QAEXPAVioHashString@@AAV2@@Z PROC ; std::allocator<ioHashString>::construct<ioHashString &>, COMDAT
; _this$ = ecx

; 206  : 		void construct(pointer _Ptr, _Other&& _Val)

  00000	6a 04		 push	 4
  00002	b8 00 00 00 00	 mov	 eax, __ehhandler$??$construct@AAVioHashString@@@?$allocator@VioHashString@@@std@@QAEXPAVioHashString@@AAV2@@Z
  00007	e8 00 00 00 00	 call	 __EH_prolog3

; 207  : 		{	// construct object at _Ptr with value _Val
; 208  : 		::new ((void _FARQ *)_Ptr) _Ty(_STD forward<_Other>(_Val));

  0000c	8b 4d 08	 mov	 ecx, DWORD PTR __Ptr$[ebp]
  0000f	89 4d f0	 mov	 DWORD PTR $T512088[ebp], ecx
  00012	83 65 fc 00	 and	 DWORD PTR __$EHRec$[ebp+8], 0
  00016	85 c9		 test	 ecx, ecx
  00018	74 09		 je	 SHORT $LN3@construct@2
  0001a	ff 75 0c	 push	 DWORD PTR __Val$[ebp]
  0001d	ff 15 00 00 00
	00		 call	 DWORD PTR __imp_??0ioHashString@@QAE@ABV0@@Z
$LN3@construct@2:

; 209  : 		}

  00023	e8 00 00 00 00	 call	 __EH_epilog3
  00028	c2 08 00	 ret	 8
_TEXT	ENDS
;	COMDAT text$x
text$x	SEGMENT
__unwindfunclet$??$construct@AAVioHashString@@@?$allocator@VioHashString@@@std@@QAEXPAVioHashString@@AAV2@@Z$0:
  00000	ff 75 08	 push	 DWORD PTR __Ptr$[ebp]
  00003	ff 75 f0	 push	 DWORD PTR $T512088[ebp]
  00006	e8 00 00 00 00	 call	 ??3@YAXPAX0@Z		; operator delete
  0000b	59		 pop	 ecx
  0000c	59		 pop	 ecx
  0000d	c3		 ret	 0
__ehhandler$??$construct@AAVioHashString@@@?$allocator@VioHashString@@@std@@QAEXPAVioHashString@@AAV2@@Z:
  0000e	8b 54 24 08	 mov	 edx, DWORD PTR [esp+8]
  00012	8d 42 0c	 lea	 eax, DWORD PTR [edx+12]
  00015	8b 4a ec	 mov	 ecx, DWORD PTR [edx-20]
  00018	33 c8		 xor	 ecx, eax
  0001a	e8 00 00 00 00	 call	 @__security_check_cookie@4
  0001f	b8 00 00 00 00	 mov	 eax, OFFSET __ehfuncinfo$??$construct@AAVioHashString@@@?$allocator@VioHashString@@@std@@QAEXPAVioHashString@@AAV2@@Z
  00024	e9 00 00 00 00	 jmp	 ___CxxFrameHandler3
text$x	ENDS
??$construct@AAVioHashString@@@?$allocator@VioHashString@@@std@@QAEXPAVioHashString@@AAV2@@Z ENDP ; std::allocator<ioHashString>::construct<ioHashString &>
PUBLIC	?StringCbPrintfA@@YAJPADIPBDZZ			; StringCbPrintfA
; Function compile flags: /Ogsp
; File c:\program files (x86)\microsoft sdks\windows\v7.0a\include\strsafe.h
;	COMDAT ?StringCbPrintfA@@YAJPADIPBDZZ
_TEXT	SEGMENT
_pszDest$ = 8						; size = 4
_cbDest$ = 12						; size = 4
_pszFormat$ = 16					; size = 4
?StringCbPrintfA@@YAJPADIPBDZZ PROC			; StringCbPrintfA, COMDAT

; 4767 : {

  00000	55		 push	 ebp
  00001	8b ec		 mov	 ebp, esp

; 4768 :     HRESULT hr;
; 4769 :     size_t cchDest = cbDest / sizeof(char);
; 4770 : 
; 4771 :     hr = StringValidateDestA(pszDest, cchDest, STRSAFE_MAX_CCH);

  00003	8b 4d 0c	 mov	 ecx, DWORD PTR _cbDest$[ebp]
  00006	33 c0		 xor	 eax, eax
  00008	85 c9		 test	 ecx, ecx
  0000a	74 08		 je	 SHORT $LN4@StringCbPr
  0000c	81 f9 ff ff ff
	7f		 cmp	 ecx, 2147483647		; 7fffffffH
  00012	76 05		 jbe	 SHORT $LN5@StringCbPr
$LN4@StringCbPr:
  00014	b8 57 00 07 80	 mov	 eax, -2147024809	; 80070057H
$LN5@StringCbPr:

; 4772 :     
; 4773 :     if (SUCCEEDED(hr))

  00019	85 c0		 test	 eax, eax
  0001b	78 39		 js	 SHORT $LN1@StringCbPr

; 4774 :     {
; 4775 :         va_list argList;
; 4776 : 
; 4777 :         va_start(argList, pszFormat);
; 4778 : 
; 4779 :         hr = StringVPrintfWorkerA(pszDest,
; 4780 :                                   cchDest,
; 4781 :                                   NULL,
; 4782 :                                   pszFormat,
; 4783 :                                   argList);

  0001d	53		 push	 ebx
  0001e	56		 push	 esi
  0001f	57		 push	 edi
  00020	8b 7d 08	 mov	 edi, DWORD PTR _pszDest$[ebp]
  00023	8d 45 14	 lea	 eax, DWORD PTR _pszFormat$[ebp+4]
  00026	50		 push	 eax
  00027	ff 75 10	 push	 DWORD PTR _pszFormat$[ebp]
  0002a	8d 71 ff	 lea	 esi, DWORD PTR [ecx-1]
  0002d	56		 push	 esi
  0002e	57		 push	 edi
  0002f	33 db		 xor	 ebx, ebx
  00031	ff 15 00 00 00
	00		 call	 DWORD PTR __imp___vsnprintf
  00037	83 c4 10	 add	 esp, 16			; 00000010H
  0003a	85 c0		 test	 eax, eax
  0003c	78 0b		 js	 SHORT $LN12@StringCbPr
  0003e	3b c6		 cmp	 eax, esi
  00040	77 07		 ja	 SHORT $LN12@StringCbPr
  00042	75 0d		 jne	 SHORT $LN9@StringCbPr
  00044	88 1c 3e	 mov	 BYTE PTR [esi+edi], bl
  00047	eb 08		 jmp	 SHORT $LN9@StringCbPr
$LN12@StringCbPr:
  00049	88 1c 3e	 mov	 BYTE PTR [esi+edi], bl
  0004c	bb 7a 00 07 80	 mov	 ebx, -2147024774	; 8007007aH
$LN9@StringCbPr:
  00051	5f		 pop	 edi
  00052	5e		 pop	 esi
  00053	8b c3		 mov	 eax, ebx
  00055	5b		 pop	 ebx
$LN1@StringCbPr:

; 4784 : 
; 4785 :         va_end(argList);
; 4786 :     }
; 4787 : 
; 4788 :     return hr;
; 4789 : }

  00056	5d		 pop	 ebp
  00057	c3		 ret	 0
?StringCbPrintfA@@YAJPADIPBDZZ ENDP			; StringCbPrintfA
_TEXT	ENDS
PUBLIC	??B?$CEncrypt@H@@QBEHXZ				; CEncrypt<int>::operator int
; Function compile flags: /Ogsp
; File d:\lost saga for developer\youtube\tutorial\source\src\lsclient\encryptvalue.h
;	COMDAT ??B?$CEncrypt@H@@QBEHXZ
_TEXT	SEGMENT
_value$ = -4						; size = 4
??B?$CEncrypt@H@@QBEHXZ PROC				; CEncrypt<int>::operator int, COMDAT
; _this$ = ecx

; 145  : 	{

  00000	55		 push	 ebp
  00001	8b ec		 mov	 ebp, esp
  00003	51		 push	 ecx

; 146  : 		//UJ 130829, const도 똑같이 하면 된다 --start
; 147  : 		type value;
; 148  : 		CEncrypt<type>* pThis = const_cast<CEncrypt<type>*>(this);
; 149  : 		pThis->DecryptValueToPool(&value);

  00004	8d 45 fc	 lea	 eax, DWORD PTR _value$[ebp]
  00007	50		 push	 eax
  00008	e8 00 00 00 00	 call	 ?DecryptValueToPool@?$CEncrypt@H@@QAEXPAH@Z ; CEncrypt<int>::DecryptValueToPool

; 150  : 		//// const에서 DecryptValueToPool 사용할 수 없으므로 아래와 같이함.
; 151  :  		//type value;
; 152  : 		//char szTempMem[MAX_ENCRYPT];
; 153  : 		//m_RC5.DecryptByte( m_MemPool, szTempMem, max(m_ValueSize, DEFAULT_ENCRYPT) );
; 154  : 		//memcpy( &value, szTempMem, m_ValueSize );
; 155  : 		//UJ --end
; 156  : 
; 157  : #ifdef _NOTUSE
; 158  : 		Debug();
; 159  : #endif
; 160  : 		return value;

  0000d	8b 45 fc	 mov	 eax, DWORD PTR _value$[ebp]

; 161  : 	}

  00010	c9		 leave
  00011	c3		 ret	 0
??B?$CEncrypt@H@@QBEHXZ ENDP				; CEncrypt<int>::operator int
_TEXT	ENDS
PUBLIC	?begin@?$vector@VioHashString@@V?$allocator@VioHashString@@@std@@@std@@QAE?AV?$_Vector_iterator@V?$_Vector_val@VioHashString@@V?$allocator@VioHashString@@@std@@@std@@@2@XZ ; std::vector<ioHashString,std::allocator<ioHashString> >::begin
; Function compile flags: /Ogsp
; File c:\program files (x86)\microsoft visual studio 10.0\vc\include\vector
;	COMDAT ?begin@?$vector@VioHashString@@V?$allocator@VioHashString@@@std@@@std@@QAE?AV?$_Vector_iterator@V?$_Vector_val@VioHashString@@V?$allocator@VioHashString@@@std@@@std@@@2@XZ
_TEXT	SEGMENT
___$ReturnUdt$ = 8					; size = 4
?begin@?$vector@VioHashString@@V?$allocator@VioHashString@@@std@@@std@@QAE?AV?$_Vector_iterator@V?$_Vector_val@VioHashString@@V?$allocator@VioHashString@@@std@@@std@@@2@XZ PROC ; std::vector<ioHashString,std::allocator<ioHashString> >::begin, COMDAT
; _this$ = ecx

; 781  : 		{	// return iterator for beginning of mutable sequence

  00000	55		 push	 ebp
  00001	8b ec		 mov	 ebp, esp

; 782  : 		return (iterator(this->_Myfirst, this));

  00003	8b 09		 mov	 ecx, DWORD PTR [ecx]
  00005	8b 45 08	 mov	 eax, DWORD PTR ___$ReturnUdt$[ebp]
  00008	89 08		 mov	 DWORD PTR [eax], ecx

; 783  : 		}

  0000a	5d		 pop	 ebp
  0000b	c2 04 00	 ret	 4
?begin@?$vector@VioHashString@@V?$allocator@VioHashString@@@std@@@std@@QAE?AV?$_Vector_iterator@V?$_Vector_val@VioHashString@@V?$allocator@VioHashString@@@std@@@std@@@2@XZ ENDP ; std::vector<ioHashString,std::allocator<ioHashString> >::begin
_TEXT	ENDS
PUBLIC	?end@?$vector@VioHashString@@V?$allocator@VioHashString@@@std@@@std@@QAE?AV?$_Vector_iterator@V?$_Vector_val@VioHashString@@V?$allocator@VioHashString@@@std@@@std@@@2@XZ ; std::vector<ioHashString,std::allocator<ioHashString> >::end
; Function compile flags: /Ogsp
;	COMDAT ?end@?$vector@VioHashString@@V?$allocator@VioHashString@@@std@@@std@@QAE?AV?$_Vector_iterator@V?$_Vector_val@VioHashString@@V?$allocator@VioHashString@@@std@@@std@@@2@XZ
_TEXT	SEGMENT
___$ReturnUdt$ = 8					; size = 4
?end@?$vector@VioHashString@@V?$allocator@VioHashString@@@std@@@std@@QAE?AV?$_Vector_iterator@V?$_Vector_val@VioHashString@@V?$allocator@VioHashString@@@std@@@std@@@2@XZ PROC ; std::vector<ioHashString,std::allocator<ioHashString> >::end, COMDAT
; _this$ = ecx

; 791  : 		{	// return iterator for end of mutable sequence

  00000	55		 push	 ebp
  00001	8b ec		 mov	 ebp, esp

; 792  : 		return (iterator(this->_Mylast, this));

  00003	8b 49 04	 mov	 ecx, DWORD PTR [ecx+4]
  00006	8b 45 08	 mov	 eax, DWORD PTR ___$ReturnUdt$[ebp]
  00009	89 08		 mov	 DWORD PTR [eax], ecx

; 793  : 		}

  0000b	5d		 pop	 ebp
  0000c	c2 04 00	 ret	 4
?end@?$vector@VioHashString@@V?$allocator@VioHashString@@@std@@@std@@QAE?AV?$_Vector_iterator@V?$_Vector_val@VioHashString@@V?$allocator@VioHashString@@@std@@@std@@@2@XZ ENDP ; std::vector<ioHashString,std::allocator<ioHashString> >::end
_TEXT	ENDS
PUBLIC	??0?$_Vector_val@VioHashString@@V?$allocator@VioHashString@@@std@@@std@@QAE@V?$allocator@VioHashString@@@1@@Z ; std::_Vector_val<ioHashString,std::allocator<ioHashString> >::_Vector_val<ioHashString,std::allocator<ioHashString> >
; Function compile flags: /Ogsp
;	COMDAT ??0?$_Vector_val@VioHashString@@V?$allocator@VioHashString@@@std@@@std@@QAE@V?$allocator@VioHashString@@@1@@Z
_TEXT	SEGMENT
__Al$ = 8						; size = 1
??0?$_Vector_val@VioHashString@@V?$allocator@VioHashString@@@std@@@std@@QAE@V?$allocator@VioHashString@@@1@@Z PROC ; std::_Vector_val<ioHashString,std::allocator<ioHashString> >::_Vector_val<ioHashString,std::allocator<ioHashString> >, COMDAT
; _this$ = ecx

; 426  : 		{	// construct allocator from _Al

  00000	8b c1		 mov	 eax, ecx

; 427  : 		_Myfirst = 0;

  00002	33 c9		 xor	 ecx, ecx
  00004	89 08		 mov	 DWORD PTR [eax], ecx

; 428  : 		_Mylast = 0;

  00006	89 48 04	 mov	 DWORD PTR [eax+4], ecx

; 429  : 		_Myend = 0;

  00009	89 48 08	 mov	 DWORD PTR [eax+8], ecx

; 430  : 		}

  0000c	c2 04 00	 ret	 4
??0?$_Vector_val@VioHashString@@V?$allocator@VioHashString@@@std@@@std@@QAE@V?$allocator@VioHashString@@@1@@Z ENDP ; std::_Vector_val<ioHashString,std::allocator<ioHashString> >::_Vector_val<ioHashString,std::allocator<ioHashString> >
_TEXT	ENDS
PUBLIC	?_Make_iter@?$vector@VioHashString@@V?$allocator@VioHashString@@@std@@@std@@QBE?AV?$_Vector_iterator@V?$_Vector_val@VioHashString@@V?$allocator@VioHashString@@@std@@@std@@@2@V?$_Vector_const_iterator@V?$_Vector_val@VioHashString@@V?$allocator@VioHashString@@@std@@@std@@@2@@Z ; std::vector<ioHashString,std::allocator<ioHashString> >::_Make_iter
; Function compile flags: /Ogsp
;	COMDAT ?_Make_iter@?$vector@VioHashString@@V?$allocator@VioHashString@@@std@@@std@@QBE?AV?$_Vector_iterator@V?$_Vector_val@VioHashString@@V?$allocator@VioHashString@@@std@@@std@@@2@V?$_Vector_const_iterator@V?$_Vector_val@VioHashString@@V?$allocator@VioHashString@@@std@@@std@@@2@@Z
_TEXT	SEGMENT
___$ReturnUdt$ = 8					; size = 4
__Where$ = 12						; size = 4
?_Make_iter@?$vector@VioHashString@@V?$allocator@VioHashString@@@std@@@std@@QBE?AV?$_Vector_iterator@V?$_Vector_val@VioHashString@@V?$allocator@VioHashString@@@std@@@std@@@2@V?$_Vector_const_iterator@V?$_Vector_val@VioHashString@@V?$allocator@VioHashString@@@std@@@std@@@2@@Z PROC ; std::vector<ioHashString,std::allocator<ioHashString> >::_Make_iter, COMDAT
; _this$ = ecx

; 801  : 		{	// make iterator from const_iterator

  00000	55		 push	 ebp
  00001	8b ec		 mov	 ebp, esp

; 802  : 		return (iterator(_Where._Ptr, this));

  00003	8b 45 08	 mov	 eax, DWORD PTR ___$ReturnUdt$[ebp]
  00006	8b 4d 0c	 mov	 ecx, DWORD PTR __Where$[ebp]
  00009	89 08		 mov	 DWORD PTR [eax], ecx

; 803  : 		}

  0000b	5d		 pop	 ebp
  0000c	c2 08 00	 ret	 8
?_Make_iter@?$vector@VioHashString@@V?$allocator@VioHashString@@@std@@@std@@QBE?AV?$_Vector_iterator@V?$_Vector_val@VioHashString@@V?$allocator@VioHashString@@@std@@@std@@@2@V?$_Vector_const_iterator@V?$_Vector_val@VioHashString@@V?$allocator@VioHashString@@@std@@@std@@@2@@Z ENDP ; std::vector<ioHashString,std::allocator<ioHashString> >::_Make_iter
_TEXT	ENDS
PUBLIC	?max_size@?$vector@VioHashString@@V?$allocator@VioHashString@@@std@@@std@@QBEIXZ ; std::vector<ioHashString,std::allocator<ioHashString> >::max_size
; Function compile flags: /Ogsp
;	COMDAT ?max_size@?$vector@VioHashString@@V?$allocator@VioHashString@@@std@@@std@@QBEIXZ
_TEXT	SEGMENT
?max_size@?$vector@VioHashString@@V?$allocator@VioHashString@@@std@@@std@@QBEIXZ PROC ; std::vector<ioHashString,std::allocator<ioHashString> >::max_size, COMDAT
; _this$ = ecx

; 884  : 		return (this->_Alval.max_size());

  00000	b8 ff ff ff 0f	 mov	 eax, 268435455		; 0fffffffH

; 885  : 		}

  00005	c3		 ret	 0
?max_size@?$vector@VioHashString@@V?$allocator@VioHashString@@@std@@@std@@QBEIXZ ENDP ; std::vector<ioHashString,std::allocator<ioHashString> >::max_size
_TEXT	ENDS
PUBLIC	?allocate@?$allocator@VioHashString@@@std@@QAEPAVioHashString@@I@Z ; std::allocator<ioHashString>::allocate
; Function compile flags: /Ogsp
; File c:\program files (x86)\microsoft visual studio 10.0\vc\include\xmemory
;	COMDAT ?allocate@?$allocator@VioHashString@@@std@@QAEPAVioHashString@@I@Z
_TEXT	SEGMENT
__Count$ = 8						; size = 4
?allocate@?$allocator@VioHashString@@@std@@QAEPAVioHashString@@I@Z PROC ; std::allocator<ioHashString>::allocate, COMDAT
; _this$ = ecx

; 186  : 		{	// allocate array of _Count elements

  00000	55		 push	 ebp
  00001	8b ec		 mov	 ebp, esp

; 187  : 		return (_Allocate(_Count, (pointer)0));

  00003	6a 00		 push	 0
  00005	ff 75 08	 push	 DWORD PTR __Count$[ebp]
  00008	e8 00 00 00 00	 call	 ??$_Allocate@VioHashString@@@std@@YAPAVioHashString@@IPAV1@@Z ; std::_Allocate<ioHashString>
  0000d	59		 pop	 ecx
  0000e	59		 pop	 ecx

; 188  : 		}

  0000f	5d		 pop	 ebp
  00010	c2 04 00	 ret	 4
?allocate@?$allocator@VioHashString@@@std@@QAEPAVioHashString@@I@Z ENDP ; std::allocator<ioHashString>::allocate
_TEXT	ENDS
PUBLIC	??8?$_Vector_const_iterator@V?$_Vector_val@VioHashString@@V?$allocator@VioHashString@@@std@@@std@@@std@@QBE_NABV01@@Z ; std::_Vector_const_iterator<std::_Vector_val<ioHashString,std::allocator<ioHashString> > >::operator==
; Function compile flags: /Ogsp
; File c:\program files (x86)\microsoft visual studio 10.0\vc\include\vector
;	COMDAT ??8?$_Vector_const_iterator@V?$_Vector_val@VioHashString@@V?$allocator@VioHashString@@@std@@@std@@@std@@QBE_NABV01@@Z
_TEXT	SEGMENT
__Right$ = 8						; size = 4
??8?$_Vector_const_iterator@V?$_Vector_val@VioHashString@@V?$allocator@VioHashString@@@std@@@std@@@std@@QBE_NABV01@@Z PROC ; std::_Vector_const_iterator<std::_Vector_val<ioHashString,std::allocator<ioHashString> > >::operator==, COMDAT
; _this$ = ecx

; 201  : 		{	// test for iterator equality

  00000	55		 push	 ebp
  00001	8b ec		 mov	 ebp, esp

; 202  : 		_Compat(_Right);
; 203  : 		return (this->_Ptr == _Right._Ptr);

  00003	8b 01		 mov	 eax, DWORD PTR [ecx]
  00005	8b 4d 08	 mov	 ecx, DWORD PTR __Right$[ebp]
  00008	2b 01		 sub	 eax, DWORD PTR [ecx]
  0000a	f7 d8		 neg	 eax
  0000c	1b c0		 sbb	 eax, eax
  0000e	40		 inc	 eax

; 204  : 		}

  0000f	5d		 pop	 ebp
  00010	c2 04 00	 ret	 4
??8?$_Vector_const_iterator@V?$_Vector_val@VioHashString@@V?$allocator@VioHashString@@@std@@@std@@@std@@QBE_NABV01@@Z ENDP ; std::_Vector_const_iterator<std::_Vector_val<ioHashString,std::allocator<ioHashString> > >::operator==
_TEXT	ENDS
PUBLIC	??$swap@D@std@@YAXAAD0@Z			; std::swap<char>
; Function compile flags: /Ogsp
; File c:\program files (x86)\microsoft visual studio 10.0\vc\include\utility
;	COMDAT ??$swap@D@std@@YAXAAD0@Z
_TEXT	SEGMENT
__Left$ = 8						; size = 4
__Right$ = 12						; size = 4
??$swap@D@std@@YAXAAD0@Z PROC				; std::swap<char>, COMDAT

; 101  : 	{	// exchange values stored at _Left and _Right

  00000	55		 push	 ebp
  00001	8b ec		 mov	 ebp, esp

; 102  : 	_Ty _Tmp = _Move(_Left);

  00003	8b 45 08	 mov	 eax, DWORD PTR __Left$[ebp]
  00006	8a 08		 mov	 cl, BYTE PTR [eax]
  00008	56		 push	 esi

; 103  : 	_Left = _Move(_Right);

  00009	8b 75 0c	 mov	 esi, DWORD PTR __Right$[ebp]
  0000c	8a 16		 mov	 dl, BYTE PTR [esi]
  0000e	88 10		 mov	 BYTE PTR [eax], dl

; 104  : 	_Right = _Move(_Tmp);

  00010	88 0e		 mov	 BYTE PTR [esi], cl
  00012	5e		 pop	 esi

; 105  : 	}

  00013	5d		 pop	 ebp
  00014	c3		 ret	 0
??$swap@D@std@@YAXAAD0@Z ENDP				; std::swap<char>
_TEXT	ENDS
PUBLIC	??$_Move@PAVioHashString@@PAV1@@std@@YAPAVioHashString@@PAV1@00U_Nonscalar_ptr_iterator_tag@0@@Z ; std::_Move<ioHashString *,ioHashString *>
; Function compile flags: /Ogsp
; File c:\program files (x86)\microsoft visual studio 10.0\vc\include\xutility
;	COMDAT ??$_Move@PAVioHashString@@PAV1@@std@@YAPAVioHashString@@PAV1@00U_Nonscalar_ptr_iterator_tag@0@@Z
_TEXT	SEGMENT
__First$ = 8						; size = 4
__Last$ = 12						; size = 4
__Dest$ = 16						; size = 4
___formal$ = 20						; size = 1
??$_Move@PAVioHashString@@PAV1@@std@@YAPAVioHashString@@PAV1@00U_Nonscalar_ptr_iterator_tag@0@@Z PROC ; std::_Move<ioHashString *,ioHashString *>, COMDAT

; 2512 : 	{	// move [_First, _Last) to [_Dest, ...), arbitrary iterators

  00000	55		 push	 ebp
  00001	8b ec		 mov	 ebp, esp
  00003	56		 push	 esi

; 2513 : 	for (; _First != _Last; ++_Dest, ++_First)

  00004	8b 75 08	 mov	 esi, DWORD PTR __First$[ebp]
  00007	eb 11		 jmp	 SHORT $LN11@Move
$LL3@Move:

; 2514 : 		*_Dest = _STD move(*_First);

  00009	8b 4d 10	 mov	 ecx, DWORD PTR __Dest$[ebp]
  0000c	56		 push	 esi
  0000d	ff 15 00 00 00
	00		 call	 DWORD PTR __imp_??4ioHashString@@QAEAAV0@ABV0@@Z
  00013	83 45 10 10	 add	 DWORD PTR __Dest$[ebp], 16 ; 00000010H
  00017	83 c6 10	 add	 esi, 16			; 00000010H
$LN11@Move:

; 2513 : 	for (; _First != _Last; ++_Dest, ++_First)

  0001a	3b 75 0c	 cmp	 esi, DWORD PTR __Last$[ebp]
  0001d	75 ea		 jne	 SHORT $LL3@Move

; 2515 : 	return (_Dest);

  0001f	8b 45 10	 mov	 eax, DWORD PTR __Dest$[ebp]
  00022	5e		 pop	 esi

; 2516 : 	}

  00023	5d		 pop	 ebp
  00024	c3		 ret	 0
??$_Move@PAVioHashString@@PAV1@@std@@YAPAVioHashString@@PAV1@00U_Nonscalar_ptr_iterator_tag@0@@Z ENDP ; std::_Move<ioHashString *,ioHashString *>
_TEXT	ENDS
PUBLIC	??$_Destroy@VioHashString@@@std@@YAXPAVioHashString@@@Z ; std::_Destroy<ioHashString>
; Function compile flags: /Ogsp
; File c:\program files (x86)\microsoft visual studio 10.0\vc\include\xmemory
;	COMDAT ??$_Destroy@VioHashString@@@std@@YAXPAVioHashString@@@Z
_TEXT	SEGMENT
__Ptr$ = 8						; size = 4
??$_Destroy@VioHashString@@@std@@YAXPAVioHashString@@@Z PROC ; std::_Destroy<ioHashString>, COMDAT

; 62   : 	{	// destroy object at _Ptr

  00000	55		 push	 ebp
  00001	8b ec		 mov	 ebp, esp

; 63   : 	_Ptr->~_Ty();

  00003	8b 4d 08	 mov	 ecx, DWORD PTR __Ptr$[ebp]

; 64   : 	}

  00006	5d		 pop	 ebp

; 63   : 	_Ptr->~_Ty();

  00007	ff 25 00 00 00
	00		 jmp	 DWORD PTR __imp_??1ioHashString@@QAE@XZ
??$_Destroy@VioHashString@@@std@@YAXPAVioHashString@@@Z ENDP ; std::_Destroy<ioHashString>
_TEXT	ENDS
PUBLIC	??C?$_Tree_iterator@V?$_Tree_val@V?$_Tmap_traits@HV?$vector@VioHashString@@V?$allocator@VioHashString@@@std@@@std@@U?$less@H@2@V?$allocator@U?$pair@$$CBHV?$vector@VioHashString@@V?$allocator@VioHashString@@@std@@@std@@@std@@@2@$0A@@std@@@std@@@std@@QBEPAU?$pair@$$CBHV?$vector@VioHashString@@V?$allocator@VioHashString@@@std@@@std@@@1@XZ ; std::_Tree_iterator<std::_Tree_val<std::_Tmap_traits<int,std::vector<ioHashString,std::allocator<ioHashString> >,std::less<int>,std::allocator<std::pair<int const ,std::vector<ioHashString,std::allocator<ioHashString> > > >,0> > >::operator->
; Function compile flags: /Ogsp
; File c:\program files (x86)\microsoft visual studio 10.0\vc\include\xtree
;	COMDAT ??C?$_Tree_iterator@V?$_Tree_val@V?$_Tmap_traits@HV?$vector@VioHashString@@V?$allocator@VioHashString@@@std@@@std@@U?$less@H@2@V?$allocator@U?$pair@$$CBHV?$vector@VioHashString@@V?$allocator@VioHashString@@@std@@@std@@@std@@@2@$0A@@std@@@std@@@std@@QBEPAU?$pair@$$CBHV?$vector@VioHashString@@V?$allocator@VioHashString@@@std@@@std@@@1@XZ
_TEXT	SEGMENT
??C?$_Tree_iterator@V?$_Tree_val@V?$_Tmap_traits@HV?$vector@VioHashString@@V?$allocator@VioHashString@@@std@@@std@@U?$less@H@2@V?$allocator@U?$pair@$$CBHV?$vector@VioHashString@@V?$allocator@VioHashString@@@std@@@std@@@std@@@2@$0A@@std@@@std@@@std@@QBEPAU?$pair@$$CBHV?$vector@VioHashString@@V?$allocator@VioHashString@@@std@@@std@@@1@XZ PROC ; std::_Tree_iterator<std::_Tree_val<std::_Tmap_traits<int,std::vector<ioHashString,std::allocator<ioHashString> >,std::less<int>,std::allocator<std::pair<int const ,std::vector<ioHashString,std::allocator<ioHashString> > > >,0> > >::operator->, COMDAT
; _this$ = ecx

; 401  : 		return (&**this);

  00000	8b 01		 mov	 eax, DWORD PTR [ecx]
  00002	83 c0 0c	 add	 eax, 12			; 0000000cH

; 402  : 		}

  00005	c3		 ret	 0
??C?$_Tree_iterator@V?$_Tree_val@V?$_Tmap_traits@HV?$vector@VioHashString@@V?$allocator@VioHashString@@@std@@@std@@U?$less@H@2@V?$allocator@U?$pair@$$CBHV?$vector@VioHashString@@V?$allocator@VioHashString@@@std@@@std@@@std@@@2@$0A@@std@@@std@@@std@@QBEPAU?$pair@$$CBHV?$vector@VioHashString@@V?$allocator@VioHashString@@@std@@@std@@@1@XZ ENDP ; std::_Tree_iterator<std::_Tree_val<std::_Tmap_traits<int,std::vector<ioHashString,std::allocator<ioHashString> >,std::less<int>,std::allocator<std::pair<int const ,std::vector<ioHashString,std::allocator<ioHashString> > > >,0> > >::operator->
_TEXT	ENDS
PUBLIC	??0?$_Tree_iterator@V?$_Tree_val@V?$_Tmap_traits@HV?$vector@VioHashString@@V?$allocator@VioHashString@@@std@@@std@@U?$less@H@2@V?$allocator@U?$pair@$$CBHV?$vector@VioHashString@@V?$allocator@VioHashString@@@std@@@std@@@std@@@2@$0A@@std@@@std@@@std@@QAE@PAU_Node@?$_Tree_nod@V?$_Tmap_traits@HV?$vector@VioHashString@@V?$allocator@VioHashString@@@std@@@std@@U?$less@H@2@V?$allocator@U?$pair@$$CBHV?$vector@VioHashString@@V?$allocator@VioHashString@@@std@@@std@@@std@@@2@$0A@@std@@@1@PBV?$_Tree_val@V?$_Tmap_traits@HV?$vector@VioHashString@@V?$allocator@VioHashString@@@std@@@std@@U?$less@H@2@V?$allocator@U?$pair@$$CBHV?$vector@VioHashString@@V?$allocator@VioHashString@@@std@@@std@@@std@@@2@$0A@@std@@@1@@Z ; std::_Tree_iterator<std::_Tree_val<std::_Tmap_traits<int,std::vector<ioHashString,std::allocator<ioHashString> >,std::less<int>,std::allocator<std::pair<int const ,std::vector<ioHashString,std::allocator<ioHashString> > > >,0> > >::_Tree_iterator<std::_Tree_val<std::_Tmap_traits<int,std::vector<ioHashString,std::allocator<ioHashString> >,std::less<int>,std::allocator<std::pair<int const ,std::vector<ioHashString,std::allocator<ioHashString> > > >,0> > >
; Function compile flags: /Ogsp
;	COMDAT ??0?$_Tree_iterator@V?$_Tree_val@V?$_Tmap_traits@HV?$vector@VioHashString@@V?$allocator@VioHashString@@@std@@@std@@U?$less@H@2@V?$allocator@U?$pair@$$CBHV?$vector@VioHashString@@V?$allocator@VioHashString@@@std@@@std@@@std@@@2@$0A@@std@@@std@@@std@@QAE@PAU_Node@?$_Tree_nod@V?$_Tmap_traits@HV?$vector@VioHashString@@V?$allocator@VioHashString@@@std@@@std@@U?$less@H@2@V?$allocator@U?$pair@$$CBHV?$vector@VioHashString@@V?$allocator@VioHashString@@@std@@@std@@@std@@@2@$0A@@std@@@1@PBV?$_Tree_val@V?$_Tmap_traits@HV?$vector@VioHashString@@V?$allocator@VioHashString@@@std@@@std@@U?$less@H@2@V?$allocator@U?$pair@$$CBHV?$vector@VioHashString@@V?$allocator@VioHashString@@@std@@@std@@@std@@@2@$0A@@std@@@1@@Z
_TEXT	SEGMENT
__Pnode$ = 8						; size = 4
__Plist$ = 12						; size = 4
??0?$_Tree_iterator@V?$_Tree_val@V?$_Tmap_traits@HV?$vector@VioHashString@@V?$allocator@VioHashString@@@std@@@std@@U?$less@H@2@V?$allocator@U?$pair@$$CBHV?$vector@VioHashString@@V?$allocator@VioHashString@@@std@@@std@@@std@@@2@$0A@@std@@@std@@@std@@QAE@PAU_Node@?$_Tree_nod@V?$_Tmap_traits@HV?$vector@VioHashString@@V?$allocator@VioHashString@@@std@@@std@@U?$less@H@2@V?$allocator@U?$pair@$$CBHV?$vector@VioHashString@@V?$allocator@VioHashString@@@std@@@std@@@std@@@2@$0A@@std@@@1@PBV?$_Tree_val@V?$_Tmap_traits@HV?$vector@VioHashString@@V?$allocator@VioHashString@@@std@@@std@@U?$less@H@2@V?$allocator@U?$pair@$$CBHV?$vector@VioHashString@@V?$allocator@VioHashString@@@std@@@std@@@std@@@2@$0A@@std@@@1@@Z PROC ; std::_Tree_iterator<std::_Tree_val<std::_Tmap_traits<int,std::vector<ioHashString,std::allocator<ioHashString> >,std::less<int>,std::allocator<std::pair<int const ,std::vector<ioHashString,std::allocator<ioHashString> > > >,0> > >::_Tree_iterator<std::_Tree_val<std::_Tmap_traits<int,std::vector<ioHashString,std::allocator<ioHashString> >,std::less<int>,std::allocator<std::pair<int const ,std::vector<ioHashString,std::allocator<ioHashString> > > >,0> > >, COMDAT
; _this$ = ecx

; 378  : 		{	// construct with node pointer _Pnode

  00000	55		 push	 ebp
  00001	8b ec		 mov	 ebp, esp
  00003	8b c1		 mov	 eax, ecx
  00005	8b 4d 08	 mov	 ecx, DWORD PTR __Pnode$[ebp]
  00008	89 08		 mov	 DWORD PTR [eax], ecx

; 379  : 		}

  0000a	5d		 pop	 ebp
  0000b	c2 08 00	 ret	 8
??0?$_Tree_iterator@V?$_Tree_val@V?$_Tmap_traits@HV?$vector@VioHashString@@V?$allocator@VioHashString@@@std@@@std@@U?$less@H@2@V?$allocator@U?$pair@$$CBHV?$vector@VioHashString@@V?$allocator@VioHashString@@@std@@@std@@@std@@@2@$0A@@std@@@std@@@std@@QAE@PAU_Node@?$_Tree_nod@V?$_Tmap_traits@HV?$vector@VioHashString@@V?$allocator@VioHashString@@@std@@@std@@U?$less@H@2@V?$allocator@U?$pair@$$CBHV?$vector@VioHashString@@V?$allocator@VioHashString@@@std@@@std@@@std@@@2@$0A@@std@@@1@PBV?$_Tree_val@V?$_Tmap_traits@HV?$vector@VioHashString@@V?$allocator@VioHashString@@@std@@@std@@U?$less@H@2@V?$allocator@U?$pair@$$CBHV?$vector@VioHashString@@V?$allocator@VioHashString@@@std@@@std@@@std@@@2@$0A@@std@@@1@@Z ENDP ; std::_Tree_iterator<std::_Tree_val<std::_Tmap_traits<int,std::vector<ioHashString,std::allocator<ioHashString> >,std::less<int>,std::allocator<std::pair<int const ,std::vector<ioHashString,std::allocator<ioHashString> > > >,0> > >::_Tree_iterator<std::_Tree_val<std::_Tmap_traits<int,std::vector<ioHashString,std::allocator<ioHashString> >,std::less<int>,std::allocator<std::pair<int const ,std::vector<ioHashString,std::allocator<ioHashString> > > >,0> > >
_TEXT	ENDS
PUBLIC	??E?$_Tree_const_iterator@V?$_Tree_val@V?$_Tmap_traits@HV?$vector@VioHashString@@V?$allocator@VioHashString@@@std@@@std@@U?$less@H@2@V?$allocator@U?$pair@$$CBHV?$vector@VioHashString@@V?$allocator@VioHashString@@@std@@@std@@@std@@@2@$0A@@std@@@std@@@std@@QAEAAV01@XZ ; std::_Tree_const_iterator<std::_Tree_val<std::_Tmap_traits<int,std::vector<ioHashString,std::allocator<ioHashString> >,std::less<int>,std::allocator<std::pair<int const ,std::vector<ioHashString,std::allocator<ioHashString> > > >,0> > >::operator++
; Function compile flags: /Ogsp
;	COMDAT ??E?$_Tree_const_iterator@V?$_Tree_val@V?$_Tmap_traits@HV?$vector@VioHashString@@V?$allocator@VioHashString@@@std@@@std@@U?$less@H@2@V?$allocator@U?$pair@$$CBHV?$vector@VioHashString@@V?$allocator@VioHashString@@@std@@@std@@@std@@@2@$0A@@std@@@std@@@std@@QAEAAV01@XZ
_TEXT	SEGMENT
??E?$_Tree_const_iterator@V?$_Tree_val@V?$_Tmap_traits@HV?$vector@VioHashString@@V?$allocator@VioHashString@@@std@@@std@@U?$less@H@2@V?$allocator@U?$pair@$$CBHV?$vector@VioHashString@@V?$allocator@VioHashString@@@std@@@std@@@std@@@2@$0A@@std@@@std@@@std@@QAEAAV01@XZ PROC ; std::_Tree_const_iterator<std::_Tree_val<std::_Tmap_traits<int,std::vector<ioHashString,std::allocator<ioHashString> >,std::less<int>,std::allocator<std::pair<int const ,std::vector<ioHashString,std::allocator<ioHashString> > > >,0> > >::operator++, COMDAT
; _this$ = ecx

; 250  : 		{	// preincrement

  00000	56		 push	 esi
  00001	8b f1		 mov	 esi, ecx

; 251  :  #if _ITERATOR_DEBUG_LEVEL == 2
; 252  : 		if (this->_Getcont() == 0
; 253  : 			|| this->_Ptr == 0
; 254  : 			|| _Mytree::_Isnil(this->_Ptr))
; 255  : 			{	// report error
; 256  : 			_DEBUG_ERROR("map/set iterator not incrementable");
; 257  : 			_SCL_SECURE_OUT_OF_RANGE;
; 258  : 			}
; 259  : 
; 260  :  #elif _ITERATOR_DEBUG_LEVEL == 1
; 261  : 		_SCL_SECURE_VALIDATE(this->_Getcont() != 0 && this->_Ptr != 0);
; 262  : 		_SCL_SECURE_VALIDATE_RANGE(!_Mytree::_Isnil(this->_Ptr));
; 263  :  #endif /* _ITERATOR_DEBUG_LEVEL */
; 264  : 
; 265  : 		++(*(_Mybase *)this);

  00003	e8 00 00 00 00	 call	 ??E?$_Tree_unchecked_const_iterator@V?$_Tree_val@V?$_Tmap_traits@HV?$vector@VioHashString@@V?$allocator@VioHashString@@@std@@@std@@U?$less@H@2@V?$allocator@U?$pair@$$CBHV?$vector@VioHashString@@V?$allocator@VioHashString@@@std@@@std@@@std@@@2@$0A@@std@@@std@@U_Iterator_base0@2@@std@@QAEAAV01@XZ ; std::_Tree_unchecked_const_iterator<std::_Tree_val<std::_Tmap_traits<int,std::vector<ioHashString,std::allocator<ioHashString> >,std::less<int>,std::allocator<std::pair<int const ,std::vector<ioHashString,std::allocator<ioHashString> > > >,0> >,std::_Iterator_base0>::operator++

; 266  : 		return (*this);

  00008	8b c6		 mov	 eax, esi
  0000a	5e		 pop	 esi

; 267  : 		}

  0000b	c3		 ret	 0
??E?$_Tree_const_iterator@V?$_Tree_val@V?$_Tmap_traits@HV?$vector@VioHashString@@V?$allocator@VioHashString@@@std@@@std@@U?$less@H@2@V?$allocator@U?$pair@$$CBHV?$vector@VioHashString@@V?$allocator@VioHashString@@@std@@@std@@@std@@@2@$0A@@std@@@std@@@std@@QAEAAV01@XZ ENDP ; std::_Tree_const_iterator<std::_Tree_val<std::_Tmap_traits<int,std::vector<ioHashString,std::allocator<ioHashString> >,std::less<int>,std::allocator<std::pair<int const ,std::vector<ioHashString,std::allocator<ioHashString> > > >,0> > >::operator++
_TEXT	ENDS
PUBLIC	??F?$_Tree_const_iterator@V?$_Tree_val@V?$_Tmap_traits@HV?$vector@VioHashString@@V?$allocator@VioHashString@@@std@@@std@@U?$less@H@2@V?$allocator@U?$pair@$$CBHV?$vector@VioHashString@@V?$allocator@VioHashString@@@std@@@std@@@std@@@2@$0A@@std@@@std@@@std@@QAEAAV01@XZ ; std::_Tree_const_iterator<std::_Tree_val<std::_Tmap_traits<int,std::vector<ioHashString,std::allocator<ioHashString> >,std::less<int>,std::allocator<std::pair<int const ,std::vector<ioHashString,std::allocator<ioHashString> > > >,0> > >::operator--
; Function compile flags: /Ogsp
;	COMDAT ??F?$_Tree_const_iterator@V?$_Tree_val@V?$_Tmap_traits@HV?$vector@VioHashString@@V?$allocator@VioHashString@@@std@@@std@@U?$less@H@2@V?$allocator@U?$pair@$$CBHV?$vector@VioHashString@@V?$allocator@VioHashString@@@std@@@std@@@std@@@2@$0A@@std@@@std@@@std@@QAEAAV01@XZ
_TEXT	SEGMENT
??F?$_Tree_const_iterator@V?$_Tree_val@V?$_Tmap_traits@HV?$vector@VioHashString@@V?$allocator@VioHashString@@@std@@@std@@U?$less@H@2@V?$allocator@U?$pair@$$CBHV?$vector@VioHashString@@V?$allocator@VioHashString@@@std@@@std@@@std@@@2@$0A@@std@@@std@@@std@@QAEAAV01@XZ PROC ; std::_Tree_const_iterator<std::_Tree_val<std::_Tmap_traits<int,std::vector<ioHashString,std::allocator<ioHashString> >,std::less<int>,std::allocator<std::pair<int const ,std::vector<ioHashString,std::allocator<ioHashString> > > >,0> > >::operator--, COMDAT
; _this$ = ecx

; 277  : 		{	// predecrement

  00000	56		 push	 esi
  00001	8b f1		 mov	 esi, ecx

; 278  :  #if _ITERATOR_DEBUG_LEVEL == 2
; 279  : 		if (this->_Getcont() == 0
; 280  : 			|| this->_Ptr == 0)
; 281  : 			{	// report error
; 282  : 			_DEBUG_ERROR("map/set iterator not decrementable");
; 283  : 			_SCL_SECURE_OUT_OF_RANGE;
; 284  : 			}
; 285  : 
; 286  : 		_Nodeptr _Ptrsav = this->_Ptr;
; 287  : 		--(*(_Mybase *)this);
; 288  : 		if (_Ptrsav == this->_Ptr)
; 289  : 			{	// report error
; 290  : 			_DEBUG_ERROR("map/set iterator not decrementable");
; 291  : 			_SCL_SECURE_OUT_OF_RANGE;
; 292  : 			}
; 293  : 
; 294  :  #elif _ITERATOR_DEBUG_LEVEL == 1
; 295  : 		_SCL_SECURE_VALIDATE(this->_Getcont() != 0 && this->_Ptr != 0);
; 296  : 
; 297  : 		_Nodeptr _Ptrsav = this->_Ptr;
; 298  : 		--(*(_Mybase *)this);
; 299  : 		_SCL_SECURE_VALIDATE(_Ptrsav != this->_Ptr);
; 300  : 
; 301  :  #else /* _ITERATOR_DEBUG_LEVEL == 0 */
; 302  : 		--(*(_Mybase *)this);

  00003	e8 00 00 00 00	 call	 ??F?$_Tree_unchecked_const_iterator@V?$_Tree_val@V?$_Tmap_traits@HV?$vector@VioHashString@@V?$allocator@VioHashString@@@std@@@std@@U?$less@H@2@V?$allocator@U?$pair@$$CBHV?$vector@VioHashString@@V?$allocator@VioHashString@@@std@@@std@@@std@@@2@$0A@@std@@@std@@U_Iterator_base0@2@@std@@QAEAAV01@XZ ; std::_Tree_unchecked_const_iterator<std::_Tree_val<std::_Tmap_traits<int,std::vector<ioHashString,std::allocator<ioHashString> >,std::less<int>,std::allocator<std::pair<int const ,std::vector<ioHashString,std::allocator<ioHashString> > > >,0> >,std::_Iterator_base0>::operator--

; 303  :  #endif /* _ITERATOR_DEBUG_LEVEL */
; 304  : 
; 305  : 		return (*this);

  00008	8b c6		 mov	 eax, esi
  0000a	5e		 pop	 esi

; 306  : 		}

  0000b	c3		 ret	 0
??F?$_Tree_const_iterator@V?$_Tree_val@V?$_Tmap_traits@HV?$vector@VioHashString@@V?$allocator@VioHashString@@@std@@@std@@U?$less@H@2@V?$allocator@U?$pair@$$CBHV?$vector@VioHashString@@V?$allocator@VioHashString@@@std@@@std@@@std@@@2@$0A@@std@@@std@@@std@@QAEAAV01@XZ ENDP ; std::_Tree_const_iterator<std::_Tree_val<std::_Tmap_traits<int,std::vector<ioHashString,std::allocator<ioHashString> >,std::less<int>,std::allocator<std::pair<int const ,std::vector<ioHashString,std::allocator<ioHashString> > > >,0> > >::operator--
_TEXT	ENDS
PUBLIC	?_Grow_to@?$vector@VioHashString@@V?$allocator@VioHashString@@@std@@@std@@IBEII@Z ; std::vector<ioHashString,std::allocator<ioHashString> >::_Grow_to
; Function compile flags: /Ogsp
; File c:\program files (x86)\microsoft visual studio 10.0\vc\include\vector
;	COMDAT ?_Grow_to@?$vector@VioHashString@@V?$allocator@VioHashString@@@std@@@std@@IBEII@Z
_TEXT	SEGMENT
__Count$ = 8						; size = 4
?_Grow_to@?$vector@VioHashString@@V?$allocator@VioHashString@@@std@@@std@@IBEII@Z PROC ; std::vector<ioHashString,std::allocator<ioHashString> >::_Grow_to, COMDAT
; _this$ = ecx

; 1274 : 		{	// grow by 50% or at least to _Count

  00000	55		 push	 ebp
  00001	8b ec		 mov	 ebp, esp

; 1275 : 		size_type _Capacity = capacity();

  00003	8b 41 08	 mov	 eax, DWORD PTR [ecx+8]
  00006	2b 01		 sub	 eax, DWORD PTR [ecx]

; 1276 : 
; 1277 : 		_Capacity = max_size() - _Capacity / 2 < _Capacity
; 1278 : 			? 0 : _Capacity + _Capacity / 2;	// try to grow by 50%

  00008	ba ff ff ff 0f	 mov	 edx, 268435455		; 0fffffffH
  0000d	c1 f8 04	 sar	 eax, 4
  00010	8b c8		 mov	 ecx, eax
  00012	d1 e9		 shr	 ecx, 1
  00014	2b d1		 sub	 edx, ecx
  00016	3b d0		 cmp	 edx, eax
  00018	73 04		 jae	 SHORT $LN4@Grow_to
  0001a	33 c0		 xor	 eax, eax
  0001c	eb 02		 jmp	 SHORT $LN5@Grow_to
$LN4@Grow_to:
  0001e	03 c1		 add	 eax, ecx
$LN5@Grow_to:

; 1279 : 		if (_Capacity < _Count)

  00020	3b 45 08	 cmp	 eax, DWORD PTR __Count$[ebp]

; 1280 : 			_Capacity = _Count;

  00023	0f 42 45 08	 cmovb	 eax, DWORD PTR __Count$[ebp]

; 1281 : 		return (_Capacity);
; 1282 : 		}

  00027	5d		 pop	 ebp
  00028	c2 04 00	 ret	 4
?_Grow_to@?$vector@VioHashString@@V?$allocator@VioHashString@@@std@@@std@@IBEII@Z ENDP ; std::vector<ioHashString,std::allocator<ioHashString> >::_Grow_to
_TEXT	ENDS
PUBLIC	?_Lbound@?$_Tree@V?$_Tmap_traits@HV?$vector@VioHashString@@V?$allocator@VioHashString@@@std@@@std@@U?$less@H@2@V?$allocator@U?$pair@$$CBHV?$vector@VioHashString@@V?$allocator@VioHashString@@@std@@@std@@@std@@@2@$0A@@std@@@std@@IAEPAU_Node@?$_Tree_nod@V?$_Tmap_traits@HV?$vector@VioHashString@@V?$allocator@VioHashString@@@std@@@std@@U?$less@H@2@V?$allocator@U?$pair@$$CBHV?$vector@VioHashString@@V?$allocator@VioHashString@@@std@@@std@@@std@@@2@$0A@@std@@@2@ABH@Z ; std::_Tree<std::_Tmap_traits<int,std::vector<ioHashString,std::allocator<ioHashString> >,std::less<int>,std::allocator<std::pair<int const ,std::vector<ioHashString,std::allocator<ioHashString> > > >,0> >::_Lbound
; Function compile flags: /Ogsp
; File c:\program files (x86)\microsoft visual studio 10.0\vc\include\xtree
;	COMDAT ?_Lbound@?$_Tree@V?$_Tmap_traits@HV?$vector@VioHashString@@V?$allocator@VioHashString@@@std@@@std@@U?$less@H@2@V?$allocator@U?$pair@$$CBHV?$vector@VioHashString@@V?$allocator@VioHashString@@@std@@@std@@@std@@@2@$0A@@std@@@std@@IAEPAU_Node@?$_Tree_nod@V?$_Tmap_traits@HV?$vector@VioHashString@@V?$allocator@VioHashString@@@std@@@std@@U?$less@H@2@V?$allocator@U?$pair@$$CBHV?$vector@VioHashString@@V?$allocator@VioHashString@@@std@@@std@@@std@@@2@$0A@@std@@@2@ABH@Z
_TEXT	SEGMENT
__Keyval$ = 8						; size = 4
?_Lbound@?$_Tree@V?$_Tmap_traits@HV?$vector@VioHashString@@V?$allocator@VioHashString@@@std@@@std@@U?$less@H@2@V?$allocator@U?$pair@$$CBHV?$vector@VioHashString@@V?$allocator@VioHashString@@@std@@@std@@@std@@@2@$0A@@std@@@std@@IAEPAU_Node@?$_Tree_nod@V?$_Tmap_traits@HV?$vector@VioHashString@@V?$allocator@VioHashString@@@std@@@std@@U?$less@H@2@V?$allocator@U?$pair@$$CBHV?$vector@VioHashString@@V?$allocator@VioHashString@@@std@@@std@@@std@@@2@$0A@@std@@@2@ABH@Z PROC ; std::_Tree<std::_Tmap_traits<int,std::vector<ioHashString,std::allocator<ioHashString> >,std::less<int>,std::allocator<std::pair<int const ,std::vector<ioHashString,std::allocator<ioHashString> > > >,0> >::_Lbound, COMDAT
; _this$ = ecx

; 1741 : 		{	// find leftmost node not less than _Keyval

  00000	55		 push	 ebp
  00001	8b ec		 mov	 ebp, esp

; 1742 : 		_Nodeptr _Pnode = _Root();

  00003	8b 41 04	 mov	 eax, DWORD PTR [ecx+4]
  00006	8b 48 04	 mov	 ecx, DWORD PTR [eax+4]

; 1743 : 		_Nodeptr _Wherenode = this->_Myhead;	// end() if search fails
; 1744 : 
; 1745 : 		while (!this->_Isnil(_Pnode))

  00009	80 79 21 00	 cmp	 BYTE PTR [ecx+33], 0
  0000d	75 19		 jne	 SHORT $LN3@Lbound
  0000f	8b 55 08	 mov	 edx, DWORD PTR __Keyval$[ebp]
  00012	8b 12		 mov	 edx, DWORD PTR [edx]
$LL4@Lbound:

; 1746 : 			if (_DEBUG_LT_PRED(this->comp, this->_Key(_Pnode), _Keyval))

  00014	39 51 0c	 cmp	 DWORD PTR [ecx+12], edx
  00017	7d 05		 jge	 SHORT $LN2@Lbound

; 1747 : 				_Pnode = this->_Right(_Pnode);	// descend right subtree

  00019	8b 49 08	 mov	 ecx, DWORD PTR [ecx+8]

; 1748 : 			else

  0001c	eb 04		 jmp	 SHORT $LN1@Lbound
$LN2@Lbound:

; 1749 : 				{	// _Pnode not less than _Keyval, remember it
; 1750 : 				_Wherenode = _Pnode;

  0001e	8b c1		 mov	 eax, ecx

; 1751 : 				_Pnode = this->_Left(_Pnode);	// descend left subtree

  00020	8b 09		 mov	 ecx, DWORD PTR [ecx]
$LN1@Lbound:

; 1743 : 		_Nodeptr _Wherenode = this->_Myhead;	// end() if search fails
; 1744 : 
; 1745 : 		while (!this->_Isnil(_Pnode))

  00022	80 79 21 00	 cmp	 BYTE PTR [ecx+33], 0
  00026	74 ec		 je	 SHORT $LL4@Lbound
$LN3@Lbound:

; 1752 : 				}
; 1753 : 
; 1754 : 		return (_Wherenode);	// return best remembered candidate
; 1755 : 		}

  00028	5d		 pop	 ebp
  00029	c2 04 00	 ret	 4
?_Lbound@?$_Tree@V?$_Tmap_traits@HV?$vector@VioHashString@@V?$allocator@VioHashString@@@std@@@std@@U?$less@H@2@V?$allocator@U?$pair@$$CBHV?$vector@VioHashString@@V?$allocator@VioHashString@@@std@@@std@@@std@@@2@$0A@@std@@@std@@IAEPAU_Node@?$_Tree_nod@V?$_Tmap_traits@HV?$vector@VioHashString@@V?$allocator@VioHashString@@@std@@@std@@U?$less@H@2@V?$allocator@U?$pair@$$CBHV?$vector@VioHashString@@V?$allocator@VioHashString@@@std@@@std@@@std@@@2@$0A@@std@@@2@ABH@Z ENDP ; std::_Tree<std::_Tmap_traits<int,std::vector<ioHashString,std::allocator<ioHashString> >,std::less<int>,std::allocator<std::pair<int const ,std::vector<ioHashString,std::allocator<ioHashString> > > >,0> >::_Lbound
_TEXT	ENDS
PUBLIC	??0?$_Tree_val@V?$_Tmap_traits@HV?$vector@VioHashString@@V?$allocator@VioHashString@@@std@@@std@@U?$less@H@2@V?$allocator@U?$pair@$$CBHV?$vector@VioHashString@@V?$allocator@VioHashString@@@std@@@std@@@std@@@2@$0A@@std@@@std@@QAE@ABU?$less@H@1@V?$allocator@U?$pair@$$CBHV?$vector@VioHashString@@V?$allocator@VioHashString@@@std@@@std@@@std@@@1@@Z ; std::_Tree_val<std::_Tmap_traits<int,std::vector<ioHashString,std::allocator<ioHashString> >,std::less<int>,std::allocator<std::pair<int const ,std::vector<ioHashString,std::allocator<ioHashString> > > >,0> >::_Tree_val<std::_Tmap_traits<int,std::vector<ioHashString,std::allocator<ioHashString> >,std::less<int>,std::allocator<std::pair<int const ,std::vector<ioHashString,std::allocator<ioHashString> > > >,0> >
; Function compile flags: /Ogsp
;	COMDAT ??0?$_Tree_val@V?$_Tmap_traits@HV?$vector@VioHashString@@V?$allocator@VioHashString@@@std@@@std@@U?$less@H@2@V?$allocator@U?$pair@$$CBHV?$vector@VioHashString@@V?$allocator@VioHashString@@@std@@@std@@@std@@@2@$0A@@std@@@std@@QAE@ABU?$less@H@1@V?$allocator@U?$pair@$$CBHV?$vector@VioHashString@@V?$allocator@VioHashString@@@std@@@std@@@std@@@1@@Z
_TEXT	SEGMENT
$T512388 = -16						; size = 12
$T512365 = -4						; size = 4
__Parg$ = 8						; size = 4
__Al$ = 12						; size = 1
??0?$_Tree_val@V?$_Tmap_traits@HV?$vector@VioHashString@@V?$allocator@VioHashString@@@std@@@std@@U?$less@H@2@V?$allocator@U?$pair@$$CBHV?$vector@VioHashString@@V?$allocator@VioHashString@@@std@@@std@@@std@@@2@$0A@@std@@@std@@QAE@ABU?$less@H@1@V?$allocator@U?$pair@$$CBHV?$vector@VioHashString@@V?$allocator@VioHashString@@@std@@@std@@@std@@@1@@Z PROC ; std::_Tree_val<std::_Tmap_traits<int,std::vector<ioHashString,std::allocator<ioHashString> >,std::less<int>,std::allocator<std::pair<int const ,std::vector<ioHashString,std::allocator<ioHashString> > > >,0> >::_Tree_val<std::_Tmap_traits<int,std::vector<ioHashString,std::allocator<ioHashString> >,std::less<int>,std::allocator<std::pair<int const ,std::vector<ioHashString,std::allocator<ioHashString> > > >,0> >, COMDAT
; _this$ = ecx

; 542  : 		{	// construct base, and allocator from _Al

  00000	55		 push	 ebp
  00001	8b ec		 mov	 ebp, esp
  00003	83 ec 10	 sub	 esp, 16			; 00000010H
  00006	56		 push	 esi
  00007	8b f1		 mov	 esi, ecx

; 543  : 		this->_Mysize = 0;

  00009	83 66 08 00	 and	 DWORD PTR [esi+8], 0

; 544  : 		this->_Myhead = this->_Alnod.allocate(1);

  0000d	6a 24		 push	 36			; 00000024H
  0000f	e8 00 00 00 00	 call	 ??2@YAPAXI@Z		; operator new
  00014	59		 pop	 ecx
  00015	85 c0		 test	 eax, eax
  00017	74 26		 je	 SHORT $LN15@Tree_val
  00019	89 46 04	 mov	 DWORD PTR [esi+4], eax

; 545  : 
; 546  : 		this->_Left(this->_Myhead) = this->_Myhead;

  0001c	89 00		 mov	 DWORD PTR [eax], eax

; 547  : 		this->_Parent(this->_Myhead) = this->_Myhead;

  0001e	8b 46 04	 mov	 eax, DWORD PTR [esi+4]
  00021	89 40 04	 mov	 DWORD PTR [eax+4], eax

; 548  : 		this->_Right(this->_Myhead) = this->_Myhead;

  00024	8b 46 04	 mov	 eax, DWORD PTR [esi+4]
  00027	89 40 08	 mov	 DWORD PTR [eax+8], eax

; 549  : 		this->_Color(this->_Myhead) = this->_Black;

  0002a	8b 46 04	 mov	 eax, DWORD PTR [esi+4]
  0002d	c6 40 20 01	 mov	 BYTE PTR [eax+32], 1

; 550  : 		this->_Isnil(this->_Myhead) = true;

  00031	8b 46 04	 mov	 eax, DWORD PTR [esi+4]
  00034	c6 40 21 01	 mov	 BYTE PTR [eax+33], 1

; 551  : 		}

  00038	8b c6		 mov	 eax, esi
  0003a	5e		 pop	 esi
  0003b	c9		 leave
  0003c	c2 08 00	 ret	 8

; 544  : 		this->_Myhead = this->_Alnod.allocate(1);

$LN15@Tree_val:
  0003f	83 65 fc 00	 and	 DWORD PTR $T512365[ebp], 0
  00043	8d 45 fc	 lea	 eax, DWORD PTR $T512365[ebp]
  00046	50		 push	 eax
  00047	8d 4d f0	 lea	 ecx, DWORD PTR $T512388[ebp]
  0004a	ff 15 00 00 00
	00		 call	 DWORD PTR __imp_??0exception@std@@QAE@ABQBD@Z
  00050	68 00 00 00 00	 push	 OFFSET __TI2?AVbad_alloc@std@@
  00055	8d 45 f0	 lea	 eax, DWORD PTR $T512388[ebp]
  00058	50		 push	 eax
  00059	c7 45 f0 00 00
	00 00		 mov	 DWORD PTR $T512388[ebp], OFFSET ??_7bad_alloc@std@@6B@
  00060	e8 00 00 00 00	 call	 __CxxThrowException@8
$LN37@Tree_val:
$LN36@Tree_val:
  00065	cc		 int	 3
??0?$_Tree_val@V?$_Tmap_traits@HV?$vector@VioHashString@@V?$allocator@VioHashString@@@std@@@std@@U?$less@H@2@V?$allocator@U?$pair@$$CBHV?$vector@VioHashString@@V?$allocator@VioHashString@@@std@@@std@@@std@@@2@$0A@@std@@@std@@QAE@ABU?$less@H@1@V?$allocator@U?$pair@$$CBHV?$vector@VioHashString@@V?$allocator@VioHashString@@@std@@@std@@@std@@@1@@Z ENDP ; std::_Tree_val<std::_Tmap_traits<int,std::vector<ioHashString,std::allocator<ioHashString> >,std::less<int>,std::allocator<std::pair<int const ,std::vector<ioHashString,std::allocator<ioHashString> > > >,0> >::_Tree_val<std::_Tmap_traits<int,std::vector<ioHashString,std::allocator<ioHashString> >,std::less<int>,std::allocator<std::pair<int const ,std::vector<ioHashString,std::allocator<ioHashString> > > >,0> >
_TEXT	ENDS
PUBLIC	??E?$_Tree_const_iterator@V?$_Tree_val@V?$_Tmap_traits@HV?$vector@VioHashString@@V?$allocator@VioHashString@@@std@@@std@@U?$less@H@2@V?$allocator@U?$pair@$$CBHV?$vector@VioHashString@@V?$allocator@VioHashString@@@std@@@std@@@std@@@2@$0A@@std@@@std@@@std@@QAE?AV01@H@Z ; std::_Tree_const_iterator<std::_Tree_val<std::_Tmap_traits<int,std::vector<ioHashString,std::allocator<ioHashString> >,std::less<int>,std::allocator<std::pair<int const ,std::vector<ioHashString,std::allocator<ioHashString> > > >,0> > >::operator++
; Function compile flags: /Ogsp
;	COMDAT ??E?$_Tree_const_iterator@V?$_Tree_val@V?$_Tmap_traits@HV?$vector@VioHashString@@V?$allocator@VioHashString@@@std@@@std@@U?$less@H@2@V?$allocator@U?$pair@$$CBHV?$vector@VioHashString@@V?$allocator@VioHashString@@@std@@@std@@@std@@@2@$0A@@std@@@std@@@std@@QAE?AV01@H@Z
_TEXT	SEGMENT
___$ReturnUdt$ = 8					; size = 4
___formal$ = 12						; size = 4
??E?$_Tree_const_iterator@V?$_Tree_val@V?$_Tmap_traits@HV?$vector@VioHashString@@V?$allocator@VioHashString@@@std@@@std@@U?$less@H@2@V?$allocator@U?$pair@$$CBHV?$vector@VioHashString@@V?$allocator@VioHashString@@@std@@@std@@@std@@@2@$0A@@std@@@std@@@std@@QAE?AV01@H@Z PROC ; std::_Tree_const_iterator<std::_Tree_val<std::_Tmap_traits<int,std::vector<ioHashString,std::allocator<ioHashString> >,std::less<int>,std::allocator<std::pair<int const ,std::vector<ioHashString,std::allocator<ioHashString> > > >,0> > >::operator++, COMDAT
; _this$ = ecx

; 270  : 		{	// postincrement

  00000	55		 push	 ebp
  00001	8b ec		 mov	 ebp, esp

; 271  : 		_Myiter _Tmp = *this;

  00003	8b 01		 mov	 eax, DWORD PTR [ecx]
  00005	56		 push	 esi
  00006	8b 75 08	 mov	 esi, DWORD PTR ___$ReturnUdt$[ebp]
  00009	89 06		 mov	 DWORD PTR [esi], eax

; 272  : 		++*this;

  0000b	e8 00 00 00 00	 call	 ??E?$_Tree_unchecked_const_iterator@V?$_Tree_val@V?$_Tmap_traits@HV?$vector@VioHashString@@V?$allocator@VioHashString@@@std@@@std@@U?$less@H@2@V?$allocator@U?$pair@$$CBHV?$vector@VioHashString@@V?$allocator@VioHashString@@@std@@@std@@@std@@@2@$0A@@std@@@std@@U_Iterator_base0@2@@std@@QAEAAV01@XZ ; std::_Tree_unchecked_const_iterator<std::_Tree_val<std::_Tmap_traits<int,std::vector<ioHashString,std::allocator<ioHashString> >,std::less<int>,std::allocator<std::pair<int const ,std::vector<ioHashString,std::allocator<ioHashString> > > >,0> >,std::_Iterator_base0>::operator++

; 273  : 		return (_Tmp);

  00010	8b c6		 mov	 eax, esi
  00012	5e		 pop	 esi

; 274  : 		}

  00013	5d		 pop	 ebp
  00014	c2 08 00	 ret	 8
??E?$_Tree_const_iterator@V?$_Tree_val@V?$_Tmap_traits@HV?$vector@VioHashString@@V?$allocator@VioHashString@@@std@@@std@@U?$less@H@2@V?$allocator@U?$pair@$$CBHV?$vector@VioHashString@@V?$allocator@VioHashString@@@std@@@std@@@std@@@2@$0A@@std@@@std@@@std@@QAE?AV01@H@Z ENDP ; std::_Tree_const_iterator<std::_Tree_val<std::_Tmap_traits<int,std::vector<ioHashString,std::allocator<ioHashString> >,std::less<int>,std::allocator<std::pair<int const ,std::vector<ioHashString,std::allocator<ioHashString> > > >,0> > >::operator++
_TEXT	ENDS
PUBLIC	??0?$pair@V?$_Tree_iterator@V?$_Tree_val@V?$_Tmap_traits@HV?$vector@VioHashString@@V?$allocator@VioHashString@@@std@@@std@@U?$less@H@2@V?$allocator@U?$pair@$$CBHV?$vector@VioHashString@@V?$allocator@VioHashString@@@std@@@std@@@std@@@2@$0A@@std@@@std@@@std@@_N@std@@QAE@$$QAV?$_Tree_iterator@V?$_Tree_val@V?$_Tmap_traits@HV?$vector@VioHashString@@V?$allocator@VioHashString@@@std@@@std@@U?$less@H@2@V?$allocator@U?$pair@$$CBHV?$vector@VioHashString@@V?$allocator@VioHashString@@@std@@@std@@@std@@@2@$0A@@std@@@std@@@1@$$QA_N@Z ; std::pair<std::_Tree_iterator<std::_Tree_val<std::_Tmap_traits<int,std::vector<ioHashString,std::allocator<ioHashString> >,std::less<int>,std::allocator<std::pair<int const ,std::vector<ioHashString,std::allocator<ioHashString> > > >,0> > >,bool>::pair<std::_Tree_iterator<std::_Tree_val<std::_Tmap_traits<int,std::vector<ioHashString,std::allocator<ioHashString> >,std::less<int>,std::allocator<std::pair<int const ,std::vector<ioHashString,std::allocator<ioHashString> > > >,0> > >,bool>
; Function compile flags: /Ogsp
; File c:\program files (x86)\microsoft visual studio 10.0\vc\include\utility
;	COMDAT ??0?$pair@V?$_Tree_iterator@V?$_Tree_val@V?$_Tmap_traits@HV?$vector@VioHashString@@V?$allocator@VioHashString@@@std@@@std@@U?$less@H@2@V?$allocator@U?$pair@$$CBHV?$vector@VioHashString@@V?$allocator@VioHashString@@@std@@@std@@@std@@@2@$0A@@std@@@std@@@std@@_N@std@@QAE@$$QAV?$_Tree_iterator@V?$_Tree_val@V?$_Tmap_traits@HV?$vector@VioHashString@@V?$allocator@VioHashString@@@std@@@std@@U?$less@H@2@V?$allocator@U?$pair@$$CBHV?$vector@VioHashString@@V?$allocator@VioHashString@@@std@@@std@@@std@@@2@$0A@@std@@@std@@@1@$$QA_N@Z
_TEXT	SEGMENT
__Val1$ = 8						; size = 4
__Val2$ = 12						; size = 4
??0?$pair@V?$_Tree_iterator@V?$_Tree_val@V?$_Tmap_traits@HV?$vector@VioHashString@@V?$allocator@VioHashString@@@std@@@std@@U?$less@H@2@V?$allocator@U?$pair@$$CBHV?$vector@VioHashString@@V?$allocator@VioHashString@@@std@@@std@@@std@@@2@$0A@@std@@@std@@@std@@_N@std@@QAE@$$QAV?$_Tree_iterator@V?$_Tree_val@V?$_Tmap_traits@HV?$vector@VioHashString@@V?$allocator@VioHashString@@@std@@@std@@U?$less@H@2@V?$allocator@U?$pair@$$CBHV?$vector@VioHashString@@V?$allocator@VioHashString@@@std@@@std@@@std@@@2@$0A@@std@@@std@@@1@$$QA_N@Z PROC ; std::pair<std::_Tree_iterator<std::_Tree_val<std::_Tmap_traits<int,std::vector<ioHashString,std::allocator<ioHashString> >,std::less<int>,std::allocator<std::pair<int const ,std::vector<ioHashString,std::allocator<ioHashString> > > >,0> > >,bool>::pair<std::_Tree_iterator<std::_Tree_val<std::_Tmap_traits<int,std::vector<ioHashString,std::allocator<ioHashString> >,std::less<int>,std::allocator<std::pair<int const ,std::vector<ioHashString,std::allocator<ioHashString> > > >,0> > >,bool>, COMDAT
; _this$ = ecx

; 227  : 		{	// construct from specified values

  00000	55		 push	 ebp
  00001	8b ec		 mov	 ebp, esp
  00003	8b c1		 mov	 eax, ecx
  00005	8b 4d 08	 mov	 ecx, DWORD PTR __Val1$[ebp]
  00008	8b 09		 mov	 ecx, DWORD PTR [ecx]
  0000a	89 08		 mov	 DWORD PTR [eax], ecx
  0000c	8b 4d 0c	 mov	 ecx, DWORD PTR __Val2$[ebp]
  0000f	8a 09		 mov	 cl, BYTE PTR [ecx]
  00011	88 48 04	 mov	 BYTE PTR [eax+4], cl

; 228  : 		}

  00014	5d		 pop	 ebp
  00015	c2 08 00	 ret	 8
??0?$pair@V?$_Tree_iterator@V?$_Tree_val@V?$_Tmap_traits@HV?$vector@VioHashString@@V?$allocator@VioHashString@@@std@@@std@@U?$less@H@2@V?$allocator@U?$pair@$$CBHV?$vector@VioHashString@@V?$allocator@VioHashString@@@std@@@std@@@std@@@2@$0A@@std@@@std@@@std@@_N@std@@QAE@$$QAV?$_Tree_iterator@V?$_Tree_val@V?$_Tmap_traits@HV?$vector@VioHashString@@V?$allocator@VioHashString@@@std@@@std@@U?$less@H@2@V?$allocator@U?$pair@$$CBHV?$vector@VioHashString@@V?$allocator@VioHashString@@@std@@@std@@@std@@@2@$0A@@std@@@std@@@1@$$QA_N@Z ENDP ; std::pair<std::_Tree_iterator<std::_Tree_val<std::_Tmap_traits<int,std::vector<ioHashString,std::allocator<ioHashString> >,std::less<int>,std::allocator<std::pair<int const ,std::vector<ioHashString,std::allocator<ioHashString> > > >,0> > >,bool>::pair<std::_Tree_iterator<std::_Tree_val<std::_Tmap_traits<int,std::vector<ioHashString,std::allocator<ioHashString> >,std::less<int>,std::allocator<std::pair<int const ,std::vector<ioHashString,std::allocator<ioHashString> > > >,0> > >,bool>
_TEXT	ENDS
PUBLIC	??$?0AAV?$_Tree_iterator@V?$_Tree_val@V?$_Tmap_traits@HV?$vector@VioHashString@@V?$allocator@VioHashString@@@std@@@std@@U?$less@H@2@V?$allocator@U?$pair@$$CBHV?$vector@VioHashString@@V?$allocator@VioHashString@@@std@@@std@@@std@@@2@$0A@@std@@@std@@@std@@_N@?$pair@V?$_Tree_iterator@V?$_Tree_val@V?$_Tmap_traits@HV?$vector@VioHashString@@V?$allocator@VioHashString@@@std@@@std@@U?$less@H@2@V?$allocator@U?$pair@$$CBHV?$vector@VioHashString@@V?$allocator@VioHashString@@@std@@@std@@@std@@@2@$0A@@std@@@std@@@std@@_N@std@@QAE@AAV?$_Tree_iterator@V?$_Tree_val@V?$_Tmap_traits@HV?$vector@VioHashString@@V?$allocator@VioHashString@@@std@@@std@@U?$less@H@2@V?$allocator@U?$pair@$$CBHV?$vector@VioHashString@@V?$allocator@VioHashString@@@std@@@std@@@std@@@2@$0A@@std@@@std@@@1@$$QA_N@Z ; std::pair<std::_Tree_iterator<std::_Tree_val<std::_Tmap_traits<int,std::vector<ioHashString,std::allocator<ioHashString> >,std::less<int>,std::allocator<std::pair<int const ,std::vector<ioHashString,std::allocator<ioHashString> > > >,0> > >,bool>::pair<std::_Tree_iterator<std::_Tree_val<std::_Tmap_traits<int,std::vector<ioHashString,std::allocator<ioHashString> >,std::less<int>,std::allocator<std::pair<int const ,std::vector<ioHashString,std::allocator<ioHashString> > > >,0> > >,bool><std::_Tree_iterator<std::_Tree_val<std::_Tmap_traits<int,std::vector<ioHashString,std::allocator<ioHashString> >,std::less<int>,std::allocator<std::pair<int const ,std::vector<ioHashString,std::allocator<ioHashString> > > >,0> > > &,bool>
; Function compile flags: /Ogsp
;	COMDAT ??$?0AAV?$_Tree_iterator@V?$_Tree_val@V?$_Tmap_traits@HV?$vector@VioHashString@@V?$allocator@VioHashString@@@std@@@std@@U?$less@H@2@V?$allocator@U?$pair@$$CBHV?$vector@VioHashString@@V?$allocator@VioHashString@@@std@@@std@@@std@@@2@$0A@@std@@@std@@@std@@_N@?$pair@V?$_Tree_iterator@V?$_Tree_val@V?$_Tmap_traits@HV?$vector@VioHashString@@V?$allocator@VioHashString@@@std@@@std@@U?$less@H@2@V?$allocator@U?$pair@$$CBHV?$vector@VioHashString@@V?$allocator@VioHashString@@@std@@@std@@@std@@@2@$0A@@std@@@std@@@std@@_N@std@@QAE@AAV?$_Tree_iterator@V?$_Tree_val@V?$_Tmap_traits@HV?$vector@VioHashString@@V?$allocator@VioHashString@@@std@@@std@@U?$less@H@2@V?$allocator@U?$pair@$$CBHV?$vector@VioHashString@@V?$allocator@VioHashString@@@std@@@std@@@std@@@2@$0A@@std@@@std@@@1@$$QA_N@Z
_TEXT	SEGMENT
__Val1$ = 8						; size = 4
__Val2$ = 12						; size = 4
??$?0AAV?$_Tree_iterator@V?$_Tree_val@V?$_Tmap_traits@HV?$vector@VioHashString@@V?$allocator@VioHashString@@@std@@@std@@U?$less@H@2@V?$allocator@U?$pair@$$CBHV?$vector@VioHashString@@V?$allocator@VioHashString@@@std@@@std@@@std@@@2@$0A@@std@@@std@@@std@@_N@?$pair@V?$_Tree_iterator@V?$_Tree_val@V?$_Tmap_traits@HV?$vector@VioHashString@@V?$allocator@VioHashString@@@std@@@std@@U?$less@H@2@V?$allocator@U?$pair@$$CBHV?$vector@VioHashString@@V?$allocator@VioHashString@@@std@@@std@@@std@@@2@$0A@@std@@@std@@@std@@_N@std@@QAE@AAV?$_Tree_iterator@V?$_Tree_val@V?$_Tmap_traits@HV?$vector@VioHashString@@V?$allocator@VioHashString@@@std@@@std@@U?$less@H@2@V?$allocator@U?$pair@$$CBHV?$vector@VioHashString@@V?$allocator@VioHashString@@@std@@@std@@@std@@@2@$0A@@std@@@std@@@1@$$QA_N@Z PROC ; std::pair<std::_Tree_iterator<std::_Tree_val<std::_Tmap_traits<int,std::vector<ioHashString,std::allocator<ioHashString> >,std::less<int>,std::allocator<std::pair<int const ,std::vector<ioHashString,std::allocator<ioHashString> > > >,0> > >,bool>::pair<std::_Tree_iterator<std::_Tree_val<std::_Tmap_traits<int,std::vector<ioHashString,std::allocator<ioHashString> >,std::less<int>,std::allocator<std::pair<int const ,std::vector<ioHashString,std::allocator<ioHashString> > > >,0> > >,bool><std::_Tree_iterator<std::_Tree_val<std::_Tmap_traits<int,std::vector<ioHashString,std::allocator<ioHashString> >,std::less<int>,std::allocator<std::pair<int const ,std::vector<ioHashString,std::allocator<ioHashString> > > >,0> > > &,bool>, COMDAT
; _this$ = ecx

; 247  : 		{	// construct from moved values

  00000	55		 push	 ebp
  00001	8b ec		 mov	 ebp, esp
  00003	8b c1		 mov	 eax, ecx
  00005	8b 4d 08	 mov	 ecx, DWORD PTR __Val1$[ebp]
  00008	8b 09		 mov	 ecx, DWORD PTR [ecx]
  0000a	89 08		 mov	 DWORD PTR [eax], ecx
  0000c	8b 4d 0c	 mov	 ecx, DWORD PTR __Val2$[ebp]
  0000f	8a 09		 mov	 cl, BYTE PTR [ecx]
  00011	88 48 04	 mov	 BYTE PTR [eax+4], cl

; 248  : 		}

  00014	5d		 pop	 ebp
  00015	c2 08 00	 ret	 8
??$?0AAV?$_Tree_iterator@V?$_Tree_val@V?$_Tmap_traits@HV?$vector@VioHashString@@V?$allocator@VioHashString@@@std@@@std@@U?$less@H@2@V?$allocator@U?$pair@$$CBHV?$vector@VioHashString@@V?$allocator@VioHashString@@@std@@@std@@@std@@@2@$0A@@std@@@std@@@std@@_N@?$pair@V?$_Tree_iterator@V?$_Tree_val@V?$_Tmap_traits@HV?$vector@VioHashString@@V?$allocator@VioHashString@@@std@@@std@@U?$less@H@2@V?$allocator@U?$pair@$$CBHV?$vector@VioHashString@@V?$allocator@VioHashString@@@std@@@std@@@std@@@2@$0A@@std@@@std@@@std@@_N@std@@QAE@AAV?$_Tree_iterator@V?$_Tree_val@V?$_Tmap_traits@HV?$vector@VioHashString@@V?$allocator@VioHashString@@@std@@@std@@U?$less@H@2@V?$allocator@U?$pair@$$CBHV?$vector@VioHashString@@V?$allocator@VioHashString@@@std@@@std@@@std@@@2@$0A@@std@@@std@@@1@$$QA_N@Z ENDP ; std::pair<std::_Tree_iterator<std::_Tree_val<std::_Tmap_traits<int,std::vector<ioHashString,std::allocator<ioHashString> >,std::less<int>,std::allocator<std::pair<int const ,std::vector<ioHashString,std::allocator<ioHashString> > > >,0> > >,bool>::pair<std::_Tree_iterator<std::_Tree_val<std::_Tmap_traits<int,std::vector<ioHashString,std::allocator<ioHashString> >,std::less<int>,std::allocator<std::pair<int const ,std::vector<ioHashString,std::allocator<ioHashString> > > >,0> > >,bool><std::_Tree_iterator<std::_Tree_val<std::_Tmap_traits<int,std::vector<ioHashString,std::allocator<ioHashString> >,std::less<int>,std::allocator<std::pair<int const ,std::vector<ioHashString,std::allocator<ioHashString> > > >,0> > > &,bool>
_TEXT	ENDS
PUBLIC	??$_Cons_val@V?$allocator@VioHashString@@@std@@VioHashString@@AAV3@@std@@YAXAAV?$allocator@VioHashString@@@0@PAVioHashString@@AAV2@@Z ; std::_Cons_val<std::allocator<ioHashString>,ioHashString,ioHashString &>
; Function compile flags: /Ogsp
; File c:\program files (x86)\microsoft visual studio 10.0\vc\include\xmemory
;	COMDAT ??$_Cons_val@V?$allocator@VioHashString@@@std@@VioHashString@@AAV3@@std@@YAXAAV?$allocator@VioHashString@@@0@PAVioHashString@@AAV2@@Z
_TEXT	SEGMENT
__Alval$ = 8						; size = 4
__Pdest$ = 12						; size = 4
__Src$ = 16						; size = 4
??$_Cons_val@V?$allocator@VioHashString@@@std@@VioHashString@@AAV3@@std@@YAXAAV?$allocator@VioHashString@@@0@PAVioHashString@@AAV2@@Z PROC ; std::_Cons_val<std::allocator<ioHashString>,ioHashString,ioHashString &>, COMDAT

; 279  : 	{	// construct using allocator

  00000	55		 push	 ebp
  00001	8b ec		 mov	 ebp, esp

; 280  : 	_Alval.construct(_Pdest, _STD forward<_Ty2>(_Src));

  00003	ff 75 10	 push	 DWORD PTR __Src$[ebp]
  00006	8b 4d 08	 mov	 ecx, DWORD PTR __Alval$[ebp]
  00009	ff 75 0c	 push	 DWORD PTR __Pdest$[ebp]
  0000c	e8 00 00 00 00	 call	 ??$construct@AAVioHashString@@@?$allocator@VioHashString@@@std@@QAEXPAVioHashString@@AAV2@@Z ; std::allocator<ioHashString>::construct<ioHashString &>

; 281  : 	}

  00011	5d		 pop	 ebp
  00012	c3		 ret	 0
??$_Cons_val@V?$allocator@VioHashString@@@std@@VioHashString@@AAV3@@std@@YAXAAV?$allocator@VioHashString@@@0@PAVioHashString@@AAV2@@Z ENDP ; std::_Cons_val<std::allocator<ioHashString>,ioHashString,ioHashString &>
_TEXT	ENDS
PUBLIC	??0?$vector@VioHashString@@V?$allocator@VioHashString@@@std@@@std@@QAE@XZ ; std::vector<ioHashString,std::allocator<ioHashString> >::vector<ioHashString,std::allocator<ioHashString> >
; Function compile flags: /Ogsp
; File c:\program files (x86)\microsoft visual studio 10.0\vc\include\vector
;	COMDAT ??0?$vector@VioHashString@@V?$allocator@VioHashString@@@std@@@std@@QAE@XZ
_TEXT	SEGMENT
??0?$vector@VioHashString@@V?$allocator@VioHashString@@@std@@@std@@QAE@XZ PROC ; std::vector<ioHashString,std::allocator<ioHashString> >::vector<ioHashString,std::allocator<ioHashString> >, COMDAT
; _this$ = ecx

; 507  : 		{	// construct empty vector

  00000	8b c1		 mov	 eax, ecx
  00002	33 c9		 xor	 ecx, ecx
  00004	89 08		 mov	 DWORD PTR [eax], ecx
  00006	89 48 04	 mov	 DWORD PTR [eax+4], ecx
  00009	89 48 08	 mov	 DWORD PTR [eax+8], ecx

; 508  : 		}

  0000c	c3		 ret	 0
??0?$vector@VioHashString@@V?$allocator@VioHashString@@@std@@@std@@QAE@XZ ENDP ; std::vector<ioHashString,std::allocator<ioHashString> >::vector<ioHashString,std::allocator<ioHashString> >
_TEXT	ENDS
PUBLIC	?_Buy@?$vector@VioHashString@@V?$allocator@VioHashString@@@std@@@std@@IAE_NI@Z ; std::vector<ioHashString,std::allocator<ioHashString> >::_Buy
; Function compile flags: /Ogsp
;	COMDAT ?_Buy@?$vector@VioHashString@@V?$allocator@VioHashString@@@std@@@std@@IAE_NI@Z
_TEXT	SEGMENT
__Capacity$ = 8						; size = 4
?_Buy@?$vector@VioHashString@@V?$allocator@VioHashString@@@std@@@std@@IAE_NI@Z PROC ; std::vector<ioHashString,std::allocator<ioHashString> >::_Buy, COMDAT
; _this$ = ecx

; 1250 : 		{	// allocate array with _Capacity elements

  00000	55		 push	 ebp
  00001	8b ec		 mov	 ebp, esp
  00003	56		 push	 esi

; 1251 : 		this->_Myfirst = 0;

  00004	33 c0		 xor	 eax, eax
  00006	57		 push	 edi

; 1252 : 		this->_Mylast = 0;
; 1253 : 		this->_Myend = 0;
; 1254 : 
; 1255 : 		if (_Capacity == 0)

  00007	8b 7d 08	 mov	 edi, DWORD PTR __Capacity$[ebp]
  0000a	8b f1		 mov	 esi, ecx
  0000c	89 06		 mov	 DWORD PTR [esi], eax
  0000e	89 46 04	 mov	 DWORD PTR [esi+4], eax
  00011	89 46 08	 mov	 DWORD PTR [esi+8], eax
  00014	3b f8		 cmp	 edi, eax
  00016	75 04		 jne	 SHORT $LN4@Buy

; 1256 : 			return (false);

  00018	32 c0		 xor	 al, al
  0001a	eb 2b		 jmp	 SHORT $LN5@Buy
$LN4@Buy:

; 1257 : 		else if (max_size() < _Capacity)

  0001c	81 ff ff ff ff
	0f		 cmp	 edi, 268435455		; 0fffffffH
  00022	76 0b		 jbe	 SHORT $LN2@Buy

; 1258 : 			_Xlen();	// result too long

  00024	68 00 00 00 00	 push	 OFFSET ??_C@_0BD@OLBABOEK@vector?$DMT?$DO?5too?5long?$AA@
  00029	ff 15 00 00 00
	00		 call	 DWORD PTR __imp_?_Xlength_error@std@@YAXPBD@Z
$LN19@Buy:
$LN2@Buy:

; 1259 : 		else
; 1260 : 			{	// nonempty array, allocate storage
; 1261 : 			this->_Myfirst = this->_Alval.allocate(_Capacity);

  0002f	50		 push	 eax
  00030	57		 push	 edi
  00031	e8 00 00 00 00	 call	 ??$_Allocate@VioHashString@@@std@@YAPAVioHashString@@IPAV1@@Z ; std::_Allocate<ioHashString>

; 1262 : 			this->_Mylast = this->_Myfirst;
; 1263 : 			this->_Myend = this->_Myfirst + _Capacity;

  00036	c1 e7 04	 shl	 edi, 4
  00039	03 f8		 add	 edi, eax
  0003b	59		 pop	 ecx
  0003c	89 06		 mov	 DWORD PTR [esi], eax
  0003e	89 46 04	 mov	 DWORD PTR [esi+4], eax
  00041	59		 pop	 ecx
  00042	89 7e 08	 mov	 DWORD PTR [esi+8], edi

; 1264 : 			}
; 1265 : 		return (true);

  00045	b0 01		 mov	 al, 1
$LN5@Buy:
  00047	5f		 pop	 edi
  00048	5e		 pop	 esi

; 1266 : 		}

  00049	5d		 pop	 ebp
  0004a	c2 04 00	 ret	 4
$LN18@Buy:
?_Buy@?$vector@VioHashString@@V?$allocator@VioHashString@@@std@@@std@@IAE_NI@Z ENDP ; std::vector<ioHashString,std::allocator<ioHashString> >::_Buy
_TEXT	ENDS
PUBLIC	??9?$_Vector_const_iterator@V?$_Vector_val@VioHashString@@V?$allocator@VioHashString@@@std@@@std@@@std@@QBE_NABV01@@Z ; std::_Vector_const_iterator<std::_Vector_val<ioHashString,std::allocator<ioHashString> > >::operator!=
; Function compile flags: /Ogsp
;	COMDAT ??9?$_Vector_const_iterator@V?$_Vector_val@VioHashString@@V?$allocator@VioHashString@@@std@@@std@@@std@@QBE_NABV01@@Z
_TEXT	SEGMENT
__Right$ = 8						; size = 4
??9?$_Vector_const_iterator@V?$_Vector_val@VioHashString@@V?$allocator@VioHashString@@@std@@@std@@@std@@QBE_NABV01@@Z PROC ; std::_Vector_const_iterator<std::_Vector_val<ioHashString,std::allocator<ioHashString> > >::operator!=, COMDAT
; _this$ = ecx

; 207  : 		{	// test for iterator inequality

  00000	55		 push	 ebp
  00001	8b ec		 mov	 ebp, esp

; 208  : 		return (!(*this == _Right));

  00003	8b 01		 mov	 eax, DWORD PTR [ecx]
  00005	8b 55 08	 mov	 edx, DWORD PTR __Right$[ebp]
  00008	33 c9		 xor	 ecx, ecx
  0000a	3b 02		 cmp	 eax, DWORD PTR [edx]
  0000c	0f 95 c0	 setne	 al

; 209  : 		}

  0000f	5d		 pop	 ebp
  00010	c2 04 00	 ret	 4
??9?$_Vector_const_iterator@V?$_Vector_val@VioHashString@@V?$allocator@VioHashString@@@std@@@std@@@std@@QBE_NABV01@@Z ENDP ; std::_Vector_const_iterator<std::_Vector_val<ioHashString,std::allocator<ioHashString> > >::operator!=
_TEXT	ENDS
PUBLIC	??$_Move@PAVioHashString@@PAV1@@std@@YAPAVioHashString@@PAV1@00@Z ; std::_Move<ioHashString *,ioHashString *>
; Function compile flags: /Ogsp
; File c:\program files (x86)\microsoft visual studio 10.0\vc\include\xutility
;	COMDAT ??$_Move@PAVioHashString@@PAV1@@std@@YAPAVioHashString@@PAV1@00@Z
_TEXT	SEGMENT
__Cat$512523 = -4					; size = 1
__First$ = 8						; size = 4
__Last$ = 12						; size = 4
__Dest$ = 16						; size = 4
??$_Move@PAVioHashString@@PAV1@@std@@YAPAVioHashString@@PAV1@00@Z PROC ; std::_Move<ioHashString *,ioHashString *>, COMDAT

; 2533 : 	{	// move [_First, _Last) to [_Dest, ...), unchecked

  00000	55		 push	 ebp
  00001	8b ec		 mov	 ebp, esp
  00003	51		 push	 ecx

; 2534 : 	return (_Move(_First, _Last,
; 2535 : 		_Dest, _Ptr_cat(_First, _Dest)));

  00004	ff 75 fc	 push	 DWORD PTR __Cat$512523[ebp]
  00007	ff 75 10	 push	 DWORD PTR __Dest$[ebp]
  0000a	ff 75 0c	 push	 DWORD PTR __Last$[ebp]
  0000d	ff 75 08	 push	 DWORD PTR __First$[ebp]
  00010	e8 00 00 00 00	 call	 ??$_Move@PAVioHashString@@PAV1@@std@@YAPAVioHashString@@PAV1@00U_Nonscalar_ptr_iterator_tag@0@@Z ; std::_Move<ioHashString *,ioHashString *>
  00015	83 c4 10	 add	 esp, 16			; 00000010H

; 2536 : 	}

  00018	c9		 leave
  00019	c3		 ret	 0
??$_Move@PAVioHashString@@PAV1@@std@@YAPAVioHashString@@PAV1@00@Z ENDP ; std::_Move<ioHashString *,ioHashString *>
_TEXT	ENDS
PUBLIC	?destroy@?$allocator@VioHashString@@@std@@QAEXPAVioHashString@@@Z ; std::allocator<ioHashString>::destroy
; Function compile flags: /Ogsp
; File c:\program files (x86)\microsoft visual studio 10.0\vc\include\xmemory
;	COMDAT ?destroy@?$allocator@VioHashString@@@std@@QAEXPAVioHashString@@@Z
_TEXT	SEGMENT
__Ptr$ = 8						; size = 4
?destroy@?$allocator@VioHashString@@@std@@QAEXPAVioHashString@@@Z PROC ; std::allocator<ioHashString>::destroy, COMDAT
; _this$ = ecx

; 212  : 		{	// destroy object at _Ptr

  00000	55		 push	 ebp
  00001	8b ec		 mov	 ebp, esp

; 213  : 		_Destroy(_Ptr);

  00003	8b 4d 08	 mov	 ecx, DWORD PTR __Ptr$[ebp]
  00006	ff 15 00 00 00
	00		 call	 DWORD PTR __imp_??1ioHashString@@QAE@XZ

; 214  : 		}

  0000c	5d		 pop	 ebp
  0000d	c2 04 00	 ret	 4
?destroy@?$allocator@VioHashString@@@std@@QAEXPAVioHashString@@@Z ENDP ; std::allocator<ioHashString>::destroy
_TEXT	ENDS
PUBLIC	?begin@?$_Tree@V?$_Tmap_traits@HV?$vector@VioHashString@@V?$allocator@VioHashString@@@std@@@std@@U?$less@H@2@V?$allocator@U?$pair@$$CBHV?$vector@VioHashString@@V?$allocator@VioHashString@@@std@@@std@@@std@@@2@$0A@@std@@@std@@QAE?AV?$_Tree_iterator@V?$_Tree_val@V?$_Tmap_traits@HV?$vector@VioHashString@@V?$allocator@VioHashString@@@std@@@std@@U?$less@H@2@V?$allocator@U?$pair@$$CBHV?$vector@VioHashString@@V?$allocator@VioHashString@@@std@@@std@@@std@@@2@$0A@@std@@@std@@@2@XZ ; std::_Tree<std::_Tmap_traits<int,std::vector<ioHashString,std::allocator<ioHashString> >,std::less<int>,std::allocator<std::pair<int const ,std::vector<ioHashString,std::allocator<ioHashString> > > >,0> >::begin
; Function compile flags: /Ogsp
; File c:\program files (x86)\microsoft visual studio 10.0\vc\include\xtree
;	COMDAT ?begin@?$_Tree@V?$_Tmap_traits@HV?$vector@VioHashString@@V?$allocator@VioHashString@@@std@@@std@@U?$less@H@2@V?$allocator@U?$pair@$$CBHV?$vector@VioHashString@@V?$allocator@VioHashString@@@std@@@std@@@std@@@2@$0A@@std@@@std@@QAE?AV?$_Tree_iterator@V?$_Tree_val@V?$_Tmap_traits@HV?$vector@VioHashString@@V?$allocator@VioHashString@@@std@@@std@@U?$less@H@2@V?$allocator@U?$pair@$$CBHV?$vector@VioHashString@@V?$allocator@VioHashString@@@std@@@std@@@std@@@2@$0A@@std@@@std@@@2@XZ
_TEXT	SEGMENT
___$ReturnUdt$ = 8					; size = 4
?begin@?$_Tree@V?$_Tmap_traits@HV?$vector@VioHashString@@V?$allocator@VioHashString@@@std@@@std@@U?$less@H@2@V?$allocator@U?$pair@$$CBHV?$vector@VioHashString@@V?$allocator@VioHashString@@@std@@@std@@@std@@@2@$0A@@std@@@std@@QAE?AV?$_Tree_iterator@V?$_Tree_val@V?$_Tmap_traits@HV?$vector@VioHashString@@V?$allocator@VioHashString@@@std@@@std@@U?$less@H@2@V?$allocator@U?$pair@$$CBHV?$vector@VioHashString@@V?$allocator@VioHashString@@@std@@@std@@@std@@@2@$0A@@std@@@std@@@2@XZ PROC ; std::_Tree<std::_Tmap_traits<int,std::vector<ioHashString,std::allocator<ioHashString> >,std::less<int>,std::allocator<std::pair<int const ,std::vector<ioHashString,std::allocator<ioHashString> > > >,0> >::begin, COMDAT
; _this$ = ecx

; 806  : 		{	// return iterator for beginning of mutable sequence

  00000	55		 push	 ebp
  00001	8b ec		 mov	 ebp, esp

; 807  : 		return (iterator(_Lmost(), this));

  00003	8b 41 04	 mov	 eax, DWORD PTR [ecx+4]
  00006	8b 08		 mov	 ecx, DWORD PTR [eax]
  00008	8b 45 08	 mov	 eax, DWORD PTR ___$ReturnUdt$[ebp]
  0000b	89 08		 mov	 DWORD PTR [eax], ecx

; 808  : 		}

  0000d	5d		 pop	 ebp
  0000e	c2 04 00	 ret	 4
?begin@?$_Tree@V?$_Tmap_traits@HV?$vector@VioHashString@@V?$allocator@VioHashString@@@std@@@std@@U?$less@H@2@V?$allocator@U?$pair@$$CBHV?$vector@VioHashString@@V?$allocator@VioHashString@@@std@@@std@@@std@@@2@$0A@@std@@@std@@QAE?AV?$_Tree_iterator@V?$_Tree_val@V?$_Tmap_traits@HV?$vector@VioHashString@@V?$allocator@VioHashString@@@std@@@std@@U?$less@H@2@V?$allocator@U?$pair@$$CBHV?$vector@VioHashString@@V?$allocator@VioHashString@@@std@@@std@@@std@@@2@$0A@@std@@@std@@@2@XZ ENDP ; std::_Tree<std::_Tmap_traits<int,std::vector<ioHashString,std::allocator<ioHashString> >,std::less<int>,std::allocator<std::pair<int const ,std::vector<ioHashString,std::allocator<ioHashString> > > >,0> >::begin
_TEXT	ENDS
PUBLIC	?end@?$_Tree@V?$_Tmap_traits@HV?$vector@VioHashString@@V?$allocator@VioHashString@@@std@@@std@@U?$less@H@2@V?$allocator@U?$pair@$$CBHV?$vector@VioHashString@@V?$allocator@VioHashString@@@std@@@std@@@std@@@2@$0A@@std@@@std@@QAE?AV?$_Tree_iterator@V?$_Tree_val@V?$_Tmap_traits@HV?$vector@VioHashString@@V?$allocator@VioHashString@@@std@@@std@@U?$less@H@2@V?$allocator@U?$pair@$$CBHV?$vector@VioHashString@@V?$allocator@VioHashString@@@std@@@std@@@std@@@2@$0A@@std@@@std@@@2@XZ ; std::_Tree<std::_Tmap_traits<int,std::vector<ioHashString,std::allocator<ioHashString> >,std::less<int>,std::allocator<std::pair<int const ,std::vector<ioHashString,std::allocator<ioHashString> > > >,0> >::end
; Function compile flags: /Ogsp
;	COMDAT ?end@?$_Tree@V?$_Tmap_traits@HV?$vector@VioHashString@@V?$allocator@VioHashString@@@std@@@std@@U?$less@H@2@V?$allocator@U?$pair@$$CBHV?$vector@VioHashString@@V?$allocator@VioHashString@@@std@@@std@@@std@@@2@$0A@@std@@@std@@QAE?AV?$_Tree_iterator@V?$_Tree_val@V?$_Tmap_traits@HV?$vector@VioHashString@@V?$allocator@VioHashString@@@std@@@std@@U?$less@H@2@V?$allocator@U?$pair@$$CBHV?$vector@VioHashString@@V?$allocator@VioHashString@@@std@@@std@@@std@@@2@$0A@@std@@@std@@@2@XZ
_TEXT	SEGMENT
___$ReturnUdt$ = 8					; size = 4
?end@?$_Tree@V?$_Tmap_traits@HV?$vector@VioHashString@@V?$allocator@VioHashString@@@std@@@std@@U?$less@H@2@V?$allocator@U?$pair@$$CBHV?$vector@VioHashString@@V?$allocator@VioHashString@@@std@@@std@@@std@@@2@$0A@@std@@@std@@QAE?AV?$_Tree_iterator@V?$_Tree_val@V?$_Tmap_traits@HV?$vector@VioHashString@@V?$allocator@VioHashString@@@std@@@std@@U?$less@H@2@V?$allocator@U?$pair@$$CBHV?$vector@VioHashString@@V?$allocator@VioHashString@@@std@@@std@@@std@@@2@$0A@@std@@@std@@@2@XZ PROC ; std::_Tree<std::_Tmap_traits<int,std::vector<ioHashString,std::allocator<ioHashString> >,std::less<int>,std::allocator<std::pair<int const ,std::vector<ioHashString,std::allocator<ioHashString> > > >,0> >::end, COMDAT
; _this$ = ecx

; 816  : 		{	// return iterator for end of mutable sequence

  00000	55		 push	 ebp
  00001	8b ec		 mov	 ebp, esp

; 817  : 		return (iterator(this->_Myhead, this));

  00003	8b 49 04	 mov	 ecx, DWORD PTR [ecx+4]
  00006	8b 45 08	 mov	 eax, DWORD PTR ___$ReturnUdt$[ebp]
  00009	89 08		 mov	 DWORD PTR [eax], ecx

; 818  : 		}

  0000b	5d		 pop	 ebp
  0000c	c2 04 00	 ret	 4
?end@?$_Tree@V?$_Tmap_traits@HV?$vector@VioHashString@@V?$allocator@VioHashString@@@std@@@std@@U?$less@H@2@V?$allocator@U?$pair@$$CBHV?$vector@VioHashString@@V?$allocator@VioHashString@@@std@@@std@@@std@@@2@$0A@@std@@@std@@QAE?AV?$_Tree_iterator@V?$_Tree_val@V?$_Tmap_traits@HV?$vector@VioHashString@@V?$allocator@VioHashString@@@std@@@std@@U?$less@H@2@V?$allocator@U?$pair@$$CBHV?$vector@VioHashString@@V?$allocator@VioHashString@@@std@@@std@@@std@@@2@$0A@@std@@@std@@@2@XZ ENDP ; std::_Tree<std::_Tmap_traits<int,std::vector<ioHashString,std::allocator<ioHashString> >,std::less<int>,std::allocator<std::pair<int const ,std::vector<ioHashString,std::allocator<ioHashString> > > >,0> >::end
_TEXT	ENDS
PUBLIC	??E?$_Tree_iterator@V?$_Tree_val@V?$_Tmap_traits@HV?$vector@VioHashString@@V?$allocator@VioHashString@@@std@@@std@@U?$less@H@2@V?$allocator@U?$pair@$$CBHV?$vector@VioHashString@@V?$allocator@VioHashString@@@std@@@std@@@std@@@2@$0A@@std@@@std@@@std@@QAEAAV01@XZ ; std::_Tree_iterator<std::_Tree_val<std::_Tmap_traits<int,std::vector<ioHashString,std::allocator<ioHashString> >,std::less<int>,std::allocator<std::pair<int const ,std::vector<ioHashString,std::allocator<ioHashString> > > >,0> > >::operator++
; Function compile flags: /Ogsp
;	COMDAT ??E?$_Tree_iterator@V?$_Tree_val@V?$_Tmap_traits@HV?$vector@VioHashString@@V?$allocator@VioHashString@@@std@@@std@@U?$less@H@2@V?$allocator@U?$pair@$$CBHV?$vector@VioHashString@@V?$allocator@VioHashString@@@std@@@std@@@std@@@2@$0A@@std@@@std@@@std@@QAEAAV01@XZ
_TEXT	SEGMENT
??E?$_Tree_iterator@V?$_Tree_val@V?$_Tmap_traits@HV?$vector@VioHashString@@V?$allocator@VioHashString@@@std@@@std@@U?$less@H@2@V?$allocator@U?$pair@$$CBHV?$vector@VioHashString@@V?$allocator@VioHashString@@@std@@@std@@@std@@@2@$0A@@std@@@std@@@std@@QAEAAV01@XZ PROC ; std::_Tree_iterator<std::_Tree_val<std::_Tmap_traits<int,std::vector<ioHashString,std::allocator<ioHashString> >,std::less<int>,std::allocator<std::pair<int const ,std::vector<ioHashString,std::allocator<ioHashString> > > >,0> > >::operator++, COMDAT
; _this$ = ecx

; 405  : 		{	// preincrement

  00000	56		 push	 esi
  00001	8b f1		 mov	 esi, ecx

; 406  : 		++(*(_Mybase *)this);

  00003	e8 00 00 00 00	 call	 ??E?$_Tree_unchecked_const_iterator@V?$_Tree_val@V?$_Tmap_traits@HV?$vector@VioHashString@@V?$allocator@VioHashString@@@std@@@std@@U?$less@H@2@V?$allocator@U?$pair@$$CBHV?$vector@VioHashString@@V?$allocator@VioHashString@@@std@@@std@@@std@@@2@$0A@@std@@@std@@U_Iterator_base0@2@@std@@QAEAAV01@XZ ; std::_Tree_unchecked_const_iterator<std::_Tree_val<std::_Tmap_traits<int,std::vector<ioHashString,std::allocator<ioHashString> >,std::less<int>,std::allocator<std::pair<int const ,std::vector<ioHashString,std::allocator<ioHashString> > > >,0> >,std::_Iterator_base0>::operator++

; 407  : 		return (*this);

  00008	8b c6		 mov	 eax, esi
  0000a	5e		 pop	 esi

; 408  : 		}

  0000b	c3		 ret	 0
??E?$_Tree_iterator@V?$_Tree_val@V?$_Tmap_traits@HV?$vector@VioHashString@@V?$allocator@VioHashString@@@std@@@std@@U?$less@H@2@V?$allocator@U?$pair@$$CBHV?$vector@VioHashString@@V?$allocator@VioHashString@@@std@@@std@@@std@@@2@$0A@@std@@@std@@@std@@QAEAAV01@XZ ENDP ; std::_Tree_iterator<std::_Tree_val<std::_Tmap_traits<int,std::vector<ioHashString,std::allocator<ioHashString> >,std::less<int>,std::allocator<std::pair<int const ,std::vector<ioHashString,std::allocator<ioHashString> > > >,0> > >::operator++
_TEXT	ENDS
PUBLIC	??F?$_Tree_iterator@V?$_Tree_val@V?$_Tmap_traits@HV?$vector@VioHashString@@V?$allocator@VioHashString@@@std@@@std@@U?$less@H@2@V?$allocator@U?$pair@$$CBHV?$vector@VioHashString@@V?$allocator@VioHashString@@@std@@@std@@@std@@@2@$0A@@std@@@std@@@std@@QAEAAV01@XZ ; std::_Tree_iterator<std::_Tree_val<std::_Tmap_traits<int,std::vector<ioHashString,std::allocator<ioHashString> >,std::less<int>,std::allocator<std::pair<int const ,std::vector<ioHashString,std::allocator<ioHashString> > > >,0> > >::operator--
; Function compile flags: /Ogsp
;	COMDAT ??F?$_Tree_iterator@V?$_Tree_val@V?$_Tmap_traits@HV?$vector@VioHashString@@V?$allocator@VioHashString@@@std@@@std@@U?$less@H@2@V?$allocator@U?$pair@$$CBHV?$vector@VioHashString@@V?$allocator@VioHashString@@@std@@@std@@@std@@@2@$0A@@std@@@std@@@std@@QAEAAV01@XZ
_TEXT	SEGMENT
??F?$_Tree_iterator@V?$_Tree_val@V?$_Tmap_traits@HV?$vector@VioHashString@@V?$allocator@VioHashString@@@std@@@std@@U?$less@H@2@V?$allocator@U?$pair@$$CBHV?$vector@VioHashString@@V?$allocator@VioHashString@@@std@@@std@@@std@@@2@$0A@@std@@@std@@@std@@QAEAAV01@XZ PROC ; std::_Tree_iterator<std::_Tree_val<std::_Tmap_traits<int,std::vector<ioHashString,std::allocator<ioHashString> >,std::less<int>,std::allocator<std::pair<int const ,std::vector<ioHashString,std::allocator<ioHashString> > > >,0> > >::operator--, COMDAT
; _this$ = ecx

; 418  : 		{	// predecrement

  00000	56		 push	 esi
  00001	8b f1		 mov	 esi, ecx

; 419  : 		--(*(_Mybase *)this);

  00003	e8 00 00 00 00	 call	 ??F?$_Tree_unchecked_const_iterator@V?$_Tree_val@V?$_Tmap_traits@HV?$vector@VioHashString@@V?$allocator@VioHashString@@@std@@@std@@U?$less@H@2@V?$allocator@U?$pair@$$CBHV?$vector@VioHashString@@V?$allocator@VioHashString@@@std@@@std@@@std@@@2@$0A@@std@@@std@@U_Iterator_base0@2@@std@@QAEAAV01@XZ ; std::_Tree_unchecked_const_iterator<std::_Tree_val<std::_Tmap_traits<int,std::vector<ioHashString,std::allocator<ioHashString> >,std::less<int>,std::allocator<std::pair<int const ,std::vector<ioHashString,std::allocator<ioHashString> > > >,0> >,std::_Iterator_base0>::operator--

; 420  : 		return (*this);

  00008	8b c6		 mov	 eax, esi
  0000a	5e		 pop	 esi

; 421  : 		}

  0000b	c3		 ret	 0
??F?$_Tree_iterator@V?$_Tree_val@V?$_Tmap_traits@HV?$vector@VioHashString@@V?$allocator@VioHashString@@@std@@@std@@U?$less@H@2@V?$allocator@U?$pair@$$CBHV?$vector@VioHashString@@V?$allocator@VioHashString@@@std@@@std@@@std@@@2@$0A@@std@@@std@@@std@@QAEAAV01@XZ ENDP ; std::_Tree_iterator<std::_Tree_val<std::_Tmap_traits<int,std::vector<ioHashString,std::allocator<ioHashString> >,std::less<int>,std::allocator<std::pair<int const ,std::vector<ioHashString,std::allocator<ioHashString> > > >,0> > >::operator--
_TEXT	ENDS
PUBLIC	??0?$_Tree@V?$_Tmap_traits@HV?$vector@VioHashString@@V?$allocator@VioHashString@@@std@@@std@@U?$less@H@2@V?$allocator@U?$pair@$$CBHV?$vector@VioHashString@@V?$allocator@VioHashString@@@std@@@std@@@std@@@2@$0A@@std@@@std@@QAE@ABU?$less@H@1@ABV?$allocator@U?$pair@$$CBHV?$vector@VioHashString@@V?$allocator@VioHashString@@@std@@@std@@@std@@@1@@Z ; std::_Tree<std::_Tmap_traits<int,std::vector<ioHashString,std::allocator<ioHashString> >,std::less<int>,std::allocator<std::pair<int const ,std::vector<ioHashString,std::allocator<ioHashString> > > >,0> >::_Tree<std::_Tmap_traits<int,std::vector<ioHashString,std::allocator<ioHashString> >,std::less<int>,std::allocator<std::pair<int const ,std::vector<ioHashString,std::allocator<ioHashString> > > >,0> >
; Function compile flags: /Ogsp
;	COMDAT ??0?$_Tree@V?$_Tmap_traits@HV?$vector@VioHashString@@V?$allocator@VioHashString@@@std@@@std@@U?$less@H@2@V?$allocator@U?$pair@$$CBHV?$vector@VioHashString@@V?$allocator@VioHashString@@@std@@@std@@@std@@@2@$0A@@std@@@std@@QAE@ABU?$less@H@1@ABV?$allocator@U?$pair@$$CBHV?$vector@VioHashString@@V?$allocator@VioHashString@@@std@@@std@@@std@@@1@@Z
_TEXT	SEGMENT
$T512619 = -4						; size = 4
$T512614 = -4						; size = 4
__Parg$ = 8						; size = 4
__Al$ = 12						; size = 4
??0?$_Tree@V?$_Tmap_traits@HV?$vector@VioHashString@@V?$allocator@VioHashString@@@std@@@std@@U?$less@H@2@V?$allocator@U?$pair@$$CBHV?$vector@VioHashString@@V?$allocator@VioHashString@@@std@@@std@@@std@@@2@$0A@@std@@@std@@QAE@ABU?$less@H@1@ABV?$allocator@U?$pair@$$CBHV?$vector@VioHashString@@V?$allocator@VioHashString@@@std@@@std@@@std@@@1@@Z PROC ; std::_Tree<std::_Tmap_traits<int,std::vector<ioHashString,std::allocator<ioHashString> >,std::less<int>,std::allocator<std::pair<int const ,std::vector<ioHashString,std::allocator<ioHashString> > > >,0> >::_Tree<std::_Tmap_traits<int,std::vector<ioHashString,std::allocator<ioHashString> >,std::less<int>,std::allocator<std::pair<int const ,std::vector<ioHashString,std::allocator<ioHashString> > > >,0> >, COMDAT
; _this$ = ecx

; 698  : 		{	// construct empty tree

  00000	55		 push	 ebp
  00001	8b ec		 mov	 ebp, esp
  00003	51		 push	 ecx
  00004	56		 push	 esi
  00005	51		 push	 ecx
  00006	89 65 fc	 mov	 DWORD PTR $T512614[ebp], esp
  00009	89 65 fc	 mov	 DWORD PTR $T512619[ebp], esp
  0000c	ff 75 08	 push	 DWORD PTR __Parg$[ebp]
  0000f	8b f1		 mov	 esi, ecx
  00011	e8 00 00 00 00	 call	 ??0?$_Tree_val@V?$_Tmap_traits@HV?$vector@VioHashString@@V?$allocator@VioHashString@@@std@@@std@@U?$less@H@2@V?$allocator@U?$pair@$$CBHV?$vector@VioHashString@@V?$allocator@VioHashString@@@std@@@std@@@std@@@2@$0A@@std@@@std@@QAE@ABU?$less@H@1@V?$allocator@U?$pair@$$CBHV?$vector@VioHashString@@V?$allocator@VioHashString@@@std@@@std@@@std@@@1@@Z ; std::_Tree_val<std::_Tmap_traits<int,std::vector<ioHashString,std::allocator<ioHashString> >,std::less<int>,std::allocator<std::pair<int const ,std::vector<ioHashString,std::allocator<ioHashString> > > >,0> >::_Tree_val<std::_Tmap_traits<int,std::vector<ioHashString,std::allocator<ioHashString> >,std::less<int>,std::allocator<std::pair<int const ,std::vector<ioHashString,std::allocator<ioHashString> > > >,0> >

; 699  : 		}

  00016	8b c6		 mov	 eax, esi
  00018	5e		 pop	 esi
  00019	c9		 leave
  0001a	c2 08 00	 ret	 8
??0?$_Tree@V?$_Tmap_traits@HV?$vector@VioHashString@@V?$allocator@VioHashString@@@std@@@std@@U?$less@H@2@V?$allocator@U?$pair@$$CBHV?$vector@VioHashString@@V?$allocator@VioHashString@@@std@@@std@@@std@@@2@$0A@@std@@@std@@QAE@ABU?$less@H@1@ABV?$allocator@U?$pair@$$CBHV?$vector@VioHashString@@V?$allocator@VioHashString@@@std@@@std@@@std@@@1@@Z ENDP ; std::_Tree<std::_Tmap_traits<int,std::vector<ioHashString,std::allocator<ioHashString> >,std::less<int>,std::allocator<std::pair<int const ,std::vector<ioHashString,std::allocator<ioHashString> > > >,0> >::_Tree<std::_Tmap_traits<int,std::vector<ioHashString,std::allocator<ioHashString> >,std::less<int>,std::allocator<std::pair<int const ,std::vector<ioHashString,std::allocator<ioHashString> > > >,0> >
_TEXT	ENDS
PUBLIC	?lower_bound@?$_Tree@V?$_Tmap_traits@HV?$vector@VioHashString@@V?$allocator@VioHashString@@@std@@@std@@U?$less@H@2@V?$allocator@U?$pair@$$CBHV?$vector@VioHashString@@V?$allocator@VioHashString@@@std@@@std@@@std@@@2@$0A@@std@@@std@@QAE?AV?$_Tree_iterator@V?$_Tree_val@V?$_Tmap_traits@HV?$vector@VioHashString@@V?$allocator@VioHashString@@@std@@@std@@U?$less@H@2@V?$allocator@U?$pair@$$CBHV?$vector@VioHashString@@V?$allocator@VioHashString@@@std@@@std@@@std@@@2@$0A@@std@@@std@@@2@ABH@Z ; std::_Tree<std::_Tmap_traits<int,std::vector<ioHashString,std::allocator<ioHashString> >,std::less<int>,std::allocator<std::pair<int const ,std::vector<ioHashString,std::allocator<ioHashString> > > >,0> >::lower_bound
; Function compile flags: /Ogsp
;	COMDAT ?lower_bound@?$_Tree@V?$_Tmap_traits@HV?$vector@VioHashString@@V?$allocator@VioHashString@@@std@@@std@@U?$less@H@2@V?$allocator@U?$pair@$$CBHV?$vector@VioHashString@@V?$allocator@VioHashString@@@std@@@std@@@std@@@2@$0A@@std@@@std@@QAE?AV?$_Tree_iterator@V?$_Tree_val@V?$_Tmap_traits@HV?$vector@VioHashString@@V?$allocator@VioHashString@@@std@@@std@@U?$less@H@2@V?$allocator@U?$pair@$$CBHV?$vector@VioHashString@@V?$allocator@VioHashString@@@std@@@std@@@std@@@2@$0A@@std@@@std@@@2@ABH@Z
_TEXT	SEGMENT
___$ReturnUdt$ = 8					; size = 4
__Keyval$ = 12						; size = 4
?lower_bound@?$_Tree@V?$_Tmap_traits@HV?$vector@VioHashString@@V?$allocator@VioHashString@@@std@@@std@@U?$less@H@2@V?$allocator@U?$pair@$$CBHV?$vector@VioHashString@@V?$allocator@VioHashString@@@std@@@std@@@std@@@2@$0A@@std@@@std@@QAE?AV?$_Tree_iterator@V?$_Tree_val@V?$_Tmap_traits@HV?$vector@VioHashString@@V?$allocator@VioHashString@@@std@@@std@@U?$less@H@2@V?$allocator@U?$pair@$$CBHV?$vector@VioHashString@@V?$allocator@VioHashString@@@std@@@std@@@std@@@2@$0A@@std@@@std@@@2@ABH@Z PROC ; std::_Tree<std::_Tmap_traits<int,std::vector<ioHashString,std::allocator<ioHashString> >,std::less<int>,std::allocator<std::pair<int const ,std::vector<ioHashString,std::allocator<ioHashString> > > >,0> >::lower_bound, COMDAT
; _this$ = ecx

; 1449 : 		{	// find leftmost node not less than _Keyval in mutable tree

  00000	55		 push	 ebp
  00001	8b ec		 mov	 ebp, esp

; 1450 : 		return (iterator(_Lbound(_Keyval), this));

  00003	ff 75 0c	 push	 DWORD PTR __Keyval$[ebp]
  00006	e8 00 00 00 00	 call	 ?_Lbound@?$_Tree@V?$_Tmap_traits@HV?$vector@VioHashString@@V?$allocator@VioHashString@@@std@@@std@@U?$less@H@2@V?$allocator@U?$pair@$$CBHV?$vector@VioHashString@@V?$allocator@VioHashString@@@std@@@std@@@std@@@2@$0A@@std@@@std@@IAEPAU_Node@?$_Tree_nod@V?$_Tmap_traits@HV?$vector@VioHashString@@V?$allocator@VioHashString@@@std@@@std@@U?$less@H@2@V?$allocator@U?$pair@$$CBHV?$vector@VioHashString@@V?$allocator@VioHashString@@@std@@@std@@@std@@@2@$0A@@std@@@2@ABH@Z ; std::_Tree<std::_Tmap_traits<int,std::vector<ioHashString,std::allocator<ioHashString> >,std::less<int>,std::allocator<std::pair<int const ,std::vector<ioHashString,std::allocator<ioHashString> > > >,0> >::_Lbound
  0000b	8b 4d 08	 mov	 ecx, DWORD PTR ___$ReturnUdt$[ebp]
  0000e	89 01		 mov	 DWORD PTR [ecx], eax
  00010	8b c1		 mov	 eax, ecx

; 1451 : 		}

  00012	5d		 pop	 ebp
  00013	c2 08 00	 ret	 8
?lower_bound@?$_Tree@V?$_Tmap_traits@HV?$vector@VioHashString@@V?$allocator@VioHashString@@@std@@@std@@U?$less@H@2@V?$allocator@U?$pair@$$CBHV?$vector@VioHashString@@V?$allocator@VioHashString@@@std@@@std@@@std@@@2@$0A@@std@@@std@@QAE?AV?$_Tree_iterator@V?$_Tree_val@V?$_Tmap_traits@HV?$vector@VioHashString@@V?$allocator@VioHashString@@@std@@@std@@U?$less@H@2@V?$allocator@U?$pair@$$CBHV?$vector@VioHashString@@V?$allocator@VioHashString@@@std@@@std@@@std@@@2@$0A@@std@@@std@@@2@ABH@Z ENDP ; std::_Tree<std::_Tmap_traits<int,std::vector<ioHashString,std::allocator<ioHashString> >,std::less<int>,std::allocator<std::pair<int const ,std::vector<ioHashString,std::allocator<ioHashString> > > >,0> >::lower_bound
_TEXT	ENDS
PUBLIC	??$_Dest_val@V?$allocator@VioHashString@@@std@@VioHashString@@@std@@YAXAAV?$allocator@VioHashString@@@0@PAVioHashString@@@Z ; std::_Dest_val<std::allocator<ioHashString>,ioHashString>
; Function compile flags: /Ogsp
; File c:\program files (x86)\microsoft visual studio 10.0\vc\include\xmemory
;	COMDAT ??$_Dest_val@V?$allocator@VioHashString@@@std@@VioHashString@@@std@@YAXAAV?$allocator@VioHashString@@@0@PAVioHashString@@@Z
_TEXT	SEGMENT
__Alval$ = 8						; size = 4
__Pdest$ = 12						; size = 4
??$_Dest_val@V?$allocator@VioHashString@@@std@@VioHashString@@@std@@YAXAAV?$allocator@VioHashString@@@0@PAVioHashString@@@Z PROC ; std::_Dest_val<std::allocator<ioHashString>,ioHashString>, COMDAT

; 286  : 	{	// destroy using allocator

  00000	55		 push	 ebp
  00001	8b ec		 mov	 ebp, esp

; 287  : 	_Alval.destroy(_Pdest);

  00003	8b 4d 0c	 mov	 ecx, DWORD PTR __Pdest$[ebp]

; 288  : 	}

  00006	5d		 pop	 ebp

; 287  : 	_Alval.destroy(_Pdest);

  00007	ff 25 00 00 00
	00		 jmp	 DWORD PTR __imp_??1ioHashString@@QAE@XZ
??$_Dest_val@V?$allocator@VioHashString@@@std@@VioHashString@@@std@@YAXAAV?$allocator@VioHashString@@@0@PAVioHashString@@@Z ENDP ; std::_Dest_val<std::allocator<ioHashString>,ioHashString>
_TEXT	ENDS
PUBLIC	?PlayTalkSound@io3DCharEmoticon@@IAEXH@Z	; io3DCharEmoticon::PlayTalkSound
; Function compile flags: /Ogsp
; File d:\lost saga for developer\youtube\tutorial\source\src\lsclient\io3dcharemoticon.cpp
;	COMDAT ?PlayTalkSound@io3DCharEmoticon@@IAEXH@Z
_TEXT	SEGMENT
_iter$ = 8						; size = 4
_iChangeCount$ = 8					; size = 4
?PlayTalkSound@io3DCharEmoticon@@IAEXH@Z PROC		; io3DCharEmoticon::PlayTalkSound, COMDAT
; _this$ = ecx

; 334  : {

  00000	55		 push	 ebp
  00001	8b ec		 mov	 ebp, esp

; 335  : 	if( m_TalkSoundMap.empty() || iChangeCount == 0 )

  00003	83 3d 08 00 00
	00 00		 cmp	 DWORD PTR ?m_TalkSoundMap@io3DCharEmoticon@@0V?$map@HV?$vector@VioHashString@@V?$allocator@VioHashString@@@std@@@std@@U?$less@H@2@V?$allocator@U?$pair@$$CBHV?$vector@VioHashString@@V?$allocator@VioHashString@@@std@@@std@@@std@@@2@@std@@A+8, 0
  0000a	53		 push	 ebx
  0000b	8b d9		 mov	 ebx, ecx
  0000d	74 45		 je	 SHORT $LN5@PlayTalkSo
  0000f	57		 push	 edi
  00010	8b 7d 08	 mov	 edi, DWORD PTR _iChangeCount$[ebp]
  00013	85 ff		 test	 edi, edi
  00015	74 3c		 je	 SHORT $LN86@PlayTalkSo

; 336  : 		return;
; 337  : 
; 338  : 	TalkSoundMap::iterator iter = m_TalkSoundMap.begin();

  00017	56		 push	 esi
  00018	8b 35 04 00 00
	00		 mov	 esi, DWORD PTR ?m_TalkSoundMap@io3DCharEmoticon@@0V?$map@HV?$vector@VioHashString@@V?$allocator@VioHashString@@@std@@@std@@U?$less@H@2@V?$allocator@U?$pair@$$CBHV?$vector@VioHashString@@V?$allocator@VioHashString@@@std@@@std@@@std@@@2@@std@@A+4
  0001e	8b 06		 mov	 eax, DWORD PTR [esi]
  00020	89 45 08	 mov	 DWORD PTR _iter$[ebp], eax
  00023	eb 10		 jmp	 SHORT $LN88@PlayTalkSo

; 339  : 	for( ; iter!=m_TalkSoundMap.end() ; ++iter )

$LL29@PlayTalkSo:

; 340  : 	{
; 341  : 		if( iter->first >= iChangeCount )

  00025	39 78 0c	 cmp	 DWORD PTR [eax+12], edi
  00028	7d 1d		 jge	 SHORT $LN84@PlayTalkSo

; 339  : 	for( ; iter!=m_TalkSoundMap.end() ; ++iter )

  0002a	8d 4d 08	 lea	 ecx, DWORD PTR _iter$[ebp]
  0002d	e8 00 00 00 00	 call	 ??E?$_Tree_unchecked_const_iterator@V?$_Tree_val@V?$_Tmap_traits@HV?$vector@VioHashString@@V?$allocator@VioHashString@@@std@@@std@@U?$less@H@2@V?$allocator@U?$pair@$$CBHV?$vector@VioHashString@@V?$allocator@VioHashString@@@std@@@std@@@std@@@2@$0A@@std@@@std@@U_Iterator_base0@2@@std@@QAEAAV01@XZ ; std::_Tree_unchecked_const_iterator<std::_Tree_val<std::_Tmap_traits<int,std::vector<ioHashString,std::allocator<ioHashString> >,std::less<int>,std::allocator<std::pair<int const ,std::vector<ioHashString,std::allocator<ioHashString> > > >,0> >,std::_Iterator_base0>::operator++
  00032	8b 45 08	 mov	 eax, DWORD PTR _iter$[ebp]
$LN88@PlayTalkSo:
  00035	3b c6		 cmp	 eax, esi
  00037	75 ec		 jne	 SHORT $LL29@PlayTalkSo

; 342  : 		{
; 343  : 			PlayRandomTalk( iter->second );
; 344  : 			return;
; 345  : 		}
; 346  : 	}
; 347  : 
; 348  : 	// 못찾았다.
; 349  : 	iter = m_TalkSoundMap.end();
; 350  : 	--iter;

  00039	8d 4d 08	 lea	 ecx, DWORD PTR _iter$[ebp]
  0003c	89 75 08	 mov	 DWORD PTR _iter$[ebp], esi
  0003f	e8 00 00 00 00	 call	 ??F?$_Tree_unchecked_const_iterator@V?$_Tree_val@V?$_Tmap_traits@HV?$vector@VioHashString@@V?$allocator@VioHashString@@@std@@@std@@U?$less@H@2@V?$allocator@U?$pair@$$CBHV?$vector@VioHashString@@V?$allocator@VioHashString@@@std@@@std@@@std@@@2@$0A@@std@@@std@@U_Iterator_base0@2@@std@@QAEAAV01@XZ ; std::_Tree_unchecked_const_iterator<std::_Tree_val<std::_Tmap_traits<int,std::vector<ioHashString,std::allocator<ioHashString> >,std::less<int>,std::allocator<std::pair<int const ,std::vector<ioHashString,std::allocator<ioHashString> > > >,0> >,std::_Iterator_base0>::operator--

; 351  : 
; 352  : 	PlayRandomTalk( iter->second );

  00044	8b 45 08	 mov	 eax, DWORD PTR _iter$[ebp]
$LN84@PlayTalkSo:
  00047	83 c0 10	 add	 eax, 16			; 00000010H
  0004a	50		 push	 eax
  0004b	8b cb		 mov	 ecx, ebx
  0004d	e8 00 00 00 00	 call	 ?PlayRandomTalk@io3DCharEmoticon@@IAEXABV?$vector@VioHashString@@V?$allocator@VioHashString@@@std@@@std@@@Z ; io3DCharEmoticon::PlayRandomTalk
  00052	5e		 pop	 esi
$LN86@PlayTalkSo:
  00053	5f		 pop	 edi
$LN5@PlayTalkSo:
  00054	5b		 pop	 ebx

; 353  : }

  00055	5d		 pop	 ebp
  00056	c2 04 00	 ret	 4
?PlayTalkSound@io3DCharEmoticon@@IAEXH@Z ENDP		; io3DCharEmoticon::PlayTalkSound
_TEXT	ENDS
PUBLIC	??$_Uninit_copy@PAVioHashString@@PAV1@V?$allocator@VioHashString@@@std@@@std@@YAPAVioHashString@@PAV1@00AAV?$allocator@VioHashString@@@0@U_Nonscalar_ptr_iterator_tag@0@@Z ; std::_Uninit_copy<ioHashString *,ioHashString *,std::allocator<ioHashString> >
EXTRN	__EH_prolog3_catch:PROC
;	COMDAT xdata$x
; File c:\program files (x86)\microsoft visual studio 10.0\vc\include\vector
xdata$x	SEGMENT
__catchsym$??$_Uninit_copy@PAVioHashString@@PAV1@V?$allocator@VioHashString@@@std@@@std@@YAPAVioHashString@@PAV1@00AAV?$allocator@VioHashString@@@0@U_Nonscalar_ptr_iterator_tag@0@@Z$2 DD 040H
	DD	00H
	DD	00H
	DD	FLAT:__catch$??$_Uninit_copy@PAVioHashString@@PAV1@V?$allocator@VioHashString@@@std@@@std@@YAPAVioHashString@@PAV1@00AAV?$allocator@VioHashString@@@0@U_Nonscalar_ptr_iterator_tag@0@@Z$0
__unwindtable$??$_Uninit_copy@PAVioHashString@@PAV1@V?$allocator@VioHashString@@@std@@@std@@YAPAVioHashString@@PAV1@00AAV?$allocator@VioHashString@@@0@U_Nonscalar_ptr_iterator_tag@0@@Z DD 0ffffffffH
	DD	00H
	DD	0ffffffffH
	DD	00H
__tryblocktable$??$_Uninit_copy@PAVioHashString@@PAV1@V?$allocator@VioHashString@@@std@@@std@@YAPAVioHashString@@PAV1@00AAV?$allocator@VioHashString@@@0@U_Nonscalar_ptr_iterator_tag@0@@Z DD 00H
	DD	00H
	DD	01H
	DD	01H
	DD	FLAT:__catchsym$??$_Uninit_copy@PAVioHashString@@PAV1@V?$allocator@VioHashString@@@std@@@std@@YAPAVioHashString@@PAV1@00AAV?$allocator@VioHashString@@@0@U_Nonscalar_ptr_iterator_tag@0@@Z$2
__ehfuncinfo$??$_Uninit_copy@PAVioHashString@@PAV1@V?$allocator@VioHashString@@@std@@@std@@YAPAVioHashString@@PAV1@00AAV?$allocator@VioHashString@@@0@U_Nonscalar_ptr_iterator_tag@0@@Z DD 019930522H
	DD	02H
	DD	FLAT:__unwindtable$??$_Uninit_copy@PAVioHashString@@PAV1@V?$allocator@VioHashString@@@std@@@std@@YAPAVioHashString@@PAV1@00AAV?$allocator@VioHashString@@@0@U_Nonscalar_ptr_iterator_tag@0@@Z
	DD	01H
	DD	FLAT:__tryblocktable$??$_Uninit_copy@PAVioHashString@@PAV1@V?$allocator@VioHashString@@@std@@@std@@YAPAVioHashString@@PAV1@00AAV?$allocator@VioHashString@@@0@U_Nonscalar_ptr_iterator_tag@0@@Z
	DD	2 DUP(00H)
	DD	00H
	DD	01H
; Function compile flags: /Ogsp
; File c:\program files (x86)\microsoft visual studio 10.0\vc\include\memory
xdata$x	ENDS
;	COMDAT ??$_Uninit_copy@PAVioHashString@@PAV1@V?$allocator@VioHashString@@@std@@@std@@YAPAVioHashString@@PAV1@00AAV?$allocator@VioHashString@@@0@U_Nonscalar_ptr_iterator_tag@0@@Z
_TEXT	SEGMENT
__Next$ = -20						; size = 4
__$EHRec$ = -16						; size = 16
__First$ = 8						; size = 4
__Last$ = 12						; size = 4
__Dest$ = 16						; size = 4
__Al$ = 20						; size = 4
___formal$ = 24						; size = 1
??$_Uninit_copy@PAVioHashString@@PAV1@V?$allocator@VioHashString@@@std@@@std@@YAPAVioHashString@@PAV1@00AAV?$allocator@VioHashString@@@0@U_Nonscalar_ptr_iterator_tag@0@@Z PROC ; std::_Uninit_copy<ioHashString *,ioHashString *,std::allocator<ioHashString> >, COMDAT

; 369  : 	{	// copy [_First, _Last) to raw _Dest, using _Al, arbitrary type

  00000	6a 08		 push	 8
  00002	b8 00 00 00 00	 mov	 eax, __ehhandler$??$_Uninit_copy@PAVioHashString@@PAV1@V?$allocator@VioHashString@@@std@@@std@@YAPAVioHashString@@PAV1@00AAV?$allocator@VioHashString@@@0@U_Nonscalar_ptr_iterator_tag@0@@Z
  00007	e8 00 00 00 00	 call	 __EH_prolog3_catch

; 370  : 	_DEBUG_RANGE(_First, _Last);
; 371  : 	_DEBUG_POINTER(_Dest);
; 372  : 	_FwdIt _Next = _Dest;

  0000c	8b 45 10	 mov	 eax, DWORD PTR __Dest$[ebp]

; 373  : 
; 374  : 	_TRY_BEGIN

  0000f	83 65 fc 00	 and	 DWORD PTR __$EHRec$[ebp+12], 0
  00013	8b 75 08	 mov	 esi, DWORD PTR __First$[ebp]
  00016	89 45 ec	 mov	 DWORD PTR __Next$[ebp], eax
$LL6@Uninit_cop:

; 375  : 	for (; _First != _Last; ++_Dest, ++_First)

  00019	3b 75 0c	 cmp	 esi, DWORD PTR __Last$[ebp]
  0001c	74 33		 je	 SHORT $LN4@Uninit_cop

; 376  : 		_Cons_val(_Al, _Dest, *_First);

  0001e	8b 4d 14	 mov	 ecx, DWORD PTR __Al$[ebp]
  00021	56		 push	 esi
  00022	ff 75 10	 push	 DWORD PTR __Dest$[ebp]
  00025	e8 00 00 00 00	 call	 ??$construct@AAVioHashString@@@?$allocator@VioHashString@@@std@@QAEXPAVioHashString@@AAV2@@Z ; std::allocator<ioHashString>::construct<ioHashString &>
  0002a	83 45 10 10	 add	 DWORD PTR __Dest$[ebp], 16 ; 00000010H
  0002e	83 c6 10	 add	 esi, 16			; 00000010H
  00031	eb e6		 jmp	 SHORT $LL6@Uninit_cop
__catch$??$_Uninit_copy@PAVioHashString@@PAV1@V?$allocator@VioHashString@@@std@@@std@@YAPAVioHashString@@PAV1@00AAV?$allocator@VioHashString@@@0@U_Nonscalar_ptr_iterator_tag@0@@Z$0:

; 377  : 	_CATCH_ALL
; 378  : 	for (; _Next != _Dest; ++_Next)

  00033	8b 75 ec	 mov	 esi, DWORD PTR __Next$[ebp]
  00036	eb 0b		 jmp	 SHORT $LN33@Uninit_cop
$LL3@Uninit_cop:

; 379  : 		_Dest_val(_Al, _Next);

  00038	8b ce		 mov	 ecx, esi
  0003a	ff 15 00 00 00
	00		 call	 DWORD PTR __imp_??1ioHashString@@QAE@XZ
  00040	83 c6 10	 add	 esi, 16			; 00000010H
$LN33@Uninit_cop:

; 377  : 	_CATCH_ALL
; 378  : 	for (; _Next != _Dest; ++_Next)

  00043	3b 75 10	 cmp	 esi, DWORD PTR __Dest$[ebp]
  00046	75 f0		 jne	 SHORT $LL3@Uninit_cop

; 380  : 	_RERAISE;

  00048	6a 00		 push	 0
  0004a	6a 00		 push	 0
  0004c	e8 00 00 00 00	 call	 __CxxThrowException@8
$LN34@Uninit_cop:
$LN4@Uninit_cop:

; 381  : 	_CATCH_END
; 382  : 	return (_Dest);

  00051	8b 45 10	 mov	 eax, DWORD PTR __Dest$[ebp]

; 383  : 	}

  00054	e8 00 00 00 00	 call	 __EH_epilog3
  00059	c3		 ret	 0
$LN32@Uninit_cop:
_TEXT	ENDS
;	COMDAT text$x
text$x	SEGMENT
__ehhandler$??$_Uninit_copy@PAVioHashString@@PAV1@V?$allocator@VioHashString@@@std@@@std@@YAPAVioHashString@@PAV1@00AAV?$allocator@VioHashString@@@0@U_Nonscalar_ptr_iterator_tag@0@@Z:
  00000	8b 54 24 08	 mov	 edx, DWORD PTR [esp+8]
  00004	8d 42 0c	 lea	 eax, DWORD PTR [edx+12]
  00007	8b 4a e8	 mov	 ecx, DWORD PTR [edx-24]
  0000a	33 c8		 xor	 ecx, eax
  0000c	e8 00 00 00 00	 call	 @__security_check_cookie@4
  00011	b8 00 00 00 00	 mov	 eax, OFFSET __ehfuncinfo$??$_Uninit_copy@PAVioHashString@@PAV1@V?$allocator@VioHashString@@@std@@@std@@YAPAVioHashString@@PAV1@00AAV?$allocator@VioHashString@@@0@U_Nonscalar_ptr_iterator_tag@0@@Z
  00016	e9 00 00 00 00	 jmp	 ___CxxFrameHandler3
text$x	ENDS
??$_Uninit_copy@PAVioHashString@@PAV1@V?$allocator@VioHashString@@@std@@@std@@YAPAVioHashString@@PAV1@00AAV?$allocator@VioHashString@@@0@U_Nonscalar_ptr_iterator_tag@0@@Z ENDP ; std::_Uninit_copy<ioHashString *,ioHashString *,std::allocator<ioHashString> >
PUBLIC	??$_Uninit_move@PAVioHashString@@PAV1@V?$allocator@VioHashString@@@std@@V1@@std@@YAPAVioHashString@@PAV1@00AAV?$allocator@VioHashString@@@0@0U_Nonscalar_ptr_iterator_tag@0@@Z ; std::_Uninit_move<ioHashString *,ioHashString *,std::allocator<ioHashString>,ioHashString>
;	COMDAT xdata$x
; File c:\program files (x86)\microsoft visual studio 10.0\vc\include\vector
xdata$x	SEGMENT
__catchsym$??$_Uninit_move@PAVioHashString@@PAV1@V?$allocator@VioHashString@@@std@@V1@@std@@YAPAVioHashString@@PAV1@00AAV?$allocator@VioHashString@@@0@0U_Nonscalar_ptr_iterator_tag@0@@Z$2 DD 040H
	DD	00H
	DD	00H
	DD	FLAT:__catch$??$_Uninit_move@PAVioHashString@@PAV1@V?$allocator@VioHashString@@@std@@V1@@std@@YAPAVioHashString@@PAV1@00AAV?$allocator@VioHashString@@@0@0U_Nonscalar_ptr_iterator_tag@0@@Z$0
__unwindtable$??$_Uninit_move@PAVioHashString@@PAV1@V?$allocator@VioHashString@@@std@@V1@@std@@YAPAVioHashString@@PAV1@00AAV?$allocator@VioHashString@@@0@0U_Nonscalar_ptr_iterator_tag@0@@Z DD 0ffffffffH
	DD	00H
	DD	0ffffffffH
	DD	00H
__tryblocktable$??$_Uninit_move@PAVioHashString@@PAV1@V?$allocator@VioHashString@@@std@@V1@@std@@YAPAVioHashString@@PAV1@00AAV?$allocator@VioHashString@@@0@0U_Nonscalar_ptr_iterator_tag@0@@Z DD 00H
	DD	00H
	DD	01H
	DD	01H
	DD	FLAT:__catchsym$??$_Uninit_move@PAVioHashString@@PAV1@V?$allocator@VioHashString@@@std@@V1@@std@@YAPAVioHashString@@PAV1@00AAV?$allocator@VioHashString@@@0@0U_Nonscalar_ptr_iterator_tag@0@@Z$2
__ehfuncinfo$??$_Uninit_move@PAVioHashString@@PAV1@V?$allocator@VioHashString@@@std@@V1@@std@@YAPAVioHashString@@PAV1@00AAV?$allocator@VioHashString@@@0@0U_Nonscalar_ptr_iterator_tag@0@@Z DD 019930522H
	DD	02H
	DD	FLAT:__unwindtable$??$_Uninit_move@PAVioHashString@@PAV1@V?$allocator@VioHashString@@@std@@V1@@std@@YAPAVioHashString@@PAV1@00AAV?$allocator@VioHashString@@@0@0U_Nonscalar_ptr_iterator_tag@0@@Z
	DD	01H
	DD	FLAT:__tryblocktable$??$_Uninit_move@PAVioHashString@@PAV1@V?$allocator@VioHashString@@@std@@V1@@std@@YAPAVioHashString@@PAV1@00AAV?$allocator@VioHashString@@@0@0U_Nonscalar_ptr_iterator_tag@0@@Z
	DD	2 DUP(00H)
	DD	00H
	DD	01H
; Function compile flags: /Ogsp
; File c:\program files (x86)\microsoft visual studio 10.0\vc\include\memory
xdata$x	ENDS
;	COMDAT ??$_Uninit_move@PAVioHashString@@PAV1@V?$allocator@VioHashString@@@std@@V1@@std@@YAPAVioHashString@@PAV1@00AAV?$allocator@VioHashString@@@0@0U_Nonscalar_ptr_iterator_tag@0@@Z
_TEXT	SEGMENT
__Next$ = -20						; size = 4
__$EHRec$ = -16						; size = 16
__First$ = 8						; size = 4
__Last$ = 12						; size = 4
__Dest$ = 16						; size = 4
__Al$ = 20						; size = 4
___formal$ = 24						; size = 4
___formal$ = 28						; size = 1
??$_Uninit_move@PAVioHashString@@PAV1@V?$allocator@VioHashString@@@std@@V1@@std@@YAPAVioHashString@@PAV1@00AAV?$allocator@VioHashString@@@0@0U_Nonscalar_ptr_iterator_tag@0@@Z PROC ; std::_Uninit_move<ioHashString *,ioHashString *,std::allocator<ioHashString>,ioHashString>, COMDAT

; 424  : 	{	// move [_First, _Last) to raw _Dest, using _Al, arbitrary type

  00000	6a 08		 push	 8
  00002	b8 00 00 00 00	 mov	 eax, __ehhandler$??$_Uninit_move@PAVioHashString@@PAV1@V?$allocator@VioHashString@@@std@@V1@@std@@YAPAVioHashString@@PAV1@00AAV?$allocator@VioHashString@@@0@0U_Nonscalar_ptr_iterator_tag@0@@Z
  00007	e8 00 00 00 00	 call	 __EH_prolog3_catch

; 425  : 	_DEBUG_RANGE(_First, _Last);
; 426  : 	_DEBUG_POINTER(_Dest);
; 427  : 	_FwdIt _Next = _Dest;

  0000c	8b 45 10	 mov	 eax, DWORD PTR __Dest$[ebp]

; 428  : 
; 429  : 	_TRY_BEGIN

  0000f	83 65 fc 00	 and	 DWORD PTR __$EHRec$[ebp+12], 0
  00013	8b 75 08	 mov	 esi, DWORD PTR __First$[ebp]
  00016	89 45 ec	 mov	 DWORD PTR __Next$[ebp], eax
$LL6@Uninit_mov:

; 430  : 	for (; _First != _Last; ++_Dest, ++_First)

  00019	3b 75 0c	 cmp	 esi, DWORD PTR __Last$[ebp]
  0001c	74 33		 je	 SHORT $LN4@Uninit_mov

; 431  : 		_Cons_val(_Al, _Dest, (_Valty &&)*_First);

  0001e	8b 4d 14	 mov	 ecx, DWORD PTR __Al$[ebp]
  00021	56		 push	 esi
  00022	ff 75 10	 push	 DWORD PTR __Dest$[ebp]
  00025	e8 00 00 00 00	 call	 ?construct@?$allocator@VioHashString@@@std@@QAEXPAVioHashString@@$$QAV3@@Z ; std::allocator<ioHashString>::construct
  0002a	83 45 10 10	 add	 DWORD PTR __Dest$[ebp], 16 ; 00000010H
  0002e	83 c6 10	 add	 esi, 16			; 00000010H
  00031	eb e6		 jmp	 SHORT $LL6@Uninit_mov
__catch$??$_Uninit_move@PAVioHashString@@PAV1@V?$allocator@VioHashString@@@std@@V1@@std@@YAPAVioHashString@@PAV1@00AAV?$allocator@VioHashString@@@0@0U_Nonscalar_ptr_iterator_tag@0@@Z$0:

; 432  : 	_CATCH_ALL
; 433  : 	for (; _Next != _Dest; ++_Next)

  00033	8b 75 ec	 mov	 esi, DWORD PTR __Next$[ebp]
  00036	eb 0b		 jmp	 SHORT $LN33@Uninit_mov
$LL3@Uninit_mov:

; 434  : 		_Dest_val(_Al, _Next);

  00038	8b ce		 mov	 ecx, esi
  0003a	ff 15 00 00 00
	00		 call	 DWORD PTR __imp_??1ioHashString@@QAE@XZ
  00040	83 c6 10	 add	 esi, 16			; 00000010H
$LN33@Uninit_mov:

; 432  : 	_CATCH_ALL
; 433  : 	for (; _Next != _Dest; ++_Next)

  00043	3b 75 10	 cmp	 esi, DWORD PTR __Dest$[ebp]
  00046	75 f0		 jne	 SHORT $LL3@Uninit_mov

; 435  : 	_RERAISE;

  00048	6a 00		 push	 0
  0004a	6a 00		 push	 0
  0004c	e8 00 00 00 00	 call	 __CxxThrowException@8
$LN34@Uninit_mov:
$LN4@Uninit_mov:

; 436  : 	_CATCH_END
; 437  : 	return (_Dest);

  00051	8b 45 10	 mov	 eax, DWORD PTR __Dest$[ebp]

; 438  : 	}

  00054	e8 00 00 00 00	 call	 __EH_epilog3
  00059	c3		 ret	 0
$LN32@Uninit_mov:
_TEXT	ENDS
;	COMDAT text$x
text$x	SEGMENT
__ehhandler$??$_Uninit_move@PAVioHashString@@PAV1@V?$allocator@VioHashString@@@std@@V1@@std@@YAPAVioHashString@@PAV1@00AAV?$allocator@VioHashString@@@0@0U_Nonscalar_ptr_iterator_tag@0@@Z:
  00000	8b 54 24 08	 mov	 edx, DWORD PTR [esp+8]
  00004	8d 42 0c	 lea	 eax, DWORD PTR [edx+12]
  00007	8b 4a e8	 mov	 ecx, DWORD PTR [edx-24]
  0000a	33 c8		 xor	 ecx, eax
  0000c	e8 00 00 00 00	 call	 @__security_check_cookie@4
  00011	b8 00 00 00 00	 mov	 eax, OFFSET __ehfuncinfo$??$_Uninit_move@PAVioHashString@@PAV1@V?$allocator@VioHashString@@@std@@V1@@std@@YAPAVioHashString@@PAV1@00AAV?$allocator@VioHashString@@@0@0U_Nonscalar_ptr_iterator_tag@0@@Z
  00016	e9 00 00 00 00	 jmp	 ___CxxFrameHandler3
text$x	ENDS
??$_Uninit_move@PAVioHashString@@PAV1@V?$allocator@VioHashString@@@std@@V1@@std@@YAPAVioHashString@@PAV1@00AAV?$allocator@VioHashString@@@0@0U_Nonscalar_ptr_iterator_tag@0@@Z ENDP ; std::_Uninit_move<ioHashString *,ioHashString *,std::allocator<ioHashString>,ioHashString>
PUBLIC	??$_Destroy_range@V?$allocator@VioHashString@@@std@@@std@@YAXPAVioHashString@@0AAV?$allocator@VioHashString@@@0@U_Nonscalar_ptr_iterator_tag@0@@Z ; std::_Destroy_range<std::allocator<ioHashString> >
; Function compile flags: /Ogsp
; File c:\program files (x86)\microsoft visual studio 10.0\vc\include\xmemory
;	COMDAT ??$_Destroy_range@V?$allocator@VioHashString@@@std@@@std@@YAXPAVioHashString@@0AAV?$allocator@VioHashString@@@0@U_Nonscalar_ptr_iterator_tag@0@@Z
_TEXT	SEGMENT
__First$ = 8						; size = 4
__Last$ = 12						; size = 4
__Al$ = 16						; size = 4
___formal$ = 20						; size = 1
??$_Destroy_range@V?$allocator@VioHashString@@@std@@@std@@YAXPAVioHashString@@0AAV?$allocator@VioHashString@@@0@U_Nonscalar_ptr_iterator_tag@0@@Z PROC ; std::_Destroy_range<std::allocator<ioHashString> >, COMDAT

; 95   : 	{	// destroy [_First, _Last), arbitrary type

  00000	55		 push	 ebp
  00001	8b ec		 mov	 ebp, esp
  00003	56		 push	 esi

; 96   : 	for (; _First != _Last; ++_First)

  00004	8b 75 08	 mov	 esi, DWORD PTR __First$[ebp]
  00007	eb 0b		 jmp	 SHORT $LN17@Destroy_ra
$LL3@Destroy_ra:

; 97   : 		_Dest_val(_Al, _First);

  00009	8b ce		 mov	 ecx, esi
  0000b	ff 15 00 00 00
	00		 call	 DWORD PTR __imp_??1ioHashString@@QAE@XZ
  00011	83 c6 10	 add	 esi, 16			; 00000010H
$LN17@Destroy_ra:

; 96   : 	for (; _First != _Last; ++_First)

  00014	3b 75 0c	 cmp	 esi, DWORD PTR __Last$[ebp]
  00017	75 f0		 jne	 SHORT $LL3@Destroy_ra
  00019	5e		 pop	 esi

; 98   : 	}

  0001a	5d		 pop	 ebp
  0001b	c3		 ret	 0
??$_Destroy_range@V?$allocator@VioHashString@@@std@@@std@@YAXPAVioHashString@@0AAV?$allocator@VioHashString@@@0@U_Nonscalar_ptr_iterator_tag@0@@Z ENDP ; std::_Destroy_range<std::allocator<ioHashString> >
_TEXT	ENDS
PUBLIC	??_C@_0BE@OPCOAHAM@resource?2texture?2?$CFs?$AA@ ; `string'
PUBLIC	__real@3c23d70a
PUBLIC	??_C@_0BB@MFKKPKGO@public_delay?4ani?$AA@	; `string'
PUBLIC	??_C@_0N@IOCDDEKI@EmoticonChar?$AA@		; `string'
PUBLIC	_rkInfo$GSCopy$
PUBLIC	?SetAvata@io3DCharEmoticon@@QAEXABUCHARACTER@@H_NW4SpecialAtcionType@@@Z ; io3DCharEmoticon::SetAvata
EXTRN	?ChangeHeadOutLineThick@ioCreateChar@@QAEXM@Z:PROC ; ioCreateChar::ChangeHeadOutLineThick
EXTRN	?ChangeHairOutLineThick@ioCreateChar@@QAEXM@Z:PROC ; ioCreateChar::ChangeHairOutLineThick
EXTRN	__imp_?IsFileExist@ioResourceLoader@@QAE_NPBD_N@Z:PROC
EXTRN	__imp_?GetInstance@ioResourceLoader@@SAAAV1@XZ:PROC
EXTRN	?GetFaceChangeName@@YA_NAAVioHashString@@PBD_NH@Z:PROC ; GetFaceChangeName
EXTRN	?Update@ioCreateChar@@QAEXM@Z:PROC		; ioCreateChar::Update
EXTRN	?SetLoopAni@ioCreateChar@@QAEXABVioHashString@@M@Z:PROC ; ioCreateChar::SetLoopAni
EXTRN	?SetCameraPos@ioUI3DRender@@QAEXABUD3DXVECTOR3@@@Z:PROC ; ioUI3DRender::SetCameraPos
EXTRN	?AvataCamPosition@RaceSetting@@YAABUD3DXVECTOR3@@XZ:PROC ; RaceSetting::AvataCamPosition
EXTRN	?SetScale@ioCreateChar@@QAEXMMM@Z:PROC		; ioCreateChar::SetScale
EXTRN	?SetYaw@ioCreateChar@@QAEXM@Z:PROC		; ioCreateChar::SetYaw
EXTRN	?AvataAngleY@RaceSetting@@YAMXZ:PROC		; RaceSetting::AvataAngleY
EXTRN	?SetPitch@ioCreateChar@@QAEXM@Z:PROC		; ioCreateChar::SetPitch
EXTRN	?AvataAngleX@RaceSetting@@YAMXZ:PROC		; RaceSetting::AvataAngleX
EXTRN	?SetPosition@ioCreateChar@@QAEXABUD3DXVECTOR3@@@Z:PROC ; ioCreateChar::SetPosition
EXTRN	?AvataPosition@RaceSetting@@YAABUD3DXVECTOR3@@XZ:PROC ; RaceSetting::AvataPosition
EXTRN	?SetCurRaceDetail@RaceSetting@@YAXABUCHARACTER@@@Z:PROC ; RaceSetting::SetCurRaceDetail
EXTRN	?DestroyHandAndBody@ioCreateChar@@QAEXXZ:PROC	; ioCreateChar::DestroyHandAndBody
EXTRN	?CreateChar@ioUI3DRender@@QAEPAVioCreateChar@@ABUCHARACTER@@ABVioHashString@@_N@Z:PROC ; ioUI3DRender::CreateChar
EXTRN	__imp_??0ioHashString@@QAE@PBD@Z:PROC
EXTRN	__EH_epilog3_GS:PROC
EXTRN	__EH_prolog3_GS:PROC
EXTRN	_memset:PROC
;	COMDAT ??_C@_0BE@OPCOAHAM@resource?2texture?2?$CFs?$AA@
; File d:\lost saga for developer\youtube\tutorial\source\src\lsclient\encryptvalue.h
CONST	SEGMENT
??_C@_0BE@OPCOAHAM@resource?2texture?2?$CFs?$AA@ DB 'resource\texture\%s', 00H ; `string'
CONST	ENDS
;	COMDAT __real@3c23d70a
CONST	SEGMENT
__real@3c23d70a DD 03c23d70ar			; 0.01
CONST	ENDS
;	COMDAT ??_C@_0BB@MFKKPKGO@public_delay?4ani?$AA@
CONST	SEGMENT
??_C@_0BB@MFKKPKGO@public_delay?4ani?$AA@ DB 'public_delay.ani', 00H ; `string'
CONST	ENDS
;	COMDAT ??_C@_0N@IOCDDEKI@EmoticonChar?$AA@
CONST	SEGMENT
??_C@_0N@IOCDDEKI@EmoticonChar?$AA@ DB 'EmoticonChar', 00H ; `string'
CONST	ENDS
;	COMDAT xdata$x
xdata$x	SEGMENT
__unwindtable$?SetAvata@io3DCharEmoticon@@QAEXABUCHARACTER@@H_NW4SpecialAtcionType@@@Z DD 0ffffffffH
	DD	FLAT:__unwindfunclet$?SetAvata@io3DCharEmoticon@@QAEXABUCHARACTER@@H_NW4SpecialAtcionType@@@Z$0
	DD	0ffffffffH
	DD	FLAT:__unwindfunclet$?SetAvata@io3DCharEmoticon@@QAEXABUCHARACTER@@H_NW4SpecialAtcionType@@@Z$1
	DD	0ffffffffH
	DD	FLAT:__unwindfunclet$?SetAvata@io3DCharEmoticon@@QAEXABUCHARACTER@@H_NW4SpecialAtcionType@@@Z$2
	DD	02H
	DD	FLAT:__unwindfunclet$?SetAvata@io3DCharEmoticon@@QAEXABUCHARACTER@@H_NW4SpecialAtcionType@@@Z$3
__ehfuncinfo$?SetAvata@io3DCharEmoticon@@QAEXABUCHARACTER@@H_NW4SpecialAtcionType@@@Z DD 019930522H
	DD	04H
	DD	FLAT:__unwindtable$?SetAvata@io3DCharEmoticon@@QAEXABUCHARACTER@@H_NW4SpecialAtcionType@@@Z
	DD	2 DUP(00H)
	DD	2 DUP(00H)
	DD	00H
	DD	01H
; Function compile flags: /Ogsp
; File d:\lost saga for developer\youtube\tutorial\source\src\lsclient\io3dcharemoticon.cpp
xdata$x	ENDS
;	COMDAT ?SetAvata@io3DCharEmoticon@@QAEXABUCHARACTER@@H_NW4SpecialAtcionType@@@Z
_TEXT	SEGMENT
_szNewFaceName$ = -340					; size = 16
$T513060 = -324						; size = 16
$T513059 = -324						; size = 16
_szFace$ = -308						; size = 16
_value$513081 = -292					; size = 4
_value$513075 = -292					; size = 4
_value$513070 = -292					; size = 4
tv313 = -288						; size = 4
_rkInfo$GSCopy$ = -288					; size = 4
tv293 = -284						; size = 4
_bMale$ = -284						; size = 1
_bGetNameOK$ = -277					; size = 1
_szFullName$506369 = -276				; size = 260
__$EHRec$ = -12						; size = 12
_rkInfo$ = 8						; size = 4
_iChatLen$ = 12						; size = 4
_bNoSound$ = 16						; size = 1
_iType$ = 20						; size = 4
?SetAvata@io3DCharEmoticon@@QAEXABUCHARACTER@@H_NW4SpecialAtcionType@@@Z PROC ; io3DCharEmoticon::SetAvata, COMDAT
; _this$ = ecx

; 130  : {

  00000	68 48 01 00 00	 push	 328			; 00000148H
  00005	b8 00 00 00 00	 mov	 eax, __ehhandler$?SetAvata@io3DCharEmoticon@@QAEXABUCHARACTER@@H_NW4SpecialAtcionType@@@Z
  0000a	e8 00 00 00 00	 call	 __EH_prolog3_GS

; 136  : 	if( !m_pAvata )	return;

  0000f	8b 45 08	 mov	 eax, DWORD PTR _rkInfo$[ebp]
  00012	8b f1		 mov	 esi, ecx
  00014	33 db		 xor	 ebx, ebx
  00016	89 85 e0 fe ff
	ff		 mov	 DWORD PTR _rkInfo$GSCopy$[ebp], eax
  0001c	39 1e		 cmp	 DWORD PTR [esi], ebx
  0001e	0f 84 89 03 00
	00		 je	 $LN21@SetAvata

; 131  : 	if( !m_pUI3DRender )	return;
; 132  : 
; 133  : 	SAFEDELETE( m_pAvata );

  00024	8b 4e 04	 mov	 ecx, DWORD PTR [esi+4]
  00027	3b cb		 cmp	 ecx, ebx
  00029	74 0a		 je	 SHORT $LN19@SetAvata
  0002b	8b 01		 mov	 eax, DWORD PTR [ecx]
  0002d	6a 01		 push	 1
  0002f	ff 50 04	 call	 DWORD PTR [eax+4]
  00032	89 5e 04	 mov	 DWORD PTR [esi+4], ebx
$LN19@SetAvata:

; 134  : 
; 135  : 	m_pAvata = m_pUI3DRender->CreateChar( rkInfo, "EmoticonChar", false );

  00035	8b 3d 00 00 00
	00		 mov	 edi, DWORD PTR __imp_??0ioHashString@@QAE@PBD@Z
  0003b	68 00 00 00 00	 push	 OFFSET ??_C@_0N@IOCDDEKI@EmoticonChar?$AA@
  00040	8d 8d bc fe ff
	ff		 lea	 ecx, DWORD PTR $T513059[ebp]
  00046	ff d7		 call	 edi
  00048	8b 0e		 mov	 ecx, DWORD PTR [esi]
  0004a	53		 push	 ebx
  0004b	8d 85 bc fe ff
	ff		 lea	 eax, DWORD PTR $T513059[ebp]
  00051	50		 push	 eax
  00052	ff b5 e0 fe ff
	ff		 push	 DWORD PTR _rkInfo$GSCopy$[ebp]
  00058	89 5d fc	 mov	 DWORD PTR __$EHRec$[ebp+8], ebx
  0005b	e8 00 00 00 00	 call	 ?CreateChar@ioUI3DRender@@QAEPAVioCreateChar@@ABUCHARACTER@@ABVioHashString@@_N@Z ; ioUI3DRender::CreateChar
  00060	8b 1d 00 00 00
	00		 mov	 ebx, DWORD PTR __imp_??1ioHashString@@QAE@XZ
  00066	83 4d fc ff	 or	 DWORD PTR __$EHRec$[ebp+8], -1
  0006a	8d 8d bc fe ff
	ff		 lea	 ecx, DWORD PTR $T513059[ebp]
  00070	89 46 04	 mov	 DWORD PTR [esi+4], eax
  00073	ff d3		 call	 ebx

; 136  : 	if( !m_pAvata )	return;

  00075	8b 4e 04	 mov	 ecx, DWORD PTR [esi+4]
  00078	85 c9		 test	 ecx, ecx
  0007a	0f 84 2d 03 00
	00		 je	 $LN21@SetAvata

; 137  : 
; 138  : 	m_pAvata->DestroyHandAndBody();

  00080	e8 00 00 00 00	 call	 ?DestroyHandAndBody@ioCreateChar@@QAEXXZ ; ioCreateChar::DestroyHandAndBody

; 139  : 
; 140  : 	RaceSetting::SetCurRaceDetail( rkInfo );

  00085	ff b5 e0 fe ff
	ff		 push	 DWORD PTR _rkInfo$GSCopy$[ebp]
  0008b	e8 00 00 00 00	 call	 ?SetCurRaceDetail@RaceSetting@@YAXABUCHARACTER@@@Z ; RaceSetting::SetCurRaceDetail

; 141  : 	m_pAvata->SetPosition( RaceSetting::AvataPosition() );

  00090	8b 46 04	 mov	 eax, DWORD PTR [esi+4]
  00093	59		 pop	 ecx
  00094	89 85 e4 fe ff
	ff		 mov	 DWORD PTR tv293[ebp], eax
  0009a	e8 00 00 00 00	 call	 ?AvataPosition@RaceSetting@@YAABUD3DXVECTOR3@@XZ ; RaceSetting::AvataPosition
  0009f	8b 8d e4 fe ff
	ff		 mov	 ecx, DWORD PTR tv293[ebp]
  000a5	50		 push	 eax
  000a6	e8 00 00 00 00	 call	 ?SetPosition@ioCreateChar@@QAEXABUD3DXVECTOR3@@@Z ; ioCreateChar::SetPosition

; 142  : 	m_pAvata->SetPitch( RaceSetting::AvataAngleX() );

  000ab	8b 46 04	 mov	 eax, DWORD PTR [esi+4]
  000ae	89 85 e4 fe ff
	ff		 mov	 DWORD PTR tv293[ebp], eax
  000b4	e8 00 00 00 00	 call	 ?AvataAngleX@RaceSetting@@YAMXZ ; RaceSetting::AvataAngleX
  000b9	51		 push	 ecx
  000ba	8b 8d e4 fe ff
	ff		 mov	 ecx, DWORD PTR tv293[ebp]
  000c0	d9 1c 24	 fstp	 DWORD PTR [esp]
  000c3	e8 00 00 00 00	 call	 ?SetPitch@ioCreateChar@@QAEXM@Z ; ioCreateChar::SetPitch

; 143  : 
; 144  : 
; 145  : 	m_pAvata->SetYaw( RaceSetting::AvataAngleY() );

  000c8	8b 46 04	 mov	 eax, DWORD PTR [esi+4]
  000cb	89 85 e4 fe ff
	ff		 mov	 DWORD PTR tv293[ebp], eax
  000d1	e8 00 00 00 00	 call	 ?AvataAngleY@RaceSetting@@YAMXZ ; RaceSetting::AvataAngleY
  000d6	51		 push	 ecx
  000d7	8b 8d e4 fe ff
	ff		 mov	 ecx, DWORD PTR tv293[ebp]
  000dd	d9 1c 24	 fstp	 DWORD PTR [esp]
  000e0	e8 00 00 00 00	 call	 ?SetYaw@ioCreateChar@@QAEXM@Z ; ioCreateChar::SetYaw

; 146  : 	m_pAvata->SetScale( m_fCharScale, m_fCharScale, m_fCharScale );

  000e5	f3 0f 10 05 00
	00 00 00	 movss	 xmm0, DWORD PTR ?m_fCharScale@io3DCharEmoticon@@0MA
  000ed	8b 4e 04	 mov	 ecx, DWORD PTR [esi+4]
  000f0	83 ec 0c	 sub	 esp, 12			; 0000000cH
  000f3	f3 0f 11 44 24
	08		 movss	 DWORD PTR [esp+8], xmm0
  000f9	f3 0f 11 44 24
	04		 movss	 DWORD PTR [esp+4], xmm0
  000ff	f3 0f 11 04 24	 movss	 DWORD PTR [esp], xmm0
  00104	e8 00 00 00 00	 call	 ?SetScale@ioCreateChar@@QAEXMMM@Z ; ioCreateChar::SetScale

; 147  : 
; 148  : 	m_pUI3DRender->SetCameraPos( RaceSetting::AvataCamPosition() );

  00109	e8 00 00 00 00	 call	 ?AvataCamPosition@RaceSetting@@YAABUD3DXVECTOR3@@XZ ; RaceSetting::AvataCamPosition
  0010e	8b 0e		 mov	 ecx, DWORD PTR [esi]
  00110	50		 push	 eax
  00111	e8 00 00 00 00	 call	 ?SetCameraPos@ioUI3DRender@@QAEXABUD3DXVECTOR3@@@Z ; ioUI3DRender::SetCameraPos

; 149  : 
; 150  : 	m_pAvata->SetLoopAni( "public_delay.ani" );

  00116	68 00 00 00 00	 push	 OFFSET ??_C@_0BB@MFKKPKGO@public_delay?4ani?$AA@
  0011b	8d 8d bc fe ff
	ff		 lea	 ecx, DWORD PTR $T513060[ebp]
  00121	ff d7		 call	 edi
  00123	8b 4e 04	 mov	 ecx, DWORD PTR [esi+4]
  00126	0f 57 c0	 xorps	 xmm0, xmm0
  00129	51		 push	 ecx
  0012a	8d 85 bc fe ff
	ff		 lea	 eax, DWORD PTR $T513060[ebp]
  00130	f3 0f 11 04 24	 movss	 DWORD PTR [esp], xmm0
  00135	50		 push	 eax
  00136	c7 45 fc 01 00
	00 00		 mov	 DWORD PTR __$EHRec$[ebp+8], 1
  0013d	e8 00 00 00 00	 call	 ?SetLoopAni@ioCreateChar@@QAEXABVioHashString@@M@Z ; ioCreateChar::SetLoopAni
  00142	83 4d fc ff	 or	 DWORD PTR __$EHRec$[ebp+8], -1
  00146	8d 8d bc fe ff
	ff		 lea	 ecx, DWORD PTR $T513060[ebp]
  0014c	ff d3		 call	 ebx

; 151  : 	m_pAvata->Update( 0.01f );

  0014e	8b 4e 04	 mov	 ecx, DWORD PTR [esi+4]
  00151	f3 0f 10 05 00
	00 00 00	 movss	 xmm0, DWORD PTR __real@3c23d70a
  00159	51		 push	 ecx
  0015a	f3 0f 11 04 24	 movss	 DWORD PTR [esp], xmm0
  0015f	e8 00 00 00 00	 call	 ?Update@ioCreateChar@@QAEXM@Z ; ioCreateChar::Update

; 152  : 
; 153  : 	ioHashString szFace = m_FacePostfix;

  00164	68 00 00 00 00	 push	 OFFSET ?m_FacePostfix@io3DCharEmoticon@@0VioHashString@@A ; io3DCharEmoticon::m_FacePostfix
  00169	8d 8d cc fe ff
	ff		 lea	 ecx, DWORD PTR _szFace$[ebp]
  0016f	ff 15 00 00 00
	00		 call	 DWORD PTR __imp_??0ioHashString@@QAE@ABV0@@Z

; 154  : 	m_FaceChange = FC_READY;

  00175	83 66 20 00	 and	 DWORD PTR [esi+32], 0
  00179	c7 45 fc 02 00
	00 00		 mov	 DWORD PTR __$EHRec$[ebp+8], 2

; 155  : 	m_dwSetStart = FRAMEGETTIME();

  00180	ff 15 00 00 00
	00		 call	 DWORD PTR __imp_?GetSingleton@ioFrameTimer@@SAAAV1@XZ
  00186	8b c8		 mov	 ecx, eax
  00188	ff 15 00 00 00
	00		 call	 DWORD PTR __imp_?GetLoopSec@ioFrameTimer@@QBEKXZ

; 156  : 	m_SpecialType = iType;

  0018e	8b 7d 14	 mov	 edi, DWORD PTR _iType$[ebp]
  00191	89 46 24	 mov	 DWORD PTR [esi+36], eax
  00194	89 7e 40	 mov	 DWORD PTR [esi+64], edi

; 157  : 
; 158  : 	switch( iType )

  00197	83 ff 01	 cmp	 edi, 1
  0019a	74 1a		 je	 SHORT $LN14@SetAvata
  0019c	83 ff 02	 cmp	 edi, 2
  0019f	74 0e		 je	 SHORT $LN13@SetAvata
  001a1	7e 24		 jle	 SHORT $LN16@SetAvata
  001a3	83 ff 04	 cmp	 edi, 4
  001a6	7f 1f		 jg	 SHORT $LN16@SetAvata

; 168  : 	case SPA_FALL:
; 169  : 	case SPA_ACTION:
; 170  : 		szFace = m_ActionFace;

  001a8	68 00 00 00 00	 push	 OFFSET ?m_ActionFace@io3DCharEmoticon@@0VioHashString@@A ; io3DCharEmoticon::m_ActionFace

; 171  : 		break;

  001ad	eb 0c		 jmp	 SHORT $LN39@SetAvata
$LN13@SetAvata:

; 164  : 		break;
; 165  : 	case SPA_DIE:
; 166  : 		szFace = m_DieFace;

  001af	68 00 00 00 00	 push	 OFFSET ?m_DieFace@io3DCharEmoticon@@0VioHashString@@A ; io3DCharEmoticon::m_DieFace

; 167  : 		break;

  001b4	eb 05		 jmp	 SHORT $LN39@SetAvata
$LN14@SetAvata:

; 159  : 	{
; 160  : 	case SPA_NONE:
; 161  : 		break;
; 162  : 	case SPA_KILL:
; 163  : 		szFace = m_KillFace;

  001b6	68 00 00 00 00	 push	 OFFSET ?m_KillFace@io3DCharEmoticon@@0VioHashString@@A ; io3DCharEmoticon::m_KillFace
$LN39@SetAvata:
  001bb	8d 8d cc fe ff
	ff		 lea	 ecx, DWORD PTR _szFace$[ebp]
  001c1	ff 15 00 00 00
	00		 call	 DWORD PTR __imp_??4ioHashString@@QAEAAV0@ABV0@@Z
$LN16@SetAvata:

; 172  : 	}
; 173  : 
; 174  : 	bool bMale = false;
; 175  : 	if( rkInfo.m_sex == 1 )

  001c7	8b 8d e0 fe ff
	ff		 mov	 ecx, DWORD PTR _rkInfo$GSCopy$[ebp]
  001cd	8d 85 dc fe ff
	ff		 lea	 eax, DWORD PTR _value$513070[ebp]
  001d3	83 c1 60	 add	 ecx, 96			; 00000060H
  001d6	50		 push	 eax
  001d7	c6 85 e4 fe ff
	ff 00		 mov	 BYTE PTR _bMale$[ebp], 0
  001de	e8 00 00 00 00	 call	 ?DecryptValueToPool@?$CEncrypt@H@@QAEXPAH@Z ; CEncrypt<int>::DecryptValueToPool
  001e3	83 bd dc fe ff
	ff 01		 cmp	 DWORD PTR _value$513070[ebp], 1
  001ea	75 07		 jne	 SHORT $LN11@SetAvata

; 176  : 		bMale = true;

  001ec	c6 85 e4 fe ff
	ff 01		 mov	 BYTE PTR _bMale$[ebp], 1
$LN11@SetAvata:

; 177  : 	ioHashString szNewFaceName;

  001f3	8d 8d ac fe ff
	ff		 lea	 ecx, DWORD PTR _szNewFaceName$[ebp]
  001f9	ff 15 00 00 00
	00		 call	 DWORD PTR __imp_??0ioHashString@@QAE@XZ

; 178  : 	bool bGetNameOK = GetFaceChangeName( szNewFaceName,
; 179  : 										 szFace.c_str(),
; 180  : 										 bMale,
; 181  : 										 rkInfo.m_face );

  001ff	8b 8d e0 fe ff
	ff		 mov	 ecx, DWORD PTR _rkInfo$GSCopy$[ebp]
  00205	8d 85 dc fe ff
	ff		 lea	 eax, DWORD PTR _value$513075[ebp]
  0020b	81 c1 c0 00 00
	00		 add	 ecx, 192		; 000000c0H
  00211	50		 push	 eax
  00212	c6 45 fc 03	 mov	 BYTE PTR __$EHRec$[ebp+8], 3
  00216	89 8d e0 fe ff
	ff		 mov	 DWORD PTR tv313[ebp], ecx
  0021c	e8 00 00 00 00	 call	 ?DecryptValueToPool@?$CEncrypt@H@@QAEXPAH@Z ; CEncrypt<int>::DecryptValueToPool
  00221	ff b5 dc fe ff
	ff		 push	 DWORD PTR _value$513075[ebp]
  00227	8d 8d cc fe ff
	ff		 lea	 ecx, DWORD PTR _szFace$[ebp]
  0022d	ff b5 e4 fe ff
	ff		 push	 DWORD PTR _bMale$[ebp]
  00233	ff 15 00 00 00
	00		 call	 DWORD PTR __imp_?c_str@ioHashString@@QBEPBDXZ
  00239	50		 push	 eax
  0023a	8d 85 ac fe ff
	ff		 lea	 eax, DWORD PTR _szNewFaceName$[ebp]
  00240	50		 push	 eax
  00241	e8 00 00 00 00	 call	 ?GetFaceChangeName@@YA_NAAVioHashString@@PBD_NH@Z ; GetFaceChangeName
  00246	83 c4 10	 add	 esp, 16			; 00000010H

; 182  : 
; 183  : 	if( !bMale )

  00249	80 bd e4 fe ff
	ff 00		 cmp	 BYTE PTR _bMale$[ebp], 0
  00250	88 85 eb fe ff
	ff		 mov	 BYTE PTR _bGetNameOK$[ebp], al
  00256	0f 85 9a 00 00
	00		 jne	 $LN9@SetAvata

; 184  : 	{
; 185  : 		char szFullName[MAX_PATH]="";

  0025c	68 03 01 00 00	 push	 259			; 00000103H
  00261	8d 85 ed fe ff
	ff		 lea	 eax, DWORD PTR _szFullName$506369[ebp+1]
  00267	6a 00		 push	 0
  00269	50		 push	 eax
  0026a	c6 85 ec fe ff
	ff 00		 mov	 BYTE PTR _szFullName$506369[ebp], 0
  00271	e8 00 00 00 00	 call	 _memset
  00276	83 c4 0c	 add	 esp, 12			; 0000000cH

; 186  : 		StringCbPrintf( szFullName, sizeof( szFullName ), "resource\\texture\\%s" , szNewFaceName.c_str() );

  00279	8d 8d ac fe ff
	ff		 lea	 ecx, DWORD PTR _szNewFaceName$[ebp]
  0027f	ff 15 00 00 00
	00		 call	 DWORD PTR __imp_?c_str@ioHashString@@QBEPBDXZ
  00285	50		 push	 eax
  00286	68 00 00 00 00	 push	 OFFSET ??_C@_0BE@OPCOAHAM@resource?2texture?2?$CFs?$AA@
  0028b	8d 85 ec fe ff
	ff		 lea	 eax, DWORD PTR _szFullName$506369[ebp]
  00291	68 04 01 00 00	 push	 260			; 00000104H
  00296	50		 push	 eax
  00297	e8 00 00 00 00	 call	 ?StringCbPrintfA@@YAJPADIPBDZZ ; StringCbPrintfA
  0029c	83 c4 10	 add	 esp, 16			; 00000010H

; 187  : 		if( !g_ResourceLoader.IsFileExist( szFullName ) )

  0029f	8d 85 ec fe ff
	ff		 lea	 eax, DWORD PTR _szFullName$506369[ebp]
  002a5	6a 00		 push	 0
  002a7	50		 push	 eax
  002a8	ff 15 00 00 00
	00		 call	 DWORD PTR __imp_?GetInstance@ioResourceLoader@@SAAAV1@XZ
  002ae	8b c8		 mov	 ecx, eax
  002b0	ff 15 00 00 00
	00		 call	 DWORD PTR __imp_?IsFileExist@ioResourceLoader@@QAE_NPBD_N@Z
  002b6	84 c0		 test	 al, al
  002b8	75 3c		 jne	 SHORT $LN9@SetAvata

; 188  : 		{
; 189  : 			bGetNameOK = GetFaceChangeName( szNewFaceName, szFace.c_str(), true, rkInfo.m_face ); // 남자로 설정.

  002ba	8b 8d e0 fe ff
	ff		 mov	 ecx, DWORD PTR tv313[ebp]
  002c0	8d 85 dc fe ff
	ff		 lea	 eax, DWORD PTR _value$513081[ebp]
  002c6	50		 push	 eax
  002c7	e8 00 00 00 00	 call	 ?DecryptValueToPool@?$CEncrypt@H@@QAEXPAH@Z ; CEncrypt<int>::DecryptValueToPool
  002cc	ff b5 dc fe ff
	ff		 push	 DWORD PTR _value$513081[ebp]
  002d2	8d 8d cc fe ff
	ff		 lea	 ecx, DWORD PTR _szFace$[ebp]
  002d8	6a 01		 push	 1
  002da	ff 15 00 00 00
	00		 call	 DWORD PTR __imp_?c_str@ioHashString@@QBEPBDXZ
  002e0	50		 push	 eax
  002e1	8d 85 ac fe ff
	ff		 lea	 eax, DWORD PTR _szNewFaceName$[ebp]
  002e7	50		 push	 eax
  002e8	e8 00 00 00 00	 call	 ?GetFaceChangeName@@YA_NAAVioHashString@@PBD_NH@Z ; GetFaceChangeName
  002ed	83 c4 10	 add	 esp, 16			; 00000010H
  002f0	88 85 eb fe ff
	ff		 mov	 BYTE PTR _bGetNameOK$[ebp], al
$LN9@SetAvata:

; 190  : 		}
; 191  : 	}
; 192  : 
; 193  : 	if( bGetNameOK )

  002f6	80 bd eb fe ff
	ff 00		 cmp	 BYTE PTR _bGetNameOK$[ebp], 0

; 194  : 	{
; 195  : 		m_ChangeFaceTex = szNewFaceName;

  002fd	8d 4e 10	 lea	 ecx, DWORD PTR [esi+16]
  00300	74 0f		 je	 SHORT $LN8@SetAvata
  00302	8d 85 ac fe ff
	ff		 lea	 eax, DWORD PTR _szNewFaceName$[ebp]
  00308	50		 push	 eax
  00309	ff 15 00 00 00
	00		 call	 DWORD PTR __imp_??4ioHashString@@QAEAAV0@ABV0@@Z

; 196  : 	}
; 197  : 	else

  0030f	eb 06		 jmp	 SHORT $LN7@SetAvata
$LN8@SetAvata:

; 198  : 	{
; 199  : 		m_ChangeFaceTex.Clear();

  00311	ff 15 00 00 00
	00		 call	 DWORD PTR __imp_?Clear@ioHashString@@QAEXXZ
$LN7@SetAvata:

; 200  : 	}
; 201  : 
; 202  : 	if( m_bChangeOutLineThick )

  00317	80 3d 00 00 00
	00 00		 cmp	 BYTE PTR ?m_bChangeOutLineThick@io3DCharEmoticon@@0_NA, 0 ; io3DCharEmoticon::m_bChangeOutLineThick
  0031e	74 2c		 je	 SHORT $LN6@SetAvata

; 203  : 	{
; 204  : 		m_pAvata->ChangeHairOutLineThick( m_fHairOutLineThick );

  00320	8b 4e 04	 mov	 ecx, DWORD PTR [esi+4]
  00323	f3 0f 10 05 00
	00 00 00	 movss	 xmm0, DWORD PTR ?m_fHairOutLineThick@io3DCharEmoticon@@0MA
  0032b	51		 push	 ecx
  0032c	f3 0f 11 04 24	 movss	 DWORD PTR [esp], xmm0
  00331	e8 00 00 00 00	 call	 ?ChangeHairOutLineThick@ioCreateChar@@QAEXM@Z ; ioCreateChar::ChangeHairOutLineThick

; 205  : 		m_pAvata->ChangeHeadOutLineThick( m_fHeadOutLineThick );

  00336	8b 4e 04	 mov	 ecx, DWORD PTR [esi+4]
  00339	f3 0f 10 05 00
	00 00 00	 movss	 xmm0, DWORD PTR ?m_fHeadOutLineThick@io3DCharEmoticon@@0MA
  00341	51		 push	 ecx
  00342	f3 0f 11 04 24	 movss	 DWORD PTR [esp], xmm0
  00347	e8 00 00 00 00	 call	 ?ChangeHeadOutLineThick@ioCreateChar@@QAEXM@Z ; ioCreateChar::ChangeHeadOutLineThick
$LN6@SetAvata:

; 206  : 	}
; 207  : 
; 208  : 	m_iMaxChangeCount = ( iChatLen + 1 ) / 2;

  0034c	8b 45 0c	 mov	 eax, DWORD PTR _iChatLen$[ebp]
  0034f	40		 inc	 eax
  00350	99		 cdq
  00351	2b c2		 sub	 eax, edx
  00353	d1 f8		 sar	 eax, 1

; 209  : 
; 210  : 	if( !bNoSound )

  00355	80 7d 10 00	 cmp	 BYTE PTR _bNoSound$[ebp], 0
  00359	89 46 28	 mov	 DWORD PTR [esi+40], eax
  0035c	75 0a		 jne	 SHORT $LN5@SetAvata

; 211  : 	{
; 212  : 		PlayTalkSound( m_iMaxChangeCount );

  0035e	50		 push	 eax
  0035f	8b ce		 mov	 ecx, esi
  00361	e8 00 00 00 00	 call	 ?PlayTalkSound@io3DCharEmoticon@@IAEXH@Z ; io3DCharEmoticon::PlayTalkSound

; 213  : 	}
; 214  : 	else

  00366	eb 09		 jmp	 SHORT $LN4@SetAvata
$LN5@SetAvata:

; 215  : 	{
; 216  : 		m_CurChatSound.Clear();

  00368	8d 4e 30	 lea	 ecx, DWORD PTR [esi+48]
  0036b	ff 15 00 00 00
	00		 call	 DWORD PTR __imp_?Clear@ioHashString@@QAEXXZ
$LN4@SetAvata:

; 217  : 	}
; 218  : 
; 219  : 	m_iMaxChangeCount = max( 1, m_iMaxChangeCount ) * 2;

  00371	8b 46 28	 mov	 eax, DWORD PTR [esi+40]
  00374	83 f8 01	 cmp	 eax, 1
  00377	7d 03		 jge	 SHORT $LN25@SetAvata
  00379	33 c0		 xor	 eax, eax
  0037b	40		 inc	 eax
$LN25@SetAvata:
  0037c	03 c0		 add	 eax, eax
  0037e	89 46 28	 mov	 DWORD PTR [esi+40], eax

; 220  : 
; 221  : 	switch( iType )

  00381	85 ff		 test	 edi, edi
  00383	7e 0c		 jle	 SHORT $LN2@SetAvata
  00385	83 ff 04	 cmp	 edi, 4
  00388	7f 07		 jg	 SHORT $LN2@SetAvata

; 222  : 	{
; 223  : 	case SPA_KILL:
; 224  : 	case SPA_DIE:
; 225  : 	case SPA_FALL:
; 226  : 	case SPA_ACTION:
; 227  : 		m_iMaxChangeCount = 2;

  0038a	c7 46 28 02 00
	00 00		 mov	 DWORD PTR [esi+40], 2
$LN2@SetAvata:

; 228  : 		break;
; 229  : 	}
; 230  : 
; 231  : 	m_iCurChangeCount = 0;

  00391	83 66 2c 00	 and	 DWORD PTR [esi+44], 0

; 232  : }

  00395	8d 8d ac fe ff
	ff		 lea	 ecx, DWORD PTR _szNewFaceName$[ebp]
  0039b	c6 45 fc 02	 mov	 BYTE PTR __$EHRec$[ebp+8], 2
  0039f	ff d3		 call	 ebx
  003a1	83 4d fc ff	 or	 DWORD PTR __$EHRec$[ebp+8], -1
  003a5	8d 8d cc fe ff
	ff		 lea	 ecx, DWORD PTR _szFace$[ebp]
  003ab	ff d3		 call	 ebx
$LN21@SetAvata:
  003ad	e8 00 00 00 00	 call	 __EH_epilog3_GS
  003b2	c2 10 00	 ret	 16			; 00000010H
_TEXT	ENDS
;	COMDAT text$x
text$x	SEGMENT
__unwindfunclet$?SetAvata@io3DCharEmoticon@@QAEXABUCHARACTER@@H_NW4SpecialAtcionType@@@Z$0:
  00000	8d 8d bc fe ff
	ff		 lea	 ecx, DWORD PTR $T513059[ebp]
  00006	ff 25 00 00 00
	00		 jmp	 DWORD PTR __imp_??1ioHashString@@QAE@XZ
__unwindfunclet$?SetAvata@io3DCharEmoticon@@QAEXABUCHARACTER@@H_NW4SpecialAtcionType@@@Z$1:
  0000c	8d 8d bc fe ff
	ff		 lea	 ecx, DWORD PTR $T513060[ebp]
  00012	ff 25 00 00 00
	00		 jmp	 DWORD PTR __imp_??1ioHashString@@QAE@XZ
__unwindfunclet$?SetAvata@io3DCharEmoticon@@QAEXABUCHARACTER@@H_NW4SpecialAtcionType@@@Z$2:
  00018	8d 8d cc fe ff
	ff		 lea	 ecx, DWORD PTR _szFace$[ebp]
  0001e	ff 25 00 00 00
	00		 jmp	 DWORD PTR __imp_??1ioHashString@@QAE@XZ
__unwindfunclet$?SetAvata@io3DCharEmoticon@@QAEXABUCHARACTER@@H_NW4SpecialAtcionType@@@Z$3:
  00024	8d 8d ac fe ff
	ff		 lea	 ecx, DWORD PTR _szNewFaceName$[ebp]
  0002a	ff 25 00 00 00
	00		 jmp	 DWORD PTR __imp_??1ioHashString@@QAE@XZ
__ehhandler$?SetAvata@io3DCharEmoticon@@QAEXABUCHARACTER@@H_NW4SpecialAtcionType@@@Z:
  00030	8b 54 24 08	 mov	 edx, DWORD PTR [esp+8]
  00034	8d 42 0c	 lea	 eax, DWORD PTR [edx+12]
  00037	8b 8a a8 fe ff
	ff		 mov	 ecx, DWORD PTR [edx-344]
  0003d	33 c8		 xor	 ecx, eax
  0003f	e8 00 00 00 00	 call	 @__security_check_cookie@4
  00044	8b 4a fc	 mov	 ecx, DWORD PTR [edx-4]
  00047	33 c8		 xor	 ecx, eax
  00049	e8 00 00 00 00	 call	 @__security_check_cookie@4
  0004e	b8 00 00 00 00	 mov	 eax, OFFSET __ehfuncinfo$?SetAvata@io3DCharEmoticon@@QAEXABUCHARACTER@@H_NW4SpecialAtcionType@@@Z
  00053	e9 00 00 00 00	 jmp	 ___CxxFrameHandler3
text$x	ENDS
?SetAvata@io3DCharEmoticon@@QAEXABUCHARACTER@@H_NW4SpecialAtcionType@@@Z ENDP ; io3DCharEmoticon::SetAvata
PUBLIC	__real@44160000
PUBLIC	__real@42340000
PUBLIC	__real@44610000
PUBLIC	__real@c1700000
PUBLIC	__real@4f800000
PUBLIC	__real@c30a0000
PUBLIC	__real@44480000
PUBLIC	??_C@_0L@MHICKLHG@ResultChar?$AA@		; `string'
PUBLIC	?SetAvata@io3DCharEmoticon@@QAEXABUCHARACTER@@H_NW4SpecialAtcionType@@HH@Z ; io3DCharEmoticon::SetAvata
EXTRN	?SetProjection@ioUI3DRender@@QAEXMMMM@Z:PROC	; ioUI3DRender::SetProjection
EXTRN	?SetLookAt@ioUI3DRender@@QAEXMMM@Z:PROC		; ioUI3DRender::SetLookAt
EXTRN	?RotateY@ioCreateChar@@QAEXM@Z:PROC		; ioCreateChar::RotateY
EXTRN	?SetPosition@ioCreateChar@@QAEXMMM@Z:PROC	; ioCreateChar::SetPosition
;	COMDAT __real@44160000
; File d:\lost saga for developer\youtube\tutorial\source\src\lsclient\encryptvalue.h
CONST	SEGMENT
__real@44160000 DD 044160000r			; 600
CONST	ENDS
;	COMDAT __real@42340000
CONST	SEGMENT
__real@42340000 DD 042340000r			; 45
CONST	ENDS
;	COMDAT __real@44610000
CONST	SEGMENT
__real@44610000 DD 044610000r			; 900
CONST	ENDS
;	COMDAT __real@c1700000
CONST	SEGMENT
__real@c1700000 DD 0c1700000r			; -15
CONST	ENDS
;	COMDAT __real@4f800000
CONST	SEGMENT
__real@4f800000 DD 04f800000r			; 4.29497e+009
CONST	ENDS
;	COMDAT __real@c30a0000
CONST	SEGMENT
__real@c30a0000 DD 0c30a0000r			; -138
CONST	ENDS
;	COMDAT __real@44480000
CONST	SEGMENT
__real@44480000 DD 044480000r			; 800
CONST	ENDS
;	COMDAT ??_C@_0L@MHICKLHG@ResultChar?$AA@
CONST	SEGMENT
??_C@_0L@MHICKLHG@ResultChar?$AA@ DB 'ResultChar', 00H	; `string'
CONST	ENDS
;	COMDAT xdata$x
xdata$x	SEGMENT
__unwindtable$?SetAvata@io3DCharEmoticon@@QAEXABUCHARACTER@@H_NW4SpecialAtcionType@@HH@Z DD 0ffffffffH
	DD	FLAT:__unwindfunclet$?SetAvata@io3DCharEmoticon@@QAEXABUCHARACTER@@H_NW4SpecialAtcionType@@HH@Z$0
	DD	0ffffffffH
	DD	FLAT:__unwindfunclet$?SetAvata@io3DCharEmoticon@@QAEXABUCHARACTER@@H_NW4SpecialAtcionType@@HH@Z$1
	DD	01H
	DD	FLAT:__unwindfunclet$?SetAvata@io3DCharEmoticon@@QAEXABUCHARACTER@@H_NW4SpecialAtcionType@@HH@Z$2
__ehfuncinfo$?SetAvata@io3DCharEmoticon@@QAEXABUCHARACTER@@H_NW4SpecialAtcionType@@HH@Z DD 019930522H
	DD	03H
	DD	FLAT:__unwindtable$?SetAvata@io3DCharEmoticon@@QAEXABUCHARACTER@@H_NW4SpecialAtcionType@@HH@Z
	DD	2 DUP(00H)
	DD	2 DUP(00H)
	DD	00H
	DD	01H
; Function compile flags: /Ogsp
; File d:\lost saga for developer\youtube\tutorial\source\src\lsclient\io3dcharemoticon.cpp
xdata$x	ENDS
;	COMDAT ?SetAvata@io3DCharEmoticon@@QAEXABUCHARACTER@@H_NW4SpecialAtcionType@@HH@Z
_TEXT	SEGMENT
$T513108 = -336						; size = 16
_szNewFaceName$ = -320					; size = 16
_szFace$ = -304						; size = 16
_bMale$ = -288						; size = 1
tv434 = -284						; size = 4
tv421 = -284						; size = 4
_value$513136 = -284					; size = 4
_value$513130 = -284					; size = 4
_value$513125 = -284					; size = 4
_bGetNameOK$ = -277					; size = 1
_szFullName$506417 = -276				; size = 260
__$EHRec$ = -12						; size = 12
_rkInfo$ = 8						; size = 4
_iChatLen$ = 12						; size = 4
_bNoSound$ = 16						; size = 1
_iType$ = 20						; size = 4
_iViewPortW$ = 24					; size = 4
_iViewPortH$ = 28					; size = 4
?SetAvata@io3DCharEmoticon@@QAEXABUCHARACTER@@H_NW4SpecialAtcionType@@HH@Z PROC ; io3DCharEmoticon::SetAvata, COMDAT
; _this$ = ecx

; 235  : {

  00000	68 44 01 00 00	 push	 324			; 00000144H
  00005	b8 00 00 00 00	 mov	 eax, __ehhandler$?SetAvata@io3DCharEmoticon@@QAEXABUCHARACTER@@H_NW4SpecialAtcionType@@HH@Z
  0000a	e8 00 00 00 00	 call	 __EH_prolog3_GS
  0000f	8b 7d 08	 mov	 edi, DWORD PTR _rkInfo$[ebp]
  00012	8b f1		 mov	 esi, ecx

; 236  : 	if( !m_pUI3DRender )	return;

  00014	33 db		 xor	 ebx, ebx
  00016	39 1e		 cmp	 DWORD PTR [esi], ebx
  00018	0f 84 8e 03 00
	00		 je	 $LN21@SetAvata@2

; 237  : 
; 238  : 	SAFEDELETE( m_pAvata );

  0001e	8b 4e 04	 mov	 ecx, DWORD PTR [esi+4]
  00021	3b cb		 cmp	 ecx, ebx
  00023	74 0a		 je	 SHORT $LN19@SetAvata@2
  00025	8b 01		 mov	 eax, DWORD PTR [ecx]
  00027	6a 01		 push	 1
  00029	ff 50 04	 call	 DWORD PTR [eax+4]
  0002c	89 5e 04	 mov	 DWORD PTR [esi+4], ebx
$LN19@SetAvata@2:

; 239  : 
; 240  : 	m_pAvata = m_pUI3DRender->CreateChar( rkInfo, "ResultChar", false );

  0002f	68 00 00 00 00	 push	 OFFSET ??_C@_0L@MHICKLHG@ResultChar?$AA@
  00034	8d 8d b0 fe ff
	ff		 lea	 ecx, DWORD PTR $T513108[ebp]
  0003a	ff 15 00 00 00
	00		 call	 DWORD PTR __imp_??0ioHashString@@QAE@PBD@Z
  00040	8b 0e		 mov	 ecx, DWORD PTR [esi]
  00042	53		 push	 ebx
  00043	8d 85 b0 fe ff
	ff		 lea	 eax, DWORD PTR $T513108[ebp]
  00049	50		 push	 eax
  0004a	57		 push	 edi
  0004b	89 5d fc	 mov	 DWORD PTR __$EHRec$[ebp+8], ebx
  0004e	e8 00 00 00 00	 call	 ?CreateChar@ioUI3DRender@@QAEPAVioCreateChar@@ABUCHARACTER@@ABVioHashString@@_N@Z ; ioUI3DRender::CreateChar
  00053	83 4d fc ff	 or	 DWORD PTR __$EHRec$[ebp+8], -1
  00057	8d 8d b0 fe ff
	ff		 lea	 ecx, DWORD PTR $T513108[ebp]
  0005d	89 46 04	 mov	 DWORD PTR [esi+4], eax
  00060	ff 15 00 00 00
	00		 call	 DWORD PTR __imp_??1ioHashString@@QAE@XZ

; 241  : 	if( !m_pAvata )	return;

  00066	8b 4e 04	 mov	 ecx, DWORD PTR [esi+4]
  00069	3b cb		 cmp	 ecx, ebx
  0006b	0f 84 3b 03 00
	00		 je	 $LN21@SetAvata@2

; 242  : 
; 243  : 	m_pAvata->DestroyHandAndBody();

  00071	e8 00 00 00 00	 call	 ?DestroyHandAndBody@ioCreateChar@@QAEXXZ ; ioCreateChar::DestroyHandAndBody

; 244  : 	m_pAvata->SetPosition( 0.0f, -138.0f, 800.0f );

  00076	f3 0f 10 05 00
	00 00 00	 movss	 xmm0, DWORD PTR __real@44480000
  0007e	8b 4e 04	 mov	 ecx, DWORD PTR [esi+4]
  00081	83 ec 0c	 sub	 esp, 12			; 0000000cH
  00084	f3 0f 11 44 24
	08		 movss	 DWORD PTR [esp+8], xmm0
  0008a	f3 0f 10 05 00
	00 00 00	 movss	 xmm0, DWORD PTR __real@c30a0000
  00092	f3 0f 11 44 24
	04		 movss	 DWORD PTR [esp+4], xmm0
  00098	0f 57 c0	 xorps	 xmm0, xmm0
  0009b	f3 0f 11 04 24	 movss	 DWORD PTR [esp], xmm0
  000a0	e8 00 00 00 00	 call	 ?SetPosition@ioCreateChar@@QAEXMMM@Z ; ioCreateChar::SetPosition

; 245  : 	m_pAvata->SetYaw( FLOAT10 );

  000a5	b8 0a 00 00 00	 mov	 eax, 10			; 0000000aH
  000aa	8b 4e 04	 mov	 ecx, DWORD PTR [esi+4]
  000ad	89 85 e4 fe ff
	ff		 mov	 DWORD PTR tv434[ebp], eax
  000b3	db 85 e4 fe ff
	ff		 fild	 DWORD PTR tv434[ebp]
  000b9	85 c0		 test	 eax, eax
  000bb	79 06		 jns	 SHORT $LN44@SetAvata@2
  000bd	d8 05 00 00 00
	00		 fadd	 DWORD PTR __real@4f800000
$LN44@SetAvata@2:
  000c3	51		 push	 ecx
  000c4	d9 1c 24	 fstp	 DWORD PTR [esp]
  000c7	e8 00 00 00 00	 call	 ?SetYaw@ioCreateChar@@QAEXM@Z ; ioCreateChar::SetYaw

; 246  : 	m_pAvata->RotateY( -15.0f );

  000cc	8b 4e 04	 mov	 ecx, DWORD PTR [esi+4]
  000cf	f3 0f 10 05 00
	00 00 00	 movss	 xmm0, DWORD PTR __real@c1700000
  000d7	51		 push	 ecx
  000d8	f3 0f 11 04 24	 movss	 DWORD PTR [esp], xmm0
  000dd	e8 00 00 00 00	 call	 ?RotateY@ioCreateChar@@QAEXM@Z ; ioCreateChar::RotateY

; 247  : 	m_pUI3DRender->SetLookAt( 0.0f, 0.0f, 900.0f );

  000e2	f3 0f 10 05 00
	00 00 00	 movss	 xmm0, DWORD PTR __real@44610000
  000ea	8b 0e		 mov	 ecx, DWORD PTR [esi]
  000ec	83 ec 0c	 sub	 esp, 12			; 0000000cH
  000ef	f3 0f 11 44 24
	08		 movss	 DWORD PTR [esp+8], xmm0
  000f5	0f 57 c0	 xorps	 xmm0, xmm0
  000f8	f3 0f 11 44 24
	04		 movss	 DWORD PTR [esp+4], xmm0
  000fe	f3 0f 11 04 24	 movss	 DWORD PTR [esp], xmm0
  00103	e8 00 00 00 00	 call	 ?SetLookAt@ioUI3DRender@@QAEXMMM@Z ; ioUI3DRender::SetLookAt

; 248  : 
; 249  : 	float fAspect = (float)iViewPortW/(float)iViewPortH;

  00108	66 0f 6e 45 18	 movd	 xmm0, DWORD PTR _iViewPortW$[ebp]
  0010d	66 0f 6e 4d 1c	 movd	 xmm1, DWORD PTR _iViewPortH$[ebp]
  00112	0f 5b c0	 cvtdq2ps xmm0, xmm0
  00115	f3 0f 5a c0	 cvtss2sd xmm0, xmm0
  00119	0f 5b c9	 cvtdq2ps xmm1, xmm1
  0011c	f3 0f 5a c9	 cvtss2sd xmm1, xmm1
  00120	f2 0f 5e c1	 divsd	 xmm0, xmm1
  00124	f2 0f 5a c0	 cvtsd2ss xmm0, xmm0

; 250  : 	m_pUI3DRender->SetProjection( FLOAT1, 600.0f, 45.0f, fAspect );

  00128	b8 01 00 00 00	 mov	 eax, 1
  0012d	83 ec 10	 sub	 esp, 16			; 00000010H
  00130	f3 0f 11 44 24
	0c		 movss	 DWORD PTR [esp+12], xmm0
  00136	f3 0f 10 05 00
	00 00 00	 movss	 xmm0, DWORD PTR __real@42340000
  0013e	f3 0f 11 44 24
	08		 movss	 DWORD PTR [esp+8], xmm0
  00144	f3 0f 10 05 00
	00 00 00	 movss	 xmm0, DWORD PTR __real@44160000
  0014c	89 85 e4 fe ff
	ff		 mov	 DWORD PTR tv421[ebp], eax
  00152	db 85 e4 fe ff
	ff		 fild	 DWORD PTR tv421[ebp]
  00158	f3 0f 11 44 24
	04		 movss	 DWORD PTR [esp+4], xmm0
  0015e	85 c0		 test	 eax, eax
  00160	79 06		 jns	 SHORT $LN45@SetAvata@2
  00162	d8 05 00 00 00
	00		 fadd	 DWORD PTR __real@4f800000
$LN45@SetAvata@2:
  00168	8b 0e		 mov	 ecx, DWORD PTR [esi]
  0016a	d9 1c 24	 fstp	 DWORD PTR [esp]
  0016d	e8 00 00 00 00	 call	 ?SetProjection@ioUI3DRender@@QAEXMMMM@Z ; ioUI3DRender::SetProjection

; 251  : 
; 252  : 	ioHashString szFace = m_FacePostfix;

  00172	68 00 00 00 00	 push	 OFFSET ?m_FacePostfix@io3DCharEmoticon@@0VioHashString@@A ; io3DCharEmoticon::m_FacePostfix
  00177	8d 8d d0 fe ff
	ff		 lea	 ecx, DWORD PTR _szFace$[ebp]
  0017d	ff 15 00 00 00
	00		 call	 DWORD PTR __imp_??0ioHashString@@QAE@ABV0@@Z
  00183	c7 45 fc 01 00
	00 00		 mov	 DWORD PTR __$EHRec$[ebp+8], 1

; 253  : 	m_FaceChange = FC_READY;

  0018a	89 5e 20	 mov	 DWORD PTR [esi+32], ebx

; 254  : 	m_dwSetStart = FRAMEGETTIME();

  0018d	ff 15 00 00 00
	00		 call	 DWORD PTR __imp_?GetSingleton@ioFrameTimer@@SAAAV1@XZ
  00193	8b c8		 mov	 ecx, eax
  00195	ff 15 00 00 00
	00		 call	 DWORD PTR __imp_?GetLoopSec@ioFrameTimer@@QBEKXZ

; 255  : 	m_SpecialType = iType;

  0019b	8b 5d 14	 mov	 ebx, DWORD PTR _iType$[ebp]
  0019e	89 46 24	 mov	 DWORD PTR [esi+36], eax
  001a1	89 5e 40	 mov	 DWORD PTR [esi+64], ebx

; 256  : 
; 257  : 	switch( iType )

  001a4	83 fb 01	 cmp	 ebx, 1
  001a7	74 1a		 je	 SHORT $LN14@SetAvata@2
  001a9	83 fb 02	 cmp	 ebx, 2
  001ac	74 0e		 je	 SHORT $LN13@SetAvata@2
  001ae	7e 24		 jle	 SHORT $LN16@SetAvata@2
  001b0	83 fb 04	 cmp	 ebx, 4
  001b3	7f 1f		 jg	 SHORT $LN16@SetAvata@2

; 267  : 	case SPA_FALL:
; 268  : 	case SPA_ACTION:
; 269  : 		szFace = m_ActionFace;

  001b5	68 00 00 00 00	 push	 OFFSET ?m_ActionFace@io3DCharEmoticon@@0VioHashString@@A ; io3DCharEmoticon::m_ActionFace

; 270  : 		break;

  001ba	eb 0c		 jmp	 SHORT $LN46@SetAvata@2
$LN13@SetAvata@2:

; 263  : 		break;
; 264  : 	case SPA_DIE:
; 265  : 		szFace = m_DieFace;

  001bc	68 00 00 00 00	 push	 OFFSET ?m_DieFace@io3DCharEmoticon@@0VioHashString@@A ; io3DCharEmoticon::m_DieFace

; 266  : 		break;

  001c1	eb 05		 jmp	 SHORT $LN46@SetAvata@2
$LN14@SetAvata@2:

; 258  : 	{
; 259  : 	case SPA_NONE:
; 260  : 		break;
; 261  : 	case SPA_KILL:
; 262  : 		szFace = m_KillFace;

  001c3	68 00 00 00 00	 push	 OFFSET ?m_KillFace@io3DCharEmoticon@@0VioHashString@@A ; io3DCharEmoticon::m_KillFace
$LN46@SetAvata@2:
  001c8	8d 8d d0 fe ff
	ff		 lea	 ecx, DWORD PTR _szFace$[ebp]
  001ce	ff 15 00 00 00
	00		 call	 DWORD PTR __imp_??4ioHashString@@QAEAAV0@ABV0@@Z
$LN16@SetAvata@2:

; 271  : 	}
; 272  : 
; 273  : 	bool bMale = false;
; 274  : 	if( rkInfo.m_sex == 1 )

  001d4	8d 85 e4 fe ff
	ff		 lea	 eax, DWORD PTR _value$513125[ebp]
  001da	8d 4f 60	 lea	 ecx, DWORD PTR [edi+96]
  001dd	50		 push	 eax
  001de	c6 85 e0 fe ff
	ff 00		 mov	 BYTE PTR _bMale$[ebp], 0
  001e5	e8 00 00 00 00	 call	 ?DecryptValueToPool@?$CEncrypt@H@@QAEXPAH@Z ; CEncrypt<int>::DecryptValueToPool
  001ea	83 bd e4 fe ff
	ff 01		 cmp	 DWORD PTR _value$513125[ebp], 1
  001f1	75 07		 jne	 SHORT $LN11@SetAvata@2

; 275  : 		bMale = true;

  001f3	c6 85 e0 fe ff
	ff 01		 mov	 BYTE PTR _bMale$[ebp], 1
$LN11@SetAvata@2:

; 276  : 	ioHashString szNewFaceName;

  001fa	8d 8d c0 fe ff
	ff		 lea	 ecx, DWORD PTR _szNewFaceName$[ebp]
  00200	ff 15 00 00 00
	00		 call	 DWORD PTR __imp_??0ioHashString@@QAE@XZ

; 277  : 	bool bGetNameOK = GetFaceChangeName( szNewFaceName,
; 278  : 		szFace.c_str(),
; 279  : 		bMale,
; 280  : 		rkInfo.m_face );

  00206	8d 85 e4 fe ff
	ff		 lea	 eax, DWORD PTR _value$513130[ebp]
  0020c	50		 push	 eax
  0020d	8d 8f c0 00 00
	00		 lea	 ecx, DWORD PTR [edi+192]
  00213	c6 45 fc 02	 mov	 BYTE PTR __$EHRec$[ebp+8], 2
  00217	e8 00 00 00 00	 call	 ?DecryptValueToPool@?$CEncrypt@H@@QAEXPAH@Z ; CEncrypt<int>::DecryptValueToPool
  0021c	ff b5 e4 fe ff
	ff		 push	 DWORD PTR _value$513130[ebp]
  00222	8d 8d d0 fe ff
	ff		 lea	 ecx, DWORD PTR _szFace$[ebp]
  00228	ff b5 e0 fe ff
	ff		 push	 DWORD PTR _bMale$[ebp]
  0022e	ff 15 00 00 00
	00		 call	 DWORD PTR __imp_?c_str@ioHashString@@QBEPBDXZ
  00234	50		 push	 eax
  00235	8d 85 c0 fe ff
	ff		 lea	 eax, DWORD PTR _szNewFaceName$[ebp]
  0023b	50		 push	 eax
  0023c	e8 00 00 00 00	 call	 ?GetFaceChangeName@@YA_NAAVioHashString@@PBD_NH@Z ; GetFaceChangeName
  00241	83 c4 10	 add	 esp, 16			; 00000010H

; 281  : 
; 282  : 	if( !bMale )

  00244	80 bd e0 fe ff
	ff 00		 cmp	 BYTE PTR _bMale$[ebp], 0
  0024b	88 85 eb fe ff
	ff		 mov	 BYTE PTR _bGetNameOK$[ebp], al
  00251	0f 85 9a 00 00
	00		 jne	 $LN9@SetAvata@2

; 283  : 	{
; 284  : 		char szFullName[MAX_PATH]="";

  00257	68 03 01 00 00	 push	 259			; 00000103H
  0025c	8d 85 ed fe ff
	ff		 lea	 eax, DWORD PTR _szFullName$506417[ebp+1]
  00262	6a 00		 push	 0
  00264	50		 push	 eax
  00265	c6 85 ec fe ff
	ff 00		 mov	 BYTE PTR _szFullName$506417[ebp], 0
  0026c	e8 00 00 00 00	 call	 _memset
  00271	83 c4 0c	 add	 esp, 12			; 0000000cH

; 285  : 		StringCbPrintf( szFullName, sizeof( szFullName ), "resource\\texture\\%s" , szNewFaceName.c_str() );

  00274	8d 8d c0 fe ff
	ff		 lea	 ecx, DWORD PTR _szNewFaceName$[ebp]
  0027a	ff 15 00 00 00
	00		 call	 DWORD PTR __imp_?c_str@ioHashString@@QBEPBDXZ
  00280	50		 push	 eax
  00281	68 00 00 00 00	 push	 OFFSET ??_C@_0BE@OPCOAHAM@resource?2texture?2?$CFs?$AA@
  00286	8d 85 ec fe ff
	ff		 lea	 eax, DWORD PTR _szFullName$506417[ebp]
  0028c	68 04 01 00 00	 push	 260			; 00000104H
  00291	50		 push	 eax
  00292	e8 00 00 00 00	 call	 ?StringCbPrintfA@@YAJPADIPBDZZ ; StringCbPrintfA
  00297	83 c4 10	 add	 esp, 16			; 00000010H

; 286  : 		if( !g_ResourceLoader.IsFileExist( szFullName ) )

  0029a	8d 85 ec fe ff
	ff		 lea	 eax, DWORD PTR _szFullName$506417[ebp]
  002a0	6a 00		 push	 0
  002a2	50		 push	 eax
  002a3	ff 15 00 00 00
	00		 call	 DWORD PTR __imp_?GetInstance@ioResourceLoader@@SAAAV1@XZ
  002a9	8b c8		 mov	 ecx, eax
  002ab	ff 15 00 00 00
	00		 call	 DWORD PTR __imp_?IsFileExist@ioResourceLoader@@QAE_NPBD_N@Z
  002b1	84 c0		 test	 al, al
  002b3	75 3c		 jne	 SHORT $LN9@SetAvata@2

; 287  : 		{
; 288  : 			bGetNameOK = GetFaceChangeName( szNewFaceName, szFace.c_str(), true, rkInfo.m_face ); // 남자로 설정.

  002b5	8d 85 e4 fe ff
	ff		 lea	 eax, DWORD PTR _value$513136[ebp]
  002bb	50		 push	 eax
  002bc	8d 8f c0 00 00
	00		 lea	 ecx, DWORD PTR [edi+192]
  002c2	e8 00 00 00 00	 call	 ?DecryptValueToPool@?$CEncrypt@H@@QAEXPAH@Z ; CEncrypt<int>::DecryptValueToPool
  002c7	ff b5 e4 fe ff
	ff		 push	 DWORD PTR _value$513136[ebp]
  002cd	8d 8d d0 fe ff
	ff		 lea	 ecx, DWORD PTR _szFace$[ebp]
  002d3	6a 01		 push	 1
  002d5	ff 15 00 00 00
	00		 call	 DWORD PTR __imp_?c_str@ioHashString@@QBEPBDXZ
  002db	50		 push	 eax
  002dc	8d 85 c0 fe ff
	ff		 lea	 eax, DWORD PTR _szNewFaceName$[ebp]
  002e2	50		 push	 eax
  002e3	e8 00 00 00 00	 call	 ?GetFaceChangeName@@YA_NAAVioHashString@@PBD_NH@Z ; GetFaceChangeName
  002e8	83 c4 10	 add	 esp, 16			; 00000010H
  002eb	88 85 eb fe ff
	ff		 mov	 BYTE PTR _bGetNameOK$[ebp], al
$LN9@SetAvata@2:

; 289  : 		}
; 290  : 	}
; 291  : 
; 292  : 	if( bGetNameOK )

  002f1	80 bd eb fe ff
	ff 00		 cmp	 BYTE PTR _bGetNameOK$[ebp], 0
  002f8	8b 3d 00 00 00
	00		 mov	 edi, DWORD PTR __imp_?Clear@ioHashString@@QAEXXZ

; 293  : 	{
; 294  : 		m_ChangeFaceTex = szNewFaceName;

  002fe	8d 4e 10	 lea	 ecx, DWORD PTR [esi+16]
  00301	74 0f		 je	 SHORT $LN8@SetAvata@2
  00303	8d 85 c0 fe ff
	ff		 lea	 eax, DWORD PTR _szNewFaceName$[ebp]
  00309	50		 push	 eax
  0030a	ff 15 00 00 00
	00		 call	 DWORD PTR __imp_??4ioHashString@@QAEAAV0@ABV0@@Z

; 295  : 	}
; 296  : 	else

  00310	eb 02		 jmp	 SHORT $LN7@SetAvata@2
$LN8@SetAvata@2:

; 297  : 	{
; 298  : 		m_ChangeFaceTex.Clear();

  00312	ff d7		 call	 edi
$LN7@SetAvata@2:

; 299  : 	}
; 300  : 
; 301  : 	if( m_bChangeOutLineThick )

  00314	80 3d 00 00 00
	00 00		 cmp	 BYTE PTR ?m_bChangeOutLineThick@io3DCharEmoticon@@0_NA, 0 ; io3DCharEmoticon::m_bChangeOutLineThick
  0031b	74 2c		 je	 SHORT $LN6@SetAvata@2

; 302  : 	{
; 303  : 		m_pAvata->ChangeHairOutLineThick( m_fHairOutLineThick );

  0031d	8b 4e 04	 mov	 ecx, DWORD PTR [esi+4]
  00320	f3 0f 10 05 00
	00 00 00	 movss	 xmm0, DWORD PTR ?m_fHairOutLineThick@io3DCharEmoticon@@0MA
  00328	51		 push	 ecx
  00329	f3 0f 11 04 24	 movss	 DWORD PTR [esp], xmm0
  0032e	e8 00 00 00 00	 call	 ?ChangeHairOutLineThick@ioCreateChar@@QAEXM@Z ; ioCreateChar::ChangeHairOutLineThick

; 304  : 		m_pAvata->ChangeHeadOutLineThick( m_fHeadOutLineThick );

  00333	8b 4e 04	 mov	 ecx, DWORD PTR [esi+4]
  00336	f3 0f 10 05 00
	00 00 00	 movss	 xmm0, DWORD PTR ?m_fHeadOutLineThick@io3DCharEmoticon@@0MA
  0033e	51		 push	 ecx
  0033f	f3 0f 11 04 24	 movss	 DWORD PTR [esp], xmm0
  00344	e8 00 00 00 00	 call	 ?ChangeHeadOutLineThick@ioCreateChar@@QAEXM@Z ; ioCreateChar::ChangeHeadOutLineThick
$LN6@SetAvata@2:

; 305  : 	}
; 306  : 
; 307  : 	m_iMaxChangeCount = ( iChatLen + 1 ) / 2;

  00349	8b 45 0c	 mov	 eax, DWORD PTR _iChatLen$[ebp]
  0034c	40		 inc	 eax
  0034d	99		 cdq
  0034e	2b c2		 sub	 eax, edx
  00350	d1 f8		 sar	 eax, 1

; 308  : 
; 309  : 	if( !bNoSound )

  00352	80 7d 10 00	 cmp	 BYTE PTR _bNoSound$[ebp], 0
  00356	89 46 28	 mov	 DWORD PTR [esi+40], eax
  00359	75 0a		 jne	 SHORT $LN5@SetAvata@2

; 310  : 	{
; 311  : 		PlayTalkSound( m_iMaxChangeCount );

  0035b	50		 push	 eax
  0035c	8b ce		 mov	 ecx, esi
  0035e	e8 00 00 00 00	 call	 ?PlayTalkSound@io3DCharEmoticon@@IAEXH@Z ; io3DCharEmoticon::PlayTalkSound

; 312  : 	}
; 313  : 	else

  00363	eb 05		 jmp	 SHORT $LN4@SetAvata@2
$LN5@SetAvata@2:

; 314  : 	{
; 315  : 		m_CurChatSound.Clear();

  00365	8d 4e 30	 lea	 ecx, DWORD PTR [esi+48]
  00368	ff d7		 call	 edi
$LN4@SetAvata@2:

; 316  : 	}
; 317  : 
; 318  : 	m_iMaxChangeCount = max( 1, m_iMaxChangeCount ) * 2;

  0036a	8b 46 28	 mov	 eax, DWORD PTR [esi+40]
  0036d	83 f8 01	 cmp	 eax, 1
  00370	7d 03		 jge	 SHORT $LN25@SetAvata@2
  00372	33 c0		 xor	 eax, eax
  00374	40		 inc	 eax
$LN25@SetAvata@2:
  00375	03 c0		 add	 eax, eax
  00377	89 46 28	 mov	 DWORD PTR [esi+40], eax

; 319  : 
; 320  : 	switch( iType )

  0037a	85 db		 test	 ebx, ebx
  0037c	7e 0c		 jle	 SHORT $LN2@SetAvata@2
  0037e	83 fb 04	 cmp	 ebx, 4
  00381	7f 07		 jg	 SHORT $LN2@SetAvata@2

; 321  : 	{
; 322  : 	case SPA_KILL:
; 323  : 	case SPA_DIE:
; 324  : 	case SPA_FALL:
; 325  : 	case SPA_ACTION:
; 326  : 		m_iMaxChangeCount = 2;

  00383	c7 46 28 02 00
	00 00		 mov	 DWORD PTR [esi+40], 2
$LN2@SetAvata@2:

; 327  : 		break;
; 328  : 	}
; 329  : 
; 330  : 	m_iCurChangeCount = 0;

  0038a	83 66 2c 00	 and	 DWORD PTR [esi+44], 0

; 331  : }

  0038e	8b 35 00 00 00
	00		 mov	 esi, DWORD PTR __imp_??1ioHashString@@QAE@XZ
  00394	8d 8d c0 fe ff
	ff		 lea	 ecx, DWORD PTR _szNewFaceName$[ebp]
  0039a	c6 45 fc 01	 mov	 BYTE PTR __$EHRec$[ebp+8], 1
  0039e	ff d6		 call	 esi
  003a0	83 4d fc ff	 or	 DWORD PTR __$EHRec$[ebp+8], -1
  003a4	8d 8d d0 fe ff
	ff		 lea	 ecx, DWORD PTR _szFace$[ebp]
  003aa	ff d6		 call	 esi
$LN21@SetAvata@2:
  003ac	e8 00 00 00 00	 call	 __EH_epilog3_GS
  003b1	c2 18 00	 ret	 24			; 00000018H
_TEXT	ENDS
;	COMDAT text$x
text$x	SEGMENT
__unwindfunclet$?SetAvata@io3DCharEmoticon@@QAEXABUCHARACTER@@H_NW4SpecialAtcionType@@HH@Z$0:
  00000	8d 8d b0 fe ff
	ff		 lea	 ecx, DWORD PTR $T513108[ebp]
  00006	ff 25 00 00 00
	00		 jmp	 DWORD PTR __imp_??1ioHashString@@QAE@XZ
__unwindfunclet$?SetAvata@io3DCharEmoticon@@QAEXABUCHARACTER@@H_NW4SpecialAtcionType@@HH@Z$1:
  0000c	8d 8d d0 fe ff
	ff		 lea	 ecx, DWORD PTR _szFace$[ebp]
  00012	ff 25 00 00 00
	00		 jmp	 DWORD PTR __imp_??1ioHashString@@QAE@XZ
__unwindfunclet$?SetAvata@io3DCharEmoticon@@QAEXABUCHARACTER@@H_NW4SpecialAtcionType@@HH@Z$2:
  00018	8d 8d c0 fe ff
	ff		 lea	 ecx, DWORD PTR _szNewFaceName$[ebp]
  0001e	ff 25 00 00 00
	00		 jmp	 DWORD PTR __imp_??1ioHashString@@QAE@XZ
__ehhandler$?SetAvata@io3DCharEmoticon@@QAEXABUCHARACTER@@H_NW4SpecialAtcionType@@HH@Z:
  00024	8b 54 24 08	 mov	 edx, DWORD PTR [esp+8]
  00028	8d 42 0c	 lea	 eax, DWORD PTR [edx+12]
  0002b	8b 8a ac fe ff
	ff		 mov	 ecx, DWORD PTR [edx-340]
  00031	33 c8		 xor	 ecx, eax
  00033	e8 00 00 00 00	 call	 @__security_check_cookie@4
  00038	8b 4a fc	 mov	 ecx, DWORD PTR [edx-4]
  0003b	33 c8		 xor	 ecx, eax
  0003d	e8 00 00 00 00	 call	 @__security_check_cookie@4
  00042	b8 00 00 00 00	 mov	 eax, OFFSET __ehfuncinfo$?SetAvata@io3DCharEmoticon@@QAEXABUCHARACTER@@H_NW4SpecialAtcionType@@HH@Z
  00047	e9 00 00 00 00	 jmp	 ___CxxFrameHandler3
text$x	ENDS
?SetAvata@io3DCharEmoticon@@QAEXABUCHARACTER@@H_NW4SpecialAtcionType@@HH@Z ENDP ; io3DCharEmoticon::SetAvata
PUBLIC	??$_Uninitialized_copy@PAVioHashString@@PAV1@V?$allocator@VioHashString@@@std@@@std@@YAPAVioHashString@@PAV1@00AAV?$allocator@VioHashString@@@0@@Z ; std::_Uninitialized_copy<ioHashString *,ioHashString *,std::allocator<ioHashString> >
; Function compile flags: /Ogsp
; File c:\program files (x86)\microsoft visual studio 10.0\vc\include\memory
;	COMDAT ??$_Uninitialized_copy@PAVioHashString@@PAV1@V?$allocator@VioHashString@@@std@@@std@@YAPAVioHashString@@PAV1@00AAV?$allocator@VioHashString@@@0@@Z
_TEXT	SEGMENT
__Cat$513173 = -4					; size = 1
__First$ = 8						; size = 4
__Last$ = 12						; size = 4
__Dest$ = 16						; size = 4
__Al$ = 20						; size = 4
??$_Uninitialized_copy@PAVioHashString@@PAV1@V?$allocator@VioHashString@@@std@@@std@@YAPAVioHashString@@PAV1@00AAV?$allocator@VioHashString@@@0@@Z PROC ; std::_Uninitialized_copy<ioHashString *,ioHashString *,std::allocator<ioHashString> >, COMDAT

; 412  : 	{	// copy [_First, _Last) to raw _Dest, using _Al

  00000	55		 push	 ebp
  00001	8b ec		 mov	 ebp, esp
  00003	51		 push	 ecx

; 413  : 	return (_Uninit_copy(_First, _Last, _Dest, _Al,
; 414  : 		_Ptr_cat(_First, _Dest)));

  00004	ff 75 fc	 push	 DWORD PTR __Cat$513173[ebp]
  00007	ff 75 14	 push	 DWORD PTR __Al$[ebp]
  0000a	ff 75 10	 push	 DWORD PTR __Dest$[ebp]
  0000d	ff 75 0c	 push	 DWORD PTR __Last$[ebp]
  00010	ff 75 08	 push	 DWORD PTR __First$[ebp]
  00013	e8 00 00 00 00	 call	 ??$_Uninit_copy@PAVioHashString@@PAV1@V?$allocator@VioHashString@@@std@@@std@@YAPAVioHashString@@PAV1@00AAV?$allocator@VioHashString@@@0@U_Nonscalar_ptr_iterator_tag@0@@Z ; std::_Uninit_copy<ioHashString *,ioHashString *,std::allocator<ioHashString> >
  00018	83 c4 14	 add	 esp, 20			; 00000014H

; 415  : 	}

  0001b	c9		 leave
  0001c	c3		 ret	 0
??$_Uninitialized_copy@PAVioHashString@@PAV1@V?$allocator@VioHashString@@@std@@@std@@YAPAVioHashString@@PAV1@00AAV?$allocator@VioHashString@@@0@@Z ENDP ; std::_Uninitialized_copy<ioHashString *,ioHashString *,std::allocator<ioHashString> >
_TEXT	ENDS
PUBLIC	??$_Uninitialized_move@PAVioHashString@@PAV1@V?$allocator@VioHashString@@@std@@@std@@YAPAVioHashString@@PAV1@00AAV?$allocator@VioHashString@@@0@@Z ; std::_Uninitialized_move<ioHashString *,ioHashString *,std::allocator<ioHashString> >
; Function compile flags: /Ogsp
;	COMDAT ??$_Uninitialized_move@PAVioHashString@@PAV1@V?$allocator@VioHashString@@@std@@@std@@YAPAVioHashString@@PAV1@00AAV?$allocator@VioHashString@@@0@@Z
_TEXT	SEGMENT
__Cat$513180 = -4					; size = 1
__First$ = 8						; size = 4
__Last$ = 12						; size = 4
__Dest$ = 16						; size = 4
__Al$ = 20						; size = 4
??$_Uninitialized_move@PAVioHashString@@PAV1@V?$allocator@VioHashString@@@std@@@std@@YAPAVioHashString@@PAV1@00AAV?$allocator@VioHashString@@@0@@Z PROC ; std::_Uninitialized_move<ioHashString *,ioHashString *,std::allocator<ioHashString> >, COMDAT

; 469  : 	{	// move [_First, _Last) to raw _Dest, using _Al

  00000	55		 push	 ebp
  00001	8b ec		 mov	 ebp, esp
  00003	51		 push	 ecx

; 470  : 	return (_Uninit_move(_First, _Last, _Dest, _Al,
; 471  : 		_Val_type(_First), _Ptr_cat(_First, _Dest)));

  00004	ff 75 fc	 push	 DWORD PTR __Cat$513180[ebp]
  00007	6a 00		 push	 0
  00009	ff 75 14	 push	 DWORD PTR __Al$[ebp]
  0000c	ff 75 10	 push	 DWORD PTR __Dest$[ebp]
  0000f	ff 75 0c	 push	 DWORD PTR __Last$[ebp]
  00012	ff 75 08	 push	 DWORD PTR __First$[ebp]
  00015	e8 00 00 00 00	 call	 ??$_Uninit_move@PAVioHashString@@PAV1@V?$allocator@VioHashString@@@std@@V1@@std@@YAPAVioHashString@@PAV1@00AAV?$allocator@VioHashString@@@0@0U_Nonscalar_ptr_iterator_tag@0@@Z ; std::_Uninit_move<ioHashString *,ioHashString *,std::allocator<ioHashString>,ioHashString>
  0001a	83 c4 18	 add	 esp, 24			; 00000018H

; 472  : 	}

  0001d	c9		 leave
  0001e	c3		 ret	 0
??$_Uninitialized_move@PAVioHashString@@PAV1@V?$allocator@VioHashString@@@std@@@std@@YAPAVioHashString@@PAV1@00AAV?$allocator@VioHashString@@@0@@Z ENDP ; std::_Uninitialized_move<ioHashString *,ioHashString *,std::allocator<ioHashString> >
_TEXT	ENDS
PUBLIC	??$_Destroy_range@V?$allocator@VioHashString@@@std@@@std@@YAXPAVioHashString@@0AAV?$allocator@VioHashString@@@0@@Z ; std::_Destroy_range<std::allocator<ioHashString> >
; Function compile flags: /Ogsp
; File c:\program files (x86)\microsoft visual studio 10.0\vc\include\xmemory
;	COMDAT ??$_Destroy_range@V?$allocator@VioHashString@@@std@@@std@@YAXPAVioHashString@@0AAV?$allocator@VioHashString@@@0@@Z
_TEXT	SEGMENT
__First$ = 8						; size = 4
__Last$ = 12						; size = 4
__Al$ = 16						; size = 4
??$_Destroy_range@V?$allocator@VioHashString@@@std@@@std@@YAXPAVioHashString@@0AAV?$allocator@VioHashString@@@0@@Z PROC ; std::_Destroy_range<std::allocator<ioHashString> >, COMDAT

; 87   : 	{	// destroy [_First, _Last)

  00000	55		 push	 ebp
  00001	8b ec		 mov	 ebp, esp
  00003	56		 push	 esi

; 88   : 	_Destroy_range(_First, _Last, _Al, _Ptr_cat(_First, _Last));

  00004	8b 75 08	 mov	 esi, DWORD PTR __First$[ebp]
  00007	eb 0b		 jmp	 SHORT $LN21@Destroy_ra@2
$LL7@Destroy_ra@2:
  00009	8b ce		 mov	 ecx, esi
  0000b	ff 15 00 00 00
	00		 call	 DWORD PTR __imp_??1ioHashString@@QAE@XZ
  00011	83 c6 10	 add	 esi, 16			; 00000010H
$LN21@Destroy_ra@2:
  00014	3b 75 0c	 cmp	 esi, DWORD PTR __Last$[ebp]
  00017	75 f0		 jne	 SHORT $LL7@Destroy_ra@2
  00019	5e		 pop	 esi

; 89   : 	}

  0001a	5d		 pop	 ebp
  0001b	c3		 ret	 0
??$_Destroy_range@V?$allocator@VioHashString@@@std@@@std@@YAXPAVioHashString@@0AAV?$allocator@VioHashString@@@0@@Z ENDP ; std::_Destroy_range<std::allocator<ioHashString> >
_TEXT	ENDS
PUBLIC	??$_Ucopy@PAVioHashString@@@?$vector@VioHashString@@V?$allocator@VioHashString@@@std@@@std@@IAEPAVioHashString@@PAV2@00@Z ; std::vector<ioHashString,std::allocator<ioHashString> >::_Ucopy<ioHashString *>
; Function compile flags: /Ogsp
; File c:\program files (x86)\microsoft visual studio 10.0\vc\include\vector
;	COMDAT ??$_Ucopy@PAVioHashString@@@?$vector@VioHashString@@V?$allocator@VioHashString@@@std@@@std@@IAEPAVioHashString@@PAV2@00@Z
_TEXT	SEGMENT
__First$ = 8						; size = 4
__Last$ = 12						; size = 4
__Cat$513250 = 16					; size = 1
__Ptr$ = 16						; size = 4
??$_Ucopy@PAVioHashString@@@?$vector@VioHashString@@V?$allocator@VioHashString@@@std@@@std@@IAEPAVioHashString@@PAV2@00@Z PROC ; std::vector<ioHashString,std::allocator<ioHashString> >::_Ucopy<ioHashString *>, COMDAT
; _this$ = ecx

; 1315 : 		pointer _Ucopy(_Iter _First, _Iter _Last, pointer _Ptr)

  00000	55		 push	 ebp
  00001	8b ec		 mov	 ebp, esp

; 1316 : 		{	// copy initializing [_First, _Last), using allocator
; 1317 : 		return (_Uninitialized_copy(_First, _Last,
; 1318 : 			_Ptr, this->_Alval));

  00003	ff 75 10	 push	 DWORD PTR __Cat$513250[ebp]
  00006	83 c1 0c	 add	 ecx, 12			; 0000000cH
  00009	51		 push	 ecx
  0000a	ff 75 10	 push	 DWORD PTR __Ptr$[ebp]
  0000d	ff 75 0c	 push	 DWORD PTR __Last$[ebp]
  00010	ff 75 08	 push	 DWORD PTR __First$[ebp]
  00013	e8 00 00 00 00	 call	 ??$_Uninit_copy@PAVioHashString@@PAV1@V?$allocator@VioHashString@@@std@@@std@@YAPAVioHashString@@PAV1@00AAV?$allocator@VioHashString@@@0@U_Nonscalar_ptr_iterator_tag@0@@Z ; std::_Uninit_copy<ioHashString *,ioHashString *,std::allocator<ioHashString> >
  00018	83 c4 14	 add	 esp, 20			; 00000014H

; 1319 : 		}

  0001b	5d		 pop	 ebp
  0001c	c2 0c 00	 ret	 12			; 0000000cH
??$_Ucopy@PAVioHashString@@@?$vector@VioHashString@@V?$allocator@VioHashString@@@std@@@std@@IAEPAVioHashString@@PAV2@00@Z ENDP ; std::vector<ioHashString,std::allocator<ioHashString> >::_Ucopy<ioHashString *>
_TEXT	ENDS
PUBLIC	??$_Umove@PAVioHashString@@@?$vector@VioHashString@@V?$allocator@VioHashString@@@std@@@std@@IAEPAVioHashString@@PAV2@00@Z ; std::vector<ioHashString,std::allocator<ioHashString> >::_Umove<ioHashString *>
; Function compile flags: /Ogsp
;	COMDAT ??$_Umove@PAVioHashString@@@?$vector@VioHashString@@V?$allocator@VioHashString@@@std@@@std@@IAEPAVioHashString@@PAV2@00@Z
_TEXT	SEGMENT
__First$ = 8						; size = 4
__Last$ = 12						; size = 4
__Ptr$ = 16						; size = 4
??$_Umove@PAVioHashString@@@?$vector@VioHashString@@V?$allocator@VioHashString@@@std@@@std@@IAEPAVioHashString@@PAV2@00@Z PROC ; std::vector<ioHashString,std::allocator<ioHashString> >::_Umove<ioHashString *>, COMDAT
; _this$ = ecx

; 1322 : 		pointer _Umove(_Iter _First, _Iter _Last, pointer _Ptr)

  00000	55		 push	 ebp
  00001	8b ec		 mov	 ebp, esp

; 1323 : 		{	// move initializing [_First, _Last), using allocator
; 1324 : 		return (_Uninitialized_move(_First, _Last,
; 1325 : 			_Ptr, this->_Alval));

  00003	83 c1 0c	 add	 ecx, 12			; 0000000cH
  00006	51		 push	 ecx
  00007	ff 75 10	 push	 DWORD PTR __Ptr$[ebp]
  0000a	ff 75 0c	 push	 DWORD PTR __Last$[ebp]
  0000d	ff 75 08	 push	 DWORD PTR __First$[ebp]
  00010	e8 00 00 00 00	 call	 ??$_Uninitialized_move@PAVioHashString@@PAV1@V?$allocator@VioHashString@@@std@@@std@@YAPAVioHashString@@PAV1@00AAV?$allocator@VioHashString@@@0@@Z ; std::_Uninitialized_move<ioHashString *,ioHashString *,std::allocator<ioHashString> >
  00015	83 c4 10	 add	 esp, 16			; 00000010H

; 1326 : 		}

  00018	5d		 pop	 ebp
  00019	c2 0c 00	 ret	 12			; 0000000cH
??$_Umove@PAVioHashString@@@?$vector@VioHashString@@V?$allocator@VioHashString@@@std@@@std@@IAEPAVioHashString@@PAV2@00@Z ENDP ; std::vector<ioHashString,std::allocator<ioHashString> >::_Umove<ioHashString *>
_TEXT	ENDS
PUBLIC	?_Destroy@?$vector@VioHashString@@V?$allocator@VioHashString@@@std@@@std@@IAEXPAVioHashString@@0@Z ; std::vector<ioHashString,std::allocator<ioHashString> >::_Destroy
; Function compile flags: /Ogsp
;	COMDAT ?_Destroy@?$vector@VioHashString@@V?$allocator@VioHashString@@@std@@@std@@IAEXPAVioHashString@@0@Z
_TEXT	SEGMENT
__First$ = 8						; size = 4
__Last$ = 12						; size = 4
?_Destroy@?$vector@VioHashString@@V?$allocator@VioHashString@@@std@@@std@@IAEXPAVioHashString@@0@Z PROC ; std::vector<ioHashString,std::allocator<ioHashString> >::_Destroy, COMDAT
; _this$ = ecx

; 1269 : 		{	// destroy [_First, _Last) using allocator

  00000	55		 push	 ebp
  00001	8b ec		 mov	 ebp, esp
  00003	56		 push	 esi

; 1270 : 		_Destroy_range(_First, _Last, this->_Alval);

  00004	8b 75 08	 mov	 esi, DWORD PTR __First$[ebp]
  00007	eb 0b		 jmp	 SHORT $LN23@Destroy
$LL9@Destroy:
  00009	8b ce		 mov	 ecx, esi
  0000b	ff 15 00 00 00
	00		 call	 DWORD PTR __imp_??1ioHashString@@QAE@XZ
  00011	83 c6 10	 add	 esi, 16			; 00000010H
$LN23@Destroy:
  00014	3b 75 0c	 cmp	 esi, DWORD PTR __Last$[ebp]
  00017	75 f0		 jne	 SHORT $LL9@Destroy
  00019	5e		 pop	 esi

; 1271 : 		}

  0001a	5d		 pop	 ebp
  0001b	c2 08 00	 ret	 8
?_Destroy@?$vector@VioHashString@@V?$allocator@VioHashString@@@std@@@std@@IAEXPAVioHashString@@0@Z ENDP ; std::vector<ioHashString,std::allocator<ioHashString> >::_Destroy
_TEXT	ENDS
PUBLIC	?reserve@?$vector@VioHashString@@V?$allocator@VioHashString@@@std@@@std@@QAEXI@Z ; std::vector<ioHashString,std::allocator<ioHashString> >::reserve
EXTRN	__imp_?_Orphan_all@_Container_base0@std@@QAEXXZ:PROC
;	COMDAT xdata$x
; File c:\program files (x86)\microsoft visual studio 10.0\vc\include\xmemory
xdata$x	SEGMENT
__catchsym$?reserve@?$vector@VioHashString@@V?$allocator@VioHashString@@@std@@@std@@QAEXI@Z$2 DD 040H
	DD	00H
	DD	00H
	DD	FLAT:__catch$?reserve@?$vector@VioHashString@@V?$allocator@VioHashString@@@std@@@std@@QAEXI@Z$0
__unwindtable$?reserve@?$vector@VioHashString@@V?$allocator@VioHashString@@@std@@@std@@QAEXI@Z DD 0ffffffffH
	DD	00H
	DD	0ffffffffH
	DD	00H
__tryblocktable$?reserve@?$vector@VioHashString@@V?$allocator@VioHashString@@@std@@@std@@QAEXI@Z DD 00H
	DD	00H
	DD	01H
	DD	01H
	DD	FLAT:__catchsym$?reserve@?$vector@VioHashString@@V?$allocator@VioHashString@@@std@@@std@@QAEXI@Z$2
__ehfuncinfo$?reserve@?$vector@VioHashString@@V?$allocator@VioHashString@@@std@@@std@@QAEXI@Z DD 019930522H
	DD	02H
	DD	FLAT:__unwindtable$?reserve@?$vector@VioHashString@@V?$allocator@VioHashString@@@std@@@std@@QAEXI@Z
	DD	01H
	DD	FLAT:__tryblocktable$?reserve@?$vector@VioHashString@@V?$allocator@VioHashString@@@std@@@std@@QAEXI@Z
	DD	2 DUP(00H)
	DD	00H
	DD	01H
; Function compile flags: /Ogsp
; File c:\program files (x86)\microsoft visual studio 10.0\vc\include\vector
xdata$x	ENDS
;	COMDAT ?reserve@?$vector@VioHashString@@V?$allocator@VioHashString@@@std@@@std@@QAEXI@Z
_TEXT	SEGMENT
tv300 = -24						; size = 4
__Ptr$507040 = -20					; size = 4
__$EHRec$ = -16						; size = 16
$T513422 = 8						; size = 4
__Count$ = 8						; size = 4
?reserve@?$vector@VioHashString@@V?$allocator@VioHashString@@@std@@@std@@QAEXI@Z PROC ; std::vector<ioHashString,std::allocator<ioHashString> >::reserve, COMDAT
; _this$ = ecx

; 746  : 		{	// determine new minimum length of allocated storage

  00000	6a 0c		 push	 12			; 0000000cH
  00002	b8 00 00 00 00	 mov	 eax, __ehhandler$?reserve@?$vector@VioHashString@@V?$allocator@VioHashString@@@std@@@std@@QAEXI@Z
  00007	e8 00 00 00 00	 call	 __EH_prolog3_catch
  0000c	8b f1		 mov	 esi, ecx

; 747  : 		if (max_size() < _Count)

  0000e	8b 5d 08	 mov	 ebx, DWORD PTR __Count$[ebp]
  00011	81 fb ff ff ff
	0f		 cmp	 ebx, 268435455		; 0fffffffH
  00017	76 0b		 jbe	 SHORT $LN5@reserve

; 748  : 			_Xlen();	// result too long

  00019	68 00 00 00 00	 push	 OFFSET ??_C@_0BD@OLBABOEK@vector?$DMT?$DO?5too?5long?$AA@
  0001e	ff 15 00 00 00
	00		 call	 DWORD PTR __imp_?_Xlength_error@std@@YAXPBD@Z
$LN59@reserve:
$LN5@reserve:

; 749  : 		else if (capacity() < _Count)

  00024	8b 46 08	 mov	 eax, DWORD PTR [esi+8]
  00027	2b 06		 sub	 eax, DWORD PTR [esi]
  00029	c1 f8 04	 sar	 eax, 4
  0002c	3b c3		 cmp	 eax, ebx
  0002e	73 7a		 jae	 SHORT $LN3@reserve

; 750  : 			{	// not enough room, reallocate
; 751  : 			pointer _Ptr = this->_Alval.allocate(_Count);

  00030	6a 00		 push	 0
  00032	53		 push	 ebx
  00033	e8 00 00 00 00	 call	 ??$_Allocate@VioHashString@@@std@@YAPAVioHashString@@IPAV1@@Z ; std::_Allocate<ioHashString>

; 752  : 
; 753  : 			_TRY_BEGIN
; 754  : 			_Umove(this->_Myfirst, this->_Mylast, _Ptr);

  00038	8b 0e		 mov	 ecx, DWORD PTR [esi]
  0003a	83 65 fc 00	 and	 DWORD PTR __$EHRec$[ebp+12], 0
  0003e	8d 56 0c	 lea	 edx, DWORD PTR [esi+12]
  00041	52		 push	 edx
  00042	89 45 ec	 mov	 DWORD PTR __Ptr$507040[ebp], eax
  00045	ff 75 ec	 push	 DWORD PTR __Ptr$507040[ebp]
  00048	8b 46 04	 mov	 eax, DWORD PTR [esi+4]
  0004b	50		 push	 eax
  0004c	51		 push	 ecx
  0004d	e8 00 00 00 00	 call	 ??$_Uninitialized_move@PAVioHashString@@PAV1@V?$allocator@VioHashString@@@std@@@std@@YAPAVioHashString@@PAV1@00AAV?$allocator@VioHashString@@@0@@Z ; std::_Uninitialized_move<ioHashString *,ioHashString *,std::allocator<ioHashString> >

; 758  : 			_CATCH_END
; 759  : 
; 760  : 			size_type _Size = size();

  00052	8b 4e 04	 mov	 ecx, DWORD PTR [esi+4]
  00055	8b 06		 mov	 eax, DWORD PTR [esi]
  00057	83 4d fc ff	 or	 DWORD PTR __$EHRec$[ebp+12], -1
  0005b	8b f9		 mov	 edi, ecx
  0005d	83 c4 18	 add	 esp, 24			; 00000018H
  00060	2b f8		 sub	 edi, eax
  00062	89 4d e8	 mov	 DWORD PTR tv300[ebp], ecx
  00065	85 c0		 test	 eax, eax
  00067	74 24		 je	 SHORT $LN51@reserve

; 761  : 			if (this->_Myfirst != 0)
; 762  : 				{	// destroy and deallocate old array
; 763  : 				_Destroy(this->_Myfirst, this->_Mylast);

  00069	89 45 08	 mov	 DWORD PTR $T513422[ebp], eax
  0006c	3b c1		 cmp	 eax, ecx
  0006e	74 15		 je	 SHORT $LN37@reserve
$LN39@reserve:
  00070	8b 4d 08	 mov	 ecx, DWORD PTR $T513422[ebp]
  00073	ff 15 00 00 00
	00		 call	 DWORD PTR __imp_??1ioHashString@@QAE@XZ
  00079	83 45 08 10	 add	 DWORD PTR $T513422[ebp], 16 ; 00000010H
  0007d	8b 45 08	 mov	 eax, DWORD PTR $T513422[ebp]
  00080	3b 45 e8	 cmp	 eax, DWORD PTR tv300[ebp]
  00083	75 eb		 jne	 SHORT $LN39@reserve
$LN37@reserve:

; 764  : 				this->_Alval.deallocate(this->_Myfirst,
; 765  : 					this->_Myend - this->_Myfirst);

  00085	ff 36		 push	 DWORD PTR [esi]
  00087	e8 00 00 00 00	 call	 ??3@YAXPAX@Z		; operator delete
  0008c	59		 pop	 ecx
$LN51@reserve:

; 766  : 				}
; 767  : 
; 768  : 			this->_Orphan_all();

  0008d	8b ce		 mov	 ecx, esi
  0008f	ff 15 00 00 00
	00		 call	 DWORD PTR __imp_?_Orphan_all@_Container_base0@std@@QAEXXZ

; 769  : 			this->_Myend = _Ptr + _Count;

  00095	8b 45 ec	 mov	 eax, DWORD PTR __Ptr$507040[ebp]
  00098	c1 e3 04	 shl	 ebx, 4
  0009b	03 d8		 add	 ebx, eax

; 770  : 			this->_Mylast = _Ptr + _Size;

  0009d	83 e7 f0	 and	 edi, -16		; fffffff0H
  000a0	03 f8		 add	 edi, eax
  000a2	89 5e 08	 mov	 DWORD PTR [esi+8], ebx
  000a5	89 7e 04	 mov	 DWORD PTR [esi+4], edi

; 771  : 			this->_Myfirst = _Ptr;

  000a8	89 06		 mov	 DWORD PTR [esi], eax
$LN3@reserve:

; 772  : 			}
; 773  : 		}

  000aa	e8 00 00 00 00	 call	 __EH_epilog3
  000af	c2 04 00	 ret	 4
__catch$?reserve@?$vector@VioHashString@@V?$allocator@VioHashString@@@std@@@std@@QAEXI@Z$0:

; 755  : 			_CATCH_ALL
; 756  : 			this->_Alval.deallocate(_Ptr, _Count);

  000b2	ff 75 ec	 push	 DWORD PTR __Ptr$507040[ebp]
  000b5	e8 00 00 00 00	 call	 ??3@YAXPAX@Z		; operator delete
  000ba	59		 pop	 ecx

; 757  : 			_RERAISE;

  000bb	6a 00		 push	 0
  000bd	6a 00		 push	 0
  000bf	e8 00 00 00 00	 call	 __CxxThrowException@8
$LN60@reserve:
$LN58@reserve:
  000c4	cc		 int	 3
_TEXT	ENDS
;	COMDAT text$x
text$x	SEGMENT
__ehhandler$?reserve@?$vector@VioHashString@@V?$allocator@VioHashString@@@std@@@std@@QAEXI@Z:
  00000	8b 54 24 08	 mov	 edx, DWORD PTR [esp+8]
  00004	8d 42 0c	 lea	 eax, DWORD PTR [edx+12]
  00007	8b 4a e4	 mov	 ecx, DWORD PTR [edx-28]
  0000a	33 c8		 xor	 ecx, eax
  0000c	e8 00 00 00 00	 call	 @__security_check_cookie@4
  00011	b8 00 00 00 00	 mov	 eax, OFFSET __ehfuncinfo$?reserve@?$vector@VioHashString@@V?$allocator@VioHashString@@@std@@@std@@QAEXI@Z
  00016	e9 00 00 00 00	 jmp	 ___CxxFrameHandler3
text$x	ENDS
?reserve@?$vector@VioHashString@@V?$allocator@VioHashString@@@std@@@std@@QAEXI@Z ENDP ; std::vector<ioHashString,std::allocator<ioHashString> >::reserve
PUBLIC	?erase@?$vector@VioHashString@@V?$allocator@VioHashString@@@std@@@std@@QAE?AV?$_Vector_iterator@V?$_Vector_val@VioHashString@@V?$allocator@VioHashString@@@std@@@std@@@2@V?$_Vector_const_iterator@V?$_Vector_val@VioHashString@@V?$allocator@VioHashString@@@std@@@std@@@2@0@Z ; std::vector<ioHashString,std::allocator<ioHashString> >::erase
; Function compile flags: /Ogsp
;	COMDAT ?erase@?$vector@VioHashString@@V?$allocator@VioHashString@@@std@@@std@@QAE?AV?$_Vector_iterator@V?$_Vector_val@VioHashString@@V?$allocator@VioHashString@@@std@@@std@@@2@V?$_Vector_const_iterator@V?$_Vector_val@VioHashString@@V?$allocator@VioHashString@@@std@@@std@@@2@0@Z
_TEXT	SEGMENT
$T513617 = -4						; size = 4
___$ReturnUdt$ = 8					; size = 4
__First_arg$ = 12					; size = 4
__Cat$513561 = 16					; size = 1
__Last_arg$ = 16					; size = 4
?erase@?$vector@VioHashString@@V?$allocator@VioHashString@@@std@@@std@@QAE?AV?$_Vector_iterator@V?$_Vector_val@VioHashString@@V?$allocator@VioHashString@@@std@@@std@@@2@V?$_Vector_const_iterator@V?$_Vector_val@VioHashString@@V?$allocator@VioHashString@@@std@@@std@@@2@0@Z PROC ; std::vector<ioHashString,std::allocator<ioHashString> >::erase, COMDAT
; _this$ = ecx

; 1190 : 		{	// erase [_First, _Last)

  00000	55		 push	 ebp
  00001	8b ec		 mov	 ebp, esp
  00003	51		 push	 ecx

; 1191 : 		iterator _First = _Make_iter(_First_arg);

  00004	8b 45 08	 mov	 eax, DWORD PTR ___$ReturnUdt$[ebp]
  00007	56		 push	 esi
  00008	8b f1		 mov	 esi, ecx
  0000a	8b 4d 0c	 mov	 ecx, DWORD PTR __First_arg$[ebp]
  0000d	89 08		 mov	 DWORD PTR [eax], ecx

; 1192 : 		iterator _Last = _Make_iter(_Last_arg);
; 1193 : 
; 1194 : 		if (_First != _Last)

  0000f	3b 4d 10	 cmp	 ecx, DWORD PTR __Last_arg$[ebp]
  00012	74 38		 je	 SHORT $LN1@erase

; 1195 : 			{	// worth doing, copy down over hole
; 1196 :  #if _ITERATOR_DEBUG_LEVEL == 2
; 1197 : 			if (_Last < _First || _VICONT(_First) != this
; 1198 : 				|| _VIPTR(_First) < this->_Myfirst
; 1199 : 				|| this->_Mylast < _VIPTR(_Last))
; 1200 : 				_DEBUG_ERROR("vector erase iterator outside range");
; 1201 : 			pointer _Ptr = _Move(_VIPTR(_Last), this->_Mylast,
; 1202 : 				_VIPTR(_First));
; 1203 : 			_Orphan_range(_VIPTR(_First), this->_Mylast);
; 1204 : 
; 1205 :  #else /* _ITERATOR_DEBUG_LEVEL == 2 */
; 1206 : 			pointer _Ptr = _Move(_VIPTR(_Last), this->_Mylast,
; 1207 : 				_VIPTR(_First));

  00014	8b 46 04	 mov	 eax, DWORD PTR [esi+4]
  00017	53		 push	 ebx
  00018	57		 push	 edi
  00019	ff 75 10	 push	 DWORD PTR __Cat$513561[ebp]
  0001c	51		 push	 ecx
  0001d	50		 push	 eax
  0001e	ff 75 10	 push	 DWORD PTR __Last_arg$[ebp]
  00021	e8 00 00 00 00	 call	 ??$_Move@PAVioHashString@@PAV1@@std@@YAPAVioHashString@@PAV1@00U_Nonscalar_ptr_iterator_tag@0@@Z ; std::_Move<ioHashString *,ioHashString *>

; 1208 :  #endif /* _ITERATOR_DEBUG_LEVEL == 2 */
; 1209 : 
; 1210 : 			_Destroy(_Ptr, this->_Mylast);

  00026	8b 7e 04	 mov	 edi, DWORD PTR [esi+4]
  00029	8b d8		 mov	 ebx, eax
  0002b	83 c4 10	 add	 esp, 16			; 00000010H
  0002e	89 5d fc	 mov	 DWORD PTR $T513617[ebp], ebx
  00031	3b df		 cmp	 ebx, edi
  00033	74 12		 je	 SHORT $LN36@erase
$LL52@erase:
  00035	8b 4d fc	 mov	 ecx, DWORD PTR $T513617[ebp]
  00038	ff 15 00 00 00
	00		 call	 DWORD PTR __imp_??1ioHashString@@QAE@XZ
  0003e	83 45 fc 10	 add	 DWORD PTR $T513617[ebp], 16 ; 00000010H
  00042	39 7d fc	 cmp	 DWORD PTR $T513617[ebp], edi
  00045	75 ee		 jne	 SHORT $LL52@erase
$LN36@erase:

; 1211 : 			this->_Mylast = _Ptr;

  00047	5f		 pop	 edi
  00048	89 5e 04	 mov	 DWORD PTR [esi+4], ebx
  0004b	5b		 pop	 ebx
$LN1@erase:

; 1212 : 			}
; 1213 : 		return (_First);

  0004c	8b 45 08	 mov	 eax, DWORD PTR ___$ReturnUdt$[ebp]
  0004f	5e		 pop	 esi

; 1214 : 		}

  00050	c9		 leave
  00051	c2 0c 00	 ret	 12			; 0000000cH
?erase@?$vector@VioHashString@@V?$allocator@VioHashString@@@std@@@std@@QAE?AV?$_Vector_iterator@V?$_Vector_val@VioHashString@@V?$allocator@VioHashString@@@std@@@std@@@2@V?$_Vector_const_iterator@V?$_Vector_val@VioHashString@@V?$allocator@VioHashString@@@std@@@std@@@2@0@Z ENDP ; std::vector<ioHashString,std::allocator<ioHashString> >::erase
_TEXT	ENDS
PUBLIC	?_Tidy@?$vector@VioHashString@@V?$allocator@VioHashString@@@std@@@std@@IAEXXZ ; std::vector<ioHashString,std::allocator<ioHashString> >::_Tidy
; Function compile flags: /Ogsp
;	COMDAT ?_Tidy@?$vector@VioHashString@@V?$allocator@VioHashString@@@std@@@std@@IAEXXZ
_TEXT	SEGMENT
?_Tidy@?$vector@VioHashString@@V?$allocator@VioHashString@@@std@@@std@@IAEXXZ PROC ; std::vector<ioHashString,std::allocator<ioHashString> >::_Tidy, COMDAT
; _this$ = ecx

; 1301 : 		{	// free all storage

  00000	56		 push	 esi
  00001	8b f1		 mov	 esi, ecx

; 1302 : 		if (this->_Myfirst != 0)

  00003	83 3e 00	 cmp	 DWORD PTR [esi], 0
  00006	74 28		 je	 SHORT $LN24@Tidy

; 1303 : 			{	// something to free, destroy and deallocate it
; 1304 : 			this->_Orphan_all();

  00008	53		 push	 ebx
  00009	57		 push	 edi
  0000a	ff 15 00 00 00
	00		 call	 DWORD PTR __imp_?_Orphan_all@_Container_base0@std@@QAEXXZ

; 1305 : 			_Destroy(this->_Myfirst, this->_Mylast);

  00010	8b 5e 04	 mov	 ebx, DWORD PTR [esi+4]
  00013	8b 3e		 mov	 edi, DWORD PTR [esi]
  00015	eb 0b		 jmp	 SHORT $LN28@Tidy
$LL12@Tidy:
  00017	8b cf		 mov	 ecx, edi
  00019	ff 15 00 00 00
	00		 call	 DWORD PTR __imp_??1ioHashString@@QAE@XZ
  0001f	83 c7 10	 add	 edi, 16			; 00000010H
$LN28@Tidy:
  00022	3b fb		 cmp	 edi, ebx
  00024	75 f1		 jne	 SHORT $LL12@Tidy

; 1306 : 			this->_Alval.deallocate(this->_Myfirst,
; 1307 : 				this->_Myend - this->_Myfirst);

  00026	ff 36		 push	 DWORD PTR [esi]
  00028	e8 00 00 00 00	 call	 ??3@YAXPAX@Z		; operator delete
  0002d	59		 pop	 ecx
  0002e	5f		 pop	 edi
  0002f	5b		 pop	 ebx
$LN24@Tidy:

; 1308 : 			}
; 1309 : 		this->_Myfirst = 0;

  00030	33 c0		 xor	 eax, eax
  00032	89 06		 mov	 DWORD PTR [esi], eax

; 1310 : 		this->_Mylast = 0;

  00034	89 46 04	 mov	 DWORD PTR [esi+4], eax

; 1311 : 		this->_Myend = 0;

  00037	89 46 08	 mov	 DWORD PTR [esi+8], eax
  0003a	5e		 pop	 esi

; 1312 : 		}

  0003b	c3		 ret	 0
?_Tidy@?$vector@VioHashString@@V?$allocator@VioHashString@@@std@@@std@@IAEXXZ ENDP ; std::vector<ioHashString,std::allocator<ioHashString> >::_Tidy
_TEXT	ENDS
PUBLIC	?_Reserve@?$vector@VioHashString@@V?$allocator@VioHashString@@@std@@@std@@IAEXI@Z ; std::vector<ioHashString,std::allocator<ioHashString> >::_Reserve
; Function compile flags: /Ogsp
;	COMDAT ?_Reserve@?$vector@VioHashString@@V?$allocator@VioHashString@@@std@@@std@@IAEXI@Z
_TEXT	SEGMENT
__Count$ = 8						; size = 4
?_Reserve@?$vector@VioHashString@@V?$allocator@VioHashString@@@std@@@std@@IAEXI@Z PROC ; std::vector<ioHashString,std::allocator<ioHashString> >::_Reserve, COMDAT
; _this$ = ecx

; 1290 : 		{	// ensure room for _Count new elements, grow exponentially

  00000	55		 push	 ebp
  00001	8b ec		 mov	 ebp, esp
  00003	56		 push	 esi
  00004	8b f1		 mov	 esi, ecx

; 1291 : 		size_type _Size = size();

  00006	8b 0e		 mov	 ecx, DWORD PTR [esi]
  00008	8b 46 04	 mov	 eax, DWORD PTR [esi+4]
  0000b	2b c1		 sub	 eax, ecx

; 1292 : 		if (max_size() - _Count < _Size)

  0000d	ba ff ff ff 0f	 mov	 edx, 268435455		; 0fffffffH
  00012	2b 55 08	 sub	 edx, DWORD PTR __Count$[ebp]
  00015	c1 f8 04	 sar	 eax, 4
  00018	3b d0		 cmp	 edx, eax
  0001a	73 0b		 jae	 SHORT $LN4@Reserve

; 1293 : 			_Xlen();

  0001c	68 00 00 00 00	 push	 OFFSET ??_C@_0BD@OLBABOEK@vector?$DMT?$DO?5too?5long?$AA@
  00021	ff 15 00 00 00
	00		 call	 DWORD PTR __imp_?_Xlength_error@std@@YAXPBD@Z
$LN21@Reserve:
$LN4@Reserve:

; 1294 : 		else if ((_Size += _Count) <= capacity())

  00027	8b 56 08	 mov	 edx, DWORD PTR [esi+8]
  0002a	03 45 08	 add	 eax, DWORD PTR __Count$[ebp]
  0002d	2b d1		 sub	 edx, ecx
  0002f	c1 fa 04	 sar	 edx, 4
  00032	3b c2		 cmp	 eax, edx
  00034	76 10		 jbe	 SHORT $LN1@Reserve

; 1295 : 			;
; 1296 : 		else
; 1297 : 			reserve(_Grow_to(_Size));

  00036	50		 push	 eax
  00037	8b ce		 mov	 ecx, esi
  00039	e8 00 00 00 00	 call	 ?_Grow_to@?$vector@VioHashString@@V?$allocator@VioHashString@@@std@@@std@@IBEII@Z ; std::vector<ioHashString,std::allocator<ioHashString> >::_Grow_to
  0003e	50		 push	 eax
  0003f	8b ce		 mov	 ecx, esi
  00041	e8 00 00 00 00	 call	 ?reserve@?$vector@VioHashString@@V?$allocator@VioHashString@@@std@@@std@@QAEXI@Z ; std::vector<ioHashString,std::allocator<ioHashString> >::reserve
$LN1@Reserve:
  00046	5e		 pop	 esi

; 1298 : 		}

  00047	5d		 pop	 ebp
  00048	c2 04 00	 ret	 4
$LN20@Reserve:
?_Reserve@?$vector@VioHashString@@V?$allocator@VioHashString@@@std@@@std@@IAEXI@Z ENDP ; std::vector<ioHashString,std::allocator<ioHashString> >::_Reserve
_TEXT	ENDS
PUBLIC	??1?$vector@VioHashString@@V?$allocator@VioHashString@@@std@@@std@@QAE@XZ ; std::vector<ioHashString,std::allocator<ioHashString> >::~vector<ioHashString,std::allocator<ioHashString> >
; Function compile flags: /Ogsp
;	COMDAT ??1?$vector@VioHashString@@V?$allocator@VioHashString@@@std@@@std@@QAE@XZ
_TEXT	SEGMENT
??1?$vector@VioHashString@@V?$allocator@VioHashString@@@std@@@std@@QAE@XZ PROC ; std::vector<ioHashString,std::allocator<ioHashString> >::~vector<ioHashString,std::allocator<ioHashString> >, COMDAT
; _this$ = ecx

; 705  : 		_Tidy();

  00000	e9 00 00 00 00	 jmp	 ?_Tidy@?$vector@VioHashString@@V?$allocator@VioHashString@@@std@@@std@@IAEXXZ ; std::vector<ioHashString,std::allocator<ioHashString> >::_Tidy
??1?$vector@VioHashString@@V?$allocator@VioHashString@@@std@@@std@@QAE@XZ ENDP ; std::vector<ioHashString,std::allocator<ioHashString> >::~vector<ioHashString,std::allocator<ioHashString> >
_TEXT	ENDS
PUBLIC	?clear@?$vector@VioHashString@@V?$allocator@VioHashString@@@std@@@std@@QAEXXZ ; std::vector<ioHashString,std::allocator<ioHashString> >::clear
; Function compile flags: /Ogsp
;	COMDAT ?clear@?$vector@VioHashString@@V?$allocator@VioHashString@@@std@@@std@@QAEXXZ
_TEXT	SEGMENT
$T513813 = -4						; size = 4
?clear@?$vector@VioHashString@@V?$allocator@VioHashString@@@std@@@std@@QAEXXZ PROC ; std::vector<ioHashString,std::allocator<ioHashString> >::clear, COMDAT
; _this$ = ecx

; 1217 : 		{	// erase all

  00000	55		 push	 ebp
  00001	8b ec		 mov	 ebp, esp
  00003	51		 push	 ecx

; 1218 : 		erase(begin(), end());

  00004	8b 41 04	 mov	 eax, DWORD PTR [ecx+4]
  00007	8b 11		 mov	 edx, DWORD PTR [ecx]
  00009	50		 push	 eax
  0000a	52		 push	 edx
  0000b	8d 45 fc	 lea	 eax, DWORD PTR $T513813[ebp]
  0000e	50		 push	 eax
  0000f	e8 00 00 00 00	 call	 ?erase@?$vector@VioHashString@@V?$allocator@VioHashString@@@std@@@std@@QAE?AV?$_Vector_iterator@V?$_Vector_val@VioHashString@@V?$allocator@VioHashString@@@std@@@std@@@2@V?$_Vector_const_iterator@V?$_Vector_val@VioHashString@@V?$allocator@VioHashString@@@std@@@std@@@2@0@Z ; std::vector<ioHashString,std::allocator<ioHashString> >::erase

; 1219 : 		}

  00014	c9		 leave
  00015	c3		 ret	 0
?clear@?$vector@VioHashString@@V?$allocator@VioHashString@@@std@@@std@@QAEXXZ ENDP ; std::vector<ioHashString,std::allocator<ioHashString> >::clear
_TEXT	ENDS
PUBLIC	?push_back@?$vector@VioHashString@@V?$allocator@VioHashString@@@std@@@std@@QAEX$$QAVioHashString@@@Z ; std::vector<ioHashString,std::allocator<ioHashString> >::push_back
; Function compile flags: /Ogsp
;	COMDAT ?push_back@?$vector@VioHashString@@V?$allocator@VioHashString@@@std@@@std@@QAEX$$QAVioHashString@@@Z
_TEXT	SEGMENT
__Val$ = 8						; size = 4
?push_back@?$vector@VioHashString@@V?$allocator@VioHashString@@@std@@@std@@QAEX$$QAVioHashString@@@Z PROC ; std::vector<ioHashString,std::allocator<ioHashString> >::push_back, COMDAT
; _this$ = ecx

; 631  : 		{	// insert element at end

  00000	55		 push	 ebp
  00001	8b ec		 mov	 ebp, esp
  00003	56		 push	 esi
  00004	8b f1		 mov	 esi, ecx

; 632  : 		if (_Inside(_STD addressof(_Val)))

  00006	8b 46 04	 mov	 eax, DWORD PTR [esi+4]
  00009	57		 push	 edi
  0000a	8b 7d 08	 mov	 edi, DWORD PTR __Val$[ebp]
  0000d	3b f8		 cmp	 edi, eax
  0000f	73 1d		 jae	 SHORT $LN4@push_back
  00011	8b 0e		 mov	 ecx, DWORD PTR [esi]
  00013	3b cf		 cmp	 ecx, edi
  00015	77 17		 ja	 SHORT $LN4@push_back

; 633  : 			{	// push back an element
; 634  : 			size_type _Idx = _STD addressof(_Val) - this->_Myfirst;

  00017	2b f9		 sub	 edi, ecx

; 635  : 			if (this->_Mylast == this->_Myend)

  00019	3b 46 08	 cmp	 eax, DWORD PTR [esi+8]
  0001c	75 09		 jne	 SHORT $LN3@push_back

; 636  : 				_Reserve(1);

  0001e	6a 01		 push	 1
  00020	8b ce		 mov	 ecx, esi
  00022	e8 00 00 00 00	 call	 ?_Reserve@?$vector@VioHashString@@V?$allocator@VioHashString@@@std@@@std@@IAEXI@Z ; std::vector<ioHashString,std::allocator<ioHashString> >::_Reserve
$LN3@push_back:

; 637  : 			_Orphan_range(this->_Mylast, this->_Mylast);
; 638  : 			_Cons_val(this->_Alval,
; 639  : 				this->_Mylast,
; 640  : 				_STD forward<_Ty>(this->_Myfirst[_Idx]));

  00027	83 e7 f0	 and	 edi, -16		; fffffff0H
  0002a	03 3e		 add	 edi, DWORD PTR [esi]

; 641  : 			++this->_Mylast;
; 642  : 			}
; 643  : 		else

  0002c	eb 0e		 jmp	 SHORT $LN1@push_back
$LN4@push_back:

; 644  : 			{	// push back a non-element
; 645  : 			if (this->_Mylast == this->_Myend)

  0002e	3b 46 08	 cmp	 eax, DWORD PTR [esi+8]
  00031	75 09		 jne	 SHORT $LN1@push_back

; 646  : 				_Reserve(1);

  00033	6a 01		 push	 1
  00035	8b ce		 mov	 ecx, esi
  00037	e8 00 00 00 00	 call	 ?_Reserve@?$vector@VioHashString@@V?$allocator@VioHashString@@@std@@@std@@IAEXI@Z ; std::vector<ioHashString,std::allocator<ioHashString> >::_Reserve
$LN1@push_back:

; 647  : 			_Orphan_range(this->_Mylast, this->_Mylast);
; 648  : 			_Cons_val(this->_Alval,
; 649  : 				this->_Mylast,
; 650  : 				_STD forward<_Ty>(_Val));

  0003c	57		 push	 edi
  0003d	ff 76 04	 push	 DWORD PTR [esi+4]
  00040	8d 4e 0c	 lea	 ecx, DWORD PTR [esi+12]
  00043	e8 00 00 00 00	 call	 ?construct@?$allocator@VioHashString@@@std@@QAEXPAVioHashString@@$$QAV3@@Z ; std::allocator<ioHashString>::construct

; 651  : 			++this->_Mylast;

  00048	83 46 04 10	 add	 DWORD PTR [esi+4], 16	; 00000010H
  0004c	5f		 pop	 edi
  0004d	5e		 pop	 esi

; 652  : 			}
; 653  : 		}

  0004e	5d		 pop	 ebp
  0004f	c2 04 00	 ret	 4
?push_back@?$vector@VioHashString@@V?$allocator@VioHashString@@@std@@@std@@QAEX$$QAVioHashString@@@Z ENDP ; std::vector<ioHashString,std::allocator<ioHashString> >::push_back
_TEXT	ENDS
PUBLIC	??4?$vector@VioHashString@@V?$allocator@VioHashString@@@std@@@std@@QAEAAV01@ABV01@@Z ; std::vector<ioHashString,std::allocator<ioHashString> >::operator=
; Function compile flags: /Ogsp
;	COMDAT ??4?$vector@VioHashString@@V?$allocator@VioHashString@@@std@@@std@@QAEAAV01@ABV01@@Z
_TEXT	SEGMENT
tv555 = 8						; size = 4
__Cat$514281 = 8					; size = 1
__Cat$514154 = 8					; size = 1
__Cat$514132 = 8					; size = 1
__Cat$514011 = 8					; size = 1
$T514066 = 8						; size = 4
$T513978 = 8						; size = 4
__Right$ = 8						; size = 4
??4?$vector@VioHashString@@V?$allocator@VioHashString@@@std@@@std@@QAEAAV01@ABV01@@Z PROC ; std::vector<ioHashString,std::allocator<ioHashString> >::operator=, COMDAT
; _this$ = ecx

; 709  : 		{	// assign _Right

  00000	55		 push	 ebp
  00001	8b ec		 mov	 ebp, esp
  00003	56		 push	 esi
  00004	57		 push	 edi

; 710  : 		if (this != &_Right)

  00005	8b 7d 08	 mov	 edi, DWORD PTR __Right$[ebp]
  00008	8b f1		 mov	 esi, ecx
  0000a	3b f7		 cmp	 esi, edi
  0000c	0f 84 fd 00 00
	00		 je	 $LN1@operator@3

; 711  : 			{	// worth doing
; 712  : 			this->_Orphan_all();

  00012	53		 push	 ebx
  00013	ff 15 00 00 00
	00		 call	 DWORD PTR __imp_?_Orphan_all@_Container_base0@std@@QAEXXZ

; 713  : 
; 714  : 			if (_Right.size() == 0)

  00019	8b 5f 04	 mov	 ebx, DWORD PTR [edi+4]

; 715  : 				clear();	// new sequence empty, erase existing sequence

  0001c	8b 46 04	 mov	 eax, DWORD PTR [esi+4]
  0001f	8b cb		 mov	 ecx, ebx
  00021	2b 0f		 sub	 ecx, DWORD PTR [edi]
  00023	c1 f9 04	 sar	 ecx, 4
  00026	85 c9		 test	 ecx, ecx
  00028	75 14		 jne	 SHORT $LN8@operator@3
  0002a	8b 0e		 mov	 ecx, DWORD PTR [esi]
  0002c	50		 push	 eax
  0002d	51		 push	 ecx
  0002e	8d 45 08	 lea	 eax, DWORD PTR $T513978[ebp]
  00031	50		 push	 eax
  00032	8b ce		 mov	 ecx, esi
  00034	e8 00 00 00 00	 call	 ?erase@?$vector@VioHashString@@V?$allocator@VioHashString@@@std@@@std@@QAE?AV?$_Vector_iterator@V?$_Vector_val@VioHashString@@V?$allocator@VioHashString@@@std@@@std@@@2@V?$_Vector_const_iterator@V?$_Vector_val@VioHashString@@V?$allocator@VioHashString@@@std@@@std@@@2@0@Z ; std::vector<ioHashString,std::allocator<ioHashString> >::erase

; 716  : 			else if (_Right.size() <= size())

  00039	e9 d0 00 00 00	 jmp	 $LN113@operator@3
$LN8@operator@3:
  0003e	8b 16		 mov	 edx, DWORD PTR [esi]
  00040	89 45 08	 mov	 DWORD PTR tv555[ebp], eax
  00043	2b c2		 sub	 eax, edx
  00045	c1 f8 04	 sar	 eax, 4
  00048	3b c8		 cmp	 ecx, eax
  0004a	77 3a		 ja	 SHORT $LN6@operator@3

; 717  : 				{	// enough elements, copy new and destroy old
; 718  : 				pointer _Ptr = _STD _Copy_impl(_Right._Myfirst, _Right._Mylast,
; 719  : 					this->_Myfirst);	// copy new

  0004c	ff 75 08	 push	 DWORD PTR __Cat$514011[ebp]
  0004f	52		 push	 edx
  00050	53		 push	 ebx
  00051	ff 37		 push	 DWORD PTR [edi]
  00053	e8 00 00 00 00	 call	 ??$_Copy_impl@PAVioHashString@@PAV1@@std@@YAPAVioHashString@@PAV1@00U_Nonscalar_ptr_iterator_tag@0@@Z ; std::_Copy_impl<ioHashString *,ioHashString *>

; 720  : 				_Destroy(_Ptr, this->_Mylast);	// destroy old

  00058	8b 5e 04	 mov	 ebx, DWORD PTR [esi+4]
  0005b	83 c4 10	 add	 esp, 16			; 00000010H
  0005e	89 45 08	 mov	 DWORD PTR $T514066[ebp], eax
  00061	3b c3		 cmp	 eax, ebx
  00063	74 12		 je	 SHORT $LN46@operator@3
$LL112@operator@3:
  00065	8b 4d 08	 mov	 ecx, DWORD PTR $T514066[ebp]
  00068	ff 15 00 00 00
	00		 call	 DWORD PTR __imp_??1ioHashString@@QAE@XZ
  0006e	83 45 08 10	 add	 DWORD PTR $T514066[ebp], 16 ; 00000010H
  00072	39 5d 08	 cmp	 DWORD PTR $T514066[ebp], ebx
  00075	75 ee		 jne	 SHORT $LL112@operator@3
$LN46@operator@3:

; 721  : 				this->_Mylast = this->_Myfirst + _Right.size();

  00077	8b 47 04	 mov	 eax, DWORD PTR [edi+4]
  0007a	2b 07		 sub	 eax, DWORD PTR [edi]
  0007c	83 e0 f0	 and	 eax, -16		; fffffff0H
  0007f	03 06		 add	 eax, DWORD PTR [esi]

; 722  : 				}
; 723  : 			else if (_Right.size() <= capacity())

  00081	e9 85 00 00 00	 jmp	 $LN114@operator@3
$LN6@operator@3:
  00086	8b 5e 08	 mov	 ebx, DWORD PTR [esi+8]
  00089	2b da		 sub	 ebx, edx
  0008b	c1 fb 04	 sar	 ebx, 4
  0008e	3b cb		 cmp	 ecx, ebx
  00090	77 2c		 ja	 SHORT $LN4@operator@3

; 724  : 				{	// enough room, copy and construct new
; 725  : 				pointer _Ptr = _Right._Myfirst + size();
; 726  : 				_STD _Copy_impl(_Right._Myfirst, _Ptr, this->_Myfirst);

  00092	ff 75 08	 push	 DWORD PTR __Cat$514132[ebp]
  00095	8b 0f		 mov	 ecx, DWORD PTR [edi]
  00097	03 c0		 add	 eax, eax
  00099	52		 push	 edx
  0009a	8d 1c c1	 lea	 ebx, DWORD PTR [ecx+eax*8]
  0009d	53		 push	 ebx
  0009e	51		 push	 ecx
  0009f	e8 00 00 00 00	 call	 ??$_Copy_impl@PAVioHashString@@PAV1@@std@@YAPAVioHashString@@PAV1@00U_Nonscalar_ptr_iterator_tag@0@@Z ; std::_Copy_impl<ioHashString *,ioHashString *>

; 727  : 				this->_Mylast = _Ucopy(_Ptr, _Right._Mylast, this->_Mylast);

  000a4	ff 75 08	 push	 DWORD PTR __Cat$514154[ebp]
  000a7	8b 46 04	 mov	 eax, DWORD PTR [esi+4]
  000aa	8b 7f 04	 mov	 edi, DWORD PTR [edi+4]
  000ad	8d 4e 0c	 lea	 ecx, DWORD PTR [esi+12]
  000b0	51		 push	 ecx
  000b1	50		 push	 eax
  000b2	57		 push	 edi
  000b3	53		 push	 ebx
  000b4	e8 00 00 00 00	 call	 ??$_Uninit_copy@PAVioHashString@@PAV1@V?$allocator@VioHashString@@@std@@@std@@YAPAVioHashString@@PAV1@00AAV?$allocator@VioHashString@@@0@U_Nonscalar_ptr_iterator_tag@0@@Z ; std::_Uninit_copy<ioHashString *,ioHashString *,std::allocator<ioHashString> >
  000b9	83 c4 24	 add	 esp, 36			; 00000024H

; 728  : 				}
; 729  : 			else

  000bc	eb 4d		 jmp	 SHORT $LN114@operator@3
$LN4@operator@3:

; 730  : 				{	// not enough room, allocate new array and construct new
; 731  : 				if (this->_Myfirst != 0)

  000be	85 d2		 test	 edx, edx
  000c0	74 1c		 je	 SHORT $LN98@operator@3

; 732  : 					{	// discard old array
; 733  : 					_Destroy(this->_Myfirst, this->_Mylast);

  000c2	8b da		 mov	 ebx, edx
  000c4	eb 0b		 jmp	 SHORT $LN115@operator@3
$LL86@operator@3:
  000c6	8b cb		 mov	 ecx, ebx
  000c8	ff 15 00 00 00
	00		 call	 DWORD PTR __imp_??1ioHashString@@QAE@XZ
  000ce	83 c3 10	 add	 ebx, 16			; 00000010H
$LN115@operator@3:
  000d1	3b 5d 08	 cmp	 ebx, DWORD PTR tv555[ebp]
  000d4	75 f0		 jne	 SHORT $LL86@operator@3

; 734  : 					this->_Alval.deallocate(this->_Myfirst,
; 735  : 						this->_Myend - this->_Myfirst);

  000d6	ff 36		 push	 DWORD PTR [esi]
  000d8	e8 00 00 00 00	 call	 ??3@YAXPAX@Z		; operator delete
  000dd	59		 pop	 ecx
$LN98@operator@3:

; 736  : 					}
; 737  : 				if (_Buy(_Right.size()))

  000de	8b 47 04	 mov	 eax, DWORD PTR [edi+4]
  000e1	2b 07		 sub	 eax, DWORD PTR [edi]
  000e3	8b ce		 mov	 ecx, esi
  000e5	c1 f8 04	 sar	 eax, 4
  000e8	50		 push	 eax
  000e9	e8 00 00 00 00	 call	 ?_Buy@?$vector@VioHashString@@V?$allocator@VioHashString@@@std@@@std@@IAE_NI@Z ; std::vector<ioHashString,std::allocator<ioHashString> >::_Buy
  000ee	84 c0		 test	 al, al
  000f0	74 1c		 je	 SHORT $LN113@operator@3

; 738  : 					this->_Mylast = _Ucopy(_Right._Myfirst, _Right._Mylast,
; 739  : 						this->_Myfirst);

  000f2	ff 75 08	 push	 DWORD PTR __Cat$514281[ebp]
  000f5	8b 06		 mov	 eax, DWORD PTR [esi]
  000f7	8b 4f 04	 mov	 ecx, DWORD PTR [edi+4]
  000fa	8b 3f		 mov	 edi, DWORD PTR [edi]
  000fc	8d 56 0c	 lea	 edx, DWORD PTR [esi+12]
  000ff	52		 push	 edx
  00100	50		 push	 eax
  00101	51		 push	 ecx
  00102	57		 push	 edi
  00103	e8 00 00 00 00	 call	 ??$_Uninit_copy@PAVioHashString@@PAV1@V?$allocator@VioHashString@@@std@@@std@@YAPAVioHashString@@PAV1@00AAV?$allocator@VioHashString@@@0@U_Nonscalar_ptr_iterator_tag@0@@Z ; std::_Uninit_copy<ioHashString *,ioHashString *,std::allocator<ioHashString> >
  00108	83 c4 14	 add	 esp, 20			; 00000014H
$LN114@operator@3:
  0010b	89 46 04	 mov	 DWORD PTR [esi+4], eax
$LN113@operator@3:
  0010e	5b		 pop	 ebx
$LN1@operator@3:
  0010f	5f		 pop	 edi

; 740  : 				}
; 741  : 			}
; 742  : 		return (*this);

  00110	8b c6		 mov	 eax, esi
  00112	5e		 pop	 esi

; 743  : 		}

  00113	5d		 pop	 ebp
  00114	c2 04 00	 ret	 4
??4?$vector@VioHashString@@V?$allocator@VioHashString@@@std@@@std@@QAEAAV01@ABV01@@Z ENDP ; std::vector<ioHashString,std::allocator<ioHashString> >::operator=
_TEXT	ENDS
PUBLIC	??1?$_Pair_base@$$CBHV?$vector@VioHashString@@V?$allocator@VioHashString@@@std@@@std@@@std@@QAE@XZ ; std::_Pair_base<int const ,std::vector<ioHashString,std::allocator<ioHashString> > >::~_Pair_base<int const ,std::vector<ioHashString,std::allocator<ioHashString> > >
; Function compile flags: /Ogsp
;	COMDAT ??1?$_Pair_base@$$CBHV?$vector@VioHashString@@V?$allocator@VioHashString@@@std@@@std@@@std@@QAE@XZ
_TEXT	SEGMENT
??1?$_Pair_base@$$CBHV?$vector@VioHashString@@V?$allocator@VioHashString@@@std@@@std@@@std@@QAE@XZ PROC ; std::_Pair_base<int const ,std::vector<ioHashString,std::allocator<ioHashString> > >::~_Pair_base<int const ,std::vector<ioHashString,std::allocator<ioHashString> > >, COMDAT
; _this$ = ecx
  00000	83 c1 04	 add	 ecx, 4
  00003	e9 00 00 00 00	 jmp	 ?_Tidy@?$vector@VioHashString@@V?$allocator@VioHashString@@@std@@@std@@IAEXXZ ; std::vector<ioHashString,std::allocator<ioHashString> >::_Tidy
??1?$_Pair_base@$$CBHV?$vector@VioHashString@@V?$allocator@VioHashString@@@std@@@std@@@std@@QAE@XZ ENDP ; std::_Pair_base<int const ,std::vector<ioHashString,std::allocator<ioHashString> > >::~_Pair_base<int const ,std::vector<ioHashString,std::allocator<ioHashString> > >
_TEXT	ENDS
PUBLIC	?_Assign_rv@?$vector@VioHashString@@V?$allocator@VioHashString@@@std@@@std@@QAEX$$QAV12@@Z ; std::vector<ioHashString,std::allocator<ioHashString> >::_Assign_rv
EXTRN	__imp_?_Swap_all@_Container_base0@std@@QAEXAAU12@@Z:PROC
; Function compile flags: /Ogsp
;	COMDAT ?_Assign_rv@?$vector@VioHashString@@V?$allocator@VioHashString@@@std@@@std@@QAEX$$QAV12@@Z
_TEXT	SEGMENT
__Right$ = 8						; size = 4
?_Assign_rv@?$vector@VioHashString@@V?$allocator@VioHashString@@@std@@@std@@QAEX$$QAV12@@Z PROC ; std::vector<ioHashString,std::allocator<ioHashString> >::_Assign_rv, COMDAT
; _this$ = ecx

; 606  : 		{	// assign by moving _Right

  00000	55		 push	 ebp
  00001	8b ec		 mov	 ebp, esp
  00003	56		 push	 esi

; 607  : 		if (this == &_Right)

  00004	8b 75 08	 mov	 esi, DWORD PTR __Right$[ebp]
  00007	57		 push	 edi
  00008	8b f9		 mov	 edi, ecx
  0000a	3b fe		 cmp	 edi, esi
  0000c	74 28		 je	 SHORT $LN1@Assign_rv

; 608  : 			;
; 609  : 		else if (get_allocator() != _Right.get_allocator())
; 610  : 			{	// move construct a copy
; 611  : 			clear();
; 612  : 			for (iterator _Next = _Right.begin(); _Next != _Right.end();
; 613  : 				++_Next)
; 614  : 				push_back(_STD forward<_Ty>(*_Next));
; 615  : 			}
; 616  : 		else
; 617  : 			{	// clear this and steal from _Right
; 618  : 			_Tidy();

  0000e	e8 00 00 00 00	 call	 ?_Tidy@?$vector@VioHashString@@V?$allocator@VioHashString@@@std@@@std@@IAEXXZ ; std::vector<ioHashString,std::allocator<ioHashString> >::_Tidy

; 619  : 			this->_Swap_all((_Myt&)_Right);

  00013	56		 push	 esi
  00014	8b cf		 mov	 ecx, edi
  00016	ff 15 00 00 00
	00		 call	 DWORD PTR __imp_?_Swap_all@_Container_base0@std@@QAEXAAU12@@Z

; 620  : 			this->_Myfirst = _Right._Myfirst;

  0001c	8b 06		 mov	 eax, DWORD PTR [esi]
  0001e	89 07		 mov	 DWORD PTR [edi], eax

; 621  : 			this->_Mylast = _Right._Mylast;

  00020	8b 46 04	 mov	 eax, DWORD PTR [esi+4]
  00023	89 47 04	 mov	 DWORD PTR [edi+4], eax

; 622  : 			this->_Myend = _Right._Myend;

  00026	8b 46 08	 mov	 eax, DWORD PTR [esi+8]
  00029	89 47 08	 mov	 DWORD PTR [edi+8], eax

; 623  : 
; 624  : 			_Right._Myfirst = 0;

  0002c	33 c0		 xor	 eax, eax
  0002e	89 06		 mov	 DWORD PTR [esi], eax

; 625  : 			_Right._Mylast = 0;

  00030	89 46 04	 mov	 DWORD PTR [esi+4], eax

; 626  : 			_Right._Myend = 0;

  00033	89 46 08	 mov	 DWORD PTR [esi+8], eax
$LN1@Assign_rv:
  00036	5f		 pop	 edi
  00037	5e		 pop	 esi

; 627  : 			}
; 628  : 		}

  00038	5d		 pop	 ebp
  00039	c2 04 00	 ret	 4
?_Assign_rv@?$vector@VioHashString@@V?$allocator@VioHashString@@@std@@@std@@QAEX$$QAV12@@Z ENDP ; std::vector<ioHashString,std::allocator<ioHashString> >::_Assign_rv
_TEXT	ENDS
PUBLIC	??1?$pair@$$CBHV?$vector@VioHashString@@V?$allocator@VioHashString@@@std@@@std@@@std@@QAE@XZ ; std::pair<int const ,std::vector<ioHashString,std::allocator<ioHashString> > >::~pair<int const ,std::vector<ioHashString,std::allocator<ioHashString> > >
; Function compile flags: /Ogsp
;	COMDAT ??1?$pair@$$CBHV?$vector@VioHashString@@V?$allocator@VioHashString@@@std@@@std@@@std@@QAE@XZ
_TEXT	SEGMENT
??1?$pair@$$CBHV?$vector@VioHashString@@V?$allocator@VioHashString@@@std@@@std@@@std@@QAE@XZ PROC ; std::pair<int const ,std::vector<ioHashString,std::allocator<ioHashString> > >::~pair<int const ,std::vector<ioHashString,std::allocator<ioHashString> > >, COMDAT
; _this$ = ecx
  00000	83 c1 04	 add	 ecx, 4
  00003	e9 00 00 00 00	 jmp	 ?_Tidy@?$vector@VioHashString@@V?$allocator@VioHashString@@@std@@@std@@IAEXXZ ; std::vector<ioHashString,std::allocator<ioHashString> >::_Tidy
??1?$pair@$$CBHV?$vector@VioHashString@@V?$allocator@VioHashString@@@std@@@std@@@std@@QAE@XZ ENDP ; std::pair<int const ,std::vector<ioHashString,std::allocator<ioHashString> > >::~pair<int const ,std::vector<ioHashString,std::allocator<ioHashString> > >
_TEXT	ENDS
PUBLIC	??0?$vector@VioHashString@@V?$allocator@VioHashString@@@std@@@std@@QAE@$$QAV01@@Z ; std::vector<ioHashString,std::allocator<ioHashString> >::vector<ioHashString,std::allocator<ioHashString> >
; Function compile flags: /Ogsp
;	COMDAT ??0?$vector@VioHashString@@V?$allocator@VioHashString@@@std@@@std@@QAE@$$QAV01@@Z
_TEXT	SEGMENT
__Right$ = 8						; size = 4
??0?$vector@VioHashString@@V?$allocator@VioHashString@@@std@@@std@@QAE@$$QAV01@@Z PROC ; std::vector<ioHashString,std::allocator<ioHashString> >::vector<ioHashString,std::allocator<ioHashString> >, COMDAT
; _this$ = ecx

; 595  : 		{	// construct by moving _Right

  00000	55		 push	 ebp
  00001	8b ec		 mov	 ebp, esp
  00003	56		 push	 esi

; 596  : 		_Assign_rv(_STD forward<_Myt>(_Right));

  00004	ff 75 08	 push	 DWORD PTR __Right$[ebp]
  00007	8b f1		 mov	 esi, ecx
  00009	33 c0		 xor	 eax, eax
  0000b	89 06		 mov	 DWORD PTR [esi], eax
  0000d	89 46 04	 mov	 DWORD PTR [esi+4], eax
  00010	89 46 08	 mov	 DWORD PTR [esi+8], eax
  00013	e8 00 00 00 00	 call	 ?_Assign_rv@?$vector@VioHashString@@V?$allocator@VioHashString@@@std@@@std@@QAEX$$QAV12@@Z ; std::vector<ioHashString,std::allocator<ioHashString> >::_Assign_rv

; 597  : 		}

  00018	8b c6		 mov	 eax, esi
  0001a	5e		 pop	 esi
  0001b	5d		 pop	 ebp
  0001c	c2 04 00	 ret	 4
??0?$vector@VioHashString@@V?$allocator@VioHashString@@@std@@@std@@QAE@$$QAV01@@Z ENDP ; std::vector<ioHashString,std::allocator<ioHashString> >::vector<ioHashString,std::allocator<ioHashString> >
_TEXT	ENDS
PUBLIC	??_G?$pair@$$CBHV?$vector@VioHashString@@V?$allocator@VioHashString@@@std@@@std@@@std@@QAEPAXI@Z ; std::pair<int const ,std::vector<ioHashString,std::allocator<ioHashString> > >::`scalar deleting destructor'
; Function compile flags: /Ogsp
;	COMDAT ??_G?$pair@$$CBHV?$vector@VioHashString@@V?$allocator@VioHashString@@@std@@@std@@@std@@QAEPAXI@Z
_TEXT	SEGMENT
___flags$ = 8						; size = 4
??_G?$pair@$$CBHV?$vector@VioHashString@@V?$allocator@VioHashString@@@std@@@std@@@std@@QAEPAXI@Z PROC ; std::pair<int const ,std::vector<ioHashString,std::allocator<ioHashString> > >::`scalar deleting destructor', COMDAT
; _this$ = ecx
  00000	55		 push	 ebp
  00001	8b ec		 mov	 ebp, esp
  00003	56		 push	 esi
  00004	8b f1		 mov	 esi, ecx
  00006	8d 4e 04	 lea	 ecx, DWORD PTR [esi+4]
  00009	e8 00 00 00 00	 call	 ?_Tidy@?$vector@VioHashString@@V?$allocator@VioHashString@@@std@@@std@@IAEXXZ ; std::vector<ioHashString,std::allocator<ioHashString> >::_Tidy
  0000e	f6 45 08 01	 test	 BYTE PTR ___flags$[ebp], 1
  00012	74 07		 je	 SHORT $LN1@scalar@3
  00014	56		 push	 esi
  00015	e8 00 00 00 00	 call	 ??3@YAXPAX@Z		; operator delete
  0001a	59		 pop	 ecx
$LN1@scalar@3:
  0001b	8b c6		 mov	 eax, esi
  0001d	5e		 pop	 esi
  0001e	5d		 pop	 ebp
  0001f	c2 04 00	 ret	 4
??_G?$pair@$$CBHV?$vector@VioHashString@@V?$allocator@VioHashString@@@std@@@std@@@std@@QAEPAXI@Z ENDP ; std::pair<int const ,std::vector<ioHashString,std::allocator<ioHashString> > >::`scalar deleting destructor'
_TEXT	ENDS
PUBLIC	??0?$_Pair_base@$$CBHV?$vector@VioHashString@@V?$allocator@VioHashString@@@std@@@std@@@std@@QAE@$$QBH$$QAV?$vector@VioHashString@@V?$allocator@VioHashString@@@std@@@1@@Z ; std::_Pair_base<int const ,std::vector<ioHashString,std::allocator<ioHashString> > >::_Pair_base<int const ,std::vector<ioHashString,std::allocator<ioHashString> > >
; Function compile flags: /Ogsp
; File c:\program files (x86)\microsoft visual studio 10.0\vc\include\utility
;	COMDAT ??0?$_Pair_base@$$CBHV?$vector@VioHashString@@V?$allocator@VioHashString@@@std@@@std@@@std@@QAE@$$QBH$$QAV?$vector@VioHashString@@V?$allocator@VioHashString@@@std@@@1@@Z
_TEXT	SEGMENT
__Val1$ = 8						; size = 4
__Val2$ = 12						; size = 4
??0?$_Pair_base@$$CBHV?$vector@VioHashString@@V?$allocator@VioHashString@@@std@@@std@@@std@@QAE@$$QBH$$QAV?$vector@VioHashString@@V?$allocator@VioHashString@@@std@@@1@@Z PROC ; std::_Pair_base<int const ,std::vector<ioHashString,std::allocator<ioHashString> > >::_Pair_base<int const ,std::vector<ioHashString,std::allocator<ioHashString> > >, COMDAT
; _this$ = ecx

; 145  : 		{	// construct from specified values

  00000	55		 push	 ebp
  00001	8b ec		 mov	 ebp, esp
  00003	8b 45 08	 mov	 eax, DWORD PTR __Val1$[ebp]
  00006	8b 00		 mov	 eax, DWORD PTR [eax]
  00008	56		 push	 esi
  00009	ff 75 0c	 push	 DWORD PTR __Val2$[ebp]
  0000c	8b f1		 mov	 esi, ecx
  0000e	89 06		 mov	 DWORD PTR [esi], eax
  00010	8d 4e 04	 lea	 ecx, DWORD PTR [esi+4]
  00013	33 c0		 xor	 eax, eax
  00015	89 01		 mov	 DWORD PTR [ecx], eax
  00017	89 41 04	 mov	 DWORD PTR [ecx+4], eax
  0001a	89 41 08	 mov	 DWORD PTR [ecx+8], eax
  0001d	e8 00 00 00 00	 call	 ?_Assign_rv@?$vector@VioHashString@@V?$allocator@VioHashString@@@std@@@std@@QAEX$$QAV12@@Z ; std::vector<ioHashString,std::allocator<ioHashString> >::_Assign_rv

; 146  : 		}

  00022	8b c6		 mov	 eax, esi
  00024	5e		 pop	 esi
  00025	5d		 pop	 ebp
  00026	c2 08 00	 ret	 8
??0?$_Pair_base@$$CBHV?$vector@VioHashString@@V?$allocator@VioHashString@@@std@@@std@@@std@@QAE@$$QBH$$QAV?$vector@VioHashString@@V?$allocator@VioHashString@@@std@@@1@@Z ENDP ; std::_Pair_base<int const ,std::vector<ioHashString,std::allocator<ioHashString> > >::_Pair_base<int const ,std::vector<ioHashString,std::allocator<ioHashString> > >
_TEXT	ENDS
PUBLIC	??0?$_Pair_base@$$CBHV?$vector@VioHashString@@V?$allocator@VioHashString@@@std@@@std@@@std@@QAE@ABH$$QAV?$vector@VioHashString@@V?$allocator@VioHashString@@@std@@@1@@Z ; std::_Pair_base<int const ,std::vector<ioHashString,std::allocator<ioHashString> > >::_Pair_base<int const ,std::vector<ioHashString,std::allocator<ioHashString> > >
; Function compile flags: /Ogsp
;	COMDAT ??0?$_Pair_base@$$CBHV?$vector@VioHashString@@V?$allocator@VioHashString@@@std@@@std@@@std@@QAE@ABH$$QAV?$vector@VioHashString@@V?$allocator@VioHashString@@@std@@@1@@Z
_TEXT	SEGMENT
__Val1$ = 8						; size = 4
__Val2$ = 12						; size = 4
??0?$_Pair_base@$$CBHV?$vector@VioHashString@@V?$allocator@VioHashString@@@std@@@std@@@std@@QAE@ABH$$QAV?$vector@VioHashString@@V?$allocator@VioHashString@@@std@@@1@@Z PROC ; std::_Pair_base<int const ,std::vector<ioHashString,std::allocator<ioHashString> > >::_Pair_base<int const ,std::vector<ioHashString,std::allocator<ioHashString> > >, COMDAT
; _this$ = ecx

; 150  : 		{	// construct from specified values

  00000	55		 push	 ebp
  00001	8b ec		 mov	 ebp, esp
  00003	8b 45 08	 mov	 eax, DWORD PTR __Val1$[ebp]
  00006	8b 00		 mov	 eax, DWORD PTR [eax]
  00008	56		 push	 esi
  00009	ff 75 0c	 push	 DWORD PTR __Val2$[ebp]
  0000c	8b f1		 mov	 esi, ecx
  0000e	89 06		 mov	 DWORD PTR [esi], eax
  00010	8d 4e 04	 lea	 ecx, DWORD PTR [esi+4]
  00013	33 c0		 xor	 eax, eax
  00015	89 01		 mov	 DWORD PTR [ecx], eax
  00017	89 41 04	 mov	 DWORD PTR [ecx+4], eax
  0001a	89 41 08	 mov	 DWORD PTR [ecx+8], eax
  0001d	e8 00 00 00 00	 call	 ?_Assign_rv@?$vector@VioHashString@@V?$allocator@VioHashString@@@std@@@std@@QAEX$$QAV12@@Z ; std::vector<ioHashString,std::allocator<ioHashString> >::_Assign_rv

; 151  : 		}

  00022	8b c6		 mov	 eax, esi
  00024	5e		 pop	 esi
  00025	5d		 pop	 ebp
  00026	c2 08 00	 ret	 8
??0?$_Pair_base@$$CBHV?$vector@VioHashString@@V?$allocator@VioHashString@@@std@@@std@@@std@@QAE@ABH$$QAV?$vector@VioHashString@@V?$allocator@VioHashString@@@std@@@1@@Z ENDP ; std::_Pair_base<int const ,std::vector<ioHashString,std::allocator<ioHashString> > >::_Pair_base<int const ,std::vector<ioHashString,std::allocator<ioHashString> > >
_TEXT	ENDS
PUBLIC	??$_Destroy@U?$pair@$$CBHV?$vector@VioHashString@@V?$allocator@VioHashString@@@std@@@std@@@std@@@std@@YAXPAU?$pair@$$CBHV?$vector@VioHashString@@V?$allocator@VioHashString@@@std@@@std@@@0@@Z ; std::_Destroy<std::pair<int const ,std::vector<ioHashString,std::allocator<ioHashString> > > >
; Function compile flags: /Ogsp
; File c:\program files (x86)\microsoft visual studio 10.0\vc\include\xmemory
;	COMDAT ??$_Destroy@U?$pair@$$CBHV?$vector@VioHashString@@V?$allocator@VioHashString@@@std@@@std@@@std@@@std@@YAXPAU?$pair@$$CBHV?$vector@VioHashString@@V?$allocator@VioHashString@@@std@@@std@@@0@@Z
_TEXT	SEGMENT
__Ptr$ = 8						; size = 4
??$_Destroy@U?$pair@$$CBHV?$vector@VioHashString@@V?$allocator@VioHashString@@@std@@@std@@@std@@@std@@YAXPAU?$pair@$$CBHV?$vector@VioHashString@@V?$allocator@VioHashString@@@std@@@std@@@0@@Z PROC ; std::_Destroy<std::pair<int const ,std::vector<ioHashString,std::allocator<ioHashString> > > >, COMDAT

; 62   : 	{	// destroy object at _Ptr

  00000	55		 push	 ebp
  00001	8b ec		 mov	 ebp, esp

; 63   : 	_Ptr->~_Ty();

  00003	8b 4d 08	 mov	 ecx, DWORD PTR __Ptr$[ebp]
  00006	83 c1 04	 add	 ecx, 4

; 64   : 	}

  00009	5d		 pop	 ebp

; 63   : 	_Ptr->~_Ty();

  0000a	e9 00 00 00 00	 jmp	 ?_Tidy@?$vector@VioHashString@@V?$allocator@VioHashString@@@std@@@std@@IAEXXZ ; std::vector<ioHashString,std::allocator<ioHashString> >::_Tidy
??$_Destroy@U?$pair@$$CBHV?$vector@VioHashString@@V?$allocator@VioHashString@@@std@@@std@@@std@@@std@@YAXPAU?$pair@$$CBHV?$vector@VioHashString@@V?$allocator@VioHashString@@@std@@@std@@@0@@Z ENDP ; std::_Destroy<std::pair<int const ,std::vector<ioHashString,std::allocator<ioHashString> > > >
_TEXT	ENDS
PUBLIC	??$?0$$CBHV?$vector@VioHashString@@V?$allocator@VioHashString@@@std@@@std@@@?$pair@$$CBHV?$vector@VioHashString@@V?$allocator@VioHashString@@@std@@@std@@@std@@QAE@$$QAU01@@Z ; std::pair<int const ,std::vector<ioHashString,std::allocator<ioHashString> > >::pair<int const ,std::vector<ioHashString,std::allocator<ioHashString> > ><int const ,std::vector<ioHashString,std::allocator<ioHashString> > >
; Function compile flags: /Ogsp
; File c:\program files (x86)\microsoft visual studio 10.0\vc\include\utility
;	COMDAT ??$?0$$CBHV?$vector@VioHashString@@V?$allocator@VioHashString@@@std@@@std@@@?$pair@$$CBHV?$vector@VioHashString@@V?$allocator@VioHashString@@@std@@@std@@@std@@QAE@$$QAU01@@Z
_TEXT	SEGMENT
__Right$ = 8						; size = 4
??$?0$$CBHV?$vector@VioHashString@@V?$allocator@VioHashString@@@std@@@std@@@?$pair@$$CBHV?$vector@VioHashString@@V?$allocator@VioHashString@@@std@@@std@@@std@@QAE@$$QAU01@@Z PROC ; std::pair<int const ,std::vector<ioHashString,std::allocator<ioHashString> > >::pair<int const ,std::vector<ioHashString,std::allocator<ioHashString> > ><int const ,std::vector<ioHashString,std::allocator<ioHashString> > >, COMDAT
; _this$ = ecx

; 255  : 		{	// construct from moved compatible pair

  00000	55		 push	 ebp
  00001	8b ec		 mov	 ebp, esp
  00003	8b 45 08	 mov	 eax, DWORD PTR __Right$[ebp]
  00006	56		 push	 esi
  00007	8b f1		 mov	 esi, ecx
  00009	8d 48 04	 lea	 ecx, DWORD PTR [eax+4]
  0000c	51		 push	 ecx
  0000d	50		 push	 eax
  0000e	8b ce		 mov	 ecx, esi
  00010	e8 00 00 00 00	 call	 ??0?$_Pair_base@$$CBHV?$vector@VioHashString@@V?$allocator@VioHashString@@@std@@@std@@@std@@QAE@$$QBH$$QAV?$vector@VioHashString@@V?$allocator@VioHashString@@@std@@@1@@Z ; std::_Pair_base<int const ,std::vector<ioHashString,std::allocator<ioHashString> > >::_Pair_base<int const ,std::vector<ioHashString,std::allocator<ioHashString> > >

; 256  : 		}

  00015	8b c6		 mov	 eax, esi
  00017	5e		 pop	 esi
  00018	5d		 pop	 ebp
  00019	c2 04 00	 ret	 4
??$?0$$CBHV?$vector@VioHashString@@V?$allocator@VioHashString@@@std@@@std@@@?$pair@$$CBHV?$vector@VioHashString@@V?$allocator@VioHashString@@@std@@@std@@@std@@QAE@$$QAU01@@Z ENDP ; std::pair<int const ,std::vector<ioHashString,std::allocator<ioHashString> > >::pair<int const ,std::vector<ioHashString,std::allocator<ioHashString> > ><int const ,std::vector<ioHashString,std::allocator<ioHashString> > >
_TEXT	ENDS
PUBLIC	??0?$pair@$$CBHV?$vector@VioHashString@@V?$allocator@VioHashString@@@std@@@std@@@std@@QAE@ABH$$QAV?$vector@VioHashString@@V?$allocator@VioHashString@@@std@@@1@@Z ; std::pair<int const ,std::vector<ioHashString,std::allocator<ioHashString> > >::pair<int const ,std::vector<ioHashString,std::allocator<ioHashString> > >
; Function compile flags: /Ogsp
;	COMDAT ??0?$pair@$$CBHV?$vector@VioHashString@@V?$allocator@VioHashString@@@std@@@std@@@std@@QAE@ABH$$QAV?$vector@VioHashString@@V?$allocator@VioHashString@@@std@@@1@@Z
_TEXT	SEGMENT
__Val1$ = 8						; size = 4
__Val2$ = 12						; size = 4
??0?$pair@$$CBHV?$vector@VioHashString@@V?$allocator@VioHashString@@@std@@@std@@@std@@QAE@ABH$$QAV?$vector@VioHashString@@V?$allocator@VioHashString@@@std@@@1@@Z PROC ; std::pair<int const ,std::vector<ioHashString,std::allocator<ioHashString> > >::pair<int const ,std::vector<ioHashString,std::allocator<ioHashString> > >, COMDAT
; _this$ = ecx

; 233  : 		{	// construct from specified values

  00000	55		 push	 ebp
  00001	8b ec		 mov	 ebp, esp
  00003	56		 push	 esi
  00004	ff 75 0c	 push	 DWORD PTR __Val2$[ebp]
  00007	8b f1		 mov	 esi, ecx
  00009	ff 75 08	 push	 DWORD PTR __Val1$[ebp]
  0000c	e8 00 00 00 00	 call	 ??0?$_Pair_base@$$CBHV?$vector@VioHashString@@V?$allocator@VioHashString@@@std@@@std@@@std@@QAE@ABH$$QAV?$vector@VioHashString@@V?$allocator@VioHashString@@@std@@@1@@Z ; std::_Pair_base<int const ,std::vector<ioHashString,std::allocator<ioHashString> > >::_Pair_base<int const ,std::vector<ioHashString,std::allocator<ioHashString> > >

; 234  : 		}

  00011	8b c6		 mov	 eax, esi
  00013	5e		 pop	 esi
  00014	5d		 pop	 ebp
  00015	c2 08 00	 ret	 8
??0?$pair@$$CBHV?$vector@VioHashString@@V?$allocator@VioHashString@@@std@@@std@@@std@@QAE@ABH$$QAV?$vector@VioHashString@@V?$allocator@VioHashString@@@std@@@1@@Z ENDP ; std::pair<int const ,std::vector<ioHashString,std::allocator<ioHashString> > >::pair<int const ,std::vector<ioHashString,std::allocator<ioHashString> > >
_TEXT	ENDS
PUBLIC	?destroy@?$allocator@U?$pair@$$CBHV?$vector@VioHashString@@V?$allocator@VioHashString@@@std@@@std@@@std@@@std@@QAEXPAU?$pair@$$CBHV?$vector@VioHashString@@V?$allocator@VioHashString@@@std@@@std@@@2@@Z ; std::allocator<std::pair<int const ,std::vector<ioHashString,std::allocator<ioHashString> > > >::destroy
; Function compile flags: /Ogsp
; File c:\program files (x86)\microsoft visual studio 10.0\vc\include\xmemory
;	COMDAT ?destroy@?$allocator@U?$pair@$$CBHV?$vector@VioHashString@@V?$allocator@VioHashString@@@std@@@std@@@std@@@std@@QAEXPAU?$pair@$$CBHV?$vector@VioHashString@@V?$allocator@VioHashString@@@std@@@std@@@2@@Z
_TEXT	SEGMENT
__Ptr$ = 8						; size = 4
?destroy@?$allocator@U?$pair@$$CBHV?$vector@VioHashString@@V?$allocator@VioHashString@@@std@@@std@@@std@@@std@@QAEXPAU?$pair@$$CBHV?$vector@VioHashString@@V?$allocator@VioHashString@@@std@@@std@@@2@@Z PROC ; std::allocator<std::pair<int const ,std::vector<ioHashString,std::allocator<ioHashString> > > >::destroy, COMDAT
; _this$ = ecx

; 212  : 		{	// destroy object at _Ptr

  00000	55		 push	 ebp
  00001	8b ec		 mov	 ebp, esp

; 213  : 		_Destroy(_Ptr);

  00003	8b 4d 08	 mov	 ecx, DWORD PTR __Ptr$[ebp]
  00006	83 c1 04	 add	 ecx, 4
  00009	e8 00 00 00 00	 call	 ?_Tidy@?$vector@VioHashString@@V?$allocator@VioHashString@@@std@@@std@@IAEXXZ ; std::vector<ioHashString,std::allocator<ioHashString> >::_Tidy

; 214  : 		}

  0000e	5d		 pop	 ebp
  0000f	c2 04 00	 ret	 4
?destroy@?$allocator@U?$pair@$$CBHV?$vector@VioHashString@@V?$allocator@VioHashString@@@std@@@std@@@std@@@std@@QAEXPAU?$pair@$$CBHV?$vector@VioHashString@@V?$allocator@VioHashString@@@std@@@std@@@2@@Z ENDP ; std::allocator<std::pair<int const ,std::vector<ioHashString,std::allocator<ioHashString> > > >::destroy
_TEXT	ENDS
PUBLIC	?construct@?$allocator@U?$pair@$$CBHV?$vector@VioHashString@@V?$allocator@VioHashString@@@std@@@std@@@std@@@std@@QAEXPAU?$pair@$$CBHV?$vector@VioHashString@@V?$allocator@VioHashString@@@std@@@std@@@2@$$QAU32@@Z ; std::allocator<std::pair<int const ,std::vector<ioHashString,std::allocator<ioHashString> > > >::construct
;	COMDAT xdata$x
; File c:\program files (x86)\microsoft visual studio 10.0\vc\include\utility
xdata$x	SEGMENT
__unwindtable$?construct@?$allocator@U?$pair@$$CBHV?$vector@VioHashString@@V?$allocator@VioHashString@@@std@@@std@@@std@@@std@@QAEXPAU?$pair@$$CBHV?$vector@VioHashString@@V?$allocator@VioHashString@@@std@@@std@@@2@$$QAU32@@Z DD 0ffffffffH
	DD	FLAT:__unwindfunclet$?construct@?$allocator@U?$pair@$$CBHV?$vector@VioHashString@@V?$allocator@VioHashString@@@std@@@std@@@std@@@std@@QAEXPAU?$pair@$$CBHV?$vector@VioHashString@@V?$allocator@VioHashString@@@std@@@std@@@2@$$QAU32@@Z$0
__ehfuncinfo$?construct@?$allocator@U?$pair@$$CBHV?$vector@VioHashString@@V?$allocator@VioHashString@@@std@@@std@@@std@@@std@@QAEXPAU?$pair@$$CBHV?$vector@VioHashString@@V?$allocator@VioHashString@@@std@@@std@@@2@$$QAU32@@Z DD 019930522H
	DD	01H
	DD	FLAT:__unwindtable$?construct@?$allocator@U?$pair@$$CBHV?$vector@VioHashString@@V?$allocator@VioHashString@@@std@@@std@@@std@@@std@@QAEXPAU?$pair@$$CBHV?$vector@VioHashString@@V?$allocator@VioHashString@@@std@@@std@@@2@$$QAU32@@Z
	DD	2 DUP(00H)
	DD	2 DUP(00H)
	DD	00H
	DD	01H
; Function compile flags: /Ogsp
; File c:\program files (x86)\microsoft visual studio 10.0\vc\include\xmemory
xdata$x	ENDS
;	COMDAT ?construct@?$allocator@U?$pair@$$CBHV?$vector@VioHashString@@V?$allocator@VioHashString@@@std@@@std@@@std@@@std@@QAEXPAU?$pair@$$CBHV?$vector@VioHashString@@V?$allocator@VioHashString@@@std@@@std@@@2@$$QAU32@@Z
_TEXT	SEGMENT
$T514759 = -16						; size = 4
__$EHRec$ = -12						; size = 12
__Ptr$ = 8						; size = 4
__Val$ = 12						; size = 4
?construct@?$allocator@U?$pair@$$CBHV?$vector@VioHashString@@V?$allocator@VioHashString@@@std@@@std@@@std@@@std@@QAEXPAU?$pair@$$CBHV?$vector@VioHashString@@V?$allocator@VioHashString@@@std@@@std@@@2@$$QAU32@@Z PROC ; std::allocator<std::pair<int const ,std::vector<ioHashString,std::allocator<ioHashString> > > >::construct, COMDAT
; _this$ = ecx

; 201  : 		{	// construct object at _Ptr with value _Val

  00000	6a 04		 push	 4
  00002	b8 00 00 00 00	 mov	 eax, __ehhandler$?construct@?$allocator@U?$pair@$$CBHV?$vector@VioHashString@@V?$allocator@VioHashString@@@std@@@std@@@std@@@std@@QAEXPAU?$pair@$$CBHV?$vector@VioHashString@@V?$allocator@VioHashString@@@std@@@std@@@2@$$QAU32@@Z
  00007	e8 00 00 00 00	 call	 __EH_prolog3

; 202  : 		::new ((void _FARQ *)_Ptr) _Ty(_STD forward<_Ty>(_Val));

  0000c	8b 4d 08	 mov	 ecx, DWORD PTR __Ptr$[ebp]
  0000f	89 4d f0	 mov	 DWORD PTR $T514759[ebp], ecx
  00012	83 65 fc 00	 and	 DWORD PTR __$EHRec$[ebp+8], 0
  00016	85 c9		 test	 ecx, ecx
  00018	74 0d		 je	 SHORT $LN3@construct@3
  0001a	8b 45 0c	 mov	 eax, DWORD PTR __Val$[ebp]
  0001d	8d 50 04	 lea	 edx, DWORD PTR [eax+4]
  00020	52		 push	 edx
  00021	50		 push	 eax
  00022	e8 00 00 00 00	 call	 ??0?$_Pair_base@$$CBHV?$vector@VioHashString@@V?$allocator@VioHashString@@@std@@@std@@@std@@QAE@$$QBH$$QAV?$vector@VioHashString@@V?$allocator@VioHashString@@@std@@@1@@Z ; std::_Pair_base<int const ,std::vector<ioHashString,std::allocator<ioHashString> > >::_Pair_base<int const ,std::vector<ioHashString,std::allocator<ioHashString> > >
$LN3@construct@3:

; 203  : 		}

  00027	e8 00 00 00 00	 call	 __EH_epilog3
  0002c	c2 08 00	 ret	 8
_TEXT	ENDS
;	COMDAT text$x
text$x	SEGMENT
__unwindfunclet$?construct@?$allocator@U?$pair@$$CBHV?$vector@VioHashString@@V?$allocator@VioHashString@@@std@@@std@@@std@@@std@@QAEXPAU?$pair@$$CBHV?$vector@VioHashString@@V?$allocator@VioHashString@@@std@@@std@@@2@$$QAU32@@Z$0:
  00000	ff 75 08	 push	 DWORD PTR __Ptr$[ebp]
  00003	ff 75 f0	 push	 DWORD PTR $T514759[ebp]
  00006	e8 00 00 00 00	 call	 ??3@YAXPAX0@Z		; operator delete
  0000b	59		 pop	 ecx
  0000c	59		 pop	 ecx
  0000d	c3		 ret	 0
__ehhandler$?construct@?$allocator@U?$pair@$$CBHV?$vector@VioHashString@@V?$allocator@VioHashString@@@std@@@std@@@std@@@std@@QAEXPAU?$pair@$$CBHV?$vector@VioHashString@@V?$allocator@VioHashString@@@std@@@std@@@2@$$QAU32@@Z:
  0000e	8b 54 24 08	 mov	 edx, DWORD PTR [esp+8]
  00012	8d 42 0c	 lea	 eax, DWORD PTR [edx+12]
  00015	8b 4a ec	 mov	 ecx, DWORD PTR [edx-20]
  00018	33 c8		 xor	 ecx, eax
  0001a	e8 00 00 00 00	 call	 @__security_check_cookie@4
  0001f	b8 00 00 00 00	 mov	 eax, OFFSET __ehfuncinfo$?construct@?$allocator@U?$pair@$$CBHV?$vector@VioHashString@@V?$allocator@VioHashString@@@std@@@std@@@std@@@std@@QAEXPAU?$pair@$$CBHV?$vector@VioHashString@@V?$allocator@VioHashString@@@std@@@std@@@2@$$QAU32@@Z
  00024	e9 00 00 00 00	 jmp	 ___CxxFrameHandler3
text$x	ENDS
?construct@?$allocator@U?$pair@$$CBHV?$vector@VioHashString@@V?$allocator@VioHashString@@@std@@@std@@@std@@@std@@QAEXPAU?$pair@$$CBHV?$vector@VioHashString@@V?$allocator@VioHashString@@@std@@@std@@@2@$$QAU32@@Z ENDP ; std::allocator<std::pair<int const ,std::vector<ioHashString,std::allocator<ioHashString> > > >::construct
PUBLIC	??$_Dest_val@V?$allocator@U?$pair@$$CBHV?$vector@VioHashString@@V?$allocator@VioHashString@@@std@@@std@@@std@@@std@@U?$pair@$$CBHV?$vector@VioHashString@@V?$allocator@VioHashString@@@std@@@std@@@2@@std@@YAXAAV?$allocator@U?$pair@$$CBHV?$vector@VioHashString@@V?$allocator@VioHashString@@@std@@@std@@@std@@@0@PAU?$pair@$$CBHV?$vector@VioHashString@@V?$allocator@VioHashString@@@std@@@std@@@0@@Z ; std::_Dest_val<std::allocator<std::pair<int const ,std::vector<ioHashString,std::allocator<ioHashString> > > >,std::pair<int const ,std::vector<ioHashString,std::allocator<ioHashString> > > >
; Function compile flags: /Ogsp
;	COMDAT ??$_Dest_val@V?$allocator@U?$pair@$$CBHV?$vector@VioHashString@@V?$allocator@VioHashString@@@std@@@std@@@std@@@std@@U?$pair@$$CBHV?$vector@VioHashString@@V?$allocator@VioHashString@@@std@@@std@@@2@@std@@YAXAAV?$allocator@U?$pair@$$CBHV?$vector@VioHashString@@V?$allocator@VioHashString@@@std@@@std@@@std@@@0@PAU?$pair@$$CBHV?$vector@VioHashString@@V?$allocator@VioHashString@@@std@@@std@@@0@@Z
_TEXT	SEGMENT
__Alval$ = 8						; size = 4
__Pdest$ = 12						; size = 4
??$_Dest_val@V?$allocator@U?$pair@$$CBHV?$vector@VioHashString@@V?$allocator@VioHashString@@@std@@@std@@@std@@@std@@U?$pair@$$CBHV?$vector@VioHashString@@V?$allocator@VioHashString@@@std@@@std@@@2@@std@@YAXAAV?$allocator@U?$pair@$$CBHV?$vector@VioHashString@@V?$allocator@VioHashString@@@std@@@std@@@std@@@0@PAU?$pair@$$CBHV?$vector@VioHashString@@V?$allocator@VioHashString@@@std@@@std@@@0@@Z PROC ; std::_Dest_val<std::allocator<std::pair<int const ,std::vector<ioHashString,std::allocator<ioHashString> > > >,std::pair<int const ,std::vector<ioHashString,std::allocator<ioHashString> > > >, COMDAT

; 286  : 	{	// destroy using allocator

  00000	55		 push	 ebp
  00001	8b ec		 mov	 ebp, esp

; 287  : 	_Alval.destroy(_Pdest);

  00003	8b 4d 0c	 mov	 ecx, DWORD PTR __Pdest$[ebp]
  00006	83 c1 04	 add	 ecx, 4

; 288  : 	}

  00009	5d		 pop	 ebp

; 287  : 	_Alval.destroy(_Pdest);

  0000a	e9 00 00 00 00	 jmp	 ?_Tidy@?$vector@VioHashString@@V?$allocator@VioHashString@@@std@@@std@@IAEXXZ ; std::vector<ioHashString,std::allocator<ioHashString> >::_Tidy
??$_Dest_val@V?$allocator@U?$pair@$$CBHV?$vector@VioHashString@@V?$allocator@VioHashString@@@std@@@std@@@std@@@std@@U?$pair@$$CBHV?$vector@VioHashString@@V?$allocator@VioHashString@@@std@@@std@@@2@@std@@YAXAAV?$allocator@U?$pair@$$CBHV?$vector@VioHashString@@V?$allocator@VioHashString@@@std@@@std@@@std@@@0@PAU?$pair@$$CBHV?$vector@VioHashString@@V?$allocator@VioHashString@@@std@@@std@@@0@@Z ENDP ; std::_Dest_val<std::allocator<std::pair<int const ,std::vector<ioHashString,std::allocator<ioHashString> > > >,std::pair<int const ,std::vector<ioHashString,std::allocator<ioHashString> > > >
_TEXT	ENDS
PUBLIC	??_C@_0BE@JONHPENG@map?1set?$DMT?$DO?5too?5long?$AA@ ; `string'
PUBLIC	?_Insert@?$_Tree@V?$_Tmap_traits@HV?$vector@VioHashString@@V?$allocator@VioHashString@@@std@@@std@@U?$less@H@2@V?$allocator@U?$pair@$$CBHV?$vector@VioHashString@@V?$allocator@VioHashString@@@std@@@std@@@std@@@2@$0A@@std@@@std@@IAE?AV?$_Tree_iterator@V?$_Tree_val@V?$_Tmap_traits@HV?$vector@VioHashString@@V?$allocator@VioHashString@@@std@@@std@@U?$less@H@2@V?$allocator@U?$pair@$$CBHV?$vector@VioHashString@@V?$allocator@VioHashString@@@std@@@std@@@std@@@2@$0A@@std@@@std@@@2@_NPAU_Node@?$_Tree_nod@V?$_Tmap_traits@HV?$vector@VioHashString@@V?$allocator@VioHashString@@@std@@@std@@U?$less@H@2@V?$allocator@U?$pair@$$CBHV?$vector@VioHashString@@V?$allocator@VioHashString@@@std@@@std@@@std@@@2@$0A@@std@@@2@1@Z ; std::_Tree<std::_Tmap_traits<int,std::vector<ioHashString,std::allocator<ioHashString> >,std::less<int>,std::allocator<std::pair<int const ,std::vector<ioHashString,std::allocator<ioHashString> > > >,0> >::_Insert
;	COMDAT ??_C@_0BE@JONHPENG@map?1set?$DMT?$DO?5too?5long?$AA@
; File c:\program files (x86)\microsoft visual studio 10.0\vc\include\xutility
CONST	SEGMENT
??_C@_0BE@JONHPENG@map?1set?$DMT?$DO?5too?5long?$AA@ DB 'map/set<T> too l'
	DB	'ong', 00H					; `string'
; Function compile flags: /Ogsp
; File c:\program files (x86)\microsoft visual studio 10.0\vc\include\xtree
CONST	ENDS
;	COMDAT ?_Insert@?$_Tree@V?$_Tmap_traits@HV?$vector@VioHashString@@V?$allocator@VioHashString@@@std@@@std@@U?$less@H@2@V?$allocator@U?$pair@$$CBHV?$vector@VioHashString@@V?$allocator@VioHashString@@@std@@@std@@@std@@@2@$0A@@std@@@std@@IAE?AV?$_Tree_iterator@V?$_Tree_val@V?$_Tmap_traits@HV?$vector@VioHashString@@V?$allocator@VioHashString@@@std@@@std@@U?$less@H@2@V?$allocator@U?$pair@$$CBHV?$vector@VioHashString@@V?$allocator@VioHashString@@@std@@@std@@@std@@@2@$0A@@std@@@std@@@2@_NPAU_Node@?$_Tree_nod@V?$_Tmap_traits@HV?$vector@VioHashString@@V?$allocator@VioHashString@@@std@@@std@@U?$less@H@2@V?$allocator@U?$pair@$$CBHV?$vector@VioHashString@@V?$allocator@VioHashString@@@std@@@std@@@std@@@2@$0A@@std@@@2@1@Z
_TEXT	SEGMENT
___$ReturnUdt$ = 8					; size = 4
__Addleft$ = 12						; size = 1
__Wherenode$ = 16					; size = 4
__Newnode$ = 20						; size = 4
?_Insert@?$_Tree@V?$_Tmap_traits@HV?$vector@VioHashString@@V?$allocator@VioHashString@@@std@@@std@@U?$less@H@2@V?$allocator@U?$pair@$$CBHV?$vector@VioHashString@@V?$allocator@VioHashString@@@std@@@std@@@std@@@2@$0A@@std@@@std@@IAE?AV?$_Tree_iterator@V?$_Tree_val@V?$_Tmap_traits@HV?$vector@VioHashString@@V?$allocator@VioHashString@@@std@@@std@@U?$less@H@2@V?$allocator@U?$pair@$$CBHV?$vector@VioHashString@@V?$allocator@VioHashString@@@std@@@std@@@std@@@2@$0A@@std@@@std@@@2@_NPAU_Node@?$_Tree_nod@V?$_Tmap_traits@HV?$vector@VioHashString@@V?$allocator@VioHashString@@@std@@@std@@U?$less@H@2@V?$allocator@U?$pair@$$CBHV?$vector@VioHashString@@V?$allocator@VioHashString@@@std@@@std@@@std@@@2@$0A@@std@@@2@1@Z PROC ; std::_Tree<std::_Tmap_traits<int,std::vector<ioHashString,std::allocator<ioHashString> >,std::less<int>,std::allocator<std::pair<int const ,std::vector<ioHashString,std::allocator<ioHashString> > > >,0> >::_Insert, COMDAT
; _this$ = ecx

; 1631 : 		{	// add node with value next to _Wherenode, to left if _Addleft

  00000	55		 push	 ebp
  00001	8b ec		 mov	 ebp, esp
  00003	53		 push	 ebx
  00004	56		 push	 esi
  00005	57		 push	 edi
  00006	8b f9		 mov	 edi, ecx

; 1632 : 		if (max_size() - 1 <= this->_Mysize)

  00008	8b 47 08	 mov	 eax, DWORD PTR [edi+8]
  0000b	3d cb cc cc 0c	 cmp	 eax, 214748363		; 0ccccccbH
  00010	72 1e		 jb	 SHORT $LN17@Insert

; 1633 : 			{	// tree would get too big, fail
; 1634 : 			_Dest_val(this->_Alval,
; 1635 : 				_STD addressof(this->_Myval(_Newnode)));

  00012	8b 75 14	 mov	 esi, DWORD PTR __Newnode$[ebp]
  00015	8d 4e 10	 lea	 ecx, DWORD PTR [esi+16]
  00018	e8 00 00 00 00	 call	 ?_Tidy@?$vector@VioHashString@@V?$allocator@VioHashString@@@std@@@std@@IAEXXZ ; std::vector<ioHashString,std::allocator<ioHashString> >::_Tidy

; 1636 : 
; 1637 : 			this->_Alnod.deallocate(_Newnode, 1);

  0001d	56		 push	 esi
  0001e	e8 00 00 00 00	 call	 ??3@YAXPAX@Z		; operator delete

; 1638 : 
; 1639 : 			_Xlength_error("map/set<T> too long");

  00023	c7 04 24 00 00
	00 00		 mov	 DWORD PTR [esp], OFFSET ??_C@_0BE@JONHPENG@map?1set?$DMT?$DO?5too?5long?$AA@
  0002a	ff 15 00 00 00
	00		 call	 DWORD PTR __imp_?_Xlength_error@std@@YAXPBD@Z
$LN201@Insert:
$LN17@Insert:

; 1640 : 			}
; 1641 : 		++this->_Mysize;
; 1642 : 		_Newnode->_Parent = _Wherenode;

  00030	8b 5d 14	 mov	 ebx, DWORD PTR __Newnode$[ebp]
  00033	40		 inc	 eax
  00034	89 47 08	 mov	 DWORD PTR [edi+8], eax
  00037	8b 45 10	 mov	 eax, DWORD PTR __Wherenode$[ebp]
  0003a	89 43 04	 mov	 DWORD PTR [ebx+4], eax

; 1643 : 
; 1644 : 		if (_Wherenode == this->_Myhead)

  0003d	8b 4f 04	 mov	 ecx, DWORD PTR [edi+4]
  00040	3b c1		 cmp	 eax, ecx
  00042	75 10		 jne	 SHORT $LN16@Insert

; 1645 : 			{	// first node in tree, just set head values
; 1646 : 			_Root() = _Newnode;

  00044	89 59 04	 mov	 DWORD PTR [ecx+4], ebx

; 1647 : 			_Lmost() = _Newnode;

  00047	8b 47 04	 mov	 eax, DWORD PTR [edi+4]
  0004a	89 18		 mov	 DWORD PTR [eax], ebx

; 1648 : 			_Rmost() = _Newnode;

  0004c	8b 47 04	 mov	 eax, DWORD PTR [edi+4]
  0004f	89 58 08	 mov	 DWORD PTR [eax+8], ebx
  00052	eb 21		 jmp	 SHORT $LN11@Insert
$LN16@Insert:

; 1649 : 			}
; 1650 : 		else if (_Addleft)

  00054	80 7d 0c 00	 cmp	 BYTE PTR __Addleft$[ebp], 0
  00058	74 0d		 je	 SHORT $LN14@Insert

; 1651 : 			{	// add to left of _Wherenode
; 1652 : 			this->_Left(_Wherenode) = _Newnode;

  0005a	89 18		 mov	 DWORD PTR [eax], ebx

; 1653 : 			if (_Wherenode == _Lmost())

  0005c	8b 4f 04	 mov	 ecx, DWORD PTR [edi+4]
  0005f	3b 01		 cmp	 eax, DWORD PTR [ecx]
  00061	75 12		 jne	 SHORT $LN11@Insert

; 1654 : 				_Lmost() = _Newnode;

  00063	89 19		 mov	 DWORD PTR [ecx], ebx

; 1655 : 			}
; 1656 : 		else

  00065	eb 0e		 jmp	 SHORT $LN11@Insert
$LN14@Insert:

; 1657 : 			{	// add to right of _Wherenode
; 1658 : 			this->_Right(_Wherenode) = _Newnode;

  00067	89 58 08	 mov	 DWORD PTR [eax+8], ebx

; 1659 : 			if (_Wherenode == _Rmost())

  0006a	8b 4f 04	 mov	 ecx, DWORD PTR [edi+4]
  0006d	3b 41 08	 cmp	 eax, DWORD PTR [ecx+8]
  00070	75 03		 jne	 SHORT $LN11@Insert

; 1660 : 				_Rmost() = _Newnode;

  00072	89 59 08	 mov	 DWORD PTR [ecx+8], ebx
$LN11@Insert:

; 1661 : 			}
; 1662 : 
; 1663 : 		for (_Nodeptr _Pnode = _Newnode;
; 1664 : 			this->_Color(this->_Parent(_Pnode)) == this->_Red; )

  00075	8b 43 04	 mov	 eax, DWORD PTR [ebx+4]
  00078	8b f3		 mov	 esi, ebx
  0007a	e9 93 00 00 00	 jmp	 $LN199@Insert
$LL10@Insert:

; 1665 : 			if (this->_Parent(_Pnode)
; 1666 : 				== this->_Left(this->_Parent(this->_Parent(_Pnode))))

  0007f	8b 46 04	 mov	 eax, DWORD PTR [esi+4]
  00082	8b 48 04	 mov	 ecx, DWORD PTR [eax+4]
  00085	3b 01		 cmp	 eax, DWORD PTR [ecx]
  00087	75 38		 jne	 SHORT $LN8@Insert

; 1667 : 				{	// fixup red-red in left subtree
; 1668 : 				_Wherenode =
; 1669 : 					this->_Right(this->_Parent(this->_Parent(_Pnode)));

  00089	8b 49 08	 mov	 ecx, DWORD PTR [ecx+8]

; 1670 : 				if (this->_Color(_Wherenode) == this->_Red)

  0008c	80 79 20 00	 cmp	 BYTE PTR [ecx+32], 0

; 1671 : 					{	// parent has two red children, blacken both
; 1672 : 					this->_Color(this->_Parent(_Pnode)) = this->_Black;
; 1673 : 					this->_Color(_Wherenode) = this->_Black;
; 1674 : 					this->_Color(this->_Parent(this->_Parent(_Pnode)))
; 1675 : 						= this->_Red;
; 1676 : 					_Pnode = this->_Parent(this->_Parent(_Pnode));
; 1677 : 					}
; 1678 : 				else

  00090	74 37		 je	 SHORT $LN200@Insert

; 1679 : 					{	// parent has red and black children
; 1680 : 					if (_Pnode == this->_Right(this->_Parent(_Pnode)))

  00092	3b 70 08	 cmp	 esi, DWORD PTR [eax+8]
  00095	75 0a		 jne	 SHORT $LN5@Insert

; 1681 : 						{	// rotate right child to left
; 1682 : 						_Pnode = this->_Parent(_Pnode);

  00097	8b f0		 mov	 esi, eax

; 1683 : 						_Lrotate(_Pnode);

  00099	56		 push	 esi
  0009a	8b cf		 mov	 ecx, edi
  0009c	e8 00 00 00 00	 call	 ?_Lrotate@?$_Tree@V?$_Tmap_traits@HV?$vector@VioHashString@@V?$allocator@VioHashString@@@std@@@std@@U?$less@H@2@V?$allocator@U?$pair@$$CBHV?$vector@VioHashString@@V?$allocator@VioHashString@@@std@@@std@@@std@@@2@$0A@@std@@@std@@IAEXPAU_Node@?$_Tree_nod@V?$_Tmap_traits@HV?$vector@VioHashString@@V?$allocator@VioHashString@@@std@@@std@@U?$less@H@2@V?$allocator@U?$pair@$$CBHV?$vector@VioHashString@@V?$allocator@VioHashString@@@std@@@std@@@std@@@2@$0A@@std@@@2@@Z ; std::_Tree<std::_Tmap_traits<int,std::vector<ioHashString,std::allocator<ioHashString> >,std::less<int>,std::allocator<std::pair<int const ,std::vector<ioHashString,std::allocator<ioHashString> > > >,0> >::_Lrotate
$LN5@Insert:

; 1684 : 						}
; 1685 : 					this->_Color(this->_Parent(_Pnode)) =
; 1686 : 						this->_Black;	// propagate red up

  000a1	8b 46 04	 mov	 eax, DWORD PTR [esi+4]
  000a4	c6 40 20 01	 mov	 BYTE PTR [eax+32], 1

; 1687 : 					this->_Color(this->_Parent(this->_Parent(_Pnode))) =
; 1688 : 						this->_Red;

  000a8	8b 46 04	 mov	 eax, DWORD PTR [esi+4]
  000ab	8b 40 04	 mov	 eax, DWORD PTR [eax+4]
  000ae	c6 40 20 00	 mov	 BYTE PTR [eax+32], 0

; 1689 : 					_Rrotate(this->_Parent(this->_Parent(_Pnode)));

  000b2	8b 46 04	 mov	 eax, DWORD PTR [esi+4]
  000b5	ff 70 04	 push	 DWORD PTR [eax+4]
  000b8	8b cf		 mov	 ecx, edi
  000ba	e8 00 00 00 00	 call	 ?_Rrotate@?$_Tree@V?$_Tmap_traits@HV?$vector@VioHashString@@V?$allocator@VioHashString@@@std@@@std@@U?$less@H@2@V?$allocator@U?$pair@$$CBHV?$vector@VioHashString@@V?$allocator@VioHashString@@@std@@@std@@@std@@@2@$0A@@std@@@std@@IAEXPAU_Node@?$_Tree_nod@V?$_Tmap_traits@HV?$vector@VioHashString@@V?$allocator@VioHashString@@@std@@@std@@U?$less@H@2@V?$allocator@U?$pair@$$CBHV?$vector@VioHashString@@V?$allocator@VioHashString@@@std@@@std@@@std@@@2@$0A@@std@@@2@@Z ; std::_Tree<std::_Tmap_traits<int,std::vector<ioHashString,std::allocator<ioHashString> >,std::less<int>,std::allocator<std::pair<int const ,std::vector<ioHashString,std::allocator<ioHashString> > > >,0> >::_Rrotate

; 1690 : 					}
; 1691 : 				}
; 1692 : 			else

  000bf	eb 4e		 jmp	 SHORT $LN2@Insert
$LN8@Insert:

; 1693 : 				{	// fixup red-red in right subtree
; 1694 : 				_Wherenode =
; 1695 : 					this->_Left(this->_Parent(this->_Parent(_Pnode)));

  000c1	8b 09		 mov	 ecx, DWORD PTR [ecx]

; 1696 : 				if (this->_Color(_Wherenode) == this->_Red)

  000c3	80 79 20 00	 cmp	 BYTE PTR [ecx+32], 0
  000c7	75 1a		 jne	 SHORT $LN3@Insert
$LN200@Insert:

; 1697 : 					{	// parent has two red children, blacken both
; 1698 : 					this->_Color(this->_Parent(_Pnode)) = this->_Black;

  000c9	c6 40 20 01	 mov	 BYTE PTR [eax+32], 1

; 1699 : 					this->_Color(_Wherenode) = this->_Black;

  000cd	c6 41 20 01	 mov	 BYTE PTR [ecx+32], 1

; 1700 : 					this->_Color(this->_Parent(this->_Parent(_Pnode))) =
; 1701 : 						this->_Red;

  000d1	8b 46 04	 mov	 eax, DWORD PTR [esi+4]
  000d4	8b 40 04	 mov	 eax, DWORD PTR [eax+4]
  000d7	c6 40 20 00	 mov	 BYTE PTR [eax+32], 0

; 1702 : 					_Pnode = this->_Parent(this->_Parent(_Pnode));

  000db	8b 46 04	 mov	 eax, DWORD PTR [esi+4]
  000de	8b 70 04	 mov	 esi, DWORD PTR [eax+4]

; 1703 : 					}
; 1704 : 				else

  000e1	eb 2c		 jmp	 SHORT $LN2@Insert
$LN3@Insert:

; 1705 : 					{	// parent has red and black children
; 1706 : 					if (_Pnode == this->_Left(this->_Parent(_Pnode)))

  000e3	3b 30		 cmp	 esi, DWORD PTR [eax]
  000e5	75 0a		 jne	 SHORT $LN1@Insert

; 1707 : 						{	// rotate left child to right
; 1708 : 						_Pnode = this->_Parent(_Pnode);

  000e7	8b f0		 mov	 esi, eax

; 1709 : 						_Rrotate(_Pnode);

  000e9	56		 push	 esi
  000ea	8b cf		 mov	 ecx, edi
  000ec	e8 00 00 00 00	 call	 ?_Rrotate@?$_Tree@V?$_Tmap_traits@HV?$vector@VioHashString@@V?$allocator@VioHashString@@@std@@@std@@U?$less@H@2@V?$allocator@U?$pair@$$CBHV?$vector@VioHashString@@V?$allocator@VioHashString@@@std@@@std@@@std@@@2@$0A@@std@@@std@@IAEXPAU_Node@?$_Tree_nod@V?$_Tmap_traits@HV?$vector@VioHashString@@V?$allocator@VioHashString@@@std@@@std@@U?$less@H@2@V?$allocator@U?$pair@$$CBHV?$vector@VioHashString@@V?$allocator@VioHashString@@@std@@@std@@@std@@@2@$0A@@std@@@2@@Z ; std::_Tree<std::_Tmap_traits<int,std::vector<ioHashString,std::allocator<ioHashString> >,std::less<int>,std::allocator<std::pair<int const ,std::vector<ioHashString,std::allocator<ioHashString> > > >,0> >::_Rrotate
$LN1@Insert:

; 1710 : 						}
; 1711 : 					this->_Color(this->_Parent(_Pnode)) =
; 1712 : 						this->_Black;	// propagate red up

  000f1	8b 46 04	 mov	 eax, DWORD PTR [esi+4]
  000f4	c6 40 20 01	 mov	 BYTE PTR [eax+32], 1

; 1713 : 					this->_Color(this->_Parent(this->_Parent(_Pnode))) =
; 1714 : 						this->_Red;

  000f8	8b 46 04	 mov	 eax, DWORD PTR [esi+4]
  000fb	8b 40 04	 mov	 eax, DWORD PTR [eax+4]
  000fe	c6 40 20 00	 mov	 BYTE PTR [eax+32], 0

; 1715 : 					_Lrotate(this->_Parent(this->_Parent(_Pnode)));

  00102	8b 46 04	 mov	 eax, DWORD PTR [esi+4]
  00105	ff 70 04	 push	 DWORD PTR [eax+4]
  00108	8b cf		 mov	 ecx, edi
  0010a	e8 00 00 00 00	 call	 ?_Lrotate@?$_Tree@V?$_Tmap_traits@HV?$vector@VioHashString@@V?$allocator@VioHashString@@@std@@@std@@U?$less@H@2@V?$allocator@U?$pair@$$CBHV?$vector@VioHashString@@V?$allocator@VioHashString@@@std@@@std@@@std@@@2@$0A@@std@@@std@@IAEXPAU_Node@?$_Tree_nod@V?$_Tmap_traits@HV?$vector@VioHashString@@V?$allocator@VioHashString@@@std@@@std@@U?$less@H@2@V?$allocator@U?$pair@$$CBHV?$vector@VioHashString@@V?$allocator@VioHashString@@@std@@@std@@@std@@@2@$0A@@std@@@2@@Z ; std::_Tree<std::_Tmap_traits<int,std::vector<ioHashString,std::allocator<ioHashString> >,std::less<int>,std::allocator<std::pair<int const ,std::vector<ioHashString,std::allocator<ioHashString> > > >,0> >::_Lrotate
$LN2@Insert:

; 1661 : 			}
; 1662 : 
; 1663 : 		for (_Nodeptr _Pnode = _Newnode;
; 1664 : 			this->_Color(this->_Parent(_Pnode)) == this->_Red; )

  0010f	8b 46 04	 mov	 eax, DWORD PTR [esi+4]
$LN199@Insert:
  00112	80 78 20 00	 cmp	 BYTE PTR [eax+32], 0
  00116	0f 84 63 ff ff
	ff		 je	 $LL10@Insert

; 1716 : 					}
; 1717 : 				}
; 1718 : 
; 1719 : 		this->_Color(_Root()) = this->_Black;	// root is always black

  0011c	8b 47 04	 mov	 eax, DWORD PTR [edi+4]
  0011f	8b 40 04	 mov	 eax, DWORD PTR [eax+4]
  00122	5f		 pop	 edi
  00123	c6 40 20 01	 mov	 BYTE PTR [eax+32], 1

; 1720 : 		return (iterator(_Newnode, this));

  00127	8b 45 08	 mov	 eax, DWORD PTR ___$ReturnUdt$[ebp]
  0012a	5e		 pop	 esi
  0012b	89 18		 mov	 DWORD PTR [eax], ebx
  0012d	5b		 pop	 ebx

; 1721 : 		}

  0012e	5d		 pop	 ebp
  0012f	c2 10 00	 ret	 16			; 00000010H
$LN198@Insert:
?_Insert@?$_Tree@V?$_Tmap_traits@HV?$vector@VioHashString@@V?$allocator@VioHashString@@@std@@@std@@U?$less@H@2@V?$allocator@U?$pair@$$CBHV?$vector@VioHashString@@V?$allocator@VioHashString@@@std@@@std@@@std@@@2@$0A@@std@@@std@@IAE?AV?$_Tree_iterator@V?$_Tree_val@V?$_Tmap_traits@HV?$vector@VioHashString@@V?$allocator@VioHashString@@@std@@@std@@U?$less@H@2@V?$allocator@U?$pair@$$CBHV?$vector@VioHashString@@V?$allocator@VioHashString@@@std@@@std@@@std@@@2@$0A@@std@@@std@@@2@_NPAU_Node@?$_Tree_nod@V?$_Tmap_traits@HV?$vector@VioHashString@@V?$allocator@VioHashString@@@std@@@std@@U?$less@H@2@V?$allocator@U?$pair@$$CBHV?$vector@VioHashString@@V?$allocator@VioHashString@@@std@@@std@@@std@@@2@$0A@@std@@@2@1@Z ENDP ; std::_Tree<std::_Tmap_traits<int,std::vector<ioHashString,std::allocator<ioHashString> >,std::less<int>,std::allocator<std::pair<int const ,std::vector<ioHashString,std::allocator<ioHashString> > > >,0> >::_Insert
_TEXT	ENDS
PUBLIC	??$_Cons_val@V?$allocator@U?$pair@$$CBHV?$vector@VioHashString@@V?$allocator@VioHashString@@@std@@@std@@@std@@@std@@U?$pair@$$CBHV?$vector@VioHashString@@V?$allocator@VioHashString@@@std@@@std@@@2@U32@@std@@YAXAAV?$allocator@U?$pair@$$CBHV?$vector@VioHashString@@V?$allocator@VioHashString@@@std@@@std@@@std@@@0@PAU?$pair@$$CBHV?$vector@VioHashString@@V?$allocator@VioHashString@@@std@@@std@@@0@$$QAU20@@Z ; std::_Cons_val<std::allocator<std::pair<int const ,std::vector<ioHashString,std::allocator<ioHashString> > > >,std::pair<int const ,std::vector<ioHashString,std::allocator<ioHashString> > >,std::pair<int const ,std::vector<ioHashString,std::allocator<ioHashString> > > >
; Function compile flags: /Ogsp
; File c:\program files (x86)\microsoft visual studio 10.0\vc\include\xmemory
;	COMDAT ??$_Cons_val@V?$allocator@U?$pair@$$CBHV?$vector@VioHashString@@V?$allocator@VioHashString@@@std@@@std@@@std@@@std@@U?$pair@$$CBHV?$vector@VioHashString@@V?$allocator@VioHashString@@@std@@@std@@@2@U32@@std@@YAXAAV?$allocator@U?$pair@$$CBHV?$vector@VioHashString@@V?$allocator@VioHashString@@@std@@@std@@@std@@@0@PAU?$pair@$$CBHV?$vector@VioHashString@@V?$allocator@VioHashString@@@std@@@std@@@0@$$QAU20@@Z
_TEXT	SEGMENT
__Alval$ = 8						; size = 4
__Pdest$ = 12						; size = 4
__Src$ = 16						; size = 4
??$_Cons_val@V?$allocator@U?$pair@$$CBHV?$vector@VioHashString@@V?$allocator@VioHashString@@@std@@@std@@@std@@@std@@U?$pair@$$CBHV?$vector@VioHashString@@V?$allocator@VioHashString@@@std@@@std@@@2@U32@@std@@YAXAAV?$allocator@U?$pair@$$CBHV?$vector@VioHashString@@V?$allocator@VioHashString@@@std@@@std@@@std@@@0@PAU?$pair@$$CBHV?$vector@VioHashString@@V?$allocator@VioHashString@@@std@@@std@@@0@$$QAU20@@Z PROC ; std::_Cons_val<std::allocator<std::pair<int const ,std::vector<ioHashString,std::allocator<ioHashString> > > >,std::pair<int const ,std::vector<ioHashString,std::allocator<ioHashString> > >,std::pair<int const ,std::vector<ioHashString,std::allocator<ioHashString> > > >, COMDAT

; 279  : 	{	// construct using allocator

  00000	55		 push	 ebp
  00001	8b ec		 mov	 ebp, esp

; 280  : 	_Alval.construct(_Pdest, _STD forward<_Ty2>(_Src));

  00003	ff 75 10	 push	 DWORD PTR __Src$[ebp]
  00006	8b 4d 08	 mov	 ecx, DWORD PTR __Alval$[ebp]
  00009	ff 75 0c	 push	 DWORD PTR __Pdest$[ebp]
  0000c	e8 00 00 00 00	 call	 ?construct@?$allocator@U?$pair@$$CBHV?$vector@VioHashString@@V?$allocator@VioHashString@@@std@@@std@@@std@@@std@@QAEXPAU?$pair@$$CBHV?$vector@VioHashString@@V?$allocator@VioHashString@@@std@@@std@@@2@$$QAU32@@Z ; std::allocator<std::pair<int const ,std::vector<ioHashString,std::allocator<ioHashString> > > >::construct

; 281  : 	}

  00011	5d		 pop	 ebp
  00012	c3		 ret	 0
??$_Cons_val@V?$allocator@U?$pair@$$CBHV?$vector@VioHashString@@V?$allocator@VioHashString@@@std@@@std@@@std@@@std@@U?$pair@$$CBHV?$vector@VioHashString@@V?$allocator@VioHashString@@@std@@@std@@@2@U32@@std@@YAXAAV?$allocator@U?$pair@$$CBHV?$vector@VioHashString@@V?$allocator@VioHashString@@@std@@@std@@@std@@@0@PAU?$pair@$$CBHV?$vector@VioHashString@@V?$allocator@VioHashString@@@std@@@std@@@0@$$QAU20@@Z ENDP ; std::_Cons_val<std::allocator<std::pair<int const ,std::vector<ioHashString,std::allocator<ioHashString> > > >,std::pair<int const ,std::vector<ioHashString,std::allocator<ioHashString> > >,std::pair<int const ,std::vector<ioHashString,std::allocator<ioHashString> > > >
_TEXT	ENDS
PUBLIC	??_C@_0BM@PAPJHAGI@invalid?5map?1set?$DMT?$DO?5iterator?$AA@ ; `string'
PUBLIC	?erase@?$_Tree@V?$_Tmap_traits@HV?$vector@VioHashString@@V?$allocator@VioHashString@@@std@@@std@@U?$less@H@2@V?$allocator@U?$pair@$$CBHV?$vector@VioHashString@@V?$allocator@VioHashString@@@std@@@std@@@std@@@2@$0A@@std@@@std@@QAE?AV?$_Tree_iterator@V?$_Tree_val@V?$_Tmap_traits@HV?$vector@VioHashString@@V?$allocator@VioHashString@@@std@@@std@@U?$less@H@2@V?$allocator@U?$pair@$$CBHV?$vector@VioHashString@@V?$allocator@VioHashString@@@std@@@std@@@std@@@2@$0A@@std@@@std@@@2@V?$_Tree_const_iterator@V?$_Tree_val@V?$_Tmap_traits@HV?$vector@VioHashString@@V?$allocator@VioHashString@@@std@@@std@@U?$less@H@2@V?$allocator@U?$pair@$$CBHV?$vector@VioHashString@@V?$allocator@VioHashString@@@std@@@std@@@std@@@2@$0A@@std@@@std@@@2@@Z ; std::_Tree<std::_Tmap_traits<int,std::vector<ioHashString,std::allocator<ioHashString> >,std::less<int>,std::allocator<std::pair<int const ,std::vector<ioHashString,std::allocator<ioHashString> > > >,0> >::erase
EXTRN	__imp_?_Xout_of_range@std@@YAXPBD@Z:PROC
;	COMDAT ??_C@_0BM@PAPJHAGI@invalid?5map?1set?$DMT?$DO?5iterator?$AA@
; File c:\program files (x86)\microsoft visual studio 10.0\vc\include\xutility
CONST	SEGMENT
??_C@_0BM@PAPJHAGI@invalid?5map?1set?$DMT?$DO?5iterator?$AA@ DB 'invalid '
	DB	'map/set<T> iterator', 00H			; `string'
; Function compile flags: /Ogsp
; File c:\program files (x86)\microsoft visual studio 10.0\vc\include\xtree
CONST	ENDS
;	COMDAT ?erase@?$_Tree@V?$_Tmap_traits@HV?$vector@VioHashString@@V?$allocator@VioHashString@@@std@@@std@@U?$less@H@2@V?$allocator@U?$pair@$$CBHV?$vector@VioHashString@@V?$allocator@VioHashString@@@std@@@std@@@std@@@2@$0A@@std@@@std@@QAE?AV?$_Tree_iterator@V?$_Tree_val@V?$_Tmap_traits@HV?$vector@VioHashString@@V?$allocator@VioHashString@@@std@@@std@@U?$less@H@2@V?$allocator@U?$pair@$$CBHV?$vector@VioHashString@@V?$allocator@VioHashString@@@std@@@std@@@std@@@2@$0A@@std@@@std@@@2@V?$_Tree_const_iterator@V?$_Tree_val@V?$_Tmap_traits@HV?$vector@VioHashString@@V?$allocator@VioHashString@@@std@@@std@@U?$less@H@2@V?$allocator@U?$pair@$$CBHV?$vector@VioHashString@@V?$allocator@VioHashString@@@std@@@std@@@std@@@2@$0A@@std@@@std@@@2@@Z
_TEXT	SEGMENT
_this$ = -4						; size = 4
___$ReturnUdt$ = 8					; size = 4
__Where$ = 12						; size = 4
?erase@?$_Tree@V?$_Tmap_traits@HV?$vector@VioHashString@@V?$allocator@VioHashString@@@std@@@std@@U?$less@H@2@V?$allocator@U?$pair@$$CBHV?$vector@VioHashString@@V?$allocator@VioHashString@@@std@@@std@@@std@@@2@$0A@@std@@@std@@QAE?AV?$_Tree_iterator@V?$_Tree_val@V?$_Tmap_traits@HV?$vector@VioHashString@@V?$allocator@VioHashString@@@std@@@std@@U?$less@H@2@V?$allocator@U?$pair@$$CBHV?$vector@VioHashString@@V?$allocator@VioHashString@@@std@@@std@@@std@@@2@$0A@@std@@@std@@@2@V?$_Tree_const_iterator@V?$_Tree_val@V?$_Tmap_traits@HV?$vector@VioHashString@@V?$allocator@VioHashString@@@std@@@std@@U?$less@H@2@V?$allocator@U?$pair@$$CBHV?$vector@VioHashString@@V?$allocator@VioHashString@@@std@@@std@@@std@@@2@$0A@@std@@@std@@@2@@Z PROC ; std::_Tree<std::_Tmap_traits<int,std::vector<ioHashString,std::allocator<ioHashString> >,std::less<int>,std::allocator<std::pair<int const ,std::vector<ioHashString,std::allocator<ioHashString> > > >,0> >::erase, COMDAT
; _this$ = ecx

; 1195 : 		{	// erase element at _Where

  00000	55		 push	 ebp
  00001	8b ec		 mov	 ebp, esp
  00003	51		 push	 ecx
  00004	53		 push	 ebx

; 1196 :  #if _ITERATOR_DEBUG_LEVEL == 2
; 1197 : 		if (_Where._Getcont() != this || this->_Isnil(_Where._Mynode()))
; 1198 : 			_DEBUG_ERROR("map/set erase iterator outside range");
; 1199 : 		_Nodeptr _Erasednode = _Where._Mynode();	// node to erase
; 1200 : 		++_Where;	// save successor iterator for return
; 1201 : 		_Orphan_ptr(*this, _Erasednode);
; 1202 : 
; 1203 :  #else /* _ITERATOR_DEBUG_LEVEL == 2 */
; 1204 : 		if (this->_Isnil(_Where._Mynode()))

  00005	8b 5d 0c	 mov	 ebx, DWORD PTR __Where$[ebp]
  00008	80 7b 21 00	 cmp	 BYTE PTR [ebx+33], 0
  0000c	56		 push	 esi
  0000d	57		 push	 edi
  0000e	89 4d fc	 mov	 DWORD PTR _this$[ebp], ecx
  00011	74 0b		 je	 SHORT $LN40@erase@2

; 1205 : 			_Xout_of_range("invalid map/set<T> iterator");

  00013	68 00 00 00 00	 push	 OFFSET ??_C@_0BM@PAPJHAGI@invalid?5map?1set?$DMT?$DO?5iterator?$AA@
  00018	ff 15 00 00 00
	00		 call	 DWORD PTR __imp_?_Xout_of_range@std@@YAXPBD@Z
$LN342@erase@2:
$LN40@erase@2:

; 1206 : 		_Nodeptr _Erasednode = _Where._Mynode();	// node to erase
; 1207 : 		++_Where;	// save successor iterator for return

  0001e	8d 4d 0c	 lea	 ecx, DWORD PTR __Where$[ebp]
  00021	e8 00 00 00 00	 call	 ??E?$_Tree_unchecked_const_iterator@V?$_Tree_val@V?$_Tmap_traits@HV?$vector@VioHashString@@V?$allocator@VioHashString@@@std@@@std@@U?$less@H@2@V?$allocator@U?$pair@$$CBHV?$vector@VioHashString@@V?$allocator@VioHashString@@@std@@@std@@@std@@@2@$0A@@std@@@std@@U_Iterator_base0@2@@std@@QAEAAV01@XZ ; std::_Tree_unchecked_const_iterator<std::_Tree_val<std::_Tmap_traits<int,std::vector<ioHashString,std::allocator<ioHashString> >,std::less<int>,std::allocator<std::pair<int const ,std::vector<ioHashString,std::allocator<ioHashString> > > >,0> >,std::_Iterator_base0>::operator++

; 1208 :  #endif /* _ITERATOR_DEBUG_LEVEL == 2 */
; 1209 : 
; 1210 : 		_Nodeptr _Fixnode;	// the node to recolor as needed
; 1211 : 		_Nodeptr _Fixnodeparent;	// parent of _Fixnode (which may be nil)
; 1212 : 		_Nodeptr _Pnode = _Erasednode;
; 1213 : 
; 1214 : 		if (this->_Isnil(this->_Left(_Pnode)))

  00026	8b 13		 mov	 edx, DWORD PTR [ebx]
  00028	80 7a 21 00	 cmp	 BYTE PTR [edx+33], 0
  0002c	74 05		 je	 SHORT $LN39@erase@2

; 1215 : 			_Fixnode = this->_Right(_Pnode);	// stitch up right subtree

  0002e	8b 7b 08	 mov	 edi, DWORD PTR [ebx+8]

; 1216 : 		else if (this->_Isnil(this->_Right(_Pnode)))

  00031	eb 17		 jmp	 SHORT $LN334@erase@2
$LN39@erase@2:
  00033	8b 43 08	 mov	 eax, DWORD PTR [ebx+8]
  00036	80 78 21 00	 cmp	 BYTE PTR [eax+33], 0
  0003a	74 04		 je	 SHORT $LN37@erase@2

; 1217 : 			_Fixnode = this->_Left(_Pnode);	// stitch up left subtree

  0003c	8b fa		 mov	 edi, edx

; 1218 : 		else

  0003e	eb 0a		 jmp	 SHORT $LN334@erase@2
$LN37@erase@2:

; 1219 : 			{	// two subtrees, must lift successor node to replace erased
; 1220 : 			_Pnode = _Where._Mynode();	// _Pnode is successor node

  00040	8b 45 0c	 mov	 eax, DWORD PTR __Where$[ebp]

; 1221 : 			_Fixnode = this->_Right(_Pnode);	// _Fixnode is only subtree

  00043	8b 78 08	 mov	 edi, DWORD PTR [eax+8]

; 1222 : 			}
; 1223 : 
; 1224 : 		if (_Pnode == _Erasednode)

  00046	3b c3		 cmp	 eax, ebx
  00048	75 76		 jne	 SHORT $LN35@erase@2
$LN334@erase@2:

; 1225 : 			{	// at most one subtree, relink it
; 1226 : 			_Fixnodeparent = this->_Parent(_Erasednode);
; 1227 : 			if (!this->_Isnil(_Fixnode))

  0004a	80 7f 21 00	 cmp	 BYTE PTR [edi+33], 0
  0004e	8b 73 04	 mov	 esi, DWORD PTR [ebx+4]
  00051	75 03		 jne	 SHORT $LN34@erase@2

; 1228 : 				this->_Parent(_Fixnode) = _Fixnodeparent;	// link up

  00053	89 77 04	 mov	 DWORD PTR [edi+4], esi
$LN34@erase@2:

; 1229 : 
; 1230 : 			if (_Root() == _Erasednode)

  00056	8b 4d fc	 mov	 ecx, DWORD PTR _this$[ebp]
  00059	8b 41 04	 mov	 eax, DWORD PTR [ecx+4]
  0005c	39 58 04	 cmp	 DWORD PTR [eax+4], ebx
  0005f	75 05		 jne	 SHORT $LN33@erase@2

; 1231 : 				_Root() = _Fixnode;	// link down from root

  00061	89 78 04	 mov	 DWORD PTR [eax+4], edi

; 1232 : 			else if (this->_Left(_Fixnodeparent) == _Erasednode)

  00064	eb 0b		 jmp	 SHORT $LN30@erase@2
$LN33@erase@2:
  00066	39 1e		 cmp	 DWORD PTR [esi], ebx
  00068	75 04		 jne	 SHORT $LN31@erase@2

; 1233 : 				this->_Left(_Fixnodeparent) = _Fixnode;	// link down to left

  0006a	89 3e		 mov	 DWORD PTR [esi], edi

; 1234 : 			else

  0006c	eb 03		 jmp	 SHORT $LN30@erase@2
$LN31@erase@2:

; 1235 : 				this->_Right(_Fixnodeparent) =
; 1236 : 					_Fixnode;	// link down to right

  0006e	89 7e 08	 mov	 DWORD PTR [esi+8], edi
$LN30@erase@2:

; 1237 : 
; 1238 : 			if (_Lmost() == _Erasednode)

  00071	8b 49 04	 mov	 ecx, DWORD PTR [ecx+4]
  00074	39 19		 cmp	 DWORD PTR [ecx], ebx
  00076	75 1c		 jne	 SHORT $LN29@erase@2

; 1239 : 				_Lmost() = this->_Isnil(_Fixnode)
; 1240 : 					? _Fixnodeparent	// smallest is parent of erased node
; 1241 : 					: this->_Min(_Fixnode);	// smallest in relinked subtree

  00078	80 7f 21 00	 cmp	 BYTE PTR [edi+33], 0
  0007c	74 04		 je	 SHORT $LN43@erase@2
  0007e	8b d6		 mov	 edx, esi
  00080	eb 10		 jmp	 SHORT $LN97@erase@2
$LN43@erase@2:
  00082	8b 07		 mov	 eax, DWORD PTR [edi]
  00084	8b d7		 mov	 edx, edi
  00086	eb 04		 jmp	 SHORT $LN336@erase@2
$LL98@erase@2:
  00088	8b d0		 mov	 edx, eax
  0008a	8b 02		 mov	 eax, DWORD PTR [edx]
$LN336@erase@2:
  0008c	80 78 21 00	 cmp	 BYTE PTR [eax+33], 0
  00090	74 f6		 je	 SHORT $LL98@erase@2
$LN97@erase@2:
  00092	89 11		 mov	 DWORD PTR [ecx], edx
$LN29@erase@2:

; 1242 : 
; 1243 : 			if (_Rmost() == _Erasednode)

  00094	8b 45 fc	 mov	 eax, DWORD PTR _this$[ebp]
  00097	8b 48 04	 mov	 ecx, DWORD PTR [eax+4]
  0009a	39 59 08	 cmp	 DWORD PTR [ecx+8], ebx
  0009d	75 7b		 jne	 SHORT $LN185@erase@2

; 1244 : 				_Rmost() = this->_Isnil(_Fixnode)
; 1245 : 					? _Fixnodeparent	// largest is parent of erased node
; 1246 : 					: this->_Max(_Fixnode);	// largest in relinked subtree

  0009f	80 7f 21 00	 cmp	 BYTE PTR [edi+33], 0
  000a3	74 04		 je	 SHORT $LN45@erase@2
  000a5	8b d6		 mov	 edx, esi
  000a7	eb 12		 jmp	 SHORT $LN117@erase@2
$LN45@erase@2:
  000a9	8b 47 08	 mov	 eax, DWORD PTR [edi+8]
  000ac	8b d7		 mov	 edx, edi
  000ae	eb 05		 jmp	 SHORT $LN337@erase@2
$LL118@erase@2:
  000b0	8b d0		 mov	 edx, eax
  000b2	8b 42 08	 mov	 eax, DWORD PTR [edx+8]
$LN337@erase@2:
  000b5	80 78 21 00	 cmp	 BYTE PTR [eax+33], 0
  000b9	74 f5		 je	 SHORT $LL118@erase@2
$LN117@erase@2:
  000bb	89 51 08	 mov	 DWORD PTR [ecx+8], edx

; 1247 : 			}
; 1248 : 		else

  000be	eb 5a		 jmp	 SHORT $LN185@erase@2
$LN35@erase@2:

; 1249 : 			{	// erased has two subtrees, _Pnode is successor to erased
; 1250 : 			this->_Parent(this->_Left(_Erasednode)) =
; 1251 : 				_Pnode;	// link left up

  000c0	89 42 04	 mov	 DWORD PTR [edx+4], eax

; 1252 : 			this->_Left(_Pnode) =
; 1253 : 				this->_Left(_Erasednode);	// link successor down

  000c3	8b 13		 mov	 edx, DWORD PTR [ebx]
  000c5	89 10		 mov	 DWORD PTR [eax], edx

; 1254 : 
; 1255 : 			if (_Pnode == this->_Right(_Erasednode))

  000c7	3b 43 08	 cmp	 eax, DWORD PTR [ebx+8]
  000ca	75 04		 jne	 SHORT $LN26@erase@2

; 1256 : 				_Fixnodeparent = _Pnode;	// successor is next to erased

  000cc	8b f0		 mov	 esi, eax

; 1257 : 			else

  000ce	eb 1a		 jmp	 SHORT $LN25@erase@2
$LN26@erase@2:

; 1258 : 				{	// successor further down, link in place of erased
; 1259 : 				_Fixnodeparent =
; 1260 : 					this->_Parent(_Pnode);	// parent is successor's
; 1261 : 				if (!this->_Isnil(_Fixnode))

  000d0	80 7f 21 00	 cmp	 BYTE PTR [edi+33], 0
  000d4	8b 70 04	 mov	 esi, DWORD PTR [eax+4]
  000d7	75 03		 jne	 SHORT $LN24@erase@2

; 1262 : 					this->_Parent(_Fixnode) = _Fixnodeparent;	// link fix up

  000d9	89 77 04	 mov	 DWORD PTR [edi+4], esi
$LN24@erase@2:

; 1263 : 				this->_Left(_Fixnodeparent) = _Fixnode;	// link fix down

  000dc	89 3e		 mov	 DWORD PTR [esi], edi

; 1264 : 				this->_Right(_Pnode) =
; 1265 : 					this->_Right(_Erasednode);	// link next down

  000de	8b 53 08	 mov	 edx, DWORD PTR [ebx+8]
  000e1	89 50 08	 mov	 DWORD PTR [eax+8], edx

; 1266 : 				this->_Parent(this->_Right(_Erasednode)) =
; 1267 : 					_Pnode;	// right up

  000e4	8b 4b 08	 mov	 ecx, DWORD PTR [ebx+8]
  000e7	89 41 04	 mov	 DWORD PTR [ecx+4], eax
$LN25@erase@2:

; 1268 : 				}
; 1269 : 
; 1270 : 			if (_Root() == _Erasednode)

  000ea	8b 4d fc	 mov	 ecx, DWORD PTR _this$[ebp]
  000ed	8b 49 04	 mov	 ecx, DWORD PTR [ecx+4]
  000f0	39 59 04	 cmp	 DWORD PTR [ecx+4], ebx
  000f3	75 05		 jne	 SHORT $LN23@erase@2

; 1271 : 				_Root() = _Pnode;	// link down from root

  000f5	89 41 04	 mov	 DWORD PTR [ecx+4], eax

; 1272 : 			else if (this->_Left(this->_Parent(_Erasednode)) == _Erasednode)

  000f8	eb 0e		 jmp	 SHORT $LN20@erase@2
$LN23@erase@2:
  000fa	8b 4b 04	 mov	 ecx, DWORD PTR [ebx+4]
  000fd	39 19		 cmp	 DWORD PTR [ecx], ebx
  000ff	75 04		 jne	 SHORT $LN21@erase@2

; 1273 : 				this->_Left(this->_Parent(_Erasednode)) =
; 1274 : 					_Pnode;	// link down to left

  00101	89 01		 mov	 DWORD PTR [ecx], eax

; 1275 : 			else

  00103	eb 03		 jmp	 SHORT $LN20@erase@2
$LN21@erase@2:

; 1276 : 				this->_Right(this->_Parent(_Erasednode)) =
; 1277 : 					_Pnode;	// link down to right

  00105	89 41 08	 mov	 DWORD PTR [ecx+8], eax
$LN20@erase@2:

; 1278 : 
; 1279 : 			this->_Parent(_Pnode) =
; 1280 : 				this->_Parent(_Erasednode);	// link successor up

  00108	8b 4b 04	 mov	 ecx, DWORD PTR [ebx+4]
  0010b	89 48 04	 mov	 DWORD PTR [eax+4], ecx

; 1281 : 			_STD swap(this->_Color(_Pnode),
; 1282 : 				this->_Color(_Erasednode));	// recolor it

  0010e	8a 53 20	 mov	 dl, BYTE PTR [ebx+32]
  00111	8a 48 20	 mov	 cl, BYTE PTR [eax+32]
  00114	88 50 20	 mov	 BYTE PTR [eax+32], dl
  00117	88 4b 20	 mov	 BYTE PTR [ebx+32], cl
$LN185@erase@2:

; 1283 : 			}
; 1284 : 
; 1285 : 		if (this->_Color(_Erasednode) == this->_Black)

  0011a	80 7b 20 01	 cmp	 BYTE PTR [ebx+32], 1
  0011e	0f 85 03 01 00
	00		 jne	 $LN19@erase@2

; 1286 : 			{	// erasing black link, must recolor/rebalance tree
; 1287 : 			for (; _Fixnode != _Root()
; 1288 : 				&& this->_Color(_Fixnode) == this->_Black;
; 1289 : 				_Fixnodeparent = this->_Parent(_Fixnode))

  00124	e9 b2 00 00 00	 jmp	 $LN339@erase@2
$LL18@erase@2:
  00129	80 7f 20 01	 cmp	 BYTE PTR [edi+32], 1
  0012d	0f 85 f0 00 00
	00		 jne	 $LN16@erase@2

; 1290 : 				if (_Fixnode == this->_Left(_Fixnodeparent))

  00133	8b 06		 mov	 eax, DWORD PTR [esi]
  00135	3b f8		 cmp	 edi, eax
  00137	75 6c		 jne	 SHORT $LN15@erase@2

; 1291 : 					{	// fixup left subtree
; 1292 : 					_Pnode = this->_Right(_Fixnodeparent);

  00139	8b 46 08	 mov	 eax, DWORD PTR [esi+8]

; 1293 : 					if (this->_Color(_Pnode) == this->_Red)

  0013c	80 78 20 00	 cmp	 BYTE PTR [eax+32], 0
  00140	75 11		 jne	 SHORT $LN14@erase@2

; 1294 : 						{	// rotate red up from right subtree
; 1295 : 						this->_Color(_Pnode) = this->_Black;

  00142	c6 40 20 01	 mov	 BYTE PTR [eax+32], 1

; 1296 : 						this->_Color(_Fixnodeparent) = this->_Red;
; 1297 : 						_Lrotate(_Fixnodeparent);

  00146	56		 push	 esi
  00147	c6 46 20 00	 mov	 BYTE PTR [esi+32], 0
  0014b	e8 00 00 00 00	 call	 ?_Lrotate@?$_Tree@V?$_Tmap_traits@HV?$vector@VioHashString@@V?$allocator@VioHashString@@@std@@@std@@U?$less@H@2@V?$allocator@U?$pair@$$CBHV?$vector@VioHashString@@V?$allocator@VioHashString@@@std@@@std@@@std@@@2@$0A@@std@@@std@@IAEXPAU_Node@?$_Tree_nod@V?$_Tmap_traits@HV?$vector@VioHashString@@V?$allocator@VioHashString@@@std@@@std@@U?$less@H@2@V?$allocator@U?$pair@$$CBHV?$vector@VioHashString@@V?$allocator@VioHashString@@@std@@@std@@@std@@@2@$0A@@std@@@2@@Z ; std::_Tree<std::_Tmap_traits<int,std::vector<ioHashString,std::allocator<ioHashString> >,std::less<int>,std::allocator<std::pair<int const ,std::vector<ioHashString,std::allocator<ioHashString> > > >,0> >::_Lrotate

; 1298 : 						_Pnode = this->_Right(_Fixnodeparent);

  00150	8b 46 08	 mov	 eax, DWORD PTR [esi+8]
$LN14@erase@2:

; 1299 : 						}
; 1300 : 
; 1301 : 					if (this->_Isnil(_Pnode))

  00153	80 78 21 00	 cmp	 BYTE PTR [eax+33], 0

; 1302 : 						_Fixnode = _Fixnodeparent;	// shouldn't happen
; 1303 : 					else if (this->_Color(this->_Left(_Pnode)) == this->_Black

  00157	75 7d		 jne	 SHORT $LN340@erase@2

; 1304 : 						&& this->_Color(this->_Right(_Pnode)) == this->_Black)

  00159	8b 08		 mov	 ecx, DWORD PTR [eax]
  0015b	80 79 20 01	 cmp	 BYTE PTR [ecx+32], 1
  0015f	75 09		 jne	 SHORT $LN11@erase@2
  00161	8b 48 08	 mov	 ecx, DWORD PTR [eax+8]
  00164	80 79 20 01	 cmp	 BYTE PTR [ecx+32], 1
  00168	74 68		 je	 SHORT $LN341@erase@2
$LN11@erase@2:

; 1305 : 						{	// redden right subtree with black children
; 1306 : 						this->_Color(_Pnode) = this->_Red;
; 1307 : 						_Fixnode = _Fixnodeparent;
; 1308 : 						}
; 1309 : 					else
; 1310 : 						{	// must rearrange right subtree
; 1311 : 						if (this->_Color(this->_Right(_Pnode))
; 1312 : 							== this->_Black)

  0016a	8b 48 08	 mov	 ecx, DWORD PTR [eax+8]
  0016d	80 79 20 01	 cmp	 BYTE PTR [ecx+32], 1
  00171	75 16		 jne	 SHORT $LN9@erase@2

; 1313 : 							{	// rotate red up from left sub-subtree
; 1314 : 							this->_Color(this->_Left(_Pnode)) = this->_Black;

  00173	8b 08		 mov	 ecx, DWORD PTR [eax]
  00175	c6 41 20 01	 mov	 BYTE PTR [ecx+32], 1

; 1315 : 							this->_Color(_Pnode) = this->_Red;
; 1316 : 							_Rrotate(_Pnode);

  00179	8b 4d fc	 mov	 ecx, DWORD PTR _this$[ebp]
  0017c	50		 push	 eax
  0017d	c6 40 20 00	 mov	 BYTE PTR [eax+32], 0
  00181	e8 00 00 00 00	 call	 ?_Rrotate@?$_Tree@V?$_Tmap_traits@HV?$vector@VioHashString@@V?$allocator@VioHashString@@@std@@@std@@U?$less@H@2@V?$allocator@U?$pair@$$CBHV?$vector@VioHashString@@V?$allocator@VioHashString@@@std@@@std@@@std@@@2@$0A@@std@@@std@@IAEXPAU_Node@?$_Tree_nod@V?$_Tmap_traits@HV?$vector@VioHashString@@V?$allocator@VioHashString@@@std@@@std@@U?$less@H@2@V?$allocator@U?$pair@$$CBHV?$vector@VioHashString@@V?$allocator@VioHashString@@@std@@@std@@@std@@@2@$0A@@std@@@2@@Z ; std::_Tree<std::_Tmap_traits<int,std::vector<ioHashString,std::allocator<ioHashString> >,std::less<int>,std::allocator<std::pair<int const ,std::vector<ioHashString,std::allocator<ioHashString> > > >,0> >::_Rrotate

; 1317 : 							_Pnode = this->_Right(_Fixnodeparent);

  00186	8b 46 08	 mov	 eax, DWORD PTR [esi+8]
$LN9@erase@2:

; 1318 : 							}
; 1319 : 
; 1320 : 						this->_Color(_Pnode) = this->_Color(_Fixnodeparent);

  00189	8a 4e 20	 mov	 cl, BYTE PTR [esi+32]
  0018c	88 48 20	 mov	 BYTE PTR [eax+32], cl

; 1321 : 						this->_Color(_Fixnodeparent) = this->_Black;
; 1322 : 						this->_Color(this->_Right(_Pnode)) = this->_Black;
; 1323 : 						_Lrotate(_Fixnodeparent);

  0018f	8b 4d fc	 mov	 ecx, DWORD PTR _this$[ebp]
  00192	c6 46 20 01	 mov	 BYTE PTR [esi+32], 1
  00196	8b 40 08	 mov	 eax, DWORD PTR [eax+8]
  00199	56		 push	 esi
  0019a	c6 40 20 01	 mov	 BYTE PTR [eax+32], 1
  0019e	e8 00 00 00 00	 call	 ?_Lrotate@?$_Tree@V?$_Tmap_traits@HV?$vector@VioHashString@@V?$allocator@VioHashString@@@std@@@std@@U?$less@H@2@V?$allocator@U?$pair@$$CBHV?$vector@VioHashString@@V?$allocator@VioHashString@@@std@@@std@@@std@@@2@$0A@@std@@@std@@IAEXPAU_Node@?$_Tree_nod@V?$_Tmap_traits@HV?$vector@VioHashString@@V?$allocator@VioHashString@@@std@@@std@@U?$less@H@2@V?$allocator@U?$pair@$$CBHV?$vector@VioHashString@@V?$allocator@VioHashString@@@std@@@std@@@std@@@2@$0A@@std@@@2@@Z ; std::_Tree<std::_Tmap_traits<int,std::vector<ioHashString,std::allocator<ioHashString> >,std::less<int>,std::allocator<std::pair<int const ,std::vector<ioHashString,std::allocator<ioHashString> > > >,0> >::_Lrotate

; 1324 : 						break;	// tree now recolored/rebalanced

  001a3	eb 7e		 jmp	 SHORT $LN16@erase@2
$LN15@erase@2:

; 1325 : 						}
; 1326 : 					}
; 1327 : 				else
; 1328 : 					{	// fixup right subtree
; 1329 : 					_Pnode = this->_Left(_Fixnodeparent);
; 1330 : 					if (this->_Color(_Pnode) == this->_Red)

  001a5	80 78 20 00	 cmp	 BYTE PTR [eax+32], 0
  001a9	75 10		 jne	 SHORT $LN7@erase@2

; 1331 : 						{	// rotate red up from left subtree
; 1332 : 						this->_Color(_Pnode) = this->_Black;

  001ab	c6 40 20 01	 mov	 BYTE PTR [eax+32], 1

; 1333 : 						this->_Color(_Fixnodeparent) = this->_Red;
; 1334 : 						_Rrotate(_Fixnodeparent);

  001af	56		 push	 esi
  001b0	c6 46 20 00	 mov	 BYTE PTR [esi+32], 0
  001b4	e8 00 00 00 00	 call	 ?_Rrotate@?$_Tree@V?$_Tmap_traits@HV?$vector@VioHashString@@V?$allocator@VioHashString@@@std@@@std@@U?$less@H@2@V?$allocator@U?$pair@$$CBHV?$vector@VioHashString@@V?$allocator@VioHashString@@@std@@@std@@@std@@@2@$0A@@std@@@std@@IAEXPAU_Node@?$_Tree_nod@V?$_Tmap_traits@HV?$vector@VioHashString@@V?$allocator@VioHashString@@@std@@@std@@U?$less@H@2@V?$allocator@U?$pair@$$CBHV?$vector@VioHashString@@V?$allocator@VioHashString@@@std@@@std@@@std@@@2@$0A@@std@@@2@@Z ; std::_Tree<std::_Tmap_traits<int,std::vector<ioHashString,std::allocator<ioHashString> >,std::less<int>,std::allocator<std::pair<int const ,std::vector<ioHashString,std::allocator<ioHashString> > > >,0> >::_Rrotate

; 1335 : 						_Pnode = this->_Left(_Fixnodeparent);

  001b9	8b 06		 mov	 eax, DWORD PTR [esi]
$LN7@erase@2:

; 1336 : 						}
; 1337 : 					if (this->_Isnil(_Pnode))

  001bb	80 78 21 00	 cmp	 BYTE PTR [eax+33], 0

; 1338 : 						_Fixnode = _Fixnodeparent;	// shouldn't happen
; 1339 : 					else if (this->_Color(this->_Right(_Pnode)) ==

  001bf	75 15		 jne	 SHORT $LN340@erase@2

; 1340 : 						this->_Black
; 1341 : 						&& this->_Color(this->_Left(_Pnode)) == this->_Black)

  001c1	8b 48 08	 mov	 ecx, DWORD PTR [eax+8]
  001c4	80 79 20 01	 cmp	 BYTE PTR [ecx+32], 1
  001c8	75 22		 jne	 SHORT $LN4@erase@2
  001ca	8b 08		 mov	 ecx, DWORD PTR [eax]
  001cc	80 79 20 01	 cmp	 BYTE PTR [ecx+32], 1
  001d0	75 1a		 jne	 SHORT $LN4@erase@2
$LN341@erase@2:

; 1342 : 						{	// redden left subtree with black children
; 1343 : 						this->_Color(_Pnode) = this->_Red;

  001d2	c6 40 20 00	 mov	 BYTE PTR [eax+32], 0
$LN340@erase@2:

; 1344 : 						_Fixnode = _Fixnodeparent;

  001d6	8b fe		 mov	 edi, esi
  001d8	8b 76 04	 mov	 esi, DWORD PTR [esi+4]
$LN339@erase@2:

; 1286 : 			{	// erasing black link, must recolor/rebalance tree
; 1287 : 			for (; _Fixnode != _Root()
; 1288 : 				&& this->_Color(_Fixnode) == this->_Black;
; 1289 : 				_Fixnodeparent = this->_Parent(_Fixnode))

  001db	8b 4d fc	 mov	 ecx, DWORD PTR _this$[ebp]
  001de	8b 41 04	 mov	 eax, DWORD PTR [ecx+4]
  001e1	3b 78 04	 cmp	 edi, DWORD PTR [eax+4]
  001e4	0f 85 3f ff ff
	ff		 jne	 $LL18@erase@2
  001ea	eb 37		 jmp	 SHORT $LN16@erase@2
$LN4@erase@2:

; 1345 : 						}
; 1346 : 					else
; 1347 : 						{	// must rearrange left subtree
; 1348 : 						if (this->_Color(this->_Left(_Pnode)) == this->_Black)

  001ec	8b 08		 mov	 ecx, DWORD PTR [eax]
  001ee	80 79 20 01	 cmp	 BYTE PTR [ecx+32], 1
  001f2	75 16		 jne	 SHORT $LN2@erase@2

; 1349 : 							{	// rotate red up from right sub-subtree
; 1350 : 							this->_Color(this->_Right(_Pnode)) = this->_Black;

  001f4	8b 48 08	 mov	 ecx, DWORD PTR [eax+8]
  001f7	c6 41 20 01	 mov	 BYTE PTR [ecx+32], 1

; 1351 : 							this->_Color(_Pnode) = this->_Red;
; 1352 : 							_Lrotate(_Pnode);

  001fb	8b 4d fc	 mov	 ecx, DWORD PTR _this$[ebp]
  001fe	50		 push	 eax
  001ff	c6 40 20 00	 mov	 BYTE PTR [eax+32], 0
  00203	e8 00 00 00 00	 call	 ?_Lrotate@?$_Tree@V?$_Tmap_traits@HV?$vector@VioHashString@@V?$allocator@VioHashString@@@std@@@std@@U?$less@H@2@V?$allocator@U?$pair@$$CBHV?$vector@VioHashString@@V?$allocator@VioHashString@@@std@@@std@@@std@@@2@$0A@@std@@@std@@IAEXPAU_Node@?$_Tree_nod@V?$_Tmap_traits@HV?$vector@VioHashString@@V?$allocator@VioHashString@@@std@@@std@@U?$less@H@2@V?$allocator@U?$pair@$$CBHV?$vector@VioHashString@@V?$allocator@VioHashString@@@std@@@std@@@std@@@2@$0A@@std@@@2@@Z ; std::_Tree<std::_Tmap_traits<int,std::vector<ioHashString,std::allocator<ioHashString> >,std::less<int>,std::allocator<std::pair<int const ,std::vector<ioHashString,std::allocator<ioHashString> > > >,0> >::_Lrotate

; 1353 : 							_Pnode = this->_Left(_Fixnodeparent);

  00208	8b 06		 mov	 eax, DWORD PTR [esi]
$LN2@erase@2:

; 1354 : 							}
; 1355 : 
; 1356 : 						this->_Color(_Pnode) = this->_Color(_Fixnodeparent);

  0020a	8a 4e 20	 mov	 cl, BYTE PTR [esi+32]
  0020d	88 48 20	 mov	 BYTE PTR [eax+32], cl

; 1357 : 						this->_Color(_Fixnodeparent) = this->_Black;
; 1358 : 						this->_Color(this->_Left(_Pnode)) = this->_Black;
; 1359 : 						_Rrotate(_Fixnodeparent);

  00210	8b 4d fc	 mov	 ecx, DWORD PTR _this$[ebp]
  00213	c6 46 20 01	 mov	 BYTE PTR [esi+32], 1
  00217	8b 00		 mov	 eax, DWORD PTR [eax]
  00219	56		 push	 esi
  0021a	c6 40 20 01	 mov	 BYTE PTR [eax+32], 1
  0021e	e8 00 00 00 00	 call	 ?_Rrotate@?$_Tree@V?$_Tmap_traits@HV?$vector@VioHashString@@V?$allocator@VioHashString@@@std@@@std@@U?$less@H@2@V?$allocator@U?$pair@$$CBHV?$vector@VioHashString@@V?$allocator@VioHashString@@@std@@@std@@@std@@@2@$0A@@std@@@std@@IAEXPAU_Node@?$_Tree_nod@V?$_Tmap_traits@HV?$vector@VioHashString@@V?$allocator@VioHashString@@@std@@@std@@U?$less@H@2@V?$allocator@U?$pair@$$CBHV?$vector@VioHashString@@V?$allocator@VioHashString@@@std@@@std@@@std@@@2@$0A@@std@@@2@@Z ; std::_Tree<std::_Tmap_traits<int,std::vector<ioHashString,std::allocator<ioHashString> >,std::less<int>,std::allocator<std::pair<int const ,std::vector<ioHashString,std::allocator<ioHashString> > > >,0> >::_Rrotate
$LN16@erase@2:

; 1360 : 						break;	// tree now recolored/rebalanced
; 1361 : 						}
; 1362 : 					}
; 1363 : 
; 1364 : 			this->_Color(_Fixnode) = this->_Black;	// stopping node is black

  00223	c6 47 20 01	 mov	 BYTE PTR [edi+32], 1
$LN19@erase@2:

; 1365 : 			}
; 1366 : 
; 1367 : 		_Dest_val(this->_Alval,
; 1368 : 			_STD addressof(this->_Myval(_Erasednode)));	// delete erased node

  00227	8d 4b 10	 lea	 ecx, DWORD PTR [ebx+16]
  0022a	e8 00 00 00 00	 call	 ?_Tidy@?$vector@VioHashString@@V?$allocator@VioHashString@@@std@@@std@@IAEXXZ ; std::vector<ioHashString,std::allocator<ioHashString> >::_Tidy

; 1369 : 
; 1370 : 		this->_Alnod.deallocate(_Erasednode, 1);

  0022f	53		 push	 ebx
  00230	e8 00 00 00 00	 call	 ??3@YAXPAX@Z		; operator delete
  00235	59		 pop	 ecx

; 1371 : 
; 1372 : 		if (0 < this->_Mysize)

  00236	8b 4d fc	 mov	 ecx, DWORD PTR _this$[ebp]
  00239	8b 41 08	 mov	 eax, DWORD PTR [ecx+8]
  0023c	5f		 pop	 edi
  0023d	5e		 pop	 esi
  0023e	5b		 pop	 ebx
  0023f	85 c0		 test	 eax, eax
  00241	74 04		 je	 SHORT $LN1@erase@2

; 1373 : 			--this->_Mysize;

  00243	48		 dec	 eax
  00244	89 41 08	 mov	 DWORD PTR [ecx+8], eax
$LN1@erase@2:

; 1374 : 
; 1375 : 		return (iterator(_Where._Ptr, this));	// return successor iterator

  00247	8b 45 08	 mov	 eax, DWORD PTR ___$ReturnUdt$[ebp]
  0024a	8b 4d 0c	 mov	 ecx, DWORD PTR __Where$[ebp]
  0024d	89 08		 mov	 DWORD PTR [eax], ecx

; 1376 : 		}

  0024f	c9		 leave
  00250	c2 08 00	 ret	 8
$LN335@erase@2:
?erase@?$_Tree@V?$_Tmap_traits@HV?$vector@VioHashString@@V?$allocator@VioHashString@@@std@@@std@@U?$less@H@2@V?$allocator@U?$pair@$$CBHV?$vector@VioHashString@@V?$allocator@VioHashString@@@std@@@std@@@std@@@2@$0A@@std@@@std@@QAE?AV?$_Tree_iterator@V?$_Tree_val@V?$_Tmap_traits@HV?$vector@VioHashString@@V?$allocator@VioHashString@@@std@@@std@@U?$less@H@2@V?$allocator@U?$pair@$$CBHV?$vector@VioHashString@@V?$allocator@VioHashString@@@std@@@std@@@std@@@2@$0A@@std@@@std@@@2@V?$_Tree_const_iterator@V?$_Tree_val@V?$_Tmap_traits@HV?$vector@VioHashString@@V?$allocator@VioHashString@@@std@@@std@@U?$less@H@2@V?$allocator@U?$pair@$$CBHV?$vector@VioHashString@@V?$allocator@VioHashString@@@std@@@std@@@std@@@2@$0A@@std@@@std@@@2@@Z ENDP ; std::_Tree<std::_Tmap_traits<int,std::vector<ioHashString,std::allocator<ioHashString> >,std::less<int>,std::allocator<std::pair<int const ,std::vector<ioHashString,std::allocator<ioHashString> > > >,0> >::erase
_TEXT	ENDS
PUBLIC	?_Erase@?$_Tree@V?$_Tmap_traits@HV?$vector@VioHashString@@V?$allocator@VioHashString@@@std@@@std@@U?$less@H@2@V?$allocator@U?$pair@$$CBHV?$vector@VioHashString@@V?$allocator@VioHashString@@@std@@@std@@@std@@@2@$0A@@std@@@std@@IAEXPAU_Node@?$_Tree_nod@V?$_Tmap_traits@HV?$vector@VioHashString@@V?$allocator@VioHashString@@@std@@@std@@U?$less@H@2@V?$allocator@U?$pair@$$CBHV?$vector@VioHashString@@V?$allocator@VioHashString@@@std@@@std@@@std@@@2@$0A@@std@@@2@@Z ; std::_Tree<std::_Tmap_traits<int,std::vector<ioHashString,std::allocator<ioHashString> >,std::less<int>,std::allocator<std::pair<int const ,std::vector<ioHashString,std::allocator<ioHashString> > > >,0> >::_Erase
; Function compile flags: /Ogsp
;	COMDAT ?_Erase@?$_Tree@V?$_Tmap_traits@HV?$vector@VioHashString@@V?$allocator@VioHashString@@@std@@@std@@U?$less@H@2@V?$allocator@U?$pair@$$CBHV?$vector@VioHashString@@V?$allocator@VioHashString@@@std@@@std@@@std@@@2@$0A@@std@@@std@@IAEXPAU_Node@?$_Tree_nod@V?$_Tmap_traits@HV?$vector@VioHashString@@V?$allocator@VioHashString@@@std@@@std@@U?$less@H@2@V?$allocator@U?$pair@$$CBHV?$vector@VioHashString@@V?$allocator@VioHashString@@@std@@@std@@@std@@@2@$0A@@std@@@2@@Z
_TEXT	SEGMENT
__Rootnode$ = 8						; size = 4
?_Erase@?$_Tree@V?$_Tmap_traits@HV?$vector@VioHashString@@V?$allocator@VioHashString@@@std@@@std@@U?$less@H@2@V?$allocator@U?$pair@$$CBHV?$vector@VioHashString@@V?$allocator@VioHashString@@@std@@@std@@@std@@@2@$0A@@std@@@std@@IAEXPAU_Node@?$_Tree_nod@V?$_Tmap_traits@HV?$vector@VioHashString@@V?$allocator@VioHashString@@@std@@@std@@U?$less@H@2@V?$allocator@U?$pair@$$CBHV?$vector@VioHashString@@V?$allocator@VioHashString@@@std@@@std@@@std@@@2@$0A@@std@@@2@@Z PROC ; std::_Tree<std::_Tmap_traits<int,std::vector<ioHashString,std::allocator<ioHashString> >,std::less<int>,std::allocator<std::pair<int const ,std::vector<ioHashString,std::allocator<ioHashString> > > >,0> >::_Erase, COMDAT
; _this$ = ecx

; 1610 : 		{	// free entire subtree, recursively

  00000	55		 push	 ebp
  00001	8b ec		 mov	 ebp, esp
  00003	53		 push	 ebx
  00004	56		 push	 esi
  00005	57		 push	 edi

; 1611 : 		for (_Nodeptr _Pnode = _Rootnode;

  00006	8b 7d 08	 mov	 edi, DWORD PTR __Rootnode$[ebp]

; 1612 : 			!this->_Isnil(_Pnode); _Rootnode = _Pnode)

  00009	80 7f 21 00	 cmp	 BYTE PTR [edi+33], 0
  0000d	8b d9		 mov	 ebx, ecx
  0000f	8b f7		 mov	 esi, edi
  00011	75 23		 jne	 SHORT $LN1@Erase
$LL3@Erase:

; 1613 : 			{	// free subtrees, then node
; 1614 : 			_Erase(this->_Right(_Pnode));

  00013	ff 76 08	 push	 DWORD PTR [esi+8]
  00016	8b cb		 mov	 ecx, ebx
  00018	e8 00 00 00 00	 call	 ?_Erase@?$_Tree@V?$_Tmap_traits@HV?$vector@VioHashString@@V?$allocator@VioHashString@@@std@@@std@@U?$less@H@2@V?$allocator@U?$pair@$$CBHV?$vector@VioHashString@@V?$allocator@VioHashString@@@std@@@std@@@std@@@2@$0A@@std@@@std@@IAEXPAU_Node@?$_Tree_nod@V?$_Tmap_traits@HV?$vector@VioHashString@@V?$allocator@VioHashString@@@std@@@std@@U?$less@H@2@V?$allocator@U?$pair@$$CBHV?$vector@VioHashString@@V?$allocator@VioHashString@@@std@@@std@@@std@@@2@$0A@@std@@@2@@Z ; std::_Tree<std::_Tmap_traits<int,std::vector<ioHashString,std::allocator<ioHashString> >,std::less<int>,std::allocator<std::pair<int const ,std::vector<ioHashString,std::allocator<ioHashString> > > >,0> >::_Erase

; 1615 : 			_Pnode = this->_Left(_Pnode);

  0001d	8b 36		 mov	 esi, DWORD PTR [esi]

; 1616 : 			_Dest_val(this->_Alval,
; 1617 : 				_STD addressof(this->_Myval(_Rootnode)));

  0001f	8d 4f 10	 lea	 ecx, DWORD PTR [edi+16]
  00022	e8 00 00 00 00	 call	 ?_Tidy@?$vector@VioHashString@@V?$allocator@VioHashString@@@std@@@std@@IAEXXZ ; std::vector<ioHashString,std::allocator<ioHashString> >::_Tidy

; 1618 : 
; 1619 : 			this->_Alnod.deallocate(_Rootnode, 1);

  00027	57		 push	 edi
  00028	e8 00 00 00 00	 call	 ??3@YAXPAX@Z		; operator delete
  0002d	80 7e 21 00	 cmp	 BYTE PTR [esi+33], 0
  00031	59		 pop	 ecx
  00032	8b fe		 mov	 edi, esi
  00034	74 dd		 je	 SHORT $LL3@Erase
$LN1@Erase:
  00036	5f		 pop	 edi
  00037	5e		 pop	 esi
  00038	5b		 pop	 ebx

; 1620 : 			}
; 1621 : 		}

  00039	5d		 pop	 ebp
  0003a	c2 04 00	 ret	 4
?_Erase@?$_Tree@V?$_Tmap_traits@HV?$vector@VioHashString@@V?$allocator@VioHashString@@@std@@@std@@U?$less@H@2@V?$allocator@U?$pair@$$CBHV?$vector@VioHashString@@V?$allocator@VioHashString@@@std@@@std@@@std@@@2@$0A@@std@@@std@@IAEXPAU_Node@?$_Tree_nod@V?$_Tmap_traits@HV?$vector@VioHashString@@V?$allocator@VioHashString@@@std@@@std@@U?$less@H@2@V?$allocator@U?$pair@$$CBHV?$vector@VioHashString@@V?$allocator@VioHashString@@@std@@@std@@@std@@@2@$0A@@std@@@2@@Z ENDP ; std::_Tree<std::_Tmap_traits<int,std::vector<ioHashString,std::allocator<ioHashString> >,std::less<int>,std::allocator<std::pair<int const ,std::vector<ioHashString,std::allocator<ioHashString> > > >,0> >::_Erase
_TEXT	ENDS
PUBLIC	?_Linsert@?$_Tree@V?$_Tmap_traits@HV?$vector@VioHashString@@V?$allocator@VioHashString@@@std@@@std@@U?$less@H@2@V?$allocator@U?$pair@$$CBHV?$vector@VioHashString@@V?$allocator@VioHashString@@@std@@@std@@@std@@@2@$0A@@std@@@std@@QAE?AU?$pair@V?$_Tree_iterator@V?$_Tree_val@V?$_Tmap_traits@HV?$vector@VioHashString@@V?$allocator@VioHashString@@@std@@@std@@U?$less@H@2@V?$allocator@U?$pair@$$CBHV?$vector@VioHashString@@V?$allocator@VioHashString@@@std@@@std@@@std@@@2@$0A@@std@@@std@@@std@@_N@2@PAU_Node@?$_Tree_nod@V?$_Tmap_traits@HV?$vector@VioHashString@@V?$allocator@VioHashString@@@std@@@std@@U?$less@H@2@V?$allocator@U?$pair@$$CBHV?$vector@VioHashString@@V?$allocator@VioHashString@@@std@@@std@@@std@@@2@$0A@@std@@@2@_N@Z ; std::_Tree<std::_Tmap_traits<int,std::vector<ioHashString,std::allocator<ioHashString> >,std::less<int>,std::allocator<std::pair<int const ,std::vector<ioHashString,std::allocator<ioHashString> > > >,0> >::_Linsert
; Function compile flags: /Ogsp
;	COMDAT ?_Linsert@?$_Tree@V?$_Tmap_traits@HV?$vector@VioHashString@@V?$allocator@VioHashString@@@std@@@std@@U?$less@H@2@V?$allocator@U?$pair@$$CBHV?$vector@VioHashString@@V?$allocator@VioHashString@@@std@@@std@@@std@@@2@$0A@@std@@@std@@QAE?AU?$pair@V?$_Tree_iterator@V?$_Tree_val@V?$_Tmap_traits@HV?$vector@VioHashString@@V?$allocator@VioHashString@@@std@@@std@@U?$less@H@2@V?$allocator@U?$pair@$$CBHV?$vector@VioHashString@@V?$allocator@VioHashString@@@std@@@std@@@std@@@2@$0A@@std@@@std@@@std@@_N@2@PAU_Node@?$_Tree_nod@V?$_Tmap_traits@HV?$vector@VioHashString@@V?$allocator@VioHashString@@@std@@@std@@U?$less@H@2@V?$allocator@U?$pair@$$CBHV?$vector@VioHashString@@V?$allocator@VioHashString@@@std@@@std@@@std@@@2@$0A@@std@@@2@_N@Z
_TEXT	SEGMENT
__Addleft$ = -4						; size = 1
___$ReturnUdt$ = 8					; size = 4
__Node$ = 12						; size = 4
$T515912 = 16						; size = 4
__Where$510226 = 16					; size = 4
__Leftish$ = 16						; size = 1
?_Linsert@?$_Tree@V?$_Tmap_traits@HV?$vector@VioHashString@@V?$allocator@VioHashString@@@std@@@std@@U?$less@H@2@V?$allocator@U?$pair@$$CBHV?$vector@VioHashString@@V?$allocator@VioHashString@@@std@@@std@@@std@@@2@$0A@@std@@@std@@QAE?AU?$pair@V?$_Tree_iterator@V?$_Tree_val@V?$_Tmap_traits@HV?$vector@VioHashString@@V?$allocator@VioHashString@@@std@@@std@@U?$less@H@2@V?$allocator@U?$pair@$$CBHV?$vector@VioHashString@@V?$allocator@VioHashString@@@std@@@std@@@std@@@2@$0A@@std@@@std@@@std@@_N@2@PAU_Node@?$_Tree_nod@V?$_Tmap_traits@HV?$vector@VioHashString@@V?$allocator@VioHashString@@@std@@@std@@U?$less@H@2@V?$allocator@U?$pair@$$CBHV?$vector@VioHashString@@V?$allocator@VioHashString@@@std@@@std@@@std@@@2@$0A@@std@@@2@_N@Z PROC ; std::_Tree<std::_Tmap_traits<int,std::vector<ioHashString,std::allocator<ioHashString> >,std::less<int>,std::allocator<std::pair<int const ,std::vector<ioHashString,std::allocator<ioHashString> > > >,0> >::_Linsert, COMDAT
; _this$ = ecx

; 944  : 		{	// try to insert node at _Node, on left if _Leftish

  00000	55		 push	 ebp
  00001	8b ec		 mov	 ebp, esp
  00003	51		 push	 ecx
  00004	53		 push	 ebx
  00005	56		 push	 esi
  00006	8b f1		 mov	 esi, ecx

; 945  : 		const value_type& _Val = this->_Myval(_Node);
; 946  : 
; 947  : 		_Nodeptr _Trynode = _Root();

  00008	8b 4e 04	 mov	 ecx, DWORD PTR [esi+4]
  0000b	8b 41 04	 mov	 eax, DWORD PTR [ecx+4]

; 948  : 		_Nodeptr _Wherenode = this->_Myhead;
; 949  : 		bool _Addleft = true;	// add to left of head if tree empty
; 950  : 		while (!this->_Isnil(_Trynode))

  0000e	80 78 21 00	 cmp	 BYTE PTR [eax+33], 0
  00012	8b d9		 mov	 ebx, ecx
  00014	8b 4d 0c	 mov	 ecx, DWORD PTR __Node$[ebp]
  00017	57		 push	 edi
  00018	c6 45 fc 01	 mov	 BYTE PTR __Addleft$[ebp], 1
  0001c	75 2e		 jne	 SHORT $LN11@Linsert
  0001e	8b 79 0c	 mov	 edi, DWORD PTR [ecx+12]
$LL12@Linsert:

; 951  : 			{	// look for leaf to insert before (_Addleft) or after
; 952  : 			_Wherenode = _Trynode;
; 953  : 			if (_Leftish)

  00021	80 7d 10 00	 cmp	 BYTE PTR __Leftish$[ebp], 0
  00025	8b d8		 mov	 ebx, eax
  00027	74 09		 je	 SHORT $LN10@Linsert

; 954  : 				_Addleft = !_DEBUG_LT_PRED(this->comp,

  00029	39 78 0c	 cmp	 DWORD PTR [eax+12], edi
  0002c	0f 9d 45 fc	 setge	 BYTE PTR __Addleft$[ebp]

; 955  : 					this->_Key(_Trynode),
; 956  : 					this->_Kfn(_Val));	// favor left end
; 957  : 			else

  00030	eb 07		 jmp	 SHORT $LN9@Linsert
$LN10@Linsert:

; 958  : 				_Addleft = _DEBUG_LT_PRED(this->comp,

  00032	3b 78 0c	 cmp	 edi, DWORD PTR [eax+12]
  00035	0f 9c 45 fc	 setl	 BYTE PTR __Addleft$[ebp]
$LN9@Linsert:

; 959  : 					this->_Kfn(_Val),
; 960  : 					this->_Key(_Trynode));	// favor right end
; 961  : 			_Trynode = _Addleft ? this->_Left(_Trynode)
; 962  : 				: this->_Right(_Trynode);

  00039	80 7d fc 00	 cmp	 BYTE PTR __Addleft$[ebp], 0
  0003d	74 04		 je	 SHORT $LN15@Linsert
  0003f	8b 00		 mov	 eax, DWORD PTR [eax]
  00041	eb 03		 jmp	 SHORT $LN16@Linsert
$LN15@Linsert:
  00043	8b 40 08	 mov	 eax, DWORD PTR [eax+8]
$LN16@Linsert:

; 948  : 		_Nodeptr _Wherenode = this->_Myhead;
; 949  : 		bool _Addleft = true;	// add to left of head if tree empty
; 950  : 		while (!this->_Isnil(_Trynode))

  00046	80 78 21 00	 cmp	 BYTE PTR [eax+33], 0
  0004a	74 d5		 je	 SHORT $LL12@Linsert
$LN11@Linsert:

; 963  : 			}
; 964  : 
; 965  : 		if (this->_Multi)
; 966  : 			return (_Pairib(_Insert(_Addleft, _Wherenode, _Node), true));
; 967  : 		else
; 968  : 			{	// insert only if unique
; 969  : 			iterator _Where = iterator(_Wherenode, this);
; 970  : 			if (!_Addleft)

  0004c	80 7d fc 00	 cmp	 BYTE PTR __Addleft$[ebp], 0
  00050	8b fb		 mov	 edi, ebx
  00052	89 7d 10	 mov	 DWORD PTR __Where$510226[ebp], edi
  00055	74 31		 je	 SHORT $LN99@Linsert

; 971  : 				;	// need to test if insert after is okay
; 972  : 			else if (_Where == begin())

  00057	8b 46 04	 mov	 eax, DWORD PTR [esi+4]
  0005a	3b 18		 cmp	 ebx, DWORD PTR [eax]
  0005c	75 1c		 jne	 SHORT $LN4@Linsert

; 973  : 				return (_Pairib(_Insert(true, _Wherenode, _Node), true));

  0005e	51		 push	 ecx
  0005f	53		 push	 ebx
  00060	6a 01		 push	 1
$LN165@Linsert:
  00062	8d 45 10	 lea	 eax, DWORD PTR $T515912[ebp]
  00065	50		 push	 eax
  00066	8b ce		 mov	 ecx, esi
  00068	e8 00 00 00 00	 call	 ?_Insert@?$_Tree@V?$_Tmap_traits@HV?$vector@VioHashString@@V?$allocator@VioHashString@@@std@@@std@@U?$less@H@2@V?$allocator@U?$pair@$$CBHV?$vector@VioHashString@@V?$allocator@VioHashString@@@std@@@std@@@std@@@2@$0A@@std@@@std@@IAE?AV?$_Tree_iterator@V?$_Tree_val@V?$_Tmap_traits@HV?$vector@VioHashString@@V?$allocator@VioHashString@@@std@@@std@@U?$less@H@2@V?$allocator@U?$pair@$$CBHV?$vector@VioHashString@@V?$allocator@VioHashString@@@std@@@std@@@std@@@2@$0A@@std@@@std@@@2@_NPAU_Node@?$_Tree_nod@V?$_Tmap_traits@HV?$vector@VioHashString@@V?$allocator@VioHashString@@@std@@@std@@U?$less@H@2@V?$allocator@U?$pair@$$CBHV?$vector@VioHashString@@V?$allocator@VioHashString@@@std@@@std@@@std@@@2@$0A@@std@@@2@1@Z ; std::_Tree<std::_Tmap_traits<int,std::vector<ioHashString,std::allocator<ioHashString> >,std::less<int>,std::allocator<std::pair<int const ,std::vector<ioHashString,std::allocator<ioHashString> > > >,0> >::_Insert
  0006d	8b 08		 mov	 ecx, DWORD PTR [eax]
  0006f	8b 45 08	 mov	 eax, DWORD PTR ___$ReturnUdt$[ebp]
  00072	89 08		 mov	 DWORD PTR [eax], ecx
  00074	c6 40 04 01	 mov	 BYTE PTR [eax+4], 1
  00078	eb 37		 jmp	 SHORT $LN1@Linsert
$LN4@Linsert:

; 974  : 			else
; 975  : 				--_Where;	// need to test if insert before is okay

  0007a	8d 4d 10	 lea	 ecx, DWORD PTR __Where$510226[ebp]
  0007d	e8 00 00 00 00	 call	 ??F?$_Tree_unchecked_const_iterator@V?$_Tree_val@V?$_Tmap_traits@HV?$vector@VioHashString@@V?$allocator@VioHashString@@@std@@@std@@U?$less@H@2@V?$allocator@U?$pair@$$CBHV?$vector@VioHashString@@V?$allocator@VioHashString@@@std@@@std@@@std@@@2@$0A@@std@@@std@@U_Iterator_base0@2@@std@@QAEAAV01@XZ ; std::_Tree_unchecked_const_iterator<std::_Tree_val<std::_Tmap_traits<int,std::vector<ioHashString,std::allocator<ioHashString> >,std::less<int>,std::allocator<std::pair<int const ,std::vector<ioHashString,std::allocator<ioHashString> > > >,0> >,std::_Iterator_base0>::operator--
  00082	8b 7d 10	 mov	 edi, DWORD PTR __Where$510226[ebp]
  00085	8b 4d 0c	 mov	 ecx, DWORD PTR __Node$[ebp]
$LN99@Linsert:

; 976  : 
; 977  : 			if (_DEBUG_LT_PRED(this->comp,

  00088	8b 47 0c	 mov	 eax, DWORD PTR [edi+12]
  0008b	3b 41 0c	 cmp	 eax, DWORD PTR [ecx+12]
  0008e	7d 07		 jge	 SHORT $LN2@Linsert

; 978  : 				this->_Key(_Where._Mynode()),
; 979  : 				this->_Kfn(_Val)))
; 980  : 				return (_Pairib(_Insert(_Addleft, _Wherenode, _Node), true));

  00090	51		 push	 ecx
  00091	53		 push	 ebx
  00092	ff 75 fc	 push	 DWORD PTR __Addleft$[ebp]
  00095	eb cb		 jmp	 SHORT $LN165@Linsert
$LN2@Linsert:

; 981  : 			else
; 982  : 				{	// duplicate, don't insert
; 983  : 				_Dest_val(this->_Alval,
; 984  : 					_STD addressof(this->_Myval(_Node)));

  00097	83 c1 10	 add	 ecx, 16			; 00000010H
  0009a	e8 00 00 00 00	 call	 ?_Tidy@?$vector@VioHashString@@V?$allocator@VioHashString@@@std@@@std@@IAEXXZ ; std::vector<ioHashString,std::allocator<ioHashString> >::_Tidy

; 985  : 
; 986  : 				this->_Alnod.deallocate(_Node, 1);

  0009f	ff 75 0c	 push	 DWORD PTR __Node$[ebp]
  000a2	e8 00 00 00 00	 call	 ??3@YAXPAX@Z		; operator delete

; 987  : 
; 988  : 				return (_Pairib(_Where, false));

  000a7	8b 45 08	 mov	 eax, DWORD PTR ___$ReturnUdt$[ebp]
  000aa	59		 pop	 ecx
  000ab	89 38		 mov	 DWORD PTR [eax], edi
  000ad	c6 40 04 00	 mov	 BYTE PTR [eax+4], 0
$LN1@Linsert:
  000b1	5f		 pop	 edi
  000b2	5e		 pop	 esi
  000b3	5b		 pop	 ebx

; 989  : 				}
; 990  : 			}
; 991  : 		}

  000b4	c9		 leave
  000b5	c2 0c 00	 ret	 12			; 0000000cH
?_Linsert@?$_Tree@V?$_Tmap_traits@HV?$vector@VioHashString@@V?$allocator@VioHashString@@@std@@@std@@U?$less@H@2@V?$allocator@U?$pair@$$CBHV?$vector@VioHashString@@V?$allocator@VioHashString@@@std@@@std@@@std@@@2@$0A@@std@@@std@@QAE?AU?$pair@V?$_Tree_iterator@V?$_Tree_val@V?$_Tmap_traits@HV?$vector@VioHashString@@V?$allocator@VioHashString@@@std@@@std@@U?$less@H@2@V?$allocator@U?$pair@$$CBHV?$vector@VioHashString@@V?$allocator@VioHashString@@@std@@@std@@@std@@@2@$0A@@std@@@std@@@std@@_N@2@PAU_Node@?$_Tree_nod@V?$_Tmap_traits@HV?$vector@VioHashString@@V?$allocator@VioHashString@@@std@@@std@@U?$less@H@2@V?$allocator@U?$pair@$$CBHV?$vector@VioHashString@@V?$allocator@VioHashString@@@std@@@std@@@std@@@2@$0A@@std@@@2@_N@Z ENDP ; std::_Tree<std::_Tmap_traits<int,std::vector<ioHashString,std::allocator<ioHashString> >,std::less<int>,std::allocator<std::pair<int const ,std::vector<ioHashString,std::allocator<ioHashString> > > >,0> >::_Linsert
_TEXT	ENDS
PUBLIC	??$_Buynode@U?$pair@$$CBHV?$vector@VioHashString@@V?$allocator@VioHashString@@@std@@@std@@@std@@@?$_Tree_val@V?$_Tmap_traits@HV?$vector@VioHashString@@V?$allocator@VioHashString@@@std@@@std@@U?$less@H@2@V?$allocator@U?$pair@$$CBHV?$vector@VioHashString@@V?$allocator@VioHashString@@@std@@@std@@@std@@@2@$0A@@std@@@std@@QAEPAU_Node@?$_Tree_nod@V?$_Tmap_traits@HV?$vector@VioHashString@@V?$allocator@VioHashString@@@std@@@std@@U?$less@H@2@V?$allocator@U?$pair@$$CBHV?$vector@VioHashString@@V?$allocator@VioHashString@@@std@@@std@@@std@@@2@$0A@@std@@@1@$$QAU?$pair@$$CBHV?$vector@VioHashString@@V?$allocator@VioHashString@@@std@@@std@@@1@@Z ; std::_Tree_val<std::_Tmap_traits<int,std::vector<ioHashString,std::allocator<ioHashString> >,std::less<int>,std::allocator<std::pair<int const ,std::vector<ioHashString,std::allocator<ioHashString> > > >,0> >::_Buynode<std::pair<int const ,std::vector<ioHashString,std::allocator<ioHashString> > > >
;	COMDAT xdata$x
; File c:\program files (x86)\microsoft visual studio 10.0\vc\include\xmemory
xdata$x	SEGMENT
__catchsym$??$_Buynode@U?$pair@$$CBHV?$vector@VioHashString@@V?$allocator@VioHashString@@@std@@@std@@@std@@@?$_Tree_val@V?$_Tmap_traits@HV?$vector@VioHashString@@V?$allocator@VioHashString@@@std@@@std@@U?$less@H@2@V?$allocator@U?$pair@$$CBHV?$vector@VioHashString@@V?$allocator@VioHashString@@@std@@@std@@@std@@@2@$0A@@std@@@std@@QAEPAU_Node@?$_Tree_nod@V?$_Tmap_traits@HV?$vector@VioHashString@@V?$allocator@VioHashString@@@std@@@std@@U?$less@H@2@V?$allocator@U?$pair@$$CBHV?$vector@VioHashString@@V?$allocator@VioHashString@@@std@@@std@@@std@@@2@$0A@@std@@@1@$$QAU?$pair@$$CBHV?$vector@VioHashString@@V?$allocator@VioHashString@@@std@@@std@@@1@@Z$2 DD 040H
	DD	00H
	DD	00H
	DD	FLAT:__catch$??$_Buynode@U?$pair@$$CBHV?$vector@VioHashString@@V?$allocator@VioHashString@@@std@@@std@@@std@@@?$_Tree_val@V?$_Tmap_traits@HV?$vector@VioHashString@@V?$allocator@VioHashString@@@std@@@std@@U?$less@H@2@V?$allocator@U?$pair@$$CBHV?$vector@VioHashString@@V?$allocator@VioHashString@@@std@@@std@@@std@@@2@$0A@@std@@@std@@QAEPAU_Node@?$_Tree_nod@V?$_Tmap_traits@HV?$vector@VioHashString@@V?$allocator@VioHashString@@@std@@@std@@U?$less@H@2@V?$allocator@U?$pair@$$CBHV?$vector@VioHashString@@V?$allocator@VioHashString@@@std@@@std@@@std@@@2@$0A@@std@@@1@$$QAU?$pair@$$CBHV?$vector@VioHashString@@V?$allocator@VioHashString@@@std@@@std@@@1@@Z$0
__unwindtable$??$_Buynode@U?$pair@$$CBHV?$vector@VioHashString@@V?$allocator@VioHashString@@@std@@@std@@@std@@@?$_Tree_val@V?$_Tmap_traits@HV?$vector@VioHashString@@V?$allocator@VioHashString@@@std@@@std@@U?$less@H@2@V?$allocator@U?$pair@$$CBHV?$vector@VioHashString@@V?$allocator@VioHashString@@@std@@@std@@@std@@@2@$0A@@std@@@std@@QAEPAU_Node@?$_Tree_nod@V?$_Tmap_traits@HV?$vector@VioHashString@@V?$allocator@VioHashString@@@std@@@std@@U?$less@H@2@V?$allocator@U?$pair@$$CBHV?$vector@VioHashString@@V?$allocator@VioHashString@@@std@@@std@@@std@@@2@$0A@@std@@@1@$$QAU?$pair@$$CBHV?$vector@VioHashString@@V?$allocator@VioHashString@@@std@@@std@@@1@@Z DD 0ffffffffH
	DD	00H
	DD	0ffffffffH
	DD	00H
__tryblocktable$??$_Buynode@U?$pair@$$CBHV?$vector@VioHashString@@V?$allocator@VioHashString@@@std@@@std@@@std@@@?$_Tree_val@V?$_Tmap_traits@HV?$vector@VioHashString@@V?$allocator@VioHashString@@@std@@@std@@U?$less@H@2@V?$allocator@U?$pair@$$CBHV?$vector@VioHashString@@V?$allocator@VioHashString@@@std@@@std@@@std@@@2@$0A@@std@@@std@@QAEPAU_Node@?$_Tree_nod@V?$_Tmap_traits@HV?$vector@VioHashString@@V?$allocator@VioHashString@@@std@@@std@@U?$less@H@2@V?$allocator@U?$pair@$$CBHV?$vector@VioHashString@@V?$allocator@VioHashString@@@std@@@std@@@std@@@2@$0A@@std@@@1@$$QAU?$pair@$$CBHV?$vector@VioHashString@@V?$allocator@VioHashString@@@std@@@std@@@1@@Z DD 00H
	DD	00H
	DD	01H
	DD	01H
	DD	FLAT:__catchsym$??$_Buynode@U?$pair@$$CBHV?$vector@VioHashString@@V?$allocator@VioHashString@@@std@@@std@@@std@@@?$_Tree_val@V?$_Tmap_traits@HV?$vector@VioHashString@@V?$allocator@VioHashString@@@std@@@std@@U?$less@H@2@V?$allocator@U?$pair@$$CBHV?$vector@VioHashString@@V?$allocator@VioHashString@@@std@@@std@@@std@@@2@$0A@@std@@@std@@QAEPAU_Node@?$_Tree_nod@V?$_Tmap_traits@HV?$vector@VioHashString@@V?$allocator@VioHashString@@@std@@@std@@U?$less@H@2@V?$allocator@U?$pair@$$CBHV?$vector@VioHashString@@V?$allocator@VioHashString@@@std@@@std@@@std@@@2@$0A@@std@@@1@$$QAU?$pair@$$CBHV?$vector@VioHashString@@V?$allocator@VioHashString@@@std@@@std@@@1@@Z$2
__ehfuncinfo$??$_Buynode@U?$pair@$$CBHV?$vector@VioHashString@@V?$allocator@VioHashString@@@std@@@std@@@std@@@?$_Tree_val@V?$_Tmap_traits@HV?$vector@VioHashString@@V?$allocator@VioHashString@@@std@@@std@@U?$less@H@2@V?$allocator@U?$pair@$$CBHV?$vector@VioHashString@@V?$allocator@VioHashString@@@std@@@std@@@std@@@2@$0A@@std@@@std@@QAEPAU_Node@?$_Tree_nod@V?$_Tmap_traits@HV?$vector@VioHashString@@V?$allocator@VioHashString@@@std@@@std@@U?$less@H@2@V?$allocator@U?$pair@$$CBHV?$vector@VioHashString@@V?$allocator@VioHashString@@@std@@@std@@@std@@@2@$0A@@std@@@1@$$QAU?$pair@$$CBHV?$vector@VioHashString@@V?$allocator@VioHashString@@@std@@@std@@@1@@Z DD 019930522H
	DD	02H
	DD	FLAT:__unwindtable$??$_Buynode@U?$pair@$$CBHV?$vector@VioHashString@@V?$allocator@VioHashString@@@std@@@std@@@std@@@?$_Tree_val@V?$_Tmap_traits@HV?$vector@VioHashString@@V?$allocator@VioHashString@@@std@@@std@@U?$less@H@2@V?$allocator@U?$pair@$$CBHV?$vector@VioHashString@@V?$allocator@VioHashString@@@std@@@std@@@std@@@2@$0A@@std@@@std@@QAEPAU_Node@?$_Tree_nod@V?$_Tmap_traits@HV?$vector@VioHashString@@V?$allocator@VioHashString@@@std@@@std@@U?$less@H@2@V?$allocator@U?$pair@$$CBHV?$vector@VioHashString@@V?$allocator@VioHashString@@@std@@@std@@@std@@@2@$0A@@std@@@1@$$QAU?$pair@$$CBHV?$vector@VioHashString@@V?$allocator@VioHashString@@@std@@@std@@@1@@Z
	DD	01H
	DD	FLAT:__tryblocktable$??$_Buynode@U?$pair@$$CBHV?$vector@VioHashString@@V?$allocator@VioHashString@@@std@@@std@@@std@@@?$_Tree_val@V?$_Tmap_traits@HV?$vector@VioHashString@@V?$allocator@VioHashString@@@std@@@std@@U?$less@H@2@V?$allocator@U?$pair@$$CBHV?$vector@VioHashString@@V?$allocator@VioHashString@@@std@@@std@@@std@@@2@$0A@@std@@@std@@QAEPAU_Node@?$_Tree_nod@V?$_Tmap_traits@HV?$vector@VioHashString@@V?$allocator@VioHashString@@@std@@@std@@U?$less@H@2@V?$allocator@U?$pair@$$CBHV?$vector@VioHashString@@V?$allocator@VioHashString@@@std@@@std@@@std@@@2@$0A@@std@@@1@$$QAU?$pair@$$CBHV?$vector@VioHashString@@V?$allocator@VioHashString@@@std@@@std@@@1@@Z
	DD	2 DUP(00H)
	DD	00H
	DD	01H
; Function compile flags: /Ogsp
; File c:\program files (x86)\microsoft visual studio 10.0\vc\include\xtree
xdata$x	ENDS
;	COMDAT ??$_Buynode@U?$pair@$$CBHV?$vector@VioHashString@@V?$allocator@VioHashString@@@std@@@std@@@std@@@?$_Tree_val@V?$_Tmap_traits@HV?$vector@VioHashString@@V?$allocator@VioHashString@@@std@@@std@@U?$less@H@2@V?$allocator@U?$pair@$$CBHV?$vector@VioHashString@@V?$allocator@VioHashString@@@std@@@std@@@std@@@2@$0A@@std@@@std@@QAEPAU_Node@?$_Tree_nod@V?$_Tmap_traits@HV?$vector@VioHashString@@V?$allocator@VioHashString@@@std@@@std@@U?$less@H@2@V?$allocator@U?$pair@$$CBHV?$vector@VioHashString@@V?$allocator@VioHashString@@@std@@@std@@@std@@@2@$0A@@std@@@1@$$QAU?$pair@$$CBHV?$vector@VioHashString@@V?$allocator@VioHashString@@@std@@@std@@@1@@Z
_TEXT	SEGMENT
__Wherenode$ = -20					; size = 4
__$EHRec$ = -16						; size = 16
__Val$ = 8						; size = 4
??$_Buynode@U?$pair@$$CBHV?$vector@VioHashString@@V?$allocator@VioHashString@@@std@@@std@@@std@@@?$_Tree_val@V?$_Tmap_traits@HV?$vector@VioHashString@@V?$allocator@VioHashString@@@std@@@std@@U?$less@H@2@V?$allocator@U?$pair@$$CBHV?$vector@VioHashString@@V?$allocator@VioHashString@@@std@@@std@@@std@@@2@$0A@@std@@@std@@QAEPAU_Node@?$_Tree_nod@V?$_Tmap_traits@HV?$vector@VioHashString@@V?$allocator@VioHashString@@@std@@@std@@U?$less@H@2@V?$allocator@U?$pair@$$CBHV?$vector@VioHashString@@V?$allocator@VioHashString@@@std@@@std@@@std@@@2@$0A@@std@@@1@$$QAU?$pair@$$CBHV?$vector@VioHashString@@V?$allocator@VioHashString@@@std@@@std@@@1@@Z PROC ; std::_Tree_val<std::_Tmap_traits<int,std::vector<ioHashString,std::allocator<ioHashString> >,std::less<int>,std::allocator<std::pair<int const ,std::vector<ioHashString,std::allocator<ioHashString> > > >,0> >::_Buynode<std::pair<int const ,std::vector<ioHashString,std::allocator<ioHashString> > > >, COMDAT
; _this$ = ecx

; 586  : 		_Nodeptr _Buynode(_Valty&& _Val)

  00000	6a 08		 push	 8
  00002	b8 00 00 00 00	 mov	 eax, __ehhandler$??$_Buynode@U?$pair@$$CBHV?$vector@VioHashString@@V?$allocator@VioHashString@@@std@@@std@@@std@@@?$_Tree_val@V?$_Tmap_traits@HV?$vector@VioHashString@@V?$allocator@VioHashString@@@std@@@std@@U?$less@H@2@V?$allocator@U?$pair@$$CBHV?$vector@VioHashString@@V?$allocator@VioHashString@@@std@@@std@@@std@@@2@$0A@@std@@@std@@QAEPAU_Node@?$_Tree_nod@V?$_Tmap_traits@HV?$vector@VioHashString@@V?$allocator@VioHashString@@@std@@@std@@U?$less@H@2@V?$allocator@U?$pair@$$CBHV?$vector@VioHashString@@V?$allocator@VioHashString@@@std@@@std@@@std@@@2@$0A@@std@@@1@$$QAU?$pair@$$CBHV?$vector@VioHashString@@V?$allocator@VioHashString@@@std@@@std@@@1@@Z
  00007	e8 00 00 00 00	 call	 __EH_prolog3_catch
  0000c	8b f1		 mov	 esi, ecx

; 587  : 		{	// allocate a node with defaults
; 588  : 		_Nodeptr _Wherenode = _Buynode();

  0000e	e8 00 00 00 00	 call	 ?_Buynode@?$_Tree_val@V?$_Tmap_traits@HV?$vector@VioHashString@@V?$allocator@VioHashString@@@std@@@std@@U?$less@H@2@V?$allocator@U?$pair@$$CBHV?$vector@VioHashString@@V?$allocator@VioHashString@@@std@@@std@@@std@@@2@$0A@@std@@@std@@QAEPAU_Node@?$_Tree_nod@V?$_Tmap_traits@HV?$vector@VioHashString@@V?$allocator@VioHashString@@@std@@@std@@U?$less@H@2@V?$allocator@U?$pair@$$CBHV?$vector@VioHashString@@V?$allocator@VioHashString@@@std@@@std@@@std@@@2@$0A@@std@@@2@XZ ; std::_Tree_val<std::_Tmap_traits<int,std::vector<ioHashString,std::allocator<ioHashString> >,std::less<int>,std::allocator<std::pair<int const ,std::vector<ioHashString,std::allocator<ioHashString> > > >,0> >::_Buynode

; 589  : 
; 590  : 		_TRY_BEGIN
; 591  : 		_Cons_val(this->_Alval, _STD addressof(this->_Myval(_Wherenode)),
; 592  : 			_STD forward<_Valty>(_Val));

  00013	ff 75 08	 push	 DWORD PTR __Val$[ebp]
  00016	83 65 fc 00	 and	 DWORD PTR __$EHRec$[ebp+12], 0
  0001a	8b f8		 mov	 edi, eax
  0001c	8d 47 0c	 lea	 eax, DWORD PTR [edi+12]
  0001f	50		 push	 eax
  00020	8d 4e 0d	 lea	 ecx, DWORD PTR [esi+13]
  00023	89 7d ec	 mov	 DWORD PTR __Wherenode$[ebp], edi
  00026	e8 00 00 00 00	 call	 ?construct@?$allocator@U?$pair@$$CBHV?$vector@VioHashString@@V?$allocator@VioHashString@@@std@@@std@@@std@@@std@@QAEXPAU?$pair@$$CBHV?$vector@VioHashString@@V?$allocator@VioHashString@@@std@@@std@@@2@$$QAU32@@Z ; std::allocator<std::pair<int const ,std::vector<ioHashString,std::allocator<ioHashString> > > >::construct

; 596  : 		_CATCH_END
; 597  : 
; 598  : 		return (_Wherenode);

  0002b	8b c7		 mov	 eax, edi

; 599  : 		}

  0002d	e8 00 00 00 00	 call	 __EH_epilog3
  00032	c2 04 00	 ret	 4
__catch$??$_Buynode@U?$pair@$$CBHV?$vector@VioHashString@@V?$allocator@VioHashString@@@std@@@std@@@std@@@?$_Tree_val@V?$_Tmap_traits@HV?$vector@VioHashString@@V?$allocator@VioHashString@@@std@@@std@@U?$less@H@2@V?$allocator@U?$pair@$$CBHV?$vector@VioHashString@@V?$allocator@VioHashString@@@std@@@std@@@std@@@2@$0A@@std@@@std@@QAEPAU_Node@?$_Tree_nod@V?$_Tmap_traits@HV?$vector@VioHashString@@V?$allocator@VioHashString@@@std@@@std@@U?$less@H@2@V?$allocator@U?$pair@$$CBHV?$vector@VioHashString@@V?$allocator@VioHashString@@@std@@@std@@@std@@@2@$0A@@std@@@1@$$QAU?$pair@$$CBHV?$vector@VioHashString@@V?$allocator@VioHashString@@@std@@@std@@@1@@Z$0:

; 593  : 		_CATCH_ALL
; 594  : 		this->_Alnod.deallocate(_Wherenode, 1);

  00035	ff 75 ec	 push	 DWORD PTR __Wherenode$[ebp]
  00038	e8 00 00 00 00	 call	 ??3@YAXPAX@Z		; operator delete
  0003d	59		 pop	 ecx

; 595  : 		_RERAISE;

  0003e	6a 00		 push	 0
  00040	6a 00		 push	 0
  00042	e8 00 00 00 00	 call	 __CxxThrowException@8
$LN23@Buynode@2:
$LN22@Buynode@2:
  00047	cc		 int	 3
_TEXT	ENDS
;	COMDAT text$x
text$x	SEGMENT
__ehhandler$??$_Buynode@U?$pair@$$CBHV?$vector@VioHashString@@V?$allocator@VioHashString@@@std@@@std@@@std@@@?$_Tree_val@V?$_Tmap_traits@HV?$vector@VioHashString@@V?$allocator@VioHashString@@@std@@@std@@U?$less@H@2@V?$allocator@U?$pair@$$CBHV?$vector@VioHashString@@V?$allocator@VioHashString@@@std@@@std@@@std@@@2@$0A@@std@@@std@@QAEPAU_Node@?$_Tree_nod@V?$_Tmap_traits@HV?$vector@VioHashString@@V?$allocator@VioHashString@@@std@@@std@@U?$less@H@2@V?$allocator@U?$pair@$$CBHV?$vector@VioHashString@@V?$allocator@VioHashString@@@std@@@std@@@std@@@2@$0A@@std@@@1@$$QAU?$pair@$$CBHV?$vector@VioHashString@@V?$allocator@VioHashString@@@std@@@std@@@1@@Z:
  00000	8b 54 24 08	 mov	 edx, DWORD PTR [esp+8]
  00004	8d 42 0c	 lea	 eax, DWORD PTR [edx+12]
  00007	8b 4a e8	 mov	 ecx, DWORD PTR [edx-24]
  0000a	33 c8		 xor	 ecx, eax
  0000c	e8 00 00 00 00	 call	 @__security_check_cookie@4
  00011	b8 00 00 00 00	 mov	 eax, OFFSET __ehfuncinfo$??$_Buynode@U?$pair@$$CBHV?$vector@VioHashString@@V?$allocator@VioHashString@@@std@@@std@@@std@@@?$_Tree_val@V?$_Tmap_traits@HV?$vector@VioHashString@@V?$allocator@VioHashString@@@std@@@std@@U?$less@H@2@V?$allocator@U?$pair@$$CBHV?$vector@VioHashString@@V?$allocator@VioHashString@@@std@@@std@@@std@@@2@$0A@@std@@@std@@QAEPAU_Node@?$_Tree_nod@V?$_Tmap_traits@HV?$vector@VioHashString@@V?$allocator@VioHashString@@@std@@@std@@U?$less@H@2@V?$allocator@U?$pair@$$CBHV?$vector@VioHashString@@V?$allocator@VioHashString@@@std@@@std@@@std@@@2@$0A@@std@@@1@$$QAU?$pair@$$CBHV?$vector@VioHashString@@V?$allocator@VioHashString@@@std@@@std@@@1@@Z
  00016	e9 00 00 00 00	 jmp	 ___CxxFrameHandler3
text$x	ENDS
??$_Buynode@U?$pair@$$CBHV?$vector@VioHashString@@V?$allocator@VioHashString@@@std@@@std@@@std@@@?$_Tree_val@V?$_Tmap_traits@HV?$vector@VioHashString@@V?$allocator@VioHashString@@@std@@@std@@U?$less@H@2@V?$allocator@U?$pair@$$CBHV?$vector@VioHashString@@V?$allocator@VioHashString@@@std@@@std@@@std@@@2@$0A@@std@@@std@@QAEPAU_Node@?$_Tree_nod@V?$_Tmap_traits@HV?$vector@VioHashString@@V?$allocator@VioHashString@@@std@@@std@@U?$less@H@2@V?$allocator@U?$pair@$$CBHV?$vector@VioHashString@@V?$allocator@VioHashString@@@std@@@std@@@std@@@2@$0A@@std@@@1@$$QAU?$pair@$$CBHV?$vector@VioHashString@@V?$allocator@VioHashString@@@std@@@std@@@1@@Z ENDP ; std::_Tree_val<std::_Tmap_traits<int,std::vector<ioHashString,std::allocator<ioHashString> >,std::less<int>,std::allocator<std::pair<int const ,std::vector<ioHashString,std::allocator<ioHashString> > > >,0> >::_Buynode<std::pair<int const ,std::vector<ioHashString,std::allocator<ioHashString> > > >
PUBLIC	?clear@?$_Tree@V?$_Tmap_traits@HV?$vector@VioHashString@@V?$allocator@VioHashString@@@std@@@std@@U?$less@H@2@V?$allocator@U?$pair@$$CBHV?$vector@VioHashString@@V?$allocator@VioHashString@@@std@@@std@@@std@@@2@$0A@@std@@@std@@QAEXXZ ; std::_Tree<std::_Tmap_traits<int,std::vector<ioHashString,std::allocator<ioHashString> >,std::less<int>,std::allocator<std::pair<int const ,std::vector<ioHashString,std::allocator<ioHashString> > > >,0> >::clear
; Function compile flags: /Ogsp
;	COMDAT ?clear@?$_Tree@V?$_Tmap_traits@HV?$vector@VioHashString@@V?$allocator@VioHashString@@@std@@@std@@U?$less@H@2@V?$allocator@U?$pair@$$CBHV?$vector@VioHashString@@V?$allocator@VioHashString@@@std@@@std@@@std@@@2@$0A@@std@@@std@@QAEXXZ
_TEXT	SEGMENT
?clear@?$_Tree@V?$_Tmap_traits@HV?$vector@VioHashString@@V?$allocator@VioHashString@@@std@@@std@@U?$less@H@2@V?$allocator@U?$pair@$$CBHV?$vector@VioHashString@@V?$allocator@VioHashString@@@std@@@std@@@std@@@2@$0A@@std@@@std@@QAEXXZ PROC ; std::_Tree<std::_Tmap_traits<int,std::vector<ioHashString,std::allocator<ioHashString> >,std::less<int>,std::allocator<std::pair<int const ,std::vector<ioHashString,std::allocator<ioHashString> > > >,0> >::clear, COMDAT
; _this$ = ecx

; 1410 : 		{	// erase all

  00000	56		 push	 esi
  00001	57		 push	 edi
  00002	8b f9		 mov	 edi, ecx

; 1411 :  #if _ITERATOR_DEBUG_LEVEL == 2
; 1412 : 		this->_Orphan_ptr(*this, 0);
; 1413 :  #endif /* _ITERATOR_DEBUG_LEVEL == 2 */
; 1414 : 
; 1415 : 		_Erase(_Root());

  00004	8b 47 04	 mov	 eax, DWORD PTR [edi+4]
  00007	ff 70 04	 push	 DWORD PTR [eax+4]
  0000a	e8 00 00 00 00	 call	 ?_Erase@?$_Tree@V?$_Tmap_traits@HV?$vector@VioHashString@@V?$allocator@VioHashString@@@std@@@std@@U?$less@H@2@V?$allocator@U?$pair@$$CBHV?$vector@VioHashString@@V?$allocator@VioHashString@@@std@@@std@@@std@@@2@$0A@@std@@@std@@IAEXPAU_Node@?$_Tree_nod@V?$_Tmap_traits@HV?$vector@VioHashString@@V?$allocator@VioHashString@@@std@@@std@@U?$less@H@2@V?$allocator@U?$pair@$$CBHV?$vector@VioHashString@@V?$allocator@VioHashString@@@std@@@std@@@std@@@2@$0A@@std@@@2@@Z ; std::_Tree<std::_Tmap_traits<int,std::vector<ioHashString,std::allocator<ioHashString> >,std::less<int>,std::allocator<std::pair<int const ,std::vector<ioHashString,std::allocator<ioHashString> > > >,0> >::_Erase

; 1416 : 		_Root() = this->_Myhead;

  0000f	8b 47 04	 mov	 eax, DWORD PTR [edi+4]
  00012	89 40 04	 mov	 DWORD PTR [eax+4], eax

; 1417 : 		_Lmost() = this->_Myhead;

  00015	8b 47 04	 mov	 eax, DWORD PTR [edi+4]
  00018	89 00		 mov	 DWORD PTR [eax], eax

; 1418 : 		_Rmost() = this->_Myhead;

  0001a	8b 77 04	 mov	 esi, DWORD PTR [edi+4]
  0001d	89 76 08	 mov	 DWORD PTR [esi+8], esi

; 1419 : 		this->_Mysize = 0;

  00020	83 67 08 00	 and	 DWORD PTR [edi+8], 0
  00024	5f		 pop	 edi
  00025	5e		 pop	 esi

; 1420 : 		}

  00026	c3		 ret	 0
?clear@?$_Tree@V?$_Tmap_traits@HV?$vector@VioHashString@@V?$allocator@VioHashString@@@std@@@std@@U?$less@H@2@V?$allocator@U?$pair@$$CBHV?$vector@VioHashString@@V?$allocator@VioHashString@@@std@@@std@@@std@@@2@$0A@@std@@@std@@QAEXXZ ENDP ; std::_Tree<std::_Tmap_traits<int,std::vector<ioHashString,std::allocator<ioHashString> >,std::less<int>,std::allocator<std::pair<int const ,std::vector<ioHashString,std::allocator<ioHashString> > > >,0> >::clear
_TEXT	ENDS
PUBLIC	?_Insert@?$_Tree@V?$_Tmap_traits@HV?$vector@VioHashString@@V?$allocator@VioHashString@@@std@@@std@@U?$less@H@2@V?$allocator@U?$pair@$$CBHV?$vector@VioHashString@@V?$allocator@VioHashString@@@std@@@std@@@std@@@2@$0A@@std@@@std@@QAE?AV?$_Tree_iterator@V?$_Tree_val@V?$_Tmap_traits@HV?$vector@VioHashString@@V?$allocator@VioHashString@@@std@@@std@@U?$less@H@2@V?$allocator@U?$pair@$$CBHV?$vector@VioHashString@@V?$allocator@VioHashString@@@std@@@std@@@std@@@2@$0A@@std@@@std@@@2@V?$_Tree_const_iterator@V?$_Tree_val@V?$_Tmap_traits@HV?$vector@VioHashString@@V?$allocator@VioHashString@@@std@@@std@@U?$less@H@2@V?$allocator@U?$pair@$$CBHV?$vector@VioHashString@@V?$allocator@VioHashString@@@std@@@std@@@std@@@2@$0A@@std@@@std@@@2@PAU_Node@?$_Tree_nod@V?$_Tmap_traits@HV?$vector@VioHashString@@V?$allocator@VioHashString@@@std@@@std@@U?$less@H@2@V?$allocator@U?$pair@$$CBHV?$vector@VioHashString@@V?$allocator@VioHashString@@@std@@@std@@@std@@@2@$0A@@std@@@2@@Z ; std::_Tree<std::_Tmap_traits<int,std::vector<ioHashString,std::allocator<ioHashString> >,std::less<int>,std::allocator<std::pair<int const ,std::vector<ioHashString,std::allocator<ioHashString> > > >,0> >::_Insert
; Function compile flags: /Ogsp
;	COMDAT ?_Insert@?$_Tree@V?$_Tmap_traits@HV?$vector@VioHashString@@V?$allocator@VioHashString@@@std@@@std@@U?$less@H@2@V?$allocator@U?$pair@$$CBHV?$vector@VioHashString@@V?$allocator@VioHashString@@@std@@@std@@@std@@@2@$0A@@std@@@std@@QAE?AV?$_Tree_iterator@V?$_Tree_val@V?$_Tmap_traits@HV?$vector@VioHashString@@V?$allocator@VioHashString@@@std@@@std@@U?$less@H@2@V?$allocator@U?$pair@$$CBHV?$vector@VioHashString@@V?$allocator@VioHashString@@@std@@@std@@@std@@@2@$0A@@std@@@std@@@2@V?$_Tree_const_iterator@V?$_Tree_val@V?$_Tmap_traits@HV?$vector@VioHashString@@V?$allocator@VioHashString@@@std@@@std@@U?$less@H@2@V?$allocator@U?$pair@$$CBHV?$vector@VioHashString@@V?$allocator@VioHashString@@@std@@@std@@@std@@@2@$0A@@std@@@std@@@2@PAU_Node@?$_Tree_nod@V?$_Tmap_traits@HV?$vector@VioHashString@@V?$allocator@VioHashString@@@std@@@std@@U?$less@H@2@V?$allocator@U?$pair@$$CBHV?$vector@VioHashString@@V?$allocator@VioHashString@@@std@@@std@@@std@@@2@$0A@@std@@@2@@Z
_TEXT	SEGMENT
$T516392 = -8						; size = 8
___$ReturnUdt$ = 8					; size = 4
__Where$ = 12						; size = 4
__Next$ = 16						; size = 4
__Node$ = 16						; size = 4
?_Insert@?$_Tree@V?$_Tmap_traits@HV?$vector@VioHashString@@V?$allocator@VioHashString@@@std@@@std@@U?$less@H@2@V?$allocator@U?$pair@$$CBHV?$vector@VioHashString@@V?$allocator@VioHashString@@@std@@@std@@@std@@@2@$0A@@std@@@std@@QAE?AV?$_Tree_iterator@V?$_Tree_val@V?$_Tmap_traits@HV?$vector@VioHashString@@V?$allocator@VioHashString@@@std@@@std@@U?$less@H@2@V?$allocator@U?$pair@$$CBHV?$vector@VioHashString@@V?$allocator@VioHashString@@@std@@@std@@@std@@@2@$0A@@std@@@std@@@2@V?$_Tree_const_iterator@V?$_Tree_val@V?$_Tmap_traits@HV?$vector@VioHashString@@V?$allocator@VioHashString@@@std@@@std@@U?$less@H@2@V?$allocator@U?$pair@$$CBHV?$vector@VioHashString@@V?$allocator@VioHashString@@@std@@@std@@@std@@@2@$0A@@std@@@std@@@2@PAU_Node@?$_Tree_nod@V?$_Tmap_traits@HV?$vector@VioHashString@@V?$allocator@VioHashString@@@std@@@std@@U?$less@H@2@V?$allocator@U?$pair@$$CBHV?$vector@VioHashString@@V?$allocator@VioHashString@@@std@@@std@@@std@@@2@$0A@@std@@@2@@Z PROC ; std::_Tree<std::_Tmap_traits<int,std::vector<ioHashString,std::allocator<ioHashString> >,std::less<int>,std::allocator<std::pair<int const ,std::vector<ioHashString,std::allocator<ioHashString> > > >,0> >::_Insert, COMDAT
; _this$ = ecx

; 1089 : 		{	// try to insert node at _Node using _Where as a hint

  00000	55		 push	 ebp
  00001	8b ec		 mov	 ebp, esp
  00003	51		 push	 ecx
  00004	51		 push	 ecx
  00005	53		 push	 ebx
  00006	8b d9		 mov	 ebx, ecx

; 1090 :  #if _ITERATOR_DEBUG_LEVEL == 2
; 1091 : 		if (_Where._Getcont() != this)
; 1092 : 			_DEBUG_ERROR("map/set insert iterator outside range");
; 1093 :  #endif /* _ITERATOR_DEBUG_LEVEL == 2 */
; 1094 : 
; 1095 : 		const value_type& _Val = this->_Myval(_Node);
; 1096 : 
; 1097 : 		const_iterator _Next;
; 1098 : 		bool _Leftish = false;	// assume nearest point is end of sequence
; 1099 : 
; 1100 : 		if (size() == 0)

  00008	83 7b 08 00	 cmp	 DWORD PTR [ebx+8], 0
  0000c	57		 push	 edi
  0000d	8b 7d 10	 mov	 edi, DWORD PTR __Node$[ebp]
  00010	75 16		 jne	 SHORT $LN33@Insert@2

; 1101 : 			return (_Insert(true, this->_Myhead, _Node));	// empty tree

  00012	57		 push	 edi
  00013	ff 73 04	 push	 DWORD PTR [ebx+4]
  00016	6a 01		 push	 1
  00018	ff 75 08	 push	 DWORD PTR ___$ReturnUdt$[ebp]
  0001b	e8 00 00 00 00	 call	 ?_Insert@?$_Tree@V?$_Tmap_traits@HV?$vector@VioHashString@@V?$allocator@VioHashString@@@std@@@std@@U?$less@H@2@V?$allocator@U?$pair@$$CBHV?$vector@VioHashString@@V?$allocator@VioHashString@@@std@@@std@@@std@@@2@$0A@@std@@@std@@IAE?AV?$_Tree_iterator@V?$_Tree_val@V?$_Tmap_traits@HV?$vector@VioHashString@@V?$allocator@VioHashString@@@std@@@std@@U?$less@H@2@V?$allocator@U?$pair@$$CBHV?$vector@VioHashString@@V?$allocator@VioHashString@@@std@@@std@@@std@@@2@$0A@@std@@@std@@@2@_NPAU_Node@?$_Tree_nod@V?$_Tmap_traits@HV?$vector@VioHashString@@V?$allocator@VioHashString@@@std@@@std@@U?$less@H@2@V?$allocator@U?$pair@$$CBHV?$vector@VioHashString@@V?$allocator@VioHashString@@@std@@@std@@@std@@@2@$0A@@std@@@2@1@Z ; std::_Tree<std::_Tmap_traits<int,std::vector<ioHashString,std::allocator<ioHashString> >,std::less<int>,std::allocator<std::pair<int const ,std::vector<ioHashString,std::allocator<ioHashString> > > >,0> >::_Insert
  00020	8b 45 08	 mov	 eax, DWORD PTR ___$ReturnUdt$[ebp]
  00023	e9 b8 00 00 00	 jmp	 $LN34@Insert@2
$LN33@Insert@2:

; 1102 : 		else if (this->_Multi)
; 1103 : 			{	// insert even if duplicate
; 1104 : 			if (_Where == begin())
; 1105 : 				{	// insert at beginning if before first element
; 1106 : 				if (!_DEBUG_LT_PRED(this->comp,
; 1107 : 					this->_Key(_Where._Mynode()), this->_Kfn(_Val)))
; 1108 : 					return (_Insert(true, _Where._Mynode(), _Node));
; 1109 : 				_Leftish = true;	// nearest point is beginning of sequence
; 1110 : 				}
; 1111 : 			else if (_Where == end())
; 1112 : 				{	// insert at end if after last element
; 1113 : 				if (!_DEBUG_LT_PRED(this->comp,
; 1114 : 					this->_Kfn(_Val), this->_Key(_Rmost())))
; 1115 : 					return (_Insert(false, _Rmost(), _Node));
; 1116 : 				}
; 1117 : 			else if (!_DEBUG_LT_PRED(this->comp,
; 1118 : 				this->_Key(_Where._Mynode()), this->_Kfn(_Val))
; 1119 : 				&& !_DEBUG_LT_PRED(this->comp,
; 1120 : 					this->_Kfn(_Val),
; 1121 : 					this->_Key((--(_Next = _Where))._Mynode())))
; 1122 : 				{	// insert before _Where
; 1123 : 				if (this->_Isnil(this->_Right(_Next._Mynode())))
; 1124 : 					return (_Insert(false, _Next._Mynode(), _Node));
; 1125 : 				else
; 1126 : 					return (_Insert(true, _Where._Mynode(), _Node));
; 1127 : 				}
; 1128 : 			else if (!_DEBUG_LT_PRED(this->comp,
; 1129 : 				this->_Kfn(_Val), this->_Key(_Where._Mynode()))
; 1130 : 				&& (++(_Next = _Where) == end()
; 1131 : 					|| !_DEBUG_LT_PRED(this->comp,
; 1132 : 						this->_Key(_Next._Mynode()), this->_Kfn(_Val))))
; 1133 : 				{	// insert after _Where
; 1134 : 				if (this->_Isnil(this->_Right(_Where._Mynode())))
; 1135 : 					return (_Insert(false, _Where._Mynode(), _Node));
; 1136 : 				else
; 1137 : 					return (_Insert(true, _Next._Mynode(), _Node));
; 1138 : 				}
; 1139 : 			else
; 1140 : 				_Leftish = true;	// nearest point is beginning of sequence
; 1141 : 			}
; 1142 : 		else
; 1143 : 			{	// insert only if unique
; 1144 : 			if (_Where == begin())

  00028	8b 43 04	 mov	 eax, DWORD PTR [ebx+4]
  0002b	56		 push	 esi
  0002c	8b 75 0c	 mov	 esi, DWORD PTR __Where$[ebp]
  0002f	3b 30		 cmp	 esi, DWORD PTR [eax]
  00031	75 12		 jne	 SHORT $LN14@Insert@2

; 1145 : 				{	// insert at beginning if before first element
; 1146 : 				if (_DEBUG_LT_PRED(this->comp,

  00033	8b 47 0c	 mov	 eax, DWORD PTR [edi+12]
  00036	3b 46 0c	 cmp	 eax, DWORD PTR [esi+12]
  00039	0f 8d 8b 00 00
	00		 jge	 $LN333@Insert@2

; 1147 : 					this->_Kfn(_Val), this->_Key(_Where._Mynode())))
; 1148 : 					return (_Insert(true, _Where._Mynode(), _Node));

  0003f	57		 push	 edi
  00040	56		 push	 esi
  00041	6a 01		 push	 1
  00043	eb 78		 jmp	 SHORT $LN338@Insert@2
$LN14@Insert@2:

; 1149 : 				}
; 1150 : 			else if (_Where == end())

  00045	3b f0		 cmp	 esi, eax
  00047	75 0f		 jne	 SHORT $LN11@Insert@2

; 1151 : 				{	// insert at end if after last element
; 1152 : 				if (_DEBUG_LT_PRED(this->comp,

  00049	8b 40 08	 mov	 eax, DWORD PTR [eax+8]
  0004c	8b 48 0c	 mov	 ecx, DWORD PTR [eax+12]
  0004f	3b 4f 0c	 cmp	 ecx, DWORD PTR [edi+12]
  00052	7d 76		 jge	 SHORT $LN333@Insert@2

; 1153 : 					this->_Key(_Rmost()), this->_Kfn(_Val)))
; 1154 : 					return (_Insert(false, _Rmost(), _Node));

  00054	57		 push	 edi
  00055	50		 push	 eax
  00056	eb 5c		 jmp	 SHORT $LN339@Insert@2
$LN11@Insert@2:

; 1155 : 				}
; 1156 : 			else if (_DEBUG_LT_PRED(this->comp,
; 1157 : 				this->_Kfn(_Val), this->_Key(_Where._Mynode()))
; 1158 : 				&& _DEBUG_LT_PRED(this->comp,

  00058	8b 47 0c	 mov	 eax, DWORD PTR [edi+12]
  0005b	3b 46 0c	 cmp	 eax, DWORD PTR [esi+12]
  0005e	7d 26		 jge	 SHORT $LN332@Insert@2
  00060	8d 4d 10	 lea	 ecx, DWORD PTR __Next$[ebp]
  00063	89 75 10	 mov	 DWORD PTR __Next$[ebp], esi
  00066	e8 00 00 00 00	 call	 ??F?$_Tree_unchecked_const_iterator@V?$_Tree_val@V?$_Tmap_traits@HV?$vector@VioHashString@@V?$allocator@VioHashString@@@std@@@std@@U?$less@H@2@V?$allocator@U?$pair@$$CBHV?$vector@VioHashString@@V?$allocator@VioHashString@@@std@@@std@@@std@@@2@$0A@@std@@@std@@U_Iterator_base0@2@@std@@QAEAAV01@XZ ; std::_Tree_unchecked_const_iterator<std::_Tree_val<std::_Tmap_traits<int,std::vector<ioHashString,std::allocator<ioHashString> >,std::less<int>,std::allocator<std::pair<int const ,std::vector<ioHashString,std::allocator<ioHashString> > > >,0> >,std::_Iterator_base0>::operator--
  0006b	8b 4d 10	 mov	 ecx, DWORD PTR __Next$[ebp]
  0006e	8b 47 0c	 mov	 eax, DWORD PTR [edi+12]
  00071	39 41 0c	 cmp	 DWORD PTR [ecx+12], eax
  00074	7d 10		 jge	 SHORT $LN332@Insert@2

; 1159 : 					this->_Key((--(_Next = _Where))._Mynode()),
; 1160 : 					this->_Kfn(_Val)))
; 1161 : 				{	// insert before _Where
; 1162 : 				if (this->_Isnil(this->_Right(_Next._Mynode())))

  00076	8b 41 08	 mov	 eax, DWORD PTR [ecx+8]
  00079	80 78 21 00	 cmp	 BYTE PTR [eax+33], 0

; 1163 : 					return (_Insert(false, _Next._Mynode(), _Node));

  0007d	57		 push	 edi
  0007e	74 03		 je	 SHORT $LN7@Insert@2
  00080	51		 push	 ecx
  00081	eb 31		 jmp	 SHORT $LN339@Insert@2
$LN7@Insert@2:

; 1164 : 				else
; 1165 : 					return (_Insert(true, _Where._Mynode(), _Node));

  00083	56		 push	 esi
  00084	eb 33		 jmp	 SHORT $LN336@Insert@2
$LN332@Insert@2:

; 1166 : 				}
; 1167 : 			else if (_DEBUG_LT_PRED(this->comp,
; 1168 : 				this->_Key(_Where._Mynode()), this->_Kfn(_Val))
; 1169 : 				&& (++(_Next = _Where) == end()
; 1170 : 					|| _DEBUG_LT_PRED(this->comp,

  00086	8b 47 0c	 mov	 eax, DWORD PTR [edi+12]
  00089	39 46 0c	 cmp	 DWORD PTR [esi+12], eax
  0008c	7d 3c		 jge	 SHORT $LN333@Insert@2
  0008e	8d 4d 10	 lea	 ecx, DWORD PTR __Next$[ebp]
  00091	89 75 10	 mov	 DWORD PTR __Next$[ebp], esi
  00094	e8 00 00 00 00	 call	 ??E?$_Tree_unchecked_const_iterator@V?$_Tree_val@V?$_Tmap_traits@HV?$vector@VioHashString@@V?$allocator@VioHashString@@@std@@@std@@U?$less@H@2@V?$allocator@U?$pair@$$CBHV?$vector@VioHashString@@V?$allocator@VioHashString@@@std@@@std@@@std@@@2@$0A@@std@@@std@@U_Iterator_base0@2@@std@@QAEAAV01@XZ ; std::_Tree_unchecked_const_iterator<std::_Tree_val<std::_Tmap_traits<int,std::vector<ioHashString,std::allocator<ioHashString> >,std::less<int>,std::allocator<std::pair<int const ,std::vector<ioHashString,std::allocator<ioHashString> > > >,0> >,std::_Iterator_base0>::operator++
  00099	8b 4d 10	 mov	 ecx, DWORD PTR __Next$[ebp]
  0009c	3b 4b 04	 cmp	 ecx, DWORD PTR [ebx+4]
  0009f	74 08		 je	 SHORT $LN3@Insert@2
  000a1	8b 47 0c	 mov	 eax, DWORD PTR [edi+12]
  000a4	3b 41 0c	 cmp	 eax, DWORD PTR [ecx+12]
  000a7	7d 21		 jge	 SHORT $LN333@Insert@2
$LN3@Insert@2:

; 1171 : 						this->_Kfn(_Val), this->_Key(_Next._Mynode()))))
; 1172 : 				{	// insert after _Where
; 1173 : 				if (this->_Isnil(this->_Right(_Where._Mynode())))

  000a9	8b 46 08	 mov	 eax, DWORD PTR [esi+8]
  000ac	80 78 21 00	 cmp	 BYTE PTR [eax+33], 0

; 1174 : 					return (_Insert(false, _Where._Mynode(), _Node));

  000b0	57		 push	 edi
  000b1	74 05		 je	 SHORT $LN2@Insert@2
  000b3	56		 push	 esi
$LN339@Insert@2:
  000b4	6a 00		 push	 0
  000b6	eb 03		 jmp	 SHORT $LN335@Insert@2
$LN2@Insert@2:

; 1175 : 				else
; 1176 : 					return (_Insert(true, _Next._Mynode(), _Node));

  000b8	51		 push	 ecx
$LN336@Insert@2:
  000b9	6a 01		 push	 1
$LN335@Insert@2:
  000bb	8b cb		 mov	 ecx, ebx
$LN338@Insert@2:
  000bd	ff 75 08	 push	 DWORD PTR ___$ReturnUdt$[ebp]
  000c0	e8 00 00 00 00	 call	 ?_Insert@?$_Tree@V?$_Tmap_traits@HV?$vector@VioHashString@@V?$allocator@VioHashString@@@std@@@std@@U?$less@H@2@V?$allocator@U?$pair@$$CBHV?$vector@VioHashString@@V?$allocator@VioHashString@@@std@@@std@@@std@@@2@$0A@@std@@@std@@IAE?AV?$_Tree_iterator@V?$_Tree_val@V?$_Tmap_traits@HV?$vector@VioHashString@@V?$allocator@VioHashString@@@std@@@std@@U?$less@H@2@V?$allocator@U?$pair@$$CBHV?$vector@VioHashString@@V?$allocator@VioHashString@@@std@@@std@@@std@@@2@$0A@@std@@@std@@@2@_NPAU_Node@?$_Tree_nod@V?$_Tmap_traits@HV?$vector@VioHashString@@V?$allocator@VioHashString@@@std@@@std@@U?$less@H@2@V?$allocator@U?$pair@$$CBHV?$vector@VioHashString@@V?$allocator@VioHashString@@@std@@@std@@@std@@@2@$0A@@std@@@2@1@Z ; std::_Tree<std::_Tmap_traits<int,std::vector<ioHashString,std::allocator<ioHashString> >,std::less<int>,std::allocator<std::pair<int const ,std::vector<ioHashString,std::allocator<ioHashString> > > >,0> >::_Insert
  000c5	8b 45 08	 mov	 eax, DWORD PTR ___$ReturnUdt$[ebp]
  000c8	eb 15		 jmp	 SHORT $LN334@Insert@2
$LN333@Insert@2:

; 1177 : 				}
; 1178 : 			}
; 1179 : 
; 1180 : 		return (_Linsert(_Node, _Leftish).first);	// try usual insert

  000ca	6a 00		 push	 0
  000cc	57		 push	 edi
  000cd	8d 45 f8	 lea	 eax, DWORD PTR $T516392[ebp]
  000d0	50		 push	 eax
  000d1	8b cb		 mov	 ecx, ebx
  000d3	e8 00 00 00 00	 call	 ?_Linsert@?$_Tree@V?$_Tmap_traits@HV?$vector@VioHashString@@V?$allocator@VioHashString@@@std@@@std@@U?$less@H@2@V?$allocator@U?$pair@$$CBHV?$vector@VioHashString@@V?$allocator@VioHashString@@@std@@@std@@@std@@@2@$0A@@std@@@std@@QAE?AU?$pair@V?$_Tree_iterator@V?$_Tree_val@V?$_Tmap_traits@HV?$vector@VioHashString@@V?$allocator@VioHashString@@@std@@@std@@U?$less@H@2@V?$allocator@U?$pair@$$CBHV?$vector@VioHashString@@V?$allocator@VioHashString@@@std@@@std@@@std@@@2@$0A@@std@@@std@@@std@@_N@2@PAU_Node@?$_Tree_nod@V?$_Tmap_traits@HV?$vector@VioHashString@@V?$allocator@VioHashString@@@std@@@std@@U?$less@H@2@V?$allocator@U?$pair@$$CBHV?$vector@VioHashString@@V?$allocator@VioHashString@@@std@@@std@@@std@@@2@$0A@@std@@@2@_N@Z ; std::_Tree<std::_Tmap_traits<int,std::vector<ioHashString,std::allocator<ioHashString> >,std::less<int>,std::allocator<std::pair<int const ,std::vector<ioHashString,std::allocator<ioHashString> > > >,0> >::_Linsert
  000d8	8b 08		 mov	 ecx, DWORD PTR [eax]
  000da	8b 45 08	 mov	 eax, DWORD PTR ___$ReturnUdt$[ebp]
  000dd	89 08		 mov	 DWORD PTR [eax], ecx
$LN334@Insert@2:
  000df	5e		 pop	 esi
$LN34@Insert@2:
  000e0	5f		 pop	 edi
  000e1	5b		 pop	 ebx

; 1181 : 		}

  000e2	c9		 leave
  000e3	c2 0c 00	 ret	 12			; 0000000cH
?_Insert@?$_Tree@V?$_Tmap_traits@HV?$vector@VioHashString@@V?$allocator@VioHashString@@@std@@@std@@U?$less@H@2@V?$allocator@U?$pair@$$CBHV?$vector@VioHashString@@V?$allocator@VioHashString@@@std@@@std@@@std@@@2@$0A@@std@@@std@@QAE?AV?$_Tree_iterator@V?$_Tree_val@V?$_Tmap_traits@HV?$vector@VioHashString@@V?$allocator@VioHashString@@@std@@@std@@U?$less@H@2@V?$allocator@U?$pair@$$CBHV?$vector@VioHashString@@V?$allocator@VioHashString@@@std@@@std@@@std@@@2@$0A@@std@@@std@@@2@V?$_Tree_const_iterator@V?$_Tree_val@V?$_Tmap_traits@HV?$vector@VioHashString@@V?$allocator@VioHashString@@@std@@@std@@U?$less@H@2@V?$allocator@U?$pair@$$CBHV?$vector@VioHashString@@V?$allocator@VioHashString@@@std@@@std@@@std@@@2@$0A@@std@@@std@@@2@PAU_Node@?$_Tree_nod@V?$_Tmap_traits@HV?$vector@VioHashString@@V?$allocator@VioHashString@@@std@@@std@@U?$less@H@2@V?$allocator@U?$pair@$$CBHV?$vector@VioHashString@@V?$allocator@VioHashString@@@std@@@std@@@std@@@2@$0A@@std@@@2@@Z ENDP ; std::_Tree<std::_Tmap_traits<int,std::vector<ioHashString,std::allocator<ioHashString> >,std::less<int>,std::allocator<std::pair<int const ,std::vector<ioHashString,std::allocator<ioHashString> > > >,0> >::_Insert
_TEXT	ENDS
PUBLIC	?erase@?$_Tree@V?$_Tmap_traits@HV?$vector@VioHashString@@V?$allocator@VioHashString@@@std@@@std@@U?$less@H@2@V?$allocator@U?$pair@$$CBHV?$vector@VioHashString@@V?$allocator@VioHashString@@@std@@@std@@@std@@@2@$0A@@std@@@std@@QAE?AV?$_Tree_iterator@V?$_Tree_val@V?$_Tmap_traits@HV?$vector@VioHashString@@V?$allocator@VioHashString@@@std@@@std@@U?$less@H@2@V?$allocator@U?$pair@$$CBHV?$vector@VioHashString@@V?$allocator@VioHashString@@@std@@@std@@@std@@@2@$0A@@std@@@std@@@2@V?$_Tree_const_iterator@V?$_Tree_val@V?$_Tmap_traits@HV?$vector@VioHashString@@V?$allocator@VioHashString@@@std@@@std@@U?$less@H@2@V?$allocator@U?$pair@$$CBHV?$vector@VioHashString@@V?$allocator@VioHashString@@@std@@@std@@@std@@@2@$0A@@std@@@std@@@2@0@Z ; std::_Tree<std::_Tmap_traits<int,std::vector<ioHashString,std::allocator<ioHashString> >,std::less<int>,std::allocator<std::pair<int const ,std::vector<ioHashString,std::allocator<ioHashString> > > >,0> >::erase
; Function compile flags: /Ogsp
;	COMDAT ?erase@?$_Tree@V?$_Tmap_traits@HV?$vector@VioHashString@@V?$allocator@VioHashString@@@std@@@std@@U?$less@H@2@V?$allocator@U?$pair@$$CBHV?$vector@VioHashString@@V?$allocator@VioHashString@@@std@@@std@@@std@@@2@$0A@@std@@@std@@QAE?AV?$_Tree_iterator@V?$_Tree_val@V?$_Tmap_traits@HV?$vector@VioHashString@@V?$allocator@VioHashString@@@std@@@std@@U?$less@H@2@V?$allocator@U?$pair@$$CBHV?$vector@VioHashString@@V?$allocator@VioHashString@@@std@@@std@@@std@@@2@$0A@@std@@@std@@@2@V?$_Tree_const_iterator@V?$_Tree_val@V?$_Tmap_traits@HV?$vector@VioHashString@@V?$allocator@VioHashString@@@std@@@std@@U?$less@H@2@V?$allocator@U?$pair@$$CBHV?$vector@VioHashString@@V?$allocator@VioHashString@@@std@@@std@@@std@@@2@$0A@@std@@@std@@@2@0@Z
_TEXT	SEGMENT
$T517049 = -4						; size = 4
___$ReturnUdt$ = 8					; size = 4
__First$ = 12						; size = 4
__Last$ = 16						; size = 4
?erase@?$_Tree@V?$_Tmap_traits@HV?$vector@VioHashString@@V?$allocator@VioHashString@@@std@@@std@@U?$less@H@2@V?$allocator@U?$pair@$$CBHV?$vector@VioHashString@@V?$allocator@VioHashString@@@std@@@std@@@std@@@2@$0A@@std@@@std@@QAE?AV?$_Tree_iterator@V?$_Tree_val@V?$_Tmap_traits@HV?$vector@VioHashString@@V?$allocator@VioHashString@@@std@@@std@@U?$less@H@2@V?$allocator@U?$pair@$$CBHV?$vector@VioHashString@@V?$allocator@VioHashString@@@std@@@std@@@std@@@2@$0A@@std@@@std@@@2@V?$_Tree_const_iterator@V?$_Tree_val@V?$_Tmap_traits@HV?$vector@VioHashString@@V?$allocator@VioHashString@@@std@@@std@@U?$less@H@2@V?$allocator@U?$pair@$$CBHV?$vector@VioHashString@@V?$allocator@VioHashString@@@std@@@std@@@std@@@2@$0A@@std@@@std@@@2@0@Z PROC ; std::_Tree<std::_Tmap_traits<int,std::vector<ioHashString,std::allocator<ioHashString> >,std::less<int>,std::allocator<std::pair<int const ,std::vector<ioHashString,std::allocator<ioHashString> > > >,0> >::erase, COMDAT
; _this$ = ecx

; 1379 : 		{	// erase [_First, _Last)

  00000	55		 push	 ebp
  00001	8b ec		 mov	 ebp, esp
  00003	51		 push	 ecx
  00004	56		 push	 esi
  00005	8b f1		 mov	 esi, ecx

; 1380 : 		if (_First == begin() && _Last == end())

  00007	8b 46 04	 mov	 eax, DWORD PTR [esi+4]
  0000a	8b 4d 0c	 mov	 ecx, DWORD PTR __First$[ebp]
  0000d	3b 08		 cmp	 ecx, DWORD PTR [eax]
  0000f	75 13		 jne	 SHORT $LN65@erase@3
  00011	39 45 10	 cmp	 DWORD PTR __Last$[ebp], eax
  00014	75 0e		 jne	 SHORT $LN65@erase@3

; 1381 : 			{	// erase all
; 1382 : 			clear();

  00016	8b ce		 mov	 ecx, esi
  00018	e8 00 00 00 00	 call	 ?clear@?$_Tree@V?$_Tmap_traits@HV?$vector@VioHashString@@V?$allocator@VioHashString@@@std@@@std@@U?$less@H@2@V?$allocator@U?$pair@$$CBHV?$vector@VioHashString@@V?$allocator@VioHashString@@@std@@@std@@@std@@@2@$0A@@std@@@std@@QAEXXZ ; std::_Tree<std::_Tmap_traits<int,std::vector<ioHashString,std::allocator<ioHashString> >,std::less<int>,std::allocator<std::pair<int const ,std::vector<ioHashString,std::allocator<ioHashString> > > >,0> >::clear

; 1383 : 			return (begin());

  0001d	8b 46 04	 mov	 eax, DWORD PTR [esi+4]
  00020	8b 08		 mov	 ecx, DWORD PTR [eax]
  00022	eb 25		 jmp	 SHORT $LN1@erase@3
$LN65@erase@3:

; 1384 : 			}
; 1385 : 		else
; 1386 : 			{	// partial erase, one at a time
; 1387 : 			while (_First != _Last)

  00024	3b 4d 10	 cmp	 ecx, DWORD PTR __Last$[ebp]
  00027	74 20		 je	 SHORT $LN1@erase@3
  00029	57		 push	 edi
$LL2@erase@3:

; 1388 : 				erase(_First++);

  0002a	8b f9		 mov	 edi, ecx
  0002c	8d 4d 0c	 lea	 ecx, DWORD PTR __First$[ebp]
  0002f	e8 00 00 00 00	 call	 ??E?$_Tree_unchecked_const_iterator@V?$_Tree_val@V?$_Tmap_traits@HV?$vector@VioHashString@@V?$allocator@VioHashString@@@std@@@std@@U?$less@H@2@V?$allocator@U?$pair@$$CBHV?$vector@VioHashString@@V?$allocator@VioHashString@@@std@@@std@@@std@@@2@$0A@@std@@@std@@U_Iterator_base0@2@@std@@QAEAAV01@XZ ; std::_Tree_unchecked_const_iterator<std::_Tree_val<std::_Tmap_traits<int,std::vector<ioHashString,std::allocator<ioHashString> >,std::less<int>,std::allocator<std::pair<int const ,std::vector<ioHashString,std::allocator<ioHashString> > > >,0> >,std::_Iterator_base0>::operator++
  00034	57		 push	 edi
  00035	8d 45 fc	 lea	 eax, DWORD PTR $T517049[ebp]
  00038	50		 push	 eax
  00039	8b ce		 mov	 ecx, esi
  0003b	e8 00 00 00 00	 call	 ?erase@?$_Tree@V?$_Tmap_traits@HV?$vector@VioHashString@@V?$allocator@VioHashString@@@std@@@std@@U?$less@H@2@V?$allocator@U?$pair@$$CBHV?$vector@VioHashString@@V?$allocator@VioHashString@@@std@@@std@@@std@@@2@$0A@@std@@@std@@QAE?AV?$_Tree_iterator@V?$_Tree_val@V?$_Tmap_traits@HV?$vector@VioHashString@@V?$allocator@VioHashString@@@std@@@std@@U?$less@H@2@V?$allocator@U?$pair@$$CBHV?$vector@VioHashString@@V?$allocator@VioHashString@@@std@@@std@@@std@@@2@$0A@@std@@@std@@@2@V?$_Tree_const_iterator@V?$_Tree_val@V?$_Tmap_traits@HV?$vector@VioHashString@@V?$allocator@VioHashString@@@std@@@std@@U?$less@H@2@V?$allocator@U?$pair@$$CBHV?$vector@VioHashString@@V?$allocator@VioHashString@@@std@@@std@@@std@@@2@$0A@@std@@@std@@@2@@Z ; std::_Tree<std::_Tmap_traits<int,std::vector<ioHashString,std::allocator<ioHashString> >,std::less<int>,std::allocator<std::pair<int const ,std::vector<ioHashString,std::allocator<ioHashString> > > >,0> >::erase
  00040	8b 4d 0c	 mov	 ecx, DWORD PTR __First$[ebp]
  00043	3b 4d 10	 cmp	 ecx, DWORD PTR __Last$[ebp]
  00046	75 e2		 jne	 SHORT $LL2@erase@3
  00048	5f		 pop	 edi
$LN1@erase@3:

; 1389 : 			return (iterator(_First._Ptr, this));

  00049	8b 45 08	 mov	 eax, DWORD PTR ___$ReturnUdt$[ebp]
  0004c	89 08		 mov	 DWORD PTR [eax], ecx
  0004e	5e		 pop	 esi

; 1390 : 			}
; 1391 : 		}

  0004f	c9		 leave
  00050	c2 0c 00	 ret	 12			; 0000000cH
?erase@?$_Tree@V?$_Tmap_traits@HV?$vector@VioHashString@@V?$allocator@VioHashString@@@std@@@std@@U?$less@H@2@V?$allocator@U?$pair@$$CBHV?$vector@VioHashString@@V?$allocator@VioHashString@@@std@@@std@@@std@@@2@$0A@@std@@@std@@QAE?AV?$_Tree_iterator@V?$_Tree_val@V?$_Tmap_traits@HV?$vector@VioHashString@@V?$allocator@VioHashString@@@std@@@std@@U?$less@H@2@V?$allocator@U?$pair@$$CBHV?$vector@VioHashString@@V?$allocator@VioHashString@@@std@@@std@@@std@@@2@$0A@@std@@@std@@@2@V?$_Tree_const_iterator@V?$_Tree_val@V?$_Tmap_traits@HV?$vector@VioHashString@@V?$allocator@VioHashString@@@std@@@std@@U?$less@H@2@V?$allocator@U?$pair@$$CBHV?$vector@VioHashString@@V?$allocator@VioHashString@@@std@@@std@@@std@@@2@$0A@@std@@@std@@@2@0@Z ENDP ; std::_Tree<std::_Tmap_traits<int,std::vector<ioHashString,std::allocator<ioHashString> >,std::less<int>,std::allocator<std::pair<int const ,std::vector<ioHashString,std::allocator<ioHashString> > > >,0> >::erase
_TEXT	ENDS
PUBLIC	??$insert@U?$pair@$$CBHV?$vector@VioHashString@@V?$allocator@VioHashString@@@std@@@std@@@std@@@?$_Tree@V?$_Tmap_traits@HV?$vector@VioHashString@@V?$allocator@VioHashString@@@std@@@std@@U?$less@H@2@V?$allocator@U?$pair@$$CBHV?$vector@VioHashString@@V?$allocator@VioHashString@@@std@@@std@@@std@@@2@$0A@@std@@@std@@QAE?AV?$_Tree_iterator@V?$_Tree_val@V?$_Tmap_traits@HV?$vector@VioHashString@@V?$allocator@VioHashString@@@std@@@std@@U?$less@H@2@V?$allocator@U?$pair@$$CBHV?$vector@VioHashString@@V?$allocator@VioHashString@@@std@@@std@@@std@@@2@$0A@@std@@@std@@@1@V?$_Tree_const_iterator@V?$_Tree_val@V?$_Tmap_traits@HV?$vector@VioHashString@@V?$allocator@VioHashString@@@std@@@std@@U?$less@H@2@V?$allocator@U?$pair@$$CBHV?$vector@VioHashString@@V?$allocator@VioHashString@@@std@@@std@@@std@@@2@$0A@@std@@@std@@@1@$$QAU?$pair@$$CBHV?$vector@VioHashString@@V?$allocator@VioHashString@@@std@@@std@@@1@@Z ; std::_Tree<std::_Tmap_traits<int,std::vector<ioHashString,std::allocator<ioHashString> >,std::less<int>,std::allocator<std::pair<int const ,std::vector<ioHashString,std::allocator<ioHashString> > > >,0> >::insert<std::pair<int const ,std::vector<ioHashString,std::allocator<ioHashString> > > >
; Function compile flags: /Ogsp
;	COMDAT ??$insert@U?$pair@$$CBHV?$vector@VioHashString@@V?$allocator@VioHashString@@@std@@@std@@@std@@@?$_Tree@V?$_Tmap_traits@HV?$vector@VioHashString@@V?$allocator@VioHashString@@@std@@@std@@U?$less@H@2@V?$allocator@U?$pair@$$CBHV?$vector@VioHashString@@V?$allocator@VioHashString@@@std@@@std@@@std@@@2@$0A@@std@@@std@@QAE?AV?$_Tree_iterator@V?$_Tree_val@V?$_Tmap_traits@HV?$vector@VioHashString@@V?$allocator@VioHashString@@@std@@@std@@U?$less@H@2@V?$allocator@U?$pair@$$CBHV?$vector@VioHashString@@V?$allocator@VioHashString@@@std@@@std@@@std@@@2@$0A@@std@@@std@@@1@V?$_Tree_const_iterator@V?$_Tree_val@V?$_Tmap_traits@HV?$vector@VioHashString@@V?$allocator@VioHashString@@@std@@@std@@U?$less@H@2@V?$allocator@U?$pair@$$CBHV?$vector@VioHashString@@V?$allocator@VioHashString@@@std@@@std@@@std@@@2@$0A@@std@@@std@@@1@$$QAU?$pair@$$CBHV?$vector@VioHashString@@V?$allocator@VioHashString@@@std@@@std@@@1@@Z
_TEXT	SEGMENT
___$ReturnUdt$ = 8					; size = 4
__Where$ = 12						; size = 4
__Val$ = 16						; size = 4
??$insert@U?$pair@$$CBHV?$vector@VioHashString@@V?$allocator@VioHashString@@@std@@@std@@@std@@@?$_Tree@V?$_Tmap_traits@HV?$vector@VioHashString@@V?$allocator@VioHashString@@@std@@@std@@U?$less@H@2@V?$allocator@U?$pair@$$CBHV?$vector@VioHashString@@V?$allocator@VioHashString@@@std@@@std@@@std@@@2@$0A@@std@@@std@@QAE?AV?$_Tree_iterator@V?$_Tree_val@V?$_Tmap_traits@HV?$vector@VioHashString@@V?$allocator@VioHashString@@@std@@@std@@U?$less@H@2@V?$allocator@U?$pair@$$CBHV?$vector@VioHashString@@V?$allocator@VioHashString@@@std@@@std@@@std@@@2@$0A@@std@@@std@@@1@V?$_Tree_const_iterator@V?$_Tree_val@V?$_Tmap_traits@HV?$vector@VioHashString@@V?$allocator@VioHashString@@@std@@@std@@U?$less@H@2@V?$allocator@U?$pair@$$CBHV?$vector@VioHashString@@V?$allocator@VioHashString@@@std@@@std@@@std@@@2@$0A@@std@@@std@@@1@$$QAU?$pair@$$CBHV?$vector@VioHashString@@V?$allocator@VioHashString@@@std@@@std@@@1@@Z PROC ; std::_Tree<std::_Tmap_traits<int,std::vector<ioHashString,std::allocator<ioHashString> >,std::less<int>,std::allocator<std::pair<int const ,std::vector<ioHashString,std::allocator<ioHashString> > > >,0> >::insert<std::pair<int const ,std::vector<ioHashString,std::allocator<ioHashString> > > >, COMDAT
; _this$ = ecx

; 760  : 		typename _STD tr1::enable_if<!_STD tr1::is_same<const_iterator,

  00000	55		 push	 ebp
  00001	8b ec		 mov	 ebp, esp
  00003	56		 push	 esi

; 761  : 			typename _STD tr1::remove_reference<_Valty>::type>::value,
; 762  : 				iterator>::type
; 763  : 		insert(const_iterator _Where,
; 764  : 			_Valty&& _Val)
; 765  : 		{	// try to insert node with value _Val using _Where as a hint
; 766  : 		return (_Insert(_Where,
; 767  : 			this->_Buynode(_STD forward<_Valty>(_Val))));

  00004	ff 75 10	 push	 DWORD PTR __Val$[ebp]
  00007	8b f1		 mov	 esi, ecx
  00009	e8 00 00 00 00	 call	 ??$_Buynode@U?$pair@$$CBHV?$vector@VioHashString@@V?$allocator@VioHashString@@@std@@@std@@@std@@@?$_Tree_val@V?$_Tmap_traits@HV?$vector@VioHashString@@V?$allocator@VioHashString@@@std@@@std@@U?$less@H@2@V?$allocator@U?$pair@$$CBHV?$vector@VioHashString@@V?$allocator@VioHashString@@@std@@@std@@@std@@@2@$0A@@std@@@std@@QAEPAU_Node@?$_Tree_nod@V?$_Tmap_traits@HV?$vector@VioHashString@@V?$allocator@VioHashString@@@std@@@std@@U?$less@H@2@V?$allocator@U?$pair@$$CBHV?$vector@VioHashString@@V?$allocator@VioHashString@@@std@@@std@@@std@@@2@$0A@@std@@@1@$$QAU?$pair@$$CBHV?$vector@VioHashString@@V?$allocator@VioHashString@@@std@@@std@@@1@@Z ; std::_Tree_val<std::_Tmap_traits<int,std::vector<ioHashString,std::allocator<ioHashString> >,std::less<int>,std::allocator<std::pair<int const ,std::vector<ioHashString,std::allocator<ioHashString> > > >,0> >::_Buynode<std::pair<int const ,std::vector<ioHashString,std::allocator<ioHashString> > > >
  0000e	50		 push	 eax
  0000f	ff 75 0c	 push	 DWORD PTR __Where$[ebp]
  00012	8b ce		 mov	 ecx, esi
  00014	ff 75 08	 push	 DWORD PTR ___$ReturnUdt$[ebp]
  00017	e8 00 00 00 00	 call	 ?_Insert@?$_Tree@V?$_Tmap_traits@HV?$vector@VioHashString@@V?$allocator@VioHashString@@@std@@@std@@U?$less@H@2@V?$allocator@U?$pair@$$CBHV?$vector@VioHashString@@V?$allocator@VioHashString@@@std@@@std@@@std@@@2@$0A@@std@@@std@@QAE?AV?$_Tree_iterator@V?$_Tree_val@V?$_Tmap_traits@HV?$vector@VioHashString@@V?$allocator@VioHashString@@@std@@@std@@U?$less@H@2@V?$allocator@U?$pair@$$CBHV?$vector@VioHashString@@V?$allocator@VioHashString@@@std@@@std@@@std@@@2@$0A@@std@@@std@@@2@V?$_Tree_const_iterator@V?$_Tree_val@V?$_Tmap_traits@HV?$vector@VioHashString@@V?$allocator@VioHashString@@@std@@@std@@U?$less@H@2@V?$allocator@U?$pair@$$CBHV?$vector@VioHashString@@V?$allocator@VioHashString@@@std@@@std@@@std@@@2@$0A@@std@@@std@@@2@PAU_Node@?$_Tree_nod@V?$_Tmap_traits@HV?$vector@VioHashString@@V?$allocator@VioHashString@@@std@@@std@@U?$less@H@2@V?$allocator@U?$pair@$$CBHV?$vector@VioHashString@@V?$allocator@VioHashString@@@std@@@std@@@std@@@2@$0A@@std@@@2@@Z ; std::_Tree<std::_Tmap_traits<int,std::vector<ioHashString,std::allocator<ioHashString> >,std::less<int>,std::allocator<std::pair<int const ,std::vector<ioHashString,std::allocator<ioHashString> > > >,0> >::_Insert
  0001c	8b 45 08	 mov	 eax, DWORD PTR ___$ReturnUdt$[ebp]
  0001f	5e		 pop	 esi

; 768  : 		}

  00020	5d		 pop	 ebp
  00021	c2 0c 00	 ret	 12			; 0000000cH
??$insert@U?$pair@$$CBHV?$vector@VioHashString@@V?$allocator@VioHashString@@@std@@@std@@@std@@@?$_Tree@V?$_Tmap_traits@HV?$vector@VioHashString@@V?$allocator@VioHashString@@@std@@@std@@U?$less@H@2@V?$allocator@U?$pair@$$CBHV?$vector@VioHashString@@V?$allocator@VioHashString@@@std@@@std@@@std@@@2@$0A@@std@@@std@@QAE?AV?$_Tree_iterator@V?$_Tree_val@V?$_Tmap_traits@HV?$vector@VioHashString@@V?$allocator@VioHashString@@@std@@@std@@U?$less@H@2@V?$allocator@U?$pair@$$CBHV?$vector@VioHashString@@V?$allocator@VioHashString@@@std@@@std@@@std@@@2@$0A@@std@@@std@@@1@V?$_Tree_const_iterator@V?$_Tree_val@V?$_Tmap_traits@HV?$vector@VioHashString@@V?$allocator@VioHashString@@@std@@@std@@U?$less@H@2@V?$allocator@U?$pair@$$CBHV?$vector@VioHashString@@V?$allocator@VioHashString@@@std@@@std@@@std@@@2@$0A@@std@@@std@@@1@$$QAU?$pair@$$CBHV?$vector@VioHashString@@V?$allocator@VioHashString@@@std@@@std@@@1@@Z ENDP ; std::_Tree<std::_Tmap_traits<int,std::vector<ioHashString,std::allocator<ioHashString> >,std::less<int>,std::allocator<std::pair<int const ,std::vector<ioHashString,std::allocator<ioHashString> > > >,0> >::insert<std::pair<int const ,std::vector<ioHashString,std::allocator<ioHashString> > > >
_TEXT	ENDS
PUBLIC	??A?$map@HV?$vector@VioHashString@@V?$allocator@VioHashString@@@std@@@std@@U?$less@H@2@V?$allocator@U?$pair@$$CBHV?$vector@VioHashString@@V?$allocator@VioHashString@@@std@@@std@@@std@@@2@@std@@QAEAAV?$vector@VioHashString@@V?$allocator@VioHashString@@@std@@@1@ABH@Z ; std::map<int,std::vector<ioHashString,std::allocator<ioHashString> >,std::less<int>,std::allocator<std::pair<int const ,std::vector<ioHashString,std::allocator<ioHashString> > > > >::operator[]
;	COMDAT xdata$x
xdata$x	SEGMENT
__unwindtable$??A?$map@HV?$vector@VioHashString@@V?$allocator@VioHashString@@@std@@@std@@U?$less@H@2@V?$allocator@U?$pair@$$CBHV?$vector@VioHashString@@V?$allocator@VioHashString@@@std@@@std@@@std@@@2@@std@@QAEAAV?$vector@VioHashString@@V?$allocator@VioHashString@@@std@@@1@ABH@Z DD 0ffffffffH
	DD	FLAT:__unwindfunclet$??A?$map@HV?$vector@VioHashString@@V?$allocator@VioHashString@@@std@@@std@@U?$less@H@2@V?$allocator@U?$pair@$$CBHV?$vector@VioHashString@@V?$allocator@VioHashString@@@std@@@std@@@std@@@2@@std@@QAEAAV?$vector@VioHashString@@V?$allocator@VioHashString@@@std@@@1@ABH@Z$0
	DD	00H
	DD	FLAT:__unwindfunclet$??A?$map@HV?$vector@VioHashString@@V?$allocator@VioHashString@@@std@@@std@@U?$less@H@2@V?$allocator@U?$pair@$$CBHV?$vector@VioHashString@@V?$allocator@VioHashString@@@std@@@std@@@std@@@2@@std@@QAEAAV?$vector@VioHashString@@V?$allocator@VioHashString@@@std@@@1@ABH@Z$1
__ehfuncinfo$??A?$map@HV?$vector@VioHashString@@V?$allocator@VioHashString@@@std@@@std@@U?$less@H@2@V?$allocator@U?$pair@$$CBHV?$vector@VioHashString@@V?$allocator@VioHashString@@@std@@@std@@@std@@@2@@std@@QAEAAV?$vector@VioHashString@@V?$allocator@VioHashString@@@std@@@1@ABH@Z DD 019930522H
	DD	02H
	DD	FLAT:__unwindtable$??A?$map@HV?$vector@VioHashString@@V?$allocator@VioHashString@@@std@@@std@@U?$less@H@2@V?$allocator@U?$pair@$$CBHV?$vector@VioHashString@@V?$allocator@VioHashString@@@std@@@std@@@std@@@2@@std@@QAEAAV?$vector@VioHashString@@V?$allocator@VioHashString@@@std@@@1@ABH@Z
	DD	2 DUP(00H)
	DD	2 DUP(00H)
	DD	00H
	DD	01H
; Function compile flags: /Ogsp
; File c:\program files (x86)\microsoft visual studio 10.0\vc\include\map
xdata$x	ENDS
;	COMDAT ??A?$map@HV?$vector@VioHashString@@V?$allocator@VioHashString@@@std@@@std@@U?$less@H@2@V?$allocator@U?$pair@$$CBHV?$vector@VioHashString@@V?$allocator@VioHashString@@@std@@@std@@@std@@@2@@std@@QAEAAV?$vector@VioHashString@@V?$allocator@VioHashString@@@std@@@1@ABH@Z
_TEXT	SEGMENT
$T517242 = -48						; size = 20
$T517243 = -28						; size = 16
__$EHRec$ = -12						; size = 12
$T517245 = 8						; size = 4
__Keyval$ = 8						; size = 4
??A?$map@HV?$vector@VioHashString@@V?$allocator@VioHashString@@@std@@@std@@U?$less@H@2@V?$allocator@U?$pair@$$CBHV?$vector@VioHashString@@V?$allocator@VioHashString@@@std@@@std@@@std@@@2@@std@@QAEAAV?$vector@VioHashString@@V?$allocator@VioHashString@@@std@@@1@ABH@Z PROC ; std::map<int,std::vector<ioHashString,std::allocator<ioHashString> >,std::less<int>,std::allocator<std::pair<int const ,std::vector<ioHashString,std::allocator<ioHashString> > > > >::operator[], COMDAT
; _this$ = ecx

; 210  : 		{	// find element matching _Keyval or insert with default mapped

  00000	6a 24		 push	 36			; 00000024H
  00002	b8 00 00 00 00	 mov	 eax, __ehhandler$??A?$map@HV?$vector@VioHashString@@V?$allocator@VioHashString@@@std@@@std@@U?$less@H@2@V?$allocator@U?$pair@$$CBHV?$vector@VioHashString@@V?$allocator@VioHashString@@@std@@@std@@@std@@@2@@std@@QAEAAV?$vector@VioHashString@@V?$allocator@VioHashString@@@std@@@1@ABH@Z
  00007	e8 00 00 00 00	 call	 __EH_prolog3
  0000c	8b f9		 mov	 edi, ecx

; 211  : 		iterator _Where = this->lower_bound(_Keyval);

  0000e	8b 5d 08	 mov	 ebx, DWORD PTR __Keyval$[ebp]
  00011	53		 push	 ebx
  00012	e8 00 00 00 00	 call	 ?_Lbound@?$_Tree@V?$_Tmap_traits@HV?$vector@VioHashString@@V?$allocator@VioHashString@@@std@@@std@@U?$less@H@2@V?$allocator@U?$pair@$$CBHV?$vector@VioHashString@@V?$allocator@VioHashString@@@std@@@std@@@std@@@2@$0A@@std@@@std@@IAEPAU_Node@?$_Tree_nod@V?$_Tmap_traits@HV?$vector@VioHashString@@V?$allocator@VioHashString@@@std@@@std@@U?$less@H@2@V?$allocator@U?$pair@$$CBHV?$vector@VioHashString@@V?$allocator@VioHashString@@@std@@@std@@@std@@@2@$0A@@std@@@2@ABH@Z ; std::_Tree<std::_Tmap_traits<int,std::vector<ioHashString,std::allocator<ioHashString> >,std::less<int>,std::allocator<std::pair<int const ,std::vector<ioHashString,std::allocator<ioHashString> > > >,0> >::_Lbound
  00017	8b f0		 mov	 esi, eax

; 212  : 		if (_Where == this->end()
; 213  : 			|| this->comp(_Keyval, this->_Key(_Where._Mynode())))

  00019	3b 77 04	 cmp	 esi, DWORD PTR [edi+4]
  0001c	74 07		 je	 SHORT $LN1@operator@4
  0001e	8b 03		 mov	 eax, DWORD PTR [ebx]
  00020	3b 46 0c	 cmp	 eax, DWORD PTR [esi+12]
  00023	7d 61		 jge	 SHORT $LN81@operator@4
$LN1@operator@4:

; 214  : 			_Where = this->insert(_Where,
; 215  : 				value_type(_Keyval, mapped_type()));

  00025	33 db		 xor	 ebx, ebx
  00027	89 5d e4	 mov	 DWORD PTR $T517243[ebp], ebx
  0002a	89 5d e8	 mov	 DWORD PTR $T517243[ebp+4], ebx
  0002d	89 5d ec	 mov	 DWORD PTR $T517243[ebp+8], ebx
  00030	8b 45 08	 mov	 eax, DWORD PTR __Keyval$[ebp]
  00033	8b 00		 mov	 eax, DWORD PTR [eax]
  00035	89 45 d0	 mov	 DWORD PTR $T517242[ebp], eax
  00038	8d 45 e4	 lea	 eax, DWORD PTR $T517243[ebp]
  0003b	50		 push	 eax
  0003c	8d 4d d4	 lea	 ecx, DWORD PTR $T517242[ebp+4]
  0003f	89 5d fc	 mov	 DWORD PTR __$EHRec$[ebp+8], ebx
  00042	89 5d d4	 mov	 DWORD PTR $T517242[ebp+4], ebx
  00045	89 5d d8	 mov	 DWORD PTR $T517242[ebp+8], ebx
  00048	89 5d dc	 mov	 DWORD PTR $T517242[ebp+12], ebx
  0004b	e8 00 00 00 00	 call	 ?_Assign_rv@?$vector@VioHashString@@V?$allocator@VioHashString@@@std@@@std@@QAEX$$QAV12@@Z ; std::vector<ioHashString,std::allocator<ioHashString> >::_Assign_rv
  00050	8d 45 d0	 lea	 eax, DWORD PTR $T517242[ebp]
  00053	50		 push	 eax
  00054	8b cf		 mov	 ecx, edi
  00056	c6 45 fc 01	 mov	 BYTE PTR __$EHRec$[ebp+8], 1
  0005a	e8 00 00 00 00	 call	 ??$_Buynode@U?$pair@$$CBHV?$vector@VioHashString@@V?$allocator@VioHashString@@@std@@@std@@@std@@@?$_Tree_val@V?$_Tmap_traits@HV?$vector@VioHashString@@V?$allocator@VioHashString@@@std@@@std@@U?$less@H@2@V?$allocator@U?$pair@$$CBHV?$vector@VioHashString@@V?$allocator@VioHashString@@@std@@@std@@@std@@@2@$0A@@std@@@std@@QAEPAU_Node@?$_Tree_nod@V?$_Tmap_traits@HV?$vector@VioHashString@@V?$allocator@VioHashString@@@std@@@std@@U?$less@H@2@V?$allocator@U?$pair@$$CBHV?$vector@VioHashString@@V?$allocator@VioHashString@@@std@@@std@@@std@@@2@$0A@@std@@@1@$$QAU?$pair@$$CBHV?$vector@VioHashString@@V?$allocator@VioHashString@@@std@@@std@@@1@@Z ; std::_Tree_val<std::_Tmap_traits<int,std::vector<ioHashString,std::allocator<ioHashString> >,std::less<int>,std::allocator<std::pair<int const ,std::vector<ioHashString,std::allocator<ioHashString> > > >,0> >::_Buynode<std::pair<int const ,std::vector<ioHashString,std::allocator<ioHashString> > > >
  0005f	50		 push	 eax
  00060	56		 push	 esi
  00061	8d 45 08	 lea	 eax, DWORD PTR $T517245[ebp]
  00064	50		 push	 eax
  00065	8b cf		 mov	 ecx, edi
  00067	e8 00 00 00 00	 call	 ?_Insert@?$_Tree@V?$_Tmap_traits@HV?$vector@VioHashString@@V?$allocator@VioHashString@@@std@@@std@@U?$less@H@2@V?$allocator@U?$pair@$$CBHV?$vector@VioHashString@@V?$allocator@VioHashString@@@std@@@std@@@std@@@2@$0A@@std@@@std@@QAE?AV?$_Tree_iterator@V?$_Tree_val@V?$_Tmap_traits@HV?$vector@VioHashString@@V?$allocator@VioHashString@@@std@@@std@@U?$less@H@2@V?$allocator@U?$pair@$$CBHV?$vector@VioHashString@@V?$allocator@VioHashString@@@std@@@std@@@std@@@2@$0A@@std@@@std@@@2@V?$_Tree_const_iterator@V?$_Tree_val@V?$_Tmap_traits@HV?$vector@VioHashString@@V?$allocator@VioHashString@@@std@@@std@@U?$less@H@2@V?$allocator@U?$pair@$$CBHV?$vector@VioHashString@@V?$allocator@VioHashString@@@std@@@std@@@std@@@2@$0A@@std@@@std@@@2@PAU_Node@?$_Tree_nod@V?$_Tmap_traits@HV?$vector@VioHashString@@V?$allocator@VioHashString@@@std@@@std@@U?$less@H@2@V?$allocator@U?$pair@$$CBHV?$vector@VioHashString@@V?$allocator@VioHashString@@@std@@@std@@@std@@@2@$0A@@std@@@2@@Z ; std::_Tree<std::_Tmap_traits<int,std::vector<ioHashString,std::allocator<ioHashString> >,std::less<int>,std::allocator<std::pair<int const ,std::vector<ioHashString,std::allocator<ioHashString> > > >,0> >::_Insert
  0006c	8b 75 08	 mov	 esi, DWORD PTR $T517245[ebp]
  0006f	8d 4d d4	 lea	 ecx, DWORD PTR $T517242[ebp+4]
  00072	88 5d fc	 mov	 BYTE PTR __$EHRec$[ebp+8], bl
  00075	e8 00 00 00 00	 call	 ?_Tidy@?$vector@VioHashString@@V?$allocator@VioHashString@@@std@@@std@@IAEXXZ ; std::vector<ioHashString,std::allocator<ioHashString> >::_Tidy
  0007a	83 4d fc ff	 or	 DWORD PTR __$EHRec$[ebp+8], -1
  0007e	8d 4d e4	 lea	 ecx, DWORD PTR $T517243[ebp]
  00081	e8 00 00 00 00	 call	 ?_Tidy@?$vector@VioHashString@@V?$allocator@VioHashString@@@std@@@std@@IAEXXZ ; std::vector<ioHashString,std::allocator<ioHashString> >::_Tidy
$LN81@operator@4:

; 216  : 		return ((*_Where).second);

  00086	8d 46 10	 lea	 eax, DWORD PTR [esi+16]

; 217  : 		}

  00089	e8 00 00 00 00	 call	 __EH_epilog3
  0008e	c2 04 00	 ret	 4
_TEXT	ENDS
;	COMDAT text$x
text$x	SEGMENT
__unwindfunclet$??A?$map@HV?$vector@VioHashString@@V?$allocator@VioHashString@@@std@@@std@@U?$less@H@2@V?$allocator@U?$pair@$$CBHV?$vector@VioHashString@@V?$allocator@VioHashString@@@std@@@std@@@std@@@2@@std@@QAEAAV?$vector@VioHashString@@V?$allocator@VioHashString@@@std@@@1@ABH@Z$0:
  00000	8d 4d e4	 lea	 ecx, DWORD PTR $T517243[ebp]
  00003	e9 00 00 00 00	 jmp	 ??1?$vector@VioHashString@@V?$allocator@VioHashString@@@std@@@std@@QAE@XZ ; std::vector<ioHashString,std::allocator<ioHashString> >::~vector<ioHashString,std::allocator<ioHashString> >
__unwindfunclet$??A?$map@HV?$vector@VioHashString@@V?$allocator@VioHashString@@@std@@@std@@U?$less@H@2@V?$allocator@U?$pair@$$CBHV?$vector@VioHashString@@V?$allocator@VioHashString@@@std@@@std@@@std@@@2@@std@@QAEAAV?$vector@VioHashString@@V?$allocator@VioHashString@@@std@@@1@ABH@Z$1:
  00008	8d 4d d0	 lea	 ecx, DWORD PTR $T517242[ebp]
  0000b	e9 00 00 00 00	 jmp	 ??1?$pair@$$CBHV?$vector@VioHashString@@V?$allocator@VioHashString@@@std@@@std@@@std@@QAE@XZ
__ehhandler$??A?$map@HV?$vector@VioHashString@@V?$allocator@VioHashString@@@std@@@std@@U?$less@H@2@V?$allocator@U?$pair@$$CBHV?$vector@VioHashString@@V?$allocator@VioHashString@@@std@@@std@@@std@@@2@@std@@QAEAAV?$vector@VioHashString@@V?$allocator@VioHashString@@@std@@@1@ABH@Z:
  00010	8b 54 24 08	 mov	 edx, DWORD PTR [esp+8]
  00014	8d 42 0c	 lea	 eax, DWORD PTR [edx+12]
  00017	8b 4a cc	 mov	 ecx, DWORD PTR [edx-52]
  0001a	33 c8		 xor	 ecx, eax
  0001c	e8 00 00 00 00	 call	 @__security_check_cookie@4
  00021	b8 00 00 00 00	 mov	 eax, OFFSET __ehfuncinfo$??A?$map@HV?$vector@VioHashString@@V?$allocator@VioHashString@@@std@@@std@@U?$less@H@2@V?$allocator@U?$pair@$$CBHV?$vector@VioHashString@@V?$allocator@VioHashString@@@std@@@std@@@std@@@2@@std@@QAEAAV?$vector@VioHashString@@V?$allocator@VioHashString@@@std@@@1@ABH@Z
  00026	e9 00 00 00 00	 jmp	 ___CxxFrameHandler3
text$x	ENDS
??A?$map@HV?$vector@VioHashString@@V?$allocator@VioHashString@@@std@@@std@@U?$less@H@2@V?$allocator@U?$pair@$$CBHV?$vector@VioHashString@@V?$allocator@VioHashString@@@std@@@std@@@std@@@2@@std@@QAEAAV?$vector@VioHashString@@V?$allocator@VioHashString@@@std@@@1@ABH@Z ENDP ; std::map<int,std::vector<ioHashString,std::allocator<ioHashString> >,std::less<int>,std::allocator<std::pair<int const ,std::vector<ioHashString,std::allocator<ioHashString> > > > >::operator[]
PUBLIC	?_Tidy@?$_Tree@V?$_Tmap_traits@HV?$vector@VioHashString@@V?$allocator@VioHashString@@@std@@@std@@U?$less@H@2@V?$allocator@U?$pair@$$CBHV?$vector@VioHashString@@V?$allocator@VioHashString@@@std@@@std@@@std@@@2@$0A@@std@@@std@@IAEXXZ ; std::_Tree<std::_Tmap_traits<int,std::vector<ioHashString,std::allocator<ioHashString> >,std::less<int>,std::allocator<std::pair<int const ,std::vector<ioHashString,std::allocator<ioHashString> > > >,0> >::_Tidy
; Function compile flags: /Ogsp
; File c:\program files (x86)\microsoft visual studio 10.0\vc\include\xtree
;	COMDAT ?_Tidy@?$_Tree@V?$_Tmap_traits@HV?$vector@VioHashString@@V?$allocator@VioHashString@@@std@@@std@@U?$less@H@2@V?$allocator@U?$pair@$$CBHV?$vector@VioHashString@@V?$allocator@VioHashString@@@std@@@std@@@std@@@2@$0A@@std@@@std@@IAEXXZ
_TEXT	SEGMENT
$T517511 = -4						; size = 4
?_Tidy@?$_Tree@V?$_Tmap_traits@HV?$vector@VioHashString@@V?$allocator@VioHashString@@@std@@@std@@U?$less@H@2@V?$allocator@U?$pair@$$CBHV?$vector@VioHashString@@V?$allocator@VioHashString@@@std@@@std@@@std@@@2@$0A@@std@@@std@@IAEXXZ PROC ; std::_Tree<std::_Tmap_traits<int,std::vector<ioHashString,std::allocator<ioHashString> >,std::less<int>,std::allocator<std::pair<int const ,std::vector<ioHashString,std::allocator<ioHashString> > > >,0> >::_Tidy, COMDAT
; _this$ = ecx

; 1865 : 		{	// free all storage

  00000	55		 push	 ebp
  00001	8b ec		 mov	 ebp, esp
  00003	51		 push	 ecx

; 1866 : 		erase(begin(), end());

  00004	8b 41 04	 mov	 eax, DWORD PTR [ecx+4]
  00007	8b 10		 mov	 edx, DWORD PTR [eax]
  00009	50		 push	 eax
  0000a	52		 push	 edx
  0000b	8d 45 fc	 lea	 eax, DWORD PTR $T517511[ebp]
  0000e	50		 push	 eax
  0000f	e8 00 00 00 00	 call	 ?erase@?$_Tree@V?$_Tmap_traits@HV?$vector@VioHashString@@V?$allocator@VioHashString@@@std@@@std@@U?$less@H@2@V?$allocator@U?$pair@$$CBHV?$vector@VioHashString@@V?$allocator@VioHashString@@@std@@@std@@@std@@@2@$0A@@std@@@std@@QAE?AV?$_Tree_iterator@V?$_Tree_val@V?$_Tmap_traits@HV?$vector@VioHashString@@V?$allocator@VioHashString@@@std@@@std@@U?$less@H@2@V?$allocator@U?$pair@$$CBHV?$vector@VioHashString@@V?$allocator@VioHashString@@@std@@@std@@@std@@@2@$0A@@std@@@std@@@2@V?$_Tree_const_iterator@V?$_Tree_val@V?$_Tmap_traits@HV?$vector@VioHashString@@V?$allocator@VioHashString@@@std@@@std@@U?$less@H@2@V?$allocator@U?$pair@$$CBHV?$vector@VioHashString@@V?$allocator@VioHashString@@@std@@@std@@@std@@@2@$0A@@std@@@std@@@2@0@Z ; std::_Tree<std::_Tmap_traits<int,std::vector<ioHashString,std::allocator<ioHashString> >,std::less<int>,std::allocator<std::pair<int const ,std::vector<ioHashString,std::allocator<ioHashString> > > >,0> >::erase

; 1867 : 		}

  00014	c9		 leave
  00015	c3		 ret	 0
?_Tidy@?$_Tree@V?$_Tmap_traits@HV?$vector@VioHashString@@V?$allocator@VioHashString@@@std@@@std@@U?$less@H@2@V?$allocator@U?$pair@$$CBHV?$vector@VioHashString@@V?$allocator@VioHashString@@@std@@@std@@@std@@@2@$0A@@std@@@std@@IAEXXZ ENDP ; std::_Tree<std::_Tmap_traits<int,std::vector<ioHashString,std::allocator<ioHashString> >,std::less<int>,std::allocator<std::pair<int const ,std::vector<ioHashString,std::allocator<ioHashString> > > >,0> >::_Tidy
_TEXT	ENDS
PUBLIC	??_C@_0BB@HDEEHLBN@change_face_type?$AA@	; `string'
PUBLIC	??_C@_03NFKEKGGK@all?$AA@			; `string'
PUBLIC	??_C@_00CNPNBAHC@?$AA@				; `string'
PUBLIC	_rkLoader$GSCopy$
PUBLIC	?LoadStaticValue@io3DCharEmoticon@@SAXAAVioINILoader@@@Z ; io3DCharEmoticon::LoadStaticValue
EXTRN	__imp__wsprintfA:PROC
EXTRN	__imp_??4ioHashString@@QAEAAV0@PBD@Z:PROC
EXTRN	__ftol2_sse:PROC
;	COMDAT ??_C@_0BB@HDEEHLBN@change_face_type?$AA@
; File c:\program files (x86)\microsoft visual studio 10.0\vc\include\vector
CONST	SEGMENT
??_C@_0BB@HDEEHLBN@change_face_type?$AA@ DB 'change_face_type', 00H ; `string'
CONST	ENDS
;	COMDAT ??_C@_03NFKEKGGK@all?$AA@
CONST	SEGMENT
??_C@_03NFKEKGGK@all?$AA@ DB 'all', 00H			; `string'
CONST	ENDS
;	COMDAT ??_C@_00CNPNBAHC@?$AA@
CONST	SEGMENT
??_C@_00CNPNBAHC@?$AA@ DB 00H				; `string'
CONST	ENDS
;	COMDAT xdata$x
xdata$x	SEGMENT
__unwindtable$?LoadStaticValue@io3DCharEmoticon@@SAXAAVioINILoader@@@Z DD 0ffffffffH
	DD	FLAT:__unwindfunclet$?LoadStaticValue@io3DCharEmoticon@@SAXAAVioINILoader@@@Z$0
	DD	00H
	DD	FLAT:__unwindfunclet$?LoadStaticValue@io3DCharEmoticon@@SAXAAVioINILoader@@@Z$1
__ehfuncinfo$?LoadStaticValue@io3DCharEmoticon@@SAXAAVioINILoader@@@Z DD 019930522H
	DD	02H
	DD	FLAT:__unwindtable$?LoadStaticValue@io3DCharEmoticon@@SAXAAVioINILoader@@@Z
	DD	2 DUP(00H)
	DD	2 DUP(00H)
	DD	00H
	DD	01H
; Function compile flags: /Ogsp
; File d:\lost saga for developer\youtube\tutorial\source\src\lsclient\io3dcharemoticon.cpp
xdata$x	ENDS
;	COMDAT ?LoadStaticValue@io3DCharEmoticon@@SAXAAVioINILoader@@@Z
_TEXT	SEGMENT
tv17538 = -1604						; size = 4
_iTalkSoundCount$506160 = -1600				; size = 4
tv17661 = -1596						; size = 4
_iLimitWord$506154 = -1592				; size = 4
$T517600 = -1588					; size = 16
_vSoundList$506168 = -1572				; size = 16
tv20670 = -1556						; size = 4
tv20632 = -1556						; size = 4
tv20617 = -1556						; size = 4
tv20606 = -1556						; size = 4
tv20596 = -1556						; size = 4
_iTalkLevelCount$ = -1556				; size = 4
_rkLoader$GSCopy$ = -1552				; size = 4
_szTitle$506000 = -1544					; size = 260
_szKey$506169 = -1284					; size = 260
_szBuf$506170 = -1024					; size = 260
_szBuf$ = -764						; size = 260
__k$519126 = -504					; size = 17
__t$517618 = -480					; size = 17
__k$518633 = -456					; size = 17
__k$518247 = -432					; size = 17
__k$519888 = -408					; size = 22
__k$518133 = -380					; size = 20
__k$519513 = -356					; size = 19
__k$519292 = -332					; size = 19
__k$518497 = -308					; size = 19
__k$519384 = -284					; size = 19
__k$518889 = -260					; size = 18
__k$519001 = -236					; size = 18
___encStr$506004 = -212					; size = 18
___encStr$506178 = -188					; size = 13
__k$518372 = -168					; size = 16
__k$518760 = -148					; size = 16
__k$519638 = -128					; size = 15
__k$517997 = -108					; size = 9
__k$517883 = -92					; size = 9
__k$520150 = -76					; size = 12
__k$520025 = -60					; size = 11
__t$519763 = -44					; size = 11
__k$517747 = -28					; size = 6
__$EHRec$ = -12						; size = 12
_rkLoader$ = 8						; size = 4
?LoadStaticValue@io3DCharEmoticon@@SAXAAVioINILoader@@@Z PROC ; io3DCharEmoticon::LoadStaticValue, COMDAT

; 55   : {

  00000	68 38 06 00 00	 push	 1592			; 00000638H
  00005	b8 00 00 00 00	 mov	 eax, __ehhandler$?LoadStaticValue@io3DCharEmoticon@@SAXAAVioINILoader@@@Z
  0000a	e8 00 00 00 00	 call	 __EH_prolog3_GS
  0000f	8b 75 08	 mov	 esi, DWORD PTR _rkLoader$[ebp]

; 56   : 	rkLoader.SetTitle_e( "3d_chat_emoticon" );

  00012	6a 04		 push	 4

; 96   : 		int iTalkSoundCount = rkLoader.LoadInt_e( "sound_count", 0 );

  00014	89 b5 f0 f9 ff
	ff		 mov	 DWORD PTR _rkLoader$GSCopy$[ebp], esi
  0001a	c7 85 20 fe ff
	ff de 88 b4 89	 mov	 DWORD PTR __t$517618[ebp], -1984657186 ; 89b488deH
  00024	c7 85 24 fe ff
	ff 85 8d 9f b5	 mov	 DWORD PTR __t$517618[ebp+4], -1247834747 ; b59f8d85H
  0002e	c7 85 28 fe ff
	ff 88 81 84 9e	 mov	 DWORD PTR __t$517618[ebp+8], -1635483256 ; 9e848188H
  00038	c7 85 2c fe ff
	ff 84 8f 84 84	 mov	 DWORD PTR __t$517618[ebp+12], -2071687292 ; 84848f84H
  00042	8d 85 20 fe ff
	ff		 lea	 eax, DWORD PTR __t$517618[ebp]
  00048	c6 85 30 fe ff
	ff 00		 mov	 BYTE PTR __t$517618[ebp+16], 0
  0004f	59		 pop	 ecx
  00050	bf ed ec eb ea	 mov	 edi, -353637139		; eaebecedH
$LL316@LoadStatic:

; 56   : 	rkLoader.SetTitle_e( "3d_chat_emoticon" );

  00055	31 38		 xor	 DWORD PTR [eax], edi
  00057	83 c0 04	 add	 eax, 4
  0005a	49		 dec	 ecx
  0005b	75 f8		 jne	 SHORT $LL316@LoadStatic
  0005d	8d 85 20 fe ff
	ff		 lea	 eax, DWORD PTR __t$517618[ebp]
  00063	50		 push	 eax
  00064	8b ce		 mov	 ecx, esi
  00066	ff 15 00 00 00
	00		 call	 DWORD PTR __imp_?SetTitle@ioINILoader@@QAEXPBD@Z

; 57   : 
; 58   : 	m_fCharScale = rkLoader.LoadFloat_e( "scale", FLOAT1 );

  0006c	b8 01 00 00 00	 mov	 eax, 1
  00071	c7 45 e4 9e 8f
	8a 86		 mov	 DWORD PTR __k$517747[ebp], -2037739618 ; 868a8f9eH
  00078	31 7d e4	 xor	 DWORD PTR __k$517747[ebp], edi
  0007b	89 85 ec f9 ff
	ff		 mov	 DWORD PTR tv20670[ebp], eax
  00081	db 85 ec f9 ff
	ff		 fild	 DWORD PTR tv20670[ebp]
  00087	66 c7 45 e8 65
	00		 mov	 WORD PTR __k$517747[ebp+4], 101 ; 00000065H
  0008d	85 c0		 test	 eax, eax
  0008f	79 06		 jns	 SHORT $LN2579@LoadStatic
  00091	d8 05 00 00 00
	00		 fadd	 DWORD PTR __real@4f800000
$LN2579@LoadStatic:
  00097	51		 push	 ecx
  00098	8d 45 e4	 lea	 eax, DWORD PTR __k$517747[ebp]
  0009b	d9 1c 24	 fstp	 DWORD PTR [esp]
  0009e	50		 push	 eax
  0009f	8b ce		 mov	 ecx, esi
  000a1	ff 15 00 00 00
	00		 call	 DWORD PTR __imp_?LoadFloat@ioINILoader@@QAEMPBDM@Z
  000a7	d9 1d 00 00 00
	00		 fstp	 DWORD PTR ?m_fCharScale@io3DCharEmoticon@@0MA ; io3DCharEmoticon::m_fCharScale
  000ad	6a 02		 push	 2

; 59   : 	m_iXOffset   = rkLoader.LoadInt_e( "x_offset", -40 );

  000af	c7 45 a4 95 b3
	84 8c		 mov	 DWORD PTR __k$517883[ebp], -1937460331 ; 8c84b395H
  000b6	c7 45 a8 8b 9f
	8e 9e		 mov	 DWORD PTR __k$517883[ebp+4], -1634820213 ; 9e8e9f8bH
  000bd	8d 45 a4	 lea	 eax, DWORD PTR __k$517883[ebp]
  000c0	c6 45 ac 00	 mov	 BYTE PTR __k$517883[ebp+8], 0
  000c4	59		 pop	 ecx
$LL530@LoadStatic:
  000c5	31 38		 xor	 DWORD PTR [eax], edi
  000c7	83 c0 04	 add	 eax, 4
  000ca	49		 dec	 ecx
  000cb	75 f8		 jne	 SHORT $LL530@LoadStatic
  000cd	8b 1d 00 00 00
	00		 mov	 ebx, DWORD PTR __imp_?LoadInt@ioINILoader@@QAEHPBDH@Z
  000d3	6a d8		 push	 -40			; ffffffd8H
  000d5	8d 45 a4	 lea	 eax, DWORD PTR __k$517883[ebp]
  000d8	50		 push	 eax
  000d9	8b ce		 mov	 ecx, esi
  000db	ff d3		 call	 ebx
  000dd	6a 02		 push	 2
  000df	a3 00 00 00 00	 mov	 DWORD PTR ?m_iXOffset@io3DCharEmoticon@@0HA, eax ; io3DCharEmoticon::m_iXOffset

; 60   : 	m_iYOffset   = rkLoader.LoadInt_e( "y_offset", -525 );

  000e4	c7 45 94 94 b3
	84 8c		 mov	 DWORD PTR __k$517997[ebp], -1937460332 ; 8c84b394H
  000eb	c7 45 98 8b 9f
	8e 9e		 mov	 DWORD PTR __k$517997[ebp+4], -1634820213 ; 9e8e9f8bH
  000f2	8d 45 94	 lea	 eax, DWORD PTR __k$517997[ebp]
  000f5	c6 45 9c 00	 mov	 BYTE PTR __k$517997[ebp+8], 0
  000f9	59		 pop	 ecx
$LL636@LoadStatic:
  000fa	31 38		 xor	 DWORD PTR [eax], edi
  000fc	83 c0 04	 add	 eax, 4
  000ff	49		 dec	 ecx
  00100	75 f8		 jne	 SHORT $LL636@LoadStatic
  00102	68 f3 fd ff ff	 push	 -525			; fffffdf3H
  00107	8d 45 94	 lea	 eax, DWORD PTR __k$517997[ebp]
  0010a	50		 push	 eax
  0010b	8b ce		 mov	 ecx, esi
  0010d	ff d3		 call	 ebx
  0010f	6a 04		 push	 4
  00111	a3 00 00 00 00	 mov	 DWORD PTR ?m_iYOffset@io3DCharEmoticon@@0HA, eax ; io3DCharEmoticon::m_iYOffset

; 61   : 
; 62   : 	char szBuf[MAX_PATH];
; 63   : 	rkLoader.LoadString_e( "change_face_postfix", "", szBuf, MAX_PATH );

  00116	c7 85 84 fe ff
	ff 8e 84 8a 84	 mov	 DWORD PTR __k$518133[ebp], -2071296882 ; 848a848eH
  00120	c7 85 88 fe ff
	ff 8a 89 b4 8c	 mov	 DWORD PTR __k$518133[ebp+4], -1934325366 ; 8cb4898aH
  0012a	c7 85 8c fe ff
	ff 8c 8f 8e b5	 mov	 DWORD PTR __k$518133[ebp+8], -1248948340 ; b58e8f8cH
  00134	c7 85 90 fe ff
	ff 9d 83 98 9e	 mov	 DWORD PTR __k$518133[ebp+12], -1634172003 ; 9e98839dH
  0013e	8d 85 84 fe ff
	ff		 lea	 eax, DWORD PTR __k$518133[ebp]
  00144	c7 85 94 fe ff
	ff 8b 85 93 00	 mov	 DWORD PTR __k$518133[ebp+16], 9667979 ; 0093858bH
  0014e	59		 pop	 ecx
$LL742@LoadStatic:
  0014f	31 38		 xor	 DWORD PTR [eax], edi
  00151	83 c0 04	 add	 eax, 4
  00154	49		 dec	 ecx
  00155	75 f8		 jne	 SHORT $LL742@LoadStatic
  00157	6a 10		 push	 16			; 00000010H
  00159	5e		 pop	 esi
$LL739@LoadStatic:
  0015a	8b c6		 mov	 eax, esi
  0015c	25 03 00 00 80	 and	 eax, -2147483645	; 80000003H
  00161	79 05		 jns	 SHORT $LN2580@LoadStatic
  00163	48		 dec	 eax
  00164	83 c8 fc	 or	 eax, -4			; fffffffcH
  00167	40		 inc	 eax
$LN2580@LoadStatic:
  00168	b1 ed		 mov	 cl, -19			; ffffffedH
  0016a	2a c8		 sub	 cl, al
  0016c	30 8c 35 84 fe
	ff ff		 xor	 BYTE PTR __k$518133[ebp+esi], cl
  00173	46		 inc	 esi
  00174	83 fe 13	 cmp	 esi, 19			; 00000013H
  00177	7c e1		 jl	 SHORT $LL739@LoadStatic
  00179	8b 8d f0 f9 ff
	ff		 mov	 ecx, DWORD PTR _rkLoader$GSCopy$[ebp]
  0017f	68 04 01 00 00	 push	 260			; 00000104H
  00184	8d 85 04 fd ff
	ff		 lea	 eax, DWORD PTR _szBuf$[ebp]
  0018a	50		 push	 eax
  0018b	68 00 00 00 00	 push	 OFFSET ??_C@_00CNPNBAHC@?$AA@
  00190	8d 85 84 fe ff
	ff		 lea	 eax, DWORD PTR __k$518133[ebp]
  00196	50		 push	 eax
  00197	ff 15 00 00 00
	00		 call	 DWORD PTR __imp_?LoadStringA@ioINILoader@@QAEXPBD0PADH@Z

; 64   : 	m_FacePostfix = szBuf;

  0019d	8b 35 00 00 00
	00		 mov	 esi, DWORD PTR __imp_??4ioHashString@@QAEAAV0@PBD@Z
  001a3	8d 85 04 fd ff
	ff		 lea	 eax, DWORD PTR _szBuf$[ebp]
  001a9	50		 push	 eax
  001aa	b9 00 00 00 00	 mov	 ecx, OFFSET ?m_FacePostfix@io3DCharEmoticon@@0VioHashString@@A ; io3DCharEmoticon::m_FacePostfix
  001af	ff d6		 call	 esi
  001b1	6a 04		 push	 4

; 65   : 	rkLoader.LoadString_e( "change_face_kill", "", szBuf, MAX_PATH );

  001b3	c7 85 50 fe ff
	ff 8e 84 8a 84	 mov	 DWORD PTR __k$518247[ebp], -2071296882 ; 848a848eH
  001bd	c7 85 54 fe ff
	ff 8a 89 b4 8c	 mov	 DWORD PTR __k$518247[ebp+4], -1934325366 ; 8cb4898aH
  001c7	c7 85 58 fe ff
	ff 8c 8f 8e b5	 mov	 DWORD PTR __k$518247[ebp+8], -1248948340 ; b58e8f8cH
  001d1	c7 85 5c fe ff
	ff 86 85 87 86	 mov	 DWORD PTR __k$518247[ebp+12], -2037938810 ; 86878586H
  001db	8d 85 50 fe ff
	ff		 lea	 eax, DWORD PTR __k$518247[ebp]
  001e1	c6 85 60 fe ff
	ff 00		 mov	 BYTE PTR __k$518247[ebp+16], 0
  001e8	59		 pop	 ecx
$LL848@LoadStatic:
  001e9	31 38		 xor	 DWORD PTR [eax], edi
  001eb	83 c0 04	 add	 eax, 4
  001ee	49		 dec	 ecx
  001ef	75 f8		 jne	 SHORT $LL848@LoadStatic
  001f1	8b 8d f0 f9 ff
	ff		 mov	 ecx, DWORD PTR _rkLoader$GSCopy$[ebp]
  001f7	68 04 01 00 00	 push	 260			; 00000104H
  001fc	8d 85 04 fd ff
	ff		 lea	 eax, DWORD PTR _szBuf$[ebp]
  00202	50		 push	 eax
  00203	68 00 00 00 00	 push	 OFFSET ??_C@_00CNPNBAHC@?$AA@
  00208	8d 85 50 fe ff
	ff		 lea	 eax, DWORD PTR __k$518247[ebp]
  0020e	50		 push	 eax
  0020f	ff 15 00 00 00
	00		 call	 DWORD PTR __imp_?LoadStringA@ioINILoader@@QAEXPBD0PADH@Z

; 66   : 	m_KillFace = szBuf;

  00215	8d 85 04 fd ff
	ff		 lea	 eax, DWORD PTR _szBuf$[ebp]
  0021b	50		 push	 eax
  0021c	b9 00 00 00 00	 mov	 ecx, OFFSET ?m_KillFace@io3DCharEmoticon@@0VioHashString@@A ; io3DCharEmoticon::m_KillFace
  00221	ff d6		 call	 esi
  00223	6a 03		 push	 3

; 67   : 	rkLoader.LoadString_e( "change_face_die", "", szBuf, MAX_PATH );

  00225	c7 85 58 ff ff
	ff 8e 84 8a 84	 mov	 DWORD PTR __k$518372[ebp], -2071296882 ; 848a848eH
  0022f	c7 85 5c ff ff
	ff 8a 89 b4 8c	 mov	 DWORD PTR __k$518372[ebp+4], -1934325366 ; 8cb4898aH
  00239	c7 85 60 ff ff
	ff 8c 8f 8e b5	 mov	 DWORD PTR __k$518372[ebp+8], -1248948340 ; b58e8f8cH
  00243	8d 85 58 ff ff
	ff		 lea	 eax, DWORD PTR __k$518372[ebp]
  00249	c7 85 64 ff ff
	ff 89 85 8e 00	 mov	 DWORD PTR __k$518372[ebp+12], 9340297 ; 008e8589H
  00253	59		 pop	 ecx
$LL954@LoadStatic:
  00254	31 38		 xor	 DWORD PTR [eax], edi
  00256	83 c0 04	 add	 eax, 4
  00259	49		 dec	 ecx
  0025a	75 f8		 jne	 SHORT $LL954@LoadStatic
  0025c	6a 0c		 push	 12			; 0000000cH
  0025e	58		 pop	 eax
$LL951@LoadStatic:
  0025f	8b c8		 mov	 ecx, eax
  00261	81 e1 03 00 00
	80		 and	 ecx, -2147483645	; 80000003H
  00267	79 05		 jns	 SHORT $LN2581@LoadStatic
  00269	49		 dec	 ecx
  0026a	83 c9 fc	 or	 ecx, -4			; fffffffcH
  0026d	41		 inc	 ecx
$LN2581@LoadStatic:
  0026e	b2 ed		 mov	 dl, -19			; ffffffedH
  00270	2a d1		 sub	 dl, cl
  00272	30 94 05 58 ff
	ff ff		 xor	 BYTE PTR __k$518372[ebp+eax], dl
  00279	40		 inc	 eax
  0027a	83 f8 0f	 cmp	 eax, 15			; 0000000fH
  0027d	7c e0		 jl	 SHORT $LL951@LoadStatic
  0027f	8b 8d f0 f9 ff
	ff		 mov	 ecx, DWORD PTR _rkLoader$GSCopy$[ebp]
  00285	68 04 01 00 00	 push	 260			; 00000104H
  0028a	8d 85 04 fd ff
	ff		 lea	 eax, DWORD PTR _szBuf$[ebp]
  00290	50		 push	 eax
  00291	68 00 00 00 00	 push	 OFFSET ??_C@_00CNPNBAHC@?$AA@
  00296	8d 85 58 ff ff
	ff		 lea	 eax, DWORD PTR __k$518372[ebp]
  0029c	50		 push	 eax
  0029d	ff 15 00 00 00
	00		 call	 DWORD PTR __imp_?LoadStringA@ioINILoader@@QAEXPBD0PADH@Z

; 68   : 	m_DieFace = szBuf;

  002a3	8d 85 04 fd ff
	ff		 lea	 eax, DWORD PTR _szBuf$[ebp]
  002a9	50		 push	 eax
  002aa	b9 00 00 00 00	 mov	 ecx, OFFSET ?m_DieFace@io3DCharEmoticon@@0VioHashString@@A ; io3DCharEmoticon::m_DieFace
  002af	ff d6		 call	 esi
  002b1	6a 04		 push	 4

; 69   : 	rkLoader.LoadString_e( "change_face_action", "", szBuf, MAX_PATH );

  002b3	c7 85 cc fe ff
	ff 8e 84 8a 84	 mov	 DWORD PTR __k$518497[ebp], -2071296882 ; 848a848eH
  002bd	c7 85 d0 fe ff
	ff 8a 89 b4 8c	 mov	 DWORD PTR __k$518497[ebp+4], -1934325366 ; 8cb4898aH
  002c7	c7 85 d4 fe ff
	ff 8c 8f 8e b5	 mov	 DWORD PTR __k$518497[ebp+8], -1248948340 ; b58e8f8cH
  002d1	c7 85 d8 fe ff
	ff 8c 8f 9f 83	 mov	 DWORD PTR __k$518497[ebp+12], -2086695028 ; 839f8f8cH
  002db	66 c7 85 dc fe
	ff ff 82 82	 mov	 WORD PTR __k$518497[ebp+16], 33410 ; 00008282H
  002e4	8d 85 cc fe ff
	ff		 lea	 eax, DWORD PTR __k$518497[ebp]
  002ea	c6 85 de fe ff
	ff 00		 mov	 BYTE PTR __k$518497[ebp+18], 0
  002f1	59		 pop	 ecx
$LL1060@LoadStatic:
  002f2	31 38		 xor	 DWORD PTR [eax], edi
  002f4	83 c0 04	 add	 eax, 4
  002f7	49		 dec	 ecx
  002f8	75 f8		 jne	 SHORT $LL1060@LoadStatic
  002fa	6a 10		 push	 16			; 00000010H
  002fc	58		 pop	 eax
$LL1057@LoadStatic:
  002fd	8b c8		 mov	 ecx, eax
  002ff	81 e1 03 00 00
	80		 and	 ecx, -2147483645	; 80000003H
  00305	79 05		 jns	 SHORT $LN2582@LoadStatic
  00307	49		 dec	 ecx
  00308	83 c9 fc	 or	 ecx, -4			; fffffffcH
  0030b	41		 inc	 ecx
$LN2582@LoadStatic:
  0030c	b2 ed		 mov	 dl, -19			; ffffffedH
  0030e	2a d1		 sub	 dl, cl
  00310	30 94 05 cc fe
	ff ff		 xor	 BYTE PTR __k$518497[ebp+eax], dl
  00317	40		 inc	 eax
  00318	83 f8 12	 cmp	 eax, 18			; 00000012H
  0031b	7c e0		 jl	 SHORT $LL1057@LoadStatic
  0031d	8b 8d f0 f9 ff
	ff		 mov	 ecx, DWORD PTR _rkLoader$GSCopy$[ebp]
  00323	68 04 01 00 00	 push	 260			; 00000104H
  00328	8d 85 04 fd ff
	ff		 lea	 eax, DWORD PTR _szBuf$[ebp]
  0032e	50		 push	 eax
  0032f	68 00 00 00 00	 push	 OFFSET ??_C@_00CNPNBAHC@?$AA@
  00334	8d 85 cc fe ff
	ff		 lea	 eax, DWORD PTR __k$518497[ebp]
  0033a	50		 push	 eax
  0033b	ff 15 00 00 00
	00		 call	 DWORD PTR __imp_?LoadStringA@ioINILoader@@QAEXPBD0PADH@Z

; 70   : 	m_ActionFace = szBuf;

  00341	8d 85 04 fd ff
	ff		 lea	 eax, DWORD PTR _szBuf$[ebp]
  00347	50		 push	 eax
  00348	b9 00 00 00 00	 mov	 ecx, OFFSET ?m_ActionFace@io3DCharEmoticon@@0VioHashString@@A ; io3DCharEmoticon::m_ActionFace
  0034d	ff d6		 call	 esi

; 71   : 
; 72   : 	rkLoader.LoadString( "change_face_type", "all", szBuf, MAX_PATH );

  0034f	8b 8d f0 f9 ff
	ff		 mov	 ecx, DWORD PTR _rkLoader$GSCopy$[ebp]
  00355	68 04 01 00 00	 push	 260			; 00000104H
  0035a	8d 85 04 fd ff
	ff		 lea	 eax, DWORD PTR _szBuf$[ebp]
  00360	50		 push	 eax
  00361	68 00 00 00 00	 push	 OFFSET ??_C@_03NFKEKGGK@all?$AA@
  00366	68 00 00 00 00	 push	 OFFSET ??_C@_0BB@HDEEHLBN@change_face_type?$AA@
  0036b	ff 15 00 00 00
	00		 call	 DWORD PTR __imp_?LoadStringA@ioINILoader@@QAEXPBD0PADH@Z

; 73   : 	m_FaceChangeType = szBuf;

  00371	8d 85 04 fd ff
	ff		 lea	 eax, DWORD PTR _szBuf$[ebp]
  00377	50		 push	 eax
  00378	b9 00 00 00 00	 mov	 ecx, OFFSET ?m_FaceChangeType@io3DCharEmoticon@@0VioHashString@@A ; io3DCharEmoticon::m_FaceChangeType
  0037d	ff d6		 call	 esi
  0037f	6a 04		 push	 4

; 74   : 
; 75   : 	m_dwChangeStartGap = rkLoader.LoadInt_e( "change_start_gap", 0 );

  00381	c7 85 38 fe ff
	ff 8e 84 8a 84	 mov	 DWORD PTR __k$518633[ebp], -2071296882 ; 848a848eH
  0038b	c7 85 3c fe ff
	ff 8a 89 b4 99	 mov	 DWORD PTR __k$518633[ebp+4], -1716221558 ; 99b4898aH
  00395	c7 85 40 fe ff
	ff 99 8d 99 9e	 mov	 DWORD PTR __k$518633[ebp+8], -1634103911 ; 9e998d99H
  0039f	c7 85 44 fe ff
	ff b2 8b 8a 9a	 mov	 DWORD PTR __k$518633[ebp+12], -1702196302 ; 9a8a8bb2H
  003a9	8d 85 38 fe ff
	ff		 lea	 eax, DWORD PTR __k$518633[ebp]
  003af	c6 85 48 fe ff
	ff 00		 mov	 BYTE PTR __k$518633[ebp+16], 0
  003b6	59		 pop	 ecx
$LL1166@LoadStatic:
  003b7	31 38		 xor	 DWORD PTR [eax], edi
  003b9	83 c0 04	 add	 eax, 4
  003bc	49		 dec	 ecx
  003bd	75 f8		 jne	 SHORT $LL1166@LoadStatic
  003bf	51		 push	 ecx
  003c0	8b 8d f0 f9 ff
	ff		 mov	 ecx, DWORD PTR _rkLoader$GSCopy$[ebp]
  003c6	8d 85 38 fe ff
	ff		 lea	 eax, DWORD PTR __k$518633[ebp]
  003cc	50		 push	 eax
  003cd	ff d3		 call	 ebx
  003cf	6a 03		 push	 3
  003d1	a3 00 00 00 00	 mov	 DWORD PTR ?m_dwChangeStartGap@io3DCharEmoticon@@0KA, eax ; io3DCharEmoticon::m_dwChangeStartGap

; 76   : 	m_dwChangeDuration = rkLoader.LoadInt_e( "change_duration", 1000 );

  003d6	c7 85 6c ff ff
	ff 8e 84 8a 84	 mov	 DWORD PTR __k$518760[ebp], -2071296882 ; 848a848eH
  003e0	c7 85 70 ff ff
	ff 8a 89 b4 8e	 mov	 DWORD PTR __k$518760[ebp+4], -1900770934 ; 8eb4898aH
  003ea	c7 85 74 ff ff
	ff 98 9e 8a 9e	 mov	 DWORD PTR __k$518760[ebp+8], -1635082600 ; 9e8a9e98H
  003f4	8d 85 6c ff ff
	ff		 lea	 eax, DWORD PTR __k$518760[ebp]
  003fa	c7 85 78 ff ff
	ff 84 83 85 00	 mov	 DWORD PTR __k$518760[ebp+12], 8749956 ; 00858384H
  00404	59		 pop	 ecx
$LL1272@LoadStatic:
  00405	31 38		 xor	 DWORD PTR [eax], edi
  00407	83 c0 04	 add	 eax, 4
  0040a	49		 dec	 ecx
  0040b	75 f8		 jne	 SHORT $LL1272@LoadStatic
  0040d	6a 0c		 push	 12			; 0000000cH
  0040f	5e		 pop	 esi
$LL1269@LoadStatic:
  00410	8b c6		 mov	 eax, esi
  00412	25 03 00 00 80	 and	 eax, -2147483645	; 80000003H
  00417	79 05		 jns	 SHORT $LN2583@LoadStatic
  00419	48		 dec	 eax
  0041a	83 c8 fc	 or	 eax, -4			; fffffffcH
  0041d	40		 inc	 eax
$LN2583@LoadStatic:
  0041e	b1 ed		 mov	 cl, -19			; ffffffedH
  00420	2a c8		 sub	 cl, al
  00422	30 8c 35 6c ff
	ff ff		 xor	 BYTE PTR __k$518760[ebp+esi], cl
  00429	46		 inc	 esi
  0042a	83 fe 0f	 cmp	 esi, 15			; 0000000fH
  0042d	7c e1		 jl	 SHORT $LL1269@LoadStatic
  0042f	8b 8d f0 f9 ff
	ff		 mov	 ecx, DWORD PTR _rkLoader$GSCopy$[ebp]
  00435	be e8 03 00 00	 mov	 esi, 1000		; 000003e8H
  0043a	56		 push	 esi
  0043b	8d 85 6c ff ff
	ff		 lea	 eax, DWORD PTR __k$518760[ebp]
  00441	50		 push	 eax
  00442	ff d3		 call	 ebx
  00444	a3 00 00 00 00	 mov	 DWORD PTR ?m_dwChangeDuration@io3DCharEmoticon@@0KA, eax ; io3DCharEmoticon::m_dwChangeDuration

; 77   : 	m_dwChangeOnOffGap = rkLoader.LoadInt_e( "change_on_off_gap", FLOAT100 );

  00449	b8 64 00 00 00	 mov	 eax, 100		; 00000064H
  0044e	6a 04		 push	 4
  00450	c7 85 fc fe ff
	ff 8e 84 8a 84	 mov	 DWORD PTR __k$518889[ebp], -2071296882 ; 848a848eH
  0045a	c7 85 00 ff ff
	ff 8a 89 b4 85	 mov	 DWORD PTR __k$518889[ebp+4], -2051765878 ; 85b4898aH
  00464	c7 85 04 ff ff
	ff 83 b3 84 8c	 mov	 DWORD PTR __k$518889[ebp+8], -1937460349 ; 8c84b383H
  0046e	c7 85 08 ff ff
	ff 8b b3 8c 8b	 mov	 DWORD PTR __k$518889[ebp+12], -1953713269 ; 8b8cb38bH
  00478	8d 8d fc fe ff
	ff		 lea	 ecx, DWORD PTR __k$518889[ebp]
  0047e	66 c7 85 0c ff
	ff ff 9d 00	 mov	 WORD PTR __k$518889[ebp+16], 157 ; 0000009dH
  00487	5a		 pop	 edx
$LL1380@LoadStatic:
  00488	31 39		 xor	 DWORD PTR [ecx], edi
  0048a	83 c1 04	 add	 ecx, 4
  0048d	4a		 dec	 edx
  0048e	75 f8		 jne	 SHORT $LL1380@LoadStatic
  00490	80 b5 0c ff ff
	ff ed		 xor	 BYTE PTR __k$518889[ebp+16], -19 ; ffffffedH
  00497	89 85 ec f9 ff
	ff		 mov	 DWORD PTR tv20632[ebp], eax
  0049d	db 85 ec f9 ff
	ff		 fild	 DWORD PTR tv20632[ebp]
  004a3	85 c0		 test	 eax, eax
  004a5	79 06		 jns	 SHORT $LN2584@LoadStatic
  004a7	d8 05 00 00 00
	00		 fadd	 DWORD PTR __real@4f800000
$LN2584@LoadStatic:
  004ad	e8 00 00 00 00	 call	 __ftol2_sse
  004b2	8b 8d f0 f9 ff
	ff		 mov	 ecx, DWORD PTR _rkLoader$GSCopy$[ebp]
  004b8	50		 push	 eax
  004b9	8d 85 fc fe ff
	ff		 lea	 eax, DWORD PTR __k$518889[ebp]
  004bf	50		 push	 eax
  004c0	ff d3		 call	 ebx
  004c2	6a 04		 push	 4
  004c4	a3 00 00 00 00	 mov	 DWORD PTR ?m_dwChangeOnOffGap@io3DCharEmoticon@@0KA, eax ; io3DCharEmoticon::m_dwChangeOnOffGap

; 78   : 
; 79   : 	m_dwSpecialStartGap = rkLoader.LoadInt_e( "special_start_gap", 0 );

  004c9	c7 85 14 ff ff
	ff 9e 9c 8e 89	 mov	 DWORD PTR __k$519001[ebp], -1987142498 ; 898e9c9eH
  004d3	c7 85 18 ff ff
	ff 84 8d 87 b5	 mov	 DWORD PTR __k$519001[ebp+4], -1249407612 ; b5878d84H
  004dd	c7 85 1c ff ff
	ff 9e 98 8a 98	 mov	 DWORD PTR __k$519001[ebp+8], -1735747426 ; 988a989eH
  004e7	c7 85 20 ff ff
	ff 99 b3 8c 8b	 mov	 DWORD PTR __k$519001[ebp+12], -1953713255 ; 8b8cb399H
  004f1	8d 85 14 ff ff
	ff		 lea	 eax, DWORD PTR __k$519001[ebp]
  004f7	66 c7 85 24 ff
	ff ff 9d 00	 mov	 WORD PTR __k$519001[ebp+16], 157 ; 0000009dH
  00500	59		 pop	 ecx
$LL1486@LoadStatic:
  00501	31 38		 xor	 DWORD PTR [eax], edi
  00503	83 c0 04	 add	 eax, 4
  00506	49		 dec	 ecx
  00507	75 f8		 jne	 SHORT $LL1486@LoadStatic
  00509	80 b5 24 ff ff
	ff ed		 xor	 BYTE PTR __k$519001[ebp+16], -19 ; ffffffedH
  00510	51		 push	 ecx
  00511	8b 8d f0 f9 ff
	ff		 mov	 ecx, DWORD PTR _rkLoader$GSCopy$[ebp]
  00517	8d 85 14 ff ff
	ff		 lea	 eax, DWORD PTR __k$519001[ebp]
  0051d	50		 push	 eax
  0051e	ff d3		 call	 ebx
  00520	6a 04		 push	 4
  00522	a3 00 00 00 00	 mov	 DWORD PTR ?m_dwSpecialStartGap@io3DCharEmoticon@@0KA, eax ; io3DCharEmoticon::m_dwSpecialStartGap

; 80   : 	m_dwSpecialDuration = rkLoader.LoadInt_e( "special_duration", 1000 );

  00527	c7 85 08 fe ff
	ff 9e 9c 8e 89	 mov	 DWORD PTR __k$519126[ebp], -1987142498 ; 898e9c9eH
  00531	c7 85 0c fe ff
	ff 84 8d 87 b5	 mov	 DWORD PTR __k$519126[ebp+4], -1249407612 ; b5878d84H
  0053b	c7 85 10 fe ff
	ff 89 99 99 8b	 mov	 DWORD PTR __k$519126[ebp+8], -1952867959 ; 8b999989H
  00545	c7 85 14 fe ff
	ff 99 85 84 84	 mov	 DWORD PTR __k$519126[ebp+12], -2071689831 ; 84848599H
  0054f	8d 85 08 fe ff
	ff		 lea	 eax, DWORD PTR __k$519126[ebp]
  00555	c6 85 18 fe ff
	ff 00		 mov	 BYTE PTR __k$519126[ebp+16], 0
  0055c	59		 pop	 ecx
$LL1592@LoadStatic:
  0055d	31 38		 xor	 DWORD PTR [eax], edi
  0055f	83 c0 04	 add	 eax, 4
  00562	49		 dec	 ecx
  00563	75 f8		 jne	 SHORT $LL1592@LoadStatic
  00565	8b 8d f0 f9 ff
	ff		 mov	 ecx, DWORD PTR _rkLoader$GSCopy$[ebp]
  0056b	56		 push	 esi
  0056c	8d 85 08 fe ff
	ff		 lea	 eax, DWORD PTR __k$519126[ebp]
  00572	50		 push	 eax
  00573	ff d3		 call	 ebx
  00575	a3 00 00 00 00	 mov	 DWORD PTR ?m_dwSpecialDuration@io3DCharEmoticon@@0KA, eax ; io3DCharEmoticon::m_dwSpecialDuration

; 81   : 	m_dwSpecialOnOffGap = rkLoader.LoadInt_e( "special_on_off_gap", FLOAT100 );

  0057a	b8 64 00 00 00	 mov	 eax, 100		; 00000064H
  0057f	6a 04		 push	 4
  00581	8b f0		 mov	 esi, eax
  00583	c7 85 b4 fe ff
	ff 9e 9c 8e 89	 mov	 DWORD PTR __k$519292[ebp], -1987142498 ; 898e9c9eH
  0058d	c7 85 b8 fe ff
	ff 84 8d 87 b5	 mov	 DWORD PTR __k$519292[ebp+4], -1249407612 ; b5878d84H
  00597	c7 85 bc fe ff
	ff 82 82 b4 85	 mov	 DWORD PTR __k$519292[ebp+8], -2051767678 ; 85b48282H
  005a1	c7 85 c0 fe ff
	ff 8b 8a b4 8d	 mov	 DWORD PTR __k$519292[ebp+12], -1917547893 ; 8db48a8bH
  005ab	66 c7 85 c4 fe
	ff ff 8c 9c	 mov	 WORD PTR __k$519292[ebp+16], 40076 ; 00009c8cH
  005b4	8d 8d b4 fe ff
	ff		 lea	 ecx, DWORD PTR __k$519292[ebp]
  005ba	c6 85 c6 fe ff
	ff 00		 mov	 BYTE PTR __k$519292[ebp+18], 0
  005c1	58		 pop	 eax
$LL1700@LoadStatic:
  005c2	31 39		 xor	 DWORD PTR [ecx], edi
  005c4	83 c1 04	 add	 ecx, 4
  005c7	48		 dec	 eax
  005c8	75 f8		 jne	 SHORT $LL1700@LoadStatic
  005ca	6a 10		 push	 16			; 00000010H
  005cc	58		 pop	 eax
$LL1697@LoadStatic:
  005cd	8b c8		 mov	 ecx, eax
  005cf	81 e1 03 00 00
	80		 and	 ecx, -2147483645	; 80000003H
  005d5	79 05		 jns	 SHORT $LN2585@LoadStatic
  005d7	49		 dec	 ecx
  005d8	83 c9 fc	 or	 ecx, -4			; fffffffcH
  005db	41		 inc	 ecx
$LN2585@LoadStatic:
  005dc	b2 ed		 mov	 dl, -19			; ffffffedH
  005de	2a d1		 sub	 dl, cl
  005e0	30 94 05 b4 fe
	ff ff		 xor	 BYTE PTR __k$519292[ebp+eax], dl
  005e7	40		 inc	 eax
  005e8	83 f8 12	 cmp	 eax, 18			; 00000012H
  005eb	7c e0		 jl	 SHORT $LL1697@LoadStatic
  005ed	89 b5 ec f9 ff
	ff		 mov	 DWORD PTR tv20617[ebp], esi
  005f3	db 85 ec f9 ff
	ff		 fild	 DWORD PTR tv20617[ebp]
  005f9	85 f6		 test	 esi, esi
  005fb	79 06		 jns	 SHORT $LN2586@LoadStatic
  005fd	d8 05 00 00 00
	00		 fadd	 DWORD PTR __real@4f800000
$LN2586@LoadStatic:
  00603	e8 00 00 00 00	 call	 __ftol2_sse
  00608	8b 8d f0 f9 ff
	ff		 mov	 ecx, DWORD PTR _rkLoader$GSCopy$[ebp]
  0060e	50		 push	 eax
  0060f	8d 85 b4 fe ff
	ff		 lea	 eax, DWORD PTR __k$519292[ebp]
  00615	50		 push	 eax
  00616	ff d3		 call	 ebx
  00618	a3 00 00 00 00	 mov	 DWORD PTR ?m_dwSpecialOnOffGap@io3DCharEmoticon@@0KA, eax ; io3DCharEmoticon::m_dwSpecialOnOffGap

; 82   : 
; 83   : 	m_fHairOutLineThick = rkLoader.LoadFloat_e( "hair_outline_thick", FLOAT1 );

  0061d	b8 01 00 00 00	 mov	 eax, 1
  00622	6a 04		 push	 4
  00624	8b f0		 mov	 esi, eax
  00626	c7 85 e4 fe ff
	ff 85 8d 82 98	 mov	 DWORD PTR __k$519384[ebp], -1736274555 ; 98828d85H
  00630	c7 85 e8 fe ff
	ff b2 83 9e 9e	 mov	 DWORD PTR __k$519384[ebp+4], -1633778766 ; 9e9e83b2H
  0063a	c7 85 ec fe ff
	ff 81 85 85 8f	 mov	 DWORD PTR __k$519384[ebp+8], -1887074943 ; 8f858581H
  00644	c7 85 f0 fe ff
	ff b2 98 83 83	 mov	 DWORD PTR __k$519384[ebp+12], -2088527694 ; 838398b2H
  0064e	66 c7 85 f4 fe
	ff ff 8e 87	 mov	 WORD PTR __k$519384[ebp+16], 34702 ; 0000878eH
  00657	8d 8d e4 fe ff
	ff		 lea	 ecx, DWORD PTR __k$519384[ebp]
  0065d	c6 85 f6 fe ff
	ff 00		 mov	 BYTE PTR __k$519384[ebp+18], 0
  00664	58		 pop	 eax
$LL1808@LoadStatic:
  00665	31 39		 xor	 DWORD PTR [ecx], edi
  00667	83 c1 04	 add	 ecx, 4
  0066a	48		 dec	 eax
  0066b	75 f8		 jne	 SHORT $LL1808@LoadStatic
  0066d	6a 10		 push	 16			; 00000010H
  0066f	58		 pop	 eax
$LL1805@LoadStatic:
  00670	8b c8		 mov	 ecx, eax
  00672	81 e1 03 00 00
	80		 and	 ecx, -2147483645	; 80000003H
  00678	79 05		 jns	 SHORT $LN2587@LoadStatic
  0067a	49		 dec	 ecx
  0067b	83 c9 fc	 or	 ecx, -4			; fffffffcH
  0067e	41		 inc	 ecx
$LN2587@LoadStatic:
  0067f	b2 ed		 mov	 dl, -19			; ffffffedH
  00681	2a d1		 sub	 dl, cl
  00683	30 94 05 e4 fe
	ff ff		 xor	 BYTE PTR __k$519384[ebp+eax], dl
  0068a	40		 inc	 eax
  0068b	83 f8 12	 cmp	 eax, 18			; 00000012H
  0068e	7c e0		 jl	 SHORT $LL1805@LoadStatic
  00690	89 b5 ec f9 ff
	ff		 mov	 DWORD PTR tv20606[ebp], esi
  00696	db 85 ec f9 ff
	ff		 fild	 DWORD PTR tv20606[ebp]
  0069c	85 f6		 test	 esi, esi
  0069e	79 06		 jns	 SHORT $LN2588@LoadStatic
  006a0	d8 05 00 00 00
	00		 fadd	 DWORD PTR __real@4f800000
$LN2588@LoadStatic:
  006a6	51		 push	 ecx
  006a7	8b 8d f0 f9 ff
	ff		 mov	 ecx, DWORD PTR _rkLoader$GSCopy$[ebp]
  006ad	d9 1c 24	 fstp	 DWORD PTR [esp]
  006b0	8d 85 e4 fe ff
	ff		 lea	 eax, DWORD PTR __k$519384[ebp]
  006b6	50		 push	 eax
  006b7	ff 15 00 00 00
	00		 call	 DWORD PTR __imp_?LoadFloat@ioINILoader@@QAEMPBDM@Z
  006bd	d9 1d 00 00 00
	00		 fstp	 DWORD PTR ?m_fHairOutLineThick@io3DCharEmoticon@@0MA ; io3DCharEmoticon::m_fHairOutLineThick

; 84   : 	m_fHeadOutLineThick = rkLoader.LoadFloat_e( "head_outline_thick", FLOAT1 );

  006c3	b8 01 00 00 00	 mov	 eax, 1
  006c8	6a 04		 push	 4
  006ca	c7 85 9c fe ff
	ff 85 89 8a 8e	 mov	 DWORD PTR __k$519513[ebp], -1903523451 ; 8e8a8985H
  006d4	c7 85 a0 fe ff
	ff b2 83 9e 9e	 mov	 DWORD PTR __k$519513[ebp+4], -1633778766 ; 9e9e83b2H
  006de	c7 85 a4 fe ff
	ff 81 85 85 8f	 mov	 DWORD PTR __k$519513[ebp+8], -1887074943 ; 8f858581H
  006e8	c7 85 a8 fe ff
	ff b2 98 83 83	 mov	 DWORD PTR __k$519513[ebp+12], -2088527694 ; 838398b2H
  006f2	66 c7 85 ac fe
	ff ff 8e 87	 mov	 WORD PTR __k$519513[ebp+16], 34702 ; 0000878eH
  006fb	8d 8d 9c fe ff
	ff		 lea	 ecx, DWORD PTR __k$519513[ebp]
  00701	c6 85 ae fe ff
	ff 00		 mov	 BYTE PTR __k$519513[ebp+18], 0
  00708	5a		 pop	 edx
$LL1916@LoadStatic:
  00709	31 39		 xor	 DWORD PTR [ecx], edi
  0070b	83 c1 04	 add	 ecx, 4
  0070e	4a		 dec	 edx
  0070f	75 f8		 jne	 SHORT $LL1916@LoadStatic
  00711	6a 10		 push	 16			; 00000010H
  00713	5e		 pop	 esi
$LL1913@LoadStatic:
  00714	8b ce		 mov	 ecx, esi
  00716	81 e1 03 00 00
	80		 and	 ecx, -2147483645	; 80000003H
  0071c	79 05		 jns	 SHORT $LN2589@LoadStatic
  0071e	49		 dec	 ecx
  0071f	83 c9 fc	 or	 ecx, -4			; fffffffcH
  00722	41		 inc	 ecx
$LN2589@LoadStatic:
  00723	b2 ed		 mov	 dl, -19			; ffffffedH
  00725	2a d1		 sub	 dl, cl
  00727	30 94 35 9c fe
	ff ff		 xor	 BYTE PTR __k$519513[ebp+esi], dl
  0072e	46		 inc	 esi
  0072f	83 fe 12	 cmp	 esi, 18			; 00000012H
  00732	7c e0		 jl	 SHORT $LL1913@LoadStatic
  00734	89 85 ec f9 ff
	ff		 mov	 DWORD PTR tv20596[ebp], eax
  0073a	db 85 ec f9 ff
	ff		 fild	 DWORD PTR tv20596[ebp]
  00740	85 c0		 test	 eax, eax
  00742	79 06		 jns	 SHORT $LN2590@LoadStatic
  00744	d8 05 00 00 00
	00		 fadd	 DWORD PTR __real@4f800000
$LN2590@LoadStatic:
  0074a	51		 push	 ecx
  0074b	8b 8d f0 f9 ff
	ff		 mov	 ecx, DWORD PTR _rkLoader$GSCopy$[ebp]
  00751	d9 1c 24	 fstp	 DWORD PTR [esp]
  00754	8d 85 9c fe ff
	ff		 lea	 eax, DWORD PTR __k$519513[ebp]
  0075a	50		 push	 eax
  0075b	ff 15 00 00 00
	00		 call	 DWORD PTR __imp_?LoadFloat@ioINILoader@@QAEMPBDM@Z
  00761	d9 1d 00 00 00
	00		 fstp	 DWORD PTR ?m_fHeadOutLineThick@io3DCharEmoticon@@0MA ; io3DCharEmoticon::m_fHeadOutLineThick
  00767	6a 03		 push	 3

; 85   : 	m_bChangeOutLineThick = rkLoader.LoadBool_e( "outline_change", false );

  00769	c7 45 80 82 99
	9f 86		 mov	 DWORD PTR __k$519638[ebp], -2036360830 ; 869f9982H
  00770	c7 45 84 84 82
	8e b5		 mov	 DWORD PTR __k$519638[ebp+4], -1248951676 ; b58e8284H
  00777	c7 45 88 8e 84
	8a 84		 mov	 DWORD PTR __k$519638[ebp+8], -2071296882 ; 848a848eH
  0077e	66 c7 45 8c 8a
	89		 mov	 WORD PTR __k$519638[ebp+12], 35210 ; 0000898aH
  00784	8d 45 80	 lea	 eax, DWORD PTR __k$519638[ebp]
  00787	c6 45 8e 00	 mov	 BYTE PTR __k$519638[ebp+14], 0
  0078b	59		 pop	 ecx
$LL2022@LoadStatic:
  0078c	31 38		 xor	 DWORD PTR [eax], edi
  0078e	83 c0 04	 add	 eax, 4
  00791	49		 dec	 ecx
  00792	75 f8		 jne	 SHORT $LL2022@LoadStatic
  00794	6a 0c		 push	 12			; 0000000cH
  00796	5e		 pop	 esi
$LL2019@LoadStatic:
  00797	8b c6		 mov	 eax, esi
  00799	25 03 00 00 80	 and	 eax, -2147483645	; 80000003H
  0079e	79 05		 jns	 SHORT $LN2591@LoadStatic
  007a0	48		 dec	 eax
  007a1	83 c8 fc	 or	 eax, -4			; fffffffcH
  007a4	40		 inc	 eax
$LN2591@LoadStatic:
  007a5	b1 ed		 mov	 cl, -19			; ffffffedH
  007a7	2a c8		 sub	 cl, al
  007a9	30 4c 35 80	 xor	 BYTE PTR __k$519638[ebp+esi], cl
  007ad	46		 inc	 esi
  007ae	83 fe 0e	 cmp	 esi, 14			; 0000000eH
  007b1	7c e4		 jl	 SHORT $LL2019@LoadStatic
  007b3	8b 8d f0 f9 ff
	ff		 mov	 ecx, DWORD PTR _rkLoader$GSCopy$[ebp]
  007b9	6a 00		 push	 0
  007bb	8d 45 80	 lea	 eax, DWORD PTR __k$519638[ebp]
  007be	50		 push	 eax
  007bf	ff 15 00 00 00
	00		 call	 DWORD PTR __imp_?LoadBool@ioINILoader@@QAE_NPBD_N@Z
  007c5	6a 02		 push	 2
  007c7	a2 00 00 00 00	 mov	 BYTE PTR ?m_bChangeOutLineThick@io3DCharEmoticon@@0_NA, al ; io3DCharEmoticon::m_bChangeOutLineThick

; 86   : 
; 87   : 	rkLoader.SetTitle_e( "talk_sound" );

  007cc	c7 45 d4 99 8d
	87 81		 mov	 DWORD PTR __t$519763[ebp], -2121822823 ; 81878d99H
  007d3	c7 45 d8 b2 9f
	84 9f		 mov	 DWORD PTR __t$519763[ebp+4], -1618698318 ; 9f849fb2H
  007da	66 c7 45 dc 83
	88		 mov	 WORD PTR __t$519763[ebp+8], 34947 ; 00008883H
  007e0	8d 45 d4	 lea	 eax, DWORD PTR __t$519763[ebp]
  007e3	c6 45 de 00	 mov	 BYTE PTR __t$519763[ebp+10], 0
  007e7	59		 pop	 ecx
$LL2128@LoadStatic:
  007e8	31 38		 xor	 DWORD PTR [eax], edi
  007ea	83 c0 04	 add	 eax, 4
  007ed	49		 dec	 ecx
  007ee	75 f8		 jne	 SHORT $LL2128@LoadStatic
  007f0	6a 08		 push	 8
  007f2	5e		 pop	 esi
$LL2125@LoadStatic:
  007f3	8b c6		 mov	 eax, esi
  007f5	25 03 00 00 80	 and	 eax, -2147483645	; 80000003H
  007fa	79 05		 jns	 SHORT $LN2592@LoadStatic
  007fc	48		 dec	 eax
  007fd	83 c8 fc	 or	 eax, -4			; fffffffcH
  00800	40		 inc	 eax
$LN2592@LoadStatic:
  00801	b1 ed		 mov	 cl, -19			; ffffffedH
  00803	2a c8		 sub	 cl, al
  00805	30 4c 35 d4	 xor	 BYTE PTR __t$519763[ebp+esi], cl
  00809	46		 inc	 esi
  0080a	83 fe 0a	 cmp	 esi, 10			; 0000000aH
  0080d	7c e4		 jl	 SHORT $LL2125@LoadStatic
  0080f	8b 8d f0 f9 ff
	ff		 mov	 ecx, DWORD PTR _rkLoader$GSCopy$[ebp]
  00815	8d 45 d4	 lea	 eax, DWORD PTR __t$519763[ebp]
  00818	50		 push	 eax
  00819	ff 15 00 00 00
	00		 call	 DWORD PTR __imp_?SetTitle@ioINILoader@@QAEXPBD@Z
  0081f	6a 05		 push	 5

; 88   : 	int iTalkLevelCount = rkLoader.LoadInt_e( "talk_word_level_count", 0 );

  00821	c7 85 68 fe ff
	ff 99 8d 87 81	 mov	 DWORD PTR __k$519888[ebp], -2121822823 ; 81878d99H
  0082b	c7 85 6c fe ff
	ff b2 9b 84 98	 mov	 DWORD PTR __k$519888[ebp+4], -1736139854 ; 98849bb2H
  00835	c7 85 70 fe ff
	ff 89 b3 87 8f	 mov	 DWORD PTR __k$519888[ebp+8], -1886932087 ; 8f87b389H
  0083f	c7 85 74 fe ff
	ff 9b 89 87 b5	 mov	 DWORD PTR __k$519888[ebp+12], -1249408613 ; b587899bH
  00849	c7 85 78 fe ff
	ff 8e 83 9e 84	 mov	 DWORD PTR __k$519888[ebp+16], -2069986418 ; 849e838eH
  00853	8d 85 68 fe ff
	ff		 lea	 eax, DWORD PTR __k$519888[ebp]
  00859	66 c7 85 7c fe
	ff ff 99 00	 mov	 WORD PTR __k$519888[ebp+20], 153 ; 00000099H
  00862	59		 pop	 ecx
$LL2234@LoadStatic:
  00863	31 38		 xor	 DWORD PTR [eax], edi
  00865	83 c0 04	 add	 eax, 4
  00868	49		 dec	 ecx
  00869	75 f8		 jne	 SHORT $LL2234@LoadStatic
  0086b	80 b5 7c fe ff
	ff ed		 xor	 BYTE PTR __k$519888[ebp+20], -19 ; ffffffedH
  00872	51		 push	 ecx
  00873	8b 8d f0 f9 ff
	ff		 mov	 ecx, DWORD PTR _rkLoader$GSCopy$[ebp]
  00879	8d 85 68 fe ff
	ff		 lea	 eax, DWORD PTR __k$519888[ebp]
  0087f	50		 push	 eax
  00880	ff d3		 call	 ebx

; 89   : 	for( int i=0 ; i<iTalkLevelCount ; i++ )

  00882	33 c9		 xor	 ecx, ecx
  00884	89 85 ec f9 ff
	ff		 mov	 DWORD PTR _iTalkLevelCount$[ebp], eax
  0088a	85 c0		 test	 eax, eax
  0088c	0f 8e 85 02 00
	00		 jle	 $LN206@LoadStatic
$LN208@LoadStatic:

; 90   : 	{
; 91   : 		char szTitle[MAX_PATH];
; 92   : 		wsprintf_e( szTitle, "talk_word_level%d", i+1 );

  00892	6a 04		 push	 4
  00894	c7 85 2c ff ff
	ff 99 8d 87 81	 mov	 DWORD PTR ___encStr$506004[ebp], -2121822823 ; 81878d99H
  0089e	c7 85 30 ff ff
	ff b2 9b 84 98	 mov	 DWORD PTR ___encStr$506004[ebp+4], -1736139854 ; 98849bb2H
  008a8	c7 85 34 ff ff
	ff 89 b3 87 8f	 mov	 DWORD PTR ___encStr$506004[ebp+8], -1886932087 ; 8f87b389H
  008b2	c7 85 38 ff ff
	ff 9b 89 87 cf	 mov	 DWORD PTR ___encStr$506004[ebp+12], -813200997 ; cf87899bH
  008bc	8d 85 2c ff ff
	ff		 lea	 eax, DWORD PTR ___encStr$506004[ebp]
  008c2	66 c7 85 3c ff
	ff ff 89 00	 mov	 WORD PTR ___encStr$506004[ebp+16], 137 ; 00000089H
  008cb	5a		 pop	 edx
$LL2242@LoadStatic:
  008cc	31 38		 xor	 DWORD PTR [eax], edi
  008ce	83 c0 04	 add	 eax, 4
  008d1	4a		 dec	 edx
  008d2	75 f8		 jne	 SHORT $LL2242@LoadStatic
  008d4	80 b5 3c ff ff
	ff ed		 xor	 BYTE PTR ___encStr$506004[ebp+16], -19 ; ffffffedH
  008db	41		 inc	 ecx
  008dc	51		 push	 ecx
  008dd	8d 85 2c ff ff
	ff		 lea	 eax, DWORD PTR ___encStr$506004[ebp]
  008e3	50		 push	 eax
  008e4	8d 85 f8 f9 ff
	ff		 lea	 eax, DWORD PTR _szTitle$506000[ebp]
  008ea	50		 push	 eax
  008eb	89 8d bc f9 ff
	ff		 mov	 DWORD PTR tv17538[ebp], ecx
  008f1	ff 15 00 00 00
	00		 call	 DWORD PTR __imp__wsprintfA

; 93   : 
; 94   : 		rkLoader.SetTitle( szTitle );

  008f7	8b 8d f0 f9 ff
	ff		 mov	 ecx, DWORD PTR _rkLoader$GSCopy$[ebp]
  008fd	83 c4 0c	 add	 esp, 12			; 0000000cH
  00900	8d 85 f8 f9 ff
	ff		 lea	 eax, DWORD PTR _szTitle$506000[ebp]
  00906	50		 push	 eax
  00907	ff 15 00 00 00
	00		 call	 DWORD PTR __imp_?SetTitle@ioINILoader@@QAEXPBD@Z
  0090d	6a 02		 push	 2

; 95   : 		int iLimitWord = rkLoader.LoadInt_e( "limit_word", 0 );

  0090f	c7 45 c4 81 85
	86 83		 mov	 DWORD PTR __k$520025[ebp], -2088335999 ; 83868581H
  00916	c7 45 c8 99 b3
	9c 85		 mov	 DWORD PTR __k$520025[ebp+4], -2053327975 ; 859cb399H
  0091d	66 c7 45 cc 9f
	88		 mov	 WORD PTR __k$520025[ebp+8], 34975 ; 0000889fH
  00923	8d 45 c4	 lea	 eax, DWORD PTR __k$520025[ebp]
  00926	c6 45 ce 00	 mov	 BYTE PTR __k$520025[ebp+10], 0
  0092a	59		 pop	 ecx
$LL2348@LoadStatic:
  0092b	31 38		 xor	 DWORD PTR [eax], edi
  0092d	83 c0 04	 add	 eax, 4
  00930	49		 dec	 ecx
  00931	75 f8		 jne	 SHORT $LL2348@LoadStatic
  00933	6a 08		 push	 8
  00935	5e		 pop	 esi
$LL2345@LoadStatic:
  00936	8b c6		 mov	 eax, esi
  00938	25 03 00 00 80	 and	 eax, -2147483645	; 80000003H
  0093d	79 05		 jns	 SHORT $LN2593@LoadStatic
  0093f	48		 dec	 eax
  00940	83 c8 fc	 or	 eax, -4			; fffffffcH
  00943	40		 inc	 eax
$LN2593@LoadStatic:
  00944	b1 ed		 mov	 cl, -19			; ffffffedH
  00946	2a c8		 sub	 cl, al
  00948	30 4c 35 c4	 xor	 BYTE PTR __k$520025[ebp+esi], cl
  0094c	46		 inc	 esi
  0094d	83 fe 0a	 cmp	 esi, 10			; 0000000aH
  00950	7c e4		 jl	 SHORT $LL2345@LoadStatic
  00952	8b 8d f0 f9 ff
	ff		 mov	 ecx, DWORD PTR _rkLoader$GSCopy$[ebp]
  00958	6a 00		 push	 0
  0095a	8d 45 c4	 lea	 eax, DWORD PTR __k$520025[ebp]
  0095d	50		 push	 eax
  0095e	ff d3		 call	 ebx
  00960	6a 02		 push	 2
  00962	89 85 c8 f9 ff
	ff		 mov	 DWORD PTR _iLimitWord$506154[ebp], eax

; 96   : 		int iTalkSoundCount = rkLoader.LoadInt_e( "sound_count", 0 );

  00968	c7 45 b4 9e 83
	9e 84		 mov	 DWORD PTR __k$520150[ebp], -2069986402 ; 849e839eH
  0096f	c7 45 b8 89 b3
	88 85		 mov	 DWORD PTR __k$520150[ebp+4], -2054638711 ; 8588b389H
  00976	8d 45 b4	 lea	 eax, DWORD PTR __k$520150[ebp]
  00979	c7 45 bc 98 82
	9f 00		 mov	 DWORD PTR __k$520150[ebp+8], 10453656 ; 009f8298H
  00980	59		 pop	 ecx
$LL2454@LoadStatic:
  00981	31 38		 xor	 DWORD PTR [eax], edi
  00983	83 c0 04	 add	 eax, 4
  00986	49		 dec	 ecx
  00987	75 f8		 jne	 SHORT $LL2454@LoadStatic
  00989	6a 08		 push	 8
  0098b	5e		 pop	 esi
$LL2451@LoadStatic:
  0098c	8b c6		 mov	 eax, esi
  0098e	25 03 00 00 80	 and	 eax, -2147483645	; 80000003H
  00993	79 05		 jns	 SHORT $LN2594@LoadStatic
  00995	48		 dec	 eax
  00996	83 c8 fc	 or	 eax, -4			; fffffffcH
  00999	40		 inc	 eax
$LN2594@LoadStatic:
  0099a	b1 ed		 mov	 cl, -19			; ffffffedH
  0099c	2a c8		 sub	 cl, al
  0099e	30 4c 35 b4	 xor	 BYTE PTR __k$520150[ebp+esi], cl
  009a2	46		 inc	 esi
  009a3	83 fe 0b	 cmp	 esi, 11			; 0000000bH
  009a6	7c e4		 jl	 SHORT $LL2451@LoadStatic
  009a8	8b 8d f0 f9 ff
	ff		 mov	 ecx, DWORD PTR _rkLoader$GSCopy$[ebp]
  009ae	33 f6		 xor	 esi, esi
  009b0	56		 push	 esi
  009b1	8d 45 b4	 lea	 eax, DWORD PTR __k$520150[ebp]
  009b4	50		 push	 eax
  009b5	ff d3		 call	 ebx
  009b7	89 85 c0 f9 ff
	ff		 mov	 DWORD PTR _iTalkSoundCount$506160[ebp], eax

; 97   : 
; 98   : 		if( iLimitWord == 0 || iTalkSoundCount == 0 )

  009bd	39 b5 c8 f9 ff
	ff		 cmp	 DWORD PTR _iLimitWord$506154[ebp], esi
  009c3	0f 84 3c 01 00
	00		 je	 $LN207@LoadStatic
  009c9	3b c6		 cmp	 eax, esi
  009cb	0f 84 34 01 00
	00		 je	 $LN207@LoadStatic

; 99   : 			continue;
; 100  : 
; 101  : 		SoundList vSoundList;

  009d1	89 b5 dc f9 ff
	ff		 mov	 DWORD PTR _vSoundList$506168[ebp], esi
  009d7	89 b5 e0 f9 ff
	ff		 mov	 DWORD PTR _vSoundList$506168[ebp+4], esi
  009dd	89 b5 e4 f9 ff
	ff		 mov	 DWORD PTR _vSoundList$506168[ebp+8], esi

; 102  : 		char szKey[MAX_PATH], szBuf[MAX_PATH];
; 103  : 		for( int j=0 ; j<iTalkSoundCount ; j++ )

  009e3	33 d2		 xor	 edx, edx
  009e5	89 75 fc	 mov	 DWORD PTR __$EHRec$[ebp+8], esi
  009e8	3b c6		 cmp	 eax, esi
  009ea	0f 8e 01 01 00
	00		 jle	 $LN1@LoadStatic
$LL104@LoadStatic:

; 104  : 		{
; 105  : 			wsprintf_e( szKey, "talk_sound%d", j+1 );

  009f0	6a 03		 push	 3
  009f2	c7 85 44 ff ff
	ff 99 8d 87 81	 mov	 DWORD PTR ___encStr$506178[ebp], -2121822823 ; 81878d99H
  009fc	c7 85 48 ff ff
	ff b2 9f 84 9f	 mov	 DWORD PTR ___encStr$506178[ebp+4], -1618698318 ; 9f849fb2H
  00a06	c7 85 4c ff ff
	ff 83 88 ce 8e	 mov	 DWORD PTR ___encStr$506178[ebp+8], -1899067261 ; 8ece8883H
  00a10	8d 85 44 ff ff
	ff		 lea	 eax, DWORD PTR ___encStr$506178[ebp]
  00a16	c6 85 50 ff ff
	ff 00		 mov	 BYTE PTR ___encStr$506178[ebp+12], 0
  00a1d	59		 pop	 ecx
$LL2470@LoadStatic:
  00a1e	81 30 ed ec eb
	ea		 xor	 DWORD PTR [eax], -353637139 ; eaebecedH
  00a24	83 c0 04	 add	 eax, 4
  00a27	49		 dec	 ecx
  00a28	75 f4		 jne	 SHORT $LL2470@LoadStatic
  00a2a	8d 42 01	 lea	 eax, DWORD PTR [edx+1]
  00a2d	50		 push	 eax
  00a2e	89 85 c4 f9 ff
	ff		 mov	 DWORD PTR tv17661[ebp], eax
  00a34	8d 85 44 ff ff
	ff		 lea	 eax, DWORD PTR ___encStr$506178[ebp]
  00a3a	50		 push	 eax
  00a3b	8d 85 fc fa ff
	ff		 lea	 eax, DWORD PTR _szKey$506169[ebp]
  00a41	50		 push	 eax
  00a42	ff 15 00 00 00
	00		 call	 DWORD PTR __imp__wsprintfA

; 106  : 			rkLoader.LoadString( szKey, "", szBuf, MAX_PATH );

  00a48	8b 8d f0 f9 ff
	ff		 mov	 ecx, DWORD PTR _rkLoader$GSCopy$[ebp]
  00a4e	83 c4 0c	 add	 esp, 12			; 0000000cH
  00a51	68 04 01 00 00	 push	 260			; 00000104H
  00a56	8d 85 00 fc ff
	ff		 lea	 eax, DWORD PTR _szBuf$506170[ebp]
  00a5c	50		 push	 eax
  00a5d	bf 00 00 00 00	 mov	 edi, OFFSET ??_C@_00CNPNBAHC@?$AA@
  00a62	57		 push	 edi
  00a63	8d 85 fc fa ff
	ff		 lea	 eax, DWORD PTR _szKey$506169[ebp]
  00a69	50		 push	 eax
  00a6a	ff 15 00 00 00
	00		 call	 DWORD PTR __imp_?LoadStringA@ioINILoader@@QAEXPBD0PADH@Z

; 107  : 
; 108  : 			if( strcmp( szBuf, "" ) )

  00a70	33 c9		 xor	 ecx, ecx
  00a72	41		 inc	 ecx
  00a73	8d b5 00 fc ff
	ff		 lea	 esi, DWORD PTR _szBuf$506170[ebp]
  00a79	33 c0		 xor	 eax, eax
  00a7b	f3 a6		 repe cmpsb
  00a7d	74 33		 je	 SHORT $LN103@LoadStatic

; 109  : 			{
; 110  : 				vSoundList.push_back( ioHashString( szBuf ) );

  00a7f	8d 85 00 fc ff
	ff		 lea	 eax, DWORD PTR _szBuf$506170[ebp]
  00a85	50		 push	 eax
  00a86	8d 8d cc f9 ff
	ff		 lea	 ecx, DWORD PTR $T517600[ebp]
  00a8c	ff 15 00 00 00
	00		 call	 DWORD PTR __imp_??0ioHashString@@QAE@PBD@Z
  00a92	50		 push	 eax
  00a93	8d 8d dc f9 ff
	ff		 lea	 ecx, DWORD PTR _vSoundList$506168[ebp]
  00a99	c6 45 fc 01	 mov	 BYTE PTR __$EHRec$[ebp+8], 1
  00a9d	e8 00 00 00 00	 call	 ?push_back@?$vector@VioHashString@@V?$allocator@VioHashString@@@std@@@std@@QAEX$$QAVioHashString@@@Z ; std::vector<ioHashString,std::allocator<ioHashString> >::push_back
  00aa2	8d 8d cc f9 ff
	ff		 lea	 ecx, DWORD PTR $T517600[ebp]
  00aa8	c6 45 fc 00	 mov	 BYTE PTR __$EHRec$[ebp+8], 0
  00aac	ff 15 00 00 00
	00		 call	 DWORD PTR __imp_??1ioHashString@@QAE@XZ
$LN103@LoadStatic:

; 102  : 		char szKey[MAX_PATH], szBuf[MAX_PATH];
; 103  : 		for( int j=0 ; j<iTalkSoundCount ; j++ )

  00ab2	8b 95 c4 f9 ff
	ff		 mov	 edx, DWORD PTR tv17661[ebp]
  00ab8	3b 95 c0 f9 ff
	ff		 cmp	 edx, DWORD PTR _iTalkSoundCount$506160[ebp]
  00abe	0f 8c 2c ff ff
	ff		 jl	 $LL104@LoadStatic

; 111  : 			}
; 112  : 		}
; 113  : 
; 114  : 		if( !vSoundList.empty() )

  00ac4	8b 85 dc f9 ff
	ff		 mov	 eax, DWORD PTR _vSoundList$506168[ebp]
  00aca	3b 85 e0 f9 ff
	ff		 cmp	 eax, DWORD PTR _vSoundList$506168[ebp+4]
  00ad0	74 1f		 je	 SHORT $LN1@LoadStatic

; 115  : 		{
; 116  : 			m_TalkSoundMap[iLimitWord] = vSoundList;

  00ad2	8d 85 dc f9 ff
	ff		 lea	 eax, DWORD PTR _vSoundList$506168[ebp]
  00ad8	50		 push	 eax
  00ad9	8d 85 c8 f9 ff
	ff		 lea	 eax, DWORD PTR _iLimitWord$506154[ebp]
  00adf	50		 push	 eax
  00ae0	b9 00 00 00 00	 mov	 ecx, OFFSET ?m_TalkSoundMap@io3DCharEmoticon@@0V?$map@HV?$vector@VioHashString@@V?$allocator@VioHashString@@@std@@@std@@U?$less@H@2@V?$allocator@U?$pair@$$CBHV?$vector@VioHashString@@V?$allocator@VioHashString@@@std@@@std@@@std@@@2@@std@@A ; io3DCharEmoticon::m_TalkSoundMap
  00ae5	e8 00 00 00 00	 call	 ??A?$map@HV?$vector@VioHashString@@V?$allocator@VioHashString@@@std@@@std@@U?$less@H@2@V?$allocator@U?$pair@$$CBHV?$vector@VioHashString@@V?$allocator@VioHashString@@@std@@@std@@@std@@@2@@std@@QAEAAV?$vector@VioHashString@@V?$allocator@VioHashString@@@std@@@1@ABH@Z ; std::map<int,std::vector<ioHashString,std::allocator<ioHashString> >,std::less<int>,std::allocator<std::pair<int const ,std::vector<ioHashString,std::allocator<ioHashString> > > > >::operator[]
  00aea	8b c8		 mov	 ecx, eax
  00aec	e8 00 00 00 00	 call	 ??4?$vector@VioHashString@@V?$allocator@VioHashString@@@std@@@std@@QAEAAV01@ABV01@@Z ; std::vector<ioHashString,std::allocator<ioHashString> >::operator=
$LN1@LoadStatic:

; 117  : 		}
; 118  : 	}

  00af1	83 4d fc ff	 or	 DWORD PTR __$EHRec$[ebp+8], -1
  00af5	8d 8d dc f9 ff
	ff		 lea	 ecx, DWORD PTR _vSoundList$506168[ebp]
  00afb	e8 00 00 00 00	 call	 ?_Tidy@?$vector@VioHashString@@V?$allocator@VioHashString@@@std@@@std@@IAEXXZ ; std::vector<ioHashString,std::allocator<ioHashString> >::_Tidy
  00b00	bf ed ec eb ea	 mov	 edi, -353637139		; eaebecedH
$LN207@LoadStatic:

; 89   : 	for( int i=0 ; i<iTalkLevelCount ; i++ )

  00b05	8b 8d bc f9 ff
	ff		 mov	 ecx, DWORD PTR tv17538[ebp]
  00b0b	3b 8d ec f9 ff
	ff		 cmp	 ecx, DWORD PTR _iTalkLevelCount$[ebp]
  00b11	0f 8c 7b fd ff
	ff		 jl	 $LN208@LoadStatic
$LN206@LoadStatic:

; 119  : }

  00b17	e8 00 00 00 00	 call	 __EH_epilog3_GS
  00b1c	c3		 ret	 0
_TEXT	ENDS
;	COMDAT text$x
text$x	SEGMENT
__unwindfunclet$?LoadStaticValue@io3DCharEmoticon@@SAXAAVioINILoader@@@Z$0:
  00000	8d 8d dc f9 ff
	ff		 lea	 ecx, DWORD PTR _vSoundList$506168[ebp]
  00006	e9 00 00 00 00	 jmp	 ??1?$vector@VioHashString@@V?$allocator@VioHashString@@@std@@@std@@QAE@XZ ; std::vector<ioHashString,std::allocator<ioHashString> >::~vector<ioHashString,std::allocator<ioHashString> >
__unwindfunclet$?LoadStaticValue@io3DCharEmoticon@@SAXAAVioINILoader@@@Z$1:
  0000b	8d 8d cc f9 ff
	ff		 lea	 ecx, DWORD PTR $T517600[ebp]
  00011	ff 25 00 00 00
	00		 jmp	 DWORD PTR __imp_??1ioHashString@@QAE@XZ
__ehhandler$?LoadStaticValue@io3DCharEmoticon@@SAXAAVioINILoader@@@Z:
  00017	8b 54 24 08	 mov	 edx, DWORD PTR [esp+8]
  0001b	8d 42 0c	 lea	 eax, DWORD PTR [edx+12]
  0001e	8b 8a b8 f9 ff
	ff		 mov	 ecx, DWORD PTR [edx-1608]
  00024	33 c8		 xor	 ecx, eax
  00026	e8 00 00 00 00	 call	 @__security_check_cookie@4
  0002b	8b 4a fc	 mov	 ecx, DWORD PTR [edx-4]
  0002e	33 c8		 xor	 ecx, eax
  00030	e8 00 00 00 00	 call	 @__security_check_cookie@4
  00035	b8 00 00 00 00	 mov	 eax, OFFSET __ehfuncinfo$?LoadStaticValue@io3DCharEmoticon@@SAXAAVioINILoader@@@Z
  0003a	e9 00 00 00 00	 jmp	 ___CxxFrameHandler3
text$x	ENDS
?LoadStaticValue@io3DCharEmoticon@@SAXAAVioINILoader@@@Z ENDP ; io3DCharEmoticon::LoadStaticValue
PUBLIC	??1?$_Tree@V?$_Tmap_traits@HV?$vector@VioHashString@@V?$allocator@VioHashString@@@std@@@std@@U?$less@H@2@V?$allocator@U?$pair@$$CBHV?$vector@VioHashString@@V?$allocator@VioHashString@@@std@@@std@@@std@@@2@$0A@@std@@@std@@QAE@XZ ; std::_Tree<std::_Tmap_traits<int,std::vector<ioHashString,std::allocator<ioHashString> >,std::less<int>,std::allocator<std::pair<int const ,std::vector<ioHashString,std::allocator<ioHashString> > > >,0> >::~_Tree<std::_Tmap_traits<int,std::vector<ioHashString,std::allocator<ioHashString> >,std::less<int>,std::allocator<std::pair<int const ,std::vector<ioHashString,std::allocator<ioHashString> > > >,0> >
;	COMDAT xdata$x
; File c:\program files (x86)\microsoft visual studio 10.0\vc\include\xmemory
xdata$x	SEGMENT
__unwindtable$??1?$_Tree@V?$_Tmap_traits@HV?$vector@VioHashString@@V?$allocator@VioHashString@@@std@@@std@@U?$less@H@2@V?$allocator@U?$pair@$$CBHV?$vector@VioHashString@@V?$allocator@VioHashString@@@std@@@std@@@std@@@2@$0A@@std@@@std@@QAE@XZ DD 0ffffffffH
	DD	FLAT:__unwindfunclet$??1?$_Tree@V?$_Tmap_traits@HV?$vector@VioHashString@@V?$allocator@VioHashString@@@std@@@std@@U?$less@H@2@V?$allocator@U?$pair@$$CBHV?$vector@VioHashString@@V?$allocator@VioHashString@@@std@@@std@@@std@@@2@$0A@@std@@@std@@QAE@XZ$0
__ehfuncinfo$??1?$_Tree@V?$_Tmap_traits@HV?$vector@VioHashString@@V?$allocator@VioHashString@@@std@@@std@@U?$less@H@2@V?$allocator@U?$pair@$$CBHV?$vector@VioHashString@@V?$allocator@VioHashString@@@std@@@std@@@std@@@2@$0A@@std@@@std@@QAE@XZ DD 019930522H
	DD	01H
	DD	FLAT:__unwindtable$??1?$_Tree@V?$_Tmap_traits@HV?$vector@VioHashString@@V?$allocator@VioHashString@@@std@@@std@@U?$less@H@2@V?$allocator@U?$pair@$$CBHV?$vector@VioHashString@@V?$allocator@VioHashString@@@std@@@std@@@std@@@2@$0A@@std@@@std@@QAE@XZ
	DD	2 DUP(00H)
	DD	2 DUP(00H)
	DD	00H
	DD	01H
; Function compile flags: /Ogsp
; File c:\program files (x86)\microsoft visual studio 10.0\vc\include\xtree
xdata$x	ENDS
;	COMDAT ??1?$_Tree@V?$_Tmap_traits@HV?$vector@VioHashString@@V?$allocator@VioHashString@@@std@@@std@@U?$less@H@2@V?$allocator@U?$pair@$$CBHV?$vector@VioHashString@@V?$allocator@VioHashString@@@std@@@std@@@std@@@2@$0A@@std@@@std@@QAE@XZ
_TEXT	SEGMENT
$T520530 = -20						; size = 4
_this$ = -16						; size = 4
__$EHRec$ = -12						; size = 12
??1?$_Tree@V?$_Tmap_traits@HV?$vector@VioHashString@@V?$allocator@VioHashString@@@std@@@std@@U?$less@H@2@V?$allocator@U?$pair@$$CBHV?$vector@VioHashString@@V?$allocator@VioHashString@@@std@@@std@@@std@@@2@$0A@@std@@@std@@QAE@XZ PROC ; std::_Tree<std::_Tmap_traits<int,std::vector<ioHashString,std::allocator<ioHashString> >,std::less<int>,std::allocator<std::pair<int const ,std::vector<ioHashString,std::allocator<ioHashString> > > >,0> >::~_Tree<std::_Tmap_traits<int,std::vector<ioHashString,std::allocator<ioHashString> >,std::less<int>,std::allocator<std::pair<int const ,std::vector<ioHashString,std::allocator<ioHashString> > > >,0> >, COMDAT
; _this$ = ecx

; 790  : 		{	// destroy tree

  00000	6a 08		 push	 8
  00002	b8 00 00 00 00	 mov	 eax, __ehhandler$??1?$_Tree@V?$_Tmap_traits@HV?$vector@VioHashString@@V?$allocator@VioHashString@@@std@@@std@@U?$less@H@2@V?$allocator@U?$pair@$$CBHV?$vector@VioHashString@@V?$allocator@VioHashString@@@std@@@std@@@std@@@2@$0A@@std@@@std@@QAE@XZ
  00007	e8 00 00 00 00	 call	 __EH_prolog3
  0000c	8b f1		 mov	 esi, ecx
  0000e	89 75 f0	 mov	 DWORD PTR _this$[ebp], esi

; 791  : 		_Tidy();

  00011	8b 46 04	 mov	 eax, DWORD PTR [esi+4]
  00014	8b 08		 mov	 ecx, DWORD PTR [eax]
  00016	83 65 fc 00	 and	 DWORD PTR __$EHRec$[ebp+8], 0
  0001a	50		 push	 eax
  0001b	51		 push	 ecx
  0001c	8d 45 ec	 lea	 eax, DWORD PTR $T520530[ebp]
  0001f	50		 push	 eax
  00020	8b ce		 mov	 ecx, esi
  00022	e8 00 00 00 00	 call	 ?erase@?$_Tree@V?$_Tmap_traits@HV?$vector@VioHashString@@V?$allocator@VioHashString@@@std@@@std@@U?$less@H@2@V?$allocator@U?$pair@$$CBHV?$vector@VioHashString@@V?$allocator@VioHashString@@@std@@@std@@@std@@@2@$0A@@std@@@std@@QAE?AV?$_Tree_iterator@V?$_Tree_val@V?$_Tmap_traits@HV?$vector@VioHashString@@V?$allocator@VioHashString@@@std@@@std@@U?$less@H@2@V?$allocator@U?$pair@$$CBHV?$vector@VioHashString@@V?$allocator@VioHashString@@@std@@@std@@@std@@@2@$0A@@std@@@std@@@2@V?$_Tree_const_iterator@V?$_Tree_val@V?$_Tmap_traits@HV?$vector@VioHashString@@V?$allocator@VioHashString@@@std@@@std@@U?$less@H@2@V?$allocator@U?$pair@$$CBHV?$vector@VioHashString@@V?$allocator@VioHashString@@@std@@@std@@@std@@@2@$0A@@std@@@std@@@2@0@Z ; std::_Tree<std::_Tmap_traits<int,std::vector<ioHashString,std::allocator<ioHashString> >,std::less<int>,std::allocator<std::pair<int const ,std::vector<ioHashString,std::allocator<ioHashString> > > >,0> >::erase

; 792  : 		}

  00027	ff 76 04	 push	 DWORD PTR [esi+4]
  0002a	e8 00 00 00 00	 call	 ??3@YAXPAX@Z		; operator delete
  0002f	59		 pop	 ecx
  00030	e8 00 00 00 00	 call	 __EH_epilog3
  00035	c3		 ret	 0
_TEXT	ENDS
;	COMDAT text$x
text$x	SEGMENT
__unwindfunclet$??1?$_Tree@V?$_Tmap_traits@HV?$vector@VioHashString@@V?$allocator@VioHashString@@@std@@@std@@U?$less@H@2@V?$allocator@U?$pair@$$CBHV?$vector@VioHashString@@V?$allocator@VioHashString@@@std@@@std@@@std@@@2@$0A@@std@@@std@@QAE@XZ$0:
  00000	8b 4d f0	 mov	 ecx, DWORD PTR _this$[ebp]
  00003	e9 00 00 00 00	 jmp	 ??1?$_Tree_val@V?$_Tmap_traits@HV?$vector@VioHashString@@V?$allocator@VioHashString@@@std@@@std@@U?$less@H@2@V?$allocator@U?$pair@$$CBHV?$vector@VioHashString@@V?$allocator@VioHashString@@@std@@@std@@@std@@@2@$0A@@std@@@std@@QAE@XZ ; std::_Tree_val<std::_Tmap_traits<int,std::vector<ioHashString,std::allocator<ioHashString> >,std::less<int>,std::allocator<std::pair<int const ,std::vector<ioHashString,std::allocator<ioHashString> > > >,0> >::~_Tree_val<std::_Tmap_traits<int,std::vector<ioHashString,std::allocator<ioHashString> >,std::less<int>,std::allocator<std::pair<int const ,std::vector<ioHashString,std::allocator<ioHashString> > > >,0> >
__ehhandler$??1?$_Tree@V?$_Tmap_traits@HV?$vector@VioHashString@@V?$allocator@VioHashString@@@std@@@std@@U?$less@H@2@V?$allocator@U?$pair@$$CBHV?$vector@VioHashString@@V?$allocator@VioHashString@@@std@@@std@@@std@@@2@$0A@@std@@@std@@QAE@XZ:
  00008	8b 54 24 08	 mov	 edx, DWORD PTR [esp+8]
  0000c	8d 42 0c	 lea	 eax, DWORD PTR [edx+12]
  0000f	8b 4a e8	 mov	 ecx, DWORD PTR [edx-24]
  00012	33 c8		 xor	 ecx, eax
  00014	e8 00 00 00 00	 call	 @__security_check_cookie@4
  00019	b8 00 00 00 00	 mov	 eax, OFFSET __ehfuncinfo$??1?$_Tree@V?$_Tmap_traits@HV?$vector@VioHashString@@V?$allocator@VioHashString@@@std@@@std@@U?$less@H@2@V?$allocator@U?$pair@$$CBHV?$vector@VioHashString@@V?$allocator@VioHashString@@@std@@@std@@@std@@@2@$0A@@std@@@std@@QAE@XZ
  0001e	e9 00 00 00 00	 jmp	 ___CxxFrameHandler3
text$x	ENDS
??1?$_Tree@V?$_Tmap_traits@HV?$vector@VioHashString@@V?$allocator@VioHashString@@@std@@@std@@U?$less@H@2@V?$allocator@U?$pair@$$CBHV?$vector@VioHashString@@V?$allocator@VioHashString@@@std@@@std@@@std@@@2@$0A@@std@@@std@@QAE@XZ ENDP ; std::_Tree<std::_Tmap_traits<int,std::vector<ioHashString,std::allocator<ioHashString> >,std::less<int>,std::allocator<std::pair<int const ,std::vector<ioHashString,std::allocator<ioHashString> > > >,0> >::~_Tree<std::_Tmap_traits<int,std::vector<ioHashString,std::allocator<ioHashString> >,std::less<int>,std::allocator<std::pair<int const ,std::vector<ioHashString,std::allocator<ioHashString> > > >,0> >
PUBLIC	??1?$map@HV?$vector@VioHashString@@V?$allocator@VioHashString@@@std@@@std@@U?$less@H@2@V?$allocator@U?$pair@$$CBHV?$vector@VioHashString@@V?$allocator@VioHashString@@@std@@@std@@@std@@@2@@std@@QAE@XZ ; std::map<int,std::vector<ioHashString,std::allocator<ioHashString> >,std::less<int>,std::allocator<std::pair<int const ,std::vector<ioHashString,std::allocator<ioHashString> > > > >::~map<int,std::vector<ioHashString,std::allocator<ioHashString> >,std::less<int>,std::allocator<std::pair<int const ,std::vector<ioHashString,std::allocator<ioHashString> > > > >
; Function compile flags: /Ogsp
;	COMDAT ??1?$map@HV?$vector@VioHashString@@V?$allocator@VioHashString@@@std@@@std@@U?$less@H@2@V?$allocator@U?$pair@$$CBHV?$vector@VioHashString@@V?$allocator@VioHashString@@@std@@@std@@@std@@@2@@std@@QAE@XZ
_TEXT	SEGMENT
??1?$map@HV?$vector@VioHashString@@V?$allocator@VioHashString@@@std@@@std@@U?$less@H@2@V?$allocator@U?$pair@$$CBHV?$vector@VioHashString@@V?$allocator@VioHashString@@@std@@@std@@@std@@@2@@std@@QAE@XZ PROC ; std::map<int,std::vector<ioHashString,std::allocator<ioHashString> >,std::less<int>,std::allocator<std::pair<int const ,std::vector<ioHashString,std::allocator<ioHashString> > > > >::~map<int,std::vector<ioHashString,std::allocator<ioHashString> >,std::less<int>,std::allocator<std::pair<int const ,std::vector<ioHashString,std::allocator<ioHashString> > > > >, COMDAT
; _this$ = ecx
  00000	e9 00 00 00 00	 jmp	 ??1?$_Tree@V?$_Tmap_traits@HV?$vector@VioHashString@@V?$allocator@VioHashString@@@std@@@std@@U?$less@H@2@V?$allocator@U?$pair@$$CBHV?$vector@VioHashString@@V?$allocator@VioHashString@@@std@@@std@@@std@@@2@$0A@@std@@@std@@QAE@XZ ; std::_Tree<std::_Tmap_traits<int,std::vector<ioHashString,std::allocator<ioHashString> >,std::less<int>,std::allocator<std::pair<int const ,std::vector<ioHashString,std::allocator<ioHashString> > > >,0> >::~_Tree<std::_Tmap_traits<int,std::vector<ioHashString,std::allocator<ioHashString> >,std::less<int>,std::allocator<std::pair<int const ,std::vector<ioHashString,std::allocator<ioHashString> > > >,0> >
??1?$map@HV?$vector@VioHashString@@V?$allocator@VioHashString@@@std@@@std@@U?$less@H@2@V?$allocator@U?$pair@$$CBHV?$vector@VioHashString@@V?$allocator@VioHashString@@@std@@@std@@@std@@@2@@std@@QAE@XZ ENDP ; std::map<int,std::vector<ioHashString,std::allocator<ioHashString> >,std::less<int>,std::allocator<std::pair<int const ,std::vector<ioHashString,std::allocator<ioHashString> > > > >::~map<int,std::vector<ioHashString,std::allocator<ioHashString> >,std::less<int>,std::allocator<std::pair<int const ,std::vector<ioHashString,std::allocator<ioHashString> > > > >
_TEXT	ENDS
PUBLIC	??0?$map@HV?$vector@VioHashString@@V?$allocator@VioHashString@@@std@@@std@@U?$less@H@2@V?$allocator@U?$pair@$$CBHV?$vector@VioHashString@@V?$allocator@VioHashString@@@std@@@std@@@std@@@2@@std@@QAE@XZ ; std::map<int,std::vector<ioHashString,std::allocator<ioHashString> >,std::less<int>,std::allocator<std::pair<int const ,std::vector<ioHashString,std::allocator<ioHashString> > > > >::map<int,std::vector<ioHashString,std::allocator<ioHashString> >,std::less<int>,std::allocator<std::pair<int const ,std::vector<ioHashString,std::allocator<ioHashString> > > > >
; Function compile flags: /Ogsp
; File c:\program files (x86)\microsoft visual studio 10.0\vc\include\map
;	COMDAT ??0?$map@HV?$vector@VioHashString@@V?$allocator@VioHashString@@@std@@@std@@U?$less@H@2@V?$allocator@U?$pair@$$CBHV?$vector@VioHashString@@V?$allocator@VioHashString@@@std@@@std@@@std@@@2@@std@@QAE@XZ
_TEXT	SEGMENT
$T520589 = -8						; size = 4
$T520592 = -8						; size = 4
$T520578 = -1						; size = 1
??0?$map@HV?$vector@VioHashString@@V?$allocator@VioHashString@@@std@@@std@@U?$less@H@2@V?$allocator@U?$pair@$$CBHV?$vector@VioHashString@@V?$allocator@VioHashString@@@std@@@std@@@std@@@2@@std@@QAE@XZ PROC ; std::map<int,std::vector<ioHashString,std::allocator<ioHashString> >,std::less<int>,std::allocator<std::pair<int const ,std::vector<ioHashString,std::allocator<ioHashString> > > > >::map<int,std::vector<ioHashString,std::allocator<ioHashString> >,std::less<int>,std::allocator<std::pair<int const ,std::vector<ioHashString,std::allocator<ioHashString> > > > >, COMDAT
; _this$ = ecx

; 106  : 		{	// construct empty map from defaults

  00000	55		 push	 ebp
  00001	8b ec		 mov	 ebp, esp
  00003	51		 push	 ecx
  00004	51		 push	 ecx
  00005	56		 push	 esi
  00006	51		 push	 ecx
  00007	89 65 f8	 mov	 DWORD PTR $T520592[ebp], esp
  0000a	8d 45 ff	 lea	 eax, DWORD PTR $T520578[ebp]
  0000d	89 65 f8	 mov	 DWORD PTR $T520589[ebp], esp
  00010	50		 push	 eax
  00011	8b f1		 mov	 esi, ecx
  00013	e8 00 00 00 00	 call	 ??0?$_Tree_val@V?$_Tmap_traits@HV?$vector@VioHashString@@V?$allocator@VioHashString@@@std@@@std@@U?$less@H@2@V?$allocator@U?$pair@$$CBHV?$vector@VioHashString@@V?$allocator@VioHashString@@@std@@@std@@@std@@@2@$0A@@std@@@std@@QAE@ABU?$less@H@1@V?$allocator@U?$pair@$$CBHV?$vector@VioHashString@@V?$allocator@VioHashString@@@std@@@std@@@std@@@1@@Z ; std::_Tree_val<std::_Tmap_traits<int,std::vector<ioHashString,std::allocator<ioHashString> >,std::less<int>,std::allocator<std::pair<int const ,std::vector<ioHashString,std::allocator<ioHashString> > > >,0> >::_Tree_val<std::_Tmap_traits<int,std::vector<ioHashString,std::allocator<ioHashString> >,std::less<int>,std::allocator<std::pair<int const ,std::vector<ioHashString,std::allocator<ioHashString> > > >,0> >

; 107  : 		}

  00018	8b c6		 mov	 eax, esi
  0001a	5e		 pop	 esi
  0001b	c9		 leave
  0001c	c3		 ret	 0
??0?$map@HV?$vector@VioHashString@@V?$allocator@VioHashString@@@std@@@std@@U?$less@H@2@V?$allocator@U?$pair@$$CBHV?$vector@VioHashString@@V?$allocator@VioHashString@@@std@@@std@@@std@@@2@@std@@QAE@XZ ENDP ; std::map<int,std::vector<ioHashString,std::allocator<ioHashString> >,std::less<int>,std::allocator<std::pair<int const ,std::vector<ioHashString,std::allocator<ioHashString> > > > >::map<int,std::vector<ioHashString,std::allocator<ioHashString> >,std::less<int>,std::allocator<std::pair<int const ,std::vector<ioHashString,std::allocator<ioHashString> > > > >
_TEXT	ENDS
EXTRN	_atexit:PROC
; Function compile flags: /Ogsp
; File d:\lost saga for developer\youtube\tutorial\source\src\lsclient\io3dcharemoticon.cpp
;	COMDAT ??__E?m_TalkSoundMap@io3DCharEmoticon@@0V?$map@HV?$vector@VioHashString@@V?$allocator@VioHashString@@@std@@@std@@U?$less@H@2@V?$allocator@U?$pair@$$CBHV?$vector@VioHashString@@V?$allocator@VioHashString@@@std@@@std@@@std@@@2@@std@@A@@YAXXZ
text$yc	SEGMENT
$T520611 = -8						; size = 4
$T520624 = -8						; size = 4
$T520619 = -1						; size = 1
??__E?m_TalkSoundMap@io3DCharEmoticon@@0V?$map@HV?$vector@VioHashString@@V?$allocator@VioHashString@@@std@@@std@@U?$less@H@2@V?$allocator@U?$pair@$$CBHV?$vector@VioHashString@@V?$allocator@VioHashString@@@std@@@std@@@std@@@2@@std@@A@@YAXXZ PROC ; `dynamic initializer for 'io3DCharEmoticon::m_TalkSoundMap'', COMDAT

; 11   : io3DCharEmoticon::TalkSoundMap io3DCharEmoticon::m_TalkSoundMap;

  00000	55		 push	 ebp
  00001	8b ec		 mov	 ebp, esp
  00003	51		 push	 ecx
  00004	51		 push	 ecx
  00005	51		 push	 ecx
  00006	89 65 f8	 mov	 DWORD PTR $T520624[ebp], esp
  00009	8d 45 ff	 lea	 eax, DWORD PTR $T520619[ebp]
  0000c	89 65 f8	 mov	 DWORD PTR $T520611[ebp], esp
  0000f	50		 push	 eax
  00010	b9 00 00 00 00	 mov	 ecx, OFFSET ?m_TalkSoundMap@io3DCharEmoticon@@0V?$map@HV?$vector@VioHashString@@V?$allocator@VioHashString@@@std@@@std@@U?$less@H@2@V?$allocator@U?$pair@$$CBHV?$vector@VioHashString@@V?$allocator@VioHashString@@@std@@@std@@@std@@@2@@std@@A ; io3DCharEmoticon::m_TalkSoundMap
  00015	e8 00 00 00 00	 call	 ??0?$_Tree_val@V?$_Tmap_traits@HV?$vector@VioHashString@@V?$allocator@VioHashString@@@std@@@std@@U?$less@H@2@V?$allocator@U?$pair@$$CBHV?$vector@VioHashString@@V?$allocator@VioHashString@@@std@@@std@@@std@@@2@$0A@@std@@@std@@QAE@ABU?$less@H@1@V?$allocator@U?$pair@$$CBHV?$vector@VioHashString@@V?$allocator@VioHashString@@@std@@@std@@@std@@@1@@Z ; std::_Tree_val<std::_Tmap_traits<int,std::vector<ioHashString,std::allocator<ioHashString> >,std::less<int>,std::allocator<std::pair<int const ,std::vector<ioHashString,std::allocator<ioHashString> > > >,0> >::_Tree_val<std::_Tmap_traits<int,std::vector<ioHashString,std::allocator<ioHashString> >,std::less<int>,std::allocator<std::pair<int const ,std::vector<ioHashString,std::allocator<ioHashString> > > >,0> >
  0001a	68 00 00 00 00	 push	 OFFSET ??__F?m_TalkSoundMap@io3DCharEmoticon@@0V?$map@HV?$vector@VioHashString@@V?$allocator@VioHashString@@@std@@@std@@U?$less@H@2@V?$allocator@U?$pair@$$CBHV?$vector@VioHashString@@V?$allocator@VioHashString@@@std@@@std@@@std@@@2@@std@@A@@YAXXZ ; `dynamic atexit destructor for 'io3DCharEmoticon::m_TalkSoundMap''
  0001f	e8 00 00 00 00	 call	 _atexit
  00024	59		 pop	 ecx
  00025	c9		 leave
  00026	c3		 ret	 0
??__E?m_TalkSoundMap@io3DCharEmoticon@@0V?$map@HV?$vector@VioHashString@@V?$allocator@VioHashString@@@std@@@std@@U?$less@H@2@V?$allocator@U?$pair@$$CBHV?$vector@VioHashString@@V?$allocator@VioHashString@@@std@@@std@@@std@@@2@@std@@A@@YAXXZ ENDP ; `dynamic initializer for 'io3DCharEmoticon::m_TalkSoundMap''
; Function compile flags: /Ogsp
text$yc	ENDS
;	COMDAT ??__E?m_fCharScale@io3DCharEmoticon@@0MA@@YAXXZ
text$yc	SEGMENT
tv69 = -4						; size = 4
??__E?m_fCharScale@io3DCharEmoticon@@0MA@@YAXXZ PROC	; `dynamic initializer for 'io3DCharEmoticon::m_fCharScale'', COMDAT

; 13   : float io3DCharEmoticon::m_fCharScale = FLOAT1;

  00000	55		 push	 ebp
  00001	8b ec		 mov	 ebp, esp
  00003	51		 push	 ecx
  00004	b8 01 00 00 00	 mov	 eax, 1
  00009	89 45 fc	 mov	 DWORD PTR tv69[ebp], eax
  0000c	db 45 fc	 fild	 DWORD PTR tv69[ebp]
  0000f	85 c0		 test	 eax, eax
  00011	79 06		 jns	 SHORT $LN5@m_fCharSca
  00013	d8 05 00 00 00
	00		 fadd	 DWORD PTR __real@4f800000
$LN5@m_fCharSca:
  00019	d9 1d 00 00 00
	00		 fstp	 DWORD PTR ?m_fCharScale@io3DCharEmoticon@@0MA ; io3DCharEmoticon::m_fCharScale
  0001f	c9		 leave
  00020	c3		 ret	 0
??__E?m_fCharScale@io3DCharEmoticon@@0MA@@YAXXZ ENDP	; `dynamic initializer for 'io3DCharEmoticon::m_fCharScale''
; Function compile flags: /Ogsp
text$yc	ENDS
;	COMDAT ??__E?m_FacePostfix@io3DCharEmoticon@@0VioHashString@@A@@YAXXZ
text$yc	SEGMENT
??__E?m_FacePostfix@io3DCharEmoticon@@0VioHashString@@A@@YAXXZ PROC ; `dynamic initializer for 'io3DCharEmoticon::m_FacePostfix'', COMDAT

; 17   : ioHashString io3DCharEmoticon::m_FacePostfix;

  00000	b9 00 00 00 00	 mov	 ecx, OFFSET ?m_FacePostfix@io3DCharEmoticon@@0VioHashString@@A ; io3DCharEmoticon::m_FacePostfix
  00005	ff 15 00 00 00
	00		 call	 DWORD PTR __imp_??0ioHashString@@QAE@XZ
  0000b	68 00 00 00 00	 push	 OFFSET ??__F?m_FacePostfix@io3DCharEmoticon@@0VioHashString@@A@@YAXXZ ; `dynamic atexit destructor for 'io3DCharEmoticon::m_FacePostfix''
  00010	e8 00 00 00 00	 call	 _atexit
  00015	59		 pop	 ecx
  00016	c3		 ret	 0
??__E?m_FacePostfix@io3DCharEmoticon@@0VioHashString@@A@@YAXXZ ENDP ; `dynamic initializer for 'io3DCharEmoticon::m_FacePostfix''
; Function compile flags: /Ogsp
text$yc	ENDS
;	COMDAT ??__E?m_KillFace@io3DCharEmoticon@@0VioHashString@@A@@YAXXZ
text$yc	SEGMENT
??__E?m_KillFace@io3DCharEmoticon@@0VioHashString@@A@@YAXXZ PROC ; `dynamic initializer for 'io3DCharEmoticon::m_KillFace'', COMDAT

; 18   : ioHashString io3DCharEmoticon::m_KillFace;

  00000	b9 00 00 00 00	 mov	 ecx, OFFSET ?m_KillFace@io3DCharEmoticon@@0VioHashString@@A ; io3DCharEmoticon::m_KillFace
  00005	ff 15 00 00 00
	00		 call	 DWORD PTR __imp_??0ioHashString@@QAE@XZ
  0000b	68 00 00 00 00	 push	 OFFSET ??__F?m_KillFace@io3DCharEmoticon@@0VioHashString@@A@@YAXXZ ; `dynamic atexit destructor for 'io3DCharEmoticon::m_KillFace''
  00010	e8 00 00 00 00	 call	 _atexit
  00015	59		 pop	 ecx
  00016	c3		 ret	 0
??__E?m_KillFace@io3DCharEmoticon@@0VioHashString@@A@@YAXXZ ENDP ; `dynamic initializer for 'io3DCharEmoticon::m_KillFace''
; Function compile flags: /Ogsp
text$yc	ENDS
;	COMDAT ??__E?m_DieFace@io3DCharEmoticon@@0VioHashString@@A@@YAXXZ
text$yc	SEGMENT
??__E?m_DieFace@io3DCharEmoticon@@0VioHashString@@A@@YAXXZ PROC ; `dynamic initializer for 'io3DCharEmoticon::m_DieFace'', COMDAT

; 19   : ioHashString io3DCharEmoticon::m_DieFace;

  00000	b9 00 00 00 00	 mov	 ecx, OFFSET ?m_DieFace@io3DCharEmoticon@@0VioHashString@@A ; io3DCharEmoticon::m_DieFace
  00005	ff 15 00 00 00
	00		 call	 DWORD PTR __imp_??0ioHashString@@QAE@XZ
  0000b	68 00 00 00 00	 push	 OFFSET ??__F?m_DieFace@io3DCharEmoticon@@0VioHashString@@A@@YAXXZ ; `dynamic atexit destructor for 'io3DCharEmoticon::m_DieFace''
  00010	e8 00 00 00 00	 call	 _atexit
  00015	59		 pop	 ecx
  00016	c3		 ret	 0
??__E?m_DieFace@io3DCharEmoticon@@0VioHashString@@A@@YAXXZ ENDP ; `dynamic initializer for 'io3DCharEmoticon::m_DieFace''
; Function compile flags: /Ogsp
text$yc	ENDS
;	COMDAT ??__E?m_ActionFace@io3DCharEmoticon@@0VioHashString@@A@@YAXXZ
text$yc	SEGMENT
??__E?m_ActionFace@io3DCharEmoticon@@0VioHashString@@A@@YAXXZ PROC ; `dynamic initializer for 'io3DCharEmoticon::m_ActionFace'', COMDAT

; 20   : ioHashString io3DCharEmoticon::m_ActionFace;

  00000	b9 00 00 00 00	 mov	 ecx, OFFSET ?m_ActionFace@io3DCharEmoticon@@0VioHashString@@A ; io3DCharEmoticon::m_ActionFace
  00005	ff 15 00 00 00
	00		 call	 DWORD PTR __imp_??0ioHashString@@QAE@XZ
  0000b	68 00 00 00 00	 push	 OFFSET ??__F?m_ActionFace@io3DCharEmoticon@@0VioHashString@@A@@YAXXZ ; `dynamic atexit destructor for 'io3DCharEmoticon::m_ActionFace''
  00010	e8 00 00 00 00	 call	 _atexit
  00015	59		 pop	 ecx
  00016	c3		 ret	 0
??__E?m_ActionFace@io3DCharEmoticon@@0VioHashString@@A@@YAXXZ ENDP ; `dynamic initializer for 'io3DCharEmoticon::m_ActionFace''
; Function compile flags: /Ogsp
text$yc	ENDS
;	COMDAT ??__E?m_FaceChangeType@io3DCharEmoticon@@0VioHashString@@A@@YAXXZ
text$yc	SEGMENT
??__E?m_FaceChangeType@io3DCharEmoticon@@0VioHashString@@A@@YAXXZ PROC ; `dynamic initializer for 'io3DCharEmoticon::m_FaceChangeType'', COMDAT

; 21   : ioHashString io3DCharEmoticon::m_FaceChangeType;

  00000	b9 00 00 00 00	 mov	 ecx, OFFSET ?m_FaceChangeType@io3DCharEmoticon@@0VioHashString@@A ; io3DCharEmoticon::m_FaceChangeType
  00005	ff 15 00 00 00
	00		 call	 DWORD PTR __imp_??0ioHashString@@QAE@XZ
  0000b	68 00 00 00 00	 push	 OFFSET ??__F?m_FaceChangeType@io3DCharEmoticon@@0VioHashString@@A@@YAXXZ ; `dynamic atexit destructor for 'io3DCharEmoticon::m_FaceChangeType''
  00010	e8 00 00 00 00	 call	 _atexit
  00015	59		 pop	 ecx
  00016	c3		 ret	 0
??__E?m_FaceChangeType@io3DCharEmoticon@@0VioHashString@@A@@YAXXZ ENDP ; `dynamic initializer for 'io3DCharEmoticon::m_FaceChangeType''
; Function compile flags: /Ogsp
text$yc	ENDS
;	COMDAT ??__E?m_fHairOutLineThick@io3DCharEmoticon@@0MA@@YAXXZ
text$yc	SEGMENT
tv69 = -4						; size = 4
??__E?m_fHairOutLineThick@io3DCharEmoticon@@0MA@@YAXXZ PROC ; `dynamic initializer for 'io3DCharEmoticon::m_fHairOutLineThick'', COMDAT

; 30   : float io3DCharEmoticon::m_fHairOutLineThick = FLOAT1;

  00000	55		 push	 ebp
  00001	8b ec		 mov	 ebp, esp
  00003	51		 push	 ecx
  00004	b8 01 00 00 00	 mov	 eax, 1
  00009	89 45 fc	 mov	 DWORD PTR tv69[ebp], eax
  0000c	db 45 fc	 fild	 DWORD PTR tv69[ebp]
  0000f	85 c0		 test	 eax, eax
  00011	79 06		 jns	 SHORT $LN5@m_fHairOut
  00013	d8 05 00 00 00
	00		 fadd	 DWORD PTR __real@4f800000
$LN5@m_fHairOut:
  00019	d9 1d 00 00 00
	00		 fstp	 DWORD PTR ?m_fHairOutLineThick@io3DCharEmoticon@@0MA ; io3DCharEmoticon::m_fHairOutLineThick
  0001f	c9		 leave
  00020	c3		 ret	 0
??__E?m_fHairOutLineThick@io3DCharEmoticon@@0MA@@YAXXZ ENDP ; `dynamic initializer for 'io3DCharEmoticon::m_fHairOutLineThick''
; Function compile flags: /Ogsp
text$yc	ENDS
;	COMDAT ??__E?m_fHeadOutLineThick@io3DCharEmoticon@@0MA@@YAXXZ
text$yc	SEGMENT
tv69 = -4						; size = 4
??__E?m_fHeadOutLineThick@io3DCharEmoticon@@0MA@@YAXXZ PROC ; `dynamic initializer for 'io3DCharEmoticon::m_fHeadOutLineThick'', COMDAT

; 31   : float io3DCharEmoticon::m_fHeadOutLineThick = FLOAT1;

  00000	55		 push	 ebp
  00001	8b ec		 mov	 ebp, esp
  00003	51		 push	 ecx
  00004	b8 01 00 00 00	 mov	 eax, 1
  00009	89 45 fc	 mov	 DWORD PTR tv69[ebp], eax
  0000c	db 45 fc	 fild	 DWORD PTR tv69[ebp]
  0000f	85 c0		 test	 eax, eax
  00011	79 06		 jns	 SHORT $LN5@m_fHeadOut
  00013	d8 05 00 00 00
	00		 fadd	 DWORD PTR __real@4f800000
$LN5@m_fHeadOut:
  00019	d9 1d 00 00 00
	00		 fstp	 DWORD PTR ?m_fHeadOutLineThick@io3DCharEmoticon@@0MA ; io3DCharEmoticon::m_fHeadOutLineThick
  0001f	c9		 leave
  00020	c3		 ret	 0
??__E?m_fHeadOutLineThick@io3DCharEmoticon@@0MA@@YAXXZ ENDP ; `dynamic initializer for 'io3DCharEmoticon::m_fHeadOutLineThick''
; Function compile flags: /Ogsp
text$yc	ENDS
;	COMDAT ??__F?m_FacePostfix@io3DCharEmoticon@@0VioHashString@@A@@YAXXZ
text$yd	SEGMENT
??__F?m_FacePostfix@io3DCharEmoticon@@0VioHashString@@A@@YAXXZ PROC ; `dynamic atexit destructor for 'io3DCharEmoticon::m_FacePostfix'', COMDAT
  00000	b9 00 00 00 00	 mov	 ecx, OFFSET ?m_FacePostfix@io3DCharEmoticon@@0VioHashString@@A ; io3DCharEmoticon::m_FacePostfix
  00005	ff 25 00 00 00
	00		 jmp	 DWORD PTR __imp_??1ioHashString@@QAE@XZ
??__F?m_FacePostfix@io3DCharEmoticon@@0VioHashString@@A@@YAXXZ ENDP ; `dynamic atexit destructor for 'io3DCharEmoticon::m_FacePostfix''
; Function compile flags: /Ogsp
text$yd	ENDS
;	COMDAT ??__F?m_KillFace@io3DCharEmoticon@@0VioHashString@@A@@YAXXZ
text$yd	SEGMENT
??__F?m_KillFace@io3DCharEmoticon@@0VioHashString@@A@@YAXXZ PROC ; `dynamic atexit destructor for 'io3DCharEmoticon::m_KillFace'', COMDAT
  00000	b9 00 00 00 00	 mov	 ecx, OFFSET ?m_KillFace@io3DCharEmoticon@@0VioHashString@@A ; io3DCharEmoticon::m_KillFace
  00005	ff 25 00 00 00
	00		 jmp	 DWORD PTR __imp_??1ioHashString@@QAE@XZ
??__F?m_KillFace@io3DCharEmoticon@@0VioHashString@@A@@YAXXZ ENDP ; `dynamic atexit destructor for 'io3DCharEmoticon::m_KillFace''
; Function compile flags: /Ogsp
text$yd	ENDS
;	COMDAT ??__F?m_DieFace@io3DCharEmoticon@@0VioHashString@@A@@YAXXZ
text$yd	SEGMENT
??__F?m_DieFace@io3DCharEmoticon@@0VioHashString@@A@@YAXXZ PROC ; `dynamic atexit destructor for 'io3DCharEmoticon::m_DieFace'', COMDAT
  00000	b9 00 00 00 00	 mov	 ecx, OFFSET ?m_DieFace@io3DCharEmoticon@@0VioHashString@@A ; io3DCharEmoticon::m_DieFace
  00005	ff 25 00 00 00
	00		 jmp	 DWORD PTR __imp_??1ioHashString@@QAE@XZ
??__F?m_DieFace@io3DCharEmoticon@@0VioHashString@@A@@YAXXZ ENDP ; `dynamic atexit destructor for 'io3DCharEmoticon::m_DieFace''
; Function compile flags: /Ogsp
text$yd	ENDS
;	COMDAT ??__F?m_ActionFace@io3DCharEmoticon@@0VioHashString@@A@@YAXXZ
text$yd	SEGMENT
??__F?m_ActionFace@io3DCharEmoticon@@0VioHashString@@A@@YAXXZ PROC ; `dynamic atexit destructor for 'io3DCharEmoticon::m_ActionFace'', COMDAT
  00000	b9 00 00 00 00	 mov	 ecx, OFFSET ?m_ActionFace@io3DCharEmoticon@@0VioHashString@@A ; io3DCharEmoticon::m_ActionFace
  00005	ff 25 00 00 00
	00		 jmp	 DWORD PTR __imp_??1ioHashString@@QAE@XZ
??__F?m_ActionFace@io3DCharEmoticon@@0VioHashString@@A@@YAXXZ ENDP ; `dynamic atexit destructor for 'io3DCharEmoticon::m_ActionFace''
; Function compile flags: /Ogsp
text$yd	ENDS
;	COMDAT ??__F?m_FaceChangeType@io3DCharEmoticon@@0VioHashString@@A@@YAXXZ
text$yd	SEGMENT
??__F?m_FaceChangeType@io3DCharEmoticon@@0VioHashString@@A@@YAXXZ PROC ; `dynamic atexit destructor for 'io3DCharEmoticon::m_FaceChangeType'', COMDAT
  00000	b9 00 00 00 00	 mov	 ecx, OFFSET ?m_FaceChangeType@io3DCharEmoticon@@0VioHashString@@A ; io3DCharEmoticon::m_FaceChangeType
  00005	ff 25 00 00 00
	00		 jmp	 DWORD PTR __imp_??1ioHashString@@QAE@XZ
??__F?m_FaceChangeType@io3DCharEmoticon@@0VioHashString@@A@@YAXXZ ENDP ; `dynamic atexit destructor for 'io3DCharEmoticon::m_FaceChangeType''
; Function compile flags: /Ogsp
text$yd	ENDS
;	COMDAT ??__F?m_TalkSoundMap@io3DCharEmoticon@@0V?$map@HV?$vector@VioHashString@@V?$allocator@VioHashString@@@std@@@std@@U?$less@H@2@V?$allocator@U?$pair@$$CBHV?$vector@VioHashString@@V?$allocator@VioHashString@@@std@@@std@@@std@@@2@@std@@A@@YAXXZ
text$yd	SEGMENT
??__F?m_TalkSoundMap@io3DCharEmoticon@@0V?$map@HV?$vector@VioHashString@@V?$allocator@VioHashString@@@std@@@std@@U?$less@H@2@V?$allocator@U?$pair@$$CBHV?$vector@VioHashString@@V?$allocator@VioHashString@@@std@@@std@@@std@@@2@@std@@A@@YAXXZ PROC ; `dynamic atexit destructor for 'io3DCharEmoticon::m_TalkSoundMap'', COMDAT
  00000	b9 00 00 00 00	 mov	 ecx, OFFSET ?m_TalkSoundMap@io3DCharEmoticon@@0V?$map@HV?$vector@VioHashString@@V?$allocator@VioHashString@@@std@@@std@@U?$less@H@2@V?$allocator@U?$pair@$$CBHV?$vector@VioHashString@@V?$allocator@VioHashString@@@std@@@std@@@std@@@2@@std@@A ; io3DCharEmoticon::m_TalkSoundMap
  00005	e9 00 00 00 00	 jmp	 ??1?$_Tree@V?$_Tmap_traits@HV?$vector@VioHashString@@V?$allocator@VioHashString@@@std@@@std@@U?$less@H@2@V?$allocator@U?$pair@$$CBHV?$vector@VioHashString@@V?$allocator@VioHashString@@@std@@@std@@@std@@@2@$0A@@std@@@std@@QAE@XZ ; std::_Tree<std::_Tmap_traits<int,std::vector<ioHashString,std::allocator<ioHashString> >,std::less<int>,std::allocator<std::pair<int const ,std::vector<ioHashString,std::allocator<ioHashString> > > >,0> >::~_Tree<std::_Tmap_traits<int,std::vector<ioHashString,std::allocator<ioHashString> >,std::less<int>,std::allocator<std::pair<int const ,std::vector<ioHashString,std::allocator<ioHashString> > > >,0> >
??__F?m_TalkSoundMap@io3DCharEmoticon@@0V?$map@HV?$vector@VioHashString@@V?$allocator@VioHashString@@@std@@@std@@U?$less@H@2@V?$allocator@U?$pair@$$CBHV?$vector@VioHashString@@V?$allocator@VioHashString@@@std@@@std@@@std@@@2@@std@@A@@YAXXZ ENDP ; `dynamic atexit destructor for 'io3DCharEmoticon::m_TalkSoundMap''
text$yd	ENDS
PUBLIC	?m_fHeadOutLineThick@io3DCharEmoticon@@0MA	; io3DCharEmoticon::m_fHeadOutLineThick
PUBLIC	?m_fHairOutLineThick@io3DCharEmoticon@@0MA	; io3DCharEmoticon::m_fHairOutLineThick
PUBLIC	?m_FaceChangeType@io3DCharEmoticon@@0VioHashString@@A ; io3DCharEmoticon::m_FaceChangeType
PUBLIC	?m_ActionFace@io3DCharEmoticon@@0VioHashString@@A ; io3DCharEmoticon::m_ActionFace
PUBLIC	?m_DieFace@io3DCharEmoticon@@0VioHashString@@A	; io3DCharEmoticon::m_DieFace
PUBLIC	?m_KillFace@io3DCharEmoticon@@0VioHashString@@A	; io3DCharEmoticon::m_KillFace
PUBLIC	?m_FacePostfix@io3DCharEmoticon@@0VioHashString@@A ; io3DCharEmoticon::m_FacePostfix
PUBLIC	?m_fCharScale@io3DCharEmoticon@@0MA		; io3DCharEmoticon::m_fCharScale
PUBLIC	?m_TalkSoundMap@io3DCharEmoticon@@0V?$map@HV?$vector@VioHashString@@V?$allocator@VioHashString@@@std@@@std@@U?$less@H@2@V?$allocator@U?$pair@$$CBHV?$vector@VioHashString@@V?$allocator@VioHashString@@@std@@@std@@@std@@@2@@std@@A ; io3DCharEmoticon::m_TalkSoundMap
_BSS	SEGMENT
	ALIGN	4

?m_fHeadOutLineThick@io3DCharEmoticon@@0MA DD 01H DUP (?) ; io3DCharEmoticon::m_fHeadOutLineThick
?m_fHairOutLineThick@io3DCharEmoticon@@0MA DD 01H DUP (?) ; io3DCharEmoticon::m_fHairOutLineThick
?m_FaceChangeType@io3DCharEmoticon@@0VioHashString@@A DB 010H DUP (?) ; io3DCharEmoticon::m_FaceChangeType
?m_ActionFace@io3DCharEmoticon@@0VioHashString@@A DB 010H DUP (?) ; io3DCharEmoticon::m_ActionFace
?m_DieFace@io3DCharEmoticon@@0VioHashString@@A DB 010H DUP (?) ; io3DCharEmoticon::m_DieFace
?m_KillFace@io3DCharEmoticon@@0VioHashString@@A DB 010H DUP (?) ; io3DCharEmoticon::m_KillFace
?m_FacePostfix@io3DCharEmoticon@@0VioHashString@@A DB 010H DUP (?) ; io3DCharEmoticon::m_FacePostfix
?m_fCharScale@io3DCharEmoticon@@0MA DD 01H DUP (?)	; io3DCharEmoticon::m_fCharScale
?m_TalkSoundMap@io3DCharEmoticon@@0V?$map@HV?$vector@VioHashString@@V?$allocator@VioHashString@@@std@@@std@@U?$less@H@2@V?$allocator@U?$pair@$$CBHV?$vector@VioHashString@@V?$allocator@VioHashString@@@std@@@std@@@std@@@2@@std@@A DB 010H DUP (?) ; io3DCharEmoticon::m_TalkSoundMap
_BSS	ENDS
CRT$XCU	SEGMENT
?m_TalkSoundMap$initializer$@io3DCharEmoticon@@0P6AXXZA DD FLAT:??__E?m_TalkSoundMap@io3DCharEmoticon@@0V?$map@HV?$vector@VioHashString@@V?$allocator@VioHashString@@@std@@@std@@U?$less@H@2@V?$allocator@U?$pair@$$CBHV?$vector@VioHashString@@V?$allocator@VioHashString@@@std@@@std@@@std@@@2@@std@@A@@YAXXZ ; io3DCharEmoticon::m_TalkSoundMap$initializer$
?m_fCharScale$initializer$@io3DCharEmoticon@@0P6AXXZA DD FLAT:??__E?m_fCharScale@io3DCharEmoticon@@0MA@@YAXXZ ; io3DCharEmoticon::m_fCharScale$initializer$
?m_FacePostfix$initializer$@io3DCharEmoticon@@0P6AXXZA DD FLAT:??__E?m_FacePostfix@io3DCharEmoticon@@0VioHashString@@A@@YAXXZ ; io3DCharEmoticon::m_FacePostfix$initializer$
?m_KillFace$initializer$@io3DCharEmoticon@@0P6AXXZA DD FLAT:??__E?m_KillFace@io3DCharEmoticon@@0VioHashString@@A@@YAXXZ ; io3DCharEmoticon::m_KillFace$initializer$
?m_DieFace$initializer$@io3DCharEmoticon@@0P6AXXZA DD FLAT:??__E?m_DieFace@io3DCharEmoticon@@0VioHashString@@A@@YAXXZ ; io3DCharEmoticon::m_DieFace$initializer$
?m_ActionFace$initializer$@io3DCharEmoticon@@0P6AXXZA DD FLAT:??__E?m_ActionFace@io3DCharEmoticon@@0VioHashString@@A@@YAXXZ ; io3DCharEmoticon::m_ActionFace$initializer$
?m_FaceChangeType$initializer$@io3DCharEmoticon@@0P6AXXZA DD FLAT:??__E?m_FaceChangeType@io3DCharEmoticon@@0VioHashString@@A@@YAXXZ ; io3DCharEmoticon::m_FaceChangeType$initializer$
?m_fHairOutLineThick$initializer$@io3DCharEmoticon@@0P6AXXZA DD FLAT:??__E?m_fHairOutLineThick@io3DCharEmoticon@@0MA@@YAXXZ ; io3DCharEmoticon::m_fHairOutLineThick$initializer$
?m_fHeadOutLineThick$initializer$@io3DCharEmoticon@@0P6AXXZA DD FLAT:??__E?m_fHeadOutLineThick@io3DCharEmoticon@@0MA@@YAXXZ ; io3DCharEmoticon::m_fHeadOutLineThick$initializer$
CRT$XCU	ENDS
END
