; Listing generated by Microsoft (R) Optimizing Compiler Version 16.00.30319.01 

	TITLE	D:\Lost Saga For Developer\Youtube\Tutorial\Source\src\LSClient\ioAccLandingRateBuff.cpp
	.686P
	.XMM
	include listing.inc
	.model	flat

INCLUDELIB MSVCRT
INCLUDELIB OLDNAMES

PUBLIC	??_7ioAccLandingRateBuff@@6B@			; ioAccLandingRateBuff::`vftable'
PUBLIC	??0ioAccLandingRateBuff@@QAE@XZ			; ioAccLandingRateBuff::ioAccLandingRateBuff
PUBLIC	??_R4ioAccLandingRateBuff@@6B@			; ioAccLandingRateBuff::`RTTI Complete Object Locator'
PUBLIC	??_R0?AVioAccLandingRateBuff@@@8		; ioAccLandingRateBuff `RTTI Type Descriptor'
PUBLIC	??_R3ioAccLandingRateBuff@@8			; ioAccLandingRateBuff::`RTTI Class Hierarchy Descriptor'
PUBLIC	??_R2ioAccLandingRateBuff@@8			; ioAccLandingRateBuff::`RTTI Base Class Array'
PUBLIC	??_R1A@?0A@EA@ioAccLandingRateBuff@@8		; ioAccLandingRateBuff::`RTTI Base Class Descriptor at (0,-1,0,64)'
PUBLIC	??_R1A@?0A@EA@ioBuff@@8				; ioBuff::`RTTI Base Class Descriptor at (0,-1,0,64)'
PUBLIC	??_R0?AVioBuff@@@8				; ioBuff `RTTI Type Descriptor'
PUBLIC	??_R3ioBuff@@8					; ioBuff::`RTTI Class Hierarchy Descriptor'
PUBLIC	??_R2ioBuff@@8					; ioBuff::`RTTI Base Class Array'
PUBLIC	?Clone@ioAccLandingRateBuff@@UAEPAVioBuff@@XZ	; ioAccLandingRateBuff::Clone
PUBLIC	?StartBuff@ioAccLandingRateBuff@@UAEXPAVioBaseChar@@@Z ; ioAccLandingRateBuff::StartBuff
PUBLIC	?ApplyStartBuff@ioAccLandingRateBuff@@UAE_NPAVioBaseChar@@KK@Z ; ioAccLandingRateBuff::ApplyStartBuff
PUBLIC	?ProcessBuff@ioAccLandingRateBuff@@UAEXM@Z	; ioAccLandingRateBuff::ProcessBuff
PUBLIC	?EndBuff@ioAccLandingRateBuff@@UAEXXZ		; ioAccLandingRateBuff::EndBuff
PUBLIC	?IsWaitSelfRemove@ioBuff@@UAE_NXZ		; ioBuff::IsWaitSelfRemove
EXTRN	??0ioBuff@@QAE@XZ:PROC				; ioBuff::ioBuff
EXTRN	__fltused:DWORD
EXTRN	??_7type_info@@6B@:QWORD			; type_info::`vftable'
EXTRN	?LoadProperty@ioBuff@@UAEXAAVioINILoader@@@Z:PROC ; ioBuff::LoadProperty
EXTRN	?StartBuffWithAniTime@ioBuff@@UAEXPAVioBaseChar@@K@Z:PROC ; ioBuff::StartBuffWithAniTime
EXTRN	?CancelBuff@ioBuff@@UAEXXZ:PROC			; ioBuff::CancelBuff
EXTRN	?GetBuffInfo@ioBuff@@UAEXAAVSP2Packet@@@Z:PROC	; ioBuff::GetBuffInfo
EXTRN	?ApplyBuffInfo@ioBuff@@UAEXAAVSP2Packet@@@Z:PROC ; ioBuff::ApplyBuffInfo
EXTRN	?AccumulateBuff@ioBuff@@UAEXXZ:PROC		; ioBuff::AccumulateBuff
EXTRN	?IsLiveButStopped@ioBuff@@UBE_NXZ:PROC		; ioBuff::IsLiveButStopped
EXTRN	?IsCanJumpAttack@ioBuff@@UBE_NXZ:PROC		; ioBuff::IsCanJumpAttack
EXTRN	?SetAction@ioBuff@@MAEXXZ:PROC			; ioBuff::SetAction
EXTRN	?ProcessDelay@ioBuff@@MAEXM@Z:PROC		; ioBuff::ProcessDelay
EXTRN	?SetExtraDurationByGrowth@ioBuff@@UAEXM@Z:PROC	; ioBuff::SetExtraDurationByGrowth
EXTRN	?SetWeaponIndex@ioBuff@@UAEXK@Z:PROC		; ioBuff::SetWeaponIndex
EXTRN	?OnReduceGauge@ioBuff@@UBE_NXZ:PROC		; ioBuff::OnReduceGauge
EXTRN	?IsCharCollisionSkip@ioBuff@@UBE_NXZ:PROC	; ioBuff::IsCharCollisionSkip
EXTRN	?IsCollisionAvailableWeapon@ioBuff@@UBE_NXZ:PROC ; ioBuff::IsCollisionAvailableWeapon
EXTRN	?IsProtected@ioBuff@@UBE_NXZ:PROC		; ioBuff::IsProtected
EXTRN	?UseActiveCount@ioBuff@@UBE_NXZ:PROC		; ioBuff::UseActiveCount
EXTRN	?CheckActiveCount@ioBuff@@UAEXXZ:PROC		; ioBuff::CheckActiveCount
EXTRN	?CheckRemoveEquipSkillBuff@ioBuff@@UAEX_N@Z:PROC ; ioBuff::CheckRemoveEquipSkillBuff
EXTRN	?ApplyExtraBuffInfo@ioBuff@@UAEXAAVSP2Packet@@@Z:PROC ; ioBuff::ApplyExtraBuffInfo
EXTRN	?SetBuffGrapplingState@ioBuff@@UAE_NPAVioBaseChar@@ABVioHashString@@@Z:PROC ; ioBuff::SetBuffGrapplingState
EXTRN	?GetGrapplingTargetPos@ioBuff@@UAE?AUD3DXVECTOR3@@PAVioBaseChar@@@Z:PROC ; ioBuff::GetGrapplingTargetPos
EXTRN	??_EioAccLandingRateBuff@@UAEPAXI@Z:PROC	; ioAccLandingRateBuff::`vector deleting destructor'
;	COMDAT ??_R2ioBuff@@8
; File d:\lost saga for developer\youtube\tutorial\source\src\lsclient\ioacclandingratebuff.cpp
rdata$r	SEGMENT
??_R2ioBuff@@8 DD FLAT:??_R1A@?0A@EA@ioBuff@@8		; ioBuff::`RTTI Base Class Array'
rdata$r	ENDS
;	COMDAT ??_R3ioBuff@@8
rdata$r	SEGMENT
??_R3ioBuff@@8 DD 00H					; ioBuff::`RTTI Class Hierarchy Descriptor'
	DD	00H
	DD	01H
	DD	FLAT:??_R2ioBuff@@8
rdata$r	ENDS
;	COMDAT ??_R0?AVioBuff@@@8
_DATA	SEGMENT
??_R0?AVioBuff@@@8 DD FLAT:??_7type_info@@6B@		; ioBuff `RTTI Type Descriptor'
	DD	00H
	DB	'.?AVioBuff@@', 00H
_DATA	ENDS
;	COMDAT ??_R1A@?0A@EA@ioBuff@@8
rdata$r	SEGMENT
??_R1A@?0A@EA@ioBuff@@8 DD FLAT:??_R0?AVioBuff@@@8	; ioBuff::`RTTI Base Class Descriptor at (0,-1,0,64)'
	DD	00H
	DD	00H
	DD	0ffffffffH
	DD	00H
	DD	040H
	DD	FLAT:??_R3ioBuff@@8
rdata$r	ENDS
;	COMDAT ??_R1A@?0A@EA@ioAccLandingRateBuff@@8
rdata$r	SEGMENT
??_R1A@?0A@EA@ioAccLandingRateBuff@@8 DD FLAT:??_R0?AVioAccLandingRateBuff@@@8 ; ioAccLandingRateBuff::`RTTI Base Class Descriptor at (0,-1,0,64)'
	DD	01H
	DD	00H
	DD	0ffffffffH
	DD	00H
	DD	040H
	DD	FLAT:??_R3ioAccLandingRateBuff@@8
rdata$r	ENDS
;	COMDAT ??_R2ioAccLandingRateBuff@@8
rdata$r	SEGMENT
??_R2ioAccLandingRateBuff@@8 DD FLAT:??_R1A@?0A@EA@ioAccLandingRateBuff@@8 ; ioAccLandingRateBuff::`RTTI Base Class Array'
	DD	FLAT:??_R1A@?0A@EA@ioBuff@@8
rdata$r	ENDS
;	COMDAT ??_R3ioAccLandingRateBuff@@8
rdata$r	SEGMENT
??_R3ioAccLandingRateBuff@@8 DD 00H			; ioAccLandingRateBuff::`RTTI Class Hierarchy Descriptor'
	DD	00H
	DD	02H
	DD	FLAT:??_R2ioAccLandingRateBuff@@8
rdata$r	ENDS
;	COMDAT ??_R0?AVioAccLandingRateBuff@@@8
_DATA	SEGMENT
??_R0?AVioAccLandingRateBuff@@@8 DD FLAT:??_7type_info@@6B@ ; ioAccLandingRateBuff `RTTI Type Descriptor'
	DD	00H
	DB	'.?AVioAccLandingRateBuff@@', 00H
_DATA	ENDS
;	COMDAT ??_R4ioAccLandingRateBuff@@6B@
rdata$r	SEGMENT
??_R4ioAccLandingRateBuff@@6B@ DD 00H			; ioAccLandingRateBuff::`RTTI Complete Object Locator'
	DD	00H
	DD	00H
	DD	FLAT:??_R0?AVioAccLandingRateBuff@@@8
	DD	FLAT:??_R3ioAccLandingRateBuff@@8
rdata$r	ENDS
;	COMDAT ??_7ioAccLandingRateBuff@@6B@
CONST	SEGMENT
??_7ioAccLandingRateBuff@@6B@ DD FLAT:??_R4ioAccLandingRateBuff@@6B@ ; ioAccLandingRateBuff::`vftable'
	DD	FLAT:?LoadProperty@ioBuff@@UAEXAAVioINILoader@@@Z
	DD	FLAT:?Clone@ioAccLandingRateBuff@@UAEPAVioBuff@@XZ
	DD	FLAT:?StartBuff@ioAccLandingRateBuff@@UAEXPAVioBaseChar@@@Z
	DD	FLAT:?StartBuffWithAniTime@ioBuff@@UAEXPAVioBaseChar@@K@Z
	DD	FLAT:?ApplyStartBuff@ioAccLandingRateBuff@@UAE_NPAVioBaseChar@@KK@Z
	DD	FLAT:?ProcessBuff@ioAccLandingRateBuff@@UAEXM@Z
	DD	FLAT:?EndBuff@ioAccLandingRateBuff@@UAEXXZ
	DD	FLAT:?CancelBuff@ioBuff@@UAEXXZ
	DD	FLAT:?GetBuffInfo@ioBuff@@UAEXAAVSP2Packet@@@Z
	DD	FLAT:?ApplyBuffInfo@ioBuff@@UAEXAAVSP2Packet@@@Z
	DD	FLAT:?AccumulateBuff@ioBuff@@UAEXXZ
	DD	FLAT:?IsLiveButStopped@ioBuff@@UBE_NXZ
	DD	FLAT:?IsCanJumpAttack@ioBuff@@UBE_NXZ
	DD	FLAT:?SetAction@ioBuff@@MAEXXZ
	DD	FLAT:?ProcessDelay@ioBuff@@MAEXM@Z
	DD	FLAT:?SetExtraDurationByGrowth@ioBuff@@UAEXM@Z
	DD	FLAT:?SetWeaponIndex@ioBuff@@UAEXK@Z
	DD	FLAT:?OnReduceGauge@ioBuff@@UBE_NXZ
	DD	FLAT:?IsCharCollisionSkip@ioBuff@@UBE_NXZ
	DD	FLAT:?IsCollisionAvailableWeapon@ioBuff@@UBE_NXZ
	DD	FLAT:?IsProtected@ioBuff@@UBE_NXZ
	DD	FLAT:?UseActiveCount@ioBuff@@UBE_NXZ
	DD	FLAT:?CheckActiveCount@ioBuff@@UAEXXZ
	DD	FLAT:?CheckRemoveEquipSkillBuff@ioBuff@@UAEX_N@Z
	DD	FLAT:?ApplyExtraBuffInfo@ioBuff@@UAEXAAVSP2Packet@@@Z
	DD	FLAT:?SetBuffGrapplingState@ioBuff@@UAE_NPAVioBaseChar@@ABVioHashString@@@Z
	DD	FLAT:?GetGrapplingTargetPos@ioBuff@@UAE?AUD3DXVECTOR3@@PAVioBaseChar@@@Z
	DD	FLAT:?IsWaitSelfRemove@ioBuff@@UAE_NXZ
	DD	FLAT:??_EioAccLandingRateBuff@@UAEPAXI@Z
; Function compile flags: /Ogsp
CONST	ENDS
;	COMDAT ??0ioAccLandingRateBuff@@QAE@XZ
_TEXT	SEGMENT
??0ioAccLandingRateBuff@@QAE@XZ PROC			; ioAccLandingRateBuff::ioAccLandingRateBuff, COMDAT
; _this$ = ecx

; 6    : {

  00000	56		 push	 esi
  00001	8b f1		 mov	 esi, ecx
  00003	e8 00 00 00 00	 call	 ??0ioBuff@@QAE@XZ	; ioBuff::ioBuff

; 7    : 	m_fLandingRate = 0.0f;

  00008	0f 57 c0	 xorps	 xmm0, xmm0
  0000b	c7 06 00 00 00
	00		 mov	 DWORD PTR [esi], OFFSET ??_7ioAccLandingRateBuff@@6B@
  00011	f3 0f 11 86 6c
	09 00 00	 movss	 DWORD PTR [esi+2412], xmm0

; 8    : 	m_fExtendLandingRate = 0.0f;

  00019	f3 0f 11 86 70
	09 00 00	 movss	 DWORD PTR [esi+2416], xmm0

; 9    : }

  00021	8b c6		 mov	 eax, esi
  00023	5e		 pop	 esi
  00024	c3		 ret	 0
??0ioAccLandingRateBuff@@QAE@XZ ENDP			; ioAccLandingRateBuff::ioAccLandingRateBuff
_TEXT	ENDS
PUBLIC	??0ioAccLandingRateBuff@@QAE@ABV0@@Z		; ioAccLandingRateBuff::ioAccLandingRateBuff
EXTRN	??0ioBuff@@QAE@ABV0@@Z:PROC			; ioBuff::ioBuff
; Function compile flags: /Ogsp
;	COMDAT ??0ioAccLandingRateBuff@@QAE@ABV0@@Z
_TEXT	SEGMENT
_rhs$ = 8						; size = 4
??0ioAccLandingRateBuff@@QAE@ABV0@@Z PROC		; ioAccLandingRateBuff::ioAccLandingRateBuff, COMDAT
; _this$ = ecx

; 13   : {

  00000	55		 push	 ebp
  00001	8b ec		 mov	 ebp, esp
  00003	56		 push	 esi
  00004	ff 75 08	 push	 DWORD PTR _rhs$[ebp]
  00007	8b f1		 mov	 esi, ecx
  00009	e8 00 00 00 00	 call	 ??0ioBuff@@QAE@ABV0@@Z	; ioBuff::ioBuff

; 14   : 	m_fLandingRate = 0.0f;

  0000e	0f 57 c0	 xorps	 xmm0, xmm0
  00011	c7 06 00 00 00
	00		 mov	 DWORD PTR [esi], OFFSET ??_7ioAccLandingRateBuff@@6B@
  00017	f3 0f 11 86 6c
	09 00 00	 movss	 DWORD PTR [esi+2412], xmm0

; 15   : 	m_fExtendLandingRate = 0.0f;

  0001f	f3 0f 11 86 70
	09 00 00	 movss	 DWORD PTR [esi+2416], xmm0

; 16   : }

  00027	8b c6		 mov	 eax, esi
  00029	5e		 pop	 esi
  0002a	5d		 pop	 ebp
  0002b	c2 04 00	 ret	 4
??0ioAccLandingRateBuff@@QAE@ABV0@@Z ENDP		; ioAccLandingRateBuff::ioAccLandingRateBuff
_TEXT	ENDS
PUBLIC	??1ioAccLandingRateBuff@@UAE@XZ			; ioAccLandingRateBuff::~ioAccLandingRateBuff
EXTRN	??1ioBuff@@UAE@XZ:PROC				; ioBuff::~ioBuff
; Function compile flags: /Ogsp
;	COMDAT ??1ioAccLandingRateBuff@@UAE@XZ
_TEXT	SEGMENT
??1ioAccLandingRateBuff@@UAE@XZ PROC			; ioAccLandingRateBuff::~ioAccLandingRateBuff, COMDAT
; _this$ = ecx

; 20   : {

  00000	c7 01 00 00 00
	00		 mov	 DWORD PTR [ecx], OFFSET ??_7ioAccLandingRateBuff@@6B@

; 21   : }

  00006	e9 00 00 00 00	 jmp	 ??1ioBuff@@UAE@XZ	; ioBuff::~ioBuff
??1ioAccLandingRateBuff@@UAE@XZ ENDP			; ioAccLandingRateBuff::~ioAccLandingRateBuff
_TEXT	ENDS
EXTRN	??3@YAXPAX@Z:PROC				; operator delete
EXTRN	??2@YAPAXI@Z:PROC				; operator new
EXTRN	___CxxFrameHandler3:PROC
EXTRN	@__security_check_cookie@4:PROC
EXTRN	__EH_epilog3:PROC
EXTRN	__EH_prolog3:PROC
;	COMDAT xdata$x
xdata$x	SEGMENT
__unwindtable$?Clone@ioAccLandingRateBuff@@UAEPAVioBuff@@XZ DD 0ffffffffH
	DD	FLAT:__unwindfunclet$?Clone@ioAccLandingRateBuff@@UAEPAVioBuff@@XZ$0
__ehfuncinfo$?Clone@ioAccLandingRateBuff@@UAEPAVioBuff@@XZ DD 019930522H
	DD	01H
	DD	FLAT:__unwindtable$?Clone@ioAccLandingRateBuff@@UAEPAVioBuff@@XZ
	DD	2 DUP(00H)
	DD	2 DUP(00H)
	DD	00H
	DD	01H
; Function compile flags: /Ogsp
xdata$x	ENDS
;	COMDAT ?Clone@ioAccLandingRateBuff@@UAEPAVioBuff@@XZ
_TEXT	SEGMENT
$T524084 = -16						; size = 4
__$EHRec$ = -12						; size = 12
?Clone@ioAccLandingRateBuff@@UAEPAVioBuff@@XZ PROC	; ioAccLandingRateBuff::Clone, COMDAT
; _this$ = ecx

; 24   : {

  00000	6a 04		 push	 4
  00002	b8 00 00 00 00	 mov	 eax, __ehhandler$?Clone@ioAccLandingRateBuff@@UAEPAVioBuff@@XZ
  00007	e8 00 00 00 00	 call	 __EH_prolog3
  0000c	8b f1		 mov	 esi, ecx

; 25   : 	return new ioAccLandingRateBuff( *this );

  0000e	68 74 09 00 00	 push	 2420			; 00000974H
  00013	e8 00 00 00 00	 call	 ??2@YAPAXI@Z		; operator new
  00018	59		 pop	 ecx
  00019	8b c8		 mov	 ecx, eax
  0001b	89 4d f0	 mov	 DWORD PTR $T524084[ebp], ecx
  0001e	33 c0		 xor	 eax, eax
  00020	89 45 fc	 mov	 DWORD PTR __$EHRec$[ebp+8], eax
  00023	3b c8		 cmp	 ecx, eax
  00025	74 06		 je	 SHORT $LN3@Clone
  00027	56		 push	 esi
  00028	e8 00 00 00 00	 call	 ??0ioAccLandingRateBuff@@QAE@ABV0@@Z ; ioAccLandingRateBuff::ioAccLandingRateBuff
$LN3@Clone:

; 26   : }

  0002d	e8 00 00 00 00	 call	 __EH_epilog3
  00032	c3		 ret	 0
_TEXT	ENDS
;	COMDAT text$x
text$x	SEGMENT
__unwindfunclet$?Clone@ioAccLandingRateBuff@@UAEPAVioBuff@@XZ$0:
  00000	ff 75 f0	 push	 DWORD PTR $T524084[ebp]
  00003	e8 00 00 00 00	 call	 ??3@YAXPAX@Z		; operator delete
  00008	59		 pop	 ecx
  00009	c3		 ret	 0
__ehhandler$?Clone@ioAccLandingRateBuff@@UAEPAVioBuff@@XZ:
  0000a	8b 54 24 08	 mov	 edx, DWORD PTR [esp+8]
  0000e	8d 42 0c	 lea	 eax, DWORD PTR [edx+12]
  00011	8b 4a ec	 mov	 ecx, DWORD PTR [edx-20]
  00014	33 c8		 xor	 ecx, eax
  00016	e8 00 00 00 00	 call	 @__security_check_cookie@4
  0001b	b8 00 00 00 00	 mov	 eax, OFFSET __ehfuncinfo$?Clone@ioAccLandingRateBuff@@UAEPAVioBuff@@XZ
  00020	e9 00 00 00 00	 jmp	 ___CxxFrameHandler3
text$x	ENDS
?Clone@ioAccLandingRateBuff@@UAEPAVioBuff@@XZ ENDP	; ioAccLandingRateBuff::Clone
EXTRN	?CheckCallingAreaWeapon@ioBuff@@IAEXXZ:PROC	; ioBuff::CheckCallingAreaWeapon
EXTRN	?ProcessBuff@ioBuff@@UAEXM@Z:PROC		; ioBuff::ProcessBuff
; Function compile flags: /Ogsp
;	COMDAT ?ProcessBuff@ioAccLandingRateBuff@@UAEXM@Z
_TEXT	SEGMENT
_fTimePerSec$ = 8					; size = 4
?ProcessBuff@ioAccLandingRateBuff@@UAEXM@Z PROC		; ioAccLandingRateBuff::ProcessBuff, COMDAT
; _this$ = ecx

; 73   : {

  00000	55		 push	 ebp
  00001	8b ec		 mov	 ebp, esp

; 74   : 	switch( m_iOperationType )

  00003	8b 81 d0 03 00
	00		 mov	 eax, DWORD PTR [ecx+976]
  00009	83 e8 00	 sub	 eax, 0
  0000c	74 19		 je	 SHORT $LN1@ProcessBuf
  0000e	48		 dec	 eax
  0000f	74 04		 je	 SHORT $LN2@ProcessBuf
  00011	48		 dec	 eax
  00012	48		 dec	 eax
  00013	75 17		 jne	 SHORT $LN4@ProcessBuf
$LN2@ProcessBuf:

; 75   : 	{
; 76   : 	case OT_SWITCH:
; 77   : 		break;
; 78   : 	case OT_DELAY:
; 79   : 	case OT_ACTIVE:
; 80   : 		ioBuff::ProcessBuff( fTimePerSec );

  00015	f3 0f 10 45 08	 movss	 xmm0, DWORD PTR _fTimePerSec$[ebp]
  0001a	51		 push	 ecx
  0001b	f3 0f 11 04 24	 movss	 DWORD PTR [esp], xmm0
  00020	e8 00 00 00 00	 call	 ?ProcessBuff@ioBuff@@UAEXM@Z ; ioBuff::ProcessBuff

; 81   : 		break;

  00025	eb 05		 jmp	 SHORT $LN4@ProcessBuf
$LN1@ProcessBuf:

; 82   : 	case OT_PASSIVE:
; 83   : 		CheckCallingAreaWeapon();

  00027	e8 00 00 00 00	 call	 ?CheckCallingAreaWeapon@ioBuff@@IAEXXZ ; ioBuff::CheckCallingAreaWeapon
$LN4@ProcessBuf:

; 84   : 		break;
; 85   : 	}
; 86   : }

  0002c	5d		 pop	 ebp
  0002d	c2 04 00	 ret	 4
?ProcessBuff@ioAccLandingRateBuff@@UAEXM@Z ENDP		; ioAccLandingRateBuff::ProcessBuff
_TEXT	ENDS
PUBLIC	__real@3f800000
EXTRN	?EndBuff@ioBuff@@UAEXXZ:PROC			; ioBuff::EndBuff
EXTRN	?SetLandingRateByBuff@ioBaseChar@@QAEXMM@Z:PROC	; ioBaseChar::SetLandingRateByBuff
;	COMDAT __real@3f800000
CONST	SEGMENT
__real@3f800000 DD 03f800000r			; 1
; Function compile flags: /Ogsp
CONST	ENDS
;	COMDAT ?EndBuff@ioAccLandingRateBuff@@UAEXXZ
_TEXT	SEGMENT
?EndBuff@ioAccLandingRateBuff@@UAEXXZ PROC		; ioAccLandingRateBuff::EndBuff, COMDAT
; _this$ = ecx

; 90   : 	m_pOwner->SetLandingRateByBuff( 1.0f, 1.0f );

  00000	f3 0f 10 05 00
	00 00 00	 movss	 xmm0, DWORD PTR __real@3f800000
  00008	56		 push	 esi
  00009	51		 push	 ecx
  0000a	51		 push	 ecx
  0000b	8b f1		 mov	 esi, ecx
  0000d	8b 8e 74 02 00
	00		 mov	 ecx, DWORD PTR [esi+628]
  00013	f3 0f 11 44 24
	04		 movss	 DWORD PTR [esp+4], xmm0
  00019	f3 0f 11 04 24	 movss	 DWORD PTR [esp], xmm0
  0001e	e8 00 00 00 00	 call	 ?SetLandingRateByBuff@ioBaseChar@@QAEXMM@Z ; ioBaseChar::SetLandingRateByBuff

; 91   : 
; 92   : 	ioBuff::EndBuff();

  00023	8b ce		 mov	 ecx, esi
  00025	5e		 pop	 esi
  00026	e9 00 00 00 00	 jmp	 ?EndBuff@ioBuff@@UAEXXZ	; ioBuff::EndBuff
?EndBuff@ioAccLandingRateBuff@@UAEXXZ ENDP		; ioAccLandingRateBuff::EndBuff
_TEXT	ENDS
PUBLIC	?GetAccessoryRandomNum@ioItem@@QBEABHXZ		; ioItem::GetAccessoryRandomNum
; Function compile flags: /Ogsp
; File d:\lost saga for developer\youtube\tutorial\source\src\lsclient\ioitem.h
;	COMDAT ?GetAccessoryRandomNum@ioItem@@QBEABHXZ
_TEXT	SEGMENT
?GetAccessoryRandomNum@ioItem@@QBEABHXZ PROC		; ioItem::GetAccessoryRandomNum, COMDAT
; _this$ = ecx

; 453  : 	const int& GetAccessoryRandomNum() const { return m_iAccessoryRandomNum; }

  00000	8d 81 24 06 00
	00		 lea	 eax, DWORD PTR [ecx+1572]
  00006	c3		 ret	 0
?GetAccessoryRandomNum@ioItem@@QBEABHXZ ENDP		; ioItem::GetAccessoryRandomNum
; Function compile flags: /Ogsp
; File d:\lost saga for developer\youtube\tutorial\source\src\lsclient\iobuff.h
_TEXT	ENDS
;	COMDAT ?IsWaitSelfRemove@ioBuff@@UAE_NXZ
_TEXT	SEGMENT
?IsWaitSelfRemove@ioBuff@@UAE_NXZ PROC			; ioBuff::IsWaitSelfRemove, COMDAT
; _this$ = ecx

; 519  : 	virtual bool IsWaitSelfRemove() { return m_bWaitSelfRemove; }

  00000	8a 81 65 09 00
	00		 mov	 al, BYTE PTR [ecx+2405]
  00006	c3		 ret	 0
?IsWaitSelfRemove@ioBuff@@UAE_NXZ ENDP			; ioBuff::IsWaitSelfRemove
; Function compile flags: /Ogsp
_TEXT	ENDS
;	COMDAT ??_GioAccLandingRateBuff@@UAEPAXI@Z
_TEXT	SEGMENT
___flags$ = 8						; size = 4
??_GioAccLandingRateBuff@@UAEPAXI@Z PROC		; ioAccLandingRateBuff::`scalar deleting destructor', COMDAT
; _this$ = ecx
  00000	55		 push	 ebp
  00001	8b ec		 mov	 ebp, esp
  00003	56		 push	 esi
  00004	8b f1		 mov	 esi, ecx
  00006	c7 06 00 00 00
	00		 mov	 DWORD PTR [esi], OFFSET ??_7ioAccLandingRateBuff@@6B@
  0000c	e8 00 00 00 00	 call	 ??1ioBuff@@UAE@XZ	; ioBuff::~ioBuff
  00011	f6 45 08 01	 test	 BYTE PTR ___flags$[ebp], 1
  00015	74 07		 je	 SHORT $LN1@scalar
  00017	56		 push	 esi
  00018	e8 00 00 00 00	 call	 ??3@YAXPAX@Z		; operator delete
  0001d	59		 pop	 ecx
$LN1@scalar:
  0001e	8b c6		 mov	 eax, esi
  00020	5e		 pop	 esi
  00021	5d		 pop	 ebp
  00022	c2 04 00	 ret	 4
??_GioAccLandingRateBuff@@UAEPAXI@Z ENDP		; ioAccLandingRateBuff::`scalar deleting destructor'
_TEXT	ENDS
PUBLIC	__real@408f400000000000
EXTRN	?SetReserveEndBuff@ioBuff@@QAEXXZ:PROC		; ioBuff::SetReserveEndBuff
EXTRN	?GetOwnerItem@ioBuff@@QAEPAVioItem@@XZ:PROC	; ioBuff::GetOwnerItem
EXTRN	?StartBuff@ioBuff@@UAEXPAVioBaseChar@@@Z:PROC	; ioBuff::StartBuff
;	COMDAT __real@408f400000000000
; File d:\lost saga for developer\youtube\tutorial\source\src\lsclient\ioitem.h
CONST	SEGMENT
__real@408f400000000000 DQ 0408f400000000000r	; 1000
; Function compile flags: /Ogsp
; File d:\lost saga for developer\youtube\tutorial\source\src\lsclient\ioacclandingratebuff.cpp
CONST	ENDS
;	COMDAT ?StartBuff@ioAccLandingRateBuff@@UAEXPAVioBaseChar@@@Z
_TEXT	SEGMENT
_pOwner$ = 8						; size = 4
?StartBuff@ioAccLandingRateBuff@@UAEXPAVioBaseChar@@@Z PROC ; ioAccLandingRateBuff::StartBuff, COMDAT
; _this$ = ecx

; 29   : {

  00000	55		 push	 ebp
  00001	8b ec		 mov	 ebp, esp
  00003	56		 push	 esi

; 30   : 	ioBuff::StartBuff( pOwner );

  00004	ff 75 08	 push	 DWORD PTR _pOwner$[ebp]
  00007	8b f1		 mov	 esi, ecx
  00009	e8 00 00 00 00	 call	 ?StartBuff@ioBuff@@UAEXPAVioBaseChar@@@Z ; ioBuff::StartBuff

; 31   : 	ioItem *pItem= GetOwnerItem();

  0000e	8b ce		 mov	 ecx, esi
  00010	e8 00 00 00 00	 call	 ?GetOwnerItem@ioBuff@@QAEPAVioItem@@XZ ; ioBuff::GetOwnerItem

; 32   : 	if ( !pItem )

  00015	85 c0		 test	 eax, eax
  00017	75 09		 jne	 SHORT $LN2@StartBuff
$LN7@StartBuff:

; 33   : 	{
; 34   : 		SetReserveEndBuff();

  00019	8b ce		 mov	 ecx, esi
  0001b	e8 00 00 00 00	 call	 ?SetReserveEndBuff@ioBuff@@QAEXXZ ; ioBuff::SetReserveEndBuff

; 35   : 		return;

  00020	eb 48		 jmp	 SHORT $LN3@StartBuff
$LN2@StartBuff:

; 36   : 	}
; 37   : 
; 38   : 	float fNum = pItem->GetAccessoryRandomNum() / 1000.0f;

  00022	66 0f 6e 80 24
	06 00 00	 movd	 xmm0, DWORD PTR [eax+1572]

; 39   : 	if ( fNum <= 0.0f )

  0002a	0f 57 c9	 xorps	 xmm1, xmm1
  0002d	0f 5b c0	 cvtdq2ps xmm0, xmm0
  00030	f3 0f 5a c0	 cvtss2sd xmm0, xmm0
  00034	f2 0f 5e 05 00
	00 00 00	 divsd	 xmm0, QWORD PTR __real@408f400000000000
  0003c	f2 0f 5a c0	 cvtsd2ss xmm0, xmm0
  00040	0f 2f c8	 comiss	 xmm1, xmm0

; 40   : 	{
; 41   : 		SetReserveEndBuff();
; 42   : 		return;

  00043	73 d4		 jae	 SHORT $LN7@StartBuff

; 43   : 	}
; 44   : 	m_fLandingRate = m_fExtendLandingRate = fNum;
; 45   : 	pOwner->SetLandingRateByBuff( m_fLandingRate, m_fExtendLandingRate );

  00045	51		 push	 ecx
  00046	51		 push	 ecx
  00047	8b 4d 08	 mov	 ecx, DWORD PTR _pOwner$[ebp]
  0004a	f3 0f 11 44 24
	04		 movss	 DWORD PTR [esp+4], xmm0
  00050	f3 0f 11 86 70
	09 00 00	 movss	 DWORD PTR [esi+2416], xmm0
  00058	f3 0f 11 86 6c
	09 00 00	 movss	 DWORD PTR [esi+2412], xmm0
  00060	f3 0f 11 04 24	 movss	 DWORD PTR [esp], xmm0
  00065	e8 00 00 00 00	 call	 ?SetLandingRateByBuff@ioBaseChar@@QAEXMM@Z ; ioBaseChar::SetLandingRateByBuff
$LN3@StartBuff:
  0006a	5e		 pop	 esi

; 46   : }

  0006b	5d		 pop	 ebp
  0006c	c2 04 00	 ret	 4
?StartBuff@ioAccLandingRateBuff@@UAEXPAVioBaseChar@@@Z ENDP ; ioAccLandingRateBuff::StartBuff
_TEXT	ENDS
EXTRN	?ApplyStartBuff@ioBuff@@UAE_NPAVioBaseChar@@KK@Z:PROC ; ioBuff::ApplyStartBuff
; Function compile flags: /Ogsp
;	COMDAT ?ApplyStartBuff@ioAccLandingRateBuff@@UAE_NPAVioBaseChar@@KK@Z
_TEXT	SEGMENT
_pOwner$ = 8						; size = 4
_dwGlobalTime$ = 12					; size = 4
_dwGapTime$ = 16					; size = 4
?ApplyStartBuff@ioAccLandingRateBuff@@UAE_NPAVioBaseChar@@KK@Z PROC ; ioAccLandingRateBuff::ApplyStartBuff, COMDAT
; _this$ = ecx

; 49   : {

  00000	55		 push	 ebp
  00001	8b ec		 mov	 ebp, esp
  00003	56		 push	 esi

; 50   : 	if( !ioBuff::ApplyStartBuff( pOwner, dwGlobalTime, dwGapTime ) )

  00004	ff 75 10	 push	 DWORD PTR _dwGapTime$[ebp]
  00007	8b f1		 mov	 esi, ecx
  00009	ff 75 0c	 push	 DWORD PTR _dwGlobalTime$[ebp]
  0000c	ff 75 08	 push	 DWORD PTR _pOwner$[ebp]
  0000f	e8 00 00 00 00	 call	 ?ApplyStartBuff@ioBuff@@UAE_NPAVioBaseChar@@KK@Z ; ioBuff::ApplyStartBuff
  00014	84 c0		 test	 al, al
  00016	75 04		 jne	 SHORT $LN3@ApplyStart
$LN8@ApplyStart:

; 51   : 		return false;

  00018	32 c0		 xor	 al, al
  0001a	eb 5e		 jmp	 SHORT $LN4@ApplyStart
$LN3@ApplyStart:

; 52   : 
; 53   : 	ioItem *pItem= GetOwnerItem();

  0001c	8b ce		 mov	 ecx, esi
  0001e	e8 00 00 00 00	 call	 ?GetOwnerItem@ioBuff@@QAEPAVioItem@@XZ ; ioBuff::GetOwnerItem

; 54   : 	if ( !pItem )

  00023	85 c0		 test	 eax, eax
  00025	75 09		 jne	 SHORT $LN2@ApplyStart
$LN9@ApplyStart:

; 55   : 	{
; 56   : 		SetReserveEndBuff();

  00027	8b ce		 mov	 ecx, esi
  00029	e8 00 00 00 00	 call	 ?SetReserveEndBuff@ioBuff@@QAEXXZ ; ioBuff::SetReserveEndBuff

; 57   : 		return false;

  0002e	eb e8		 jmp	 SHORT $LN8@ApplyStart
$LN2@ApplyStart:

; 58   : 	}
; 59   : 
; 60   : 	float fNum = pItem->GetAccessoryRandomNum() / 1000.0f;

  00030	66 0f 6e 80 24
	06 00 00	 movd	 xmm0, DWORD PTR [eax+1572]

; 61   : 	if ( fNum <= 0.0f )

  00038	0f 57 c9	 xorps	 xmm1, xmm1
  0003b	0f 5b c0	 cvtdq2ps xmm0, xmm0
  0003e	f3 0f 5a c0	 cvtss2sd xmm0, xmm0
  00042	f2 0f 5e 05 00
	00 00 00	 divsd	 xmm0, QWORD PTR __real@408f400000000000
  0004a	f2 0f 5a c0	 cvtsd2ss xmm0, xmm0
  0004e	0f 2f c8	 comiss	 xmm1, xmm0

; 62   : 	{
; 63   : 		SetReserveEndBuff();
; 64   : 		return false;

  00051	73 d4		 jae	 SHORT $LN9@ApplyStart

; 65   : 	}
; 66   : 
; 67   : 	m_fLandingRate = m_fExtendLandingRate = fNum;
; 68   : 	pOwner->SetLandingRateByBuff( m_fLandingRate, m_fExtendLandingRate );

  00053	51		 push	 ecx
  00054	51		 push	 ecx
  00055	8b 4d 08	 mov	 ecx, DWORD PTR _pOwner$[ebp]
  00058	f3 0f 11 44 24
	04		 movss	 DWORD PTR [esp+4], xmm0
  0005e	f3 0f 11 86 70
	09 00 00	 movss	 DWORD PTR [esi+2416], xmm0
  00066	f3 0f 11 86 6c
	09 00 00	 movss	 DWORD PTR [esi+2412], xmm0
  0006e	f3 0f 11 04 24	 movss	 DWORD PTR [esp], xmm0
  00073	e8 00 00 00 00	 call	 ?SetLandingRateByBuff@ioBaseChar@@QAEXMM@Z ; ioBaseChar::SetLandingRateByBuff

; 69   : 	return true;

  00078	b0 01		 mov	 al, 1
$LN4@ApplyStart:
  0007a	5e		 pop	 esi

; 70   : }

  0007b	5d		 pop	 ebp
  0007c	c2 0c 00	 ret	 12			; 0000000cH
?ApplyStartBuff@ioAccLandingRateBuff@@UAE_NPAVioBaseChar@@KK@Z ENDP ; ioAccLandingRateBuff::ApplyStartBuff
_TEXT	ENDS
END
