; Listing generated by Microsoft (R) Optimizing Compiler Version 16.00.30319.01 

	TITLE	D:\Lost Saga For Developer\Youtube\Tutorial\Source\src\LSClient\ioAccessoryInfoManager.cpp
	.686P
	.XMM
	include listing.inc
	.model	flat

INCLUDELIB MSVCRT
INCLUDELIB OLDNAMES

PUBLIC	?_EEM_DS@?$deque@UD3DXVECTOR3@@V?$allocator@UD3DXVECTOR3@@@std@@@std@@2HB ; std::deque<D3DXVECTOR3,std::allocator<D3DXVECTOR3> >::_EEM_DS
PUBLIC	?ms_Singleton@?$Singleton@VioAccessoryInfoManager@@@@1PAVioAccessoryInfoManager@@A ; Singleton<ioAccessoryInfoManager>::ms_Singleton
;	COMDAT ?ms_Singleton@?$Singleton@VioAccessoryInfoManager@@@@1PAVioAccessoryInfoManager@@A
_BSS	SEGMENT
?ms_Singleton@?$Singleton@VioAccessoryInfoManager@@@@1PAVioAccessoryInfoManager@@A DD 01H DUP (?) ; Singleton<ioAccessoryInfoManager>::ms_Singleton
_BSS	ENDS
;	COMDAT ?_EEM_DS@?$deque@UD3DXVECTOR3@@V?$allocator@UD3DXVECTOR3@@@std@@@std@@2HB
CONST	SEGMENT
?_EEM_DS@?$deque@UD3DXVECTOR3@@V?$allocator@UD3DXVECTOR3@@@std@@@std@@2HB DD 01H ; std::deque<D3DXVECTOR3,std::allocator<D3DXVECTOR3> >::_EEM_DS
CONST	ENDS
PUBLIC	?IsOwnerChar@ioBaseChar@@QBE_NXZ		; ioBaseChar::IsOwnerChar
; Function compile flags: /Ogsp
; File d:\lost saga for developer\youtube\tutorial\source\src\lsclient\iobasechar.h
;	COMDAT ?IsOwnerChar@ioBaseChar@@QBE_NXZ
_TEXT	SEGMENT
?IsOwnerChar@ioBaseChar@@QBE_NXZ PROC			; ioBaseChar::IsOwnerChar, COMDAT
; _this$ = ecx

; 1467 : 	inline bool IsOwnerChar() const { return m_bOwnerChar; }

  00000	8a 81 84 13 00
	00		 mov	 al, BYTE PTR [ecx+4996]
  00006	c3		 ret	 0
?IsOwnerChar@ioBaseChar@@QBE_NXZ ENDP			; ioBaseChar::IsOwnerChar
_TEXT	ENDS
PUBLIC	?GetEquipSlot@ioBaseChar@@QAEPAVioEquipSlot@@XZ	; ioBaseChar::GetEquipSlot
; Function compile flags: /Ogsp
;	COMDAT ?GetEquipSlot@ioBaseChar@@QAEPAVioEquipSlot@@XZ
_TEXT	SEGMENT
?GetEquipSlot@ioBaseChar@@QAEPAVioEquipSlot@@XZ PROC	; ioBaseChar::GetEquipSlot, COMDAT
; _this$ = ecx

; 1871 : 	ioEquipSlot* GetEquipSlot() { return m_pEquipSlot; }

  00000	8b 81 48 03 00
	00		 mov	 eax, DWORD PTR [ecx+840]
  00006	c3		 ret	 0
?GetEquipSlot@ioBaseChar@@QAEPAVioEquipSlot@@XZ ENDP	; ioBaseChar::GetEquipSlot
_TEXT	ENDS
PUBLIC	?GetState@ioBaseChar@@QBE?AW4CharState@@XZ	; ioBaseChar::GetState
; Function compile flags: /Ogsp
;	COMDAT ?GetState@ioBaseChar@@QBE?AW4CharState@@XZ
_TEXT	SEGMENT
?GetState@ioBaseChar@@QBE?AW4CharState@@XZ PROC		; ioBaseChar::GetState, COMDAT
; _this$ = ecx

; 2156 : 	inline CharState GetState() const { return m_CharState; }	

  00000	8a 81 10 03 00
	00		 mov	 al, BYTE PTR [ecx+784]
  00006	c3		 ret	 0
?GetState@ioBaseChar@@QBE?AW4CharState@@XZ ENDP		; ioBaseChar::GetState
_TEXT	ENDS
PUBLIC	??_7bad_alloc@std@@6B@				; std::bad_alloc::`vftable'
PUBLIC	??0bad_alloc@std@@QAE@PBD@Z			; std::bad_alloc::bad_alloc
PUBLIC	??_R4bad_alloc@std@@6B@				; std::bad_alloc::`RTTI Complete Object Locator'
PUBLIC	??_R0?AVbad_alloc@std@@@8			; std::bad_alloc `RTTI Type Descriptor'
PUBLIC	??_R3bad_alloc@std@@8				; std::bad_alloc::`RTTI Class Hierarchy Descriptor'
PUBLIC	??_R2bad_alloc@std@@8				; std::bad_alloc::`RTTI Base Class Array'
PUBLIC	??_R1A@?0A@EA@bad_alloc@std@@8			; std::bad_alloc::`RTTI Base Class Descriptor at (0,-1,0,64)'
PUBLIC	??_R1A@?0A@EA@exception@std@@8			; std::exception::`RTTI Base Class Descriptor at (0,-1,0,64)'
PUBLIC	??_R0?AVexception@std@@@8			; std::exception `RTTI Type Descriptor'
PUBLIC	??_R3exception@std@@8				; std::exception::`RTTI Class Hierarchy Descriptor'
PUBLIC	??_R2exception@std@@8				; std::exception::`RTTI Base Class Array'
EXTRN	__imp_??0exception@std@@QAE@ABQBD@Z:PROC
EXTRN	??_7type_info@@6B@:QWORD			; type_info::`vftable'
EXTRN	??_Ebad_alloc@std@@UAEPAXI@Z:PROC		; std::bad_alloc::`vector deleting destructor'
EXTRN	?what@exception@std@@UBEPBDXZ:PROC		; std::exception::what
;	COMDAT ??_R2exception@std@@8
; File c:\program files (x86)\microsoft visual studio 10.0\vc\include\exception
rdata$r	SEGMENT
??_R2exception@std@@8 DD FLAT:??_R1A@?0A@EA@exception@std@@8 ; std::exception::`RTTI Base Class Array'
rdata$r	ENDS
;	COMDAT ??_R3exception@std@@8
rdata$r	SEGMENT
??_R3exception@std@@8 DD 00H				; std::exception::`RTTI Class Hierarchy Descriptor'
	DD	00H
	DD	01H
	DD	FLAT:??_R2exception@std@@8
rdata$r	ENDS
;	COMDAT ??_R0?AVexception@std@@@8
_DATA	SEGMENT
??_R0?AVexception@std@@@8 DD FLAT:??_7type_info@@6B@	; std::exception `RTTI Type Descriptor'
	DD	00H
	DB	'.?AVexception@std@@', 00H
_DATA	ENDS
;	COMDAT ??_R1A@?0A@EA@exception@std@@8
rdata$r	SEGMENT
??_R1A@?0A@EA@exception@std@@8 DD FLAT:??_R0?AVexception@std@@@8 ; std::exception::`RTTI Base Class Descriptor at (0,-1,0,64)'
	DD	00H
	DD	00H
	DD	0ffffffffH
	DD	00H
	DD	040H
	DD	FLAT:??_R3exception@std@@8
rdata$r	ENDS
;	COMDAT ??_R1A@?0A@EA@bad_alloc@std@@8
rdata$r	SEGMENT
??_R1A@?0A@EA@bad_alloc@std@@8 DD FLAT:??_R0?AVbad_alloc@std@@@8 ; std::bad_alloc::`RTTI Base Class Descriptor at (0,-1,0,64)'
	DD	01H
	DD	00H
	DD	0ffffffffH
	DD	00H
	DD	040H
	DD	FLAT:??_R3bad_alloc@std@@8
rdata$r	ENDS
;	COMDAT ??_R2bad_alloc@std@@8
rdata$r	SEGMENT
??_R2bad_alloc@std@@8 DD FLAT:??_R1A@?0A@EA@bad_alloc@std@@8 ; std::bad_alloc::`RTTI Base Class Array'
	DD	FLAT:??_R1A@?0A@EA@exception@std@@8
rdata$r	ENDS
;	COMDAT ??_R3bad_alloc@std@@8
rdata$r	SEGMENT
??_R3bad_alloc@std@@8 DD 00H				; std::bad_alloc::`RTTI Class Hierarchy Descriptor'
	DD	00H
	DD	02H
	DD	FLAT:??_R2bad_alloc@std@@8
rdata$r	ENDS
;	COMDAT ??_R0?AVbad_alloc@std@@@8
_DATA	SEGMENT
??_R0?AVbad_alloc@std@@@8 DD FLAT:??_7type_info@@6B@	; std::bad_alloc `RTTI Type Descriptor'
	DD	00H
	DB	'.?AVbad_alloc@std@@', 00H
_DATA	ENDS
;	COMDAT ??_R4bad_alloc@std@@6B@
rdata$r	SEGMENT
??_R4bad_alloc@std@@6B@ DD 00H				; std::bad_alloc::`RTTI Complete Object Locator'
	DD	00H
	DD	00H
	DD	FLAT:??_R0?AVbad_alloc@std@@@8
	DD	FLAT:??_R3bad_alloc@std@@8
rdata$r	ENDS
;	COMDAT ??_7bad_alloc@std@@6B@
CONST	SEGMENT
??_7bad_alloc@std@@6B@ DD FLAT:??_R4bad_alloc@std@@6B@	; std::bad_alloc::`vftable'
	DD	FLAT:??_Ebad_alloc@std@@UAEPAXI@Z
	DD	FLAT:?what@exception@std@@UBEPBDXZ
; Function compile flags: /Ogsp
CONST	ENDS
;	COMDAT ??0bad_alloc@std@@QAE@PBD@Z
_TEXT	SEGMENT
__Message$ = 8						; size = 4
??0bad_alloc@std@@QAE@PBD@Z PROC			; std::bad_alloc::bad_alloc, COMDAT
; _this$ = ecx

; 345  : 		{	// construct from message string

  00000	55		 push	 ebp
  00001	8b ec		 mov	 ebp, esp
  00003	56		 push	 esi
  00004	8d 45 08	 lea	 eax, DWORD PTR __Message$[ebp]
  00007	50		 push	 eax
  00008	8b f1		 mov	 esi, ecx
  0000a	ff 15 00 00 00
	00		 call	 DWORD PTR __imp_??0exception@std@@QAE@ABQBD@Z
  00010	c7 06 00 00 00
	00		 mov	 DWORD PTR [esi], OFFSET ??_7bad_alloc@std@@6B@

; 346  : 		}

  00016	8b c6		 mov	 eax, esi
  00018	5e		 pop	 esi
  00019	5d		 pop	 ebp
  0001a	c2 04 00	 ret	 4
??0bad_alloc@std@@QAE@PBD@Z ENDP			; std::bad_alloc::bad_alloc
_TEXT	ENDS
PUBLIC	??1bad_alloc@std@@UAE@XZ			; std::bad_alloc::~bad_alloc
EXTRN	__imp_??1exception@std@@UAE@XZ:PROC
; Function compile flags: /Ogsp
;	COMDAT ??1bad_alloc@std@@UAE@XZ
_TEXT	SEGMENT
??1bad_alloc@std@@UAE@XZ PROC				; std::bad_alloc::~bad_alloc, COMDAT
; _this$ = ecx

; 354  : 		{	// destroy the object

  00000	c7 01 00 00 00
	00		 mov	 DWORD PTR [ecx], OFFSET ??_7bad_alloc@std@@6B@

; 355  : 		}

  00006	ff 25 00 00 00
	00		 jmp	 DWORD PTR __imp_??1exception@std@@UAE@XZ
??1bad_alloc@std@@UAE@XZ ENDP				; std::bad_alloc::~bad_alloc
_TEXT	ENDS
EXTRN	??3@YAXPAX@Z:PROC				; operator delete
; Function compile flags: /Ogsp
;	COMDAT ??_Gbad_alloc@std@@UAEPAXI@Z
_TEXT	SEGMENT
___flags$ = 8						; size = 4
??_Gbad_alloc@std@@UAEPAXI@Z PROC			; std::bad_alloc::`scalar deleting destructor', COMDAT
; _this$ = ecx
  00000	55		 push	 ebp
  00001	8b ec		 mov	 ebp, esp
  00003	56		 push	 esi
  00004	8b f1		 mov	 esi, ecx
  00006	c7 06 00 00 00
	00		 mov	 DWORD PTR [esi], OFFSET ??_7bad_alloc@std@@6B@
  0000c	ff 15 00 00 00
	00		 call	 DWORD PTR __imp_??1exception@std@@UAE@XZ
  00012	f6 45 08 01	 test	 BYTE PTR ___flags$[ebp], 1
  00016	74 07		 je	 SHORT $LN1@scalar
  00018	56		 push	 esi
  00019	e8 00 00 00 00	 call	 ??3@YAXPAX@Z		; operator delete
  0001e	59		 pop	 ecx
$LN1@scalar:
  0001f	8b c6		 mov	 eax, esi
  00021	5e		 pop	 esi
  00022	5d		 pop	 ebp
  00023	c2 04 00	 ret	 4
??_Gbad_alloc@std@@UAEPAXI@Z ENDP			; std::bad_alloc::`scalar deleting destructor'
_TEXT	ENDS
PUBLIC	??2@YAPAXIPAX@Z					; operator new
; Function compile flags: /Ogsp
; File c:\program files (x86)\microsoft visual studio 10.0\vc\include\new
;	COMDAT ??2@YAPAXIPAX@Z
_TEXT	SEGMENT
___formal$ = 8						; size = 4
__Where$ = 12						; size = 4
??2@YAPAXIPAX@Z PROC					; operator new, COMDAT

; 56   : 	{	// construct array with placement at _Where

  00000	55		 push	 ebp
  00001	8b ec		 mov	 ebp, esp

; 57   : 	return (_Where);

  00003	8b 45 0c	 mov	 eax, DWORD PTR __Where$[ebp]

; 58   : 	}

  00006	5d		 pop	 ebp
  00007	c3		 ret	 0
??2@YAPAXIPAX@Z ENDP					; operator new
_TEXT	ENDS
PUBLIC	??3@YAXPAX0@Z					; operator delete
; Function compile flags: /Ogsp
;	COMDAT ??3@YAXPAX0@Z
_TEXT	SEGMENT
___formal$ = 8						; size = 4
___formal$ = 12						; size = 4
??3@YAXPAX0@Z PROC					; operator delete, COMDAT

; 62   : 	}

  00000	c3		 ret	 0
??3@YAXPAX0@Z ENDP					; operator delete
_TEXT	ENDS
PUBLIC	?GetPlayMode@ioPlayStage@@QBEPAVioPlayMode@@XZ	; ioPlayStage::GetPlayMode
; Function compile flags: /Ogsp
; File d:\lost saga for developer\youtube\tutorial\source\src\lsclient\ioplaystage.h
;	COMDAT ?GetPlayMode@ioPlayStage@@QBEPAVioPlayMode@@XZ
_TEXT	SEGMENT
?GetPlayMode@ioPlayStage@@QBEPAVioPlayMode@@XZ PROC	; ioPlayStage::GetPlayMode, COMDAT
; _this$ = ecx

; 780  : 	inline ioPlayMode* GetPlayMode() const { return m_pPlayMode; }

  00000	8b 81 10 01 00
	00		 mov	 eax, DWORD PTR [ecx+272]
  00006	c3		 ret	 0
?GetPlayMode@ioPlayStage@@QBEPAVioPlayMode@@XZ ENDP	; ioPlayStage::GetPlayMode
_TEXT	ENDS
PUBLIC	?copy@?$char_traits@D@std@@SAPADPADPBDI@Z	; std::char_traits<char>::copy
EXTRN	_memcpy:PROC
; Function compile flags: /Ogsp
; File c:\program files (x86)\microsoft visual studio 10.0\vc\include\iosfwd
;	COMDAT ?copy@?$char_traits@D@std@@SAPADPADPBDI@Z
_TEXT	SEGMENT
__First1$ = 8						; size = 4
__First2$ = 12						; size = 4
__Count$ = 16						; size = 4
?copy@?$char_traits@D@std@@SAPADPADPBDI@Z PROC		; std::char_traits<char>::copy, COMDAT

; 496  : 		{	// copy [_First1, _First1 + _Count) to [_First2, ...)

  00000	55		 push	 ebp
  00001	8b ec		 mov	 ebp, esp

; 498  : 		}

  00003	5d		 pop	 ebp

; 497  : 		return ((_Elem *)_CSTD memcpy(_First1, _First2, _Count));

  00004	e9 00 00 00 00	 jmp	 _memcpy
?copy@?$char_traits@D@std@@SAPADPADPBDI@Z ENDP		; std::char_traits<char>::copy
_TEXT	ENDS
PUBLIC	?move@?$char_traits@D@std@@SAPADPADPBDI@Z	; std::char_traits<char>::move
EXTRN	__imp__memmove:PROC
; Function compile flags: /Ogsp
;	COMDAT ?move@?$char_traits@D@std@@SAPADPADPBDI@Z
_TEXT	SEGMENT
__First1$ = 8						; size = 4
__First2$ = 12						; size = 4
__Count$ = 16						; size = 4
?move@?$char_traits@D@std@@SAPADPADPBDI@Z PROC		; std::char_traits<char>::move, COMDAT

; 516  : 		{	// copy [_First1, _First1 + _Count) to [_First2, ...)

  00000	55		 push	 ebp
  00001	8b ec		 mov	 ebp, esp

; 518  : 		}

  00003	5d		 pop	 ebp

; 517  : 		return ((_Elem *)_CSTD memmove(_First1, _First2, _Count));

  00004	ff 25 00 00 00
	00		 jmp	 DWORD PTR __imp__memmove
?move@?$char_traits@D@std@@SAPADPADPBDI@Z ENDP		; std::char_traits<char>::move
_TEXT	ENDS
PUBLIC	?assign@?$char_traits@D@std@@SAXAADABD@Z	; std::char_traits<char>::assign
; Function compile flags: /Ogsp
;	COMDAT ?assign@?$char_traits@D@std@@SAXAADABD@Z
_TEXT	SEGMENT
__Left$ = 8						; size = 4
__Right$ = 12						; size = 4
?assign@?$char_traits@D@std@@SAXAADABD@Z PROC		; std::char_traits<char>::assign, COMDAT

; 526  : 		{	// assign an element

  00000	55		 push	 ebp
  00001	8b ec		 mov	 ebp, esp

; 527  : 		_Left = _Right;

  00003	8b 45 0c	 mov	 eax, DWORD PTR __Right$[ebp]
  00006	8a 00		 mov	 al, BYTE PTR [eax]
  00008	8b 4d 08	 mov	 ecx, DWORD PTR __Left$[ebp]
  0000b	88 01		 mov	 BYTE PTR [ecx], al

; 528  : 		}

  0000d	5d		 pop	 ebp
  0000e	c3		 ret	 0
?assign@?$char_traits@D@std@@SAXAADABD@Z ENDP		; std::char_traits<char>::assign
_TEXT	ENDS
PUBLIC	??1ioINILoader_e@@QAE@XZ			; ioINILoader_e::~ioINILoader_e
EXTRN	__imp_??1ioINILoader@@QAE@XZ:PROC
; Function compile flags: /Ogsp
;	COMDAT ??1ioINILoader_e@@QAE@XZ
_TEXT	SEGMENT
??1ioINILoader_e@@QAE@XZ PROC				; ioINILoader_e::~ioINILoader_e, COMDAT
; _this$ = ecx
  00000	ff 25 00 00 00
	00		 jmp	 DWORD PTR __imp_??1ioINILoader@@QAE@XZ
??1ioINILoader_e@@QAE@XZ ENDP				; ioINILoader_e::~ioINILoader_e
_TEXT	ENDS
PUBLIC	?_Adopt@_Iterator_base0@std@@QAEXPBX@Z		; std::_Iterator_base0::_Adopt
; Function compile flags: /Ogsp
; File c:\program files (x86)\microsoft visual studio 10.0\vc\include\xutility
;	COMDAT ?_Adopt@_Iterator_base0@std@@QAEXPBX@Z
_TEXT	SEGMENT
___formal$ = 8						; size = 4
?_Adopt@_Iterator_base0@std@@QAEXPBX@Z PROC		; std::_Iterator_base0::_Adopt, COMDAT
; _this$ = ecx

; 49   : 		}

  00000	c2 04 00	 ret	 4
?_Adopt@_Iterator_base0@std@@QAEXPBX@Z ENDP		; std::_Iterator_base0::_Adopt
_TEXT	ENDS
PUBLIC	??1tagAccessorySlot@@QAE@XZ			; tagAccessorySlot::~tagAccessorySlot
EXTRN	__imp_??1ioHashString@@QAE@XZ:PROC
EXTRN	___CxxFrameHandler3:PROC
EXTRN	@__security_check_cookie@4:PROC
EXTRN	__EH_epilog3:PROC
EXTRN	__EH_prolog3:PROC
;	COMDAT xdata$x
xdata$x	SEGMENT
__unwindtable$??1tagAccessorySlot@@QAE@XZ DD 0ffffffffH
	DD	FLAT:__unwindfunclet$??1tagAccessorySlot@@QAE@XZ$0
__ehfuncinfo$??1tagAccessorySlot@@QAE@XZ DD 019930522H
	DD	01H
	DD	FLAT:__unwindtable$??1tagAccessorySlot@@QAE@XZ
	DD	2 DUP(00H)
	DD	2 DUP(00H)
	DD	00H
	DD	01H
; Function compile flags: /Ogsp
xdata$x	ENDS
;	COMDAT ??1tagAccessorySlot@@QAE@XZ
_TEXT	SEGMENT
_this$ = -16						; size = 4
__$EHRec$ = -12						; size = 12
??1tagAccessorySlot@@QAE@XZ PROC			; tagAccessorySlot::~tagAccessorySlot, COMDAT
; _this$ = ecx
  00000	6a 04		 push	 4
  00002	b8 00 00 00 00	 mov	 eax, __ehhandler$??1tagAccessorySlot@@QAE@XZ
  00007	e8 00 00 00 00	 call	 __EH_prolog3
  0000c	8b f9		 mov	 edi, ecx
  0000e	89 7d f0	 mov	 DWORD PTR _this$[ebp], edi
  00011	8b 35 00 00 00
	00		 mov	 esi, DWORD PTR __imp_??1ioHashString@@QAE@XZ
  00017	83 65 fc 00	 and	 DWORD PTR __$EHRec$[ebp+8], 0
  0001b	8d 4f 34	 lea	 ecx, DWORD PTR [edi+52]
  0001e	ff d6		 call	 esi
  00020	83 4d fc ff	 or	 DWORD PTR __$EHRec$[ebp+8], -1
  00024	8d 4f 24	 lea	 ecx, DWORD PTR [edi+36]
  00027	ff d6		 call	 esi
  00029	e8 00 00 00 00	 call	 __EH_epilog3
  0002e	c3		 ret	 0
_TEXT	ENDS
;	COMDAT text$x
text$x	SEGMENT
__unwindfunclet$??1tagAccessorySlot@@QAE@XZ$0:
  00000	8b 4d f0	 mov	 ecx, DWORD PTR _this$[ebp]
  00003	83 c1 24	 add	 ecx, 36			; 00000024H
  00006	ff 25 00 00 00
	00		 jmp	 DWORD PTR __imp_??1ioHashString@@QAE@XZ
__ehhandler$??1tagAccessorySlot@@QAE@XZ:
  0000c	8b 54 24 08	 mov	 edx, DWORD PTR [esp+8]
  00010	8d 42 0c	 lea	 eax, DWORD PTR [edx+12]
  00013	8b 4a ec	 mov	 ecx, DWORD PTR [edx-20]
  00016	33 c8		 xor	 ecx, eax
  00018	e8 00 00 00 00	 call	 @__security_check_cookie@4
  0001d	b8 00 00 00 00	 mov	 eax, OFFSET __ehfuncinfo$??1tagAccessorySlot@@QAE@XZ
  00022	e9 00 00 00 00	 jmp	 ___CxxFrameHandler3
text$x	ENDS
??1tagAccessorySlot@@QAE@XZ ENDP			; tagAccessorySlot::~tagAccessorySlot
PUBLIC	?GetResellMortmainAccessoryPeso@ioAccessoryInfoManager@@QBEABMXZ ; ioAccessoryInfoManager::GetResellMortmainAccessoryPeso
; Function compile flags: /Ogsp
; File d:\lost saga for developer\youtube\tutorial\source\src\lsclient\ioaccessoryinfomanager.cpp
;	COMDAT ?GetResellMortmainAccessoryPeso@ioAccessoryInfoManager@@QBEABMXZ
_TEXT	SEGMENT
?GetResellMortmainAccessoryPeso@ioAccessoryInfoManager@@QBEABMXZ PROC ; ioAccessoryInfoManager::GetResellMortmainAccessoryPeso, COMDAT
; _this$ = ecx

; 350  : 	return m_fMortmainItemSellPrice; 

  00000	8d 41 04	 lea	 eax, DWORD PTR [ecx+4]

; 351  : }

  00003	c3		 ret	 0
?GetResellMortmainAccessoryPeso@ioAccessoryInfoManager@@QBEABMXZ ENDP ; ioAccessoryInfoManager::GetResellMortmainAccessoryPeso
_TEXT	ENDS
PUBLIC	?GetResellTimeAccessoryTimePeso@ioAccessoryInfoManager@@QBEABMXZ ; ioAccessoryInfoManager::GetResellTimeAccessoryTimePeso
; Function compile flags: /Ogsp
;	COMDAT ?GetResellTimeAccessoryTimePeso@ioAccessoryInfoManager@@QBEABMXZ
_TEXT	SEGMENT
?GetResellTimeAccessoryTimePeso@ioAccessoryInfoManager@@QBEABMXZ PROC ; ioAccessoryInfoManager::GetResellTimeAccessoryTimePeso, COMDAT
; _this$ = ecx

; 355  : 	return m_fTimeItemSellPrice;

  00000	8d 41 08	 lea	 eax, DWORD PTR [ecx+8]

; 356  : }

  00003	c3		 ret	 0
?GetResellTimeAccessoryTimePeso@ioAccessoryInfoManager@@QBEABMXZ ENDP ; ioAccessoryInfoManager::GetResellTimeAccessoryTimePeso
_TEXT	ENDS
PUBLIC	??0?$Singleton@VioAccessoryInfoManager@@@@QAE@XZ ; Singleton<ioAccessoryInfoManager>::Singleton<ioAccessoryInfoManager>
; Function compile flags: /Ogsp
; File d:\lost saga for developer\youtube\tutorial\source\src\io3dengine\iosingleton.h
;	COMDAT ??0?$Singleton@VioAccessoryInfoManager@@@@QAE@XZ
_TEXT	SEGMENT
??0?$Singleton@VioAccessoryInfoManager@@@@QAE@XZ PROC	; Singleton<ioAccessoryInfoManager>::Singleton<ioAccessoryInfoManager>, COMDAT
; _this$ = ecx

; 27   : 	Singleton()

  00000	8b c1		 mov	 eax, ecx

; 28   : 	{
; 29   : 		assert( !ms_Singleton );
; 30   : 		int offset = (int)(T*)1 - (int)(Singleton <T>*)(T*)1;
; 31   : 		ms_Singleton = (T*)((int)this + offset);

  00002	8d 48 fc	 lea	 ecx, DWORD PTR [eax-4]
  00005	89 0d 00 00 00
	00		 mov	 DWORD PTR ?ms_Singleton@?$Singleton@VioAccessoryInfoManager@@@@1PAVioAccessoryInfoManager@@A, ecx ; Singleton<ioAccessoryInfoManager>::ms_Singleton

; 32   : 	}

  0000b	c3		 ret	 0
??0?$Singleton@VioAccessoryInfoManager@@@@QAE@XZ ENDP	; Singleton<ioAccessoryInfoManager>::Singleton<ioAccessoryInfoManager>
_TEXT	ENDS
PUBLIC	??1?$Singleton@VioAccessoryInfoManager@@@@QAE@XZ ; Singleton<ioAccessoryInfoManager>::~Singleton<ioAccessoryInfoManager>
; Function compile flags: /Ogsp
;	COMDAT ??1?$Singleton@VioAccessoryInfoManager@@@@QAE@XZ
_TEXT	SEGMENT
??1?$Singleton@VioAccessoryInfoManager@@@@QAE@XZ PROC	; Singleton<ioAccessoryInfoManager>::~Singleton<ioAccessoryInfoManager>, COMDAT
; _this$ = ecx

; 36   : 		assert( ms_Singleton );
; 37   : 		ms_Singleton = 0;

  00000	83 25 00 00 00
	00 00		 and	 DWORD PTR ?ms_Singleton@?$Singleton@VioAccessoryInfoManager@@@@1PAVioAccessoryInfoManager@@A, 0 ; Singleton<ioAccessoryInfoManager>::ms_Singleton

; 38   : 	}

  00007	c3		 ret	 0
??1?$Singleton@VioAccessoryInfoManager@@@@QAE@XZ ENDP	; Singleton<ioAccessoryInfoManager>::~Singleton<ioAccessoryInfoManager>
_TEXT	ENDS
PUBLIC	?GetSingleton@?$Singleton@VioAccessoryInfoManager@@@@SAAAVioAccessoryInfoManager@@XZ ; Singleton<ioAccessoryInfoManager>::GetSingleton
; Function compile flags: /Ogsp
;	COMDAT ?GetSingleton@?$Singleton@VioAccessoryInfoManager@@@@SAAAVioAccessoryInfoManager@@XZ
_TEXT	SEGMENT
?GetSingleton@?$Singleton@VioAccessoryInfoManager@@@@SAAAVioAccessoryInfoManager@@XZ PROC ; Singleton<ioAccessoryInfoManager>::GetSingleton, COMDAT

; 42   : 		assert( ms_Singleton );
; 43   : 		return (*ms_Singleton);

  00000	a1 00 00 00 00	 mov	 eax, DWORD PTR ?ms_Singleton@?$Singleton@VioAccessoryInfoManager@@@@1PAVioAccessoryInfoManager@@A ; Singleton<ioAccessoryInfoManager>::ms_Singleton

; 44   : 	}

  00005	c3		 ret	 0
?GetSingleton@?$Singleton@VioAccessoryInfoManager@@@@SAAAVioAccessoryInfoManager@@XZ ENDP ; Singleton<ioAccessoryInfoManager>::GetSingleton
_TEXT	ENDS
PUBLIC	?_Inside@?$vector@VioComplexStringPrinter@@V?$allocator@VioComplexStringPrinter@@@std@@@std@@IBE_NPBVioComplexStringPrinter@@@Z ; std::vector<ioComplexStringPrinter,std::allocator<ioComplexStringPrinter> >::_Inside
; Function compile flags: /Ogsp
; File c:\program files (x86)\microsoft visual studio 10.0\vc\include\vector
;	COMDAT ?_Inside@?$vector@VioComplexStringPrinter@@V?$allocator@VioComplexStringPrinter@@@std@@@std@@IBE_NPBVioComplexStringPrinter@@@Z
_TEXT	SEGMENT
__Ptr$ = 8						; size = 4
?_Inside@?$vector@VioComplexStringPrinter@@V?$allocator@VioComplexStringPrinter@@@std@@@std@@IBE_NPBVioComplexStringPrinter@@@Z PROC ; std::vector<ioComplexStringPrinter,std::allocator<ioComplexStringPrinter> >::_Inside, COMDAT
; _this$ = ecx

; 1285 : 		{	// test if _Ptr points inside vector

  00000	55		 push	 ebp
  00001	8b ec		 mov	 ebp, esp

; 1286 : 		return (_Ptr < this->_Mylast && this->_Myfirst <= _Ptr);

  00003	8b 45 08	 mov	 eax, DWORD PTR __Ptr$[ebp]
  00006	3b 41 04	 cmp	 eax, DWORD PTR [ecx+4]
  00009	73 09		 jae	 SHORT $LN3@Inside
  0000b	39 01		 cmp	 DWORD PTR [ecx], eax
  0000d	77 05		 ja	 SHORT $LN3@Inside
  0000f	33 c0		 xor	 eax, eax
  00011	40		 inc	 eax
  00012	eb 02		 jmp	 SHORT $LN4@Inside
$LN3@Inside:
  00014	33 c0		 xor	 eax, eax
$LN4@Inside:

; 1287 : 		}

  00016	5d		 pop	 ebp
  00017	c2 04 00	 ret	 4
?_Inside@?$vector@VioComplexStringPrinter@@V?$allocator@VioComplexStringPrinter@@@std@@@std@@IBE_NPBVioComplexStringPrinter@@@Z ENDP ; std::vector<ioComplexStringPrinter,std::allocator<ioComplexStringPrinter> >::_Inside
_TEXT	ENDS
PUBLIC	?_Orphan_range@?$vector@VioComplexStringPrinter@@V?$allocator@VioComplexStringPrinter@@@std@@@std@@IBEXPAVioComplexStringPrinter@@0@Z ; std::vector<ioComplexStringPrinter,std::allocator<ioComplexStringPrinter> >::_Orphan_range
; Function compile flags: /Ogsp
;	COMDAT ?_Orphan_range@?$vector@VioComplexStringPrinter@@V?$allocator@VioComplexStringPrinter@@@std@@@std@@IBEXPAVioComplexStringPrinter@@0@Z
_TEXT	SEGMENT
___formal$ = 8						; size = 4
___formal$ = 12						; size = 4
?_Orphan_range@?$vector@VioComplexStringPrinter@@V?$allocator@VioComplexStringPrinter@@@std@@@std@@IBEXPAVioComplexStringPrinter@@0@Z PROC ; std::vector<ioComplexStringPrinter,std::allocator<ioComplexStringPrinter> >::_Orphan_range, COMDAT
; _this$ = ecx

; 1454 : 		}

  00000	c2 08 00	 ret	 8
?_Orphan_range@?$vector@VioComplexStringPrinter@@V?$allocator@VioComplexStringPrinter@@@std@@@std@@IBEXPAVioComplexStringPrinter@@0@Z ENDP ; std::vector<ioComplexStringPrinter,std::allocator<ioComplexStringPrinter> >::_Orphan_range
_TEXT	ENDS
PUBLIC	??1?$_Vector_val@VioComplexStringPrinter@@V?$allocator@VioComplexStringPrinter@@@std@@@std@@QAE@XZ ; std::_Vector_val<ioComplexStringPrinter,std::allocator<ioComplexStringPrinter> >::~_Vector_val<ioComplexStringPrinter,std::allocator<ioComplexStringPrinter> >
; Function compile flags: /Ogsp
;	COMDAT ??1?$_Vector_val@VioComplexStringPrinter@@V?$allocator@VioComplexStringPrinter@@@std@@@std@@QAE@XZ
_TEXT	SEGMENT
??1?$_Vector_val@VioComplexStringPrinter@@V?$allocator@VioComplexStringPrinter@@@std@@@std@@QAE@XZ PROC ; std::_Vector_val<ioComplexStringPrinter,std::allocator<ioComplexStringPrinter> >::~_Vector_val<ioComplexStringPrinter,std::allocator<ioComplexStringPrinter> >, COMDAT
; _this$ = ecx

; 434  : 		}

  00000	c3		 ret	 0
??1?$_Vector_val@VioComplexStringPrinter@@V?$allocator@VioComplexStringPrinter@@@std@@@std@@QAE@XZ ENDP ; std::_Vector_val<ioComplexStringPrinter,std::allocator<ioComplexStringPrinter> >::~_Vector_val<ioComplexStringPrinter,std::allocator<ioComplexStringPrinter> >
_TEXT	ENDS
PUBLIC	??0?$allocator@VioComplexStringPrinter@@@std@@QAE@XZ ; std::allocator<ioComplexStringPrinter>::allocator<ioComplexStringPrinter>
; Function compile flags: /Ogsp
; File c:\program files (x86)\microsoft visual studio 10.0\vc\include\xmemory
;	COMDAT ??0?$allocator@VioComplexStringPrinter@@@std@@QAE@XZ
_TEXT	SEGMENT
??0?$allocator@VioComplexStringPrinter@@@std@@QAE@XZ PROC ; std::allocator<ioComplexStringPrinter>::allocator<ioComplexStringPrinter>, COMDAT
; _this$ = ecx

; 161  : 	_ALLOCATOR() _THROW0()

  00000	8b c1		 mov	 eax, ecx

; 162  : 		{	// construct default allocator (do nothing)
; 163  : 		}

  00002	c3		 ret	 0
??0?$allocator@VioComplexStringPrinter@@@std@@QAE@XZ ENDP ; std::allocator<ioComplexStringPrinter>::allocator<ioComplexStringPrinter>
_TEXT	ENDS
PUBLIC	?capacity@?$vector@VioComplexStringPrinter@@V?$allocator@VioComplexStringPrinter@@@std@@@std@@QBEIXZ ; std::vector<ioComplexStringPrinter,std::allocator<ioComplexStringPrinter> >::capacity
; Function compile flags: /Ogsp
; File c:\program files (x86)\microsoft visual studio 10.0\vc\include\vector
;	COMDAT ?capacity@?$vector@VioComplexStringPrinter@@V?$allocator@VioComplexStringPrinter@@@std@@@std@@QBEIXZ
_TEXT	SEGMENT
?capacity@?$vector@VioComplexStringPrinter@@V?$allocator@VioComplexStringPrinter@@@std@@@std@@QBEIXZ PROC ; std::vector<ioComplexStringPrinter,std::allocator<ioComplexStringPrinter> >::capacity, COMDAT
; _this$ = ecx

; 777  : 		return (this->_Myend - this->_Myfirst);

  00000	8b 41 08	 mov	 eax, DWORD PTR [ecx+8]
  00003	2b 01		 sub	 eax, DWORD PTR [ecx]
  00005	c1 f8 05	 sar	 eax, 5

; 778  : 		}

  00008	c3		 ret	 0
?capacity@?$vector@VioComplexStringPrinter@@V?$allocator@VioComplexStringPrinter@@@std@@@std@@QBEIXZ ENDP ; std::vector<ioComplexStringPrinter,std::allocator<ioComplexStringPrinter> >::capacity
_TEXT	ENDS
PUBLIC	?size@?$vector@VioComplexStringPrinter@@V?$allocator@VioComplexStringPrinter@@@std@@@std@@QBEIXZ ; std::vector<ioComplexStringPrinter,std::allocator<ioComplexStringPrinter> >::size
; Function compile flags: /Ogsp
;	COMDAT ?size@?$vector@VioComplexStringPrinter@@V?$allocator@VioComplexStringPrinter@@@std@@@std@@QBEIXZ
_TEXT	SEGMENT
?size@?$vector@VioComplexStringPrinter@@V?$allocator@VioComplexStringPrinter@@@std@@@std@@QBEIXZ PROC ; std::vector<ioComplexStringPrinter,std::allocator<ioComplexStringPrinter> >::size, COMDAT
; _this$ = ecx

; 879  : 		return (this->_Mylast - this->_Myfirst);

  00000	8b 41 04	 mov	 eax, DWORD PTR [ecx+4]
  00003	2b 01		 sub	 eax, DWORD PTR [ecx]
  00005	c1 f8 05	 sar	 eax, 5

; 880  : 		}

  00008	c3		 ret	 0
?size@?$vector@VioComplexStringPrinter@@V?$allocator@VioComplexStringPrinter@@@std@@@std@@QBEIXZ ENDP ; std::vector<ioComplexStringPrinter,std::allocator<ioComplexStringPrinter> >::size
_TEXT	ENDS
PUBLIC	??_C@_0BD@OLBABOEK@vector?$DMT?$DO?5too?5long?$AA@ ; `string'
PUBLIC	?_Xlen@?$vector@VioComplexStringPrinter@@V?$allocator@VioComplexStringPrinter@@@std@@@std@@IBEXXZ ; std::vector<ioComplexStringPrinter,std::allocator<ioComplexStringPrinter> >::_Xlen
EXTRN	__imp_?_Xlength_error@std@@YAXPBD@Z:PROC
;	COMDAT ??_C@_0BD@OLBABOEK@vector?$DMT?$DO?5too?5long?$AA@
CONST	SEGMENT
??_C@_0BD@OLBABOEK@vector?$DMT?$DO?5too?5long?$AA@ DB 'vector<T> too long'
	DB	00H						; `string'
; Function compile flags: /Ogsp
CONST	ENDS
;	COMDAT ?_Xlen@?$vector@VioComplexStringPrinter@@V?$allocator@VioComplexStringPrinter@@@std@@@std@@IBEXXZ
_TEXT	SEGMENT
?_Xlen@?$vector@VioComplexStringPrinter@@V?$allocator@VioComplexStringPrinter@@@std@@@std@@IBEXXZ PROC ; std::vector<ioComplexStringPrinter,std::allocator<ioComplexStringPrinter> >::_Xlen, COMDAT
; _this$ = ecx

; 1427 : 		_Xlength_error("vector<T> too long");

  00000	68 00 00 00 00	 push	 OFFSET ??_C@_0BD@OLBABOEK@vector?$DMT?$DO?5too?5long?$AA@
  00005	ff 15 00 00 00
	00		 call	 DWORD PTR __imp_?_Xlength_error@std@@YAXPBD@Z
$LN4@Xlen:
$LN3@Xlen:
  0000b	cc		 int	 3
?_Xlen@?$vector@VioComplexStringPrinter@@V?$allocator@VioComplexStringPrinter@@@std@@@std@@IBEXXZ ENDP ; std::vector<ioComplexStringPrinter,std::allocator<ioComplexStringPrinter> >::_Xlen
_TEXT	ENDS
PUBLIC	??0?$allocator@VioComplexStringPrinter@@@std@@QAE@ABV01@@Z ; std::allocator<ioComplexStringPrinter>::allocator<ioComplexStringPrinter>
; Function compile flags: /Ogsp
; File c:\program files (x86)\microsoft visual studio 10.0\vc\include\xmemory
;	COMDAT ??0?$allocator@VioComplexStringPrinter@@@std@@QAE@ABV01@@Z
_TEXT	SEGMENT
___formal$ = 8						; size = 4
??0?$allocator@VioComplexStringPrinter@@@std@@QAE@ABV01@@Z PROC ; std::allocator<ioComplexStringPrinter>::allocator<ioComplexStringPrinter>, COMDAT
; _this$ = ecx

; 165  : 	_ALLOCATOR(const _ALLOCATOR<_Ty>&) _THROW0()

  00000	8b c1		 mov	 eax, ecx

; 166  : 		{	// construct by copying (do nothing)
; 167  : 		}

  00002	c2 04 00	 ret	 4
??0?$allocator@VioComplexStringPrinter@@@std@@QAE@ABV01@@Z ENDP ; std::allocator<ioComplexStringPrinter>::allocator<ioComplexStringPrinter>
_TEXT	ENDS
PUBLIC	?deallocate@?$allocator@VioComplexStringPrinter@@@std@@QAEXPAVioComplexStringPrinter@@I@Z ; std::allocator<ioComplexStringPrinter>::deallocate
; Function compile flags: /Ogsp
;	COMDAT ?deallocate@?$allocator@VioComplexStringPrinter@@@std@@QAEXPAVioComplexStringPrinter@@I@Z
_TEXT	SEGMENT
__Ptr$ = 8						; size = 4
___formal$ = 12						; size = 4
?deallocate@?$allocator@VioComplexStringPrinter@@@std@@QAEXPAVioComplexStringPrinter@@I@Z PROC ; std::allocator<ioComplexStringPrinter>::deallocate, COMDAT
; _this$ = ecx

; 181  : 		{	// deallocate object at _Ptr, ignore size

  00000	55		 push	 ebp
  00001	8b ec		 mov	 ebp, esp

; 182  : 		::operator delete(_Ptr);

  00003	ff 75 08	 push	 DWORD PTR __Ptr$[ebp]
  00006	e8 00 00 00 00	 call	 ??3@YAXPAX@Z		; operator delete
  0000b	59		 pop	 ecx

; 183  : 		}

  0000c	5d		 pop	 ebp
  0000d	c2 08 00	 ret	 8
?deallocate@?$allocator@VioComplexStringPrinter@@@std@@QAEXPAVioComplexStringPrinter@@I@Z ENDP ; std::allocator<ioComplexStringPrinter>::deallocate
_TEXT	ENDS
PUBLIC	?max_size@?$allocator@VioComplexStringPrinter@@@std@@QBEIXZ ; std::allocator<ioComplexStringPrinter>::max_size
; Function compile flags: /Ogsp
;	COMDAT ?max_size@?$allocator@VioComplexStringPrinter@@@std@@QBEIXZ
_TEXT	SEGMENT
?max_size@?$allocator@VioComplexStringPrinter@@@std@@QBEIXZ PROC ; std::allocator<ioComplexStringPrinter>::max_size, COMDAT
; _this$ = ecx

; 218  : 		_SIZT _Count = (_SIZT)(-1) / sizeof (_Ty);
; 219  : 		return (0 < _Count ? _Count : 1);

  00000	b8 ff ff ff 07	 mov	 eax, 134217727		; 07ffffffH

; 220  : 		}

  00005	c3		 ret	 0
?max_size@?$allocator@VioComplexStringPrinter@@@std@@QBEIXZ ENDP ; std::allocator<ioComplexStringPrinter>::max_size
_TEXT	ENDS
PUBLIC	??$addressof@$$CBVioComplexStringPrinter@@@std@@YAPBVioComplexStringPrinter@@ABV1@@Z ; std::addressof<ioComplexStringPrinter const >
; Function compile flags: /Ogsp
;	COMDAT ??$addressof@$$CBVioComplexStringPrinter@@@std@@YAPBVioComplexStringPrinter@@ABV1@@Z
_TEXT	SEGMENT
__Val$ = 8						; size = 4
??$addressof@$$CBVioComplexStringPrinter@@@std@@YAPBVioComplexStringPrinter@@ABV1@@Z PROC ; std::addressof<ioComplexStringPrinter const >, COMDAT

; 110  : 	{	// return address of _Val

  00000	55		 push	 ebp
  00001	8b ec		 mov	 ebp, esp

; 111  : 	return ((_Ty *) &(char&)_Val);

  00003	8b 45 08	 mov	 eax, DWORD PTR __Val$[ebp]

; 112  : 	}

  00006	5d		 pop	 ebp
  00007	c3		 ret	 0
??$addressof@$$CBVioComplexStringPrinter@@@std@@YAPBVioComplexStringPrinter@@ABV1@@Z ENDP ; std::addressof<ioComplexStringPrinter const >
_TEXT	ENDS
PUBLIC	__TI2?AVbad_alloc@std@@
PUBLIC	??$_Allocate@VioComplexStringPrinter@@@std@@YAPAVioComplexStringPrinter@@IPAV1@@Z ; std::_Allocate<ioComplexStringPrinter>
PUBLIC	__CTA2?AVbad_alloc@std@@
PUBLIC	__CT??_R0?AVbad_alloc@std@@@8??0bad_alloc@std@@QAE@ABV01@@Z12
PUBLIC	??0bad_alloc@std@@QAE@ABV01@@Z			; std::bad_alloc::bad_alloc
PUBLIC	__CT??_R0?AVexception@std@@@8??0exception@std@@QAE@ABV01@@Z12
EXTRN	??2@YAPAXI@Z:PROC				; operator new
EXTRN	__CxxThrowException@8:PROC
EXTRN	??0exception@std@@QAE@ABV01@@Z:PROC		; std::exception::exception
;	COMDAT __CT??_R0?AVexception@std@@@8??0exception@std@@QAE@ABV01@@Z12
; File c:\program files (x86)\microsoft visual studio 10.0\vc\include\exception
xdata$x	SEGMENT
__CT??_R0?AVexception@std@@@8??0exception@std@@QAE@ABV01@@Z12 DD 00H
	DD	FLAT:??_R0?AVexception@std@@@8
	DD	00H
	DD	0ffffffffH
	ORG $+4
	DD	0cH
	DD	FLAT:??0exception@std@@QAE@ABV01@@Z
xdata$x	ENDS
;	COMDAT __CT??_R0?AVbad_alloc@std@@@8??0bad_alloc@std@@QAE@ABV01@@Z12
xdata$x	SEGMENT
__CT??_R0?AVbad_alloc@std@@@8??0bad_alloc@std@@QAE@ABV01@@Z12 DD 00H
	DD	FLAT:??_R0?AVbad_alloc@std@@@8
	DD	00H
	DD	0ffffffffH
	ORG $+4
	DD	0cH
	DD	FLAT:??0bad_alloc@std@@QAE@ABV01@@Z
xdata$x	ENDS
;	COMDAT __CTA2?AVbad_alloc@std@@
xdata$x	SEGMENT
__CTA2?AVbad_alloc@std@@ DD 02H
	DD	FLAT:__CT??_R0?AVbad_alloc@std@@@8??0bad_alloc@std@@QAE@ABV01@@Z12
	DD	FLAT:__CT??_R0?AVexception@std@@@8??0exception@std@@QAE@ABV01@@Z12
xdata$x	ENDS
;	COMDAT __TI2?AVbad_alloc@std@@
xdata$x	SEGMENT
__TI2?AVbad_alloc@std@@ DD 00H
	DD	FLAT:??1bad_alloc@std@@UAE@XZ
	DD	00H
	DD	FLAT:__CTA2?AVbad_alloc@std@@
; Function compile flags: /Ogsp
; File c:\program files (x86)\microsoft visual studio 10.0\vc\include\xmemory
xdata$x	ENDS
;	COMDAT ??$_Allocate@VioComplexStringPrinter@@@std@@YAPAVioComplexStringPrinter@@IPAV1@@Z
_TEXT	SEGMENT
$T538522 = -12						; size = 12
$T538527 = 8						; size = 4
__Count$ = 8						; size = 4
___formal$ = 12						; size = 4
??$_Allocate@VioComplexStringPrinter@@@std@@YAPAVioComplexStringPrinter@@IPAV1@@Z PROC ; std::_Allocate<ioComplexStringPrinter>, COMDAT

; 30   : 	{	// allocate storage for _Count elements of type _Ty

  00000	55		 push	 ebp
  00001	8b ec		 mov	 ebp, esp

; 31   : 	void *_Ptr = 0;
; 32   : 
; 33   : 	if (_Count <= 0)

  00003	8b 4d 08	 mov	 ecx, DWORD PTR __Count$[ebp]
  00006	83 ec 0c	 sub	 esp, 12			; 0000000cH
  00009	33 c0		 xor	 eax, eax
  0000b	85 c9		 test	 ecx, ecx

; 34   : 		_Count = 0;
; 35   : 	else if (((_SIZT)(-1) / sizeof (_Ty) < _Count)

  0000d	74 3c		 je	 SHORT $LN5@Allocate

; 36   : 		|| (_Ptr = ::operator new(_Count * sizeof (_Ty))) == 0)

  0000f	81 f9 ff ff ff
	07		 cmp	 ecx, 134217727		; 07ffffffH
  00015	77 0e		 ja	 SHORT $LN1@Allocate
  00017	c1 e1 05	 shl	 ecx, 5
  0001a	51		 push	 ecx
  0001b	e8 00 00 00 00	 call	 ??2@YAPAXI@Z		; operator new
  00020	59		 pop	 ecx
  00021	85 c0		 test	 eax, eax

; 38   : 
; 39   : 	return ((_Ty _FARQ *)_Ptr);

  00023	75 26		 jne	 SHORT $LN5@Allocate
$LN1@Allocate:

; 37   : 		_THROW_NCEE(bad_alloc, 0);

  00025	83 65 08 00	 and	 DWORD PTR $T538527[ebp], 0
  00029	8d 45 08	 lea	 eax, DWORD PTR $T538527[ebp]
  0002c	50		 push	 eax
  0002d	8d 4d f4	 lea	 ecx, DWORD PTR $T538522[ebp]
  00030	ff 15 00 00 00
	00		 call	 DWORD PTR __imp_??0exception@std@@QAE@ABQBD@Z
  00036	68 00 00 00 00	 push	 OFFSET __TI2?AVbad_alloc@std@@
  0003b	8d 45 f4	 lea	 eax, DWORD PTR $T538522[ebp]
  0003e	50		 push	 eax
  0003f	c7 45 f4 00 00
	00 00		 mov	 DWORD PTR $T538522[ebp], OFFSET ??_7bad_alloc@std@@6B@
  00046	e8 00 00 00 00	 call	 __CxxThrowException@8
$LN10@Allocate:
$LN5@Allocate:

; 40   : 	}

  0004b	c9		 leave
  0004c	c3		 ret	 0
$LN9@Allocate:
??$_Allocate@VioComplexStringPrinter@@@std@@YAPAVioComplexStringPrinter@@IPAV1@@Z ENDP ; std::_Allocate<ioComplexStringPrinter>
_TEXT	ENDS
PUBLIC	??$forward@AAVioComplexStringPrinter@@@std@@YAAAVioComplexStringPrinter@@AAV1@@Z ; std::forward<ioComplexStringPrinter &>
; Function compile flags: /Ogsp
; File c:\program files (x86)\microsoft visual studio 10.0\vc\include\utility
;	COMDAT ??$forward@AAVioComplexStringPrinter@@@std@@YAAAVioComplexStringPrinter@@AAV1@@Z
_TEXT	SEGMENT
__Arg$ = 8						; size = 4
??$forward@AAVioComplexStringPrinter@@@std@@YAAAVioComplexStringPrinter@@AAV1@@Z PROC ; std::forward<ioComplexStringPrinter &>, COMDAT

; 78   : 	{	// forward _Arg, given explicitly specified type parameter

  00000	55		 push	 ebp
  00001	8b ec		 mov	 ebp, esp

; 79   : 	return ((_Ty&&)_Arg);

  00003	8b 45 08	 mov	 eax, DWORD PTR __Arg$[ebp]

; 80   : 	}

  00006	5d		 pop	 ebp
  00007	c3		 ret	 0
??$forward@AAVioComplexStringPrinter@@@std@@YAAAVioComplexStringPrinter@@AAV1@@Z ENDP ; std::forward<ioComplexStringPrinter &>
_TEXT	ENDS
PUBLIC	??$forward@ABVioComplexStringPrinter@@@std@@YAABVioComplexStringPrinter@@ABV1@@Z ; std::forward<ioComplexStringPrinter const &>
; Function compile flags: /Ogsp
;	COMDAT ??$forward@ABVioComplexStringPrinter@@@std@@YAABVioComplexStringPrinter@@ABV1@@Z
_TEXT	SEGMENT
__Arg$ = 8						; size = 4
??$forward@ABVioComplexStringPrinter@@@std@@YAABVioComplexStringPrinter@@ABV1@@Z PROC ; std::forward<ioComplexStringPrinter const &>, COMDAT

; 78   : 	{	// forward _Arg, given explicitly specified type parameter

  00000	55		 push	 ebp
  00001	8b ec		 mov	 ebp, esp

; 79   : 	return ((_Ty&&)_Arg);

  00003	8b 45 08	 mov	 eax, DWORD PTR __Arg$[ebp]

; 80   : 	}

  00006	5d		 pop	 ebp
  00007	c3		 ret	 0
??$forward@ABVioComplexStringPrinter@@@std@@YAABVioComplexStringPrinter@@ABV1@@Z ENDP ; std::forward<ioComplexStringPrinter const &>
_TEXT	ENDS
PUBLIC	??$_Ptr_cat@VioComplexStringPrinter@@V1@@std@@YA?AU_Nonscalar_ptr_iterator_tag@0@PAVioComplexStringPrinter@@0@Z ; std::_Ptr_cat<ioComplexStringPrinter,ioComplexStringPrinter>
; Function compile flags: /Ogsp
; File c:\program files (x86)\microsoft visual studio 10.0\vc\include\xutility
;	COMDAT ??$_Ptr_cat@VioComplexStringPrinter@@V1@@std@@YA?AU_Nonscalar_ptr_iterator_tag@0@PAVioComplexStringPrinter@@0@Z
_TEXT	SEGMENT
__Cat$ = -1						; size = 1
___formal$ = 8						; size = 4
___formal$ = 12						; size = 4
??$_Ptr_cat@VioComplexStringPrinter@@V1@@std@@YA?AU_Nonscalar_ptr_iterator_tag@0@PAVioComplexStringPrinter@@0@Z PROC ; std::_Ptr_cat<ioComplexStringPrinter,ioComplexStringPrinter>, COMDAT

; 516  : 	{	// return pointer category from pointers

  00000	55		 push	 ebp
  00001	8b ec		 mov	 ebp, esp
  00003	51		 push	 ecx

; 517  : 	typename _Ptr_cat_helper<_Elem1, _Elem2>::_Type _Cat;
; 518  : 	return (_Cat);

  00004	8a 45 ff	 mov	 al, BYTE PTR __Cat$[ebp]

; 519  : 	}

  00007	c9		 leave
  00008	c3		 ret	 0
??$_Ptr_cat@VioComplexStringPrinter@@V1@@std@@YA?AU_Nonscalar_ptr_iterator_tag@0@PAVioComplexStringPrinter@@0@Z ENDP ; std::_Ptr_cat<ioComplexStringPrinter,ioComplexStringPrinter>
_TEXT	ENDS
PUBLIC	?size@?$vector@UtagTextPiece@ioComplexStringPrinter@@V?$allocator@UtagTextPiece@ioComplexStringPrinter@@@std@@@std@@QBEIXZ ; std::vector<ioComplexStringPrinter::tagTextPiece,std::allocator<ioComplexStringPrinter::tagTextPiece> >::size
; Function compile flags: /Ogsp
; File c:\program files (x86)\microsoft visual studio 10.0\vc\include\vector
;	COMDAT ?size@?$vector@UtagTextPiece@ioComplexStringPrinter@@V?$allocator@UtagTextPiece@ioComplexStringPrinter@@@std@@@std@@QBEIXZ
_TEXT	SEGMENT
?size@?$vector@UtagTextPiece@ioComplexStringPrinter@@V?$allocator@UtagTextPiece@ioComplexStringPrinter@@@std@@@std@@QBEIXZ PROC ; std::vector<ioComplexStringPrinter::tagTextPiece,std::allocator<ioComplexStringPrinter::tagTextPiece> >::size, COMDAT
; _this$ = ecx

; 879  : 		return (this->_Mylast - this->_Myfirst);

  00000	8b 41 04	 mov	 eax, DWORD PTR [ecx+4]
  00003	2b 01		 sub	 eax, DWORD PTR [ecx]
  00005	6a 34		 push	 52			; 00000034H
  00007	99		 cdq
  00008	59		 pop	 ecx
  00009	f7 f9		 idiv	 ecx

; 880  : 		}

  0000b	c3		 ret	 0
?size@?$vector@UtagTextPiece@ioComplexStringPrinter@@V?$allocator@UtagTextPiece@ioComplexStringPrinter@@@std@@@std@@QBEIXZ ENDP ; std::vector<ioComplexStringPrinter::tagTextPiece,std::allocator<ioComplexStringPrinter::tagTextPiece> >::size
_TEXT	ENDS
PUBLIC	??1?$_Vector_val@UtagTextPiece@ioComplexStringPrinter@@V?$allocator@UtagTextPiece@ioComplexStringPrinter@@@std@@@std@@QAE@XZ ; std::_Vector_val<ioComplexStringPrinter::tagTextPiece,std::allocator<ioComplexStringPrinter::tagTextPiece> >::~_Vector_val<ioComplexStringPrinter::tagTextPiece,std::allocator<ioComplexStringPrinter::tagTextPiece> >
; Function compile flags: /Ogsp
;	COMDAT ??1?$_Vector_val@UtagTextPiece@ioComplexStringPrinter@@V?$allocator@UtagTextPiece@ioComplexStringPrinter@@@std@@@std@@QAE@XZ
_TEXT	SEGMENT
??1?$_Vector_val@UtagTextPiece@ioComplexStringPrinter@@V?$allocator@UtagTextPiece@ioComplexStringPrinter@@@std@@@std@@QAE@XZ PROC ; std::_Vector_val<ioComplexStringPrinter::tagTextPiece,std::allocator<ioComplexStringPrinter::tagTextPiece> >::~_Vector_val<ioComplexStringPrinter::tagTextPiece,std::allocator<ioComplexStringPrinter::tagTextPiece> >, COMDAT
; _this$ = ecx

; 434  : 		}

  00000	c3		 ret	 0
??1?$_Vector_val@UtagTextPiece@ioComplexStringPrinter@@V?$allocator@UtagTextPiece@ioComplexStringPrinter@@@std@@@std@@QAE@XZ ENDP ; std::_Vector_val<ioComplexStringPrinter::tagTextPiece,std::allocator<ioComplexStringPrinter::tagTextPiece> >::~_Vector_val<ioComplexStringPrinter::tagTextPiece,std::allocator<ioComplexStringPrinter::tagTextPiece> >
_TEXT	ENDS
PUBLIC	??0?$allocator@UtagTextPiece@ioComplexStringPrinter@@@std@@QAE@ABV01@@Z ; std::allocator<ioComplexStringPrinter::tagTextPiece>::allocator<ioComplexStringPrinter::tagTextPiece>
; Function compile flags: /Ogsp
; File c:\program files (x86)\microsoft visual studio 10.0\vc\include\xmemory
;	COMDAT ??0?$allocator@UtagTextPiece@ioComplexStringPrinter@@@std@@QAE@ABV01@@Z
_TEXT	SEGMENT
___formal$ = 8						; size = 4
??0?$allocator@UtagTextPiece@ioComplexStringPrinter@@@std@@QAE@ABV01@@Z PROC ; std::allocator<ioComplexStringPrinter::tagTextPiece>::allocator<ioComplexStringPrinter::tagTextPiece>, COMDAT
; _this$ = ecx

; 165  : 	_ALLOCATOR(const _ALLOCATOR<_Ty>&) _THROW0()

  00000	8b c1		 mov	 eax, ecx

; 166  : 		{	// construct by copying (do nothing)
; 167  : 		}

  00002	c2 04 00	 ret	 4
??0?$allocator@UtagTextPiece@ioComplexStringPrinter@@@std@@QAE@ABV01@@Z ENDP ; std::allocator<ioComplexStringPrinter::tagTextPiece>::allocator<ioComplexStringPrinter::tagTextPiece>
_TEXT	ENDS
PUBLIC	?_Xlen@?$vector@UtagTextPiece@ioComplexStringPrinter@@V?$allocator@UtagTextPiece@ioComplexStringPrinter@@@std@@@std@@IBEXXZ ; std::vector<ioComplexStringPrinter::tagTextPiece,std::allocator<ioComplexStringPrinter::tagTextPiece> >::_Xlen
; Function compile flags: /Ogsp
; File c:\program files (x86)\microsoft visual studio 10.0\vc\include\vector
;	COMDAT ?_Xlen@?$vector@UtagTextPiece@ioComplexStringPrinter@@V?$allocator@UtagTextPiece@ioComplexStringPrinter@@@std@@@std@@IBEXXZ
_TEXT	SEGMENT
?_Xlen@?$vector@UtagTextPiece@ioComplexStringPrinter@@V?$allocator@UtagTextPiece@ioComplexStringPrinter@@@std@@@std@@IBEXXZ PROC ; std::vector<ioComplexStringPrinter::tagTextPiece,std::allocator<ioComplexStringPrinter::tagTextPiece> >::_Xlen, COMDAT
; _this$ = ecx

; 1427 : 		_Xlength_error("vector<T> too long");

  00000	68 00 00 00 00	 push	 OFFSET ??_C@_0BD@OLBABOEK@vector?$DMT?$DO?5too?5long?$AA@
  00005	ff 15 00 00 00
	00		 call	 DWORD PTR __imp_?_Xlength_error@std@@YAXPBD@Z
$LN4@Xlen@2:
$LN3@Xlen@2:
  0000b	cc		 int	 3
?_Xlen@?$vector@UtagTextPiece@ioComplexStringPrinter@@V?$allocator@UtagTextPiece@ioComplexStringPrinter@@@std@@@std@@IBEXXZ ENDP ; std::vector<ioComplexStringPrinter::tagTextPiece,std::allocator<ioComplexStringPrinter::tagTextPiece> >::_Xlen
_TEXT	ENDS
PUBLIC	?deallocate@?$allocator@UtagTextPiece@ioComplexStringPrinter@@@std@@QAEXPAUtagTextPiece@ioComplexStringPrinter@@I@Z ; std::allocator<ioComplexStringPrinter::tagTextPiece>::deallocate
; Function compile flags: /Ogsp
; File c:\program files (x86)\microsoft visual studio 10.0\vc\include\xmemory
;	COMDAT ?deallocate@?$allocator@UtagTextPiece@ioComplexStringPrinter@@@std@@QAEXPAUtagTextPiece@ioComplexStringPrinter@@I@Z
_TEXT	SEGMENT
__Ptr$ = 8						; size = 4
___formal$ = 12						; size = 4
?deallocate@?$allocator@UtagTextPiece@ioComplexStringPrinter@@@std@@QAEXPAUtagTextPiece@ioComplexStringPrinter@@I@Z PROC ; std::allocator<ioComplexStringPrinter::tagTextPiece>::deallocate, COMDAT
; _this$ = ecx

; 181  : 		{	// deallocate object at _Ptr, ignore size

  00000	55		 push	 ebp
  00001	8b ec		 mov	 ebp, esp

; 182  : 		::operator delete(_Ptr);

  00003	ff 75 08	 push	 DWORD PTR __Ptr$[ebp]
  00006	e8 00 00 00 00	 call	 ??3@YAXPAX@Z		; operator delete
  0000b	59		 pop	 ecx

; 183  : 		}

  0000c	5d		 pop	 ebp
  0000d	c2 08 00	 ret	 8
?deallocate@?$allocator@UtagTextPiece@ioComplexStringPrinter@@@std@@QAEXPAUtagTextPiece@ioComplexStringPrinter@@I@Z ENDP ; std::allocator<ioComplexStringPrinter::tagTextPiece>::deallocate
_TEXT	ENDS
PUBLIC	??0?$_Vector_const_iterator@V?$_Vector_val@UtagTextPiece@ioComplexStringPrinter@@V?$allocator@UtagTextPiece@ioComplexStringPrinter@@@std@@@std@@@std@@QAE@PAUtagTextPiece@ioComplexStringPrinter@@PBU_Container_base0@1@@Z ; std::_Vector_const_iterator<std::_Vector_val<ioComplexStringPrinter::tagTextPiece,std::allocator<ioComplexStringPrinter::tagTextPiece> > >::_Vector_const_iterator<std::_Vector_val<ioComplexStringPrinter::tagTextPiece,std::allocator<ioComplexStringPrinter::tagTextPiece> > >
; Function compile flags: /Ogsp
; File c:\program files (x86)\microsoft visual studio 10.0\vc\include\vector
;	COMDAT ??0?$_Vector_const_iterator@V?$_Vector_val@UtagTextPiece@ioComplexStringPrinter@@V?$allocator@UtagTextPiece@ioComplexStringPrinter@@@std@@@std@@@std@@QAE@PAUtagTextPiece@ioComplexStringPrinter@@PBU_Container_base0@1@@Z
_TEXT	SEGMENT
__Parg$ = 8						; size = 4
__Pvector$ = 12						; size = 4
??0?$_Vector_const_iterator@V?$_Vector_val@UtagTextPiece@ioComplexStringPrinter@@V?$allocator@UtagTextPiece@ioComplexStringPrinter@@@std@@@std@@@std@@QAE@PAUtagTextPiece@ioComplexStringPrinter@@PBU_Container_base0@1@@Z PROC ; std::_Vector_const_iterator<std::_Vector_val<ioComplexStringPrinter::tagTextPiece,std::allocator<ioComplexStringPrinter::tagTextPiece> > >::_Vector_const_iterator<std::_Vector_val<ioComplexStringPrinter::tagTextPiece,std::allocator<ioComplexStringPrinter::tagTextPiece> > >, COMDAT
; _this$ = ecx

; 45   : 		{	// construct with pointer _Parg

  00000	55		 push	 ebp
  00001	8b ec		 mov	 ebp, esp
  00003	8b c1		 mov	 eax, ecx
  00005	8b 4d 08	 mov	 ecx, DWORD PTR __Parg$[ebp]
  00008	89 08		 mov	 DWORD PTR [eax], ecx

; 46   : 		this->_Adopt(_Pvector);
; 47   : 		}

  0000a	5d		 pop	 ebp
  0000b	c2 08 00	 ret	 8
??0?$_Vector_const_iterator@V?$_Vector_val@UtagTextPiece@ioComplexStringPrinter@@V?$allocator@UtagTextPiece@ioComplexStringPrinter@@@std@@@std@@@std@@QAE@PAUtagTextPiece@ioComplexStringPrinter@@PBU_Container_base0@1@@Z ENDP ; std::_Vector_const_iterator<std::_Vector_val<ioComplexStringPrinter::tagTextPiece,std::allocator<ioComplexStringPrinter::tagTextPiece> > >::_Vector_const_iterator<std::_Vector_val<ioComplexStringPrinter::tagTextPiece,std::allocator<ioComplexStringPrinter::tagTextPiece> > >
_TEXT	ENDS
PUBLIC	?max_size@?$allocator@UtagTextPiece@ioComplexStringPrinter@@@std@@QBEIXZ ; std::allocator<ioComplexStringPrinter::tagTextPiece>::max_size
; Function compile flags: /Ogsp
; File c:\program files (x86)\microsoft visual studio 10.0\vc\include\xmemory
;	COMDAT ?max_size@?$allocator@UtagTextPiece@ioComplexStringPrinter@@@std@@QBEIXZ
_TEXT	SEGMENT
?max_size@?$allocator@UtagTextPiece@ioComplexStringPrinter@@@std@@QBEIXZ PROC ; std::allocator<ioComplexStringPrinter::tagTextPiece>::max_size, COMDAT
; _this$ = ecx

; 218  : 		_SIZT _Count = (_SIZT)(-1) / sizeof (_Ty);
; 219  : 		return (0 < _Count ? _Count : 1);

  00000	b8 c4 4e ec 04	 mov	 eax, 82595524		; 04ec4ec4H

; 220  : 		}

  00005	c3		 ret	 0
?max_size@?$allocator@UtagTextPiece@ioComplexStringPrinter@@@std@@QBEIXZ ENDP ; std::allocator<ioComplexStringPrinter::tagTextPiece>::max_size
_TEXT	ENDS
PUBLIC	??$_Val_type@PAVioComplexStringPrinter@@@std@@YAPAVioComplexStringPrinter@@PAV1@@Z ; std::_Val_type<ioComplexStringPrinter *>
; Function compile flags: /Ogsp
; File c:\program files (x86)\microsoft visual studio 10.0\vc\include\xutility
;	COMDAT ??$_Val_type@PAVioComplexStringPrinter@@@std@@YAPAVioComplexStringPrinter@@PAV1@@Z
_TEXT	SEGMENT
___formal$ = 8						; size = 4
??$_Val_type@PAVioComplexStringPrinter@@@std@@YAPAVioComplexStringPrinter@@PAV1@@Z PROC ; std::_Val_type<ioComplexStringPrinter *>, COMDAT

; 790  : 	return (0);

  00000	33 c0		 xor	 eax, eax

; 791  : 	}

  00002	c3		 ret	 0
??$_Val_type@PAVioComplexStringPrinter@@@std@@YAPAVioComplexStringPrinter@@PAV1@@Z ENDP ; std::_Val_type<ioComplexStringPrinter *>
_TEXT	ENDS
PUBLIC	??$_Allocate@UtagTextPiece@ioComplexStringPrinter@@@std@@YAPAUtagTextPiece@ioComplexStringPrinter@@IPAU12@@Z ; std::_Allocate<ioComplexStringPrinter::tagTextPiece>
; Function compile flags: /Ogsp
; File c:\program files (x86)\microsoft visual studio 10.0\vc\include\xmemory
;	COMDAT ??$_Allocate@UtagTextPiece@ioComplexStringPrinter@@@std@@YAPAUtagTextPiece@ioComplexStringPrinter@@IPAU12@@Z
_TEXT	SEGMENT
$T538567 = -12						; size = 12
$T538571 = 8						; size = 4
__Count$ = 8						; size = 4
___formal$ = 12						; size = 4
??$_Allocate@UtagTextPiece@ioComplexStringPrinter@@@std@@YAPAUtagTextPiece@ioComplexStringPrinter@@IPAU12@@Z PROC ; std::_Allocate<ioComplexStringPrinter::tagTextPiece>, COMDAT

; 30   : 	{	// allocate storage for _Count elements of type _Ty

  00000	55		 push	 ebp
  00001	8b ec		 mov	 ebp, esp

; 31   : 	void *_Ptr = 0;
; 32   : 
; 33   : 	if (_Count <= 0)

  00003	8b 4d 08	 mov	 ecx, DWORD PTR __Count$[ebp]
  00006	83 ec 0c	 sub	 esp, 12			; 0000000cH
  00009	33 c0		 xor	 eax, eax
  0000b	85 c9		 test	 ecx, ecx

; 34   : 		_Count = 0;
; 35   : 	else if (((_SIZT)(-1) / sizeof (_Ty) < _Count)

  0000d	74 3c		 je	 SHORT $LN5@Allocate@2

; 36   : 		|| (_Ptr = ::operator new(_Count * sizeof (_Ty))) == 0)

  0000f	81 f9 c4 4e ec
	04		 cmp	 ecx, 82595524		; 04ec4ec4H
  00015	77 0e		 ja	 SHORT $LN1@Allocate@2
  00017	6b c9 34	 imul	 ecx, 52			; 00000034H
  0001a	51		 push	 ecx
  0001b	e8 00 00 00 00	 call	 ??2@YAPAXI@Z		; operator new
  00020	59		 pop	 ecx
  00021	85 c0		 test	 eax, eax

; 38   : 
; 39   : 	return ((_Ty _FARQ *)_Ptr);

  00023	75 26		 jne	 SHORT $LN5@Allocate@2
$LN1@Allocate@2:

; 37   : 		_THROW_NCEE(bad_alloc, 0);

  00025	83 65 08 00	 and	 DWORD PTR $T538571[ebp], 0
  00029	8d 45 08	 lea	 eax, DWORD PTR $T538571[ebp]
  0002c	50		 push	 eax
  0002d	8d 4d f4	 lea	 ecx, DWORD PTR $T538567[ebp]
  00030	ff 15 00 00 00
	00		 call	 DWORD PTR __imp_??0exception@std@@QAE@ABQBD@Z
  00036	68 00 00 00 00	 push	 OFFSET __TI2?AVbad_alloc@std@@
  0003b	8d 45 f4	 lea	 eax, DWORD PTR $T538567[ebp]
  0003e	50		 push	 eax
  0003f	c7 45 f4 00 00
	00 00		 mov	 DWORD PTR $T538567[ebp], OFFSET ??_7bad_alloc@std@@6B@
  00046	e8 00 00 00 00	 call	 __CxxThrowException@8
$LN10@Allocate@2:
$LN5@Allocate@2:

; 40   : 	}

  0004b	c9		 leave
  0004c	c3		 ret	 0
$LN9@Allocate@2:
??$_Allocate@UtagTextPiece@ioComplexStringPrinter@@@std@@YAPAUtagTextPiece@ioComplexStringPrinter@@IPAU12@@Z ENDP ; std::_Allocate<ioComplexStringPrinter::tagTextPiece>
_TEXT	ENDS
PUBLIC	??$_Ptr_cat@UtagTextPiece@ioComplexStringPrinter@@U12@@std@@YA?AU_Nonscalar_ptr_iterator_tag@0@PAUtagTextPiece@ioComplexStringPrinter@@0@Z ; std::_Ptr_cat<ioComplexStringPrinter::tagTextPiece,ioComplexStringPrinter::tagTextPiece>
; Function compile flags: /Ogsp
; File c:\program files (x86)\microsoft visual studio 10.0\vc\include\xutility
;	COMDAT ??$_Ptr_cat@UtagTextPiece@ioComplexStringPrinter@@U12@@std@@YA?AU_Nonscalar_ptr_iterator_tag@0@PAUtagTextPiece@ioComplexStringPrinter@@0@Z
_TEXT	SEGMENT
__Cat$ = -1						; size = 1
___formal$ = 8						; size = 4
___formal$ = 12						; size = 4
??$_Ptr_cat@UtagTextPiece@ioComplexStringPrinter@@U12@@std@@YA?AU_Nonscalar_ptr_iterator_tag@0@PAUtagTextPiece@ioComplexStringPrinter@@0@Z PROC ; std::_Ptr_cat<ioComplexStringPrinter::tagTextPiece,ioComplexStringPrinter::tagTextPiece>, COMDAT

; 516  : 	{	// return pointer category from pointers

  00000	55		 push	 ebp
  00001	8b ec		 mov	 ebp, esp
  00003	51		 push	 ecx

; 517  : 	typename _Ptr_cat_helper<_Elem1, _Elem2>::_Type _Cat;
; 518  : 	return (_Cat);

  00004	8a 45 ff	 mov	 al, BYTE PTR __Cat$[ebp]

; 519  : 	}

  00007	c9		 leave
  00008	c3		 ret	 0
??$_Ptr_cat@UtagTextPiece@ioComplexStringPrinter@@U12@@std@@YA?AU_Nonscalar_ptr_iterator_tag@0@PAUtagTextPiece@ioComplexStringPrinter@@0@Z ENDP ; std::_Ptr_cat<ioComplexStringPrinter::tagTextPiece,ioComplexStringPrinter::tagTextPiece>
_TEXT	ENDS
PUBLIC	??_GioComplexStringPrinter@@QAEPAXI@Z		; ioComplexStringPrinter::`scalar deleting destructor'
EXTRN	??1ioComplexStringPrinter@@QAE@XZ:PROC		; ioComplexStringPrinter::~ioComplexStringPrinter
; Function compile flags: /Ogsp
;	COMDAT ??_GioComplexStringPrinter@@QAEPAXI@Z
_TEXT	SEGMENT
___flags$ = 8						; size = 4
??_GioComplexStringPrinter@@QAEPAXI@Z PROC		; ioComplexStringPrinter::`scalar deleting destructor', COMDAT
; _this$ = ecx
  00000	55		 push	 ebp
  00001	8b ec		 mov	 ebp, esp
  00003	56		 push	 esi
  00004	8b f1		 mov	 esi, ecx
  00006	e8 00 00 00 00	 call	 ??1ioComplexStringPrinter@@QAE@XZ ; ioComplexStringPrinter::~ioComplexStringPrinter
  0000b	f6 45 08 01	 test	 BYTE PTR ___flags$[ebp], 1
  0000f	74 07		 je	 SHORT $LN1@scalar@2
  00011	56		 push	 esi
  00012	e8 00 00 00 00	 call	 ??3@YAXPAX@Z		; operator delete
  00017	59		 pop	 ecx
$LN1@scalar@2:
  00018	8b c6		 mov	 eax, esi
  0001a	5e		 pop	 esi
  0001b	5d		 pop	 ebp
  0001c	c2 04 00	 ret	 4
??_GioComplexStringPrinter@@QAEPAXI@Z ENDP		; ioComplexStringPrinter::`scalar deleting destructor'
_TEXT	ENDS
PUBLIC	??$forward@VioComplexStringPrinter@@@std@@YA$$QAVioComplexStringPrinter@@AAV1@@Z ; std::forward<ioComplexStringPrinter>
; Function compile flags: /Ogsp
; File c:\program files (x86)\microsoft visual studio 10.0\vc\include\utility
;	COMDAT ??$forward@VioComplexStringPrinter@@@std@@YA$$QAVioComplexStringPrinter@@AAV1@@Z
_TEXT	SEGMENT
__Arg$ = 8						; size = 4
??$forward@VioComplexStringPrinter@@@std@@YA$$QAVioComplexStringPrinter@@AAV1@@Z PROC ; std::forward<ioComplexStringPrinter>, COMDAT

; 78   : 	{	// forward _Arg, given explicitly specified type parameter

  00000	55		 push	 ebp
  00001	8b ec		 mov	 ebp, esp

; 79   : 	return ((_Ty&&)_Arg);

  00003	8b 45 08	 mov	 eax, DWORD PTR __Arg$[ebp]

; 80   : 	}

  00006	5d		 pop	 ebp
  00007	c3		 ret	 0
??$forward@VioComplexStringPrinter@@@std@@YA$$QAVioComplexStringPrinter@@AAV1@@Z ENDP ; std::forward<ioComplexStringPrinter>
_TEXT	ENDS
PUBLIC	??$_Ptr_cat@V?$_Vector_const_iterator@V?$_Vector_val@UtagTextPiece@ioComplexStringPrinter@@V?$allocator@UtagTextPiece@ioComplexStringPrinter@@@std@@@std@@@std@@PAUtagTextPiece@ioComplexStringPrinter@@@std@@YA?AU_Nonscalar_ptr_iterator_tag@0@AAV?$_Vector_const_iterator@V?$_Vector_val@UtagTextPiece@ioComplexStringPrinter@@V?$allocator@UtagTextPiece@ioComplexStringPrinter@@@std@@@std@@@0@AAPAUtagTextPiece@ioComplexStringPrinter@@@Z ; std::_Ptr_cat<std::_Vector_const_iterator<std::_Vector_val<ioComplexStringPrinter::tagTextPiece,std::allocator<ioComplexStringPrinter::tagTextPiece> > >,ioComplexStringPrinter::tagTextPiece *>
; Function compile flags: /Ogsp
; File c:\program files (x86)\microsoft visual studio 10.0\vc\include\xutility
;	COMDAT ??$_Ptr_cat@V?$_Vector_const_iterator@V?$_Vector_val@UtagTextPiece@ioComplexStringPrinter@@V?$allocator@UtagTextPiece@ioComplexStringPrinter@@@std@@@std@@@std@@PAUtagTextPiece@ioComplexStringPrinter@@@std@@YA?AU_Nonscalar_ptr_iterator_tag@0@AAV?$_Vector_const_iterator@V?$_Vector_val@UtagTextPiece@ioComplexStringPrinter@@V?$allocator@UtagTextPiece@ioComplexStringPrinter@@@std@@@std@@@0@AAPAUtagTextPiece@ioComplexStringPrinter@@@Z
_TEXT	SEGMENT
__Cat$ = -1						; size = 1
___formal$ = 8						; size = 4
___formal$ = 12						; size = 4
??$_Ptr_cat@V?$_Vector_const_iterator@V?$_Vector_val@UtagTextPiece@ioComplexStringPrinter@@V?$allocator@UtagTextPiece@ioComplexStringPrinter@@@std@@@std@@@std@@PAUtagTextPiece@ioComplexStringPrinter@@@std@@YA?AU_Nonscalar_ptr_iterator_tag@0@AAV?$_Vector_const_iterator@V?$_Vector_val@UtagTextPiece@ioComplexStringPrinter@@V?$allocator@UtagTextPiece@ioComplexStringPrinter@@@std@@@std@@@0@AAPAUtagTextPiece@ioComplexStringPrinter@@@Z PROC ; std::_Ptr_cat<std::_Vector_const_iterator<std::_Vector_val<ioComplexStringPrinter::tagTextPiece,std::allocator<ioComplexStringPrinter::tagTextPiece> > >,ioComplexStringPrinter::tagTextPiece *>, COMDAT

; 485  : 	{	// return pointer category from arbitrary arguments

  00000	55		 push	 ebp
  00001	8b ec		 mov	 ebp, esp
  00003	51		 push	 ecx

; 486  : 	_Nonscalar_ptr_iterator_tag _Cat;
; 487  : 	return (_Cat);

  00004	8a 45 ff	 mov	 al, BYTE PTR __Cat$[ebp]

; 488  : 	}

  00007	c9		 leave
  00008	c3		 ret	 0
??$_Ptr_cat@V?$_Vector_const_iterator@V?$_Vector_val@UtagTextPiece@ioComplexStringPrinter@@V?$allocator@UtagTextPiece@ioComplexStringPrinter@@@std@@@std@@@std@@PAUtagTextPiece@ioComplexStringPrinter@@@std@@YA?AU_Nonscalar_ptr_iterator_tag@0@AAV?$_Vector_const_iterator@V?$_Vector_val@UtagTextPiece@ioComplexStringPrinter@@V?$allocator@UtagTextPiece@ioComplexStringPrinter@@@std@@@std@@@0@AAPAUtagTextPiece@ioComplexStringPrinter@@@Z ENDP ; std::_Ptr_cat<std::_Vector_const_iterator<std::_Vector_val<ioComplexStringPrinter::tagTextPiece,std::allocator<ioComplexStringPrinter::tagTextPiece> > >,ioComplexStringPrinter::tagTextPiece *>
_TEXT	ENDS
PUBLIC	??D?$_Vector_const_iterator@V?$_Vector_val@UtagTextPiece@ioComplexStringPrinter@@V?$allocator@UtagTextPiece@ioComplexStringPrinter@@@std@@@std@@@std@@QBEABUtagTextPiece@ioComplexStringPrinter@@XZ ; std::_Vector_const_iterator<std::_Vector_val<ioComplexStringPrinter::tagTextPiece,std::allocator<ioComplexStringPrinter::tagTextPiece> > >::operator*
; Function compile flags: /Ogsp
; File c:\program files (x86)\microsoft visual studio 10.0\vc\include\vector
;	COMDAT ??D?$_Vector_const_iterator@V?$_Vector_val@UtagTextPiece@ioComplexStringPrinter@@V?$allocator@UtagTextPiece@ioComplexStringPrinter@@@std@@@std@@@std@@QBEABUtagTextPiece@ioComplexStringPrinter@@XZ
_TEXT	SEGMENT
??D?$_Vector_const_iterator@V?$_Vector_val@UtagTextPiece@ioComplexStringPrinter@@V?$allocator@UtagTextPiece@ioComplexStringPrinter@@@std@@@std@@@std@@QBEABUtagTextPiece@ioComplexStringPrinter@@XZ PROC ; std::_Vector_const_iterator<std::_Vector_val<ioComplexStringPrinter::tagTextPiece,std::allocator<ioComplexStringPrinter::tagTextPiece> > >::operator*, COMDAT
; _this$ = ecx

; 64   :  #if _ITERATOR_DEBUG_LEVEL == 2
; 65   : 		if (this->_Getcont() == 0
; 66   : 			|| this->_Ptr == 0
; 67   : 			|| this->_Ptr < ((_Myvec *)this->_Getcont())->_Myfirst
; 68   : 			|| ((_Myvec *)this->_Getcont())->_Mylast <= this->_Ptr)
; 69   : 			{	// report error
; 70   : 			_DEBUG_ERROR("vector iterator not dereferencable");
; 71   : 			_SCL_SECURE_OUT_OF_RANGE;
; 72   : 			}
; 73   : 
; 74   :  #elif _ITERATOR_DEBUG_LEVEL == 1
; 75   : 		_SCL_SECURE_VALIDATE(this->_Getcont() != 0);
; 76   : 		_SCL_SECURE_VALIDATE_RANGE(
; 77   : 			this->_Ptr != 0
; 78   : 			&& ((_Myvec *)this->_Getcont())->_Myfirst <= this->_Ptr
; 79   : 			&& this->_Ptr < ((_Myvec *)this->_Getcont())->_Mylast);
; 80   :  #endif /* _ITERATOR_DEBUG_LEVEL */
; 81   : 
; 82   : 		__analysis_assume(this->_Ptr != 0);
; 83   : 
; 84   : 		return (*this->_Ptr);

  00000	8b 01		 mov	 eax, DWORD PTR [ecx]

; 85   : 		}

  00002	c3		 ret	 0
??D?$_Vector_const_iterator@V?$_Vector_val@UtagTextPiece@ioComplexStringPrinter@@V?$allocator@UtagTextPiece@ioComplexStringPrinter@@@std@@@std@@@std@@QBEABUtagTextPiece@ioComplexStringPrinter@@XZ ENDP ; std::_Vector_const_iterator<std::_Vector_val<ioComplexStringPrinter::tagTextPiece,std::allocator<ioComplexStringPrinter::tagTextPiece> > >::operator*
_TEXT	ENDS
PUBLIC	??E?$_Vector_const_iterator@V?$_Vector_val@UtagTextPiece@ioComplexStringPrinter@@V?$allocator@UtagTextPiece@ioComplexStringPrinter@@@std@@@std@@@std@@QAEAAV01@XZ ; std::_Vector_const_iterator<std::_Vector_val<ioComplexStringPrinter::tagTextPiece,std::allocator<ioComplexStringPrinter::tagTextPiece> > >::operator++
; Function compile flags: /Ogsp
;	COMDAT ??E?$_Vector_const_iterator@V?$_Vector_val@UtagTextPiece@ioComplexStringPrinter@@V?$allocator@UtagTextPiece@ioComplexStringPrinter@@@std@@@std@@@std@@QAEAAV01@XZ
_TEXT	SEGMENT
??E?$_Vector_const_iterator@V?$_Vector_val@UtagTextPiece@ioComplexStringPrinter@@V?$allocator@UtagTextPiece@ioComplexStringPrinter@@@std@@@std@@@std@@QAEAAV01@XZ PROC ; std::_Vector_const_iterator<std::_Vector_val<ioComplexStringPrinter::tagTextPiece,std::allocator<ioComplexStringPrinter::tagTextPiece> > >::operator++, COMDAT
; _this$ = ecx

; 93   : 		{	// preincrement

  00000	8b c1		 mov	 eax, ecx

; 94   :  #if _ITERATOR_DEBUG_LEVEL == 2
; 95   : 		if (this->_Getcont() == 0
; 96   : 			|| this->_Ptr == 0
; 97   : 			|| ((_Myvec *)this->_Getcont())->_Mylast <= this->_Ptr)
; 98   : 			{	// report error
; 99   : 			_DEBUG_ERROR("vector iterator not incrementable");
; 100  : 			_SCL_SECURE_OUT_OF_RANGE;
; 101  : 			}
; 102  : 
; 103  :  #elif _ITERATOR_DEBUG_LEVEL == 1
; 104  : 		_SCL_SECURE_VALIDATE(this->_Getcont() != 0);
; 105  : 		_SCL_SECURE_VALIDATE_RANGE(
; 106  : 			this->_Ptr != 0
; 107  : 			&& this->_Ptr < ((_Myvec *)this->_Getcont())->_Mylast);
; 108  :  #endif /* _ITERATOR_DEBUG_LEVEL */
; 109  : 
; 110  : 		++this->_Ptr;

  00002	83 00 34	 add	 DWORD PTR [eax], 52	; 00000034H

; 111  : 		return (*this);
; 112  : 		}

  00005	c3		 ret	 0
??E?$_Vector_const_iterator@V?$_Vector_val@UtagTextPiece@ioComplexStringPrinter@@V?$allocator@UtagTextPiece@ioComplexStringPrinter@@@std@@@std@@@std@@QAEAAV01@XZ ENDP ; std::_Vector_const_iterator<std::_Vector_val<ioComplexStringPrinter::tagTextPiece,std::allocator<ioComplexStringPrinter::tagTextPiece> > >::operator++
_TEXT	ENDS
PUBLIC	?_Compat@?$_Vector_const_iterator@V?$_Vector_val@UtagTextPiece@ioComplexStringPrinter@@V?$allocator@UtagTextPiece@ioComplexStringPrinter@@@std@@@std@@@std@@QBEXABV12@@Z ; std::_Vector_const_iterator<std::_Vector_val<ioComplexStringPrinter::tagTextPiece,std::allocator<ioComplexStringPrinter::tagTextPiece> > >::_Compat
; Function compile flags: /Ogsp
;	COMDAT ?_Compat@?$_Vector_const_iterator@V?$_Vector_val@UtagTextPiece@ioComplexStringPrinter@@V?$allocator@UtagTextPiece@ioComplexStringPrinter@@@std@@@std@@@std@@QBEXABV12@@Z
_TEXT	SEGMENT
___formal$ = 8						; size = 4
?_Compat@?$_Vector_const_iterator@V?$_Vector_val@UtagTextPiece@ioComplexStringPrinter@@V?$allocator@UtagTextPiece@ioComplexStringPrinter@@@std@@@std@@@std@@QBEXABV12@@Z PROC ; std::_Vector_const_iterator<std::_Vector_val<ioComplexStringPrinter::tagTextPiece,std::allocator<ioComplexStringPrinter::tagTextPiece> > >::_Compat, COMDAT
; _this$ = ecx

; 253  : 		}

  00000	c2 04 00	 ret	 4
?_Compat@?$_Vector_const_iterator@V?$_Vector_val@UtagTextPiece@ioComplexStringPrinter@@V?$allocator@UtagTextPiece@ioComplexStringPrinter@@@std@@@std@@@std@@QBEXABV12@@Z ENDP ; std::_Vector_const_iterator<std::_Vector_val<ioComplexStringPrinter::tagTextPiece,std::allocator<ioComplexStringPrinter::tagTextPiece> > >::_Compat
_TEXT	ENDS
PUBLIC	??$forward@ABUtagTextPiece@ioComplexStringPrinter@@@std@@YAABUtagTextPiece@ioComplexStringPrinter@@ABU12@@Z ; std::forward<ioComplexStringPrinter::tagTextPiece const &>
; Function compile flags: /Ogsp
; File c:\program files (x86)\microsoft visual studio 10.0\vc\include\utility
;	COMDAT ??$forward@ABUtagTextPiece@ioComplexStringPrinter@@@std@@YAABUtagTextPiece@ioComplexStringPrinter@@ABU12@@Z
_TEXT	SEGMENT
__Arg$ = 8						; size = 4
??$forward@ABUtagTextPiece@ioComplexStringPrinter@@@std@@YAABUtagTextPiece@ioComplexStringPrinter@@ABU12@@Z PROC ; std::forward<ioComplexStringPrinter::tagTextPiece const &>, COMDAT

; 78   : 	{	// forward _Arg, given explicitly specified type parameter

  00000	55		 push	 ebp
  00001	8b ec		 mov	 ebp, esp

; 79   : 	return ((_Ty&&)_Arg);

  00003	8b 45 08	 mov	 eax, DWORD PTR __Arg$[ebp]

; 80   : 	}

  00006	5d		 pop	 ebp
  00007	c3		 ret	 0
??$forward@ABUtagTextPiece@ioComplexStringPrinter@@@std@@YAABUtagTextPiece@ioComplexStringPrinter@@ABU12@@Z ENDP ; std::forward<ioComplexStringPrinter::tagTextPiece const &>
_TEXT	ENDS
PUBLIC	?_DECSTR@@YAXPADH@Z				; _DECSTR
; Function compile flags: /Ogsp
; File d:\lost saga for developer\youtube\tutorial\source\src\lsclient\stringprotect.h
;	COMDAT ?_DECSTR@@YAXPADH@Z
_TEXT	SEGMENT
_s$ = 8							; size = 4
_l$ = 12						; size = 4
?_DECSTR@@YAXPADH@Z PROC				; _DECSTR, COMDAT

; 40   : __forceinline void _DECSTR(char* s, int l){int i=0,l4=(l-1)/4,*p=(int*)s;s[l-1]=0;for(;i<l4;++i)*(p++)^=0xEAEBECED;for(i=l4*4;i<l-1;++i)s[i]^=0xED-i%4;}

  00000	55		 push	 ebp
  00001	8b ec		 mov	 ebp, esp
  00003	8b 4d 0c	 mov	 ecx, DWORD PTR _l$[ebp]
  00006	56		 push	 esi
  00007	8b 75 08	 mov	 esi, DWORD PTR _s$[ebp]
  0000a	57		 push	 edi
  0000b	8d 79 ff	 lea	 edi, DWORD PTR [ecx-1]
  0000e	8b c7		 mov	 eax, edi
  00010	99		 cdq
  00011	83 e2 03	 and	 edx, 3
  00014	03 c2		 add	 eax, edx
  00016	c1 f8 02	 sar	 eax, 2
  00019	8b d6		 mov	 edx, esi
  0001b	c6 44 0e ff 00	 mov	 BYTE PTR [esi+ecx-1], 0
  00020	85 c0		 test	 eax, eax
  00022	7e 0e		 jle	 SHORT $LN4@DECSTR
  00024	8b c8		 mov	 ecx, eax
$LL6@DECSTR:
  00026	81 32 ed ec eb
	ea		 xor	 DWORD PTR [edx], -353637139 ; eaebecedH
  0002c	83 c2 04	 add	 edx, 4
  0002f	49		 dec	 ecx
  00030	75 f4		 jne	 SHORT $LL6@DECSTR
$LN4@DECSTR:
  00032	c1 e0 02	 shl	 eax, 2
  00035	eb 17		 jmp	 SHORT $LN14@DECSTR
$LL3@DECSTR:
  00037	8b c8		 mov	 ecx, eax
  00039	81 e1 03 00 00
	80		 and	 ecx, -2147483645	; 80000003H
  0003f	79 05		 jns	 SHORT $LN13@DECSTR
  00041	49		 dec	 ecx
  00042	83 c9 fc	 or	 ecx, -4			; fffffffcH
  00045	41		 inc	 ecx
$LN13@DECSTR:
  00046	b2 ed		 mov	 dl, -19			; ffffffedH
  00048	2a d1		 sub	 dl, cl
  0004a	30 14 30	 xor	 BYTE PTR [eax+esi], dl
  0004d	40		 inc	 eax
$LN14@DECSTR:
  0004e	3b c7		 cmp	 eax, edi
  00050	7c e5		 jl	 SHORT $LL3@DECSTR
  00052	5f		 pop	 edi
  00053	5e		 pop	 esi
  00054	5d		 pop	 ebp
  00055	c3		 ret	 0
?_DECSTR@@YAXPADH@Z ENDP				; _DECSTR
_TEXT	ENDS
PUBLIC	?Init@tagAccessorySlot@@QAEXXZ			; tagAccessorySlot::Init
EXTRN	__imp_?Clear@ioHashString@@QAEXXZ:PROC
; Function compile flags: /Ogsp
; File d:\lost saga for developer\youtube\tutorial\source\src\lsclient\accessoryenumtype.h
;	COMDAT ?Init@tagAccessorySlot@@QAEXXZ
_TEXT	SEGMENT
?Init@tagAccessorySlot@@QAEXXZ PROC			; tagAccessorySlot::Init, COMDAT
; _this$ = ecx

; 216  : 		m_iAccessoryCode = 0;

  00000	33 c0		 xor	 eax, eax
  00002	56		 push	 esi
  00003	8b f1		 mov	 esi, ecx
  00005	57		 push	 edi

; 217  : 		m_iIndex = 0;
; 218  : 		m_iRandomNumber = 0;
; 219  : 
; 220  : 		m_PeriodType = ACCPT_TIME;
; 221  : 		m_iValue1 = 0;
; 222  : 		m_iValue2 = 0;
; 223  : 		m_dwMaleCustom = 0;
; 224  : 		m_dwFemaleCustom = 0;
; 225  : 
; 226  : 		m_bEquip = false;
; 227  : 		m_Name.Clear();

  00006	8b 3d 00 00 00
	00		 mov	 edi, DWORD PTR __imp_?Clear@ioHashString@@QAEXXZ
  0000c	8d 4e 24	 lea	 ecx, DWORD PTR [esi+36]
  0000f	89 06		 mov	 DWORD PTR [esi], eax
  00011	89 46 04	 mov	 DWORD PTR [esi+4], eax
  00014	89 46 08	 mov	 DWORD PTR [esi+8], eax
  00017	88 46 0c	 mov	 BYTE PTR [esi+12], al
  0001a	89 46 10	 mov	 DWORD PTR [esi+16], eax
  0001d	89 46 14	 mov	 DWORD PTR [esi+20], eax
  00020	89 46 18	 mov	 DWORD PTR [esi+24], eax
  00023	89 46 1c	 mov	 DWORD PTR [esi+28], eax
  00026	88 46 20	 mov	 BYTE PTR [esi+32], al
  00029	ff d7		 call	 edi

; 228  : 		m_IconName.Clear();

  0002b	8d 4e 34	 lea	 ecx, DWORD PTR [esi+52]
  0002e	ff d7		 call	 edi
  00030	5f		 pop	 edi
  00031	5e		 pop	 esi

; 229  : 	}

  00032	c3		 ret	 0
?Init@tagAccessorySlot@@QAEXXZ ENDP			; tagAccessorySlot::Init
_TEXT	ENDS
PUBLIC	?SetItemCreateIndex@ioItem@@QAEXH@Z		; ioItem::SetItemCreateIndex
; Function compile flags: /Ogsp
; File d:\lost saga for developer\youtube\tutorial\source\src\lsclient\ioitem.h
;	COMDAT ?SetItemCreateIndex@ioItem@@QAEXH@Z
_TEXT	SEGMENT
_dwIndex$ = 8						; size = 4
?SetItemCreateIndex@ioItem@@QAEXH@Z PROC		; ioItem::SetItemCreateIndex, COMDAT
; _this$ = ecx

; 254  : 	inline void SetItemCreateIndex( int dwIndex ) { m_iItemCreateIndex = dwIndex; }

  00000	55		 push	 ebp
  00001	8b ec		 mov	 ebp, esp
  00003	8b 45 08	 mov	 eax, DWORD PTR _dwIndex$[ebp]
  00006	89 41 3c	 mov	 DWORD PTR [ecx+60], eax
  00009	5d		 pop	 ebp
  0000a	c2 04 00	 ret	 4
?SetItemCreateIndex@ioItem@@QAEXH@Z ENDP		; ioItem::SetItemCreateIndex
_TEXT	ENDS
PUBLIC	?SetOwnerName@ioItem@@QAEXABVioHashString@@@Z	; ioItem::SetOwnerName
EXTRN	__imp_??4ioHashString@@QAEAAV0@ABV0@@Z:PROC
; Function compile flags: /Ogsp
;	COMDAT ?SetOwnerName@ioItem@@QAEXABVioHashString@@@Z
_TEXT	SEGMENT
_rkName$ = 8						; size = 4
?SetOwnerName@ioItem@@QAEXABVioHashString@@@Z PROC	; ioItem::SetOwnerName, COMDAT
; _this$ = ecx

; 255  : 	inline void SetOwnerName( const ioHashString &rkName ) { m_OwnerName = rkName; }

  00000	55		 push	 ebp
  00001	8b ec		 mov	 ebp, esp
  00003	81 c1 64 02 00
	00		 add	 ecx, 612		; 00000264H
  00009	5d		 pop	 ebp
  0000a	ff 25 00 00 00
	00		 jmp	 DWORD PTR __imp_??4ioHashString@@QAEAAV0@ABV0@@Z
?SetOwnerName@ioItem@@QAEXABVioHashString@@@Z ENDP	; ioItem::SetOwnerName
_TEXT	ENDS
PUBLIC	?GetGradeType@ioItem@@QBEHXZ			; ioItem::GetGradeType
; Function compile flags: /Ogsp
;	COMDAT ?GetGradeType@ioItem@@QBEHXZ
_TEXT	SEGMENT
?GetGradeType@ioItem@@QBEHXZ PROC			; ioItem::GetGradeType, COMDAT
; _this$ = ecx

; 445  : 	inline int GetGradeType() const { return m_nGradeType; }

  00000	8b 81 20 06 00
	00		 mov	 eax, DWORD PTR [ecx+1568]
  00006	c3		 ret	 0
?GetGradeType@ioItem@@QBEHXZ ENDP			; ioItem::GetGradeType
_TEXT	ENDS
PUBLIC	?SetAccessoryRandomNum@ioItem@@QAEXH@Z		; ioItem::SetAccessoryRandomNum
; Function compile flags: /Ogsp
;	COMDAT ?SetAccessoryRandomNum@ioItem@@QAEXH@Z
_TEXT	SEGMENT
_iNum$ = 8						; size = 4
?SetAccessoryRandomNum@ioItem@@QAEXH@Z PROC		; ioItem::SetAccessoryRandomNum, COMDAT
; _this$ = ecx

; 452  : 	void SetAccessoryRandomNum( int iNum ) { m_iAccessoryRandomNum = iNum; }

  00000	55		 push	 ebp
  00001	8b ec		 mov	 ebp, esp
  00003	8b 45 08	 mov	 eax, DWORD PTR _iNum$[ebp]
  00006	89 81 24 06 00
	00		 mov	 DWORD PTR [ecx+1572], eax
  0000c	5d		 pop	 ebp
  0000d	c2 04 00	 ret	 4
?SetAccessoryRandomNum@ioItem@@QAEXH@Z ENDP		; ioItem::SetAccessoryRandomNum
_TEXT	ENDS
PUBLIC	?GetPublicID@ioMyInfo@@QBEABVioHashString@@XZ	; ioMyInfo::GetPublicID
; Function compile flags: /Ogsp
; File d:\lost saga for developer\youtube\tutorial\source\src\lsclient\iomyinfo.h
;	COMDAT ?GetPublicID@ioMyInfo@@QBEABVioHashString@@XZ
_TEXT	SEGMENT
?GetPublicID@ioMyInfo@@QBEABVioHashString@@XZ PROC	; ioMyInfo::GetPublicID, COMDAT
; _this$ = ecx

; 517  : 	const ioHashString& GetPublicID() const { return m_user_data.m_public_id; }    

  00000	8d 41 1c	 lea	 eax, DWORD PTR [ecx+28]
  00003	c3		 ret	 0
?GetPublicID@ioMyInfo@@QBEABVioHashString@@XZ ENDP	; ioMyInfo::GetPublicID
_TEXT	ENDS
PUBLIC	?GetSelectCharArray@ioMyInfo@@QBEHXZ		; ioMyInfo::GetSelectCharArray
; Function compile flags: /Ogsp
;	COMDAT ?GetSelectCharArray@ioMyInfo@@QBEHXZ
_TEXT	SEGMENT
?GetSelectCharArray@ioMyInfo@@QBEHXZ PROC		; ioMyInfo::GetSelectCharArray, COMDAT
; _this$ = ecx

; 613  : 	int  GetSelectCharArray() const { return m_select_char_array; }

  00000	8b 81 c8 00 00
	00		 mov	 eax, DWORD PTR [ecx+200]
  00006	c3		 ret	 0
?GetSelectCharArray@ioMyInfo@@QBEHXZ ENDP		; ioMyInfo::GetSelectCharArray
_TEXT	ENDS
PUBLIC	?GetUserAccessory@ioMyInfo@@QAEPAVioUserAccessory@@XZ ; ioMyInfo::GetUserAccessory
; Function compile flags: /Ogsp
;	COMDAT ?GetUserAccessory@ioMyInfo@@QAEPAVioUserAccessory@@XZ
_TEXT	SEGMENT
?GetUserAccessory@ioMyInfo@@QAEPAVioUserAccessory@@XZ PROC ; ioMyInfo::GetUserAccessory, COMDAT
; _this$ = ecx

; 648  : 	ioUserAccessory* GetUserAccessory() { return &m_UserAccessory; }

  00000	8d 81 fc 02 00
	00		 lea	 eax, DWORD PTR [ecx+764]
  00006	c3		 ret	 0
?GetUserAccessory@ioMyInfo@@QAEPAVioUserAccessory@@XZ ENDP ; ioMyInfo::GetUserAccessory
_TEXT	ENDS
PUBLIC	?size@?$basic_string@DU?$char_traits@D@std@@V?$allocator@D@2@@std@@QBEIXZ ; std::basic_string<char,std::char_traits<char>,std::allocator<char> >::size
; Function compile flags: /Ogsp
; File c:\program files (x86)\microsoft visual studio 10.0\vc\include\xstring
;	COMDAT ?size@?$basic_string@DU?$char_traits@D@std@@V?$allocator@D@2@@std@@QBEIXZ
_TEXT	SEGMENT
?size@?$basic_string@DU?$char_traits@D@std@@V?$allocator@D@2@@std@@QBEIXZ PROC ; std::basic_string<char,std::char_traits<char>,std::allocator<char> >::size, COMDAT
; _this$ = ecx

; 1512 : 		return (this->_Mysize);

  00000	8b 41 10	 mov	 eax, DWORD PTR [ecx+16]

; 1513 : 		}

  00003	c3		 ret	 0
?size@?$basic_string@DU?$char_traits@D@std@@V?$allocator@D@2@@std@@QBEIXZ ENDP ; std::basic_string<char,std::char_traits<char>,std::allocator<char> >::size
_TEXT	ENDS
PUBLIC	?_Myptr@?$basic_string@DU?$char_traits@D@std@@V?$allocator@D@2@@std@@QBEPBDXZ ; std::basic_string<char,std::char_traits<char>,std::allocator<char> >::_Myptr
; Function compile flags: /Ogsp
;	COMDAT ?_Myptr@?$basic_string@DU?$char_traits@D@std@@V?$allocator@D@2@@std@@QBEPBDXZ
_TEXT	SEGMENT
?_Myptr@?$basic_string@DU?$char_traits@D@std@@V?$allocator@D@2@@std@@QBEPBDXZ PROC ; std::basic_string<char,std::char_traits<char>,std::allocator<char> >::_Myptr, COMDAT
; _this$ = ecx

; 2010 : 		return (this->_BUF_SIZE <= this->_Myres ? this->_Bx._Ptr
; 2011 : 			: this->_Bx._Buf);

  00000	83 79 14 10	 cmp	 DWORD PTR [ecx+20], 16	; 00000010H
  00004	72 03		 jb	 SHORT $LN3@Myptr
  00006	8b 01		 mov	 eax, DWORD PTR [ecx]

; 2012 : 		}

  00008	c3		 ret	 0
$LN3@Myptr:

; 2010 : 		return (this->_BUF_SIZE <= this->_Myres ? this->_Bx._Ptr
; 2011 : 			: this->_Bx._Buf);

  00009	8b c1		 mov	 eax, ecx

; 2012 : 		}

  0000b	c3		 ret	 0
?_Myptr@?$basic_string@DU?$char_traits@D@std@@V?$allocator@D@2@@std@@QBEPBDXZ ENDP ; std::basic_string<char,std::char_traits<char>,std::allocator<char> >::_Myptr
_TEXT	ENDS
PUBLIC	??1?$_String_val@DV?$allocator@D@std@@@std@@QAE@XZ ; std::_String_val<char,std::allocator<char> >::~_String_val<char,std::allocator<char> >
; Function compile flags: /Ogsp
;	COMDAT ??1?$_String_val@DV?$allocator@D@std@@@std@@QAE@XZ
_TEXT	SEGMENT
??1?$_String_val@DV?$allocator@D@std@@@std@@QAE@XZ PROC	; std::_String_val<char,std::allocator<char> >::~_String_val<char,std::allocator<char> >, COMDAT
; _this$ = ecx

; 459  : 		}

  00000	c3		 ret	 0
??1?$_String_val@DV?$allocator@D@std@@@std@@QAE@XZ ENDP	; std::_String_val<char,std::allocator<char> >::~_String_val<char,std::allocator<char> >
_TEXT	ENDS
PUBLIC	??0?$allocator@D@std@@QAE@ABV01@@Z		; std::allocator<char>::allocator<char>
; Function compile flags: /Ogsp
; File c:\program files (x86)\microsoft visual studio 10.0\vc\include\xmemory
;	COMDAT ??0?$allocator@D@std@@QAE@ABV01@@Z
_TEXT	SEGMENT
___formal$ = 8						; size = 4
??0?$allocator@D@std@@QAE@ABV01@@Z PROC			; std::allocator<char>::allocator<char>, COMDAT
; _this$ = ecx

; 165  : 	_ALLOCATOR(const _ALLOCATOR<_Ty>&) _THROW0()

  00000	8b c1		 mov	 eax, ecx

; 166  : 		{	// construct by copying (do nothing)
; 167  : 		}

  00002	c2 04 00	 ret	 4
??0?$allocator@D@std@@QAE@ABV01@@Z ENDP			; std::allocator<char>::allocator<char>
_TEXT	ENDS
PUBLIC	?_Myptr@?$basic_string@DU?$char_traits@D@std@@V?$allocator@D@2@@std@@QAEPADXZ ; std::basic_string<char,std::char_traits<char>,std::allocator<char> >::_Myptr
; Function compile flags: /Ogsp
; File c:\program files (x86)\microsoft visual studio 10.0\vc\include\xstring
;	COMDAT ?_Myptr@?$basic_string@DU?$char_traits@D@std@@V?$allocator@D@2@@std@@QAEPADXZ
_TEXT	SEGMENT
?_Myptr@?$basic_string@DU?$char_traits@D@std@@V?$allocator@D@2@@std@@QAEPADXZ PROC ; std::basic_string<char,std::char_traits<char>,std::allocator<char> >::_Myptr, COMDAT
; _this$ = ecx

; 2004 : 		return (this->_BUF_SIZE <= this->_Myres ? this->_Bx._Ptr
; 2005 : 			: this->_Bx._Buf);

  00000	83 79 14 10	 cmp	 DWORD PTR [ecx+20], 16	; 00000010H
  00004	72 03		 jb	 SHORT $LN3@Myptr@2
  00006	8b 01		 mov	 eax, DWORD PTR [ecx]

; 2006 : 		}

  00008	c3		 ret	 0
$LN3@Myptr@2:

; 2004 : 		return (this->_BUF_SIZE <= this->_Myres ? this->_Bx._Ptr
; 2005 : 			: this->_Bx._Buf);

  00009	8b c1		 mov	 eax, ecx

; 2006 : 		}

  0000b	c3		 ret	 0
?_Myptr@?$basic_string@DU?$char_traits@D@std@@V?$allocator@D@2@@std@@QAEPADXZ ENDP ; std::basic_string<char,std::char_traits<char>,std::allocator<char> >::_Myptr
_TEXT	ENDS
PUBLIC	??_C@_0BA@JFNIOLAK@string?5too?5long?$AA@	; `string'
PUBLIC	?_Xlen@?$basic_string@DU?$char_traits@D@std@@V?$allocator@D@2@@std@@QBEXXZ ; std::basic_string<char,std::char_traits<char>,std::allocator<char> >::_Xlen
;	COMDAT ??_C@_0BA@JFNIOLAK@string?5too?5long?$AA@
CONST	SEGMENT
??_C@_0BA@JFNIOLAK@string?5too?5long?$AA@ DB 'string too long', 00H ; `string'
; Function compile flags: /Ogsp
CONST	ENDS
;	COMDAT ?_Xlen@?$basic_string@DU?$char_traits@D@std@@V?$allocator@D@2@@std@@QBEXXZ
_TEXT	SEGMENT
?_Xlen@?$basic_string@DU?$char_traits@D@std@@V?$allocator@D@2@@std@@QBEXXZ PROC ; std::basic_string<char,std::char_traits<char>,std::allocator<char> >::_Xlen, COMDAT
; _this$ = ecx

; 2016 : 		_Xlength_error("string too long");

  00000	68 00 00 00 00	 push	 OFFSET ??_C@_0BA@JFNIOLAK@string?5too?5long?$AA@
  00005	ff 15 00 00 00
	00		 call	 DWORD PTR __imp_?_Xlength_error@std@@YAXPBD@Z
$LN4@Xlen@3:
$LN3@Xlen@3:
  0000b	cc		 int	 3
?_Xlen@?$basic_string@DU?$char_traits@D@std@@V?$allocator@D@2@@std@@QBEXXZ ENDP ; std::basic_string<char,std::char_traits<char>,std::allocator<char> >::_Xlen
_TEXT	ENDS
PUBLIC	??_C@_0BI@CFPLBAOH@invalid?5string?5position?$AA@ ; `string'
PUBLIC	?_Xran@?$basic_string@DU?$char_traits@D@std@@V?$allocator@D@2@@std@@QBEXXZ ; std::basic_string<char,std::char_traits<char>,std::allocator<char> >::_Xran
EXTRN	__imp_?_Xout_of_range@std@@YAXPBD@Z:PROC
;	COMDAT ??_C@_0BI@CFPLBAOH@invalid?5string?5position?$AA@
CONST	SEGMENT
??_C@_0BI@CFPLBAOH@invalid?5string?5position?$AA@ DB 'invalid string posi'
	DB	'tion', 00H					; `string'
; Function compile flags: /Ogsp
CONST	ENDS
;	COMDAT ?_Xran@?$basic_string@DU?$char_traits@D@std@@V?$allocator@D@2@@std@@QBEXXZ
_TEXT	SEGMENT
?_Xran@?$basic_string@DU?$char_traits@D@std@@V?$allocator@D@2@@std@@QBEXXZ PROC ; std::basic_string<char,std::char_traits<char>,std::allocator<char> >::_Xran, COMDAT
; _this$ = ecx

; 2021 : 		_Xout_of_range("invalid string position");

  00000	68 00 00 00 00	 push	 OFFSET ??_C@_0BI@CFPLBAOH@invalid?5string?5position?$AA@
  00005	ff 15 00 00 00
	00		 call	 DWORD PTR __imp_?_Xout_of_range@std@@YAXPBD@Z
$LN4@Xran:
$LN3@Xran:
  0000b	cc		 int	 3
?_Xran@?$basic_string@DU?$char_traits@D@std@@V?$allocator@D@2@@std@@QBEXXZ ENDP ; std::basic_string<char,std::char_traits<char>,std::allocator<char> >::_Xran
_TEXT	ENDS
PUBLIC	?deallocate@?$allocator@D@std@@QAEXPADI@Z	; std::allocator<char>::deallocate
; Function compile flags: /Ogsp
; File c:\program files (x86)\microsoft visual studio 10.0\vc\include\xmemory
;	COMDAT ?deallocate@?$allocator@D@std@@QAEXPADI@Z
_TEXT	SEGMENT
__Ptr$ = 8						; size = 4
___formal$ = 12						; size = 4
?deallocate@?$allocator@D@std@@QAEXPADI@Z PROC		; std::allocator<char>::deallocate, COMDAT
; _this$ = ecx

; 181  : 		{	// deallocate object at _Ptr, ignore size

  00000	55		 push	 ebp
  00001	8b ec		 mov	 ebp, esp

; 182  : 		::operator delete(_Ptr);

  00003	ff 75 08	 push	 DWORD PTR __Ptr$[ebp]
  00006	e8 00 00 00 00	 call	 ??3@YAXPAX@Z		; operator delete
  0000b	59		 pop	 ecx

; 183  : 		}

  0000c	5d		 pop	 ebp
  0000d	c2 08 00	 ret	 8
?deallocate@?$allocator@D@std@@QAEXPADI@Z ENDP		; std::allocator<char>::deallocate
_TEXT	ENDS
PUBLIC	?max_size@?$allocator@D@std@@QBEIXZ		; std::allocator<char>::max_size
; Function compile flags: /Ogsp
;	COMDAT ?max_size@?$allocator@D@std@@QBEIXZ
_TEXT	SEGMENT
?max_size@?$allocator@D@std@@QBEIXZ PROC		; std::allocator<char>::max_size, COMDAT
; _this$ = ecx

; 218  : 		_SIZT _Count = (_SIZT)(-1) / sizeof (_Ty);
; 219  : 		return (0 < _Count ? _Count : 1);

  00000	83 c8 ff	 or	 eax, -1

; 220  : 		}

  00003	c3		 ret	 0
?max_size@?$allocator@D@std@@QBEIXZ ENDP		; std::allocator<char>::max_size
_TEXT	ENDS
PUBLIC	??$_Allocate@D@std@@YAPADIPAD@Z			; std::_Allocate<char>
; Function compile flags: /Ogsp
;	COMDAT ??$_Allocate@D@std@@YAPADIPAD@Z
_TEXT	SEGMENT
$T538661 = -12						; size = 12
$T538665 = 8						; size = 4
__Count$ = 8						; size = 4
___formal$ = 12						; size = 4
??$_Allocate@D@std@@YAPADIPAD@Z PROC			; std::_Allocate<char>, COMDAT

; 30   : 	{	// allocate storage for _Count elements of type _Ty

  00000	55		 push	 ebp
  00001	8b ec		 mov	 ebp, esp

; 31   : 	void *_Ptr = 0;

  00003	33 c0		 xor	 eax, eax
  00005	83 ec 0c	 sub	 esp, 12			; 0000000cH

; 32   : 
; 33   : 	if (_Count <= 0)

  00008	39 45 08	 cmp	 DWORD PTR __Count$[ebp], eax

; 34   : 		_Count = 0;
; 35   : 	else if (((_SIZT)(-1) / sizeof (_Ty) < _Count)

  0000b	76 39		 jbe	 SHORT $LN5@Allocate@3

; 36   : 		|| (_Ptr = ::operator new(_Count * sizeof (_Ty))) == 0)

  0000d	83 7d 08 ff	 cmp	 DWORD PTR __Count$[ebp], -1
  00011	77 0d		 ja	 SHORT $LN1@Allocate@3
  00013	ff 75 08	 push	 DWORD PTR __Count$[ebp]
  00016	e8 00 00 00 00	 call	 ??2@YAPAXI@Z		; operator new
  0001b	59		 pop	 ecx
  0001c	85 c0		 test	 eax, eax

; 38   : 
; 39   : 	return ((_Ty _FARQ *)_Ptr);

  0001e	75 26		 jne	 SHORT $LN5@Allocate@3
$LN1@Allocate@3:

; 37   : 		_THROW_NCEE(bad_alloc, 0);

  00020	83 65 08 00	 and	 DWORD PTR $T538665[ebp], 0
  00024	8d 45 08	 lea	 eax, DWORD PTR $T538665[ebp]
  00027	50		 push	 eax
  00028	8d 4d f4	 lea	 ecx, DWORD PTR $T538661[ebp]
  0002b	ff 15 00 00 00
	00		 call	 DWORD PTR __imp_??0exception@std@@QAE@ABQBD@Z
  00031	68 00 00 00 00	 push	 OFFSET __TI2?AVbad_alloc@std@@
  00036	8d 45 f4	 lea	 eax, DWORD PTR $T538661[ebp]
  00039	50		 push	 eax
  0003a	c7 45 f4 00 00
	00 00		 mov	 DWORD PTR $T538661[ebp], OFFSET ??_7bad_alloc@std@@6B@
  00041	e8 00 00 00 00	 call	 __CxxThrowException@8
$LN10@Allocate@3:
$LN5@Allocate@3:

; 40   : 	}

  00046	c9		 leave
  00047	c3		 ret	 0
$LN9@Allocate@3:
??$_Allocate@D@std@@YAPADIPAD@Z ENDP			; std::_Allocate<char>
_TEXT	ENDS
EXTRN	__imp_??0exception@std@@QAE@ABV01@@Z:PROC
; Function compile flags: /Ogsp
;	COMDAT ??0bad_alloc@std@@QAE@ABV01@@Z
_TEXT	SEGMENT
___that$ = 8						; size = 4
??0bad_alloc@std@@QAE@ABV01@@Z PROC			; std::bad_alloc::bad_alloc, COMDAT
; _this$ = ecx
  00000	55		 push	 ebp
  00001	8b ec		 mov	 ebp, esp
  00003	56		 push	 esi
  00004	ff 75 08	 push	 DWORD PTR ___that$[ebp]
  00007	8b f1		 mov	 esi, ecx
  00009	ff 15 00 00 00
	00		 call	 DWORD PTR __imp_??0exception@std@@QAE@ABV01@@Z
  0000f	c7 06 00 00 00
	00		 mov	 DWORD PTR [esi], OFFSET ??_7bad_alloc@std@@6B@
  00015	8b c6		 mov	 eax, esi
  00017	5e		 pop	 esi
  00018	5d		 pop	 ebp
  00019	c2 04 00	 ret	 4
??0bad_alloc@std@@QAE@ABV01@@Z ENDP			; std::bad_alloc::bad_alloc
_TEXT	ENDS
PUBLIC	??_7ioAccessoryInfoManager@@6B@			; ioAccessoryInfoManager::`vftable'
PUBLIC	??0ioAccessoryInfoManager@@QAE@XZ		; ioAccessoryInfoManager::ioAccessoryInfoManager
PUBLIC	??_R4ioAccessoryInfoManager@@6B@		; ioAccessoryInfoManager::`RTTI Complete Object Locator'
PUBLIC	??_R0?AVioAccessoryInfoManager@@@8		; ioAccessoryInfoManager `RTTI Type Descriptor'
PUBLIC	??_R3ioAccessoryInfoManager@@8			; ioAccessoryInfoManager::`RTTI Class Hierarchy Descriptor'
PUBLIC	??_R2ioAccessoryInfoManager@@8			; ioAccessoryInfoManager::`RTTI Base Class Array'
PUBLIC	??_R1A@?0A@EA@ioAccessoryInfoManager@@8		; ioAccessoryInfoManager::`RTTI Base Class Descriptor at (0,-1,0,64)'
PUBLIC	??_R13?0A@EA@?$Singleton@VioAccessoryInfoManager@@@@8 ; Singleton<ioAccessoryInfoManager>::`RTTI Base Class Descriptor at (4,-1,0,64)'
PUBLIC	??_R0?AV?$Singleton@VioAccessoryInfoManager@@@@@8 ; Singleton<ioAccessoryInfoManager> `RTTI Type Descriptor'
PUBLIC	??_R3?$Singleton@VioAccessoryInfoManager@@@@8	; Singleton<ioAccessoryInfoManager>::`RTTI Class Hierarchy Descriptor'
PUBLIC	??_R2?$Singleton@VioAccessoryInfoManager@@@@8	; Singleton<ioAccessoryInfoManager>::`RTTI Base Class Array'
PUBLIC	??_R1A@?0A@EA@?$Singleton@VioAccessoryInfoManager@@@@8 ; Singleton<ioAccessoryInfoManager>::`RTTI Base Class Descriptor at (0,-1,0,64)'
EXTRN	??_EioAccessoryInfoManager@@UAEPAXI@Z:PROC	; ioAccessoryInfoManager::`vector deleting destructor'
;	COMDAT ??_R1A@?0A@EA@?$Singleton@VioAccessoryInfoManager@@@@8
; File d:\lost saga for developer\youtube\tutorial\source\src\io3dengine\iosingleton.h
rdata$r	SEGMENT
??_R1A@?0A@EA@?$Singleton@VioAccessoryInfoManager@@@@8 DD FLAT:??_R0?AV?$Singleton@VioAccessoryInfoManager@@@@@8 ; Singleton<ioAccessoryInfoManager>::`RTTI Base Class Descriptor at (0,-1,0,64)'
	DD	00H
	DD	00H
	DD	0ffffffffH
	DD	00H
	DD	040H
	DD	FLAT:??_R3?$Singleton@VioAccessoryInfoManager@@@@8
rdata$r	ENDS
;	COMDAT ??_R2?$Singleton@VioAccessoryInfoManager@@@@8
rdata$r	SEGMENT
??_R2?$Singleton@VioAccessoryInfoManager@@@@8 DD FLAT:??_R1A@?0A@EA@?$Singleton@VioAccessoryInfoManager@@@@8 ; Singleton<ioAccessoryInfoManager>::`RTTI Base Class Array'
rdata$r	ENDS
;	COMDAT ??_R3?$Singleton@VioAccessoryInfoManager@@@@8
rdata$r	SEGMENT
??_R3?$Singleton@VioAccessoryInfoManager@@@@8 DD 00H	; Singleton<ioAccessoryInfoManager>::`RTTI Class Hierarchy Descriptor'
	DD	00H
	DD	01H
	DD	FLAT:??_R2?$Singleton@VioAccessoryInfoManager@@@@8
rdata$r	ENDS
;	COMDAT ??_R0?AV?$Singleton@VioAccessoryInfoManager@@@@@8
_DATA	SEGMENT
??_R0?AV?$Singleton@VioAccessoryInfoManager@@@@@8 DD FLAT:??_7type_info@@6B@ ; Singleton<ioAccessoryInfoManager> `RTTI Type Descriptor'
	DD	00H
	DB	'.?AV?$Singleton@VioAccessoryInfoManager@@@@', 00H
_DATA	ENDS
;	COMDAT ??_R13?0A@EA@?$Singleton@VioAccessoryInfoManager@@@@8
rdata$r	SEGMENT
??_R13?0A@EA@?$Singleton@VioAccessoryInfoManager@@@@8 DD FLAT:??_R0?AV?$Singleton@VioAccessoryInfoManager@@@@@8 ; Singleton<ioAccessoryInfoManager>::`RTTI Base Class Descriptor at (4,-1,0,64)'
	DD	00H
	DD	04H
	DD	0ffffffffH
	DD	00H
	DD	040H
	DD	FLAT:??_R3?$Singleton@VioAccessoryInfoManager@@@@8
rdata$r	ENDS
;	COMDAT ??_R1A@?0A@EA@ioAccessoryInfoManager@@8
rdata$r	SEGMENT
??_R1A@?0A@EA@ioAccessoryInfoManager@@8 DD FLAT:??_R0?AVioAccessoryInfoManager@@@8 ; ioAccessoryInfoManager::`RTTI Base Class Descriptor at (0,-1,0,64)'
	DD	01H
	DD	00H
	DD	0ffffffffH
	DD	00H
	DD	040H
	DD	FLAT:??_R3ioAccessoryInfoManager@@8
rdata$r	ENDS
;	COMDAT ??_R2ioAccessoryInfoManager@@8
rdata$r	SEGMENT
??_R2ioAccessoryInfoManager@@8 DD FLAT:??_R1A@?0A@EA@ioAccessoryInfoManager@@8 ; ioAccessoryInfoManager::`RTTI Base Class Array'
	DD	FLAT:??_R13?0A@EA@?$Singleton@VioAccessoryInfoManager@@@@8
rdata$r	ENDS
;	COMDAT ??_R3ioAccessoryInfoManager@@8
rdata$r	SEGMENT
??_R3ioAccessoryInfoManager@@8 DD 00H			; ioAccessoryInfoManager::`RTTI Class Hierarchy Descriptor'
	DD	00H
	DD	02H
	DD	FLAT:??_R2ioAccessoryInfoManager@@8
rdata$r	ENDS
;	COMDAT ??_R0?AVioAccessoryInfoManager@@@8
_DATA	SEGMENT
??_R0?AVioAccessoryInfoManager@@@8 DD FLAT:??_7type_info@@6B@ ; ioAccessoryInfoManager `RTTI Type Descriptor'
	DD	00H
	DB	'.?AVioAccessoryInfoManager@@', 00H
_DATA	ENDS
;	COMDAT ??_R4ioAccessoryInfoManager@@6B@
rdata$r	SEGMENT
??_R4ioAccessoryInfoManager@@6B@ DD 00H			; ioAccessoryInfoManager::`RTTI Complete Object Locator'
	DD	00H
	DD	00H
	DD	FLAT:??_R0?AVioAccessoryInfoManager@@@8
	DD	FLAT:??_R3ioAccessoryInfoManager@@8
rdata$r	ENDS
;	COMDAT ??_7ioAccessoryInfoManager@@6B@
CONST	SEGMENT
??_7ioAccessoryInfoManager@@6B@ DD FLAT:??_R4ioAccessoryInfoManager@@6B@ ; ioAccessoryInfoManager::`vftable'
	DD	FLAT:??_EioAccessoryInfoManager@@UAEPAXI@Z
; Function compile flags: /Ogsp
; File d:\lost saga for developer\youtube\tutorial\source\src\lsclient\ioaccessoryinfomanager.cpp
CONST	ENDS
;	COMDAT ??0ioAccessoryInfoManager@@QAE@XZ
_TEXT	SEGMENT
??0ioAccessoryInfoManager@@QAE@XZ PROC			; ioAccessoryInfoManager::ioAccessoryInfoManager, COMDAT
; _this$ = ecx

; 18   : {

  00000	8b c1		 mov	 eax, ecx
  00002	a3 00 00 00 00	 mov	 DWORD PTR ?ms_Singleton@?$Singleton@VioAccessoryInfoManager@@@@1PAVioAccessoryInfoManager@@A, eax ; Singleton<ioAccessoryInfoManager>::ms_Singleton
  00007	c7 00 00 00 00
	00		 mov	 DWORD PTR [eax], OFFSET ??_7ioAccessoryInfoManager@@6B@

; 19   : }

  0000d	c3		 ret	 0
??0ioAccessoryInfoManager@@QAE@XZ ENDP			; ioAccessoryInfoManager::ioAccessoryInfoManager
_TEXT	ENDS
PUBLIC	??1ioAccessoryInfoManager@@UAE@XZ		; ioAccessoryInfoManager::~ioAccessoryInfoManager
; Function compile flags: /Ogsp
;	COMDAT ??1ioAccessoryInfoManager@@UAE@XZ
_TEXT	SEGMENT
??1ioAccessoryInfoManager@@UAE@XZ PROC			; ioAccessoryInfoManager::~ioAccessoryInfoManager, COMDAT
; _this$ = ecx

; 23   : {

  00000	c7 01 00 00 00
	00		 mov	 DWORD PTR [ecx], OFFSET ??_7ioAccessoryInfoManager@@6B@

; 24   : }

  00006	83 25 00 00 00
	00 00		 and	 DWORD PTR ?ms_Singleton@?$Singleton@VioAccessoryInfoManager@@@@1PAVioAccessoryInfoManager@@A, 0 ; Singleton<ioAccessoryInfoManager>::ms_Singleton
  0000d	c3		 ret	 0
??1ioAccessoryInfoManager@@UAE@XZ ENDP			; ioAccessoryInfoManager::~ioAccessoryInfoManager
_TEXT	ENDS
PUBLIC	?GetSingleton@ioAccessoryInfoManager@@SAAAV1@XZ	; ioAccessoryInfoManager::GetSingleton
; Function compile flags: /Ogsp
;	COMDAT ?GetSingleton@ioAccessoryInfoManager@@SAAAV1@XZ
_TEXT	SEGMENT
?GetSingleton@ioAccessoryInfoManager@@SAAAV1@XZ PROC	; ioAccessoryInfoManager::GetSingleton, COMDAT

; 28   : 	return Singleton< ioAccessoryInfoManager >::GetSingleton();

  00000	a1 00 00 00 00	 mov	 eax, DWORD PTR ?ms_Singleton@?$Singleton@VioAccessoryInfoManager@@@@1PAVioAccessoryInfoManager@@A ; Singleton<ioAccessoryInfoManager>::ms_Singleton

; 29   : }

  00005	c3		 ret	 0
?GetSingleton@ioAccessoryInfoManager@@SAAAV1@XZ ENDP	; ioAccessoryInfoManager::GetSingleton
_TEXT	ENDS
PUBLIC	??_C@_0CK@FNJAPFKK@ioAccessoryInfoManager?3?3OnAccess@ ; `string'
PUBLIC	??_C@_00CNPNBAHC@?$AA@				; `string'
PUBLIC	??_R0?AVMiniSoldierSelectWnd@@@8		; MiniSoldierSelectWnd `RTTI Type Descriptor'
PUBLIC	??_R0?AVSoldierSelectWnd@@@8			; SoldierSelectWnd `RTTI Type Descriptor'
PUBLIC	??_R0?AVioWnd@@@8				; ioWnd `RTTI Type Descriptor'
PUBLIC	??_R0?AVMyInventoryWnd@@@8			; MyInventoryWnd `RTTI Type Descriptor'
PUBLIC	?OnAccessoryChange@ioAccessoryInfoManager@@QAEXAAVSP2Packet@@PAVioPlayStage@@@Z ; ioAccessoryInfoManager::OnAccessoryChange
EXTRN	?SetState@ioBaseChar@@QAEXH_N@Z:PROC		; ioBaseChar::SetState
EXTRN	?SetMsgBox@ioSP2GUIManager@@QAEXHPAVioWnd@@PBDH@Z:PROC ; ioSP2GUIManager::SetMsgBox
EXTRN	?SetMsgBox@ioSP2GUIManager@@QAAXHPAVioWnd@@PBDZZ:PROC ; ioSP2GUIManager::SetMsgBox
EXTRN	__imp_?GetString@ioStringManager@@QAEPADPBD0HW4FileNamePrefix@1@@Z:PROC
EXTRN	__imp_?GetSingleton@ioStringManager@@SAAAV1@XZ:PROC
EXTRN	?EquipItem@ioBaseChar@@QAEPAVioItem@@PAV2@_N@Z:PROC ; ioBaseChar::EquipItem
EXTRN	?CreateItem@ioPlayStage@@QAEPAVioItem@@K@Z:PROC	; ioPlayStage::CreateItem
EXTRN	?ReleaseItem@ioEquipSlot@@QAEPAVioItem@@W4EquipSlot@@@Z:PROC ; ioEquipSlot::ReleaseItem
EXTRN	?SetEquipAccessoryInfo@ioBaseChar@@QAEXHHHH@Z:PROC ; ioBaseChar::SetEquipAccessoryInfo
EXTRN	?IsModeStateResult@ioPlayStage@@QAE_NXZ:PROC	; ioPlayStage::IsModeStateResult
EXTRN	?GetBaseChar@ioPlayStage@@QAEPAVioBaseChar@@ABVioHashString@@@Z:PROC ; ioPlayStage::GetBaseChar
EXTRN	?GetModeType@ioPlayStage@@QBE?AW4ModeType@@XZ:PROC ; ioPlayStage::GetModeType
EXTRN	?SettingMiniSoldierBtn@MiniSoldierSelectWnd@@QAEXXZ:PROC ; MiniSoldierSelectWnd::SettingMiniSoldierBtn
EXTRN	?SettingSoldierBtn@SoldierSelectWnd@@QAEXXZ:PROC ; SoldierSelectWnd::SettingSoldierBtn
EXTRN	?UpdateTab@MyInventoryWnd@@QAEX_N00@Z:PROC	; MyInventoryWnd::UpdateTab
EXTRN	__imp_?IsShow@ioWnd@@QBE_NXZ:PROC
EXTRN	__imp_?FindWnd@ioGUIManager@@QAEPAVioWnd@@K@Z:PROC
EXTRN	?GetSingleton@ioSP2GUIManager@@SAAAV1@XZ:PROC	; ioSP2GUIManager::GetSingleton
EXTRN	?SetUserInfoMgr@ioMyInfo@@QAEXXZ:PROC		; ioMyInfo::SetUserInfoMgr
EXTRN	?ApplyChangeAccessory@ioMyInfo@@QAEXHHH_N@Z:PROC ; ioMyInfo::ApplyChangeAccessory
EXTRN	?GetCharArray@ioMyInfo@@QAEHK@Z:PROC		; ioMyInfo::GetCharArray
EXTRN	__imp_??8ioHashString@@QBE_NABV0@@Z:PROC
EXTRN	?GetSingleton@ioMyInfo@@SAAAV1@XZ:PROC		; ioMyInfo::GetSingleton
EXTRN	??5SP2Packet@@QAEAAV0@AA_N@Z:PROC		; SP2Packet::operator>>
EXTRN	??5SP2Packet@@QAEAAV0@AAH@Z:PROC		; SP2Packet::operator>>
EXTRN	??5SP2Packet@@QAEAAV0@AAVioHashString@@@Z:PROC	; SP2Packet::operator>>
EXTRN	__imp_??0ioHashString@@QAE@XZ:PROC
EXTRN	??5SP2Packet@@QAEAAV0@AAE@Z:PROC		; SP2Packet::operator>>
EXTRN	?MouseBusy@TCPNetwork@@YAX_N@Z:PROC		; TCPNetwork::MouseBusy
EXTRN	___RTDynamicCast:PROC
;	COMDAT ??_C@_0CK@FNJAPFKK@ioAccessoryInfoManager?3?3OnAccess@
; File d:\lost saga for developer\youtube\tutorial\source\src\lsclient\iobasechar.h
CONST	SEGMENT
??_C@_0CK@FNJAPFKK@ioAccessoryInfoManager?3?3OnAccess@ DB 'ioAccessoryInf'
	DB	'oManager::OnAccessoryChange', 00H		; `string'
CONST	ENDS
;	COMDAT ??_C@_00CNPNBAHC@?$AA@
CONST	SEGMENT
??_C@_00CNPNBAHC@?$AA@ DB 00H				; `string'
CONST	ENDS
;	COMDAT ??_R0?AVMiniSoldierSelectWnd@@@8
_DATA	SEGMENT
??_R0?AVMiniSoldierSelectWnd@@@8 DD FLAT:??_7type_info@@6B@ ; MiniSoldierSelectWnd `RTTI Type Descriptor'
	DD	00H
	DB	'.?AVMiniSoldierSelectWnd@@', 00H
_DATA	ENDS
;	COMDAT ??_R0?AVSoldierSelectWnd@@@8
_DATA	SEGMENT
??_R0?AVSoldierSelectWnd@@@8 DD FLAT:??_7type_info@@6B@	; SoldierSelectWnd `RTTI Type Descriptor'
	DD	00H
	DB	'.?AVSoldierSelectWnd@@', 00H
_DATA	ENDS
;	COMDAT ??_R0?AVioWnd@@@8
_DATA	SEGMENT
??_R0?AVioWnd@@@8 DD FLAT:??_7type_info@@6B@		; ioWnd `RTTI Type Descriptor'
	DD	00H
	DB	'.?AVioWnd@@', 00H
_DATA	ENDS
;	COMDAT ??_R0?AVMyInventoryWnd@@@8
_DATA	SEGMENT
??_R0?AVMyInventoryWnd@@@8 DD FLAT:??_7type_info@@6B@	; MyInventoryWnd `RTTI Type Descriptor'
	DD	00H
	DB	'.?AVMyInventoryWnd@@', 00H
_DATA	ENDS
;	COMDAT xdata$x
xdata$x	SEGMENT
__unwindtable$?OnAccessoryChange@ioAccessoryInfoManager@@QAEXAAVSP2Packet@@PAVioPlayStage@@@Z DD 0ffffffffH
	DD	FLAT:__unwindfunclet$?OnAccessoryChange@ioAccessoryInfoManager@@QAEXAAVSP2Packet@@PAVioPlayStage@@@Z$0
__ehfuncinfo$?OnAccessoryChange@ioAccessoryInfoManager@@QAEXAAVSP2Packet@@PAVioPlayStage@@@Z DD 019930522H
	DD	01H
	DD	FLAT:__unwindtable$?OnAccessoryChange@ioAccessoryInfoManager@@QAEXAAVSP2Packet@@PAVioPlayStage@@@Z
	DD	2 DUP(00H)
	DD	2 DUP(00H)
	DD	00H
	DD	01H
; Function compile flags: /Ogsp
; File d:\lost saga for developer\youtube\tutorial\source\src\lsclient\ioaccessoryinfomanager.cpp
xdata$x	ENDS
;	COMDAT ?OnAccessoryChange@ioAccessoryInfoManager@@QAEXAAVSP2Packet@@PAVioPlayStage@@@Z
_TEXT	SEGMENT
_szOwner$ = -60						; size = 16
_iCharArray$536101 = -44				; size = 4
_pSoldierWnd$536105 = -40				; size = 4
_pInvenWnd$536102 = -40					; size = 4
_iRandomNum$536097 = -36				; size = 4
_iAccessoryCode$536096 = -32				; size = 4
_bEquip$536099 = -28					; size = 1
_iCharIndex$536094 = -24				; size = 4
_iSlotIndex$536095 = -20				; size = 4
_eResult$ = -13						; size = 1
__$EHRec$ = -12						; size = 12
_rkPacket$ = 8						; size = 4
_iSlot$536098 = 11					; size = 1
_pPlayStage$ = 12					; size = 4
?OnAccessoryChange@ioAccessoryInfoManager@@QAEXAAVSP2Packet@@PAVioPlayStage@@@Z PROC ; ioAccessoryInfoManager::OnAccessoryChange, COMDAT
; _this$ = ecx

; 235  : {

  00000	6a 30		 push	 48			; 00000030H
  00002	b8 00 00 00 00	 mov	 eax, __ehhandler$?OnAccessoryChange@ioAccessoryInfoManager@@QAEXAAVSP2Packet@@PAVioPlayStage@@@Z
  00007	e8 00 00 00 00	 call	 __EH_prolog3

; 236  : 	TCPNetwork::MouseBusy( false );

  0000c	33 db		 xor	 ebx, ebx
  0000e	53		 push	 ebx
  0000f	e8 00 00 00 00	 call	 ?MouseBusy@TCPNetwork@@YAX_N@Z ; TCPNetwork::MouseBusy
  00014	59		 pop	 ecx

; 237  : 	
; 238  : 	if ( !pPlayStage )

  00015	39 5d 0c	 cmp	 DWORD PTR _pPlayStage$[ebp], ebx
  00018	0f 84 55 03 00
	00		 je	 $LN24@OnAccessor

; 239  : 		return;
; 240  : 
; 241  : 	byte eResult;
; 242  : 	rkPacket >> eResult;

  0001e	8b 7d 08	 mov	 edi, DWORD PTR _rkPacket$[ebp]
  00021	8d 45 f3	 lea	 eax, DWORD PTR _eResult$[ebp]
  00024	50		 push	 eax
  00025	8b cf		 mov	 ecx, edi
  00027	e8 00 00 00 00	 call	 ??5SP2Packet@@QAEAAV0@AAE@Z ; SP2Packet::operator>>

; 243  : 
; 244  : 	ioHashString szOwner;

  0002c	8d 4d c4	 lea	 ecx, DWORD PTR _szOwner$[ebp]
  0002f	ff 15 00 00 00
	00		 call	 DWORD PTR __imp_??0ioHashString@@QAE@XZ

; 245  : 	rkPacket >> szOwner;

  00035	8d 45 c4	 lea	 eax, DWORD PTR _szOwner$[ebp]
  00038	50		 push	 eax
  00039	8b cf		 mov	 ecx, edi
  0003b	89 5d fc	 mov	 DWORD PTR __$EHRec$[ebp+8], ebx
  0003e	e8 00 00 00 00	 call	 ??5SP2Packet@@QAEAAV0@AAVioHashString@@@Z ; SP2Packet::operator>>

; 246  : 	
; 247  : 	if ( eResult == ACCESSORY_CHANGE_SUCCESS )

  00043	80 7d f3 01	 cmp	 BYTE PTR _eResult$[ebp], 1
  00047	0f 85 7c 02 00
	00		 jne	 $LN22@OnAccessor

; 248  : 	{
; 249  : 		int iCharIndex, iSlotIndex, iAccessoryCode, iRandomNum;
; 250  : 		byte iSlot;
; 251  : 		bool bEquip;
; 252  : 		rkPacket >> iCharIndex;

  0004d	8d 45 e8	 lea	 eax, DWORD PTR _iCharIndex$536094[ebp]
  00050	50		 push	 eax
  00051	8b cf		 mov	 ecx, edi
  00053	e8 00 00 00 00	 call	 ??5SP2Packet@@QAEAAV0@AAH@Z ; SP2Packet::operator>>

; 253  : 		rkPacket >> iSlot;

  00058	8d 45 0b	 lea	 eax, DWORD PTR _iSlot$536098[ebp]
  0005b	50		 push	 eax
  0005c	8b cf		 mov	 ecx, edi
  0005e	e8 00 00 00 00	 call	 ??5SP2Packet@@QAEAAV0@AAE@Z ; SP2Packet::operator>>

; 254  : 		rkPacket >> iSlotIndex;

  00063	8d 45 ec	 lea	 eax, DWORD PTR _iSlotIndex$536095[ebp]
  00066	50		 push	 eax
  00067	8b cf		 mov	 ecx, edi
  00069	e8 00 00 00 00	 call	 ??5SP2Packet@@QAEAAV0@AAH@Z ; SP2Packet::operator>>

; 255  : 		rkPacket >> bEquip;

  0006e	8d 45 e4	 lea	 eax, DWORD PTR _bEquip$536099[ebp]
  00071	50		 push	 eax
  00072	8b cf		 mov	 ecx, edi
  00074	e8 00 00 00 00	 call	 ??5SP2Packet@@QAEAAV0@AA_N@Z ; SP2Packet::operator>>

; 256  : 		rkPacket >> iAccessoryCode;

  00079	8d 45 e0	 lea	 eax, DWORD PTR _iAccessoryCode$536096[ebp]
  0007c	50		 push	 eax
  0007d	8b cf		 mov	 ecx, edi
  0007f	e8 00 00 00 00	 call	 ??5SP2Packet@@QAEAAV0@AAH@Z ; SP2Packet::operator>>

; 257  : 		rkPacket >> iRandomNum;

  00084	8d 45 dc	 lea	 eax, DWORD PTR _iRandomNum$536097[ebp]
  00087	50		 push	 eax
  00088	8b cf		 mov	 ecx, edi
  0008a	e8 00 00 00 00	 call	 ??5SP2Packet@@QAEAAV0@AAH@Z ; SP2Packet::operator>>

; 258  : 		//   
; 259  : 		if( szOwner == g_MyInfo.GetPublicID() )

  0008f	e8 00 00 00 00	 call	 ?GetSingleton@ioMyInfo@@SAAAV1@XZ ; ioMyInfo::GetSingleton
  00094	83 c0 1c	 add	 eax, 28			; 0000001cH
  00097	50		 push	 eax
  00098	8d 4d c4	 lea	 ecx, DWORD PTR _szOwner$[ebp]
  0009b	ff 15 00 00 00
	00		 call	 DWORD PTR __imp_??8ioHashString@@QBE_NABV0@@Z
  000a1	84 c0		 test	 al, al
  000a3	0f 84 25 01 00
	00		 je	 $LN17@OnAccessor

; 260  : 		{
; 261  : 			int iCharArray = g_MyInfo.GetCharArray( iCharIndex );

  000a9	ff 75 e8	 push	 DWORD PTR _iCharIndex$536094[ebp]
  000ac	e8 00 00 00 00	 call	 ?GetSingleton@ioMyInfo@@SAAAV1@XZ ; ioMyInfo::GetSingleton
  000b1	8b c8		 mov	 ecx, eax
  000b3	e8 00 00 00 00	 call	 ?GetCharArray@ioMyInfo@@QAEHK@Z ; ioMyInfo::GetCharArray

; 262  : 			g_MyInfo.ApplyChangeAccessory( iCharArray, iSlot, iSlotIndex, bEquip );

  000b8	ff 75 e4	 push	 DWORD PTR _bEquip$536099[ebp]
  000bb	0f b6 4d 0b	 movzx	 ecx, BYTE PTR _iSlot$536098[ebp]
  000bf	ff 75 ec	 push	 DWORD PTR _iSlotIndex$536095[ebp]
  000c2	89 45 d4	 mov	 DWORD PTR _iCharArray$536101[ebp], eax
  000c5	51		 push	 ecx
  000c6	50		 push	 eax
  000c7	e8 00 00 00 00	 call	 ?GetSingleton@ioMyInfo@@SAAAV1@XZ ; ioMyInfo::GetSingleton
  000cc	8b c8		 mov	 ecx, eax
  000ce	e8 00 00 00 00	 call	 ?ApplyChangeAccessory@ioMyInfo@@QAEXHHH_N@Z ; ioMyInfo::ApplyChangeAccessory

; 263  : 			g_MyInfo.SetUserInfoMgr();

  000d3	e8 00 00 00 00	 call	 ?GetSingleton@ioMyInfo@@SAAAV1@XZ ; ioMyInfo::GetSingleton
  000d8	8b c8		 mov	 ecx, eax
  000da	e8 00 00 00 00	 call	 ?SetUserInfoMgr@ioMyInfo@@QAEXXZ ; ioMyInfo::SetUserInfoMgr

; 264  : 
; 265  : 			// UI 
; 266  : 			MyInventoryWnd *pInvenWnd = dynamic_cast<MyInventoryWnd*>(g_GUIMgr.FindWnd(MY_INVENTORY_WND));

  000df	53		 push	 ebx
  000e0	68 00 00 00 00	 push	 OFFSET ??_R0?AVMyInventoryWnd@@@8
  000e5	be 00 00 00 00	 mov	 esi, OFFSET ??_R0?AVioWnd@@@8
  000ea	56		 push	 esi
  000eb	53		 push	 ebx
  000ec	68 96 17 00 00	 push	 6038			; 00001796H
  000f1	e8 00 00 00 00	 call	 ?GetSingleton@ioSP2GUIManager@@SAAAV1@XZ ; ioSP2GUIManager::GetSingleton
  000f6	8b 3d 00 00 00
	00		 mov	 edi, DWORD PTR __imp_?FindWnd@ioGUIManager@@QAEPAVioWnd@@K@Z
  000fc	8b c8		 mov	 ecx, eax
  000fe	ff d7		 call	 edi
  00100	50		 push	 eax
  00101	e8 00 00 00 00	 call	 ___RTDynamicCast
  00106	8b c8		 mov	 ecx, eax
  00108	83 c4 14	 add	 esp, 20			; 00000014H
  0010b	89 4d d8	 mov	 DWORD PTR _pInvenWnd$536102[ebp], ecx

; 267  : 			if( pInvenWnd && pInvenWnd->IsShow() )

  0010e	3b cb		 cmp	 ecx, ebx
  00110	74 17		 je	 SHORT $LN20@OnAccessor
  00112	ff 15 00 00 00
	00		 call	 DWORD PTR __imp_?IsShow@ioWnd@@QBE_NXZ
  00118	84 c0		 test	 al, al
  0011a	74 0d		 je	 SHORT $LN20@OnAccessor

; 268  : 				pInvenWnd->UpdateTab( false, true );

  0011c	8b 4d d8	 mov	 ecx, DWORD PTR _pInvenWnd$536102[ebp]
  0011f	6a 01		 push	 1
  00121	6a 01		 push	 1
  00123	53		 push	 ebx
  00124	e8 00 00 00 00	 call	 ?UpdateTab@MyInventoryWnd@@QAEX_N00@Z ; MyInventoryWnd::UpdateTab
$LN20@OnAccessor:

; 269  : 
; 270  : 			SoldierSelectWnd *pSoldierWnd = dynamic_cast<SoldierSelectWnd*>(g_GUIMgr.FindWnd( SOLDIER_SELECT_WND ));

  00129	53		 push	 ebx
  0012a	68 00 00 00 00	 push	 OFFSET ??_R0?AVSoldierSelectWnd@@@8
  0012f	56		 push	 esi
  00130	53		 push	 ebx
  00131	68 9f 13 00 00	 push	 5023			; 0000139fH
  00136	e8 00 00 00 00	 call	 ?GetSingleton@ioSP2GUIManager@@SAAAV1@XZ ; ioSP2GUIManager::GetSingleton
  0013b	8b c8		 mov	 ecx, eax
  0013d	ff d7		 call	 edi
  0013f	50		 push	 eax
  00140	e8 00 00 00 00	 call	 ___RTDynamicCast
  00145	8b c8		 mov	 ecx, eax
  00147	83 c4 14	 add	 esp, 20			; 00000014H
  0014a	89 4d d8	 mov	 DWORD PTR _pSoldierWnd$536105[ebp], ecx

; 271  : 			if( pSoldierWnd && pSoldierWnd->IsShow() )

  0014d	3b cb		 cmp	 ecx, ebx
  0014f	74 12		 je	 SHORT $LN19@OnAccessor
  00151	ff 15 00 00 00
	00		 call	 DWORD PTR __imp_?IsShow@ioWnd@@QBE_NXZ
  00157	84 c0		 test	 al, al
  00159	74 08		 je	 SHORT $LN19@OnAccessor

; 272  : 				pSoldierWnd->SettingSoldierBtn();

  0015b	8b 4d d8	 mov	 ecx, DWORD PTR _pSoldierWnd$536105[ebp]
  0015e	e8 00 00 00 00	 call	 ?SettingSoldierBtn@SoldierSelectWnd@@QAEXXZ ; SoldierSelectWnd::SettingSoldierBtn
$LN19@OnAccessor:

; 273  : 
; 274  : 			MiniSoldierSelectWnd *pMiniSoldierWnd = dynamic_cast<MiniSoldierSelectWnd*>( g_GUIMgr.FindWnd( MINI_SOLDIER_SELECT_WND ));

  00163	53		 push	 ebx
  00164	68 00 00 00 00	 push	 OFFSET ??_R0?AVMiniSoldierSelectWnd@@@8
  00169	56		 push	 esi
  0016a	53		 push	 ebx
  0016b	68 a0 13 00 00	 push	 5024			; 000013a0H
  00170	e8 00 00 00 00	 call	 ?GetSingleton@ioSP2GUIManager@@SAAAV1@XZ ; ioSP2GUIManager::GetSingleton
  00175	8b c8		 mov	 ecx, eax
  00177	ff d7		 call	 edi
  00179	50		 push	 eax
  0017a	e8 00 00 00 00	 call	 ___RTDynamicCast
  0017f	8b f0		 mov	 esi, eax
  00181	83 c4 14	 add	 esp, 20			; 00000014H

; 275  : 			if( pMiniSoldierWnd && pMiniSoldierWnd->IsShow() )

  00184	3b f3		 cmp	 esi, ebx
  00186	74 13		 je	 SHORT $LN18@OnAccessor
  00188	8b ce		 mov	 ecx, esi
  0018a	ff 15 00 00 00
	00		 call	 DWORD PTR __imp_?IsShow@ioWnd@@QBE_NXZ
  00190	84 c0		 test	 al, al
  00192	74 07		 je	 SHORT $LN18@OnAccessor

; 276  : 				pMiniSoldierWnd->SettingMiniSoldierBtn();

  00194	8b ce		 mov	 ecx, esi
  00196	e8 00 00 00 00	 call	 ?SettingMiniSoldierBtn@MiniSoldierSelectWnd@@QAEXXZ ; MiniSoldierSelectWnd::SettingMiniSoldierBtn
$LN18@OnAccessor:

; 277  : 
; 278  : 			if( pPlayStage->GetModeType() == MT_MYROOM )

  0019b	8b 4d 0c	 mov	 ecx, DWORD PTR _pPlayStage$[ebp]
  0019e	e8 00 00 00 00	 call	 ?GetModeType@ioPlayStage@@QBE?AW4ModeType@@XZ ; ioPlayStage::GetModeType
  001a3	83 f8 18	 cmp	 eax, 24			; 00000018H
  001a6	75 26		 jne	 SHORT $LN17@OnAccessor

; 279  : 			{
; 280  : 				ioPlayMode* pPlayMode = pPlayStage->GetPlayMode();

  001a8	8b 45 0c	 mov	 eax, DWORD PTR _pPlayStage$[ebp]
  001ab	8b 88 10 01 00
	00		 mov	 ecx, DWORD PTR [eax+272]

; 281  : 				if( pPlayMode )

  001b1	3b cb		 cmp	 ecx, ebx
  001b3	0f 84 ad 01 00
	00		 je	 $LN1@OnAccessor

; 282  : 					pPlayMode->SetChangeExtraItem( iCharArray, iSlot );

  001b9	0f b6 55 0b	 movzx	 edx, BYTE PTR _iSlot$536098[ebp]
  001bd	8b 01		 mov	 eax, DWORD PTR [ecx]
  001bf	52		 push	 edx
  001c0	ff 75 d4	 push	 DWORD PTR _iCharArray$536101[ebp]
  001c3	ff 90 00 03 00
	00		 call	 DWORD PTR [eax+768]

; 283  : 				return;

  001c9	e9 98 01 00 00	 jmp	 $LN1@OnAccessor
$LN17@OnAccessor:

; 284  : 			}
; 285  : 		}
; 286  : 
; 287  : 		//    (    )
; 288  : 		if( pPlayStage->GetModeType() != MT_MYROOM )

  001ce	8b 4d 0c	 mov	 ecx, DWORD PTR _pPlayStage$[ebp]
  001d1	e8 00 00 00 00	 call	 ?GetModeType@ioPlayStage@@QBE?AW4ModeType@@XZ ; ioPlayStage::GetModeType
  001d6	83 f8 18	 cmp	 eax, 24			; 00000018H
  001d9	0f 84 87 01 00
	00		 je	 $LN1@OnAccessor

; 289  : 		{
; 290  : 			//     
; 291  : 			ioBaseChar *pOwner = pPlayStage->GetBaseChar( szOwner );

  001df	8b 4d 0c	 mov	 ecx, DWORD PTR _pPlayStage$[ebp]
  001e2	8d 45 c4	 lea	 eax, DWORD PTR _szOwner$[ebp]
  001e5	50		 push	 eax
  001e6	e8 00 00 00 00	 call	 ?GetBaseChar@ioPlayStage@@QAEPAVioBaseChar@@ABVioHashString@@@Z ; ioPlayStage::GetBaseChar
  001eb	8b f8		 mov	 edi, eax

; 292  : 			bool bSelectChar = true;
; 293  : 			if( pOwner && pOwner->IsOwnerChar() && ( g_MyInfo.GetSelectCharArray() != g_MyInfo.GetCharArray( iCharIndex ) ) )

  001ed	3b fb		 cmp	 edi, ebx
  001ef	0f 84 71 01 00
	00		 je	 $LN1@OnAccessor
  001f5	38 9f 84 13 00
	00		 cmp	 BYTE PTR [edi+4996], bl
  001fb	74 22		 je	 SHORT $LN52@OnAccessor
  001fd	e8 00 00 00 00	 call	 ?GetSingleton@ioMyInfo@@SAAAV1@XZ ; ioMyInfo::GetSingleton
  00202	ff 75 e8	 push	 DWORD PTR _iCharIndex$536094[ebp]
  00205	8b b0 c8 00 00
	00		 mov	 esi, DWORD PTR [eax+200]
  0020b	e8 00 00 00 00	 call	 ?GetSingleton@ioMyInfo@@SAAAV1@XZ ; ioMyInfo::GetSingleton
  00210	8b c8		 mov	 ecx, eax
  00212	e8 00 00 00 00	 call	 ?GetCharArray@ioMyInfo@@QAEHK@Z ; ioMyInfo::GetCharArray
  00217	3b f0		 cmp	 esi, eax

; 294  : 				bSelectChar = false;
; 295  : 			
; 296  : 			if( pOwner && bSelectChar && !pPlayStage->IsModeStateResult() )

  00219	0f 85 47 01 00
	00		 jne	 $LN1@OnAccessor
$LN52@OnAccessor:
  0021f	8b 4d 0c	 mov	 ecx, DWORD PTR _pPlayStage$[ebp]
  00222	e8 00 00 00 00	 call	 ?IsModeStateResult@ioPlayStage@@QAE_NXZ ; ioPlayStage::IsModeStateResult
  00227	84 c0		 test	 al, al
  00229	0f 85 37 01 00
	00		 jne	 $LN1@OnAccessor

; 297  : 			{
; 298  : 				if ( !bEquip )
; 299  : 				{
; 300  : 					int iEquipAccessorySlot = iSlot + ES_RING;

  0022f	0f b6 45 0b	 movzx	 eax, BYTE PTR _iSlot$536098[ebp]

; 301  : 					pOwner->SetEquipAccessoryInfo( iSlot, 0, 0, 0 );

  00233	8b cf		 mov	 ecx, edi
  00235	38 5d e4	 cmp	 BYTE PTR _bEquip$536099[ebp], bl
  00238	75 1d		 jne	 SHORT $LN12@OnAccessor
  0023a	53		 push	 ebx
  0023b	53		 push	 ebx
  0023c	53		 push	 ebx
  0023d	50		 push	 eax
  0023e	8d 70 06	 lea	 esi, DWORD PTR [eax+6]
  00241	e8 00 00 00 00	 call	 ?SetEquipAccessoryInfo@ioBaseChar@@QAEXHHHH@Z ; ioBaseChar::SetEquipAccessoryInfo

; 302  : 					pOwner->GetEquipSlot()->ReleaseItem( (EquipSlot)iEquipAccessorySlot );

  00246	8b 8f 48 03 00
	00		 mov	 ecx, DWORD PTR [edi+840]
  0024c	56		 push	 esi
  0024d	e8 00 00 00 00	 call	 ?ReleaseItem@ioEquipSlot@@QAEPAVioItem@@W4EquipSlot@@@Z ; ioEquipSlot::ReleaseItem

; 303  : 				}
; 304  : 				else

  00252	e9 fc 00 00 00	 jmp	 $LN26@OnAccessor
$LN12@OnAccessor:

; 305  : 				{
; 306  : 					pOwner->SetEquipAccessoryInfo( iSlot, iSlotIndex, iAccessoryCode, iRandomNum );

  00257	ff 75 dc	 push	 DWORD PTR _iRandomNum$536097[ebp]
  0025a	ff 75 e0	 push	 DWORD PTR _iAccessoryCode$536096[ebp]
  0025d	ff 75 ec	 push	 DWORD PTR _iSlotIndex$536095[ebp]
  00260	50		 push	 eax
  00261	e8 00 00 00 00	 call	 ?SetEquipAccessoryInfo@ioBaseChar@@QAEXHHHH@Z ; ioBaseChar::SetEquipAccessoryInfo

; 307  : 					ioItem *pNewItem = pPlayStage->CreateItem( iAccessoryCode );

  00266	ff 75 e0	 push	 DWORD PTR _iAccessoryCode$536096[ebp]
  00269	8b 4d 0c	 mov	 ecx, DWORD PTR _pPlayStage$[ebp]
  0026c	e8 00 00 00 00	 call	 ?CreateItem@ioPlayStage@@QAEPAVioItem@@K@Z ; ioPlayStage::CreateItem
  00271	8b f0		 mov	 esi, eax

; 308  : 					if ( pNewItem )

  00273	3b f3		 cmp	 esi, ebx
  00275	0f 84 d8 00 00
	00		 je	 $LN26@OnAccessor

; 309  : 					{
; 310  : 						pNewItem->SetOwnerName( szOwner );

  0027b	8d 45 c4	 lea	 eax, DWORD PTR _szOwner$[ebp]
  0027e	50		 push	 eax
  0027f	8d 8e 64 02 00
	00		 lea	 ecx, DWORD PTR [esi+612]
  00285	ff 15 00 00 00
	00		 call	 DWORD PTR __imp_??4ioHashString@@QAEAAV0@ABV0@@Z

; 311  : 						pNewItem->SetItemCreateIndex( iSlotIndex );

  0028b	8b 45 ec	 mov	 eax, DWORD PTR _iSlotIndex$536095[ebp]

; 312  : 						pNewItem->InitializeBeforeEquip( szOwner, NULL );

  0028e	53		 push	 ebx
  0028f	8d 4d c4	 lea	 ecx, DWORD PTR _szOwner$[ebp]
  00292	89 46 3c	 mov	 DWORD PTR [esi+60], eax
  00295	8b 06		 mov	 eax, DWORD PTR [esi]
  00297	51		 push	 ecx
  00298	8b ce		 mov	 ecx, esi
  0029a	ff 50 1c	 call	 DWORD PTR [eax+28]

; 313  : 						pNewItem->SetAccessoryRandomNum( iRandomNum );

  0029d	8b 45 dc	 mov	 eax, DWORD PTR _iRandomNum$536097[ebp]

; 314  : 						ioItem *pPreItem = pOwner->EquipItem( pNewItem, true );

  002a0	6a 01		 push	 1
  002a2	56		 push	 esi
  002a3	8b cf		 mov	 ecx, edi
  002a5	89 86 24 06 00
	00		 mov	 DWORD PTR [esi+1572], eax
  002ab	e8 00 00 00 00	 call	 ?EquipItem@ioBaseChar@@QAEPAVioItem@@PAV2@_N@Z ; ioBaseChar::EquipItem

; 315  : 						if ( pPreItem )

  002b0	3b c3		 cmp	 eax, ebx
  002b2	0f 84 9b 00 00
	00		 je	 $LN26@OnAccessor

; 316  : 							SAFEDELETE( pPreItem );

  002b8	8b 10		 mov	 edx, DWORD PTR [eax]
  002ba	6a 01		 push	 1
  002bc	8b c8		 mov	 ecx, eax
  002be	ff 92 b4 00 00
	00		 call	 DWORD PTR [edx+180]

; 317  : 					}
; 318  : 				}
; 319  : 
; 320  : 				if( pOwner->GetState() == CS_EXTRAITEM_CHANGE )
; 321  : 					pOwner->SetState( CS_DELAY );
; 322  : 				
; 323  : 			}
; 324  : 		}
; 325  : 	}

  002c4	e9 8a 00 00 00	 jmp	 $LN26@OnAccessor
$LN22@OnAccessor:

; 326  : 	else if ( eResult == STPK_DELETE_ACCESSORY_DATE )

  002c9	0f b6 45 f3	 movzx	 eax, BYTE PTR _eResult$[ebp]
  002cd	3d 72 25 00 00	 cmp	 eax, 9586		; 00002572H
  002d2	75 2e		 jne	 SHORT $LN5@OnAccessor

; 327  : 	{
; 328  : 		g_GUIMgr.SetMsgBox( MB_OK, NULL, STR(1) );

  002d4	53		 push	 ebx
  002d5	6a 01		 push	 1
  002d7	68 00 00 00 00	 push	 OFFSET ??_C@_00CNPNBAHC@?$AA@
  002dc	68 00 00 00 00	 push	 OFFSET ??_C@_0CK@FNJAPFKK@ioAccessoryInfoManager?3?3OnAccess@
  002e1	ff 15 00 00 00
	00		 call	 DWORD PTR __imp_?GetSingleton@ioStringManager@@SAAAV1@XZ
  002e7	8b c8		 mov	 ecx, eax
  002e9	ff 15 00 00 00
	00		 call	 DWORD PTR __imp_?GetString@ioStringManager@@QAEPADPBD0HW4FileNamePrefix@1@@Z
  002ef	50		 push	 eax
  002f0	53		 push	 ebx
  002f1	53		 push	 ebx
  002f2	e8 00 00 00 00	 call	 ?GetSingleton@ioSP2GUIManager@@SAAAV1@XZ ; ioSP2GUIManager::GetSingleton
  002f7	50		 push	 eax
  002f8	e8 00 00 00 00	 call	 ?SetMsgBox@ioSP2GUIManager@@QAAXHPAVioWnd@@PBDZZ ; ioSP2GUIManager::SetMsgBox
  002fd	83 c4 10	 add	 esp, 16			; 00000010H

; 329  : 		return;

  00300	eb 64		 jmp	 SHORT $LN1@OnAccessor
$LN5@OnAccessor:

; 330  : 	}
; 331  : 	else
; 332  : 	{
; 333  : 		ioBaseChar *pOwner = pPlayStage->GetBaseChar( szOwner );

  00302	8b 4d 0c	 mov	 ecx, DWORD PTR _pPlayStage$[ebp]
  00305	8d 45 c4	 lea	 eax, DWORD PTR _szOwner$[ebp]
  00308	50		 push	 eax
  00309	e8 00 00 00 00	 call	 ?GetBaseChar@ioPlayStage@@QAEPAVioBaseChar@@ABVioHashString@@@Z ; ioPlayStage::GetBaseChar

; 334  : 		if( pPlayStage->GetModeType() != MT_MYROOM && !pOwner )

  0030e	8b 4d 0c	 mov	 ecx, DWORD PTR _pPlayStage$[ebp]
  00311	8b f8		 mov	 edi, eax
  00313	e8 00 00 00 00	 call	 ?GetModeType@ioPlayStage@@QBE?AW4ModeType@@XZ ; ioPlayStage::GetModeType
  00318	3b fb		 cmp	 edi, ebx

; 335  : 			return;

  0031a	74 4a		 je	 SHORT $LN1@OnAccessor

; 336  : 
; 337  : 		if( pOwner && pOwner->IsOwnerChar() )

  0031c	38 9f 84 13 00
	00		 cmp	 BYTE PTR [edi+4996], bl
  00322	74 42		 je	 SHORT $LN1@OnAccessor

; 338  : 		{
; 339  : 			g_GUIMgr.SetMsgBox( MB_OK, NULL, STR(2), eResult );

  00324	0f b6 45 f3	 movzx	 eax, BYTE PTR _eResult$[ebp]
  00328	50		 push	 eax
  00329	53		 push	 ebx
  0032a	6a 02		 push	 2
  0032c	68 00 00 00 00	 push	 OFFSET ??_C@_00CNPNBAHC@?$AA@
  00331	68 00 00 00 00	 push	 OFFSET ??_C@_0CK@FNJAPFKK@ioAccessoryInfoManager?3?3OnAccess@
  00336	ff 15 00 00 00
	00		 call	 DWORD PTR __imp_?GetSingleton@ioStringManager@@SAAAV1@XZ
  0033c	8b c8		 mov	 ecx, eax
  0033e	ff 15 00 00 00
	00		 call	 DWORD PTR __imp_?GetString@ioStringManager@@QAEPADPBD0HW4FileNamePrefix@1@@Z
  00344	50		 push	 eax
  00345	53		 push	 ebx
  00346	53		 push	 ebx
  00347	e8 00 00 00 00	 call	 ?GetSingleton@ioSP2GUIManager@@SAAAV1@XZ ; ioSP2GUIManager::GetSingleton
  0034c	8b c8		 mov	 ecx, eax
  0034e	e8 00 00 00 00	 call	 ?SetMsgBox@ioSP2GUIManager@@QAEXHPAVioWnd@@PBDH@Z ; ioSP2GUIManager::SetMsgBox
$LN26@OnAccessor:

; 340  : 
; 341  : 			if( pOwner->GetState() == CS_EXTRAITEM_CHANGE )

  00353	80 bf 10 03 00
	00 2c		 cmp	 BYTE PTR [edi+784], 44	; 0000002cH
  0035a	75 0a		 jne	 SHORT $LN1@OnAccessor

; 342  : 				pOwner->SetState( CS_DELAY );

  0035c	6a 01		 push	 1
  0035e	53		 push	 ebx
  0035f	8b cf		 mov	 ecx, edi
  00361	e8 00 00 00 00	 call	 ?SetState@ioBaseChar@@QAEXH_N@Z ; ioBaseChar::SetState
$LN1@OnAccessor:

; 343  : 		}
; 344  : 	}
; 345  : 	
; 346  : }

  00366	83 4d fc ff	 or	 DWORD PTR __$EHRec$[ebp+8], -1
  0036a	8d 4d c4	 lea	 ecx, DWORD PTR _szOwner$[ebp]
  0036d	ff 15 00 00 00
	00		 call	 DWORD PTR __imp_??1ioHashString@@QAE@XZ
$LN24@OnAccessor:
  00373	e8 00 00 00 00	 call	 __EH_epilog3
  00378	c2 08 00	 ret	 8
_TEXT	ENDS
;	COMDAT text$x
text$x	SEGMENT
__unwindfunclet$?OnAccessoryChange@ioAccessoryInfoManager@@QAEXAAVSP2Packet@@PAVioPlayStage@@@Z$0:
  00000	8d 4d c4	 lea	 ecx, DWORD PTR _szOwner$[ebp]
  00003	ff 25 00 00 00
	00		 jmp	 DWORD PTR __imp_??1ioHashString@@QAE@XZ
__ehhandler$?OnAccessoryChange@ioAccessoryInfoManager@@QAEXAAVSP2Packet@@PAVioPlayStage@@@Z:
  00009	8b 54 24 08	 mov	 edx, DWORD PTR [esp+8]
  0000d	8d 42 0c	 lea	 eax, DWORD PTR [edx+12]
  00010	8b 4a c0	 mov	 ecx, DWORD PTR [edx-64]
  00013	33 c8		 xor	 ecx, eax
  00015	e8 00 00 00 00	 call	 @__security_check_cookie@4
  0001a	b8 00 00 00 00	 mov	 eax, OFFSET __ehfuncinfo$?OnAccessoryChange@ioAccessoryInfoManager@@QAEXAAVSP2Packet@@PAVioPlayStage@@@Z
  0001f	e9 00 00 00 00	 jmp	 ___CxxFrameHandler3
text$x	ENDS
?OnAccessoryChange@ioAccessoryInfoManager@@QAEXAAVSP2Packet@@PAVioPlayStage@@@Z ENDP ; ioAccessoryInfoManager::OnAccessoryChange
PUBLIC	??0?$_Vector_val@VioComplexStringPrinter@@V?$allocator@VioComplexStringPrinter@@@std@@@std@@QAE@V?$allocator@VioComplexStringPrinter@@@1@@Z ; std::_Vector_val<ioComplexStringPrinter,std::allocator<ioComplexStringPrinter> >::_Vector_val<ioComplexStringPrinter,std::allocator<ioComplexStringPrinter> >
; Function compile flags: /Ogsp
; File c:\program files (x86)\microsoft visual studio 10.0\vc\include\vector
;	COMDAT ??0?$_Vector_val@VioComplexStringPrinter@@V?$allocator@VioComplexStringPrinter@@@std@@@std@@QAE@V?$allocator@VioComplexStringPrinter@@@1@@Z
_TEXT	SEGMENT
__Al$ = 8						; size = 1
??0?$_Vector_val@VioComplexStringPrinter@@V?$allocator@VioComplexStringPrinter@@@std@@@std@@QAE@V?$allocator@VioComplexStringPrinter@@@1@@Z PROC ; std::_Vector_val<ioComplexStringPrinter,std::allocator<ioComplexStringPrinter> >::_Vector_val<ioComplexStringPrinter,std::allocator<ioComplexStringPrinter> >, COMDAT
; _this$ = ecx

; 426  : 		{	// construct allocator from _Al

  00000	8b c1		 mov	 eax, ecx

; 427  : 		_Myfirst = 0;

  00002	33 c9		 xor	 ecx, ecx
  00004	89 08		 mov	 DWORD PTR [eax], ecx

; 428  : 		_Mylast = 0;

  00006	89 48 04	 mov	 DWORD PTR [eax+4], ecx

; 429  : 		_Myend = 0;

  00009	89 48 08	 mov	 DWORD PTR [eax+8], ecx

; 430  : 		}

  0000c	c2 04 00	 ret	 4
??0?$_Vector_val@VioComplexStringPrinter@@V?$allocator@VioComplexStringPrinter@@@std@@@std@@QAE@V?$allocator@VioComplexStringPrinter@@@1@@Z ENDP ; std::_Vector_val<ioComplexStringPrinter,std::allocator<ioComplexStringPrinter> >::_Vector_val<ioComplexStringPrinter,std::allocator<ioComplexStringPrinter> >
_TEXT	ENDS
PUBLIC	?max_size@?$vector@VioComplexStringPrinter@@V?$allocator@VioComplexStringPrinter@@@std@@@std@@QBEIXZ ; std::vector<ioComplexStringPrinter,std::allocator<ioComplexStringPrinter> >::max_size
; Function compile flags: /Ogsp
;	COMDAT ?max_size@?$vector@VioComplexStringPrinter@@V?$allocator@VioComplexStringPrinter@@@std@@@std@@QBEIXZ
_TEXT	SEGMENT
?max_size@?$vector@VioComplexStringPrinter@@V?$allocator@VioComplexStringPrinter@@@std@@@std@@QBEIXZ PROC ; std::vector<ioComplexStringPrinter,std::allocator<ioComplexStringPrinter> >::max_size, COMDAT
; _this$ = ecx

; 884  : 		return (this->_Alval.max_size());

  00000	b8 ff ff ff 07	 mov	 eax, 134217727		; 07ffffffH

; 885  : 		}

  00005	c3		 ret	 0
?max_size@?$vector@VioComplexStringPrinter@@V?$allocator@VioComplexStringPrinter@@@std@@@std@@QBEIXZ ENDP ; std::vector<ioComplexStringPrinter,std::allocator<ioComplexStringPrinter> >::max_size
_TEXT	ENDS
PUBLIC	?_Grow_to@?$vector@VioComplexStringPrinter@@V?$allocator@VioComplexStringPrinter@@@std@@@std@@IBEII@Z ; std::vector<ioComplexStringPrinter,std::allocator<ioComplexStringPrinter> >::_Grow_to
; Function compile flags: /Ogsp
;	COMDAT ?_Grow_to@?$vector@VioComplexStringPrinter@@V?$allocator@VioComplexStringPrinter@@@std@@@std@@IBEII@Z
_TEXT	SEGMENT
__Count$ = 8						; size = 4
?_Grow_to@?$vector@VioComplexStringPrinter@@V?$allocator@VioComplexStringPrinter@@@std@@@std@@IBEII@Z PROC ; std::vector<ioComplexStringPrinter,std::allocator<ioComplexStringPrinter> >::_Grow_to, COMDAT
; _this$ = ecx

; 1274 : 		{	// grow by 50% or at least to _Count

  00000	55		 push	 ebp
  00001	8b ec		 mov	 ebp, esp

; 1275 : 		size_type _Capacity = capacity();

  00003	8b 41 08	 mov	 eax, DWORD PTR [ecx+8]
  00006	2b 01		 sub	 eax, DWORD PTR [ecx]

; 1276 : 
; 1277 : 		_Capacity = max_size() - _Capacity / 2 < _Capacity
; 1278 : 			? 0 : _Capacity + _Capacity / 2;	// try to grow by 50%

  00008	ba ff ff ff 07	 mov	 edx, 134217727		; 07ffffffH
  0000d	c1 f8 05	 sar	 eax, 5
  00010	8b c8		 mov	 ecx, eax
  00012	d1 e9		 shr	 ecx, 1
  00014	2b d1		 sub	 edx, ecx
  00016	3b d0		 cmp	 edx, eax
  00018	73 04		 jae	 SHORT $LN4@Grow_to
  0001a	33 c0		 xor	 eax, eax
  0001c	eb 02		 jmp	 SHORT $LN5@Grow_to
$LN4@Grow_to:
  0001e	03 c1		 add	 eax, ecx
$LN5@Grow_to:

; 1279 : 		if (_Capacity < _Count)

  00020	3b 45 08	 cmp	 eax, DWORD PTR __Count$[ebp]

; 1280 : 			_Capacity = _Count;

  00023	0f 42 45 08	 cmovb	 eax, DWORD PTR __Count$[ebp]

; 1281 : 		return (_Capacity);
; 1282 : 		}

  00027	5d		 pop	 ebp
  00028	c2 04 00	 ret	 4
?_Grow_to@?$vector@VioComplexStringPrinter@@V?$allocator@VioComplexStringPrinter@@@std@@@std@@IBEII@Z ENDP ; std::vector<ioComplexStringPrinter,std::allocator<ioComplexStringPrinter> >::_Grow_to
_TEXT	ENDS
PUBLIC	?allocate@?$allocator@VioComplexStringPrinter@@@std@@QAEPAVioComplexStringPrinter@@I@Z ; std::allocator<ioComplexStringPrinter>::allocate
; Function compile flags: /Ogsp
; File c:\program files (x86)\microsoft visual studio 10.0\vc\include\xmemory
;	COMDAT ?allocate@?$allocator@VioComplexStringPrinter@@@std@@QAEPAVioComplexStringPrinter@@I@Z
_TEXT	SEGMENT
__Count$ = 8						; size = 4
?allocate@?$allocator@VioComplexStringPrinter@@@std@@QAEPAVioComplexStringPrinter@@I@Z PROC ; std::allocator<ioComplexStringPrinter>::allocate, COMDAT
; _this$ = ecx

; 186  : 		{	// allocate array of _Count elements

  00000	55		 push	 ebp
  00001	8b ec		 mov	 ebp, esp

; 187  : 		return (_Allocate(_Count, (pointer)0));

  00003	6a 00		 push	 0
  00005	ff 75 08	 push	 DWORD PTR __Count$[ebp]
  00008	e8 00 00 00 00	 call	 ??$_Allocate@VioComplexStringPrinter@@@std@@YAPAVioComplexStringPrinter@@IPAV1@@Z ; std::_Allocate<ioComplexStringPrinter>
  0000d	59		 pop	 ecx
  0000e	59		 pop	 ecx

; 188  : 		}

  0000f	5d		 pop	 ebp
  00010	c2 04 00	 ret	 4
?allocate@?$allocator@VioComplexStringPrinter@@@std@@QAEPAVioComplexStringPrinter@@I@Z ENDP ; std::allocator<ioComplexStringPrinter>::allocate
_TEXT	ENDS
PUBLIC	__$ArrayPad$
PUBLIC	??$SetTitle_e@$0M@@ioINILoader@@QAEXAAY0M@$$CBD@Z ; ioINILoader::SetTitle_e<12>
EXTRN	__imp_?SetTitle@ioINILoader@@QAEXPBD@Z:PROC
EXTRN	___security_cookie:DWORD
; Function compile flags: /Ogsp
; File d:\lost saga for developer\youtube\tutorial\source\src\io3dengine\ioiniloader.h
;	COMDAT ??$SetTitle_e@$0M@@ioINILoader@@QAEXAAY0M@$$CBD@Z
_TEXT	SEGMENT
__t$ = -20						; size = 12
__$ArrayPad$ = -4					; size = 4
_t$ = 8							; size = 4
??$SetTitle_e@$0M@@ioINILoader@@QAEXAAY0M@$$CBD@Z PROC	; ioINILoader::SetTitle_e<12>, COMDAT
; _this$ = ecx

; 188  : 	{

  00000	55		 push	 ebp
  00001	8b ec		 mov	 ebp, esp
  00003	83 ec 14	 sub	 esp, 20			; 00000014H
  00006	a1 00 00 00 00	 mov	 eax, DWORD PTR ___security_cookie
  0000b	33 c5		 xor	 eax, ebp
  0000d	89 45 fc	 mov	 DWORD PTR __$ArrayPad$[ebp], eax
  00010	8b 45 08	 mov	 eax, DWORD PTR _t$[ebp]

; 189  : 		_ENCSTR(t, _t);

  00013	8a 10		 mov	 dl, BYTE PTR [eax]
  00015	56		 push	 esi
  00016	8b f1		 mov	 esi, ecx
  00018	84 d2		 test	 dl, dl
  0001a	0f 84 32 01 00
	00		 je	 $LN96@SetTitle_e
  00020	80 f2 ed	 xor	 dl, -19			; ffffffedH
  00023	88 55 ec	 mov	 BYTE PTR __t$[ebp], dl
  00026	8a 50 01	 mov	 dl, BYTE PTR [eax+1]
  00029	84 d2		 test	 dl, dl
  0002b	0f 84 1b 01 00
	00		 je	 $LN95@SetTitle_e
  00031	80 f2 ec	 xor	 dl, -20			; ffffffecH
  00034	88 55 ed	 mov	 BYTE PTR __t$[ebp+1], dl
  00037	8a 50 02	 mov	 dl, BYTE PTR [eax+2]
  0003a	84 d2		 test	 dl, dl
  0003c	0f 84 04 01 00
	00		 je	 $LN94@SetTitle_e
  00042	b1 eb		 mov	 cl, -21			; ffffffebH
  00044	32 d1		 xor	 dl, cl
  00046	88 55 ee	 mov	 BYTE PTR __t$[ebp+2], dl
  00049	8a 50 03	 mov	 dl, BYTE PTR [eax+3]
  0004c	84 d2		 test	 dl, dl
  0004e	0f 84 ec 00 00
	00		 je	 $LN93@SetTitle_e
  00054	80 f2 ea	 xor	 dl, -22			; ffffffeaH
  00057	88 55 ef	 mov	 BYTE PTR __t$[ebp+3], dl
  0005a	8a 50 04	 mov	 dl, BYTE PTR [eax+4]
  0005d	84 d2		 test	 dl, dl
  0005f	0f 84 d5 00 00
	00		 je	 $LN92@SetTitle_e
  00065	80 f2 ed	 xor	 dl, -19			; ffffffedH
  00068	88 55 f0	 mov	 BYTE PTR __t$[ebp+4], dl
  0006b	8a 50 05	 mov	 dl, BYTE PTR [eax+5]
  0006e	84 d2		 test	 dl, dl
  00070	0f 84 be 00 00
	00		 je	 $LN91@SetTitle_e
  00076	80 f2 ec	 xor	 dl, -20			; ffffffecH
  00079	88 55 f1	 mov	 BYTE PTR __t$[ebp+5], dl
  0007c	8a 50 06	 mov	 dl, BYTE PTR [eax+6]
  0007f	84 d2		 test	 dl, dl
  00081	0f 84 a8 00 00
	00		 je	 $LN90@SetTitle_e
  00087	32 d1		 xor	 dl, cl
  00089	88 55 f2	 mov	 BYTE PTR __t$[ebp+6], dl
  0008c	8a 50 07	 mov	 dl, BYTE PTR [eax+7]
  0008f	84 d2		 test	 dl, dl
  00091	0f 84 92 00 00
	00		 je	 $LN89@SetTitle_e
  00097	80 f2 ea	 xor	 dl, -22			; ffffffeaH
  0009a	88 55 f3	 mov	 BYTE PTR __t$[ebp+7], dl
  0009d	8a 50 08	 mov	 dl, BYTE PTR [eax+8]
  000a0	84 d2		 test	 dl, dl
  000a2	74 7f		 je	 SHORT $LN88@SetTitle_e
  000a4	80 f2 ed	 xor	 dl, -19			; ffffffedH
  000a7	88 55 f4	 mov	 BYTE PTR __t$[ebp+8], dl
  000aa	8a 50 09	 mov	 dl, BYTE PTR [eax+9]
  000ad	84 d2		 test	 dl, dl
  000af	74 6c		 je	 SHORT $LN87@SetTitle_e
  000b1	80 f2 ec	 xor	 dl, -20			; ffffffecH
  000b4	88 55 f5	 mov	 BYTE PTR __t$[ebp+9], dl
  000b7	8a 50 0a	 mov	 dl, BYTE PTR [eax+10]
  000ba	84 d2		 test	 dl, dl
  000bc	74 5a		 je	 SHORT $LN86@SetTitle_e
  000be	32 d1		 xor	 dl, cl
  000c0	80 78 0b 00	 cmp	 BYTE PTR [eax+11], 0
  000c4	88 55 f6	 mov	 BYTE PTR __t$[ebp+10], dl
  000c7	0f 84 89 00 00
	00		 je	 $LN1@SetTitle_e
  000cd	8a 50 0c	 mov	 dl, BYTE PTR [eax+12]
  000d0	84 d2		 test	 dl, dl
  000d2	74 3e		 je	 SHORT $LN84@SetTitle_e
  000d4	80 f2 ed	 xor	 dl, -19			; ffffffedH
  000d7	88 55 f8	 mov	 BYTE PTR __t$[ebp+12], dl
  000da	8a 50 0d	 mov	 dl, BYTE PTR [eax+13]
  000dd	84 d2		 test	 dl, dl
  000df	74 2b		 je	 SHORT $LN83@SetTitle_e
  000e1	80 f2 ec	 xor	 dl, -20			; ffffffecH
  000e4	88 55 f9	 mov	 BYTE PTR __t$[ebp+13], dl
  000e7	8a 50 0e	 mov	 dl, BYTE PTR [eax+14]
  000ea	84 d2		 test	 dl, dl
  000ec	74 19		 je	 SHORT $LN82@SetTitle_e
  000ee	8a 40 0f	 mov	 al, BYTE PTR [eax+15]
  000f1	32 d1		 xor	 dl, cl
  000f3	88 55 fa	 mov	 BYTE PTR __t$[ebp+14], dl
  000f6	84 c0		 test	 al, al
  000f8	74 07		 je	 SHORT $LN81@SetTitle_e
  000fa	34 ea		 xor	 al, -22			; ffffffeaH
  000fc	88 45 fb	 mov	 BYTE PTR __t$[ebp+15], al
  000ff	eb 55		 jmp	 SHORT $LN1@SetTitle_e
$LN81@SetTitle_e:
  00101	c6 45 fb ea	 mov	 BYTE PTR __t$[ebp+15], -22 ; ffffffeaH
  00105	eb 4f		 jmp	 SHORT $LN1@SetTitle_e
$LN82@SetTitle_e:
  00107	88 4d fa	 mov	 BYTE PTR __t$[ebp+14], cl
  0010a	eb 4a		 jmp	 SHORT $LN1@SetTitle_e
$LN83@SetTitle_e:
  0010c	c6 45 f9 ec	 mov	 BYTE PTR __t$[ebp+13], -20 ; ffffffecH
  00110	eb 44		 jmp	 SHORT $LN1@SetTitle_e
$LN84@SetTitle_e:
  00112	c6 45 f8 ed	 mov	 BYTE PTR __t$[ebp+12], -19 ; ffffffedH
  00116	eb 3e		 jmp	 SHORT $LN1@SetTitle_e
$LN86@SetTitle_e:
  00118	88 4d f6	 mov	 BYTE PTR __t$[ebp+10], cl
  0011b	eb 39		 jmp	 SHORT $LN1@SetTitle_e
$LN87@SetTitle_e:
  0011d	c6 45 f5 ec	 mov	 BYTE PTR __t$[ebp+9], -20 ; ffffffecH
  00121	eb 33		 jmp	 SHORT $LN1@SetTitle_e
$LN88@SetTitle_e:
  00123	c6 45 f4 ed	 mov	 BYTE PTR __t$[ebp+8], -19 ; ffffffedH
  00127	eb 2d		 jmp	 SHORT $LN1@SetTitle_e
$LN89@SetTitle_e:
  00129	c6 45 f3 ea	 mov	 BYTE PTR __t$[ebp+7], -22 ; ffffffeaH
  0012d	eb 27		 jmp	 SHORT $LN1@SetTitle_e
$LN90@SetTitle_e:
  0012f	88 4d f2	 mov	 BYTE PTR __t$[ebp+6], cl
  00132	eb 22		 jmp	 SHORT $LN1@SetTitle_e
$LN91@SetTitle_e:
  00134	c6 45 f1 ec	 mov	 BYTE PTR __t$[ebp+5], -20 ; ffffffecH
  00138	eb 1c		 jmp	 SHORT $LN1@SetTitle_e
$LN92@SetTitle_e:
  0013a	c6 45 f0 ed	 mov	 BYTE PTR __t$[ebp+4], -19 ; ffffffedH
  0013e	eb 16		 jmp	 SHORT $LN1@SetTitle_e
$LN93@SetTitle_e:
  00140	c6 45 ef ea	 mov	 BYTE PTR __t$[ebp+3], -22 ; ffffffeaH
  00144	eb 10		 jmp	 SHORT $LN1@SetTitle_e
$LN94@SetTitle_e:
  00146	c6 45 ee eb	 mov	 BYTE PTR __t$[ebp+2], -21 ; ffffffebH
  0014a	eb 0a		 jmp	 SHORT $LN1@SetTitle_e
$LN95@SetTitle_e:
  0014c	c6 45 ed ec	 mov	 BYTE PTR __t$[ebp+1], -20 ; ffffffecH
  00150	eb 04		 jmp	 SHORT $LN1@SetTitle_e
$LN96@SetTitle_e:
  00152	c6 45 ec ed	 mov	 BYTE PTR __t$[ebp], -19	; ffffffedH
$LN1@SetTitle_e:
  00156	6a 02		 push	 2
  00158	8d 45 ec	 lea	 eax, DWORD PTR __t$[ebp]
  0015b	c6 45 f7 00	 mov	 BYTE PTR __t$[ebp+11], 0
  0015f	5a		 pop	 edx
$LL104@SetTitle_e:
  00160	81 30 ed ec eb
	ea		 xor	 DWORD PTR [eax], -353637139 ; eaebecedH
  00166	83 c0 04	 add	 eax, 4
  00169	4a		 dec	 edx
  0016a	75 f4		 jne	 SHORT $LL104@SetTitle_e
  0016c	6a 08		 push	 8
  0016e	58		 pop	 eax
$LL101@SetTitle_e:
  0016f	8b c8		 mov	 ecx, eax
  00171	81 e1 03 00 00
	80		 and	 ecx, -2147483645	; 80000003H
  00177	79 05		 jns	 SHORT $LN111@SetTitle_e
  00179	49		 dec	 ecx
  0017a	83 c9 fc	 or	 ecx, -4			; fffffffcH
  0017d	41		 inc	 ecx
$LN111@SetTitle_e:
  0017e	b2 ed		 mov	 dl, -19			; ffffffedH
  00180	2a d1		 sub	 dl, cl
  00182	30 54 05 ec	 xor	 BYTE PTR __t$[ebp+eax], dl
  00186	40		 inc	 eax
  00187	83 f8 0b	 cmp	 eax, 11			; 0000000bH
  0018a	7c e3		 jl	 SHORT $LL101@SetTitle_e

; 190  : 		SetTitle(_t);

  0018c	8d 45 ec	 lea	 eax, DWORD PTR __t$[ebp]
  0018f	50		 push	 eax
  00190	8b ce		 mov	 ecx, esi
  00192	ff 15 00 00 00
	00		 call	 DWORD PTR __imp_?SetTitle@ioINILoader@@QAEXPBD@Z

; 191  : 	}

  00198	8b 4d fc	 mov	 ecx, DWORD PTR __$ArrayPad$[ebp]
  0019b	33 cd		 xor	 ecx, ebp
  0019d	5e		 pop	 esi
  0019e	e8 00 00 00 00	 call	 @__security_check_cookie@4
  001a3	c9		 leave
  001a4	c2 04 00	 ret	 4
??$SetTitle_e@$0M@@ioINILoader@@QAEXAAY0M@$$CBD@Z ENDP	; ioINILoader::SetTitle_e<12>
_TEXT	ENDS
PUBLIC	__$ArrayPad$
PUBLIC	??$LoadFloat_e@$0BD@@ioINILoader@@QAEMAAY0BD@$$CBDM@Z ; ioINILoader::LoadFloat_e<19>
EXTRN	__imp_?LoadFloat@ioINILoader@@QAEMPBDM@Z:PROC
EXTRN	__fltused:DWORD
; Function compile flags: /Ogsp
;	COMDAT ??$LoadFloat_e@$0BD@@ioINILoader@@QAEMAAY0BD@$$CBDM@Z
_TEXT	SEGMENT
__k$ = -28						; size = 19
__$ArrayPad$ = -4					; size = 4
_k$ = 8							; size = 4
_f$ = 12						; size = 4
??$LoadFloat_e@$0BD@@ioINILoader@@QAEMAAY0BD@$$CBDM@Z PROC ; ioINILoader::LoadFloat_e<19>, COMDAT
; _this$ = ecx

; 135  : 	{

  00000	55		 push	 ebp
  00001	8b ec		 mov	 ebp, esp
  00003	83 ec 1c	 sub	 esp, 28			; 0000001cH
  00006	a1 00 00 00 00	 mov	 eax, DWORD PTR ___security_cookie
  0000b	33 c5		 xor	 eax, ebp
  0000d	89 45 fc	 mov	 DWORD PTR __$ArrayPad$[ebp], eax
  00010	8b 45 08	 mov	 eax, DWORD PTR _k$[ebp]

; 136  : 		_ENCSTR(k, _k);

  00013	8a 10		 mov	 dl, BYTE PTR [eax]
  00015	56		 push	 esi
  00016	8b f1		 mov	 esi, ecx
  00018	84 d2		 test	 dl, dl
  0001a	0f 84 cf 01 00
	00		 je	 $LN96@LoadFloat_
  00020	80 f2 ed	 xor	 dl, -19			; ffffffedH
  00023	88 55 e4	 mov	 BYTE PTR __k$[ebp], dl
  00026	8a 50 01	 mov	 dl, BYTE PTR [eax+1]
  00029	84 d2		 test	 dl, dl
  0002b	0f 84 b8 01 00
	00		 je	 $LN95@LoadFloat_
  00031	b1 ec		 mov	 cl, -20			; ffffffecH
  00033	32 d1		 xor	 dl, cl
  00035	88 55 e5	 mov	 BYTE PTR __k$[ebp+1], dl
  00038	8a 50 02	 mov	 dl, BYTE PTR [eax+2]
  0003b	84 d2		 test	 dl, dl
  0003d	0f 84 a0 01 00
	00		 je	 $LN94@LoadFloat_
  00043	80 f2 eb	 xor	 dl, -21			; ffffffebH
  00046	88 55 e6	 mov	 BYTE PTR __k$[ebp+2], dl
  00049	8a 50 03	 mov	 dl, BYTE PTR [eax+3]
  0004c	84 d2		 test	 dl, dl
  0004e	0f 84 89 01 00
	00		 je	 $LN93@LoadFloat_
  00054	80 f2 ea	 xor	 dl, -22			; ffffffeaH
  00057	88 55 e7	 mov	 BYTE PTR __k$[ebp+3], dl
  0005a	8a 50 04	 mov	 dl, BYTE PTR [eax+4]
  0005d	84 d2		 test	 dl, dl
  0005f	0f 84 72 01 00
	00		 je	 $LN92@LoadFloat_
  00065	80 f2 ed	 xor	 dl, -19			; ffffffedH
  00068	88 55 e8	 mov	 BYTE PTR __k$[ebp+4], dl
  0006b	8a 50 05	 mov	 dl, BYTE PTR [eax+5]
  0006e	84 d2		 test	 dl, dl
  00070	0f 84 5c 01 00
	00		 je	 $LN91@LoadFloat_
  00076	32 d1		 xor	 dl, cl
  00078	88 55 e9	 mov	 BYTE PTR __k$[ebp+5], dl
  0007b	8a 50 06	 mov	 dl, BYTE PTR [eax+6]
  0007e	84 d2		 test	 dl, dl
  00080	0f 84 46 01 00
	00		 je	 $LN90@LoadFloat_
  00086	80 f2 eb	 xor	 dl, -21			; ffffffebH
  00089	88 55 ea	 mov	 BYTE PTR __k$[ebp+6], dl
  0008c	8a 50 07	 mov	 dl, BYTE PTR [eax+7]
  0008f	84 d2		 test	 dl, dl
  00091	0f 84 2f 01 00
	00		 je	 $LN89@LoadFloat_
  00097	80 f2 ea	 xor	 dl, -22			; ffffffeaH
  0009a	88 55 eb	 mov	 BYTE PTR __k$[ebp+7], dl
  0009d	8a 50 08	 mov	 dl, BYTE PTR [eax+8]
  000a0	84 d2		 test	 dl, dl
  000a2	0f 84 18 01 00
	00		 je	 $LN88@LoadFloat_
  000a8	80 f2 ed	 xor	 dl, -19			; ffffffedH
  000ab	88 55 ec	 mov	 BYTE PTR __k$[ebp+8], dl
  000ae	8a 50 09	 mov	 dl, BYTE PTR [eax+9]
  000b1	84 d2		 test	 dl, dl
  000b3	0f 84 02 01 00
	00		 je	 $LN87@LoadFloat_
  000b9	32 d1		 xor	 dl, cl
  000bb	88 55 ed	 mov	 BYTE PTR __k$[ebp+9], dl
  000be	8a 50 0a	 mov	 dl, BYTE PTR [eax+10]
  000c1	84 d2		 test	 dl, dl
  000c3	0f 84 ec 00 00
	00		 je	 $LN86@LoadFloat_
  000c9	80 f2 eb	 xor	 dl, -21			; ffffffebH
  000cc	88 55 ee	 mov	 BYTE PTR __k$[ebp+10], dl
  000cf	8a 50 0b	 mov	 dl, BYTE PTR [eax+11]
  000d2	84 d2		 test	 dl, dl
  000d4	0f 84 d5 00 00
	00		 je	 $LN85@LoadFloat_
  000da	80 f2 ea	 xor	 dl, -22			; ffffffeaH
  000dd	88 55 ef	 mov	 BYTE PTR __k$[ebp+11], dl
  000e0	8a 50 0c	 mov	 dl, BYTE PTR [eax+12]
  000e3	84 d2		 test	 dl, dl
  000e5	0f 84 be 00 00
	00		 je	 $LN84@LoadFloat_
  000eb	80 f2 ed	 xor	 dl, -19			; ffffffedH
  000ee	88 55 f0	 mov	 BYTE PTR __k$[ebp+12], dl
  000f1	8a 50 0d	 mov	 dl, BYTE PTR [eax+13]
  000f4	84 d2		 test	 dl, dl
  000f6	0f 84 a8 00 00
	00		 je	 $LN83@LoadFloat_
  000fc	32 d1		 xor	 dl, cl
  000fe	88 55 f1	 mov	 BYTE PTR __k$[ebp+13], dl
  00101	8a 50 0e	 mov	 dl, BYTE PTR [eax+14]
  00104	84 d2		 test	 dl, dl
  00106	0f 84 92 00 00
	00		 je	 $LN82@LoadFloat_
  0010c	80 f2 eb	 xor	 dl, -21			; ffffffebH
  0010f	88 55 f2	 mov	 BYTE PTR __k$[ebp+14], dl
  00112	8a 50 0f	 mov	 dl, BYTE PTR [eax+15]
  00115	84 d2		 test	 dl, dl
  00117	74 7f		 je	 SHORT $LN81@LoadFloat_
  00119	80 f2 ea	 xor	 dl, -22			; ffffffeaH
  0011c	88 55 f3	 mov	 BYTE PTR __k$[ebp+15], dl
  0011f	8a 50 10	 mov	 dl, BYTE PTR [eax+16]
  00122	84 d2		 test	 dl, dl
  00124	74 6c		 je	 SHORT $LN80@LoadFloat_
  00126	80 f2 ed	 xor	 dl, -19			; ffffffedH
  00129	88 55 f4	 mov	 BYTE PTR __k$[ebp+16], dl
  0012c	8a 50 11	 mov	 dl, BYTE PTR [eax+17]
  0012f	84 d2		 test	 dl, dl
  00131	74 5a		 je	 SHORT $LN79@LoadFloat_
  00133	32 d1		 xor	 dl, cl
  00135	80 78 12 00	 cmp	 BYTE PTR [eax+18], 0
  00139	88 55 f5	 mov	 BYTE PTR __k$[ebp+17], dl
  0013c	0f 84 b1 00 00
	00		 je	 $LN1@LoadFloat_
  00142	8a 50 13	 mov	 dl, BYTE PTR [eax+19]
  00145	84 d2		 test	 dl, dl
  00147	74 3e		 je	 SHORT $LN77@LoadFloat_
  00149	80 f2 ea	 xor	 dl, -22			; ffffffeaH
  0014c	88 55 f7	 mov	 BYTE PTR __k$[ebp+19], dl
  0014f	8a 50 14	 mov	 dl, BYTE PTR [eax+20]
  00152	84 d2		 test	 dl, dl
  00154	74 2b		 je	 SHORT $LN76@LoadFloat_
  00156	80 f2 ed	 xor	 dl, -19			; ffffffedH
  00159	88 55 f8	 mov	 BYTE PTR __k$[ebp+20], dl
  0015c	8a 50 15	 mov	 dl, BYTE PTR [eax+21]
  0015f	84 d2		 test	 dl, dl
  00161	74 19		 je	 SHORT $LN75@LoadFloat_
  00163	8a 40 16	 mov	 al, BYTE PTR [eax+22]
  00166	32 d1		 xor	 dl, cl
  00168	88 55 f9	 mov	 BYTE PTR __k$[ebp+21], dl
  0016b	84 c0		 test	 al, al
  0016d	74 07		 je	 SHORT $LN74@LoadFloat_
  0016f	34 eb		 xor	 al, -21			; ffffffebH
  00171	88 45 fa	 mov	 BYTE PTR __k$[ebp+22], al
  00174	eb 7d		 jmp	 SHORT $LN1@LoadFloat_
$LN74@LoadFloat_:
  00176	c6 45 fa eb	 mov	 BYTE PTR __k$[ebp+22], -21 ; ffffffebH
  0017a	eb 77		 jmp	 SHORT $LN1@LoadFloat_
$LN75@LoadFloat_:
  0017c	88 4d f9	 mov	 BYTE PTR __k$[ebp+21], cl
  0017f	eb 72		 jmp	 SHORT $LN1@LoadFloat_
$LN76@LoadFloat_:
  00181	c6 45 f8 ed	 mov	 BYTE PTR __k$[ebp+20], -19 ; ffffffedH
  00185	eb 6c		 jmp	 SHORT $LN1@LoadFloat_
$LN77@LoadFloat_:
  00187	c6 45 f7 ea	 mov	 BYTE PTR __k$[ebp+19], -22 ; ffffffeaH
  0018b	eb 66		 jmp	 SHORT $LN1@LoadFloat_
$LN79@LoadFloat_:
  0018d	88 4d f5	 mov	 BYTE PTR __k$[ebp+17], cl
  00190	eb 61		 jmp	 SHORT $LN1@LoadFloat_
$LN80@LoadFloat_:
  00192	c6 45 f4 ed	 mov	 BYTE PTR __k$[ebp+16], -19 ; ffffffedH
  00196	eb 5b		 jmp	 SHORT $LN1@LoadFloat_
$LN81@LoadFloat_:
  00198	c6 45 f3 ea	 mov	 BYTE PTR __k$[ebp+15], -22 ; ffffffeaH
  0019c	eb 55		 jmp	 SHORT $LN1@LoadFloat_
$LN82@LoadFloat_:
  0019e	c6 45 f2 eb	 mov	 BYTE PTR __k$[ebp+14], -21 ; ffffffebH
  001a2	eb 4f		 jmp	 SHORT $LN1@LoadFloat_
$LN83@LoadFloat_:
  001a4	88 4d f1	 mov	 BYTE PTR __k$[ebp+13], cl
  001a7	eb 4a		 jmp	 SHORT $LN1@LoadFloat_
$LN84@LoadFloat_:
  001a9	c6 45 f0 ed	 mov	 BYTE PTR __k$[ebp+12], -19 ; ffffffedH
  001ad	eb 44		 jmp	 SHORT $LN1@LoadFloat_
$LN85@LoadFloat_:
  001af	c6 45 ef ea	 mov	 BYTE PTR __k$[ebp+11], -22 ; ffffffeaH
  001b3	eb 3e		 jmp	 SHORT $LN1@LoadFloat_
$LN86@LoadFloat_:
  001b5	c6 45 ee eb	 mov	 BYTE PTR __k$[ebp+10], -21 ; ffffffebH
  001b9	eb 38		 jmp	 SHORT $LN1@LoadFloat_
$LN87@LoadFloat_:
  001bb	88 4d ed	 mov	 BYTE PTR __k$[ebp+9], cl
  001be	eb 33		 jmp	 SHORT $LN1@LoadFloat_
$LN88@LoadFloat_:
  001c0	c6 45 ec ed	 mov	 BYTE PTR __k$[ebp+8], -19 ; ffffffedH
  001c4	eb 2d		 jmp	 SHORT $LN1@LoadFloat_
$LN89@LoadFloat_:
  001c6	c6 45 eb ea	 mov	 BYTE PTR __k$[ebp+7], -22 ; ffffffeaH
  001ca	eb 27		 jmp	 SHORT $LN1@LoadFloat_
$LN90@LoadFloat_:
  001cc	c6 45 ea eb	 mov	 BYTE PTR __k$[ebp+6], -21 ; ffffffebH
  001d0	eb 21		 jmp	 SHORT $LN1@LoadFloat_
$LN91@LoadFloat_:
  001d2	88 4d e9	 mov	 BYTE PTR __k$[ebp+5], cl
  001d5	eb 1c		 jmp	 SHORT $LN1@LoadFloat_
$LN92@LoadFloat_:
  001d7	c6 45 e8 ed	 mov	 BYTE PTR __k$[ebp+4], -19 ; ffffffedH
  001db	eb 16		 jmp	 SHORT $LN1@LoadFloat_
$LN93@LoadFloat_:
  001dd	c6 45 e7 ea	 mov	 BYTE PTR __k$[ebp+3], -22 ; ffffffeaH
  001e1	eb 10		 jmp	 SHORT $LN1@LoadFloat_
$LN94@LoadFloat_:
  001e3	c6 45 e6 eb	 mov	 BYTE PTR __k$[ebp+2], -21 ; ffffffebH
  001e7	eb 0a		 jmp	 SHORT $LN1@LoadFloat_
$LN95@LoadFloat_:
  001e9	c6 45 e5 ec	 mov	 BYTE PTR __k$[ebp+1], -20 ; ffffffecH
  001ed	eb 04		 jmp	 SHORT $LN1@LoadFloat_
$LN96@LoadFloat_:
  001ef	c6 45 e4 ed	 mov	 BYTE PTR __k$[ebp], -19	; ffffffedH
$LN1@LoadFloat_:
  001f3	6a 04		 push	 4
  001f5	8d 45 e4	 lea	 eax, DWORD PTR __k$[ebp]
  001f8	c6 45 f6 00	 mov	 BYTE PTR __k$[ebp+18], 0
  001fc	5a		 pop	 edx
$LL104@LoadFloat_:
  001fd	81 30 ed ec eb
	ea		 xor	 DWORD PTR [eax], -353637139 ; eaebecedH
  00203	83 c0 04	 add	 eax, 4
  00206	4a		 dec	 edx
  00207	75 f4		 jne	 SHORT $LL104@LoadFloat_
  00209	6a 10		 push	 16			; 00000010H
  0020b	58		 pop	 eax
$LL101@LoadFloat_:
  0020c	8b c8		 mov	 ecx, eax
  0020e	81 e1 03 00 00
	80		 and	 ecx, -2147483645	; 80000003H
  00214	79 05		 jns	 SHORT $LN111@LoadFloat_
  00216	49		 dec	 ecx
  00217	83 c9 fc	 or	 ecx, -4			; fffffffcH
  0021a	41		 inc	 ecx
$LN111@LoadFloat_:
  0021b	b2 ed		 mov	 dl, -19			; ffffffedH
  0021d	2a d1		 sub	 dl, cl
  0021f	30 54 05 e4	 xor	 BYTE PTR __k$[ebp+eax], dl
  00223	40		 inc	 eax
  00224	83 f8 12	 cmp	 eax, 18			; 00000012H
  00227	7c e3		 jl	 SHORT $LL101@LoadFloat_

; 137  : 		return LoadFloat(_k, f);

  00229	f3 0f 10 45 0c	 movss	 xmm0, DWORD PTR _f$[ebp]
  0022e	51		 push	 ecx
  0022f	8d 45 e4	 lea	 eax, DWORD PTR __k$[ebp]
  00232	f3 0f 11 04 24	 movss	 DWORD PTR [esp], xmm0
  00237	50		 push	 eax
  00238	8b ce		 mov	 ecx, esi
  0023a	ff 15 00 00 00
	00		 call	 DWORD PTR __imp_?LoadFloat@ioINILoader@@QAEMPBDM@Z

; 138  : 	}

  00240	8b 4d fc	 mov	 ecx, DWORD PTR __$ArrayPad$[ebp]
  00243	33 cd		 xor	 ecx, ebp
  00245	5e		 pop	 esi
  00246	e8 00 00 00 00	 call	 @__security_check_cookie@4
  0024b	c9		 leave
  0024c	c2 08 00	 ret	 8
??$LoadFloat_e@$0BD@@ioINILoader@@QAEMAAY0BD@$$CBDM@Z ENDP ; ioINILoader::LoadFloat_e<19>
_TEXT	ENDS
PUBLIC	__$ArrayPad$
PUBLIC	??$LoadFloat_e@$0P@@ioINILoader@@QAEMAAY0P@$$CBDM@Z ; ioINILoader::LoadFloat_e<15>
; Function compile flags: /Ogsp
;	COMDAT ??$LoadFloat_e@$0P@@ioINILoader@@QAEMAAY0P@$$CBDM@Z
_TEXT	SEGMENT
__k$ = -24						; size = 15
__$ArrayPad$ = -4					; size = 4
_k$ = 8							; size = 4
_f$ = 12						; size = 4
??$LoadFloat_e@$0P@@ioINILoader@@QAEMAAY0P@$$CBDM@Z PROC ; ioINILoader::LoadFloat_e<15>, COMDAT
; _this$ = ecx

; 135  : 	{

  00000	55		 push	 ebp
  00001	8b ec		 mov	 ebp, esp
  00003	83 ec 18	 sub	 esp, 24			; 00000018H
  00006	a1 00 00 00 00	 mov	 eax, DWORD PTR ___security_cookie
  0000b	33 c5		 xor	 eax, ebp
  0000d	89 45 fc	 mov	 DWORD PTR __$ArrayPad$[ebp], eax
  00010	8b 45 08	 mov	 eax, DWORD PTR _k$[ebp]

; 136  : 		_ENCSTR(k, _k);

  00013	8a 10		 mov	 dl, BYTE PTR [eax]
  00015	56		 push	 esi
  00016	8b f1		 mov	 esi, ecx
  00018	84 d2		 test	 dl, dl
  0001a	0f 84 75 01 00
	00		 je	 $LN96@LoadFloat_@2
  00020	80 f2 ed	 xor	 dl, -19			; ffffffedH
  00023	88 55 e8	 mov	 BYTE PTR __k$[ebp], dl
  00026	8a 50 01	 mov	 dl, BYTE PTR [eax+1]
  00029	84 d2		 test	 dl, dl
  0002b	0f 84 5e 01 00
	00		 je	 $LN95@LoadFloat_@2
  00031	b1 ec		 mov	 cl, -20			; ffffffecH
  00033	32 d1		 xor	 dl, cl
  00035	88 55 e9	 mov	 BYTE PTR __k$[ebp+1], dl
  00038	8a 50 02	 mov	 dl, BYTE PTR [eax+2]
  0003b	84 d2		 test	 dl, dl
  0003d	0f 84 46 01 00
	00		 je	 $LN94@LoadFloat_@2
  00043	80 f2 eb	 xor	 dl, -21			; ffffffebH
  00046	88 55 ea	 mov	 BYTE PTR __k$[ebp+2], dl
  00049	8a 50 03	 mov	 dl, BYTE PTR [eax+3]
  0004c	84 d2		 test	 dl, dl
  0004e	0f 84 2f 01 00
	00		 je	 $LN93@LoadFloat_@2
  00054	80 f2 ea	 xor	 dl, -22			; ffffffeaH
  00057	88 55 eb	 mov	 BYTE PTR __k$[ebp+3], dl
  0005a	8a 50 04	 mov	 dl, BYTE PTR [eax+4]
  0005d	84 d2		 test	 dl, dl
  0005f	0f 84 18 01 00
	00		 je	 $LN92@LoadFloat_@2
  00065	80 f2 ed	 xor	 dl, -19			; ffffffedH
  00068	88 55 ec	 mov	 BYTE PTR __k$[ebp+4], dl
  0006b	8a 50 05	 mov	 dl, BYTE PTR [eax+5]
  0006e	84 d2		 test	 dl, dl
  00070	0f 84 02 01 00
	00		 je	 $LN91@LoadFloat_@2
  00076	32 d1		 xor	 dl, cl
  00078	88 55 ed	 mov	 BYTE PTR __k$[ebp+5], dl
  0007b	8a 50 06	 mov	 dl, BYTE PTR [eax+6]
  0007e	84 d2		 test	 dl, dl
  00080	0f 84 ec 00 00
	00		 je	 $LN90@LoadFloat_@2
  00086	80 f2 eb	 xor	 dl, -21			; ffffffebH
  00089	88 55 ee	 mov	 BYTE PTR __k$[ebp+6], dl
  0008c	8a 50 07	 mov	 dl, BYTE PTR [eax+7]
  0008f	84 d2		 test	 dl, dl
  00091	0f 84 d5 00 00
	00		 je	 $LN89@LoadFloat_@2
  00097	80 f2 ea	 xor	 dl, -22			; ffffffeaH
  0009a	88 55 ef	 mov	 BYTE PTR __k$[ebp+7], dl
  0009d	8a 50 08	 mov	 dl, BYTE PTR [eax+8]
  000a0	84 d2		 test	 dl, dl
  000a2	0f 84 be 00 00
	00		 je	 $LN88@LoadFloat_@2
  000a8	80 f2 ed	 xor	 dl, -19			; ffffffedH
  000ab	88 55 f0	 mov	 BYTE PTR __k$[ebp+8], dl
  000ae	8a 50 09	 mov	 dl, BYTE PTR [eax+9]
  000b1	84 d2		 test	 dl, dl
  000b3	0f 84 a8 00 00
	00		 je	 $LN87@LoadFloat_@2
  000b9	32 d1		 xor	 dl, cl
  000bb	88 55 f1	 mov	 BYTE PTR __k$[ebp+9], dl
  000be	8a 50 0a	 mov	 dl, BYTE PTR [eax+10]
  000c1	84 d2		 test	 dl, dl
  000c3	0f 84 92 00 00
	00		 je	 $LN86@LoadFloat_@2
  000c9	80 f2 eb	 xor	 dl, -21			; ffffffebH
  000cc	88 55 f2	 mov	 BYTE PTR __k$[ebp+10], dl
  000cf	8a 50 0b	 mov	 dl, BYTE PTR [eax+11]
  000d2	84 d2		 test	 dl, dl
  000d4	74 7f		 je	 SHORT $LN85@LoadFloat_@2
  000d6	80 f2 ea	 xor	 dl, -22			; ffffffeaH
  000d9	88 55 f3	 mov	 BYTE PTR __k$[ebp+11], dl
  000dc	8a 50 0c	 mov	 dl, BYTE PTR [eax+12]
  000df	84 d2		 test	 dl, dl
  000e1	74 6c		 je	 SHORT $LN84@LoadFloat_@2
  000e3	80 f2 ed	 xor	 dl, -19			; ffffffedH
  000e6	88 55 f4	 mov	 BYTE PTR __k$[ebp+12], dl
  000e9	8a 50 0d	 mov	 dl, BYTE PTR [eax+13]
  000ec	84 d2		 test	 dl, dl
  000ee	74 5a		 je	 SHORT $LN83@LoadFloat_@2
  000f0	32 d1		 xor	 dl, cl
  000f2	80 78 0e 00	 cmp	 BYTE PTR [eax+14], 0
  000f6	88 55 f5	 mov	 BYTE PTR __k$[ebp+13], dl
  000f9	0f 84 9a 00 00
	00		 je	 $LN1@LoadFloat_@2
  000ff	8a 50 0f	 mov	 dl, BYTE PTR [eax+15]
  00102	84 d2		 test	 dl, dl
  00104	74 3e		 je	 SHORT $LN81@LoadFloat_@2
  00106	80 f2 ea	 xor	 dl, -22			; ffffffeaH
  00109	88 55 f7	 mov	 BYTE PTR __k$[ebp+15], dl
  0010c	8a 50 10	 mov	 dl, BYTE PTR [eax+16]
  0010f	84 d2		 test	 dl, dl
  00111	74 2b		 je	 SHORT $LN80@LoadFloat_@2
  00113	80 f2 ed	 xor	 dl, -19			; ffffffedH
  00116	88 55 f8	 mov	 BYTE PTR __k$[ebp+16], dl
  00119	8a 50 11	 mov	 dl, BYTE PTR [eax+17]
  0011c	84 d2		 test	 dl, dl
  0011e	74 19		 je	 SHORT $LN79@LoadFloat_@2
  00120	8a 40 12	 mov	 al, BYTE PTR [eax+18]
  00123	32 d1		 xor	 dl, cl
  00125	88 55 f9	 mov	 BYTE PTR __k$[ebp+17], dl
  00128	84 c0		 test	 al, al
  0012a	74 07		 je	 SHORT $LN78@LoadFloat_@2
  0012c	34 eb		 xor	 al, -21			; ffffffebH
  0012e	88 45 fa	 mov	 BYTE PTR __k$[ebp+18], al
  00131	eb 66		 jmp	 SHORT $LN1@LoadFloat_@2
$LN78@LoadFloat_@2:
  00133	c6 45 fa eb	 mov	 BYTE PTR __k$[ebp+18], -21 ; ffffffebH
  00137	eb 60		 jmp	 SHORT $LN1@LoadFloat_@2
$LN79@LoadFloat_@2:
  00139	88 4d f9	 mov	 BYTE PTR __k$[ebp+17], cl
  0013c	eb 5b		 jmp	 SHORT $LN1@LoadFloat_@2
$LN80@LoadFloat_@2:
  0013e	c6 45 f8 ed	 mov	 BYTE PTR __k$[ebp+16], -19 ; ffffffedH
  00142	eb 55		 jmp	 SHORT $LN1@LoadFloat_@2
$LN81@LoadFloat_@2:
  00144	c6 45 f7 ea	 mov	 BYTE PTR __k$[ebp+15], -22 ; ffffffeaH
  00148	eb 4f		 jmp	 SHORT $LN1@LoadFloat_@2
$LN83@LoadFloat_@2:
  0014a	88 4d f5	 mov	 BYTE PTR __k$[ebp+13], cl
  0014d	eb 4a		 jmp	 SHORT $LN1@LoadFloat_@2
$LN84@LoadFloat_@2:
  0014f	c6 45 f4 ed	 mov	 BYTE PTR __k$[ebp+12], -19 ; ffffffedH
  00153	eb 44		 jmp	 SHORT $LN1@LoadFloat_@2
$LN85@LoadFloat_@2:
  00155	c6 45 f3 ea	 mov	 BYTE PTR __k$[ebp+11], -22 ; ffffffeaH
  00159	eb 3e		 jmp	 SHORT $LN1@LoadFloat_@2
$LN86@LoadFloat_@2:
  0015b	c6 45 f2 eb	 mov	 BYTE PTR __k$[ebp+10], -21 ; ffffffebH
  0015f	eb 38		 jmp	 SHORT $LN1@LoadFloat_@2
$LN87@LoadFloat_@2:
  00161	88 4d f1	 mov	 BYTE PTR __k$[ebp+9], cl
  00164	eb 33		 jmp	 SHORT $LN1@LoadFloat_@2
$LN88@LoadFloat_@2:
  00166	c6 45 f0 ed	 mov	 BYTE PTR __k$[ebp+8], -19 ; ffffffedH
  0016a	eb 2d		 jmp	 SHORT $LN1@LoadFloat_@2
$LN89@LoadFloat_@2:
  0016c	c6 45 ef ea	 mov	 BYTE PTR __k$[ebp+7], -22 ; ffffffeaH
  00170	eb 27		 jmp	 SHORT $LN1@LoadFloat_@2
$LN90@LoadFloat_@2:
  00172	c6 45 ee eb	 mov	 BYTE PTR __k$[ebp+6], -21 ; ffffffebH
  00176	eb 21		 jmp	 SHORT $LN1@LoadFloat_@2
$LN91@LoadFloat_@2:
  00178	88 4d ed	 mov	 BYTE PTR __k$[ebp+5], cl
  0017b	eb 1c		 jmp	 SHORT $LN1@LoadFloat_@2
$LN92@LoadFloat_@2:
  0017d	c6 45 ec ed	 mov	 BYTE PTR __k$[ebp+4], -19 ; ffffffedH
  00181	eb 16		 jmp	 SHORT $LN1@LoadFloat_@2
$LN93@LoadFloat_@2:
  00183	c6 45 eb ea	 mov	 BYTE PTR __k$[ebp+3], -22 ; ffffffeaH
  00187	eb 10		 jmp	 SHORT $LN1@LoadFloat_@2
$LN94@LoadFloat_@2:
  00189	c6 45 ea eb	 mov	 BYTE PTR __k$[ebp+2], -21 ; ffffffebH
  0018d	eb 0a		 jmp	 SHORT $LN1@LoadFloat_@2
$LN95@LoadFloat_@2:
  0018f	c6 45 e9 ec	 mov	 BYTE PTR __k$[ebp+1], -20 ; ffffffecH
  00193	eb 04		 jmp	 SHORT $LN1@LoadFloat_@2
$LN96@LoadFloat_@2:
  00195	c6 45 e8 ed	 mov	 BYTE PTR __k$[ebp], -19	; ffffffedH
$LN1@LoadFloat_@2:
  00199	6a 03		 push	 3
  0019b	8d 45 e8	 lea	 eax, DWORD PTR __k$[ebp]
  0019e	c6 45 f6 00	 mov	 BYTE PTR __k$[ebp+14], 0
  001a2	5a		 pop	 edx
$LL104@LoadFloat_@2:
  001a3	81 30 ed ec eb
	ea		 xor	 DWORD PTR [eax], -353637139 ; eaebecedH
  001a9	83 c0 04	 add	 eax, 4
  001ac	4a		 dec	 edx
  001ad	75 f4		 jne	 SHORT $LL104@LoadFloat_@2
  001af	6a 0c		 push	 12			; 0000000cH
  001b1	58		 pop	 eax
$LL101@LoadFloat_@2:
  001b2	8b c8		 mov	 ecx, eax
  001b4	81 e1 03 00 00
	80		 and	 ecx, -2147483645	; 80000003H
  001ba	79 05		 jns	 SHORT $LN111@LoadFloat_@2
  001bc	49		 dec	 ecx
  001bd	83 c9 fc	 or	 ecx, -4			; fffffffcH
  001c0	41		 inc	 ecx
$LN111@LoadFloat_@2:
  001c1	b2 ed		 mov	 dl, -19			; ffffffedH
  001c3	2a d1		 sub	 dl, cl
  001c5	30 54 05 e8	 xor	 BYTE PTR __k$[ebp+eax], dl
  001c9	40		 inc	 eax
  001ca	83 f8 0e	 cmp	 eax, 14			; 0000000eH
  001cd	7c e3		 jl	 SHORT $LL101@LoadFloat_@2

; 137  : 		return LoadFloat(_k, f);

  001cf	f3 0f 10 45 0c	 movss	 xmm0, DWORD PTR _f$[ebp]
  001d4	51		 push	 ecx
  001d5	8d 45 e8	 lea	 eax, DWORD PTR __k$[ebp]
  001d8	f3 0f 11 04 24	 movss	 DWORD PTR [esp], xmm0
  001dd	50		 push	 eax
  001de	8b ce		 mov	 ecx, esi
  001e0	ff 15 00 00 00
	00		 call	 DWORD PTR __imp_?LoadFloat@ioINILoader@@QAEMPBDM@Z

; 138  : 	}

  001e6	8b 4d fc	 mov	 ecx, DWORD PTR __$ArrayPad$[ebp]
  001e9	33 cd		 xor	 ecx, ebp
  001eb	5e		 pop	 esi
  001ec	e8 00 00 00 00	 call	 @__security_check_cookie@4
  001f1	c9		 leave
  001f2	c2 08 00	 ret	 8
??$LoadFloat_e@$0P@@ioINILoader@@QAEMAAY0P@$$CBDM@Z ENDP ; ioINILoader::LoadFloat_e<15>
_TEXT	ENDS
PUBLIC	??$encodeString@$0BJ@@ioINILoader_e@@AAEPADAAY0BJ@$$CBDPAD@Z ; ioINILoader_e::encodeString<25>
; Function compile flags: /Ogsp
;	COMDAT ??$encodeString@$0BJ@@ioINILoader_e@@AAEPADAAY0BJ@$$CBDPAD@Z
_TEXT	SEGMENT
_s$ = 8							; size = 4
_e$ = 12						; size = 4
??$encodeString@$0BJ@@ioINILoader_e@@AAEPADAAY0BJ@$$CBDPAD@Z PROC ; ioINILoader_e::encodeString<25>, COMDAT
; _this$ = ecx

; 215  : 	{

  00000	55		 push	 ebp
  00001	8b ec		 mov	 ebp, esp

; 216  : 		__ENCSTR(s, e);

  00003	8b 4d 08	 mov	 ecx, DWORD PTR _s$[ebp]
  00006	8a 11		 mov	 dl, BYTE PTR [ecx]
  00008	8b 45 0c	 mov	 eax, DWORD PTR _e$[ebp]
  0000b	53		 push	 ebx
  0000c	84 d2		 test	 dl, dl
  0000e	0f 84 6a 04 00
	00		 je	 $LN96@encodeStri
  00014	80 f2 ed	 xor	 dl, -19			; ffffffedH
  00017	88 10		 mov	 BYTE PTR [eax], dl
  00019	8a 51 01	 mov	 dl, BYTE PTR [ecx+1]
  0001c	84 d2		 test	 dl, dl
  0001e	0f 84 54 04 00
	00		 je	 $LN95@encodeStri
  00024	80 f2 ec	 xor	 dl, -20			; ffffffecH
  00027	88 50 01	 mov	 BYTE PTR [eax+1], dl
  0002a	8a 51 02	 mov	 dl, BYTE PTR [ecx+2]
  0002d	84 d2		 test	 dl, dl
  0002f	0f 84 3d 04 00
	00		 je	 $LN94@encodeStri
  00035	b3 eb		 mov	 bl, -21			; ffffffebH
  00037	32 d3		 xor	 dl, bl
  00039	88 50 02	 mov	 BYTE PTR [eax+2], dl
  0003c	8a 51 03	 mov	 dl, BYTE PTR [ecx+3]
  0003f	84 d2		 test	 dl, dl
  00041	0f 84 25 04 00
	00		 je	 $LN93@encodeStri
  00047	80 f2 ea	 xor	 dl, -22			; ffffffeaH
  0004a	88 50 03	 mov	 BYTE PTR [eax+3], dl
  0004d	8a 51 04	 mov	 dl, BYTE PTR [ecx+4]
  00050	84 d2		 test	 dl, dl
  00052	0f 84 0e 04 00
	00		 je	 $LN92@encodeStri
  00058	80 f2 ed	 xor	 dl, -19			; ffffffedH
  0005b	88 50 04	 mov	 BYTE PTR [eax+4], dl
  0005e	8a 51 05	 mov	 dl, BYTE PTR [ecx+5]
  00061	84 d2		 test	 dl, dl
  00063	0f 84 f7 03 00
	00		 je	 $LN91@encodeStri
  00069	80 f2 ec	 xor	 dl, -20			; ffffffecH
  0006c	88 50 05	 mov	 BYTE PTR [eax+5], dl
  0006f	8a 51 06	 mov	 dl, BYTE PTR [ecx+6]
  00072	84 d2		 test	 dl, dl
  00074	0f 84 e1 03 00
	00		 je	 $LN90@encodeStri
  0007a	32 d3		 xor	 dl, bl
  0007c	88 50 06	 mov	 BYTE PTR [eax+6], dl
  0007f	8a 51 07	 mov	 dl, BYTE PTR [ecx+7]
  00082	84 d2		 test	 dl, dl
  00084	0f 84 cb 03 00
	00		 je	 $LN89@encodeStri
  0008a	80 f2 ea	 xor	 dl, -22			; ffffffeaH
  0008d	88 50 07	 mov	 BYTE PTR [eax+7], dl
  00090	8a 51 08	 mov	 dl, BYTE PTR [ecx+8]
  00093	84 d2		 test	 dl, dl
  00095	0f 84 b4 03 00
	00		 je	 $LN88@encodeStri
  0009b	80 f2 ed	 xor	 dl, -19			; ffffffedH
  0009e	88 50 08	 mov	 BYTE PTR [eax+8], dl
  000a1	8a 51 09	 mov	 dl, BYTE PTR [ecx+9]
  000a4	84 d2		 test	 dl, dl
  000a6	0f 84 9d 03 00
	00		 je	 $LN87@encodeStri
  000ac	80 f2 ec	 xor	 dl, -20			; ffffffecH
  000af	88 50 09	 mov	 BYTE PTR [eax+9], dl
  000b2	8a 51 0a	 mov	 dl, BYTE PTR [ecx+10]
  000b5	84 d2		 test	 dl, dl
  000b7	0f 84 87 03 00
	00		 je	 $LN86@encodeStri
  000bd	32 d3		 xor	 dl, bl
  000bf	88 50 0a	 mov	 BYTE PTR [eax+10], dl
  000c2	8a 51 0b	 mov	 dl, BYTE PTR [ecx+11]
  000c5	84 d2		 test	 dl, dl
  000c7	0f 84 71 03 00
	00		 je	 $LN85@encodeStri
  000cd	80 f2 ea	 xor	 dl, -22			; ffffffeaH
  000d0	88 50 0b	 mov	 BYTE PTR [eax+11], dl
  000d3	8a 51 0c	 mov	 dl, BYTE PTR [ecx+12]
  000d6	84 d2		 test	 dl, dl
  000d8	0f 84 5a 03 00
	00		 je	 $LN84@encodeStri
  000de	80 f2 ed	 xor	 dl, -19			; ffffffedH
  000e1	88 50 0c	 mov	 BYTE PTR [eax+12], dl
  000e4	8a 51 0d	 mov	 dl, BYTE PTR [ecx+13]
  000e7	84 d2		 test	 dl, dl
  000e9	0f 84 43 03 00
	00		 je	 $LN83@encodeStri
  000ef	80 f2 ec	 xor	 dl, -20			; ffffffecH
  000f2	88 50 0d	 mov	 BYTE PTR [eax+13], dl
  000f5	8a 51 0e	 mov	 dl, BYTE PTR [ecx+14]
  000f8	84 d2		 test	 dl, dl
  000fa	0f 84 2d 03 00
	00		 je	 $LN82@encodeStri
  00100	32 d3		 xor	 dl, bl
  00102	88 50 0e	 mov	 BYTE PTR [eax+14], dl
  00105	8a 51 0f	 mov	 dl, BYTE PTR [ecx+15]
  00108	84 d2		 test	 dl, dl
  0010a	0f 84 17 03 00
	00		 je	 $LN81@encodeStri
  00110	80 f2 ea	 xor	 dl, -22			; ffffffeaH
  00113	88 50 0f	 mov	 BYTE PTR [eax+15], dl
  00116	8a 51 10	 mov	 dl, BYTE PTR [ecx+16]
  00119	84 d2		 test	 dl, dl
  0011b	0f 84 00 03 00
	00		 je	 $LN80@encodeStri
  00121	80 f2 ed	 xor	 dl, -19			; ffffffedH
  00124	88 50 10	 mov	 BYTE PTR [eax+16], dl
  00127	8a 51 11	 mov	 dl, BYTE PTR [ecx+17]
  0012a	84 d2		 test	 dl, dl
  0012c	0f 84 e9 02 00
	00		 je	 $LN79@encodeStri
  00132	80 f2 ec	 xor	 dl, -20			; ffffffecH
  00135	88 50 11	 mov	 BYTE PTR [eax+17], dl
  00138	8a 51 12	 mov	 dl, BYTE PTR [ecx+18]
  0013b	84 d2		 test	 dl, dl
  0013d	0f 84 d3 02 00
	00		 je	 $LN78@encodeStri
  00143	32 d3		 xor	 dl, bl
  00145	88 50 12	 mov	 BYTE PTR [eax+18], dl
  00148	8a 51 13	 mov	 dl, BYTE PTR [ecx+19]
  0014b	84 d2		 test	 dl, dl
  0014d	0f 84 bd 02 00
	00		 je	 $LN77@encodeStri
  00153	80 f2 ea	 xor	 dl, -22			; ffffffeaH
  00156	88 50 13	 mov	 BYTE PTR [eax+19], dl
  00159	8a 51 14	 mov	 dl, BYTE PTR [ecx+20]
  0015c	84 d2		 test	 dl, dl
  0015e	0f 84 a6 02 00
	00		 je	 $LN76@encodeStri
  00164	80 f2 ed	 xor	 dl, -19			; ffffffedH
  00167	88 50 14	 mov	 BYTE PTR [eax+20], dl
  0016a	8a 51 15	 mov	 dl, BYTE PTR [ecx+21]
  0016d	84 d2		 test	 dl, dl
  0016f	0f 84 8f 02 00
	00		 je	 $LN75@encodeStri
  00175	80 f2 ec	 xor	 dl, -20			; ffffffecH
  00178	88 50 15	 mov	 BYTE PTR [eax+21], dl
  0017b	8a 51 16	 mov	 dl, BYTE PTR [ecx+22]
  0017e	84 d2		 test	 dl, dl
  00180	0f 84 79 02 00
	00		 je	 $LN74@encodeStri
  00186	32 d3		 xor	 dl, bl
  00188	88 50 16	 mov	 BYTE PTR [eax+22], dl
  0018b	8a 51 17	 mov	 dl, BYTE PTR [ecx+23]
  0018e	84 d2		 test	 dl, dl
  00190	0f 84 60 02 00
	00		 je	 $LN73@encodeStri
  00196	80 f2 ea	 xor	 dl, -22			; ffffffeaH
  00199	88 50 17	 mov	 BYTE PTR [eax+23], dl
  0019c	8a 51 18	 mov	 dl, BYTE PTR [ecx+24]
  0019f	84 d2		 test	 dl, dl
  001a1	0f 84 46 02 00
	00		 je	 $LN72@encodeStri
  001a7	80 f2 ed	 xor	 dl, -19			; ffffffedH
  001aa	88 50 18	 mov	 BYTE PTR [eax+24], dl
  001ad	8a 51 19	 mov	 dl, BYTE PTR [ecx+25]
  001b0	84 d2		 test	 dl, dl
  001b2	0f 84 2c 02 00
	00		 je	 $LN71@encodeStri
  001b8	80 f2 ec	 xor	 dl, -20			; ffffffecH
  001bb	88 50 19	 mov	 BYTE PTR [eax+25], dl
  001be	8a 51 1a	 mov	 dl, BYTE PTR [ecx+26]
  001c1	84 d2		 test	 dl, dl
  001c3	0f 84 13 02 00
	00		 je	 $LN70@encodeStri
  001c9	32 d3		 xor	 dl, bl
  001cb	88 50 1a	 mov	 BYTE PTR [eax+26], dl
  001ce	8a 51 1b	 mov	 dl, BYTE PTR [ecx+27]
  001d1	84 d2		 test	 dl, dl
  001d3	0f 84 fa 01 00
	00		 je	 $LN69@encodeStri
  001d9	80 f2 ea	 xor	 dl, -22			; ffffffeaH
  001dc	88 50 1b	 mov	 BYTE PTR [eax+27], dl
  001df	8a 51 1c	 mov	 dl, BYTE PTR [ecx+28]
  001e2	84 d2		 test	 dl, dl
  001e4	0f 84 e0 01 00
	00		 je	 $LN68@encodeStri
  001ea	80 f2 ed	 xor	 dl, -19			; ffffffedH
  001ed	88 50 1c	 mov	 BYTE PTR [eax+28], dl
  001f0	8a 51 1d	 mov	 dl, BYTE PTR [ecx+29]
  001f3	84 d2		 test	 dl, dl
  001f5	0f 84 c6 01 00
	00		 je	 $LN67@encodeStri
  001fb	80 f2 ec	 xor	 dl, -20			; ffffffecH
  001fe	88 50 1d	 mov	 BYTE PTR [eax+29], dl
  00201	8a 51 1e	 mov	 dl, BYTE PTR [ecx+30]
  00204	84 d2		 test	 dl, dl
  00206	0f 84 ad 01 00
	00		 je	 $LN66@encodeStri
  0020c	32 d3		 xor	 dl, bl
  0020e	88 50 1e	 mov	 BYTE PTR [eax+30], dl
  00211	8a 51 1f	 mov	 dl, BYTE PTR [ecx+31]
  00214	84 d2		 test	 dl, dl
  00216	0f 84 94 01 00
	00		 je	 $LN65@encodeStri
  0021c	80 f2 ea	 xor	 dl, -22			; ffffffeaH
  0021f	88 50 1f	 mov	 BYTE PTR [eax+31], dl
  00222	8a 51 20	 mov	 dl, BYTE PTR [ecx+32]
  00225	84 d2		 test	 dl, dl
  00227	0f 84 7a 01 00
	00		 je	 $LN64@encodeStri
  0022d	80 f2 ed	 xor	 dl, -19			; ffffffedH
  00230	88 50 20	 mov	 BYTE PTR [eax+32], dl
  00233	8a 51 21	 mov	 dl, BYTE PTR [ecx+33]
  00236	84 d2		 test	 dl, dl
  00238	0f 84 60 01 00
	00		 je	 $LN63@encodeStri
  0023e	80 f2 ec	 xor	 dl, -20			; ffffffecH
  00241	88 50 21	 mov	 BYTE PTR [eax+33], dl
  00244	8a 51 22	 mov	 dl, BYTE PTR [ecx+34]
  00247	84 d2		 test	 dl, dl
  00249	0f 84 47 01 00
	00		 je	 $LN62@encodeStri
  0024f	32 d3		 xor	 dl, bl
  00251	88 50 22	 mov	 BYTE PTR [eax+34], dl
  00254	8a 51 23	 mov	 dl, BYTE PTR [ecx+35]
  00257	84 d2		 test	 dl, dl
  00259	0f 84 2e 01 00
	00		 je	 $LN61@encodeStri
  0025f	80 f2 ea	 xor	 dl, -22			; ffffffeaH
  00262	88 50 23	 mov	 BYTE PTR [eax+35], dl
  00265	8a 51 24	 mov	 dl, BYTE PTR [ecx+36]
  00268	84 d2		 test	 dl, dl
  0026a	0f 84 14 01 00
	00		 je	 $LN60@encodeStri
  00270	80 f2 ed	 xor	 dl, -19			; ffffffedH
  00273	88 50 24	 mov	 BYTE PTR [eax+36], dl
  00276	8a 51 25	 mov	 dl, BYTE PTR [ecx+37]
  00279	84 d2		 test	 dl, dl
  0027b	0f 84 fa 00 00
	00		 je	 $LN59@encodeStri
  00281	80 f2 ec	 xor	 dl, -20			; ffffffecH
  00284	88 50 25	 mov	 BYTE PTR [eax+37], dl
  00287	8a 51 26	 mov	 dl, BYTE PTR [ecx+38]
  0028a	84 d2		 test	 dl, dl
  0028c	0f 84 e1 00 00
	00		 je	 $LN58@encodeStri
  00292	32 d3		 xor	 dl, bl
  00294	88 50 26	 mov	 BYTE PTR [eax+38], dl
  00297	8a 51 27	 mov	 dl, BYTE PTR [ecx+39]
  0029a	84 d2		 test	 dl, dl
  0029c	0f 84 c8 00 00
	00		 je	 $LN57@encodeStri
  002a2	80 f2 ea	 xor	 dl, -22			; ffffffeaH
  002a5	88 50 27	 mov	 BYTE PTR [eax+39], dl
  002a8	8a 51 28	 mov	 dl, BYTE PTR [ecx+40]
  002ab	84 d2		 test	 dl, dl
  002ad	0f 84 ae 00 00
	00		 je	 $LN56@encodeStri
  002b3	80 f2 ed	 xor	 dl, -19			; ffffffedH
  002b6	88 50 28	 mov	 BYTE PTR [eax+40], dl
  002b9	8a 51 29	 mov	 dl, BYTE PTR [ecx+41]
  002bc	84 d2		 test	 dl, dl
  002be	0f 84 94 00 00
	00		 je	 $LN55@encodeStri
  002c4	80 f2 ec	 xor	 dl, -20			; ffffffecH
  002c7	88 50 29	 mov	 BYTE PTR [eax+41], dl
  002ca	8a 51 2a	 mov	 dl, BYTE PTR [ecx+42]
  002cd	84 d2		 test	 dl, dl
  002cf	74 7f		 je	 SHORT $LN54@encodeStri
  002d1	32 d3		 xor	 dl, bl
  002d3	88 50 2a	 mov	 BYTE PTR [eax+42], dl
  002d6	8a 51 2b	 mov	 dl, BYTE PTR [ecx+43]
  002d9	84 d2		 test	 dl, dl
  002db	74 6a		 je	 SHORT $LN53@encodeStri
  002dd	80 f2 ea	 xor	 dl, -22			; ffffffeaH
  002e0	88 50 2b	 mov	 BYTE PTR [eax+43], dl
  002e3	8a 51 2c	 mov	 dl, BYTE PTR [ecx+44]
  002e6	84 d2		 test	 dl, dl
  002e8	74 54		 je	 SHORT $LN52@encodeStri
  002ea	80 f2 ed	 xor	 dl, -19			; ffffffedH
  002ed	88 50 2c	 mov	 BYTE PTR [eax+44], dl
  002f0	8a 51 2d	 mov	 dl, BYTE PTR [ecx+45]
  002f3	84 d2		 test	 dl, dl
  002f5	74 3e		 je	 SHORT $LN51@encodeStri
  002f7	80 f2 ec	 xor	 dl, -20			; ffffffecH
  002fa	88 50 2d	 mov	 BYTE PTR [eax+45], dl
  002fd	8a 51 2e	 mov	 dl, BYTE PTR [ecx+46]
  00300	84 d2		 test	 dl, dl
  00302	74 29		 je	 SHORT $LN50@encodeStri
  00304	32 d3		 xor	 dl, bl
  00306	88 50 2e	 mov	 BYTE PTR [eax+46], dl
  00309	8a 51 2f	 mov	 dl, BYTE PTR [ecx+47]
  0030c	84 d2		 test	 dl, dl
  0030e	74 14		 je	 SHORT $LN49@encodeStri
  00310	80 f2 ea	 xor	 dl, -22			; ffffffeaH
  00313	88 50 2f	 mov	 BYTE PTR [eax+47], dl
  00316	8a 49 30	 mov	 cl, BYTE PTR [ecx+48]
  00319	80 f1 ed	 xor	 cl, -19			; ffffffedH
  0031c	88 48 30	 mov	 BYTE PTR [eax+48], cl
  0031f	e9 5d 01 00 00	 jmp	 $LN1@encodeStri
$LN49@encodeStri:
  00324	c6 40 2f ea	 mov	 BYTE PTR [eax+47], -22	; ffffffeaH
  00328	e9 54 01 00 00	 jmp	 $LN1@encodeStri
$LN50@encodeStri:
  0032d	88 58 2e	 mov	 BYTE PTR [eax+46], bl
  00330	e9 4c 01 00 00	 jmp	 $LN1@encodeStri
$LN51@encodeStri:
  00335	c6 40 2d ec	 mov	 BYTE PTR [eax+45], -20	; ffffffecH
  00339	e9 43 01 00 00	 jmp	 $LN1@encodeStri
$LN52@encodeStri:
  0033e	c6 40 2c ed	 mov	 BYTE PTR [eax+44], -19	; ffffffedH
  00342	e9 3a 01 00 00	 jmp	 $LN1@encodeStri
$LN53@encodeStri:
  00347	c6 40 2b ea	 mov	 BYTE PTR [eax+43], -22	; ffffffeaH
  0034b	e9 31 01 00 00	 jmp	 $LN1@encodeStri
$LN54@encodeStri:
  00350	88 58 2a	 mov	 BYTE PTR [eax+42], bl
  00353	e9 29 01 00 00	 jmp	 $LN1@encodeStri
$LN55@encodeStri:
  00358	c6 40 29 ec	 mov	 BYTE PTR [eax+41], -20	; ffffffecH
  0035c	e9 20 01 00 00	 jmp	 $LN1@encodeStri
$LN56@encodeStri:
  00361	c6 40 28 ed	 mov	 BYTE PTR [eax+40], -19	; ffffffedH
  00365	e9 17 01 00 00	 jmp	 $LN1@encodeStri
$LN57@encodeStri:
  0036a	c6 40 27 ea	 mov	 BYTE PTR [eax+39], -22	; ffffffeaH
  0036e	e9 0e 01 00 00	 jmp	 $LN1@encodeStri
$LN58@encodeStri:
  00373	88 58 26	 mov	 BYTE PTR [eax+38], bl
  00376	e9 06 01 00 00	 jmp	 $LN1@encodeStri
$LN59@encodeStri:
  0037b	c6 40 25 ec	 mov	 BYTE PTR [eax+37], -20	; ffffffecH
  0037f	e9 fd 00 00 00	 jmp	 $LN1@encodeStri
$LN60@encodeStri:
  00384	c6 40 24 ed	 mov	 BYTE PTR [eax+36], -19	; ffffffedH
  00388	e9 f4 00 00 00	 jmp	 $LN1@encodeStri
$LN61@encodeStri:
  0038d	c6 40 23 ea	 mov	 BYTE PTR [eax+35], -22	; ffffffeaH
  00391	e9 eb 00 00 00	 jmp	 $LN1@encodeStri
$LN62@encodeStri:
  00396	88 58 22	 mov	 BYTE PTR [eax+34], bl
  00399	e9 e3 00 00 00	 jmp	 $LN1@encodeStri
$LN63@encodeStri:
  0039e	c6 40 21 ec	 mov	 BYTE PTR [eax+33], -20	; ffffffecH
  003a2	e9 da 00 00 00	 jmp	 $LN1@encodeStri
$LN64@encodeStri:
  003a7	c6 40 20 ed	 mov	 BYTE PTR [eax+32], -19	; ffffffedH
  003ab	e9 d1 00 00 00	 jmp	 $LN1@encodeStri
$LN65@encodeStri:
  003b0	c6 40 1f ea	 mov	 BYTE PTR [eax+31], -22	; ffffffeaH
  003b4	e9 c8 00 00 00	 jmp	 $LN1@encodeStri
$LN66@encodeStri:
  003b9	88 58 1e	 mov	 BYTE PTR [eax+30], bl
  003bc	e9 c0 00 00 00	 jmp	 $LN1@encodeStri
$LN67@encodeStri:
  003c1	c6 40 1d ec	 mov	 BYTE PTR [eax+29], -20	; ffffffecH
  003c5	e9 b7 00 00 00	 jmp	 $LN1@encodeStri
$LN68@encodeStri:
  003ca	c6 40 1c ed	 mov	 BYTE PTR [eax+28], -19	; ffffffedH
  003ce	e9 ae 00 00 00	 jmp	 $LN1@encodeStri
$LN69@encodeStri:
  003d3	c6 40 1b ea	 mov	 BYTE PTR [eax+27], -22	; ffffffeaH
  003d7	e9 a5 00 00 00	 jmp	 $LN1@encodeStri
$LN70@encodeStri:
  003dc	88 58 1a	 mov	 BYTE PTR [eax+26], bl
  003df	e9 9d 00 00 00	 jmp	 $LN1@encodeStri
$LN71@encodeStri:
  003e4	c6 40 19 ec	 mov	 BYTE PTR [eax+25], -20	; ffffffecH
  003e8	e9 94 00 00 00	 jmp	 $LN1@encodeStri
$LN72@encodeStri:
  003ed	c6 40 18 ed	 mov	 BYTE PTR [eax+24], -19	; ffffffedH
  003f1	e9 8b 00 00 00	 jmp	 $LN1@encodeStri
$LN73@encodeStri:
  003f6	c6 40 17 ea	 mov	 BYTE PTR [eax+23], -22	; ffffffeaH
  003fa	e9 82 00 00 00	 jmp	 $LN1@encodeStri
$LN74@encodeStri:
  003ff	88 58 16	 mov	 BYTE PTR [eax+22], bl
  00402	eb 7d		 jmp	 SHORT $LN1@encodeStri
$LN75@encodeStri:
  00404	c6 40 15 ec	 mov	 BYTE PTR [eax+21], -20	; ffffffecH
  00408	eb 77		 jmp	 SHORT $LN1@encodeStri
$LN76@encodeStri:
  0040a	c6 40 14 ed	 mov	 BYTE PTR [eax+20], -19	; ffffffedH
  0040e	eb 71		 jmp	 SHORT $LN1@encodeStri
$LN77@encodeStri:
  00410	c6 40 13 ea	 mov	 BYTE PTR [eax+19], -22	; ffffffeaH
  00414	eb 6b		 jmp	 SHORT $LN1@encodeStri
$LN78@encodeStri:
  00416	88 58 12	 mov	 BYTE PTR [eax+18], bl
  00419	eb 66		 jmp	 SHORT $LN1@encodeStri
$LN79@encodeStri:
  0041b	c6 40 11 ec	 mov	 BYTE PTR [eax+17], -20	; ffffffecH
  0041f	eb 60		 jmp	 SHORT $LN1@encodeStri
$LN80@encodeStri:
  00421	c6 40 10 ed	 mov	 BYTE PTR [eax+16], -19	; ffffffedH
  00425	eb 5a		 jmp	 SHORT $LN1@encodeStri
$LN81@encodeStri:
  00427	c6 40 0f ea	 mov	 BYTE PTR [eax+15], -22	; ffffffeaH
  0042b	eb 54		 jmp	 SHORT $LN1@encodeStri
$LN82@encodeStri:
  0042d	88 58 0e	 mov	 BYTE PTR [eax+14], bl
  00430	eb 4f		 jmp	 SHORT $LN1@encodeStri
$LN83@encodeStri:
  00432	c6 40 0d ec	 mov	 BYTE PTR [eax+13], -20	; ffffffecH
  00436	eb 49		 jmp	 SHORT $LN1@encodeStri
$LN84@encodeStri:
  00438	c6 40 0c ed	 mov	 BYTE PTR [eax+12], -19	; ffffffedH
  0043c	eb 43		 jmp	 SHORT $LN1@encodeStri
$LN85@encodeStri:
  0043e	c6 40 0b ea	 mov	 BYTE PTR [eax+11], -22	; ffffffeaH
  00442	eb 3d		 jmp	 SHORT $LN1@encodeStri
$LN86@encodeStri:
  00444	88 58 0a	 mov	 BYTE PTR [eax+10], bl
  00447	eb 38		 jmp	 SHORT $LN1@encodeStri
$LN87@encodeStri:
  00449	c6 40 09 ec	 mov	 BYTE PTR [eax+9], -20	; ffffffecH
  0044d	eb 32		 jmp	 SHORT $LN1@encodeStri
$LN88@encodeStri:
  0044f	c6 40 08 ed	 mov	 BYTE PTR [eax+8], -19	; ffffffedH
  00453	eb 2c		 jmp	 SHORT $LN1@encodeStri
$LN89@encodeStri:
  00455	c6 40 07 ea	 mov	 BYTE PTR [eax+7], -22	; ffffffeaH
  00459	eb 26		 jmp	 SHORT $LN1@encodeStri
$LN90@encodeStri:
  0045b	88 58 06	 mov	 BYTE PTR [eax+6], bl
  0045e	eb 21		 jmp	 SHORT $LN1@encodeStri
$LN91@encodeStri:
  00460	c6 40 05 ec	 mov	 BYTE PTR [eax+5], -20	; ffffffecH
  00464	eb 1b		 jmp	 SHORT $LN1@encodeStri
$LN92@encodeStri:
  00466	c6 40 04 ed	 mov	 BYTE PTR [eax+4], -19	; ffffffedH
  0046a	eb 15		 jmp	 SHORT $LN1@encodeStri
$LN93@encodeStri:
  0046c	c6 40 03 ea	 mov	 BYTE PTR [eax+3], -22	; ffffffeaH
  00470	eb 0f		 jmp	 SHORT $LN1@encodeStri
$LN94@encodeStri:
  00472	c6 40 02 eb	 mov	 BYTE PTR [eax+2], -21	; ffffffebH
  00476	eb 09		 jmp	 SHORT $LN1@encodeStri
$LN95@encodeStri:
  00478	c6 40 01 ec	 mov	 BYTE PTR [eax+1], -20	; ffffffecH
  0047c	eb 03		 jmp	 SHORT $LN1@encodeStri
$LN96@encodeStri:
  0047e	c6 00 ed	 mov	 BYTE PTR [eax], -19	; ffffffedH
$LN1@encodeStri:
  00481	6a 06		 push	 6
  00483	5a		 pop	 edx
  00484	8b c8		 mov	 ecx, eax
  00486	c6 40 18 00	 mov	 BYTE PTR [eax+24], 0
  0048a	5b		 pop	 ebx
$LL104@encodeStri:
  0048b	81 31 ed ec eb
	ea		 xor	 DWORD PTR [ecx], -353637139 ; eaebecedH
  00491	83 c1 04	 add	 ecx, 4
  00494	4a		 dec	 edx
  00495	75 f4		 jne	 SHORT $LL104@encodeStri

; 217  : 		return e;
; 218  : 	}

  00497	5d		 pop	 ebp
  00498	c2 08 00	 ret	 8
??$encodeString@$0BJ@@ioINILoader_e@@AAEPADAAY0BJ@$$CBDPAD@Z ENDP ; ioINILoader_e::encodeString<25>
_TEXT	ENDS
PUBLIC	?begin@?$vector@UtagTextPiece@ioComplexStringPrinter@@V?$allocator@UtagTextPiece@ioComplexStringPrinter@@@std@@@std@@QBE?AV?$_Vector_const_iterator@V?$_Vector_val@UtagTextPiece@ioComplexStringPrinter@@V?$allocator@UtagTextPiece@ioComplexStringPrinter@@@std@@@std@@@2@XZ ; std::vector<ioComplexStringPrinter::tagTextPiece,std::allocator<ioComplexStringPrinter::tagTextPiece> >::begin
; Function compile flags: /Ogsp
; File c:\program files (x86)\microsoft visual studio 10.0\vc\include\vector
;	COMDAT ?begin@?$vector@UtagTextPiece@ioComplexStringPrinter@@V?$allocator@UtagTextPiece@ioComplexStringPrinter@@@std@@@std@@QBE?AV?$_Vector_const_iterator@V?$_Vector_val@UtagTextPiece@ioComplexStringPrinter@@V?$allocator@UtagTextPiece@ioComplexStringPrinter@@@std@@@std@@@2@XZ
_TEXT	SEGMENT
___$ReturnUdt$ = 8					; size = 4
?begin@?$vector@UtagTextPiece@ioComplexStringPrinter@@V?$allocator@UtagTextPiece@ioComplexStringPrinter@@@std@@@std@@QBE?AV?$_Vector_const_iterator@V?$_Vector_val@UtagTextPiece@ioComplexStringPrinter@@V?$allocator@UtagTextPiece@ioComplexStringPrinter@@@std@@@std@@@2@XZ PROC ; std::vector<ioComplexStringPrinter::tagTextPiece,std::allocator<ioComplexStringPrinter::tagTextPiece> >::begin, COMDAT
; _this$ = ecx

; 786  : 		{	// return iterator for beginning of nonmutable sequence

  00000	55		 push	 ebp
  00001	8b ec		 mov	 ebp, esp

; 787  : 		return (const_iterator(this->_Myfirst, this));

  00003	8b 09		 mov	 ecx, DWORD PTR [ecx]
  00005	8b 45 08	 mov	 eax, DWORD PTR ___$ReturnUdt$[ebp]
  00008	89 08		 mov	 DWORD PTR [eax], ecx

; 788  : 		}

  0000a	5d		 pop	 ebp
  0000b	c2 04 00	 ret	 4
?begin@?$vector@UtagTextPiece@ioComplexStringPrinter@@V?$allocator@UtagTextPiece@ioComplexStringPrinter@@@std@@@std@@QBE?AV?$_Vector_const_iterator@V?$_Vector_val@UtagTextPiece@ioComplexStringPrinter@@V?$allocator@UtagTextPiece@ioComplexStringPrinter@@@std@@@std@@@2@XZ ENDP ; std::vector<ioComplexStringPrinter::tagTextPiece,std::allocator<ioComplexStringPrinter::tagTextPiece> >::begin
_TEXT	ENDS
PUBLIC	?end@?$vector@UtagTextPiece@ioComplexStringPrinter@@V?$allocator@UtagTextPiece@ioComplexStringPrinter@@@std@@@std@@QBE?AV?$_Vector_const_iterator@V?$_Vector_val@UtagTextPiece@ioComplexStringPrinter@@V?$allocator@UtagTextPiece@ioComplexStringPrinter@@@std@@@std@@@2@XZ ; std::vector<ioComplexStringPrinter::tagTextPiece,std::allocator<ioComplexStringPrinter::tagTextPiece> >::end
; Function compile flags: /Ogsp
;	COMDAT ?end@?$vector@UtagTextPiece@ioComplexStringPrinter@@V?$allocator@UtagTextPiece@ioComplexStringPrinter@@@std@@@std@@QBE?AV?$_Vector_const_iterator@V?$_Vector_val@UtagTextPiece@ioComplexStringPrinter@@V?$allocator@UtagTextPiece@ioComplexStringPrinter@@@std@@@std@@@2@XZ
_TEXT	SEGMENT
___$ReturnUdt$ = 8					; size = 4
?end@?$vector@UtagTextPiece@ioComplexStringPrinter@@V?$allocator@UtagTextPiece@ioComplexStringPrinter@@@std@@@std@@QBE?AV?$_Vector_const_iterator@V?$_Vector_val@UtagTextPiece@ioComplexStringPrinter@@V?$allocator@UtagTextPiece@ioComplexStringPrinter@@@std@@@std@@@2@XZ PROC ; std::vector<ioComplexStringPrinter::tagTextPiece,std::allocator<ioComplexStringPrinter::tagTextPiece> >::end, COMDAT
; _this$ = ecx

; 796  : 		{	// return iterator for end of nonmutable sequence

  00000	55		 push	 ebp
  00001	8b ec		 mov	 ebp, esp

; 797  : 		return (const_iterator(this->_Mylast, this));

  00003	8b 49 04	 mov	 ecx, DWORD PTR [ecx+4]
  00006	8b 45 08	 mov	 eax, DWORD PTR ___$ReturnUdt$[ebp]
  00009	89 08		 mov	 DWORD PTR [eax], ecx

; 798  : 		}

  0000b	5d		 pop	 ebp
  0000c	c2 04 00	 ret	 4
?end@?$vector@UtagTextPiece@ioComplexStringPrinter@@V?$allocator@UtagTextPiece@ioComplexStringPrinter@@@std@@@std@@QBE?AV?$_Vector_const_iterator@V?$_Vector_val@UtagTextPiece@ioComplexStringPrinter@@V?$allocator@UtagTextPiece@ioComplexStringPrinter@@@std@@@std@@@2@XZ ENDP ; std::vector<ioComplexStringPrinter::tagTextPiece,std::allocator<ioComplexStringPrinter::tagTextPiece> >::end
_TEXT	ENDS
PUBLIC	??0?$_Vector_val@UtagTextPiece@ioComplexStringPrinter@@V?$allocator@UtagTextPiece@ioComplexStringPrinter@@@std@@@std@@QAE@V?$allocator@UtagTextPiece@ioComplexStringPrinter@@@1@@Z ; std::_Vector_val<ioComplexStringPrinter::tagTextPiece,std::allocator<ioComplexStringPrinter::tagTextPiece> >::_Vector_val<ioComplexStringPrinter::tagTextPiece,std::allocator<ioComplexStringPrinter::tagTextPiece> >
; Function compile flags: /Ogsp
;	COMDAT ??0?$_Vector_val@UtagTextPiece@ioComplexStringPrinter@@V?$allocator@UtagTextPiece@ioComplexStringPrinter@@@std@@@std@@QAE@V?$allocator@UtagTextPiece@ioComplexStringPrinter@@@1@@Z
_TEXT	SEGMENT
__Al$ = 8						; size = 1
??0?$_Vector_val@UtagTextPiece@ioComplexStringPrinter@@V?$allocator@UtagTextPiece@ioComplexStringPrinter@@@std@@@std@@QAE@V?$allocator@UtagTextPiece@ioComplexStringPrinter@@@1@@Z PROC ; std::_Vector_val<ioComplexStringPrinter::tagTextPiece,std::allocator<ioComplexStringPrinter::tagTextPiece> >::_Vector_val<ioComplexStringPrinter::tagTextPiece,std::allocator<ioComplexStringPrinter::tagTextPiece> >, COMDAT
; _this$ = ecx

; 426  : 		{	// construct allocator from _Al

  00000	8b c1		 mov	 eax, ecx

; 427  : 		_Myfirst = 0;

  00002	33 c9		 xor	 ecx, ecx
  00004	89 08		 mov	 DWORD PTR [eax], ecx

; 428  : 		_Mylast = 0;

  00006	89 48 04	 mov	 DWORD PTR [eax+4], ecx

; 429  : 		_Myend = 0;

  00009	89 48 08	 mov	 DWORD PTR [eax+8], ecx

; 430  : 		}

  0000c	c2 04 00	 ret	 4
??0?$_Vector_val@UtagTextPiece@ioComplexStringPrinter@@V?$allocator@UtagTextPiece@ioComplexStringPrinter@@@std@@@std@@QAE@V?$allocator@UtagTextPiece@ioComplexStringPrinter@@@1@@Z ENDP ; std::_Vector_val<ioComplexStringPrinter::tagTextPiece,std::allocator<ioComplexStringPrinter::tagTextPiece> >::_Vector_val<ioComplexStringPrinter::tagTextPiece,std::allocator<ioComplexStringPrinter::tagTextPiece> >
_TEXT	ENDS
PUBLIC	?max_size@?$vector@UtagTextPiece@ioComplexStringPrinter@@V?$allocator@UtagTextPiece@ioComplexStringPrinter@@@std@@@std@@QBEIXZ ; std::vector<ioComplexStringPrinter::tagTextPiece,std::allocator<ioComplexStringPrinter::tagTextPiece> >::max_size
; Function compile flags: /Ogsp
;	COMDAT ?max_size@?$vector@UtagTextPiece@ioComplexStringPrinter@@V?$allocator@UtagTextPiece@ioComplexStringPrinter@@@std@@@std@@QBEIXZ
_TEXT	SEGMENT
?max_size@?$vector@UtagTextPiece@ioComplexStringPrinter@@V?$allocator@UtagTextPiece@ioComplexStringPrinter@@@std@@@std@@QBEIXZ PROC ; std::vector<ioComplexStringPrinter::tagTextPiece,std::allocator<ioComplexStringPrinter::tagTextPiece> >::max_size, COMDAT
; _this$ = ecx

; 884  : 		return (this->_Alval.max_size());

  00000	b8 c4 4e ec 04	 mov	 eax, 82595524		; 04ec4ec4H

; 885  : 		}

  00005	c3		 ret	 0
?max_size@?$vector@UtagTextPiece@ioComplexStringPrinter@@V?$allocator@UtagTextPiece@ioComplexStringPrinter@@@std@@@std@@QBEIXZ ENDP ; std::vector<ioComplexStringPrinter::tagTextPiece,std::allocator<ioComplexStringPrinter::tagTextPiece> >::max_size
_TEXT	ENDS
PUBLIC	?allocate@?$allocator@UtagTextPiece@ioComplexStringPrinter@@@std@@QAEPAUtagTextPiece@ioComplexStringPrinter@@I@Z ; std::allocator<ioComplexStringPrinter::tagTextPiece>::allocate
; Function compile flags: /Ogsp
; File c:\program files (x86)\microsoft visual studio 10.0\vc\include\xmemory
;	COMDAT ?allocate@?$allocator@UtagTextPiece@ioComplexStringPrinter@@@std@@QAEPAUtagTextPiece@ioComplexStringPrinter@@I@Z
_TEXT	SEGMENT
__Count$ = 8						; size = 4
?allocate@?$allocator@UtagTextPiece@ioComplexStringPrinter@@@std@@QAEPAUtagTextPiece@ioComplexStringPrinter@@I@Z PROC ; std::allocator<ioComplexStringPrinter::tagTextPiece>::allocate, COMDAT
; _this$ = ecx

; 186  : 		{	// allocate array of _Count elements

  00000	55		 push	 ebp
  00001	8b ec		 mov	 ebp, esp

; 187  : 		return (_Allocate(_Count, (pointer)0));

  00003	6a 00		 push	 0
  00005	ff 75 08	 push	 DWORD PTR __Count$[ebp]
  00008	e8 00 00 00 00	 call	 ??$_Allocate@UtagTextPiece@ioComplexStringPrinter@@@std@@YAPAUtagTextPiece@ioComplexStringPrinter@@IPAU12@@Z ; std::_Allocate<ioComplexStringPrinter::tagTextPiece>
  0000d	59		 pop	 ecx
  0000e	59		 pop	 ecx

; 188  : 		}

  0000f	5d		 pop	 ebp
  00010	c2 04 00	 ret	 4
?allocate@?$allocator@UtagTextPiece@ioComplexStringPrinter@@@std@@QAEPAUtagTextPiece@ioComplexStringPrinter@@I@Z ENDP ; std::allocator<ioComplexStringPrinter::tagTextPiece>::allocate
_TEXT	ENDS
PUBLIC	??$_Destroy@VioComplexStringPrinter@@@std@@YAXPAVioComplexStringPrinter@@@Z ; std::_Destroy<ioComplexStringPrinter>
; Function compile flags: /Ogsp
;	COMDAT ??$_Destroy@VioComplexStringPrinter@@@std@@YAXPAVioComplexStringPrinter@@@Z
_TEXT	SEGMENT
__Ptr$ = 8						; size = 4
??$_Destroy@VioComplexStringPrinter@@@std@@YAXPAVioComplexStringPrinter@@@Z PROC ; std::_Destroy<ioComplexStringPrinter>, COMDAT

; 62   : 	{	// destroy object at _Ptr

  00000	55		 push	 ebp
  00001	8b ec		 mov	 ebp, esp

; 63   : 	_Ptr->~_Ty();

  00003	8b 4d 08	 mov	 ecx, DWORD PTR __Ptr$[ebp]

; 64   : 	}

  00006	5d		 pop	 ebp

; 63   : 	_Ptr->~_Ty();

  00007	e9 00 00 00 00	 jmp	 ??1ioComplexStringPrinter@@QAE@XZ ; ioComplexStringPrinter::~ioComplexStringPrinter
??$_Destroy@VioComplexStringPrinter@@@std@@YAXPAVioComplexStringPrinter@@@Z ENDP ; std::_Destroy<ioComplexStringPrinter>
_TEXT	ENDS
PUBLIC	??8?$_Vector_const_iterator@V?$_Vector_val@UtagTextPiece@ioComplexStringPrinter@@V?$allocator@UtagTextPiece@ioComplexStringPrinter@@@std@@@std@@@std@@QBE_NABV01@@Z ; std::_Vector_const_iterator<std::_Vector_val<ioComplexStringPrinter::tagTextPiece,std::allocator<ioComplexStringPrinter::tagTextPiece> > >::operator==
; Function compile flags: /Ogsp
; File c:\program files (x86)\microsoft visual studio 10.0\vc\include\vector
;	COMDAT ??8?$_Vector_const_iterator@V?$_Vector_val@UtagTextPiece@ioComplexStringPrinter@@V?$allocator@UtagTextPiece@ioComplexStringPrinter@@@std@@@std@@@std@@QBE_NABV01@@Z
_TEXT	SEGMENT
__Right$ = 8						; size = 4
??8?$_Vector_const_iterator@V?$_Vector_val@UtagTextPiece@ioComplexStringPrinter@@V?$allocator@UtagTextPiece@ioComplexStringPrinter@@@std@@@std@@@std@@QBE_NABV01@@Z PROC ; std::_Vector_const_iterator<std::_Vector_val<ioComplexStringPrinter::tagTextPiece,std::allocator<ioComplexStringPrinter::tagTextPiece> > >::operator==, COMDAT
; _this$ = ecx

; 201  : 		{	// test for iterator equality

  00000	55		 push	 ebp
  00001	8b ec		 mov	 ebp, esp

; 202  : 		_Compat(_Right);
; 203  : 		return (this->_Ptr == _Right._Ptr);

  00003	8b 01		 mov	 eax, DWORD PTR [ecx]
  00005	8b 4d 08	 mov	 ecx, DWORD PTR __Right$[ebp]
  00008	2b 01		 sub	 eax, DWORD PTR [ecx]
  0000a	f7 d8		 neg	 eax
  0000c	1b c0		 sbb	 eax, eax
  0000e	40		 inc	 eax

; 204  : 		}

  0000f	5d		 pop	 ebp
  00010	c2 04 00	 ret	 4
??8?$_Vector_const_iterator@V?$_Vector_val@UtagTextPiece@ioComplexStringPrinter@@V?$allocator@UtagTextPiece@ioComplexStringPrinter@@@std@@@std@@@std@@QBE_NABV01@@Z ENDP ; std::_Vector_const_iterator<std::_Vector_val<ioComplexStringPrinter::tagTextPiece,std::allocator<ioComplexStringPrinter::tagTextPiece> > >::operator==
_TEXT	ENDS
PUBLIC	??0tagAccessorySlot@@QAE@XZ			; tagAccessorySlot::tagAccessorySlot
;	COMDAT xdata$x
; File d:\lost saga for developer\youtube\tutorial\source\src\lsclient\accessoryenumtype.h
xdata$x	SEGMENT
__unwindtable$??0tagAccessorySlot@@QAE@XZ DD 0ffffffffH
	DD	FLAT:__unwindfunclet$??0tagAccessorySlot@@QAE@XZ$0
	DD	00H
	DD	FLAT:__unwindfunclet$??0tagAccessorySlot@@QAE@XZ$1
__ehfuncinfo$??0tagAccessorySlot@@QAE@XZ DD 019930522H
	DD	02H
	DD	FLAT:__unwindtable$??0tagAccessorySlot@@QAE@XZ
	DD	2 DUP(00H)
	DD	2 DUP(00H)
	DD	00H
	DD	01H
; Function compile flags: /Ogsp
xdata$x	ENDS
;	COMDAT ??0tagAccessorySlot@@QAE@XZ
_TEXT	SEGMENT
_this$ = -16						; size = 4
__$EHRec$ = -12						; size = 12
??0tagAccessorySlot@@QAE@XZ PROC			; tagAccessorySlot::tagAccessorySlot, COMDAT
; _this$ = ecx

; 209  : 	tagAccessorySlot()

  00000	6a 04		 push	 4
  00002	b8 00 00 00 00	 mov	 eax, __ehhandler$??0tagAccessorySlot@@QAE@XZ
  00007	e8 00 00 00 00	 call	 __EH_prolog3
  0000c	8b f1		 mov	 esi, ecx
  0000e	89 75 f0	 mov	 DWORD PTR _this$[ebp], esi
  00011	8b 3d 00 00 00
	00		 mov	 edi, DWORD PTR __imp_??0ioHashString@@QAE@XZ
  00017	8d 4e 24	 lea	 ecx, DWORD PTR [esi+36]
  0001a	ff d7		 call	 edi
  0001c	83 65 fc 00	 and	 DWORD PTR __$EHRec$[ebp+8], 0
  00020	8d 4e 34	 lea	 ecx, DWORD PTR [esi+52]
  00023	ff d7		 call	 edi

; 210  : 	{
; 211  : 		Init();

  00025	8b ce		 mov	 ecx, esi
  00027	c6 45 fc 01	 mov	 BYTE PTR __$EHRec$[ebp+8], 1
  0002b	e8 00 00 00 00	 call	 ?Init@tagAccessorySlot@@QAEXXZ ; tagAccessorySlot::Init

; 212  : 	}

  00030	8b c6		 mov	 eax, esi
  00032	e8 00 00 00 00	 call	 __EH_epilog3
  00037	c3		 ret	 0
_TEXT	ENDS
;	COMDAT text$x
text$x	SEGMENT
__unwindfunclet$??0tagAccessorySlot@@QAE@XZ$0:
  00000	8b 4d f0	 mov	 ecx, DWORD PTR _this$[ebp]
  00003	83 c1 24	 add	 ecx, 36			; 00000024H
  00006	ff 25 00 00 00
	00		 jmp	 DWORD PTR __imp_??1ioHashString@@QAE@XZ
__unwindfunclet$??0tagAccessorySlot@@QAE@XZ$1:
  0000c	8b 4d f0	 mov	 ecx, DWORD PTR _this$[ebp]
  0000f	83 c1 34	 add	 ecx, 52			; 00000034H
  00012	ff 25 00 00 00
	00		 jmp	 DWORD PTR __imp_??1ioHashString@@QAE@XZ
__ehhandler$??0tagAccessorySlot@@QAE@XZ:
  00018	8b 54 24 08	 mov	 edx, DWORD PTR [esp+8]
  0001c	8d 42 0c	 lea	 eax, DWORD PTR [edx+12]
  0001f	8b 4a ec	 mov	 ecx, DWORD PTR [edx-20]
  00022	33 c8		 xor	 ecx, eax
  00024	e8 00 00 00 00	 call	 @__security_check_cookie@4
  00029	b8 00 00 00 00	 mov	 eax, OFFSET __ehfuncinfo$??0tagAccessorySlot@@QAE@XZ
  0002e	e9 00 00 00 00	 jmp	 ___CxxFrameHandler3
text$x	ENDS
??0tagAccessorySlot@@QAE@XZ ENDP			; tagAccessorySlot::tagAccessorySlot
PUBLIC	??0?$_String_val@DV?$allocator@D@std@@@std@@QAE@V?$allocator@D@1@@Z ; std::_String_val<char,std::allocator<char> >::_String_val<char,std::allocator<char> >
; Function compile flags: /Ogsp
; File c:\program files (x86)\microsoft visual studio 10.0\vc\include\xstring
;	COMDAT ??0?$_String_val@DV?$allocator@D@std@@@std@@QAE@V?$allocator@D@1@@Z
_TEXT	SEGMENT
__Al$ = 8						; size = 1
??0?$_String_val@DV?$allocator@D@std@@@std@@QAE@V?$allocator@D@1@@Z PROC ; std::_String_val<char,std::allocator<char> >::_String_val<char,std::allocator<char> >, COMDAT
; _this$ = ecx

; 454  : 		{	// construct allocator from _Al

  00000	8b c1		 mov	 eax, ecx

; 455  : 		}

  00002	c2 04 00	 ret	 4
??0?$_String_val@DV?$allocator@D@std@@@std@@QAE@V?$allocator@D@1@@Z ENDP ; std::_String_val<char,std::allocator<char> >::_String_val<char,std::allocator<char> >
_TEXT	ENDS
PUBLIC	?_Eos@?$basic_string@DU?$char_traits@D@std@@V?$allocator@D@2@@std@@QAEXI@Z ; std::basic_string<char,std::char_traits<char>,std::allocator<char> >::_Eos
; Function compile flags: /Ogsp
;	COMDAT ?_Eos@?$basic_string@DU?$char_traits@D@std@@V?$allocator@D@2@@std@@QAEXI@Z
_TEXT	SEGMENT
__Newsize$ = 8						; size = 4
?_Eos@?$basic_string@DU?$char_traits@D@std@@V?$allocator@D@2@@std@@QAEXI@Z PROC ; std::basic_string<char,std::char_traits<char>,std::allocator<char> >::_Eos, COMDAT
; _this$ = ecx

; 1953 : 		{	// set new length and null terminator

  00000	55		 push	 ebp
  00001	8b ec		 mov	 ebp, esp

; 1954 : 		_Traits::assign(_Myptr()[this->_Mysize = _Newsize], _Elem());

  00003	83 79 14 10	 cmp	 DWORD PTR [ecx+20], 16	; 00000010H
  00007	8b 45 08	 mov	 eax, DWORD PTR __Newsize$[ebp]
  0000a	89 41 10	 mov	 DWORD PTR [ecx+16], eax
  0000d	72 02		 jb	 SHORT $LN5@Eos
  0000f	8b 09		 mov	 ecx, DWORD PTR [ecx]
$LN5@Eos:
  00011	c6 04 01 00	 mov	 BYTE PTR [ecx+eax], 0

; 1955 : 		}

  00015	5d		 pop	 ebp
  00016	c2 04 00	 ret	 4
?_Eos@?$basic_string@DU?$char_traits@D@std@@V?$allocator@D@2@@std@@QAEXI@Z ENDP ; std::basic_string<char,std::char_traits<char>,std::allocator<char> >::_Eos
_TEXT	ENDS
PUBLIC	?max_size@?$basic_string@DU?$char_traits@D@std@@V?$allocator@D@2@@std@@QBEIXZ ; std::basic_string<char,std::char_traits<char>,std::allocator<char> >::max_size
; Function compile flags: /Ogsp
;	COMDAT ?max_size@?$basic_string@DU?$char_traits@D@std@@V?$allocator@D@2@@std@@QBEIXZ
_TEXT	SEGMENT
?max_size@?$basic_string@DU?$char_traits@D@std@@V?$allocator@D@2@@std@@QBEIXZ PROC ; std::basic_string<char,std::char_traits<char>,std::allocator<char> >::max_size, COMDAT
; _this$ = ecx

; 1517 : 		size_type _Num = this->_Alval.max_size();
; 1518 : 		return (_Num <= 1 ? 1 : _Num - 1);

  00000	6a fe		 push	 -2			; fffffffeH
  00002	58		 pop	 eax

; 1519 : 		}

  00003	c3		 ret	 0
?max_size@?$basic_string@DU?$char_traits@D@std@@V?$allocator@D@2@@std@@QBEIXZ ENDP ; std::basic_string<char,std::char_traits<char>,std::allocator<char> >::max_size
_TEXT	ENDS
PUBLIC	?allocate@?$allocator@D@std@@QAEPADI@Z		; std::allocator<char>::allocate
; Function compile flags: /Ogsp
; File c:\program files (x86)\microsoft visual studio 10.0\vc\include\xmemory
;	COMDAT ?allocate@?$allocator@D@std@@QAEPADI@Z
_TEXT	SEGMENT
__Count$ = 8						; size = 4
?allocate@?$allocator@D@std@@QAEPADI@Z PROC		; std::allocator<char>::allocate, COMDAT
; _this$ = ecx

; 186  : 		{	// allocate array of _Count elements

  00000	55		 push	 ebp
  00001	8b ec		 mov	 ebp, esp

; 187  : 		return (_Allocate(_Count, (pointer)0));

  00003	6a 00		 push	 0
  00005	ff 75 08	 push	 DWORD PTR __Count$[ebp]
  00008	e8 00 00 00 00	 call	 ??$_Allocate@D@std@@YAPADIPAD@Z ; std::_Allocate<char>
  0000d	59		 pop	 ecx
  0000e	59		 pop	 ecx

; 188  : 		}

  0000f	5d		 pop	 ebp
  00010	c2 04 00	 ret	 4
?allocate@?$allocator@D@std@@QAEPADI@Z ENDP		; std::allocator<char>::allocate
; Function compile flags: /Ogsp
_TEXT	ENDS
;	COMDAT ??_GioAccessoryInfoManager@@UAEPAXI@Z
_TEXT	SEGMENT
___flags$ = 8						; size = 4
??_GioAccessoryInfoManager@@UAEPAXI@Z PROC		; ioAccessoryInfoManager::`scalar deleting destructor', COMDAT
; _this$ = ecx
  00000	55		 push	 ebp
  00001	8b ec		 mov	 ebp, esp
  00003	56		 push	 esi
  00004	8b f1		 mov	 esi, ecx
  00006	c7 06 00 00 00
	00		 mov	 DWORD PTR [esi], OFFSET ??_7ioAccessoryInfoManager@@6B@
  0000c	83 25 00 00 00
	00 00		 and	 DWORD PTR ?ms_Singleton@?$Singleton@VioAccessoryInfoManager@@@@1PAVioAccessoryInfoManager@@A, 0 ; Singleton<ioAccessoryInfoManager>::ms_Singleton
  00013	f6 45 08 01	 test	 BYTE PTR ___flags$[ebp], 1
  00017	74 07		 je	 SHORT $LN1@scalar@3
  00019	56		 push	 esi
  0001a	e8 00 00 00 00	 call	 ??3@YAXPAX@Z		; operator delete
  0001f	59		 pop	 ecx
$LN1@scalar@3:
  00020	8b c6		 mov	 eax, esi
  00022	5e		 pop	 esi
  00023	5d		 pop	 ebp
  00024	c2 04 00	 ret	 4
??_GioAccessoryInfoManager@@UAEPAXI@Z ENDP		; ioAccessoryInfoManager::`scalar deleting destructor'
_TEXT	ENDS
PUBLIC	?OnAccessoryAdd@ioAccessoryInfoManager@@QAEXAAVSP2Packet@@AAH@Z ; ioAccessoryInfoManager::OnAccessoryAdd
EXTRN	?AddAccessorySlotData@ioUserAccessory@@QAEXABUtagAccessorySlot@@@Z:PROC ; ioUserAccessory::AddAccessorySlotData
;	COMDAT xdata$x
; File d:\lost saga for developer\youtube\tutorial\source\src\lsclient\iomyinfo.h
xdata$x	SEGMENT
__unwindtable$?OnAccessoryAdd@ioAccessoryInfoManager@@QAEXAAVSP2Packet@@AAH@Z DD 0ffffffffH
	DD	FLAT:__unwindfunclet$?OnAccessoryAdd@ioAccessoryInfoManager@@QAEXAAVSP2Packet@@AAH@Z$0
__ehfuncinfo$?OnAccessoryAdd@ioAccessoryInfoManager@@QAEXAAVSP2Packet@@AAH@Z DD 019930522H
	DD	01H
	DD	FLAT:__unwindtable$?OnAccessoryAdd@ioAccessoryInfoManager@@QAEXAAVSP2Packet@@AAH@Z
	DD	2 DUP(00H)
	DD	2 DUP(00H)
	DD	00H
	DD	01H
; Function compile flags: /Ogsp
; File d:\lost saga for developer\youtube\tutorial\source\src\lsclient\ioaccessoryinfomanager.cpp
xdata$x	ENDS
;	COMDAT ?OnAccessoryAdd@ioAccessoryInfoManager@@QAEXAAVSP2Packet@@AAH@Z
_TEXT	SEGMENT
_kSlot$536084 = -104					; size = 68
_iRandomNum$ = -36					; size = 4
_iValue2$ = -32						; size = 4
_iValue1$ = -28						; size = 4
_iSlotIndex$ = -24					; size = 4
_iAccessoryCode$ = -20					; size = 4
_btPeriodType$ = -13					; size = 1
__$EHRec$ = -12						; size = 12
_rkPacket$ = 8						; size = 4
_iCode$ = 12						; size = 4
?OnAccessoryAdd@ioAccessoryInfoManager@@QAEXAAVSP2Packet@@AAH@Z PROC ; ioAccessoryInfoManager::OnAccessoryAdd, COMDAT
; _this$ = ecx

; 200  : {

  00000	6a 5c		 push	 92			; 0000005cH
  00002	b8 00 00 00 00	 mov	 eax, __ehhandler$?OnAccessoryAdd@ioAccessoryInfoManager@@QAEXAAVSP2Packet@@AAH@Z
  00007	e8 00 00 00 00	 call	 __EH_prolog3

; 201  : 	int iAccessoryCode = 0;
; 202  : 	int iSlotIndex = 0;
; 203  : 	byte btPeriodType = 0;
; 204  : 	int iValue1 = 0;
; 205  : 	int iValue2 = 0;
; 206  : 	int iRandomNum=0;
; 207  : 	rkPacket >> iAccessoryCode >> iSlotIndex;

  0000c	8b 75 08	 mov	 esi, DWORD PTR _rkPacket$[ebp]
  0000f	33 db		 xor	 ebx, ebx
  00011	8d 45 e8	 lea	 eax, DWORD PTR _iSlotIndex$[ebp]
  00014	50		 push	 eax
  00015	8d 45 ec	 lea	 eax, DWORD PTR _iAccessoryCode$[ebp]
  00018	50		 push	 eax
  00019	8b ce		 mov	 ecx, esi
  0001b	89 5d ec	 mov	 DWORD PTR _iAccessoryCode$[ebp], ebx
  0001e	89 5d e8	 mov	 DWORD PTR _iSlotIndex$[ebp], ebx
  00021	88 5d f3	 mov	 BYTE PTR _btPeriodType$[ebp], bl
  00024	89 5d e4	 mov	 DWORD PTR _iValue1$[ebp], ebx
  00027	89 5d e0	 mov	 DWORD PTR _iValue2$[ebp], ebx
  0002a	89 5d dc	 mov	 DWORD PTR _iRandomNum$[ebp], ebx
  0002d	e8 00 00 00 00	 call	 ??5SP2Packet@@QAEAAV0@AAH@Z ; SP2Packet::operator>>
  00032	8b c8		 mov	 ecx, eax
  00034	e8 00 00 00 00	 call	 ??5SP2Packet@@QAEAAV0@AAH@Z ; SP2Packet::operator>>

; 208  : 	rkPacket >> btPeriodType;

  00039	8d 45 f3	 lea	 eax, DWORD PTR _btPeriodType$[ebp]
  0003c	50		 push	 eax
  0003d	8b ce		 mov	 ecx, esi
  0003f	e8 00 00 00 00	 call	 ??5SP2Packet@@QAEAAV0@AAE@Z ; SP2Packet::operator>>

; 209  : 	rkPacket >> iValue1 >> iValue2;

  00044	8d 45 e0	 lea	 eax, DWORD PTR _iValue2$[ebp]
  00047	50		 push	 eax
  00048	8d 45 e4	 lea	 eax, DWORD PTR _iValue1$[ebp]
  0004b	50		 push	 eax
  0004c	8b ce		 mov	 ecx, esi
  0004e	e8 00 00 00 00	 call	 ??5SP2Packet@@QAEAAV0@AAH@Z ; SP2Packet::operator>>
  00053	8b c8		 mov	 ecx, eax
  00055	e8 00 00 00 00	 call	 ??5SP2Packet@@QAEAAV0@AAH@Z ; SP2Packet::operator>>

; 210  : 	rkPacket >> iRandomNum;

  0005a	8d 45 dc	 lea	 eax, DWORD PTR _iRandomNum$[ebp]
  0005d	50		 push	 eax
  0005e	8b ce		 mov	 ecx, esi
  00060	e8 00 00 00 00	 call	 ??5SP2Packet@@QAEAAV0@AAH@Z ; SP2Packet::operator>>

; 211  : 
; 212  : 	ioUserAccessory *pAccessory = g_MyInfo.GetUserAccessory();

  00065	e8 00 00 00 00	 call	 ?GetSingleton@ioMyInfo@@SAAAV1@XZ ; ioMyInfo::GetSingleton
  0006a	8d b0 fc 02 00
	00		 lea	 esi, DWORD PTR [eax+764]

; 213  : 	if( pAccessory )

  00070	3b f3		 cmp	 esi, ebx
  00072	74 4e		 je	 SHORT $LN1@OnAccessor@2

; 214  : 	{
; 215  : 		AccessorySlot kSlot;

  00074	8d 4d 98	 lea	 ecx, DWORD PTR _kSlot$536084[ebp]
  00077	e8 00 00 00 00	 call	 ??0tagAccessorySlot@@QAE@XZ ; tagAccessorySlot::tagAccessorySlot

; 216  : 		kSlot.m_iAccessoryCode = iAccessoryCode;

  0007c	8b 45 ec	 mov	 eax, DWORD PTR _iAccessoryCode$[ebp]
  0007f	89 45 98	 mov	 DWORD PTR _kSlot$536084[ebp], eax

; 217  : 		kSlot.m_iIndex = iSlotIndex;

  00082	8b 45 e8	 mov	 eax, DWORD PTR _iSlotIndex$[ebp]
  00085	89 45 9c	 mov	 DWORD PTR _kSlot$536084[ebp+4], eax

; 218  : 		kSlot.m_PeriodType = btPeriodType;

  00088	8a 45 f3	 mov	 al, BYTE PTR _btPeriodType$[ebp]
  0008b	88 45 a4	 mov	 BYTE PTR _kSlot$536084[ebp+12], al

; 219  : 		kSlot.m_iValue1 = iValue1;

  0008e	8b 45 e4	 mov	 eax, DWORD PTR _iValue1$[ebp]
  00091	89 45 a8	 mov	 DWORD PTR _kSlot$536084[ebp+16], eax

; 220  : 		kSlot.m_iValue2 = iValue2;

  00094	8b 45 e0	 mov	 eax, DWORD PTR _iValue2$[ebp]
  00097	89 45 ac	 mov	 DWORD PTR _kSlot$536084[ebp+20], eax

; 221  : 		kSlot.m_iRandomNumber = iRandomNum;

  0009a	8b 45 dc	 mov	 eax, DWORD PTR _iRandomNum$[ebp]
  0009d	89 45 a0	 mov	 DWORD PTR _kSlot$536084[ebp+8], eax

; 222  : 
; 223  : #ifdef __DEV_QA__
; 224  : 		LOG.PrintTimeAndLog( 0, "Accessory Idx : %d, code : %d , RandomNum : %d ", iSlotIndex, iAccessoryCode, iRandomNum );
; 225  : #endif
; 226  : 		
; 227  : 
; 228  : 		pAccessory->AddAccessorySlotData( kSlot );

  000a0	8d 45 98	 lea	 eax, DWORD PTR _kSlot$536084[ebp]
  000a3	50		 push	 eax
  000a4	8b ce		 mov	 ecx, esi
  000a6	89 5d fc	 mov	 DWORD PTR __$EHRec$[ebp+8], ebx
  000a9	e8 00 00 00 00	 call	 ?AddAccessorySlotData@ioUserAccessory@@QAEXABUtagAccessorySlot@@@Z ; ioUserAccessory::AddAccessorySlotData

; 229  : 
; 230  : 		iCode = iAccessoryCode;

  000ae	8b 4d ec	 mov	 ecx, DWORD PTR _iAccessoryCode$[ebp]
  000b1	8b 45 0c	 mov	 eax, DWORD PTR _iCode$[ebp]

; 231  : 	}

  000b4	83 4d fc ff	 or	 DWORD PTR __$EHRec$[ebp+8], -1
  000b8	89 08		 mov	 DWORD PTR [eax], ecx
  000ba	8d 4d 98	 lea	 ecx, DWORD PTR _kSlot$536084[ebp]
  000bd	e8 00 00 00 00	 call	 ??1tagAccessorySlot@@QAE@XZ
$LN1@OnAccessor@2:

; 232  : }

  000c2	e8 00 00 00 00	 call	 __EH_epilog3
  000c7	c2 08 00	 ret	 8
_TEXT	ENDS
;	COMDAT text$x
text$x	SEGMENT
__unwindfunclet$?OnAccessoryAdd@ioAccessoryInfoManager@@QAEXAAVSP2Packet@@AAH@Z$0:
  00000	8d 4d 98	 lea	 ecx, DWORD PTR _kSlot$536084[ebp]
  00003	e9 00 00 00 00	 jmp	 ??1tagAccessorySlot@@QAE@XZ
__ehhandler$?OnAccessoryAdd@ioAccessoryInfoManager@@QAEXAAVSP2Packet@@AAH@Z:
  00008	8b 54 24 08	 mov	 edx, DWORD PTR [esp+8]
  0000c	8d 42 0c	 lea	 eax, DWORD PTR [edx+12]
  0000f	8b 4a 94	 mov	 ecx, DWORD PTR [edx-108]
  00012	33 c8		 xor	 ecx, eax
  00014	e8 00 00 00 00	 call	 @__security_check_cookie@4
  00019	b8 00 00 00 00	 mov	 eax, OFFSET __ehfuncinfo$?OnAccessoryAdd@ioAccessoryInfoManager@@QAEXAAVSP2Packet@@AAH@Z
  0001e	e9 00 00 00 00	 jmp	 ___CxxFrameHandler3
text$x	ENDS
?OnAccessoryAdd@ioAccessoryInfoManager@@QAEXAAVSP2Packet@@AAH@Z ENDP ; ioAccessoryInfoManager::OnAccessoryAdd
PUBLIC	??0?$vector@VioComplexStringPrinter@@V?$allocator@VioComplexStringPrinter@@@std@@@std@@QAE@XZ ; std::vector<ioComplexStringPrinter,std::allocator<ioComplexStringPrinter> >::vector<ioComplexStringPrinter,std::allocator<ioComplexStringPrinter> >
; Function compile flags: /Ogsp
; File c:\program files (x86)\microsoft visual studio 10.0\vc\include\vector
;	COMDAT ??0?$vector@VioComplexStringPrinter@@V?$allocator@VioComplexStringPrinter@@@std@@@std@@QAE@XZ
_TEXT	SEGMENT
??0?$vector@VioComplexStringPrinter@@V?$allocator@VioComplexStringPrinter@@@std@@@std@@QAE@XZ PROC ; std::vector<ioComplexStringPrinter,std::allocator<ioComplexStringPrinter> >::vector<ioComplexStringPrinter,std::allocator<ioComplexStringPrinter> >, COMDAT
; _this$ = ecx

; 507  : 		{	// construct empty vector

  00000	8b c1		 mov	 eax, ecx
  00002	33 c9		 xor	 ecx, ecx
  00004	89 08		 mov	 DWORD PTR [eax], ecx
  00006	89 48 04	 mov	 DWORD PTR [eax+4], ecx
  00009	89 48 08	 mov	 DWORD PTR [eax+8], ecx

; 508  : 		}

  0000c	c3		 ret	 0
??0?$vector@VioComplexStringPrinter@@V?$allocator@VioComplexStringPrinter@@@std@@@std@@QAE@XZ ENDP ; std::vector<ioComplexStringPrinter,std::allocator<ioComplexStringPrinter> >::vector<ioComplexStringPrinter,std::allocator<ioComplexStringPrinter> >
_TEXT	ENDS
PUBLIC	??$?0$0BJ@@ioINILoader_e@@QAE@AAY0BJ@$$CBD_N@Z	; ioINILoader_e::ioINILoader_e<25>
EXTRN	__imp_??0ioINILoader@@QAE@PBD_N@Z:PROC
; Function compile flags: /Ogsp
; File d:\lost saga for developer\youtube\tutorial\source\src\io3dengine\ioiniloader.h
;	COMDAT ??$?0$0BJ@@ioINILoader_e@@QAE@AAY0BJ@$$CBD_N@Z
_TEXT	SEGMENT
_fn$ = 8						; size = 4
_b$ = 12						; size = 1
??$?0$0BJ@@ioINILoader_e@@QAE@AAY0BJ@$$CBD_N@Z PROC	; ioINILoader_e::ioINILoader_e<25>, COMDAT
; _this$ = ecx

; 224  : 	{

  00000	55		 push	 ebp
  00001	8b ec		 mov	 ebp, esp
  00003	53		 push	 ebx
  00004	56		 push	 esi
  00005	8b f1		 mov	 esi, ecx
  00007	8b 4d 08	 mov	 ecx, DWORD PTR _fn$[ebp]
  0000a	8a 11		 mov	 dl, BYTE PTR [ecx]
  0000c	8d 86 50 03 00
	00		 lea	 eax, DWORD PTR [esi+848]
  00012	84 d2		 test	 dl, dl
  00014	0f 84 6a 04 00
	00		 je	 $LN99@ioINILoade
  0001a	80 f2 ed	 xor	 dl, -19			; ffffffedH
  0001d	88 10		 mov	 BYTE PTR [eax], dl
  0001f	8a 51 01	 mov	 dl, BYTE PTR [ecx+1]
  00022	84 d2		 test	 dl, dl
  00024	0f 84 54 04 00
	00		 je	 $LN98@ioINILoade
  0002a	80 f2 ec	 xor	 dl, -20			; ffffffecH
  0002d	88 50 01	 mov	 BYTE PTR [eax+1], dl
  00030	8a 51 02	 mov	 dl, BYTE PTR [ecx+2]
  00033	84 d2		 test	 dl, dl
  00035	0f 84 3d 04 00
	00		 je	 $LN97@ioINILoade
  0003b	b3 eb		 mov	 bl, -21			; ffffffebH
  0003d	32 d3		 xor	 dl, bl
  0003f	88 50 02	 mov	 BYTE PTR [eax+2], dl
  00042	8a 51 03	 mov	 dl, BYTE PTR [ecx+3]
  00045	84 d2		 test	 dl, dl
  00047	0f 84 25 04 00
	00		 je	 $LN96@ioINILoade
  0004d	80 f2 ea	 xor	 dl, -22			; ffffffeaH
  00050	88 50 03	 mov	 BYTE PTR [eax+3], dl
  00053	8a 51 04	 mov	 dl, BYTE PTR [ecx+4]
  00056	84 d2		 test	 dl, dl
  00058	0f 84 0e 04 00
	00		 je	 $LN95@ioINILoade
  0005e	80 f2 ed	 xor	 dl, -19			; ffffffedH
  00061	88 50 04	 mov	 BYTE PTR [eax+4], dl
  00064	8a 51 05	 mov	 dl, BYTE PTR [ecx+5]
  00067	84 d2		 test	 dl, dl
  00069	0f 84 f7 03 00
	00		 je	 $LN94@ioINILoade
  0006f	80 f2 ec	 xor	 dl, -20			; ffffffecH
  00072	88 50 05	 mov	 BYTE PTR [eax+5], dl
  00075	8a 51 06	 mov	 dl, BYTE PTR [ecx+6]
  00078	84 d2		 test	 dl, dl
  0007a	0f 84 e1 03 00
	00		 je	 $LN93@ioINILoade
  00080	32 d3		 xor	 dl, bl
  00082	88 50 06	 mov	 BYTE PTR [eax+6], dl
  00085	8a 51 07	 mov	 dl, BYTE PTR [ecx+7]
  00088	84 d2		 test	 dl, dl
  0008a	0f 84 cb 03 00
	00		 je	 $LN92@ioINILoade
  00090	80 f2 ea	 xor	 dl, -22			; ffffffeaH
  00093	88 50 07	 mov	 BYTE PTR [eax+7], dl
  00096	8a 51 08	 mov	 dl, BYTE PTR [ecx+8]
  00099	84 d2		 test	 dl, dl
  0009b	0f 84 b4 03 00
	00		 je	 $LN91@ioINILoade
  000a1	80 f2 ed	 xor	 dl, -19			; ffffffedH
  000a4	88 50 08	 mov	 BYTE PTR [eax+8], dl
  000a7	8a 51 09	 mov	 dl, BYTE PTR [ecx+9]
  000aa	84 d2		 test	 dl, dl
  000ac	0f 84 9d 03 00
	00		 je	 $LN90@ioINILoade
  000b2	80 f2 ec	 xor	 dl, -20			; ffffffecH
  000b5	88 50 09	 mov	 BYTE PTR [eax+9], dl
  000b8	8a 51 0a	 mov	 dl, BYTE PTR [ecx+10]
  000bb	84 d2		 test	 dl, dl
  000bd	0f 84 87 03 00
	00		 je	 $LN89@ioINILoade
  000c3	32 d3		 xor	 dl, bl
  000c5	88 50 0a	 mov	 BYTE PTR [eax+10], dl
  000c8	8a 51 0b	 mov	 dl, BYTE PTR [ecx+11]
  000cb	84 d2		 test	 dl, dl
  000cd	0f 84 71 03 00
	00		 je	 $LN88@ioINILoade
  000d3	80 f2 ea	 xor	 dl, -22			; ffffffeaH
  000d6	88 50 0b	 mov	 BYTE PTR [eax+11], dl
  000d9	8a 51 0c	 mov	 dl, BYTE PTR [ecx+12]
  000dc	84 d2		 test	 dl, dl
  000de	0f 84 5a 03 00
	00		 je	 $LN87@ioINILoade
  000e4	80 f2 ed	 xor	 dl, -19			; ffffffedH
  000e7	88 50 0c	 mov	 BYTE PTR [eax+12], dl
  000ea	8a 51 0d	 mov	 dl, BYTE PTR [ecx+13]
  000ed	84 d2		 test	 dl, dl
  000ef	0f 84 43 03 00
	00		 je	 $LN86@ioINILoade
  000f5	80 f2 ec	 xor	 dl, -20			; ffffffecH
  000f8	88 50 0d	 mov	 BYTE PTR [eax+13], dl
  000fb	8a 51 0e	 mov	 dl, BYTE PTR [ecx+14]
  000fe	84 d2		 test	 dl, dl
  00100	0f 84 2d 03 00
	00		 je	 $LN85@ioINILoade
  00106	32 d3		 xor	 dl, bl
  00108	88 50 0e	 mov	 BYTE PTR [eax+14], dl
  0010b	8a 51 0f	 mov	 dl, BYTE PTR [ecx+15]
  0010e	84 d2		 test	 dl, dl
  00110	0f 84 17 03 00
	00		 je	 $LN84@ioINILoade
  00116	80 f2 ea	 xor	 dl, -22			; ffffffeaH
  00119	88 50 0f	 mov	 BYTE PTR [eax+15], dl
  0011c	8a 51 10	 mov	 dl, BYTE PTR [ecx+16]
  0011f	84 d2		 test	 dl, dl
  00121	0f 84 00 03 00
	00		 je	 $LN83@ioINILoade
  00127	80 f2 ed	 xor	 dl, -19			; ffffffedH
  0012a	88 50 10	 mov	 BYTE PTR [eax+16], dl
  0012d	8a 51 11	 mov	 dl, BYTE PTR [ecx+17]
  00130	84 d2		 test	 dl, dl
  00132	0f 84 e9 02 00
	00		 je	 $LN82@ioINILoade
  00138	80 f2 ec	 xor	 dl, -20			; ffffffecH
  0013b	88 50 11	 mov	 BYTE PTR [eax+17], dl
  0013e	8a 51 12	 mov	 dl, BYTE PTR [ecx+18]
  00141	84 d2		 test	 dl, dl
  00143	0f 84 d3 02 00
	00		 je	 $LN81@ioINILoade
  00149	32 d3		 xor	 dl, bl
  0014b	88 50 12	 mov	 BYTE PTR [eax+18], dl
  0014e	8a 51 13	 mov	 dl, BYTE PTR [ecx+19]
  00151	84 d2		 test	 dl, dl
  00153	0f 84 bd 02 00
	00		 je	 $LN80@ioINILoade
  00159	80 f2 ea	 xor	 dl, -22			; ffffffeaH
  0015c	88 50 13	 mov	 BYTE PTR [eax+19], dl
  0015f	8a 51 14	 mov	 dl, BYTE PTR [ecx+20]
  00162	84 d2		 test	 dl, dl
  00164	0f 84 a6 02 00
	00		 je	 $LN79@ioINILoade
  0016a	80 f2 ed	 xor	 dl, -19			; ffffffedH
  0016d	88 50 14	 mov	 BYTE PTR [eax+20], dl
  00170	8a 51 15	 mov	 dl, BYTE PTR [ecx+21]
  00173	84 d2		 test	 dl, dl
  00175	0f 84 8f 02 00
	00		 je	 $LN78@ioINILoade
  0017b	80 f2 ec	 xor	 dl, -20			; ffffffecH
  0017e	88 50 15	 mov	 BYTE PTR [eax+21], dl
  00181	8a 51 16	 mov	 dl, BYTE PTR [ecx+22]
  00184	84 d2		 test	 dl, dl
  00186	0f 84 79 02 00
	00		 je	 $LN77@ioINILoade
  0018c	32 d3		 xor	 dl, bl
  0018e	88 50 16	 mov	 BYTE PTR [eax+22], dl
  00191	8a 51 17	 mov	 dl, BYTE PTR [ecx+23]
  00194	84 d2		 test	 dl, dl
  00196	0f 84 60 02 00
	00		 je	 $LN76@ioINILoade
  0019c	80 f2 ea	 xor	 dl, -22			; ffffffeaH
  0019f	88 50 17	 mov	 BYTE PTR [eax+23], dl
  001a2	8a 51 18	 mov	 dl, BYTE PTR [ecx+24]
  001a5	84 d2		 test	 dl, dl
  001a7	0f 84 46 02 00
	00		 je	 $LN75@ioINILoade
  001ad	80 f2 ed	 xor	 dl, -19			; ffffffedH
  001b0	88 50 18	 mov	 BYTE PTR [eax+24], dl
  001b3	8a 51 19	 mov	 dl, BYTE PTR [ecx+25]
  001b6	84 d2		 test	 dl, dl
  001b8	0f 84 2c 02 00
	00		 je	 $LN74@ioINILoade
  001be	80 f2 ec	 xor	 dl, -20			; ffffffecH
  001c1	88 50 19	 mov	 BYTE PTR [eax+25], dl
  001c4	8a 51 1a	 mov	 dl, BYTE PTR [ecx+26]
  001c7	84 d2		 test	 dl, dl
  001c9	0f 84 13 02 00
	00		 je	 $LN73@ioINILoade
  001cf	32 d3		 xor	 dl, bl
  001d1	88 50 1a	 mov	 BYTE PTR [eax+26], dl
  001d4	8a 51 1b	 mov	 dl, BYTE PTR [ecx+27]
  001d7	84 d2		 test	 dl, dl
  001d9	0f 84 fa 01 00
	00		 je	 $LN72@ioINILoade
  001df	80 f2 ea	 xor	 dl, -22			; ffffffeaH
  001e2	88 50 1b	 mov	 BYTE PTR [eax+27], dl
  001e5	8a 51 1c	 mov	 dl, BYTE PTR [ecx+28]
  001e8	84 d2		 test	 dl, dl
  001ea	0f 84 e0 01 00
	00		 je	 $LN71@ioINILoade
  001f0	80 f2 ed	 xor	 dl, -19			; ffffffedH
  001f3	88 50 1c	 mov	 BYTE PTR [eax+28], dl
  001f6	8a 51 1d	 mov	 dl, BYTE PTR [ecx+29]
  001f9	84 d2		 test	 dl, dl
  001fb	0f 84 c6 01 00
	00		 je	 $LN70@ioINILoade
  00201	80 f2 ec	 xor	 dl, -20			; ffffffecH
  00204	88 50 1d	 mov	 BYTE PTR [eax+29], dl
  00207	8a 51 1e	 mov	 dl, BYTE PTR [ecx+30]
  0020a	84 d2		 test	 dl, dl
  0020c	0f 84 ad 01 00
	00		 je	 $LN69@ioINILoade
  00212	32 d3		 xor	 dl, bl
  00214	88 50 1e	 mov	 BYTE PTR [eax+30], dl
  00217	8a 51 1f	 mov	 dl, BYTE PTR [ecx+31]
  0021a	84 d2		 test	 dl, dl
  0021c	0f 84 94 01 00
	00		 je	 $LN68@ioINILoade
  00222	80 f2 ea	 xor	 dl, -22			; ffffffeaH
  00225	88 50 1f	 mov	 BYTE PTR [eax+31], dl
  00228	8a 51 20	 mov	 dl, BYTE PTR [ecx+32]
  0022b	84 d2		 test	 dl, dl
  0022d	0f 84 7a 01 00
	00		 je	 $LN67@ioINILoade
  00233	80 f2 ed	 xor	 dl, -19			; ffffffedH
  00236	88 50 20	 mov	 BYTE PTR [eax+32], dl
  00239	8a 51 21	 mov	 dl, BYTE PTR [ecx+33]
  0023c	84 d2		 test	 dl, dl
  0023e	0f 84 60 01 00
	00		 je	 $LN66@ioINILoade
  00244	80 f2 ec	 xor	 dl, -20			; ffffffecH
  00247	88 50 21	 mov	 BYTE PTR [eax+33], dl
  0024a	8a 51 22	 mov	 dl, BYTE PTR [ecx+34]
  0024d	84 d2		 test	 dl, dl
  0024f	0f 84 47 01 00
	00		 je	 $LN65@ioINILoade
  00255	32 d3		 xor	 dl, bl
  00257	88 50 22	 mov	 BYTE PTR [eax+34], dl
  0025a	8a 51 23	 mov	 dl, BYTE PTR [ecx+35]
  0025d	84 d2		 test	 dl, dl
  0025f	0f 84 2e 01 00
	00		 je	 $LN64@ioINILoade
  00265	80 f2 ea	 xor	 dl, -22			; ffffffeaH
  00268	88 50 23	 mov	 BYTE PTR [eax+35], dl
  0026b	8a 51 24	 mov	 dl, BYTE PTR [ecx+36]
  0026e	84 d2		 test	 dl, dl
  00270	0f 84 14 01 00
	00		 je	 $LN63@ioINILoade
  00276	80 f2 ed	 xor	 dl, -19			; ffffffedH
  00279	88 50 24	 mov	 BYTE PTR [eax+36], dl
  0027c	8a 51 25	 mov	 dl, BYTE PTR [ecx+37]
  0027f	84 d2		 test	 dl, dl
  00281	0f 84 fa 00 00
	00		 je	 $LN62@ioINILoade
  00287	80 f2 ec	 xor	 dl, -20			; ffffffecH
  0028a	88 50 25	 mov	 BYTE PTR [eax+37], dl
  0028d	8a 51 26	 mov	 dl, BYTE PTR [ecx+38]
  00290	84 d2		 test	 dl, dl
  00292	0f 84 e1 00 00
	00		 je	 $LN61@ioINILoade
  00298	32 d3		 xor	 dl, bl
  0029a	88 50 26	 mov	 BYTE PTR [eax+38], dl
  0029d	8a 51 27	 mov	 dl, BYTE PTR [ecx+39]
  002a0	84 d2		 test	 dl, dl
  002a2	0f 84 c8 00 00
	00		 je	 $LN60@ioINILoade
  002a8	80 f2 ea	 xor	 dl, -22			; ffffffeaH
  002ab	88 50 27	 mov	 BYTE PTR [eax+39], dl
  002ae	8a 51 28	 mov	 dl, BYTE PTR [ecx+40]
  002b1	84 d2		 test	 dl, dl
  002b3	0f 84 ae 00 00
	00		 je	 $LN59@ioINILoade
  002b9	80 f2 ed	 xor	 dl, -19			; ffffffedH
  002bc	88 50 28	 mov	 BYTE PTR [eax+40], dl
  002bf	8a 51 29	 mov	 dl, BYTE PTR [ecx+41]
  002c2	84 d2		 test	 dl, dl
  002c4	0f 84 94 00 00
	00		 je	 $LN58@ioINILoade
  002ca	80 f2 ec	 xor	 dl, -20			; ffffffecH
  002cd	88 50 29	 mov	 BYTE PTR [eax+41], dl
  002d0	8a 51 2a	 mov	 dl, BYTE PTR [ecx+42]
  002d3	84 d2		 test	 dl, dl
  002d5	74 7f		 je	 SHORT $LN57@ioINILoade
  002d7	32 d3		 xor	 dl, bl
  002d9	88 50 2a	 mov	 BYTE PTR [eax+42], dl
  002dc	8a 51 2b	 mov	 dl, BYTE PTR [ecx+43]
  002df	84 d2		 test	 dl, dl
  002e1	74 6a		 je	 SHORT $LN56@ioINILoade
  002e3	80 f2 ea	 xor	 dl, -22			; ffffffeaH
  002e6	88 50 2b	 mov	 BYTE PTR [eax+43], dl
  002e9	8a 51 2c	 mov	 dl, BYTE PTR [ecx+44]
  002ec	84 d2		 test	 dl, dl
  002ee	74 54		 je	 SHORT $LN55@ioINILoade
  002f0	80 f2 ed	 xor	 dl, -19			; ffffffedH
  002f3	88 50 2c	 mov	 BYTE PTR [eax+44], dl
  002f6	8a 51 2d	 mov	 dl, BYTE PTR [ecx+45]
  002f9	84 d2		 test	 dl, dl
  002fb	74 3e		 je	 SHORT $LN54@ioINILoade
  002fd	80 f2 ec	 xor	 dl, -20			; ffffffecH
  00300	88 50 2d	 mov	 BYTE PTR [eax+45], dl
  00303	8a 51 2e	 mov	 dl, BYTE PTR [ecx+46]
  00306	84 d2		 test	 dl, dl
  00308	74 29		 je	 SHORT $LN53@ioINILoade
  0030a	32 d3		 xor	 dl, bl
  0030c	88 50 2e	 mov	 BYTE PTR [eax+46], dl
  0030f	8a 51 2f	 mov	 dl, BYTE PTR [ecx+47]
  00312	84 d2		 test	 dl, dl
  00314	74 14		 je	 SHORT $LN52@ioINILoade
  00316	80 f2 ea	 xor	 dl, -22			; ffffffeaH
  00319	88 50 2f	 mov	 BYTE PTR [eax+47], dl
  0031c	8a 49 30	 mov	 cl, BYTE PTR [ecx+48]
  0031f	80 f1 ed	 xor	 cl, -19			; ffffffedH
  00322	88 48 30	 mov	 BYTE PTR [eax+48], cl
  00325	e9 5d 01 00 00	 jmp	 $LN4@ioINILoade
$LN52@ioINILoade:
  0032a	c6 40 2f ea	 mov	 BYTE PTR [eax+47], -22	; ffffffeaH
  0032e	e9 54 01 00 00	 jmp	 $LN4@ioINILoade
$LN53@ioINILoade:
  00333	88 58 2e	 mov	 BYTE PTR [eax+46], bl
  00336	e9 4c 01 00 00	 jmp	 $LN4@ioINILoade
$LN54@ioINILoade:
  0033b	c6 40 2d ec	 mov	 BYTE PTR [eax+45], -20	; ffffffecH
  0033f	e9 43 01 00 00	 jmp	 $LN4@ioINILoade
$LN55@ioINILoade:
  00344	c6 40 2c ed	 mov	 BYTE PTR [eax+44], -19	; ffffffedH
  00348	e9 3a 01 00 00	 jmp	 $LN4@ioINILoade
$LN56@ioINILoade:
  0034d	c6 40 2b ea	 mov	 BYTE PTR [eax+43], -22	; ffffffeaH
  00351	e9 31 01 00 00	 jmp	 $LN4@ioINILoade
$LN57@ioINILoade:
  00356	88 58 2a	 mov	 BYTE PTR [eax+42], bl
  00359	e9 29 01 00 00	 jmp	 $LN4@ioINILoade
$LN58@ioINILoade:
  0035e	c6 40 29 ec	 mov	 BYTE PTR [eax+41], -20	; ffffffecH
  00362	e9 20 01 00 00	 jmp	 $LN4@ioINILoade
$LN59@ioINILoade:
  00367	c6 40 28 ed	 mov	 BYTE PTR [eax+40], -19	; ffffffedH
  0036b	e9 17 01 00 00	 jmp	 $LN4@ioINILoade
$LN60@ioINILoade:
  00370	c6 40 27 ea	 mov	 BYTE PTR [eax+39], -22	; ffffffeaH
  00374	e9 0e 01 00 00	 jmp	 $LN4@ioINILoade
$LN61@ioINILoade:
  00379	88 58 26	 mov	 BYTE PTR [eax+38], bl
  0037c	e9 06 01 00 00	 jmp	 $LN4@ioINILoade
$LN62@ioINILoade:
  00381	c6 40 25 ec	 mov	 BYTE PTR [eax+37], -20	; ffffffecH
  00385	e9 fd 00 00 00	 jmp	 $LN4@ioINILoade
$LN63@ioINILoade:
  0038a	c6 40 24 ed	 mov	 BYTE PTR [eax+36], -19	; ffffffedH
  0038e	e9 f4 00 00 00	 jmp	 $LN4@ioINILoade
$LN64@ioINILoade:
  00393	c6 40 23 ea	 mov	 BYTE PTR [eax+35], -22	; ffffffeaH
  00397	e9 eb 00 00 00	 jmp	 $LN4@ioINILoade
$LN65@ioINILoade:
  0039c	88 58 22	 mov	 BYTE PTR [eax+34], bl
  0039f	e9 e3 00 00 00	 jmp	 $LN4@ioINILoade
$LN66@ioINILoade:
  003a4	c6 40 21 ec	 mov	 BYTE PTR [eax+33], -20	; ffffffecH
  003a8	e9 da 00 00 00	 jmp	 $LN4@ioINILoade
$LN67@ioINILoade:
  003ad	c6 40 20 ed	 mov	 BYTE PTR [eax+32], -19	; ffffffedH
  003b1	e9 d1 00 00 00	 jmp	 $LN4@ioINILoade
$LN68@ioINILoade:
  003b6	c6 40 1f ea	 mov	 BYTE PTR [eax+31], -22	; ffffffeaH
  003ba	e9 c8 00 00 00	 jmp	 $LN4@ioINILoade
$LN69@ioINILoade:
  003bf	88 58 1e	 mov	 BYTE PTR [eax+30], bl
  003c2	e9 c0 00 00 00	 jmp	 $LN4@ioINILoade
$LN70@ioINILoade:
  003c7	c6 40 1d ec	 mov	 BYTE PTR [eax+29], -20	; ffffffecH
  003cb	e9 b7 00 00 00	 jmp	 $LN4@ioINILoade
$LN71@ioINILoade:
  003d0	c6 40 1c ed	 mov	 BYTE PTR [eax+28], -19	; ffffffedH
  003d4	e9 ae 00 00 00	 jmp	 $LN4@ioINILoade
$LN72@ioINILoade:
  003d9	c6 40 1b ea	 mov	 BYTE PTR [eax+27], -22	; ffffffeaH
  003dd	e9 a5 00 00 00	 jmp	 $LN4@ioINILoade
$LN73@ioINILoade:
  003e2	88 58 1a	 mov	 BYTE PTR [eax+26], bl
  003e5	e9 9d 00 00 00	 jmp	 $LN4@ioINILoade
$LN74@ioINILoade:
  003ea	c6 40 19 ec	 mov	 BYTE PTR [eax+25], -20	; ffffffecH
  003ee	e9 94 00 00 00	 jmp	 $LN4@ioINILoade
$LN75@ioINILoade:
  003f3	c6 40 18 ed	 mov	 BYTE PTR [eax+24], -19	; ffffffedH
  003f7	e9 8b 00 00 00	 jmp	 $LN4@ioINILoade
$LN76@ioINILoade:
  003fc	c6 40 17 ea	 mov	 BYTE PTR [eax+23], -22	; ffffffeaH
  00400	e9 82 00 00 00	 jmp	 $LN4@ioINILoade
$LN77@ioINILoade:
  00405	88 58 16	 mov	 BYTE PTR [eax+22], bl
  00408	eb 7d		 jmp	 SHORT $LN4@ioINILoade
$LN78@ioINILoade:
  0040a	c6 40 15 ec	 mov	 BYTE PTR [eax+21], -20	; ffffffecH
  0040e	eb 77		 jmp	 SHORT $LN4@ioINILoade
$LN79@ioINILoade:
  00410	c6 40 14 ed	 mov	 BYTE PTR [eax+20], -19	; ffffffedH
  00414	eb 71		 jmp	 SHORT $LN4@ioINILoade
$LN80@ioINILoade:
  00416	c6 40 13 ea	 mov	 BYTE PTR [eax+19], -22	; ffffffeaH
  0041a	eb 6b		 jmp	 SHORT $LN4@ioINILoade
$LN81@ioINILoade:
  0041c	88 58 12	 mov	 BYTE PTR [eax+18], bl
  0041f	eb 66		 jmp	 SHORT $LN4@ioINILoade
$LN82@ioINILoade:
  00421	c6 40 11 ec	 mov	 BYTE PTR [eax+17], -20	; ffffffecH
  00425	eb 60		 jmp	 SHORT $LN4@ioINILoade
$LN83@ioINILoade:
  00427	c6 40 10 ed	 mov	 BYTE PTR [eax+16], -19	; ffffffedH
  0042b	eb 5a		 jmp	 SHORT $LN4@ioINILoade
$LN84@ioINILoade:
  0042d	c6 40 0f ea	 mov	 BYTE PTR [eax+15], -22	; ffffffeaH
  00431	eb 54		 jmp	 SHORT $LN4@ioINILoade
$LN85@ioINILoade:
  00433	88 58 0e	 mov	 BYTE PTR [eax+14], bl
  00436	eb 4f		 jmp	 SHORT $LN4@ioINILoade
$LN86@ioINILoade:
  00438	c6 40 0d ec	 mov	 BYTE PTR [eax+13], -20	; ffffffecH
  0043c	eb 49		 jmp	 SHORT $LN4@ioINILoade
$LN87@ioINILoade:
  0043e	c6 40 0c ed	 mov	 BYTE PTR [eax+12], -19	; ffffffedH
  00442	eb 43		 jmp	 SHORT $LN4@ioINILoade
$LN88@ioINILoade:
  00444	c6 40 0b ea	 mov	 BYTE PTR [eax+11], -22	; ffffffeaH
  00448	eb 3d		 jmp	 SHORT $LN4@ioINILoade
$LN89@ioINILoade:
  0044a	88 58 0a	 mov	 BYTE PTR [eax+10], bl
  0044d	eb 38		 jmp	 SHORT $LN4@ioINILoade
$LN90@ioINILoade:
  0044f	c6 40 09 ec	 mov	 BYTE PTR [eax+9], -20	; ffffffecH
  00453	eb 32		 jmp	 SHORT $LN4@ioINILoade
$LN91@ioINILoade:
  00455	c6 40 08 ed	 mov	 BYTE PTR [eax+8], -19	; ffffffedH
  00459	eb 2c		 jmp	 SHORT $LN4@ioINILoade
$LN92@ioINILoade:
  0045b	c6 40 07 ea	 mov	 BYTE PTR [eax+7], -22	; ffffffeaH
  0045f	eb 26		 jmp	 SHORT $LN4@ioINILoade
$LN93@ioINILoade:
  00461	88 58 06	 mov	 BYTE PTR [eax+6], bl
  00464	eb 21		 jmp	 SHORT $LN4@ioINILoade
$LN94@ioINILoade:
  00466	c6 40 05 ec	 mov	 BYTE PTR [eax+5], -20	; ffffffecH
  0046a	eb 1b		 jmp	 SHORT $LN4@ioINILoade
$LN95@ioINILoade:
  0046c	c6 40 04 ed	 mov	 BYTE PTR [eax+4], -19	; ffffffedH
  00470	eb 15		 jmp	 SHORT $LN4@ioINILoade
$LN96@ioINILoade:
  00472	c6 40 03 ea	 mov	 BYTE PTR [eax+3], -22	; ffffffeaH
  00476	eb 0f		 jmp	 SHORT $LN4@ioINILoade
$LN97@ioINILoade:
  00478	c6 40 02 eb	 mov	 BYTE PTR [eax+2], -21	; ffffffebH
  0047c	eb 09		 jmp	 SHORT $LN4@ioINILoade
$LN98@ioINILoade:
  0047e	c6 40 01 ec	 mov	 BYTE PTR [eax+1], -20	; ffffffecH
  00482	eb 03		 jmp	 SHORT $LN4@ioINILoade
$LN99@ioINILoade:
  00484	c6 00 ed	 mov	 BYTE PTR [eax], -19	; ffffffedH
$LN4@ioINILoade:
  00487	6a 06		 push	 6
  00489	8b c8		 mov	 ecx, eax
  0048b	c6 40 18 00	 mov	 BYTE PTR [eax+24], 0
  0048f	5a		 pop	 edx
$LL107@ioINILoade:
  00490	81 31 ed ec eb
	ea		 xor	 DWORD PTR [ecx], -353637139 ; eaebecedH
  00496	83 c1 04	 add	 ecx, 4
  00499	4a		 dec	 edx
  0049a	75 f4		 jne	 SHORT $LL107@ioINILoade
  0049c	ff 75 0c	 push	 DWORD PTR _b$[ebp]
  0049f	8b ce		 mov	 ecx, esi
  004a1	50		 push	 eax
  004a2	ff 15 00 00 00
	00		 call	 DWORD PTR __imp_??0ioINILoader@@QAE@PBD_N@Z

; 225  : 	}

  004a8	8b c6		 mov	 eax, esi
  004aa	5e		 pop	 esi
  004ab	5b		 pop	 ebx
  004ac	5d		 pop	 ebp
  004ad	c2 08 00	 ret	 8
??$?0$0BJ@@ioINILoader_e@@QAE@AAY0BJ@$$CBD_N@Z ENDP	; ioINILoader_e::ioINILoader_e<25>
_TEXT	ENDS
PUBLIC	?_Buy@?$vector@UtagTextPiece@ioComplexStringPrinter@@V?$allocator@UtagTextPiece@ioComplexStringPrinter@@@std@@@std@@IAE_NI@Z ; std::vector<ioComplexStringPrinter::tagTextPiece,std::allocator<ioComplexStringPrinter::tagTextPiece> >::_Buy
; Function compile flags: /Ogsp
; File c:\program files (x86)\microsoft visual studio 10.0\vc\include\vector
;	COMDAT ?_Buy@?$vector@UtagTextPiece@ioComplexStringPrinter@@V?$allocator@UtagTextPiece@ioComplexStringPrinter@@@std@@@std@@IAE_NI@Z
_TEXT	SEGMENT
__Capacity$ = 8						; size = 4
?_Buy@?$vector@UtagTextPiece@ioComplexStringPrinter@@V?$allocator@UtagTextPiece@ioComplexStringPrinter@@@std@@@std@@IAE_NI@Z PROC ; std::vector<ioComplexStringPrinter::tagTextPiece,std::allocator<ioComplexStringPrinter::tagTextPiece> >::_Buy, COMDAT
; _this$ = ecx

; 1250 : 		{	// allocate array with _Capacity elements

  00000	55		 push	 ebp
  00001	8b ec		 mov	 ebp, esp
  00003	56		 push	 esi

; 1251 : 		this->_Myfirst = 0;

  00004	33 c0		 xor	 eax, eax
  00006	57		 push	 edi

; 1252 : 		this->_Mylast = 0;
; 1253 : 		this->_Myend = 0;
; 1254 : 
; 1255 : 		if (_Capacity == 0)

  00007	8b 7d 08	 mov	 edi, DWORD PTR __Capacity$[ebp]
  0000a	8b f1		 mov	 esi, ecx
  0000c	89 06		 mov	 DWORD PTR [esi], eax
  0000e	89 46 04	 mov	 DWORD PTR [esi+4], eax
  00011	89 46 08	 mov	 DWORD PTR [esi+8], eax
  00014	3b f8		 cmp	 edi, eax
  00016	75 04		 jne	 SHORT $LN4@Buy

; 1256 : 			return (false);

  00018	32 c0		 xor	 al, al
  0001a	eb 2b		 jmp	 SHORT $LN5@Buy
$LN4@Buy:

; 1257 : 		else if (max_size() < _Capacity)

  0001c	81 ff c4 4e ec
	04		 cmp	 edi, 82595524		; 04ec4ec4H
  00022	76 0b		 jbe	 SHORT $LN2@Buy

; 1258 : 			_Xlen();	// result too long

  00024	68 00 00 00 00	 push	 OFFSET ??_C@_0BD@OLBABOEK@vector?$DMT?$DO?5too?5long?$AA@
  00029	ff 15 00 00 00
	00		 call	 DWORD PTR __imp_?_Xlength_error@std@@YAXPBD@Z
$LN19@Buy:
$LN2@Buy:

; 1259 : 		else
; 1260 : 			{	// nonempty array, allocate storage
; 1261 : 			this->_Myfirst = this->_Alval.allocate(_Capacity);

  0002f	50		 push	 eax
  00030	57		 push	 edi
  00031	e8 00 00 00 00	 call	 ??$_Allocate@UtagTextPiece@ioComplexStringPrinter@@@std@@YAPAUtagTextPiece@ioComplexStringPrinter@@IPAU12@@Z ; std::_Allocate<ioComplexStringPrinter::tagTextPiece>

; 1262 : 			this->_Mylast = this->_Myfirst;
; 1263 : 			this->_Myend = this->_Myfirst + _Capacity;

  00036	6b ff 34	 imul	 edi, 52			; 00000034H
  00039	03 f8		 add	 edi, eax
  0003b	59		 pop	 ecx
  0003c	89 06		 mov	 DWORD PTR [esi], eax
  0003e	89 46 04	 mov	 DWORD PTR [esi+4], eax
  00041	59		 pop	 ecx
  00042	89 7e 08	 mov	 DWORD PTR [esi+8], edi

; 1264 : 			}
; 1265 : 		return (true);

  00045	b0 01		 mov	 al, 1
$LN5@Buy:
  00047	5f		 pop	 edi
  00048	5e		 pop	 esi

; 1266 : 		}

  00049	5d		 pop	 ebp
  0004a	c2 04 00	 ret	 4
$LN18@Buy:
?_Buy@?$vector@UtagTextPiece@ioComplexStringPrinter@@V?$allocator@UtagTextPiece@ioComplexStringPrinter@@@std@@@std@@IAE_NI@Z ENDP ; std::vector<ioComplexStringPrinter::tagTextPiece,std::allocator<ioComplexStringPrinter::tagTextPiece> >::_Buy
_TEXT	ENDS
PUBLIC	?destroy@?$allocator@VioComplexStringPrinter@@@std@@QAEXPAVioComplexStringPrinter@@@Z ; std::allocator<ioComplexStringPrinter>::destroy
; Function compile flags: /Ogsp
; File c:\program files (x86)\microsoft visual studio 10.0\vc\include\xmemory
;	COMDAT ?destroy@?$allocator@VioComplexStringPrinter@@@std@@QAEXPAVioComplexStringPrinter@@@Z
_TEXT	SEGMENT
__Ptr$ = 8						; size = 4
?destroy@?$allocator@VioComplexStringPrinter@@@std@@QAEXPAVioComplexStringPrinter@@@Z PROC ; std::allocator<ioComplexStringPrinter>::destroy, COMDAT
; _this$ = ecx

; 212  : 		{	// destroy object at _Ptr

  00000	55		 push	 ebp
  00001	8b ec		 mov	 ebp, esp

; 213  : 		_Destroy(_Ptr);

  00003	8b 4d 08	 mov	 ecx, DWORD PTR __Ptr$[ebp]
  00006	e8 00 00 00 00	 call	 ??1ioComplexStringPrinter@@QAE@XZ ; ioComplexStringPrinter::~ioComplexStringPrinter

; 214  : 		}

  0000b	5d		 pop	 ebp
  0000c	c2 04 00	 ret	 4
?destroy@?$allocator@VioComplexStringPrinter@@@std@@QAEXPAVioComplexStringPrinter@@@Z ENDP ; std::allocator<ioComplexStringPrinter>::destroy
_TEXT	ENDS
PUBLIC	??9?$_Vector_const_iterator@V?$_Vector_val@UtagTextPiece@ioComplexStringPrinter@@V?$allocator@UtagTextPiece@ioComplexStringPrinter@@@std@@@std@@@std@@QBE_NABV01@@Z ; std::_Vector_const_iterator<std::_Vector_val<ioComplexStringPrinter::tagTextPiece,std::allocator<ioComplexStringPrinter::tagTextPiece> > >::operator!=
; Function compile flags: /Ogsp
; File c:\program files (x86)\microsoft visual studio 10.0\vc\include\vector
;	COMDAT ??9?$_Vector_const_iterator@V?$_Vector_val@UtagTextPiece@ioComplexStringPrinter@@V?$allocator@UtagTextPiece@ioComplexStringPrinter@@@std@@@std@@@std@@QBE_NABV01@@Z
_TEXT	SEGMENT
__Right$ = 8						; size = 4
??9?$_Vector_const_iterator@V?$_Vector_val@UtagTextPiece@ioComplexStringPrinter@@V?$allocator@UtagTextPiece@ioComplexStringPrinter@@@std@@@std@@@std@@QBE_NABV01@@Z PROC ; std::_Vector_const_iterator<std::_Vector_val<ioComplexStringPrinter::tagTextPiece,std::allocator<ioComplexStringPrinter::tagTextPiece> > >::operator!=, COMDAT
; _this$ = ecx

; 207  : 		{	// test for iterator inequality

  00000	55		 push	 ebp
  00001	8b ec		 mov	 ebp, esp

; 208  : 		return (!(*this == _Right));

  00003	8b 01		 mov	 eax, DWORD PTR [ecx]
  00005	8b 55 08	 mov	 edx, DWORD PTR __Right$[ebp]
  00008	33 c9		 xor	 ecx, ecx
  0000a	3b 02		 cmp	 eax, DWORD PTR [edx]
  0000c	0f 95 c0	 setne	 al

; 209  : 		}

  0000f	5d		 pop	 ebp
  00010	c2 04 00	 ret	 4
??9?$_Vector_const_iterator@V?$_Vector_val@UtagTextPiece@ioComplexStringPrinter@@V?$allocator@UtagTextPiece@ioComplexStringPrinter@@@std@@@std@@@std@@QBE_NABV01@@Z ENDP ; std::_Vector_const_iterator<std::_Vector_val<ioComplexStringPrinter::tagTextPiece,std::allocator<ioComplexStringPrinter::tagTextPiece> > >::operator!=
_TEXT	ENDS
PUBLIC	?_Tidy@?$basic_string@DU?$char_traits@D@std@@V?$allocator@D@2@@std@@QAEX_NI@Z ; std::basic_string<char,std::char_traits<char>,std::allocator<char> >::_Tidy
; Function compile flags: /Ogsp
; File c:\program files (x86)\microsoft visual studio 10.0\vc\include\xstring
;	COMDAT ?_Tidy@?$basic_string@DU?$char_traits@D@std@@V?$allocator@D@2@@std@@QAEX_NI@Z
_TEXT	SEGMENT
__Built$ = 8						; size = 1
__Newsize$ = 12						; size = 4
?_Tidy@?$basic_string@DU?$char_traits@D@std@@V?$allocator@D@2@@std@@QAEX_NI@Z PROC ; std::basic_string<char,std::char_traits<char>,std::allocator<char> >::_Tidy, COMDAT
; _this$ = ecx

; 1988 : 		{	// initialize buffer, deallocating any storage

  00000	55		 push	 ebp
  00001	8b ec		 mov	 ebp, esp

; 1989 : 		if (!_Built)

  00003	80 7d 08 00	 cmp	 BYTE PTR __Built$[ebp], 0
  00007	56		 push	 esi
  00008	57		 push	 edi
  00009	8b 7d 0c	 mov	 edi, DWORD PTR __Newsize$[ebp]
  0000c	8b f1		 mov	 esi, ecx
  0000e	74 20		 je	 SHORT $LN9@Tidy

; 1990 : 			;
; 1991 : 		else if (this->_BUF_SIZE <= this->_Myres)

  00010	83 7e 14 10	 cmp	 DWORD PTR [esi+20], 16	; 00000010H
  00014	72 1a		 jb	 SHORT $LN9@Tidy

; 1992 : 			{	// copy any leftovers to small buffer and deallocate
; 1993 : 			_Elem *_Ptr = this->_Bx._Ptr;

  00016	53		 push	 ebx
  00017	8b 1e		 mov	 ebx, DWORD PTR [esi]

; 1994 : 			if (0 < _Newsize)

  00019	85 ff		 test	 edi, edi
  0001b	74 0b		 je	 SHORT $LN7@Tidy

; 1995 : 				_Traits::copy(this->_Bx._Buf, _Ptr, _Newsize);

  0001d	57		 push	 edi
  0001e	53		 push	 ebx
  0001f	56		 push	 esi
  00020	e8 00 00 00 00	 call	 _memcpy
  00025	83 c4 0c	 add	 esp, 12			; 0000000cH
$LN7@Tidy:

; 1996 : 			this->_Alval.deallocate(_Ptr, this->_Myres + 1);

  00028	53		 push	 ebx
  00029	e8 00 00 00 00	 call	 ??3@YAXPAX@Z		; operator delete
  0002e	59		 pop	 ecx
  0002f	5b		 pop	 ebx
$LN9@Tidy:

; 1997 : 			}
; 1998 : 		this->_Myres = this->_BUF_SIZE - 1;
; 1999 : 		_Eos(_Newsize);

  00030	89 7e 10	 mov	 DWORD PTR [esi+16], edi
  00033	c7 46 14 0f 00
	00 00		 mov	 DWORD PTR [esi+20], 15	; 0000000fH
  0003a	c6 04 37 00	 mov	 BYTE PTR [edi+esi], 0
  0003e	5f		 pop	 edi
  0003f	5e		 pop	 esi

; 2000 : 		}

  00040	5d		 pop	 ebp
  00041	c2 08 00	 ret	 8
?_Tidy@?$basic_string@DU?$char_traits@D@std@@V?$allocator@D@2@@std@@QAEX_NI@Z ENDP ; std::basic_string<char,std::char_traits<char>,std::allocator<char> >::_Tidy
_TEXT	ENDS
PUBLIC	?erase@?$basic_string@DU?$char_traits@D@std@@V?$allocator@D@2@@std@@QAEAAV12@II@Z ; std::basic_string<char,std::char_traits<char>,std::allocator<char> >::erase
; Function compile flags: /Ogsp
;	COMDAT ?erase@?$basic_string@DU?$char_traits@D@std@@V?$allocator@D@2@@std@@QAEAAV12@II@Z
_TEXT	SEGMENT
__Off$ = 8						; size = 4
__Count$ = 12						; size = 4
?erase@?$basic_string@DU?$char_traits@D@std@@V?$allocator@D@2@@std@@QAEAAV12@II@Z PROC ; std::basic_string<char,std::char_traits<char>,std::allocator<char> >::erase, COMDAT
; _this$ = ecx

; 1109 : 		{	// erase elements [_Off, _Off + _Count)

  00000	55		 push	 ebp
  00001	8b ec		 mov	 ebp, esp
  00003	53		 push	 ebx
  00004	56		 push	 esi
  00005	8b f1		 mov	 esi, ecx

; 1110 : 		if (this->_Mysize < _Off)

  00007	8b 46 10	 mov	 eax, DWORD PTR [esi+16]
  0000a	8b 4d 08	 mov	 ecx, DWORD PTR __Off$[ebp]
  0000d	3b c1		 cmp	 eax, ecx
  0000f	73 0b		 jae	 SHORT $LN3@erase

; 1111 : 			_Xran();	// _Off off end

  00011	68 00 00 00 00	 push	 OFFSET ??_C@_0BI@CFPLBAOH@invalid?5string?5position?$AA@
  00016	ff 15 00 00 00
	00		 call	 DWORD PTR __imp_?_Xout_of_range@std@@YAXPBD@Z
$LN28@erase:
$LN3@erase:

; 1112 : 		if (this->_Mysize - _Off < _Count)

  0001c	8b 5d 0c	 mov	 ebx, DWORD PTR __Count$[ebp]
  0001f	2b c1		 sub	 eax, ecx
  00021	3b c3		 cmp	 eax, ebx

; 1113 : 			_Count = this->_Mysize - _Off;	// trim _Count

  00023	0f 42 d8	 cmovb	 ebx, eax

; 1114 : 		if (0 < _Count)

  00026	85 db		 test	 ebx, ebx
  00028	74 47		 je	 SHORT $LN25@erase

; 1115 : 			{	// move elements down
; 1116 : 			_Traits::move(_Myptr() + _Off, _Myptr() + _Off + _Count,
; 1117 : 				this->_Mysize - _Off - _Count);

  0002a	8b 56 14	 mov	 edx, DWORD PTR [esi+20]
  0002d	57		 push	 edi
  0002e	83 fa 10	 cmp	 edx, 16			; 00000010H
  00031	72 04		 jb	 SHORT $LN11@erase
  00033	8b 3e		 mov	 edi, DWORD PTR [esi]
  00035	eb 02		 jmp	 SHORT $LN12@erase
$LN11@erase:
  00037	8b fe		 mov	 edi, esi
$LN12@erase:
  00039	83 fa 10	 cmp	 edx, 16			; 00000010H
  0003c	72 04		 jb	 SHORT $LN15@erase
  0003e	8b 16		 mov	 edx, DWORD PTR [esi]
  00040	eb 02		 jmp	 SHORT $LN16@erase
$LN15@erase:
  00042	8b d6		 mov	 edx, esi
$LN16@erase:
  00044	2b c3		 sub	 eax, ebx
  00046	03 f9		 add	 edi, ecx
  00048	50		 push	 eax
  00049	03 fb		 add	 edi, ebx
  0004b	03 d1		 add	 edx, ecx
  0004d	57		 push	 edi
  0004e	52		 push	 edx
  0004f	ff 15 00 00 00
	00		 call	 DWORD PTR __imp__memmove

; 1118 : 			size_type _Newsize = this->_Mysize - _Count;

  00055	8b 46 10	 mov	 eax, DWORD PTR [esi+16]
  00058	83 c4 0c	 add	 esp, 12			; 0000000cH
  0005b	2b c3		 sub	 eax, ebx

; 1119 : 			_Eos(_Newsize);

  0005d	83 7e 14 10	 cmp	 DWORD PTR [esi+20], 16	; 00000010H
  00061	89 46 10	 mov	 DWORD PTR [esi+16], eax
  00064	5f		 pop	 edi
  00065	72 04		 jb	 SHORT $LN23@erase
  00067	8b 0e		 mov	 ecx, DWORD PTR [esi]
  00069	eb 02		 jmp	 SHORT $LN24@erase
$LN23@erase:
  0006b	8b ce		 mov	 ecx, esi
$LN24@erase:
  0006d	c6 04 01 00	 mov	 BYTE PTR [ecx+eax], 0
$LN25@erase:

; 1120 : 			}
; 1121 : 		return (*this);

  00071	8b c6		 mov	 eax, esi
  00073	5e		 pop	 esi
  00074	5b		 pop	 ebx

; 1122 : 		}

  00075	5d		 pop	 ebp
  00076	c2 08 00	 ret	 8
$LN27@erase:
?erase@?$basic_string@DU?$char_traits@D@std@@V?$allocator@D@2@@std@@QAEAAV12@II@Z ENDP ; std::basic_string<char,std::char_traits<char>,std::allocator<char> >::erase
_TEXT	ENDS
PUBLIC	?_Copy@?$basic_string@DU?$char_traits@D@std@@V?$allocator@D@2@@std@@QAEXII@Z ; std::basic_string<char,std::char_traits<char>,std::allocator<char> >::_Copy
EXTRN	__EH_prolog3_catch:PROC
;	COMDAT xdata$x
; File c:\program files (x86)\microsoft visual studio 10.0\vc\include\iosfwd
xdata$x	SEGMENT
__catchsym$?_Copy@?$basic_string@DU?$char_traits@D@std@@V?$allocator@D@2@@std@@QAEXII@Z$5 DD 040H
	DD	00H
	DD	00H
	DD	FLAT:__catch$?_Copy@?$basic_string@DU?$char_traits@D@std@@V?$allocator@D@2@@std@@QAEXII@Z$0
__catchsym$?_Copy@?$basic_string@DU?$char_traits@D@std@@V?$allocator@D@2@@std@@QAEXII@Z$4 DD 040H
	DD	00H
	DD	00H
	DD	FLAT:__catch$?_Copy@?$basic_string@DU?$char_traits@D@std@@V?$allocator@D@2@@std@@QAEXII@Z$1
__unwindtable$?_Copy@?$basic_string@DU?$char_traits@D@std@@V?$allocator@D@2@@std@@QAEXII@Z DD 0ffffffffH
	DD	00H
	DD	0ffffffffH
	DD	00H
	DD	01H
	DD	00H
	DD	01H
	DD	00H
__ehfuncinfo$?_Copy@?$basic_string@DU?$char_traits@D@std@@V?$allocator@D@2@@std@@QAEXII@Z DD 019930522H
	DD	04H
	DD	FLAT:__unwindtable$?_Copy@?$basic_string@DU?$char_traits@D@std@@V?$allocator@D@2@@std@@QAEXII@Z
	DD	02H
	DD	FLAT:__tryblocktable$?_Copy@?$basic_string@DU?$char_traits@D@std@@V?$allocator@D@2@@std@@QAEXII@Z
	DD	2 DUP(00H)
	DD	00H
	DD	01H
__tryblocktable$?_Copy@?$basic_string@DU?$char_traits@D@std@@V?$allocator@D@2@@std@@QAEXII@Z DD 02H
	DD	02H
	DD	03H
	DD	01H
	DD	FLAT:__catchsym$?_Copy@?$basic_string@DU?$char_traits@D@std@@V?$allocator@D@2@@std@@QAEXII@Z$4
	DD	00H
	DD	00H
	DD	03H
	DD	01H
	DD	FLAT:__catchsym$?_Copy@?$basic_string@DU?$char_traits@D@std@@V?$allocator@D@2@@std@@QAEXII@Z$5
; Function compile flags: /Ogsp
; File c:\program files (x86)\microsoft visual studio 10.0\vc\include\xstring
xdata$x	ENDS
;	COMDAT ?_Copy@?$basic_string@DU?$char_traits@D@std@@V?$allocator@D@2@@std@@QAEXII@Z
_TEXT	SEGMENT
_this$ = -24						; size = 4
tv296 = -20						; size = 4
__Newres$ = -20						; size = 4
__$EHRec$ = -16						; size = 16
__Ptr$ = 8						; size = 4
__Newsize$ = 8						; size = 4
__Oldlen$ = 12						; size = 4
?_Copy@?$basic_string@DU?$char_traits@D@std@@V?$allocator@D@2@@std@@QAEXII@Z PROC ; std::basic_string<char,std::char_traits<char>,std::allocator<char> >::_Copy, COMDAT
; _this$ = ecx

; 1919 : 		{	// copy _Oldlen elements to newly allocated buffer

  00000	6a 0c		 push	 12			; 0000000cH
  00002	b8 00 00 00 00	 mov	 eax, __ehhandler$?_Copy@?$basic_string@DU?$char_traits@D@std@@V?$allocator@D@2@@std@@QAEXII@Z
  00007	e8 00 00 00 00	 call	 __EH_prolog3_catch
  0000c	8b f1		 mov	 esi, ecx
  0000e	89 75 e8	 mov	 DWORD PTR _this$[ebp], esi

; 1920 : 		size_type _Newres = _Newsize | this->_ALLOC_MASK;

  00011	8b 7d 08	 mov	 edi, DWORD PTR __Newsize$[ebp]
  00014	83 cf 0f	 or	 edi, 15			; 0000000fH

; 1921 : 		if (max_size() < _Newres)

  00017	83 ff fe	 cmp	 edi, -2			; fffffffeH
  0001a	76 05		 jbe	 SHORT $LN9@Copy

; 1922 : 			_Newres = _Newsize;	// undo roundup if too big

  0001c	8b 7d 08	 mov	 edi, DWORD PTR __Newsize$[ebp]
  0001f	eb 27		 jmp	 SHORT $LN5@Copy
$LN9@Copy:

; 1923 : 		else if (this->_Myres / 2 <= _Newres / 3)

  00021	33 d2		 xor	 edx, edx
  00023	6a 03		 push	 3
  00025	8b c7		 mov	 eax, edi
  00027	5b		 pop	 ebx
  00028	f7 f3		 div	 ebx
  0002a	8b 4e 14	 mov	 ecx, DWORD PTR [esi+20]
  0002d	89 4d ec	 mov	 DWORD PTR tv296[ebp], ecx
  00030	d1 6d ec	 shr	 DWORD PTR tv296[ebp], 1
  00033	8b 55 ec	 mov	 edx, DWORD PTR tv296[ebp]
  00036	3b d0		 cmp	 edx, eax
  00038	76 0e		 jbe	 SHORT $LN5@Copy

; 1924 : 			;
; 1925 : 		else if (this->_Myres <= max_size() - this->_Myres / 2)

  0003a	6a fe		 push	 -2			; fffffffeH
  0003c	5f		 pop	 edi
  0003d	8b c7		 mov	 eax, edi
  0003f	2b c2		 sub	 eax, edx
  00041	3b c8		 cmp	 ecx, eax
  00043	77 03		 ja	 SHORT $LN5@Copy

; 1926 : 			_Newres = this->_Myres
; 1927 : 				+ this->_Myres / 2;	// grow exponentially if possible

  00045	8d 3c 0a	 lea	 edi, DWORD PTR [edx+ecx]
$LN5@Copy:

; 1928 : 		else
; 1929 : 			_Newres = max_size();	// settle for max_size()
; 1930 : 
; 1931 : 		_Elem *_Ptr;
; 1932 : 		_TRY_BEGIN

  00048	83 65 fc 00	 and	 DWORD PTR __$EHRec$[ebp+12], 0

; 1933 : 			_Ptr = this->_Alval.allocate(_Newres + 1);

  0004c	8d 47 01	 lea	 eax, DWORD PTR [edi+1]
  0004f	6a 00		 push	 0
  00051	50		 push	 eax
  00052	e8 00 00 00 00	 call	 ??$_Allocate@D@std@@YAPADIPAD@Z ; std::_Allocate<char>
  00057	59		 pop	 ecx
  00058	59		 pop	 ecx
  00059	89 45 08	 mov	 DWORD PTR __Ptr$[ebp], eax
  0005c	eb 27		 jmp	 SHORT $LN19@Copy
__catch$?_Copy@?$basic_string@DU?$char_traits@D@std@@V?$allocator@D@2@@std@@QAEXII@Z$0:

; 1934 : 		_CATCH_ALL
; 1935 : 			_Newres = _Newsize;	// allocation failed, undo roundup and retry

  0005e	8b 45 08	 mov	 eax, DWORD PTR __Newsize$[ebp]
  00061	89 65 f0	 mov	 DWORD PTR __$EHRec$[ebp], esp
  00064	89 45 ec	 mov	 DWORD PTR __Newres$[ebp], eax

; 1936 : 			_TRY_BEGIN
; 1937 : 				_Ptr = this->_Alval.allocate(_Newres + 1);

  00067	40		 inc	 eax
  00068	6a 00		 push	 0
  0006a	50		 push	 eax
  0006b	c6 45 fc 02	 mov	 BYTE PTR __$EHRec$[ebp+12], 2
  0006f	e8 00 00 00 00	 call	 ??$_Allocate@D@std@@YAPADIPAD@Z ; std::_Allocate<char>
  00074	59		 pop	 ecx
  00075	89 45 08	 mov	 DWORD PTR __Ptr$[ebp], eax
  00078	59		 pop	 ecx

; 1941 : 			_CATCH_END
; 1942 : 		_CATCH_END

  00079	b8 00 00 00 00	 mov	 eax, $LN63@Copy
  0007e	c3		 ret	 0
$LN63@Copy:
  0007f	8b 75 e8	 mov	 esi, DWORD PTR _this$[ebp]
  00082	8b 7d ec	 mov	 edi, DWORD PTR __Newres$[ebp]
$LN19@Copy:

; 1943 : 
; 1944 : 		if (0 < _Oldlen)

  00085	8b 5d 0c	 mov	 ebx, DWORD PTR __Oldlen$[ebp]
  00088	85 db		 test	 ebx, ebx
  0008a	74 19		 je	 SHORT $LN52@Copy

; 1945 : 			_Traits::copy(_Ptr, _Myptr(), _Oldlen);	// copy existing elements

  0008c	83 7e 14 10	 cmp	 DWORD PTR [esi+20], 16	; 00000010H
  00090	72 04		 jb	 SHORT $LN50@Copy
  00092	8b 06		 mov	 eax, DWORD PTR [esi]
  00094	eb 02		 jmp	 SHORT $LN51@Copy
$LN50@Copy:
  00096	8b c6		 mov	 eax, esi
$LN51@Copy:
  00098	53		 push	 ebx
  00099	50		 push	 eax
  0009a	ff 75 08	 push	 DWORD PTR __Ptr$[ebp]
  0009d	e8 00 00 00 00	 call	 _memcpy
  000a2	83 c4 0c	 add	 esp, 12			; 0000000cH
$LN52@Copy:

; 1946 : 		_Tidy(true);

  000a5	6a 00		 push	 0
  000a7	6a 01		 push	 1
  000a9	8b ce		 mov	 ecx, esi
  000ab	e8 00 00 00 00	 call	 ?_Tidy@?$basic_string@DU?$char_traits@D@std@@V?$allocator@D@2@@std@@QAEX_NI@Z ; std::basic_string<char,std::char_traits<char>,std::allocator<char> >::_Tidy

; 1947 : 		this->_Bx._Ptr = _Ptr;

  000b0	8b 45 08	 mov	 eax, DWORD PTR __Ptr$[ebp]
  000b3	89 06		 mov	 DWORD PTR [esi], eax

; 1948 : 		this->_Myres = _Newres;
; 1949 : 		_Eos(_Oldlen);

  000b5	83 ff 10	 cmp	 edi, 16			; 00000010H
  000b8	89 7e 14	 mov	 DWORD PTR [esi+20], edi
  000bb	89 5e 10	 mov	 DWORD PTR [esi+16], ebx
  000be	0f 42 c6	 cmovb	 eax, esi
  000c1	c6 04 18 00	 mov	 BYTE PTR [eax+ebx], 0

; 1950 : 		}

  000c5	e8 00 00 00 00	 call	 __EH_epilog3
  000ca	c2 08 00	 ret	 8
__catch$?_Copy@?$basic_string@DU?$char_traits@D@std@@V?$allocator@D@2@@std@@QAEXII@Z$1:

; 1938 : 			_CATCH_ALL
; 1939 : 			_Tidy(true);	// failed again, discard storage and reraise

  000cd	8b 4d e8	 mov	 ecx, DWORD PTR _this$[ebp]
  000d0	33 f6		 xor	 esi, esi
  000d2	56		 push	 esi
  000d3	6a 01		 push	 1
  000d5	e8 00 00 00 00	 call	 ?_Tidy@?$basic_string@DU?$char_traits@D@std@@V?$allocator@D@2@@std@@QAEX_NI@Z ; std::basic_string<char,std::char_traits<char>,std::allocator<char> >::_Tidy

; 1940 : 			_RERAISE;

  000da	56		 push	 esi
  000db	56		 push	 esi
  000dc	e8 00 00 00 00	 call	 __CxxThrowException@8
$LN67@Copy:
$LN66@Copy:
  000e1	cc		 int	 3
_TEXT	ENDS
;	COMDAT text$x
text$x	SEGMENT
__ehhandler$?_Copy@?$basic_string@DU?$char_traits@D@std@@V?$allocator@D@2@@std@@QAEXII@Z:
  00000	8b 54 24 08	 mov	 edx, DWORD PTR [esp+8]
  00004	8d 42 0c	 lea	 eax, DWORD PTR [edx+12]
  00007	8b 4a e4	 mov	 ecx, DWORD PTR [edx-28]
  0000a	33 c8		 xor	 ecx, eax
  0000c	e8 00 00 00 00	 call	 @__security_check_cookie@4
  00011	b8 00 00 00 00	 mov	 eax, OFFSET __ehfuncinfo$?_Copy@?$basic_string@DU?$char_traits@D@std@@V?$allocator@D@2@@std@@QAEXII@Z
  00016	e9 00 00 00 00	 jmp	 ___CxxFrameHandler3
text$x	ENDS
?_Copy@?$basic_string@DU?$char_traits@D@std@@V?$allocator@D@2@@std@@QAEXII@Z ENDP ; std::basic_string<char,std::char_traits<char>,std::allocator<char> >::_Copy
PUBLIC	_this$GSCopy$
PUBLIC	?LoadAccessoryInfo@ioAccessoryInfoManager@@QAEXXZ ; ioAccessoryInfoManager::LoadAccessoryInfo
EXTRN	__EH_epilog3_GS:PROC
EXTRN	__EH_prolog3_GS:PROC
;	COMDAT xdata$x
; File d:\lost saga for developer\youtube\tutorial\source\src\lsclient\ioaccessoryinfomanager.cpp
xdata$x	SEGMENT
__unwindtable$?LoadAccessoryInfo@ioAccessoryInfoManager@@QAEXXZ DD 0ffffffffH
	DD	FLAT:__unwindfunclet$?LoadAccessoryInfo@ioAccessoryInfoManager@@QAEXXZ$0
__ehfuncinfo$?LoadAccessoryInfo@ioAccessoryInfoManager@@QAEXXZ DD 019930522H
	DD	01H
	DD	FLAT:__unwindtable$?LoadAccessoryInfo@ioAccessoryInfoManager@@QAEXXZ
	DD	2 DUP(00H)
	DD	2 DUP(00H)
	DD	00H
	DD	01H
; Function compile flags: /Ogsp
xdata$x	ENDS
;	COMDAT ?LoadAccessoryInfo@ioAccessoryInfoManager@@QAEXXZ
_TEXT	SEGMENT
_this$GSCopy$ = -956					; size = 4
_kLoader$ = -952					; size = 912
__k$539873 = -40					; size = 19
__k$539914 = -36					; size = 15
__t$539677 = -36					; size = 12
__$EHRec$ = -12						; size = 12
?LoadAccessoryInfo@ioAccessoryInfoManager@@QAEXXZ PROC	; ioAccessoryInfoManager::LoadAccessoryInfo, COMDAT
; _this$ = ecx

; 32   : {

  00000	68 b0 03 00 00	 push	 944			; 000003b0H
  00005	b8 00 00 00 00	 mov	 eax, __ehhandler$?LoadAccessoryInfo@ioAccessoryInfoManager@@QAEXXZ
  0000a	e8 00 00 00 00	 call	 __EH_prolog3_GS

; 33   : 	ioINILoader_e kLoader( "config/sp2_accessory.ini" );

  0000f	33 db		 xor	 ebx, ebx
  00011	6a 06		 push	 6
  00013	89 8d 44 fc ff
	ff		 mov	 DWORD PTR _this$GSCopy$[ebp], ecx
  00019	c7 45 98 8e 83
	85 8c		 mov	 DWORD PTR _kLoader$[ebp+848], -1937407090 ; 8c85838eH
  00020	c7 45 9c 84 8b
	c4 99		 mov	 DWORD PTR _kLoader$[ebp+852], -1715172476 ; 99c48b84H
  00027	c7 45 a0 9d de
	b4 8b		 mov	 DWORD PTR _kLoader$[ebp+856], -1951080803 ; 8bb4de9dH
  0002e	c7 45 a4 8e 8f
	8e 99		 mov	 DWORD PTR _kLoader$[ebp+860], -1718710386 ; 998e8f8eH
  00035	c7 45 a8 9e 83
	99 93		 mov	 DWORD PTR _kLoader$[ebp+864], -1818655842 ; 9399839eH
  0003c	c7 45 ac c3 85
	85 83		 mov	 DWORD PTR _kLoader$[ebp+868], -2088401469 ; 838585c3H
  00043	8d 45 98	 lea	 eax, DWORD PTR _kLoader$[ebp+848]
  00046	88 5d b0	 mov	 BYTE PTR _kLoader$[ebp+872], bl
  00049	59		 pop	 ecx
  0004a	bf ed ec eb ea	 mov	 edi, -353637139		; eaebecedH
$LL110@LoadAccess:
  0004f	31 38		 xor	 DWORD PTR [eax], edi
  00051	83 c0 04	 add	 eax, 4
  00054	49		 dec	 ecx
  00055	75 f8		 jne	 SHORT $LL110@LoadAccess
  00057	6a 01		 push	 1
  00059	8d 45 98	 lea	 eax, DWORD PTR _kLoader$[ebp+848]
  0005c	50		 push	 eax
  0005d	8d 8d 48 fc ff
	ff		 lea	 ecx, DWORD PTR _kLoader$[ebp]
  00063	ff 15 00 00 00
	00		 call	 DWORD PTR __imp_??0ioINILoader@@QAE@PBD_N@Z
  00069	6a 02		 push	 2
  0006b	89 5d fc	 mov	 DWORD PTR __$EHRec$[ebp+8], ebx

; 34   : 	kLoader.SetTitle_e( "common_info" );

  0006e	c7 45 dc 8e 83
	86 87		 mov	 DWORD PTR __t$539677[ebp], -2021227634 ; 8786838eH
  00075	c7 45 e0 82 82
	b4 83		 mov	 DWORD PTR __t$539677[ebp+4], -2085322110 ; 83b48282H
  0007c	8d 45 dc	 lea	 eax, DWORD PTR __t$539677[ebp]
  0007f	c7 45 e4 83 8a
	84 00		 mov	 DWORD PTR __t$539677[ebp+8], 8686211 ; 00848a83H
  00086	59		 pop	 ecx
$LL216@LoadAccess:
  00087	31 38		 xor	 DWORD PTR [eax], edi
  00089	83 c0 04	 add	 eax, 4
  0008c	49		 dec	 ecx
  0008d	75 f8		 jne	 SHORT $LL216@LoadAccess
  0008f	6a 08		 push	 8
  00091	5e		 pop	 esi
$LL213@LoadAccess:
  00092	8b c6		 mov	 eax, esi
  00094	25 03 00 00 80	 and	 eax, -2147483645	; 80000003H
  00099	79 05		 jns	 SHORT $LN451@LoadAccess
  0009b	48		 dec	 eax
  0009c	83 c8 fc	 or	 eax, -4			; fffffffcH
  0009f	40		 inc	 eax
$LN451@LoadAccess:
  000a0	b1 ed		 mov	 cl, -19			; ffffffedH
  000a2	2a c8		 sub	 cl, al
  000a4	30 4c 35 dc	 xor	 BYTE PTR __t$539677[ebp+esi], cl
  000a8	46		 inc	 esi
  000a9	83 fe 0b	 cmp	 esi, 11			; 0000000bH
  000ac	7c e4		 jl	 SHORT $LL213@LoadAccess
  000ae	8d 45 dc	 lea	 eax, DWORD PTR __t$539677[ebp]
  000b1	50		 push	 eax
  000b2	8d 8d 48 fc ff
	ff		 lea	 ecx, DWORD PTR _kLoader$[ebp]
  000b8	ff 15 00 00 00
	00		 call	 DWORD PTR __imp_?SetTitle@ioINILoader@@QAEXPBD@Z
  000be	6a 04		 push	 4

; 35   : 
; 36   : 	m_fMortmainItemSellPrice = kLoader.LoadFloat_e( "mortmain_item_sell", 0.0f );

  000c0	c7 45 d8 80 83
	99 9e		 mov	 DWORD PTR __k$539873[ebp], -1634106496 ; 9e998380H
  000c7	c7 45 dc 80 8d
	82 84		 mov	 DWORD PTR __k$539873[ebp+4], -2071818880 ; 84828d80H
  000ce	c7 45 e0 b2 85
	9f 8f		 mov	 DWORD PTR __k$539873[ebp+8], -1885370958 ; 8f9f85b2H
  000d5	c7 45 e4 80 b3
	98 8f		 mov	 DWORD PTR __k$539873[ebp+12], -1885817984 ; 8f98b380H
  000dc	66 c7 45 e8 81
	80		 mov	 WORD PTR __k$539873[ebp+16], 32897 ; 00008081H
  000e2	8d 45 d8	 lea	 eax, DWORD PTR __k$539873[ebp]
  000e5	88 5d ea	 mov	 BYTE PTR __k$539873[ebp+18], bl
  000e8	59		 pop	 ecx
$LL322@LoadAccess:
  000e9	31 38		 xor	 DWORD PTR [eax], edi
  000eb	83 c0 04	 add	 eax, 4
  000ee	49		 dec	 ecx
  000ef	75 f8		 jne	 SHORT $LL322@LoadAccess
  000f1	6a 10		 push	 16			; 00000010H
  000f3	5e		 pop	 esi
$LL319@LoadAccess:
  000f4	8b c6		 mov	 eax, esi
  000f6	25 03 00 00 80	 and	 eax, -2147483645	; 80000003H
  000fb	79 05		 jns	 SHORT $LN452@LoadAccess
  000fd	48		 dec	 eax
  000fe	83 c8 fc	 or	 eax, -4			; fffffffcH
  00101	40		 inc	 eax
$LN452@LoadAccess:
  00102	b1 ed		 mov	 cl, -19			; ffffffedH
  00104	2a c8		 sub	 cl, al
  00106	30 4c 35 d8	 xor	 BYTE PTR __k$539873[ebp+esi], cl
  0010a	46		 inc	 esi
  0010b	83 fe 12	 cmp	 esi, 18			; 00000012H
  0010e	7c e4		 jl	 SHORT $LL319@LoadAccess
  00110	0f 57 c0	 xorps	 xmm0, xmm0
  00113	51		 push	 ecx
  00114	8d 45 d8	 lea	 eax, DWORD PTR __k$539873[ebp]
  00117	f3 0f 11 04 24	 movss	 DWORD PTR [esp], xmm0
  0011c	50		 push	 eax
  0011d	8d 8d 48 fc ff
	ff		 lea	 ecx, DWORD PTR _kLoader$[ebp]
  00123	ff 15 00 00 00
	00		 call	 DWORD PTR __imp_?LoadFloat@ioINILoader@@QAEMPBDM@Z
  00129	8b b5 44 fc ff
	ff		 mov	 esi, DWORD PTR _this$GSCopy$[ebp]
  0012f	6a 03		 push	 3
  00131	d9 5e 04	 fstp	 DWORD PTR [esi+4]

; 37   : 	m_fTimeItemSellPrice = kLoader.LoadFloat_e( "time_item_sell", 0.0f );

  00134	c7 45 dc 99 85
	86 8f		 mov	 DWORD PTR __k$539914[ebp], -1887009383 ; 8f868599H
  0013b	c7 45 e0 b2 85
	9f 8f		 mov	 DWORD PTR __k$539914[ebp+4], -1885370958 ; 8f9f85b2H
  00142	c7 45 e4 80 b3
	98 8f		 mov	 DWORD PTR __k$539914[ebp+8], -1885817984 ; 8f98b380H
  00149	66 c7 45 e8 81
	80		 mov	 WORD PTR __k$539914[ebp+12], 32897 ; 00008081H
  0014f	8d 45 dc	 lea	 eax, DWORD PTR __k$539914[ebp]
  00152	88 5d ea	 mov	 BYTE PTR __k$539914[ebp+14], bl
  00155	59		 pop	 ecx
$LL428@LoadAccess:
  00156	31 38		 xor	 DWORD PTR [eax], edi
  00158	83 c0 04	 add	 eax, 4
  0015b	49		 dec	 ecx
  0015c	75 f8		 jne	 SHORT $LL428@LoadAccess
  0015e	6a 0c		 push	 12			; 0000000cH
  00160	58		 pop	 eax
$LL425@LoadAccess:
  00161	8b c8		 mov	 ecx, eax
  00163	81 e1 03 00 00
	80		 and	 ecx, -2147483645	; 80000003H
  00169	79 05		 jns	 SHORT $LN453@LoadAccess
  0016b	49		 dec	 ecx
  0016c	83 c9 fc	 or	 ecx, -4			; fffffffcH
  0016f	41		 inc	 ecx
$LN453@LoadAccess:
  00170	b2 ed		 mov	 dl, -19			; ffffffedH
  00172	2a d1		 sub	 dl, cl
  00174	30 54 05 dc	 xor	 BYTE PTR __k$539914[ebp+eax], dl
  00178	40		 inc	 eax
  00179	83 f8 0e	 cmp	 eax, 14			; 0000000eH
  0017c	7c e3		 jl	 SHORT $LL425@LoadAccess
  0017e	0f 57 c0	 xorps	 xmm0, xmm0
  00181	51		 push	 ecx
  00182	8d 45 dc	 lea	 eax, DWORD PTR __k$539914[ebp]
  00185	f3 0f 11 04 24	 movss	 DWORD PTR [esp], xmm0
  0018a	50		 push	 eax
  0018b	8d 8d 48 fc ff
	ff		 lea	 ecx, DWORD PTR _kLoader$[ebp]
  00191	ff 15 00 00 00
	00		 call	 DWORD PTR __imp_?LoadFloat@ioINILoader@@QAEMPBDM@Z
  00197	d9 5e 08	 fstp	 DWORD PTR [esi+8]

; 38   : }

  0019a	83 4d fc ff	 or	 DWORD PTR __$EHRec$[ebp+8], -1
  0019e	8d 8d 48 fc ff
	ff		 lea	 ecx, DWORD PTR _kLoader$[ebp]
  001a4	ff 15 00 00 00
	00		 call	 DWORD PTR __imp_??1ioINILoader@@QAE@XZ
  001aa	e8 00 00 00 00	 call	 __EH_epilog3_GS
  001af	c3		 ret	 0
_TEXT	ENDS
;	COMDAT text$x
text$x	SEGMENT
__unwindfunclet$?LoadAccessoryInfo@ioAccessoryInfoManager@@QAEXXZ$0:
  00000	8d 8d 48 fc ff
	ff		 lea	 ecx, DWORD PTR _kLoader$[ebp]
  00006	e9 00 00 00 00	 jmp	 ??1ioINILoader_e@@QAE@XZ
__ehhandler$?LoadAccessoryInfo@ioAccessoryInfoManager@@QAEXXZ:
  0000b	8b 54 24 08	 mov	 edx, DWORD PTR [esp+8]
  0000f	8d 42 0c	 lea	 eax, DWORD PTR [edx+12]
  00012	8b 8a 40 fc ff
	ff		 mov	 ecx, DWORD PTR [edx-960]
  00018	33 c8		 xor	 ecx, eax
  0001a	e8 00 00 00 00	 call	 @__security_check_cookie@4
  0001f	8b 4a fc	 mov	 ecx, DWORD PTR [edx-4]
  00022	33 c8		 xor	 ecx, eax
  00024	e8 00 00 00 00	 call	 @__security_check_cookie@4
  00029	b8 00 00 00 00	 mov	 eax, OFFSET __ehfuncinfo$?LoadAccessoryInfo@ioAccessoryInfoManager@@QAEXXZ
  0002e	e9 00 00 00 00	 jmp	 ___CxxFrameHandler3
text$x	ENDS
?LoadAccessoryInfo@ioAccessoryInfoManager@@QAEXXZ ENDP	; ioAccessoryInfoManager::LoadAccessoryInfo
PUBLIC	??_R0?AVNewShopBoughtWnd@@@8			; NewShopBoughtWnd `RTTI Type Descriptor'
PUBLIC	??_R0?AVNewShopWnd@@@8				; NewShopWnd `RTTI Type Descriptor'
PUBLIC	??_C@_0CN@MLOMGIMG@ioAccessoryInfoManager?3?3OnAccess@ ; `string'
PUBLIC	?OnAccessoryBuyResult@ioAccessoryInfoManager@@QAEXAAVSP2Packet@@@Z ; ioAccessoryInfoManager::OnAccessoryBuyResult
EXTRN	?SetResultInfo@NewShopBoughtWnd@@QAEXFHH_NH@Z:PROC ; NewShopBoughtWnd::SetResultInfo
EXTRN	__imp_?FindChildWnd@ioWnd@@QAEPAV1@K@Z:PROC
EXTRN	?SetChannelingCash@ioMyInfo@@QAEXH@Z:PROC	; ioMyInfo::SetChannelingCash
EXTRN	?SetCash@ioMyInfo@@QAEXH@Z:PROC			; ioMyInfo::SetCash
EXTRN	?SetMoney@ioMyInfo@@QAEX_J@Z:PROC		; ioMyInfo::SetMoney
EXTRN	??5SP2Packet@@QAEAAV0@AA_J@Z:PROC		; SP2Packet::operator>>
;	COMDAT ??_R0?AVNewShopBoughtWnd@@@8
_DATA	SEGMENT
??_R0?AVNewShopBoughtWnd@@@8 DD FLAT:??_7type_info@@6B@	; NewShopBoughtWnd `RTTI Type Descriptor'
	DD	00H
	DB	'.?AVNewShopBoughtWnd@@', 00H
_DATA	ENDS
;	COMDAT ??_R0?AVNewShopWnd@@@8
_DATA	SEGMENT
??_R0?AVNewShopWnd@@@8 DD FLAT:??_7type_info@@6B@	; NewShopWnd `RTTI Type Descriptor'
	DD	00H
	DB	'.?AVNewShopWnd@@', 00H
_DATA	ENDS
;	COMDAT ??_C@_0CN@MLOMGIMG@ioAccessoryInfoManager?3?3OnAccess@
CONST	SEGMENT
??_C@_0CN@MLOMGIMG@ioAccessoryInfoManager?3?3OnAccess@ DB 'ioAccessoryInf'
	DB	'oManager::OnAccessoryBuyResult', 00H	; `string'
; Function compile flags: /Ogsp
CONST	ENDS
;	COMDAT ?OnAccessoryBuyResult@ioAccessoryInfoManager@@QAEXAAVSP2Packet@@@Z
_TEXT	SEGMENT
_iPeso$ = -28						; size = 8
_iMachineCode$536007 = -20				; size = 4
_iResult$ = -16						; size = 4
_iAccessoryCode$536006 = -12				; size = 4
_nChannelingCash$ = -8					; size = 4
_iCash$ = -4						; size = 4
_iPeriodTime$536008 = 8					; size = 4
_rkPacket$ = 8						; size = 4
?OnAccessoryBuyResult@ioAccessoryInfoManager@@QAEXAAVSP2Packet@@@Z PROC ; ioAccessoryInfoManager::OnAccessoryBuyResult, COMDAT
; _this$ = ecx

; 41   : {

  00000	55		 push	 ebp
  00001	8b ec		 mov	 ebp, esp
  00003	83 ec 1c	 sub	 esp, 28			; 0000001cH
  00006	53		 push	 ebx
  00007	56		 push	 esi
  00008	57		 push	 edi

; 42   : 	TCPNetwork::MouseBusy( false );

  00009	33 f6		 xor	 esi, esi
  0000b	56		 push	 esi
  0000c	8b d9		 mov	 ebx, ecx
  0000e	e8 00 00 00 00	 call	 ?MouseBusy@TCPNetwork@@YAX_N@Z ; TCPNetwork::MouseBusy

; 43   : 
; 44   : 	int iResult;
; 45   : 
; 46   : 	__int64 iPeso;
; 47   : 	int iCash = 0;
; 48   : 	int nChannelingCash = 0;
; 49   : 
; 50   : 	rkPacket >> iResult;

  00013	8b 7d 08	 mov	 edi, DWORD PTR _rkPacket$[ebp]
  00016	59		 pop	 ecx
  00017	8d 45 f0	 lea	 eax, DWORD PTR _iResult$[ebp]
  0001a	50		 push	 eax
  0001b	8b cf		 mov	 ecx, edi
  0001d	89 75 fc	 mov	 DWORD PTR _iCash$[ebp], esi
  00020	89 75 f8	 mov	 DWORD PTR _nChannelingCash$[ebp], esi
  00023	e8 00 00 00 00	 call	 ??5SP2Packet@@QAEAAV0@AAH@Z ; SP2Packet::operator>>

; 51   : 
; 52   : 	switch( iResult )

  00028	8b 45 f0	 mov	 eax, DWORD PTR _iResult$[ebp]
  0002b	48		 dec	 eax
  0002c	0f 84 8c 00 00
	00		 je	 $LN6@OnAccessor@3
  00032	48		 dec	 eax
  00033	48		 dec	 eax
  00034	74 0a		 je	 SHORT $LN3@OnAccessor@3
  00036	83 e8 04	 sub	 eax, 4
  00039	75 31		 jne	 SHORT $LN7@OnAccessor@3

; 82   : 		}
; 83   : 		break;
; 84   : 	case ITEM_BUY_PESO_SHORTAGE:
; 85   : 		{
; 86   : 			g_GUIMgr.SetMsgBox( MB_OK, NULL, STR(2) );

  0003b	56		 push	 esi
  0003c	6a 02		 push	 2

; 87   : 		}
; 88   : 		break;

  0003e	eb 03		 jmp	 SHORT $LN11@OnAccessor@3
$LN3@OnAccessor@3:

; 77   : 		}
; 78   : 		return;
; 79   : 	case ITEM_BUY_NON_EXIST_GOODS:
; 80   : 		{
; 81   : 			g_GUIMgr.SetMsgBox( MB_OK, NULL, STR(1) );

  00040	56		 push	 esi
  00041	6a 01		 push	 1
$LN11@OnAccessor@3:
  00043	68 00 00 00 00	 push	 OFFSET ??_C@_00CNPNBAHC@?$AA@
  00048	68 00 00 00 00	 push	 OFFSET ??_C@_0CN@MLOMGIMG@ioAccessoryInfoManager?3?3OnAccess@
  0004d	ff 15 00 00 00
	00		 call	 DWORD PTR __imp_?GetSingleton@ioStringManager@@SAAAV1@XZ
  00053	8b c8		 mov	 ecx, eax
  00055	ff 15 00 00 00
	00		 call	 DWORD PTR __imp_?GetString@ioStringManager@@QAEPADPBD0HW4FileNamePrefix@1@@Z
  0005b	50		 push	 eax
  0005c	56		 push	 esi
  0005d	56		 push	 esi
  0005e	e8 00 00 00 00	 call	 ?GetSingleton@ioSP2GUIManager@@SAAAV1@XZ ; ioSP2GUIManager::GetSingleton
  00063	50		 push	 eax
  00064	e8 00 00 00 00	 call	 ?SetMsgBox@ioSP2GUIManager@@QAAXHPAVioWnd@@PBDZZ ; ioSP2GUIManager::SetMsgBox
  00069	83 c4 10	 add	 esp, 16			; 00000010H
$LN7@OnAccessor@3:

; 89   : 	}
; 90   : 
; 91   : 	MyInventoryWnd *pInvenWnd = dynamic_cast<MyInventoryWnd*>( g_GUIMgr.FindWnd( MY_INVENTORY_WND ) );

  0006c	56		 push	 esi
  0006d	68 00 00 00 00	 push	 OFFSET ??_R0?AVMyInventoryWnd@@@8
  00072	68 00 00 00 00	 push	 OFFSET ??_R0?AVioWnd@@@8
  00077	56		 push	 esi
  00078	68 96 17 00 00	 push	 6038			; 00001796H
  0007d	e8 00 00 00 00	 call	 ?GetSingleton@ioSP2GUIManager@@SAAAV1@XZ ; ioSP2GUIManager::GetSingleton
  00082	8b c8		 mov	 ecx, eax
  00084	ff 15 00 00 00
	00		 call	 DWORD PTR __imp_?FindWnd@ioGUIManager@@QAEPAVioWnd@@K@Z
  0008a	50		 push	 eax
  0008b	e8 00 00 00 00	 call	 ___RTDynamicCast
  00090	8b f8		 mov	 edi, eax
  00092	83 c4 14	 add	 esp, 20			; 00000014H

; 92   : 	if( pInvenWnd && pInvenWnd->IsShow() )

  00095	3b fe		 cmp	 edi, esi
  00097	0f 84 0a 01 00
	00		 je	 $LN4@OnAccessor@3
  0009d	8b cf		 mov	 ecx, edi
  0009f	ff 15 00 00 00
	00		 call	 DWORD PTR __imp_?IsShow@ioWnd@@QBE_NXZ
  000a5	84 c0		 test	 al, al
  000a7	0f 84 fa 00 00
	00		 je	 $LN4@OnAccessor@3

; 93   : 		pInvenWnd->UpdateTab( false, true );

  000ad	6a 01		 push	 1
  000af	6a 01		 push	 1
  000b1	56		 push	 esi
  000b2	8b cf		 mov	 ecx, edi
  000b4	e8 00 00 00 00	 call	 ?UpdateTab@MyInventoryWnd@@QAEX_N00@Z ; MyInventoryWnd::UpdateTab
  000b9	e9 e9 00 00 00	 jmp	 $LN4@OnAccessor@3
$LN6@OnAccessor@3:

; 53   : 	{
; 54   : 	case ITEM_BUY_OK:
; 55   : 		{
; 56   : 			int iAccessoryCode = 0;
; 57   : 			int iMachineCode = 0;
; 58   : 			int iPeriodTime = 0;
; 59   : 
; 60   : 			OnAccessoryAdd( rkPacket, iAccessoryCode );

  000be	8d 45 f4	 lea	 eax, DWORD PTR _iAccessoryCode$536006[ebp]
  000c1	50		 push	 eax
  000c2	57		 push	 edi
  000c3	8b cb		 mov	 ecx, ebx
  000c5	89 75 f4	 mov	 DWORD PTR _iAccessoryCode$536006[ebp], esi
  000c8	89 75 ec	 mov	 DWORD PTR _iMachineCode$536007[ebp], esi
  000cb	89 75 08	 mov	 DWORD PTR _iPeriodTime$536008[ebp], esi
  000ce	e8 00 00 00 00	 call	 ?OnAccessoryAdd@ioAccessoryInfoManager@@QAEXAAVSP2Packet@@AAH@Z ; ioAccessoryInfoManager::OnAccessoryAdd

; 61   : 
; 62   : 			rkPacket >> iMachineCode;

  000d3	8d 45 ec	 lea	 eax, DWORD PTR _iMachineCode$536007[ebp]
  000d6	50		 push	 eax
  000d7	8b cf		 mov	 ecx, edi
  000d9	e8 00 00 00 00	 call	 ??5SP2Packet@@QAEAAV0@AAH@Z ; SP2Packet::operator>>

; 63   : 			rkPacket >> iPeriodTime >> iPeso >> iCash >> nChannelingCash;

  000de	8d 45 f8	 lea	 eax, DWORD PTR _nChannelingCash$[ebp]
  000e1	50		 push	 eax
  000e2	8d 45 fc	 lea	 eax, DWORD PTR _iCash$[ebp]
  000e5	50		 push	 eax
  000e6	8d 45 e4	 lea	 eax, DWORD PTR _iPeso$[ebp]
  000e9	50		 push	 eax
  000ea	8d 45 08	 lea	 eax, DWORD PTR _iPeriodTime$536008[ebp]
  000ed	50		 push	 eax
  000ee	8b cf		 mov	 ecx, edi
  000f0	e8 00 00 00 00	 call	 ??5SP2Packet@@QAEAAV0@AAH@Z ; SP2Packet::operator>>
  000f5	8b c8		 mov	 ecx, eax
  000f7	e8 00 00 00 00	 call	 ??5SP2Packet@@QAEAAV0@AA_J@Z ; SP2Packet::operator>>
  000fc	8b c8		 mov	 ecx, eax
  000fe	e8 00 00 00 00	 call	 ??5SP2Packet@@QAEAAV0@AAH@Z ; SP2Packet::operator>>
  00103	8b c8		 mov	 ecx, eax
  00105	e8 00 00 00 00	 call	 ??5SP2Packet@@QAEAAV0@AAH@Z ; SP2Packet::operator>>

; 64   : 
; 65   : 			g_MyInfo.SetMoney( iPeso );

  0010a	ff 75 e8	 push	 DWORD PTR _iPeso$[ebp+4]
  0010d	ff 75 e4	 push	 DWORD PTR _iPeso$[ebp]
  00110	e8 00 00 00 00	 call	 ?GetSingleton@ioMyInfo@@SAAAV1@XZ ; ioMyInfo::GetSingleton
  00115	8b c8		 mov	 ecx, eax
  00117	e8 00 00 00 00	 call	 ?SetMoney@ioMyInfo@@QAEX_J@Z ; ioMyInfo::SetMoney

; 66   : 			g_MyInfo.SetCash( iCash );

  0011c	ff 75 fc	 push	 DWORD PTR _iCash$[ebp]
  0011f	e8 00 00 00 00	 call	 ?GetSingleton@ioMyInfo@@SAAAV1@XZ ; ioMyInfo::GetSingleton
  00124	8b c8		 mov	 ecx, eax
  00126	e8 00 00 00 00	 call	 ?SetCash@ioMyInfo@@QAEXH@Z ; ioMyInfo::SetCash

; 67   : 			g_MyInfo.SetChannelingCash( nChannelingCash );

  0012b	ff 75 f8	 push	 DWORD PTR _nChannelingCash$[ebp]
  0012e	e8 00 00 00 00	 call	 ?GetSingleton@ioMyInfo@@SAAAV1@XZ ; ioMyInfo::GetSingleton
  00133	8b c8		 mov	 ecx, eax
  00135	e8 00 00 00 00	 call	 ?SetChannelingCash@ioMyInfo@@QAEXH@Z ; ioMyInfo::SetChannelingCash

; 68   : 
; 69   : 			// UI 	
; 70   : 			NewShopBoughtWnd *pNewShopBoughtWnd = NULL;
; 71   : 			NewShopWnd *pNewShopWnd = dynamic_cast<NewShopWnd*>( g_GUIMgr.FindWnd( NEW_SHOP_WND ) );

  0013a	56		 push	 esi
  0013b	68 00 00 00 00	 push	 OFFSET ??_R0?AVNewShopWnd@@@8
  00140	bf 00 00 00 00	 mov	 edi, OFFSET ??_R0?AVioWnd@@@8
  00145	57		 push	 edi
  00146	56		 push	 esi
  00147	68 f8 17 00 00	 push	 6136			; 000017f8H
  0014c	e8 00 00 00 00	 call	 ?GetSingleton@ioSP2GUIManager@@SAAAV1@XZ ; ioSP2GUIManager::GetSingleton
  00151	8b c8		 mov	 ecx, eax
  00153	ff 15 00 00 00
	00		 call	 DWORD PTR __imp_?FindWnd@ioGUIManager@@QAEPAVioWnd@@K@Z
  00159	50		 push	 eax
  0015a	e8 00 00 00 00	 call	 ___RTDynamicCast
  0015f	83 c4 14	 add	 esp, 20			; 00000014H

; 72   : 			if( pNewShopWnd )

  00162	3b c6		 cmp	 eax, esi
  00164	74 41		 je	 SHORT $LN4@OnAccessor@3

; 73   : 				pNewShopBoughtWnd = dynamic_cast<NewShopBoughtWnd*>( pNewShopWnd->FindChildWnd( NewShopWnd::ID_BOUGHT_WND ) );

  00166	56		 push	 esi
  00167	68 00 00 00 00	 push	 OFFSET ??_R0?AVNewShopBoughtWnd@@@8
  0016c	57		 push	 edi
  0016d	56		 push	 esi
  0016e	68 92 01 00 00	 push	 402			; 00000192H
  00173	8b c8		 mov	 ecx, eax
  00175	ff 15 00 00 00
	00		 call	 DWORD PTR __imp_?FindChildWnd@ioWnd@@QAEPAV1@K@Z
  0017b	50		 push	 eax
  0017c	e8 00 00 00 00	 call	 ___RTDynamicCast
  00181	8b f8		 mov	 edi, eax
  00183	83 c4 14	 add	 esp, 20			; 00000014H

; 74   : 			
; 75   : 			if( pNewShopBoughtWnd && pNewShopBoughtWnd->IsShow() )

  00186	3b fe		 cmp	 edi, esi
  00188	74 1d		 je	 SHORT $LN4@OnAccessor@3
  0018a	8b cf		 mov	 ecx, edi
  0018c	ff 15 00 00 00
	00		 call	 DWORD PTR __imp_?IsShow@ioWnd@@QBE_NXZ
  00192	84 c0		 test	 al, al
  00194	74 11		 je	 SHORT $LN4@OnAccessor@3

; 76   : 				pNewShopBoughtWnd->SetResultInfo( PRESENT_ACCESSORY, iAccessoryCode, iPeriodTime, false, EET_DISABLE );

  00196	56		 push	 esi
  00197	56		 push	 esi
  00198	ff 75 08	 push	 DWORD PTR _iPeriodTime$536008[ebp]
  0019b	8b cf		 mov	 ecx, edi
  0019d	ff 75 f4	 push	 DWORD PTR _iAccessoryCode$536006[ebp]
  001a0	6a 0e		 push	 14			; 0000000eH
  001a2	e8 00 00 00 00	 call	 ?SetResultInfo@NewShopBoughtWnd@@QAEXFHH_NH@Z ; NewShopBoughtWnd::SetResultInfo
$LN4@OnAccessor@3:
  001a7	5f		 pop	 edi
  001a8	5e		 pop	 esi
  001a9	5b		 pop	 ebx

; 94   : }

  001aa	c9		 leave
  001ab	c2 04 00	 ret	 4
?OnAccessoryBuyResult@ioAccessoryInfoManager@@QAEXAAVSP2Packet@@@Z ENDP ; ioAccessoryInfoManager::OnAccessoryBuyResult
_TEXT	ENDS
PUBLIC	?OnAccessoryPresentResult@ioAccessoryInfoManager@@QAEXAAVSP2Packet@@@Z ; ioAccessoryInfoManager::OnAccessoryPresentResult
; Function compile flags: /Ogsp
;	COMDAT ?OnAccessoryPresentResult@ioAccessoryInfoManager@@QAEXAAVSP2Packet@@@Z
_TEXT	SEGMENT
_iAccessoryCode$ = 8					; size = 4
_rkPacket$ = 8						; size = 4
?OnAccessoryPresentResult@ioAccessoryInfoManager@@QAEXAAVSP2Packet@@@Z PROC ; ioAccessoryInfoManager::OnAccessoryPresentResult, COMDAT
; _this$ = ecx

; 192  : {

  00000	55		 push	 ebp
  00001	8b ec		 mov	 ebp, esp
  00003	56		 push	 esi

; 193  : 	TCPNetwork::MouseBusy( false );

  00004	6a 00		 push	 0
  00006	8b f1		 mov	 esi, ecx
  00008	e8 00 00 00 00	 call	 ?MouseBusy@TCPNetwork@@YAX_N@Z ; TCPNetwork::MouseBusy
  0000d	59		 pop	 ecx

; 194  : 
; 195  : 	int iAccessoryCode = 0;
; 196  : 	OnAccessoryAdd( rkPacket, iAccessoryCode );

  0000e	8d 45 08	 lea	 eax, DWORD PTR _iAccessoryCode$[ebp]
  00011	50		 push	 eax
  00012	ff 75 08	 push	 DWORD PTR _rkPacket$[ebp]
  00015	8b ce		 mov	 ecx, esi
  00017	e8 00 00 00 00	 call	 ?OnAccessoryAdd@ioAccessoryInfoManager@@QAEXAAVSP2Packet@@AAH@Z ; ioAccessoryInfoManager::OnAccessoryAdd
  0001c	5e		 pop	 esi

; 197  : }

  0001d	5d		 pop	 ebp
  0001e	c2 04 00	 ret	 4
?OnAccessoryPresentResult@ioAccessoryInfoManager@@QAEXAAVSP2Packet@@@Z ENDP ; ioAccessoryInfoManager::OnAccessoryPresentResult
_TEXT	ENDS
PUBLIC	??$_Dest_val@V?$allocator@VioComplexStringPrinter@@@std@@VioComplexStringPrinter@@@std@@YAXAAV?$allocator@VioComplexStringPrinter@@@0@PAVioComplexStringPrinter@@@Z ; std::_Dest_val<std::allocator<ioComplexStringPrinter>,ioComplexStringPrinter>
; Function compile flags: /Ogsp
; File c:\program files (x86)\microsoft visual studio 10.0\vc\include\xmemory
;	COMDAT ??$_Dest_val@V?$allocator@VioComplexStringPrinter@@@std@@VioComplexStringPrinter@@@std@@YAXAAV?$allocator@VioComplexStringPrinter@@@0@PAVioComplexStringPrinter@@@Z
_TEXT	SEGMENT
__Alval$ = 8						; size = 4
__Pdest$ = 12						; size = 4
??$_Dest_val@V?$allocator@VioComplexStringPrinter@@@std@@VioComplexStringPrinter@@@std@@YAXAAV?$allocator@VioComplexStringPrinter@@@0@PAVioComplexStringPrinter@@@Z PROC ; std::_Dest_val<std::allocator<ioComplexStringPrinter>,ioComplexStringPrinter>, COMDAT

; 286  : 	{	// destroy using allocator

  00000	55		 push	 ebp
  00001	8b ec		 mov	 ebp, esp

; 287  : 	_Alval.destroy(_Pdest);

  00003	8b 4d 0c	 mov	 ecx, DWORD PTR __Pdest$[ebp]

; 288  : 	}

  00006	5d		 pop	 ebp

; 287  : 	_Alval.destroy(_Pdest);

  00007	e9 00 00 00 00	 jmp	 ??1ioComplexStringPrinter@@QAE@XZ ; ioComplexStringPrinter::~ioComplexStringPrinter
??$_Dest_val@V?$allocator@VioComplexStringPrinter@@@std@@VioComplexStringPrinter@@@std@@YAXAAV?$allocator@VioComplexStringPrinter@@@0@PAVioComplexStringPrinter@@@Z ENDP ; std::_Dest_val<std::allocator<ioComplexStringPrinter>,ioComplexStringPrinter>
_TEXT	ENDS
PUBLIC	??1?$basic_string@DU?$char_traits@D@std@@V?$allocator@D@2@@std@@QAE@XZ ; std::basic_string<char,std::char_traits<char>,std::allocator<char> >::~basic_string<char,std::char_traits<char>,std::allocator<char> >
; Function compile flags: /Ogsp
; File c:\program files (x86)\microsoft visual studio 10.0\vc\include\xstring
;	COMDAT ??1?$basic_string@DU?$char_traits@D@std@@V?$allocator@D@2@@std@@QAE@XZ
_TEXT	SEGMENT
??1?$basic_string@DU?$char_traits@D@std@@V?$allocator@D@2@@std@@QAE@XZ PROC ; std::basic_string<char,std::char_traits<char>,std::allocator<char> >::~basic_string<char,std::char_traits<char>,std::allocator<char> >, COMDAT
; _this$ = ecx

; 754  : 		_Tidy(true);

  00000	6a 00		 push	 0
  00002	6a 01		 push	 1
  00004	e8 00 00 00 00	 call	 ?_Tidy@?$basic_string@DU?$char_traits@D@std@@V?$allocator@D@2@@std@@QAEX_NI@Z ; std::basic_string<char,std::char_traits<char>,std::allocator<char> >::_Tidy

; 755  : 		}

  00009	c3		 ret	 0
??1?$basic_string@DU?$char_traits@D@std@@V?$allocator@D@2@@std@@QAE@XZ ENDP ; std::basic_string<char,std::char_traits<char>,std::allocator<char> >::~basic_string<char,std::char_traits<char>,std::allocator<char> >
_TEXT	ENDS
PUBLIC	?_Grow@?$basic_string@DU?$char_traits@D@std@@V?$allocator@D@2@@std@@QAE_NI_N@Z ; std::basic_string<char,std::char_traits<char>,std::allocator<char> >::_Grow
; Function compile flags: /Ogsp
;	COMDAT ?_Grow@?$basic_string@DU?$char_traits@D@std@@V?$allocator@D@2@@std@@QAE_NI_N@Z
_TEXT	SEGMENT
__Newsize$ = 8						; size = 4
__Trim$ = 12						; size = 1
?_Grow@?$basic_string@DU?$char_traits@D@std@@V?$allocator@D@2@@std@@QAE_NI_N@Z PROC ; std::basic_string<char,std::char_traits<char>,std::allocator<char> >::_Grow, COMDAT
; _this$ = ecx

; 1959 : 		{	// ensure buffer is big enough, trim to size if _Trim is true

  00000	55		 push	 ebp
  00001	8b ec		 mov	 ebp, esp
  00003	56		 push	 esi

; 1960 : 		if (max_size() < _Newsize)

  00004	8b 75 08	 mov	 esi, DWORD PTR __Newsize$[ebp]
  00007	83 fe fe	 cmp	 esi, -2			; fffffffeH
  0000a	76 0b		 jbe	 SHORT $LN6@Grow

; 1961 : 			_Xlen();	// result too long

  0000c	68 00 00 00 00	 push	 OFFSET ??_C@_0BA@JFNIOLAK@string?5too?5long?$AA@
  00011	ff 15 00 00 00
	00		 call	 DWORD PTR __imp_?_Xlength_error@std@@YAXPBD@Z
$LN31@Grow:
$LN6@Grow:

; 1962 : 		if (this->_Myres < _Newsize)

  00017	8b 41 14	 mov	 eax, DWORD PTR [ecx+20]
  0001a	3b c6		 cmp	 eax, esi
  0001c	73 0b		 jae	 SHORT $LN5@Grow

; 1963 : 			_Copy(_Newsize, this->_Mysize);	// reallocate to grow

  0001e	ff 71 10	 push	 DWORD PTR [ecx+16]
  00021	56		 push	 esi
  00022	e8 00 00 00 00	 call	 ?_Copy@?$basic_string@DU?$char_traits@D@std@@V?$allocator@D@2@@std@@QAEXII@Z ; std::basic_string<char,std::char_traits<char>,std::allocator<char> >::_Copy
  00027	eb 2e		 jmp	 SHORT $LN28@Grow
$LN5@Grow:

; 1964 : 		else if (_Trim && _Newsize < this->_BUF_SIZE)

  00029	33 d2		 xor	 edx, edx
  0002b	38 55 0c	 cmp	 BYTE PTR __Trim$[ebp], dl
  0002e	74 17		 je	 SHORT $LN3@Grow
  00030	83 fe 10	 cmp	 esi, 16			; 00000010H
  00033	73 12		 jae	 SHORT $LN3@Grow

; 1965 : 			_Tidy(true,	// copy and deallocate if trimming to small string
; 1966 : 				_Newsize < this->_Mysize ? _Newsize : this->_Mysize);

  00035	8b 41 10	 mov	 eax, DWORD PTR [ecx+16]
  00038	3b f0		 cmp	 esi, eax
  0003a	0f 42 c6	 cmovb	 eax, esi
  0003d	50		 push	 eax
  0003e	6a 01		 push	 1
  00040	e8 00 00 00 00	 call	 ?_Tidy@?$basic_string@DU?$char_traits@D@std@@V?$allocator@D@2@@std@@QAEX_NI@Z ; std::basic_string<char,std::char_traits<char>,std::allocator<char> >::_Tidy
  00045	eb 10		 jmp	 SHORT $LN28@Grow
$LN3@Grow:

; 1967 : 		else if (_Newsize == 0)

  00047	3b f2		 cmp	 esi, edx
  00049	75 0c		 jne	 SHORT $LN28@Grow

; 1968 : 			_Eos(0);	// new size is zero, just null terminate

  0004b	89 51 10	 mov	 DWORD PTR [ecx+16], edx
  0004e	83 f8 10	 cmp	 eax, 16			; 00000010H
  00051	72 02		 jb	 SHORT $LN26@Grow
  00053	8b 09		 mov	 ecx, DWORD PTR [ecx]
$LN26@Grow:
  00055	88 11		 mov	 BYTE PTR [ecx], dl
$LN28@Grow:

; 1969 : 		return (0 < _Newsize);	// return true only if more work to do

  00057	33 c0		 xor	 eax, eax
  00059	3b c6		 cmp	 eax, esi
  0005b	1b c0		 sbb	 eax, eax
  0005d	f7 d8		 neg	 eax
  0005f	5e		 pop	 esi

; 1970 : 		}

  00060	5d		 pop	 ebp
  00061	c2 08 00	 ret	 8
$LN30@Grow:
?_Grow@?$basic_string@DU?$char_traits@D@std@@V?$allocator@D@2@@std@@QAE_NI_N@Z ENDP ; std::basic_string<char,std::char_traits<char>,std::allocator<char> >::_Grow
_TEXT	ENDS
PUBLIC	??$_Destroy_range@V?$allocator@VioComplexStringPrinter@@@std@@@std@@YAXPAVioComplexStringPrinter@@0AAV?$allocator@VioComplexStringPrinter@@@0@U_Nonscalar_ptr_iterator_tag@0@@Z ; std::_Destroy_range<std::allocator<ioComplexStringPrinter> >
; Function compile flags: /Ogsp
; File c:\program files (x86)\microsoft visual studio 10.0\vc\include\xmemory
;	COMDAT ??$_Destroy_range@V?$allocator@VioComplexStringPrinter@@@std@@@std@@YAXPAVioComplexStringPrinter@@0AAV?$allocator@VioComplexStringPrinter@@@0@U_Nonscalar_ptr_iterator_tag@0@@Z
_TEXT	SEGMENT
__First$ = 8						; size = 4
__Last$ = 12						; size = 4
__Al$ = 16						; size = 4
___formal$ = 20						; size = 1
??$_Destroy_range@V?$allocator@VioComplexStringPrinter@@@std@@@std@@YAXPAVioComplexStringPrinter@@0AAV?$allocator@VioComplexStringPrinter@@@0@U_Nonscalar_ptr_iterator_tag@0@@Z PROC ; std::_Destroy_range<std::allocator<ioComplexStringPrinter> >, COMDAT

; 95   : 	{	// destroy [_First, _Last), arbitrary type

  00000	55		 push	 ebp
  00001	8b ec		 mov	 ebp, esp
  00003	56		 push	 esi

; 96   : 	for (; _First != _Last; ++_First)

  00004	8b 75 08	 mov	 esi, DWORD PTR __First$[ebp]
  00007	eb 0a		 jmp	 SHORT $LN17@Destroy_ra
$LL3@Destroy_ra:

; 97   : 		_Dest_val(_Al, _First);

  00009	8b ce		 mov	 ecx, esi
  0000b	e8 00 00 00 00	 call	 ??1ioComplexStringPrinter@@QAE@XZ ; ioComplexStringPrinter::~ioComplexStringPrinter
  00010	83 c6 20	 add	 esi, 32			; 00000020H
$LN17@Destroy_ra:

; 96   : 	for (; _First != _Last; ++_First)

  00013	3b 75 0c	 cmp	 esi, DWORD PTR __Last$[ebp]
  00016	75 f1		 jne	 SHORT $LL3@Destroy_ra
  00018	5e		 pop	 esi

; 98   : 	}

  00019	5d		 pop	 ebp
  0001a	c3		 ret	 0
??$_Destroy_range@V?$allocator@VioComplexStringPrinter@@@std@@@std@@YAXPAVioComplexStringPrinter@@0AAV?$allocator@VioComplexStringPrinter@@@0@U_Nonscalar_ptr_iterator_tag@0@@Z ENDP ; std::_Destroy_range<std::allocator<ioComplexStringPrinter> >
_TEXT	ENDS
PUBLIC	??1tagTextPiece@ioComplexStringPrinter@@QAE@XZ	; ioComplexStringPrinter::tagTextPiece::~tagTextPiece
; Function compile flags: /Ogsp
;	COMDAT ??1tagTextPiece@ioComplexStringPrinter@@QAE@XZ
_TEXT	SEGMENT
??1tagTextPiece@ioComplexStringPrinter@@QAE@XZ PROC	; ioComplexStringPrinter::tagTextPiece::~tagTextPiece, COMDAT
; _this$ = ecx
  00000	6a 00		 push	 0
  00002	6a 01		 push	 1
  00004	83 c1 18	 add	 ecx, 24			; 00000018H
  00007	e8 00 00 00 00	 call	 ?_Tidy@?$basic_string@DU?$char_traits@D@std@@V?$allocator@D@2@@std@@QAEX_NI@Z ; std::basic_string<char,std::char_traits<char>,std::allocator<char> >::_Tidy
  0000c	c3		 ret	 0
??1tagTextPiece@ioComplexStringPrinter@@QAE@XZ ENDP	; ioComplexStringPrinter::tagTextPiece::~tagTextPiece
_TEXT	ENDS
PUBLIC	?assign@?$basic_string@DU?$char_traits@D@std@@V?$allocator@D@2@@std@@QAEAAV12@ABV12@II@Z ; std::basic_string<char,std::char_traits<char>,std::allocator<char> >::assign
; Function compile flags: /Ogsp
; File c:\program files (x86)\microsoft visual studio 10.0\vc\include\xstring
;	COMDAT ?assign@?$basic_string@DU?$char_traits@D@std@@V?$allocator@D@2@@std@@QAEAAV12@ABV12@II@Z
_TEXT	SEGMENT
__Right$ = 8						; size = 4
__Roff$ = 12						; size = 4
__Count$ = 16						; size = 4
?assign@?$basic_string@DU?$char_traits@D@std@@V?$allocator@D@2@@std@@QAEAAV12@ABV12@II@Z PROC ; std::basic_string<char,std::char_traits<char>,std::allocator<char> >::assign, COMDAT
; _this$ = ecx

; 893  : 		{	// assign _Right [_Roff, _Roff + _Count)

  00000	55		 push	 ebp
  00001	8b ec		 mov	 ebp, esp
  00003	53		 push	 ebx

; 894  : 		if (_Right.size() < _Roff)

  00004	8b 5d 08	 mov	 ebx, DWORD PTR __Right$[ebp]
  00007	8b 43 10	 mov	 eax, DWORD PTR [ebx+16]
  0000a	56		 push	 esi
  0000b	8b f1		 mov	 esi, ecx
  0000d	8b 4d 0c	 mov	 ecx, DWORD PTR __Roff$[ebp]
  00010	57		 push	 edi
  00011	3b c1		 cmp	 eax, ecx
  00013	73 0b		 jae	 SHORT $LN5@assign

; 895  : 			_Xran();	// _Roff off end

  00015	68 00 00 00 00	 push	 OFFSET ??_C@_0BI@CFPLBAOH@invalid?5string?5position?$AA@
  0001a	ff 15 00 00 00
	00		 call	 DWORD PTR __imp_?_Xout_of_range@std@@YAXPBD@Z
$LN34@assign:
$LN5@assign:

; 896  : 		size_type _Num = _Right.size() - _Roff;

  00020	2b c1		 sub	 eax, ecx
  00022	8b f8		 mov	 edi, eax

; 897  : 		if (_Count < _Num)

  00024	39 7d 10	 cmp	 DWORD PTR __Count$[ebp], edi

; 898  : 			_Num = _Count;	// trim _Num to size

  00027	0f 42 7d 10	 cmovb	 edi, DWORD PTR __Count$[ebp]

; 899  : 
; 900  : 		if (this == &_Right)

  0002b	3b f3		 cmp	 esi, ebx
  0002d	75 1a		 jne	 SHORT $LN3@assign

; 901  : 			erase((size_type)(_Roff + _Num)), erase(0, _Roff);	// substring

  0002f	03 f9		 add	 edi, ecx
  00031	6a ff		 push	 -1
  00033	57		 push	 edi
  00034	8b ce		 mov	 ecx, esi
  00036	e8 00 00 00 00	 call	 ?erase@?$basic_string@DU?$char_traits@D@std@@V?$allocator@D@2@@std@@QAEAAV12@II@Z ; std::basic_string<char,std::char_traits<char>,std::allocator<char> >::erase
  0003b	ff 75 0c	 push	 DWORD PTR __Roff$[ebp]
  0003e	8b ce		 mov	 ecx, esi
  00040	6a 00		 push	 0
  00042	e8 00 00 00 00	 call	 ?erase@?$basic_string@DU?$char_traits@D@std@@V?$allocator@D@2@@std@@QAEAAV12@II@Z ; std::basic_string<char,std::char_traits<char>,std::allocator<char> >::erase
  00047	eb 47		 jmp	 SHORT $LN31@assign
$LN3@assign:

; 902  : 		else if (_Grow(_Num))

  00049	6a 00		 push	 0
  0004b	57		 push	 edi
  0004c	8b ce		 mov	 ecx, esi
  0004e	e8 00 00 00 00	 call	 ?_Grow@?$basic_string@DU?$char_traits@D@std@@V?$allocator@D@2@@std@@QAE_NI_N@Z ; std::basic_string<char,std::char_traits<char>,std::allocator<char> >::_Grow
  00053	84 c0		 test	 al, al
  00055	74 39		 je	 SHORT $LN31@assign

; 903  : 			{	// make room and assign new stuff
; 904  : 			_Traits::copy(_Myptr(), _Right._Myptr() + _Roff, _Num);

  00057	83 7b 14 10	 cmp	 DWORD PTR [ebx+20], 16	; 00000010H
  0005b	72 04		 jb	 SHORT $LN17@assign
  0005d	8b 03		 mov	 eax, DWORD PTR [ebx]
  0005f	eb 02		 jmp	 SHORT $LN18@assign
$LN17@assign:
  00061	8b c3		 mov	 eax, ebx
$LN18@assign:
  00063	83 7e 14 10	 cmp	 DWORD PTR [esi+20], 16	; 00000010H
  00067	72 04		 jb	 SHORT $LN21@assign
  00069	8b 0e		 mov	 ecx, DWORD PTR [esi]
  0006b	eb 02		 jmp	 SHORT $LN22@assign
$LN21@assign:
  0006d	8b ce		 mov	 ecx, esi
$LN22@assign:
  0006f	03 45 0c	 add	 eax, DWORD PTR __Roff$[ebp]
  00072	57		 push	 edi
  00073	50		 push	 eax
  00074	51		 push	 ecx
  00075	e8 00 00 00 00	 call	 _memcpy
  0007a	83 c4 0c	 add	 esp, 12			; 0000000cH

; 905  : 			_Eos(_Num);

  0007d	83 7e 14 10	 cmp	 DWORD PTR [esi+20], 16	; 00000010H
  00081	89 7e 10	 mov	 DWORD PTR [esi+16], edi
  00084	72 04		 jb	 SHORT $LN29@assign
  00086	8b 06		 mov	 eax, DWORD PTR [esi]
  00088	eb 02		 jmp	 SHORT $LN30@assign
$LN29@assign:
  0008a	8b c6		 mov	 eax, esi
$LN30@assign:
  0008c	c6 04 38 00	 mov	 BYTE PTR [eax+edi], 0
$LN31@assign:

; 906  : 			}
; 907  : 		return (*this);

  00090	5f		 pop	 edi
  00091	8b c6		 mov	 eax, esi
  00093	5e		 pop	 esi
  00094	5b		 pop	 ebx

; 908  : 		}

  00095	5d		 pop	 ebp
  00096	c2 0c 00	 ret	 12			; 0000000cH
$LN33@assign:
?assign@?$basic_string@DU?$char_traits@D@std@@V?$allocator@D@2@@std@@QAEAAV12@ABV12@II@Z ENDP ; std::basic_string<char,std::char_traits<char>,std::allocator<char> >::assign
_TEXT	ENDS
PUBLIC	??$_Destroy_range@V?$allocator@VioComplexStringPrinter@@@std@@@std@@YAXPAVioComplexStringPrinter@@0AAV?$allocator@VioComplexStringPrinter@@@0@@Z ; std::_Destroy_range<std::allocator<ioComplexStringPrinter> >
; Function compile flags: /Ogsp
; File c:\program files (x86)\microsoft visual studio 10.0\vc\include\xmemory
;	COMDAT ??$_Destroy_range@V?$allocator@VioComplexStringPrinter@@@std@@@std@@YAXPAVioComplexStringPrinter@@0AAV?$allocator@VioComplexStringPrinter@@@0@@Z
_TEXT	SEGMENT
__First$ = 8						; size = 4
__Last$ = 12						; size = 4
__Al$ = 16						; size = 4
??$_Destroy_range@V?$allocator@VioComplexStringPrinter@@@std@@@std@@YAXPAVioComplexStringPrinter@@0AAV?$allocator@VioComplexStringPrinter@@@0@@Z PROC ; std::_Destroy_range<std::allocator<ioComplexStringPrinter> >, COMDAT

; 87   : 	{	// destroy [_First, _Last)

  00000	55		 push	 ebp
  00001	8b ec		 mov	 ebp, esp
  00003	56		 push	 esi

; 88   : 	_Destroy_range(_First, _Last, _Al, _Ptr_cat(_First, _Last));

  00004	8b 75 08	 mov	 esi, DWORD PTR __First$[ebp]
  00007	eb 0a		 jmp	 SHORT $LN21@Destroy_ra@2
$LL7@Destroy_ra@2:
  00009	8b ce		 mov	 ecx, esi
  0000b	e8 00 00 00 00	 call	 ??1ioComplexStringPrinter@@QAE@XZ ; ioComplexStringPrinter::~ioComplexStringPrinter
  00010	83 c6 20	 add	 esi, 32			; 00000020H
$LN21@Destroy_ra@2:
  00013	3b 75 0c	 cmp	 esi, DWORD PTR __Last$[ebp]
  00016	75 f1		 jne	 SHORT $LL7@Destroy_ra@2
  00018	5e		 pop	 esi

; 89   : 	}

  00019	5d		 pop	 ebp
  0001a	c3		 ret	 0
??$_Destroy_range@V?$allocator@VioComplexStringPrinter@@@std@@@std@@YAXPAVioComplexStringPrinter@@0AAV?$allocator@VioComplexStringPrinter@@@0@@Z ENDP ; std::_Destroy_range<std::allocator<ioComplexStringPrinter> >
_TEXT	ENDS
PUBLIC	??_GtagTextPiece@ioComplexStringPrinter@@QAEPAXI@Z ; ioComplexStringPrinter::tagTextPiece::`scalar deleting destructor'
; Function compile flags: /Ogsp
;	COMDAT ??_GtagTextPiece@ioComplexStringPrinter@@QAEPAXI@Z
_TEXT	SEGMENT
___flags$ = 8						; size = 4
??_GtagTextPiece@ioComplexStringPrinter@@QAEPAXI@Z PROC	; ioComplexStringPrinter::tagTextPiece::`scalar deleting destructor', COMDAT
; _this$ = ecx
  00000	55		 push	 ebp
  00001	8b ec		 mov	 ebp, esp
  00003	56		 push	 esi
  00004	8b f1		 mov	 esi, ecx
  00006	6a 00		 push	 0
  00008	6a 01		 push	 1
  0000a	8d 4e 18	 lea	 ecx, DWORD PTR [esi+24]
  0000d	e8 00 00 00 00	 call	 ?_Tidy@?$basic_string@DU?$char_traits@D@std@@V?$allocator@D@2@@std@@QAEX_NI@Z ; std::basic_string<char,std::char_traits<char>,std::allocator<char> >::_Tidy
  00012	f6 45 08 01	 test	 BYTE PTR ___flags$[ebp], 1
  00016	74 07		 je	 SHORT $LN1@scalar@4
  00018	56		 push	 esi
  00019	e8 00 00 00 00	 call	 ??3@YAXPAX@Z		; operator delete
  0001e	59		 pop	 ecx
$LN1@scalar@4:
  0001f	8b c6		 mov	 eax, esi
  00021	5e		 pop	 esi
  00022	5d		 pop	 ebp
  00023	c2 04 00	 ret	 4
??_GtagTextPiece@ioComplexStringPrinter@@QAEPAXI@Z ENDP	; ioComplexStringPrinter::tagTextPiece::`scalar deleting destructor'
_TEXT	ENDS
PUBLIC	??0?$basic_string@DU?$char_traits@D@std@@V?$allocator@D@2@@std@@QAE@ABV01@@Z ; std::basic_string<char,std::char_traits<char>,std::allocator<char> >::basic_string<char,std::char_traits<char>,std::allocator<char> >
; Function compile flags: /Ogsp
; File c:\program files (x86)\microsoft visual studio 10.0\vc\include\xstring
;	COMDAT ??0?$basic_string@DU?$char_traits@D@std@@V?$allocator@D@2@@std@@QAE@ABV01@@Z
_TEXT	SEGMENT
__Right$ = 8						; size = 4
??0?$basic_string@DU?$char_traits@D@std@@V?$allocator@D@2@@std@@QAE@ABV01@@Z PROC ; std::basic_string<char,std::char_traits<char>,std::allocator<char> >::basic_string<char,std::char_traits<char>,std::allocator<char> >, COMDAT
; _this$ = ecx

; 543  : 		{	// construct by copying _Right

  00000	55		 push	 ebp
  00001	8b ec		 mov	 ebp, esp
  00003	56		 push	 esi

; 544  : 		_Tidy();

  00004	33 c0		 xor	 eax, eax

; 545  : 		assign(_Right, 0, npos);

  00006	6a ff		 push	 -1
  00008	8b f1		 mov	 esi, ecx
  0000a	50		 push	 eax
  0000b	ff 75 08	 push	 DWORD PTR __Right$[ebp]
  0000e	c7 46 14 0f 00
	00 00		 mov	 DWORD PTR [esi+20], 15	; 0000000fH
  00015	89 46 10	 mov	 DWORD PTR [esi+16], eax
  00018	88 06		 mov	 BYTE PTR [esi], al
  0001a	e8 00 00 00 00	 call	 ?assign@?$basic_string@DU?$char_traits@D@std@@V?$allocator@D@2@@std@@QAEAAV12@ABV12@II@Z ; std::basic_string<char,std::char_traits<char>,std::allocator<char> >::assign

; 546  : 		}

  0001f	8b c6		 mov	 eax, esi
  00021	5e		 pop	 esi
  00022	5d		 pop	 ebp
  00023	c2 04 00	 ret	 4
??0?$basic_string@DU?$char_traits@D@std@@V?$allocator@D@2@@std@@QAE@ABV01@@Z ENDP ; std::basic_string<char,std::char_traits<char>,std::allocator<char> >::basic_string<char,std::char_traits<char>,std::allocator<char> >
_TEXT	ENDS
PUBLIC	?_Destroy@?$vector@VioComplexStringPrinter@@V?$allocator@VioComplexStringPrinter@@@std@@@std@@IAEXPAVioComplexStringPrinter@@0@Z ; std::vector<ioComplexStringPrinter,std::allocator<ioComplexStringPrinter> >::_Destroy
; Function compile flags: /Ogsp
; File c:\program files (x86)\microsoft visual studio 10.0\vc\include\vector
;	COMDAT ?_Destroy@?$vector@VioComplexStringPrinter@@V?$allocator@VioComplexStringPrinter@@@std@@@std@@IAEXPAVioComplexStringPrinter@@0@Z
_TEXT	SEGMENT
__First$ = 8						; size = 4
__Last$ = 12						; size = 4
?_Destroy@?$vector@VioComplexStringPrinter@@V?$allocator@VioComplexStringPrinter@@@std@@@std@@IAEXPAVioComplexStringPrinter@@0@Z PROC ; std::vector<ioComplexStringPrinter,std::allocator<ioComplexStringPrinter> >::_Destroy, COMDAT
; _this$ = ecx

; 1269 : 		{	// destroy [_First, _Last) using allocator

  00000	55		 push	 ebp
  00001	8b ec		 mov	 ebp, esp
  00003	56		 push	 esi

; 1270 : 		_Destroy_range(_First, _Last, this->_Alval);

  00004	8b 75 08	 mov	 esi, DWORD PTR __First$[ebp]
  00007	eb 0a		 jmp	 SHORT $LN23@Destroy
$LL9@Destroy:
  00009	8b ce		 mov	 ecx, esi
  0000b	e8 00 00 00 00	 call	 ??1ioComplexStringPrinter@@QAE@XZ ; ioComplexStringPrinter::~ioComplexStringPrinter
  00010	83 c6 20	 add	 esi, 32			; 00000020H
$LN23@Destroy:
  00013	3b 75 0c	 cmp	 esi, DWORD PTR __Last$[ebp]
  00016	75 f1		 jne	 SHORT $LL9@Destroy
  00018	5e		 pop	 esi

; 1271 : 		}

  00019	5d		 pop	 ebp
  0001a	c2 08 00	 ret	 8
?_Destroy@?$vector@VioComplexStringPrinter@@V?$allocator@VioComplexStringPrinter@@@std@@@std@@IAEXPAVioComplexStringPrinter@@0@Z ENDP ; std::vector<ioComplexStringPrinter,std::allocator<ioComplexStringPrinter> >::_Destroy
_TEXT	ENDS
PUBLIC	??$_Destroy@UtagTextPiece@ioComplexStringPrinter@@@std@@YAXPAUtagTextPiece@ioComplexStringPrinter@@@Z ; std::_Destroy<ioComplexStringPrinter::tagTextPiece>
; Function compile flags: /Ogsp
; File c:\program files (x86)\microsoft visual studio 10.0\vc\include\xmemory
;	COMDAT ??$_Destroy@UtagTextPiece@ioComplexStringPrinter@@@std@@YAXPAUtagTextPiece@ioComplexStringPrinter@@@Z
_TEXT	SEGMENT
__Ptr$ = 8						; size = 4
??$_Destroy@UtagTextPiece@ioComplexStringPrinter@@@std@@YAXPAUtagTextPiece@ioComplexStringPrinter@@@Z PROC ; std::_Destroy<ioComplexStringPrinter::tagTextPiece>, COMDAT

; 62   : 	{	// destroy object at _Ptr

  00000	55		 push	 ebp
  00001	8b ec		 mov	 ebp, esp

; 63   : 	_Ptr->~_Ty();

  00003	8b 4d 08	 mov	 ecx, DWORD PTR __Ptr$[ebp]
  00006	6a 00		 push	 0
  00008	e8 00 00 00 00	 call	 ??_GtagTextPiece@ioComplexStringPrinter@@QAEPAXI@Z

; 64   : 	}

  0000d	5d		 pop	 ebp
  0000e	c3		 ret	 0
??$_Destroy@UtagTextPiece@ioComplexStringPrinter@@@std@@YAXPAUtagTextPiece@ioComplexStringPrinter@@@Z ENDP ; std::_Destroy<ioComplexStringPrinter::tagTextPiece>
_TEXT	ENDS
PUBLIC	??0tagTextPiece@ioComplexStringPrinter@@QAE@ABU01@@Z ; ioComplexStringPrinter::tagTextPiece::tagTextPiece
; Function compile flags: /Ogsp
;	COMDAT ??0tagTextPiece@ioComplexStringPrinter@@QAE@ABU01@@Z
_TEXT	SEGMENT
___that$ = 8						; size = 4
??0tagTextPiece@ioComplexStringPrinter@@QAE@ABU01@@Z PROC ; ioComplexStringPrinter::tagTextPiece::tagTextPiece, COMDAT
; _this$ = ecx
  00000	55		 push	 ebp
  00001	8b ec		 mov	 ebp, esp
  00003	8b 45 08	 mov	 eax, DWORD PTR ___that$[ebp]
  00006	56		 push	 esi
  00007	8b f1		 mov	 esi, ecx
  00009	8b 08		 mov	 ecx, DWORD PTR [eax]
  0000b	89 0e		 mov	 DWORD PTR [esi], ecx
  0000d	8b 48 04	 mov	 ecx, DWORD PTR [eax+4]
  00010	89 4e 04	 mov	 DWORD PTR [esi+4], ecx
  00013	8b 48 08	 mov	 ecx, DWORD PTR [eax+8]
  00016	89 4e 08	 mov	 DWORD PTR [esi+8], ecx
  00019	d9 40 0c	 fld	 DWORD PTR [eax+12]
  0001c	d9 5e 0c	 fstp	 DWORD PTR [esi+12]
  0001f	83 c0 18	 add	 eax, 24			; 00000018H
  00022	d9 40 f8	 fld	 DWORD PTR [eax-8]
  00025	50		 push	 eax
  00026	d9 5e 10	 fstp	 DWORD PTR [esi+16]
  00029	8d 4e 18	 lea	 ecx, DWORD PTR [esi+24]
  0002c	d9 40 fc	 fld	 DWORD PTR [eax-4]
  0002f	d9 5e 14	 fstp	 DWORD PTR [esi+20]
  00032	e8 00 00 00 00	 call	 ??0?$basic_string@DU?$char_traits@D@std@@V?$allocator@D@2@@std@@QAE@ABV01@@Z ; std::basic_string<char,std::char_traits<char>,std::allocator<char> >::basic_string<char,std::char_traits<char>,std::allocator<char> >
  00037	8b c6		 mov	 eax, esi
  00039	5e		 pop	 esi
  0003a	5d		 pop	 ebp
  0003b	c2 04 00	 ret	 4
??0tagTextPiece@ioComplexStringPrinter@@QAE@ABU01@@Z ENDP ; ioComplexStringPrinter::tagTextPiece::tagTextPiece
_TEXT	ENDS
PUBLIC	?_Tidy@?$vector@VioComplexStringPrinter@@V?$allocator@VioComplexStringPrinter@@@std@@@std@@IAEXXZ ; std::vector<ioComplexStringPrinter,std::allocator<ioComplexStringPrinter> >::_Tidy
EXTRN	__imp_?_Orphan_all@_Container_base0@std@@QAEXXZ:PROC
; Function compile flags: /Ogsp
; File c:\program files (x86)\microsoft visual studio 10.0\vc\include\vector
;	COMDAT ?_Tidy@?$vector@VioComplexStringPrinter@@V?$allocator@VioComplexStringPrinter@@@std@@@std@@IAEXXZ
_TEXT	SEGMENT
?_Tidy@?$vector@VioComplexStringPrinter@@V?$allocator@VioComplexStringPrinter@@@std@@@std@@IAEXXZ PROC ; std::vector<ioComplexStringPrinter,std::allocator<ioComplexStringPrinter> >::_Tidy, COMDAT
; _this$ = ecx

; 1301 : 		{	// free all storage

  00000	56		 push	 esi
  00001	8b f1		 mov	 esi, ecx

; 1302 : 		if (this->_Myfirst != 0)

  00003	83 3e 00	 cmp	 DWORD PTR [esi], 0
  00006	74 27		 je	 SHORT $LN24@Tidy@2

; 1303 : 			{	// something to free, destroy and deallocate it
; 1304 : 			this->_Orphan_all();

  00008	53		 push	 ebx
  00009	57		 push	 edi
  0000a	ff 15 00 00 00
	00		 call	 DWORD PTR __imp_?_Orphan_all@_Container_base0@std@@QAEXXZ

; 1305 : 			_Destroy(this->_Myfirst, this->_Mylast);

  00010	8b 5e 04	 mov	 ebx, DWORD PTR [esi+4]
  00013	8b 3e		 mov	 edi, DWORD PTR [esi]
  00015	eb 0a		 jmp	 SHORT $LN28@Tidy@2
$LL12@Tidy@2:
  00017	8b cf		 mov	 ecx, edi
  00019	e8 00 00 00 00	 call	 ??1ioComplexStringPrinter@@QAE@XZ ; ioComplexStringPrinter::~ioComplexStringPrinter
  0001e	83 c7 20	 add	 edi, 32			; 00000020H
$LN28@Tidy@2:
  00021	3b fb		 cmp	 edi, ebx
  00023	75 f2		 jne	 SHORT $LL12@Tidy@2

; 1306 : 			this->_Alval.deallocate(this->_Myfirst,
; 1307 : 				this->_Myend - this->_Myfirst);

  00025	ff 36		 push	 DWORD PTR [esi]
  00027	e8 00 00 00 00	 call	 ??3@YAXPAX@Z		; operator delete
  0002c	59		 pop	 ecx
  0002d	5f		 pop	 edi
  0002e	5b		 pop	 ebx
$LN24@Tidy@2:

; 1308 : 			}
; 1309 : 		this->_Myfirst = 0;

  0002f	33 c0		 xor	 eax, eax
  00031	89 06		 mov	 DWORD PTR [esi], eax

; 1310 : 		this->_Mylast = 0;

  00033	89 46 04	 mov	 DWORD PTR [esi+4], eax

; 1311 : 		this->_Myend = 0;

  00036	89 46 08	 mov	 DWORD PTR [esi+8], eax
  00039	5e		 pop	 esi

; 1312 : 		}

  0003a	c3		 ret	 0
?_Tidy@?$vector@VioComplexStringPrinter@@V?$allocator@VioComplexStringPrinter@@@std@@@std@@IAEXXZ ENDP ; std::vector<ioComplexStringPrinter,std::allocator<ioComplexStringPrinter> >::_Tidy
_TEXT	ENDS
PUBLIC	?destroy@?$allocator@UtagTextPiece@ioComplexStringPrinter@@@std@@QAEXPAUtagTextPiece@ioComplexStringPrinter@@@Z ; std::allocator<ioComplexStringPrinter::tagTextPiece>::destroy
; Function compile flags: /Ogsp
; File c:\program files (x86)\microsoft visual studio 10.0\vc\include\xmemory
;	COMDAT ?destroy@?$allocator@UtagTextPiece@ioComplexStringPrinter@@@std@@QAEXPAUtagTextPiece@ioComplexStringPrinter@@@Z
_TEXT	SEGMENT
__Ptr$ = 8						; size = 4
?destroy@?$allocator@UtagTextPiece@ioComplexStringPrinter@@@std@@QAEXPAUtagTextPiece@ioComplexStringPrinter@@@Z PROC ; std::allocator<ioComplexStringPrinter::tagTextPiece>::destroy, COMDAT
; _this$ = ecx

; 212  : 		{	// destroy object at _Ptr

  00000	55		 push	 ebp
  00001	8b ec		 mov	 ebp, esp

; 213  : 		_Destroy(_Ptr);

  00003	8b 4d 08	 mov	 ecx, DWORD PTR __Ptr$[ebp]
  00006	6a 00		 push	 0
  00008	e8 00 00 00 00	 call	 ??_GtagTextPiece@ioComplexStringPrinter@@QAEPAXI@Z

; 214  : 		}

  0000d	5d		 pop	 ebp
  0000e	c2 04 00	 ret	 4
?destroy@?$allocator@UtagTextPiece@ioComplexStringPrinter@@@std@@QAEXPAUtagTextPiece@ioComplexStringPrinter@@@Z ENDP ; std::allocator<ioComplexStringPrinter::tagTextPiece>::destroy
_TEXT	ENDS
PUBLIC	??$_Construct@UtagTextPiece@ioComplexStringPrinter@@ABU12@@std@@YAXPAUtagTextPiece@ioComplexStringPrinter@@ABU12@@Z ; std::_Construct<ioComplexStringPrinter::tagTextPiece,ioComplexStringPrinter::tagTextPiece const &>
;	COMDAT xdata$x
; File c:\program files (x86)\microsoft visual studio 10.0\vc\include\utility
xdata$x	SEGMENT
__unwindtable$??$_Construct@UtagTextPiece@ioComplexStringPrinter@@ABU12@@std@@YAXPAUtagTextPiece@ioComplexStringPrinter@@ABU12@@Z DD 0ffffffffH
	DD	FLAT:__unwindfunclet$??$_Construct@UtagTextPiece@ioComplexStringPrinter@@ABU12@@std@@YAXPAUtagTextPiece@ioComplexStringPrinter@@ABU12@@Z$0
__ehfuncinfo$??$_Construct@UtagTextPiece@ioComplexStringPrinter@@ABU12@@std@@YAXPAUtagTextPiece@ioComplexStringPrinter@@ABU12@@Z DD 019930522H
	DD	01H
	DD	FLAT:__unwindtable$??$_Construct@UtagTextPiece@ioComplexStringPrinter@@ABU12@@std@@YAXPAUtagTextPiece@ioComplexStringPrinter@@ABU12@@Z
	DD	2 DUP(00H)
	DD	2 DUP(00H)
	DD	00H
	DD	01H
; Function compile flags: /Ogsp
; File c:\program files (x86)\microsoft visual studio 10.0\vc\include\xmemory
xdata$x	ENDS
;	COMDAT ??$_Construct@UtagTextPiece@ioComplexStringPrinter@@ABU12@@std@@YAXPAUtagTextPiece@ioComplexStringPrinter@@ABU12@@Z
_TEXT	SEGMENT
$T540573 = -16						; size = 4
__$EHRec$ = -12						; size = 12
__Vptr$ = 8						; size = 4
__Ptr$ = 8						; size = 4
__Val$ = 12						; size = 4
??$_Construct@UtagTextPiece@ioComplexStringPrinter@@ABU12@@std@@YAXPAUtagTextPiece@ioComplexStringPrinter@@ABU12@@Z PROC ; std::_Construct<ioComplexStringPrinter::tagTextPiece,ioComplexStringPrinter::tagTextPiece const &>, COMDAT

; 46   : 	{	// construct object at _Ptr with value _Val

  00000	6a 04		 push	 4
  00002	b8 00 00 00 00	 mov	 eax, __ehhandler$??$_Construct@UtagTextPiece@ioComplexStringPrinter@@ABU12@@std@@YAXPAUtagTextPiece@ioComplexStringPrinter@@ABU12@@Z
  00007	e8 00 00 00 00	 call	 __EH_prolog3

; 47   : 	void _FARQ *_Vptr = _Ptr;

  0000c	8b 4d 08	 mov	 ecx, DWORD PTR __Ptr$[ebp]
  0000f	89 4d 08	 mov	 DWORD PTR __Vptr$[ebp], ecx

; 48   : 	::new (_Vptr) _Ty1(_STD forward<_Ty2>(_Val));

  00012	89 4d f0	 mov	 DWORD PTR $T540573[ebp], ecx
  00015	83 65 fc 00	 and	 DWORD PTR __$EHRec$[ebp+8], 0
  00019	85 c9		 test	 ecx, ecx
  0001b	74 08		 je	 SHORT $LN3@Construct
  0001d	ff 75 0c	 push	 DWORD PTR __Val$[ebp]
  00020	e8 00 00 00 00	 call	 ??0tagTextPiece@ioComplexStringPrinter@@QAE@ABU01@@Z
$LN3@Construct:

; 49   : 	}

  00025	e8 00 00 00 00	 call	 __EH_epilog3
  0002a	c3		 ret	 0
_TEXT	ENDS
;	COMDAT text$x
text$x	SEGMENT
__unwindfunclet$??$_Construct@UtagTextPiece@ioComplexStringPrinter@@ABU12@@std@@YAXPAUtagTextPiece@ioComplexStringPrinter@@ABU12@@Z$0:
  00000	ff 75 08	 push	 DWORD PTR __Vptr$[ebp]
  00003	ff 75 f0	 push	 DWORD PTR $T540573[ebp]
  00006	e8 00 00 00 00	 call	 ??3@YAXPAX0@Z		; operator delete
  0000b	59		 pop	 ecx
  0000c	59		 pop	 ecx
  0000d	c3		 ret	 0
__ehhandler$??$_Construct@UtagTextPiece@ioComplexStringPrinter@@ABU12@@std@@YAXPAUtagTextPiece@ioComplexStringPrinter@@ABU12@@Z:
  0000e	8b 54 24 08	 mov	 edx, DWORD PTR [esp+8]
  00012	8d 42 0c	 lea	 eax, DWORD PTR [edx+12]
  00015	8b 4a ec	 mov	 ecx, DWORD PTR [edx-20]
  00018	33 c8		 xor	 ecx, eax
  0001a	e8 00 00 00 00	 call	 @__security_check_cookie@4
  0001f	b8 00 00 00 00	 mov	 eax, OFFSET __ehfuncinfo$??$_Construct@UtagTextPiece@ioComplexStringPrinter@@ABU12@@std@@YAXPAUtagTextPiece@ioComplexStringPrinter@@ABU12@@Z
  00024	e9 00 00 00 00	 jmp	 ___CxxFrameHandler3
text$x	ENDS
??$_Construct@UtagTextPiece@ioComplexStringPrinter@@ABU12@@std@@YAXPAUtagTextPiece@ioComplexStringPrinter@@ABU12@@Z ENDP ; std::_Construct<ioComplexStringPrinter::tagTextPiece,ioComplexStringPrinter::tagTextPiece const &>
PUBLIC	??1?$vector@VioComplexStringPrinter@@V?$allocator@VioComplexStringPrinter@@@std@@@std@@QAE@XZ ; std::vector<ioComplexStringPrinter,std::allocator<ioComplexStringPrinter> >::~vector<ioComplexStringPrinter,std::allocator<ioComplexStringPrinter> >
; Function compile flags: /Ogsp
; File c:\program files (x86)\microsoft visual studio 10.0\vc\include\vector
;	COMDAT ??1?$vector@VioComplexStringPrinter@@V?$allocator@VioComplexStringPrinter@@@std@@@std@@QAE@XZ
_TEXT	SEGMENT
??1?$vector@VioComplexStringPrinter@@V?$allocator@VioComplexStringPrinter@@@std@@@std@@QAE@XZ PROC ; std::vector<ioComplexStringPrinter,std::allocator<ioComplexStringPrinter> >::~vector<ioComplexStringPrinter,std::allocator<ioComplexStringPrinter> >, COMDAT
; _this$ = ecx

; 705  : 		_Tidy();

  00000	e9 00 00 00 00	 jmp	 ?_Tidy@?$vector@VioComplexStringPrinter@@V?$allocator@VioComplexStringPrinter@@@std@@@std@@IAEXXZ ; std::vector<ioComplexStringPrinter,std::allocator<ioComplexStringPrinter> >::_Tidy
??1?$vector@VioComplexStringPrinter@@V?$allocator@VioComplexStringPrinter@@@std@@@std@@QAE@XZ ENDP ; std::vector<ioComplexStringPrinter,std::allocator<ioComplexStringPrinter> >::~vector<ioComplexStringPrinter,std::allocator<ioComplexStringPrinter> >
_TEXT	ENDS
PUBLIC	??$_Dest_val@V?$allocator@UtagTextPiece@ioComplexStringPrinter@@@std@@UtagTextPiece@ioComplexStringPrinter@@@std@@YAXAAV?$allocator@UtagTextPiece@ioComplexStringPrinter@@@0@PAUtagTextPiece@ioComplexStringPrinter@@@Z ; std::_Dest_val<std::allocator<ioComplexStringPrinter::tagTextPiece>,ioComplexStringPrinter::tagTextPiece>
; Function compile flags: /Ogsp
; File c:\program files (x86)\microsoft visual studio 10.0\vc\include\xmemory
;	COMDAT ??$_Dest_val@V?$allocator@UtagTextPiece@ioComplexStringPrinter@@@std@@UtagTextPiece@ioComplexStringPrinter@@@std@@YAXAAV?$allocator@UtagTextPiece@ioComplexStringPrinter@@@0@PAUtagTextPiece@ioComplexStringPrinter@@@Z
_TEXT	SEGMENT
__Alval$ = 8						; size = 4
__Pdest$ = 12						; size = 4
??$_Dest_val@V?$allocator@UtagTextPiece@ioComplexStringPrinter@@@std@@UtagTextPiece@ioComplexStringPrinter@@@std@@YAXAAV?$allocator@UtagTextPiece@ioComplexStringPrinter@@@0@PAUtagTextPiece@ioComplexStringPrinter@@@Z PROC ; std::_Dest_val<std::allocator<ioComplexStringPrinter::tagTextPiece>,ioComplexStringPrinter::tagTextPiece>, COMDAT

; 286  : 	{	// destroy using allocator

  00000	55		 push	 ebp
  00001	8b ec		 mov	 ebp, esp

; 287  : 	_Alval.destroy(_Pdest);

  00003	8b 4d 0c	 mov	 ecx, DWORD PTR __Pdest$[ebp]
  00006	6a 00		 push	 0
  00008	e8 00 00 00 00	 call	 ??_GtagTextPiece@ioComplexStringPrinter@@QAEPAXI@Z

; 288  : 	}

  0000d	5d		 pop	 ebp
  0000e	c3		 ret	 0
??$_Dest_val@V?$allocator@UtagTextPiece@ioComplexStringPrinter@@@std@@UtagTextPiece@ioComplexStringPrinter@@@std@@YAXAAV?$allocator@UtagTextPiece@ioComplexStringPrinter@@@0@PAUtagTextPiece@ioComplexStringPrinter@@@Z ENDP ; std::_Dest_val<std::allocator<ioComplexStringPrinter::tagTextPiece>,ioComplexStringPrinter::tagTextPiece>
_TEXT	ENDS
PUBLIC	?construct@?$allocator@UtagTextPiece@ioComplexStringPrinter@@@std@@QAEXPAUtagTextPiece@ioComplexStringPrinter@@ABU34@@Z ; std::allocator<ioComplexStringPrinter::tagTextPiece>::construct
; Function compile flags: /Ogsp
;	COMDAT ?construct@?$allocator@UtagTextPiece@ioComplexStringPrinter@@@std@@QAEXPAUtagTextPiece@ioComplexStringPrinter@@ABU34@@Z
_TEXT	SEGMENT
__Ptr$ = 8						; size = 4
__Val$ = 12						; size = 4
?construct@?$allocator@UtagTextPiece@ioComplexStringPrinter@@@std@@QAEXPAUtagTextPiece@ioComplexStringPrinter@@ABU34@@Z PROC ; std::allocator<ioComplexStringPrinter::tagTextPiece>::construct, COMDAT
; _this$ = ecx

; 196  : 		{	// construct object at _Ptr with value _Val

  00000	55		 push	 ebp
  00001	8b ec		 mov	 ebp, esp

; 197  : 		_Construct(_Ptr, _Val);

  00003	ff 75 0c	 push	 DWORD PTR __Val$[ebp]
  00006	ff 75 08	 push	 DWORD PTR __Ptr$[ebp]
  00009	e8 00 00 00 00	 call	 ??$_Construct@UtagTextPiece@ioComplexStringPrinter@@ABU12@@std@@YAXPAUtagTextPiece@ioComplexStringPrinter@@ABU12@@Z ; std::_Construct<ioComplexStringPrinter::tagTextPiece,ioComplexStringPrinter::tagTextPiece const &>
  0000e	59		 pop	 ecx
  0000f	59		 pop	 ecx

; 198  : 		}

  00010	5d		 pop	 ebp
  00011	c2 08 00	 ret	 8
?construct@?$allocator@UtagTextPiece@ioComplexStringPrinter@@@std@@QAEXPAUtagTextPiece@ioComplexStringPrinter@@ABU34@@Z ENDP ; std::allocator<ioComplexStringPrinter::tagTextPiece>::construct
_TEXT	ENDS
PUBLIC	??$_Destroy_range@V?$allocator@UtagTextPiece@ioComplexStringPrinter@@@std@@@std@@YAXPAUtagTextPiece@ioComplexStringPrinter@@0AAV?$allocator@UtagTextPiece@ioComplexStringPrinter@@@0@U_Nonscalar_ptr_iterator_tag@0@@Z ; std::_Destroy_range<std::allocator<ioComplexStringPrinter::tagTextPiece> >
; Function compile flags: /Ogsp
;	COMDAT ??$_Destroy_range@V?$allocator@UtagTextPiece@ioComplexStringPrinter@@@std@@@std@@YAXPAUtagTextPiece@ioComplexStringPrinter@@0AAV?$allocator@UtagTextPiece@ioComplexStringPrinter@@@0@U_Nonscalar_ptr_iterator_tag@0@@Z
_TEXT	SEGMENT
__First$ = 8						; size = 4
__Last$ = 12						; size = 4
__Al$ = 16						; size = 4
___formal$ = 20						; size = 1
??$_Destroy_range@V?$allocator@UtagTextPiece@ioComplexStringPrinter@@@std@@@std@@YAXPAUtagTextPiece@ioComplexStringPrinter@@0AAV?$allocator@UtagTextPiece@ioComplexStringPrinter@@@0@U_Nonscalar_ptr_iterator_tag@0@@Z PROC ; std::_Destroy_range<std::allocator<ioComplexStringPrinter::tagTextPiece> >, COMDAT

; 95   : 	{	// destroy [_First, _Last), arbitrary type

  00000	55		 push	 ebp
  00001	8b ec		 mov	 ebp, esp
  00003	56		 push	 esi

; 96   : 	for (; _First != _Last; ++_First)

  00004	8b 75 08	 mov	 esi, DWORD PTR __First$[ebp]
  00007	eb 0c		 jmp	 SHORT $LN14@Destroy_ra@3
$LL3@Destroy_ra@3:

; 97   : 		_Dest_val(_Al, _First);

  00009	6a 00		 push	 0
  0000b	8b ce		 mov	 ecx, esi
  0000d	e8 00 00 00 00	 call	 ??_GtagTextPiece@ioComplexStringPrinter@@QAEPAXI@Z
  00012	83 c6 34	 add	 esi, 52			; 00000034H
$LN14@Destroy_ra@3:

; 96   : 	for (; _First != _Last; ++_First)

  00015	3b 75 0c	 cmp	 esi, DWORD PTR __Last$[ebp]
  00018	75 ef		 jne	 SHORT $LL3@Destroy_ra@3
  0001a	5e		 pop	 esi

; 98   : 	}

  0001b	5d		 pop	 ebp
  0001c	c3		 ret	 0
??$_Destroy_range@V?$allocator@UtagTextPiece@ioComplexStringPrinter@@@std@@@std@@YAXPAUtagTextPiece@ioComplexStringPrinter@@0AAV?$allocator@UtagTextPiece@ioComplexStringPrinter@@@0@U_Nonscalar_ptr_iterator_tag@0@@Z ENDP ; std::_Destroy_range<std::allocator<ioComplexStringPrinter::tagTextPiece> >
_TEXT	ENDS
PUBLIC	??$_Cons_val@V?$allocator@UtagTextPiece@ioComplexStringPrinter@@@std@@UtagTextPiece@ioComplexStringPrinter@@ABU34@@std@@YAXAAV?$allocator@UtagTextPiece@ioComplexStringPrinter@@@0@PAUtagTextPiece@ioComplexStringPrinter@@ABU23@@Z ; std::_Cons_val<std::allocator<ioComplexStringPrinter::tagTextPiece>,ioComplexStringPrinter::tagTextPiece,ioComplexStringPrinter::tagTextPiece const &>
; Function compile flags: /Ogsp
;	COMDAT ??$_Cons_val@V?$allocator@UtagTextPiece@ioComplexStringPrinter@@@std@@UtagTextPiece@ioComplexStringPrinter@@ABU34@@std@@YAXAAV?$allocator@UtagTextPiece@ioComplexStringPrinter@@@0@PAUtagTextPiece@ioComplexStringPrinter@@ABU23@@Z
_TEXT	SEGMENT
__Alval$ = 8						; size = 4
__Pdest$ = 12						; size = 4
__Src$ = 16						; size = 4
??$_Cons_val@V?$allocator@UtagTextPiece@ioComplexStringPrinter@@@std@@UtagTextPiece@ioComplexStringPrinter@@ABU34@@std@@YAXAAV?$allocator@UtagTextPiece@ioComplexStringPrinter@@@0@PAUtagTextPiece@ioComplexStringPrinter@@ABU23@@Z PROC ; std::_Cons_val<std::allocator<ioComplexStringPrinter::tagTextPiece>,ioComplexStringPrinter::tagTextPiece,ioComplexStringPrinter::tagTextPiece const &>, COMDAT

; 279  : 	{	// construct using allocator

  00000	55		 push	 ebp
  00001	8b ec		 mov	 ebp, esp

; 280  : 	_Alval.construct(_Pdest, _STD forward<_Ty2>(_Src));

  00003	ff 75 10	 push	 DWORD PTR __Src$[ebp]
  00006	ff 75 0c	 push	 DWORD PTR __Pdest$[ebp]
  00009	e8 00 00 00 00	 call	 ??$_Construct@UtagTextPiece@ioComplexStringPrinter@@ABU12@@std@@YAXPAUtagTextPiece@ioComplexStringPrinter@@ABU12@@Z ; std::_Construct<ioComplexStringPrinter::tagTextPiece,ioComplexStringPrinter::tagTextPiece const &>
  0000e	59		 pop	 ecx
  0000f	59		 pop	 ecx

; 281  : 	}

  00010	5d		 pop	 ebp
  00011	c3		 ret	 0
??$_Cons_val@V?$allocator@UtagTextPiece@ioComplexStringPrinter@@@std@@UtagTextPiece@ioComplexStringPrinter@@ABU34@@std@@YAXAAV?$allocator@UtagTextPiece@ioComplexStringPrinter@@@0@PAUtagTextPiece@ioComplexStringPrinter@@ABU23@@Z ENDP ; std::_Cons_val<std::allocator<ioComplexStringPrinter::tagTextPiece>,ioComplexStringPrinter::tagTextPiece,ioComplexStringPrinter::tagTextPiece const &>
_TEXT	ENDS
PUBLIC	??$_Destroy_range@V?$allocator@UtagTextPiece@ioComplexStringPrinter@@@std@@@std@@YAXPAUtagTextPiece@ioComplexStringPrinter@@0AAV?$allocator@UtagTextPiece@ioComplexStringPrinter@@@0@@Z ; std::_Destroy_range<std::allocator<ioComplexStringPrinter::tagTextPiece> >
; Function compile flags: /Ogsp
;	COMDAT ??$_Destroy_range@V?$allocator@UtagTextPiece@ioComplexStringPrinter@@@std@@@std@@YAXPAUtagTextPiece@ioComplexStringPrinter@@0AAV?$allocator@UtagTextPiece@ioComplexStringPrinter@@@0@@Z
_TEXT	SEGMENT
__First$ = 8						; size = 4
__Last$ = 12						; size = 4
__Al$ = 16						; size = 4
??$_Destroy_range@V?$allocator@UtagTextPiece@ioComplexStringPrinter@@@std@@@std@@YAXPAUtagTextPiece@ioComplexStringPrinter@@0AAV?$allocator@UtagTextPiece@ioComplexStringPrinter@@@0@@Z PROC ; std::_Destroy_range<std::allocator<ioComplexStringPrinter::tagTextPiece> >, COMDAT

; 87   : 	{	// destroy [_First, _Last)

  00000	55		 push	 ebp
  00001	8b ec		 mov	 ebp, esp
  00003	56		 push	 esi

; 88   : 	_Destroy_range(_First, _Last, _Al, _Ptr_cat(_First, _Last));

  00004	8b 75 08	 mov	 esi, DWORD PTR __First$[ebp]
  00007	eb 0c		 jmp	 SHORT $LN18@Destroy_ra@4
$LL7@Destroy_ra@4:
  00009	6a 00		 push	 0
  0000b	8b ce		 mov	 ecx, esi
  0000d	e8 00 00 00 00	 call	 ??_GtagTextPiece@ioComplexStringPrinter@@QAEPAXI@Z
  00012	83 c6 34	 add	 esi, 52			; 00000034H
$LN18@Destroy_ra@4:
  00015	3b 75 0c	 cmp	 esi, DWORD PTR __Last$[ebp]
  00018	75 ef		 jne	 SHORT $LL7@Destroy_ra@4
  0001a	5e		 pop	 esi

; 89   : 	}

  0001b	5d		 pop	 ebp
  0001c	c3		 ret	 0
??$_Destroy_range@V?$allocator@UtagTextPiece@ioComplexStringPrinter@@@std@@@std@@YAXPAUtagTextPiece@ioComplexStringPrinter@@0AAV?$allocator@UtagTextPiece@ioComplexStringPrinter@@@0@@Z ENDP ; std::_Destroy_range<std::allocator<ioComplexStringPrinter::tagTextPiece> >
_TEXT	ENDS
PUBLIC	??$_Uninit_copy@V?$_Vector_const_iterator@V?$_Vector_val@UtagTextPiece@ioComplexStringPrinter@@V?$allocator@UtagTextPiece@ioComplexStringPrinter@@@std@@@std@@@std@@PAUtagTextPiece@ioComplexStringPrinter@@V?$allocator@UtagTextPiece@ioComplexStringPrinter@@@2@@std@@YAPAUtagTextPiece@ioComplexStringPrinter@@V?$_Vector_const_iterator@V?$_Vector_val@UtagTextPiece@ioComplexStringPrinter@@V?$allocator@UtagTextPiece@ioComplexStringPrinter@@@std@@@std@@@0@0PAU12@AAV?$allocator@UtagTextPiece@ioComplexStringPrinter@@@0@U_Nonscalar_ptr_iterator_tag@0@@Z ; std::_Uninit_copy<std::_Vector_const_iterator<std::_Vector_val<ioComplexStringPrinter::tagTextPiece,std::allocator<ioComplexStringPrinter::tagTextPiece> > >,ioComplexStringPrinter::tagTextPiece *,std::allocator<ioComplexStringPrinter::tagTextPiece> >
;	COMDAT xdata$x
xdata$x	SEGMENT
__catchsym$??$_Uninit_copy@V?$_Vector_const_iterator@V?$_Vector_val@UtagTextPiece@ioComplexStringPrinter@@V?$allocator@UtagTextPiece@ioComplexStringPrinter@@@std@@@std@@@std@@PAUtagTextPiece@ioComplexStringPrinter@@V?$allocator@UtagTextPiece@ioComplexStringPrinter@@@2@@std@@YAPAUtagTextPiece@ioComplexStringPrinter@@V?$_Vector_const_iterator@V?$_Vector_val@UtagTextPiece@ioComplexStringPrinter@@V?$allocator@UtagTextPiece@ioComplexStringPrinter@@@std@@@std@@@0@0PAU12@AAV?$allocator@UtagTextPiece@ioComplexStringPrinter@@@0@U_Nonscalar_ptr_iterator_tag@0@@Z$2 DD 040H
	DD	00H
	DD	00H
	DD	FLAT:__catch$??$_Uninit_copy@V?$_Vector_const_iterator@V?$_Vector_val@UtagTextPiece@ioComplexStringPrinter@@V?$allocator@UtagTextPiece@ioComplexStringPrinter@@@std@@@std@@@std@@PAUtagTextPiece@ioComplexStringPrinter@@V?$allocator@UtagTextPiece@ioComplexStringPrinter@@@2@@std@@YAPAUtagTextPiece@ioComplexStringPrinter@@V?$_Vector_const_iterator@V?$_Vector_val@UtagTextPiece@ioComplexStringPrinter@@V?$allocator@UtagTextPiece@ioComplexStringPrinter@@@std@@@std@@@0@0PAU12@AAV?$allocator@UtagTextPiece@ioComplexStringPrinter@@@0@U_Nonscalar_ptr_iterator_tag@0@@Z$0
__unwindtable$??$_Uninit_copy@V?$_Vector_const_iterator@V?$_Vector_val@UtagTextPiece@ioComplexStringPrinter@@V?$allocator@UtagTextPiece@ioComplexStringPrinter@@@std@@@std@@@std@@PAUtagTextPiece@ioComplexStringPrinter@@V?$allocator@UtagTextPiece@ioComplexStringPrinter@@@2@@std@@YAPAUtagTextPiece@ioComplexStringPrinter@@V?$_Vector_const_iterator@V?$_Vector_val@UtagTextPiece@ioComplexStringPrinter@@V?$allocator@UtagTextPiece@ioComplexStringPrinter@@@std@@@std@@@0@0PAU12@AAV?$allocator@UtagTextPiece@ioComplexStringPrinter@@@0@U_Nonscalar_ptr_iterator_tag@0@@Z DD 0ffffffffH
	DD	00H
	DD	0ffffffffH
	DD	00H
__tryblocktable$??$_Uninit_copy@V?$_Vector_const_iterator@V?$_Vector_val@UtagTextPiece@ioComplexStringPrinter@@V?$allocator@UtagTextPiece@ioComplexStringPrinter@@@std@@@std@@@std@@PAUtagTextPiece@ioComplexStringPrinter@@V?$allocator@UtagTextPiece@ioComplexStringPrinter@@@2@@std@@YAPAUtagTextPiece@ioComplexStringPrinter@@V?$_Vector_const_iterator@V?$_Vector_val@UtagTextPiece@ioComplexStringPrinter@@V?$allocator@UtagTextPiece@ioComplexStringPrinter@@@std@@@std@@@0@0PAU12@AAV?$allocator@UtagTextPiece@ioComplexStringPrinter@@@0@U_Nonscalar_ptr_iterator_tag@0@@Z DD 00H
	DD	00H
	DD	01H
	DD	01H
	DD	FLAT:__catchsym$??$_Uninit_copy@V?$_Vector_const_iterator@V?$_Vector_val@UtagTextPiece@ioComplexStringPrinter@@V?$allocator@UtagTextPiece@ioComplexStringPrinter@@@std@@@std@@@std@@PAUtagTextPiece@ioComplexStringPrinter@@V?$allocator@UtagTextPiece@ioComplexStringPrinter@@@2@@std@@YAPAUtagTextPiece@ioComplexStringPrinter@@V?$_Vector_const_iterator@V?$_Vector_val@UtagTextPiece@ioComplexStringPrinter@@V?$allocator@UtagTextPiece@ioComplexStringPrinter@@@std@@@std@@@0@0PAU12@AAV?$allocator@UtagTextPiece@ioComplexStringPrinter@@@0@U_Nonscalar_ptr_iterator_tag@0@@Z$2
__ehfuncinfo$??$_Uninit_copy@V?$_Vector_const_iterator@V?$_Vector_val@UtagTextPiece@ioComplexStringPrinter@@V?$allocator@UtagTextPiece@ioComplexStringPrinter@@@std@@@std@@@std@@PAUtagTextPiece@ioComplexStringPrinter@@V?$allocator@UtagTextPiece@ioComplexStringPrinter@@@2@@std@@YAPAUtagTextPiece@ioComplexStringPrinter@@V?$_Vector_const_iterator@V?$_Vector_val@UtagTextPiece@ioComplexStringPrinter@@V?$allocator@UtagTextPiece@ioComplexStringPrinter@@@std@@@std@@@0@0PAU12@AAV?$allocator@UtagTextPiece@ioComplexStringPrinter@@@0@U_Nonscalar_ptr_iterator_tag@0@@Z DD 019930522H
	DD	02H
	DD	FLAT:__unwindtable$??$_Uninit_copy@V?$_Vector_const_iterator@V?$_Vector_val@UtagTextPiece@ioComplexStringPrinter@@V?$allocator@UtagTextPiece@ioComplexStringPrinter@@@std@@@std@@@std@@PAUtagTextPiece@ioComplexStringPrinter@@V?$allocator@UtagTextPiece@ioComplexStringPrinter@@@2@@std@@YAPAUtagTextPiece@ioComplexStringPrinter@@V?$_Vector_const_iterator@V?$_Vector_val@UtagTextPiece@ioComplexStringPrinter@@V?$allocator@UtagTextPiece@ioComplexStringPrinter@@@std@@@std@@@0@0PAU12@AAV?$allocator@UtagTextPiece@ioComplexStringPrinter@@@0@U_Nonscalar_ptr_iterator_tag@0@@Z
	DD	01H
	DD	FLAT:__tryblocktable$??$_Uninit_copy@V?$_Vector_const_iterator@V?$_Vector_val@UtagTextPiece@ioComplexStringPrinter@@V?$allocator@UtagTextPiece@ioComplexStringPrinter@@@std@@@std@@@std@@PAUtagTextPiece@ioComplexStringPrinter@@V?$allocator@UtagTextPiece@ioComplexStringPrinter@@@2@@std@@YAPAUtagTextPiece@ioComplexStringPrinter@@V?$_Vector_const_iterator@V?$_Vector_val@UtagTextPiece@ioComplexStringPrinter@@V?$allocator@UtagTextPiece@ioComplexStringPrinter@@@std@@@std@@@0@0PAU12@AAV?$allocator@UtagTextPiece@ioComplexStringPrinter@@@0@U_Nonscalar_ptr_iterator_tag@0@@Z
	DD	2 DUP(00H)
	DD	00H
	DD	01H
; Function compile flags: /Ogsp
; File c:\program files (x86)\microsoft visual studio 10.0\vc\include\memory
xdata$x	ENDS
;	COMDAT ??$_Uninit_copy@V?$_Vector_const_iterator@V?$_Vector_val@UtagTextPiece@ioComplexStringPrinter@@V?$allocator@UtagTextPiece@ioComplexStringPrinter@@@std@@@std@@@std@@PAUtagTextPiece@ioComplexStringPrinter@@V?$allocator@UtagTextPiece@ioComplexStringPrinter@@@2@@std@@YAPAUtagTextPiece@ioComplexStringPrinter@@V?$_Vector_const_iterator@V?$_Vector_val@UtagTextPiece@ioComplexStringPrinter@@V?$allocator@UtagTextPiece@ioComplexStringPrinter@@@std@@@std@@@0@0PAU12@AAV?$allocator@UtagTextPiece@ioComplexStringPrinter@@@0@U_Nonscalar_ptr_iterator_tag@0@@Z
_TEXT	SEGMENT
__Next$ = -20						; size = 4
__$EHRec$ = -16						; size = 16
__First$ = 8						; size = 4
__Last$ = 12						; size = 4
__Dest$ = 16						; size = 4
__Al$ = 20						; size = 4
___formal$ = 24						; size = 1
??$_Uninit_copy@V?$_Vector_const_iterator@V?$_Vector_val@UtagTextPiece@ioComplexStringPrinter@@V?$allocator@UtagTextPiece@ioComplexStringPrinter@@@std@@@std@@@std@@PAUtagTextPiece@ioComplexStringPrinter@@V?$allocator@UtagTextPiece@ioComplexStringPrinter@@@2@@std@@YAPAUtagTextPiece@ioComplexStringPrinter@@V?$_Vector_const_iterator@V?$_Vector_val@UtagTextPiece@ioComplexStringPrinter@@V?$allocator@UtagTextPiece@ioComplexStringPrinter@@@std@@@std@@@0@0PAU12@AAV?$allocator@UtagTextPiece@ioComplexStringPrinter@@@0@U_Nonscalar_ptr_iterator_tag@0@@Z PROC ; std::_Uninit_copy<std::_Vector_const_iterator<std::_Vector_val<ioComplexStringPrinter::tagTextPiece,std::allocator<ioComplexStringPrinter::tagTextPiece> > >,ioComplexStringPrinter::tagTextPiece *,std::allocator<ioComplexStringPrinter::tagTextPiece> >, COMDAT

; 369  : 	{	// copy [_First, _Last) to raw _Dest, using _Al, arbitrary type

  00000	6a 08		 push	 8
  00002	b8 00 00 00 00	 mov	 eax, __ehhandler$??$_Uninit_copy@V?$_Vector_const_iterator@V?$_Vector_val@UtagTextPiece@ioComplexStringPrinter@@V?$allocator@UtagTextPiece@ioComplexStringPrinter@@@std@@@std@@@std@@PAUtagTextPiece@ioComplexStringPrinter@@V?$allocator@UtagTextPiece@ioComplexStringPrinter@@@2@@std@@YAPAUtagTextPiece@ioComplexStringPrinter@@V?$_Vector_const_iterator@V?$_Vector_val@UtagTextPiece@ioComplexStringPrinter@@V?$allocator@UtagTextPiece@ioComplexStringPrinter@@@std@@@std@@@0@0PAU12@AAV?$allocator@UtagTextPiece@ioComplexStringPrinter@@@0@U_Nonscalar_ptr_iterator_tag@0@@Z
  00007	e8 00 00 00 00	 call	 __EH_prolog3_catch

; 370  : 	_DEBUG_RANGE(_First, _Last);
; 371  : 	_DEBUG_POINTER(_Dest);
; 372  : 	_FwdIt _Next = _Dest;

  0000c	8b 45 10	 mov	 eax, DWORD PTR __Dest$[ebp]

; 373  : 
; 374  : 	_TRY_BEGIN

  0000f	83 65 fc 00	 and	 DWORD PTR __$EHRec$[ebp+12], 0
  00013	89 45 ec	 mov	 DWORD PTR __Next$[ebp], eax

; 375  : 	for (; _First != _Last; ++_Dest, ++_First)

$LL14@Uninit_cop:
  00016	8b 45 08	 mov	 eax, DWORD PTR __First$[ebp]
  00019	3b 45 0c	 cmp	 eax, DWORD PTR __Last$[ebp]
  0001c	74 32		 je	 SHORT $LN4@Uninit_cop

; 376  : 		_Cons_val(_Al, _Dest, *_First);

  0001e	50		 push	 eax
  0001f	ff 75 10	 push	 DWORD PTR __Dest$[ebp]
  00022	e8 00 00 00 00	 call	 ??$_Construct@UtagTextPiece@ioComplexStringPrinter@@ABU12@@std@@YAXPAUtagTextPiece@ioComplexStringPrinter@@ABU12@@Z ; std::_Construct<ioComplexStringPrinter::tagTextPiece,ioComplexStringPrinter::tagTextPiece const &>
  00027	83 45 10 34	 add	 DWORD PTR __Dest$[ebp], 52 ; 00000034H
  0002b	83 45 08 34	 add	 DWORD PTR __First$[ebp], 52 ; 00000034H
  0002f	59		 pop	 ecx
  00030	59		 pop	 ecx
  00031	eb e3		 jmp	 SHORT $LL14@Uninit_cop
__catch$??$_Uninit_copy@V?$_Vector_const_iterator@V?$_Vector_val@UtagTextPiece@ioComplexStringPrinter@@V?$allocator@UtagTextPiece@ioComplexStringPrinter@@@std@@@std@@@std@@PAUtagTextPiece@ioComplexStringPrinter@@V?$allocator@UtagTextPiece@ioComplexStringPrinter@@@2@@std@@YAPAUtagTextPiece@ioComplexStringPrinter@@V?$_Vector_const_iterator@V?$_Vector_val@UtagTextPiece@ioComplexStringPrinter@@V?$allocator@UtagTextPiece@ioComplexStringPrinter@@@std@@@std@@@0@0PAU12@AAV?$allocator@UtagTextPiece@ioComplexStringPrinter@@@0@U_Nonscalar_ptr_iterator_tag@0@@Z$0:

; 377  : 	_CATCH_ALL
; 378  : 	for (; _Next != _Dest; ++_Next)

  00033	8b 75 ec	 mov	 esi, DWORD PTR __Next$[ebp]
  00036	eb 0a		 jmp	 SHORT $LN43@Uninit_cop
$LL3@Uninit_cop:

; 379  : 		_Dest_val(_Al, _Next);

  00038	8b ce		 mov	 ecx, esi
  0003a	e8 00 00 00 00	 call	 ??_GtagTextPiece@ioComplexStringPrinter@@QAEPAXI@Z
  0003f	83 c6 34	 add	 esi, 52			; 00000034H
$LN43@Uninit_cop:

; 380  : 	_RERAISE;

  00042	6a 00		 push	 0
  00044	3b 75 10	 cmp	 esi, DWORD PTR __Dest$[ebp]
  00047	75 ef		 jne	 SHORT $LL3@Uninit_cop
  00049	6a 00		 push	 0
  0004b	e8 00 00 00 00	 call	 __CxxThrowException@8
$LN44@Uninit_cop:
$LN4@Uninit_cop:

; 381  : 	_CATCH_END
; 382  : 	return (_Dest);

  00050	8b 45 10	 mov	 eax, DWORD PTR __Dest$[ebp]

; 383  : 	}

  00053	e8 00 00 00 00	 call	 __EH_epilog3
  00058	c3		 ret	 0
$LN42@Uninit_cop:
_TEXT	ENDS
;	COMDAT text$x
text$x	SEGMENT
__ehhandler$??$_Uninit_copy@V?$_Vector_const_iterator@V?$_Vector_val@UtagTextPiece@ioComplexStringPrinter@@V?$allocator@UtagTextPiece@ioComplexStringPrinter@@@std@@@std@@@std@@PAUtagTextPiece@ioComplexStringPrinter@@V?$allocator@UtagTextPiece@ioComplexStringPrinter@@@2@@std@@YAPAUtagTextPiece@ioComplexStringPrinter@@V?$_Vector_const_iterator@V?$_Vector_val@UtagTextPiece@ioComplexStringPrinter@@V?$allocator@UtagTextPiece@ioComplexStringPrinter@@@std@@@std@@@0@0PAU12@AAV?$allocator@UtagTextPiece@ioComplexStringPrinter@@@0@U_Nonscalar_ptr_iterator_tag@0@@Z:
  00000	8b 54 24 08	 mov	 edx, DWORD PTR [esp+8]
  00004	8d 42 0c	 lea	 eax, DWORD PTR [edx+12]
  00007	8b 4a e8	 mov	 ecx, DWORD PTR [edx-24]
  0000a	33 c8		 xor	 ecx, eax
  0000c	e8 00 00 00 00	 call	 @__security_check_cookie@4
  00011	b8 00 00 00 00	 mov	 eax, OFFSET __ehfuncinfo$??$_Uninit_copy@V?$_Vector_const_iterator@V?$_Vector_val@UtagTextPiece@ioComplexStringPrinter@@V?$allocator@UtagTextPiece@ioComplexStringPrinter@@@std@@@std@@@std@@PAUtagTextPiece@ioComplexStringPrinter@@V?$allocator@UtagTextPiece@ioComplexStringPrinter@@@2@@std@@YAPAUtagTextPiece@ioComplexStringPrinter@@V?$_Vector_const_iterator@V?$_Vector_val@UtagTextPiece@ioComplexStringPrinter@@V?$allocator@UtagTextPiece@ioComplexStringPrinter@@@std@@@std@@@0@0PAU12@AAV?$allocator@UtagTextPiece@ioComplexStringPrinter@@@0@U_Nonscalar_ptr_iterator_tag@0@@Z
  00016	e9 00 00 00 00	 jmp	 ___CxxFrameHandler3
text$x	ENDS
??$_Uninit_copy@V?$_Vector_const_iterator@V?$_Vector_val@UtagTextPiece@ioComplexStringPrinter@@V?$allocator@UtagTextPiece@ioComplexStringPrinter@@@std@@@std@@@std@@PAUtagTextPiece@ioComplexStringPrinter@@V?$allocator@UtagTextPiece@ioComplexStringPrinter@@@2@@std@@YAPAUtagTextPiece@ioComplexStringPrinter@@V?$_Vector_const_iterator@V?$_Vector_val@UtagTextPiece@ioComplexStringPrinter@@V?$allocator@UtagTextPiece@ioComplexStringPrinter@@@std@@@std@@@0@0PAU12@AAV?$allocator@UtagTextPiece@ioComplexStringPrinter@@@0@U_Nonscalar_ptr_iterator_tag@0@@Z ENDP ; std::_Uninit_copy<std::_Vector_const_iterator<std::_Vector_val<ioComplexStringPrinter::tagTextPiece,std::allocator<ioComplexStringPrinter::tagTextPiece> > >,ioComplexStringPrinter::tagTextPiece *,std::allocator<ioComplexStringPrinter::tagTextPiece> >
PUBLIC	?_Destroy@?$vector@UtagTextPiece@ioComplexStringPrinter@@V?$allocator@UtagTextPiece@ioComplexStringPrinter@@@std@@@std@@IAEXPAUtagTextPiece@ioComplexStringPrinter@@0@Z ; std::vector<ioComplexStringPrinter::tagTextPiece,std::allocator<ioComplexStringPrinter::tagTextPiece> >::_Destroy
; Function compile flags: /Ogsp
; File c:\program files (x86)\microsoft visual studio 10.0\vc\include\vector
;	COMDAT ?_Destroy@?$vector@UtagTextPiece@ioComplexStringPrinter@@V?$allocator@UtagTextPiece@ioComplexStringPrinter@@@std@@@std@@IAEXPAUtagTextPiece@ioComplexStringPrinter@@0@Z
_TEXT	SEGMENT
__First$ = 8						; size = 4
__Last$ = 12						; size = 4
?_Destroy@?$vector@UtagTextPiece@ioComplexStringPrinter@@V?$allocator@UtagTextPiece@ioComplexStringPrinter@@@std@@@std@@IAEXPAUtagTextPiece@ioComplexStringPrinter@@0@Z PROC ; std::vector<ioComplexStringPrinter::tagTextPiece,std::allocator<ioComplexStringPrinter::tagTextPiece> >::_Destroy, COMDAT
; _this$ = ecx

; 1269 : 		{	// destroy [_First, _Last) using allocator

  00000	55		 push	 ebp
  00001	8b ec		 mov	 ebp, esp

; 1270 : 		_Destroy_range(_First, _Last, this->_Alval);

  00003	83 c1 0c	 add	 ecx, 12			; 0000000cH
  00006	51		 push	 ecx
  00007	ff 75 0c	 push	 DWORD PTR __Last$[ebp]
  0000a	ff 75 08	 push	 DWORD PTR __First$[ebp]
  0000d	e8 00 00 00 00	 call	 ??$_Destroy_range@V?$allocator@UtagTextPiece@ioComplexStringPrinter@@@std@@@std@@YAXPAUtagTextPiece@ioComplexStringPrinter@@0AAV?$allocator@UtagTextPiece@ioComplexStringPrinter@@@0@@Z ; std::_Destroy_range<std::allocator<ioComplexStringPrinter::tagTextPiece> >
  00012	83 c4 0c	 add	 esp, 12			; 0000000cH

; 1271 : 		}

  00015	5d		 pop	 ebp
  00016	c2 08 00	 ret	 8
?_Destroy@?$vector@UtagTextPiece@ioComplexStringPrinter@@V?$allocator@UtagTextPiece@ioComplexStringPrinter@@@std@@@std@@IAEXPAUtagTextPiece@ioComplexStringPrinter@@0@Z ENDP ; std::vector<ioComplexStringPrinter::tagTextPiece,std::allocator<ioComplexStringPrinter::tagTextPiece> >::_Destroy
_TEXT	ENDS
PUBLIC	??$_Uninitialized_copy@V?$_Vector_const_iterator@V?$_Vector_val@UtagTextPiece@ioComplexStringPrinter@@V?$allocator@UtagTextPiece@ioComplexStringPrinter@@@std@@@std@@@std@@PAUtagTextPiece@ioComplexStringPrinter@@V?$allocator@UtagTextPiece@ioComplexStringPrinter@@@2@@std@@YAPAUtagTextPiece@ioComplexStringPrinter@@V?$_Vector_const_iterator@V?$_Vector_val@UtagTextPiece@ioComplexStringPrinter@@V?$allocator@UtagTextPiece@ioComplexStringPrinter@@@std@@@std@@@0@0PAU12@AAV?$allocator@UtagTextPiece@ioComplexStringPrinter@@@0@@Z ; std::_Uninitialized_copy<std::_Vector_const_iterator<std::_Vector_val<ioComplexStringPrinter::tagTextPiece,std::allocator<ioComplexStringPrinter::tagTextPiece> > >,ioComplexStringPrinter::tagTextPiece *,std::allocator<ioComplexStringPrinter::tagTextPiece> >
; Function compile flags: /Ogsp
; File c:\program files (x86)\microsoft visual studio 10.0\vc\include\memory
;	COMDAT ??$_Uninitialized_copy@V?$_Vector_const_iterator@V?$_Vector_val@UtagTextPiece@ioComplexStringPrinter@@V?$allocator@UtagTextPiece@ioComplexStringPrinter@@@std@@@std@@@std@@PAUtagTextPiece@ioComplexStringPrinter@@V?$allocator@UtagTextPiece@ioComplexStringPrinter@@@2@@std@@YAPAUtagTextPiece@ioComplexStringPrinter@@V?$_Vector_const_iterator@V?$_Vector_val@UtagTextPiece@ioComplexStringPrinter@@V?$allocator@UtagTextPiece@ioComplexStringPrinter@@@std@@@std@@@0@0PAU12@AAV?$allocator@UtagTextPiece@ioComplexStringPrinter@@@0@@Z
_TEXT	SEGMENT
__Cat$540754 = -4					; size = 1
__First$ = 8						; size = 4
__Last$ = 12						; size = 4
__Dest$ = 16						; size = 4
__Al$ = 20						; size = 4
??$_Uninitialized_copy@V?$_Vector_const_iterator@V?$_Vector_val@UtagTextPiece@ioComplexStringPrinter@@V?$allocator@UtagTextPiece@ioComplexStringPrinter@@@std@@@std@@@std@@PAUtagTextPiece@ioComplexStringPrinter@@V?$allocator@UtagTextPiece@ioComplexStringPrinter@@@2@@std@@YAPAUtagTextPiece@ioComplexStringPrinter@@V?$_Vector_const_iterator@V?$_Vector_val@UtagTextPiece@ioComplexStringPrinter@@V?$allocator@UtagTextPiece@ioComplexStringPrinter@@@std@@@std@@@0@0PAU12@AAV?$allocator@UtagTextPiece@ioComplexStringPrinter@@@0@@Z PROC ; std::_Uninitialized_copy<std::_Vector_const_iterator<std::_Vector_val<ioComplexStringPrinter::tagTextPiece,std::allocator<ioComplexStringPrinter::tagTextPiece> > >,ioComplexStringPrinter::tagTextPiece *,std::allocator<ioComplexStringPrinter::tagTextPiece> >, COMDAT

; 412  : 	{	// copy [_First, _Last) to raw _Dest, using _Al

  00000	55		 push	 ebp
  00001	8b ec		 mov	 ebp, esp
  00003	51		 push	 ecx

; 413  : 	return (_Uninit_copy(_First, _Last, _Dest, _Al,
; 414  : 		_Ptr_cat(_First, _Dest)));

  00004	ff 75 fc	 push	 DWORD PTR __Cat$540754[ebp]
  00007	ff 75 14	 push	 DWORD PTR __Al$[ebp]
  0000a	ff 75 10	 push	 DWORD PTR __Dest$[ebp]
  0000d	ff 75 0c	 push	 DWORD PTR __Last$[ebp]
  00010	ff 75 08	 push	 DWORD PTR __First$[ebp]
  00013	e8 00 00 00 00	 call	 ??$_Uninit_copy@V?$_Vector_const_iterator@V?$_Vector_val@UtagTextPiece@ioComplexStringPrinter@@V?$allocator@UtagTextPiece@ioComplexStringPrinter@@@std@@@std@@@std@@PAUtagTextPiece@ioComplexStringPrinter@@V?$allocator@UtagTextPiece@ioComplexStringPrinter@@@2@@std@@YAPAUtagTextPiece@ioComplexStringPrinter@@V?$_Vector_const_iterator@V?$_Vector_val@UtagTextPiece@ioComplexStringPrinter@@V?$allocator@UtagTextPiece@ioComplexStringPrinter@@@std@@@std@@@0@0PAU12@AAV?$allocator@UtagTextPiece@ioComplexStringPrinter@@@0@U_Nonscalar_ptr_iterator_tag@0@@Z ; std::_Uninit_copy<std::_Vector_const_iterator<std::_Vector_val<ioComplexStringPrinter::tagTextPiece,std::allocator<ioComplexStringPrinter::tagTextPiece> > >,ioComplexStringPrinter::tagTextPiece *,std::allocator<ioComplexStringPrinter::tagTextPiece> >
  00018	83 c4 14	 add	 esp, 20			; 00000014H

; 415  : 	}

  0001b	c9		 leave
  0001c	c3		 ret	 0
??$_Uninitialized_copy@V?$_Vector_const_iterator@V?$_Vector_val@UtagTextPiece@ioComplexStringPrinter@@V?$allocator@UtagTextPiece@ioComplexStringPrinter@@@std@@@std@@@std@@PAUtagTextPiece@ioComplexStringPrinter@@V?$allocator@UtagTextPiece@ioComplexStringPrinter@@@2@@std@@YAPAUtagTextPiece@ioComplexStringPrinter@@V?$_Vector_const_iterator@V?$_Vector_val@UtagTextPiece@ioComplexStringPrinter@@V?$allocator@UtagTextPiece@ioComplexStringPrinter@@@std@@@std@@@0@0PAU12@AAV?$allocator@UtagTextPiece@ioComplexStringPrinter@@@0@@Z ENDP ; std::_Uninitialized_copy<std::_Vector_const_iterator<std::_Vector_val<ioComplexStringPrinter::tagTextPiece,std::allocator<ioComplexStringPrinter::tagTextPiece> > >,ioComplexStringPrinter::tagTextPiece *,std::allocator<ioComplexStringPrinter::tagTextPiece> >
_TEXT	ENDS
PUBLIC	?_Tidy@?$vector@UtagTextPiece@ioComplexStringPrinter@@V?$allocator@UtagTextPiece@ioComplexStringPrinter@@@std@@@std@@IAEXXZ ; std::vector<ioComplexStringPrinter::tagTextPiece,std::allocator<ioComplexStringPrinter::tagTextPiece> >::_Tidy
; Function compile flags: /Ogsp
; File c:\program files (x86)\microsoft visual studio 10.0\vc\include\vector
;	COMDAT ?_Tidy@?$vector@UtagTextPiece@ioComplexStringPrinter@@V?$allocator@UtagTextPiece@ioComplexStringPrinter@@@std@@@std@@IAEXXZ
_TEXT	SEGMENT
?_Tidy@?$vector@UtagTextPiece@ioComplexStringPrinter@@V?$allocator@UtagTextPiece@ioComplexStringPrinter@@@std@@@std@@IAEXXZ PROC ; std::vector<ioComplexStringPrinter::tagTextPiece,std::allocator<ioComplexStringPrinter::tagTextPiece> >::_Tidy, COMDAT
; _this$ = ecx

; 1301 : 		{	// free all storage

  00000	56		 push	 esi
  00001	8b f1		 mov	 esi, ecx

; 1302 : 		if (this->_Myfirst != 0)

  00003	83 3e 00	 cmp	 DWORD PTR [esi], 0
  00006	74 1e		 je	 SHORT $LN6@Tidy@3

; 1303 : 			{	// something to free, destroy and deallocate it
; 1304 : 			this->_Orphan_all();

  00008	ff 15 00 00 00
	00		 call	 DWORD PTR __imp_?_Orphan_all@_Container_base0@std@@QAEXXZ

; 1305 : 			_Destroy(this->_Myfirst, this->_Mylast);

  0000e	8d 46 0c	 lea	 eax, DWORD PTR [esi+12]
  00011	50		 push	 eax
  00012	ff 76 04	 push	 DWORD PTR [esi+4]
  00015	ff 36		 push	 DWORD PTR [esi]
  00017	e8 00 00 00 00	 call	 ??$_Destroy_range@V?$allocator@UtagTextPiece@ioComplexStringPrinter@@@std@@@std@@YAXPAUtagTextPiece@ioComplexStringPrinter@@0AAV?$allocator@UtagTextPiece@ioComplexStringPrinter@@@0@@Z ; std::_Destroy_range<std::allocator<ioComplexStringPrinter::tagTextPiece> >

; 1306 : 			this->_Alval.deallocate(this->_Myfirst,
; 1307 : 				this->_Myend - this->_Myfirst);

  0001c	ff 36		 push	 DWORD PTR [esi]
  0001e	e8 00 00 00 00	 call	 ??3@YAXPAX@Z		; operator delete
  00023	83 c4 10	 add	 esp, 16			; 00000010H
$LN6@Tidy@3:

; 1308 : 			}
; 1309 : 		this->_Myfirst = 0;

  00026	83 26 00	 and	 DWORD PTR [esi], 0

; 1310 : 		this->_Mylast = 0;

  00029	83 66 04 00	 and	 DWORD PTR [esi+4], 0

; 1311 : 		this->_Myend = 0;

  0002d	83 66 08 00	 and	 DWORD PTR [esi+8], 0
  00031	5e		 pop	 esi

; 1312 : 		}

  00032	c3		 ret	 0
?_Tidy@?$vector@UtagTextPiece@ioComplexStringPrinter@@V?$allocator@UtagTextPiece@ioComplexStringPrinter@@@std@@@std@@IAEXXZ ENDP ; std::vector<ioComplexStringPrinter::tagTextPiece,std::allocator<ioComplexStringPrinter::tagTextPiece> >::_Tidy
_TEXT	ENDS
PUBLIC	??$_Ucopy@V?$_Vector_const_iterator@V?$_Vector_val@UtagTextPiece@ioComplexStringPrinter@@V?$allocator@UtagTextPiece@ioComplexStringPrinter@@@std@@@std@@@std@@@?$vector@UtagTextPiece@ioComplexStringPrinter@@V?$allocator@UtagTextPiece@ioComplexStringPrinter@@@std@@@std@@IAEPAUtagTextPiece@ioComplexStringPrinter@@V?$_Vector_const_iterator@V?$_Vector_val@UtagTextPiece@ioComplexStringPrinter@@V?$allocator@UtagTextPiece@ioComplexStringPrinter@@@std@@@std@@@1@0PAU23@@Z ; std::vector<ioComplexStringPrinter::tagTextPiece,std::allocator<ioComplexStringPrinter::tagTextPiece> >::_Ucopy<std::_Vector_const_iterator<std::_Vector_val<ioComplexStringPrinter::tagTextPiece,std::allocator<ioComplexStringPrinter::tagTextPiece> > > >
; Function compile flags: /Ogsp
;	COMDAT ??$_Ucopy@V?$_Vector_const_iterator@V?$_Vector_val@UtagTextPiece@ioComplexStringPrinter@@V?$allocator@UtagTextPiece@ioComplexStringPrinter@@@std@@@std@@@std@@@?$vector@UtagTextPiece@ioComplexStringPrinter@@V?$allocator@UtagTextPiece@ioComplexStringPrinter@@@std@@@std@@IAEPAUtagTextPiece@ioComplexStringPrinter@@V?$_Vector_const_iterator@V?$_Vector_val@UtagTextPiece@ioComplexStringPrinter@@V?$allocator@UtagTextPiece@ioComplexStringPrinter@@@std@@@std@@@1@0PAU23@@Z
_TEXT	SEGMENT
__First$ = 8						; size = 4
__Last$ = 12						; size = 4
__Cat$540780 = 16					; size = 1
__Ptr$ = 16						; size = 4
??$_Ucopy@V?$_Vector_const_iterator@V?$_Vector_val@UtagTextPiece@ioComplexStringPrinter@@V?$allocator@UtagTextPiece@ioComplexStringPrinter@@@std@@@std@@@std@@@?$vector@UtagTextPiece@ioComplexStringPrinter@@V?$allocator@UtagTextPiece@ioComplexStringPrinter@@@std@@@std@@IAEPAUtagTextPiece@ioComplexStringPrinter@@V?$_Vector_const_iterator@V?$_Vector_val@UtagTextPiece@ioComplexStringPrinter@@V?$allocator@UtagTextPiece@ioComplexStringPrinter@@@std@@@std@@@1@0PAU23@@Z PROC ; std::vector<ioComplexStringPrinter::tagTextPiece,std::allocator<ioComplexStringPrinter::tagTextPiece> >::_Ucopy<std::_Vector_const_iterator<std::_Vector_val<ioComplexStringPrinter::tagTextPiece,std::allocator<ioComplexStringPrinter::tagTextPiece> > > >, COMDAT
; _this$ = ecx

; 1315 : 		pointer _Ucopy(_Iter _First, _Iter _Last, pointer _Ptr)

  00000	55		 push	 ebp
  00001	8b ec		 mov	 ebp, esp

; 1316 : 		{	// copy initializing [_First, _Last), using allocator
; 1317 : 		return (_Uninitialized_copy(_First, _Last,
; 1318 : 			_Ptr, this->_Alval));

  00003	ff 75 10	 push	 DWORD PTR __Cat$540780[ebp]
  00006	83 c1 0c	 add	 ecx, 12			; 0000000cH
  00009	51		 push	 ecx
  0000a	ff 75 10	 push	 DWORD PTR __Ptr$[ebp]
  0000d	ff 75 0c	 push	 DWORD PTR __Last$[ebp]
  00010	ff 75 08	 push	 DWORD PTR __First$[ebp]
  00013	e8 00 00 00 00	 call	 ??$_Uninit_copy@V?$_Vector_const_iterator@V?$_Vector_val@UtagTextPiece@ioComplexStringPrinter@@V?$allocator@UtagTextPiece@ioComplexStringPrinter@@@std@@@std@@@std@@PAUtagTextPiece@ioComplexStringPrinter@@V?$allocator@UtagTextPiece@ioComplexStringPrinter@@@2@@std@@YAPAUtagTextPiece@ioComplexStringPrinter@@V?$_Vector_const_iterator@V?$_Vector_val@UtagTextPiece@ioComplexStringPrinter@@V?$allocator@UtagTextPiece@ioComplexStringPrinter@@@std@@@std@@@0@0PAU12@AAV?$allocator@UtagTextPiece@ioComplexStringPrinter@@@0@U_Nonscalar_ptr_iterator_tag@0@@Z ; std::_Uninit_copy<std::_Vector_const_iterator<std::_Vector_val<ioComplexStringPrinter::tagTextPiece,std::allocator<ioComplexStringPrinter::tagTextPiece> > >,ioComplexStringPrinter::tagTextPiece *,std::allocator<ioComplexStringPrinter::tagTextPiece> >
  00018	83 c4 14	 add	 esp, 20			; 00000014H

; 1319 : 		}

  0001b	5d		 pop	 ebp
  0001c	c2 0c 00	 ret	 12			; 0000000cH
??$_Ucopy@V?$_Vector_const_iterator@V?$_Vector_val@UtagTextPiece@ioComplexStringPrinter@@V?$allocator@UtagTextPiece@ioComplexStringPrinter@@@std@@@std@@@std@@@?$vector@UtagTextPiece@ioComplexStringPrinter@@V?$allocator@UtagTextPiece@ioComplexStringPrinter@@@std@@@std@@IAEPAUtagTextPiece@ioComplexStringPrinter@@V?$_Vector_const_iterator@V?$_Vector_val@UtagTextPiece@ioComplexStringPrinter@@V?$allocator@UtagTextPiece@ioComplexStringPrinter@@@std@@@std@@@1@0PAU23@@Z ENDP ; std::vector<ioComplexStringPrinter::tagTextPiece,std::allocator<ioComplexStringPrinter::tagTextPiece> >::_Ucopy<std::_Vector_const_iterator<std::_Vector_val<ioComplexStringPrinter::tagTextPiece,std::allocator<ioComplexStringPrinter::tagTextPiece> > > >
_TEXT	ENDS
PUBLIC	??0?$vector@UtagTextPiece@ioComplexStringPrinter@@V?$allocator@UtagTextPiece@ioComplexStringPrinter@@@std@@@std@@QAE@ABV01@@Z ; std::vector<ioComplexStringPrinter::tagTextPiece,std::allocator<ioComplexStringPrinter::tagTextPiece> >::vector<ioComplexStringPrinter::tagTextPiece,std::allocator<ioComplexStringPrinter::tagTextPiece> >
;	COMDAT xdata$x
; File c:\program files (x86)\microsoft visual studio 10.0\vc\include\xutility
xdata$x	SEGMENT
__catchsym$??0?$vector@UtagTextPiece@ioComplexStringPrinter@@V?$allocator@UtagTextPiece@ioComplexStringPrinter@@@std@@@std@@QAE@ABV01@@Z$2 DD 040H
	DD	00H
	DD	00H
	DD	FLAT:__catch$??0?$vector@UtagTextPiece@ioComplexStringPrinter@@V?$allocator@UtagTextPiece@ioComplexStringPrinter@@@std@@@std@@QAE@ABV01@@Z$0
__unwindtable$??0?$vector@UtagTextPiece@ioComplexStringPrinter@@V?$allocator@UtagTextPiece@ioComplexStringPrinter@@@std@@@std@@QAE@ABV01@@Z DD 0ffffffffH
	DD	00H
	DD	0ffffffffH
	DD	00H
__tryblocktable$??0?$vector@UtagTextPiece@ioComplexStringPrinter@@V?$allocator@UtagTextPiece@ioComplexStringPrinter@@@std@@@std@@QAE@ABV01@@Z DD 00H
	DD	00H
	DD	01H
	DD	01H
	DD	FLAT:__catchsym$??0?$vector@UtagTextPiece@ioComplexStringPrinter@@V?$allocator@UtagTextPiece@ioComplexStringPrinter@@@std@@@std@@QAE@ABV01@@Z$2
__ehfuncinfo$??0?$vector@UtagTextPiece@ioComplexStringPrinter@@V?$allocator@UtagTextPiece@ioComplexStringPrinter@@@std@@@std@@QAE@ABV01@@Z DD 019930522H
	DD	02H
	DD	FLAT:__unwindtable$??0?$vector@UtagTextPiece@ioComplexStringPrinter@@V?$allocator@UtagTextPiece@ioComplexStringPrinter@@@std@@@std@@QAE@ABV01@@Z
	DD	01H
	DD	FLAT:__tryblocktable$??0?$vector@UtagTextPiece@ioComplexStringPrinter@@V?$allocator@UtagTextPiece@ioComplexStringPrinter@@@std@@@std@@QAE@ABV01@@Z
	DD	2 DUP(00H)
	DD	00H
	DD	01H
; Function compile flags: /Ogsp
; File c:\program files (x86)\microsoft visual studio 10.0\vc\include\vector
xdata$x	ENDS
;	COMDAT ??0?$vector@UtagTextPiece@ioComplexStringPrinter@@V?$allocator@UtagTextPiece@ioComplexStringPrinter@@@std@@@std@@QAE@ABV01@@Z
_TEXT	SEGMENT
_this$ = -20						; size = 4
__$EHRec$ = -16						; size = 16
__Cat$540862 = 8					; size = 1
__Right$ = 8						; size = 4
??0?$vector@UtagTextPiece@ioComplexStringPrinter@@V?$allocator@UtagTextPiece@ioComplexStringPrinter@@@std@@@std@@QAE@ABV01@@Z PROC ; std::vector<ioComplexStringPrinter::tagTextPiece,std::allocator<ioComplexStringPrinter::tagTextPiece> >::vector<ioComplexStringPrinter::tagTextPiece,std::allocator<ioComplexStringPrinter::tagTextPiece> >, COMDAT
; _this$ = ecx

; 535  : 		{	// construct by copying _Right

  00000	6a 08		 push	 8
  00002	b8 00 00 00 00	 mov	 eax, __ehhandler$??0?$vector@UtagTextPiece@ioComplexStringPrinter@@V?$allocator@UtagTextPiece@ioComplexStringPrinter@@@std@@@std@@QAE@ABV01@@Z
  00007	e8 00 00 00 00	 call	 __EH_prolog3_catch
  0000c	8b f1		 mov	 esi, ecx
  0000e	89 75 ec	 mov	 DWORD PTR _this$[ebp], esi

; 536  : 		if (_Buy(_Right.size()))

  00011	8b 7d 08	 mov	 edi, DWORD PTR __Right$[ebp]
  00014	33 db		 xor	 ebx, ebx
  00016	89 1e		 mov	 DWORD PTR [esi], ebx
  00018	89 5e 04	 mov	 DWORD PTR [esi+4], ebx
  0001b	89 5e 08	 mov	 DWORD PTR [esi+8], ebx
  0001e	8b 47 04	 mov	 eax, DWORD PTR [edi+4]
  00021	2b 07		 sub	 eax, DWORD PTR [edi]
  00023	6a 34		 push	 52			; 00000034H
  00025	59		 pop	 ecx
  00026	99		 cdq
  00027	f7 f9		 idiv	 ecx
  00029	8b ce		 mov	 ecx, esi
  0002b	50		 push	 eax
  0002c	e8 00 00 00 00	 call	 ?_Buy@?$vector@UtagTextPiece@ioComplexStringPrinter@@V?$allocator@UtagTextPiece@ioComplexStringPrinter@@@std@@@std@@IAE_NI@Z ; std::vector<ioComplexStringPrinter::tagTextPiece,std::allocator<ioComplexStringPrinter::tagTextPiece> >::_Buy
  00031	84 c0		 test	 al, al
  00033	74 1f		 je	 SHORT $LN7@vector

; 537  : 			_TRY_BEGIN
; 538  : 			this->_Mylast = _Ucopy(_Right.begin(), _Right.end(),
; 539  : 				this->_Myfirst);

  00035	ff 75 08	 push	 DWORD PTR __Cat$540862[ebp]
  00038	8b 0e		 mov	 ecx, DWORD PTR [esi]
  0003a	8b 47 04	 mov	 eax, DWORD PTR [edi+4]
  0003d	8b 3f		 mov	 edi, DWORD PTR [edi]
  0003f	8d 56 0c	 lea	 edx, DWORD PTR [esi+12]
  00042	52		 push	 edx
  00043	51		 push	 ecx
  00044	50		 push	 eax
  00045	57		 push	 edi
  00046	89 5d fc	 mov	 DWORD PTR __$EHRec$[ebp+12], ebx
  00049	e8 00 00 00 00	 call	 ??$_Uninit_copy@V?$_Vector_const_iterator@V?$_Vector_val@UtagTextPiece@ioComplexStringPrinter@@V?$allocator@UtagTextPiece@ioComplexStringPrinter@@@std@@@std@@@std@@PAUtagTextPiece@ioComplexStringPrinter@@V?$allocator@UtagTextPiece@ioComplexStringPrinter@@@2@@std@@YAPAUtagTextPiece@ioComplexStringPrinter@@V?$_Vector_const_iterator@V?$_Vector_val@UtagTextPiece@ioComplexStringPrinter@@V?$allocator@UtagTextPiece@ioComplexStringPrinter@@@std@@@std@@@0@0PAU12@AAV?$allocator@UtagTextPiece@ioComplexStringPrinter@@@0@U_Nonscalar_ptr_iterator_tag@0@@Z ; std::_Uninit_copy<std::_Vector_const_iterator<std::_Vector_val<ioComplexStringPrinter::tagTextPiece,std::allocator<ioComplexStringPrinter::tagTextPiece> > >,ioComplexStringPrinter::tagTextPiece *,std::allocator<ioComplexStringPrinter::tagTextPiece> >
  0004e	83 c4 14	 add	 esp, 20			; 00000014H
  00051	89 46 04	 mov	 DWORD PTR [esi+4], eax
$LN7@vector:

; 543  : 			_CATCH_END
; 544  : 		}

  00054	8b c6		 mov	 eax, esi
  00056	e8 00 00 00 00	 call	 __EH_epilog3
  0005b	c2 04 00	 ret	 4
__catch$??0?$vector@UtagTextPiece@ioComplexStringPrinter@@V?$allocator@UtagTextPiece@ioComplexStringPrinter@@@std@@@std@@QAE@ABV01@@Z$0:

; 540  : 			_CATCH_ALL
; 541  : 			_Tidy();

  0005e	8b 4d ec	 mov	 ecx, DWORD PTR _this$[ebp]
  00061	e8 00 00 00 00	 call	 ?_Tidy@?$vector@UtagTextPiece@ioComplexStringPrinter@@V?$allocator@UtagTextPiece@ioComplexStringPrinter@@@std@@@std@@IAEXXZ ; std::vector<ioComplexStringPrinter::tagTextPiece,std::allocator<ioComplexStringPrinter::tagTextPiece> >::_Tidy

; 542  : 			_RERAISE;

  00066	33 db		 xor	 ebx, ebx
  00068	53		 push	 ebx
  00069	53		 push	 ebx
  0006a	e8 00 00 00 00	 call	 __CxxThrowException@8
$LN38@vector:
$LN37@vector:
  0006f	cc		 int	 3
_TEXT	ENDS
;	COMDAT text$x
text$x	SEGMENT
__ehhandler$??0?$vector@UtagTextPiece@ioComplexStringPrinter@@V?$allocator@UtagTextPiece@ioComplexStringPrinter@@@std@@@std@@QAE@ABV01@@Z:
  00000	8b 54 24 08	 mov	 edx, DWORD PTR [esp+8]
  00004	8d 42 0c	 lea	 eax, DWORD PTR [edx+12]
  00007	8b 4a e8	 mov	 ecx, DWORD PTR [edx-24]
  0000a	33 c8		 xor	 ecx, eax
  0000c	e8 00 00 00 00	 call	 @__security_check_cookie@4
  00011	b8 00 00 00 00	 mov	 eax, OFFSET __ehfuncinfo$??0?$vector@UtagTextPiece@ioComplexStringPrinter@@V?$allocator@UtagTextPiece@ioComplexStringPrinter@@@std@@@std@@QAE@ABV01@@Z
  00016	e9 00 00 00 00	 jmp	 ___CxxFrameHandler3
text$x	ENDS
??0?$vector@UtagTextPiece@ioComplexStringPrinter@@V?$allocator@UtagTextPiece@ioComplexStringPrinter@@@std@@@std@@QAE@ABV01@@Z ENDP ; std::vector<ioComplexStringPrinter::tagTextPiece,std::allocator<ioComplexStringPrinter::tagTextPiece> >::vector<ioComplexStringPrinter::tagTextPiece,std::allocator<ioComplexStringPrinter::tagTextPiece> >
PUBLIC	??1?$vector@UtagTextPiece@ioComplexStringPrinter@@V?$allocator@UtagTextPiece@ioComplexStringPrinter@@@std@@@std@@QAE@XZ ; std::vector<ioComplexStringPrinter::tagTextPiece,std::allocator<ioComplexStringPrinter::tagTextPiece> >::~vector<ioComplexStringPrinter::tagTextPiece,std::allocator<ioComplexStringPrinter::tagTextPiece> >
; Function compile flags: /Ogsp
;	COMDAT ??1?$vector@UtagTextPiece@ioComplexStringPrinter@@V?$allocator@UtagTextPiece@ioComplexStringPrinter@@@std@@@std@@QAE@XZ
_TEXT	SEGMENT
??1?$vector@UtagTextPiece@ioComplexStringPrinter@@V?$allocator@UtagTextPiece@ioComplexStringPrinter@@@std@@@std@@QAE@XZ PROC ; std::vector<ioComplexStringPrinter::tagTextPiece,std::allocator<ioComplexStringPrinter::tagTextPiece> >::~vector<ioComplexStringPrinter::tagTextPiece,std::allocator<ioComplexStringPrinter::tagTextPiece> >, COMDAT
; _this$ = ecx

; 705  : 		_Tidy();

  00000	e9 00 00 00 00	 jmp	 ?_Tidy@?$vector@UtagTextPiece@ioComplexStringPrinter@@V?$allocator@UtagTextPiece@ioComplexStringPrinter@@@std@@@std@@IAEXXZ ; std::vector<ioComplexStringPrinter::tagTextPiece,std::allocator<ioComplexStringPrinter::tagTextPiece> >::_Tidy
??1?$vector@UtagTextPiece@ioComplexStringPrinter@@V?$allocator@UtagTextPiece@ioComplexStringPrinter@@@std@@@std@@QAE@XZ ENDP ; std::vector<ioComplexStringPrinter::tagTextPiece,std::allocator<ioComplexStringPrinter::tagTextPiece> >::~vector<ioComplexStringPrinter::tagTextPiece,std::allocator<ioComplexStringPrinter::tagTextPiece> >
_TEXT	ENDS
PUBLIC	??0ioComplexStringPrinter@@QAE@ABV0@@Z		; ioComplexStringPrinter::ioComplexStringPrinter
; Function compile flags: /Ogsp
;	COMDAT ??0ioComplexStringPrinter@@QAE@ABV0@@Z
_TEXT	SEGMENT
___that$ = 8						; size = 4
??0ioComplexStringPrinter@@QAE@ABV0@@Z PROC		; ioComplexStringPrinter::ioComplexStringPrinter, COMDAT
; _this$ = ecx
  00000	55		 push	 ebp
  00001	8b ec		 mov	 ebp, esp
  00003	56		 push	 esi
  00004	57		 push	 edi
  00005	8b 7d 08	 mov	 edi, DWORD PTR ___that$[ebp]
  00008	8b 07		 mov	 eax, DWORD PTR [edi]
  0000a	8b f1		 mov	 esi, ecx
  0000c	89 06		 mov	 DWORD PTR [esi], eax
  0000e	8b 47 04	 mov	 eax, DWORD PTR [edi+4]
  00011	89 46 04	 mov	 DWORD PTR [esi+4], eax
  00014	8b 47 08	 mov	 eax, DWORD PTR [edi+8]
  00017	89 46 08	 mov	 DWORD PTR [esi+8], eax
  0001a	8d 47 0c	 lea	 eax, DWORD PTR [edi+12]
  0001d	50		 push	 eax
  0001e	8d 4e 0c	 lea	 ecx, DWORD PTR [esi+12]
  00021	e8 00 00 00 00	 call	 ??0?$vector@UtagTextPiece@ioComplexStringPrinter@@V?$allocator@UtagTextPiece@ioComplexStringPrinter@@@std@@@std@@QAE@ABV01@@Z ; std::vector<ioComplexStringPrinter::tagTextPiece,std::allocator<ioComplexStringPrinter::tagTextPiece> >::vector<ioComplexStringPrinter::tagTextPiece,std::allocator<ioComplexStringPrinter::tagTextPiece> >
  00026	d9 47 1c	 fld	 DWORD PTR [edi+28]
  00029	5f		 pop	 edi
  0002a	d9 5e 1c	 fstp	 DWORD PTR [esi+28]
  0002d	8b c6		 mov	 eax, esi
  0002f	5e		 pop	 esi
  00030	5d		 pop	 ebp
  00031	c2 04 00	 ret	 4
??0ioComplexStringPrinter@@QAE@ABV0@@Z ENDP		; ioComplexStringPrinter::ioComplexStringPrinter
_TEXT	ENDS
PUBLIC	?construct@?$allocator@VioComplexStringPrinter@@@std@@QAEXPAVioComplexStringPrinter@@$$QAV3@@Z ; std::allocator<ioComplexStringPrinter>::construct
;	COMDAT xdata$x
; File c:\program files (x86)\microsoft visual studio 10.0\vc\include\utility
xdata$x	SEGMENT
__unwindtable$?construct@?$allocator@VioComplexStringPrinter@@@std@@QAEXPAVioComplexStringPrinter@@$$QAV3@@Z DD 0ffffffffH
	DD	FLAT:__unwindfunclet$?construct@?$allocator@VioComplexStringPrinter@@@std@@QAEXPAVioComplexStringPrinter@@$$QAV3@@Z$0
__ehfuncinfo$?construct@?$allocator@VioComplexStringPrinter@@@std@@QAEXPAVioComplexStringPrinter@@$$QAV3@@Z DD 019930522H
	DD	01H
	DD	FLAT:__unwindtable$?construct@?$allocator@VioComplexStringPrinter@@@std@@QAEXPAVioComplexStringPrinter@@$$QAV3@@Z
	DD	2 DUP(00H)
	DD	2 DUP(00H)
	DD	00H
	DD	01H
; Function compile flags: /Ogsp
; File c:\program files (x86)\microsoft visual studio 10.0\vc\include\xmemory
xdata$x	ENDS
;	COMDAT ?construct@?$allocator@VioComplexStringPrinter@@@std@@QAEXPAVioComplexStringPrinter@@$$QAV3@@Z
_TEXT	SEGMENT
$T540892 = -16						; size = 4
__$EHRec$ = -12						; size = 12
__Ptr$ = 8						; size = 4
__Val$ = 12						; size = 4
?construct@?$allocator@VioComplexStringPrinter@@@std@@QAEXPAVioComplexStringPrinter@@$$QAV3@@Z PROC ; std::allocator<ioComplexStringPrinter>::construct, COMDAT
; _this$ = ecx

; 201  : 		{	// construct object at _Ptr with value _Val

  00000	6a 04		 push	 4
  00002	b8 00 00 00 00	 mov	 eax, __ehhandler$?construct@?$allocator@VioComplexStringPrinter@@@std@@QAEXPAVioComplexStringPrinter@@$$QAV3@@Z
  00007	e8 00 00 00 00	 call	 __EH_prolog3

; 202  : 		::new ((void _FARQ *)_Ptr) _Ty(_STD forward<_Ty>(_Val));

  0000c	8b 4d 08	 mov	 ecx, DWORD PTR __Ptr$[ebp]
  0000f	89 4d f0	 mov	 DWORD PTR $T540892[ebp], ecx
  00012	83 65 fc 00	 and	 DWORD PTR __$EHRec$[ebp+8], 0
  00016	85 c9		 test	 ecx, ecx
  00018	74 08		 je	 SHORT $LN3@construct
  0001a	ff 75 0c	 push	 DWORD PTR __Val$[ebp]
  0001d	e8 00 00 00 00	 call	 ??0ioComplexStringPrinter@@QAE@ABV0@@Z
$LN3@construct:

; 203  : 		}

  00022	e8 00 00 00 00	 call	 __EH_epilog3
  00027	c2 08 00	 ret	 8
_TEXT	ENDS
;	COMDAT text$x
text$x	SEGMENT
__unwindfunclet$?construct@?$allocator@VioComplexStringPrinter@@@std@@QAEXPAVioComplexStringPrinter@@$$QAV3@@Z$0:
  00000	ff 75 08	 push	 DWORD PTR __Ptr$[ebp]
  00003	ff 75 f0	 push	 DWORD PTR $T540892[ebp]
  00006	e8 00 00 00 00	 call	 ??3@YAXPAX0@Z		; operator delete
  0000b	59		 pop	 ecx
  0000c	59		 pop	 ecx
  0000d	c3		 ret	 0
__ehhandler$?construct@?$allocator@VioComplexStringPrinter@@@std@@QAEXPAVioComplexStringPrinter@@$$QAV3@@Z:
  0000e	8b 54 24 08	 mov	 edx, DWORD PTR [esp+8]
  00012	8d 42 0c	 lea	 eax, DWORD PTR [edx+12]
  00015	8b 4a ec	 mov	 ecx, DWORD PTR [edx-20]
  00018	33 c8		 xor	 ecx, eax
  0001a	e8 00 00 00 00	 call	 @__security_check_cookie@4
  0001f	b8 00 00 00 00	 mov	 eax, OFFSET __ehfuncinfo$?construct@?$allocator@VioComplexStringPrinter@@@std@@QAEXPAVioComplexStringPrinter@@$$QAV3@@Z
  00024	e9 00 00 00 00	 jmp	 ___CxxFrameHandler3
text$x	ENDS
?construct@?$allocator@VioComplexStringPrinter@@@std@@QAEXPAVioComplexStringPrinter@@$$QAV3@@Z ENDP ; std::allocator<ioComplexStringPrinter>::construct
PUBLIC	??$construct@AAVioComplexStringPrinter@@@?$allocator@VioComplexStringPrinter@@@std@@QAEXPAVioComplexStringPrinter@@AAV2@@Z ; std::allocator<ioComplexStringPrinter>::construct<ioComplexStringPrinter &>
;	COMDAT xdata$x
; File c:\program files (x86)\microsoft visual studio 10.0\vc\include\utility
xdata$x	SEGMENT
__unwindtable$??$construct@AAVioComplexStringPrinter@@@?$allocator@VioComplexStringPrinter@@@std@@QAEXPAVioComplexStringPrinter@@AAV2@@Z DD 0ffffffffH
	DD	FLAT:__unwindfunclet$??$construct@AAVioComplexStringPrinter@@@?$allocator@VioComplexStringPrinter@@@std@@QAEXPAVioComplexStringPrinter@@AAV2@@Z$0
__ehfuncinfo$??$construct@AAVioComplexStringPrinter@@@?$allocator@VioComplexStringPrinter@@@std@@QAEXPAVioComplexStringPrinter@@AAV2@@Z DD 019930522H
	DD	01H
	DD	FLAT:__unwindtable$??$construct@AAVioComplexStringPrinter@@@?$allocator@VioComplexStringPrinter@@@std@@QAEXPAVioComplexStringPrinter@@AAV2@@Z
	DD	2 DUP(00H)
	DD	2 DUP(00H)
	DD	00H
	DD	01H
; Function compile flags: /Ogsp
; File c:\program files (x86)\microsoft visual studio 10.0\vc\include\xmemory
xdata$x	ENDS
;	COMDAT ??$construct@AAVioComplexStringPrinter@@@?$allocator@VioComplexStringPrinter@@@std@@QAEXPAVioComplexStringPrinter@@AAV2@@Z
_TEXT	SEGMENT
$T540911 = -16						; size = 4
__$EHRec$ = -12						; size = 12
__Ptr$ = 8						; size = 4
__Val$ = 12						; size = 4
??$construct@AAVioComplexStringPrinter@@@?$allocator@VioComplexStringPrinter@@@std@@QAEXPAVioComplexStringPrinter@@AAV2@@Z PROC ; std::allocator<ioComplexStringPrinter>::construct<ioComplexStringPrinter &>, COMDAT
; _this$ = ecx

; 206  : 		void construct(pointer _Ptr, _Other&& _Val)

  00000	6a 04		 push	 4
  00002	b8 00 00 00 00	 mov	 eax, __ehhandler$??$construct@AAVioComplexStringPrinter@@@?$allocator@VioComplexStringPrinter@@@std@@QAEXPAVioComplexStringPrinter@@AAV2@@Z
  00007	e8 00 00 00 00	 call	 __EH_prolog3

; 207  : 		{	// construct object at _Ptr with value _Val
; 208  : 		::new ((void _FARQ *)_Ptr) _Ty(_STD forward<_Other>(_Val));

  0000c	8b 4d 08	 mov	 ecx, DWORD PTR __Ptr$[ebp]
  0000f	89 4d f0	 mov	 DWORD PTR $T540911[ebp], ecx
  00012	83 65 fc 00	 and	 DWORD PTR __$EHRec$[ebp+8], 0
  00016	85 c9		 test	 ecx, ecx
  00018	74 08		 je	 SHORT $LN3@construct@2
  0001a	ff 75 0c	 push	 DWORD PTR __Val$[ebp]
  0001d	e8 00 00 00 00	 call	 ??0ioComplexStringPrinter@@QAE@ABV0@@Z
$LN3@construct@2:

; 209  : 		}

  00022	e8 00 00 00 00	 call	 __EH_epilog3
  00027	c2 08 00	 ret	 8
_TEXT	ENDS
;	COMDAT text$x
text$x	SEGMENT
__unwindfunclet$??$construct@AAVioComplexStringPrinter@@@?$allocator@VioComplexStringPrinter@@@std@@QAEXPAVioComplexStringPrinter@@AAV2@@Z$0:
  00000	ff 75 08	 push	 DWORD PTR __Ptr$[ebp]
  00003	ff 75 f0	 push	 DWORD PTR $T540911[ebp]
  00006	e8 00 00 00 00	 call	 ??3@YAXPAX0@Z		; operator delete
  0000b	59		 pop	 ecx
  0000c	59		 pop	 ecx
  0000d	c3		 ret	 0
__ehhandler$??$construct@AAVioComplexStringPrinter@@@?$allocator@VioComplexStringPrinter@@@std@@QAEXPAVioComplexStringPrinter@@AAV2@@Z:
  0000e	8b 54 24 08	 mov	 edx, DWORD PTR [esp+8]
  00012	8d 42 0c	 lea	 eax, DWORD PTR [edx+12]
  00015	8b 4a ec	 mov	 ecx, DWORD PTR [edx-20]
  00018	33 c8		 xor	 ecx, eax
  0001a	e8 00 00 00 00	 call	 @__security_check_cookie@4
  0001f	b8 00 00 00 00	 mov	 eax, OFFSET __ehfuncinfo$??$construct@AAVioComplexStringPrinter@@@?$allocator@VioComplexStringPrinter@@@std@@QAEXPAVioComplexStringPrinter@@AAV2@@Z
  00024	e9 00 00 00 00	 jmp	 ___CxxFrameHandler3
text$x	ENDS
??$construct@AAVioComplexStringPrinter@@@?$allocator@VioComplexStringPrinter@@@std@@QAEXPAVioComplexStringPrinter@@AAV2@@Z ENDP ; std::allocator<ioComplexStringPrinter>::construct<ioComplexStringPrinter &>
PUBLIC	??$_Construct@VioComplexStringPrinter@@ABV1@@std@@YAXPAVioComplexStringPrinter@@ABV1@@Z ; std::_Construct<ioComplexStringPrinter,ioComplexStringPrinter const &>
;	COMDAT xdata$x
; File c:\program files (x86)\microsoft visual studio 10.0\vc\include\utility
xdata$x	SEGMENT
__unwindtable$??$_Construct@VioComplexStringPrinter@@ABV1@@std@@YAXPAVioComplexStringPrinter@@ABV1@@Z DD 0ffffffffH
	DD	FLAT:__unwindfunclet$??$_Construct@VioComplexStringPrinter@@ABV1@@std@@YAXPAVioComplexStringPrinter@@ABV1@@Z$0
__ehfuncinfo$??$_Construct@VioComplexStringPrinter@@ABV1@@std@@YAXPAVioComplexStringPrinter@@ABV1@@Z DD 019930522H
	DD	01H
	DD	FLAT:__unwindtable$??$_Construct@VioComplexStringPrinter@@ABV1@@std@@YAXPAVioComplexStringPrinter@@ABV1@@Z
	DD	2 DUP(00H)
	DD	2 DUP(00H)
	DD	00H
	DD	01H
; Function compile flags: /Ogsp
; File c:\program files (x86)\microsoft visual studio 10.0\vc\include\xmemory
xdata$x	ENDS
;	COMDAT ??$_Construct@VioComplexStringPrinter@@ABV1@@std@@YAXPAVioComplexStringPrinter@@ABV1@@Z
_TEXT	SEGMENT
$T540930 = -16						; size = 4
__$EHRec$ = -12						; size = 12
__Vptr$ = 8						; size = 4
__Ptr$ = 8						; size = 4
__Val$ = 12						; size = 4
??$_Construct@VioComplexStringPrinter@@ABV1@@std@@YAXPAVioComplexStringPrinter@@ABV1@@Z PROC ; std::_Construct<ioComplexStringPrinter,ioComplexStringPrinter const &>, COMDAT

; 46   : 	{	// construct object at _Ptr with value _Val

  00000	6a 04		 push	 4
  00002	b8 00 00 00 00	 mov	 eax, __ehhandler$??$_Construct@VioComplexStringPrinter@@ABV1@@std@@YAXPAVioComplexStringPrinter@@ABV1@@Z
  00007	e8 00 00 00 00	 call	 __EH_prolog3

; 47   : 	void _FARQ *_Vptr = _Ptr;

  0000c	8b 4d 08	 mov	 ecx, DWORD PTR __Ptr$[ebp]
  0000f	89 4d 08	 mov	 DWORD PTR __Vptr$[ebp], ecx

; 48   : 	::new (_Vptr) _Ty1(_STD forward<_Ty2>(_Val));

  00012	89 4d f0	 mov	 DWORD PTR $T540930[ebp], ecx
  00015	83 65 fc 00	 and	 DWORD PTR __$EHRec$[ebp+8], 0
  00019	85 c9		 test	 ecx, ecx
  0001b	74 08		 je	 SHORT $LN3@Construct@2
  0001d	ff 75 0c	 push	 DWORD PTR __Val$[ebp]
  00020	e8 00 00 00 00	 call	 ??0ioComplexStringPrinter@@QAE@ABV0@@Z
$LN3@Construct@2:

; 49   : 	}

  00025	e8 00 00 00 00	 call	 __EH_epilog3
  0002a	c3		 ret	 0
_TEXT	ENDS
;	COMDAT text$x
text$x	SEGMENT
__unwindfunclet$??$_Construct@VioComplexStringPrinter@@ABV1@@std@@YAXPAVioComplexStringPrinter@@ABV1@@Z$0:
  00000	ff 75 08	 push	 DWORD PTR __Vptr$[ebp]
  00003	ff 75 f0	 push	 DWORD PTR $T540930[ebp]
  00006	e8 00 00 00 00	 call	 ??3@YAXPAX0@Z		; operator delete
  0000b	59		 pop	 ecx
  0000c	59		 pop	 ecx
  0000d	c3		 ret	 0
__ehhandler$??$_Construct@VioComplexStringPrinter@@ABV1@@std@@YAXPAVioComplexStringPrinter@@ABV1@@Z:
  0000e	8b 54 24 08	 mov	 edx, DWORD PTR [esp+8]
  00012	8d 42 0c	 lea	 eax, DWORD PTR [edx+12]
  00015	8b 4a ec	 mov	 ecx, DWORD PTR [edx-20]
  00018	33 c8		 xor	 ecx, eax
  0001a	e8 00 00 00 00	 call	 @__security_check_cookie@4
  0001f	b8 00 00 00 00	 mov	 eax, OFFSET __ehfuncinfo$??$_Construct@VioComplexStringPrinter@@ABV1@@std@@YAXPAVioComplexStringPrinter@@ABV1@@Z
  00024	e9 00 00 00 00	 jmp	 ___CxxFrameHandler3
text$x	ENDS
??$_Construct@VioComplexStringPrinter@@ABV1@@std@@YAXPAVioComplexStringPrinter@@ABV1@@Z ENDP ; std::_Construct<ioComplexStringPrinter,ioComplexStringPrinter const &>
PUBLIC	??$_Cons_val@V?$allocator@VioComplexStringPrinter@@@std@@VioComplexStringPrinter@@V3@@std@@YAXAAV?$allocator@VioComplexStringPrinter@@@0@PAVioComplexStringPrinter@@$$QAV2@@Z ; std::_Cons_val<std::allocator<ioComplexStringPrinter>,ioComplexStringPrinter,ioComplexStringPrinter>
;	COMDAT xdata$x
; File c:\program files (x86)\microsoft visual studio 10.0\vc\include\utility
xdata$x	SEGMENT
__unwindtable$??$_Cons_val@V?$allocator@VioComplexStringPrinter@@@std@@VioComplexStringPrinter@@V3@@std@@YAXAAV?$allocator@VioComplexStringPrinter@@@0@PAVioComplexStringPrinter@@$$QAV2@@Z DD 0ffffffffH
	DD	FLAT:__unwindfunclet$??$_Cons_val@V?$allocator@VioComplexStringPrinter@@@std@@VioComplexStringPrinter@@V3@@std@@YAXAAV?$allocator@VioComplexStringPrinter@@@0@PAVioComplexStringPrinter@@$$QAV2@@Z$0
__ehfuncinfo$??$_Cons_val@V?$allocator@VioComplexStringPrinter@@@std@@VioComplexStringPrinter@@V3@@std@@YAXAAV?$allocator@VioComplexStringPrinter@@@0@PAVioComplexStringPrinter@@$$QAV2@@Z DD 019930522H
	DD	01H
	DD	FLAT:__unwindtable$??$_Cons_val@V?$allocator@VioComplexStringPrinter@@@std@@VioComplexStringPrinter@@V3@@std@@YAXAAV?$allocator@VioComplexStringPrinter@@@0@PAVioComplexStringPrinter@@$$QAV2@@Z
	DD	2 DUP(00H)
	DD	2 DUP(00H)
	DD	00H
	DD	01H
; Function compile flags: /Ogsp
; File c:\program files (x86)\microsoft visual studio 10.0\vc\include\xmemory
xdata$x	ENDS
;	COMDAT ??$_Cons_val@V?$allocator@VioComplexStringPrinter@@@std@@VioComplexStringPrinter@@V3@@std@@YAXAAV?$allocator@VioComplexStringPrinter@@@0@PAVioComplexStringPrinter@@$$QAV2@@Z
_TEXT	SEGMENT
$T540966 = -16						; size = 4
__$EHRec$ = -12						; size = 12
__Alval$ = 8						; size = 4
__Pdest$ = 12						; size = 4
__Src$ = 16						; size = 4
??$_Cons_val@V?$allocator@VioComplexStringPrinter@@@std@@VioComplexStringPrinter@@V3@@std@@YAXAAV?$allocator@VioComplexStringPrinter@@@0@PAVioComplexStringPrinter@@$$QAV2@@Z PROC ; std::_Cons_val<std::allocator<ioComplexStringPrinter>,ioComplexStringPrinter,ioComplexStringPrinter>, COMDAT

; 279  : 	{	// construct using allocator

  00000	6a 04		 push	 4
  00002	b8 00 00 00 00	 mov	 eax, __ehhandler$??$_Cons_val@V?$allocator@VioComplexStringPrinter@@@std@@VioComplexStringPrinter@@V3@@std@@YAXAAV?$allocator@VioComplexStringPrinter@@@0@PAVioComplexStringPrinter@@$$QAV2@@Z
  00007	e8 00 00 00 00	 call	 __EH_prolog3

; 280  : 	_Alval.construct(_Pdest, _STD forward<_Ty2>(_Src));

  0000c	8b 4d 0c	 mov	 ecx, DWORD PTR __Pdest$[ebp]
  0000f	89 4d f0	 mov	 DWORD PTR $T540966[ebp], ecx
  00012	83 65 fc 00	 and	 DWORD PTR __$EHRec$[ebp+8], 0
  00016	85 c9		 test	 ecx, ecx
  00018	74 08		 je	 SHORT $LN7@Cons_val
  0001a	ff 75 10	 push	 DWORD PTR __Src$[ebp]
  0001d	e8 00 00 00 00	 call	 ??0ioComplexStringPrinter@@QAE@ABV0@@Z
$LN7@Cons_val:

; 281  : 	}

  00022	e8 00 00 00 00	 call	 __EH_epilog3
  00027	c3		 ret	 0
_TEXT	ENDS
;	COMDAT text$x
text$x	SEGMENT
__unwindfunclet$??$_Cons_val@V?$allocator@VioComplexStringPrinter@@@std@@VioComplexStringPrinter@@V3@@std@@YAXAAV?$allocator@VioComplexStringPrinter@@@0@PAVioComplexStringPrinter@@$$QAV2@@Z$0:
  00000	ff 75 0c	 push	 DWORD PTR __Pdest$[ebp]
  00003	ff 75 f0	 push	 DWORD PTR $T540966[ebp]
  00006	e8 00 00 00 00	 call	 ??3@YAXPAX0@Z		; operator delete
  0000b	59		 pop	 ecx
  0000c	59		 pop	 ecx
  0000d	c3		 ret	 0
__ehhandler$??$_Cons_val@V?$allocator@VioComplexStringPrinter@@@std@@VioComplexStringPrinter@@V3@@std@@YAXAAV?$allocator@VioComplexStringPrinter@@@0@PAVioComplexStringPrinter@@$$QAV2@@Z:
  0000e	8b 54 24 08	 mov	 edx, DWORD PTR [esp+8]
  00012	8d 42 0c	 lea	 eax, DWORD PTR [edx+12]
  00015	8b 4a ec	 mov	 ecx, DWORD PTR [edx-20]
  00018	33 c8		 xor	 ecx, eax
  0001a	e8 00 00 00 00	 call	 @__security_check_cookie@4
  0001f	b8 00 00 00 00	 mov	 eax, OFFSET __ehfuncinfo$??$_Cons_val@V?$allocator@VioComplexStringPrinter@@@std@@VioComplexStringPrinter@@V3@@std@@YAXAAV?$allocator@VioComplexStringPrinter@@@0@PAVioComplexStringPrinter@@$$QAV2@@Z
  00024	e9 00 00 00 00	 jmp	 ___CxxFrameHandler3
text$x	ENDS
??$_Cons_val@V?$allocator@VioComplexStringPrinter@@@std@@VioComplexStringPrinter@@V3@@std@@YAXAAV?$allocator@VioComplexStringPrinter@@@0@PAVioComplexStringPrinter@@$$QAV2@@Z ENDP ; std::_Cons_val<std::allocator<ioComplexStringPrinter>,ioComplexStringPrinter,ioComplexStringPrinter>
PUBLIC	??$_Cons_val@V?$allocator@VioComplexStringPrinter@@@std@@VioComplexStringPrinter@@AAV3@@std@@YAXAAV?$allocator@VioComplexStringPrinter@@@0@PAVioComplexStringPrinter@@AAV2@@Z ; std::_Cons_val<std::allocator<ioComplexStringPrinter>,ioComplexStringPrinter,ioComplexStringPrinter &>
;	COMDAT xdata$x
; File c:\program files (x86)\microsoft visual studio 10.0\vc\include\utility
xdata$x	SEGMENT
__unwindtable$??$_Cons_val@V?$allocator@VioComplexStringPrinter@@@std@@VioComplexStringPrinter@@AAV3@@std@@YAXAAV?$allocator@VioComplexStringPrinter@@@0@PAVioComplexStringPrinter@@AAV2@@Z DD 0ffffffffH
	DD	FLAT:__unwindfunclet$??$_Cons_val@V?$allocator@VioComplexStringPrinter@@@std@@VioComplexStringPrinter@@AAV3@@std@@YAXAAV?$allocator@VioComplexStringPrinter@@@0@PAVioComplexStringPrinter@@AAV2@@Z$0
__ehfuncinfo$??$_Cons_val@V?$allocator@VioComplexStringPrinter@@@std@@VioComplexStringPrinter@@AAV3@@std@@YAXAAV?$allocator@VioComplexStringPrinter@@@0@PAVioComplexStringPrinter@@AAV2@@Z DD 019930522H
	DD	01H
	DD	FLAT:__unwindtable$??$_Cons_val@V?$allocator@VioComplexStringPrinter@@@std@@VioComplexStringPrinter@@AAV3@@std@@YAXAAV?$allocator@VioComplexStringPrinter@@@0@PAVioComplexStringPrinter@@AAV2@@Z
	DD	2 DUP(00H)
	DD	2 DUP(00H)
	DD	00H
	DD	01H
; Function compile flags: /Ogsp
; File c:\program files (x86)\microsoft visual studio 10.0\vc\include\xmemory
xdata$x	ENDS
;	COMDAT ??$_Cons_val@V?$allocator@VioComplexStringPrinter@@@std@@VioComplexStringPrinter@@AAV3@@std@@YAXAAV?$allocator@VioComplexStringPrinter@@@0@PAVioComplexStringPrinter@@AAV2@@Z
_TEXT	SEGMENT
$T540998 = -16						; size = 4
__$EHRec$ = -12						; size = 12
__Alval$ = 8						; size = 4
__Pdest$ = 12						; size = 4
__Src$ = 16						; size = 4
??$_Cons_val@V?$allocator@VioComplexStringPrinter@@@std@@VioComplexStringPrinter@@AAV3@@std@@YAXAAV?$allocator@VioComplexStringPrinter@@@0@PAVioComplexStringPrinter@@AAV2@@Z PROC ; std::_Cons_val<std::allocator<ioComplexStringPrinter>,ioComplexStringPrinter,ioComplexStringPrinter &>, COMDAT

; 279  : 	{	// construct using allocator

  00000	6a 04		 push	 4
  00002	b8 00 00 00 00	 mov	 eax, __ehhandler$??$_Cons_val@V?$allocator@VioComplexStringPrinter@@@std@@VioComplexStringPrinter@@AAV3@@std@@YAXAAV?$allocator@VioComplexStringPrinter@@@0@PAVioComplexStringPrinter@@AAV2@@Z
  00007	e8 00 00 00 00	 call	 __EH_prolog3

; 280  : 	_Alval.construct(_Pdest, _STD forward<_Ty2>(_Src));

  0000c	8b 4d 0c	 mov	 ecx, DWORD PTR __Pdest$[ebp]
  0000f	89 4d f0	 mov	 DWORD PTR $T540998[ebp], ecx
  00012	83 65 fc 00	 and	 DWORD PTR __$EHRec$[ebp+8], 0
  00016	85 c9		 test	 ecx, ecx
  00018	74 08		 je	 SHORT $LN7@Cons_val@2
  0001a	ff 75 10	 push	 DWORD PTR __Src$[ebp]
  0001d	e8 00 00 00 00	 call	 ??0ioComplexStringPrinter@@QAE@ABV0@@Z
$LN7@Cons_val@2:

; 281  : 	}

  00022	e8 00 00 00 00	 call	 __EH_epilog3
  00027	c3		 ret	 0
_TEXT	ENDS
;	COMDAT text$x
text$x	SEGMENT
__unwindfunclet$??$_Cons_val@V?$allocator@VioComplexStringPrinter@@@std@@VioComplexStringPrinter@@AAV3@@std@@YAXAAV?$allocator@VioComplexStringPrinter@@@0@PAVioComplexStringPrinter@@AAV2@@Z$0:
  00000	ff 75 0c	 push	 DWORD PTR __Pdest$[ebp]
  00003	ff 75 f0	 push	 DWORD PTR $T540998[ebp]
  00006	e8 00 00 00 00	 call	 ??3@YAXPAX0@Z		; operator delete
  0000b	59		 pop	 ecx
  0000c	59		 pop	 ecx
  0000d	c3		 ret	 0
__ehhandler$??$_Cons_val@V?$allocator@VioComplexStringPrinter@@@std@@VioComplexStringPrinter@@AAV3@@std@@YAXAAV?$allocator@VioComplexStringPrinter@@@0@PAVioComplexStringPrinter@@AAV2@@Z:
  0000e	8b 54 24 08	 mov	 edx, DWORD PTR [esp+8]
  00012	8d 42 0c	 lea	 eax, DWORD PTR [edx+12]
  00015	8b 4a ec	 mov	 ecx, DWORD PTR [edx-20]
  00018	33 c8		 xor	 ecx, eax
  0001a	e8 00 00 00 00	 call	 @__security_check_cookie@4
  0001f	b8 00 00 00 00	 mov	 eax, OFFSET __ehfuncinfo$??$_Cons_val@V?$allocator@VioComplexStringPrinter@@@std@@VioComplexStringPrinter@@AAV3@@std@@YAXAAV?$allocator@VioComplexStringPrinter@@@0@PAVioComplexStringPrinter@@AAV2@@Z
  00024	e9 00 00 00 00	 jmp	 ___CxxFrameHandler3
text$x	ENDS
??$_Cons_val@V?$allocator@VioComplexStringPrinter@@@std@@VioComplexStringPrinter@@AAV3@@std@@YAXAAV?$allocator@VioComplexStringPrinter@@@0@PAVioComplexStringPrinter@@AAV2@@Z ENDP ; std::_Cons_val<std::allocator<ioComplexStringPrinter>,ioComplexStringPrinter,ioComplexStringPrinter &>
PUBLIC	?construct@?$allocator@VioComplexStringPrinter@@@std@@QAEXPAVioComplexStringPrinter@@ABV3@@Z ; std::allocator<ioComplexStringPrinter>::construct
; Function compile flags: /Ogsp
;	COMDAT ?construct@?$allocator@VioComplexStringPrinter@@@std@@QAEXPAVioComplexStringPrinter@@ABV3@@Z
_TEXT	SEGMENT
__Ptr$ = 8						; size = 4
__Val$ = 12						; size = 4
?construct@?$allocator@VioComplexStringPrinter@@@std@@QAEXPAVioComplexStringPrinter@@ABV3@@Z PROC ; std::allocator<ioComplexStringPrinter>::construct, COMDAT
; _this$ = ecx

; 196  : 		{	// construct object at _Ptr with value _Val

  00000	55		 push	 ebp
  00001	8b ec		 mov	 ebp, esp

; 197  : 		_Construct(_Ptr, _Val);

  00003	ff 75 0c	 push	 DWORD PTR __Val$[ebp]
  00006	ff 75 08	 push	 DWORD PTR __Ptr$[ebp]
  00009	e8 00 00 00 00	 call	 ??$_Construct@VioComplexStringPrinter@@ABV1@@std@@YAXPAVioComplexStringPrinter@@ABV1@@Z ; std::_Construct<ioComplexStringPrinter,ioComplexStringPrinter const &>
  0000e	59		 pop	 ecx
  0000f	59		 pop	 ecx

; 198  : 		}

  00010	5d		 pop	 ebp
  00011	c2 08 00	 ret	 8
?construct@?$allocator@VioComplexStringPrinter@@@std@@QAEXPAVioComplexStringPrinter@@ABV3@@Z ENDP ; std::allocator<ioComplexStringPrinter>::construct
_TEXT	ENDS
PUBLIC	??$_Uninit_move@PAVioComplexStringPrinter@@PAV1@V?$allocator@VioComplexStringPrinter@@@std@@V1@@std@@YAPAVioComplexStringPrinter@@PAV1@00AAV?$allocator@VioComplexStringPrinter@@@0@0U_Nonscalar_ptr_iterator_tag@0@@Z ; std::_Uninit_move<ioComplexStringPrinter *,ioComplexStringPrinter *,std::allocator<ioComplexStringPrinter>,ioComplexStringPrinter>
;	COMDAT xdata$x
xdata$x	SEGMENT
__catchsym$??$_Uninit_move@PAVioComplexStringPrinter@@PAV1@V?$allocator@VioComplexStringPrinter@@@std@@V1@@std@@YAPAVioComplexStringPrinter@@PAV1@00AAV?$allocator@VioComplexStringPrinter@@@0@0U_Nonscalar_ptr_iterator_tag@0@@Z$2 DD 040H
	DD	00H
	DD	00H
	DD	FLAT:__catch$??$_Uninit_move@PAVioComplexStringPrinter@@PAV1@V?$allocator@VioComplexStringPrinter@@@std@@V1@@std@@YAPAVioComplexStringPrinter@@PAV1@00AAV?$allocator@VioComplexStringPrinter@@@0@0U_Nonscalar_ptr_iterator_tag@0@@Z$0
__unwindtable$??$_Uninit_move@PAVioComplexStringPrinter@@PAV1@V?$allocator@VioComplexStringPrinter@@@std@@V1@@std@@YAPAVioComplexStringPrinter@@PAV1@00AAV?$allocator@VioComplexStringPrinter@@@0@0U_Nonscalar_ptr_iterator_tag@0@@Z DD 0ffffffffH
	DD	00H
	DD	0ffffffffH
	DD	00H
__tryblocktable$??$_Uninit_move@PAVioComplexStringPrinter@@PAV1@V?$allocator@VioComplexStringPrinter@@@std@@V1@@std@@YAPAVioComplexStringPrinter@@PAV1@00AAV?$allocator@VioComplexStringPrinter@@@0@0U_Nonscalar_ptr_iterator_tag@0@@Z DD 00H
	DD	00H
	DD	01H
	DD	01H
	DD	FLAT:__catchsym$??$_Uninit_move@PAVioComplexStringPrinter@@PAV1@V?$allocator@VioComplexStringPrinter@@@std@@V1@@std@@YAPAVioComplexStringPrinter@@PAV1@00AAV?$allocator@VioComplexStringPrinter@@@0@0U_Nonscalar_ptr_iterator_tag@0@@Z$2
__ehfuncinfo$??$_Uninit_move@PAVioComplexStringPrinter@@PAV1@V?$allocator@VioComplexStringPrinter@@@std@@V1@@std@@YAPAVioComplexStringPrinter@@PAV1@00AAV?$allocator@VioComplexStringPrinter@@@0@0U_Nonscalar_ptr_iterator_tag@0@@Z DD 019930522H
	DD	02H
	DD	FLAT:__unwindtable$??$_Uninit_move@PAVioComplexStringPrinter@@PAV1@V?$allocator@VioComplexStringPrinter@@@std@@V1@@std@@YAPAVioComplexStringPrinter@@PAV1@00AAV?$allocator@VioComplexStringPrinter@@@0@0U_Nonscalar_ptr_iterator_tag@0@@Z
	DD	01H
	DD	FLAT:__tryblocktable$??$_Uninit_move@PAVioComplexStringPrinter@@PAV1@V?$allocator@VioComplexStringPrinter@@@std@@V1@@std@@YAPAVioComplexStringPrinter@@PAV1@00AAV?$allocator@VioComplexStringPrinter@@@0@0U_Nonscalar_ptr_iterator_tag@0@@Z
	DD	2 DUP(00H)
	DD	00H
	DD	01H
; Function compile flags: /Ogsp
; File c:\program files (x86)\microsoft visual studio 10.0\vc\include\memory
xdata$x	ENDS
;	COMDAT ??$_Uninit_move@PAVioComplexStringPrinter@@PAV1@V?$allocator@VioComplexStringPrinter@@@std@@V1@@std@@YAPAVioComplexStringPrinter@@PAV1@00AAV?$allocator@VioComplexStringPrinter@@@0@0U_Nonscalar_ptr_iterator_tag@0@@Z
_TEXT	SEGMENT
__Next$ = -20						; size = 4
__$EHRec$ = -16						; size = 16
__First$ = 8						; size = 4
__Last$ = 12						; size = 4
__Dest$ = 16						; size = 4
__Al$ = 20						; size = 4
___formal$ = 24						; size = 4
___formal$ = 28						; size = 1
??$_Uninit_move@PAVioComplexStringPrinter@@PAV1@V?$allocator@VioComplexStringPrinter@@@std@@V1@@std@@YAPAVioComplexStringPrinter@@PAV1@00AAV?$allocator@VioComplexStringPrinter@@@0@0U_Nonscalar_ptr_iterator_tag@0@@Z PROC ; std::_Uninit_move<ioComplexStringPrinter *,ioComplexStringPrinter *,std::allocator<ioComplexStringPrinter>,ioComplexStringPrinter>, COMDAT

; 424  : 	{	// move [_First, _Last) to raw _Dest, using _Al, arbitrary type

  00000	6a 08		 push	 8
  00002	b8 00 00 00 00	 mov	 eax, __ehhandler$??$_Uninit_move@PAVioComplexStringPrinter@@PAV1@V?$allocator@VioComplexStringPrinter@@@std@@V1@@std@@YAPAVioComplexStringPrinter@@PAV1@00AAV?$allocator@VioComplexStringPrinter@@@0@0U_Nonscalar_ptr_iterator_tag@0@@Z
  00007	e8 00 00 00 00	 call	 __EH_prolog3_catch

; 425  : 	_DEBUG_RANGE(_First, _Last);
; 426  : 	_DEBUG_POINTER(_Dest);
; 427  : 	_FwdIt _Next = _Dest;

  0000c	8b 45 10	 mov	 eax, DWORD PTR __Dest$[ebp]

; 428  : 
; 429  : 	_TRY_BEGIN

  0000f	83 65 fc 00	 and	 DWORD PTR __$EHRec$[ebp+12], 0
  00013	8b 75 08	 mov	 esi, DWORD PTR __First$[ebp]
  00016	89 45 ec	 mov	 DWORD PTR __Next$[ebp], eax
$LL6@Uninit_mov:

; 430  : 	for (; _First != _Last; ++_Dest, ++_First)

  00019	3b 75 0c	 cmp	 esi, DWORD PTR __Last$[ebp]
  0001c	74 35		 je	 SHORT $LN4@Uninit_mov

; 431  : 		_Cons_val(_Al, _Dest, (_Valty &&)*_First);

  0001e	56		 push	 esi
  0001f	ff 75 10	 push	 DWORD PTR __Dest$[ebp]
  00022	ff 75 14	 push	 DWORD PTR __Al$[ebp]
  00025	e8 00 00 00 00	 call	 ??$_Cons_val@V?$allocator@VioComplexStringPrinter@@@std@@VioComplexStringPrinter@@V3@@std@@YAXAAV?$allocator@VioComplexStringPrinter@@@0@PAVioComplexStringPrinter@@$$QAV2@@Z ; std::_Cons_val<std::allocator<ioComplexStringPrinter>,ioComplexStringPrinter,ioComplexStringPrinter>
  0002a	83 45 10 20	 add	 DWORD PTR __Dest$[ebp], 32 ; 00000020H
  0002e	83 c4 0c	 add	 esp, 12			; 0000000cH
  00031	83 c6 20	 add	 esi, 32			; 00000020H
  00034	eb e3		 jmp	 SHORT $LL6@Uninit_mov
__catch$??$_Uninit_move@PAVioComplexStringPrinter@@PAV1@V?$allocator@VioComplexStringPrinter@@@std@@V1@@std@@YAPAVioComplexStringPrinter@@PAV1@00AAV?$allocator@VioComplexStringPrinter@@@0@0U_Nonscalar_ptr_iterator_tag@0@@Z$0:

; 432  : 	_CATCH_ALL
; 433  : 	for (; _Next != _Dest; ++_Next)

  00036	8b 75 ec	 mov	 esi, DWORD PTR __Next$[ebp]
  00039	eb 0a		 jmp	 SHORT $LN29@Uninit_mov
$LL3@Uninit_mov:

; 434  : 		_Dest_val(_Al, _Next);

  0003b	8b ce		 mov	 ecx, esi
  0003d	e8 00 00 00 00	 call	 ??1ioComplexStringPrinter@@QAE@XZ ; ioComplexStringPrinter::~ioComplexStringPrinter
  00042	83 c6 20	 add	 esi, 32			; 00000020H
$LN29@Uninit_mov:

; 432  : 	_CATCH_ALL
; 433  : 	for (; _Next != _Dest; ++_Next)

  00045	3b 75 10	 cmp	 esi, DWORD PTR __Dest$[ebp]
  00048	75 f1		 jne	 SHORT $LL3@Uninit_mov

; 435  : 	_RERAISE;

  0004a	6a 00		 push	 0
  0004c	6a 00		 push	 0
  0004e	e8 00 00 00 00	 call	 __CxxThrowException@8
$LN30@Uninit_mov:
$LN4@Uninit_mov:

; 436  : 	_CATCH_END
; 437  : 	return (_Dest);

  00053	8b 45 10	 mov	 eax, DWORD PTR __Dest$[ebp]

; 438  : 	}

  00056	e8 00 00 00 00	 call	 __EH_epilog3
  0005b	c3		 ret	 0
$LN28@Uninit_mov:
_TEXT	ENDS
;	COMDAT text$x
text$x	SEGMENT
__ehhandler$??$_Uninit_move@PAVioComplexStringPrinter@@PAV1@V?$allocator@VioComplexStringPrinter@@@std@@V1@@std@@YAPAVioComplexStringPrinter@@PAV1@00AAV?$allocator@VioComplexStringPrinter@@@0@0U_Nonscalar_ptr_iterator_tag@0@@Z:
  00000	8b 54 24 08	 mov	 edx, DWORD PTR [esp+8]
  00004	8d 42 0c	 lea	 eax, DWORD PTR [edx+12]
  00007	8b 4a e8	 mov	 ecx, DWORD PTR [edx-24]
  0000a	33 c8		 xor	 ecx, eax
  0000c	e8 00 00 00 00	 call	 @__security_check_cookie@4
  00011	b8 00 00 00 00	 mov	 eax, OFFSET __ehfuncinfo$??$_Uninit_move@PAVioComplexStringPrinter@@PAV1@V?$allocator@VioComplexStringPrinter@@@std@@V1@@std@@YAPAVioComplexStringPrinter@@PAV1@00AAV?$allocator@VioComplexStringPrinter@@@0@0U_Nonscalar_ptr_iterator_tag@0@@Z
  00016	e9 00 00 00 00	 jmp	 ___CxxFrameHandler3
text$x	ENDS
??$_Uninit_move@PAVioComplexStringPrinter@@PAV1@V?$allocator@VioComplexStringPrinter@@@std@@V1@@std@@YAPAVioComplexStringPrinter@@PAV1@00AAV?$allocator@VioComplexStringPrinter@@@0@0U_Nonscalar_ptr_iterator_tag@0@@Z ENDP ; std::_Uninit_move<ioComplexStringPrinter *,ioComplexStringPrinter *,std::allocator<ioComplexStringPrinter>,ioComplexStringPrinter>
PUBLIC	??$_Cons_val@V?$allocator@VioComplexStringPrinter@@@std@@VioComplexStringPrinter@@ABV3@@std@@YAXAAV?$allocator@VioComplexStringPrinter@@@0@PAVioComplexStringPrinter@@ABV2@@Z ; std::_Cons_val<std::allocator<ioComplexStringPrinter>,ioComplexStringPrinter,ioComplexStringPrinter const &>
; Function compile flags: /Ogsp
; File c:\program files (x86)\microsoft visual studio 10.0\vc\include\xmemory
;	COMDAT ??$_Cons_val@V?$allocator@VioComplexStringPrinter@@@std@@VioComplexStringPrinter@@ABV3@@std@@YAXAAV?$allocator@VioComplexStringPrinter@@@0@PAVioComplexStringPrinter@@ABV2@@Z
_TEXT	SEGMENT
__Alval$ = 8						; size = 4
__Pdest$ = 12						; size = 4
__Src$ = 16						; size = 4
??$_Cons_val@V?$allocator@VioComplexStringPrinter@@@std@@VioComplexStringPrinter@@ABV3@@std@@YAXAAV?$allocator@VioComplexStringPrinter@@@0@PAVioComplexStringPrinter@@ABV2@@Z PROC ; std::_Cons_val<std::allocator<ioComplexStringPrinter>,ioComplexStringPrinter,ioComplexStringPrinter const &>, COMDAT

; 279  : 	{	// construct using allocator

  00000	55		 push	 ebp
  00001	8b ec		 mov	 ebp, esp

; 280  : 	_Alval.construct(_Pdest, _STD forward<_Ty2>(_Src));

  00003	ff 75 10	 push	 DWORD PTR __Src$[ebp]
  00006	ff 75 0c	 push	 DWORD PTR __Pdest$[ebp]
  00009	e8 00 00 00 00	 call	 ??$_Construct@VioComplexStringPrinter@@ABV1@@std@@YAXPAVioComplexStringPrinter@@ABV1@@Z ; std::_Construct<ioComplexStringPrinter,ioComplexStringPrinter const &>
  0000e	59		 pop	 ecx
  0000f	59		 pop	 ecx

; 281  : 	}

  00010	5d		 pop	 ebp
  00011	c3		 ret	 0
??$_Cons_val@V?$allocator@VioComplexStringPrinter@@@std@@VioComplexStringPrinter@@ABV3@@std@@YAXAAV?$allocator@VioComplexStringPrinter@@@0@PAVioComplexStringPrinter@@ABV2@@Z ENDP ; std::_Cons_val<std::allocator<ioComplexStringPrinter>,ioComplexStringPrinter,ioComplexStringPrinter const &>
_TEXT	ENDS
PUBLIC	??$_Uninitialized_move@PAVioComplexStringPrinter@@PAV1@V?$allocator@VioComplexStringPrinter@@@std@@@std@@YAPAVioComplexStringPrinter@@PAV1@00AAV?$allocator@VioComplexStringPrinter@@@0@@Z ; std::_Uninitialized_move<ioComplexStringPrinter *,ioComplexStringPrinter *,std::allocator<ioComplexStringPrinter> >
; Function compile flags: /Ogsp
; File c:\program files (x86)\microsoft visual studio 10.0\vc\include\memory
;	COMDAT ??$_Uninitialized_move@PAVioComplexStringPrinter@@PAV1@V?$allocator@VioComplexStringPrinter@@@std@@@std@@YAPAVioComplexStringPrinter@@PAV1@00AAV?$allocator@VioComplexStringPrinter@@@0@@Z
_TEXT	SEGMENT
__Cat$541077 = -4					; size = 1
__First$ = 8						; size = 4
__Last$ = 12						; size = 4
__Dest$ = 16						; size = 4
__Al$ = 20						; size = 4
??$_Uninitialized_move@PAVioComplexStringPrinter@@PAV1@V?$allocator@VioComplexStringPrinter@@@std@@@std@@YAPAVioComplexStringPrinter@@PAV1@00AAV?$allocator@VioComplexStringPrinter@@@0@@Z PROC ; std::_Uninitialized_move<ioComplexStringPrinter *,ioComplexStringPrinter *,std::allocator<ioComplexStringPrinter> >, COMDAT

; 469  : 	{	// move [_First, _Last) to raw _Dest, using _Al

  00000	55		 push	 ebp
  00001	8b ec		 mov	 ebp, esp
  00003	51		 push	 ecx

; 470  : 	return (_Uninit_move(_First, _Last, _Dest, _Al,
; 471  : 		_Val_type(_First), _Ptr_cat(_First, _Dest)));

  00004	ff 75 fc	 push	 DWORD PTR __Cat$541077[ebp]
  00007	6a 00		 push	 0
  00009	ff 75 14	 push	 DWORD PTR __Al$[ebp]
  0000c	ff 75 10	 push	 DWORD PTR __Dest$[ebp]
  0000f	ff 75 0c	 push	 DWORD PTR __Last$[ebp]
  00012	ff 75 08	 push	 DWORD PTR __First$[ebp]
  00015	e8 00 00 00 00	 call	 ??$_Uninit_move@PAVioComplexStringPrinter@@PAV1@V?$allocator@VioComplexStringPrinter@@@std@@V1@@std@@YAPAVioComplexStringPrinter@@PAV1@00AAV?$allocator@VioComplexStringPrinter@@@0@0U_Nonscalar_ptr_iterator_tag@0@@Z ; std::_Uninit_move<ioComplexStringPrinter *,ioComplexStringPrinter *,std::allocator<ioComplexStringPrinter>,ioComplexStringPrinter>
  0001a	83 c4 18	 add	 esp, 24			; 00000018H

; 472  : 	}

  0001d	c9		 leave
  0001e	c3		 ret	 0
??$_Uninitialized_move@PAVioComplexStringPrinter@@PAV1@V?$allocator@VioComplexStringPrinter@@@std@@@std@@YAPAVioComplexStringPrinter@@PAV1@00AAV?$allocator@VioComplexStringPrinter@@@0@@Z ENDP ; std::_Uninitialized_move<ioComplexStringPrinter *,ioComplexStringPrinter *,std::allocator<ioComplexStringPrinter> >
_TEXT	ENDS
PUBLIC	??$_Umove@PAVioComplexStringPrinter@@@?$vector@VioComplexStringPrinter@@V?$allocator@VioComplexStringPrinter@@@std@@@std@@IAEPAVioComplexStringPrinter@@PAV2@00@Z ; std::vector<ioComplexStringPrinter,std::allocator<ioComplexStringPrinter> >::_Umove<ioComplexStringPrinter *>
; Function compile flags: /Ogsp
; File c:\program files (x86)\microsoft visual studio 10.0\vc\include\vector
;	COMDAT ??$_Umove@PAVioComplexStringPrinter@@@?$vector@VioComplexStringPrinter@@V?$allocator@VioComplexStringPrinter@@@std@@@std@@IAEPAVioComplexStringPrinter@@PAV2@00@Z
_TEXT	SEGMENT
__First$ = 8						; size = 4
__Last$ = 12						; size = 4
__Ptr$ = 16						; size = 4
??$_Umove@PAVioComplexStringPrinter@@@?$vector@VioComplexStringPrinter@@V?$allocator@VioComplexStringPrinter@@@std@@@std@@IAEPAVioComplexStringPrinter@@PAV2@00@Z PROC ; std::vector<ioComplexStringPrinter,std::allocator<ioComplexStringPrinter> >::_Umove<ioComplexStringPrinter *>, COMDAT
; _this$ = ecx

; 1322 : 		pointer _Umove(_Iter _First, _Iter _Last, pointer _Ptr)

  00000	55		 push	 ebp
  00001	8b ec		 mov	 ebp, esp

; 1323 : 		{	// move initializing [_First, _Last), using allocator
; 1324 : 		return (_Uninitialized_move(_First, _Last,
; 1325 : 			_Ptr, this->_Alval));

  00003	83 c1 0c	 add	 ecx, 12			; 0000000cH
  00006	51		 push	 ecx
  00007	ff 75 10	 push	 DWORD PTR __Ptr$[ebp]
  0000a	ff 75 0c	 push	 DWORD PTR __Last$[ebp]
  0000d	ff 75 08	 push	 DWORD PTR __First$[ebp]
  00010	e8 00 00 00 00	 call	 ??$_Uninitialized_move@PAVioComplexStringPrinter@@PAV1@V?$allocator@VioComplexStringPrinter@@@std@@@std@@YAPAVioComplexStringPrinter@@PAV1@00AAV?$allocator@VioComplexStringPrinter@@@0@@Z ; std::_Uninitialized_move<ioComplexStringPrinter *,ioComplexStringPrinter *,std::allocator<ioComplexStringPrinter> >
  00015	83 c4 10	 add	 esp, 16			; 00000010H

; 1326 : 		}

  00018	5d		 pop	 ebp
  00019	c2 0c 00	 ret	 12			; 0000000cH
??$_Umove@PAVioComplexStringPrinter@@@?$vector@VioComplexStringPrinter@@V?$allocator@VioComplexStringPrinter@@@std@@@std@@IAEPAVioComplexStringPrinter@@PAV2@00@Z ENDP ; std::vector<ioComplexStringPrinter,std::allocator<ioComplexStringPrinter> >::_Umove<ioComplexStringPrinter *>
_TEXT	ENDS
PUBLIC	?reserve@?$vector@VioComplexStringPrinter@@V?$allocator@VioComplexStringPrinter@@@std@@@std@@QAEXI@Z ; std::vector<ioComplexStringPrinter,std::allocator<ioComplexStringPrinter> >::reserve
;	COMDAT xdata$x
; File c:\program files (x86)\microsoft visual studio 10.0\vc\include\xmemory
xdata$x	SEGMENT
__catchsym$?reserve@?$vector@VioComplexStringPrinter@@V?$allocator@VioComplexStringPrinter@@@std@@@std@@QAEXI@Z$2 DD 040H
	DD	00H
	DD	00H
	DD	FLAT:__catch$?reserve@?$vector@VioComplexStringPrinter@@V?$allocator@VioComplexStringPrinter@@@std@@@std@@QAEXI@Z$0
__unwindtable$?reserve@?$vector@VioComplexStringPrinter@@V?$allocator@VioComplexStringPrinter@@@std@@@std@@QAEXI@Z DD 0ffffffffH
	DD	00H
	DD	0ffffffffH
	DD	00H
__tryblocktable$?reserve@?$vector@VioComplexStringPrinter@@V?$allocator@VioComplexStringPrinter@@@std@@@std@@QAEXI@Z DD 00H
	DD	00H
	DD	01H
	DD	01H
	DD	FLAT:__catchsym$?reserve@?$vector@VioComplexStringPrinter@@V?$allocator@VioComplexStringPrinter@@@std@@@std@@QAEXI@Z$2
__ehfuncinfo$?reserve@?$vector@VioComplexStringPrinter@@V?$allocator@VioComplexStringPrinter@@@std@@@std@@QAEXI@Z DD 019930522H
	DD	02H
	DD	FLAT:__unwindtable$?reserve@?$vector@VioComplexStringPrinter@@V?$allocator@VioComplexStringPrinter@@@std@@@std@@QAEXI@Z
	DD	01H
	DD	FLAT:__tryblocktable$?reserve@?$vector@VioComplexStringPrinter@@V?$allocator@VioComplexStringPrinter@@@std@@@std@@QAEXI@Z
	DD	2 DUP(00H)
	DD	00H
	DD	01H
; Function compile flags: /Ogsp
; File c:\program files (x86)\microsoft visual studio 10.0\vc\include\vector
xdata$x	ENDS
;	COMDAT ?reserve@?$vector@VioComplexStringPrinter@@V?$allocator@VioComplexStringPrinter@@@std@@@std@@QAEXI@Z
_TEXT	SEGMENT
tv300 = -24						; size = 4
__Ptr$536342 = -20					; size = 4
__$EHRec$ = -16						; size = 16
$T541176 = 8						; size = 4
__Count$ = 8						; size = 4
?reserve@?$vector@VioComplexStringPrinter@@V?$allocator@VioComplexStringPrinter@@@std@@@std@@QAEXI@Z PROC ; std::vector<ioComplexStringPrinter,std::allocator<ioComplexStringPrinter> >::reserve, COMDAT
; _this$ = ecx

; 746  : 		{	// determine new minimum length of allocated storage

  00000	6a 0c		 push	 12			; 0000000cH
  00002	b8 00 00 00 00	 mov	 eax, __ehhandler$?reserve@?$vector@VioComplexStringPrinter@@V?$allocator@VioComplexStringPrinter@@@std@@@std@@QAEXI@Z
  00007	e8 00 00 00 00	 call	 __EH_prolog3_catch
  0000c	8b f1		 mov	 esi, ecx

; 747  : 		if (max_size() < _Count)

  0000e	8b 5d 08	 mov	 ebx, DWORD PTR __Count$[ebp]
  00011	81 fb ff ff ff
	07		 cmp	 ebx, 134217727		; 07ffffffH
  00017	76 0b		 jbe	 SHORT $LN5@reserve

; 748  : 			_Xlen();	// result too long

  00019	68 00 00 00 00	 push	 OFFSET ??_C@_0BD@OLBABOEK@vector?$DMT?$DO?5too?5long?$AA@
  0001e	ff 15 00 00 00
	00		 call	 DWORD PTR __imp_?_Xlength_error@std@@YAXPBD@Z
$LN59@reserve:
$LN5@reserve:

; 749  : 		else if (capacity() < _Count)

  00024	8b 46 08	 mov	 eax, DWORD PTR [esi+8]
  00027	2b 06		 sub	 eax, DWORD PTR [esi]
  00029	c1 f8 05	 sar	 eax, 5
  0002c	3b c3		 cmp	 eax, ebx
  0002e	73 79		 jae	 SHORT $LN3@reserve

; 750  : 			{	// not enough room, reallocate
; 751  : 			pointer _Ptr = this->_Alval.allocate(_Count);

  00030	6a 00		 push	 0
  00032	53		 push	 ebx
  00033	e8 00 00 00 00	 call	 ??$_Allocate@VioComplexStringPrinter@@@std@@YAPAVioComplexStringPrinter@@IPAV1@@Z ; std::_Allocate<ioComplexStringPrinter>

; 752  : 
; 753  : 			_TRY_BEGIN
; 754  : 			_Umove(this->_Myfirst, this->_Mylast, _Ptr);

  00038	8b 0e		 mov	 ecx, DWORD PTR [esi]
  0003a	83 65 fc 00	 and	 DWORD PTR __$EHRec$[ebp+12], 0
  0003e	8d 56 0c	 lea	 edx, DWORD PTR [esi+12]
  00041	52		 push	 edx
  00042	89 45 ec	 mov	 DWORD PTR __Ptr$536342[ebp], eax
  00045	ff 75 ec	 push	 DWORD PTR __Ptr$536342[ebp]
  00048	8b 46 04	 mov	 eax, DWORD PTR [esi+4]
  0004b	50		 push	 eax
  0004c	51		 push	 ecx
  0004d	e8 00 00 00 00	 call	 ??$_Uninitialized_move@PAVioComplexStringPrinter@@PAV1@V?$allocator@VioComplexStringPrinter@@@std@@@std@@YAPAVioComplexStringPrinter@@PAV1@00AAV?$allocator@VioComplexStringPrinter@@@0@@Z ; std::_Uninitialized_move<ioComplexStringPrinter *,ioComplexStringPrinter *,std::allocator<ioComplexStringPrinter> >

; 758  : 			_CATCH_END
; 759  : 
; 760  : 			size_type _Size = size();

  00052	8b 4e 04	 mov	 ecx, DWORD PTR [esi+4]
  00055	8b 06		 mov	 eax, DWORD PTR [esi]
  00057	83 4d fc ff	 or	 DWORD PTR __$EHRec$[ebp+12], -1
  0005b	8b f9		 mov	 edi, ecx
  0005d	83 c4 18	 add	 esp, 24			; 00000018H
  00060	2b f8		 sub	 edi, eax
  00062	89 4d e8	 mov	 DWORD PTR tv300[ebp], ecx
  00065	85 c0		 test	 eax, eax
  00067	74 23		 je	 SHORT $LN51@reserve

; 761  : 			if (this->_Myfirst != 0)
; 762  : 				{	// destroy and deallocate old array
; 763  : 				_Destroy(this->_Myfirst, this->_Mylast);

  00069	89 45 08	 mov	 DWORD PTR $T541176[ebp], eax
  0006c	3b c1		 cmp	 eax, ecx
  0006e	74 14		 je	 SHORT $LN37@reserve
$LN39@reserve:
  00070	8b 4d 08	 mov	 ecx, DWORD PTR $T541176[ebp]
  00073	e8 00 00 00 00	 call	 ??1ioComplexStringPrinter@@QAE@XZ ; ioComplexStringPrinter::~ioComplexStringPrinter
  00078	83 45 08 20	 add	 DWORD PTR $T541176[ebp], 32 ; 00000020H
  0007c	8b 45 08	 mov	 eax, DWORD PTR $T541176[ebp]
  0007f	3b 45 e8	 cmp	 eax, DWORD PTR tv300[ebp]
  00082	75 ec		 jne	 SHORT $LN39@reserve
$LN37@reserve:

; 764  : 				this->_Alval.deallocate(this->_Myfirst,
; 765  : 					this->_Myend - this->_Myfirst);

  00084	ff 36		 push	 DWORD PTR [esi]
  00086	e8 00 00 00 00	 call	 ??3@YAXPAX@Z		; operator delete
  0008b	59		 pop	 ecx
$LN51@reserve:

; 766  : 				}
; 767  : 
; 768  : 			this->_Orphan_all();

  0008c	8b ce		 mov	 ecx, esi
  0008e	ff 15 00 00 00
	00		 call	 DWORD PTR __imp_?_Orphan_all@_Container_base0@std@@QAEXXZ

; 769  : 			this->_Myend = _Ptr + _Count;

  00094	8b 45 ec	 mov	 eax, DWORD PTR __Ptr$536342[ebp]
  00097	c1 e3 05	 shl	 ebx, 5
  0009a	03 d8		 add	 ebx, eax

; 770  : 			this->_Mylast = _Ptr + _Size;

  0009c	83 e7 e0	 and	 edi, -32		; ffffffe0H
  0009f	03 f8		 add	 edi, eax
  000a1	89 5e 08	 mov	 DWORD PTR [esi+8], ebx
  000a4	89 7e 04	 mov	 DWORD PTR [esi+4], edi

; 771  : 			this->_Myfirst = _Ptr;

  000a7	89 06		 mov	 DWORD PTR [esi], eax
$LN3@reserve:

; 772  : 			}
; 773  : 		}

  000a9	e8 00 00 00 00	 call	 __EH_epilog3
  000ae	c2 04 00	 ret	 4
__catch$?reserve@?$vector@VioComplexStringPrinter@@V?$allocator@VioComplexStringPrinter@@@std@@@std@@QAEXI@Z$0:

; 755  : 			_CATCH_ALL
; 756  : 			this->_Alval.deallocate(_Ptr, _Count);

  000b1	ff 75 ec	 push	 DWORD PTR __Ptr$536342[ebp]
  000b4	e8 00 00 00 00	 call	 ??3@YAXPAX@Z		; operator delete
  000b9	59		 pop	 ecx

; 757  : 			_RERAISE;

  000ba	6a 00		 push	 0
  000bc	6a 00		 push	 0
  000be	e8 00 00 00 00	 call	 __CxxThrowException@8
$LN60@reserve:
$LN58@reserve:
  000c3	cc		 int	 3
_TEXT	ENDS
;	COMDAT text$x
text$x	SEGMENT
__ehhandler$?reserve@?$vector@VioComplexStringPrinter@@V?$allocator@VioComplexStringPrinter@@@std@@@std@@QAEXI@Z:
  00000	8b 54 24 08	 mov	 edx, DWORD PTR [esp+8]
  00004	8d 42 0c	 lea	 eax, DWORD PTR [edx+12]
  00007	8b 4a e4	 mov	 ecx, DWORD PTR [edx-28]
  0000a	33 c8		 xor	 ecx, eax
  0000c	e8 00 00 00 00	 call	 @__security_check_cookie@4
  00011	b8 00 00 00 00	 mov	 eax, OFFSET __ehfuncinfo$?reserve@?$vector@VioComplexStringPrinter@@V?$allocator@VioComplexStringPrinter@@@std@@@std@@QAEXI@Z
  00016	e9 00 00 00 00	 jmp	 ___CxxFrameHandler3
text$x	ENDS
?reserve@?$vector@VioComplexStringPrinter@@V?$allocator@VioComplexStringPrinter@@@std@@@std@@QAEXI@Z ENDP ; std::vector<ioComplexStringPrinter,std::allocator<ioComplexStringPrinter> >::reserve
PUBLIC	?_Reserve@?$vector@VioComplexStringPrinter@@V?$allocator@VioComplexStringPrinter@@@std@@@std@@IAEXI@Z ; std::vector<ioComplexStringPrinter,std::allocator<ioComplexStringPrinter> >::_Reserve
; Function compile flags: /Ogsp
;	COMDAT ?_Reserve@?$vector@VioComplexStringPrinter@@V?$allocator@VioComplexStringPrinter@@@std@@@std@@IAEXI@Z
_TEXT	SEGMENT
__Count$ = 8						; size = 4
?_Reserve@?$vector@VioComplexStringPrinter@@V?$allocator@VioComplexStringPrinter@@@std@@@std@@IAEXI@Z PROC ; std::vector<ioComplexStringPrinter,std::allocator<ioComplexStringPrinter> >::_Reserve, COMDAT
; _this$ = ecx

; 1290 : 		{	// ensure room for _Count new elements, grow exponentially

  00000	55		 push	 ebp
  00001	8b ec		 mov	 ebp, esp
  00003	56		 push	 esi
  00004	8b f1		 mov	 esi, ecx

; 1291 : 		size_type _Size = size();

  00006	8b 0e		 mov	 ecx, DWORD PTR [esi]
  00008	8b 46 04	 mov	 eax, DWORD PTR [esi+4]
  0000b	2b c1		 sub	 eax, ecx

; 1292 : 		if (max_size() - _Count < _Size)

  0000d	ba ff ff ff 07	 mov	 edx, 134217727		; 07ffffffH
  00012	2b 55 08	 sub	 edx, DWORD PTR __Count$[ebp]
  00015	c1 f8 05	 sar	 eax, 5
  00018	3b d0		 cmp	 edx, eax
  0001a	73 0b		 jae	 SHORT $LN4@Reserve

; 1293 : 			_Xlen();

  0001c	68 00 00 00 00	 push	 OFFSET ??_C@_0BD@OLBABOEK@vector?$DMT?$DO?5too?5long?$AA@
  00021	ff 15 00 00 00
	00		 call	 DWORD PTR __imp_?_Xlength_error@std@@YAXPBD@Z
$LN21@Reserve:
$LN4@Reserve:

; 1294 : 		else if ((_Size += _Count) <= capacity())

  00027	8b 56 08	 mov	 edx, DWORD PTR [esi+8]
  0002a	03 45 08	 add	 eax, DWORD PTR __Count$[ebp]
  0002d	2b d1		 sub	 edx, ecx
  0002f	c1 fa 05	 sar	 edx, 5
  00032	3b c2		 cmp	 eax, edx
  00034	76 10		 jbe	 SHORT $LN1@Reserve

; 1295 : 			;
; 1296 : 		else
; 1297 : 			reserve(_Grow_to(_Size));

  00036	50		 push	 eax
  00037	8b ce		 mov	 ecx, esi
  00039	e8 00 00 00 00	 call	 ?_Grow_to@?$vector@VioComplexStringPrinter@@V?$allocator@VioComplexStringPrinter@@@std@@@std@@IBEII@Z ; std::vector<ioComplexStringPrinter,std::allocator<ioComplexStringPrinter> >::_Grow_to
  0003e	50		 push	 eax
  0003f	8b ce		 mov	 ecx, esi
  00041	e8 00 00 00 00	 call	 ?reserve@?$vector@VioComplexStringPrinter@@V?$allocator@VioComplexStringPrinter@@@std@@@std@@QAEXI@Z ; std::vector<ioComplexStringPrinter,std::allocator<ioComplexStringPrinter> >::reserve
$LN1@Reserve:
  00046	5e		 pop	 esi

; 1298 : 		}

  00047	5d		 pop	 ebp
  00048	c2 04 00	 ret	 4
$LN20@Reserve:
?_Reserve@?$vector@VioComplexStringPrinter@@V?$allocator@VioComplexStringPrinter@@@std@@@std@@IAEXI@Z ENDP ; std::vector<ioComplexStringPrinter,std::allocator<ioComplexStringPrinter> >::_Reserve
_TEXT	ENDS
PUBLIC	?push_back@?$vector@VioComplexStringPrinter@@V?$allocator@VioComplexStringPrinter@@@std@@@std@@QAEXABVioComplexStringPrinter@@@Z ; std::vector<ioComplexStringPrinter,std::allocator<ioComplexStringPrinter> >::push_back
; Function compile flags: /Ogsp
;	COMDAT ?push_back@?$vector@VioComplexStringPrinter@@V?$allocator@VioComplexStringPrinter@@@std@@@std@@QAEXABVioComplexStringPrinter@@@Z
_TEXT	SEGMENT
__Val$ = 8						; size = 4
?push_back@?$vector@VioComplexStringPrinter@@V?$allocator@VioComplexStringPrinter@@@std@@@std@@QAEXABVioComplexStringPrinter@@@Z PROC ; std::vector<ioComplexStringPrinter,std::allocator<ioComplexStringPrinter> >::push_back, COMDAT
; _this$ = ecx

; 976  : 		{	// insert element at end

  00000	55		 push	 ebp
  00001	8b ec		 mov	 ebp, esp
  00003	56		 push	 esi
  00004	8b f1		 mov	 esi, ecx

; 977  : 		if (_Inside(_STD addressof(_Val)))

  00006	8b 46 04	 mov	 eax, DWORD PTR [esi+4]
  00009	57		 push	 edi
  0000a	8b 7d 08	 mov	 edi, DWORD PTR __Val$[ebp]
  0000d	3b f8		 cmp	 edi, eax
  0000f	73 2d		 jae	 SHORT $LN4@push_back
  00011	8b 0e		 mov	 ecx, DWORD PTR [esi]
  00013	3b cf		 cmp	 ecx, edi
  00015	77 27		 ja	 SHORT $LN4@push_back

; 978  : 			{	// push back an element
; 979  : 			size_type _Idx = _STD addressof(_Val) - this->_Myfirst;

  00017	2b f9		 sub	 edi, ecx

; 980  : 			if (this->_Mylast == this->_Myend)

  00019	3b 46 08	 cmp	 eax, DWORD PTR [esi+8]
  0001c	75 09		 jne	 SHORT $LN3@push_back

; 981  : 				_Reserve(1);

  0001e	6a 01		 push	 1
  00020	8b ce		 mov	 ecx, esi
  00022	e8 00 00 00 00	 call	 ?_Reserve@?$vector@VioComplexStringPrinter@@V?$allocator@VioComplexStringPrinter@@@std@@@std@@IAEXI@Z ; std::vector<ioComplexStringPrinter,std::allocator<ioComplexStringPrinter> >::_Reserve
$LN3@push_back:

; 982  : 			_Orphan_range(this->_Mylast, this->_Mylast);
; 983  : 			_Cons_val(this->_Alval,
; 984  : 				this->_Mylast,
; 985  : 				this->_Myfirst[_Idx]);

  00027	83 e7 e0	 and	 edi, -32		; ffffffe0H
  0002a	03 3e		 add	 edi, DWORD PTR [esi]
  0002c	8d 46 0c	 lea	 eax, DWORD PTR [esi+12]
  0002f	57		 push	 edi
  00030	ff 76 04	 push	 DWORD PTR [esi+4]
  00033	50		 push	 eax
  00034	e8 00 00 00 00	 call	 ??$_Cons_val@V?$allocator@VioComplexStringPrinter@@@std@@VioComplexStringPrinter@@AAV3@@std@@YAXAAV?$allocator@VioComplexStringPrinter@@@0@PAVioComplexStringPrinter@@AAV2@@Z ; std::_Cons_val<std::allocator<ioComplexStringPrinter>,ioComplexStringPrinter,ioComplexStringPrinter &>
  00039	83 c4 0c	 add	 esp, 12			; 0000000cH

; 986  : 			++this->_Mylast;
; 987  : 			}
; 988  : 		else

  0003c	eb 19		 jmp	 SHORT $LN26@push_back
$LN4@push_back:

; 989  : 			{	// push back a non-element
; 990  : 			if (this->_Mylast == this->_Myend)

  0003e	3b 46 08	 cmp	 eax, DWORD PTR [esi+8]
  00041	75 09		 jne	 SHORT $LN1@push_back

; 991  : 				_Reserve(1);

  00043	6a 01		 push	 1
  00045	8b ce		 mov	 ecx, esi
  00047	e8 00 00 00 00	 call	 ?_Reserve@?$vector@VioComplexStringPrinter@@V?$allocator@VioComplexStringPrinter@@@std@@@std@@IAEXI@Z ; std::vector<ioComplexStringPrinter,std::allocator<ioComplexStringPrinter> >::_Reserve
$LN1@push_back:

; 992  : 			_Orphan_range(this->_Mylast, this->_Mylast);
; 993  : 			_Cons_val(this->_Alval,
; 994  : 				this->_Mylast,
; 995  : 				_Val);

  0004c	57		 push	 edi
  0004d	ff 76 04	 push	 DWORD PTR [esi+4]
  00050	e8 00 00 00 00	 call	 ??$_Construct@VioComplexStringPrinter@@ABV1@@std@@YAXPAVioComplexStringPrinter@@ABV1@@Z ; std::_Construct<ioComplexStringPrinter,ioComplexStringPrinter const &>
  00055	59		 pop	 ecx
  00056	59		 pop	 ecx
$LN26@push_back:

; 996  : 			++this->_Mylast;

  00057	83 46 04 20	 add	 DWORD PTR [esi+4], 32	; 00000020H
  0005b	5f		 pop	 edi
  0005c	5e		 pop	 esi

; 997  : 			}
; 998  : 		}

  0005d	5d		 pop	 ebp
  0005e	c2 04 00	 ret	 4
?push_back@?$vector@VioComplexStringPrinter@@V?$allocator@VioComplexStringPrinter@@@std@@@std@@QAEXABVioComplexStringPrinter@@@Z ENDP ; std::vector<ioComplexStringPrinter,std::allocator<ioComplexStringPrinter> >::push_back
_TEXT	ENDS
PUBLIC	__real@3f19999a
PUBLIC	__real@3f59999a
PUBLIC	??_C@_0CO@PHGIOKK@ioAccessoryInfoManager?3?3OnAccess@ ; `string'
PUBLIC	?OnAccessorySellResult@ioAccessoryInfoManager@@QAEXAAVSP2Packet@@@Z ; ioAccessoryInfoManager::OnAccessorySellResult
EXTRN	?ShowItemRecvSellInfoWnd@MyInventoryWnd@@QAEXHHVioHashString@@ABV?$vector@VioComplexStringPrinter@@V?$allocator@VioComplexStringPrinter@@@std@@@std@@1HH_N2H@Z:PROC ; MyInventoryWnd::ShowItemRecvSellInfoWnd
EXTRN	__imp_??0ioHashString@@QAE@ABV0@@Z:PROC
EXTRN	?AddTextPiece@ioComplexStringPrinter@@QAEXMPBD0@Z:PROC ; ioComplexStringPrinter::AddTextPiece
EXTRN	__imp_?c_str@ioHashString@@QBEPBDXZ:PROC
EXTRN	?SetTextColor@ioComplexStringPrinter@@QAEXK@Z:PROC ; ioComplexStringPrinter::SetTextColor
EXTRN	?SetBkColor@ioComplexStringPrinter@@QAEXHHH@Z:PROC ; ioComplexStringPrinter::SetBkColor
EXTRN	?SetTextStyle@ioComplexStringPrinter@@QAEXW4TextStyle@@@Z:PROC ; ioComplexStringPrinter::SetTextStyle
EXTRN	??0ioComplexStringPrinter@@QAE@XZ:PROC		; ioComplexStringPrinter::ioComplexStringPrinter
EXTRN	?ConvertNumToStrComma@Help@@YAXHPADH@Z:PROC	; Help::ConvertNumToStrComma
EXTRN	?DeleteAccessory@ioMyInfo@@QAE_NH@Z:PROC	; ioMyInfo::DeleteAccessory
EXTRN	?GetItemConst@ioItemMaker@@QBEPBVioItem@@KABVioHashString@@@Z:PROC ; ioItemMaker::GetItemConst
EXTRN	?GetSingleton@ioItemMaker@@SAAAV1@XZ:PROC	; ioItemMaker::GetSingleton
EXTRN	__imp_??0ioHashString@@QAE@PBD@Z:PROC
EXTRN	?GetAccessorySlot@ioUserAccessory@@QAE_NHAAUtagAccessorySlot@@@Z:PROC ; ioUserAccessory::GetAccessorySlot
EXTRN	_memset:PROC
;	COMDAT __real@3f19999a
CONST	SEGMENT
__real@3f19999a DD 03f19999ar			; 0.6
CONST	ENDS
;	COMDAT __real@3f59999a
CONST	SEGMENT
__real@3f59999a DD 03f59999ar			; 0.85
CONST	ENDS
;	COMDAT ??_C@_0CO@PHGIOKK@ioAccessoryInfoManager?3?3OnAccess@
CONST	SEGMENT
??_C@_0CO@PHGIOKK@ioAccessoryInfoManager?3?3OnAccess@ DB 'ioAccessoryInfo'
	DB	'Manager::OnAccessorySellResult', 00H	; `string'
CONST	ENDS
;	COMDAT xdata$x
xdata$x	SEGMENT
__ehfuncinfo$?OnAccessorySellResult@ioAccessoryInfoManager@@QAEXAAVSP2Packet@@@Z DD 019930522H
	DD	0aH
	DD	FLAT:__unwindtable$?OnAccessorySellResult@ioAccessoryInfoManager@@QAEXAAVSP2Packet@@@Z
	DD	2 DUP(00H)
	DD	2 DUP(00H)
	DD	00H
	DD	01H
__unwindtable$?OnAccessorySellResult@ioAccessoryInfoManager@@QAEXAAVSP2Packet@@@Z DD 0ffffffffH
	DD	FLAT:__unwindfunclet$?OnAccessorySellResult@ioAccessoryInfoManager@@QAEXAAVSP2Packet@@@Z$0
	DD	00H
	DD	FLAT:__unwindfunclet$?OnAccessorySellResult@ioAccessoryInfoManager@@QAEXAAVSP2Packet@@@Z$1
	DD	01H
	DD	FLAT:__unwindfunclet$?OnAccessorySellResult@ioAccessoryInfoManager@@QAEXAAVSP2Packet@@@Z$2
	DD	02H
	DD	FLAT:__unwindfunclet$?OnAccessorySellResult@ioAccessoryInfoManager@@QAEXAAVSP2Packet@@@Z$3
	DD	01H
	DD	FLAT:__unwindfunclet$?OnAccessorySellResult@ioAccessoryInfoManager@@QAEXAAVSP2Packet@@@Z$4
	DD	04H
	DD	FLAT:__unwindfunclet$?OnAccessorySellResult@ioAccessoryInfoManager@@QAEXAAVSP2Packet@@@Z$5
	DD	05H
	DD	FLAT:__unwindfunclet$?OnAccessorySellResult@ioAccessoryInfoManager@@QAEXAAVSP2Packet@@@Z$6
	DD	06H
	DD	FLAT:__unwindfunclet$?OnAccessorySellResult@ioAccessoryInfoManager@@QAEXAAVSP2Packet@@@Z$7
	DD	07H
	DD	FLAT:__unwindfunclet$?OnAccessorySellResult@ioAccessoryInfoManager@@QAEXAAVSP2Packet@@@Z$8
	DD	08H
	DD	FLAT:__unwindfunclet$?OnAccessorySellResult@ioAccessoryInfoManager@@QAEXAAVSP2Packet@@@Z$9
; Function compile flags: /Ogsp
; File d:\lost saga for developer\youtube\tutorial\source\src\lsclient\ioaccessoryinfomanager.cpp
xdata$x	ENDS
;	COMDAT ?OnAccessorySellResult@ioAccessoryInfoManager@@QAEXAAVSP2Packet@@@Z
_TEXT	SEGMENT
_kSlot$536039 = -568					; size = 68
_kTitle2$536056 = -500					; size = 32
_kDesc1$536058 = -468					; size = 32
_kTitle1$536054 = -436					; size = 32
_kDesc2$536060 = -404					; size = 32
_szIconName$536034 = -372				; size = 16
_iPeso$536032 = -356					; size = 8
_szItemName$536033 = -348				; size = 16
_vDesc$536053 = -332					; size = 16
_pInvenWnd$536048 = -316				; size = 4
_vTitle$536052 = -312					; size = 16
$T541311 = -312						; size = 16
_iGradeType$536036 = -296				; size = 4
_iAddPeso$536031 = -292					; size = 4
_bCustom$536035 = -288					; size = 1
$T541312 = -288						; size = 4
_iSlotIndex$536030 = -284				; size = 4
_eResult$ = -277					; size = 1
_szConvertNum$536051 = -276				; size = 260
__$EHRec$ = -12						; size = 12
_rkPacket$ = 8						; size = 4
?OnAccessorySellResult@ioAccessoryInfoManager@@QAEXAAVSP2Packet@@@Z PROC ; ioAccessoryInfoManager::OnAccessorySellResult, COMDAT
; _this$ = ecx

; 97   : {

  00000	68 2c 02 00 00	 push	 556			; 0000022cH
  00005	b8 00 00 00 00	 mov	 eax, __ehhandler$?OnAccessorySellResult@ioAccessoryInfoManager@@QAEXAAVSP2Packet@@@Z
  0000a	e8 00 00 00 00	 call	 __EH_prolog3_GS
  0000f	8b 75 08	 mov	 esi, DWORD PTR _rkPacket$[ebp]

; 98   : 	TCPNetwork::MouseBusy( false );

  00012	33 db		 xor	 ebx, ebx
  00014	53		 push	 ebx
  00015	e8 00 00 00 00	 call	 ?MouseBusy@TCPNetwork@@YAX_N@Z ; TCPNetwork::MouseBusy
  0001a	59		 pop	 ecx

; 99   : 
; 100  : 	byte eResult;
; 101  : 	rkPacket >> eResult;

  0001b	8d 85 eb fe ff
	ff		 lea	 eax, DWORD PTR _eResult$[ebp]
  00021	50		 push	 eax
  00022	8b ce		 mov	 ecx, esi
  00024	e8 00 00 00 00	 call	 ??5SP2Packet@@QAEAAV0@AAE@Z ; SP2Packet::operator>>

; 102  : 
; 103  : 	if( eResult == ACCESSORY_SELL_OK )

  00029	80 bd eb fe ff
	ff 01		 cmp	 BYTE PTR _eResult$[ebp], 1
  00030	0f 85 0b 05 00
	00		 jne	 $LN9@OnAccessor@4

; 104  : 	{
; 105  : 		int iSlotIndex = 0;
; 106  : 		int iAddPeso = 0;
; 107  : 		__int64 iPeso;
; 108  : 		rkPacket >> iSlotIndex;

  00036	8d 85 e4 fe ff
	ff		 lea	 eax, DWORD PTR _iSlotIndex$536030[ebp]
  0003c	50		 push	 eax
  0003d	8b ce		 mov	 ecx, esi
  0003f	89 9d e4 fe ff
	ff		 mov	 DWORD PTR _iSlotIndex$536030[ebp], ebx
  00045	89 9d dc fe ff
	ff		 mov	 DWORD PTR _iAddPeso$536031[ebp], ebx
  0004b	e8 00 00 00 00	 call	 ??5SP2Packet@@QAEAAV0@AAH@Z ; SP2Packet::operator>>

; 109  : 		rkPacket >> iAddPeso;

  00050	8d 85 dc fe ff
	ff		 lea	 eax, DWORD PTR _iAddPeso$536031[ebp]
  00056	50		 push	 eax
  00057	8b ce		 mov	 ecx, esi
  00059	e8 00 00 00 00	 call	 ??5SP2Packet@@QAEAAV0@AAH@Z ; SP2Packet::operator>>

; 110  : 		rkPacket >> iPeso;

  0005e	8d 85 9c fe ff
	ff		 lea	 eax, DWORD PTR _iPeso$536032[ebp]
  00064	50		 push	 eax
  00065	8b ce		 mov	 ecx, esi
  00067	e8 00 00 00 00	 call	 ??5SP2Packet@@QAEAAV0@AA_J@Z ; SP2Packet::operator>>

; 111  : 
; 112  : 		g_MyInfo.SetMoney( iPeso );

  0006c	ff b5 a0 fe ff
	ff		 push	 DWORD PTR _iPeso$536032[ebp+4]
  00072	ff b5 9c fe ff
	ff		 push	 DWORD PTR _iPeso$536032[ebp]
  00078	e8 00 00 00 00	 call	 ?GetSingleton@ioMyInfo@@SAAAV1@XZ ; ioMyInfo::GetSingleton
  0007d	8b c8		 mov	 ecx, eax
  0007f	e8 00 00 00 00	 call	 ?SetMoney@ioMyInfo@@QAEX_J@Z ; ioMyInfo::SetMoney

; 113  : 
; 114  : 		ioHashString szItemName;

  00084	8b 35 00 00 00
	00		 mov	 esi, DWORD PTR __imp_??0ioHashString@@QAE@XZ
  0008a	8d 8d a4 fe ff
	ff		 lea	 ecx, DWORD PTR _szItemName$536033[ebp]
  00090	ff d6		 call	 esi

; 115  : 		ioHashString szIconName;

  00092	8d 8d 8c fe ff
	ff		 lea	 ecx, DWORD PTR _szIconName$536034[ebp]
  00098	89 5d fc	 mov	 DWORD PTR __$EHRec$[ebp+8], ebx
  0009b	ff d6		 call	 esi
  0009d	c6 45 fc 01	 mov	 BYTE PTR __$EHRec$[ebp+8], 1

; 116  : 		bool bCustom = false;

  000a1	88 9d e0 fe ff
	ff		 mov	 BYTE PTR _bCustom$536035[ebp], bl

; 117  : 		int iGradeType = 0;

  000a7	89 9d d8 fe ff
	ff		 mov	 DWORD PTR _iGradeType$536036[ebp], ebx

; 118  : 
; 119  : 		ioUserAccessory *pAccessory = g_MyInfo.GetUserAccessory();

  000ad	e8 00 00 00 00	 call	 ?GetSingleton@ioMyInfo@@SAAAV1@XZ ; ioMyInfo::GetSingleton
  000b2	8d b8 fc 02 00
	00		 lea	 edi, DWORD PTR [eax+764]

; 120  : 		if( pAccessory )

  000b8	be 00 00 00 00	 mov	 esi, OFFSET ??_C@_0CO@PHGIOKK@ioAccessoryInfoManager?3?3OnAccess@
  000bd	3b fb		 cmp	 edi, ebx
  000bf	0f 84 c1 00 00
	00		 je	 $LN8@OnAccessor@4

; 121  : 		{
; 122  : 			AccessorySlot kSlot;

  000c5	8d 8d c8 fd ff
	ff		 lea	 ecx, DWORD PTR _kSlot$536039[ebp]
  000cb	e8 00 00 00 00	 call	 ??0tagAccessorySlot@@QAE@XZ ; tagAccessorySlot::tagAccessorySlot

; 123  : 			if( pAccessory->GetAccessorySlot( iSlotIndex, kSlot ) )

  000d0	8d 85 c8 fd ff
	ff		 lea	 eax, DWORD PTR _kSlot$536039[ebp]
  000d6	50		 push	 eax
  000d7	ff b5 e4 fe ff
	ff		 push	 DWORD PTR _iSlotIndex$536030[ebp]
  000dd	8b cf		 mov	 ecx, edi
  000df	c6 45 fc 02	 mov	 BYTE PTR __$EHRec$[ebp+8], 2
  000e3	e8 00 00 00 00	 call	 ?GetAccessorySlot@ioUserAccessory@@QAE_NHAAUtagAccessorySlot@@@Z ; ioUserAccessory::GetAccessorySlot
  000e8	84 c0		 test	 al, al
  000ea	0f 84 87 00 00
	00		 je	 $LN25@OnAccessor@4

; 124  : 			{
; 125  : 				szItemName = kSlot.m_Name;

  000f0	8b 3d 00 00 00
	00		 mov	 edi, DWORD PTR __imp_??4ioHashString@@QAEAAV0@ABV0@@Z
  000f6	8d 85 ec fd ff
	ff		 lea	 eax, DWORD PTR _kSlot$536039[ebp+36]
  000fc	50		 push	 eax
  000fd	8d 8d a4 fe ff
	ff		 lea	 ecx, DWORD PTR _szItemName$536033[ebp]
  00103	ff d7		 call	 edi

; 126  : 				szIconName = kSlot.m_IconName;

  00105	8d 85 fc fd ff
	ff		 lea	 eax, DWORD PTR _kSlot$536039[ebp+52]
  0010b	50		 push	 eax
  0010c	8d 8d 8c fe ff
	ff		 lea	 ecx, DWORD PTR _szIconName$536034[ebp]
  00112	ff d7		 call	 edi

; 127  : 
; 128  : 				if( kSlot.m_dwMaleCustom > 0 || kSlot.m_dwFemaleCustom > 0 )

  00114	39 9d e0 fd ff
	ff		 cmp	 DWORD PTR _kSlot$536039[ebp+24], ebx
  0011a	77 08		 ja	 SHORT $LN5@OnAccessor@4
  0011c	39 9d e4 fd ff
	ff		 cmp	 DWORD PTR _kSlot$536039[ebp+28], ebx
  00122	76 07		 jbe	 SHORT $LN6@OnAccessor@4
$LN5@OnAccessor@4:

; 129  : 					bCustom = true;

  00124	c6 85 e0 fe ff
	ff 01		 mov	 BYTE PTR _bCustom$536035[ebp], 1
$LN6@OnAccessor@4:

; 130  : 
; 131  : 				const ioItem* pItem = g_ItemMaker.GetItemConst( kSlot.m_iAccessoryCode, __FUNCTION__ );

  0012b	56		 push	 esi
  0012c	8d 8d c8 fe ff
	ff		 lea	 ecx, DWORD PTR $T541311[ebp]
  00132	ff 15 00 00 00
	00		 call	 DWORD PTR __imp_??0ioHashString@@QAE@PBD@Z
  00138	8d 85 c8 fe ff
	ff		 lea	 eax, DWORD PTR $T541311[ebp]
  0013e	50		 push	 eax
  0013f	ff b5 c8 fd ff
	ff		 push	 DWORD PTR _kSlot$536039[ebp]
  00145	c6 45 fc 03	 mov	 BYTE PTR __$EHRec$[ebp+8], 3
  00149	e8 00 00 00 00	 call	 ?GetSingleton@ioItemMaker@@SAAAV1@XZ ; ioItemMaker::GetSingleton
  0014e	8b c8		 mov	 ecx, eax
  00150	e8 00 00 00 00	 call	 ?GetItemConst@ioItemMaker@@QBEPBVioItem@@KABVioHashString@@@Z ; ioItemMaker::GetItemConst
  00155	8d 8d c8 fe ff
	ff		 lea	 ecx, DWORD PTR $T541311[ebp]
  0015b	8b f8		 mov	 edi, eax
  0015d	c6 45 fc 02	 mov	 BYTE PTR __$EHRec$[ebp+8], 2
  00161	ff 15 00 00 00
	00		 call	 DWORD PTR __imp_??1ioHashString@@QAE@XZ

; 132  : 				if ( pItem )

  00167	3b fb		 cmp	 edi, ebx
  00169	74 0c		 je	 SHORT $LN25@OnAccessor@4

; 133  : 					iGradeType = pItem->GetGradeType();

  0016b	8b 87 20 06 00
	00		 mov	 eax, DWORD PTR [edi+1568]
  00171	89 85 d8 fe ff
	ff		 mov	 DWORD PTR _iGradeType$536036[ebp], eax
$LN25@OnAccessor@4:

; 134  : 			}
; 135  : 		}

  00177	8d 8d c8 fd ff
	ff		 lea	 ecx, DWORD PTR _kSlot$536039[ebp]
  0017d	c6 45 fc 01	 mov	 BYTE PTR __$EHRec$[ebp+8], 1
  00181	e8 00 00 00 00	 call	 ??1tagAccessorySlot@@QAE@XZ
$LN8@OnAccessor@4:

; 136  : 
; 137  : 		//  
; 138  : 		if( !g_MyInfo.DeleteAccessory( iSlotIndex ) )

  00186	ff b5 e4 fe ff
	ff		 push	 DWORD PTR _iSlotIndex$536030[ebp]
  0018c	e8 00 00 00 00	 call	 ?GetSingleton@ioMyInfo@@SAAAV1@XZ ; ioMyInfo::GetSingleton
  00191	8b c8		 mov	 ecx, eax
  00193	e8 00 00 00 00	 call	 ?DeleteAccessory@ioMyInfo@@QAE_NH@Z ; ioMyInfo::DeleteAccessory

; 139  : 		{
; 140  : 			g_GUIMgr.SetMsgBox( MB_OK, NULL, STR(1) );

  00198	53		 push	 ebx
  00199	84 c0		 test	 al, al
  0019b	75 2c		 jne	 SHORT $LN3@OnAccessor@4
  0019d	6a 01		 push	 1
  0019f	68 00 00 00 00	 push	 OFFSET ??_C@_00CNPNBAHC@?$AA@
  001a4	56		 push	 esi
  001a5	ff 15 00 00 00
	00		 call	 DWORD PTR __imp_?GetSingleton@ioStringManager@@SAAAV1@XZ
  001ab	8b c8		 mov	 ecx, eax
  001ad	ff 15 00 00 00
	00		 call	 DWORD PTR __imp_?GetString@ioStringManager@@QAEPADPBD0HW4FileNamePrefix@1@@Z
  001b3	50		 push	 eax
  001b4	53		 push	 ebx
  001b5	53		 push	 ebx
  001b6	e8 00 00 00 00	 call	 ?GetSingleton@ioSP2GUIManager@@SAAAV1@XZ ; ioSP2GUIManager::GetSingleton
  001bb	50		 push	 eax
  001bc	e8 00 00 00 00	 call	 ?SetMsgBox@ioSP2GUIManager@@QAAXHPAVioWnd@@PBDZZ ; ioSP2GUIManager::SetMsgBox
  001c1	83 c4 10	 add	 esp, 16			; 00000010H

; 141  : 			return;

  001c4	e9 59 03 00 00	 jmp	 $LN47@OnAccessor@4
$LN3@OnAccessor@4:

; 142  : 		}
; 143  : 
; 144  : 		// UI 
; 145  : 		MyInventoryWnd *pInvenWnd = dynamic_cast<MyInventoryWnd*> ( g_GUIMgr.FindWnd( MY_INVENTORY_WND ) );

  001c9	68 00 00 00 00	 push	 OFFSET ??_R0?AVMyInventoryWnd@@@8
  001ce	68 00 00 00 00	 push	 OFFSET ??_R0?AVioWnd@@@8
  001d3	53		 push	 ebx
  001d4	68 96 17 00 00	 push	 6038			; 00001796H
  001d9	e8 00 00 00 00	 call	 ?GetSingleton@ioSP2GUIManager@@SAAAV1@XZ ; ioSP2GUIManager::GetSingleton
  001de	8b c8		 mov	 ecx, eax
  001e0	ff 15 00 00 00
	00		 call	 DWORD PTR __imp_?FindWnd@ioGUIManager@@QAEPAVioWnd@@K@Z
  001e6	50		 push	 eax
  001e7	e8 00 00 00 00	 call	 ___RTDynamicCast
  001ec	8b f8		 mov	 edi, eax
  001ee	83 c4 14	 add	 esp, 20			; 00000014H
  001f1	89 bd c4 fe ff
	ff		 mov	 DWORD PTR _pInvenWnd$536048[ebp], edi

; 146  : 		if( pInvenWnd && pInvenWnd->IsShow() )

  001f7	3b fb		 cmp	 edi, ebx
  001f9	0f 84 23 03 00
	00		 je	 $LN47@OnAccessor@4
  001ff	8b cf		 mov	 ecx, edi
  00201	ff 15 00 00 00
	00		 call	 DWORD PTR __imp_?IsShow@ioWnd@@QBE_NXZ
  00207	84 c0		 test	 al, al
  00209	0f 84 13 03 00
	00		 je	 $LN47@OnAccessor@4

; 147  : 		{
; 148  : 			pInvenWnd->UpdateTab( false, true );

  0020f	6a 01		 push	 1
  00211	6a 01		 push	 1
  00213	53		 push	 ebx
  00214	8b cf		 mov	 ecx, edi
  00216	e8 00 00 00 00	 call	 ?UpdateTab@MyInventoryWnd@@QAEX_N00@Z ; MyInventoryWnd::UpdateTab

; 149  : 
; 150  : 			char szConvertNum[MAX_PATH] = "";

  0021b	68 03 01 00 00	 push	 259			; 00000103H
  00220	8d 85 ed fe ff
	ff		 lea	 eax, DWORD PTR _szConvertNum$536051[ebp+1]
  00226	53		 push	 ebx
  00227	50		 push	 eax
  00228	88 9d ec fe ff
	ff		 mov	 BYTE PTR _szConvertNum$536051[ebp], bl
  0022e	e8 00 00 00 00	 call	 _memset

; 151  : 			Help::ConvertNumToStrComma( iAddPeso, szConvertNum, sizeof( szConvertNum ) );

  00233	68 04 01 00 00	 push	 260			; 00000104H
  00238	8d 85 ec fe ff
	ff		 lea	 eax, DWORD PTR _szConvertNum$536051[ebp]
  0023e	50		 push	 eax
  0023f	ff b5 dc fe ff
	ff		 push	 DWORD PTR _iAddPeso$536031[ebp]
  00245	e8 00 00 00 00	 call	 ?ConvertNumToStrComma@Help@@YAXHPADH@Z ; Help::ConvertNumToStrComma
  0024a	83 c4 18	 add	 esp, 24			; 00000018H

; 152  : 
; 153  : 			ComplexStringPrinterVec vTitle;

  0024d	89 9d c8 fe ff
	ff		 mov	 DWORD PTR _vTitle$536052[ebp], ebx
  00253	89 9d cc fe ff
	ff		 mov	 DWORD PTR _vTitle$536052[ebp+4], ebx
  00259	89 9d d0 fe ff
	ff		 mov	 DWORD PTR _vTitle$536052[ebp+8], ebx

; 154  : 			ComplexStringPrinterVec vDesc;

  0025f	89 9d b4 fe ff
	ff		 mov	 DWORD PTR _vDesc$536053[ebp], ebx
  00265	89 9d b8 fe ff
	ff		 mov	 DWORD PTR _vDesc$536053[ebp+4], ebx
  0026b	89 9d bc fe ff
	ff		 mov	 DWORD PTR _vDesc$536053[ebp+8], ebx

; 155  : 
; 156  : 			ioComplexStringPrinter kTitle1;

  00271	8d 8d 4c fe ff
	ff		 lea	 ecx, DWORD PTR _kTitle1$536054[ebp]
  00277	c6 45 fc 05	 mov	 BYTE PTR __$EHRec$[ebp+8], 5
  0027b	e8 00 00 00 00	 call	 ??0ioComplexStringPrinter@@QAE@XZ ; ioComplexStringPrinter::ioComplexStringPrinter

; 157  : 			kTitle1.SetTextStyle( TS_NORMAL );

  00280	53		 push	 ebx
  00281	8d 8d 4c fe ff
	ff		 lea	 ecx, DWORD PTR _kTitle1$536054[ebp]
  00287	c6 45 fc 06	 mov	 BYTE PTR __$EHRec$[ebp+8], 6
  0028b	e8 00 00 00 00	 call	 ?SetTextStyle@ioComplexStringPrinter@@QAEXW4TextStyle@@@Z ; ioComplexStringPrinter::SetTextStyle

; 158  : 			kTitle1.SetBkColor( 0, 0, 0 );

  00290	53		 push	 ebx
  00291	53		 push	 ebx
  00292	53		 push	 ebx
  00293	8d 8d 4c fe ff
	ff		 lea	 ecx, DWORD PTR _kTitle1$536054[ebp]
  00299	e8 00 00 00 00	 call	 ?SetBkColor@ioComplexStringPrinter@@QAEXHHH@Z ; ioComplexStringPrinter::SetBkColor

; 159  : 			kTitle1.SetTextColor( TCT_DEFAULT_DARKGRAY );

  0029e	68 3a 3a 3a ff	 push	 -12961222		; ff3a3a3aH
  002a3	8d 8d 4c fe ff
	ff		 lea	 ecx, DWORD PTR _kTitle1$536054[ebp]
  002a9	e8 00 00 00 00	 call	 ?SetTextColor@ioComplexStringPrinter@@QAEXK@Z ; ioComplexStringPrinter::SetTextColor

; 160  : 			kTitle1.AddTextPiece( FONT_SIZE_17, STR(2), szItemName.c_str() );

  002ae	8d 8d a4 fe ff
	ff		 lea	 ecx, DWORD PTR _szItemName$536033[ebp]
  002b4	ff 15 00 00 00
	00		 call	 DWORD PTR __imp_?c_str@ioHashString@@QBEPBDXZ
  002ba	8b 3d 00 00 00
	00		 mov	 edi, DWORD PTR __imp_?GetSingleton@ioStringManager@@SAAAV1@XZ
  002c0	50		 push	 eax
  002c1	53		 push	 ebx
  002c2	6a 02		 push	 2
  002c4	68 00 00 00 00	 push	 OFFSET ??_C@_00CNPNBAHC@?$AA@
  002c9	56		 push	 esi
  002ca	ff d7		 call	 edi
  002cc	8b c8		 mov	 ecx, eax
  002ce	ff 15 00 00 00
	00		 call	 DWORD PTR __imp_?GetString@ioStringManager@@QAEPADPBD0HW4FileNamePrefix@1@@Z
  002d4	f3 0f 10 05 00
	00 00 00	 movss	 xmm0, DWORD PTR __real@3f59999a
  002dc	50		 push	 eax
  002dd	51		 push	 ecx
  002de	8d 8d 4c fe ff
	ff		 lea	 ecx, DWORD PTR _kTitle1$536054[ebp]
  002e4	f3 0f 11 04 24	 movss	 DWORD PTR [esp], xmm0
  002e9	e8 00 00 00 00	 call	 ?AddTextPiece@ioComplexStringPrinter@@QAEXMPBD0@Z ; ioComplexStringPrinter::AddTextPiece

; 161  : 			vTitle.push_back( kTitle1 );

  002ee	8d 85 4c fe ff
	ff		 lea	 eax, DWORD PTR _kTitle1$536054[ebp]
  002f4	50		 push	 eax
  002f5	8d 8d c8 fe ff
	ff		 lea	 ecx, DWORD PTR _vTitle$536052[ebp]
  002fb	e8 00 00 00 00	 call	 ?push_back@?$vector@VioComplexStringPrinter@@V?$allocator@VioComplexStringPrinter@@@std@@@std@@QAEXABVioComplexStringPrinter@@@Z ; std::vector<ioComplexStringPrinter,std::allocator<ioComplexStringPrinter> >::push_back

; 162  : 
; 163  : 			ioComplexStringPrinter kTitle2;

  00300	8d 8d 0c fe ff
	ff		 lea	 ecx, DWORD PTR _kTitle2$536056[ebp]
  00306	e8 00 00 00 00	 call	 ??0ioComplexStringPrinter@@QAE@XZ ; ioComplexStringPrinter::ioComplexStringPrinter

; 164  : 			kTitle2.SetTextStyle( TS_NORMAL );

  0030b	53		 push	 ebx
  0030c	8d 8d 0c fe ff
	ff		 lea	 ecx, DWORD PTR _kTitle2$536056[ebp]
  00312	c6 45 fc 07	 mov	 BYTE PTR __$EHRec$[ebp+8], 7
  00316	e8 00 00 00 00	 call	 ?SetTextStyle@ioComplexStringPrinter@@QAEXW4TextStyle@@@Z ; ioComplexStringPrinter::SetTextStyle

; 165  : 			kTitle2.SetBkColor( 0, 0, 0 );

  0031b	53		 push	 ebx
  0031c	53		 push	 ebx
  0031d	53		 push	 ebx
  0031e	8d 8d 0c fe ff
	ff		 lea	 ecx, DWORD PTR _kTitle2$536056[ebp]
  00324	e8 00 00 00 00	 call	 ?SetBkColor@ioComplexStringPrinter@@QAEXHHH@Z ; ioComplexStringPrinter::SetBkColor

; 166  : 			kTitle2.SetTextColor( TCT_DEFAULT_DARKGRAY );

  00329	68 3a 3a 3a ff	 push	 -12961222		; ff3a3a3aH
  0032e	8d 8d 0c fe ff
	ff		 lea	 ecx, DWORD PTR _kTitle2$536056[ebp]
  00334	e8 00 00 00 00	 call	 ?SetTextColor@ioComplexStringPrinter@@QAEXK@Z ; ioComplexStringPrinter::SetTextColor

; 167  : 			kTitle2.AddTextPiece( FONT_SIZE_17, STR(3), szConvertNum );

  00339	8d 85 ec fe ff
	ff		 lea	 eax, DWORD PTR _szConvertNum$536051[ebp]
  0033f	50		 push	 eax
  00340	53		 push	 ebx
  00341	6a 03		 push	 3
  00343	68 00 00 00 00	 push	 OFFSET ??_C@_00CNPNBAHC@?$AA@
  00348	56		 push	 esi
  00349	ff d7		 call	 edi
  0034b	8b c8		 mov	 ecx, eax
  0034d	ff 15 00 00 00
	00		 call	 DWORD PTR __imp_?GetString@ioStringManager@@QAEPADPBD0HW4FileNamePrefix@1@@Z
  00353	f3 0f 10 05 00
	00 00 00	 movss	 xmm0, DWORD PTR __real@3f59999a
  0035b	50		 push	 eax
  0035c	51		 push	 ecx
  0035d	8d 8d 0c fe ff
	ff		 lea	 ecx, DWORD PTR _kTitle2$536056[ebp]
  00363	f3 0f 11 04 24	 movss	 DWORD PTR [esp], xmm0
  00368	e8 00 00 00 00	 call	 ?AddTextPiece@ioComplexStringPrinter@@QAEXMPBD0@Z ; ioComplexStringPrinter::AddTextPiece

; 168  : 			vTitle.push_back( kTitle2 );

  0036d	8d 85 0c fe ff
	ff		 lea	 eax, DWORD PTR _kTitle2$536056[ebp]
  00373	50		 push	 eax
  00374	8d 8d c8 fe ff
	ff		 lea	 ecx, DWORD PTR _vTitle$536052[ebp]
  0037a	e8 00 00 00 00	 call	 ?push_back@?$vector@VioComplexStringPrinter@@V?$allocator@VioComplexStringPrinter@@@std@@@std@@QAEXABVioComplexStringPrinter@@@Z ; std::vector<ioComplexStringPrinter,std::allocator<ioComplexStringPrinter> >::push_back

; 169  : 
; 170  : 			ioComplexStringPrinter kDesc1;

  0037f	8d 8d 2c fe ff
	ff		 lea	 ecx, DWORD PTR _kDesc1$536058[ebp]
  00385	e8 00 00 00 00	 call	 ??0ioComplexStringPrinter@@QAE@XZ ; ioComplexStringPrinter::ioComplexStringPrinter

; 171  : 			kDesc1.SetTextStyle( TS_NORMAL );

  0038a	53		 push	 ebx
  0038b	8d 8d 2c fe ff
	ff		 lea	 ecx, DWORD PTR _kDesc1$536058[ebp]
  00391	c6 45 fc 08	 mov	 BYTE PTR __$EHRec$[ebp+8], 8
  00395	e8 00 00 00 00	 call	 ?SetTextStyle@ioComplexStringPrinter@@QAEXW4TextStyle@@@Z ; ioComplexStringPrinter::SetTextStyle

; 172  : 			kDesc1.SetBkColor( 0, 0, 0 );	

  0039a	53		 push	 ebx
  0039b	53		 push	 ebx
  0039c	53		 push	 ebx
  0039d	8d 8d 2c fe ff
	ff		 lea	 ecx, DWORD PTR _kDesc1$536058[ebp]
  003a3	e8 00 00 00 00	 call	 ?SetBkColor@ioComplexStringPrinter@@QAEXHHH@Z ; ioComplexStringPrinter::SetBkColor

; 173  : 			kDesc1.SetTextColor( TCT_DEFAULT_DARKGRAY );

  003a8	68 3a 3a 3a ff	 push	 -12961222		; ff3a3a3aH
  003ad	8d 8d 2c fe ff
	ff		 lea	 ecx, DWORD PTR _kDesc1$536058[ebp]
  003b3	e8 00 00 00 00	 call	 ?SetTextColor@ioComplexStringPrinter@@QAEXK@Z ; ioComplexStringPrinter::SetTextColor

; 174  : 			kDesc1.AddTextPiece( FONT_SIZE_12, STR(4), szItemName.c_str() );

  003b8	8d 8d a4 fe ff
	ff		 lea	 ecx, DWORD PTR _szItemName$536033[ebp]
  003be	ff 15 00 00 00
	00		 call	 DWORD PTR __imp_?c_str@ioHashString@@QBEPBDXZ
  003c4	50		 push	 eax
  003c5	53		 push	 ebx
  003c6	6a 04		 push	 4
  003c8	68 00 00 00 00	 push	 OFFSET ??_C@_00CNPNBAHC@?$AA@
  003cd	56		 push	 esi
  003ce	ff d7		 call	 edi
  003d0	8b c8		 mov	 ecx, eax
  003d2	ff 15 00 00 00
	00		 call	 DWORD PTR __imp_?GetString@ioStringManager@@QAEPADPBD0HW4FileNamePrefix@1@@Z
  003d8	f3 0f 10 05 00
	00 00 00	 movss	 xmm0, DWORD PTR __real@3f19999a
  003e0	50		 push	 eax
  003e1	51		 push	 ecx
  003e2	8d 8d 2c fe ff
	ff		 lea	 ecx, DWORD PTR _kDesc1$536058[ebp]
  003e8	f3 0f 11 04 24	 movss	 DWORD PTR [esp], xmm0
  003ed	e8 00 00 00 00	 call	 ?AddTextPiece@ioComplexStringPrinter@@QAEXMPBD0@Z ; ioComplexStringPrinter::AddTextPiece

; 175  : 			vDesc.push_back( kDesc1 ); 

  003f2	8d 85 2c fe ff
	ff		 lea	 eax, DWORD PTR _kDesc1$536058[ebp]
  003f8	50		 push	 eax
  003f9	8d 8d b4 fe ff
	ff		 lea	 ecx, DWORD PTR _vDesc$536053[ebp]
  003ff	e8 00 00 00 00	 call	 ?push_back@?$vector@VioComplexStringPrinter@@V?$allocator@VioComplexStringPrinter@@@std@@@std@@QAEXABVioComplexStringPrinter@@@Z ; std::vector<ioComplexStringPrinter,std::allocator<ioComplexStringPrinter> >::push_back

; 176  : 
; 177  : 			ioComplexStringPrinter kDesc2;

  00404	8d 8d 6c fe ff
	ff		 lea	 ecx, DWORD PTR _kDesc2$536060[ebp]
  0040a	e8 00 00 00 00	 call	 ??0ioComplexStringPrinter@@QAE@XZ ; ioComplexStringPrinter::ioComplexStringPrinter

; 178  : 			kDesc2.SetTextStyle( TS_NORMAL );

  0040f	53		 push	 ebx
  00410	8d 8d 6c fe ff
	ff		 lea	 ecx, DWORD PTR _kDesc2$536060[ebp]
  00416	c6 45 fc 09	 mov	 BYTE PTR __$EHRec$[ebp+8], 9
  0041a	e8 00 00 00 00	 call	 ?SetTextStyle@ioComplexStringPrinter@@QAEXW4TextStyle@@@Z ; ioComplexStringPrinter::SetTextStyle

; 179  : 			kDesc2.SetBkColor( 0, 0, 0 );

  0041f	53		 push	 ebx
  00420	53		 push	 ebx
  00421	53		 push	 ebx
  00422	8d 8d 6c fe ff
	ff		 lea	 ecx, DWORD PTR _kDesc2$536060[ebp]
  00428	e8 00 00 00 00	 call	 ?SetBkColor@ioComplexStringPrinter@@QAEXHHH@Z ; ioComplexStringPrinter::SetBkColor

; 180  : 			kDesc2.SetTextColor( TCT_DEFAULT_DARKGRAY );

  0042d	68 3a 3a 3a ff	 push	 -12961222		; ff3a3a3aH
  00432	8d 8d 6c fe ff
	ff		 lea	 ecx, DWORD PTR _kDesc2$536060[ebp]
  00438	e8 00 00 00 00	 call	 ?SetTextColor@ioComplexStringPrinter@@QAEXK@Z ; ioComplexStringPrinter::SetTextColor

; 181  : 			kDesc2.AddTextPiece( FONT_SIZE_12, STR(5), szConvertNum );

  0043d	8d 85 ec fe ff
	ff		 lea	 eax, DWORD PTR _szConvertNum$536051[ebp]
  00443	50		 push	 eax
  00444	53		 push	 ebx
  00445	6a 05		 push	 5
  00447	68 00 00 00 00	 push	 OFFSET ??_C@_00CNPNBAHC@?$AA@
  0044c	56		 push	 esi
  0044d	ff d7		 call	 edi
  0044f	8b c8		 mov	 ecx, eax
  00451	ff 15 00 00 00
	00		 call	 DWORD PTR __imp_?GetString@ioStringManager@@QAEPADPBD0HW4FileNamePrefix@1@@Z
  00457	f3 0f 10 05 00
	00 00 00	 movss	 xmm0, DWORD PTR __real@3f19999a
  0045f	50		 push	 eax
  00460	51		 push	 ecx
  00461	8d 8d 6c fe ff
	ff		 lea	 ecx, DWORD PTR _kDesc2$536060[ebp]
  00467	f3 0f 11 04 24	 movss	 DWORD PTR [esp], xmm0
  0046c	e8 00 00 00 00	 call	 ?AddTextPiece@ioComplexStringPrinter@@QAEXMPBD0@Z ; ioComplexStringPrinter::AddTextPiece

; 182  : 			vDesc.push_back( kDesc2 );

  00471	8d 85 6c fe ff
	ff		 lea	 eax, DWORD PTR _kDesc2$536060[ebp]
  00477	50		 push	 eax
  00478	8d 8d b4 fe ff
	ff		 lea	 ecx, DWORD PTR _vDesc$536053[ebp]
  0047e	e8 00 00 00 00	 call	 ?push_back@?$vector@VioComplexStringPrinter@@V?$allocator@VioComplexStringPrinter@@@std@@@std@@QAEXABVioComplexStringPrinter@@@Z ; std::vector<ioComplexStringPrinter,std::allocator<ioComplexStringPrinter> >::push_back

; 183  : 
; 184  : 			pInvenWnd->ShowItemRecvSellInfoWnd( ItemRecvSellInfoWnd::ITEM_SELL, ItemRecvSellInfoWnd::ITEM_ACCESSORY, szIconName, vTitle, vDesc, -1, 0, bCustom, false, iGradeType );

  00483	ff b5 d8 fe ff
	ff		 push	 DWORD PTR _iGradeType$536036[ebp]
  00489	8d 85 b4 fe ff
	ff		 lea	 eax, DWORD PTR _vDesc$536053[ebp]
  0048f	53		 push	 ebx
  00490	ff b5 e0 fe ff
	ff		 push	 DWORD PTR _bCustom$536035[ebp]
  00496	53		 push	 ebx
  00497	6a ff		 push	 -1
  00499	50		 push	 eax
  0049a	8d 85 c8 fe ff
	ff		 lea	 eax, DWORD PTR _vTitle$536052[ebp]
  004a0	50		 push	 eax
  004a1	83 ec 10	 sub	 esp, 16			; 00000010H
  004a4	8d 85 8c fe ff
	ff		 lea	 eax, DWORD PTR _szIconName$536034[ebp]
  004aa	8b cc		 mov	 ecx, esp
  004ac	89 a5 e0 fe ff
	ff		 mov	 DWORD PTR $T541312[ebp], esp
  004b2	50		 push	 eax
  004b3	ff 15 00 00 00
	00		 call	 DWORD PTR __imp_??0ioHashString@@QAE@ABV0@@Z
  004b9	8b 8d c4 fe ff
	ff		 mov	 ecx, DWORD PTR _pInvenWnd$536048[ebp]
  004bf	6a 0a		 push	 10			; 0000000aH
  004c1	6a 01		 push	 1
  004c3	e8 00 00 00 00	 call	 ?ShowItemRecvSellInfoWnd@MyInventoryWnd@@QAEXHHVioHashString@@ABV?$vector@VioComplexStringPrinter@@V?$allocator@VioComplexStringPrinter@@@std@@@std@@1HH_N2H@Z ; MyInventoryWnd::ShowItemRecvSellInfoWnd

; 185  : 		}

  004c8	8d 8d 6c fe ff
	ff		 lea	 ecx, DWORD PTR _kDesc2$536060[ebp]
  004ce	c6 45 fc 08	 mov	 BYTE PTR __$EHRec$[ebp+8], 8
  004d2	e8 00 00 00 00	 call	 ??1ioComplexStringPrinter@@QAE@XZ ; ioComplexStringPrinter::~ioComplexStringPrinter
  004d7	8d 8d 2c fe ff
	ff		 lea	 ecx, DWORD PTR _kDesc1$536058[ebp]
  004dd	c6 45 fc 07	 mov	 BYTE PTR __$EHRec$[ebp+8], 7
  004e1	e8 00 00 00 00	 call	 ??1ioComplexStringPrinter@@QAE@XZ ; ioComplexStringPrinter::~ioComplexStringPrinter
  004e6	8d 8d 0c fe ff
	ff		 lea	 ecx, DWORD PTR _kTitle2$536056[ebp]
  004ec	c6 45 fc 06	 mov	 BYTE PTR __$EHRec$[ebp+8], 6
  004f0	e8 00 00 00 00	 call	 ??1ioComplexStringPrinter@@QAE@XZ ; ioComplexStringPrinter::~ioComplexStringPrinter
  004f5	8d 8d 4c fe ff
	ff		 lea	 ecx, DWORD PTR _kTitle1$536054[ebp]
  004fb	c6 45 fc 05	 mov	 BYTE PTR __$EHRec$[ebp+8], 5
  004ff	e8 00 00 00 00	 call	 ??1ioComplexStringPrinter@@QAE@XZ ; ioComplexStringPrinter::~ioComplexStringPrinter
  00504	8d 8d b4 fe ff
	ff		 lea	 ecx, DWORD PTR _vDesc$536053[ebp]
  0050a	c6 45 fc 04	 mov	 BYTE PTR __$EHRec$[ebp+8], 4
  0050e	e8 00 00 00 00	 call	 ?_Tidy@?$vector@VioComplexStringPrinter@@V?$allocator@VioComplexStringPrinter@@@std@@@std@@IAEXXZ ; std::vector<ioComplexStringPrinter,std::allocator<ioComplexStringPrinter> >::_Tidy
  00513	8d 8d c8 fe ff
	ff		 lea	 ecx, DWORD PTR _vTitle$536052[ebp]
  00519	c6 45 fc 01	 mov	 BYTE PTR __$EHRec$[ebp+8], 1
  0051d	e8 00 00 00 00	 call	 ?_Tidy@?$vector@VioComplexStringPrinter@@V?$allocator@VioComplexStringPrinter@@@std@@@std@@IAEXXZ ; std::vector<ioComplexStringPrinter,std::allocator<ioComplexStringPrinter> >::_Tidy
$LN47@OnAccessor@4:

; 186  : 	}

  00522	8b 35 00 00 00
	00		 mov	 esi, DWORD PTR __imp_??1ioHashString@@QAE@XZ
  00528	8d 8d 8c fe ff
	ff		 lea	 ecx, DWORD PTR _szIconName$536034[ebp]
  0052e	88 5d fc	 mov	 BYTE PTR __$EHRec$[ebp+8], bl
  00531	ff d6		 call	 esi
  00533	83 4d fc ff	 or	 DWORD PTR __$EHRec$[ebp+8], -1
  00537	8d 8d a4 fe ff
	ff		 lea	 ecx, DWORD PTR _szItemName$536033[ebp]
  0053d	ff d6		 call	 esi

; 187  : 	else

  0053f	eb 32		 jmp	 SHORT $LN1@OnAccessor@4
$LN9@OnAccessor@4:

; 188  : 		g_GUIMgr.SetMsgBox( MB_OK, NULL, STR(6), eResult );

  00541	0f b6 85 eb fe
	ff ff		 movzx	 eax, BYTE PTR _eResult$[ebp]
  00548	50		 push	 eax
  00549	53		 push	 ebx
  0054a	6a 06		 push	 6
  0054c	68 00 00 00 00	 push	 OFFSET ??_C@_00CNPNBAHC@?$AA@
  00551	68 00 00 00 00	 push	 OFFSET ??_C@_0CO@PHGIOKK@ioAccessoryInfoManager?3?3OnAccess@
  00556	ff 15 00 00 00
	00		 call	 DWORD PTR __imp_?GetSingleton@ioStringManager@@SAAAV1@XZ
  0055c	8b c8		 mov	 ecx, eax
  0055e	ff 15 00 00 00
	00		 call	 DWORD PTR __imp_?GetString@ioStringManager@@QAEPADPBD0HW4FileNamePrefix@1@@Z
  00564	50		 push	 eax
  00565	53		 push	 ebx
  00566	53		 push	 ebx
  00567	e8 00 00 00 00	 call	 ?GetSingleton@ioSP2GUIManager@@SAAAV1@XZ ; ioSP2GUIManager::GetSingleton
  0056c	8b c8		 mov	 ecx, eax
  0056e	e8 00 00 00 00	 call	 ?SetMsgBox@ioSP2GUIManager@@QAEXHPAVioWnd@@PBDH@Z ; ioSP2GUIManager::SetMsgBox
$LN1@OnAccessor@4:

; 189  : }

  00573	e8 00 00 00 00	 call	 __EH_epilog3_GS
  00578	c2 04 00	 ret	 4
_TEXT	ENDS
;	COMDAT text$x
text$x	SEGMENT
__unwindfunclet$?OnAccessorySellResult@ioAccessoryInfoManager@@QAEXAAVSP2Packet@@@Z$0:
  00000	8d 8d a4 fe ff
	ff		 lea	 ecx, DWORD PTR _szItemName$536033[ebp]
  00006	ff 25 00 00 00
	00		 jmp	 DWORD PTR __imp_??1ioHashString@@QAE@XZ
__unwindfunclet$?OnAccessorySellResult@ioAccessoryInfoManager@@QAEXAAVSP2Packet@@@Z$1:
  0000c	8d 8d 8c fe ff
	ff		 lea	 ecx, DWORD PTR _szIconName$536034[ebp]
  00012	ff 25 00 00 00
	00		 jmp	 DWORD PTR __imp_??1ioHashString@@QAE@XZ
__unwindfunclet$?OnAccessorySellResult@ioAccessoryInfoManager@@QAEXAAVSP2Packet@@@Z$2:
  00018	8d 8d c8 fd ff
	ff		 lea	 ecx, DWORD PTR _kSlot$536039[ebp]
  0001e	e9 00 00 00 00	 jmp	 ??1tagAccessorySlot@@QAE@XZ
__unwindfunclet$?OnAccessorySellResult@ioAccessoryInfoManager@@QAEXAAVSP2Packet@@@Z$3:
  00023	8d 8d c8 fe ff
	ff		 lea	 ecx, DWORD PTR $T541311[ebp]
  00029	ff 25 00 00 00
	00		 jmp	 DWORD PTR __imp_??1ioHashString@@QAE@XZ
__unwindfunclet$?OnAccessorySellResult@ioAccessoryInfoManager@@QAEXAAVSP2Packet@@@Z$4:
  0002f	8d 8d c8 fe ff
	ff		 lea	 ecx, DWORD PTR _vTitle$536052[ebp]
  00035	e9 00 00 00 00	 jmp	 ??1?$vector@VioComplexStringPrinter@@V?$allocator@VioComplexStringPrinter@@@std@@@std@@QAE@XZ ; std::vector<ioComplexStringPrinter,std::allocator<ioComplexStringPrinter> >::~vector<ioComplexStringPrinter,std::allocator<ioComplexStringPrinter> >
__unwindfunclet$?OnAccessorySellResult@ioAccessoryInfoManager@@QAEXAAVSP2Packet@@@Z$5:
  0003a	8d 8d b4 fe ff
	ff		 lea	 ecx, DWORD PTR _vDesc$536053[ebp]
  00040	e9 00 00 00 00	 jmp	 ??1?$vector@VioComplexStringPrinter@@V?$allocator@VioComplexStringPrinter@@@std@@@std@@QAE@XZ ; std::vector<ioComplexStringPrinter,std::allocator<ioComplexStringPrinter> >::~vector<ioComplexStringPrinter,std::allocator<ioComplexStringPrinter> >
__unwindfunclet$?OnAccessorySellResult@ioAccessoryInfoManager@@QAEXAAVSP2Packet@@@Z$6:
  00045	8d 8d 4c fe ff
	ff		 lea	 ecx, DWORD PTR _kTitle1$536054[ebp]
  0004b	e9 00 00 00 00	 jmp	 ??1ioComplexStringPrinter@@QAE@XZ ; ioComplexStringPrinter::~ioComplexStringPrinter
__unwindfunclet$?OnAccessorySellResult@ioAccessoryInfoManager@@QAEXAAVSP2Packet@@@Z$7:
  00050	8d 8d 0c fe ff
	ff		 lea	 ecx, DWORD PTR _kTitle2$536056[ebp]
  00056	e9 00 00 00 00	 jmp	 ??1ioComplexStringPrinter@@QAE@XZ ; ioComplexStringPrinter::~ioComplexStringPrinter
__unwindfunclet$?OnAccessorySellResult@ioAccessoryInfoManager@@QAEXAAVSP2Packet@@@Z$8:
  0005b	8d 8d 2c fe ff
	ff		 lea	 ecx, DWORD PTR _kDesc1$536058[ebp]
  00061	e9 00 00 00 00	 jmp	 ??1ioComplexStringPrinter@@QAE@XZ ; ioComplexStringPrinter::~ioComplexStringPrinter
__unwindfunclet$?OnAccessorySellResult@ioAccessoryInfoManager@@QAEXAAVSP2Packet@@@Z$9:
  00066	8d 8d 6c fe ff
	ff		 lea	 ecx, DWORD PTR _kDesc2$536060[ebp]
  0006c	e9 00 00 00 00	 jmp	 ??1ioComplexStringPrinter@@QAE@XZ ; ioComplexStringPrinter::~ioComplexStringPrinter
__ehhandler$?OnAccessorySellResult@ioAccessoryInfoManager@@QAEXAAVSP2Packet@@@Z:
  00071	8b 54 24 08	 mov	 edx, DWORD PTR [esp+8]
  00075	8d 42 0c	 lea	 eax, DWORD PTR [edx+12]
  00078	8b 8a c4 fd ff
	ff		 mov	 ecx, DWORD PTR [edx-572]
  0007e	33 c8		 xor	 ecx, eax
  00080	e8 00 00 00 00	 call	 @__security_check_cookie@4
  00085	8b 4a fc	 mov	 ecx, DWORD PTR [edx-4]
  00088	33 c8		 xor	 ecx, eax
  0008a	e8 00 00 00 00	 call	 @__security_check_cookie@4
  0008f	b8 00 00 00 00	 mov	 eax, OFFSET __ehfuncinfo$?OnAccessorySellResult@ioAccessoryInfoManager@@QAEXAAVSP2Packet@@@Z
  00094	e9 00 00 00 00	 jmp	 ___CxxFrameHandler3
text$x	ENDS
?OnAccessorySellResult@ioAccessoryInfoManager@@QAEXAAVSP2Packet@@@Z ENDP ; ioAccessoryInfoManager::OnAccessorySellResult
END
