; Listing generated by Microsoft (R) Optimizing Compiler Version 16.00.30319.01 

	TITLE	D:\Lost Saga For Developer\Youtube\Tutorial\Source\src\LSClient\ioAdhesiveMissileWeapon3.cpp
	.686P
	.XMM
	include listing.inc
	.model	flat

INCLUDELIB MSVCRT
INCLUDELIB OLDNAMES

PUBLIC	?_EEM_DS@?$deque@UD3DXVECTOR3@@V?$allocator@UD3DXVECTOR3@@@std@@@std@@2HB ; std::deque<D3DXVECTOR3,std::allocator<D3DXVECTOR3> >::_EEM_DS
PUBLIC	?m_ActionStopType@ioAdhesiveMissileWeapon3@@2W4ActionStopType@@A ; ioAdhesiveMissileWeapon3::m_ActionStopType
PUBLIC	?m_DieActionStopType@ioAdhesiveMissileWeapon3@@2W4ActionStopType@@A ; ioAdhesiveMissileWeapon3::m_DieActionStopType
_BSS	SEGMENT
?m_ActionStopType@ioAdhesiveMissileWeapon3@@2W4ActionStopType@@A DD 01H DUP (?) ; ioAdhesiveMissileWeapon3::m_ActionStopType
?m_DieActionStopType@ioAdhesiveMissileWeapon3@@2W4ActionStopType@@A DD 01H DUP (?) ; ioAdhesiveMissileWeapon3::m_DieActionStopType
_BSS	ENDS
;	COMDAT ?_EEM_DS@?$deque@UD3DXVECTOR3@@V?$allocator@UD3DXVECTOR3@@@std@@@std@@2HB
CONST	SEGMENT
?_EEM_DS@?$deque@UD3DXVECTOR3@@V?$allocator@UD3DXVECTOR3@@@std@@@std@@2HB DD 01H ; std::deque<D3DXVECTOR3,std::allocator<D3DXVECTOR3> >::_EEM_DS
CONST	ENDS
PUBLIC	?return1@@YAIXZ					; return1
; Function compile flags: /Ogsp
; File d:\lost saga for developer\youtube\tutorial\source\src\lsclient\stdafx.h
;	COMDAT ?return1@@YAIXZ
_TEXT	SEGMENT
?return1@@YAIXZ PROC					; return1, COMDAT

; 17   : 	__forceinline unsigned int return1() { __asm mov eax, 1 };

  00000	b8 01 00 00 00	 mov	 eax, 1
  00005	c3		 ret	 0
?return1@@YAIXZ ENDP					; return1
_TEXT	ENDS
PUBLIC	?return1000@@YAIXZ				; return1000
; Function compile flags: /Ogsp
;	COMDAT ?return1000@@YAIXZ
_TEXT	SEGMENT
?return1000@@YAIXZ PROC					; return1000, COMDAT

; 29   : 	__forceinline unsigned int return1000() { __asm mov eax, 1000 };

  00000	b8 e8 03 00 00	 mov	 eax, 1000		; 000003e8H
  00005	c3		 ret	 0
?return1000@@YAIXZ ENDP					; return1000
_TEXT	ENDS
PUBLIC	?GetTargetRot@ioBaseChar@@QBEABUD3DXQUATERNION@@XZ ; ioBaseChar::GetTargetRot
; Function compile flags: /Ogsp
; File d:\lost saga for developer\youtube\tutorial\source\src\lsclient\iobasechar.h
;	COMDAT ?GetTargetRot@ioBaseChar@@QBEABUD3DXQUATERNION@@XZ
_TEXT	SEGMENT
?GetTargetRot@ioBaseChar@@QBEABUD3DXQUATERNION@@XZ PROC	; ioBaseChar::GetTargetRot, COMDAT
; _this$ = ecx

; 2599 : 	inline const D3DXQUATERNION& GetTargetRot() const { return m_qtTargetRot; }

  00000	8d 81 a4 06 00
	00		 lea	 eax, DWORD PTR [ecx+1700]
  00006	c3		 ret	 0
?GetTargetRot@ioBaseChar@@QBEABUD3DXQUATERNION@@XZ ENDP	; ioBaseChar::GetTargetRot
_TEXT	ENDS
PUBLIC	??_7bad_alloc@std@@6B@				; std::bad_alloc::`vftable'
PUBLIC	??0bad_alloc@std@@QAE@PBD@Z			; std::bad_alloc::bad_alloc
PUBLIC	??_R4bad_alloc@std@@6B@				; std::bad_alloc::`RTTI Complete Object Locator'
PUBLIC	??_R0?AVbad_alloc@std@@@8			; std::bad_alloc `RTTI Type Descriptor'
PUBLIC	??_R3bad_alloc@std@@8				; std::bad_alloc::`RTTI Class Hierarchy Descriptor'
PUBLIC	??_R2bad_alloc@std@@8				; std::bad_alloc::`RTTI Base Class Array'
PUBLIC	??_R1A@?0A@EA@bad_alloc@std@@8			; std::bad_alloc::`RTTI Base Class Descriptor at (0,-1,0,64)'
PUBLIC	??_R1A@?0A@EA@exception@std@@8			; std::exception::`RTTI Base Class Descriptor at (0,-1,0,64)'
PUBLIC	??_R0?AVexception@std@@@8			; std::exception `RTTI Type Descriptor'
PUBLIC	??_R3exception@std@@8				; std::exception::`RTTI Class Hierarchy Descriptor'
PUBLIC	??_R2exception@std@@8				; std::exception::`RTTI Base Class Array'
EXTRN	__imp_??0exception@std@@QAE@ABQBD@Z:PROC
EXTRN	??_7type_info@@6B@:QWORD			; type_info::`vftable'
EXTRN	??_Ebad_alloc@std@@UAEPAXI@Z:PROC		; std::bad_alloc::`vector deleting destructor'
EXTRN	?what@exception@std@@UBEPBDXZ:PROC		; std::exception::what
;	COMDAT ??_R2exception@std@@8
; File c:\program files (x86)\microsoft visual studio 10.0\vc\include\exception
rdata$r	SEGMENT
??_R2exception@std@@8 DD FLAT:??_R1A@?0A@EA@exception@std@@8 ; std::exception::`RTTI Base Class Array'
rdata$r	ENDS
;	COMDAT ??_R3exception@std@@8
rdata$r	SEGMENT
??_R3exception@std@@8 DD 00H				; std::exception::`RTTI Class Hierarchy Descriptor'
	DD	00H
	DD	01H
	DD	FLAT:??_R2exception@std@@8
rdata$r	ENDS
;	COMDAT ??_R0?AVexception@std@@@8
_DATA	SEGMENT
??_R0?AVexception@std@@@8 DD FLAT:??_7type_info@@6B@	; std::exception `RTTI Type Descriptor'
	DD	00H
	DB	'.?AVexception@std@@', 00H
_DATA	ENDS
;	COMDAT ??_R1A@?0A@EA@exception@std@@8
rdata$r	SEGMENT
??_R1A@?0A@EA@exception@std@@8 DD FLAT:??_R0?AVexception@std@@@8 ; std::exception::`RTTI Base Class Descriptor at (0,-1,0,64)'
	DD	00H
	DD	00H
	DD	0ffffffffH
	DD	00H
	DD	040H
	DD	FLAT:??_R3exception@std@@8
rdata$r	ENDS
;	COMDAT ??_R1A@?0A@EA@bad_alloc@std@@8
rdata$r	SEGMENT
??_R1A@?0A@EA@bad_alloc@std@@8 DD FLAT:??_R0?AVbad_alloc@std@@@8 ; std::bad_alloc::`RTTI Base Class Descriptor at (0,-1,0,64)'
	DD	01H
	DD	00H
	DD	0ffffffffH
	DD	00H
	DD	040H
	DD	FLAT:??_R3bad_alloc@std@@8
rdata$r	ENDS
;	COMDAT ??_R2bad_alloc@std@@8
rdata$r	SEGMENT
??_R2bad_alloc@std@@8 DD FLAT:??_R1A@?0A@EA@bad_alloc@std@@8 ; std::bad_alloc::`RTTI Base Class Array'
	DD	FLAT:??_R1A@?0A@EA@exception@std@@8
rdata$r	ENDS
;	COMDAT ??_R3bad_alloc@std@@8
rdata$r	SEGMENT
??_R3bad_alloc@std@@8 DD 00H				; std::bad_alloc::`RTTI Class Hierarchy Descriptor'
	DD	00H
	DD	02H
	DD	FLAT:??_R2bad_alloc@std@@8
rdata$r	ENDS
;	COMDAT ??_R0?AVbad_alloc@std@@@8
_DATA	SEGMENT
??_R0?AVbad_alloc@std@@@8 DD FLAT:??_7type_info@@6B@	; std::bad_alloc `RTTI Type Descriptor'
	DD	00H
	DB	'.?AVbad_alloc@std@@', 00H
_DATA	ENDS
;	COMDAT ??_R4bad_alloc@std@@6B@
rdata$r	SEGMENT
??_R4bad_alloc@std@@6B@ DD 00H				; std::bad_alloc::`RTTI Complete Object Locator'
	DD	00H
	DD	00H
	DD	FLAT:??_R0?AVbad_alloc@std@@@8
	DD	FLAT:??_R3bad_alloc@std@@8
rdata$r	ENDS
;	COMDAT ??_7bad_alloc@std@@6B@
CONST	SEGMENT
??_7bad_alloc@std@@6B@ DD FLAT:??_R4bad_alloc@std@@6B@	; std::bad_alloc::`vftable'
	DD	FLAT:??_Ebad_alloc@std@@UAEPAXI@Z
	DD	FLAT:?what@exception@std@@UBEPBDXZ
; Function compile flags: /Ogsp
CONST	ENDS
;	COMDAT ??0bad_alloc@std@@QAE@PBD@Z
_TEXT	SEGMENT
__Message$ = 8						; size = 4
??0bad_alloc@std@@QAE@PBD@Z PROC			; std::bad_alloc::bad_alloc, COMDAT
; _this$ = ecx

; 345  : 		{	// construct from message string

  00000	55		 push	 ebp
  00001	8b ec		 mov	 ebp, esp
  00003	56		 push	 esi
  00004	8d 45 08	 lea	 eax, DWORD PTR __Message$[ebp]
  00007	50		 push	 eax
  00008	8b f1		 mov	 esi, ecx
  0000a	ff 15 00 00 00
	00		 call	 DWORD PTR __imp_??0exception@std@@QAE@ABQBD@Z
  00010	c7 06 00 00 00
	00		 mov	 DWORD PTR [esi], OFFSET ??_7bad_alloc@std@@6B@

; 346  : 		}

  00016	8b c6		 mov	 eax, esi
  00018	5e		 pop	 esi
  00019	5d		 pop	 ebp
  0001a	c2 04 00	 ret	 4
??0bad_alloc@std@@QAE@PBD@Z ENDP			; std::bad_alloc::bad_alloc
_TEXT	ENDS
PUBLIC	??1bad_alloc@std@@UAE@XZ			; std::bad_alloc::~bad_alloc
EXTRN	__imp_??1exception@std@@UAE@XZ:PROC
; Function compile flags: /Ogsp
;	COMDAT ??1bad_alloc@std@@UAE@XZ
_TEXT	SEGMENT
??1bad_alloc@std@@UAE@XZ PROC				; std::bad_alloc::~bad_alloc, COMDAT
; _this$ = ecx

; 354  : 		{	// destroy the object

  00000	c7 01 00 00 00
	00		 mov	 DWORD PTR [ecx], OFFSET ??_7bad_alloc@std@@6B@

; 355  : 		}

  00006	ff 25 00 00 00
	00		 jmp	 DWORD PTR __imp_??1exception@std@@UAE@XZ
??1bad_alloc@std@@UAE@XZ ENDP				; std::bad_alloc::~bad_alloc
_TEXT	ENDS
EXTRN	??3@YAXPAX@Z:PROC				; operator delete
; Function compile flags: /Ogsp
;	COMDAT ??_Gbad_alloc@std@@UAEPAXI@Z
_TEXT	SEGMENT
___flags$ = 8						; size = 4
??_Gbad_alloc@std@@UAEPAXI@Z PROC			; std::bad_alloc::`scalar deleting destructor', COMDAT
; _this$ = ecx
  00000	55		 push	 ebp
  00001	8b ec		 mov	 ebp, esp
  00003	56		 push	 esi
  00004	8b f1		 mov	 esi, ecx
  00006	c7 06 00 00 00
	00		 mov	 DWORD PTR [esi], OFFSET ??_7bad_alloc@std@@6B@
  0000c	ff 15 00 00 00
	00		 call	 DWORD PTR __imp_??1exception@std@@UAE@XZ
  00012	f6 45 08 01	 test	 BYTE PTR ___flags$[ebp], 1
  00016	74 07		 je	 SHORT $LN1@scalar
  00018	56		 push	 esi
  00019	e8 00 00 00 00	 call	 ??3@YAXPAX@Z		; operator delete
  0001e	59		 pop	 ecx
$LN1@scalar:
  0001f	8b c6		 mov	 eax, esi
  00021	5e		 pop	 esi
  00022	5d		 pop	 ebp
  00023	c2 04 00	 ret	 4
??_Gbad_alloc@std@@UAEPAXI@Z ENDP			; std::bad_alloc::`scalar deleting destructor'
_TEXT	ENDS
PUBLIC	??2@YAPAXIPAX@Z					; operator new
; Function compile flags: /Ogsp
; File c:\program files (x86)\microsoft visual studio 10.0\vc\include\new
;	COMDAT ??2@YAPAXIPAX@Z
_TEXT	SEGMENT
___formal$ = 8						; size = 4
__Where$ = 12						; size = 4
??2@YAPAXIPAX@Z PROC					; operator new, COMDAT

; 56   : 	{	// construct array with placement at _Where

  00000	55		 push	 ebp
  00001	8b ec		 mov	 ebp, esp

; 57   : 	return (_Where);

  00003	8b 45 0c	 mov	 eax, DWORD PTR __Where$[ebp]

; 58   : 	}

  00006	5d		 pop	 ebp
  00007	c3		 ret	 0
??2@YAPAXIPAX@Z ENDP					; operator new
_TEXT	ENDS
PUBLIC	??3@YAXPAX0@Z					; operator delete
; Function compile flags: /Ogsp
;	COMDAT ??3@YAXPAX0@Z
_TEXT	SEGMENT
___formal$ = 8						; size = 4
___formal$ = 12						; size = 4
??3@YAXPAX0@Z PROC					; operator delete, COMDAT

; 62   : 	}

  00000	c3		 ret	 0
??3@YAXPAX0@Z ENDP					; operator delete
_TEXT	ENDS
PUBLIC	?ClearData@ioAdhesiveMissileWeapon3@@IAEXXZ	; ioAdhesiveMissileWeapon3::ClearData
EXTRN	__fltused:DWORD
; Function compile flags: /Ogsp
; File d:\lost saga for developer\youtube\tutorial\source\src\lsclient\ioadhesivemissileweapon3.cpp
;	COMDAT ?ClearData@ioAdhesiveMissileWeapon3@@IAEXXZ
_TEXT	SEGMENT
?ClearData@ioAdhesiveMissileWeapon3@@IAEXXZ PROC	; ioAdhesiveMissileWeapon3::ClearData, COMDAT
; _this$ = ecx

; 45   : 	UpdateWorldAttackBox(0.0f, true );

  00000	0f 57 c0	 xorps	 xmm0, xmm0
  00003	8b 01		 mov	 eax, DWORD PTR [ecx]
  00005	6a 01		 push	 1
  00007	51		 push	 ecx
  00008	f3 0f 11 04 24	 movss	 DWORD PTR [esp], xmm0
  0000d	ff 90 38 01 00
	00		 call	 DWORD PTR [eax+312]

; 46   : }

  00013	c3		 ret	 0
?ClearData@ioAdhesiveMissileWeapon3@@IAEXXZ ENDP	; ioAdhesiveMissileWeapon3::ClearData
_TEXT	ENDS
PUBLIC	?_Adopt@_Iterator_base0@std@@QAEXPBX@Z		; std::_Iterator_base0::_Adopt
; Function compile flags: /Ogsp
; File c:\program files (x86)\microsoft visual studio 10.0\vc\include\xutility
;	COMDAT ?_Adopt@_Iterator_base0@std@@QAEXPBX@Z
_TEXT	SEGMENT
___formal$ = 8						; size = 4
?_Adopt@_Iterator_base0@std@@QAEXPBX@Z PROC		; std::_Iterator_base0::_Adopt, COMDAT
; _this$ = ecx

; 49   : 		}

  00000	c2 04 00	 ret	 4
?_Adopt@_Iterator_base0@std@@QAEXPBX@Z ENDP		; std::_Iterator_base0::_Adopt
_TEXT	ENDS
PUBLIC	?DestroyFireBall@ioAdhesiveMissileWeapon3@@IAEXXZ ; ioAdhesiveMissileWeapon3::DestroyFireBall
EXTRN	__imp_?DestroyEffect@ioEffectFactory@@QAEXPAVioEffect@@@Z:PROC
EXTRN	__imp_?GetSingleton@ioEffectFactory@@SAAAV1@XZ:PROC
; Function compile flags: /Ogsp
; File d:\lost saga for developer\youtube\tutorial\source\src\lsclient\ioadhesivemissileweapon3.cpp
;	COMDAT ?DestroyFireBall@ioAdhesiveMissileWeapon3@@IAEXXZ
_TEXT	SEGMENT
?DestroyFireBall@ioAdhesiveMissileWeapon3@@IAEXXZ PROC	; ioAdhesiveMissileWeapon3::DestroyFireBall, COMDAT
; _this$ = ecx

; 185  : {

  00000	56		 push	 esi

; 186  : 	if( m_pFireBall )

  00001	8d b1 94 08 00
	00		 lea	 esi, DWORD PTR [ecx+2196]
  00007	8b 06		 mov	 eax, DWORD PTR [esi]
  00009	85 c0		 test	 eax, eax
  0000b	74 12		 je	 SHORT $LN1@DestroyFir

; 187  : 	{
; 188  : 		g_EffectFactory.DestroyEffect( m_pFireBall );

  0000d	50		 push	 eax
  0000e	ff 15 00 00 00
	00		 call	 DWORD PTR __imp_?GetSingleton@ioEffectFactory@@SAAAV1@XZ
  00014	8b c8		 mov	 ecx, eax
  00016	ff 15 00 00 00
	00		 call	 DWORD PTR __imp_?DestroyEffect@ioEffectFactory@@QAEXPAVioEffect@@@Z

; 189  : 		m_pFireBall = NULL;

  0001c	83 26 00	 and	 DWORD PTR [esi], 0
$LN1@DestroyFir:
  0001f	5e		 pop	 esi

; 190  : 	}
; 191  : }

  00020	c3		 ret	 0
?DestroyFireBall@ioAdhesiveMissileWeapon3@@IAEXXZ ENDP	; ioAdhesiveMissileWeapon3::DestroyFireBall
_TEXT	ENDS
PUBLIC	?GetMoveDir@ioAdhesiveMissileWeapon3@@UAE?AUD3DXVECTOR3@@XZ ; ioAdhesiveMissileWeapon3::GetMoveDir
; Function compile flags: /Ogsp
;	COMDAT ?GetMoveDir@ioAdhesiveMissileWeapon3@@UAE?AUD3DXVECTOR3@@XZ
_TEXT	SEGMENT
___$ReturnUdt$ = 8					; size = 4
?GetMoveDir@ioAdhesiveMissileWeapon3@@UAE?AUD3DXVECTOR3@@XZ PROC ; ioAdhesiveMissileWeapon3::GetMoveDir, COMDAT
; _this$ = ecx

; 203  : {

  00000	55		 push	 ebp
  00001	8b ec		 mov	 ebp, esp

; 204  : 	return m_vMoveDir;

  00003	8b 45 08	 mov	 eax, DWORD PTR ___$ReturnUdt$[ebp]
  00006	56		 push	 esi
  00007	57		 push	 edi
  00008	8d b1 f8 08 00
	00		 lea	 esi, DWORD PTR [ecx+2296]
  0000e	8b f8		 mov	 edi, eax
  00010	a5		 movsd
  00011	a5		 movsd
  00012	a5		 movsd
  00013	5f		 pop	 edi
  00014	5e		 pop	 esi

; 205  : }

  00015	5d		 pop	 ebp
  00016	c2 04 00	 ret	 4
?GetMoveDir@ioAdhesiveMissileWeapon3@@UAE?AUD3DXVECTOR3@@XZ ENDP ; ioAdhesiveMissileWeapon3::GetMoveDir
_TEXT	ENDS
PUBLIC	?SetStartPosition@ioAdhesiveMissileWeapon3@@UAEXABUD3DXVECTOR3@@PAVioPlayStage@@@Z ; ioAdhesiveMissileWeapon3::SetStartPosition
; Function compile flags: /Ogsp
;	COMDAT ?SetStartPosition@ioAdhesiveMissileWeapon3@@UAEXABUD3DXVECTOR3@@PAVioPlayStage@@@Z
_TEXT	SEGMENT
_vPos$ = 8						; size = 4
_pStage$ = 12						; size = 4
?SetStartPosition@ioAdhesiveMissileWeapon3@@UAEXABUD3DXVECTOR3@@PAVioPlayStage@@@Z PROC ; ioAdhesiveMissileWeapon3::SetStartPosition, COMDAT
; _this$ = ecx

; 222  : 	return;
; 223  : }

  00000	c2 08 00	 ret	 8
?SetStartPosition@ioAdhesiveMissileWeapon3@@UAEXABUD3DXVECTOR3@@PAVioPlayStage@@@Z ENDP ; ioAdhesiveMissileWeapon3::SetStartPosition
_TEXT	ENDS
PUBLIC	?SetForceClose@ioAdhesiveMissileWeapon3@@IAEXXZ	; ioAdhesiveMissileWeapon3::SetForceClose
EXTRN	__imp_?EndEffectForce@ioEffect@@QAEXXZ:PROC
; Function compile flags: /Ogsp
;	COMDAT ?SetForceClose@ioAdhesiveMissileWeapon3@@IAEXXZ
_TEXT	SEGMENT
?SetForceClose@ioAdhesiveMissileWeapon3@@IAEXXZ PROC	; ioAdhesiveMissileWeapon3::SetForceClose, COMDAT
; _this$ = ecx

; 350  : {

  00000	56		 push	 esi
  00001	8b f1		 mov	 esi, ecx

; 351  : 	if( m_bSetGraceClose )	return;

  00003	80 be 9c 09 00
	00 00		 cmp	 BYTE PTR [esi+2460], 0
  0000a	75 1e		 jne	 SHORT $LN3@SetForceCl

; 352  : 
; 353  : 	if( m_pFireBall )

  0000c	8b 8e 94 08 00
	00		 mov	 ecx, DWORD PTR [esi+2196]
  00012	85 c9		 test	 ecx, ecx
  00014	74 06		 je	 SHORT $LN1@SetForceCl

; 354  : 	{
; 355  : 		m_pFireBall->EndEffectForce();

  00016	ff 15 00 00 00
	00		 call	 DWORD PTR __imp_?EndEffectForce@ioEffect@@QAEXXZ
$LN1@SetForceCl:

; 356  : 	}
; 357  : 
; 358  : 	StopLoopSound();

  0001c	8b 06		 mov	 eax, DWORD PTR [esi]
  0001e	8b ce		 mov	 ecx, esi
  00020	ff 50 60	 call	 DWORD PTR [eax+96]

; 359  : 	m_bSetGraceClose = true;

  00023	c6 86 9c 09 00
	00 01		 mov	 BYTE PTR [esi+2460], 1
$LN3@SetForceCl:
  0002a	5e		 pop	 esi

; 360  : }

  0002b	c3		 ret	 0
?SetForceClose@ioAdhesiveMissileWeapon3@@IAEXXZ ENDP	; ioAdhesiveMissileWeapon3::SetForceClose
_TEXT	ENDS
PUBLIC	?DestroyResource@ioAdhesiveMissileWeapon3@@UAEXPAVioPlayStage@@@Z ; ioAdhesiveMissileWeapon3::DestroyResource
; Function compile flags: /Ogsp
;	COMDAT ?DestroyResource@ioAdhesiveMissileWeapon3@@UAEXPAVioPlayStage@@@Z
_TEXT	SEGMENT
_pStage$ = 8						; size = 4
?DestroyResource@ioAdhesiveMissileWeapon3@@UAEXPAVioPlayStage@@@Z PROC ; ioAdhesiveMissileWeapon3::DestroyResource, COMDAT
; _this$ = ecx

; 363  : {

  00000	56		 push	 esi

; 364  : 	if( m_pFireBall )

  00001	8d b1 94 08 00
	00		 lea	 esi, DWORD PTR [ecx+2196]
  00007	8b 06		 mov	 eax, DWORD PTR [esi]
  00009	85 c0		 test	 eax, eax
  0000b	74 12		 je	 SHORT $LN1@DestroyRes

; 365  : 	{
; 366  : 		g_EffectFactory.DestroyEffect( m_pFireBall );

  0000d	50		 push	 eax
  0000e	ff 15 00 00 00
	00		 call	 DWORD PTR __imp_?GetSingleton@ioEffectFactory@@SAAAV1@XZ
  00014	8b c8		 mov	 ecx, eax
  00016	ff 15 00 00 00
	00		 call	 DWORD PTR __imp_?DestroyEffect@ioEffectFactory@@QAEXPAVioEffect@@@Z

; 367  : 		m_pFireBall = NULL;

  0001c	83 26 00	 and	 DWORD PTR [esi], 0
$LN1@DestroyRes:
  0001f	5e		 pop	 esi

; 368  : 	}
; 369  : }

  00020	c2 04 00	 ret	 4
?DestroyResource@ioAdhesiveMissileWeapon3@@UAEXPAVioPlayStage@@@Z ENDP ; ioAdhesiveMissileWeapon3::DestroyResource
_TEXT	ENDS
PUBLIC	?GetLocalAttackBox@ioAdhesiveMissileWeapon3@@UBEABVioOrientBox@@XZ ; ioAdhesiveMissileWeapon3::GetLocalAttackBox
EXTRN	?GetLocalAttackBox@ioWeapon@@UBEABVioOrientBox@@XZ:PROC ; ioWeapon::GetLocalAttackBox
EXTRN	__imp_?GetCollisionBox@ioEffect@@QBEABVioOrientBox@@XZ:PROC
; Function compile flags: /Ogsp
;	COMDAT ?GetLocalAttackBox@ioAdhesiveMissileWeapon3@@UBEABVioOrientBox@@XZ
_TEXT	SEGMENT
?GetLocalAttackBox@ioAdhesiveMissileWeapon3@@UBEABVioOrientBox@@XZ PROC ; ioAdhesiveMissileWeapon3::GetLocalAttackBox, COMDAT
; _this$ = ecx

; 373  : 	if( m_pFireBall )

  00000	8b 81 94 08 00
	00		 mov	 eax, DWORD PTR [ecx+2196]
  00006	85 c0		 test	 eax, eax
  00008	74 08		 je	 SHORT $LN1@GetLocalAt

; 374  : 		return m_pFireBall->GetCollisionBox();

  0000a	8b c8		 mov	 ecx, eax
  0000c	ff 25 00 00 00
	00		 jmp	 DWORD PTR __imp_?GetCollisionBox@ioEffect@@QBEABVioOrientBox@@XZ
$LN1@GetLocalAt:

; 375  : 
; 376  : 	return ioWeapon::GetLocalAttackBox();

  00012	e9 00 00 00 00	 jmp	 ?GetLocalAttackBox@ioWeapon@@UBEABVioOrientBox@@XZ ; ioWeapon::GetLocalAttackBox
?GetLocalAttackBox@ioAdhesiveMissileWeapon3@@UBEABVioOrientBox@@XZ ENDP ; ioAdhesiveMissileWeapon3::GetLocalAttackBox
_TEXT	ENDS
PUBLIC	?GetAttackDir@ioAdhesiveMissileWeapon3@@UBE?AUD3DXVECTOR3@@PBVioPlayEntity@@@Z ; ioAdhesiveMissileWeapon3::GetAttackDir
; Function compile flags: /Ogsp
;	COMDAT ?GetAttackDir@ioAdhesiveMissileWeapon3@@UBE?AUD3DXVECTOR3@@PBVioPlayEntity@@@Z
_TEXT	SEGMENT
___$ReturnUdt$ = 8					; size = 4
_pEntity$ = 12						; size = 4
?GetAttackDir@ioAdhesiveMissileWeapon3@@UBE?AUD3DXVECTOR3@@PBVioPlayEntity@@@Z PROC ; ioAdhesiveMissileWeapon3::GetAttackDir, COMDAT
; _this$ = ecx

; 380  : {

  00000	55		 push	 ebp
  00001	8b ec		 mov	 ebp, esp

; 381  : 	return m_vMoveDir;

  00003	8b 45 08	 mov	 eax, DWORD PTR ___$ReturnUdt$[ebp]
  00006	56		 push	 esi
  00007	57		 push	 edi
  00008	8d b1 f8 08 00
	00		 lea	 esi, DWORD PTR [ecx+2296]
  0000e	8b f8		 mov	 edi, eax
  00010	a5		 movsd
  00011	a5		 movsd
  00012	a5		 movsd
  00013	5f		 pop	 edi
  00014	5e		 pop	 esi

; 382  : }

  00015	5d		 pop	 ebp
  00016	c2 08 00	 ret	 8
?GetAttackDir@ioAdhesiveMissileWeapon3@@UBE?AUD3DXVECTOR3@@PBVioPlayEntity@@@Z ENDP ; ioAdhesiveMissileWeapon3::GetAttackDir
_TEXT	ENDS
PUBLIC	?GetType@ioAdhesiveMissileWeapon3@@UBE?AW4WeaponType@ioWeapon@@XZ ; ioAdhesiveMissileWeapon3::GetType
; Function compile flags: /Ogsp
;	COMDAT ?GetType@ioAdhesiveMissileWeapon3@@UBE?AW4WeaponType@ioWeapon@@XZ
_TEXT	SEGMENT
?GetType@ioAdhesiveMissileWeapon3@@UBE?AW4WeaponType@ioWeapon@@XZ PROC ; ioAdhesiveMissileWeapon3::GetType, COMDAT
; _this$ = ecx

; 386  : 	return WT_ADHESIVE_MISSILE3;

  00000	6a 41		 push	 65			; 00000041H
  00002	58		 pop	 eax

; 387  : }

  00003	c3		 ret	 0
?GetType@ioAdhesiveMissileWeapon3@@UBE?AW4WeaponType@ioWeapon@@XZ ENDP ; ioAdhesiveMissileWeapon3::GetType
_TEXT	ENDS
PUBLIC	?GetActionStopType@ioAdhesiveMissileWeapon3@@UBE?AW4ActionStopType@@XZ ; ioAdhesiveMissileWeapon3::GetActionStopType
; Function compile flags: /Ogsp
;	COMDAT ?GetActionStopType@ioAdhesiveMissileWeapon3@@UBE?AW4ActionStopType@@XZ
_TEXT	SEGMENT
?GetActionStopType@ioAdhesiveMissileWeapon3@@UBE?AW4ActionStopType@@XZ PROC ; ioAdhesiveMissileWeapon3::GetActionStopType, COMDAT
; _this$ = ecx

; 404  : 	return m_ActionStopType;

  00000	a1 00 00 00 00	 mov	 eax, DWORD PTR ?m_ActionStopType@ioAdhesiveMissileWeapon3@@2W4ActionStopType@@A ; ioAdhesiveMissileWeapon3::m_ActionStopType

; 405  : }

  00005	c3		 ret	 0
?GetActionStopType@ioAdhesiveMissileWeapon3@@UBE?AW4ActionStopType@@XZ ENDP ; ioAdhesiveMissileWeapon3::GetActionStopType
_TEXT	ENDS
PUBLIC	?GetDieActionStopType@ioAdhesiveMissileWeapon3@@UBE?AW4ActionStopType@@XZ ; ioAdhesiveMissileWeapon3::GetDieActionStopType
; Function compile flags: /Ogsp
;	COMDAT ?GetDieActionStopType@ioAdhesiveMissileWeapon3@@UBE?AW4ActionStopType@@XZ
_TEXT	SEGMENT
?GetDieActionStopType@ioAdhesiveMissileWeapon3@@UBE?AW4ActionStopType@@XZ PROC ; ioAdhesiveMissileWeapon3::GetDieActionStopType, COMDAT
; _this$ = ecx

; 409  : 	return m_DieActionStopType;

  00000	a1 00 00 00 00	 mov	 eax, DWORD PTR ?m_DieActionStopType@ioAdhesiveMissileWeapon3@@2W4ActionStopType@@A ; ioAdhesiveMissileWeapon3::m_DieActionStopType

; 410  : }

  00005	c3		 ret	 0
?GetDieActionStopType@ioAdhesiveMissileWeapon3@@UBE?AW4ActionStopType@@XZ ENDP ; ioAdhesiveMissileWeapon3::GetDieActionStopType
_TEXT	ENDS
PUBLIC	?GetAttribute@ioAdhesiveMissileWeapon3@@MBEPBUWeaponAttribute@@XZ ; ioAdhesiveMissileWeapon3::GetAttribute
; Function compile flags: /Ogsp
;	COMDAT ?GetAttribute@ioAdhesiveMissileWeapon3@@MBEPBUWeaponAttribute@@XZ
_TEXT	SEGMENT
?GetAttribute@ioAdhesiveMissileWeapon3@@MBEPBUWeaponAttribute@@XZ PROC ; ioAdhesiveMissileWeapon3::GetAttribute, COMDAT
; _this$ = ecx

; 448  : 	if( m_bResistance )

  00000	80 b9 3c 06 00
	00 00		 cmp	 BYTE PTR [ecx+1596], 0
  00007	74 07		 je	 SHORT $LN1@GetAttribu

; 449  : 	{
; 450  : 		if( m_pResistanceAttr )

  00009	8b 41 0c	 mov	 eax, DWORD PTR [ecx+12]
  0000c	85 c0		 test	 eax, eax

; 451  : 			return m_pResistanceAttr;

  0000e	75 03		 jne	 SHORT $LN3@GetAttribu
$LN1@GetAttribu:

; 452  : 	}
; 453  : 
; 454  : 	return m_pConstAttr;

  00010	8b 41 08	 mov	 eax, DWORD PTR [ecx+8]
$LN3@GetAttribu:

; 455  : }

  00013	c3		 ret	 0
?GetAttribute@ioAdhesiveMissileWeapon3@@MBEPBUWeaponAttribute@@XZ ENDP ; ioAdhesiveMissileWeapon3::GetAttribute
_TEXT	ENDS
PUBLIC	?IsProtectState@ioAdhesiveMissileWeapon3@@IAE_NPAVioBaseChar@@@Z ; ioAdhesiveMissileWeapon3::IsProtectState
EXTRN	?IsProtectState@ioBaseChar@@QAE_NXZ:PROC	; ioBaseChar::IsProtectState
EXTRN	?HasBuff@ioBaseChar@@QBE_NH@Z:PROC		; ioBaseChar::HasBuff
; Function compile flags: /Ogsp
;	COMDAT ?IsProtectState@ioAdhesiveMissileWeapon3@@IAE_NPAVioBaseChar@@@Z
_TEXT	SEGMENT
_pChar$ = 8						; size = 4
?IsProtectState@ioAdhesiveMissileWeapon3@@IAE_NPAVioBaseChar@@@Z PROC ; ioAdhesiveMissileWeapon3::IsProtectState, COMDAT
; _this$ = ecx

; 530  : {

  00000	55		 push	 ebp
  00001	8b ec		 mov	 ebp, esp

; 531  : 	if( pChar->HasBuff( BT_STATE_PROTECTION ) || pChar->HasBuff( BT_STATE_PROTECTION_BY_PASSIVE ) )

  00003	8b 4d 08	 mov	 ecx, DWORD PTR _pChar$[ebp]
  00006	6a 23		 push	 35			; 00000023H
  00008	e8 00 00 00 00	 call	 ?HasBuff@ioBaseChar@@QBE_NH@Z ; ioBaseChar::HasBuff
  0000d	84 c0		 test	 al, al
  0000f	75 1b		 jne	 SHORT $LN1@IsProtectS
  00011	8b 4d 08	 mov	 ecx, DWORD PTR _pChar$[ebp]
  00014	68 9c 00 00 00	 push	 156			; 0000009cH
  00019	e8 00 00 00 00	 call	 ?HasBuff@ioBaseChar@@QBE_NH@Z ; ioBaseChar::HasBuff
  0001e	84 c0		 test	 al, al
  00020	75 0a		 jne	 SHORT $LN1@IsProtectS

; 533  : 	
; 534  : 	return pChar->IsProtectState();

  00022	8b 4d 08	 mov	 ecx, DWORD PTR _pChar$[ebp]
  00025	e8 00 00 00 00	 call	 ?IsProtectState@ioBaseChar@@QAE_NXZ ; ioBaseChar::IsProtectState
  0002a	eb 02		 jmp	 SHORT $LN3@IsProtectS
$LN1@IsProtectS:

; 532  : 		return true;

  0002c	b0 01		 mov	 al, 1
$LN3@IsProtectS:

; 535  : }

  0002e	5d		 pop	 ebp
  0002f	c2 04 00	 ret	 4
?IsProtectState@ioAdhesiveMissileWeapon3@@IAE_NPAVioBaseChar@@@Z ENDP ; ioAdhesiveMissileWeapon3::IsProtectState
_TEXT	ENDS
PUBLIC	?GetTargetAirBuffList@ioAdhesiveMissileWeapon3@@UBEABV?$vector@UBuffInfoStruct@@V?$allocator@UBuffInfoStruct@@@std@@@std@@XZ ; ioAdhesiveMissileWeapon3::GetTargetAirBuffList
; Function compile flags: /Ogsp
;	COMDAT ?GetTargetAirBuffList@ioAdhesiveMissileWeapon3@@UBEABV?$vector@UBuffInfoStruct@@V?$allocator@UBuffInfoStruct@@@std@@@std@@XZ
_TEXT	SEGMENT
?GetTargetAirBuffList@ioAdhesiveMissileWeapon3@@UBEABV?$vector@UBuffInfoStruct@@V?$allocator@UBuffInfoStruct@@@std@@@std@@XZ PROC ; ioAdhesiveMissileWeapon3::GetTargetAirBuffList, COMDAT
; _this$ = ecx

; 539  : 	if( m_bCharColState )

  00000	80 b9 a0 09 00
	00 00		 cmp	 BYTE PTR [ecx+2464], 0
  00007	74 0e		 je	 SHORT $LN1@GetTargetA

; 540  : 		return GetAttribute()->m_TargetAirBuffList;

  00009	8b 01		 mov	 eax, DWORD PTR [ecx]
  0000b	ff 90 3c 01 00
	00		 call	 DWORD PTR [eax+316]
  00011	05 d4 01 00 00	 add	 eax, 468		; 000001d4H

; 543  : }

  00016	c3		 ret	 0
$LN1@GetTargetA:

; 541  : 
; 542  : 	return m_FirstColBuffList;

  00017	8d 81 a4 09 00
	00		 lea	 eax, DWORD PTR [ecx+2468]

; 543  : }

  0001d	c3		 ret	 0
?GetTargetAirBuffList@ioAdhesiveMissileWeapon3@@UBEABV?$vector@UBuffInfoStruct@@V?$allocator@UBuffInfoStruct@@@std@@@std@@XZ ENDP ; ioAdhesiveMissileWeapon3::GetTargetAirBuffList
_TEXT	ENDS
PUBLIC	?GetTargetBuffList@ioAdhesiveMissileWeapon3@@UBEABV?$vector@UBuffInfoStruct@@V?$allocator@UBuffInfoStruct@@@std@@@std@@XZ ; ioAdhesiveMissileWeapon3::GetTargetBuffList
; Function compile flags: /Ogsp
;	COMDAT ?GetTargetBuffList@ioAdhesiveMissileWeapon3@@UBEABV?$vector@UBuffInfoStruct@@V?$allocator@UBuffInfoStruct@@@std@@@std@@XZ
_TEXT	SEGMENT
?GetTargetBuffList@ioAdhesiveMissileWeapon3@@UBEABV?$vector@UBuffInfoStruct@@V?$allocator@UBuffInfoStruct@@@std@@@std@@XZ PROC ; ioAdhesiveMissileWeapon3::GetTargetBuffList, COMDAT
; _this$ = ecx

; 547  : 	if( m_bCharColState )

  00000	80 b9 a0 09 00
	00 00		 cmp	 BYTE PTR [ecx+2464], 0
  00007	74 0e		 je	 SHORT $LN1@GetTargetB

; 548  : 		return GetAttribute()->m_TargetBuffList;

  00009	8b 01		 mov	 eax, DWORD PTR [ecx]
  0000b	ff 90 3c 01 00
	00		 call	 DWORD PTR [eax+316]
  00011	05 e4 01 00 00	 add	 eax, 484		; 000001e4H

; 551  : }

  00016	c3		 ret	 0
$LN1@GetTargetB:

; 549  : 
; 550  : 	return m_FirstColBuffList;

  00017	8d 81 a4 09 00
	00		 lea	 eax, DWORD PTR [ecx+2468]

; 551  : }

  0001d	c3		 ret	 0
?GetTargetBuffList@ioAdhesiveMissileWeapon3@@UBEABV?$vector@UBuffInfoStruct@@V?$allocator@UBuffInfoStruct@@@std@@@std@@XZ ENDP ; ioAdhesiveMissileWeapon3::GetTargetBuffList
_TEXT	ENDS
PUBLIC	?GetTargetDownBuffList@ioAdhesiveMissileWeapon3@@UBEABV?$vector@UBuffInfoStruct@@V?$allocator@UBuffInfoStruct@@@std@@@std@@XZ ; ioAdhesiveMissileWeapon3::GetTargetDownBuffList
; Function compile flags: /Ogsp
;	COMDAT ?GetTargetDownBuffList@ioAdhesiveMissileWeapon3@@UBEABV?$vector@UBuffInfoStruct@@V?$allocator@UBuffInfoStruct@@@std@@@std@@XZ
_TEXT	SEGMENT
?GetTargetDownBuffList@ioAdhesiveMissileWeapon3@@UBEABV?$vector@UBuffInfoStruct@@V?$allocator@UBuffInfoStruct@@@std@@@std@@XZ PROC ; ioAdhesiveMissileWeapon3::GetTargetDownBuffList, COMDAT
; _this$ = ecx

; 555  : 	if( m_bCharColState )

  00000	80 b9 a0 09 00
	00 00		 cmp	 BYTE PTR [ecx+2464], 0
  00007	74 0e		 je	 SHORT $LN1@GetTargetD

; 556  : 		return GetAttribute()->m_TargetDownBuffList;

  00009	8b 01		 mov	 eax, DWORD PTR [ecx]
  0000b	ff 90 3c 01 00
	00		 call	 DWORD PTR [eax+316]
  00011	05 f4 01 00 00	 add	 eax, 500		; 000001f4H

; 559  : }

  00016	c3		 ret	 0
$LN1@GetTargetD:

; 557  : 
; 558  : 	return m_FirstColBuffList;

  00017	8d 81 a4 09 00
	00		 lea	 eax, DWORD PTR [ecx+2468]

; 559  : }

  0001d	c3		 ret	 0
?GetTargetDownBuffList@ioAdhesiveMissileWeapon3@@UBEABV?$vector@UBuffInfoStruct@@V?$allocator@UBuffInfoStruct@@@std@@@std@@XZ ENDP ; ioAdhesiveMissileWeapon3::GetTargetDownBuffList
_TEXT	ENDS
PUBLIC	?CheckWeaponCollision@ioAdhesiveMissileWeapon3@@UAEXXZ ; ioAdhesiveMissileWeapon3::CheckWeaponCollision
; Function compile flags: /Ogsp
;	COMDAT ?CheckWeaponCollision@ioAdhesiveMissileWeapon3@@UAEXXZ
_TEXT	SEGMENT
?CheckWeaponCollision@ioAdhesiveMissileWeapon3@@UAEXXZ PROC ; ioAdhesiveMissileWeapon3::CheckWeaponCollision, COMDAT
; _this$ = ecx

; 563  : 	m_bCharColState = true;

  00000	c6 81 a0 09 00
	00 01		 mov	 BYTE PTR [ecx+2464], 1

; 564  : }

  00007	c3		 ret	 0
?CheckWeaponCollision@ioAdhesiveMissileWeapon3@@UAEXXZ ENDP ; ioAdhesiveMissileWeapon3::CheckWeaponCollision
_TEXT	ENDS
PUBLIC	?CheckOwnerAttach@ioAdhesiveMissileWeapon3@@QAEX_N@Z ; ioAdhesiveMissileWeapon3::CheckOwnerAttach
; Function compile flags: /Ogsp
;	COMDAT ?CheckOwnerAttach@ioAdhesiveMissileWeapon3@@QAEX_N@Z
_TEXT	SEGMENT
_bAttach$ = 8						; size = 1
?CheckOwnerAttach@ioAdhesiveMissileWeapon3@@QAEX_N@Z PROC ; ioAdhesiveMissileWeapon3::CheckOwnerAttach, COMDAT
; _this$ = ecx

; 567  : {

  00000	55		 push	 ebp
  00001	8b ec		 mov	 ebp, esp

; 568  : 	m_bOwnerAttach = bAttach;

  00003	8a 45 08	 mov	 al, BYTE PTR _bAttach$[ebp]
  00006	88 81 9f 09 00
	00		 mov	 BYTE PTR [ecx+2463], al

; 569  : }

  0000c	5d		 pop	 ebp
  0000d	c2 04 00	 ret	 4
?CheckOwnerAttach@ioAdhesiveMissileWeapon3@@QAEX_N@Z ENDP ; ioAdhesiveMissileWeapon3::CheckOwnerAttach
_TEXT	ENDS
PUBLIC	?SetWeaponDead@ioAdhesiveMissileWeapon3@@UAEXXZ	; ioAdhesiveMissileWeapon3::SetWeaponDead
EXTRN	?SetSkillCreateWeaponDependency@ioBaseChar@@QAEXABVioHashString@@@Z:PROC ; ioBaseChar::SetSkillCreateWeaponDependency
EXTRN	?GetWeaponBySkillName@ioWeapon@@QBEABVioHashString@@XZ:PROC ; ioWeapon::GetWeaponBySkillName
EXTRN	?GetOwner@ioWeapon@@QBEPAVioBaseChar@@XZ:PROC	; ioWeapon::GetOwner
EXTRN	?SetWeaponDead@ioWeapon@@UAEXXZ:PROC		; ioWeapon::SetWeaponDead
; Function compile flags: /Ogsp
;	COMDAT ?SetWeaponDead@ioAdhesiveMissileWeapon3@@UAEXXZ
_TEXT	SEGMENT
?SetWeaponDead@ioAdhesiveMissileWeapon3@@UAEXXZ PROC	; ioAdhesiveMissileWeapon3::SetWeaponDead, COMDAT
; _this$ = ecx

; 572  : {

  00000	56		 push	 esi
  00001	57		 push	 edi
  00002	8b f1		 mov	 esi, ecx

; 573  : 	ioWeapon::SetWeaponDead();

  00004	e8 00 00 00 00	 call	 ?SetWeaponDead@ioWeapon@@UAEXXZ ; ioWeapon::SetWeaponDead

; 574  : 
; 575  : 	ioBaseChar *pOwner = GetOwner();

  00009	8b ce		 mov	 ecx, esi
  0000b	e8 00 00 00 00	 call	 ?GetOwner@ioWeapon@@QBEPAVioBaseChar@@XZ ; ioWeapon::GetOwner
  00010	8b f8		 mov	 edi, eax

; 576  : 	if( pOwner )

  00012	85 ff		 test	 edi, edi
  00014	74 0f		 je	 SHORT $LN1@SetWeaponD

; 577  : 	{
; 578  : 		pOwner->SetSkillCreateWeaponDependency( GetWeaponBySkillName() );

  00016	8b ce		 mov	 ecx, esi
  00018	e8 00 00 00 00	 call	 ?GetWeaponBySkillName@ioWeapon@@QBEABVioHashString@@XZ ; ioWeapon::GetWeaponBySkillName
  0001d	50		 push	 eax
  0001e	8b cf		 mov	 ecx, edi
  00020	e8 00 00 00 00	 call	 ?SetSkillCreateWeaponDependency@ioBaseChar@@QAEXABVioHashString@@@Z ; ioBaseChar::SetSkillCreateWeaponDependency
$LN1@SetWeaponD:

; 579  : 	}	
; 580  : }

  00025	5f		 pop	 edi
  00026	5e		 pop	 esi
  00027	c3		 ret	 0
?SetWeaponDead@ioAdhesiveMissileWeapon3@@UAEXXZ ENDP	; ioAdhesiveMissileWeapon3::SetWeaponDead
_TEXT	ENDS
PUBLIC	?size@?$vector@UChangeDirInfo@@V?$allocator@UChangeDirInfo@@@std@@@std@@QBEIXZ ; std::vector<ChangeDirInfo,std::allocator<ChangeDirInfo> >::size
; Function compile flags: /Ogsp
; File c:\program files (x86)\microsoft visual studio 10.0\vc\include\vector
;	COMDAT ?size@?$vector@UChangeDirInfo@@V?$allocator@UChangeDirInfo@@@std@@@std@@QBEIXZ
_TEXT	SEGMENT
?size@?$vector@UChangeDirInfo@@V?$allocator@UChangeDirInfo@@@std@@@std@@QBEIXZ PROC ; std::vector<ChangeDirInfo,std::allocator<ChangeDirInfo> >::size, COMDAT
; _this$ = ecx

; 879  : 		return (this->_Mylast - this->_Myfirst);

  00000	8b 41 04	 mov	 eax, DWORD PTR [ecx+4]
  00003	2b 01		 sub	 eax, DWORD PTR [ecx]
  00005	6a 1c		 push	 28			; 0000001cH
  00007	99		 cdq
  00008	59		 pop	 ecx
  00009	f7 f9		 idiv	 ecx

; 880  : 		}

  0000b	c3		 ret	 0
?size@?$vector@UChangeDirInfo@@V?$allocator@UChangeDirInfo@@@std@@@std@@QBEIXZ ENDP ; std::vector<ChangeDirInfo,std::allocator<ChangeDirInfo> >::size
_TEXT	ENDS
PUBLIC	?empty@?$vector@UChangeDirInfo@@V?$allocator@UChangeDirInfo@@@std@@@std@@QBE_NXZ ; std::vector<ChangeDirInfo,std::allocator<ChangeDirInfo> >::empty
; Function compile flags: /Ogsp
;	COMDAT ?empty@?$vector@UChangeDirInfo@@V?$allocator@UChangeDirInfo@@@std@@@std@@QBE_NXZ
_TEXT	SEGMENT
?empty@?$vector@UChangeDirInfo@@V?$allocator@UChangeDirInfo@@@std@@@std@@QBE_NXZ PROC ; std::vector<ChangeDirInfo,std::allocator<ChangeDirInfo> >::empty, COMDAT
; _this$ = ecx

; 889  : 		return (this->_Myfirst == this->_Mylast);

  00000	8b 01		 mov	 eax, DWORD PTR [ecx]
  00002	2b 41 04	 sub	 eax, DWORD PTR [ecx+4]
  00005	f7 d8		 neg	 eax
  00007	1b c0		 sbb	 eax, eax
  00009	40		 inc	 eax

; 890  : 		}

  0000a	c3		 ret	 0
?empty@?$vector@UChangeDirInfo@@V?$allocator@UChangeDirInfo@@@std@@@std@@QBE_NXZ ENDP ; std::vector<ChangeDirInfo,std::allocator<ChangeDirInfo> >::empty
_TEXT	ENDS
PUBLIC	??A?$vector@UChangeDirInfo@@V?$allocator@UChangeDirInfo@@@std@@@std@@QAEAAUChangeDirInfo@@I@Z ; std::vector<ChangeDirInfo,std::allocator<ChangeDirInfo> >::operator[]
; Function compile flags: /Ogsp
;	COMDAT ??A?$vector@UChangeDirInfo@@V?$allocator@UChangeDirInfo@@@std@@@std@@QAEAAUChangeDirInfo@@I@Z
_TEXT	SEGMENT
__Pos$ = 8						; size = 4
??A?$vector@UChangeDirInfo@@V?$allocator@UChangeDirInfo@@@std@@@std@@QAEAAUChangeDirInfo@@I@Z PROC ; std::vector<ChangeDirInfo,std::allocator<ChangeDirInfo> >::operator[], COMDAT
; _this$ = ecx

; 928  : 		{	// subscript mutable sequence

  00000	55		 push	 ebp
  00001	8b ec		 mov	 ebp, esp

; 929  :  #if _ITERATOR_DEBUG_LEVEL == 2
; 930  : 		if (size() <= _Pos)
; 931  : 			{	// report error
; 932  : 			_DEBUG_ERROR("vector subscript out of range");
; 933  : 			_SCL_SECURE_OUT_OF_RANGE;
; 934  : 			}
; 935  : 
; 936  :  #elif _ITERATOR_DEBUG_LEVEL == 1
; 937  : 		_SCL_SECURE_VALIDATE_RANGE(_Pos < size());
; 938  :  #endif /* _ITERATOR_DEBUG_LEVEL */
; 939  : 
; 940  : 		return (*(this->_Myfirst + _Pos));

  00003	8b 45 08	 mov	 eax, DWORD PTR __Pos$[ebp]
  00006	6b c0 1c	 imul	 eax, 28			; 0000001cH
  00009	03 01		 add	 eax, DWORD PTR [ecx]

; 941  : 		}

  0000b	5d		 pop	 ebp
  0000c	c2 04 00	 ret	 4
??A?$vector@UChangeDirInfo@@V?$allocator@UChangeDirInfo@@@std@@@std@@QAEAAUChangeDirInfo@@I@Z ENDP ; std::vector<ChangeDirInfo,std::allocator<ChangeDirInfo> >::operator[]
_TEXT	ENDS
PUBLIC	?_Inside@?$vector@UBuffInfoStruct@@V?$allocator@UBuffInfoStruct@@@std@@@std@@IBE_NPBUBuffInfoStruct@@@Z ; std::vector<BuffInfoStruct,std::allocator<BuffInfoStruct> >::_Inside
; Function compile flags: /Ogsp
;	COMDAT ?_Inside@?$vector@UBuffInfoStruct@@V?$allocator@UBuffInfoStruct@@@std@@@std@@IBE_NPBUBuffInfoStruct@@@Z
_TEXT	SEGMENT
__Ptr$ = 8						; size = 4
?_Inside@?$vector@UBuffInfoStruct@@V?$allocator@UBuffInfoStruct@@@std@@@std@@IBE_NPBUBuffInfoStruct@@@Z PROC ; std::vector<BuffInfoStruct,std::allocator<BuffInfoStruct> >::_Inside, COMDAT
; _this$ = ecx

; 1285 : 		{	// test if _Ptr points inside vector

  00000	55		 push	 ebp
  00001	8b ec		 mov	 ebp, esp

; 1286 : 		return (_Ptr < this->_Mylast && this->_Myfirst <= _Ptr);

  00003	8b 45 08	 mov	 eax, DWORD PTR __Ptr$[ebp]
  00006	3b 41 04	 cmp	 eax, DWORD PTR [ecx+4]
  00009	73 09		 jae	 SHORT $LN3@Inside
  0000b	39 01		 cmp	 DWORD PTR [ecx], eax
  0000d	77 05		 ja	 SHORT $LN3@Inside
  0000f	33 c0		 xor	 eax, eax
  00011	40		 inc	 eax
  00012	eb 02		 jmp	 SHORT $LN4@Inside
$LN3@Inside:
  00014	33 c0		 xor	 eax, eax
$LN4@Inside:

; 1287 : 		}

  00016	5d		 pop	 ebp
  00017	c2 04 00	 ret	 4
?_Inside@?$vector@UBuffInfoStruct@@V?$allocator@UBuffInfoStruct@@@std@@@std@@IBE_NPBUBuffInfoStruct@@@Z ENDP ; std::vector<BuffInfoStruct,std::allocator<BuffInfoStruct> >::_Inside
_TEXT	ENDS
PUBLIC	?_Orphan_range@?$vector@UBuffInfoStruct@@V?$allocator@UBuffInfoStruct@@@std@@@std@@IBEXPAUBuffInfoStruct@@0@Z ; std::vector<BuffInfoStruct,std::allocator<BuffInfoStruct> >::_Orphan_range
; Function compile flags: /Ogsp
;	COMDAT ?_Orphan_range@?$vector@UBuffInfoStruct@@V?$allocator@UBuffInfoStruct@@@std@@@std@@IBEXPAUBuffInfoStruct@@0@Z
_TEXT	SEGMENT
___formal$ = 8						; size = 4
___formal$ = 12						; size = 4
?_Orphan_range@?$vector@UBuffInfoStruct@@V?$allocator@UBuffInfoStruct@@@std@@@std@@IBEXPAUBuffInfoStruct@@0@Z PROC ; std::vector<BuffInfoStruct,std::allocator<BuffInfoStruct> >::_Orphan_range, COMDAT
; _this$ = ecx

; 1454 : 		}

  00000	c2 08 00	 ret	 8
?_Orphan_range@?$vector@UBuffInfoStruct@@V?$allocator@UBuffInfoStruct@@@std@@@std@@IBEXPAUBuffInfoStruct@@0@Z ENDP ; std::vector<BuffInfoStruct,std::allocator<BuffInfoStruct> >::_Orphan_range
_TEXT	ENDS
PUBLIC	?capacity@?$vector@UChangeDirInfo@@V?$allocator@UChangeDirInfo@@@std@@@std@@QBEIXZ ; std::vector<ChangeDirInfo,std::allocator<ChangeDirInfo> >::capacity
; Function compile flags: /Ogsp
;	COMDAT ?capacity@?$vector@UChangeDirInfo@@V?$allocator@UChangeDirInfo@@@std@@@std@@QBEIXZ
_TEXT	SEGMENT
?capacity@?$vector@UChangeDirInfo@@V?$allocator@UChangeDirInfo@@@std@@@std@@QBEIXZ PROC ; std::vector<ChangeDirInfo,std::allocator<ChangeDirInfo> >::capacity, COMDAT
; _this$ = ecx

; 777  : 		return (this->_Myend - this->_Myfirst);

  00000	8b 41 08	 mov	 eax, DWORD PTR [ecx+8]
  00003	2b 01		 sub	 eax, DWORD PTR [ecx]
  00005	6a 1c		 push	 28			; 0000001cH
  00007	99		 cdq
  00008	59		 pop	 ecx
  00009	f7 f9		 idiv	 ecx

; 778  : 		}

  0000b	c3		 ret	 0
?capacity@?$vector@UChangeDirInfo@@V?$allocator@UChangeDirInfo@@@std@@@std@@QBEIXZ ENDP ; std::vector<ChangeDirInfo,std::allocator<ChangeDirInfo> >::capacity
_TEXT	ENDS
PUBLIC	?_Inside@?$vector@UChangeDirInfo@@V?$allocator@UChangeDirInfo@@@std@@@std@@IBE_NPBUChangeDirInfo@@@Z ; std::vector<ChangeDirInfo,std::allocator<ChangeDirInfo> >::_Inside
; Function compile flags: /Ogsp
;	COMDAT ?_Inside@?$vector@UChangeDirInfo@@V?$allocator@UChangeDirInfo@@@std@@@std@@IBE_NPBUChangeDirInfo@@@Z
_TEXT	SEGMENT
__Ptr$ = 8						; size = 4
?_Inside@?$vector@UChangeDirInfo@@V?$allocator@UChangeDirInfo@@@std@@@std@@IBE_NPBUChangeDirInfo@@@Z PROC ; std::vector<ChangeDirInfo,std::allocator<ChangeDirInfo> >::_Inside, COMDAT
; _this$ = ecx

; 1285 : 		{	// test if _Ptr points inside vector

  00000	55		 push	 ebp
  00001	8b ec		 mov	 ebp, esp

; 1286 : 		return (_Ptr < this->_Mylast && this->_Myfirst <= _Ptr);

  00003	8b 45 08	 mov	 eax, DWORD PTR __Ptr$[ebp]
  00006	3b 41 04	 cmp	 eax, DWORD PTR [ecx+4]
  00009	73 09		 jae	 SHORT $LN3@Inside@2
  0000b	39 01		 cmp	 DWORD PTR [ecx], eax
  0000d	77 05		 ja	 SHORT $LN3@Inside@2
  0000f	33 c0		 xor	 eax, eax
  00011	40		 inc	 eax
  00012	eb 02		 jmp	 SHORT $LN4@Inside@2
$LN3@Inside@2:
  00014	33 c0		 xor	 eax, eax
$LN4@Inside@2:

; 1287 : 		}

  00016	5d		 pop	 ebp
  00017	c2 04 00	 ret	 4
?_Inside@?$vector@UChangeDirInfo@@V?$allocator@UChangeDirInfo@@@std@@@std@@IBE_NPBUChangeDirInfo@@@Z ENDP ; std::vector<ChangeDirInfo,std::allocator<ChangeDirInfo> >::_Inside
_TEXT	ENDS
PUBLIC	??_C@_0BD@OLBABOEK@vector?$DMT?$DO?5too?5long?$AA@ ; `string'
PUBLIC	?_Xlen@?$vector@UChangeDirInfo@@V?$allocator@UChangeDirInfo@@@std@@@std@@IBEXXZ ; std::vector<ChangeDirInfo,std::allocator<ChangeDirInfo> >::_Xlen
EXTRN	__imp_?_Xlength_error@std@@YAXPBD@Z:PROC
;	COMDAT ??_C@_0BD@OLBABOEK@vector?$DMT?$DO?5too?5long?$AA@
CONST	SEGMENT
??_C@_0BD@OLBABOEK@vector?$DMT?$DO?5too?5long?$AA@ DB 'vector<T> too long'
	DB	00H						; `string'
; Function compile flags: /Ogsp
CONST	ENDS
;	COMDAT ?_Xlen@?$vector@UChangeDirInfo@@V?$allocator@UChangeDirInfo@@@std@@@std@@IBEXXZ
_TEXT	SEGMENT
?_Xlen@?$vector@UChangeDirInfo@@V?$allocator@UChangeDirInfo@@@std@@@std@@IBEXXZ PROC ; std::vector<ChangeDirInfo,std::allocator<ChangeDirInfo> >::_Xlen, COMDAT
; _this$ = ecx

; 1427 : 		_Xlength_error("vector<T> too long");

  00000	68 00 00 00 00	 push	 OFFSET ??_C@_0BD@OLBABOEK@vector?$DMT?$DO?5too?5long?$AA@
  00005	ff 15 00 00 00
	00		 call	 DWORD PTR __imp_?_Xlength_error@std@@YAXPBD@Z
$LN4@Xlen:
$LN3@Xlen:
  0000b	cc		 int	 3
?_Xlen@?$vector@UChangeDirInfo@@V?$allocator@UChangeDirInfo@@@std@@@std@@IBEXXZ ENDP ; std::vector<ChangeDirInfo,std::allocator<ChangeDirInfo> >::_Xlen
_TEXT	ENDS
PUBLIC	?_Orphan_range@?$vector@UChangeDirInfo@@V?$allocator@UChangeDirInfo@@@std@@@std@@IBEXPAUChangeDirInfo@@0@Z ; std::vector<ChangeDirInfo,std::allocator<ChangeDirInfo> >::_Orphan_range
; Function compile flags: /Ogsp
;	COMDAT ?_Orphan_range@?$vector@UChangeDirInfo@@V?$allocator@UChangeDirInfo@@@std@@@std@@IBEXPAUChangeDirInfo@@0@Z
_TEXT	SEGMENT
___formal$ = 8						; size = 4
___formal$ = 12						; size = 4
?_Orphan_range@?$vector@UChangeDirInfo@@V?$allocator@UChangeDirInfo@@@std@@@std@@IBEXPAUChangeDirInfo@@0@Z PROC ; std::vector<ChangeDirInfo,std::allocator<ChangeDirInfo> >::_Orphan_range, COMDAT
; _this$ = ecx

; 1454 : 		}

  00000	c2 08 00	 ret	 8
?_Orphan_range@?$vector@UChangeDirInfo@@V?$allocator@UChangeDirInfo@@@std@@@std@@IBEXPAUChangeDirInfo@@0@Z ENDP ; std::vector<ChangeDirInfo,std::allocator<ChangeDirInfo> >::_Orphan_range
_TEXT	ENDS
PUBLIC	??1?$_Vector_val@UChangeDirInfo@@V?$allocator@UChangeDirInfo@@@std@@@std@@QAE@XZ ; std::_Vector_val<ChangeDirInfo,std::allocator<ChangeDirInfo> >::~_Vector_val<ChangeDirInfo,std::allocator<ChangeDirInfo> >
; Function compile flags: /Ogsp
;	COMDAT ??1?$_Vector_val@UChangeDirInfo@@V?$allocator@UChangeDirInfo@@@std@@@std@@QAE@XZ
_TEXT	SEGMENT
??1?$_Vector_val@UChangeDirInfo@@V?$allocator@UChangeDirInfo@@@std@@@std@@QAE@XZ PROC ; std::_Vector_val<ChangeDirInfo,std::allocator<ChangeDirInfo> >::~_Vector_val<ChangeDirInfo,std::allocator<ChangeDirInfo> >, COMDAT
; _this$ = ecx

; 434  : 		}

  00000	c3		 ret	 0
??1?$_Vector_val@UChangeDirInfo@@V?$allocator@UChangeDirInfo@@@std@@@std@@QAE@XZ ENDP ; std::_Vector_val<ChangeDirInfo,std::allocator<ChangeDirInfo> >::~_Vector_val<ChangeDirInfo,std::allocator<ChangeDirInfo> >
_TEXT	ENDS
PUBLIC	??0?$allocator@UChangeDirInfo@@@std@@QAE@XZ	; std::allocator<ChangeDirInfo>::allocator<ChangeDirInfo>
; Function compile flags: /Ogsp
; File c:\program files (x86)\microsoft visual studio 10.0\vc\include\xmemory
;	COMDAT ??0?$allocator@UChangeDirInfo@@@std@@QAE@XZ
_TEXT	SEGMENT
??0?$allocator@UChangeDirInfo@@@std@@QAE@XZ PROC	; std::allocator<ChangeDirInfo>::allocator<ChangeDirInfo>, COMDAT
; _this$ = ecx

; 161  : 	_ALLOCATOR() _THROW0()

  00000	8b c1		 mov	 eax, ecx

; 162  : 		{	// construct default allocator (do nothing)
; 163  : 		}

  00002	c3		 ret	 0
??0?$allocator@UChangeDirInfo@@@std@@QAE@XZ ENDP	; std::allocator<ChangeDirInfo>::allocator<ChangeDirInfo>
_TEXT	ENDS
PUBLIC	?deallocate@?$allocator@UChangeDirInfo@@@std@@QAEXPAUChangeDirInfo@@I@Z ; std::allocator<ChangeDirInfo>::deallocate
; Function compile flags: /Ogsp
;	COMDAT ?deallocate@?$allocator@UChangeDirInfo@@@std@@QAEXPAUChangeDirInfo@@I@Z
_TEXT	SEGMENT
__Ptr$ = 8						; size = 4
___formal$ = 12						; size = 4
?deallocate@?$allocator@UChangeDirInfo@@@std@@QAEXPAUChangeDirInfo@@I@Z PROC ; std::allocator<ChangeDirInfo>::deallocate, COMDAT
; _this$ = ecx

; 181  : 		{	// deallocate object at _Ptr, ignore size

  00000	55		 push	 ebp
  00001	8b ec		 mov	 ebp, esp

; 182  : 		::operator delete(_Ptr);

  00003	ff 75 08	 push	 DWORD PTR __Ptr$[ebp]
  00006	e8 00 00 00 00	 call	 ??3@YAXPAX@Z		; operator delete
  0000b	59		 pop	 ecx

; 183  : 		}

  0000c	5d		 pop	 ebp
  0000d	c2 08 00	 ret	 8
?deallocate@?$allocator@UChangeDirInfo@@@std@@QAEXPAUChangeDirInfo@@I@Z ENDP ; std::allocator<ChangeDirInfo>::deallocate
_TEXT	ENDS
PUBLIC	??0?$allocator@UChangeDirInfo@@@std@@QAE@ABV01@@Z ; std::allocator<ChangeDirInfo>::allocator<ChangeDirInfo>
; Function compile flags: /Ogsp
;	COMDAT ??0?$allocator@UChangeDirInfo@@@std@@QAE@ABV01@@Z
_TEXT	SEGMENT
___formal$ = 8						; size = 4
??0?$allocator@UChangeDirInfo@@@std@@QAE@ABV01@@Z PROC	; std::allocator<ChangeDirInfo>::allocator<ChangeDirInfo>, COMDAT
; _this$ = ecx

; 165  : 	_ALLOCATOR(const _ALLOCATOR<_Ty>&) _THROW0()

  00000	8b c1		 mov	 eax, ecx

; 166  : 		{	// construct by copying (do nothing)
; 167  : 		}

  00002	c2 04 00	 ret	 4
??0?$allocator@UChangeDirInfo@@@std@@QAE@ABV01@@Z ENDP	; std::allocator<ChangeDirInfo>::allocator<ChangeDirInfo>
_TEXT	ENDS
PUBLIC	?max_size@?$allocator@UChangeDirInfo@@@std@@QBEIXZ ; std::allocator<ChangeDirInfo>::max_size
; Function compile flags: /Ogsp
;	COMDAT ?max_size@?$allocator@UChangeDirInfo@@@std@@QBEIXZ
_TEXT	SEGMENT
?max_size@?$allocator@UChangeDirInfo@@@std@@QBEIXZ PROC	; std::allocator<ChangeDirInfo>::max_size, COMDAT
; _this$ = ecx

; 218  : 		_SIZT _Count = (_SIZT)(-1) / sizeof (_Ty);
; 219  : 		return (0 < _Count ? _Count : 1);

  00000	b8 49 92 24 09	 mov	 eax, 153391689		; 09249249H

; 220  : 		}

  00005	c3		 ret	 0
?max_size@?$allocator@UChangeDirInfo@@@std@@QBEIXZ ENDP	; std::allocator<ChangeDirInfo>::max_size
_TEXT	ENDS
PUBLIC	??0?$_Vector_const_iterator@V?$_Vector_val@UChangeDirInfo@@V?$allocator@UChangeDirInfo@@@std@@@std@@@std@@QAE@PAUChangeDirInfo@@PBU_Container_base0@1@@Z ; std::_Vector_const_iterator<std::_Vector_val<ChangeDirInfo,std::allocator<ChangeDirInfo> > >::_Vector_const_iterator<std::_Vector_val<ChangeDirInfo,std::allocator<ChangeDirInfo> > >
; Function compile flags: /Ogsp
; File c:\program files (x86)\microsoft visual studio 10.0\vc\include\vector
;	COMDAT ??0?$_Vector_const_iterator@V?$_Vector_val@UChangeDirInfo@@V?$allocator@UChangeDirInfo@@@std@@@std@@@std@@QAE@PAUChangeDirInfo@@PBU_Container_base0@1@@Z
_TEXT	SEGMENT
__Parg$ = 8						; size = 4
__Pvector$ = 12						; size = 4
??0?$_Vector_const_iterator@V?$_Vector_val@UChangeDirInfo@@V?$allocator@UChangeDirInfo@@@std@@@std@@@std@@QAE@PAUChangeDirInfo@@PBU_Container_base0@1@@Z PROC ; std::_Vector_const_iterator<std::_Vector_val<ChangeDirInfo,std::allocator<ChangeDirInfo> > >::_Vector_const_iterator<std::_Vector_val<ChangeDirInfo,std::allocator<ChangeDirInfo> > >, COMDAT
; _this$ = ecx

; 45   : 		{	// construct with pointer _Parg

  00000	55		 push	 ebp
  00001	8b ec		 mov	 ebp, esp
  00003	8b c1		 mov	 eax, ecx
  00005	8b 4d 08	 mov	 ecx, DWORD PTR __Parg$[ebp]
  00008	89 08		 mov	 DWORD PTR [eax], ecx

; 46   : 		this->_Adopt(_Pvector);
; 47   : 		}

  0000a	5d		 pop	 ebp
  0000b	c2 08 00	 ret	 8
??0?$_Vector_const_iterator@V?$_Vector_val@UChangeDirInfo@@V?$allocator@UChangeDirInfo@@@std@@@std@@@std@@QAE@PAUChangeDirInfo@@PBU_Container_base0@1@@Z ENDP ; std::_Vector_const_iterator<std::_Vector_val<ChangeDirInfo,std::allocator<ChangeDirInfo> > >::_Vector_const_iterator<std::_Vector_val<ChangeDirInfo,std::allocator<ChangeDirInfo> > >
_TEXT	ENDS
PUBLIC	?_Compat@?$_Vector_const_iterator@V?$_Vector_val@UChangeDirInfo@@V?$allocator@UChangeDirInfo@@@std@@@std@@@std@@QBEXABV12@@Z ; std::_Vector_const_iterator<std::_Vector_val<ChangeDirInfo,std::allocator<ChangeDirInfo> > >::_Compat
; Function compile flags: /Ogsp
;	COMDAT ?_Compat@?$_Vector_const_iterator@V?$_Vector_val@UChangeDirInfo@@V?$allocator@UChangeDirInfo@@@std@@@std@@@std@@QBEXABV12@@Z
_TEXT	SEGMENT
___formal$ = 8						; size = 4
?_Compat@?$_Vector_const_iterator@V?$_Vector_val@UChangeDirInfo@@V?$allocator@UChangeDirInfo@@@std@@@std@@@std@@QBEXABV12@@Z PROC ; std::_Vector_const_iterator<std::_Vector_val<ChangeDirInfo,std::allocator<ChangeDirInfo> > >::_Compat, COMDAT
; _this$ = ecx

; 253  : 		}

  00000	c2 04 00	 ret	 4
?_Compat@?$_Vector_const_iterator@V?$_Vector_val@UChangeDirInfo@@V?$allocator@UChangeDirInfo@@@std@@@std@@@std@@QBEXABV12@@Z ENDP ; std::_Vector_const_iterator<std::_Vector_val<ChangeDirInfo,std::allocator<ChangeDirInfo> > >::_Compat
_TEXT	ENDS
PUBLIC	??0D3DXVECTOR3@@QAE@XZ				; D3DXVECTOR3::D3DXVECTOR3
; Function compile flags: /Ogsp
; File c:\program files (x86)\microsoft directx sdk (june 2010)\include\d3dx9math.h
;	COMDAT ??0D3DXVECTOR3@@QAE@XZ
_TEXT	SEGMENT
??0D3DXVECTOR3@@QAE@XZ PROC				; D3DXVECTOR3::D3DXVECTOR3, COMDAT
; _this$ = ecx

; 165  :     D3DXVECTOR3() {};

  00000	8b c1		 mov	 eax, ecx
  00002	c3		 ret	 0
??0D3DXVECTOR3@@QAE@XZ ENDP				; D3DXVECTOR3::D3DXVECTOR3
_TEXT	ENDS
PUBLIC	??0D3DXQUATERNION@@QAE@XZ			; D3DXQUATERNION::D3DXQUATERNION
; Function compile flags: /Ogsp
;	COMDAT ??0D3DXQUATERNION@@QAE@XZ
_TEXT	SEGMENT
??0D3DXQUATERNION@@QAE@XZ PROC				; D3DXQUATERNION::D3DXQUATERNION, COMDAT
; _this$ = ecx

; 429  :     D3DXQUATERNION() {}

  00000	8b c1		 mov	 eax, ecx
  00002	c3		 ret	 0
??0D3DXQUATERNION@@QAE@XZ ENDP				; D3DXQUATERNION::D3DXQUATERNION
_TEXT	ENDS
PUBLIC	??0D3DXVECTOR3@@QAE@MMM@Z			; D3DXVECTOR3::D3DXVECTOR3
; Function compile flags: /Ogsp
; File c:\program files (x86)\microsoft directx sdk (june 2010)\include\d3dx9math.inl
;	COMDAT ??0D3DXVECTOR3@@QAE@MMM@Z
_TEXT	SEGMENT
_fx$ = 8						; size = 4
_fy$ = 12						; size = 4
_fz$ = 16						; size = 4
??0D3DXVECTOR3@@QAE@MMM@Z PROC				; D3DXVECTOR3::D3DXVECTOR3, COMDAT
; _this$ = ecx

; 303  : {

  00000	55		 push	 ebp
  00001	8b ec		 mov	 ebp, esp

; 304  :     x = fx;

  00003	f3 0f 10 45 08	 movss	 xmm0, DWORD PTR _fx$[ebp]
  00008	8b c1		 mov	 eax, ecx
  0000a	f3 0f 11 00	 movss	 DWORD PTR [eax], xmm0

; 305  :     y = fy;

  0000e	f3 0f 10 45 0c	 movss	 xmm0, DWORD PTR _fy$[ebp]
  00013	f3 0f 11 40 04	 movss	 DWORD PTR [eax+4], xmm0

; 306  :     z = fz;

  00018	f3 0f 10 45 10	 movss	 xmm0, DWORD PTR _fz$[ebp]
  0001d	f3 0f 11 40 08	 movss	 DWORD PTR [eax+8], xmm0

; 307  : }

  00022	5d		 pop	 ebp
  00023	c2 0c 00	 ret	 12			; 0000000cH
??0D3DXVECTOR3@@QAE@MMM@Z ENDP				; D3DXVECTOR3::D3DXVECTOR3
_TEXT	ENDS
PUBLIC	__real@3f91df46a2526c7a
PUBLIC	??$DEGtoRAD@M@@YAMM@Z				; DEGtoRAD<float>
;	COMDAT __real@3f91df46a2526c7a
; File d:\lost saga for developer\youtube\tutorial\source\src\lsclient\veryoftenusedefine.h
CONST	SEGMENT
__real@3f91df46a2526c7a DQ 03f91df46a2526c7ar	; 0.0174533
; Function compile flags: /Ogsp
CONST	ENDS
;	COMDAT ??$DEGtoRAD@M@@YAMM@Z
_TEXT	SEGMENT
tv129 = 8						; size = 4
_val$ = 8						; size = 4
??$DEGtoRAD@M@@YAMM@Z PROC				; DEGtoRAD<float>, COMDAT

; 20   : type  DEGtoRAD (type val) {return (type) (val * 0.0174532925199);}

  00000	55		 push	 ebp
  00001	8b ec		 mov	 ebp, esp
  00003	d9 45 08	 fld	 DWORD PTR _val$[ebp]
  00006	dc 0d 00 00 00
	00		 fmul	 QWORD PTR __real@3f91df46a2526c7a
  0000c	d9 5d 08	 fstp	 DWORD PTR tv129[ebp]
  0000f	d9 45 08	 fld	 DWORD PTR tv129[ebp]
  00012	5d		 pop	 ebp
  00013	c3		 ret	 0
??$DEGtoRAD@M@@YAMM@Z ENDP				; DEGtoRAD<float>
_TEXT	ENDS
PUBLIC	??$addressof@$$CBUBuffInfoStruct@@@std@@YAPBUBuffInfoStruct@@ABU1@@Z ; std::addressof<BuffInfoStruct const >
; Function compile flags: /Ogsp
; File c:\program files (x86)\microsoft visual studio 10.0\vc\include\xmemory
;	COMDAT ??$addressof@$$CBUBuffInfoStruct@@@std@@YAPBUBuffInfoStruct@@ABU1@@Z
_TEXT	SEGMENT
__Val$ = 8						; size = 4
??$addressof@$$CBUBuffInfoStruct@@@std@@YAPBUBuffInfoStruct@@ABU1@@Z PROC ; std::addressof<BuffInfoStruct const >, COMDAT

; 110  : 	{	// return address of _Val

  00000	55		 push	 ebp
  00001	8b ec		 mov	 ebp, esp

; 111  : 	return ((_Ty *) &(char&)_Val);

  00003	8b 45 08	 mov	 eax, DWORD PTR __Val$[ebp]

; 112  : 	}

  00006	5d		 pop	 ebp
  00007	c3		 ret	 0
??$addressof@$$CBUBuffInfoStruct@@@std@@YAPBUBuffInfoStruct@@ABU1@@Z ENDP ; std::addressof<BuffInfoStruct const >
_TEXT	ENDS
PUBLIC	??$addressof@$$CBUChangeDirInfo@@@std@@YAPBUChangeDirInfo@@ABU1@@Z ; std::addressof<ChangeDirInfo const >
; Function compile flags: /Ogsp
;	COMDAT ??$addressof@$$CBUChangeDirInfo@@@std@@YAPBUChangeDirInfo@@ABU1@@Z
_TEXT	SEGMENT
__Val$ = 8						; size = 4
??$addressof@$$CBUChangeDirInfo@@@std@@YAPBUChangeDirInfo@@ABU1@@Z PROC ; std::addressof<ChangeDirInfo const >, COMDAT

; 110  : 	{	// return address of _Val

  00000	55		 push	 ebp
  00001	8b ec		 mov	 ebp, esp

; 111  : 	return ((_Ty *) &(char&)_Val);

  00003	8b 45 08	 mov	 eax, DWORD PTR __Val$[ebp]

; 112  : 	}

  00006	5d		 pop	 ebp
  00007	c3		 ret	 0
??$addressof@$$CBUChangeDirInfo@@@std@@YAPBUChangeDirInfo@@ABU1@@Z ENDP ; std::addressof<ChangeDirInfo const >
_TEXT	ENDS
PUBLIC	__mask@@NegFloat@
PUBLIC	??GD3DXVECTOR3@@QBE?AU0@XZ			; D3DXVECTOR3::operator-
;	COMDAT __mask@@NegFloat@
; File c:\program files (x86)\microsoft directx sdk (june 2010)\include\d3dx9math.inl
CONST	SEGMENT
__mask@@NegFloat@ DB 00H, 00H, 00H, 080H, 00H, 00H, 00H, 080H, 00H, 00H, 00H
	DB	080H, 00H, 00H, 00H, 080H
; Function compile flags: /Ogsp
CONST	ENDS
;	COMDAT ??GD3DXVECTOR3@@QBE?AU0@XZ
_TEXT	SEGMENT
___$ReturnUdt$ = 8					; size = 4
??GD3DXVECTOR3@@QBE?AU0@XZ PROC				; D3DXVECTOR3::operator-, COMDAT
; _this$ = ecx

; 372  : {

  00000	55		 push	 ebp
  00001	8b ec		 mov	 ebp, esp

; 373  :     return D3DXVECTOR3(-x, -y, -z);

  00003	f3 0f 10 05 00
	00 00 00	 movss	 xmm0, DWORD PTR __mask@@NegFloat@
  0000b	8b 45 08	 mov	 eax, DWORD PTR ___$ReturnUdt$[ebp]
  0000e	f3 0f 10 09	 movss	 xmm1, DWORD PTR [ecx]
  00012	0f 57 c8	 xorps	 xmm1, xmm0
  00015	f3 0f 11 08	 movss	 DWORD PTR [eax], xmm1
  00019	f3 0f 10 49 04	 movss	 xmm1, DWORD PTR [ecx+4]
  0001e	0f 57 c8	 xorps	 xmm1, xmm0
  00021	f3 0f 11 48 04	 movss	 DWORD PTR [eax+4], xmm1
  00026	f3 0f 10 49 08	 movss	 xmm1, DWORD PTR [ecx+8]
  0002b	0f 57 c8	 xorps	 xmm1, xmm0
  0002e	f3 0f 11 48 08	 movss	 DWORD PTR [eax+8], xmm1

; 374  : }

  00033	5d		 pop	 ebp
  00034	c2 04 00	 ret	 4
??GD3DXVECTOR3@@QBE?AU0@XZ ENDP				; D3DXVECTOR3::operator-
_TEXT	ENDS
PUBLIC	??HD3DXVECTOR3@@QBE?AU0@ABU0@@Z			; D3DXVECTOR3::operator+
; Function compile flags: /Ogsp
;	COMDAT ??HD3DXVECTOR3@@QBE?AU0@ABU0@@Z
_TEXT	SEGMENT
___$ReturnUdt$ = 8					; size = 4
_v$ = 12						; size = 4
??HD3DXVECTOR3@@QBE?AU0@ABU0@@Z PROC			; D3DXVECTOR3::operator+, COMDAT
; _this$ = ecx

; 380  : {

  00000	55		 push	 ebp
  00001	8b ec		 mov	 ebp, esp

; 381  :     return D3DXVECTOR3(x + v.x, y + v.y, z + v.z);

  00003	8b 55 0c	 mov	 edx, DWORD PTR _v$[ebp]
  00006	f3 0f 10 02	 movss	 xmm0, DWORD PTR [edx]
  0000a	f3 0f 10 09	 movss	 xmm1, DWORD PTR [ecx]
  0000e	8b 45 08	 mov	 eax, DWORD PTR ___$ReturnUdt$[ebp]
  00011	0f 5a c0	 cvtps2pd xmm0, xmm0
  00014	0f 5a c9	 cvtps2pd xmm1, xmm1
  00017	f2 0f 58 c1	 addsd	 xmm0, xmm1
  0001b	f3 0f 10 49 04	 movss	 xmm1, DWORD PTR [ecx+4]
  00020	66 0f 5a c0	 cvtpd2ps xmm0, xmm0
  00024	f3 0f 11 00	 movss	 DWORD PTR [eax], xmm0
  00028	f3 0f 10 42 04	 movss	 xmm0, DWORD PTR [edx+4]
  0002d	0f 5a c0	 cvtps2pd xmm0, xmm0
  00030	0f 5a c9	 cvtps2pd xmm1, xmm1
  00033	f2 0f 58 c1	 addsd	 xmm0, xmm1
  00037	f3 0f 10 49 08	 movss	 xmm1, DWORD PTR [ecx+8]
  0003c	66 0f 5a c0	 cvtpd2ps xmm0, xmm0
  00040	f3 0f 11 40 04	 movss	 DWORD PTR [eax+4], xmm0
  00045	f3 0f 10 42 08	 movss	 xmm0, DWORD PTR [edx+8]
  0004a	0f 5a c0	 cvtps2pd xmm0, xmm0
  0004d	0f 5a c9	 cvtps2pd xmm1, xmm1
  00050	f2 0f 58 c1	 addsd	 xmm0, xmm1
  00054	66 0f 5a c0	 cvtpd2ps xmm0, xmm0
  00058	f3 0f 11 40 08	 movss	 DWORD PTR [eax+8], xmm0

; 382  : }

  0005d	5d		 pop	 ebp
  0005e	c2 08 00	 ret	 8
??HD3DXVECTOR3@@QBE?AU0@ABU0@@Z ENDP			; D3DXVECTOR3::operator+
_TEXT	ENDS
PUBLIC	__TI2?AVbad_alloc@std@@
PUBLIC	??$_Allocate@UChangeDirInfo@@@std@@YAPAUChangeDirInfo@@IPAU1@@Z ; std::_Allocate<ChangeDirInfo>
PUBLIC	__CTA2?AVbad_alloc@std@@
PUBLIC	__CT??_R0?AVbad_alloc@std@@@8??0bad_alloc@std@@QAE@ABV01@@Z12
PUBLIC	??0bad_alloc@std@@QAE@ABV01@@Z			; std::bad_alloc::bad_alloc
PUBLIC	__CT??_R0?AVexception@std@@@8??0exception@std@@QAE@ABV01@@Z12
EXTRN	??2@YAPAXI@Z:PROC				; operator new
EXTRN	__CxxThrowException@8:PROC
EXTRN	??0exception@std@@QAE@ABV01@@Z:PROC		; std::exception::exception
;	COMDAT __CT??_R0?AVexception@std@@@8??0exception@std@@QAE@ABV01@@Z12
; File c:\program files (x86)\microsoft visual studio 10.0\vc\include\exception
xdata$x	SEGMENT
__CT??_R0?AVexception@std@@@8??0exception@std@@QAE@ABV01@@Z12 DD 00H
	DD	FLAT:??_R0?AVexception@std@@@8
	DD	00H
	DD	0ffffffffH
	ORG $+4
	DD	0cH
	DD	FLAT:??0exception@std@@QAE@ABV01@@Z
xdata$x	ENDS
;	COMDAT __CT??_R0?AVbad_alloc@std@@@8??0bad_alloc@std@@QAE@ABV01@@Z12
xdata$x	SEGMENT
__CT??_R0?AVbad_alloc@std@@@8??0bad_alloc@std@@QAE@ABV01@@Z12 DD 00H
	DD	FLAT:??_R0?AVbad_alloc@std@@@8
	DD	00H
	DD	0ffffffffH
	ORG $+4
	DD	0cH
	DD	FLAT:??0bad_alloc@std@@QAE@ABV01@@Z
xdata$x	ENDS
;	COMDAT __CTA2?AVbad_alloc@std@@
xdata$x	SEGMENT
__CTA2?AVbad_alloc@std@@ DD 02H
	DD	FLAT:__CT??_R0?AVbad_alloc@std@@@8??0bad_alloc@std@@QAE@ABV01@@Z12
	DD	FLAT:__CT??_R0?AVexception@std@@@8??0exception@std@@QAE@ABV01@@Z12
xdata$x	ENDS
;	COMDAT __TI2?AVbad_alloc@std@@
xdata$x	SEGMENT
__TI2?AVbad_alloc@std@@ DD 00H
	DD	FLAT:??1bad_alloc@std@@UAE@XZ
	DD	00H
	DD	FLAT:__CTA2?AVbad_alloc@std@@
; Function compile flags: /Ogsp
; File c:\program files (x86)\microsoft visual studio 10.0\vc\include\xmemory
xdata$x	ENDS
;	COMDAT ??$_Allocate@UChangeDirInfo@@@std@@YAPAUChangeDirInfo@@IPAU1@@Z
_TEXT	SEGMENT
$T536324 = -12						; size = 12
$T536329 = 8						; size = 4
__Count$ = 8						; size = 4
___formal$ = 12						; size = 4
??$_Allocate@UChangeDirInfo@@@std@@YAPAUChangeDirInfo@@IPAU1@@Z PROC ; std::_Allocate<ChangeDirInfo>, COMDAT

; 30   : 	{	// allocate storage for _Count elements of type _Ty

  00000	55		 push	 ebp
  00001	8b ec		 mov	 ebp, esp

; 31   : 	void *_Ptr = 0;
; 32   : 
; 33   : 	if (_Count <= 0)

  00003	8b 4d 08	 mov	 ecx, DWORD PTR __Count$[ebp]
  00006	83 ec 0c	 sub	 esp, 12			; 0000000cH
  00009	33 c0		 xor	 eax, eax
  0000b	85 c9		 test	 ecx, ecx

; 34   : 		_Count = 0;
; 35   : 	else if (((_SIZT)(-1) / sizeof (_Ty) < _Count)

  0000d	74 3c		 je	 SHORT $LN5@Allocate

; 36   : 		|| (_Ptr = ::operator new(_Count * sizeof (_Ty))) == 0)

  0000f	81 f9 49 92 24
	09		 cmp	 ecx, 153391689		; 09249249H
  00015	77 0e		 ja	 SHORT $LN1@Allocate
  00017	6b c9 1c	 imul	 ecx, 28			; 0000001cH
  0001a	51		 push	 ecx
  0001b	e8 00 00 00 00	 call	 ??2@YAPAXI@Z		; operator new
  00020	59		 pop	 ecx
  00021	85 c0		 test	 eax, eax

; 38   : 
; 39   : 	return ((_Ty _FARQ *)_Ptr);

  00023	75 26		 jne	 SHORT $LN5@Allocate
$LN1@Allocate:

; 37   : 		_THROW_NCEE(bad_alloc, 0);

  00025	83 65 08 00	 and	 DWORD PTR $T536329[ebp], 0
  00029	8d 45 08	 lea	 eax, DWORD PTR $T536329[ebp]
  0002c	50		 push	 eax
  0002d	8d 4d f4	 lea	 ecx, DWORD PTR $T536324[ebp]
  00030	ff 15 00 00 00
	00		 call	 DWORD PTR __imp_??0exception@std@@QAE@ABQBD@Z
  00036	68 00 00 00 00	 push	 OFFSET __TI2?AVbad_alloc@std@@
  0003b	8d 45 f4	 lea	 eax, DWORD PTR $T536324[ebp]
  0003e	50		 push	 eax
  0003f	c7 45 f4 00 00
	00 00		 mov	 DWORD PTR $T536324[ebp], OFFSET ??_7bad_alloc@std@@6B@
  00046	e8 00 00 00 00	 call	 __CxxThrowException@8
$LN10@Allocate:
$LN5@Allocate:

; 40   : 	}

  0004b	c9		 leave
  0004c	c3		 ret	 0
$LN9@Allocate:
??$_Allocate@UChangeDirInfo@@@std@@YAPAUChangeDirInfo@@IPAU1@@Z ENDP ; std::_Allocate<ChangeDirInfo>
_TEXT	ENDS
PUBLIC	??DD3DXVECTOR3@@QBE?AU0@M@Z			; D3DXVECTOR3::operator*
; Function compile flags: /Ogsp
; File c:\program files (x86)\microsoft directx sdk (june 2010)\include\d3dx9math.inl
;	COMDAT ??DD3DXVECTOR3@@QBE?AU0@M@Z
_TEXT	SEGMENT
___$ReturnUdt$ = 8					; size = 4
_f$ = 12						; size = 4
??DD3DXVECTOR3@@QBE?AU0@M@Z PROC			; D3DXVECTOR3::operator*, COMDAT
; _this$ = ecx

; 392  : {

  00000	55		 push	 ebp
  00001	8b ec		 mov	 ebp, esp

; 393  :     return D3DXVECTOR3(x * f, y * f, z * f);

  00003	f3 0f 10 4d 0c	 movss	 xmm1, DWORD PTR _f$[ebp]
  00008	f3 0f 10 01	 movss	 xmm0, DWORD PTR [ecx]
  0000c	8b 45 08	 mov	 eax, DWORD PTR ___$ReturnUdt$[ebp]
  0000f	0f 5a c0	 cvtps2pd xmm0, xmm0
  00012	0f 5a c9	 cvtps2pd xmm1, xmm1
  00015	f2 0f 59 c1	 mulsd	 xmm0, xmm1
  00019	f3 0f 10 4d 0c	 movss	 xmm1, DWORD PTR _f$[ebp]
  0001e	66 0f 5a c0	 cvtpd2ps xmm0, xmm0
  00022	f3 0f 11 00	 movss	 DWORD PTR [eax], xmm0
  00026	f3 0f 10 41 04	 movss	 xmm0, DWORD PTR [ecx+4]
  0002b	0f 5a c0	 cvtps2pd xmm0, xmm0
  0002e	0f 5a c9	 cvtps2pd xmm1, xmm1
  00031	f2 0f 59 c1	 mulsd	 xmm0, xmm1
  00035	f3 0f 10 4d 0c	 movss	 xmm1, DWORD PTR _f$[ebp]
  0003a	66 0f 5a c0	 cvtpd2ps xmm0, xmm0
  0003e	f3 0f 11 40 04	 movss	 DWORD PTR [eax+4], xmm0
  00043	f3 0f 10 41 08	 movss	 xmm0, DWORD PTR [ecx+8]
  00048	0f 5a c0	 cvtps2pd xmm0, xmm0
  0004b	0f 5a c9	 cvtps2pd xmm1, xmm1
  0004e	f2 0f 59 c1	 mulsd	 xmm0, xmm1
  00052	66 0f 5a c0	 cvtpd2ps xmm0, xmm0
  00056	f3 0f 11 40 08	 movss	 DWORD PTR [eax+8], xmm0

; 394  : }

  0005b	5d		 pop	 ebp
  0005c	c2 08 00	 ret	 8
??DD3DXVECTOR3@@QBE?AU0@M@Z ENDP			; D3DXVECTOR3::operator*
_TEXT	ENDS
PUBLIC	??G?$_Vector_const_iterator@V?$_Vector_val@UChangeDirInfo@@V?$allocator@UChangeDirInfo@@@std@@@std@@@std@@QBEHABV01@@Z ; std::_Vector_const_iterator<std::_Vector_val<ChangeDirInfo,std::allocator<ChangeDirInfo> > >::operator-
; Function compile flags: /Ogsp
; File c:\program files (x86)\microsoft visual studio 10.0\vc\include\vector
;	COMDAT ??G?$_Vector_const_iterator@V?$_Vector_val@UChangeDirInfo@@V?$allocator@UChangeDirInfo@@@std@@@std@@@std@@QBEHABV01@@Z
_TEXT	SEGMENT
__Right$ = 8						; size = 4
??G?$_Vector_const_iterator@V?$_Vector_val@UChangeDirInfo@@V?$allocator@UChangeDirInfo@@@std@@@std@@@std@@QBEHABV01@@Z PROC ; std::_Vector_const_iterator<std::_Vector_val<ChangeDirInfo,std::allocator<ChangeDirInfo> > >::operator-, COMDAT
; _this$ = ecx

; 190  : 		{	// return difference of iterators

  00000	55		 push	 ebp
  00001	8b ec		 mov	 ebp, esp

; 191  : 		_Compat(_Right);
; 192  : 		return (this->_Ptr - _Right._Ptr);

  00003	8b 01		 mov	 eax, DWORD PTR [ecx]
  00005	8b 4d 08	 mov	 ecx, DWORD PTR __Right$[ebp]
  00008	2b 01		 sub	 eax, DWORD PTR [ecx]
  0000a	6a 1c		 push	 28			; 0000001cH
  0000c	99		 cdq
  0000d	59		 pop	 ecx
  0000e	f7 f9		 idiv	 ecx

; 193  : 		}

  00010	5d		 pop	 ebp
  00011	c2 04 00	 ret	 4
??G?$_Vector_const_iterator@V?$_Vector_val@UChangeDirInfo@@V?$allocator@UChangeDirInfo@@@std@@@std@@@std@@QBEHABV01@@Z ENDP ; std::_Vector_const_iterator<std::_Vector_val<ChangeDirInfo,std::allocator<ChangeDirInfo> > >::operator-
_TEXT	ENDS
PUBLIC	??$forward@ABUBuffInfoStruct@@@std@@YAABUBuffInfoStruct@@ABU1@@Z ; std::forward<BuffInfoStruct const &>
; Function compile flags: /Ogsp
; File c:\program files (x86)\microsoft visual studio 10.0\vc\include\utility
;	COMDAT ??$forward@ABUBuffInfoStruct@@@std@@YAABUBuffInfoStruct@@ABU1@@Z
_TEXT	SEGMENT
__Arg$ = 8						; size = 4
??$forward@ABUBuffInfoStruct@@@std@@YAABUBuffInfoStruct@@ABU1@@Z PROC ; std::forward<BuffInfoStruct const &>, COMDAT

; 78   : 	{	// forward _Arg, given explicitly specified type parameter

  00000	55		 push	 ebp
  00001	8b ec		 mov	 ebp, esp

; 79   : 	return ((_Ty&&)_Arg);

  00003	8b 45 08	 mov	 eax, DWORD PTR __Arg$[ebp]

; 80   : 	}

  00006	5d		 pop	 ebp
  00007	c3		 ret	 0
??$forward@ABUBuffInfoStruct@@@std@@YAABUBuffInfoStruct@@ABU1@@Z ENDP ; std::forward<BuffInfoStruct const &>
_TEXT	ENDS
PUBLIC	??$forward@AAUChangeDirInfo@@@std@@YAAAUChangeDirInfo@@AAU1@@Z ; std::forward<ChangeDirInfo &>
; Function compile flags: /Ogsp
;	COMDAT ??$forward@AAUChangeDirInfo@@@std@@YAAAUChangeDirInfo@@AAU1@@Z
_TEXT	SEGMENT
__Arg$ = 8						; size = 4
??$forward@AAUChangeDirInfo@@@std@@YAAAUChangeDirInfo@@AAU1@@Z PROC ; std::forward<ChangeDirInfo &>, COMDAT

; 78   : 	{	// forward _Arg, given explicitly specified type parameter

  00000	55		 push	 ebp
  00001	8b ec		 mov	 ebp, esp

; 79   : 	return ((_Ty&&)_Arg);

  00003	8b 45 08	 mov	 eax, DWORD PTR __Arg$[ebp]

; 80   : 	}

  00006	5d		 pop	 ebp
  00007	c3		 ret	 0
??$forward@AAUChangeDirInfo@@@std@@YAAAUChangeDirInfo@@AAU1@@Z ENDP ; std::forward<ChangeDirInfo &>
_TEXT	ENDS
PUBLIC	??$construct@AAUChangeDirInfo@@@?$allocator@UChangeDirInfo@@@std@@QAEXPAUChangeDirInfo@@AAU2@@Z ; std::allocator<ChangeDirInfo>::construct<ChangeDirInfo &>
; Function compile flags: /Ogsp
; File c:\program files (x86)\microsoft visual studio 10.0\vc\include\xmemory
;	COMDAT ??$construct@AAUChangeDirInfo@@@?$allocator@UChangeDirInfo@@@std@@QAEXPAUChangeDirInfo@@AAU2@@Z
_TEXT	SEGMENT
__Ptr$ = 8						; size = 4
__Val$ = 12						; size = 4
??$construct@AAUChangeDirInfo@@@?$allocator@UChangeDirInfo@@@std@@QAEXPAUChangeDirInfo@@AAU2@@Z PROC ; std::allocator<ChangeDirInfo>::construct<ChangeDirInfo &>, COMDAT
; _this$ = ecx

; 206  : 		void construct(pointer _Ptr, _Other&& _Val)

  00000	55		 push	 ebp
  00001	8b ec		 mov	 ebp, esp
  00003	57		 push	 edi

; 207  : 		{	// construct object at _Ptr with value _Val
; 208  : 		::new ((void _FARQ *)_Ptr) _Ty(_STD forward<_Other>(_Val));

  00004	8b 7d 08	 mov	 edi, DWORD PTR __Ptr$[ebp]
  00007	85 ff		 test	 edi, edi
  00009	74 0a		 je	 SHORT $LN3@construct
  0000b	56		 push	 esi
  0000c	8b 75 0c	 mov	 esi, DWORD PTR __Val$[ebp]
  0000f	6a 07		 push	 7
  00011	59		 pop	 ecx
  00012	f3 a5		 rep movsd
  00014	5e		 pop	 esi
$LN3@construct:
  00015	5f		 pop	 edi

; 209  : 		}

  00016	5d		 pop	 ebp
  00017	c2 08 00	 ret	 8
??$construct@AAUChangeDirInfo@@@?$allocator@UChangeDirInfo@@@std@@QAEXPAUChangeDirInfo@@AAU2@@Z ENDP ; std::allocator<ChangeDirInfo>::construct<ChangeDirInfo &>
_TEXT	ENDS
PUBLIC	??$forward@ABUChangeDirInfo@@@std@@YAABUChangeDirInfo@@ABU1@@Z ; std::forward<ChangeDirInfo const &>
; Function compile flags: /Ogsp
; File c:\program files (x86)\microsoft visual studio 10.0\vc\include\utility
;	COMDAT ??$forward@ABUChangeDirInfo@@@std@@YAABUChangeDirInfo@@ABU1@@Z
_TEXT	SEGMENT
__Arg$ = 8						; size = 4
??$forward@ABUChangeDirInfo@@@std@@YAABUChangeDirInfo@@ABU1@@Z PROC ; std::forward<ChangeDirInfo const &>, COMDAT

; 78   : 	{	// forward _Arg, given explicitly specified type parameter

  00000	55		 push	 ebp
  00001	8b ec		 mov	 ebp, esp

; 79   : 	return ((_Ty&&)_Arg);

  00003	8b 45 08	 mov	 eax, DWORD PTR __Arg$[ebp]

; 80   : 	}

  00006	5d		 pop	 ebp
  00007	c3		 ret	 0
??$forward@ABUChangeDirInfo@@@std@@YAABUChangeDirInfo@@ABU1@@Z ENDP ; std::forward<ChangeDirInfo const &>
_TEXT	ENDS
PUBLIC	??$_Ptr_cat@UChangeDirInfo@@U1@@std@@YA?AU_Nonscalar_ptr_iterator_tag@0@PAUChangeDirInfo@@0@Z ; std::_Ptr_cat<ChangeDirInfo,ChangeDirInfo>
; Function compile flags: /Ogsp
; File c:\program files (x86)\microsoft visual studio 10.0\vc\include\xutility
;	COMDAT ??$_Ptr_cat@UChangeDirInfo@@U1@@std@@YA?AU_Nonscalar_ptr_iterator_tag@0@PAUChangeDirInfo@@0@Z
_TEXT	SEGMENT
__Cat$ = -1						; size = 1
___formal$ = 8						; size = 4
___formal$ = 12						; size = 4
??$_Ptr_cat@UChangeDirInfo@@U1@@std@@YA?AU_Nonscalar_ptr_iterator_tag@0@PAUChangeDirInfo@@0@Z PROC ; std::_Ptr_cat<ChangeDirInfo,ChangeDirInfo>, COMDAT

; 516  : 	{	// return pointer category from pointers

  00000	55		 push	 ebp
  00001	8b ec		 mov	 ebp, esp
  00003	51		 push	 ecx

; 517  : 	typename _Ptr_cat_helper<_Elem1, _Elem2>::_Type _Cat;
; 518  : 	return (_Cat);

  00004	8a 45 ff	 mov	 al, BYTE PTR __Cat$[ebp]

; 519  : 	}

  00007	c9		 leave
  00008	c3		 ret	 0
??$_Ptr_cat@UChangeDirInfo@@U1@@std@@YA?AU_Nonscalar_ptr_iterator_tag@0@PAUChangeDirInfo@@0@Z ENDP ; std::_Ptr_cat<ChangeDirInfo,ChangeDirInfo>
_TEXT	ENDS
PUBLIC	??$_Construct@UChangeDirInfo@@ABU1@@std@@YAXPAUChangeDirInfo@@ABU1@@Z ; std::_Construct<ChangeDirInfo,ChangeDirInfo const &>
; Function compile flags: /Ogsp
; File c:\program files (x86)\microsoft visual studio 10.0\vc\include\xmemory
;	COMDAT ??$_Construct@UChangeDirInfo@@ABU1@@std@@YAXPAUChangeDirInfo@@ABU1@@Z
_TEXT	SEGMENT
__Ptr$ = 8						; size = 4
__Val$ = 12						; size = 4
??$_Construct@UChangeDirInfo@@ABU1@@std@@YAXPAUChangeDirInfo@@ABU1@@Z PROC ; std::_Construct<ChangeDirInfo,ChangeDirInfo const &>, COMDAT

; 46   : 	{	// construct object at _Ptr with value _Val

  00000	55		 push	 ebp
  00001	8b ec		 mov	 ebp, esp
  00003	57		 push	 edi

; 47   : 	void _FARQ *_Vptr = _Ptr;
; 48   : 	::new (_Vptr) _Ty1(_STD forward<_Ty2>(_Val));

  00004	8b 7d 08	 mov	 edi, DWORD PTR __Ptr$[ebp]
  00007	85 ff		 test	 edi, edi
  00009	74 0a		 je	 SHORT $LN3@Construct
  0000b	56		 push	 esi
  0000c	8b 75 0c	 mov	 esi, DWORD PTR __Val$[ebp]
  0000f	6a 07		 push	 7
  00011	59		 pop	 ecx
  00012	f3 a5		 rep movsd
  00014	5e		 pop	 esi
$LN3@Construct:
  00015	5f		 pop	 edi

; 49   : 	}

  00016	5d		 pop	 ebp
  00017	c3		 ret	 0
??$_Construct@UChangeDirInfo@@ABU1@@std@@YAXPAUChangeDirInfo@@ABU1@@Z ENDP ; std::_Construct<ChangeDirInfo,ChangeDirInfo const &>
_TEXT	ENDS
PUBLIC	?_Unchecked@?$_Vector_iterator@V?$_Vector_val@UChangeDirInfo@@V?$allocator@UChangeDirInfo@@@std@@@std@@@std@@QBEPAUChangeDirInfo@@XZ ; std::_Vector_iterator<std::_Vector_val<ChangeDirInfo,std::allocator<ChangeDirInfo> > >::_Unchecked
; Function compile flags: /Ogsp
; File c:\program files (x86)\microsoft visual studio 10.0\vc\include\vector
;	COMDAT ?_Unchecked@?$_Vector_iterator@V?$_Vector_val@UChangeDirInfo@@V?$allocator@UChangeDirInfo@@@std@@@std@@@std@@QBEPAUChangeDirInfo@@XZ
_TEXT	SEGMENT
?_Unchecked@?$_Vector_iterator@V?$_Vector_val@UChangeDirInfo@@V?$allocator@UChangeDirInfo@@@std@@@std@@@std@@QBEPAUChangeDirInfo@@XZ PROC ; std::_Vector_iterator<std::_Vector_val<ChangeDirInfo,std::allocator<ChangeDirInfo> > >::_Unchecked, COMDAT
; _this$ = ecx

; 317  : 		return (_Unchecked_type(this->_Ptr));

  00000	8b 01		 mov	 eax, DWORD PTR [ecx]

; 318  : 		}

  00002	c3		 ret	 0
?_Unchecked@?$_Vector_iterator@V?$_Vector_val@UChangeDirInfo@@V?$allocator@UChangeDirInfo@@@std@@@std@@@std@@QBEPAUChangeDirInfo@@XZ ENDP ; std::_Vector_iterator<std::_Vector_val<ChangeDirInfo,std::allocator<ChangeDirInfo> > >::_Unchecked
_TEXT	ENDS
PUBLIC	??$_Val_type@PAUBuffInfoStruct@@@std@@YAPAUBuffInfoStruct@@PAU1@@Z ; std::_Val_type<BuffInfoStruct *>
; Function compile flags: /Ogsp
; File c:\program files (x86)\microsoft visual studio 10.0\vc\include\xutility
;	COMDAT ??$_Val_type@PAUBuffInfoStruct@@@std@@YAPAUBuffInfoStruct@@PAU1@@Z
_TEXT	SEGMENT
___formal$ = 8						; size = 4
??$_Val_type@PAUBuffInfoStruct@@@std@@YAPAUBuffInfoStruct@@PAU1@@Z PROC ; std::_Val_type<BuffInfoStruct *>, COMDAT

; 790  : 	return (0);

  00000	33 c0		 xor	 eax, eax

; 791  : 	}

  00002	c3		 ret	 0
??$_Val_type@PAUBuffInfoStruct@@@std@@YAPAUBuffInfoStruct@@PAU1@@Z ENDP ; std::_Val_type<BuffInfoStruct *>
_TEXT	ENDS
PUBLIC	??$_Val_type@PAUChangeDirInfo@@@std@@YAPAUChangeDirInfo@@PAU1@@Z ; std::_Val_type<ChangeDirInfo *>
; Function compile flags: /Ogsp
;	COMDAT ??$_Val_type@PAUChangeDirInfo@@@std@@YAPAUChangeDirInfo@@PAU1@@Z
_TEXT	SEGMENT
___formal$ = 8						; size = 4
??$_Val_type@PAUChangeDirInfo@@@std@@YAPAUChangeDirInfo@@PAU1@@Z PROC ; std::_Val_type<ChangeDirInfo *>, COMDAT

; 790  : 	return (0);

  00000	33 c0		 xor	 eax, eax

; 791  : 	}

  00002	c3		 ret	 0
??$_Val_type@PAUChangeDirInfo@@@std@@YAPAUChangeDirInfo@@PAU1@@Z ENDP ; std::_Val_type<ChangeDirInfo *>
_TEXT	ENDS
PUBLIC	??$move@AAUChangeDirInfo@@@std@@YA$$QAUChangeDirInfo@@AAU1@@Z ; std::move<ChangeDirInfo &>
; Function compile flags: /Ogsp
; File c:\program files (x86)\microsoft visual studio 10.0\vc\include\utility
;	COMDAT ??$move@AAUChangeDirInfo@@@std@@YA$$QAUChangeDirInfo@@AAU1@@Z
_TEXT	SEGMENT
__Arg$ = 8						; size = 4
??$move@AAUChangeDirInfo@@@std@@YA$$QAUChangeDirInfo@@AAU1@@Z PROC ; std::move<ChangeDirInfo &>, COMDAT

; 86   : 	{	// forward _Arg as movable

  00000	55		 push	 ebp
  00001	8b ec		 mov	 ebp, esp

; 87   : 	return ((typename tr1::_Remove_reference<_Ty>::_Type&&)_Arg);

  00003	8b 45 08	 mov	 eax, DWORD PTR __Arg$[ebp]

; 88   : 	}

  00006	5d		 pop	 ebp
  00007	c3		 ret	 0
??$move@AAUChangeDirInfo@@@std@@YA$$QAUChangeDirInfo@@AAU1@@Z ENDP ; std::move<ChangeDirInfo &>
_TEXT	ENDS
PUBLIC	??$_Unchecked@PAUChangeDirInfo@@@std@@YAPAUChangeDirInfo@@PAU1@@Z ; std::_Unchecked<ChangeDirInfo *>
; Function compile flags: /Ogsp
; File c:\program files (x86)\microsoft visual studio 10.0\vc\include\xutility
;	COMDAT ??$_Unchecked@PAUChangeDirInfo@@@std@@YAPAUChangeDirInfo@@PAU1@@Z
_TEXT	SEGMENT
__Src$ = 8						; size = 4
??$_Unchecked@PAUChangeDirInfo@@@std@@YAPAUChangeDirInfo@@PAU1@@Z PROC ; std::_Unchecked<ChangeDirInfo *>, COMDAT

; 266  : 	{	// construct unchecked from checked, generic

  00000	55		 push	 ebp
  00001	8b ec		 mov	 ebp, esp

; 267  : 	return (_Src);

  00003	8b 45 08	 mov	 eax, DWORD PTR __Src$[ebp]

; 268  : 	}

  00006	5d		 pop	 ebp
  00007	c3		 ret	 0
??$_Unchecked@PAUChangeDirInfo@@@std@@YAPAUChangeDirInfo@@PAU1@@Z ENDP ; std::_Unchecked<ChangeDirInfo *>
_TEXT	ENDS
PUBLIC	??$_Dist_type@PAUChangeDirInfo@@@std@@YAPAHPAUChangeDirInfo@@@Z ; std::_Dist_type<ChangeDirInfo *>
; Function compile flags: /Ogsp
;	COMDAT ??$_Dist_type@PAUChangeDirInfo@@@std@@YAPAHPAUChangeDirInfo@@@Z
_TEXT	SEGMENT
___formal$ = 8						; size = 4
??$_Dist_type@PAUChangeDirInfo@@@std@@YAPAHPAUChangeDirInfo@@@Z PROC ; std::_Dist_type<ChangeDirInfo *>, COMDAT

; 850  : 	return (0);

  00000	33 c0		 xor	 eax, eax

; 851  : 	}

  00002	c3		 ret	 0
??$_Dist_type@PAUChangeDirInfo@@@std@@YAPAHPAUChangeDirInfo@@@Z ENDP ; std::_Dist_type<ChangeDirInfo *>
_TEXT	ENDS
PUBLIC	??$_Destroy@UChangeDirInfo@@@std@@YAXPAUChangeDirInfo@@@Z ; std::_Destroy<ChangeDirInfo>
; Function compile flags: /Ogsp
; File c:\program files (x86)\microsoft visual studio 10.0\vc\include\xmemory
;	COMDAT ??$_Destroy@UChangeDirInfo@@@std@@YAXPAUChangeDirInfo@@@Z
_TEXT	SEGMENT
__Ptr$ = 8						; size = 4
??$_Destroy@UChangeDirInfo@@@std@@YAXPAUChangeDirInfo@@@Z PROC ; std::_Destroy<ChangeDirInfo>, COMDAT

; 63   : 	_Ptr->~_Ty();
; 64   : 	}

  00000	c3		 ret	 0
??$_Destroy@UChangeDirInfo@@@std@@YAXPAUChangeDirInfo@@@Z ENDP ; std::_Destroy<ChangeDirInfo>
_TEXT	ENDS
PUBLIC	??$forward@AAPAUChangeDirInfo@@@std@@YAAAPAUChangeDirInfo@@AAPAU1@@Z ; std::forward<ChangeDirInfo * &>
; Function compile flags: /Ogsp
; File c:\program files (x86)\microsoft visual studio 10.0\vc\include\utility
;	COMDAT ??$forward@AAPAUChangeDirInfo@@@std@@YAAAPAUChangeDirInfo@@AAPAU1@@Z
_TEXT	SEGMENT
__Arg$ = 8						; size = 4
??$forward@AAPAUChangeDirInfo@@@std@@YAAAPAUChangeDirInfo@@AAPAU1@@Z PROC ; std::forward<ChangeDirInfo * &>, COMDAT

; 78   : 	{	// forward _Arg, given explicitly specified type parameter

  00000	55		 push	 ebp
  00001	8b ec		 mov	 ebp, esp

; 79   : 	return ((_Ty&&)_Arg);

  00003	8b 45 08	 mov	 eax, DWORD PTR __Arg$[ebp]

; 80   : 	}

  00006	5d		 pop	 ebp
  00007	c3		 ret	 0
??$forward@AAPAUChangeDirInfo@@@std@@YAAAPAUChangeDirInfo@@AAPAU1@@Z ENDP ; std::forward<ChangeDirInfo * &>
_TEXT	ENDS
PUBLIC	??$?0AAPAUChangeDirInfo@@AAPAU0@@?$_Pair_base@PAUChangeDirInfo@@PAU1@@std@@QAE@AAPAUChangeDirInfo@@0@Z ; std::_Pair_base<ChangeDirInfo *,ChangeDirInfo *>::_Pair_base<ChangeDirInfo *,ChangeDirInfo *><ChangeDirInfo * &,ChangeDirInfo * &>
; Function compile flags: /Ogsp
;	COMDAT ??$?0AAPAUChangeDirInfo@@AAPAU0@@?$_Pair_base@PAUChangeDirInfo@@PAU1@@std@@QAE@AAPAUChangeDirInfo@@0@Z
_TEXT	SEGMENT
__Val1$ = 8						; size = 4
__Val2$ = 12						; size = 4
??$?0AAPAUChangeDirInfo@@AAPAU0@@?$_Pair_base@PAUChangeDirInfo@@PAU1@@std@@QAE@AAPAUChangeDirInfo@@0@Z PROC ; std::_Pair_base<ChangeDirInfo *,ChangeDirInfo *>::_Pair_base<ChangeDirInfo *,ChangeDirInfo *><ChangeDirInfo * &,ChangeDirInfo * &>, COMDAT
; _this$ = ecx

; 163  : 		{	// construct from moved values

  00000	55		 push	 ebp
  00001	8b ec		 mov	 ebp, esp
  00003	8b c1		 mov	 eax, ecx
  00005	8b 4d 08	 mov	 ecx, DWORD PTR __Val1$[ebp]
  00008	8b 09		 mov	 ecx, DWORD PTR [ecx]
  0000a	89 08		 mov	 DWORD PTR [eax], ecx
  0000c	8b 4d 0c	 mov	 ecx, DWORD PTR __Val2$[ebp]
  0000f	8b 09		 mov	 ecx, DWORD PTR [ecx]
  00011	89 48 04	 mov	 DWORD PTR [eax+4], ecx

; 164  : 		}

  00014	5d		 pop	 ebp
  00015	c2 08 00	 ret	 8
??$?0AAPAUChangeDirInfo@@AAPAU0@@?$_Pair_base@PAUChangeDirInfo@@PAU1@@std@@QAE@AAPAUChangeDirInfo@@0@Z ENDP ; std::_Pair_base<ChangeDirInfo *,ChangeDirInfo *>::_Pair_base<ChangeDirInfo *,ChangeDirInfo *><ChangeDirInfo * &,ChangeDirInfo * &>
_TEXT	ENDS
PUBLIC	??$_Move@AAUChangeDirInfo@@@std@@YA$$QAUChangeDirInfo@@AAU1@@Z ; std::_Move<ChangeDirInfo &>
; Function compile flags: /Ogsp
;	COMDAT ??$_Move@AAUChangeDirInfo@@@std@@YA$$QAUChangeDirInfo@@AAU1@@Z
_TEXT	SEGMENT
__Arg$ = 8						; size = 4
??$_Move@AAUChangeDirInfo@@@std@@YA$$QAUChangeDirInfo@@AAU1@@Z PROC ; std::_Move<ChangeDirInfo &>, COMDAT

; 94   : 	{	// forward _Arg as movable

  00000	55		 push	 ebp
  00001	8b ec		 mov	 ebp, esp

; 95   : 	return ((typename tr1::_Remove_reference<_Ty>::_Type&&)_Arg);

  00003	8b 45 08	 mov	 eax, DWORD PTR __Arg$[ebp]

; 96   : 	}

  00006	5d		 pop	 ebp
  00007	c3		 ret	 0
??$_Move@AAUChangeDirInfo@@@std@@YA$$QAUChangeDirInfo@@AAU1@@Z ENDP ; std::_Move<ChangeDirInfo &>
_TEXT	ENDS
PUBLIC	??$forward@UBuffInfoStruct@@@std@@YA$$QAUBuffInfoStruct@@AAU1@@Z ; std::forward<BuffInfoStruct>
; Function compile flags: /Ogsp
;	COMDAT ??$forward@UBuffInfoStruct@@@std@@YA$$QAUBuffInfoStruct@@AAU1@@Z
_TEXT	SEGMENT
__Arg$ = 8						; size = 4
??$forward@UBuffInfoStruct@@@std@@YA$$QAUBuffInfoStruct@@AAU1@@Z PROC ; std::forward<BuffInfoStruct>, COMDAT

; 78   : 	{	// forward _Arg, given explicitly specified type parameter

  00000	55		 push	 ebp
  00001	8b ec		 mov	 ebp, esp

; 79   : 	return ((_Ty&&)_Arg);

  00003	8b 45 08	 mov	 eax, DWORD PTR __Arg$[ebp]

; 80   : 	}

  00006	5d		 pop	 ebp
  00007	c3		 ret	 0
??$forward@UBuffInfoStruct@@@std@@YA$$QAUBuffInfoStruct@@AAU1@@Z ENDP ; std::forward<BuffInfoStruct>
_TEXT	ENDS
PUBLIC	??$forward@UChangeDirInfo@@@std@@YA$$QAUChangeDirInfo@@AAU1@@Z ; std::forward<ChangeDirInfo>
; Function compile flags: /Ogsp
;	COMDAT ??$forward@UChangeDirInfo@@@std@@YA$$QAUChangeDirInfo@@AAU1@@Z
_TEXT	SEGMENT
__Arg$ = 8						; size = 4
??$forward@UChangeDirInfo@@@std@@YA$$QAUChangeDirInfo@@AAU1@@Z PROC ; std::forward<ChangeDirInfo>, COMDAT

; 78   : 	{	// forward _Arg, given explicitly specified type parameter

  00000	55		 push	 ebp
  00001	8b ec		 mov	 ebp, esp

; 79   : 	return ((_Ty&&)_Arg);

  00003	8b 45 08	 mov	 eax, DWORD PTR __Arg$[ebp]

; 80   : 	}

  00006	5d		 pop	 ebp
  00007	c3		 ret	 0
??$forward@UChangeDirInfo@@@std@@YA$$QAUChangeDirInfo@@AAU1@@Z ENDP ; std::forward<ChangeDirInfo>
_TEXT	ENDS
PUBLIC	??$_Move_backward@PAUChangeDirInfo@@PAU1@@std@@YAPAUChangeDirInfo@@PAU1@00U_Nonscalar_ptr_iterator_tag@0@@Z ; std::_Move_backward<ChangeDirInfo *,ChangeDirInfo *>
; Function compile flags: /Ogsp
; File c:\program files (x86)\microsoft visual studio 10.0\vc\include\xutility
;	COMDAT ??$_Move_backward@PAUChangeDirInfo@@PAU1@@std@@YAPAUChangeDirInfo@@PAU1@00U_Nonscalar_ptr_iterator_tag@0@@Z
_TEXT	SEGMENT
__First$ = 8						; size = 4
__Last$ = 12						; size = 4
__Dest$ = 16						; size = 4
___formal$ = 20						; size = 1
??$_Move_backward@PAUChangeDirInfo@@PAU1@@std@@YAPAUChangeDirInfo@@PAU1@00U_Nonscalar_ptr_iterator_tag@0@@Z PROC ; std::_Move_backward<ChangeDirInfo *,ChangeDirInfo *>, COMDAT

; 2617 : 	{	// move [_First, _Last) backwards to [..., _Dest), arbitrary iterators

  00000	55		 push	 ebp
  00001	8b ec		 mov	 ebp, esp

; 2618 : 	while (_First != _Last)

  00003	8b 45 0c	 mov	 eax, DWORD PTR __Last$[ebp]
  00006	39 45 08	 cmp	 DWORD PTR __First$[ebp], eax
  00009	74 1a		 je	 SHORT $LN9@Move_backw
  0000b	56		 push	 esi
  0000c	57		 push	 edi
$LL2@Move_backw:

; 2619 : 		*--_Dest = _STD move(*--_Last);

  0000d	83 6d 10 1c	 sub	 DWORD PTR __Dest$[ebp], 28 ; 0000001cH
  00011	8b 7d 10	 mov	 edi, DWORD PTR __Dest$[ebp]
  00014	83 e8 1c	 sub	 eax, 28			; 0000001cH
  00017	6a 07		 push	 7
  00019	59		 pop	 ecx
  0001a	8b f0		 mov	 esi, eax
  0001c	f3 a5		 rep movsd
  0001e	3b 45 08	 cmp	 eax, DWORD PTR __First$[ebp]
  00021	75 ea		 jne	 SHORT $LL2@Move_backw
  00023	5f		 pop	 edi
  00024	5e		 pop	 esi
$LN9@Move_backw:

; 2620 : 	return (_Dest);

  00025	8b 45 10	 mov	 eax, DWORD PTR __Dest$[ebp]

; 2621 : 	}

  00028	5d		 pop	 ebp
  00029	c3		 ret	 0
??$_Move_backward@PAUChangeDirInfo@@PAU1@@std@@YAPAUChangeDirInfo@@PAU1@00U_Nonscalar_ptr_iterator_tag@0@@Z ENDP ; std::_Move_backward<ChangeDirInfo *,ChangeDirInfo *>
_TEXT	ENDS
PUBLIC	?D3DXVec3Cross@@YAPAUD3DXVECTOR3@@PAU1@PBU1@1@Z	; D3DXVec3Cross
; Function compile flags: /Ogsp
; File c:\program files (x86)\microsoft directx sdk (june 2010)\include\d3dx9math.inl
;	COMDAT ?D3DXVec3Cross@@YAPAUD3DXVECTOR3@@PAU1@PBU1@1@Z
_TEXT	SEGMENT
_v$ = -12						; size = 12
_pOut$ = 8						; size = 4
_pV1$ = 12						; size = 4
_pV2$ = 16						; size = 4
?D3DXVec3Cross@@YAPAUD3DXVECTOR3@@PAU1@PBU1@1@Z PROC	; D3DXVec3Cross, COMDAT

; 1747 : {

  00000	55		 push	 ebp
  00001	8b ec		 mov	 ebp, esp
  00003	83 ec 0c	 sub	 esp, 12			; 0000000cH

; 1757 :     v.z = pV1->x * pV2->y - pV1->y * pV2->x;
; 1758 : 
; 1759 :     *pOut = v;

  00006	56		 push	 esi
  00007	57		 push	 edi

; 1748 :     D3DXVECTOR3 v;
; 1749 : 
; 1750 : #ifdef D3DX_DEBUG
; 1751 :     if(!pOut || !pV1 || !pV2)
; 1752 :         return NULL;
; 1753 : #endif
; 1754 : 
; 1755 :     v.x = pV1->y * pV2->z - pV1->z * pV2->y;

  00008	8b 45 0c	 mov	 eax, DWORD PTR _pV1$[ebp]
  0000b	f3 0f 10 40 04	 movss	 xmm0, DWORD PTR [eax+4]
  00010	f3 0f 10 50 08	 movss	 xmm2, DWORD PTR [eax+8]
  00015	8b 4d 10	 mov	 ecx, DWORD PTR _pV2$[ebp]
  00018	f3 0f 10 49 08	 movss	 xmm1, DWORD PTR [ecx+8]
  0001d	f3 0f 10 59 04	 movss	 xmm3, DWORD PTR [ecx+4]
  00022	0f 5a e8	 cvtps2pd xmm5, xmm0
  00025	0f 5a e1	 cvtps2pd xmm4, xmm1
  00028	0f 5a f2	 cvtps2pd xmm6, xmm2
  0002b	f2 0f 59 e5	 mulsd	 xmm4, xmm5

; 1756 :     v.y = pV1->z * pV2->x - pV1->x * pV2->z;

  0002f	0f 5a d2	 cvtps2pd xmm2, xmm2
  00032	0f 5a c9	 cvtps2pd xmm1, xmm1
  00035	0f 5a eb	 cvtps2pd xmm5, xmm3
  00038	f2 0f 59 ee	 mulsd	 xmm5, xmm6
  0003c	f2 0f 5c e5	 subsd	 xmm4, xmm5
  00040	f3 0f 10 28	 movss	 xmm5, DWORD PTR [eax]

; 1757 :     v.z = pV1->x * pV2->y - pV1->y * pV2->x;
; 1758 : 
; 1759 :     *pOut = v;

  00044	8b 45 08	 mov	 eax, DWORD PTR _pOut$[ebp]
  00047	66 0f 5a e4	 cvtpd2ps xmm4, xmm4
  0004b	f3 0f 11 65 f4	 movss	 DWORD PTR _v$[ebp], xmm4
  00050	f3 0f 10 21	 movss	 xmm4, DWORD PTR [ecx]
  00054	0f 5a f4	 cvtps2pd xmm6, xmm4
  00057	f2 0f 59 f2	 mulsd	 xmm6, xmm2
  0005b	0f 5a d5	 cvtps2pd xmm2, xmm5
  0005e	f2 0f 59 d1	 mulsd	 xmm2, xmm1
  00062	f2 0f 5c f2	 subsd	 xmm6, xmm2
  00066	66 0f 5a ce	 cvtpd2ps xmm1, xmm6
  0006a	f3 0f 11 4d f8	 movss	 DWORD PTR _v$[ebp+4], xmm1
  0006f	0f 5a c0	 cvtps2pd xmm0, xmm0
  00072	0f 5a d3	 cvtps2pd xmm2, xmm3
  00075	0f 5a cd	 cvtps2pd xmm1, xmm5
  00078	f2 0f 59 ca	 mulsd	 xmm1, xmm2
  0007c	8d 75 f4	 lea	 esi, DWORD PTR _v$[ebp]
  0007f	8b f8		 mov	 edi, eax
  00081	0f 5a d4	 cvtps2pd xmm2, xmm4
  00084	f2 0f 59 d0	 mulsd	 xmm2, xmm0
  00088	f2 0f 5c ca	 subsd	 xmm1, xmm2
  0008c	66 0f 5a c1	 cvtpd2ps xmm0, xmm1
  00090	f3 0f 11 45 fc	 movss	 DWORD PTR _v$[ebp+8], xmm0
  00095	a5		 movsd
  00096	a5		 movsd
  00097	a5		 movsd
  00098	5f		 pop	 edi
  00099	5e		 pop	 esi

; 1760 :     return pOut;
; 1761 : }

  0009a	c9		 leave
  0009b	c3		 ret	 0
?D3DXVec3Cross@@YAPAUD3DXVECTOR3@@PAU1@PBU1@1@Z ENDP	; D3DXVec3Cross
_TEXT	ENDS
PUBLIC	?_DECSTR@@YAXPADH@Z				; _DECSTR
; Function compile flags: /Ogsp
; File d:\lost saga for developer\youtube\tutorial\source\src\lsclient\stringprotect.h
;	COMDAT ?_DECSTR@@YAXPADH@Z
_TEXT	SEGMENT
_s$ = 8							; size = 4
_l$ = 12						; size = 4
?_DECSTR@@YAXPADH@Z PROC				; _DECSTR, COMDAT

; 40   : __forceinline void _DECSTR(char* s, int l){int i=0,l4=(l-1)/4,*p=(int*)s;s[l-1]=0;for(;i<l4;++i)*(p++)^=0xEAEBECED;for(i=l4*4;i<l-1;++i)s[i]^=0xED-i%4;}

  00000	55		 push	 ebp
  00001	8b ec		 mov	 ebp, esp
  00003	8b 4d 0c	 mov	 ecx, DWORD PTR _l$[ebp]
  00006	56		 push	 esi
  00007	8b 75 08	 mov	 esi, DWORD PTR _s$[ebp]
  0000a	57		 push	 edi
  0000b	8d 79 ff	 lea	 edi, DWORD PTR [ecx-1]
  0000e	8b c7		 mov	 eax, edi
  00010	99		 cdq
  00011	83 e2 03	 and	 edx, 3
  00014	03 c2		 add	 eax, edx
  00016	c1 f8 02	 sar	 eax, 2
  00019	8b d6		 mov	 edx, esi
  0001b	c6 44 0e ff 00	 mov	 BYTE PTR [esi+ecx-1], 0
  00020	85 c0		 test	 eax, eax
  00022	7e 0e		 jle	 SHORT $LN4@DECSTR
  00024	8b c8		 mov	 ecx, eax
$LL6@DECSTR:
  00026	81 32 ed ec eb
	ea		 xor	 DWORD PTR [edx], -353637139 ; eaebecedH
  0002c	83 c2 04	 add	 edx, 4
  0002f	49		 dec	 ecx
  00030	75 f4		 jne	 SHORT $LL6@DECSTR
$LN4@DECSTR:
  00032	c1 e0 02	 shl	 eax, 2
  00035	eb 17		 jmp	 SHORT $LN14@DECSTR
$LL3@DECSTR:
  00037	8b c8		 mov	 ecx, eax
  00039	81 e1 03 00 00
	80		 and	 ecx, -2147483645	; 80000003H
  0003f	79 05		 jns	 SHORT $LN13@DECSTR
  00041	49		 dec	 ecx
  00042	83 c9 fc	 or	 ecx, -4			; fffffffcH
  00045	41		 inc	 ecx
$LN13@DECSTR:
  00046	b2 ed		 mov	 dl, -19			; ffffffedH
  00048	2a d1		 sub	 dl, cl
  0004a	30 14 30	 xor	 BYTE PTR [eax+esi], dl
  0004d	40		 inc	 eax
$LN14@DECSTR:
  0004e	3b c7		 cmp	 eax, edi
  00050	7c e5		 jl	 SHORT $LL3@DECSTR
  00052	5f		 pop	 edi
  00053	5e		 pop	 esi
  00054	5d		 pop	 ebp
  00055	c3		 ret	 0
?_DECSTR@@YAXPADH@Z ENDP				; _DECSTR
_TEXT	ENDS
PUBLIC	?Init@WeaponInfo@@QAEXXZ			; WeaponInfo::Init
; Function compile flags: /Ogsp
; File d:\lost saga for developer\youtube\tutorial\source\src\lsclient\ioattackattribute.h
;	COMDAT ?Init@WeaponInfo@@QAEXXZ
_TEXT	SEGMENT
?Init@WeaponInfo@@QAEXXZ PROC				; WeaponInfo::Init, COMDAT
; _this$ = ecx

; 71   : 		m_iWeaponIdx = 0;

  00000	33 c0		 xor	 eax, eax
  00002	89 01		 mov	 DWORD PTR [ecx], eax

; 72   : 		m_iResistanceIdx = 0;

  00004	89 41 04	 mov	 DWORD PTR [ecx+4], eax

; 73   : 
; 74   : 		m_dwWoundedDuration = 0;

  00007	89 41 18	 mov	 DWORD PTR [ecx+24], eax

; 75   : 		m_dwCallTime = 0;

  0000a	89 41 1c	 mov	 DWORD PTR [ecx+28], eax

; 76   : 
; 77   : 		m_bWoundedLoopAni = false;

  0000d	88 41 20	 mov	 BYTE PTR [ecx+32], al

; 78   : 
; 79   : 		m_dwDuration = 0;

  00010	89 41 24	 mov	 DWORD PTR [ecx+36], eax

; 80   : 	}

  00013	c3		 ret	 0
?Init@WeaponInfo@@QAEXXZ ENDP				; WeaponInfo::Init
_TEXT	ENDS
PUBLIC	??1WeaponInfo@@QAE@XZ				; WeaponInfo::~WeaponInfo
EXTRN	__imp_??1ioHashString@@QAE@XZ:PROC
; Function compile flags: /Ogsp
;	COMDAT ??1WeaponInfo@@QAE@XZ
_TEXT	SEGMENT
??1WeaponInfo@@QAE@XZ PROC				; WeaponInfo::~WeaponInfo, COMDAT
; _this$ = ecx
  00000	83 c1 08	 add	 ecx, 8
  00003	ff 25 00 00 00
	00		 jmp	 DWORD PTR __imp_??1ioHashString@@QAE@XZ
??1WeaponInfo@@QAE@XZ ENDP				; WeaponInfo::~WeaponInfo
_TEXT	ENDS
PUBLIC	??_R0?AVioGameEntity@@@8			; ioGameEntity `RTTI Type Descriptor'
PUBLIC	??_R0?AVioPlayEntity@@@8			; ioPlayEntity `RTTI Type Descriptor'
PUBLIC	?ToPlayEntity@@YAPAVioPlayEntity@@PAVioGameEntity@@@Z ; ToPlayEntity
EXTRN	___RTDynamicCast:PROC
;	COMDAT ??_R0?AVioGameEntity@@@8
; File d:\lost saga for developer\youtube\tutorial\source\src\lsclient\ioplayentity.h
_DATA	SEGMENT
??_R0?AVioGameEntity@@@8 DD FLAT:??_7type_info@@6B@	; ioGameEntity `RTTI Type Descriptor'
	DD	00H
	DB	'.?AVioGameEntity@@', 00H
_DATA	ENDS
;	COMDAT ??_R0?AVioPlayEntity@@@8
_DATA	SEGMENT
??_R0?AVioPlayEntity@@@8 DD FLAT:??_7type_info@@6B@	; ioPlayEntity `RTTI Type Descriptor'
	DD	00H
	DB	'.?AVioPlayEntity@@', 00H
; Function compile flags: /Ogsp
_DATA	ENDS
;	COMDAT ?ToPlayEntity@@YAPAVioPlayEntity@@PAVioGameEntity@@@Z
_TEXT	SEGMENT
_pObj$ = 8						; size = 4
?ToPlayEntity@@YAPAVioPlayEntity@@PAVioGameEntity@@@Z PROC ; ToPlayEntity, COMDAT

; 121  : {

  00000	55		 push	 ebp
  00001	8b ec		 mov	 ebp, esp
  00003	56		 push	 esi

; 122  : 	if( !pObj || pObj->GetTypeID() != ioGameEntity::GET_PLAY_ENTITY )

  00004	8b 75 08	 mov	 esi, DWORD PTR _pObj$[ebp]
  00007	85 f6		 test	 esi, esi
  00009	74 25		 je	 SHORT $LN1@ToPlayEnti
  0000b	8b 06		 mov	 eax, DWORD PTR [esi]
  0000d	8b ce		 mov	 ecx, esi
  0000f	ff 50 10	 call	 DWORD PTR [eax+16]
  00012	83 f8 01	 cmp	 eax, 1
  00015	75 19		 jne	 SHORT $LN1@ToPlayEnti

; 124  : 
; 125  : 	return dynamic_cast< ioPlayEntity* >( pObj );

  00017	6a 00		 push	 0
  00019	68 00 00 00 00	 push	 OFFSET ??_R0?AVioPlayEntity@@@8
  0001e	68 00 00 00 00	 push	 OFFSET ??_R0?AVioGameEntity@@@8
  00023	6a 00		 push	 0
  00025	56		 push	 esi
  00026	e8 00 00 00 00	 call	 ___RTDynamicCast
  0002b	83 c4 14	 add	 esp, 20			; 00000014H
  0002e	eb 02		 jmp	 SHORT $LN3@ToPlayEnti
$LN1@ToPlayEnti:

; 123  : 		return NULL;

  00030	33 c0		 xor	 eax, eax
$LN3@ToPlayEnti:
  00032	5e		 pop	 esi

; 126  : }

  00033	5d		 pop	 ebp
  00034	c3		 ret	 0
?ToPlayEntity@@YAPAVioPlayEntity@@PAVioGameEntity@@@Z ENDP ; ToPlayEntity
_TEXT	ENDS
PUBLIC	??_R0?AVioDummyChar@@@8				; ioDummyChar `RTTI Type Descriptor'
PUBLIC	?ToDummyChar@@YAPAVioDummyChar@@PAVioGameEntity@@@Z ; ToDummyChar
;	COMDAT ??_R0?AVioDummyChar@@@8
; File d:\lost saga for developer\youtube\tutorial\source\src\lsclient\iodummychar.h
_DATA	SEGMENT
??_R0?AVioDummyChar@@@8 DD FLAT:??_7type_info@@6B@	; ioDummyChar `RTTI Type Descriptor'
	DD	00H
	DB	'.?AVioDummyChar@@', 00H
; Function compile flags: /Ogsp
_DATA	ENDS
;	COMDAT ?ToDummyChar@@YAPAVioDummyChar@@PAVioGameEntity@@@Z
_TEXT	SEGMENT
_pObj$ = 8						; size = 4
?ToDummyChar@@YAPAVioDummyChar@@PAVioGameEntity@@@Z PROC ; ToDummyChar, COMDAT

; 758  : {

  00000	55		 push	 ebp
  00001	8b ec		 mov	 ebp, esp
  00003	56		 push	 esi

; 759  : 	ioPlayEntity *pPlay = ToPlayEntity( pObj );

  00004	ff 75 08	 push	 DWORD PTR _pObj$[ebp]
  00007	e8 00 00 00 00	 call	 ?ToPlayEntity@@YAPAVioPlayEntity@@PAVioGameEntity@@@Z ; ToPlayEntity
  0000c	8b f0		 mov	 esi, eax
  0000e	59		 pop	 ecx

; 760  : 	if( !pPlay || pPlay->GetSubType() != ioPlayEntity::PST_DUMMY_CHAR )

  0000f	85 f6		 test	 esi, esi
  00011	74 28		 je	 SHORT $LN1@ToDummyCha
  00013	8b 06		 mov	 eax, DWORD PTR [esi]
  00015	8b ce		 mov	 ecx, esi
  00017	ff 90 a4 00 00
	00		 call	 DWORD PTR [eax+164]
  0001d	83 f8 0a	 cmp	 eax, 10			; 0000000aH
  00020	75 19		 jne	 SHORT $LN1@ToDummyCha

; 762  : 
; 763  : 	return dynamic_cast< ioDummyChar* >( pPlay );

  00022	6a 00		 push	 0
  00024	68 00 00 00 00	 push	 OFFSET ??_R0?AVioDummyChar@@@8
  00029	68 00 00 00 00	 push	 OFFSET ??_R0?AVioPlayEntity@@@8
  0002e	6a 00		 push	 0
  00030	56		 push	 esi
  00031	e8 00 00 00 00	 call	 ___RTDynamicCast
  00036	83 c4 14	 add	 esp, 20			; 00000014H
  00039	eb 02		 jmp	 SHORT $LN3@ToDummyCha
$LN1@ToDummyCha:

; 761  : 		return NULL;

  0003b	33 c0		 xor	 eax, eax
$LN3@ToDummyCha:
  0003d	5e		 pop	 esi

; 764  : }

  0003e	5d		 pop	 ebp
  0003f	c3		 ret	 0
?ToDummyChar@@YAPAVioDummyChar@@PAVioGameEntity@@@Z ENDP ; ToDummyChar
_TEXT	ENDS
PUBLIC	??0BuffInfoStruct@@QAE@XZ			; BuffInfoStruct::BuffInfoStruct
EXTRN	__imp_?Clear@ioHashString@@QAEXXZ:PROC
EXTRN	__imp_??0ioHashString@@QAE@XZ:PROC
EXTRN	___CxxFrameHandler3:PROC
EXTRN	@__security_check_cookie@4:PROC
EXTRN	__EH_epilog3:PROC
EXTRN	__EH_prolog3:PROC
;	COMDAT xdata$x
; File d:\lost saga for developer\youtube\tutorial\source\src\lsclient\weaponattribute.h
xdata$x	SEGMENT
__unwindtable$??0BuffInfoStruct@@QAE@XZ DD 0ffffffffH
	DD	FLAT:__unwindfunclet$??0BuffInfoStruct@@QAE@XZ$0
__ehfuncinfo$??0BuffInfoStruct@@QAE@XZ DD 019930522H
	DD	01H
	DD	FLAT:__unwindtable$??0BuffInfoStruct@@QAE@XZ
	DD	2 DUP(00H)
	DD	2 DUP(00H)
	DD	00H
	DD	01H
; Function compile flags: /Ogsp
xdata$x	ENDS
;	COMDAT ??0BuffInfoStruct@@QAE@XZ
_TEXT	SEGMENT
_this$ = -16						; size = 4
__$EHRec$ = -12						; size = 12
??0BuffInfoStruct@@QAE@XZ PROC				; BuffInfoStruct::BuffInfoStruct, COMDAT
; _this$ = ecx

; 278  : 	BuffInfoStruct()

  00000	6a 04		 push	 4
  00002	b8 00 00 00 00	 mov	 eax, __ehhandler$??0BuffInfoStruct@@QAE@XZ
  00007	e8 00 00 00 00	 call	 __EH_prolog3
  0000c	8b f1		 mov	 esi, ecx
  0000e	89 75 f0	 mov	 DWORD PTR _this$[ebp], esi
  00011	ff 15 00 00 00
	00		 call	 DWORD PTR __imp_??0ioHashString@@QAE@XZ
  00017	83 65 fc 00	 and	 DWORD PTR __$EHRec$[ebp+8], 0

; 279  : 	{
; 280  : 		m_BuffName.Clear();

  0001b	8b ce		 mov	 ecx, esi
  0001d	ff 15 00 00 00
	00		 call	 DWORD PTR __imp_?Clear@ioHashString@@QAEXXZ

; 281  : 		m_iBuffType = 0;

  00023	83 66 10 00	 and	 DWORD PTR [esi+16], 0

; 282  : 	}

  00027	8b c6		 mov	 eax, esi
  00029	e8 00 00 00 00	 call	 __EH_epilog3
  0002e	c3		 ret	 0
_TEXT	ENDS
;	COMDAT text$x
text$x	SEGMENT
__unwindfunclet$??0BuffInfoStruct@@QAE@XZ$0:
  00000	8b 4d f0	 mov	 ecx, DWORD PTR _this$[ebp]
  00003	ff 25 00 00 00
	00		 jmp	 DWORD PTR __imp_??1ioHashString@@QAE@XZ
__ehhandler$??0BuffInfoStruct@@QAE@XZ:
  00009	8b 54 24 08	 mov	 edx, DWORD PTR [esp+8]
  0000d	8d 42 0c	 lea	 eax, DWORD PTR [edx+12]
  00010	8b 4a ec	 mov	 ecx, DWORD PTR [edx-20]
  00013	33 c8		 xor	 ecx, eax
  00015	e8 00 00 00 00	 call	 @__security_check_cookie@4
  0001a	b8 00 00 00 00	 mov	 eax, OFFSET __ehfuncinfo$??0BuffInfoStruct@@QAE@XZ
  0001f	e9 00 00 00 00	 jmp	 ___CxxFrameHandler3
text$x	ENDS
??0BuffInfoStruct@@QAE@XZ ENDP				; BuffInfoStruct::BuffInfoStruct
PUBLIC	??1BuffInfoStruct@@QAE@XZ			; BuffInfoStruct::~BuffInfoStruct
; Function compile flags: /Ogsp
;	COMDAT ??1BuffInfoStruct@@QAE@XZ
_TEXT	SEGMENT
??1BuffInfoStruct@@QAE@XZ PROC				; BuffInfoStruct::~BuffInfoStruct, COMDAT
; _this$ = ecx
  00000	ff 25 00 00 00
	00		 jmp	 DWORD PTR __imp_??1ioHashString@@QAE@XZ
??1BuffInfoStruct@@QAE@XZ ENDP				; BuffInfoStruct::~BuffInfoStruct
_TEXT	ENDS
PUBLIC	??0ChangeDirInfo@@QAE@XZ			; ChangeDirInfo::ChangeDirInfo
EXTRN	__imp_?VEC3_ZERO@ioMath@@2UD3DXVECTOR3@@A:BYTE
; Function compile flags: /Ogsp
; File d:\lost saga for developer\youtube\tutorial\source\src\lsclient\ioweapon.h
;	COMDAT ??0ChangeDirInfo@@QAE@XZ
_TEXT	SEGMENT
??0ChangeDirInfo@@QAE@XZ PROC				; ChangeDirInfo::ChangeDirInfo, COMDAT
; _this$ = ecx

; 34   : 	{
; 35   : 		m_fChangeRange	= 0.0f;

  00000	0f 57 c0	 xorps	 xmm0, xmm0
  00003	56		 push	 esi
  00004	8b c1		 mov	 eax, ecx
  00006	57		 push	 edi
  00007	f3 0f 11 00	 movss	 DWORD PTR [eax], xmm0

; 36   : 		m_fChangeSpeed	= 0.0f;

  0000b	f3 0f 11 40 04	 movss	 DWORD PTR [eax+4], xmm0

; 37   : 		m_fChangeAngleH	= 0.0f;

  00010	f3 0f 11 40 08	 movss	 DWORD PTR [eax+8], xmm0

; 38   : 		m_fChangeAngleV	= 0.0f;

  00015	f3 0f 11 40 0c	 movss	 DWORD PTR [eax+12], xmm0

; 39   : 		m_vFireOffset	= ioMath::VEC3_ZERO;

  0001a	8b 35 00 00 00
	00		 mov	 esi, DWORD PTR __imp_?VEC3_ZERO@ioMath@@2UD3DXVECTOR3@@A
  00020	8d 78 10	 lea	 edi, DWORD PTR [eax+16]
  00023	a5		 movsd
  00024	a5		 movsd
  00025	a5		 movsd
  00026	5f		 pop	 edi
  00027	5e		 pop	 esi

; 40   : 	}

  00028	c3		 ret	 0
??0ChangeDirInfo@@QAE@XZ ENDP				; ChangeDirInfo::ChangeDirInfo
_TEXT	ENDS
PUBLIC	??RChangeDirSort@@QBE_NABUChangeDirInfo@@0@Z	; ChangeDirSort::operator()
; Function compile flags: /Ogsp
;	COMDAT ??RChangeDirSort@@QBE_NABUChangeDirInfo@@0@Z
_TEXT	SEGMENT
_lhs$ = 8						; size = 4
_rhs$ = 12						; size = 4
??RChangeDirSort@@QBE_NABUChangeDirInfo@@0@Z PROC	; ChangeDirSort::operator(), COMDAT
; _this$ = ecx

; 49   : 	{

  00000	55		 push	 ebp
  00001	8b ec		 mov	 ebp, esp

; 50   : 		if( lhs.m_fChangeRange < rhs.m_fChangeRange )

  00003	8b 4d 08	 mov	 ecx, DWORD PTR _lhs$[ebp]
  00006	8b 55 0c	 mov	 edx, DWORD PTR _rhs$[ebp]
  00009	f3 0f 10 01	 movss	 xmm0, DWORD PTR [ecx]
  0000d	f3 0f 10 0a	 movss	 xmm1, DWORD PTR [edx]
  00011	0f 5a d0	 cvtps2pd xmm2, xmm0
  00014	0f 5a d9	 cvtps2pd xmm3, xmm1
  00017	66 0f 2f da	 comisd	 xmm3, xmm2
  0001b	76 04		 jbe	 SHORT $LN4@operator
$LN7@operator:

; 51   : 		{
; 52   : 			return true;

  0001d	b0 01		 mov	 al, 1
  0001f	eb 28		 jmp	 SHORT $LN5@operator
$LN4@operator:

; 53   : 		}
; 54   : 		else if( lhs.m_fChangeRange == rhs.m_fChangeRange )

  00021	0f 5a c0	 cvtps2pd xmm0, xmm0
  00024	0f 5a c9	 cvtps2pd xmm1, xmm1
  00027	66 0f 2e c1	 ucomisd xmm0, xmm1
  0002b	9f		 lahf
  0002c	f6 c4 44	 test	 ah, 68			; 00000044H
  0002f	7a 16		 jp	 SHORT $LN1@operator

; 55   : 		{
; 56   : 			if( lhs.m_fChangeAngleV < rhs.m_fChangeAngleV )

  00031	f3 0f 10 41 0c	 movss	 xmm0, DWORD PTR [ecx+12]
  00036	f3 0f 10 4a 0c	 movss	 xmm1, DWORD PTR [edx+12]
  0003b	0f 5a c0	 cvtps2pd xmm0, xmm0
  0003e	0f 5a c9	 cvtps2pd xmm1, xmm1
  00041	66 0f 2f c8	 comisd	 xmm1, xmm0

; 57   : 				return true;

  00045	77 d6		 ja	 SHORT $LN7@operator
$LN1@operator:

; 58   : 		}
; 59   : 		return false;

  00047	32 c0		 xor	 al, al
$LN5@operator:

; 60   : 	}

  00049	5d		 pop	 ebp
  0004a	c2 08 00	 ret	 8
??RChangeDirSort@@QBE_NABUChangeDirInfo@@0@Z ENDP	; ChangeDirSort::operator()
_TEXT	ENDS
PUBLIC	?IsLive@ioWeapon@@QBE_NXZ			; ioWeapon::IsLive
; Function compile flags: /Ogsp
;	COMDAT ?IsLive@ioWeapon@@QBE_NXZ
_TEXT	SEGMENT
?IsLive@ioWeapon@@QBE_NXZ PROC				; ioWeapon::IsLive, COMDAT
; _this$ = ecx

; 533  : 	inline bool IsLive() const { return m_bLive; }

  00000	8a 81 82 05 00
	00		 mov	 al, BYTE PTR [ecx+1410]
  00006	c3		 ret	 0
?IsLive@ioWeapon@@QBE_NXZ ENDP				; ioWeapon::IsLive
_TEXT	ENDS
PUBLIC	?GetOwnerName@ioWeapon@@QBEABVioHashString@@XZ	; ioWeapon::GetOwnerName
; Function compile flags: /Ogsp
;	COMDAT ?GetOwnerName@ioWeapon@@QBEABVioHashString@@XZ
_TEXT	SEGMENT
?GetOwnerName@ioWeapon@@QBEABVioHashString@@XZ PROC	; ioWeapon::GetOwnerName, COMDAT
; _this$ = ecx

; 636  : 	inline const ioHashString& GetOwnerName() const { return m_OwnerName; }

  00000	8d 41 10	 lea	 eax, DWORD PTR [ecx+16]
  00003	c3		 ret	 0
?GetOwnerName@ioWeapon@@QBEABVioHashString@@XZ ENDP	; ioWeapon::GetOwnerName
_TEXT	ENDS
PUBLIC	?GetParentSceneNode@ioWeapon@@QBEPAVioSceneNode@@XZ ; ioWeapon::GetParentSceneNode
; Function compile flags: /Ogsp
;	COMDAT ?GetParentSceneNode@ioWeapon@@QBEPAVioSceneNode@@XZ
_TEXT	SEGMENT
?GetParentSceneNode@ioWeapon@@QBEPAVioSceneNode@@XZ PROC ; ioWeapon::GetParentSceneNode, COMDAT
; _this$ = ecx

; 797  : 	ioSceneNode* GetParentSceneNode() const { return m_pSceneNode; }

  00000	8b 41 04	 mov	 eax, DWORD PTR [ecx+4]
  00003	c3		 ret	 0
?GetParentSceneNode@ioWeapon@@QBEPAVioSceneNode@@XZ ENDP ; ioWeapon::GetParentSceneNode
_TEXT	ENDS
PUBLIC	??_R0?AVioWallZone@@@8				; ioWallZone `RTTI Type Descriptor'
PUBLIC	?ToWallZone@@YAPAVioWallZone@@PAVioGameEntity@@@Z ; ToWallZone
;	COMDAT ??_R0?AVioWallZone@@@8
; File d:\lost saga for developer\youtube\tutorial\source\src\lsclient\iowallzone.h
_DATA	SEGMENT
??_R0?AVioWallZone@@@8 DD FLAT:??_7type_info@@6B@	; ioWallZone `RTTI Type Descriptor'
	DD	00H
	DB	'.?AVioWallZone@@', 00H
; Function compile flags: /Ogsp
_DATA	ENDS
;	COMDAT ?ToWallZone@@YAPAVioWallZone@@PAVioGameEntity@@@Z
_TEXT	SEGMENT
_pObj$ = 8						; size = 4
?ToWallZone@@YAPAVioWallZone@@PAVioGameEntity@@@Z PROC	; ToWallZone, COMDAT

; 50   : {

  00000	55		 push	 ebp
  00001	8b ec		 mov	 ebp, esp
  00003	56		 push	 esi

; 51   : 	ioPlayEntity *pPlay = ToPlayEntity( pObj );

  00004	ff 75 08	 push	 DWORD PTR _pObj$[ebp]
  00007	e8 00 00 00 00	 call	 ?ToPlayEntity@@YAPAVioPlayEntity@@PAVioGameEntity@@@Z ; ToPlayEntity
  0000c	8b f0		 mov	 esi, eax
  0000e	59		 pop	 ecx

; 52   : 	if( !pPlay || pPlay->GetSubType() != ioPlayEntity::PST_WALL_ZONE )

  0000f	85 f6		 test	 esi, esi
  00011	74 28		 je	 SHORT $LN1@ToWallZone
  00013	8b 06		 mov	 eax, DWORD PTR [esi]
  00015	8b ce		 mov	 ecx, esi
  00017	ff 90 a4 00 00
	00		 call	 DWORD PTR [eax+164]
  0001d	83 f8 0b	 cmp	 eax, 11			; 0000000bH
  00020	75 19		 jne	 SHORT $LN1@ToWallZone

; 54   : 
; 55   : 	return dynamic_cast< ioWallZone* >( pPlay );

  00022	6a 00		 push	 0
  00024	68 00 00 00 00	 push	 OFFSET ??_R0?AVioWallZone@@@8
  00029	68 00 00 00 00	 push	 OFFSET ??_R0?AVioPlayEntity@@@8
  0002e	6a 00		 push	 0
  00030	56		 push	 esi
  00031	e8 00 00 00 00	 call	 ___RTDynamicCast
  00036	83 c4 14	 add	 esp, 20			; 00000014H
  00039	eb 02		 jmp	 SHORT $LN3@ToWallZone
$LN1@ToWallZone:

; 53   : 		return NULL;

  0003b	33 c0		 xor	 eax, eax
$LN3@ToWallZone:
  0003d	5e		 pop	 esi

; 56   : }

  0003e	5d		 pop	 ebp
  0003f	c3		 ret	 0
?ToWallZone@@YAPAVioWallZone@@PAVioGameEntity@@@Z ENDP	; ToWallZone
_TEXT	ENDS
PUBLIC	??_R0?AVioSymbolStruct@@@8			; ioSymbolStruct `RTTI Type Descriptor'
PUBLIC	?ToSymbolStruct@@YAPAVioSymbolStruct@@PAVioGameEntity@@@Z ; ToSymbolStruct
;	COMDAT ??_R0?AVioSymbolStruct@@@8
; File d:\lost saga for developer\youtube\tutorial\source\src\lsclient\iosymbolstruct.h
_DATA	SEGMENT
??_R0?AVioSymbolStruct@@@8 DD FLAT:??_7type_info@@6B@	; ioSymbolStruct `RTTI Type Descriptor'
	DD	00H
	DB	'.?AVioSymbolStruct@@', 00H
; Function compile flags: /Ogsp
_DATA	ENDS
;	COMDAT ?ToSymbolStruct@@YAPAVioSymbolStruct@@PAVioGameEntity@@@Z
_TEXT	SEGMENT
_pObj$ = 8						; size = 4
?ToSymbolStruct@@YAPAVioSymbolStruct@@PAVioGameEntity@@@Z PROC ; ToSymbolStruct, COMDAT

; 171  : {

  00000	55		 push	 ebp
  00001	8b ec		 mov	 ebp, esp
  00003	56		 push	 esi

; 172  : 	ioPlayEntity *pPlay = ToPlayEntity( pObj );

  00004	ff 75 08	 push	 DWORD PTR _pObj$[ebp]
  00007	e8 00 00 00 00	 call	 ?ToPlayEntity@@YAPAVioPlayEntity@@PAVioGameEntity@@@Z ; ToPlayEntity
  0000c	8b f0		 mov	 esi, eax
  0000e	59		 pop	 ecx

; 173  : 	if( !pPlay || pPlay->GetSubType() != ioPlayEntity::PST_SYMBOL )

  0000f	85 f6		 test	 esi, esi
  00011	74 28		 je	 SHORT $LN1@ToSymbolSt
  00013	8b 06		 mov	 eax, DWORD PTR [esi]
  00015	8b ce		 mov	 ecx, esi
  00017	ff 90 a4 00 00
	00		 call	 DWORD PTR [eax+164]
  0001d	83 f8 01	 cmp	 eax, 1
  00020	75 19		 jne	 SHORT $LN1@ToSymbolSt

; 175  : 
; 176  : 	return dynamic_cast< ioSymbolStruct* >( pPlay );

  00022	6a 00		 push	 0
  00024	68 00 00 00 00	 push	 OFFSET ??_R0?AVioSymbolStruct@@@8
  00029	68 00 00 00 00	 push	 OFFSET ??_R0?AVioPlayEntity@@@8
  0002e	6a 00		 push	 0
  00030	56		 push	 esi
  00031	e8 00 00 00 00	 call	 ___RTDynamicCast
  00036	83 c4 14	 add	 esp, 20			; 00000014H
  00039	eb 02		 jmp	 SHORT $LN3@ToSymbolSt
$LN1@ToSymbolSt:

; 174  : 		return NULL;

  0003b	33 c0		 xor	 eax, eax
$LN3@ToSymbolSt:
  0003d	5e		 pop	 esi

; 177  : }

  0003e	5d		 pop	 ebp
  0003f	c3		 ret	 0
?ToSymbolStruct@@YAPAVioSymbolStruct@@PAVioGameEntity@@@Z ENDP ; ToSymbolStruct
_TEXT	ENDS
PUBLIC	??_R0?AVioBall@@@8				; ioBall `RTTI Type Descriptor'
PUBLIC	?ToBallStruct@@YAPAVioBall@@PAVioGameEntity@@@Z	; ToBallStruct
;	COMDAT ??_R0?AVioBall@@@8
; File d:\lost saga for developer\youtube\tutorial\source\src\lsclient\ioball.h
_DATA	SEGMENT
??_R0?AVioBall@@@8 DD FLAT:??_7type_info@@6B@		; ioBall `RTTI Type Descriptor'
	DD	00H
	DB	'.?AVioBall@@', 00H
; Function compile flags: /Ogsp
_DATA	ENDS
;	COMDAT ?ToBallStruct@@YAPAVioBall@@PAVioGameEntity@@@Z
_TEXT	SEGMENT
_pObj$ = 8						; size = 4
?ToBallStruct@@YAPAVioBall@@PAVioGameEntity@@@Z PROC	; ToBallStruct, COMDAT

; 252  : {

  00000	55		 push	 ebp
  00001	8b ec		 mov	 ebp, esp
  00003	56		 push	 esi

; 253  : 	ioPlayEntity *pPlay = ToPlayEntity( pObj );

  00004	ff 75 08	 push	 DWORD PTR _pObj$[ebp]
  00007	e8 00 00 00 00	 call	 ?ToPlayEntity@@YAPAVioPlayEntity@@PAVioGameEntity@@@Z ; ToPlayEntity
  0000c	8b f0		 mov	 esi, eax
  0000e	59		 pop	 ecx

; 254  : 	if( !pPlay || pPlay->GetSubType() != ioPlayEntity::PST_BALL )

  0000f	85 f6		 test	 esi, esi
  00011	74 28		 je	 SHORT $LN1@ToBallStru
  00013	8b 06		 mov	 eax, DWORD PTR [esi]
  00015	8b ce		 mov	 ecx, esi
  00017	ff 90 a4 00 00
	00		 call	 DWORD PTR [eax+164]
  0001d	83 f8 08	 cmp	 eax, 8
  00020	75 19		 jne	 SHORT $LN1@ToBallStru

; 256  : 
; 257  : 	return dynamic_cast< ioBall* >( pPlay );

  00022	6a 00		 push	 0
  00024	68 00 00 00 00	 push	 OFFSET ??_R0?AVioBall@@@8
  00029	68 00 00 00 00	 push	 OFFSET ??_R0?AVioPlayEntity@@@8
  0002e	6a 00		 push	 0
  00030	56		 push	 esi
  00031	e8 00 00 00 00	 call	 ___RTDynamicCast
  00036	83 c4 14	 add	 esp, 20			; 00000014H
  00039	eb 02		 jmp	 SHORT $LN3@ToBallStru
$LN1@ToBallStru:

; 255  : 		return NULL;

  0003b	33 c0		 xor	 eax, eax
$LN3@ToBallStru:
  0003d	5e		 pop	 esi

; 258  : }

  0003e	5d		 pop	 ebp
  0003f	c3		 ret	 0
?ToBallStruct@@YAPAVioBall@@PAVioGameEntity@@@Z ENDP	; ToBallStruct
_TEXT	ENDS
PUBLIC	??_R0?AVioPushStruct@@@8			; ioPushStruct `RTTI Type Descriptor'
PUBLIC	?ToPushStruct@@YAPAVioPushStruct@@PAVioGameEntity@@@Z ; ToPushStruct
;	COMDAT ??_R0?AVioPushStruct@@@8
; File d:\lost saga for developer\youtube\tutorial\source\src\lsclient\iopushstruct.h
_DATA	SEGMENT
??_R0?AVioPushStruct@@@8 DD FLAT:??_7type_info@@6B@	; ioPushStruct `RTTI Type Descriptor'
	DD	00H
	DB	'.?AVioPushStruct@@', 00H
; Function compile flags: /Ogsp
_DATA	ENDS
;	COMDAT ?ToPushStruct@@YAPAVioPushStruct@@PAVioGameEntity@@@Z
_TEXT	SEGMENT
_pObj$ = 8						; size = 4
?ToPushStruct@@YAPAVioPushStruct@@PAVioGameEntity@@@Z PROC ; ToPushStruct, COMDAT

; 440  : {

  00000	55		 push	 ebp
  00001	8b ec		 mov	 ebp, esp
  00003	56		 push	 esi

; 441  : 	ioPlayEntity *pPlay = ToPlayEntity( pObj );

  00004	ff 75 08	 push	 DWORD PTR _pObj$[ebp]
  00007	e8 00 00 00 00	 call	 ?ToPlayEntity@@YAPAVioPlayEntity@@PAVioGameEntity@@@Z ; ToPlayEntity
  0000c	8b f0		 mov	 esi, eax
  0000e	59		 pop	 ecx

; 442  : 	if( !pPlay || pPlay->GetSubType() != ioPlayEntity::PST_PUSHSTRUCT )

  0000f	85 f6		 test	 esi, esi
  00011	74 28		 je	 SHORT $LN1@ToPushStru
  00013	8b 06		 mov	 eax, DWORD PTR [esi]
  00015	8b ce		 mov	 ecx, esi
  00017	ff 90 a4 00 00
	00		 call	 DWORD PTR [eax+164]
  0001d	83 f8 02	 cmp	 eax, 2
  00020	75 19		 jne	 SHORT $LN1@ToPushStru

; 444  : 
; 445  : 	return dynamic_cast< ioPushStruct* >( pPlay );

  00022	6a 00		 push	 0
  00024	68 00 00 00 00	 push	 OFFSET ??_R0?AVioPushStruct@@@8
  00029	68 00 00 00 00	 push	 OFFSET ??_R0?AVioPlayEntity@@@8
  0002e	6a 00		 push	 0
  00030	56		 push	 esi
  00031	e8 00 00 00 00	 call	 ___RTDynamicCast
  00036	83 c4 14	 add	 esp, 20			; 00000014H
  00039	eb 02		 jmp	 SHORT $LN3@ToPushStru
$LN1@ToPushStru:

; 443  : 		return NULL;

  0003b	33 c0		 xor	 eax, eax
$LN3@ToPushStru:
  0003d	5e		 pop	 esi

; 446  : }

  0003e	5d		 pop	 ebp
  0003f	c3		 ret	 0
?ToPushStruct@@YAPAVioPushStruct@@PAVioGameEntity@@@Z ENDP ; ToPushStruct
_TEXT	ENDS
PUBLIC	??_7?$CEncrypt@M@@6B@				; CEncrypt<float>::`vftable'
PUBLIC	??1?$CEncrypt@M@@UAE@XZ				; CEncrypt<float>::~CEncrypt<float>
PUBLIC	??_R4?$CEncrypt@M@@6B@				; CEncrypt<float>::`RTTI Complete Object Locator'
PUBLIC	??_R0?AV?$CEncrypt@M@@@8			; CEncrypt<float> `RTTI Type Descriptor'
PUBLIC	??_R3?$CEncrypt@M@@8				; CEncrypt<float>::`RTTI Class Hierarchy Descriptor'
PUBLIC	??_R2?$CEncrypt@M@@8				; CEncrypt<float>::`RTTI Base Class Array'
PUBLIC	??_R1A@?0A@EA@?$CEncrypt@M@@8			; CEncrypt<float>::`RTTI Base Class Descriptor at (0,-1,0,64)'
EXTRN	??1ccddaabb@@UAE@XZ:PROC			; ccddaabb::~ccddaabb
EXTRN	??_E?$CEncrypt@M@@UAEPAXI@Z:PROC		; CEncrypt<float>::`vector deleting destructor'
;	COMDAT ??_R1A@?0A@EA@?$CEncrypt@M@@8
; File d:\lost saga for developer\youtube\tutorial\source\src\lsclient\encryptvalue.h
rdata$r	SEGMENT
??_R1A@?0A@EA@?$CEncrypt@M@@8 DD FLAT:??_R0?AV?$CEncrypt@M@@@8 ; CEncrypt<float>::`RTTI Base Class Descriptor at (0,-1,0,64)'
	DD	00H
	DD	00H
	DD	0ffffffffH
	DD	00H
	DD	040H
	DD	FLAT:??_R3?$CEncrypt@M@@8
rdata$r	ENDS
;	COMDAT ??_R2?$CEncrypt@M@@8
rdata$r	SEGMENT
??_R2?$CEncrypt@M@@8 DD FLAT:??_R1A@?0A@EA@?$CEncrypt@M@@8 ; CEncrypt<float>::`RTTI Base Class Array'
rdata$r	ENDS
;	COMDAT ??_R3?$CEncrypt@M@@8
rdata$r	SEGMENT
??_R3?$CEncrypt@M@@8 DD 00H				; CEncrypt<float>::`RTTI Class Hierarchy Descriptor'
	DD	00H
	DD	01H
	DD	FLAT:??_R2?$CEncrypt@M@@8
rdata$r	ENDS
;	COMDAT ??_R0?AV?$CEncrypt@M@@@8
_DATA	SEGMENT
??_R0?AV?$CEncrypt@M@@@8 DD FLAT:??_7type_info@@6B@	; CEncrypt<float> `RTTI Type Descriptor'
	DD	00H
	DB	'.?AV?$CEncrypt@M@@', 00H
_DATA	ENDS
;	COMDAT ??_R4?$CEncrypt@M@@6B@
rdata$r	SEGMENT
??_R4?$CEncrypt@M@@6B@ DD 00H				; CEncrypt<float>::`RTTI Complete Object Locator'
	DD	00H
	DD	00H
	DD	FLAT:??_R0?AV?$CEncrypt@M@@@8
	DD	FLAT:??_R3?$CEncrypt@M@@8
rdata$r	ENDS
;	COMDAT ??_7?$CEncrypt@M@@6B@
CONST	SEGMENT
??_7?$CEncrypt@M@@6B@ DD FLAT:??_R4?$CEncrypt@M@@6B@	; CEncrypt<float>::`vftable'
	DD	FLAT:??_E?$CEncrypt@M@@UAEPAXI@Z
; Function compile flags: /Ogsp
CONST	ENDS
;	COMDAT ??1?$CEncrypt@M@@UAE@XZ
_TEXT	SEGMENT
??1?$CEncrypt@M@@UAE@XZ PROC				; CEncrypt<float>::~CEncrypt<float>, COMDAT
; _this$ = ecx

; 127  : 	{

  00000	c7 01 00 00 00
	00		 mov	 DWORD PTR [ecx], OFFSET ??_7?$CEncrypt@M@@6B@

; 128  : 	}

  00006	83 c1 0c	 add	 ecx, 12			; 0000000cH
  00009	e9 00 00 00 00	 jmp	 ??1ccddaabb@@UAE@XZ	; ccddaabb::~ccddaabb
??1?$CEncrypt@M@@UAE@XZ ENDP				; CEncrypt<float>::~CEncrypt<float>
; Function compile flags: /Ogsp
_TEXT	ENDS
;	COMDAT ??_G?$CEncrypt@M@@UAEPAXI@Z
_TEXT	SEGMENT
___flags$ = 8						; size = 4
??_G?$CEncrypt@M@@UAEPAXI@Z PROC			; CEncrypt<float>::`scalar deleting destructor', COMDAT
; _this$ = ecx
  00000	55		 push	 ebp
  00001	8b ec		 mov	 ebp, esp
  00003	56		 push	 esi
  00004	8b f1		 mov	 esi, ecx
  00006	8d 4e 0c	 lea	 ecx, DWORD PTR [esi+12]
  00009	c7 06 00 00 00
	00		 mov	 DWORD PTR [esi], OFFSET ??_7?$CEncrypt@M@@6B@
  0000f	e8 00 00 00 00	 call	 ??1ccddaabb@@UAE@XZ	; ccddaabb::~ccddaabb
  00014	f6 45 08 01	 test	 BYTE PTR ___flags$[ebp], 1
  00018	74 07		 je	 SHORT $LN1@scalar@2
  0001a	56		 push	 esi
  0001b	e8 00 00 00 00	 call	 ??3@YAXPAX@Z		; operator delete
  00020	59		 pop	 ecx
$LN1@scalar@2:
  00021	8b c6		 mov	 eax, esi
  00023	5e		 pop	 esi
  00024	5d		 pop	 ebp
  00025	c2 04 00	 ret	 4
??_G?$CEncrypt@M@@UAEPAXI@Z ENDP			; CEncrypt<float>::`scalar deleting destructor'
_TEXT	ENDS
PUBLIC	?EncryptValueToPool@?$CEncrypt@M@@AAEXPBD@Z	; CEncrypt<float>::EncryptValueToPool
EXTRN	?EncryptByte@ccddaabb@@QAEXPBDPADH@Z:PROC	; ccddaabb::EncryptByte
; Function compile flags: /Ogsp
;	COMDAT ?EncryptValueToPool@?$CEncrypt@M@@AAEXPBD@Z
_TEXT	SEGMENT
_value$ = 8						; size = 4
?EncryptValueToPool@?$CEncrypt@M@@AAEXPBD@Z PROC	; CEncrypt<float>::EncryptValueToPool, COMDAT
; _this$ = ecx

; 67   : 	{

  00000	55		 push	 ebp
  00001	8b ec		 mov	 ebp, esp

; 68   : 		m_RC5.EncryptByte( value, m_MemPool, max(m_ValueSize, DEFAULT_ENCRYPT) );

  00003	0f b7 41 06	 movzx	 eax, WORD PTR [ecx+6]
  00007	83 f8 04	 cmp	 eax, 4
  0000a	77 03		 ja	 SHORT $LN4@EncryptVal
  0000c	6a 04		 push	 4
  0000e	58		 pop	 eax
$LN4@EncryptVal:
  0000f	50		 push	 eax
  00010	8d 41 1c	 lea	 eax, DWORD PTR [ecx+28]
  00013	50		 push	 eax
  00014	ff 75 08	 push	 DWORD PTR _value$[ebp]
  00017	83 c1 0c	 add	 ecx, 12			; 0000000cH
  0001a	e8 00 00 00 00	 call	 ?EncryptByte@ccddaabb@@QAEXPBDPADH@Z ; ccddaabb::EncryptByte

; 69   : 		
; 70   : 	}

  0001f	5d		 pop	 ebp
  00020	c2 04 00	 ret	 4
?EncryptValueToPool@?$CEncrypt@M@@AAEXPBD@Z ENDP	; CEncrypt<float>::EncryptValueToPool
_TEXT	ENDS
PUBLIC	?Init@?$CEncrypt@M@@AAEXXZ			; CEncrypt<float>::Init
EXTRN	?Setup@ccddaabb@@QAEXPBDHH@Z:PROC		; ccddaabb::Setup
EXTRN	__imp__rand:PROC
EXTRN	__imp__timeGetTime@0:PROC
EXTRN	__imp__GetCurrentProcessId@0:PROC
; Function compile flags: /Ogsp
;	COMDAT ?Init@?$CEncrypt@M@@AAEXXZ
_TEXT	SEGMENT
_pid$ = -8						; size = 4
_tick$ = -4						; size = 4
?Init@?$CEncrypt@M@@AAEXXZ PROC				; CEncrypt<float>::Init, COMDAT
; _this$ = ecx

; 73   : 	{

  00000	55		 push	 ebp
  00001	8b ec		 mov	 ebp, esp
  00003	51		 push	 ecx
  00004	51		 push	 ecx
  00005	53		 push	 ebx
  00006	56		 push	 esi
  00007	57		 push	 edi
  00008	8b f1		 mov	 esi, ecx

; 74   : 		DWORD pid = GetCurrentProcessId();

  0000a	ff 15 00 00 00
	00		 call	 DWORD PTR __imp__GetCurrentProcessId@0
  00010	89 45 f8	 mov	 DWORD PTR _pid$[ebp], eax

; 75   : 		DWORD tick = timeGetTime();

  00013	ff 15 00 00 00
	00		 call	 DWORD PTR __imp__timeGetTime@0

; 76   : 		m_ValueSize    = sizeof(type);
; 77   : 		m_MemPoolPos   = (unsigned short)( rand()+pid+tick )%(MAX_MEM_POOL-m_ValueSize);

  00019	8b 3d 00 00 00
	00		 mov	 edi, DWORD PTR __imp__rand
  0001f	89 45 fc	 mov	 DWORD PTR _tick$[ebp], eax
  00022	6a 04		 push	 4
  00024	58		 pop	 eax
  00025	66 89 46 06	 mov	 WORD PTR [esi+6], ax
  00029	ff d7		 call	 edi
  0002b	03 45 f8	 add	 eax, DWORD PTR _pid$[ebp]
  0002e	0f b7 4e 06	 movzx	 ecx, WORD PTR [esi+6]
  00032	03 45 fc	 add	 eax, DWORD PTR _tick$[ebp]
  00035	6a 0c		 push	 12			; 0000000cH
  00037	0f b7 c0	 movzx	 eax, ax
  0003a	5b		 pop	 ebx
  0003b	99		 cdq
  0003c	2b d9		 sub	 ebx, ecx
  0003e	f7 fb		 idiv	 ebx
  00040	66 89 56 04	 mov	 WORD PTR [esi+4], dx

; 78   : 		m_EncryptSeed  = (char)( rand()+pid+tick )%256;

  00044	ff d7		 call	 edi
  00046	02 45 f8	 add	 al, BYTE PTR _pid$[ebp]
  00049	02 45 fc	 add	 al, BYTE PTR _tick$[ebp]
  0004c	0f be c0	 movsx	 eax, al
  0004f	25 ff 00 00 80	 and	 eax, -2147483393	; 800000ffH
  00054	79 07		 jns	 SHORT $LN8@Init
  00056	48		 dec	 eax
  00057	0d 00 ff ff ff	 or	 eax, -256		; ffffff00H
  0005c	40		 inc	 eax
$LN8@Init:
  0005d	88 46 08	 mov	 BYTE PTR [esi+8], al

; 79   : 
; 80   : 		for (int i = 0; i < MAX_MEM_POOL ; i++)

  00060	33 db		 xor	 ebx, ebx
$LL3@Init:

; 81   : 			m_MemPool[i] = (char)( rand()+pid+tick )%256; // 

  00062	ff d7		 call	 edi
  00064	02 45 f8	 add	 al, BYTE PTR _pid$[ebp]
  00067	02 45 fc	 add	 al, BYTE PTR _tick$[ebp]
  0006a	0f be c0	 movsx	 eax, al
  0006d	25 ff 00 00 80	 and	 eax, -2147483393	; 800000ffH
  00072	79 07		 jns	 SHORT $LN9@Init
  00074	48		 dec	 eax
  00075	0d 00 ff ff ff	 or	 eax, -256		; ffffff00H
  0007a	40		 inc	 eax
$LN9@Init:
  0007b	88 44 1e 1c	 mov	 BYTE PTR [esi+ebx+28], al
  0007f	43		 inc	 ebx
  00080	83 fb 0c	 cmp	 ebx, 12			; 0000000cH
  00083	7c dd		 jl	 SHORT $LL3@Init

; 82   : 
; 83   : 		//UJ 130913, : szKey  
; 84   : 		//char szKey[ccddaabb::KEY_SIZE];//="";
; 85   : 		//for (int i = 0; i < ccddaabb::KEY_SIZE  ; i++)
; 86   : 		//	szKey[i] = (char)( rand()+pid+tick )%256; // 
; 87   : 		m_RC5.Setup( NULL, pid, tick );

  00085	ff 75 fc	 push	 DWORD PTR _tick$[ebp]
  00088	8d 4e 0c	 lea	 ecx, DWORD PTR [esi+12]
  0008b	ff 75 f8	 push	 DWORD PTR _pid$[ebp]
  0008e	6a 00		 push	 0
  00090	e8 00 00 00 00	 call	 ?Setup@ccddaabb@@QAEXPBDHH@Z ; ccddaabb::Setup
  00095	5f		 pop	 edi
  00096	5e		 pop	 esi
  00097	5b		 pop	 ebx

; 88   : 
; 89   : #ifdef _NOTUSE
; 90   : 		m_value        = 0;
; 91   : 		EncryptValueToPool((char*)&m_value);
; 92   : 		Debug();
; 93   : #endif
; 94   : 	}

  00098	c9		 leave
  00099	c3		 ret	 0
?Init@?$CEncrypt@M@@AAEXXZ ENDP				; CEncrypt<float>::Init
_TEXT	ENDS
PUBLIC	?DecryptValueToPool@?$CEncrypt@M@@QAEXPAM@Z	; CEncrypt<float>::DecryptValueToPool
EXTRN	?DecryptByte@ccddaabb@@QBEXPBDPADH@Z:PROC	; ccddaabb::DecryptByte
; Function compile flags: /Ogsp
;	COMDAT ?DecryptValueToPool@?$CEncrypt@M@@QAEXPAM@Z
_TEXT	SEGMENT
_value$ = 8						; size = 4
?DecryptValueToPool@?$CEncrypt@M@@QAEXPAM@Z PROC	; CEncrypt<float>::DecryptValueToPool, COMDAT
; _this$ = ecx

; 1648 : 	{

  00000	55		 push	 ebp
  00001	8b ec		 mov	 ebp, esp
  00003	56		 push	 esi

; 1649 : 		m_RC5.DecryptByte( m_MemPool, m_TempMem, 4 );

  00004	8d 71 28	 lea	 esi, DWORD PTR [ecx+40]
  00007	6a 04		 push	 4
  00009	8d 41 1c	 lea	 eax, DWORD PTR [ecx+28]
  0000c	56		 push	 esi
  0000d	50		 push	 eax
  0000e	83 c1 0c	 add	 ecx, 12			; 0000000cH
  00011	e8 00 00 00 00	 call	 ?DecryptByte@ccddaabb@@QBEXPBDPADH@Z ; ccddaabb::DecryptByte

; 1650 : 		*value = *((float*)m_TempMem);

  00016	d9 06		 fld	 DWORD PTR [esi]
  00018	8b 45 08	 mov	 eax, DWORD PTR _value$[ebp]
  0001b	d9 18		 fstp	 DWORD PTR [eax]
  0001d	5e		 pop	 esi

; 1651 : 	}

  0001e	5d		 pop	 ebp
  0001f	c2 04 00	 ret	 4
?DecryptValueToPool@?$CEncrypt@M@@QAEXPAM@Z ENDP	; CEncrypt<float>::DecryptValueToPool
_TEXT	ENDS
PUBLIC	?DecryptValueToPool@?$CEncrypt@W4TeamType@@@@QAEXPAW4TeamType@@@Z ; CEncrypt<enum TeamType>::DecryptValueToPool
; Function compile flags: /Ogsp
;	COMDAT ?DecryptValueToPool@?$CEncrypt@W4TeamType@@@@QAEXPAW4TeamType@@@Z
_TEXT	SEGMENT
_value$ = 8						; size = 4
?DecryptValueToPool@?$CEncrypt@W4TeamType@@@@QAEXPAW4TeamType@@@Z PROC ; CEncrypt<enum TeamType>::DecryptValueToPool, COMDAT
; _this$ = ecx

; 2959 : 	{

  00000	55		 push	 ebp
  00001	8b ec		 mov	 ebp, esp
  00003	56		 push	 esi

; 2960 : 		m_RC5.DecryptByte( m_MemPool, m_TempMem, sizeof(TeamType) );

  00004	8d 71 28	 lea	 esi, DWORD PTR [ecx+40]
  00007	6a 04		 push	 4
  00009	8d 41 1c	 lea	 eax, DWORD PTR [ecx+28]
  0000c	56		 push	 esi
  0000d	50		 push	 eax
  0000e	83 c1 0c	 add	 ecx, 12			; 0000000cH
  00011	e8 00 00 00 00	 call	 ?DecryptByte@ccddaabb@@QBEXPBDPADH@Z ; ccddaabb::DecryptByte

; 2961 : 		*value = *((TeamType*)m_TempMem);

  00016	8b 06		 mov	 eax, DWORD PTR [esi]
  00018	8b 4d 08	 mov	 ecx, DWORD PTR _value$[ebp]
  0001b	89 01		 mov	 DWORD PTR [ecx], eax
  0001d	5e		 pop	 esi

; 2962 : 	}

  0001e	5d		 pop	 ebp
  0001f	c2 04 00	 ret	 4
?DecryptValueToPool@?$CEncrypt@W4TeamType@@@@QAEXPAW4TeamType@@@Z ENDP ; CEncrypt<enum TeamType>::DecryptValueToPool
_TEXT	ENDS
PUBLIC	?capacity@?$vector@UBuffInfoStruct@@V?$allocator@UBuffInfoStruct@@@std@@@std@@QBEIXZ ; std::vector<BuffInfoStruct,std::allocator<BuffInfoStruct> >::capacity
; Function compile flags: /Ogsp
; File c:\program files (x86)\microsoft visual studio 10.0\vc\include\vector
;	COMDAT ?capacity@?$vector@UBuffInfoStruct@@V?$allocator@UBuffInfoStruct@@@std@@@std@@QBEIXZ
_TEXT	SEGMENT
?capacity@?$vector@UBuffInfoStruct@@V?$allocator@UBuffInfoStruct@@@std@@@std@@QBEIXZ PROC ; std::vector<BuffInfoStruct,std::allocator<BuffInfoStruct> >::capacity, COMDAT
; _this$ = ecx

; 777  : 		return (this->_Myend - this->_Myfirst);

  00000	8b 41 08	 mov	 eax, DWORD PTR [ecx+8]
  00003	2b 01		 sub	 eax, DWORD PTR [ecx]
  00005	6a 14		 push	 20			; 00000014H
  00007	99		 cdq
  00008	59		 pop	 ecx
  00009	f7 f9		 idiv	 ecx

; 778  : 		}

  0000b	c3		 ret	 0
?capacity@?$vector@UBuffInfoStruct@@V?$allocator@UBuffInfoStruct@@@std@@@std@@QBEIXZ ENDP ; std::vector<BuffInfoStruct,std::allocator<BuffInfoStruct> >::capacity
_TEXT	ENDS
PUBLIC	?size@?$vector@UBuffInfoStruct@@V?$allocator@UBuffInfoStruct@@@std@@@std@@QBEIXZ ; std::vector<BuffInfoStruct,std::allocator<BuffInfoStruct> >::size
; Function compile flags: /Ogsp
;	COMDAT ?size@?$vector@UBuffInfoStruct@@V?$allocator@UBuffInfoStruct@@@std@@@std@@QBEIXZ
_TEXT	SEGMENT
?size@?$vector@UBuffInfoStruct@@V?$allocator@UBuffInfoStruct@@@std@@@std@@QBEIXZ PROC ; std::vector<BuffInfoStruct,std::allocator<BuffInfoStruct> >::size, COMDAT
; _this$ = ecx

; 879  : 		return (this->_Mylast - this->_Myfirst);

  00000	8b 41 04	 mov	 eax, DWORD PTR [ecx+4]
  00003	2b 01		 sub	 eax, DWORD PTR [ecx]
  00005	6a 14		 push	 20			; 00000014H
  00007	99		 cdq
  00008	59		 pop	 ecx
  00009	f7 f9		 idiv	 ecx

; 880  : 		}

  0000b	c3		 ret	 0
?size@?$vector@UBuffInfoStruct@@V?$allocator@UBuffInfoStruct@@@std@@@std@@QBEIXZ ENDP ; std::vector<BuffInfoStruct,std::allocator<BuffInfoStruct> >::size
_TEXT	ENDS
PUBLIC	??1?$_Vector_val@UBuffInfoStruct@@V?$allocator@UBuffInfoStruct@@@std@@@std@@QAE@XZ ; std::_Vector_val<BuffInfoStruct,std::allocator<BuffInfoStruct> >::~_Vector_val<BuffInfoStruct,std::allocator<BuffInfoStruct> >
; Function compile flags: /Ogsp
;	COMDAT ??1?$_Vector_val@UBuffInfoStruct@@V?$allocator@UBuffInfoStruct@@@std@@@std@@QAE@XZ
_TEXT	SEGMENT
??1?$_Vector_val@UBuffInfoStruct@@V?$allocator@UBuffInfoStruct@@@std@@@std@@QAE@XZ PROC ; std::_Vector_val<BuffInfoStruct,std::allocator<BuffInfoStruct> >::~_Vector_val<BuffInfoStruct,std::allocator<BuffInfoStruct> >, COMDAT
; _this$ = ecx

; 434  : 		}

  00000	c3		 ret	 0
??1?$_Vector_val@UBuffInfoStruct@@V?$allocator@UBuffInfoStruct@@@std@@@std@@QAE@XZ ENDP ; std::_Vector_val<BuffInfoStruct,std::allocator<BuffInfoStruct> >::~_Vector_val<BuffInfoStruct,std::allocator<BuffInfoStruct> >
_TEXT	ENDS
PUBLIC	??0?$allocator@UBuffInfoStruct@@@std@@QAE@XZ	; std::allocator<BuffInfoStruct>::allocator<BuffInfoStruct>
; Function compile flags: /Ogsp
; File c:\program files (x86)\microsoft visual studio 10.0\vc\include\xmemory
;	COMDAT ??0?$allocator@UBuffInfoStruct@@@std@@QAE@XZ
_TEXT	SEGMENT
??0?$allocator@UBuffInfoStruct@@@std@@QAE@XZ PROC	; std::allocator<BuffInfoStruct>::allocator<BuffInfoStruct>, COMDAT
; _this$ = ecx

; 161  : 	_ALLOCATOR() _THROW0()

  00000	8b c1		 mov	 eax, ecx

; 162  : 		{	// construct default allocator (do nothing)
; 163  : 		}

  00002	c3		 ret	 0
??0?$allocator@UBuffInfoStruct@@@std@@QAE@XZ ENDP	; std::allocator<BuffInfoStruct>::allocator<BuffInfoStruct>
_TEXT	ENDS
PUBLIC	?deallocate@?$allocator@UBuffInfoStruct@@@std@@QAEXPAUBuffInfoStruct@@I@Z ; std::allocator<BuffInfoStruct>::deallocate
; Function compile flags: /Ogsp
;	COMDAT ?deallocate@?$allocator@UBuffInfoStruct@@@std@@QAEXPAUBuffInfoStruct@@I@Z
_TEXT	SEGMENT
__Ptr$ = 8						; size = 4
___formal$ = 12						; size = 4
?deallocate@?$allocator@UBuffInfoStruct@@@std@@QAEXPAUBuffInfoStruct@@I@Z PROC ; std::allocator<BuffInfoStruct>::deallocate, COMDAT
; _this$ = ecx

; 181  : 		{	// deallocate object at _Ptr, ignore size

  00000	55		 push	 ebp
  00001	8b ec		 mov	 ebp, esp

; 182  : 		::operator delete(_Ptr);

  00003	ff 75 08	 push	 DWORD PTR __Ptr$[ebp]
  00006	e8 00 00 00 00	 call	 ??3@YAXPAX@Z		; operator delete
  0000b	59		 pop	 ecx

; 183  : 		}

  0000c	5d		 pop	 ebp
  0000d	c2 08 00	 ret	 8
?deallocate@?$allocator@UBuffInfoStruct@@@std@@QAEXPAUBuffInfoStruct@@I@Z ENDP ; std::allocator<BuffInfoStruct>::deallocate
_TEXT	ENDS
PUBLIC	?_Xlen@?$vector@UBuffInfoStruct@@V?$allocator@UBuffInfoStruct@@@std@@@std@@IBEXXZ ; std::vector<BuffInfoStruct,std::allocator<BuffInfoStruct> >::_Xlen
; Function compile flags: /Ogsp
; File c:\program files (x86)\microsoft visual studio 10.0\vc\include\vector
;	COMDAT ?_Xlen@?$vector@UBuffInfoStruct@@V?$allocator@UBuffInfoStruct@@@std@@@std@@IBEXXZ
_TEXT	SEGMENT
?_Xlen@?$vector@UBuffInfoStruct@@V?$allocator@UBuffInfoStruct@@@std@@@std@@IBEXXZ PROC ; std::vector<BuffInfoStruct,std::allocator<BuffInfoStruct> >::_Xlen, COMDAT
; _this$ = ecx

; 1427 : 		_Xlength_error("vector<T> too long");

  00000	68 00 00 00 00	 push	 OFFSET ??_C@_0BD@OLBABOEK@vector?$DMT?$DO?5too?5long?$AA@
  00005	ff 15 00 00 00
	00		 call	 DWORD PTR __imp_?_Xlength_error@std@@YAXPBD@Z
$LN4@Xlen@2:
$LN3@Xlen@2:
  0000b	cc		 int	 3
?_Xlen@?$vector@UBuffInfoStruct@@V?$allocator@UBuffInfoStruct@@@std@@@std@@IBEXXZ ENDP ; std::vector<BuffInfoStruct,std::allocator<BuffInfoStruct> >::_Xlen
_TEXT	ENDS
PUBLIC	??0?$allocator@UBuffInfoStruct@@@std@@QAE@ABV01@@Z ; std::allocator<BuffInfoStruct>::allocator<BuffInfoStruct>
; Function compile flags: /Ogsp
; File c:\program files (x86)\microsoft visual studio 10.0\vc\include\xmemory
;	COMDAT ??0?$allocator@UBuffInfoStruct@@@std@@QAE@ABV01@@Z
_TEXT	SEGMENT
___formal$ = 8						; size = 4
??0?$allocator@UBuffInfoStruct@@@std@@QAE@ABV01@@Z PROC	; std::allocator<BuffInfoStruct>::allocator<BuffInfoStruct>, COMDAT
; _this$ = ecx

; 165  : 	_ALLOCATOR(const _ALLOCATOR<_Ty>&) _THROW0()

  00000	8b c1		 mov	 eax, ecx

; 166  : 		{	// construct by copying (do nothing)
; 167  : 		}

  00002	c2 04 00	 ret	 4
??0?$allocator@UBuffInfoStruct@@@std@@QAE@ABV01@@Z ENDP	; std::allocator<BuffInfoStruct>::allocator<BuffInfoStruct>
_TEXT	ENDS
PUBLIC	?max_size@?$allocator@UBuffInfoStruct@@@std@@QBEIXZ ; std::allocator<BuffInfoStruct>::max_size
; Function compile flags: /Ogsp
;	COMDAT ?max_size@?$allocator@UBuffInfoStruct@@@std@@QBEIXZ
_TEXT	SEGMENT
?max_size@?$allocator@UBuffInfoStruct@@@std@@QBEIXZ PROC ; std::allocator<BuffInfoStruct>::max_size, COMDAT
; _this$ = ecx

; 218  : 		_SIZT _Count = (_SIZT)(-1) / sizeof (_Ty);
; 219  : 		return (0 < _Count ? _Count : 1);

  00000	b8 cc cc cc 0c	 mov	 eax, 214748364		; 0cccccccH

; 220  : 		}

  00005	c3		 ret	 0
?max_size@?$allocator@UBuffInfoStruct@@@std@@QBEIXZ ENDP ; std::allocator<BuffInfoStruct>::max_size
_TEXT	ENDS
PUBLIC	??$_Allocate@UBuffInfoStruct@@@std@@YAPAUBuffInfoStruct@@IPAU1@@Z ; std::_Allocate<BuffInfoStruct>
; Function compile flags: /Ogsp
;	COMDAT ??$_Allocate@UBuffInfoStruct@@@std@@YAPAUBuffInfoStruct@@IPAU1@@Z
_TEXT	SEGMENT
$T536547 = -12						; size = 12
$T536551 = 8						; size = 4
__Count$ = 8						; size = 4
___formal$ = 12						; size = 4
??$_Allocate@UBuffInfoStruct@@@std@@YAPAUBuffInfoStruct@@IPAU1@@Z PROC ; std::_Allocate<BuffInfoStruct>, COMDAT

; 30   : 	{	// allocate storage for _Count elements of type _Ty

  00000	55		 push	 ebp
  00001	8b ec		 mov	 ebp, esp

; 31   : 	void *_Ptr = 0;
; 32   : 
; 33   : 	if (_Count <= 0)

  00003	8b 4d 08	 mov	 ecx, DWORD PTR __Count$[ebp]
  00006	83 ec 0c	 sub	 esp, 12			; 0000000cH
  00009	33 c0		 xor	 eax, eax
  0000b	85 c9		 test	 ecx, ecx

; 34   : 		_Count = 0;
; 35   : 	else if (((_SIZT)(-1) / sizeof (_Ty) < _Count)

  0000d	74 3c		 je	 SHORT $LN5@Allocate@2

; 36   : 		|| (_Ptr = ::operator new(_Count * sizeof (_Ty))) == 0)

  0000f	81 f9 cc cc cc
	0c		 cmp	 ecx, 214748364		; 0cccccccH
  00015	77 0e		 ja	 SHORT $LN1@Allocate@2
  00017	6b c9 14	 imul	 ecx, 20			; 00000014H
  0001a	51		 push	 ecx
  0001b	e8 00 00 00 00	 call	 ??2@YAPAXI@Z		; operator new
  00020	59		 pop	 ecx
  00021	85 c0		 test	 eax, eax

; 38   : 
; 39   : 	return ((_Ty _FARQ *)_Ptr);

  00023	75 26		 jne	 SHORT $LN5@Allocate@2
$LN1@Allocate@2:

; 37   : 		_THROW_NCEE(bad_alloc, 0);

  00025	83 65 08 00	 and	 DWORD PTR $T536551[ebp], 0
  00029	8d 45 08	 lea	 eax, DWORD PTR $T536551[ebp]
  0002c	50		 push	 eax
  0002d	8d 4d f4	 lea	 ecx, DWORD PTR $T536547[ebp]
  00030	ff 15 00 00 00
	00		 call	 DWORD PTR __imp_??0exception@std@@QAE@ABQBD@Z
  00036	68 00 00 00 00	 push	 OFFSET __TI2?AVbad_alloc@std@@
  0003b	8d 45 f4	 lea	 eax, DWORD PTR $T536547[ebp]
  0003e	50		 push	 eax
  0003f	c7 45 f4 00 00
	00 00		 mov	 DWORD PTR $T536547[ebp], OFFSET ??_7bad_alloc@std@@6B@
  00046	e8 00 00 00 00	 call	 __CxxThrowException@8
$LN10@Allocate@2:
$LN5@Allocate@2:

; 40   : 	}

  0004b	c9		 leave
  0004c	c3		 ret	 0
$LN9@Allocate@2:
??$_Allocate@UBuffInfoStruct@@@std@@YAPAUBuffInfoStruct@@IPAU1@@Z ENDP ; std::_Allocate<BuffInfoStruct>
_TEXT	ENDS
EXTRN	__imp_??0exception@std@@QAE@ABV01@@Z:PROC
; Function compile flags: /Ogsp
;	COMDAT ??0bad_alloc@std@@QAE@ABV01@@Z
_TEXT	SEGMENT
___that$ = 8						; size = 4
??0bad_alloc@std@@QAE@ABV01@@Z PROC			; std::bad_alloc::bad_alloc, COMDAT
; _this$ = ecx
  00000	55		 push	 ebp
  00001	8b ec		 mov	 ebp, esp
  00003	56		 push	 esi
  00004	ff 75 08	 push	 DWORD PTR ___that$[ebp]
  00007	8b f1		 mov	 esi, ecx
  00009	ff 15 00 00 00
	00		 call	 DWORD PTR __imp_??0exception@std@@QAE@ABV01@@Z
  0000f	c7 06 00 00 00
	00		 mov	 DWORD PTR [esi], OFFSET ??_7bad_alloc@std@@6B@
  00015	8b c6		 mov	 eax, esi
  00017	5e		 pop	 esi
  00018	5d		 pop	 ebp
  00019	c2 04 00	 ret	 4
??0bad_alloc@std@@QAE@ABV01@@Z ENDP			; std::bad_alloc::bad_alloc
_TEXT	ENDS
PUBLIC	??$_Ptr_cat@UBuffInfoStruct@@U1@@std@@YA?AU_Nonscalar_ptr_iterator_tag@0@PAUBuffInfoStruct@@0@Z ; std::_Ptr_cat<BuffInfoStruct,BuffInfoStruct>
; Function compile flags: /Ogsp
; File c:\program files (x86)\microsoft visual studio 10.0\vc\include\xutility
;	COMDAT ??$_Ptr_cat@UBuffInfoStruct@@U1@@std@@YA?AU_Nonscalar_ptr_iterator_tag@0@PAUBuffInfoStruct@@0@Z
_TEXT	SEGMENT
__Cat$ = -1						; size = 1
___formal$ = 8						; size = 4
___formal$ = 12						; size = 4
??$_Ptr_cat@UBuffInfoStruct@@U1@@std@@YA?AU_Nonscalar_ptr_iterator_tag@0@PAUBuffInfoStruct@@0@Z PROC ; std::_Ptr_cat<BuffInfoStruct,BuffInfoStruct>, COMDAT

; 516  : 	{	// return pointer category from pointers

  00000	55		 push	 ebp
  00001	8b ec		 mov	 ebp, esp
  00003	51		 push	 ecx

; 517  : 	typename _Ptr_cat_helper<_Elem1, _Elem2>::_Type _Cat;
; 518  : 	return (_Cat);

  00004	8a 45 ff	 mov	 al, BYTE PTR __Cat$[ebp]

; 519  : 	}

  00007	c9		 leave
  00008	c3		 ret	 0
??$_Ptr_cat@UBuffInfoStruct@@U1@@std@@YA?AU_Nonscalar_ptr_iterator_tag@0@PAUBuffInfoStruct@@0@Z ENDP ; std::_Ptr_cat<BuffInfoStruct,BuffInfoStruct>
_TEXT	ENDS
PUBLIC	??_GBuffInfoStruct@@QAEPAXI@Z			; BuffInfoStruct::`scalar deleting destructor'
; Function compile flags: /Ogsp
;	COMDAT ??_GBuffInfoStruct@@QAEPAXI@Z
_TEXT	SEGMENT
___flags$ = 8						; size = 4
??_GBuffInfoStruct@@QAEPAXI@Z PROC			; BuffInfoStruct::`scalar deleting destructor', COMDAT
; _this$ = ecx
  00000	55		 push	 ebp
  00001	8b ec		 mov	 ebp, esp
  00003	56		 push	 esi
  00004	8b f1		 mov	 esi, ecx
  00006	ff 15 00 00 00
	00		 call	 DWORD PTR __imp_??1ioHashString@@QAE@XZ
  0000c	f6 45 08 01	 test	 BYTE PTR ___flags$[ebp], 1
  00010	74 07		 je	 SHORT $LN1@scalar@3
  00012	56		 push	 esi
  00013	e8 00 00 00 00	 call	 ??3@YAXPAX@Z		; operator delete
  00018	59		 pop	 ecx
$LN1@scalar@3:
  00019	8b c6		 mov	 eax, esi
  0001b	5e		 pop	 esi
  0001c	5d		 pop	 ebp
  0001d	c2 04 00	 ret	 4
??_GBuffInfoStruct@@QAEPAXI@Z ENDP			; BuffInfoStruct::`scalar deleting destructor'
_TEXT	ENDS
PUBLIC	??$forward@AAUBuffInfoStruct@@@std@@YAAAUBuffInfoStruct@@AAU1@@Z ; std::forward<BuffInfoStruct &>
; Function compile flags: /Ogsp
; File c:\program files (x86)\microsoft visual studio 10.0\vc\include\utility
;	COMDAT ??$forward@AAUBuffInfoStruct@@@std@@YAAAUBuffInfoStruct@@AAU1@@Z
_TEXT	SEGMENT
__Arg$ = 8						; size = 4
??$forward@AAUBuffInfoStruct@@@std@@YAAAUBuffInfoStruct@@AAU1@@Z PROC ; std::forward<BuffInfoStruct &>, COMDAT

; 78   : 	{	// forward _Arg, given explicitly specified type parameter

  00000	55		 push	 ebp
  00001	8b ec		 mov	 ebp, esp

; 79   : 	return ((_Ty&&)_Arg);

  00003	8b 45 08	 mov	 eax, DWORD PTR __Arg$[ebp]

; 80   : 	}

  00006	5d		 pop	 ebp
  00007	c3		 ret	 0
??$forward@AAUBuffInfoStruct@@@std@@YAAAUBuffInfoStruct@@AAU1@@Z ENDP ; std::forward<BuffInfoStruct &>
_TEXT	ENDS
PUBLIC	??0BuffInfoStruct@@QAE@ABU0@@Z			; BuffInfoStruct::BuffInfoStruct
EXTRN	__imp_??0ioHashString@@QAE@ABV0@@Z:PROC
; Function compile flags: /Ogsp
;	COMDAT ??0BuffInfoStruct@@QAE@ABU0@@Z
_TEXT	SEGMENT
___that$ = 8						; size = 4
??0BuffInfoStruct@@QAE@ABU0@@Z PROC			; BuffInfoStruct::BuffInfoStruct, COMDAT
; _this$ = ecx
  00000	55		 push	 ebp
  00001	8b ec		 mov	 ebp, esp
  00003	56		 push	 esi
  00004	57		 push	 edi
  00005	8b 7d 08	 mov	 edi, DWORD PTR ___that$[ebp]
  00008	57		 push	 edi
  00009	8b f1		 mov	 esi, ecx
  0000b	ff 15 00 00 00
	00		 call	 DWORD PTR __imp_??0ioHashString@@QAE@ABV0@@Z
  00011	8b 47 10	 mov	 eax, DWORD PTR [edi+16]
  00014	89 46 10	 mov	 DWORD PTR [esi+16], eax
  00017	5f		 pop	 edi
  00018	8b c6		 mov	 eax, esi
  0001a	5e		 pop	 esi
  0001b	5d		 pop	 ebp
  0001c	c2 04 00	 ret	 4
??0BuffInfoStruct@@QAE@ABU0@@Z ENDP			; BuffInfoStruct::BuffInfoStruct
_TEXT	ENDS
PUBLIC	__$ArrayPad$
PUBLIC	?SetMoveDir@ioAdhesiveMissileWeapon3@@UAEXABUD3DXVECTOR3@@@Z ; ioAdhesiveMissileWeapon3::SetMoveDir
EXTRN	?SetOrientation@ioWeapon@@QAEXABUD3DXQUATERNION@@@Z:PROC ; ioWeapon::SetOrientation
EXTRN	__imp_?CalcDirectionQuaternion@ioMath@@SAXAAUD3DXQUATERNION@@ABUD3DXVECTOR3@@@Z:PROC
EXTRN	___security_cookie:DWORD
; Function compile flags: /Ogsp
; File d:\lost saga for developer\youtube\tutorial\source\src\lsclient\ioadhesivemissileweapon3.cpp
;	COMDAT ?SetMoveDir@ioAdhesiveMissileWeapon3@@UAEXABUD3DXVECTOR3@@@Z
_TEXT	SEGMENT
_qtRot$ = -32						; size = 16
$T532389 = -16						; size = 12
__$ArrayPad$ = -4					; size = 4
_vDir$ = 8						; size = 4
?SetMoveDir@ioAdhesiveMissileWeapon3@@UAEXABUD3DXVECTOR3@@@Z PROC ; ioAdhesiveMissileWeapon3::SetMoveDir, COMDAT
; _this$ = ecx

; 194  : {

  00000	55		 push	 ebp
  00001	8b ec		 mov	 ebp, esp
  00003	83 ec 20	 sub	 esp, 32			; 00000020H
  00006	a1 00 00 00 00	 mov	 eax, DWORD PTR ___security_cookie
  0000b	33 c5		 xor	 eax, ebp
  0000d	89 45 fc	 mov	 DWORD PTR __$ArrayPad$[ebp], eax
  00010	8b 45 08	 mov	 eax, DWORD PTR _vDir$[ebp]
  00013	53		 push	 ebx
  00014	56		 push	 esi
  00015	57		 push	 edi
  00016	8b d9		 mov	 ebx, ecx

; 195  : 	m_vMoveDir = vDir;

  00018	8b f0		 mov	 esi, eax
  0001a	8d bb f8 08 00
	00		 lea	 edi, DWORD PTR [ebx+2296]
  00020	a5		 movsd
  00021	a5		 movsd
  00022	a5		 movsd

; 196  : 
; 197  : 	D3DXQUATERNION qtRot;
; 198  : 	ioMath::CalcDirectionQuaternion( qtRot, -vDir );

  00023	f3 0f 10 08	 movss	 xmm1, DWORD PTR [eax]
  00027	f3 0f 10 05 00
	00 00 00	 movss	 xmm0, DWORD PTR __mask@@NegFloat@
  0002f	0f 57 c8	 xorps	 xmm1, xmm0
  00032	f3 0f 11 4d f0	 movss	 DWORD PTR $T532389[ebp], xmm1
  00037	f3 0f 10 48 04	 movss	 xmm1, DWORD PTR [eax+4]
  0003c	0f 57 c8	 xorps	 xmm1, xmm0
  0003f	f3 0f 11 4d f4	 movss	 DWORD PTR $T532389[ebp+4], xmm1
  00044	f3 0f 10 48 08	 movss	 xmm1, DWORD PTR [eax+8]
  00049	8d 45 f0	 lea	 eax, DWORD PTR $T532389[ebp]
  0004c	50		 push	 eax
  0004d	8d 45 e0	 lea	 eax, DWORD PTR _qtRot$[ebp]
  00050	0f 57 c8	 xorps	 xmm1, xmm0
  00053	50		 push	 eax
  00054	f3 0f 11 4d f8	 movss	 DWORD PTR $T532389[ebp+8], xmm1
  00059	ff 15 00 00 00
	00		 call	 DWORD PTR __imp_?CalcDirectionQuaternion@ioMath@@SAXAAUD3DXQUATERNION@@ABUD3DXVECTOR3@@@Z
  0005f	59		 pop	 ecx
  00060	59		 pop	 ecx

; 199  : 	SetOrientation( qtRot );

  00061	8d 45 e0	 lea	 eax, DWORD PTR _qtRot$[ebp]
  00064	50		 push	 eax
  00065	8b cb		 mov	 ecx, ebx
  00067	e8 00 00 00 00	 call	 ?SetOrientation@ioWeapon@@QAEXABUD3DXQUATERNION@@@Z ; ioWeapon::SetOrientation

; 200  : }

  0006c	8b 4d fc	 mov	 ecx, DWORD PTR __$ArrayPad$[ebp]
  0006f	5f		 pop	 edi
  00070	5e		 pop	 esi
  00071	33 cd		 xor	 ecx, ebp
  00073	5b		 pop	 ebx
  00074	e8 00 00 00 00	 call	 @__security_check_cookie@4
  00079	c9		 leave
  0007a	c2 04 00	 ret	 4
?SetMoveDir@ioAdhesiveMissileWeapon3@@UAEXABUD3DXVECTOR3@@@Z ENDP ; ioAdhesiveMissileWeapon3::SetMoveDir
_TEXT	ENDS
PUBLIC	__real@4f800000
PUBLIC	_this$GSCopy$
PUBLIC	__$ArrayPad$
PUBLIC	?RotateMoveDir@ioAdhesiveMissileWeapon3@@IAEXM@Z ; ioAdhesiveMissileWeapon3::RotateMoveDir
EXTRN	__imp_??D@YA?AUD3DXVECTOR3@@ABUD3DXQUATERNION@@ABU0@@Z:PROC
EXTRN	_D3DXQuaternionRotationAxis@12:PROC
;	COMDAT __real@4f800000
; File c:\program files (x86)\microsoft directx sdk (june 2010)\include\d3dx9math.inl
CONST	SEGMENT
__real@4f800000 DD 04f800000r			; 4.29497e+009
; Function compile flags: /Ogsp
; File d:\lost saga for developer\youtube\tutorial\source\src\lsclient\ioadhesivemissileweapon3.cpp
CONST	ENDS
;	COMDAT ?RotateMoveDir@ioAdhesiveMissileWeapon3@@IAEXM@Z
_TEXT	SEGMENT
tv436 = -64						; size = 4
_qtRot$ = -60						; size = 16
_this$GSCopy$ = -44					; size = 4
$T532406 = -40						; size = 12
$T532400 = -40						; size = 12
_vAxis$ = -28						; size = 12
_v$536613 = -16						; size = 12
$T532407 = -16						; size = 12
__$ArrayPad$ = -4					; size = 4
_fAngle$ = 8						; size = 4
?RotateMoveDir@ioAdhesiveMissileWeapon3@@IAEXM@Z PROC	; ioAdhesiveMissileWeapon3::RotateMoveDir, COMDAT
; _this$ = ecx

; 208  : {

  00000	55		 push	 ebp
  00001	8b ec		 mov	 ebp, esp
  00003	83 ec 40	 sub	 esp, 64			; 00000040H
  00006	a1 00 00 00 00	 mov	 eax, DWORD PTR ___security_cookie
  0000b	33 c5		 xor	 eax, ebp
  0000d	89 45 fc	 mov	 DWORD PTR __$ArrayPad$[ebp], eax
  00010	53		 push	 ebx
  00011	56		 push	 esi
  00012	8b d9		 mov	 ebx, ecx
  00014	57		 push	 edi
  00015	89 5d d4	 mov	 DWORD PTR _this$GSCopy$[ebp], ebx

; 209  : 	D3DXVECTOR3 vAxis;
; 210  : 	D3DXVec3Cross( &vAxis, &m_vMoveDir, &D3DXVECTOR3( 0.0f, -FLOAT1, 0.0f ) );

  00018	b8 01 00 00 00	 mov	 eax, 1
  0001d	89 45 c0	 mov	 DWORD PTR tv436[ebp], eax
  00020	db 45 c0	 fild	 DWORD PTR tv436[ebp]
  00023	85 c0		 test	 eax, eax
  00025	79 06		 jns	 SHORT $LN21@RotateMove
  00027	d8 05 00 00 00
	00		 fadd	 DWORD PTR __real@4f800000
$LN21@RotateMove:
  0002d	f3 0f 10 83 fc
	08 00 00	 movss	 xmm0, DWORD PTR [ebx+2300]
  00035	d9 e0		 fchs
  00037	f3 0f 10 93 00
	09 00 00	 movss	 xmm2, DWORD PTR [ebx+2304]
  0003f	d9 5d dc	 fstp	 DWORD PTR $T532400[ebp+4]
  00042	f3 0f 10 65 dc	 movss	 xmm4, DWORD PTR $T532400[ebp+4]
  00047	0f 5a c8	 cvtps2pd xmm1, xmm0
  0004a	0f 57 c0	 xorps	 xmm0, xmm0
  0004d	f2 0f 59 c8	 mulsd	 xmm1, xmm0
  00051	0f 5a da	 cvtps2pd xmm3, xmm2
  00054	81 c3 f8 08 00
	00		 add	 ebx, 2296		; 000008f8H
  0005a	0f 5a e4	 cvtps2pd xmm4, xmm4
  0005d	f2 0f 59 dc	 mulsd	 xmm3, xmm4
  00061	66 0f 28 e1	 movapd	 xmm4, xmm1
  00065	f2 0f 5c e3	 subsd	 xmm4, xmm3
  00069	0f 57 db	 xorps	 xmm3, xmm3
  0006c	f2 0f 5a dc	 cvtsd2ss xmm3, xmm4
  00070	f3 0f 11 5d f0	 movss	 DWORD PTR _v$536613[ebp], xmm3
  00075	f3 0f 10 1b	 movss	 xmm3, DWORD PTR [ebx]
  00079	0f 5a d2	 cvtps2pd xmm2, xmm2
  0007c	f2 0f 59 d0	 mulsd	 xmm2, xmm0
  00080	0f 5a e3	 cvtps2pd xmm4, xmm3
  00083	f2 0f 59 e0	 mulsd	 xmm4, xmm0
  00087	f2 0f 5c d4	 subsd	 xmm2, xmm4
  0008b	66 0f 5a c2	 cvtpd2ps xmm0, xmm2
  0008f	f3 0f 10 55 dc	 movss	 xmm2, DWORD PTR $T532400[ebp+4]
  00094	f3 0f 11 45 f4	 movss	 DWORD PTR _v$536613[ebp+4], xmm0
  00099	0f 5a d2	 cvtps2pd xmm2, xmm2
  0009c	8d 75 f0	 lea	 esi, DWORD PTR _v$536613[ebp]
  0009f	8d 7d e4	 lea	 edi, DWORD PTR _vAxis$[ebp]
  000a2	0f 5a c3	 cvtps2pd xmm0, xmm3
  000a5	f2 0f 59 c2	 mulsd	 xmm0, xmm2
  000a9	f2 0f 5c c1	 subsd	 xmm0, xmm1
  000ad	66 0f 5a c0	 cvtpd2ps xmm0, xmm0
  000b1	f3 0f 11 45 f8	 movss	 DWORD PTR _v$536613[ebp+8], xmm0

; 211  : 
; 212  : 	D3DXQUATERNION qtRot;
; 213  : 	D3DXQuaternionRotationAxis( &qtRot, &vAxis, DEGtoRAD(fAngle) );

  000b6	f3 0f 10 45 08	 movss	 xmm0, DWORD PTR _fAngle$[ebp]
  000bb	a5		 movsd
  000bc	0f 5a c0	 cvtps2pd xmm0, xmm0
  000bf	f2 0f 59 05 00
	00 00 00	 mulsd	 xmm0, QWORD PTR __real@3f91df46a2526c7a
  000c7	51		 push	 ecx
  000c8	66 0f 5a c0	 cvtpd2ps xmm0, xmm0
  000cc	f3 0f 11 04 24	 movss	 DWORD PTR [esp], xmm0
  000d1	8d 45 e4	 lea	 eax, DWORD PTR _vAxis$[ebp]
  000d4	a5		 movsd
  000d5	50		 push	 eax
  000d6	8d 45 c4	 lea	 eax, DWORD PTR _qtRot$[ebp]
  000d9	50		 push	 eax
  000da	a5		 movsd
  000db	e8 00 00 00 00	 call	 _D3DXQuaternionRotationAxis@12

; 214  : 	m_vMoveDir = qtRot * m_vMoveDir;

  000e0	53		 push	 ebx
  000e1	8d 45 c4	 lea	 eax, DWORD PTR _qtRot$[ebp]
  000e4	50		 push	 eax
  000e5	8d 45 d8	 lea	 eax, DWORD PTR $T532406[ebp]
  000e8	50		 push	 eax
  000e9	ff 15 00 00 00
	00		 call	 DWORD PTR __imp_??D@YA?AUD3DXVECTOR3@@ABUD3DXQUATERNION@@ABU0@@Z
  000ef	8b f0		 mov	 esi, eax
  000f1	8b fb		 mov	 edi, ebx
  000f3	a5		 movsd
  000f4	a5		 movsd
  000f5	a5		 movsd

; 215  : 	
; 216  : 	ioMath::CalcDirectionQuaternion( qtRot, -m_vMoveDir );

  000f6	f3 0f 10 05 00
	00 00 00	 movss	 xmm0, DWORD PTR __mask@@NegFloat@
  000fe	f3 0f 10 0b	 movss	 xmm1, DWORD PTR [ebx]
  00102	0f 57 c8	 xorps	 xmm1, xmm0
  00105	f3 0f 11 4d f0	 movss	 DWORD PTR $T532407[ebp], xmm1
  0010a	f3 0f 10 4b 04	 movss	 xmm1, DWORD PTR [ebx+4]
  0010f	0f 57 c8	 xorps	 xmm1, xmm0
  00112	8d 45 f0	 lea	 eax, DWORD PTR $T532407[ebp]
  00115	50		 push	 eax
  00116	f3 0f 11 4d f4	 movss	 DWORD PTR $T532407[ebp+4], xmm1
  0011b	f3 0f 10 4b 08	 movss	 xmm1, DWORD PTR [ebx+8]
  00120	8d 45 c4	 lea	 eax, DWORD PTR _qtRot$[ebp]
  00123	0f 57 c8	 xorps	 xmm1, xmm0
  00126	50		 push	 eax
  00127	f3 0f 11 4d f8	 movss	 DWORD PTR $T532407[ebp+8], xmm1
  0012c	ff 15 00 00 00
	00		 call	 DWORD PTR __imp_?CalcDirectionQuaternion@ioMath@@SAXAAUD3DXQUATERNION@@ABUD3DXVECTOR3@@@Z

; 217  : 	SetOrientation( qtRot );

  00132	8b 4d d4	 mov	 ecx, DWORD PTR _this$GSCopy$[ebp]
  00135	83 c4 14	 add	 esp, 20			; 00000014H
  00138	8d 45 c4	 lea	 eax, DWORD PTR _qtRot$[ebp]
  0013b	50		 push	 eax
  0013c	e8 00 00 00 00	 call	 ?SetOrientation@ioWeapon@@QAEXABUD3DXQUATERNION@@@Z ; ioWeapon::SetOrientation
  00141	5f		 pop	 edi
  00142	5e		 pop	 esi

; 218  : }

  00143	8b 4d fc	 mov	 ecx, DWORD PTR __$ArrayPad$[ebp]
  00146	33 cd		 xor	 ecx, ebp
  00148	5b		 pop	 ebx
  00149	e8 00 00 00 00	 call	 @__security_check_cookie@4
  0014e	c9		 leave
  0014f	c2 04 00	 ret	 4
?RotateMoveDir@ioAdhesiveMissileWeapon3@@IAEXM@Z ENDP	; ioAdhesiveMissileWeapon3::RotateMoveDir
_TEXT	ENDS
PUBLIC	?UpdateWorldAttackBox@ioAdhesiveMissileWeapon3@@MAEXM_N@Z ; ioAdhesiveMissileWeapon3::UpdateWorldAttackBox
EXTRN	__imp_?SetNull@ioOrientBox@@QAEXXZ:PROC
EXTRN	__imp_?Transform@ioOrientBox@@QAEXABUD3DXVECTOR3@@0ABUD3DXQUATERNION@@@Z:PROC
EXTRN	?GetScale@ioWeapon@@QBEABUD3DXVECTOR3@@XZ:PROC	; ioWeapon::GetScale
EXTRN	?GetOrientation@ioWeapon@@QBEABUD3DXQUATERNION@@XZ:PROC ; ioWeapon::GetOrientation
EXTRN	__imp_?IsNull@ioOrientBox@@QBE_NXZ:PROC
EXTRN	__imp_?SetExtents@ioOrientBox@@QAEXHM@Z:PROC
EXTRN	__imp_?GetExtents@ioOrientBox@@QBEMH@Z:PROC
; Function compile flags: /Ogsp
;	COMDAT ?UpdateWorldAttackBox@ioAdhesiveMissileWeapon3@@MAEXM_N@Z
_TEXT	SEGMENT
tv390 = -8						; size = 4
tv427 = -4						; size = 4
tv397 = -4						; size = 4
_fExtentsX$ = -4					; size = 4
_fTimePerSec$ = 8					; size = 4
tv421 = 12						; size = 4
tv384 = 12						; size = 4
_fMapCollisionRate$ = 12				; size = 4
_fExtentsY$ = 12					; size = 4
_fScaleRate$ = 12					; size = 4
_bSetNull$ = 12						; size = 1
?UpdateWorldAttackBox@ioAdhesiveMissileWeapon3@@MAEXM_N@Z PROC ; ioAdhesiveMissileWeapon3::UpdateWorldAttackBox, COMDAT
; _this$ = ecx

; 413  : {

  00000	55		 push	 ebp
  00001	8b ec		 mov	 ebp, esp
  00003	51		 push	 ecx
  00004	51		 push	 ecx
  00005	53		 push	 ebx
  00006	8b d9		 mov	 ebx, ecx

; 414  : 	if( !IsLive() || bSetNull )

  00008	80 bb 82 05 00
	00 00		 cmp	 BYTE PTR [ebx+1410], 0
  0000f	56		 push	 esi
  00010	57		 push	 edi
  00011	0f 84 84 01 00
	00		 je	 $LN2@UpdateWorl
  00017	80 7d 0c 00	 cmp	 BYTE PTR _bSetNull$[ebp], 0
  0001b	0f 85 7a 01 00
	00		 jne	 $LN2@UpdateWorl

; 418  : 		return;
; 419  : 	}
; 420  : 
; 421  : 	m_WorldAttackBox = GetLocalAttackBox();

  00021	8b 03		 mov	 eax, DWORD PTR [ebx]
  00023	ff 90 00 01 00
	00		 call	 DWORD PTR [eax+256]
  00029	6a 11		 push	 17			; 00000011H
  0002b	8d bb e8 04 00
	00		 lea	 edi, DWORD PTR [ebx+1256]
  00031	59		 pop	 ecx
  00032	8b f0		 mov	 esi, eax
  00034	f3 a5		 rep movsd

; 422  : 
; 423  : 	float fScaleRate = FLOAT1 + (GetAttribute()->m_fScaleRate * m_fCurMoveRate );

  00036	b8 01 00 00 00	 mov	 eax, 1
  0003b	8b f0		 mov	 esi, eax
  0003d	8b 03		 mov	 eax, DWORD PTR [ebx]
  0003f	8b cb		 mov	 ecx, ebx
  00041	ff 90 3c 01 00
	00		 call	 DWORD PTR [eax+316]
  00047	d9 80 ac 01 00
	00		 fld	 DWORD PTR [eax+428]
  0004d	89 75 0c	 mov	 DWORD PTR tv421[ebp], esi
  00050	d8 8b 98 09 00
	00		 fmul	 DWORD PTR [ebx+2456]
  00056	db 45 0c	 fild	 DWORD PTR tv421[ebp]
  00059	85 f6		 test	 esi, esi
  0005b	79 06		 jns	 SHORT $LN10@UpdateWorl
  0005d	d8 05 00 00 00
	00		 fadd	 DWORD PTR __real@4f800000
$LN10@UpdateWorl:
  00063	de c1		 faddp	 ST(1), ST(0)

; 424  : 	
; 425  : 	float fExtentsX = m_WorldAttackBox.GetExtents(0) * fScaleRate;

  00065	8d b3 e8 04 00
	00		 lea	 esi, DWORD PTR [ebx+1256]
  0006b	6a 00		 push	 0
  0006d	8b ce		 mov	 ecx, esi
  0006f	d9 5d 0c	 fstp	 DWORD PTR _fScaleRate$[ebp]
  00072	ff 15 00 00 00
	00		 call	 DWORD PTR __imp_?GetExtents@ioOrientBox@@QBEMH@Z
  00078	d8 4d 0c	 fmul	 DWORD PTR _fScaleRate$[ebp]

; 426  : 	float fExtentsY = m_WorldAttackBox.GetExtents(1) * fScaleRate;

  0007b	6a 01		 push	 1
  0007d	8b ce		 mov	 ecx, esi
  0007f	d9 5d fc	 fstp	 DWORD PTR _fExtentsX$[ebp]
  00082	ff 15 00 00 00
	00		 call	 DWORD PTR __imp_?GetExtents@ioOrientBox@@QBEMH@Z
  00088	d8 4d 0c	 fmul	 DWORD PTR _fScaleRate$[ebp]

; 427  : 
; 428  : 	m_WorldAttackBox.SetExtents( 0, fExtentsX );

  0008b	f3 0f 10 45 fc	 movss	 xmm0, DWORD PTR _fExtentsX$[ebp]
  00090	8b 3d 00 00 00
	00		 mov	 edi, DWORD PTR __imp_?SetExtents@ioOrientBox@@QAEXHM@Z
  00096	51		 push	 ecx
  00097	f3 0f 11 04 24	 movss	 DWORD PTR [esp], xmm0
  0009c	d9 5d 0c	 fstp	 DWORD PTR _fExtentsY$[ebp]
  0009f	6a 00		 push	 0
  000a1	8b ce		 mov	 ecx, esi
  000a3	ff d7		 call	 edi

; 429  : 	m_WorldAttackBox.SetExtents( 1, fExtentsY );

  000a5	f3 0f 10 45 0c	 movss	 xmm0, DWORD PTR _fExtentsY$[ebp]
  000aa	51		 push	 ecx
  000ab	f3 0f 11 04 24	 movss	 DWORD PTR [esp], xmm0
  000b0	6a 01		 push	 1
  000b2	8b ce		 mov	 ecx, esi
  000b4	ff d7		 call	 edi

; 430  : 
; 431  : 	float fMapCollisionRate = GetAttribute()->m_fMapCollisionBoxRate;

  000b6	8b 03		 mov	 eax, DWORD PTR [ebx]
  000b8	8b cb		 mov	 ecx, ebx
  000ba	ff 90 3c 01 00
	00		 call	 DWORD PTR [eax+316]
  000c0	d9 80 a8 01 00
	00		 fld	 DWORD PTR [eax+424]

; 432  : 	
; 433  : 	m_WorldAttackBoxForMap = m_WorldAttackBox;

  000c6	6a 11		 push	 17			; 00000011H
  000c8	d9 5d 0c	 fstp	 DWORD PTR _fMapCollisionRate$[ebp]
  000cb	59		 pop	 ecx
  000cc	8d bb 2c 05 00
	00		 lea	 edi, DWORD PTR [ebx+1324]
  000d2	f3 a5		 rep movsd

; 434  : 	m_WorldAttackBoxForMap.SetExtents( 0, m_WorldAttackBox.GetExtents(0)*fMapCollisionRate );

  000d4	6a 00		 push	 0
  000d6	8d 8b e8 04 00
	00		 lea	 ecx, DWORD PTR [ebx+1256]
  000dc	ff 15 00 00 00
	00		 call	 DWORD PTR __imp_?GetExtents@ioOrientBox@@QBEMH@Z
  000e2	8b 35 00 00 00
	00		 mov	 esi, DWORD PTR __imp_?SetExtents@ioOrientBox@@QAEXHM@Z
  000e8	d8 4d 0c	 fmul	 DWORD PTR _fMapCollisionRate$[ebp]
  000eb	51		 push	 ecx
  000ec	8d 8b 2c 05 00
	00		 lea	 ecx, DWORD PTR [ebx+1324]
  000f2	d9 5d fc	 fstp	 DWORD PTR tv397[ebp]
  000f5	d9 45 fc	 fld	 DWORD PTR tv397[ebp]
  000f8	89 4d fc	 mov	 DWORD PTR tv427[ebp], ecx
  000fb	d9 1c 24	 fstp	 DWORD PTR [esp]
  000fe	6a 00		 push	 0
  00100	ff d6		 call	 esi

; 435  : 	m_WorldAttackBoxForMap.SetExtents( 1, m_WorldAttackBox.GetExtents(1)*fMapCollisionRate );

  00102	6a 01		 push	 1
  00104	8d 8b e8 04 00
	00		 lea	 ecx, DWORD PTR [ebx+1256]
  0010a	ff 15 00 00 00
	00		 call	 DWORD PTR __imp_?GetExtents@ioOrientBox@@QBEMH@Z
  00110	d8 4d 0c	 fmul	 DWORD PTR _fMapCollisionRate$[ebp]
  00113	51		 push	 ecx
  00114	8b 4d fc	 mov	 ecx, DWORD PTR tv427[ebp]
  00117	d9 5d f8	 fstp	 DWORD PTR tv390[ebp]
  0011a	d9 45 f8	 fld	 DWORD PTR tv390[ebp]
  0011d	d9 1c 24	 fstp	 DWORD PTR [esp]
  00120	6a 01		 push	 1
  00122	ff d6		 call	 esi

; 436  : 	m_WorldAttackBoxForMap.SetExtents( 2, m_WorldAttackBox.GetExtents(2)*fMapCollisionRate );

  00124	6a 02		 push	 2
  00126	8d 8b e8 04 00
	00		 lea	 ecx, DWORD PTR [ebx+1256]
  0012c	ff 15 00 00 00
	00		 call	 DWORD PTR __imp_?GetExtents@ioOrientBox@@QBEMH@Z
  00132	d8 4d 0c	 fmul	 DWORD PTR _fMapCollisionRate$[ebp]
  00135	51		 push	 ecx
  00136	8b 4d fc	 mov	 ecx, DWORD PTR tv427[ebp]
  00139	d9 5d 0c	 fstp	 DWORD PTR tv384[ebp]
  0013c	d9 45 0c	 fld	 DWORD PTR tv384[ebp]
  0013f	d9 1c 24	 fstp	 DWORD PTR [esp]
  00142	6a 02		 push	 2
  00144	ff d6		 call	 esi

; 437  : 
; 438  : 	if( !m_WorldAttackBox.IsNull() )

  00146	8d 8b e8 04 00
	00		 lea	 ecx, DWORD PTR [ebx+1256]
  0014c	ff 15 00 00 00
	00		 call	 DWORD PTR __imp_?IsNull@ioOrientBox@@QBE_NXZ
  00152	84 c0		 test	 al, al
  00154	75 5b		 jne	 SHORT $LN1@UpdateWorl

; 439  : 	{
; 440  : 		m_WorldAttackBox.Transform( GetPosition(), GetScale(), GetOrientation() );

  00156	8b cb		 mov	 ecx, ebx
  00158	e8 00 00 00 00	 call	 ?GetOrientation@ioWeapon@@QBEABUD3DXQUATERNION@@XZ ; ioWeapon::GetOrientation
  0015d	50		 push	 eax
  0015e	8b cb		 mov	 ecx, ebx
  00160	e8 00 00 00 00	 call	 ?GetScale@ioWeapon@@QBEABUD3DXVECTOR3@@XZ ; ioWeapon::GetScale
  00165	50		 push	 eax
  00166	8b 03		 mov	 eax, DWORD PTR [ebx]
  00168	8b cb		 mov	 ecx, ebx
  0016a	ff 50 70	 call	 DWORD PTR [eax+112]
  0016d	8b 35 00 00 00
	00		 mov	 esi, DWORD PTR __imp_?Transform@ioOrientBox@@QAEXABUD3DXVECTOR3@@0ABUD3DXQUATERNION@@@Z
  00173	50		 push	 eax
  00174	8d 8b e8 04 00
	00		 lea	 ecx, DWORD PTR [ebx+1256]
  0017a	ff d6		 call	 esi

; 441  : 		m_WorldAttackBoxForMap.Transform( GetPosition(), GetScale(), GetOrientation() );

  0017c	8b cb		 mov	 ecx, ebx
  0017e	e8 00 00 00 00	 call	 ?GetOrientation@ioWeapon@@QBEABUD3DXQUATERNION@@XZ ; ioWeapon::GetOrientation
  00183	50		 push	 eax
  00184	8b cb		 mov	 ecx, ebx
  00186	e8 00 00 00 00	 call	 ?GetScale@ioWeapon@@QBEABUD3DXVECTOR3@@XZ ; ioWeapon::GetScale
  0018b	50		 push	 eax
  0018c	8b 03		 mov	 eax, DWORD PTR [ebx]
  0018e	8b cb		 mov	 ecx, ebx
  00190	ff 50 70	 call	 DWORD PTR [eax+112]
  00193	8b 4d fc	 mov	 ecx, DWORD PTR tv427[ebp]
  00196	50		 push	 eax
  00197	ff d6		 call	 esi
  00199	eb 16		 jmp	 SHORT $LN1@UpdateWorl
$LN2@UpdateWorl:

; 415  : 	{
; 416  : 		m_WorldAttackBox.SetNull();

  0019b	8b 35 00 00 00
	00		 mov	 esi, DWORD PTR __imp_?SetNull@ioOrientBox@@QAEXXZ
  001a1	8d 8b e8 04 00
	00		 lea	 ecx, DWORD PTR [ebx+1256]
  001a7	ff d6		 call	 esi

; 417  : 		m_WorldAttackBoxForMap.SetNull();

  001a9	8d 8b 2c 05 00
	00		 lea	 ecx, DWORD PTR [ebx+1324]
  001af	ff d6		 call	 esi
$LN1@UpdateWorl:
  001b1	5f		 pop	 edi
  001b2	5e		 pop	 esi
  001b3	5b		 pop	 ebx

; 442  : 	}
; 443  : 
; 444  : }

  001b4	c9		 leave
  001b5	c2 08 00	 ret	 8
?UpdateWorldAttackBox@ioAdhesiveMissileWeapon3@@MAEXM_N@Z ENDP ; ioAdhesiveMissileWeapon3::UpdateWorldAttackBox
_TEXT	ENDS
PUBLIC	_bMapCollision$GSCopy$
PUBLIC	__$ArrayPad$
PUBLIC	?IsCollision@ioAdhesiveMissileWeapon3@@UAE_NPAVioPlayEntity@@_N@Z ; ioAdhesiveMissileWeapon3::IsCollision
EXTRN	?GetWorldAttackBox@ioWeapon@@QBEABVioOrientBox@@_N@Z:PROC ; ioWeapon::GetWorldAttackBox
; Function compile flags: /Ogsp
;	COMDAT ?IsCollision@ioAdhesiveMissileWeapon3@@UAE_NPAVioPlayEntity@@_N@Z
_TEXT	SEGMENT
_bMapCollision$GSCopy$ = -24				; size = 1
_bCollision$ = -20					; size = 1
_vColPoint$ = -16					; size = 12
__$ArrayPad$ = -4					; size = 4
_pEntity$ = 8						; size = 4
_bMapCollision$ = 12					; size = 1
?IsCollision@ioAdhesiveMissileWeapon3@@UAE_NPAVioPlayEntity@@_N@Z PROC ; ioAdhesiveMissileWeapon3::IsCollision, COMDAT
; _this$ = ecx

; 478  : {

  00000	55		 push	 ebp
  00001	8b ec		 mov	 ebp, esp
  00003	83 ec 18	 sub	 esp, 24			; 00000018H
  00006	a1 00 00 00 00	 mov	 eax, DWORD PTR ___security_cookie
  0000b	33 c5		 xor	 eax, ebp
  0000d	89 45 fc	 mov	 DWORD PTR __$ArrayPad$[ebp], eax

; 479  : 	bool bCollision = false;
; 480  : 
; 481  : 	D3DXVECTOR3 vColPoint( 0.0f, 0.0f, 0.0f );
; 482  : 	if( pEntity->IsWoundedCollision( GetWorldAttackBox(bMapCollision), &vColPoint ) )

  00010	8a 45 0c	 mov	 al, BYTE PTR _bMapCollision$[ebp]
  00013	0f 57 c0	 xorps	 xmm0, xmm0
  00016	53		 push	 ebx
  00017	56		 push	 esi
  00018	8b 75 08	 mov	 esi, DWORD PTR _pEntity$[ebp]
  0001b	57		 push	 edi
  0001c	8b 3e		 mov	 edi, DWORD PTR [esi]
  0001e	88 45 e8	 mov	 BYTE PTR _bMapCollision$GSCopy$[ebp], al
  00021	8d 45 f0	 lea	 eax, DWORD PTR _vColPoint$[ebp]
  00024	50		 push	 eax
  00025	ff 75 e8	 push	 DWORD PTR _bMapCollision$GSCopy$[ebp]
  00028	8b d9		 mov	 ebx, ecx
  0002a	c6 45 ec 00	 mov	 BYTE PTR _bCollision$[ebp], 0
  0002e	f3 0f 11 45 f0	 movss	 DWORD PTR _vColPoint$[ebp], xmm0
  00033	f3 0f 11 45 f4	 movss	 DWORD PTR _vColPoint$[ebp+4], xmm0
  00038	f3 0f 11 45 f8	 movss	 DWORD PTR _vColPoint$[ebp+8], xmm0
  0003d	e8 00 00 00 00	 call	 ?GetWorldAttackBox@ioWeapon@@QBEABVioOrientBox@@_N@Z ; ioWeapon::GetWorldAttackBox
  00042	50		 push	 eax
  00043	8b ce		 mov	 ecx, esi
  00045	ff 97 90 00 00
	00		 call	 DWORD PTR [edi+144]
  0004b	84 c0		 test	 al, al
  0004d	74 04		 je	 SHORT $LN1@IsCollisio

; 483  : 		bCollision = true;

  0004f	c6 45 ec 01	 mov	 BYTE PTR _bCollision$[ebp], 1
$LN1@IsCollisio:

; 484  : 
; 485  : 	CheckPiercing( bCollision );

  00053	ff 75 ec	 push	 DWORD PTR _bCollision$[ebp]
  00056	8b 03		 mov	 eax, DWORD PTR [ebx]
  00058	8b cb		 mov	 ecx, ebx
  0005a	ff 90 48 01 00
	00		 call	 DWORD PTR [eax+328]

; 486  : 
; 487  : 	return bCollision;
; 488  : }

  00060	8b 4d fc	 mov	 ecx, DWORD PTR __$ArrayPad$[ebp]
  00063	8a 45 ec	 mov	 al, BYTE PTR _bCollision$[ebp]
  00066	5f		 pop	 edi
  00067	5e		 pop	 esi
  00068	33 cd		 xor	 ecx, ebp
  0006a	5b		 pop	 ebx
  0006b	e8 00 00 00 00	 call	 @__security_check_cookie@4
  00070	c9		 leave
  00071	c2 08 00	 ret	 8
?IsCollision@ioAdhesiveMissileWeapon3@@UAE_NPAVioPlayEntity@@_N@Z ENDP ; ioAdhesiveMissileWeapon3::IsCollision
_TEXT	ENDS
PUBLIC	__real@bff0000000000000
PUBLIC	__real@bf800000
PUBLIC	__$ArrayPad$
PUBLIC	?CallAttribute@ioAdhesiveMissileWeapon3@@IAEXXZ	; ioAdhesiveMissileWeapon3::CallAttribute
EXTRN	?SetReserveCallWeaponInfo@ioWeaponManager@@QAEXABVioHashString@@ABUWeaponInfo@@ABUD3DXVECTOR3@@2KK_N@Z:PROC ; ioWeaponManager::SetReserveCallWeaponInfo
EXTRN	?GetSingleton@ioWeaponManager@@SAAAV1@XZ:PROC	; ioWeaponManager::GetSingleton
EXTRN	__imp_?UNIT_Y@ioMath@@2UD3DXVECTOR3@@A:BYTE
EXTRN	?MoveOffset@ioPlayEntityHelp@@YAXABUD3DXVECTOR3@@ABUD3DXQUATERNION@@AAU2@@Z:PROC ; ioPlayEntityHelp::MoveOffset
EXTRN	__imp_?ArrangeHead@ioMath@@SAMM@Z:PROC
EXTRN	_D3DXVec3Normalize@8:PROC
EXTRN	__imp_?GetLoopSec@ioFrameTimer@@QBEKXZ:PROC
EXTRN	__imp_?GetSingleton@ioFrameTimer@@SAAAV1@XZ:PROC
;	COMDAT __real@bff0000000000000
; File d:\lost saga for developer\youtube\tutorial\source\src\lsclient\ioweapon.h
CONST	SEGMENT
__real@bff0000000000000 DQ 0bff0000000000000r	; -1
CONST	ENDS
;	COMDAT __real@bf800000
CONST	SEGMENT
__real@bf800000 DD 0bf800000r			; -1
; Function compile flags: /Ogsp
; File d:\lost saga for developer\youtube\tutorial\source\src\lsclient\ioadhesivemissileweapon3.cpp
CONST	ENDS
;	COMDAT ?CallAttribute@ioAdhesiveMissileWeapon3@@IAEXXZ
_TEXT	SEGMENT
_qtRot$532621 = -140					; size = 16
_v$536709 = -124					; size = 12
tv532 = -112						; size = 4
tv620 = -108						; size = 4
_fAngleV$532619 = -108					; size = 4
_dwCurGenerateTime$ = -104				; size = 4
_i$532611 = -100					; size = 4
tv602 = -96						; size = 4
_fAngleH$532618 = -96					; size = 4
tv683 = -92						; size = 4
$T532625 = -88						; size = 12
$T532624 = -76						; size = 12
_vAxis$532622 = -64					; size = 12
_vPos$532620 = -52					; size = 12
$T532626 = -40						; size = 12
$T532616 = -28						; size = 12
_vDir$532615 = -16					; size = 12
__$ArrayPad$ = -4					; size = 4
?CallAttribute@ioAdhesiveMissileWeapon3@@IAEXXZ PROC	; ioAdhesiveMissileWeapon3::CallAttribute, COMDAT
; _this$ = ecx

; 583  : {	

  00000	55		 push	 ebp
  00001	8b ec		 mov	 ebp, esp
  00003	81 ec 8c 00 00
	00		 sub	 esp, 140		; 0000008cH
  00009	a1 00 00 00 00	 mov	 eax, DWORD PTR ___security_cookie
  0000e	33 c5		 xor	 eax, ebp
  00010	89 45 fc	 mov	 DWORD PTR __$ArrayPad$[ebp], eax
  00013	53		 push	 ebx
  00014	57		 push	 edi
  00015	8b d9		 mov	 ebx, ecx

; 584  : 	if( m_bArleadyCallWeapon )

  00017	33 ff		 xor	 edi, edi
  00019	39 bb f0 09 00
	00		 cmp	 DWORD PTR [ebx+2544], edi
  0001f	0f 85 8e 02 00
	00		 jne	 $LN7@CallAttrib

; 585  : 		return;
; 586  : 
; 587  : 	if( m_CallAttFireList.empty() )

  00025	8b 83 dc 09 00
	00		 mov	 eax, DWORD PTR [ebx+2524]
  0002b	3b 83 e0 09 00
	00		 cmp	 eax, DWORD PTR [ebx+2528]
  00031	0f 84 7c 02 00
	00		 je	 $LN7@CallAttrib

; 588  : 		return;
; 589  : 
; 590  : 	ioBaseChar *pOwner = GetOwner();

  00037	56		 push	 esi
  00038	e8 00 00 00 00	 call	 ?GetOwner@ioWeapon@@QBEPAVioBaseChar@@XZ ; ioWeapon::GetOwner
  0003d	8b f0		 mov	 esi, eax

; 591  : 	if( !pOwner )	return;	

  0003f	3b f7		 cmp	 esi, edi
  00041	0f 84 6b 02 00
	00		 je	 $LN48@CallAttrib

; 592  : 
; 593  : 	DWORD dwCurTime = FRAMEGETTIME();

  00047	ff 15 00 00 00
	00		 call	 DWORD PTR __imp_?GetSingleton@ioFrameTimer@@SAAAV1@XZ
  0004d	8b c8		 mov	 ecx, eax
  0004f	ff 15 00 00 00
	00		 call	 DWORD PTR __imp_?GetLoopSec@ioFrameTimer@@QBEKXZ

; 594  : 	DWORD dwCurGenerateTime = dwCurTime;

  00055	89 45 98	 mov	 DWORD PTR _dwCurGenerateTime$[ebp], eax

; 595  : 
; 596  : 	for( ChangeDirInfoList::size_type i = 0; i < m_CallAttFireList.size(); ++i )

  00058	8b 83 e0 09 00
	00		 mov	 eax, DWORD PTR [ebx+2528]
  0005e	2b 83 dc 09 00
	00		 sub	 eax, DWORD PTR [ebx+2524]
  00064	6a 1c		 push	 28			; 0000001cH
  00066	99		 cdq
  00067	59		 pop	 ecx
  00068	f7 f9		 idiv	 ecx
  0006a	89 7d 9c	 mov	 DWORD PTR _i$532611[ebp], edi
  0006d	85 c0		 test	 eax, eax
  0006f	0f 84 33 02 00
	00		 je	 $LN1@CallAttrib
  00075	81 c6 a4 06 00
	00		 add	 esi, 1700		; 000006a4H
  0007b	89 75 90	 mov	 DWORD PTR tv532[ebp], esi
  0007e	89 7d a4	 mov	 DWORD PTR tv683[ebp], edi
$LL47@CallAttrib:

; 597  : 	{
; 598  : 		D3DXVECTOR3 vDir = pOwner->GetTargetRot() * D3DXVECTOR3( 0.0f, 0.0f, -1.0f );

  00081	0f 57 c0	 xorps	 xmm0, xmm0
  00084	8d 45 e4	 lea	 eax, DWORD PTR $T532616[ebp]
  00087	50		 push	 eax
  00088	ff 75 90	 push	 DWORD PTR tv532[ebp]
  0008b	8d 45 f0	 lea	 eax, DWORD PTR _vDir$532615[ebp]
  0008e	f3 0f 11 45 e4	 movss	 DWORD PTR $T532616[ebp], xmm0
  00093	f3 0f 11 45 e8	 movss	 DWORD PTR $T532616[ebp+4], xmm0
  00098	f3 0f 10 05 00
	00 00 00	 movss	 xmm0, DWORD PTR __real@bf800000
  000a0	50		 push	 eax
  000a1	f3 0f 11 45 ec	 movss	 DWORD PTR $T532616[ebp+8], xmm0
  000a6	ff 15 00 00 00
	00		 call	 DWORD PTR __imp_??D@YA?AUD3DXVECTOR3@@ABUD3DXQUATERNION@@ABU0@@Z
  000ac	83 c4 0c	 add	 esp, 12			; 0000000cH

; 599  : 		D3DXVec3Normalize(&vDir, &vDir);

  000af	8d 45 f0	 lea	 eax, DWORD PTR _vDir$532615[ebp]
  000b2	50		 push	 eax
  000b3	50		 push	 eax
  000b4	e8 00 00 00 00	 call	 _D3DXVec3Normalize@8

; 600  : 		float fAngleH = ioMath::ArrangeHead( m_CallAttFireList[i].m_fChangeAngleH );

  000b9	8b 83 dc 09 00
	00		 mov	 eax, DWORD PTR [ebx+2524]
  000bf	03 45 a4	 add	 eax, DWORD PTR tv683[ebp]
  000c2	51		 push	 ecx
  000c3	f3 0f 10 40 08	 movss	 xmm0, DWORD PTR [eax+8]
  000c8	f3 0f 11 04 24	 movss	 DWORD PTR [esp], xmm0
  000cd	ff 15 00 00 00
	00		 call	 DWORD PTR __imp_?ArrangeHead@ioMath@@SAMM@Z
  000d3	d9 5d a0	 fstp	 DWORD PTR _fAngleH$532618[ebp]

; 601  : 		float fAngleV = ioMath::ArrangeHead( m_CallAttFireList[i].m_fChangeAngleV );

  000d6	8b 83 dc 09 00
	00		 mov	 eax, DWORD PTR [ebx+2524]
  000dc	03 45 a4	 add	 eax, DWORD PTR tv683[ebp]
  000df	f3 0f 10 40 0c	 movss	 xmm0, DWORD PTR [eax+12]
  000e4	f3 0f 11 04 24	 movss	 DWORD PTR [esp], xmm0
  000e9	ff 15 00 00 00
	00		 call	 DWORD PTR __imp_?ArrangeHead@ioMath@@SAMM@Z
  000ef	d9 5d 94	 fstp	 DWORD PTR _fAngleV$532619[ebp]

; 602  : 
; 603  : 		//Offset
; 604  : 		D3DXVECTOR3	vPos = GetPosition();

  000f2	8b 03		 mov	 eax, DWORD PTR [ebx]
  000f4	59		 pop	 ecx
  000f5	8b cb		 mov	 ecx, ebx
  000f7	ff 50 70	 call	 DWORD PTR [eax+112]

; 605  : 		ioPlayEntityHelp::MoveOffset( m_CallAttFireList[i].m_vFireOffset, pOwner->GetTargetRot(), vPos );

  000fa	8b 4d a4	 mov	 ecx, DWORD PTR tv683[ebp]
  000fd	8b f0		 mov	 esi, eax
  000ff	8d 7d cc	 lea	 edi, DWORD PTR _vPos$532620[ebp]
  00102	a5		 movsd
  00103	8d 45 cc	 lea	 eax, DWORD PTR _vPos$532620[ebp]
  00106	50		 push	 eax
  00107	8b 83 dc 09 00
	00		 mov	 eax, DWORD PTR [ebx+2524]
  0010d	ff 75 90	 push	 DWORD PTR tv532[ebp]
  00110	a5		 movsd
  00111	8d 44 01 10	 lea	 eax, DWORD PTR [ecx+eax+16]
  00115	50		 push	 eax
  00116	a5		 movsd
  00117	e8 00 00 00 00	 call	 ?MoveOffset@ioPlayEntityHelp@@YAXABUD3DXVECTOR3@@ABUD3DXQUATERNION@@AAU2@@Z ; ioPlayEntityHelp::MoveOffset

; 606  : 
; 607  : 		D3DXQUATERNION qtRot;
; 608  : 		D3DXVECTOR3 vAxis;
; 609  : 		D3DXVec3Cross( &vAxis, &vDir, &D3DXVECTOR3( 0.0f, -1.0f, 0.0f ) );

  0011c	0f 57 c9	 xorps	 xmm1, xmm1
  0011f	f3 0f 10 45 f4	 movss	 xmm0, DWORD PTR _vDir$532615[ebp+4]

; 610  : 
; 611  : 		// vertical
; 612  : 		D3DXQuaternionRotationAxis( &qtRot, &vAxis, DEGtoRAD(fAngleV) );

  00124	d9 45 94	 fld	 DWORD PTR _fAngleV$532619[ebp]
  00127	f3 0f 10 5d f8	 movss	 xmm3, DWORD PTR _vDir$532615[ebp+8]
  0012c	0f 5a db	 cvtps2pd xmm3, xmm3
  0012f	f2 0f 59 1d 00
	00 00 00	 mulsd	 xmm3, QWORD PTR __real@bff0000000000000
  00137	0f 5a c0	 cvtps2pd xmm0, xmm0
  0013a	f2 0f 59 c1	 mulsd	 xmm0, xmm1
  0013e	66 0f 28 e0	 movapd	 xmm4, xmm0
  00142	f2 0f 5c e3	 subsd	 xmm4, xmm3
  00146	0f 57 db	 xorps	 xmm3, xmm3
  00149	f2 0f 5a dc	 cvtsd2ss xmm3, xmm4
  0014d	f3 0f 10 65 f0	 movss	 xmm4, DWORD PTR _vDir$532615[ebp]
  00152	f3 0f 11 5d 84	 movss	 DWORD PTR _v$536709[ebp], xmm3
  00157	f3 0f 10 5d f8	 movss	 xmm3, DWORD PTR _vDir$532615[ebp+8]
  0015c	0f 5a db	 cvtps2pd xmm3, xmm3
  0015f	f2 0f 59 d9	 mulsd	 xmm3, xmm1
  00163	0f 5a e4	 cvtps2pd xmm4, xmm4
  00166	f2 0f 59 e1	 mulsd	 xmm4, xmm1
  0016a	0f 57 c9	 xorps	 xmm1, xmm1
  0016d	f2 0f 5c dc	 subsd	 xmm3, xmm4
  00171	f2 0f 5a cb	 cvtsd2ss xmm1, xmm3
  00175	f3 0f 11 4d 88	 movss	 DWORD PTR _v$536709[ebp+4], xmm1
  0017a	f3 0f 10 4d f0	 movss	 xmm1, DWORD PTR _vDir$532615[ebp]
  0017f	0f 5a c9	 cvtps2pd xmm1, xmm1
  00182	f2 0f 59 0d 00
	00 00 00	 mulsd	 xmm1, QWORD PTR __real@bff0000000000000
  0018a	f2 0f 5c c8	 subsd	 xmm1, xmm0
  0018e	0f 57 c0	 xorps	 xmm0, xmm0
  00191	f2 0f 5a c1	 cvtsd2ss xmm0, xmm1
  00195	f3 0f 11 45 8c	 movss	 DWORD PTR _v$536709[ebp+8], xmm0
  0019a	8d 75 84	 lea	 esi, DWORD PTR _v$536709[ebp]
  0019d	8d 7d c0	 lea	 edi, DWORD PTR _vAxis$532622[ebp]
  001a0	a5		 movsd
  001a1	a5		 movsd
  001a2	a5		 movsd
  001a3	dc 0d 00 00 00
	00		 fmul	 QWORD PTR __real@3f91df46a2526c7a
  001a9	83 c4 08	 add	 esp, 8
  001ac	8d 45 c0	 lea	 eax, DWORD PTR _vAxis$532622[ebp]
  001af	d9 5d 94	 fstp	 DWORD PTR tv620[ebp]
  001b2	d9 45 94	 fld	 DWORD PTR tv620[ebp]
  001b5	d9 1c 24	 fstp	 DWORD PTR [esp]
  001b8	50		 push	 eax
  001b9	8d 85 74 ff ff
	ff		 lea	 eax, DWORD PTR _qtRot$532621[ebp]
  001bf	50		 push	 eax
  001c0	e8 00 00 00 00	 call	 _D3DXQuaternionRotationAxis@12

; 613  : 		vDir = qtRot * vDir;

  001c5	8d 45 f0	 lea	 eax, DWORD PTR _vDir$532615[ebp]
  001c8	50		 push	 eax
  001c9	8d 85 74 ff ff
	ff		 lea	 eax, DWORD PTR _qtRot$532621[ebp]
  001cf	50		 push	 eax
  001d0	8d 45 b4	 lea	 eax, DWORD PTR $T532624[ebp]
  001d3	50		 push	 eax
  001d4	ff 15 00 00 00
	00		 call	 DWORD PTR __imp_??D@YA?AUD3DXVECTOR3@@ABUD3DXQUATERNION@@ABU0@@Z

; 614  : 
; 615  : 		// horizon
; 616  : 		D3DXQuaternionRotationAxis( &qtRot, &ioMath::UNIT_Y, DEGtoRAD(fAngleH) );

  001da	d9 45 a0	 fld	 DWORD PTR _fAngleH$532618[ebp]
  001dd	dc 0d 00 00 00
	00		 fmul	 QWORD PTR __real@3f91df46a2526c7a
  001e3	8b f0		 mov	 esi, eax
  001e5	8d 7d f0	 lea	 edi, DWORD PTR _vDir$532615[ebp]
  001e8	a5		 movsd
  001e9	d9 5d a0	 fstp	 DWORD PTR tv602[ebp]
  001ec	d9 45 a0	 fld	 DWORD PTR tv602[ebp]
  001ef	83 c4 08	 add	 esp, 8
  001f2	a5		 movsd
  001f3	d9 1c 24	 fstp	 DWORD PTR [esp]
  001f6	ff 35 00 00 00
	00		 push	 DWORD PTR __imp_?UNIT_Y@ioMath@@2UD3DXVECTOR3@@A
  001fc	8d 85 74 ff ff
	ff		 lea	 eax, DWORD PTR _qtRot$532621[ebp]
  00202	50		 push	 eax
  00203	a5		 movsd
  00204	e8 00 00 00 00	 call	 _D3DXQuaternionRotationAxis@12

; 617  : 		vDir = qtRot * vDir;

  00209	8d 45 f0	 lea	 eax, DWORD PTR _vDir$532615[ebp]
  0020c	50		 push	 eax
  0020d	8d 85 74 ff ff
	ff		 lea	 eax, DWORD PTR _qtRot$532621[ebp]
  00213	50		 push	 eax
  00214	8d 45 a8	 lea	 eax, DWORD PTR $T532625[ebp]
  00217	50		 push	 eax
  00218	ff 15 00 00 00
	00		 call	 DWORD PTR __imp_??D@YA?AUD3DXVECTOR3@@ABUD3DXQUATERNION@@ABU0@@Z

; 618  : 
; 619  : 		g_WeaponMgr.SetReserveCallWeaponInfo( GetOwnerName(), 
; 620  : 			m_CallWeaponInfo,
; 621  : 			vPos,
; 622  : 			-vDir,											
; 623  : 			dwCurGenerateTime,
; 624  : 			m_dwWeaponIdx );

  0021e	f3 0f 10 05 00
	00 00 00	 movss	 xmm0, DWORD PTR __mask@@NegFloat@
  00226	83 c4 0c	 add	 esp, 12			; 0000000cH
  00229	8b f0		 mov	 esi, eax
  0022b	6a 00		 push	 0
  0022d	ff b3 b8 04 00
	00		 push	 DWORD PTR [ebx+1208]
  00233	8d 7d f0	 lea	 edi, DWORD PTR _vDir$532615[ebp]
  00236	ff 75 98	 push	 DWORD PTR _dwCurGenerateTime$[ebp]
  00239	a5		 movsd
  0023a	a5		 movsd
  0023b	8d 45 d8	 lea	 eax, DWORD PTR $T532626[ebp]
  0023e	50		 push	 eax
  0023f	a5		 movsd
  00240	f3 0f 10 4d f0	 movss	 xmm1, DWORD PTR _vDir$532615[ebp]
  00245	0f 57 c8	 xorps	 xmm1, xmm0
  00248	f3 0f 11 4d d8	 movss	 DWORD PTR $T532626[ebp], xmm1
  0024d	f3 0f 10 4d f4	 movss	 xmm1, DWORD PTR _vDir$532615[ebp+4]
  00252	8d 45 cc	 lea	 eax, DWORD PTR _vPos$532620[ebp]
  00255	50		 push	 eax
  00256	0f 57 c8	 xorps	 xmm1, xmm0
  00259	8d 83 b4 09 00
	00		 lea	 eax, DWORD PTR [ebx+2484]
  0025f	50		 push	 eax
  00260	f3 0f 11 4d dc	 movss	 DWORD PTR $T532626[ebp+4], xmm1
  00265	f3 0f 10 4d f8	 movss	 xmm1, DWORD PTR _vDir$532615[ebp+8]
  0026a	8d 43 10	 lea	 eax, DWORD PTR [ebx+16]
  0026d	0f 57 c8	 xorps	 xmm1, xmm0
  00270	50		 push	 eax
  00271	f3 0f 11 4d e0	 movss	 DWORD PTR $T532626[ebp+8], xmm1
  00276	e8 00 00 00 00	 call	 ?GetSingleton@ioWeaponManager@@SAAAV1@XZ ; ioWeaponManager::GetSingleton
  0027b	8b c8		 mov	 ecx, eax
  0027d	e8 00 00 00 00	 call	 ?SetReserveCallWeaponInfo@ioWeaponManager@@QAEXABVioHashString@@ABUWeaponInfo@@ABUD3DXVECTOR3@@2KK_N@Z ; ioWeaponManager::SetReserveCallWeaponInfo
  00282	8b 83 e0 09 00
	00		 mov	 eax, DWORD PTR [ebx+2528]
  00288	2b 83 dc 09 00
	00		 sub	 eax, DWORD PTR [ebx+2524]
  0028e	6a 1c		 push	 28			; 0000001cH
  00290	99		 cdq
  00291	59		 pop	 ecx
  00292	f7 f9		 idiv	 ecx

; 625  : 
; 626  : 		dwCurGenerateTime += 10;

  00294	83 45 98 0a	 add	 DWORD PTR _dwCurGenerateTime$[ebp], 10 ; 0000000aH
  00298	ff 45 9c	 inc	 DWORD PTR _i$532611[ebp]
  0029b	83 45 a4 1c	 add	 DWORD PTR tv683[ebp], 28 ; 0000001cH
  0029f	39 45 9c	 cmp	 DWORD PTR _i$532611[ebp], eax
  002a2	0f 82 d9 fd ff
	ff		 jb	 $LL47@CallAttrib
$LN1@CallAttrib:

; 627  : 	}
; 628  : 
; 629  : 	m_bArleadyCallWeapon = true;

  002a8	c7 83 f0 09 00
	00 01 00 00 00	 mov	 DWORD PTR [ebx+2544], 1
$LN48@CallAttrib:
  002b2	5e		 pop	 esi
$LN7@CallAttrib:

; 630  : 
; 631  : }

  002b3	8b 4d fc	 mov	 ecx, DWORD PTR __$ArrayPad$[ebp]
  002b6	5f		 pop	 edi
  002b7	33 cd		 xor	 ecx, ebp
  002b9	5b		 pop	 ebx
  002ba	e8 00 00 00 00	 call	 @__security_check_cookie@4
  002bf	c9		 leave
  002c0	c3		 ret	 0
?CallAttribute@ioAdhesiveMissileWeapon3@@IAEXXZ ENDP	; ioAdhesiveMissileWeapon3::CallAttribute
_TEXT	ENDS
PUBLIC	?max_size@?$vector@UChangeDirInfo@@V?$allocator@UChangeDirInfo@@@std@@@std@@QBEIXZ ; std::vector<ChangeDirInfo,std::allocator<ChangeDirInfo> >::max_size
; Function compile flags: /Ogsp
; File c:\program files (x86)\microsoft visual studio 10.0\vc\include\vector
;	COMDAT ?max_size@?$vector@UChangeDirInfo@@V?$allocator@UChangeDirInfo@@@std@@@std@@QBEIXZ
_TEXT	SEGMENT
?max_size@?$vector@UChangeDirInfo@@V?$allocator@UChangeDirInfo@@@std@@@std@@QBEIXZ PROC ; std::vector<ChangeDirInfo,std::allocator<ChangeDirInfo> >::max_size, COMDAT
; _this$ = ecx

; 884  : 		return (this->_Alval.max_size());

  00000	b8 49 92 24 09	 mov	 eax, 153391689		; 09249249H

; 885  : 		}

  00005	c3		 ret	 0
?max_size@?$vector@UChangeDirInfo@@V?$allocator@UChangeDirInfo@@@std@@@std@@QBEIXZ ENDP ; std::vector<ChangeDirInfo,std::allocator<ChangeDirInfo> >::max_size
_TEXT	ENDS
PUBLIC	??0?$_Vector_val@UChangeDirInfo@@V?$allocator@UChangeDirInfo@@@std@@@std@@QAE@V?$allocator@UChangeDirInfo@@@1@@Z ; std::_Vector_val<ChangeDirInfo,std::allocator<ChangeDirInfo> >::_Vector_val<ChangeDirInfo,std::allocator<ChangeDirInfo> >
; Function compile flags: /Ogsp
;	COMDAT ??0?$_Vector_val@UChangeDirInfo@@V?$allocator@UChangeDirInfo@@@std@@@std@@QAE@V?$allocator@UChangeDirInfo@@@1@@Z
_TEXT	SEGMENT
__Al$ = 8						; size = 1
??0?$_Vector_val@UChangeDirInfo@@V?$allocator@UChangeDirInfo@@@std@@@std@@QAE@V?$allocator@UChangeDirInfo@@@1@@Z PROC ; std::_Vector_val<ChangeDirInfo,std::allocator<ChangeDirInfo> >::_Vector_val<ChangeDirInfo,std::allocator<ChangeDirInfo> >, COMDAT
; _this$ = ecx

; 426  : 		{	// construct allocator from _Al

  00000	8b c1		 mov	 eax, ecx

; 427  : 		_Myfirst = 0;

  00002	33 c9		 xor	 ecx, ecx
  00004	89 08		 mov	 DWORD PTR [eax], ecx

; 428  : 		_Mylast = 0;

  00006	89 48 04	 mov	 DWORD PTR [eax+4], ecx

; 429  : 		_Myend = 0;

  00009	89 48 08	 mov	 DWORD PTR [eax+8], ecx

; 430  : 		}

  0000c	c2 04 00	 ret	 4
??0?$_Vector_val@UChangeDirInfo@@V?$allocator@UChangeDirInfo@@@std@@@std@@QAE@V?$allocator@UChangeDirInfo@@@1@@Z ENDP ; std::_Vector_val<ChangeDirInfo,std::allocator<ChangeDirInfo> >::_Vector_val<ChangeDirInfo,std::allocator<ChangeDirInfo> >
_TEXT	ENDS
PUBLIC	?allocate@?$allocator@UChangeDirInfo@@@std@@QAEPAUChangeDirInfo@@I@Z ; std::allocator<ChangeDirInfo>::allocate
; Function compile flags: /Ogsp
; File c:\program files (x86)\microsoft visual studio 10.0\vc\include\xmemory
;	COMDAT ?allocate@?$allocator@UChangeDirInfo@@@std@@QAEPAUChangeDirInfo@@I@Z
_TEXT	SEGMENT
__Count$ = 8						; size = 4
?allocate@?$allocator@UChangeDirInfo@@@std@@QAEPAUChangeDirInfo@@I@Z PROC ; std::allocator<ChangeDirInfo>::allocate, COMDAT
; _this$ = ecx

; 186  : 		{	// allocate array of _Count elements

  00000	55		 push	 ebp
  00001	8b ec		 mov	 ebp, esp

; 187  : 		return (_Allocate(_Count, (pointer)0));

  00003	6a 00		 push	 0
  00005	ff 75 08	 push	 DWORD PTR __Count$[ebp]
  00008	e8 00 00 00 00	 call	 ??$_Allocate@UChangeDirInfo@@@std@@YAPAUChangeDirInfo@@IPAU1@@Z ; std::_Allocate<ChangeDirInfo>
  0000d	59		 pop	 ecx
  0000e	59		 pop	 ecx

; 188  : 		}

  0000f	5d		 pop	 ebp
  00010	c2 04 00	 ret	 4
?allocate@?$allocator@UChangeDirInfo@@@std@@QAEPAUChangeDirInfo@@I@Z ENDP ; std::allocator<ChangeDirInfo>::allocate
_TEXT	ENDS
PUBLIC	??0?$_Vector_iterator@V?$_Vector_val@UChangeDirInfo@@V?$allocator@UChangeDirInfo@@@std@@@std@@@std@@QAE@PAUChangeDirInfo@@PBU_Container_base0@1@@Z ; std::_Vector_iterator<std::_Vector_val<ChangeDirInfo,std::allocator<ChangeDirInfo> > >::_Vector_iterator<std::_Vector_val<ChangeDirInfo,std::allocator<ChangeDirInfo> > >
; Function compile flags: /Ogsp
; File c:\program files (x86)\microsoft visual studio 10.0\vc\include\vector
;	COMDAT ??0?$_Vector_iterator@V?$_Vector_val@UChangeDirInfo@@V?$allocator@UChangeDirInfo@@@std@@@std@@@std@@QAE@PAUChangeDirInfo@@PBU_Container_base0@1@@Z
_TEXT	SEGMENT
__Parg$ = 8						; size = 4
__Pvector$ = 12						; size = 4
??0?$_Vector_iterator@V?$_Vector_val@UChangeDirInfo@@V?$allocator@UChangeDirInfo@@@std@@@std@@@std@@QAE@PAUChangeDirInfo@@PBU_Container_base0@1@@Z PROC ; std::_Vector_iterator<std::_Vector_val<ChangeDirInfo,std::allocator<ChangeDirInfo> > >::_Vector_iterator<std::_Vector_val<ChangeDirInfo,std::allocator<ChangeDirInfo> > >, COMDAT
; _this$ = ecx

; 304  : 		{	// construct with pointer _Parg

  00000	55		 push	 ebp
  00001	8b ec		 mov	 ebp, esp
  00003	8b c1		 mov	 eax, ecx
  00005	8b 4d 08	 mov	 ecx, DWORD PTR __Parg$[ebp]
  00008	89 08		 mov	 DWORD PTR [eax], ecx

; 305  : 		}

  0000a	5d		 pop	 ebp
  0000b	c2 08 00	 ret	 8
??0?$_Vector_iterator@V?$_Vector_val@UChangeDirInfo@@V?$allocator@UChangeDirInfo@@@std@@@std@@@std@@QAE@PAUChangeDirInfo@@PBU_Container_base0@1@@Z ENDP ; std::_Vector_iterator<std::_Vector_val<ChangeDirInfo,std::allocator<ChangeDirInfo> > >::_Vector_iterator<std::_Vector_val<ChangeDirInfo,std::allocator<ChangeDirInfo> > >
_TEXT	ENDS
PUBLIC	?_Make_iter@?$vector@UChangeDirInfo@@V?$allocator@UChangeDirInfo@@@std@@@std@@QBE?AV?$_Vector_iterator@V?$_Vector_val@UChangeDirInfo@@V?$allocator@UChangeDirInfo@@@std@@@std@@@2@V?$_Vector_const_iterator@V?$_Vector_val@UChangeDirInfo@@V?$allocator@UChangeDirInfo@@@std@@@std@@@2@@Z ; std::vector<ChangeDirInfo,std::allocator<ChangeDirInfo> >::_Make_iter
; Function compile flags: /Ogsp
;	COMDAT ?_Make_iter@?$vector@UChangeDirInfo@@V?$allocator@UChangeDirInfo@@@std@@@std@@QBE?AV?$_Vector_iterator@V?$_Vector_val@UChangeDirInfo@@V?$allocator@UChangeDirInfo@@@std@@@std@@@2@V?$_Vector_const_iterator@V?$_Vector_val@UChangeDirInfo@@V?$allocator@UChangeDirInfo@@@std@@@std@@@2@@Z
_TEXT	SEGMENT
___$ReturnUdt$ = 8					; size = 4
__Where$ = 12						; size = 4
?_Make_iter@?$vector@UChangeDirInfo@@V?$allocator@UChangeDirInfo@@@std@@@std@@QBE?AV?$_Vector_iterator@V?$_Vector_val@UChangeDirInfo@@V?$allocator@UChangeDirInfo@@@std@@@std@@@2@V?$_Vector_const_iterator@V?$_Vector_val@UChangeDirInfo@@V?$allocator@UChangeDirInfo@@@std@@@std@@@2@@Z PROC ; std::vector<ChangeDirInfo,std::allocator<ChangeDirInfo> >::_Make_iter, COMDAT
; _this$ = ecx

; 801  : 		{	// make iterator from const_iterator

  00000	55		 push	 ebp
  00001	8b ec		 mov	 ebp, esp

; 802  : 		return (iterator(_Where._Ptr, this));

  00003	8b 45 08	 mov	 eax, DWORD PTR ___$ReturnUdt$[ebp]
  00006	8b 4d 0c	 mov	 ecx, DWORD PTR __Where$[ebp]
  00009	89 08		 mov	 DWORD PTR [eax], ecx

; 803  : 		}

  0000b	5d		 pop	 ebp
  0000c	c2 08 00	 ret	 8
?_Make_iter@?$vector@UChangeDirInfo@@V?$allocator@UChangeDirInfo@@@std@@@std@@QBE?AV?$_Vector_iterator@V?$_Vector_val@UChangeDirInfo@@V?$allocator@UChangeDirInfo@@@std@@@std@@@2@V?$_Vector_const_iterator@V?$_Vector_val@UChangeDirInfo@@V?$allocator@UChangeDirInfo@@@std@@@std@@@2@@Z ENDP ; std::vector<ChangeDirInfo,std::allocator<ChangeDirInfo> >::_Make_iter
_TEXT	ENDS
PUBLIC	?_Grow_to@?$vector@UChangeDirInfo@@V?$allocator@UChangeDirInfo@@@std@@@std@@IBEII@Z ; std::vector<ChangeDirInfo,std::allocator<ChangeDirInfo> >::_Grow_to
; Function compile flags: /Ogsp
;	COMDAT ?_Grow_to@?$vector@UChangeDirInfo@@V?$allocator@UChangeDirInfo@@@std@@@std@@IBEII@Z
_TEXT	SEGMENT
__Count$ = 8						; size = 4
?_Grow_to@?$vector@UChangeDirInfo@@V?$allocator@UChangeDirInfo@@@std@@@std@@IBEII@Z PROC ; std::vector<ChangeDirInfo,std::allocator<ChangeDirInfo> >::_Grow_to, COMDAT
; _this$ = ecx

; 1274 : 		{	// grow by 50% or at least to _Count

  00000	55		 push	 ebp
  00001	8b ec		 mov	 ebp, esp

; 1275 : 		size_type _Capacity = capacity();

  00003	8b 41 08	 mov	 eax, DWORD PTR [ecx+8]
  00006	2b 01		 sub	 eax, DWORD PTR [ecx]
  00008	6a 1c		 push	 28			; 0000001cH
  0000a	99		 cdq
  0000b	59		 pop	 ecx
  0000c	f7 f9		 idiv	 ecx

; 1276 : 
; 1277 : 		_Capacity = max_size() - _Capacity / 2 < _Capacity
; 1278 : 			? 0 : _Capacity + _Capacity / 2;	// try to grow by 50%

  0000e	ba 49 92 24 09	 mov	 edx, 153391689		; 09249249H
  00013	8b c8		 mov	 ecx, eax
  00015	d1 e9		 shr	 ecx, 1
  00017	2b d1		 sub	 edx, ecx
  00019	3b d0		 cmp	 edx, eax
  0001b	73 04		 jae	 SHORT $LN4@Grow_to
  0001d	33 c0		 xor	 eax, eax
  0001f	eb 02		 jmp	 SHORT $LN5@Grow_to
$LN4@Grow_to:
  00021	03 c1		 add	 eax, ecx
$LN5@Grow_to:

; 1279 : 		if (_Capacity < _Count)

  00023	3b 45 08	 cmp	 eax, DWORD PTR __Count$[ebp]

; 1280 : 			_Capacity = _Count;

  00026	0f 42 45 08	 cmovb	 eax, DWORD PTR __Count$[ebp]

; 1281 : 		return (_Capacity);
; 1282 : 		}

  0002a	5d		 pop	 ebp
  0002b	c2 04 00	 ret	 4
?_Grow_to@?$vector@UChangeDirInfo@@V?$allocator@UChangeDirInfo@@@std@@@std@@IBEII@Z ENDP ; std::vector<ChangeDirInfo,std::allocator<ChangeDirInfo> >::_Grow_to
_TEXT	ENDS
PUBLIC	??8?$_Vector_const_iterator@V?$_Vector_val@UChangeDirInfo@@V?$allocator@UChangeDirInfo@@@std@@@std@@@std@@QBE_NABV01@@Z ; std::_Vector_const_iterator<std::_Vector_val<ChangeDirInfo,std::allocator<ChangeDirInfo> > >::operator==
; Function compile flags: /Ogsp
;	COMDAT ??8?$_Vector_const_iterator@V?$_Vector_val@UChangeDirInfo@@V?$allocator@UChangeDirInfo@@@std@@@std@@@std@@QBE_NABV01@@Z
_TEXT	SEGMENT
__Right$ = 8						; size = 4
??8?$_Vector_const_iterator@V?$_Vector_val@UChangeDirInfo@@V?$allocator@UChangeDirInfo@@@std@@@std@@@std@@QBE_NABV01@@Z PROC ; std::_Vector_const_iterator<std::_Vector_val<ChangeDirInfo,std::allocator<ChangeDirInfo> > >::operator==, COMDAT
; _this$ = ecx

; 201  : 		{	// test for iterator equality

  00000	55		 push	 ebp
  00001	8b ec		 mov	 ebp, esp

; 202  : 		_Compat(_Right);
; 203  : 		return (this->_Ptr == _Right._Ptr);

  00003	8b 01		 mov	 eax, DWORD PTR [ecx]
  00005	8b 4d 08	 mov	 ecx, DWORD PTR __Right$[ebp]
  00008	2b 01		 sub	 eax, DWORD PTR [ecx]
  0000a	f7 d8		 neg	 eax
  0000c	1b c0		 sbb	 eax, eax
  0000e	40		 inc	 eax

; 204  : 		}

  0000f	5d		 pop	 ebp
  00010	c2 04 00	 ret	 4
??8?$_Vector_const_iterator@V?$_Vector_val@UChangeDirInfo@@V?$allocator@UChangeDirInfo@@@std@@@std@@@std@@QBE_NABV01@@Z ENDP ; std::_Vector_const_iterator<std::_Vector_val<ChangeDirInfo,std::allocator<ChangeDirInfo> > >::operator==
_TEXT	ENDS
PUBLIC	__$ArrayPad$
PUBLIC	??$LoadBool_e@$0BE@@ioINILoader@@QAE_NAAY0BE@$$CBD_N@Z ; ioINILoader::LoadBool_e<20>
EXTRN	__imp_?LoadBool@ioINILoader@@QAE_NPBD_N@Z:PROC
; Function compile flags: /Ogsp
; File d:\lost saga for developer\youtube\tutorial\source\src\io3dengine\ioiniloader.h
;	COMDAT ??$LoadBool_e@$0BE@@ioINILoader@@QAE_NAAY0BE@$$CBD_N@Z
_TEXT	SEGMENT
__k$ = -28						; size = 20
__$ArrayPad$ = -4					; size = 4
_k$ = 8							; size = 4
_b$ = 12						; size = 1
??$LoadBool_e@$0BE@@ioINILoader@@QAE_NAAY0BE@$$CBD_N@Z PROC ; ioINILoader::LoadBool_e<20>, COMDAT
; _this$ = ecx

; 101  : 	{

  00000	55		 push	 ebp
  00001	8b ec		 mov	 ebp, esp
  00003	83 ec 1c	 sub	 esp, 28			; 0000001cH
  00006	a1 00 00 00 00	 mov	 eax, DWORD PTR ___security_cookie
  0000b	33 c5		 xor	 eax, ebp
  0000d	89 45 fc	 mov	 DWORD PTR __$ArrayPad$[ebp], eax
  00010	8b 45 08	 mov	 eax, DWORD PTR _k$[ebp]

; 102  : 		_ENCSTR(k, _k);

  00013	8a 10		 mov	 dl, BYTE PTR [eax]
  00015	53		 push	 ebx
  00016	56		 push	 esi
  00017	8b f1		 mov	 esi, ecx
  00019	84 d2		 test	 dl, dl
  0001b	0f 84 dd 01 00
	00		 je	 $LN96@LoadBool_e
  00021	80 f2 ed	 xor	 dl, -19			; ffffffedH
  00024	88 55 e4	 mov	 BYTE PTR __k$[ebp], dl
  00027	8a 50 01	 mov	 dl, BYTE PTR [eax+1]
  0002a	84 d2		 test	 dl, dl
  0002c	0f 84 c6 01 00
	00		 je	 $LN95@LoadBool_e
  00032	b3 ec		 mov	 bl, -20			; ffffffecH
  00034	32 d3		 xor	 dl, bl
  00036	88 55 e5	 mov	 BYTE PTR __k$[ebp+1], dl
  00039	8a 50 02	 mov	 dl, BYTE PTR [eax+2]
  0003c	84 d2		 test	 dl, dl
  0003e	0f 84 ae 01 00
	00		 je	 $LN94@LoadBool_e
  00044	b1 eb		 mov	 cl, -21			; ffffffebH
  00046	32 d1		 xor	 dl, cl
  00048	88 55 e6	 mov	 BYTE PTR __k$[ebp+2], dl
  0004b	8a 50 03	 mov	 dl, BYTE PTR [eax+3]
  0004e	84 d2		 test	 dl, dl
  00050	0f 84 96 01 00
	00		 je	 $LN93@LoadBool_e
  00056	80 f2 ea	 xor	 dl, -22			; ffffffeaH
  00059	88 55 e7	 mov	 BYTE PTR __k$[ebp+3], dl
  0005c	8a 50 04	 mov	 dl, BYTE PTR [eax+4]
  0005f	84 d2		 test	 dl, dl
  00061	0f 84 7f 01 00
	00		 je	 $LN92@LoadBool_e
  00067	80 f2 ed	 xor	 dl, -19			; ffffffedH
  0006a	88 55 e8	 mov	 BYTE PTR __k$[ebp+4], dl
  0006d	8a 50 05	 mov	 dl, BYTE PTR [eax+5]
  00070	84 d2		 test	 dl, dl
  00072	0f 84 69 01 00
	00		 je	 $LN91@LoadBool_e
  00078	32 d3		 xor	 dl, bl
  0007a	88 55 e9	 mov	 BYTE PTR __k$[ebp+5], dl
  0007d	8a 50 06	 mov	 dl, BYTE PTR [eax+6]
  00080	84 d2		 test	 dl, dl
  00082	0f 84 54 01 00
	00		 je	 $LN90@LoadBool_e
  00088	32 d1		 xor	 dl, cl
  0008a	88 55 ea	 mov	 BYTE PTR __k$[ebp+6], dl
  0008d	8a 50 07	 mov	 dl, BYTE PTR [eax+7]
  00090	84 d2		 test	 dl, dl
  00092	0f 84 3e 01 00
	00		 je	 $LN89@LoadBool_e
  00098	80 f2 ea	 xor	 dl, -22			; ffffffeaH
  0009b	88 55 eb	 mov	 BYTE PTR __k$[ebp+7], dl
  0009e	8a 50 08	 mov	 dl, BYTE PTR [eax+8]
  000a1	84 d2		 test	 dl, dl
  000a3	0f 84 27 01 00
	00		 je	 $LN88@LoadBool_e
  000a9	80 f2 ed	 xor	 dl, -19			; ffffffedH
  000ac	88 55 ec	 mov	 BYTE PTR __k$[ebp+8], dl
  000af	8a 50 09	 mov	 dl, BYTE PTR [eax+9]
  000b2	84 d2		 test	 dl, dl
  000b4	0f 84 11 01 00
	00		 je	 $LN87@LoadBool_e
  000ba	32 d3		 xor	 dl, bl
  000bc	88 55 ed	 mov	 BYTE PTR __k$[ebp+9], dl
  000bf	8a 50 0a	 mov	 dl, BYTE PTR [eax+10]
  000c2	84 d2		 test	 dl, dl
  000c4	0f 84 fc 00 00
	00		 je	 $LN86@LoadBool_e
  000ca	32 d1		 xor	 dl, cl
  000cc	88 55 ee	 mov	 BYTE PTR __k$[ebp+10], dl
  000cf	8a 50 0b	 mov	 dl, BYTE PTR [eax+11]
  000d2	84 d2		 test	 dl, dl
  000d4	0f 84 e6 00 00
	00		 je	 $LN85@LoadBool_e
  000da	80 f2 ea	 xor	 dl, -22			; ffffffeaH
  000dd	88 55 ef	 mov	 BYTE PTR __k$[ebp+11], dl
  000e0	8a 50 0c	 mov	 dl, BYTE PTR [eax+12]
  000e3	84 d2		 test	 dl, dl
  000e5	0f 84 cf 00 00
	00		 je	 $LN84@LoadBool_e
  000eb	80 f2 ed	 xor	 dl, -19			; ffffffedH
  000ee	88 55 f0	 mov	 BYTE PTR __k$[ebp+12], dl
  000f1	8a 50 0d	 mov	 dl, BYTE PTR [eax+13]
  000f4	84 d2		 test	 dl, dl
  000f6	0f 84 b9 00 00
	00		 je	 $LN83@LoadBool_e
  000fc	32 d3		 xor	 dl, bl
  000fe	88 55 f1	 mov	 BYTE PTR __k$[ebp+13], dl
  00101	8a 50 0e	 mov	 dl, BYTE PTR [eax+14]
  00104	84 d2		 test	 dl, dl
  00106	0f 84 a4 00 00
	00		 je	 $LN82@LoadBool_e
  0010c	32 d1		 xor	 dl, cl
  0010e	88 55 f2	 mov	 BYTE PTR __k$[ebp+14], dl
  00111	8a 50 0f	 mov	 dl, BYTE PTR [eax+15]
  00114	84 d2		 test	 dl, dl
  00116	0f 84 8e 00 00
	00		 je	 $LN81@LoadBool_e
  0011c	80 f2 ea	 xor	 dl, -22			; ffffffeaH
  0011f	88 55 f3	 mov	 BYTE PTR __k$[ebp+15], dl
  00122	8a 50 10	 mov	 dl, BYTE PTR [eax+16]
  00125	84 d2		 test	 dl, dl
  00127	74 7b		 je	 SHORT $LN80@LoadBool_e
  00129	80 f2 ed	 xor	 dl, -19			; ffffffedH
  0012c	88 55 f4	 mov	 BYTE PTR __k$[ebp+16], dl
  0012f	8a 50 11	 mov	 dl, BYTE PTR [eax+17]
  00132	84 d2		 test	 dl, dl
  00134	74 69		 je	 SHORT $LN79@LoadBool_e
  00136	32 d3		 xor	 dl, bl
  00138	88 55 f5	 mov	 BYTE PTR __k$[ebp+17], dl
  0013b	8a 50 12	 mov	 dl, BYTE PTR [eax+18]
  0013e	84 d2		 test	 dl, dl
  00140	74 58		 je	 SHORT $LN78@LoadBool_e
  00142	32 d1		 xor	 dl, cl
  00144	80 78 13 00	 cmp	 BYTE PTR [eax+19], 0
  00148	88 55 f6	 mov	 BYTE PTR __k$[ebp+18], dl
  0014b	0f 84 b1 00 00
	00		 je	 $LN1@LoadBool_e
  00151	8a 50 14	 mov	 dl, BYTE PTR [eax+20]
  00154	84 d2		 test	 dl, dl
  00156	74 3c		 je	 SHORT $LN76@LoadBool_e
  00158	80 f2 ed	 xor	 dl, -19			; ffffffedH
  0015b	88 55 f8	 mov	 BYTE PTR __k$[ebp+20], dl
  0015e	8a 50 15	 mov	 dl, BYTE PTR [eax+21]
  00161	84 d2		 test	 dl, dl
  00163	74 2a		 je	 SHORT $LN75@LoadBool_e
  00165	32 d3		 xor	 dl, bl
  00167	88 55 f9	 mov	 BYTE PTR __k$[ebp+21], dl
  0016a	8a 50 16	 mov	 dl, BYTE PTR [eax+22]
  0016d	84 d2		 test	 dl, dl
  0016f	74 19		 je	 SHORT $LN74@LoadBool_e
  00171	8a 40 17	 mov	 al, BYTE PTR [eax+23]
  00174	32 d1		 xor	 dl, cl
  00176	88 55 fa	 mov	 BYTE PTR __k$[ebp+22], dl
  00179	84 c0		 test	 al, al
  0017b	74 07		 je	 SHORT $LN73@LoadBool_e
  0017d	34 ea		 xor	 al, -22			; ffffffeaH
  0017f	88 45 fb	 mov	 BYTE PTR __k$[ebp+23], al
  00182	eb 7e		 jmp	 SHORT $LN1@LoadBool_e
$LN73@LoadBool_e:
  00184	c6 45 fb ea	 mov	 BYTE PTR __k$[ebp+23], -22 ; ffffffeaH
  00188	eb 78		 jmp	 SHORT $LN1@LoadBool_e
$LN74@LoadBool_e:
  0018a	88 4d fa	 mov	 BYTE PTR __k$[ebp+22], cl
  0018d	eb 73		 jmp	 SHORT $LN1@LoadBool_e
$LN75@LoadBool_e:
  0018f	88 5d f9	 mov	 BYTE PTR __k$[ebp+21], bl
  00192	eb 6e		 jmp	 SHORT $LN1@LoadBool_e
$LN76@LoadBool_e:
  00194	c6 45 f8 ed	 mov	 BYTE PTR __k$[ebp+20], -19 ; ffffffedH
  00198	eb 68		 jmp	 SHORT $LN1@LoadBool_e
$LN78@LoadBool_e:
  0019a	88 4d f6	 mov	 BYTE PTR __k$[ebp+18], cl
  0019d	eb 63		 jmp	 SHORT $LN1@LoadBool_e
$LN79@LoadBool_e:
  0019f	88 5d f5	 mov	 BYTE PTR __k$[ebp+17], bl
  001a2	eb 5e		 jmp	 SHORT $LN1@LoadBool_e
$LN80@LoadBool_e:
  001a4	c6 45 f4 ed	 mov	 BYTE PTR __k$[ebp+16], -19 ; ffffffedH
  001a8	eb 58		 jmp	 SHORT $LN1@LoadBool_e
$LN81@LoadBool_e:
  001aa	c6 45 f3 ea	 mov	 BYTE PTR __k$[ebp+15], -22 ; ffffffeaH
  001ae	eb 52		 jmp	 SHORT $LN1@LoadBool_e
$LN82@LoadBool_e:
  001b0	88 4d f2	 mov	 BYTE PTR __k$[ebp+14], cl
  001b3	eb 4d		 jmp	 SHORT $LN1@LoadBool_e
$LN83@LoadBool_e:
  001b5	88 5d f1	 mov	 BYTE PTR __k$[ebp+13], bl
  001b8	eb 48		 jmp	 SHORT $LN1@LoadBool_e
$LN84@LoadBool_e:
  001ba	c6 45 f0 ed	 mov	 BYTE PTR __k$[ebp+12], -19 ; ffffffedH
  001be	eb 42		 jmp	 SHORT $LN1@LoadBool_e
$LN85@LoadBool_e:
  001c0	c6 45 ef ea	 mov	 BYTE PTR __k$[ebp+11], -22 ; ffffffeaH
  001c4	eb 3c		 jmp	 SHORT $LN1@LoadBool_e
$LN86@LoadBool_e:
  001c6	88 4d ee	 mov	 BYTE PTR __k$[ebp+10], cl
  001c9	eb 37		 jmp	 SHORT $LN1@LoadBool_e
$LN87@LoadBool_e:
  001cb	88 5d ed	 mov	 BYTE PTR __k$[ebp+9], bl
  001ce	eb 32		 jmp	 SHORT $LN1@LoadBool_e
$LN88@LoadBool_e:
  001d0	c6 45 ec ed	 mov	 BYTE PTR __k$[ebp+8], -19 ; ffffffedH
  001d4	eb 2c		 jmp	 SHORT $LN1@LoadBool_e
$LN89@LoadBool_e:
  001d6	c6 45 eb ea	 mov	 BYTE PTR __k$[ebp+7], -22 ; ffffffeaH
  001da	eb 26		 jmp	 SHORT $LN1@LoadBool_e
$LN90@LoadBool_e:
  001dc	88 4d ea	 mov	 BYTE PTR __k$[ebp+6], cl
  001df	eb 21		 jmp	 SHORT $LN1@LoadBool_e
$LN91@LoadBool_e:
  001e1	88 5d e9	 mov	 BYTE PTR __k$[ebp+5], bl
  001e4	eb 1c		 jmp	 SHORT $LN1@LoadBool_e
$LN92@LoadBool_e:
  001e6	c6 45 e8 ed	 mov	 BYTE PTR __k$[ebp+4], -19 ; ffffffedH
  001ea	eb 16		 jmp	 SHORT $LN1@LoadBool_e
$LN93@LoadBool_e:
  001ec	c6 45 e7 ea	 mov	 BYTE PTR __k$[ebp+3], -22 ; ffffffeaH
  001f0	eb 10		 jmp	 SHORT $LN1@LoadBool_e
$LN94@LoadBool_e:
  001f2	c6 45 e6 eb	 mov	 BYTE PTR __k$[ebp+2], -21 ; ffffffebH
  001f6	eb 0a		 jmp	 SHORT $LN1@LoadBool_e
$LN95@LoadBool_e:
  001f8	c6 45 e5 ec	 mov	 BYTE PTR __k$[ebp+1], -20 ; ffffffecH
  001fc	eb 04		 jmp	 SHORT $LN1@LoadBool_e
$LN96@LoadBool_e:
  001fe	c6 45 e4 ed	 mov	 BYTE PTR __k$[ebp], -19	; ffffffedH
$LN1@LoadBool_e:
  00202	6a 04		 push	 4
  00204	8d 45 e4	 lea	 eax, DWORD PTR __k$[ebp]
  00207	c6 45 f7 00	 mov	 BYTE PTR __k$[ebp+19], 0
  0020b	5a		 pop	 edx
$LL104@LoadBool_e:
  0020c	81 30 ed ec eb
	ea		 xor	 DWORD PTR [eax], -353637139 ; eaebecedH
  00212	83 c0 04	 add	 eax, 4
  00215	4a		 dec	 edx
  00216	75 f4		 jne	 SHORT $LL104@LoadBool_e
  00218	6a 10		 push	 16			; 00000010H
  0021a	58		 pop	 eax
$LL101@LoadBool_e:
  0021b	8b c8		 mov	 ecx, eax
  0021d	81 e1 03 00 00
	80		 and	 ecx, -2147483645	; 80000003H
  00223	79 05		 jns	 SHORT $LN111@LoadBool_e
  00225	49		 dec	 ecx
  00226	83 c9 fc	 or	 ecx, -4			; fffffffcH
  00229	41		 inc	 ecx
$LN111@LoadBool_e:
  0022a	b2 ed		 mov	 dl, -19			; ffffffedH
  0022c	2a d1		 sub	 dl, cl
  0022e	30 54 05 e4	 xor	 BYTE PTR __k$[ebp+eax], dl
  00232	40		 inc	 eax
  00233	83 f8 13	 cmp	 eax, 19			; 00000013H
  00236	7c e3		 jl	 SHORT $LL101@LoadBool_e

; 103  : 		return LoadBool(_k, b);

  00238	ff 75 0c	 push	 DWORD PTR _b$[ebp]
  0023b	8d 45 e4	 lea	 eax, DWORD PTR __k$[ebp]
  0023e	50		 push	 eax
  0023f	8b ce		 mov	 ecx, esi
  00241	ff 15 00 00 00
	00		 call	 DWORD PTR __imp_?LoadBool@ioINILoader@@QAE_NPBD_N@Z

; 104  : 	}

  00247	8b 4d fc	 mov	 ecx, DWORD PTR __$ArrayPad$[ebp]
  0024a	5e		 pop	 esi
  0024b	33 cd		 xor	 ecx, ebp
  0024d	5b		 pop	 ebx
  0024e	e8 00 00 00 00	 call	 @__security_check_cookie@4
  00253	c9		 leave
  00254	c2 08 00	 ret	 8
??$LoadBool_e@$0BE@@ioINILoader@@QAE_NAAY0BE@$$CBD_N@Z ENDP ; ioINILoader::LoadBool_e<20>
_TEXT	ENDS
PUBLIC	__$ArrayPad$
PUBLIC	??$LoadFloat_e@$0P@@ioINILoader@@QAEMAAY0P@$$CBDM@Z ; ioINILoader::LoadFloat_e<15>
EXTRN	__imp_?LoadFloat@ioINILoader@@QAEMPBDM@Z:PROC
; Function compile flags: /Ogsp
;	COMDAT ??$LoadFloat_e@$0P@@ioINILoader@@QAEMAAY0P@$$CBDM@Z
_TEXT	SEGMENT
__k$ = -24						; size = 15
__$ArrayPad$ = -4					; size = 4
_k$ = 8							; size = 4
_f$ = 12						; size = 4
??$LoadFloat_e@$0P@@ioINILoader@@QAEMAAY0P@$$CBDM@Z PROC ; ioINILoader::LoadFloat_e<15>, COMDAT
; _this$ = ecx

; 135  : 	{

  00000	55		 push	 ebp
  00001	8b ec		 mov	 ebp, esp
  00003	83 ec 18	 sub	 esp, 24			; 00000018H
  00006	a1 00 00 00 00	 mov	 eax, DWORD PTR ___security_cookie
  0000b	33 c5		 xor	 eax, ebp
  0000d	89 45 fc	 mov	 DWORD PTR __$ArrayPad$[ebp], eax
  00010	8b 45 08	 mov	 eax, DWORD PTR _k$[ebp]

; 136  : 		_ENCSTR(k, _k);

  00013	8a 10		 mov	 dl, BYTE PTR [eax]
  00015	56		 push	 esi
  00016	8b f1		 mov	 esi, ecx
  00018	84 d2		 test	 dl, dl
  0001a	0f 84 75 01 00
	00		 je	 $LN96@LoadFloat_
  00020	80 f2 ed	 xor	 dl, -19			; ffffffedH
  00023	88 55 e8	 mov	 BYTE PTR __k$[ebp], dl
  00026	8a 50 01	 mov	 dl, BYTE PTR [eax+1]
  00029	84 d2		 test	 dl, dl
  0002b	0f 84 5e 01 00
	00		 je	 $LN95@LoadFloat_
  00031	b1 ec		 mov	 cl, -20			; ffffffecH
  00033	32 d1		 xor	 dl, cl
  00035	88 55 e9	 mov	 BYTE PTR __k$[ebp+1], dl
  00038	8a 50 02	 mov	 dl, BYTE PTR [eax+2]
  0003b	84 d2		 test	 dl, dl
  0003d	0f 84 46 01 00
	00		 je	 $LN94@LoadFloat_
  00043	80 f2 eb	 xor	 dl, -21			; ffffffebH
  00046	88 55 ea	 mov	 BYTE PTR __k$[ebp+2], dl
  00049	8a 50 03	 mov	 dl, BYTE PTR [eax+3]
  0004c	84 d2		 test	 dl, dl
  0004e	0f 84 2f 01 00
	00		 je	 $LN93@LoadFloat_
  00054	80 f2 ea	 xor	 dl, -22			; ffffffeaH
  00057	88 55 eb	 mov	 BYTE PTR __k$[ebp+3], dl
  0005a	8a 50 04	 mov	 dl, BYTE PTR [eax+4]
  0005d	84 d2		 test	 dl, dl
  0005f	0f 84 18 01 00
	00		 je	 $LN92@LoadFloat_
  00065	80 f2 ed	 xor	 dl, -19			; ffffffedH
  00068	88 55 ec	 mov	 BYTE PTR __k$[ebp+4], dl
  0006b	8a 50 05	 mov	 dl, BYTE PTR [eax+5]
  0006e	84 d2		 test	 dl, dl
  00070	0f 84 02 01 00
	00		 je	 $LN91@LoadFloat_
  00076	32 d1		 xor	 dl, cl
  00078	88 55 ed	 mov	 BYTE PTR __k$[ebp+5], dl
  0007b	8a 50 06	 mov	 dl, BYTE PTR [eax+6]
  0007e	84 d2		 test	 dl, dl
  00080	0f 84 ec 00 00
	00		 je	 $LN90@LoadFloat_
  00086	80 f2 eb	 xor	 dl, -21			; ffffffebH
  00089	88 55 ee	 mov	 BYTE PTR __k$[ebp+6], dl
  0008c	8a 50 07	 mov	 dl, BYTE PTR [eax+7]
  0008f	84 d2		 test	 dl, dl
  00091	0f 84 d5 00 00
	00		 je	 $LN89@LoadFloat_
  00097	80 f2 ea	 xor	 dl, -22			; ffffffeaH
  0009a	88 55 ef	 mov	 BYTE PTR __k$[ebp+7], dl
  0009d	8a 50 08	 mov	 dl, BYTE PTR [eax+8]
  000a0	84 d2		 test	 dl, dl
  000a2	0f 84 be 00 00
	00		 je	 $LN88@LoadFloat_
  000a8	80 f2 ed	 xor	 dl, -19			; ffffffedH
  000ab	88 55 f0	 mov	 BYTE PTR __k$[ebp+8], dl
  000ae	8a 50 09	 mov	 dl, BYTE PTR [eax+9]
  000b1	84 d2		 test	 dl, dl
  000b3	0f 84 a8 00 00
	00		 je	 $LN87@LoadFloat_
  000b9	32 d1		 xor	 dl, cl
  000bb	88 55 f1	 mov	 BYTE PTR __k$[ebp+9], dl
  000be	8a 50 0a	 mov	 dl, BYTE PTR [eax+10]
  000c1	84 d2		 test	 dl, dl
  000c3	0f 84 92 00 00
	00		 je	 $LN86@LoadFloat_
  000c9	80 f2 eb	 xor	 dl, -21			; ffffffebH
  000cc	88 55 f2	 mov	 BYTE PTR __k$[ebp+10], dl
  000cf	8a 50 0b	 mov	 dl, BYTE PTR [eax+11]
  000d2	84 d2		 test	 dl, dl
  000d4	74 7f		 je	 SHORT $LN85@LoadFloat_
  000d6	80 f2 ea	 xor	 dl, -22			; ffffffeaH
  000d9	88 55 f3	 mov	 BYTE PTR __k$[ebp+11], dl
  000dc	8a 50 0c	 mov	 dl, BYTE PTR [eax+12]
  000df	84 d2		 test	 dl, dl
  000e1	74 6c		 je	 SHORT $LN84@LoadFloat_
  000e3	80 f2 ed	 xor	 dl, -19			; ffffffedH
  000e6	88 55 f4	 mov	 BYTE PTR __k$[ebp+12], dl
  000e9	8a 50 0d	 mov	 dl, BYTE PTR [eax+13]
  000ec	84 d2		 test	 dl, dl
  000ee	74 5a		 je	 SHORT $LN83@LoadFloat_
  000f0	32 d1		 xor	 dl, cl
  000f2	80 78 0e 00	 cmp	 BYTE PTR [eax+14], 0
  000f6	88 55 f5	 mov	 BYTE PTR __k$[ebp+13], dl
  000f9	0f 84 9a 00 00
	00		 je	 $LN1@LoadFloat_
  000ff	8a 50 0f	 mov	 dl, BYTE PTR [eax+15]
  00102	84 d2		 test	 dl, dl
  00104	74 3e		 je	 SHORT $LN81@LoadFloat_
  00106	80 f2 ea	 xor	 dl, -22			; ffffffeaH
  00109	88 55 f7	 mov	 BYTE PTR __k$[ebp+15], dl
  0010c	8a 50 10	 mov	 dl, BYTE PTR [eax+16]
  0010f	84 d2		 test	 dl, dl
  00111	74 2b		 je	 SHORT $LN80@LoadFloat_
  00113	80 f2 ed	 xor	 dl, -19			; ffffffedH
  00116	88 55 f8	 mov	 BYTE PTR __k$[ebp+16], dl
  00119	8a 50 11	 mov	 dl, BYTE PTR [eax+17]
  0011c	84 d2		 test	 dl, dl
  0011e	74 19		 je	 SHORT $LN79@LoadFloat_
  00120	8a 40 12	 mov	 al, BYTE PTR [eax+18]
  00123	32 d1		 xor	 dl, cl
  00125	88 55 f9	 mov	 BYTE PTR __k$[ebp+17], dl
  00128	84 c0		 test	 al, al
  0012a	74 07		 je	 SHORT $LN78@LoadFloat_
  0012c	34 eb		 xor	 al, -21			; ffffffebH
  0012e	88 45 fa	 mov	 BYTE PTR __k$[ebp+18], al
  00131	eb 66		 jmp	 SHORT $LN1@LoadFloat_
$LN78@LoadFloat_:
  00133	c6 45 fa eb	 mov	 BYTE PTR __k$[ebp+18], -21 ; ffffffebH
  00137	eb 60		 jmp	 SHORT $LN1@LoadFloat_
$LN79@LoadFloat_:
  00139	88 4d f9	 mov	 BYTE PTR __k$[ebp+17], cl
  0013c	eb 5b		 jmp	 SHORT $LN1@LoadFloat_
$LN80@LoadFloat_:
  0013e	c6 45 f8 ed	 mov	 BYTE PTR __k$[ebp+16], -19 ; ffffffedH
  00142	eb 55		 jmp	 SHORT $LN1@LoadFloat_
$LN81@LoadFloat_:
  00144	c6 45 f7 ea	 mov	 BYTE PTR __k$[ebp+15], -22 ; ffffffeaH
  00148	eb 4f		 jmp	 SHORT $LN1@LoadFloat_
$LN83@LoadFloat_:
  0014a	88 4d f5	 mov	 BYTE PTR __k$[ebp+13], cl
  0014d	eb 4a		 jmp	 SHORT $LN1@LoadFloat_
$LN84@LoadFloat_:
  0014f	c6 45 f4 ed	 mov	 BYTE PTR __k$[ebp+12], -19 ; ffffffedH
  00153	eb 44		 jmp	 SHORT $LN1@LoadFloat_
$LN85@LoadFloat_:
  00155	c6 45 f3 ea	 mov	 BYTE PTR __k$[ebp+11], -22 ; ffffffeaH
  00159	eb 3e		 jmp	 SHORT $LN1@LoadFloat_
$LN86@LoadFloat_:
  0015b	c6 45 f2 eb	 mov	 BYTE PTR __k$[ebp+10], -21 ; ffffffebH
  0015f	eb 38		 jmp	 SHORT $LN1@LoadFloat_
$LN87@LoadFloat_:
  00161	88 4d f1	 mov	 BYTE PTR __k$[ebp+9], cl
  00164	eb 33		 jmp	 SHORT $LN1@LoadFloat_
$LN88@LoadFloat_:
  00166	c6 45 f0 ed	 mov	 BYTE PTR __k$[ebp+8], -19 ; ffffffedH
  0016a	eb 2d		 jmp	 SHORT $LN1@LoadFloat_
$LN89@LoadFloat_:
  0016c	c6 45 ef ea	 mov	 BYTE PTR __k$[ebp+7], -22 ; ffffffeaH
  00170	eb 27		 jmp	 SHORT $LN1@LoadFloat_
$LN90@LoadFloat_:
  00172	c6 45 ee eb	 mov	 BYTE PTR __k$[ebp+6], -21 ; ffffffebH
  00176	eb 21		 jmp	 SHORT $LN1@LoadFloat_
$LN91@LoadFloat_:
  00178	88 4d ed	 mov	 BYTE PTR __k$[ebp+5], cl
  0017b	eb 1c		 jmp	 SHORT $LN1@LoadFloat_
$LN92@LoadFloat_:
  0017d	c6 45 ec ed	 mov	 BYTE PTR __k$[ebp+4], -19 ; ffffffedH
  00181	eb 16		 jmp	 SHORT $LN1@LoadFloat_
$LN93@LoadFloat_:
  00183	c6 45 eb ea	 mov	 BYTE PTR __k$[ebp+3], -22 ; ffffffeaH
  00187	eb 10		 jmp	 SHORT $LN1@LoadFloat_
$LN94@LoadFloat_:
  00189	c6 45 ea eb	 mov	 BYTE PTR __k$[ebp+2], -21 ; ffffffebH
  0018d	eb 0a		 jmp	 SHORT $LN1@LoadFloat_
$LN95@LoadFloat_:
  0018f	c6 45 e9 ec	 mov	 BYTE PTR __k$[ebp+1], -20 ; ffffffecH
  00193	eb 04		 jmp	 SHORT $LN1@LoadFloat_
$LN96@LoadFloat_:
  00195	c6 45 e8 ed	 mov	 BYTE PTR __k$[ebp], -19	; ffffffedH
$LN1@LoadFloat_:
  00199	6a 03		 push	 3
  0019b	8d 45 e8	 lea	 eax, DWORD PTR __k$[ebp]
  0019e	c6 45 f6 00	 mov	 BYTE PTR __k$[ebp+14], 0
  001a2	5a		 pop	 edx
$LL104@LoadFloat_:
  001a3	81 30 ed ec eb
	ea		 xor	 DWORD PTR [eax], -353637139 ; eaebecedH
  001a9	83 c0 04	 add	 eax, 4
  001ac	4a		 dec	 edx
  001ad	75 f4		 jne	 SHORT $LL104@LoadFloat_
  001af	6a 0c		 push	 12			; 0000000cH
  001b1	58		 pop	 eax
$LL101@LoadFloat_:
  001b2	8b c8		 mov	 ecx, eax
  001b4	81 e1 03 00 00
	80		 and	 ecx, -2147483645	; 80000003H
  001ba	79 05		 jns	 SHORT $LN111@LoadFloat_
  001bc	49		 dec	 ecx
  001bd	83 c9 fc	 or	 ecx, -4			; fffffffcH
  001c0	41		 inc	 ecx
$LN111@LoadFloat_:
  001c1	b2 ed		 mov	 dl, -19			; ffffffedH
  001c3	2a d1		 sub	 dl, cl
  001c5	30 54 05 e8	 xor	 BYTE PTR __k$[ebp+eax], dl
  001c9	40		 inc	 eax
  001ca	83 f8 0e	 cmp	 eax, 14			; 0000000eH
  001cd	7c e3		 jl	 SHORT $LL101@LoadFloat_

; 137  : 		return LoadFloat(_k, f);

  001cf	f3 0f 10 45 0c	 movss	 xmm0, DWORD PTR _f$[ebp]
  001d4	51		 push	 ecx
  001d5	8d 45 e8	 lea	 eax, DWORD PTR __k$[ebp]
  001d8	f3 0f 11 04 24	 movss	 DWORD PTR [esp], xmm0
  001dd	50		 push	 eax
  001de	8b ce		 mov	 ecx, esi
  001e0	ff 15 00 00 00
	00		 call	 DWORD PTR __imp_?LoadFloat@ioINILoader@@QAEMPBDM@Z

; 138  : 	}

  001e6	8b 4d fc	 mov	 ecx, DWORD PTR __$ArrayPad$[ebp]
  001e9	33 cd		 xor	 ecx, ebp
  001eb	5e		 pop	 esi
  001ec	e8 00 00 00 00	 call	 @__security_check_cookie@4
  001f1	c9		 leave
  001f2	c2 08 00	 ret	 8
??$LoadFloat_e@$0P@@ioINILoader@@QAEMAAY0P@$$CBDM@Z ENDP ; ioINILoader::LoadFloat_e<15>
_TEXT	ENDS
PUBLIC	_this$GSCopy$
PUBLIC	__$ArrayPad$
PUBLIC	??$LoadString_e@$0M@@ioINILoader@@QAEXAAY0M@$$CBDAAY00$$CBDPADH@Z ; ioINILoader::LoadString_e<12>
EXTRN	__imp_?LoadStringA@ioINILoader@@QAEXPBD0PADH@Z:PROC
; Function compile flags: /Ogsp
;	COMDAT ??$LoadString_e@$0M@@ioINILoader@@QAEXAAY0M@$$CBDAAY00$$CBDPADH@Z
_TEXT	SEGMENT
_this$GSCopy$ = -24					; size = 4
__k$ = -20						; size = 12
__$ArrayPad$ = -4					; size = 4
_k$ = 8							; size = 4
_d$ = 12						; size = 4
_b$ = 16						; size = 4
_i$ = 20						; size = 4
??$LoadString_e@$0M@@ioINILoader@@QAEXAAY0M@$$CBDAAY00$$CBDPADH@Z PROC ; ioINILoader::LoadString_e<12>, COMDAT
; _this$ = ecx

; 161  : 	{

  00000	55		 push	 ebp
  00001	8b ec		 mov	 ebp, esp
  00003	83 ec 18	 sub	 esp, 24			; 00000018H
  00006	a1 00 00 00 00	 mov	 eax, DWORD PTR ___security_cookie
  0000b	33 c5		 xor	 eax, ebp
  0000d	89 45 fc	 mov	 DWORD PTR __$ArrayPad$[ebp], eax
  00010	8b 45 08	 mov	 eax, DWORD PTR _k$[ebp]

; 162  : 		_ENCSTR(k, _k);

  00013	8a 10		 mov	 dl, BYTE PTR [eax]
  00015	56		 push	 esi
  00016	8b 75 0c	 mov	 esi, DWORD PTR _d$[ebp]
  00019	57		 push	 edi
  0001a	8b 7d 10	 mov	 edi, DWORD PTR _b$[ebp]
  0001d	89 4d e8	 mov	 DWORD PTR _this$GSCopy$[ebp], ecx
  00020	84 d2		 test	 dl, dl
  00022	0f 84 32 01 00
	00		 je	 $LN96@LoadString
  00028	80 f2 ed	 xor	 dl, -19			; ffffffedH
  0002b	88 55 ec	 mov	 BYTE PTR __k$[ebp], dl
  0002e	8a 50 01	 mov	 dl, BYTE PTR [eax+1]
  00031	84 d2		 test	 dl, dl
  00033	0f 84 1b 01 00
	00		 je	 $LN95@LoadString
  00039	80 f2 ec	 xor	 dl, -20			; ffffffecH
  0003c	88 55 ed	 mov	 BYTE PTR __k$[ebp+1], dl
  0003f	8a 50 02	 mov	 dl, BYTE PTR [eax+2]
  00042	84 d2		 test	 dl, dl
  00044	0f 84 04 01 00
	00		 je	 $LN94@LoadString
  0004a	b1 eb		 mov	 cl, -21			; ffffffebH
  0004c	32 d1		 xor	 dl, cl
  0004e	88 55 ee	 mov	 BYTE PTR __k$[ebp+2], dl
  00051	8a 50 03	 mov	 dl, BYTE PTR [eax+3]
  00054	84 d2		 test	 dl, dl
  00056	0f 84 ec 00 00
	00		 je	 $LN93@LoadString
  0005c	80 f2 ea	 xor	 dl, -22			; ffffffeaH
  0005f	88 55 ef	 mov	 BYTE PTR __k$[ebp+3], dl
  00062	8a 50 04	 mov	 dl, BYTE PTR [eax+4]
  00065	84 d2		 test	 dl, dl
  00067	0f 84 d5 00 00
	00		 je	 $LN92@LoadString
  0006d	80 f2 ed	 xor	 dl, -19			; ffffffedH
  00070	88 55 f0	 mov	 BYTE PTR __k$[ebp+4], dl
  00073	8a 50 05	 mov	 dl, BYTE PTR [eax+5]
  00076	84 d2		 test	 dl, dl
  00078	0f 84 be 00 00
	00		 je	 $LN91@LoadString
  0007e	80 f2 ec	 xor	 dl, -20			; ffffffecH
  00081	88 55 f1	 mov	 BYTE PTR __k$[ebp+5], dl
  00084	8a 50 06	 mov	 dl, BYTE PTR [eax+6]
  00087	84 d2		 test	 dl, dl
  00089	0f 84 a8 00 00
	00		 je	 $LN90@LoadString
  0008f	32 d1		 xor	 dl, cl
  00091	88 55 f2	 mov	 BYTE PTR __k$[ebp+6], dl
  00094	8a 50 07	 mov	 dl, BYTE PTR [eax+7]
  00097	84 d2		 test	 dl, dl
  00099	0f 84 92 00 00
	00		 je	 $LN89@LoadString
  0009f	80 f2 ea	 xor	 dl, -22			; ffffffeaH
  000a2	88 55 f3	 mov	 BYTE PTR __k$[ebp+7], dl
  000a5	8a 50 08	 mov	 dl, BYTE PTR [eax+8]
  000a8	84 d2		 test	 dl, dl
  000aa	74 7f		 je	 SHORT $LN88@LoadString
  000ac	80 f2 ed	 xor	 dl, -19			; ffffffedH
  000af	88 55 f4	 mov	 BYTE PTR __k$[ebp+8], dl
  000b2	8a 50 09	 mov	 dl, BYTE PTR [eax+9]
  000b5	84 d2		 test	 dl, dl
  000b7	74 6c		 je	 SHORT $LN87@LoadString
  000b9	80 f2 ec	 xor	 dl, -20			; ffffffecH
  000bc	88 55 f5	 mov	 BYTE PTR __k$[ebp+9], dl
  000bf	8a 50 0a	 mov	 dl, BYTE PTR [eax+10]
  000c2	84 d2		 test	 dl, dl
  000c4	74 5a		 je	 SHORT $LN86@LoadString
  000c6	32 d1		 xor	 dl, cl
  000c8	80 78 0b 00	 cmp	 BYTE PTR [eax+11], 0
  000cc	88 55 f6	 mov	 BYTE PTR __k$[ebp+10], dl
  000cf	0f 84 89 00 00
	00		 je	 $LN111@LoadString
  000d5	8a 50 0c	 mov	 dl, BYTE PTR [eax+12]
  000d8	84 d2		 test	 dl, dl
  000da	74 3e		 je	 SHORT $LN84@LoadString
  000dc	80 f2 ed	 xor	 dl, -19			; ffffffedH
  000df	88 55 f8	 mov	 BYTE PTR __k$[ebp+12], dl
  000e2	8a 50 0d	 mov	 dl, BYTE PTR [eax+13]
  000e5	84 d2		 test	 dl, dl
  000e7	74 2b		 je	 SHORT $LN83@LoadString
  000e9	80 f2 ec	 xor	 dl, -20			; ffffffecH
  000ec	88 55 f9	 mov	 BYTE PTR __k$[ebp+13], dl
  000ef	8a 50 0e	 mov	 dl, BYTE PTR [eax+14]
  000f2	84 d2		 test	 dl, dl
  000f4	74 19		 je	 SHORT $LN82@LoadString
  000f6	8a 40 0f	 mov	 al, BYTE PTR [eax+15]
  000f9	32 d1		 xor	 dl, cl
  000fb	88 55 fa	 mov	 BYTE PTR __k$[ebp+14], dl
  000fe	84 c0		 test	 al, al
  00100	74 07		 je	 SHORT $LN81@LoadString
  00102	34 ea		 xor	 al, -22			; ffffffeaH
  00104	88 45 fb	 mov	 BYTE PTR __k$[ebp+15], al
  00107	eb 55		 jmp	 SHORT $LN111@LoadString
$LN81@LoadString:
  00109	c6 45 fb ea	 mov	 BYTE PTR __k$[ebp+15], -22 ; ffffffeaH
  0010d	eb 4f		 jmp	 SHORT $LN111@LoadString
$LN82@LoadString:
  0010f	88 4d fa	 mov	 BYTE PTR __k$[ebp+14], cl
  00112	eb 4a		 jmp	 SHORT $LN111@LoadString
$LN83@LoadString:
  00114	c6 45 f9 ec	 mov	 BYTE PTR __k$[ebp+13], -20 ; ffffffecH
  00118	eb 44		 jmp	 SHORT $LN111@LoadString
$LN84@LoadString:
  0011a	c6 45 f8 ed	 mov	 BYTE PTR __k$[ebp+12], -19 ; ffffffedH
  0011e	eb 3e		 jmp	 SHORT $LN111@LoadString
$LN86@LoadString:
  00120	88 4d f6	 mov	 BYTE PTR __k$[ebp+10], cl
  00123	eb 39		 jmp	 SHORT $LN111@LoadString
$LN87@LoadString:
  00125	c6 45 f5 ec	 mov	 BYTE PTR __k$[ebp+9], -20 ; ffffffecH
  00129	eb 33		 jmp	 SHORT $LN111@LoadString
$LN88@LoadString:
  0012b	c6 45 f4 ed	 mov	 BYTE PTR __k$[ebp+8], -19 ; ffffffedH
  0012f	eb 2d		 jmp	 SHORT $LN111@LoadString
$LN89@LoadString:
  00131	c6 45 f3 ea	 mov	 BYTE PTR __k$[ebp+7], -22 ; ffffffeaH
  00135	eb 27		 jmp	 SHORT $LN111@LoadString
$LN90@LoadString:
  00137	88 4d f2	 mov	 BYTE PTR __k$[ebp+6], cl
  0013a	eb 22		 jmp	 SHORT $LN111@LoadString
$LN91@LoadString:
  0013c	c6 45 f1 ec	 mov	 BYTE PTR __k$[ebp+5], -20 ; ffffffecH
  00140	eb 1c		 jmp	 SHORT $LN111@LoadString
$LN92@LoadString:
  00142	c6 45 f0 ed	 mov	 BYTE PTR __k$[ebp+4], -19 ; ffffffedH
  00146	eb 16		 jmp	 SHORT $LN111@LoadString
$LN93@LoadString:
  00148	c6 45 ef ea	 mov	 BYTE PTR __k$[ebp+3], -22 ; ffffffeaH
  0014c	eb 10		 jmp	 SHORT $LN111@LoadString
$LN94@LoadString:
  0014e	c6 45 ee eb	 mov	 BYTE PTR __k$[ebp+2], -21 ; ffffffebH
  00152	eb 0a		 jmp	 SHORT $LN111@LoadString
$LN95@LoadString:
  00154	c6 45 ed ec	 mov	 BYTE PTR __k$[ebp+1], -20 ; ffffffecH
  00158	eb 04		 jmp	 SHORT $LN111@LoadString
$LN96@LoadString:
  0015a	c6 45 ec ed	 mov	 BYTE PTR __k$[ebp], -19	; ffffffedH
$LN111@LoadString:
  0015e	6a 02		 push	 2
  00160	8d 45 ec	 lea	 eax, DWORD PTR __k$[ebp]
  00163	c6 45 f7 00	 mov	 BYTE PTR __k$[ebp+11], 0
  00167	5a		 pop	 edx
$LL104@LoadString:
  00168	81 30 ed ec eb
	ea		 xor	 DWORD PTR [eax], -353637139 ; eaebecedH
  0016e	83 c0 04	 add	 eax, 4
  00171	4a		 dec	 edx
  00172	75 f4		 jne	 SHORT $LL104@LoadString
  00174	6a 08		 push	 8
  00176	58		 pop	 eax
$LL101@LoadString:
  00177	8b c8		 mov	 ecx, eax
  00179	81 e1 03 00 00
	80		 and	 ecx, -2147483645	; 80000003H
  0017f	79 05		 jns	 SHORT $LN112@LoadString
  00181	49		 dec	 ecx
  00182	83 c9 fc	 or	 ecx, -4			; fffffffcH
  00185	41		 inc	 ecx
$LN112@LoadString:
  00186	b2 ed		 mov	 dl, -19			; ffffffedH
  00188	2a d1		 sub	 dl, cl
  0018a	30 54 05 ec	 xor	 BYTE PTR __k$[ebp+eax], dl
  0018e	40		 inc	 eax
  0018f	83 f8 0b	 cmp	 eax, 11			; 0000000bH
  00192	7c e3		 jl	 SHORT $LL101@LoadString

; 163  : 		LoadString(_k, d, b, i);

  00194	ff 75 14	 push	 DWORD PTR _i$[ebp]
  00197	8b 4d e8	 mov	 ecx, DWORD PTR _this$GSCopy$[ebp]
  0019a	57		 push	 edi
  0019b	56		 push	 esi
  0019c	8d 45 ec	 lea	 eax, DWORD PTR __k$[ebp]
  0019f	50		 push	 eax
  001a0	ff 15 00 00 00
	00		 call	 DWORD PTR __imp_?LoadStringA@ioINILoader@@QAEXPBD0PADH@Z

; 164  : 	}

  001a6	8b 4d fc	 mov	 ecx, DWORD PTR __$ArrayPad$[ebp]
  001a9	5f		 pop	 edi
  001aa	33 cd		 xor	 ecx, ebp
  001ac	5e		 pop	 esi
  001ad	e8 00 00 00 00	 call	 @__security_check_cookie@4
  001b2	c9		 leave
  001b3	c2 10 00	 ret	 16			; 00000010H
??$LoadString_e@$0M@@ioINILoader@@QAEXAAY0M@$$CBDAAY00$$CBDPADH@Z ENDP ; ioINILoader::LoadString_e<12>
_TEXT	ENDS
PUBLIC	__$ArrayPad$
PUBLIC	??$LoadInt_e@$0BD@@ioINILoader@@QAEHAAY0BD@$$CBDH@Z ; ioINILoader::LoadInt_e<19>
EXTRN	__imp_?LoadInt@ioINILoader@@QAEHPBDH@Z:PROC
; Function compile flags: /Ogsp
;	COMDAT ??$LoadInt_e@$0BD@@ioINILoader@@QAEHAAY0BD@$$CBDH@Z
_TEXT	SEGMENT
__k$ = -28						; size = 19
__$ArrayPad$ = -4					; size = 4
_k$ = 8							; size = 4
_i$ = 12						; size = 4
??$LoadInt_e@$0BD@@ioINILoader@@QAEHAAY0BD@$$CBDH@Z PROC ; ioINILoader::LoadInt_e<19>, COMDAT
; _this$ = ecx

; 118  : 	{

  00000	55		 push	 ebp
  00001	8b ec		 mov	 ebp, esp
  00003	83 ec 1c	 sub	 esp, 28			; 0000001cH
  00006	a1 00 00 00 00	 mov	 eax, DWORD PTR ___security_cookie
  0000b	33 c5		 xor	 eax, ebp
  0000d	89 45 fc	 mov	 DWORD PTR __$ArrayPad$[ebp], eax
  00010	8b 45 08	 mov	 eax, DWORD PTR _k$[ebp]

; 119  : 		_ENCSTR(k, _k);

  00013	8a 10		 mov	 dl, BYTE PTR [eax]
  00015	56		 push	 esi
  00016	8b f1		 mov	 esi, ecx
  00018	84 d2		 test	 dl, dl
  0001a	0f 84 cf 01 00
	00		 je	 $LN96@LoadInt_e
  00020	80 f2 ed	 xor	 dl, -19			; ffffffedH
  00023	88 55 e4	 mov	 BYTE PTR __k$[ebp], dl
  00026	8a 50 01	 mov	 dl, BYTE PTR [eax+1]
  00029	84 d2		 test	 dl, dl
  0002b	0f 84 b8 01 00
	00		 je	 $LN95@LoadInt_e
  00031	b1 ec		 mov	 cl, -20			; ffffffecH
  00033	32 d1		 xor	 dl, cl
  00035	88 55 e5	 mov	 BYTE PTR __k$[ebp+1], dl
  00038	8a 50 02	 mov	 dl, BYTE PTR [eax+2]
  0003b	84 d2		 test	 dl, dl
  0003d	0f 84 a0 01 00
	00		 je	 $LN94@LoadInt_e
  00043	80 f2 eb	 xor	 dl, -21			; ffffffebH
  00046	88 55 e6	 mov	 BYTE PTR __k$[ebp+2], dl
  00049	8a 50 03	 mov	 dl, BYTE PTR [eax+3]
  0004c	84 d2		 test	 dl, dl
  0004e	0f 84 89 01 00
	00		 je	 $LN93@LoadInt_e
  00054	80 f2 ea	 xor	 dl, -22			; ffffffeaH
  00057	88 55 e7	 mov	 BYTE PTR __k$[ebp+3], dl
  0005a	8a 50 04	 mov	 dl, BYTE PTR [eax+4]
  0005d	84 d2		 test	 dl, dl
  0005f	0f 84 72 01 00
	00		 je	 $LN92@LoadInt_e
  00065	80 f2 ed	 xor	 dl, -19			; ffffffedH
  00068	88 55 e8	 mov	 BYTE PTR __k$[ebp+4], dl
  0006b	8a 50 05	 mov	 dl, BYTE PTR [eax+5]
  0006e	84 d2		 test	 dl, dl
  00070	0f 84 5c 01 00
	00		 je	 $LN91@LoadInt_e
  00076	32 d1		 xor	 dl, cl
  00078	88 55 e9	 mov	 BYTE PTR __k$[ebp+5], dl
  0007b	8a 50 06	 mov	 dl, BYTE PTR [eax+6]
  0007e	84 d2		 test	 dl, dl
  00080	0f 84 46 01 00
	00		 je	 $LN90@LoadInt_e
  00086	80 f2 eb	 xor	 dl, -21			; ffffffebH
  00089	88 55 ea	 mov	 BYTE PTR __k$[ebp+6], dl
  0008c	8a 50 07	 mov	 dl, BYTE PTR [eax+7]
  0008f	84 d2		 test	 dl, dl
  00091	0f 84 2f 01 00
	00		 je	 $LN89@LoadInt_e
  00097	80 f2 ea	 xor	 dl, -22			; ffffffeaH
  0009a	88 55 eb	 mov	 BYTE PTR __k$[ebp+7], dl
  0009d	8a 50 08	 mov	 dl, BYTE PTR [eax+8]
  000a0	84 d2		 test	 dl, dl
  000a2	0f 84 18 01 00
	00		 je	 $LN88@LoadInt_e
  000a8	80 f2 ed	 xor	 dl, -19			; ffffffedH
  000ab	88 55 ec	 mov	 BYTE PTR __k$[ebp+8], dl
  000ae	8a 50 09	 mov	 dl, BYTE PTR [eax+9]
  000b1	84 d2		 test	 dl, dl
  000b3	0f 84 02 01 00
	00		 je	 $LN87@LoadInt_e
  000b9	32 d1		 xor	 dl, cl
  000bb	88 55 ed	 mov	 BYTE PTR __k$[ebp+9], dl
  000be	8a 50 0a	 mov	 dl, BYTE PTR [eax+10]
  000c1	84 d2		 test	 dl, dl
  000c3	0f 84 ec 00 00
	00		 je	 $LN86@LoadInt_e
  000c9	80 f2 eb	 xor	 dl, -21			; ffffffebH
  000cc	88 55 ee	 mov	 BYTE PTR __k$[ebp+10], dl
  000cf	8a 50 0b	 mov	 dl, BYTE PTR [eax+11]
  000d2	84 d2		 test	 dl, dl
  000d4	0f 84 d5 00 00
	00		 je	 $LN85@LoadInt_e
  000da	80 f2 ea	 xor	 dl, -22			; ffffffeaH
  000dd	88 55 ef	 mov	 BYTE PTR __k$[ebp+11], dl
  000e0	8a 50 0c	 mov	 dl, BYTE PTR [eax+12]
  000e3	84 d2		 test	 dl, dl
  000e5	0f 84 be 00 00
	00		 je	 $LN84@LoadInt_e
  000eb	80 f2 ed	 xor	 dl, -19			; ffffffedH
  000ee	88 55 f0	 mov	 BYTE PTR __k$[ebp+12], dl
  000f1	8a 50 0d	 mov	 dl, BYTE PTR [eax+13]
  000f4	84 d2		 test	 dl, dl
  000f6	0f 84 a8 00 00
	00		 je	 $LN83@LoadInt_e
  000fc	32 d1		 xor	 dl, cl
  000fe	88 55 f1	 mov	 BYTE PTR __k$[ebp+13], dl
  00101	8a 50 0e	 mov	 dl, BYTE PTR [eax+14]
  00104	84 d2		 test	 dl, dl
  00106	0f 84 92 00 00
	00		 je	 $LN82@LoadInt_e
  0010c	80 f2 eb	 xor	 dl, -21			; ffffffebH
  0010f	88 55 f2	 mov	 BYTE PTR __k$[ebp+14], dl
  00112	8a 50 0f	 mov	 dl, BYTE PTR [eax+15]
  00115	84 d2		 test	 dl, dl
  00117	74 7f		 je	 SHORT $LN81@LoadInt_e
  00119	80 f2 ea	 xor	 dl, -22			; ffffffeaH
  0011c	88 55 f3	 mov	 BYTE PTR __k$[ebp+15], dl
  0011f	8a 50 10	 mov	 dl, BYTE PTR [eax+16]
  00122	84 d2		 test	 dl, dl
  00124	74 6c		 je	 SHORT $LN80@LoadInt_e
  00126	80 f2 ed	 xor	 dl, -19			; ffffffedH
  00129	88 55 f4	 mov	 BYTE PTR __k$[ebp+16], dl
  0012c	8a 50 11	 mov	 dl, BYTE PTR [eax+17]
  0012f	84 d2		 test	 dl, dl
  00131	74 5a		 je	 SHORT $LN79@LoadInt_e
  00133	32 d1		 xor	 dl, cl
  00135	80 78 12 00	 cmp	 BYTE PTR [eax+18], 0
  00139	88 55 f5	 mov	 BYTE PTR __k$[ebp+17], dl
  0013c	0f 84 b1 00 00
	00		 je	 $LN1@LoadInt_e
  00142	8a 50 13	 mov	 dl, BYTE PTR [eax+19]
  00145	84 d2		 test	 dl, dl
  00147	74 3e		 je	 SHORT $LN77@LoadInt_e
  00149	80 f2 ea	 xor	 dl, -22			; ffffffeaH
  0014c	88 55 f7	 mov	 BYTE PTR __k$[ebp+19], dl
  0014f	8a 50 14	 mov	 dl, BYTE PTR [eax+20]
  00152	84 d2		 test	 dl, dl
  00154	74 2b		 je	 SHORT $LN76@LoadInt_e
  00156	80 f2 ed	 xor	 dl, -19			; ffffffedH
  00159	88 55 f8	 mov	 BYTE PTR __k$[ebp+20], dl
  0015c	8a 50 15	 mov	 dl, BYTE PTR [eax+21]
  0015f	84 d2		 test	 dl, dl
  00161	74 19		 je	 SHORT $LN75@LoadInt_e
  00163	8a 40 16	 mov	 al, BYTE PTR [eax+22]
  00166	32 d1		 xor	 dl, cl
  00168	88 55 f9	 mov	 BYTE PTR __k$[ebp+21], dl
  0016b	84 c0		 test	 al, al
  0016d	74 07		 je	 SHORT $LN74@LoadInt_e
  0016f	34 eb		 xor	 al, -21			; ffffffebH
  00171	88 45 fa	 mov	 BYTE PTR __k$[ebp+22], al
  00174	eb 7d		 jmp	 SHORT $LN1@LoadInt_e
$LN74@LoadInt_e:
  00176	c6 45 fa eb	 mov	 BYTE PTR __k$[ebp+22], -21 ; ffffffebH
  0017a	eb 77		 jmp	 SHORT $LN1@LoadInt_e
$LN75@LoadInt_e:
  0017c	88 4d f9	 mov	 BYTE PTR __k$[ebp+21], cl
  0017f	eb 72		 jmp	 SHORT $LN1@LoadInt_e
$LN76@LoadInt_e:
  00181	c6 45 f8 ed	 mov	 BYTE PTR __k$[ebp+20], -19 ; ffffffedH
  00185	eb 6c		 jmp	 SHORT $LN1@LoadInt_e
$LN77@LoadInt_e:
  00187	c6 45 f7 ea	 mov	 BYTE PTR __k$[ebp+19], -22 ; ffffffeaH
  0018b	eb 66		 jmp	 SHORT $LN1@LoadInt_e
$LN79@LoadInt_e:
  0018d	88 4d f5	 mov	 BYTE PTR __k$[ebp+17], cl
  00190	eb 61		 jmp	 SHORT $LN1@LoadInt_e
$LN80@LoadInt_e:
  00192	c6 45 f4 ed	 mov	 BYTE PTR __k$[ebp+16], -19 ; ffffffedH
  00196	eb 5b		 jmp	 SHORT $LN1@LoadInt_e
$LN81@LoadInt_e:
  00198	c6 45 f3 ea	 mov	 BYTE PTR __k$[ebp+15], -22 ; ffffffeaH
  0019c	eb 55		 jmp	 SHORT $LN1@LoadInt_e
$LN82@LoadInt_e:
  0019e	c6 45 f2 eb	 mov	 BYTE PTR __k$[ebp+14], -21 ; ffffffebH
  001a2	eb 4f		 jmp	 SHORT $LN1@LoadInt_e
$LN83@LoadInt_e:
  001a4	88 4d f1	 mov	 BYTE PTR __k$[ebp+13], cl
  001a7	eb 4a		 jmp	 SHORT $LN1@LoadInt_e
$LN84@LoadInt_e:
  001a9	c6 45 f0 ed	 mov	 BYTE PTR __k$[ebp+12], -19 ; ffffffedH
  001ad	eb 44		 jmp	 SHORT $LN1@LoadInt_e
$LN85@LoadInt_e:
  001af	c6 45 ef ea	 mov	 BYTE PTR __k$[ebp+11], -22 ; ffffffeaH
  001b3	eb 3e		 jmp	 SHORT $LN1@LoadInt_e
$LN86@LoadInt_e:
  001b5	c6 45 ee eb	 mov	 BYTE PTR __k$[ebp+10], -21 ; ffffffebH
  001b9	eb 38		 jmp	 SHORT $LN1@LoadInt_e
$LN87@LoadInt_e:
  001bb	88 4d ed	 mov	 BYTE PTR __k$[ebp+9], cl
  001be	eb 33		 jmp	 SHORT $LN1@LoadInt_e
$LN88@LoadInt_e:
  001c0	c6 45 ec ed	 mov	 BYTE PTR __k$[ebp+8], -19 ; ffffffedH
  001c4	eb 2d		 jmp	 SHORT $LN1@LoadInt_e
$LN89@LoadInt_e:
  001c6	c6 45 eb ea	 mov	 BYTE PTR __k$[ebp+7], -22 ; ffffffeaH
  001ca	eb 27		 jmp	 SHORT $LN1@LoadInt_e
$LN90@LoadInt_e:
  001cc	c6 45 ea eb	 mov	 BYTE PTR __k$[ebp+6], -21 ; ffffffebH
  001d0	eb 21		 jmp	 SHORT $LN1@LoadInt_e
$LN91@LoadInt_e:
  001d2	88 4d e9	 mov	 BYTE PTR __k$[ebp+5], cl
  001d5	eb 1c		 jmp	 SHORT $LN1@LoadInt_e
$LN92@LoadInt_e:
  001d7	c6 45 e8 ed	 mov	 BYTE PTR __k$[ebp+4], -19 ; ffffffedH
  001db	eb 16		 jmp	 SHORT $LN1@LoadInt_e
$LN93@LoadInt_e:
  001dd	c6 45 e7 ea	 mov	 BYTE PTR __k$[ebp+3], -22 ; ffffffeaH
  001e1	eb 10		 jmp	 SHORT $LN1@LoadInt_e
$LN94@LoadInt_e:
  001e3	c6 45 e6 eb	 mov	 BYTE PTR __k$[ebp+2], -21 ; ffffffebH
  001e7	eb 0a		 jmp	 SHORT $LN1@LoadInt_e
$LN95@LoadInt_e:
  001e9	c6 45 e5 ec	 mov	 BYTE PTR __k$[ebp+1], -20 ; ffffffecH
  001ed	eb 04		 jmp	 SHORT $LN1@LoadInt_e
$LN96@LoadInt_e:
  001ef	c6 45 e4 ed	 mov	 BYTE PTR __k$[ebp], -19	; ffffffedH
$LN1@LoadInt_e:
  001f3	6a 04		 push	 4
  001f5	8d 45 e4	 lea	 eax, DWORD PTR __k$[ebp]
  001f8	c6 45 f6 00	 mov	 BYTE PTR __k$[ebp+18], 0
  001fc	5a		 pop	 edx
$LL104@LoadInt_e:
  001fd	81 30 ed ec eb
	ea		 xor	 DWORD PTR [eax], -353637139 ; eaebecedH
  00203	83 c0 04	 add	 eax, 4
  00206	4a		 dec	 edx
  00207	75 f4		 jne	 SHORT $LL104@LoadInt_e
  00209	6a 10		 push	 16			; 00000010H
  0020b	58		 pop	 eax
$LL101@LoadInt_e:
  0020c	8b c8		 mov	 ecx, eax
  0020e	81 e1 03 00 00
	80		 and	 ecx, -2147483645	; 80000003H
  00214	79 05		 jns	 SHORT $LN111@LoadInt_e
  00216	49		 dec	 ecx
  00217	83 c9 fc	 or	 ecx, -4			; fffffffcH
  0021a	41		 inc	 ecx
$LN111@LoadInt_e:
  0021b	b2 ed		 mov	 dl, -19			; ffffffedH
  0021d	2a d1		 sub	 dl, cl
  0021f	30 54 05 e4	 xor	 BYTE PTR __k$[ebp+eax], dl
  00223	40		 inc	 eax
  00224	83 f8 12	 cmp	 eax, 18			; 00000012H
  00227	7c e3		 jl	 SHORT $LL101@LoadInt_e

; 120  : 		return LoadInt(_k, i);

  00229	ff 75 0c	 push	 DWORD PTR _i$[ebp]
  0022c	8d 45 e4	 lea	 eax, DWORD PTR __k$[ebp]
  0022f	50		 push	 eax
  00230	8b ce		 mov	 ecx, esi
  00232	ff 15 00 00 00
	00		 call	 DWORD PTR __imp_?LoadInt@ioINILoader@@QAEHPBDH@Z

; 121  : 	}

  00238	8b 4d fc	 mov	 ecx, DWORD PTR __$ArrayPad$[ebp]
  0023b	33 cd		 xor	 ecx, ebp
  0023d	5e		 pop	 esi
  0023e	e8 00 00 00 00	 call	 @__security_check_cookie@4
  00243	c9		 leave
  00244	c2 08 00	 ret	 8
??$LoadInt_e@$0BD@@ioINILoader@@QAEHAAY0BD@$$CBDH@Z ENDP ; ioINILoader::LoadInt_e<19>
_TEXT	ENDS
PUBLIC	__$ArrayPad$
PUBLIC	??$LoadInt_e@$0BF@@ioINILoader@@QAEHAAY0BF@$$CBDH@Z ; ioINILoader::LoadInt_e<21>
; Function compile flags: /Ogsp
;	COMDAT ??$LoadInt_e@$0BF@@ioINILoader@@QAEHAAY0BF@$$CBDH@Z
_TEXT	SEGMENT
__k$ = -32						; size = 21
__$ArrayPad$ = -4					; size = 4
_k$ = 8							; size = 4
_i$ = 12						; size = 4
??$LoadInt_e@$0BF@@ioINILoader@@QAEHAAY0BF@$$CBDH@Z PROC ; ioINILoader::LoadInt_e<21>, COMDAT
; _this$ = ecx

; 118  : 	{

  00000	55		 push	 ebp
  00001	8b ec		 mov	 ebp, esp
  00003	83 ec 20	 sub	 esp, 32			; 00000020H
  00006	a1 00 00 00 00	 mov	 eax, DWORD PTR ___security_cookie
  0000b	33 c5		 xor	 eax, ebp
  0000d	89 45 fc	 mov	 DWORD PTR __$ArrayPad$[ebp], eax
  00010	8b 45 08	 mov	 eax, DWORD PTR _k$[ebp]

; 119  : 		_ENCSTR(k, _k);

  00013	8a 10		 mov	 dl, BYTE PTR [eax]
  00015	53		 push	 ebx
  00016	56		 push	 esi
  00017	8b f1		 mov	 esi, ecx
  00019	84 d2		 test	 dl, dl
  0001b	0f 84 f7 01 00
	00		 je	 $LN96@LoadInt_e@2
  00021	80 f2 ed	 xor	 dl, -19			; ffffffedH
  00024	88 55 e0	 mov	 BYTE PTR __k$[ebp], dl
  00027	8a 50 01	 mov	 dl, BYTE PTR [eax+1]
  0002a	84 d2		 test	 dl, dl
  0002c	0f 84 e0 01 00
	00		 je	 $LN95@LoadInt_e@2
  00032	b1 ec		 mov	 cl, -20			; ffffffecH
  00034	32 d1		 xor	 dl, cl
  00036	88 55 e1	 mov	 BYTE PTR __k$[ebp+1], dl
  00039	8a 50 02	 mov	 dl, BYTE PTR [eax+2]
  0003c	84 d2		 test	 dl, dl
  0003e	0f 84 c8 01 00
	00		 je	 $LN94@LoadInt_e@2
  00044	b3 eb		 mov	 bl, -21			; ffffffebH
  00046	32 d3		 xor	 dl, bl
  00048	88 55 e2	 mov	 BYTE PTR __k$[ebp+2], dl
  0004b	8a 50 03	 mov	 dl, BYTE PTR [eax+3]
  0004e	84 d2		 test	 dl, dl
  00050	0f 84 b0 01 00
	00		 je	 $LN93@LoadInt_e@2
  00056	80 f2 ea	 xor	 dl, -22			; ffffffeaH
  00059	88 55 e3	 mov	 BYTE PTR __k$[ebp+3], dl
  0005c	8a 50 04	 mov	 dl, BYTE PTR [eax+4]
  0005f	84 d2		 test	 dl, dl
  00061	0f 84 99 01 00
	00		 je	 $LN92@LoadInt_e@2
  00067	80 f2 ed	 xor	 dl, -19			; ffffffedH
  0006a	88 55 e4	 mov	 BYTE PTR __k$[ebp+4], dl
  0006d	8a 50 05	 mov	 dl, BYTE PTR [eax+5]
  00070	84 d2		 test	 dl, dl
  00072	0f 84 83 01 00
	00		 je	 $LN91@LoadInt_e@2
  00078	32 d1		 xor	 dl, cl
  0007a	88 55 e5	 mov	 BYTE PTR __k$[ebp+5], dl
  0007d	8a 50 06	 mov	 dl, BYTE PTR [eax+6]
  00080	84 d2		 test	 dl, dl
  00082	0f 84 6e 01 00
	00		 je	 $LN90@LoadInt_e@2
  00088	32 d3		 xor	 dl, bl
  0008a	88 55 e6	 mov	 BYTE PTR __k$[ebp+6], dl
  0008d	8a 50 07	 mov	 dl, BYTE PTR [eax+7]
  00090	84 d2		 test	 dl, dl
  00092	0f 84 58 01 00
	00		 je	 $LN89@LoadInt_e@2
  00098	80 f2 ea	 xor	 dl, -22			; ffffffeaH
  0009b	88 55 e7	 mov	 BYTE PTR __k$[ebp+7], dl
  0009e	8a 50 08	 mov	 dl, BYTE PTR [eax+8]
  000a1	84 d2		 test	 dl, dl
  000a3	0f 84 41 01 00
	00		 je	 $LN88@LoadInt_e@2
  000a9	80 f2 ed	 xor	 dl, -19			; ffffffedH
  000ac	88 55 e8	 mov	 BYTE PTR __k$[ebp+8], dl
  000af	8a 50 09	 mov	 dl, BYTE PTR [eax+9]
  000b2	84 d2		 test	 dl, dl
  000b4	0f 84 2b 01 00
	00		 je	 $LN87@LoadInt_e@2
  000ba	32 d1		 xor	 dl, cl
  000bc	88 55 e9	 mov	 BYTE PTR __k$[ebp+9], dl
  000bf	8a 50 0a	 mov	 dl, BYTE PTR [eax+10]
  000c2	84 d2		 test	 dl, dl
  000c4	0f 84 16 01 00
	00		 je	 $LN86@LoadInt_e@2
  000ca	32 d3		 xor	 dl, bl
  000cc	88 55 ea	 mov	 BYTE PTR __k$[ebp+10], dl
  000cf	8a 50 0b	 mov	 dl, BYTE PTR [eax+11]
  000d2	84 d2		 test	 dl, dl
  000d4	0f 84 00 01 00
	00		 je	 $LN85@LoadInt_e@2
  000da	80 f2 ea	 xor	 dl, -22			; ffffffeaH
  000dd	88 55 eb	 mov	 BYTE PTR __k$[ebp+11], dl
  000e0	8a 50 0c	 mov	 dl, BYTE PTR [eax+12]
  000e3	84 d2		 test	 dl, dl
  000e5	0f 84 e9 00 00
	00		 je	 $LN84@LoadInt_e@2
  000eb	80 f2 ed	 xor	 dl, -19			; ffffffedH
  000ee	88 55 ec	 mov	 BYTE PTR __k$[ebp+12], dl
  000f1	8a 50 0d	 mov	 dl, BYTE PTR [eax+13]
  000f4	84 d2		 test	 dl, dl
  000f6	0f 84 d3 00 00
	00		 je	 $LN83@LoadInt_e@2
  000fc	32 d1		 xor	 dl, cl
  000fe	88 55 ed	 mov	 BYTE PTR __k$[ebp+13], dl
  00101	8a 50 0e	 mov	 dl, BYTE PTR [eax+14]
  00104	84 d2		 test	 dl, dl
  00106	0f 84 be 00 00
	00		 je	 $LN82@LoadInt_e@2
  0010c	32 d3		 xor	 dl, bl
  0010e	88 55 ee	 mov	 BYTE PTR __k$[ebp+14], dl
  00111	8a 50 0f	 mov	 dl, BYTE PTR [eax+15]
  00114	84 d2		 test	 dl, dl
  00116	0f 84 a8 00 00
	00		 je	 $LN81@LoadInt_e@2
  0011c	80 f2 ea	 xor	 dl, -22			; ffffffeaH
  0011f	88 55 ef	 mov	 BYTE PTR __k$[ebp+15], dl
  00122	8a 50 10	 mov	 dl, BYTE PTR [eax+16]
  00125	84 d2		 test	 dl, dl
  00127	0f 84 91 00 00
	00		 je	 $LN80@LoadInt_e@2
  0012d	80 f2 ed	 xor	 dl, -19			; ffffffedH
  00130	88 55 f0	 mov	 BYTE PTR __k$[ebp+16], dl
  00133	8a 50 11	 mov	 dl, BYTE PTR [eax+17]
  00136	84 d2		 test	 dl, dl
  00138	74 7f		 je	 SHORT $LN79@LoadInt_e@2
  0013a	32 d1		 xor	 dl, cl
  0013c	88 55 f1	 mov	 BYTE PTR __k$[ebp+17], dl
  0013f	8a 50 12	 mov	 dl, BYTE PTR [eax+18]
  00142	84 d2		 test	 dl, dl
  00144	74 6e		 je	 SHORT $LN78@LoadInt_e@2
  00146	32 d3		 xor	 dl, bl
  00148	88 55 f2	 mov	 BYTE PTR __k$[ebp+18], dl
  0014b	8a 50 13	 mov	 dl, BYTE PTR [eax+19]
  0014e	84 d2		 test	 dl, dl
  00150	74 5c		 je	 SHORT $LN77@LoadInt_e@2
  00152	80 f2 ea	 xor	 dl, -22			; ffffffeaH
  00155	80 78 14 00	 cmp	 BYTE PTR [eax+20], 0
  00159	88 55 f3	 mov	 BYTE PTR __k$[ebp+19], dl
  0015c	0f 84 ba 00 00
	00		 je	 $LN1@LoadInt_e@2
  00162	8a 50 15	 mov	 dl, BYTE PTR [eax+21]
  00165	84 d2		 test	 dl, dl
  00167	74 40		 je	 SHORT $LN75@LoadInt_e@2
  00169	32 d1		 xor	 dl, cl
  0016b	88 55 f5	 mov	 BYTE PTR __k$[ebp+21], dl
  0016e	8a 50 16	 mov	 dl, BYTE PTR [eax+22]
  00171	84 d2		 test	 dl, dl
  00173	74 2f		 je	 SHORT $LN74@LoadInt_e@2
  00175	32 d3		 xor	 dl, bl
  00177	88 55 f6	 mov	 BYTE PTR __k$[ebp+22], dl
  0017a	8a 50 17	 mov	 dl, BYTE PTR [eax+23]
  0017d	84 d2		 test	 dl, dl
  0017f	74 1d		 je	 SHORT $LN73@LoadInt_e@2
  00181	8a 40 18	 mov	 al, BYTE PTR [eax+24]
  00184	80 f2 ea	 xor	 dl, -22			; ffffffeaH
  00187	88 55 f7	 mov	 BYTE PTR __k$[ebp+23], dl
  0018a	84 c0		 test	 al, al
  0018c	74 0a		 je	 SHORT $LN72@LoadInt_e@2
  0018e	34 ed		 xor	 al, -19			; ffffffedH
  00190	88 45 f8	 mov	 BYTE PTR __k$[ebp+24], al
  00193	e9 84 00 00 00	 jmp	 $LN1@LoadInt_e@2
$LN72@LoadInt_e@2:
  00198	c6 45 f8 ed	 mov	 BYTE PTR __k$[ebp+24], -19 ; ffffffedH
  0019c	eb 7e		 jmp	 SHORT $LN1@LoadInt_e@2
$LN73@LoadInt_e@2:
  0019e	c6 45 f7 ea	 mov	 BYTE PTR __k$[ebp+23], -22 ; ffffffeaH
  001a2	eb 78		 jmp	 SHORT $LN1@LoadInt_e@2
$LN74@LoadInt_e@2:
  001a4	88 5d f6	 mov	 BYTE PTR __k$[ebp+22], bl
  001a7	eb 73		 jmp	 SHORT $LN1@LoadInt_e@2
$LN75@LoadInt_e@2:
  001a9	88 4d f5	 mov	 BYTE PTR __k$[ebp+21], cl
  001ac	eb 6e		 jmp	 SHORT $LN1@LoadInt_e@2
$LN77@LoadInt_e@2:
  001ae	c6 45 f3 ea	 mov	 BYTE PTR __k$[ebp+19], -22 ; ffffffeaH
  001b2	eb 68		 jmp	 SHORT $LN1@LoadInt_e@2
$LN78@LoadInt_e@2:
  001b4	88 5d f2	 mov	 BYTE PTR __k$[ebp+18], bl
  001b7	eb 63		 jmp	 SHORT $LN1@LoadInt_e@2
$LN79@LoadInt_e@2:
  001b9	88 4d f1	 mov	 BYTE PTR __k$[ebp+17], cl
  001bc	eb 5e		 jmp	 SHORT $LN1@LoadInt_e@2
$LN80@LoadInt_e@2:
  001be	c6 45 f0 ed	 mov	 BYTE PTR __k$[ebp+16], -19 ; ffffffedH
  001c2	eb 58		 jmp	 SHORT $LN1@LoadInt_e@2
$LN81@LoadInt_e@2:
  001c4	c6 45 ef ea	 mov	 BYTE PTR __k$[ebp+15], -22 ; ffffffeaH
  001c8	eb 52		 jmp	 SHORT $LN1@LoadInt_e@2
$LN82@LoadInt_e@2:
  001ca	88 5d ee	 mov	 BYTE PTR __k$[ebp+14], bl
  001cd	eb 4d		 jmp	 SHORT $LN1@LoadInt_e@2
$LN83@LoadInt_e@2:
  001cf	88 4d ed	 mov	 BYTE PTR __k$[ebp+13], cl
  001d2	eb 48		 jmp	 SHORT $LN1@LoadInt_e@2
$LN84@LoadInt_e@2:
  001d4	c6 45 ec ed	 mov	 BYTE PTR __k$[ebp+12], -19 ; ffffffedH
  001d8	eb 42		 jmp	 SHORT $LN1@LoadInt_e@2
$LN85@LoadInt_e@2:
  001da	c6 45 eb ea	 mov	 BYTE PTR __k$[ebp+11], -22 ; ffffffeaH
  001de	eb 3c		 jmp	 SHORT $LN1@LoadInt_e@2
$LN86@LoadInt_e@2:
  001e0	88 5d ea	 mov	 BYTE PTR __k$[ebp+10], bl
  001e3	eb 37		 jmp	 SHORT $LN1@LoadInt_e@2
$LN87@LoadInt_e@2:
  001e5	88 4d e9	 mov	 BYTE PTR __k$[ebp+9], cl
  001e8	eb 32		 jmp	 SHORT $LN1@LoadInt_e@2
$LN88@LoadInt_e@2:
  001ea	c6 45 e8 ed	 mov	 BYTE PTR __k$[ebp+8], -19 ; ffffffedH
  001ee	eb 2c		 jmp	 SHORT $LN1@LoadInt_e@2
$LN89@LoadInt_e@2:
  001f0	c6 45 e7 ea	 mov	 BYTE PTR __k$[ebp+7], -22 ; ffffffeaH
  001f4	eb 26		 jmp	 SHORT $LN1@LoadInt_e@2
$LN90@LoadInt_e@2:
  001f6	88 5d e6	 mov	 BYTE PTR __k$[ebp+6], bl
  001f9	eb 21		 jmp	 SHORT $LN1@LoadInt_e@2
$LN91@LoadInt_e@2:
  001fb	88 4d e5	 mov	 BYTE PTR __k$[ebp+5], cl
  001fe	eb 1c		 jmp	 SHORT $LN1@LoadInt_e@2
$LN92@LoadInt_e@2:
  00200	c6 45 e4 ed	 mov	 BYTE PTR __k$[ebp+4], -19 ; ffffffedH
  00204	eb 16		 jmp	 SHORT $LN1@LoadInt_e@2
$LN93@LoadInt_e@2:
  00206	c6 45 e3 ea	 mov	 BYTE PTR __k$[ebp+3], -22 ; ffffffeaH
  0020a	eb 10		 jmp	 SHORT $LN1@LoadInt_e@2
$LN94@LoadInt_e@2:
  0020c	c6 45 e2 eb	 mov	 BYTE PTR __k$[ebp+2], -21 ; ffffffebH
  00210	eb 0a		 jmp	 SHORT $LN1@LoadInt_e@2
$LN95@LoadInt_e@2:
  00212	c6 45 e1 ec	 mov	 BYTE PTR __k$[ebp+1], -20 ; ffffffecH
  00216	eb 04		 jmp	 SHORT $LN1@LoadInt_e@2
$LN96@LoadInt_e@2:
  00218	c6 45 e0 ed	 mov	 BYTE PTR __k$[ebp], -19	; ffffffedH
$LN1@LoadInt_e@2:
  0021c	6a 05		 push	 5
  0021e	8d 45 e0	 lea	 eax, DWORD PTR __k$[ebp]
  00221	c6 45 f4 00	 mov	 BYTE PTR __k$[ebp+20], 0
  00225	5a		 pop	 edx
$LL104@LoadInt_e@2:
  00226	81 30 ed ec eb
	ea		 xor	 DWORD PTR [eax], -353637139 ; eaebecedH
  0022c	83 c0 04	 add	 eax, 4
  0022f	4a		 dec	 edx
  00230	75 f4		 jne	 SHORT $LL104@LoadInt_e@2

; 120  : 		return LoadInt(_k, i);

  00232	ff 75 0c	 push	 DWORD PTR _i$[ebp]
  00235	8d 45 e0	 lea	 eax, DWORD PTR __k$[ebp]
  00238	50		 push	 eax
  00239	8b ce		 mov	 ecx, esi
  0023b	ff 15 00 00 00
	00		 call	 DWORD PTR __imp_?LoadInt@ioINILoader@@QAEHPBDH@Z

; 121  : 	}

  00241	8b 4d fc	 mov	 ecx, DWORD PTR __$ArrayPad$[ebp]
  00244	5e		 pop	 esi
  00245	33 cd		 xor	 ecx, ebp
  00247	5b		 pop	 ebx
  00248	e8 00 00 00 00	 call	 @__security_check_cookie@4
  0024d	c9		 leave
  0024e	c2 08 00	 ret	 8
??$LoadInt_e@$0BF@@ioINILoader@@QAEHAAY0BF@$$CBDH@Z ENDP ; ioINILoader::LoadInt_e<21>
_TEXT	ENDS
PUBLIC	__$ArrayPad$
PUBLIC	??$LoadInt_e@$0BK@@ioINILoader@@QAEHAAY0BK@$$CBDH@Z ; ioINILoader::LoadInt_e<26>
; Function compile flags: /Ogsp
;	COMDAT ??$LoadInt_e@$0BK@@ioINILoader@@QAEHAAY0BK@$$CBDH@Z
_TEXT	SEGMENT
__k$ = -36						; size = 26
__$ArrayPad$ = -4					; size = 4
_k$ = 8							; size = 4
_i$ = 12						; size = 4
??$LoadInt_e@$0BK@@ioINILoader@@QAEHAAY0BK@$$CBDH@Z PROC ; ioINILoader::LoadInt_e<26>, COMDAT
; _this$ = ecx

; 118  : 	{

  00000	55		 push	 ebp
  00001	8b ec		 mov	 ebp, esp
  00003	83 ec 24	 sub	 esp, 36			; 00000024H
  00006	a1 00 00 00 00	 mov	 eax, DWORD PTR ___security_cookie
  0000b	33 c5		 xor	 eax, ebp
  0000d	89 45 fc	 mov	 DWORD PTR __$ArrayPad$[ebp], eax
  00010	8b 45 08	 mov	 eax, DWORD PTR _k$[ebp]

; 119  : 		_ENCSTR(k, _k);

  00013	8a 10		 mov	 dl, BYTE PTR [eax]
  00015	53		 push	 ebx
  00016	56		 push	 esi
  00017	8b f1		 mov	 esi, ecx
  00019	84 d2		 test	 dl, dl
  0001b	0f 84 79 02 00
	00		 je	 $LN96@LoadInt_e@3
  00021	80 f2 ed	 xor	 dl, -19			; ffffffedH
  00024	88 55 dc	 mov	 BYTE PTR __k$[ebp], dl
  00027	8a 50 01	 mov	 dl, BYTE PTR [eax+1]
  0002a	84 d2		 test	 dl, dl
  0002c	0f 84 62 02 00
	00		 je	 $LN95@LoadInt_e@3
  00032	80 f2 ec	 xor	 dl, -20			; ffffffecH
  00035	88 55 dd	 mov	 BYTE PTR __k$[ebp+1], dl
  00038	8a 50 02	 mov	 dl, BYTE PTR [eax+2]
  0003b	84 d2		 test	 dl, dl
  0003d	0f 84 4b 02 00
	00		 je	 $LN94@LoadInt_e@3
  00043	b1 eb		 mov	 cl, -21			; ffffffebH
  00045	32 d1		 xor	 dl, cl
  00047	88 55 de	 mov	 BYTE PTR __k$[ebp+2], dl
  0004a	8a 50 03	 mov	 dl, BYTE PTR [eax+3]
  0004d	84 d2		 test	 dl, dl
  0004f	0f 84 33 02 00
	00		 je	 $LN93@LoadInt_e@3
  00055	b3 ea		 mov	 bl, -22			; ffffffeaH
  00057	32 d3		 xor	 dl, bl
  00059	88 55 df	 mov	 BYTE PTR __k$[ebp+3], dl
  0005c	8a 50 04	 mov	 dl, BYTE PTR [eax+4]
  0005f	84 d2		 test	 dl, dl
  00061	0f 84 1b 02 00
	00		 je	 $LN92@LoadInt_e@3
  00067	80 f2 ed	 xor	 dl, -19			; ffffffedH
  0006a	88 55 e0	 mov	 BYTE PTR __k$[ebp+4], dl
  0006d	8a 50 05	 mov	 dl, BYTE PTR [eax+5]
  00070	84 d2		 test	 dl, dl
  00072	0f 84 04 02 00
	00		 je	 $LN91@LoadInt_e@3
  00078	80 f2 ec	 xor	 dl, -20			; ffffffecH
  0007b	88 55 e1	 mov	 BYTE PTR __k$[ebp+5], dl
  0007e	8a 50 06	 mov	 dl, BYTE PTR [eax+6]
  00081	84 d2		 test	 dl, dl
  00083	0f 84 ee 01 00
	00		 je	 $LN90@LoadInt_e@3
  00089	32 d1		 xor	 dl, cl
  0008b	88 55 e2	 mov	 BYTE PTR __k$[ebp+6], dl
  0008e	8a 50 07	 mov	 dl, BYTE PTR [eax+7]
  00091	84 d2		 test	 dl, dl
  00093	0f 84 d9 01 00
	00		 je	 $LN89@LoadInt_e@3
  00099	32 d3		 xor	 dl, bl
  0009b	88 55 e3	 mov	 BYTE PTR __k$[ebp+7], dl
  0009e	8a 50 08	 mov	 dl, BYTE PTR [eax+8]
  000a1	84 d2		 test	 dl, dl
  000a3	0f 84 c3 01 00
	00		 je	 $LN88@LoadInt_e@3
  000a9	80 f2 ed	 xor	 dl, -19			; ffffffedH
  000ac	88 55 e4	 mov	 BYTE PTR __k$[ebp+8], dl
  000af	8a 50 09	 mov	 dl, BYTE PTR [eax+9]
  000b2	84 d2		 test	 dl, dl
  000b4	0f 84 ac 01 00
	00		 je	 $LN87@LoadInt_e@3
  000ba	80 f2 ec	 xor	 dl, -20			; ffffffecH
  000bd	88 55 e5	 mov	 BYTE PTR __k$[ebp+9], dl
  000c0	8a 50 0a	 mov	 dl, BYTE PTR [eax+10]
  000c3	84 d2		 test	 dl, dl
  000c5	0f 84 96 01 00
	00		 je	 $LN86@LoadInt_e@3
  000cb	32 d1		 xor	 dl, cl
  000cd	88 55 e6	 mov	 BYTE PTR __k$[ebp+10], dl
  000d0	8a 50 0b	 mov	 dl, BYTE PTR [eax+11]
  000d3	84 d2		 test	 dl, dl
  000d5	0f 84 81 01 00
	00		 je	 $LN85@LoadInt_e@3
  000db	32 d3		 xor	 dl, bl
  000dd	88 55 e7	 mov	 BYTE PTR __k$[ebp+11], dl
  000e0	8a 50 0c	 mov	 dl, BYTE PTR [eax+12]
  000e3	84 d2		 test	 dl, dl
  000e5	0f 84 6b 01 00
	00		 je	 $LN84@LoadInt_e@3
  000eb	80 f2 ed	 xor	 dl, -19			; ffffffedH
  000ee	88 55 e8	 mov	 BYTE PTR __k$[ebp+12], dl
  000f1	8a 50 0d	 mov	 dl, BYTE PTR [eax+13]
  000f4	84 d2		 test	 dl, dl
  000f6	0f 84 54 01 00
	00		 je	 $LN83@LoadInt_e@3
  000fc	80 f2 ec	 xor	 dl, -20			; ffffffecH
  000ff	88 55 e9	 mov	 BYTE PTR __k$[ebp+13], dl
  00102	8a 50 0e	 mov	 dl, BYTE PTR [eax+14]
  00105	84 d2		 test	 dl, dl
  00107	0f 84 3e 01 00
	00		 je	 $LN82@LoadInt_e@3
  0010d	32 d1		 xor	 dl, cl
  0010f	88 55 ea	 mov	 BYTE PTR __k$[ebp+14], dl
  00112	8a 50 0f	 mov	 dl, BYTE PTR [eax+15]
  00115	84 d2		 test	 dl, dl
  00117	0f 84 29 01 00
	00		 je	 $LN81@LoadInt_e@3
  0011d	32 d3		 xor	 dl, bl
  0011f	88 55 eb	 mov	 BYTE PTR __k$[ebp+15], dl
  00122	8a 50 10	 mov	 dl, BYTE PTR [eax+16]
  00125	84 d2		 test	 dl, dl
  00127	0f 84 13 01 00
	00		 je	 $LN80@LoadInt_e@3
  0012d	80 f2 ed	 xor	 dl, -19			; ffffffedH
  00130	88 55 ec	 mov	 BYTE PTR __k$[ebp+16], dl
  00133	8a 50 11	 mov	 dl, BYTE PTR [eax+17]
  00136	84 d2		 test	 dl, dl
  00138	0f 84 fc 00 00
	00		 je	 $LN79@LoadInt_e@3
  0013e	80 f2 ec	 xor	 dl, -20			; ffffffecH
  00141	88 55 ed	 mov	 BYTE PTR __k$[ebp+17], dl
  00144	8a 50 12	 mov	 dl, BYTE PTR [eax+18]
  00147	84 d2		 test	 dl, dl
  00149	0f 84 e6 00 00
	00		 je	 $LN78@LoadInt_e@3
  0014f	32 d1		 xor	 dl, cl
  00151	88 55 ee	 mov	 BYTE PTR __k$[ebp+18], dl
  00154	8a 50 13	 mov	 dl, BYTE PTR [eax+19]
  00157	84 d2		 test	 dl, dl
  00159	0f 84 d1 00 00
	00		 je	 $LN77@LoadInt_e@3
  0015f	32 d3		 xor	 dl, bl
  00161	88 55 ef	 mov	 BYTE PTR __k$[ebp+19], dl
  00164	8a 50 14	 mov	 dl, BYTE PTR [eax+20]
  00167	84 d2		 test	 dl, dl
  00169	0f 84 bb 00 00
	00		 je	 $LN76@LoadInt_e@3
  0016f	80 f2 ed	 xor	 dl, -19			; ffffffedH
  00172	88 55 f0	 mov	 BYTE PTR __k$[ebp+20], dl
  00175	8a 50 15	 mov	 dl, BYTE PTR [eax+21]
  00178	84 d2		 test	 dl, dl
  0017a	0f 84 a4 00 00
	00		 je	 $LN75@LoadInt_e@3
  00180	80 f2 ec	 xor	 dl, -20			; ffffffecH
  00183	88 55 f1	 mov	 BYTE PTR __k$[ebp+21], dl
  00186	8a 50 16	 mov	 dl, BYTE PTR [eax+22]
  00189	84 d2		 test	 dl, dl
  0018b	0f 84 8e 00 00
	00		 je	 $LN74@LoadInt_e@3
  00191	32 d1		 xor	 dl, cl
  00193	88 55 f2	 mov	 BYTE PTR __k$[ebp+22], dl
  00196	8a 50 17	 mov	 dl, BYTE PTR [eax+23]
  00199	84 d2		 test	 dl, dl
  0019b	74 7d		 je	 SHORT $LN73@LoadInt_e@3
  0019d	32 d3		 xor	 dl, bl
  0019f	88 55 f3	 mov	 BYTE PTR __k$[ebp+23], dl
  001a2	8a 50 18	 mov	 dl, BYTE PTR [eax+24]
  001a5	84 d2		 test	 dl, dl
  001a7	74 68		 je	 SHORT $LN72@LoadInt_e@3
  001a9	80 f2 ed	 xor	 dl, -19			; ffffffedH
  001ac	80 78 19 00	 cmp	 BYTE PTR [eax+25], 0
  001b0	88 55 f4	 mov	 BYTE PTR __k$[ebp+24], dl
  001b3	0f 84 e5 00 00
	00		 je	 $LN1@LoadInt_e@3
  001b9	8a 50 1a	 mov	 dl, BYTE PTR [eax+26]
  001bc	84 d2		 test	 dl, dl
  001be	74 49		 je	 SHORT $LN70@LoadInt_e@3
  001c0	32 d1		 xor	 dl, cl
  001c2	88 55 f6	 mov	 BYTE PTR __k$[ebp+26], dl
  001c5	8a 50 1b	 mov	 dl, BYTE PTR [eax+27]
  001c8	84 d2		 test	 dl, dl
  001ca	74 35		 je	 SHORT $LN69@LoadInt_e@3
  001cc	32 d3		 xor	 dl, bl
  001ce	88 55 f7	 mov	 BYTE PTR __k$[ebp+27], dl
  001d1	8a 50 1c	 mov	 dl, BYTE PTR [eax+28]
  001d4	84 d2		 test	 dl, dl
  001d6	74 20		 je	 SHORT $LN68@LoadInt_e@3
  001d8	8a 40 1d	 mov	 al, BYTE PTR [eax+29]
  001db	80 f2 ed	 xor	 dl, -19			; ffffffedH
  001de	88 55 f8	 mov	 BYTE PTR __k$[ebp+28], dl
  001e1	84 c0		 test	 al, al
  001e3	74 0a		 je	 SHORT $LN67@LoadInt_e@3
  001e5	34 ec		 xor	 al, -20			; ffffffecH
  001e7	88 45 f9	 mov	 BYTE PTR __k$[ebp+29], al
  001ea	e9 af 00 00 00	 jmp	 $LN1@LoadInt_e@3
$LN67@LoadInt_e@3:
  001ef	c6 45 f9 ec	 mov	 BYTE PTR __k$[ebp+29], -20 ; ffffffecH
  001f3	e9 a6 00 00 00	 jmp	 $LN1@LoadInt_e@3
$LN68@LoadInt_e@3:
  001f8	c6 45 f8 ed	 mov	 BYTE PTR __k$[ebp+28], -19 ; ffffffedH
  001fc	e9 9d 00 00 00	 jmp	 $LN1@LoadInt_e@3
$LN69@LoadInt_e@3:
  00201	88 5d f7	 mov	 BYTE PTR __k$[ebp+27], bl
  00204	e9 95 00 00 00	 jmp	 $LN1@LoadInt_e@3
$LN70@LoadInt_e@3:
  00209	88 4d f6	 mov	 BYTE PTR __k$[ebp+26], cl
  0020c	e9 8d 00 00 00	 jmp	 $LN1@LoadInt_e@3
$LN72@LoadInt_e@3:
  00211	c6 45 f4 ed	 mov	 BYTE PTR __k$[ebp+24], -19 ; ffffffedH
  00215	e9 84 00 00 00	 jmp	 $LN1@LoadInt_e@3
$LN73@LoadInt_e@3:
  0021a	88 5d f3	 mov	 BYTE PTR __k$[ebp+23], bl
  0021d	eb 7f		 jmp	 SHORT $LN1@LoadInt_e@3
$LN74@LoadInt_e@3:
  0021f	88 4d f2	 mov	 BYTE PTR __k$[ebp+22], cl
  00222	eb 7a		 jmp	 SHORT $LN1@LoadInt_e@3
$LN75@LoadInt_e@3:
  00224	c6 45 f1 ec	 mov	 BYTE PTR __k$[ebp+21], -20 ; ffffffecH
  00228	eb 74		 jmp	 SHORT $LN1@LoadInt_e@3
$LN76@LoadInt_e@3:
  0022a	c6 45 f0 ed	 mov	 BYTE PTR __k$[ebp+20], -19 ; ffffffedH
  0022e	eb 6e		 jmp	 SHORT $LN1@LoadInt_e@3
$LN77@LoadInt_e@3:
  00230	88 5d ef	 mov	 BYTE PTR __k$[ebp+19], bl
  00233	eb 69		 jmp	 SHORT $LN1@LoadInt_e@3
$LN78@LoadInt_e@3:
  00235	88 4d ee	 mov	 BYTE PTR __k$[ebp+18], cl
  00238	eb 64		 jmp	 SHORT $LN1@LoadInt_e@3
$LN79@LoadInt_e@3:
  0023a	c6 45 ed ec	 mov	 BYTE PTR __k$[ebp+17], -20 ; ffffffecH
  0023e	eb 5e		 jmp	 SHORT $LN1@LoadInt_e@3
$LN80@LoadInt_e@3:
  00240	c6 45 ec ed	 mov	 BYTE PTR __k$[ebp+16], -19 ; ffffffedH
  00244	eb 58		 jmp	 SHORT $LN1@LoadInt_e@3
$LN81@LoadInt_e@3:
  00246	88 5d eb	 mov	 BYTE PTR __k$[ebp+15], bl
  00249	eb 53		 jmp	 SHORT $LN1@LoadInt_e@3
$LN82@LoadInt_e@3:
  0024b	88 4d ea	 mov	 BYTE PTR __k$[ebp+14], cl
  0024e	eb 4e		 jmp	 SHORT $LN1@LoadInt_e@3
$LN83@LoadInt_e@3:
  00250	c6 45 e9 ec	 mov	 BYTE PTR __k$[ebp+13], -20 ; ffffffecH
  00254	eb 48		 jmp	 SHORT $LN1@LoadInt_e@3
$LN84@LoadInt_e@3:
  00256	c6 45 e8 ed	 mov	 BYTE PTR __k$[ebp+12], -19 ; ffffffedH
  0025a	eb 42		 jmp	 SHORT $LN1@LoadInt_e@3
$LN85@LoadInt_e@3:
  0025c	88 5d e7	 mov	 BYTE PTR __k$[ebp+11], bl
  0025f	eb 3d		 jmp	 SHORT $LN1@LoadInt_e@3
$LN86@LoadInt_e@3:
  00261	88 4d e6	 mov	 BYTE PTR __k$[ebp+10], cl
  00264	eb 38		 jmp	 SHORT $LN1@LoadInt_e@3
$LN87@LoadInt_e@3:
  00266	c6 45 e5 ec	 mov	 BYTE PTR __k$[ebp+9], -20 ; ffffffecH
  0026a	eb 32		 jmp	 SHORT $LN1@LoadInt_e@3
$LN88@LoadInt_e@3:
  0026c	c6 45 e4 ed	 mov	 BYTE PTR __k$[ebp+8], -19 ; ffffffedH
  00270	eb 2c		 jmp	 SHORT $LN1@LoadInt_e@3
$LN89@LoadInt_e@3:
  00272	88 5d e3	 mov	 BYTE PTR __k$[ebp+7], bl
  00275	eb 27		 jmp	 SHORT $LN1@LoadInt_e@3
$LN90@LoadInt_e@3:
  00277	88 4d e2	 mov	 BYTE PTR __k$[ebp+6], cl
  0027a	eb 22		 jmp	 SHORT $LN1@LoadInt_e@3
$LN91@LoadInt_e@3:
  0027c	c6 45 e1 ec	 mov	 BYTE PTR __k$[ebp+5], -20 ; ffffffecH
  00280	eb 1c		 jmp	 SHORT $LN1@LoadInt_e@3
$LN92@LoadInt_e@3:
  00282	c6 45 e0 ed	 mov	 BYTE PTR __k$[ebp+4], -19 ; ffffffedH
  00286	eb 16		 jmp	 SHORT $LN1@LoadInt_e@3
$LN93@LoadInt_e@3:
  00288	c6 45 df ea	 mov	 BYTE PTR __k$[ebp+3], -22 ; ffffffeaH
  0028c	eb 10		 jmp	 SHORT $LN1@LoadInt_e@3
$LN94@LoadInt_e@3:
  0028e	c6 45 de eb	 mov	 BYTE PTR __k$[ebp+2], -21 ; ffffffebH
  00292	eb 0a		 jmp	 SHORT $LN1@LoadInt_e@3
$LN95@LoadInt_e@3:
  00294	c6 45 dd ec	 mov	 BYTE PTR __k$[ebp+1], -20 ; ffffffecH
  00298	eb 04		 jmp	 SHORT $LN1@LoadInt_e@3
$LN96@LoadInt_e@3:
  0029a	c6 45 dc ed	 mov	 BYTE PTR __k$[ebp], -19	; ffffffedH
$LN1@LoadInt_e@3:
  0029e	6a 06		 push	 6
  002a0	8d 45 dc	 lea	 eax, DWORD PTR __k$[ebp]
  002a3	c6 45 f5 00	 mov	 BYTE PTR __k$[ebp+25], 0
  002a7	5a		 pop	 edx
$LL104@LoadInt_e@3:
  002a8	81 30 ed ec eb
	ea		 xor	 DWORD PTR [eax], -353637139 ; eaebecedH
  002ae	83 c0 04	 add	 eax, 4
  002b1	4a		 dec	 edx
  002b2	75 f4		 jne	 SHORT $LL104@LoadInt_e@3

; 120  : 		return LoadInt(_k, i);

  002b4	ff 75 0c	 push	 DWORD PTR _i$[ebp]
  002b7	80 75 f4 ed	 xor	 BYTE PTR __k$[ebp+24], -19 ; ffffffedH
  002bb	8d 45 dc	 lea	 eax, DWORD PTR __k$[ebp]
  002be	50		 push	 eax
  002bf	8b ce		 mov	 ecx, esi
  002c1	ff 15 00 00 00
	00		 call	 DWORD PTR __imp_?LoadInt@ioINILoader@@QAEHPBDH@Z

; 121  : 	}

  002c7	8b 4d fc	 mov	 ecx, DWORD PTR __$ArrayPad$[ebp]
  002ca	5e		 pop	 esi
  002cb	33 cd		 xor	 ecx, ebp
  002cd	5b		 pop	 ebx
  002ce	e8 00 00 00 00	 call	 @__security_check_cookie@4
  002d3	c9		 leave
  002d4	c2 08 00	 ret	 8
??$LoadInt_e@$0BK@@ioINILoader@@QAEHAAY0BK@$$CBDH@Z ENDP ; ioINILoader::LoadInt_e<26>
_TEXT	ENDS
PUBLIC	_this$GSCopy$
PUBLIC	__$ArrayPad$
PUBLIC	??$LoadString_e@$0BJ@@ioINILoader@@QAEXAAY0BJ@$$CBDAAY00$$CBDPADH@Z ; ioINILoader::LoadString_e<25>
; Function compile flags: /Ogsp
;	COMDAT ??$LoadString_e@$0BJ@@ioINILoader@@QAEXAAY0BJ@$$CBDAAY00$$CBDPADH@Z
_TEXT	SEGMENT
_this$GSCopy$ = -40					; size = 4
__k$ = -36						; size = 25
__$ArrayPad$ = -4					; size = 4
_k$ = 8							; size = 4
_d$ = 12						; size = 4
_b$ = 16						; size = 4
_i$ = 20						; size = 4
??$LoadString_e@$0BJ@@ioINILoader@@QAEXAAY0BJ@$$CBDAAY00$$CBDPADH@Z PROC ; ioINILoader::LoadString_e<25>, COMDAT
; _this$ = ecx

; 161  : 	{

  00000	55		 push	 ebp
  00001	8b ec		 mov	 ebp, esp
  00003	83 ec 28	 sub	 esp, 40			; 00000028H
  00006	a1 00 00 00 00	 mov	 eax, DWORD PTR ___security_cookie
  0000b	33 c5		 xor	 eax, ebp
  0000d	89 45 fc	 mov	 DWORD PTR __$ArrayPad$[ebp], eax
  00010	8b 45 08	 mov	 eax, DWORD PTR _k$[ebp]

; 162  : 		_ENCSTR(k, _k);

  00013	8a 10		 mov	 dl, BYTE PTR [eax]
  00015	53		 push	 ebx
  00016	56		 push	 esi
  00017	8b 75 0c	 mov	 esi, DWORD PTR _d$[ebp]
  0001a	57		 push	 edi
  0001b	8b 7d 10	 mov	 edi, DWORD PTR _b$[ebp]
  0001e	89 4d d8	 mov	 DWORD PTR _this$GSCopy$[ebp], ecx
  00021	84 d2		 test	 dl, dl
  00023	0f 84 5f 02 00
	00		 je	 $LN96@LoadString@2
  00029	80 f2 ed	 xor	 dl, -19			; ffffffedH
  0002c	88 55 dc	 mov	 BYTE PTR __k$[ebp], dl
  0002f	8a 50 01	 mov	 dl, BYTE PTR [eax+1]
  00032	84 d2		 test	 dl, dl
  00034	0f 84 48 02 00
	00		 je	 $LN95@LoadString@2
  0003a	b1 ec		 mov	 cl, -20			; ffffffecH
  0003c	32 d1		 xor	 dl, cl
  0003e	88 55 dd	 mov	 BYTE PTR __k$[ebp+1], dl
  00041	8a 50 02	 mov	 dl, BYTE PTR [eax+2]
  00044	84 d2		 test	 dl, dl
  00046	0f 84 30 02 00
	00		 je	 $LN94@LoadString@2
  0004c	b3 eb		 mov	 bl, -21			; ffffffebH
  0004e	32 d3		 xor	 dl, bl
  00050	88 55 de	 mov	 BYTE PTR __k$[ebp+2], dl
  00053	8a 50 03	 mov	 dl, BYTE PTR [eax+3]
  00056	84 d2		 test	 dl, dl
  00058	0f 84 18 02 00
	00		 je	 $LN93@LoadString@2
  0005e	80 f2 ea	 xor	 dl, -22			; ffffffeaH
  00061	88 55 df	 mov	 BYTE PTR __k$[ebp+3], dl
  00064	8a 50 04	 mov	 dl, BYTE PTR [eax+4]
  00067	84 d2		 test	 dl, dl
  00069	0f 84 01 02 00
	00		 je	 $LN92@LoadString@2
  0006f	80 f2 ed	 xor	 dl, -19			; ffffffedH
  00072	88 55 e0	 mov	 BYTE PTR __k$[ebp+4], dl
  00075	8a 50 05	 mov	 dl, BYTE PTR [eax+5]
  00078	84 d2		 test	 dl, dl
  0007a	0f 84 eb 01 00
	00		 je	 $LN91@LoadString@2
  00080	32 d1		 xor	 dl, cl
  00082	88 55 e1	 mov	 BYTE PTR __k$[ebp+5], dl
  00085	8a 50 06	 mov	 dl, BYTE PTR [eax+6]
  00088	84 d2		 test	 dl, dl
  0008a	0f 84 d6 01 00
	00		 je	 $LN90@LoadString@2
  00090	32 d3		 xor	 dl, bl
  00092	88 55 e2	 mov	 BYTE PTR __k$[ebp+6], dl
  00095	8a 50 07	 mov	 dl, BYTE PTR [eax+7]
  00098	84 d2		 test	 dl, dl
  0009a	0f 84 c0 01 00
	00		 je	 $LN89@LoadString@2
  000a0	80 f2 ea	 xor	 dl, -22			; ffffffeaH
  000a3	88 55 e3	 mov	 BYTE PTR __k$[ebp+7], dl
  000a6	8a 50 08	 mov	 dl, BYTE PTR [eax+8]
  000a9	84 d2		 test	 dl, dl
  000ab	0f 84 a9 01 00
	00		 je	 $LN88@LoadString@2
  000b1	80 f2 ed	 xor	 dl, -19			; ffffffedH
  000b4	88 55 e4	 mov	 BYTE PTR __k$[ebp+8], dl
  000b7	8a 50 09	 mov	 dl, BYTE PTR [eax+9]
  000ba	84 d2		 test	 dl, dl
  000bc	0f 84 93 01 00
	00		 je	 $LN87@LoadString@2
  000c2	32 d1		 xor	 dl, cl
  000c4	88 55 e5	 mov	 BYTE PTR __k$[ebp+9], dl
  000c7	8a 50 0a	 mov	 dl, BYTE PTR [eax+10]
  000ca	84 d2		 test	 dl, dl
  000cc	0f 84 7e 01 00
	00		 je	 $LN86@LoadString@2
  000d2	32 d3		 xor	 dl, bl
  000d4	88 55 e6	 mov	 BYTE PTR __k$[ebp+10], dl
  000d7	8a 50 0b	 mov	 dl, BYTE PTR [eax+11]
  000da	84 d2		 test	 dl, dl
  000dc	0f 84 68 01 00
	00		 je	 $LN85@LoadString@2
  000e2	80 f2 ea	 xor	 dl, -22			; ffffffeaH
  000e5	88 55 e7	 mov	 BYTE PTR __k$[ebp+11], dl
  000e8	8a 50 0c	 mov	 dl, BYTE PTR [eax+12]
  000eb	84 d2		 test	 dl, dl
  000ed	0f 84 51 01 00
	00		 je	 $LN84@LoadString@2
  000f3	80 f2 ed	 xor	 dl, -19			; ffffffedH
  000f6	88 55 e8	 mov	 BYTE PTR __k$[ebp+12], dl
  000f9	8a 50 0d	 mov	 dl, BYTE PTR [eax+13]
  000fc	84 d2		 test	 dl, dl
  000fe	0f 84 3b 01 00
	00		 je	 $LN83@LoadString@2
  00104	32 d1		 xor	 dl, cl
  00106	88 55 e9	 mov	 BYTE PTR __k$[ebp+13], dl
  00109	8a 50 0e	 mov	 dl, BYTE PTR [eax+14]
  0010c	84 d2		 test	 dl, dl
  0010e	0f 84 26 01 00
	00		 je	 $LN82@LoadString@2
  00114	32 d3		 xor	 dl, bl
  00116	88 55 ea	 mov	 BYTE PTR __k$[ebp+14], dl
  00119	8a 50 0f	 mov	 dl, BYTE PTR [eax+15]
  0011c	84 d2		 test	 dl, dl
  0011e	0f 84 10 01 00
	00		 je	 $LN81@LoadString@2
  00124	80 f2 ea	 xor	 dl, -22			; ffffffeaH
  00127	88 55 eb	 mov	 BYTE PTR __k$[ebp+15], dl
  0012a	8a 50 10	 mov	 dl, BYTE PTR [eax+16]
  0012d	84 d2		 test	 dl, dl
  0012f	0f 84 f9 00 00
	00		 je	 $LN80@LoadString@2
  00135	80 f2 ed	 xor	 dl, -19			; ffffffedH
  00138	88 55 ec	 mov	 BYTE PTR __k$[ebp+16], dl
  0013b	8a 50 11	 mov	 dl, BYTE PTR [eax+17]
  0013e	84 d2		 test	 dl, dl
  00140	0f 84 e3 00 00
	00		 je	 $LN79@LoadString@2
  00146	32 d1		 xor	 dl, cl
  00148	88 55 ed	 mov	 BYTE PTR __k$[ebp+17], dl
  0014b	8a 50 12	 mov	 dl, BYTE PTR [eax+18]
  0014e	84 d2		 test	 dl, dl
  00150	0f 84 ce 00 00
	00		 je	 $LN78@LoadString@2
  00156	32 d3		 xor	 dl, bl
  00158	88 55 ee	 mov	 BYTE PTR __k$[ebp+18], dl
  0015b	8a 50 13	 mov	 dl, BYTE PTR [eax+19]
  0015e	84 d2		 test	 dl, dl
  00160	0f 84 b8 00 00
	00		 je	 $LN77@LoadString@2
  00166	80 f2 ea	 xor	 dl, -22			; ffffffeaH
  00169	88 55 ef	 mov	 BYTE PTR __k$[ebp+19], dl
  0016c	8a 50 14	 mov	 dl, BYTE PTR [eax+20]
  0016f	84 d2		 test	 dl, dl
  00171	0f 84 a1 00 00
	00		 je	 $LN76@LoadString@2
  00177	80 f2 ed	 xor	 dl, -19			; ffffffedH
  0017a	88 55 f0	 mov	 BYTE PTR __k$[ebp+20], dl
  0017d	8a 50 15	 mov	 dl, BYTE PTR [eax+21]
  00180	84 d2		 test	 dl, dl
  00182	0f 84 8b 00 00
	00		 je	 $LN75@LoadString@2
  00188	32 d1		 xor	 dl, cl
  0018a	88 55 f1	 mov	 BYTE PTR __k$[ebp+21], dl
  0018d	8a 50 16	 mov	 dl, BYTE PTR [eax+22]
  00190	84 d2		 test	 dl, dl
  00192	74 7a		 je	 SHORT $LN74@LoadString@2
  00194	32 d3		 xor	 dl, bl
  00196	88 55 f2	 mov	 BYTE PTR __k$[ebp+22], dl
  00199	8a 50 17	 mov	 dl, BYTE PTR [eax+23]
  0019c	84 d2		 test	 dl, dl
  0019e	74 68		 je	 SHORT $LN73@LoadString@2
  001a0	80 f2 ea	 xor	 dl, -22			; ffffffeaH
  001a3	80 78 18 00	 cmp	 BYTE PTR [eax+24], 0
  001a7	88 55 f3	 mov	 BYTE PTR __k$[ebp+23], dl
  001aa	0f 84 dc 00 00
	00		 je	 $LN111@LoadString@2
  001b0	8a 50 19	 mov	 dl, BYTE PTR [eax+25]
  001b3	84 d2		 test	 dl, dl
  001b5	74 49		 je	 SHORT $LN71@LoadString@2
  001b7	32 d1		 xor	 dl, cl
  001b9	88 55 f5	 mov	 BYTE PTR __k$[ebp+25], dl
  001bc	8a 50 1a	 mov	 dl, BYTE PTR [eax+26]
  001bf	84 d2		 test	 dl, dl
  001c1	74 35		 je	 SHORT $LN70@LoadString@2
  001c3	32 d3		 xor	 dl, bl
  001c5	88 55 f6	 mov	 BYTE PTR __k$[ebp+26], dl
  001c8	8a 50 1b	 mov	 dl, BYTE PTR [eax+27]
  001cb	84 d2		 test	 dl, dl
  001cd	74 20		 je	 SHORT $LN69@LoadString@2
  001cf	8a 40 1c	 mov	 al, BYTE PTR [eax+28]
  001d2	80 f2 ea	 xor	 dl, -22			; ffffffeaH
  001d5	88 55 f7	 mov	 BYTE PTR __k$[ebp+27], dl
  001d8	84 c0		 test	 al, al
  001da	74 0a		 je	 SHORT $LN68@LoadString@2
  001dc	34 ed		 xor	 al, -19			; ffffffedH
  001de	88 45 f8	 mov	 BYTE PTR __k$[ebp+28], al
  001e1	e9 a6 00 00 00	 jmp	 $LN111@LoadString@2
$LN68@LoadString@2:
  001e6	c6 45 f8 ed	 mov	 BYTE PTR __k$[ebp+28], -19 ; ffffffedH
  001ea	e9 9d 00 00 00	 jmp	 $LN111@LoadString@2
$LN69@LoadString@2:
  001ef	c6 45 f7 ea	 mov	 BYTE PTR __k$[ebp+27], -22 ; ffffffeaH
  001f3	e9 94 00 00 00	 jmp	 $LN111@LoadString@2
$LN70@LoadString@2:
  001f8	88 5d f6	 mov	 BYTE PTR __k$[ebp+26], bl
  001fb	e9 8c 00 00 00	 jmp	 $LN111@LoadString@2
$LN71@LoadString@2:
  00200	88 4d f5	 mov	 BYTE PTR __k$[ebp+25], cl
  00203	e9 84 00 00 00	 jmp	 $LN111@LoadString@2
$LN73@LoadString@2:
  00208	c6 45 f3 ea	 mov	 BYTE PTR __k$[ebp+23], -22 ; ffffffeaH
  0020c	eb 7e		 jmp	 SHORT $LN111@LoadString@2
$LN74@LoadString@2:
  0020e	88 5d f2	 mov	 BYTE PTR __k$[ebp+22], bl
  00211	eb 79		 jmp	 SHORT $LN111@LoadString@2
$LN75@LoadString@2:
  00213	88 4d f1	 mov	 BYTE PTR __k$[ebp+21], cl
  00216	eb 74		 jmp	 SHORT $LN111@LoadString@2
$LN76@LoadString@2:
  00218	c6 45 f0 ed	 mov	 BYTE PTR __k$[ebp+20], -19 ; ffffffedH
  0021c	eb 6e		 jmp	 SHORT $LN111@LoadString@2
$LN77@LoadString@2:
  0021e	c6 45 ef ea	 mov	 BYTE PTR __k$[ebp+19], -22 ; ffffffeaH
  00222	eb 68		 jmp	 SHORT $LN111@LoadString@2
$LN78@LoadString@2:
  00224	88 5d ee	 mov	 BYTE PTR __k$[ebp+18], bl
  00227	eb 63		 jmp	 SHORT $LN111@LoadString@2
$LN79@LoadString@2:
  00229	88 4d ed	 mov	 BYTE PTR __k$[ebp+17], cl
  0022c	eb 5e		 jmp	 SHORT $LN111@LoadString@2
$LN80@LoadString@2:
  0022e	c6 45 ec ed	 mov	 BYTE PTR __k$[ebp+16], -19 ; ffffffedH
  00232	eb 58		 jmp	 SHORT $LN111@LoadString@2
$LN81@LoadString@2:
  00234	c6 45 eb ea	 mov	 BYTE PTR __k$[ebp+15], -22 ; ffffffeaH
  00238	eb 52		 jmp	 SHORT $LN111@LoadString@2
$LN82@LoadString@2:
  0023a	88 5d ea	 mov	 BYTE PTR __k$[ebp+14], bl
  0023d	eb 4d		 jmp	 SHORT $LN111@LoadString@2
$LN83@LoadString@2:
  0023f	88 4d e9	 mov	 BYTE PTR __k$[ebp+13], cl
  00242	eb 48		 jmp	 SHORT $LN111@LoadString@2
$LN84@LoadString@2:
  00244	c6 45 e8 ed	 mov	 BYTE PTR __k$[ebp+12], -19 ; ffffffedH
  00248	eb 42		 jmp	 SHORT $LN111@LoadString@2
$LN85@LoadString@2:
  0024a	c6 45 e7 ea	 mov	 BYTE PTR __k$[ebp+11], -22 ; ffffffeaH
  0024e	eb 3c		 jmp	 SHORT $LN111@LoadString@2
$LN86@LoadString@2:
  00250	88 5d e6	 mov	 BYTE PTR __k$[ebp+10], bl
  00253	eb 37		 jmp	 SHORT $LN111@LoadString@2
$LN87@LoadString@2:
  00255	88 4d e5	 mov	 BYTE PTR __k$[ebp+9], cl
  00258	eb 32		 jmp	 SHORT $LN111@LoadString@2
$LN88@LoadString@2:
  0025a	c6 45 e4 ed	 mov	 BYTE PTR __k$[ebp+8], -19 ; ffffffedH
  0025e	eb 2c		 jmp	 SHORT $LN111@LoadString@2
$LN89@LoadString@2:
  00260	c6 45 e3 ea	 mov	 BYTE PTR __k$[ebp+7], -22 ; ffffffeaH
  00264	eb 26		 jmp	 SHORT $LN111@LoadString@2
$LN90@LoadString@2:
  00266	88 5d e2	 mov	 BYTE PTR __k$[ebp+6], bl
  00269	eb 21		 jmp	 SHORT $LN111@LoadString@2
$LN91@LoadString@2:
  0026b	88 4d e1	 mov	 BYTE PTR __k$[ebp+5], cl
  0026e	eb 1c		 jmp	 SHORT $LN111@LoadString@2
$LN92@LoadString@2:
  00270	c6 45 e0 ed	 mov	 BYTE PTR __k$[ebp+4], -19 ; ffffffedH
  00274	eb 16		 jmp	 SHORT $LN111@LoadString@2
$LN93@LoadString@2:
  00276	c6 45 df ea	 mov	 BYTE PTR __k$[ebp+3], -22 ; ffffffeaH
  0027a	eb 10		 jmp	 SHORT $LN111@LoadString@2
$LN94@LoadString@2:
  0027c	c6 45 de eb	 mov	 BYTE PTR __k$[ebp+2], -21 ; ffffffebH
  00280	eb 0a		 jmp	 SHORT $LN111@LoadString@2
$LN95@LoadString@2:
  00282	c6 45 dd ec	 mov	 BYTE PTR __k$[ebp+1], -20 ; ffffffecH
  00286	eb 04		 jmp	 SHORT $LN111@LoadString@2
$LN96@LoadString@2:
  00288	c6 45 dc ed	 mov	 BYTE PTR __k$[ebp], -19	; ffffffedH
$LN111@LoadString@2:
  0028c	6a 06		 push	 6
  0028e	8d 45 dc	 lea	 eax, DWORD PTR __k$[ebp]
  00291	c6 45 f4 00	 mov	 BYTE PTR __k$[ebp+24], 0
  00295	5a		 pop	 edx
$LL104@LoadString@2:
  00296	81 30 ed ec eb
	ea		 xor	 DWORD PTR [eax], -353637139 ; eaebecedH
  0029c	83 c0 04	 add	 eax, 4
  0029f	4a		 dec	 edx
  002a0	75 f4		 jne	 SHORT $LL104@LoadString@2

; 163  : 		LoadString(_k, d, b, i);

  002a2	ff 75 14	 push	 DWORD PTR _i$[ebp]
  002a5	8b 4d d8	 mov	 ecx, DWORD PTR _this$GSCopy$[ebp]
  002a8	57		 push	 edi
  002a9	56		 push	 esi
  002aa	8d 45 dc	 lea	 eax, DWORD PTR __k$[ebp]
  002ad	50		 push	 eax
  002ae	ff 15 00 00 00
	00		 call	 DWORD PTR __imp_?LoadStringA@ioINILoader@@QAEXPBD0PADH@Z

; 164  : 	}

  002b4	8b 4d fc	 mov	 ecx, DWORD PTR __$ArrayPad$[ebp]
  002b7	5f		 pop	 edi
  002b8	5e		 pop	 esi
  002b9	33 cd		 xor	 ecx, ebp
  002bb	5b		 pop	 ebx
  002bc	e8 00 00 00 00	 call	 @__security_check_cookie@4
  002c1	c9		 leave
  002c2	c2 10 00	 ret	 16			; 00000010H
??$LoadString_e@$0BJ@@ioINILoader@@QAEXAAY0BJ@$$CBDAAY00$$CBDPADH@Z ENDP ; ioINILoader::LoadString_e<25>
_TEXT	ENDS
PUBLIC	__$ArrayPad$
PUBLIC	??$LoadInt_e@$0BO@@ioINILoader@@QAEHAAY0BO@$$CBDH@Z ; ioINILoader::LoadInt_e<30>
; Function compile flags: /Ogsp
;	COMDAT ??$LoadInt_e@$0BO@@ioINILoader@@QAEHAAY0BO@$$CBDH@Z
_TEXT	SEGMENT
__k$ = -40						; size = 30
__$ArrayPad$ = -4					; size = 4
_k$ = 8							; size = 4
_i$ = 12						; size = 4
??$LoadInt_e@$0BO@@ioINILoader@@QAEHAAY0BO@$$CBDH@Z PROC ; ioINILoader::LoadInt_e<30>, COMDAT
; _this$ = ecx

; 118  : 	{

  00000	55		 push	 ebp
  00001	8b ec		 mov	 ebp, esp
  00003	83 ec 28	 sub	 esp, 40			; 00000028H
  00006	a1 00 00 00 00	 mov	 eax, DWORD PTR ___security_cookie
  0000b	33 c5		 xor	 eax, ebp
  0000d	89 45 fc	 mov	 DWORD PTR __$ArrayPad$[ebp], eax
  00010	8b 45 08	 mov	 eax, DWORD PTR _k$[ebp]

; 119  : 		_ENCSTR(k, _k);

  00013	8a 10		 mov	 dl, BYTE PTR [eax]
  00015	53		 push	 ebx
  00016	56		 push	 esi
  00017	8b f1		 mov	 esi, ecx
  00019	84 d2		 test	 dl, dl
  0001b	0f 84 dd 02 00
	00		 je	 $LN96@LoadInt_e@4
  00021	80 f2 ed	 xor	 dl, -19			; ffffffedH
  00024	88 55 d8	 mov	 BYTE PTR __k$[ebp], dl
  00027	8a 50 01	 mov	 dl, BYTE PTR [eax+1]
  0002a	84 d2		 test	 dl, dl
  0002c	0f 84 c6 02 00
	00		 je	 $LN95@LoadInt_e@4
  00032	80 f2 ec	 xor	 dl, -20			; ffffffecH
  00035	88 55 d9	 mov	 BYTE PTR __k$[ebp+1], dl
  00038	8a 50 02	 mov	 dl, BYTE PTR [eax+2]
  0003b	84 d2		 test	 dl, dl
  0003d	0f 84 af 02 00
	00		 je	 $LN94@LoadInt_e@4
  00043	b1 eb		 mov	 cl, -21			; ffffffebH
  00045	32 d1		 xor	 dl, cl
  00047	88 55 da	 mov	 BYTE PTR __k$[ebp+2], dl
  0004a	8a 50 03	 mov	 dl, BYTE PTR [eax+3]
  0004d	84 d2		 test	 dl, dl
  0004f	0f 84 97 02 00
	00		 je	 $LN93@LoadInt_e@4
  00055	b3 ea		 mov	 bl, -22			; ffffffeaH
  00057	32 d3		 xor	 dl, bl
  00059	88 55 db	 mov	 BYTE PTR __k$[ebp+3], dl
  0005c	8a 50 04	 mov	 dl, BYTE PTR [eax+4]
  0005f	84 d2		 test	 dl, dl
  00061	0f 84 7f 02 00
	00		 je	 $LN92@LoadInt_e@4
  00067	80 f2 ed	 xor	 dl, -19			; ffffffedH
  0006a	88 55 dc	 mov	 BYTE PTR __k$[ebp+4], dl
  0006d	8a 50 05	 mov	 dl, BYTE PTR [eax+5]
  00070	84 d2		 test	 dl, dl
  00072	0f 84 68 02 00
	00		 je	 $LN91@LoadInt_e@4
  00078	80 f2 ec	 xor	 dl, -20			; ffffffecH
  0007b	88 55 dd	 mov	 BYTE PTR __k$[ebp+5], dl
  0007e	8a 50 06	 mov	 dl, BYTE PTR [eax+6]
  00081	84 d2		 test	 dl, dl
  00083	0f 84 52 02 00
	00		 je	 $LN90@LoadInt_e@4
  00089	32 d1		 xor	 dl, cl
  0008b	88 55 de	 mov	 BYTE PTR __k$[ebp+6], dl
  0008e	8a 50 07	 mov	 dl, BYTE PTR [eax+7]
  00091	84 d2		 test	 dl, dl
  00093	0f 84 3d 02 00
	00		 je	 $LN89@LoadInt_e@4
  00099	32 d3		 xor	 dl, bl
  0009b	88 55 df	 mov	 BYTE PTR __k$[ebp+7], dl
  0009e	8a 50 08	 mov	 dl, BYTE PTR [eax+8]
  000a1	84 d2		 test	 dl, dl
  000a3	0f 84 27 02 00
	00		 je	 $LN88@LoadInt_e@4
  000a9	80 f2 ed	 xor	 dl, -19			; ffffffedH
  000ac	88 55 e0	 mov	 BYTE PTR __k$[ebp+8], dl
  000af	8a 50 09	 mov	 dl, BYTE PTR [eax+9]
  000b2	84 d2		 test	 dl, dl
  000b4	0f 84 10 02 00
	00		 je	 $LN87@LoadInt_e@4
  000ba	80 f2 ec	 xor	 dl, -20			; ffffffecH
  000bd	88 55 e1	 mov	 BYTE PTR __k$[ebp+9], dl
  000c0	8a 50 0a	 mov	 dl, BYTE PTR [eax+10]
  000c3	84 d2		 test	 dl, dl
  000c5	0f 84 fa 01 00
	00		 je	 $LN86@LoadInt_e@4
  000cb	32 d1		 xor	 dl, cl
  000cd	88 55 e2	 mov	 BYTE PTR __k$[ebp+10], dl
  000d0	8a 50 0b	 mov	 dl, BYTE PTR [eax+11]
  000d3	84 d2		 test	 dl, dl
  000d5	0f 84 e5 01 00
	00		 je	 $LN85@LoadInt_e@4
  000db	32 d3		 xor	 dl, bl
  000dd	88 55 e3	 mov	 BYTE PTR __k$[ebp+11], dl
  000e0	8a 50 0c	 mov	 dl, BYTE PTR [eax+12]
  000e3	84 d2		 test	 dl, dl
  000e5	0f 84 cf 01 00
	00		 je	 $LN84@LoadInt_e@4
  000eb	80 f2 ed	 xor	 dl, -19			; ffffffedH
  000ee	88 55 e4	 mov	 BYTE PTR __k$[ebp+12], dl
  000f1	8a 50 0d	 mov	 dl, BYTE PTR [eax+13]
  000f4	84 d2		 test	 dl, dl
  000f6	0f 84 b8 01 00
	00		 je	 $LN83@LoadInt_e@4
  000fc	80 f2 ec	 xor	 dl, -20			; ffffffecH
  000ff	88 55 e5	 mov	 BYTE PTR __k$[ebp+13], dl
  00102	8a 50 0e	 mov	 dl, BYTE PTR [eax+14]
  00105	84 d2		 test	 dl, dl
  00107	0f 84 a2 01 00
	00		 je	 $LN82@LoadInt_e@4
  0010d	32 d1		 xor	 dl, cl
  0010f	88 55 e6	 mov	 BYTE PTR __k$[ebp+14], dl
  00112	8a 50 0f	 mov	 dl, BYTE PTR [eax+15]
  00115	84 d2		 test	 dl, dl
  00117	0f 84 8d 01 00
	00		 je	 $LN81@LoadInt_e@4
  0011d	32 d3		 xor	 dl, bl
  0011f	88 55 e7	 mov	 BYTE PTR __k$[ebp+15], dl
  00122	8a 50 10	 mov	 dl, BYTE PTR [eax+16]
  00125	84 d2		 test	 dl, dl
  00127	0f 84 77 01 00
	00		 je	 $LN80@LoadInt_e@4
  0012d	80 f2 ed	 xor	 dl, -19			; ffffffedH
  00130	88 55 e8	 mov	 BYTE PTR __k$[ebp+16], dl
  00133	8a 50 11	 mov	 dl, BYTE PTR [eax+17]
  00136	84 d2		 test	 dl, dl
  00138	0f 84 60 01 00
	00		 je	 $LN79@LoadInt_e@4
  0013e	80 f2 ec	 xor	 dl, -20			; ffffffecH
  00141	88 55 e9	 mov	 BYTE PTR __k$[ebp+17], dl
  00144	8a 50 12	 mov	 dl, BYTE PTR [eax+18]
  00147	84 d2		 test	 dl, dl
  00149	0f 84 4a 01 00
	00		 je	 $LN78@LoadInt_e@4
  0014f	32 d1		 xor	 dl, cl
  00151	88 55 ea	 mov	 BYTE PTR __k$[ebp+18], dl
  00154	8a 50 13	 mov	 dl, BYTE PTR [eax+19]
  00157	84 d2		 test	 dl, dl
  00159	0f 84 35 01 00
	00		 je	 $LN77@LoadInt_e@4
  0015f	32 d3		 xor	 dl, bl
  00161	88 55 eb	 mov	 BYTE PTR __k$[ebp+19], dl
  00164	8a 50 14	 mov	 dl, BYTE PTR [eax+20]
  00167	84 d2		 test	 dl, dl
  00169	0f 84 1f 01 00
	00		 je	 $LN76@LoadInt_e@4
  0016f	80 f2 ed	 xor	 dl, -19			; ffffffedH
  00172	88 55 ec	 mov	 BYTE PTR __k$[ebp+20], dl
  00175	8a 50 15	 mov	 dl, BYTE PTR [eax+21]
  00178	84 d2		 test	 dl, dl
  0017a	0f 84 08 01 00
	00		 je	 $LN75@LoadInt_e@4
  00180	80 f2 ec	 xor	 dl, -20			; ffffffecH
  00183	88 55 ed	 mov	 BYTE PTR __k$[ebp+21], dl
  00186	8a 50 16	 mov	 dl, BYTE PTR [eax+22]
  00189	84 d2		 test	 dl, dl
  0018b	0f 84 f2 00 00
	00		 je	 $LN74@LoadInt_e@4
  00191	32 d1		 xor	 dl, cl
  00193	88 55 ee	 mov	 BYTE PTR __k$[ebp+22], dl
  00196	8a 50 17	 mov	 dl, BYTE PTR [eax+23]
  00199	84 d2		 test	 dl, dl
  0019b	0f 84 dd 00 00
	00		 je	 $LN73@LoadInt_e@4
  001a1	32 d3		 xor	 dl, bl
  001a3	88 55 ef	 mov	 BYTE PTR __k$[ebp+23], dl
  001a6	8a 50 18	 mov	 dl, BYTE PTR [eax+24]
  001a9	84 d2		 test	 dl, dl
  001ab	0f 84 c4 00 00
	00		 je	 $LN72@LoadInt_e@4
  001b1	80 f2 ed	 xor	 dl, -19			; ffffffedH
  001b4	88 55 f0	 mov	 BYTE PTR __k$[ebp+24], dl
  001b7	8a 50 19	 mov	 dl, BYTE PTR [eax+25]
  001ba	84 d2		 test	 dl, dl
  001bc	0f 84 aa 00 00
	00		 je	 $LN71@LoadInt_e@4
  001c2	80 f2 ec	 xor	 dl, -20			; ffffffecH
  001c5	88 55 f1	 mov	 BYTE PTR __k$[ebp+25], dl
  001c8	8a 50 1a	 mov	 dl, BYTE PTR [eax+26]
  001cb	84 d2		 test	 dl, dl
  001cd	0f 84 91 00 00
	00		 je	 $LN70@LoadInt_e@4
  001d3	32 d1		 xor	 dl, cl
  001d5	88 55 f2	 mov	 BYTE PTR __k$[ebp+26], dl
  001d8	8a 50 1b	 mov	 dl, BYTE PTR [eax+27]
  001db	84 d2		 test	 dl, dl
  001dd	74 7d		 je	 SHORT $LN69@LoadInt_e@4
  001df	32 d3		 xor	 dl, bl
  001e1	88 55 f3	 mov	 BYTE PTR __k$[ebp+27], dl
  001e4	8a 50 1c	 mov	 dl, BYTE PTR [eax+28]
  001e7	84 d2		 test	 dl, dl
  001e9	74 68		 je	 SHORT $LN68@LoadInt_e@4
  001eb	80 f2 ed	 xor	 dl, -19			; ffffffedH
  001ee	80 78 1d 00	 cmp	 BYTE PTR [eax+29], 0
  001f2	88 55 f4	 mov	 BYTE PTR __k$[ebp+28], dl
  001f5	0f 84 07 01 00
	00		 je	 $LN1@LoadInt_e@4
  001fb	8a 50 1e	 mov	 dl, BYTE PTR [eax+30]
  001fe	84 d2		 test	 dl, dl
  00200	74 49		 je	 SHORT $LN66@LoadInt_e@4
  00202	32 d1		 xor	 dl, cl
  00204	88 55 f6	 mov	 BYTE PTR __k$[ebp+30], dl
  00207	8a 50 1f	 mov	 dl, BYTE PTR [eax+31]
  0020a	84 d2		 test	 dl, dl
  0020c	74 35		 je	 SHORT $LN65@LoadInt_e@4
  0020e	32 d3		 xor	 dl, bl
  00210	88 55 f7	 mov	 BYTE PTR __k$[ebp+31], dl
  00213	8a 50 20	 mov	 dl, BYTE PTR [eax+32]
  00216	84 d2		 test	 dl, dl
  00218	74 20		 je	 SHORT $LN64@LoadInt_e@4
  0021a	8a 40 21	 mov	 al, BYTE PTR [eax+33]
  0021d	80 f2 ed	 xor	 dl, -19			; ffffffedH
  00220	88 55 f8	 mov	 BYTE PTR __k$[ebp+32], dl
  00223	84 c0		 test	 al, al
  00225	74 0a		 je	 SHORT $LN63@LoadInt_e@4
  00227	34 ec		 xor	 al, -20			; ffffffecH
  00229	88 45 f9	 mov	 BYTE PTR __k$[ebp+33], al
  0022c	e9 d1 00 00 00	 jmp	 $LN1@LoadInt_e@4
$LN63@LoadInt_e@4:
  00231	c6 45 f9 ec	 mov	 BYTE PTR __k$[ebp+33], -20 ; ffffffecH
  00235	e9 c8 00 00 00	 jmp	 $LN1@LoadInt_e@4
$LN64@LoadInt_e@4:
  0023a	c6 45 f8 ed	 mov	 BYTE PTR __k$[ebp+32], -19 ; ffffffedH
  0023e	e9 bf 00 00 00	 jmp	 $LN1@LoadInt_e@4
$LN65@LoadInt_e@4:
  00243	88 5d f7	 mov	 BYTE PTR __k$[ebp+31], bl
  00246	e9 b7 00 00 00	 jmp	 $LN1@LoadInt_e@4
$LN66@LoadInt_e@4:
  0024b	88 4d f6	 mov	 BYTE PTR __k$[ebp+30], cl
  0024e	e9 af 00 00 00	 jmp	 $LN1@LoadInt_e@4
$LN68@LoadInt_e@4:
  00253	c6 45 f4 ed	 mov	 BYTE PTR __k$[ebp+28], -19 ; ffffffedH
  00257	e9 a6 00 00 00	 jmp	 $LN1@LoadInt_e@4
$LN69@LoadInt_e@4:
  0025c	88 5d f3	 mov	 BYTE PTR __k$[ebp+27], bl
  0025f	e9 9e 00 00 00	 jmp	 $LN1@LoadInt_e@4
$LN70@LoadInt_e@4:
  00264	88 4d f2	 mov	 BYTE PTR __k$[ebp+26], cl
  00267	e9 96 00 00 00	 jmp	 $LN1@LoadInt_e@4
$LN71@LoadInt_e@4:
  0026c	c6 45 f1 ec	 mov	 BYTE PTR __k$[ebp+25], -20 ; ffffffecH
  00270	e9 8d 00 00 00	 jmp	 $LN1@LoadInt_e@4
$LN72@LoadInt_e@4:
  00275	c6 45 f0 ed	 mov	 BYTE PTR __k$[ebp+24], -19 ; ffffffedH
  00279	e9 84 00 00 00	 jmp	 $LN1@LoadInt_e@4
$LN73@LoadInt_e@4:
  0027e	88 5d ef	 mov	 BYTE PTR __k$[ebp+23], bl
  00281	eb 7f		 jmp	 SHORT $LN1@LoadInt_e@4
$LN74@LoadInt_e@4:
  00283	88 4d ee	 mov	 BYTE PTR __k$[ebp+22], cl
  00286	eb 7a		 jmp	 SHORT $LN1@LoadInt_e@4
$LN75@LoadInt_e@4:
  00288	c6 45 ed ec	 mov	 BYTE PTR __k$[ebp+21], -20 ; ffffffecH
  0028c	eb 74		 jmp	 SHORT $LN1@LoadInt_e@4
$LN76@LoadInt_e@4:
  0028e	c6 45 ec ed	 mov	 BYTE PTR __k$[ebp+20], -19 ; ffffffedH
  00292	eb 6e		 jmp	 SHORT $LN1@LoadInt_e@4
$LN77@LoadInt_e@4:
  00294	88 5d eb	 mov	 BYTE PTR __k$[ebp+19], bl
  00297	eb 69		 jmp	 SHORT $LN1@LoadInt_e@4
$LN78@LoadInt_e@4:
  00299	88 4d ea	 mov	 BYTE PTR __k$[ebp+18], cl
  0029c	eb 64		 jmp	 SHORT $LN1@LoadInt_e@4
$LN79@LoadInt_e@4:
  0029e	c6 45 e9 ec	 mov	 BYTE PTR __k$[ebp+17], -20 ; ffffffecH
  002a2	eb 5e		 jmp	 SHORT $LN1@LoadInt_e@4
$LN80@LoadInt_e@4:
  002a4	c6 45 e8 ed	 mov	 BYTE PTR __k$[ebp+16], -19 ; ffffffedH
  002a8	eb 58		 jmp	 SHORT $LN1@LoadInt_e@4
$LN81@LoadInt_e@4:
  002aa	88 5d e7	 mov	 BYTE PTR __k$[ebp+15], bl
  002ad	eb 53		 jmp	 SHORT $LN1@LoadInt_e@4
$LN82@LoadInt_e@4:
  002af	88 4d e6	 mov	 BYTE PTR __k$[ebp+14], cl
  002b2	eb 4e		 jmp	 SHORT $LN1@LoadInt_e@4
$LN83@LoadInt_e@4:
  002b4	c6 45 e5 ec	 mov	 BYTE PTR __k$[ebp+13], -20 ; ffffffecH
  002b8	eb 48		 jmp	 SHORT $LN1@LoadInt_e@4
$LN84@LoadInt_e@4:
  002ba	c6 45 e4 ed	 mov	 BYTE PTR __k$[ebp+12], -19 ; ffffffedH
  002be	eb 42		 jmp	 SHORT $LN1@LoadInt_e@4
$LN85@LoadInt_e@4:
  002c0	88 5d e3	 mov	 BYTE PTR __k$[ebp+11], bl
  002c3	eb 3d		 jmp	 SHORT $LN1@LoadInt_e@4
$LN86@LoadInt_e@4:
  002c5	88 4d e2	 mov	 BYTE PTR __k$[ebp+10], cl
  002c8	eb 38		 jmp	 SHORT $LN1@LoadInt_e@4
$LN87@LoadInt_e@4:
  002ca	c6 45 e1 ec	 mov	 BYTE PTR __k$[ebp+9], -20 ; ffffffecH
  002ce	eb 32		 jmp	 SHORT $LN1@LoadInt_e@4
$LN88@LoadInt_e@4:
  002d0	c6 45 e0 ed	 mov	 BYTE PTR __k$[ebp+8], -19 ; ffffffedH
  002d4	eb 2c		 jmp	 SHORT $LN1@LoadInt_e@4
$LN89@LoadInt_e@4:
  002d6	88 5d df	 mov	 BYTE PTR __k$[ebp+7], bl
  002d9	eb 27		 jmp	 SHORT $LN1@LoadInt_e@4
$LN90@LoadInt_e@4:
  002db	88 4d de	 mov	 BYTE PTR __k$[ebp+6], cl
  002de	eb 22		 jmp	 SHORT $LN1@LoadInt_e@4
$LN91@LoadInt_e@4:
  002e0	c6 45 dd ec	 mov	 BYTE PTR __k$[ebp+5], -20 ; ffffffecH
  002e4	eb 1c		 jmp	 SHORT $LN1@LoadInt_e@4
$LN92@LoadInt_e@4:
  002e6	c6 45 dc ed	 mov	 BYTE PTR __k$[ebp+4], -19 ; ffffffedH
  002ea	eb 16		 jmp	 SHORT $LN1@LoadInt_e@4
$LN93@LoadInt_e@4:
  002ec	c6 45 db ea	 mov	 BYTE PTR __k$[ebp+3], -22 ; ffffffeaH
  002f0	eb 10		 jmp	 SHORT $LN1@LoadInt_e@4
$LN94@LoadInt_e@4:
  002f2	c6 45 da eb	 mov	 BYTE PTR __k$[ebp+2], -21 ; ffffffebH
  002f6	eb 0a		 jmp	 SHORT $LN1@LoadInt_e@4
$LN95@LoadInt_e@4:
  002f8	c6 45 d9 ec	 mov	 BYTE PTR __k$[ebp+1], -20 ; ffffffecH
  002fc	eb 04		 jmp	 SHORT $LN1@LoadInt_e@4
$LN96@LoadInt_e@4:
  002fe	c6 45 d8 ed	 mov	 BYTE PTR __k$[ebp], -19	; ffffffedH
$LN1@LoadInt_e@4:
  00302	6a 07		 push	 7
  00304	8d 45 d8	 lea	 eax, DWORD PTR __k$[ebp]
  00307	c6 45 f5 00	 mov	 BYTE PTR __k$[ebp+29], 0
  0030b	5a		 pop	 edx
$LL104@LoadInt_e@4:
  0030c	81 30 ed ec eb
	ea		 xor	 DWORD PTR [eax], -353637139 ; eaebecedH
  00312	83 c0 04	 add	 eax, 4
  00315	4a		 dec	 edx
  00316	75 f4		 jne	 SHORT $LL104@LoadInt_e@4

; 120  : 		return LoadInt(_k, i);

  00318	ff 75 0c	 push	 DWORD PTR _i$[ebp]
  0031b	80 75 f4 ed	 xor	 BYTE PTR __k$[ebp+28], -19 ; ffffffedH
  0031f	8d 45 d8	 lea	 eax, DWORD PTR __k$[ebp]
  00322	50		 push	 eax
  00323	8b ce		 mov	 ecx, esi
  00325	ff 15 00 00 00
	00		 call	 DWORD PTR __imp_?LoadInt@ioINILoader@@QAEHPBDH@Z

; 121  : 	}

  0032b	8b 4d fc	 mov	 ecx, DWORD PTR __$ArrayPad$[ebp]
  0032e	5e		 pop	 esi
  0032f	33 cd		 xor	 ecx, ebp
  00331	5b		 pop	 ebx
  00332	e8 00 00 00 00	 call	 @__security_check_cookie@4
  00337	c9		 leave
  00338	c2 08 00	 ret	 8
??$LoadInt_e@$0BO@@ioINILoader@@QAEHAAY0BO@$$CBDH@Z ENDP ; ioINILoader::LoadInt_e<30>
_TEXT	ENDS
PUBLIC	__$ArrayPad$
PUBLIC	??$LoadBool_e@$0BO@@ioINILoader@@QAE_NAAY0BO@$$CBD_N@Z ; ioINILoader::LoadBool_e<30>
; Function compile flags: /Ogsp
;	COMDAT ??$LoadBool_e@$0BO@@ioINILoader@@QAE_NAAY0BO@$$CBD_N@Z
_TEXT	SEGMENT
__k$ = -40						; size = 30
__$ArrayPad$ = -4					; size = 4
_k$ = 8							; size = 4
_b$ = 12						; size = 1
??$LoadBool_e@$0BO@@ioINILoader@@QAE_NAAY0BO@$$CBD_N@Z PROC ; ioINILoader::LoadBool_e<30>, COMDAT
; _this$ = ecx

; 101  : 	{

  00000	55		 push	 ebp
  00001	8b ec		 mov	 ebp, esp
  00003	83 ec 28	 sub	 esp, 40			; 00000028H
  00006	a1 00 00 00 00	 mov	 eax, DWORD PTR ___security_cookie
  0000b	33 c5		 xor	 eax, ebp
  0000d	89 45 fc	 mov	 DWORD PTR __$ArrayPad$[ebp], eax
  00010	8b 45 08	 mov	 eax, DWORD PTR _k$[ebp]

; 102  : 		_ENCSTR(k, _k);

  00013	8a 10		 mov	 dl, BYTE PTR [eax]
  00015	53		 push	 ebx
  00016	56		 push	 esi
  00017	8b f1		 mov	 esi, ecx
  00019	84 d2		 test	 dl, dl
  0001b	0f 84 dd 02 00
	00		 je	 $LN96@LoadBool_e@2
  00021	80 f2 ed	 xor	 dl, -19			; ffffffedH
  00024	88 55 d8	 mov	 BYTE PTR __k$[ebp], dl
  00027	8a 50 01	 mov	 dl, BYTE PTR [eax+1]
  0002a	84 d2		 test	 dl, dl
  0002c	0f 84 c6 02 00
	00		 je	 $LN95@LoadBool_e@2
  00032	80 f2 ec	 xor	 dl, -20			; ffffffecH
  00035	88 55 d9	 mov	 BYTE PTR __k$[ebp+1], dl
  00038	8a 50 02	 mov	 dl, BYTE PTR [eax+2]
  0003b	84 d2		 test	 dl, dl
  0003d	0f 84 af 02 00
	00		 je	 $LN94@LoadBool_e@2
  00043	b1 eb		 mov	 cl, -21			; ffffffebH
  00045	32 d1		 xor	 dl, cl
  00047	88 55 da	 mov	 BYTE PTR __k$[ebp+2], dl
  0004a	8a 50 03	 mov	 dl, BYTE PTR [eax+3]
  0004d	84 d2		 test	 dl, dl
  0004f	0f 84 97 02 00
	00		 je	 $LN93@LoadBool_e@2
  00055	b3 ea		 mov	 bl, -22			; ffffffeaH
  00057	32 d3		 xor	 dl, bl
  00059	88 55 db	 mov	 BYTE PTR __k$[ebp+3], dl
  0005c	8a 50 04	 mov	 dl, BYTE PTR [eax+4]
  0005f	84 d2		 test	 dl, dl
  00061	0f 84 7f 02 00
	00		 je	 $LN92@LoadBool_e@2
  00067	80 f2 ed	 xor	 dl, -19			; ffffffedH
  0006a	88 55 dc	 mov	 BYTE PTR __k$[ebp+4], dl
  0006d	8a 50 05	 mov	 dl, BYTE PTR [eax+5]
  00070	84 d2		 test	 dl, dl
  00072	0f 84 68 02 00
	00		 je	 $LN91@LoadBool_e@2
  00078	80 f2 ec	 xor	 dl, -20			; ffffffecH
  0007b	88 55 dd	 mov	 BYTE PTR __k$[ebp+5], dl
  0007e	8a 50 06	 mov	 dl, BYTE PTR [eax+6]
  00081	84 d2		 test	 dl, dl
  00083	0f 84 52 02 00
	00		 je	 $LN90@LoadBool_e@2
  00089	32 d1		 xor	 dl, cl
  0008b	88 55 de	 mov	 BYTE PTR __k$[ebp+6], dl
  0008e	8a 50 07	 mov	 dl, BYTE PTR [eax+7]
  00091	84 d2		 test	 dl, dl
  00093	0f 84 3d 02 00
	00		 je	 $LN89@LoadBool_e@2
  00099	32 d3		 xor	 dl, bl
  0009b	88 55 df	 mov	 BYTE PTR __k$[ebp+7], dl
  0009e	8a 50 08	 mov	 dl, BYTE PTR [eax+8]
  000a1	84 d2		 test	 dl, dl
  000a3	0f 84 27 02 00
	00		 je	 $LN88@LoadBool_e@2
  000a9	80 f2 ed	 xor	 dl, -19			; ffffffedH
  000ac	88 55 e0	 mov	 BYTE PTR __k$[ebp+8], dl
  000af	8a 50 09	 mov	 dl, BYTE PTR [eax+9]
  000b2	84 d2		 test	 dl, dl
  000b4	0f 84 10 02 00
	00		 je	 $LN87@LoadBool_e@2
  000ba	80 f2 ec	 xor	 dl, -20			; ffffffecH
  000bd	88 55 e1	 mov	 BYTE PTR __k$[ebp+9], dl
  000c0	8a 50 0a	 mov	 dl, BYTE PTR [eax+10]
  000c3	84 d2		 test	 dl, dl
  000c5	0f 84 fa 01 00
	00		 je	 $LN86@LoadBool_e@2
  000cb	32 d1		 xor	 dl, cl
  000cd	88 55 e2	 mov	 BYTE PTR __k$[ebp+10], dl
  000d0	8a 50 0b	 mov	 dl, BYTE PTR [eax+11]
  000d3	84 d2		 test	 dl, dl
  000d5	0f 84 e5 01 00
	00		 je	 $LN85@LoadBool_e@2
  000db	32 d3		 xor	 dl, bl
  000dd	88 55 e3	 mov	 BYTE PTR __k$[ebp+11], dl
  000e0	8a 50 0c	 mov	 dl, BYTE PTR [eax+12]
  000e3	84 d2		 test	 dl, dl
  000e5	0f 84 cf 01 00
	00		 je	 $LN84@LoadBool_e@2
  000eb	80 f2 ed	 xor	 dl, -19			; ffffffedH
  000ee	88 55 e4	 mov	 BYTE PTR __k$[ebp+12], dl
  000f1	8a 50 0d	 mov	 dl, BYTE PTR [eax+13]
  000f4	84 d2		 test	 dl, dl
  000f6	0f 84 b8 01 00
	00		 je	 $LN83@LoadBool_e@2
  000fc	80 f2 ec	 xor	 dl, -20			; ffffffecH
  000ff	88 55 e5	 mov	 BYTE PTR __k$[ebp+13], dl
  00102	8a 50 0e	 mov	 dl, BYTE PTR [eax+14]
  00105	84 d2		 test	 dl, dl
  00107	0f 84 a2 01 00
	00		 je	 $LN82@LoadBool_e@2
  0010d	32 d1		 xor	 dl, cl
  0010f	88 55 e6	 mov	 BYTE PTR __k$[ebp+14], dl
  00112	8a 50 0f	 mov	 dl, BYTE PTR [eax+15]
  00115	84 d2		 test	 dl, dl
  00117	0f 84 8d 01 00
	00		 je	 $LN81@LoadBool_e@2
  0011d	32 d3		 xor	 dl, bl
  0011f	88 55 e7	 mov	 BYTE PTR __k$[ebp+15], dl
  00122	8a 50 10	 mov	 dl, BYTE PTR [eax+16]
  00125	84 d2		 test	 dl, dl
  00127	0f 84 77 01 00
	00		 je	 $LN80@LoadBool_e@2
  0012d	80 f2 ed	 xor	 dl, -19			; ffffffedH
  00130	88 55 e8	 mov	 BYTE PTR __k$[ebp+16], dl
  00133	8a 50 11	 mov	 dl, BYTE PTR [eax+17]
  00136	84 d2		 test	 dl, dl
  00138	0f 84 60 01 00
	00		 je	 $LN79@LoadBool_e@2
  0013e	80 f2 ec	 xor	 dl, -20			; ffffffecH
  00141	88 55 e9	 mov	 BYTE PTR __k$[ebp+17], dl
  00144	8a 50 12	 mov	 dl, BYTE PTR [eax+18]
  00147	84 d2		 test	 dl, dl
  00149	0f 84 4a 01 00
	00		 je	 $LN78@LoadBool_e@2
  0014f	32 d1		 xor	 dl, cl
  00151	88 55 ea	 mov	 BYTE PTR __k$[ebp+18], dl
  00154	8a 50 13	 mov	 dl, BYTE PTR [eax+19]
  00157	84 d2		 test	 dl, dl
  00159	0f 84 35 01 00
	00		 je	 $LN77@LoadBool_e@2
  0015f	32 d3		 xor	 dl, bl
  00161	88 55 eb	 mov	 BYTE PTR __k$[ebp+19], dl
  00164	8a 50 14	 mov	 dl, BYTE PTR [eax+20]
  00167	84 d2		 test	 dl, dl
  00169	0f 84 1f 01 00
	00		 je	 $LN76@LoadBool_e@2
  0016f	80 f2 ed	 xor	 dl, -19			; ffffffedH
  00172	88 55 ec	 mov	 BYTE PTR __k$[ebp+20], dl
  00175	8a 50 15	 mov	 dl, BYTE PTR [eax+21]
  00178	84 d2		 test	 dl, dl
  0017a	0f 84 08 01 00
	00		 je	 $LN75@LoadBool_e@2
  00180	80 f2 ec	 xor	 dl, -20			; ffffffecH
  00183	88 55 ed	 mov	 BYTE PTR __k$[ebp+21], dl
  00186	8a 50 16	 mov	 dl, BYTE PTR [eax+22]
  00189	84 d2		 test	 dl, dl
  0018b	0f 84 f2 00 00
	00		 je	 $LN74@LoadBool_e@2
  00191	32 d1		 xor	 dl, cl
  00193	88 55 ee	 mov	 BYTE PTR __k$[ebp+22], dl
  00196	8a 50 17	 mov	 dl, BYTE PTR [eax+23]
  00199	84 d2		 test	 dl, dl
  0019b	0f 84 dd 00 00
	00		 je	 $LN73@LoadBool_e@2
  001a1	32 d3		 xor	 dl, bl
  001a3	88 55 ef	 mov	 BYTE PTR __k$[ebp+23], dl
  001a6	8a 50 18	 mov	 dl, BYTE PTR [eax+24]
  001a9	84 d2		 test	 dl, dl
  001ab	0f 84 c4 00 00
	00		 je	 $LN72@LoadBool_e@2
  001b1	80 f2 ed	 xor	 dl, -19			; ffffffedH
  001b4	88 55 f0	 mov	 BYTE PTR __k$[ebp+24], dl
  001b7	8a 50 19	 mov	 dl, BYTE PTR [eax+25]
  001ba	84 d2		 test	 dl, dl
  001bc	0f 84 aa 00 00
	00		 je	 $LN71@LoadBool_e@2
  001c2	80 f2 ec	 xor	 dl, -20			; ffffffecH
  001c5	88 55 f1	 mov	 BYTE PTR __k$[ebp+25], dl
  001c8	8a 50 1a	 mov	 dl, BYTE PTR [eax+26]
  001cb	84 d2		 test	 dl, dl
  001cd	0f 84 91 00 00
	00		 je	 $LN70@LoadBool_e@2
  001d3	32 d1		 xor	 dl, cl
  001d5	88 55 f2	 mov	 BYTE PTR __k$[ebp+26], dl
  001d8	8a 50 1b	 mov	 dl, BYTE PTR [eax+27]
  001db	84 d2		 test	 dl, dl
  001dd	74 7d		 je	 SHORT $LN69@LoadBool_e@2
  001df	32 d3		 xor	 dl, bl
  001e1	88 55 f3	 mov	 BYTE PTR __k$[ebp+27], dl
  001e4	8a 50 1c	 mov	 dl, BYTE PTR [eax+28]
  001e7	84 d2		 test	 dl, dl
  001e9	74 68		 je	 SHORT $LN68@LoadBool_e@2
  001eb	80 f2 ed	 xor	 dl, -19			; ffffffedH
  001ee	80 78 1d 00	 cmp	 BYTE PTR [eax+29], 0
  001f2	88 55 f4	 mov	 BYTE PTR __k$[ebp+28], dl
  001f5	0f 84 07 01 00
	00		 je	 $LN1@LoadBool_e@2
  001fb	8a 50 1e	 mov	 dl, BYTE PTR [eax+30]
  001fe	84 d2		 test	 dl, dl
  00200	74 49		 je	 SHORT $LN66@LoadBool_e@2
  00202	32 d1		 xor	 dl, cl
  00204	88 55 f6	 mov	 BYTE PTR __k$[ebp+30], dl
  00207	8a 50 1f	 mov	 dl, BYTE PTR [eax+31]
  0020a	84 d2		 test	 dl, dl
  0020c	74 35		 je	 SHORT $LN65@LoadBool_e@2
  0020e	32 d3		 xor	 dl, bl
  00210	88 55 f7	 mov	 BYTE PTR __k$[ebp+31], dl
  00213	8a 50 20	 mov	 dl, BYTE PTR [eax+32]
  00216	84 d2		 test	 dl, dl
  00218	74 20		 je	 SHORT $LN64@LoadBool_e@2
  0021a	8a 40 21	 mov	 al, BYTE PTR [eax+33]
  0021d	80 f2 ed	 xor	 dl, -19			; ffffffedH
  00220	88 55 f8	 mov	 BYTE PTR __k$[ebp+32], dl
  00223	84 c0		 test	 al, al
  00225	74 0a		 je	 SHORT $LN63@LoadBool_e@2
  00227	34 ec		 xor	 al, -20			; ffffffecH
  00229	88 45 f9	 mov	 BYTE PTR __k$[ebp+33], al
  0022c	e9 d1 00 00 00	 jmp	 $LN1@LoadBool_e@2
$LN63@LoadBool_e@2:
  00231	c6 45 f9 ec	 mov	 BYTE PTR __k$[ebp+33], -20 ; ffffffecH
  00235	e9 c8 00 00 00	 jmp	 $LN1@LoadBool_e@2
$LN64@LoadBool_e@2:
  0023a	c6 45 f8 ed	 mov	 BYTE PTR __k$[ebp+32], -19 ; ffffffedH
  0023e	e9 bf 00 00 00	 jmp	 $LN1@LoadBool_e@2
$LN65@LoadBool_e@2:
  00243	88 5d f7	 mov	 BYTE PTR __k$[ebp+31], bl
  00246	e9 b7 00 00 00	 jmp	 $LN1@LoadBool_e@2
$LN66@LoadBool_e@2:
  0024b	88 4d f6	 mov	 BYTE PTR __k$[ebp+30], cl
  0024e	e9 af 00 00 00	 jmp	 $LN1@LoadBool_e@2
$LN68@LoadBool_e@2:
  00253	c6 45 f4 ed	 mov	 BYTE PTR __k$[ebp+28], -19 ; ffffffedH
  00257	e9 a6 00 00 00	 jmp	 $LN1@LoadBool_e@2
$LN69@LoadBool_e@2:
  0025c	88 5d f3	 mov	 BYTE PTR __k$[ebp+27], bl
  0025f	e9 9e 00 00 00	 jmp	 $LN1@LoadBool_e@2
$LN70@LoadBool_e@2:
  00264	88 4d f2	 mov	 BYTE PTR __k$[ebp+26], cl
  00267	e9 96 00 00 00	 jmp	 $LN1@LoadBool_e@2
$LN71@LoadBool_e@2:
  0026c	c6 45 f1 ec	 mov	 BYTE PTR __k$[ebp+25], -20 ; ffffffecH
  00270	e9 8d 00 00 00	 jmp	 $LN1@LoadBool_e@2
$LN72@LoadBool_e@2:
  00275	c6 45 f0 ed	 mov	 BYTE PTR __k$[ebp+24], -19 ; ffffffedH
  00279	e9 84 00 00 00	 jmp	 $LN1@LoadBool_e@2
$LN73@LoadBool_e@2:
  0027e	88 5d ef	 mov	 BYTE PTR __k$[ebp+23], bl
  00281	eb 7f		 jmp	 SHORT $LN1@LoadBool_e@2
$LN74@LoadBool_e@2:
  00283	88 4d ee	 mov	 BYTE PTR __k$[ebp+22], cl
  00286	eb 7a		 jmp	 SHORT $LN1@LoadBool_e@2
$LN75@LoadBool_e@2:
  00288	c6 45 ed ec	 mov	 BYTE PTR __k$[ebp+21], -20 ; ffffffecH
  0028c	eb 74		 jmp	 SHORT $LN1@LoadBool_e@2
$LN76@LoadBool_e@2:
  0028e	c6 45 ec ed	 mov	 BYTE PTR __k$[ebp+20], -19 ; ffffffedH
  00292	eb 6e		 jmp	 SHORT $LN1@LoadBool_e@2
$LN77@LoadBool_e@2:
  00294	88 5d eb	 mov	 BYTE PTR __k$[ebp+19], bl
  00297	eb 69		 jmp	 SHORT $LN1@LoadBool_e@2
$LN78@LoadBool_e@2:
  00299	88 4d ea	 mov	 BYTE PTR __k$[ebp+18], cl
  0029c	eb 64		 jmp	 SHORT $LN1@LoadBool_e@2
$LN79@LoadBool_e@2:
  0029e	c6 45 e9 ec	 mov	 BYTE PTR __k$[ebp+17], -20 ; ffffffecH
  002a2	eb 5e		 jmp	 SHORT $LN1@LoadBool_e@2
$LN80@LoadBool_e@2:
  002a4	c6 45 e8 ed	 mov	 BYTE PTR __k$[ebp+16], -19 ; ffffffedH
  002a8	eb 58		 jmp	 SHORT $LN1@LoadBool_e@2
$LN81@LoadBool_e@2:
  002aa	88 5d e7	 mov	 BYTE PTR __k$[ebp+15], bl
  002ad	eb 53		 jmp	 SHORT $LN1@LoadBool_e@2
$LN82@LoadBool_e@2:
  002af	88 4d e6	 mov	 BYTE PTR __k$[ebp+14], cl
  002b2	eb 4e		 jmp	 SHORT $LN1@LoadBool_e@2
$LN83@LoadBool_e@2:
  002b4	c6 45 e5 ec	 mov	 BYTE PTR __k$[ebp+13], -20 ; ffffffecH
  002b8	eb 48		 jmp	 SHORT $LN1@LoadBool_e@2
$LN84@LoadBool_e@2:
  002ba	c6 45 e4 ed	 mov	 BYTE PTR __k$[ebp+12], -19 ; ffffffedH
  002be	eb 42		 jmp	 SHORT $LN1@LoadBool_e@2
$LN85@LoadBool_e@2:
  002c0	88 5d e3	 mov	 BYTE PTR __k$[ebp+11], bl
  002c3	eb 3d		 jmp	 SHORT $LN1@LoadBool_e@2
$LN86@LoadBool_e@2:
  002c5	88 4d e2	 mov	 BYTE PTR __k$[ebp+10], cl
  002c8	eb 38		 jmp	 SHORT $LN1@LoadBool_e@2
$LN87@LoadBool_e@2:
  002ca	c6 45 e1 ec	 mov	 BYTE PTR __k$[ebp+9], -20 ; ffffffecH
  002ce	eb 32		 jmp	 SHORT $LN1@LoadBool_e@2
$LN88@LoadBool_e@2:
  002d0	c6 45 e0 ed	 mov	 BYTE PTR __k$[ebp+8], -19 ; ffffffedH
  002d4	eb 2c		 jmp	 SHORT $LN1@LoadBool_e@2
$LN89@LoadBool_e@2:
  002d6	88 5d df	 mov	 BYTE PTR __k$[ebp+7], bl
  002d9	eb 27		 jmp	 SHORT $LN1@LoadBool_e@2
$LN90@LoadBool_e@2:
  002db	88 4d de	 mov	 BYTE PTR __k$[ebp+6], cl
  002de	eb 22		 jmp	 SHORT $LN1@LoadBool_e@2
$LN91@LoadBool_e@2:
  002e0	c6 45 dd ec	 mov	 BYTE PTR __k$[ebp+5], -20 ; ffffffecH
  002e4	eb 1c		 jmp	 SHORT $LN1@LoadBool_e@2
$LN92@LoadBool_e@2:
  002e6	c6 45 dc ed	 mov	 BYTE PTR __k$[ebp+4], -19 ; ffffffedH
  002ea	eb 16		 jmp	 SHORT $LN1@LoadBool_e@2
$LN93@LoadBool_e@2:
  002ec	c6 45 db ea	 mov	 BYTE PTR __k$[ebp+3], -22 ; ffffffeaH
  002f0	eb 10		 jmp	 SHORT $LN1@LoadBool_e@2
$LN94@LoadBool_e@2:
  002f2	c6 45 da eb	 mov	 BYTE PTR __k$[ebp+2], -21 ; ffffffebH
  002f6	eb 0a		 jmp	 SHORT $LN1@LoadBool_e@2
$LN95@LoadBool_e@2:
  002f8	c6 45 d9 ec	 mov	 BYTE PTR __k$[ebp+1], -20 ; ffffffecH
  002fc	eb 04		 jmp	 SHORT $LN1@LoadBool_e@2
$LN96@LoadBool_e@2:
  002fe	c6 45 d8 ed	 mov	 BYTE PTR __k$[ebp], -19	; ffffffedH
$LN1@LoadBool_e@2:
  00302	6a 07		 push	 7
  00304	8d 45 d8	 lea	 eax, DWORD PTR __k$[ebp]
  00307	c6 45 f5 00	 mov	 BYTE PTR __k$[ebp+29], 0
  0030b	5a		 pop	 edx
$LL104@LoadBool_e@2:
  0030c	81 30 ed ec eb
	ea		 xor	 DWORD PTR [eax], -353637139 ; eaebecedH
  00312	83 c0 04	 add	 eax, 4
  00315	4a		 dec	 edx
  00316	75 f4		 jne	 SHORT $LL104@LoadBool_e@2

; 103  : 		return LoadBool(_k, b);

  00318	ff 75 0c	 push	 DWORD PTR _b$[ebp]
  0031b	80 75 f4 ed	 xor	 BYTE PTR __k$[ebp+28], -19 ; ffffffedH
  0031f	8d 45 d8	 lea	 eax, DWORD PTR __k$[ebp]
  00322	50		 push	 eax
  00323	8b ce		 mov	 ecx, esi
  00325	ff 15 00 00 00
	00		 call	 DWORD PTR __imp_?LoadBool@ioINILoader@@QAE_NPBD_N@Z

; 104  : 	}

  0032b	8b 4d fc	 mov	 ecx, DWORD PTR __$ArrayPad$[ebp]
  0032e	5e		 pop	 esi
  0032f	33 cd		 xor	 ecx, ebp
  00331	5b		 pop	 ebx
  00332	e8 00 00 00 00	 call	 @__security_check_cookie@4
  00337	c9		 leave
  00338	c2 08 00	 ret	 8
??$LoadBool_e@$0BO@@ioINILoader@@QAE_NAAY0BO@$$CBD_N@Z ENDP ; ioINILoader::LoadBool_e<30>
_TEXT	ENDS
PUBLIC	__$ArrayPad$
PUBLIC	??$LoadInt_e@$0BM@@ioINILoader@@QAEHAAY0BM@$$CBDH@Z ; ioINILoader::LoadInt_e<28>
; Function compile flags: /Ogsp
;	COMDAT ??$LoadInt_e@$0BM@@ioINILoader@@QAEHAAY0BM@$$CBDH@Z
_TEXT	SEGMENT
__k$ = -36						; size = 28
__$ArrayPad$ = -4					; size = 4
_k$ = 8							; size = 4
_i$ = 12						; size = 4
??$LoadInt_e@$0BM@@ioINILoader@@QAEHAAY0BM@$$CBDH@Z PROC ; ioINILoader::LoadInt_e<28>, COMDAT
; _this$ = ecx

; 118  : 	{

  00000	55		 push	 ebp
  00001	8b ec		 mov	 ebp, esp
  00003	83 ec 24	 sub	 esp, 36			; 00000024H
  00006	a1 00 00 00 00	 mov	 eax, DWORD PTR ___security_cookie
  0000b	33 c5		 xor	 eax, ebp
  0000d	89 45 fc	 mov	 DWORD PTR __$ArrayPad$[ebp], eax
  00010	8b 45 08	 mov	 eax, DWORD PTR _k$[ebp]

; 119  : 		_ENCSTR(k, _k);

  00013	8a 10		 mov	 dl, BYTE PTR [eax]
  00015	53		 push	 ebx
  00016	56		 push	 esi
  00017	8b f1		 mov	 esi, ecx
  00019	84 d2		 test	 dl, dl
  0001b	0f 84 a9 02 00
	00		 je	 $LN96@LoadInt_e@5
  00021	80 f2 ed	 xor	 dl, -19			; ffffffedH
  00024	88 55 dc	 mov	 BYTE PTR __k$[ebp], dl
  00027	8a 50 01	 mov	 dl, BYTE PTR [eax+1]
  0002a	84 d2		 test	 dl, dl
  0002c	0f 84 92 02 00
	00		 je	 $LN95@LoadInt_e@5
  00032	b3 ec		 mov	 bl, -20			; ffffffecH
  00034	32 d3		 xor	 dl, bl
  00036	88 55 dd	 mov	 BYTE PTR __k$[ebp+1], dl
  00039	8a 50 02	 mov	 dl, BYTE PTR [eax+2]
  0003c	84 d2		 test	 dl, dl
  0003e	0f 84 7a 02 00
	00		 je	 $LN94@LoadInt_e@5
  00044	b1 eb		 mov	 cl, -21			; ffffffebH
  00046	32 d1		 xor	 dl, cl
  00048	88 55 de	 mov	 BYTE PTR __k$[ebp+2], dl
  0004b	8a 50 03	 mov	 dl, BYTE PTR [eax+3]
  0004e	84 d2		 test	 dl, dl
  00050	0f 84 62 02 00
	00		 je	 $LN93@LoadInt_e@5
  00056	80 f2 ea	 xor	 dl, -22			; ffffffeaH
  00059	88 55 df	 mov	 BYTE PTR __k$[ebp+3], dl
  0005c	8a 50 04	 mov	 dl, BYTE PTR [eax+4]
  0005f	84 d2		 test	 dl, dl
  00061	0f 84 4b 02 00
	00		 je	 $LN92@LoadInt_e@5
  00067	80 f2 ed	 xor	 dl, -19			; ffffffedH
  0006a	88 55 e0	 mov	 BYTE PTR __k$[ebp+4], dl
  0006d	8a 50 05	 mov	 dl, BYTE PTR [eax+5]
  00070	84 d2		 test	 dl, dl
  00072	0f 84 35 02 00
	00		 je	 $LN91@LoadInt_e@5
  00078	32 d3		 xor	 dl, bl
  0007a	88 55 e1	 mov	 BYTE PTR __k$[ebp+5], dl
  0007d	8a 50 06	 mov	 dl, BYTE PTR [eax+6]
  00080	84 d2		 test	 dl, dl
  00082	0f 84 20 02 00
	00		 je	 $LN90@LoadInt_e@5
  00088	32 d1		 xor	 dl, cl
  0008a	88 55 e2	 mov	 BYTE PTR __k$[ebp+6], dl
  0008d	8a 50 07	 mov	 dl, BYTE PTR [eax+7]
  00090	84 d2		 test	 dl, dl
  00092	0f 84 0a 02 00
	00		 je	 $LN89@LoadInt_e@5
  00098	80 f2 ea	 xor	 dl, -22			; ffffffeaH
  0009b	88 55 e3	 mov	 BYTE PTR __k$[ebp+7], dl
  0009e	8a 50 08	 mov	 dl, BYTE PTR [eax+8]
  000a1	84 d2		 test	 dl, dl
  000a3	0f 84 f3 01 00
	00		 je	 $LN88@LoadInt_e@5
  000a9	80 f2 ed	 xor	 dl, -19			; ffffffedH
  000ac	88 55 e4	 mov	 BYTE PTR __k$[ebp+8], dl
  000af	8a 50 09	 mov	 dl, BYTE PTR [eax+9]
  000b2	84 d2		 test	 dl, dl
  000b4	0f 84 dd 01 00
	00		 je	 $LN87@LoadInt_e@5
  000ba	32 d3		 xor	 dl, bl
  000bc	88 55 e5	 mov	 BYTE PTR __k$[ebp+9], dl
  000bf	8a 50 0a	 mov	 dl, BYTE PTR [eax+10]
  000c2	84 d2		 test	 dl, dl
  000c4	0f 84 c8 01 00
	00		 je	 $LN86@LoadInt_e@5
  000ca	32 d1		 xor	 dl, cl
  000cc	88 55 e6	 mov	 BYTE PTR __k$[ebp+10], dl
  000cf	8a 50 0b	 mov	 dl, BYTE PTR [eax+11]
  000d2	84 d2		 test	 dl, dl
  000d4	0f 84 b2 01 00
	00		 je	 $LN85@LoadInt_e@5
  000da	80 f2 ea	 xor	 dl, -22			; ffffffeaH
  000dd	88 55 e7	 mov	 BYTE PTR __k$[ebp+11], dl
  000e0	8a 50 0c	 mov	 dl, BYTE PTR [eax+12]
  000e3	84 d2		 test	 dl, dl
  000e5	0f 84 9b 01 00
	00		 je	 $LN84@LoadInt_e@5
  000eb	80 f2 ed	 xor	 dl, -19			; ffffffedH
  000ee	88 55 e8	 mov	 BYTE PTR __k$[ebp+12], dl
  000f1	8a 50 0d	 mov	 dl, BYTE PTR [eax+13]
  000f4	84 d2		 test	 dl, dl
  000f6	0f 84 85 01 00
	00		 je	 $LN83@LoadInt_e@5
  000fc	32 d3		 xor	 dl, bl
  000fe	88 55 e9	 mov	 BYTE PTR __k$[ebp+13], dl
  00101	8a 50 0e	 mov	 dl, BYTE PTR [eax+14]
  00104	84 d2		 test	 dl, dl
  00106	0f 84 70 01 00
	00		 je	 $LN82@LoadInt_e@5
  0010c	32 d1		 xor	 dl, cl
  0010e	88 55 ea	 mov	 BYTE PTR __k$[ebp+14], dl
  00111	8a 50 0f	 mov	 dl, BYTE PTR [eax+15]
  00114	84 d2		 test	 dl, dl
  00116	0f 84 5a 01 00
	00		 je	 $LN81@LoadInt_e@5
  0011c	80 f2 ea	 xor	 dl, -22			; ffffffeaH
  0011f	88 55 eb	 mov	 BYTE PTR __k$[ebp+15], dl
  00122	8a 50 10	 mov	 dl, BYTE PTR [eax+16]
  00125	84 d2		 test	 dl, dl
  00127	0f 84 43 01 00
	00		 je	 $LN80@LoadInt_e@5
  0012d	80 f2 ed	 xor	 dl, -19			; ffffffedH
  00130	88 55 ec	 mov	 BYTE PTR __k$[ebp+16], dl
  00133	8a 50 11	 mov	 dl, BYTE PTR [eax+17]
  00136	84 d2		 test	 dl, dl
  00138	0f 84 2d 01 00
	00		 je	 $LN79@LoadInt_e@5
  0013e	32 d3		 xor	 dl, bl
  00140	88 55 ed	 mov	 BYTE PTR __k$[ebp+17], dl
  00143	8a 50 12	 mov	 dl, BYTE PTR [eax+18]
  00146	84 d2		 test	 dl, dl
  00148	0f 84 18 01 00
	00		 je	 $LN78@LoadInt_e@5
  0014e	32 d1		 xor	 dl, cl
  00150	88 55 ee	 mov	 BYTE PTR __k$[ebp+18], dl
  00153	8a 50 13	 mov	 dl, BYTE PTR [eax+19]
  00156	84 d2		 test	 dl, dl
  00158	0f 84 02 01 00
	00		 je	 $LN77@LoadInt_e@5
  0015e	80 f2 ea	 xor	 dl, -22			; ffffffeaH
  00161	88 55 ef	 mov	 BYTE PTR __k$[ebp+19], dl
  00164	8a 50 14	 mov	 dl, BYTE PTR [eax+20]
  00167	84 d2		 test	 dl, dl
  00169	0f 84 eb 00 00
	00		 je	 $LN76@LoadInt_e@5
  0016f	80 f2 ed	 xor	 dl, -19			; ffffffedH
  00172	88 55 f0	 mov	 BYTE PTR __k$[ebp+20], dl
  00175	8a 50 15	 mov	 dl, BYTE PTR [eax+21]
  00178	84 d2		 test	 dl, dl
  0017a	0f 84 d5 00 00
	00		 je	 $LN75@LoadInt_e@5
  00180	32 d3		 xor	 dl, bl
  00182	88 55 f1	 mov	 BYTE PTR __k$[ebp+21], dl
  00185	8a 50 16	 mov	 dl, BYTE PTR [eax+22]
  00188	84 d2		 test	 dl, dl
  0018a	0f 84 c0 00 00
	00		 je	 $LN74@LoadInt_e@5
  00190	32 d1		 xor	 dl, cl
  00192	88 55 f2	 mov	 BYTE PTR __k$[ebp+22], dl
  00195	8a 50 17	 mov	 dl, BYTE PTR [eax+23]
  00198	84 d2		 test	 dl, dl
  0019a	0f 84 aa 00 00
	00		 je	 $LN73@LoadInt_e@5
  001a0	80 f2 ea	 xor	 dl, -22			; ffffffeaH
  001a3	88 55 f3	 mov	 BYTE PTR __k$[ebp+23], dl
  001a6	8a 50 18	 mov	 dl, BYTE PTR [eax+24]
  001a9	84 d2		 test	 dl, dl
  001ab	0f 84 90 00 00
	00		 je	 $LN72@LoadInt_e@5
  001b1	80 f2 ed	 xor	 dl, -19			; ffffffedH
  001b4	88 55 f4	 mov	 BYTE PTR __k$[ebp+24], dl
  001b7	8a 50 19	 mov	 dl, BYTE PTR [eax+25]
  001ba	84 d2		 test	 dl, dl
  001bc	74 7b		 je	 SHORT $LN71@LoadInt_e@5
  001be	32 d3		 xor	 dl, bl
  001c0	88 55 f5	 mov	 BYTE PTR __k$[ebp+25], dl
  001c3	8a 50 1a	 mov	 dl, BYTE PTR [eax+26]
  001c6	84 d2		 test	 dl, dl
  001c8	74 67		 je	 SHORT $LN70@LoadInt_e@5
  001ca	32 d1		 xor	 dl, cl
  001cc	80 78 1b 00	 cmp	 BYTE PTR [eax+27], 0
  001d0	88 55 f6	 mov	 BYTE PTR __k$[ebp+26], dl
  001d3	0f 84 f5 00 00
	00		 je	 $LN1@LoadInt_e@5
  001d9	8a 50 1c	 mov	 dl, BYTE PTR [eax+28]
  001dc	84 d2		 test	 dl, dl
  001de	74 48		 je	 SHORT $LN68@LoadInt_e@5
  001e0	80 f2 ed	 xor	 dl, -19			; ffffffedH
  001e3	88 55 f8	 mov	 BYTE PTR __k$[ebp+28], dl
  001e6	8a 50 1d	 mov	 dl, BYTE PTR [eax+29]
  001e9	84 d2		 test	 dl, dl
  001eb	74 33		 je	 SHORT $LN67@LoadInt_e@5
  001ed	32 d3		 xor	 dl, bl
  001ef	88 55 f9	 mov	 BYTE PTR __k$[ebp+29], dl
  001f2	8a 50 1e	 mov	 dl, BYTE PTR [eax+30]
  001f5	84 d2		 test	 dl, dl
  001f7	74 1f		 je	 SHORT $LN66@LoadInt_e@5
  001f9	8a 40 1f	 mov	 al, BYTE PTR [eax+31]
  001fc	32 d1		 xor	 dl, cl
  001fe	88 55 fa	 mov	 BYTE PTR __k$[ebp+30], dl
  00201	84 c0		 test	 al, al
  00203	74 0a		 je	 SHORT $LN65@LoadInt_e@5
  00205	34 ea		 xor	 al, -22			; ffffffeaH
  00207	88 45 fb	 mov	 BYTE PTR __k$[ebp+31], al
  0020a	e9 bf 00 00 00	 jmp	 $LN1@LoadInt_e@5
$LN65@LoadInt_e@5:
  0020f	c6 45 fb ea	 mov	 BYTE PTR __k$[ebp+31], -22 ; ffffffeaH
  00213	e9 b6 00 00 00	 jmp	 $LN1@LoadInt_e@5
$LN66@LoadInt_e@5:
  00218	88 4d fa	 mov	 BYTE PTR __k$[ebp+30], cl
  0021b	e9 ae 00 00 00	 jmp	 $LN1@LoadInt_e@5
$LN67@LoadInt_e@5:
  00220	88 5d f9	 mov	 BYTE PTR __k$[ebp+29], bl
  00223	e9 a6 00 00 00	 jmp	 $LN1@LoadInt_e@5
$LN68@LoadInt_e@5:
  00228	c6 45 f8 ed	 mov	 BYTE PTR __k$[ebp+28], -19 ; ffffffedH
  0022c	e9 9d 00 00 00	 jmp	 $LN1@LoadInt_e@5
$LN70@LoadInt_e@5:
  00231	88 4d f6	 mov	 BYTE PTR __k$[ebp+26], cl
  00234	e9 95 00 00 00	 jmp	 $LN1@LoadInt_e@5
$LN71@LoadInt_e@5:
  00239	88 5d f5	 mov	 BYTE PTR __k$[ebp+25], bl
  0023c	e9 8d 00 00 00	 jmp	 $LN1@LoadInt_e@5
$LN72@LoadInt_e@5:
  00241	c6 45 f4 ed	 mov	 BYTE PTR __k$[ebp+24], -19 ; ffffffedH
  00245	e9 84 00 00 00	 jmp	 $LN1@LoadInt_e@5
$LN73@LoadInt_e@5:
  0024a	c6 45 f3 ea	 mov	 BYTE PTR __k$[ebp+23], -22 ; ffffffeaH
  0024e	eb 7e		 jmp	 SHORT $LN1@LoadInt_e@5
$LN74@LoadInt_e@5:
  00250	88 4d f2	 mov	 BYTE PTR __k$[ebp+22], cl
  00253	eb 79		 jmp	 SHORT $LN1@LoadInt_e@5
$LN75@LoadInt_e@5:
  00255	88 5d f1	 mov	 BYTE PTR __k$[ebp+21], bl
  00258	eb 74		 jmp	 SHORT $LN1@LoadInt_e@5
$LN76@LoadInt_e@5:
  0025a	c6 45 f0 ed	 mov	 BYTE PTR __k$[ebp+20], -19 ; ffffffedH
  0025e	eb 6e		 jmp	 SHORT $LN1@LoadInt_e@5
$LN77@LoadInt_e@5:
  00260	c6 45 ef ea	 mov	 BYTE PTR __k$[ebp+19], -22 ; ffffffeaH
  00264	eb 68		 jmp	 SHORT $LN1@LoadInt_e@5
$LN78@LoadInt_e@5:
  00266	88 4d ee	 mov	 BYTE PTR __k$[ebp+18], cl
  00269	eb 63		 jmp	 SHORT $LN1@LoadInt_e@5
$LN79@LoadInt_e@5:
  0026b	88 5d ed	 mov	 BYTE PTR __k$[ebp+17], bl
  0026e	eb 5e		 jmp	 SHORT $LN1@LoadInt_e@5
$LN80@LoadInt_e@5:
  00270	c6 45 ec ed	 mov	 BYTE PTR __k$[ebp+16], -19 ; ffffffedH
  00274	eb 58		 jmp	 SHORT $LN1@LoadInt_e@5
$LN81@LoadInt_e@5:
  00276	c6 45 eb ea	 mov	 BYTE PTR __k$[ebp+15], -22 ; ffffffeaH
  0027a	eb 52		 jmp	 SHORT $LN1@LoadInt_e@5
$LN82@LoadInt_e@5:
  0027c	88 4d ea	 mov	 BYTE PTR __k$[ebp+14], cl
  0027f	eb 4d		 jmp	 SHORT $LN1@LoadInt_e@5
$LN83@LoadInt_e@5:
  00281	88 5d e9	 mov	 BYTE PTR __k$[ebp+13], bl
  00284	eb 48		 jmp	 SHORT $LN1@LoadInt_e@5
$LN84@LoadInt_e@5:
  00286	c6 45 e8 ed	 mov	 BYTE PTR __k$[ebp+12], -19 ; ffffffedH
  0028a	eb 42		 jmp	 SHORT $LN1@LoadInt_e@5
$LN85@LoadInt_e@5:
  0028c	c6 45 e7 ea	 mov	 BYTE PTR __k$[ebp+11], -22 ; ffffffeaH
  00290	eb 3c		 jmp	 SHORT $LN1@LoadInt_e@5
$LN86@LoadInt_e@5:
  00292	88 4d e6	 mov	 BYTE PTR __k$[ebp+10], cl
  00295	eb 37		 jmp	 SHORT $LN1@LoadInt_e@5
$LN87@LoadInt_e@5:
  00297	88 5d e5	 mov	 BYTE PTR __k$[ebp+9], bl
  0029a	eb 32		 jmp	 SHORT $LN1@LoadInt_e@5
$LN88@LoadInt_e@5:
  0029c	c6 45 e4 ed	 mov	 BYTE PTR __k$[ebp+8], -19 ; ffffffedH
  002a0	eb 2c		 jmp	 SHORT $LN1@LoadInt_e@5
$LN89@LoadInt_e@5:
  002a2	c6 45 e3 ea	 mov	 BYTE PTR __k$[ebp+7], -22 ; ffffffeaH
  002a6	eb 26		 jmp	 SHORT $LN1@LoadInt_e@5
$LN90@LoadInt_e@5:
  002a8	88 4d e2	 mov	 BYTE PTR __k$[ebp+6], cl
  002ab	eb 21		 jmp	 SHORT $LN1@LoadInt_e@5
$LN91@LoadInt_e@5:
  002ad	88 5d e1	 mov	 BYTE PTR __k$[ebp+5], bl
  002b0	eb 1c		 jmp	 SHORT $LN1@LoadInt_e@5
$LN92@LoadInt_e@5:
  002b2	c6 45 e0 ed	 mov	 BYTE PTR __k$[ebp+4], -19 ; ffffffedH
  002b6	eb 16		 jmp	 SHORT $LN1@LoadInt_e@5
$LN93@LoadInt_e@5:
  002b8	c6 45 df ea	 mov	 BYTE PTR __k$[ebp+3], -22 ; ffffffeaH
  002bc	eb 10		 jmp	 SHORT $LN1@LoadInt_e@5
$LN94@LoadInt_e@5:
  002be	c6 45 de eb	 mov	 BYTE PTR __k$[ebp+2], -21 ; ffffffebH
  002c2	eb 0a		 jmp	 SHORT $LN1@LoadInt_e@5
$LN95@LoadInt_e@5:
  002c4	c6 45 dd ec	 mov	 BYTE PTR __k$[ebp+1], -20 ; ffffffecH
  002c8	eb 04		 jmp	 SHORT $LN1@LoadInt_e@5
$LN96@LoadInt_e@5:
  002ca	c6 45 dc ed	 mov	 BYTE PTR __k$[ebp], -19	; ffffffedH
$LN1@LoadInt_e@5:
  002ce	6a 06		 push	 6
  002d0	8d 45 dc	 lea	 eax, DWORD PTR __k$[ebp]
  002d3	c6 45 f7 00	 mov	 BYTE PTR __k$[ebp+27], 0
  002d7	5a		 pop	 edx
$LL104@LoadInt_e@5:
  002d8	81 30 ed ec eb
	ea		 xor	 DWORD PTR [eax], -353637139 ; eaebecedH
  002de	83 c0 04	 add	 eax, 4
  002e1	4a		 dec	 edx
  002e2	75 f4		 jne	 SHORT $LL104@LoadInt_e@5
  002e4	6a 18		 push	 24			; 00000018H
  002e6	58		 pop	 eax
$LL101@LoadInt_e@5:
  002e7	8b c8		 mov	 ecx, eax
  002e9	81 e1 03 00 00
	80		 and	 ecx, -2147483645	; 80000003H
  002ef	79 05		 jns	 SHORT $LN111@LoadInt_e@5
  002f1	49		 dec	 ecx
  002f2	83 c9 fc	 or	 ecx, -4			; fffffffcH
  002f5	41		 inc	 ecx
$LN111@LoadInt_e@5:
  002f6	b2 ed		 mov	 dl, -19			; ffffffedH
  002f8	2a d1		 sub	 dl, cl
  002fa	30 54 05 dc	 xor	 BYTE PTR __k$[ebp+eax], dl
  002fe	40		 inc	 eax
  002ff	83 f8 1b	 cmp	 eax, 27			; 0000001bH
  00302	7c e3		 jl	 SHORT $LL101@LoadInt_e@5

; 120  : 		return LoadInt(_k, i);

  00304	ff 75 0c	 push	 DWORD PTR _i$[ebp]
  00307	8d 45 dc	 lea	 eax, DWORD PTR __k$[ebp]
  0030a	50		 push	 eax
  0030b	8b ce		 mov	 ecx, esi
  0030d	ff 15 00 00 00
	00		 call	 DWORD PTR __imp_?LoadInt@ioINILoader@@QAEHPBDH@Z

; 121  : 	}

  00313	8b 4d fc	 mov	 ecx, DWORD PTR __$ArrayPad$[ebp]
  00316	5e		 pop	 esi
  00317	33 cd		 xor	 ecx, ebp
  00319	5b		 pop	 ebx
  0031a	e8 00 00 00 00	 call	 @__security_check_cookie@4
  0031f	c9		 leave
  00320	c2 08 00	 ret	 8
??$LoadInt_e@$0BM@@ioINILoader@@QAEHAAY0BM@$$CBDH@Z ENDP ; ioINILoader::LoadInt_e<28>
_TEXT	ENDS
PUBLIC	??$_Cons_val@V?$allocator@UChangeDirInfo@@@std@@UChangeDirInfo@@AAU3@@std@@YAXAAV?$allocator@UChangeDirInfo@@@0@PAUChangeDirInfo@@AAU2@@Z ; std::_Cons_val<std::allocator<ChangeDirInfo>,ChangeDirInfo,ChangeDirInfo &>
; Function compile flags: /Ogsp
; File c:\program files (x86)\microsoft visual studio 10.0\vc\include\xmemory
;	COMDAT ??$_Cons_val@V?$allocator@UChangeDirInfo@@@std@@UChangeDirInfo@@AAU3@@std@@YAXAAV?$allocator@UChangeDirInfo@@@0@PAUChangeDirInfo@@AAU2@@Z
_TEXT	SEGMENT
__Alval$ = 8						; size = 4
__Pdest$ = 12						; size = 4
__Src$ = 16						; size = 4
??$_Cons_val@V?$allocator@UChangeDirInfo@@@std@@UChangeDirInfo@@AAU3@@std@@YAXAAV?$allocator@UChangeDirInfo@@@0@PAUChangeDirInfo@@AAU2@@Z PROC ; std::_Cons_val<std::allocator<ChangeDirInfo>,ChangeDirInfo,ChangeDirInfo &>, COMDAT

; 279  : 	{	// construct using allocator

  00000	55		 push	 ebp
  00001	8b ec		 mov	 ebp, esp
  00003	57		 push	 edi

; 280  : 	_Alval.construct(_Pdest, _STD forward<_Ty2>(_Src));

  00004	8b 7d 0c	 mov	 edi, DWORD PTR __Pdest$[ebp]
  00007	85 ff		 test	 edi, edi
  00009	74 0a		 je	 SHORT $LN7@Cons_val
  0000b	56		 push	 esi
  0000c	8b 75 10	 mov	 esi, DWORD PTR __Src$[ebp]
  0000f	6a 07		 push	 7
  00011	59		 pop	 ecx
  00012	f3 a5		 rep movsd
  00014	5e		 pop	 esi
$LN7@Cons_val:
  00015	5f		 pop	 edi

; 281  : 	}

  00016	5d		 pop	 ebp
  00017	c3		 ret	 0
??$_Cons_val@V?$allocator@UChangeDirInfo@@@std@@UChangeDirInfo@@AAU3@@std@@YAXAAV?$allocator@UChangeDirInfo@@@0@PAUChangeDirInfo@@AAU2@@Z ENDP ; std::_Cons_val<std::allocator<ChangeDirInfo>,ChangeDirInfo,ChangeDirInfo &>
_TEXT	ENDS
PUBLIC	?construct@?$allocator@UChangeDirInfo@@@std@@QAEXPAUChangeDirInfo@@ABU3@@Z ; std::allocator<ChangeDirInfo>::construct
; Function compile flags: /Ogsp
;	COMDAT ?construct@?$allocator@UChangeDirInfo@@@std@@QAEXPAUChangeDirInfo@@ABU3@@Z
_TEXT	SEGMENT
__Ptr$ = 8						; size = 4
__Val$ = 12						; size = 4
?construct@?$allocator@UChangeDirInfo@@@std@@QAEXPAUChangeDirInfo@@ABU3@@Z PROC ; std::allocator<ChangeDirInfo>::construct, COMDAT
; _this$ = ecx

; 196  : 		{	// construct object at _Ptr with value _Val

  00000	55		 push	 ebp
  00001	8b ec		 mov	 ebp, esp
  00003	57		 push	 edi

; 197  : 		_Construct(_Ptr, _Val);

  00004	8b 7d 08	 mov	 edi, DWORD PTR __Ptr$[ebp]
  00007	85 ff		 test	 edi, edi
  00009	74 0a		 je	 SHORT $LN5@construct@2
  0000b	56		 push	 esi
  0000c	8b 75 0c	 mov	 esi, DWORD PTR __Val$[ebp]
  0000f	6a 07		 push	 7
  00011	59		 pop	 ecx
  00012	f3 a5		 rep movsd
  00014	5e		 pop	 esi
$LN5@construct@2:
  00015	5f		 pop	 edi

; 198  : 		}

  00016	5d		 pop	 ebp
  00017	c2 08 00	 ret	 8
?construct@?$allocator@UChangeDirInfo@@@std@@QAEXPAUChangeDirInfo@@ABU3@@Z ENDP ; std::allocator<ChangeDirInfo>::construct
_TEXT	ENDS
PUBLIC	??G?$_Vector_iterator@V?$_Vector_val@UChangeDirInfo@@V?$allocator@UChangeDirInfo@@@std@@@std@@@std@@QBEHABV?$_Vector_const_iterator@V?$_Vector_val@UChangeDirInfo@@V?$allocator@UChangeDirInfo@@@std@@@std@@@1@@Z ; std::_Vector_iterator<std::_Vector_val<ChangeDirInfo,std::allocator<ChangeDirInfo> > >::operator-
; Function compile flags: /Ogsp
; File c:\program files (x86)\microsoft visual studio 10.0\vc\include\vector
;	COMDAT ??G?$_Vector_iterator@V?$_Vector_val@UChangeDirInfo@@V?$allocator@UChangeDirInfo@@@std@@@std@@@std@@QBEHABV?$_Vector_const_iterator@V?$_Vector_val@UChangeDirInfo@@V?$allocator@UChangeDirInfo@@@std@@@std@@@1@@Z
_TEXT	SEGMENT
__Right$ = 8						; size = 4
??G?$_Vector_iterator@V?$_Vector_val@UChangeDirInfo@@V?$allocator@UChangeDirInfo@@@std@@@std@@@std@@QBEHABV?$_Vector_const_iterator@V?$_Vector_val@UChangeDirInfo@@V?$allocator@UChangeDirInfo@@@std@@@std@@@1@@Z PROC ; std::_Vector_iterator<std::_Vector_val<ChangeDirInfo,std::allocator<ChangeDirInfo> > >::operator-, COMDAT
; _this$ = ecx

; 380  : 		{	// return difference of iterators

  00000	55		 push	 ebp
  00001	8b ec		 mov	 ebp, esp

; 381  : 		return (*(_Mybase *)this - _Right);

  00003	8b 01		 mov	 eax, DWORD PTR [ecx]
  00005	8b 4d 08	 mov	 ecx, DWORD PTR __Right$[ebp]
  00008	2b 01		 sub	 eax, DWORD PTR [ecx]
  0000a	6a 1c		 push	 28			; 0000001cH
  0000c	99		 cdq
  0000d	59		 pop	 ecx
  0000e	f7 f9		 idiv	 ecx

; 382  : 		}

  00010	5d		 pop	 ebp
  00011	c2 04 00	 ret	 4
??G?$_Vector_iterator@V?$_Vector_val@UChangeDirInfo@@V?$allocator@UChangeDirInfo@@@std@@@std@@@std@@QBEHABV?$_Vector_const_iterator@V?$_Vector_val@UChangeDirInfo@@V?$allocator@UChangeDirInfo@@@std@@@std@@@1@@Z ENDP ; std::_Vector_iterator<std::_Vector_val<ChangeDirInfo,std::allocator<ChangeDirInfo> > >::operator-
_TEXT	ENDS
PUBLIC	??$_Unchecked@V?$_Vector_val@UChangeDirInfo@@V?$allocator@UChangeDirInfo@@@std@@@std@@@std@@YAPAUChangeDirInfo@@V?$_Vector_iterator@V?$_Vector_val@UChangeDirInfo@@V?$allocator@UChangeDirInfo@@@std@@@std@@@0@@Z ; std::_Unchecked<std::_Vector_val<ChangeDirInfo,std::allocator<ChangeDirInfo> > >
; Function compile flags: /Ogsp
;	COMDAT ??$_Unchecked@V?$_Vector_val@UChangeDirInfo@@V?$allocator@UChangeDirInfo@@@std@@@std@@@std@@YAPAUChangeDirInfo@@V?$_Vector_iterator@V?$_Vector_val@UChangeDirInfo@@V?$allocator@UChangeDirInfo@@@std@@@std@@@0@@Z
_TEXT	SEGMENT
__Iter$ = 8						; size = 4
??$_Unchecked@V?$_Vector_val@UChangeDirInfo@@V?$allocator@UChangeDirInfo@@@std@@@std@@@std@@YAPAUChangeDirInfo@@V?$_Vector_iterator@V?$_Vector_val@UChangeDirInfo@@V?$allocator@UChangeDirInfo@@@std@@@std@@@0@@Z PROC ; std::_Unchecked<std::_Vector_val<ChangeDirInfo,std::allocator<ChangeDirInfo> > >, COMDAT

; 393  : 	{	// convert to unchecked

  00000	55		 push	 ebp
  00001	8b ec		 mov	 ebp, esp

; 394  : 	return (_Iter._Unchecked());

  00003	8b 45 08	 mov	 eax, DWORD PTR __Iter$[ebp]

; 395  : 	}

  00006	5d		 pop	 ebp
  00007	c3		 ret	 0
??$_Unchecked@V?$_Vector_val@UChangeDirInfo@@V?$allocator@UChangeDirInfo@@@std@@@std@@@std@@YAPAUChangeDirInfo@@V?$_Vector_iterator@V?$_Vector_val@UChangeDirInfo@@V?$allocator@UChangeDirInfo@@@std@@@std@@@0@@Z ENDP ; std::_Unchecked<std::_Vector_val<ChangeDirInfo,std::allocator<ChangeDirInfo> > >
_TEXT	ENDS
PUBLIC	??$_Move@PAUChangeDirInfo@@PAU1@@std@@YAPAUChangeDirInfo@@PAU1@00U_Nonscalar_ptr_iterator_tag@0@@Z ; std::_Move<ChangeDirInfo *,ChangeDirInfo *>
; Function compile flags: /Ogsp
; File c:\program files (x86)\microsoft visual studio 10.0\vc\include\xutility
;	COMDAT ??$_Move@PAUChangeDirInfo@@PAU1@@std@@YAPAUChangeDirInfo@@PAU1@00U_Nonscalar_ptr_iterator_tag@0@@Z
_TEXT	SEGMENT
__First$ = 8						; size = 4
__Last$ = 12						; size = 4
__Dest$ = 16						; size = 4
___formal$ = 20						; size = 1
??$_Move@PAUChangeDirInfo@@PAU1@@std@@YAPAUChangeDirInfo@@PAU1@00U_Nonscalar_ptr_iterator_tag@0@@Z PROC ; std::_Move<ChangeDirInfo *,ChangeDirInfo *>, COMDAT

; 2512 : 	{	// move [_First, _Last) to [_Dest, ...), arbitrary iterators

  00000	55		 push	 ebp
  00001	8b ec		 mov	 ebp, esp

; 2513 : 	for (; _First != _Last; ++_Dest, ++_First)

  00003	8b 45 08	 mov	 eax, DWORD PTR __First$[ebp]
  00006	3b 45 0c	 cmp	 eax, DWORD PTR __Last$[ebp]
  00009	74 1a		 je	 SHORT $LN10@Move
  0000b	56		 push	 esi
  0000c	57		 push	 edi
$LL3@Move:

; 2514 : 		*_Dest = _STD move(*_First);

  0000d	8b 7d 10	 mov	 edi, DWORD PTR __Dest$[ebp]
  00010	83 45 10 1c	 add	 DWORD PTR __Dest$[ebp], 28 ; 0000001cH
  00014	8b f0		 mov	 esi, eax
  00016	6a 07		 push	 7
  00018	83 c0 1c	 add	 eax, 28			; 0000001cH
  0001b	59		 pop	 ecx
  0001c	f3 a5		 rep movsd
  0001e	3b 45 0c	 cmp	 eax, DWORD PTR __Last$[ebp]
  00021	75 ea		 jne	 SHORT $LL3@Move
  00023	5f		 pop	 edi
  00024	5e		 pop	 esi
$LN10@Move:

; 2515 : 	return (_Dest);

  00025	8b 45 10	 mov	 eax, DWORD PTR __Dest$[ebp]

; 2516 : 	}

  00028	5d		 pop	 ebp
  00029	c3		 ret	 0
??$_Move@PAUChangeDirInfo@@PAU1@@std@@YAPAUChangeDirInfo@@PAU1@00U_Nonscalar_ptr_iterator_tag@0@@Z ENDP ; std::_Move<ChangeDirInfo *,ChangeDirInfo *>
_TEXT	ENDS
PUBLIC	??$_Construct@UBuffInfoStruct@@ABU1@@std@@YAXPAUBuffInfoStruct@@ABU1@@Z ; std::_Construct<BuffInfoStruct,BuffInfoStruct const &>
;	COMDAT xdata$x
; File c:\program files (x86)\microsoft visual studio 10.0\vc\include\vector
xdata$x	SEGMENT
__unwindtable$??$_Construct@UBuffInfoStruct@@ABU1@@std@@YAXPAUBuffInfoStruct@@ABU1@@Z DD 0ffffffffH
	DD	FLAT:__unwindfunclet$??$_Construct@UBuffInfoStruct@@ABU1@@std@@YAXPAUBuffInfoStruct@@ABU1@@Z$0
__ehfuncinfo$??$_Construct@UBuffInfoStruct@@ABU1@@std@@YAXPAUBuffInfoStruct@@ABU1@@Z DD 019930522H
	DD	01H
	DD	FLAT:__unwindtable$??$_Construct@UBuffInfoStruct@@ABU1@@std@@YAXPAUBuffInfoStruct@@ABU1@@Z
	DD	2 DUP(00H)
	DD	2 DUP(00H)
	DD	00H
	DD	01H
; Function compile flags: /Ogsp
; File c:\program files (x86)\microsoft visual studio 10.0\vc\include\xmemory
xdata$x	ENDS
;	COMDAT ??$_Construct@UBuffInfoStruct@@ABU1@@std@@YAXPAUBuffInfoStruct@@ABU1@@Z
_TEXT	SEGMENT
$T537110 = -16						; size = 4
__$EHRec$ = -12						; size = 12
__Vptr$ = 8						; size = 4
__Ptr$ = 8						; size = 4
__Val$ = 12						; size = 4
??$_Construct@UBuffInfoStruct@@ABU1@@std@@YAXPAUBuffInfoStruct@@ABU1@@Z PROC ; std::_Construct<BuffInfoStruct,BuffInfoStruct const &>, COMDAT

; 46   : 	{	// construct object at _Ptr with value _Val

  00000	6a 04		 push	 4
  00002	b8 00 00 00 00	 mov	 eax, __ehhandler$??$_Construct@UBuffInfoStruct@@ABU1@@std@@YAXPAUBuffInfoStruct@@ABU1@@Z
  00007	e8 00 00 00 00	 call	 __EH_prolog3

; 47   : 	void _FARQ *_Vptr = _Ptr;

  0000c	8b 75 08	 mov	 esi, DWORD PTR __Ptr$[ebp]
  0000f	89 75 08	 mov	 DWORD PTR __Vptr$[ebp], esi

; 48   : 	::new (_Vptr) _Ty1(_STD forward<_Ty2>(_Val));

  00012	89 75 f0	 mov	 DWORD PTR $T537110[ebp], esi
  00015	83 65 fc 00	 and	 DWORD PTR __$EHRec$[ebp+8], 0
  00019	85 f6		 test	 esi, esi
  0001b	74 12		 je	 SHORT $LN3@Construct@2
  0001d	8b 7d 0c	 mov	 edi, DWORD PTR __Val$[ebp]
  00020	57		 push	 edi
  00021	8b ce		 mov	 ecx, esi
  00023	ff 15 00 00 00
	00		 call	 DWORD PTR __imp_??0ioHashString@@QAE@ABV0@@Z
  00029	8b 47 10	 mov	 eax, DWORD PTR [edi+16]
  0002c	89 46 10	 mov	 DWORD PTR [esi+16], eax
$LN3@Construct@2:

; 49   : 	}

  0002f	e8 00 00 00 00	 call	 __EH_epilog3
  00034	c3		 ret	 0
_TEXT	ENDS
;	COMDAT text$x
text$x	SEGMENT
__unwindfunclet$??$_Construct@UBuffInfoStruct@@ABU1@@std@@YAXPAUBuffInfoStruct@@ABU1@@Z$0:
  00000	ff 75 08	 push	 DWORD PTR __Vptr$[ebp]
  00003	ff 75 f0	 push	 DWORD PTR $T537110[ebp]
  00006	e8 00 00 00 00	 call	 ??3@YAXPAX0@Z		; operator delete
  0000b	59		 pop	 ecx
  0000c	59		 pop	 ecx
  0000d	c3		 ret	 0
__ehhandler$??$_Construct@UBuffInfoStruct@@ABU1@@std@@YAXPAUBuffInfoStruct@@ABU1@@Z:
  0000e	8b 54 24 08	 mov	 edx, DWORD PTR [esp+8]
  00012	8d 42 0c	 lea	 eax, DWORD PTR [edx+12]
  00015	8b 4a ec	 mov	 ecx, DWORD PTR [edx-20]
  00018	33 c8		 xor	 ecx, eax
  0001a	e8 00 00 00 00	 call	 @__security_check_cookie@4
  0001f	b8 00 00 00 00	 mov	 eax, OFFSET __ehfuncinfo$??$_Construct@UBuffInfoStruct@@ABU1@@std@@YAXPAUBuffInfoStruct@@ABU1@@Z
  00024	e9 00 00 00 00	 jmp	 ___CxxFrameHandler3
text$x	ENDS
??$_Construct@UBuffInfoStruct@@ABU1@@std@@YAXPAUBuffInfoStruct@@ABU1@@Z ENDP ; std::_Construct<BuffInfoStruct,BuffInfoStruct const &>
PUBLIC	?destroy@?$allocator@UChangeDirInfo@@@std@@QAEXPAUChangeDirInfo@@@Z ; std::allocator<ChangeDirInfo>::destroy
; Function compile flags: /Ogsp
;	COMDAT ?destroy@?$allocator@UChangeDirInfo@@@std@@QAEXPAUChangeDirInfo@@@Z
_TEXT	SEGMENT
__Ptr$ = 8						; size = 4
?destroy@?$allocator@UChangeDirInfo@@@std@@QAEXPAUChangeDirInfo@@@Z PROC ; std::allocator<ChangeDirInfo>::destroy, COMDAT
; _this$ = ecx

; 213  : 		_Destroy(_Ptr);
; 214  : 		}

  00000	c2 04 00	 ret	 4
?destroy@?$allocator@UChangeDirInfo@@@std@@QAEXPAUChangeDirInfo@@@Z ENDP ; std::allocator<ChangeDirInfo>::destroy
_TEXT	ENDS
PUBLIC	??$?0AAPAUChangeDirInfo@@AAPAU0@@?$pair@PAUChangeDirInfo@@PAU1@@std@@QAE@AAPAUChangeDirInfo@@0@Z ; std::pair<ChangeDirInfo *,ChangeDirInfo *>::pair<ChangeDirInfo *,ChangeDirInfo *><ChangeDirInfo * &,ChangeDirInfo * &>
; Function compile flags: /Ogsp
; File c:\program files (x86)\microsoft visual studio 10.0\vc\include\utility
;	COMDAT ??$?0AAPAUChangeDirInfo@@AAPAU0@@?$pair@PAUChangeDirInfo@@PAU1@@std@@QAE@AAPAUChangeDirInfo@@0@Z
_TEXT	SEGMENT
__Val1$ = 8						; size = 4
__Val2$ = 12						; size = 4
??$?0AAPAUChangeDirInfo@@AAPAU0@@?$pair@PAUChangeDirInfo@@PAU1@@std@@QAE@AAPAUChangeDirInfo@@0@Z PROC ; std::pair<ChangeDirInfo *,ChangeDirInfo *>::pair<ChangeDirInfo *,ChangeDirInfo *><ChangeDirInfo * &,ChangeDirInfo * &>, COMDAT
; _this$ = ecx

; 247  : 		{	// construct from moved values

  00000	55		 push	 ebp
  00001	8b ec		 mov	 ebp, esp
  00003	8b c1		 mov	 eax, ecx
  00005	8b 4d 08	 mov	 ecx, DWORD PTR __Val1$[ebp]
  00008	8b 09		 mov	 ecx, DWORD PTR [ecx]
  0000a	89 08		 mov	 DWORD PTR [eax], ecx
  0000c	8b 4d 0c	 mov	 ecx, DWORD PTR __Val2$[ebp]
  0000f	8b 09		 mov	 ecx, DWORD PTR [ecx]
  00011	89 48 04	 mov	 DWORD PTR [eax+4], ecx

; 248  : 		}

  00014	5d		 pop	 ebp
  00015	c2 08 00	 ret	 8
??$?0AAPAUChangeDirInfo@@AAPAU0@@?$pair@PAUChangeDirInfo@@PAU1@@std@@QAE@AAPAUChangeDirInfo@@0@Z ENDP ; std::pair<ChangeDirInfo *,ChangeDirInfo *>::pair<ChangeDirInfo *,ChangeDirInfo *><ChangeDirInfo * &,ChangeDirInfo * &>
_TEXT	ENDS
PUBLIC	?construct@?$allocator@UBuffInfoStruct@@@std@@QAEXPAUBuffInfoStruct@@$$QAU3@@Z ; std::allocator<BuffInfoStruct>::construct
;	COMDAT xdata$x
; File c:\program files (x86)\microsoft visual studio 10.0\vc\include\vector
xdata$x	SEGMENT
__unwindtable$?construct@?$allocator@UBuffInfoStruct@@@std@@QAEXPAUBuffInfoStruct@@$$QAU3@@Z DD 0ffffffffH
	DD	FLAT:__unwindfunclet$?construct@?$allocator@UBuffInfoStruct@@@std@@QAEXPAUBuffInfoStruct@@$$QAU3@@Z$0
__ehfuncinfo$?construct@?$allocator@UBuffInfoStruct@@@std@@QAEXPAUBuffInfoStruct@@$$QAU3@@Z DD 019930522H
	DD	01H
	DD	FLAT:__unwindtable$?construct@?$allocator@UBuffInfoStruct@@@std@@QAEXPAUBuffInfoStruct@@$$QAU3@@Z
	DD	2 DUP(00H)
	DD	2 DUP(00H)
	DD	00H
	DD	01H
; Function compile flags: /Ogsp
; File c:\program files (x86)\microsoft visual studio 10.0\vc\include\xmemory
xdata$x	ENDS
;	COMDAT ?construct@?$allocator@UBuffInfoStruct@@@std@@QAEXPAUBuffInfoStruct@@$$QAU3@@Z
_TEXT	SEGMENT
$T537160 = -16						; size = 4
__$EHRec$ = -12						; size = 12
__Ptr$ = 8						; size = 4
__Val$ = 12						; size = 4
?construct@?$allocator@UBuffInfoStruct@@@std@@QAEXPAUBuffInfoStruct@@$$QAU3@@Z PROC ; std::allocator<BuffInfoStruct>::construct, COMDAT
; _this$ = ecx

; 201  : 		{	// construct object at _Ptr with value _Val

  00000	6a 04		 push	 4
  00002	b8 00 00 00 00	 mov	 eax, __ehhandler$?construct@?$allocator@UBuffInfoStruct@@@std@@QAEXPAUBuffInfoStruct@@$$QAU3@@Z
  00007	e8 00 00 00 00	 call	 __EH_prolog3

; 202  : 		::new ((void _FARQ *)_Ptr) _Ty(_STD forward<_Ty>(_Val));

  0000c	8b 75 08	 mov	 esi, DWORD PTR __Ptr$[ebp]
  0000f	89 75 f0	 mov	 DWORD PTR $T537160[ebp], esi
  00012	83 65 fc 00	 and	 DWORD PTR __$EHRec$[ebp+8], 0
  00016	85 f6		 test	 esi, esi
  00018	74 12		 je	 SHORT $LN3@construct@3
  0001a	8b 7d 0c	 mov	 edi, DWORD PTR __Val$[ebp]
  0001d	57		 push	 edi
  0001e	8b ce		 mov	 ecx, esi
  00020	ff 15 00 00 00
	00		 call	 DWORD PTR __imp_??0ioHashString@@QAE@ABV0@@Z
  00026	8b 47 10	 mov	 eax, DWORD PTR [edi+16]
  00029	89 46 10	 mov	 DWORD PTR [esi+16], eax
$LN3@construct@3:

; 203  : 		}

  0002c	e8 00 00 00 00	 call	 __EH_epilog3
  00031	c2 08 00	 ret	 8
_TEXT	ENDS
;	COMDAT text$x
text$x	SEGMENT
__unwindfunclet$?construct@?$allocator@UBuffInfoStruct@@@std@@QAEXPAUBuffInfoStruct@@$$QAU3@@Z$0:
  00000	ff 75 08	 push	 DWORD PTR __Ptr$[ebp]
  00003	ff 75 f0	 push	 DWORD PTR $T537160[ebp]
  00006	e8 00 00 00 00	 call	 ??3@YAXPAX0@Z		; operator delete
  0000b	59		 pop	 ecx
  0000c	59		 pop	 ecx
  0000d	c3		 ret	 0
__ehhandler$?construct@?$allocator@UBuffInfoStruct@@@std@@QAEXPAUBuffInfoStruct@@$$QAU3@@Z:
  0000e	8b 54 24 08	 mov	 edx, DWORD PTR [esp+8]
  00012	8d 42 0c	 lea	 eax, DWORD PTR [edx+12]
  00015	8b 4a ec	 mov	 ecx, DWORD PTR [edx-20]
  00018	33 c8		 xor	 ecx, eax
  0001a	e8 00 00 00 00	 call	 @__security_check_cookie@4
  0001f	b8 00 00 00 00	 mov	 eax, OFFSET __ehfuncinfo$?construct@?$allocator@UBuffInfoStruct@@@std@@QAEXPAUBuffInfoStruct@@$$QAU3@@Z
  00024	e9 00 00 00 00	 jmp	 ___CxxFrameHandler3
text$x	ENDS
?construct@?$allocator@UBuffInfoStruct@@@std@@QAEXPAUBuffInfoStruct@@$$QAU3@@Z ENDP ; std::allocator<BuffInfoStruct>::construct
PUBLIC	?construct@?$allocator@UChangeDirInfo@@@std@@QAEXPAUChangeDirInfo@@$$QAU3@@Z ; std::allocator<ChangeDirInfo>::construct
; Function compile flags: /Ogsp
;	COMDAT ?construct@?$allocator@UChangeDirInfo@@@std@@QAEXPAUChangeDirInfo@@$$QAU3@@Z
_TEXT	SEGMENT
__Ptr$ = 8						; size = 4
__Val$ = 12						; size = 4
?construct@?$allocator@UChangeDirInfo@@@std@@QAEXPAUChangeDirInfo@@$$QAU3@@Z PROC ; std::allocator<ChangeDirInfo>::construct, COMDAT
; _this$ = ecx

; 201  : 		{	// construct object at _Ptr with value _Val

  00000	55		 push	 ebp
  00001	8b ec		 mov	 ebp, esp
  00003	57		 push	 edi

; 202  : 		::new ((void _FARQ *)_Ptr) _Ty(_STD forward<_Ty>(_Val));

  00004	8b 7d 08	 mov	 edi, DWORD PTR __Ptr$[ebp]
  00007	85 ff		 test	 edi, edi
  00009	74 0a		 je	 SHORT $LN3@construct@4
  0000b	56		 push	 esi
  0000c	8b 75 0c	 mov	 esi, DWORD PTR __Val$[ebp]
  0000f	6a 07		 push	 7
  00011	59		 pop	 ecx
  00012	f3 a5		 rep movsd
  00014	5e		 pop	 esi
$LN3@construct@4:
  00015	5f		 pop	 edi

; 203  : 		}

  00016	5d		 pop	 ebp
  00017	c2 08 00	 ret	 8
?construct@?$allocator@UChangeDirInfo@@@std@@QAEXPAUChangeDirInfo@@$$QAU3@@Z ENDP ; std::allocator<ChangeDirInfo>::construct
_TEXT	ENDS
PUBLIC	??$swap@UChangeDirInfo@@@std@@YAXAAUChangeDirInfo@@0@Z ; std::swap<ChangeDirInfo>
; Function compile flags: /Ogsp
; File c:\program files (x86)\microsoft visual studio 10.0\vc\include\utility
;	COMDAT ??$swap@UChangeDirInfo@@@std@@YAXAAUChangeDirInfo@@0@Z
_TEXT	SEGMENT
__Tmp$ = -28						; size = 28
__Left$ = 8						; size = 4
__Right$ = 12						; size = 4
??$swap@UChangeDirInfo@@@std@@YAXAAUChangeDirInfo@@0@Z PROC ; std::swap<ChangeDirInfo>, COMDAT

; 101  : 	{	// exchange values stored at _Left and _Right

  00000	55		 push	 ebp
  00001	8b ec		 mov	 ebp, esp
  00003	83 ec 1c	 sub	 esp, 28			; 0000001cH
  00006	56		 push	 esi

; 102  : 	_Ty _Tmp = _Move(_Left);

  00007	8b 75 08	 mov	 esi, DWORD PTR __Left$[ebp]
  0000a	57		 push	 edi
  0000b	6a 07		 push	 7
  0000d	59		 pop	 ecx

; 103  : 	_Left = _Move(_Right);

  0000e	6a 07		 push	 7
  00010	8d 7d e4	 lea	 edi, DWORD PTR __Tmp$[ebp]
  00013	f3 a5		 rep movsd
  00015	8b 75 0c	 mov	 esi, DWORD PTR __Right$[ebp]
  00018	8b 7d 08	 mov	 edi, DWORD PTR __Left$[ebp]
  0001b	59		 pop	 ecx
  0001c	f3 a5		 rep movsd

; 104  : 	_Right = _Move(_Tmp);

  0001e	8b 7d 0c	 mov	 edi, DWORD PTR __Right$[ebp]
  00021	6a 07		 push	 7
  00023	59		 pop	 ecx
  00024	8d 75 e4	 lea	 esi, DWORD PTR __Tmp$[ebp]
  00027	f3 a5		 rep movsd
  00029	5f		 pop	 edi
  0002a	5e		 pop	 esi

; 105  : 	}

  0002b	c9		 leave
  0002c	c3		 ret	 0
??$swap@UChangeDirInfo@@@std@@YAXAAUChangeDirInfo@@0@Z ENDP ; std::swap<ChangeDirInfo>
_TEXT	ENDS
PUBLIC	??$_Move_backward@PAUChangeDirInfo@@PAU1@@std@@YAPAUChangeDirInfo@@PAU1@00@Z ; std::_Move_backward<ChangeDirInfo *,ChangeDirInfo *>
; Function compile flags: /Ogsp
; File c:\program files (x86)\microsoft visual studio 10.0\vc\include\xutility
;	COMDAT ??$_Move_backward@PAUChangeDirInfo@@PAU1@@std@@YAPAUChangeDirInfo@@PAU1@00@Z
_TEXT	SEGMENT
__Cat$537211 = -4					; size = 1
__First$ = 8						; size = 4
__Last$ = 12						; size = 4
__Dest$ = 16						; size = 4
??$_Move_backward@PAUChangeDirInfo@@PAU1@@std@@YAPAUChangeDirInfo@@PAU1@00@Z PROC ; std::_Move_backward<ChangeDirInfo *,ChangeDirInfo *>, COMDAT

; 2638 : 	{	// move [_First, _Last) backwards to [..., _Dest), unchecked

  00000	55		 push	 ebp
  00001	8b ec		 mov	 ebp, esp
  00003	51		 push	 ecx

; 2639 : 	return (_Move_backward(_First, _Last,
; 2640 : 		_Dest, _Ptr_cat(_First, _Dest)));

  00004	ff 75 fc	 push	 DWORD PTR __Cat$537211[ebp]
  00007	ff 75 10	 push	 DWORD PTR __Dest$[ebp]
  0000a	ff 75 0c	 push	 DWORD PTR __Last$[ebp]
  0000d	ff 75 08	 push	 DWORD PTR __First$[ebp]
  00010	e8 00 00 00 00	 call	 ??$_Move_backward@PAUChangeDirInfo@@PAU1@@std@@YAPAUChangeDirInfo@@PAU1@00U_Nonscalar_ptr_iterator_tag@0@@Z ; std::_Move_backward<ChangeDirInfo *,ChangeDirInfo *>
  00015	83 c4 10	 add	 esp, 16			; 00000010H

; 2641 : 	}

  00018	c9		 leave
  00019	c3		 ret	 0
??$_Move_backward@PAUChangeDirInfo@@PAU1@@std@@YAPAUChangeDirInfo@@PAU1@00@Z ENDP ; std::_Move_backward<ChangeDirInfo *,ChangeDirInfo *>
_TEXT	ENDS
PUBLIC	??$_Push_heap@PAUChangeDirInfo@@HU1@VChangeDirSort@@@std@@YAXPAUChangeDirInfo@@HH$$QAU1@VChangeDirSort@@@Z ; std::_Push_heap<ChangeDirInfo *,int,ChangeDirInfo,ChangeDirSort>
; Function compile flags: /Ogsp
; File c:\program files (x86)\microsoft visual studio 10.0\vc\include\algorithm
;	COMDAT ??$_Push_heap@PAUChangeDirInfo@@HU1@VChangeDirSort@@@std@@YAXPAUChangeDirInfo@@HH$$QAU1@VChangeDirSort@@@Z
_TEXT	SEGMENT
__First$ = 8						; size = 4
__Hole$ = 12						; size = 4
__Top$ = 16						; size = 4
__Val$ = 20						; size = 4
__Pred$ = 24						; size = 1
??$_Push_heap@PAUChangeDirInfo@@HU1@VChangeDirSort@@@std@@YAXPAUChangeDirInfo@@HH$$QAU1@VChangeDirSort@@@Z PROC ; std::_Push_heap<ChangeDirInfo *,int,ChangeDirInfo,ChangeDirSort>, COMDAT

; 2455 : 	{	// percolate _Hole to _Top or where _Val belongs, using operator<

  00000	55		 push	 ebp
  00001	8b ec		 mov	 ebp, esp
  00003	53		 push	 ebx

; 2456 : 	for (_Diff _Idx = (_Hole - 1) / 2;
; 2457 : 		_Top < _Hole && _DEBUG_LT_PRED(_Pred, *(_First + _Idx), _Val);
; 2458 : 		_Idx = (_Hole - 1) / 2)

  00004	8b 5d 08	 mov	 ebx, DWORD PTR __First$[ebp]
  00007	56		 push	 esi
  00008	57		 push	 edi
  00009	8b 7d 0c	 mov	 edi, DWORD PTR __Hole$[ebp]
  0000c	8d 47 ff	 lea	 eax, DWORD PTR [edi-1]
  0000f	99		 cdq
  00010	2b c2		 sub	 eax, edx
  00012	8b d0		 mov	 edx, eax
  00014	d1 fa		 sar	 edx, 1
  00016	eb 5a		 jmp	 SHORT $LN19@Push_heap
$LL3@Push_heap:
  00018	8b 4d 14	 mov	 ecx, DWORD PTR __Val$[ebp]
  0001b	f3 0f 10 09	 movss	 xmm1, DWORD PTR [ecx]
  0001f	8b f2		 mov	 esi, edx
  00021	6b f6 1c	 imul	 esi, 28			; 0000001cH
  00024	03 f3		 add	 esi, ebx
  00026	f3 0f 10 06	 movss	 xmm0, DWORD PTR [esi]
  0002a	0f 5a d0	 cvtps2pd xmm2, xmm0
  0002d	0f 5a d9	 cvtps2pd xmm3, xmm1
  00030	66 0f 2f da	 comisd	 xmm3, xmm2
  00034	77 26		 ja	 SHORT $LN18@Push_heap
  00036	0f 5a c0	 cvtps2pd xmm0, xmm0
  00039	0f 5a c9	 cvtps2pd xmm1, xmm1
  0003c	66 0f 2e c1	 ucomisd xmm0, xmm1
  00040	9f		 lahf
  00041	f6 c4 44	 test	 ah, 68			; 00000044H
  00044	7a 31		 jp	 SHORT $LN6@Push_heap
  00046	f3 0f 10 46 0c	 movss	 xmm0, DWORD PTR [esi+12]
  0004b	f3 0f 10 49 0c	 movss	 xmm1, DWORD PTR [ecx+12]
  00050	0f 5a c0	 cvtps2pd xmm0, xmm0
  00053	0f 5a c9	 cvtps2pd xmm1, xmm1
  00056	66 0f 2f c8	 comisd	 xmm1, xmm0
  0005a	76 1b		 jbe	 SHORT $LN6@Push_heap
$LN18@Push_heap:

; 2459 : 		{	// move _Hole up to parent
; 2460 : 		*(_First + _Hole) = _Move(*(_First + _Idx));

  0005c	6b ff 1c	 imul	 edi, 28			; 0000001cH
  0005f	03 fb		 add	 edi, ebx
  00061	6a 07		 push	 7
  00063	59		 pop	 ecx
  00064	8d 42 ff	 lea	 eax, DWORD PTR [edx-1]
  00067	f3 a5		 rep movsd

; 2461 : 		_Hole = _Idx;

  00069	8b fa		 mov	 edi, edx
  0006b	99		 cdq
  0006c	2b c2		 sub	 eax, edx
  0006e	d1 f8		 sar	 eax, 1
  00070	8b d0		 mov	 edx, eax
$LN19@Push_heap:

; 2456 : 	for (_Diff _Idx = (_Hole - 1) / 2;
; 2457 : 		_Top < _Hole && _DEBUG_LT_PRED(_Pred, *(_First + _Idx), _Val);
; 2458 : 		_Idx = (_Hole - 1) / 2)

  00072	39 7d 10	 cmp	 DWORD PTR __Top$[ebp], edi
  00075	7c a1		 jl	 SHORT $LL3@Push_heap
$LN6@Push_heap:

; 2462 : 		}
; 2463 : 
; 2464 : 	*(_First + _Hole) = _Move(_Val);	// drop _Val into final hole

  00077	8b 75 14	 mov	 esi, DWORD PTR __Val$[ebp]
  0007a	6b ff 1c	 imul	 edi, 28			; 0000001cH
  0007d	6a 07		 push	 7
  0007f	59		 pop	 ecx
  00080	03 fb		 add	 edi, ebx
  00082	f3 a5		 rep movsd
  00084	5f		 pop	 edi
  00085	5e		 pop	 esi
  00086	5b		 pop	 ebx

; 2465 : 	}

  00087	5d		 pop	 ebp
  00088	c3		 ret	 0
??$_Push_heap@PAUChangeDirInfo@@HU1@VChangeDirSort@@@std@@YAXPAUChangeDirInfo@@HH$$QAU1@VChangeDirSort@@@Z ENDP ; std::_Push_heap<ChangeDirInfo *,int,ChangeDirInfo,ChangeDirSort>
_TEXT	ENDS
PUBLIC	??0WeaponInfo@@QAE@XZ				; WeaponInfo::WeaponInfo
; Function compile flags: /Ogsp
; File d:\lost saga for developer\youtube\tutorial\source\src\lsclient\ioattackattribute.h
;	COMDAT ??0WeaponInfo@@QAE@XZ
_TEXT	SEGMENT
??0WeaponInfo@@QAE@XZ PROC				; WeaponInfo::WeaponInfo, COMDAT
; _this$ = ecx

; 64   : 	WeaponInfo()

  00000	56		 push	 esi
  00001	8b f1		 mov	 esi, ecx
  00003	8d 4e 08	 lea	 ecx, DWORD PTR [esi+8]
  00006	ff 15 00 00 00
	00		 call	 DWORD PTR __imp_??0ioHashString@@QAE@XZ

; 65   : 	{
; 66   : 		Init();

  0000c	33 c0		 xor	 eax, eax
  0000e	89 06		 mov	 DWORD PTR [esi], eax
  00010	89 46 04	 mov	 DWORD PTR [esi+4], eax
  00013	89 46 18	 mov	 DWORD PTR [esi+24], eax
  00016	89 46 1c	 mov	 DWORD PTR [esi+28], eax
  00019	88 46 20	 mov	 BYTE PTR [esi+32], al
  0001c	89 46 24	 mov	 DWORD PTR [esi+36], eax

; 67   : 	}

  0001f	8b c6		 mov	 eax, esi
  00021	5e		 pop	 esi
  00022	c3		 ret	 0
??0WeaponInfo@@QAE@XZ ENDP				; WeaponInfo::WeaponInfo
_TEXT	ENDS
PUBLIC	??0?$CEncrypt@M@@QAE@XZ				; CEncrypt<float>::CEncrypt<float>
EXTRN	??0ccddaabb@@QAE@XZ:PROC			; ccddaabb::ccddaabb
;	COMDAT xdata$x
; File d:\lost saga for developer\youtube\tutorial\source\src\lsclient\encryptvalue.h
xdata$x	SEGMENT
__unwindtable$??0?$CEncrypt@M@@QAE@XZ DD 0ffffffffH
	DD	FLAT:__unwindfunclet$??0?$CEncrypt@M@@QAE@XZ$0
__ehfuncinfo$??0?$CEncrypt@M@@QAE@XZ DD 019930522H
	DD	01H
	DD	FLAT:__unwindtable$??0?$CEncrypt@M@@QAE@XZ
	DD	2 DUP(00H)
	DD	2 DUP(00H)
	DD	00H
	DD	01H
; Function compile flags: /Ogsp
xdata$x	ENDS
;	COMDAT ??0?$CEncrypt@M@@QAE@XZ
_TEXT	SEGMENT
_this$ = -16						; size = 4
__$EHRec$ = -12						; size = 12
??0?$CEncrypt@M@@QAE@XZ PROC				; CEncrypt<float>::CEncrypt<float>, COMDAT
; _this$ = ecx

; 109  : 	CEncrypt()

  00000	6a 04		 push	 4
  00002	b8 00 00 00 00	 mov	 eax, __ehhandler$??0?$CEncrypt@M@@QAE@XZ
  00007	e8 00 00 00 00	 call	 __EH_prolog3
  0000c	8b f1		 mov	 esi, ecx
  0000e	89 75 f0	 mov	 DWORD PTR _this$[ebp], esi
  00011	8d 4e 0c	 lea	 ecx, DWORD PTR [esi+12]
  00014	c7 06 00 00 00
	00		 mov	 DWORD PTR [esi], OFFSET ??_7?$CEncrypt@M@@6B@
  0001a	e8 00 00 00 00	 call	 ??0ccddaabb@@QAE@XZ	; ccddaabb::ccddaabb
  0001f	83 65 fc 00	 and	 DWORD PTR __$EHRec$[ebp+8], 0

; 110  : 	{
; 111  : 		Init();

  00023	8b ce		 mov	 ecx, esi
  00025	e8 00 00 00 00	 call	 ?Init@?$CEncrypt@M@@AAEXXZ ; CEncrypt<float>::Init

; 112  : 	}

  0002a	8b c6		 mov	 eax, esi
  0002c	e8 00 00 00 00	 call	 __EH_epilog3
  00031	c3		 ret	 0
_TEXT	ENDS
;	COMDAT text$x
text$x	SEGMENT
__unwindfunclet$??0?$CEncrypt@M@@QAE@XZ$0:
  00000	8b 4d f0	 mov	 ecx, DWORD PTR _this$[ebp]
  00003	83 c1 0c	 add	 ecx, 12			; 0000000cH
  00006	e9 00 00 00 00	 jmp	 ??1ccddaabb@@UAE@XZ	; ccddaabb::~ccddaabb
__ehhandler$??0?$CEncrypt@M@@QAE@XZ:
  0000b	8b 54 24 08	 mov	 edx, DWORD PTR [esp+8]
  0000f	8d 42 0c	 lea	 eax, DWORD PTR [edx+12]
  00012	8b 4a ec	 mov	 ecx, DWORD PTR [edx-20]
  00015	33 c8		 xor	 ecx, eax
  00017	e8 00 00 00 00	 call	 @__security_check_cookie@4
  0001c	b8 00 00 00 00	 mov	 eax, OFFSET __ehfuncinfo$??0?$CEncrypt@M@@QAE@XZ
  00021	e9 00 00 00 00	 jmp	 ___CxxFrameHandler3
text$x	ENDS
??0?$CEncrypt@M@@QAE@XZ ENDP				; CEncrypt<float>::CEncrypt<float>
PUBLIC	??B?$CEncrypt@M@@QAEMXZ				; CEncrypt<float>::operator float
; Function compile flags: /Ogsp
;	COMDAT ??B?$CEncrypt@M@@QAEMXZ
_TEXT	SEGMENT
_value$ = -4						; size = 4
??B?$CEncrypt@M@@QAEMXZ PROC				; CEncrypt<float>::operator float, COMDAT
; _this$ = ecx

; 134  : 	{

  00000	55		 push	 ebp
  00001	8b ec		 mov	 ebp, esp
  00003	51		 push	 ecx

; 135  : 		type value;
; 136  : 		DecryptValueToPool(&value);

  00004	8d 45 fc	 lea	 eax, DWORD PTR _value$[ebp]
  00007	50		 push	 eax
  00008	e8 00 00 00 00	 call	 ?DecryptValueToPool@?$CEncrypt@M@@QAEXPAM@Z ; CEncrypt<float>::DecryptValueToPool

; 137  : 
; 138  : #ifdef _NOTUSE
; 139  : 		Debug();
; 140  : #endif
; 141  : 		return value;

  0000d	d9 45 fc	 fld	 DWORD PTR _value$[ebp]

; 142  : 	}

  00010	c9		 leave
  00011	c3		 ret	 0
??B?$CEncrypt@M@@QAEMXZ ENDP				; CEncrypt<float>::operator float
_TEXT	ENDS
PUBLIC	??4?$CEncrypt@M@@QAEMM@Z			; CEncrypt<float>::operator=
; Function compile flags: /Ogsp
;	COMDAT ??4?$CEncrypt@M@@QAEMM@Z
_TEXT	SEGMENT
_value$ = 8						; size = 4
_inValue$ = 8						; size = 4
??4?$CEncrypt@M@@QAEMM@Z PROC				; CEncrypt<float>::operator=, COMDAT
; _this$ = ecx

; 1654 : 	{	

  00000	55		 push	 ebp
  00001	8b ec		 mov	 ebp, esp

; 1655 : 		type value = inValue;

  00003	d9 45 08	 fld	 DWORD PTR _inValue$[ebp]

; 1656 : 		EncryptValueToPool((char*)&value);

  00006	8d 45 08	 lea	 eax, DWORD PTR _value$[ebp]
  00009	50		 push	 eax
  0000a	d9 5d 08	 fstp	 DWORD PTR _value$[ebp]
  0000d	e8 00 00 00 00	 call	 ?EncryptValueToPool@?$CEncrypt@M@@AAEXPBD@Z ; CEncrypt<float>::EncryptValueToPool

; 1657 : #ifdef _NOTUSE
; 1658 : 		m_value = inValue;
; 1659 : 		Debug();
; 1660 : #endif
; 1661 : 		return value;

  00012	d9 45 08	 fld	 DWORD PTR _value$[ebp]

; 1662 : 	}

  00015	5d		 pop	 ebp
  00016	c2 04 00	 ret	 4
??4?$CEncrypt@M@@QAEMM@Z ENDP				; CEncrypt<float>::operator=
_TEXT	ENDS
PUBLIC	??O?$CEncrypt@M@@QAE_NABM@Z			; CEncrypt<float>::operator>
; Function compile flags: /Ogsp
;	COMDAT ??O?$CEncrypt@M@@QAE_NABM@Z
_TEXT	SEGMENT
_value$ = -4						; size = 4
_inValue$ = 8						; size = 4
??O?$CEncrypt@M@@QAE_NABM@Z PROC			; CEncrypt<float>::operator>, COMDAT
; _this$ = ecx

; 1811 : 	{

  00000	55		 push	 ebp
  00001	8b ec		 mov	 ebp, esp
  00003	51		 push	 ecx

; 1812 : 		type value;
; 1813 : 		DecryptValueToPool(&value);

  00004	8d 45 fc	 lea	 eax, DWORD PTR _value$[ebp]
  00007	50		 push	 eax
  00008	e8 00 00 00 00	 call	 ?DecryptValueToPool@?$CEncrypt@M@@QAEXPAM@Z ; CEncrypt<float>::DecryptValueToPool

; 1814 : #ifdef _NOTUSE
; 1815 : 		Debug();
; 1816 : #endif
; 1817 : 		return (value > inValue);

  0000d	8b 45 08	 mov	 eax, DWORD PTR _inValue$[ebp]
  00010	f3 0f 10 08	 movss	 xmm1, DWORD PTR [eax]
  00014	f3 0f 10 45 fc	 movss	 xmm0, DWORD PTR _value$[ebp]
  00019	0f 5a c0	 cvtps2pd xmm0, xmm0
  0001c	0f 5a c9	 cvtps2pd xmm1, xmm1
  0001f	33 c0		 xor	 eax, eax
  00021	66 0f 2f c1	 comisd	 xmm0, xmm1
  00025	76 01		 jbe	 SHORT $LN4@operator@2
  00027	40		 inc	 eax
$LN4@operator@2:

; 1818 : 	}		

  00028	c9		 leave
  00029	c2 04 00	 ret	 4
??O?$CEncrypt@M@@QAE_NABM@Z ENDP			; CEncrypt<float>::operator>
_TEXT	ENDS
PUBLIC	??B?$CEncrypt@W4TeamType@@@@QBE?AW4TeamType@@XZ	; CEncrypt<enum TeamType>::operator enum TeamType
; Function compile flags: /Ogsp
;	COMDAT ??B?$CEncrypt@W4TeamType@@@@QBE?AW4TeamType@@XZ
_TEXT	SEGMENT
_value$ = -4						; size = 4
??B?$CEncrypt@W4TeamType@@@@QBE?AW4TeamType@@XZ PROC	; CEncrypt<enum TeamType>::operator enum TeamType, COMDAT
; _this$ = ecx

; 145  : 	{

  00000	55		 push	 ebp
  00001	8b ec		 mov	 ebp, esp
  00003	51		 push	 ecx

; 146  : 		//UJ 130829, const    --start
; 147  : 		type value;
; 148  : 		CEncrypt<type>* pThis = const_cast<CEncrypt<type>*>(this);
; 149  : 		pThis->DecryptValueToPool(&value);

  00004	8d 45 fc	 lea	 eax, DWORD PTR _value$[ebp]
  00007	50		 push	 eax
  00008	e8 00 00 00 00	 call	 ?DecryptValueToPool@?$CEncrypt@W4TeamType@@@@QAEXPAW4TeamType@@@Z ; CEncrypt<enum TeamType>::DecryptValueToPool

; 150  : 		//// const DecryptValueToPool     .
; 151  :  		//type value;
; 152  : 		//char szTempMem[MAX_ENCRYPT];
; 153  : 		//m_RC5.DecryptByte( m_MemPool, szTempMem, max(m_ValueSize, DEFAULT_ENCRYPT) );
; 154  : 		//memcpy( &value, szTempMem, m_ValueSize );
; 155  : 		//UJ --end
; 156  : 
; 157  : #ifdef _NOTUSE
; 158  : 		Debug();
; 159  : #endif
; 160  : 		return value;

  0000d	8b 45 fc	 mov	 eax, DWORD PTR _value$[ebp]

; 161  : 	}

  00010	c9		 leave
  00011	c3		 ret	 0
??B?$CEncrypt@W4TeamType@@@@QBE?AW4TeamType@@XZ ENDP	; CEncrypt<enum TeamType>::operator enum TeamType
_TEXT	ENDS
PUBLIC	??0?$_Vector_val@UBuffInfoStruct@@V?$allocator@UBuffInfoStruct@@@std@@@std@@QAE@V?$allocator@UBuffInfoStruct@@@1@@Z ; std::_Vector_val<BuffInfoStruct,std::allocator<BuffInfoStruct> >::_Vector_val<BuffInfoStruct,std::allocator<BuffInfoStruct> >
; Function compile flags: /Ogsp
; File c:\program files (x86)\microsoft visual studio 10.0\vc\include\vector
;	COMDAT ??0?$_Vector_val@UBuffInfoStruct@@V?$allocator@UBuffInfoStruct@@@std@@@std@@QAE@V?$allocator@UBuffInfoStruct@@@1@@Z
_TEXT	SEGMENT
__Al$ = 8						; size = 1
??0?$_Vector_val@UBuffInfoStruct@@V?$allocator@UBuffInfoStruct@@@std@@@std@@QAE@V?$allocator@UBuffInfoStruct@@@1@@Z PROC ; std::_Vector_val<BuffInfoStruct,std::allocator<BuffInfoStruct> >::_Vector_val<BuffInfoStruct,std::allocator<BuffInfoStruct> >, COMDAT
; _this$ = ecx

; 426  : 		{	// construct allocator from _Al

  00000	8b c1		 mov	 eax, ecx

; 427  : 		_Myfirst = 0;

  00002	33 c9		 xor	 ecx, ecx
  00004	89 08		 mov	 DWORD PTR [eax], ecx

; 428  : 		_Mylast = 0;

  00006	89 48 04	 mov	 DWORD PTR [eax+4], ecx

; 429  : 		_Myend = 0;

  00009	89 48 08	 mov	 DWORD PTR [eax+8], ecx

; 430  : 		}

  0000c	c2 04 00	 ret	 4
??0?$_Vector_val@UBuffInfoStruct@@V?$allocator@UBuffInfoStruct@@@std@@@std@@QAE@V?$allocator@UBuffInfoStruct@@@1@@Z ENDP ; std::_Vector_val<BuffInfoStruct,std::allocator<BuffInfoStruct> >::_Vector_val<BuffInfoStruct,std::allocator<BuffInfoStruct> >
_TEXT	ENDS
PUBLIC	?max_size@?$vector@UBuffInfoStruct@@V?$allocator@UBuffInfoStruct@@@std@@@std@@QBEIXZ ; std::vector<BuffInfoStruct,std::allocator<BuffInfoStruct> >::max_size
; Function compile flags: /Ogsp
;	COMDAT ?max_size@?$vector@UBuffInfoStruct@@V?$allocator@UBuffInfoStruct@@@std@@@std@@QBEIXZ
_TEXT	SEGMENT
?max_size@?$vector@UBuffInfoStruct@@V?$allocator@UBuffInfoStruct@@@std@@@std@@QBEIXZ PROC ; std::vector<BuffInfoStruct,std::allocator<BuffInfoStruct> >::max_size, COMDAT
; _this$ = ecx

; 884  : 		return (this->_Alval.max_size());

  00000	b8 cc cc cc 0c	 mov	 eax, 214748364		; 0cccccccH

; 885  : 		}

  00005	c3		 ret	 0
?max_size@?$vector@UBuffInfoStruct@@V?$allocator@UBuffInfoStruct@@@std@@@std@@QBEIXZ ENDP ; std::vector<BuffInfoStruct,std::allocator<BuffInfoStruct> >::max_size
_TEXT	ENDS
PUBLIC	?allocate@?$allocator@UBuffInfoStruct@@@std@@QAEPAUBuffInfoStruct@@I@Z ; std::allocator<BuffInfoStruct>::allocate
; Function compile flags: /Ogsp
; File c:\program files (x86)\microsoft visual studio 10.0\vc\include\xmemory
;	COMDAT ?allocate@?$allocator@UBuffInfoStruct@@@std@@QAEPAUBuffInfoStruct@@I@Z
_TEXT	SEGMENT
__Count$ = 8						; size = 4
?allocate@?$allocator@UBuffInfoStruct@@@std@@QAEPAUBuffInfoStruct@@I@Z PROC ; std::allocator<BuffInfoStruct>::allocate, COMDAT
; _this$ = ecx

; 186  : 		{	// allocate array of _Count elements

  00000	55		 push	 ebp
  00001	8b ec		 mov	 ebp, esp

; 187  : 		return (_Allocate(_Count, (pointer)0));

  00003	6a 00		 push	 0
  00005	ff 75 08	 push	 DWORD PTR __Count$[ebp]
  00008	e8 00 00 00 00	 call	 ??$_Allocate@UBuffInfoStruct@@@std@@YAPAUBuffInfoStruct@@IPAU1@@Z ; std::_Allocate<BuffInfoStruct>
  0000d	59		 pop	 ecx
  0000e	59		 pop	 ecx

; 188  : 		}

  0000f	5d		 pop	 ebp
  00010	c2 04 00	 ret	 4
?allocate@?$allocator@UBuffInfoStruct@@@std@@QAEPAUBuffInfoStruct@@I@Z ENDP ; std::allocator<BuffInfoStruct>::allocate
_TEXT	ENDS
PUBLIC	??$_Destroy@UBuffInfoStruct@@@std@@YAXPAUBuffInfoStruct@@@Z ; std::_Destroy<BuffInfoStruct>
; Function compile flags: /Ogsp
;	COMDAT ??$_Destroy@UBuffInfoStruct@@@std@@YAXPAUBuffInfoStruct@@@Z
_TEXT	SEGMENT
__Ptr$ = 8						; size = 4
??$_Destroy@UBuffInfoStruct@@@std@@YAXPAUBuffInfoStruct@@@Z PROC ; std::_Destroy<BuffInfoStruct>, COMDAT

; 62   : 	{	// destroy object at _Ptr

  00000	55		 push	 ebp
  00001	8b ec		 mov	 ebp, esp

; 63   : 	_Ptr->~_Ty();

  00003	8b 4d 08	 mov	 ecx, DWORD PTR __Ptr$[ebp]

; 64   : 	}

  00006	5d		 pop	 ebp

; 63   : 	_Ptr->~_Ty();

  00007	ff 25 00 00 00
	00		 jmp	 DWORD PTR __imp_??1ioHashString@@QAE@XZ
??$_Destroy@UBuffInfoStruct@@@std@@YAXPAUBuffInfoStruct@@@Z ENDP ; std::_Destroy<BuffInfoStruct>
_TEXT	ENDS
PUBLIC	??$construct@AAUBuffInfoStruct@@@?$allocator@UBuffInfoStruct@@@std@@QAEXPAUBuffInfoStruct@@AAU2@@Z ; std::allocator<BuffInfoStruct>::construct<BuffInfoStruct &>
;	COMDAT xdata$x
; File c:\program files (x86)\microsoft visual studio 10.0\vc\include\vector
xdata$x	SEGMENT
__unwindtable$??$construct@AAUBuffInfoStruct@@@?$allocator@UBuffInfoStruct@@@std@@QAEXPAUBuffInfoStruct@@AAU2@@Z DD 0ffffffffH
	DD	FLAT:__unwindfunclet$??$construct@AAUBuffInfoStruct@@@?$allocator@UBuffInfoStruct@@@std@@QAEXPAUBuffInfoStruct@@AAU2@@Z$0
__ehfuncinfo$??$construct@AAUBuffInfoStruct@@@?$allocator@UBuffInfoStruct@@@std@@QAEXPAUBuffInfoStruct@@AAU2@@Z DD 019930522H
	DD	01H
	DD	FLAT:__unwindtable$??$construct@AAUBuffInfoStruct@@@?$allocator@UBuffInfoStruct@@@std@@QAEXPAUBuffInfoStruct@@AAU2@@Z
	DD	2 DUP(00H)
	DD	2 DUP(00H)
	DD	00H
	DD	01H
; Function compile flags: /Ogsp
; File c:\program files (x86)\microsoft visual studio 10.0\vc\include\xmemory
xdata$x	ENDS
;	COMDAT ??$construct@AAUBuffInfoStruct@@@?$allocator@UBuffInfoStruct@@@std@@QAEXPAUBuffInfoStruct@@AAU2@@Z
_TEXT	SEGMENT
$T537294 = -16						; size = 4
__$EHRec$ = -12						; size = 12
__Ptr$ = 8						; size = 4
__Val$ = 12						; size = 4
??$construct@AAUBuffInfoStruct@@@?$allocator@UBuffInfoStruct@@@std@@QAEXPAUBuffInfoStruct@@AAU2@@Z PROC ; std::allocator<BuffInfoStruct>::construct<BuffInfoStruct &>, COMDAT
; _this$ = ecx

; 206  : 		void construct(pointer _Ptr, _Other&& _Val)

  00000	6a 04		 push	 4
  00002	b8 00 00 00 00	 mov	 eax, __ehhandler$??$construct@AAUBuffInfoStruct@@@?$allocator@UBuffInfoStruct@@@std@@QAEXPAUBuffInfoStruct@@AAU2@@Z
  00007	e8 00 00 00 00	 call	 __EH_prolog3

; 207  : 		{	// construct object at _Ptr with value _Val
; 208  : 		::new ((void _FARQ *)_Ptr) _Ty(_STD forward<_Other>(_Val));

  0000c	8b 75 08	 mov	 esi, DWORD PTR __Ptr$[ebp]
  0000f	89 75 f0	 mov	 DWORD PTR $T537294[ebp], esi
  00012	83 65 fc 00	 and	 DWORD PTR __$EHRec$[ebp+8], 0
  00016	85 f6		 test	 esi, esi
  00018	74 12		 je	 SHORT $LN3@construct@5
  0001a	8b 7d 0c	 mov	 edi, DWORD PTR __Val$[ebp]
  0001d	57		 push	 edi
  0001e	8b ce		 mov	 ecx, esi
  00020	ff 15 00 00 00
	00		 call	 DWORD PTR __imp_??0ioHashString@@QAE@ABV0@@Z
  00026	8b 47 10	 mov	 eax, DWORD PTR [edi+16]
  00029	89 46 10	 mov	 DWORD PTR [esi+16], eax
$LN3@construct@5:

; 209  : 		}

  0002c	e8 00 00 00 00	 call	 __EH_epilog3
  00031	c2 08 00	 ret	 8
_TEXT	ENDS
;	COMDAT text$x
text$x	SEGMENT
__unwindfunclet$??$construct@AAUBuffInfoStruct@@@?$allocator@UBuffInfoStruct@@@std@@QAEXPAUBuffInfoStruct@@AAU2@@Z$0:
  00000	ff 75 08	 push	 DWORD PTR __Ptr$[ebp]
  00003	ff 75 f0	 push	 DWORD PTR $T537294[ebp]
  00006	e8 00 00 00 00	 call	 ??3@YAXPAX0@Z		; operator delete
  0000b	59		 pop	 ecx
  0000c	59		 pop	 ecx
  0000d	c3		 ret	 0
__ehhandler$??$construct@AAUBuffInfoStruct@@@?$allocator@UBuffInfoStruct@@@std@@QAEXPAUBuffInfoStruct@@AAU2@@Z:
  0000e	8b 54 24 08	 mov	 edx, DWORD PTR [esp+8]
  00012	8d 42 0c	 lea	 eax, DWORD PTR [edx+12]
  00015	8b 4a ec	 mov	 ecx, DWORD PTR [edx-20]
  00018	33 c8		 xor	 ecx, eax
  0001a	e8 00 00 00 00	 call	 @__security_check_cookie@4
  0001f	b8 00 00 00 00	 mov	 eax, OFFSET __ehfuncinfo$??$construct@AAUBuffInfoStruct@@@?$allocator@UBuffInfoStruct@@@std@@QAEXPAUBuffInfoStruct@@AAU2@@Z
  00024	e9 00 00 00 00	 jmp	 ___CxxFrameHandler3
text$x	ENDS
??$construct@AAUBuffInfoStruct@@@?$allocator@UBuffInfoStruct@@@std@@QAEXPAUBuffInfoStruct@@AAU2@@Z ENDP ; std::allocator<BuffInfoStruct>::construct<BuffInfoStruct &>
PUBLIC	??_C@_00CNPNBAHC@?$AA@				; `string'
PUBLIC	_rkLoader$GSCopy$
PUBLIC	__$ArrayPad$
PUBLIC	?LoadCallAttribute@ioAdhesiveMissileWeapon3@@QAEXAAVioINILoader@@@Z ; ioAdhesiveMissileWeapon3::LoadCallAttribute
EXTRN	__imp_??4ioHashString@@QAEAAV0@PBD@Z:PROC
;	COMDAT ??_C@_00CNPNBAHC@?$AA@
; File d:\lost saga for developer\youtube\tutorial\source\src\lsclient\stringprotect.h
CONST	SEGMENT
??_C@_00CNPNBAHC@?$AA@ DB 00H				; `string'
; Function compile flags: /Ogsp
; File d:\lost saga for developer\youtube\tutorial\source\src\lsclient\ioadhesivemissileweapon3.cpp
CONST	ENDS
;	COMDAT ?LoadCallAttribute@ioAdhesiveMissileWeapon3@@QAEXAAVioINILoader@@@Z
_TEXT	SEGMENT
_rkLoader$GSCopy$ = -304				; size = 4
_szBuf$ = -300						; size = 260
__k$537845 = -40					; size = 30
__k$537720 = -40					; size = 30
__k$537582 = -36					; size = 25
__k$537457 = -36					; size = 26
__k$537332 = -32					; size = 21
__$ArrayPad$ = -4					; size = 4
_rkLoader$ = 8						; size = 4
?LoadCallAttribute@ioAdhesiveMissileWeapon3@@QAEXAAVioINILoader@@@Z PROC ; ioAdhesiveMissileWeapon3::LoadCallAttribute, COMDAT
; _this$ = ecx

; 101  : {

  00000	55		 push	 ebp
  00001	8b ec		 mov	 ebp, esp
  00003	81 ec 30 01 00
	00		 sub	 esp, 304		; 00000130H
  00009	a1 00 00 00 00	 mov	 eax, DWORD PTR ___security_cookie
  0000e	33 c5		 xor	 eax, ebp
  00010	89 45 fc	 mov	 DWORD PTR __$ArrayPad$[ebp], eax
  00013	53		 push	 ebx
  00014	56		 push	 esi
  00015	8b f1		 mov	 esi, ecx
  00017	8b 4d 08	 mov	 ecx, DWORD PTR _rkLoader$[ebp]

; 102  : 	char szBuf[MAX_PATH];
; 103  : 
; 104  : 	m_CallWeaponInfo.m_iWeaponIdx = rkLoader.LoadInt_e( "call_attribute_index", 0 );		

  0001a	33 db		 xor	 ebx, ebx
  0001c	6a 05		 push	 5

; 111  : 	m_CallWeaponInfo.m_bWoundedLoopAni = rkLoader.LoadBool_e( "call_attribute_wound_loop_ani", false );

  0001e	89 8d d0 fe ff
	ff		 mov	 DWORD PTR _rkLoader$GSCopy$[ebp], ecx
  00024	c7 45 e0 8e 8d
	87 86		 mov	 DWORD PTR __k$537332[ebp], -2037936754 ; 86878d8eH
  0002b	c7 45 e4 b2 8d
	9f 9e		 mov	 DWORD PTR __k$537332[ebp+4], -1633710670 ; 9e9f8db2H
  00032	c7 45 e8 9f 85
	89 9f		 mov	 DWORD PTR __k$537332[ebp+8], -1618377313 ; 9f89859fH
  00039	c7 45 ec 99 89
	b4 83		 mov	 DWORD PTR __k$537332[ebp+12], -2085320295 ; 83b48999H
  00040	c7 45 f0 83 88
	8e 92		 mov	 DWORD PTR __k$537332[ebp+16], -1836152701 ; 928e8883H
  00047	8d 45 e0	 lea	 eax, DWORD PTR __k$537332[ebp]
  0004a	88 5d f4	 mov	 BYTE PTR __k$537332[ebp+20], bl
  0004d	5a		 pop	 edx
$LL106@LoadCallAt:

; 102  : 	char szBuf[MAX_PATH];
; 103  : 
; 104  : 	m_CallWeaponInfo.m_iWeaponIdx = rkLoader.LoadInt_e( "call_attribute_index", 0 );		

  0004e	81 30 ed ec eb
	ea		 xor	 DWORD PTR [eax], -353637139 ; eaebecedH
  00054	83 c0 04	 add	 eax, 4
  00057	4a		 dec	 edx
  00058	75 f4		 jne	 SHORT $LL106@LoadCallAt
  0005a	57		 push	 edi
  0005b	8b 3d 00 00 00
	00		 mov	 edi, DWORD PTR __imp_?LoadInt@ioINILoader@@QAEHPBDH@Z
  00061	53		 push	 ebx
  00062	8d 45 e0	 lea	 eax, DWORD PTR __k$537332[ebp]
  00065	50		 push	 eax
  00066	ff d7		 call	 edi
  00068	6a 06		 push	 6
  0006a	89 86 b4 09 00
	00		 mov	 DWORD PTR [esi+2484], eax

; 105  : 	m_CallWeaponInfo.m_iResistanceIdx = rkLoader.LoadInt_e( "call_attribute_resistance", 0 );		

  00070	c7 45 dc 8e 8d
	87 86		 mov	 DWORD PTR __k$537457[ebp], -2037936754 ; 86878d8eH
  00077	c7 45 e0 b2 8d
	9f 9e		 mov	 DWORD PTR __k$537457[ebp+4], -1633710670 ; 9e9f8db2H
  0007e	c7 45 e4 9f 85
	89 9f		 mov	 DWORD PTR __k$537457[ebp+8], -1618377313 ; 9f89859fH
  00085	c7 45 e8 99 89
	b4 98		 mov	 DWORD PTR __k$537457[ebp+12], -1732998759 ; 98b48999H
  0008c	c7 45 ec 88 9f
	82 99		 mov	 DWORD PTR __k$537457[ebp+16], -1719492728 ; 99829f88H
  00093	c7 45 f0 99 8d
	85 89		 mov	 DWORD PTR __k$537457[ebp+20], -1987736167 ; 89858d99H
  0009a	8d 45 dc	 lea	 eax, DWORD PTR __k$537457[ebp]
  0009d	66 c7 45 f4 88
	00		 mov	 WORD PTR __k$537457[ebp+24], 136 ; 00000088H
  000a3	59		 pop	 ecx
$LL212@LoadCallAt:
  000a4	81 30 ed ec eb
	ea		 xor	 DWORD PTR [eax], -353637139 ; eaebecedH
  000aa	83 c0 04	 add	 eax, 4
  000ad	49		 dec	 ecx
  000ae	75 f4		 jne	 SHORT $LL212@LoadCallAt
  000b0	8b 8d d0 fe ff
	ff		 mov	 ecx, DWORD PTR _rkLoader$GSCopy$[ebp]
  000b6	80 75 f4 ed	 xor	 BYTE PTR __k$537457[ebp+24], -19 ; ffffffedH
  000ba	53		 push	 ebx
  000bb	8d 45 dc	 lea	 eax, DWORD PTR __k$537457[ebp]
  000be	50		 push	 eax
  000bf	ff d7		 call	 edi
  000c1	6a 06		 push	 6
  000c3	89 86 b8 09 00
	00		 mov	 DWORD PTR [esi+2488], eax

; 106  : 
; 107  : 	rkLoader.LoadString_e( "call_attribute_wound_ani", "", szBuf, MAX_PATH );

  000c9	c7 45 dc 8e 8d
	87 86		 mov	 DWORD PTR __k$537582[ebp], -2037936754 ; 86878d8eH
  000d0	c7 45 e0 b2 8d
	9f 9e		 mov	 DWORD PTR __k$537582[ebp+4], -1633710670 ; 9e9f8db2H
  000d7	c7 45 e4 9f 85
	89 9f		 mov	 DWORD PTR __k$537582[ebp+8], -1618377313 ; 9f89859fH
  000de	c7 45 e8 99 89
	b4 9d		 mov	 DWORD PTR __k$537582[ebp+12], -1649112679 ; 9db48999H
  000e5	c7 45 ec 82 99
	85 8e		 mov	 DWORD PTR __k$537582[ebp+16], -1903847038 ; 8e859982H
  000ec	c7 45 f0 b2 8d
	85 83		 mov	 DWORD PTR __k$537582[ebp+20], -2088399438 ; 83858db2H
  000f3	8d 45 dc	 lea	 eax, DWORD PTR __k$537582[ebp]
  000f6	88 5d f4	 mov	 BYTE PTR __k$537582[ebp+24], bl
  000f9	59		 pop	 ecx
$LL318@LoadCallAt:
  000fa	81 30 ed ec eb
	ea		 xor	 DWORD PTR [eax], -353637139 ; eaebecedH
  00100	83 c0 04	 add	 eax, 4
  00103	49		 dec	 ecx
  00104	75 f4		 jne	 SHORT $LL318@LoadCallAt
  00106	8b 8d d0 fe ff
	ff		 mov	 ecx, DWORD PTR _rkLoader$GSCopy$[ebp]
  0010c	68 04 01 00 00	 push	 260			; 00000104H
  00111	8d 85 d4 fe ff
	ff		 lea	 eax, DWORD PTR _szBuf$[ebp]
  00117	50		 push	 eax
  00118	68 00 00 00 00	 push	 OFFSET ??_C@_00CNPNBAHC@?$AA@
  0011d	8d 45 dc	 lea	 eax, DWORD PTR __k$537582[ebp]
  00120	50		 push	 eax
  00121	ff 15 00 00 00
	00		 call	 DWORD PTR __imp_?LoadStringA@ioINILoader@@QAEXPBD0PADH@Z

; 108  : 	m_CallWeaponInfo.m_WoundedAnimation = szBuf;		

  00127	8d 85 d4 fe ff
	ff		 lea	 eax, DWORD PTR _szBuf$[ebp]
  0012d	50		 push	 eax
  0012e	8d 8e bc 09 00
	00		 lea	 ecx, DWORD PTR [esi+2492]
  00134	ff 15 00 00 00
	00		 call	 DWORD PTR __imp_??4ioHashString@@QAEAAV0@PBD@Z
  0013a	6a 07		 push	 7

; 109  : 
; 110  : 	m_CallWeaponInfo.m_dwWoundedDuration = rkLoader.LoadInt_e( "call_attribute_wound_duration", 0 );

  0013c	c7 45 d8 8e 8d
	87 86		 mov	 DWORD PTR __k$537720[ebp], -2037936754 ; 86878d8eH
  00143	c7 45 dc b2 8d
	9f 9e		 mov	 DWORD PTR __k$537720[ebp+4], -1633710670 ; 9e9f8db2H
  0014a	c7 45 e0 9f 85
	89 9f		 mov	 DWORD PTR __k$537720[ebp+8], -1618377313 ; 9f89859fH
  00151	c7 45 e4 99 89
	b4 9d		 mov	 DWORD PTR __k$537720[ebp+12], -1649112679 ; 9db48999H
  00158	c7 45 e8 82 99
	85 8e		 mov	 DWORD PTR __k$537720[ebp+16], -1903847038 ; 8e859982H
  0015f	c7 45 ec b2 88
	9e 98		 mov	 DWORD PTR __k$537720[ebp+20], -1734440782 ; 989e88b2H
  00166	c7 45 f0 8c 98
	82 85		 mov	 DWORD PTR __k$537720[ebp+24], -2055038836 ; 8582988cH
  0016d	8d 45 d8	 lea	 eax, DWORD PTR __k$537720[ebp]
  00170	66 c7 45 f4 83
	00		 mov	 WORD PTR __k$537720[ebp+28], 131 ; 00000083H
  00176	59		 pop	 ecx
$LL424@LoadCallAt:
  00177	81 30 ed ec eb
	ea		 xor	 DWORD PTR [eax], -353637139 ; eaebecedH
  0017d	83 c0 04	 add	 eax, 4
  00180	49		 dec	 ecx
  00181	75 f4		 jne	 SHORT $LL424@LoadCallAt
  00183	8b 8d d0 fe ff
	ff		 mov	 ecx, DWORD PTR _rkLoader$GSCopy$[ebp]
  00189	80 75 f4 ed	 xor	 BYTE PTR __k$537720[ebp+28], -19 ; ffffffedH
  0018d	53		 push	 ebx
  0018e	8d 45 d8	 lea	 eax, DWORD PTR __k$537720[ebp]
  00191	50		 push	 eax
  00192	ff d7		 call	 edi
  00194	6a 07		 push	 7
  00196	59		 pop	 ecx
  00197	89 86 cc 09 00
	00		 mov	 DWORD PTR [esi+2508], eax

; 111  : 	m_CallWeaponInfo.m_bWoundedLoopAni = rkLoader.LoadBool_e( "call_attribute_wound_loop_ani", false );

  0019d	c7 45 d8 8e 8d
	87 86		 mov	 DWORD PTR __k$537845[ebp], -2037936754 ; 86878d8eH
  001a4	c7 45 dc b2 8d
	9f 9e		 mov	 DWORD PTR __k$537845[ebp+4], -1633710670 ; 9e9f8db2H
  001ab	c7 45 e0 9f 85
	89 9f		 mov	 DWORD PTR __k$537845[ebp+8], -1618377313 ; 9f89859fH
  001b2	c7 45 e4 99 89
	b4 9d		 mov	 DWORD PTR __k$537845[ebp+12], -1649112679 ; 9db48999H
  001b9	c7 45 e8 82 99
	85 8e		 mov	 DWORD PTR __k$537845[ebp+16], -1903847038 ; 8e859982H
  001c0	c7 45 ec b2 80
	84 85		 mov	 DWORD PTR __k$537845[ebp+20], -2054913870 ; 858480b2H
  001c7	c7 45 f0 9d b3
	8a 84		 mov	 DWORD PTR __k$537845[ebp+24], -2071284835 ; 848ab39dH
  001ce	8d 45 d8	 lea	 eax, DWORD PTR __k$537845[ebp]
  001d1	66 c7 45 f4 84
	00		 mov	 WORD PTR __k$537845[ebp+28], 132 ; 00000084H
  001d7	5f		 pop	 edi
$LL530@LoadCallAt:
  001d8	81 30 ed ec eb
	ea		 xor	 DWORD PTR [eax], -353637139 ; eaebecedH
  001de	83 c0 04	 add	 eax, 4
  001e1	49		 dec	 ecx
  001e2	75 f4		 jne	 SHORT $LL530@LoadCallAt
  001e4	8b 8d d0 fe ff
	ff		 mov	 ecx, DWORD PTR _rkLoader$GSCopy$[ebp]
  001ea	80 75 f4 ed	 xor	 BYTE PTR __k$537845[ebp+28], -19 ; ffffffedH
  001ee	53		 push	 ebx
  001ef	8d 45 d8	 lea	 eax, DWORD PTR __k$537845[ebp]
  001f2	50		 push	 eax
  001f3	ff 15 00 00 00
	00		 call	 DWORD PTR __imp_?LoadBool@ioINILoader@@QAE_NPBD_N@Z

; 112  : }

  001f9	8b 4d fc	 mov	 ecx, DWORD PTR __$ArrayPad$[ebp]
  001fc	88 86 d4 09 00
	00		 mov	 BYTE PTR [esi+2516], al
  00202	5e		 pop	 esi
  00203	33 cd		 xor	 ecx, ebp
  00205	5b		 pop	 ebx
  00206	e8 00 00 00 00	 call	 @__security_check_cookie@4
  0020b	c9		 leave
  0020c	c2 04 00	 ret	 4
?LoadCallAttribute@ioAdhesiveMissileWeapon3@@QAEXAAVioINILoader@@@Z ENDP ; ioAdhesiveMissileWeapon3::LoadCallAttribute
_TEXT	ENDS
PUBLIC	??_C@_0DI@INBEGNMH@ioAdhesiveMissileWeapon?3?3CreateF@ ; `string'
PUBLIC	?CreateFireBall@ioAdhesiveMissileWeapon3@@IAE_NABVioHashString@@@Z ; ioAdhesiveMissileWeapon3::CreateFireBall
EXTRN	__imp_?PrintTimeAndLog@CLog@@QAAXHPADZZ:PROC
EXTRN	__imp_?LOG@@3VCLog@@A:BYTE
EXTRN	__imp_?CreateEffect@ioEffectFactory@@QAEPAVioEffect@@ABVioHashString@@@Z:PROC
EXTRN	__EH_epilog3_GS:PROC
EXTRN	__EH_prolog3_GS:PROC
;	COMDAT ??_C@_0DI@INBEGNMH@ioAdhesiveMissileWeapon?3?3CreateF@
; File c:\program files (x86)\microsoft directx sdk (june 2010)\include\d3dx9math.inl
CONST	SEGMENT
??_C@_0DI@INBEGNMH@ioAdhesiveMissileWeapon?3?3CreateF@ DB 'ioAdhesiveMiss'
	DB	'ileWeapon::CreateFileBall - Not Has Owner', 00H ; `string'
CONST	ENDS
;	COMDAT xdata$x
xdata$x	SEGMENT
__unwindtable$?CreateFireBall@ioAdhesiveMissileWeapon3@@IAE_NABVioHashString@@@Z DD 0ffffffffH
	DD	FLAT:__unwindfunclet$?CreateFireBall@ioAdhesiveMissileWeapon3@@IAE_NABVioHashString@@@Z$0
__ehfuncinfo$?CreateFireBall@ioAdhesiveMissileWeapon3@@IAE_NABVioHashString@@@Z DD 019930522H
	DD	01H
	DD	FLAT:__unwindtable$?CreateFireBall@ioAdhesiveMissileWeapon3@@IAE_NABVioHashString@@@Z
	DD	2 DUP(00H)
	DD	2 DUP(00H)
	DD	00H
	DD	01H
; Function compile flags: /Ogsp
; File d:\lost saga for developer\youtube\tutorial\source\src\lsclient\ioadhesivemissileweapon3.cpp
xdata$x	ENDS
;	COMDAT ?CreateFireBall@ioAdhesiveMissileWeapon3@@IAE_NABVioHashString@@@Z
_TEXT	SEGMENT
_szLinkBiped$ = -68					; size = 16
_value$537989 = -52					; size = 4
_value$537994 = -48					; size = 4
_value$537984 = -44					; size = 4
_vPosOffset$ = -40					; size = 12
_vStartPos$ = -28					; size = 12
__$EHRec$ = -12						; size = 12
_szFileName$ = 8					; size = 4
?CreateFireBall@ioAdhesiveMissileWeapon3@@IAE_NABVioHashString@@@Z PROC ; ioAdhesiveMissileWeapon3::CreateFireBall, COMDAT
; _this$ = ecx

; 157  : {

  00000	6a 38		 push	 56			; 00000038H
  00002	b8 00 00 00 00	 mov	 eax, __ehhandler$?CreateFireBall@ioAdhesiveMissileWeapon3@@IAE_NABVioHashString@@@Z
  00007	e8 00 00 00 00	 call	 __EH_prolog3_GS
  0000c	8b 45 08	 mov	 eax, DWORD PTR _szFileName$[ebp]

; 158  : 	m_pFireBall = g_EffectFactory.CreateEffect( szFileName );

  0000f	50		 push	 eax
  00010	8b d9		 mov	 ebx, ecx
  00012	ff 15 00 00 00
	00		 call	 DWORD PTR __imp_?GetSingleton@ioEffectFactory@@SAAAV1@XZ
  00018	8b c8		 mov	 ecx, eax
  0001a	ff 15 00 00 00
	00		 call	 DWORD PTR __imp_?CreateEffect@ioEffectFactory@@QAEPAVioEffect@@ABVioHashString@@@Z
  00020	89 83 94 08 00
	00		 mov	 DWORD PTR [ebx+2196], eax

; 159  : 	if( !m_pFireBall )	return false;

  00026	85 c0		 test	 eax, eax
  00028	75 07		 jne	 SHORT $LN2@CreateFire
$LN29@CreateFire:
  0002a	32 c0		 xor	 al, al
  0002c	e9 db 00 00 00	 jmp	 $LN3@CreateFire
$LN2@CreateFire:

; 160  : 
; 161  : 	GetParentSceneNode()->AttachObject( m_pFireBall );

  00031	8b 4b 04	 mov	 ecx, DWORD PTR [ebx+4]
  00034	8b 11		 mov	 edx, DWORD PTR [ecx]
  00036	83 c0 14	 add	 eax, 20			; 00000014H
  00039	50		 push	 eax
  0003a	ff 92 ac 00 00
	00		 call	 DWORD PTR [edx+172]

; 162  : 	
; 163  : 	ioBaseChar *pOwner = GetOwner();

  00040	8b cb		 mov	 ecx, ebx
  00042	e8 00 00 00 00	 call	 ?GetOwner@ioWeapon@@QBEPAVioBaseChar@@XZ ; ioWeapon::GetOwner
  00047	8b f0		 mov	 esi, eax

; 164  : 	if( !pOwner )

  00049	85 f6		 test	 esi, esi
  0004b	75 17		 jne	 SHORT $LN1@CreateFire

; 165  : 	{
; 166  : 		LOG.PrintTimeAndLog( 0, "ioAdhesiveMissileWeapon::CreateFileBall - Not Has Owner" );

  0004d	68 00 00 00 00	 push	 OFFSET ??_C@_0DI@INBEGNMH@ioAdhesiveMissileWeapon?3?3CreateF@
  00052	50		 push	 eax
  00053	ff 35 00 00 00
	00		 push	 DWORD PTR __imp_?LOG@@3VCLog@@A
  00059	ff 15 00 00 00
	00		 call	 DWORD PTR __imp_?PrintTimeAndLog@CLog@@QAAXHPADZZ
  0005f	83 c4 0c	 add	 esp, 12			; 0000000cH

; 167  : 		return false;

  00062	eb c6		 jmp	 SHORT $LN29@CreateFire
$LN1@CreateFire:

; 168  : 	}
; 169  : 
; 170  : 	ioHashString szLinkBiped;

  00064	8d 4d bc	 lea	 ecx, DWORD PTR _szLinkBiped$[ebp]
  00067	ff 15 00 00 00
	00		 call	 DWORD PTR __imp_??0ioHashString@@QAE@XZ
  0006d	83 65 fc 00	 and	 DWORD PTR __$EHRec$[ebp+8], 0

; 171  : 	D3DXVECTOR3 vLinkPosOffset;
; 172  : 	D3DXQUATERNION qtLinkRotOffset;
; 173  : 
; 174  : 	D3DXVECTOR3 vStartPos( m_fStartOffset_x, m_fStartOffset_y, m_fStartOffset_z );

  00071	8d 45 d4	 lea	 eax, DWORD PTR _value$537984[ebp]
  00074	50		 push	 eax
  00075	8d 8b 64 09 00
	00		 lea	 ecx, DWORD PTR [ebx+2404]
  0007b	e8 00 00 00 00	 call	 ?DecryptValueToPool@?$CEncrypt@M@@QAEXPAM@Z ; CEncrypt<float>::DecryptValueToPool
  00080	8d 45 cc	 lea	 eax, DWORD PTR _value$537989[ebp]
  00083	50		 push	 eax
  00084	8d 8b 34 09 00
	00		 lea	 ecx, DWORD PTR [ebx+2356]
  0008a	e8 00 00 00 00	 call	 ?DecryptValueToPool@?$CEncrypt@M@@QAEXPAM@Z ; CEncrypt<float>::DecryptValueToPool
  0008f	8d 45 d0	 lea	 eax, DWORD PTR _value$537994[ebp]
  00092	50		 push	 eax
  00093	8d 8b 04 09 00
	00		 lea	 ecx, DWORD PTR [ebx+2308]
  00099	e8 00 00 00 00	 call	 ?DecryptValueToPool@?$CEncrypt@M@@QAEXPAM@Z ; CEncrypt<float>::DecryptValueToPool
  0009e	f3 0f 10 45 d0	 movss	 xmm0, DWORD PTR _value$537994[ebp]

; 175  : 	D3DXVECTOR3 vPosOffset = pOwner->GetTargetRot() * vStartPos;

  000a3	8d 45 e4	 lea	 eax, DWORD PTR _vStartPos$[ebp]
  000a6	50		 push	 eax
  000a7	8d 86 a4 06 00
	00		 lea	 eax, DWORD PTR [esi+1700]
  000ad	f3 0f 11 45 e4	 movss	 DWORD PTR _vStartPos$[ebp], xmm0
  000b2	f3 0f 10 45 cc	 movss	 xmm0, DWORD PTR _value$537989[ebp]
  000b7	50		 push	 eax
  000b8	8d 45 d8	 lea	 eax, DWORD PTR _vPosOffset$[ebp]
  000bb	f3 0f 11 45 e8	 movss	 DWORD PTR _vStartPos$[ebp+4], xmm0
  000c0	f3 0f 10 45 d4	 movss	 xmm0, DWORD PTR _value$537984[ebp]
  000c5	50		 push	 eax
  000c6	f3 0f 11 45 ec	 movss	 DWORD PTR _vStartPos$[ebp+8], xmm0
  000cb	ff 15 00 00 00
	00		 call	 DWORD PTR __imp_??D@YA?AUD3DXVECTOR3@@ABUD3DXQUATERNION@@ABU0@@Z

; 176  : 	D3DXVECTOR3 vNewPos = pOwner->GetWorldPosition() + vPosOffset;

  000d1	8b 06		 mov	 eax, DWORD PTR [esi]
  000d3	83 c4 0c	 add	 esp, 12			; 0000000cH
  000d6	8b ce		 mov	 ecx, esi
  000d8	ff 50 70	 call	 DWORD PTR [eax+112]

; 177  : 
; 178  : 	m_StartPos = GetPosition();

  000db	8b 03		 mov	 eax, DWORD PTR [ebx]
  000dd	8b cb		 mov	 ecx, ebx
  000df	ff 50 70	 call	 DWORD PTR [eax+112]

; 179  : 	AddEffectEvent( m_pFireBall );

  000e2	ff b3 94 08 00
	00		 push	 DWORD PTR [ebx+2196]
  000e8	8b f0		 mov	 esi, eax
  000ea	8b 03		 mov	 eax, DWORD PTR [ebx]
  000ec	8d bb ec 08 00
	00		 lea	 edi, DWORD PTR [ebx+2284]
  000f2	a5		 movsd
  000f3	a5		 movsd
  000f4	8b cb		 mov	 ecx, ebx
  000f6	a5		 movsd
  000f7	ff 90 68 01 00
	00		 call	 DWORD PTR [eax+360]

; 180  : 
; 181  : 	return true;

  000fd	83 4d fc ff	 or	 DWORD PTR __$EHRec$[ebp+8], -1
  00101	8d 4d bc	 lea	 ecx, DWORD PTR _szLinkBiped$[ebp]
  00104	ff 15 00 00 00
	00		 call	 DWORD PTR __imp_??1ioHashString@@QAE@XZ
  0010a	b0 01		 mov	 al, 1
$LN3@CreateFire:

; 182  : }

  0010c	e8 00 00 00 00	 call	 __EH_epilog3_GS
  00111	c2 04 00	 ret	 4
_TEXT	ENDS
;	COMDAT text$x
text$x	SEGMENT
__unwindfunclet$?CreateFireBall@ioAdhesiveMissileWeapon3@@IAE_NABVioHashString@@@Z$0:
  00000	8d 4d bc	 lea	 ecx, DWORD PTR _szLinkBiped$[ebp]
  00003	ff 25 00 00 00
	00		 jmp	 DWORD PTR __imp_??1ioHashString@@QAE@XZ
__ehhandler$?CreateFireBall@ioAdhesiveMissileWeapon3@@IAE_NABVioHashString@@@Z:
  00009	8b 54 24 08	 mov	 edx, DWORD PTR [esp+8]
  0000d	8d 42 0c	 lea	 eax, DWORD PTR [edx+12]
  00010	8b 4a b8	 mov	 ecx, DWORD PTR [edx-72]
  00013	33 c8		 xor	 ecx, eax
  00015	e8 00 00 00 00	 call	 @__security_check_cookie@4
  0001a	8b 4a fc	 mov	 ecx, DWORD PTR [edx-4]
  0001d	33 c8		 xor	 ecx, eax
  0001f	e8 00 00 00 00	 call	 @__security_check_cookie@4
  00024	b8 00 00 00 00	 mov	 eax, OFFSET __ehfuncinfo$?CreateFireBall@ioAdhesiveMissileWeapon3@@IAE_NABVioHashString@@@Z
  00029	e9 00 00 00 00	 jmp	 ___CxxFrameHandler3
text$x	ENDS
?CreateFireBall@ioAdhesiveMissileWeapon3@@IAE_NABVioHashString@@@Z ENDP ; ioAdhesiveMissileWeapon3::CreateFireBall
PUBLIC	__real@00000000
PUBLIC	?GetMoveSpeed@ioAdhesiveMissileWeapon3@@IAEMXZ	; ioAdhesiveMissileWeapon3::GetMoveSpeed
;	COMDAT __real@00000000
; File d:\lost saga for developer\youtube\tutorial\source\src\lsclient\encryptvalue.h
CONST	SEGMENT
__real@00000000 DD 000000000r			; 0
; Function compile flags: /Ogsp
; File d:\lost saga for developer\youtube\tutorial\source\src\lsclient\ioadhesivemissileweapon3.cpp
CONST	ENDS
;	COMDAT ?GetMoveSpeed@ioAdhesiveMissileWeapon3@@IAEMXZ
_TEXT	SEGMENT
tv141 = -4						; size = 4
_value$538030 = -4					; size = 4
?GetMoveSpeed@ioAdhesiveMissileWeapon3@@IAEMXZ PROC	; ioAdhesiveMissileWeapon3::GetMoveSpeed, COMDAT
; _this$ = ecx

; 390  : {

  00000	55		 push	 ebp
  00001	8b ec		 mov	 ebp, esp
  00003	51		 push	 ecx
  00004	56		 push	 esi
  00005	8b f1		 mov	 esi, ecx

; 391  : 	if( m_bOwnerAttach )

  00007	80 be 9f 09 00
	00 00		 cmp	 BYTE PTR [esi+2463], 0
  0000e	74 04		 je	 SHORT $LN1@GetMoveSpe

; 392  : 		return 0.0f;

  00010	d9 ee		 fldz
  00012	eb 28		 jmp	 SHORT $LN2@GetMoveSpe
$LN1@GetMoveSpe:

; 393  : 
; 394  : 	return GetAttribute()->m_fMoveSpeed * m_fOwnerChargeSpeedRate;

  00014	8d 45 fc	 lea	 eax, DWORD PTR _value$538030[ebp]
  00017	50		 push	 eax
  00018	8d 8e 20 01 00
	00		 lea	 ecx, DWORD PTR [esi+288]
  0001e	e8 00 00 00 00	 call	 ?DecryptValueToPool@?$CEncrypt@M@@QAEXPAM@Z ; CEncrypt<float>::DecryptValueToPool
  00023	8b 06		 mov	 eax, DWORD PTR [esi]
  00025	8b ce		 mov	 ecx, esi
  00027	ff 90 3c 01 00
	00		 call	 DWORD PTR [eax+316]
  0002d	d9 80 98 01 00
	00		 fld	 DWORD PTR [eax+408]
  00033	d8 4d fc	 fmul	 DWORD PTR _value$538030[ebp]
  00036	d9 5d fc	 fstp	 DWORD PTR tv141[ebp]
  00039	d9 45 fc	 fld	 DWORD PTR tv141[ebp]
$LN2@GetMoveSpe:
  0003c	5e		 pop	 esi

; 395  : }

  0003d	c9		 leave
  0003e	c3		 ret	 0
?GetMoveSpeed@ioAdhesiveMissileWeapon3@@IAEMXZ ENDP	; ioAdhesiveMissileWeapon3::GetMoveSpeed
_TEXT	ENDS
PUBLIC	?GetMaxRange@ioAdhesiveMissileWeapon3@@IAEMXZ	; ioAdhesiveMissileWeapon3::GetMaxRange
; Function compile flags: /Ogsp
;	COMDAT ?GetMaxRange@ioAdhesiveMissileWeapon3@@IAEMXZ
_TEXT	SEGMENT
tv136 = -4						; size = 4
_value$538037 = -4					; size = 4
?GetMaxRange@ioAdhesiveMissileWeapon3@@IAEMXZ PROC	; ioAdhesiveMissileWeapon3::GetMaxRange, COMDAT
; _this$ = ecx

; 398  : {

  00000	55		 push	 ebp
  00001	8b ec		 mov	 ebp, esp
  00003	51		 push	 ecx
  00004	56		 push	 esi
  00005	8b f1		 mov	 esi, ecx

; 399  : 	return GetAttribute()->m_fMoveRange * m_fOwnerChargeRangeRate;

  00007	8d 45 fc	 lea	 eax, DWORD PTR _value$538037[ebp]
  0000a	50		 push	 eax
  0000b	8d 8e f0 00 00
	00		 lea	 ecx, DWORD PTR [esi+240]
  00011	e8 00 00 00 00	 call	 ?DecryptValueToPool@?$CEncrypt@M@@QAEXPAM@Z ; CEncrypt<float>::DecryptValueToPool
  00016	8b 06		 mov	 eax, DWORD PTR [esi]
  00018	8b ce		 mov	 ecx, esi
  0001a	ff 90 3c 01 00
	00		 call	 DWORD PTR [eax+316]
  00020	d9 80 9c 01 00
	00		 fld	 DWORD PTR [eax+412]
  00026	d8 4d fc	 fmul	 DWORD PTR _value$538037[ebp]
  00029	5e		 pop	 esi
  0002a	d9 5d fc	 fstp	 DWORD PTR tv136[ebp]
  0002d	d9 45 fc	 fld	 DWORD PTR tv136[ebp]

; 400  : }

  00030	c9		 leave
  00031	c3		 ret	 0
?GetMaxRange@ioAdhesiveMissileWeapon3@@IAEMXZ ENDP	; ioAdhesiveMissileWeapon3::GetMaxRange
_TEXT	ENDS
PUBLIC	_pStage$GSCopy$
PUBLIC	__$ArrayPad$
PUBLIC	?Explosion@ioAdhesiveMissileWeapon3@@QAEXPAVioPlayStage@@@Z ; ioAdhesiveMissileWeapon3::Explosion
EXTRN	?PlayExplosionSound@ioWeapon@@UAEXXZ:PROC	; ioWeapon::PlayExplosionSound
EXTRN	?CreateMapEffect@ioPlayStage@@QAEPAVioMapEffect@@ABVioHashString@@ABUD3DXVECTOR3@@1@Z:PROC ; ioPlayStage::CreateMapEffect
EXTRN	__imp_?UNIT_ALL@ioMath@@2UD3DXVECTOR3@@A:BYTE
EXTRN	__imp_?GetCenter@ioOrientBox@@QBEABUD3DXVECTOR3@@XZ:PROC
EXTRN	__imp_?IsEmpty@ioHashString@@QBE_NXZ:PROC
; Function compile flags: /Ogsp
;	COMDAT ?Explosion@ioAdhesiveMissileWeapon3@@QAEXPAVioPlayStage@@@Z
_TEXT	SEGMENT
$T532571 = -56						; size = 12
_value$538067 = -44					; size = 4
_pStage$GSCopy$ = -40					; size = 4
tv234 = -36						; size = 4
_value$538062 = -36					; size = 4
_value$538072 = -32					; size = 4
_value$538058 = -32					; size = 4
_vPos$532566 = -28					; size = 12
_vScale$532567 = -16					; size = 12
__$ArrayPad$ = -4					; size = 4
_pStage$ = 8						; size = 4
?Explosion@ioAdhesiveMissileWeapon3@@QAEXPAVioPlayStage@@@Z PROC ; ioAdhesiveMissileWeapon3::Explosion, COMDAT
; _this$ = ecx

; 504  : {

  00000	55		 push	 ebp
  00001	8b ec		 mov	 ebp, esp
  00003	83 ec 38	 sub	 esp, 56			; 00000038H
  00006	a1 00 00 00 00	 mov	 eax, DWORD PTR ___security_cookie
  0000b	33 c5		 xor	 eax, ebp
  0000d	89 45 fc	 mov	 DWORD PTR __$ArrayPad$[ebp], eax
  00010	8b 45 08	 mov	 eax, DWORD PTR _pStage$[ebp]
  00013	53		 push	 ebx
  00014	8b d9		 mov	 ebx, ecx

; 505  : 	if( !IsLive() )

  00016	80 bb 82 05 00
	00 00		 cmp	 BYTE PTR [ebx+1410], 0

; 522  : 	}
; 523  : 
; 524  : 	ClearData();

  0001d	89 45 d8	 mov	 DWORD PTR _pStage$GSCopy$[ebp], eax
  00020	0f 84 f5 00 00
	00		 je	 $LN4@Explosion

; 506  : 		return;
; 507  : 
; 508  : 	//       .
; 509  : 	if( !m_BoomEffect.IsEmpty() )

  00026	8d 8b dc 08 00
	00		 lea	 ecx, DWORD PTR [ebx+2268]
  0002c	ff 15 00 00 00
	00		 call	 DWORD PTR __imp_?IsEmpty@ioHashString@@QBE_NXZ
  00032	84 c0		 test	 al, al
  00034	0f 85 cc 00 00
	00		 jne	 $LN2@Explosion

; 510  : 	{
; 511  : 		D3DXVECTOR3 vPos = GetWorldAttackBox().GetCenter();

  0003a	56		 push	 esi
  0003b	57		 push	 edi
  0003c	6a 00		 push	 0
  0003e	8b cb		 mov	 ecx, ebx
  00040	e8 00 00 00 00	 call	 ?GetWorldAttackBox@ioWeapon@@QBEABVioOrientBox@@_N@Z ; ioWeapon::GetWorldAttackBox
  00045	8b c8		 mov	 ecx, eax
  00047	ff 15 00 00 00
	00		 call	 DWORD PTR __imp_?GetCenter@ioOrientBox@@QBEABUD3DXVECTOR3@@XZ
  0004d	8b f0		 mov	 esi, eax
  0004f	8d 7d e4	 lea	 edi, DWORD PTR _vPos$532566[ebp]
  00052	a5		 movsd
  00053	a5		 movsd
  00054	a5		 movsd

; 512  : 		D3DXVECTOR3 vScale = ioMath::UNIT_ALL;

  00055	8b 35 00 00 00
	00		 mov	 esi, DWORD PTR __imp_?UNIT_ALL@ioMath@@2UD3DXVECTOR3@@A
  0005b	8d 7d f0	 lea	 edi, DWORD PTR _vScale$532567[ebp]
  0005e	a5		 movsd
  0005f	a5		 movsd
  00060	a5		 movsd

; 513  : 
; 514  : 		if( m_fOwnerChargeExplosionRate > FLOAT1 )

  00061	b8 01 00 00 00	 mov	 eax, 1
  00066	8b f8		 mov	 edi, eax
  00068	8d 45 e0	 lea	 eax, DWORD PTR _value$538058[ebp]
  0006b	50		 push	 eax
  0006c	8d 8b e0 01 00
	00		 lea	 ecx, DWORD PTR [ebx+480]
  00072	e8 00 00 00 00	 call	 ?DecryptValueToPool@?$CEncrypt@M@@QAEXPAM@Z ; CEncrypt<float>::DecryptValueToPool
  00077	d9 45 e0	 fld	 DWORD PTR _value$538058[ebp]
  0007a	89 7d dc	 mov	 DWORD PTR tv234[ebp], edi
  0007d	db 45 dc	 fild	 DWORD PTR tv234[ebp]
  00080	85 ff		 test	 edi, edi
  00082	79 06		 jns	 SHORT $LN23@Explosion
  00084	d8 05 00 00 00
	00		 fadd	 DWORD PTR __real@4f800000
$LN23@Explosion:
  0008a	d9 c9		 fxch	 ST(1)
  0008c	df f1		 fcomip	 ST(1)
  0008e	dd d8		 fstp	 ST(0)
  00090	76 54		 jbe	 SHORT $LN1@Explosion

; 515  : 		{
; 516  : 			vScale = D3DXVECTOR3( m_fOwnerChargeExplosionRate, m_fOwnerChargeExplosionRate, m_fOwnerChargeExplosionRate );

  00092	8d 45 dc	 lea	 eax, DWORD PTR _value$538062[ebp]
  00095	50		 push	 eax
  00096	8d 8b e0 01 00
	00		 lea	 ecx, DWORD PTR [ebx+480]
  0009c	e8 00 00 00 00	 call	 ?DecryptValueToPool@?$CEncrypt@M@@QAEXPAM@Z ; CEncrypt<float>::DecryptValueToPool
  000a1	8d 45 d4	 lea	 eax, DWORD PTR _value$538067[ebp]
  000a4	50		 push	 eax
  000a5	8d 8b e0 01 00
	00		 lea	 ecx, DWORD PTR [ebx+480]
  000ab	e8 00 00 00 00	 call	 ?DecryptValueToPool@?$CEncrypt@M@@QAEXPAM@Z ; CEncrypt<float>::DecryptValueToPool
  000b0	8d 45 e0	 lea	 eax, DWORD PTR _value$538072[ebp]
  000b3	50		 push	 eax
  000b4	8d 8b e0 01 00
	00		 lea	 ecx, DWORD PTR [ebx+480]
  000ba	e8 00 00 00 00	 call	 ?DecryptValueToPool@?$CEncrypt@M@@QAEXPAM@Z ; CEncrypt<float>::DecryptValueToPool
  000bf	f3 0f 10 45 e0	 movss	 xmm0, DWORD PTR _value$538072[ebp]
  000c4	f3 0f 11 45 c8	 movss	 DWORD PTR $T532571[ebp], xmm0
  000c9	f3 0f 10 45 d4	 movss	 xmm0, DWORD PTR _value$538067[ebp]
  000ce	f3 0f 11 45 cc	 movss	 DWORD PTR $T532571[ebp+4], xmm0
  000d3	f3 0f 10 45 dc	 movss	 xmm0, DWORD PTR _value$538062[ebp]
  000d8	f3 0f 11 45 d0	 movss	 DWORD PTR $T532571[ebp+8], xmm0
  000dd	8d 75 c8	 lea	 esi, DWORD PTR $T532571[ebp]
  000e0	8d 7d f0	 lea	 edi, DWORD PTR _vScale$532567[ebp]
  000e3	a5		 movsd
  000e4	a5		 movsd
  000e5	a5		 movsd
$LN1@Explosion:

; 517  : 		}
; 518  : 
; 519  : 		pStage->CreateMapEffect( m_BoomEffect, vPos, vScale );

  000e6	8b 4d d8	 mov	 ecx, DWORD PTR _pStage$GSCopy$[ebp]
  000e9	8d 45 f0	 lea	 eax, DWORD PTR _vScale$532567[ebp]
  000ec	50		 push	 eax
  000ed	8d 45 e4	 lea	 eax, DWORD PTR _vPos$532566[ebp]
  000f0	50		 push	 eax
  000f1	8d 83 dc 08 00
	00		 lea	 eax, DWORD PTR [ebx+2268]
  000f7	50		 push	 eax
  000f8	e8 00 00 00 00	 call	 ?CreateMapEffect@ioPlayStage@@QAEPAVioMapEffect@@ABVioHashString@@ABUD3DXVECTOR3@@1@Z ; ioPlayStage::CreateMapEffect

; 520  : 
; 521  : 		ioWeapon::PlayExplosionSound();

  000fd	8b cb		 mov	 ecx, ebx
  000ff	e8 00 00 00 00	 call	 ?PlayExplosionSound@ioWeapon@@UAEXXZ ; ioWeapon::PlayExplosionSound
  00104	5f		 pop	 edi
  00105	5e		 pop	 esi
$LN2@Explosion:

; 522  : 	}
; 523  : 
; 524  : 	ClearData();

  00106	8b cb		 mov	 ecx, ebx
  00108	e8 00 00 00 00	 call	 ?ClearData@ioAdhesiveMissileWeapon3@@IAEXXZ ; ioAdhesiveMissileWeapon3::ClearData

; 525  : 	SetForceClose();

  0010d	8b cb		 mov	 ecx, ebx
  0010f	e8 00 00 00 00	 call	 ?SetForceClose@ioAdhesiveMissileWeapon3@@IAEXXZ ; ioAdhesiveMissileWeapon3::SetForceClose

; 526  : 	SetWeaponDead();

  00114	8b 03		 mov	 eax, DWORD PTR [ebx]
  00116	8b cb		 mov	 ecx, ebx
  00118	ff 50 4c	 call	 DWORD PTR [eax+76]
$LN4@Explosion:

; 527  : }

  0011b	8b 4d fc	 mov	 ecx, DWORD PTR __$ArrayPad$[ebp]
  0011e	33 cd		 xor	 ecx, ebp
  00120	5b		 pop	 ebx
  00121	e8 00 00 00 00	 call	 @__security_check_cookie@4
  00126	c9		 leave
  00127	c2 04 00	 ret	 4
?Explosion@ioAdhesiveMissileWeapon3@@QAEXPAVioPlayStage@@@Z ENDP ; ioAdhesiveMissileWeapon3::Explosion
_TEXT	ENDS
PUBLIC	??0?$vector@UChangeDirInfo@@V?$allocator@UChangeDirInfo@@@std@@@std@@QAE@XZ ; std::vector<ChangeDirInfo,std::allocator<ChangeDirInfo> >::vector<ChangeDirInfo,std::allocator<ChangeDirInfo> >
; Function compile flags: /Ogsp
; File c:\program files (x86)\microsoft visual studio 10.0\vc\include\vector
;	COMDAT ??0?$vector@UChangeDirInfo@@V?$allocator@UChangeDirInfo@@@std@@@std@@QAE@XZ
_TEXT	SEGMENT
??0?$vector@UChangeDirInfo@@V?$allocator@UChangeDirInfo@@@std@@@std@@QAE@XZ PROC ; std::vector<ChangeDirInfo,std::allocator<ChangeDirInfo> >::vector<ChangeDirInfo,std::allocator<ChangeDirInfo> >, COMDAT
; _this$ = ecx

; 507  : 		{	// construct empty vector

  00000	8b c1		 mov	 eax, ecx
  00002	33 c9		 xor	 ecx, ecx
  00004	89 08		 mov	 DWORD PTR [eax], ecx
  00006	89 48 04	 mov	 DWORD PTR [eax+4], ecx
  00009	89 48 08	 mov	 DWORD PTR [eax+8], ecx

; 508  : 		}

  0000c	c3		 ret	 0
??0?$vector@UChangeDirInfo@@V?$allocator@UChangeDirInfo@@@std@@@std@@QAE@XZ ENDP ; std::vector<ChangeDirInfo,std::allocator<ChangeDirInfo> >::vector<ChangeDirInfo,std::allocator<ChangeDirInfo> >
_TEXT	ENDS
PUBLIC	?begin@?$vector@UChangeDirInfo@@V?$allocator@UChangeDirInfo@@@std@@@std@@QAE?AV?$_Vector_iterator@V?$_Vector_val@UChangeDirInfo@@V?$allocator@UChangeDirInfo@@@std@@@std@@@2@XZ ; std::vector<ChangeDirInfo,std::allocator<ChangeDirInfo> >::begin
; Function compile flags: /Ogsp
;	COMDAT ?begin@?$vector@UChangeDirInfo@@V?$allocator@UChangeDirInfo@@@std@@@std@@QAE?AV?$_Vector_iterator@V?$_Vector_val@UChangeDirInfo@@V?$allocator@UChangeDirInfo@@@std@@@std@@@2@XZ
_TEXT	SEGMENT
___$ReturnUdt$ = 8					; size = 4
?begin@?$vector@UChangeDirInfo@@V?$allocator@UChangeDirInfo@@@std@@@std@@QAE?AV?$_Vector_iterator@V?$_Vector_val@UChangeDirInfo@@V?$allocator@UChangeDirInfo@@@std@@@std@@@2@XZ PROC ; std::vector<ChangeDirInfo,std::allocator<ChangeDirInfo> >::begin, COMDAT
; _this$ = ecx

; 781  : 		{	// return iterator for beginning of mutable sequence

  00000	55		 push	 ebp
  00001	8b ec		 mov	 ebp, esp

; 782  : 		return (iterator(this->_Myfirst, this));

  00003	8b 09		 mov	 ecx, DWORD PTR [ecx]
  00005	8b 45 08	 mov	 eax, DWORD PTR ___$ReturnUdt$[ebp]
  00008	89 08		 mov	 DWORD PTR [eax], ecx

; 783  : 		}

  0000a	5d		 pop	 ebp
  0000b	c2 04 00	 ret	 4
?begin@?$vector@UChangeDirInfo@@V?$allocator@UChangeDirInfo@@@std@@@std@@QAE?AV?$_Vector_iterator@V?$_Vector_val@UChangeDirInfo@@V?$allocator@UChangeDirInfo@@@std@@@std@@@2@XZ ENDP ; std::vector<ChangeDirInfo,std::allocator<ChangeDirInfo> >::begin
_TEXT	ENDS
PUBLIC	?end@?$vector@UChangeDirInfo@@V?$allocator@UChangeDirInfo@@@std@@@std@@QAE?AV?$_Vector_iterator@V?$_Vector_val@UChangeDirInfo@@V?$allocator@UChangeDirInfo@@@std@@@std@@@2@XZ ; std::vector<ChangeDirInfo,std::allocator<ChangeDirInfo> >::end
; Function compile flags: /Ogsp
;	COMDAT ?end@?$vector@UChangeDirInfo@@V?$allocator@UChangeDirInfo@@@std@@@std@@QAE?AV?$_Vector_iterator@V?$_Vector_val@UChangeDirInfo@@V?$allocator@UChangeDirInfo@@@std@@@std@@@2@XZ
_TEXT	SEGMENT
___$ReturnUdt$ = 8					; size = 4
?end@?$vector@UChangeDirInfo@@V?$allocator@UChangeDirInfo@@@std@@@std@@QAE?AV?$_Vector_iterator@V?$_Vector_val@UChangeDirInfo@@V?$allocator@UChangeDirInfo@@@std@@@std@@@2@XZ PROC ; std::vector<ChangeDirInfo,std::allocator<ChangeDirInfo> >::end, COMDAT
; _this$ = ecx

; 791  : 		{	// return iterator for end of mutable sequence

  00000	55		 push	 ebp
  00001	8b ec		 mov	 ebp, esp

; 792  : 		return (iterator(this->_Mylast, this));

  00003	8b 49 04	 mov	 ecx, DWORD PTR [ecx+4]
  00006	8b 45 08	 mov	 eax, DWORD PTR ___$ReturnUdt$[ebp]
  00009	89 08		 mov	 DWORD PTR [eax], ecx

; 793  : 		}

  0000b	5d		 pop	 ebp
  0000c	c2 04 00	 ret	 4
?end@?$vector@UChangeDirInfo@@V?$allocator@UChangeDirInfo@@@std@@@std@@QAE?AV?$_Vector_iterator@V?$_Vector_val@UChangeDirInfo@@V?$allocator@UChangeDirInfo@@@std@@@std@@@2@XZ ENDP ; std::vector<ChangeDirInfo,std::allocator<ChangeDirInfo> >::end
_TEXT	ENDS
PUBLIC	?_Grow_to@?$vector@UBuffInfoStruct@@V?$allocator@UBuffInfoStruct@@@std@@@std@@IBEII@Z ; std::vector<BuffInfoStruct,std::allocator<BuffInfoStruct> >::_Grow_to
; Function compile flags: /Ogsp
;	COMDAT ?_Grow_to@?$vector@UBuffInfoStruct@@V?$allocator@UBuffInfoStruct@@@std@@@std@@IBEII@Z
_TEXT	SEGMENT
__Count$ = 8						; size = 4
?_Grow_to@?$vector@UBuffInfoStruct@@V?$allocator@UBuffInfoStruct@@@std@@@std@@IBEII@Z PROC ; std::vector<BuffInfoStruct,std::allocator<BuffInfoStruct> >::_Grow_to, COMDAT
; _this$ = ecx

; 1274 : 		{	// grow by 50% or at least to _Count

  00000	55		 push	 ebp
  00001	8b ec		 mov	 ebp, esp

; 1275 : 		size_type _Capacity = capacity();

  00003	8b 41 08	 mov	 eax, DWORD PTR [ecx+8]
  00006	2b 01		 sub	 eax, DWORD PTR [ecx]
  00008	6a 14		 push	 20			; 00000014H
  0000a	99		 cdq
  0000b	59		 pop	 ecx
  0000c	f7 f9		 idiv	 ecx

; 1276 : 
; 1277 : 		_Capacity = max_size() - _Capacity / 2 < _Capacity
; 1278 : 			? 0 : _Capacity + _Capacity / 2;	// try to grow by 50%

  0000e	ba cc cc cc 0c	 mov	 edx, 214748364		; 0cccccccH
  00013	8b c8		 mov	 ecx, eax
  00015	d1 e9		 shr	 ecx, 1
  00017	2b d1		 sub	 edx, ecx
  00019	3b d0		 cmp	 edx, eax
  0001b	73 04		 jae	 SHORT $LN4@Grow_to@2
  0001d	33 c0		 xor	 eax, eax
  0001f	eb 02		 jmp	 SHORT $LN5@Grow_to@2
$LN4@Grow_to@2:
  00021	03 c1		 add	 eax, ecx
$LN5@Grow_to@2:

; 1279 : 		if (_Capacity < _Count)

  00023	3b 45 08	 cmp	 eax, DWORD PTR __Count$[ebp]

; 1280 : 			_Capacity = _Count;

  00026	0f 42 45 08	 cmovb	 eax, DWORD PTR __Count$[ebp]

; 1281 : 		return (_Capacity);
; 1282 : 		}

  0002a	5d		 pop	 ebp
  0002b	c2 04 00	 ret	 4
?_Grow_to@?$vector@UBuffInfoStruct@@V?$allocator@UBuffInfoStruct@@@std@@@std@@IBEII@Z ENDP ; std::vector<BuffInfoStruct,std::allocator<BuffInfoStruct> >::_Grow_to
_TEXT	ENDS
PUBLIC	??9?$_Vector_const_iterator@V?$_Vector_val@UChangeDirInfo@@V?$allocator@UChangeDirInfo@@@std@@@std@@@std@@QBE_NABV01@@Z ; std::_Vector_const_iterator<std::_Vector_val<ChangeDirInfo,std::allocator<ChangeDirInfo> > >::operator!=
; Function compile flags: /Ogsp
;	COMDAT ??9?$_Vector_const_iterator@V?$_Vector_val@UChangeDirInfo@@V?$allocator@UChangeDirInfo@@@std@@@std@@@std@@QBE_NABV01@@Z
_TEXT	SEGMENT
__Right$ = 8						; size = 4
??9?$_Vector_const_iterator@V?$_Vector_val@UChangeDirInfo@@V?$allocator@UChangeDirInfo@@@std@@@std@@@std@@QBE_NABV01@@Z PROC ; std::_Vector_const_iterator<std::_Vector_val<ChangeDirInfo,std::allocator<ChangeDirInfo> > >::operator!=, COMDAT
; _this$ = ecx

; 207  : 		{	// test for iterator inequality

  00000	55		 push	 ebp
  00001	8b ec		 mov	 ebp, esp

; 208  : 		return (!(*this == _Right));

  00003	8b 01		 mov	 eax, DWORD PTR [ecx]
  00005	8b 55 08	 mov	 edx, DWORD PTR __Right$[ebp]
  00008	33 c9		 xor	 ecx, ecx
  0000a	3b 02		 cmp	 eax, DWORD PTR [edx]
  0000c	0f 95 c0	 setne	 al

; 209  : 		}

  0000f	5d		 pop	 ebp
  00010	c2 04 00	 ret	 4
??9?$_Vector_const_iterator@V?$_Vector_val@UChangeDirInfo@@V?$allocator@UChangeDirInfo@@@std@@@std@@@std@@QBE_NABV01@@Z ENDP ; std::_Vector_const_iterator<std::_Vector_val<ChangeDirInfo,std::allocator<ChangeDirInfo> > >::operator!=
_TEXT	ENDS
PUBLIC	??$_Cons_val@V?$allocator@UChangeDirInfo@@@std@@UChangeDirInfo@@ABU3@@std@@YAXAAV?$allocator@UChangeDirInfo@@@0@PAUChangeDirInfo@@ABU2@@Z ; std::_Cons_val<std::allocator<ChangeDirInfo>,ChangeDirInfo,ChangeDirInfo const &>
; Function compile flags: /Ogsp
; File c:\program files (x86)\microsoft visual studio 10.0\vc\include\xmemory
;	COMDAT ??$_Cons_val@V?$allocator@UChangeDirInfo@@@std@@UChangeDirInfo@@ABU3@@std@@YAXAAV?$allocator@UChangeDirInfo@@@0@PAUChangeDirInfo@@ABU2@@Z
_TEXT	SEGMENT
__Alval$ = 8						; size = 4
__Pdest$ = 12						; size = 4
__Src$ = 16						; size = 4
??$_Cons_val@V?$allocator@UChangeDirInfo@@@std@@UChangeDirInfo@@ABU3@@std@@YAXAAV?$allocator@UChangeDirInfo@@@0@PAUChangeDirInfo@@ABU2@@Z PROC ; std::_Cons_val<std::allocator<ChangeDirInfo>,ChangeDirInfo,ChangeDirInfo const &>, COMDAT

; 279  : 	{	// construct using allocator

  00000	55		 push	 ebp
  00001	8b ec		 mov	 ebp, esp
  00003	57		 push	 edi

; 280  : 	_Alval.construct(_Pdest, _STD forward<_Ty2>(_Src));

  00004	8b 7d 0c	 mov	 edi, DWORD PTR __Pdest$[ebp]
  00007	85 ff		 test	 edi, edi
  00009	74 0a		 je	 SHORT $LN9@Cons_val@2
  0000b	56		 push	 esi
  0000c	8b 75 10	 mov	 esi, DWORD PTR __Src$[ebp]
  0000f	6a 07		 push	 7
  00011	59		 pop	 ecx
  00012	f3 a5		 rep movsd
  00014	5e		 pop	 esi
$LN9@Cons_val@2:
  00015	5f		 pop	 edi

; 281  : 	}

  00016	5d		 pop	 ebp
  00017	c3		 ret	 0
??$_Cons_val@V?$allocator@UChangeDirInfo@@@std@@UChangeDirInfo@@ABU3@@std@@YAXAAV?$allocator@UChangeDirInfo@@@0@PAUChangeDirInfo@@ABU2@@Z ENDP ; std::_Cons_val<std::allocator<ChangeDirInfo>,ChangeDirInfo,ChangeDirInfo const &>
_TEXT	ENDS
PUBLIC	??$_Move@PAUChangeDirInfo@@PAU1@@std@@YAPAUChangeDirInfo@@PAU1@00@Z ; std::_Move<ChangeDirInfo *,ChangeDirInfo *>
; Function compile flags: /Ogsp
; File c:\program files (x86)\microsoft visual studio 10.0\vc\include\xutility
;	COMDAT ??$_Move@PAUChangeDirInfo@@PAU1@@std@@YAPAUChangeDirInfo@@PAU1@00@Z
_TEXT	SEGMENT
__Cat$538214 = -4					; size = 1
__First$ = 8						; size = 4
__Last$ = 12						; size = 4
__Dest$ = 16						; size = 4
??$_Move@PAUChangeDirInfo@@PAU1@@std@@YAPAUChangeDirInfo@@PAU1@00@Z PROC ; std::_Move<ChangeDirInfo *,ChangeDirInfo *>, COMDAT

; 2533 : 	{	// move [_First, _Last) to [_Dest, ...), unchecked

  00000	55		 push	 ebp
  00001	8b ec		 mov	 ebp, esp
  00003	51		 push	 ecx

; 2534 : 	return (_Move(_First, _Last,
; 2535 : 		_Dest, _Ptr_cat(_First, _Dest)));

  00004	ff 75 fc	 push	 DWORD PTR __Cat$538214[ebp]
  00007	ff 75 10	 push	 DWORD PTR __Dest$[ebp]
  0000a	ff 75 0c	 push	 DWORD PTR __Last$[ebp]
  0000d	ff 75 08	 push	 DWORD PTR __First$[ebp]
  00010	e8 00 00 00 00	 call	 ??$_Move@PAUChangeDirInfo@@PAU1@@std@@YAPAUChangeDirInfo@@PAU1@00U_Nonscalar_ptr_iterator_tag@0@@Z ; std::_Move<ChangeDirInfo *,ChangeDirInfo *>
  00015	83 c4 10	 add	 esp, 16			; 00000010H

; 2536 : 	}

  00018	c9		 leave
  00019	c3		 ret	 0
??$_Move@PAUChangeDirInfo@@PAU1@@std@@YAPAUChangeDirInfo@@PAU1@00@Z ENDP ; std::_Move<ChangeDirInfo *,ChangeDirInfo *>
_TEXT	ENDS
PUBLIC	?construct@?$allocator@UBuffInfoStruct@@@std@@QAEXPAUBuffInfoStruct@@ABU3@@Z ; std::allocator<BuffInfoStruct>::construct
; Function compile flags: /Ogsp
; File c:\program files (x86)\microsoft visual studio 10.0\vc\include\xmemory
;	COMDAT ?construct@?$allocator@UBuffInfoStruct@@@std@@QAEXPAUBuffInfoStruct@@ABU3@@Z
_TEXT	SEGMENT
__Ptr$ = 8						; size = 4
__Val$ = 12						; size = 4
?construct@?$allocator@UBuffInfoStruct@@@std@@QAEXPAUBuffInfoStruct@@ABU3@@Z PROC ; std::allocator<BuffInfoStruct>::construct, COMDAT
; _this$ = ecx

; 196  : 		{	// construct object at _Ptr with value _Val

  00000	55		 push	 ebp
  00001	8b ec		 mov	 ebp, esp

; 197  : 		_Construct(_Ptr, _Val);

  00003	ff 75 0c	 push	 DWORD PTR __Val$[ebp]
  00006	ff 75 08	 push	 DWORD PTR __Ptr$[ebp]
  00009	e8 00 00 00 00	 call	 ??$_Construct@UBuffInfoStruct@@ABU1@@std@@YAXPAUBuffInfoStruct@@ABU1@@Z ; std::_Construct<BuffInfoStruct,BuffInfoStruct const &>
  0000e	59		 pop	 ecx
  0000f	59		 pop	 ecx

; 198  : 		}

  00010	5d		 pop	 ebp
  00011	c2 08 00	 ret	 8
?construct@?$allocator@UBuffInfoStruct@@@std@@QAEXPAUBuffInfoStruct@@ABU3@@Z ENDP ; std::allocator<BuffInfoStruct>::construct
_TEXT	ENDS
PUBLIC	??$_Dest_val@V?$allocator@UChangeDirInfo@@@std@@UChangeDirInfo@@@std@@YAXAAV?$allocator@UChangeDirInfo@@@0@PAUChangeDirInfo@@@Z ; std::_Dest_val<std::allocator<ChangeDirInfo>,ChangeDirInfo>
; Function compile flags: /Ogsp
;	COMDAT ??$_Dest_val@V?$allocator@UChangeDirInfo@@@std@@UChangeDirInfo@@@std@@YAXAAV?$allocator@UChangeDirInfo@@@0@PAUChangeDirInfo@@@Z
_TEXT	SEGMENT
__Alval$ = 8						; size = 4
__Pdest$ = 12						; size = 4
??$_Dest_val@V?$allocator@UChangeDirInfo@@@std@@UChangeDirInfo@@@std@@YAXAAV?$allocator@UChangeDirInfo@@@0@PAUChangeDirInfo@@@Z PROC ; std::_Dest_val<std::allocator<ChangeDirInfo>,ChangeDirInfo>, COMDAT

; 287  : 	_Alval.destroy(_Pdest);
; 288  : 	}

  00000	c3		 ret	 0
??$_Dest_val@V?$allocator@UChangeDirInfo@@@std@@UChangeDirInfo@@@std@@YAXAAV?$allocator@UChangeDirInfo@@@0@PAUChangeDirInfo@@@Z ENDP ; std::_Dest_val<std::allocator<ChangeDirInfo>,ChangeDirInfo>
_TEXT	ENDS
PUBLIC	??$iter_swap@PAUChangeDirInfo@@PAU1@@std@@YAXPAUChangeDirInfo@@0@Z ; std::iter_swap<ChangeDirInfo *,ChangeDirInfo *>
; Function compile flags: /Ogsp
; File c:\program files (x86)\microsoft visual studio 10.0\vc\include\xutility
;	COMDAT ??$iter_swap@PAUChangeDirInfo@@PAU1@@std@@YAXPAUChangeDirInfo@@0@Z
_TEXT	SEGMENT
__Left$ = 8						; size = 4
__Right$ = 12						; size = 4
??$iter_swap@PAUChangeDirInfo@@PAU1@@std@@YAXPAUChangeDirInfo@@0@Z PROC ; std::iter_swap<ChangeDirInfo *,ChangeDirInfo *>, COMDAT

; 2133 : 	{	// swap *_Left and *_Right

  00000	55		 push	 ebp
  00001	8b ec		 mov	 ebp, esp

; 2135 : 	}

  00003	5d		 pop	 ebp

; 2134 : 	swap(*_Left, *_Right);

  00004	e9 00 00 00 00	 jmp	 ??$swap@UChangeDirInfo@@@std@@YAXAAUChangeDirInfo@@0@Z ; std::swap<ChangeDirInfo>
??$iter_swap@PAUChangeDirInfo@@PAU1@@std@@YAXPAUChangeDirInfo@@0@Z ENDP ; std::iter_swap<ChangeDirInfo *,ChangeDirInfo *>
_TEXT	ENDS
PUBLIC	??$_Insertion_sort1@PAUChangeDirInfo@@VChangeDirSort@@U1@@std@@YAXPAUChangeDirInfo@@0VChangeDirSort@@0@Z ; std::_Insertion_sort1<ChangeDirInfo *,ChangeDirSort,ChangeDirInfo>
; Function compile flags: /Ogsp
; File c:\program files (x86)\microsoft visual studio 10.0\vc\include\algorithm
;	COMDAT ??$_Insertion_sort1@PAUChangeDirInfo@@VChangeDirSort@@U1@@std@@YAXPAUChangeDirInfo@@0VChangeDirSort@@0@Z
_TEXT	SEGMENT
__Val$535466 = -32					; size = 28
__Next1$535465 = -4					; size = 4
__Cat$538257 = 8					; size = 1
__First$ = 8						; size = 4
__Last$ = 12						; size = 4
__Pred$ = 16						; size = 1
___formal$ = 20						; size = 4
??$_Insertion_sort1@PAUChangeDirInfo@@VChangeDirSort@@U1@@std@@YAXPAUChangeDirInfo@@0VChangeDirSort@@0@Z PROC ; std::_Insertion_sort1<ChangeDirInfo *,ChangeDirSort,ChangeDirInfo>, COMDAT

; 3650 : 	{	// insertion sort [_First, _Last), using _Pred

  00000	55		 push	 ebp
  00001	8b ec		 mov	 ebp, esp

; 3651 : 	if (_First != _Last)

  00003	8b 55 08	 mov	 edx, DWORD PTR __First$[ebp]
  00006	83 ec 20	 sub	 esp, 32			; 00000020H
  00009	3b 55 0c	 cmp	 edx, DWORD PTR __Last$[ebp]
  0000c	0f 84 e1 00 00
	00		 je	 $LN6@Insertion_

; 3652 : 		for (_BidIt _Next = _First; ++_Next != _Last; )

  00012	53		 push	 ebx
  00013	8d 5a 1c	 lea	 ebx, DWORD PTR [edx+28]
  00016	3b 5d 0c	 cmp	 ebx, DWORD PTR __Last$[ebp]
  00019	0f 84 d3 00 00
	00		 je	 $LN40@Insertion_
  0001f	56		 push	 esi
  00020	57		 push	 edi
  00021	eb 03		 jmp	 SHORT $LN7@Insertion_
$LL39@Insertion_:
  00023	8b 55 08	 mov	 edx, DWORD PTR __First$[ebp]
$LN7@Insertion_:

; 3653 : 			{	// order next element
; 3654 : 			_BidIt _Next1 = _Next;
; 3655 : 			_Ty _Val = _Move(*_Next);
; 3656 : 
; 3657 : 			if (_DEBUG_LT_PRED(_Pred, _Val, *_First))

  00026	f3 0f 10 02	 movss	 xmm0, DWORD PTR [edx]
  0002a	6a 07		 push	 7
  0002c	59		 pop	 ecx
  0002d	8b f3		 mov	 esi, ebx
  0002f	8d 7d e0	 lea	 edi, DWORD PTR __Val$535466[ebp]
  00032	f3 a5		 rep movsd
  00034	f3 0f 10 4d e0	 movss	 xmm1, DWORD PTR __Val$535466[ebp]
  00039	0f 5a d1	 cvtps2pd xmm2, xmm1
  0003c	0f 5a d8	 cvtps2pd xmm3, xmm0
  0003f	66 0f 2f da	 comisd	 xmm3, xmm2
  00043	89 5d fc	 mov	 DWORD PTR __Next1$535465[ebp], ebx
  00046	77 29		 ja	 SHORT $LN37@Insertion_
  00048	0f 57 d2	 xorps	 xmm2, xmm2
  0004b	0f 5a d1	 cvtps2pd xmm2, xmm1
  0004e	0f 5a c0	 cvtps2pd xmm0, xmm0
  00051	66 0f 2e d0	 ucomisd xmm2, xmm0
  00055	9f		 lahf
  00056	f6 c4 44	 test	 ah, 68			; 00000044H
  00059	7a 2c		 jp	 SHORT $LN5@Insertion_
  0005b	f3 0f 10 45 ec	 movss	 xmm0, DWORD PTR __Val$535466[ebp+12]
  00060	f3 0f 10 52 0c	 movss	 xmm2, DWORD PTR [edx+12]
  00065	0f 5a c0	 cvtps2pd xmm0, xmm0
  00068	0f 5a d2	 cvtps2pd xmm2, xmm2
  0006b	66 0f 2f d0	 comisd	 xmm2, xmm0
  0006f	76 16		 jbe	 SHORT $LN5@Insertion_
$LN37@Insertion_:

; 3658 : 				{	// found new earliest element, move to front
; 3659 : 				_Move_backward(_First, _Next, ++_Next1);

  00071	ff 75 08	 push	 DWORD PTR __Cat$538257[ebp]
  00074	8d 43 1c	 lea	 eax, DWORD PTR [ebx+28]
  00077	50		 push	 eax
  00078	53		 push	 ebx
  00079	52		 push	 edx
  0007a	e8 00 00 00 00	 call	 ??$_Move_backward@PAUChangeDirInfo@@PAU1@@std@@YAPAUChangeDirInfo@@PAU1@00U_Nonscalar_ptr_iterator_tag@0@@Z ; std::_Move_backward<ChangeDirInfo *,ChangeDirInfo *>

; 3660 : 				*_First = _Move(_Val);

  0007f	8b 7d 08	 mov	 edi, DWORD PTR __First$[ebp]
  00082	83 c4 10	 add	 esp, 16			; 00000010H

; 3661 : 				}
; 3662 : 			else

  00085	eb 55		 jmp	 SHORT $LN42@Insertion_
$LN5@Insertion_:

; 3663 : 				{	// look for insertion point after first
; 3664 : 				for (_BidIt _First1 = _Next1;

  00087	8b d3		 mov	 edx, ebx
$LL3@Insertion_:

; 3665 : 					_DEBUG_LT_PRED(_Pred, _Val, *--_First1);
; 3666 : 					_Next1 = _First1)

  00089	83 ea 1c	 sub	 edx, 28			; 0000001cH
  0008c	f3 0f 10 02	 movss	 xmm0, DWORD PTR [edx]
  00090	0f 57 d2	 xorps	 xmm2, xmm2
  00093	f3 0f 5a d1	 cvtss2sd xmm2, xmm1
  00097	0f 5a d8	 cvtps2pd xmm3, xmm0
  0009a	66 0f 2f da	 comisd	 xmm3, xmm2
  0009e	77 2a		 ja	 SHORT $LN38@Insertion_
  000a0	0f 57 d2	 xorps	 xmm2, xmm2
  000a3	f3 0f 5a d1	 cvtss2sd xmm2, xmm1
  000a7	0f 5a c0	 cvtps2pd xmm0, xmm0
  000aa	66 0f 2e d0	 ucomisd xmm2, xmm0
  000ae	9f		 lahf
  000af	f6 c4 44	 test	 ah, 68			; 00000044H
  000b2	7a 25		 jp	 SHORT $LN25@Insertion_
  000b4	f3 0f 10 45 ec	 movss	 xmm0, DWORD PTR __Val$535466[ebp+12]
  000b9	f3 0f 10 52 0c	 movss	 xmm2, DWORD PTR [edx+12]
  000be	0f 5a c0	 cvtps2pd xmm0, xmm0
  000c1	0f 5a d2	 cvtps2pd xmm2, xmm2
  000c4	66 0f 2f d0	 comisd	 xmm2, xmm0
  000c8	76 0f		 jbe	 SHORT $LN25@Insertion_
$LN38@Insertion_:

; 3667 : 					*_Next1 = _Move(*_First1);	// move hole down

  000ca	8b 7d fc	 mov	 edi, DWORD PTR __Next1$535465[ebp]
  000cd	6a 07		 push	 7
  000cf	59		 pop	 ecx
  000d0	8b f2		 mov	 esi, edx
  000d2	f3 a5		 rep movsd
  000d4	89 55 fc	 mov	 DWORD PTR __Next1$535465[ebp], edx
  000d7	eb b0		 jmp	 SHORT $LL3@Insertion_

; 3665 : 					_DEBUG_LT_PRED(_Pred, _Val, *--_First1);
; 3666 : 					_Next1 = _First1)

$LN25@Insertion_:

; 3668 : 				*_Next1 = _Move(_Val);	// insert element in hole

  000d9	8b 7d fc	 mov	 edi, DWORD PTR __Next1$535465[ebp]
$LN42@Insertion_:
  000dc	6a 07		 push	 7
  000de	83 c3 1c	 add	 ebx, 28			; 0000001cH
  000e1	59		 pop	 ecx
  000e2	8d 75 e0	 lea	 esi, DWORD PTR __Val$535466[ebp]
  000e5	f3 a5		 rep movsd
  000e7	3b 5d 0c	 cmp	 ebx, DWORD PTR __Last$[ebp]
  000ea	0f 85 33 ff ff
	ff		 jne	 $LL39@Insertion_
  000f0	5f		 pop	 edi
  000f1	5e		 pop	 esi
$LN40@Insertion_:
  000f2	5b		 pop	 ebx
$LN6@Insertion_:

; 3669 : 				}
; 3670 : 			}
; 3671 : 	}

  000f3	c9		 leave
  000f4	c3		 ret	 0
??$_Insertion_sort1@PAUChangeDirInfo@@VChangeDirSort@@U1@@std@@YAXPAUChangeDirInfo@@0VChangeDirSort@@0@Z ENDP ; std::_Insertion_sort1<ChangeDirInfo *,ChangeDirSort,ChangeDirInfo>
_TEXT	ENDS
PUBLIC	??$_Cons_val@V?$allocator@UBuffInfoStruct@@@std@@UBuffInfoStruct@@U3@@std@@YAXAAV?$allocator@UBuffInfoStruct@@@0@PAUBuffInfoStruct@@$$QAU2@@Z ; std::_Cons_val<std::allocator<BuffInfoStruct>,BuffInfoStruct,BuffInfoStruct>
; Function compile flags: /Ogsp
; File c:\program files (x86)\microsoft visual studio 10.0\vc\include\xmemory
;	COMDAT ??$_Cons_val@V?$allocator@UBuffInfoStruct@@@std@@UBuffInfoStruct@@U3@@std@@YAXAAV?$allocator@UBuffInfoStruct@@@0@PAUBuffInfoStruct@@$$QAU2@@Z
_TEXT	SEGMENT
__Alval$ = 8						; size = 4
__Pdest$ = 12						; size = 4
__Src$ = 16						; size = 4
??$_Cons_val@V?$allocator@UBuffInfoStruct@@@std@@UBuffInfoStruct@@U3@@std@@YAXAAV?$allocator@UBuffInfoStruct@@@0@PAUBuffInfoStruct@@$$QAU2@@Z PROC ; std::_Cons_val<std::allocator<BuffInfoStruct>,BuffInfoStruct,BuffInfoStruct>, COMDAT

; 279  : 	{	// construct using allocator

  00000	55		 push	 ebp
  00001	8b ec		 mov	 ebp, esp

; 280  : 	_Alval.construct(_Pdest, _STD forward<_Ty2>(_Src));

  00003	ff 75 10	 push	 DWORD PTR __Src$[ebp]
  00006	8b 4d 08	 mov	 ecx, DWORD PTR __Alval$[ebp]
  00009	ff 75 0c	 push	 DWORD PTR __Pdest$[ebp]
  0000c	e8 00 00 00 00	 call	 ?construct@?$allocator@UBuffInfoStruct@@@std@@QAEXPAUBuffInfoStruct@@$$QAU3@@Z ; std::allocator<BuffInfoStruct>::construct

; 281  : 	}

  00011	5d		 pop	 ebp
  00012	c3		 ret	 0
??$_Cons_val@V?$allocator@UBuffInfoStruct@@@std@@UBuffInfoStruct@@U3@@std@@YAXAAV?$allocator@UBuffInfoStruct@@@0@PAUBuffInfoStruct@@$$QAU2@@Z ENDP ; std::_Cons_val<std::allocator<BuffInfoStruct>,BuffInfoStruct,BuffInfoStruct>
_TEXT	ENDS
PUBLIC	??$_Cons_val@V?$allocator@UChangeDirInfo@@@std@@UChangeDirInfo@@U3@@std@@YAXAAV?$allocator@UChangeDirInfo@@@0@PAUChangeDirInfo@@$$QAU2@@Z ; std::_Cons_val<std::allocator<ChangeDirInfo>,ChangeDirInfo,ChangeDirInfo>
; Function compile flags: /Ogsp
;	COMDAT ??$_Cons_val@V?$allocator@UChangeDirInfo@@@std@@UChangeDirInfo@@U3@@std@@YAXAAV?$allocator@UChangeDirInfo@@@0@PAUChangeDirInfo@@$$QAU2@@Z
_TEXT	SEGMENT
__Alval$ = 8						; size = 4
__Pdest$ = 12						; size = 4
__Src$ = 16						; size = 4
??$_Cons_val@V?$allocator@UChangeDirInfo@@@std@@UChangeDirInfo@@U3@@std@@YAXAAV?$allocator@UChangeDirInfo@@@0@PAUChangeDirInfo@@$$QAU2@@Z PROC ; std::_Cons_val<std::allocator<ChangeDirInfo>,ChangeDirInfo,ChangeDirInfo>, COMDAT

; 279  : 	{	// construct using allocator

  00000	55		 push	 ebp
  00001	8b ec		 mov	 ebp, esp
  00003	57		 push	 edi

; 280  : 	_Alval.construct(_Pdest, _STD forward<_Ty2>(_Src));

  00004	8b 7d 0c	 mov	 edi, DWORD PTR __Pdest$[ebp]
  00007	85 ff		 test	 edi, edi
  00009	74 0a		 je	 SHORT $LN7@Cons_val@3
  0000b	56		 push	 esi
  0000c	8b 75 10	 mov	 esi, DWORD PTR __Src$[ebp]
  0000f	6a 07		 push	 7
  00011	59		 pop	 ecx
  00012	f3 a5		 rep movsd
  00014	5e		 pop	 esi
$LN7@Cons_val@3:
  00015	5f		 pop	 edi

; 281  : 	}

  00016	5d		 pop	 ebp
  00017	c3		 ret	 0
??$_Cons_val@V?$allocator@UChangeDirInfo@@@std@@UChangeDirInfo@@U3@@std@@YAXAAV?$allocator@UChangeDirInfo@@@0@PAUChangeDirInfo@@$$QAU2@@Z ENDP ; std::_Cons_val<std::allocator<ChangeDirInfo>,ChangeDirInfo,ChangeDirInfo>
_TEXT	ENDS
PUBLIC	??$_Med3@PAUChangeDirInfo@@VChangeDirSort@@@std@@YAXPAUChangeDirInfo@@00VChangeDirSort@@@Z ; std::_Med3<ChangeDirInfo *,ChangeDirSort>
; Function compile flags: /Ogsp
; File c:\program files (x86)\microsoft visual studio 10.0\vc\include\algorithm
;	COMDAT ??$_Med3@PAUChangeDirInfo@@VChangeDirSort@@@std@@YAXPAUChangeDirInfo@@00VChangeDirSort@@@Z
_TEXT	SEGMENT
__First$ = 8						; size = 4
__Mid$ = 12						; size = 4
__Last$ = 16						; size = 4
__Pred$ = 20						; size = 1
??$_Med3@PAUChangeDirInfo@@VChangeDirSort@@@std@@YAXPAUChangeDirInfo@@00VChangeDirSort@@@Z PROC ; std::_Med3<ChangeDirInfo *,ChangeDirSort>, COMDAT

; 3683 : 	{	// sort median of three elements to middle

  00000	55		 push	 ebp
  00001	8b ec		 mov	 ebp, esp
  00003	56		 push	 esi

; 3684 : 	if (_DEBUG_LT_PRED(_Pred, *_Mid, *_First))

  00004	8b 75 0c	 mov	 esi, DWORD PTR __Mid$[ebp]
  00007	f3 0f 10 06	 movss	 xmm0, DWORD PTR [esi]
  0000b	57		 push	 edi
  0000c	8b 7d 08	 mov	 edi, DWORD PTR __First$[ebp]
  0000f	f3 0f 10 0f	 movss	 xmm1, DWORD PTR [edi]
  00013	0f 5a d0	 cvtps2pd xmm2, xmm0
  00016	0f 5a d9	 cvtps2pd xmm3, xmm1
  00019	66 0f 2f da	 comisd	 xmm3, xmm2
  0001d	77 26		 ja	 SHORT $LN30@Med3
  0001f	0f 5a c0	 cvtps2pd xmm0, xmm0
  00022	0f 5a c9	 cvtps2pd xmm1, xmm1
  00025	66 0f 2e c1	 ucomisd xmm0, xmm1
  00029	9f		 lahf
  0002a	f6 c4 44	 test	 ah, 68			; 00000044H
  0002d	7a 1f		 jp	 SHORT $LN12@Med3
  0002f	f3 0f 10 46 0c	 movss	 xmm0, DWORD PTR [esi+12]
  00034	f3 0f 10 4f 0c	 movss	 xmm1, DWORD PTR [edi+12]
  00039	0f 5a c0	 cvtps2pd xmm0, xmm0
  0003c	0f 5a c9	 cvtps2pd xmm1, xmm1
  0003f	66 0f 2f c8	 comisd	 xmm1, xmm0
  00043	76 09		 jbe	 SHORT $LN12@Med3
$LN30@Med3:

; 3685 : 		_STD iter_swap(_Mid, _First);

  00045	57		 push	 edi
  00046	56		 push	 esi
  00047	e8 00 00 00 00	 call	 ??$swap@UChangeDirInfo@@@std@@YAXAAUChangeDirInfo@@0@Z ; std::swap<ChangeDirInfo>
  0004c	59		 pop	 ecx
  0004d	59		 pop	 ecx
$LN12@Med3:

; 3686 : 	if (_DEBUG_LT_PRED(_Pred, *_Last, *_Mid))

  0004e	8b 4d 10	 mov	 ecx, DWORD PTR __Last$[ebp]
  00051	f3 0f 10 01	 movss	 xmm0, DWORD PTR [ecx]
  00055	f3 0f 10 0e	 movss	 xmm1, DWORD PTR [esi]
  00059	0f 5a d0	 cvtps2pd xmm2, xmm0
  0005c	0f 5a d9	 cvtps2pd xmm3, xmm1
  0005f	66 0f 2f da	 comisd	 xmm3, xmm2
  00063	77 26		 ja	 SHORT $LN31@Med3
  00065	0f 5a c0	 cvtps2pd xmm0, xmm0
  00068	0f 5a c9	 cvtps2pd xmm1, xmm1
  0006b	66 0f 2e c1	 ucomisd xmm0, xmm1
  0006f	9f		 lahf
  00070	f6 c4 44	 test	 ah, 68			; 00000044H
  00073	7a 1f		 jp	 SHORT $LN20@Med3
  00075	f3 0f 10 41 0c	 movss	 xmm0, DWORD PTR [ecx+12]
  0007a	f3 0f 10 4e 0c	 movss	 xmm1, DWORD PTR [esi+12]
  0007f	0f 5a c0	 cvtps2pd xmm0, xmm0
  00082	0f 5a c9	 cvtps2pd xmm1, xmm1
  00085	66 0f 2f c8	 comisd	 xmm1, xmm0
  00089	76 09		 jbe	 SHORT $LN20@Med3
$LN31@Med3:

; 3687 : 		_STD iter_swap(_Last, _Mid);

  0008b	56		 push	 esi
  0008c	51		 push	 ecx
  0008d	e8 00 00 00 00	 call	 ??$swap@UChangeDirInfo@@@std@@YAXAAUChangeDirInfo@@0@Z ; std::swap<ChangeDirInfo>
  00092	59		 pop	 ecx
  00093	59		 pop	 ecx
$LN20@Med3:

; 3688 : 	if (_DEBUG_LT_PRED(_Pred, *_Mid, *_First))

  00094	f3 0f 10 06	 movss	 xmm0, DWORD PTR [esi]
  00098	f3 0f 10 0f	 movss	 xmm1, DWORD PTR [edi]
  0009c	0f 5a d0	 cvtps2pd xmm2, xmm0
  0009f	0f 5a d9	 cvtps2pd xmm3, xmm1
  000a2	66 0f 2f da	 comisd	 xmm3, xmm2
  000a6	77 26		 ja	 SHORT $LN32@Med3
  000a8	0f 5a c0	 cvtps2pd xmm0, xmm0
  000ab	0f 5a c9	 cvtps2pd xmm1, xmm1
  000ae	66 0f 2e c1	 ucomisd xmm0, xmm1
  000b2	9f		 lahf
  000b3	f6 c4 44	 test	 ah, 68			; 00000044H
  000b6	7a 1f		 jp	 SHORT $LN28@Med3
  000b8	f3 0f 10 46 0c	 movss	 xmm0, DWORD PTR [esi+12]
  000bd	f3 0f 10 4f 0c	 movss	 xmm1, DWORD PTR [edi+12]
  000c2	0f 5a c0	 cvtps2pd xmm0, xmm0
  000c5	0f 5a c9	 cvtps2pd xmm1, xmm1
  000c8	66 0f 2f c8	 comisd	 xmm1, xmm0
  000cc	76 09		 jbe	 SHORT $LN28@Med3
$LN32@Med3:

; 3689 : 		_STD iter_swap(_Mid, _First);

  000ce	57		 push	 edi
  000cf	56		 push	 esi
  000d0	e8 00 00 00 00	 call	 ??$swap@UChangeDirInfo@@@std@@YAXAAUChangeDirInfo@@0@Z ; std::swap<ChangeDirInfo>
  000d5	59		 pop	 ecx
  000d6	59		 pop	 ecx
$LN28@Med3:
  000d7	5f		 pop	 edi
  000d8	5e		 pop	 esi

; 3690 : 	}

  000d9	5d		 pop	 ebp
  000da	c3		 ret	 0
??$_Med3@PAUChangeDirInfo@@VChangeDirSort@@@std@@YAXPAUChangeDirInfo@@00VChangeDirSort@@@Z ENDP ; std::_Med3<ChangeDirInfo *,ChangeDirSort>
_TEXT	ENDS
PUBLIC	??$_Adjust_heap@PAUChangeDirInfo@@HU1@VChangeDirSort@@@std@@YAXPAUChangeDirInfo@@HH$$QAU1@VChangeDirSort@@@Z ; std::_Adjust_heap<ChangeDirInfo *,int,ChangeDirInfo,ChangeDirSort>
; Function compile flags: /Ogsp
;	COMDAT ??$_Adjust_heap@PAUChangeDirInfo@@HU1@VChangeDirSort@@@std@@YAXPAUChangeDirInfo@@HH$$QAU1@VChangeDirSort@@@Z
_TEXT	SEGMENT
__First$ = 8						; size = 4
__Top$ = 12						; size = 4
__Hole$ = 12						; size = 4
__Bottom$ = 16						; size = 4
__Val$ = 20						; size = 4
__Pred$ = 24						; size = 1
??$_Adjust_heap@PAUChangeDirInfo@@HU1@VChangeDirSort@@@std@@YAXPAUChangeDirInfo@@HH$$QAU1@VChangeDirSort@@@Z PROC ; std::_Adjust_heap<ChangeDirInfo *,int,ChangeDirInfo,ChangeDirSort>, COMDAT

; 2565 : 	{	// percolate _Hole to _Bottom, then push _Val, using _Pred

  00000	55		 push	 ebp
  00001	8b ec		 mov	 ebp, esp
  00003	53		 push	 ebx

; 2566 : 	_Diff _Top = _Hole;
; 2567 : 	_Diff _Idx = 2 * _Hole + 2;
; 2568 : 
; 2569 : 	for (; _Idx < _Bottom; _Idx = 2 * _Idx + 2)

  00004	8b 5d 08	 mov	 ebx, DWORD PTR __First$[ebp]
  00007	56		 push	 esi
  00008	57		 push	 edi
  00009	8b 7d 0c	 mov	 edi, DWORD PTR __Hole$[ebp]
  0000c	89 7d 0c	 mov	 DWORD PTR __Top$[ebp], edi
  0000f	8d 54 3f 02	 lea	 edx, DWORD PTR [edi+edi+2]
  00013	eb 5a		 jmp	 SHORT $LN25@Adjust_hea
$LL5@Adjust_hea:

; 2570 : 		{	// move _Hole down to larger child
; 2571 : 		if (_DEBUG_LT_PRED(_Pred, *(_First + _Idx), *(_First + (_Idx - 1))))

  00015	8b ca		 mov	 ecx, edx
  00017	6b c9 1c	 imul	 ecx, 28			; 0000001cH
  0001a	03 cb		 add	 ecx, ebx
  0001c	f3 0f 10 01	 movss	 xmm0, DWORD PTR [ecx]
  00020	f3 0f 10 49 e4	 movss	 xmm1, DWORD PTR [ecx-28]
  00025	0f 5a d0	 cvtps2pd xmm2, xmm0
  00028	0f 5a d9	 cvtps2pd xmm3, xmm1
  0002b	66 0f 2f da	 comisd	 xmm3, xmm2
  0002f	77 26		 ja	 SHORT $LN22@Adjust_hea
  00031	0f 5a c0	 cvtps2pd xmm0, xmm0
  00034	0f 5a c9	 cvtps2pd xmm1, xmm1
  00037	66 0f 2e c1	 ucomisd xmm0, xmm1
  0003b	9f		 lahf
  0003c	f6 c4 44	 test	 ah, 68			; 00000044H
  0003f	7a 17		 jp	 SHORT $LN23@Adjust_hea
  00041	f3 0f 10 41 0c	 movss	 xmm0, DWORD PTR [ecx+12]
  00046	f3 0f 10 49 f0	 movss	 xmm1, DWORD PTR [ecx-16]
  0004b	0f 5a c0	 cvtps2pd xmm0, xmm0
  0004e	0f 5a c9	 cvtps2pd xmm1, xmm1
  00051	66 0f 2f c8	 comisd	 xmm1, xmm0
  00055	76 01		 jbe	 SHORT $LN23@Adjust_hea
$LN22@Adjust_hea:

; 2572 : 			--_Idx;

  00057	4a		 dec	 edx
$LN23@Adjust_hea:

; 2573 : 		*(_First + _Hole) = _Move(*(_First + _Idx));

  00058	8b f2		 mov	 esi, edx
  0005a	6b ff 1c	 imul	 edi, 28			; 0000001cH
  0005d	6b f6 1c	 imul	 esi, 28			; 0000001cH
  00060	03 f3		 add	 esi, ebx
  00062	6a 07		 push	 7
  00064	03 fb		 add	 edi, ebx
  00066	59		 pop	 ecx
  00067	f3 a5		 rep movsd

; 2574 : 		_Hole = _Idx;

  00069	8b fa		 mov	 edi, edx
  0006b	8d 54 12 02	 lea	 edx, DWORD PTR [edx+edx+2]
$LN25@Adjust_hea:

; 2566 : 	_Diff _Top = _Hole;
; 2567 : 	_Diff _Idx = 2 * _Hole + 2;
; 2568 : 
; 2569 : 	for (; _Idx < _Bottom; _Idx = 2 * _Idx + 2)

  0006f	8b 45 10	 mov	 eax, DWORD PTR __Bottom$[ebp]
  00072	3b d0		 cmp	 edx, eax
  00074	7c 9f		 jl	 SHORT $LL5@Adjust_hea

; 2575 : 		}
; 2576 : 
; 2577 : 	if (_Idx == _Bottom)

  00076	75 16		 jne	 SHORT $LN1@Adjust_hea

; 2578 : 		{	// only child at bottom, move _Hole down to it
; 2579 : 		*(_First + _Hole) = _Move(*(_First + (_Bottom - 1)));

  00078	8b c8		 mov	 ecx, eax
  0007a	6b ff 1c	 imul	 edi, 28			; 0000001cH
  0007d	6b c9 1c	 imul	 ecx, 28			; 0000001cH
  00080	8d 74 19 e4	 lea	 esi, DWORD PTR [ecx+ebx-28]
  00084	6a 07		 push	 7
  00086	03 fb		 add	 edi, ebx
  00088	59		 pop	 ecx
  00089	f3 a5		 rep movsd

; 2580 : 		_Hole = _Bottom - 1;

  0008b	8d 78 ff	 lea	 edi, DWORD PTR [eax-1]
$LN1@Adjust_hea:

; 2581 : 		}
; 2582 : 	_Push_heap(_First, _Hole, _Top, _Move(_Val), _Pred);

  0008e	ff 75 18	 push	 DWORD PTR __Pred$[ebp]
  00091	ff 75 14	 push	 DWORD PTR __Val$[ebp]
  00094	ff 75 0c	 push	 DWORD PTR __Top$[ebp]
  00097	57		 push	 edi
  00098	53		 push	 ebx
  00099	e8 00 00 00 00	 call	 ??$_Push_heap@PAUChangeDirInfo@@HU1@VChangeDirSort@@@std@@YAXPAUChangeDirInfo@@HH$$QAU1@VChangeDirSort@@@Z ; std::_Push_heap<ChangeDirInfo *,int,ChangeDirInfo,ChangeDirSort>
  0009e	83 c4 14	 add	 esp, 20			; 00000014H
  000a1	5f		 pop	 edi
  000a2	5e		 pop	 esi
  000a3	5b		 pop	 ebx

; 2583 : 	}

  000a4	5d		 pop	 ebp
  000a5	c3		 ret	 0
??$_Adjust_heap@PAUChangeDirInfo@@HU1@VChangeDirSort@@@std@@YAXPAUChangeDirInfo@@HH$$QAU1@VChangeDirSort@@@Z ENDP ; std::_Adjust_heap<ChangeDirInfo *,int,ChangeDirInfo,ChangeDirSort>
_TEXT	ENDS
PUBLIC	??$_Pop_heap@PAUChangeDirInfo@@HU1@VChangeDirSort@@@std@@YAXPAUChangeDirInfo@@00$$QAU1@VChangeDirSort@@PAH@Z ; std::_Pop_heap<ChangeDirInfo *,int,ChangeDirInfo,ChangeDirSort>
; Function compile flags: /Ogsp
;	COMDAT ??$_Pop_heap@PAUChangeDirInfo@@HU1@VChangeDirSort@@@std@@YAXPAUChangeDirInfo@@00$$QAU1@VChangeDirSort@@PAH@Z
_TEXT	SEGMENT
__First$ = 8						; size = 4
__Last$ = 12						; size = 4
__Dest$ = 16						; size = 4
__Val$ = 20						; size = 4
__Pred$ = 24						; size = 1
___formal$ = 28						; size = 4
??$_Pop_heap@PAUChangeDirInfo@@HU1@VChangeDirSort@@@std@@YAXPAUChangeDirInfo@@00$$QAU1@VChangeDirSort@@PAH@Z PROC ; std::_Pop_heap<ChangeDirInfo *,int,ChangeDirInfo,ChangeDirSort>, COMDAT

; 2591 : 	{	// pop *_First to *_Dest and reheap, using _Pred

  00000	55		 push	 ebp
  00001	8b ec		 mov	 ebp, esp

; 2592 : 	*_Dest = _Move(*_First);
; 2593 : 	_Adjust_heap(_First, _Diff(0), _Diff(_Last - _First),
; 2594 : 		_Move(_Val), _Pred);

  00003	8b 45 0c	 mov	 eax, DWORD PTR __Last$[ebp]
  00006	2b 45 08	 sub	 eax, DWORD PTR __First$[ebp]
  00009	56		 push	 esi
  0000a	8b 75 08	 mov	 esi, DWORD PTR __First$[ebp]
  0000d	57		 push	 edi
  0000e	8b 7d 10	 mov	 edi, DWORD PTR __Dest$[ebp]
  00011	6a 07		 push	 7
  00013	59		 pop	 ecx
  00014	ff 75 18	 push	 DWORD PTR __Pred$[ebp]
  00017	f3 a5		 rep movsd
  00019	ff 75 14	 push	 DWORD PTR __Val$[ebp]
  0001c	99		 cdq
  0001d	6a 1c		 push	 28			; 0000001cH
  0001f	59		 pop	 ecx
  00020	f7 f9		 idiv	 ecx
  00022	50		 push	 eax
  00023	6a 00		 push	 0
  00025	ff 75 08	 push	 DWORD PTR __First$[ebp]
  00028	e8 00 00 00 00	 call	 ??$_Adjust_heap@PAUChangeDirInfo@@HU1@VChangeDirSort@@@std@@YAXPAUChangeDirInfo@@HH$$QAU1@VChangeDirSort@@@Z ; std::_Adjust_heap<ChangeDirInfo *,int,ChangeDirInfo,ChangeDirSort>
  0002d	83 c4 14	 add	 esp, 20			; 00000014H
  00030	5f		 pop	 edi
  00031	5e		 pop	 esi

; 2595 : 	}

  00032	5d		 pop	 ebp
  00033	c3		 ret	 0
??$_Pop_heap@PAUChangeDirInfo@@HU1@VChangeDirSort@@@std@@YAXPAUChangeDirInfo@@00$$QAU1@VChangeDirSort@@PAH@Z ENDP ; std::_Pop_heap<ChangeDirInfo *,int,ChangeDirInfo,ChangeDirSort>
_TEXT	ENDS
PUBLIC	?GetTeam@ioPlayEntity@@QBE?AW4TeamType@@XZ	; ioPlayEntity::GetTeam
; Function compile flags: /Ogsp
; File d:\lost saga for developer\youtube\tutorial\source\src\lsclient\ioplayentity.h
;	COMDAT ?GetTeam@ioPlayEntity@@QBE?AW4TeamType@@XZ
_TEXT	SEGMENT
_value$538392 = -4					; size = 4
?GetTeam@ioPlayEntity@@QBE?AW4TeamType@@XZ PROC		; ioPlayEntity::GetTeam, COMDAT
; _this$ = ecx

; 107  : 	inline TeamType GetTeam() const { return m_TeamType; }

  00000	55		 push	 ebp
  00001	8b ec		 mov	 ebp, esp
  00003	51		 push	 ecx
  00004	8d 45 fc	 lea	 eax, DWORD PTR _value$538392[ebp]
  00007	50		 push	 eax
  00008	81 c1 90 00 00
	00		 add	 ecx, 144		; 00000090H
  0000e	e8 00 00 00 00	 call	 ?DecryptValueToPool@?$CEncrypt@W4TeamType@@@@QAEXPAW4TeamType@@@Z ; CEncrypt<enum TeamType>::DecryptValueToPool
  00013	8b 45 fc	 mov	 eax, DWORD PTR _value$538392[ebp]
  00016	c9		 leave
  00017	c3		 ret	 0
?GetTeam@ioPlayEntity@@QBE?AW4TeamType@@XZ ENDP		; ioPlayEntity::GetTeam
_TEXT	ENDS
PUBLIC	??0?$vector@UBuffInfoStruct@@V?$allocator@UBuffInfoStruct@@@std@@@std@@QAE@XZ ; std::vector<BuffInfoStruct,std::allocator<BuffInfoStruct> >::vector<BuffInfoStruct,std::allocator<BuffInfoStruct> >
; Function compile flags: /Ogsp
; File c:\program files (x86)\microsoft visual studio 10.0\vc\include\vector
;	COMDAT ??0?$vector@UBuffInfoStruct@@V?$allocator@UBuffInfoStruct@@@std@@@std@@QAE@XZ
_TEXT	SEGMENT
??0?$vector@UBuffInfoStruct@@V?$allocator@UBuffInfoStruct@@@std@@@std@@QAE@XZ PROC ; std::vector<BuffInfoStruct,std::allocator<BuffInfoStruct> >::vector<BuffInfoStruct,std::allocator<BuffInfoStruct> >, COMDAT
; _this$ = ecx

; 507  : 		{	// construct empty vector

  00000	8b c1		 mov	 eax, ecx
  00002	33 c9		 xor	 ecx, ecx
  00004	89 08		 mov	 DWORD PTR [eax], ecx
  00006	89 48 04	 mov	 DWORD PTR [eax+4], ecx
  00009	89 48 08	 mov	 DWORD PTR [eax+8], ecx

; 508  : 		}

  0000c	c3		 ret	 0
??0?$vector@UBuffInfoStruct@@V?$allocator@UBuffInfoStruct@@@std@@@std@@QAE@XZ ENDP ; std::vector<BuffInfoStruct,std::allocator<BuffInfoStruct> >::vector<BuffInfoStruct,std::allocator<BuffInfoStruct> >
_TEXT	ENDS
PUBLIC	?destroy@?$allocator@UBuffInfoStruct@@@std@@QAEXPAUBuffInfoStruct@@@Z ; std::allocator<BuffInfoStruct>::destroy
; Function compile flags: /Ogsp
; File c:\program files (x86)\microsoft visual studio 10.0\vc\include\xmemory
;	COMDAT ?destroy@?$allocator@UBuffInfoStruct@@@std@@QAEXPAUBuffInfoStruct@@@Z
_TEXT	SEGMENT
__Ptr$ = 8						; size = 4
?destroy@?$allocator@UBuffInfoStruct@@@std@@QAEXPAUBuffInfoStruct@@@Z PROC ; std::allocator<BuffInfoStruct>::destroy, COMDAT
; _this$ = ecx

; 212  : 		{	// destroy object at _Ptr

  00000	55		 push	 ebp
  00001	8b ec		 mov	 ebp, esp

; 213  : 		_Destroy(_Ptr);

  00003	8b 4d 08	 mov	 ecx, DWORD PTR __Ptr$[ebp]
  00006	ff 15 00 00 00
	00		 call	 DWORD PTR __imp_??1ioHashString@@QAE@XZ

; 214  : 		}

  0000c	5d		 pop	 ebp
  0000d	c2 04 00	 ret	 4
?destroy@?$allocator@UBuffInfoStruct@@@std@@QAEXPAUBuffInfoStruct@@@Z ENDP ; std::allocator<BuffInfoStruct>::destroy
_TEXT	ENDS
PUBLIC	??$_Cons_val@V?$allocator@UBuffInfoStruct@@@std@@UBuffInfoStruct@@AAU3@@std@@YAXAAV?$allocator@UBuffInfoStruct@@@0@PAUBuffInfoStruct@@AAU2@@Z ; std::_Cons_val<std::allocator<BuffInfoStruct>,BuffInfoStruct,BuffInfoStruct &>
; Function compile flags: /Ogsp
;	COMDAT ??$_Cons_val@V?$allocator@UBuffInfoStruct@@@std@@UBuffInfoStruct@@AAU3@@std@@YAXAAV?$allocator@UBuffInfoStruct@@@0@PAUBuffInfoStruct@@AAU2@@Z
_TEXT	SEGMENT
__Alval$ = 8						; size = 4
__Pdest$ = 12						; size = 4
__Src$ = 16						; size = 4
??$_Cons_val@V?$allocator@UBuffInfoStruct@@@std@@UBuffInfoStruct@@AAU3@@std@@YAXAAV?$allocator@UBuffInfoStruct@@@0@PAUBuffInfoStruct@@AAU2@@Z PROC ; std::_Cons_val<std::allocator<BuffInfoStruct>,BuffInfoStruct,BuffInfoStruct &>, COMDAT

; 279  : 	{	// construct using allocator

  00000	55		 push	 ebp
  00001	8b ec		 mov	 ebp, esp

; 280  : 	_Alval.construct(_Pdest, _STD forward<_Ty2>(_Src));

  00003	ff 75 10	 push	 DWORD PTR __Src$[ebp]
  00006	8b 4d 08	 mov	 ecx, DWORD PTR __Alval$[ebp]
  00009	ff 75 0c	 push	 DWORD PTR __Pdest$[ebp]
  0000c	e8 00 00 00 00	 call	 ??$construct@AAUBuffInfoStruct@@@?$allocator@UBuffInfoStruct@@@std@@QAEXPAUBuffInfoStruct@@AAU2@@Z ; std::allocator<BuffInfoStruct>::construct<BuffInfoStruct &>

; 281  : 	}

  00011	5d		 pop	 ebp
  00012	c3		 ret	 0
??$_Cons_val@V?$allocator@UBuffInfoStruct@@@std@@UBuffInfoStruct@@AAU3@@std@@YAXAAV?$allocator@UBuffInfoStruct@@@0@PAUBuffInfoStruct@@AAU2@@Z ENDP ; std::_Cons_val<std::allocator<BuffInfoStruct>,BuffInfoStruct,BuffInfoStruct &>
_TEXT	ENDS
PUBLIC	?InitResource@ioAdhesiveMissileWeapon3@@UAE_NXZ	; ioAdhesiveMissileWeapon3::InitResource
EXTRN	?InitResource@ioWeapon@@UAE_NXZ:PROC		; ioWeapon::InitResource
; Function compile flags: /Ogsp
; File d:\lost saga for developer\youtube\tutorial\source\src\lsclient\ioadhesivemissileweapon3.cpp
;	COMDAT ?InitResource@ioAdhesiveMissileWeapon3@@UAE_NXZ
_TEXT	SEGMENT
?InitResource@ioAdhesiveMissileWeapon3@@UAE_NXZ PROC	; ioAdhesiveMissileWeapon3::InitResource, COMDAT
; _this$ = ecx

; 49   : {

  00000	56		 push	 esi
  00001	8b f1		 mov	 esi, ecx

; 50   : 	if( ioWeapon::InitResource() )

  00003	e8 00 00 00 00	 call	 ?InitResource@ioWeapon@@UAE_NXZ ; ioWeapon::InitResource
  00008	84 c0		 test	 al, al
  0000a	74 20		 je	 SHORT $LN1@InitResour

; 51   : 	{
; 52   : 		DestroyFireBall();

  0000c	8b ce		 mov	 ecx, esi
  0000e	e8 00 00 00 00	 call	 ?DestroyFireBall@ioAdhesiveMissileWeapon3@@IAEXXZ ; ioAdhesiveMissileWeapon3::DestroyFireBall

; 53   : 		return CreateFireBall( GetAttribute()->m_WeaponEffect );

  00013	8b 06		 mov	 eax, DWORD PTR [esi]
  00015	8b ce		 mov	 ecx, esi
  00017	ff 90 3c 01 00
	00		 call	 DWORD PTR [eax+316]
  0001d	05 34 01 00 00	 add	 eax, 308		; 00000134H
  00022	50		 push	 eax
  00023	8b ce		 mov	 ecx, esi
  00025	e8 00 00 00 00	 call	 ?CreateFireBall@ioAdhesiveMissileWeapon3@@IAE_NABVioHashString@@@Z ; ioAdhesiveMissileWeapon3::CreateFireBall
  0002a	5e		 pop	 esi

; 56   : }

  0002b	c3		 ret	 0
$LN1@InitResour:

; 54   : 	}
; 55   : 	return false;

  0002c	32 c0		 xor	 al, al
  0002e	5e		 pop	 esi

; 56   : }

  0002f	c3		 ret	 0
?InitResource@ioAdhesiveMissileWeapon3@@UAE_NXZ ENDP	; ioAdhesiveMissileWeapon3::InitResource
_TEXT	ENDS
PUBLIC	_pShapeWorldMat$GSCopy$
PUBLIC	_pStage$GSCopy$
PUBLIC	__$ArrayPad$
PUBLIC	?TestMapCollision@ioAdhesiveMissileWeapon3@@UAE_NPAVioOpcodeShape@@PAVioPlayStage@@PBUD3DXMATRIX@@@Z ; ioAdhesiveMissileWeapon3::TestMapCollision
EXTRN	??1SP2Packet@@UAE@XZ:PROC			; SP2Packet::~SP2Packet
EXTRN	?SendToAllPlayingUser@P2PNetwork@@YAXAAVSP2Packet@@PAVioBaseChar@@@Z:PROC ; P2PNetwork::SendToAllPlayingUser
EXTRN	??6SP2Packet@@QAEAAV0@H@Z:PROC			; SP2Packet::operator<<
EXTRN	??6SP2Packet@@QAEAAV0@K@Z:PROC			; SP2Packet::operator<<
EXTRN	??6SP2Packet@@QAEAAV0@ABVioHashString@@@Z:PROC	; SP2Packet::operator<<
EXTRN	??0SP2Packet@@QAE@K@Z:PROC			; SP2Packet::SP2Packet
EXTRN	__chkstk:PROC
;	COMDAT xdata$x
; File d:\lost saga for developer\youtube\tutorial\source\src\lsclient\ioweapon.h
xdata$x	SEGMENT
__unwindtable$?TestMapCollision@ioAdhesiveMissileWeapon3@@UAE_NPAVioOpcodeShape@@PAVioPlayStage@@PBUD3DXMATRIX@@@Z DD 0ffffffffH
	DD	FLAT:__unwindfunclet$?TestMapCollision@ioAdhesiveMissileWeapon3@@UAE_NPAVioOpcodeShape@@PAVioPlayStage@@PBUD3DXMATRIX@@@Z$0
__ehfuncinfo$?TestMapCollision@ioAdhesiveMissileWeapon3@@UAE_NPAVioOpcodeShape@@PAVioPlayStage@@PBUD3DXMATRIX@@@Z DD 019930522H
	DD	01H
	DD	FLAT:__unwindtable$?TestMapCollision@ioAdhesiveMissileWeapon3@@UAE_NPAVioOpcodeShape@@PAVioPlayStage@@PBUD3DXMATRIX@@@Z
	DD	2 DUP(00H)
	DD	2 DUP(00H)
	DD	00H
	DD	01H
; Function compile flags: /Ogsp
; File d:\lost saga for developer\youtube\tutorial\source\src\lsclient\ioadhesivemissileweapon3.cpp
xdata$x	ENDS
;	COMDAT ?TestMapCollision@ioAdhesiveMissileWeapon3@@UAE_NPAVioOpcodeShape@@PAVioPlayStage@@PBUD3DXMATRIX@@@Z
_TEXT	SEGMENT
_pShapeWorldMat$GSCopy$ = -32816			; size = 4
_pStage$GSCopy$ = -32812				; size = 4
_kPacket$532423 = -32808				; size = 32792
__$ArrayPad$ = -16					; size = 4
__$EHRec$ = -12						; size = 12
_pShape$ = 8						; size = 4
_pStage$ = 12						; size = 4
_pShapeWorldMat$ = 16					; size = 4
?TestMapCollision@ioAdhesiveMissileWeapon3@@UAE_NPAVioOpcodeShape@@PAVioPlayStage@@PBUD3DXMATRIX@@@Z PROC ; ioAdhesiveMissileWeapon3::TestMapCollision, COMDAT
; _this$ = ecx

; 226  : {

  00000	55		 push	 ebp
  00001	8b ec		 mov	 ebp, esp
  00003	6a ff		 push	 -1
  00005	68 00 00 00 00	 push	 __ehhandler$?TestMapCollision@ioAdhesiveMissileWeapon3@@UAE_NPAVioOpcodeShape@@PAVioPlayStage@@PBUD3DXMATRIX@@@Z
  0000a	64 a1 00 00 00
	00		 mov	 eax, DWORD PTR fs:0
  00010	50		 push	 eax
  00011	b8 24 80 00 00	 mov	 eax, 32804		; 00008024H
  00016	e8 00 00 00 00	 call	 __chkstk
  0001b	a1 00 00 00 00	 mov	 eax, DWORD PTR ___security_cookie
  00020	33 c5		 xor	 eax, ebp
  00022	89 45 f0	 mov	 DWORD PTR __$ArrayPad$[ebp], eax
  00025	53		 push	 ebx
  00026	56		 push	 esi
  00027	57		 push	 edi
  00028	50		 push	 eax
  00029	8d 45 f4	 lea	 eax, DWORD PTR __$EHRec$[ebp]
  0002c	64 a3 00 00 00
	00		 mov	 DWORD PTR fs:0, eax
  00032	8b 45 0c	 mov	 eax, DWORD PTR _pStage$[ebp]
  00035	8b 7d 08	 mov	 edi, DWORD PTR _pShape$[ebp]
  00038	8b f1		 mov	 esi, ecx

; 227  : 	//pShape        TRUE
; 228  : 	//     1   N   TestMapCollision()   
; 229  : 
; 230  : 	if( !m_bCollisionMap )

  0003a	80 be 9e 09 00
	00 00		 cmp	 BYTE PTR [esi+2462], 0

; 234  : 	{
; 235  : 		if( pShape->TestIntersection( pShapeWorldMat, GetWorldAttackBox(true) ) )

  00041	89 85 d4 7f ff
	ff		 mov	 DWORD PTR _pStage$GSCopy$[ebp], eax
  00047	8b 45 10	 mov	 eax, DWORD PTR _pShapeWorldMat$[ebp]
  0004a	89 85 d0 7f ff
	ff		 mov	 DWORD PTR _pShapeWorldMat$GSCopy$[ebp], eax
  00050	75 07		 jne	 SHORT $LN4@TestMapCol
$LN11@TestMapCol:

; 231  : 		return true;

  00052	b0 01		 mov	 al, 1
  00054	e9 c5 00 00 00	 jmp	 $LN5@TestMapCol
$LN4@TestMapCol:

; 232  : 
; 233  : 	if( GetOwner()->IsNeedProcess() )

  00059	e8 00 00 00 00	 call	 ?GetOwner@ioWeapon@@QBEPAVioBaseChar@@XZ ; ioWeapon::GetOwner
  0005e	8b 10		 mov	 edx, DWORD PTR [eax]
  00060	8b c8		 mov	 ecx, eax
  00062	ff 92 00 01 00
	00		 call	 DWORD PTR [edx+256]
  00068	84 c0		 test	 al, al
  0006a	0f 84 ac 00 00
	00		 je	 $LN2@TestMapCol

; 234  : 	{
; 235  : 		if( pShape->TestIntersection( pShapeWorldMat, GetWorldAttackBox(true) ) )

  00070	8b 1f		 mov	 ebx, DWORD PTR [edi]
  00072	6a 01		 push	 1
  00074	8b ce		 mov	 ecx, esi
  00076	e8 00 00 00 00	 call	 ?GetWorldAttackBox@ioWeapon@@QBEABVioOrientBox@@_N@Z ; ioWeapon::GetWorldAttackBox
  0007b	50		 push	 eax
  0007c	ff b5 d0 7f ff
	ff		 push	 DWORD PTR _pShapeWorldMat$GSCopy$[ebp]
  00082	8b cf		 mov	 ecx, edi
  00084	ff 53 24	 call	 DWORD PTR [ebx+36]
  00087	84 c0		 test	 al, al
  00089	0f 84 8d 00 00
	00		 je	 $LN2@TestMapCol

; 236  : 		{
; 237  : 			if( GetOwner()->IsNeedSendNetwork() )

  0008f	8b ce		 mov	 ecx, esi
  00091	e8 00 00 00 00	 call	 ?GetOwner@ioWeapon@@QBEPAVioBaseChar@@XZ ; ioWeapon::GetOwner
  00096	8b 10		 mov	 edx, DWORD PTR [eax]
  00098	8b c8		 mov	 ecx, eax
  0009a	ff 92 04 01 00
	00		 call	 DWORD PTR [edx+260]
  000a0	84 c0		 test	 al, al
  000a2	74 5f		 je	 SHORT $LN1@TestMapCol

; 238  : 			{
; 239  : 				SP2Packet kPacket( CUPK_WEAPON_SYNC );			

  000a4	68 16 42 00 00	 push	 16918			; 00004216H
  000a9	8d 8d d8 7f ff
	ff		 lea	 ecx, DWORD PTR _kPacket$532423[ebp]
  000af	e8 00 00 00 00	 call	 ??0SP2Packet@@QAE@K@Z	; SP2Packet::SP2Packet

; 240  : 				kPacket << GetOwnerName();

  000b4	8d 46 10	 lea	 eax, DWORD PTR [esi+16]
  000b7	33 ff		 xor	 edi, edi
  000b9	50		 push	 eax
  000ba	8d 8d d8 7f ff
	ff		 lea	 ecx, DWORD PTR _kPacket$532423[ebp]
  000c0	89 7d fc	 mov	 DWORD PTR __$EHRec$[ebp+8], edi
  000c3	e8 00 00 00 00	 call	 ??6SP2Packet@@QAEAAV0@ABVioHashString@@@Z ; SP2Packet::operator<<

; 241  : 				kPacket << m_dwWeaponIdx;

  000c8	ff b6 b8 04 00
	00		 push	 DWORD PTR [esi+1208]
  000ce	8d 8d d8 7f ff
	ff		 lea	 ecx, DWORD PTR _kPacket$532423[ebp]
  000d4	e8 00 00 00 00	 call	 ??6SP2Packet@@QAEAAV0@K@Z ; SP2Packet::operator<<

; 242  : 				kPacket << STC_TEST_MAP_COLLISION;

  000d9	57		 push	 edi
  000da	8d 8d d8 7f ff
	ff		 lea	 ecx, DWORD PTR _kPacket$532423[ebp]
  000e0	e8 00 00 00 00	 call	 ??6SP2Packet@@QAEAAV0@H@Z ; SP2Packet::operator<<

; 243  : 				P2PNetwork::SendToAllPlayingUser( kPacket );

  000e5	8d 85 d8 7f ff
	ff		 lea	 eax, DWORD PTR _kPacket$532423[ebp]
  000eb	57		 push	 edi
  000ec	50		 push	 eax
  000ed	e8 00 00 00 00	 call	 ?SendToAllPlayingUser@P2PNetwork@@YAXAAVSP2Packet@@PAVioBaseChar@@@Z ; P2PNetwork::SendToAllPlayingUser

; 244  : 			}

  000f2	83 4d fc ff	 or	 DWORD PTR __$EHRec$[ebp+8], -1
  000f6	59		 pop	 ecx
  000f7	59		 pop	 ecx
  000f8	8d 8d d8 7f ff
	ff		 lea	 ecx, DWORD PTR _kPacket$532423[ebp]
  000fe	e8 00 00 00 00	 call	 ??1SP2Packet@@UAE@XZ	; SP2Packet::~SP2Packet
$LN1@TestMapCol:

; 245  : 
; 246  : 			CallAttribute();

  00103	8b ce		 mov	 ecx, esi
  00105	e8 00 00 00 00	 call	 ?CallAttribute@ioAdhesiveMissileWeapon3@@IAEXXZ ; ioAdhesiveMissileWeapon3::CallAttribute

; 247  : 			Explosion( pStage );

  0010a	ff b5 d4 7f ff
	ff		 push	 DWORD PTR _pStage$GSCopy$[ebp]
  00110	8b ce		 mov	 ecx, esi
  00112	e8 00 00 00 00	 call	 ?Explosion@ioAdhesiveMissileWeapon3@@QAEXPAVioPlayStage@@@Z ; ioAdhesiveMissileWeapon3::Explosion

; 248  : 			return true;

  00117	e9 36 ff ff ff	 jmp	 $LN11@TestMapCol
$LN2@TestMapCol:

; 249  : 		}
; 250  : 	}
; 251  : 
; 252  : 	return false;

  0011c	32 c0		 xor	 al, al
$LN5@TestMapCol:

; 253  : }

  0011e	8b 4d f4	 mov	 ecx, DWORD PTR __$EHRec$[ebp]
  00121	64 89 0d 00 00
	00 00		 mov	 DWORD PTR fs:0, ecx
  00128	59		 pop	 ecx
  00129	5f		 pop	 edi
  0012a	5e		 pop	 esi
  0012b	5b		 pop	 ebx
  0012c	8b 4d f0	 mov	 ecx, DWORD PTR __$ArrayPad$[ebp]
  0012f	33 cd		 xor	 ecx, ebp
  00131	e8 00 00 00 00	 call	 @__security_check_cookie@4
  00136	c9		 leave
  00137	c2 0c 00	 ret	 12			; 0000000cH
_TEXT	ENDS
;	COMDAT text$x
text$x	SEGMENT
__unwindfunclet$?TestMapCollision@ioAdhesiveMissileWeapon3@@UAE_NPAVioOpcodeShape@@PAVioPlayStage@@PBUD3DXMATRIX@@@Z$0:
  00000	8d 8d d8 7f ff
	ff		 lea	 ecx, DWORD PTR _kPacket$532423[ebp]
  00006	e9 00 00 00 00	 jmp	 ??1SP2Packet@@UAE@XZ	; SP2Packet::~SP2Packet
__ehhandler$?TestMapCollision@ioAdhesiveMissileWeapon3@@UAE_NPAVioOpcodeShape@@PAVioPlayStage@@PBUD3DXMATRIX@@@Z:
  0000b	8b 54 24 08	 mov	 edx, DWORD PTR [esp+8]
  0000f	8d 42 0c	 lea	 eax, DWORD PTR [edx+12]
  00012	8b 8a cc 7f ff
	ff		 mov	 ecx, DWORD PTR [edx-32820]
  00018	33 c8		 xor	 ecx, eax
  0001a	e8 00 00 00 00	 call	 @__security_check_cookie@4
  0001f	8b 4a fc	 mov	 ecx, DWORD PTR [edx-4]
  00022	33 c8		 xor	 ecx, eax
  00024	e8 00 00 00 00	 call	 @__security_check_cookie@4
  00029	b8 00 00 00 00	 mov	 eax, OFFSET __ehfuncinfo$?TestMapCollision@ioAdhesiveMissileWeapon3@@UAE_NPAVioOpcodeShape@@PAVioPlayStage@@PBUD3DXMATRIX@@@Z
  0002e	e9 00 00 00 00	 jmp	 ___CxxFrameHandler3
text$x	ENDS
?TestMapCollision@ioAdhesiveMissileWeapon3@@UAE_NPAVioOpcodeShape@@PAVioPlayStage@@PBUD3DXMATRIX@@@Z ENDP ; ioAdhesiveMissileWeapon3::TestMapCollision
PUBLIC	__$ArrayPad$
PUBLIC	?ProcessAttachMove@ioAdhesiveMissileWeapon3@@IAEXMPAVioPlayStage@@@Z ; ioAdhesiveMissileWeapon3::ProcessAttachMove
EXTRN	?SetPosition@ioWeapon@@QAEXABUD3DXVECTOR3@@@Z:PROC ; ioWeapon::SetPosition
EXTRN	?FindDummyChar@ioDummyCharManager@@QAEPAVioDummyChar@@PAVioBaseChar@@H@Z:PROC ; ioDummyCharManager::FindDummyChar
EXTRN	?GetSingleton@ioDummyCharManager@@SAAAV1@XZ:PROC ; ioDummyCharManager::GetSingleton
; Function compile flags: /Ogsp
;	COMDAT ?ProcessAttachMove@ioAdhesiveMissileWeapon3@@IAEXMPAVioPlayStage@@@Z
_TEXT	SEGMENT
_qtRot$532456 = -96					; size = 16
_qtRot$532444 = -96					; size = 16
_value$538480 = -80					; size = 4
_pOwner$ = -80						; size = 4
_value$538510 = -76					; size = 4
_value$538475 = -76					; size = 4
tv572 = -72						; size = 4
_value$538520 = -72					; size = 4
_pDummy$532442 = -72					; size = 4
tv615 = -68						; size = 4
_value$538515 = -68					; size = 4
_value$538470 = -68					; size = 4
_vPosOffset$532462 = -64				; size = 12
_vPosOffset$532450 = -64				; size = 12
_vStartPos$532461 = -52					; size = 12
_vPos$532452 = -52					; size = 12
$T532459 = -40						; size = 12
_vDir$532445 = -40					; size = 12
_vPos$532464 = -28					; size = 12
_vStartPos$532449 = -28					; size = 12
_vDir$532457 = -16					; size = 12
$T532447 = -16						; size = 12
__$ArrayPad$ = -4					; size = 4
_fTimePerSec$ = 8					; size = 4
_pStage$ = 12						; size = 4
?ProcessAttachMove@ioAdhesiveMissileWeapon3@@IAEXMPAVioPlayStage@@@Z PROC ; ioAdhesiveMissileWeapon3::ProcessAttachMove, COMDAT
; _this$ = ecx

; 274  : {

  00000	55		 push	 ebp
  00001	8b ec		 mov	 ebp, esp
  00003	83 ec 60	 sub	 esp, 96			; 00000060H
  00006	a1 00 00 00 00	 mov	 eax, DWORD PTR ___security_cookie
  0000b	33 c5		 xor	 eax, ebp
  0000d	89 45 fc	 mov	 DWORD PTR __$ArrayPad$[ebp], eax
  00010	53		 push	 ebx
  00011	56		 push	 esi
  00012	8b 75 0c	 mov	 esi, DWORD PTR _pStage$[ebp]
  00015	8b d9		 mov	 ebx, ecx

; 275  : 	ioBaseChar *pOwner = GetOwner();

  00017	e8 00 00 00 00	 call	 ?GetOwner@ioWeapon@@QBEPAVioBaseChar@@XZ ; ioWeapon::GetOwner
  0001c	89 45 b0	 mov	 DWORD PTR _pOwner$[ebp], eax

; 276  : 	if( !pOwner )

  0001f	85 c0		 test	 eax, eax
  00021	75 0d		 jne	 SHORT $LN5@ProcessAtt

; 277  : 	{
; 278  : 		Explosion( pStage );

  00023	56		 push	 esi
  00024	8b cb		 mov	 ecx, ebx
  00026	e8 00 00 00 00	 call	 ?Explosion@ioAdhesiveMissileWeapon3@@QAEXPAVioPlayStage@@@Z ; ioAdhesiveMissileWeapon3::Explosion

; 279  : 		return;

  0002b	e9 b0 02 00 00	 jmp	 $LN1@ProcessAtt
$LN5@ProcessAtt:

; 280  : 	}
; 281  : 
; 282  : 	if( m_iDummyIndex > 0 )

  00030	8b 8b 98 05 00
	00		 mov	 ecx, DWORD PTR [ebx+1432]
  00036	57		 push	 edi
  00037	85 c9		 test	 ecx, ecx
  00039	0f 8e 56 01 00
	00		 jle	 $LN4@ProcessAtt

; 283  : 	{
; 284  : 		ioDummyChar *pDummy = g_DummyCharMgr.FindDummyChar( pOwner, m_iDummyIndex );

  0003f	51		 push	 ecx
  00040	50		 push	 eax
  00041	e8 00 00 00 00	 call	 ?GetSingleton@ioDummyCharManager@@SAAAV1@XZ ; ioDummyCharManager::GetSingleton
  00046	8b c8		 mov	 ecx, eax
  00048	e8 00 00 00 00	 call	 ?FindDummyChar@ioDummyCharManager@@QAEPAVioDummyChar@@PAVioBaseChar@@H@Z ; ioDummyCharManager::FindDummyChar
  0004d	89 45 b8	 mov	 DWORD PTR _pDummy$532442[ebp], eax

; 285  : 		if( pDummy )

  00050	85 c0		 test	 eax, eax
  00052	0f 84 30 01 00
	00		 je	 $LN3@ProcessAtt

; 286  : 		{
; 287  : 			D3DXQUATERNION qtRot = pDummy->GetWorldOrientation();

  00058	8b 10		 mov	 edx, DWORD PTR [eax]
  0005a	8b c8		 mov	 ecx, eax
  0005c	ff 52 74	 call	 DWORD PTR [edx+116]
  0005f	8b f0		 mov	 esi, eax
  00061	8d 7d a0	 lea	 edi, DWORD PTR _qtRot$532444[ebp]
  00064	a5		 movsd
  00065	a5		 movsd
  00066	a5		 movsd
  00067	a5		 movsd

; 288  : 			D3DXVECTOR3 vDir = qtRot * D3DXVECTOR3( 0.0f, 0.0f, -FLOAT1 );

  00068	b8 01 00 00 00	 mov	 eax, 1
  0006d	0f 57 c0	 xorps	 xmm0, xmm0
  00070	89 45 bc	 mov	 DWORD PTR tv615[ebp], eax
  00073	db 45 bc	 fild	 DWORD PTR tv615[ebp]
  00076	f3 0f 11 45 f0	 movss	 DWORD PTR $T532447[ebp], xmm0
  0007b	f3 0f 11 45 f4	 movss	 DWORD PTR $T532447[ebp+4], xmm0
  00080	85 c0		 test	 eax, eax
  00082	79 06		 jns	 SHORT $LN43@ProcessAtt
  00084	d8 05 00 00 00
	00		 fadd	 DWORD PTR __real@4f800000
$LN43@ProcessAtt:
  0008a	8b 35 00 00 00
	00		 mov	 esi, DWORD PTR __imp_??D@YA?AUD3DXVECTOR3@@ABUD3DXQUATERNION@@ABU0@@Z
  00090	d9 e0		 fchs
  00092	8d 45 f0	 lea	 eax, DWORD PTR $T532447[ebp]
  00095	d9 5d f8	 fstp	 DWORD PTR $T532447[ebp+8]
  00098	50		 push	 eax
  00099	8d 45 a0	 lea	 eax, DWORD PTR _qtRot$532444[ebp]
  0009c	50		 push	 eax
  0009d	8d 45 d8	 lea	 eax, DWORD PTR _vDir$532445[ebp]
  000a0	50		 push	 eax
  000a1	ff d6		 call	 esi
  000a3	83 c4 0c	 add	 esp, 12			; 0000000cH

; 289  : 			D3DXVec3Normalize( &vDir, &vDir );

  000a6	8d 45 d8	 lea	 eax, DWORD PTR _vDir$532445[ebp]
  000a9	50		 push	 eax
  000aa	50		 push	 eax
  000ab	e8 00 00 00 00	 call	 _D3DXVec3Normalize@8

; 290  : 
; 291  : 			D3DXVECTOR3 vStartPos( m_fStartOffset_x, m_fStartOffset_y, m_fStartOffset_z );

  000b0	8d 45 bc	 lea	 eax, DWORD PTR _value$538470[ebp]
  000b3	50		 push	 eax
  000b4	8d 8b 64 09 00
	00		 lea	 ecx, DWORD PTR [ebx+2404]
  000ba	e8 00 00 00 00	 call	 ?DecryptValueToPool@?$CEncrypt@M@@QAEXPAM@Z ; CEncrypt<float>::DecryptValueToPool
  000bf	8d 45 b4	 lea	 eax, DWORD PTR _value$538475[ebp]
  000c2	50		 push	 eax
  000c3	8d 8b 34 09 00
	00		 lea	 ecx, DWORD PTR [ebx+2356]
  000c9	e8 00 00 00 00	 call	 ?DecryptValueToPool@?$CEncrypt@M@@QAEXPAM@Z ; CEncrypt<float>::DecryptValueToPool
  000ce	8d 45 b0	 lea	 eax, DWORD PTR _value$538480[ebp]
  000d1	50		 push	 eax
  000d2	8d 8b 04 09 00
	00		 lea	 ecx, DWORD PTR [ebx+2308]
  000d8	e8 00 00 00 00	 call	 ?DecryptValueToPool@?$CEncrypt@M@@QAEXPAM@Z ; CEncrypt<float>::DecryptValueToPool
  000dd	f3 0f 10 45 b0	 movss	 xmm0, DWORD PTR _value$538480[ebp]

; 292  : 			D3DXVECTOR3 vPosOffset = qtRot * vStartPos;

  000e2	8d 45 e4	 lea	 eax, DWORD PTR _vStartPos$532449[ebp]
  000e5	50		 push	 eax
  000e6	8d 45 a0	 lea	 eax, DWORD PTR _qtRot$532444[ebp]
  000e9	f3 0f 11 45 e4	 movss	 DWORD PTR _vStartPos$532449[ebp], xmm0
  000ee	f3 0f 10 45 b4	 movss	 xmm0, DWORD PTR _value$538475[ebp]
  000f3	50		 push	 eax
  000f4	8d 45 c0	 lea	 eax, DWORD PTR _vPosOffset$532450[ebp]
  000f7	f3 0f 11 45 e8	 movss	 DWORD PTR _vStartPos$532449[ebp+4], xmm0
  000fc	f3 0f 10 45 bc	 movss	 xmm0, DWORD PTR _value$538470[ebp]
  00101	50		 push	 eax
  00102	f3 0f 11 45 ec	 movss	 DWORD PTR _vStartPos$532449[ebp+8], xmm0
  00107	ff d6		 call	 esi

; 293  : 
; 294  : 			D3DXVECTOR3 vPos = pDummy->GetWorldPosition() + vPosOffset;	// offset  

  00109	8b 4d b8	 mov	 ecx, DWORD PTR _pDummy$532442[ebp]
  0010c	8b 01		 mov	 eax, DWORD PTR [ecx]
  0010e	83 c4 0c	 add	 esp, 12			; 0000000cH
  00111	ff 50 70	 call	 DWORD PTR [eax+112]
  00114	f3 0f 10 40 04	 movss	 xmm0, DWORD PTR [eax+4]
  00119	f3 0f 10 4d c4	 movss	 xmm1, DWORD PTR _vPosOffset$532450[ebp+4]
  0011e	f3 0f 10 55 c8	 movss	 xmm2, DWORD PTR _vPosOffset$532450[ebp+8]
  00123	f3 0f 10 5d c0	 movss	 xmm3, DWORD PTR _vPosOffset$532450[ebp]
  00128	0f 5a c9	 cvtps2pd xmm1, xmm1
  0012b	0f 5a c0	 cvtps2pd xmm0, xmm0
  0012e	f2 0f 58 c1	 addsd	 xmm0, xmm1
  00132	f3 0f 10 48 08	 movss	 xmm1, DWORD PTR [eax+8]
  00137	0f 5a d2	 cvtps2pd xmm2, xmm2
  0013a	0f 5a c9	 cvtps2pd xmm1, xmm1
  0013d	f2 0f 58 ca	 addsd	 xmm1, xmm2
  00141	f3 0f 10 10	 movss	 xmm2, DWORD PTR [eax]
  00145	0f 5a d2	 cvtps2pd xmm2, xmm2
  00148	0f 5a db	 cvtps2pd xmm3, xmm3

; 295  : 
; 296  : 			SetPosition( vPos );

  0014b	8d 45 cc	 lea	 eax, DWORD PTR _vPos$532452[ebp]
  0014e	f2 0f 58 d3	 addsd	 xmm2, xmm3
  00152	66 0f 5a c0	 cvtpd2ps xmm0, xmm0
  00156	66 0f 5a c9	 cvtpd2ps xmm1, xmm1
  0015a	66 0f 5a d2	 cvtpd2ps xmm2, xmm2
  0015e	50		 push	 eax
  0015f	8b cb		 mov	 ecx, ebx
  00161	f3 0f 11 55 cc	 movss	 DWORD PTR _vPos$532452[ebp], xmm2
  00166	f3 0f 11 45 d0	 movss	 DWORD PTR _vPos$532452[ebp+4], xmm0
  0016b	f3 0f 11 4d d4	 movss	 DWORD PTR _vPos$532452[ebp+8], xmm1
  00170	e8 00 00 00 00	 call	 ?SetPosition@ioWeapon@@QAEXABUD3DXVECTOR3@@@Z ; ioWeapon::SetPosition

; 297  : 			SetOrientation( qtRot );

  00175	8d 45 a0	 lea	 eax, DWORD PTR _qtRot$532444[ebp]
  00178	50		 push	 eax
  00179	8b cb		 mov	 ecx, ebx
  0017b	e8 00 00 00 00	 call	 ?SetOrientation@ioWeapon@@QAEXABUD3DXQUATERNION@@@Z ; ioWeapon::SetOrientation

; 298  : 			SetMoveDir( vDir );

  00180	8d 4d d8	 lea	 ecx, DWORD PTR _vDir$532445[ebp]

; 306  : 		}
; 307  : 	}
; 308  : 	else

  00183	e9 35 01 00 00	 jmp	 $LN45@ProcessAtt
$LN3@ProcessAtt:

; 299  : 
; 300  : 			UpdateWorldAttackBox( fTimePerSec, false );
; 301  : 		}
; 302  : 		else
; 303  : 		{
; 304  : 			Explosion( pStage );

  00188	56		 push	 esi
  00189	8b cb		 mov	 ecx, ebx
  0018b	e8 00 00 00 00	 call	 ?Explosion@ioAdhesiveMissileWeapon3@@QAEXPAVioPlayStage@@@Z ; ioAdhesiveMissileWeapon3::Explosion

; 305  : 			return;

  00190	e9 4a 01 00 00	 jmp	 $LN42@ProcessAtt
$LN4@ProcessAtt:

; 309  : 	{
; 310  : 		D3DXQUATERNION qtRot = pOwner->GetTargetRot();

  00195	8d b0 a4 06 00
	00		 lea	 esi, DWORD PTR [eax+1700]
  0019b	8d 7d a0	 lea	 edi, DWORD PTR _qtRot$532456[ebp]
  0019e	a5		 movsd
  0019f	a5		 movsd
  001a0	a5		 movsd
  001a1	a5		 movsd

; 311  : 		D3DXVECTOR3 vDir = qtRot * D3DXVECTOR3( 0.0f, 0.0f, -FLOAT1 );

  001a2	b8 01 00 00 00	 mov	 eax, 1
  001a7	0f 57 c0	 xorps	 xmm0, xmm0
  001aa	89 45 b8	 mov	 DWORD PTR tv572[ebp], eax
  001ad	db 45 b8	 fild	 DWORD PTR tv572[ebp]
  001b0	f3 0f 11 45 d8	 movss	 DWORD PTR $T532459[ebp], xmm0
  001b5	f3 0f 11 45 dc	 movss	 DWORD PTR $T532459[ebp+4], xmm0
  001ba	85 c0		 test	 eax, eax
  001bc	79 06		 jns	 SHORT $LN44@ProcessAtt
  001be	d8 05 00 00 00
	00		 fadd	 DWORD PTR __real@4f800000
$LN44@ProcessAtt:
  001c4	8b 35 00 00 00
	00		 mov	 esi, DWORD PTR __imp_??D@YA?AUD3DXVECTOR3@@ABUD3DXQUATERNION@@ABU0@@Z
  001ca	d9 e0		 fchs
  001cc	8d 45 d8	 lea	 eax, DWORD PTR $T532459[ebp]
  001cf	d9 5d e0	 fstp	 DWORD PTR $T532459[ebp+8]
  001d2	50		 push	 eax
  001d3	8d 45 a0	 lea	 eax, DWORD PTR _qtRot$532456[ebp]
  001d6	50		 push	 eax
  001d7	8d 45 f0	 lea	 eax, DWORD PTR _vDir$532457[ebp]
  001da	50		 push	 eax
  001db	ff d6		 call	 esi
  001dd	83 c4 0c	 add	 esp, 12			; 0000000cH

; 312  : 		D3DXVec3Normalize( &vDir, &vDir );

  001e0	8d 45 f0	 lea	 eax, DWORD PTR _vDir$532457[ebp]
  001e3	50		 push	 eax
  001e4	50		 push	 eax
  001e5	e8 00 00 00 00	 call	 _D3DXVec3Normalize@8

; 313  : 
; 314  : 		D3DXVECTOR3 vStartPos( m_fStartOffset_x, m_fStartOffset_y, m_fStartOffset_z );

  001ea	8d 45 b4	 lea	 eax, DWORD PTR _value$538510[ebp]
  001ed	50		 push	 eax
  001ee	8d 8b 64 09 00
	00		 lea	 ecx, DWORD PTR [ebx+2404]
  001f4	e8 00 00 00 00	 call	 ?DecryptValueToPool@?$CEncrypt@M@@QAEXPAM@Z ; CEncrypt<float>::DecryptValueToPool
  001f9	8d 45 bc	 lea	 eax, DWORD PTR _value$538515[ebp]
  001fc	50		 push	 eax
  001fd	8d 8b 34 09 00
	00		 lea	 ecx, DWORD PTR [ebx+2356]
  00203	e8 00 00 00 00	 call	 ?DecryptValueToPool@?$CEncrypt@M@@QAEXPAM@Z ; CEncrypt<float>::DecryptValueToPool
  00208	8d 45 b8	 lea	 eax, DWORD PTR _value$538520[ebp]
  0020b	50		 push	 eax
  0020c	8d 8b 04 09 00
	00		 lea	 ecx, DWORD PTR [ebx+2308]
  00212	e8 00 00 00 00	 call	 ?DecryptValueToPool@?$CEncrypt@M@@QAEXPAM@Z ; CEncrypt<float>::DecryptValueToPool
  00217	f3 0f 10 45 b8	 movss	 xmm0, DWORD PTR _value$538520[ebp]

; 315  : 		D3DXVECTOR3 vPosOffset = qtRot * vStartPos;

  0021c	8d 45 cc	 lea	 eax, DWORD PTR _vStartPos$532461[ebp]
  0021f	50		 push	 eax
  00220	8d 45 a0	 lea	 eax, DWORD PTR _qtRot$532456[ebp]
  00223	f3 0f 11 45 cc	 movss	 DWORD PTR _vStartPos$532461[ebp], xmm0
  00228	f3 0f 10 45 bc	 movss	 xmm0, DWORD PTR _value$538515[ebp]
  0022d	50		 push	 eax
  0022e	8d 45 c0	 lea	 eax, DWORD PTR _vPosOffset$532462[ebp]
  00231	f3 0f 11 45 d0	 movss	 DWORD PTR _vStartPos$532461[ebp+4], xmm0
  00236	f3 0f 10 45 b4	 movss	 xmm0, DWORD PTR _value$538510[ebp]
  0023b	50		 push	 eax
  0023c	f3 0f 11 45 d4	 movss	 DWORD PTR _vStartPos$532461[ebp+8], xmm0
  00241	ff d6		 call	 esi

; 316  : 
; 317  : 		D3DXVECTOR3 vPos = pOwner->GetWorldPosition() + vPosOffset;	// offset  

  00243	8b 4d b0	 mov	 ecx, DWORD PTR _pOwner$[ebp]
  00246	8b 01		 mov	 eax, DWORD PTR [ecx]
  00248	83 c4 0c	 add	 esp, 12			; 0000000cH
  0024b	ff 50 70	 call	 DWORD PTR [eax+112]
  0024e	f3 0f 10 40 04	 movss	 xmm0, DWORD PTR [eax+4]
  00253	f3 0f 10 4d c4	 movss	 xmm1, DWORD PTR _vPosOffset$532462[ebp+4]
  00258	f3 0f 10 18	 movss	 xmm3, DWORD PTR [eax]
  0025c	f3 0f 10 55 c8	 movss	 xmm2, DWORD PTR _vPosOffset$532462[ebp+8]
  00261	0f 5a c9	 cvtps2pd xmm1, xmm1
  00264	0f 5a c0	 cvtps2pd xmm0, xmm0
  00267	f2 0f 58 c1	 addsd	 xmm0, xmm1
  0026b	f3 0f 10 48 08	 movss	 xmm1, DWORD PTR [eax+8]
  00270	0f 5a d2	 cvtps2pd xmm2, xmm2
  00273	0f 5a c9	 cvtps2pd xmm1, xmm1
  00276	f2 0f 58 ca	 addsd	 xmm1, xmm2
  0027a	f3 0f 10 55 c0	 movss	 xmm2, DWORD PTR _vPosOffset$532462[ebp]
  0027f	0f 5a d2	 cvtps2pd xmm2, xmm2
  00282	0f 5a db	 cvtps2pd xmm3, xmm3

; 318  : 
; 319  : 		SetPosition( vPos );

  00285	8d 45 e4	 lea	 eax, DWORD PTR _vPos$532464[ebp]
  00288	f2 0f 58 d3	 addsd	 xmm2, xmm3
  0028c	66 0f 5a c0	 cvtpd2ps xmm0, xmm0
  00290	66 0f 5a c9	 cvtpd2ps xmm1, xmm1
  00294	66 0f 5a d2	 cvtpd2ps xmm2, xmm2
  00298	50		 push	 eax
  00299	8b cb		 mov	 ecx, ebx
  0029b	f3 0f 11 55 e4	 movss	 DWORD PTR _vPos$532464[ebp], xmm2
  002a0	f3 0f 11 45 e8	 movss	 DWORD PTR _vPos$532464[ebp+4], xmm0
  002a5	f3 0f 11 4d ec	 movss	 DWORD PTR _vPos$532464[ebp+8], xmm1
  002aa	e8 00 00 00 00	 call	 ?SetPosition@ioWeapon@@QAEXABUD3DXVECTOR3@@@Z ; ioWeapon::SetPosition

; 320  : 		SetOrientation( qtRot );

  002af	8d 45 a0	 lea	 eax, DWORD PTR _qtRot$532456[ebp]
  002b2	50		 push	 eax
  002b3	8b cb		 mov	 ecx, ebx
  002b5	e8 00 00 00 00	 call	 ?SetOrientation@ioWeapon@@QAEXABUD3DXQUATERNION@@@Z ; ioWeapon::SetOrientation

; 321  : 		SetMoveDir( vDir );

  002ba	8d 4d f0	 lea	 ecx, DWORD PTR _vDir$532457[ebp]
$LN45@ProcessAtt:
  002bd	8b 03		 mov	 eax, DWORD PTR [ebx]
  002bf	51		 push	 ecx
  002c0	8b cb		 mov	 ecx, ebx
  002c2	ff 90 b0 00 00
	00		 call	 DWORD PTR [eax+176]

; 322  : 
; 323  : 		UpdateWorldAttackBox( fTimePerSec, false );

  002c8	f3 0f 10 45 08	 movss	 xmm0, DWORD PTR _fTimePerSec$[ebp]
  002cd	8b 03		 mov	 eax, DWORD PTR [ebx]
  002cf	6a 00		 push	 0
  002d1	51		 push	 ecx
  002d2	8b cb		 mov	 ecx, ebx
  002d4	f3 0f 11 04 24	 movss	 DWORD PTR [esp], xmm0
  002d9	ff 90 38 01 00
	00		 call	 DWORD PTR [eax+312]
$LN42@ProcessAtt:
  002df	5f		 pop	 edi
$LN1@ProcessAtt:

; 324  : 	}
; 325  : }

  002e0	8b 4d fc	 mov	 ecx, DWORD PTR __$ArrayPad$[ebp]
  002e3	5e		 pop	 esi
  002e4	33 cd		 xor	 ecx, ebp
  002e6	5b		 pop	 ebx
  002e7	e8 00 00 00 00	 call	 @__security_check_cookie@4
  002ec	c9		 leave
  002ed	c2 08 00	 ret	 8
?ProcessAttachMove@ioAdhesiveMissileWeapon3@@IAEXMPAVioPlayStage@@@Z ENDP ; ioAdhesiveMissileWeapon3::ProcessAttachMove
_TEXT	ENDS
PUBLIC	__$ArrayPad$
PUBLIC	?ProcessNormalMove@ioAdhesiveMissileWeapon3@@IAEXMPAVioPlayStage@@@Z ; ioAdhesiveMissileWeapon3::ProcessNormalMove
; Function compile flags: /Ogsp
;	COMDAT ?ProcessNormalMove@ioAdhesiveMissileWeapon3@@IAEXMPAVioPlayStage@@@Z
_TEXT	SEGMENT
_value$538565 = -20					; size = 4
_fMaxRange$ = -20					; size = 4
_fMoveDist$ = -20					; size = 4
_vMove$ = -16						; size = 12
__$ArrayPad$ = -4					; size = 4
_fTimePerSec$ = 8					; size = 4
_pStage$ = 12						; size = 4
?ProcessNormalMove@ioAdhesiveMissileWeapon3@@IAEXMPAVioPlayStage@@@Z PROC ; ioAdhesiveMissileWeapon3::ProcessNormalMove, COMDAT
; _this$ = ecx

; 328  : {

  00000	55		 push	 ebp
  00001	8b ec		 mov	 ebp, esp
  00003	83 ec 14	 sub	 esp, 20			; 00000014H
  00006	a1 00 00 00 00	 mov	 eax, DWORD PTR ___security_cookie
  0000b	33 c5		 xor	 eax, ebp
  0000d	89 45 fc	 mov	 DWORD PTR __$ArrayPad$[ebp], eax
  00010	56		 push	 esi
  00011	57		 push	 edi
  00012	8b 7d 0c	 mov	 edi, DWORD PTR _pStage$[ebp]
  00015	8b f1		 mov	 esi, ecx

; 329  : 	float fMoveDist = GetMoveSpeed() * fTimePerSec;

  00017	e8 00 00 00 00	 call	 ?GetMoveSpeed@ioAdhesiveMissileWeapon3@@IAEMXZ ; ioAdhesiveMissileWeapon3::GetMoveSpeed
  0001c	d8 4d 08	 fmul	 DWORD PTR _fTimePerSec$[ebp]

; 330  : 	D3DXVECTOR3 vMove = m_vMoveDir * fMoveDist;
; 331  : 	GetParentSceneNode()->Translate( vMove );

  0001f	8b 4e 04	 mov	 ecx, DWORD PTR [esi+4]
  00022	6a 01		 push	 1
  00024	d9 5d ec	 fstp	 DWORD PTR _fMoveDist$[ebp]
  00027	8d 55 f0	 lea	 edx, DWORD PTR _vMove$[ebp]
  0002a	d9 45 ec	 fld	 DWORD PTR _fMoveDist$[ebp]
  0002d	52		 push	 edx
  0002e	d8 8e f8 08 00
	00		 fmul	 DWORD PTR [esi+2296]
  00034	d9 5d f0	 fstp	 DWORD PTR _vMove$[ebp]
  00037	d9 86 fc 08 00
	00		 fld	 DWORD PTR [esi+2300]
  0003d	d8 4d ec	 fmul	 DWORD PTR _fMoveDist$[ebp]
  00040	d9 5d f4	 fstp	 DWORD PTR _vMove$[ebp+4]
  00043	d9 86 00 09 00
	00		 fld	 DWORD PTR [esi+2304]
  00049	d8 4d ec	 fmul	 DWORD PTR _fMoveDist$[ebp]
  0004c	d9 5d f8	 fstp	 DWORD PTR _vMove$[ebp+8]
  0004f	8b 01		 mov	 eax, DWORD PTR [ecx]
  00051	ff 50 3c	 call	 DWORD PTR [eax+60]

; 332  : 
; 333  : 	m_fCurMoveRange += fMoveDist;

  00054	d9 86 94 09 00
	00		 fld	 DWORD PTR [esi+2452]
  0005a	d8 45 ec	 fadd	 DWORD PTR _fMoveDist$[ebp]

; 334  : 
; 335  : 	float fMaxRange = GetMaxRange() + m_fGrowthMoveRange;

  0005d	8d 45 ec	 lea	 eax, DWORD PTR _value$538565[ebp]
  00060	50		 push	 eax
  00061	8d 8e 60 03 00
	00		 lea	 ecx, DWORD PTR [esi+864]
  00067	d9 9e 94 09 00
	00		 fstp	 DWORD PTR [esi+2452]
  0006d	e8 00 00 00 00	 call	 ?DecryptValueToPool@?$CEncrypt@M@@QAEXPAM@Z ; CEncrypt<float>::DecryptValueToPool
  00072	8b ce		 mov	 ecx, esi
  00074	e8 00 00 00 00	 call	 ?GetMaxRange@ioAdhesiveMissileWeapon3@@IAEMXZ ; ioAdhesiveMissileWeapon3::GetMaxRange
  00079	d8 45 ec	 fadd	 DWORD PTR _value$538565[ebp]
  0007c	d9 5d ec	 fstp	 DWORD PTR _fMaxRange$[ebp]

; 336  : 	if( fMaxRange > 0.0f )

  0007f	d9 ee		 fldz
  00081	d9 45 ec	 fld	 DWORD PTR _fMaxRange$[ebp]
  00084	df f1		 fcomip	 ST(1)
  00086	dd d8		 fstp	 ST(0)
  00088	76 23		 jbe	 SHORT $LN3@ProcessNor

; 337  : 		m_fCurMoveRate = m_fCurMoveRange / fMaxRange;

  0008a	f3 0f 10 86 94
	09 00 00	 movss	 xmm0, DWORD PTR [esi+2452]
  00092	f3 0f 10 4d ec	 movss	 xmm1, DWORD PTR _fMaxRange$[ebp]
  00097	0f 5a c0	 cvtps2pd xmm0, xmm0
  0009a	0f 5a c9	 cvtps2pd xmm1, xmm1
  0009d	f2 0f 5e c1	 divsd	 xmm0, xmm1
  000a1	66 0f 5a c0	 cvtpd2ps xmm0, xmm0
  000a5	f3 0f 11 86 98
	09 00 00	 movss	 DWORD PTR [esi+2456], xmm0
$LN3@ProcessNor:

; 338  : 
; 339  : 	if( m_fCurMoveRange < fMaxRange )

  000ad	f3 0f 10 86 94
	09 00 00	 movss	 xmm0, DWORD PTR [esi+2452]
  000b5	f3 0f 10 4d ec	 movss	 xmm1, DWORD PTR _fMaxRange$[ebp]
  000ba	0f 5a c0	 cvtps2pd xmm0, xmm0
  000bd	0f 5a c9	 cvtps2pd xmm1, xmm1
  000c0	66 0f 2f c8	 comisd	 xmm1, xmm0
  000c4	76 19		 jbe	 SHORT $LN2@ProcessNor

; 340  : 	{
; 341  : 		UpdateWorldAttackBox( fTimePerSec, false );

  000c6	f3 0f 10 45 08	 movss	 xmm0, DWORD PTR _fTimePerSec$[ebp]
  000cb	8b 06		 mov	 eax, DWORD PTR [esi]
  000cd	6a 00		 push	 0
  000cf	51		 push	 ecx
  000d0	8b ce		 mov	 ecx, esi
  000d2	f3 0f 11 04 24	 movss	 DWORD PTR [esp], xmm0
  000d7	ff 90 38 01 00
	00		 call	 DWORD PTR [eax+312]

; 342  : 	}
; 343  : 	else

  000dd	eb 08		 jmp	 SHORT $LN1@ProcessNor
$LN2@ProcessNor:

; 344  : 	{
; 345  : 		Explosion( pStage );

  000df	57		 push	 edi
  000e0	8b ce		 mov	 ecx, esi
  000e2	e8 00 00 00 00	 call	 ?Explosion@ioAdhesiveMissileWeapon3@@QAEXPAVioPlayStage@@@Z ; ioAdhesiveMissileWeapon3::Explosion
$LN1@ProcessNor:

; 346  : 	}
; 347  : }

  000e7	8b 4d fc	 mov	 ecx, DWORD PTR __$ArrayPad$[ebp]
  000ea	5f		 pop	 edi
  000eb	33 cd		 xor	 ecx, ebp
  000ed	5e		 pop	 esi
  000ee	e8 00 00 00 00	 call	 @__security_check_cookie@4
  000f3	c9		 leave
  000f4	c2 08 00	 ret	 8
?ProcessNormalMove@ioAdhesiveMissileWeapon3@@IAEXMPAVioPlayStage@@@Z ENDP ; ioAdhesiveMissileWeapon3::ProcessNormalMove
_TEXT	ENDS
PUBLIC	?CheckPreCollision@ioAdhesiveMissileWeapon3@@UAEXPAVioPlayEntity@@PAVioPlayStage@@@Z ; ioAdhesiveMissileWeapon3::CheckPreCollision
; Function compile flags: /Ogsp
;	COMDAT ?CheckPreCollision@ioAdhesiveMissileWeapon3@@UAEXPAVioPlayEntity@@PAVioPlayStage@@@Z
_TEXT	SEGMENT
_value$538582 = 8					; size = 4
_pTarget$ = 8						; size = 4
_pStage$ = 12						; size = 4
?CheckPreCollision@ioAdhesiveMissileWeapon3@@UAEXPAVioPlayEntity@@PAVioPlayStage@@@Z PROC ; ioAdhesiveMissileWeapon3::CheckPreCollision, COMDAT
; _this$ = ecx

; 458  : {

  00000	55		 push	 ebp
  00001	8b ec		 mov	 ebp, esp
  00003	53		 push	 ebx
  00004	56		 push	 esi

; 459  : 	if( pTarget->IsWoundedCollision( GetWorldAttackBox() ) )

  00005	8b 75 08	 mov	 esi, DWORD PTR _pTarget$[ebp]
  00008	57		 push	 edi
  00009	8b 3e		 mov	 edi, DWORD PTR [esi]
  0000b	6a 00		 push	 0
  0000d	6a 00		 push	 0
  0000f	8b d9		 mov	 ebx, ecx
  00011	e8 00 00 00 00	 call	 ?GetWorldAttackBox@ioWeapon@@QBEABVioOrientBox@@_N@Z ; ioWeapon::GetWorldAttackBox
  00016	50		 push	 eax
  00017	8b ce		 mov	 ecx, esi
  00019	ff 97 90 00 00
	00		 call	 DWORD PTR [edi+144]
  0001f	84 c0		 test	 al, al
  00021	0f 84 90 00 00
	00		 je	 $LN4@CheckPreCo

; 460  : 	{
; 461  : 		if( ToSymbolStruct(pTarget) || ToPushStruct(pTarget) || ToBallStruct(pTarget) ||
; 462  : 			ToDummyChar(pTarget) || ToWallZone(pTarget) )

  00027	56		 push	 esi
  00028	e8 00 00 00 00	 call	 ?ToSymbolStruct@@YAPAVioSymbolStruct@@PAVioGameEntity@@@Z ; ToSymbolStruct
  0002d	59		 pop	 ecx
  0002e	85 c0		 test	 eax, eax
  00030	75 2c		 jne	 SHORT $LN3@CheckPreCo
  00032	56		 push	 esi
  00033	e8 00 00 00 00	 call	 ?ToPushStruct@@YAPAVioPushStruct@@PAVioGameEntity@@@Z ; ToPushStruct
  00038	59		 pop	 ecx
  00039	85 c0		 test	 eax, eax
  0003b	75 21		 jne	 SHORT $LN3@CheckPreCo
  0003d	56		 push	 esi
  0003e	e8 00 00 00 00	 call	 ?ToBallStruct@@YAPAVioBall@@PAVioGameEntity@@@Z ; ToBallStruct
  00043	59		 pop	 ecx
  00044	85 c0		 test	 eax, eax
  00046	75 16		 jne	 SHORT $LN3@CheckPreCo
  00048	56		 push	 esi
  00049	e8 00 00 00 00	 call	 ?ToDummyChar@@YAPAVioDummyChar@@PAVioGameEntity@@@Z ; ToDummyChar
  0004e	59		 pop	 ecx
  0004f	85 c0		 test	 eax, eax
  00051	75 0b		 jne	 SHORT $LN3@CheckPreCo
  00053	56		 push	 esi
  00054	e8 00 00 00 00	 call	 ?ToWallZone@@YAPAVioWallZone@@PAVioGameEntity@@@Z ; ToWallZone
  00059	59		 pop	 ecx
  0005a	85 c0		 test	 eax, eax
  0005c	74 59		 je	 SHORT $LN4@CheckPreCo
$LN3@CheckPreCo:

; 463  : 		{
; 464  : 			if( GetOwner() )

  0005e	8b cb		 mov	 ecx, ebx
  00060	e8 00 00 00 00	 call	 ?GetOwner@ioWeapon@@QBEPAVioBaseChar@@XZ ; ioWeapon::GetOwner
  00065	85 c0		 test	 eax, eax
  00067	74 3d		 je	 SHORT $LN1@CheckPreCo

; 465  : 			{
; 466  : 				if( ToDummyChar(pTarget) && ToDummyChar(pTarget)->IsCharCollisionSkipState(GetOwner()->GetTeam()) )

  00069	56		 push	 esi
  0006a	e8 00 00 00 00	 call	 ?ToDummyChar@@YAPAVioDummyChar@@PAVioGameEntity@@@Z ; ToDummyChar
  0006f	59		 pop	 ecx
  00070	85 c0		 test	 eax, eax
  00072	74 32		 je	 SHORT $LN1@CheckPreCo
  00074	56		 push	 esi
  00075	e8 00 00 00 00	 call	 ?ToDummyChar@@YAPAVioDummyChar@@PAVioGameEntity@@@Z ; ToDummyChar
  0007a	59		 pop	 ecx
  0007b	8b cb		 mov	 ecx, ebx
  0007d	8b f0		 mov	 esi, eax
  0007f	e8 00 00 00 00	 call	 ?GetOwner@ioWeapon@@QBEPAVioBaseChar@@XZ ; ioWeapon::GetOwner
  00084	8d 4d 08	 lea	 ecx, DWORD PTR _value$538582[ebp]
  00087	51		 push	 ecx
  00088	8d 88 90 00 00
	00		 lea	 ecx, DWORD PTR [eax+144]
  0008e	e8 00 00 00 00	 call	 ?DecryptValueToPool@?$CEncrypt@W4TeamType@@@@QAEXPAW4TeamType@@@Z ; CEncrypt<enum TeamType>::DecryptValueToPool
  00093	8b 06		 mov	 eax, DWORD PTR [esi]
  00095	6a 00		 push	 0
  00097	ff 75 08	 push	 DWORD PTR _value$538582[ebp]
  0009a	8b ce		 mov	 ecx, esi
  0009c	ff 90 8c 00 00
	00		 call	 DWORD PTR [eax+140]
  000a2	84 c0		 test	 al, al
  000a4	75 11		 jne	 SHORT $LN4@CheckPreCo
$LN1@CheckPreCo:

; 467  : 					return;
; 468  : 			}
; 469  : 
; 470  : 			CallAttribute();

  000a6	8b cb		 mov	 ecx, ebx
  000a8	e8 00 00 00 00	 call	 ?CallAttribute@ioAdhesiveMissileWeapon3@@IAEXXZ ; ioAdhesiveMissileWeapon3::CallAttribute

; 471  : 			Explosion( pStage );

  000ad	ff 75 0c	 push	 DWORD PTR _pStage$[ebp]
  000b0	8b cb		 mov	 ecx, ebx
  000b2	e8 00 00 00 00	 call	 ?Explosion@ioAdhesiveMissileWeapon3@@QAEXPAVioPlayStage@@@Z ; ioAdhesiveMissileWeapon3::Explosion
$LN4@CheckPreCo:
  000b7	5f		 pop	 edi
  000b8	5e		 pop	 esi
  000b9	5b		 pop	 ebx

; 472  : 			return;
; 473  : 		}
; 474  : 	}
; 475  : }

  000ba	5d		 pop	 ebp
  000bb	c2 08 00	 ret	 8
?CheckPreCollision@ioAdhesiveMissileWeapon3@@UAEXPAVioPlayEntity@@PAVioPlayStage@@@Z ENDP ; ioAdhesiveMissileWeapon3::CheckPreCollision
_TEXT	ENDS
PUBLIC	?ApplyWeaponSync@ioAdhesiveMissileWeapon3@@UAEXAAVSP2Packet@@PAVioPlayStage@@@Z ; ioAdhesiveMissileWeapon3::ApplyWeaponSync
EXTRN	??5SP2Packet@@QAEAAV0@AAH@Z:PROC		; SP2Packet::operator>>
; Function compile flags: /Ogsp
;	COMDAT ?ApplyWeaponSync@ioAdhesiveMissileWeapon3@@UAEXAAVSP2Packet@@PAVioPlayStage@@@Z
_TEXT	SEGMENT
_iSyncType$ = 8						; size = 4
_rkPacket$ = 8						; size = 4
_pStage$ = 12						; size = 4
?ApplyWeaponSync@ioAdhesiveMissileWeapon3@@UAEXAAVSP2Packet@@PAVioPlayStage@@@Z PROC ; ioAdhesiveMissileWeapon3::ApplyWeaponSync, COMDAT
; _this$ = ecx

; 491  : {

  00000	55		 push	 ebp
  00001	8b ec		 mov	 ebp, esp
  00003	56		 push	 esi

; 492  : 	int iSyncType;
; 493  : 	rkPacket >> iSyncType;

  00004	8d 45 08	 lea	 eax, DWORD PTR _iSyncType$[ebp]
  00007	8b f1		 mov	 esi, ecx
  00009	8b 4d 08	 mov	 ecx, DWORD PTR _rkPacket$[ebp]
  0000c	50		 push	 eax
  0000d	e8 00 00 00 00	 call	 ??5SP2Packet@@QAEAAV0@AAH@Z ; SP2Packet::operator>>

; 494  : 
; 495  : 	switch( iSyncType )

  00012	83 7d 08 00	 cmp	 DWORD PTR _iSyncType$[ebp], 0
  00016	75 0a		 jne	 SHORT $LN2@ApplyWeapo

; 496  : 	{
; 497  : 	case STC_TEST_MAP_COLLISION:
; 498  : 		Explosion( pStage );

  00018	ff 75 0c	 push	 DWORD PTR _pStage$[ebp]
  0001b	8b ce		 mov	 ecx, esi
  0001d	e8 00 00 00 00	 call	 ?Explosion@ioAdhesiveMissileWeapon3@@QAEXPAVioPlayStage@@@Z ; ioAdhesiveMissileWeapon3::Explosion
$LN2@ApplyWeapo:
  00022	5e		 pop	 esi

; 499  : 		break;
; 500  : 	}
; 501  : }

  00023	5d		 pop	 ebp
  00024	c2 08 00	 ret	 8
?ApplyWeaponSync@ioAdhesiveMissileWeapon3@@UAEXAAVSP2Packet@@PAVioPlayStage@@@Z ENDP ; ioAdhesiveMissileWeapon3::ApplyWeaponSync
_TEXT	ENDS
PUBLIC	??$_Cons_val@V?$allocator@UBuffInfoStruct@@@std@@UBuffInfoStruct@@ABU3@@std@@YAXAAV?$allocator@UBuffInfoStruct@@@0@PAUBuffInfoStruct@@ABU2@@Z ; std::_Cons_val<std::allocator<BuffInfoStruct>,BuffInfoStruct,BuffInfoStruct const &>
; Function compile flags: /Ogsp
; File c:\program files (x86)\microsoft visual studio 10.0\vc\include\xmemory
;	COMDAT ??$_Cons_val@V?$allocator@UBuffInfoStruct@@@std@@UBuffInfoStruct@@ABU3@@std@@YAXAAV?$allocator@UBuffInfoStruct@@@0@PAUBuffInfoStruct@@ABU2@@Z
_TEXT	SEGMENT
__Alval$ = 8						; size = 4
__Pdest$ = 12						; size = 4
__Src$ = 16						; size = 4
??$_Cons_val@V?$allocator@UBuffInfoStruct@@@std@@UBuffInfoStruct@@ABU3@@std@@YAXAAV?$allocator@UBuffInfoStruct@@@0@PAUBuffInfoStruct@@ABU2@@Z PROC ; std::_Cons_val<std::allocator<BuffInfoStruct>,BuffInfoStruct,BuffInfoStruct const &>, COMDAT

; 279  : 	{	// construct using allocator

  00000	55		 push	 ebp
  00001	8b ec		 mov	 ebp, esp

; 280  : 	_Alval.construct(_Pdest, _STD forward<_Ty2>(_Src));

  00003	ff 75 10	 push	 DWORD PTR __Src$[ebp]
  00006	ff 75 0c	 push	 DWORD PTR __Pdest$[ebp]
  00009	e8 00 00 00 00	 call	 ??$_Construct@UBuffInfoStruct@@ABU1@@std@@YAXPAUBuffInfoStruct@@ABU1@@Z ; std::_Construct<BuffInfoStruct,BuffInfoStruct const &>
  0000e	59		 pop	 ecx
  0000f	59		 pop	 ecx

; 281  : 	}

  00010	5d		 pop	 ebp
  00011	c3		 ret	 0
??$_Cons_val@V?$allocator@UBuffInfoStruct@@@std@@UBuffInfoStruct@@ABU3@@std@@YAXAAV?$allocator@UBuffInfoStruct@@@0@PAUBuffInfoStruct@@ABU2@@Z ENDP ; std::_Cons_val<std::allocator<BuffInfoStruct>,BuffInfoStruct,BuffInfoStruct const &>
_TEXT	ENDS
PUBLIC	??$_Destroy_range@V?$allocator@UChangeDirInfo@@@std@@@std@@YAXPAUChangeDirInfo@@0AAV?$allocator@UChangeDirInfo@@@0@U_Nonscalar_ptr_iterator_tag@0@@Z ; std::_Destroy_range<std::allocator<ChangeDirInfo> >
; Function compile flags: /Ogsp
;	COMDAT ??$_Destroy_range@V?$allocator@UChangeDirInfo@@@std@@@std@@YAXPAUChangeDirInfo@@0AAV?$allocator@UChangeDirInfo@@@0@U_Nonscalar_ptr_iterator_tag@0@@Z
_TEXT	SEGMENT
__First$ = 8						; size = 4
__Last$ = 12						; size = 4
__Al$ = 16						; size = 4
___formal$ = 20						; size = 1
??$_Destroy_range@V?$allocator@UChangeDirInfo@@@std@@@std@@YAXPAUChangeDirInfo@@0AAV?$allocator@UChangeDirInfo@@@0@U_Nonscalar_ptr_iterator_tag@0@@Z PROC ; std::_Destroy_range<std::allocator<ChangeDirInfo> >, COMDAT

; 96   : 	for (; _First != _Last; ++_First)
; 97   : 		_Dest_val(_Al, _First);
; 98   : 	}

  00000	c3		 ret	 0
??$_Destroy_range@V?$allocator@UChangeDirInfo@@@std@@@std@@YAXPAUChangeDirInfo@@0AAV?$allocator@UChangeDirInfo@@@0@U_Nonscalar_ptr_iterator_tag@0@@Z ENDP ; std::_Destroy_range<std::allocator<ChangeDirInfo> >
_TEXT	ENDS
PUBLIC	??$_Insertion_sort@PAUChangeDirInfo@@VChangeDirSort@@@std@@YAXPAUChangeDirInfo@@0VChangeDirSort@@@Z ; std::_Insertion_sort<ChangeDirInfo *,ChangeDirSort>
; Function compile flags: /Ogsp
; File c:\program files (x86)\microsoft visual studio 10.0\vc\include\algorithm
;	COMDAT ??$_Insertion_sort@PAUChangeDirInfo@@VChangeDirSort@@@std@@YAXPAUChangeDirInfo@@0VChangeDirSort@@@Z
_TEXT	SEGMENT
__First$ = 8						; size = 4
__Last$ = 12						; size = 4
__Pred$ = 16						; size = 1
??$_Insertion_sort@PAUChangeDirInfo@@VChangeDirSort@@@std@@YAXPAUChangeDirInfo@@0VChangeDirSort@@@Z PROC ; std::_Insertion_sort<ChangeDirInfo *,ChangeDirSort>, COMDAT

; 3676 : 	{	// insertion sort [_First, _Last), using _Pred

  00000	55		 push	 ebp
  00001	8b ec		 mov	 ebp, esp

; 3677 : 	_Insertion_sort1(_First, _Last, _Pred, _Val_type(_First));

  00003	6a 00		 push	 0
  00005	ff 75 10	 push	 DWORD PTR __Pred$[ebp]
  00008	ff 75 0c	 push	 DWORD PTR __Last$[ebp]
  0000b	ff 75 08	 push	 DWORD PTR __First$[ebp]
  0000e	e8 00 00 00 00	 call	 ??$_Insertion_sort1@PAUChangeDirInfo@@VChangeDirSort@@U1@@std@@YAXPAUChangeDirInfo@@0VChangeDirSort@@0@Z ; std::_Insertion_sort1<ChangeDirInfo *,ChangeDirSort,ChangeDirInfo>
  00013	83 c4 10	 add	 esp, 16			; 00000010H

; 3678 : 	}

  00016	5d		 pop	 ebp
  00017	c3		 ret	 0
??$_Insertion_sort@PAUChangeDirInfo@@VChangeDirSort@@@std@@YAXPAUChangeDirInfo@@0VChangeDirSort@@@Z ENDP ; std::_Insertion_sort<ChangeDirInfo *,ChangeDirSort>
_TEXT	ENDS
PUBLIC	??$_Uninit_move@PAUChangeDirInfo@@PAU1@V?$allocator@UChangeDirInfo@@@std@@U1@@std@@YAPAUChangeDirInfo@@PAU1@00AAV?$allocator@UChangeDirInfo@@@0@0U_Nonscalar_ptr_iterator_tag@0@@Z ; std::_Uninit_move<ChangeDirInfo *,ChangeDirInfo *,std::allocator<ChangeDirInfo>,ChangeDirInfo>
; Function compile flags: /Ogsp
; File c:\program files (x86)\microsoft visual studio 10.0\vc\include\memory
;	COMDAT ??$_Uninit_move@PAUChangeDirInfo@@PAU1@V?$allocator@UChangeDirInfo@@@std@@U1@@std@@YAPAUChangeDirInfo@@PAU1@00AAV?$allocator@UChangeDirInfo@@@0@0U_Nonscalar_ptr_iterator_tag@0@@Z
_TEXT	SEGMENT
__First$ = 8						; size = 4
__Last$ = 12						; size = 4
__Dest$ = 16						; size = 4
__Al$ = 20						; size = 4
___formal$ = 24						; size = 4
___formal$ = 28						; size = 1
??$_Uninit_move@PAUChangeDirInfo@@PAU1@V?$allocator@UChangeDirInfo@@@std@@U1@@std@@YAPAUChangeDirInfo@@PAU1@00AAV?$allocator@UChangeDirInfo@@@0@0U_Nonscalar_ptr_iterator_tag@0@@Z PROC ; std::_Uninit_move<ChangeDirInfo *,ChangeDirInfo *,std::allocator<ChangeDirInfo>,ChangeDirInfo>, COMDAT

; 424  : 	{	// move [_First, _Last) to raw _Dest, using _Al, arbitrary type

  00000	55		 push	 ebp
  00001	8b ec		 mov	 ebp, esp
  00003	56		 push	 esi

; 425  : 	_DEBUG_RANGE(_First, _Last);
; 426  : 	_DEBUG_POINTER(_Dest);
; 427  : 	_FwdIt _Next = _Dest;
; 428  : 
; 429  : 	_TRY_BEGIN
; 430  : 	for (; _First != _Last; ++_Dest, ++_First)

  00004	8b 75 08	 mov	 esi, DWORD PTR __First$[ebp]
  00007	eb 16		 jmp	 SHORT $LN24@Uninit_mov
$LL6@Uninit_mov:

; 431  : 		_Cons_val(_Al, _Dest, (_Valty &&)*_First);

  00009	56		 push	 esi
  0000a	ff 75 10	 push	 DWORD PTR __Dest$[ebp]
  0000d	ff 75 14	 push	 DWORD PTR __Al$[ebp]
  00010	e8 00 00 00 00	 call	 ??$_Cons_val@V?$allocator@UChangeDirInfo@@@std@@UChangeDirInfo@@U3@@std@@YAXAAV?$allocator@UChangeDirInfo@@@0@PAUChangeDirInfo@@$$QAU2@@Z ; std::_Cons_val<std::allocator<ChangeDirInfo>,ChangeDirInfo,ChangeDirInfo>
  00015	83 45 10 1c	 add	 DWORD PTR __Dest$[ebp], 28 ; 0000001cH
  00019	83 c4 0c	 add	 esp, 12			; 0000000cH
  0001c	83 c6 1c	 add	 esi, 28			; 0000001cH
$LN24@Uninit_mov:

; 425  : 	_DEBUG_RANGE(_First, _Last);
; 426  : 	_DEBUG_POINTER(_Dest);
; 427  : 	_FwdIt _Next = _Dest;
; 428  : 
; 429  : 	_TRY_BEGIN
; 430  : 	for (; _First != _Last; ++_Dest, ++_First)

  0001f	3b 75 0c	 cmp	 esi, DWORD PTR __Last$[ebp]
  00022	75 e5		 jne	 SHORT $LL6@Uninit_mov

; 432  : 	_CATCH_ALL
; 433  : 	for (; _Next != _Dest; ++_Next)
; 434  : 		_Dest_val(_Al, _Next);
; 435  : 	_RERAISE;
; 436  : 	_CATCH_END
; 437  : 	return (_Dest);

  00024	8b 45 10	 mov	 eax, DWORD PTR __Dest$[ebp]
  00027	5e		 pop	 esi

; 438  : 	}

  00028	5d		 pop	 ebp
  00029	c3		 ret	 0
??$_Uninit_move@PAUChangeDirInfo@@PAU1@V?$allocator@UChangeDirInfo@@@std@@U1@@std@@YAPAUChangeDirInfo@@PAU1@00AAV?$allocator@UChangeDirInfo@@@0@0U_Nonscalar_ptr_iterator_tag@0@@Z ENDP ; std::_Uninit_move<ChangeDirInfo *,ChangeDirInfo *,std::allocator<ChangeDirInfo>,ChangeDirInfo>
_TEXT	ENDS
PUBLIC	??$_Median@PAUChangeDirInfo@@VChangeDirSort@@@std@@YAXPAUChangeDirInfo@@00VChangeDirSort@@@Z ; std::_Median<ChangeDirInfo *,ChangeDirSort>
; Function compile flags: /Ogsp
; File c:\program files (x86)\microsoft visual studio 10.0\vc\include\algorithm
;	COMDAT ??$_Median@PAUChangeDirInfo@@VChangeDirSort@@@std@@YAXPAUChangeDirInfo@@00VChangeDirSort@@@Z
_TEXT	SEGMENT
tv200 = 8						; size = 4
__First$ = 8						; size = 4
__Mid$ = 12						; size = 4
tv203 = 16						; size = 4
__Last$ = 16						; size = 4
__Pred$ = 20						; size = 1
??$_Median@PAUChangeDirInfo@@VChangeDirSort@@@std@@YAXPAUChangeDirInfo@@00VChangeDirSort@@@Z PROC ; std::_Median<ChangeDirInfo *,ChangeDirSort>, COMDAT

; 3695 : 	{	// sort median element to middle

  00000	55		 push	 ebp
  00001	8b ec		 mov	 ebp, esp

; 3696 : 	if (40 < _Last - _First)

  00003	8b 4d 08	 mov	 ecx, DWORD PTR __First$[ebp]
  00006	53		 push	 ebx
  00007	8b 5d 10	 mov	 ebx, DWORD PTR __Last$[ebp]
  0000a	56		 push	 esi
  0000b	8b c3		 mov	 eax, ebx
  0000d	2b c1		 sub	 eax, ecx
  0000f	6a 1c		 push	 28			; 0000001cH
  00011	99		 cdq
  00012	5e		 pop	 esi
  00013	f7 fe		 idiv	 esi
  00015	83 f8 28	 cmp	 eax, 40			; 00000028H
  00018	7e 68		 jle	 SHORT $LN2@Median

; 3697 : 		{	// median of nine
; 3698 : 		size_t _Step = (_Last - _First + 1) / 8;

  0001a	40		 inc	 eax
  0001b	99		 cdq
  0001c	83 e2 07	 and	 edx, 7
  0001f	03 c2		 add	 eax, edx
  00021	57		 push	 edi

; 3699 : 		_Med3(_First, _First + _Step, _First + 2 * _Step, _Pred);

  00022	ff 75 14	 push	 DWORD PTR __Pred$[ebp]
  00025	c1 f8 03	 sar	 eax, 3
  00028	8b f8		 mov	 edi, eax
  0002a	8b f0		 mov	 esi, eax
  0002c	6b ff 38	 imul	 edi, 56			; 00000038H
  0002f	6b f6 1c	 imul	 esi, 28			; 0000001cH
  00032	8d 14 0f	 lea	 edx, DWORD PTR [edi+ecx]
  00035	8d 04 0e	 lea	 eax, DWORD PTR [esi+ecx]
  00038	52		 push	 edx
  00039	50		 push	 eax
  0003a	51		 push	 ecx
  0003b	89 45 08	 mov	 DWORD PTR tv200[ebp], eax
  0003e	e8 00 00 00 00	 call	 ??$_Med3@PAUChangeDirInfo@@VChangeDirSort@@@std@@YAXPAUChangeDirInfo@@00VChangeDirSort@@@Z ; std::_Med3<ChangeDirInfo *,ChangeDirSort>

; 3700 : 		_Med3(_Mid - _Step, _Mid, _Mid + _Step, _Pred);

  00043	8b 45 0c	 mov	 eax, DWORD PTR __Mid$[ebp]
  00046	ff 75 14	 push	 DWORD PTR __Pred$[ebp]
  00049	8d 0c 06	 lea	 ecx, DWORD PTR [esi+eax]
  0004c	51		 push	 ecx
  0004d	50		 push	 eax
  0004e	2b c6		 sub	 eax, esi
  00050	50		 push	 eax
  00051	e8 00 00 00 00	 call	 ??$_Med3@PAUChangeDirInfo@@VChangeDirSort@@@std@@YAXPAUChangeDirInfo@@00VChangeDirSort@@@Z ; std::_Med3<ChangeDirInfo *,ChangeDirSort>

; 3701 : 		_Med3(_Last - 2 * _Step, _Last - _Step, _Last, _Pred);

  00056	ff 75 14	 push	 DWORD PTR __Pred$[ebp]
  00059	89 5d 10	 mov	 DWORD PTR tv203[ebp], ebx
  0005c	29 75 10	 sub	 DWORD PTR tv203[ebp], esi
  0005f	53		 push	 ebx
  00060	ff 75 10	 push	 DWORD PTR tv203[ebp]
  00063	2b df		 sub	 ebx, edi
  00065	53		 push	 ebx
  00066	e8 00 00 00 00	 call	 ??$_Med3@PAUChangeDirInfo@@VChangeDirSort@@@std@@YAXPAUChangeDirInfo@@00VChangeDirSort@@@Z ; std::_Med3<ChangeDirInfo *,ChangeDirSort>

; 3702 : 		_Med3(_First + _Step, _Mid, _Last - _Step, _Pred);

  0006b	ff 75 14	 push	 DWORD PTR __Pred$[ebp]
  0006e	ff 75 10	 push	 DWORD PTR tv203[ebp]
  00071	ff 75 0c	 push	 DWORD PTR __Mid$[ebp]
  00074	ff 75 08	 push	 DWORD PTR tv200[ebp]
  00077	e8 00 00 00 00	 call	 ??$_Med3@PAUChangeDirInfo@@VChangeDirSort@@@std@@YAXPAUChangeDirInfo@@00VChangeDirSort@@@Z ; std::_Med3<ChangeDirInfo *,ChangeDirSort>
  0007c	83 c4 40	 add	 esp, 64			; 00000040H
  0007f	5f		 pop	 edi

; 3703 : 		}
; 3704 : 	else

  00080	eb 10		 jmp	 SHORT $LN1@Median
$LN2@Median:

; 3705 : 		_Med3(_First, _Mid, _Last, _Pred);

  00082	ff 75 14	 push	 DWORD PTR __Pred$[ebp]
  00085	53		 push	 ebx
  00086	ff 75 0c	 push	 DWORD PTR __Mid$[ebp]
  00089	51		 push	 ecx
  0008a	e8 00 00 00 00	 call	 ??$_Med3@PAUChangeDirInfo@@VChangeDirSort@@@std@@YAXPAUChangeDirInfo@@00VChangeDirSort@@@Z ; std::_Med3<ChangeDirInfo *,ChangeDirSort>
  0008f	83 c4 10	 add	 esp, 16			; 00000010H
$LN1@Median:
  00092	5e		 pop	 esi
  00093	5b		 pop	 ebx

; 3706 : 	}

  00094	5d		 pop	 ebp
  00095	c3		 ret	 0
??$_Median@PAUChangeDirInfo@@VChangeDirSort@@@std@@YAXPAUChangeDirInfo@@00VChangeDirSort@@@Z ENDP ; std::_Median<ChangeDirInfo *,ChangeDirSort>
_TEXT	ENDS
PUBLIC	??$_Make_heap@PAUChangeDirInfo@@HU1@VChangeDirSort@@@std@@YAXPAUChangeDirInfo@@0VChangeDirSort@@PAH0@Z ; std::_Make_heap<ChangeDirInfo *,int,ChangeDirInfo,ChangeDirSort>
; Function compile flags: /Ogsp
;	COMDAT ??$_Make_heap@PAUChangeDirInfo@@HU1@VChangeDirSort@@@std@@YAXPAUChangeDirInfo@@0VChangeDirSort@@PAH0@Z
_TEXT	SEGMENT
__Val$535431 = -32					; size = 28
__Bottom$ = -4						; size = 4
__First$ = 8						; size = 4
tv149 = 12						; size = 4
__Last$ = 12						; size = 4
__Pred$ = 16						; size = 1
___formal$ = 20						; size = 4
___formal$ = 24						; size = 4
??$_Make_heap@PAUChangeDirInfo@@HU1@VChangeDirSort@@@std@@YAXPAUChangeDirInfo@@0VChangeDirSort@@PAH0@Z PROC ; std::_Make_heap<ChangeDirInfo *,int,ChangeDirInfo,ChangeDirSort>, COMDAT

; 2658 : 	{	// make nontrivial [_First, _Last) into a heap, using _Pred

  00000	55		 push	 ebp
  00001	8b ec		 mov	 ebp, esp
  00003	83 ec 20	 sub	 esp, 32			; 00000020H

; 2659 : 	_Diff _Bottom = _Last - _First;

  00006	8b 45 0c	 mov	 eax, DWORD PTR __Last$[ebp]
  00009	2b 45 08	 sub	 eax, DWORD PTR __First$[ebp]
  0000c	53		 push	 ebx
  0000d	99		 cdq
  0000e	6a 1c		 push	 28			; 0000001cH
  00010	59		 pop	 ecx
  00011	f7 f9		 idiv	 ecx
  00013	89 45 fc	 mov	 DWORD PTR __Bottom$[ebp], eax

; 2660 : 	for (_Diff _Hole = _Bottom / 2; 0 < _Hole; )

  00016	99		 cdq
  00017	2b c2		 sub	 eax, edx
  00019	8b d8		 mov	 ebx, eax
  0001b	d1 fb		 sar	 ebx, 1
  0001d	85 db		 test	 ebx, ebx
  0001f	7e 3a		 jle	 SHORT $LN1@Make_heap

; 2659 : 	_Diff _Bottom = _Last - _First;

  00021	56		 push	 esi
  00022	8b f3		 mov	 esi, ebx
  00024	6b f6 1c	 imul	 esi, 28			; 0000001cH
  00027	03 75 08	 add	 esi, DWORD PTR __First$[ebp]
  0002a	57		 push	 edi
  0002b	eb 03		 jmp	 SHORT $LN2@Make_heap
$LL11@Make_heap:
  0002d	8b 75 0c	 mov	 esi, DWORD PTR tv149[ebp]
$LN2@Make_heap:

; 2661 : 		{	// reheap top half, bottom to top
; 2662 : 		--_Hole;
; 2663 : 		_Ty _Val = _Move(*(_First + _Hole));

  00030	6a 07		 push	 7
  00032	59		 pop	 ecx

; 2664 : 		_Adjust_heap(_First, _Hole, _Bottom,
; 2665 : 			_Move(_Val), _Pred);

  00033	ff 75 10	 push	 DWORD PTR __Pred$[ebp]
  00036	8d 45 e0	 lea	 eax, DWORD PTR __Val$535431[ebp]
  00039	50		 push	 eax
  0003a	ff 75 fc	 push	 DWORD PTR __Bottom$[ebp]
  0003d	4b		 dec	 ebx
  0003e	83 ee 1c	 sub	 esi, 28			; 0000001cH
  00041	53		 push	 ebx
  00042	ff 75 08	 push	 DWORD PTR __First$[ebp]
  00045	8d 7d e0	 lea	 edi, DWORD PTR __Val$535431[ebp]
  00048	89 75 0c	 mov	 DWORD PTR tv149[ebp], esi
  0004b	f3 a5		 rep movsd
  0004d	e8 00 00 00 00	 call	 ??$_Adjust_heap@PAUChangeDirInfo@@HU1@VChangeDirSort@@@std@@YAXPAUChangeDirInfo@@HH$$QAU1@VChangeDirSort@@@Z ; std::_Adjust_heap<ChangeDirInfo *,int,ChangeDirInfo,ChangeDirSort>
  00052	83 c4 14	 add	 esp, 20			; 00000014H
  00055	85 db		 test	 ebx, ebx
  00057	7f d4		 jg	 SHORT $LL11@Make_heap
  00059	5f		 pop	 edi
  0005a	5e		 pop	 esi
$LN1@Make_heap:
  0005b	5b		 pop	 ebx

; 2666 : 		}
; 2667 : 	}

  0005c	c9		 leave
  0005d	c3		 ret	 0
??$_Make_heap@PAUChangeDirInfo@@HU1@VChangeDirSort@@@std@@YAXPAUChangeDirInfo@@0VChangeDirSort@@PAH0@Z ENDP ; std::_Make_heap<ChangeDirInfo *,int,ChangeDirInfo,ChangeDirSort>
_TEXT	ENDS
PUBLIC	??$_Pop_heap_0@PAUChangeDirInfo@@U1@VChangeDirSort@@@std@@YAXPAUChangeDirInfo@@0VChangeDirSort@@0@Z ; std::_Pop_heap_0<ChangeDirInfo *,ChangeDirInfo,ChangeDirSort>
; Function compile flags: /Ogsp
;	COMDAT ??$_Pop_heap_0@PAUChangeDirInfo@@U1@VChangeDirSort@@@std@@YAXPAUChangeDirInfo@@0VChangeDirSort@@0@Z
_TEXT	SEGMENT
__Val$ = -28						; size = 28
__First$ = 8						; size = 4
__Last$ = 12						; size = 4
__Pred$ = 16						; size = 1
___formal$ = 20						; size = 4
??$_Pop_heap_0@PAUChangeDirInfo@@U1@VChangeDirSort@@@std@@YAXPAUChangeDirInfo@@0VChangeDirSort@@0@Z PROC ; std::_Pop_heap_0<ChangeDirInfo *,ChangeDirInfo,ChangeDirSort>, COMDAT

; 2601 : 	{	// pop *_First to *(_Last - 1) and reheap, using _Pred

  00000	55		 push	 ebp
  00001	8b ec		 mov	 ebp, esp

; 2602 : 	_Ty _Val = _Move(*(_Last - 1));

  00003	8b 45 0c	 mov	 eax, DWORD PTR __Last$[ebp]
  00006	83 ec 1c	 sub	 esp, 28			; 0000001cH
  00009	56		 push	 esi
  0000a	57		 push	 edi
  0000b	6a 07		 push	 7
  0000d	59		 pop	 ecx
  0000e	83 c0 e4	 add	 eax, -28		; ffffffe4H

; 2603 : 	_Pop_heap(_First, _Last - 1, _Last - 1,
; 2604 : 		_Move(_Val), _Pred, _Dist_type(_First));

  00011	6a 00		 push	 0
  00013	ff 75 10	 push	 DWORD PTR __Pred$[ebp]
  00016	8b f0		 mov	 esi, eax
  00018	8d 7d e4	 lea	 edi, DWORD PTR __Val$[ebp]
  0001b	f3 a5		 rep movsd
  0001d	8d 4d e4	 lea	 ecx, DWORD PTR __Val$[ebp]
  00020	51		 push	 ecx
  00021	50		 push	 eax
  00022	50		 push	 eax
  00023	ff 75 08	 push	 DWORD PTR __First$[ebp]
  00026	e8 00 00 00 00	 call	 ??$_Pop_heap@PAUChangeDirInfo@@HU1@VChangeDirSort@@@std@@YAXPAUChangeDirInfo@@00$$QAU1@VChangeDirSort@@PAH@Z ; std::_Pop_heap<ChangeDirInfo *,int,ChangeDirInfo,ChangeDirSort>
  0002b	83 c4 18	 add	 esp, 24			; 00000018H
  0002e	5f		 pop	 edi
  0002f	5e		 pop	 esi

; 2605 : 	}

  00030	c9		 leave
  00031	c3		 ret	 0
??$_Pop_heap_0@PAUChangeDirInfo@@U1@VChangeDirSort@@@std@@YAXPAUChangeDirInfo@@0VChangeDirSort@@0@Z ENDP ; std::_Pop_heap_0<ChangeDirInfo *,ChangeDirInfo,ChangeDirSort>
_TEXT	ENDS
PUBLIC	??$_Dest_val@V?$allocator@UBuffInfoStruct@@@std@@UBuffInfoStruct@@@std@@YAXAAV?$allocator@UBuffInfoStruct@@@0@PAUBuffInfoStruct@@@Z ; std::_Dest_val<std::allocator<BuffInfoStruct>,BuffInfoStruct>
; Function compile flags: /Ogsp
; File c:\program files (x86)\microsoft visual studio 10.0\vc\include\xmemory
;	COMDAT ??$_Dest_val@V?$allocator@UBuffInfoStruct@@@std@@UBuffInfoStruct@@@std@@YAXAAV?$allocator@UBuffInfoStruct@@@0@PAUBuffInfoStruct@@@Z
_TEXT	SEGMENT
__Alval$ = 8						; size = 4
__Pdest$ = 12						; size = 4
??$_Dest_val@V?$allocator@UBuffInfoStruct@@@std@@UBuffInfoStruct@@@std@@YAXAAV?$allocator@UBuffInfoStruct@@@0@PAUBuffInfoStruct@@@Z PROC ; std::_Dest_val<std::allocator<BuffInfoStruct>,BuffInfoStruct>, COMDAT

; 286  : 	{	// destroy using allocator

  00000	55		 push	 ebp
  00001	8b ec		 mov	 ebp, esp

; 287  : 	_Alval.destroy(_Pdest);

  00003	8b 4d 0c	 mov	 ecx, DWORD PTR __Pdest$[ebp]

; 288  : 	}

  00006	5d		 pop	 ebp

; 287  : 	_Alval.destroy(_Pdest);

  00007	ff 25 00 00 00
	00		 jmp	 DWORD PTR __imp_??1ioHashString@@QAE@XZ
??$_Dest_val@V?$allocator@UBuffInfoStruct@@@std@@UBuffInfoStruct@@@std@@YAXAAV?$allocator@UBuffInfoStruct@@@0@PAUBuffInfoStruct@@@Z ENDP ; std::_Dest_val<std::allocator<BuffInfoStruct>,BuffInfoStruct>
_TEXT	ENDS
PUBLIC	?Process@ioAdhesiveMissileWeapon3@@UAEXMPAVioPlayStage@@@Z ; ioAdhesiveMissileWeapon3::Process
; Function compile flags: /Ogsp
; File d:\lost saga for developer\youtube\tutorial\source\src\lsclient\ioadhesivemissileweapon3.cpp
;	COMDAT ?Process@ioAdhesiveMissileWeapon3@@UAEXMPAVioPlayStage@@@Z
_TEXT	SEGMENT
tv175 = 8						; size = 4
_fTimePerSec$ = 8					; size = 4
tv178 = 12						; size = 4
_pStage$ = 12						; size = 4
?Process@ioAdhesiveMissileWeapon3@@UAEXMPAVioPlayStage@@@Z PROC ; ioAdhesiveMissileWeapon3::Process, COMDAT
; _this$ = ecx

; 256  : {

  00000	55		 push	 ebp
  00001	8b ec		 mov	 ebp, esp
  00003	56		 push	 esi
  00004	8b f1		 mov	 esi, ecx

; 257  : 	if( !m_bFirst )

  00006	80 be 9d 09 00
	00 00		 cmp	 BYTE PTR [esi+2461], 0
  0000d	75 23		 jne	 SHORT $LN2@Process

; 258  : 	{
; 259  : 		if( m_bOwnerAttach )

  0000f	80 be 9f 09 00
	00 00		 cmp	 BYTE PTR [esi+2463], 0

; 260  : 			ProcessAttachMove( fTimePerSec, pStage );

  00016	ff 75 0c	 push	 DWORD PTR _pStage$[ebp]
  00019	f3 0f 10 45 08	 movss	 xmm0, DWORD PTR _fTimePerSec$[ebp]
  0001e	51		 push	 ecx
  0001f	f3 0f 11 04 24	 movss	 DWORD PTR [esp], xmm0
  00024	74 07		 je	 SHORT $LN3@Process
  00026	e8 00 00 00 00	 call	 ?ProcessAttachMove@ioAdhesiveMissileWeapon3@@IAEXMPAVioPlayStage@@@Z ; ioAdhesiveMissileWeapon3::ProcessAttachMove

; 261  : 		else

  0002b	eb 05		 jmp	 SHORT $LN2@Process
$LN3@Process:

; 262  : 			ProcessNormalMove( fTimePerSec, pStage );

  0002d	e8 00 00 00 00	 call	 ?ProcessNormalMove@ioAdhesiveMissileWeapon3@@IAEXMPAVioPlayStage@@@Z ; ioAdhesiveMissileWeapon3::ProcessNormalMove
$LN2@Process:

; 263  : 	}
; 264  : 
; 265  : 	m_bFirst = false;
; 266  : 
; 267  : 	if( m_pFireBall )

  00032	8d 8e 94 08 00
	00		 lea	 ecx, DWORD PTR [esi+2196]
  00038	83 39 00	 cmp	 DWORD PTR [ecx], 0
  0003b	c6 86 9d 09 00
	00 00		 mov	 BYTE PTR [esi+2461], 0
  00042	5e		 pop	 esi
  00043	74 2c		 je	 SHORT $LN1@Process

; 268  : 	{
; 269  : 		m_pFireBall->Update( fTimePerSec * FLOAT1000 );

  00045	b8 e8 03 00 00	 mov	 eax, 1000		; 000003e8H
  0004a	8b 09		 mov	 ecx, DWORD PTR [ecx]
  0004c	83 c1 14	 add	 ecx, 20			; 00000014H
  0004f	8b 11		 mov	 edx, DWORD PTR [ecx]
  00051	89 45 0c	 mov	 DWORD PTR tv178[ebp], eax
  00054	db 45 0c	 fild	 DWORD PTR tv178[ebp]
  00057	85 c0		 test	 eax, eax
  00059	79 06		 jns	 SHORT $LN9@Process
  0005b	d8 05 00 00 00
	00		 fadd	 DWORD PTR __real@4f800000
$LN9@Process:
  00061	d8 4d 08	 fmul	 DWORD PTR _fTimePerSec$[ebp]
  00064	51		 push	 ecx
  00065	d9 5d 08	 fstp	 DWORD PTR tv175[ebp]
  00068	d9 45 08	 fld	 DWORD PTR tv175[ebp]
  0006b	d9 1c 24	 fstp	 DWORD PTR [esp]
  0006e	ff 52 40	 call	 DWORD PTR [edx+64]
$LN1@Process:

; 270  : 	}
; 271  : }

  00071	5d		 pop	 ebp
  00072	c2 08 00	 ret	 8
?Process@ioAdhesiveMissileWeapon3@@UAEXMPAVioPlayStage@@@Z ENDP ; ioAdhesiveMissileWeapon3::Process
_TEXT	ENDS
PUBLIC	??$_Destroy_range@V?$allocator@UChangeDirInfo@@@std@@@std@@YAXPAUChangeDirInfo@@0AAV?$allocator@UChangeDirInfo@@@0@@Z ; std::_Destroy_range<std::allocator<ChangeDirInfo> >
; Function compile flags: /Ogsp
; File c:\program files (x86)\microsoft visual studio 10.0\vc\include\xmemory
;	COMDAT ??$_Destroy_range@V?$allocator@UChangeDirInfo@@@std@@@std@@YAXPAUChangeDirInfo@@0AAV?$allocator@UChangeDirInfo@@@0@@Z
_TEXT	SEGMENT
__First$ = 8						; size = 4
__Last$ = 12						; size = 4
__Al$ = 16						; size = 4
??$_Destroy_range@V?$allocator@UChangeDirInfo@@@std@@@std@@YAXPAUChangeDirInfo@@0AAV?$allocator@UChangeDirInfo@@@0@@Z PROC ; std::_Destroy_range<std::allocator<ChangeDirInfo> >, COMDAT

; 88   : 	_Destroy_range(_First, _Last, _Al, _Ptr_cat(_First, _Last));
; 89   : 	}

  00000	c3		 ret	 0
??$_Destroy_range@V?$allocator@UChangeDirInfo@@@std@@@std@@YAXPAUChangeDirInfo@@0AAV?$allocator@UChangeDirInfo@@@0@@Z ENDP ; std::_Destroy_range<std::allocator<ChangeDirInfo> >
_TEXT	ENDS
PUBLIC	??$_Uninitialized_move@PAUChangeDirInfo@@PAU1@V?$allocator@UChangeDirInfo@@@std@@@std@@YAPAUChangeDirInfo@@PAU1@00AAV?$allocator@UChangeDirInfo@@@0@@Z ; std::_Uninitialized_move<ChangeDirInfo *,ChangeDirInfo *,std::allocator<ChangeDirInfo> >
; Function compile flags: /Ogsp
; File c:\program files (x86)\microsoft visual studio 10.0\vc\include\memory
;	COMDAT ??$_Uninitialized_move@PAUChangeDirInfo@@PAU1@V?$allocator@UChangeDirInfo@@@std@@@std@@YAPAUChangeDirInfo@@PAU1@00AAV?$allocator@UChangeDirInfo@@@0@@Z
_TEXT	SEGMENT
__Cat$538757 = -4					; size = 1
__First$ = 8						; size = 4
__Last$ = 12						; size = 4
__Dest$ = 16						; size = 4
__Al$ = 20						; size = 4
??$_Uninitialized_move@PAUChangeDirInfo@@PAU1@V?$allocator@UChangeDirInfo@@@std@@@std@@YAPAUChangeDirInfo@@PAU1@00AAV?$allocator@UChangeDirInfo@@@0@@Z PROC ; std::_Uninitialized_move<ChangeDirInfo *,ChangeDirInfo *,std::allocator<ChangeDirInfo> >, COMDAT

; 469  : 	{	// move [_First, _Last) to raw _Dest, using _Al

  00000	55		 push	 ebp
  00001	8b ec		 mov	 ebp, esp
  00003	51		 push	 ecx

; 470  : 	return (_Uninit_move(_First, _Last, _Dest, _Al,
; 471  : 		_Val_type(_First), _Ptr_cat(_First, _Dest)));

  00004	ff 75 fc	 push	 DWORD PTR __Cat$538757[ebp]
  00007	6a 00		 push	 0
  00009	ff 75 14	 push	 DWORD PTR __Al$[ebp]
  0000c	ff 75 10	 push	 DWORD PTR __Dest$[ebp]
  0000f	ff 75 0c	 push	 DWORD PTR __Last$[ebp]
  00012	ff 75 08	 push	 DWORD PTR __First$[ebp]
  00015	e8 00 00 00 00	 call	 ??$_Uninit_move@PAUChangeDirInfo@@PAU1@V?$allocator@UChangeDirInfo@@@std@@U1@@std@@YAPAUChangeDirInfo@@PAU1@00AAV?$allocator@UChangeDirInfo@@@0@0U_Nonscalar_ptr_iterator_tag@0@@Z ; std::_Uninit_move<ChangeDirInfo *,ChangeDirInfo *,std::allocator<ChangeDirInfo>,ChangeDirInfo>
  0001a	83 c4 18	 add	 esp, 24			; 00000018H

; 472  : 	}

  0001d	c9		 leave
  0001e	c3		 ret	 0
??$_Uninitialized_move@PAUChangeDirInfo@@PAU1@V?$allocator@UChangeDirInfo@@@std@@@std@@YAPAUChangeDirInfo@@PAU1@00AAV?$allocator@UChangeDirInfo@@@0@@Z ENDP ; std::_Uninitialized_move<ChangeDirInfo *,ChangeDirInfo *,std::allocator<ChangeDirInfo> >
_TEXT	ENDS
PUBLIC	??$_Unguarded_partition@PAUChangeDirInfo@@VChangeDirSort@@@std@@YA?AU?$pair@PAUChangeDirInfo@@PAU1@@0@PAUChangeDirInfo@@0VChangeDirSort@@@Z ; std::_Unguarded_partition<ChangeDirInfo *,ChangeDirSort>
; Function compile flags: /Ogsp
; File c:\program files (x86)\microsoft visual studio 10.0\vc\include\algorithm
;	COMDAT ??$_Unguarded_partition@PAUChangeDirInfo@@VChangeDirSort@@@std@@YA?AU?$pair@PAUChangeDirInfo@@PAU1@@0@PAUChangeDirInfo@@0VChangeDirSort@@@Z
_TEXT	SEGMENT
tv426 = -8						; size = 4
__Glast$ = -4						; size = 4
___$ReturnUdt$ = 8					; size = 4
__First$ = 12						; size = 4
__Last$ = 16						; size = 4
__Pred$ = 20						; size = 1
??$_Unguarded_partition@PAUChangeDirInfo@@VChangeDirSort@@@std@@YA?AU?$pair@PAUChangeDirInfo@@PAU1@@0@PAUChangeDirInfo@@0VChangeDirSort@@@Z PROC ; std::_Unguarded_partition<ChangeDirInfo *,ChangeDirSort>, COMDAT

; 3712 : 	{	// partition [_First, _Last), using _Pred

  00000	55		 push	 ebp
  00001	8b ec		 mov	 ebp, esp
  00003	51		 push	 ecx
  00004	51		 push	 ecx

; 3713 : 	_RanIt _Mid = _First + (_Last - _First) / 2;

  00005	8b 4d 10	 mov	 ecx, DWORD PTR __Last$[ebp]
  00008	53		 push	 ebx
  00009	56		 push	 esi
  0000a	57		 push	 edi
  0000b	8b 7d 0c	 mov	 edi, DWORD PTR __First$[ebp]
  0000e	8b c1		 mov	 eax, ecx
  00010	2b c7		 sub	 eax, edi
  00012	6a 1c		 push	 28			; 0000001cH
  00014	5e		 pop	 esi
  00015	99		 cdq
  00016	f7 fe		 idiv	 esi

; 3714 : 	_Median(_First, _Mid, _Last - 1, _Pred);

  00018	ff 75 14	 push	 DWORD PTR __Pred$[ebp]
  0001b	83 c1 e4	 add	 ecx, -28		; ffffffe4H
  0001e	51		 push	 ecx
  0001f	99		 cdq
  00020	2b c2		 sub	 eax, edx
  00022	8b f0		 mov	 esi, eax
  00024	d1 fe		 sar	 esi, 1
  00026	6b f6 1c	 imul	 esi, 28			; 0000001cH
  00029	03 f7		 add	 esi, edi
  0002b	56		 push	 esi
  0002c	57		 push	 edi
  0002d	e8 00 00 00 00	 call	 ??$_Median@PAUChangeDirInfo@@VChangeDirSort@@@std@@YAXPAUChangeDirInfo@@00VChangeDirSort@@@Z ; std::_Median<ChangeDirInfo *,ChangeDirSort>
  00032	83 c4 10	 add	 esp, 16			; 00000010H

; 3715 : 	_RanIt _Pfirst = _Mid;
; 3716 : 	_RanIt _Plast = _Pfirst + 1;

  00035	8d 5e 1c	 lea	 ebx, DWORD PTR [esi+28]
  00038	eb 76		 jmp	 SHORT $LN132@Unguarded_
$LL27@Unguarded_:

; 3717 : 
; 3718 : 	while (_First < _Pfirst
; 3719 : 		&& !_DEBUG_LT_PRED(_Pred, *(_Pfirst - 1), *_Pfirst)
; 3720 : 		&& !_Pred(*_Pfirst, *(_Pfirst - 1)))

  0003a	f3 0f 10 46 e4	 movss	 xmm0, DWORD PTR [esi-28]
  0003f	f3 0f 10 0e	 movss	 xmm1, DWORD PTR [esi]
  00043	0f 5a d0	 cvtps2pd xmm2, xmm0
  00046	0f 5a d9	 cvtps2pd xmm3, xmm1
  00049	66 0f 2f da	 comisd	 xmm3, xmm2
  0004d	77 65		 ja	 SHORT $LN120@Unguarded_
  0004f	0f 57 d2	 xorps	 xmm2, xmm2
  00052	0f 57 db	 xorps	 xmm3, xmm3
  00055	0f 5a d0	 cvtps2pd xmm2, xmm0
  00058	0f 5a d9	 cvtps2pd xmm3, xmm1
  0005b	66 0f 2e d3	 ucomisd xmm2, xmm3
  0005f	9f		 lahf
  00060	f6 c4 44	 test	 ah, 68			; 00000044H
  00063	7a 16		 jp	 SHORT $LN30@Unguarded_
  00065	f3 0f 10 56 f0	 movss	 xmm2, DWORD PTR [esi-16]
  0006a	f3 0f 10 5e 0c	 movss	 xmm3, DWORD PTR [esi+12]
  0006f	0f 5a d2	 cvtps2pd xmm2, xmm2
  00072	0f 5a db	 cvtps2pd xmm3, xmm3
  00075	66 0f 2f da	 comisd	 xmm3, xmm2
  00079	77 39		 ja	 SHORT $LN120@Unguarded_
$LN30@Unguarded_:
  0007b	0f 5a d1	 cvtps2pd xmm2, xmm1
  0007e	0f 5a d8	 cvtps2pd xmm3, xmm0
  00081	66 0f 2f da	 comisd	 xmm3, xmm2
  00085	77 2d		 ja	 SHORT $LN120@Unguarded_
  00087	0f 5a c9	 cvtps2pd xmm1, xmm1
  0008a	0f 5a c0	 cvtps2pd xmm0, xmm0
  0008d	66 0f 2e c8	 ucomisd xmm1, xmm0
  00091	9f		 lahf
  00092	f6 c4 44	 test	 ah, 68			; 00000044H
  00095	7a 16		 jp	 SHORT $LN36@Unguarded_
  00097	f3 0f 10 46 0c	 movss	 xmm0, DWORD PTR [esi+12]
  0009c	f3 0f 10 4e f0	 movss	 xmm1, DWORD PTR [esi-16]
  000a1	0f 5a c0	 cvtps2pd xmm0, xmm0
  000a4	0f 5a c9	 cvtps2pd xmm1, xmm1
  000a7	66 0f 2f c8	 comisd	 xmm1, xmm0
  000ab	77 07		 ja	 SHORT $LN120@Unguarded_
$LN36@Unguarded_:

; 3721 : 		--_Pfirst;

  000ad	83 c6 e4	 add	 esi, -28		; ffffffe4H
$LN132@Unguarded_:

; 3717 : 
; 3718 : 	while (_First < _Pfirst
; 3719 : 		&& !_DEBUG_LT_PRED(_Pred, *(_Pfirst - 1), *_Pfirst)
; 3720 : 		&& !_Pred(*_Pfirst, *(_Pfirst - 1)))

  000b0	3b fe		 cmp	 edi, esi
  000b2	72 86		 jb	 SHORT $LL27@Unguarded_
$LN120@Unguarded_:

; 3722 : 	while (_Plast < _Last
; 3723 : 		&& !_DEBUG_LT_PRED(_Pred, *_Plast, *_Pfirst)
; 3724 : 		&& !_Pred(*_Pfirst, *_Plast))

  000b4	3b 5d 10	 cmp	 ebx, DWORD PTR __Last$[ebp]
  000b7	0f 83 8b 00 00
	00		 jae	 $LN124@Unguarded_
  000bd	f3 0f 10 0e	 movss	 xmm1, DWORD PTR [esi]
$LL25@Unguarded_:
  000c1	f3 0f 10 03	 movss	 xmm0, DWORD PTR [ebx]
  000c5	0f 57 db	 xorps	 xmm3, xmm3
  000c8	0f 5a d0	 cvtps2pd xmm2, xmm0
  000cb	f3 0f 5a d9	 cvtss2sd xmm3, xmm1
  000cf	66 0f 2f da	 comisd	 xmm3, xmm2
  000d3	77 73		 ja	 SHORT $LN124@Unguarded_
  000d5	0f 57 d2	 xorps	 xmm2, xmm2
  000d8	0f 57 db	 xorps	 xmm3, xmm3
  000db	0f 5a d0	 cvtps2pd xmm2, xmm0
  000de	f3 0f 5a d9	 cvtss2sd xmm3, xmm1
  000e2	66 0f 2e d3	 ucomisd xmm2, xmm3
  000e6	9f		 lahf
  000e7	f6 c4 44	 test	 ah, 68			; 00000044H
  000ea	7a 16		 jp	 SHORT $LN42@Unguarded_
  000ec	f3 0f 10 53 0c	 movss	 xmm2, DWORD PTR [ebx+12]
  000f1	f3 0f 10 5e 0c	 movss	 xmm3, DWORD PTR [esi+12]
  000f6	0f 5a d2	 cvtps2pd xmm2, xmm2
  000f9	0f 5a db	 cvtps2pd xmm3, xmm3
  000fc	66 0f 2f da	 comisd	 xmm3, xmm2
  00100	77 46		 ja	 SHORT $LN124@Unguarded_
$LN42@Unguarded_:
  00102	0f 57 d2	 xorps	 xmm2, xmm2
  00105	f3 0f 5a d1	 cvtss2sd xmm2, xmm1
  00109	0f 5a d8	 cvtps2pd xmm3, xmm0
  0010c	66 0f 2f da	 comisd	 xmm3, xmm2
  00110	77 36		 ja	 SHORT $LN124@Unguarded_
  00112	0f 57 d2	 xorps	 xmm2, xmm2
  00115	f3 0f 5a d1	 cvtss2sd xmm2, xmm1
  00119	0f 5a c0	 cvtps2pd xmm0, xmm0
  0011c	66 0f 2e d0	 ucomisd xmm2, xmm0
  00120	9f		 lahf
  00121	f6 c4 44	 test	 ah, 68			; 00000044H
  00124	7a 16		 jp	 SHORT $LN48@Unguarded_
  00126	f3 0f 10 46 0c	 movss	 xmm0, DWORD PTR [esi+12]
  0012b	f3 0f 10 53 0c	 movss	 xmm2, DWORD PTR [ebx+12]
  00130	0f 5a c0	 cvtps2pd xmm0, xmm0
  00133	0f 5a d2	 cvtps2pd xmm2, xmm2
  00136	66 0f 2f d0	 comisd	 xmm2, xmm0
  0013a	77 0c		 ja	 SHORT $LN124@Unguarded_
$LN48@Unguarded_:

; 3725 : 		++_Plast;

  0013c	83 c3 1c	 add	 ebx, 28			; 0000001cH
  0013f	3b 5d 10	 cmp	 ebx, DWORD PTR __Last$[ebp]
  00142	0f 82 79 ff ff
	ff		 jb	 $LL25@Unguarded_
$LN124@Unguarded_:

; 3726 : 
; 3727 : 	_RanIt _Gfirst = _Plast;

  00148	8b fb		 mov	 edi, ebx

; 3728 : 	_RanIt _Glast = _Pfirst;

  0014a	89 75 fc	 mov	 DWORD PTR __Glast$[ebp], esi

; 3729 : 
; 3730 : 	for (; ; )
; 3731 : 		{	// partition
; 3732 : 		for (; _Gfirst < _Last; ++_Gfirst)

  0014d	e9 83 00 00 00	 jmp	 $LN134@Unguarded_
$LL21@Unguarded_:

; 3733 : 			if (_DEBUG_LT_PRED(_Pred, *_Pfirst, *_Gfirst))

  00152	f3 0f 10 06	 movss	 xmm0, DWORD PTR [esi]
  00156	f3 0f 10 0f	 movss	 xmm1, DWORD PTR [edi]
  0015a	0f 5a d0	 cvtps2pd xmm2, xmm0
  0015d	0f 5a d9	 cvtps2pd xmm3, xmm1
  00160	66 0f 2f da	 comisd	 xmm3, xmm2
  00164	77 6c		 ja	 SHORT $LN20@Unguarded_
  00166	0f 57 d2	 xorps	 xmm2, xmm2
  00169	0f 57 db	 xorps	 xmm3, xmm3
  0016c	0f 5a d0	 cvtps2pd xmm2, xmm0
  0016f	0f 5a d9	 cvtps2pd xmm3, xmm1
  00172	66 0f 2e d3	 ucomisd xmm2, xmm3
  00176	9f		 lahf
  00177	f6 c4 44	 test	 ah, 68			; 00000044H
  0017a	7a 16		 jp	 SHORT $LN54@Unguarded_
  0017c	f3 0f 10 56 0c	 movss	 xmm2, DWORD PTR [esi+12]
  00181	f3 0f 10 5f 0c	 movss	 xmm3, DWORD PTR [edi+12]
  00186	0f 5a d2	 cvtps2pd xmm2, xmm2
  00189	0f 5a db	 cvtps2pd xmm3, xmm3
  0018c	66 0f 2f da	 comisd	 xmm3, xmm2
  00190	77 40		 ja	 SHORT $LN20@Unguarded_
$LN54@Unguarded_:

; 3734 : 				;
; 3735 : 			else if (_Pred(*_Gfirst, *_Pfirst))

  00192	0f 5a d1	 cvtps2pd xmm2, xmm1
  00195	0f 5a d8	 cvtps2pd xmm3, xmm0
  00198	66 0f 2f da	 comisd	 xmm3, xmm2
  0019c	77 40		 ja	 SHORT $LN130@Unguarded_
  0019e	0f 5a c9	 cvtps2pd xmm1, xmm1
  001a1	0f 5a c0	 cvtps2pd xmm0, xmm0
  001a4	66 0f 2e c8	 ucomisd xmm1, xmm0
  001a8	9f		 lahf
  001a9	f6 c4 44	 test	 ah, 68			; 00000044H
  001ac	7a 16		 jp	 SHORT $LN60@Unguarded_
  001ae	f3 0f 10 47 0c	 movss	 xmm0, DWORD PTR [edi+12]
  001b3	f3 0f 10 4e 0c	 movss	 xmm1, DWORD PTR [esi+12]
  001b8	0f 5a c0	 cvtps2pd xmm0, xmm0
  001bb	0f 5a c9	 cvtps2pd xmm1, xmm1
  001be	66 0f 2f c8	 comisd	 xmm1, xmm0
  001c2	77 1a		 ja	 SHORT $LN130@Unguarded_
$LN60@Unguarded_:

; 3736 : 				break;
; 3737 : 			else
; 3738 : 				_STD iter_swap(_Plast++, _Gfirst);

  001c4	8b c3		 mov	 eax, ebx
  001c6	57		 push	 edi
  001c7	83 c3 1c	 add	 ebx, 28			; 0000001cH
  001ca	50		 push	 eax
$LN135@Unguarded_:
  001cb	e8 00 00 00 00	 call	 ??$swap@UChangeDirInfo@@@std@@YAXAAUChangeDirInfo@@0@Z ; std::swap<ChangeDirInfo>
  001d0	59		 pop	 ecx
  001d1	59		 pop	 ecx
$LN20@Unguarded_:

; 3729 : 
; 3730 : 	for (; ; )
; 3731 : 		{	// partition
; 3732 : 		for (; _Gfirst < _Last; ++_Gfirst)

  001d2	83 c7 1c	 add	 edi, 28			; 0000001cH
$LN134@Unguarded_:
  001d5	3b 7d 10	 cmp	 edi, DWORD PTR __Last$[ebp]
  001d8	0f 82 74 ff ff
	ff		 jb	 $LL21@Unguarded_
$LN130@Unguarded_:

; 3739 : 		for (; _First < _Glast; --_Glast)

  001de	8b 45 0c	 mov	 eax, DWORD PTR __First$[ebp]
  001e1	3b 45 fc	 cmp	 eax, DWORD PTR __Glast$[ebp]
  001e4	0f 83 96 00 00
	00		 jae	 $LN131@Unguarded_
$LL129@Unguarded_:
  001ea	8b 55 fc	 mov	 edx, DWORD PTR __Glast$[ebp]

; 3740 : 			if (_DEBUG_LT_PRED(_Pred, *(_Glast - 1), *_Pfirst))

  001ed	f3 0f 10 0e	 movss	 xmm1, DWORD PTR [esi]
  001f1	8d 4a e4	 lea	 ecx, DWORD PTR [edx-28]
  001f4	f3 0f 10 01	 movss	 xmm0, DWORD PTR [ecx]
  001f8	0f 5a d0	 cvtps2pd xmm2, xmm0
  001fb	0f 5a d9	 cvtps2pd xmm3, xmm1
  001fe	66 0f 2f da	 comisd	 xmm3, xmm2
  00202	89 4d f8	 mov	 DWORD PTR tv426[ebp], ecx
  00205	77 6d		 ja	 SHORT $LN13@Unguarded_
  00207	0f 57 d2	 xorps	 xmm2, xmm2
  0020a	0f 57 db	 xorps	 xmm3, xmm3
  0020d	0f 5a d0	 cvtps2pd xmm2, xmm0
  00210	0f 5a d9	 cvtps2pd xmm3, xmm1
  00213	66 0f 2e d3	 ucomisd xmm2, xmm3
  00217	9f		 lahf
  00218	f6 c4 44	 test	 ah, 68			; 00000044H
  0021b	7a 16		 jp	 SHORT $LN68@Unguarded_
  0021d	f3 0f 10 52 f0	 movss	 xmm2, DWORD PTR [edx-16]
  00222	f3 0f 10 5e 0c	 movss	 xmm3, DWORD PTR [esi+12]
  00227	0f 5a d2	 cvtps2pd xmm2, xmm2
  0022a	0f 5a db	 cvtps2pd xmm3, xmm3
  0022d	66 0f 2f da	 comisd	 xmm3, xmm2
  00231	77 41		 ja	 SHORT $LN13@Unguarded_
$LN68@Unguarded_:

; 3741 : 				;
; 3742 : 			else if (_Pred(*_Pfirst, *(_Glast - 1)))

  00233	0f 5a d1	 cvtps2pd xmm2, xmm1
  00236	0f 5a d8	 cvtps2pd xmm3, xmm0
  00239	66 0f 2f da	 comisd	 xmm3, xmm2
  0023d	77 41		 ja	 SHORT $LN131@Unguarded_
  0023f	0f 5a c9	 cvtps2pd xmm1, xmm1
  00242	0f 5a c0	 cvtps2pd xmm0, xmm0
  00245	66 0f 2e c8	 ucomisd xmm1, xmm0
  00249	9f		 lahf
  0024a	f6 c4 44	 test	 ah, 68			; 00000044H
  0024d	7a 16		 jp	 SHORT $LN74@Unguarded_
  0024f	f3 0f 10 46 0c	 movss	 xmm0, DWORD PTR [esi+12]
  00254	f3 0f 10 4a f0	 movss	 xmm1, DWORD PTR [edx-16]
  00259	0f 5a c0	 cvtps2pd xmm0, xmm0
  0025c	0f 5a c9	 cvtps2pd xmm1, xmm1
  0025f	66 0f 2f c8	 comisd	 xmm1, xmm0
  00263	77 1b		 ja	 SHORT $LN131@Unguarded_
$LN74@Unguarded_:

; 3743 : 				break;
; 3744 : 			else
; 3745 : 				_STD iter_swap(--_Pfirst, _Glast - 1);

  00265	83 ee 1c	 sub	 esi, 28			; 0000001cH
  00268	51		 push	 ecx
  00269	56		 push	 esi
  0026a	e8 00 00 00 00	 call	 ??$swap@UChangeDirInfo@@@std@@YAXAAUChangeDirInfo@@0@Z ; std::swap<ChangeDirInfo>
  0026f	59		 pop	 ecx
  00270	59		 pop	 ecx
  00271	8b 4d f8	 mov	 ecx, DWORD PTR tv426[ebp]
$LN13@Unguarded_:

; 3739 : 		for (; _First < _Glast; --_Glast)

  00274	89 4d fc	 mov	 DWORD PTR __Glast$[ebp], ecx
  00277	39 4d 0c	 cmp	 DWORD PTR __First$[ebp], ecx
  0027a	0f 82 6a ff ff
	ff		 jb	 $LL129@Unguarded_
$LN131@Unguarded_:

; 3746 : 		if (_Glast == _First && _Gfirst == _Last)

  00280	8b 45 fc	 mov	 eax, DWORD PTR __Glast$[ebp]
  00283	3b 45 0c	 cmp	 eax, DWORD PTR __First$[ebp]
  00286	75 1f		 jne	 SHORT $LN6@Unguarded_
  00288	3b 7d 10	 cmp	 edi, DWORD PTR __Last$[ebp]
  0028b	74 50		 je	 SHORT $LN112@Unguarded_

; 3748 : 
; 3749 : 		if (_Glast == _First)
; 3750 : 			{	// no room at bottom, rotate pivot upward
; 3751 : 			if (_Plast != _Gfirst)

  0028d	3b df		 cmp	 ebx, edi
  0028f	74 09		 je	 SHORT $LN94@Unguarded_

; 3752 : 				_STD iter_swap(_Pfirst, _Plast);

  00291	53		 push	 ebx
  00292	56		 push	 esi
  00293	e8 00 00 00 00	 call	 ??$swap@UChangeDirInfo@@@std@@YAXAAUChangeDirInfo@@0@Z ; std::swap<ChangeDirInfo>
  00298	59		 pop	 ecx
  00299	59		 pop	 ecx
$LN94@Unguarded_:

; 3753 : 			++_Plast;
; 3754 : 			_STD iter_swap(_Pfirst++, _Gfirst++);

  0029a	57		 push	 edi
  0029b	56		 push	 esi
  0029c	83 c3 1c	 add	 ebx, 28			; 0000001cH
  0029f	83 c6 1c	 add	 esi, 28			; 0000001cH
  002a2	83 c7 1c	 add	 edi, 28			; 0000001cH
  002a5	eb 21		 jmp	 SHORT $LN133@Unguarded_
$LN6@Unguarded_:

; 3755 : 			}
; 3756 : 		else if (_Gfirst == _Last)
; 3757 : 			{	// no room at top, rotate pivot downward
; 3758 : 			if (--_Glast != --_Pfirst)

  002a7	83 6d fc 1c	 sub	 DWORD PTR __Glast$[ebp], 28 ; 0000001cH
  002ab	3b 7d 10	 cmp	 edi, DWORD PTR __Last$[ebp]
  002ae	75 24		 jne	 SHORT $LN3@Unguarded_
  002b0	83 ee 1c	 sub	 esi, 28			; 0000001cH
  002b3	39 75 fc	 cmp	 DWORD PTR __Glast$[ebp], esi
  002b6	74 0b		 je	 SHORT $LN98@Unguarded_

; 3759 : 				_STD iter_swap(_Glast, _Pfirst);

  002b8	56		 push	 esi
  002b9	ff 75 fc	 push	 DWORD PTR __Glast$[ebp]
  002bc	e8 00 00 00 00	 call	 ??$swap@UChangeDirInfo@@@std@@YAXAAUChangeDirInfo@@0@Z ; std::swap<ChangeDirInfo>
  002c1	59		 pop	 ecx
  002c2	59		 pop	 ecx
$LN98@Unguarded_:

; 3760 : 			_STD iter_swap(_Pfirst, --_Plast);

  002c3	83 eb 1c	 sub	 ebx, 28			; 0000001cH
  002c6	53		 push	 ebx
  002c7	56		 push	 esi
$LN133@Unguarded_:
  002c8	e8 00 00 00 00	 call	 ??$swap@UChangeDirInfo@@@std@@YAXAAUChangeDirInfo@@0@Z ; std::swap<ChangeDirInfo>
  002cd	59		 pop	 ecx
  002ce	59		 pop	 ecx

; 3761 : 			}
; 3762 : 		else

  002cf	e9 01 ff ff ff	 jmp	 $LN134@Unguarded_
$LN3@Unguarded_:

; 3763 : 			_STD iter_swap(_Gfirst++, --_Glast);

  002d4	ff 75 fc	 push	 DWORD PTR __Glast$[ebp]
  002d7	57		 push	 edi

; 3764 : 		}

  002d8	e9 ee fe ff ff	 jmp	 $LN135@Unguarded_
$LN112@Unguarded_:

; 3747 : 			return (_STD pair<_RanIt, _RanIt>(_Pfirst, _Plast));

  002dd	8b 45 08	 mov	 eax, DWORD PTR ___$ReturnUdt$[ebp]
  002e0	5f		 pop	 edi
  002e1	89 30		 mov	 DWORD PTR [eax], esi
  002e3	5e		 pop	 esi
  002e4	89 58 04	 mov	 DWORD PTR [eax+4], ebx
  002e7	5b		 pop	 ebx

; 3765 : 	}

  002e8	c9		 leave
  002e9	c3		 ret	 0
??$_Unguarded_partition@PAUChangeDirInfo@@VChangeDirSort@@@std@@YA?AU?$pair@PAUChangeDirInfo@@PAU1@@0@PAUChangeDirInfo@@0VChangeDirSort@@@Z ENDP ; std::_Unguarded_partition<ChangeDirInfo *,ChangeDirSort>
_TEXT	ENDS
PUBLIC	??$make_heap@PAUChangeDirInfo@@VChangeDirSort@@@std@@YAXPAUChangeDirInfo@@0VChangeDirSort@@@Z ; std::make_heap<ChangeDirInfo *,ChangeDirSort>
; Function compile flags: /Ogsp
;	COMDAT ??$make_heap@PAUChangeDirInfo@@VChangeDirSort@@@std@@YAXPAUChangeDirInfo@@0VChangeDirSort@@@Z
_TEXT	SEGMENT
__First$ = 8						; size = 4
__Last$ = 12						; size = 4
__Pred$ = 16						; size = 1
??$make_heap@PAUChangeDirInfo@@VChangeDirSort@@@std@@YAXPAUChangeDirInfo@@0VChangeDirSort@@@Z PROC ; std::make_heap<ChangeDirInfo *,ChangeDirSort>, COMDAT

; 2672 : 	{	// make [_First, _Last) into a heap, using _Pred

  00000	55		 push	 ebp
  00001	8b ec		 mov	 ebp, esp

; 2673 : 	_DEBUG_RANGE(_First, _Last);
; 2674 : 	_DEBUG_POINTER(_Pred);
; 2675 : 	if (1 < _Last - _First)

  00003	8b 45 0c	 mov	 eax, DWORD PTR __Last$[ebp]
  00006	2b 45 08	 sub	 eax, DWORD PTR __First$[ebp]
  00009	6a 1c		 push	 28			; 0000001cH
  0000b	99		 cdq
  0000c	59		 pop	 ecx
  0000d	f7 f9		 idiv	 ecx
  0000f	83 f8 01	 cmp	 eax, 1
  00012	7e 15		 jle	 SHORT $LN1@make_heap

; 2676 : 		_Make_heap(_Unchecked(_First), _Unchecked(_Last), _Pred,
; 2677 : 			_Dist_type(_First), _Val_type(_First));

  00014	6a 00		 push	 0
  00016	6a 00		 push	 0
  00018	ff 75 10	 push	 DWORD PTR __Pred$[ebp]
  0001b	ff 75 0c	 push	 DWORD PTR __Last$[ebp]
  0001e	ff 75 08	 push	 DWORD PTR __First$[ebp]
  00021	e8 00 00 00 00	 call	 ??$_Make_heap@PAUChangeDirInfo@@HU1@VChangeDirSort@@@std@@YAXPAUChangeDirInfo@@0VChangeDirSort@@PAH0@Z ; std::_Make_heap<ChangeDirInfo *,int,ChangeDirInfo,ChangeDirSort>
  00026	83 c4 14	 add	 esp, 20			; 00000014H
$LN1@make_heap:

; 2678 : 	}

  00029	5d		 pop	 ebp
  0002a	c3		 ret	 0
??$make_heap@PAUChangeDirInfo@@VChangeDirSort@@@std@@YAXPAUChangeDirInfo@@0VChangeDirSort@@@Z ENDP ; std::make_heap<ChangeDirInfo *,ChangeDirSort>
_TEXT	ENDS
PUBLIC	??$_Uninit_move@PAUBuffInfoStruct@@PAU1@V?$allocator@UBuffInfoStruct@@@std@@U1@@std@@YAPAUBuffInfoStruct@@PAU1@00AAV?$allocator@UBuffInfoStruct@@@0@0U_Nonscalar_ptr_iterator_tag@0@@Z ; std::_Uninit_move<BuffInfoStruct *,BuffInfoStruct *,std::allocator<BuffInfoStruct>,BuffInfoStruct>
EXTRN	__EH_prolog3_catch:PROC
;	COMDAT xdata$x
; File d:\lost saga for developer\youtube\tutorial\source\src\lsclient\weaponattribute.h
xdata$x	SEGMENT
__catchsym$??$_Uninit_move@PAUBuffInfoStruct@@PAU1@V?$allocator@UBuffInfoStruct@@@std@@U1@@std@@YAPAUBuffInfoStruct@@PAU1@00AAV?$allocator@UBuffInfoStruct@@@0@0U_Nonscalar_ptr_iterator_tag@0@@Z$3 DD 040H
	DD	00H
	DD	00H
	DD	FLAT:__catch$??$_Uninit_move@PAUBuffInfoStruct@@PAU1@V?$allocator@UBuffInfoStruct@@@std@@U1@@std@@YAPAUBuffInfoStruct@@PAU1@00AAV?$allocator@UBuffInfoStruct@@@0@0U_Nonscalar_ptr_iterator_tag@0@@Z$0
__unwindtable$??$_Uninit_move@PAUBuffInfoStruct@@PAU1@V?$allocator@UBuffInfoStruct@@@std@@U1@@std@@YAPAUBuffInfoStruct@@PAU1@00AAV?$allocator@UBuffInfoStruct@@@0@0U_Nonscalar_ptr_iterator_tag@0@@Z DD 0ffffffffH
	DD	00H
	DD	0ffffffffH
	DD	00H
__tryblocktable$??$_Uninit_move@PAUBuffInfoStruct@@PAU1@V?$allocator@UBuffInfoStruct@@@std@@U1@@std@@YAPAUBuffInfoStruct@@PAU1@00AAV?$allocator@UBuffInfoStruct@@@0@0U_Nonscalar_ptr_iterator_tag@0@@Z DD 00H
	DD	00H
	DD	01H
	DD	01H
	DD	FLAT:__catchsym$??$_Uninit_move@PAUBuffInfoStruct@@PAU1@V?$allocator@UBuffInfoStruct@@@std@@U1@@std@@YAPAUBuffInfoStruct@@PAU1@00AAV?$allocator@UBuffInfoStruct@@@0@0U_Nonscalar_ptr_iterator_tag@0@@Z$3
__ehfuncinfo$??$_Uninit_move@PAUBuffInfoStruct@@PAU1@V?$allocator@UBuffInfoStruct@@@std@@U1@@std@@YAPAUBuffInfoStruct@@PAU1@00AAV?$allocator@UBuffInfoStruct@@@0@0U_Nonscalar_ptr_iterator_tag@0@@Z DD 019930522H
	DD	02H
	DD	FLAT:__unwindtable$??$_Uninit_move@PAUBuffInfoStruct@@PAU1@V?$allocator@UBuffInfoStruct@@@std@@U1@@std@@YAPAUBuffInfoStruct@@PAU1@00AAV?$allocator@UBuffInfoStruct@@@0@0U_Nonscalar_ptr_iterator_tag@0@@Z
	DD	01H
	DD	FLAT:__tryblocktable$??$_Uninit_move@PAUBuffInfoStruct@@PAU1@V?$allocator@UBuffInfoStruct@@@std@@U1@@std@@YAPAUBuffInfoStruct@@PAU1@00AAV?$allocator@UBuffInfoStruct@@@0@0U_Nonscalar_ptr_iterator_tag@0@@Z
	DD	2 DUP(00H)
	DD	00H
	DD	01H
; Function compile flags: /Ogsp
; File c:\program files (x86)\microsoft visual studio 10.0\vc\include\memory
xdata$x	ENDS
;	COMDAT ??$_Uninit_move@PAUBuffInfoStruct@@PAU1@V?$allocator@UBuffInfoStruct@@@std@@U1@@std@@YAPAUBuffInfoStruct@@PAU1@00AAV?$allocator@UBuffInfoStruct@@@0@0U_Nonscalar_ptr_iterator_tag@0@@Z
_TEXT	SEGMENT
__Next$ = -20						; size = 4
__$EHRec$ = -16						; size = 16
__First$ = 8						; size = 4
__Last$ = 12						; size = 4
__Dest$ = 16						; size = 4
__Al$ = 20						; size = 4
___formal$ = 24						; size = 4
___formal$ = 28						; size = 1
??$_Uninit_move@PAUBuffInfoStruct@@PAU1@V?$allocator@UBuffInfoStruct@@@std@@U1@@std@@YAPAUBuffInfoStruct@@PAU1@00AAV?$allocator@UBuffInfoStruct@@@0@0U_Nonscalar_ptr_iterator_tag@0@@Z PROC ; std::_Uninit_move<BuffInfoStruct *,BuffInfoStruct *,std::allocator<BuffInfoStruct>,BuffInfoStruct>, COMDAT

; 424  : 	{	// move [_First, _Last) to raw _Dest, using _Al, arbitrary type

  00000	6a 08		 push	 8
  00002	b8 00 00 00 00	 mov	 eax, __ehhandler$??$_Uninit_move@PAUBuffInfoStruct@@PAU1@V?$allocator@UBuffInfoStruct@@@std@@U1@@std@@YAPAUBuffInfoStruct@@PAU1@00AAV?$allocator@UBuffInfoStruct@@@0@0U_Nonscalar_ptr_iterator_tag@0@@Z
  00007	e8 00 00 00 00	 call	 __EH_prolog3_catch

; 425  : 	_DEBUG_RANGE(_First, _Last);
; 426  : 	_DEBUG_POINTER(_Dest);
; 427  : 	_FwdIt _Next = _Dest;

  0000c	8b 45 10	 mov	 eax, DWORD PTR __Dest$[ebp]

; 428  : 
; 429  : 	_TRY_BEGIN

  0000f	83 65 fc 00	 and	 DWORD PTR __$EHRec$[ebp+12], 0
  00013	8b 75 08	 mov	 esi, DWORD PTR __First$[ebp]
  00016	89 45 ec	 mov	 DWORD PTR __Next$[ebp], eax
$LL6@Uninit_mov@2:

; 430  : 	for (; _First != _Last; ++_Dest, ++_First)

  00019	3b 75 0c	 cmp	 esi, DWORD PTR __Last$[ebp]
  0001c	74 33		 je	 SHORT $LN4@Uninit_mov@2

; 431  : 		_Cons_val(_Al, _Dest, (_Valty &&)*_First);

  0001e	8b 4d 14	 mov	 ecx, DWORD PTR __Al$[ebp]
  00021	56		 push	 esi
  00022	ff 75 10	 push	 DWORD PTR __Dest$[ebp]
  00025	e8 00 00 00 00	 call	 ?construct@?$allocator@UBuffInfoStruct@@@std@@QAEXPAUBuffInfoStruct@@$$QAU3@@Z ; std::allocator<BuffInfoStruct>::construct
  0002a	83 45 10 14	 add	 DWORD PTR __Dest$[ebp], 20 ; 00000014H
  0002e	83 c6 14	 add	 esi, 20			; 00000014H
  00031	eb e6		 jmp	 SHORT $LL6@Uninit_mov@2
__catch$??$_Uninit_move@PAUBuffInfoStruct@@PAU1@V?$allocator@UBuffInfoStruct@@@std@@U1@@std@@YAPAUBuffInfoStruct@@PAU1@00AAV?$allocator@UBuffInfoStruct@@@0@0U_Nonscalar_ptr_iterator_tag@0@@Z$0:

; 432  : 	_CATCH_ALL
; 433  : 	for (; _Next != _Dest; ++_Next)

  00033	8b 75 ec	 mov	 esi, DWORD PTR __Next$[ebp]
  00036	eb 0b		 jmp	 SHORT $LN36@Uninit_mov@2
$LL3@Uninit_mov@2:

; 434  : 		_Dest_val(_Al, _Next);

  00038	8b ce		 mov	 ecx, esi
  0003a	ff 15 00 00 00
	00		 call	 DWORD PTR __imp_??1ioHashString@@QAE@XZ
  00040	83 c6 14	 add	 esi, 20			; 00000014H
$LN36@Uninit_mov@2:

; 432  : 	_CATCH_ALL
; 433  : 	for (; _Next != _Dest; ++_Next)

  00043	3b 75 10	 cmp	 esi, DWORD PTR __Dest$[ebp]
  00046	75 f0		 jne	 SHORT $LL3@Uninit_mov@2

; 435  : 	_RERAISE;

  00048	6a 00		 push	 0
  0004a	6a 00		 push	 0
  0004c	e8 00 00 00 00	 call	 __CxxThrowException@8
$LN37@Uninit_mov@2:
$LN4@Uninit_mov@2:

; 436  : 	_CATCH_END
; 437  : 	return (_Dest);

  00051	8b 45 10	 mov	 eax, DWORD PTR __Dest$[ebp]

; 438  : 	}

  00054	e8 00 00 00 00	 call	 __EH_epilog3
  00059	c3		 ret	 0
$LN35@Uninit_mov@2:
_TEXT	ENDS
;	COMDAT text$x
text$x	SEGMENT
__ehhandler$??$_Uninit_move@PAUBuffInfoStruct@@PAU1@V?$allocator@UBuffInfoStruct@@@std@@U1@@std@@YAPAUBuffInfoStruct@@PAU1@00AAV?$allocator@UBuffInfoStruct@@@0@0U_Nonscalar_ptr_iterator_tag@0@@Z:
  00000	8b 54 24 08	 mov	 edx, DWORD PTR [esp+8]
  00004	8d 42 0c	 lea	 eax, DWORD PTR [edx+12]
  00007	8b 4a e8	 mov	 ecx, DWORD PTR [edx-24]
  0000a	33 c8		 xor	 ecx, eax
  0000c	e8 00 00 00 00	 call	 @__security_check_cookie@4
  00011	b8 00 00 00 00	 mov	 eax, OFFSET __ehfuncinfo$??$_Uninit_move@PAUBuffInfoStruct@@PAU1@V?$allocator@UBuffInfoStruct@@@std@@U1@@std@@YAPAUBuffInfoStruct@@PAU1@00AAV?$allocator@UBuffInfoStruct@@@0@0U_Nonscalar_ptr_iterator_tag@0@@Z
  00016	e9 00 00 00 00	 jmp	 ___CxxFrameHandler3
text$x	ENDS
??$_Uninit_move@PAUBuffInfoStruct@@PAU1@V?$allocator@UBuffInfoStruct@@@std@@U1@@std@@YAPAUBuffInfoStruct@@PAU1@00AAV?$allocator@UBuffInfoStruct@@@0@0U_Nonscalar_ptr_iterator_tag@0@@Z ENDP ; std::_Uninit_move<BuffInfoStruct *,BuffInfoStruct *,std::allocator<BuffInfoStruct>,BuffInfoStruct>
PUBLIC	??$_Pop_heap@PAUChangeDirInfo@@VChangeDirSort@@@std@@YAXPAUChangeDirInfo@@0VChangeDirSort@@@Z ; std::_Pop_heap<ChangeDirInfo *,ChangeDirSort>
; Function compile flags: /Ogsp
; File c:\program files (x86)\microsoft visual studio 10.0\vc\include\algorithm
;	COMDAT ??$_Pop_heap@PAUChangeDirInfo@@VChangeDirSort@@@std@@YAXPAUChangeDirInfo@@0VChangeDirSort@@@Z
_TEXT	SEGMENT
__First$ = 8						; size = 4
__Last$ = 12						; size = 4
__Pred$ = 16						; size = 1
??$_Pop_heap@PAUChangeDirInfo@@VChangeDirSort@@@std@@YAXPAUChangeDirInfo@@0VChangeDirSort@@@Z PROC ; std::_Pop_heap<ChangeDirInfo *,ChangeDirSort>, COMDAT

; 2610 : 	{	// pop *_First to *(_Last - 1) and reheap, using _Pred

  00000	55		 push	 ebp
  00001	8b ec		 mov	 ebp, esp

; 2611 : 	_Pop_heap_0(_Unchecked(_First), _Unchecked(_Last), _Pred,
; 2612 : 		_Val_type(_First));

  00003	6a 00		 push	 0
  00005	ff 75 10	 push	 DWORD PTR __Pred$[ebp]
  00008	ff 75 0c	 push	 DWORD PTR __Last$[ebp]
  0000b	ff 75 08	 push	 DWORD PTR __First$[ebp]
  0000e	e8 00 00 00 00	 call	 ??$_Pop_heap_0@PAUChangeDirInfo@@U1@VChangeDirSort@@@std@@YAXPAUChangeDirInfo@@0VChangeDirSort@@0@Z ; std::_Pop_heap_0<ChangeDirInfo *,ChangeDirInfo,ChangeDirSort>
  00013	83 c4 10	 add	 esp, 16			; 00000010H

; 2613 : 	}

  00016	5d		 pop	 ebp
  00017	c3		 ret	 0
??$_Pop_heap@PAUChangeDirInfo@@VChangeDirSort@@@std@@YAXPAUChangeDirInfo@@0VChangeDirSort@@@Z ENDP ; std::_Pop_heap<ChangeDirInfo *,ChangeDirSort>
_TEXT	ENDS
PUBLIC	??$_Destroy_range@V?$allocator@UBuffInfoStruct@@@std@@@std@@YAXPAUBuffInfoStruct@@0AAV?$allocator@UBuffInfoStruct@@@0@U_Nonscalar_ptr_iterator_tag@0@@Z ; std::_Destroy_range<std::allocator<BuffInfoStruct> >
; Function compile flags: /Ogsp
; File c:\program files (x86)\microsoft visual studio 10.0\vc\include\xmemory
;	COMDAT ??$_Destroy_range@V?$allocator@UBuffInfoStruct@@@std@@@std@@YAXPAUBuffInfoStruct@@0AAV?$allocator@UBuffInfoStruct@@@0@U_Nonscalar_ptr_iterator_tag@0@@Z
_TEXT	SEGMENT
__First$ = 8						; size = 4
__Last$ = 12						; size = 4
__Al$ = 16						; size = 4
___formal$ = 20						; size = 1
??$_Destroy_range@V?$allocator@UBuffInfoStruct@@@std@@@std@@YAXPAUBuffInfoStruct@@0AAV?$allocator@UBuffInfoStruct@@@0@U_Nonscalar_ptr_iterator_tag@0@@Z PROC ; std::_Destroy_range<std::allocator<BuffInfoStruct> >, COMDAT

; 95   : 	{	// destroy [_First, _Last), arbitrary type

  00000	55		 push	 ebp
  00001	8b ec		 mov	 ebp, esp
  00003	56		 push	 esi

; 96   : 	for (; _First != _Last; ++_First)

  00004	8b 75 08	 mov	 esi, DWORD PTR __First$[ebp]
  00007	eb 0b		 jmp	 SHORT $LN20@Destroy_ra
$LL3@Destroy_ra:

; 97   : 		_Dest_val(_Al, _First);

  00009	8b ce		 mov	 ecx, esi
  0000b	ff 15 00 00 00
	00		 call	 DWORD PTR __imp_??1ioHashString@@QAE@XZ
  00011	83 c6 14	 add	 esi, 20			; 00000014H
$LN20@Destroy_ra:

; 96   : 	for (; _First != _Last; ++_First)

  00014	3b 75 0c	 cmp	 esi, DWORD PTR __Last$[ebp]
  00017	75 f0		 jne	 SHORT $LL3@Destroy_ra
  00019	5e		 pop	 esi

; 98   : 	}

  0001a	5d		 pop	 ebp
  0001b	c3		 ret	 0
??$_Destroy_range@V?$allocator@UBuffInfoStruct@@@std@@@std@@YAXPAUBuffInfoStruct@@0AAV?$allocator@UBuffInfoStruct@@@0@U_Nonscalar_ptr_iterator_tag@0@@Z ENDP ; std::_Destroy_range<std::allocator<BuffInfoStruct> >
_TEXT	ENDS
PUBLIC	?_Destroy@?$vector@UChangeDirInfo@@V?$allocator@UChangeDirInfo@@@std@@@std@@IAEXPAUChangeDirInfo@@0@Z ; std::vector<ChangeDirInfo,std::allocator<ChangeDirInfo> >::_Destroy
; Function compile flags: /Ogsp
; File c:\program files (x86)\microsoft visual studio 10.0\vc\include\vector
;	COMDAT ?_Destroy@?$vector@UChangeDirInfo@@V?$allocator@UChangeDirInfo@@@std@@@std@@IAEXPAUChangeDirInfo@@0@Z
_TEXT	SEGMENT
__First$ = 8						; size = 4
__Last$ = 12						; size = 4
?_Destroy@?$vector@UChangeDirInfo@@V?$allocator@UChangeDirInfo@@@std@@@std@@IAEXPAUChangeDirInfo@@0@Z PROC ; std::vector<ChangeDirInfo,std::allocator<ChangeDirInfo> >::_Destroy, COMDAT
; _this$ = ecx

; 1270 : 		_Destroy_range(_First, _Last, this->_Alval);
; 1271 : 		}

  00000	c2 08 00	 ret	 8
?_Destroy@?$vector@UChangeDirInfo@@V?$allocator@UChangeDirInfo@@@std@@@std@@IAEXPAUChangeDirInfo@@0@Z ENDP ; std::vector<ChangeDirInfo,std::allocator<ChangeDirInfo> >::_Destroy
_TEXT	ENDS
PUBLIC	?_Tidy@?$vector@UChangeDirInfo@@V?$allocator@UChangeDirInfo@@@std@@@std@@IAEXXZ ; std::vector<ChangeDirInfo,std::allocator<ChangeDirInfo> >::_Tidy
EXTRN	__imp_?_Orphan_all@_Container_base0@std@@QAEXXZ:PROC
; Function compile flags: /Ogsp
;	COMDAT ?_Tidy@?$vector@UChangeDirInfo@@V?$allocator@UChangeDirInfo@@@std@@@std@@IAEXXZ
_TEXT	SEGMENT
?_Tidy@?$vector@UChangeDirInfo@@V?$allocator@UChangeDirInfo@@@std@@@std@@IAEXXZ PROC ; std::vector<ChangeDirInfo,std::allocator<ChangeDirInfo> >::_Tidy, COMDAT
; _this$ = ecx

; 1301 : 		{	// free all storage

  00000	56		 push	 esi
  00001	8b f1		 mov	 esi, ecx

; 1302 : 		if (this->_Myfirst != 0)

  00003	83 3e 00	 cmp	 DWORD PTR [esi], 0
  00006	74 0e		 je	 SHORT $LN21@Tidy

; 1303 : 			{	// something to free, destroy and deallocate it
; 1304 : 			this->_Orphan_all();

  00008	ff 15 00 00 00
	00		 call	 DWORD PTR __imp_?_Orphan_all@_Container_base0@std@@QAEXXZ

; 1305 : 			_Destroy(this->_Myfirst, this->_Mylast);
; 1306 : 			this->_Alval.deallocate(this->_Myfirst,
; 1307 : 				this->_Myend - this->_Myfirst);

  0000e	ff 36		 push	 DWORD PTR [esi]
  00010	e8 00 00 00 00	 call	 ??3@YAXPAX@Z		; operator delete
  00015	59		 pop	 ecx
$LN21@Tidy:

; 1308 : 			}
; 1309 : 		this->_Myfirst = 0;

  00016	83 26 00	 and	 DWORD PTR [esi], 0

; 1310 : 		this->_Mylast = 0;

  00019	83 66 04 00	 and	 DWORD PTR [esi+4], 0

; 1311 : 		this->_Myend = 0;

  0001d	83 66 08 00	 and	 DWORD PTR [esi+8], 0
  00021	5e		 pop	 esi

; 1312 : 		}

  00022	c3		 ret	 0
?_Tidy@?$vector@UChangeDirInfo@@V?$allocator@UChangeDirInfo@@@std@@@std@@IAEXXZ ENDP ; std::vector<ChangeDirInfo,std::allocator<ChangeDirInfo> >::_Tidy
_TEXT	ENDS
PUBLIC	??$_Umove@PAUChangeDirInfo@@@?$vector@UChangeDirInfo@@V?$allocator@UChangeDirInfo@@@std@@@std@@IAEPAUChangeDirInfo@@PAU2@00@Z ; std::vector<ChangeDirInfo,std::allocator<ChangeDirInfo> >::_Umove<ChangeDirInfo *>
; Function compile flags: /Ogsp
;	COMDAT ??$_Umove@PAUChangeDirInfo@@@?$vector@UChangeDirInfo@@V?$allocator@UChangeDirInfo@@@std@@@std@@IAEPAUChangeDirInfo@@PAU2@00@Z
_TEXT	SEGMENT
__First$ = 8						; size = 4
__Last$ = 12						; size = 4
__Ptr$ = 16						; size = 4
??$_Umove@PAUChangeDirInfo@@@?$vector@UChangeDirInfo@@V?$allocator@UChangeDirInfo@@@std@@@std@@IAEPAUChangeDirInfo@@PAU2@00@Z PROC ; std::vector<ChangeDirInfo,std::allocator<ChangeDirInfo> >::_Umove<ChangeDirInfo *>, COMDAT
; _this$ = ecx

; 1322 : 		pointer _Umove(_Iter _First, _Iter _Last, pointer _Ptr)

  00000	55		 push	 ebp
  00001	8b ec		 mov	 ebp, esp

; 1323 : 		{	// move initializing [_First, _Last), using allocator
; 1324 : 		return (_Uninitialized_move(_First, _Last,
; 1325 : 			_Ptr, this->_Alval));

  00003	83 c1 0c	 add	 ecx, 12			; 0000000cH
  00006	51		 push	 ecx
  00007	ff 75 10	 push	 DWORD PTR __Ptr$[ebp]
  0000a	ff 75 0c	 push	 DWORD PTR __Last$[ebp]
  0000d	ff 75 08	 push	 DWORD PTR __First$[ebp]
  00010	e8 00 00 00 00	 call	 ??$_Uninitialized_move@PAUChangeDirInfo@@PAU1@V?$allocator@UChangeDirInfo@@@std@@@std@@YAPAUChangeDirInfo@@PAU1@00AAV?$allocator@UChangeDirInfo@@@0@@Z ; std::_Uninitialized_move<ChangeDirInfo *,ChangeDirInfo *,std::allocator<ChangeDirInfo> >
  00015	83 c4 10	 add	 esp, 16			; 00000010H

; 1326 : 		}

  00018	5d		 pop	 ebp
  00019	c2 0c 00	 ret	 12			; 0000000cH
??$_Umove@PAUChangeDirInfo@@@?$vector@UChangeDirInfo@@V?$allocator@UChangeDirInfo@@@std@@@std@@IAEPAUChangeDirInfo@@PAU2@00@Z ENDP ; std::vector<ChangeDirInfo,std::allocator<ChangeDirInfo> >::_Umove<ChangeDirInfo *>
_TEXT	ENDS
PUBLIC	??$_Uninitialized_move@PAUBuffInfoStruct@@PAU1@V?$allocator@UBuffInfoStruct@@@std@@@std@@YAPAUBuffInfoStruct@@PAU1@00AAV?$allocator@UBuffInfoStruct@@@0@@Z ; std::_Uninitialized_move<BuffInfoStruct *,BuffInfoStruct *,std::allocator<BuffInfoStruct> >
; Function compile flags: /Ogsp
; File c:\program files (x86)\microsoft visual studio 10.0\vc\include\memory
;	COMDAT ??$_Uninitialized_move@PAUBuffInfoStruct@@PAU1@V?$allocator@UBuffInfoStruct@@@std@@@std@@YAPAUBuffInfoStruct@@PAU1@00AAV?$allocator@UBuffInfoStruct@@@0@@Z
_TEXT	SEGMENT
__Cat$539210 = -4					; size = 1
__First$ = 8						; size = 4
__Last$ = 12						; size = 4
__Dest$ = 16						; size = 4
__Al$ = 20						; size = 4
??$_Uninitialized_move@PAUBuffInfoStruct@@PAU1@V?$allocator@UBuffInfoStruct@@@std@@@std@@YAPAUBuffInfoStruct@@PAU1@00AAV?$allocator@UBuffInfoStruct@@@0@@Z PROC ; std::_Uninitialized_move<BuffInfoStruct *,BuffInfoStruct *,std::allocator<BuffInfoStruct> >, COMDAT

; 469  : 	{	// move [_First, _Last) to raw _Dest, using _Al

  00000	55		 push	 ebp
  00001	8b ec		 mov	 ebp, esp
  00003	51		 push	 ecx

; 470  : 	return (_Uninit_move(_First, _Last, _Dest, _Al,
; 471  : 		_Val_type(_First), _Ptr_cat(_First, _Dest)));

  00004	ff 75 fc	 push	 DWORD PTR __Cat$539210[ebp]
  00007	6a 00		 push	 0
  00009	ff 75 14	 push	 DWORD PTR __Al$[ebp]
  0000c	ff 75 10	 push	 DWORD PTR __Dest$[ebp]
  0000f	ff 75 0c	 push	 DWORD PTR __Last$[ebp]
  00012	ff 75 08	 push	 DWORD PTR __First$[ebp]
  00015	e8 00 00 00 00	 call	 ??$_Uninit_move@PAUBuffInfoStruct@@PAU1@V?$allocator@UBuffInfoStruct@@@std@@U1@@std@@YAPAUBuffInfoStruct@@PAU1@00AAV?$allocator@UBuffInfoStruct@@@0@0U_Nonscalar_ptr_iterator_tag@0@@Z ; std::_Uninit_move<BuffInfoStruct *,BuffInfoStruct *,std::allocator<BuffInfoStruct>,BuffInfoStruct>
  0001a	83 c4 18	 add	 esp, 24			; 00000018H

; 472  : 	}

  0001d	c9		 leave
  0001e	c3		 ret	 0
??$_Uninitialized_move@PAUBuffInfoStruct@@PAU1@V?$allocator@UBuffInfoStruct@@@std@@@std@@YAPAUBuffInfoStruct@@PAU1@00AAV?$allocator@UBuffInfoStruct@@@0@@Z ENDP ; std::_Uninitialized_move<BuffInfoStruct *,BuffInfoStruct *,std::allocator<BuffInfoStruct> >
_TEXT	ENDS
PUBLIC	??$_Sort_heap@PAUChangeDirInfo@@VChangeDirSort@@@std@@YAXPAUChangeDirInfo@@0VChangeDirSort@@@Z ; std::_Sort_heap<ChangeDirInfo *,ChangeDirSort>
; Function compile flags: /Ogsp
; File c:\program files (x86)\microsoft visual studio 10.0\vc\include\algorithm
;	COMDAT ??$_Sort_heap@PAUChangeDirInfo@@VChangeDirSort@@@std@@YAXPAUChangeDirInfo@@0VChangeDirSort@@@Z
_TEXT	SEGMENT
__First$ = 8						; size = 4
__Last$ = 12						; size = 4
__Pred$ = 16						; size = 1
??$_Sort_heap@PAUChangeDirInfo@@VChangeDirSort@@@std@@YAXPAUChangeDirInfo@@0VChangeDirSort@@@Z PROC ; std::_Sort_heap<ChangeDirInfo *,ChangeDirSort>, COMDAT

; 2700 : 	{	// order heap by repeatedly popping, using _Pred

  00000	55		 push	 ebp
  00001	8b ec		 mov	 ebp, esp

; 2701 : 	for (; 1 < _Last - _First; --_Last)

  00003	8b 4d 0c	 mov	 ecx, DWORD PTR __Last$[ebp]
  00006	2b 4d 08	 sub	 ecx, DWORD PTR __First$[ebp]
  00009	57		 push	 edi
  0000a	8b c1		 mov	 eax, ecx
  0000c	6a 1c		 push	 28			; 0000001cH
  0000e	99		 cdq
  0000f	5f		 pop	 edi
  00010	f7 ff		 idiv	 edi
  00012	83 f8 01	 cmp	 eax, 1
  00015	7e 29		 jle	 SHORT $LN1@Sort_heap
  00017	8b f9		 mov	 edi, ecx
$LL3@Sort_heap:

; 2702 : 		_Pop_heap(_First, _Last, _Pred);

  00019	6a 00		 push	 0
  0001b	ff 75 10	 push	 DWORD PTR __Pred$[ebp]
  0001e	ff 75 0c	 push	 DWORD PTR __Last$[ebp]
  00021	ff 75 08	 push	 DWORD PTR __First$[ebp]
  00024	e8 00 00 00 00	 call	 ??$_Pop_heap_0@PAUChangeDirInfo@@U1@VChangeDirSort@@@std@@YAXPAUChangeDirInfo@@0VChangeDirSort@@0@Z ; std::_Pop_heap_0<ChangeDirInfo *,ChangeDirInfo,ChangeDirSort>
  00029	83 c4 10	 add	 esp, 16			; 00000010H
  0002c	83 ef 1c	 sub	 edi, 28			; 0000001cH
  0002f	8b c7		 mov	 eax, edi
  00031	6a 1c		 push	 28			; 0000001cH
  00033	99		 cdq
  00034	59		 pop	 ecx
  00035	f7 f9		 idiv	 ecx
  00037	83 6d 0c 1c	 sub	 DWORD PTR __Last$[ebp], 28 ; 0000001cH
  0003b	83 f8 01	 cmp	 eax, 1
  0003e	7f d9		 jg	 SHORT $LL3@Sort_heap
$LN1@Sort_heap:
  00040	5f		 pop	 edi

; 2703 : 	}

  00041	5d		 pop	 ebp
  00042	c3		 ret	 0
??$_Sort_heap@PAUChangeDirInfo@@VChangeDirSort@@@std@@YAXPAUChangeDirInfo@@0VChangeDirSort@@@Z ENDP ; std::_Sort_heap<ChangeDirInfo *,ChangeDirSort>
_TEXT	ENDS
PUBLIC	??$_Destroy_range@V?$allocator@UBuffInfoStruct@@@std@@@std@@YAXPAUBuffInfoStruct@@0AAV?$allocator@UBuffInfoStruct@@@0@@Z ; std::_Destroy_range<std::allocator<BuffInfoStruct> >
; Function compile flags: /Ogsp
; File c:\program files (x86)\microsoft visual studio 10.0\vc\include\xmemory
;	COMDAT ??$_Destroy_range@V?$allocator@UBuffInfoStruct@@@std@@@std@@YAXPAUBuffInfoStruct@@0AAV?$allocator@UBuffInfoStruct@@@0@@Z
_TEXT	SEGMENT
__First$ = 8						; size = 4
__Last$ = 12						; size = 4
__Al$ = 16						; size = 4
??$_Destroy_range@V?$allocator@UBuffInfoStruct@@@std@@@std@@YAXPAUBuffInfoStruct@@0AAV?$allocator@UBuffInfoStruct@@@0@@Z PROC ; std::_Destroy_range<std::allocator<BuffInfoStruct> >, COMDAT

; 87   : 	{	// destroy [_First, _Last)

  00000	55		 push	 ebp
  00001	8b ec		 mov	 ebp, esp
  00003	56		 push	 esi

; 88   : 	_Destroy_range(_First, _Last, _Al, _Ptr_cat(_First, _Last));

  00004	8b 75 08	 mov	 esi, DWORD PTR __First$[ebp]
  00007	eb 0b		 jmp	 SHORT $LN24@Destroy_ra@2
$LL7@Destroy_ra@2:
  00009	8b ce		 mov	 ecx, esi
  0000b	ff 15 00 00 00
	00		 call	 DWORD PTR __imp_??1ioHashString@@QAE@XZ
  00011	83 c6 14	 add	 esi, 20			; 00000014H
$LN24@Destroy_ra@2:
  00014	3b 75 0c	 cmp	 esi, DWORD PTR __Last$[ebp]
  00017	75 f0		 jne	 SHORT $LL7@Destroy_ra@2
  00019	5e		 pop	 esi

; 89   : 	}

  0001a	5d		 pop	 ebp
  0001b	c3		 ret	 0
??$_Destroy_range@V?$allocator@UBuffInfoStruct@@@std@@@std@@YAXPAUBuffInfoStruct@@0AAV?$allocator@UBuffInfoStruct@@@0@@Z ENDP ; std::_Destroy_range<std::allocator<BuffInfoStruct> >
_TEXT	ENDS
PUBLIC	??1?$vector@UChangeDirInfo@@V?$allocator@UChangeDirInfo@@@std@@@std@@QAE@XZ ; std::vector<ChangeDirInfo,std::allocator<ChangeDirInfo> >::~vector<ChangeDirInfo,std::allocator<ChangeDirInfo> >
; Function compile flags: /Ogsp
; File c:\program files (x86)\microsoft visual studio 10.0\vc\include\vector
;	COMDAT ??1?$vector@UChangeDirInfo@@V?$allocator@UChangeDirInfo@@@std@@@std@@QAE@XZ
_TEXT	SEGMENT
??1?$vector@UChangeDirInfo@@V?$allocator@UChangeDirInfo@@@std@@@std@@QAE@XZ PROC ; std::vector<ChangeDirInfo,std::allocator<ChangeDirInfo> >::~vector<ChangeDirInfo,std::allocator<ChangeDirInfo> >, COMDAT
; _this$ = ecx

; 705  : 		_Tidy();

  00000	e9 00 00 00 00	 jmp	 ?_Tidy@?$vector@UChangeDirInfo@@V?$allocator@UChangeDirInfo@@@std@@@std@@IAEXXZ ; std::vector<ChangeDirInfo,std::allocator<ChangeDirInfo> >::_Tidy
??1?$vector@UChangeDirInfo@@V?$allocator@UChangeDirInfo@@@std@@@std@@QAE@XZ ENDP ; std::vector<ChangeDirInfo,std::allocator<ChangeDirInfo> >::~vector<ChangeDirInfo,std::allocator<ChangeDirInfo> >
_TEXT	ENDS
PUBLIC	?reserve@?$vector@UChangeDirInfo@@V?$allocator@UChangeDirInfo@@@std@@@std@@QAEXI@Z ; std::vector<ChangeDirInfo,std::allocator<ChangeDirInfo> >::reserve
;	COMDAT xdata$x
; File c:\program files (x86)\microsoft visual studio 10.0\vc\include\xmemory
xdata$x	SEGMENT
__catchsym$?reserve@?$vector@UChangeDirInfo@@V?$allocator@UChangeDirInfo@@@std@@@std@@QAEXI@Z$2 DD 040H
	DD	00H
	DD	00H
	DD	FLAT:__catch$?reserve@?$vector@UChangeDirInfo@@V?$allocator@UChangeDirInfo@@@std@@@std@@QAEXI@Z$0
__unwindtable$?reserve@?$vector@UChangeDirInfo@@V?$allocator@UChangeDirInfo@@@std@@@std@@QAEXI@Z DD 0ffffffffH
	DD	00H
	DD	0ffffffffH
	DD	00H
__tryblocktable$?reserve@?$vector@UChangeDirInfo@@V?$allocator@UChangeDirInfo@@@std@@@std@@QAEXI@Z DD 00H
	DD	00H
	DD	01H
	DD	01H
	DD	FLAT:__catchsym$?reserve@?$vector@UChangeDirInfo@@V?$allocator@UChangeDirInfo@@@std@@@std@@QAEXI@Z$2
__ehfuncinfo$?reserve@?$vector@UChangeDirInfo@@V?$allocator@UChangeDirInfo@@@std@@@std@@QAEXI@Z DD 019930522H
	DD	02H
	DD	FLAT:__unwindtable$?reserve@?$vector@UChangeDirInfo@@V?$allocator@UChangeDirInfo@@@std@@@std@@QAEXI@Z
	DD	01H
	DD	FLAT:__tryblocktable$?reserve@?$vector@UChangeDirInfo@@V?$allocator@UChangeDirInfo@@@std@@@std@@QAEXI@Z
	DD	2 DUP(00H)
	DD	00H
	DD	01H
; Function compile flags: /Ogsp
; File c:\program files (x86)\microsoft visual studio 10.0\vc\include\vector
xdata$x	ENDS
;	COMDAT ?reserve@?$vector@UChangeDirInfo@@V?$allocator@UChangeDirInfo@@@std@@@std@@QAEXI@Z
_TEXT	SEGMENT
__$EHRec$ = -16						; size = 16
__Ptr$532677 = 8					; size = 4
__Count$ = 8						; size = 4
?reserve@?$vector@UChangeDirInfo@@V?$allocator@UChangeDirInfo@@@std@@@std@@QAEXI@Z PROC ; std::vector<ChangeDirInfo,std::allocator<ChangeDirInfo> >::reserve, COMDAT
; _this$ = ecx

; 746  : 		{	// determine new minimum length of allocated storage

  00000	6a 04		 push	 4
  00002	b8 00 00 00 00	 mov	 eax, __ehhandler$?reserve@?$vector@UChangeDirInfo@@V?$allocator@UChangeDirInfo@@@std@@@std@@QAEXI@Z
  00007	e8 00 00 00 00	 call	 __EH_prolog3_catch
  0000c	8b f1		 mov	 esi, ecx

; 747  : 		if (max_size() < _Count)

  0000e	8b 5d 08	 mov	 ebx, DWORD PTR __Count$[ebp]
  00011	81 fb 49 92 24
	09		 cmp	 ebx, 153391689		; 09249249H
  00017	76 0b		 jbe	 SHORT $LN5@reserve

; 748  : 			_Xlen();	// result too long

  00019	68 00 00 00 00	 push	 OFFSET ??_C@_0BD@OLBABOEK@vector?$DMT?$DO?5too?5long?$AA@
  0001e	ff 15 00 00 00
	00		 call	 DWORD PTR __imp_?_Xlength_error@std@@YAXPBD@Z
$LN56@reserve:
$LN5@reserve:

; 749  : 		else if (capacity() < _Count)

  00024	8b 46 08	 mov	 eax, DWORD PTR [esi+8]
  00027	2b 06		 sub	 eax, DWORD PTR [esi]
  00029	6a 1c		 push	 28			; 0000001cH
  0002b	99		 cdq
  0002c	59		 pop	 ecx
  0002d	f7 f9		 idiv	 ecx
  0002f	3b c3		 cmp	 eax, ebx
  00031	73 6b		 jae	 SHORT $LN3@reserve

; 750  : 			{	// not enough room, reallocate
; 751  : 			pointer _Ptr = this->_Alval.allocate(_Count);

  00033	6a 00		 push	 0
  00035	53		 push	 ebx
  00036	e8 00 00 00 00	 call	 ??$_Allocate@UChangeDirInfo@@@std@@YAPAUChangeDirInfo@@IPAU1@@Z ; std::_Allocate<ChangeDirInfo>

; 752  : 
; 753  : 			_TRY_BEGIN
; 754  : 			_Umove(this->_Myfirst, this->_Mylast, _Ptr);

  0003b	8b 0e		 mov	 ecx, DWORD PTR [esi]
  0003d	83 65 fc 00	 and	 DWORD PTR __$EHRec$[ebp+12], 0
  00041	8d 56 0c	 lea	 edx, DWORD PTR [esi+12]
  00044	52		 push	 edx
  00045	89 45 08	 mov	 DWORD PTR __Ptr$532677[ebp], eax
  00048	ff 75 08	 push	 DWORD PTR __Ptr$532677[ebp]
  0004b	8b 46 04	 mov	 eax, DWORD PTR [esi+4]
  0004e	50		 push	 eax
  0004f	51		 push	 ecx
  00050	e8 00 00 00 00	 call	 ??$_Uninitialized_move@PAUChangeDirInfo@@PAU1@V?$allocator@UChangeDirInfo@@@std@@@std@@YAPAUChangeDirInfo@@PAU1@00AAV?$allocator@UChangeDirInfo@@@0@@Z ; std::_Uninitialized_move<ChangeDirInfo *,ChangeDirInfo *,std::allocator<ChangeDirInfo> >

; 758  : 			_CATCH_END
; 759  : 
; 760  : 			size_type _Size = size();

  00055	8b 0e		 mov	 ecx, DWORD PTR [esi]
  00057	8b 46 04	 mov	 eax, DWORD PTR [esi+4]
  0005a	83 c4 18	 add	 esp, 24			; 00000018H
  0005d	2b c1		 sub	 eax, ecx
  0005f	6a 1c		 push	 28			; 0000001cH
  00061	99		 cdq
  00062	5f		 pop	 edi
  00063	f7 ff		 idiv	 edi
  00065	83 4d fc ff	 or	 DWORD PTR __$EHRec$[ebp+12], -1
  00069	8b f8		 mov	 edi, eax
  0006b	85 c9		 test	 ecx, ecx
  0006d	74 12		 je	 SHORT $LN48@reserve

; 761  : 			if (this->_Myfirst != 0)

  0006f	eb 03		 jmp	 SHORT $LN55@reserve

; 762  : 				{	// destroy and deallocate old array
; 763  : 				_Destroy(this->_Myfirst, this->_Mylast);

$LL39@reserve:
  00071	83 c1 1c	 add	 ecx, 28			; 0000001cH
$LN55@reserve:
  00074	3b 4e 04	 cmp	 ecx, DWORD PTR [esi+4]
  00077	75 f8		 jne	 SHORT $LL39@reserve

; 764  : 				this->_Alval.deallocate(this->_Myfirst,
; 765  : 					this->_Myend - this->_Myfirst);

  00079	ff 36		 push	 DWORD PTR [esi]
  0007b	e8 00 00 00 00	 call	 ??3@YAXPAX@Z		; operator delete
  00080	59		 pop	 ecx
$LN48@reserve:

; 766  : 				}
; 767  : 
; 768  : 			this->_Orphan_all();

  00081	8b ce		 mov	 ecx, esi
  00083	ff 15 00 00 00
	00		 call	 DWORD PTR __imp_?_Orphan_all@_Container_base0@std@@QAEXXZ

; 769  : 			this->_Myend = _Ptr + _Count;

  00089	6b db 1c	 imul	 ebx, 28			; 0000001cH

; 770  : 			this->_Mylast = _Ptr + _Size;

  0008c	6b ff 1c	 imul	 edi, 28			; 0000001cH
  0008f	8b 45 08	 mov	 eax, DWORD PTR __Ptr$532677[ebp]
  00092	03 d8		 add	 ebx, eax
  00094	03 f8		 add	 edi, eax
  00096	89 5e 08	 mov	 DWORD PTR [esi+8], ebx
  00099	89 7e 04	 mov	 DWORD PTR [esi+4], edi

; 771  : 			this->_Myfirst = _Ptr;

  0009c	89 06		 mov	 DWORD PTR [esi], eax
$LN3@reserve:

; 772  : 			}
; 773  : 		}

  0009e	e8 00 00 00 00	 call	 __EH_epilog3
  000a3	c2 04 00	 ret	 4
__catch$?reserve@?$vector@UChangeDirInfo@@V?$allocator@UChangeDirInfo@@@std@@@std@@QAEXI@Z$0:

; 755  : 			_CATCH_ALL
; 756  : 			this->_Alval.deallocate(_Ptr, _Count);

  000a6	ff 75 08	 push	 DWORD PTR __Ptr$532677[ebp]
  000a9	e8 00 00 00 00	 call	 ??3@YAXPAX@Z		; operator delete
  000ae	59		 pop	 ecx

; 757  : 			_RERAISE;

  000af	6a 00		 push	 0
  000b1	6a 00		 push	 0
  000b3	e8 00 00 00 00	 call	 __CxxThrowException@8
$LN57@reserve:
$LN54@reserve:
  000b8	cc		 int	 3
_TEXT	ENDS
;	COMDAT text$x
text$x	SEGMENT
__ehhandler$?reserve@?$vector@UChangeDirInfo@@V?$allocator@UChangeDirInfo@@@std@@@std@@QAEXI@Z:
  00000	8b 54 24 08	 mov	 edx, DWORD PTR [esp+8]
  00004	8d 42 0c	 lea	 eax, DWORD PTR [edx+12]
  00007	8b 4a ec	 mov	 ecx, DWORD PTR [edx-20]
  0000a	33 c8		 xor	 ecx, eax
  0000c	e8 00 00 00 00	 call	 @__security_check_cookie@4
  00011	b8 00 00 00 00	 mov	 eax, OFFSET __ehfuncinfo$?reserve@?$vector@UChangeDirInfo@@V?$allocator@UChangeDirInfo@@@std@@@std@@QAEXI@Z
  00016	e9 00 00 00 00	 jmp	 ___CxxFrameHandler3
text$x	ENDS
?reserve@?$vector@UChangeDirInfo@@V?$allocator@UChangeDirInfo@@@std@@@std@@QAEXI@Z ENDP ; std::vector<ChangeDirInfo,std::allocator<ChangeDirInfo> >::reserve
PUBLIC	?erase@?$vector@UChangeDirInfo@@V?$allocator@UChangeDirInfo@@@std@@@std@@QAE?AV?$_Vector_iterator@V?$_Vector_val@UChangeDirInfo@@V?$allocator@UChangeDirInfo@@@std@@@std@@@2@V?$_Vector_const_iterator@V?$_Vector_val@UChangeDirInfo@@V?$allocator@UChangeDirInfo@@@std@@@std@@@2@0@Z ; std::vector<ChangeDirInfo,std::allocator<ChangeDirInfo> >::erase
; Function compile flags: /Ogsp
;	COMDAT ?erase@?$vector@UChangeDirInfo@@V?$allocator@UChangeDirInfo@@@std@@@std@@QAE?AV?$_Vector_iterator@V?$_Vector_val@UChangeDirInfo@@V?$allocator@UChangeDirInfo@@@std@@@std@@@2@V?$_Vector_const_iterator@V?$_Vector_val@UChangeDirInfo@@V?$allocator@UChangeDirInfo@@@std@@@std@@@2@0@Z
_TEXT	SEGMENT
___$ReturnUdt$ = 8					; size = 4
__First_arg$ = 12					; size = 4
__Cat$539521 = 16					; size = 1
__Last_arg$ = 16					; size = 4
?erase@?$vector@UChangeDirInfo@@V?$allocator@UChangeDirInfo@@@std@@@std@@QAE?AV?$_Vector_iterator@V?$_Vector_val@UChangeDirInfo@@V?$allocator@UChangeDirInfo@@@std@@@std@@@2@V?$_Vector_const_iterator@V?$_Vector_val@UChangeDirInfo@@V?$allocator@UChangeDirInfo@@@std@@@std@@@2@0@Z PROC ; std::vector<ChangeDirInfo,std::allocator<ChangeDirInfo> >::erase, COMDAT
; _this$ = ecx

; 1190 : 		{	// erase [_First, _Last)

  00000	55		 push	 ebp
  00001	8b ec		 mov	 ebp, esp

; 1191 : 		iterator _First = _Make_iter(_First_arg);

  00003	8b 45 0c	 mov	 eax, DWORD PTR __First_arg$[ebp]
  00006	56		 push	 esi
  00007	57		 push	 edi
  00008	8b 7d 08	 mov	 edi, DWORD PTR ___$ReturnUdt$[ebp]
  0000b	8b f1		 mov	 esi, ecx
  0000d	89 07		 mov	 DWORD PTR [edi], eax

; 1192 : 		iterator _Last = _Make_iter(_Last_arg);
; 1193 : 
; 1194 : 		if (_First != _Last)

  0000f	3b 45 10	 cmp	 eax, DWORD PTR __Last_arg$[ebp]
  00012	74 16		 je	 SHORT $LN1@erase

; 1195 : 			{	// worth doing, copy down over hole
; 1196 :  #if _ITERATOR_DEBUG_LEVEL == 2
; 1197 : 			if (_Last < _First || _VICONT(_First) != this
; 1198 : 				|| _VIPTR(_First) < this->_Myfirst
; 1199 : 				|| this->_Mylast < _VIPTR(_Last))
; 1200 : 				_DEBUG_ERROR("vector erase iterator outside range");
; 1201 : 			pointer _Ptr = _Move(_VIPTR(_Last), this->_Mylast,
; 1202 : 				_VIPTR(_First));
; 1203 : 			_Orphan_range(_VIPTR(_First), this->_Mylast);
; 1204 : 
; 1205 :  #else /* _ITERATOR_DEBUG_LEVEL == 2 */
; 1206 : 			pointer _Ptr = _Move(_VIPTR(_Last), this->_Mylast,
; 1207 : 				_VIPTR(_First));

  00014	ff 75 10	 push	 DWORD PTR __Cat$539521[ebp]
  00017	8b 4e 04	 mov	 ecx, DWORD PTR [esi+4]
  0001a	50		 push	 eax
  0001b	51		 push	 ecx
  0001c	ff 75 10	 push	 DWORD PTR __Last_arg$[ebp]
  0001f	e8 00 00 00 00	 call	 ??$_Move@PAUChangeDirInfo@@PAU1@@std@@YAPAUChangeDirInfo@@PAU1@00U_Nonscalar_ptr_iterator_tag@0@@Z ; std::_Move<ChangeDirInfo *,ChangeDirInfo *>
  00024	83 c4 10	 add	 esp, 16			; 00000010H

; 1208 :  #endif /* _ITERATOR_DEBUG_LEVEL == 2 */
; 1209 : 
; 1210 : 			_Destroy(_Ptr, this->_Mylast);
; 1211 : 			this->_Mylast = _Ptr;

  00027	89 46 04	 mov	 DWORD PTR [esi+4], eax
$LN1@erase:

; 1212 : 			}
; 1213 : 		return (_First);

  0002a	8b c7		 mov	 eax, edi
  0002c	5f		 pop	 edi
  0002d	5e		 pop	 esi

; 1214 : 		}

  0002e	5d		 pop	 ebp
  0002f	c2 0c 00	 ret	 12			; 0000000cH
?erase@?$vector@UChangeDirInfo@@V?$allocator@UChangeDirInfo@@@std@@@std@@QAE?AV?$_Vector_iterator@V?$_Vector_val@UChangeDirInfo@@V?$allocator@UChangeDirInfo@@@std@@@std@@@2@V?$_Vector_const_iterator@V?$_Vector_val@UChangeDirInfo@@V?$allocator@UChangeDirInfo@@@std@@@std@@@2@0@Z ENDP ; std::vector<ChangeDirInfo,std::allocator<ChangeDirInfo> >::erase
_TEXT	ENDS
PUBLIC	?_Reserve@?$vector@UChangeDirInfo@@V?$allocator@UChangeDirInfo@@@std@@@std@@IAEXI@Z ; std::vector<ChangeDirInfo,std::allocator<ChangeDirInfo> >::_Reserve
; Function compile flags: /Ogsp
;	COMDAT ?_Reserve@?$vector@UChangeDirInfo@@V?$allocator@UChangeDirInfo@@@std@@@std@@IAEXI@Z
_TEXT	SEGMENT
__Count$ = 8						; size = 4
?_Reserve@?$vector@UChangeDirInfo@@V?$allocator@UChangeDirInfo@@@std@@@std@@IAEXI@Z PROC ; std::vector<ChangeDirInfo,std::allocator<ChangeDirInfo> >::_Reserve, COMDAT
; _this$ = ecx

; 1290 : 		{	// ensure room for _Count new elements, grow exponentially

  00000	55		 push	 ebp
  00001	8b ec		 mov	 ebp, esp
  00003	56		 push	 esi
  00004	8b f1		 mov	 esi, ecx

; 1291 : 		size_type _Size = size();

  00006	8b 0e		 mov	 ecx, DWORD PTR [esi]
  00008	8b 46 04	 mov	 eax, DWORD PTR [esi+4]
  0000b	2b c1		 sub	 eax, ecx
  0000d	57		 push	 edi
  0000e	99		 cdq
  0000f	6a 1c		 push	 28			; 0000001cH
  00011	5f		 pop	 edi
  00012	f7 ff		 idiv	 edi
  00014	8b f8		 mov	 edi, eax

; 1292 : 		if (max_size() - _Count < _Size)

  00016	b8 49 92 24 09	 mov	 eax, 153391689		; 09249249H
  0001b	2b 45 08	 sub	 eax, DWORD PTR __Count$[ebp]
  0001e	3b c7		 cmp	 eax, edi
  00020	73 0b		 jae	 SHORT $LN4@Reserve

; 1293 : 			_Xlen();

  00022	68 00 00 00 00	 push	 OFFSET ??_C@_0BD@OLBABOEK@vector?$DMT?$DO?5too?5long?$AA@
  00027	ff 15 00 00 00
	00		 call	 DWORD PTR __imp_?_Xlength_error@std@@YAXPBD@Z
$LN21@Reserve:
$LN4@Reserve:

; 1294 : 		else if ((_Size += _Count) <= capacity())

  0002d	8b 46 08	 mov	 eax, DWORD PTR [esi+8]
  00030	2b c1		 sub	 eax, ecx
  00032	6a 1c		 push	 28			; 0000001cH
  00034	99		 cdq
  00035	59		 pop	 ecx
  00036	f7 f9		 idiv	 ecx
  00038	03 7d 08	 add	 edi, DWORD PTR __Count$[ebp]
  0003b	3b f8		 cmp	 edi, eax
  0003d	76 10		 jbe	 SHORT $LN1@Reserve

; 1295 : 			;
; 1296 : 		else
; 1297 : 			reserve(_Grow_to(_Size));

  0003f	57		 push	 edi
  00040	8b ce		 mov	 ecx, esi
  00042	e8 00 00 00 00	 call	 ?_Grow_to@?$vector@UChangeDirInfo@@V?$allocator@UChangeDirInfo@@@std@@@std@@IBEII@Z ; std::vector<ChangeDirInfo,std::allocator<ChangeDirInfo> >::_Grow_to
  00047	50		 push	 eax
  00048	8b ce		 mov	 ecx, esi
  0004a	e8 00 00 00 00	 call	 ?reserve@?$vector@UChangeDirInfo@@V?$allocator@UChangeDirInfo@@@std@@@std@@QAEXI@Z ; std::vector<ChangeDirInfo,std::allocator<ChangeDirInfo> >::reserve
$LN1@Reserve:
  0004f	5f		 pop	 edi
  00050	5e		 pop	 esi

; 1298 : 		}

  00051	5d		 pop	 ebp
  00052	c2 04 00	 ret	 4
$LN20@Reserve:
?_Reserve@?$vector@UChangeDirInfo@@V?$allocator@UChangeDirInfo@@@std@@@std@@IAEXI@Z ENDP ; std::vector<ChangeDirInfo,std::allocator<ChangeDirInfo> >::_Reserve
_TEXT	ENDS
PUBLIC	??$_Umove@PAUBuffInfoStruct@@@?$vector@UBuffInfoStruct@@V?$allocator@UBuffInfoStruct@@@std@@@std@@IAEPAUBuffInfoStruct@@PAU2@00@Z ; std::vector<BuffInfoStruct,std::allocator<BuffInfoStruct> >::_Umove<BuffInfoStruct *>
; Function compile flags: /Ogsp
;	COMDAT ??$_Umove@PAUBuffInfoStruct@@@?$vector@UBuffInfoStruct@@V?$allocator@UBuffInfoStruct@@@std@@@std@@IAEPAUBuffInfoStruct@@PAU2@00@Z
_TEXT	SEGMENT
__First$ = 8						; size = 4
__Last$ = 12						; size = 4
__Ptr$ = 16						; size = 4
??$_Umove@PAUBuffInfoStruct@@@?$vector@UBuffInfoStruct@@V?$allocator@UBuffInfoStruct@@@std@@@std@@IAEPAUBuffInfoStruct@@PAU2@00@Z PROC ; std::vector<BuffInfoStruct,std::allocator<BuffInfoStruct> >::_Umove<BuffInfoStruct *>, COMDAT
; _this$ = ecx

; 1322 : 		pointer _Umove(_Iter _First, _Iter _Last, pointer _Ptr)

  00000	55		 push	 ebp
  00001	8b ec		 mov	 ebp, esp

; 1323 : 		{	// move initializing [_First, _Last), using allocator
; 1324 : 		return (_Uninitialized_move(_First, _Last,
; 1325 : 			_Ptr, this->_Alval));

  00003	83 c1 0c	 add	 ecx, 12			; 0000000cH
  00006	51		 push	 ecx
  00007	ff 75 10	 push	 DWORD PTR __Ptr$[ebp]
  0000a	ff 75 0c	 push	 DWORD PTR __Last$[ebp]
  0000d	ff 75 08	 push	 DWORD PTR __First$[ebp]
  00010	e8 00 00 00 00	 call	 ??$_Uninitialized_move@PAUBuffInfoStruct@@PAU1@V?$allocator@UBuffInfoStruct@@@std@@@std@@YAPAUBuffInfoStruct@@PAU1@00AAV?$allocator@UBuffInfoStruct@@@0@@Z ; std::_Uninitialized_move<BuffInfoStruct *,BuffInfoStruct *,std::allocator<BuffInfoStruct> >
  00015	83 c4 10	 add	 esp, 16			; 00000010H

; 1326 : 		}

  00018	5d		 pop	 ebp
  00019	c2 0c 00	 ret	 12			; 0000000cH
??$_Umove@PAUBuffInfoStruct@@@?$vector@UBuffInfoStruct@@V?$allocator@UBuffInfoStruct@@@std@@@std@@IAEPAUBuffInfoStruct@@PAU2@00@Z ENDP ; std::vector<BuffInfoStruct,std::allocator<BuffInfoStruct> >::_Umove<BuffInfoStruct *>
_TEXT	ENDS
PUBLIC	??$sort_heap@PAUChangeDirInfo@@VChangeDirSort@@@std@@YAXPAUChangeDirInfo@@0VChangeDirSort@@@Z ; std::sort_heap<ChangeDirInfo *,ChangeDirSort>
; Function compile flags: /Ogsp
; File c:\program files (x86)\microsoft visual studio 10.0\vc\include\algorithm
;	COMDAT ??$sort_heap@PAUChangeDirInfo@@VChangeDirSort@@@std@@YAXPAUChangeDirInfo@@0VChangeDirSort@@@Z
_TEXT	SEGMENT
__First$ = 8						; size = 4
__Last$ = 12						; size = 4
__Pred$ = 16						; size = 1
??$sort_heap@PAUChangeDirInfo@@VChangeDirSort@@@std@@YAXPAUChangeDirInfo@@0VChangeDirSort@@@Z PROC ; std::sort_heap<ChangeDirInfo *,ChangeDirSort>, COMDAT

; 2708 : 	{	// order heap by repeatedly popping, using _Pred

  00000	55		 push	 ebp
  00001	8b ec		 mov	 ebp, esp

; 2709 : 	_DEBUG_RANGE(_First, _Last);
; 2710 : 	_DEBUG_POINTER(_Pred);
; 2711 : 	_DEBUG_HEAP_PRED(_First, _Last, _Pred);
; 2712 : 	_Sort_heap(_Unchecked(_First), _Unchecked(_Last), _Pred);

  00003	ff 75 10	 push	 DWORD PTR __Pred$[ebp]
  00006	ff 75 0c	 push	 DWORD PTR __Last$[ebp]
  00009	ff 75 08	 push	 DWORD PTR __First$[ebp]
  0000c	e8 00 00 00 00	 call	 ??$_Sort_heap@PAUChangeDirInfo@@VChangeDirSort@@@std@@YAXPAUChangeDirInfo@@0VChangeDirSort@@@Z ; std::_Sort_heap<ChangeDirInfo *,ChangeDirSort>
  00011	83 c4 0c	 add	 esp, 12			; 0000000cH

; 2713 : 	}

  00014	5d		 pop	 ebp
  00015	c3		 ret	 0
??$sort_heap@PAUChangeDirInfo@@VChangeDirSort@@@std@@YAXPAUChangeDirInfo@@0VChangeDirSort@@@Z ENDP ; std::sort_heap<ChangeDirInfo *,ChangeDirSort>
_TEXT	ENDS
PUBLIC	?_Destroy@?$vector@UBuffInfoStruct@@V?$allocator@UBuffInfoStruct@@@std@@@std@@IAEXPAUBuffInfoStruct@@0@Z ; std::vector<BuffInfoStruct,std::allocator<BuffInfoStruct> >::_Destroy
; Function compile flags: /Ogsp
; File c:\program files (x86)\microsoft visual studio 10.0\vc\include\vector
;	COMDAT ?_Destroy@?$vector@UBuffInfoStruct@@V?$allocator@UBuffInfoStruct@@@std@@@std@@IAEXPAUBuffInfoStruct@@0@Z
_TEXT	SEGMENT
__First$ = 8						; size = 4
__Last$ = 12						; size = 4
?_Destroy@?$vector@UBuffInfoStruct@@V?$allocator@UBuffInfoStruct@@@std@@@std@@IAEXPAUBuffInfoStruct@@0@Z PROC ; std::vector<BuffInfoStruct,std::allocator<BuffInfoStruct> >::_Destroy, COMDAT
; _this$ = ecx

; 1269 : 		{	// destroy [_First, _Last) using allocator

  00000	55		 push	 ebp
  00001	8b ec		 mov	 ebp, esp
  00003	56		 push	 esi

; 1270 : 		_Destroy_range(_First, _Last, this->_Alval);

  00004	8b 75 08	 mov	 esi, DWORD PTR __First$[ebp]
  00007	eb 0b		 jmp	 SHORT $LN26@Destroy
$LL9@Destroy:
  00009	8b ce		 mov	 ecx, esi
  0000b	ff 15 00 00 00
	00		 call	 DWORD PTR __imp_??1ioHashString@@QAE@XZ
  00011	83 c6 14	 add	 esi, 20			; 00000014H
$LN26@Destroy:
  00014	3b 75 0c	 cmp	 esi, DWORD PTR __Last$[ebp]
  00017	75 f0		 jne	 SHORT $LL9@Destroy
  00019	5e		 pop	 esi

; 1271 : 		}

  0001a	5d		 pop	 ebp
  0001b	c2 08 00	 ret	 8
?_Destroy@?$vector@UBuffInfoStruct@@V?$allocator@UBuffInfoStruct@@@std@@@std@@IAEXPAUBuffInfoStruct@@0@Z ENDP ; std::vector<BuffInfoStruct,std::allocator<BuffInfoStruct> >::_Destroy
_TEXT	ENDS
PUBLIC	?_Tidy@?$vector@UBuffInfoStruct@@V?$allocator@UBuffInfoStruct@@@std@@@std@@IAEXXZ ; std::vector<BuffInfoStruct,std::allocator<BuffInfoStruct> >::_Tidy
; Function compile flags: /Ogsp
;	COMDAT ?_Tidy@?$vector@UBuffInfoStruct@@V?$allocator@UBuffInfoStruct@@@std@@@std@@IAEXXZ
_TEXT	SEGMENT
?_Tidy@?$vector@UBuffInfoStruct@@V?$allocator@UBuffInfoStruct@@@std@@@std@@IAEXXZ PROC ; std::vector<BuffInfoStruct,std::allocator<BuffInfoStruct> >::_Tidy, COMDAT
; _this$ = ecx

; 1301 : 		{	// free all storage

  00000	56		 push	 esi
  00001	8b f1		 mov	 esi, ecx

; 1302 : 		if (this->_Myfirst != 0)

  00003	83 3e 00	 cmp	 DWORD PTR [esi], 0
  00006	74 28		 je	 SHORT $LN27@Tidy@2

; 1303 : 			{	// something to free, destroy and deallocate it
; 1304 : 			this->_Orphan_all();

  00008	53		 push	 ebx
  00009	57		 push	 edi
  0000a	ff 15 00 00 00
	00		 call	 DWORD PTR __imp_?_Orphan_all@_Container_base0@std@@QAEXXZ

; 1305 : 			_Destroy(this->_Myfirst, this->_Mylast);

  00010	8b 5e 04	 mov	 ebx, DWORD PTR [esi+4]
  00013	8b 3e		 mov	 edi, DWORD PTR [esi]
  00015	eb 0b		 jmp	 SHORT $LN31@Tidy@2
$LL12@Tidy@2:
  00017	8b cf		 mov	 ecx, edi
  00019	ff 15 00 00 00
	00		 call	 DWORD PTR __imp_??1ioHashString@@QAE@XZ
  0001f	83 c7 14	 add	 edi, 20			; 00000014H
$LN31@Tidy@2:
  00022	3b fb		 cmp	 edi, ebx
  00024	75 f1		 jne	 SHORT $LL12@Tidy@2

; 1306 : 			this->_Alval.deallocate(this->_Myfirst,
; 1307 : 				this->_Myend - this->_Myfirst);

  00026	ff 36		 push	 DWORD PTR [esi]
  00028	e8 00 00 00 00	 call	 ??3@YAXPAX@Z		; operator delete
  0002d	59		 pop	 ecx
  0002e	5f		 pop	 edi
  0002f	5b		 pop	 ebx
$LN27@Tidy@2:

; 1308 : 			}
; 1309 : 		this->_Myfirst = 0;

  00030	33 c0		 xor	 eax, eax
  00032	89 06		 mov	 DWORD PTR [esi], eax

; 1310 : 		this->_Mylast = 0;

  00034	89 46 04	 mov	 DWORD PTR [esi+4], eax

; 1311 : 		this->_Myend = 0;

  00037	89 46 08	 mov	 DWORD PTR [esi+8], eax
  0003a	5e		 pop	 esi

; 1312 : 		}

  0003b	c3		 ret	 0
?_Tidy@?$vector@UBuffInfoStruct@@V?$allocator@UBuffInfoStruct@@@std@@@std@@IAEXXZ ENDP ; std::vector<BuffInfoStruct,std::allocator<BuffInfoStruct> >::_Tidy
_TEXT	ENDS
PUBLIC	?reserve@?$vector@UBuffInfoStruct@@V?$allocator@UBuffInfoStruct@@@std@@@std@@QAEXI@Z ; std::vector<BuffInfoStruct,std::allocator<BuffInfoStruct> >::reserve
;	COMDAT xdata$x
; File c:\program files (x86)\microsoft visual studio 10.0\vc\include\xmemory
xdata$x	SEGMENT
__catchsym$?reserve@?$vector@UBuffInfoStruct@@V?$allocator@UBuffInfoStruct@@@std@@@std@@QAEXI@Z$3 DD 040H
	DD	00H
	DD	00H
	DD	FLAT:__catch$?reserve@?$vector@UBuffInfoStruct@@V?$allocator@UBuffInfoStruct@@@std@@@std@@QAEXI@Z$0
__unwindtable$?reserve@?$vector@UBuffInfoStruct@@V?$allocator@UBuffInfoStruct@@@std@@@std@@QAEXI@Z DD 0ffffffffH
	DD	00H
	DD	0ffffffffH
	DD	00H
__tryblocktable$?reserve@?$vector@UBuffInfoStruct@@V?$allocator@UBuffInfoStruct@@@std@@@std@@QAEXI@Z DD 00H
	DD	00H
	DD	01H
	DD	01H
	DD	FLAT:__catchsym$?reserve@?$vector@UBuffInfoStruct@@V?$allocator@UBuffInfoStruct@@@std@@@std@@QAEXI@Z$3
__ehfuncinfo$?reserve@?$vector@UBuffInfoStruct@@V?$allocator@UBuffInfoStruct@@@std@@@std@@QAEXI@Z DD 019930522H
	DD	02H
	DD	FLAT:__unwindtable$?reserve@?$vector@UBuffInfoStruct@@V?$allocator@UBuffInfoStruct@@@std@@@std@@QAEXI@Z
	DD	01H
	DD	FLAT:__tryblocktable$?reserve@?$vector@UBuffInfoStruct@@V?$allocator@UBuffInfoStruct@@@std@@@std@@QAEXI@Z
	DD	2 DUP(00H)
	DD	00H
	DD	01H
; Function compile flags: /Ogsp
; File c:\program files (x86)\microsoft visual studio 10.0\vc\include\vector
xdata$x	ENDS
;	COMDAT ?reserve@?$vector@UBuffInfoStruct@@V?$allocator@UBuffInfoStruct@@@std@@@std@@QAEXI@Z
_TEXT	SEGMENT
__Ptr$532632 = -24					; size = 4
$T539961 = -20						; size = 4
__$EHRec$ = -16						; size = 16
__Count$ = 8						; size = 4
?reserve@?$vector@UBuffInfoStruct@@V?$allocator@UBuffInfoStruct@@@std@@@std@@QAEXI@Z PROC ; std::vector<BuffInfoStruct,std::allocator<BuffInfoStruct> >::reserve, COMDAT
; _this$ = ecx

; 746  : 		{	// determine new minimum length of allocated storage

  00000	6a 0c		 push	 12			; 0000000cH
  00002	b8 00 00 00 00	 mov	 eax, __ehhandler$?reserve@?$vector@UBuffInfoStruct@@V?$allocator@UBuffInfoStruct@@@std@@@std@@QAEXI@Z
  00007	e8 00 00 00 00	 call	 __EH_prolog3_catch
  0000c	8b f1		 mov	 esi, ecx

; 747  : 		if (max_size() < _Count)

  0000e	81 7d 08 cc cc
	cc 0c		 cmp	 DWORD PTR __Count$[ebp], 214748364 ; 0cccccccH
  00015	76 0b		 jbe	 SHORT $LN5@reserve@2

; 748  : 			_Xlen();	// result too long

  00017	68 00 00 00 00	 push	 OFFSET ??_C@_0BD@OLBABOEK@vector?$DMT?$DO?5too?5long?$AA@
  0001c	ff 15 00 00 00
	00		 call	 DWORD PTR __imp_?_Xlength_error@std@@YAXPBD@Z
$LN62@reserve@2:
$LN5@reserve@2:

; 749  : 		else if (capacity() < _Count)

  00022	8b 46 08	 mov	 eax, DWORD PTR [esi+8]
  00025	2b 06		 sub	 eax, DWORD PTR [esi]
  00027	6a 14		 push	 20			; 00000014H
  00029	99		 cdq
  0002a	59		 pop	 ecx
  0002b	f7 f9		 idiv	 ecx
  0002d	3b 45 08	 cmp	 eax, DWORD PTR __Count$[ebp]
  00030	0f 83 81 00 00
	00		 jae	 $LN3@reserve@2

; 750  : 			{	// not enough room, reallocate
; 751  : 			pointer _Ptr = this->_Alval.allocate(_Count);

  00036	6a 00		 push	 0
  00038	ff 75 08	 push	 DWORD PTR __Count$[ebp]
  0003b	e8 00 00 00 00	 call	 ??$_Allocate@UBuffInfoStruct@@@std@@YAPAUBuffInfoStruct@@IPAU1@@Z ; std::_Allocate<BuffInfoStruct>

; 752  : 
; 753  : 			_TRY_BEGIN
; 754  : 			_Umove(this->_Myfirst, this->_Mylast, _Ptr);

  00040	8b 0e		 mov	 ecx, DWORD PTR [esi]
  00042	83 65 fc 00	 and	 DWORD PTR __$EHRec$[ebp+12], 0
  00046	8d 56 0c	 lea	 edx, DWORD PTR [esi+12]
  00049	52		 push	 edx
  0004a	89 45 e8	 mov	 DWORD PTR __Ptr$532632[ebp], eax
  0004d	ff 75 e8	 push	 DWORD PTR __Ptr$532632[ebp]
  00050	8b 46 04	 mov	 eax, DWORD PTR [esi+4]
  00053	50		 push	 eax
  00054	51		 push	 ecx
  00055	e8 00 00 00 00	 call	 ??$_Uninitialized_move@PAUBuffInfoStruct@@PAU1@V?$allocator@UBuffInfoStruct@@@std@@@std@@YAPAUBuffInfoStruct@@PAU1@00AAV?$allocator@UBuffInfoStruct@@@0@@Z ; std::_Uninitialized_move<BuffInfoStruct *,BuffInfoStruct *,std::allocator<BuffInfoStruct> >

; 758  : 			_CATCH_END
; 759  : 
; 760  : 			size_type _Size = size();

  0005a	8b 5e 04	 mov	 ebx, DWORD PTR [esi+4]
  0005d	8b 0e		 mov	 ecx, DWORD PTR [esi]
  0005f	83 c4 18	 add	 esp, 24			; 00000018H
  00062	8b c3		 mov	 eax, ebx
  00064	2b c1		 sub	 eax, ecx
  00066	6a 14		 push	 20			; 00000014H
  00068	99		 cdq
  00069	5f		 pop	 edi
  0006a	f7 ff		 idiv	 edi
  0006c	83 4d fc ff	 or	 DWORD PTR __$EHRec$[ebp+12], -1
  00070	8b f8		 mov	 edi, eax
  00072	85 c9		 test	 ecx, ecx
  00074	74 21		 je	 SHORT $LN54@reserve@2

; 761  : 			if (this->_Myfirst != 0)
; 762  : 				{	// destroy and deallocate old array
; 763  : 				_Destroy(this->_Myfirst, this->_Mylast);

  00076	89 4d ec	 mov	 DWORD PTR $T539961[ebp], ecx
  00079	3b cb		 cmp	 ecx, ebx
  0007b	74 12		 je	 SHORT $LN37@reserve@2
$LN39@reserve@2:
  0007d	8b 4d ec	 mov	 ecx, DWORD PTR $T539961[ebp]
  00080	ff 15 00 00 00
	00		 call	 DWORD PTR __imp_??1ioHashString@@QAE@XZ
  00086	83 45 ec 14	 add	 DWORD PTR $T539961[ebp], 20 ; 00000014H
  0008a	39 5d ec	 cmp	 DWORD PTR $T539961[ebp], ebx
  0008d	75 ee		 jne	 SHORT $LN39@reserve@2
$LN37@reserve@2:

; 764  : 				this->_Alval.deallocate(this->_Myfirst,
; 765  : 					this->_Myend - this->_Myfirst);

  0008f	ff 36		 push	 DWORD PTR [esi]
  00091	e8 00 00 00 00	 call	 ??3@YAXPAX@Z		; operator delete
  00096	59		 pop	 ecx
$LN54@reserve@2:

; 766  : 				}
; 767  : 
; 768  : 			this->_Orphan_all();

  00097	8b ce		 mov	 ecx, esi
  00099	ff 15 00 00 00
	00		 call	 DWORD PTR __imp_?_Orphan_all@_Container_base0@std@@QAEXXZ

; 769  : 			this->_Myend = _Ptr + _Count;
; 770  : 			this->_Mylast = _Ptr + _Size;

  0009f	6b ff 14	 imul	 edi, 20			; 00000014H
  000a2	8b 45 08	 mov	 eax, DWORD PTR __Count$[ebp]
  000a5	8b 4d e8	 mov	 ecx, DWORD PTR __Ptr$532632[ebp]
  000a8	6b c0 14	 imul	 eax, 20			; 00000014H
  000ab	03 c1		 add	 eax, ecx
  000ad	03 f9		 add	 edi, ecx
  000af	89 46 08	 mov	 DWORD PTR [esi+8], eax
  000b2	89 7e 04	 mov	 DWORD PTR [esi+4], edi

; 771  : 			this->_Myfirst = _Ptr;

  000b5	89 0e		 mov	 DWORD PTR [esi], ecx
$LN3@reserve@2:

; 772  : 			}
; 773  : 		}

  000b7	e8 00 00 00 00	 call	 __EH_epilog3
  000bc	c2 04 00	 ret	 4
__catch$?reserve@?$vector@UBuffInfoStruct@@V?$allocator@UBuffInfoStruct@@@std@@@std@@QAEXI@Z$0:

; 755  : 			_CATCH_ALL
; 756  : 			this->_Alval.deallocate(_Ptr, _Count);

  000bf	ff 75 e8	 push	 DWORD PTR __Ptr$532632[ebp]
  000c2	e8 00 00 00 00	 call	 ??3@YAXPAX@Z		; operator delete
  000c7	59		 pop	 ecx

; 757  : 			_RERAISE;

  000c8	6a 00		 push	 0
  000ca	6a 00		 push	 0
  000cc	e8 00 00 00 00	 call	 __CxxThrowException@8
$LN63@reserve@2:
$LN61@reserve@2:
  000d1	cc		 int	 3
_TEXT	ENDS
;	COMDAT text$x
text$x	SEGMENT
__ehhandler$?reserve@?$vector@UBuffInfoStruct@@V?$allocator@UBuffInfoStruct@@@std@@@std@@QAEXI@Z:
  00000	8b 54 24 08	 mov	 edx, DWORD PTR [esp+8]
  00004	8d 42 0c	 lea	 eax, DWORD PTR [edx+12]
  00007	8b 4a e4	 mov	 ecx, DWORD PTR [edx-28]
  0000a	33 c8		 xor	 ecx, eax
  0000c	e8 00 00 00 00	 call	 @__security_check_cookie@4
  00011	b8 00 00 00 00	 mov	 eax, OFFSET __ehfuncinfo$?reserve@?$vector@UBuffInfoStruct@@V?$allocator@UBuffInfoStruct@@@std@@@std@@QAEXI@Z
  00016	e9 00 00 00 00	 jmp	 ___CxxFrameHandler3
text$x	ENDS
?reserve@?$vector@UBuffInfoStruct@@V?$allocator@UBuffInfoStruct@@@std@@@std@@QAEXI@Z ENDP ; std::vector<BuffInfoStruct,std::allocator<BuffInfoStruct> >::reserve
PUBLIC	?push_back@?$vector@UChangeDirInfo@@V?$allocator@UChangeDirInfo@@@std@@@std@@QAEXABUChangeDirInfo@@@Z ; std::vector<ChangeDirInfo,std::allocator<ChangeDirInfo> >::push_back
; Function compile flags: /Ogsp
;	COMDAT ?push_back@?$vector@UChangeDirInfo@@V?$allocator@UChangeDirInfo@@@std@@@std@@QAEXABUChangeDirInfo@@@Z
_TEXT	SEGMENT
__Val$ = 8						; size = 4
?push_back@?$vector@UChangeDirInfo@@V?$allocator@UChangeDirInfo@@@std@@@std@@QAEXABUChangeDirInfo@@@Z PROC ; std::vector<ChangeDirInfo,std::allocator<ChangeDirInfo> >::push_back, COMDAT
; _this$ = ecx

; 976  : 		{	// insert element at end

  00000	55		 push	 ebp
  00001	8b ec		 mov	 ebp, esp
  00003	56		 push	 esi
  00004	8b f1		 mov	 esi, ecx

; 977  : 		if (_Inside(_STD addressof(_Val)))

  00006	8b 4e 04	 mov	 ecx, DWORD PTR [esi+4]
  00009	57		 push	 edi
  0000a	8b 7d 08	 mov	 edi, DWORD PTR __Val$[ebp]
  0000d	3b f9		 cmp	 edi, ecx
  0000f	73 34		 jae	 SHORT $LN4@push_back
  00011	8b 16		 mov	 edx, DWORD PTR [esi]
  00013	3b d7		 cmp	 edx, edi
  00015	77 2e		 ja	 SHORT $LN4@push_back

; 978  : 			{	// push back an element
; 979  : 			size_type _Idx = _STD addressof(_Val) - this->_Myfirst;

  00017	8b c7		 mov	 eax, edi
  00019	2b c2		 sub	 eax, edx
  0001b	6a 1c		 push	 28			; 0000001cH
  0001d	99		 cdq
  0001e	5f		 pop	 edi
  0001f	f7 ff		 idiv	 edi
  00021	8b f8		 mov	 edi, eax

; 980  : 			if (this->_Mylast == this->_Myend)

  00023	3b 4e 08	 cmp	 ecx, DWORD PTR [esi+8]
  00026	75 09		 jne	 SHORT $LN3@push_back

; 981  : 				_Reserve(1);

  00028	6a 01		 push	 1
  0002a	8b ce		 mov	 ecx, esi
  0002c	e8 00 00 00 00	 call	 ?_Reserve@?$vector@UChangeDirInfo@@V?$allocator@UChangeDirInfo@@@std@@@std@@IAEXI@Z ; std::vector<ChangeDirInfo,std::allocator<ChangeDirInfo> >::_Reserve
$LN3@push_back:

; 982  : 			_Orphan_range(this->_Mylast, this->_Mylast);
; 983  : 			_Cons_val(this->_Alval,
; 984  : 				this->_Mylast,
; 985  : 				this->_Myfirst[_Idx]);

  00031	6b ff 1c	 imul	 edi, 28			; 0000001cH
  00034	03 3e		 add	 edi, DWORD PTR [esi]
  00036	8d 46 0c	 lea	 eax, DWORD PTR [esi+12]
  00039	57		 push	 edi
  0003a	ff 76 04	 push	 DWORD PTR [esi+4]
  0003d	50		 push	 eax
  0003e	e8 00 00 00 00	 call	 ??$_Cons_val@V?$allocator@UChangeDirInfo@@@std@@UChangeDirInfo@@AAU3@@std@@YAXAAV?$allocator@UChangeDirInfo@@@0@PAUChangeDirInfo@@AAU2@@Z ; std::_Cons_val<std::allocator<ChangeDirInfo>,ChangeDirInfo,ChangeDirInfo &>

; 986  : 			++this->_Mylast;
; 987  : 			}
; 988  : 		else

  00043	eb 1b		 jmp	 SHORT $LN20@push_back
$LN4@push_back:

; 989  : 			{	// push back a non-element
; 990  : 			if (this->_Mylast == this->_Myend)

  00045	3b 4e 08	 cmp	 ecx, DWORD PTR [esi+8]
  00048	75 09		 jne	 SHORT $LN1@push_back

; 991  : 				_Reserve(1);

  0004a	6a 01		 push	 1
  0004c	8b ce		 mov	 ecx, esi
  0004e	e8 00 00 00 00	 call	 ?_Reserve@?$vector@UChangeDirInfo@@V?$allocator@UChangeDirInfo@@@std@@@std@@IAEXI@Z ; std::vector<ChangeDirInfo,std::allocator<ChangeDirInfo> >::_Reserve
$LN1@push_back:

; 992  : 			_Orphan_range(this->_Mylast, this->_Mylast);
; 993  : 			_Cons_val(this->_Alval,
; 994  : 				this->_Mylast,
; 995  : 				_Val);

  00053	57		 push	 edi
  00054	ff 76 04	 push	 DWORD PTR [esi+4]
  00057	8d 46 0c	 lea	 eax, DWORD PTR [esi+12]
  0005a	50		 push	 eax
  0005b	e8 00 00 00 00	 call	 ??$_Cons_val@V?$allocator@UChangeDirInfo@@@std@@UChangeDirInfo@@ABU3@@std@@YAXAAV?$allocator@UChangeDirInfo@@@0@PAUChangeDirInfo@@ABU2@@Z ; std::_Cons_val<std::allocator<ChangeDirInfo>,ChangeDirInfo,ChangeDirInfo const &>
$LN20@push_back:
  00060	83 c4 0c	 add	 esp, 12			; 0000000cH

; 996  : 			++this->_Mylast;

  00063	83 46 04 1c	 add	 DWORD PTR [esi+4], 28	; 0000001cH
  00067	5f		 pop	 edi
  00068	5e		 pop	 esi

; 997  : 			}
; 998  : 		}

  00069	5d		 pop	 ebp
  0006a	c2 04 00	 ret	 4
?push_back@?$vector@UChangeDirInfo@@V?$allocator@UChangeDirInfo@@@std@@@std@@QAEXABUChangeDirInfo@@@Z ENDP ; std::vector<ChangeDirInfo,std::allocator<ChangeDirInfo> >::push_back
_TEXT	ENDS
PUBLIC	?clear@?$vector@UChangeDirInfo@@V?$allocator@UChangeDirInfo@@@std@@@std@@QAEXXZ ; std::vector<ChangeDirInfo,std::allocator<ChangeDirInfo> >::clear
; Function compile flags: /Ogsp
;	COMDAT ?clear@?$vector@UChangeDirInfo@@V?$allocator@UChangeDirInfo@@@std@@@std@@QAEXXZ
_TEXT	SEGMENT
$T540059 = -4						; size = 4
?clear@?$vector@UChangeDirInfo@@V?$allocator@UChangeDirInfo@@@std@@@std@@QAEXXZ PROC ; std::vector<ChangeDirInfo,std::allocator<ChangeDirInfo> >::clear, COMDAT
; _this$ = ecx

; 1217 : 		{	// erase all

  00000	55		 push	 ebp
  00001	8b ec		 mov	 ebp, esp
  00003	51		 push	 ecx

; 1218 : 		erase(begin(), end());

  00004	8b 41 04	 mov	 eax, DWORD PTR [ecx+4]
  00007	8b 11		 mov	 edx, DWORD PTR [ecx]
  00009	50		 push	 eax
  0000a	52		 push	 edx
  0000b	8d 45 fc	 lea	 eax, DWORD PTR $T540059[ebp]
  0000e	50		 push	 eax
  0000f	e8 00 00 00 00	 call	 ?erase@?$vector@UChangeDirInfo@@V?$allocator@UChangeDirInfo@@@std@@@std@@QAE?AV?$_Vector_iterator@V?$_Vector_val@UChangeDirInfo@@V?$allocator@UChangeDirInfo@@@std@@@std@@@2@V?$_Vector_const_iterator@V?$_Vector_val@UChangeDirInfo@@V?$allocator@UChangeDirInfo@@@std@@@std@@@2@0@Z ; std::vector<ChangeDirInfo,std::allocator<ChangeDirInfo> >::erase

; 1219 : 		}

  00014	c9		 leave
  00015	c3		 ret	 0
?clear@?$vector@UChangeDirInfo@@V?$allocator@UChangeDirInfo@@@std@@@std@@QAEXXZ ENDP ; std::vector<ChangeDirInfo,std::allocator<ChangeDirInfo> >::clear
_TEXT	ENDS
PUBLIC	?_Reserve@?$vector@UBuffInfoStruct@@V?$allocator@UBuffInfoStruct@@@std@@@std@@IAEXI@Z ; std::vector<BuffInfoStruct,std::allocator<BuffInfoStruct> >::_Reserve
; Function compile flags: /Ogsp
;	COMDAT ?_Reserve@?$vector@UBuffInfoStruct@@V?$allocator@UBuffInfoStruct@@@std@@@std@@IAEXI@Z
_TEXT	SEGMENT
__Count$ = 8						; size = 4
?_Reserve@?$vector@UBuffInfoStruct@@V?$allocator@UBuffInfoStruct@@@std@@@std@@IAEXI@Z PROC ; std::vector<BuffInfoStruct,std::allocator<BuffInfoStruct> >::_Reserve, COMDAT
; _this$ = ecx

; 1290 : 		{	// ensure room for _Count new elements, grow exponentially

  00000	55		 push	 ebp
  00001	8b ec		 mov	 ebp, esp
  00003	56		 push	 esi
  00004	8b f1		 mov	 esi, ecx

; 1291 : 		size_type _Size = size();

  00006	8b 0e		 mov	 ecx, DWORD PTR [esi]
  00008	8b 46 04	 mov	 eax, DWORD PTR [esi+4]
  0000b	2b c1		 sub	 eax, ecx
  0000d	57		 push	 edi
  0000e	99		 cdq
  0000f	6a 14		 push	 20			; 00000014H
  00011	5f		 pop	 edi
  00012	f7 ff		 idiv	 edi
  00014	8b f8		 mov	 edi, eax

; 1292 : 		if (max_size() - _Count < _Size)

  00016	b8 cc cc cc 0c	 mov	 eax, 214748364		; 0cccccccH
  0001b	2b 45 08	 sub	 eax, DWORD PTR __Count$[ebp]
  0001e	3b c7		 cmp	 eax, edi
  00020	73 0b		 jae	 SHORT $LN4@Reserve@2

; 1293 : 			_Xlen();

  00022	68 00 00 00 00	 push	 OFFSET ??_C@_0BD@OLBABOEK@vector?$DMT?$DO?5too?5long?$AA@
  00027	ff 15 00 00 00
	00		 call	 DWORD PTR __imp_?_Xlength_error@std@@YAXPBD@Z
$LN21@Reserve@2:
$LN4@Reserve@2:

; 1294 : 		else if ((_Size += _Count) <= capacity())

  0002d	8b 46 08	 mov	 eax, DWORD PTR [esi+8]
  00030	2b c1		 sub	 eax, ecx
  00032	6a 14		 push	 20			; 00000014H
  00034	99		 cdq
  00035	59		 pop	 ecx
  00036	f7 f9		 idiv	 ecx
  00038	03 7d 08	 add	 edi, DWORD PTR __Count$[ebp]
  0003b	3b f8		 cmp	 edi, eax
  0003d	76 10		 jbe	 SHORT $LN1@Reserve@2

; 1295 : 			;
; 1296 : 		else
; 1297 : 			reserve(_Grow_to(_Size));

  0003f	57		 push	 edi
  00040	8b ce		 mov	 ecx, esi
  00042	e8 00 00 00 00	 call	 ?_Grow_to@?$vector@UBuffInfoStruct@@V?$allocator@UBuffInfoStruct@@@std@@@std@@IBEII@Z ; std::vector<BuffInfoStruct,std::allocator<BuffInfoStruct> >::_Grow_to
  00047	50		 push	 eax
  00048	8b ce		 mov	 ecx, esi
  0004a	e8 00 00 00 00	 call	 ?reserve@?$vector@UBuffInfoStruct@@V?$allocator@UBuffInfoStruct@@@std@@@std@@QAEXI@Z ; std::vector<BuffInfoStruct,std::allocator<BuffInfoStruct> >::reserve
$LN1@Reserve@2:
  0004f	5f		 pop	 edi
  00050	5e		 pop	 esi

; 1298 : 		}

  00051	5d		 pop	 ebp
  00052	c2 04 00	 ret	 4
$LN20@Reserve@2:
?_Reserve@?$vector@UBuffInfoStruct@@V?$allocator@UBuffInfoStruct@@@std@@@std@@IAEXI@Z ENDP ; std::vector<BuffInfoStruct,std::allocator<BuffInfoStruct> >::_Reserve
_TEXT	ENDS
PUBLIC	??$_Sort@PAUChangeDirInfo@@HVChangeDirSort@@@std@@YAXPAUChangeDirInfo@@0HVChangeDirSort@@@Z ; std::_Sort<ChangeDirInfo *,int,ChangeDirSort>
; Function compile flags: /Ogsp
; File c:\program files (x86)\microsoft visual studio 10.0\vc\include\algorithm
;	COMDAT ??$_Sort@PAUChangeDirInfo@@HVChangeDirSort@@@std@@YAXPAUChangeDirInfo@@0HVChangeDirSort@@@Z
_TEXT	SEGMENT
__Mid$534993 = -8					; size = 8
__First$ = 8						; size = 4
__Last$ = 12						; size = 4
__Ideal$ = 16						; size = 4
__Pred$ = 20						; size = 1
??$_Sort@PAUChangeDirInfo@@HVChangeDirSort@@@std@@YAXPAUChangeDirInfo@@0HVChangeDirSort@@@Z PROC ; std::_Sort<ChangeDirInfo *,int,ChangeDirSort>, COMDAT

; 3771 : 	{	// order [_First, _Last), using _Pred

  00000	55		 push	 ebp
  00001	8b ec		 mov	 ebp, esp
  00003	51		 push	 ecx
  00004	51		 push	 ecx
  00005	53		 push	 ebx

; 3772 : 	_Diff _Count;
; 3773 : 	for (; _ISORT_MAX < (_Count = _Last - _First) && 0 < _Ideal; )

  00006	8b 5d 08	 mov	 ebx, DWORD PTR __First$[ebp]
  00009	57		 push	 edi
  0000a	8b 7d 0c	 mov	 edi, DWORD PTR __Last$[ebp]
  0000d	8b c7		 mov	 eax, edi
  0000f	2b c3		 sub	 eax, ebx
  00011	6a 1c		 push	 28			; 0000001cH
  00013	99		 cdq
  00014	59		 pop	 ecx
  00015	f7 f9		 idiv	 ecx
  00017	83 f8 20	 cmp	 eax, 32			; 00000020H
  0001a	0f 8e 9c 00 00
	00		 jle	 $LN22@Sort
  00020	56		 push	 esi
  00021	8b 75 10	 mov	 esi, DWORD PTR __Ideal$[ebp]
$LL7@Sort:
  00024	85 f6		 test	 esi, esi
  00026	7e 75		 jle	 SHORT $LN6@Sort

; 3774 : 		{	// divide and conquer by quicksort
; 3775 : 		_STD pair<_RanIt, _RanIt> _Mid =
; 3776 : 			_Unguarded_partition(_First, _Last, _Pred);

  00028	ff 75 14	 push	 DWORD PTR __Pred$[ebp]
  0002b	8d 45 f8	 lea	 eax, DWORD PTR __Mid$534993[ebp]
  0002e	57		 push	 edi
  0002f	53		 push	 ebx
  00030	50		 push	 eax
  00031	e8 00 00 00 00	 call	 ??$_Unguarded_partition@PAUChangeDirInfo@@VChangeDirSort@@@std@@YA?AU?$pair@PAUChangeDirInfo@@PAU1@@0@PAUChangeDirInfo@@0VChangeDirSort@@@Z ; std::_Unguarded_partition<ChangeDirInfo *,ChangeDirSort>

; 3777 : 		_Ideal /= 2, _Ideal += _Ideal / 2;	// allow 1.5 log2(N) divisions

  00036	8b c6		 mov	 eax, esi
  00038	99		 cdq
  00039	2b c2		 sub	 eax, edx
  0003b	d1 f8		 sar	 eax, 1
  0003d	8b f0		 mov	 esi, eax
  0003f	99		 cdq
  00040	2b c2		 sub	 eax, edx
  00042	d1 f8		 sar	 eax, 1
  00044	03 f0		 add	 esi, eax
  00046	83 c4 10	 add	 esp, 16			; 00000010H

; 3778 : 
; 3779 : 		if (_Mid.first - _First < _Last - _Mid.second)

  00049	8b c7		 mov	 eax, edi
  0004b	2b 45 fc	 sub	 eax, DWORD PTR __Mid$534993[ebp+4]
  0004e	6a 1c		 push	 28			; 0000001cH
  00050	99		 cdq
  00051	59		 pop	 ecx
  00052	f7 f9		 idiv	 ecx
  00054	6a 1c		 push	 28			; 0000001cH
  00056	8b c8		 mov	 ecx, eax
  00058	8b 45 f8	 mov	 eax, DWORD PTR __Mid$534993[ebp]
  0005b	2b c3		 sub	 eax, ebx
  0005d	5b		 pop	 ebx
  0005e	99		 cdq
  0005f	f7 fb		 idiv	 ebx

; 3780 : 			{	// loop on second half
; 3781 : 			_Sort(_First, _Mid.first, _Ideal, _Pred);

  00061	ff 75 14	 push	 DWORD PTR __Pred$[ebp]
  00064	56		 push	 esi
  00065	3b c1		 cmp	 eax, ecx
  00067	7d 13		 jge	 SHORT $LN5@Sort
  00069	ff 75 f8	 push	 DWORD PTR __Mid$534993[ebp]
  0006c	ff 75 08	 push	 DWORD PTR __First$[ebp]
  0006f	e8 00 00 00 00	 call	 ??$_Sort@PAUChangeDirInfo@@HVChangeDirSort@@@std@@YAXPAUChangeDirInfo@@0HVChangeDirSort@@@Z ; std::_Sort<ChangeDirInfo *,int,ChangeDirSort>

; 3782 : 			_First = _Mid.second;

  00074	8b 5d fc	 mov	 ebx, DWORD PTR __Mid$534993[ebp+4]
  00077	89 5d 08	 mov	 DWORD PTR __First$[ebp], ebx

; 3783 : 			}
; 3784 : 		else

  0007a	eb 0f		 jmp	 SHORT $LN23@Sort
$LN5@Sort:

; 3785 : 			{	// loop on first half
; 3786 : 			_Sort(_Mid.second, _Last, _Ideal, _Pred);

  0007c	57		 push	 edi
  0007d	ff 75 fc	 push	 DWORD PTR __Mid$534993[ebp+4]
  00080	e8 00 00 00 00	 call	 ??$_Sort@PAUChangeDirInfo@@HVChangeDirSort@@@std@@YAXPAUChangeDirInfo@@0HVChangeDirSort@@@Z ; std::_Sort<ChangeDirInfo *,int,ChangeDirSort>

; 3787 : 			_Last = _Mid.first;

  00085	8b 7d f8	 mov	 edi, DWORD PTR __Mid$534993[ebp]
  00088	8b 5d 08	 mov	 ebx, DWORD PTR __First$[ebp]
$LN23@Sort:

; 3772 : 	_Diff _Count;
; 3773 : 	for (; _ISORT_MAX < (_Count = _Last - _First) && 0 < _Ideal; )

  0008b	83 c4 10	 add	 esp, 16			; 00000010H
  0008e	8b c7		 mov	 eax, edi
  00090	2b c3		 sub	 eax, ebx
  00092	6a 1c		 push	 28			; 0000001cH
  00094	99		 cdq
  00095	59		 pop	 ecx
  00096	f7 f9		 idiv	 ecx
  00098	83 f8 20	 cmp	 eax, 32			; 00000020H
  0009b	7f 87		 jg	 SHORT $LL7@Sort
$LN6@Sort:
  0009d	5e		 pop	 esi

; 3788 : 			}
; 3789 : 		}
; 3790 : 
; 3791 : 	if (_ISORT_MAX < _Count)

  0009e	83 f8 20	 cmp	 eax, 32			; 00000020H
  000a1	7e 19		 jle	 SHORT $LN22@Sort

; 3792 : 		{	// heap sort if too many divisions
; 3793 : 		_STD make_heap(_First, _Last, _Pred);

  000a3	ff 75 14	 push	 DWORD PTR __Pred$[ebp]
  000a6	57		 push	 edi
  000a7	53		 push	 ebx
  000a8	e8 00 00 00 00	 call	 ??$make_heap@PAUChangeDirInfo@@VChangeDirSort@@@std@@YAXPAUChangeDirInfo@@0VChangeDirSort@@@Z ; std::make_heap<ChangeDirInfo *,ChangeDirSort>

; 3794 : 		_STD sort_heap(_First, _Last, _Pred);

  000ad	ff 75 14	 push	 DWORD PTR __Pred$[ebp]
  000b0	57		 push	 edi
  000b1	53		 push	 ebx
  000b2	e8 00 00 00 00	 call	 ??$_Sort_heap@PAUChangeDirInfo@@VChangeDirSort@@@std@@YAXPAUChangeDirInfo@@0VChangeDirSort@@@Z ; std::_Sort_heap<ChangeDirInfo *,ChangeDirSort>
  000b7	83 c4 18	 add	 esp, 24			; 00000018H
  000ba	eb 14		 jmp	 SHORT $LN16@Sort
$LN22@Sort:

; 3795 : 		}
; 3796 : 	else if (1 < _Count)

  000bc	83 f8 01	 cmp	 eax, 1
  000bf	7e 0f		 jle	 SHORT $LN16@Sort

; 3797 : 		_Insertion_sort(_First, _Last, _Pred);	// small

  000c1	6a 00		 push	 0
  000c3	ff 75 14	 push	 DWORD PTR __Pred$[ebp]
  000c6	57		 push	 edi
  000c7	53		 push	 ebx
  000c8	e8 00 00 00 00	 call	 ??$_Insertion_sort1@PAUChangeDirInfo@@VChangeDirSort@@U1@@std@@YAXPAUChangeDirInfo@@0VChangeDirSort@@0@Z ; std::_Insertion_sort1<ChangeDirInfo *,ChangeDirSort,ChangeDirInfo>
  000cd	83 c4 10	 add	 esp, 16			; 00000010H
$LN16@Sort:
  000d0	5f		 pop	 edi
  000d1	5b		 pop	 ebx

; 3798 : 	}

  000d2	c9		 leave
  000d3	c3		 ret	 0
??$_Sort@PAUChangeDirInfo@@HVChangeDirSort@@@std@@YAXPAUChangeDirInfo@@0HVChangeDirSort@@@Z ENDP ; std::_Sort<ChangeDirInfo *,int,ChangeDirSort>
_TEXT	ENDS
PUBLIC	??1?$vector@UBuffInfoStruct@@V?$allocator@UBuffInfoStruct@@@std@@@std@@QAE@XZ ; std::vector<BuffInfoStruct,std::allocator<BuffInfoStruct> >::~vector<BuffInfoStruct,std::allocator<BuffInfoStruct> >
; Function compile flags: /Ogsp
; File c:\program files (x86)\microsoft visual studio 10.0\vc\include\vector
;	COMDAT ??1?$vector@UBuffInfoStruct@@V?$allocator@UBuffInfoStruct@@@std@@@std@@QAE@XZ
_TEXT	SEGMENT
??1?$vector@UBuffInfoStruct@@V?$allocator@UBuffInfoStruct@@@std@@@std@@QAE@XZ PROC ; std::vector<BuffInfoStruct,std::allocator<BuffInfoStruct> >::~vector<BuffInfoStruct,std::allocator<BuffInfoStruct> >, COMDAT
; _this$ = ecx

; 705  : 		_Tidy();

  00000	e9 00 00 00 00	 jmp	 ?_Tidy@?$vector@UBuffInfoStruct@@V?$allocator@UBuffInfoStruct@@@std@@@std@@IAEXXZ ; std::vector<BuffInfoStruct,std::allocator<BuffInfoStruct> >::_Tidy
??1?$vector@UBuffInfoStruct@@V?$allocator@UBuffInfoStruct@@@std@@@std@@QAE@XZ ENDP ; std::vector<BuffInfoStruct,std::allocator<BuffInfoStruct> >::~vector<BuffInfoStruct,std::allocator<BuffInfoStruct> >
_TEXT	ENDS
PUBLIC	??_7ioAdhesiveMissileWeapon3@@6B@		; ioAdhesiveMissileWeapon3::`vftable'
PUBLIC	??0ioAdhesiveMissileWeapon3@@QAE@PAVioBaseChar@@PBUWeaponAttribute@@@Z ; ioAdhesiveMissileWeapon3::ioAdhesiveMissileWeapon3
PUBLIC	??_R4ioAdhesiveMissileWeapon3@@6B@		; ioAdhesiveMissileWeapon3::`RTTI Complete Object Locator'
PUBLIC	??_R0?AVioAdhesiveMissileWeapon3@@@8		; ioAdhesiveMissileWeapon3 `RTTI Type Descriptor'
PUBLIC	??_R3ioAdhesiveMissileWeapon3@@8		; ioAdhesiveMissileWeapon3::`RTTI Class Hierarchy Descriptor'
PUBLIC	??_R2ioAdhesiveMissileWeapon3@@8		; ioAdhesiveMissileWeapon3::`RTTI Base Class Array'
PUBLIC	??_R1A@?0A@EA@ioAdhesiveMissileWeapon3@@8	; ioAdhesiveMissileWeapon3::`RTTI Base Class Descriptor at (0,-1,0,64)'
PUBLIC	??_R1A@?0A@EA@ioWeapon@@8			; ioWeapon::`RTTI Base Class Descriptor at (0,-1,0,64)'
PUBLIC	??_R0?AVioWeapon@@@8				; ioWeapon `RTTI Type Descriptor'
PUBLIC	??_R3ioWeapon@@8				; ioWeapon::`RTTI Class Hierarchy Descriptor'
PUBLIC	??_R2ioWeapon@@8				; ioWeapon::`RTTI Base Class Array'
PUBLIC	?LoadProperty@ioAdhesiveMissileWeapon3@@UAEXAAVioINILoader@@@Z ; ioAdhesiveMissileWeapon3::LoadProperty
EXTRN	__imp_??1ioOrientBox@@QAE@XZ:PROC
EXTRN	??1ioWeapon@@UAE@XZ:PROC			; ioWeapon::~ioWeapon
EXTRN	?SetPeculiarity@ioWeapon@@QAEXK@Z:PROC		; ioWeapon::SetPeculiarity
EXTRN	__imp_??0ioOrientBox@@QAE@XZ:PROC
EXTRN	??0ioWeapon@@QAE@PAVioBaseChar@@PBUWeaponAttribute@@@Z:PROC ; ioWeapon::ioWeapon
EXTRN	?IsAlreadyCollisioned@ioWeapon@@UAE_NPAVioPlayEntity@@@Z:PROC ; ioWeapon::IsAlreadyCollisioned
EXTRN	?AddCollisionEntity@ioWeapon@@UAEXPAVioPlayEntity@@@Z:PROC ; ioWeapon::AddCollisionEntity
EXTRN	?SetOwnerDamageRate@ioWeapon@@UAEXM@Z:PROC	; ioWeapon::SetOwnerDamageRate
EXTRN	?SetOwnerChargeDamageRate@ioWeapon@@UAEXM@Z:PROC ; ioWeapon::SetOwnerChargeDamageRate
EXTRN	?SetOwnerChargeForceRate@ioWeapon@@UAEXM@Z:PROC	; ioWeapon::SetOwnerChargeForceRate
EXTRN	?SetOwnerChargeRangeRate@ioWeapon@@UAEXM@Z:PROC	; ioWeapon::SetOwnerChargeRangeRate
EXTRN	?SetOwnerChargeSpeedRate@ioWeapon@@UAEXM@Z:PROC	; ioWeapon::SetOwnerChargeSpeedRate
EXTRN	?SetOwnerChargeBlowRate@ioWeapon@@UAEXM@Z:PROC	; ioWeapon::SetOwnerChargeBlowRate
EXTRN	?SetOwnerChargeFloatRate@ioWeapon@@UAEXM@Z:PROC	; ioWeapon::SetOwnerChargeFloatRate
EXTRN	?SetOwnerChargeScaleRate@ioWeapon@@UAEXM@Z:PROC	; ioWeapon::SetOwnerChargeScaleRate
EXTRN	?SetOwnerChargeExplosionRate@ioWeapon@@UAEXM@Z:PROC ; ioWeapon::SetOwnerChargeExplosionRate
EXTRN	?SetOwnerChargeWoundedTimeRate@ioWeapon@@UAEXM@Z:PROC ; ioWeapon::SetOwnerChargeWoundedTimeRate
EXTRN	?SetOwnerChargeLiveTimeRate@ioWeapon@@UAEXM@Z:PROC ; ioWeapon::SetOwnerChargeLiveTimeRate
EXTRN	?SetOwnerChargeBuffLiveTimeRate@ioWeapon@@UAEXM@Z:PROC ; ioWeapon::SetOwnerChargeBuffLiveTimeRate
EXTRN	?SetWeaponIndex@ioWeapon@@UAEXK@Z:PROC		; ioWeapon::SetWeaponIndex
EXTRN	?SetGrapplingTargetName@ioWeapon@@UAEXABVioHashString@@@Z:PROC ; ioWeapon::SetGrapplingTargetName
EXTRN	?SetCreateItem@ioWeapon@@UAEXABVioHashString@@@Z:PROC ; ioWeapon::SetCreateItem
EXTRN	?SetTeam@ioWeapon@@UAEXPAVioPlayStage@@W4TeamType@@@Z:PROC ; ioWeapon::SetTeam
EXTRN	?CallReserveAreaWeapon@ioWeapon@@UAEXXZ:PROC	; ioWeapon::CallReserveAreaWeapon
EXTRN	?PlayWoundedSound@ioWeapon@@UAEXPAVioPlayEntity@@@Z:PROC ; ioWeapon::PlayWoundedSound
EXTRN	?PlayDefensedSound@ioWeapon@@UAEXPAVioPlayEntity@@@Z:PROC ; ioWeapon::PlayDefensedSound
EXTRN	?PlayLoopSound@ioWeapon@@UAEXXZ:PROC		; ioWeapon::PlayLoopSound
EXTRN	?StopLoopSound@ioWeapon@@UAEXXZ:PROC		; ioWeapon::StopLoopSound
EXTRN	?GetPosition@ioWeapon@@UBEABUD3DXVECTOR3@@XZ:PROC ; ioWeapon::GetPosition
EXTRN	?GetBlowType@ioWeapon@@UBE?AW4BlowTargetType@@XZ:PROC ; ioWeapon::GetBlowType
EXTRN	?GetPushPower@ioWeapon@@UBEMM@Z:PROC		; ioWeapon::GetPushPower
EXTRN	?GetBlowPower@ioWeapon@@UBEMM@Z:PROC		; ioWeapon::GetBlowPower
EXTRN	?GetAirPushPower@ioWeapon@@UBEMM@Z:PROC		; ioWeapon::GetAirPushPower
EXTRN	?GetAirBlowPower@ioWeapon@@UBEMM@Z:PROC		; ioWeapon::GetAirBlowPower
EXTRN	?GetDefensePushPower@ioWeapon@@UBEMM@Z:PROC	; ioWeapon::GetDefensePushPower
EXTRN	?GetCollisionEnableTime@ioWeapon@@UBEKXZ:PROC	; ioWeapon::GetCollisionEnableTime
EXTRN	?SetSylphid@ioWeapon@@UAEHXZ:PROC		; ioWeapon::SetSylphid
EXTRN	?ApplyExtraReserveWeaponByWeaponInfo@ioWeapon@@UAEXPAV1@@Z:PROC ; ioWeapon::ApplyExtraReserveWeaponByWeaponInfo
EXTRN	?SetResistanceAttr@ioWeapon@@UAEXH@Z:PROC	; ioWeapon::SetResistanceAttr
EXTRN	?SetStartCollisionBox@ioWeapon@@UAEXXZ:PROC	; ioWeapon::SetStartCollisionBox
EXTRN	?SetLiveTime@ioWeapon@@UAEXK@Z:PROC		; ioWeapon::SetLiveTime
EXTRN	?SetMoveSpeed@ioWeapon@@UAEXM@Z:PROC		; ioWeapon::SetMoveSpeed
EXTRN	?SetFloatPower@ioWeapon@@UAEXM@Z:PROC		; ioWeapon::SetFloatPower
EXTRN	?CheckStructAndDummy@ioWeapon@@UAEXPAVioPlayEntity@@PAVioPlayStage@@@Z:PROC ; ioWeapon::CheckStructAndDummy
EXTRN	?GetDamage@ioWeapon@@UAEMPAVioPlayEntity@@@Z:PROC ; ioWeapon::GetDamage
EXTRN	?GetBaseDamage@ioWeapon@@UAEMPAVioPlayEntity@@@Z:PROC ; ioWeapon::GetBaseDamage
EXTRN	?GetPushAngle@ioWeapon@@UBEMXZ:PROC		; ioWeapon::GetPushAngle
EXTRN	?IsResistanceMagic@ioWeapon@@UAEHPAVioBaseChar@@@Z:PROC ; ioWeapon::IsResistanceMagic
EXTRN	?IsResistanceBomb@ioWeapon@@UAEHPAVioBaseChar@@@Z:PROC ; ioWeapon::IsResistanceBomb
EXTRN	?IsCanMineExplosion@ioWeapon@@UAE_NXZ:PROC	; ioWeapon::IsCanMineExplosion
EXTRN	?CheckGrapplingState@ioWeapon@@UAE?AW4GrapplingType@@XZ:PROC ; ioWeapon::CheckGrapplingState
EXTRN	?CheckCurAttribute@ioWeapon@@UAEXPBVioPlayEntity@@@Z:PROC ; ioWeapon::CheckCurAttribute
EXTRN	?CheckItemNotDrop@ioWeapon@@UAE_NPAVioBaseChar@@@Z:PROC ; ioWeapon::CheckItemNotDrop
EXTRN	?GetWorldAttackBoxList@ioWeapon@@UAEXAAV?$vector@VioOrientBox@@V?$allocator@VioOrientBox@@@std@@@std@@@Z:PROC ; ioWeapon::GetWorldAttackBoxList
EXTRN	?GetLiveTime@ioWeapon@@UAEKXZ:PROC		; ioWeapon::GetLiveTime
EXTRN	?GetRefreshDuration@ioWeapon@@UAEKXZ:PROC	; ioWeapon::GetRefreshDuration
EXTRN	?GetIgnoreDuration@ioWeapon@@UAEKXZ:PROC	; ioWeapon::GetIgnoreDuration
EXTRN	?GetIgnoreTimeTypeDuration@ioWeapon@@UAEKXZ:PROC ; ioWeapon::GetIgnoreTimeTypeDuration
EXTRN	?GetIgnoreTimeType@ioWeapon@@UAEKXZ:PROC	; ioWeapon::GetIgnoreTimeType
EXTRN	?IsSkillDependency@ioWeapon@@UAE_NABVioHashString@@@Z:PROC ; ioWeapon::IsSkillDependency
EXTRN	?SetSkillDependencyAction@ioWeapon@@UAEXXZ:PROC	; ioWeapon::SetSkillDependencyAction
EXTRN	?CalcFinalDamage@ioWeapon@@MAEMXZ:PROC		; ioWeapon::CalcFinalDamage
EXTRN	?CalcFinalBoundDamage@ioWeapon@@MAEMXZ:PROC	; ioWeapon::CalcFinalBoundDamage
EXTRN	?CheckPiercing@ioWeapon@@MAE_N_N@Z:PROC		; ioWeapon::CheckPiercing
EXTRN	?ClearCollisionList@ioWeapon@@MAEXXZ:PROC	; ioWeapon::ClearCollisionList
EXTRN	?CheckCreateWeaponList@ioWeapon@@MAEXXZ:PROC	; ioWeapon::CheckCreateWeaponList
EXTRN	?CreateCollisionAreaWeapon@ioWeapon@@MAEXXZ:PROC ; ioWeapon::CreateCollisionAreaWeapon
EXTRN	?SetMapCollision@ioWeapon@@UAEXXZ:PROC		; ioWeapon::SetMapCollision
EXTRN	?IsIgnoreMapCollision@ioWeapon@@UBE_NXZ:PROC	; ioWeapon::IsIgnoreMapCollision
EXTRN	?IsIgnoreTestMapCollision@ioWeapon@@UBE_NXZ:PROC ; ioWeapon::IsIgnoreTestMapCollision
EXTRN	?IsIgnoreMapCollisionEffect@ioWeapon@@UBE_NXZ:PROC ; ioWeapon::IsIgnoreMapCollisionEffect
EXTRN	?AddEffectEvent@ioWeapon@@MAEXPAVioEffect@@@Z:PROC ; ioWeapon::AddEffectEvent
EXTRN	??_EioAdhesiveMissileWeapon3@@UAEPAXI@Z:PROC	; ioAdhesiveMissileWeapon3::`vector deleting destructor'
;	COMDAT ??_R2ioWeapon@@8
; File c:\program files (x86)\microsoft visual studio 10.0\vc\include\xmemory
rdata$r	SEGMENT
??_R2ioWeapon@@8 DD FLAT:??_R1A@?0A@EA@ioWeapon@@8	; ioWeapon::`RTTI Base Class Array'
rdata$r	ENDS
;	COMDAT ??_R3ioWeapon@@8
rdata$r	SEGMENT
??_R3ioWeapon@@8 DD 00H					; ioWeapon::`RTTI Class Hierarchy Descriptor'
	DD	00H
	DD	01H
	DD	FLAT:??_R2ioWeapon@@8
rdata$r	ENDS
;	COMDAT ??_R0?AVioWeapon@@@8
_DATA	SEGMENT
??_R0?AVioWeapon@@@8 DD FLAT:??_7type_info@@6B@		; ioWeapon `RTTI Type Descriptor'
	DD	00H
	DB	'.?AVioWeapon@@', 00H
_DATA	ENDS
;	COMDAT ??_R1A@?0A@EA@ioWeapon@@8
rdata$r	SEGMENT
??_R1A@?0A@EA@ioWeapon@@8 DD FLAT:??_R0?AVioWeapon@@@8	; ioWeapon::`RTTI Base Class Descriptor at (0,-1,0,64)'
	DD	00H
	DD	00H
	DD	0ffffffffH
	DD	00H
	DD	040H
	DD	FLAT:??_R3ioWeapon@@8
rdata$r	ENDS
;	COMDAT ??_R1A@?0A@EA@ioAdhesiveMissileWeapon3@@8
rdata$r	SEGMENT
??_R1A@?0A@EA@ioAdhesiveMissileWeapon3@@8 DD FLAT:??_R0?AVioAdhesiveMissileWeapon3@@@8 ; ioAdhesiveMissileWeapon3::`RTTI Base Class Descriptor at (0,-1,0,64)'
	DD	01H
	DD	00H
	DD	0ffffffffH
	DD	00H
	DD	040H
	DD	FLAT:??_R3ioAdhesiveMissileWeapon3@@8
rdata$r	ENDS
;	COMDAT ??_R2ioAdhesiveMissileWeapon3@@8
rdata$r	SEGMENT
??_R2ioAdhesiveMissileWeapon3@@8 DD FLAT:??_R1A@?0A@EA@ioAdhesiveMissileWeapon3@@8 ; ioAdhesiveMissileWeapon3::`RTTI Base Class Array'
	DD	FLAT:??_R1A@?0A@EA@ioWeapon@@8
rdata$r	ENDS
;	COMDAT ??_R3ioAdhesiveMissileWeapon3@@8
rdata$r	SEGMENT
??_R3ioAdhesiveMissileWeapon3@@8 DD 00H			; ioAdhesiveMissileWeapon3::`RTTI Class Hierarchy Descriptor'
	DD	00H
	DD	02H
	DD	FLAT:??_R2ioAdhesiveMissileWeapon3@@8
rdata$r	ENDS
;	COMDAT ??_R0?AVioAdhesiveMissileWeapon3@@@8
_DATA	SEGMENT
??_R0?AVioAdhesiveMissileWeapon3@@@8 DD FLAT:??_7type_info@@6B@ ; ioAdhesiveMissileWeapon3 `RTTI Type Descriptor'
	DD	00H
	DB	'.?AVioAdhesiveMissileWeapon3@@', 00H
_DATA	ENDS
;	COMDAT ??_R4ioAdhesiveMissileWeapon3@@6B@
rdata$r	SEGMENT
??_R4ioAdhesiveMissileWeapon3@@6B@ DD 00H		; ioAdhesiveMissileWeapon3::`RTTI Complete Object Locator'
	DD	00H
	DD	00H
	DD	FLAT:??_R0?AVioAdhesiveMissileWeapon3@@@8
	DD	FLAT:??_R3ioAdhesiveMissileWeapon3@@8
rdata$r	ENDS
;	COMDAT ??_7ioAdhesiveMissileWeapon3@@6B@
CONST	SEGMENT
??_7ioAdhesiveMissileWeapon3@@6B@ DD FLAT:??_R4ioAdhesiveMissileWeapon3@@6B@ ; ioAdhesiveMissileWeapon3::`vftable'
	DD	FLAT:?IsAlreadyCollisioned@ioWeapon@@UAE_NPAVioPlayEntity@@@Z
	DD	FLAT:?AddCollisionEntity@ioWeapon@@UAEXPAVioPlayEntity@@@Z
	DD	FLAT:?SetOwnerDamageRate@ioWeapon@@UAEXM@Z
	DD	FLAT:?SetOwnerChargeDamageRate@ioWeapon@@UAEXM@Z
	DD	FLAT:?SetOwnerChargeForceRate@ioWeapon@@UAEXM@Z
	DD	FLAT:?SetOwnerChargeRangeRate@ioWeapon@@UAEXM@Z
	DD	FLAT:?SetOwnerChargeSpeedRate@ioWeapon@@UAEXM@Z
	DD	FLAT:?SetOwnerChargeBlowRate@ioWeapon@@UAEXM@Z
	DD	FLAT:?SetOwnerChargeFloatRate@ioWeapon@@UAEXM@Z
	DD	FLAT:?SetOwnerChargeScaleRate@ioWeapon@@UAEXM@Z
	DD	FLAT:?SetOwnerChargeExplosionRate@ioWeapon@@UAEXM@Z
	DD	FLAT:?SetOwnerChargeWoundedTimeRate@ioWeapon@@UAEXM@Z
	DD	FLAT:?SetOwnerChargeLiveTimeRate@ioWeapon@@UAEXM@Z
	DD	FLAT:?SetOwnerChargeBuffLiveTimeRate@ioWeapon@@UAEXM@Z
	DD	FLAT:?SetWeaponIndex@ioWeapon@@UAEXK@Z
	DD	FLAT:?SetGrapplingTargetName@ioWeapon@@UAEXABVioHashString@@@Z
	DD	FLAT:?SetCreateItem@ioWeapon@@UAEXABVioHashString@@@Z
	DD	FLAT:?SetTeam@ioWeapon@@UAEXPAVioPlayStage@@W4TeamType@@@Z
	DD	FLAT:?CallReserveAreaWeapon@ioWeapon@@UAEXXZ
	DD	FLAT:?SetWeaponDead@ioAdhesiveMissileWeapon3@@UAEXXZ
	DD	FLAT:?PlayExplosionSound@ioWeapon@@UAEXXZ
	DD	FLAT:?PlayWoundedSound@ioWeapon@@UAEXPAVioPlayEntity@@@Z
	DD	FLAT:?PlayDefensedSound@ioWeapon@@UAEXPAVioPlayEntity@@@Z
	DD	FLAT:?PlayLoopSound@ioWeapon@@UAEXXZ
	DD	FLAT:?StopLoopSound@ioWeapon@@UAEXXZ
	DD	FLAT:?GetTargetAirBuffList@ioAdhesiveMissileWeapon3@@UBEABV?$vector@UBuffInfoStruct@@V?$allocator@UBuffInfoStruct@@@std@@@std@@XZ
	DD	FLAT:?GetTargetBuffList@ioAdhesiveMissileWeapon3@@UBEABV?$vector@UBuffInfoStruct@@V?$allocator@UBuffInfoStruct@@@std@@@std@@XZ
	DD	FLAT:?GetTargetDownBuffList@ioAdhesiveMissileWeapon3@@UBEABV?$vector@UBuffInfoStruct@@V?$allocator@UBuffInfoStruct@@@std@@@std@@XZ
	DD	FLAT:?GetPosition@ioWeapon@@UBEABUD3DXVECTOR3@@XZ
	DD	FLAT:?GetBlowType@ioWeapon@@UBE?AW4BlowTargetType@@XZ
	DD	FLAT:?GetPushPower@ioWeapon@@UBEMM@Z
	DD	FLAT:?GetBlowPower@ioWeapon@@UBEMM@Z
	DD	FLAT:?GetAirPushPower@ioWeapon@@UBEMM@Z
	DD	FLAT:?GetAirBlowPower@ioWeapon@@UBEMM@Z
	DD	FLAT:?GetDefensePushPower@ioWeapon@@UBEMM@Z
	DD	FLAT:?GetCollisionEnableTime@ioWeapon@@UBEKXZ
	DD	FLAT:?SetSylphid@ioWeapon@@UAEHXZ
	DD	FLAT:?ApplyExtraReserveWeaponByWeaponInfo@ioWeapon@@UAEXPAV1@@Z
	DD	FLAT:?InitResource@ioAdhesiveMissileWeapon3@@UAE_NXZ
	DD	FLAT:?DestroyResource@ioAdhesiveMissileWeapon3@@UAEXPAVioPlayStage@@@Z
	DD	FLAT:?LoadProperty@ioAdhesiveMissileWeapon3@@UAEXAAVioINILoader@@@Z
	DD	FLAT:?SetResistanceAttr@ioWeapon@@UAEXH@Z
	DD	FLAT:?SetStartCollisionBox@ioWeapon@@UAEXXZ
	DD	FLAT:?SetLiveTime@ioWeapon@@UAEXK@Z
	DD	FLAT:?SetMoveDir@ioAdhesiveMissileWeapon3@@UAEXABUD3DXVECTOR3@@@Z
	DD	FLAT:?SetMoveSpeed@ioWeapon@@UAEXM@Z
	DD	FLAT:?SetFloatPower@ioWeapon@@UAEXM@Z
	DD	FLAT:?SetStartPosition@ioAdhesiveMissileWeapon3@@UAEXABUD3DXVECTOR3@@PAVioPlayStage@@@Z
	DD	FLAT:?Process@ioAdhesiveMissileWeapon3@@UAEXMPAVioPlayStage@@@Z
	DD	FLAT:?IsCollision@ioAdhesiveMissileWeapon3@@UAE_NPAVioPlayEntity@@_N@Z
	DD	FLAT:?TestMapCollision@ioAdhesiveMissileWeapon3@@UAE_NPAVioOpcodeShape@@PAVioPlayStage@@PBUD3DXMATRIX@@@Z
	DD	FLAT:?CheckPreCollision@ioAdhesiveMissileWeapon3@@UAEXPAVioPlayEntity@@PAVioPlayStage@@@Z
	DD	FLAT:?CheckStructAndDummy@ioWeapon@@UAEXPAVioPlayEntity@@PAVioPlayStage@@@Z
	DD	FLAT:?GetDamage@ioWeapon@@UAEMPAVioPlayEntity@@@Z
	DD	FLAT:?GetBaseDamage@ioWeapon@@UAEMPAVioPlayEntity@@@Z
	DD	FLAT:?GetPushAngle@ioWeapon@@UBEMXZ
	DD	FLAT:?IsResistanceMagic@ioWeapon@@UAEHPAVioBaseChar@@@Z
	DD	FLAT:?IsResistanceBomb@ioWeapon@@UAEHPAVioBaseChar@@@Z
	DD	FLAT:?IsCanMineExplosion@ioWeapon@@UAE_NXZ
	DD	FLAT:?CheckGrapplingState@ioWeapon@@UAE?AW4GrapplingType@@XZ
	DD	FLAT:?CheckCurAttribute@ioWeapon@@UAEXPBVioPlayEntity@@@Z
	DD	FLAT:?CheckItemNotDrop@ioWeapon@@UAE_NPAVioBaseChar@@@Z
	DD	FLAT:?GetWorldAttackBoxList@ioWeapon@@UAEXAAV?$vector@VioOrientBox@@V?$allocator@VioOrientBox@@@std@@@std@@@Z
	DD	FLAT:?GetAttackDir@ioAdhesiveMissileWeapon3@@UBE?AUD3DXVECTOR3@@PBVioPlayEntity@@@Z
	DD	FLAT:?GetLocalAttackBox@ioAdhesiveMissileWeapon3@@UBEABVioOrientBox@@XZ
	DD	FLAT:?GetLiveTime@ioWeapon@@UAEKXZ
	DD	FLAT:?GetMoveDir@ioAdhesiveMissileWeapon3@@UAE?AUD3DXVECTOR3@@XZ
	DD	FLAT:?CheckWeaponCollision@ioAdhesiveMissileWeapon3@@UAEXXZ
	DD	FLAT:?GetType@ioAdhesiveMissileWeapon3@@UBE?AW4WeaponType@ioWeapon@@XZ
	DD	FLAT:?GetActionStopType@ioAdhesiveMissileWeapon3@@UBE?AW4ActionStopType@@XZ
	DD	FLAT:?GetDieActionStopType@ioAdhesiveMissileWeapon3@@UBE?AW4ActionStopType@@XZ
	DD	FLAT:?GetRefreshDuration@ioWeapon@@UAEKXZ
	DD	FLAT:?GetIgnoreDuration@ioWeapon@@UAEKXZ
	DD	FLAT:?GetIgnoreTimeTypeDuration@ioWeapon@@UAEKXZ
	DD	FLAT:?GetIgnoreTimeType@ioWeapon@@UAEKXZ
	DD	FLAT:?ApplyWeaponSync@ioAdhesiveMissileWeapon3@@UAEXAAVSP2Packet@@PAVioPlayStage@@@Z
	DD	FLAT:?IsSkillDependency@ioWeapon@@UAE_NABVioHashString@@@Z
	DD	FLAT:?SetSkillDependencyAction@ioWeapon@@UAEXXZ
	DD	FLAT:?UpdateWorldAttackBox@ioAdhesiveMissileWeapon3@@MAEXM_N@Z
	DD	FLAT:?GetAttribute@ioAdhesiveMissileWeapon3@@MBEPBUWeaponAttribute@@XZ
	DD	FLAT:?CalcFinalDamage@ioWeapon@@MAEMXZ
	DD	FLAT:?CalcFinalBoundDamage@ioWeapon@@MAEMXZ
	DD	FLAT:?CheckPiercing@ioWeapon@@MAE_N_N@Z
	DD	FLAT:?ClearCollisionList@ioWeapon@@MAEXXZ
	DD	FLAT:?CheckCreateWeaponList@ioWeapon@@MAEXXZ
	DD	FLAT:?CreateCollisionAreaWeapon@ioWeapon@@MAEXXZ
	DD	FLAT:?SetMapCollision@ioWeapon@@UAEXXZ
	DD	FLAT:?IsIgnoreMapCollision@ioWeapon@@UBE_NXZ
	DD	FLAT:?IsIgnoreTestMapCollision@ioWeapon@@UBE_NXZ
	DD	FLAT:?IsIgnoreMapCollisionEffect@ioWeapon@@UBE_NXZ
	DD	FLAT:?AddEffectEvent@ioWeapon@@MAEXPAVioEffect@@@Z
	DD	FLAT:??_EioAdhesiveMissileWeapon3@@UAEPAXI@Z
CONST	ENDS
;	COMDAT xdata$x
xdata$x	SEGMENT
__ehfuncinfo$??0ioAdhesiveMissileWeapon3@@QAE@PAVioBaseChar@@PBUWeaponAttribute@@@Z DD 019930522H
	DD	09H
	DD	FLAT:__unwindtable$??0ioAdhesiveMissileWeapon3@@QAE@PAVioBaseChar@@PBUWeaponAttribute@@@Z
	DD	2 DUP(00H)
	DD	2 DUP(00H)
	DD	00H
	DD	01H
__unwindtable$??0ioAdhesiveMissileWeapon3@@QAE@PAVioBaseChar@@PBUWeaponAttribute@@@Z DD 0ffffffffH
	DD	FLAT:__unwindfunclet$??0ioAdhesiveMissileWeapon3@@QAE@PAVioBaseChar@@PBUWeaponAttribute@@@Z$0
	DD	00H
	DD	FLAT:__unwindfunclet$??0ioAdhesiveMissileWeapon3@@QAE@PAVioBaseChar@@PBUWeaponAttribute@@@Z$1
	DD	01H
	DD	FLAT:__unwindfunclet$??0ioAdhesiveMissileWeapon3@@QAE@PAVioBaseChar@@PBUWeaponAttribute@@@Z$2
	DD	02H
	DD	FLAT:__unwindfunclet$??0ioAdhesiveMissileWeapon3@@QAE@PAVioBaseChar@@PBUWeaponAttribute@@@Z$3
	DD	03H
	DD	FLAT:__unwindfunclet$??0ioAdhesiveMissileWeapon3@@QAE@PAVioBaseChar@@PBUWeaponAttribute@@@Z$4
	DD	04H
	DD	FLAT:__unwindfunclet$??0ioAdhesiveMissileWeapon3@@QAE@PAVioBaseChar@@PBUWeaponAttribute@@@Z$5
	DD	05H
	DD	FLAT:__unwindfunclet$??0ioAdhesiveMissileWeapon3@@QAE@PAVioBaseChar@@PBUWeaponAttribute@@@Z$6
	DD	06H
	DD	FLAT:__unwindfunclet$??0ioAdhesiveMissileWeapon3@@QAE@PAVioBaseChar@@PBUWeaponAttribute@@@Z$7
	DD	07H
	DD	FLAT:__unwindfunclet$??0ioAdhesiveMissileWeapon3@@QAE@PAVioBaseChar@@PBUWeaponAttribute@@@Z$8
; Function compile flags: /Ogsp
; File d:\lost saga for developer\youtube\tutorial\source\src\lsclient\ioadhesivemissileweapon3.cpp
xdata$x	ENDS
;	COMDAT ??0ioAdhesiveMissileWeapon3@@QAE@PAVioBaseChar@@PBUWeaponAttribute@@@Z
_TEXT	SEGMENT
_this$ = -16						; size = 4
__$EHRec$ = -12						; size = 12
_pOwner$ = 8						; size = 4
_pAttr$ = 12						; size = 4
??0ioAdhesiveMissileWeapon3@@QAE@PAVioBaseChar@@PBUWeaponAttribute@@@Z PROC ; ioAdhesiveMissileWeapon3::ioAdhesiveMissileWeapon3, COMDAT
; _this$ = ecx

; 15   : {

  00000	6a 04		 push	 4
  00002	b8 00 00 00 00	 mov	 eax, __ehhandler$??0ioAdhesiveMissileWeapon3@@QAE@PAVioBaseChar@@PBUWeaponAttribute@@@Z
  00007	e8 00 00 00 00	 call	 __EH_prolog3
  0000c	8b f1		 mov	 esi, ecx
  0000e	89 75 f0	 mov	 DWORD PTR _this$[ebp], esi
  00011	ff 75 0c	 push	 DWORD PTR _pAttr$[ebp]
  00014	ff 75 08	 push	 DWORD PTR _pOwner$[ebp]
  00017	e8 00 00 00 00	 call	 ??0ioWeapon@@QAE@PAVioBaseChar@@PBUWeaponAttribute@@@Z ; ioWeapon::ioWeapon
  0001c	33 db		 xor	 ebx, ebx
  0001e	8d 8e 98 08 00
	00		 lea	 ecx, DWORD PTR [esi+2200]
  00024	89 5d fc	 mov	 DWORD PTR __$EHRec$[ebp+8], ebx
  00027	c7 06 00 00 00
	00		 mov	 DWORD PTR [esi], OFFSET ??_7ioAdhesiveMissileWeapon3@@6B@
  0002d	ff 15 00 00 00
	00		 call	 DWORD PTR __imp_??0ioOrientBox@@QAE@XZ
  00033	8d 8e dc 08 00
	00		 lea	 ecx, DWORD PTR [esi+2268]
  00039	c6 45 fc 01	 mov	 BYTE PTR __$EHRec$[ebp+8], 1
  0003d	ff 15 00 00 00
	00		 call	 DWORD PTR __imp_??0ioHashString@@QAE@XZ
  00043	8d 8e 04 09 00
	00		 lea	 ecx, DWORD PTR [esi+2308]
  00049	c6 45 fc 02	 mov	 BYTE PTR __$EHRec$[ebp+8], 2
  0004d	e8 00 00 00 00	 call	 ??0?$CEncrypt@M@@QAE@XZ	; CEncrypt<float>::CEncrypt<float>
  00052	8d 8e 34 09 00
	00		 lea	 ecx, DWORD PTR [esi+2356]
  00058	c6 45 fc 03	 mov	 BYTE PTR __$EHRec$[ebp+8], 3
  0005c	e8 00 00 00 00	 call	 ??0?$CEncrypt@M@@QAE@XZ	; CEncrypt<float>::CEncrypt<float>
  00061	8d 8e 64 09 00
	00		 lea	 ecx, DWORD PTR [esi+2404]
  00067	c6 45 fc 04	 mov	 BYTE PTR __$EHRec$[ebp+8], 4
  0006b	e8 00 00 00 00	 call	 ??0?$CEncrypt@M@@QAE@XZ	; CEncrypt<float>::CEncrypt<float>
  00070	89 9e a4 09 00
	00		 mov	 DWORD PTR [esi+2468], ebx
  00076	89 9e a8 09 00
	00		 mov	 DWORD PTR [esi+2472], ebx
  0007c	89 9e ac 09 00
	00		 mov	 DWORD PTR [esi+2476], ebx
  00082	8d 8e b4 09 00
	00		 lea	 ecx, DWORD PTR [esi+2484]
  00088	c6 45 fc 06	 mov	 BYTE PTR __$EHRec$[ebp+8], 6
  0008c	e8 00 00 00 00	 call	 ??0WeaponInfo@@QAE@XZ	; WeaponInfo::WeaponInfo
  00091	89 9e dc 09 00
	00		 mov	 DWORD PTR [esi+2524], ebx
  00097	89 9e e0 09 00
	00		 mov	 DWORD PTR [esi+2528], ebx
  0009d	89 9e e4 09 00
	00		 mov	 DWORD PTR [esi+2532], ebx

; 16   : 	SetPeculiarity( WP_DIVIDE_ACTION );

  000a3	68 00 01 00 00	 push	 256			; 00000100H
  000a8	8b ce		 mov	 ecx, esi
  000aa	c6 45 fc 08	 mov	 BYTE PTR __$EHRec$[ebp+8], 8
  000ae	e8 00 00 00 00	 call	 ?SetPeculiarity@ioWeapon@@QAEXK@Z ; ioWeapon::SetPeculiarity

; 17   : 
; 18   : 	ClearData();

  000b3	8b ce		 mov	 ecx, esi
  000b5	e8 00 00 00 00	 call	 ?ClearData@ioAdhesiveMissileWeapon3@@IAEXXZ ; ioAdhesiveMissileWeapon3::ClearData

; 19   : 
; 20   : 	m_pFireBall = NULL;
; 21   : 
; 22   : 	m_fCurMoveRange = 0.0f;

  000ba	0f 57 c0	 xorps	 xmm0, xmm0
  000bd	89 9e 94 08 00
	00		 mov	 DWORD PTR [esi+2196], ebx
  000c3	f3 0f 11 86 94
	09 00 00	 movss	 DWORD PTR [esi+2452], xmm0

; 23   : 	m_fCurMoveRate = 0.0f;

  000cb	f3 0f 11 86 98
	09 00 00	 movss	 DWORD PTR [esi+2456], xmm0

; 24   : 	
; 25   : 	m_bSetGraceClose = false;

  000d3	66 c7 86 9c 09
	00 00 00 01	 mov	 WORD PTR [esi+2460], 256 ; 00000100H

; 26   : 	m_bFirst = true;
; 27   : 
; 28   : 	m_bOwnerAttach = false;

  000dc	66 89 9e 9f 09
	00 00		 mov	 WORD PTR [esi+2463], bx

; 29   : 	m_bCharColState = false;
; 30   : 	m_bArleadyCallWeapon = false;

  000e3	89 9e f0 09 00
	00		 mov	 DWORD PTR [esi+2544], ebx

; 31   : 
; 32   : 	m_iDummyIndex = 0;

  000e9	89 9e 98 05 00
	00		 mov	 DWORD PTR [esi+1432], ebx

; 33   : }

  000ef	8b c6		 mov	 eax, esi
  000f1	e8 00 00 00 00	 call	 __EH_epilog3
  000f6	c2 08 00	 ret	 8
_TEXT	ENDS
;	COMDAT text$x
text$x	SEGMENT
__unwindfunclet$??0ioAdhesiveMissileWeapon3@@QAE@PAVioBaseChar@@PBUWeaponAttribute@@@Z$0:
  00000	8b 4d f0	 mov	 ecx, DWORD PTR _this$[ebp]
  00003	e9 00 00 00 00	 jmp	 ??1ioWeapon@@UAE@XZ	; ioWeapon::~ioWeapon
__unwindfunclet$??0ioAdhesiveMissileWeapon3@@QAE@PAVioBaseChar@@PBUWeaponAttribute@@@Z$1:
  00008	8b 4d f0	 mov	 ecx, DWORD PTR _this$[ebp]
  0000b	81 c1 98 08 00
	00		 add	 ecx, 2200		; 00000898H
  00011	ff 25 00 00 00
	00		 jmp	 DWORD PTR __imp_??1ioOrientBox@@QAE@XZ
__unwindfunclet$??0ioAdhesiveMissileWeapon3@@QAE@PAVioBaseChar@@PBUWeaponAttribute@@@Z$2:
  00017	8b 4d f0	 mov	 ecx, DWORD PTR _this$[ebp]
  0001a	81 c1 dc 08 00
	00		 add	 ecx, 2268		; 000008dcH
  00020	ff 25 00 00 00
	00		 jmp	 DWORD PTR __imp_??1ioHashString@@QAE@XZ
__unwindfunclet$??0ioAdhesiveMissileWeapon3@@QAE@PAVioBaseChar@@PBUWeaponAttribute@@@Z$3:
  00026	8b 4d f0	 mov	 ecx, DWORD PTR _this$[ebp]
  00029	81 c1 04 09 00
	00		 add	 ecx, 2308		; 00000904H
  0002f	e9 00 00 00 00	 jmp	 ??1?$CEncrypt@M@@UAE@XZ	; CEncrypt<float>::~CEncrypt<float>
__unwindfunclet$??0ioAdhesiveMissileWeapon3@@QAE@PAVioBaseChar@@PBUWeaponAttribute@@@Z$4:
  00034	8b 4d f0	 mov	 ecx, DWORD PTR _this$[ebp]
  00037	81 c1 34 09 00
	00		 add	 ecx, 2356		; 00000934H
  0003d	e9 00 00 00 00	 jmp	 ??1?$CEncrypt@M@@UAE@XZ	; CEncrypt<float>::~CEncrypt<float>
__unwindfunclet$??0ioAdhesiveMissileWeapon3@@QAE@PAVioBaseChar@@PBUWeaponAttribute@@@Z$5:
  00042	8b 4d f0	 mov	 ecx, DWORD PTR _this$[ebp]
  00045	81 c1 64 09 00
	00		 add	 ecx, 2404		; 00000964H
  0004b	e9 00 00 00 00	 jmp	 ??1?$CEncrypt@M@@UAE@XZ	; CEncrypt<float>::~CEncrypt<float>
__unwindfunclet$??0ioAdhesiveMissileWeapon3@@QAE@PAVioBaseChar@@PBUWeaponAttribute@@@Z$6:
  00050	8b 4d f0	 mov	 ecx, DWORD PTR _this$[ebp]
  00053	81 c1 a4 09 00
	00		 add	 ecx, 2468		; 000009a4H
  00059	e9 00 00 00 00	 jmp	 ??1?$vector@UBuffInfoStruct@@V?$allocator@UBuffInfoStruct@@@std@@@std@@QAE@XZ ; std::vector<BuffInfoStruct,std::allocator<BuffInfoStruct> >::~vector<BuffInfoStruct,std::allocator<BuffInfoStruct> >
__unwindfunclet$??0ioAdhesiveMissileWeapon3@@QAE@PAVioBaseChar@@PBUWeaponAttribute@@@Z$7:
  0005e	8b 4d f0	 mov	 ecx, DWORD PTR _this$[ebp]
  00061	81 c1 b4 09 00
	00		 add	 ecx, 2484		; 000009b4H
  00067	e9 00 00 00 00	 jmp	 ??1WeaponInfo@@QAE@XZ
__unwindfunclet$??0ioAdhesiveMissileWeapon3@@QAE@PAVioBaseChar@@PBUWeaponAttribute@@@Z$8:
  0006c	8b 4d f0	 mov	 ecx, DWORD PTR _this$[ebp]
  0006f	81 c1 dc 09 00
	00		 add	 ecx, 2524		; 000009dcH
  00075	e9 00 00 00 00	 jmp	 ??1?$vector@UChangeDirInfo@@V?$allocator@UChangeDirInfo@@@std@@@std@@QAE@XZ ; std::vector<ChangeDirInfo,std::allocator<ChangeDirInfo> >::~vector<ChangeDirInfo,std::allocator<ChangeDirInfo> >
__ehhandler$??0ioAdhesiveMissileWeapon3@@QAE@PAVioBaseChar@@PBUWeaponAttribute@@@Z:
  0007a	8b 54 24 08	 mov	 edx, DWORD PTR [esp+8]
  0007e	8d 42 0c	 lea	 eax, DWORD PTR [edx+12]
  00081	8b 4a ec	 mov	 ecx, DWORD PTR [edx-20]
  00084	33 c8		 xor	 ecx, eax
  00086	e8 00 00 00 00	 call	 @__security_check_cookie@4
  0008b	b8 00 00 00 00	 mov	 eax, OFFSET __ehfuncinfo$??0ioAdhesiveMissileWeapon3@@QAE@PAVioBaseChar@@PBUWeaponAttribute@@@Z
  00090	e9 00 00 00 00	 jmp	 ___CxxFrameHandler3
text$x	ENDS
??0ioAdhesiveMissileWeapon3@@QAE@PAVioBaseChar@@PBUWeaponAttribute@@@Z ENDP ; ioAdhesiveMissileWeapon3::ioAdhesiveMissileWeapon3
PUBLIC	??_C@_0EJ@LAFENAJA@ioAdhesiveMissileWeapon3?3?3?$HOioAdh@ ; `string'
PUBLIC	??1ioAdhesiveMissileWeapon3@@UAE@XZ		; ioAdhesiveMissileWeapon3::~ioAdhesiveMissileWeapon3
;	COMDAT ??_C@_0EJ@LAFENAJA@ioAdhesiveMissileWeapon3?3?3?$HOioAdh@
; File d:\lost saga for developer\youtube\tutorial\source\src\lsclient\encryptvalue.h
CONST	SEGMENT
??_C@_0EJ@LAFENAJA@ioAdhesiveMissileWeapon3?3?3?$HOioAdh@ DB 'ioAdhesiveM'
	DB	'issileWeapon3::~ioAdhesiveMissileWeapon3 - UnReleased Resouce'
	DB	00H						; `string'
CONST	ENDS
;	COMDAT xdata$x
xdata$x	SEGMENT
__ehfuncinfo$??1ioAdhesiveMissileWeapon3@@UAE@XZ DD 019930522H
	DD	09H
	DD	FLAT:__unwindtable$??1ioAdhesiveMissileWeapon3@@UAE@XZ
	DD	2 DUP(00H)
	DD	2 DUP(00H)
	DD	00H
	DD	01H
__unwindtable$??1ioAdhesiveMissileWeapon3@@UAE@XZ DD 0ffffffffH
	DD	FLAT:__unwindfunclet$??1ioAdhesiveMissileWeapon3@@UAE@XZ$0
	DD	00H
	DD	FLAT:__unwindfunclet$??1ioAdhesiveMissileWeapon3@@UAE@XZ$1
	DD	01H
	DD	FLAT:__unwindfunclet$??1ioAdhesiveMissileWeapon3@@UAE@XZ$2
	DD	02H
	DD	FLAT:__unwindfunclet$??1ioAdhesiveMissileWeapon3@@UAE@XZ$3
	DD	03H
	DD	FLAT:__unwindfunclet$??1ioAdhesiveMissileWeapon3@@UAE@XZ$4
	DD	04H
	DD	FLAT:__unwindfunclet$??1ioAdhesiveMissileWeapon3@@UAE@XZ$5
	DD	05H
	DD	FLAT:__unwindfunclet$??1ioAdhesiveMissileWeapon3@@UAE@XZ$6
	DD	06H
	DD	FLAT:__unwindfunclet$??1ioAdhesiveMissileWeapon3@@UAE@XZ$7
	DD	07H
	DD	FLAT:__unwindfunclet$??1ioAdhesiveMissileWeapon3@@UAE@XZ$8
; Function compile flags: /Ogsp
; File d:\lost saga for developer\youtube\tutorial\source\src\lsclient\ioadhesivemissileweapon3.cpp
xdata$x	ENDS
;	COMDAT ??1ioAdhesiveMissileWeapon3@@UAE@XZ
_TEXT	SEGMENT
_this$ = -16						; size = 4
__$EHRec$ = -12						; size = 12
??1ioAdhesiveMissileWeapon3@@UAE@XZ PROC		; ioAdhesiveMissileWeapon3::~ioAdhesiveMissileWeapon3, COMDAT
; _this$ = ecx

; 36   : {

  00000	6a 04		 push	 4
  00002	b8 00 00 00 00	 mov	 eax, __ehhandler$??1ioAdhesiveMissileWeapon3@@UAE@XZ
  00007	e8 00 00 00 00	 call	 __EH_prolog3
  0000c	8b f1		 mov	 esi, ecx
  0000e	89 75 f0	 mov	 DWORD PTR _this$[ebp], esi
  00011	c7 06 00 00 00
	00		 mov	 DWORD PTR [esi], OFFSET ??_7ioAdhesiveMissileWeapon3@@6B@

; 37   : 	if( m_pFireBall )

  00017	83 be 94 08 00
	00 00		 cmp	 DWORD PTR [esi+2196], 0
  0001e	c7 45 fc 08 00
	00 00		 mov	 DWORD PTR __$EHRec$[ebp+8], 8
  00025	74 16		 je	 SHORT $LN1@ioAdhesive

; 38   : 	{
; 39   : 		LOG.PrintTimeAndLog( 0, "ioAdhesiveMissileWeapon3::~ioAdhesiveMissileWeapon3 - UnReleased Resouce" );

  00027	68 00 00 00 00	 push	 OFFSET ??_C@_0EJ@LAFENAJA@ioAdhesiveMissileWeapon3?3?3?$HOioAdh@
  0002c	6a 00		 push	 0
  0002e	ff 35 00 00 00
	00		 push	 DWORD PTR __imp_?LOG@@3VCLog@@A
  00034	ff 15 00 00 00
	00		 call	 DWORD PTR __imp_?PrintTimeAndLog@CLog@@QAAXHPADZZ
  0003a	83 c4 0c	 add	 esp, 12			; 0000000cH
$LN1@ioAdhesive:

; 40   : 	}
; 41   : }

  0003d	8d 8e dc 09 00
	00		 lea	 ecx, DWORD PTR [esi+2524]
  00043	c6 45 fc 07	 mov	 BYTE PTR __$EHRec$[ebp+8], 7
  00047	e8 00 00 00 00	 call	 ?_Tidy@?$vector@UChangeDirInfo@@V?$allocator@UChangeDirInfo@@@std@@@std@@IAEXXZ ; std::vector<ChangeDirInfo,std::allocator<ChangeDirInfo> >::_Tidy
  0004c	8b 1d 00 00 00
	00		 mov	 ebx, DWORD PTR __imp_??1ioHashString@@QAE@XZ
  00052	8d 8e bc 09 00
	00		 lea	 ecx, DWORD PTR [esi+2492]
  00058	c6 45 fc 06	 mov	 BYTE PTR __$EHRec$[ebp+8], 6
  0005c	ff d3		 call	 ebx
  0005e	8d 8e a4 09 00
	00		 lea	 ecx, DWORD PTR [esi+2468]
  00064	c6 45 fc 05	 mov	 BYTE PTR __$EHRec$[ebp+8], 5
  00068	e8 00 00 00 00	 call	 ?_Tidy@?$vector@UBuffInfoStruct@@V?$allocator@UBuffInfoStruct@@@std@@@std@@IAEXXZ ; std::vector<BuffInfoStruct,std::allocator<BuffInfoStruct> >::_Tidy
  0006d	bf 00 00 00 00	 mov	 edi, OFFSET ??_7?$CEncrypt@M@@6B@
  00072	8d 8e 70 09 00
	00		 lea	 ecx, DWORD PTR [esi+2416]
  00078	c6 45 fc 04	 mov	 BYTE PTR __$EHRec$[ebp+8], 4
  0007c	89 be 64 09 00
	00		 mov	 DWORD PTR [esi+2404], edi
  00082	e8 00 00 00 00	 call	 ??1ccddaabb@@UAE@XZ	; ccddaabb::~ccddaabb
  00087	8d 8e 40 09 00
	00		 lea	 ecx, DWORD PTR [esi+2368]
  0008d	c6 45 fc 03	 mov	 BYTE PTR __$EHRec$[ebp+8], 3
  00091	89 be 34 09 00
	00		 mov	 DWORD PTR [esi+2356], edi
  00097	e8 00 00 00 00	 call	 ??1ccddaabb@@UAE@XZ	; ccddaabb::~ccddaabb
  0009c	8d 8e 10 09 00
	00		 lea	 ecx, DWORD PTR [esi+2320]
  000a2	c6 45 fc 02	 mov	 BYTE PTR __$EHRec$[ebp+8], 2
  000a6	89 be 04 09 00
	00		 mov	 DWORD PTR [esi+2308], edi
  000ac	e8 00 00 00 00	 call	 ??1ccddaabb@@UAE@XZ	; ccddaabb::~ccddaabb
  000b1	8d 8e dc 08 00
	00		 lea	 ecx, DWORD PTR [esi+2268]
  000b7	c6 45 fc 01	 mov	 BYTE PTR __$EHRec$[ebp+8], 1
  000bb	ff d3		 call	 ebx
  000bd	8d 8e 98 08 00
	00		 lea	 ecx, DWORD PTR [esi+2200]
  000c3	c6 45 fc 00	 mov	 BYTE PTR __$EHRec$[ebp+8], 0
  000c7	ff 15 00 00 00
	00		 call	 DWORD PTR __imp_??1ioOrientBox@@QAE@XZ
  000cd	83 4d fc ff	 or	 DWORD PTR __$EHRec$[ebp+8], -1
  000d1	8b ce		 mov	 ecx, esi
  000d3	e8 00 00 00 00	 call	 ??1ioWeapon@@UAE@XZ	; ioWeapon::~ioWeapon
  000d8	e8 00 00 00 00	 call	 __EH_epilog3
  000dd	c3		 ret	 0
_TEXT	ENDS
;	COMDAT text$x
text$x	SEGMENT
__unwindfunclet$??1ioAdhesiveMissileWeapon3@@UAE@XZ$0:
  00000	8b 4d f0	 mov	 ecx, DWORD PTR _this$[ebp]
  00003	e9 00 00 00 00	 jmp	 ??1ioWeapon@@UAE@XZ	; ioWeapon::~ioWeapon
__unwindfunclet$??1ioAdhesiveMissileWeapon3@@UAE@XZ$1:
  00008	8b 4d f0	 mov	 ecx, DWORD PTR _this$[ebp]
  0000b	81 c1 98 08 00
	00		 add	 ecx, 2200		; 00000898H
  00011	ff 25 00 00 00
	00		 jmp	 DWORD PTR __imp_??1ioOrientBox@@QAE@XZ
__unwindfunclet$??1ioAdhesiveMissileWeapon3@@UAE@XZ$2:
  00017	8b 4d f0	 mov	 ecx, DWORD PTR _this$[ebp]
  0001a	81 c1 dc 08 00
	00		 add	 ecx, 2268		; 000008dcH
  00020	ff 25 00 00 00
	00		 jmp	 DWORD PTR __imp_??1ioHashString@@QAE@XZ
__unwindfunclet$??1ioAdhesiveMissileWeapon3@@UAE@XZ$3:
  00026	8b 4d f0	 mov	 ecx, DWORD PTR _this$[ebp]
  00029	81 c1 04 09 00
	00		 add	 ecx, 2308		; 00000904H
  0002f	e9 00 00 00 00	 jmp	 ??1?$CEncrypt@M@@UAE@XZ	; CEncrypt<float>::~CEncrypt<float>
__unwindfunclet$??1ioAdhesiveMissileWeapon3@@UAE@XZ$4:
  00034	8b 4d f0	 mov	 ecx, DWORD PTR _this$[ebp]
  00037	81 c1 34 09 00
	00		 add	 ecx, 2356		; 00000934H
  0003d	e9 00 00 00 00	 jmp	 ??1?$CEncrypt@M@@UAE@XZ	; CEncrypt<float>::~CEncrypt<float>
__unwindfunclet$??1ioAdhesiveMissileWeapon3@@UAE@XZ$5:
  00042	8b 4d f0	 mov	 ecx, DWORD PTR _this$[ebp]
  00045	81 c1 64 09 00
	00		 add	 ecx, 2404		; 00000964H
  0004b	e9 00 00 00 00	 jmp	 ??1?$CEncrypt@M@@UAE@XZ	; CEncrypt<float>::~CEncrypt<float>
__unwindfunclet$??1ioAdhesiveMissileWeapon3@@UAE@XZ$6:
  00050	8b 4d f0	 mov	 ecx, DWORD PTR _this$[ebp]
  00053	81 c1 a4 09 00
	00		 add	 ecx, 2468		; 000009a4H
  00059	e9 00 00 00 00	 jmp	 ??1?$vector@UBuffInfoStruct@@V?$allocator@UBuffInfoStruct@@@std@@@std@@QAE@XZ ; std::vector<BuffInfoStruct,std::allocator<BuffInfoStruct> >::~vector<BuffInfoStruct,std::allocator<BuffInfoStruct> >
__unwindfunclet$??1ioAdhesiveMissileWeapon3@@UAE@XZ$7:
  0005e	8b 4d f0	 mov	 ecx, DWORD PTR _this$[ebp]
  00061	81 c1 b4 09 00
	00		 add	 ecx, 2484		; 000009b4H
  00067	e9 00 00 00 00	 jmp	 ??1WeaponInfo@@QAE@XZ
__unwindfunclet$??1ioAdhesiveMissileWeapon3@@UAE@XZ$8:
  0006c	8b 4d f0	 mov	 ecx, DWORD PTR _this$[ebp]
  0006f	81 c1 dc 09 00
	00		 add	 ecx, 2524		; 000009dcH
  00075	e9 00 00 00 00	 jmp	 ??1?$vector@UChangeDirInfo@@V?$allocator@UChangeDirInfo@@@std@@@std@@QAE@XZ ; std::vector<ChangeDirInfo,std::allocator<ChangeDirInfo> >::~vector<ChangeDirInfo,std::allocator<ChangeDirInfo> >
__ehhandler$??1ioAdhesiveMissileWeapon3@@UAE@XZ:
  0007a	8b 54 24 08	 mov	 edx, DWORD PTR [esp+8]
  0007e	8d 42 0c	 lea	 eax, DWORD PTR [edx+12]
  00081	8b 4a ec	 mov	 ecx, DWORD PTR [edx-20]
  00084	33 c8		 xor	 ecx, eax
  00086	e8 00 00 00 00	 call	 @__security_check_cookie@4
  0008b	b8 00 00 00 00	 mov	 eax, OFFSET __ehfuncinfo$??1ioAdhesiveMissileWeapon3@@UAE@XZ
  00090	e9 00 00 00 00	 jmp	 ___CxxFrameHandler3
text$x	ENDS
??1ioAdhesiveMissileWeapon3@@UAE@XZ ENDP		; ioAdhesiveMissileWeapon3::~ioAdhesiveMissileWeapon3
PUBLIC	?push_back@?$vector@UBuffInfoStruct@@V?$allocator@UBuffInfoStruct@@@std@@@std@@QAEXABUBuffInfoStruct@@@Z ; std::vector<BuffInfoStruct,std::allocator<BuffInfoStruct> >::push_back
; Function compile flags: /Ogsp
; File c:\program files (x86)\microsoft visual studio 10.0\vc\include\vector
;	COMDAT ?push_back@?$vector@UBuffInfoStruct@@V?$allocator@UBuffInfoStruct@@@std@@@std@@QAEXABUBuffInfoStruct@@@Z
_TEXT	SEGMENT
__Val$ = 8						; size = 4
?push_back@?$vector@UBuffInfoStruct@@V?$allocator@UBuffInfoStruct@@@std@@@std@@QAEXABUBuffInfoStruct@@@Z PROC ; std::vector<BuffInfoStruct,std::allocator<BuffInfoStruct> >::push_back, COMDAT
; _this$ = ecx

; 976  : 		{	// insert element at end

  00000	55		 push	 ebp
  00001	8b ec		 mov	 ebp, esp
  00003	56		 push	 esi
  00004	8b f1		 mov	 esi, ecx

; 977  : 		if (_Inside(_STD addressof(_Val)))

  00006	8b 4e 04	 mov	 ecx, DWORD PTR [esi+4]
  00009	57		 push	 edi
  0000a	8b 7d 08	 mov	 edi, DWORD PTR __Val$[ebp]
  0000d	3b f9		 cmp	 edi, ecx
  0000f	73 33		 jae	 SHORT $LN4@push_back@2
  00011	8b 16		 mov	 edx, DWORD PTR [esi]
  00013	3b d7		 cmp	 edx, edi
  00015	77 2d		 ja	 SHORT $LN4@push_back@2

; 978  : 			{	// push back an element
; 979  : 			size_type _Idx = _STD addressof(_Val) - this->_Myfirst;

  00017	8b c7		 mov	 eax, edi
  00019	2b c2		 sub	 eax, edx
  0001b	6a 14		 push	 20			; 00000014H
  0001d	99		 cdq
  0001e	5f		 pop	 edi
  0001f	f7 ff		 idiv	 edi
  00021	8b f8		 mov	 edi, eax

; 980  : 			if (this->_Mylast == this->_Myend)

  00023	3b 4e 08	 cmp	 ecx, DWORD PTR [esi+8]
  00026	75 09		 jne	 SHORT $LN3@push_back@2

; 981  : 				_Reserve(1);

  00028	6a 01		 push	 1
  0002a	8b ce		 mov	 ecx, esi
  0002c	e8 00 00 00 00	 call	 ?_Reserve@?$vector@UBuffInfoStruct@@V?$allocator@UBuffInfoStruct@@@std@@@std@@IAEXI@Z ; std::vector<BuffInfoStruct,std::allocator<BuffInfoStruct> >::_Reserve
$LN3@push_back@2:

; 982  : 			_Orphan_range(this->_Mylast, this->_Mylast);
; 983  : 			_Cons_val(this->_Alval,
; 984  : 				this->_Mylast,
; 985  : 				this->_Myfirst[_Idx]);

  00031	6b ff 14	 imul	 edi, 20			; 00000014H
  00034	03 3e		 add	 edi, DWORD PTR [esi]
  00036	8d 4e 0c	 lea	 ecx, DWORD PTR [esi+12]
  00039	57		 push	 edi
  0003a	ff 76 04	 push	 DWORD PTR [esi+4]
  0003d	e8 00 00 00 00	 call	 ??$construct@AAUBuffInfoStruct@@@?$allocator@UBuffInfoStruct@@@std@@QAEXPAUBuffInfoStruct@@AAU2@@Z ; std::allocator<BuffInfoStruct>::construct<BuffInfoStruct &>

; 986  : 			++this->_Mylast;
; 987  : 			}
; 988  : 		else

  00042	eb 19		 jmp	 SHORT $LN30@push_back@2
$LN4@push_back@2:

; 989  : 			{	// push back a non-element
; 990  : 			if (this->_Mylast == this->_Myend)

  00044	3b 4e 08	 cmp	 ecx, DWORD PTR [esi+8]
  00047	75 09		 jne	 SHORT $LN1@push_back@2

; 991  : 				_Reserve(1);

  00049	6a 01		 push	 1
  0004b	8b ce		 mov	 ecx, esi
  0004d	e8 00 00 00 00	 call	 ?_Reserve@?$vector@UBuffInfoStruct@@V?$allocator@UBuffInfoStruct@@@std@@@std@@IAEXI@Z ; std::vector<BuffInfoStruct,std::allocator<BuffInfoStruct> >::_Reserve
$LN1@push_back@2:

; 992  : 			_Orphan_range(this->_Mylast, this->_Mylast);
; 993  : 			_Cons_val(this->_Alval,
; 994  : 				this->_Mylast,
; 995  : 				_Val);

  00052	57		 push	 edi
  00053	ff 76 04	 push	 DWORD PTR [esi+4]
  00056	e8 00 00 00 00	 call	 ??$_Construct@UBuffInfoStruct@@ABU1@@std@@YAXPAUBuffInfoStruct@@ABU1@@Z ; std::_Construct<BuffInfoStruct,BuffInfoStruct const &>
  0005b	59		 pop	 ecx
  0005c	59		 pop	 ecx
$LN30@push_back@2:

; 996  : 			++this->_Mylast;

  0005d	83 46 04 14	 add	 DWORD PTR [esi+4], 20	; 00000014H
  00061	5f		 pop	 edi
  00062	5e		 pop	 esi

; 997  : 			}
; 998  : 		}

  00063	5d		 pop	 ebp
  00064	c2 04 00	 ret	 4
?push_back@?$vector@UBuffInfoStruct@@V?$allocator@UBuffInfoStruct@@@std@@@std@@QAEXABUBuffInfoStruct@@@Z ENDP ; std::vector<BuffInfoStruct,std::allocator<BuffInfoStruct> >::push_back
_TEXT	ENDS
PUBLIC	??$sort@V?$_Vector_iterator@V?$_Vector_val@UChangeDirInfo@@V?$allocator@UChangeDirInfo@@@std@@@std@@@std@@VChangeDirSort@@@std@@YAXV?$_Vector_iterator@V?$_Vector_val@UChangeDirInfo@@V?$allocator@UChangeDirInfo@@@std@@@std@@@0@0VChangeDirSort@@@Z ; std::sort<std::_Vector_iterator<std::_Vector_val<ChangeDirInfo,std::allocator<ChangeDirInfo> > >,ChangeDirSort>
; Function compile flags: /Ogsp
; File c:\program files (x86)\microsoft visual studio 10.0\vc\include\algorithm
;	COMDAT ??$sort@V?$_Vector_iterator@V?$_Vector_val@UChangeDirInfo@@V?$allocator@UChangeDirInfo@@@std@@@std@@@std@@VChangeDirSort@@@std@@YAXV?$_Vector_iterator@V?$_Vector_val@UChangeDirInfo@@V?$allocator@UChangeDirInfo@@@std@@@std@@@0@0VChangeDirSort@@@Z
_TEXT	SEGMENT
__First$ = 8						; size = 4
__Last$ = 12						; size = 4
__Pred$ = 16						; size = 1
??$sort@V?$_Vector_iterator@V?$_Vector_val@UChangeDirInfo@@V?$allocator@UChangeDirInfo@@@std@@@std@@@std@@VChangeDirSort@@@std@@YAXV?$_Vector_iterator@V?$_Vector_val@UChangeDirInfo@@V?$allocator@UChangeDirInfo@@@std@@@std@@@0@0VChangeDirSort@@@Z PROC ; std::sort<std::_Vector_iterator<std::_Vector_val<ChangeDirInfo,std::allocator<ChangeDirInfo> > >,ChangeDirSort>, COMDAT

; 3803 : 	{	// order [_First, _Last), using _Pred

  00000	55		 push	 ebp
  00001	8b ec		 mov	 ebp, esp

; 3804 : 	_DEBUG_RANGE(_First, _Last);
; 3805 : 	_DEBUG_POINTER(_Pred);
; 3806 : 	_Sort(_Unchecked(_First), _Unchecked(_Last), _Last - _First, _Pred);

  00003	ff 75 10	 push	 DWORD PTR __Pred$[ebp]
  00006	8b 45 0c	 mov	 eax, DWORD PTR __Last$[ebp]
  00009	2b 45 08	 sub	 eax, DWORD PTR __First$[ebp]
  0000c	6a 1c		 push	 28			; 0000001cH
  0000e	59		 pop	 ecx
  0000f	99		 cdq
  00010	f7 f9		 idiv	 ecx
  00012	50		 push	 eax
  00013	ff 75 0c	 push	 DWORD PTR __Last$[ebp]
  00016	ff 75 08	 push	 DWORD PTR __First$[ebp]
  00019	e8 00 00 00 00	 call	 ??$_Sort@PAUChangeDirInfo@@HVChangeDirSort@@@std@@YAXPAUChangeDirInfo@@0HVChangeDirSort@@@Z ; std::_Sort<ChangeDirInfo *,int,ChangeDirSort>
  0001e	83 c4 10	 add	 esp, 16			; 00000010H

; 3807 : 	}

  00021	5d		 pop	 ebp
  00022	c3		 ret	 0
??$sort@V?$_Vector_iterator@V?$_Vector_val@UChangeDirInfo@@V?$allocator@UChangeDirInfo@@@std@@@std@@@std@@VChangeDirSort@@@std@@YAXV?$_Vector_iterator@V?$_Vector_val@UChangeDirInfo@@V?$allocator@UChangeDirInfo@@@std@@@std@@@0@0VChangeDirSort@@@Z ENDP ; std::sort<std::_Vector_iterator<std::_Vector_val<ChangeDirInfo,std::allocator<ChangeDirInfo> > >,ChangeDirSort>
; Function compile flags: /Ogsp
_TEXT	ENDS
;	COMDAT ??_GioAdhesiveMissileWeapon3@@UAEPAXI@Z
_TEXT	SEGMENT
___flags$ = 8						; size = 4
??_GioAdhesiveMissileWeapon3@@UAEPAXI@Z PROC		; ioAdhesiveMissileWeapon3::`scalar deleting destructor', COMDAT
; _this$ = ecx
  00000	55		 push	 ebp
  00001	8b ec		 mov	 ebp, esp
  00003	56		 push	 esi
  00004	8b f1		 mov	 esi, ecx
  00006	e8 00 00 00 00	 call	 ??1ioAdhesiveMissileWeapon3@@UAE@XZ ; ioAdhesiveMissileWeapon3::~ioAdhesiveMissileWeapon3
  0000b	f6 45 08 01	 test	 BYTE PTR ___flags$[ebp], 1
  0000f	74 07		 je	 SHORT $LN1@scalar@4
  00011	56		 push	 esi
  00012	e8 00 00 00 00	 call	 ??3@YAXPAX@Z		; operator delete
  00017	59		 pop	 ecx
$LN1@scalar@4:
  00018	8b c6		 mov	 eax, esi
  0001a	5e		 pop	 esi
  0001b	5d		 pop	 ebp
  0001c	c2 04 00	 ret	 4
??_GioAdhesiveMissileWeapon3@@UAEPAXI@Z ENDP		; ioAdhesiveMissileWeapon3::`scalar deleting destructor'
_TEXT	ENDS
PUBLIC	_rkLoader$GSCopy$
PUBLIC	_this$GSCopy$
PUBLIC	__$ArrayPad$
PUBLIC	?LoadCallAttributeFireDirectionList@ioAdhesiveMissileWeapon3@@QAEXAAVioINILoader@@@Z ; ioAdhesiveMissileWeapon3::LoadCallAttributeFireDirectionList
EXTRN	__imp__wsprintfA:PROC
EXTRN	_memset:PROC
; Function compile flags: /Ogsp
; File d:\lost saga for developer\youtube\tutorial\source\src\lsclient\ioadhesivemissileweapon3.cpp
;	COMDAT ?LoadCallAttributeFireDirectionList@ioAdhesiveMissileWeapon3@@QAEXAAVioINILoader@@@Z
_TEXT	SEGMENT
$T540387 = -352						; size = 1
_this$GSCopy$ = -352					; size = 4
tv5168 = -348						; size = 4
tv6433 = -344						; size = 4
tv5025 = -340						; size = 4
$T540577 = -340						; size = 4
_rkLoader$GSCopy$ = -336				; size = 4
_szBuf$ = -332						; size = 260
__k$540418 = -72					; size = 28
_kInfo$531162 = -68					; size = 28
___encStr$532078 = -40					; size = 31
___encStr$531926 = -40					; size = 31
___encStr$531774 = -40					; size = 31
___encStr$531622 = -40					; size = 30
___encStr$531470 = -40					; size = 30
___encStr$531318 = -40					; size = 28
___encStr$531166 = -40					; size = 28
__$ArrayPad$ = -4					; size = 4
_rkLoader$ = 8						; size = 4
?LoadCallAttributeFireDirectionList@ioAdhesiveMissileWeapon3@@QAEXAAVioINILoader@@@Z PROC ; ioAdhesiveMissileWeapon3::LoadCallAttributeFireDirectionList, COMDAT
; _this$ = ecx

; 115  : {

  00000	55		 push	 ebp
  00001	8b ec		 mov	 ebp, esp
  00003	81 ec 60 01 00
	00		 sub	 esp, 352		; 00000160H
  00009	a1 00 00 00 00	 mov	 eax, DWORD PTR ___security_cookie
  0000e	33 c5		 xor	 eax, ebp
  00010	89 45 fc	 mov	 DWORD PTR __$ArrayPad$[ebp], eax
  00013	53		 push	 ebx
  00014	56		 push	 esi
  00015	8b 75 08	 mov	 esi, DWORD PTR _rkLoader$[ebp]
  00018	57		 push	 edi

; 116  : 	char szBuf[MAX_PATH] = "";

  00019	68 03 01 00 00	 push	 259			; 00000103H
  0001e	8d 85 b5 fe ff
	ff		 lea	 eax, DWORD PTR _szBuf$[ebp+1]
  00024	8b f9		 mov	 edi, ecx
  00026	6a 00		 push	 0
  00028	50		 push	 eax

; 146  : 
; 147  : 		wsprintf_e( szBuf, "call_attribute_fire%d_offset_z", i+1 );

  00029	89 bd a0 fe ff
	ff		 mov	 DWORD PTR _this$GSCopy$[ebp], edi
  0002f	89 b5 b0 fe ff
	ff		 mov	 DWORD PTR _rkLoader$GSCopy$[ebp], esi
  00035	c6 85 b4 fe ff
	ff 00		 mov	 BYTE PTR _szBuf$[ebp], 0
  0003c	e8 00 00 00 00	 call	 _memset
  00041	83 c4 0c	 add	 esp, 12			; 0000000cH
  00044	6a 06		 push	 6
  00046	c7 45 b8 8e 8d
	87 86		 mov	 DWORD PTR __k$540418[ebp], -2037936754 ; 86878d8eH
  0004d	c7 45 bc b2 8d
	9f 9e		 mov	 DWORD PTR __k$540418[ebp+4], -1633710670 ; 9e9f8db2H
  00054	c7 45 c0 9f 85
	89 9f		 mov	 DWORD PTR __k$540418[ebp+8], -1618377313 ; 9f89859fH
  0005b	c7 45 c4 99 89
	b4 8c		 mov	 DWORD PTR __k$540418[ebp+12], -1934325351 ; 8cb48999H
  00062	c7 45 c8 84 9e
	8e b5		 mov	 DWORD PTR __k$540418[ebp+16], -1248944508 ; b58e9e84H
  00069	c7 45 cc 89 85
	99 b5		 mov	 DWORD PTR __k$540418[ebp+20], -1248230007 ; b5998589H
  00070	8d 45 b8	 lea	 eax, DWORD PTR __k$540418[ebp]
  00073	c7 45 d0 8e 82
	9f 00		 mov	 DWORD PTR __k$540418[ebp+24], 10453646 ; 009f828eH
  0007a	59		 pop	 ecx
$LL803@LoadCallAt@2:

; 117  : 	char szKey[MAX_PATH] = "";
; 118  : 
; 119  : 	int iCnt = rkLoader.LoadInt_e( "call_attribute_fire_dir_cnt", 0 );

  0007b	81 30 ed ec eb
	ea		 xor	 DWORD PTR [eax], -353637139 ; eaebecedH
  00081	83 c0 04	 add	 eax, 4
  00084	49		 dec	 ecx
  00085	75 f4		 jne	 SHORT $LL803@LoadCallAt@2
  00087	6a 18		 push	 24			; 00000018H
  00089	58		 pop	 eax
$LL800@LoadCallAt@2:
  0008a	8b c8		 mov	 ecx, eax
  0008c	81 e1 03 00 00
	80		 and	 ecx, -2147483645	; 80000003H
  00092	79 05		 jns	 SHORT $LN935@LoadCallAt@2
  00094	49		 dec	 ecx
  00095	83 c9 fc	 or	 ecx, -4			; fffffffcH
  00098	41		 inc	 ecx
$LN935@LoadCallAt@2:
  00099	b2 ed		 mov	 dl, -19			; ffffffedH
  0009b	2a d1		 sub	 dl, cl
  0009d	30 54 05 b8	 xor	 BYTE PTR __k$540418[ebp+eax], dl
  000a1	40		 inc	 eax
  000a2	83 f8 1b	 cmp	 eax, 27			; 0000001bH
  000a5	7c e3		 jl	 SHORT $LL800@LoadCallAt@2
  000a7	6a 00		 push	 0
  000a9	8d 45 b8	 lea	 eax, DWORD PTR __k$540418[ebp]
  000ac	50		 push	 eax
  000ad	8b ce		 mov	 ecx, esi
  000af	ff 15 00 00 00
	00		 call	 DWORD PTR __imp_?LoadInt@ioINILoader@@QAEHPBDH@Z
  000b5	8b d8		 mov	 ebx, eax

; 120  : 	if( iCnt <= 0 ) return;

  000b7	85 db		 test	 ebx, ebx
  000b9	0f 8e 88 04 00
	00		 jle	 $LN698@LoadCallAt@2

; 121  : 
; 122  : 	m_CallAttFireList.clear();

  000bf	8d b7 dc 09 00
	00		 lea	 esi, DWORD PTR [edi+2524]
  000c5	8b 46 04	 mov	 eax, DWORD PTR [esi+4]
  000c8	8b 0e		 mov	 ecx, DWORD PTR [esi]
  000ca	50		 push	 eax
  000cb	51		 push	 ecx
  000cc	8d 85 ac fe ff
	ff		 lea	 eax, DWORD PTR $T540577[ebp]
  000d2	50		 push	 eax
  000d3	8b ce		 mov	 ecx, esi
  000d5	89 b5 a4 fe ff
	ff		 mov	 DWORD PTR tv5168[ebp], esi
  000db	e8 00 00 00 00	 call	 ?erase@?$vector@UChangeDirInfo@@V?$allocator@UChangeDirInfo@@@std@@@std@@QAE?AV?$_Vector_iterator@V?$_Vector_val@UChangeDirInfo@@V?$allocator@UChangeDirInfo@@@std@@@std@@@2@V?$_Vector_const_iterator@V?$_Vector_val@UChangeDirInfo@@V?$allocator@UChangeDirInfo@@@std@@@std@@@2@0@Z ; std::vector<ChangeDirInfo,std::allocator<ChangeDirInfo> >::erase

; 123  : 	m_CallAttFireList.reserve( iCnt );

  000e0	53		 push	 ebx
  000e1	8b ce		 mov	 ecx, esi
  000e3	e8 00 00 00 00	 call	 ?reserve@?$vector@UChangeDirInfo@@V?$allocator@UChangeDirInfo@@@std@@@std@@QAEXI@Z ; std::vector<ChangeDirInfo,std::allocator<ChangeDirInfo> >::reserve

; 124  : 
; 125  : 	for( int i= 0; i < iCnt; ++i )

  000e8	85 db		 test	 ebx, ebx
  000ea	0f 8e 3f 04 00
	00		 jle	 $LN694@LoadCallAt@2

; 121  : 
; 122  : 	m_CallAttFireList.clear();

  000f0	89 9d ac fe ff
	ff		 mov	 DWORD PTR tv5025[ebp], ebx
  000f6	8b 1d 00 00 00
	00		 mov	 ebx, DWORD PTR __imp__wsprintfA
  000fc	c7 85 a8 fe ff
	ff 01 00 00 00	 mov	 DWORD PTR tv6433[ebp], 1
$LL934@LoadCallAt@2:

; 126  : 	{
; 127  : 		ChangeDirInfo kInfo;

  00106	8b 35 00 00 00
	00		 mov	 esi, DWORD PTR __imp_?VEC3_ZERO@ioMath@@2UD3DXVECTOR3@@A
  0010c	8d 7d cc	 lea	 edi, DWORD PTR _kInfo$531162[ebp+16]
  0010f	a5		 movsd
  00110	a5		 movsd
  00111	6a 06		 push	 6
  00113	a5		 movsd

; 128  : 
; 129  : 		wsprintf_e( szBuf, "call_attribute_fire%d_range", i+1 );

  00114	c7 45 d8 8e 8d
	87 86		 mov	 DWORD PTR ___encStr$531166[ebp], -2037936754 ; 86878d8eH
  0011b	c7 45 dc b2 8d
	9f 9e		 mov	 DWORD PTR ___encStr$531166[ebp+4], -1633710670 ; 9e9f8db2H
  00122	c7 45 e0 9f 85
	89 9f		 mov	 DWORD PTR ___encStr$531166[ebp+8], -1618377313 ; 9f89859fH
  00129	c7 45 e4 99 89
	b4 8c		 mov	 DWORD PTR ___encStr$531166[ebp+12], -1934325351 ; 8cb48999H
  00130	c7 45 e8 84 9e
	8e cf		 mov	 DWORD PTR ___encStr$531166[ebp+16], -812736892 ; cf8e9e84H
  00137	c7 45 ec 89 b3
	99 8b		 mov	 DWORD PTR ___encStr$531166[ebp+20], -1952861303 ; 8b99b389H
  0013e	8d 45 d8	 lea	 eax, DWORD PTR ___encStr$531166[ebp]
  00141	c7 45 f0 83 8b
	8e 00		 mov	 DWORD PTR ___encStr$531166[ebp+24], 9341827 ; 008e8b83H
  00148	59		 pop	 ecx
$LL833@LoadCallAt@2:
  00149	81 30 ed ec eb
	ea		 xor	 DWORD PTR [eax], -353637139 ; eaebecedH
  0014f	83 c0 04	 add	 eax, 4
  00152	49		 dec	 ecx
  00153	75 f4		 jne	 SHORT $LL833@LoadCallAt@2
  00155	6a 18		 push	 24			; 00000018H
  00157	5e		 pop	 esi
$LL830@LoadCallAt@2:
  00158	8b c6		 mov	 eax, esi
  0015a	25 03 00 00 80	 and	 eax, -2147483645	; 80000003H
  0015f	79 05		 jns	 SHORT $LN936@LoadCallAt@2
  00161	48		 dec	 eax
  00162	83 c8 fc	 or	 eax, -4			; fffffffcH
  00165	40		 inc	 eax
$LN936@LoadCallAt@2:
  00166	b1 ed		 mov	 cl, -19			; ffffffedH
  00168	2a c8		 sub	 cl, al
  0016a	30 4c 35 d8	 xor	 BYTE PTR ___encStr$531166[ebp+esi], cl
  0016e	46		 inc	 esi
  0016f	83 fe 1b	 cmp	 esi, 27			; 0000001bH
  00172	7c e4		 jl	 SHORT $LL830@LoadCallAt@2
  00174	ff b5 a8 fe ff
	ff		 push	 DWORD PTR tv6433[ebp]
  0017a	8d 45 d8	 lea	 eax, DWORD PTR ___encStr$531166[ebp]
  0017d	50		 push	 eax
  0017e	8d 85 b4 fe ff
	ff		 lea	 eax, DWORD PTR _szBuf$[ebp]
  00184	50		 push	 eax
  00185	ff d3		 call	 ebx

; 130  : 		kInfo.m_fChangeRange = rkLoader.LoadFloat( szBuf, 0.0f );

  00187	0f 57 c0	 xorps	 xmm0, xmm0
  0018a	59		 pop	 ecx
  0018b	59		 pop	 ecx
  0018c	8b 8d b0 fe ff
	ff		 mov	 ecx, DWORD PTR _rkLoader$GSCopy$[ebp]
  00192	8d 85 b4 fe ff
	ff		 lea	 eax, DWORD PTR _szBuf$[ebp]
  00198	f3 0f 11 04 24	 movss	 DWORD PTR [esp], xmm0
  0019d	50		 push	 eax
  0019e	ff 15 00 00 00
	00		 call	 DWORD PTR __imp_?LoadFloat@ioINILoader@@QAEMPBDM@Z
  001a4	d9 5d bc	 fstp	 DWORD PTR _kInfo$531162[ebp]
  001a7	6a 06		 push	 6

; 131  : 
; 132  : 		wsprintf_e( szBuf, "call_attribute_fire%d_speed", i+1 );

  001a9	c7 45 d8 8e 8d
	87 86		 mov	 DWORD PTR ___encStr$531318[ebp], -2037936754 ; 86878d8eH
  001b0	c7 45 dc b2 8d
	9f 9e		 mov	 DWORD PTR ___encStr$531318[ebp+4], -1633710670 ; 9e9f8db2H
  001b7	c7 45 e0 9f 85
	89 9f		 mov	 DWORD PTR ___encStr$531318[ebp+8], -1618377313 ; 9f89859fH
  001be	c7 45 e4 99 89
	b4 8c		 mov	 DWORD PTR ___encStr$531318[ebp+12], -1934325351 ; 8cb48999H
  001c5	c7 45 e8 84 9e
	8e cf		 mov	 DWORD PTR ___encStr$531318[ebp+16], -812736892 ; cf8e9e84H
  001cc	c7 45 ec 89 b3
	98 9a		 mov	 DWORD PTR ___encStr$531318[ebp+20], -1701268599 ; 9a98b389H
  001d3	8d 45 d8	 lea	 eax, DWORD PTR ___encStr$531318[ebp]
  001d6	c7 45 f0 88 89
	8f 00		 mov	 DWORD PTR ___encStr$531318[ebp+24], 9406856 ; 008f8988H
  001dd	59		 pop	 ecx
$LL841@LoadCallAt@2:
  001de	81 30 ed ec eb
	ea		 xor	 DWORD PTR [eax], -353637139 ; eaebecedH
  001e4	83 c0 04	 add	 eax, 4
  001e7	49		 dec	 ecx
  001e8	75 f4		 jne	 SHORT $LL841@LoadCallAt@2
  001ea	6a 18		 push	 24			; 00000018H
  001ec	5e		 pop	 esi
$LL838@LoadCallAt@2:
  001ed	8b c6		 mov	 eax, esi
  001ef	25 03 00 00 80	 and	 eax, -2147483645	; 80000003H
  001f4	79 05		 jns	 SHORT $LN937@LoadCallAt@2
  001f6	48		 dec	 eax
  001f7	83 c8 fc	 or	 eax, -4			; fffffffcH
  001fa	40		 inc	 eax
$LN937@LoadCallAt@2:
  001fb	b1 ed		 mov	 cl, -19			; ffffffedH
  001fd	2a c8		 sub	 cl, al
  001ff	30 4c 35 d8	 xor	 BYTE PTR ___encStr$531318[ebp+esi], cl
  00203	46		 inc	 esi
  00204	83 fe 1b	 cmp	 esi, 27			; 0000001bH
  00207	7c e4		 jl	 SHORT $LL838@LoadCallAt@2
  00209	8b bd a8 fe ff
	ff		 mov	 edi, DWORD PTR tv6433[ebp]
  0020f	57		 push	 edi
  00210	8d 45 d8	 lea	 eax, DWORD PTR ___encStr$531318[ebp]
  00213	50		 push	 eax
  00214	8d 85 b4 fe ff
	ff		 lea	 eax, DWORD PTR _szBuf$[ebp]
  0021a	50		 push	 eax
  0021b	ff d3		 call	 ebx

; 133  : 		kInfo.m_fChangeSpeed = rkLoader.LoadFloat( szBuf, 0.0f );

  0021d	0f 57 c0	 xorps	 xmm0, xmm0
  00220	59		 pop	 ecx
  00221	59		 pop	 ecx
  00222	8b 8d b0 fe ff
	ff		 mov	 ecx, DWORD PTR _rkLoader$GSCopy$[ebp]
  00228	8d 85 b4 fe ff
	ff		 lea	 eax, DWORD PTR _szBuf$[ebp]
  0022e	f3 0f 11 04 24	 movss	 DWORD PTR [esp], xmm0
  00233	50		 push	 eax
  00234	ff 15 00 00 00
	00		 call	 DWORD PTR __imp_?LoadFloat@ioINILoader@@QAEMPBDM@Z
  0023a	d9 5d c0	 fstp	 DWORD PTR _kInfo$531162[ebp+4]
  0023d	6a 07		 push	 7

; 134  : 
; 135  : 		wsprintf_e( szBuf, "call_attribute_fire%d_angle_h", i+1 );

  0023f	c7 45 d8 8e 8d
	87 86		 mov	 DWORD PTR ___encStr$531470[ebp], -2037936754 ; 86878d8eH
  00246	c7 45 dc b2 8d
	9f 9e		 mov	 DWORD PTR ___encStr$531470[ebp+4], -1633710670 ; 9e9f8db2H
  0024d	c7 45 e0 9f 85
	89 9f		 mov	 DWORD PTR ___encStr$531470[ebp+8], -1618377313 ; 9f89859fH
  00254	c7 45 e4 99 89
	b4 8c		 mov	 DWORD PTR ___encStr$531470[ebp+12], -1934325351 ; 8cb48999H
  0025b	c7 45 e8 84 9e
	8e cf		 mov	 DWORD PTR ___encStr$531470[ebp+16], -812736892 ; cf8e9e84H
  00262	c7 45 ec 89 b3
	8a 84		 mov	 DWORD PTR ___encStr$531470[ebp+20], -2071284855 ; 848ab389H
  00269	c7 45 f0 8a 80
	8e b5		 mov	 DWORD PTR ___encStr$531470[ebp+24], -1248952182 ; b58e808aH
  00270	8d 45 d8	 lea	 eax, DWORD PTR ___encStr$531470[ebp]
  00273	66 c7 45 f4 85
	00		 mov	 WORD PTR ___encStr$531470[ebp+28], 133 ; 00000085H
  00279	59		 pop	 ecx
$LL849@LoadCallAt@2:
  0027a	81 30 ed ec eb
	ea		 xor	 DWORD PTR [eax], -353637139 ; eaebecedH
  00280	83 c0 04	 add	 eax, 4
  00283	49		 dec	 ecx
  00284	75 f4		 jne	 SHORT $LL849@LoadCallAt@2
  00286	80 75 f4 ed	 xor	 BYTE PTR ___encStr$531470[ebp+28], -19 ; ffffffedH
  0028a	57		 push	 edi
  0028b	8d 45 d8	 lea	 eax, DWORD PTR ___encStr$531470[ebp]
  0028e	50		 push	 eax
  0028f	8d 85 b4 fe ff
	ff		 lea	 eax, DWORD PTR _szBuf$[ebp]
  00295	50		 push	 eax
  00296	ff d3		 call	 ebx

; 136  : 		kInfo.m_fChangeAngleH = rkLoader.LoadFloat( szBuf, 0.0f );

  00298	0f 57 c0	 xorps	 xmm0, xmm0
  0029b	59		 pop	 ecx
  0029c	59		 pop	 ecx
  0029d	8b 8d b0 fe ff
	ff		 mov	 ecx, DWORD PTR _rkLoader$GSCopy$[ebp]
  002a3	8d 85 b4 fe ff
	ff		 lea	 eax, DWORD PTR _szBuf$[ebp]
  002a9	f3 0f 11 04 24	 movss	 DWORD PTR [esp], xmm0
  002ae	50		 push	 eax
  002af	ff 15 00 00 00
	00		 call	 DWORD PTR __imp_?LoadFloat@ioINILoader@@QAEMPBDM@Z
  002b5	d9 5d c4	 fstp	 DWORD PTR _kInfo$531162[ebp+8]
  002b8	6a 07		 push	 7

; 137  : 
; 138  : 		wsprintf_e( szBuf, "call_attribute_fire%d_angle_v", i+1 );

  002ba	c7 45 d8 8e 8d
	87 86		 mov	 DWORD PTR ___encStr$531622[ebp], -2037936754 ; 86878d8eH
  002c1	c7 45 dc b2 8d
	9f 9e		 mov	 DWORD PTR ___encStr$531622[ebp+4], -1633710670 ; 9e9f8db2H
  002c8	c7 45 e0 9f 85
	89 9f		 mov	 DWORD PTR ___encStr$531622[ebp+8], -1618377313 ; 9f89859fH
  002cf	c7 45 e4 99 89
	b4 8c		 mov	 DWORD PTR ___encStr$531622[ebp+12], -1934325351 ; 8cb48999H
  002d6	c7 45 e8 84 9e
	8e cf		 mov	 DWORD PTR ___encStr$531622[ebp+16], -812736892 ; cf8e9e84H
  002dd	c7 45 ec 89 b3
	8a 84		 mov	 DWORD PTR ___encStr$531622[ebp+20], -2071284855 ; 848ab389H
  002e4	c7 45 f0 8a 80
	8e b5		 mov	 DWORD PTR ___encStr$531622[ebp+24], -1248952182 ; b58e808aH
  002eb	8d 45 d8	 lea	 eax, DWORD PTR ___encStr$531622[ebp]
  002ee	66 c7 45 f4 9b
	00		 mov	 WORD PTR ___encStr$531622[ebp+28], 155 ; 0000009bH
  002f4	59		 pop	 ecx
$LL857@LoadCallAt@2:
  002f5	81 30 ed ec eb
	ea		 xor	 DWORD PTR [eax], -353637139 ; eaebecedH
  002fb	83 c0 04	 add	 eax, 4
  002fe	49		 dec	 ecx
  002ff	75 f4		 jne	 SHORT $LL857@LoadCallAt@2
  00301	80 75 f4 ed	 xor	 BYTE PTR ___encStr$531622[ebp+28], -19 ; ffffffedH
  00305	57		 push	 edi
  00306	8d 45 d8	 lea	 eax, DWORD PTR ___encStr$531622[ebp]
  00309	50		 push	 eax
  0030a	8d 85 b4 fe ff
	ff		 lea	 eax, DWORD PTR _szBuf$[ebp]
  00310	50		 push	 eax
  00311	ff d3		 call	 ebx

; 139  : 		kInfo.m_fChangeAngleV = rkLoader.LoadFloat( szBuf, 0.0f );

  00313	0f 57 c0	 xorps	 xmm0, xmm0
  00316	59		 pop	 ecx
  00317	59		 pop	 ecx
  00318	8b 8d b0 fe ff
	ff		 mov	 ecx, DWORD PTR _rkLoader$GSCopy$[ebp]
  0031e	8d 85 b4 fe ff
	ff		 lea	 eax, DWORD PTR _szBuf$[ebp]
  00324	f3 0f 11 04 24	 movss	 DWORD PTR [esp], xmm0
  00329	50		 push	 eax
  0032a	ff 15 00 00 00
	00		 call	 DWORD PTR __imp_?LoadFloat@ioINILoader@@QAEMPBDM@Z
  00330	d9 5d c8	 fstp	 DWORD PTR _kInfo$531162[ebp+12]
  00333	6a 07		 push	 7

; 140  : 
; 141  : 		wsprintf_e( szBuf, "call_attribute_fire%d_offset_x", i+1 );

  00335	c7 45 d8 8e 8d
	87 86		 mov	 DWORD PTR ___encStr$531774[ebp], -2037936754 ; 86878d8eH
  0033c	c7 45 dc b2 8d
	9f 9e		 mov	 DWORD PTR ___encStr$531774[ebp+4], -1633710670 ; 9e9f8db2H
  00343	c7 45 e0 9f 85
	89 9f		 mov	 DWORD PTR ___encStr$531774[ebp+8], -1618377313 ; 9f89859fH
  0034a	c7 45 e4 99 89
	b4 8c		 mov	 DWORD PTR ___encStr$531774[ebp+12], -1934325351 ; 8cb48999H
  00351	c7 45 e8 84 9e
	8e cf		 mov	 DWORD PTR ___encStr$531774[ebp+16], -812736892 ; cf8e9e84H
  00358	c7 45 ec 89 b3
	84 8c		 mov	 DWORD PTR ___encStr$531774[ebp+20], -1937460343 ; 8c84b389H
  0035f	c7 45 f0 8b 9f
	8e 9e		 mov	 DWORD PTR ___encStr$531774[ebp+24], -1634820213 ; 9e8e9f8bH
  00366	66 c7 45 f4 b2
	94		 mov	 WORD PTR ___encStr$531774[ebp+28], 38066 ; 000094b2H
  0036c	8d 45 d8	 lea	 eax, DWORD PTR ___encStr$531774[ebp]
  0036f	c6 45 f6 00	 mov	 BYTE PTR ___encStr$531774[ebp+30], 0
  00373	59		 pop	 ecx
$LL865@LoadCallAt@2:
  00374	81 30 ed ec eb
	ea		 xor	 DWORD PTR [eax], -353637139 ; eaebecedH
  0037a	83 c0 04	 add	 eax, 4
  0037d	49		 dec	 ecx
  0037e	75 f4		 jne	 SHORT $LL865@LoadCallAt@2
  00380	6a 1c		 push	 28			; 0000001cH
  00382	5e		 pop	 esi
$LL862@LoadCallAt@2:
  00383	8b c6		 mov	 eax, esi
  00385	25 03 00 00 80	 and	 eax, -2147483645	; 80000003H
  0038a	79 05		 jns	 SHORT $LN938@LoadCallAt@2
  0038c	48		 dec	 eax
  0038d	83 c8 fc	 or	 eax, -4			; fffffffcH
  00390	40		 inc	 eax
$LN938@LoadCallAt@2:
  00391	b1 ed		 mov	 cl, -19			; ffffffedH
  00393	2a c8		 sub	 cl, al
  00395	30 4c 35 d8	 xor	 BYTE PTR ___encStr$531774[ebp+esi], cl
  00399	46		 inc	 esi
  0039a	83 fe 1e	 cmp	 esi, 30			; 0000001eH
  0039d	7c e4		 jl	 SHORT $LL862@LoadCallAt@2
  0039f	57		 push	 edi
  003a0	8d 45 d8	 lea	 eax, DWORD PTR ___encStr$531774[ebp]
  003a3	50		 push	 eax
  003a4	8d 85 b4 fe ff
	ff		 lea	 eax, DWORD PTR _szBuf$[ebp]
  003aa	50		 push	 eax
  003ab	ff d3		 call	 ebx

; 142  : 		kInfo.m_vFireOffset.x = rkLoader.LoadFloat( szBuf, 0.0f );

  003ad	0f 57 c0	 xorps	 xmm0, xmm0
  003b0	59		 pop	 ecx
  003b1	59		 pop	 ecx
  003b2	8b 8d b0 fe ff
	ff		 mov	 ecx, DWORD PTR _rkLoader$GSCopy$[ebp]
  003b8	8d 85 b4 fe ff
	ff		 lea	 eax, DWORD PTR _szBuf$[ebp]
  003be	f3 0f 11 04 24	 movss	 DWORD PTR [esp], xmm0
  003c3	50		 push	 eax
  003c4	ff 15 00 00 00
	00		 call	 DWORD PTR __imp_?LoadFloat@ioINILoader@@QAEMPBDM@Z
  003ca	d9 5d cc	 fstp	 DWORD PTR _kInfo$531162[ebp+16]
  003cd	6a 07		 push	 7

; 143  : 
; 144  : 		wsprintf_e( szBuf, "call_attribute_fire%d_offset_y", i+1 );

  003cf	c7 45 d8 8e 8d
	87 86		 mov	 DWORD PTR ___encStr$531926[ebp], -2037936754 ; 86878d8eH
  003d6	c7 45 dc b2 8d
	9f 9e		 mov	 DWORD PTR ___encStr$531926[ebp+4], -1633710670 ; 9e9f8db2H
  003dd	c7 45 e0 9f 85
	89 9f		 mov	 DWORD PTR ___encStr$531926[ebp+8], -1618377313 ; 9f89859fH
  003e4	c7 45 e4 99 89
	b4 8c		 mov	 DWORD PTR ___encStr$531926[ebp+12], -1934325351 ; 8cb48999H
  003eb	c7 45 e8 84 9e
	8e cf		 mov	 DWORD PTR ___encStr$531926[ebp+16], -812736892 ; cf8e9e84H
  003f2	c7 45 ec 89 b3
	84 8c		 mov	 DWORD PTR ___encStr$531926[ebp+20], -1937460343 ; 8c84b389H
  003f9	c7 45 f0 8b 9f
	8e 9e		 mov	 DWORD PTR ___encStr$531926[ebp+24], -1634820213 ; 9e8e9f8bH
  00400	66 c7 45 f4 b2
	95		 mov	 WORD PTR ___encStr$531926[ebp+28], 38322 ; 000095b2H
  00406	8d 45 d8	 lea	 eax, DWORD PTR ___encStr$531926[ebp]
  00409	c6 45 f6 00	 mov	 BYTE PTR ___encStr$531926[ebp+30], 0
  0040d	59		 pop	 ecx
$LL873@LoadCallAt@2:
  0040e	81 30 ed ec eb
	ea		 xor	 DWORD PTR [eax], -353637139 ; eaebecedH
  00414	83 c0 04	 add	 eax, 4
  00417	49		 dec	 ecx
  00418	75 f4		 jne	 SHORT $LL873@LoadCallAt@2
  0041a	6a 1c		 push	 28			; 0000001cH
  0041c	5e		 pop	 esi
$LL870@LoadCallAt@2:
  0041d	8b c6		 mov	 eax, esi
  0041f	25 03 00 00 80	 and	 eax, -2147483645	; 80000003H
  00424	79 05		 jns	 SHORT $LN939@LoadCallAt@2
  00426	48		 dec	 eax
  00427	83 c8 fc	 or	 eax, -4			; fffffffcH
  0042a	40		 inc	 eax
$LN939@LoadCallAt@2:
  0042b	b1 ed		 mov	 cl, -19			; ffffffedH
  0042d	2a c8		 sub	 cl, al
  0042f	30 4c 35 d8	 xor	 BYTE PTR ___encStr$531926[ebp+esi], cl
  00433	46		 inc	 esi
  00434	83 fe 1e	 cmp	 esi, 30			; 0000001eH
  00437	7c e4		 jl	 SHORT $LL870@LoadCallAt@2
  00439	57		 push	 edi
  0043a	8d 45 d8	 lea	 eax, DWORD PTR ___encStr$531926[ebp]
  0043d	50		 push	 eax
  0043e	8d 85 b4 fe ff
	ff		 lea	 eax, DWORD PTR _szBuf$[ebp]
  00444	50		 push	 eax
  00445	ff d3		 call	 ebx

; 145  : 		kInfo.m_vFireOffset.y = rkLoader.LoadFloat( szBuf, 0.0f );

  00447	0f 57 c0	 xorps	 xmm0, xmm0
  0044a	59		 pop	 ecx
  0044b	59		 pop	 ecx
  0044c	8b 8d b0 fe ff
	ff		 mov	 ecx, DWORD PTR _rkLoader$GSCopy$[ebp]
  00452	8d 85 b4 fe ff
	ff		 lea	 eax, DWORD PTR _szBuf$[ebp]
  00458	f3 0f 11 04 24	 movss	 DWORD PTR [esp], xmm0
  0045d	50		 push	 eax
  0045e	ff 15 00 00 00
	00		 call	 DWORD PTR __imp_?LoadFloat@ioINILoader@@QAEMPBDM@Z
  00464	d9 5d d0	 fstp	 DWORD PTR _kInfo$531162[ebp+20]
  00467	6a 07		 push	 7

; 146  : 
; 147  : 		wsprintf_e( szBuf, "call_attribute_fire%d_offset_z", i+1 );

  00469	c7 45 d8 8e 8d
	87 86		 mov	 DWORD PTR ___encStr$532078[ebp], -2037936754 ; 86878d8eH
  00470	c7 45 dc b2 8d
	9f 9e		 mov	 DWORD PTR ___encStr$532078[ebp+4], -1633710670 ; 9e9f8db2H
  00477	c7 45 e0 9f 85
	89 9f		 mov	 DWORD PTR ___encStr$532078[ebp+8], -1618377313 ; 9f89859fH
  0047e	c7 45 e4 99 89
	b4 8c		 mov	 DWORD PTR ___encStr$532078[ebp+12], -1934325351 ; 8cb48999H
  00485	c7 45 e8 84 9e
	8e cf		 mov	 DWORD PTR ___encStr$532078[ebp+16], -812736892 ; cf8e9e84H
  0048c	c7 45 ec 89 b3
	84 8c		 mov	 DWORD PTR ___encStr$532078[ebp+20], -1937460343 ; 8c84b389H
  00493	c7 45 f0 8b 9f
	8e 9e		 mov	 DWORD PTR ___encStr$532078[ebp+24], -1634820213 ; 9e8e9f8bH
  0049a	66 c7 45 f4 b2
	96		 mov	 WORD PTR ___encStr$532078[ebp+28], 38578 ; 000096b2H
  004a0	8d 45 d8	 lea	 eax, DWORD PTR ___encStr$532078[ebp]
  004a3	c6 45 f6 00	 mov	 BYTE PTR ___encStr$532078[ebp+30], 0
  004a7	59		 pop	 ecx
$LL881@LoadCallAt@2:
  004a8	81 30 ed ec eb
	ea		 xor	 DWORD PTR [eax], -353637139 ; eaebecedH
  004ae	83 c0 04	 add	 eax, 4
  004b1	49		 dec	 ecx
  004b2	75 f4		 jne	 SHORT $LL881@LoadCallAt@2
  004b4	6a 1c		 push	 28			; 0000001cH
  004b6	5e		 pop	 esi
$LL878@LoadCallAt@2:
  004b7	8b c6		 mov	 eax, esi
  004b9	25 03 00 00 80	 and	 eax, -2147483645	; 80000003H
  004be	79 05		 jns	 SHORT $LN940@LoadCallAt@2
  004c0	48		 dec	 eax
  004c1	83 c8 fc	 or	 eax, -4			; fffffffcH
  004c4	40		 inc	 eax
$LN940@LoadCallAt@2:
  004c5	b1 ed		 mov	 cl, -19			; ffffffedH
  004c7	2a c8		 sub	 cl, al
  004c9	30 4c 35 d8	 xor	 BYTE PTR ___encStr$532078[ebp+esi], cl
  004cd	46		 inc	 esi
  004ce	83 fe 1e	 cmp	 esi, 30			; 0000001eH
  004d1	7c e4		 jl	 SHORT $LL878@LoadCallAt@2
  004d3	57		 push	 edi
  004d4	8d 45 d8	 lea	 eax, DWORD PTR ___encStr$532078[ebp]
  004d7	50		 push	 eax
  004d8	8d 85 b4 fe ff
	ff		 lea	 eax, DWORD PTR _szBuf$[ebp]
  004de	50		 push	 eax
  004df	ff d3		 call	 ebx

; 148  : 		kInfo.m_vFireOffset.z = rkLoader.LoadFloat( szBuf, 0.0f );

  004e1	0f 57 c0	 xorps	 xmm0, xmm0
  004e4	59		 pop	 ecx
  004e5	59		 pop	 ecx
  004e6	8b 8d b0 fe ff
	ff		 mov	 ecx, DWORD PTR _rkLoader$GSCopy$[ebp]
  004ec	8d 85 b4 fe ff
	ff		 lea	 eax, DWORD PTR _szBuf$[ebp]
  004f2	f3 0f 11 04 24	 movss	 DWORD PTR [esp], xmm0
  004f7	50		 push	 eax
  004f8	ff 15 00 00 00
	00		 call	 DWORD PTR __imp_?LoadFloat@ioINILoader@@QAEMPBDM@Z
  004fe	d9 5d d4	 fstp	 DWORD PTR _kInfo$531162[ebp+24]

; 149  : 
; 150  : 		m_CallAttFireList.push_back( kInfo );

  00501	8b 8d a4 fe ff
	ff		 mov	 ecx, DWORD PTR tv5168[ebp]
  00507	8d 45 bc	 lea	 eax, DWORD PTR _kInfo$531162[ebp]
  0050a	50		 push	 eax
  0050b	e8 00 00 00 00	 call	 ?push_back@?$vector@UChangeDirInfo@@V?$allocator@UChangeDirInfo@@@std@@@std@@QAEXABUChangeDirInfo@@@Z ; std::vector<ChangeDirInfo,std::allocator<ChangeDirInfo> >::push_back
  00510	47		 inc	 edi
  00511	ff 8d ac fe ff
	ff		 dec	 DWORD PTR tv5025[ebp]
  00517	89 bd a8 fe ff
	ff		 mov	 DWORD PTR tv6433[ebp], edi
  0051d	0f 85 e3 fb ff
	ff		 jne	 $LL934@LoadCallAt@2

; 124  : 
; 125  : 	for( int i= 0; i < iCnt; ++i )

  00523	8b bd a0 fe ff
	ff		 mov	 edi, DWORD PTR _this$GSCopy$[ebp]
  00529	8b b5 a4 fe ff
	ff		 mov	 esi, DWORD PTR tv5168[ebp]
$LN694@LoadCallAt@2:

; 151  : 	}
; 152  : 
; 153  : 	std::sort( m_CallAttFireList.begin(), m_CallAttFireList.end(), ChangeDirSort() );

  0052f	ff b5 a0 fe ff
	ff		 push	 DWORD PTR $T540387[ebp]
  00535	8b bf e0 09 00
	00		 mov	 edi, DWORD PTR [edi+2528]
  0053b	8b 36		 mov	 esi, DWORD PTR [esi]
  0053d	57		 push	 edi
  0053e	56		 push	 esi
  0053f	e8 00 00 00 00	 call	 ??$sort@V?$_Vector_iterator@V?$_Vector_val@UChangeDirInfo@@V?$allocator@UChangeDirInfo@@@std@@@std@@@std@@VChangeDirSort@@@std@@YAXV?$_Vector_iterator@V?$_Vector_val@UChangeDirInfo@@V?$allocator@UChangeDirInfo@@@std@@@std@@@0@0VChangeDirSort@@@Z ; std::sort<std::_Vector_iterator<std::_Vector_val<ChangeDirInfo,std::allocator<ChangeDirInfo> > >,ChangeDirSort>
  00544	83 c4 0c	 add	 esp, 12			; 0000000cH
$LN698@LoadCallAt@2:

; 154  : }

  00547	8b 4d fc	 mov	 ecx, DWORD PTR __$ArrayPad$[ebp]
  0054a	5f		 pop	 edi
  0054b	5e		 pop	 esi
  0054c	33 cd		 xor	 ecx, ebp
  0054e	5b		 pop	 ebx
  0054f	e8 00 00 00 00	 call	 @__security_check_cookie@4
  00554	c9		 leave
  00555	c2 04 00	 ret	 4
?LoadCallAttributeFireDirectionList@ioAdhesiveMissileWeapon3@@QAEXAAVioINILoader@@@Z ENDP ; ioAdhesiveMissileWeapon3::LoadCallAttributeFireDirectionList
_TEXT	ENDS
PUBLIC	_rkLoader$GSCopy$
EXTRN	?GetBuffType@ioBuffMaker@@QBEHABVioHashString@@@Z:PROC ; ioBuffMaker::GetBuffType
EXTRN	?GetSingleton@ioBuffMaker@@SAAAV1@XZ:PROC	; ioBuffMaker::GetSingleton
EXTRN	?LoadProperty@ioWeapon@@UAEXAAVioINILoader@@@Z:PROC ; ioWeapon::LoadProperty
;	COMDAT xdata$x
; File d:\lost saga for developer\youtube\tutorial\source\src\lsclient\weaponattribute.h
xdata$x	SEGMENT
__unwindtable$?LoadProperty@ioAdhesiveMissileWeapon3@@UAEXAAVioINILoader@@@Z DD 0ffffffffH
	DD	FLAT:__unwindfunclet$?LoadProperty@ioAdhesiveMissileWeapon3@@UAEXAAVioINILoader@@@Z$0
__ehfuncinfo$?LoadProperty@ioAdhesiveMissileWeapon3@@UAEXAAVioINILoader@@@Z DD 019930522H
	DD	01H
	DD	FLAT:__unwindtable$?LoadProperty@ioAdhesiveMissileWeapon3@@UAEXAAVioINILoader@@@Z
	DD	2 DUP(00H)
	DD	2 DUP(00H)
	DD	00H
	DD	01H
; Function compile flags: /Ogsp
; File d:\lost saga for developer\youtube\tutorial\source\src\lsclient\ioadhesivemissileweapon3.cpp
xdata$x	ENDS
;	COMDAT ?LoadProperty@ioAdhesiveMissileWeapon3@@UAEXAAVioINILoader@@@Z
_TEXT	SEGMENT
_tBuffInfo$531103 = -616				; size = 20
tv5464 = -596						; size = 4
_value$541298 = -592					; size = 4
_value$541168 = -592					; size = 4
_value$541038 = -592					; size = 4
_iCount$ = -592						; size = 4
_rkLoader$GSCopy$ = -588				; size = 4
_szKey$ = -584						; size = 260
_szBuf$ = -324						; size = 260
___encStr$530953 = -64					; size = 17
__k$541491 = -40					; size = 19
__k$540813 = -40					; size = 20
__k$541198 = -36					; size = 15
__k$541068 = -36					; size = 15
__k$540938 = -36					; size = 15
__k$541328 = -32					; size = 12
__$EHRec$ = -12						; size = 12
_rkLoader$ = 8						; size = 4
?LoadProperty@ioAdhesiveMissileWeapon3@@UAEXAAVioINILoader@@@Z PROC ; ioAdhesiveMissileWeapon3::LoadProperty, COMDAT
; _this$ = ecx

; 59   : {

  00000	68 5c 02 00 00	 push	 604			; 0000025cH
  00005	b8 00 00 00 00	 mov	 eax, __ehhandler$?LoadProperty@ioAdhesiveMissileWeapon3@@UAEXAAVioINILoader@@@Z
  0000a	e8 00 00 00 00	 call	 __EH_prolog3_GS
  0000f	8b 45 08	 mov	 eax, DWORD PTR _rkLoader$[ebp]

; 60   : 	ioWeapon::LoadProperty( rkLoader );

  00012	50		 push	 eax
  00013	8b f1		 mov	 esi, ecx
  00015	89 85 b4 fd ff
	ff		 mov	 DWORD PTR _rkLoader$GSCopy$[ebp], eax
  0001b	e8 00 00 00 00	 call	 ?LoadProperty@ioWeapon@@UAEXAAVioINILoader@@@Z ; ioWeapon::LoadProperty

; 61   : 
; 62   : 	char szBuf[MAX_PATH] = "";

  00020	bf 03 01 00 00	 mov	 edi, 259		; 00000103H
  00025	33 db		 xor	 ebx, ebx
  00027	57		 push	 edi
  00028	8d 85 bd fe ff
	ff		 lea	 eax, DWORD PTR _szBuf$[ebp+1]
  0002e	53		 push	 ebx
  0002f	50		 push	 eax
  00030	88 9d bc fe ff
	ff		 mov	 BYTE PTR _szBuf$[ebp], bl
  00036	e8 00 00 00 00	 call	 _memset

; 63   : 	char szKey[MAX_PATH] = "";

  0003b	57		 push	 edi
  0003c	8d 85 b9 fd ff
	ff		 lea	 eax, DWORD PTR _szKey$[ebp+1]
  00042	53		 push	 ebx
  00043	50		 push	 eax
  00044	88 9d b8 fd ff
	ff		 mov	 BYTE PTR _szKey$[ebp], bl
  0004a	e8 00 00 00 00	 call	 _memset
  0004f	83 c4 18	 add	 esp, 24			; 00000018H

; 64   : 
; 65   : 	m_bCollisionMap = rkLoader.LoadBool_e( "check_collision_map", false );

  00052	6a 04		 push	 4
  00054	c7 45 d8 8e 84
	8e 89		 mov	 DWORD PTR __k$540813[ebp], -1987148658 ; 898e848eH
  0005b	c7 45 dc 86 b3
	88 85		 mov	 DWORD PTR __k$540813[ebp+4], -2054638714 ; 8588b386H
  00062	c7 45 e0 81 80
	82 99		 mov	 DWORD PTR __k$540813[ebp+8], -1719500671 ; 99828081H
  00069	c7 45 e4 84 83
	85 b5		 mov	 DWORD PTR __k$540813[ebp+12], -1249541244 ; b5858384H
  00070	8d 45 d8	 lea	 eax, DWORD PTR __k$540813[ebp]
  00073	c7 45 e8 80 8d
	9b 00		 mov	 DWORD PTR __k$540813[ebp+16], 10194304 ; 009b8d80H
  0007a	59		 pop	 ecx
$LL211@LoadProper:
  0007b	81 30 ed ec eb
	ea		 xor	 DWORD PTR [eax], -353637139 ; eaebecedH
  00081	83 c0 04	 add	 eax, 4
  00084	49		 dec	 ecx
  00085	75 f4		 jne	 SHORT $LL211@LoadProper
  00087	6a 10		 push	 16			; 00000010H
  00089	5f		 pop	 edi
$LL208@LoadProper:
  0008a	8b c7		 mov	 eax, edi
  0008c	25 03 00 00 80	 and	 eax, -2147483645	; 80000003H
  00091	79 05		 jns	 SHORT $LN792@LoadProper
  00093	48		 dec	 eax
  00094	83 c8 fc	 or	 eax, -4			; fffffffcH
  00097	40		 inc	 eax
$LN792@LoadProper:
  00098	b1 ed		 mov	 cl, -19			; ffffffedH
  0009a	2a c8		 sub	 cl, al
  0009c	30 4c 3d d8	 xor	 BYTE PTR __k$540813[ebp+edi], cl
  000a0	47		 inc	 edi
  000a1	83 ff 13	 cmp	 edi, 19			; 00000013H
  000a4	7c e4		 jl	 SHORT $LL208@LoadProper
  000a6	8b 8d b4 fd ff
	ff		 mov	 ecx, DWORD PTR _rkLoader$GSCopy$[ebp]
  000ac	53		 push	 ebx
  000ad	8d 45 d8	 lea	 eax, DWORD PTR __k$540813[ebp]
  000b0	50		 push	 eax
  000b1	ff 15 00 00 00
	00		 call	 DWORD PTR __imp_?LoadBool@ioINILoader@@QAE_NPBD_N@Z
  000b7	6a 03		 push	 3
  000b9	88 86 9e 09 00
	00		 mov	 BYTE PTR [esi+2462], al

; 66   : 
; 67   : 	m_fStartOffset_x = rkLoader.LoadFloat_e( "start_offset_x", 0.0f );

  000bf	c7 45 dc 9e 98
	8a 98		 mov	 DWORD PTR __k$540938[ebp], -1735747426 ; 988a989eH
  000c6	c7 45 e0 99 b3
	84 8c		 mov	 DWORD PTR __k$540938[ebp+4], -1937460327 ; 8c84b399H
  000cd	c7 45 e4 8b 9f
	8e 9e		 mov	 DWORD PTR __k$540938[ebp+8], -1634820213 ; 9e8e9f8bH
  000d4	66 c7 45 e8 b2
	94		 mov	 WORD PTR __k$540938[ebp+12], 38066 ; 000094b2H
  000da	8d 45 dc	 lea	 eax, DWORD PTR __k$540938[ebp]
  000dd	88 5d ea	 mov	 BYTE PTR __k$540938[ebp+14], bl
  000e0	59		 pop	 ecx
$LL317@LoadProper:
  000e1	81 30 ed ec eb
	ea		 xor	 DWORD PTR [eax], -353637139 ; eaebecedH
  000e7	83 c0 04	 add	 eax, 4
  000ea	49		 dec	 ecx
  000eb	75 f4		 jne	 SHORT $LL317@LoadProper
  000ed	6a 0c		 push	 12			; 0000000cH
  000ef	5f		 pop	 edi
$LL314@LoadProper:
  000f0	8b c7		 mov	 eax, edi
  000f2	25 03 00 00 80	 and	 eax, -2147483645	; 80000003H
  000f7	79 05		 jns	 SHORT $LN793@LoadProper
  000f9	48		 dec	 eax
  000fa	83 c8 fc	 or	 eax, -4			; fffffffcH
  000fd	40		 inc	 eax
$LN793@LoadProper:
  000fe	b1 ed		 mov	 cl, -19			; ffffffedH
  00100	2a c8		 sub	 cl, al
  00102	30 4c 3d dc	 xor	 BYTE PTR __k$540938[ebp+edi], cl
  00106	47		 inc	 edi
  00107	83 ff 0e	 cmp	 edi, 14			; 0000000eH
  0010a	7c e4		 jl	 SHORT $LL314@LoadProper
  0010c	0f 57 c0	 xorps	 xmm0, xmm0
  0010f	51		 push	 ecx
  00110	8b 8d b4 fd ff
	ff		 mov	 ecx, DWORD PTR _rkLoader$GSCopy$[ebp]
  00116	8d 45 dc	 lea	 eax, DWORD PTR __k$540938[ebp]
  00119	f3 0f 11 04 24	 movss	 DWORD PTR [esp], xmm0
  0011e	50		 push	 eax
  0011f	ff 15 00 00 00
	00		 call	 DWORD PTR __imp_?LoadFloat@ioINILoader@@QAEMPBDM@Z
  00125	d9 9d b0 fd ff
	ff		 fstp	 DWORD PTR _value$541038[ebp]
  0012b	8d 85 b0 fd ff
	ff		 lea	 eax, DWORD PTR _value$541038[ebp]
  00131	50		 push	 eax
  00132	8d 8e 04 09 00
	00		 lea	 ecx, DWORD PTR [esi+2308]
  00138	e8 00 00 00 00	 call	 ?EncryptValueToPool@?$CEncrypt@M@@AAEXPBD@Z ; CEncrypt<float>::EncryptValueToPool
  0013d	6a 03		 push	 3

; 68   : 	m_fStartOffset_y = rkLoader.LoadFloat_e( "start_offset_y", 0.0f );

  0013f	c7 45 dc 9e 98
	8a 98		 mov	 DWORD PTR __k$541068[ebp], -1735747426 ; 988a989eH
  00146	c7 45 e0 99 b3
	84 8c		 mov	 DWORD PTR __k$541068[ebp+4], -1937460327 ; 8c84b399H
  0014d	c7 45 e4 8b 9f
	8e 9e		 mov	 DWORD PTR __k$541068[ebp+8], -1634820213 ; 9e8e9f8bH
  00154	66 c7 45 e8 b2
	95		 mov	 WORD PTR __k$541068[ebp+12], 38322 ; 000095b2H
  0015a	8d 45 dc	 lea	 eax, DWORD PTR __k$541068[ebp]
  0015d	88 5d ea	 mov	 BYTE PTR __k$541068[ebp+14], bl
  00160	59		 pop	 ecx
$LL425@LoadProper:
  00161	81 30 ed ec eb
	ea		 xor	 DWORD PTR [eax], -353637139 ; eaebecedH
  00167	83 c0 04	 add	 eax, 4
  0016a	49		 dec	 ecx
  0016b	75 f4		 jne	 SHORT $LL425@LoadProper
  0016d	6a 0c		 push	 12			; 0000000cH
  0016f	5f		 pop	 edi
$LL422@LoadProper:
  00170	8b c7		 mov	 eax, edi
  00172	25 03 00 00 80	 and	 eax, -2147483645	; 80000003H
  00177	79 05		 jns	 SHORT $LN794@LoadProper
  00179	48		 dec	 eax
  0017a	83 c8 fc	 or	 eax, -4			; fffffffcH
  0017d	40		 inc	 eax
$LN794@LoadProper:
  0017e	b1 ed		 mov	 cl, -19			; ffffffedH
  00180	2a c8		 sub	 cl, al
  00182	30 4c 3d dc	 xor	 BYTE PTR __k$541068[ebp+edi], cl
  00186	47		 inc	 edi
  00187	83 ff 0e	 cmp	 edi, 14			; 0000000eH
  0018a	7c e4		 jl	 SHORT $LL422@LoadProper
  0018c	0f 57 c0	 xorps	 xmm0, xmm0
  0018f	51		 push	 ecx
  00190	8b 8d b4 fd ff
	ff		 mov	 ecx, DWORD PTR _rkLoader$GSCopy$[ebp]
  00196	8d 45 dc	 lea	 eax, DWORD PTR __k$541068[ebp]
  00199	f3 0f 11 04 24	 movss	 DWORD PTR [esp], xmm0
  0019e	50		 push	 eax
  0019f	ff 15 00 00 00
	00		 call	 DWORD PTR __imp_?LoadFloat@ioINILoader@@QAEMPBDM@Z
  001a5	d9 9d b0 fd ff
	ff		 fstp	 DWORD PTR _value$541168[ebp]
  001ab	8d 85 b0 fd ff
	ff		 lea	 eax, DWORD PTR _value$541168[ebp]
  001b1	50		 push	 eax
  001b2	8d 8e 34 09 00
	00		 lea	 ecx, DWORD PTR [esi+2356]
  001b8	e8 00 00 00 00	 call	 ?EncryptValueToPool@?$CEncrypt@M@@AAEXPBD@Z ; CEncrypt<float>::EncryptValueToPool
  001bd	6a 03		 push	 3

; 69   : 	m_fStartOffset_z = rkLoader.LoadFloat_e( "start_offset_z", 0.0f );

  001bf	c7 45 dc 9e 98
	8a 98		 mov	 DWORD PTR __k$541198[ebp], -1735747426 ; 988a989eH
  001c6	c7 45 e0 99 b3
	84 8c		 mov	 DWORD PTR __k$541198[ebp+4], -1937460327 ; 8c84b399H
  001cd	c7 45 e4 8b 9f
	8e 9e		 mov	 DWORD PTR __k$541198[ebp+8], -1634820213 ; 9e8e9f8bH
  001d4	66 c7 45 e8 b2
	96		 mov	 WORD PTR __k$541198[ebp+12], 38578 ; 000096b2H
  001da	8d 45 dc	 lea	 eax, DWORD PTR __k$541198[ebp]
  001dd	88 5d ea	 mov	 BYTE PTR __k$541198[ebp+14], bl
  001e0	59		 pop	 ecx
$LL533@LoadProper:
  001e1	81 30 ed ec eb
	ea		 xor	 DWORD PTR [eax], -353637139 ; eaebecedH
  001e7	83 c0 04	 add	 eax, 4
  001ea	49		 dec	 ecx
  001eb	75 f4		 jne	 SHORT $LL533@LoadProper
  001ed	6a 0c		 push	 12			; 0000000cH
  001ef	5f		 pop	 edi
$LL530@LoadProper:
  001f0	8b c7		 mov	 eax, edi
  001f2	25 03 00 00 80	 and	 eax, -2147483645	; 80000003H
  001f7	79 05		 jns	 SHORT $LN795@LoadProper
  001f9	48		 dec	 eax
  001fa	83 c8 fc	 or	 eax, -4			; fffffffcH
  001fd	40		 inc	 eax
$LN795@LoadProper:
  001fe	b1 ed		 mov	 cl, -19			; ffffffedH
  00200	2a c8		 sub	 cl, al
  00202	30 4c 3d dc	 xor	 BYTE PTR __k$541198[ebp+edi], cl
  00206	47		 inc	 edi
  00207	83 ff 0e	 cmp	 edi, 14			; 0000000eH
  0020a	7c e4		 jl	 SHORT $LL530@LoadProper
  0020c	0f 57 c0	 xorps	 xmm0, xmm0
  0020f	51		 push	 ecx
  00210	8b 8d b4 fd ff
	ff		 mov	 ecx, DWORD PTR _rkLoader$GSCopy$[ebp]
  00216	8d 45 dc	 lea	 eax, DWORD PTR __k$541198[ebp]
  00219	f3 0f 11 04 24	 movss	 DWORD PTR [esp], xmm0
  0021e	50		 push	 eax
  0021f	ff 15 00 00 00
	00		 call	 DWORD PTR __imp_?LoadFloat@ioINILoader@@QAEMPBDM@Z
  00225	d9 9d b0 fd ff
	ff		 fstp	 DWORD PTR _value$541298[ebp]
  0022b	8d 85 b0 fd ff
	ff		 lea	 eax, DWORD PTR _value$541298[ebp]
  00231	50		 push	 eax
  00232	8d 8e 64 09 00
	00		 lea	 ecx, DWORD PTR [esi+2404]
  00238	e8 00 00 00 00	 call	 ?EncryptValueToPool@?$CEncrypt@M@@AAEXPBD@Z ; CEncrypt<float>::EncryptValueToPool
  0023d	6a 02		 push	 2

; 70   : 
; 71   : 	rkLoader.LoadString_e( "boom_effect", "", szBuf, MAX_PATH );

  0023f	c7 45 e0 8f 83
	84 87		 mov	 DWORD PTR __k$541328[ebp], -2021358705 ; 8784838fH
  00246	c7 45 e4 b2 89
	8d 8c		 mov	 DWORD PTR __k$541328[ebp+4], -1936881230 ; 8c8d89b2H
  0024d	8d 45 e0	 lea	 eax, DWORD PTR __k$541328[ebp]
  00250	c7 45 e8 88 8f
	9f 00		 mov	 DWORD PTR __k$541328[ebp+8], 10456968 ; 009f8f88H
  00257	59		 pop	 ecx
$LL641@LoadProper:
  00258	81 30 ed ec eb
	ea		 xor	 DWORD PTR [eax], -353637139 ; eaebecedH
  0025e	83 c0 04	 add	 eax, 4
  00261	49		 dec	 ecx
  00262	75 f4		 jne	 SHORT $LL641@LoadProper
  00264	6a 08		 push	 8
  00266	5f		 pop	 edi
$LL638@LoadProper:
  00267	8b c7		 mov	 eax, edi
  00269	25 03 00 00 80	 and	 eax, -2147483645	; 80000003H
  0026e	79 05		 jns	 SHORT $LN796@LoadProper
  00270	48		 dec	 eax
  00271	83 c8 fc	 or	 eax, -4			; fffffffcH
  00274	40		 inc	 eax
$LN796@LoadProper:
  00275	b1 ed		 mov	 cl, -19			; ffffffedH
  00277	2a c8		 sub	 cl, al
  00279	30 4c 3d e0	 xor	 BYTE PTR __k$541328[ebp+edi], cl
  0027d	47		 inc	 edi
  0027e	83 ff 0b	 cmp	 edi, 11			; 0000000bH
  00281	7c e4		 jl	 SHORT $LL638@LoadProper
  00283	8b 8d b4 fd ff
	ff		 mov	 ecx, DWORD PTR _rkLoader$GSCopy$[ebp]
  00289	8b 3d 00 00 00
	00		 mov	 edi, DWORD PTR __imp_?LoadStringA@ioINILoader@@QAEXPBD0PADH@Z
  0028f	68 04 01 00 00	 push	 260			; 00000104H
  00294	8d 85 bc fe ff
	ff		 lea	 eax, DWORD PTR _szBuf$[ebp]
  0029a	50		 push	 eax
  0029b	68 00 00 00 00	 push	 OFFSET ??_C@_00CNPNBAHC@?$AA@
  002a0	8d 45 e0	 lea	 eax, DWORD PTR __k$541328[ebp]
  002a3	50		 push	 eax
  002a4	ff d7		 call	 edi

; 72   : 	m_BoomEffect = szBuf;

  002a6	8d 85 bc fe ff
	ff		 lea	 eax, DWORD PTR _szBuf$[ebp]
  002ac	50		 push	 eax
  002ad	8d 8e dc 08 00
	00		 lea	 ecx, DWORD PTR [esi+2268]
  002b3	ff 15 00 00 00
	00		 call	 DWORD PTR __imp_??4ioHashString@@QAEAAV0@PBD@Z
  002b9	6a 04		 push	 4

; 73   : 
; 74   : 	//
; 75   : 	int iCount = rkLoader.LoadInt_e( "first_col_buff_cnt", 0 );

  002bb	c7 45 d8 8b 85
	99 99		 mov	 DWORD PTR __k$541491[ebp], -1717992053 ; 9999858bH
  002c2	c7 45 dc 99 b3
	88 85		 mov	 DWORD PTR __k$541491[ebp+4], -2054638695 ; 8588b399H
  002c9	c7 45 e0 81 b3
	89 9f		 mov	 DWORD PTR __k$541491[ebp+8], -1618365567 ; 9f89b381H
  002d0	c7 45 e4 8b 8a
	b4 89		 mov	 DWORD PTR __k$541491[ebp+12], -1984656757 ; 89b48a8bH
  002d7	66 c7 45 e8 83
	98		 mov	 WORD PTR __k$541491[ebp+16], 39043 ; 00009883H
  002dd	8d 45 d8	 lea	 eax, DWORD PTR __k$541491[ebp]
  002e0	88 5d ea	 mov	 BYTE PTR __k$541491[ebp+18], bl
  002e3	59		 pop	 ecx
$LL747@LoadProper:
  002e4	81 30 ed ec eb
	ea		 xor	 DWORD PTR [eax], -353637139 ; eaebecedH
  002ea	83 c0 04	 add	 eax, 4
  002ed	49		 dec	 ecx
  002ee	75 f4		 jne	 SHORT $LL747@LoadProper
  002f0	6a 10		 push	 16			; 00000010H
  002f2	58		 pop	 eax
$LL744@LoadProper:
  002f3	8b c8		 mov	 ecx, eax
  002f5	81 e1 03 00 00
	80		 and	 ecx, -2147483645	; 80000003H
  002fb	79 05		 jns	 SHORT $LN797@LoadProper
  002fd	49		 dec	 ecx
  002fe	83 c9 fc	 or	 ecx, -4			; fffffffcH
  00301	41		 inc	 ecx
$LN797@LoadProper:
  00302	b2 ed		 mov	 dl, -19			; ffffffedH
  00304	2a d1		 sub	 dl, cl
  00306	30 54 05 d8	 xor	 BYTE PTR __k$541491[ebp+eax], dl
  0030a	40		 inc	 eax
  0030b	83 f8 12	 cmp	 eax, 18			; 00000012H
  0030e	7c e3		 jl	 SHORT $LL744@LoadProper
  00310	8b 8d b4 fd ff
	ff		 mov	 ecx, DWORD PTR _rkLoader$GSCopy$[ebp]
  00316	53		 push	 ebx
  00317	8d 45 d8	 lea	 eax, DWORD PTR __k$541491[ebp]
  0031a	50		 push	 eax
  0031b	ff 15 00 00 00
	00		 call	 DWORD PTR __imp_?LoadInt@ioINILoader@@QAEHPBDH@Z

; 76   : 	m_FirstColBuffList.reserve( iCount );

  00321	8d 8e a4 09 00
	00		 lea	 ecx, DWORD PTR [esi+2468]
  00327	50		 push	 eax
  00328	89 85 b0 fd ff
	ff		 mov	 DWORD PTR _iCount$[ebp], eax
  0032e	e8 00 00 00 00	 call	 ?reserve@?$vector@UBuffInfoStruct@@V?$allocator@UBuffInfoStruct@@@std@@@std@@QAEXI@Z ; std::vector<BuffInfoStruct,std::allocator<BuffInfoStruct> >::reserve

; 77   : 
; 78   : 	for( int i=0; i<iCount; i++ )

  00333	33 c9		 xor	 ecx, ecx
  00335	39 9d b0 fd ff
	ff		 cmp	 DWORD PTR _iCount$[ebp], ebx
  0033b	0f 8e f1 00 00
	00		 jle	 $LN102@LoadProper
$LL104@LoadProper:

; 73   : 
; 74   : 	//
; 75   : 	int iCount = rkLoader.LoadInt_e( "first_col_buff_cnt", 0 );

  00341	6a 04		 push	 4

; 79   : 	{
; 80   : 		wsprintf_e( szKey, "first_col_buff%d", i+1 );

  00343	c7 45 c0 8b 85
	99 99		 mov	 DWORD PTR ___encStr$530953[ebp], -1717992053 ; 9999858bH
  0034a	c7 45 c4 99 b3
	88 85		 mov	 DWORD PTR ___encStr$530953[ebp+4], -2054638695 ; 8588b399H
  00351	c7 45 c8 81 b3
	89 9f		 mov	 DWORD PTR ___encStr$530953[ebp+8], -1618365567 ; 9f89b381H
  00358	c7 45 cc 8b 8a
	ce 8e		 mov	 DWORD PTR ___encStr$530953[ebp+12], -1899066741 ; 8ece8a8bH
  0035f	8d 45 c0	 lea	 eax, DWORD PTR ___encStr$530953[ebp]
  00362	88 5d d0	 mov	 BYTE PTR ___encStr$530953[ebp+16], bl
  00365	5a		 pop	 edx
$LL755@LoadProper:
  00366	81 30 ed ec eb
	ea		 xor	 DWORD PTR [eax], -353637139 ; eaebecedH
  0036c	83 c0 04	 add	 eax, 4
  0036f	4a		 dec	 edx
  00370	75 f4		 jne	 SHORT $LL755@LoadProper
  00372	8d 41 01	 lea	 eax, DWORD PTR [ecx+1]
  00375	50		 push	 eax
  00376	89 85 ac fd ff
	ff		 mov	 DWORD PTR tv5464[ebp], eax
  0037c	8d 45 c0	 lea	 eax, DWORD PTR ___encStr$530953[ebp]
  0037f	50		 push	 eax
  00380	8d 85 b8 fd ff
	ff		 lea	 eax, DWORD PTR _szKey$[ebp]
  00386	50		 push	 eax
  00387	ff 15 00 00 00
	00		 call	 DWORD PTR __imp__wsprintfA

; 81   : 		rkLoader.LoadString( szKey, "", szBuf, MAX_PATH );

  0038d	8b 8d b4 fd ff
	ff		 mov	 ecx, DWORD PTR _rkLoader$GSCopy$[ebp]
  00393	83 c4 0c	 add	 esp, 12			; 0000000cH
  00396	68 04 01 00 00	 push	 260			; 00000104H
  0039b	8d 85 bc fe ff
	ff		 lea	 eax, DWORD PTR _szBuf$[ebp]
  003a1	50		 push	 eax
  003a2	68 00 00 00 00	 push	 OFFSET ??_C@_00CNPNBAHC@?$AA@
  003a7	8d 85 b8 fd ff
	ff		 lea	 eax, DWORD PTR _szKey$[ebp]
  003ad	50		 push	 eax
  003ae	ff d7		 call	 edi

; 82   : 
; 83   : 		ioBuffInfo tBuffInfo;

  003b0	8d 8d 98 fd ff
	ff		 lea	 ecx, DWORD PTR _tBuffInfo$531103[ebp]
  003b6	e8 00 00 00 00	 call	 ??0BuffInfoStruct@@QAE@XZ ; BuffInfoStruct::BuffInfoStruct

; 84   : 		tBuffInfo.m_BuffName = szBuf;

  003bb	8d 85 bc fe ff
	ff		 lea	 eax, DWORD PTR _szBuf$[ebp]
  003c1	50		 push	 eax
  003c2	8d 8d 98 fd ff
	ff		 lea	 ecx, DWORD PTR _tBuffInfo$531103[ebp]
  003c8	89 5d fc	 mov	 DWORD PTR __$EHRec$[ebp+8], ebx
  003cb	ff 15 00 00 00
	00		 call	 DWORD PTR __imp_??4ioHashString@@QAEAAV0@PBD@Z

; 85   : 
; 86   : 		if( !tBuffInfo.m_BuffName.IsEmpty() )

  003d1	8d 8d 98 fd ff
	ff		 lea	 ecx, DWORD PTR _tBuffInfo$531103[ebp]
  003d7	ff 15 00 00 00
	00		 call	 DWORD PTR __imp_?IsEmpty@ioHashString@@QBE_NXZ
  003dd	84 c0		 test	 al, al
  003df	75 2f		 jne	 SHORT $LN1@LoadProper

; 87   : 		{
; 88   : 			tBuffInfo.m_iBuffType = g_BuffMaker.GetBuffType( tBuffInfo.m_BuffName );

  003e1	8d 85 98 fd ff
	ff		 lea	 eax, DWORD PTR _tBuffInfo$531103[ebp]
  003e7	50		 push	 eax
  003e8	e8 00 00 00 00	 call	 ?GetSingleton@ioBuffMaker@@SAAAV1@XZ ; ioBuffMaker::GetSingleton
  003ed	8b c8		 mov	 ecx, eax
  003ef	e8 00 00 00 00	 call	 ?GetBuffType@ioBuffMaker@@QBEHABVioHashString@@@Z ; ioBuffMaker::GetBuffType
  003f4	89 85 a8 fd ff
	ff		 mov	 DWORD PTR _tBuffInfo$531103[ebp+16], eax

; 89   : 			if( tBuffInfo.m_iBuffType != BT_NONE )

  003fa	3b c3		 cmp	 eax, ebx
  003fc	74 12		 je	 SHORT $LN1@LoadProper

; 90   : 			{
; 91   : 				m_FirstColBuffList.push_back( tBuffInfo );

  003fe	8d 85 98 fd ff
	ff		 lea	 eax, DWORD PTR _tBuffInfo$531103[ebp]
  00404	50		 push	 eax
  00405	8d 8e a4 09 00
	00		 lea	 ecx, DWORD PTR [esi+2468]
  0040b	e8 00 00 00 00	 call	 ?push_back@?$vector@UBuffInfoStruct@@V?$allocator@UBuffInfoStruct@@@std@@@std@@QAEXABUBuffInfoStruct@@@Z ; std::vector<BuffInfoStruct,std::allocator<BuffInfoStruct> >::push_back
$LN1@LoadProper:

; 92   : 			}
; 93   : 		}
; 94   : 	}

  00410	83 4d fc ff	 or	 DWORD PTR __$EHRec$[ebp+8], -1
  00414	8d 8d 98 fd ff
	ff		 lea	 ecx, DWORD PTR _tBuffInfo$531103[ebp]
  0041a	ff 15 00 00 00
	00		 call	 DWORD PTR __imp_??1ioHashString@@QAE@XZ
  00420	8b 8d ac fd ff
	ff		 mov	 ecx, DWORD PTR tv5464[ebp]
  00426	3b 8d b0 fd ff
	ff		 cmp	 ecx, DWORD PTR _iCount$[ebp]
  0042c	0f 8c 0f ff ff
	ff		 jl	 $LL104@LoadProper
$LN102@LoadProper:

; 95   : 
; 96   : 	LoadCallAttribute(  rkLoader );

  00432	ff b5 b4 fd ff
	ff		 push	 DWORD PTR _rkLoader$GSCopy$[ebp]
  00438	8b ce		 mov	 ecx, esi
  0043a	e8 00 00 00 00	 call	 ?LoadCallAttribute@ioAdhesiveMissileWeapon3@@QAEXAAVioINILoader@@@Z ; ioAdhesiveMissileWeapon3::LoadCallAttribute

; 97   : 	LoadCallAttributeFireDirectionList( rkLoader );

  0043f	ff b5 b4 fd ff
	ff		 push	 DWORD PTR _rkLoader$GSCopy$[ebp]
  00445	8b ce		 mov	 ecx, esi
  00447	e8 00 00 00 00	 call	 ?LoadCallAttributeFireDirectionList@ioAdhesiveMissileWeapon3@@QAEXAAVioINILoader@@@Z ; ioAdhesiveMissileWeapon3::LoadCallAttributeFireDirectionList

; 98   : }

  0044c	e8 00 00 00 00	 call	 __EH_epilog3_GS
  00451	c2 04 00	 ret	 4
_TEXT	ENDS
;	COMDAT text$x
text$x	SEGMENT
__unwindfunclet$?LoadProperty@ioAdhesiveMissileWeapon3@@UAEXAAVioINILoader@@@Z$0:
  00000	8d 8d 98 fd ff
	ff		 lea	 ecx, DWORD PTR _tBuffInfo$531103[ebp]
  00006	e9 00 00 00 00	 jmp	 ??1BuffInfoStruct@@QAE@XZ
__ehhandler$?LoadProperty@ioAdhesiveMissileWeapon3@@UAEXAAVioINILoader@@@Z:
  0000b	8b 54 24 08	 mov	 edx, DWORD PTR [esp+8]
  0000f	8d 42 0c	 lea	 eax, DWORD PTR [edx+12]
  00012	8b 8a 94 fd ff
	ff		 mov	 ecx, DWORD PTR [edx-620]
  00018	33 c8		 xor	 ecx, eax
  0001a	e8 00 00 00 00	 call	 @__security_check_cookie@4
  0001f	8b 4a fc	 mov	 ecx, DWORD PTR [edx-4]
  00022	33 c8		 xor	 ecx, eax
  00024	e8 00 00 00 00	 call	 @__security_check_cookie@4
  00029	b8 00 00 00 00	 mov	 eax, OFFSET __ehfuncinfo$?LoadProperty@ioAdhesiveMissileWeapon3@@UAEXAAVioINILoader@@@Z
  0002e	e9 00 00 00 00	 jmp	 ___CxxFrameHandler3
text$x	ENDS
?LoadProperty@ioAdhesiveMissileWeapon3@@UAEXAAVioINILoader@@@Z ENDP ; ioAdhesiveMissileWeapon3::LoadProperty
END
