; Listing generated by Microsoft (R) Optimizing Compiler Version 16.00.30319.01 

	TITLE	D:\Lost Saga For Developer\Youtube\Tutorial\Source\src\LSClient\ioAdhesiveMissileWeapon4.cpp
	.686P
	.XMM
	include listing.inc
	.model	flat

INCLUDELIB MSVCRT
INCLUDELIB OLDNAMES

PUBLIC	?_EEM_DS@?$deque@UD3DXVECTOR3@@V?$allocator@UD3DXVECTOR3@@@std@@@std@@2HB ; std::deque<D3DXVECTOR3,std::allocator<D3DXVECTOR3> >::_EEM_DS
PUBLIC	?m_ActionStopType@ioAdhesiveMissileWeapon4@@2W4ActionStopType@@A ; ioAdhesiveMissileWeapon4::m_ActionStopType
PUBLIC	?m_DieActionStopType@ioAdhesiveMissileWeapon4@@2W4ActionStopType@@A ; ioAdhesiveMissileWeapon4::m_DieActionStopType
_BSS	SEGMENT
?m_ActionStopType@ioAdhesiveMissileWeapon4@@2W4ActionStopType@@A DD 01H DUP (?) ; ioAdhesiveMissileWeapon4::m_ActionStopType
?m_DieActionStopType@ioAdhesiveMissileWeapon4@@2W4ActionStopType@@A DD 01H DUP (?) ; ioAdhesiveMissileWeapon4::m_DieActionStopType
_BSS	ENDS
;	COMDAT ?_EEM_DS@?$deque@UD3DXVECTOR3@@V?$allocator@UD3DXVECTOR3@@@std@@@std@@2HB
CONST	SEGMENT
?_EEM_DS@?$deque@UD3DXVECTOR3@@V?$allocator@UD3DXVECTOR3@@@std@@@std@@2HB DD 01H ; std::deque<D3DXVECTOR3,std::allocator<D3DXVECTOR3> >::_EEM_DS
CONST	ENDS
PUBLIC	?return1@@YAIXZ					; return1
; Function compile flags: /Ogsp
; File d:\lost saga for developer\youtube\tutorial\source\src\lsclient\stdafx.h
;	COMDAT ?return1@@YAIXZ
_TEXT	SEGMENT
?return1@@YAIXZ PROC					; return1, COMDAT

; 17   : 	__forceinline unsigned int return1() { __asm mov eax, 1 };

  00000	b8 01 00 00 00	 mov	 eax, 1
  00005	c3		 ret	 0
?return1@@YAIXZ ENDP					; return1
_TEXT	ENDS
PUBLIC	?return5@@YAIXZ					; return5
; Function compile flags: /Ogsp
;	COMDAT ?return5@@YAIXZ
_TEXT	SEGMENT
?return5@@YAIXZ PROC					; return5, COMDAT

; 18   : 	__forceinline unsigned int return5() { __asm mov eax, 5 };

  00000	b8 05 00 00 00	 mov	 eax, 5
  00005	c3		 ret	 0
?return5@@YAIXZ ENDP					; return5
_TEXT	ENDS
PUBLIC	?return10@@YAIXZ				; return10
; Function compile flags: /Ogsp
;	COMDAT ?return10@@YAIXZ
_TEXT	SEGMENT
?return10@@YAIXZ PROC					; return10, COMDAT

; 21   : 	__forceinline unsigned int return10() { __asm mov eax, 10 };

  00000	b8 0a 00 00 00	 mov	 eax, 10			; 0000000aH
  00005	c3		 ret	 0
?return10@@YAIXZ ENDP					; return10
_TEXT	ENDS
PUBLIC	?return90@@YAIXZ				; return90
; Function compile flags: /Ogsp
;	COMDAT ?return90@@YAIXZ
_TEXT	SEGMENT
?return90@@YAIXZ PROC					; return90, COMDAT

; 24   : 	__forceinline unsigned int return90() { __asm mov eax, 90 };

  00000	b8 5a 00 00 00	 mov	 eax, 90			; 0000005aH
  00005	c3		 ret	 0
?return90@@YAIXZ ENDP					; return90
_TEXT	ENDS
PUBLIC	?return1000@@YAIXZ				; return1000
; Function compile flags: /Ogsp
;	COMDAT ?return1000@@YAIXZ
_TEXT	SEGMENT
?return1000@@YAIXZ PROC					; return1000, COMDAT

; 29   : 	__forceinline unsigned int return1000() { __asm mov eax, 1000 };

  00000	b8 e8 03 00 00	 mov	 eax, 1000		; 000003e8H
  00005	c3		 ret	 0
?return1000@@YAIXZ ENDP					; return1000
_TEXT	ENDS
PUBLIC	?GetState@ioBaseChar@@QBE?AW4CharState@@XZ	; ioBaseChar::GetState
; Function compile flags: /Ogsp
; File d:\lost saga for developer\youtube\tutorial\source\src\lsclient\iobasechar.h
;	COMDAT ?GetState@ioBaseChar@@QBE?AW4CharState@@XZ
_TEXT	SEGMENT
?GetState@ioBaseChar@@QBE?AW4CharState@@XZ PROC		; ioBaseChar::GetState, COMDAT
; _this$ = ecx

; 2156 : 	inline CharState GetState() const { return m_CharState; }	

  00000	8a 81 10 03 00
	00		 mov	 al, BYTE PTR [ecx+784]
  00006	c3		 ret	 0
?GetState@ioBaseChar@@QBE?AW4CharState@@XZ ENDP		; ioBaseChar::GetState
_TEXT	ENDS
PUBLIC	?GetCharName@ioBaseChar@@QBEABVioHashString@@XZ	; ioBaseChar::GetCharName
; Function compile flags: /Ogsp
;	COMDAT ?GetCharName@ioBaseChar@@QBEABVioHashString@@XZ
_TEXT	SEGMENT
?GetCharName@ioBaseChar@@QBEABVioHashString@@XZ PROC	; ioBaseChar::GetCharName, COMDAT
; _this$ = ecx

; 2594 : 	inline const ioHashString& GetCharName() const { return m_Name; }

  00000	8d 81 d4 02 00
	00		 lea	 eax, DWORD PTR [ecx+724]
  00006	c3		 ret	 0
?GetCharName@ioBaseChar@@QBEABVioHashString@@XZ ENDP	; ioBaseChar::GetCharName
_TEXT	ENDS
PUBLIC	?GetMoveDir@ioBaseChar@@QBEABUD3DXVECTOR3@@XZ	; ioBaseChar::GetMoveDir
; Function compile flags: /Ogsp
;	COMDAT ?GetMoveDir@ioBaseChar@@QBEABUD3DXVECTOR3@@XZ
_TEXT	SEGMENT
?GetMoveDir@ioBaseChar@@QBEABUD3DXVECTOR3@@XZ PROC	; ioBaseChar::GetMoveDir, COMDAT
; _this$ = ecx

; 2596 : 	inline const D3DXVECTOR3& GetMoveDir() const { return m_vMoveDir; }

  00000	8d 81 b4 06 00
	00		 lea	 eax, DWORD PTR [ecx+1716]
  00006	c3		 ret	 0
?GetMoveDir@ioBaseChar@@QBEABUD3DXVECTOR3@@XZ ENDP	; ioBaseChar::GetMoveDir
_TEXT	ENDS
PUBLIC	?GetTargetRot@ioBaseChar@@QBEABUD3DXQUATERNION@@XZ ; ioBaseChar::GetTargetRot
; Function compile flags: /Ogsp
;	COMDAT ?GetTargetRot@ioBaseChar@@QBEABUD3DXQUATERNION@@XZ
_TEXT	SEGMENT
?GetTargetRot@ioBaseChar@@QBEABUD3DXQUATERNION@@XZ PROC	; ioBaseChar::GetTargetRot, COMDAT
; _this$ = ecx

; 2599 : 	inline const D3DXQUATERNION& GetTargetRot() const { return m_qtTargetRot; }

  00000	8d 81 a4 06 00
	00		 lea	 eax, DWORD PTR [ecx+1700]
  00006	c3		 ret	 0
?GetTargetRot@ioBaseChar@@QBEABUD3DXQUATERNION@@XZ ENDP	; ioBaseChar::GetTargetRot
_TEXT	ENDS
PUBLIC	_acosf
EXTRN	__fltused:DWORD
EXTRN	__CIacos:PROC
; Function compile flags: /Ogsp
; File c:\program files (x86)\microsoft visual studio 10.0\vc\include\math.h
;	COMDAT _acosf
_TEXT	SEGMENT
tv69 = 8						; size = 4
__X$ = 8						; size = 4
_acosf	PROC						; COMDAT

; 400  :         {return ((float)acos((double)_X)); }

  00000	55		 push	 ebp
  00001	8b ec		 mov	 ebp, esp
  00003	d9 45 08	 fld	 DWORD PTR __X$[ebp]
  00006	e8 00 00 00 00	 call	 __CIacos
  0000b	d9 5d 08	 fstp	 DWORD PTR tv69[ebp]
  0000e	d9 45 08	 fld	 DWORD PTR tv69[ebp]
  00011	5d		 pop	 ebp
  00012	c3		 ret	 0
_acosf	ENDP
_TEXT	ENDS
PUBLIC	_cosf
EXTRN	__CIcos:PROC
; Function compile flags: /Ogsp
;	COMDAT _cosf
_TEXT	SEGMENT
tv69 = 8						; size = 4
__X$ = 8						; size = 4
_cosf	PROC						; COMDAT

; 410  :         {return ((float)cos((double)_X)); }

  00000	55		 push	 ebp
  00001	8b ec		 mov	 ebp, esp
  00003	d9 45 08	 fld	 DWORD PTR __X$[ebp]
  00006	e8 00 00 00 00	 call	 __CIcos
  0000b	d9 5d 08	 fstp	 DWORD PTR tv69[ebp]
  0000e	d9 45 08	 fld	 DWORD PTR tv69[ebp]
  00011	5d		 pop	 ebp
  00012	c3		 ret	 0
_cosf	ENDP
_TEXT	ENDS
PUBLIC	?GetCurAttackedSide@ioBaseChar@@QBE?AW4AttackSide@@XZ ; ioBaseChar::GetCurAttackedSide
; Function compile flags: /Ogsp
; File d:\lost saga for developer\youtube\tutorial\source\src\lsclient\iobasechar.h
;	COMDAT ?GetCurAttackedSide@ioBaseChar@@QBE?AW4AttackSide@@XZ
_TEXT	SEGMENT
?GetCurAttackedSide@ioBaseChar@@QBE?AW4AttackSide@@XZ PROC ; ioBaseChar::GetCurAttackedSide, COMDAT
; _this$ = ecx

; 2645 : 	inline AttackSide GetCurAttackedSide() const { return m_AttackedSide; }

  00000	8b 81 d4 0e 00
	00		 mov	 eax, DWORD PTR [ecx+3796]
  00006	c3		 ret	 0
?GetCurAttackedSide@ioBaseChar@@QBE?AW4AttackSide@@XZ ENDP ; ioBaseChar::GetCurAttackedSide
_TEXT	ENDS
PUBLIC	_sqrtf
EXTRN	__CIsqrt:PROC
; Function compile flags: /Ogsp
; File c:\program files (x86)\microsoft visual studio 10.0\vc\include\math.h
;	COMDAT _sqrtf
_TEXT	SEGMENT
tv69 = 8						; size = 4
__X$ = 8						; size = 4
_sqrtf	PROC						; COMDAT

; 434  :         {return ((float)sqrt((double)_X)); }

  00000	55		 push	 ebp
  00001	8b ec		 mov	 ebp, esp
  00003	d9 45 08	 fld	 DWORD PTR __X$[ebp]
  00006	e8 00 00 00 00	 call	 __CIsqrt
  0000b	d9 5d 08	 fstp	 DWORD PTR tv69[ebp]
  0000e	d9 45 08	 fld	 DWORD PTR tv69[ebp]
  00011	5d		 pop	 ebp
  00012	c3		 ret	 0
_sqrtf	ENDP
_TEXT	ENDS
PUBLIC	?GetRandomSeed@ioBaseChar@@QBEKXZ		; ioBaseChar::GetRandomSeed
; Function compile flags: /Ogsp
; File d:\lost saga for developer\youtube\tutorial\source\src\lsclient\iobasechar.h
;	COMDAT ?GetRandomSeed@ioBaseChar@@QBEKXZ
_TEXT	SEGMENT
?GetRandomSeed@ioBaseChar@@QBEKXZ PROC			; ioBaseChar::GetRandomSeed, COMDAT
; _this$ = ecx

; 3372 : 	inline DWORD GetRandomSeed() const { return m_dwRandomSeed; }

  00000	8b 81 74 16 00
	00		 mov	 eax, DWORD PTR [ecx+5748]
  00006	c3		 ret	 0
?GetRandomSeed@ioBaseChar@@QBEKXZ ENDP			; ioBaseChar::GetRandomSeed
_TEXT	ENDS
PUBLIC	??_7bad_alloc@std@@6B@				; std::bad_alloc::`vftable'
PUBLIC	??0bad_alloc@std@@QAE@PBD@Z			; std::bad_alloc::bad_alloc
PUBLIC	??_R4bad_alloc@std@@6B@				; std::bad_alloc::`RTTI Complete Object Locator'
PUBLIC	??_R0?AVbad_alloc@std@@@8			; std::bad_alloc `RTTI Type Descriptor'
PUBLIC	??_R3bad_alloc@std@@8				; std::bad_alloc::`RTTI Class Hierarchy Descriptor'
PUBLIC	??_R2bad_alloc@std@@8				; std::bad_alloc::`RTTI Base Class Array'
PUBLIC	??_R1A@?0A@EA@bad_alloc@std@@8			; std::bad_alloc::`RTTI Base Class Descriptor at (0,-1,0,64)'
PUBLIC	??_R1A@?0A@EA@exception@std@@8			; std::exception::`RTTI Base Class Descriptor at (0,-1,0,64)'
PUBLIC	??_R0?AVexception@std@@@8			; std::exception `RTTI Type Descriptor'
PUBLIC	??_R3exception@std@@8				; std::exception::`RTTI Class Hierarchy Descriptor'
PUBLIC	??_R2exception@std@@8				; std::exception::`RTTI Base Class Array'
EXTRN	__imp_??0exception@std@@QAE@ABQBD@Z:PROC
EXTRN	??_7type_info@@6B@:QWORD			; type_info::`vftable'
EXTRN	??_Ebad_alloc@std@@UAEPAXI@Z:PROC		; std::bad_alloc::`vector deleting destructor'
EXTRN	?what@exception@std@@UBEPBDXZ:PROC		; std::exception::what
;	COMDAT ??_R2exception@std@@8
; File c:\program files (x86)\microsoft visual studio 10.0\vc\include\exception
rdata$r	SEGMENT
??_R2exception@std@@8 DD FLAT:??_R1A@?0A@EA@exception@std@@8 ; std::exception::`RTTI Base Class Array'
rdata$r	ENDS
;	COMDAT ??_R3exception@std@@8
rdata$r	SEGMENT
??_R3exception@std@@8 DD 00H				; std::exception::`RTTI Class Hierarchy Descriptor'
	DD	00H
	DD	01H
	DD	FLAT:??_R2exception@std@@8
rdata$r	ENDS
;	COMDAT ??_R0?AVexception@std@@@8
_DATA	SEGMENT
??_R0?AVexception@std@@@8 DD FLAT:??_7type_info@@6B@	; std::exception `RTTI Type Descriptor'
	DD	00H
	DB	'.?AVexception@std@@', 00H
_DATA	ENDS
;	COMDAT ??_R1A@?0A@EA@exception@std@@8
rdata$r	SEGMENT
??_R1A@?0A@EA@exception@std@@8 DD FLAT:??_R0?AVexception@std@@@8 ; std::exception::`RTTI Base Class Descriptor at (0,-1,0,64)'
	DD	00H
	DD	00H
	DD	0ffffffffH
	DD	00H
	DD	040H
	DD	FLAT:??_R3exception@std@@8
rdata$r	ENDS
;	COMDAT ??_R1A@?0A@EA@bad_alloc@std@@8
rdata$r	SEGMENT
??_R1A@?0A@EA@bad_alloc@std@@8 DD FLAT:??_R0?AVbad_alloc@std@@@8 ; std::bad_alloc::`RTTI Base Class Descriptor at (0,-1,0,64)'
	DD	01H
	DD	00H
	DD	0ffffffffH
	DD	00H
	DD	040H
	DD	FLAT:??_R3bad_alloc@std@@8
rdata$r	ENDS
;	COMDAT ??_R2bad_alloc@std@@8
rdata$r	SEGMENT
??_R2bad_alloc@std@@8 DD FLAT:??_R1A@?0A@EA@bad_alloc@std@@8 ; std::bad_alloc::`RTTI Base Class Array'
	DD	FLAT:??_R1A@?0A@EA@exception@std@@8
rdata$r	ENDS
;	COMDAT ??_R3bad_alloc@std@@8
rdata$r	SEGMENT
??_R3bad_alloc@std@@8 DD 00H				; std::bad_alloc::`RTTI Class Hierarchy Descriptor'
	DD	00H
	DD	02H
	DD	FLAT:??_R2bad_alloc@std@@8
rdata$r	ENDS
;	COMDAT ??_R0?AVbad_alloc@std@@@8
_DATA	SEGMENT
??_R0?AVbad_alloc@std@@@8 DD FLAT:??_7type_info@@6B@	; std::bad_alloc `RTTI Type Descriptor'
	DD	00H
	DB	'.?AVbad_alloc@std@@', 00H
_DATA	ENDS
;	COMDAT ??_R4bad_alloc@std@@6B@
rdata$r	SEGMENT
??_R4bad_alloc@std@@6B@ DD 00H				; std::bad_alloc::`RTTI Complete Object Locator'
	DD	00H
	DD	00H
	DD	FLAT:??_R0?AVbad_alloc@std@@@8
	DD	FLAT:??_R3bad_alloc@std@@8
rdata$r	ENDS
;	COMDAT ??_7bad_alloc@std@@6B@
CONST	SEGMENT
??_7bad_alloc@std@@6B@ DD FLAT:??_R4bad_alloc@std@@6B@	; std::bad_alloc::`vftable'
	DD	FLAT:??_Ebad_alloc@std@@UAEPAXI@Z
	DD	FLAT:?what@exception@std@@UBEPBDXZ
; Function compile flags: /Ogsp
CONST	ENDS
;	COMDAT ??0bad_alloc@std@@QAE@PBD@Z
_TEXT	SEGMENT
__Message$ = 8						; size = 4
??0bad_alloc@std@@QAE@PBD@Z PROC			; std::bad_alloc::bad_alloc, COMDAT
; _this$ = ecx

; 345  : 		{	// construct from message string

  00000	55		 push	 ebp
  00001	8b ec		 mov	 ebp, esp
  00003	56		 push	 esi
  00004	8d 45 08	 lea	 eax, DWORD PTR __Message$[ebp]
  00007	50		 push	 eax
  00008	8b f1		 mov	 esi, ecx
  0000a	ff 15 00 00 00
	00		 call	 DWORD PTR __imp_??0exception@std@@QAE@ABQBD@Z
  00010	c7 06 00 00 00
	00		 mov	 DWORD PTR [esi], OFFSET ??_7bad_alloc@std@@6B@

; 346  : 		}

  00016	8b c6		 mov	 eax, esi
  00018	5e		 pop	 esi
  00019	5d		 pop	 ebp
  0001a	c2 04 00	 ret	 4
??0bad_alloc@std@@QAE@PBD@Z ENDP			; std::bad_alloc::bad_alloc
_TEXT	ENDS
PUBLIC	??1bad_alloc@std@@UAE@XZ			; std::bad_alloc::~bad_alloc
EXTRN	__imp_??1exception@std@@UAE@XZ:PROC
; Function compile flags: /Ogsp
;	COMDAT ??1bad_alloc@std@@UAE@XZ
_TEXT	SEGMENT
??1bad_alloc@std@@UAE@XZ PROC				; std::bad_alloc::~bad_alloc, COMDAT
; _this$ = ecx

; 354  : 		{	// destroy the object

  00000	c7 01 00 00 00
	00		 mov	 DWORD PTR [ecx], OFFSET ??_7bad_alloc@std@@6B@

; 355  : 		}

  00006	ff 25 00 00 00
	00		 jmp	 DWORD PTR __imp_??1exception@std@@UAE@XZ
??1bad_alloc@std@@UAE@XZ ENDP				; std::bad_alloc::~bad_alloc
_TEXT	ENDS
EXTRN	??3@YAXPAX@Z:PROC				; operator delete
; Function compile flags: /Ogsp
;	COMDAT ??_Gbad_alloc@std@@UAEPAXI@Z
_TEXT	SEGMENT
___flags$ = 8						; size = 4
??_Gbad_alloc@std@@UAEPAXI@Z PROC			; std::bad_alloc::`scalar deleting destructor', COMDAT
; _this$ = ecx
  00000	55		 push	 ebp
  00001	8b ec		 mov	 ebp, esp
  00003	56		 push	 esi
  00004	8b f1		 mov	 esi, ecx
  00006	c7 06 00 00 00
	00		 mov	 DWORD PTR [esi], OFFSET ??_7bad_alloc@std@@6B@
  0000c	ff 15 00 00 00
	00		 call	 DWORD PTR __imp_??1exception@std@@UAE@XZ
  00012	f6 45 08 01	 test	 BYTE PTR ___flags$[ebp], 1
  00016	74 07		 je	 SHORT $LN1@scalar
  00018	56		 push	 esi
  00019	e8 00 00 00 00	 call	 ??3@YAXPAX@Z		; operator delete
  0001e	59		 pop	 ecx
$LN1@scalar:
  0001f	8b c6		 mov	 eax, esi
  00021	5e		 pop	 esi
  00022	5d		 pop	 ebp
  00023	c2 04 00	 ret	 4
??_Gbad_alloc@std@@UAEPAXI@Z ENDP			; std::bad_alloc::`scalar deleting destructor'
_TEXT	ENDS
PUBLIC	??2@YAPAXIPAX@Z					; operator new
; Function compile flags: /Ogsp
; File c:\program files (x86)\microsoft visual studio 10.0\vc\include\new
;	COMDAT ??2@YAPAXIPAX@Z
_TEXT	SEGMENT
___formal$ = 8						; size = 4
__Where$ = 12						; size = 4
??2@YAPAXIPAX@Z PROC					; operator new, COMDAT

; 56   : 	{	// construct array with placement at _Where

  00000	55		 push	 ebp
  00001	8b ec		 mov	 ebp, esp

; 57   : 	return (_Where);

  00003	8b 45 0c	 mov	 eax, DWORD PTR __Where$[ebp]

; 58   : 	}

  00006	5d		 pop	 ebp
  00007	c3		 ret	 0
??2@YAPAXIPAX@Z ENDP					; operator new
_TEXT	ENDS
PUBLIC	??3@YAXPAX0@Z					; operator delete
; Function compile flags: /Ogsp
;	COMDAT ??3@YAXPAX0@Z
_TEXT	SEGMENT
___formal$ = 8						; size = 4
___formal$ = 12						; size = 4
??3@YAXPAX0@Z PROC					; operator delete, COMDAT

; 62   : 	}

  00000	c3		 ret	 0
??3@YAXPAX0@Z ENDP					; operator delete
_TEXT	ENDS
PUBLIC	?GetCreator@ioBaseChar@@QAEPAVioPlayStage@@XZ	; ioBaseChar::GetCreator
; Function compile flags: /Ogsp
; File d:\lost saga for developer\youtube\tutorial\source\src\lsclient\iobasechar.h
;	COMDAT ?GetCreator@ioBaseChar@@QAEPAVioPlayStage@@XZ
_TEXT	SEGMENT
?GetCreator@ioBaseChar@@QAEPAVioPlayStage@@XZ PROC	; ioBaseChar::GetCreator, COMDAT
; _this$ = ecx

; 4013 : 	inline ioPlayStage* GetCreator() { return m_pCreator; }

  00000	8b 81 44 03 00
	00		 mov	 eax, DWORD PTR [ecx+836]
  00006	c3		 ret	 0
?GetCreator@ioBaseChar@@QAEPAVioPlayStage@@XZ ENDP	; ioBaseChar::GetCreator
_TEXT	ENDS
PUBLIC	?_Adopt@_Iterator_base0@std@@QAEXPBX@Z		; std::_Iterator_base0::_Adopt
; Function compile flags: /Ogsp
; File c:\program files (x86)\microsoft visual studio 10.0\vc\include\xutility
;	COMDAT ?_Adopt@_Iterator_base0@std@@QAEXPBX@Z
_TEXT	SEGMENT
___formal$ = 8						; size = 4
?_Adopt@_Iterator_base0@std@@QAEXPBX@Z PROC		; std::_Iterator_base0::_Adopt, COMDAT
; _this$ = ecx

; 49   : 		}

  00000	c2 04 00	 ret	 4
?_Adopt@_Iterator_base0@std@@QAEXPBX@Z ENDP		; std::_Iterator_base0::_Adopt
_TEXT	ENDS
PUBLIC	?DestroyFireBall@ioAdhesiveMissileWeapon4@@IAEXXZ ; ioAdhesiveMissileWeapon4::DestroyFireBall
EXTRN	__imp_?DestroyEffect@ioEffectFactory@@QAEXPAVioEffect@@@Z:PROC
EXTRN	__imp_?GetSingleton@ioEffectFactory@@SAAAV1@XZ:PROC
; Function compile flags: /Ogsp
; File d:\lost saga for developer\youtube\tutorial\source\src\lsclient\ioadhesivemissileweapon4.cpp
;	COMDAT ?DestroyFireBall@ioAdhesiveMissileWeapon4@@IAEXXZ
_TEXT	SEGMENT
?DestroyFireBall@ioAdhesiveMissileWeapon4@@IAEXXZ PROC	; ioAdhesiveMissileWeapon4::DestroyFireBall, COMDAT
; _this$ = ecx

; 127  : {

  00000	56		 push	 esi

; 128  : 	if( m_pFireBall )

  00001	8d b1 a8 08 00
	00		 lea	 esi, DWORD PTR [ecx+2216]
  00007	8b 06		 mov	 eax, DWORD PTR [esi]
  00009	85 c0		 test	 eax, eax
  0000b	74 12		 je	 SHORT $LN1@DestroyFir

; 129  : 	{
; 130  : 		g_EffectFactory.DestroyEffect( m_pFireBall );

  0000d	50		 push	 eax
  0000e	ff 15 00 00 00
	00		 call	 DWORD PTR __imp_?GetSingleton@ioEffectFactory@@SAAAV1@XZ
  00014	8b c8		 mov	 ecx, eax
  00016	ff 15 00 00 00
	00		 call	 DWORD PTR __imp_?DestroyEffect@ioEffectFactory@@QAEXPAVioEffect@@@Z

; 131  : 		m_pFireBall = NULL;

  0001c	83 26 00	 and	 DWORD PTR [esi], 0
$LN1@DestroyFir:
  0001f	5e		 pop	 esi

; 132  : 	}
; 133  : }

  00020	c3		 ret	 0
?DestroyFireBall@ioAdhesiveMissileWeapon4@@IAEXXZ ENDP	; ioAdhesiveMissileWeapon4::DestroyFireBall
_TEXT	ENDS
PUBLIC	?GetMoveDir@ioAdhesiveMissileWeapon4@@UAE?AUD3DXVECTOR3@@XZ ; ioAdhesiveMissileWeapon4::GetMoveDir
; Function compile flags: /Ogsp
;	COMDAT ?GetMoveDir@ioAdhesiveMissileWeapon4@@UAE?AUD3DXVECTOR3@@XZ
_TEXT	SEGMENT
___$ReturnUdt$ = 8					; size = 4
?GetMoveDir@ioAdhesiveMissileWeapon4@@UAE?AUD3DXVECTOR3@@XZ PROC ; ioAdhesiveMissileWeapon4::GetMoveDir, COMDAT
; _this$ = ecx

; 145  : {

  00000	55		 push	 ebp
  00001	8b ec		 mov	 ebp, esp

; 146  : 	return m_vMoveDir;

  00003	8b 45 08	 mov	 eax, DWORD PTR ___$ReturnUdt$[ebp]
  00006	56		 push	 esi
  00007	57		 push	 edi
  00008	8d b1 00 09 00
	00		 lea	 esi, DWORD PTR [ecx+2304]
  0000e	8b f8		 mov	 edi, eax
  00010	a5		 movsd
  00011	a5		 movsd
  00012	a5		 movsd
  00013	5f		 pop	 edi
  00014	5e		 pop	 esi

; 147  : }

  00015	5d		 pop	 ebp
  00016	c2 04 00	 ret	 4
?GetMoveDir@ioAdhesiveMissileWeapon4@@UAE?AUD3DXVECTOR3@@XZ ENDP ; ioAdhesiveMissileWeapon4::GetMoveDir
_TEXT	ENDS
PUBLIC	?SetStartPosition@ioAdhesiveMissileWeapon4@@UAEXABUD3DXVECTOR3@@PAVioPlayStage@@@Z ; ioAdhesiveMissileWeapon4::SetStartPosition
; Function compile flags: /Ogsp
;	COMDAT ?SetStartPosition@ioAdhesiveMissileWeapon4@@UAEXABUD3DXVECTOR3@@PAVioPlayStage@@@Z
_TEXT	SEGMENT
_vPos$ = 8						; size = 4
_pStage$ = 12						; size = 4
?SetStartPosition@ioAdhesiveMissileWeapon4@@UAEXABUD3DXVECTOR3@@PAVioPlayStage@@@Z PROC ; ioAdhesiveMissileWeapon4::SetStartPosition, COMDAT
; _this$ = ecx

; 164  : 	return;
; 165  : }

  00000	c2 08 00	 ret	 8
?SetStartPosition@ioAdhesiveMissileWeapon4@@UAEXABUD3DXVECTOR3@@PAVioPlayStage@@@Z ENDP ; ioAdhesiveMissileWeapon4::SetStartPosition
_TEXT	ENDS
PUBLIC	??0TargetInfo@ioAdhesiveMissileWeapon4@@QAE@ABU01@@Z ; ioAdhesiveMissileWeapon4::TargetInfo::TargetInfo
EXTRN	__imp_??0ioHashString@@QAE@ABV0@@Z:PROC
; Function compile flags: /Ogsp
;	COMDAT ??0TargetInfo@ioAdhesiveMissileWeapon4@@QAE@ABU01@@Z
_TEXT	SEGMENT
___that$ = 8						; size = 4
??0TargetInfo@ioAdhesiveMissileWeapon4@@QAE@ABU01@@Z PROC ; ioAdhesiveMissileWeapon4::TargetInfo::TargetInfo, COMDAT
; _this$ = ecx
  00000	55		 push	 ebp
  00001	8b ec		 mov	 ebp, esp
  00003	56		 push	 esi
  00004	57		 push	 edi
  00005	8b 7d 08	 mov	 edi, DWORD PTR ___that$[ebp]
  00008	57		 push	 edi
  00009	8b f1		 mov	 esi, ecx
  0000b	ff 15 00 00 00
	00		 call	 DWORD PTR __imp_??0ioHashString@@QAE@ABV0@@Z
  00011	d9 47 10	 fld	 DWORD PTR [edi+16]
  00014	d9 5e 10	 fstp	 DWORD PTR [esi+16]
  00017	8b c6		 mov	 eax, esi
  00019	d9 47 14	 fld	 DWORD PTR [edi+20]
  0001c	5f		 pop	 edi
  0001d	d9 5e 14	 fstp	 DWORD PTR [esi+20]
  00020	5e		 pop	 esi
  00021	5d		 pop	 ebp
  00022	c2 04 00	 ret	 4
??0TargetInfo@ioAdhesiveMissileWeapon4@@QAE@ABU01@@Z ENDP ; ioAdhesiveMissileWeapon4::TargetInfo::TargetInfo
_TEXT	ENDS
PUBLIC	??1TargetInfo@ioAdhesiveMissileWeapon4@@QAE@XZ	; ioAdhesiveMissileWeapon4::TargetInfo::~TargetInfo
EXTRN	__imp_??1ioHashString@@QAE@XZ:PROC
; Function compile flags: /Ogsp
;	COMDAT ??1TargetInfo@ioAdhesiveMissileWeapon4@@QAE@XZ
_TEXT	SEGMENT
??1TargetInfo@ioAdhesiveMissileWeapon4@@QAE@XZ PROC	; ioAdhesiveMissileWeapon4::TargetInfo::~TargetInfo, COMDAT
; _this$ = ecx
  00000	ff 25 00 00 00
	00		 jmp	 DWORD PTR __imp_??1ioHashString@@QAE@XZ
??1TargetInfo@ioAdhesiveMissileWeapon4@@QAE@XZ ENDP	; ioAdhesiveMissileWeapon4::TargetInfo::~TargetInfo
_TEXT	ENDS
PUBLIC	?SetForceClose@ioAdhesiveMissileWeapon4@@IAEXXZ	; ioAdhesiveMissileWeapon4::SetForceClose
EXTRN	__imp_?EndEffectForce@ioEffect@@QAEXXZ:PROC
; Function compile flags: /Ogsp
;	COMDAT ?SetForceClose@ioAdhesiveMissileWeapon4@@IAEXXZ
_TEXT	SEGMENT
?SetForceClose@ioAdhesiveMissileWeapon4@@IAEXXZ PROC	; ioAdhesiveMissileWeapon4::SetForceClose, COMDAT
; _this$ = ecx

; 405  : {

  00000	56		 push	 esi
  00001	8b f1		 mov	 esi, ecx

; 406  : 	if( m_bSetGraceClose )	return;

  00003	80 be 18 09 00
	00 00		 cmp	 BYTE PTR [esi+2328], 0
  0000a	75 1e		 jne	 SHORT $LN3@SetForceCl

; 407  : 
; 408  : 	if( m_pFireBall )

  0000c	8b 8e a8 08 00
	00		 mov	 ecx, DWORD PTR [esi+2216]
  00012	85 c9		 test	 ecx, ecx
  00014	74 06		 je	 SHORT $LN1@SetForceCl

; 409  : 	{
; 410  : 		m_pFireBall->EndEffectForce();

  00016	ff 15 00 00 00
	00		 call	 DWORD PTR __imp_?EndEffectForce@ioEffect@@QAEXXZ
$LN1@SetForceCl:

; 411  : 	}
; 412  : 
; 413  : 	StopLoopSound();

  0001c	8b 06		 mov	 eax, DWORD PTR [esi]
  0001e	8b ce		 mov	 ecx, esi
  00020	ff 50 60	 call	 DWORD PTR [eax+96]

; 414  : 	m_bSetGraceClose = true;

  00023	c6 86 18 09 00
	00 01		 mov	 BYTE PTR [esi+2328], 1
$LN3@SetForceCl:
  0002a	5e		 pop	 esi

; 415  : }

  0002b	c3		 ret	 0
?SetForceClose@ioAdhesiveMissileWeapon4@@IAEXXZ ENDP	; ioAdhesiveMissileWeapon4::SetForceClose
_TEXT	ENDS
PUBLIC	?DestroyResource@ioAdhesiveMissileWeapon4@@UAEXPAVioPlayStage@@@Z ; ioAdhesiveMissileWeapon4::DestroyResource
; Function compile flags: /Ogsp
;	COMDAT ?DestroyResource@ioAdhesiveMissileWeapon4@@UAEXPAVioPlayStage@@@Z
_TEXT	SEGMENT
_pStage$ = 8						; size = 4
?DestroyResource@ioAdhesiveMissileWeapon4@@UAEXPAVioPlayStage@@@Z PROC ; ioAdhesiveMissileWeapon4::DestroyResource, COMDAT
; _this$ = ecx

; 418  : {

  00000	56		 push	 esi

; 419  : 	if( m_pFireBall )

  00001	8d b1 a8 08 00
	00		 lea	 esi, DWORD PTR [ecx+2216]
  00007	8b 06		 mov	 eax, DWORD PTR [esi]
  00009	85 c0		 test	 eax, eax
  0000b	74 12		 je	 SHORT $LN1@DestroyRes

; 420  : 	{
; 421  : 		g_EffectFactory.DestroyEffect( m_pFireBall );

  0000d	50		 push	 eax
  0000e	ff 15 00 00 00
	00		 call	 DWORD PTR __imp_?GetSingleton@ioEffectFactory@@SAAAV1@XZ
  00014	8b c8		 mov	 ecx, eax
  00016	ff 15 00 00 00
	00		 call	 DWORD PTR __imp_?DestroyEffect@ioEffectFactory@@QAEXPAVioEffect@@@Z

; 422  : 		m_pFireBall = NULL;

  0001c	83 26 00	 and	 DWORD PTR [esi], 0
$LN1@DestroyRes:
  0001f	5e		 pop	 esi

; 423  : 	}
; 424  : }

  00020	c2 04 00	 ret	 4
?DestroyResource@ioAdhesiveMissileWeapon4@@UAEXPAVioPlayStage@@@Z ENDP ; ioAdhesiveMissileWeapon4::DestroyResource
_TEXT	ENDS
PUBLIC	?GetLocalAttackBox@ioAdhesiveMissileWeapon4@@UBEABVioOrientBox@@XZ ; ioAdhesiveMissileWeapon4::GetLocalAttackBox
EXTRN	?GetLocalAttackBox@ioWeapon@@UBEABVioOrientBox@@XZ:PROC ; ioWeapon::GetLocalAttackBox
EXTRN	__imp_?GetCollisionBox@ioEffect@@QBEABVioOrientBox@@XZ:PROC
; Function compile flags: /Ogsp
;	COMDAT ?GetLocalAttackBox@ioAdhesiveMissileWeapon4@@UBEABVioOrientBox@@XZ
_TEXT	SEGMENT
?GetLocalAttackBox@ioAdhesiveMissileWeapon4@@UBEABVioOrientBox@@XZ PROC ; ioAdhesiveMissileWeapon4::GetLocalAttackBox, COMDAT
; _this$ = ecx

; 428  : 	if( m_pFireBall )

  00000	8b 81 a8 08 00
	00		 mov	 eax, DWORD PTR [ecx+2216]
  00006	85 c0		 test	 eax, eax
  00008	74 08		 je	 SHORT $LN1@GetLocalAt

; 429  : 		return m_pFireBall->GetCollisionBox();

  0000a	8b c8		 mov	 ecx, eax
  0000c	ff 25 00 00 00
	00		 jmp	 DWORD PTR __imp_?GetCollisionBox@ioEffect@@QBEABVioOrientBox@@XZ
$LN1@GetLocalAt:

; 430  : 	
; 431  : 	return ioWeapon::GetLocalAttackBox();

  00012	e9 00 00 00 00	 jmp	 ?GetLocalAttackBox@ioWeapon@@UBEABVioOrientBox@@XZ ; ioWeapon::GetLocalAttackBox
?GetLocalAttackBox@ioAdhesiveMissileWeapon4@@UBEABVioOrientBox@@XZ ENDP ; ioAdhesiveMissileWeapon4::GetLocalAttackBox
_TEXT	ENDS
PUBLIC	?GetAttackDir@ioAdhesiveMissileWeapon4@@UBE?AUD3DXVECTOR3@@PBVioPlayEntity@@@Z ; ioAdhesiveMissileWeapon4::GetAttackDir
; Function compile flags: /Ogsp
;	COMDAT ?GetAttackDir@ioAdhesiveMissileWeapon4@@UBE?AUD3DXVECTOR3@@PBVioPlayEntity@@@Z
_TEXT	SEGMENT
___$ReturnUdt$ = 8					; size = 4
_pEntity$ = 12						; size = 4
?GetAttackDir@ioAdhesiveMissileWeapon4@@UBE?AUD3DXVECTOR3@@PBVioPlayEntity@@@Z PROC ; ioAdhesiveMissileWeapon4::GetAttackDir, COMDAT
; _this$ = ecx

; 435  : {

  00000	55		 push	 ebp
  00001	8b ec		 mov	 ebp, esp

; 436  : 	return m_vMoveDir;

  00003	8b 45 08	 mov	 eax, DWORD PTR ___$ReturnUdt$[ebp]
  00006	56		 push	 esi
  00007	57		 push	 edi
  00008	8d b1 00 09 00
	00		 lea	 esi, DWORD PTR [ecx+2304]
  0000e	8b f8		 mov	 edi, eax
  00010	a5		 movsd
  00011	a5		 movsd
  00012	a5		 movsd
  00013	5f		 pop	 edi
  00014	5e		 pop	 esi

; 437  : }

  00015	5d		 pop	 ebp
  00016	c2 08 00	 ret	 8
?GetAttackDir@ioAdhesiveMissileWeapon4@@UBE?AUD3DXVECTOR3@@PBVioPlayEntity@@@Z ENDP ; ioAdhesiveMissileWeapon4::GetAttackDir
_TEXT	ENDS
PUBLIC	?GetType@ioAdhesiveMissileWeapon4@@UBE?AW4WeaponType@ioWeapon@@XZ ; ioAdhesiveMissileWeapon4::GetType
; Function compile flags: /Ogsp
;	COMDAT ?GetType@ioAdhesiveMissileWeapon4@@UBE?AW4WeaponType@ioWeapon@@XZ
_TEXT	SEGMENT
?GetType@ioAdhesiveMissileWeapon4@@UBE?AW4WeaponType@ioWeapon@@XZ PROC ; ioAdhesiveMissileWeapon4::GetType, COMDAT
; _this$ = ecx

; 441  : 	return WT_ADHESIVE_MISSILE4;

  00000	6a 4a		 push	 74			; 0000004aH
  00002	58		 pop	 eax

; 442  : }

  00003	c3		 ret	 0
?GetType@ioAdhesiveMissileWeapon4@@UBE?AW4WeaponType@ioWeapon@@XZ ENDP ; ioAdhesiveMissileWeapon4::GetType
_TEXT	ENDS
PUBLIC	?GetActionStopType@ioAdhesiveMissileWeapon4@@UBE?AW4ActionStopType@@XZ ; ioAdhesiveMissileWeapon4::GetActionStopType
; Function compile flags: /Ogsp
;	COMDAT ?GetActionStopType@ioAdhesiveMissileWeapon4@@UBE?AW4ActionStopType@@XZ
_TEXT	SEGMENT
?GetActionStopType@ioAdhesiveMissileWeapon4@@UBE?AW4ActionStopType@@XZ PROC ; ioAdhesiveMissileWeapon4::GetActionStopType, COMDAT
; _this$ = ecx

; 446  : 	return m_ActionStopType;

  00000	a1 00 00 00 00	 mov	 eax, DWORD PTR ?m_ActionStopType@ioAdhesiveMissileWeapon4@@2W4ActionStopType@@A ; ioAdhesiveMissileWeapon4::m_ActionStopType

; 447  : }

  00005	c3		 ret	 0
?GetActionStopType@ioAdhesiveMissileWeapon4@@UBE?AW4ActionStopType@@XZ ENDP ; ioAdhesiveMissileWeapon4::GetActionStopType
_TEXT	ENDS
PUBLIC	?GetDieActionStopType@ioAdhesiveMissileWeapon4@@UBE?AW4ActionStopType@@XZ ; ioAdhesiveMissileWeapon4::GetDieActionStopType
; Function compile flags: /Ogsp
;	COMDAT ?GetDieActionStopType@ioAdhesiveMissileWeapon4@@UBE?AW4ActionStopType@@XZ
_TEXT	SEGMENT
?GetDieActionStopType@ioAdhesiveMissileWeapon4@@UBE?AW4ActionStopType@@XZ PROC ; ioAdhesiveMissileWeapon4::GetDieActionStopType, COMDAT
; _this$ = ecx

; 451  : 	return m_DieActionStopType;

  00000	a1 00 00 00 00	 mov	 eax, DWORD PTR ?m_DieActionStopType@ioAdhesiveMissileWeapon4@@2W4ActionStopType@@A ; ioAdhesiveMissileWeapon4::m_DieActionStopType

; 452  : }

  00005	c3		 ret	 0
?GetDieActionStopType@ioAdhesiveMissileWeapon4@@UBE?AW4ActionStopType@@XZ ENDP ; ioAdhesiveMissileWeapon4::GetDieActionStopType
_TEXT	ENDS
PUBLIC	?GetAttribute@ioAdhesiveMissileWeapon4@@MBEPBUWeaponAttribute@@XZ ; ioAdhesiveMissileWeapon4::GetAttribute
; Function compile flags: /Ogsp
;	COMDAT ?GetAttribute@ioAdhesiveMissileWeapon4@@MBEPBUWeaponAttribute@@XZ
_TEXT	SEGMENT
?GetAttribute@ioAdhesiveMissileWeapon4@@MBEPBUWeaponAttribute@@XZ PROC ; ioAdhesiveMissileWeapon4::GetAttribute, COMDAT
; _this$ = ecx

; 490  : 	if( m_bResistance )

  00000	80 b9 3c 06 00
	00 00		 cmp	 BYTE PTR [ecx+1596], 0
  00007	74 07		 je	 SHORT $LN1@GetAttribu

; 491  : 	{
; 492  : 		if( m_pResistanceAttr )

  00009	8b 41 0c	 mov	 eax, DWORD PTR [ecx+12]
  0000c	85 c0		 test	 eax, eax

; 493  : 			return m_pResistanceAttr;

  0000e	75 03		 jne	 SHORT $LN3@GetAttribu
$LN1@GetAttribu:

; 494  : 	}
; 495  : 
; 496  : 	return m_pConstAttr;

  00010	8b 41 08	 mov	 eax, DWORD PTR [ecx+8]
$LN3@GetAttribu:

; 497  : }

  00013	c3		 ret	 0
?GetAttribute@ioAdhesiveMissileWeapon4@@MBEPBUWeaponAttribute@@XZ ENDP ; ioAdhesiveMissileWeapon4::GetAttribute
_TEXT	ENDS
PUBLIC	??0TargetInfo@ioAdhesiveMissileWeapon4@@QAE@XZ	; ioAdhesiveMissileWeapon4::TargetInfo::TargetInfo
EXTRN	__imp_??0ioHashString@@QAE@XZ:PROC
; Function compile flags: /Ogsp
;	COMDAT ??0TargetInfo@ioAdhesiveMissileWeapon4@@QAE@XZ
_TEXT	SEGMENT
??0TargetInfo@ioAdhesiveMissileWeapon4@@QAE@XZ PROC	; ioAdhesiveMissileWeapon4::TargetInfo::TargetInfo, COMDAT
; _this$ = ecx
  00000	56		 push	 esi
  00001	8b f1		 mov	 esi, ecx
  00003	ff 15 00 00 00
	00		 call	 DWORD PTR __imp_??0ioHashString@@QAE@XZ
  00009	8b c6		 mov	 eax, esi
  0000b	5e		 pop	 esi
  0000c	c3		 ret	 0
??0TargetInfo@ioAdhesiveMissileWeapon4@@QAE@XZ ENDP	; ioAdhesiveMissileWeapon4::TargetInfo::TargetInfo
_TEXT	ENDS
PUBLIC	?IsProtectState@ioAdhesiveMissileWeapon4@@IAE_NPAVioBaseChar@@@Z ; ioAdhesiveMissileWeapon4::IsProtectState
EXTRN	?IsProtectState@ioBaseChar@@QAE_NXZ:PROC	; ioBaseChar::IsProtectState
EXTRN	?HasBuff@ioBaseChar@@QBE_NH@Z:PROC		; ioBaseChar::HasBuff
; Function compile flags: /Ogsp
;	COMDAT ?IsProtectState@ioAdhesiveMissileWeapon4@@IAE_NPAVioBaseChar@@@Z
_TEXT	SEGMENT
_pChar$ = 8						; size = 4
?IsProtectState@ioAdhesiveMissileWeapon4@@IAE_NPAVioBaseChar@@@Z PROC ; ioAdhesiveMissileWeapon4::IsProtectState, COMDAT
; _this$ = ecx

; 828  : {

  00000	55		 push	 ebp
  00001	8b ec		 mov	 ebp, esp

; 829  : 	if( pChar->HasBuff( BT_STATE_PROTECTION ) || pChar->HasBuff( BT_STATE_PROTECTION_BY_PASSIVE ) )

  00003	8b 4d 08	 mov	 ecx, DWORD PTR _pChar$[ebp]
  00006	6a 23		 push	 35			; 00000023H
  00008	e8 00 00 00 00	 call	 ?HasBuff@ioBaseChar@@QBE_NH@Z ; ioBaseChar::HasBuff
  0000d	84 c0		 test	 al, al
  0000f	75 1b		 jne	 SHORT $LN1@IsProtectS
  00011	8b 4d 08	 mov	 ecx, DWORD PTR _pChar$[ebp]
  00014	68 9c 00 00 00	 push	 156			; 0000009cH
  00019	e8 00 00 00 00	 call	 ?HasBuff@ioBaseChar@@QBE_NH@Z ; ioBaseChar::HasBuff
  0001e	84 c0		 test	 al, al
  00020	75 0a		 jne	 SHORT $LN1@IsProtectS

; 831  : 	
; 832  : 	return pChar->IsProtectState();

  00022	8b 4d 08	 mov	 ecx, DWORD PTR _pChar$[ebp]
  00025	e8 00 00 00 00	 call	 ?IsProtectState@ioBaseChar@@QAE_NXZ ; ioBaseChar::IsProtectState
  0002a	eb 02		 jmp	 SHORT $LN3@IsProtectS
$LN1@IsProtectS:

; 830  : 		return true;

  0002c	b0 01		 mov	 al, 1
$LN3@IsProtectS:

; 833  : }

  0002e	5d		 pop	 ebp
  0002f	c2 04 00	 ret	 4
?IsProtectState@ioAdhesiveMissileWeapon4@@IAE_NPAVioBaseChar@@@Z ENDP ; ioAdhesiveMissileWeapon4::IsProtectState
_TEXT	ENDS
PUBLIC	?SetState@ioAdhesiveMissileWeapon4@@QAEXW4WeaponState@1@@Z ; ioAdhesiveMissileWeapon4::SetState
; Function compile flags: /Ogsp
;	COMDAT ?SetState@ioAdhesiveMissileWeapon4@@QAEXW4WeaponState@1@@Z
_TEXT	SEGMENT
_State$ = 8						; size = 4
?SetState@ioAdhesiveMissileWeapon4@@QAEXW4WeaponState@1@@Z PROC ; ioAdhesiveMissileWeapon4::SetState, COMDAT
; _this$ = ecx

; 836  : {

  00000	55		 push	 ebp
  00001	8b ec		 mov	 ebp, esp

; 837  : 	m_State = State;

  00003	8b 45 08	 mov	 eax, DWORD PTR _State$[ebp]
  00006	56		 push	 esi
  00007	57		 push	 edi
  00008	8b f9		 mov	 edi, ecx
  0000a	89 87 94 08 00
	00		 mov	 DWORD PTR [edi+2196], eax

; 838  : 	m_vPreAttackDir = GetPosition();	

  00010	8b 07		 mov	 eax, DWORD PTR [edi]
  00012	ff 50 70	 call	 DWORD PTR [eax+112]
  00015	81 c7 0c 09 00
	00		 add	 edi, 2316		; 0000090cH
  0001b	8b f0		 mov	 esi, eax
  0001d	a5		 movsd
  0001e	a5		 movsd
  0001f	a5		 movsd
  00020	5f		 pop	 edi
  00021	5e		 pop	 esi

; 839  : }

  00022	5d		 pop	 ebp
  00023	c2 04 00	 ret	 4
?SetState@ioAdhesiveMissileWeapon4@@QAEXW4WeaponState@1@@Z ENDP ; ioAdhesiveMissileWeapon4::SetState
_TEXT	ENDS
PUBLIC	?SetUseColCheck@ioAdhesiveMissileWeapon4@@QAEX_N@Z ; ioAdhesiveMissileWeapon4::SetUseColCheck
; Function compile flags: /Ogsp
;	COMDAT ?SetUseColCheck@ioAdhesiveMissileWeapon4@@QAEX_N@Z
_TEXT	SEGMENT
_bCheck$ = 8						; size = 1
?SetUseColCheck@ioAdhesiveMissileWeapon4@@QAEX_N@Z PROC	; ioAdhesiveMissileWeapon4::SetUseColCheck, COMDAT
; _this$ = ecx

; 843  : {

  00000	55		 push	 ebp
  00001	8b ec		 mov	 ebp, esp

; 844  : 	m_bUseCol= bCheck;

  00003	8b 45 08	 mov	 eax, DWORD PTR _bCheck$[ebp]
  00006	88 81 6c 09 00
	00		 mov	 BYTE PTR [ecx+2412], al

; 845  : 	if( m_pFireBall )

  0000c	8b 89 a8 08 00
	00		 mov	 ecx, DWORD PTR [ecx+2216]
  00012	85 c9		 test	 ecx, ecx
  00014	74 08		 je	 SHORT $LN1@SetUseColC

; 846  : 		m_pFireBall->SetVisible( bCheck );

  00016	83 c1 14	 add	 ecx, 20			; 00000014H
  00019	8b 11		 mov	 edx, DWORD PTR [ecx]
  0001b	50		 push	 eax
  0001c	ff 12		 call	 DWORD PTR [edx]
$LN1@SetUseColC:

; 847  : }

  0001e	5d		 pop	 ebp
  0001f	c2 04 00	 ret	 4
?SetUseColCheck@ioAdhesiveMissileWeapon4@@QAEX_N@Z ENDP	; ioAdhesiveMissileWeapon4::SetUseColCheck
_TEXT	ENDS
PUBLIC	?empty@?$vector@VioHashString@@V?$allocator@VioHashString@@@std@@@std@@QBE_NXZ ; std::vector<ioHashString,std::allocator<ioHashString> >::empty
; Function compile flags: /Ogsp
; File c:\program files (x86)\microsoft visual studio 10.0\vc\include\vector
;	COMDAT ?empty@?$vector@VioHashString@@V?$allocator@VioHashString@@@std@@@std@@QBE_NXZ
_TEXT	SEGMENT
?empty@?$vector@VioHashString@@V?$allocator@VioHashString@@@std@@@std@@QBE_NXZ PROC ; std::vector<ioHashString,std::allocator<ioHashString> >::empty, COMDAT
; _this$ = ecx

; 889  : 		return (this->_Myfirst == this->_Mylast);

  00000	8b 01		 mov	 eax, DWORD PTR [ecx]
  00002	2b 41 04	 sub	 eax, DWORD PTR [ecx+4]
  00005	f7 d8		 neg	 eax
  00007	1b c0		 sbb	 eax, eax
  00009	40		 inc	 eax

; 890  : 		}

  0000a	c3		 ret	 0
?empty@?$vector@VioHashString@@V?$allocator@VioHashString@@@std@@@std@@QBE_NXZ ENDP ; std::vector<ioHashString,std::allocator<ioHashString> >::empty
_TEXT	ENDS
PUBLIC	??A?$vector@VioHashString@@V?$allocator@VioHashString@@@std@@@std@@QAEAAVioHashString@@I@Z ; std::vector<ioHashString,std::allocator<ioHashString> >::operator[]
; Function compile flags: /Ogsp
;	COMDAT ??A?$vector@VioHashString@@V?$allocator@VioHashString@@@std@@@std@@QAEAAVioHashString@@I@Z
_TEXT	SEGMENT
__Pos$ = 8						; size = 4
??A?$vector@VioHashString@@V?$allocator@VioHashString@@@std@@@std@@QAEAAVioHashString@@I@Z PROC ; std::vector<ioHashString,std::allocator<ioHashString> >::operator[], COMDAT
; _this$ = ecx

; 928  : 		{	// subscript mutable sequence

  00000	55		 push	 ebp
  00001	8b ec		 mov	 ebp, esp

; 929  :  #if _ITERATOR_DEBUG_LEVEL == 2
; 930  : 		if (size() <= _Pos)
; 931  : 			{	// report error
; 932  : 			_DEBUG_ERROR("vector subscript out of range");
; 933  : 			_SCL_SECURE_OUT_OF_RANGE;
; 934  : 			}
; 935  : 
; 936  :  #elif _ITERATOR_DEBUG_LEVEL == 1
; 937  : 		_SCL_SECURE_VALIDATE_RANGE(_Pos < size());
; 938  :  #endif /* _ITERATOR_DEBUG_LEVEL */
; 939  : 
; 940  : 		return (*(this->_Myfirst + _Pos));

  00003	8b 45 08	 mov	 eax, DWORD PTR __Pos$[ebp]
  00006	c1 e0 04	 shl	 eax, 4
  00009	03 01		 add	 eax, DWORD PTR [ecx]

; 941  : 		}

  0000b	5d		 pop	 ebp
  0000c	c2 04 00	 ret	 4
??A?$vector@VioHashString@@V?$allocator@VioHashString@@@std@@@std@@QAEAAVioHashString@@I@Z ENDP ; std::vector<ioHashString,std::allocator<ioHashString> >::operator[]
_TEXT	ENDS
PUBLIC	?empty@?$vector@UBuffInfoStruct@@V?$allocator@UBuffInfoStruct@@@std@@@std@@QBE_NXZ ; std::vector<BuffInfoStruct,std::allocator<BuffInfoStruct> >::empty
; Function compile flags: /Ogsp
;	COMDAT ?empty@?$vector@UBuffInfoStruct@@V?$allocator@UBuffInfoStruct@@@std@@@std@@QBE_NXZ
_TEXT	SEGMENT
?empty@?$vector@UBuffInfoStruct@@V?$allocator@UBuffInfoStruct@@@std@@@std@@QBE_NXZ PROC ; std::vector<BuffInfoStruct,std::allocator<BuffInfoStruct> >::empty, COMDAT
; _this$ = ecx

; 889  : 		return (this->_Myfirst == this->_Mylast);

  00000	8b 01		 mov	 eax, DWORD PTR [ecx]
  00002	2b 41 04	 sub	 eax, DWORD PTR [ecx+4]
  00005	f7 d8		 neg	 eax
  00007	1b c0		 sbb	 eax, eax
  00009	40		 inc	 eax

; 890  : 		}

  0000a	c3		 ret	 0
?empty@?$vector@UBuffInfoStruct@@V?$allocator@UBuffInfoStruct@@@std@@@std@@QBE_NXZ ENDP ; std::vector<BuffInfoStruct,std::allocator<BuffInfoStruct> >::empty
_TEXT	ENDS
PUBLIC	?size@?$vector@UTargetInfo@ioAdhesiveMissileWeapon4@@V?$allocator@UTargetInfo@ioAdhesiveMissileWeapon4@@@std@@@std@@QBEIXZ ; std::vector<ioAdhesiveMissileWeapon4::TargetInfo,std::allocator<ioAdhesiveMissileWeapon4::TargetInfo> >::size
; Function compile flags: /Ogsp
;	COMDAT ?size@?$vector@UTargetInfo@ioAdhesiveMissileWeapon4@@V?$allocator@UTargetInfo@ioAdhesiveMissileWeapon4@@@std@@@std@@QBEIXZ
_TEXT	SEGMENT
?size@?$vector@UTargetInfo@ioAdhesiveMissileWeapon4@@V?$allocator@UTargetInfo@ioAdhesiveMissileWeapon4@@@std@@@std@@QBEIXZ PROC ; std::vector<ioAdhesiveMissileWeapon4::TargetInfo,std::allocator<ioAdhesiveMissileWeapon4::TargetInfo> >::size, COMDAT
; _this$ = ecx

; 879  : 		return (this->_Mylast - this->_Myfirst);

  00000	8b 41 04	 mov	 eax, DWORD PTR [ecx+4]
  00003	2b 01		 sub	 eax, DWORD PTR [ecx]
  00005	6a 18		 push	 24			; 00000018H
  00007	99		 cdq
  00008	59		 pop	 ecx
  00009	f7 f9		 idiv	 ecx

; 880  : 		}

  0000b	c3		 ret	 0
?size@?$vector@UTargetInfo@ioAdhesiveMissileWeapon4@@V?$allocator@UTargetInfo@ioAdhesiveMissileWeapon4@@@std@@@std@@QBEIXZ ENDP ; std::vector<ioAdhesiveMissileWeapon4::TargetInfo,std::allocator<ioAdhesiveMissileWeapon4::TargetInfo> >::size
_TEXT	ENDS
PUBLIC	??A?$vector@UTargetInfo@ioAdhesiveMissileWeapon4@@V?$allocator@UTargetInfo@ioAdhesiveMissileWeapon4@@@std@@@std@@QAEAAUTargetInfo@ioAdhesiveMissileWeapon4@@I@Z ; std::vector<ioAdhesiveMissileWeapon4::TargetInfo,std::allocator<ioAdhesiveMissileWeapon4::TargetInfo> >::operator[]
; Function compile flags: /Ogsp
;	COMDAT ??A?$vector@UTargetInfo@ioAdhesiveMissileWeapon4@@V?$allocator@UTargetInfo@ioAdhesiveMissileWeapon4@@@std@@@std@@QAEAAUTargetInfo@ioAdhesiveMissileWeapon4@@I@Z
_TEXT	SEGMENT
__Pos$ = 8						; size = 4
??A?$vector@UTargetInfo@ioAdhesiveMissileWeapon4@@V?$allocator@UTargetInfo@ioAdhesiveMissileWeapon4@@@std@@@std@@QAEAAUTargetInfo@ioAdhesiveMissileWeapon4@@I@Z PROC ; std::vector<ioAdhesiveMissileWeapon4::TargetInfo,std::allocator<ioAdhesiveMissileWeapon4::TargetInfo> >::operator[], COMDAT
; _this$ = ecx

; 928  : 		{	// subscript mutable sequence

  00000	55		 push	 ebp
  00001	8b ec		 mov	 ebp, esp

; 929  :  #if _ITERATOR_DEBUG_LEVEL == 2
; 930  : 		if (size() <= _Pos)
; 931  : 			{	// report error
; 932  : 			_DEBUG_ERROR("vector subscript out of range");
; 933  : 			_SCL_SECURE_OUT_OF_RANGE;
; 934  : 			}
; 935  : 
; 936  :  #elif _ITERATOR_DEBUG_LEVEL == 1
; 937  : 		_SCL_SECURE_VALIDATE_RANGE(_Pos < size());
; 938  :  #endif /* _ITERATOR_DEBUG_LEVEL */
; 939  : 
; 940  : 		return (*(this->_Myfirst + _Pos));

  00003	8b 45 08	 mov	 eax, DWORD PTR __Pos$[ebp]
  00006	6b c0 18	 imul	 eax, 24			; 00000018H
  00009	03 01		 add	 eax, DWORD PTR [ecx]

; 941  : 		}

  0000b	5d		 pop	 ebp
  0000c	c2 04 00	 ret	 4
??A?$vector@UTargetInfo@ioAdhesiveMissileWeapon4@@V?$allocator@UTargetInfo@ioAdhesiveMissileWeapon4@@@std@@@std@@QAEAAUTargetInfo@ioAdhesiveMissileWeapon4@@I@Z ENDP ; std::vector<ioAdhesiveMissileWeapon4::TargetInfo,std::allocator<ioAdhesiveMissileWeapon4::TargetInfo> >::operator[]
_TEXT	ENDS
PUBLIC	?_Inside@?$vector@VioHashString@@V?$allocator@VioHashString@@@std@@@std@@IBE_NPBVioHashString@@@Z ; std::vector<ioHashString,std::allocator<ioHashString> >::_Inside
; Function compile flags: /Ogsp
;	COMDAT ?_Inside@?$vector@VioHashString@@V?$allocator@VioHashString@@@std@@@std@@IBE_NPBVioHashString@@@Z
_TEXT	SEGMENT
__Ptr$ = 8						; size = 4
?_Inside@?$vector@VioHashString@@V?$allocator@VioHashString@@@std@@@std@@IBE_NPBVioHashString@@@Z PROC ; std::vector<ioHashString,std::allocator<ioHashString> >::_Inside, COMDAT
; _this$ = ecx

; 1285 : 		{	// test if _Ptr points inside vector

  00000	55		 push	 ebp
  00001	8b ec		 mov	 ebp, esp

; 1286 : 		return (_Ptr < this->_Mylast && this->_Myfirst <= _Ptr);

  00003	8b 45 08	 mov	 eax, DWORD PTR __Ptr$[ebp]
  00006	3b 41 04	 cmp	 eax, DWORD PTR [ecx+4]
  00009	73 09		 jae	 SHORT $LN3@Inside
  0000b	39 01		 cmp	 DWORD PTR [ecx], eax
  0000d	77 05		 ja	 SHORT $LN3@Inside
  0000f	33 c0		 xor	 eax, eax
  00011	40		 inc	 eax
  00012	eb 02		 jmp	 SHORT $LN4@Inside
$LN3@Inside:
  00014	33 c0		 xor	 eax, eax
$LN4@Inside:

; 1287 : 		}

  00016	5d		 pop	 ebp
  00017	c2 04 00	 ret	 4
?_Inside@?$vector@VioHashString@@V?$allocator@VioHashString@@@std@@@std@@IBE_NPBVioHashString@@@Z ENDP ; std::vector<ioHashString,std::allocator<ioHashString> >::_Inside
_TEXT	ENDS
PUBLIC	?_Orphan_range@?$vector@VioHashString@@V?$allocator@VioHashString@@@std@@@std@@IBEXPAVioHashString@@0@Z ; std::vector<ioHashString,std::allocator<ioHashString> >::_Orphan_range
; Function compile flags: /Ogsp
;	COMDAT ?_Orphan_range@?$vector@VioHashString@@V?$allocator@VioHashString@@@std@@@std@@IBEXPAVioHashString@@0@Z
_TEXT	SEGMENT
___formal$ = 8						; size = 4
___formal$ = 12						; size = 4
?_Orphan_range@?$vector@VioHashString@@V?$allocator@VioHashString@@@std@@@std@@IBEXPAVioHashString@@0@Z PROC ; std::vector<ioHashString,std::allocator<ioHashString> >::_Orphan_range, COMDAT
; _this$ = ecx

; 1454 : 		}

  00000	c2 08 00	 ret	 8
?_Orphan_range@?$vector@VioHashString@@V?$allocator@VioHashString@@@std@@@std@@IBEXPAVioHashString@@0@Z ENDP ; std::vector<ioHashString,std::allocator<ioHashString> >::_Orphan_range
_TEXT	ENDS
PUBLIC	?_Inside@?$vector@UTargetInfo@ioAdhesiveMissileWeapon4@@V?$allocator@UTargetInfo@ioAdhesiveMissileWeapon4@@@std@@@std@@IBE_NPBUTargetInfo@ioAdhesiveMissileWeapon4@@@Z ; std::vector<ioAdhesiveMissileWeapon4::TargetInfo,std::allocator<ioAdhesiveMissileWeapon4::TargetInfo> >::_Inside
; Function compile flags: /Ogsp
;	COMDAT ?_Inside@?$vector@UTargetInfo@ioAdhesiveMissileWeapon4@@V?$allocator@UTargetInfo@ioAdhesiveMissileWeapon4@@@std@@@std@@IBE_NPBUTargetInfo@ioAdhesiveMissileWeapon4@@@Z
_TEXT	SEGMENT
__Ptr$ = 8						; size = 4
?_Inside@?$vector@UTargetInfo@ioAdhesiveMissileWeapon4@@V?$allocator@UTargetInfo@ioAdhesiveMissileWeapon4@@@std@@@std@@IBE_NPBUTargetInfo@ioAdhesiveMissileWeapon4@@@Z PROC ; std::vector<ioAdhesiveMissileWeapon4::TargetInfo,std::allocator<ioAdhesiveMissileWeapon4::TargetInfo> >::_Inside, COMDAT
; _this$ = ecx

; 1285 : 		{	// test if _Ptr points inside vector

  00000	55		 push	 ebp
  00001	8b ec		 mov	 ebp, esp

; 1286 : 		return (_Ptr < this->_Mylast && this->_Myfirst <= _Ptr);

  00003	8b 45 08	 mov	 eax, DWORD PTR __Ptr$[ebp]
  00006	3b 41 04	 cmp	 eax, DWORD PTR [ecx+4]
  00009	73 09		 jae	 SHORT $LN3@Inside@2
  0000b	39 01		 cmp	 DWORD PTR [ecx], eax
  0000d	77 05		 ja	 SHORT $LN3@Inside@2
  0000f	33 c0		 xor	 eax, eax
  00011	40		 inc	 eax
  00012	eb 02		 jmp	 SHORT $LN4@Inside@2
$LN3@Inside@2:
  00014	33 c0		 xor	 eax, eax
$LN4@Inside@2:

; 1287 : 		}

  00016	5d		 pop	 ebp
  00017	c2 04 00	 ret	 4
?_Inside@?$vector@UTargetInfo@ioAdhesiveMissileWeapon4@@V?$allocator@UTargetInfo@ioAdhesiveMissileWeapon4@@@std@@@std@@IBE_NPBUTargetInfo@ioAdhesiveMissileWeapon4@@@Z ENDP ; std::vector<ioAdhesiveMissileWeapon4::TargetInfo,std::allocator<ioAdhesiveMissileWeapon4::TargetInfo> >::_Inside
_TEXT	ENDS
PUBLIC	?_Orphan_range@?$vector@UTargetInfo@ioAdhesiveMissileWeapon4@@V?$allocator@UTargetInfo@ioAdhesiveMissileWeapon4@@@std@@@std@@IBEXPAUTargetInfo@ioAdhesiveMissileWeapon4@@0@Z ; std::vector<ioAdhesiveMissileWeapon4::TargetInfo,std::allocator<ioAdhesiveMissileWeapon4::TargetInfo> >::_Orphan_range
; Function compile flags: /Ogsp
;	COMDAT ?_Orphan_range@?$vector@UTargetInfo@ioAdhesiveMissileWeapon4@@V?$allocator@UTargetInfo@ioAdhesiveMissileWeapon4@@@std@@@std@@IBEXPAUTargetInfo@ioAdhesiveMissileWeapon4@@0@Z
_TEXT	SEGMENT
___formal$ = 8						; size = 4
___formal$ = 12						; size = 4
?_Orphan_range@?$vector@UTargetInfo@ioAdhesiveMissileWeapon4@@V?$allocator@UTargetInfo@ioAdhesiveMissileWeapon4@@@std@@@std@@IBEXPAUTargetInfo@ioAdhesiveMissileWeapon4@@0@Z PROC ; std::vector<ioAdhesiveMissileWeapon4::TargetInfo,std::allocator<ioAdhesiveMissileWeapon4::TargetInfo> >::_Orphan_range, COMDAT
; _this$ = ecx

; 1454 : 		}

  00000	c2 08 00	 ret	 8
?_Orphan_range@?$vector@UTargetInfo@ioAdhesiveMissileWeapon4@@V?$allocator@UTargetInfo@ioAdhesiveMissileWeapon4@@@std@@@std@@IBEXPAUTargetInfo@ioAdhesiveMissileWeapon4@@0@Z ENDP ; std::vector<ioAdhesiveMissileWeapon4::TargetInfo,std::allocator<ioAdhesiveMissileWeapon4::TargetInfo> >::_Orphan_range
_TEXT	ENDS
PUBLIC	??1?$_Vector_val@UTargetInfo@ioAdhesiveMissileWeapon4@@V?$allocator@UTargetInfo@ioAdhesiveMissileWeapon4@@@std@@@std@@QAE@XZ ; std::_Vector_val<ioAdhesiveMissileWeapon4::TargetInfo,std::allocator<ioAdhesiveMissileWeapon4::TargetInfo> >::~_Vector_val<ioAdhesiveMissileWeapon4::TargetInfo,std::allocator<ioAdhesiveMissileWeapon4::TargetInfo> >
; Function compile flags: /Ogsp
;	COMDAT ??1?$_Vector_val@UTargetInfo@ioAdhesiveMissileWeapon4@@V?$allocator@UTargetInfo@ioAdhesiveMissileWeapon4@@@std@@@std@@QAE@XZ
_TEXT	SEGMENT
??1?$_Vector_val@UTargetInfo@ioAdhesiveMissileWeapon4@@V?$allocator@UTargetInfo@ioAdhesiveMissileWeapon4@@@std@@@std@@QAE@XZ PROC ; std::_Vector_val<ioAdhesiveMissileWeapon4::TargetInfo,std::allocator<ioAdhesiveMissileWeapon4::TargetInfo> >::~_Vector_val<ioAdhesiveMissileWeapon4::TargetInfo,std::allocator<ioAdhesiveMissileWeapon4::TargetInfo> >, COMDAT
; _this$ = ecx

; 434  : 		}

  00000	c3		 ret	 0
??1?$_Vector_val@UTargetInfo@ioAdhesiveMissileWeapon4@@V?$allocator@UTargetInfo@ioAdhesiveMissileWeapon4@@@std@@@std@@QAE@XZ ENDP ; std::_Vector_val<ioAdhesiveMissileWeapon4::TargetInfo,std::allocator<ioAdhesiveMissileWeapon4::TargetInfo> >::~_Vector_val<ioAdhesiveMissileWeapon4::TargetInfo,std::allocator<ioAdhesiveMissileWeapon4::TargetInfo> >
_TEXT	ENDS
PUBLIC	??0?$allocator@UTargetInfo@ioAdhesiveMissileWeapon4@@@std@@QAE@XZ ; std::allocator<ioAdhesiveMissileWeapon4::TargetInfo>::allocator<ioAdhesiveMissileWeapon4::TargetInfo>
; Function compile flags: /Ogsp
; File c:\program files (x86)\microsoft visual studio 10.0\vc\include\xmemory
;	COMDAT ??0?$allocator@UTargetInfo@ioAdhesiveMissileWeapon4@@@std@@QAE@XZ
_TEXT	SEGMENT
??0?$allocator@UTargetInfo@ioAdhesiveMissileWeapon4@@@std@@QAE@XZ PROC ; std::allocator<ioAdhesiveMissileWeapon4::TargetInfo>::allocator<ioAdhesiveMissileWeapon4::TargetInfo>, COMDAT
; _this$ = ecx

; 161  : 	_ALLOCATOR() _THROW0()

  00000	8b c1		 mov	 eax, ecx

; 162  : 		{	// construct default allocator (do nothing)
; 163  : 		}

  00002	c3		 ret	 0
??0?$allocator@UTargetInfo@ioAdhesiveMissileWeapon4@@@std@@QAE@XZ ENDP ; std::allocator<ioAdhesiveMissileWeapon4::TargetInfo>::allocator<ioAdhesiveMissileWeapon4::TargetInfo>
_TEXT	ENDS
PUBLIC	??0?$_Vector_const_iterator@V?$_Vector_val@UTargetInfo@ioAdhesiveMissileWeapon4@@V?$allocator@UTargetInfo@ioAdhesiveMissileWeapon4@@@std@@@std@@@std@@QAE@XZ ; std::_Vector_const_iterator<std::_Vector_val<ioAdhesiveMissileWeapon4::TargetInfo,std::allocator<ioAdhesiveMissileWeapon4::TargetInfo> > >::_Vector_const_iterator<std::_Vector_val<ioAdhesiveMissileWeapon4::TargetInfo,std::allocator<ioAdhesiveMissileWeapon4::TargetInfo> > >
; Function compile flags: /Ogsp
; File c:\program files (x86)\microsoft visual studio 10.0\vc\include\vector
;	COMDAT ??0?$_Vector_const_iterator@V?$_Vector_val@UTargetInfo@ioAdhesiveMissileWeapon4@@V?$allocator@UTargetInfo@ioAdhesiveMissileWeapon4@@@std@@@std@@@std@@QAE@XZ
_TEXT	SEGMENT
??0?$_Vector_const_iterator@V?$_Vector_val@UTargetInfo@ioAdhesiveMissileWeapon4@@V?$allocator@UTargetInfo@ioAdhesiveMissileWeapon4@@@std@@@std@@@std@@QAE@XZ PROC ; std::_Vector_const_iterator<std::_Vector_val<ioAdhesiveMissileWeapon4::TargetInfo,std::allocator<ioAdhesiveMissileWeapon4::TargetInfo> > >::_Vector_const_iterator<std::_Vector_val<ioAdhesiveMissileWeapon4::TargetInfo,std::allocator<ioAdhesiveMissileWeapon4::TargetInfo> > >, COMDAT
; _this$ = ecx

; 40   : 		{	// construct with null pointer

  00000	8b c1		 mov	 eax, ecx
  00002	83 20 00	 and	 DWORD PTR [eax], 0

; 41   : 		}

  00005	c3		 ret	 0
??0?$_Vector_const_iterator@V?$_Vector_val@UTargetInfo@ioAdhesiveMissileWeapon4@@V?$allocator@UTargetInfo@ioAdhesiveMissileWeapon4@@@std@@@std@@@std@@QAE@XZ ENDP ; std::_Vector_const_iterator<std::_Vector_val<ioAdhesiveMissileWeapon4::TargetInfo,std::allocator<ioAdhesiveMissileWeapon4::TargetInfo> > >::_Vector_const_iterator<std::_Vector_val<ioAdhesiveMissileWeapon4::TargetInfo,std::allocator<ioAdhesiveMissileWeapon4::TargetInfo> > >
_TEXT	ENDS
PUBLIC	??D?$_Vector_const_iterator@V?$_Vector_val@UTargetInfo@ioAdhesiveMissileWeapon4@@V?$allocator@UTargetInfo@ioAdhesiveMissileWeapon4@@@std@@@std@@@std@@QBEABUTargetInfo@ioAdhesiveMissileWeapon4@@XZ ; std::_Vector_const_iterator<std::_Vector_val<ioAdhesiveMissileWeapon4::TargetInfo,std::allocator<ioAdhesiveMissileWeapon4::TargetInfo> > >::operator*
; Function compile flags: /Ogsp
;	COMDAT ??D?$_Vector_const_iterator@V?$_Vector_val@UTargetInfo@ioAdhesiveMissileWeapon4@@V?$allocator@UTargetInfo@ioAdhesiveMissileWeapon4@@@std@@@std@@@std@@QBEABUTargetInfo@ioAdhesiveMissileWeapon4@@XZ
_TEXT	SEGMENT
??D?$_Vector_const_iterator@V?$_Vector_val@UTargetInfo@ioAdhesiveMissileWeapon4@@V?$allocator@UTargetInfo@ioAdhesiveMissileWeapon4@@@std@@@std@@@std@@QBEABUTargetInfo@ioAdhesiveMissileWeapon4@@XZ PROC ; std::_Vector_const_iterator<std::_Vector_val<ioAdhesiveMissileWeapon4::TargetInfo,std::allocator<ioAdhesiveMissileWeapon4::TargetInfo> > >::operator*, COMDAT
; _this$ = ecx

; 64   :  #if _ITERATOR_DEBUG_LEVEL == 2
; 65   : 		if (this->_Getcont() == 0
; 66   : 			|| this->_Ptr == 0
; 67   : 			|| this->_Ptr < ((_Myvec *)this->_Getcont())->_Myfirst
; 68   : 			|| ((_Myvec *)this->_Getcont())->_Mylast <= this->_Ptr)
; 69   : 			{	// report error
; 70   : 			_DEBUG_ERROR("vector iterator not dereferencable");
; 71   : 			_SCL_SECURE_OUT_OF_RANGE;
; 72   : 			}
; 73   : 
; 74   :  #elif _ITERATOR_DEBUG_LEVEL == 1
; 75   : 		_SCL_SECURE_VALIDATE(this->_Getcont() != 0);
; 76   : 		_SCL_SECURE_VALIDATE_RANGE(
; 77   : 			this->_Ptr != 0
; 78   : 			&& ((_Myvec *)this->_Getcont())->_Myfirst <= this->_Ptr
; 79   : 			&& this->_Ptr < ((_Myvec *)this->_Getcont())->_Mylast);
; 80   :  #endif /* _ITERATOR_DEBUG_LEVEL */
; 81   : 
; 82   : 		__analysis_assume(this->_Ptr != 0);
; 83   : 
; 84   : 		return (*this->_Ptr);

  00000	8b 01		 mov	 eax, DWORD PTR [ecx]

; 85   : 		}

  00002	c3		 ret	 0
??D?$_Vector_const_iterator@V?$_Vector_val@UTargetInfo@ioAdhesiveMissileWeapon4@@V?$allocator@UTargetInfo@ioAdhesiveMissileWeapon4@@@std@@@std@@@std@@QBEABUTargetInfo@ioAdhesiveMissileWeapon4@@XZ ENDP ; std::_Vector_const_iterator<std::_Vector_val<ioAdhesiveMissileWeapon4::TargetInfo,std::allocator<ioAdhesiveMissileWeapon4::TargetInfo> > >::operator*
_TEXT	ENDS
PUBLIC	??E?$_Vector_const_iterator@V?$_Vector_val@UTargetInfo@ioAdhesiveMissileWeapon4@@V?$allocator@UTargetInfo@ioAdhesiveMissileWeapon4@@@std@@@std@@@std@@QAEAAV01@XZ ; std::_Vector_const_iterator<std::_Vector_val<ioAdhesiveMissileWeapon4::TargetInfo,std::allocator<ioAdhesiveMissileWeapon4::TargetInfo> > >::operator++
; Function compile flags: /Ogsp
;	COMDAT ??E?$_Vector_const_iterator@V?$_Vector_val@UTargetInfo@ioAdhesiveMissileWeapon4@@V?$allocator@UTargetInfo@ioAdhesiveMissileWeapon4@@@std@@@std@@@std@@QAEAAV01@XZ
_TEXT	SEGMENT
??E?$_Vector_const_iterator@V?$_Vector_val@UTargetInfo@ioAdhesiveMissileWeapon4@@V?$allocator@UTargetInfo@ioAdhesiveMissileWeapon4@@@std@@@std@@@std@@QAEAAV01@XZ PROC ; std::_Vector_const_iterator<std::_Vector_val<ioAdhesiveMissileWeapon4::TargetInfo,std::allocator<ioAdhesiveMissileWeapon4::TargetInfo> > >::operator++, COMDAT
; _this$ = ecx

; 93   : 		{	// preincrement

  00000	8b c1		 mov	 eax, ecx

; 94   :  #if _ITERATOR_DEBUG_LEVEL == 2
; 95   : 		if (this->_Getcont() == 0
; 96   : 			|| this->_Ptr == 0
; 97   : 			|| ((_Myvec *)this->_Getcont())->_Mylast <= this->_Ptr)
; 98   : 			{	// report error
; 99   : 			_DEBUG_ERROR("vector iterator not incrementable");
; 100  : 			_SCL_SECURE_OUT_OF_RANGE;
; 101  : 			}
; 102  : 
; 103  :  #elif _ITERATOR_DEBUG_LEVEL == 1
; 104  : 		_SCL_SECURE_VALIDATE(this->_Getcont() != 0);
; 105  : 		_SCL_SECURE_VALIDATE_RANGE(
; 106  : 			this->_Ptr != 0
; 107  : 			&& this->_Ptr < ((_Myvec *)this->_Getcont())->_Mylast);
; 108  :  #endif /* _ITERATOR_DEBUG_LEVEL */
; 109  : 
; 110  : 		++this->_Ptr;

  00002	83 00 18	 add	 DWORD PTR [eax], 24	; 00000018H

; 111  : 		return (*this);
; 112  : 		}

  00005	c3		 ret	 0
??E?$_Vector_const_iterator@V?$_Vector_val@UTargetInfo@ioAdhesiveMissileWeapon4@@V?$allocator@UTargetInfo@ioAdhesiveMissileWeapon4@@@std@@@std@@@std@@QAEAAV01@XZ ENDP ; std::_Vector_const_iterator<std::_Vector_val<ioAdhesiveMissileWeapon4::TargetInfo,std::allocator<ioAdhesiveMissileWeapon4::TargetInfo> > >::operator++
_TEXT	ENDS
PUBLIC	?capacity@?$vector@VioHashString@@V?$allocator@VioHashString@@@std@@@std@@QBEIXZ ; std::vector<ioHashString,std::allocator<ioHashString> >::capacity
; Function compile flags: /Ogsp
;	COMDAT ?capacity@?$vector@VioHashString@@V?$allocator@VioHashString@@@std@@@std@@QBEIXZ
_TEXT	SEGMENT
?capacity@?$vector@VioHashString@@V?$allocator@VioHashString@@@std@@@std@@QBEIXZ PROC ; std::vector<ioHashString,std::allocator<ioHashString> >::capacity, COMDAT
; _this$ = ecx

; 777  : 		return (this->_Myend - this->_Myfirst);

  00000	8b 41 08	 mov	 eax, DWORD PTR [ecx+8]
  00003	2b 01		 sub	 eax, DWORD PTR [ecx]
  00005	c1 f8 04	 sar	 eax, 4

; 778  : 		}

  00008	c3		 ret	 0
?capacity@?$vector@VioHashString@@V?$allocator@VioHashString@@@std@@@std@@QBEIXZ ENDP ; std::vector<ioHashString,std::allocator<ioHashString> >::capacity
_TEXT	ENDS
PUBLIC	?capacity@?$vector@UTargetInfo@ioAdhesiveMissileWeapon4@@V?$allocator@UTargetInfo@ioAdhesiveMissileWeapon4@@@std@@@std@@QBEIXZ ; std::vector<ioAdhesiveMissileWeapon4::TargetInfo,std::allocator<ioAdhesiveMissileWeapon4::TargetInfo> >::capacity
; Function compile flags: /Ogsp
;	COMDAT ?capacity@?$vector@UTargetInfo@ioAdhesiveMissileWeapon4@@V?$allocator@UTargetInfo@ioAdhesiveMissileWeapon4@@@std@@@std@@QBEIXZ
_TEXT	SEGMENT
?capacity@?$vector@UTargetInfo@ioAdhesiveMissileWeapon4@@V?$allocator@UTargetInfo@ioAdhesiveMissileWeapon4@@@std@@@std@@QBEIXZ PROC ; std::vector<ioAdhesiveMissileWeapon4::TargetInfo,std::allocator<ioAdhesiveMissileWeapon4::TargetInfo> >::capacity, COMDAT
; _this$ = ecx

; 777  : 		return (this->_Myend - this->_Myfirst);

  00000	8b 41 08	 mov	 eax, DWORD PTR [ecx+8]
  00003	2b 01		 sub	 eax, DWORD PTR [ecx]
  00005	6a 18		 push	 24			; 00000018H
  00007	99		 cdq
  00008	59		 pop	 ecx
  00009	f7 f9		 idiv	 ecx

; 778  : 		}

  0000b	c3		 ret	 0
?capacity@?$vector@UTargetInfo@ioAdhesiveMissileWeapon4@@V?$allocator@UTargetInfo@ioAdhesiveMissileWeapon4@@@std@@@std@@QBEIXZ ENDP ; std::vector<ioAdhesiveMissileWeapon4::TargetInfo,std::allocator<ioAdhesiveMissileWeapon4::TargetInfo> >::capacity
_TEXT	ENDS
PUBLIC	??_C@_0BD@OLBABOEK@vector?$DMT?$DO?5too?5long?$AA@ ; `string'
PUBLIC	?_Xlen@?$vector@UTargetInfo@ioAdhesiveMissileWeapon4@@V?$allocator@UTargetInfo@ioAdhesiveMissileWeapon4@@@std@@@std@@IBEXXZ ; std::vector<ioAdhesiveMissileWeapon4::TargetInfo,std::allocator<ioAdhesiveMissileWeapon4::TargetInfo> >::_Xlen
EXTRN	__imp_?_Xlength_error@std@@YAXPBD@Z:PROC
;	COMDAT ??_C@_0BD@OLBABOEK@vector?$DMT?$DO?5too?5long?$AA@
CONST	SEGMENT
??_C@_0BD@OLBABOEK@vector?$DMT?$DO?5too?5long?$AA@ DB 'vector<T> too long'
	DB	00H						; `string'
; Function compile flags: /Ogsp
CONST	ENDS
;	COMDAT ?_Xlen@?$vector@UTargetInfo@ioAdhesiveMissileWeapon4@@V?$allocator@UTargetInfo@ioAdhesiveMissileWeapon4@@@std@@@std@@IBEXXZ
_TEXT	SEGMENT
?_Xlen@?$vector@UTargetInfo@ioAdhesiveMissileWeapon4@@V?$allocator@UTargetInfo@ioAdhesiveMissileWeapon4@@@std@@@std@@IBEXXZ PROC ; std::vector<ioAdhesiveMissileWeapon4::TargetInfo,std::allocator<ioAdhesiveMissileWeapon4::TargetInfo> >::_Xlen, COMDAT
; _this$ = ecx

; 1427 : 		_Xlength_error("vector<T> too long");

  00000	68 00 00 00 00	 push	 OFFSET ??_C@_0BD@OLBABOEK@vector?$DMT?$DO?5too?5long?$AA@
  00005	ff 15 00 00 00
	00		 call	 DWORD PTR __imp_?_Xlength_error@std@@YAXPBD@Z
$LN4@Xlen:
$LN3@Xlen:
  0000b	cc		 int	 3
?_Xlen@?$vector@UTargetInfo@ioAdhesiveMissileWeapon4@@V?$allocator@UTargetInfo@ioAdhesiveMissileWeapon4@@@std@@@std@@IBEXXZ ENDP ; std::vector<ioAdhesiveMissileWeapon4::TargetInfo,std::allocator<ioAdhesiveMissileWeapon4::TargetInfo> >::_Xlen
_TEXT	ENDS
PUBLIC	??0?$allocator@UTargetInfo@ioAdhesiveMissileWeapon4@@@std@@QAE@ABV01@@Z ; std::allocator<ioAdhesiveMissileWeapon4::TargetInfo>::allocator<ioAdhesiveMissileWeapon4::TargetInfo>
; Function compile flags: /Ogsp
; File c:\program files (x86)\microsoft visual studio 10.0\vc\include\xmemory
;	COMDAT ??0?$allocator@UTargetInfo@ioAdhesiveMissileWeapon4@@@std@@QAE@ABV01@@Z
_TEXT	SEGMENT
___formal$ = 8						; size = 4
??0?$allocator@UTargetInfo@ioAdhesiveMissileWeapon4@@@std@@QAE@ABV01@@Z PROC ; std::allocator<ioAdhesiveMissileWeapon4::TargetInfo>::allocator<ioAdhesiveMissileWeapon4::TargetInfo>, COMDAT
; _this$ = ecx

; 165  : 	_ALLOCATOR(const _ALLOCATOR<_Ty>&) _THROW0()

  00000	8b c1		 mov	 eax, ecx

; 166  : 		{	// construct by copying (do nothing)
; 167  : 		}

  00002	c2 04 00	 ret	 4
??0?$allocator@UTargetInfo@ioAdhesiveMissileWeapon4@@@std@@QAE@ABV01@@Z ENDP ; std::allocator<ioAdhesiveMissileWeapon4::TargetInfo>::allocator<ioAdhesiveMissileWeapon4::TargetInfo>
_TEXT	ENDS
PUBLIC	?deallocate@?$allocator@UTargetInfo@ioAdhesiveMissileWeapon4@@@std@@QAEXPAUTargetInfo@ioAdhesiveMissileWeapon4@@I@Z ; std::allocator<ioAdhesiveMissileWeapon4::TargetInfo>::deallocate
; Function compile flags: /Ogsp
;	COMDAT ?deallocate@?$allocator@UTargetInfo@ioAdhesiveMissileWeapon4@@@std@@QAEXPAUTargetInfo@ioAdhesiveMissileWeapon4@@I@Z
_TEXT	SEGMENT
__Ptr$ = 8						; size = 4
___formal$ = 12						; size = 4
?deallocate@?$allocator@UTargetInfo@ioAdhesiveMissileWeapon4@@@std@@QAEXPAUTargetInfo@ioAdhesiveMissileWeapon4@@I@Z PROC ; std::allocator<ioAdhesiveMissileWeapon4::TargetInfo>::deallocate, COMDAT
; _this$ = ecx

; 181  : 		{	// deallocate object at _Ptr, ignore size

  00000	55		 push	 ebp
  00001	8b ec		 mov	 ebp, esp

; 182  : 		::operator delete(_Ptr);

  00003	ff 75 08	 push	 DWORD PTR __Ptr$[ebp]
  00006	e8 00 00 00 00	 call	 ??3@YAXPAX@Z		; operator delete
  0000b	59		 pop	 ecx

; 183  : 		}

  0000c	5d		 pop	 ebp
  0000d	c2 08 00	 ret	 8
?deallocate@?$allocator@UTargetInfo@ioAdhesiveMissileWeapon4@@@std@@QAEXPAUTargetInfo@ioAdhesiveMissileWeapon4@@I@Z ENDP ; std::allocator<ioAdhesiveMissileWeapon4::TargetInfo>::deallocate
_TEXT	ENDS
PUBLIC	??0?$_Vector_const_iterator@V?$_Vector_val@UTargetInfo@ioAdhesiveMissileWeapon4@@V?$allocator@UTargetInfo@ioAdhesiveMissileWeapon4@@@std@@@std@@@std@@QAE@PAUTargetInfo@ioAdhesiveMissileWeapon4@@PBU_Container_base0@1@@Z ; std::_Vector_const_iterator<std::_Vector_val<ioAdhesiveMissileWeapon4::TargetInfo,std::allocator<ioAdhesiveMissileWeapon4::TargetInfo> > >::_Vector_const_iterator<std::_Vector_val<ioAdhesiveMissileWeapon4::TargetInfo,std::allocator<ioAdhesiveMissileWeapon4::TargetInfo> > >
; Function compile flags: /Ogsp
; File c:\program files (x86)\microsoft visual studio 10.0\vc\include\vector
;	COMDAT ??0?$_Vector_const_iterator@V?$_Vector_val@UTargetInfo@ioAdhesiveMissileWeapon4@@V?$allocator@UTargetInfo@ioAdhesiveMissileWeapon4@@@std@@@std@@@std@@QAE@PAUTargetInfo@ioAdhesiveMissileWeapon4@@PBU_Container_base0@1@@Z
_TEXT	SEGMENT
__Parg$ = 8						; size = 4
__Pvector$ = 12						; size = 4
??0?$_Vector_const_iterator@V?$_Vector_val@UTargetInfo@ioAdhesiveMissileWeapon4@@V?$allocator@UTargetInfo@ioAdhesiveMissileWeapon4@@@std@@@std@@@std@@QAE@PAUTargetInfo@ioAdhesiveMissileWeapon4@@PBU_Container_base0@1@@Z PROC ; std::_Vector_const_iterator<std::_Vector_val<ioAdhesiveMissileWeapon4::TargetInfo,std::allocator<ioAdhesiveMissileWeapon4::TargetInfo> > >::_Vector_const_iterator<std::_Vector_val<ioAdhesiveMissileWeapon4::TargetInfo,std::allocator<ioAdhesiveMissileWeapon4::TargetInfo> > >, COMDAT
; _this$ = ecx

; 45   : 		{	// construct with pointer _Parg

  00000	55		 push	 ebp
  00001	8b ec		 mov	 ebp, esp
  00003	8b c1		 mov	 eax, ecx
  00005	8b 4d 08	 mov	 ecx, DWORD PTR __Parg$[ebp]
  00008	89 08		 mov	 DWORD PTR [eax], ecx

; 46   : 		this->_Adopt(_Pvector);
; 47   : 		}

  0000a	5d		 pop	 ebp
  0000b	c2 08 00	 ret	 8
??0?$_Vector_const_iterator@V?$_Vector_val@UTargetInfo@ioAdhesiveMissileWeapon4@@V?$allocator@UTargetInfo@ioAdhesiveMissileWeapon4@@@std@@@std@@@std@@QAE@PAUTargetInfo@ioAdhesiveMissileWeapon4@@PBU_Container_base0@1@@Z ENDP ; std::_Vector_const_iterator<std::_Vector_val<ioAdhesiveMissileWeapon4::TargetInfo,std::allocator<ioAdhesiveMissileWeapon4::TargetInfo> > >::_Vector_const_iterator<std::_Vector_val<ioAdhesiveMissileWeapon4::TargetInfo,std::allocator<ioAdhesiveMissileWeapon4::TargetInfo> > >
_TEXT	ENDS
PUBLIC	?_Compat@?$_Vector_const_iterator@V?$_Vector_val@UTargetInfo@ioAdhesiveMissileWeapon4@@V?$allocator@UTargetInfo@ioAdhesiveMissileWeapon4@@@std@@@std@@@std@@QBEXABV12@@Z ; std::_Vector_const_iterator<std::_Vector_val<ioAdhesiveMissileWeapon4::TargetInfo,std::allocator<ioAdhesiveMissileWeapon4::TargetInfo> > >::_Compat
; Function compile flags: /Ogsp
;	COMDAT ?_Compat@?$_Vector_const_iterator@V?$_Vector_val@UTargetInfo@ioAdhesiveMissileWeapon4@@V?$allocator@UTargetInfo@ioAdhesiveMissileWeapon4@@@std@@@std@@@std@@QBEXABV12@@Z
_TEXT	SEGMENT
___formal$ = 8						; size = 4
?_Compat@?$_Vector_const_iterator@V?$_Vector_val@UTargetInfo@ioAdhesiveMissileWeapon4@@V?$allocator@UTargetInfo@ioAdhesiveMissileWeapon4@@@std@@@std@@@std@@QBEXABV12@@Z PROC ; std::_Vector_const_iterator<std::_Vector_val<ioAdhesiveMissileWeapon4::TargetInfo,std::allocator<ioAdhesiveMissileWeapon4::TargetInfo> > >::_Compat, COMDAT
; _this$ = ecx

; 253  : 		}

  00000	c2 04 00	 ret	 4
?_Compat@?$_Vector_const_iterator@V?$_Vector_val@UTargetInfo@ioAdhesiveMissileWeapon4@@V?$allocator@UTargetInfo@ioAdhesiveMissileWeapon4@@@std@@@std@@@std@@QBEXABV12@@Z ENDP ; std::_Vector_const_iterator<std::_Vector_val<ioAdhesiveMissileWeapon4::TargetInfo,std::allocator<ioAdhesiveMissileWeapon4::TargetInfo> > >::_Compat
_TEXT	ENDS
PUBLIC	?max_size@?$allocator@UTargetInfo@ioAdhesiveMissileWeapon4@@@std@@QBEIXZ ; std::allocator<ioAdhesiveMissileWeapon4::TargetInfo>::max_size
; Function compile flags: /Ogsp
; File c:\program files (x86)\microsoft visual studio 10.0\vc\include\xmemory
;	COMDAT ?max_size@?$allocator@UTargetInfo@ioAdhesiveMissileWeapon4@@@std@@QBEIXZ
_TEXT	SEGMENT
?max_size@?$allocator@UTargetInfo@ioAdhesiveMissileWeapon4@@@std@@QBEIXZ PROC ; std::allocator<ioAdhesiveMissileWeapon4::TargetInfo>::max_size, COMDAT
; _this$ = ecx

; 218  : 		_SIZT _Count = (_SIZT)(-1) / sizeof (_Ty);
; 219  : 		return (0 < _Count ? _Count : 1);

  00000	b8 aa aa aa 0a	 mov	 eax, 178956970		; 0aaaaaaaH

; 220  : 		}

  00005	c3		 ret	 0
?max_size@?$allocator@UTargetInfo@ioAdhesiveMissileWeapon4@@@std@@QBEIXZ ENDP ; std::allocator<ioAdhesiveMissileWeapon4::TargetInfo>::max_size
_TEXT	ENDS
PUBLIC	__real@3f91df46a2526c7a
PUBLIC	??$DEGtoRAD@M@@YAMM@Z				; DEGtoRAD<float>
;	COMDAT __real@3f91df46a2526c7a
; File d:\lost saga for developer\youtube\tutorial\source\src\lsclient\veryoftenusedefine.h
CONST	SEGMENT
__real@3f91df46a2526c7a DQ 03f91df46a2526c7ar	; 0.0174533
; Function compile flags: /Ogsp
CONST	ENDS
;	COMDAT ??$DEGtoRAD@M@@YAMM@Z
_TEXT	SEGMENT
tv129 = 8						; size = 4
_val$ = 8						; size = 4
??$DEGtoRAD@M@@YAMM@Z PROC				; DEGtoRAD<float>, COMDAT

; 20   : type  DEGtoRAD (type val) {return (type) (val * 0.0174532925199);}

  00000	55		 push	 ebp
  00001	8b ec		 mov	 ebp, esp
  00003	d9 45 08	 fld	 DWORD PTR _val$[ebp]
  00006	dc 0d 00 00 00
	00		 fmul	 QWORD PTR __real@3f91df46a2526c7a
  0000c	d9 5d 08	 fstp	 DWORD PTR tv129[ebp]
  0000f	d9 45 08	 fld	 DWORD PTR tv129[ebp]
  00012	5d		 pop	 ebp
  00013	c3		 ret	 0
??$DEGtoRAD@M@@YAMM@Z ENDP				; DEGtoRAD<float>
_TEXT	ENDS
PUBLIC	??$addressof@$$CBVioHashString@@@std@@YAPBVioHashString@@ABV1@@Z ; std::addressof<ioHashString const >
; Function compile flags: /Ogsp
; File c:\program files (x86)\microsoft visual studio 10.0\vc\include\xmemory
;	COMDAT ??$addressof@$$CBVioHashString@@@std@@YAPBVioHashString@@ABV1@@Z
_TEXT	SEGMENT
__Val$ = 8						; size = 4
??$addressof@$$CBVioHashString@@@std@@YAPBVioHashString@@ABV1@@Z PROC ; std::addressof<ioHashString const >, COMDAT

; 110  : 	{	// return address of _Val

  00000	55		 push	 ebp
  00001	8b ec		 mov	 ebp, esp

; 111  : 	return ((_Ty *) &(char&)_Val);

  00003	8b 45 08	 mov	 eax, DWORD PTR __Val$[ebp]

; 112  : 	}

  00006	5d		 pop	 ebp
  00007	c3		 ret	 0
??$addressof@$$CBVioHashString@@@std@@YAPBVioHashString@@ABV1@@Z ENDP ; std::addressof<ioHashString const >
_TEXT	ENDS
PUBLIC	??$addressof@$$CBUTargetInfo@ioAdhesiveMissileWeapon4@@@std@@YAPBUTargetInfo@ioAdhesiveMissileWeapon4@@ABU12@@Z ; std::addressof<ioAdhesiveMissileWeapon4::TargetInfo const >
; Function compile flags: /Ogsp
;	COMDAT ??$addressof@$$CBUTargetInfo@ioAdhesiveMissileWeapon4@@@std@@YAPBUTargetInfo@ioAdhesiveMissileWeapon4@@ABU12@@Z
_TEXT	SEGMENT
__Val$ = 8						; size = 4
??$addressof@$$CBUTargetInfo@ioAdhesiveMissileWeapon4@@@std@@YAPBUTargetInfo@ioAdhesiveMissileWeapon4@@ABU12@@Z PROC ; std::addressof<ioAdhesiveMissileWeapon4::TargetInfo const >, COMDAT

; 110  : 	{	// return address of _Val

  00000	55		 push	 ebp
  00001	8b ec		 mov	 ebp, esp

; 111  : 	return ((_Ty *) &(char&)_Val);

  00003	8b 45 08	 mov	 eax, DWORD PTR __Val$[ebp]

; 112  : 	}

  00006	5d		 pop	 ebp
  00007	c3		 ret	 0
??$addressof@$$CBUTargetInfo@ioAdhesiveMissileWeapon4@@@std@@YAPBUTargetInfo@ioAdhesiveMissileWeapon4@@ABU12@@Z ENDP ; std::addressof<ioAdhesiveMissileWeapon4::TargetInfo const >
_TEXT	ENDS
PUBLIC	__TI2?AVbad_alloc@std@@
PUBLIC	??$_Allocate@UTargetInfo@ioAdhesiveMissileWeapon4@@@std@@YAPAUTargetInfo@ioAdhesiveMissileWeapon4@@IPAU12@@Z ; std::_Allocate<ioAdhesiveMissileWeapon4::TargetInfo>
PUBLIC	__CTA2?AVbad_alloc@std@@
PUBLIC	__CT??_R0?AVbad_alloc@std@@@8??0bad_alloc@std@@QAE@ABV01@@Z12
PUBLIC	??0bad_alloc@std@@QAE@ABV01@@Z			; std::bad_alloc::bad_alloc
PUBLIC	__CT??_R0?AVexception@std@@@8??0exception@std@@QAE@ABV01@@Z12
EXTRN	??2@YAPAXI@Z:PROC				; operator new
EXTRN	__CxxThrowException@8:PROC
EXTRN	??0exception@std@@QAE@ABV01@@Z:PROC		; std::exception::exception
;	COMDAT __CT??_R0?AVexception@std@@@8??0exception@std@@QAE@ABV01@@Z12
; File c:\program files (x86)\microsoft visual studio 10.0\vc\include\exception
xdata$x	SEGMENT
__CT??_R0?AVexception@std@@@8??0exception@std@@QAE@ABV01@@Z12 DD 00H
	DD	FLAT:??_R0?AVexception@std@@@8
	DD	00H
	DD	0ffffffffH
	ORG $+4
	DD	0cH
	DD	FLAT:??0exception@std@@QAE@ABV01@@Z
xdata$x	ENDS
;	COMDAT __CT??_R0?AVbad_alloc@std@@@8??0bad_alloc@std@@QAE@ABV01@@Z12
xdata$x	SEGMENT
__CT??_R0?AVbad_alloc@std@@@8??0bad_alloc@std@@QAE@ABV01@@Z12 DD 00H
	DD	FLAT:??_R0?AVbad_alloc@std@@@8
	DD	00H
	DD	0ffffffffH
	ORG $+4
	DD	0cH
	DD	FLAT:??0bad_alloc@std@@QAE@ABV01@@Z
xdata$x	ENDS
;	COMDAT __CTA2?AVbad_alloc@std@@
xdata$x	SEGMENT
__CTA2?AVbad_alloc@std@@ DD 02H
	DD	FLAT:__CT??_R0?AVbad_alloc@std@@@8??0bad_alloc@std@@QAE@ABV01@@Z12
	DD	FLAT:__CT??_R0?AVexception@std@@@8??0exception@std@@QAE@ABV01@@Z12
xdata$x	ENDS
;	COMDAT __TI2?AVbad_alloc@std@@
xdata$x	SEGMENT
__TI2?AVbad_alloc@std@@ DD 00H
	DD	FLAT:??1bad_alloc@std@@UAE@XZ
	DD	00H
	DD	FLAT:__CTA2?AVbad_alloc@std@@
; Function compile flags: /Ogsp
; File c:\program files (x86)\microsoft visual studio 10.0\vc\include\xmemory
xdata$x	ENDS
;	COMDAT ??$_Allocate@UTargetInfo@ioAdhesiveMissileWeapon4@@@std@@YAPAUTargetInfo@ioAdhesiveMissileWeapon4@@IPAU12@@Z
_TEXT	SEGMENT
$T535287 = -12						; size = 12
$T535292 = 8						; size = 4
__Count$ = 8						; size = 4
___formal$ = 12						; size = 4
??$_Allocate@UTargetInfo@ioAdhesiveMissileWeapon4@@@std@@YAPAUTargetInfo@ioAdhesiveMissileWeapon4@@IPAU12@@Z PROC ; std::_Allocate<ioAdhesiveMissileWeapon4::TargetInfo>, COMDAT

; 30   : 	{	// allocate storage for _Count elements of type _Ty

  00000	55		 push	 ebp
  00001	8b ec		 mov	 ebp, esp

; 31   : 	void *_Ptr = 0;
; 32   : 
; 33   : 	if (_Count <= 0)

  00003	8b 4d 08	 mov	 ecx, DWORD PTR __Count$[ebp]
  00006	83 ec 0c	 sub	 esp, 12			; 0000000cH
  00009	33 c0		 xor	 eax, eax
  0000b	85 c9		 test	 ecx, ecx

; 34   : 		_Count = 0;
; 35   : 	else if (((_SIZT)(-1) / sizeof (_Ty) < _Count)

  0000d	74 3c		 je	 SHORT $LN5@Allocate

; 36   : 		|| (_Ptr = ::operator new(_Count * sizeof (_Ty))) == 0)

  0000f	81 f9 aa aa aa
	0a		 cmp	 ecx, 178956970		; 0aaaaaaaH
  00015	77 0e		 ja	 SHORT $LN1@Allocate
  00017	6b c9 18	 imul	 ecx, 24			; 00000018H
  0001a	51		 push	 ecx
  0001b	e8 00 00 00 00	 call	 ??2@YAPAXI@Z		; operator new
  00020	59		 pop	 ecx
  00021	85 c0		 test	 eax, eax

; 38   : 
; 39   : 	return ((_Ty _FARQ *)_Ptr);

  00023	75 26		 jne	 SHORT $LN5@Allocate
$LN1@Allocate:

; 37   : 		_THROW_NCEE(bad_alloc, 0);

  00025	83 65 08 00	 and	 DWORD PTR $T535292[ebp], 0
  00029	8d 45 08	 lea	 eax, DWORD PTR $T535292[ebp]
  0002c	50		 push	 eax
  0002d	8d 4d f4	 lea	 ecx, DWORD PTR $T535287[ebp]
  00030	ff 15 00 00 00
	00		 call	 DWORD PTR __imp_??0exception@std@@QAE@ABQBD@Z
  00036	68 00 00 00 00	 push	 OFFSET __TI2?AVbad_alloc@std@@
  0003b	8d 45 f4	 lea	 eax, DWORD PTR $T535287[ebp]
  0003e	50		 push	 eax
  0003f	c7 45 f4 00 00
	00 00		 mov	 DWORD PTR $T535287[ebp], OFFSET ??_7bad_alloc@std@@6B@
  00046	e8 00 00 00 00	 call	 __CxxThrowException@8
$LN10@Allocate:
$LN5@Allocate:

; 40   : 	}

  0004b	c9		 leave
  0004c	c3		 ret	 0
$LN9@Allocate:
??$_Allocate@UTargetInfo@ioAdhesiveMissileWeapon4@@@std@@YAPAUTargetInfo@ioAdhesiveMissileWeapon4@@IPAU12@@Z ENDP ; std::_Allocate<ioAdhesiveMissileWeapon4::TargetInfo>
_TEXT	ENDS
PUBLIC	??$forward@AAUTargetInfo@ioAdhesiveMissileWeapon4@@@std@@YAAAUTargetInfo@ioAdhesiveMissileWeapon4@@AAU12@@Z ; std::forward<ioAdhesiveMissileWeapon4::TargetInfo &>
; Function compile flags: /Ogsp
; File c:\program files (x86)\microsoft visual studio 10.0\vc\include\utility
;	COMDAT ??$forward@AAUTargetInfo@ioAdhesiveMissileWeapon4@@@std@@YAAAUTargetInfo@ioAdhesiveMissileWeapon4@@AAU12@@Z
_TEXT	SEGMENT
__Arg$ = 8						; size = 4
??$forward@AAUTargetInfo@ioAdhesiveMissileWeapon4@@@std@@YAAAUTargetInfo@ioAdhesiveMissileWeapon4@@AAU12@@Z PROC ; std::forward<ioAdhesiveMissileWeapon4::TargetInfo &>, COMDAT

; 78   : 	{	// forward _Arg, given explicitly specified type parameter

  00000	55		 push	 ebp
  00001	8b ec		 mov	 ebp, esp

; 79   : 	return ((_Ty&&)_Arg);

  00003	8b 45 08	 mov	 eax, DWORD PTR __Arg$[ebp]

; 80   : 	}

  00006	5d		 pop	 ebp
  00007	c3		 ret	 0
??$forward@AAUTargetInfo@ioAdhesiveMissileWeapon4@@@std@@YAAAUTargetInfo@ioAdhesiveMissileWeapon4@@AAU12@@Z ENDP ; std::forward<ioAdhesiveMissileWeapon4::TargetInfo &>
_TEXT	ENDS
PUBLIC	??$construct@AAUTargetInfo@ioAdhesiveMissileWeapon4@@@?$allocator@UTargetInfo@ioAdhesiveMissileWeapon4@@@std@@QAEXPAUTargetInfo@ioAdhesiveMissileWeapon4@@AAU23@@Z ; std::allocator<ioAdhesiveMissileWeapon4::TargetInfo>::construct<ioAdhesiveMissileWeapon4::TargetInfo &>
EXTRN	___CxxFrameHandler3:PROC
EXTRN	@__security_check_cookie@4:PROC
EXTRN	__EH_epilog3:PROC
EXTRN	__EH_prolog3:PROC
;	COMDAT xdata$x
xdata$x	SEGMENT
__unwindtable$??$construct@AAUTargetInfo@ioAdhesiveMissileWeapon4@@@?$allocator@UTargetInfo@ioAdhesiveMissileWeapon4@@@std@@QAEXPAUTargetInfo@ioAdhesiveMissileWeapon4@@AAU23@@Z DD 0ffffffffH
	DD	FLAT:__unwindfunclet$??$construct@AAUTargetInfo@ioAdhesiveMissileWeapon4@@@?$allocator@UTargetInfo@ioAdhesiveMissileWeapon4@@@std@@QAEXPAUTargetInfo@ioAdhesiveMissileWeapon4@@AAU23@@Z$0
__ehfuncinfo$??$construct@AAUTargetInfo@ioAdhesiveMissileWeapon4@@@?$allocator@UTargetInfo@ioAdhesiveMissileWeapon4@@@std@@QAEXPAUTargetInfo@ioAdhesiveMissileWeapon4@@AAU23@@Z DD 019930522H
	DD	01H
	DD	FLAT:__unwindtable$??$construct@AAUTargetInfo@ioAdhesiveMissileWeapon4@@@?$allocator@UTargetInfo@ioAdhesiveMissileWeapon4@@@std@@QAEXPAUTargetInfo@ioAdhesiveMissileWeapon4@@AAU23@@Z
	DD	2 DUP(00H)
	DD	2 DUP(00H)
	DD	00H
	DD	01H
; Function compile flags: /Ogsp
; File c:\program files (x86)\microsoft visual studio 10.0\vc\include\xmemory
xdata$x	ENDS
;	COMDAT ??$construct@AAUTargetInfo@ioAdhesiveMissileWeapon4@@@?$allocator@UTargetInfo@ioAdhesiveMissileWeapon4@@@std@@QAEXPAUTargetInfo@ioAdhesiveMissileWeapon4@@AAU23@@Z
_TEXT	SEGMENT
$T535300 = -16						; size = 4
__$EHRec$ = -12						; size = 12
__Ptr$ = 8						; size = 4
__Val$ = 12						; size = 4
??$construct@AAUTargetInfo@ioAdhesiveMissileWeapon4@@@?$allocator@UTargetInfo@ioAdhesiveMissileWeapon4@@@std@@QAEXPAUTargetInfo@ioAdhesiveMissileWeapon4@@AAU23@@Z PROC ; std::allocator<ioAdhesiveMissileWeapon4::TargetInfo>::construct<ioAdhesiveMissileWeapon4::TargetInfo &>, COMDAT
; _this$ = ecx

; 206  : 		void construct(pointer _Ptr, _Other&& _Val)

  00000	6a 04		 push	 4
  00002	b8 00 00 00 00	 mov	 eax, __ehhandler$??$construct@AAUTargetInfo@ioAdhesiveMissileWeapon4@@@?$allocator@UTargetInfo@ioAdhesiveMissileWeapon4@@@std@@QAEXPAUTargetInfo@ioAdhesiveMissileWeapon4@@AAU23@@Z
  00007	e8 00 00 00 00	 call	 __EH_prolog3

; 207  : 		{	// construct object at _Ptr with value _Val
; 208  : 		::new ((void _FARQ *)_Ptr) _Ty(_STD forward<_Other>(_Val));

  0000c	8b 4d 08	 mov	 ecx, DWORD PTR __Ptr$[ebp]
  0000f	89 4d f0	 mov	 DWORD PTR $T535300[ebp], ecx
  00012	83 65 fc 00	 and	 DWORD PTR __$EHRec$[ebp+8], 0
  00016	85 c9		 test	 ecx, ecx
  00018	74 08		 je	 SHORT $LN3@construct
  0001a	ff 75 0c	 push	 DWORD PTR __Val$[ebp]
  0001d	e8 00 00 00 00	 call	 ??0TargetInfo@ioAdhesiveMissileWeapon4@@QAE@ABU01@@Z
$LN3@construct:

; 209  : 		}

  00022	e8 00 00 00 00	 call	 __EH_epilog3
  00027	c2 08 00	 ret	 8
_TEXT	ENDS
;	COMDAT text$x
text$x	SEGMENT
__unwindfunclet$??$construct@AAUTargetInfo@ioAdhesiveMissileWeapon4@@@?$allocator@UTargetInfo@ioAdhesiveMissileWeapon4@@@std@@QAEXPAUTargetInfo@ioAdhesiveMissileWeapon4@@AAU23@@Z$0:
  00000	ff 75 08	 push	 DWORD PTR __Ptr$[ebp]
  00003	ff 75 f0	 push	 DWORD PTR $T535300[ebp]
  00006	e8 00 00 00 00	 call	 ??3@YAXPAX0@Z		; operator delete
  0000b	59		 pop	 ecx
  0000c	59		 pop	 ecx
  0000d	c3		 ret	 0
__ehhandler$??$construct@AAUTargetInfo@ioAdhesiveMissileWeapon4@@@?$allocator@UTargetInfo@ioAdhesiveMissileWeapon4@@@std@@QAEXPAUTargetInfo@ioAdhesiveMissileWeapon4@@AAU23@@Z:
  0000e	8b 54 24 08	 mov	 edx, DWORD PTR [esp+8]
  00012	8d 42 0c	 lea	 eax, DWORD PTR [edx+12]
  00015	8b 4a ec	 mov	 ecx, DWORD PTR [edx-20]
  00018	33 c8		 xor	 ecx, eax
  0001a	e8 00 00 00 00	 call	 @__security_check_cookie@4
  0001f	b8 00 00 00 00	 mov	 eax, OFFSET __ehfuncinfo$??$construct@AAUTargetInfo@ioAdhesiveMissileWeapon4@@@?$allocator@UTargetInfo@ioAdhesiveMissileWeapon4@@@std@@QAEXPAUTargetInfo@ioAdhesiveMissileWeapon4@@AAU23@@Z
  00024	e9 00 00 00 00	 jmp	 ___CxxFrameHandler3
text$x	ENDS
??$construct@AAUTargetInfo@ioAdhesiveMissileWeapon4@@@?$allocator@UTargetInfo@ioAdhesiveMissileWeapon4@@@std@@QAEXPAUTargetInfo@ioAdhesiveMissileWeapon4@@AAU23@@Z ENDP ; std::allocator<ioAdhesiveMissileWeapon4::TargetInfo>::construct<ioAdhesiveMissileWeapon4::TargetInfo &>
PUBLIC	??$forward@ABUTargetInfo@ioAdhesiveMissileWeapon4@@@std@@YAABUTargetInfo@ioAdhesiveMissileWeapon4@@ABU12@@Z ; std::forward<ioAdhesiveMissileWeapon4::TargetInfo const &>
; Function compile flags: /Ogsp
; File c:\program files (x86)\microsoft visual studio 10.0\vc\include\utility
;	COMDAT ??$forward@ABUTargetInfo@ioAdhesiveMissileWeapon4@@@std@@YAABUTargetInfo@ioAdhesiveMissileWeapon4@@ABU12@@Z
_TEXT	SEGMENT
__Arg$ = 8						; size = 4
??$forward@ABUTargetInfo@ioAdhesiveMissileWeapon4@@@std@@YAABUTargetInfo@ioAdhesiveMissileWeapon4@@ABU12@@Z PROC ; std::forward<ioAdhesiveMissileWeapon4::TargetInfo const &>, COMDAT

; 78   : 	{	// forward _Arg, given explicitly specified type parameter

  00000	55		 push	 ebp
  00001	8b ec		 mov	 ebp, esp

; 79   : 	return ((_Ty&&)_Arg);

  00003	8b 45 08	 mov	 eax, DWORD PTR __Arg$[ebp]

; 80   : 	}

  00006	5d		 pop	 ebp
  00007	c3		 ret	 0
??$forward@ABUTargetInfo@ioAdhesiveMissileWeapon4@@@std@@YAABUTargetInfo@ioAdhesiveMissileWeapon4@@ABU12@@Z ENDP ; std::forward<ioAdhesiveMissileWeapon4::TargetInfo const &>
_TEXT	ENDS
PUBLIC	??$_Ptr_cat@UTargetInfo@ioAdhesiveMissileWeapon4@@U12@@std@@YA?AU_Nonscalar_ptr_iterator_tag@0@PAUTargetInfo@ioAdhesiveMissileWeapon4@@0@Z ; std::_Ptr_cat<ioAdhesiveMissileWeapon4::TargetInfo,ioAdhesiveMissileWeapon4::TargetInfo>
; Function compile flags: /Ogsp
; File c:\program files (x86)\microsoft visual studio 10.0\vc\include\xutility
;	COMDAT ??$_Ptr_cat@UTargetInfo@ioAdhesiveMissileWeapon4@@U12@@std@@YA?AU_Nonscalar_ptr_iterator_tag@0@PAUTargetInfo@ioAdhesiveMissileWeapon4@@0@Z
_TEXT	SEGMENT
__Cat$ = -1						; size = 1
___formal$ = 8						; size = 4
___formal$ = 12						; size = 4
??$_Ptr_cat@UTargetInfo@ioAdhesiveMissileWeapon4@@U12@@std@@YA?AU_Nonscalar_ptr_iterator_tag@0@PAUTargetInfo@ioAdhesiveMissileWeapon4@@0@Z PROC ; std::_Ptr_cat<ioAdhesiveMissileWeapon4::TargetInfo,ioAdhesiveMissileWeapon4::TargetInfo>, COMDAT

; 516  : 	{	// return pointer category from pointers

  00000	55		 push	 ebp
  00001	8b ec		 mov	 ebp, esp
  00003	51		 push	 ecx

; 517  : 	typename _Ptr_cat_helper<_Elem1, _Elem2>::_Type _Cat;
; 518  : 	return (_Cat);

  00004	8a 45 ff	 mov	 al, BYTE PTR __Cat$[ebp]

; 519  : 	}

  00007	c9		 leave
  00008	c3		 ret	 0
??$_Ptr_cat@UTargetInfo@ioAdhesiveMissileWeapon4@@U12@@std@@YA?AU_Nonscalar_ptr_iterator_tag@0@PAUTargetInfo@ioAdhesiveMissileWeapon4@@0@Z ENDP ; std::_Ptr_cat<ioAdhesiveMissileWeapon4::TargetInfo,ioAdhesiveMissileWeapon4::TargetInfo>
_TEXT	ENDS
PUBLIC	??$_Construct@UTargetInfo@ioAdhesiveMissileWeapon4@@ABU12@@std@@YAXPAUTargetInfo@ioAdhesiveMissileWeapon4@@ABU12@@Z ; std::_Construct<ioAdhesiveMissileWeapon4::TargetInfo,ioAdhesiveMissileWeapon4::TargetInfo const &>
;	COMDAT xdata$x
; File c:\program files (x86)\microsoft visual studio 10.0\vc\include\utility
xdata$x	SEGMENT
__unwindtable$??$_Construct@UTargetInfo@ioAdhesiveMissileWeapon4@@ABU12@@std@@YAXPAUTargetInfo@ioAdhesiveMissileWeapon4@@ABU12@@Z DD 0ffffffffH
	DD	FLAT:__unwindfunclet$??$_Construct@UTargetInfo@ioAdhesiveMissileWeapon4@@ABU12@@std@@YAXPAUTargetInfo@ioAdhesiveMissileWeapon4@@ABU12@@Z$0
__ehfuncinfo$??$_Construct@UTargetInfo@ioAdhesiveMissileWeapon4@@ABU12@@std@@YAXPAUTargetInfo@ioAdhesiveMissileWeapon4@@ABU12@@Z DD 019930522H
	DD	01H
	DD	FLAT:__unwindtable$??$_Construct@UTargetInfo@ioAdhesiveMissileWeapon4@@ABU12@@std@@YAXPAUTargetInfo@ioAdhesiveMissileWeapon4@@ABU12@@Z
	DD	2 DUP(00H)
	DD	2 DUP(00H)
	DD	00H
	DD	01H
; Function compile flags: /Ogsp
; File c:\program files (x86)\microsoft visual studio 10.0\vc\include\xmemory
xdata$x	ENDS
;	COMDAT ??$_Construct@UTargetInfo@ioAdhesiveMissileWeapon4@@ABU12@@std@@YAXPAUTargetInfo@ioAdhesiveMissileWeapon4@@ABU12@@Z
_TEXT	SEGMENT
$T535329 = -16						; size = 4
__$EHRec$ = -12						; size = 12
__Vptr$ = 8						; size = 4
__Ptr$ = 8						; size = 4
__Val$ = 12						; size = 4
??$_Construct@UTargetInfo@ioAdhesiveMissileWeapon4@@ABU12@@std@@YAXPAUTargetInfo@ioAdhesiveMissileWeapon4@@ABU12@@Z PROC ; std::_Construct<ioAdhesiveMissileWeapon4::TargetInfo,ioAdhesiveMissileWeapon4::TargetInfo const &>, COMDAT

; 46   : 	{	// construct object at _Ptr with value _Val

  00000	6a 04		 push	 4
  00002	b8 00 00 00 00	 mov	 eax, __ehhandler$??$_Construct@UTargetInfo@ioAdhesiveMissileWeapon4@@ABU12@@std@@YAXPAUTargetInfo@ioAdhesiveMissileWeapon4@@ABU12@@Z
  00007	e8 00 00 00 00	 call	 __EH_prolog3

; 47   : 	void _FARQ *_Vptr = _Ptr;

  0000c	8b 4d 08	 mov	 ecx, DWORD PTR __Ptr$[ebp]
  0000f	89 4d 08	 mov	 DWORD PTR __Vptr$[ebp], ecx

; 48   : 	::new (_Vptr) _Ty1(_STD forward<_Ty2>(_Val));

  00012	89 4d f0	 mov	 DWORD PTR $T535329[ebp], ecx
  00015	83 65 fc 00	 and	 DWORD PTR __$EHRec$[ebp+8], 0
  00019	85 c9		 test	 ecx, ecx
  0001b	74 08		 je	 SHORT $LN3@Construct
  0001d	ff 75 0c	 push	 DWORD PTR __Val$[ebp]
  00020	e8 00 00 00 00	 call	 ??0TargetInfo@ioAdhesiveMissileWeapon4@@QAE@ABU01@@Z
$LN3@Construct:

; 49   : 	}

  00025	e8 00 00 00 00	 call	 __EH_epilog3
  0002a	c3		 ret	 0
_TEXT	ENDS
;	COMDAT text$x
text$x	SEGMENT
__unwindfunclet$??$_Construct@UTargetInfo@ioAdhesiveMissileWeapon4@@ABU12@@std@@YAXPAUTargetInfo@ioAdhesiveMissileWeapon4@@ABU12@@Z$0:
  00000	ff 75 08	 push	 DWORD PTR __Vptr$[ebp]
  00003	ff 75 f0	 push	 DWORD PTR $T535329[ebp]
  00006	e8 00 00 00 00	 call	 ??3@YAXPAX0@Z		; operator delete
  0000b	59		 pop	 ecx
  0000c	59		 pop	 ecx
  0000d	c3		 ret	 0
__ehhandler$??$_Construct@UTargetInfo@ioAdhesiveMissileWeapon4@@ABU12@@std@@YAXPAUTargetInfo@ioAdhesiveMissileWeapon4@@ABU12@@Z:
  0000e	8b 54 24 08	 mov	 edx, DWORD PTR [esp+8]
  00012	8d 42 0c	 lea	 eax, DWORD PTR [edx+12]
  00015	8b 4a ec	 mov	 ecx, DWORD PTR [edx-20]
  00018	33 c8		 xor	 ecx, eax
  0001a	e8 00 00 00 00	 call	 @__security_check_cookie@4
  0001f	b8 00 00 00 00	 mov	 eax, OFFSET __ehfuncinfo$??$_Construct@UTargetInfo@ioAdhesiveMissileWeapon4@@ABU12@@std@@YAXPAUTargetInfo@ioAdhesiveMissileWeapon4@@ABU12@@Z
  00024	e9 00 00 00 00	 jmp	 ___CxxFrameHandler3
text$x	ENDS
??$_Construct@UTargetInfo@ioAdhesiveMissileWeapon4@@ABU12@@std@@YAXPAUTargetInfo@ioAdhesiveMissileWeapon4@@ABU12@@Z ENDP ; std::_Construct<ioAdhesiveMissileWeapon4::TargetInfo,ioAdhesiveMissileWeapon4::TargetInfo const &>
PUBLIC	??4TargetInfo@ioAdhesiveMissileWeapon4@@QAEAAU01@ABU01@@Z ; ioAdhesiveMissileWeapon4::TargetInfo::operator=
EXTRN	__imp_??4ioHashString@@QAEAAV0@ABV0@@Z:PROC
; Function compile flags: /Ogsp
;	COMDAT ??4TargetInfo@ioAdhesiveMissileWeapon4@@QAEAAU01@ABU01@@Z
_TEXT	SEGMENT
___that$ = 8						; size = 4
??4TargetInfo@ioAdhesiveMissileWeapon4@@QAEAAU01@ABU01@@Z PROC ; ioAdhesiveMissileWeapon4::TargetInfo::operator=, COMDAT
; _this$ = ecx
  00000	55		 push	 ebp
  00001	8b ec		 mov	 ebp, esp
  00003	56		 push	 esi
  00004	57		 push	 edi
  00005	8b 7d 08	 mov	 edi, DWORD PTR ___that$[ebp]
  00008	57		 push	 edi
  00009	8b f1		 mov	 esi, ecx
  0000b	ff 15 00 00 00
	00		 call	 DWORD PTR __imp_??4ioHashString@@QAEAAV0@ABV0@@Z
  00011	d9 47 10	 fld	 DWORD PTR [edi+16]
  00014	d9 5e 10	 fstp	 DWORD PTR [esi+16]
  00017	8b c6		 mov	 eax, esi
  00019	d9 47 14	 fld	 DWORD PTR [edi+20]
  0001c	5f		 pop	 edi
  0001d	d9 5e 14	 fstp	 DWORD PTR [esi+20]
  00020	5e		 pop	 esi
  00021	5d		 pop	 ebp
  00022	c2 04 00	 ret	 4
??4TargetInfo@ioAdhesiveMissileWeapon4@@QAEAAU01@ABU01@@Z ENDP ; ioAdhesiveMissileWeapon4::TargetInfo::operator=
_TEXT	ENDS
PUBLIC	??$move@AAUTargetInfo@ioAdhesiveMissileWeapon4@@@std@@YA$$QAUTargetInfo@ioAdhesiveMissileWeapon4@@AAU12@@Z ; std::move<ioAdhesiveMissileWeapon4::TargetInfo &>
; Function compile flags: /Ogsp
; File c:\program files (x86)\microsoft visual studio 10.0\vc\include\utility
;	COMDAT ??$move@AAUTargetInfo@ioAdhesiveMissileWeapon4@@@std@@YA$$QAUTargetInfo@ioAdhesiveMissileWeapon4@@AAU12@@Z
_TEXT	SEGMENT
__Arg$ = 8						; size = 4
??$move@AAUTargetInfo@ioAdhesiveMissileWeapon4@@@std@@YA$$QAUTargetInfo@ioAdhesiveMissileWeapon4@@AAU12@@Z PROC ; std::move<ioAdhesiveMissileWeapon4::TargetInfo &>, COMDAT

; 86   : 	{	// forward _Arg as movable

  00000	55		 push	 ebp
  00001	8b ec		 mov	 ebp, esp

; 87   : 	return ((typename tr1::_Remove_reference<_Ty>::_Type&&)_Arg);

  00003	8b 45 08	 mov	 eax, DWORD PTR __Arg$[ebp]

; 88   : 	}

  00006	5d		 pop	 ebp
  00007	c3		 ret	 0
??$move@AAUTargetInfo@ioAdhesiveMissileWeapon4@@@std@@YA$$QAUTargetInfo@ioAdhesiveMissileWeapon4@@AAU12@@Z ENDP ; std::move<ioAdhesiveMissileWeapon4::TargetInfo &>
_TEXT	ENDS
PUBLIC	??$_Val_type@PAVioHashString@@@std@@YAPAVioHashString@@PAV1@@Z ; std::_Val_type<ioHashString *>
; Function compile flags: /Ogsp
; File c:\program files (x86)\microsoft visual studio 10.0\vc\include\xutility
;	COMDAT ??$_Val_type@PAVioHashString@@@std@@YAPAVioHashString@@PAV1@@Z
_TEXT	SEGMENT
___formal$ = 8						; size = 4
??$_Val_type@PAVioHashString@@@std@@YAPAVioHashString@@PAV1@@Z PROC ; std::_Val_type<ioHashString *>, COMDAT

; 790  : 	return (0);

  00000	33 c0		 xor	 eax, eax

; 791  : 	}

  00002	c3		 ret	 0
??$_Val_type@PAVioHashString@@@std@@YAPAVioHashString@@PAV1@@Z ENDP ; std::_Val_type<ioHashString *>
_TEXT	ENDS
PUBLIC	??$_Val_type@PAUTargetInfo@ioAdhesiveMissileWeapon4@@@std@@YAPAUTargetInfo@ioAdhesiveMissileWeapon4@@PAU12@@Z ; std::_Val_type<ioAdhesiveMissileWeapon4::TargetInfo *>
; Function compile flags: /Ogsp
;	COMDAT ??$_Val_type@PAUTargetInfo@ioAdhesiveMissileWeapon4@@@std@@YAPAUTargetInfo@ioAdhesiveMissileWeapon4@@PAU12@@Z
_TEXT	SEGMENT
___formal$ = 8						; size = 4
??$_Val_type@PAUTargetInfo@ioAdhesiveMissileWeapon4@@@std@@YAPAUTargetInfo@ioAdhesiveMissileWeapon4@@PAU12@@Z PROC ; std::_Val_type<ioAdhesiveMissileWeapon4::TargetInfo *>, COMDAT

; 790  : 	return (0);

  00000	33 c0		 xor	 eax, eax

; 791  : 	}

  00002	c3		 ret	 0
??$_Val_type@PAUTargetInfo@ioAdhesiveMissileWeapon4@@@std@@YAPAUTargetInfo@ioAdhesiveMissileWeapon4@@PAU12@@Z ENDP ; std::_Val_type<ioAdhesiveMissileWeapon4::TargetInfo *>
_TEXT	ENDS
PUBLIC	??_GTargetInfo@ioAdhesiveMissileWeapon4@@QAEPAXI@Z ; ioAdhesiveMissileWeapon4::TargetInfo::`scalar deleting destructor'
; Function compile flags: /Ogsp
;	COMDAT ??_GTargetInfo@ioAdhesiveMissileWeapon4@@QAEPAXI@Z
_TEXT	SEGMENT
___flags$ = 8						; size = 4
??_GTargetInfo@ioAdhesiveMissileWeapon4@@QAEPAXI@Z PROC	; ioAdhesiveMissileWeapon4::TargetInfo::`scalar deleting destructor', COMDAT
; _this$ = ecx
  00000	55		 push	 ebp
  00001	8b ec		 mov	 ebp, esp
  00003	56		 push	 esi
  00004	8b f1		 mov	 esi, ecx
  00006	ff 15 00 00 00
	00		 call	 DWORD PTR __imp_??1ioHashString@@QAE@XZ
  0000c	f6 45 08 01	 test	 BYTE PTR ___flags$[ebp], 1
  00010	74 07		 je	 SHORT $LN1@scalar@2
  00012	56		 push	 esi
  00013	e8 00 00 00 00	 call	 ??3@YAXPAX@Z		; operator delete
  00018	59		 pop	 ecx
$LN1@scalar@2:
  00019	8b c6		 mov	 eax, esi
  0001b	5e		 pop	 esi
  0001c	5d		 pop	 ebp
  0001d	c2 04 00	 ret	 4
??_GTargetInfo@ioAdhesiveMissileWeapon4@@QAEPAXI@Z ENDP	; ioAdhesiveMissileWeapon4::TargetInfo::`scalar deleting destructor'
_TEXT	ENDS
PUBLIC	??$forward@VioHashString@@@std@@YA$$QAVioHashString@@AAV1@@Z ; std::forward<ioHashString>
; Function compile flags: /Ogsp
; File c:\program files (x86)\microsoft visual studio 10.0\vc\include\utility
;	COMDAT ??$forward@VioHashString@@@std@@YA$$QAVioHashString@@AAV1@@Z
_TEXT	SEGMENT
__Arg$ = 8						; size = 4
??$forward@VioHashString@@@std@@YA$$QAVioHashString@@AAV1@@Z PROC ; std::forward<ioHashString>, COMDAT

; 78   : 	{	// forward _Arg, given explicitly specified type parameter

  00000	55		 push	 ebp
  00001	8b ec		 mov	 ebp, esp

; 79   : 	return ((_Ty&&)_Arg);

  00003	8b 45 08	 mov	 eax, DWORD PTR __Arg$[ebp]

; 80   : 	}

  00006	5d		 pop	 ebp
  00007	c3		 ret	 0
??$forward@VioHashString@@@std@@YA$$QAVioHashString@@AAV1@@Z ENDP ; std::forward<ioHashString>
_TEXT	ENDS
PUBLIC	??$forward@UTargetInfo@ioAdhesiveMissileWeapon4@@@std@@YA$$QAUTargetInfo@ioAdhesiveMissileWeapon4@@AAU12@@Z ; std::forward<ioAdhesiveMissileWeapon4::TargetInfo>
; Function compile flags: /Ogsp
;	COMDAT ??$forward@UTargetInfo@ioAdhesiveMissileWeapon4@@@std@@YA$$QAUTargetInfo@ioAdhesiveMissileWeapon4@@AAU12@@Z
_TEXT	SEGMENT
__Arg$ = 8						; size = 4
??$forward@UTargetInfo@ioAdhesiveMissileWeapon4@@@std@@YA$$QAUTargetInfo@ioAdhesiveMissileWeapon4@@AAU12@@Z PROC ; std::forward<ioAdhesiveMissileWeapon4::TargetInfo>, COMDAT

; 78   : 	{	// forward _Arg, given explicitly specified type parameter

  00000	55		 push	 ebp
  00001	8b ec		 mov	 ebp, esp

; 79   : 	return ((_Ty&&)_Arg);

  00003	8b 45 08	 mov	 eax, DWORD PTR __Arg$[ebp]

; 80   : 	}

  00006	5d		 pop	 ebp
  00007	c3		 ret	 0
??$forward@UTargetInfo@ioAdhesiveMissileWeapon4@@@std@@YA$$QAUTargetInfo@ioAdhesiveMissileWeapon4@@AAU12@@Z ENDP ; std::forward<ioAdhesiveMissileWeapon4::TargetInfo>
_TEXT	ENDS
PUBLIC	??0D3DXVECTOR3@@QAE@XZ				; D3DXVECTOR3::D3DXVECTOR3
; Function compile flags: /Ogsp
; File c:\program files (x86)\microsoft directx sdk (june 2010)\include\d3dx9math.h
;	COMDAT ??0D3DXVECTOR3@@QAE@XZ
_TEXT	SEGMENT
??0D3DXVECTOR3@@QAE@XZ PROC				; D3DXVECTOR3::D3DXVECTOR3, COMDAT
; _this$ = ecx

; 165  :     D3DXVECTOR3() {};

  00000	8b c1		 mov	 eax, ecx
  00002	c3		 ret	 0
??0D3DXVECTOR3@@QAE@XZ ENDP				; D3DXVECTOR3::D3DXVECTOR3
_TEXT	ENDS
PUBLIC	??0D3DXQUATERNION@@QAE@XZ			; D3DXQUATERNION::D3DXQUATERNION
; Function compile flags: /Ogsp
;	COMDAT ??0D3DXQUATERNION@@QAE@XZ
_TEXT	SEGMENT
??0D3DXQUATERNION@@QAE@XZ PROC				; D3DXQUATERNION::D3DXQUATERNION, COMDAT
; _this$ = ecx

; 429  :     D3DXQUATERNION() {}

  00000	8b c1		 mov	 eax, ecx
  00002	c3		 ret	 0
??0D3DXQUATERNION@@QAE@XZ ENDP				; D3DXQUATERNION::D3DXQUATERNION
_TEXT	ENDS
PUBLIC	??0D3DXVECTOR3@@QAE@MMM@Z			; D3DXVECTOR3::D3DXVECTOR3
; Function compile flags: /Ogsp
; File c:\program files (x86)\microsoft directx sdk (june 2010)\include\d3dx9math.inl
;	COMDAT ??0D3DXVECTOR3@@QAE@MMM@Z
_TEXT	SEGMENT
_fx$ = 8						; size = 4
_fy$ = 12						; size = 4
_fz$ = 16						; size = 4
??0D3DXVECTOR3@@QAE@MMM@Z PROC				; D3DXVECTOR3::D3DXVECTOR3, COMDAT
; _this$ = ecx

; 303  : {

  00000	55		 push	 ebp
  00001	8b ec		 mov	 ebp, esp

; 304  :     x = fx;

  00003	f3 0f 10 45 08	 movss	 xmm0, DWORD PTR _fx$[ebp]
  00008	8b c1		 mov	 eax, ecx
  0000a	f3 0f 11 00	 movss	 DWORD PTR [eax], xmm0

; 305  :     y = fy;

  0000e	f3 0f 10 45 0c	 movss	 xmm0, DWORD PTR _fy$[ebp]
  00013	f3 0f 11 40 04	 movss	 DWORD PTR [eax+4], xmm0

; 306  :     z = fz;

  00018	f3 0f 10 45 10	 movss	 xmm0, DWORD PTR _fz$[ebp]
  0001d	f3 0f 11 40 08	 movss	 DWORD PTR [eax+8], xmm0

; 307  : }

  00022	5d		 pop	 ebp
  00023	c2 0c 00	 ret	 12			; 0000000cH
??0D3DXVECTOR3@@QAE@MMM@Z ENDP				; D3DXVECTOR3::D3DXVECTOR3
_TEXT	ENDS
PUBLIC	??YD3DXVECTOR3@@QAEAAU0@ABU0@@Z			; D3DXVECTOR3::operator+=
; Function compile flags: /Ogsp
;	COMDAT ??YD3DXVECTOR3@@QAEAAU0@ABU0@@Z
_TEXT	SEGMENT
_v$ = 8							; size = 4
??YD3DXVECTOR3@@QAEAAU0@ABU0@@Z PROC			; D3DXVECTOR3::operator+=, COMDAT
; _this$ = ecx

; 327  : {

  00000	55		 push	 ebp
  00001	8b ec		 mov	 ebp, esp
  00003	8b c1		 mov	 eax, ecx

; 328  :     x += v.x;

  00005	8b 4d 08	 mov	 ecx, DWORD PTR _v$[ebp]
  00008	f3 0f 10 01	 movss	 xmm0, DWORD PTR [ecx]
  0000c	f3 0f 10 08	 movss	 xmm1, DWORD PTR [eax]
  00010	0f 5a c0	 cvtps2pd xmm0, xmm0
  00013	0f 5a c9	 cvtps2pd xmm1, xmm1
  00016	f2 0f 58 c1	 addsd	 xmm0, xmm1

; 329  :     y += v.y;

  0001a	f3 0f 10 48 04	 movss	 xmm1, DWORD PTR [eax+4]
  0001f	66 0f 5a c0	 cvtpd2ps xmm0, xmm0
  00023	f3 0f 11 00	 movss	 DWORD PTR [eax], xmm0
  00027	f3 0f 10 41 04	 movss	 xmm0, DWORD PTR [ecx+4]
  0002c	0f 5a c0	 cvtps2pd xmm0, xmm0
  0002f	0f 5a c9	 cvtps2pd xmm1, xmm1
  00032	f2 0f 58 c1	 addsd	 xmm0, xmm1

; 330  :     z += v.z;

  00036	f3 0f 10 48 08	 movss	 xmm1, DWORD PTR [eax+8]
  0003b	66 0f 5a c0	 cvtpd2ps xmm0, xmm0
  0003f	f3 0f 11 40 04	 movss	 DWORD PTR [eax+4], xmm0
  00044	f3 0f 10 41 08	 movss	 xmm0, DWORD PTR [ecx+8]
  00049	0f 5a c0	 cvtps2pd xmm0, xmm0
  0004c	0f 5a c9	 cvtps2pd xmm1, xmm1
  0004f	f2 0f 58 c1	 addsd	 xmm0, xmm1
  00053	66 0f 5a c0	 cvtpd2ps xmm0, xmm0
  00057	f3 0f 11 40 08	 movss	 DWORD PTR [eax+8], xmm0

; 331  :     return *this;
; 332  : }

  0005c	5d		 pop	 ebp
  0005d	c2 04 00	 ret	 4
??YD3DXVECTOR3@@QAEAAU0@ABU0@@Z ENDP			; D3DXVECTOR3::operator+=
_TEXT	ENDS
PUBLIC	__mask@@NegFloat@
PUBLIC	??GD3DXVECTOR3@@QBE?AU0@XZ			; D3DXVECTOR3::operator-
;	COMDAT __mask@@NegFloat@
CONST	SEGMENT
__mask@@NegFloat@ DB 00H, 00H, 00H, 080H, 00H, 00H, 00H, 080H, 00H, 00H, 00H
	DB	080H, 00H, 00H, 00H, 080H
; Function compile flags: /Ogsp
CONST	ENDS
;	COMDAT ??GD3DXVECTOR3@@QBE?AU0@XZ
_TEXT	SEGMENT
___$ReturnUdt$ = 8					; size = 4
??GD3DXVECTOR3@@QBE?AU0@XZ PROC				; D3DXVECTOR3::operator-, COMDAT
; _this$ = ecx

; 372  : {

  00000	55		 push	 ebp
  00001	8b ec		 mov	 ebp, esp

; 373  :     return D3DXVECTOR3(-x, -y, -z);

  00003	f3 0f 10 05 00
	00 00 00	 movss	 xmm0, DWORD PTR __mask@@NegFloat@
  0000b	8b 45 08	 mov	 eax, DWORD PTR ___$ReturnUdt$[ebp]
  0000e	f3 0f 10 09	 movss	 xmm1, DWORD PTR [ecx]
  00012	0f 57 c8	 xorps	 xmm1, xmm0
  00015	f3 0f 11 08	 movss	 DWORD PTR [eax], xmm1
  00019	f3 0f 10 49 04	 movss	 xmm1, DWORD PTR [ecx+4]
  0001e	0f 57 c8	 xorps	 xmm1, xmm0
  00021	f3 0f 11 48 04	 movss	 DWORD PTR [eax+4], xmm1
  00026	f3 0f 10 49 08	 movss	 xmm1, DWORD PTR [ecx+8]
  0002b	0f 57 c8	 xorps	 xmm1, xmm0
  0002e	f3 0f 11 48 08	 movss	 DWORD PTR [eax+8], xmm1

; 374  : }

  00033	5d		 pop	 ebp
  00034	c2 04 00	 ret	 4
??GD3DXVECTOR3@@QBE?AU0@XZ ENDP				; D3DXVECTOR3::operator-
_TEXT	ENDS
PUBLIC	??HD3DXVECTOR3@@QBE?AU0@ABU0@@Z			; D3DXVECTOR3::operator+
; Function compile flags: /Ogsp
;	COMDAT ??HD3DXVECTOR3@@QBE?AU0@ABU0@@Z
_TEXT	SEGMENT
___$ReturnUdt$ = 8					; size = 4
_v$ = 12						; size = 4
??HD3DXVECTOR3@@QBE?AU0@ABU0@@Z PROC			; D3DXVECTOR3::operator+, COMDAT
; _this$ = ecx

; 380  : {

  00000	55		 push	 ebp
  00001	8b ec		 mov	 ebp, esp

; 381  :     return D3DXVECTOR3(x + v.x, y + v.y, z + v.z);

  00003	8b 55 0c	 mov	 edx, DWORD PTR _v$[ebp]
  00006	f3 0f 10 02	 movss	 xmm0, DWORD PTR [edx]
  0000a	f3 0f 10 09	 movss	 xmm1, DWORD PTR [ecx]
  0000e	8b 45 08	 mov	 eax, DWORD PTR ___$ReturnUdt$[ebp]
  00011	0f 5a c0	 cvtps2pd xmm0, xmm0
  00014	0f 5a c9	 cvtps2pd xmm1, xmm1
  00017	f2 0f 58 c1	 addsd	 xmm0, xmm1
  0001b	f3 0f 10 49 04	 movss	 xmm1, DWORD PTR [ecx+4]
  00020	66 0f 5a c0	 cvtpd2ps xmm0, xmm0
  00024	f3 0f 11 00	 movss	 DWORD PTR [eax], xmm0
  00028	f3 0f 10 42 04	 movss	 xmm0, DWORD PTR [edx+4]
  0002d	0f 5a c0	 cvtps2pd xmm0, xmm0
  00030	0f 5a c9	 cvtps2pd xmm1, xmm1
  00033	f2 0f 58 c1	 addsd	 xmm0, xmm1
  00037	f3 0f 10 49 08	 movss	 xmm1, DWORD PTR [ecx+8]
  0003c	66 0f 5a c0	 cvtpd2ps xmm0, xmm0
  00040	f3 0f 11 40 04	 movss	 DWORD PTR [eax+4], xmm0
  00045	f3 0f 10 42 08	 movss	 xmm0, DWORD PTR [edx+8]
  0004a	0f 5a c0	 cvtps2pd xmm0, xmm0
  0004d	0f 5a c9	 cvtps2pd xmm1, xmm1
  00050	f2 0f 58 c1	 addsd	 xmm0, xmm1
  00054	66 0f 5a c0	 cvtpd2ps xmm0, xmm0
  00058	f3 0f 11 40 08	 movss	 DWORD PTR [eax+8], xmm0

; 382  : }

  0005d	5d		 pop	 ebp
  0005e	c2 08 00	 ret	 8
??HD3DXVECTOR3@@QBE?AU0@ABU0@@Z ENDP			; D3DXVECTOR3::operator+
_TEXT	ENDS
PUBLIC	??GD3DXVECTOR3@@QBE?AU0@ABU0@@Z			; D3DXVECTOR3::operator-
; Function compile flags: /Ogsp
;	COMDAT ??GD3DXVECTOR3@@QBE?AU0@ABU0@@Z
_TEXT	SEGMENT
___$ReturnUdt$ = 8					; size = 4
_v$ = 12						; size = 4
??GD3DXVECTOR3@@QBE?AU0@ABU0@@Z PROC			; D3DXVECTOR3::operator-, COMDAT
; _this$ = ecx

; 386  : {

  00000	55		 push	 ebp
  00001	8b ec		 mov	 ebp, esp

; 387  :     return D3DXVECTOR3(x - v.x, y - v.y, z - v.z);

  00003	8b 55 0c	 mov	 edx, DWORD PTR _v$[ebp]
  00006	f3 0f 10 01	 movss	 xmm0, DWORD PTR [ecx]
  0000a	f3 0f 10 0a	 movss	 xmm1, DWORD PTR [edx]
  0000e	8b 45 08	 mov	 eax, DWORD PTR ___$ReturnUdt$[ebp]
  00011	0f 5a c0	 cvtps2pd xmm0, xmm0
  00014	0f 5a c9	 cvtps2pd xmm1, xmm1
  00017	f2 0f 5c c1	 subsd	 xmm0, xmm1
  0001b	f3 0f 10 4a 04	 movss	 xmm1, DWORD PTR [edx+4]
  00020	66 0f 5a c0	 cvtpd2ps xmm0, xmm0
  00024	f3 0f 11 00	 movss	 DWORD PTR [eax], xmm0
  00028	f3 0f 10 41 04	 movss	 xmm0, DWORD PTR [ecx+4]
  0002d	0f 5a c0	 cvtps2pd xmm0, xmm0
  00030	0f 5a c9	 cvtps2pd xmm1, xmm1
  00033	f2 0f 5c c1	 subsd	 xmm0, xmm1
  00037	f3 0f 10 4a 08	 movss	 xmm1, DWORD PTR [edx+8]
  0003c	66 0f 5a c0	 cvtpd2ps xmm0, xmm0
  00040	f3 0f 11 40 04	 movss	 DWORD PTR [eax+4], xmm0
  00045	f3 0f 10 41 08	 movss	 xmm0, DWORD PTR [ecx+8]
  0004a	0f 5a c0	 cvtps2pd xmm0, xmm0
  0004d	0f 5a c9	 cvtps2pd xmm1, xmm1
  00050	f2 0f 5c c1	 subsd	 xmm0, xmm1
  00054	66 0f 5a c0	 cvtpd2ps xmm0, xmm0
  00058	f3 0f 11 40 08	 movss	 DWORD PTR [eax+8], xmm0

; 388  : }

  0005d	5d		 pop	 ebp
  0005e	c2 08 00	 ret	 8
??GD3DXVECTOR3@@QBE?AU0@ABU0@@Z ENDP			; D3DXVECTOR3::operator-
_TEXT	ENDS
PUBLIC	??DD3DXVECTOR3@@QBE?AU0@M@Z			; D3DXVECTOR3::operator*
; Function compile flags: /Ogsp
;	COMDAT ??DD3DXVECTOR3@@QBE?AU0@M@Z
_TEXT	SEGMENT
___$ReturnUdt$ = 8					; size = 4
_f$ = 12						; size = 4
??DD3DXVECTOR3@@QBE?AU0@M@Z PROC			; D3DXVECTOR3::operator*, COMDAT
; _this$ = ecx

; 392  : {

  00000	55		 push	 ebp
  00001	8b ec		 mov	 ebp, esp

; 393  :     return D3DXVECTOR3(x * f, y * f, z * f);

  00003	f3 0f 10 4d 0c	 movss	 xmm1, DWORD PTR _f$[ebp]
  00008	f3 0f 10 01	 movss	 xmm0, DWORD PTR [ecx]
  0000c	8b 45 08	 mov	 eax, DWORD PTR ___$ReturnUdt$[ebp]
  0000f	0f 5a c0	 cvtps2pd xmm0, xmm0
  00012	0f 5a c9	 cvtps2pd xmm1, xmm1
  00015	f2 0f 59 c1	 mulsd	 xmm0, xmm1
  00019	f3 0f 10 4d 0c	 movss	 xmm1, DWORD PTR _f$[ebp]
  0001e	66 0f 5a c0	 cvtpd2ps xmm0, xmm0
  00022	f3 0f 11 00	 movss	 DWORD PTR [eax], xmm0
  00026	f3 0f 10 41 04	 movss	 xmm0, DWORD PTR [ecx+4]
  0002b	0f 5a c0	 cvtps2pd xmm0, xmm0
  0002e	0f 5a c9	 cvtps2pd xmm1, xmm1
  00031	f2 0f 59 c1	 mulsd	 xmm0, xmm1
  00035	f3 0f 10 4d 0c	 movss	 xmm1, DWORD PTR _f$[ebp]
  0003a	66 0f 5a c0	 cvtpd2ps xmm0, xmm0
  0003e	f3 0f 11 40 04	 movss	 DWORD PTR [eax+4], xmm0
  00043	f3 0f 10 41 08	 movss	 xmm0, DWORD PTR [ecx+8]
  00048	0f 5a c0	 cvtps2pd xmm0, xmm0
  0004b	0f 5a c9	 cvtps2pd xmm1, xmm1
  0004e	f2 0f 59 c1	 mulsd	 xmm0, xmm1
  00052	66 0f 5a c0	 cvtpd2ps xmm0, xmm0
  00056	f3 0f 11 40 08	 movss	 DWORD PTR [eax+8], xmm0

; 394  : }

  0005b	5d		 pop	 ebp
  0005c	c2 08 00	 ret	 8
??DD3DXVECTOR3@@QBE?AU0@M@Z ENDP			; D3DXVECTOR3::operator*
_TEXT	ENDS
PUBLIC	?D3DXVec3Length@@YAMPBUD3DXVECTOR3@@@Z		; D3DXVec3Length
; Function compile flags: /Ogsp
;	COMDAT ?D3DXVec3Length@@YAMPBUD3DXVECTOR3@@@Z
_TEXT	SEGMENT
tv169 = 8						; size = 4
tv160 = 8						; size = 4
_pV$ = 8						; size = 4
?D3DXVec3Length@@YAMPBUD3DXVECTOR3@@@Z PROC		; D3DXVec3Length, COMDAT

; 1710 : {

  00000	55		 push	 ebp
  00001	8b ec		 mov	 ebp, esp

; 1711 : #ifdef D3DX_DEBUG
; 1712 :     if(!pV)
; 1713 :         return 0.0f;
; 1714 : #endif
; 1715 : 
; 1716 : #ifdef __cplusplus
; 1717 :     return sqrtf(pV->x * pV->x + pV->y * pV->y + pV->z * pV->z);

  00003	8b 45 08	 mov	 eax, DWORD PTR _pV$[ebp]
  00006	d9 40 04	 fld	 DWORD PTR [eax+4]
  00009	d9 00		 fld	 DWORD PTR [eax]
  0000b	d9 40 08	 fld	 DWORD PTR [eax+8]
  0000e	d9 c1		 fld	 ST(1)
  00010	de ca		 fmulp	 ST(2), ST(0)
  00012	d9 c2		 fld	 ST(2)
  00014	de cb		 fmulp	 ST(3), ST(0)
  00016	d9 c9		 fxch	 ST(1)
  00018	de c2		 faddp	 ST(2), ST(0)
  0001a	d9 c0		 fld	 ST(0)
  0001c	de c9		 fmulp	 ST(1), ST(0)
  0001e	de c1		 faddp	 ST(1), ST(0)
  00020	d9 5d 08	 fstp	 DWORD PTR tv169[ebp]
  00023	d9 45 08	 fld	 DWORD PTR tv169[ebp]
  00026	e8 00 00 00 00	 call	 __CIsqrt
  0002b	d9 5d 08	 fstp	 DWORD PTR tv160[ebp]
  0002e	d9 45 08	 fld	 DWORD PTR tv160[ebp]

; 1718 : #else
; 1719 :     return (FLOAT) sqrt(pV->x * pV->x + pV->y * pV->y + pV->z * pV->z);
; 1720 : #endif
; 1721 : }

  00031	5d		 pop	 ebp
  00032	c3		 ret	 0
?D3DXVec3Length@@YAMPBUD3DXVECTOR3@@@Z ENDP		; D3DXVec3Length
_TEXT	ENDS
PUBLIC	?D3DXVec3Dot@@YAMPBUD3DXVECTOR3@@0@Z		; D3DXVec3Dot
; Function compile flags: /Ogsp
;	COMDAT ?D3DXVec3Dot@@YAMPBUD3DXVECTOR3@@0@Z
_TEXT	SEGMENT
tv188 = 8						; size = 4
_pV1$ = 8						; size = 4
_pV2$ = 12						; size = 4
?D3DXVec3Dot@@YAMPBUD3DXVECTOR3@@0@Z PROC		; D3DXVec3Dot, COMDAT

; 1736 : {

  00000	55		 push	 ebp
  00001	8b ec		 mov	 ebp, esp

; 1737 : #ifdef D3DX_DEBUG
; 1738 :     if(!pV1 || !pV2)
; 1739 :         return 0.0f;
; 1740 : #endif
; 1741 : 
; 1742 :     return pV1->x * pV2->x + pV1->y * pV2->y + pV1->z * pV2->z;

  00003	8b 45 08	 mov	 eax, DWORD PTR _pV1$[ebp]
  00006	8b 4d 0c	 mov	 ecx, DWORD PTR _pV2$[ebp]
  00009	d9 40 04	 fld	 DWORD PTR [eax+4]
  0000c	d8 49 04	 fmul	 DWORD PTR [ecx+4]
  0000f	d9 00		 fld	 DWORD PTR [eax]
  00011	d8 09		 fmul	 DWORD PTR [ecx]
  00013	de c1		 faddp	 ST(1), ST(0)
  00015	d9 40 08	 fld	 DWORD PTR [eax+8]
  00018	d8 49 08	 fmul	 DWORD PTR [ecx+8]
  0001b	de c1		 faddp	 ST(1), ST(0)
  0001d	d9 5d 08	 fstp	 DWORD PTR tv188[ebp]
  00020	d9 45 08	 fld	 DWORD PTR tv188[ebp]

; 1743 : }

  00023	5d		 pop	 ebp
  00024	c3		 ret	 0
?D3DXVec3Dot@@YAMPBUD3DXVECTOR3@@0@Z ENDP		; D3DXVec3Dot
_TEXT	ENDS
PUBLIC	?D3DXVec3Cross@@YAPAUD3DXVECTOR3@@PAU1@PBU1@1@Z	; D3DXVec3Cross
; Function compile flags: /Ogsp
;	COMDAT ?D3DXVec3Cross@@YAPAUD3DXVECTOR3@@PAU1@PBU1@1@Z
_TEXT	SEGMENT
_v$ = -12						; size = 12
_pOut$ = 8						; size = 4
_pV1$ = 12						; size = 4
_pV2$ = 16						; size = 4
?D3DXVec3Cross@@YAPAUD3DXVECTOR3@@PAU1@PBU1@1@Z PROC	; D3DXVec3Cross, COMDAT

; 1747 : {

  00000	55		 push	 ebp
  00001	8b ec		 mov	 ebp, esp
  00003	83 ec 0c	 sub	 esp, 12			; 0000000cH

; 1757 :     v.z = pV1->x * pV2->y - pV1->y * pV2->x;
; 1758 : 
; 1759 :     *pOut = v;

  00006	56		 push	 esi
  00007	57		 push	 edi

; 1748 :     D3DXVECTOR3 v;
; 1749 : 
; 1750 : #ifdef D3DX_DEBUG
; 1751 :     if(!pOut || !pV1 || !pV2)
; 1752 :         return NULL;
; 1753 : #endif
; 1754 : 
; 1755 :     v.x = pV1->y * pV2->z - pV1->z * pV2->y;

  00008	8b 45 0c	 mov	 eax, DWORD PTR _pV1$[ebp]
  0000b	f3 0f 10 40 04	 movss	 xmm0, DWORD PTR [eax+4]
  00010	f3 0f 10 50 08	 movss	 xmm2, DWORD PTR [eax+8]
  00015	8b 4d 10	 mov	 ecx, DWORD PTR _pV2$[ebp]
  00018	f3 0f 10 49 08	 movss	 xmm1, DWORD PTR [ecx+8]
  0001d	f3 0f 10 59 04	 movss	 xmm3, DWORD PTR [ecx+4]
  00022	0f 5a e8	 cvtps2pd xmm5, xmm0
  00025	0f 5a e1	 cvtps2pd xmm4, xmm1
  00028	0f 5a f2	 cvtps2pd xmm6, xmm2
  0002b	f2 0f 59 e5	 mulsd	 xmm4, xmm5

; 1756 :     v.y = pV1->z * pV2->x - pV1->x * pV2->z;

  0002f	0f 5a d2	 cvtps2pd xmm2, xmm2
  00032	0f 5a c9	 cvtps2pd xmm1, xmm1
  00035	0f 5a eb	 cvtps2pd xmm5, xmm3
  00038	f2 0f 59 ee	 mulsd	 xmm5, xmm6
  0003c	f2 0f 5c e5	 subsd	 xmm4, xmm5
  00040	f3 0f 10 28	 movss	 xmm5, DWORD PTR [eax]

; 1757 :     v.z = pV1->x * pV2->y - pV1->y * pV2->x;
; 1758 : 
; 1759 :     *pOut = v;

  00044	8b 45 08	 mov	 eax, DWORD PTR _pOut$[ebp]
  00047	66 0f 5a e4	 cvtpd2ps xmm4, xmm4
  0004b	f3 0f 11 65 f4	 movss	 DWORD PTR _v$[ebp], xmm4
  00050	f3 0f 10 21	 movss	 xmm4, DWORD PTR [ecx]
  00054	0f 5a f4	 cvtps2pd xmm6, xmm4
  00057	f2 0f 59 f2	 mulsd	 xmm6, xmm2
  0005b	0f 5a d5	 cvtps2pd xmm2, xmm5
  0005e	f2 0f 59 d1	 mulsd	 xmm2, xmm1
  00062	f2 0f 5c f2	 subsd	 xmm6, xmm2
  00066	66 0f 5a ce	 cvtpd2ps xmm1, xmm6
  0006a	f3 0f 11 4d f8	 movss	 DWORD PTR _v$[ebp+4], xmm1
  0006f	0f 5a c0	 cvtps2pd xmm0, xmm0
  00072	0f 5a d3	 cvtps2pd xmm2, xmm3
  00075	0f 5a cd	 cvtps2pd xmm1, xmm5
  00078	f2 0f 59 ca	 mulsd	 xmm1, xmm2
  0007c	8d 75 f4	 lea	 esi, DWORD PTR _v$[ebp]
  0007f	8b f8		 mov	 edi, eax
  00081	0f 5a d4	 cvtps2pd xmm2, xmm4
  00084	f2 0f 59 d0	 mulsd	 xmm2, xmm0
  00088	f2 0f 5c ca	 subsd	 xmm1, xmm2
  0008c	66 0f 5a c1	 cvtpd2ps xmm0, xmm1
  00090	f3 0f 11 45 fc	 movss	 DWORD PTR _v$[ebp+8], xmm0
  00095	a5		 movsd
  00096	a5		 movsd
  00097	a5		 movsd
  00098	5f		 pop	 edi
  00099	5e		 pop	 esi

; 1760 :     return pOut;
; 1761 : }

  0009a	c9		 leave
  0009b	c3		 ret	 0
?D3DXVec3Cross@@YAPAUD3DXVECTOR3@@PAU1@PBU1@1@Z ENDP	; D3DXVec3Cross
_TEXT	ENDS
PUBLIC	?_DECSTR@@YAXPADH@Z				; _DECSTR
; Function compile flags: /Ogsp
; File d:\lost saga for developer\youtube\tutorial\source\src\lsclient\stringprotect.h
;	COMDAT ?_DECSTR@@YAXPADH@Z
_TEXT	SEGMENT
_s$ = 8							; size = 4
_l$ = 12						; size = 4
?_DECSTR@@YAXPADH@Z PROC				; _DECSTR, COMDAT

; 40   : __forceinline void _DECSTR(char* s, int l){int i=0,l4=(l-1)/4,*p=(int*)s;s[l-1]=0;for(;i<l4;++i)*(p++)^=0xEAEBECED;for(i=l4*4;i<l-1;++i)s[i]^=0xED-i%4;}

  00000	55		 push	 ebp
  00001	8b ec		 mov	 ebp, esp
  00003	8b 4d 0c	 mov	 ecx, DWORD PTR _l$[ebp]
  00006	56		 push	 esi
  00007	8b 75 08	 mov	 esi, DWORD PTR _s$[ebp]
  0000a	57		 push	 edi
  0000b	8d 79 ff	 lea	 edi, DWORD PTR [ecx-1]
  0000e	8b c7		 mov	 eax, edi
  00010	99		 cdq
  00011	83 e2 03	 and	 edx, 3
  00014	03 c2		 add	 eax, edx
  00016	c1 f8 02	 sar	 eax, 2
  00019	8b d6		 mov	 edx, esi
  0001b	c6 44 0e ff 00	 mov	 BYTE PTR [esi+ecx-1], 0
  00020	85 c0		 test	 eax, eax
  00022	7e 0e		 jle	 SHORT $LN4@DECSTR
  00024	8b c8		 mov	 ecx, eax
$LL6@DECSTR:
  00026	81 32 ed ec eb
	ea		 xor	 DWORD PTR [edx], -353637139 ; eaebecedH
  0002c	83 c2 04	 add	 edx, 4
  0002f	49		 dec	 ecx
  00030	75 f4		 jne	 SHORT $LL6@DECSTR
$LN4@DECSTR:
  00032	c1 e0 02	 shl	 eax, 2
  00035	eb 17		 jmp	 SHORT $LN14@DECSTR
$LL3@DECSTR:
  00037	8b c8		 mov	 ecx, eax
  00039	81 e1 03 00 00
	80		 and	 ecx, -2147483645	; 80000003H
  0003f	79 05		 jns	 SHORT $LN13@DECSTR
  00041	49		 dec	 ecx
  00042	83 c9 fc	 or	 ecx, -4			; fffffffcH
  00045	41		 inc	 ecx
$LN13@DECSTR:
  00046	b2 ed		 mov	 dl, -19			; ffffffedH
  00048	2a d1		 sub	 dl, cl
  0004a	30 14 30	 xor	 BYTE PTR [eax+esi], dl
  0004d	40		 inc	 eax
$LN14@DECSTR:
  0004e	3b c7		 cmp	 eax, edi
  00050	7c e5		 jl	 SHORT $LL3@DECSTR
  00052	5f		 pop	 edi
  00053	5e		 pop	 esi
  00054	5d		 pop	 ebp
  00055	c3		 ret	 0
?_DECSTR@@YAXPADH@Z ENDP				; _DECSTR
_TEXT	ENDS
PUBLIC	?return57@@YAIXZ				; return57
; Function compile flags: /Ogsp
; File d:\lost saga for developer\youtube\tutorial\source\src\lsclient\veryoftenusedefine.h
;	COMDAT ?return57@@YAIXZ
_TEXT	SEGMENT
?return57@@YAIXZ PROC					; return57, COMDAT

; 15   : __forceinline unsigned int return57() { __asm mov eax, 57 };

  00000	b8 39 00 00 00	 mov	 eax, 57			; 00000039H
  00005	c3		 ret	 0
?return57@@YAIXZ ENDP					; return57
_TEXT	ENDS
PUBLIC	?GetGroup@ioGameEntity@@QBEPAVioEntityGroup@@XZ	; ioGameEntity::GetGroup
; Function compile flags: /Ogsp
; File d:\lost saga for developer\youtube\tutorial\source\src\lsclient\iogameentity.h
;	COMDAT ?GetGroup@ioGameEntity@@QBEPAVioEntityGroup@@XZ
_TEXT	SEGMENT
?GetGroup@ioGameEntity@@QBEPAVioEntityGroup@@XZ PROC	; ioGameEntity::GetGroup, COMDAT
; _this$ = ecx

; 166  : 	inline ioEntityGroup* GetGroup() const { return m_pGroup; }

  00000	8b 41 04	 mov	 eax, DWORD PTR [ecx+4]
  00003	c3		 ret	 0
?GetGroup@ioGameEntity@@QBEPAVioEntityGroup@@XZ ENDP	; ioGameEntity::GetGroup
_TEXT	ENDS
PUBLIC	??_R0?AVioGameEntity@@@8			; ioGameEntity `RTTI Type Descriptor'
PUBLIC	??_R0?AVioPlayEntity@@@8			; ioPlayEntity `RTTI Type Descriptor'
PUBLIC	?ToPlayEntity@@YAPAVioPlayEntity@@PAVioGameEntity@@@Z ; ToPlayEntity
EXTRN	___RTDynamicCast:PROC
;	COMDAT ??_R0?AVioGameEntity@@@8
; File d:\lost saga for developer\youtube\tutorial\source\src\lsclient\ioplayentity.h
_DATA	SEGMENT
??_R0?AVioGameEntity@@@8 DD FLAT:??_7type_info@@6B@	; ioGameEntity `RTTI Type Descriptor'
	DD	00H
	DB	'.?AVioGameEntity@@', 00H
_DATA	ENDS
;	COMDAT ??_R0?AVioPlayEntity@@@8
_DATA	SEGMENT
??_R0?AVioPlayEntity@@@8 DD FLAT:??_7type_info@@6B@	; ioPlayEntity `RTTI Type Descriptor'
	DD	00H
	DB	'.?AVioPlayEntity@@', 00H
; Function compile flags: /Ogsp
_DATA	ENDS
;	COMDAT ?ToPlayEntity@@YAPAVioPlayEntity@@PAVioGameEntity@@@Z
_TEXT	SEGMENT
_pObj$ = 8						; size = 4
?ToPlayEntity@@YAPAVioPlayEntity@@PAVioGameEntity@@@Z PROC ; ToPlayEntity, COMDAT

; 121  : {

  00000	55		 push	 ebp
  00001	8b ec		 mov	 ebp, esp
  00003	56		 push	 esi

; 122  : 	if( !pObj || pObj->GetTypeID() != ioGameEntity::GET_PLAY_ENTITY )

  00004	8b 75 08	 mov	 esi, DWORD PTR _pObj$[ebp]
  00007	85 f6		 test	 esi, esi
  00009	74 25		 je	 SHORT $LN1@ToPlayEnti
  0000b	8b 06		 mov	 eax, DWORD PTR [esi]
  0000d	8b ce		 mov	 ecx, esi
  0000f	ff 50 10	 call	 DWORD PTR [eax+16]
  00012	83 f8 01	 cmp	 eax, 1
  00015	75 19		 jne	 SHORT $LN1@ToPlayEnti

; 124  : 
; 125  : 	return dynamic_cast< ioPlayEntity* >( pObj );

  00017	6a 00		 push	 0
  00019	68 00 00 00 00	 push	 OFFSET ??_R0?AVioPlayEntity@@@8
  0001e	68 00 00 00 00	 push	 OFFSET ??_R0?AVioGameEntity@@@8
  00023	6a 00		 push	 0
  00025	56		 push	 esi
  00026	e8 00 00 00 00	 call	 ___RTDynamicCast
  0002b	83 c4 14	 add	 esp, 20			; 00000014H
  0002e	eb 02		 jmp	 SHORT $LN3@ToPlayEnti
$LN1@ToPlayEnti:

; 123  : 		return NULL;

  00030	33 c0		 xor	 eax, eax
$LN3@ToPlayEnti:
  00032	5e		 pop	 esi

; 126  : }

  00033	5d		 pop	 ebp
  00034	c3		 ret	 0
?ToPlayEntity@@YAPAVioPlayEntity@@PAVioGameEntity@@@Z ENDP ; ToPlayEntity
_TEXT	ENDS
PUBLIC	??_R0?AVioDummyChar@@@8				; ioDummyChar `RTTI Type Descriptor'
PUBLIC	?ToDummyChar@@YAPAVioDummyChar@@PAVioGameEntity@@@Z ; ToDummyChar
;	COMDAT ??_R0?AVioDummyChar@@@8
; File d:\lost saga for developer\youtube\tutorial\source\src\lsclient\iodummychar.h
_DATA	SEGMENT
??_R0?AVioDummyChar@@@8 DD FLAT:??_7type_info@@6B@	; ioDummyChar `RTTI Type Descriptor'
	DD	00H
	DB	'.?AVioDummyChar@@', 00H
; Function compile flags: /Ogsp
_DATA	ENDS
;	COMDAT ?ToDummyChar@@YAPAVioDummyChar@@PAVioGameEntity@@@Z
_TEXT	SEGMENT
_pObj$ = 8						; size = 4
?ToDummyChar@@YAPAVioDummyChar@@PAVioGameEntity@@@Z PROC ; ToDummyChar, COMDAT

; 758  : {

  00000	55		 push	 ebp
  00001	8b ec		 mov	 ebp, esp
  00003	56		 push	 esi

; 759  : 	ioPlayEntity *pPlay = ToPlayEntity( pObj );

  00004	ff 75 08	 push	 DWORD PTR _pObj$[ebp]
  00007	e8 00 00 00 00	 call	 ?ToPlayEntity@@YAPAVioPlayEntity@@PAVioGameEntity@@@Z ; ToPlayEntity
  0000c	8b f0		 mov	 esi, eax
  0000e	59		 pop	 ecx

; 760  : 	if( !pPlay || pPlay->GetSubType() != ioPlayEntity::PST_DUMMY_CHAR )

  0000f	85 f6		 test	 esi, esi
  00011	74 28		 je	 SHORT $LN1@ToDummyCha
  00013	8b 06		 mov	 eax, DWORD PTR [esi]
  00015	8b ce		 mov	 ecx, esi
  00017	ff 90 a4 00 00
	00		 call	 DWORD PTR [eax+164]
  0001d	83 f8 0a	 cmp	 eax, 10			; 0000000aH
  00020	75 19		 jne	 SHORT $LN1@ToDummyCha

; 762  : 
; 763  : 	return dynamic_cast< ioDummyChar* >( pPlay );

  00022	6a 00		 push	 0
  00024	68 00 00 00 00	 push	 OFFSET ??_R0?AVioDummyChar@@@8
  00029	68 00 00 00 00	 push	 OFFSET ??_R0?AVioPlayEntity@@@8
  0002e	6a 00		 push	 0
  00030	56		 push	 esi
  00031	e8 00 00 00 00	 call	 ___RTDynamicCast
  00036	83 c4 14	 add	 esp, 20			; 00000014H
  00039	eb 02		 jmp	 SHORT $LN3@ToDummyCha
$LN1@ToDummyCha:

; 761  : 		return NULL;

  0003b	33 c0		 xor	 eax, eax
$LN3@ToDummyCha:
  0003d	5e		 pop	 esi

; 764  : }

  0003e	5d		 pop	 ebp
  0003f	c3		 ret	 0
?ToDummyChar@@YAPAVioDummyChar@@PAVioGameEntity@@@Z ENDP ; ToDummyChar
_TEXT	ENDS
PUBLIC	?IsLive@ioWeapon@@QBE_NXZ			; ioWeapon::IsLive
; Function compile flags: /Ogsp
; File d:\lost saga for developer\youtube\tutorial\source\src\lsclient\ioweapon.h
;	COMDAT ?IsLive@ioWeapon@@QBE_NXZ
_TEXT	SEGMENT
?IsLive@ioWeapon@@QBE_NXZ PROC				; ioWeapon::IsLive, COMDAT
; _this$ = ecx

; 533  : 	inline bool IsLive() const { return m_bLive; }

  00000	8a 81 82 05 00
	00		 mov	 al, BYTE PTR [ecx+1410]
  00006	c3		 ret	 0
?IsLive@ioWeapon@@QBE_NXZ ENDP				; ioWeapon::IsLive
_TEXT	ENDS
PUBLIC	?GetOwnerName@ioWeapon@@QBEABVioHashString@@XZ	; ioWeapon::GetOwnerName
; Function compile flags: /Ogsp
;	COMDAT ?GetOwnerName@ioWeapon@@QBEABVioHashString@@XZ
_TEXT	SEGMENT
?GetOwnerName@ioWeapon@@QBEABVioHashString@@XZ PROC	; ioWeapon::GetOwnerName, COMDAT
; _this$ = ecx

; 636  : 	inline const ioHashString& GetOwnerName() const { return m_OwnerName; }

  00000	8d 41 10	 lea	 eax, DWORD PTR [ecx+16]
  00003	c3		 ret	 0
?GetOwnerName@ioWeapon@@QBEABVioHashString@@XZ ENDP	; ioWeapon::GetOwnerName
_TEXT	ENDS
PUBLIC	?GetParentSceneNode@ioWeapon@@QBEPAVioSceneNode@@XZ ; ioWeapon::GetParentSceneNode
; Function compile flags: /Ogsp
;	COMDAT ?GetParentSceneNode@ioWeapon@@QBEPAVioSceneNode@@XZ
_TEXT	SEGMENT
?GetParentSceneNode@ioWeapon@@QBEPAVioSceneNode@@XZ PROC ; ioWeapon::GetParentSceneNode, COMDAT
; _this$ = ecx

; 797  : 	ioSceneNode* GetParentSceneNode() const { return m_pSceneNode; }

  00000	8b 41 04	 mov	 eax, DWORD PTR [ecx+4]
  00003	c3		 ret	 0
?GetParentSceneNode@ioWeapon@@QBEPAVioSceneNode@@XZ ENDP ; ioWeapon::GetParentSceneNode
_TEXT	ENDS
PUBLIC	??_R0?AVioWallZone@@@8				; ioWallZone `RTTI Type Descriptor'
PUBLIC	?ToWallZone@@YAPAVioWallZone@@PAVioGameEntity@@@Z ; ToWallZone
;	COMDAT ??_R0?AVioWallZone@@@8
; File d:\lost saga for developer\youtube\tutorial\source\src\lsclient\iowallzone.h
_DATA	SEGMENT
??_R0?AVioWallZone@@@8 DD FLAT:??_7type_info@@6B@	; ioWallZone `RTTI Type Descriptor'
	DD	00H
	DB	'.?AVioWallZone@@', 00H
; Function compile flags: /Ogsp
_DATA	ENDS
;	COMDAT ?ToWallZone@@YAPAVioWallZone@@PAVioGameEntity@@@Z
_TEXT	SEGMENT
_pObj$ = 8						; size = 4
?ToWallZone@@YAPAVioWallZone@@PAVioGameEntity@@@Z PROC	; ToWallZone, COMDAT

; 50   : {

  00000	55		 push	 ebp
  00001	8b ec		 mov	 ebp, esp
  00003	56		 push	 esi

; 51   : 	ioPlayEntity *pPlay = ToPlayEntity( pObj );

  00004	ff 75 08	 push	 DWORD PTR _pObj$[ebp]
  00007	e8 00 00 00 00	 call	 ?ToPlayEntity@@YAPAVioPlayEntity@@PAVioGameEntity@@@Z ; ToPlayEntity
  0000c	8b f0		 mov	 esi, eax
  0000e	59		 pop	 ecx

; 52   : 	if( !pPlay || pPlay->GetSubType() != ioPlayEntity::PST_WALL_ZONE )

  0000f	85 f6		 test	 esi, esi
  00011	74 28		 je	 SHORT $LN1@ToWallZone
  00013	8b 06		 mov	 eax, DWORD PTR [esi]
  00015	8b ce		 mov	 ecx, esi
  00017	ff 90 a4 00 00
	00		 call	 DWORD PTR [eax+164]
  0001d	83 f8 0b	 cmp	 eax, 11			; 0000000bH
  00020	75 19		 jne	 SHORT $LN1@ToWallZone

; 54   : 
; 55   : 	return dynamic_cast< ioWallZone* >( pPlay );

  00022	6a 00		 push	 0
  00024	68 00 00 00 00	 push	 OFFSET ??_R0?AVioWallZone@@@8
  00029	68 00 00 00 00	 push	 OFFSET ??_R0?AVioPlayEntity@@@8
  0002e	6a 00		 push	 0
  00030	56		 push	 esi
  00031	e8 00 00 00 00	 call	 ___RTDynamicCast
  00036	83 c4 14	 add	 esp, 20			; 00000014H
  00039	eb 02		 jmp	 SHORT $LN3@ToWallZone
$LN1@ToWallZone:

; 53   : 		return NULL;

  0003b	33 c0		 xor	 eax, eax
$LN3@ToWallZone:
  0003d	5e		 pop	 esi

; 56   : }

  0003e	5d		 pop	 ebp
  0003f	c3		 ret	 0
?ToWallZone@@YAPAVioWallZone@@PAVioGameEntity@@@Z ENDP	; ToWallZone
_TEXT	ENDS
PUBLIC	??_R0?AVioSymbolStruct@@@8			; ioSymbolStruct `RTTI Type Descriptor'
PUBLIC	?ToSymbolStruct@@YAPAVioSymbolStruct@@PAVioGameEntity@@@Z ; ToSymbolStruct
;	COMDAT ??_R0?AVioSymbolStruct@@@8
; File d:\lost saga for developer\youtube\tutorial\source\src\lsclient\iosymbolstruct.h
_DATA	SEGMENT
??_R0?AVioSymbolStruct@@@8 DD FLAT:??_7type_info@@6B@	; ioSymbolStruct `RTTI Type Descriptor'
	DD	00H
	DB	'.?AVioSymbolStruct@@', 00H
; Function compile flags: /Ogsp
_DATA	ENDS
;	COMDAT ?ToSymbolStruct@@YAPAVioSymbolStruct@@PAVioGameEntity@@@Z
_TEXT	SEGMENT
_pObj$ = 8						; size = 4
?ToSymbolStruct@@YAPAVioSymbolStruct@@PAVioGameEntity@@@Z PROC ; ToSymbolStruct, COMDAT

; 171  : {

  00000	55		 push	 ebp
  00001	8b ec		 mov	 ebp, esp
  00003	56		 push	 esi

; 172  : 	ioPlayEntity *pPlay = ToPlayEntity( pObj );

  00004	ff 75 08	 push	 DWORD PTR _pObj$[ebp]
  00007	e8 00 00 00 00	 call	 ?ToPlayEntity@@YAPAVioPlayEntity@@PAVioGameEntity@@@Z ; ToPlayEntity
  0000c	8b f0		 mov	 esi, eax
  0000e	59		 pop	 ecx

; 173  : 	if( !pPlay || pPlay->GetSubType() != ioPlayEntity::PST_SYMBOL )

  0000f	85 f6		 test	 esi, esi
  00011	74 28		 je	 SHORT $LN1@ToSymbolSt
  00013	8b 06		 mov	 eax, DWORD PTR [esi]
  00015	8b ce		 mov	 ecx, esi
  00017	ff 90 a4 00 00
	00		 call	 DWORD PTR [eax+164]
  0001d	83 f8 01	 cmp	 eax, 1
  00020	75 19		 jne	 SHORT $LN1@ToSymbolSt

; 175  : 
; 176  : 	return dynamic_cast< ioSymbolStruct* >( pPlay );

  00022	6a 00		 push	 0
  00024	68 00 00 00 00	 push	 OFFSET ??_R0?AVioSymbolStruct@@@8
  00029	68 00 00 00 00	 push	 OFFSET ??_R0?AVioPlayEntity@@@8
  0002e	6a 00		 push	 0
  00030	56		 push	 esi
  00031	e8 00 00 00 00	 call	 ___RTDynamicCast
  00036	83 c4 14	 add	 esp, 20			; 00000014H
  00039	eb 02		 jmp	 SHORT $LN3@ToSymbolSt
$LN1@ToSymbolSt:

; 174  : 		return NULL;

  0003b	33 c0		 xor	 eax, eax
$LN3@ToSymbolSt:
  0003d	5e		 pop	 esi

; 177  : }

  0003e	5d		 pop	 ebp
  0003f	c3		 ret	 0
?ToSymbolStruct@@YAPAVioSymbolStruct@@PAVioGameEntity@@@Z ENDP ; ToSymbolStruct
_TEXT	ENDS
PUBLIC	??_R0?AVioBall@@@8				; ioBall `RTTI Type Descriptor'
PUBLIC	?ToBallStruct@@YAPAVioBall@@PAVioGameEntity@@@Z	; ToBallStruct
;	COMDAT ??_R0?AVioBall@@@8
; File d:\lost saga for developer\youtube\tutorial\source\src\lsclient\ioball.h
_DATA	SEGMENT
??_R0?AVioBall@@@8 DD FLAT:??_7type_info@@6B@		; ioBall `RTTI Type Descriptor'
	DD	00H
	DB	'.?AVioBall@@', 00H
; Function compile flags: /Ogsp
_DATA	ENDS
;	COMDAT ?ToBallStruct@@YAPAVioBall@@PAVioGameEntity@@@Z
_TEXT	SEGMENT
_pObj$ = 8						; size = 4
?ToBallStruct@@YAPAVioBall@@PAVioGameEntity@@@Z PROC	; ToBallStruct, COMDAT

; 252  : {

  00000	55		 push	 ebp
  00001	8b ec		 mov	 ebp, esp
  00003	56		 push	 esi

; 253  : 	ioPlayEntity *pPlay = ToPlayEntity( pObj );

  00004	ff 75 08	 push	 DWORD PTR _pObj$[ebp]
  00007	e8 00 00 00 00	 call	 ?ToPlayEntity@@YAPAVioPlayEntity@@PAVioGameEntity@@@Z ; ToPlayEntity
  0000c	8b f0		 mov	 esi, eax
  0000e	59		 pop	 ecx

; 254  : 	if( !pPlay || pPlay->GetSubType() != ioPlayEntity::PST_BALL )

  0000f	85 f6		 test	 esi, esi
  00011	74 28		 je	 SHORT $LN1@ToBallStru
  00013	8b 06		 mov	 eax, DWORD PTR [esi]
  00015	8b ce		 mov	 ecx, esi
  00017	ff 90 a4 00 00
	00		 call	 DWORD PTR [eax+164]
  0001d	83 f8 08	 cmp	 eax, 8
  00020	75 19		 jne	 SHORT $LN1@ToBallStru

; 256  : 
; 257  : 	return dynamic_cast< ioBall* >( pPlay );

  00022	6a 00		 push	 0
  00024	68 00 00 00 00	 push	 OFFSET ??_R0?AVioBall@@@8
  00029	68 00 00 00 00	 push	 OFFSET ??_R0?AVioPlayEntity@@@8
  0002e	6a 00		 push	 0
  00030	56		 push	 esi
  00031	e8 00 00 00 00	 call	 ___RTDynamicCast
  00036	83 c4 14	 add	 esp, 20			; 00000014H
  00039	eb 02		 jmp	 SHORT $LN3@ToBallStru
$LN1@ToBallStru:

; 255  : 		return NULL;

  0003b	33 c0		 xor	 eax, eax
$LN3@ToBallStru:
  0003d	5e		 pop	 esi

; 258  : }

  0003e	5d		 pop	 ebp
  0003f	c3		 ret	 0
?ToBallStruct@@YAPAVioBall@@PAVioGameEntity@@@Z ENDP	; ToBallStruct
_TEXT	ENDS
PUBLIC	??_R0?AVioPushStruct@@@8			; ioPushStruct `RTTI Type Descriptor'
PUBLIC	?ToPushStruct@@YAPAVioPushStruct@@PAVioGameEntity@@@Z ; ToPushStruct
;	COMDAT ??_R0?AVioPushStruct@@@8
; File d:\lost saga for developer\youtube\tutorial\source\src\lsclient\iopushstruct.h
_DATA	SEGMENT
??_R0?AVioPushStruct@@@8 DD FLAT:??_7type_info@@6B@	; ioPushStruct `RTTI Type Descriptor'
	DD	00H
	DB	'.?AVioPushStruct@@', 00H
; Function compile flags: /Ogsp
_DATA	ENDS
;	COMDAT ?ToPushStruct@@YAPAVioPushStruct@@PAVioGameEntity@@@Z
_TEXT	SEGMENT
_pObj$ = 8						; size = 4
?ToPushStruct@@YAPAVioPushStruct@@PAVioGameEntity@@@Z PROC ; ToPushStruct, COMDAT

; 440  : {

  00000	55		 push	 ebp
  00001	8b ec		 mov	 ebp, esp
  00003	56		 push	 esi

; 441  : 	ioPlayEntity *pPlay = ToPlayEntity( pObj );

  00004	ff 75 08	 push	 DWORD PTR _pObj$[ebp]
  00007	e8 00 00 00 00	 call	 ?ToPlayEntity@@YAPAVioPlayEntity@@PAVioGameEntity@@@Z ; ToPlayEntity
  0000c	8b f0		 mov	 esi, eax
  0000e	59		 pop	 ecx

; 442  : 	if( !pPlay || pPlay->GetSubType() != ioPlayEntity::PST_PUSHSTRUCT )

  0000f	85 f6		 test	 esi, esi
  00011	74 28		 je	 SHORT $LN1@ToPushStru
  00013	8b 06		 mov	 eax, DWORD PTR [esi]
  00015	8b ce		 mov	 ecx, esi
  00017	ff 90 a4 00 00
	00		 call	 DWORD PTR [eax+164]
  0001d	83 f8 02	 cmp	 eax, 2
  00020	75 19		 jne	 SHORT $LN1@ToPushStru

; 444  : 
; 445  : 	return dynamic_cast< ioPushStruct* >( pPlay );

  00022	6a 00		 push	 0
  00024	68 00 00 00 00	 push	 OFFSET ??_R0?AVioPushStruct@@@8
  00029	68 00 00 00 00	 push	 OFFSET ??_R0?AVioPlayEntity@@@8
  0002e	6a 00		 push	 0
  00030	56		 push	 esi
  00031	e8 00 00 00 00	 call	 ___RTDynamicCast
  00036	83 c4 14	 add	 esp, 20			; 00000014H
  00039	eb 02		 jmp	 SHORT $LN3@ToPushStru
$LN1@ToPushStru:

; 443  : 		return NULL;

  0003b	33 c0		 xor	 eax, eax
$LN3@ToPushStru:
  0003d	5e		 pop	 esi

; 446  : }

  0003e	5d		 pop	 ebp
  0003f	c3		 ret	 0
?ToPushStruct@@YAPAVioPushStruct@@PAVioGameEntity@@@Z ENDP ; ToPushStruct
_TEXT	ENDS
PUBLIC	?size@?$vector@VioHashString@@V?$allocator@VioHashString@@@std@@@std@@QBEIXZ ; std::vector<ioHashString,std::allocator<ioHashString> >::size
; Function compile flags: /Ogsp
; File c:\program files (x86)\microsoft visual studio 10.0\vc\include\vector
;	COMDAT ?size@?$vector@VioHashString@@V?$allocator@VioHashString@@@std@@@std@@QBEIXZ
_TEXT	SEGMENT
?size@?$vector@VioHashString@@V?$allocator@VioHashString@@@std@@@std@@QBEIXZ PROC ; std::vector<ioHashString,std::allocator<ioHashString> >::size, COMDAT
; _this$ = ecx

; 879  : 		return (this->_Mylast - this->_Myfirst);

  00000	8b 41 04	 mov	 eax, DWORD PTR [ecx+4]
  00003	2b 01		 sub	 eax, DWORD PTR [ecx]
  00005	c1 f8 04	 sar	 eax, 4

; 880  : 		}

  00008	c3		 ret	 0
?size@?$vector@VioHashString@@V?$allocator@VioHashString@@@std@@@std@@QBEIXZ ENDP ; std::vector<ioHashString,std::allocator<ioHashString> >::size
_TEXT	ENDS
PUBLIC	??_7?$CEncrypt@M@@6B@				; CEncrypt<float>::`vftable'
PUBLIC	??1?$CEncrypt@M@@UAE@XZ				; CEncrypt<float>::~CEncrypt<float>
PUBLIC	??_R4?$CEncrypt@M@@6B@				; CEncrypt<float>::`RTTI Complete Object Locator'
PUBLIC	??_R0?AV?$CEncrypt@M@@@8			; CEncrypt<float> `RTTI Type Descriptor'
PUBLIC	??_R3?$CEncrypt@M@@8				; CEncrypt<float>::`RTTI Class Hierarchy Descriptor'
PUBLIC	??_R2?$CEncrypt@M@@8				; CEncrypt<float>::`RTTI Base Class Array'
PUBLIC	??_R1A@?0A@EA@?$CEncrypt@M@@8			; CEncrypt<float>::`RTTI Base Class Descriptor at (0,-1,0,64)'
EXTRN	??1ccddaabb@@UAE@XZ:PROC			; ccddaabb::~ccddaabb
EXTRN	??_E?$CEncrypt@M@@UAEPAXI@Z:PROC		; CEncrypt<float>::`vector deleting destructor'
;	COMDAT ??_R1A@?0A@EA@?$CEncrypt@M@@8
; File d:\lost saga for developer\youtube\tutorial\source\src\lsclient\encryptvalue.h
rdata$r	SEGMENT
??_R1A@?0A@EA@?$CEncrypt@M@@8 DD FLAT:??_R0?AV?$CEncrypt@M@@@8 ; CEncrypt<float>::`RTTI Base Class Descriptor at (0,-1,0,64)'
	DD	00H
	DD	00H
	DD	0ffffffffH
	DD	00H
	DD	040H
	DD	FLAT:??_R3?$CEncrypt@M@@8
rdata$r	ENDS
;	COMDAT ??_R2?$CEncrypt@M@@8
rdata$r	SEGMENT
??_R2?$CEncrypt@M@@8 DD FLAT:??_R1A@?0A@EA@?$CEncrypt@M@@8 ; CEncrypt<float>::`RTTI Base Class Array'
rdata$r	ENDS
;	COMDAT ??_R3?$CEncrypt@M@@8
rdata$r	SEGMENT
??_R3?$CEncrypt@M@@8 DD 00H				; CEncrypt<float>::`RTTI Class Hierarchy Descriptor'
	DD	00H
	DD	01H
	DD	FLAT:??_R2?$CEncrypt@M@@8
rdata$r	ENDS
;	COMDAT ??_R0?AV?$CEncrypt@M@@@8
_DATA	SEGMENT
??_R0?AV?$CEncrypt@M@@@8 DD FLAT:??_7type_info@@6B@	; CEncrypt<float> `RTTI Type Descriptor'
	DD	00H
	DB	'.?AV?$CEncrypt@M@@', 00H
_DATA	ENDS
;	COMDAT ??_R4?$CEncrypt@M@@6B@
rdata$r	SEGMENT
??_R4?$CEncrypt@M@@6B@ DD 00H				; CEncrypt<float>::`RTTI Complete Object Locator'
	DD	00H
	DD	00H
	DD	FLAT:??_R0?AV?$CEncrypt@M@@@8
	DD	FLAT:??_R3?$CEncrypt@M@@8
rdata$r	ENDS
;	COMDAT ??_7?$CEncrypt@M@@6B@
CONST	SEGMENT
??_7?$CEncrypt@M@@6B@ DD FLAT:??_R4?$CEncrypt@M@@6B@	; CEncrypt<float>::`vftable'
	DD	FLAT:??_E?$CEncrypt@M@@UAEPAXI@Z
; Function compile flags: /Ogsp
CONST	ENDS
;	COMDAT ??1?$CEncrypt@M@@UAE@XZ
_TEXT	SEGMENT
??1?$CEncrypt@M@@UAE@XZ PROC				; CEncrypt<float>::~CEncrypt<float>, COMDAT
; _this$ = ecx

; 127  : 	{

  00000	c7 01 00 00 00
	00		 mov	 DWORD PTR [ecx], OFFSET ??_7?$CEncrypt@M@@6B@

; 128  : 	}

  00006	83 c1 0c	 add	 ecx, 12			; 0000000cH
  00009	e9 00 00 00 00	 jmp	 ??1ccddaabb@@UAE@XZ	; ccddaabb::~ccddaabb
??1?$CEncrypt@M@@UAE@XZ ENDP				; CEncrypt<float>::~CEncrypt<float>
; Function compile flags: /Ogsp
_TEXT	ENDS
;	COMDAT ??_G?$CEncrypt@M@@UAEPAXI@Z
_TEXT	SEGMENT
___flags$ = 8						; size = 4
??_G?$CEncrypt@M@@UAEPAXI@Z PROC			; CEncrypt<float>::`scalar deleting destructor', COMDAT
; _this$ = ecx
  00000	55		 push	 ebp
  00001	8b ec		 mov	 ebp, esp
  00003	56		 push	 esi
  00004	8b f1		 mov	 esi, ecx
  00006	8d 4e 0c	 lea	 ecx, DWORD PTR [esi+12]
  00009	c7 06 00 00 00
	00		 mov	 DWORD PTR [esi], OFFSET ??_7?$CEncrypt@M@@6B@
  0000f	e8 00 00 00 00	 call	 ??1ccddaabb@@UAE@XZ	; ccddaabb::~ccddaabb
  00014	f6 45 08 01	 test	 BYTE PTR ___flags$[ebp], 1
  00018	74 07		 je	 SHORT $LN1@scalar@3
  0001a	56		 push	 esi
  0001b	e8 00 00 00 00	 call	 ??3@YAXPAX@Z		; operator delete
  00020	59		 pop	 ecx
$LN1@scalar@3:
  00021	8b c6		 mov	 eax, esi
  00023	5e		 pop	 esi
  00024	5d		 pop	 ebp
  00025	c2 04 00	 ret	 4
??_G?$CEncrypt@M@@UAEPAXI@Z ENDP			; CEncrypt<float>::`scalar deleting destructor'
_TEXT	ENDS
PUBLIC	??1?$_Vector_val@VioHashString@@V?$allocator@VioHashString@@@std@@@std@@QAE@XZ ; std::_Vector_val<ioHashString,std::allocator<ioHashString> >::~_Vector_val<ioHashString,std::allocator<ioHashString> >
; Function compile flags: /Ogsp
; File c:\program files (x86)\microsoft visual studio 10.0\vc\include\vector
;	COMDAT ??1?$_Vector_val@VioHashString@@V?$allocator@VioHashString@@@std@@@std@@QAE@XZ
_TEXT	SEGMENT
??1?$_Vector_val@VioHashString@@V?$allocator@VioHashString@@@std@@@std@@QAE@XZ PROC ; std::_Vector_val<ioHashString,std::allocator<ioHashString> >::~_Vector_val<ioHashString,std::allocator<ioHashString> >, COMDAT
; _this$ = ecx

; 434  : 		}

  00000	c3		 ret	 0
??1?$_Vector_val@VioHashString@@V?$allocator@VioHashString@@@std@@@std@@QAE@XZ ENDP ; std::_Vector_val<ioHashString,std::allocator<ioHashString> >::~_Vector_val<ioHashString,std::allocator<ioHashString> >
_TEXT	ENDS
PUBLIC	??0?$allocator@VioHashString@@@std@@QAE@XZ	; std::allocator<ioHashString>::allocator<ioHashString>
; Function compile flags: /Ogsp
; File c:\program files (x86)\microsoft visual studio 10.0\vc\include\xmemory
;	COMDAT ??0?$allocator@VioHashString@@@std@@QAE@XZ
_TEXT	SEGMENT
??0?$allocator@VioHashString@@@std@@QAE@XZ PROC		; std::allocator<ioHashString>::allocator<ioHashString>, COMDAT
; _this$ = ecx

; 161  : 	_ALLOCATOR() _THROW0()

  00000	8b c1		 mov	 eax, ecx

; 162  : 		{	// construct default allocator (do nothing)
; 163  : 		}

  00002	c3		 ret	 0
??0?$allocator@VioHashString@@@std@@QAE@XZ ENDP		; std::allocator<ioHashString>::allocator<ioHashString>
_TEXT	ENDS
PUBLIC	??0?$allocator@VioHashString@@@std@@QAE@ABV01@@Z ; std::allocator<ioHashString>::allocator<ioHashString>
; Function compile flags: /Ogsp
;	COMDAT ??0?$allocator@VioHashString@@@std@@QAE@ABV01@@Z
_TEXT	SEGMENT
___formal$ = 8						; size = 4
??0?$allocator@VioHashString@@@std@@QAE@ABV01@@Z PROC	; std::allocator<ioHashString>::allocator<ioHashString>, COMDAT
; _this$ = ecx

; 165  : 	_ALLOCATOR(const _ALLOCATOR<_Ty>&) _THROW0()

  00000	8b c1		 mov	 eax, ecx

; 166  : 		{	// construct by copying (do nothing)
; 167  : 		}

  00002	c2 04 00	 ret	 4
??0?$allocator@VioHashString@@@std@@QAE@ABV01@@Z ENDP	; std::allocator<ioHashString>::allocator<ioHashString>
_TEXT	ENDS
PUBLIC	?EncryptValueToPool@?$CEncrypt@M@@AAEXPBD@Z	; CEncrypt<float>::EncryptValueToPool
EXTRN	?EncryptByte@ccddaabb@@QAEXPBDPADH@Z:PROC	; ccddaabb::EncryptByte
; Function compile flags: /Ogsp
; File d:\lost saga for developer\youtube\tutorial\source\src\lsclient\encryptvalue.h
;	COMDAT ?EncryptValueToPool@?$CEncrypt@M@@AAEXPBD@Z
_TEXT	SEGMENT
_value$ = 8						; size = 4
?EncryptValueToPool@?$CEncrypt@M@@AAEXPBD@Z PROC	; CEncrypt<float>::EncryptValueToPool, COMDAT
; _this$ = ecx

; 67   : 	{

  00000	55		 push	 ebp
  00001	8b ec		 mov	 ebp, esp

; 68   : 		m_RC5.EncryptByte( value, m_MemPool, max(m_ValueSize, DEFAULT_ENCRYPT) );

  00003	0f b7 41 06	 movzx	 eax, WORD PTR [ecx+6]
  00007	83 f8 04	 cmp	 eax, 4
  0000a	77 03		 ja	 SHORT $LN4@EncryptVal
  0000c	6a 04		 push	 4
  0000e	58		 pop	 eax
$LN4@EncryptVal:
  0000f	50		 push	 eax
  00010	8d 41 1c	 lea	 eax, DWORD PTR [ecx+28]
  00013	50		 push	 eax
  00014	ff 75 08	 push	 DWORD PTR _value$[ebp]
  00017	83 c1 0c	 add	 ecx, 12			; 0000000cH
  0001a	e8 00 00 00 00	 call	 ?EncryptByte@ccddaabb@@QAEXPBDPADH@Z ; ccddaabb::EncryptByte

; 69   : 		
; 70   : 	}

  0001f	5d		 pop	 ebp
  00020	c2 04 00	 ret	 4
?EncryptValueToPool@?$CEncrypt@M@@AAEXPBD@Z ENDP	; CEncrypt<float>::EncryptValueToPool
_TEXT	ENDS
PUBLIC	?Init@?$CEncrypt@M@@AAEXXZ			; CEncrypt<float>::Init
EXTRN	?Setup@ccddaabb@@QAEXPBDHH@Z:PROC		; ccddaabb::Setup
EXTRN	__imp__rand:PROC
EXTRN	__imp__timeGetTime@0:PROC
EXTRN	__imp__GetCurrentProcessId@0:PROC
; Function compile flags: /Ogsp
;	COMDAT ?Init@?$CEncrypt@M@@AAEXXZ
_TEXT	SEGMENT
_pid$ = -8						; size = 4
_tick$ = -4						; size = 4
?Init@?$CEncrypt@M@@AAEXXZ PROC				; CEncrypt<float>::Init, COMDAT
; _this$ = ecx

; 73   : 	{

  00000	55		 push	 ebp
  00001	8b ec		 mov	 ebp, esp
  00003	51		 push	 ecx
  00004	51		 push	 ecx
  00005	53		 push	 ebx
  00006	56		 push	 esi
  00007	57		 push	 edi
  00008	8b f1		 mov	 esi, ecx

; 74   : 		DWORD pid = GetCurrentProcessId();

  0000a	ff 15 00 00 00
	00		 call	 DWORD PTR __imp__GetCurrentProcessId@0
  00010	89 45 f8	 mov	 DWORD PTR _pid$[ebp], eax

; 75   : 		DWORD tick = timeGetTime();

  00013	ff 15 00 00 00
	00		 call	 DWORD PTR __imp__timeGetTime@0

; 76   : 		m_ValueSize    = sizeof(type);
; 77   : 		m_MemPoolPos   = (unsigned short)( rand()+pid+tick )%(MAX_MEM_POOL-m_ValueSize);

  00019	8b 3d 00 00 00
	00		 mov	 edi, DWORD PTR __imp__rand
  0001f	89 45 fc	 mov	 DWORD PTR _tick$[ebp], eax
  00022	6a 04		 push	 4
  00024	58		 pop	 eax
  00025	66 89 46 06	 mov	 WORD PTR [esi+6], ax
  00029	ff d7		 call	 edi
  0002b	03 45 f8	 add	 eax, DWORD PTR _pid$[ebp]
  0002e	0f b7 4e 06	 movzx	 ecx, WORD PTR [esi+6]
  00032	03 45 fc	 add	 eax, DWORD PTR _tick$[ebp]
  00035	6a 0c		 push	 12			; 0000000cH
  00037	0f b7 c0	 movzx	 eax, ax
  0003a	5b		 pop	 ebx
  0003b	99		 cdq
  0003c	2b d9		 sub	 ebx, ecx
  0003e	f7 fb		 idiv	 ebx
  00040	66 89 56 04	 mov	 WORD PTR [esi+4], dx

; 78   : 		m_EncryptSeed  = (char)( rand()+pid+tick )%256;

  00044	ff d7		 call	 edi
  00046	02 45 f8	 add	 al, BYTE PTR _pid$[ebp]
  00049	02 45 fc	 add	 al, BYTE PTR _tick$[ebp]
  0004c	0f be c0	 movsx	 eax, al
  0004f	25 ff 00 00 80	 and	 eax, -2147483393	; 800000ffH
  00054	79 07		 jns	 SHORT $LN8@Init
  00056	48		 dec	 eax
  00057	0d 00 ff ff ff	 or	 eax, -256		; ffffff00H
  0005c	40		 inc	 eax
$LN8@Init:
  0005d	88 46 08	 mov	 BYTE PTR [esi+8], al

; 79   : 
; 80   : 		for (int i = 0; i < MAX_MEM_POOL ; i++)

  00060	33 db		 xor	 ebx, ebx
$LL3@Init:

; 81   : 			m_MemPool[i] = (char)( rand()+pid+tick )%256; // 

  00062	ff d7		 call	 edi
  00064	02 45 f8	 add	 al, BYTE PTR _pid$[ebp]
  00067	02 45 fc	 add	 al, BYTE PTR _tick$[ebp]
  0006a	0f be c0	 movsx	 eax, al
  0006d	25 ff 00 00 80	 and	 eax, -2147483393	; 800000ffH
  00072	79 07		 jns	 SHORT $LN9@Init
  00074	48		 dec	 eax
  00075	0d 00 ff ff ff	 or	 eax, -256		; ffffff00H
  0007a	40		 inc	 eax
$LN9@Init:
  0007b	88 44 1e 1c	 mov	 BYTE PTR [esi+ebx+28], al
  0007f	43		 inc	 ebx
  00080	83 fb 0c	 cmp	 ebx, 12			; 0000000cH
  00083	7c dd		 jl	 SHORT $LL3@Init

; 82   : 
; 83   : 		//UJ 130913, : szKey  
; 84   : 		//char szKey[ccddaabb::KEY_SIZE];//="";
; 85   : 		//for (int i = 0; i < ccddaabb::KEY_SIZE  ; i++)
; 86   : 		//	szKey[i] = (char)( rand()+pid+tick )%256; // 
; 87   : 		m_RC5.Setup( NULL, pid, tick );

  00085	ff 75 fc	 push	 DWORD PTR _tick$[ebp]
  00088	8d 4e 0c	 lea	 ecx, DWORD PTR [esi+12]
  0008b	ff 75 f8	 push	 DWORD PTR _pid$[ebp]
  0008e	6a 00		 push	 0
  00090	e8 00 00 00 00	 call	 ?Setup@ccddaabb@@QAEXPBDHH@Z ; ccddaabb::Setup
  00095	5f		 pop	 edi
  00096	5e		 pop	 esi
  00097	5b		 pop	 ebx

; 88   : 
; 89   : #ifdef _NOTUSE
; 90   : 		m_value        = 0;
; 91   : 		EncryptValueToPool((char*)&m_value);
; 92   : 		Debug();
; 93   : #endif
; 94   : 	}

  00098	c9		 leave
  00099	c3		 ret	 0
?Init@?$CEncrypt@M@@AAEXXZ ENDP				; CEncrypt<float>::Init
_TEXT	ENDS
PUBLIC	?DecryptValueToPool@?$CEncrypt@M@@QAEXPAM@Z	; CEncrypt<float>::DecryptValueToPool
EXTRN	?DecryptByte@ccddaabb@@QBEXPBDPADH@Z:PROC	; ccddaabb::DecryptByte
; Function compile flags: /Ogsp
;	COMDAT ?DecryptValueToPool@?$CEncrypt@M@@QAEXPAM@Z
_TEXT	SEGMENT
_value$ = 8						; size = 4
?DecryptValueToPool@?$CEncrypt@M@@QAEXPAM@Z PROC	; CEncrypt<float>::DecryptValueToPool, COMDAT
; _this$ = ecx

; 1648 : 	{

  00000	55		 push	 ebp
  00001	8b ec		 mov	 ebp, esp
  00003	56		 push	 esi

; 1649 : 		m_RC5.DecryptByte( m_MemPool, m_TempMem, 4 );

  00004	8d 71 28	 lea	 esi, DWORD PTR [ecx+40]
  00007	6a 04		 push	 4
  00009	8d 41 1c	 lea	 eax, DWORD PTR [ecx+28]
  0000c	56		 push	 esi
  0000d	50		 push	 eax
  0000e	83 c1 0c	 add	 ecx, 12			; 0000000cH
  00011	e8 00 00 00 00	 call	 ?DecryptByte@ccddaabb@@QBEXPBDPADH@Z ; ccddaabb::DecryptByte

; 1650 : 		*value = *((float*)m_TempMem);

  00016	d9 06		 fld	 DWORD PTR [esi]
  00018	8b 45 08	 mov	 eax, DWORD PTR _value$[ebp]
  0001b	d9 18		 fstp	 DWORD PTR [eax]
  0001d	5e		 pop	 esi

; 1651 : 	}

  0001e	5d		 pop	 ebp
  0001f	c2 04 00	 ret	 4
?DecryptValueToPool@?$CEncrypt@M@@QAEXPAM@Z ENDP	; CEncrypt<float>::DecryptValueToPool
_TEXT	ENDS
PUBLIC	?DecryptValueToPool@?$CEncrypt@W4TeamType@@@@QAEXPAW4TeamType@@@Z ; CEncrypt<enum TeamType>::DecryptValueToPool
; Function compile flags: /Ogsp
;	COMDAT ?DecryptValueToPool@?$CEncrypt@W4TeamType@@@@QAEXPAW4TeamType@@@Z
_TEXT	SEGMENT
_value$ = 8						; size = 4
?DecryptValueToPool@?$CEncrypt@W4TeamType@@@@QAEXPAW4TeamType@@@Z PROC ; CEncrypt<enum TeamType>::DecryptValueToPool, COMDAT
; _this$ = ecx

; 2959 : 	{

  00000	55		 push	 ebp
  00001	8b ec		 mov	 ebp, esp
  00003	56		 push	 esi

; 2960 : 		m_RC5.DecryptByte( m_MemPool, m_TempMem, sizeof(TeamType) );

  00004	8d 71 28	 lea	 esi, DWORD PTR [ecx+40]
  00007	6a 04		 push	 4
  00009	8d 41 1c	 lea	 eax, DWORD PTR [ecx+28]
  0000c	56		 push	 esi
  0000d	50		 push	 eax
  0000e	83 c1 0c	 add	 ecx, 12			; 0000000cH
  00011	e8 00 00 00 00	 call	 ?DecryptByte@ccddaabb@@QBEXPBDPADH@Z ; ccddaabb::DecryptByte

; 2961 : 		*value = *((TeamType*)m_TempMem);

  00016	8b 06		 mov	 eax, DWORD PTR [esi]
  00018	8b 4d 08	 mov	 ecx, DWORD PTR _value$[ebp]
  0001b	89 01		 mov	 DWORD PTR [ecx], eax
  0001d	5e		 pop	 esi

; 2962 : 	}

  0001e	5d		 pop	 ebp
  0001f	c2 04 00	 ret	 4
?DecryptValueToPool@?$CEncrypt@W4TeamType@@@@QAEXPAW4TeamType@@@Z ENDP ; CEncrypt<enum TeamType>::DecryptValueToPool
_TEXT	ENDS
PUBLIC	?_Xlen@?$vector@VioHashString@@V?$allocator@VioHashString@@@std@@@std@@IBEXXZ ; std::vector<ioHashString,std::allocator<ioHashString> >::_Xlen
; Function compile flags: /Ogsp
; File c:\program files (x86)\microsoft visual studio 10.0\vc\include\vector
;	COMDAT ?_Xlen@?$vector@VioHashString@@V?$allocator@VioHashString@@@std@@@std@@IBEXXZ
_TEXT	SEGMENT
?_Xlen@?$vector@VioHashString@@V?$allocator@VioHashString@@@std@@@std@@IBEXXZ PROC ; std::vector<ioHashString,std::allocator<ioHashString> >::_Xlen, COMDAT
; _this$ = ecx

; 1427 : 		_Xlength_error("vector<T> too long");

  00000	68 00 00 00 00	 push	 OFFSET ??_C@_0BD@OLBABOEK@vector?$DMT?$DO?5too?5long?$AA@
  00005	ff 15 00 00 00
	00		 call	 DWORD PTR __imp_?_Xlength_error@std@@YAXPBD@Z
$LN4@Xlen@2:
$LN3@Xlen@2:
  0000b	cc		 int	 3
?_Xlen@?$vector@VioHashString@@V?$allocator@VioHashString@@@std@@@std@@IBEXXZ ENDP ; std::vector<ioHashString,std::allocator<ioHashString> >::_Xlen
_TEXT	ENDS
PUBLIC	?deallocate@?$allocator@VioHashString@@@std@@QAEXPAVioHashString@@I@Z ; std::allocator<ioHashString>::deallocate
; Function compile flags: /Ogsp
; File c:\program files (x86)\microsoft visual studio 10.0\vc\include\xmemory
;	COMDAT ?deallocate@?$allocator@VioHashString@@@std@@QAEXPAVioHashString@@I@Z
_TEXT	SEGMENT
__Ptr$ = 8						; size = 4
___formal$ = 12						; size = 4
?deallocate@?$allocator@VioHashString@@@std@@QAEXPAVioHashString@@I@Z PROC ; std::allocator<ioHashString>::deallocate, COMDAT
; _this$ = ecx

; 181  : 		{	// deallocate object at _Ptr, ignore size

  00000	55		 push	 ebp
  00001	8b ec		 mov	 ebp, esp

; 182  : 		::operator delete(_Ptr);

  00003	ff 75 08	 push	 DWORD PTR __Ptr$[ebp]
  00006	e8 00 00 00 00	 call	 ??3@YAXPAX@Z		; operator delete
  0000b	59		 pop	 ecx

; 183  : 		}

  0000c	5d		 pop	 ebp
  0000d	c2 08 00	 ret	 8
?deallocate@?$allocator@VioHashString@@@std@@QAEXPAVioHashString@@I@Z ENDP ; std::allocator<ioHashString>::deallocate
_TEXT	ENDS
PUBLIC	?max_size@?$allocator@VioHashString@@@std@@QBEIXZ ; std::allocator<ioHashString>::max_size
; Function compile flags: /Ogsp
;	COMDAT ?max_size@?$allocator@VioHashString@@@std@@QBEIXZ
_TEXT	SEGMENT
?max_size@?$allocator@VioHashString@@@std@@QBEIXZ PROC	; std::allocator<ioHashString>::max_size, COMDAT
; _this$ = ecx

; 218  : 		_SIZT _Count = (_SIZT)(-1) / sizeof (_Ty);
; 219  : 		return (0 < _Count ? _Count : 1);

  00000	b8 ff ff ff 0f	 mov	 eax, 268435455		; 0fffffffH

; 220  : 		}

  00005	c3		 ret	 0
?max_size@?$allocator@VioHashString@@@std@@QBEIXZ ENDP	; std::allocator<ioHashString>::max_size
_TEXT	ENDS
PUBLIC	??$_Allocate@VioHashString@@@std@@YAPAVioHashString@@IPAV1@@Z ; std::_Allocate<ioHashString>
; Function compile flags: /Ogsp
;	COMDAT ??$_Allocate@VioHashString@@@std@@YAPAVioHashString@@IPAV1@@Z
_TEXT	SEGMENT
$T535511 = -12						; size = 12
$T535515 = 8						; size = 4
__Count$ = 8						; size = 4
___formal$ = 12						; size = 4
??$_Allocate@VioHashString@@@std@@YAPAVioHashString@@IPAV1@@Z PROC ; std::_Allocate<ioHashString>, COMDAT

; 30   : 	{	// allocate storage for _Count elements of type _Ty

  00000	55		 push	 ebp
  00001	8b ec		 mov	 ebp, esp

; 31   : 	void *_Ptr = 0;
; 32   : 
; 33   : 	if (_Count <= 0)

  00003	8b 4d 08	 mov	 ecx, DWORD PTR __Count$[ebp]
  00006	83 ec 0c	 sub	 esp, 12			; 0000000cH
  00009	33 c0		 xor	 eax, eax
  0000b	85 c9		 test	 ecx, ecx

; 34   : 		_Count = 0;
; 35   : 	else if (((_SIZT)(-1) / sizeof (_Ty) < _Count)

  0000d	74 3c		 je	 SHORT $LN5@Allocate@2

; 36   : 		|| (_Ptr = ::operator new(_Count * sizeof (_Ty))) == 0)

  0000f	81 f9 ff ff ff
	0f		 cmp	 ecx, 268435455		; 0fffffffH
  00015	77 0e		 ja	 SHORT $LN1@Allocate@2
  00017	c1 e1 04	 shl	 ecx, 4
  0001a	51		 push	 ecx
  0001b	e8 00 00 00 00	 call	 ??2@YAPAXI@Z		; operator new
  00020	59		 pop	 ecx
  00021	85 c0		 test	 eax, eax

; 38   : 
; 39   : 	return ((_Ty _FARQ *)_Ptr);

  00023	75 26		 jne	 SHORT $LN5@Allocate@2
$LN1@Allocate@2:

; 37   : 		_THROW_NCEE(bad_alloc, 0);

  00025	83 65 08 00	 and	 DWORD PTR $T535515[ebp], 0
  00029	8d 45 08	 lea	 eax, DWORD PTR $T535515[ebp]
  0002c	50		 push	 eax
  0002d	8d 4d f4	 lea	 ecx, DWORD PTR $T535511[ebp]
  00030	ff 15 00 00 00
	00		 call	 DWORD PTR __imp_??0exception@std@@QAE@ABQBD@Z
  00036	68 00 00 00 00	 push	 OFFSET __TI2?AVbad_alloc@std@@
  0003b	8d 45 f4	 lea	 eax, DWORD PTR $T535511[ebp]
  0003e	50		 push	 eax
  0003f	c7 45 f4 00 00
	00 00		 mov	 DWORD PTR $T535511[ebp], OFFSET ??_7bad_alloc@std@@6B@
  00046	e8 00 00 00 00	 call	 __CxxThrowException@8
$LN10@Allocate@2:
$LN5@Allocate@2:

; 40   : 	}

  0004b	c9		 leave
  0004c	c3		 ret	 0
$LN9@Allocate@2:
??$_Allocate@VioHashString@@@std@@YAPAVioHashString@@IPAV1@@Z ENDP ; std::_Allocate<ioHashString>
_TEXT	ENDS
EXTRN	__imp_??0exception@std@@QAE@ABV01@@Z:PROC
; Function compile flags: /Ogsp
;	COMDAT ??0bad_alloc@std@@QAE@ABV01@@Z
_TEXT	SEGMENT
___that$ = 8						; size = 4
??0bad_alloc@std@@QAE@ABV01@@Z PROC			; std::bad_alloc::bad_alloc, COMDAT
; _this$ = ecx
  00000	55		 push	 ebp
  00001	8b ec		 mov	 ebp, esp
  00003	56		 push	 esi
  00004	ff 75 08	 push	 DWORD PTR ___that$[ebp]
  00007	8b f1		 mov	 esi, ecx
  00009	ff 15 00 00 00
	00		 call	 DWORD PTR __imp_??0exception@std@@QAE@ABV01@@Z
  0000f	c7 06 00 00 00
	00		 mov	 DWORD PTR [esi], OFFSET ??_7bad_alloc@std@@6B@
  00015	8b c6		 mov	 eax, esi
  00017	5e		 pop	 esi
  00018	5d		 pop	 ebp
  00019	c2 04 00	 ret	 4
??0bad_alloc@std@@QAE@ABV01@@Z ENDP			; std::bad_alloc::bad_alloc
_TEXT	ENDS
PUBLIC	??$forward@ABVioHashString@@@std@@YAABVioHashString@@ABV1@@Z ; std::forward<ioHashString const &>
; Function compile flags: /Ogsp
; File c:\program files (x86)\microsoft visual studio 10.0\vc\include\utility
;	COMDAT ??$forward@ABVioHashString@@@std@@YAABVioHashString@@ABV1@@Z
_TEXT	SEGMENT
__Arg$ = 8						; size = 4
??$forward@ABVioHashString@@@std@@YAABVioHashString@@ABV1@@Z PROC ; std::forward<ioHashString const &>, COMDAT

; 78   : 	{	// forward _Arg, given explicitly specified type parameter

  00000	55		 push	 ebp
  00001	8b ec		 mov	 ebp, esp

; 79   : 	return ((_Ty&&)_Arg);

  00003	8b 45 08	 mov	 eax, DWORD PTR __Arg$[ebp]

; 80   : 	}

  00006	5d		 pop	 ebp
  00007	c3		 ret	 0
??$forward@ABVioHashString@@@std@@YAABVioHashString@@ABV1@@Z ENDP ; std::forward<ioHashString const &>
_TEXT	ENDS
PUBLIC	??$forward@AAVioHashString@@@std@@YAAAVioHashString@@AAV1@@Z ; std::forward<ioHashString &>
; Function compile flags: /Ogsp
;	COMDAT ??$forward@AAVioHashString@@@std@@YAAAVioHashString@@AAV1@@Z
_TEXT	SEGMENT
__Arg$ = 8						; size = 4
??$forward@AAVioHashString@@@std@@YAAAVioHashString@@AAV1@@Z PROC ; std::forward<ioHashString &>, COMDAT

; 78   : 	{	// forward _Arg, given explicitly specified type parameter

  00000	55		 push	 ebp
  00001	8b ec		 mov	 ebp, esp

; 79   : 	return ((_Ty&&)_Arg);

  00003	8b 45 08	 mov	 eax, DWORD PTR __Arg$[ebp]

; 80   : 	}

  00006	5d		 pop	 ebp
  00007	c3		 ret	 0
??$forward@AAVioHashString@@@std@@YAAAVioHashString@@AAV1@@Z ENDP ; std::forward<ioHashString &>
_TEXT	ENDS
PUBLIC	??$_Ptr_cat@VioHashString@@V1@@std@@YA?AU_Nonscalar_ptr_iterator_tag@0@PAVioHashString@@0@Z ; std::_Ptr_cat<ioHashString,ioHashString>
; Function compile flags: /Ogsp
; File c:\program files (x86)\microsoft visual studio 10.0\vc\include\xutility
;	COMDAT ??$_Ptr_cat@VioHashString@@V1@@std@@YA?AU_Nonscalar_ptr_iterator_tag@0@PAVioHashString@@0@Z
_TEXT	SEGMENT
__Cat$ = -1						; size = 1
___formal$ = 8						; size = 4
___formal$ = 12						; size = 4
??$_Ptr_cat@VioHashString@@V1@@std@@YA?AU_Nonscalar_ptr_iterator_tag@0@PAVioHashString@@0@Z PROC ; std::_Ptr_cat<ioHashString,ioHashString>, COMDAT

; 516  : 	{	// return pointer category from pointers

  00000	55		 push	 ebp
  00001	8b ec		 mov	 ebp, esp
  00003	51		 push	 ecx

; 517  : 	typename _Ptr_cat_helper<_Elem1, _Elem2>::_Type _Cat;
; 518  : 	return (_Cat);

  00004	8a 45 ff	 mov	 al, BYTE PTR __Cat$[ebp]

; 519  : 	}

  00007	c9		 leave
  00008	c3		 ret	 0
??$_Ptr_cat@VioHashString@@V1@@std@@YA?AU_Nonscalar_ptr_iterator_tag@0@PAVioHashString@@0@Z ENDP ; std::_Ptr_cat<ioHashString,ioHashString>
_TEXT	ENDS
PUBLIC	??_GioHashString@@QAEPAXI@Z			; ioHashString::`scalar deleting destructor'
; Function compile flags: /Ogsp
;	COMDAT ??_GioHashString@@QAEPAXI@Z
_TEXT	SEGMENT
___flags$ = 8						; size = 4
??_GioHashString@@QAEPAXI@Z PROC			; ioHashString::`scalar deleting destructor', COMDAT
; _this$ = ecx
  00000	55		 push	 ebp
  00001	8b ec		 mov	 ebp, esp
  00003	56		 push	 esi
  00004	8b f1		 mov	 esi, ecx
  00006	ff 15 00 00 00
	00		 call	 DWORD PTR __imp_??1ioHashString@@QAE@XZ
  0000c	f6 45 08 01	 test	 BYTE PTR ___flags$[ebp], 1
  00010	74 07		 je	 SHORT $LN1@scalar@4
  00012	56		 push	 esi
  00013	e8 00 00 00 00	 call	 ??3@YAXPAX@Z		; operator delete
  00018	59		 pop	 ecx
$LN1@scalar@4:
  00019	8b c6		 mov	 eax, esi
  0001b	5e		 pop	 esi
  0001c	5d		 pop	 ebp
  0001d	c2 04 00	 ret	 4
??_GioHashString@@QAEPAXI@Z ENDP			; ioHashString::`scalar deleting destructor'
_TEXT	ENDS
PUBLIC	??$_Construct@VioHashString@@ABV1@@std@@YAXPAVioHashString@@ABV1@@Z ; std::_Construct<ioHashString,ioHashString const &>
;	COMDAT xdata$x
; File c:\program files (x86)\microsoft visual studio 10.0\vc\include\utility
xdata$x	SEGMENT
__unwindtable$??$_Construct@VioHashString@@ABV1@@std@@YAXPAVioHashString@@ABV1@@Z DD 0ffffffffH
	DD	FLAT:__unwindfunclet$??$_Construct@VioHashString@@ABV1@@std@@YAXPAVioHashString@@ABV1@@Z$0
__ehfuncinfo$??$_Construct@VioHashString@@ABV1@@std@@YAXPAVioHashString@@ABV1@@Z DD 019930522H
	DD	01H
	DD	FLAT:__unwindtable$??$_Construct@VioHashString@@ABV1@@std@@YAXPAVioHashString@@ABV1@@Z
	DD	2 DUP(00H)
	DD	2 DUP(00H)
	DD	00H
	DD	01H
; Function compile flags: /Ogsp
; File c:\program files (x86)\microsoft visual studio 10.0\vc\include\xmemory
xdata$x	ENDS
;	COMDAT ??$_Construct@VioHashString@@ABV1@@std@@YAXPAVioHashString@@ABV1@@Z
_TEXT	SEGMENT
$T535532 = -16						; size = 4
__$EHRec$ = -12						; size = 12
__Vptr$ = 8						; size = 4
__Ptr$ = 8						; size = 4
__Val$ = 12						; size = 4
??$_Construct@VioHashString@@ABV1@@std@@YAXPAVioHashString@@ABV1@@Z PROC ; std::_Construct<ioHashString,ioHashString const &>, COMDAT

; 46   : 	{	// construct object at _Ptr with value _Val

  00000	6a 04		 push	 4
  00002	b8 00 00 00 00	 mov	 eax, __ehhandler$??$_Construct@VioHashString@@ABV1@@std@@YAXPAVioHashString@@ABV1@@Z
  00007	e8 00 00 00 00	 call	 __EH_prolog3

; 47   : 	void _FARQ *_Vptr = _Ptr;

  0000c	8b 4d 08	 mov	 ecx, DWORD PTR __Ptr$[ebp]
  0000f	89 4d 08	 mov	 DWORD PTR __Vptr$[ebp], ecx

; 48   : 	::new (_Vptr) _Ty1(_STD forward<_Ty2>(_Val));

  00012	89 4d f0	 mov	 DWORD PTR $T535532[ebp], ecx
  00015	83 65 fc 00	 and	 DWORD PTR __$EHRec$[ebp+8], 0
  00019	85 c9		 test	 ecx, ecx
  0001b	74 09		 je	 SHORT $LN3@Construct@2
  0001d	ff 75 0c	 push	 DWORD PTR __Val$[ebp]
  00020	ff 15 00 00 00
	00		 call	 DWORD PTR __imp_??0ioHashString@@QAE@ABV0@@Z
$LN3@Construct@2:

; 49   : 	}

  00026	e8 00 00 00 00	 call	 __EH_epilog3
  0002b	c3		 ret	 0
_TEXT	ENDS
;	COMDAT text$x
text$x	SEGMENT
__unwindfunclet$??$_Construct@VioHashString@@ABV1@@std@@YAXPAVioHashString@@ABV1@@Z$0:
  00000	ff 75 08	 push	 DWORD PTR __Vptr$[ebp]
  00003	ff 75 f0	 push	 DWORD PTR $T535532[ebp]
  00006	e8 00 00 00 00	 call	 ??3@YAXPAX0@Z		; operator delete
  0000b	59		 pop	 ecx
  0000c	59		 pop	 ecx
  0000d	c3		 ret	 0
__ehhandler$??$_Construct@VioHashString@@ABV1@@std@@YAXPAVioHashString@@ABV1@@Z:
  0000e	8b 54 24 08	 mov	 edx, DWORD PTR [esp+8]
  00012	8d 42 0c	 lea	 eax, DWORD PTR [edx+12]
  00015	8b 4a ec	 mov	 ecx, DWORD PTR [edx-20]
  00018	33 c8		 xor	 ecx, eax
  0001a	e8 00 00 00 00	 call	 @__security_check_cookie@4
  0001f	b8 00 00 00 00	 mov	 eax, OFFSET __ehfuncinfo$??$_Construct@VioHashString@@ABV1@@std@@YAXPAVioHashString@@ABV1@@Z
  00024	e9 00 00 00 00	 jmp	 ___CxxFrameHandler3
text$x	ENDS
??$_Construct@VioHashString@@ABV1@@std@@YAXPAVioHashString@@ABV1@@Z ENDP ; std::_Construct<ioHashString,ioHashString const &>
PUBLIC	??_R0?AVioBaseChar@@@8				; ioBaseChar `RTTI Type Descriptor'
PUBLIC	?ToBaseChar@@YAPAVioBaseChar@@PAVioGameEntity@@@Z ; ToBaseChar
;	COMDAT ??_R0?AVioBaseChar@@@8
; File d:\lost saga for developer\youtube\tutorial\source\src\lsclient\iobasechar.h
_DATA	SEGMENT
??_R0?AVioBaseChar@@@8 DD FLAT:??_7type_info@@6B@	; ioBaseChar `RTTI Type Descriptor'
	DD	00H
	DB	'.?AVioBaseChar@@', 00H
; Function compile flags: /Ogsp
_DATA	ENDS
;	COMDAT ?ToBaseChar@@YAPAVioBaseChar@@PAVioGameEntity@@@Z
_TEXT	SEGMENT
_pObj$ = 8						; size = 4
?ToBaseChar@@YAPAVioBaseChar@@PAVioGameEntity@@@Z PROC	; ToBaseChar, COMDAT

; 4326 : {

  00000	55		 push	 ebp
  00001	8b ec		 mov	 ebp, esp
  00003	56		 push	 esi

; 4327 : 	ioPlayEntity *pPlay = ToPlayEntity( pObj );

  00004	ff 75 08	 push	 DWORD PTR _pObj$[ebp]
  00007	e8 00 00 00 00	 call	 ?ToPlayEntity@@YAPAVioPlayEntity@@PAVioGameEntity@@@Z ; ToPlayEntity
  0000c	8b f0		 mov	 esi, eax
  0000e	59		 pop	 ecx

; 4328 : 	if( !pPlay || pPlay->GetSubType() != ioPlayEntity::PST_CHAR )

  0000f	85 f6		 test	 esi, esi
  00011	74 25		 je	 SHORT $LN1@ToBaseChar
  00013	8b 06		 mov	 eax, DWORD PTR [esi]
  00015	8b ce		 mov	 ecx, esi
  00017	ff 90 a4 00 00
	00		 call	 DWORD PTR [eax+164]
  0001d	85 c0		 test	 eax, eax
  0001f	75 17		 jne	 SHORT $LN1@ToBaseChar

; 4330 : 
; 4331 : 	return dynamic_cast< ioBaseChar* >( pPlay );

  00021	50		 push	 eax
  00022	68 00 00 00 00	 push	 OFFSET ??_R0?AVioBaseChar@@@8
  00027	68 00 00 00 00	 push	 OFFSET ??_R0?AVioPlayEntity@@@8
  0002c	50		 push	 eax
  0002d	56		 push	 esi
  0002e	e8 00 00 00 00	 call	 ___RTDynamicCast
  00033	83 c4 14	 add	 esp, 20			; 00000014H
  00036	eb 02		 jmp	 SHORT $LN3@ToBaseChar
$LN1@ToBaseChar:

; 4329 : 		return NULL;

  00038	33 c0		 xor	 eax, eax
$LN3@ToBaseChar:
  0003a	5e		 pop	 esi

; 4332 : }

  0003b	5d		 pop	 ebp
  0003c	c3		 ret	 0
?ToBaseChar@@YAPAVioBaseChar@@PAVioGameEntity@@@Z ENDP	; ToBaseChar
_TEXT	ENDS
PUBLIC	??_R0?AVioNpcChar@@@8				; ioNpcChar `RTTI Type Descriptor'
PUBLIC	?ToNpcChar@@YAPAVioNpcChar@@PAVioGameEntity@@@Z	; ToNpcChar
;	COMDAT ??_R0?AVioNpcChar@@@8
; File d:\lost saga for developer\youtube\tutorial\source\src\lsclient\ionpcchar.h
_DATA	SEGMENT
??_R0?AVioNpcChar@@@8 DD FLAT:??_7type_info@@6B@	; ioNpcChar `RTTI Type Descriptor'
	DD	00H
	DB	'.?AVioNpcChar@@', 00H
; Function compile flags: /Ogsp
_DATA	ENDS
;	COMDAT ?ToNpcChar@@YAPAVioNpcChar@@PAVioGameEntity@@@Z
_TEXT	SEGMENT
_pObj$ = 8						; size = 4
?ToNpcChar@@YAPAVioNpcChar@@PAVioGameEntity@@@Z PROC	; ToNpcChar, COMDAT

; 361  : {

  00000	55		 push	 ebp
  00001	8b ec		 mov	 ebp, esp
  00003	56		 push	 esi

; 362  : 	ioBaseChar *pChar = ToBaseChar( pObj );

  00004	ff 75 08	 push	 DWORD PTR _pObj$[ebp]
  00007	e8 00 00 00 00	 call	 ?ToBaseChar@@YAPAVioBaseChar@@PAVioGameEntity@@@Z ; ToBaseChar
  0000c	8b f0		 mov	 esi, eax
  0000e	59		 pop	 ecx

; 363  : 	if( !pChar || pChar->GetControlType() != CONTROL_AI )

  0000f	85 f6		 test	 esi, esi
  00011	74 28		 je	 SHORT $LN1@ToNpcChar
  00013	8b 06		 mov	 eax, DWORD PTR [esi]
  00015	8b ce		 mov	 ecx, esi
  00017	ff 90 ec 00 00
	00		 call	 DWORD PTR [eax+236]
  0001d	83 f8 02	 cmp	 eax, 2
  00020	75 19		 jne	 SHORT $LN1@ToNpcChar

; 365  : 
; 366  : 	return dynamic_cast< ioNpcChar* >(pChar);

  00022	6a 00		 push	 0
  00024	68 00 00 00 00	 push	 OFFSET ??_R0?AVioNpcChar@@@8
  00029	68 00 00 00 00	 push	 OFFSET ??_R0?AVioBaseChar@@@8
  0002e	6a 00		 push	 0
  00030	56		 push	 esi
  00031	e8 00 00 00 00	 call	 ___RTDynamicCast
  00036	83 c4 14	 add	 esp, 20			; 00000014H
  00039	eb 02		 jmp	 SHORT $LN3@ToNpcChar
$LN1@ToNpcChar:

; 364  : 		return NULL;

  0003b	33 c0		 xor	 eax, eax
$LN3@ToNpcChar:
  0003d	5e		 pop	 esi

; 367  : }

  0003e	5d		 pop	 ebp
  0003f	c3		 ret	 0
?ToNpcChar@@YAPAVioNpcChar@@PAVioGameEntity@@@Z ENDP	; ToNpcChar
_TEXT	ENDS
PUBLIC	??_C@_0DI@INBEGNMH@ioAdhesiveMissileWeapon?3?3CreateF@ ; `string'
PUBLIC	_this$GSCopy$
PUBLIC	?CreateFireBall@ioAdhesiveMissileWeapon4@@IAE_NABVioHashString@@@Z ; ioAdhesiveMissileWeapon4::CreateFireBall
EXTRN	?SetPosition@ioWeapon@@QAEXABUD3DXVECTOR3@@@Z:PROC ; ioWeapon::SetPosition
EXTRN	__imp_??D@YA?AUD3DXVECTOR3@@ABU0@0@Z:PROC
EXTRN	__imp_??D@YA?AUD3DXVECTOR3@@ABUD3DXQUATERNION@@ABU0@@Z:PROC
EXTRN	__imp_?GetBiped@ioEntityGroup@@QAEPAVioBiped@@ABVioHashString@@@Z:PROC
EXTRN	__imp_?GetFirstLinkOffset@ioEffect@@QAE_NAAVioHashString@@AAUD3DXVECTOR3@@AAUD3DXQUATERNION@@@Z:PROC
EXTRN	__imp_?IsEmpty@ioHashString@@QBE_NXZ:PROC
EXTRN	__imp_?GetSkeletonName@ioEffect@@QBE?AVioHashString@@XZ:PROC
EXTRN	__imp_?PrintTimeAndLog@CLog@@QAAXHPADZZ:PROC
EXTRN	__imp_?LOG@@3VCLog@@A:BYTE
EXTRN	?GetOwner@ioWeapon@@QBEPAVioBaseChar@@XZ:PROC	; ioWeapon::GetOwner
EXTRN	__imp_?CreateEffect@ioEffectFactory@@QAEPAVioEffect@@ABVioHashString@@@Z:PROC
EXTRN	__EH_epilog3_GS:PROC
EXTRN	__EH_prolog3_GS:PROC
;	COMDAT ??_C@_0DI@INBEGNMH@ioAdhesiveMissileWeapon?3?3CreateF@
; File c:\program files (x86)\microsoft directx sdk (june 2010)\include\d3dx9math.inl
CONST	SEGMENT
??_C@_0DI@INBEGNMH@ioAdhesiveMissileWeapon?3?3CreateF@ DB 'ioAdhesiveMiss'
	DB	'ileWeapon::CreateFileBall - Not Has Owner', 00H ; `string'
CONST	ENDS
;	COMDAT xdata$x
xdata$x	SEGMENT
__unwindtable$?CreateFireBall@ioAdhesiveMissileWeapon4@@IAE_NABVioHashString@@@Z DD 0ffffffffH
	DD	FLAT:__unwindfunclet$?CreateFireBall@ioAdhesiveMissileWeapon4@@IAE_NABVioHashString@@@Z$0
	DD	00H
	DD	FLAT:__unwindfunclet$?CreateFireBall@ioAdhesiveMissileWeapon4@@IAE_NABVioHashString@@@Z$1
__ehfuncinfo$?CreateFireBall@ioAdhesiveMissileWeapon4@@IAE_NABVioHashString@@@Z DD 019930522H
	DD	02H
	DD	FLAT:__unwindtable$?CreateFireBall@ioAdhesiveMissileWeapon4@@IAE_NABVioHashString@@@Z
	DD	2 DUP(00H)
	DD	2 DUP(00H)
	DD	00H
	DD	01H
; Function compile flags: /Ogsp
; File d:\lost saga for developer\youtube\tutorial\source\src\lsclient\ioadhesivemissileweapon4.cpp
xdata$x	ENDS
;	COMDAT ?CreateFireBall@ioAdhesiveMissileWeapon4@@IAE_NABVioHashString@@@Z
_TEXT	SEGMENT
_qtLinkRotOffset$ = -100				; size = 16
_szLinkBiped$ = -84					; size = 16
$T535563 = -68						; size = 4
_this$GSCopy$ = -64					; size = 4
$T535557 = -57						; size = 1
$T535558 = -56						; size = 16
$T532394 = -52						; size = 12
_vLinkPosOffset$ = -40					; size = 12
$T532395 = -28						; size = 12
$T532393 = -28						; size = 12
$T532392 = -28						; size = 12
$T532391 = -28						; size = 12
__$EHRec$ = -12						; size = 12
_szFileName$ = 8					; size = 4
?CreateFireBall@ioAdhesiveMissileWeapon4@@IAE_NABVioHashString@@@Z PROC ; ioAdhesiveMissileWeapon4::CreateFireBall, COMDAT
; _this$ = ecx

; 91   : {

  00000	6a 58		 push	 88			; 00000058H
  00002	b8 00 00 00 00	 mov	 eax, __ehhandler$?CreateFireBall@ioAdhesiveMissileWeapon4@@IAE_NABVioHashString@@@Z
  00007	e8 00 00 00 00	 call	 __EH_prolog3_GS
  0000c	8b 45 08	 mov	 eax, DWORD PTR _szFileName$[ebp]
  0000f	8b f1		 mov	 esi, ecx

; 113  : 		{
; 114  : 			vLinkPosOffset = pLinked->GetDerivedOrientation() * vLinkPosOffset + pLinked->GetDerivedPosition();

  00011	33 ff		 xor	 edi, edi
  00013	50		 push	 eax
  00014	89 75 c0	 mov	 DWORD PTR _this$GSCopy$[ebp], esi
  00017	89 7d bc	 mov	 DWORD PTR $T535563[ebp], edi
  0001a	ff 15 00 00 00
	00		 call	 DWORD PTR __imp_?GetSingleton@ioEffectFactory@@SAAAV1@XZ
  00020	8b c8		 mov	 ecx, eax
  00022	ff 15 00 00 00
	00		 call	 DWORD PTR __imp_?CreateEffect@ioEffectFactory@@QAEPAVioEffect@@ABVioHashString@@@Z
  00028	89 86 a8 08 00
	00		 mov	 DWORD PTR [esi+2216], eax
  0002e	3b c7		 cmp	 eax, edi
  00030	75 07		 jne	 SHORT $LN4@CreateFire
$LN33@CreateFire:

; 92   : 	m_pFireBall = g_EffectFactory.CreateEffect( szFileName );
; 93   : 	if( !m_pFireBall )	return false;

  00032	32 c0		 xor	 al, al
  00034	e9 06 02 00 00	 jmp	 $LN5@CreateFire
$LN4@CreateFire:

; 94   : 
; 95   : 	GetParentSceneNode()->AttachObject( m_pFireBall );

  00039	8b 4e 04	 mov	 ecx, DWORD PTR [esi+4]
  0003c	8b 11		 mov	 edx, DWORD PTR [ecx]
  0003e	83 c0 14	 add	 eax, 20			; 00000014H
  00041	50		 push	 eax
  00042	ff 92 ac 00 00
	00		 call	 DWORD PTR [edx+172]

; 96   : 	
; 97   : 	ioBaseChar *pOwner = GetOwner();

  00048	8b ce		 mov	 ecx, esi
  0004a	e8 00 00 00 00	 call	 ?GetOwner@ioWeapon@@QBEPAVioBaseChar@@XZ ; ioWeapon::GetOwner
  0004f	8b d8		 mov	 ebx, eax

; 98   : 	if( !pOwner )

  00051	3b df		 cmp	 ebx, edi
  00053	75 17		 jne	 SHORT $LN3@CreateFire

; 99   : 	{
; 100  : 		LOG.PrintTimeAndLog( 0, "ioAdhesiveMissileWeapon::CreateFileBall - Not Has Owner" );

  00055	68 00 00 00 00	 push	 OFFSET ??_C@_0DI@INBEGNMH@ioAdhesiveMissileWeapon?3?3CreateF@
  0005a	57		 push	 edi
  0005b	ff 35 00 00 00
	00		 push	 DWORD PTR __imp_?LOG@@3VCLog@@A
  00061	ff 15 00 00 00
	00		 call	 DWORD PTR __imp_?PrintTimeAndLog@CLog@@QAAXHPADZZ
  00067	83 c4 0c	 add	 esp, 12			; 0000000cH

; 101  : 		return false;

  0006a	eb c6		 jmp	 SHORT $LN33@CreateFire
$LN3@CreateFire:

; 102  : 	}
; 103  : 
; 104  : 	ioHashString szLinkBiped;

  0006c	8d 4d ac	 lea	 ecx, DWORD PTR _szLinkBiped$[ebp]
  0006f	ff 15 00 00 00
	00		 call	 DWORD PTR __imp_??0ioHashString@@QAE@XZ

; 105  : 	D3DXVECTOR3 vLinkPosOffset;
; 106  : 	D3DXQUATERNION qtLinkRotOffset;
; 107  : 		
; 108  : 	if( m_pFireBall->GetSkeletonName().IsEmpty() &&
; 109  : 		m_pFireBall->GetFirstLinkOffset(szLinkBiped, vLinkPosOffset, qtLinkRotOffset ) )

  00075	8b 8e a8 08 00
	00		 mov	 ecx, DWORD PTR [esi+2216]
  0007b	8d 45 c8	 lea	 eax, DWORD PTR $T535558[ebp]
  0007e	50		 push	 eax
  0007f	89 7d fc	 mov	 DWORD PTR __$EHRec$[ebp+8], edi
  00082	ff 15 00 00 00
	00		 call	 DWORD PTR __imp_?GetSkeletonName@ioEffect@@QBE?AVioHashString@@XZ
  00088	8b c8		 mov	 ecx, eax
  0008a	c6 45 fc 01	 mov	 BYTE PTR __$EHRec$[ebp+8], 1
  0008e	c7 45 bc 01 00
	00 00		 mov	 DWORD PTR $T535563[ebp], 1
  00095	ff 15 00 00 00
	00		 call	 DWORD PTR __imp_?IsEmpty@ioHashString@@QBE_NXZ
  0009b	84 c0		 test	 al, al
  0009d	74 20		 je	 SHORT $LN9@CreateFire
  0009f	8b 8e a8 08 00
	00		 mov	 ecx, DWORD PTR [esi+2216]
  000a5	8d 45 9c	 lea	 eax, DWORD PTR _qtLinkRotOffset$[ebp]
  000a8	50		 push	 eax
  000a9	8d 45 d8	 lea	 eax, DWORD PTR _vLinkPosOffset$[ebp]
  000ac	50		 push	 eax
  000ad	8d 45 ac	 lea	 eax, DWORD PTR _szLinkBiped$[ebp]
  000b0	50		 push	 eax
  000b1	ff 15 00 00 00
	00		 call	 DWORD PTR __imp_?GetFirstLinkOffset@ioEffect@@QAE_NAAVioHashString@@AAUD3DXVECTOR3@@AAUD3DXQUATERNION@@@Z
  000b7	c6 45 c7 01	 mov	 BYTE PTR $T535557[ebp], 1
  000bb	84 c0		 test	 al, al
  000bd	75 04		 jne	 SHORT $LN10@CreateFire
$LN9@CreateFire:
  000bf	c6 45 c7 00	 mov	 BYTE PTR $T535557[ebp], 0
$LN10@CreateFire:
  000c3	8d 4d c8	 lea	 ecx, DWORD PTR $T535558[ebp]
  000c6	89 7d fc	 mov	 DWORD PTR __$EHRec$[ebp+8], edi
  000c9	ff 15 00 00 00
	00		 call	 DWORD PTR __imp_??1ioHashString@@QAE@XZ
  000cf	80 7d c7 00	 cmp	 BYTE PTR $T535557[ebp], 0
  000d3	0f 84 47 01 00
	00		 je	 $LN1@CreateFire

; 110  : 	{
; 111  : 		ioBiped *pLinked = pOwner->GetGroup()->GetBiped( szLinkBiped );

  000d9	8b 4b 04	 mov	 ecx, DWORD PTR [ebx+4]
  000dc	8d 45 ac	 lea	 eax, DWORD PTR _szLinkBiped$[ebp]
  000df	50		 push	 eax
  000e0	ff 15 00 00 00
	00		 call	 DWORD PTR __imp_?GetBiped@ioEntityGroup@@QAEPAVioBiped@@ABVioHashString@@@Z
  000e6	8b f8		 mov	 edi, eax

; 112  : 		if( pLinked )

  000e8	85 ff		 test	 edi, edi
  000ea	0f 84 30 01 00
	00		 je	 $LN1@CreateFire

; 113  : 		{
; 114  : 			vLinkPosOffset = pLinked->GetDerivedOrientation() * vLinkPosOffset + pLinked->GetDerivedPosition();

  000f0	8b 07		 mov	 eax, DWORD PTR [edi]
  000f2	8b cf		 mov	 ecx, edi
  000f4	ff 50 7c	 call	 DWORD PTR [eax+124]
  000f7	8b f0		 mov	 esi, eax
  000f9	8d 45 d8	 lea	 eax, DWORD PTR _vLinkPosOffset$[ebp]
  000fc	50		 push	 eax
  000fd	8b 07		 mov	 eax, DWORD PTR [edi]
  000ff	8b cf		 mov	 ecx, edi
  00101	ff 50 78	 call	 DWORD PTR [eax+120]
  00104	50		 push	 eax
  00105	8d 45 e4	 lea	 eax, DWORD PTR $T532391[ebp]
  00108	50		 push	 eax
  00109	ff 15 00 00 00
	00		 call	 DWORD PTR __imp_??D@YA?AUD3DXVECTOR3@@ABUD3DXQUATERNION@@ABU0@@Z
  0010f	f3 0f 10 06	 movss	 xmm0, DWORD PTR [esi]
  00113	f3 0f 10 08	 movss	 xmm1, DWORD PTR [eax]
  00117	f3 0f 10 50 04	 movss	 xmm2, DWORD PTR [eax+4]
  0011c	f3 0f 10 58 08	 movss	 xmm3, DWORD PTR [eax+8]
  00121	0f 5a c9	 cvtps2pd xmm1, xmm1
  00124	0f 5a c0	 cvtps2pd xmm0, xmm0
  00127	f2 0f 58 c1	 addsd	 xmm0, xmm1
  0012b	f3 0f 10 4e 04	 movss	 xmm1, DWORD PTR [esi+4]
  00130	0f 5a d2	 cvtps2pd xmm2, xmm2
  00133	0f 5a c9	 cvtps2pd xmm1, xmm1
  00136	f2 0f 58 ca	 addsd	 xmm1, xmm2
  0013a	f3 0f 10 56 08	 movss	 xmm2, DWORD PTR [esi+8]
  0013f	0f 5a d2	 cvtps2pd xmm2, xmm2
  00142	0f 5a db	 cvtps2pd xmm3, xmm3
  00145	f2 0f 58 d3	 addsd	 xmm2, xmm3
  00149	66 0f 5a c0	 cvtpd2ps xmm0, xmm0
  0014d	f3 0f 11 45 e4	 movss	 DWORD PTR $T532392[ebp], xmm0
  00152	66 0f 5a c9	 cvtpd2ps xmm1, xmm1
  00156	f3 0f 11 4d e8	 movss	 DWORD PTR $T532392[ebp+4], xmm1
  0015b	66 0f 5a d2	 cvtpd2ps xmm2, xmm2
  0015f	f3 0f 11 55 ec	 movss	 DWORD PTR $T532392[ebp+8], xmm2
  00164	8d 75 e4	 lea	 esi, DWORD PTR $T532392[ebp]
  00167	8d 7d d8	 lea	 edi, DWORD PTR _vLinkPosOffset$[ebp]
  0016a	a5		 movsd
  0016b	a5		 movsd
  0016c	a5		 movsd

; 115  : 			vLinkPosOffset = vLinkPosOffset * pOwner->GetWorldScale();

  0016d	8b 03		 mov	 eax, DWORD PTR [ebx]
  0016f	83 c4 0c	 add	 esp, 12			; 0000000cH
  00172	8b cb		 mov	 ecx, ebx
  00174	ff 50 78	 call	 DWORD PTR [eax+120]
  00177	50		 push	 eax
  00178	8d 45 d8	 lea	 eax, DWORD PTR _vLinkPosOffset$[ebp]
  0017b	50		 push	 eax
  0017c	8d 45 e4	 lea	 eax, DWORD PTR $T532393[ebp]
  0017f	50		 push	 eax
  00180	ff 15 00 00 00
	00		 call	 DWORD PTR __imp_??D@YA?AUD3DXVECTOR3@@ABU0@0@Z
  00186	8b f0		 mov	 esi, eax
  00188	8d 7d d8	 lea	 edi, DWORD PTR _vLinkPosOffset$[ebp]
  0018b	a5		 movsd
  0018c	a5		 movsd
  0018d	a5		 movsd

; 116  : 			vLinkPosOffset = pOwner->GetWorldOrientation() * vLinkPosOffset + pOwner->GetWorldPosition();			

  0018e	8b 03		 mov	 eax, DWORD PTR [ebx]
  00190	83 c4 0c	 add	 esp, 12			; 0000000cH
  00193	8b cb		 mov	 ecx, ebx
  00195	ff 50 70	 call	 DWORD PTR [eax+112]
  00198	8b f0		 mov	 esi, eax
  0019a	8d 45 d8	 lea	 eax, DWORD PTR _vLinkPosOffset$[ebp]
  0019d	50		 push	 eax
  0019e	8b 03		 mov	 eax, DWORD PTR [ebx]
  001a0	8b cb		 mov	 ecx, ebx
  001a2	ff 50 74	 call	 DWORD PTR [eax+116]
  001a5	50		 push	 eax
  001a6	8d 45 cc	 lea	 eax, DWORD PTR $T532394[ebp]
  001a9	50		 push	 eax
  001aa	ff 15 00 00 00
	00		 call	 DWORD PTR __imp_??D@YA?AUD3DXVECTOR3@@ABUD3DXQUATERNION@@ABU0@@Z
  001b0	f3 0f 10 06	 movss	 xmm0, DWORD PTR [esi]
  001b4	f3 0f 10 08	 movss	 xmm1, DWORD PTR [eax]
  001b8	f3 0f 10 50 04	 movss	 xmm2, DWORD PTR [eax+4]
  001bd	0f 5a c9	 cvtps2pd xmm1, xmm1
  001c0	0f 5a c0	 cvtps2pd xmm0, xmm0
  001c3	f2 0f 58 c1	 addsd	 xmm0, xmm1
  001c7	f3 0f 10 4e 04	 movss	 xmm1, DWORD PTR [esi+4]
  001cc	0f 5a c9	 cvtps2pd xmm1, xmm1
  001cf	0f 5a d2	 cvtps2pd xmm2, xmm2
  001d2	f2 0f 58 ca	 addsd	 xmm1, xmm2
  001d6	83 c4 0c	 add	 esp, 12			; 0000000cH
  001d9	66 0f 5a c0	 cvtpd2ps xmm0, xmm0
  001dd	66 0f 5a c9	 cvtpd2ps xmm1, xmm1
  001e1	f3 0f 10 56 08	 movss	 xmm2, DWORD PTR [esi+8]
  001e6	f3 0f 10 58 08	 movss	 xmm3, DWORD PTR [eax+8]

; 117  : 			SetPosition( vLinkPosOffset );

  001eb	8b 4d c0	 mov	 ecx, DWORD PTR _this$GSCopy$[ebp]
  001ee	0f 5a d2	 cvtps2pd xmm2, xmm2
  001f1	0f 5a db	 cvtps2pd xmm3, xmm3
  001f4	f2 0f 58 d3	 addsd	 xmm2, xmm3
  001f8	f3 0f 11 45 e4	 movss	 DWORD PTR $T532395[ebp], xmm0
  001fd	f3 0f 11 4d e8	 movss	 DWORD PTR $T532395[ebp+4], xmm1
  00202	66 0f 5a d2	 cvtpd2ps xmm2, xmm2
  00206	f3 0f 11 55 ec	 movss	 DWORD PTR $T532395[ebp+8], xmm2
  0020b	8d 75 e4	 lea	 esi, DWORD PTR $T532395[ebp]
  0020e	8d 7d d8	 lea	 edi, DWORD PTR _vLinkPosOffset$[ebp]
  00211	a5		 movsd
  00212	a5		 movsd
  00213	8d 45 d8	 lea	 eax, DWORD PTR _vLinkPosOffset$[ebp]
  00216	50		 push	 eax
  00217	a5		 movsd
  00218	e8 00 00 00 00	 call	 ?SetPosition@ioWeapon@@QAEXABUD3DXVECTOR3@@@Z ; ioWeapon::SetPosition
  0021d	8b 75 c0	 mov	 esi, DWORD PTR _this$GSCopy$[ebp]
$LN1@CreateFire:

; 118  : 		}
; 119  : 	}
; 120  : 
; 121  : 	AddEffectEvent( m_pFireBall );

  00220	ff b6 a8 08 00
	00		 push	 DWORD PTR [esi+2216]
  00226	8b 06		 mov	 eax, DWORD PTR [esi]
  00228	8b ce		 mov	 ecx, esi
  0022a	ff 90 68 01 00
	00		 call	 DWORD PTR [eax+360]

; 122  : 
; 123  : 	return true;

  00230	83 4d fc ff	 or	 DWORD PTR __$EHRec$[ebp+8], -1
  00234	8d 4d ac	 lea	 ecx, DWORD PTR _szLinkBiped$[ebp]
  00237	ff 15 00 00 00
	00		 call	 DWORD PTR __imp_??1ioHashString@@QAE@XZ
  0023d	b0 01		 mov	 al, 1
$LN5@CreateFire:

; 124  : }

  0023f	e8 00 00 00 00	 call	 __EH_epilog3_GS
  00244	c2 04 00	 ret	 4
_TEXT	ENDS
;	COMDAT text$x
text$x	SEGMENT
__unwindfunclet$?CreateFireBall@ioAdhesiveMissileWeapon4@@IAE_NABVioHashString@@@Z$0:
  00000	8d 4d ac	 lea	 ecx, DWORD PTR _szLinkBiped$[ebp]
  00003	ff 25 00 00 00
	00		 jmp	 DWORD PTR __imp_??1ioHashString@@QAE@XZ
__unwindfunclet$?CreateFireBall@ioAdhesiveMissileWeapon4@@IAE_NABVioHashString@@@Z$1:
  00009	8b 45 bc	 mov	 eax, DWORD PTR $T535563[ebp]
  0000c	83 e0 01	 and	 eax, 1
  0000f	0f 84 0d 00 00
	00		 je	 $LN13@CreateFire
  00015	83 65 bc fe	 and	 DWORD PTR $T535563[ebp], -2 ; fffffffeH
  00019	8d 4d c8	 lea	 ecx, DWORD PTR $T535558[ebp]
  0001c	ff 25 00 00 00
	00		 jmp	 DWORD PTR __imp_??1ioHashString@@QAE@XZ
$LN13@CreateFire:
  00022	c3		 ret	 0
__ehhandler$?CreateFireBall@ioAdhesiveMissileWeapon4@@IAE_NABVioHashString@@@Z:
  00023	8b 54 24 08	 mov	 edx, DWORD PTR [esp+8]
  00027	8d 42 0c	 lea	 eax, DWORD PTR [edx+12]
  0002a	8b 4a 98	 mov	 ecx, DWORD PTR [edx-104]
  0002d	33 c8		 xor	 ecx, eax
  0002f	e8 00 00 00 00	 call	 @__security_check_cookie@4
  00034	8b 4a fc	 mov	 ecx, DWORD PTR [edx-4]
  00037	33 c8		 xor	 ecx, eax
  00039	e8 00 00 00 00	 call	 @__security_check_cookie@4
  0003e	b8 00 00 00 00	 mov	 eax, OFFSET __ehfuncinfo$?CreateFireBall@ioAdhesiveMissileWeapon4@@IAE_NABVioHashString@@@Z
  00043	e9 00 00 00 00	 jmp	 ___CxxFrameHandler3
text$x	ENDS
?CreateFireBall@ioAdhesiveMissileWeapon4@@IAE_NABVioHashString@@@Z ENDP ; ioAdhesiveMissileWeapon4::CreateFireBall
PUBLIC	?SetMoveDir@ioAdhesiveMissileWeapon4@@UAEXABUD3DXVECTOR3@@@Z ; ioAdhesiveMissileWeapon4::SetMoveDir
EXTRN	?SetOrientation@ioWeapon@@QAEXABUD3DXQUATERNION@@@Z:PROC ; ioWeapon::SetOrientation
EXTRN	?CheckOrientation@ioPlayEntityHelp@@YAXABUD3DXVECTOR3@@AAUD3DXQUATERNION@@@Z:PROC ; ioPlayEntityHelp::CheckOrientation
; Function compile flags: /Ogsp
;	COMDAT ?SetMoveDir@ioAdhesiveMissileWeapon4@@UAEXABUD3DXVECTOR3@@@Z
_TEXT	SEGMENT
_qtRot$ = -16						; size = 16
_vDir$ = 8						; size = 4
?SetMoveDir@ioAdhesiveMissileWeapon4@@UAEXABUD3DXVECTOR3@@@Z PROC ; ioAdhesiveMissileWeapon4::SetMoveDir, COMDAT
; _this$ = ecx

; 136  : {

  00000	55		 push	 ebp
  00001	8b ec		 mov	 ebp, esp
  00003	83 ec 10	 sub	 esp, 16			; 00000010H
  00006	53		 push	 ebx
  00007	56		 push	 esi

; 137  : 	m_vMoveDir = vDir;

  00008	8b 75 08	 mov	 esi, DWORD PTR _vDir$[ebp]
  0000b	57		 push	 edi
  0000c	8b d9		 mov	 ebx, ecx
  0000e	8d 83 00 09 00
	00		 lea	 eax, DWORD PTR [ebx+2304]
  00014	8b f8		 mov	 edi, eax
  00016	a5		 movsd
  00017	a5		 movsd

; 138  : 
; 139  : 	D3DXQUATERNION qtRot;
; 140  : 	ioPlayEntityHelp::CheckOrientation( m_vMoveDir, qtRot );

  00018	8d 4d f0	 lea	 ecx, DWORD PTR _qtRot$[ebp]
  0001b	51		 push	 ecx
  0001c	50		 push	 eax
  0001d	a5		 movsd
  0001e	e8 00 00 00 00	 call	 ?CheckOrientation@ioPlayEntityHelp@@YAXABUD3DXVECTOR3@@AAUD3DXQUATERNION@@@Z ; ioPlayEntityHelp::CheckOrientation
  00023	59		 pop	 ecx
  00024	59		 pop	 ecx

; 141  : 	SetOrientation( qtRot );

  00025	8d 45 f0	 lea	 eax, DWORD PTR _qtRot$[ebp]
  00028	50		 push	 eax
  00029	8b cb		 mov	 ecx, ebx
  0002b	e8 00 00 00 00	 call	 ?SetOrientation@ioWeapon@@QAEXABUD3DXQUATERNION@@@Z ; ioWeapon::SetOrientation
  00030	5f		 pop	 edi
  00031	5e		 pop	 esi
  00032	5b		 pop	 ebx

; 142  : }

  00033	c9		 leave
  00034	c2 04 00	 ret	 4
?SetMoveDir@ioAdhesiveMissileWeapon4@@UAEXABUD3DXVECTOR3@@@Z ENDP ; ioAdhesiveMissileWeapon4::SetMoveDir
_TEXT	ENDS
PUBLIC	__real@4f800000
PUBLIC	_this$GSCopy$
PUBLIC	__$ArrayPad$
PUBLIC	?RotateMoveDir@ioAdhesiveMissileWeapon4@@IAEXM@Z ; ioAdhesiveMissileWeapon4::RotateMoveDir
EXTRN	__imp_?CalcDirectionQuaternion@ioMath@@SAXAAUD3DXQUATERNION@@ABUD3DXVECTOR3@@@Z:PROC
EXTRN	_D3DXQuaternionRotationAxis@12:PROC
EXTRN	___security_cookie:DWORD
;	COMDAT __real@4f800000
; File c:\program files (x86)\microsoft directx sdk (june 2010)\include\d3dx9math.inl
CONST	SEGMENT
__real@4f800000 DD 04f800000r			; 4.29497e+009
; Function compile flags: /Ogsp
; File d:\lost saga for developer\youtube\tutorial\source\src\lsclient\ioadhesivemissileweapon4.cpp
CONST	ENDS
;	COMDAT ?RotateMoveDir@ioAdhesiveMissileWeapon4@@IAEXM@Z
_TEXT	SEGMENT
tv436 = -64						; size = 4
_qtRot$ = -60						; size = 16
_this$GSCopy$ = -44					; size = 4
$T532422 = -40						; size = 12
$T532416 = -40						; size = 12
_vAxis$ = -28						; size = 12
_v$535647 = -16						; size = 12
$T532423 = -16						; size = 12
__$ArrayPad$ = -4					; size = 4
_fAngle$ = 8						; size = 4
?RotateMoveDir@ioAdhesiveMissileWeapon4@@IAEXM@Z PROC	; ioAdhesiveMissileWeapon4::RotateMoveDir, COMDAT
; _this$ = ecx

; 150  : {

  00000	55		 push	 ebp
  00001	8b ec		 mov	 ebp, esp
  00003	83 ec 40	 sub	 esp, 64			; 00000040H
  00006	a1 00 00 00 00	 mov	 eax, DWORD PTR ___security_cookie
  0000b	33 c5		 xor	 eax, ebp
  0000d	89 45 fc	 mov	 DWORD PTR __$ArrayPad$[ebp], eax
  00010	53		 push	 ebx
  00011	56		 push	 esi
  00012	8b d9		 mov	 ebx, ecx
  00014	57		 push	 edi
  00015	89 5d d4	 mov	 DWORD PTR _this$GSCopy$[ebp], ebx

; 151  : 	D3DXVECTOR3 vAxis;
; 152  : 	D3DXVec3Cross( &vAxis, &m_vMoveDir, &D3DXVECTOR3( 0.0f, -FLOAT1, 0.0f ) );

  00018	b8 01 00 00 00	 mov	 eax, 1
  0001d	89 45 c0	 mov	 DWORD PTR tv436[ebp], eax
  00020	db 45 c0	 fild	 DWORD PTR tv436[ebp]
  00023	85 c0		 test	 eax, eax
  00025	79 06		 jns	 SHORT $LN21@RotateMove
  00027	d8 05 00 00 00
	00		 fadd	 DWORD PTR __real@4f800000
$LN21@RotateMove:
  0002d	f3 0f 10 83 04
	09 00 00	 movss	 xmm0, DWORD PTR [ebx+2308]
  00035	d9 e0		 fchs
  00037	f3 0f 10 93 08
	09 00 00	 movss	 xmm2, DWORD PTR [ebx+2312]
  0003f	d9 5d dc	 fstp	 DWORD PTR $T532416[ebp+4]
  00042	f3 0f 10 65 dc	 movss	 xmm4, DWORD PTR $T532416[ebp+4]
  00047	0f 5a c8	 cvtps2pd xmm1, xmm0
  0004a	0f 57 c0	 xorps	 xmm0, xmm0
  0004d	f2 0f 59 c8	 mulsd	 xmm1, xmm0
  00051	0f 5a da	 cvtps2pd xmm3, xmm2
  00054	81 c3 00 09 00
	00		 add	 ebx, 2304		; 00000900H
  0005a	0f 5a e4	 cvtps2pd xmm4, xmm4
  0005d	f2 0f 59 dc	 mulsd	 xmm3, xmm4
  00061	66 0f 28 e1	 movapd	 xmm4, xmm1
  00065	f2 0f 5c e3	 subsd	 xmm4, xmm3
  00069	0f 57 db	 xorps	 xmm3, xmm3
  0006c	f2 0f 5a dc	 cvtsd2ss xmm3, xmm4
  00070	f3 0f 11 5d f0	 movss	 DWORD PTR _v$535647[ebp], xmm3
  00075	f3 0f 10 1b	 movss	 xmm3, DWORD PTR [ebx]
  00079	0f 5a d2	 cvtps2pd xmm2, xmm2
  0007c	f2 0f 59 d0	 mulsd	 xmm2, xmm0
  00080	0f 5a e3	 cvtps2pd xmm4, xmm3
  00083	f2 0f 59 e0	 mulsd	 xmm4, xmm0
  00087	f2 0f 5c d4	 subsd	 xmm2, xmm4
  0008b	66 0f 5a c2	 cvtpd2ps xmm0, xmm2
  0008f	f3 0f 10 55 dc	 movss	 xmm2, DWORD PTR $T532416[ebp+4]
  00094	f3 0f 11 45 f4	 movss	 DWORD PTR _v$535647[ebp+4], xmm0
  00099	0f 5a d2	 cvtps2pd xmm2, xmm2
  0009c	8d 75 f0	 lea	 esi, DWORD PTR _v$535647[ebp]
  0009f	8d 7d e4	 lea	 edi, DWORD PTR _vAxis$[ebp]
  000a2	0f 5a c3	 cvtps2pd xmm0, xmm3
  000a5	f2 0f 59 c2	 mulsd	 xmm0, xmm2
  000a9	f2 0f 5c c1	 subsd	 xmm0, xmm1
  000ad	66 0f 5a c0	 cvtpd2ps xmm0, xmm0
  000b1	f3 0f 11 45 f8	 movss	 DWORD PTR _v$535647[ebp+8], xmm0

; 153  : 
; 154  : 	D3DXQUATERNION qtRot;
; 155  : 	D3DXQuaternionRotationAxis( &qtRot, &vAxis, DEGtoRAD(fAngle) );

  000b6	f3 0f 10 45 08	 movss	 xmm0, DWORD PTR _fAngle$[ebp]
  000bb	a5		 movsd
  000bc	0f 5a c0	 cvtps2pd xmm0, xmm0
  000bf	f2 0f 59 05 00
	00 00 00	 mulsd	 xmm0, QWORD PTR __real@3f91df46a2526c7a
  000c7	51		 push	 ecx
  000c8	66 0f 5a c0	 cvtpd2ps xmm0, xmm0
  000cc	f3 0f 11 04 24	 movss	 DWORD PTR [esp], xmm0
  000d1	8d 45 e4	 lea	 eax, DWORD PTR _vAxis$[ebp]
  000d4	a5		 movsd
  000d5	50		 push	 eax
  000d6	8d 45 c4	 lea	 eax, DWORD PTR _qtRot$[ebp]
  000d9	50		 push	 eax
  000da	a5		 movsd
  000db	e8 00 00 00 00	 call	 _D3DXQuaternionRotationAxis@12

; 156  : 	m_vMoveDir = qtRot * m_vMoveDir;

  000e0	53		 push	 ebx
  000e1	8d 45 c4	 lea	 eax, DWORD PTR _qtRot$[ebp]
  000e4	50		 push	 eax
  000e5	8d 45 d8	 lea	 eax, DWORD PTR $T532422[ebp]
  000e8	50		 push	 eax
  000e9	ff 15 00 00 00
	00		 call	 DWORD PTR __imp_??D@YA?AUD3DXVECTOR3@@ABUD3DXQUATERNION@@ABU0@@Z
  000ef	8b f0		 mov	 esi, eax
  000f1	8b fb		 mov	 edi, ebx
  000f3	a5		 movsd
  000f4	a5		 movsd
  000f5	a5		 movsd

; 157  : 	
; 158  : 	ioMath::CalcDirectionQuaternion( qtRot, -m_vMoveDir );

  000f6	f3 0f 10 05 00
	00 00 00	 movss	 xmm0, DWORD PTR __mask@@NegFloat@
  000fe	f3 0f 10 0b	 movss	 xmm1, DWORD PTR [ebx]
  00102	0f 57 c8	 xorps	 xmm1, xmm0
  00105	f3 0f 11 4d f0	 movss	 DWORD PTR $T532423[ebp], xmm1
  0010a	f3 0f 10 4b 04	 movss	 xmm1, DWORD PTR [ebx+4]
  0010f	0f 57 c8	 xorps	 xmm1, xmm0
  00112	8d 45 f0	 lea	 eax, DWORD PTR $T532423[ebp]
  00115	50		 push	 eax
  00116	f3 0f 11 4d f4	 movss	 DWORD PTR $T532423[ebp+4], xmm1
  0011b	f3 0f 10 4b 08	 movss	 xmm1, DWORD PTR [ebx+8]
  00120	8d 45 c4	 lea	 eax, DWORD PTR _qtRot$[ebp]
  00123	0f 57 c8	 xorps	 xmm1, xmm0
  00126	50		 push	 eax
  00127	f3 0f 11 4d f8	 movss	 DWORD PTR $T532423[ebp+8], xmm1
  0012c	ff 15 00 00 00
	00		 call	 DWORD PTR __imp_?CalcDirectionQuaternion@ioMath@@SAXAAUD3DXQUATERNION@@ABUD3DXVECTOR3@@@Z

; 159  : 	SetOrientation( qtRot );

  00132	8b 4d d4	 mov	 ecx, DWORD PTR _this$GSCopy$[ebp]
  00135	83 c4 14	 add	 esp, 20			; 00000014H
  00138	8d 45 c4	 lea	 eax, DWORD PTR _qtRot$[ebp]
  0013b	50		 push	 eax
  0013c	e8 00 00 00 00	 call	 ?SetOrientation@ioWeapon@@QAEXABUD3DXQUATERNION@@@Z ; ioWeapon::SetOrientation
  00141	5f		 pop	 edi
  00142	5e		 pop	 esi

; 160  : }

  00143	8b 4d fc	 mov	 ecx, DWORD PTR __$ArrayPad$[ebp]
  00146	33 cd		 xor	 ecx, ebp
  00148	5b		 pop	 ebx
  00149	e8 00 00 00 00	 call	 @__security_check_cookie@4
  0014e	c9		 leave
  0014f	c2 04 00	 ret	 4
?RotateMoveDir@ioAdhesiveMissileWeapon4@@IAEXM@Z ENDP	; ioAdhesiveMissileWeapon4::RotateMoveDir
_TEXT	ENDS
PUBLIC	??0?$_Vector_iterator@V?$_Vector_val@UTargetInfo@ioAdhesiveMissileWeapon4@@V?$allocator@UTargetInfo@ioAdhesiveMissileWeapon4@@@std@@@std@@@std@@QAE@XZ ; std::_Vector_iterator<std::_Vector_val<ioAdhesiveMissileWeapon4::TargetInfo,std::allocator<ioAdhesiveMissileWeapon4::TargetInfo> > >::_Vector_iterator<std::_Vector_val<ioAdhesiveMissileWeapon4::TargetInfo,std::allocator<ioAdhesiveMissileWeapon4::TargetInfo> > >
; Function compile flags: /Ogsp
; File c:\program files (x86)\microsoft visual studio 10.0\vc\include\vector
;	COMDAT ??0?$_Vector_iterator@V?$_Vector_val@UTargetInfo@ioAdhesiveMissileWeapon4@@V?$allocator@UTargetInfo@ioAdhesiveMissileWeapon4@@@std@@@std@@@std@@QAE@XZ
_TEXT	SEGMENT
??0?$_Vector_iterator@V?$_Vector_val@UTargetInfo@ioAdhesiveMissileWeapon4@@V?$allocator@UTargetInfo@ioAdhesiveMissileWeapon4@@@std@@@std@@@std@@QAE@XZ PROC ; std::_Vector_iterator<std::_Vector_val<ioAdhesiveMissileWeapon4::TargetInfo,std::allocator<ioAdhesiveMissileWeapon4::TargetInfo> > >::_Vector_iterator<std::_Vector_val<ioAdhesiveMissileWeapon4::TargetInfo,std::allocator<ioAdhesiveMissileWeapon4::TargetInfo> > >, COMDAT
; _this$ = ecx

; 298  : 	_Vector_iterator()

  00000	8b c1		 mov	 eax, ecx
  00002	83 20 00	 and	 DWORD PTR [eax], 0

; 299  : 		{	// construct with null vector pointer
; 300  : 		}

  00005	c3		 ret	 0
??0?$_Vector_iterator@V?$_Vector_val@UTargetInfo@ioAdhesiveMissileWeapon4@@V?$allocator@UTargetInfo@ioAdhesiveMissileWeapon4@@@std@@@std@@@std@@QAE@XZ ENDP ; std::_Vector_iterator<std::_Vector_val<ioAdhesiveMissileWeapon4::TargetInfo,std::allocator<ioAdhesiveMissileWeapon4::TargetInfo> > >::_Vector_iterator<std::_Vector_val<ioAdhesiveMissileWeapon4::TargetInfo,std::allocator<ioAdhesiveMissileWeapon4::TargetInfo> > >
_TEXT	ENDS
PUBLIC	??D?$_Vector_iterator@V?$_Vector_val@UTargetInfo@ioAdhesiveMissileWeapon4@@V?$allocator@UTargetInfo@ioAdhesiveMissileWeapon4@@@std@@@std@@@std@@QBEAAUTargetInfo@ioAdhesiveMissileWeapon4@@XZ ; std::_Vector_iterator<std::_Vector_val<ioAdhesiveMissileWeapon4::TargetInfo,std::allocator<ioAdhesiveMissileWeapon4::TargetInfo> > >::operator*
; Function compile flags: /Ogsp
;	COMDAT ??D?$_Vector_iterator@V?$_Vector_val@UTargetInfo@ioAdhesiveMissileWeapon4@@V?$allocator@UTargetInfo@ioAdhesiveMissileWeapon4@@@std@@@std@@@std@@QBEAAUTargetInfo@ioAdhesiveMissileWeapon4@@XZ
_TEXT	SEGMENT
??D?$_Vector_iterator@V?$_Vector_val@UTargetInfo@ioAdhesiveMissileWeapon4@@V?$allocator@UTargetInfo@ioAdhesiveMissileWeapon4@@@std@@@std@@@std@@QBEAAUTargetInfo@ioAdhesiveMissileWeapon4@@XZ PROC ; std::_Vector_iterator<std::_Vector_val<ioAdhesiveMissileWeapon4::TargetInfo,std::allocator<ioAdhesiveMissileWeapon4::TargetInfo> > >::operator*, COMDAT
; _this$ = ecx

; 322  : 		return ((reference)**(_Mybase *)this);

  00000	8b 01		 mov	 eax, DWORD PTR [ecx]

; 323  : 		}

  00002	c3		 ret	 0
??D?$_Vector_iterator@V?$_Vector_val@UTargetInfo@ioAdhesiveMissileWeapon4@@V?$allocator@UTargetInfo@ioAdhesiveMissileWeapon4@@@std@@@std@@@std@@QBEAAUTargetInfo@ioAdhesiveMissileWeapon4@@XZ ENDP ; std::_Vector_iterator<std::_Vector_val<ioAdhesiveMissileWeapon4::TargetInfo,std::allocator<ioAdhesiveMissileWeapon4::TargetInfo> > >::operator*
_TEXT	ENDS
PUBLIC	??E?$_Vector_iterator@V?$_Vector_val@UTargetInfo@ioAdhesiveMissileWeapon4@@V?$allocator@UTargetInfo@ioAdhesiveMissileWeapon4@@@std@@@std@@@std@@QAEAAV01@XZ ; std::_Vector_iterator<std::_Vector_val<ioAdhesiveMissileWeapon4::TargetInfo,std::allocator<ioAdhesiveMissileWeapon4::TargetInfo> > >::operator++
; Function compile flags: /Ogsp
;	COMDAT ??E?$_Vector_iterator@V?$_Vector_val@UTargetInfo@ioAdhesiveMissileWeapon4@@V?$allocator@UTargetInfo@ioAdhesiveMissileWeapon4@@@std@@@std@@@std@@QAEAAV01@XZ
_TEXT	SEGMENT
??E?$_Vector_iterator@V?$_Vector_val@UTargetInfo@ioAdhesiveMissileWeapon4@@V?$allocator@UTargetInfo@ioAdhesiveMissileWeapon4@@@std@@@std@@@std@@QAEAAV01@XZ PROC ; std::_Vector_iterator<std::_Vector_val<ioAdhesiveMissileWeapon4::TargetInfo,std::allocator<ioAdhesiveMissileWeapon4::TargetInfo> > >::operator++, COMDAT
; _this$ = ecx

; 331  : 		{	// preincrement

  00000	8b c1		 mov	 eax, ecx

; 332  : 		++*(_Mybase *)this;

  00002	83 00 18	 add	 DWORD PTR [eax], 24	; 00000018H

; 333  : 		return (*this);
; 334  : 		}

  00005	c3		 ret	 0
??E?$_Vector_iterator@V?$_Vector_val@UTargetInfo@ioAdhesiveMissileWeapon4@@V?$allocator@UTargetInfo@ioAdhesiveMissileWeapon4@@@std@@@std@@@std@@QAEAAV01@XZ ENDP ; std::_Vector_iterator<std::_Vector_val<ioAdhesiveMissileWeapon4::TargetInfo,std::allocator<ioAdhesiveMissileWeapon4::TargetInfo> > >::operator++
_TEXT	ENDS
PUBLIC	??0?$_Vector_val@UTargetInfo@ioAdhesiveMissileWeapon4@@V?$allocator@UTargetInfo@ioAdhesiveMissileWeapon4@@@std@@@std@@QAE@V?$allocator@UTargetInfo@ioAdhesiveMissileWeapon4@@@1@@Z ; std::_Vector_val<ioAdhesiveMissileWeapon4::TargetInfo,std::allocator<ioAdhesiveMissileWeapon4::TargetInfo> >::_Vector_val<ioAdhesiveMissileWeapon4::TargetInfo,std::allocator<ioAdhesiveMissileWeapon4::TargetInfo> >
; Function compile flags: /Ogsp
;	COMDAT ??0?$_Vector_val@UTargetInfo@ioAdhesiveMissileWeapon4@@V?$allocator@UTargetInfo@ioAdhesiveMissileWeapon4@@@std@@@std@@QAE@V?$allocator@UTargetInfo@ioAdhesiveMissileWeapon4@@@1@@Z
_TEXT	SEGMENT
__Al$ = 8						; size = 1
??0?$_Vector_val@UTargetInfo@ioAdhesiveMissileWeapon4@@V?$allocator@UTargetInfo@ioAdhesiveMissileWeapon4@@@std@@@std@@QAE@V?$allocator@UTargetInfo@ioAdhesiveMissileWeapon4@@@1@@Z PROC ; std::_Vector_val<ioAdhesiveMissileWeapon4::TargetInfo,std::allocator<ioAdhesiveMissileWeapon4::TargetInfo> >::_Vector_val<ioAdhesiveMissileWeapon4::TargetInfo,std::allocator<ioAdhesiveMissileWeapon4::TargetInfo> >, COMDAT
; _this$ = ecx

; 426  : 		{	// construct allocator from _Al

  00000	8b c1		 mov	 eax, ecx

; 427  : 		_Myfirst = 0;

  00002	33 c9		 xor	 ecx, ecx
  00004	89 08		 mov	 DWORD PTR [eax], ecx

; 428  : 		_Mylast = 0;

  00006	89 48 04	 mov	 DWORD PTR [eax+4], ecx

; 429  : 		_Myend = 0;

  00009	89 48 08	 mov	 DWORD PTR [eax+8], ecx

; 430  : 		}

  0000c	c2 04 00	 ret	 4
??0?$_Vector_val@UTargetInfo@ioAdhesiveMissileWeapon4@@V?$allocator@UTargetInfo@ioAdhesiveMissileWeapon4@@@std@@@std@@QAE@V?$allocator@UTargetInfo@ioAdhesiveMissileWeapon4@@@1@@Z ENDP ; std::_Vector_val<ioAdhesiveMissileWeapon4::TargetInfo,std::allocator<ioAdhesiveMissileWeapon4::TargetInfo> >::_Vector_val<ioAdhesiveMissileWeapon4::TargetInfo,std::allocator<ioAdhesiveMissileWeapon4::TargetInfo> >
_TEXT	ENDS
PUBLIC	??0?$_Vector_iterator@V?$_Vector_val@UTargetInfo@ioAdhesiveMissileWeapon4@@V?$allocator@UTargetInfo@ioAdhesiveMissileWeapon4@@@std@@@std@@@std@@QAE@PAUTargetInfo@ioAdhesiveMissileWeapon4@@PBU_Container_base0@1@@Z ; std::_Vector_iterator<std::_Vector_val<ioAdhesiveMissileWeapon4::TargetInfo,std::allocator<ioAdhesiveMissileWeapon4::TargetInfo> > >::_Vector_iterator<std::_Vector_val<ioAdhesiveMissileWeapon4::TargetInfo,std::allocator<ioAdhesiveMissileWeapon4::TargetInfo> > >
; Function compile flags: /Ogsp
;	COMDAT ??0?$_Vector_iterator@V?$_Vector_val@UTargetInfo@ioAdhesiveMissileWeapon4@@V?$allocator@UTargetInfo@ioAdhesiveMissileWeapon4@@@std@@@std@@@std@@QAE@PAUTargetInfo@ioAdhesiveMissileWeapon4@@PBU_Container_base0@1@@Z
_TEXT	SEGMENT
__Parg$ = 8						; size = 4
__Pvector$ = 12						; size = 4
??0?$_Vector_iterator@V?$_Vector_val@UTargetInfo@ioAdhesiveMissileWeapon4@@V?$allocator@UTargetInfo@ioAdhesiveMissileWeapon4@@@std@@@std@@@std@@QAE@PAUTargetInfo@ioAdhesiveMissileWeapon4@@PBU_Container_base0@1@@Z PROC ; std::_Vector_iterator<std::_Vector_val<ioAdhesiveMissileWeapon4::TargetInfo,std::allocator<ioAdhesiveMissileWeapon4::TargetInfo> > >::_Vector_iterator<std::_Vector_val<ioAdhesiveMissileWeapon4::TargetInfo,std::allocator<ioAdhesiveMissileWeapon4::TargetInfo> > >, COMDAT
; _this$ = ecx

; 304  : 		{	// construct with pointer _Parg

  00000	55		 push	 ebp
  00001	8b ec		 mov	 ebp, esp
  00003	8b c1		 mov	 eax, ecx
  00005	8b 4d 08	 mov	 ecx, DWORD PTR __Parg$[ebp]
  00008	89 08		 mov	 DWORD PTR [eax], ecx

; 305  : 		}

  0000a	5d		 pop	 ebp
  0000b	c2 08 00	 ret	 8
??0?$_Vector_iterator@V?$_Vector_val@UTargetInfo@ioAdhesiveMissileWeapon4@@V?$allocator@UTargetInfo@ioAdhesiveMissileWeapon4@@@std@@@std@@@std@@QAE@PAUTargetInfo@ioAdhesiveMissileWeapon4@@PBU_Container_base0@1@@Z ENDP ; std::_Vector_iterator<std::_Vector_val<ioAdhesiveMissileWeapon4::TargetInfo,std::allocator<ioAdhesiveMissileWeapon4::TargetInfo> > >::_Vector_iterator<std::_Vector_val<ioAdhesiveMissileWeapon4::TargetInfo,std::allocator<ioAdhesiveMissileWeapon4::TargetInfo> > >
_TEXT	ENDS
PUBLIC	??8?$_Vector_const_iterator@V?$_Vector_val@UTargetInfo@ioAdhesiveMissileWeapon4@@V?$allocator@UTargetInfo@ioAdhesiveMissileWeapon4@@@std@@@std@@@std@@QBE_NABV01@@Z ; std::_Vector_const_iterator<std::_Vector_val<ioAdhesiveMissileWeapon4::TargetInfo,std::allocator<ioAdhesiveMissileWeapon4::TargetInfo> > >::operator==
; Function compile flags: /Ogsp
;	COMDAT ??8?$_Vector_const_iterator@V?$_Vector_val@UTargetInfo@ioAdhesiveMissileWeapon4@@V?$allocator@UTargetInfo@ioAdhesiveMissileWeapon4@@@std@@@std@@@std@@QBE_NABV01@@Z
_TEXT	SEGMENT
__Right$ = 8						; size = 4
??8?$_Vector_const_iterator@V?$_Vector_val@UTargetInfo@ioAdhesiveMissileWeapon4@@V?$allocator@UTargetInfo@ioAdhesiveMissileWeapon4@@@std@@@std@@@std@@QBE_NABV01@@Z PROC ; std::_Vector_const_iterator<std::_Vector_val<ioAdhesiveMissileWeapon4::TargetInfo,std::allocator<ioAdhesiveMissileWeapon4::TargetInfo> > >::operator==, COMDAT
; _this$ = ecx

; 201  : 		{	// test for iterator equality

  00000	55		 push	 ebp
  00001	8b ec		 mov	 ebp, esp

; 202  : 		_Compat(_Right);
; 203  : 		return (this->_Ptr == _Right._Ptr);

  00003	8b 01		 mov	 eax, DWORD PTR [ecx]
  00005	8b 4d 08	 mov	 ecx, DWORD PTR __Right$[ebp]
  00008	2b 01		 sub	 eax, DWORD PTR [ecx]
  0000a	f7 d8		 neg	 eax
  0000c	1b c0		 sbb	 eax, eax
  0000e	40		 inc	 eax

; 204  : 		}

  0000f	5d		 pop	 ebp
  00010	c2 04 00	 ret	 4
??8?$_Vector_const_iterator@V?$_Vector_val@UTargetInfo@ioAdhesiveMissileWeapon4@@V?$allocator@UTargetInfo@ioAdhesiveMissileWeapon4@@@std@@@std@@@std@@QBE_NABV01@@Z ENDP ; std::_Vector_const_iterator<std::_Vector_val<ioAdhesiveMissileWeapon4::TargetInfo,std::allocator<ioAdhesiveMissileWeapon4::TargetInfo> > >::operator==
_TEXT	ENDS
PUBLIC	?max_size@?$vector@UTargetInfo@ioAdhesiveMissileWeapon4@@V?$allocator@UTargetInfo@ioAdhesiveMissileWeapon4@@@std@@@std@@QBEIXZ ; std::vector<ioAdhesiveMissileWeapon4::TargetInfo,std::allocator<ioAdhesiveMissileWeapon4::TargetInfo> >::max_size
; Function compile flags: /Ogsp
;	COMDAT ?max_size@?$vector@UTargetInfo@ioAdhesiveMissileWeapon4@@V?$allocator@UTargetInfo@ioAdhesiveMissileWeapon4@@@std@@@std@@QBEIXZ
_TEXT	SEGMENT
?max_size@?$vector@UTargetInfo@ioAdhesiveMissileWeapon4@@V?$allocator@UTargetInfo@ioAdhesiveMissileWeapon4@@@std@@@std@@QBEIXZ PROC ; std::vector<ioAdhesiveMissileWeapon4::TargetInfo,std::allocator<ioAdhesiveMissileWeapon4::TargetInfo> >::max_size, COMDAT
; _this$ = ecx

; 884  : 		return (this->_Alval.max_size());

  00000	b8 aa aa aa 0a	 mov	 eax, 178956970		; 0aaaaaaaH

; 885  : 		}

  00005	c3		 ret	 0
?max_size@?$vector@UTargetInfo@ioAdhesiveMissileWeapon4@@V?$allocator@UTargetInfo@ioAdhesiveMissileWeapon4@@@std@@@std@@QBEIXZ ENDP ; std::vector<ioAdhesiveMissileWeapon4::TargetInfo,std::allocator<ioAdhesiveMissileWeapon4::TargetInfo> >::max_size
_TEXT	ENDS
PUBLIC	?_Grow_to@?$vector@UTargetInfo@ioAdhesiveMissileWeapon4@@V?$allocator@UTargetInfo@ioAdhesiveMissileWeapon4@@@std@@@std@@IBEII@Z ; std::vector<ioAdhesiveMissileWeapon4::TargetInfo,std::allocator<ioAdhesiveMissileWeapon4::TargetInfo> >::_Grow_to
; Function compile flags: /Ogsp
;	COMDAT ?_Grow_to@?$vector@UTargetInfo@ioAdhesiveMissileWeapon4@@V?$allocator@UTargetInfo@ioAdhesiveMissileWeapon4@@@std@@@std@@IBEII@Z
_TEXT	SEGMENT
__Count$ = 8						; size = 4
?_Grow_to@?$vector@UTargetInfo@ioAdhesiveMissileWeapon4@@V?$allocator@UTargetInfo@ioAdhesiveMissileWeapon4@@@std@@@std@@IBEII@Z PROC ; std::vector<ioAdhesiveMissileWeapon4::TargetInfo,std::allocator<ioAdhesiveMissileWeapon4::TargetInfo> >::_Grow_to, COMDAT
; _this$ = ecx

; 1274 : 		{	// grow by 50% or at least to _Count

  00000	55		 push	 ebp
  00001	8b ec		 mov	 ebp, esp

; 1275 : 		size_type _Capacity = capacity();

  00003	8b 41 08	 mov	 eax, DWORD PTR [ecx+8]
  00006	2b 01		 sub	 eax, DWORD PTR [ecx]
  00008	6a 18		 push	 24			; 00000018H
  0000a	99		 cdq
  0000b	59		 pop	 ecx
  0000c	f7 f9		 idiv	 ecx

; 1276 : 
; 1277 : 		_Capacity = max_size() - _Capacity / 2 < _Capacity
; 1278 : 			? 0 : _Capacity + _Capacity / 2;	// try to grow by 50%

  0000e	ba aa aa aa 0a	 mov	 edx, 178956970		; 0aaaaaaaH
  00013	8b c8		 mov	 ecx, eax
  00015	d1 e9		 shr	 ecx, 1
  00017	2b d1		 sub	 edx, ecx
  00019	3b d0		 cmp	 edx, eax
  0001b	73 04		 jae	 SHORT $LN4@Grow_to
  0001d	33 c0		 xor	 eax, eax
  0001f	eb 02		 jmp	 SHORT $LN5@Grow_to
$LN4@Grow_to:
  00021	03 c1		 add	 eax, ecx
$LN5@Grow_to:

; 1279 : 		if (_Capacity < _Count)

  00023	3b 45 08	 cmp	 eax, DWORD PTR __Count$[ebp]

; 1280 : 			_Capacity = _Count;

  00026	0f 42 45 08	 cmovb	 eax, DWORD PTR __Count$[ebp]

; 1281 : 		return (_Capacity);
; 1282 : 		}

  0002a	5d		 pop	 ebp
  0002b	c2 04 00	 ret	 4
?_Grow_to@?$vector@UTargetInfo@ioAdhesiveMissileWeapon4@@V?$allocator@UTargetInfo@ioAdhesiveMissileWeapon4@@@std@@@std@@IBEII@Z ENDP ; std::vector<ioAdhesiveMissileWeapon4::TargetInfo,std::allocator<ioAdhesiveMissileWeapon4::TargetInfo> >::_Grow_to
_TEXT	ENDS
PUBLIC	?allocate@?$allocator@UTargetInfo@ioAdhesiveMissileWeapon4@@@std@@QAEPAUTargetInfo@ioAdhesiveMissileWeapon4@@I@Z ; std::allocator<ioAdhesiveMissileWeapon4::TargetInfo>::allocate
; Function compile flags: /Ogsp
; File c:\program files (x86)\microsoft visual studio 10.0\vc\include\xmemory
;	COMDAT ?allocate@?$allocator@UTargetInfo@ioAdhesiveMissileWeapon4@@@std@@QAEPAUTargetInfo@ioAdhesiveMissileWeapon4@@I@Z
_TEXT	SEGMENT
__Count$ = 8						; size = 4
?allocate@?$allocator@UTargetInfo@ioAdhesiveMissileWeapon4@@@std@@QAEPAUTargetInfo@ioAdhesiveMissileWeapon4@@I@Z PROC ; std::allocator<ioAdhesiveMissileWeapon4::TargetInfo>::allocate, COMDAT
; _this$ = ecx

; 186  : 		{	// allocate array of _Count elements

  00000	55		 push	 ebp
  00001	8b ec		 mov	 ebp, esp

; 187  : 		return (_Allocate(_Count, (pointer)0));

  00003	6a 00		 push	 0
  00005	ff 75 08	 push	 DWORD PTR __Count$[ebp]
  00008	e8 00 00 00 00	 call	 ??$_Allocate@UTargetInfo@ioAdhesiveMissileWeapon4@@@std@@YAPAUTargetInfo@ioAdhesiveMissileWeapon4@@IPAU12@@Z ; std::_Allocate<ioAdhesiveMissileWeapon4::TargetInfo>
  0000d	59		 pop	 ecx
  0000e	59		 pop	 ecx

; 188  : 		}

  0000f	5d		 pop	 ebp
  00010	c2 04 00	 ret	 4
?allocate@?$allocator@UTargetInfo@ioAdhesiveMissileWeapon4@@@std@@QAEPAUTargetInfo@ioAdhesiveMissileWeapon4@@I@Z ENDP ; std::allocator<ioAdhesiveMissileWeapon4::TargetInfo>::allocate
_TEXT	ENDS
PUBLIC	_this$GSCopy$
PUBLIC	__$ArrayPad$
PUBLIC	??$LoadString_e@$0M@@ioINILoader@@QAEXAAY0M@$$CBDAAY00$$CBDPADH@Z ; ioINILoader::LoadString_e<12>
EXTRN	__imp_?LoadStringA@ioINILoader@@QAEXPBD0PADH@Z:PROC
; Function compile flags: /Ogsp
; File d:\lost saga for developer\youtube\tutorial\source\src\io3dengine\ioiniloader.h
;	COMDAT ??$LoadString_e@$0M@@ioINILoader@@QAEXAAY0M@$$CBDAAY00$$CBDPADH@Z
_TEXT	SEGMENT
_this$GSCopy$ = -24					; size = 4
__k$ = -20						; size = 12
__$ArrayPad$ = -4					; size = 4
_k$ = 8							; size = 4
_d$ = 12						; size = 4
_b$ = 16						; size = 4
_i$ = 20						; size = 4
??$LoadString_e@$0M@@ioINILoader@@QAEXAAY0M@$$CBDAAY00$$CBDPADH@Z PROC ; ioINILoader::LoadString_e<12>, COMDAT
; _this$ = ecx

; 161  : 	{

  00000	55		 push	 ebp
  00001	8b ec		 mov	 ebp, esp
  00003	83 ec 18	 sub	 esp, 24			; 00000018H
  00006	a1 00 00 00 00	 mov	 eax, DWORD PTR ___security_cookie
  0000b	33 c5		 xor	 eax, ebp
  0000d	89 45 fc	 mov	 DWORD PTR __$ArrayPad$[ebp], eax
  00010	8b 45 08	 mov	 eax, DWORD PTR _k$[ebp]

; 162  : 		_ENCSTR(k, _k);

  00013	8a 10		 mov	 dl, BYTE PTR [eax]
  00015	56		 push	 esi
  00016	8b 75 0c	 mov	 esi, DWORD PTR _d$[ebp]
  00019	57		 push	 edi
  0001a	8b 7d 10	 mov	 edi, DWORD PTR _b$[ebp]
  0001d	89 4d e8	 mov	 DWORD PTR _this$GSCopy$[ebp], ecx
  00020	84 d2		 test	 dl, dl
  00022	0f 84 32 01 00
	00		 je	 $LN96@LoadString
  00028	80 f2 ed	 xor	 dl, -19			; ffffffedH
  0002b	88 55 ec	 mov	 BYTE PTR __k$[ebp], dl
  0002e	8a 50 01	 mov	 dl, BYTE PTR [eax+1]
  00031	84 d2		 test	 dl, dl
  00033	0f 84 1b 01 00
	00		 je	 $LN95@LoadString
  00039	80 f2 ec	 xor	 dl, -20			; ffffffecH
  0003c	88 55 ed	 mov	 BYTE PTR __k$[ebp+1], dl
  0003f	8a 50 02	 mov	 dl, BYTE PTR [eax+2]
  00042	84 d2		 test	 dl, dl
  00044	0f 84 04 01 00
	00		 je	 $LN94@LoadString
  0004a	b1 eb		 mov	 cl, -21			; ffffffebH
  0004c	32 d1		 xor	 dl, cl
  0004e	88 55 ee	 mov	 BYTE PTR __k$[ebp+2], dl
  00051	8a 50 03	 mov	 dl, BYTE PTR [eax+3]
  00054	84 d2		 test	 dl, dl
  00056	0f 84 ec 00 00
	00		 je	 $LN93@LoadString
  0005c	80 f2 ea	 xor	 dl, -22			; ffffffeaH
  0005f	88 55 ef	 mov	 BYTE PTR __k$[ebp+3], dl
  00062	8a 50 04	 mov	 dl, BYTE PTR [eax+4]
  00065	84 d2		 test	 dl, dl
  00067	0f 84 d5 00 00
	00		 je	 $LN92@LoadString
  0006d	80 f2 ed	 xor	 dl, -19			; ffffffedH
  00070	88 55 f0	 mov	 BYTE PTR __k$[ebp+4], dl
  00073	8a 50 05	 mov	 dl, BYTE PTR [eax+5]
  00076	84 d2		 test	 dl, dl
  00078	0f 84 be 00 00
	00		 je	 $LN91@LoadString
  0007e	80 f2 ec	 xor	 dl, -20			; ffffffecH
  00081	88 55 f1	 mov	 BYTE PTR __k$[ebp+5], dl
  00084	8a 50 06	 mov	 dl, BYTE PTR [eax+6]
  00087	84 d2		 test	 dl, dl
  00089	0f 84 a8 00 00
	00		 je	 $LN90@LoadString
  0008f	32 d1		 xor	 dl, cl
  00091	88 55 f2	 mov	 BYTE PTR __k$[ebp+6], dl
  00094	8a 50 07	 mov	 dl, BYTE PTR [eax+7]
  00097	84 d2		 test	 dl, dl
  00099	0f 84 92 00 00
	00		 je	 $LN89@LoadString
  0009f	80 f2 ea	 xor	 dl, -22			; ffffffeaH
  000a2	88 55 f3	 mov	 BYTE PTR __k$[ebp+7], dl
  000a5	8a 50 08	 mov	 dl, BYTE PTR [eax+8]
  000a8	84 d2		 test	 dl, dl
  000aa	74 7f		 je	 SHORT $LN88@LoadString
  000ac	80 f2 ed	 xor	 dl, -19			; ffffffedH
  000af	88 55 f4	 mov	 BYTE PTR __k$[ebp+8], dl
  000b2	8a 50 09	 mov	 dl, BYTE PTR [eax+9]
  000b5	84 d2		 test	 dl, dl
  000b7	74 6c		 je	 SHORT $LN87@LoadString
  000b9	80 f2 ec	 xor	 dl, -20			; ffffffecH
  000bc	88 55 f5	 mov	 BYTE PTR __k$[ebp+9], dl
  000bf	8a 50 0a	 mov	 dl, BYTE PTR [eax+10]
  000c2	84 d2		 test	 dl, dl
  000c4	74 5a		 je	 SHORT $LN86@LoadString
  000c6	32 d1		 xor	 dl, cl
  000c8	80 78 0b 00	 cmp	 BYTE PTR [eax+11], 0
  000cc	88 55 f6	 mov	 BYTE PTR __k$[ebp+10], dl
  000cf	0f 84 89 00 00
	00		 je	 $LN111@LoadString
  000d5	8a 50 0c	 mov	 dl, BYTE PTR [eax+12]
  000d8	84 d2		 test	 dl, dl
  000da	74 3e		 je	 SHORT $LN84@LoadString
  000dc	80 f2 ed	 xor	 dl, -19			; ffffffedH
  000df	88 55 f8	 mov	 BYTE PTR __k$[ebp+12], dl
  000e2	8a 50 0d	 mov	 dl, BYTE PTR [eax+13]
  000e5	84 d2		 test	 dl, dl
  000e7	74 2b		 je	 SHORT $LN83@LoadString
  000e9	80 f2 ec	 xor	 dl, -20			; ffffffecH
  000ec	88 55 f9	 mov	 BYTE PTR __k$[ebp+13], dl
  000ef	8a 50 0e	 mov	 dl, BYTE PTR [eax+14]
  000f2	84 d2		 test	 dl, dl
  000f4	74 19		 je	 SHORT $LN82@LoadString
  000f6	8a 40 0f	 mov	 al, BYTE PTR [eax+15]
  000f9	32 d1		 xor	 dl, cl
  000fb	88 55 fa	 mov	 BYTE PTR __k$[ebp+14], dl
  000fe	84 c0		 test	 al, al
  00100	74 07		 je	 SHORT $LN81@LoadString
  00102	34 ea		 xor	 al, -22			; ffffffeaH
  00104	88 45 fb	 mov	 BYTE PTR __k$[ebp+15], al
  00107	eb 55		 jmp	 SHORT $LN111@LoadString
$LN81@LoadString:
  00109	c6 45 fb ea	 mov	 BYTE PTR __k$[ebp+15], -22 ; ffffffeaH
  0010d	eb 4f		 jmp	 SHORT $LN111@LoadString
$LN82@LoadString:
  0010f	88 4d fa	 mov	 BYTE PTR __k$[ebp+14], cl
  00112	eb 4a		 jmp	 SHORT $LN111@LoadString
$LN83@LoadString:
  00114	c6 45 f9 ec	 mov	 BYTE PTR __k$[ebp+13], -20 ; ffffffecH
  00118	eb 44		 jmp	 SHORT $LN111@LoadString
$LN84@LoadString:
  0011a	c6 45 f8 ed	 mov	 BYTE PTR __k$[ebp+12], -19 ; ffffffedH
  0011e	eb 3e		 jmp	 SHORT $LN111@LoadString
$LN86@LoadString:
  00120	88 4d f6	 mov	 BYTE PTR __k$[ebp+10], cl
  00123	eb 39		 jmp	 SHORT $LN111@LoadString
$LN87@LoadString:
  00125	c6 45 f5 ec	 mov	 BYTE PTR __k$[ebp+9], -20 ; ffffffecH
  00129	eb 33		 jmp	 SHORT $LN111@LoadString
$LN88@LoadString:
  0012b	c6 45 f4 ed	 mov	 BYTE PTR __k$[ebp+8], -19 ; ffffffedH
  0012f	eb 2d		 jmp	 SHORT $LN111@LoadString
$LN89@LoadString:
  00131	c6 45 f3 ea	 mov	 BYTE PTR __k$[ebp+7], -22 ; ffffffeaH
  00135	eb 27		 jmp	 SHORT $LN111@LoadString
$LN90@LoadString:
  00137	88 4d f2	 mov	 BYTE PTR __k$[ebp+6], cl
  0013a	eb 22		 jmp	 SHORT $LN111@LoadString
$LN91@LoadString:
  0013c	c6 45 f1 ec	 mov	 BYTE PTR __k$[ebp+5], -20 ; ffffffecH
  00140	eb 1c		 jmp	 SHORT $LN111@LoadString
$LN92@LoadString:
  00142	c6 45 f0 ed	 mov	 BYTE PTR __k$[ebp+4], -19 ; ffffffedH
  00146	eb 16		 jmp	 SHORT $LN111@LoadString
$LN93@LoadString:
  00148	c6 45 ef ea	 mov	 BYTE PTR __k$[ebp+3], -22 ; ffffffeaH
  0014c	eb 10		 jmp	 SHORT $LN111@LoadString
$LN94@LoadString:
  0014e	c6 45 ee eb	 mov	 BYTE PTR __k$[ebp+2], -21 ; ffffffebH
  00152	eb 0a		 jmp	 SHORT $LN111@LoadString
$LN95@LoadString:
  00154	c6 45 ed ec	 mov	 BYTE PTR __k$[ebp+1], -20 ; ffffffecH
  00158	eb 04		 jmp	 SHORT $LN111@LoadString
$LN96@LoadString:
  0015a	c6 45 ec ed	 mov	 BYTE PTR __k$[ebp], -19	; ffffffedH
$LN111@LoadString:
  0015e	6a 02		 push	 2
  00160	8d 45 ec	 lea	 eax, DWORD PTR __k$[ebp]
  00163	c6 45 f7 00	 mov	 BYTE PTR __k$[ebp+11], 0
  00167	5a		 pop	 edx
$LL104@LoadString:
  00168	81 30 ed ec eb
	ea		 xor	 DWORD PTR [eax], -353637139 ; eaebecedH
  0016e	83 c0 04	 add	 eax, 4
  00171	4a		 dec	 edx
  00172	75 f4		 jne	 SHORT $LL104@LoadString
  00174	6a 08		 push	 8
  00176	58		 pop	 eax
$LL101@LoadString:
  00177	8b c8		 mov	 ecx, eax
  00179	81 e1 03 00 00
	80		 and	 ecx, -2147483645	; 80000003H
  0017f	79 05		 jns	 SHORT $LN112@LoadString
  00181	49		 dec	 ecx
  00182	83 c9 fc	 or	 ecx, -4			; fffffffcH
  00185	41		 inc	 ecx
$LN112@LoadString:
  00186	b2 ed		 mov	 dl, -19			; ffffffedH
  00188	2a d1		 sub	 dl, cl
  0018a	30 54 05 ec	 xor	 BYTE PTR __k$[ebp+eax], dl
  0018e	40		 inc	 eax
  0018f	83 f8 0b	 cmp	 eax, 11			; 0000000bH
  00192	7c e3		 jl	 SHORT $LL101@LoadString

; 163  : 		LoadString(_k, d, b, i);

  00194	ff 75 14	 push	 DWORD PTR _i$[ebp]
  00197	8b 4d e8	 mov	 ecx, DWORD PTR _this$GSCopy$[ebp]
  0019a	57		 push	 edi
  0019b	56		 push	 esi
  0019c	8d 45 ec	 lea	 eax, DWORD PTR __k$[ebp]
  0019f	50		 push	 eax
  001a0	ff 15 00 00 00
	00		 call	 DWORD PTR __imp_?LoadStringA@ioINILoader@@QAEXPBD0PADH@Z

; 164  : 	}

  001a6	8b 4d fc	 mov	 ecx, DWORD PTR __$ArrayPad$[ebp]
  001a9	5f		 pop	 edi
  001aa	33 cd		 xor	 ecx, ebp
  001ac	5e		 pop	 esi
  001ad	e8 00 00 00 00	 call	 @__security_check_cookie@4
  001b2	c9		 leave
  001b3	c2 10 00	 ret	 16			; 00000010H
??$LoadString_e@$0M@@ioINILoader@@QAEXAAY0M@$$CBDAAY00$$CBDPADH@Z ENDP ; ioINILoader::LoadString_e<12>
_TEXT	ENDS
PUBLIC	__$ArrayPad$
PUBLIC	??$LoadInt_e@$0BH@@ioINILoader@@QAEHAAY0BH@$$CBDH@Z ; ioINILoader::LoadInt_e<23>
EXTRN	__imp_?LoadInt@ioINILoader@@QAEHPBDH@Z:PROC
; Function compile flags: /Ogsp
;	COMDAT ??$LoadInt_e@$0BH@@ioINILoader@@QAEHAAY0BH@$$CBDH@Z
_TEXT	SEGMENT
__k$ = -32						; size = 23
__$ArrayPad$ = -4					; size = 4
_k$ = 8							; size = 4
_i$ = 12						; size = 4
??$LoadInt_e@$0BH@@ioINILoader@@QAEHAAY0BH@$$CBDH@Z PROC ; ioINILoader::LoadInt_e<23>, COMDAT
; _this$ = ecx

; 118  : 	{

  00000	55		 push	 ebp
  00001	8b ec		 mov	 ebp, esp
  00003	83 ec 20	 sub	 esp, 32			; 00000020H
  00006	a1 00 00 00 00	 mov	 eax, DWORD PTR ___security_cookie
  0000b	33 c5		 xor	 eax, ebp
  0000d	89 45 fc	 mov	 DWORD PTR __$ArrayPad$[ebp], eax
  00010	8b 45 08	 mov	 eax, DWORD PTR _k$[ebp]

; 119  : 		_ENCSTR(k, _k);

  00013	8a 10		 mov	 dl, BYTE PTR [eax]
  00015	53		 push	 ebx
  00016	56		 push	 esi
  00017	8b f1		 mov	 esi, ecx
  00019	84 d2		 test	 dl, dl
  0001b	0f 84 2d 02 00
	00		 je	 $LN96@LoadInt_e
  00021	80 f2 ed	 xor	 dl, -19			; ffffffedH
  00024	88 55 e0	 mov	 BYTE PTR __k$[ebp], dl
  00027	8a 50 01	 mov	 dl, BYTE PTR [eax+1]
  0002a	84 d2		 test	 dl, dl
  0002c	0f 84 16 02 00
	00		 je	 $LN95@LoadInt_e
  00032	b1 ec		 mov	 cl, -20			; ffffffecH
  00034	32 d1		 xor	 dl, cl
  00036	88 55 e1	 mov	 BYTE PTR __k$[ebp+1], dl
  00039	8a 50 02	 mov	 dl, BYTE PTR [eax+2]
  0003c	84 d2		 test	 dl, dl
  0003e	0f 84 fe 01 00
	00		 je	 $LN94@LoadInt_e
  00044	80 f2 eb	 xor	 dl, -21			; ffffffebH
  00047	88 55 e2	 mov	 BYTE PTR __k$[ebp+2], dl
  0004a	8a 50 03	 mov	 dl, BYTE PTR [eax+3]
  0004d	84 d2		 test	 dl, dl
  0004f	0f 84 e7 01 00
	00		 je	 $LN93@LoadInt_e
  00055	b3 ea		 mov	 bl, -22			; ffffffeaH
  00057	32 d3		 xor	 dl, bl
  00059	88 55 e3	 mov	 BYTE PTR __k$[ebp+3], dl
  0005c	8a 50 04	 mov	 dl, BYTE PTR [eax+4]
  0005f	84 d2		 test	 dl, dl
  00061	0f 84 cf 01 00
	00		 je	 $LN92@LoadInt_e
  00067	80 f2 ed	 xor	 dl, -19			; ffffffedH
  0006a	88 55 e4	 mov	 BYTE PTR __k$[ebp+4], dl
  0006d	8a 50 05	 mov	 dl, BYTE PTR [eax+5]
  00070	84 d2		 test	 dl, dl
  00072	0f 84 b9 01 00
	00		 je	 $LN91@LoadInt_e
  00078	32 d1		 xor	 dl, cl
  0007a	88 55 e5	 mov	 BYTE PTR __k$[ebp+5], dl
  0007d	8a 50 06	 mov	 dl, BYTE PTR [eax+6]
  00080	84 d2		 test	 dl, dl
  00082	0f 84 a3 01 00
	00		 je	 $LN90@LoadInt_e
  00088	80 f2 eb	 xor	 dl, -21			; ffffffebH
  0008b	88 55 e6	 mov	 BYTE PTR __k$[ebp+6], dl
  0008e	8a 50 07	 mov	 dl, BYTE PTR [eax+7]
  00091	84 d2		 test	 dl, dl
  00093	0f 84 8d 01 00
	00		 je	 $LN89@LoadInt_e
  00099	32 d3		 xor	 dl, bl
  0009b	88 55 e7	 mov	 BYTE PTR __k$[ebp+7], dl
  0009e	8a 50 08	 mov	 dl, BYTE PTR [eax+8]
  000a1	84 d2		 test	 dl, dl
  000a3	0f 84 77 01 00
	00		 je	 $LN88@LoadInt_e
  000a9	80 f2 ed	 xor	 dl, -19			; ffffffedH
  000ac	88 55 e8	 mov	 BYTE PTR __k$[ebp+8], dl
  000af	8a 50 09	 mov	 dl, BYTE PTR [eax+9]
  000b2	84 d2		 test	 dl, dl
  000b4	0f 84 61 01 00
	00		 je	 $LN87@LoadInt_e
  000ba	32 d1		 xor	 dl, cl
  000bc	88 55 e9	 mov	 BYTE PTR __k$[ebp+9], dl
  000bf	8a 50 0a	 mov	 dl, BYTE PTR [eax+10]
  000c2	84 d2		 test	 dl, dl
  000c4	0f 84 4b 01 00
	00		 je	 $LN86@LoadInt_e
  000ca	80 f2 eb	 xor	 dl, -21			; ffffffebH
  000cd	88 55 ea	 mov	 BYTE PTR __k$[ebp+10], dl
  000d0	8a 50 0b	 mov	 dl, BYTE PTR [eax+11]
  000d3	84 d2		 test	 dl, dl
  000d5	0f 84 35 01 00
	00		 je	 $LN85@LoadInt_e
  000db	32 d3		 xor	 dl, bl
  000dd	88 55 eb	 mov	 BYTE PTR __k$[ebp+11], dl
  000e0	8a 50 0c	 mov	 dl, BYTE PTR [eax+12]
  000e3	84 d2		 test	 dl, dl
  000e5	0f 84 1f 01 00
	00		 je	 $LN84@LoadInt_e
  000eb	80 f2 ed	 xor	 dl, -19			; ffffffedH
  000ee	88 55 ec	 mov	 BYTE PTR __k$[ebp+12], dl
  000f1	8a 50 0d	 mov	 dl, BYTE PTR [eax+13]
  000f4	84 d2		 test	 dl, dl
  000f6	0f 84 09 01 00
	00		 je	 $LN83@LoadInt_e
  000fc	32 d1		 xor	 dl, cl
  000fe	88 55 ed	 mov	 BYTE PTR __k$[ebp+13], dl
  00101	8a 50 0e	 mov	 dl, BYTE PTR [eax+14]
  00104	84 d2		 test	 dl, dl
  00106	0f 84 f3 00 00
	00		 je	 $LN82@LoadInt_e
  0010c	80 f2 eb	 xor	 dl, -21			; ffffffebH
  0010f	88 55 ee	 mov	 BYTE PTR __k$[ebp+14], dl
  00112	8a 50 0f	 mov	 dl, BYTE PTR [eax+15]
  00115	84 d2		 test	 dl, dl
  00117	0f 84 dd 00 00
	00		 je	 $LN81@LoadInt_e
  0011d	32 d3		 xor	 dl, bl
  0011f	88 55 ef	 mov	 BYTE PTR __k$[ebp+15], dl
  00122	8a 50 10	 mov	 dl, BYTE PTR [eax+16]
  00125	84 d2		 test	 dl, dl
  00127	0f 84 c7 00 00
	00		 je	 $LN80@LoadInt_e
  0012d	80 f2 ed	 xor	 dl, -19			; ffffffedH
  00130	88 55 f0	 mov	 BYTE PTR __k$[ebp+16], dl
  00133	8a 50 11	 mov	 dl, BYTE PTR [eax+17]
  00136	84 d2		 test	 dl, dl
  00138	0f 84 b1 00 00
	00		 je	 $LN79@LoadInt_e
  0013e	32 d1		 xor	 dl, cl
  00140	88 55 f1	 mov	 BYTE PTR __k$[ebp+17], dl
  00143	8a 50 12	 mov	 dl, BYTE PTR [eax+18]
  00146	84 d2		 test	 dl, dl
  00148	0f 84 9b 00 00
	00		 je	 $LN78@LoadInt_e
  0014e	80 f2 eb	 xor	 dl, -21			; ffffffebH
  00151	88 55 f2	 mov	 BYTE PTR __k$[ebp+18], dl
  00154	8a 50 13	 mov	 dl, BYTE PTR [eax+19]
  00157	84 d2		 test	 dl, dl
  00159	0f 84 85 00 00
	00		 je	 $LN77@LoadInt_e
  0015f	32 d3		 xor	 dl, bl
  00161	88 55 f3	 mov	 BYTE PTR __k$[ebp+19], dl
  00164	8a 50 14	 mov	 dl, BYTE PTR [eax+20]
  00167	84 d2		 test	 dl, dl
  00169	74 73		 je	 SHORT $LN76@LoadInt_e
  0016b	80 f2 ed	 xor	 dl, -19			; ffffffedH
  0016e	88 55 f4	 mov	 BYTE PTR __k$[ebp+20], dl
  00171	8a 50 15	 mov	 dl, BYTE PTR [eax+21]
  00174	84 d2		 test	 dl, dl
  00176	74 61		 je	 SHORT $LN75@LoadInt_e
  00178	32 d1		 xor	 dl, cl
  0017a	80 78 16 00	 cmp	 BYTE PTR [eax+22], 0
  0017e	88 55 f5	 mov	 BYTE PTR __k$[ebp+21], dl
  00181	0f 84 cb 00 00
	00		 je	 $LN1@LoadInt_e
  00187	8a 50 17	 mov	 dl, BYTE PTR [eax+23]
  0018a	84 d2		 test	 dl, dl
  0018c	74 46		 je	 SHORT $LN73@LoadInt_e
  0018e	32 d3		 xor	 dl, bl
  00190	88 55 f7	 mov	 BYTE PTR __k$[ebp+23], dl
  00193	8a 50 18	 mov	 dl, BYTE PTR [eax+24]
  00196	84 d2		 test	 dl, dl
  00198	74 34		 je	 SHORT $LN72@LoadInt_e
  0019a	80 f2 ed	 xor	 dl, -19			; ffffffedH
  0019d	88 55 f8	 mov	 BYTE PTR __k$[ebp+24], dl
  001a0	8a 50 19	 mov	 dl, BYTE PTR [eax+25]
  001a3	84 d2		 test	 dl, dl
  001a5	74 1f		 je	 SHORT $LN71@LoadInt_e
  001a7	8a 40 1a	 mov	 al, BYTE PTR [eax+26]
  001aa	32 d1		 xor	 dl, cl
  001ac	88 55 f9	 mov	 BYTE PTR __k$[ebp+25], dl
  001af	84 c0		 test	 al, al
  001b1	74 0a		 je	 SHORT $LN70@LoadInt_e
  001b3	34 eb		 xor	 al, -21			; ffffffebH
  001b5	88 45 fa	 mov	 BYTE PTR __k$[ebp+26], al
  001b8	e9 95 00 00 00	 jmp	 $LN1@LoadInt_e
$LN70@LoadInt_e:
  001bd	c6 45 fa eb	 mov	 BYTE PTR __k$[ebp+26], -21 ; ffffffebH
  001c1	e9 8c 00 00 00	 jmp	 $LN1@LoadInt_e
$LN71@LoadInt_e:
  001c6	88 4d f9	 mov	 BYTE PTR __k$[ebp+25], cl
  001c9	e9 84 00 00 00	 jmp	 $LN1@LoadInt_e
$LN72@LoadInt_e:
  001ce	c6 45 f8 ed	 mov	 BYTE PTR __k$[ebp+24], -19 ; ffffffedH
  001d2	eb 7e		 jmp	 SHORT $LN1@LoadInt_e
$LN73@LoadInt_e:
  001d4	88 5d f7	 mov	 BYTE PTR __k$[ebp+23], bl
  001d7	eb 79		 jmp	 SHORT $LN1@LoadInt_e
$LN75@LoadInt_e:
  001d9	88 4d f5	 mov	 BYTE PTR __k$[ebp+21], cl
  001dc	eb 74		 jmp	 SHORT $LN1@LoadInt_e
$LN76@LoadInt_e:
  001de	c6 45 f4 ed	 mov	 BYTE PTR __k$[ebp+20], -19 ; ffffffedH
  001e2	eb 6e		 jmp	 SHORT $LN1@LoadInt_e
$LN77@LoadInt_e:
  001e4	88 5d f3	 mov	 BYTE PTR __k$[ebp+19], bl
  001e7	eb 69		 jmp	 SHORT $LN1@LoadInt_e
$LN78@LoadInt_e:
  001e9	c6 45 f2 eb	 mov	 BYTE PTR __k$[ebp+18], -21 ; ffffffebH
  001ed	eb 63		 jmp	 SHORT $LN1@LoadInt_e
$LN79@LoadInt_e:
  001ef	88 4d f1	 mov	 BYTE PTR __k$[ebp+17], cl
  001f2	eb 5e		 jmp	 SHORT $LN1@LoadInt_e
$LN80@LoadInt_e:
  001f4	c6 45 f0 ed	 mov	 BYTE PTR __k$[ebp+16], -19 ; ffffffedH
  001f8	eb 58		 jmp	 SHORT $LN1@LoadInt_e
$LN81@LoadInt_e:
  001fa	88 5d ef	 mov	 BYTE PTR __k$[ebp+15], bl
  001fd	eb 53		 jmp	 SHORT $LN1@LoadInt_e
$LN82@LoadInt_e:
  001ff	c6 45 ee eb	 mov	 BYTE PTR __k$[ebp+14], -21 ; ffffffebH
  00203	eb 4d		 jmp	 SHORT $LN1@LoadInt_e
$LN83@LoadInt_e:
  00205	88 4d ed	 mov	 BYTE PTR __k$[ebp+13], cl
  00208	eb 48		 jmp	 SHORT $LN1@LoadInt_e
$LN84@LoadInt_e:
  0020a	c6 45 ec ed	 mov	 BYTE PTR __k$[ebp+12], -19 ; ffffffedH
  0020e	eb 42		 jmp	 SHORT $LN1@LoadInt_e
$LN85@LoadInt_e:
  00210	88 5d eb	 mov	 BYTE PTR __k$[ebp+11], bl
  00213	eb 3d		 jmp	 SHORT $LN1@LoadInt_e
$LN86@LoadInt_e:
  00215	c6 45 ea eb	 mov	 BYTE PTR __k$[ebp+10], -21 ; ffffffebH
  00219	eb 37		 jmp	 SHORT $LN1@LoadInt_e
$LN87@LoadInt_e:
  0021b	88 4d e9	 mov	 BYTE PTR __k$[ebp+9], cl
  0021e	eb 32		 jmp	 SHORT $LN1@LoadInt_e
$LN88@LoadInt_e:
  00220	c6 45 e8 ed	 mov	 BYTE PTR __k$[ebp+8], -19 ; ffffffedH
  00224	eb 2c		 jmp	 SHORT $LN1@LoadInt_e
$LN89@LoadInt_e:
  00226	88 5d e7	 mov	 BYTE PTR __k$[ebp+7], bl
  00229	eb 27		 jmp	 SHORT $LN1@LoadInt_e
$LN90@LoadInt_e:
  0022b	c6 45 e6 eb	 mov	 BYTE PTR __k$[ebp+6], -21 ; ffffffebH
  0022f	eb 21		 jmp	 SHORT $LN1@LoadInt_e
$LN91@LoadInt_e:
  00231	88 4d e5	 mov	 BYTE PTR __k$[ebp+5], cl
  00234	eb 1c		 jmp	 SHORT $LN1@LoadInt_e
$LN92@LoadInt_e:
  00236	c6 45 e4 ed	 mov	 BYTE PTR __k$[ebp+4], -19 ; ffffffedH
  0023a	eb 16		 jmp	 SHORT $LN1@LoadInt_e
$LN93@LoadInt_e:
  0023c	c6 45 e3 ea	 mov	 BYTE PTR __k$[ebp+3], -22 ; ffffffeaH
  00240	eb 10		 jmp	 SHORT $LN1@LoadInt_e
$LN94@LoadInt_e:
  00242	c6 45 e2 eb	 mov	 BYTE PTR __k$[ebp+2], -21 ; ffffffebH
  00246	eb 0a		 jmp	 SHORT $LN1@LoadInt_e
$LN95@LoadInt_e:
  00248	c6 45 e1 ec	 mov	 BYTE PTR __k$[ebp+1], -20 ; ffffffecH
  0024c	eb 04		 jmp	 SHORT $LN1@LoadInt_e
$LN96@LoadInt_e:
  0024e	c6 45 e0 ed	 mov	 BYTE PTR __k$[ebp], -19	; ffffffedH
$LN1@LoadInt_e:
  00252	6a 05		 push	 5
  00254	8d 45 e0	 lea	 eax, DWORD PTR __k$[ebp]
  00257	c6 45 f6 00	 mov	 BYTE PTR __k$[ebp+22], 0
  0025b	5a		 pop	 edx
$LL104@LoadInt_e:
  0025c	81 30 ed ec eb
	ea		 xor	 DWORD PTR [eax], -353637139 ; eaebecedH
  00262	83 c0 04	 add	 eax, 4
  00265	4a		 dec	 edx
  00266	75 f4		 jne	 SHORT $LL104@LoadInt_e
  00268	6a 14		 push	 20			; 00000014H
  0026a	58		 pop	 eax
$LL101@LoadInt_e:
  0026b	8b c8		 mov	 ecx, eax
  0026d	81 e1 03 00 00
	80		 and	 ecx, -2147483645	; 80000003H
  00273	79 05		 jns	 SHORT $LN111@LoadInt_e
  00275	49		 dec	 ecx
  00276	83 c9 fc	 or	 ecx, -4			; fffffffcH
  00279	41		 inc	 ecx
$LN111@LoadInt_e:
  0027a	b2 ed		 mov	 dl, -19			; ffffffedH
  0027c	2a d1		 sub	 dl, cl
  0027e	30 54 05 e0	 xor	 BYTE PTR __k$[ebp+eax], dl
  00282	40		 inc	 eax
  00283	83 f8 16	 cmp	 eax, 22			; 00000016H
  00286	7c e3		 jl	 SHORT $LL101@LoadInt_e

; 120  : 		return LoadInt(_k, i);

  00288	ff 75 0c	 push	 DWORD PTR _i$[ebp]
  0028b	8d 45 e0	 lea	 eax, DWORD PTR __k$[ebp]
  0028e	50		 push	 eax
  0028f	8b ce		 mov	 ecx, esi
  00291	ff 15 00 00 00
	00		 call	 DWORD PTR __imp_?LoadInt@ioINILoader@@QAEHPBDH@Z

; 121  : 	}

  00297	8b 4d fc	 mov	 ecx, DWORD PTR __$ArrayPad$[ebp]
  0029a	5e		 pop	 esi
  0029b	33 cd		 xor	 ecx, ebp
  0029d	5b		 pop	 ebx
  0029e	e8 00 00 00 00	 call	 @__security_check_cookie@4
  002a3	c9		 leave
  002a4	c2 08 00	 ret	 8
??$LoadInt_e@$0BH@@ioINILoader@@QAEHAAY0BH@$$CBDH@Z ENDP ; ioINILoader::LoadInt_e<23>
_TEXT	ENDS
PUBLIC	__$ArrayPad$
PUBLIC	??$LoadFloat_e@$0M@@ioINILoader@@QAEMAAY0M@$$CBDM@Z ; ioINILoader::LoadFloat_e<12>
EXTRN	__imp_?LoadFloat@ioINILoader@@QAEMPBDM@Z:PROC
; Function compile flags: /Ogsp
;	COMDAT ??$LoadFloat_e@$0M@@ioINILoader@@QAEMAAY0M@$$CBDM@Z
_TEXT	SEGMENT
__k$ = -20						; size = 12
__$ArrayPad$ = -4					; size = 4
_k$ = 8							; size = 4
_f$ = 12						; size = 4
??$LoadFloat_e@$0M@@ioINILoader@@QAEMAAY0M@$$CBDM@Z PROC ; ioINILoader::LoadFloat_e<12>, COMDAT
; _this$ = ecx

; 135  : 	{

  00000	55		 push	 ebp
  00001	8b ec		 mov	 ebp, esp
  00003	83 ec 14	 sub	 esp, 20			; 00000014H
  00006	a1 00 00 00 00	 mov	 eax, DWORD PTR ___security_cookie
  0000b	33 c5		 xor	 eax, ebp
  0000d	89 45 fc	 mov	 DWORD PTR __$ArrayPad$[ebp], eax
  00010	8b 45 08	 mov	 eax, DWORD PTR _k$[ebp]

; 136  : 		_ENCSTR(k, _k);

  00013	8a 10		 mov	 dl, BYTE PTR [eax]
  00015	56		 push	 esi
  00016	8b f1		 mov	 esi, ecx
  00018	84 d2		 test	 dl, dl
  0001a	0f 84 32 01 00
	00		 je	 $LN96@LoadFloat_
  00020	80 f2 ed	 xor	 dl, -19			; ffffffedH
  00023	88 55 ec	 mov	 BYTE PTR __k$[ebp], dl
  00026	8a 50 01	 mov	 dl, BYTE PTR [eax+1]
  00029	84 d2		 test	 dl, dl
  0002b	0f 84 1b 01 00
	00		 je	 $LN95@LoadFloat_
  00031	80 f2 ec	 xor	 dl, -20			; ffffffecH
  00034	88 55 ed	 mov	 BYTE PTR __k$[ebp+1], dl
  00037	8a 50 02	 mov	 dl, BYTE PTR [eax+2]
  0003a	84 d2		 test	 dl, dl
  0003c	0f 84 04 01 00
	00		 je	 $LN94@LoadFloat_
  00042	b1 eb		 mov	 cl, -21			; ffffffebH
  00044	32 d1		 xor	 dl, cl
  00046	88 55 ee	 mov	 BYTE PTR __k$[ebp+2], dl
  00049	8a 50 03	 mov	 dl, BYTE PTR [eax+3]
  0004c	84 d2		 test	 dl, dl
  0004e	0f 84 ec 00 00
	00		 je	 $LN93@LoadFloat_
  00054	80 f2 ea	 xor	 dl, -22			; ffffffeaH
  00057	88 55 ef	 mov	 BYTE PTR __k$[ebp+3], dl
  0005a	8a 50 04	 mov	 dl, BYTE PTR [eax+4]
  0005d	84 d2		 test	 dl, dl
  0005f	0f 84 d5 00 00
	00		 je	 $LN92@LoadFloat_
  00065	80 f2 ed	 xor	 dl, -19			; ffffffedH
  00068	88 55 f0	 mov	 BYTE PTR __k$[ebp+4], dl
  0006b	8a 50 05	 mov	 dl, BYTE PTR [eax+5]
  0006e	84 d2		 test	 dl, dl
  00070	0f 84 be 00 00
	00		 je	 $LN91@LoadFloat_
  00076	80 f2 ec	 xor	 dl, -20			; ffffffecH
  00079	88 55 f1	 mov	 BYTE PTR __k$[ebp+5], dl
  0007c	8a 50 06	 mov	 dl, BYTE PTR [eax+6]
  0007f	84 d2		 test	 dl, dl
  00081	0f 84 a8 00 00
	00		 je	 $LN90@LoadFloat_
  00087	32 d1		 xor	 dl, cl
  00089	88 55 f2	 mov	 BYTE PTR __k$[ebp+6], dl
  0008c	8a 50 07	 mov	 dl, BYTE PTR [eax+7]
  0008f	84 d2		 test	 dl, dl
  00091	0f 84 92 00 00
	00		 je	 $LN89@LoadFloat_
  00097	80 f2 ea	 xor	 dl, -22			; ffffffeaH
  0009a	88 55 f3	 mov	 BYTE PTR __k$[ebp+7], dl
  0009d	8a 50 08	 mov	 dl, BYTE PTR [eax+8]
  000a0	84 d2		 test	 dl, dl
  000a2	74 7f		 je	 SHORT $LN88@LoadFloat_
  000a4	80 f2 ed	 xor	 dl, -19			; ffffffedH
  000a7	88 55 f4	 mov	 BYTE PTR __k$[ebp+8], dl
  000aa	8a 50 09	 mov	 dl, BYTE PTR [eax+9]
  000ad	84 d2		 test	 dl, dl
  000af	74 6c		 je	 SHORT $LN87@LoadFloat_
  000b1	80 f2 ec	 xor	 dl, -20			; ffffffecH
  000b4	88 55 f5	 mov	 BYTE PTR __k$[ebp+9], dl
  000b7	8a 50 0a	 mov	 dl, BYTE PTR [eax+10]
  000ba	84 d2		 test	 dl, dl
  000bc	74 5a		 je	 SHORT $LN86@LoadFloat_
  000be	32 d1		 xor	 dl, cl
  000c0	80 78 0b 00	 cmp	 BYTE PTR [eax+11], 0
  000c4	88 55 f6	 mov	 BYTE PTR __k$[ebp+10], dl
  000c7	0f 84 89 00 00
	00		 je	 $LN1@LoadFloat_
  000cd	8a 50 0c	 mov	 dl, BYTE PTR [eax+12]
  000d0	84 d2		 test	 dl, dl
  000d2	74 3e		 je	 SHORT $LN84@LoadFloat_
  000d4	80 f2 ed	 xor	 dl, -19			; ffffffedH
  000d7	88 55 f8	 mov	 BYTE PTR __k$[ebp+12], dl
  000da	8a 50 0d	 mov	 dl, BYTE PTR [eax+13]
  000dd	84 d2		 test	 dl, dl
  000df	74 2b		 je	 SHORT $LN83@LoadFloat_
  000e1	80 f2 ec	 xor	 dl, -20			; ffffffecH
  000e4	88 55 f9	 mov	 BYTE PTR __k$[ebp+13], dl
  000e7	8a 50 0e	 mov	 dl, BYTE PTR [eax+14]
  000ea	84 d2		 test	 dl, dl
  000ec	74 19		 je	 SHORT $LN82@LoadFloat_
  000ee	8a 40 0f	 mov	 al, BYTE PTR [eax+15]
  000f1	32 d1		 xor	 dl, cl
  000f3	88 55 fa	 mov	 BYTE PTR __k$[ebp+14], dl
  000f6	84 c0		 test	 al, al
  000f8	74 07		 je	 SHORT $LN81@LoadFloat_
  000fa	34 ea		 xor	 al, -22			; ffffffeaH
  000fc	88 45 fb	 mov	 BYTE PTR __k$[ebp+15], al
  000ff	eb 55		 jmp	 SHORT $LN1@LoadFloat_
$LN81@LoadFloat_:
  00101	c6 45 fb ea	 mov	 BYTE PTR __k$[ebp+15], -22 ; ffffffeaH
  00105	eb 4f		 jmp	 SHORT $LN1@LoadFloat_
$LN82@LoadFloat_:
  00107	88 4d fa	 mov	 BYTE PTR __k$[ebp+14], cl
  0010a	eb 4a		 jmp	 SHORT $LN1@LoadFloat_
$LN83@LoadFloat_:
  0010c	c6 45 f9 ec	 mov	 BYTE PTR __k$[ebp+13], -20 ; ffffffecH
  00110	eb 44		 jmp	 SHORT $LN1@LoadFloat_
$LN84@LoadFloat_:
  00112	c6 45 f8 ed	 mov	 BYTE PTR __k$[ebp+12], -19 ; ffffffedH
  00116	eb 3e		 jmp	 SHORT $LN1@LoadFloat_
$LN86@LoadFloat_:
  00118	88 4d f6	 mov	 BYTE PTR __k$[ebp+10], cl
  0011b	eb 39		 jmp	 SHORT $LN1@LoadFloat_
$LN87@LoadFloat_:
  0011d	c6 45 f5 ec	 mov	 BYTE PTR __k$[ebp+9], -20 ; ffffffecH
  00121	eb 33		 jmp	 SHORT $LN1@LoadFloat_
$LN88@LoadFloat_:
  00123	c6 45 f4 ed	 mov	 BYTE PTR __k$[ebp+8], -19 ; ffffffedH
  00127	eb 2d		 jmp	 SHORT $LN1@LoadFloat_
$LN89@LoadFloat_:
  00129	c6 45 f3 ea	 mov	 BYTE PTR __k$[ebp+7], -22 ; ffffffeaH
  0012d	eb 27		 jmp	 SHORT $LN1@LoadFloat_
$LN90@LoadFloat_:
  0012f	88 4d f2	 mov	 BYTE PTR __k$[ebp+6], cl
  00132	eb 22		 jmp	 SHORT $LN1@LoadFloat_
$LN91@LoadFloat_:
  00134	c6 45 f1 ec	 mov	 BYTE PTR __k$[ebp+5], -20 ; ffffffecH
  00138	eb 1c		 jmp	 SHORT $LN1@LoadFloat_
$LN92@LoadFloat_:
  0013a	c6 45 f0 ed	 mov	 BYTE PTR __k$[ebp+4], -19 ; ffffffedH
  0013e	eb 16		 jmp	 SHORT $LN1@LoadFloat_
$LN93@LoadFloat_:
  00140	c6 45 ef ea	 mov	 BYTE PTR __k$[ebp+3], -22 ; ffffffeaH
  00144	eb 10		 jmp	 SHORT $LN1@LoadFloat_
$LN94@LoadFloat_:
  00146	c6 45 ee eb	 mov	 BYTE PTR __k$[ebp+2], -21 ; ffffffebH
  0014a	eb 0a		 jmp	 SHORT $LN1@LoadFloat_
$LN95@LoadFloat_:
  0014c	c6 45 ed ec	 mov	 BYTE PTR __k$[ebp+1], -20 ; ffffffecH
  00150	eb 04		 jmp	 SHORT $LN1@LoadFloat_
$LN96@LoadFloat_:
  00152	c6 45 ec ed	 mov	 BYTE PTR __k$[ebp], -19	; ffffffedH
$LN1@LoadFloat_:
  00156	6a 02		 push	 2
  00158	8d 45 ec	 lea	 eax, DWORD PTR __k$[ebp]
  0015b	c6 45 f7 00	 mov	 BYTE PTR __k$[ebp+11], 0
  0015f	5a		 pop	 edx
$LL104@LoadFloat_:
  00160	81 30 ed ec eb
	ea		 xor	 DWORD PTR [eax], -353637139 ; eaebecedH
  00166	83 c0 04	 add	 eax, 4
  00169	4a		 dec	 edx
  0016a	75 f4		 jne	 SHORT $LL104@LoadFloat_
  0016c	6a 08		 push	 8
  0016e	58		 pop	 eax
$LL101@LoadFloat_:
  0016f	8b c8		 mov	 ecx, eax
  00171	81 e1 03 00 00
	80		 and	 ecx, -2147483645	; 80000003H
  00177	79 05		 jns	 SHORT $LN111@LoadFloat_
  00179	49		 dec	 ecx
  0017a	83 c9 fc	 or	 ecx, -4			; fffffffcH
  0017d	41		 inc	 ecx
$LN111@LoadFloat_:
  0017e	b2 ed		 mov	 dl, -19			; ffffffedH
  00180	2a d1		 sub	 dl, cl
  00182	30 54 05 ec	 xor	 BYTE PTR __k$[ebp+eax], dl
  00186	40		 inc	 eax
  00187	83 f8 0b	 cmp	 eax, 11			; 0000000bH
  0018a	7c e3		 jl	 SHORT $LL101@LoadFloat_

; 137  : 		return LoadFloat(_k, f);

  0018c	f3 0f 10 45 0c	 movss	 xmm0, DWORD PTR _f$[ebp]
  00191	51		 push	 ecx
  00192	8d 45 ec	 lea	 eax, DWORD PTR __k$[ebp]
  00195	f3 0f 11 04 24	 movss	 DWORD PTR [esp], xmm0
  0019a	50		 push	 eax
  0019b	8b ce		 mov	 ecx, esi
  0019d	ff 15 00 00 00
	00		 call	 DWORD PTR __imp_?LoadFloat@ioINILoader@@QAEMPBDM@Z

; 138  : 	}

  001a3	8b 4d fc	 mov	 ecx, DWORD PTR __$ArrayPad$[ebp]
  001a6	33 cd		 xor	 ecx, ebp
  001a8	5e		 pop	 esi
  001a9	e8 00 00 00 00	 call	 @__security_check_cookie@4
  001ae	c9		 leave
  001af	c2 08 00	 ret	 8
??$LoadFloat_e@$0M@@ioINILoader@@QAEMAAY0M@$$CBDM@Z ENDP ; ioINILoader::LoadFloat_e<12>
_TEXT	ENDS
PUBLIC	__$ArrayPad$
PUBLIC	??$LoadBool_e@$0BE@@ioINILoader@@QAE_NAAY0BE@$$CBD_N@Z ; ioINILoader::LoadBool_e<20>
EXTRN	__imp_?LoadBool@ioINILoader@@QAE_NPBD_N@Z:PROC
; Function compile flags: /Ogsp
;	COMDAT ??$LoadBool_e@$0BE@@ioINILoader@@QAE_NAAY0BE@$$CBD_N@Z
_TEXT	SEGMENT
__k$ = -28						; size = 20
__$ArrayPad$ = -4					; size = 4
_k$ = 8							; size = 4
_b$ = 12						; size = 1
??$LoadBool_e@$0BE@@ioINILoader@@QAE_NAAY0BE@$$CBD_N@Z PROC ; ioINILoader::LoadBool_e<20>, COMDAT
; _this$ = ecx

; 101  : 	{

  00000	55		 push	 ebp
  00001	8b ec		 mov	 ebp, esp
  00003	83 ec 1c	 sub	 esp, 28			; 0000001cH
  00006	a1 00 00 00 00	 mov	 eax, DWORD PTR ___security_cookie
  0000b	33 c5		 xor	 eax, ebp
  0000d	89 45 fc	 mov	 DWORD PTR __$ArrayPad$[ebp], eax
  00010	8b 45 08	 mov	 eax, DWORD PTR _k$[ebp]

; 102  : 		_ENCSTR(k, _k);

  00013	8a 10		 mov	 dl, BYTE PTR [eax]
  00015	53		 push	 ebx
  00016	56		 push	 esi
  00017	8b f1		 mov	 esi, ecx
  00019	84 d2		 test	 dl, dl
  0001b	0f 84 dd 01 00
	00		 je	 $LN96@LoadBool_e
  00021	80 f2 ed	 xor	 dl, -19			; ffffffedH
  00024	88 55 e4	 mov	 BYTE PTR __k$[ebp], dl
  00027	8a 50 01	 mov	 dl, BYTE PTR [eax+1]
  0002a	84 d2		 test	 dl, dl
  0002c	0f 84 c6 01 00
	00		 je	 $LN95@LoadBool_e
  00032	b3 ec		 mov	 bl, -20			; ffffffecH
  00034	32 d3		 xor	 dl, bl
  00036	88 55 e5	 mov	 BYTE PTR __k$[ebp+1], dl
  00039	8a 50 02	 mov	 dl, BYTE PTR [eax+2]
  0003c	84 d2		 test	 dl, dl
  0003e	0f 84 ae 01 00
	00		 je	 $LN94@LoadBool_e
  00044	b1 eb		 mov	 cl, -21			; ffffffebH
  00046	32 d1		 xor	 dl, cl
  00048	88 55 e6	 mov	 BYTE PTR __k$[ebp+2], dl
  0004b	8a 50 03	 mov	 dl, BYTE PTR [eax+3]
  0004e	84 d2		 test	 dl, dl
  00050	0f 84 96 01 00
	00		 je	 $LN93@LoadBool_e
  00056	80 f2 ea	 xor	 dl, -22			; ffffffeaH
  00059	88 55 e7	 mov	 BYTE PTR __k$[ebp+3], dl
  0005c	8a 50 04	 mov	 dl, BYTE PTR [eax+4]
  0005f	84 d2		 test	 dl, dl
  00061	0f 84 7f 01 00
	00		 je	 $LN92@LoadBool_e
  00067	80 f2 ed	 xor	 dl, -19			; ffffffedH
  0006a	88 55 e8	 mov	 BYTE PTR __k$[ebp+4], dl
  0006d	8a 50 05	 mov	 dl, BYTE PTR [eax+5]
  00070	84 d2		 test	 dl, dl
  00072	0f 84 69 01 00
	00		 je	 $LN91@LoadBool_e
  00078	32 d3		 xor	 dl, bl
  0007a	88 55 e9	 mov	 BYTE PTR __k$[ebp+5], dl
  0007d	8a 50 06	 mov	 dl, BYTE PTR [eax+6]
  00080	84 d2		 test	 dl, dl
  00082	0f 84 54 01 00
	00		 je	 $LN90@LoadBool_e
  00088	32 d1		 xor	 dl, cl
  0008a	88 55 ea	 mov	 BYTE PTR __k$[ebp+6], dl
  0008d	8a 50 07	 mov	 dl, BYTE PTR [eax+7]
  00090	84 d2		 test	 dl, dl
  00092	0f 84 3e 01 00
	00		 je	 $LN89@LoadBool_e
  00098	80 f2 ea	 xor	 dl, -22			; ffffffeaH
  0009b	88 55 eb	 mov	 BYTE PTR __k$[ebp+7], dl
  0009e	8a 50 08	 mov	 dl, BYTE PTR [eax+8]
  000a1	84 d2		 test	 dl, dl
  000a3	0f 84 27 01 00
	00		 je	 $LN88@LoadBool_e
  000a9	80 f2 ed	 xor	 dl, -19			; ffffffedH
  000ac	88 55 ec	 mov	 BYTE PTR __k$[ebp+8], dl
  000af	8a 50 09	 mov	 dl, BYTE PTR [eax+9]
  000b2	84 d2		 test	 dl, dl
  000b4	0f 84 11 01 00
	00		 je	 $LN87@LoadBool_e
  000ba	32 d3		 xor	 dl, bl
  000bc	88 55 ed	 mov	 BYTE PTR __k$[ebp+9], dl
  000bf	8a 50 0a	 mov	 dl, BYTE PTR [eax+10]
  000c2	84 d2		 test	 dl, dl
  000c4	0f 84 fc 00 00
	00		 je	 $LN86@LoadBool_e
  000ca	32 d1		 xor	 dl, cl
  000cc	88 55 ee	 mov	 BYTE PTR __k$[ebp+10], dl
  000cf	8a 50 0b	 mov	 dl, BYTE PTR [eax+11]
  000d2	84 d2		 test	 dl, dl
  000d4	0f 84 e6 00 00
	00		 je	 $LN85@LoadBool_e
  000da	80 f2 ea	 xor	 dl, -22			; ffffffeaH
  000dd	88 55 ef	 mov	 BYTE PTR __k$[ebp+11], dl
  000e0	8a 50 0c	 mov	 dl, BYTE PTR [eax+12]
  000e3	84 d2		 test	 dl, dl
  000e5	0f 84 cf 00 00
	00		 je	 $LN84@LoadBool_e
  000eb	80 f2 ed	 xor	 dl, -19			; ffffffedH
  000ee	88 55 f0	 mov	 BYTE PTR __k$[ebp+12], dl
  000f1	8a 50 0d	 mov	 dl, BYTE PTR [eax+13]
  000f4	84 d2		 test	 dl, dl
  000f6	0f 84 b9 00 00
	00		 je	 $LN83@LoadBool_e
  000fc	32 d3		 xor	 dl, bl
  000fe	88 55 f1	 mov	 BYTE PTR __k$[ebp+13], dl
  00101	8a 50 0e	 mov	 dl, BYTE PTR [eax+14]
  00104	84 d2		 test	 dl, dl
  00106	0f 84 a4 00 00
	00		 je	 $LN82@LoadBool_e
  0010c	32 d1		 xor	 dl, cl
  0010e	88 55 f2	 mov	 BYTE PTR __k$[ebp+14], dl
  00111	8a 50 0f	 mov	 dl, BYTE PTR [eax+15]
  00114	84 d2		 test	 dl, dl
  00116	0f 84 8e 00 00
	00		 je	 $LN81@LoadBool_e
  0011c	80 f2 ea	 xor	 dl, -22			; ffffffeaH
  0011f	88 55 f3	 mov	 BYTE PTR __k$[ebp+15], dl
  00122	8a 50 10	 mov	 dl, BYTE PTR [eax+16]
  00125	84 d2		 test	 dl, dl
  00127	74 7b		 je	 SHORT $LN80@LoadBool_e
  00129	80 f2 ed	 xor	 dl, -19			; ffffffedH
  0012c	88 55 f4	 mov	 BYTE PTR __k$[ebp+16], dl
  0012f	8a 50 11	 mov	 dl, BYTE PTR [eax+17]
  00132	84 d2		 test	 dl, dl
  00134	74 69		 je	 SHORT $LN79@LoadBool_e
  00136	32 d3		 xor	 dl, bl
  00138	88 55 f5	 mov	 BYTE PTR __k$[ebp+17], dl
  0013b	8a 50 12	 mov	 dl, BYTE PTR [eax+18]
  0013e	84 d2		 test	 dl, dl
  00140	74 58		 je	 SHORT $LN78@LoadBool_e
  00142	32 d1		 xor	 dl, cl
  00144	80 78 13 00	 cmp	 BYTE PTR [eax+19], 0
  00148	88 55 f6	 mov	 BYTE PTR __k$[ebp+18], dl
  0014b	0f 84 b1 00 00
	00		 je	 $LN1@LoadBool_e
  00151	8a 50 14	 mov	 dl, BYTE PTR [eax+20]
  00154	84 d2		 test	 dl, dl
  00156	74 3c		 je	 SHORT $LN76@LoadBool_e
  00158	80 f2 ed	 xor	 dl, -19			; ffffffedH
  0015b	88 55 f8	 mov	 BYTE PTR __k$[ebp+20], dl
  0015e	8a 50 15	 mov	 dl, BYTE PTR [eax+21]
  00161	84 d2		 test	 dl, dl
  00163	74 2a		 je	 SHORT $LN75@LoadBool_e
  00165	32 d3		 xor	 dl, bl
  00167	88 55 f9	 mov	 BYTE PTR __k$[ebp+21], dl
  0016a	8a 50 16	 mov	 dl, BYTE PTR [eax+22]
  0016d	84 d2		 test	 dl, dl
  0016f	74 19		 je	 SHORT $LN74@LoadBool_e
  00171	8a 40 17	 mov	 al, BYTE PTR [eax+23]
  00174	32 d1		 xor	 dl, cl
  00176	88 55 fa	 mov	 BYTE PTR __k$[ebp+22], dl
  00179	84 c0		 test	 al, al
  0017b	74 07		 je	 SHORT $LN73@LoadBool_e
  0017d	34 ea		 xor	 al, -22			; ffffffeaH
  0017f	88 45 fb	 mov	 BYTE PTR __k$[ebp+23], al
  00182	eb 7e		 jmp	 SHORT $LN1@LoadBool_e
$LN73@LoadBool_e:
  00184	c6 45 fb ea	 mov	 BYTE PTR __k$[ebp+23], -22 ; ffffffeaH
  00188	eb 78		 jmp	 SHORT $LN1@LoadBool_e
$LN74@LoadBool_e:
  0018a	88 4d fa	 mov	 BYTE PTR __k$[ebp+22], cl
  0018d	eb 73		 jmp	 SHORT $LN1@LoadBool_e
$LN75@LoadBool_e:
  0018f	88 5d f9	 mov	 BYTE PTR __k$[ebp+21], bl
  00192	eb 6e		 jmp	 SHORT $LN1@LoadBool_e
$LN76@LoadBool_e:
  00194	c6 45 f8 ed	 mov	 BYTE PTR __k$[ebp+20], -19 ; ffffffedH
  00198	eb 68		 jmp	 SHORT $LN1@LoadBool_e
$LN78@LoadBool_e:
  0019a	88 4d f6	 mov	 BYTE PTR __k$[ebp+18], cl
  0019d	eb 63		 jmp	 SHORT $LN1@LoadBool_e
$LN79@LoadBool_e:
  0019f	88 5d f5	 mov	 BYTE PTR __k$[ebp+17], bl
  001a2	eb 5e		 jmp	 SHORT $LN1@LoadBool_e
$LN80@LoadBool_e:
  001a4	c6 45 f4 ed	 mov	 BYTE PTR __k$[ebp+16], -19 ; ffffffedH
  001a8	eb 58		 jmp	 SHORT $LN1@LoadBool_e
$LN81@LoadBool_e:
  001aa	c6 45 f3 ea	 mov	 BYTE PTR __k$[ebp+15], -22 ; ffffffeaH
  001ae	eb 52		 jmp	 SHORT $LN1@LoadBool_e
$LN82@LoadBool_e:
  001b0	88 4d f2	 mov	 BYTE PTR __k$[ebp+14], cl
  001b3	eb 4d		 jmp	 SHORT $LN1@LoadBool_e
$LN83@LoadBool_e:
  001b5	88 5d f1	 mov	 BYTE PTR __k$[ebp+13], bl
  001b8	eb 48		 jmp	 SHORT $LN1@LoadBool_e
$LN84@LoadBool_e:
  001ba	c6 45 f0 ed	 mov	 BYTE PTR __k$[ebp+12], -19 ; ffffffedH
  001be	eb 42		 jmp	 SHORT $LN1@LoadBool_e
$LN85@LoadBool_e:
  001c0	c6 45 ef ea	 mov	 BYTE PTR __k$[ebp+11], -22 ; ffffffeaH
  001c4	eb 3c		 jmp	 SHORT $LN1@LoadBool_e
$LN86@LoadBool_e:
  001c6	88 4d ee	 mov	 BYTE PTR __k$[ebp+10], cl
  001c9	eb 37		 jmp	 SHORT $LN1@LoadBool_e
$LN87@LoadBool_e:
  001cb	88 5d ed	 mov	 BYTE PTR __k$[ebp+9], bl
  001ce	eb 32		 jmp	 SHORT $LN1@LoadBool_e
$LN88@LoadBool_e:
  001d0	c6 45 ec ed	 mov	 BYTE PTR __k$[ebp+8], -19 ; ffffffedH
  001d4	eb 2c		 jmp	 SHORT $LN1@LoadBool_e
$LN89@LoadBool_e:
  001d6	c6 45 eb ea	 mov	 BYTE PTR __k$[ebp+7], -22 ; ffffffeaH
  001da	eb 26		 jmp	 SHORT $LN1@LoadBool_e
$LN90@LoadBool_e:
  001dc	88 4d ea	 mov	 BYTE PTR __k$[ebp+6], cl
  001df	eb 21		 jmp	 SHORT $LN1@LoadBool_e
$LN91@LoadBool_e:
  001e1	88 5d e9	 mov	 BYTE PTR __k$[ebp+5], bl
  001e4	eb 1c		 jmp	 SHORT $LN1@LoadBool_e
$LN92@LoadBool_e:
  001e6	c6 45 e8 ed	 mov	 BYTE PTR __k$[ebp+4], -19 ; ffffffedH
  001ea	eb 16		 jmp	 SHORT $LN1@LoadBool_e
$LN93@LoadBool_e:
  001ec	c6 45 e7 ea	 mov	 BYTE PTR __k$[ebp+3], -22 ; ffffffeaH
  001f0	eb 10		 jmp	 SHORT $LN1@LoadBool_e
$LN94@LoadBool_e:
  001f2	c6 45 e6 eb	 mov	 BYTE PTR __k$[ebp+2], -21 ; ffffffebH
  001f6	eb 0a		 jmp	 SHORT $LN1@LoadBool_e
$LN95@LoadBool_e:
  001f8	c6 45 e5 ec	 mov	 BYTE PTR __k$[ebp+1], -20 ; ffffffecH
  001fc	eb 04		 jmp	 SHORT $LN1@LoadBool_e
$LN96@LoadBool_e:
  001fe	c6 45 e4 ed	 mov	 BYTE PTR __k$[ebp], -19	; ffffffedH
$LN1@LoadBool_e:
  00202	6a 04		 push	 4
  00204	8d 45 e4	 lea	 eax, DWORD PTR __k$[ebp]
  00207	c6 45 f7 00	 mov	 BYTE PTR __k$[ebp+19], 0
  0020b	5a		 pop	 edx
$LL104@LoadBool_e:
  0020c	81 30 ed ec eb
	ea		 xor	 DWORD PTR [eax], -353637139 ; eaebecedH
  00212	83 c0 04	 add	 eax, 4
  00215	4a		 dec	 edx
  00216	75 f4		 jne	 SHORT $LL104@LoadBool_e
  00218	6a 10		 push	 16			; 00000010H
  0021a	58		 pop	 eax
$LL101@LoadBool_e:
  0021b	8b c8		 mov	 ecx, eax
  0021d	81 e1 03 00 00
	80		 and	 ecx, -2147483645	; 80000003H
  00223	79 05		 jns	 SHORT $LN111@LoadBool_e
  00225	49		 dec	 ecx
  00226	83 c9 fc	 or	 ecx, -4			; fffffffcH
  00229	41		 inc	 ecx
$LN111@LoadBool_e:
  0022a	b2 ed		 mov	 dl, -19			; ffffffedH
  0022c	2a d1		 sub	 dl, cl
  0022e	30 54 05 e4	 xor	 BYTE PTR __k$[ebp+eax], dl
  00232	40		 inc	 eax
  00233	83 f8 13	 cmp	 eax, 19			; 00000013H
  00236	7c e3		 jl	 SHORT $LL101@LoadBool_e

; 103  : 		return LoadBool(_k, b);

  00238	ff 75 0c	 push	 DWORD PTR _b$[ebp]
  0023b	8d 45 e4	 lea	 eax, DWORD PTR __k$[ebp]
  0023e	50		 push	 eax
  0023f	8b ce		 mov	 ecx, esi
  00241	ff 15 00 00 00
	00		 call	 DWORD PTR __imp_?LoadBool@ioINILoader@@QAE_NPBD_N@Z

; 104  : 	}

  00247	8b 4d fc	 mov	 ecx, DWORD PTR __$ArrayPad$[ebp]
  0024a	5e		 pop	 esi
  0024b	33 cd		 xor	 ecx, ebp
  0024d	5b		 pop	 ebx
  0024e	e8 00 00 00 00	 call	 @__security_check_cookie@4
  00253	c9		 leave
  00254	c2 08 00	 ret	 8
??$LoadBool_e@$0BE@@ioINILoader@@QAE_NAAY0BE@$$CBD_N@Z ENDP ; ioINILoader::LoadBool_e<20>
_TEXT	ENDS
PUBLIC	__real@3fd2ee0d320154cb
PUBLIC	__real@41f0000000000000
PUBLIC	??$RADtoDEG@M@@YAMM@Z				; RADtoDEG<float>
;	COMDAT __real@3fd2ee0d320154cb
; File d:\lost saga for developer\youtube\tutorial\source\src\lsclient\veryoftenusedefine.h
CONST	SEGMENT
__real@3fd2ee0d320154cb DQ 03fd2ee0d320154cbr	; 0.29578
CONST	ENDS
;	COMDAT __real@41f0000000000000
CONST	SEGMENT
__real@41f0000000000000 DQ 041f0000000000000r	; 4.29497e+009
; Function compile flags: /Ogsp
CONST	ENDS
;	COMDAT ??$RADtoDEG@M@@YAMM@Z
_TEXT	SEGMENT
tv130 = -4						; size = 4
tv75 = 8						; size = 4
_val$ = 8						; size = 4
??$RADtoDEG@M@@YAMM@Z PROC				; RADtoDEG<float>, COMDAT

; 18   : type  RADtoDEG (type val) {return (type) (val * (return57() + 0.2957795132)); }

  00000	55		 push	 ebp
  00001	8b ec		 mov	 ebp, esp
  00003	51		 push	 ecx
  00004	b8 39 00 00 00	 mov	 eax, 57			; 00000039H
  00009	89 45 fc	 mov	 DWORD PTR tv130[ebp], eax
  0000c	db 45 fc	 fild	 DWORD PTR tv130[ebp]
  0000f	85 c0		 test	 eax, eax
  00011	79 06		 jns	 SHORT $LN5@RADtoDEG
  00013	dc 05 00 00 00
	00		 fadd	 QWORD PTR __real@41f0000000000000
$LN5@RADtoDEG:
  00019	dc 05 00 00 00
	00		 fadd	 QWORD PTR __real@3fd2ee0d320154cb
  0001f	d8 4d 08	 fmul	 DWORD PTR _val$[ebp]
  00022	d9 5d 08	 fstp	 DWORD PTR tv75[ebp]
  00025	d9 45 08	 fld	 DWORD PTR tv75[ebp]
  00028	c9		 leave
  00029	c3		 ret	 0
??$RADtoDEG@M@@YAMM@Z ENDP				; RADtoDEG<float>
_TEXT	ENDS
PUBLIC	??$_Cons_val@V?$allocator@UTargetInfo@ioAdhesiveMissileWeapon4@@@std@@UTargetInfo@ioAdhesiveMissileWeapon4@@AAU34@@std@@YAXAAV?$allocator@UTargetInfo@ioAdhesiveMissileWeapon4@@@0@PAUTargetInfo@ioAdhesiveMissileWeapon4@@AAU23@@Z ; std::_Cons_val<std::allocator<ioAdhesiveMissileWeapon4::TargetInfo>,ioAdhesiveMissileWeapon4::TargetInfo,ioAdhesiveMissileWeapon4::TargetInfo &>
;	COMDAT xdata$x
; File c:\program files (x86)\microsoft visual studio 10.0\vc\include\utility
xdata$x	SEGMENT
__unwindtable$??$_Cons_val@V?$allocator@UTargetInfo@ioAdhesiveMissileWeapon4@@@std@@UTargetInfo@ioAdhesiveMissileWeapon4@@AAU34@@std@@YAXAAV?$allocator@UTargetInfo@ioAdhesiveMissileWeapon4@@@0@PAUTargetInfo@ioAdhesiveMissileWeapon4@@AAU23@@Z DD 0ffffffffH
	DD	FLAT:__unwindfunclet$??$_Cons_val@V?$allocator@UTargetInfo@ioAdhesiveMissileWeapon4@@@std@@UTargetInfo@ioAdhesiveMissileWeapon4@@AAU34@@std@@YAXAAV?$allocator@UTargetInfo@ioAdhesiveMissileWeapon4@@@0@PAUTargetInfo@ioAdhesiveMissileWeapon4@@AAU23@@Z$0
__ehfuncinfo$??$_Cons_val@V?$allocator@UTargetInfo@ioAdhesiveMissileWeapon4@@@std@@UTargetInfo@ioAdhesiveMissileWeapon4@@AAU34@@std@@YAXAAV?$allocator@UTargetInfo@ioAdhesiveMissileWeapon4@@@0@PAUTargetInfo@ioAdhesiveMissileWeapon4@@AAU23@@Z DD 019930522H
	DD	01H
	DD	FLAT:__unwindtable$??$_Cons_val@V?$allocator@UTargetInfo@ioAdhesiveMissileWeapon4@@@std@@UTargetInfo@ioAdhesiveMissileWeapon4@@AAU34@@std@@YAXAAV?$allocator@UTargetInfo@ioAdhesiveMissileWeapon4@@@0@PAUTargetInfo@ioAdhesiveMissileWeapon4@@AAU23@@Z
	DD	2 DUP(00H)
	DD	2 DUP(00H)
	DD	00H
	DD	01H
; Function compile flags: /Ogsp
; File c:\program files (x86)\microsoft visual studio 10.0\vc\include\xmemory
xdata$x	ENDS
;	COMDAT ??$_Cons_val@V?$allocator@UTargetInfo@ioAdhesiveMissileWeapon4@@@std@@UTargetInfo@ioAdhesiveMissileWeapon4@@AAU34@@std@@YAXAAV?$allocator@UTargetInfo@ioAdhesiveMissileWeapon4@@@0@PAUTargetInfo@ioAdhesiveMissileWeapon4@@AAU23@@Z
_TEXT	SEGMENT
$T535871 = -16						; size = 4
__$EHRec$ = -12						; size = 12
__Alval$ = 8						; size = 4
__Pdest$ = 12						; size = 4
__Src$ = 16						; size = 4
??$_Cons_val@V?$allocator@UTargetInfo@ioAdhesiveMissileWeapon4@@@std@@UTargetInfo@ioAdhesiveMissileWeapon4@@AAU34@@std@@YAXAAV?$allocator@UTargetInfo@ioAdhesiveMissileWeapon4@@@0@PAUTargetInfo@ioAdhesiveMissileWeapon4@@AAU23@@Z PROC ; std::_Cons_val<std::allocator<ioAdhesiveMissileWeapon4::TargetInfo>,ioAdhesiveMissileWeapon4::TargetInfo,ioAdhesiveMissileWeapon4::TargetInfo &>, COMDAT

; 279  : 	{	// construct using allocator

  00000	6a 04		 push	 4
  00002	b8 00 00 00 00	 mov	 eax, __ehhandler$??$_Cons_val@V?$allocator@UTargetInfo@ioAdhesiveMissileWeapon4@@@std@@UTargetInfo@ioAdhesiveMissileWeapon4@@AAU34@@std@@YAXAAV?$allocator@UTargetInfo@ioAdhesiveMissileWeapon4@@@0@PAUTargetInfo@ioAdhesiveMissileWeapon4@@AAU23@@Z
  00007	e8 00 00 00 00	 call	 __EH_prolog3

; 280  : 	_Alval.construct(_Pdest, _STD forward<_Ty2>(_Src));

  0000c	8b 4d 0c	 mov	 ecx, DWORD PTR __Pdest$[ebp]
  0000f	89 4d f0	 mov	 DWORD PTR $T535871[ebp], ecx
  00012	83 65 fc 00	 and	 DWORD PTR __$EHRec$[ebp+8], 0
  00016	85 c9		 test	 ecx, ecx
  00018	74 08		 je	 SHORT $LN7@Cons_val
  0001a	ff 75 10	 push	 DWORD PTR __Src$[ebp]
  0001d	e8 00 00 00 00	 call	 ??0TargetInfo@ioAdhesiveMissileWeapon4@@QAE@ABU01@@Z
$LN7@Cons_val:

; 281  : 	}

  00022	e8 00 00 00 00	 call	 __EH_epilog3
  00027	c3		 ret	 0
_TEXT	ENDS
;	COMDAT text$x
text$x	SEGMENT
__unwindfunclet$??$_Cons_val@V?$allocator@UTargetInfo@ioAdhesiveMissileWeapon4@@@std@@UTargetInfo@ioAdhesiveMissileWeapon4@@AAU34@@std@@YAXAAV?$allocator@UTargetInfo@ioAdhesiveMissileWeapon4@@@0@PAUTargetInfo@ioAdhesiveMissileWeapon4@@AAU23@@Z$0:
  00000	ff 75 0c	 push	 DWORD PTR __Pdest$[ebp]
  00003	ff 75 f0	 push	 DWORD PTR $T535871[ebp]
  00006	e8 00 00 00 00	 call	 ??3@YAXPAX0@Z		; operator delete
  0000b	59		 pop	 ecx
  0000c	59		 pop	 ecx
  0000d	c3		 ret	 0
__ehhandler$??$_Cons_val@V?$allocator@UTargetInfo@ioAdhesiveMissileWeapon4@@@std@@UTargetInfo@ioAdhesiveMissileWeapon4@@AAU34@@std@@YAXAAV?$allocator@UTargetInfo@ioAdhesiveMissileWeapon4@@@0@PAUTargetInfo@ioAdhesiveMissileWeapon4@@AAU23@@Z:
  0000e	8b 54 24 08	 mov	 edx, DWORD PTR [esp+8]
  00012	8d 42 0c	 lea	 eax, DWORD PTR [edx+12]
  00015	8b 4a ec	 mov	 ecx, DWORD PTR [edx-20]
  00018	33 c8		 xor	 ecx, eax
  0001a	e8 00 00 00 00	 call	 @__security_check_cookie@4
  0001f	b8 00 00 00 00	 mov	 eax, OFFSET __ehfuncinfo$??$_Cons_val@V?$allocator@UTargetInfo@ioAdhesiveMissileWeapon4@@@std@@UTargetInfo@ioAdhesiveMissileWeapon4@@AAU34@@std@@YAXAAV?$allocator@UTargetInfo@ioAdhesiveMissileWeapon4@@@0@PAUTargetInfo@ioAdhesiveMissileWeapon4@@AAU23@@Z
  00024	e9 00 00 00 00	 jmp	 ___CxxFrameHandler3
text$x	ENDS
??$_Cons_val@V?$allocator@UTargetInfo@ioAdhesiveMissileWeapon4@@@std@@UTargetInfo@ioAdhesiveMissileWeapon4@@AAU34@@std@@YAXAAV?$allocator@UTargetInfo@ioAdhesiveMissileWeapon4@@@0@PAUTargetInfo@ioAdhesiveMissileWeapon4@@AAU23@@Z ENDP ; std::_Cons_val<std::allocator<ioAdhesiveMissileWeapon4::TargetInfo>,ioAdhesiveMissileWeapon4::TargetInfo,ioAdhesiveMissileWeapon4::TargetInfo &>
PUBLIC	?construct@?$allocator@UTargetInfo@ioAdhesiveMissileWeapon4@@@std@@QAEXPAUTargetInfo@ioAdhesiveMissileWeapon4@@ABU34@@Z ; std::allocator<ioAdhesiveMissileWeapon4::TargetInfo>::construct
; Function compile flags: /Ogsp
;	COMDAT ?construct@?$allocator@UTargetInfo@ioAdhesiveMissileWeapon4@@@std@@QAEXPAUTargetInfo@ioAdhesiveMissileWeapon4@@ABU34@@Z
_TEXT	SEGMENT
__Ptr$ = 8						; size = 4
__Val$ = 12						; size = 4
?construct@?$allocator@UTargetInfo@ioAdhesiveMissileWeapon4@@@std@@QAEXPAUTargetInfo@ioAdhesiveMissileWeapon4@@ABU34@@Z PROC ; std::allocator<ioAdhesiveMissileWeapon4::TargetInfo>::construct, COMDAT
; _this$ = ecx

; 196  : 		{	// construct object at _Ptr with value _Val

  00000	55		 push	 ebp
  00001	8b ec		 mov	 ebp, esp

; 197  : 		_Construct(_Ptr, _Val);

  00003	ff 75 0c	 push	 DWORD PTR __Val$[ebp]
  00006	ff 75 08	 push	 DWORD PTR __Ptr$[ebp]
  00009	e8 00 00 00 00	 call	 ??$_Construct@UTargetInfo@ioAdhesiveMissileWeapon4@@ABU12@@std@@YAXPAUTargetInfo@ioAdhesiveMissileWeapon4@@ABU12@@Z ; std::_Construct<ioAdhesiveMissileWeapon4::TargetInfo,ioAdhesiveMissileWeapon4::TargetInfo const &>
  0000e	59		 pop	 ecx
  0000f	59		 pop	 ecx

; 198  : 		}

  00010	5d		 pop	 ebp
  00011	c2 08 00	 ret	 8
?construct@?$allocator@UTargetInfo@ioAdhesiveMissileWeapon4@@@std@@QAEXPAUTargetInfo@ioAdhesiveMissileWeapon4@@ABU34@@Z ENDP ; std::allocator<ioAdhesiveMissileWeapon4::TargetInfo>::construct
_TEXT	ENDS
PUBLIC	??$construct@AAVioHashString@@@?$allocator@VioHashString@@@std@@QAEXPAVioHashString@@AAV2@@Z ; std::allocator<ioHashString>::construct<ioHashString &>
;	COMDAT xdata$x
; File c:\program files (x86)\microsoft visual studio 10.0\vc\include\utility
xdata$x	SEGMENT
__unwindtable$??$construct@AAVioHashString@@@?$allocator@VioHashString@@@std@@QAEXPAVioHashString@@AAV2@@Z DD 0ffffffffH
	DD	FLAT:__unwindfunclet$??$construct@AAVioHashString@@@?$allocator@VioHashString@@@std@@QAEXPAVioHashString@@AAV2@@Z$0
__ehfuncinfo$??$construct@AAVioHashString@@@?$allocator@VioHashString@@@std@@QAEXPAVioHashString@@AAV2@@Z DD 019930522H
	DD	01H
	DD	FLAT:__unwindtable$??$construct@AAVioHashString@@@?$allocator@VioHashString@@@std@@QAEXPAVioHashString@@AAV2@@Z
	DD	2 DUP(00H)
	DD	2 DUP(00H)
	DD	00H
	DD	01H
; Function compile flags: /Ogsp
; File c:\program files (x86)\microsoft visual studio 10.0\vc\include\xmemory
xdata$x	ENDS
;	COMDAT ??$construct@AAVioHashString@@@?$allocator@VioHashString@@@std@@QAEXPAVioHashString@@AAV2@@Z
_TEXT	SEGMENT
$T535890 = -16						; size = 4
__$EHRec$ = -12						; size = 12
__Ptr$ = 8						; size = 4
__Val$ = 12						; size = 4
??$construct@AAVioHashString@@@?$allocator@VioHashString@@@std@@QAEXPAVioHashString@@AAV2@@Z PROC ; std::allocator<ioHashString>::construct<ioHashString &>, COMDAT
; _this$ = ecx

; 206  : 		void construct(pointer _Ptr, _Other&& _Val)

  00000	6a 04		 push	 4
  00002	b8 00 00 00 00	 mov	 eax, __ehhandler$??$construct@AAVioHashString@@@?$allocator@VioHashString@@@std@@QAEXPAVioHashString@@AAV2@@Z
  00007	e8 00 00 00 00	 call	 __EH_prolog3

; 207  : 		{	// construct object at _Ptr with value _Val
; 208  : 		::new ((void _FARQ *)_Ptr) _Ty(_STD forward<_Other>(_Val));

  0000c	8b 4d 08	 mov	 ecx, DWORD PTR __Ptr$[ebp]
  0000f	89 4d f0	 mov	 DWORD PTR $T535890[ebp], ecx
  00012	83 65 fc 00	 and	 DWORD PTR __$EHRec$[ebp+8], 0
  00016	85 c9		 test	 ecx, ecx
  00018	74 09		 je	 SHORT $LN3@construct@2
  0001a	ff 75 0c	 push	 DWORD PTR __Val$[ebp]
  0001d	ff 15 00 00 00
	00		 call	 DWORD PTR __imp_??0ioHashString@@QAE@ABV0@@Z
$LN3@construct@2:

; 209  : 		}

  00023	e8 00 00 00 00	 call	 __EH_epilog3
  00028	c2 08 00	 ret	 8
_TEXT	ENDS
;	COMDAT text$x
text$x	SEGMENT
__unwindfunclet$??$construct@AAVioHashString@@@?$allocator@VioHashString@@@std@@QAEXPAVioHashString@@AAV2@@Z$0:
  00000	ff 75 08	 push	 DWORD PTR __Ptr$[ebp]
  00003	ff 75 f0	 push	 DWORD PTR $T535890[ebp]
  00006	e8 00 00 00 00	 call	 ??3@YAXPAX0@Z		; operator delete
  0000b	59		 pop	 ecx
  0000c	59		 pop	 ecx
  0000d	c3		 ret	 0
__ehhandler$??$construct@AAVioHashString@@@?$allocator@VioHashString@@@std@@QAEXPAVioHashString@@AAV2@@Z:
  0000e	8b 54 24 08	 mov	 edx, DWORD PTR [esp+8]
  00012	8d 42 0c	 lea	 eax, DWORD PTR [edx+12]
  00015	8b 4a ec	 mov	 ecx, DWORD PTR [edx-20]
  00018	33 c8		 xor	 ecx, eax
  0001a	e8 00 00 00 00	 call	 @__security_check_cookie@4
  0001f	b8 00 00 00 00	 mov	 eax, OFFSET __ehfuncinfo$??$construct@AAVioHashString@@@?$allocator@VioHashString@@@std@@QAEXPAVioHashString@@AAV2@@Z
  00024	e9 00 00 00 00	 jmp	 ___CxxFrameHandler3
text$x	ENDS
??$construct@AAVioHashString@@@?$allocator@VioHashString@@@std@@QAEXPAVioHashString@@AAV2@@Z ENDP ; std::allocator<ioHashString>::construct<ioHashString &>
PUBLIC	??$_Move@PAUTargetInfo@ioAdhesiveMissileWeapon4@@PAU12@@std@@YAPAUTargetInfo@ioAdhesiveMissileWeapon4@@PAU12@00U_Nonscalar_ptr_iterator_tag@0@@Z ; std::_Move<ioAdhesiveMissileWeapon4::TargetInfo *,ioAdhesiveMissileWeapon4::TargetInfo *>
; Function compile flags: /Ogsp
; File c:\program files (x86)\microsoft visual studio 10.0\vc\include\xutility
;	COMDAT ??$_Move@PAUTargetInfo@ioAdhesiveMissileWeapon4@@PAU12@@std@@YAPAUTargetInfo@ioAdhesiveMissileWeapon4@@PAU12@00U_Nonscalar_ptr_iterator_tag@0@@Z
_TEXT	SEGMENT
__First$ = 8						; size = 4
__Last$ = 12						; size = 4
__Dest$ = 16						; size = 4
___formal$ = 20						; size = 1
??$_Move@PAUTargetInfo@ioAdhesiveMissileWeapon4@@PAU12@@std@@YAPAUTargetInfo@ioAdhesiveMissileWeapon4@@PAU12@00U_Nonscalar_ptr_iterator_tag@0@@Z PROC ; std::_Move<ioAdhesiveMissileWeapon4::TargetInfo *,ioAdhesiveMissileWeapon4::TargetInfo *>, COMDAT

; 2512 : 	{	// move [_First, _Last) to [_Dest, ...), arbitrary iterators

  00000	55		 push	 ebp
  00001	8b ec		 mov	 ebp, esp
  00003	56		 push	 esi

; 2513 : 	for (; _First != _Last; ++_Dest, ++_First)

  00004	8b 75 08	 mov	 esi, DWORD PTR __First$[ebp]
  00007	eb 10		 jmp	 SHORT $LN11@Move
$LL3@Move:

; 2514 : 		*_Dest = _STD move(*_First);

  00009	8b 4d 10	 mov	 ecx, DWORD PTR __Dest$[ebp]
  0000c	56		 push	 esi
  0000d	e8 00 00 00 00	 call	 ??4TargetInfo@ioAdhesiveMissileWeapon4@@QAEAAU01@ABU01@@Z
  00012	83 45 10 18	 add	 DWORD PTR __Dest$[ebp], 24 ; 00000018H
  00016	83 c6 18	 add	 esi, 24			; 00000018H
$LN11@Move:

; 2513 : 	for (; _First != _Last; ++_Dest, ++_First)

  00019	3b 75 0c	 cmp	 esi, DWORD PTR __Last$[ebp]
  0001c	75 eb		 jne	 SHORT $LL3@Move

; 2515 : 	return (_Dest);

  0001e	8b 45 10	 mov	 eax, DWORD PTR __Dest$[ebp]
  00021	5e		 pop	 esi

; 2516 : 	}

  00022	5d		 pop	 ebp
  00023	c3		 ret	 0
??$_Move@PAUTargetInfo@ioAdhesiveMissileWeapon4@@PAU12@@std@@YAPAUTargetInfo@ioAdhesiveMissileWeapon4@@PAU12@00U_Nonscalar_ptr_iterator_tag@0@@Z ENDP ; std::_Move<ioAdhesiveMissileWeapon4::TargetInfo *,ioAdhesiveMissileWeapon4::TargetInfo *>
_TEXT	ENDS
PUBLIC	??$_Destroy@UTargetInfo@ioAdhesiveMissileWeapon4@@@std@@YAXPAUTargetInfo@ioAdhesiveMissileWeapon4@@@Z ; std::_Destroy<ioAdhesiveMissileWeapon4::TargetInfo>
; Function compile flags: /Ogsp
; File c:\program files (x86)\microsoft visual studio 10.0\vc\include\xmemory
;	COMDAT ??$_Destroy@UTargetInfo@ioAdhesiveMissileWeapon4@@@std@@YAXPAUTargetInfo@ioAdhesiveMissileWeapon4@@@Z
_TEXT	SEGMENT
__Ptr$ = 8						; size = 4
??$_Destroy@UTargetInfo@ioAdhesiveMissileWeapon4@@@std@@YAXPAUTargetInfo@ioAdhesiveMissileWeapon4@@@Z PROC ; std::_Destroy<ioAdhesiveMissileWeapon4::TargetInfo>, COMDAT

; 62   : 	{	// destroy object at _Ptr

  00000	55		 push	 ebp
  00001	8b ec		 mov	 ebp, esp

; 63   : 	_Ptr->~_Ty();

  00003	8b 4d 08	 mov	 ecx, DWORD PTR __Ptr$[ebp]

; 64   : 	}

  00006	5d		 pop	 ebp

; 63   : 	_Ptr->~_Ty();

  00007	ff 25 00 00 00
	00		 jmp	 DWORD PTR __imp_??1ioHashString@@QAE@XZ
??$_Destroy@UTargetInfo@ioAdhesiveMissileWeapon4@@@std@@YAXPAUTargetInfo@ioAdhesiveMissileWeapon4@@@Z ENDP ; std::_Destroy<ioAdhesiveMissileWeapon4::TargetInfo>
_TEXT	ENDS
PUBLIC	?construct@?$allocator@VioHashString@@@std@@QAEXPAVioHashString@@$$QAV3@@Z ; std::allocator<ioHashString>::construct
;	COMDAT xdata$x
; File c:\program files (x86)\microsoft visual studio 10.0\vc\include\utility
xdata$x	SEGMENT
__unwindtable$?construct@?$allocator@VioHashString@@@std@@QAEXPAVioHashString@@$$QAV3@@Z DD 0ffffffffH
	DD	FLAT:__unwindfunclet$?construct@?$allocator@VioHashString@@@std@@QAEXPAVioHashString@@$$QAV3@@Z$0
__ehfuncinfo$?construct@?$allocator@VioHashString@@@std@@QAEXPAVioHashString@@$$QAV3@@Z DD 019930522H
	DD	01H
	DD	FLAT:__unwindtable$?construct@?$allocator@VioHashString@@@std@@QAEXPAVioHashString@@$$QAV3@@Z
	DD	2 DUP(00H)
	DD	2 DUP(00H)
	DD	00H
	DD	01H
; Function compile flags: /Ogsp
; File c:\program files (x86)\microsoft visual studio 10.0\vc\include\xmemory
xdata$x	ENDS
;	COMDAT ?construct@?$allocator@VioHashString@@@std@@QAEXPAVioHashString@@$$QAV3@@Z
_TEXT	SEGMENT
$T535931 = -16						; size = 4
__$EHRec$ = -12						; size = 12
__Ptr$ = 8						; size = 4
__Val$ = 12						; size = 4
?construct@?$allocator@VioHashString@@@std@@QAEXPAVioHashString@@$$QAV3@@Z PROC ; std::allocator<ioHashString>::construct, COMDAT
; _this$ = ecx

; 201  : 		{	// construct object at _Ptr with value _Val

  00000	6a 04		 push	 4
  00002	b8 00 00 00 00	 mov	 eax, __ehhandler$?construct@?$allocator@VioHashString@@@std@@QAEXPAVioHashString@@$$QAV3@@Z
  00007	e8 00 00 00 00	 call	 __EH_prolog3

; 202  : 		::new ((void _FARQ *)_Ptr) _Ty(_STD forward<_Ty>(_Val));

  0000c	8b 4d 08	 mov	 ecx, DWORD PTR __Ptr$[ebp]
  0000f	89 4d f0	 mov	 DWORD PTR $T535931[ebp], ecx
  00012	83 65 fc 00	 and	 DWORD PTR __$EHRec$[ebp+8], 0
  00016	85 c9		 test	 ecx, ecx
  00018	74 09		 je	 SHORT $LN3@construct@3
  0001a	ff 75 0c	 push	 DWORD PTR __Val$[ebp]
  0001d	ff 15 00 00 00
	00		 call	 DWORD PTR __imp_??0ioHashString@@QAE@ABV0@@Z
$LN3@construct@3:

; 203  : 		}

  00023	e8 00 00 00 00	 call	 __EH_epilog3
  00028	c2 08 00	 ret	 8
_TEXT	ENDS
;	COMDAT text$x
text$x	SEGMENT
__unwindfunclet$?construct@?$allocator@VioHashString@@@std@@QAEXPAVioHashString@@$$QAV3@@Z$0:
  00000	ff 75 08	 push	 DWORD PTR __Ptr$[ebp]
  00003	ff 75 f0	 push	 DWORD PTR $T535931[ebp]
  00006	e8 00 00 00 00	 call	 ??3@YAXPAX0@Z		; operator delete
  0000b	59		 pop	 ecx
  0000c	59		 pop	 ecx
  0000d	c3		 ret	 0
__ehhandler$?construct@?$allocator@VioHashString@@@std@@QAEXPAVioHashString@@$$QAV3@@Z:
  0000e	8b 54 24 08	 mov	 edx, DWORD PTR [esp+8]
  00012	8d 42 0c	 lea	 eax, DWORD PTR [edx+12]
  00015	8b 4a ec	 mov	 ecx, DWORD PTR [edx-20]
  00018	33 c8		 xor	 ecx, eax
  0001a	e8 00 00 00 00	 call	 @__security_check_cookie@4
  0001f	b8 00 00 00 00	 mov	 eax, OFFSET __ehfuncinfo$?construct@?$allocator@VioHashString@@@std@@QAEXPAVioHashString@@$$QAV3@@Z
  00024	e9 00 00 00 00	 jmp	 ___CxxFrameHandler3
text$x	ENDS
?construct@?$allocator@VioHashString@@@std@@QAEXPAVioHashString@@$$QAV3@@Z ENDP ; std::allocator<ioHashString>::construct
PUBLIC	?construct@?$allocator@UTargetInfo@ioAdhesiveMissileWeapon4@@@std@@QAEXPAUTargetInfo@ioAdhesiveMissileWeapon4@@$$QAU34@@Z ; std::allocator<ioAdhesiveMissileWeapon4::TargetInfo>::construct
;	COMDAT xdata$x
; File c:\program files (x86)\microsoft visual studio 10.0\vc\include\utility
xdata$x	SEGMENT
__unwindtable$?construct@?$allocator@UTargetInfo@ioAdhesiveMissileWeapon4@@@std@@QAEXPAUTargetInfo@ioAdhesiveMissileWeapon4@@$$QAU34@@Z DD 0ffffffffH
	DD	FLAT:__unwindfunclet$?construct@?$allocator@UTargetInfo@ioAdhesiveMissileWeapon4@@@std@@QAEXPAUTargetInfo@ioAdhesiveMissileWeapon4@@$$QAU34@@Z$0
__ehfuncinfo$?construct@?$allocator@UTargetInfo@ioAdhesiveMissileWeapon4@@@std@@QAEXPAUTargetInfo@ioAdhesiveMissileWeapon4@@$$QAU34@@Z DD 019930522H
	DD	01H
	DD	FLAT:__unwindtable$?construct@?$allocator@UTargetInfo@ioAdhesiveMissileWeapon4@@@std@@QAEXPAUTargetInfo@ioAdhesiveMissileWeapon4@@$$QAU34@@Z
	DD	2 DUP(00H)
	DD	2 DUP(00H)
	DD	00H
	DD	01H
; Function compile flags: /Ogsp
; File c:\program files (x86)\microsoft visual studio 10.0\vc\include\xmemory
xdata$x	ENDS
;	COMDAT ?construct@?$allocator@UTargetInfo@ioAdhesiveMissileWeapon4@@@std@@QAEXPAUTargetInfo@ioAdhesiveMissileWeapon4@@$$QAU34@@Z
_TEXT	SEGMENT
$T535950 = -16						; size = 4
__$EHRec$ = -12						; size = 12
__Ptr$ = 8						; size = 4
__Val$ = 12						; size = 4
?construct@?$allocator@UTargetInfo@ioAdhesiveMissileWeapon4@@@std@@QAEXPAUTargetInfo@ioAdhesiveMissileWeapon4@@$$QAU34@@Z PROC ; std::allocator<ioAdhesiveMissileWeapon4::TargetInfo>::construct, COMDAT
; _this$ = ecx

; 201  : 		{	// construct object at _Ptr with value _Val

  00000	6a 04		 push	 4
  00002	b8 00 00 00 00	 mov	 eax, __ehhandler$?construct@?$allocator@UTargetInfo@ioAdhesiveMissileWeapon4@@@std@@QAEXPAUTargetInfo@ioAdhesiveMissileWeapon4@@$$QAU34@@Z
  00007	e8 00 00 00 00	 call	 __EH_prolog3

; 202  : 		::new ((void _FARQ *)_Ptr) _Ty(_STD forward<_Ty>(_Val));

  0000c	8b 4d 08	 mov	 ecx, DWORD PTR __Ptr$[ebp]
  0000f	89 4d f0	 mov	 DWORD PTR $T535950[ebp], ecx
  00012	83 65 fc 00	 and	 DWORD PTR __$EHRec$[ebp+8], 0
  00016	85 c9		 test	 ecx, ecx
  00018	74 08		 je	 SHORT $LN3@construct@4
  0001a	ff 75 0c	 push	 DWORD PTR __Val$[ebp]
  0001d	e8 00 00 00 00	 call	 ??0TargetInfo@ioAdhesiveMissileWeapon4@@QAE@ABU01@@Z
$LN3@construct@4:

; 203  : 		}

  00022	e8 00 00 00 00	 call	 __EH_epilog3
  00027	c2 08 00	 ret	 8
_TEXT	ENDS
;	COMDAT text$x
text$x	SEGMENT
__unwindfunclet$?construct@?$allocator@UTargetInfo@ioAdhesiveMissileWeapon4@@@std@@QAEXPAUTargetInfo@ioAdhesiveMissileWeapon4@@$$QAU34@@Z$0:
  00000	ff 75 08	 push	 DWORD PTR __Ptr$[ebp]
  00003	ff 75 f0	 push	 DWORD PTR $T535950[ebp]
  00006	e8 00 00 00 00	 call	 ??3@YAXPAX0@Z		; operator delete
  0000b	59		 pop	 ecx
  0000c	59		 pop	 ecx
  0000d	c3		 ret	 0
__ehhandler$?construct@?$allocator@UTargetInfo@ioAdhesiveMissileWeapon4@@@std@@QAEXPAUTargetInfo@ioAdhesiveMissileWeapon4@@$$QAU34@@Z:
  0000e	8b 54 24 08	 mov	 edx, DWORD PTR [esp+8]
  00012	8d 42 0c	 lea	 eax, DWORD PTR [edx+12]
  00015	8b 4a ec	 mov	 ecx, DWORD PTR [edx-20]
  00018	33 c8		 xor	 ecx, eax
  0001a	e8 00 00 00 00	 call	 @__security_check_cookie@4
  0001f	b8 00 00 00 00	 mov	 eax, OFFSET __ehfuncinfo$?construct@?$allocator@UTargetInfo@ioAdhesiveMissileWeapon4@@@std@@QAEXPAUTargetInfo@ioAdhesiveMissileWeapon4@@$$QAU34@@Z
  00024	e9 00 00 00 00	 jmp	 ___CxxFrameHandler3
text$x	ENDS
?construct@?$allocator@UTargetInfo@ioAdhesiveMissileWeapon4@@@std@@QAEXPAUTargetInfo@ioAdhesiveMissileWeapon4@@$$QAU34@@Z ENDP ; std::allocator<ioAdhesiveMissileWeapon4::TargetInfo>::construct
PUBLIC	??0?$CEncrypt@M@@QAE@XZ				; CEncrypt<float>::CEncrypt<float>
EXTRN	??0ccddaabb@@QAE@XZ:PROC			; ccddaabb::ccddaabb
;	COMDAT xdata$x
; File d:\lost saga for developer\youtube\tutorial\source\src\lsclient\encryptvalue.h
xdata$x	SEGMENT
__unwindtable$??0?$CEncrypt@M@@QAE@XZ DD 0ffffffffH
	DD	FLAT:__unwindfunclet$??0?$CEncrypt@M@@QAE@XZ$0
__ehfuncinfo$??0?$CEncrypt@M@@QAE@XZ DD 019930522H
	DD	01H
	DD	FLAT:__unwindtable$??0?$CEncrypt@M@@QAE@XZ
	DD	2 DUP(00H)
	DD	2 DUP(00H)
	DD	00H
	DD	01H
; Function compile flags: /Ogsp
xdata$x	ENDS
;	COMDAT ??0?$CEncrypt@M@@QAE@XZ
_TEXT	SEGMENT
_this$ = -16						; size = 4
__$EHRec$ = -12						; size = 12
??0?$CEncrypt@M@@QAE@XZ PROC				; CEncrypt<float>::CEncrypt<float>, COMDAT
; _this$ = ecx

; 109  : 	CEncrypt()

  00000	6a 04		 push	 4
  00002	b8 00 00 00 00	 mov	 eax, __ehhandler$??0?$CEncrypt@M@@QAE@XZ
  00007	e8 00 00 00 00	 call	 __EH_prolog3
  0000c	8b f1		 mov	 esi, ecx
  0000e	89 75 f0	 mov	 DWORD PTR _this$[ebp], esi
  00011	8d 4e 0c	 lea	 ecx, DWORD PTR [esi+12]
  00014	c7 06 00 00 00
	00		 mov	 DWORD PTR [esi], OFFSET ??_7?$CEncrypt@M@@6B@
  0001a	e8 00 00 00 00	 call	 ??0ccddaabb@@QAE@XZ	; ccddaabb::ccddaabb
  0001f	83 65 fc 00	 and	 DWORD PTR __$EHRec$[ebp+8], 0

; 110  : 	{
; 111  : 		Init();

  00023	8b ce		 mov	 ecx, esi
  00025	e8 00 00 00 00	 call	 ?Init@?$CEncrypt@M@@AAEXXZ ; CEncrypt<float>::Init

; 112  : 	}

  0002a	8b c6		 mov	 eax, esi
  0002c	e8 00 00 00 00	 call	 __EH_epilog3
  00031	c3		 ret	 0
_TEXT	ENDS
;	COMDAT text$x
text$x	SEGMENT
__unwindfunclet$??0?$CEncrypt@M@@QAE@XZ$0:
  00000	8b 4d f0	 mov	 ecx, DWORD PTR _this$[ebp]
  00003	83 c1 0c	 add	 ecx, 12			; 0000000cH
  00006	e9 00 00 00 00	 jmp	 ??1ccddaabb@@UAE@XZ	; ccddaabb::~ccddaabb
__ehhandler$??0?$CEncrypt@M@@QAE@XZ:
  0000b	8b 54 24 08	 mov	 edx, DWORD PTR [esp+8]
  0000f	8d 42 0c	 lea	 eax, DWORD PTR [edx+12]
  00012	8b 4a ec	 mov	 ecx, DWORD PTR [edx-20]
  00015	33 c8		 xor	 ecx, eax
  00017	e8 00 00 00 00	 call	 @__security_check_cookie@4
  0001c	b8 00 00 00 00	 mov	 eax, OFFSET __ehfuncinfo$??0?$CEncrypt@M@@QAE@XZ
  00021	e9 00 00 00 00	 jmp	 ___CxxFrameHandler3
text$x	ENDS
??0?$CEncrypt@M@@QAE@XZ ENDP				; CEncrypt<float>::CEncrypt<float>
PUBLIC	??B?$CEncrypt@M@@QAEMXZ				; CEncrypt<float>::operator float
; Function compile flags: /Ogsp
;	COMDAT ??B?$CEncrypt@M@@QAEMXZ
_TEXT	SEGMENT
_value$ = -4						; size = 4
??B?$CEncrypt@M@@QAEMXZ PROC				; CEncrypt<float>::operator float, COMDAT
; _this$ = ecx

; 134  : 	{

  00000	55		 push	 ebp
  00001	8b ec		 mov	 ebp, esp
  00003	51		 push	 ecx

; 135  : 		type value;
; 136  : 		DecryptValueToPool(&value);

  00004	8d 45 fc	 lea	 eax, DWORD PTR _value$[ebp]
  00007	50		 push	 eax
  00008	e8 00 00 00 00	 call	 ?DecryptValueToPool@?$CEncrypt@M@@QAEXPAM@Z ; CEncrypt<float>::DecryptValueToPool

; 137  : 
; 138  : #ifdef _NOTUSE
; 139  : 		Debug();
; 140  : #endif
; 141  : 		return value;

  0000d	d9 45 fc	 fld	 DWORD PTR _value$[ebp]

; 142  : 	}

  00010	c9		 leave
  00011	c3		 ret	 0
??B?$CEncrypt@M@@QAEMXZ ENDP				; CEncrypt<float>::operator float
_TEXT	ENDS
PUBLIC	??4?$CEncrypt@M@@QAEMM@Z			; CEncrypt<float>::operator=
; Function compile flags: /Ogsp
;	COMDAT ??4?$CEncrypt@M@@QAEMM@Z
_TEXT	SEGMENT
_value$ = 8						; size = 4
_inValue$ = 8						; size = 4
??4?$CEncrypt@M@@QAEMM@Z PROC				; CEncrypt<float>::operator=, COMDAT
; _this$ = ecx

; 1654 : 	{	

  00000	55		 push	 ebp
  00001	8b ec		 mov	 ebp, esp

; 1655 : 		type value = inValue;

  00003	d9 45 08	 fld	 DWORD PTR _inValue$[ebp]

; 1656 : 		EncryptValueToPool((char*)&value);

  00006	8d 45 08	 lea	 eax, DWORD PTR _value$[ebp]
  00009	50		 push	 eax
  0000a	d9 5d 08	 fstp	 DWORD PTR _value$[ebp]
  0000d	e8 00 00 00 00	 call	 ?EncryptValueToPool@?$CEncrypt@M@@AAEXPBD@Z ; CEncrypt<float>::EncryptValueToPool

; 1657 : #ifdef _NOTUSE
; 1658 : 		m_value = inValue;
; 1659 : 		Debug();
; 1660 : #endif
; 1661 : 		return value;

  00012	d9 45 08	 fld	 DWORD PTR _value$[ebp]

; 1662 : 	}

  00015	5d		 pop	 ebp
  00016	c2 04 00	 ret	 4
??4?$CEncrypt@M@@QAEMM@Z ENDP				; CEncrypt<float>::operator=
_TEXT	ENDS
PUBLIC	??O?$CEncrypt@M@@QAE_NABM@Z			; CEncrypt<float>::operator>
; Function compile flags: /Ogsp
;	COMDAT ??O?$CEncrypt@M@@QAE_NABM@Z
_TEXT	SEGMENT
_value$ = -4						; size = 4
_inValue$ = 8						; size = 4
??O?$CEncrypt@M@@QAE_NABM@Z PROC			; CEncrypt<float>::operator>, COMDAT
; _this$ = ecx

; 1811 : 	{

  00000	55		 push	 ebp
  00001	8b ec		 mov	 ebp, esp
  00003	51		 push	 ecx

; 1812 : 		type value;
; 1813 : 		DecryptValueToPool(&value);

  00004	8d 45 fc	 lea	 eax, DWORD PTR _value$[ebp]
  00007	50		 push	 eax
  00008	e8 00 00 00 00	 call	 ?DecryptValueToPool@?$CEncrypt@M@@QAEXPAM@Z ; CEncrypt<float>::DecryptValueToPool

; 1814 : #ifdef _NOTUSE
; 1815 : 		Debug();
; 1816 : #endif
; 1817 : 		return (value > inValue);

  0000d	8b 45 08	 mov	 eax, DWORD PTR _inValue$[ebp]
  00010	f3 0f 10 08	 movss	 xmm1, DWORD PTR [eax]
  00014	f3 0f 10 45 fc	 movss	 xmm0, DWORD PTR _value$[ebp]
  00019	0f 5a c0	 cvtps2pd xmm0, xmm0
  0001c	0f 5a c9	 cvtps2pd xmm1, xmm1
  0001f	33 c0		 xor	 eax, eax
  00021	66 0f 2f c1	 comisd	 xmm0, xmm1
  00025	76 01		 jbe	 SHORT $LN4@operator
  00027	40		 inc	 eax
$LN4@operator:

; 1818 : 	}		

  00028	c9		 leave
  00029	c2 04 00	 ret	 4
??O?$CEncrypt@M@@QAE_NABM@Z ENDP			; CEncrypt<float>::operator>
_TEXT	ENDS
PUBLIC	??B?$CEncrypt@W4TeamType@@@@QBE?AW4TeamType@@XZ	; CEncrypt<enum TeamType>::operator enum TeamType
; Function compile flags: /Ogsp
;	COMDAT ??B?$CEncrypt@W4TeamType@@@@QBE?AW4TeamType@@XZ
_TEXT	SEGMENT
_value$ = -4						; size = 4
??B?$CEncrypt@W4TeamType@@@@QBE?AW4TeamType@@XZ PROC	; CEncrypt<enum TeamType>::operator enum TeamType, COMDAT
; _this$ = ecx

; 145  : 	{

  00000	55		 push	 ebp
  00001	8b ec		 mov	 ebp, esp
  00003	51		 push	 ecx

; 146  : 		//UJ 130829, const    --start
; 147  : 		type value;
; 148  : 		CEncrypt<type>* pThis = const_cast<CEncrypt<type>*>(this);
; 149  : 		pThis->DecryptValueToPool(&value);

  00004	8d 45 fc	 lea	 eax, DWORD PTR _value$[ebp]
  00007	50		 push	 eax
  00008	e8 00 00 00 00	 call	 ?DecryptValueToPool@?$CEncrypt@W4TeamType@@@@QAEXPAW4TeamType@@@Z ; CEncrypt<enum TeamType>::DecryptValueToPool

; 150  : 		//// const DecryptValueToPool     .
; 151  :  		//type value;
; 152  : 		//char szTempMem[MAX_ENCRYPT];
; 153  : 		//m_RC5.DecryptByte( m_MemPool, szTempMem, max(m_ValueSize, DEFAULT_ENCRYPT) );
; 154  : 		//memcpy( &value, szTempMem, m_ValueSize );
; 155  : 		//UJ --end
; 156  : 
; 157  : #ifdef _NOTUSE
; 158  : 		Debug();
; 159  : #endif
; 160  : 		return value;

  0000d	8b 45 fc	 mov	 eax, DWORD PTR _value$[ebp]

; 161  : 	}

  00010	c9		 leave
  00011	c3		 ret	 0
??B?$CEncrypt@W4TeamType@@@@QBE?AW4TeamType@@XZ ENDP	; CEncrypt<enum TeamType>::operator enum TeamType
_TEXT	ENDS
PUBLIC	??0?$_Vector_val@VioHashString@@V?$allocator@VioHashString@@@std@@@std@@QAE@V?$allocator@VioHashString@@@1@@Z ; std::_Vector_val<ioHashString,std::allocator<ioHashString> >::_Vector_val<ioHashString,std::allocator<ioHashString> >
; Function compile flags: /Ogsp
; File c:\program files (x86)\microsoft visual studio 10.0\vc\include\vector
;	COMDAT ??0?$_Vector_val@VioHashString@@V?$allocator@VioHashString@@@std@@@std@@QAE@V?$allocator@VioHashString@@@1@@Z
_TEXT	SEGMENT
__Al$ = 8						; size = 1
??0?$_Vector_val@VioHashString@@V?$allocator@VioHashString@@@std@@@std@@QAE@V?$allocator@VioHashString@@@1@@Z PROC ; std::_Vector_val<ioHashString,std::allocator<ioHashString> >::_Vector_val<ioHashString,std::allocator<ioHashString> >, COMDAT
; _this$ = ecx

; 426  : 		{	// construct allocator from _Al

  00000	8b c1		 mov	 eax, ecx

; 427  : 		_Myfirst = 0;

  00002	33 c9		 xor	 ecx, ecx
  00004	89 08		 mov	 DWORD PTR [eax], ecx

; 428  : 		_Mylast = 0;

  00006	89 48 04	 mov	 DWORD PTR [eax+4], ecx

; 429  : 		_Myend = 0;

  00009	89 48 08	 mov	 DWORD PTR [eax+8], ecx

; 430  : 		}

  0000c	c2 04 00	 ret	 4
??0?$_Vector_val@VioHashString@@V?$allocator@VioHashString@@@std@@@std@@QAE@V?$allocator@VioHashString@@@1@@Z ENDP ; std::_Vector_val<ioHashString,std::allocator<ioHashString> >::_Vector_val<ioHashString,std::allocator<ioHashString> >
_TEXT	ENDS
PUBLIC	?max_size@?$vector@VioHashString@@V?$allocator@VioHashString@@@std@@@std@@QBEIXZ ; std::vector<ioHashString,std::allocator<ioHashString> >::max_size
; Function compile flags: /Ogsp
;	COMDAT ?max_size@?$vector@VioHashString@@V?$allocator@VioHashString@@@std@@@std@@QBEIXZ
_TEXT	SEGMENT
?max_size@?$vector@VioHashString@@V?$allocator@VioHashString@@@std@@@std@@QBEIXZ PROC ; std::vector<ioHashString,std::allocator<ioHashString> >::max_size, COMDAT
; _this$ = ecx

; 884  : 		return (this->_Alval.max_size());

  00000	b8 ff ff ff 0f	 mov	 eax, 268435455		; 0fffffffH

; 885  : 		}

  00005	c3		 ret	 0
?max_size@?$vector@VioHashString@@V?$allocator@VioHashString@@@std@@@std@@QBEIXZ ENDP ; std::vector<ioHashString,std::allocator<ioHashString> >::max_size
_TEXT	ENDS
PUBLIC	?allocate@?$allocator@VioHashString@@@std@@QAEPAVioHashString@@I@Z ; std::allocator<ioHashString>::allocate
; Function compile flags: /Ogsp
; File c:\program files (x86)\microsoft visual studio 10.0\vc\include\xmemory
;	COMDAT ?allocate@?$allocator@VioHashString@@@std@@QAEPAVioHashString@@I@Z
_TEXT	SEGMENT
__Count$ = 8						; size = 4
?allocate@?$allocator@VioHashString@@@std@@QAEPAVioHashString@@I@Z PROC ; std::allocator<ioHashString>::allocate, COMDAT
; _this$ = ecx

; 186  : 		{	// allocate array of _Count elements

  00000	55		 push	 ebp
  00001	8b ec		 mov	 ebp, esp

; 187  : 		return (_Allocate(_Count, (pointer)0));

  00003	6a 00		 push	 0
  00005	ff 75 08	 push	 DWORD PTR __Count$[ebp]
  00008	e8 00 00 00 00	 call	 ??$_Allocate@VioHashString@@@std@@YAPAVioHashString@@IPAV1@@Z ; std::_Allocate<ioHashString>
  0000d	59		 pop	 ecx
  0000e	59		 pop	 ecx

; 188  : 		}

  0000f	5d		 pop	 ebp
  00010	c2 04 00	 ret	 4
?allocate@?$allocator@VioHashString@@@std@@QAEPAVioHashString@@I@Z ENDP ; std::allocator<ioHashString>::allocate
_TEXT	ENDS
PUBLIC	??$_Destroy@VioHashString@@@std@@YAXPAVioHashString@@@Z ; std::_Destroy<ioHashString>
; Function compile flags: /Ogsp
;	COMDAT ??$_Destroy@VioHashString@@@std@@YAXPAVioHashString@@@Z
_TEXT	SEGMENT
__Ptr$ = 8						; size = 4
??$_Destroy@VioHashString@@@std@@YAXPAVioHashString@@@Z PROC ; std::_Destroy<ioHashString>, COMDAT

; 62   : 	{	// destroy object at _Ptr

  00000	55		 push	 ebp
  00001	8b ec		 mov	 ebp, esp

; 63   : 	_Ptr->~_Ty();

  00003	8b 4d 08	 mov	 ecx, DWORD PTR __Ptr$[ebp]

; 64   : 	}

  00006	5d		 pop	 ebp

; 63   : 	_Ptr->~_Ty();

  00007	ff 25 00 00 00
	00		 jmp	 DWORD PTR __imp_??1ioHashString@@QAE@XZ
??$_Destroy@VioHashString@@@std@@YAXPAVioHashString@@@Z ENDP ; std::_Destroy<ioHashString>
_TEXT	ENDS
PUBLIC	?construct@?$allocator@VioHashString@@@std@@QAEXPAVioHashString@@ABV3@@Z ; std::allocator<ioHashString>::construct
; Function compile flags: /Ogsp
;	COMDAT ?construct@?$allocator@VioHashString@@@std@@QAEXPAVioHashString@@ABV3@@Z
_TEXT	SEGMENT
__Ptr$ = 8						; size = 4
__Val$ = 12						; size = 4
?construct@?$allocator@VioHashString@@@std@@QAEXPAVioHashString@@ABV3@@Z PROC ; std::allocator<ioHashString>::construct, COMDAT
; _this$ = ecx

; 196  : 		{	// construct object at _Ptr with value _Val

  00000	55		 push	 ebp
  00001	8b ec		 mov	 ebp, esp

; 197  : 		_Construct(_Ptr, _Val);

  00003	ff 75 0c	 push	 DWORD PTR __Val$[ebp]
  00006	ff 75 08	 push	 DWORD PTR __Ptr$[ebp]
  00009	e8 00 00 00 00	 call	 ??$_Construct@VioHashString@@ABV1@@std@@YAXPAVioHashString@@ABV1@@Z ; std::_Construct<ioHashString,ioHashString const &>
  0000e	59		 pop	 ecx
  0000f	59		 pop	 ecx

; 198  : 		}

  00010	5d		 pop	 ebp
  00011	c2 08 00	 ret	 8
?construct@?$allocator@VioHashString@@@std@@QAEXPAVioHashString@@ABV3@@Z ENDP ; std::allocator<ioHashString>::construct
_TEXT	ENDS
PUBLIC	?InitResource@ioAdhesiveMissileWeapon4@@UAE_NXZ	; ioAdhesiveMissileWeapon4::InitResource
EXTRN	?InitResource@ioWeapon@@UAE_NXZ:PROC		; ioWeapon::InitResource
; Function compile flags: /Ogsp
; File d:\lost saga for developer\youtube\tutorial\source\src\lsclient\ioadhesivemissileweapon4.cpp
;	COMDAT ?InitResource@ioAdhesiveMissileWeapon4@@UAE_NXZ
_TEXT	SEGMENT
?InitResource@ioAdhesiveMissileWeapon4@@UAE_NXZ PROC	; ioAdhesiveMissileWeapon4::InitResource, COMDAT
; _this$ = ecx

; 48   : {

  00000	56		 push	 esi
  00001	8b f1		 mov	 esi, ecx

; 49   : 	if( ioWeapon::InitResource() )

  00003	e8 00 00 00 00	 call	 ?InitResource@ioWeapon@@UAE_NXZ ; ioWeapon::InitResource
  00008	84 c0		 test	 al, al
  0000a	74 20		 je	 SHORT $LN1@InitResour

; 50   : 	{
; 51   : 		DestroyFireBall();

  0000c	8b ce		 mov	 ecx, esi
  0000e	e8 00 00 00 00	 call	 ?DestroyFireBall@ioAdhesiveMissileWeapon4@@IAEXXZ ; ioAdhesiveMissileWeapon4::DestroyFireBall

; 52   : 		return CreateFireBall( GetAttribute()->m_WeaponEffect );

  00013	8b 06		 mov	 eax, DWORD PTR [esi]
  00015	8b ce		 mov	 ecx, esi
  00017	ff 90 3c 01 00
	00		 call	 DWORD PTR [eax+316]
  0001d	05 34 01 00 00	 add	 eax, 308		; 00000134H
  00022	50		 push	 eax
  00023	8b ce		 mov	 ecx, esi
  00025	e8 00 00 00 00	 call	 ?CreateFireBall@ioAdhesiveMissileWeapon4@@IAE_NABVioHashString@@@Z ; ioAdhesiveMissileWeapon4::CreateFireBall
  0002a	5e		 pop	 esi

; 55   : }

  0002b	c3		 ret	 0
$LN1@InitResour:

; 53   : 	}
; 54   : 	return false;

  0002c	32 c0		 xor	 al, al
  0002e	5e		 pop	 esi

; 55   : }

  0002f	c3		 ret	 0
?InitResource@ioAdhesiveMissileWeapon4@@UAE_NXZ ENDP	; ioAdhesiveMissileWeapon4::InitResource
_TEXT	ENDS
PUBLIC	__$ArrayPad$
PUBLIC	?UpdateWorldAttackBox@ioAdhesiveMissileWeapon4@@MAEXM_N@Z ; ioAdhesiveMissileWeapon4::UpdateWorldAttackBox
EXTRN	__imp_?SetNull@ioOrientBox@@QAEXXZ:PROC
EXTRN	__imp_?UNIT_ALL@ioMath@@2UD3DXVECTOR3@@A:BYTE
EXTRN	__imp_?Transform@ioOrientBox@@QAEXABUD3DXVECTOR3@@0ABUD3DXQUATERNION@@@Z:PROC
EXTRN	?GetOrientation@ioWeapon@@QBEABUD3DXQUATERNION@@XZ:PROC ; ioWeapon::GetOrientation
EXTRN	__imp_?IsNull@ioOrientBox@@QBE_NXZ:PROC
EXTRN	__imp_?SetExtents@ioOrientBox@@QAEXHM@Z:PROC
EXTRN	__imp_?GetExtents@ioOrientBox@@QBEMH@Z:PROC
; Function compile flags: /Ogsp
;	COMDAT ?UpdateWorldAttackBox@ioAdhesiveMissileWeapon4@@MAEXM_N@Z
_TEXT	SEGMENT
tv397 = -32						; size = 4
_value$536039 = -32					; size = 4
tv417 = -28						; size = 4
tv399 = -28						; size = 4
_value$536044 = -24					; size = 4
$T536027 = -24						; size = 4
_fMapCollisionRate$ = -24				; size = 4
tv411 = -20						; size = 4
tv405 = -20						; size = 4
_value$536049 = -20					; size = 4
_value$536035 = -20					; size = 4
_vScale$532766 = -16					; size = 12
__$ArrayPad$ = -4					; size = 4
_fTimePerSec$ = 8					; size = 4
_bSetNull$ = 12						; size = 1
?UpdateWorldAttackBox@ioAdhesiveMissileWeapon4@@MAEXM_N@Z PROC ; ioAdhesiveMissileWeapon4::UpdateWorldAttackBox, COMDAT
; _this$ = ecx

; 455  : {

  00000	55		 push	 ebp
  00001	8b ec		 mov	 ebp, esp
  00003	83 ec 20	 sub	 esp, 32			; 00000020H
  00006	a1 00 00 00 00	 mov	 eax, DWORD PTR ___security_cookie
  0000b	33 c5		 xor	 eax, ebp
  0000d	89 45 fc	 mov	 DWORD PTR __$ArrayPad$[ebp], eax
  00010	53		 push	 ebx
  00011	8b d9		 mov	 ebx, ecx

; 456  : 	if( !IsLive() || bSetNull )

  00013	80 bb 82 05 00
	00 00		 cmp	 BYTE PTR [ebx+1410], 0
  0001a	56		 push	 esi
  0001b	57		 push	 edi
  0001c	0f 84 b7 01 00
	00		 je	 $LN4@UpdateWorl
  00022	80 7d 0c 00	 cmp	 BYTE PTR _bSetNull$[ebp], 0
  00026	0f 85 ad 01 00
	00		 jne	 $LN4@UpdateWorl

; 460  : 		return;
; 461  : 	}
; 462  : 
; 463  : 	m_WorldAttackBox = GetLocalAttackBox();

  0002c	8b 03		 mov	 eax, DWORD PTR [ebx]
  0002e	ff 90 00 01 00
	00		 call	 DWORD PTR [eax+256]
  00034	6a 11		 push	 17			; 00000011H
  00036	59		 pop	 ecx
  00037	8b f0		 mov	 esi, eax
  00039	8d bb e8 04 00
	00		 lea	 edi, DWORD PTR [ebx+1256]
  0003f	f3 a5		 rep movsd

; 464  : 	m_WorldAttackBoxForMap = m_WorldAttackBox;

  00041	6a 11		 push	 17			; 00000011H
  00043	8b f0		 mov	 esi, eax

; 465  : 
; 466  : 	float fMapCollisionRate = GetAttribute()->m_fMapCollisionBoxRate;

  00045	8b 03		 mov	 eax, DWORD PTR [ebx]
  00047	59		 pop	 ecx
  00048	8d bb 2c 05 00
	00		 lea	 edi, DWORD PTR [ebx+1324]
  0004e	f3 a5		 rep movsd
  00050	8b cb		 mov	 ecx, ebx
  00052	ff 90 3c 01 00
	00		 call	 DWORD PTR [eax+316]

; 467  : 
; 468  : 	m_WorldAttackBoxForMap.SetExtents( 0, m_WorldAttackBox.GetExtents(0)*fMapCollisionRate );

  00058	6a 00		 push	 0
  0005a	d9 80 a8 01 00
	00		 fld	 DWORD PTR [eax+424]
  00060	8d 8b e8 04 00
	00		 lea	 ecx, DWORD PTR [ebx+1256]
  00066	d9 5d e8	 fstp	 DWORD PTR _fMapCollisionRate$[ebp]
  00069	ff 15 00 00 00
	00		 call	 DWORD PTR __imp_?GetExtents@ioOrientBox@@QBEMH@Z
  0006f	d8 4d e8	 fmul	 DWORD PTR _fMapCollisionRate$[ebp]
  00072	8b 35 00 00 00
	00		 mov	 esi, DWORD PTR __imp_?SetExtents@ioOrientBox@@QAEXHM@Z
  00078	51		 push	 ecx
  00079	8d 8b 2c 05 00
	00		 lea	 ecx, DWORD PTR [ebx+1324]
  0007f	d9 5d e4	 fstp	 DWORD PTR tv417[ebp]
  00082	d9 45 e4	 fld	 DWORD PTR tv417[ebp]
  00085	89 4d e4	 mov	 DWORD PTR tv399[ebp], ecx
  00088	d9 1c 24	 fstp	 DWORD PTR [esp]
  0008b	6a 00		 push	 0
  0008d	ff d6		 call	 esi

; 469  : 	m_WorldAttackBoxForMap.SetExtents( 1, m_WorldAttackBox.GetExtents(1)*fMapCollisionRate );

  0008f	6a 01		 push	 1
  00091	8d 8b e8 04 00
	00		 lea	 ecx, DWORD PTR [ebx+1256]
  00097	ff 15 00 00 00
	00		 call	 DWORD PTR __imp_?GetExtents@ioOrientBox@@QBEMH@Z
  0009d	d8 4d e8	 fmul	 DWORD PTR _fMapCollisionRate$[ebp]
  000a0	51		 push	 ecx
  000a1	8b 4d e4	 mov	 ecx, DWORD PTR tv399[ebp]
  000a4	d9 5d ec	 fstp	 DWORD PTR tv411[ebp]
  000a7	d9 45 ec	 fld	 DWORD PTR tv411[ebp]
  000aa	d9 1c 24	 fstp	 DWORD PTR [esp]
  000ad	6a 01		 push	 1
  000af	ff d6		 call	 esi

; 470  : 	m_WorldAttackBoxForMap.SetExtents( 2, m_WorldAttackBox.GetExtents(2)*fMapCollisionRate );

  000b1	6a 02		 push	 2
  000b3	8d 8b e8 04 00
	00		 lea	 ecx, DWORD PTR [ebx+1256]
  000b9	ff 15 00 00 00
	00		 call	 DWORD PTR __imp_?GetExtents@ioOrientBox@@QBEMH@Z
  000bf	d8 4d e8	 fmul	 DWORD PTR _fMapCollisionRate$[ebp]
  000c2	51		 push	 ecx
  000c3	8b 4d e4	 mov	 ecx, DWORD PTR tv399[ebp]
  000c6	d9 5d ec	 fstp	 DWORD PTR tv405[ebp]
  000c9	d9 45 ec	 fld	 DWORD PTR tv405[ebp]
  000cc	d9 1c 24	 fstp	 DWORD PTR [esp]
  000cf	6a 02		 push	 2
  000d1	ff d6		 call	 esi

; 471  : 
; 472  : 	if( !m_WorldAttackBox.IsNull() )

  000d3	8d 8b e8 04 00
	00		 lea	 ecx, DWORD PTR [ebx+1256]
  000d9	ff 15 00 00 00
	00		 call	 DWORD PTR __imp_?IsNull@ioOrientBox@@QBE_NXZ
  000df	84 c0		 test	 al, al
  000e1	0f 85 08 01 00
	00		 jne	 $LN1@UpdateWorl

; 473  : 	{
; 474  : 		if( m_fOwnerChargeScaleRate > FLOAT1 )

  000e7	b8 01 00 00 00	 mov	 eax, 1
  000ec	89 45 e8	 mov	 DWORD PTR $T536027[ebp], eax
  000ef	8d 45 ec	 lea	 eax, DWORD PTR _value$536035[ebp]
  000f2	50		 push	 eax
  000f3	8d 8b b0 01 00
	00		 lea	 ecx, DWORD PTR [ebx+432]
  000f9	e8 00 00 00 00	 call	 ?DecryptValueToPool@?$CEncrypt@M@@QAEXPAM@Z ; CEncrypt<float>::DecryptValueToPool
  000fe	d9 45 ec	 fld	 DWORD PTR _value$536035[ebp]
  00101	8b 45 e8	 mov	 eax, DWORD PTR $T536027[ebp]
  00104	db 45 e8	 fild	 DWORD PTR $T536027[ebp]
  00107	85 c0		 test	 eax, eax
  00109	79 06		 jns	 SHORT $LN25@UpdateWorl
  0010b	d8 05 00 00 00
	00		 fadd	 DWORD PTR __real@4f800000
$LN25@UpdateWorl:
  00111	d9 c9		 fxch	 ST(1)
  00113	df f1		 fcomip	 ST(1)
  00115	dd d8		 fstp	 ST(0)
  00117	0f 86 88 00 00
	00		 jbe	 $LN2@UpdateWorl

; 475  : 		{
; 476  : 			D3DXVECTOR3 vScale( m_fOwnerChargeScaleRate, m_fOwnerChargeScaleRate, m_fOwnerChargeScaleRate );

  0011d	8d 45 e0	 lea	 eax, DWORD PTR _value$536039[ebp]
  00120	50		 push	 eax
  00121	8d 8b b0 01 00
	00		 lea	 ecx, DWORD PTR [ebx+432]
  00127	e8 00 00 00 00	 call	 ?DecryptValueToPool@?$CEncrypt@M@@QAEXPAM@Z ; CEncrypt<float>::DecryptValueToPool
  0012c	8d 45 e8	 lea	 eax, DWORD PTR _value$536044[ebp]
  0012f	50		 push	 eax
  00130	8d 8b b0 01 00
	00		 lea	 ecx, DWORD PTR [ebx+432]
  00136	e8 00 00 00 00	 call	 ?DecryptValueToPool@?$CEncrypt@M@@QAEXPAM@Z ; CEncrypt<float>::DecryptValueToPool
  0013b	8d 45 ec	 lea	 eax, DWORD PTR _value$536049[ebp]
  0013e	50		 push	 eax
  0013f	8d 8b b0 01 00
	00		 lea	 ecx, DWORD PTR [ebx+432]
  00145	e8 00 00 00 00	 call	 ?DecryptValueToPool@?$CEncrypt@M@@QAEXPAM@Z ; CEncrypt<float>::DecryptValueToPool
  0014a	f3 0f 10 45 ec	 movss	 xmm0, DWORD PTR _value$536049[ebp]
  0014f	f3 0f 11 45 f0	 movss	 DWORD PTR _vScale$532766[ebp], xmm0
  00154	f3 0f 10 45 e8	 movss	 xmm0, DWORD PTR _value$536044[ebp]
  00159	f3 0f 11 45 f4	 movss	 DWORD PTR _vScale$532766[ebp+4], xmm0
  0015e	f3 0f 10 45 e0	 movss	 xmm0, DWORD PTR _value$536039[ebp]

; 477  : 			m_WorldAttackBox.Transform( GetPosition(), vScale, GetOrientation() );

  00163	8b cb		 mov	 ecx, ebx
  00165	f3 0f 11 45 f8	 movss	 DWORD PTR _vScale$532766[ebp+8], xmm0
  0016a	e8 00 00 00 00	 call	 ?GetOrientation@ioWeapon@@QBEABUD3DXQUATERNION@@XZ ; ioWeapon::GetOrientation
  0016f	50		 push	 eax
  00170	8d 45 f0	 lea	 eax, DWORD PTR _vScale$532766[ebp]
  00173	50		 push	 eax
  00174	8b 03		 mov	 eax, DWORD PTR [ebx]
  00176	8b cb		 mov	 ecx, ebx
  00178	ff 50 70	 call	 DWORD PTR [eax+112]
  0017b	8b 35 00 00 00
	00		 mov	 esi, DWORD PTR __imp_?Transform@ioOrientBox@@QAEXABUD3DXVECTOR3@@0ABUD3DXQUATERNION@@@Z
  00181	50		 push	 eax
  00182	8d 8b e8 04 00
	00		 lea	 ecx, DWORD PTR [ebx+1256]
  00188	ff d6		 call	 esi

; 478  : 			m_WorldAttackBoxForMap.Transform( GetPosition(), vScale, GetOrientation() );

  0018a	8b cb		 mov	 ecx, ebx
  0018c	e8 00 00 00 00	 call	 ?GetOrientation@ioWeapon@@QBEABUD3DXQUATERNION@@XZ ; ioWeapon::GetOrientation
  00191	50		 push	 eax
  00192	8d 45 f0	 lea	 eax, DWORD PTR _vScale$532766[ebp]
  00195	50		 push	 eax
$LN26@UpdateWorl:
  00196	8b 03		 mov	 eax, DWORD PTR [ebx]
  00198	8b cb		 mov	 ecx, ebx
  0019a	ff 50 70	 call	 DWORD PTR [eax+112]
  0019d	8b 4d e4	 mov	 ecx, DWORD PTR tv399[ebp]
  001a0	50		 push	 eax
  001a1	ff d6		 call	 esi

; 479  : 		}
; 480  : 		else

  001a3	eb 4a		 jmp	 SHORT $LN1@UpdateWorl
$LN2@UpdateWorl:

; 481  : 		{
; 482  : 			m_WorldAttackBox.Transform( GetPosition(), ioMath::UNIT_ALL, GetOrientation() );			

  001a5	8b cb		 mov	 ecx, ebx
  001a7	e8 00 00 00 00	 call	 ?GetOrientation@ioWeapon@@QBEABUD3DXQUATERNION@@XZ ; ioWeapon::GetOrientation
  001ac	50		 push	 eax
  001ad	ff 35 00 00 00
	00		 push	 DWORD PTR __imp_?UNIT_ALL@ioMath@@2UD3DXVECTOR3@@A
  001b3	8b 03		 mov	 eax, DWORD PTR [ebx]
  001b5	8b cb		 mov	 ecx, ebx
  001b7	ff 50 70	 call	 DWORD PTR [eax+112]
  001ba	8b 35 00 00 00
	00		 mov	 esi, DWORD PTR __imp_?Transform@ioOrientBox@@QAEXABUD3DXVECTOR3@@0ABUD3DXQUATERNION@@@Z
  001c0	50		 push	 eax
  001c1	8d 8b e8 04 00
	00		 lea	 ecx, DWORD PTR [ebx+1256]
  001c7	ff d6		 call	 esi

; 483  : 			m_WorldAttackBoxForMap.Transform( GetPosition(), ioMath::UNIT_ALL, GetOrientation() );

  001c9	8b cb		 mov	 ecx, ebx
  001cb	e8 00 00 00 00	 call	 ?GetOrientation@ioWeapon@@QBEABUD3DXQUATERNION@@XZ ; ioWeapon::GetOrientation
  001d0	50		 push	 eax
  001d1	ff 35 00 00 00
	00		 push	 DWORD PTR __imp_?UNIT_ALL@ioMath@@2UD3DXVECTOR3@@A
  001d7	eb bd		 jmp	 SHORT $LN26@UpdateWorl
$LN4@UpdateWorl:

; 457  : 	{
; 458  : 		m_WorldAttackBox.SetNull();

  001d9	8b 35 00 00 00
	00		 mov	 esi, DWORD PTR __imp_?SetNull@ioOrientBox@@QAEXXZ
  001df	8d 8b e8 04 00
	00		 lea	 ecx, DWORD PTR [ebx+1256]
  001e5	ff d6		 call	 esi

; 459  : 		m_WorldAttackBoxForMap.SetNull();

  001e7	8d 8b 2c 05 00
	00		 lea	 ecx, DWORD PTR [ebx+1324]
  001ed	ff d6		 call	 esi
$LN1@UpdateWorl:

; 484  : 		}
; 485  : 	}
; 486  : }

  001ef	8b 4d fc	 mov	 ecx, DWORD PTR __$ArrayPad$[ebp]
  001f2	5f		 pop	 edi
  001f3	5e		 pop	 esi
  001f4	33 cd		 xor	 ecx, ebp
  001f6	5b		 pop	 ebx
  001f7	e8 00 00 00 00	 call	 @__security_check_cookie@4
  001fc	c9		 leave
  001fd	c2 08 00	 ret	 8
?UpdateWorldAttackBox@ioAdhesiveMissileWeapon4@@MAEXM_N@Z ENDP ; ioAdhesiveMissileWeapon4::UpdateWorldAttackBox
_TEXT	ENDS
PUBLIC	??0?$vector@UTargetInfo@ioAdhesiveMissileWeapon4@@V?$allocator@UTargetInfo@ioAdhesiveMissileWeapon4@@@std@@@std@@QAE@XZ ; std::vector<ioAdhesiveMissileWeapon4::TargetInfo,std::allocator<ioAdhesiveMissileWeapon4::TargetInfo> >::vector<ioAdhesiveMissileWeapon4::TargetInfo,std::allocator<ioAdhesiveMissileWeapon4::TargetInfo> >
; Function compile flags: /Ogsp
; File c:\program files (x86)\microsoft visual studio 10.0\vc\include\vector
;	COMDAT ??0?$vector@UTargetInfo@ioAdhesiveMissileWeapon4@@V?$allocator@UTargetInfo@ioAdhesiveMissileWeapon4@@@std@@@std@@QAE@XZ
_TEXT	SEGMENT
??0?$vector@UTargetInfo@ioAdhesiveMissileWeapon4@@V?$allocator@UTargetInfo@ioAdhesiveMissileWeapon4@@@std@@@std@@QAE@XZ PROC ; std::vector<ioAdhesiveMissileWeapon4::TargetInfo,std::allocator<ioAdhesiveMissileWeapon4::TargetInfo> >::vector<ioAdhesiveMissileWeapon4::TargetInfo,std::allocator<ioAdhesiveMissileWeapon4::TargetInfo> >, COMDAT
; _this$ = ecx

; 507  : 		{	// construct empty vector

  00000	8b c1		 mov	 eax, ecx
  00002	33 c9		 xor	 ecx, ecx
  00004	89 08		 mov	 DWORD PTR [eax], ecx
  00006	89 48 04	 mov	 DWORD PTR [eax+4], ecx
  00009	89 48 08	 mov	 DWORD PTR [eax+8], ecx

; 508  : 		}

  0000c	c3		 ret	 0
??0?$vector@UTargetInfo@ioAdhesiveMissileWeapon4@@V?$allocator@UTargetInfo@ioAdhesiveMissileWeapon4@@@std@@@std@@QAE@XZ ENDP ; std::vector<ioAdhesiveMissileWeapon4::TargetInfo,std::allocator<ioAdhesiveMissileWeapon4::TargetInfo> >::vector<ioAdhesiveMissileWeapon4::TargetInfo,std::allocator<ioAdhesiveMissileWeapon4::TargetInfo> >
_TEXT	ENDS
PUBLIC	?begin@?$vector@UTargetInfo@ioAdhesiveMissileWeapon4@@V?$allocator@UTargetInfo@ioAdhesiveMissileWeapon4@@@std@@@std@@QAE?AV?$_Vector_iterator@V?$_Vector_val@UTargetInfo@ioAdhesiveMissileWeapon4@@V?$allocator@UTargetInfo@ioAdhesiveMissileWeapon4@@@std@@@std@@@2@XZ ; std::vector<ioAdhesiveMissileWeapon4::TargetInfo,std::allocator<ioAdhesiveMissileWeapon4::TargetInfo> >::begin
; Function compile flags: /Ogsp
;	COMDAT ?begin@?$vector@UTargetInfo@ioAdhesiveMissileWeapon4@@V?$allocator@UTargetInfo@ioAdhesiveMissileWeapon4@@@std@@@std@@QAE?AV?$_Vector_iterator@V?$_Vector_val@UTargetInfo@ioAdhesiveMissileWeapon4@@V?$allocator@UTargetInfo@ioAdhesiveMissileWeapon4@@@std@@@std@@@2@XZ
_TEXT	SEGMENT
___$ReturnUdt$ = 8					; size = 4
?begin@?$vector@UTargetInfo@ioAdhesiveMissileWeapon4@@V?$allocator@UTargetInfo@ioAdhesiveMissileWeapon4@@@std@@@std@@QAE?AV?$_Vector_iterator@V?$_Vector_val@UTargetInfo@ioAdhesiveMissileWeapon4@@V?$allocator@UTargetInfo@ioAdhesiveMissileWeapon4@@@std@@@std@@@2@XZ PROC ; std::vector<ioAdhesiveMissileWeapon4::TargetInfo,std::allocator<ioAdhesiveMissileWeapon4::TargetInfo> >::begin, COMDAT
; _this$ = ecx

; 781  : 		{	// return iterator for beginning of mutable sequence

  00000	55		 push	 ebp
  00001	8b ec		 mov	 ebp, esp

; 782  : 		return (iterator(this->_Myfirst, this));

  00003	8b 09		 mov	 ecx, DWORD PTR [ecx]
  00005	8b 45 08	 mov	 eax, DWORD PTR ___$ReturnUdt$[ebp]
  00008	89 08		 mov	 DWORD PTR [eax], ecx

; 783  : 		}

  0000a	5d		 pop	 ebp
  0000b	c2 04 00	 ret	 4
?begin@?$vector@UTargetInfo@ioAdhesiveMissileWeapon4@@V?$allocator@UTargetInfo@ioAdhesiveMissileWeapon4@@@std@@@std@@QAE?AV?$_Vector_iterator@V?$_Vector_val@UTargetInfo@ioAdhesiveMissileWeapon4@@V?$allocator@UTargetInfo@ioAdhesiveMissileWeapon4@@@std@@@std@@@2@XZ ENDP ; std::vector<ioAdhesiveMissileWeapon4::TargetInfo,std::allocator<ioAdhesiveMissileWeapon4::TargetInfo> >::begin
_TEXT	ENDS
PUBLIC	?end@?$vector@UTargetInfo@ioAdhesiveMissileWeapon4@@V?$allocator@UTargetInfo@ioAdhesiveMissileWeapon4@@@std@@@std@@QAE?AV?$_Vector_iterator@V?$_Vector_val@UTargetInfo@ioAdhesiveMissileWeapon4@@V?$allocator@UTargetInfo@ioAdhesiveMissileWeapon4@@@std@@@std@@@2@XZ ; std::vector<ioAdhesiveMissileWeapon4::TargetInfo,std::allocator<ioAdhesiveMissileWeapon4::TargetInfo> >::end
; Function compile flags: /Ogsp
;	COMDAT ?end@?$vector@UTargetInfo@ioAdhesiveMissileWeapon4@@V?$allocator@UTargetInfo@ioAdhesiveMissileWeapon4@@@std@@@std@@QAE?AV?$_Vector_iterator@V?$_Vector_val@UTargetInfo@ioAdhesiveMissileWeapon4@@V?$allocator@UTargetInfo@ioAdhesiveMissileWeapon4@@@std@@@std@@@2@XZ
_TEXT	SEGMENT
___$ReturnUdt$ = 8					; size = 4
?end@?$vector@UTargetInfo@ioAdhesiveMissileWeapon4@@V?$allocator@UTargetInfo@ioAdhesiveMissileWeapon4@@@std@@@std@@QAE?AV?$_Vector_iterator@V?$_Vector_val@UTargetInfo@ioAdhesiveMissileWeapon4@@V?$allocator@UTargetInfo@ioAdhesiveMissileWeapon4@@@std@@@std@@@2@XZ PROC ; std::vector<ioAdhesiveMissileWeapon4::TargetInfo,std::allocator<ioAdhesiveMissileWeapon4::TargetInfo> >::end, COMDAT
; _this$ = ecx

; 791  : 		{	// return iterator for end of mutable sequence

  00000	55		 push	 ebp
  00001	8b ec		 mov	 ebp, esp

; 792  : 		return (iterator(this->_Mylast, this));

  00003	8b 49 04	 mov	 ecx, DWORD PTR [ecx+4]
  00006	8b 45 08	 mov	 eax, DWORD PTR ___$ReturnUdt$[ebp]
  00009	89 08		 mov	 DWORD PTR [eax], ecx

; 793  : 		}

  0000b	5d		 pop	 ebp
  0000c	c2 04 00	 ret	 4
?end@?$vector@UTargetInfo@ioAdhesiveMissileWeapon4@@V?$allocator@UTargetInfo@ioAdhesiveMissileWeapon4@@@std@@@std@@QAE?AV?$_Vector_iterator@V?$_Vector_val@UTargetInfo@ioAdhesiveMissileWeapon4@@V?$allocator@UTargetInfo@ioAdhesiveMissileWeapon4@@@std@@@std@@@2@XZ ENDP ; std::vector<ioAdhesiveMissileWeapon4::TargetInfo,std::allocator<ioAdhesiveMissileWeapon4::TargetInfo> >::end
_TEXT	ENDS
PUBLIC	??9?$_Vector_const_iterator@V?$_Vector_val@UTargetInfo@ioAdhesiveMissileWeapon4@@V?$allocator@UTargetInfo@ioAdhesiveMissileWeapon4@@@std@@@std@@@std@@QBE_NABV01@@Z ; std::_Vector_const_iterator<std::_Vector_val<ioAdhesiveMissileWeapon4::TargetInfo,std::allocator<ioAdhesiveMissileWeapon4::TargetInfo> > >::operator!=
; Function compile flags: /Ogsp
;	COMDAT ??9?$_Vector_const_iterator@V?$_Vector_val@UTargetInfo@ioAdhesiveMissileWeapon4@@V?$allocator@UTargetInfo@ioAdhesiveMissileWeapon4@@@std@@@std@@@std@@QBE_NABV01@@Z
_TEXT	SEGMENT
__Right$ = 8						; size = 4
??9?$_Vector_const_iterator@V?$_Vector_val@UTargetInfo@ioAdhesiveMissileWeapon4@@V?$allocator@UTargetInfo@ioAdhesiveMissileWeapon4@@@std@@@std@@@std@@QBE_NABV01@@Z PROC ; std::_Vector_const_iterator<std::_Vector_val<ioAdhesiveMissileWeapon4::TargetInfo,std::allocator<ioAdhesiveMissileWeapon4::TargetInfo> > >::operator!=, COMDAT
; _this$ = ecx

; 207  : 		{	// test for iterator inequality

  00000	55		 push	 ebp
  00001	8b ec		 mov	 ebp, esp

; 208  : 		return (!(*this == _Right));

  00003	8b 01		 mov	 eax, DWORD PTR [ecx]
  00005	8b 55 08	 mov	 edx, DWORD PTR __Right$[ebp]
  00008	33 c9		 xor	 ecx, ecx
  0000a	3b 02		 cmp	 eax, DWORD PTR [edx]
  0000c	0f 95 c0	 setne	 al

; 209  : 		}

  0000f	5d		 pop	 ebp
  00010	c2 04 00	 ret	 4
??9?$_Vector_const_iterator@V?$_Vector_val@UTargetInfo@ioAdhesiveMissileWeapon4@@V?$allocator@UTargetInfo@ioAdhesiveMissileWeapon4@@@std@@@std@@@std@@QBE_NABV01@@Z ENDP ; std::_Vector_const_iterator<std::_Vector_val<ioAdhesiveMissileWeapon4::TargetInfo,std::allocator<ioAdhesiveMissileWeapon4::TargetInfo> > >::operator!=
_TEXT	ENDS
PUBLIC	?_Make_iter@?$vector@UTargetInfo@ioAdhesiveMissileWeapon4@@V?$allocator@UTargetInfo@ioAdhesiveMissileWeapon4@@@std@@@std@@QBE?AV?$_Vector_iterator@V?$_Vector_val@UTargetInfo@ioAdhesiveMissileWeapon4@@V?$allocator@UTargetInfo@ioAdhesiveMissileWeapon4@@@std@@@std@@@2@V?$_Vector_const_iterator@V?$_Vector_val@UTargetInfo@ioAdhesiveMissileWeapon4@@V?$allocator@UTargetInfo@ioAdhesiveMissileWeapon4@@@std@@@std@@@2@@Z ; std::vector<ioAdhesiveMissileWeapon4::TargetInfo,std::allocator<ioAdhesiveMissileWeapon4::TargetInfo> >::_Make_iter
; Function compile flags: /Ogsp
;	COMDAT ?_Make_iter@?$vector@UTargetInfo@ioAdhesiveMissileWeapon4@@V?$allocator@UTargetInfo@ioAdhesiveMissileWeapon4@@@std@@@std@@QBE?AV?$_Vector_iterator@V?$_Vector_val@UTargetInfo@ioAdhesiveMissileWeapon4@@V?$allocator@UTargetInfo@ioAdhesiveMissileWeapon4@@@std@@@std@@@2@V?$_Vector_const_iterator@V?$_Vector_val@UTargetInfo@ioAdhesiveMissileWeapon4@@V?$allocator@UTargetInfo@ioAdhesiveMissileWeapon4@@@std@@@std@@@2@@Z
_TEXT	SEGMENT
___$ReturnUdt$ = 8					; size = 4
__Where$ = 12						; size = 4
?_Make_iter@?$vector@UTargetInfo@ioAdhesiveMissileWeapon4@@V?$allocator@UTargetInfo@ioAdhesiveMissileWeapon4@@@std@@@std@@QBE?AV?$_Vector_iterator@V?$_Vector_val@UTargetInfo@ioAdhesiveMissileWeapon4@@V?$allocator@UTargetInfo@ioAdhesiveMissileWeapon4@@@std@@@std@@@2@V?$_Vector_const_iterator@V?$_Vector_val@UTargetInfo@ioAdhesiveMissileWeapon4@@V?$allocator@UTargetInfo@ioAdhesiveMissileWeapon4@@@std@@@std@@@2@@Z PROC ; std::vector<ioAdhesiveMissileWeapon4::TargetInfo,std::allocator<ioAdhesiveMissileWeapon4::TargetInfo> >::_Make_iter, COMDAT
; _this$ = ecx

; 801  : 		{	// make iterator from const_iterator

  00000	55		 push	 ebp
  00001	8b ec		 mov	 ebp, esp

; 802  : 		return (iterator(_Where._Ptr, this));

  00003	8b 45 08	 mov	 eax, DWORD PTR ___$ReturnUdt$[ebp]
  00006	8b 4d 0c	 mov	 ecx, DWORD PTR __Where$[ebp]
  00009	89 08		 mov	 DWORD PTR [eax], ecx

; 803  : 		}

  0000b	5d		 pop	 ebp
  0000c	c2 08 00	 ret	 8
?_Make_iter@?$vector@UTargetInfo@ioAdhesiveMissileWeapon4@@V?$allocator@UTargetInfo@ioAdhesiveMissileWeapon4@@@std@@@std@@QBE?AV?$_Vector_iterator@V?$_Vector_val@UTargetInfo@ioAdhesiveMissileWeapon4@@V?$allocator@UTargetInfo@ioAdhesiveMissileWeapon4@@@std@@@std@@@2@V?$_Vector_const_iterator@V?$_Vector_val@UTargetInfo@ioAdhesiveMissileWeapon4@@V?$allocator@UTargetInfo@ioAdhesiveMissileWeapon4@@@std@@@std@@@2@@Z ENDP ; std::vector<ioAdhesiveMissileWeapon4::TargetInfo,std::allocator<ioAdhesiveMissileWeapon4::TargetInfo> >::_Make_iter
_TEXT	ENDS
PUBLIC	?_Grow_to@?$vector@VioHashString@@V?$allocator@VioHashString@@@std@@@std@@IBEII@Z ; std::vector<ioHashString,std::allocator<ioHashString> >::_Grow_to
; Function compile flags: /Ogsp
;	COMDAT ?_Grow_to@?$vector@VioHashString@@V?$allocator@VioHashString@@@std@@@std@@IBEII@Z
_TEXT	SEGMENT
__Count$ = 8						; size = 4
?_Grow_to@?$vector@VioHashString@@V?$allocator@VioHashString@@@std@@@std@@IBEII@Z PROC ; std::vector<ioHashString,std::allocator<ioHashString> >::_Grow_to, COMDAT
; _this$ = ecx

; 1274 : 		{	// grow by 50% or at least to _Count

  00000	55		 push	 ebp
  00001	8b ec		 mov	 ebp, esp

; 1275 : 		size_type _Capacity = capacity();

  00003	8b 41 08	 mov	 eax, DWORD PTR [ecx+8]
  00006	2b 01		 sub	 eax, DWORD PTR [ecx]

; 1276 : 
; 1277 : 		_Capacity = max_size() - _Capacity / 2 < _Capacity
; 1278 : 			? 0 : _Capacity + _Capacity / 2;	// try to grow by 50%

  00008	ba ff ff ff 0f	 mov	 edx, 268435455		; 0fffffffH
  0000d	c1 f8 04	 sar	 eax, 4
  00010	8b c8		 mov	 ecx, eax
  00012	d1 e9		 shr	 ecx, 1
  00014	2b d1		 sub	 edx, ecx
  00016	3b d0		 cmp	 edx, eax
  00018	73 04		 jae	 SHORT $LN4@Grow_to@2
  0001a	33 c0		 xor	 eax, eax
  0001c	eb 02		 jmp	 SHORT $LN5@Grow_to@2
$LN4@Grow_to@2:
  0001e	03 c1		 add	 eax, ecx
$LN5@Grow_to@2:

; 1279 : 		if (_Capacity < _Count)

  00020	3b 45 08	 cmp	 eax, DWORD PTR __Count$[ebp]

; 1280 : 			_Capacity = _Count;

  00023	0f 42 45 08	 cmovb	 eax, DWORD PTR __Count$[ebp]

; 1281 : 		return (_Capacity);
; 1282 : 		}

  00027	5d		 pop	 ebp
  00028	c2 04 00	 ret	 4
?_Grow_to@?$vector@VioHashString@@V?$allocator@VioHashString@@@std@@@std@@IBEII@Z ENDP ; std::vector<ioHashString,std::allocator<ioHashString> >::_Grow_to
_TEXT	ENDS
PUBLIC	??$_Cons_val@V?$allocator@VioHashString@@@std@@VioHashString@@AAV3@@std@@YAXAAV?$allocator@VioHashString@@@0@PAVioHashString@@AAV2@@Z ; std::_Cons_val<std::allocator<ioHashString>,ioHashString,ioHashString &>
; Function compile flags: /Ogsp
; File c:\program files (x86)\microsoft visual studio 10.0\vc\include\xmemory
;	COMDAT ??$_Cons_val@V?$allocator@VioHashString@@@std@@VioHashString@@AAV3@@std@@YAXAAV?$allocator@VioHashString@@@0@PAVioHashString@@AAV2@@Z
_TEXT	SEGMENT
__Alval$ = 8						; size = 4
__Pdest$ = 12						; size = 4
__Src$ = 16						; size = 4
??$_Cons_val@V?$allocator@VioHashString@@@std@@VioHashString@@AAV3@@std@@YAXAAV?$allocator@VioHashString@@@0@PAVioHashString@@AAV2@@Z PROC ; std::_Cons_val<std::allocator<ioHashString>,ioHashString,ioHashString &>, COMDAT

; 279  : 	{	// construct using allocator

  00000	55		 push	 ebp
  00001	8b ec		 mov	 ebp, esp

; 280  : 	_Alval.construct(_Pdest, _STD forward<_Ty2>(_Src));

  00003	ff 75 10	 push	 DWORD PTR __Src$[ebp]
  00006	8b 4d 08	 mov	 ecx, DWORD PTR __Alval$[ebp]
  00009	ff 75 0c	 push	 DWORD PTR __Pdest$[ebp]
  0000c	e8 00 00 00 00	 call	 ??$construct@AAVioHashString@@@?$allocator@VioHashString@@@std@@QAEXPAVioHashString@@AAV2@@Z ; std::allocator<ioHashString>::construct<ioHashString &>

; 281  : 	}

  00011	5d		 pop	 ebp
  00012	c3		 ret	 0
??$_Cons_val@V?$allocator@VioHashString@@@std@@VioHashString@@AAV3@@std@@YAXAAV?$allocator@VioHashString@@@0@PAVioHashString@@AAV2@@Z ENDP ; std::_Cons_val<std::allocator<ioHashString>,ioHashString,ioHashString &>
_TEXT	ENDS
PUBLIC	??$_Cons_val@V?$allocator@UTargetInfo@ioAdhesiveMissileWeapon4@@@std@@UTargetInfo@ioAdhesiveMissileWeapon4@@ABU34@@std@@YAXAAV?$allocator@UTargetInfo@ioAdhesiveMissileWeapon4@@@0@PAUTargetInfo@ioAdhesiveMissileWeapon4@@ABU23@@Z ; std::_Cons_val<std::allocator<ioAdhesiveMissileWeapon4::TargetInfo>,ioAdhesiveMissileWeapon4::TargetInfo,ioAdhesiveMissileWeapon4::TargetInfo const &>
; Function compile flags: /Ogsp
;	COMDAT ??$_Cons_val@V?$allocator@UTargetInfo@ioAdhesiveMissileWeapon4@@@std@@UTargetInfo@ioAdhesiveMissileWeapon4@@ABU34@@std@@YAXAAV?$allocator@UTargetInfo@ioAdhesiveMissileWeapon4@@@0@PAUTargetInfo@ioAdhesiveMissileWeapon4@@ABU23@@Z
_TEXT	SEGMENT
__Alval$ = 8						; size = 4
__Pdest$ = 12						; size = 4
__Src$ = 16						; size = 4
??$_Cons_val@V?$allocator@UTargetInfo@ioAdhesiveMissileWeapon4@@@std@@UTargetInfo@ioAdhesiveMissileWeapon4@@ABU34@@std@@YAXAAV?$allocator@UTargetInfo@ioAdhesiveMissileWeapon4@@@0@PAUTargetInfo@ioAdhesiveMissileWeapon4@@ABU23@@Z PROC ; std::_Cons_val<std::allocator<ioAdhesiveMissileWeapon4::TargetInfo>,ioAdhesiveMissileWeapon4::TargetInfo,ioAdhesiveMissileWeapon4::TargetInfo const &>, COMDAT

; 279  : 	{	// construct using allocator

  00000	55		 push	 ebp
  00001	8b ec		 mov	 ebp, esp

; 280  : 	_Alval.construct(_Pdest, _STD forward<_Ty2>(_Src));

  00003	ff 75 10	 push	 DWORD PTR __Src$[ebp]
  00006	ff 75 0c	 push	 DWORD PTR __Pdest$[ebp]
  00009	e8 00 00 00 00	 call	 ??$_Construct@UTargetInfo@ioAdhesiveMissileWeapon4@@ABU12@@std@@YAXPAUTargetInfo@ioAdhesiveMissileWeapon4@@ABU12@@Z ; std::_Construct<ioAdhesiveMissileWeapon4::TargetInfo,ioAdhesiveMissileWeapon4::TargetInfo const &>
  0000e	59		 pop	 ecx
  0000f	59		 pop	 ecx

; 281  : 	}

  00010	5d		 pop	 ebp
  00011	c3		 ret	 0
??$_Cons_val@V?$allocator@UTargetInfo@ioAdhesiveMissileWeapon4@@@std@@UTargetInfo@ioAdhesiveMissileWeapon4@@ABU34@@std@@YAXAAV?$allocator@UTargetInfo@ioAdhesiveMissileWeapon4@@@0@PAUTargetInfo@ioAdhesiveMissileWeapon4@@ABU23@@Z ENDP ; std::_Cons_val<std::allocator<ioAdhesiveMissileWeapon4::TargetInfo>,ioAdhesiveMissileWeapon4::TargetInfo,ioAdhesiveMissileWeapon4::TargetInfo const &>
_TEXT	ENDS
PUBLIC	??$_Move@PAUTargetInfo@ioAdhesiveMissileWeapon4@@PAU12@@std@@YAPAUTargetInfo@ioAdhesiveMissileWeapon4@@PAU12@00@Z ; std::_Move<ioAdhesiveMissileWeapon4::TargetInfo *,ioAdhesiveMissileWeapon4::TargetInfo *>
; Function compile flags: /Ogsp
; File c:\program files (x86)\microsoft visual studio 10.0\vc\include\xutility
;	COMDAT ??$_Move@PAUTargetInfo@ioAdhesiveMissileWeapon4@@PAU12@@std@@YAPAUTargetInfo@ioAdhesiveMissileWeapon4@@PAU12@00@Z
_TEXT	SEGMENT
__Cat$536180 = -4					; size = 1
__First$ = 8						; size = 4
__Last$ = 12						; size = 4
__Dest$ = 16						; size = 4
??$_Move@PAUTargetInfo@ioAdhesiveMissileWeapon4@@PAU12@@std@@YAPAUTargetInfo@ioAdhesiveMissileWeapon4@@PAU12@00@Z PROC ; std::_Move<ioAdhesiveMissileWeapon4::TargetInfo *,ioAdhesiveMissileWeapon4::TargetInfo *>, COMDAT

; 2533 : 	{	// move [_First, _Last) to [_Dest, ...), unchecked

  00000	55		 push	 ebp
  00001	8b ec		 mov	 ebp, esp
  00003	51		 push	 ecx

; 2534 : 	return (_Move(_First, _Last,
; 2535 : 		_Dest, _Ptr_cat(_First, _Dest)));

  00004	ff 75 fc	 push	 DWORD PTR __Cat$536180[ebp]
  00007	ff 75 10	 push	 DWORD PTR __Dest$[ebp]
  0000a	ff 75 0c	 push	 DWORD PTR __Last$[ebp]
  0000d	ff 75 08	 push	 DWORD PTR __First$[ebp]
  00010	e8 00 00 00 00	 call	 ??$_Move@PAUTargetInfo@ioAdhesiveMissileWeapon4@@PAU12@@std@@YAPAUTargetInfo@ioAdhesiveMissileWeapon4@@PAU12@00U_Nonscalar_ptr_iterator_tag@0@@Z ; std::_Move<ioAdhesiveMissileWeapon4::TargetInfo *,ioAdhesiveMissileWeapon4::TargetInfo *>
  00015	83 c4 10	 add	 esp, 16			; 00000010H

; 2536 : 	}

  00018	c9		 leave
  00019	c3		 ret	 0
??$_Move@PAUTargetInfo@ioAdhesiveMissileWeapon4@@PAU12@@std@@YAPAUTargetInfo@ioAdhesiveMissileWeapon4@@PAU12@00@Z ENDP ; std::_Move<ioAdhesiveMissileWeapon4::TargetInfo *,ioAdhesiveMissileWeapon4::TargetInfo *>
_TEXT	ENDS
PUBLIC	?destroy@?$allocator@UTargetInfo@ioAdhesiveMissileWeapon4@@@std@@QAEXPAUTargetInfo@ioAdhesiveMissileWeapon4@@@Z ; std::allocator<ioAdhesiveMissileWeapon4::TargetInfo>::destroy
; Function compile flags: /Ogsp
; File c:\program files (x86)\microsoft visual studio 10.0\vc\include\xmemory
;	COMDAT ?destroy@?$allocator@UTargetInfo@ioAdhesiveMissileWeapon4@@@std@@QAEXPAUTargetInfo@ioAdhesiveMissileWeapon4@@@Z
_TEXT	SEGMENT
__Ptr$ = 8						; size = 4
?destroy@?$allocator@UTargetInfo@ioAdhesiveMissileWeapon4@@@std@@QAEXPAUTargetInfo@ioAdhesiveMissileWeapon4@@@Z PROC ; std::allocator<ioAdhesiveMissileWeapon4::TargetInfo>::destroy, COMDAT
; _this$ = ecx

; 212  : 		{	// destroy object at _Ptr

  00000	55		 push	 ebp
  00001	8b ec		 mov	 ebp, esp

; 213  : 		_Destroy(_Ptr);

  00003	8b 4d 08	 mov	 ecx, DWORD PTR __Ptr$[ebp]
  00006	ff 15 00 00 00
	00		 call	 DWORD PTR __imp_??1ioHashString@@QAE@XZ

; 214  : 		}

  0000c	5d		 pop	 ebp
  0000d	c2 04 00	 ret	 4
?destroy@?$allocator@UTargetInfo@ioAdhesiveMissileWeapon4@@@std@@QAEXPAUTargetInfo@ioAdhesiveMissileWeapon4@@@Z ENDP ; std::allocator<ioAdhesiveMissileWeapon4::TargetInfo>::destroy
_TEXT	ENDS
PUBLIC	??$_Cons_val@V?$allocator@VioHashString@@@std@@VioHashString@@V3@@std@@YAXAAV?$allocator@VioHashString@@@0@PAVioHashString@@$$QAV2@@Z ; std::_Cons_val<std::allocator<ioHashString>,ioHashString,ioHashString>
; Function compile flags: /Ogsp
;	COMDAT ??$_Cons_val@V?$allocator@VioHashString@@@std@@VioHashString@@V3@@std@@YAXAAV?$allocator@VioHashString@@@0@PAVioHashString@@$$QAV2@@Z
_TEXT	SEGMENT
__Alval$ = 8						; size = 4
__Pdest$ = 12						; size = 4
__Src$ = 16						; size = 4
??$_Cons_val@V?$allocator@VioHashString@@@std@@VioHashString@@V3@@std@@YAXAAV?$allocator@VioHashString@@@0@PAVioHashString@@$$QAV2@@Z PROC ; std::_Cons_val<std::allocator<ioHashString>,ioHashString,ioHashString>, COMDAT

; 279  : 	{	// construct using allocator

  00000	55		 push	 ebp
  00001	8b ec		 mov	 ebp, esp

; 280  : 	_Alval.construct(_Pdest, _STD forward<_Ty2>(_Src));

  00003	ff 75 10	 push	 DWORD PTR __Src$[ebp]
  00006	8b 4d 08	 mov	 ecx, DWORD PTR __Alval$[ebp]
  00009	ff 75 0c	 push	 DWORD PTR __Pdest$[ebp]
  0000c	e8 00 00 00 00	 call	 ?construct@?$allocator@VioHashString@@@std@@QAEXPAVioHashString@@$$QAV3@@Z ; std::allocator<ioHashString>::construct

; 281  : 	}

  00011	5d		 pop	 ebp
  00012	c3		 ret	 0
??$_Cons_val@V?$allocator@VioHashString@@@std@@VioHashString@@V3@@std@@YAXAAV?$allocator@VioHashString@@@0@PAVioHashString@@$$QAV2@@Z ENDP ; std::_Cons_val<std::allocator<ioHashString>,ioHashString,ioHashString>
_TEXT	ENDS
PUBLIC	??$_Cons_val@V?$allocator@UTargetInfo@ioAdhesiveMissileWeapon4@@@std@@UTargetInfo@ioAdhesiveMissileWeapon4@@U34@@std@@YAXAAV?$allocator@UTargetInfo@ioAdhesiveMissileWeapon4@@@0@PAUTargetInfo@ioAdhesiveMissileWeapon4@@$$QAU23@@Z ; std::_Cons_val<std::allocator<ioAdhesiveMissileWeapon4::TargetInfo>,ioAdhesiveMissileWeapon4::TargetInfo,ioAdhesiveMissileWeapon4::TargetInfo>
;	COMDAT xdata$x
; File c:\program files (x86)\microsoft visual studio 10.0\vc\include\utility
xdata$x	SEGMENT
__unwindtable$??$_Cons_val@V?$allocator@UTargetInfo@ioAdhesiveMissileWeapon4@@@std@@UTargetInfo@ioAdhesiveMissileWeapon4@@U34@@std@@YAXAAV?$allocator@UTargetInfo@ioAdhesiveMissileWeapon4@@@0@PAUTargetInfo@ioAdhesiveMissileWeapon4@@$$QAU23@@Z DD 0ffffffffH
	DD	FLAT:__unwindfunclet$??$_Cons_val@V?$allocator@UTargetInfo@ioAdhesiveMissileWeapon4@@@std@@UTargetInfo@ioAdhesiveMissileWeapon4@@U34@@std@@YAXAAV?$allocator@UTargetInfo@ioAdhesiveMissileWeapon4@@@0@PAUTargetInfo@ioAdhesiveMissileWeapon4@@$$QAU23@@Z$0
__ehfuncinfo$??$_Cons_val@V?$allocator@UTargetInfo@ioAdhesiveMissileWeapon4@@@std@@UTargetInfo@ioAdhesiveMissileWeapon4@@U34@@std@@YAXAAV?$allocator@UTargetInfo@ioAdhesiveMissileWeapon4@@@0@PAUTargetInfo@ioAdhesiveMissileWeapon4@@$$QAU23@@Z DD 019930522H
	DD	01H
	DD	FLAT:__unwindtable$??$_Cons_val@V?$allocator@UTargetInfo@ioAdhesiveMissileWeapon4@@@std@@UTargetInfo@ioAdhesiveMissileWeapon4@@U34@@std@@YAXAAV?$allocator@UTargetInfo@ioAdhesiveMissileWeapon4@@@0@PAUTargetInfo@ioAdhesiveMissileWeapon4@@$$QAU23@@Z
	DD	2 DUP(00H)
	DD	2 DUP(00H)
	DD	00H
	DD	01H
; Function compile flags: /Ogsp
; File c:\program files (x86)\microsoft visual studio 10.0\vc\include\xmemory
xdata$x	ENDS
;	COMDAT ??$_Cons_val@V?$allocator@UTargetInfo@ioAdhesiveMissileWeapon4@@@std@@UTargetInfo@ioAdhesiveMissileWeapon4@@U34@@std@@YAXAAV?$allocator@UTargetInfo@ioAdhesiveMissileWeapon4@@@0@PAUTargetInfo@ioAdhesiveMissileWeapon4@@$$QAU23@@Z
_TEXT	SEGMENT
$T536226 = -16						; size = 4
__$EHRec$ = -12						; size = 12
__Alval$ = 8						; size = 4
__Pdest$ = 12						; size = 4
__Src$ = 16						; size = 4
??$_Cons_val@V?$allocator@UTargetInfo@ioAdhesiveMissileWeapon4@@@std@@UTargetInfo@ioAdhesiveMissileWeapon4@@U34@@std@@YAXAAV?$allocator@UTargetInfo@ioAdhesiveMissileWeapon4@@@0@PAUTargetInfo@ioAdhesiveMissileWeapon4@@$$QAU23@@Z PROC ; std::_Cons_val<std::allocator<ioAdhesiveMissileWeapon4::TargetInfo>,ioAdhesiveMissileWeapon4::TargetInfo,ioAdhesiveMissileWeapon4::TargetInfo>, COMDAT

; 279  : 	{	// construct using allocator

  00000	6a 04		 push	 4
  00002	b8 00 00 00 00	 mov	 eax, __ehhandler$??$_Cons_val@V?$allocator@UTargetInfo@ioAdhesiveMissileWeapon4@@@std@@UTargetInfo@ioAdhesiveMissileWeapon4@@U34@@std@@YAXAAV?$allocator@UTargetInfo@ioAdhesiveMissileWeapon4@@@0@PAUTargetInfo@ioAdhesiveMissileWeapon4@@$$QAU23@@Z
  00007	e8 00 00 00 00	 call	 __EH_prolog3

; 280  : 	_Alval.construct(_Pdest, _STD forward<_Ty2>(_Src));

  0000c	8b 4d 0c	 mov	 ecx, DWORD PTR __Pdest$[ebp]
  0000f	89 4d f0	 mov	 DWORD PTR $T536226[ebp], ecx
  00012	83 65 fc 00	 and	 DWORD PTR __$EHRec$[ebp+8], 0
  00016	85 c9		 test	 ecx, ecx
  00018	74 08		 je	 SHORT $LN7@Cons_val@2
  0001a	ff 75 10	 push	 DWORD PTR __Src$[ebp]
  0001d	e8 00 00 00 00	 call	 ??0TargetInfo@ioAdhesiveMissileWeapon4@@QAE@ABU01@@Z
$LN7@Cons_val@2:

; 281  : 	}

  00022	e8 00 00 00 00	 call	 __EH_epilog3
  00027	c3		 ret	 0
_TEXT	ENDS
;	COMDAT text$x
text$x	SEGMENT
__unwindfunclet$??$_Cons_val@V?$allocator@UTargetInfo@ioAdhesiveMissileWeapon4@@@std@@UTargetInfo@ioAdhesiveMissileWeapon4@@U34@@std@@YAXAAV?$allocator@UTargetInfo@ioAdhesiveMissileWeapon4@@@0@PAUTargetInfo@ioAdhesiveMissileWeapon4@@$$QAU23@@Z$0:
  00000	ff 75 0c	 push	 DWORD PTR __Pdest$[ebp]
  00003	ff 75 f0	 push	 DWORD PTR $T536226[ebp]
  00006	e8 00 00 00 00	 call	 ??3@YAXPAX0@Z		; operator delete
  0000b	59		 pop	 ecx
  0000c	59		 pop	 ecx
  0000d	c3		 ret	 0
__ehhandler$??$_Cons_val@V?$allocator@UTargetInfo@ioAdhesiveMissileWeapon4@@@std@@UTargetInfo@ioAdhesiveMissileWeapon4@@U34@@std@@YAXAAV?$allocator@UTargetInfo@ioAdhesiveMissileWeapon4@@@0@PAUTargetInfo@ioAdhesiveMissileWeapon4@@$$QAU23@@Z:
  0000e	8b 54 24 08	 mov	 edx, DWORD PTR [esp+8]
  00012	8d 42 0c	 lea	 eax, DWORD PTR [edx+12]
  00015	8b 4a ec	 mov	 ecx, DWORD PTR [edx-20]
  00018	33 c8		 xor	 ecx, eax
  0001a	e8 00 00 00 00	 call	 @__security_check_cookie@4
  0001f	b8 00 00 00 00	 mov	 eax, OFFSET __ehfuncinfo$??$_Cons_val@V?$allocator@UTargetInfo@ioAdhesiveMissileWeapon4@@@std@@UTargetInfo@ioAdhesiveMissileWeapon4@@U34@@std@@YAXAAV?$allocator@UTargetInfo@ioAdhesiveMissileWeapon4@@@0@PAUTargetInfo@ioAdhesiveMissileWeapon4@@$$QAU23@@Z
  00024	e9 00 00 00 00	 jmp	 ___CxxFrameHandler3
text$x	ENDS
??$_Cons_val@V?$allocator@UTargetInfo@ioAdhesiveMissileWeapon4@@@std@@UTargetInfo@ioAdhesiveMissileWeapon4@@U34@@std@@YAXAAV?$allocator@UTargetInfo@ioAdhesiveMissileWeapon4@@@0@PAUTargetInfo@ioAdhesiveMissileWeapon4@@$$QAU23@@Z ENDP ; std::_Cons_val<std::allocator<ioAdhesiveMissileWeapon4::TargetInfo>,ioAdhesiveMissileWeapon4::TargetInfo,ioAdhesiveMissileWeapon4::TargetInfo>
PUBLIC	?GetTeam@ioPlayEntity@@QBE?AW4TeamType@@XZ	; ioPlayEntity::GetTeam
; Function compile flags: /Ogsp
; File d:\lost saga for developer\youtube\tutorial\source\src\lsclient\ioplayentity.h
;	COMDAT ?GetTeam@ioPlayEntity@@QBE?AW4TeamType@@XZ
_TEXT	SEGMENT
_value$536244 = -4					; size = 4
?GetTeam@ioPlayEntity@@QBE?AW4TeamType@@XZ PROC		; ioPlayEntity::GetTeam, COMDAT
; _this$ = ecx

; 107  : 	inline TeamType GetTeam() const { return m_TeamType; }

  00000	55		 push	 ebp
  00001	8b ec		 mov	 ebp, esp
  00003	51		 push	 ecx
  00004	8d 45 fc	 lea	 eax, DWORD PTR _value$536244[ebp]
  00007	50		 push	 eax
  00008	81 c1 90 00 00
	00		 add	 ecx, 144		; 00000090H
  0000e	e8 00 00 00 00	 call	 ?DecryptValueToPool@?$CEncrypt@W4TeamType@@@@QAEXPAW4TeamType@@@Z ; CEncrypt<enum TeamType>::DecryptValueToPool
  00013	8b 45 fc	 mov	 eax, DWORD PTR _value$536244[ebp]
  00016	c9		 leave
  00017	c3		 ret	 0
?GetTeam@ioPlayEntity@@QBE?AW4TeamType@@XZ ENDP		; ioPlayEntity::GetTeam
_TEXT	ENDS
PUBLIC	??0?$vector@VioHashString@@V?$allocator@VioHashString@@@std@@@std@@QAE@XZ ; std::vector<ioHashString,std::allocator<ioHashString> >::vector<ioHashString,std::allocator<ioHashString> >
; Function compile flags: /Ogsp
; File c:\program files (x86)\microsoft visual studio 10.0\vc\include\vector
;	COMDAT ??0?$vector@VioHashString@@V?$allocator@VioHashString@@@std@@@std@@QAE@XZ
_TEXT	SEGMENT
??0?$vector@VioHashString@@V?$allocator@VioHashString@@@std@@@std@@QAE@XZ PROC ; std::vector<ioHashString,std::allocator<ioHashString> >::vector<ioHashString,std::allocator<ioHashString> >, COMDAT
; _this$ = ecx

; 507  : 		{	// construct empty vector

  00000	8b c1		 mov	 eax, ecx
  00002	33 c9		 xor	 ecx, ecx
  00004	89 08		 mov	 DWORD PTR [eax], ecx
  00006	89 48 04	 mov	 DWORD PTR [eax+4], ecx
  00009	89 48 08	 mov	 DWORD PTR [eax+8], ecx

; 508  : 		}

  0000c	c3		 ret	 0
??0?$vector@VioHashString@@V?$allocator@VioHashString@@@std@@@std@@QAE@XZ ENDP ; std::vector<ioHashString,std::allocator<ioHashString> >::vector<ioHashString,std::allocator<ioHashString> >
_TEXT	ENDS
PUBLIC	?destroy@?$allocator@VioHashString@@@std@@QAEXPAVioHashString@@@Z ; std::allocator<ioHashString>::destroy
; Function compile flags: /Ogsp
; File c:\program files (x86)\microsoft visual studio 10.0\vc\include\xmemory
;	COMDAT ?destroy@?$allocator@VioHashString@@@std@@QAEXPAVioHashString@@@Z
_TEXT	SEGMENT
__Ptr$ = 8						; size = 4
?destroy@?$allocator@VioHashString@@@std@@QAEXPAVioHashString@@@Z PROC ; std::allocator<ioHashString>::destroy, COMDAT
; _this$ = ecx

; 212  : 		{	// destroy object at _Ptr

  00000	55		 push	 ebp
  00001	8b ec		 mov	 ebp, esp

; 213  : 		_Destroy(_Ptr);

  00003	8b 4d 08	 mov	 ecx, DWORD PTR __Ptr$[ebp]
  00006	ff 15 00 00 00
	00		 call	 DWORD PTR __imp_??1ioHashString@@QAE@XZ

; 214  : 		}

  0000c	5d		 pop	 ebp
  0000d	c2 04 00	 ret	 4
?destroy@?$allocator@VioHashString@@@std@@QAEXPAVioHashString@@@Z ENDP ; std::allocator<ioHashString>::destroy
_TEXT	ENDS
PUBLIC	??$_Cons_val@V?$allocator@VioHashString@@@std@@VioHashString@@ABV3@@std@@YAXAAV?$allocator@VioHashString@@@0@PAVioHashString@@ABV2@@Z ; std::_Cons_val<std::allocator<ioHashString>,ioHashString,ioHashString const &>
; Function compile flags: /Ogsp
;	COMDAT ??$_Cons_val@V?$allocator@VioHashString@@@std@@VioHashString@@ABV3@@std@@YAXAAV?$allocator@VioHashString@@@0@PAVioHashString@@ABV2@@Z
_TEXT	SEGMENT
__Alval$ = 8						; size = 4
__Pdest$ = 12						; size = 4
__Src$ = 16						; size = 4
??$_Cons_val@V?$allocator@VioHashString@@@std@@VioHashString@@ABV3@@std@@YAXAAV?$allocator@VioHashString@@@0@PAVioHashString@@ABV2@@Z PROC ; std::_Cons_val<std::allocator<ioHashString>,ioHashString,ioHashString const &>, COMDAT

; 279  : 	{	// construct using allocator

  00000	55		 push	 ebp
  00001	8b ec		 mov	 ebp, esp

; 280  : 	_Alval.construct(_Pdest, _STD forward<_Ty2>(_Src));

  00003	ff 75 10	 push	 DWORD PTR __Src$[ebp]
  00006	ff 75 0c	 push	 DWORD PTR __Pdest$[ebp]
  00009	e8 00 00 00 00	 call	 ??$_Construct@VioHashString@@ABV1@@std@@YAXPAVioHashString@@ABV1@@Z ; std::_Construct<ioHashString,ioHashString const &>
  0000e	59		 pop	 ecx
  0000f	59		 pop	 ecx

; 281  : 	}

  00010	5d		 pop	 ebp
  00011	c3		 ret	 0
??$_Cons_val@V?$allocator@VioHashString@@@std@@VioHashString@@ABV3@@std@@YAXAAV?$allocator@VioHashString@@@0@PAVioHashString@@ABV2@@Z ENDP ; std::_Cons_val<std::allocator<ioHashString>,ioHashString,ioHashString const &>
_TEXT	ENDS
PUBLIC	??$_Dest_val@V?$allocator@UTargetInfo@ioAdhesiveMissileWeapon4@@@std@@UTargetInfo@ioAdhesiveMissileWeapon4@@@std@@YAXAAV?$allocator@UTargetInfo@ioAdhesiveMissileWeapon4@@@0@PAUTargetInfo@ioAdhesiveMissileWeapon4@@@Z ; std::_Dest_val<std::allocator<ioAdhesiveMissileWeapon4::TargetInfo>,ioAdhesiveMissileWeapon4::TargetInfo>
; Function compile flags: /Ogsp
;	COMDAT ??$_Dest_val@V?$allocator@UTargetInfo@ioAdhesiveMissileWeapon4@@@std@@UTargetInfo@ioAdhesiveMissileWeapon4@@@std@@YAXAAV?$allocator@UTargetInfo@ioAdhesiveMissileWeapon4@@@0@PAUTargetInfo@ioAdhesiveMissileWeapon4@@@Z
_TEXT	SEGMENT
__Alval$ = 8						; size = 4
__Pdest$ = 12						; size = 4
??$_Dest_val@V?$allocator@UTargetInfo@ioAdhesiveMissileWeapon4@@@std@@UTargetInfo@ioAdhesiveMissileWeapon4@@@std@@YAXAAV?$allocator@UTargetInfo@ioAdhesiveMissileWeapon4@@@0@PAUTargetInfo@ioAdhesiveMissileWeapon4@@@Z PROC ; std::_Dest_val<std::allocator<ioAdhesiveMissileWeapon4::TargetInfo>,ioAdhesiveMissileWeapon4::TargetInfo>, COMDAT

; 286  : 	{	// destroy using allocator

  00000	55		 push	 ebp
  00001	8b ec		 mov	 ebp, esp

; 287  : 	_Alval.destroy(_Pdest);

  00003	8b 4d 0c	 mov	 ecx, DWORD PTR __Pdest$[ebp]

; 288  : 	}

  00006	5d		 pop	 ebp

; 287  : 	_Alval.destroy(_Pdest);

  00007	ff 25 00 00 00
	00		 jmp	 DWORD PTR __imp_??1ioHashString@@QAE@XZ
??$_Dest_val@V?$allocator@UTargetInfo@ioAdhesiveMissileWeapon4@@@std@@UTargetInfo@ioAdhesiveMissileWeapon4@@@std@@YAXAAV?$allocator@UTargetInfo@ioAdhesiveMissileWeapon4@@@0@PAUTargetInfo@ioAdhesiveMissileWeapon4@@@Z ENDP ; std::_Dest_val<std::allocator<ioAdhesiveMissileWeapon4::TargetInfo>,ioAdhesiveMissileWeapon4::TargetInfo>
_TEXT	ENDS
PUBLIC	??$_Uninit_move@PAUTargetInfo@ioAdhesiveMissileWeapon4@@PAU12@V?$allocator@UTargetInfo@ioAdhesiveMissileWeapon4@@@std@@U12@@std@@YAPAUTargetInfo@ioAdhesiveMissileWeapon4@@PAU12@00AAV?$allocator@UTargetInfo@ioAdhesiveMissileWeapon4@@@0@0U_Nonscalar_ptr_iterator_tag@0@@Z ; std::_Uninit_move<ioAdhesiveMissileWeapon4::TargetInfo *,ioAdhesiveMissileWeapon4::TargetInfo *,std::allocator<ioAdhesiveMissileWeapon4::TargetInfo>,ioAdhesiveMissileWeapon4::TargetInfo>
EXTRN	__EH_prolog3_catch:PROC
;	COMDAT xdata$x
; File d:\lost saga for developer\youtube\tutorial\source\src\lsclient\ioadhesivemissileweapon4.cpp
xdata$x	SEGMENT
__catchsym$??$_Uninit_move@PAUTargetInfo@ioAdhesiveMissileWeapon4@@PAU12@V?$allocator@UTargetInfo@ioAdhesiveMissileWeapon4@@@std@@U12@@std@@YAPAUTargetInfo@ioAdhesiveMissileWeapon4@@PAU12@00AAV?$allocator@UTargetInfo@ioAdhesiveMissileWeapon4@@@0@0U_Nonscalar_ptr_iterator_tag@0@@Z$3 DD 040H
	DD	00H
	DD	00H
	DD	FLAT:__catch$??$_Uninit_move@PAUTargetInfo@ioAdhesiveMissileWeapon4@@PAU12@V?$allocator@UTargetInfo@ioAdhesiveMissileWeapon4@@@std@@U12@@std@@YAPAUTargetInfo@ioAdhesiveMissileWeapon4@@PAU12@00AAV?$allocator@UTargetInfo@ioAdhesiveMissileWeapon4@@@0@0U_Nonscalar_ptr_iterator_tag@0@@Z$0
__unwindtable$??$_Uninit_move@PAUTargetInfo@ioAdhesiveMissileWeapon4@@PAU12@V?$allocator@UTargetInfo@ioAdhesiveMissileWeapon4@@@std@@U12@@std@@YAPAUTargetInfo@ioAdhesiveMissileWeapon4@@PAU12@00AAV?$allocator@UTargetInfo@ioAdhesiveMissileWeapon4@@@0@0U_Nonscalar_ptr_iterator_tag@0@@Z DD 0ffffffffH
	DD	00H
	DD	0ffffffffH
	DD	00H
__tryblocktable$??$_Uninit_move@PAUTargetInfo@ioAdhesiveMissileWeapon4@@PAU12@V?$allocator@UTargetInfo@ioAdhesiveMissileWeapon4@@@std@@U12@@std@@YAPAUTargetInfo@ioAdhesiveMissileWeapon4@@PAU12@00AAV?$allocator@UTargetInfo@ioAdhesiveMissileWeapon4@@@0@0U_Nonscalar_ptr_iterator_tag@0@@Z DD 00H
	DD	00H
	DD	01H
	DD	01H
	DD	FLAT:__catchsym$??$_Uninit_move@PAUTargetInfo@ioAdhesiveMissileWeapon4@@PAU12@V?$allocator@UTargetInfo@ioAdhesiveMissileWeapon4@@@std@@U12@@std@@YAPAUTargetInfo@ioAdhesiveMissileWeapon4@@PAU12@00AAV?$allocator@UTargetInfo@ioAdhesiveMissileWeapon4@@@0@0U_Nonscalar_ptr_iterator_tag@0@@Z$3
__ehfuncinfo$??$_Uninit_move@PAUTargetInfo@ioAdhesiveMissileWeapon4@@PAU12@V?$allocator@UTargetInfo@ioAdhesiveMissileWeapon4@@@std@@U12@@std@@YAPAUTargetInfo@ioAdhesiveMissileWeapon4@@PAU12@00AAV?$allocator@UTargetInfo@ioAdhesiveMissileWeapon4@@@0@0U_Nonscalar_ptr_iterator_tag@0@@Z DD 019930522H
	DD	02H
	DD	FLAT:__unwindtable$??$_Uninit_move@PAUTargetInfo@ioAdhesiveMissileWeapon4@@PAU12@V?$allocator@UTargetInfo@ioAdhesiveMissileWeapon4@@@std@@U12@@std@@YAPAUTargetInfo@ioAdhesiveMissileWeapon4@@PAU12@00AAV?$allocator@UTargetInfo@ioAdhesiveMissileWeapon4@@@0@0U_Nonscalar_ptr_iterator_tag@0@@Z
	DD	01H
	DD	FLAT:__tryblocktable$??$_Uninit_move@PAUTargetInfo@ioAdhesiveMissileWeapon4@@PAU12@V?$allocator@UTargetInfo@ioAdhesiveMissileWeapon4@@@std@@U12@@std@@YAPAUTargetInfo@ioAdhesiveMissileWeapon4@@PAU12@00AAV?$allocator@UTargetInfo@ioAdhesiveMissileWeapon4@@@0@0U_Nonscalar_ptr_iterator_tag@0@@Z
	DD	2 DUP(00H)
	DD	00H
	DD	01H
; Function compile flags: /Ogsp
; File c:\program files (x86)\microsoft visual studio 10.0\vc\include\memory
xdata$x	ENDS
;	COMDAT ??$_Uninit_move@PAUTargetInfo@ioAdhesiveMissileWeapon4@@PAU12@V?$allocator@UTargetInfo@ioAdhesiveMissileWeapon4@@@std@@U12@@std@@YAPAUTargetInfo@ioAdhesiveMissileWeapon4@@PAU12@00AAV?$allocator@UTargetInfo@ioAdhesiveMissileWeapon4@@@0@0U_Nonscalar_ptr_iterator_tag@0@@Z
_TEXT	SEGMENT
__Next$ = -20						; size = 4
__$EHRec$ = -16						; size = 16
__First$ = 8						; size = 4
__Last$ = 12						; size = 4
__Dest$ = 16						; size = 4
__Al$ = 20						; size = 4
___formal$ = 24						; size = 4
___formal$ = 28						; size = 1
??$_Uninit_move@PAUTargetInfo@ioAdhesiveMissileWeapon4@@PAU12@V?$allocator@UTargetInfo@ioAdhesiveMissileWeapon4@@@std@@U12@@std@@YAPAUTargetInfo@ioAdhesiveMissileWeapon4@@PAU12@00AAV?$allocator@UTargetInfo@ioAdhesiveMissileWeapon4@@@0@0U_Nonscalar_ptr_iterator_tag@0@@Z PROC ; std::_Uninit_move<ioAdhesiveMissileWeapon4::TargetInfo *,ioAdhesiveMissileWeapon4::TargetInfo *,std::allocator<ioAdhesiveMissileWeapon4::TargetInfo>,ioAdhesiveMissileWeapon4::TargetInfo>, COMDAT

; 424  : 	{	// move [_First, _Last) to raw _Dest, using _Al, arbitrary type

  00000	6a 08		 push	 8
  00002	b8 00 00 00 00	 mov	 eax, __ehhandler$??$_Uninit_move@PAUTargetInfo@ioAdhesiveMissileWeapon4@@PAU12@V?$allocator@UTargetInfo@ioAdhesiveMissileWeapon4@@@std@@U12@@std@@YAPAUTargetInfo@ioAdhesiveMissileWeapon4@@PAU12@00AAV?$allocator@UTargetInfo@ioAdhesiveMissileWeapon4@@@0@0U_Nonscalar_ptr_iterator_tag@0@@Z
  00007	e8 00 00 00 00	 call	 __EH_prolog3_catch

; 425  : 	_DEBUG_RANGE(_First, _Last);
; 426  : 	_DEBUG_POINTER(_Dest);
; 427  : 	_FwdIt _Next = _Dest;

  0000c	8b 45 10	 mov	 eax, DWORD PTR __Dest$[ebp]

; 428  : 
; 429  : 	_TRY_BEGIN

  0000f	83 65 fc 00	 and	 DWORD PTR __$EHRec$[ebp+12], 0
  00013	8b 75 08	 mov	 esi, DWORD PTR __First$[ebp]
  00016	89 45 ec	 mov	 DWORD PTR __Next$[ebp], eax
$LL6@Uninit_mov:

; 430  : 	for (; _First != _Last; ++_Dest, ++_First)

  00019	3b 75 0c	 cmp	 esi, DWORD PTR __Last$[ebp]
  0001c	74 36		 je	 SHORT $LN4@Uninit_mov

; 431  : 		_Cons_val(_Al, _Dest, (_Valty &&)*_First);

  0001e	56		 push	 esi
  0001f	ff 75 10	 push	 DWORD PTR __Dest$[ebp]
  00022	ff 75 14	 push	 DWORD PTR __Al$[ebp]
  00025	e8 00 00 00 00	 call	 ??$_Cons_val@V?$allocator@UTargetInfo@ioAdhesiveMissileWeapon4@@@std@@UTargetInfo@ioAdhesiveMissileWeapon4@@U34@@std@@YAXAAV?$allocator@UTargetInfo@ioAdhesiveMissileWeapon4@@@0@PAUTargetInfo@ioAdhesiveMissileWeapon4@@$$QAU23@@Z ; std::_Cons_val<std::allocator<ioAdhesiveMissileWeapon4::TargetInfo>,ioAdhesiveMissileWeapon4::TargetInfo,ioAdhesiveMissileWeapon4::TargetInfo>
  0002a	83 45 10 18	 add	 DWORD PTR __Dest$[ebp], 24 ; 00000018H
  0002e	83 c4 0c	 add	 esp, 12			; 0000000cH
  00031	83 c6 18	 add	 esi, 24			; 00000018H
  00034	eb e3		 jmp	 SHORT $LL6@Uninit_mov
__catch$??$_Uninit_move@PAUTargetInfo@ioAdhesiveMissileWeapon4@@PAU12@V?$allocator@UTargetInfo@ioAdhesiveMissileWeapon4@@@std@@U12@@std@@YAPAUTargetInfo@ioAdhesiveMissileWeapon4@@PAU12@00AAV?$allocator@UTargetInfo@ioAdhesiveMissileWeapon4@@@0@0U_Nonscalar_ptr_iterator_tag@0@@Z$0:

; 432  : 	_CATCH_ALL
; 433  : 	for (; _Next != _Dest; ++_Next)

  00036	8b 75 ec	 mov	 esi, DWORD PTR __Next$[ebp]
  00039	eb 0b		 jmp	 SHORT $LN32@Uninit_mov
$LL3@Uninit_mov:

; 434  : 		_Dest_val(_Al, _Next);

  0003b	8b ce		 mov	 ecx, esi
  0003d	ff 15 00 00 00
	00		 call	 DWORD PTR __imp_??1ioHashString@@QAE@XZ
  00043	83 c6 18	 add	 esi, 24			; 00000018H
$LN32@Uninit_mov:

; 432  : 	_CATCH_ALL
; 433  : 	for (; _Next != _Dest; ++_Next)

  00046	3b 75 10	 cmp	 esi, DWORD PTR __Dest$[ebp]
  00049	75 f0		 jne	 SHORT $LL3@Uninit_mov

; 435  : 	_RERAISE;

  0004b	6a 00		 push	 0
  0004d	6a 00		 push	 0
  0004f	e8 00 00 00 00	 call	 __CxxThrowException@8
$LN33@Uninit_mov:
$LN4@Uninit_mov:

; 436  : 	_CATCH_END
; 437  : 	return (_Dest);

  00054	8b 45 10	 mov	 eax, DWORD PTR __Dest$[ebp]

; 438  : 	}

  00057	e8 00 00 00 00	 call	 __EH_epilog3
  0005c	c3		 ret	 0
$LN31@Uninit_mov:
_TEXT	ENDS
;	COMDAT text$x
text$x	SEGMENT
__ehhandler$??$_Uninit_move@PAUTargetInfo@ioAdhesiveMissileWeapon4@@PAU12@V?$allocator@UTargetInfo@ioAdhesiveMissileWeapon4@@@std@@U12@@std@@YAPAUTargetInfo@ioAdhesiveMissileWeapon4@@PAU12@00AAV?$allocator@UTargetInfo@ioAdhesiveMissileWeapon4@@@0@0U_Nonscalar_ptr_iterator_tag@0@@Z:
  00000	8b 54 24 08	 mov	 edx, DWORD PTR [esp+8]
  00004	8d 42 0c	 lea	 eax, DWORD PTR [edx+12]
  00007	8b 4a e8	 mov	 ecx, DWORD PTR [edx-24]
  0000a	33 c8		 xor	 ecx, eax
  0000c	e8 00 00 00 00	 call	 @__security_check_cookie@4
  00011	b8 00 00 00 00	 mov	 eax, OFFSET __ehfuncinfo$??$_Uninit_move@PAUTargetInfo@ioAdhesiveMissileWeapon4@@PAU12@V?$allocator@UTargetInfo@ioAdhesiveMissileWeapon4@@@std@@U12@@std@@YAPAUTargetInfo@ioAdhesiveMissileWeapon4@@PAU12@00AAV?$allocator@UTargetInfo@ioAdhesiveMissileWeapon4@@@0@0U_Nonscalar_ptr_iterator_tag@0@@Z
  00016	e9 00 00 00 00	 jmp	 ___CxxFrameHandler3
text$x	ENDS
??$_Uninit_move@PAUTargetInfo@ioAdhesiveMissileWeapon4@@PAU12@V?$allocator@UTargetInfo@ioAdhesiveMissileWeapon4@@@std@@U12@@std@@YAPAUTargetInfo@ioAdhesiveMissileWeapon4@@PAU12@00AAV?$allocator@UTargetInfo@ioAdhesiveMissileWeapon4@@@0@0U_Nonscalar_ptr_iterator_tag@0@@Z ENDP ; std::_Uninit_move<ioAdhesiveMissileWeapon4::TargetInfo *,ioAdhesiveMissileWeapon4::TargetInfo *,std::allocator<ioAdhesiveMissileWeapon4::TargetInfo>,ioAdhesiveMissileWeapon4::TargetInfo>
PUBLIC	??$_Dest_val@V?$allocator@VioHashString@@@std@@VioHashString@@@std@@YAXAAV?$allocator@VioHashString@@@0@PAVioHashString@@@Z ; std::_Dest_val<std::allocator<ioHashString>,ioHashString>
; Function compile flags: /Ogsp
; File c:\program files (x86)\microsoft visual studio 10.0\vc\include\xmemory
;	COMDAT ??$_Dest_val@V?$allocator@VioHashString@@@std@@VioHashString@@@std@@YAXAAV?$allocator@VioHashString@@@0@PAVioHashString@@@Z
_TEXT	SEGMENT
__Alval$ = 8						; size = 4
__Pdest$ = 12						; size = 4
??$_Dest_val@V?$allocator@VioHashString@@@std@@VioHashString@@@std@@YAXAAV?$allocator@VioHashString@@@0@PAVioHashString@@@Z PROC ; std::_Dest_val<std::allocator<ioHashString>,ioHashString>, COMDAT

; 286  : 	{	// destroy using allocator

  00000	55		 push	 ebp
  00001	8b ec		 mov	 ebp, esp

; 287  : 	_Alval.destroy(_Pdest);

  00003	8b 4d 0c	 mov	 ecx, DWORD PTR __Pdest$[ebp]

; 288  : 	}

  00006	5d		 pop	 ebp

; 287  : 	_Alval.destroy(_Pdest);

  00007	ff 25 00 00 00
	00		 jmp	 DWORD PTR __imp_??1ioHashString@@QAE@XZ
??$_Dest_val@V?$allocator@VioHashString@@@std@@VioHashString@@@std@@YAXAAV?$allocator@VioHashString@@@0@PAVioHashString@@@Z ENDP ; std::_Dest_val<std::allocator<ioHashString>,ioHashString>
_TEXT	ENDS
PUBLIC	??$_Destroy_range@V?$allocator@UTargetInfo@ioAdhesiveMissileWeapon4@@@std@@@std@@YAXPAUTargetInfo@ioAdhesiveMissileWeapon4@@0AAV?$allocator@UTargetInfo@ioAdhesiveMissileWeapon4@@@0@U_Nonscalar_ptr_iterator_tag@0@@Z ; std::_Destroy_range<std::allocator<ioAdhesiveMissileWeapon4::TargetInfo> >
; Function compile flags: /Ogsp
;	COMDAT ??$_Destroy_range@V?$allocator@UTargetInfo@ioAdhesiveMissileWeapon4@@@std@@@std@@YAXPAUTargetInfo@ioAdhesiveMissileWeapon4@@0AAV?$allocator@UTargetInfo@ioAdhesiveMissileWeapon4@@@0@U_Nonscalar_ptr_iterator_tag@0@@Z
_TEXT	SEGMENT
__First$ = 8						; size = 4
__Last$ = 12						; size = 4
__Al$ = 16						; size = 4
___formal$ = 20						; size = 1
??$_Destroy_range@V?$allocator@UTargetInfo@ioAdhesiveMissileWeapon4@@@std@@@std@@YAXPAUTargetInfo@ioAdhesiveMissileWeapon4@@0AAV?$allocator@UTargetInfo@ioAdhesiveMissileWeapon4@@@0@U_Nonscalar_ptr_iterator_tag@0@@Z PROC ; std::_Destroy_range<std::allocator<ioAdhesiveMissileWeapon4::TargetInfo> >, COMDAT

; 95   : 	{	// destroy [_First, _Last), arbitrary type

  00000	55		 push	 ebp
  00001	8b ec		 mov	 ebp, esp
  00003	56		 push	 esi

; 96   : 	for (; _First != _Last; ++_First)

  00004	8b 75 08	 mov	 esi, DWORD PTR __First$[ebp]
  00007	eb 0b		 jmp	 SHORT $LN20@Destroy_ra
$LL3@Destroy_ra:

; 97   : 		_Dest_val(_Al, _First);

  00009	8b ce		 mov	 ecx, esi
  0000b	ff 15 00 00 00
	00		 call	 DWORD PTR __imp_??1ioHashString@@QAE@XZ
  00011	83 c6 18	 add	 esi, 24			; 00000018H
$LN20@Destroy_ra:

; 96   : 	for (; _First != _Last; ++_First)

  00014	3b 75 0c	 cmp	 esi, DWORD PTR __Last$[ebp]
  00017	75 f0		 jne	 SHORT $LL3@Destroy_ra
  00019	5e		 pop	 esi

; 98   : 	}

  0001a	5d		 pop	 ebp
  0001b	c3		 ret	 0
??$_Destroy_range@V?$allocator@UTargetInfo@ioAdhesiveMissileWeapon4@@@std@@@std@@YAXPAUTargetInfo@ioAdhesiveMissileWeapon4@@0AAV?$allocator@UTargetInfo@ioAdhesiveMissileWeapon4@@@0@U_Nonscalar_ptr_iterator_tag@0@@Z ENDP ; std::_Destroy_range<std::allocator<ioAdhesiveMissileWeapon4::TargetInfo> >
_TEXT	ENDS
PUBLIC	??$_Uninitialized_move@PAUTargetInfo@ioAdhesiveMissileWeapon4@@PAU12@V?$allocator@UTargetInfo@ioAdhesiveMissileWeapon4@@@std@@@std@@YAPAUTargetInfo@ioAdhesiveMissileWeapon4@@PAU12@00AAV?$allocator@UTargetInfo@ioAdhesiveMissileWeapon4@@@0@@Z ; std::_Uninitialized_move<ioAdhesiveMissileWeapon4::TargetInfo *,ioAdhesiveMissileWeapon4::TargetInfo *,std::allocator<ioAdhesiveMissileWeapon4::TargetInfo> >
; Function compile flags: /Ogsp
; File c:\program files (x86)\microsoft visual studio 10.0\vc\include\memory
;	COMDAT ??$_Uninitialized_move@PAUTargetInfo@ioAdhesiveMissileWeapon4@@PAU12@V?$allocator@UTargetInfo@ioAdhesiveMissileWeapon4@@@std@@@std@@YAPAUTargetInfo@ioAdhesiveMissileWeapon4@@PAU12@00AAV?$allocator@UTargetInfo@ioAdhesiveMissileWeapon4@@@0@@Z
_TEXT	SEGMENT
__Cat$536447 = -4					; size = 1
__First$ = 8						; size = 4
__Last$ = 12						; size = 4
__Dest$ = 16						; size = 4
__Al$ = 20						; size = 4
??$_Uninitialized_move@PAUTargetInfo@ioAdhesiveMissileWeapon4@@PAU12@V?$allocator@UTargetInfo@ioAdhesiveMissileWeapon4@@@std@@@std@@YAPAUTargetInfo@ioAdhesiveMissileWeapon4@@PAU12@00AAV?$allocator@UTargetInfo@ioAdhesiveMissileWeapon4@@@0@@Z PROC ; std::_Uninitialized_move<ioAdhesiveMissileWeapon4::TargetInfo *,ioAdhesiveMissileWeapon4::TargetInfo *,std::allocator<ioAdhesiveMissileWeapon4::TargetInfo> >, COMDAT

; 469  : 	{	// move [_First, _Last) to raw _Dest, using _Al

  00000	55		 push	 ebp
  00001	8b ec		 mov	 ebp, esp
  00003	51		 push	 ecx

; 470  : 	return (_Uninit_move(_First, _Last, _Dest, _Al,
; 471  : 		_Val_type(_First), _Ptr_cat(_First, _Dest)));

  00004	ff 75 fc	 push	 DWORD PTR __Cat$536447[ebp]
  00007	6a 00		 push	 0
  00009	ff 75 14	 push	 DWORD PTR __Al$[ebp]
  0000c	ff 75 10	 push	 DWORD PTR __Dest$[ebp]
  0000f	ff 75 0c	 push	 DWORD PTR __Last$[ebp]
  00012	ff 75 08	 push	 DWORD PTR __First$[ebp]
  00015	e8 00 00 00 00	 call	 ??$_Uninit_move@PAUTargetInfo@ioAdhesiveMissileWeapon4@@PAU12@V?$allocator@UTargetInfo@ioAdhesiveMissileWeapon4@@@std@@U12@@std@@YAPAUTargetInfo@ioAdhesiveMissileWeapon4@@PAU12@00AAV?$allocator@UTargetInfo@ioAdhesiveMissileWeapon4@@@0@0U_Nonscalar_ptr_iterator_tag@0@@Z ; std::_Uninit_move<ioAdhesiveMissileWeapon4::TargetInfo *,ioAdhesiveMissileWeapon4::TargetInfo *,std::allocator<ioAdhesiveMissileWeapon4::TargetInfo>,ioAdhesiveMissileWeapon4::TargetInfo>
  0001a	83 c4 18	 add	 esp, 24			; 00000018H

; 472  : 	}

  0001d	c9		 leave
  0001e	c3		 ret	 0
??$_Uninitialized_move@PAUTargetInfo@ioAdhesiveMissileWeapon4@@PAU12@V?$allocator@UTargetInfo@ioAdhesiveMissileWeapon4@@@std@@@std@@YAPAUTargetInfo@ioAdhesiveMissileWeapon4@@PAU12@00AAV?$allocator@UTargetInfo@ioAdhesiveMissileWeapon4@@@0@@Z ENDP ; std::_Uninitialized_move<ioAdhesiveMissileWeapon4::TargetInfo *,ioAdhesiveMissileWeapon4::TargetInfo *,std::allocator<ioAdhesiveMissileWeapon4::TargetInfo> >
_TEXT	ENDS
PUBLIC	??$_Uninit_move@PAVioHashString@@PAV1@V?$allocator@VioHashString@@@std@@V1@@std@@YAPAVioHashString@@PAV1@00AAV?$allocator@VioHashString@@@0@0U_Nonscalar_ptr_iterator_tag@0@@Z ; std::_Uninit_move<ioHashString *,ioHashString *,std::allocator<ioHashString>,ioHashString>
;	COMDAT xdata$x
; File c:\program files (x86)\microsoft visual studio 10.0\vc\include\vector
xdata$x	SEGMENT
__catchsym$??$_Uninit_move@PAVioHashString@@PAV1@V?$allocator@VioHashString@@@std@@V1@@std@@YAPAVioHashString@@PAV1@00AAV?$allocator@VioHashString@@@0@0U_Nonscalar_ptr_iterator_tag@0@@Z$2 DD 040H
	DD	00H
	DD	00H
	DD	FLAT:__catch$??$_Uninit_move@PAVioHashString@@PAV1@V?$allocator@VioHashString@@@std@@V1@@std@@YAPAVioHashString@@PAV1@00AAV?$allocator@VioHashString@@@0@0U_Nonscalar_ptr_iterator_tag@0@@Z$0
__unwindtable$??$_Uninit_move@PAVioHashString@@PAV1@V?$allocator@VioHashString@@@std@@V1@@std@@YAPAVioHashString@@PAV1@00AAV?$allocator@VioHashString@@@0@0U_Nonscalar_ptr_iterator_tag@0@@Z DD 0ffffffffH
	DD	00H
	DD	0ffffffffH
	DD	00H
__tryblocktable$??$_Uninit_move@PAVioHashString@@PAV1@V?$allocator@VioHashString@@@std@@V1@@std@@YAPAVioHashString@@PAV1@00AAV?$allocator@VioHashString@@@0@0U_Nonscalar_ptr_iterator_tag@0@@Z DD 00H
	DD	00H
	DD	01H
	DD	01H
	DD	FLAT:__catchsym$??$_Uninit_move@PAVioHashString@@PAV1@V?$allocator@VioHashString@@@std@@V1@@std@@YAPAVioHashString@@PAV1@00AAV?$allocator@VioHashString@@@0@0U_Nonscalar_ptr_iterator_tag@0@@Z$2
__ehfuncinfo$??$_Uninit_move@PAVioHashString@@PAV1@V?$allocator@VioHashString@@@std@@V1@@std@@YAPAVioHashString@@PAV1@00AAV?$allocator@VioHashString@@@0@0U_Nonscalar_ptr_iterator_tag@0@@Z DD 019930522H
	DD	02H
	DD	FLAT:__unwindtable$??$_Uninit_move@PAVioHashString@@PAV1@V?$allocator@VioHashString@@@std@@V1@@std@@YAPAVioHashString@@PAV1@00AAV?$allocator@VioHashString@@@0@0U_Nonscalar_ptr_iterator_tag@0@@Z
	DD	01H
	DD	FLAT:__tryblocktable$??$_Uninit_move@PAVioHashString@@PAV1@V?$allocator@VioHashString@@@std@@V1@@std@@YAPAVioHashString@@PAV1@00AAV?$allocator@VioHashString@@@0@0U_Nonscalar_ptr_iterator_tag@0@@Z
	DD	2 DUP(00H)
	DD	00H
	DD	01H
; Function compile flags: /Ogsp
; File c:\program files (x86)\microsoft visual studio 10.0\vc\include\memory
xdata$x	ENDS
;	COMDAT ??$_Uninit_move@PAVioHashString@@PAV1@V?$allocator@VioHashString@@@std@@V1@@std@@YAPAVioHashString@@PAV1@00AAV?$allocator@VioHashString@@@0@0U_Nonscalar_ptr_iterator_tag@0@@Z
_TEXT	SEGMENT
__Next$ = -20						; size = 4
__$EHRec$ = -16						; size = 16
__First$ = 8						; size = 4
__Last$ = 12						; size = 4
__Dest$ = 16						; size = 4
__Al$ = 20						; size = 4
___formal$ = 24						; size = 4
___formal$ = 28						; size = 1
??$_Uninit_move@PAVioHashString@@PAV1@V?$allocator@VioHashString@@@std@@V1@@std@@YAPAVioHashString@@PAV1@00AAV?$allocator@VioHashString@@@0@0U_Nonscalar_ptr_iterator_tag@0@@Z PROC ; std::_Uninit_move<ioHashString *,ioHashString *,std::allocator<ioHashString>,ioHashString>, COMDAT

; 424  : 	{	// move [_First, _Last) to raw _Dest, using _Al, arbitrary type

  00000	6a 08		 push	 8
  00002	b8 00 00 00 00	 mov	 eax, __ehhandler$??$_Uninit_move@PAVioHashString@@PAV1@V?$allocator@VioHashString@@@std@@V1@@std@@YAPAVioHashString@@PAV1@00AAV?$allocator@VioHashString@@@0@0U_Nonscalar_ptr_iterator_tag@0@@Z
  00007	e8 00 00 00 00	 call	 __EH_prolog3_catch

; 425  : 	_DEBUG_RANGE(_First, _Last);
; 426  : 	_DEBUG_POINTER(_Dest);
; 427  : 	_FwdIt _Next = _Dest;

  0000c	8b 45 10	 mov	 eax, DWORD PTR __Dest$[ebp]

; 428  : 
; 429  : 	_TRY_BEGIN

  0000f	83 65 fc 00	 and	 DWORD PTR __$EHRec$[ebp+12], 0
  00013	8b 75 08	 mov	 esi, DWORD PTR __First$[ebp]
  00016	89 45 ec	 mov	 DWORD PTR __Next$[ebp], eax
$LL6@Uninit_mov@2:

; 430  : 	for (; _First != _Last; ++_Dest, ++_First)

  00019	3b 75 0c	 cmp	 esi, DWORD PTR __Last$[ebp]
  0001c	74 33		 je	 SHORT $LN4@Uninit_mov@2

; 431  : 		_Cons_val(_Al, _Dest, (_Valty &&)*_First);

  0001e	8b 4d 14	 mov	 ecx, DWORD PTR __Al$[ebp]
  00021	56		 push	 esi
  00022	ff 75 10	 push	 DWORD PTR __Dest$[ebp]
  00025	e8 00 00 00 00	 call	 ?construct@?$allocator@VioHashString@@@std@@QAEXPAVioHashString@@$$QAV3@@Z ; std::allocator<ioHashString>::construct
  0002a	83 45 10 10	 add	 DWORD PTR __Dest$[ebp], 16 ; 00000010H
  0002e	83 c6 10	 add	 esi, 16			; 00000010H
  00031	eb e6		 jmp	 SHORT $LL6@Uninit_mov@2
__catch$??$_Uninit_move@PAVioHashString@@PAV1@V?$allocator@VioHashString@@@std@@V1@@std@@YAPAVioHashString@@PAV1@00AAV?$allocator@VioHashString@@@0@0U_Nonscalar_ptr_iterator_tag@0@@Z$0:

; 432  : 	_CATCH_ALL
; 433  : 	for (; _Next != _Dest; ++_Next)

  00033	8b 75 ec	 mov	 esi, DWORD PTR __Next$[ebp]
  00036	eb 0b		 jmp	 SHORT $LN33@Uninit_mov@2
$LL3@Uninit_mov@2:

; 434  : 		_Dest_val(_Al, _Next);

  00038	8b ce		 mov	 ecx, esi
  0003a	ff 15 00 00 00
	00		 call	 DWORD PTR __imp_??1ioHashString@@QAE@XZ
  00040	83 c6 10	 add	 esi, 16			; 00000010H
$LN33@Uninit_mov@2:

; 432  : 	_CATCH_ALL
; 433  : 	for (; _Next != _Dest; ++_Next)

  00043	3b 75 10	 cmp	 esi, DWORD PTR __Dest$[ebp]
  00046	75 f0		 jne	 SHORT $LL3@Uninit_mov@2

; 435  : 	_RERAISE;

  00048	6a 00		 push	 0
  0004a	6a 00		 push	 0
  0004c	e8 00 00 00 00	 call	 __CxxThrowException@8
$LN34@Uninit_mov@2:
$LN4@Uninit_mov@2:

; 436  : 	_CATCH_END
; 437  : 	return (_Dest);

  00051	8b 45 10	 mov	 eax, DWORD PTR __Dest$[ebp]

; 438  : 	}

  00054	e8 00 00 00 00	 call	 __EH_epilog3
  00059	c3		 ret	 0
$LN32@Uninit_mov@2:
_TEXT	ENDS
;	COMDAT text$x
text$x	SEGMENT
__ehhandler$??$_Uninit_move@PAVioHashString@@PAV1@V?$allocator@VioHashString@@@std@@V1@@std@@YAPAVioHashString@@PAV1@00AAV?$allocator@VioHashString@@@0@0U_Nonscalar_ptr_iterator_tag@0@@Z:
  00000	8b 54 24 08	 mov	 edx, DWORD PTR [esp+8]
  00004	8d 42 0c	 lea	 eax, DWORD PTR [edx+12]
  00007	8b 4a e8	 mov	 ecx, DWORD PTR [edx-24]
  0000a	33 c8		 xor	 ecx, eax
  0000c	e8 00 00 00 00	 call	 @__security_check_cookie@4
  00011	b8 00 00 00 00	 mov	 eax, OFFSET __ehfuncinfo$??$_Uninit_move@PAVioHashString@@PAV1@V?$allocator@VioHashString@@@std@@V1@@std@@YAPAVioHashString@@PAV1@00AAV?$allocator@VioHashString@@@0@0U_Nonscalar_ptr_iterator_tag@0@@Z
  00016	e9 00 00 00 00	 jmp	 ___CxxFrameHandler3
text$x	ENDS
??$_Uninit_move@PAVioHashString@@PAV1@V?$allocator@VioHashString@@@std@@V1@@std@@YAPAVioHashString@@PAV1@00AAV?$allocator@VioHashString@@@0@0U_Nonscalar_ptr_iterator_tag@0@@Z ENDP ; std::_Uninit_move<ioHashString *,ioHashString *,std::allocator<ioHashString>,ioHashString>
PUBLIC	??$_Destroy_range@V?$allocator@VioHashString@@@std@@@std@@YAXPAVioHashString@@0AAV?$allocator@VioHashString@@@0@U_Nonscalar_ptr_iterator_tag@0@@Z ; std::_Destroy_range<std::allocator<ioHashString> >
; Function compile flags: /Ogsp
; File c:\program files (x86)\microsoft visual studio 10.0\vc\include\xmemory
;	COMDAT ??$_Destroy_range@V?$allocator@VioHashString@@@std@@@std@@YAXPAVioHashString@@0AAV?$allocator@VioHashString@@@0@U_Nonscalar_ptr_iterator_tag@0@@Z
_TEXT	SEGMENT
__First$ = 8						; size = 4
__Last$ = 12						; size = 4
__Al$ = 16						; size = 4
___formal$ = 20						; size = 1
??$_Destroy_range@V?$allocator@VioHashString@@@std@@@std@@YAXPAVioHashString@@0AAV?$allocator@VioHashString@@@0@U_Nonscalar_ptr_iterator_tag@0@@Z PROC ; std::_Destroy_range<std::allocator<ioHashString> >, COMDAT

; 95   : 	{	// destroy [_First, _Last), arbitrary type

  00000	55		 push	 ebp
  00001	8b ec		 mov	 ebp, esp
  00003	56		 push	 esi

; 96   : 	for (; _First != _Last; ++_First)

  00004	8b 75 08	 mov	 esi, DWORD PTR __First$[ebp]
  00007	eb 0b		 jmp	 SHORT $LN17@Destroy_ra@2
$LL3@Destroy_ra@2:

; 97   : 		_Dest_val(_Al, _First);

  00009	8b ce		 mov	 ecx, esi
  0000b	ff 15 00 00 00
	00		 call	 DWORD PTR __imp_??1ioHashString@@QAE@XZ
  00011	83 c6 10	 add	 esi, 16			; 00000010H
$LN17@Destroy_ra@2:

; 96   : 	for (; _First != _Last; ++_First)

  00014	3b 75 0c	 cmp	 esi, DWORD PTR __Last$[ebp]
  00017	75 f0		 jne	 SHORT $LL3@Destroy_ra@2
  00019	5e		 pop	 esi

; 98   : 	}

  0001a	5d		 pop	 ebp
  0001b	c3		 ret	 0
??$_Destroy_range@V?$allocator@VioHashString@@@std@@@std@@YAXPAVioHashString@@0AAV?$allocator@VioHashString@@@0@U_Nonscalar_ptr_iterator_tag@0@@Z ENDP ; std::_Destroy_range<std::allocator<ioHashString> >
_TEXT	ENDS
PUBLIC	??$_Destroy_range@V?$allocator@UTargetInfo@ioAdhesiveMissileWeapon4@@@std@@@std@@YAXPAUTargetInfo@ioAdhesiveMissileWeapon4@@0AAV?$allocator@UTargetInfo@ioAdhesiveMissileWeapon4@@@0@@Z ; std::_Destroy_range<std::allocator<ioAdhesiveMissileWeapon4::TargetInfo> >
; Function compile flags: /Ogsp
;	COMDAT ??$_Destroy_range@V?$allocator@UTargetInfo@ioAdhesiveMissileWeapon4@@@std@@@std@@YAXPAUTargetInfo@ioAdhesiveMissileWeapon4@@0AAV?$allocator@UTargetInfo@ioAdhesiveMissileWeapon4@@@0@@Z
_TEXT	SEGMENT
__First$ = 8						; size = 4
__Last$ = 12						; size = 4
__Al$ = 16						; size = 4
??$_Destroy_range@V?$allocator@UTargetInfo@ioAdhesiveMissileWeapon4@@@std@@@std@@YAXPAUTargetInfo@ioAdhesiveMissileWeapon4@@0AAV?$allocator@UTargetInfo@ioAdhesiveMissileWeapon4@@@0@@Z PROC ; std::_Destroy_range<std::allocator<ioAdhesiveMissileWeapon4::TargetInfo> >, COMDAT

; 87   : 	{	// destroy [_First, _Last)

  00000	55		 push	 ebp
  00001	8b ec		 mov	 ebp, esp
  00003	56		 push	 esi

; 88   : 	_Destroy_range(_First, _Last, _Al, _Ptr_cat(_First, _Last));

  00004	8b 75 08	 mov	 esi, DWORD PTR __First$[ebp]
  00007	eb 0b		 jmp	 SHORT $LN24@Destroy_ra@3
$LL7@Destroy_ra@3:
  00009	8b ce		 mov	 ecx, esi
  0000b	ff 15 00 00 00
	00		 call	 DWORD PTR __imp_??1ioHashString@@QAE@XZ
  00011	83 c6 18	 add	 esi, 24			; 00000018H
$LN24@Destroy_ra@3:
  00014	3b 75 0c	 cmp	 esi, DWORD PTR __Last$[ebp]
  00017	75 f0		 jne	 SHORT $LL7@Destroy_ra@3
  00019	5e		 pop	 esi

; 89   : 	}

  0001a	5d		 pop	 ebp
  0001b	c3		 ret	 0
??$_Destroy_range@V?$allocator@UTargetInfo@ioAdhesiveMissileWeapon4@@@std@@@std@@YAXPAUTargetInfo@ioAdhesiveMissileWeapon4@@0AAV?$allocator@UTargetInfo@ioAdhesiveMissileWeapon4@@@0@@Z ENDP ; std::_Destroy_range<std::allocator<ioAdhesiveMissileWeapon4::TargetInfo> >
_TEXT	ENDS
PUBLIC	??$_Umove@PAUTargetInfo@ioAdhesiveMissileWeapon4@@@?$vector@UTargetInfo@ioAdhesiveMissileWeapon4@@V?$allocator@UTargetInfo@ioAdhesiveMissileWeapon4@@@std@@@std@@IAEPAUTargetInfo@ioAdhesiveMissileWeapon4@@PAU23@00@Z ; std::vector<ioAdhesiveMissileWeapon4::TargetInfo,std::allocator<ioAdhesiveMissileWeapon4::TargetInfo> >::_Umove<ioAdhesiveMissileWeapon4::TargetInfo *>
; Function compile flags: /Ogsp
; File c:\program files (x86)\microsoft visual studio 10.0\vc\include\vector
;	COMDAT ??$_Umove@PAUTargetInfo@ioAdhesiveMissileWeapon4@@@?$vector@UTargetInfo@ioAdhesiveMissileWeapon4@@V?$allocator@UTargetInfo@ioAdhesiveMissileWeapon4@@@std@@@std@@IAEPAUTargetInfo@ioAdhesiveMissileWeapon4@@PAU23@00@Z
_TEXT	SEGMENT
__First$ = 8						; size = 4
__Last$ = 12						; size = 4
__Ptr$ = 16						; size = 4
??$_Umove@PAUTargetInfo@ioAdhesiveMissileWeapon4@@@?$vector@UTargetInfo@ioAdhesiveMissileWeapon4@@V?$allocator@UTargetInfo@ioAdhesiveMissileWeapon4@@@std@@@std@@IAEPAUTargetInfo@ioAdhesiveMissileWeapon4@@PAU23@00@Z PROC ; std::vector<ioAdhesiveMissileWeapon4::TargetInfo,std::allocator<ioAdhesiveMissileWeapon4::TargetInfo> >::_Umove<ioAdhesiveMissileWeapon4::TargetInfo *>, COMDAT
; _this$ = ecx

; 1322 : 		pointer _Umove(_Iter _First, _Iter _Last, pointer _Ptr)

  00000	55		 push	 ebp
  00001	8b ec		 mov	 ebp, esp

; 1323 : 		{	// move initializing [_First, _Last), using allocator
; 1324 : 		return (_Uninitialized_move(_First, _Last,
; 1325 : 			_Ptr, this->_Alval));

  00003	83 c1 0c	 add	 ecx, 12			; 0000000cH
  00006	51		 push	 ecx
  00007	ff 75 10	 push	 DWORD PTR __Ptr$[ebp]
  0000a	ff 75 0c	 push	 DWORD PTR __Last$[ebp]
  0000d	ff 75 08	 push	 DWORD PTR __First$[ebp]
  00010	e8 00 00 00 00	 call	 ??$_Uninitialized_move@PAUTargetInfo@ioAdhesiveMissileWeapon4@@PAU12@V?$allocator@UTargetInfo@ioAdhesiveMissileWeapon4@@@std@@@std@@YAPAUTargetInfo@ioAdhesiveMissileWeapon4@@PAU12@00AAV?$allocator@UTargetInfo@ioAdhesiveMissileWeapon4@@@0@@Z ; std::_Uninitialized_move<ioAdhesiveMissileWeapon4::TargetInfo *,ioAdhesiveMissileWeapon4::TargetInfo *,std::allocator<ioAdhesiveMissileWeapon4::TargetInfo> >
  00015	83 c4 10	 add	 esp, 16			; 00000010H

; 1326 : 		}

  00018	5d		 pop	 ebp
  00019	c2 0c 00	 ret	 12			; 0000000cH
??$_Umove@PAUTargetInfo@ioAdhesiveMissileWeapon4@@@?$vector@UTargetInfo@ioAdhesiveMissileWeapon4@@V?$allocator@UTargetInfo@ioAdhesiveMissileWeapon4@@@std@@@std@@IAEPAUTargetInfo@ioAdhesiveMissileWeapon4@@PAU23@00@Z ENDP ; std::vector<ioAdhesiveMissileWeapon4::TargetInfo,std::allocator<ioAdhesiveMissileWeapon4::TargetInfo> >::_Umove<ioAdhesiveMissileWeapon4::TargetInfo *>
_TEXT	ENDS
PUBLIC	??$_Uninitialized_move@PAVioHashString@@PAV1@V?$allocator@VioHashString@@@std@@@std@@YAPAVioHashString@@PAV1@00AAV?$allocator@VioHashString@@@0@@Z ; std::_Uninitialized_move<ioHashString *,ioHashString *,std::allocator<ioHashString> >
; Function compile flags: /Ogsp
; File c:\program files (x86)\microsoft visual studio 10.0\vc\include\memory
;	COMDAT ??$_Uninitialized_move@PAVioHashString@@PAV1@V?$allocator@VioHashString@@@std@@@std@@YAPAVioHashString@@PAV1@00AAV?$allocator@VioHashString@@@0@@Z
_TEXT	SEGMENT
__Cat$536618 = -4					; size = 1
__First$ = 8						; size = 4
__Last$ = 12						; size = 4
__Dest$ = 16						; size = 4
__Al$ = 20						; size = 4
??$_Uninitialized_move@PAVioHashString@@PAV1@V?$allocator@VioHashString@@@std@@@std@@YAPAVioHashString@@PAV1@00AAV?$allocator@VioHashString@@@0@@Z PROC ; std::_Uninitialized_move<ioHashString *,ioHashString *,std::allocator<ioHashString> >, COMDAT

; 469  : 	{	// move [_First, _Last) to raw _Dest, using _Al

  00000	55		 push	 ebp
  00001	8b ec		 mov	 ebp, esp
  00003	51		 push	 ecx

; 470  : 	return (_Uninit_move(_First, _Last, _Dest, _Al,
; 471  : 		_Val_type(_First), _Ptr_cat(_First, _Dest)));

  00004	ff 75 fc	 push	 DWORD PTR __Cat$536618[ebp]
  00007	6a 00		 push	 0
  00009	ff 75 14	 push	 DWORD PTR __Al$[ebp]
  0000c	ff 75 10	 push	 DWORD PTR __Dest$[ebp]
  0000f	ff 75 0c	 push	 DWORD PTR __Last$[ebp]
  00012	ff 75 08	 push	 DWORD PTR __First$[ebp]
  00015	e8 00 00 00 00	 call	 ??$_Uninit_move@PAVioHashString@@PAV1@V?$allocator@VioHashString@@@std@@V1@@std@@YAPAVioHashString@@PAV1@00AAV?$allocator@VioHashString@@@0@0U_Nonscalar_ptr_iterator_tag@0@@Z ; std::_Uninit_move<ioHashString *,ioHashString *,std::allocator<ioHashString>,ioHashString>
  0001a	83 c4 18	 add	 esp, 24			; 00000018H

; 472  : 	}

  0001d	c9		 leave
  0001e	c3		 ret	 0
??$_Uninitialized_move@PAVioHashString@@PAV1@V?$allocator@VioHashString@@@std@@@std@@YAPAVioHashString@@PAV1@00AAV?$allocator@VioHashString@@@0@@Z ENDP ; std::_Uninitialized_move<ioHashString *,ioHashString *,std::allocator<ioHashString> >
_TEXT	ENDS
PUBLIC	??$_Destroy_range@V?$allocator@VioHashString@@@std@@@std@@YAXPAVioHashString@@0AAV?$allocator@VioHashString@@@0@@Z ; std::_Destroy_range<std::allocator<ioHashString> >
; Function compile flags: /Ogsp
; File c:\program files (x86)\microsoft visual studio 10.0\vc\include\xmemory
;	COMDAT ??$_Destroy_range@V?$allocator@VioHashString@@@std@@@std@@YAXPAVioHashString@@0AAV?$allocator@VioHashString@@@0@@Z
_TEXT	SEGMENT
__First$ = 8						; size = 4
__Last$ = 12						; size = 4
__Al$ = 16						; size = 4
??$_Destroy_range@V?$allocator@VioHashString@@@std@@@std@@YAXPAVioHashString@@0AAV?$allocator@VioHashString@@@0@@Z PROC ; std::_Destroy_range<std::allocator<ioHashString> >, COMDAT

; 87   : 	{	// destroy [_First, _Last)

  00000	55		 push	 ebp
  00001	8b ec		 mov	 ebp, esp
  00003	56		 push	 esi

; 88   : 	_Destroy_range(_First, _Last, _Al, _Ptr_cat(_First, _Last));

  00004	8b 75 08	 mov	 esi, DWORD PTR __First$[ebp]
  00007	eb 0b		 jmp	 SHORT $LN21@Destroy_ra@4
$LL7@Destroy_ra@4:
  00009	8b ce		 mov	 ecx, esi
  0000b	ff 15 00 00 00
	00		 call	 DWORD PTR __imp_??1ioHashString@@QAE@XZ
  00011	83 c6 10	 add	 esi, 16			; 00000010H
$LN21@Destroy_ra@4:
  00014	3b 75 0c	 cmp	 esi, DWORD PTR __Last$[ebp]
  00017	75 f0		 jne	 SHORT $LL7@Destroy_ra@4
  00019	5e		 pop	 esi

; 89   : 	}

  0001a	5d		 pop	 ebp
  0001b	c3		 ret	 0
??$_Destroy_range@V?$allocator@VioHashString@@@std@@@std@@YAXPAVioHashString@@0AAV?$allocator@VioHashString@@@0@@Z ENDP ; std::_Destroy_range<std::allocator<ioHashString> >
_TEXT	ENDS
PUBLIC	?_Destroy@?$vector@UTargetInfo@ioAdhesiveMissileWeapon4@@V?$allocator@UTargetInfo@ioAdhesiveMissileWeapon4@@@std@@@std@@IAEXPAUTargetInfo@ioAdhesiveMissileWeapon4@@0@Z ; std::vector<ioAdhesiveMissileWeapon4::TargetInfo,std::allocator<ioAdhesiveMissileWeapon4::TargetInfo> >::_Destroy
; Function compile flags: /Ogsp
; File c:\program files (x86)\microsoft visual studio 10.0\vc\include\vector
;	COMDAT ?_Destroy@?$vector@UTargetInfo@ioAdhesiveMissileWeapon4@@V?$allocator@UTargetInfo@ioAdhesiveMissileWeapon4@@@std@@@std@@IAEXPAUTargetInfo@ioAdhesiveMissileWeapon4@@0@Z
_TEXT	SEGMENT
__First$ = 8						; size = 4
__Last$ = 12						; size = 4
?_Destroy@?$vector@UTargetInfo@ioAdhesiveMissileWeapon4@@V?$allocator@UTargetInfo@ioAdhesiveMissileWeapon4@@@std@@@std@@IAEXPAUTargetInfo@ioAdhesiveMissileWeapon4@@0@Z PROC ; std::vector<ioAdhesiveMissileWeapon4::TargetInfo,std::allocator<ioAdhesiveMissileWeapon4::TargetInfo> >::_Destroy, COMDAT
; _this$ = ecx

; 1269 : 		{	// destroy [_First, _Last) using allocator

  00000	55		 push	 ebp
  00001	8b ec		 mov	 ebp, esp
  00003	56		 push	 esi

; 1270 : 		_Destroy_range(_First, _Last, this->_Alval);

  00004	8b 75 08	 mov	 esi, DWORD PTR __First$[ebp]
  00007	eb 0b		 jmp	 SHORT $LN26@Destroy
$LL9@Destroy:
  00009	8b ce		 mov	 ecx, esi
  0000b	ff 15 00 00 00
	00		 call	 DWORD PTR __imp_??1ioHashString@@QAE@XZ
  00011	83 c6 18	 add	 esi, 24			; 00000018H
$LN26@Destroy:
  00014	3b 75 0c	 cmp	 esi, DWORD PTR __Last$[ebp]
  00017	75 f0		 jne	 SHORT $LL9@Destroy
  00019	5e		 pop	 esi

; 1271 : 		}

  0001a	5d		 pop	 ebp
  0001b	c2 08 00	 ret	 8
?_Destroy@?$vector@UTargetInfo@ioAdhesiveMissileWeapon4@@V?$allocator@UTargetInfo@ioAdhesiveMissileWeapon4@@@std@@@std@@IAEXPAUTargetInfo@ioAdhesiveMissileWeapon4@@0@Z ENDP ; std::vector<ioAdhesiveMissileWeapon4::TargetInfo,std::allocator<ioAdhesiveMissileWeapon4::TargetInfo> >::_Destroy
_TEXT	ENDS
PUBLIC	?_Tidy@?$vector@UTargetInfo@ioAdhesiveMissileWeapon4@@V?$allocator@UTargetInfo@ioAdhesiveMissileWeapon4@@@std@@@std@@IAEXXZ ; std::vector<ioAdhesiveMissileWeapon4::TargetInfo,std::allocator<ioAdhesiveMissileWeapon4::TargetInfo> >::_Tidy
EXTRN	__imp_?_Orphan_all@_Container_base0@std@@QAEXXZ:PROC
; Function compile flags: /Ogsp
;	COMDAT ?_Tidy@?$vector@UTargetInfo@ioAdhesiveMissileWeapon4@@V?$allocator@UTargetInfo@ioAdhesiveMissileWeapon4@@@std@@@std@@IAEXXZ
_TEXT	SEGMENT
?_Tidy@?$vector@UTargetInfo@ioAdhesiveMissileWeapon4@@V?$allocator@UTargetInfo@ioAdhesiveMissileWeapon4@@@std@@@std@@IAEXXZ PROC ; std::vector<ioAdhesiveMissileWeapon4::TargetInfo,std::allocator<ioAdhesiveMissileWeapon4::TargetInfo> >::_Tidy, COMDAT
; _this$ = ecx

; 1301 : 		{	// free all storage

  00000	56		 push	 esi
  00001	8b f1		 mov	 esi, ecx

; 1302 : 		if (this->_Myfirst != 0)

  00003	83 3e 00	 cmp	 DWORD PTR [esi], 0
  00006	74 28		 je	 SHORT $LN27@Tidy

; 1303 : 			{	// something to free, destroy and deallocate it
; 1304 : 			this->_Orphan_all();

  00008	53		 push	 ebx
  00009	57		 push	 edi
  0000a	ff 15 00 00 00
	00		 call	 DWORD PTR __imp_?_Orphan_all@_Container_base0@std@@QAEXXZ

; 1305 : 			_Destroy(this->_Myfirst, this->_Mylast);

  00010	8b 5e 04	 mov	 ebx, DWORD PTR [esi+4]
  00013	8b 3e		 mov	 edi, DWORD PTR [esi]
  00015	eb 0b		 jmp	 SHORT $LN31@Tidy
$LL12@Tidy:
  00017	8b cf		 mov	 ecx, edi
  00019	ff 15 00 00 00
	00		 call	 DWORD PTR __imp_??1ioHashString@@QAE@XZ
  0001f	83 c7 18	 add	 edi, 24			; 00000018H
$LN31@Tidy:
  00022	3b fb		 cmp	 edi, ebx
  00024	75 f1		 jne	 SHORT $LL12@Tidy

; 1306 : 			this->_Alval.deallocate(this->_Myfirst,
; 1307 : 				this->_Myend - this->_Myfirst);

  00026	ff 36		 push	 DWORD PTR [esi]
  00028	e8 00 00 00 00	 call	 ??3@YAXPAX@Z		; operator delete
  0002d	59		 pop	 ecx
  0002e	5f		 pop	 edi
  0002f	5b		 pop	 ebx
$LN27@Tidy:

; 1308 : 			}
; 1309 : 		this->_Myfirst = 0;

  00030	33 c0		 xor	 eax, eax
  00032	89 06		 mov	 DWORD PTR [esi], eax

; 1310 : 		this->_Mylast = 0;

  00034	89 46 04	 mov	 DWORD PTR [esi+4], eax

; 1311 : 		this->_Myend = 0;

  00037	89 46 08	 mov	 DWORD PTR [esi+8], eax
  0003a	5e		 pop	 esi

; 1312 : 		}

  0003b	c3		 ret	 0
?_Tidy@?$vector@UTargetInfo@ioAdhesiveMissileWeapon4@@V?$allocator@UTargetInfo@ioAdhesiveMissileWeapon4@@@std@@@std@@IAEXXZ ENDP ; std::vector<ioAdhesiveMissileWeapon4::TargetInfo,std::allocator<ioAdhesiveMissileWeapon4::TargetInfo> >::_Tidy
_TEXT	ENDS
PUBLIC	?reserve@?$vector@UTargetInfo@ioAdhesiveMissileWeapon4@@V?$allocator@UTargetInfo@ioAdhesiveMissileWeapon4@@@std@@@std@@QAEXI@Z ; std::vector<ioAdhesiveMissileWeapon4::TargetInfo,std::allocator<ioAdhesiveMissileWeapon4::TargetInfo> >::reserve
;	COMDAT xdata$x
; File c:\program files (x86)\microsoft visual studio 10.0\vc\include\xmemory
xdata$x	SEGMENT
__catchsym$?reserve@?$vector@UTargetInfo@ioAdhesiveMissileWeapon4@@V?$allocator@UTargetInfo@ioAdhesiveMissileWeapon4@@@std@@@std@@QAEXI@Z$3 DD 040H
	DD	00H
	DD	00H
	DD	FLAT:__catch$?reserve@?$vector@UTargetInfo@ioAdhesiveMissileWeapon4@@V?$allocator@UTargetInfo@ioAdhesiveMissileWeapon4@@@std@@@std@@QAEXI@Z$0
__unwindtable$?reserve@?$vector@UTargetInfo@ioAdhesiveMissileWeapon4@@V?$allocator@UTargetInfo@ioAdhesiveMissileWeapon4@@@std@@@std@@QAEXI@Z DD 0ffffffffH
	DD	00H
	DD	0ffffffffH
	DD	00H
__tryblocktable$?reserve@?$vector@UTargetInfo@ioAdhesiveMissileWeapon4@@V?$allocator@UTargetInfo@ioAdhesiveMissileWeapon4@@@std@@@std@@QAEXI@Z DD 00H
	DD	00H
	DD	01H
	DD	01H
	DD	FLAT:__catchsym$?reserve@?$vector@UTargetInfo@ioAdhesiveMissileWeapon4@@V?$allocator@UTargetInfo@ioAdhesiveMissileWeapon4@@@std@@@std@@QAEXI@Z$3
__ehfuncinfo$?reserve@?$vector@UTargetInfo@ioAdhesiveMissileWeapon4@@V?$allocator@UTargetInfo@ioAdhesiveMissileWeapon4@@@std@@@std@@QAEXI@Z DD 019930522H
	DD	02H
	DD	FLAT:__unwindtable$?reserve@?$vector@UTargetInfo@ioAdhesiveMissileWeapon4@@V?$allocator@UTargetInfo@ioAdhesiveMissileWeapon4@@@std@@@std@@QAEXI@Z
	DD	01H
	DD	FLAT:__tryblocktable$?reserve@?$vector@UTargetInfo@ioAdhesiveMissileWeapon4@@V?$allocator@UTargetInfo@ioAdhesiveMissileWeapon4@@@std@@@std@@QAEXI@Z
	DD	2 DUP(00H)
	DD	00H
	DD	01H
; Function compile flags: /Ogsp
; File c:\program files (x86)\microsoft visual studio 10.0\vc\include\vector
xdata$x	ENDS
;	COMDAT ?reserve@?$vector@UTargetInfo@ioAdhesiveMissileWeapon4@@V?$allocator@UTargetInfo@ioAdhesiveMissileWeapon4@@@std@@@std@@QAEXI@Z
_TEXT	SEGMENT
__Ptr$533285 = -24					; size = 4
$T536998 = -20						; size = 4
__$EHRec$ = -16						; size = 16
__Count$ = 8						; size = 4
?reserve@?$vector@UTargetInfo@ioAdhesiveMissileWeapon4@@V?$allocator@UTargetInfo@ioAdhesiveMissileWeapon4@@@std@@@std@@QAEXI@Z PROC ; std::vector<ioAdhesiveMissileWeapon4::TargetInfo,std::allocator<ioAdhesiveMissileWeapon4::TargetInfo> >::reserve, COMDAT
; _this$ = ecx

; 746  : 		{	// determine new minimum length of allocated storage

  00000	6a 0c		 push	 12			; 0000000cH
  00002	b8 00 00 00 00	 mov	 eax, __ehhandler$?reserve@?$vector@UTargetInfo@ioAdhesiveMissileWeapon4@@V?$allocator@UTargetInfo@ioAdhesiveMissileWeapon4@@@std@@@std@@QAEXI@Z
  00007	e8 00 00 00 00	 call	 __EH_prolog3_catch
  0000c	8b f1		 mov	 esi, ecx

; 747  : 		if (max_size() < _Count)

  0000e	81 7d 08 aa aa
	aa 0a		 cmp	 DWORD PTR __Count$[ebp], 178956970 ; 0aaaaaaaH
  00015	76 0b		 jbe	 SHORT $LN5@reserve

; 748  : 			_Xlen();	// result too long

  00017	68 00 00 00 00	 push	 OFFSET ??_C@_0BD@OLBABOEK@vector?$DMT?$DO?5too?5long?$AA@
  0001c	ff 15 00 00 00
	00		 call	 DWORD PTR __imp_?_Xlength_error@std@@YAXPBD@Z
$LN62@reserve:
$LN5@reserve:

; 749  : 		else if (capacity() < _Count)

  00022	8b 46 08	 mov	 eax, DWORD PTR [esi+8]
  00025	2b 06		 sub	 eax, DWORD PTR [esi]
  00027	6a 18		 push	 24			; 00000018H
  00029	99		 cdq
  0002a	59		 pop	 ecx
  0002b	f7 f9		 idiv	 ecx
  0002d	3b 45 08	 cmp	 eax, DWORD PTR __Count$[ebp]
  00030	0f 83 81 00 00
	00		 jae	 $LN3@reserve

; 750  : 			{	// not enough room, reallocate
; 751  : 			pointer _Ptr = this->_Alval.allocate(_Count);

  00036	6a 00		 push	 0
  00038	ff 75 08	 push	 DWORD PTR __Count$[ebp]
  0003b	e8 00 00 00 00	 call	 ??$_Allocate@UTargetInfo@ioAdhesiveMissileWeapon4@@@std@@YAPAUTargetInfo@ioAdhesiveMissileWeapon4@@IPAU12@@Z ; std::_Allocate<ioAdhesiveMissileWeapon4::TargetInfo>

; 752  : 
; 753  : 			_TRY_BEGIN
; 754  : 			_Umove(this->_Myfirst, this->_Mylast, _Ptr);

  00040	8b 0e		 mov	 ecx, DWORD PTR [esi]
  00042	83 65 fc 00	 and	 DWORD PTR __$EHRec$[ebp+12], 0
  00046	8d 56 0c	 lea	 edx, DWORD PTR [esi+12]
  00049	52		 push	 edx
  0004a	89 45 e8	 mov	 DWORD PTR __Ptr$533285[ebp], eax
  0004d	ff 75 e8	 push	 DWORD PTR __Ptr$533285[ebp]
  00050	8b 46 04	 mov	 eax, DWORD PTR [esi+4]
  00053	50		 push	 eax
  00054	51		 push	 ecx
  00055	e8 00 00 00 00	 call	 ??$_Uninitialized_move@PAUTargetInfo@ioAdhesiveMissileWeapon4@@PAU12@V?$allocator@UTargetInfo@ioAdhesiveMissileWeapon4@@@std@@@std@@YAPAUTargetInfo@ioAdhesiveMissileWeapon4@@PAU12@00AAV?$allocator@UTargetInfo@ioAdhesiveMissileWeapon4@@@0@@Z ; std::_Uninitialized_move<ioAdhesiveMissileWeapon4::TargetInfo *,ioAdhesiveMissileWeapon4::TargetInfo *,std::allocator<ioAdhesiveMissileWeapon4::TargetInfo> >

; 758  : 			_CATCH_END
; 759  : 
; 760  : 			size_type _Size = size();

  0005a	8b 5e 04	 mov	 ebx, DWORD PTR [esi+4]
  0005d	8b 0e		 mov	 ecx, DWORD PTR [esi]
  0005f	83 c4 18	 add	 esp, 24			; 00000018H
  00062	8b c3		 mov	 eax, ebx
  00064	2b c1		 sub	 eax, ecx
  00066	6a 18		 push	 24			; 00000018H
  00068	99		 cdq
  00069	5f		 pop	 edi
  0006a	f7 ff		 idiv	 edi
  0006c	83 4d fc ff	 or	 DWORD PTR __$EHRec$[ebp+12], -1
  00070	8b f8		 mov	 edi, eax
  00072	85 c9		 test	 ecx, ecx
  00074	74 21		 je	 SHORT $LN54@reserve

; 761  : 			if (this->_Myfirst != 0)
; 762  : 				{	// destroy and deallocate old array
; 763  : 				_Destroy(this->_Myfirst, this->_Mylast);

  00076	89 4d ec	 mov	 DWORD PTR $T536998[ebp], ecx
  00079	3b cb		 cmp	 ecx, ebx
  0007b	74 12		 je	 SHORT $LN37@reserve
$LN39@reserve:
  0007d	8b 4d ec	 mov	 ecx, DWORD PTR $T536998[ebp]
  00080	ff 15 00 00 00
	00		 call	 DWORD PTR __imp_??1ioHashString@@QAE@XZ
  00086	83 45 ec 18	 add	 DWORD PTR $T536998[ebp], 24 ; 00000018H
  0008a	39 5d ec	 cmp	 DWORD PTR $T536998[ebp], ebx
  0008d	75 ee		 jne	 SHORT $LN39@reserve
$LN37@reserve:

; 764  : 				this->_Alval.deallocate(this->_Myfirst,
; 765  : 					this->_Myend - this->_Myfirst);

  0008f	ff 36		 push	 DWORD PTR [esi]
  00091	e8 00 00 00 00	 call	 ??3@YAXPAX@Z		; operator delete
  00096	59		 pop	 ecx
$LN54@reserve:

; 766  : 				}
; 767  : 
; 768  : 			this->_Orphan_all();

  00097	8b ce		 mov	 ecx, esi
  00099	ff 15 00 00 00
	00		 call	 DWORD PTR __imp_?_Orphan_all@_Container_base0@std@@QAEXXZ

; 769  : 			this->_Myend = _Ptr + _Count;
; 770  : 			this->_Mylast = _Ptr + _Size;

  0009f	6b ff 18	 imul	 edi, 24			; 00000018H
  000a2	8b 45 08	 mov	 eax, DWORD PTR __Count$[ebp]
  000a5	8b 4d e8	 mov	 ecx, DWORD PTR __Ptr$533285[ebp]
  000a8	6b c0 18	 imul	 eax, 24			; 00000018H
  000ab	03 c1		 add	 eax, ecx
  000ad	03 f9		 add	 edi, ecx
  000af	89 46 08	 mov	 DWORD PTR [esi+8], eax
  000b2	89 7e 04	 mov	 DWORD PTR [esi+4], edi

; 771  : 			this->_Myfirst = _Ptr;

  000b5	89 0e		 mov	 DWORD PTR [esi], ecx
$LN3@reserve:

; 772  : 			}
; 773  : 		}

  000b7	e8 00 00 00 00	 call	 __EH_epilog3
  000bc	c2 04 00	 ret	 4
__catch$?reserve@?$vector@UTargetInfo@ioAdhesiveMissileWeapon4@@V?$allocator@UTargetInfo@ioAdhesiveMissileWeapon4@@@std@@@std@@QAEXI@Z$0:

; 755  : 			_CATCH_ALL
; 756  : 			this->_Alval.deallocate(_Ptr, _Count);

  000bf	ff 75 e8	 push	 DWORD PTR __Ptr$533285[ebp]
  000c2	e8 00 00 00 00	 call	 ??3@YAXPAX@Z		; operator delete
  000c7	59		 pop	 ecx

; 757  : 			_RERAISE;

  000c8	6a 00		 push	 0
  000ca	6a 00		 push	 0
  000cc	e8 00 00 00 00	 call	 __CxxThrowException@8
$LN63@reserve:
$LN61@reserve:
  000d1	cc		 int	 3
_TEXT	ENDS
;	COMDAT text$x
text$x	SEGMENT
__ehhandler$?reserve@?$vector@UTargetInfo@ioAdhesiveMissileWeapon4@@V?$allocator@UTargetInfo@ioAdhesiveMissileWeapon4@@@std@@@std@@QAEXI@Z:
  00000	8b 54 24 08	 mov	 edx, DWORD PTR [esp+8]
  00004	8d 42 0c	 lea	 eax, DWORD PTR [edx+12]
  00007	8b 4a e4	 mov	 ecx, DWORD PTR [edx-28]
  0000a	33 c8		 xor	 ecx, eax
  0000c	e8 00 00 00 00	 call	 @__security_check_cookie@4
  00011	b8 00 00 00 00	 mov	 eax, OFFSET __ehfuncinfo$?reserve@?$vector@UTargetInfo@ioAdhesiveMissileWeapon4@@V?$allocator@UTargetInfo@ioAdhesiveMissileWeapon4@@@std@@@std@@QAEXI@Z
  00016	e9 00 00 00 00	 jmp	 ___CxxFrameHandler3
text$x	ENDS
?reserve@?$vector@UTargetInfo@ioAdhesiveMissileWeapon4@@V?$allocator@UTargetInfo@ioAdhesiveMissileWeapon4@@@std@@@std@@QAEXI@Z ENDP ; std::vector<ioAdhesiveMissileWeapon4::TargetInfo,std::allocator<ioAdhesiveMissileWeapon4::TargetInfo> >::reserve
PUBLIC	??$_Umove@PAVioHashString@@@?$vector@VioHashString@@V?$allocator@VioHashString@@@std@@@std@@IAEPAVioHashString@@PAV2@00@Z ; std::vector<ioHashString,std::allocator<ioHashString> >::_Umove<ioHashString *>
; Function compile flags: /Ogsp
;	COMDAT ??$_Umove@PAVioHashString@@@?$vector@VioHashString@@V?$allocator@VioHashString@@@std@@@std@@IAEPAVioHashString@@PAV2@00@Z
_TEXT	SEGMENT
__First$ = 8						; size = 4
__Last$ = 12						; size = 4
__Ptr$ = 16						; size = 4
??$_Umove@PAVioHashString@@@?$vector@VioHashString@@V?$allocator@VioHashString@@@std@@@std@@IAEPAVioHashString@@PAV2@00@Z PROC ; std::vector<ioHashString,std::allocator<ioHashString> >::_Umove<ioHashString *>, COMDAT
; _this$ = ecx

; 1322 : 		pointer _Umove(_Iter _First, _Iter _Last, pointer _Ptr)

  00000	55		 push	 ebp
  00001	8b ec		 mov	 ebp, esp

; 1323 : 		{	// move initializing [_First, _Last), using allocator
; 1324 : 		return (_Uninitialized_move(_First, _Last,
; 1325 : 			_Ptr, this->_Alval));

  00003	83 c1 0c	 add	 ecx, 12			; 0000000cH
  00006	51		 push	 ecx
  00007	ff 75 10	 push	 DWORD PTR __Ptr$[ebp]
  0000a	ff 75 0c	 push	 DWORD PTR __Last$[ebp]
  0000d	ff 75 08	 push	 DWORD PTR __First$[ebp]
  00010	e8 00 00 00 00	 call	 ??$_Uninitialized_move@PAVioHashString@@PAV1@V?$allocator@VioHashString@@@std@@@std@@YAPAVioHashString@@PAV1@00AAV?$allocator@VioHashString@@@0@@Z ; std::_Uninitialized_move<ioHashString *,ioHashString *,std::allocator<ioHashString> >
  00015	83 c4 10	 add	 esp, 16			; 00000010H

; 1326 : 		}

  00018	5d		 pop	 ebp
  00019	c2 0c 00	 ret	 12			; 0000000cH
??$_Umove@PAVioHashString@@@?$vector@VioHashString@@V?$allocator@VioHashString@@@std@@@std@@IAEPAVioHashString@@PAV2@00@Z ENDP ; std::vector<ioHashString,std::allocator<ioHashString> >::_Umove<ioHashString *>
_TEXT	ENDS
PUBLIC	?_Destroy@?$vector@VioHashString@@V?$allocator@VioHashString@@@std@@@std@@IAEXPAVioHashString@@0@Z ; std::vector<ioHashString,std::allocator<ioHashString> >::_Destroy
; Function compile flags: /Ogsp
;	COMDAT ?_Destroy@?$vector@VioHashString@@V?$allocator@VioHashString@@@std@@@std@@IAEXPAVioHashString@@0@Z
_TEXT	SEGMENT
__First$ = 8						; size = 4
__Last$ = 12						; size = 4
?_Destroy@?$vector@VioHashString@@V?$allocator@VioHashString@@@std@@@std@@IAEXPAVioHashString@@0@Z PROC ; std::vector<ioHashString,std::allocator<ioHashString> >::_Destroy, COMDAT
; _this$ = ecx

; 1269 : 		{	// destroy [_First, _Last) using allocator

  00000	55		 push	 ebp
  00001	8b ec		 mov	 ebp, esp
  00003	56		 push	 esi

; 1270 : 		_Destroy_range(_First, _Last, this->_Alval);

  00004	8b 75 08	 mov	 esi, DWORD PTR __First$[ebp]
  00007	eb 0b		 jmp	 SHORT $LN23@Destroy@2
$LL9@Destroy@2:
  00009	8b ce		 mov	 ecx, esi
  0000b	ff 15 00 00 00
	00		 call	 DWORD PTR __imp_??1ioHashString@@QAE@XZ
  00011	83 c6 10	 add	 esi, 16			; 00000010H
$LN23@Destroy@2:
  00014	3b 75 0c	 cmp	 esi, DWORD PTR __Last$[ebp]
  00017	75 f0		 jne	 SHORT $LL9@Destroy@2
  00019	5e		 pop	 esi

; 1271 : 		}

  0001a	5d		 pop	 ebp
  0001b	c2 08 00	 ret	 8
?_Destroy@?$vector@VioHashString@@V?$allocator@VioHashString@@@std@@@std@@IAEXPAVioHashString@@0@Z ENDP ; std::vector<ioHashString,std::allocator<ioHashString> >::_Destroy
_TEXT	ENDS
PUBLIC	??1?$vector@UTargetInfo@ioAdhesiveMissileWeapon4@@V?$allocator@UTargetInfo@ioAdhesiveMissileWeapon4@@@std@@@std@@QAE@XZ ; std::vector<ioAdhesiveMissileWeapon4::TargetInfo,std::allocator<ioAdhesiveMissileWeapon4::TargetInfo> >::~vector<ioAdhesiveMissileWeapon4::TargetInfo,std::allocator<ioAdhesiveMissileWeapon4::TargetInfo> >
; Function compile flags: /Ogsp
;	COMDAT ??1?$vector@UTargetInfo@ioAdhesiveMissileWeapon4@@V?$allocator@UTargetInfo@ioAdhesiveMissileWeapon4@@@std@@@std@@QAE@XZ
_TEXT	SEGMENT
??1?$vector@UTargetInfo@ioAdhesiveMissileWeapon4@@V?$allocator@UTargetInfo@ioAdhesiveMissileWeapon4@@@std@@@std@@QAE@XZ PROC ; std::vector<ioAdhesiveMissileWeapon4::TargetInfo,std::allocator<ioAdhesiveMissileWeapon4::TargetInfo> >::~vector<ioAdhesiveMissileWeapon4::TargetInfo,std::allocator<ioAdhesiveMissileWeapon4::TargetInfo> >, COMDAT
; _this$ = ecx

; 705  : 		_Tidy();

  00000	e9 00 00 00 00	 jmp	 ?_Tidy@?$vector@UTargetInfo@ioAdhesiveMissileWeapon4@@V?$allocator@UTargetInfo@ioAdhesiveMissileWeapon4@@@std@@@std@@IAEXXZ ; std::vector<ioAdhesiveMissileWeapon4::TargetInfo,std::allocator<ioAdhesiveMissileWeapon4::TargetInfo> >::_Tidy
??1?$vector@UTargetInfo@ioAdhesiveMissileWeapon4@@V?$allocator@UTargetInfo@ioAdhesiveMissileWeapon4@@@std@@@std@@QAE@XZ ENDP ; std::vector<ioAdhesiveMissileWeapon4::TargetInfo,std::allocator<ioAdhesiveMissileWeapon4::TargetInfo> >::~vector<ioAdhesiveMissileWeapon4::TargetInfo,std::allocator<ioAdhesiveMissileWeapon4::TargetInfo> >
_TEXT	ENDS
PUBLIC	?erase@?$vector@UTargetInfo@ioAdhesiveMissileWeapon4@@V?$allocator@UTargetInfo@ioAdhesiveMissileWeapon4@@@std@@@std@@QAE?AV?$_Vector_iterator@V?$_Vector_val@UTargetInfo@ioAdhesiveMissileWeapon4@@V?$allocator@UTargetInfo@ioAdhesiveMissileWeapon4@@@std@@@std@@@2@V?$_Vector_const_iterator@V?$_Vector_val@UTargetInfo@ioAdhesiveMissileWeapon4@@V?$allocator@UTargetInfo@ioAdhesiveMissileWeapon4@@@std@@@std@@@2@@Z ; std::vector<ioAdhesiveMissileWeapon4::TargetInfo,std::allocator<ioAdhesiveMissileWeapon4::TargetInfo> >::erase
; Function compile flags: /Ogsp
;	COMDAT ?erase@?$vector@UTargetInfo@ioAdhesiveMissileWeapon4@@V?$allocator@UTargetInfo@ioAdhesiveMissileWeapon4@@@std@@@std@@QAE?AV?$_Vector_iterator@V?$_Vector_val@UTargetInfo@ioAdhesiveMissileWeapon4@@V?$allocator@UTargetInfo@ioAdhesiveMissileWeapon4@@@std@@@std@@@2@V?$_Vector_const_iterator@V?$_Vector_val@UTargetInfo@ioAdhesiveMissileWeapon4@@V?$allocator@UTargetInfo@ioAdhesiveMissileWeapon4@@@std@@@std@@@2@@Z
_TEXT	SEGMENT
___$ReturnUdt$ = 8					; size = 4
__Cat$537164 = 12					; size = 1
__Where$ = 12						; size = 4
?erase@?$vector@UTargetInfo@ioAdhesiveMissileWeapon4@@V?$allocator@UTargetInfo@ioAdhesiveMissileWeapon4@@@std@@@std@@QAE?AV?$_Vector_iterator@V?$_Vector_val@UTargetInfo@ioAdhesiveMissileWeapon4@@V?$allocator@UTargetInfo@ioAdhesiveMissileWeapon4@@@std@@@std@@@2@V?$_Vector_const_iterator@V?$_Vector_val@UTargetInfo@ioAdhesiveMissileWeapon4@@V?$allocator@UTargetInfo@ioAdhesiveMissileWeapon4@@@std@@@std@@@2@@Z PROC ; std::vector<ioAdhesiveMissileWeapon4::TargetInfo,std::allocator<ioAdhesiveMissileWeapon4::TargetInfo> >::erase, COMDAT
; _this$ = ecx

; 1179 : 		{	// erase element at where

  00000	55		 push	 ebp
  00001	8b ec		 mov	 ebp, esp

; 1180 : 		_Move(_VIPTR(_Where) + 1, this->_Mylast,
; 1181 : 			_VIPTR(_Where));

  00003	8b 45 0c	 mov	 eax, DWORD PTR __Where$[ebp]
  00006	53		 push	 ebx
  00007	56		 push	 esi
  00008	57		 push	 edi
  00009	ff 75 0c	 push	 DWORD PTR __Cat$537164[ebp]
  0000c	8b f1		 mov	 esi, ecx
  0000e	50		 push	 eax
  0000f	ff 76 04	 push	 DWORD PTR [esi+4]
  00012	83 c0 18	 add	 eax, 24			; 00000018H
  00015	50		 push	 eax
  00016	e8 00 00 00 00	 call	 ??$_Move@PAUTargetInfo@ioAdhesiveMissileWeapon4@@PAU12@@std@@YAPAUTargetInfo@ioAdhesiveMissileWeapon4@@PAU12@00U_Nonscalar_ptr_iterator_tag@0@@Z ; std::_Move<ioAdhesiveMissileWeapon4::TargetInfo *,ioAdhesiveMissileWeapon4::TargetInfo *>

; 1182 : 		_Destroy(this->_Mylast - 1, this->_Mylast);

  0001b	8b 7e 04	 mov	 edi, DWORD PTR [esi+4]
  0001e	83 c4 10	 add	 esp, 16			; 00000010H
  00021	8d 5f e8	 lea	 ebx, DWORD PTR [edi-24]
  00024	eb 0b		 jmp	 SHORT $LN40@erase
$LL15@erase:
  00026	8b cb		 mov	 ecx, ebx
  00028	ff 15 00 00 00
	00		 call	 DWORD PTR __imp_??1ioHashString@@QAE@XZ
  0002e	83 c3 18	 add	 ebx, 24			; 00000018H
$LN40@erase:
  00031	3b df		 cmp	 ebx, edi
  00033	75 f1		 jne	 SHORT $LL15@erase

; 1183 : 		--this->_Mylast;

  00035	83 46 04 e8	 add	 DWORD PTR [esi+4], -24	; ffffffe8H

; 1184 : 		return (_Make_iter(_Where));

  00039	8b 45 08	 mov	 eax, DWORD PTR ___$ReturnUdt$[ebp]
  0003c	8b 4d 0c	 mov	 ecx, DWORD PTR __Where$[ebp]
  0003f	5f		 pop	 edi
  00040	5e		 pop	 esi
  00041	89 08		 mov	 DWORD PTR [eax], ecx
  00043	5b		 pop	 ebx

; 1185 : 		}

  00044	5d		 pop	 ebp
  00045	c2 08 00	 ret	 8
?erase@?$vector@UTargetInfo@ioAdhesiveMissileWeapon4@@V?$allocator@UTargetInfo@ioAdhesiveMissileWeapon4@@@std@@@std@@QAE?AV?$_Vector_iterator@V?$_Vector_val@UTargetInfo@ioAdhesiveMissileWeapon4@@V?$allocator@UTargetInfo@ioAdhesiveMissileWeapon4@@@std@@@std@@@2@V?$_Vector_const_iterator@V?$_Vector_val@UTargetInfo@ioAdhesiveMissileWeapon4@@V?$allocator@UTargetInfo@ioAdhesiveMissileWeapon4@@@std@@@std@@@2@@Z ENDP ; std::vector<ioAdhesiveMissileWeapon4::TargetInfo,std::allocator<ioAdhesiveMissileWeapon4::TargetInfo> >::erase
_TEXT	ENDS
PUBLIC	?erase@?$vector@UTargetInfo@ioAdhesiveMissileWeapon4@@V?$allocator@UTargetInfo@ioAdhesiveMissileWeapon4@@@std@@@std@@QAE?AV?$_Vector_iterator@V?$_Vector_val@UTargetInfo@ioAdhesiveMissileWeapon4@@V?$allocator@UTargetInfo@ioAdhesiveMissileWeapon4@@@std@@@std@@@2@V?$_Vector_const_iterator@V?$_Vector_val@UTargetInfo@ioAdhesiveMissileWeapon4@@V?$allocator@UTargetInfo@ioAdhesiveMissileWeapon4@@@std@@@std@@@2@0@Z ; std::vector<ioAdhesiveMissileWeapon4::TargetInfo,std::allocator<ioAdhesiveMissileWeapon4::TargetInfo> >::erase
; Function compile flags: /Ogsp
;	COMDAT ?erase@?$vector@UTargetInfo@ioAdhesiveMissileWeapon4@@V?$allocator@UTargetInfo@ioAdhesiveMissileWeapon4@@@std@@@std@@QAE?AV?$_Vector_iterator@V?$_Vector_val@UTargetInfo@ioAdhesiveMissileWeapon4@@V?$allocator@UTargetInfo@ioAdhesiveMissileWeapon4@@@std@@@std@@@2@V?$_Vector_const_iterator@V?$_Vector_val@UTargetInfo@ioAdhesiveMissileWeapon4@@V?$allocator@UTargetInfo@ioAdhesiveMissileWeapon4@@@std@@@std@@@2@0@Z
_TEXT	SEGMENT
$T537450 = -4						; size = 4
___$ReturnUdt$ = 8					; size = 4
__First_arg$ = 12					; size = 4
__Cat$537381 = 16					; size = 1
__Last_arg$ = 16					; size = 4
?erase@?$vector@UTargetInfo@ioAdhesiveMissileWeapon4@@V?$allocator@UTargetInfo@ioAdhesiveMissileWeapon4@@@std@@@std@@QAE?AV?$_Vector_iterator@V?$_Vector_val@UTargetInfo@ioAdhesiveMissileWeapon4@@V?$allocator@UTargetInfo@ioAdhesiveMissileWeapon4@@@std@@@std@@@2@V?$_Vector_const_iterator@V?$_Vector_val@UTargetInfo@ioAdhesiveMissileWeapon4@@V?$allocator@UTargetInfo@ioAdhesiveMissileWeapon4@@@std@@@std@@@2@0@Z PROC ; std::vector<ioAdhesiveMissileWeapon4::TargetInfo,std::allocator<ioAdhesiveMissileWeapon4::TargetInfo> >::erase, COMDAT
; _this$ = ecx

; 1190 : 		{	// erase [_First, _Last)

  00000	55		 push	 ebp
  00001	8b ec		 mov	 ebp, esp
  00003	51		 push	 ecx

; 1191 : 		iterator _First = _Make_iter(_First_arg);

  00004	8b 45 08	 mov	 eax, DWORD PTR ___$ReturnUdt$[ebp]
  00007	56		 push	 esi
  00008	8b f1		 mov	 esi, ecx
  0000a	8b 4d 0c	 mov	 ecx, DWORD PTR __First_arg$[ebp]
  0000d	89 08		 mov	 DWORD PTR [eax], ecx

; 1192 : 		iterator _Last = _Make_iter(_Last_arg);
; 1193 : 
; 1194 : 		if (_First != _Last)

  0000f	3b 4d 10	 cmp	 ecx, DWORD PTR __Last_arg$[ebp]
  00012	74 38		 je	 SHORT $LN1@erase@2

; 1195 : 			{	// worth doing, copy down over hole
; 1196 :  #if _ITERATOR_DEBUG_LEVEL == 2
; 1197 : 			if (_Last < _First || _VICONT(_First) != this
; 1198 : 				|| _VIPTR(_First) < this->_Myfirst
; 1199 : 				|| this->_Mylast < _VIPTR(_Last))
; 1200 : 				_DEBUG_ERROR("vector erase iterator outside range");
; 1201 : 			pointer _Ptr = _Move(_VIPTR(_Last), this->_Mylast,
; 1202 : 				_VIPTR(_First));
; 1203 : 			_Orphan_range(_VIPTR(_First), this->_Mylast);
; 1204 : 
; 1205 :  #else /* _ITERATOR_DEBUG_LEVEL == 2 */
; 1206 : 			pointer _Ptr = _Move(_VIPTR(_Last), this->_Mylast,
; 1207 : 				_VIPTR(_First));

  00014	8b 46 04	 mov	 eax, DWORD PTR [esi+4]
  00017	53		 push	 ebx
  00018	57		 push	 edi
  00019	ff 75 10	 push	 DWORD PTR __Cat$537381[ebp]
  0001c	51		 push	 ecx
  0001d	50		 push	 eax
  0001e	ff 75 10	 push	 DWORD PTR __Last_arg$[ebp]
  00021	e8 00 00 00 00	 call	 ??$_Move@PAUTargetInfo@ioAdhesiveMissileWeapon4@@PAU12@@std@@YAPAUTargetInfo@ioAdhesiveMissileWeapon4@@PAU12@00U_Nonscalar_ptr_iterator_tag@0@@Z ; std::_Move<ioAdhesiveMissileWeapon4::TargetInfo *,ioAdhesiveMissileWeapon4::TargetInfo *>

; 1208 :  #endif /* _ITERATOR_DEBUG_LEVEL == 2 */
; 1209 : 
; 1210 : 			_Destroy(_Ptr, this->_Mylast);

  00026	8b 7e 04	 mov	 edi, DWORD PTR [esi+4]
  00029	8b d8		 mov	 ebx, eax
  0002b	83 c4 10	 add	 esp, 16			; 00000010H
  0002e	89 5d fc	 mov	 DWORD PTR $T537450[ebp], ebx
  00031	3b df		 cmp	 ebx, edi
  00033	74 12		 je	 SHORT $LN36@erase@2
$LL55@erase@2:
  00035	8b 4d fc	 mov	 ecx, DWORD PTR $T537450[ebp]
  00038	ff 15 00 00 00
	00		 call	 DWORD PTR __imp_??1ioHashString@@QAE@XZ
  0003e	83 45 fc 18	 add	 DWORD PTR $T537450[ebp], 24 ; 00000018H
  00042	39 7d fc	 cmp	 DWORD PTR $T537450[ebp], edi
  00045	75 ee		 jne	 SHORT $LL55@erase@2
$LN36@erase@2:

; 1211 : 			this->_Mylast = _Ptr;

  00047	5f		 pop	 edi
  00048	89 5e 04	 mov	 DWORD PTR [esi+4], ebx
  0004b	5b		 pop	 ebx
$LN1@erase@2:

; 1212 : 			}
; 1213 : 		return (_First);

  0004c	8b 45 08	 mov	 eax, DWORD PTR ___$ReturnUdt$[ebp]
  0004f	5e		 pop	 esi

; 1214 : 		}

  00050	c9		 leave
  00051	c2 0c 00	 ret	 12			; 0000000cH
?erase@?$vector@UTargetInfo@ioAdhesiveMissileWeapon4@@V?$allocator@UTargetInfo@ioAdhesiveMissileWeapon4@@@std@@@std@@QAE?AV?$_Vector_iterator@V?$_Vector_val@UTargetInfo@ioAdhesiveMissileWeapon4@@V?$allocator@UTargetInfo@ioAdhesiveMissileWeapon4@@@std@@@std@@@2@V?$_Vector_const_iterator@V?$_Vector_val@UTargetInfo@ioAdhesiveMissileWeapon4@@V?$allocator@UTargetInfo@ioAdhesiveMissileWeapon4@@@std@@@std@@@2@0@Z ENDP ; std::vector<ioAdhesiveMissileWeapon4::TargetInfo,std::allocator<ioAdhesiveMissileWeapon4::TargetInfo> >::erase
_TEXT	ENDS
PUBLIC	?_Reserve@?$vector@UTargetInfo@ioAdhesiveMissileWeapon4@@V?$allocator@UTargetInfo@ioAdhesiveMissileWeapon4@@@std@@@std@@IAEXI@Z ; std::vector<ioAdhesiveMissileWeapon4::TargetInfo,std::allocator<ioAdhesiveMissileWeapon4::TargetInfo> >::_Reserve
; Function compile flags: /Ogsp
;	COMDAT ?_Reserve@?$vector@UTargetInfo@ioAdhesiveMissileWeapon4@@V?$allocator@UTargetInfo@ioAdhesiveMissileWeapon4@@@std@@@std@@IAEXI@Z
_TEXT	SEGMENT
__Count$ = 8						; size = 4
?_Reserve@?$vector@UTargetInfo@ioAdhesiveMissileWeapon4@@V?$allocator@UTargetInfo@ioAdhesiveMissileWeapon4@@@std@@@std@@IAEXI@Z PROC ; std::vector<ioAdhesiveMissileWeapon4::TargetInfo,std::allocator<ioAdhesiveMissileWeapon4::TargetInfo> >::_Reserve, COMDAT
; _this$ = ecx

; 1290 : 		{	// ensure room for _Count new elements, grow exponentially

  00000	55		 push	 ebp
  00001	8b ec		 mov	 ebp, esp
  00003	56		 push	 esi
  00004	8b f1		 mov	 esi, ecx

; 1291 : 		size_type _Size = size();

  00006	8b 0e		 mov	 ecx, DWORD PTR [esi]
  00008	8b 46 04	 mov	 eax, DWORD PTR [esi+4]
  0000b	2b c1		 sub	 eax, ecx
  0000d	57		 push	 edi
  0000e	99		 cdq
  0000f	6a 18		 push	 24			; 00000018H
  00011	5f		 pop	 edi
  00012	f7 ff		 idiv	 edi
  00014	8b f8		 mov	 edi, eax

; 1292 : 		if (max_size() - _Count < _Size)

  00016	b8 aa aa aa 0a	 mov	 eax, 178956970		; 0aaaaaaaH
  0001b	2b 45 08	 sub	 eax, DWORD PTR __Count$[ebp]
  0001e	3b c7		 cmp	 eax, edi
  00020	73 0b		 jae	 SHORT $LN4@Reserve

; 1293 : 			_Xlen();

  00022	68 00 00 00 00	 push	 OFFSET ??_C@_0BD@OLBABOEK@vector?$DMT?$DO?5too?5long?$AA@
  00027	ff 15 00 00 00
	00		 call	 DWORD PTR __imp_?_Xlength_error@std@@YAXPBD@Z
$LN21@Reserve:
$LN4@Reserve:

; 1294 : 		else if ((_Size += _Count) <= capacity())

  0002d	8b 46 08	 mov	 eax, DWORD PTR [esi+8]
  00030	2b c1		 sub	 eax, ecx
  00032	6a 18		 push	 24			; 00000018H
  00034	99		 cdq
  00035	59		 pop	 ecx
  00036	f7 f9		 idiv	 ecx
  00038	03 7d 08	 add	 edi, DWORD PTR __Count$[ebp]
  0003b	3b f8		 cmp	 edi, eax
  0003d	76 10		 jbe	 SHORT $LN1@Reserve

; 1295 : 			;
; 1296 : 		else
; 1297 : 			reserve(_Grow_to(_Size));

  0003f	57		 push	 edi
  00040	8b ce		 mov	 ecx, esi
  00042	e8 00 00 00 00	 call	 ?_Grow_to@?$vector@UTargetInfo@ioAdhesiveMissileWeapon4@@V?$allocator@UTargetInfo@ioAdhesiveMissileWeapon4@@@std@@@std@@IBEII@Z ; std::vector<ioAdhesiveMissileWeapon4::TargetInfo,std::allocator<ioAdhesiveMissileWeapon4::TargetInfo> >::_Grow_to
  00047	50		 push	 eax
  00048	8b ce		 mov	 ecx, esi
  0004a	e8 00 00 00 00	 call	 ?reserve@?$vector@UTargetInfo@ioAdhesiveMissileWeapon4@@V?$allocator@UTargetInfo@ioAdhesiveMissileWeapon4@@@std@@@std@@QAEXI@Z ; std::vector<ioAdhesiveMissileWeapon4::TargetInfo,std::allocator<ioAdhesiveMissileWeapon4::TargetInfo> >::reserve
$LN1@Reserve:
  0004f	5f		 pop	 edi
  00050	5e		 pop	 esi

; 1298 : 		}

  00051	5d		 pop	 ebp
  00052	c2 04 00	 ret	 4
$LN20@Reserve:
?_Reserve@?$vector@UTargetInfo@ioAdhesiveMissileWeapon4@@V?$allocator@UTargetInfo@ioAdhesiveMissileWeapon4@@@std@@@std@@IAEXI@Z ENDP ; std::vector<ioAdhesiveMissileWeapon4::TargetInfo,std::allocator<ioAdhesiveMissileWeapon4::TargetInfo> >::_Reserve
_TEXT	ENDS
PUBLIC	?reserve@?$vector@VioHashString@@V?$allocator@VioHashString@@@std@@@std@@QAEXI@Z ; std::vector<ioHashString,std::allocator<ioHashString> >::reserve
;	COMDAT xdata$x
; File c:\program files (x86)\microsoft visual studio 10.0\vc\include\xmemory
xdata$x	SEGMENT
__catchsym$?reserve@?$vector@VioHashString@@V?$allocator@VioHashString@@@std@@@std@@QAEXI@Z$2 DD 040H
	DD	00H
	DD	00H
	DD	FLAT:__catch$?reserve@?$vector@VioHashString@@V?$allocator@VioHashString@@@std@@@std@@QAEXI@Z$0
__unwindtable$?reserve@?$vector@VioHashString@@V?$allocator@VioHashString@@@std@@@std@@QAEXI@Z DD 0ffffffffH
	DD	00H
	DD	0ffffffffH
	DD	00H
__tryblocktable$?reserve@?$vector@VioHashString@@V?$allocator@VioHashString@@@std@@@std@@QAEXI@Z DD 00H
	DD	00H
	DD	01H
	DD	01H
	DD	FLAT:__catchsym$?reserve@?$vector@VioHashString@@V?$allocator@VioHashString@@@std@@@std@@QAEXI@Z$2
__ehfuncinfo$?reserve@?$vector@VioHashString@@V?$allocator@VioHashString@@@std@@@std@@QAEXI@Z DD 019930522H
	DD	02H
	DD	FLAT:__unwindtable$?reserve@?$vector@VioHashString@@V?$allocator@VioHashString@@@std@@@std@@QAEXI@Z
	DD	01H
	DD	FLAT:__tryblocktable$?reserve@?$vector@VioHashString@@V?$allocator@VioHashString@@@std@@@std@@QAEXI@Z
	DD	2 DUP(00H)
	DD	00H
	DD	01H
; Function compile flags: /Ogsp
; File c:\program files (x86)\microsoft visual studio 10.0\vc\include\vector
xdata$x	ENDS
;	COMDAT ?reserve@?$vector@VioHashString@@V?$allocator@VioHashString@@@std@@@std@@QAEXI@Z
_TEXT	SEGMENT
tv300 = -24						; size = 4
__Ptr$533265 = -20					; size = 4
__$EHRec$ = -16						; size = 16
$T537624 = 8						; size = 4
__Count$ = 8						; size = 4
?reserve@?$vector@VioHashString@@V?$allocator@VioHashString@@@std@@@std@@QAEXI@Z PROC ; std::vector<ioHashString,std::allocator<ioHashString> >::reserve, COMDAT
; _this$ = ecx

; 746  : 		{	// determine new minimum length of allocated storage

  00000	6a 0c		 push	 12			; 0000000cH
  00002	b8 00 00 00 00	 mov	 eax, __ehhandler$?reserve@?$vector@VioHashString@@V?$allocator@VioHashString@@@std@@@std@@QAEXI@Z
  00007	e8 00 00 00 00	 call	 __EH_prolog3_catch
  0000c	8b f1		 mov	 esi, ecx

; 747  : 		if (max_size() < _Count)

  0000e	8b 5d 08	 mov	 ebx, DWORD PTR __Count$[ebp]
  00011	81 fb ff ff ff
	0f		 cmp	 ebx, 268435455		; 0fffffffH
  00017	76 0b		 jbe	 SHORT $LN5@reserve@2

; 748  : 			_Xlen();	// result too long

  00019	68 00 00 00 00	 push	 OFFSET ??_C@_0BD@OLBABOEK@vector?$DMT?$DO?5too?5long?$AA@
  0001e	ff 15 00 00 00
	00		 call	 DWORD PTR __imp_?_Xlength_error@std@@YAXPBD@Z
$LN59@reserve@2:
$LN5@reserve@2:

; 749  : 		else if (capacity() < _Count)

  00024	8b 46 08	 mov	 eax, DWORD PTR [esi+8]
  00027	2b 06		 sub	 eax, DWORD PTR [esi]
  00029	c1 f8 04	 sar	 eax, 4
  0002c	3b c3		 cmp	 eax, ebx
  0002e	73 7a		 jae	 SHORT $LN3@reserve@2

; 750  : 			{	// not enough room, reallocate
; 751  : 			pointer _Ptr = this->_Alval.allocate(_Count);

  00030	6a 00		 push	 0
  00032	53		 push	 ebx
  00033	e8 00 00 00 00	 call	 ??$_Allocate@VioHashString@@@std@@YAPAVioHashString@@IPAV1@@Z ; std::_Allocate<ioHashString>

; 752  : 
; 753  : 			_TRY_BEGIN
; 754  : 			_Umove(this->_Myfirst, this->_Mylast, _Ptr);

  00038	8b 0e		 mov	 ecx, DWORD PTR [esi]
  0003a	83 65 fc 00	 and	 DWORD PTR __$EHRec$[ebp+12], 0
  0003e	8d 56 0c	 lea	 edx, DWORD PTR [esi+12]
  00041	52		 push	 edx
  00042	89 45 ec	 mov	 DWORD PTR __Ptr$533265[ebp], eax
  00045	ff 75 ec	 push	 DWORD PTR __Ptr$533265[ebp]
  00048	8b 46 04	 mov	 eax, DWORD PTR [esi+4]
  0004b	50		 push	 eax
  0004c	51		 push	 ecx
  0004d	e8 00 00 00 00	 call	 ??$_Uninitialized_move@PAVioHashString@@PAV1@V?$allocator@VioHashString@@@std@@@std@@YAPAVioHashString@@PAV1@00AAV?$allocator@VioHashString@@@0@@Z ; std::_Uninitialized_move<ioHashString *,ioHashString *,std::allocator<ioHashString> >

; 758  : 			_CATCH_END
; 759  : 
; 760  : 			size_type _Size = size();

  00052	8b 4e 04	 mov	 ecx, DWORD PTR [esi+4]
  00055	8b 06		 mov	 eax, DWORD PTR [esi]
  00057	83 4d fc ff	 or	 DWORD PTR __$EHRec$[ebp+12], -1
  0005b	8b f9		 mov	 edi, ecx
  0005d	83 c4 18	 add	 esp, 24			; 00000018H
  00060	2b f8		 sub	 edi, eax
  00062	89 4d e8	 mov	 DWORD PTR tv300[ebp], ecx
  00065	85 c0		 test	 eax, eax
  00067	74 24		 je	 SHORT $LN51@reserve@2

; 761  : 			if (this->_Myfirst != 0)
; 762  : 				{	// destroy and deallocate old array
; 763  : 				_Destroy(this->_Myfirst, this->_Mylast);

  00069	89 45 08	 mov	 DWORD PTR $T537624[ebp], eax
  0006c	3b c1		 cmp	 eax, ecx
  0006e	74 15		 je	 SHORT $LN37@reserve@2
$LN39@reserve@2:
  00070	8b 4d 08	 mov	 ecx, DWORD PTR $T537624[ebp]
  00073	ff 15 00 00 00
	00		 call	 DWORD PTR __imp_??1ioHashString@@QAE@XZ
  00079	83 45 08 10	 add	 DWORD PTR $T537624[ebp], 16 ; 00000010H
  0007d	8b 45 08	 mov	 eax, DWORD PTR $T537624[ebp]
  00080	3b 45 e8	 cmp	 eax, DWORD PTR tv300[ebp]
  00083	75 eb		 jne	 SHORT $LN39@reserve@2
$LN37@reserve@2:

; 764  : 				this->_Alval.deallocate(this->_Myfirst,
; 765  : 					this->_Myend - this->_Myfirst);

  00085	ff 36		 push	 DWORD PTR [esi]
  00087	e8 00 00 00 00	 call	 ??3@YAXPAX@Z		; operator delete
  0008c	59		 pop	 ecx
$LN51@reserve@2:

; 766  : 				}
; 767  : 
; 768  : 			this->_Orphan_all();

  0008d	8b ce		 mov	 ecx, esi
  0008f	ff 15 00 00 00
	00		 call	 DWORD PTR __imp_?_Orphan_all@_Container_base0@std@@QAEXXZ

; 769  : 			this->_Myend = _Ptr + _Count;

  00095	8b 45 ec	 mov	 eax, DWORD PTR __Ptr$533265[ebp]
  00098	c1 e3 04	 shl	 ebx, 4
  0009b	03 d8		 add	 ebx, eax

; 770  : 			this->_Mylast = _Ptr + _Size;

  0009d	83 e7 f0	 and	 edi, -16		; fffffff0H
  000a0	03 f8		 add	 edi, eax
  000a2	89 5e 08	 mov	 DWORD PTR [esi+8], ebx
  000a5	89 7e 04	 mov	 DWORD PTR [esi+4], edi

; 771  : 			this->_Myfirst = _Ptr;

  000a8	89 06		 mov	 DWORD PTR [esi], eax
$LN3@reserve@2:

; 772  : 			}
; 773  : 		}

  000aa	e8 00 00 00 00	 call	 __EH_epilog3
  000af	c2 04 00	 ret	 4
__catch$?reserve@?$vector@VioHashString@@V?$allocator@VioHashString@@@std@@@std@@QAEXI@Z$0:

; 755  : 			_CATCH_ALL
; 756  : 			this->_Alval.deallocate(_Ptr, _Count);

  000b2	ff 75 ec	 push	 DWORD PTR __Ptr$533265[ebp]
  000b5	e8 00 00 00 00	 call	 ??3@YAXPAX@Z		; operator delete
  000ba	59		 pop	 ecx

; 757  : 			_RERAISE;

  000bb	6a 00		 push	 0
  000bd	6a 00		 push	 0
  000bf	e8 00 00 00 00	 call	 __CxxThrowException@8
$LN60@reserve@2:
$LN58@reserve@2:
  000c4	cc		 int	 3
_TEXT	ENDS
;	COMDAT text$x
text$x	SEGMENT
__ehhandler$?reserve@?$vector@VioHashString@@V?$allocator@VioHashString@@@std@@@std@@QAEXI@Z:
  00000	8b 54 24 08	 mov	 edx, DWORD PTR [esp+8]
  00004	8d 42 0c	 lea	 eax, DWORD PTR [edx+12]
  00007	8b 4a e4	 mov	 ecx, DWORD PTR [edx-28]
  0000a	33 c8		 xor	 ecx, eax
  0000c	e8 00 00 00 00	 call	 @__security_check_cookie@4
  00011	b8 00 00 00 00	 mov	 eax, OFFSET __ehfuncinfo$?reserve@?$vector@VioHashString@@V?$allocator@VioHashString@@@std@@@std@@QAEXI@Z
  00016	e9 00 00 00 00	 jmp	 ___CxxFrameHandler3
text$x	ENDS
?reserve@?$vector@VioHashString@@V?$allocator@VioHashString@@@std@@@std@@QAEXI@Z ENDP ; std::vector<ioHashString,std::allocator<ioHashString> >::reserve
PUBLIC	?_Tidy@?$vector@VioHashString@@V?$allocator@VioHashString@@@std@@@std@@IAEXXZ ; std::vector<ioHashString,std::allocator<ioHashString> >::_Tidy
; Function compile flags: /Ogsp
;	COMDAT ?_Tidy@?$vector@VioHashString@@V?$allocator@VioHashString@@@std@@@std@@IAEXXZ
_TEXT	SEGMENT
?_Tidy@?$vector@VioHashString@@V?$allocator@VioHashString@@@std@@@std@@IAEXXZ PROC ; std::vector<ioHashString,std::allocator<ioHashString> >::_Tidy, COMDAT
; _this$ = ecx

; 1301 : 		{	// free all storage

  00000	56		 push	 esi
  00001	8b f1		 mov	 esi, ecx

; 1302 : 		if (this->_Myfirst != 0)

  00003	83 3e 00	 cmp	 DWORD PTR [esi], 0
  00006	74 28		 je	 SHORT $LN24@Tidy@2

; 1303 : 			{	// something to free, destroy and deallocate it
; 1304 : 			this->_Orphan_all();

  00008	53		 push	 ebx
  00009	57		 push	 edi
  0000a	ff 15 00 00 00
	00		 call	 DWORD PTR __imp_?_Orphan_all@_Container_base0@std@@QAEXXZ

; 1305 : 			_Destroy(this->_Myfirst, this->_Mylast);

  00010	8b 5e 04	 mov	 ebx, DWORD PTR [esi+4]
  00013	8b 3e		 mov	 edi, DWORD PTR [esi]
  00015	eb 0b		 jmp	 SHORT $LN28@Tidy@2
$LL12@Tidy@2:
  00017	8b cf		 mov	 ecx, edi
  00019	ff 15 00 00 00
	00		 call	 DWORD PTR __imp_??1ioHashString@@QAE@XZ
  0001f	83 c7 10	 add	 edi, 16			; 00000010H
$LN28@Tidy@2:
  00022	3b fb		 cmp	 edi, ebx
  00024	75 f1		 jne	 SHORT $LL12@Tidy@2

; 1306 : 			this->_Alval.deallocate(this->_Myfirst,
; 1307 : 				this->_Myend - this->_Myfirst);

  00026	ff 36		 push	 DWORD PTR [esi]
  00028	e8 00 00 00 00	 call	 ??3@YAXPAX@Z		; operator delete
  0002d	59		 pop	 ecx
  0002e	5f		 pop	 edi
  0002f	5b		 pop	 ebx
$LN24@Tidy@2:

; 1308 : 			}
; 1309 : 		this->_Myfirst = 0;

  00030	33 c0		 xor	 eax, eax
  00032	89 06		 mov	 DWORD PTR [esi], eax

; 1310 : 		this->_Mylast = 0;

  00034	89 46 04	 mov	 DWORD PTR [esi+4], eax

; 1311 : 		this->_Myend = 0;

  00037	89 46 08	 mov	 DWORD PTR [esi+8], eax
  0003a	5e		 pop	 esi

; 1312 : 		}

  0003b	c3		 ret	 0
?_Tidy@?$vector@VioHashString@@V?$allocator@VioHashString@@@std@@@std@@IAEXXZ ENDP ; std::vector<ioHashString,std::allocator<ioHashString> >::_Tidy
_TEXT	ENDS
PUBLIC	?push_back@?$vector@UTargetInfo@ioAdhesiveMissileWeapon4@@V?$allocator@UTargetInfo@ioAdhesiveMissileWeapon4@@@std@@@std@@QAEXABUTargetInfo@ioAdhesiveMissileWeapon4@@@Z ; std::vector<ioAdhesiveMissileWeapon4::TargetInfo,std::allocator<ioAdhesiveMissileWeapon4::TargetInfo> >::push_back
; Function compile flags: /Ogsp
;	COMDAT ?push_back@?$vector@UTargetInfo@ioAdhesiveMissileWeapon4@@V?$allocator@UTargetInfo@ioAdhesiveMissileWeapon4@@@std@@@std@@QAEXABUTargetInfo@ioAdhesiveMissileWeapon4@@@Z
_TEXT	SEGMENT
__Val$ = 8						; size = 4
?push_back@?$vector@UTargetInfo@ioAdhesiveMissileWeapon4@@V?$allocator@UTargetInfo@ioAdhesiveMissileWeapon4@@@std@@@std@@QAEXABUTargetInfo@ioAdhesiveMissileWeapon4@@@Z PROC ; std::vector<ioAdhesiveMissileWeapon4::TargetInfo,std::allocator<ioAdhesiveMissileWeapon4::TargetInfo> >::push_back, COMDAT
; _this$ = ecx

; 976  : 		{	// insert element at end

  00000	55		 push	 ebp
  00001	8b ec		 mov	 ebp, esp
  00003	56		 push	 esi
  00004	8b f1		 mov	 esi, ecx

; 977  : 		if (_Inside(_STD addressof(_Val)))

  00006	8b 4e 04	 mov	 ecx, DWORD PTR [esi+4]
  00009	57		 push	 edi
  0000a	8b 7d 08	 mov	 edi, DWORD PTR __Val$[ebp]
  0000d	3b f9		 cmp	 edi, ecx
  0000f	73 37		 jae	 SHORT $LN4@push_back
  00011	8b 16		 mov	 edx, DWORD PTR [esi]
  00013	3b d7		 cmp	 edx, edi
  00015	77 31		 ja	 SHORT $LN4@push_back

; 978  : 			{	// push back an element
; 979  : 			size_type _Idx = _STD addressof(_Val) - this->_Myfirst;

  00017	8b c7		 mov	 eax, edi
  00019	2b c2		 sub	 eax, edx
  0001b	6a 18		 push	 24			; 00000018H
  0001d	99		 cdq
  0001e	5f		 pop	 edi
  0001f	f7 ff		 idiv	 edi
  00021	8b f8		 mov	 edi, eax

; 980  : 			if (this->_Mylast == this->_Myend)

  00023	3b 4e 08	 cmp	 ecx, DWORD PTR [esi+8]
  00026	75 09		 jne	 SHORT $LN3@push_back

; 981  : 				_Reserve(1);

  00028	6a 01		 push	 1
  0002a	8b ce		 mov	 ecx, esi
  0002c	e8 00 00 00 00	 call	 ?_Reserve@?$vector@UTargetInfo@ioAdhesiveMissileWeapon4@@V?$allocator@UTargetInfo@ioAdhesiveMissileWeapon4@@@std@@@std@@IAEXI@Z ; std::vector<ioAdhesiveMissileWeapon4::TargetInfo,std::allocator<ioAdhesiveMissileWeapon4::TargetInfo> >::_Reserve
$LN3@push_back:

; 982  : 			_Orphan_range(this->_Mylast, this->_Mylast);
; 983  : 			_Cons_val(this->_Alval,
; 984  : 				this->_Mylast,
; 985  : 				this->_Myfirst[_Idx]);

  00031	6b ff 18	 imul	 edi, 24			; 00000018H
  00034	03 3e		 add	 edi, DWORD PTR [esi]
  00036	8d 46 0c	 lea	 eax, DWORD PTR [esi+12]
  00039	57		 push	 edi
  0003a	ff 76 04	 push	 DWORD PTR [esi+4]
  0003d	50		 push	 eax
  0003e	e8 00 00 00 00	 call	 ??$_Cons_val@V?$allocator@UTargetInfo@ioAdhesiveMissileWeapon4@@@std@@UTargetInfo@ioAdhesiveMissileWeapon4@@AAU34@@std@@YAXAAV?$allocator@UTargetInfo@ioAdhesiveMissileWeapon4@@@0@PAUTargetInfo@ioAdhesiveMissileWeapon4@@AAU23@@Z ; std::_Cons_val<std::allocator<ioAdhesiveMissileWeapon4::TargetInfo>,ioAdhesiveMissileWeapon4::TargetInfo,ioAdhesiveMissileWeapon4::TargetInfo &>
  00043	83 c4 0c	 add	 esp, 12			; 0000000cH

; 986  : 			++this->_Mylast;
; 987  : 			}
; 988  : 		else

  00046	eb 19		 jmp	 SHORT $LN26@push_back
$LN4@push_back:

; 989  : 			{	// push back a non-element
; 990  : 			if (this->_Mylast == this->_Myend)

  00048	3b 4e 08	 cmp	 ecx, DWORD PTR [esi+8]
  0004b	75 09		 jne	 SHORT $LN1@push_back

; 991  : 				_Reserve(1);

  0004d	6a 01		 push	 1
  0004f	8b ce		 mov	 ecx, esi
  00051	e8 00 00 00 00	 call	 ?_Reserve@?$vector@UTargetInfo@ioAdhesiveMissileWeapon4@@V?$allocator@UTargetInfo@ioAdhesiveMissileWeapon4@@@std@@@std@@IAEXI@Z ; std::vector<ioAdhesiveMissileWeapon4::TargetInfo,std::allocator<ioAdhesiveMissileWeapon4::TargetInfo> >::_Reserve
$LN1@push_back:

; 992  : 			_Orphan_range(this->_Mylast, this->_Mylast);
; 993  : 			_Cons_val(this->_Alval,
; 994  : 				this->_Mylast,
; 995  : 				_Val);

  00056	57		 push	 edi
  00057	ff 76 04	 push	 DWORD PTR [esi+4]
  0005a	e8 00 00 00 00	 call	 ??$_Construct@UTargetInfo@ioAdhesiveMissileWeapon4@@ABU12@@std@@YAXPAUTargetInfo@ioAdhesiveMissileWeapon4@@ABU12@@Z ; std::_Construct<ioAdhesiveMissileWeapon4::TargetInfo,ioAdhesiveMissileWeapon4::TargetInfo const &>
  0005f	59		 pop	 ecx
  00060	59		 pop	 ecx
$LN26@push_back:

; 996  : 			++this->_Mylast;

  00061	83 46 04 18	 add	 DWORD PTR [esi+4], 24	; 00000018H
  00065	5f		 pop	 edi
  00066	5e		 pop	 esi

; 997  : 			}
; 998  : 		}

  00067	5d		 pop	 ebp
  00068	c2 04 00	 ret	 4
?push_back@?$vector@UTargetInfo@ioAdhesiveMissileWeapon4@@V?$allocator@UTargetInfo@ioAdhesiveMissileWeapon4@@@std@@@std@@QAEXABUTargetInfo@ioAdhesiveMissileWeapon4@@@Z ENDP ; std::vector<ioAdhesiveMissileWeapon4::TargetInfo,std::allocator<ioAdhesiveMissileWeapon4::TargetInfo> >::push_back
_TEXT	ENDS
PUBLIC	?clear@?$vector@UTargetInfo@ioAdhesiveMissileWeapon4@@V?$allocator@UTargetInfo@ioAdhesiveMissileWeapon4@@@std@@@std@@QAEXXZ ; std::vector<ioAdhesiveMissileWeapon4::TargetInfo,std::allocator<ioAdhesiveMissileWeapon4::TargetInfo> >::clear
; Function compile flags: /Ogsp
;	COMDAT ?clear@?$vector@UTargetInfo@ioAdhesiveMissileWeapon4@@V?$allocator@UTargetInfo@ioAdhesiveMissileWeapon4@@@std@@@std@@QAEXXZ
_TEXT	SEGMENT
$T537838 = -4						; size = 4
?clear@?$vector@UTargetInfo@ioAdhesiveMissileWeapon4@@V?$allocator@UTargetInfo@ioAdhesiveMissileWeapon4@@@std@@@std@@QAEXXZ PROC ; std::vector<ioAdhesiveMissileWeapon4::TargetInfo,std::allocator<ioAdhesiveMissileWeapon4::TargetInfo> >::clear, COMDAT
; _this$ = ecx

; 1217 : 		{	// erase all

  00000	55		 push	 ebp
  00001	8b ec		 mov	 ebp, esp
  00003	51		 push	 ecx

; 1218 : 		erase(begin(), end());

  00004	8b 41 04	 mov	 eax, DWORD PTR [ecx+4]
  00007	8b 11		 mov	 edx, DWORD PTR [ecx]
  00009	50		 push	 eax
  0000a	52		 push	 edx
  0000b	8d 45 fc	 lea	 eax, DWORD PTR $T537838[ebp]
  0000e	50		 push	 eax
  0000f	e8 00 00 00 00	 call	 ?erase@?$vector@UTargetInfo@ioAdhesiveMissileWeapon4@@V?$allocator@UTargetInfo@ioAdhesiveMissileWeapon4@@@std@@@std@@QAE?AV?$_Vector_iterator@V?$_Vector_val@UTargetInfo@ioAdhesiveMissileWeapon4@@V?$allocator@UTargetInfo@ioAdhesiveMissileWeapon4@@@std@@@std@@@2@V?$_Vector_const_iterator@V?$_Vector_val@UTargetInfo@ioAdhesiveMissileWeapon4@@V?$allocator@UTargetInfo@ioAdhesiveMissileWeapon4@@@std@@@std@@@2@0@Z ; std::vector<ioAdhesiveMissileWeapon4::TargetInfo,std::allocator<ioAdhesiveMissileWeapon4::TargetInfo> >::erase

; 1219 : 		}

  00014	c9		 leave
  00015	c3		 ret	 0
?clear@?$vector@UTargetInfo@ioAdhesiveMissileWeapon4@@V?$allocator@UTargetInfo@ioAdhesiveMissileWeapon4@@@std@@@std@@QAEXXZ ENDP ; std::vector<ioAdhesiveMissileWeapon4::TargetInfo,std::allocator<ioAdhesiveMissileWeapon4::TargetInfo> >::clear
_TEXT	ENDS
PUBLIC	?_Reserve@?$vector@VioHashString@@V?$allocator@VioHashString@@@std@@@std@@IAEXI@Z ; std::vector<ioHashString,std::allocator<ioHashString> >::_Reserve
; Function compile flags: /Ogsp
;	COMDAT ?_Reserve@?$vector@VioHashString@@V?$allocator@VioHashString@@@std@@@std@@IAEXI@Z
_TEXT	SEGMENT
__Count$ = 8						; size = 4
?_Reserve@?$vector@VioHashString@@V?$allocator@VioHashString@@@std@@@std@@IAEXI@Z PROC ; std::vector<ioHashString,std::allocator<ioHashString> >::_Reserve, COMDAT
; _this$ = ecx

; 1290 : 		{	// ensure room for _Count new elements, grow exponentially

  00000	55		 push	 ebp
  00001	8b ec		 mov	 ebp, esp
  00003	56		 push	 esi
  00004	8b f1		 mov	 esi, ecx

; 1291 : 		size_type _Size = size();

  00006	8b 0e		 mov	 ecx, DWORD PTR [esi]
  00008	8b 46 04	 mov	 eax, DWORD PTR [esi+4]
  0000b	2b c1		 sub	 eax, ecx

; 1292 : 		if (max_size() - _Count < _Size)

  0000d	ba ff ff ff 0f	 mov	 edx, 268435455		; 0fffffffH
  00012	2b 55 08	 sub	 edx, DWORD PTR __Count$[ebp]
  00015	c1 f8 04	 sar	 eax, 4
  00018	3b d0		 cmp	 edx, eax
  0001a	73 0b		 jae	 SHORT $LN4@Reserve@2

; 1293 : 			_Xlen();

  0001c	68 00 00 00 00	 push	 OFFSET ??_C@_0BD@OLBABOEK@vector?$DMT?$DO?5too?5long?$AA@
  00021	ff 15 00 00 00
	00		 call	 DWORD PTR __imp_?_Xlength_error@std@@YAXPBD@Z
$LN21@Reserve@2:
$LN4@Reserve@2:

; 1294 : 		else if ((_Size += _Count) <= capacity())

  00027	8b 56 08	 mov	 edx, DWORD PTR [esi+8]
  0002a	03 45 08	 add	 eax, DWORD PTR __Count$[ebp]
  0002d	2b d1		 sub	 edx, ecx
  0002f	c1 fa 04	 sar	 edx, 4
  00032	3b c2		 cmp	 eax, edx
  00034	76 10		 jbe	 SHORT $LN1@Reserve@2

; 1295 : 			;
; 1296 : 		else
; 1297 : 			reserve(_Grow_to(_Size));

  00036	50		 push	 eax
  00037	8b ce		 mov	 ecx, esi
  00039	e8 00 00 00 00	 call	 ?_Grow_to@?$vector@VioHashString@@V?$allocator@VioHashString@@@std@@@std@@IBEII@Z ; std::vector<ioHashString,std::allocator<ioHashString> >::_Grow_to
  0003e	50		 push	 eax
  0003f	8b ce		 mov	 ecx, esi
  00041	e8 00 00 00 00	 call	 ?reserve@?$vector@VioHashString@@V?$allocator@VioHashString@@@std@@@std@@QAEXI@Z ; std::vector<ioHashString,std::allocator<ioHashString> >::reserve
$LN1@Reserve@2:
  00046	5e		 pop	 esi

; 1298 : 		}

  00047	5d		 pop	 ebp
  00048	c2 04 00	 ret	 4
$LN20@Reserve@2:
?_Reserve@?$vector@VioHashString@@V?$allocator@VioHashString@@@std@@@std@@IAEXI@Z ENDP ; std::vector<ioHashString,std::allocator<ioHashString> >::_Reserve
_TEXT	ENDS
PUBLIC	??1?$vector@VioHashString@@V?$allocator@VioHashString@@@std@@@std@@QAE@XZ ; std::vector<ioHashString,std::allocator<ioHashString> >::~vector<ioHashString,std::allocator<ioHashString> >
; Function compile flags: /Ogsp
;	COMDAT ??1?$vector@VioHashString@@V?$allocator@VioHashString@@@std@@@std@@QAE@XZ
_TEXT	SEGMENT
??1?$vector@VioHashString@@V?$allocator@VioHashString@@@std@@@std@@QAE@XZ PROC ; std::vector<ioHashString,std::allocator<ioHashString> >::~vector<ioHashString,std::allocator<ioHashString> >, COMDAT
; _this$ = ecx

; 705  : 		_Tidy();

  00000	e9 00 00 00 00	 jmp	 ?_Tidy@?$vector@VioHashString@@V?$allocator@VioHashString@@@std@@@std@@IAEXXZ ; std::vector<ioHashString,std::allocator<ioHashString> >::_Tidy
??1?$vector@VioHashString@@V?$allocator@VioHashString@@@std@@@std@@QAE@XZ ENDP ; std::vector<ioHashString,std::allocator<ioHashString> >::~vector<ioHashString,std::allocator<ioHashString> >
_TEXT	ENDS
PUBLIC	??_C@_0EJ@OMJIAJGL@ioAdhesiveMissileWeapon4?3?3?$HOioAdh@ ; `string'
PUBLIC	??_7ioAdhesiveMissileWeapon4@@6B@		; ioAdhesiveMissileWeapon4::`vftable'
PUBLIC	??1ioAdhesiveMissileWeapon4@@UAE@XZ		; ioAdhesiveMissileWeapon4::~ioAdhesiveMissileWeapon4
PUBLIC	??_R4ioAdhesiveMissileWeapon4@@6B@		; ioAdhesiveMissileWeapon4::`RTTI Complete Object Locator'
PUBLIC	??_R0?AVioAdhesiveMissileWeapon4@@@8		; ioAdhesiveMissileWeapon4 `RTTI Type Descriptor'
PUBLIC	??_R3ioAdhesiveMissileWeapon4@@8		; ioAdhesiveMissileWeapon4::`RTTI Class Hierarchy Descriptor'
PUBLIC	??_R2ioAdhesiveMissileWeapon4@@8		; ioAdhesiveMissileWeapon4::`RTTI Base Class Array'
PUBLIC	??_R1A@?0A@EA@ioAdhesiveMissileWeapon4@@8	; ioAdhesiveMissileWeapon4::`RTTI Base Class Descriptor at (0,-1,0,64)'
PUBLIC	??_R1A@?0A@EA@ioWeapon@@8			; ioWeapon::`RTTI Base Class Descriptor at (0,-1,0,64)'
PUBLIC	??_R0?AVioWeapon@@@8				; ioWeapon `RTTI Type Descriptor'
PUBLIC	??_R3ioWeapon@@8				; ioWeapon::`RTTI Class Hierarchy Descriptor'
PUBLIC	??_R2ioWeapon@@8				; ioWeapon::`RTTI Base Class Array'
PUBLIC	?LoadProperty@ioAdhesiveMissileWeapon4@@UAEXAAVioINILoader@@@Z ; ioAdhesiveMissileWeapon4::LoadProperty
PUBLIC	?Process@ioAdhesiveMissileWeapon4@@UAEXMPAVioPlayStage@@@Z ; ioAdhesiveMissileWeapon4::Process
PUBLIC	?IsCollision@ioAdhesiveMissileWeapon4@@UAE_NPAVioPlayEntity@@_N@Z ; ioAdhesiveMissileWeapon4::IsCollision
PUBLIC	?TestMapCollision@ioAdhesiveMissileWeapon4@@UAE_NPAVioOpcodeShape@@PAVioPlayStage@@PBUD3DXMATRIX@@@Z ; ioAdhesiveMissileWeapon4::TestMapCollision
PUBLIC	?CheckPreCollision@ioAdhesiveMissileWeapon4@@UAEXPAVioPlayEntity@@PAVioPlayStage@@@Z ; ioAdhesiveMissileWeapon4::CheckPreCollision
PUBLIC	?ApplyWeaponSync@ioAdhesiveMissileWeapon4@@UAEXAAVSP2Packet@@PAVioPlayStage@@@Z ; ioAdhesiveMissileWeapon4::ApplyWeaponSync
EXTRN	??1ioWeapon@@UAE@XZ:PROC			; ioWeapon::~ioWeapon
EXTRN	__imp_??1ioOrientBox@@QAE@XZ:PROC
EXTRN	?IsAlreadyCollisioned@ioWeapon@@UAE_NPAVioPlayEntity@@@Z:PROC ; ioWeapon::IsAlreadyCollisioned
EXTRN	?AddCollisionEntity@ioWeapon@@UAEXPAVioPlayEntity@@@Z:PROC ; ioWeapon::AddCollisionEntity
EXTRN	?SetOwnerDamageRate@ioWeapon@@UAEXM@Z:PROC	; ioWeapon::SetOwnerDamageRate
EXTRN	?SetOwnerChargeDamageRate@ioWeapon@@UAEXM@Z:PROC ; ioWeapon::SetOwnerChargeDamageRate
EXTRN	?SetOwnerChargeForceRate@ioWeapon@@UAEXM@Z:PROC	; ioWeapon::SetOwnerChargeForceRate
EXTRN	?SetOwnerChargeRangeRate@ioWeapon@@UAEXM@Z:PROC	; ioWeapon::SetOwnerChargeRangeRate
EXTRN	?SetOwnerChargeSpeedRate@ioWeapon@@UAEXM@Z:PROC	; ioWeapon::SetOwnerChargeSpeedRate
EXTRN	?SetOwnerChargeBlowRate@ioWeapon@@UAEXM@Z:PROC	; ioWeapon::SetOwnerChargeBlowRate
EXTRN	?SetOwnerChargeFloatRate@ioWeapon@@UAEXM@Z:PROC	; ioWeapon::SetOwnerChargeFloatRate
EXTRN	?SetOwnerChargeScaleRate@ioWeapon@@UAEXM@Z:PROC	; ioWeapon::SetOwnerChargeScaleRate
EXTRN	?SetOwnerChargeExplosionRate@ioWeapon@@UAEXM@Z:PROC ; ioWeapon::SetOwnerChargeExplosionRate
EXTRN	?SetOwnerChargeWoundedTimeRate@ioWeapon@@UAEXM@Z:PROC ; ioWeapon::SetOwnerChargeWoundedTimeRate
EXTRN	?SetOwnerChargeLiveTimeRate@ioWeapon@@UAEXM@Z:PROC ; ioWeapon::SetOwnerChargeLiveTimeRate
EXTRN	?SetOwnerChargeBuffLiveTimeRate@ioWeapon@@UAEXM@Z:PROC ; ioWeapon::SetOwnerChargeBuffLiveTimeRate
EXTRN	?SetWeaponIndex@ioWeapon@@UAEXK@Z:PROC		; ioWeapon::SetWeaponIndex
EXTRN	?SetGrapplingTargetName@ioWeapon@@UAEXABVioHashString@@@Z:PROC ; ioWeapon::SetGrapplingTargetName
EXTRN	?SetCreateItem@ioWeapon@@UAEXABVioHashString@@@Z:PROC ; ioWeapon::SetCreateItem
EXTRN	?SetTeam@ioWeapon@@UAEXPAVioPlayStage@@W4TeamType@@@Z:PROC ; ioWeapon::SetTeam
EXTRN	?CallReserveAreaWeapon@ioWeapon@@UAEXXZ:PROC	; ioWeapon::CallReserveAreaWeapon
EXTRN	?SetWeaponDead@ioWeapon@@UAEXXZ:PROC		; ioWeapon::SetWeaponDead
EXTRN	?PlayExplosionSound@ioWeapon@@UAEXXZ:PROC	; ioWeapon::PlayExplosionSound
EXTRN	?PlayWoundedSound@ioWeapon@@UAEXPAVioPlayEntity@@@Z:PROC ; ioWeapon::PlayWoundedSound
EXTRN	?PlayDefensedSound@ioWeapon@@UAEXPAVioPlayEntity@@@Z:PROC ; ioWeapon::PlayDefensedSound
EXTRN	?PlayLoopSound@ioWeapon@@UAEXXZ:PROC		; ioWeapon::PlayLoopSound
EXTRN	?StopLoopSound@ioWeapon@@UAEXXZ:PROC		; ioWeapon::StopLoopSound
EXTRN	?GetTargetAirBuffList@ioWeapon@@UBEABV?$vector@UBuffInfoStruct@@V?$allocator@UBuffInfoStruct@@@std@@@std@@XZ:PROC ; ioWeapon::GetTargetAirBuffList
EXTRN	?GetTargetBuffList@ioWeapon@@UBEABV?$vector@UBuffInfoStruct@@V?$allocator@UBuffInfoStruct@@@std@@@std@@XZ:PROC ; ioWeapon::GetTargetBuffList
EXTRN	?GetTargetDownBuffList@ioWeapon@@UBEABV?$vector@UBuffInfoStruct@@V?$allocator@UBuffInfoStruct@@@std@@@std@@XZ:PROC ; ioWeapon::GetTargetDownBuffList
EXTRN	?GetPosition@ioWeapon@@UBEABUD3DXVECTOR3@@XZ:PROC ; ioWeapon::GetPosition
EXTRN	?GetBlowType@ioWeapon@@UBE?AW4BlowTargetType@@XZ:PROC ; ioWeapon::GetBlowType
EXTRN	?GetPushPower@ioWeapon@@UBEMM@Z:PROC		; ioWeapon::GetPushPower
EXTRN	?GetBlowPower@ioWeapon@@UBEMM@Z:PROC		; ioWeapon::GetBlowPower
EXTRN	?GetAirPushPower@ioWeapon@@UBEMM@Z:PROC		; ioWeapon::GetAirPushPower
EXTRN	?GetAirBlowPower@ioWeapon@@UBEMM@Z:PROC		; ioWeapon::GetAirBlowPower
EXTRN	?GetDefensePushPower@ioWeapon@@UBEMM@Z:PROC	; ioWeapon::GetDefensePushPower
EXTRN	?GetCollisionEnableTime@ioWeapon@@UBEKXZ:PROC	; ioWeapon::GetCollisionEnableTime
EXTRN	?SetSylphid@ioWeapon@@UAEHXZ:PROC		; ioWeapon::SetSylphid
EXTRN	?ApplyExtraReserveWeaponByWeaponInfo@ioWeapon@@UAEXPAV1@@Z:PROC ; ioWeapon::ApplyExtraReserveWeaponByWeaponInfo
EXTRN	?SetResistanceAttr@ioWeapon@@UAEXH@Z:PROC	; ioWeapon::SetResistanceAttr
EXTRN	?SetStartCollisionBox@ioWeapon@@UAEXXZ:PROC	; ioWeapon::SetStartCollisionBox
EXTRN	?SetLiveTime@ioWeapon@@UAEXK@Z:PROC		; ioWeapon::SetLiveTime
EXTRN	?SetMoveSpeed@ioWeapon@@UAEXM@Z:PROC		; ioWeapon::SetMoveSpeed
EXTRN	?SetFloatPower@ioWeapon@@UAEXM@Z:PROC		; ioWeapon::SetFloatPower
EXTRN	?CheckStructAndDummy@ioWeapon@@UAEXPAVioPlayEntity@@PAVioPlayStage@@@Z:PROC ; ioWeapon::CheckStructAndDummy
EXTRN	?GetDamage@ioWeapon@@UAEMPAVioPlayEntity@@@Z:PROC ; ioWeapon::GetDamage
EXTRN	?GetBaseDamage@ioWeapon@@UAEMPAVioPlayEntity@@@Z:PROC ; ioWeapon::GetBaseDamage
EXTRN	?GetPushAngle@ioWeapon@@UBEMXZ:PROC		; ioWeapon::GetPushAngle
EXTRN	?IsResistanceMagic@ioWeapon@@UAEHPAVioBaseChar@@@Z:PROC ; ioWeapon::IsResistanceMagic
EXTRN	?IsResistanceBomb@ioWeapon@@UAEHPAVioBaseChar@@@Z:PROC ; ioWeapon::IsResistanceBomb
EXTRN	?IsCanMineExplosion@ioWeapon@@UAE_NXZ:PROC	; ioWeapon::IsCanMineExplosion
EXTRN	?CheckGrapplingState@ioWeapon@@UAE?AW4GrapplingType@@XZ:PROC ; ioWeapon::CheckGrapplingState
EXTRN	?CheckCurAttribute@ioWeapon@@UAEXPBVioPlayEntity@@@Z:PROC ; ioWeapon::CheckCurAttribute
EXTRN	?CheckItemNotDrop@ioWeapon@@UAE_NPAVioBaseChar@@@Z:PROC ; ioWeapon::CheckItemNotDrop
EXTRN	?GetWorldAttackBoxList@ioWeapon@@UAEXAAV?$vector@VioOrientBox@@V?$allocator@VioOrientBox@@@std@@@std@@@Z:PROC ; ioWeapon::GetWorldAttackBoxList
EXTRN	?GetLiveTime@ioWeapon@@UAEKXZ:PROC		; ioWeapon::GetLiveTime
EXTRN	?CheckWeaponCollision@ioWeapon@@UAEXXZ:PROC	; ioWeapon::CheckWeaponCollision
EXTRN	?GetRefreshDuration@ioWeapon@@UAEKXZ:PROC	; ioWeapon::GetRefreshDuration
EXTRN	?GetIgnoreDuration@ioWeapon@@UAEKXZ:PROC	; ioWeapon::GetIgnoreDuration
EXTRN	?GetIgnoreTimeTypeDuration@ioWeapon@@UAEKXZ:PROC ; ioWeapon::GetIgnoreTimeTypeDuration
EXTRN	?GetIgnoreTimeType@ioWeapon@@UAEKXZ:PROC	; ioWeapon::GetIgnoreTimeType
EXTRN	?IsSkillDependency@ioWeapon@@UAE_NABVioHashString@@@Z:PROC ; ioWeapon::IsSkillDependency
EXTRN	?SetSkillDependencyAction@ioWeapon@@UAEXXZ:PROC	; ioWeapon::SetSkillDependencyAction
EXTRN	?CalcFinalDamage@ioWeapon@@MAEMXZ:PROC		; ioWeapon::CalcFinalDamage
EXTRN	?CalcFinalBoundDamage@ioWeapon@@MAEMXZ:PROC	; ioWeapon::CalcFinalBoundDamage
EXTRN	?CheckPiercing@ioWeapon@@MAE_N_N@Z:PROC		; ioWeapon::CheckPiercing
EXTRN	?ClearCollisionList@ioWeapon@@MAEXXZ:PROC	; ioWeapon::ClearCollisionList
EXTRN	?CheckCreateWeaponList@ioWeapon@@MAEXXZ:PROC	; ioWeapon::CheckCreateWeaponList
EXTRN	?CreateCollisionAreaWeapon@ioWeapon@@MAEXXZ:PROC ; ioWeapon::CreateCollisionAreaWeapon
EXTRN	?SetMapCollision@ioWeapon@@UAEXXZ:PROC		; ioWeapon::SetMapCollision
EXTRN	?IsIgnoreMapCollision@ioWeapon@@UBE_NXZ:PROC	; ioWeapon::IsIgnoreMapCollision
EXTRN	?IsIgnoreTestMapCollision@ioWeapon@@UBE_NXZ:PROC ; ioWeapon::IsIgnoreTestMapCollision
EXTRN	?IsIgnoreMapCollisionEffect@ioWeapon@@UBE_NXZ:PROC ; ioWeapon::IsIgnoreMapCollisionEffect
EXTRN	?AddEffectEvent@ioWeapon@@MAEXPAVioEffect@@@Z:PROC ; ioWeapon::AddEffectEvent
EXTRN	??_EioAdhesiveMissileWeapon4@@UAEPAXI@Z:PROC	; ioAdhesiveMissileWeapon4::`vector deleting destructor'
;	COMDAT ??_R2ioWeapon@@8
rdata$r	SEGMENT
??_R2ioWeapon@@8 DD FLAT:??_R1A@?0A@EA@ioWeapon@@8	; ioWeapon::`RTTI Base Class Array'
rdata$r	ENDS
;	COMDAT ??_R3ioWeapon@@8
rdata$r	SEGMENT
??_R3ioWeapon@@8 DD 00H					; ioWeapon::`RTTI Class Hierarchy Descriptor'
	DD	00H
	DD	01H
	DD	FLAT:??_R2ioWeapon@@8
rdata$r	ENDS
;	COMDAT ??_R0?AVioWeapon@@@8
_DATA	SEGMENT
??_R0?AVioWeapon@@@8 DD FLAT:??_7type_info@@6B@		; ioWeapon `RTTI Type Descriptor'
	DD	00H
	DB	'.?AVioWeapon@@', 00H
_DATA	ENDS
;	COMDAT ??_R1A@?0A@EA@ioWeapon@@8
rdata$r	SEGMENT
??_R1A@?0A@EA@ioWeapon@@8 DD FLAT:??_R0?AVioWeapon@@@8	; ioWeapon::`RTTI Base Class Descriptor at (0,-1,0,64)'
	DD	00H
	DD	00H
	DD	0ffffffffH
	DD	00H
	DD	040H
	DD	FLAT:??_R3ioWeapon@@8
rdata$r	ENDS
;	COMDAT ??_R1A@?0A@EA@ioAdhesiveMissileWeapon4@@8
rdata$r	SEGMENT
??_R1A@?0A@EA@ioAdhesiveMissileWeapon4@@8 DD FLAT:??_R0?AVioAdhesiveMissileWeapon4@@@8 ; ioAdhesiveMissileWeapon4::`RTTI Base Class Descriptor at (0,-1,0,64)'
	DD	01H
	DD	00H
	DD	0ffffffffH
	DD	00H
	DD	040H
	DD	FLAT:??_R3ioAdhesiveMissileWeapon4@@8
rdata$r	ENDS
;	COMDAT ??_R2ioAdhesiveMissileWeapon4@@8
rdata$r	SEGMENT
??_R2ioAdhesiveMissileWeapon4@@8 DD FLAT:??_R1A@?0A@EA@ioAdhesiveMissileWeapon4@@8 ; ioAdhesiveMissileWeapon4::`RTTI Base Class Array'
	DD	FLAT:??_R1A@?0A@EA@ioWeapon@@8
rdata$r	ENDS
;	COMDAT ??_R3ioAdhesiveMissileWeapon4@@8
rdata$r	SEGMENT
??_R3ioAdhesiveMissileWeapon4@@8 DD 00H			; ioAdhesiveMissileWeapon4::`RTTI Class Hierarchy Descriptor'
	DD	00H
	DD	02H
	DD	FLAT:??_R2ioAdhesiveMissileWeapon4@@8
rdata$r	ENDS
;	COMDAT ??_R0?AVioAdhesiveMissileWeapon4@@@8
_DATA	SEGMENT
??_R0?AVioAdhesiveMissileWeapon4@@@8 DD FLAT:??_7type_info@@6B@ ; ioAdhesiveMissileWeapon4 `RTTI Type Descriptor'
	DD	00H
	DB	'.?AVioAdhesiveMissileWeapon4@@', 00H
_DATA	ENDS
;	COMDAT ??_R4ioAdhesiveMissileWeapon4@@6B@
rdata$r	SEGMENT
??_R4ioAdhesiveMissileWeapon4@@6B@ DD 00H		; ioAdhesiveMissileWeapon4::`RTTI Complete Object Locator'
	DD	00H
	DD	00H
	DD	FLAT:??_R0?AVioAdhesiveMissileWeapon4@@@8
	DD	FLAT:??_R3ioAdhesiveMissileWeapon4@@8
rdata$r	ENDS
;	COMDAT ??_C@_0EJ@OMJIAJGL@ioAdhesiveMissileWeapon4?3?3?$HOioAdh@
CONST	SEGMENT
??_C@_0EJ@OMJIAJGL@ioAdhesiveMissileWeapon4?3?3?$HOioAdh@ DB 'ioAdhesiveM'
	DB	'issileWeapon4::~ioAdhesiveMissileWeapon4 - UnReleased Resouce'
	DB	00H						; `string'
CONST	ENDS
;	COMDAT ??_7ioAdhesiveMissileWeapon4@@6B@
CONST	SEGMENT
??_7ioAdhesiveMissileWeapon4@@6B@ DD FLAT:??_R4ioAdhesiveMissileWeapon4@@6B@ ; ioAdhesiveMissileWeapon4::`vftable'
	DD	FLAT:?IsAlreadyCollisioned@ioWeapon@@UAE_NPAVioPlayEntity@@@Z
	DD	FLAT:?AddCollisionEntity@ioWeapon@@UAEXPAVioPlayEntity@@@Z
	DD	FLAT:?SetOwnerDamageRate@ioWeapon@@UAEXM@Z
	DD	FLAT:?SetOwnerChargeDamageRate@ioWeapon@@UAEXM@Z
	DD	FLAT:?SetOwnerChargeForceRate@ioWeapon@@UAEXM@Z
	DD	FLAT:?SetOwnerChargeRangeRate@ioWeapon@@UAEXM@Z
	DD	FLAT:?SetOwnerChargeSpeedRate@ioWeapon@@UAEXM@Z
	DD	FLAT:?SetOwnerChargeBlowRate@ioWeapon@@UAEXM@Z
	DD	FLAT:?SetOwnerChargeFloatRate@ioWeapon@@UAEXM@Z
	DD	FLAT:?SetOwnerChargeScaleRate@ioWeapon@@UAEXM@Z
	DD	FLAT:?SetOwnerChargeExplosionRate@ioWeapon@@UAEXM@Z
	DD	FLAT:?SetOwnerChargeWoundedTimeRate@ioWeapon@@UAEXM@Z
	DD	FLAT:?SetOwnerChargeLiveTimeRate@ioWeapon@@UAEXM@Z
	DD	FLAT:?SetOwnerChargeBuffLiveTimeRate@ioWeapon@@UAEXM@Z
	DD	FLAT:?SetWeaponIndex@ioWeapon@@UAEXK@Z
	DD	FLAT:?SetGrapplingTargetName@ioWeapon@@UAEXABVioHashString@@@Z
	DD	FLAT:?SetCreateItem@ioWeapon@@UAEXABVioHashString@@@Z
	DD	FLAT:?SetTeam@ioWeapon@@UAEXPAVioPlayStage@@W4TeamType@@@Z
	DD	FLAT:?CallReserveAreaWeapon@ioWeapon@@UAEXXZ
	DD	FLAT:?SetWeaponDead@ioWeapon@@UAEXXZ
	DD	FLAT:?PlayExplosionSound@ioWeapon@@UAEXXZ
	DD	FLAT:?PlayWoundedSound@ioWeapon@@UAEXPAVioPlayEntity@@@Z
	DD	FLAT:?PlayDefensedSound@ioWeapon@@UAEXPAVioPlayEntity@@@Z
	DD	FLAT:?PlayLoopSound@ioWeapon@@UAEXXZ
	DD	FLAT:?StopLoopSound@ioWeapon@@UAEXXZ
	DD	FLAT:?GetTargetAirBuffList@ioWeapon@@UBEABV?$vector@UBuffInfoStruct@@V?$allocator@UBuffInfoStruct@@@std@@@std@@XZ
	DD	FLAT:?GetTargetBuffList@ioWeapon@@UBEABV?$vector@UBuffInfoStruct@@V?$allocator@UBuffInfoStruct@@@std@@@std@@XZ
	DD	FLAT:?GetTargetDownBuffList@ioWeapon@@UBEABV?$vector@UBuffInfoStruct@@V?$allocator@UBuffInfoStruct@@@std@@@std@@XZ
	DD	FLAT:?GetPosition@ioWeapon@@UBEABUD3DXVECTOR3@@XZ
	DD	FLAT:?GetBlowType@ioWeapon@@UBE?AW4BlowTargetType@@XZ
	DD	FLAT:?GetPushPower@ioWeapon@@UBEMM@Z
	DD	FLAT:?GetBlowPower@ioWeapon@@UBEMM@Z
	DD	FLAT:?GetAirPushPower@ioWeapon@@UBEMM@Z
	DD	FLAT:?GetAirBlowPower@ioWeapon@@UBEMM@Z
	DD	FLAT:?GetDefensePushPower@ioWeapon@@UBEMM@Z
	DD	FLAT:?GetCollisionEnableTime@ioWeapon@@UBEKXZ
	DD	FLAT:?SetSylphid@ioWeapon@@UAEHXZ
	DD	FLAT:?ApplyExtraReserveWeaponByWeaponInfo@ioWeapon@@UAEXPAV1@@Z
	DD	FLAT:?InitResource@ioAdhesiveMissileWeapon4@@UAE_NXZ
	DD	FLAT:?DestroyResource@ioAdhesiveMissileWeapon4@@UAEXPAVioPlayStage@@@Z
	DD	FLAT:?LoadProperty@ioAdhesiveMissileWeapon4@@UAEXAAVioINILoader@@@Z
	DD	FLAT:?SetResistanceAttr@ioWeapon@@UAEXH@Z
	DD	FLAT:?SetStartCollisionBox@ioWeapon@@UAEXXZ
	DD	FLAT:?SetLiveTime@ioWeapon@@UAEXK@Z
	DD	FLAT:?SetMoveDir@ioAdhesiveMissileWeapon4@@UAEXABUD3DXVECTOR3@@@Z
	DD	FLAT:?SetMoveSpeed@ioWeapon@@UAEXM@Z
	DD	FLAT:?SetFloatPower@ioWeapon@@UAEXM@Z
	DD	FLAT:?SetStartPosition@ioAdhesiveMissileWeapon4@@UAEXABUD3DXVECTOR3@@PAVioPlayStage@@@Z
	DD	FLAT:?Process@ioAdhesiveMissileWeapon4@@UAEXMPAVioPlayStage@@@Z
	DD	FLAT:?IsCollision@ioAdhesiveMissileWeapon4@@UAE_NPAVioPlayEntity@@_N@Z
	DD	FLAT:?TestMapCollision@ioAdhesiveMissileWeapon4@@UAE_NPAVioOpcodeShape@@PAVioPlayStage@@PBUD3DXMATRIX@@@Z
	DD	FLAT:?CheckPreCollision@ioAdhesiveMissileWeapon4@@UAEXPAVioPlayEntity@@PAVioPlayStage@@@Z
	DD	FLAT:?CheckStructAndDummy@ioWeapon@@UAEXPAVioPlayEntity@@PAVioPlayStage@@@Z
	DD	FLAT:?GetDamage@ioWeapon@@UAEMPAVioPlayEntity@@@Z
	DD	FLAT:?GetBaseDamage@ioWeapon@@UAEMPAVioPlayEntity@@@Z
	DD	FLAT:?GetPushAngle@ioWeapon@@UBEMXZ
	DD	FLAT:?IsResistanceMagic@ioWeapon@@UAEHPAVioBaseChar@@@Z
	DD	FLAT:?IsResistanceBomb@ioWeapon@@UAEHPAVioBaseChar@@@Z
	DD	FLAT:?IsCanMineExplosion@ioWeapon@@UAE_NXZ
	DD	FLAT:?CheckGrapplingState@ioWeapon@@UAE?AW4GrapplingType@@XZ
	DD	FLAT:?CheckCurAttribute@ioWeapon@@UAEXPBVioPlayEntity@@@Z
	DD	FLAT:?CheckItemNotDrop@ioWeapon@@UAE_NPAVioBaseChar@@@Z
	DD	FLAT:?GetWorldAttackBoxList@ioWeapon@@UAEXAAV?$vector@VioOrientBox@@V?$allocator@VioOrientBox@@@std@@@std@@@Z
	DD	FLAT:?GetAttackDir@ioAdhesiveMissileWeapon4@@UBE?AUD3DXVECTOR3@@PBVioPlayEntity@@@Z
	DD	FLAT:?GetLocalAttackBox@ioAdhesiveMissileWeapon4@@UBEABVioOrientBox@@XZ
	DD	FLAT:?GetLiveTime@ioWeapon@@UAEKXZ
	DD	FLAT:?GetMoveDir@ioAdhesiveMissileWeapon4@@UAE?AUD3DXVECTOR3@@XZ
	DD	FLAT:?CheckWeaponCollision@ioWeapon@@UAEXXZ
	DD	FLAT:?GetType@ioAdhesiveMissileWeapon4@@UBE?AW4WeaponType@ioWeapon@@XZ
	DD	FLAT:?GetActionStopType@ioAdhesiveMissileWeapon4@@UBE?AW4ActionStopType@@XZ
	DD	FLAT:?GetDieActionStopType@ioAdhesiveMissileWeapon4@@UBE?AW4ActionStopType@@XZ
	DD	FLAT:?GetRefreshDuration@ioWeapon@@UAEKXZ
	DD	FLAT:?GetIgnoreDuration@ioWeapon@@UAEKXZ
	DD	FLAT:?GetIgnoreTimeTypeDuration@ioWeapon@@UAEKXZ
	DD	FLAT:?GetIgnoreTimeType@ioWeapon@@UAEKXZ
	DD	FLAT:?ApplyWeaponSync@ioAdhesiveMissileWeapon4@@UAEXAAVSP2Packet@@PAVioPlayStage@@@Z
	DD	FLAT:?IsSkillDependency@ioWeapon@@UAE_NABVioHashString@@@Z
	DD	FLAT:?SetSkillDependencyAction@ioWeapon@@UAEXXZ
	DD	FLAT:?UpdateWorldAttackBox@ioAdhesiveMissileWeapon4@@MAEXM_N@Z
	DD	FLAT:?GetAttribute@ioAdhesiveMissileWeapon4@@MBEPBUWeaponAttribute@@XZ
	DD	FLAT:?CalcFinalDamage@ioWeapon@@MAEMXZ
	DD	FLAT:?CalcFinalBoundDamage@ioWeapon@@MAEMXZ
	DD	FLAT:?CheckPiercing@ioWeapon@@MAE_N_N@Z
	DD	FLAT:?ClearCollisionList@ioWeapon@@MAEXXZ
	DD	FLAT:?CheckCreateWeaponList@ioWeapon@@MAEXXZ
	DD	FLAT:?CreateCollisionAreaWeapon@ioWeapon@@MAEXXZ
	DD	FLAT:?SetMapCollision@ioWeapon@@UAEXXZ
	DD	FLAT:?IsIgnoreMapCollision@ioWeapon@@UBE_NXZ
	DD	FLAT:?IsIgnoreTestMapCollision@ioWeapon@@UBE_NXZ
	DD	FLAT:?IsIgnoreMapCollisionEffect@ioWeapon@@UBE_NXZ
	DD	FLAT:?AddEffectEvent@ioWeapon@@MAEXPAVioEffect@@@Z
	DD	FLAT:??_EioAdhesiveMissileWeapon4@@UAEPAXI@Z
CONST	ENDS
;	COMDAT xdata$x
xdata$x	SEGMENT
__ehfuncinfo$??1ioAdhesiveMissileWeapon4@@UAE@XZ DD 019930522H
	DD	07H
	DD	FLAT:__unwindtable$??1ioAdhesiveMissileWeapon4@@UAE@XZ
	DD	2 DUP(00H)
	DD	2 DUP(00H)
	DD	00H
	DD	01H
__unwindtable$??1ioAdhesiveMissileWeapon4@@UAE@XZ DD 0ffffffffH
	DD	FLAT:__unwindfunclet$??1ioAdhesiveMissileWeapon4@@UAE@XZ$0
	DD	00H
	DD	FLAT:__unwindfunclet$??1ioAdhesiveMissileWeapon4@@UAE@XZ$1
	DD	01H
	DD	FLAT:__unwindfunclet$??1ioAdhesiveMissileWeapon4@@UAE@XZ$2
	DD	02H
	DD	FLAT:__unwindfunclet$??1ioAdhesiveMissileWeapon4@@UAE@XZ$3
	DD	03H
	DD	FLAT:__unwindfunclet$??1ioAdhesiveMissileWeapon4@@UAE@XZ$4
	DD	04H
	DD	FLAT:__unwindfunclet$??1ioAdhesiveMissileWeapon4@@UAE@XZ$5
	DD	05H
	DD	FLAT:__unwindfunclet$??1ioAdhesiveMissileWeapon4@@UAE@XZ$6
; Function compile flags: /Ogsp
; File d:\lost saga for developer\youtube\tutorial\source\src\lsclient\ioadhesivemissileweapon4.cpp
xdata$x	ENDS
;	COMDAT ??1ioAdhesiveMissileWeapon4@@UAE@XZ
_TEXT	SEGMENT
_this$ = -16						; size = 4
__$EHRec$ = -12						; size = 12
??1ioAdhesiveMissileWeapon4@@UAE@XZ PROC		; ioAdhesiveMissileWeapon4::~ioAdhesiveMissileWeapon4, COMDAT
; _this$ = ecx

; 30   : {

  00000	6a 04		 push	 4
  00002	b8 00 00 00 00	 mov	 eax, __ehhandler$??1ioAdhesiveMissileWeapon4@@UAE@XZ
  00007	e8 00 00 00 00	 call	 __EH_prolog3
  0000c	8b f1		 mov	 esi, ecx
  0000e	89 75 f0	 mov	 DWORD PTR _this$[ebp], esi
  00011	c7 06 00 00 00
	00		 mov	 DWORD PTR [esi], OFFSET ??_7ioAdhesiveMissileWeapon4@@6B@

; 31   : 	if( m_pFireBall )

  00017	83 be a8 08 00
	00 00		 cmp	 DWORD PTR [esi+2216], 0
  0001e	c7 45 fc 06 00
	00 00		 mov	 DWORD PTR __$EHRec$[ebp+8], 6
  00025	74 16		 je	 SHORT $LN1@ioAdhesive

; 32   : 	{
; 33   : 		LOG.PrintTimeAndLog( 0, "ioAdhesiveMissileWeapon4::~ioAdhesiveMissileWeapon4 - UnReleased Resouce" );

  00027	68 00 00 00 00	 push	 OFFSET ??_C@_0EJ@OMJIAJGL@ioAdhesiveMissileWeapon4?3?3?$HOioAdh@
  0002c	6a 00		 push	 0
  0002e	ff 35 00 00 00
	00		 push	 DWORD PTR __imp_?LOG@@3VCLog@@A
  00034	ff 15 00 00 00
	00		 call	 DWORD PTR __imp_?PrintTimeAndLog@CLog@@QAAXHPADZZ
  0003a	83 c4 0c	 add	 esp, 12			; 0000000cH
$LN1@ioAdhesive:

; 34   : 	}
; 35   : }

  0003d	8d 8e 48 09 00
	00		 lea	 ecx, DWORD PTR [esi+2376]
  00043	c6 45 fc 05	 mov	 BYTE PTR __$EHRec$[ebp+8], 5
  00047	c7 86 3c 09 00
	00 00 00 00 00	 mov	 DWORD PTR [esi+2364], OFFSET ??_7?$CEncrypt@M@@6B@
  00051	e8 00 00 00 00	 call	 ??1ccddaabb@@UAE@XZ	; ccddaabb::~ccddaabb
  00056	8d 8e 2c 09 00
	00		 lea	 ecx, DWORD PTR [esi+2348]
  0005c	c6 45 fc 04	 mov	 BYTE PTR __$EHRec$[ebp+8], 4
  00060	e8 00 00 00 00	 call	 ?_Tidy@?$vector@VioHashString@@V?$allocator@VioHashString@@@std@@@std@@IAEXXZ ; std::vector<ioHashString,std::allocator<ioHashString> >::_Tidy
  00065	8d 8e 1c 09 00
	00		 lea	 ecx, DWORD PTR [esi+2332]
  0006b	c6 45 fc 03	 mov	 BYTE PTR __$EHRec$[ebp+8], 3
  0006f	e8 00 00 00 00	 call	 ?_Tidy@?$vector@VioHashString@@V?$allocator@VioHashString@@@std@@@std@@IAEXXZ ; std::vector<ioHashString,std::allocator<ioHashString> >::_Tidy
  00074	8d 8e f0 08 00
	00		 lea	 ecx, DWORD PTR [esi+2288]
  0007a	c6 45 fc 02	 mov	 BYTE PTR __$EHRec$[ebp+8], 2
  0007e	ff 15 00 00 00
	00		 call	 DWORD PTR __imp_??1ioHashString@@QAE@XZ
  00084	8d 8e ac 08 00
	00		 lea	 ecx, DWORD PTR [esi+2220]
  0008a	c6 45 fc 01	 mov	 BYTE PTR __$EHRec$[ebp+8], 1
  0008e	ff 15 00 00 00
	00		 call	 DWORD PTR __imp_??1ioOrientBox@@QAE@XZ
  00094	8d 8e 98 08 00
	00		 lea	 ecx, DWORD PTR [esi+2200]
  0009a	c6 45 fc 00	 mov	 BYTE PTR __$EHRec$[ebp+8], 0
  0009e	e8 00 00 00 00	 call	 ?_Tidy@?$vector@UTargetInfo@ioAdhesiveMissileWeapon4@@V?$allocator@UTargetInfo@ioAdhesiveMissileWeapon4@@@std@@@std@@IAEXXZ ; std::vector<ioAdhesiveMissileWeapon4::TargetInfo,std::allocator<ioAdhesiveMissileWeapon4::TargetInfo> >::_Tidy
  000a3	83 4d fc ff	 or	 DWORD PTR __$EHRec$[ebp+8], -1
  000a7	8b ce		 mov	 ecx, esi
  000a9	e8 00 00 00 00	 call	 ??1ioWeapon@@UAE@XZ	; ioWeapon::~ioWeapon
  000ae	e8 00 00 00 00	 call	 __EH_epilog3
  000b3	c3		 ret	 0
_TEXT	ENDS
;	COMDAT text$x
text$x	SEGMENT
__unwindfunclet$??1ioAdhesiveMissileWeapon4@@UAE@XZ$0:
  00000	8b 4d f0	 mov	 ecx, DWORD PTR _this$[ebp]
  00003	e9 00 00 00 00	 jmp	 ??1ioWeapon@@UAE@XZ	; ioWeapon::~ioWeapon
__unwindfunclet$??1ioAdhesiveMissileWeapon4@@UAE@XZ$1:
  00008	8b 4d f0	 mov	 ecx, DWORD PTR _this$[ebp]
  0000b	81 c1 98 08 00
	00		 add	 ecx, 2200		; 00000898H
  00011	e9 00 00 00 00	 jmp	 ??1?$vector@UTargetInfo@ioAdhesiveMissileWeapon4@@V?$allocator@UTargetInfo@ioAdhesiveMissileWeapon4@@@std@@@std@@QAE@XZ ; std::vector<ioAdhesiveMissileWeapon4::TargetInfo,std::allocator<ioAdhesiveMissileWeapon4::TargetInfo> >::~vector<ioAdhesiveMissileWeapon4::TargetInfo,std::allocator<ioAdhesiveMissileWeapon4::TargetInfo> >
__unwindfunclet$??1ioAdhesiveMissileWeapon4@@UAE@XZ$2:
  00016	8b 4d f0	 mov	 ecx, DWORD PTR _this$[ebp]
  00019	81 c1 ac 08 00
	00		 add	 ecx, 2220		; 000008acH
  0001f	ff 25 00 00 00
	00		 jmp	 DWORD PTR __imp_??1ioOrientBox@@QAE@XZ
__unwindfunclet$??1ioAdhesiveMissileWeapon4@@UAE@XZ$3:
  00025	8b 4d f0	 mov	 ecx, DWORD PTR _this$[ebp]
  00028	81 c1 f0 08 00
	00		 add	 ecx, 2288		; 000008f0H
  0002e	ff 25 00 00 00
	00		 jmp	 DWORD PTR __imp_??1ioHashString@@QAE@XZ
__unwindfunclet$??1ioAdhesiveMissileWeapon4@@UAE@XZ$4:
  00034	8b 4d f0	 mov	 ecx, DWORD PTR _this$[ebp]
  00037	81 c1 1c 09 00
	00		 add	 ecx, 2332		; 0000091cH
  0003d	e9 00 00 00 00	 jmp	 ??1?$vector@VioHashString@@V?$allocator@VioHashString@@@std@@@std@@QAE@XZ ; std::vector<ioHashString,std::allocator<ioHashString> >::~vector<ioHashString,std::allocator<ioHashString> >
__unwindfunclet$??1ioAdhesiveMissileWeapon4@@UAE@XZ$5:
  00042	8b 4d f0	 mov	 ecx, DWORD PTR _this$[ebp]
  00045	81 c1 2c 09 00
	00		 add	 ecx, 2348		; 0000092cH
  0004b	e9 00 00 00 00	 jmp	 ??1?$vector@VioHashString@@V?$allocator@VioHashString@@@std@@@std@@QAE@XZ ; std::vector<ioHashString,std::allocator<ioHashString> >::~vector<ioHashString,std::allocator<ioHashString> >
__unwindfunclet$??1ioAdhesiveMissileWeapon4@@UAE@XZ$6:
  00050	8b 4d f0	 mov	 ecx, DWORD PTR _this$[ebp]
  00053	81 c1 3c 09 00
	00		 add	 ecx, 2364		; 0000093cH
  00059	e9 00 00 00 00	 jmp	 ??1?$CEncrypt@M@@UAE@XZ	; CEncrypt<float>::~CEncrypt<float>
__ehhandler$??1ioAdhesiveMissileWeapon4@@UAE@XZ:
  0005e	8b 54 24 08	 mov	 edx, DWORD PTR [esp+8]
  00062	8d 42 0c	 lea	 eax, DWORD PTR [edx+12]
  00065	8b 4a ec	 mov	 ecx, DWORD PTR [edx-20]
  00068	33 c8		 xor	 ecx, eax
  0006a	e8 00 00 00 00	 call	 @__security_check_cookie@4
  0006f	b8 00 00 00 00	 mov	 eax, OFFSET __ehfuncinfo$??1ioAdhesiveMissileWeapon4@@UAE@XZ
  00074	e9 00 00 00 00	 jmp	 ___CxxFrameHandler3
text$x	ENDS
??1ioAdhesiveMissileWeapon4@@UAE@XZ ENDP		; ioAdhesiveMissileWeapon4::~ioAdhesiveMissileWeapon4
PUBLIC	?ClearData@ioAdhesiveMissileWeapon4@@IAEXXZ	; ioAdhesiveMissileWeapon4::ClearData
EXTRN	__imp_?VEC3_ZERO@ioMath@@2UD3DXVECTOR3@@A:BYTE
; Function compile flags: /Ogsp
;	COMDAT ?ClearData@ioAdhesiveMissileWeapon4@@IAEXXZ
_TEXT	SEGMENT
$T538033 = -4						; size = 4
?ClearData@ioAdhesiveMissileWeapon4@@IAEXXZ PROC	; ioAdhesiveMissileWeapon4::ClearData, COMDAT
; _this$ = ecx

; 38   : {

  00000	55		 push	 ebp
  00001	8b ec		 mov	 ebp, esp
  00003	51		 push	 ecx

; 39   : 	UpdateWorldAttackBox(0.0f, true );

  00004	0f 57 c0	 xorps	 xmm0, xmm0
  00007	53		 push	 ebx
  00008	56		 push	 esi
  00009	57		 push	 edi
  0000a	6a 01		 push	 1
  0000c	8b d9		 mov	 ebx, ecx
  0000e	8b 03		 mov	 eax, DWORD PTR [ebx]
  00010	51		 push	 ecx
  00011	f3 0f 11 04 24	 movss	 DWORD PTR [esp], xmm0
  00016	ff 90 38 01 00
	00		 call	 DWORD PTR [eax+312]

; 40   : 
; 41   : 	m_TargetInfoList.clear();

  0001c	8d 8b 98 08 00
	00		 lea	 ecx, DWORD PTR [ebx+2200]
  00022	8b 41 04	 mov	 eax, DWORD PTR [ecx+4]
  00025	8b 11		 mov	 edx, DWORD PTR [ecx]
  00027	50		 push	 eax
  00028	52		 push	 edx
  00029	8d 45 fc	 lea	 eax, DWORD PTR $T538033[ebp]
  0002c	50		 push	 eax
  0002d	e8 00 00 00 00	 call	 ?erase@?$vector@UTargetInfo@ioAdhesiveMissileWeapon4@@V?$allocator@UTargetInfo@ioAdhesiveMissileWeapon4@@@std@@@std@@QAE?AV?$_Vector_iterator@V?$_Vector_val@UTargetInfo@ioAdhesiveMissileWeapon4@@V?$allocator@UTargetInfo@ioAdhesiveMissileWeapon4@@@std@@@std@@@2@V?$_Vector_const_iterator@V?$_Vector_val@UTargetInfo@ioAdhesiveMissileWeapon4@@V?$allocator@UTargetInfo@ioAdhesiveMissileWeapon4@@@std@@@std@@@2@0@Z ; std::vector<ioAdhesiveMissileWeapon4::TargetInfo,std::allocator<ioAdhesiveMissileWeapon4::TargetInfo> >::erase

; 42   : 
; 43   : 	m_vPreAttackDir = ioMath::VEC3_ZERO;

  00032	8b 35 00 00 00
	00		 mov	 esi, DWORD PTR __imp_?VEC3_ZERO@ioMath@@2UD3DXVECTOR3@@A
  00038	8d bb 0c 09 00
	00		 lea	 edi, DWORD PTR [ebx+2316]
  0003e	a5		 movsd
  0003f	a5		 movsd
  00040	a5		 movsd
  00041	5f		 pop	 edi
  00042	5e		 pop	 esi

; 44   : 	m_bMapCollision = false;

  00043	c6 83 19 09 00
	00 00		 mov	 BYTE PTR [ebx+2329], 0
  0004a	5b		 pop	 ebx

; 45   : }

  0004b	c9		 leave
  0004c	c3		 ret	 0
?ClearData@ioAdhesiveMissileWeapon4@@IAEXXZ ENDP	; ioAdhesiveMissileWeapon4::ClearData
_TEXT	ENDS
PUBLIC	_pEntity$GSCopy$
PUBLIC	__$ArrayPad$
EXTRN	??1SP2Packet@@UAE@XZ:PROC			; SP2Packet::~SP2Packet
EXTRN	?SendToAllPlayingUser@P2PNetwork@@YAXAAVSP2Packet@@PAVioBaseChar@@@Z:PROC ; P2PNetwork::SendToAllPlayingUser
EXTRN	??6SP2Packet@@QAEAAV0@M@Z:PROC			; SP2Packet::operator<<
EXTRN	??6SP2Packet@@QAEAAV0@H@Z:PROC			; SP2Packet::operator<<
EXTRN	??6SP2Packet@@QAEAAV0@K@Z:PROC			; SP2Packet::operator<<
EXTRN	??6SP2Packet@@QAEAAV0@ABVioHashString@@@Z:PROC	; SP2Packet::operator<<
EXTRN	??0SP2Packet@@QAE@K@Z:PROC			; SP2Packet::SP2Packet
EXTRN	_D3DXVec3Normalize@8:PROC
EXTRN	?IsStateProtect@ioBaseChar@@QAE_NW4AttackSide@@W4DefenseBreakType@@@Z:PROC ; ioBaseChar::IsStateProtect
EXTRN	?GetDefenseBreakType@ioWeapon@@QBE?AW4DefenseBreakType@@XZ:PROC ; ioWeapon::GetDefenseBreakType
EXTRN	__imp_??8ioHashString@@QBE_NABV0@@Z:PROC
EXTRN	?GetWorldAttackBox@ioWeapon@@QBEABVioOrientBox@@_N@Z:PROC ; ioWeapon::GetWorldAttackBox
EXTRN	__chkstk:PROC
;	COMDAT xdata$x
xdata$x	SEGMENT
__unwindtable$?IsCollision@ioAdhesiveMissileWeapon4@@UAE_NPAVioPlayEntity@@_N@Z DD 0ffffffffH
	DD	FLAT:__unwindfunclet$?IsCollision@ioAdhesiveMissileWeapon4@@UAE_NPAVioPlayEntity@@_N@Z$0
	DD	0ffffffffH
	DD	FLAT:__unwindfunclet$?IsCollision@ioAdhesiveMissileWeapon4@@UAE_NPAVioPlayEntity@@_N@Z$1
	DD	01H
	DD	FLAT:__unwindfunclet$?IsCollision@ioAdhesiveMissileWeapon4@@UAE_NPAVioPlayEntity@@_N@Z$2
__ehfuncinfo$?IsCollision@ioAdhesiveMissileWeapon4@@UAE_NPAVioPlayEntity@@_N@Z DD 019930522H
	DD	03H
	DD	FLAT:__unwindtable$?IsCollision@ioAdhesiveMissileWeapon4@@UAE_NPAVioPlayEntity@@_N@Z
	DD	2 DUP(00H)
	DD	2 DUP(00H)
	DD	00H
	DD	01H
; Function compile flags: /Ogsp
xdata$x	ENDS
;	COMDAT ?IsCollision@ioAdhesiveMissileWeapon4@@UAE_NPAVioPlayEntity@@_N@Z
_TEXT	SEGMENT
_pInfo$532843 = -32936					; size = 24
_qtRot$532833 = -32912					; size = 16
_pTarget$532795 = -32896				; size = 4
tv1564 = -32892						; size = 4
$T538175 = -32892					; size = 4
_value$538096 = -32892					; size = 4
tv1049 = -32888						; size = 8
tv1424 = -32884						; size = 4
tv1407 = -32884						; size = 4
tv1398 = -32884						; size = 4
tv1376 = -32884						; size = 4
tv1337 = -32884						; size = 4
$T538176 = -32884					; size = 4
_fFrontSideAngleCosine$532825 = -32884			; size = 4
_fFrontAngle$532823 = -32884				; size = 4
_iSize$532799 = -32884					; size = 4
_kPacket$532845 = -32880				; size = 32792
_kInfo$532804 = -88					; size = 24
_vMaxLength$532838 = -76				; size = 12
$T532820 = -76						; size = 12
_vColPoint$ = -64					; size = 12
_vDir$532834 = -52					; size = 12
_vCurLength$532840 = -40				; size = 12
$T532836 = -40						; size = 12
_vDefenseDir$532815 = -40				; size = 12
$T532817 = -28						; size = 12
tv420 = -24						; size = 8
_pEntity$GSCopy$ = -20					; size = 4
$T538174 = -20						; size = 4
$T538181 = -20						; size = 4
_value$538083 = -20					; size = 4
_fAttackedCosine$532822 = -20				; size = 4
_i$532800 = -20						; size = 4
__$ArrayPad$ = -16					; size = 4
__$EHRec$ = -12						; size = 12
_pEntity$ = 8						; size = 4
_bMapCollision$ = 12					; size = 1
?IsCollision@ioAdhesiveMissileWeapon4@@UAE_NPAVioPlayEntity@@_N@Z PROC ; ioAdhesiveMissileWeapon4::IsCollision, COMDAT
; _this$ = ecx

; 519  : {

  00000	55		 push	 ebp
  00001	8b ec		 mov	 ebp, esp
  00003	6a ff		 push	 -1
  00005	68 00 00 00 00	 push	 __ehhandler$?IsCollision@ioAdhesiveMissileWeapon4@@UAE_NPAVioPlayEntity@@_N@Z
  0000a	64 a1 00 00 00
	00		 mov	 eax, DWORD PTR fs:0
  00010	50		 push	 eax
  00011	b8 9c 80 00 00	 mov	 eax, 32924		; 0000809cH
  00016	e8 00 00 00 00	 call	 __chkstk
  0001b	a1 00 00 00 00	 mov	 eax, DWORD PTR ___security_cookie
  00020	33 c5		 xor	 eax, ebp
  00022	89 45 f0	 mov	 DWORD PTR __$ArrayPad$[ebp], eax
  00025	53		 push	 ebx
  00026	56		 push	 esi
  00027	57		 push	 edi
  00028	50		 push	 eax
  00029	8d 45 f4	 lea	 eax, DWORD PTR __$EHRec$[ebp]
  0002c	64 a3 00 00 00
	00		 mov	 DWORD PTR fs:0, eax
  00032	8b 75 08	 mov	 esi, DWORD PTR _pEntity$[ebp]
  00035	8b d9		 mov	 ebx, ecx

; 520  : 	if( !m_bUseCol )

  00037	80 bb 6c 09 00
	00 00		 cmp	 BYTE PTR [ebx+2412], 0

; 611  : 			{
; 612  : 				SP2Packet kPacket( CUPK_WEAPON_SYNC );

  0003e	89 75 ec	 mov	 DWORD PTR _pEntity$GSCopy$[ebp], esi
  00041	0f 84 d3 01 00
	00		 je	 $LN21@IsCollisio

; 521  : 		return false;
; 522  : 
; 523  : 	if( ToBaseChar(pEntity) && !ToBaseChar(pEntity)->IsNeedProcess() )

  00047	56		 push	 esi
  00048	e8 00 00 00 00	 call	 ?ToBaseChar@@YAPAVioBaseChar@@PAVioGameEntity@@@Z ; ToBaseChar
  0004d	59		 pop	 ecx
  0004e	85 c0		 test	 eax, eax
  00050	74 19		 je	 SHORT $LN25@IsCollisio
  00052	56		 push	 esi
  00053	e8 00 00 00 00	 call	 ?ToBaseChar@@YAPAVioBaseChar@@PAVioGameEntity@@@Z ; ToBaseChar
  00058	8b 10		 mov	 edx, DWORD PTR [eax]
  0005a	59		 pop	 ecx
  0005b	8b c8		 mov	 ecx, eax
  0005d	ff 92 00 01 00
	00		 call	 DWORD PTR [edx+256]
  00063	84 c0		 test	 al, al

; 524  : 		return false;

  00065	0f 84 af 01 00
	00		 je	 $LN21@IsCollisio
$LN25@IsCollisio:

; 525  : 
; 526  : 	D3DXVECTOR3 vColPoint = ioMath::VEC3_ZERO;

  0006b	8b 35 00 00 00
	00		 mov	 esi, DWORD PTR __imp_?VEC3_ZERO@ioMath@@2UD3DXVECTOR3@@A
  00071	8d 7d c0	 lea	 edi, DWORD PTR _vColPoint$[ebp]
  00074	a5		 movsd
  00075	a5		 movsd

; 527  : 	if( pEntity->IsWoundedCollision( GetWorldAttackBox(), &vColPoint ) )

  00076	8d 45 c0	 lea	 eax, DWORD PTR _vColPoint$[ebp]
  00079	a5		 movsd
  0007a	8b 7d ec	 mov	 edi, DWORD PTR _pEntity$GSCopy$[ebp]
  0007d	8b 37		 mov	 esi, DWORD PTR [edi]
  0007f	50		 push	 eax
  00080	6a 00		 push	 0
  00082	8b cb		 mov	 ecx, ebx
  00084	e8 00 00 00 00	 call	 ?GetWorldAttackBox@ioWeapon@@QBEABVioOrientBox@@_N@Z ; ioWeapon::GetWorldAttackBox
  00089	50		 push	 eax
  0008a	8b cf		 mov	 ecx, edi
  0008c	ff 96 90 00 00
	00		 call	 DWORD PTR [esi+144]
  00092	84 c0		 test	 al, al
  00094	0f 84 80 01 00
	00		 je	 $LN21@IsCollisio

; 528  : 	{
; 529  : 		//     .
; 530  : 		ioNpcChar *pNpc = ToNpcChar( pEntity );

  0009a	57		 push	 edi
  0009b	e8 00 00 00 00	 call	 ?ToNpcChar@@YAPAVioNpcChar@@PAVioGameEntity@@@Z ; ToNpcChar
  000a0	8b f0		 mov	 esi, eax
  000a2	59		 pop	 ecx

; 531  : 		if( pNpc && COMPARE(pNpc->GetNpcType(), NT_BIGTOWER, END_FIXING_NPC) )

  000a3	85 f6		 test	 esi, esi
  000a5	74 25		 je	 SHORT $LN23@IsCollisio
  000a7	8b 06		 mov	 eax, DWORD PTR [esi]
  000a9	8b ce		 mov	 ecx, esi
  000ab	ff 90 98 01 00
	00		 call	 DWORD PTR [eax+408]
  000b1	83 f8 02	 cmp	 eax, 2
  000b4	7c 16		 jl	 SHORT $LN23@IsCollisio
  000b6	8b 06		 mov	 eax, DWORD PTR [esi]
  000b8	8b ce		 mov	 ecx, esi
  000ba	ff 90 98 01 00
	00		 call	 DWORD PTR [eax+408]
  000c0	83 f8 08	 cmp	 eax, 8
  000c3	7d 07		 jge	 SHORT $LN23@IsCollisio
$LN134@IsCollisio:

; 532  : 			return true;

  000c5	b0 01		 mov	 al, 1
  000c7	e9 50 01 00 00	 jmp	 $LN27@IsCollisio
$LN23@IsCollisio:

; 533  : 
; 534  : 		//      .
; 535  : 		if( GetTargetBuffList().empty() && GetTargetAirBuffList().empty() && GetTargetDownBuffList().empty() )		

  000cc	8b 03		 mov	 eax, DWORD PTR [ebx]
  000ce	8b cb		 mov	 ecx, ebx
  000d0	ff 50 68	 call	 DWORD PTR [eax+104]
  000d3	8b 08		 mov	 ecx, DWORD PTR [eax]
  000d5	3b 48 04	 cmp	 ecx, DWORD PTR [eax+4]
  000d8	75 1c		 jne	 SHORT $LN22@IsCollisio
  000da	8b 03		 mov	 eax, DWORD PTR [ebx]
  000dc	8b cb		 mov	 ecx, ebx
  000de	ff 50 64	 call	 DWORD PTR [eax+100]
  000e1	8b 08		 mov	 ecx, DWORD PTR [eax]
  000e3	3b 48 04	 cmp	 ecx, DWORD PTR [eax+4]
  000e6	75 0e		 jne	 SHORT $LN22@IsCollisio
  000e8	8b 03		 mov	 eax, DWORD PTR [ebx]
  000ea	8b cb		 mov	 ecx, ebx
  000ec	ff 50 6c	 call	 DWORD PTR [eax+108]
  000ef	8b 08		 mov	 ecx, DWORD PTR [eax]
  000f1	3b 48 04	 cmp	 ecx, DWORD PTR [eax+4]

; 536  : 			return true;		

  000f4	74 cf		 je	 SHORT $LN134@IsCollisio
$LN22@IsCollisio:

; 537  : 
; 538  : 		ioBaseChar* pTarget = ToBaseChar(pEntity);

  000f6	57		 push	 edi
  000f7	e8 00 00 00 00	 call	 ?ToBaseChar@@YAPAVioBaseChar@@PAVioGameEntity@@@Z ; ToBaseChar
  000fc	8b f0		 mov	 esi, eax
  000fe	59		 pop	 ecx
  000ff	89 b5 80 7f ff
	ff		 mov	 DWORD PTR _pTarget$532795[ebp], esi

; 539  : 		if( pTarget )

  00105	85 f6		 test	 esi, esi
  00107	0f 84 0d 01 00
	00		 je	 $LN21@IsCollisio

; 540  : 		{
; 541  : 			ioBaseChar *pOwner = GetOwner();

  0010d	8b cb		 mov	 ecx, ebx
  0010f	e8 00 00 00 00	 call	 ?GetOwner@ioWeapon@@QBEPAVioBaseChar@@XZ ; ioWeapon::GetOwner

; 542  : 			if( pOwner && pOwner->GetTeam() == pTarget->GetTeam() )

  00114	85 c0		 test	 eax, eax
  00116	74 2c		 je	 SHORT $LN20@IsCollisio
  00118	8d 88 90 00 00
	00		 lea	 ecx, DWORD PTR [eax+144]
  0011e	8d 45 ec	 lea	 eax, DWORD PTR _value$538083[ebp]
  00121	50		 push	 eax
  00122	e8 00 00 00 00	 call	 ?DecryptValueToPool@?$CEncrypt@W4TeamType@@@@QAEXPAW4TeamType@@@Z ; CEncrypt<enum TeamType>::DecryptValueToPool
  00127	8d 85 84 7f ff
	ff		 lea	 eax, DWORD PTR _value$538096[ebp]
  0012d	8d 8e 90 00 00
	00		 lea	 ecx, DWORD PTR [esi+144]
  00133	50		 push	 eax
  00134	e8 00 00 00 00	 call	 ?DecryptValueToPool@?$CEncrypt@W4TeamType@@@@QAEXPAW4TeamType@@@Z ; CEncrypt<enum TeamType>::DecryptValueToPool
  00139	8b 45 ec	 mov	 eax, DWORD PTR _value$538083[ebp]
  0013c	3b 85 84 7f ff
	ff		 cmp	 eax, DWORD PTR _value$538096[ebp]

; 543  : 				return true;

  00142	74 81		 je	 SHORT $LN134@IsCollisio
$LN20@IsCollisio:

; 544  : 
; 545  : 			int iSize = m_TargetInfoList.size();

  00144	8b 83 9c 08 00
	00		 mov	 eax, DWORD PTR [ebx+2204]
  0014a	2b 83 98 08 00
	00		 sub	 eax, DWORD PTR [ebx+2200]
  00150	6a 18		 push	 24			; 00000018H
  00152	99		 cdq
  00153	59		 pop	 ecx
  00154	f7 f9		 idiv	 ecx

; 546  : 			for( int i=0; i<iSize; ++i )

  00156	83 65 ec 00	 and	 DWORD PTR _i$532800[ebp], 0
  0015a	89 85 8c 7f ff
	ff		 mov	 DWORD PTR _iSize$532799[ebp], eax
  00160	85 c0		 test	 eax, eax
  00162	7e 76		 jle	 SHORT $LN17@IsCollisio

; 544  : 
; 545  : 			int iSize = m_TargetInfoList.size();

  00164	83 a5 84 7f ff
	ff 00		 and	 DWORD PTR tv1564[ebp], 0
$LN19@IsCollisio:

; 547  : 			{
; 548  : 				TargetInfo kInfo = m_TargetInfoList[i];

  0016b	8b b3 98 08 00
	00		 mov	 esi, DWORD PTR [ebx+2200]
  00171	03 b5 84 7f ff
	ff		 add	 esi, DWORD PTR tv1564[ebp]
  00177	8d 4d a8	 lea	 ecx, DWORD PTR _kInfo$532804[ebp]
  0017a	56		 push	 esi
  0017b	ff 15 00 00 00
	00		 call	 DWORD PTR __imp_??0ioHashString@@QAE@ABV0@@Z
  00181	f3 0f 10 46 10	 movss	 xmm0, DWORD PTR [esi+16]
  00186	f3 0f 11 45 b8	 movss	 DWORD PTR _kInfo$532804[ebp+16], xmm0
  0018b	f3 0f 10 46 14	 movss	 xmm0, DWORD PTR [esi+20]
  00190	f3 0f 11 45 bc	 movss	 DWORD PTR _kInfo$532804[ebp+20], xmm0

; 549  : 				if( kInfo.m_szTargetName == pTarget->GetCharName() )

  00195	8b 85 80 7f ff
	ff		 mov	 eax, DWORD PTR _pTarget$532795[ebp]
  0019b	83 65 fc 00	 and	 DWORD PTR __$EHRec$[ebp+8], 0
  0019f	05 d4 02 00 00	 add	 eax, 724		; 000002d4H
  001a4	50		 push	 eax
  001a5	8d 4d a8	 lea	 ecx, DWORD PTR _kInfo$532804[ebp]
  001a8	ff 15 00 00 00
	00		 call	 DWORD PTR __imp_??8ioHashString@@QBE_NABV0@@Z

; 551  : 			}

  001ae	83 4d fc ff	 or	 DWORD PTR __$EHRec$[ebp+8], -1
  001b2	8d 4d a8	 lea	 ecx, DWORD PTR _kInfo$532804[ebp]
  001b5	84 c0		 test	 al, al
  001b7	75 5b		 jne	 SHORT $LN124@IsCollisio
  001b9	ff 15 00 00 00
	00		 call	 DWORD PTR __imp_??1ioHashString@@QAE@XZ
  001bf	ff 45 ec	 inc	 DWORD PTR _i$532800[ebp]
  001c2	8b 45 ec	 mov	 eax, DWORD PTR _i$532800[ebp]
  001c5	83 85 84 7f ff
	ff 18		 add	 DWORD PTR tv1564[ebp], 24 ; 00000018H
  001cc	3b 85 8c 7f ff
	ff		 cmp	 eax, DWORD PTR _iSize$532799[ebp]
  001d2	7c 97		 jl	 SHORT $LN19@IsCollisio

; 549  : 				if( kInfo.m_szTargetName == pTarget->GetCharName() )

  001d4	8b b5 80 7f ff
	ff		 mov	 esi, DWORD PTR _pTarget$532795[ebp]
$LN17@IsCollisio:

; 552  : 
; 553  : 			// ,      .
; 554  : 			if( pTarget->HasBuff(BT_STATE_PROTECTION) || pTarget->HasBuff( BT_STATE_PROTECTION_BY_PASSIVE ) )

  001da	6a 23		 push	 35			; 00000023H
  001dc	8b ce		 mov	 ecx, esi
  001de	e8 00 00 00 00	 call	 ?HasBuff@ioBaseChar@@QBE_NH@Z ; ioBaseChar::HasBuff
  001e3	84 c0		 test	 al, al
  001e5	75 51		 jne	 SHORT $LN14@IsCollisio
  001e7	68 9c 00 00 00	 push	 156			; 0000009cH
  001ec	8b ce		 mov	 ecx, esi
  001ee	e8 00 00 00 00	 call	 ?HasBuff@ioBaseChar@@QBE_NH@Z ; ioBaseChar::HasBuff
  001f3	84 c0		 test	 al, al
  001f5	75 41		 jne	 SHORT $LN14@IsCollisio

; 586  : 				}
; 587  : 			}
; 588  : 			else if( pTarget->IsProtectState() )

  001f7	8b ce		 mov	 ecx, esi
  001f9	e8 00 00 00 00	 call	 ?IsProtectState@ioBaseChar@@QAE_NXZ ; ioBaseChar::IsProtectState
  001fe	84 c0		 test	 al, al

; 589  : 				return true;

  00200	0f 85 bf fe ff
	ff		 jne	 $LN134@IsCollisio

; 590  : 			else if( pTarget->HasBuff( BT_HIT_COUNT_HOLD ) )

  00206	6a 70		 push	 112			; 00000070H
  00208	8b ce		 mov	 ecx, esi
  0020a	e8 00 00 00 00	 call	 ?HasBuff@ioBaseChar@@QBE_NH@Z ; ioBaseChar::HasBuff

; 591  : 				return true;

  0020f	e9 6a 01 00 00	 jmp	 $LN135@IsCollisio
$LN124@IsCollisio:

; 550  : 					return false;

  00214	ff 15 00 00 00
	00		 call	 DWORD PTR __imp_??1ioHashString@@QAE@XZ
$LN21@IsCollisio:

; 623  : 		}
; 624  : 	}
; 625  : 
; 626  : 	return false;

  0021a	32 c0		 xor	 al, al
$LN27@IsCollisio:

; 627  : }

  0021c	8b 4d f4	 mov	 ecx, DWORD PTR __$EHRec$[ebp]
  0021f	64 89 0d 00 00
	00 00		 mov	 DWORD PTR fs:0, ecx
  00226	59		 pop	 ecx
  00227	5f		 pop	 edi
  00228	5e		 pop	 esi
  00229	5b		 pop	 ebx
  0022a	8b 4d f0	 mov	 ecx, DWORD PTR __$ArrayPad$[ebp]
  0022d	33 cd		 xor	 ecx, ebp
  0022f	e8 00 00 00 00	 call	 @__security_check_cookie@4
  00234	c9		 leave
  00235	c2 08 00	 ret	 8
$LN14@IsCollisio:

; 555  : 			{
; 556  : 				AttackSide eAttackSide = AS_NONE;
; 557  : 
; 558  : 				CharState eState = pTarget->GetState();

  00238	8a 86 10 03 00
	00		 mov	 al, BYTE PTR [esi+784]

; 559  : 				if( eState == CS_BLOW_WOUNDED || eState == CS_BOUND_BLOW_WOUNDED )

  0023e	3c 0c		 cmp	 al, 12			; 0000000cH
  00240	74 04		 je	 SHORT $LN12@IsCollisio
  00242	3c 31		 cmp	 al, 49			; 00000031H
  00244	75 12		 jne	 SHORT $LN126@IsCollisio
$LN12@IsCollisio:

; 560  : 				{
; 561  : 					if( eState == BW_BLOW_ENDED )

  00246	3c 02		 cmp	 al, 2
  00248	75 0e		 jne	 SHORT $LN126@IsCollisio

; 562  : 					{
; 563  : 						eAttackSide = pTarget->GetCurAttackedSide();

  0024a	8b be d4 0e 00
	00		 mov	 edi, DWORD PTR [esi+3796]

; 564  : 					}
; 565  : 				}
; 566  : 
; 567  : 				if( eAttackSide == AS_NONE )

  00250	85 ff		 test	 edi, edi
  00252	0f 85 16 01 00
	00		 jne	 $LN8@IsCollisio
$LN126@IsCollisio:

; 568  : 				{
; 569  : 					D3DXVECTOR3 vDefenseDir = pTarget->GetTargetRot() * D3DXVECTOR3( 0.0f, 0.0f, -FLOAT1 );

  00258	b8 01 00 00 00	 mov	 eax, 1
  0025d	0f 57 c0	 xorps	 xmm0, xmm0
  00260	89 85 8c 7f ff
	ff		 mov	 DWORD PTR tv1424[ebp], eax
  00266	db 85 8c 7f ff
	ff		 fild	 DWORD PTR tv1424[ebp]
  0026c	f3 0f 11 45 e4	 movss	 DWORD PTR $T532817[ebp], xmm0
  00271	f3 0f 11 45 e8	 movss	 DWORD PTR $T532817[ebp+4], xmm0
  00276	85 c0		 test	 eax, eax
  00278	79 06		 jns	 SHORT $LN131@IsCollisio
  0027a	d8 05 00 00 00
	00		 fadd	 DWORD PTR __real@4f800000
$LN131@IsCollisio:
  00280	8d 45 e4	 lea	 eax, DWORD PTR $T532817[ebp]
  00283	d9 e0		 fchs
  00285	50		 push	 eax
  00286	d9 5d ec	 fstp	 DWORD PTR $T532817[ebp+8]
  00289	8d 86 a4 06 00
	00		 lea	 eax, DWORD PTR [esi+1700]
  0028f	50		 push	 eax
  00290	8d 45 d8	 lea	 eax, DWORD PTR _vDefenseDir$532815[ebp]
  00293	50		 push	 eax
  00294	ff 15 00 00 00
	00		 call	 DWORD PTR __imp_??D@YA?AUD3DXVECTOR3@@ABUD3DXQUATERNION@@ABU0@@Z

; 570  : 					D3DXVECTOR3 vInvAttack = -GetAttackDir(pTarget);

  0029a	8b 03		 mov	 eax, DWORD PTR [ebx]
  0029c	83 c4 0c	 add	 esp, 12			; 0000000cH
  0029f	56		 push	 esi
  002a0	8d 4d b4	 lea	 ecx, DWORD PTR $T532820[ebp]
  002a3	51		 push	 ecx
  002a4	8b cb		 mov	 ecx, ebx
  002a6	ff 90 fc 00 00
	00		 call	 DWORD PTR [eax+252]
  002ac	f3 0f 10 05 00
	00 00 00	 movss	 xmm0, DWORD PTR __mask@@NegFloat@
  002b4	f3 0f 10 50 04	 movss	 xmm2, DWORD PTR [eax+4]
  002b9	f3 0f 10 08	 movss	 xmm1, DWORD PTR [eax]
  002bd	f3 0f 10 58 08	 movss	 xmm3, DWORD PTR [eax+8]
  002c2	0f 57 d0	 xorps	 xmm2, xmm0
  002c5	0f 57 c8	 xorps	 xmm1, xmm0
  002c8	0f 57 d8	 xorps	 xmm3, xmm0

; 571  : 
; 572  : 					float fAttackedCosine = D3DXVec3Dot( &vDefenseDir, &vInvAttack );

  002cb	f3 0f 10 45 dc	 movss	 xmm0, DWORD PTR _vDefenseDir$532815[ebp+4]
  002d0	0f 5a d2	 cvtps2pd xmm2, xmm2
  002d3	0f 5a c0	 cvtps2pd xmm0, xmm0
  002d6	f2 0f 59 c2	 mulsd	 xmm0, xmm2
  002da	f3 0f 10 55 d8	 movss	 xmm2, DWORD PTR _vDefenseDir$532815[ebp]
  002df	0f 5a c9	 cvtps2pd xmm1, xmm1
  002e2	0f 5a d2	 cvtps2pd xmm2, xmm2
  002e5	f2 0f 59 d1	 mulsd	 xmm2, xmm1
  002e9	f3 0f 10 4d e0	 movss	 xmm1, DWORD PTR _vDefenseDir$532815[ebp+8]
  002ee	f2 0f 58 c2	 addsd	 xmm0, xmm2
  002f2	0f 5a c9	 cvtps2pd xmm1, xmm1
  002f5	0f 5a d3	 cvtps2pd xmm2, xmm3
  002f8	f2 0f 59 ca	 mulsd	 xmm1, xmm2
  002fc	f2 0f 58 c1	 addsd	 xmm0, xmm1
  00300	66 0f 5a c0	 cvtpd2ps xmm0, xmm0
  00304	f3 0f 11 45 ec	 movss	 DWORD PTR _fAttackedCosine$532822[ebp], xmm0

; 573  : 					
; 574  : 					float fFrontAngle = DEGtoRAD( FLOAT90 );

  00309	b8 5a 00 00 00	 mov	 eax, 90			; 0000005aH
  0030e	89 85 8c 7f ff
	ff		 mov	 DWORD PTR tv1407[ebp], eax
  00314	db 85 8c 7f ff
	ff		 fild	 DWORD PTR tv1407[ebp]
  0031a	85 c0		 test	 eax, eax
  0031c	79 06		 jns	 SHORT $LN132@IsCollisio
  0031e	d8 05 00 00 00
	00		 fadd	 DWORD PTR __real@4f800000
$LN132@IsCollisio:
  00324	dc 0d 00 00 00
	00		 fmul	 QWORD PTR __real@3f91df46a2526c7a
  0032a	d9 9d 8c 7f ff
	ff		 fstp	 DWORD PTR _fFrontAngle$532823[ebp]

; 575  : 					float fFrontSideAngleCosine = cosf( fFrontAngle );	//    

  00330	d9 85 8c 7f ff
	ff		 fld	 DWORD PTR _fFrontAngle$532823[ebp]
  00336	e8 00 00 00 00	 call	 __CIcos
  0033b	d9 9d 8c 7f ff
	ff		 fstp	 DWORD PTR tv1398[ebp]
  00341	d9 85 8c 7f ff
	ff		 fld	 DWORD PTR tv1398[ebp]

; 576  : 
; 577  : 					if( fAttackedCosine >= fFrontSideAngleCosine )

  00347	f3 0f 10 45 ec	 movss	 xmm0, DWORD PTR _fAttackedCosine$532822[ebp]
  0034c	d9 9d 8c 7f ff
	ff		 fstp	 DWORD PTR _fFrontSideAngleCosine$532825[ebp]
  00352	0f 5a c0	 cvtps2pd xmm0, xmm0
  00355	f3 0f 10 8d 8c
	7f ff ff	 movss	 xmm1, DWORD PTR _fFrontSideAngleCosine$532825[ebp]
  0035d	0f 5a c9	 cvtps2pd xmm1, xmm1
  00360	66 0f 2f c1	 comisd	 xmm0, xmm1
  00364	72 05		 jb	 SHORT $LN9@IsCollisio

; 578  : 						eAttackSide = AS_FRONT;

  00366	33 ff		 xor	 edi, edi
  00368	47		 inc	 edi

; 579  : 					else

  00369	eb 03		 jmp	 SHORT $LN8@IsCollisio
$LN9@IsCollisio:

; 580  : 						eAttackSide = AS_BACK;

  0036b	6a 02		 push	 2
  0036d	5f		 pop	 edi
$LN8@IsCollisio:

; 581  : 				}
; 582  : 
; 583  : 				if( pTarget->IsStateProtect( eAttackSide, GetDefenseBreakType() ) )

  0036e	8b cb		 mov	 ecx, ebx
  00370	e8 00 00 00 00	 call	 ?GetDefenseBreakType@ioWeapon@@QBE?AW4DefenseBreakType@@XZ ; ioWeapon::GetDefenseBreakType
  00375	50		 push	 eax
  00376	57		 push	 edi
  00377	8b ce		 mov	 ecx, esi
  00379	e8 00 00 00 00	 call	 ?IsStateProtect@ioBaseChar@@QAE_NW4AttackSide@@W4DefenseBreakType@@@Z ; ioBaseChar::IsStateProtect
$LN135@IsCollisio:
  0037e	84 c0		 test	 al, al

; 584  : 				{
; 585  : 					return true;

  00380	0f 85 3f fd ff
	ff		 jne	 $LN134@IsCollisio

; 592  : 									
; 593  : 			D3DXQUATERNION qtRot = GetOrientation();

  00386	8b cb		 mov	 ecx, ebx
  00388	e8 00 00 00 00	 call	 ?GetOrientation@ioWeapon@@QBEABUD3DXQUATERNION@@XZ ; ioWeapon::GetOrientation
  0038d	8b f0		 mov	 esi, eax
  0038f	8d bd 70 7f ff
	ff		 lea	 edi, DWORD PTR _qtRot$532833[ebp]
  00395	a5		 movsd
  00396	a5		 movsd
  00397	a5		 movsd
  00398	a5		 movsd

; 594  : 			D3DXVECTOR3 vDir = qtRot * D3DXVECTOR3( 0.0f, 0.0f, -FLOAT1 );

  00399	b8 01 00 00 00	 mov	 eax, 1
  0039e	0f 57 c0	 xorps	 xmm0, xmm0
  003a1	89 85 8c 7f ff
	ff		 mov	 DWORD PTR tv1376[ebp], eax
  003a7	db 85 8c 7f ff
	ff		 fild	 DWORD PTR tv1376[ebp]
  003ad	f3 0f 11 45 d8	 movss	 DWORD PTR $T532836[ebp], xmm0
  003b2	f3 0f 11 45 dc	 movss	 DWORD PTR $T532836[ebp+4], xmm0
  003b7	85 c0		 test	 eax, eax
  003b9	79 06		 jns	 SHORT $LN133@IsCollisio
  003bb	d8 05 00 00 00
	00		 fadd	 DWORD PTR __real@4f800000
$LN133@IsCollisio:
  003c1	8d 45 d8	 lea	 eax, DWORD PTR $T532836[ebp]
  003c4	d9 e0		 fchs
  003c6	50		 push	 eax
  003c7	d9 5d e0	 fstp	 DWORD PTR $T532836[ebp+8]
  003ca	8d 85 70 7f ff
	ff		 lea	 eax, DWORD PTR _qtRot$532833[ebp]
  003d0	50		 push	 eax
  003d1	8d 45 cc	 lea	 eax, DWORD PTR _vDir$532834[ebp]
  003d4	50		 push	 eax
  003d5	ff 15 00 00 00
	00		 call	 DWORD PTR __imp_??D@YA?AUD3DXVECTOR3@@ABUD3DXQUATERNION@@ABU0@@Z
  003db	83 c4 0c	 add	 esp, 12			; 0000000cH

; 595  : 			D3DXVec3Normalize( &vDir, &vDir );

  003de	8d 45 cc	 lea	 eax, DWORD PTR _vDir$532834[ebp]
  003e1	50		 push	 eax
  003e2	50		 push	 eax
  003e3	e8 00 00 00 00	 call	 _D3DXVec3Normalize@8

; 596  : 
; 597  : 			D3DXVECTOR3 vMaxLength = vDir * (m_WorldAttackBox.GetExtents(2) * 2.0f);

  003e8	6a 02		 push	 2
  003ea	8d 8b e8 04 00
	00		 lea	 ecx, DWORD PTR [ebx+1256]
  003f0	ff 15 00 00 00
	00		 call	 DWORD PTR __imp_?GetExtents@ioOrientBox@@QBEMH@Z
  003f6	dc c0		 fadd	 ST(0), ST(0)
  003f8	f3 0f 10 4d cc	 movss	 xmm1, DWORD PTR _vDir$532834[ebp]

; 598  : 			D3DXVECTOR3 vCurLength = pTarget->GetWorldPosition() - GetPosition();

  003fd	8b 03		 mov	 eax, DWORD PTR [ebx]
  003ff	d9 5d ec	 fstp	 DWORD PTR $T538181[ebp]
  00402	f3 0f 10 45 ec	 movss	 xmm0, DWORD PTR $T538181[ebp]
  00407	f3 0f 10 55 ec	 movss	 xmm2, DWORD PTR $T538181[ebp]
  0040c	f3 0f 10 5d ec	 movss	 xmm3, DWORD PTR $T538181[ebp]
  00411	0f 5a c9	 cvtps2pd xmm1, xmm1
  00414	0f 5a c0	 cvtps2pd xmm0, xmm0
  00417	f2 0f 59 c1	 mulsd	 xmm0, xmm1
  0041b	f3 0f 10 4d d0	 movss	 xmm1, DWORD PTR _vDir$532834[ebp+4]
  00420	0f 5a d2	 cvtps2pd xmm2, xmm2
  00423	0f 5a c9	 cvtps2pd xmm1, xmm1
  00426	f2 0f 59 ca	 mulsd	 xmm1, xmm2
  0042a	f3 0f 10 55 d4	 movss	 xmm2, DWORD PTR _vDir$532834[ebp+8]
  0042f	0f 5a d2	 cvtps2pd xmm2, xmm2
  00432	0f 5a db	 cvtps2pd xmm3, xmm3
  00435	f2 0f 5a c0	 cvtsd2ss xmm0, xmm0
  00439	66 0f 5a c9	 cvtpd2ps xmm1, xmm1
  0043d	f2 0f 59 d3	 mulsd	 xmm2, xmm3
  00441	66 0f 5a d2	 cvtpd2ps xmm2, xmm2
  00445	8b cb		 mov	 ecx, ebx
  00447	f3 0f 11 85 8c
	7f ff ff	 movss	 DWORD PTR $T538176[ebp], xmm0
  0044f	f3 0f 11 8d 84
	7f ff ff	 movss	 DWORD PTR $T538175[ebp], xmm1
  00457	f3 0f 11 55 ec	 movss	 DWORD PTR $T538174[ebp], xmm2
  0045c	f3 0f 11 45 b4	 movss	 DWORD PTR _vMaxLength$532838[ebp], xmm0
  00461	f3 0f 11 4d b8	 movss	 DWORD PTR _vMaxLength$532838[ebp+4], xmm1
  00466	f3 0f 11 55 bc	 movss	 DWORD PTR _vMaxLength$532838[ebp+8], xmm2
  0046b	ff 50 70	 call	 DWORD PTR [eax+112]
  0046e	8b b5 80 7f ff
	ff		 mov	 esi, DWORD PTR _pTarget$532795[ebp]
  00474	8b f8		 mov	 edi, eax
  00476	8b 06		 mov	 eax, DWORD PTR [esi]
  00478	8b ce		 mov	 ecx, esi
  0047a	ff 50 70	 call	 DWORD PTR [eax+112]
  0047d	f3 0f 10 00	 movss	 xmm0, DWORD PTR [eax]
  00481	f3 0f 10 0f	 movss	 xmm1, DWORD PTR [edi]
  00485	f3 0f 10 57 04	 movss	 xmm2, DWORD PTR [edi+4]
  0048a	f3 0f 10 5f 08	 movss	 xmm3, DWORD PTR [edi+8]

; 599  : 
; 600  : 			if( D3DXVec3Length(&vMaxLength) < D3DXVec3Length(&vCurLength) )

  0048f	f3 0f 10 a5 84
	7f ff ff	 movss	 xmm4, DWORD PTR $T538175[ebp]
  00497	f3 0f 10 6d ec	 movss	 xmm5, DWORD PTR $T538174[ebp]
  0049c	0f 5a c9	 cvtps2pd xmm1, xmm1
  0049f	0f 5a c0	 cvtps2pd xmm0, xmm0
  004a2	f2 0f 5c c1	 subsd	 xmm0, xmm1
  004a6	f3 0f 10 48 04	 movss	 xmm1, DWORD PTR [eax+4]
  004ab	0f 5a d2	 cvtps2pd xmm2, xmm2
  004ae	0f 5a c9	 cvtps2pd xmm1, xmm1
  004b1	f2 0f 5c ca	 subsd	 xmm1, xmm2
  004b5	f3 0f 10 50 08	 movss	 xmm2, DWORD PTR [eax+8]
  004ba	0f 5a db	 cvtps2pd xmm3, xmm3
  004bd	0f 5a d2	 cvtps2pd xmm2, xmm2
  004c0	f2 0f 5c d3	 subsd	 xmm2, xmm3
  004c4	f3 0f 10 9d 8c
	7f ff ff	 movss	 xmm3, DWORD PTR $T538176[ebp]
  004cc	0f 5a e4	 cvtps2pd xmm4, xmm4
  004cf	0f 5a db	 cvtps2pd xmm3, xmm3
  004d2	66 0f 5a c0	 cvtpd2ps xmm0, xmm0
  004d6	66 0f 5a c9	 cvtpd2ps xmm1, xmm1
  004da	66 0f 5a d2	 cvtpd2ps xmm2, xmm2
  004de	f2 0f 59 e4	 mulsd	 xmm4, xmm4
  004e2	f2 0f 59 db	 mulsd	 xmm3, xmm3
  004e6	f3 0f 11 45 d8	 movss	 DWORD PTR _vCurLength$532840[ebp], xmm0
  004eb	f3 0f 11 4d dc	 movss	 DWORD PTR _vCurLength$532840[ebp+4], xmm1
  004f0	f3 0f 11 55 e0	 movss	 DWORD PTR _vCurLength$532840[ebp+8], xmm2
  004f5	0f 5a ed	 cvtps2pd xmm5, xmm5
  004f8	f2 0f 58 e3	 addsd	 xmm4, xmm3
  004fc	f3 0f 5a c0	 cvtss2sd xmm0, xmm0
  00500	f2 0f 59 c0	 mulsd	 xmm0, xmm0
  00504	f3 0f 5a c9	 cvtss2sd xmm1, xmm1
  00508	f2 0f 59 c9	 mulsd	 xmm1, xmm1
  0050c	f2 0f 58 c1	 addsd	 xmm0, xmm1
  00510	0f 57 db	 xorps	 xmm3, xmm3
  00513	f3 0f 5a d2	 cvtss2sd xmm2, xmm2
  00517	f2 0f 59 ed	 mulsd	 xmm5, xmm5
  0051b	f2 0f 59 d2	 mulsd	 xmm2, xmm2
  0051f	f2 0f 58 c2	 addsd	 xmm0, xmm2
  00523	66 0f 5a c0	 cvtpd2ps xmm0, xmm0
  00527	f2 0f 58 e5	 addsd	 xmm4, xmm5
  0052b	f2 0f 5a dc	 cvtsd2ss xmm3, xmm4
  0052f	f3 0f 5a c0	 cvtss2sd xmm0, xmm0
  00533	0f 5a db	 cvtps2pd xmm3, xmm3
  00536	f2 0f 51 c0	 sqrtsd	 xmm0, xmm0
  0053a	f2 0f 51 db	 sqrtsd	 xmm3, xmm3
  0053e	66 0f 5a db	 cvtpd2ps xmm3, xmm3
  00542	0f 57 c9	 xorps	 xmm1, xmm1
  00545	66 0f 5a c0	 cvtpd2ps xmm0, xmm0
  00549	f3 0f 5a cb	 cvtss2sd xmm1, xmm3
  0054d	f3 0f 5a c0	 cvtss2sd xmm0, xmm0
  00551	66 0f 2f c1	 comisd	 xmm0, xmm1
  00555	76 0f		 jbe	 SHORT $LN2@IsCollisio

; 601  : 				vCurLength = vMaxLength;

  00557	8d 75 b4	 lea	 esi, DWORD PTR _vMaxLength$532838[ebp]
  0055a	8d 7d d8	 lea	 edi, DWORD PTR _vCurLength$532840[ebp]
  0055d	a5		 movsd
  0055e	a5		 movsd
  0055f	a5		 movsd
  00560	8b b5 80 7f ff
	ff		 mov	 esi, DWORD PTR _pTarget$532795[ebp]
$LN2@IsCollisio:

; 602  : 
; 603  : 			TargetInfo pInfo;

  00566	8d 8d 58 7f ff
	ff		 lea	 ecx, DWORD PTR _pInfo$532843[ebp]
  0056c	ff 15 00 00 00
	00		 call	 DWORD PTR __imp_??0ioHashString@@QAE@XZ

; 604  : 			pInfo.m_szTargetName = pTarget->GetCharName();

  00572	8d be d4 02 00
	00		 lea	 edi, DWORD PTR [esi+724]
  00578	57		 push	 edi
  00579	8d 8d 58 7f ff
	ff		 lea	 ecx, DWORD PTR _pInfo$532843[ebp]
  0057f	c7 45 fc 01 00
	00 00		 mov	 DWORD PTR __$EHRec$[ebp+8], 1
  00586	ff 15 00 00 00
	00		 call	 DWORD PTR __imp_??4ioHashString@@QAEAAV0@ABV0@@Z

; 605  : 			pInfo.m_fLength = D3DXVec3Length( &vCurLength );

  0058c	f3 0f 10 45 dc	 movss	 xmm0, DWORD PTR _vCurLength$532840[ebp+4]
  00591	f3 0f 10 4d d8	 movss	 xmm1, DWORD PTR _vCurLength$532840[ebp]
  00596	f3 0f 10 55 e0	 movss	 xmm2, DWORD PTR _vCurLength$532840[ebp+8]

; 606  : 			pInfo.m_fHeightGap = GetPosition().y - pTarget->GetWorldPosition().y;

  0059b	8b 03		 mov	 eax, DWORD PTR [ebx]
  0059d	0f 5a c0	 cvtps2pd xmm0, xmm0
  005a0	f2 0f 59 c0	 mulsd	 xmm0, xmm0
  005a4	0f 5a c9	 cvtps2pd xmm1, xmm1
  005a7	f2 0f 59 c9	 mulsd	 xmm1, xmm1
  005ab	f2 0f 58 c8	 addsd	 xmm1, xmm0
  005af	0f 57 c0	 xorps	 xmm0, xmm0
  005b2	0f 5a d2	 cvtps2pd xmm2, xmm2
  005b5	f2 0f 59 d2	 mulsd	 xmm2, xmm2
  005b9	f2 0f 58 ca	 addsd	 xmm1, xmm2
  005bd	f2 0f 5a c1	 cvtsd2ss xmm0, xmm1
  005c1	f3 0f 11 85 8c
	7f ff ff	 movss	 DWORD PTR tv1337[ebp], xmm0
  005c9	0f 5a c0	 cvtps2pd xmm0, xmm0
  005cc	f2 0f 51 c0	 sqrtsd	 xmm0, xmm0
  005d0	66 0f 5a c0	 cvtpd2ps xmm0, xmm0
  005d4	8b cb		 mov	 ecx, ebx
  005d6	f3 0f 11 85 68
	7f ff ff	 movss	 DWORD PTR _pInfo$532843[ebp+16], xmm0
  005de	ff 50 70	 call	 DWORD PTR [eax+112]
  005e1	f3 0f 10 40 04	 movss	 xmm0, DWORD PTR [eax+4]
  005e6	8b 06		 mov	 eax, DWORD PTR [esi]
  005e8	0f 5a c0	 cvtps2pd xmm0, xmm0
  005eb	8b ce		 mov	 ecx, esi
  005ed	f2 0f 11 45 e8	 movsd	 QWORD PTR tv420[ebp], xmm0
  005f2	ff 50 70	 call	 DWORD PTR [eax+112]
  005f5	f3 0f 10 40 04	 movss	 xmm0, DWORD PTR [eax+4]
  005fa	0f 5a c8	 cvtps2pd xmm1, xmm0
  005fd	f2 0f 10 45 e8	 movsd	 xmm0, QWORD PTR tv420[ebp]

; 607  : 
; 608  : 			m_TargetInfoList.push_back( pInfo );

  00602	8d 85 58 7f ff
	ff		 lea	 eax, DWORD PTR _pInfo$532843[ebp]
  00608	f2 0f 5c c1	 subsd	 xmm0, xmm1
  0060c	66 0f 5a c0	 cvtpd2ps xmm0, xmm0
  00610	50		 push	 eax
  00611	8d 8b 98 08 00
	00		 lea	 ecx, DWORD PTR [ebx+2200]
  00617	f3 0f 11 85 6c
	7f ff ff	 movss	 DWORD PTR _pInfo$532843[ebp+20], xmm0
  0061f	e8 00 00 00 00	 call	 ?push_back@?$vector@UTargetInfo@ioAdhesiveMissileWeapon4@@V?$allocator@UTargetInfo@ioAdhesiveMissileWeapon4@@@std@@@std@@QAEXABUTargetInfo@ioAdhesiveMissileWeapon4@@@Z ; std::vector<ioAdhesiveMissileWeapon4::TargetInfo,std::allocator<ioAdhesiveMissileWeapon4::TargetInfo> >::push_back

; 609  : 
; 610  : 			if( pTarget->IsNeedSendNetwork() )

  00624	8b 06		 mov	 eax, DWORD PTR [esi]
  00626	8b ce		 mov	 ecx, esi
  00628	ff 90 04 01 00
	00		 call	 DWORD PTR [eax+260]
  0062e	84 c0		 test	 al, al
  00630	0f 84 d7 00 00
	00		 je	 $LN1@IsCollisio

; 611  : 			{
; 612  : 				SP2Packet kPacket( CUPK_WEAPON_SYNC );

  00636	68 16 42 00 00	 push	 16918			; 00004216H
  0063b	8d 8d 90 7f ff
	ff		 lea	 ecx, DWORD PTR _kPacket$532845[ebp]
  00641	e8 00 00 00 00	 call	 ??0SP2Packet@@QAE@K@Z	; SP2Packet::SP2Packet

; 613  : 				kPacket << GetOwnerName();

  00646	8d 43 10	 lea	 eax, DWORD PTR [ebx+16]
  00649	50		 push	 eax
  0064a	8d 8d 90 7f ff
	ff		 lea	 ecx, DWORD PTR _kPacket$532845[ebp]
  00650	c6 45 fc 02	 mov	 BYTE PTR __$EHRec$[ebp+8], 2
  00654	e8 00 00 00 00	 call	 ??6SP2Packet@@QAEAAV0@ABVioHashString@@@Z ; SP2Packet::operator<<

; 614  : 				kPacket << m_dwWeaponIdx;

  00659	ff b3 b8 04 00
	00		 push	 DWORD PTR [ebx+1208]
  0065f	8d 8d 90 7f ff
	ff		 lea	 ecx, DWORD PTR _kPacket$532845[ebp]
  00665	e8 00 00 00 00	 call	 ??6SP2Packet@@QAEAAV0@K@Z ; SP2Packet::operator<<

; 615  : 				kPacket << STC_CHAR_COLLISION;

  0066a	6a 00		 push	 0
  0066c	8d 8d 90 7f ff
	ff		 lea	 ecx, DWORD PTR _kPacket$532845[ebp]
  00672	e8 00 00 00 00	 call	 ??6SP2Packet@@QAEAAV0@H@Z ; SP2Packet::operator<<

; 616  : 				kPacket << pTarget->GetCharName();

  00677	57		 push	 edi
  00678	8d 8d 90 7f ff
	ff		 lea	 ecx, DWORD PTR _kPacket$532845[ebp]
  0067e	e8 00 00 00 00	 call	 ??6SP2Packet@@QAEAAV0@ABVioHashString@@@Z ; SP2Packet::operator<<

; 617  : 				kPacket << D3DXVec3Length( &vCurLength );

  00683	f3 0f 10 85 8c
	7f ff ff	 movss	 xmm0, DWORD PTR tv1337[ebp]
  0068b	0f 5a c0	 cvtps2pd xmm0, xmm0
  0068e	51		 push	 ecx
  0068f	f2 0f 51 c0	 sqrtsd	 xmm0, xmm0
  00693	66 0f 5a c0	 cvtpd2ps xmm0, xmm0
  00697	8d 8d 90 7f ff
	ff		 lea	 ecx, DWORD PTR _kPacket$532845[ebp]
  0069d	f3 0f 11 04 24	 movss	 DWORD PTR [esp], xmm0
  006a2	e8 00 00 00 00	 call	 ??6SP2Packet@@QAEAAV0@M@Z ; SP2Packet::operator<<

; 618  : 				kPacket << GetPosition().y - pTarget->GetWorldPosition().y;

  006a7	8b 03		 mov	 eax, DWORD PTR [ebx]
  006a9	8b cb		 mov	 ecx, ebx
  006ab	ff 50 70	 call	 DWORD PTR [eax+112]
  006ae	f3 0f 10 40 04	 movss	 xmm0, DWORD PTR [eax+4]
  006b3	8b 06		 mov	 eax, DWORD PTR [esi]
  006b5	0f 5a c0	 cvtps2pd xmm0, xmm0
  006b8	8b ce		 mov	 ecx, esi
  006ba	f2 0f 11 85 88
	7f ff ff	 movsd	 QWORD PTR tv1049[ebp], xmm0
  006c2	ff 50 70	 call	 DWORD PTR [eax+112]
  006c5	f3 0f 10 40 04	 movss	 xmm0, DWORD PTR [eax+4]
  006ca	0f 5a c8	 cvtps2pd xmm1, xmm0
  006cd	f2 0f 10 85 88
	7f ff ff	 movsd	 xmm0, QWORD PTR tv1049[ebp]
  006d5	51		 push	 ecx
  006d6	f2 0f 5c c1	 subsd	 xmm0, xmm1
  006da	66 0f 5a c0	 cvtpd2ps xmm0, xmm0
  006de	8d 8d 90 7f ff
	ff		 lea	 ecx, DWORD PTR _kPacket$532845[ebp]
  006e4	f3 0f 11 04 24	 movss	 DWORD PTR [esp], xmm0
  006e9	e8 00 00 00 00	 call	 ??6SP2Packet@@QAEAAV0@M@Z ; SP2Packet::operator<<

; 619  : 
; 620  : 				P2PNetwork::SendToAllPlayingUser( kPacket );

  006ee	8d 85 90 7f ff
	ff		 lea	 eax, DWORD PTR _kPacket$532845[ebp]
  006f4	6a 00		 push	 0
  006f6	50		 push	 eax
  006f7	e8 00 00 00 00	 call	 ?SendToAllPlayingUser@P2PNetwork@@YAXAAVSP2Packet@@PAVioBaseChar@@@Z ; P2PNetwork::SendToAllPlayingUser
  006fc	59		 pop	 ecx
  006fd	59		 pop	 ecx

; 621  : 			}

  006fe	8d 8d 90 7f ff
	ff		 lea	 ecx, DWORD PTR _kPacket$532845[ebp]
  00704	c6 45 fc 01	 mov	 BYTE PTR __$EHRec$[ebp+8], 1
  00708	e8 00 00 00 00	 call	 ??1SP2Packet@@UAE@XZ	; SP2Packet::~SP2Packet
$LN1@IsCollisio:

; 622  : 			return true;

  0070d	83 4d fc ff	 or	 DWORD PTR __$EHRec$[ebp+8], -1
  00711	8d 8d 58 7f ff
	ff		 lea	 ecx, DWORD PTR _pInfo$532843[ebp]
  00717	ff 15 00 00 00
	00		 call	 DWORD PTR __imp_??1ioHashString@@QAE@XZ
  0071d	e9 a3 f9 ff ff	 jmp	 $LN134@IsCollisio
_TEXT	ENDS
;	COMDAT text$x
text$x	SEGMENT
__unwindfunclet$?IsCollision@ioAdhesiveMissileWeapon4@@UAE_NPAVioPlayEntity@@_N@Z$0:
  00000	8d 4d a8	 lea	 ecx, DWORD PTR _kInfo$532804[ebp]
  00003	e9 00 00 00 00	 jmp	 ??1TargetInfo@ioAdhesiveMissileWeapon4@@QAE@XZ
__unwindfunclet$?IsCollision@ioAdhesiveMissileWeapon4@@UAE_NPAVioPlayEntity@@_N@Z$1:
  00008	8d 8d 58 7f ff
	ff		 lea	 ecx, DWORD PTR _pInfo$532843[ebp]
  0000e	e9 00 00 00 00	 jmp	 ??1TargetInfo@ioAdhesiveMissileWeapon4@@QAE@XZ
__unwindfunclet$?IsCollision@ioAdhesiveMissileWeapon4@@UAE_NPAVioPlayEntity@@_N@Z$2:
  00013	8d 8d 90 7f ff
	ff		 lea	 ecx, DWORD PTR _kPacket$532845[ebp]
  00019	e9 00 00 00 00	 jmp	 ??1SP2Packet@@UAE@XZ	; SP2Packet::~SP2Packet
__ehhandler$?IsCollision@ioAdhesiveMissileWeapon4@@UAE_NPAVioPlayEntity@@_N@Z:
  0001e	8b 54 24 08	 mov	 edx, DWORD PTR [esp+8]
  00022	8d 42 0c	 lea	 eax, DWORD PTR [edx+12]
  00025	8b 8a 54 7f ff
	ff		 mov	 ecx, DWORD PTR [edx-32940]
  0002b	33 c8		 xor	 ecx, eax
  0002d	e8 00 00 00 00	 call	 @__security_check_cookie@4
  00032	8b 4a fc	 mov	 ecx, DWORD PTR [edx-4]
  00035	33 c8		 xor	 ecx, eax
  00037	e8 00 00 00 00	 call	 @__security_check_cookie@4
  0003c	b8 00 00 00 00	 mov	 eax, OFFSET __ehfuncinfo$?IsCollision@ioAdhesiveMissileWeapon4@@UAE_NPAVioPlayEntity@@_N@Z
  00041	e9 00 00 00 00	 jmp	 ___CxxFrameHandler3
text$x	ENDS
?IsCollision@ioAdhesiveMissileWeapon4@@UAE_NPAVioPlayEntity@@_N@Z ENDP ; ioAdhesiveMissileWeapon4::IsCollision
PUBLIC	?push_back@?$vector@VioHashString@@V?$allocator@VioHashString@@@std@@@std@@QAEXABVioHashString@@@Z ; std::vector<ioHashString,std::allocator<ioHashString> >::push_back
; Function compile flags: /Ogsp
; File c:\program files (x86)\microsoft visual studio 10.0\vc\include\vector
;	COMDAT ?push_back@?$vector@VioHashString@@V?$allocator@VioHashString@@@std@@@std@@QAEXABVioHashString@@@Z
_TEXT	SEGMENT
__Val$ = 8						; size = 4
?push_back@?$vector@VioHashString@@V?$allocator@VioHashString@@@std@@@std@@QAEXABVioHashString@@@Z PROC ; std::vector<ioHashString,std::allocator<ioHashString> >::push_back, COMDAT
; _this$ = ecx

; 976  : 		{	// insert element at end

  00000	55		 push	 ebp
  00001	8b ec		 mov	 ebp, esp
  00003	56		 push	 esi
  00004	8b f1		 mov	 esi, ecx

; 977  : 		if (_Inside(_STD addressof(_Val)))

  00006	8b 46 04	 mov	 eax, DWORD PTR [esi+4]
  00009	57		 push	 edi
  0000a	8b 7d 08	 mov	 edi, DWORD PTR __Val$[ebp]
  0000d	3b f8		 cmp	 edi, eax
  0000f	73 29		 jae	 SHORT $LN4@push_back@2
  00011	8b 0e		 mov	 ecx, DWORD PTR [esi]
  00013	3b cf		 cmp	 ecx, edi
  00015	77 23		 ja	 SHORT $LN4@push_back@2

; 978  : 			{	// push back an element
; 979  : 			size_type _Idx = _STD addressof(_Val) - this->_Myfirst;

  00017	2b f9		 sub	 edi, ecx

; 980  : 			if (this->_Mylast == this->_Myend)

  00019	3b 46 08	 cmp	 eax, DWORD PTR [esi+8]
  0001c	75 09		 jne	 SHORT $LN3@push_back@2

; 981  : 				_Reserve(1);

  0001e	6a 01		 push	 1
  00020	8b ce		 mov	 ecx, esi
  00022	e8 00 00 00 00	 call	 ?_Reserve@?$vector@VioHashString@@V?$allocator@VioHashString@@@std@@@std@@IAEXI@Z ; std::vector<ioHashString,std::allocator<ioHashString> >::_Reserve
$LN3@push_back@2:

; 982  : 			_Orphan_range(this->_Mylast, this->_Mylast);
; 983  : 			_Cons_val(this->_Alval,
; 984  : 				this->_Mylast,
; 985  : 				this->_Myfirst[_Idx]);

  00027	83 e7 f0	 and	 edi, -16		; fffffff0H
  0002a	03 3e		 add	 edi, DWORD PTR [esi]
  0002c	8d 4e 0c	 lea	 ecx, DWORD PTR [esi+12]
  0002f	57		 push	 edi
  00030	ff 76 04	 push	 DWORD PTR [esi+4]
  00033	e8 00 00 00 00	 call	 ??$construct@AAVioHashString@@@?$allocator@VioHashString@@@std@@QAEXPAVioHashString@@AAV2@@Z ; std::allocator<ioHashString>::construct<ioHashString &>

; 986  : 			++this->_Mylast;
; 987  : 			}
; 988  : 		else

  00038	eb 19		 jmp	 SHORT $LN30@push_back@2
$LN4@push_back@2:

; 989  : 			{	// push back a non-element
; 990  : 			if (this->_Mylast == this->_Myend)

  0003a	3b 46 08	 cmp	 eax, DWORD PTR [esi+8]
  0003d	75 09		 jne	 SHORT $LN1@push_back@2

; 991  : 				_Reserve(1);

  0003f	6a 01		 push	 1
  00041	8b ce		 mov	 ecx, esi
  00043	e8 00 00 00 00	 call	 ?_Reserve@?$vector@VioHashString@@V?$allocator@VioHashString@@@std@@@std@@IAEXI@Z ; std::vector<ioHashString,std::allocator<ioHashString> >::_Reserve
$LN1@push_back@2:

; 992  : 			_Orphan_range(this->_Mylast, this->_Mylast);
; 993  : 			_Cons_val(this->_Alval,
; 994  : 				this->_Mylast,
; 995  : 				_Val);

  00048	57		 push	 edi
  00049	ff 76 04	 push	 DWORD PTR [esi+4]
  0004c	e8 00 00 00 00	 call	 ??$_Construct@VioHashString@@ABV1@@std@@YAXPAVioHashString@@ABV1@@Z ; std::_Construct<ioHashString,ioHashString const &>
  00051	59		 pop	 ecx
  00052	59		 pop	 ecx
$LN30@push_back@2:

; 996  : 			++this->_Mylast;

  00053	83 46 04 10	 add	 DWORD PTR [esi+4], 16	; 00000010H
  00057	5f		 pop	 edi
  00058	5e		 pop	 esi

; 997  : 			}
; 998  : 		}

  00059	5d		 pop	 ebp
  0005a	c2 04 00	 ret	 4
?push_back@?$vector@VioHashString@@V?$allocator@VioHashString@@@std@@@std@@QAEXABVioHashString@@@Z ENDP ; std::vector<ioHashString,std::allocator<ioHashString> >::push_back
_TEXT	ENDS
PUBLIC	??0ioAdhesiveMissileWeapon4@@QAE@PAVioBaseChar@@PBUWeaponAttribute@@@Z ; ioAdhesiveMissileWeapon4::ioAdhesiveMissileWeapon4
EXTRN	?SetPeculiarity@ioWeapon@@QAEXK@Z:PROC		; ioWeapon::SetPeculiarity
EXTRN	__imp_??0ioOrientBox@@QAE@XZ:PROC
EXTRN	??0ioWeapon@@QAE@PAVioBaseChar@@PBUWeaponAttribute@@@Z:PROC ; ioWeapon::ioWeapon
;	COMDAT xdata$x
; File c:\program files (x86)\microsoft visual studio 10.0\vc\include\xmemory
xdata$x	SEGMENT
__ehfuncinfo$??0ioAdhesiveMissileWeapon4@@QAE@PAVioBaseChar@@PBUWeaponAttribute@@@Z DD 019930522H
	DD	07H
	DD	FLAT:__unwindtable$??0ioAdhesiveMissileWeapon4@@QAE@PAVioBaseChar@@PBUWeaponAttribute@@@Z
	DD	2 DUP(00H)
	DD	2 DUP(00H)
	DD	00H
	DD	01H
__unwindtable$??0ioAdhesiveMissileWeapon4@@QAE@PAVioBaseChar@@PBUWeaponAttribute@@@Z DD 0ffffffffH
	DD	FLAT:__unwindfunclet$??0ioAdhesiveMissileWeapon4@@QAE@PAVioBaseChar@@PBUWeaponAttribute@@@Z$0
	DD	00H
	DD	FLAT:__unwindfunclet$??0ioAdhesiveMissileWeapon4@@QAE@PAVioBaseChar@@PBUWeaponAttribute@@@Z$1
	DD	01H
	DD	FLAT:__unwindfunclet$??0ioAdhesiveMissileWeapon4@@QAE@PAVioBaseChar@@PBUWeaponAttribute@@@Z$2
	DD	02H
	DD	FLAT:__unwindfunclet$??0ioAdhesiveMissileWeapon4@@QAE@PAVioBaseChar@@PBUWeaponAttribute@@@Z$3
	DD	03H
	DD	FLAT:__unwindfunclet$??0ioAdhesiveMissileWeapon4@@QAE@PAVioBaseChar@@PBUWeaponAttribute@@@Z$4
	DD	04H
	DD	FLAT:__unwindfunclet$??0ioAdhesiveMissileWeapon4@@QAE@PAVioBaseChar@@PBUWeaponAttribute@@@Z$5
	DD	05H
	DD	FLAT:__unwindfunclet$??0ioAdhesiveMissileWeapon4@@QAE@PAVioBaseChar@@PBUWeaponAttribute@@@Z$6
; Function compile flags: /Ogsp
; File d:\lost saga for developer\youtube\tutorial\source\src\lsclient\ioadhesivemissileweapon4.cpp
xdata$x	ENDS
;	COMDAT ??0ioAdhesiveMissileWeapon4@@QAE@PAVioBaseChar@@PBUWeaponAttribute@@@Z
_TEXT	SEGMENT
_this$ = -16						; size = 4
__$EHRec$ = -12						; size = 12
_pOwner$ = 8						; size = 4
_pAttr$ = 12						; size = 4
??0ioAdhesiveMissileWeapon4@@QAE@PAVioBaseChar@@PBUWeaponAttribute@@@Z PROC ; ioAdhesiveMissileWeapon4::ioAdhesiveMissileWeapon4, COMDAT
; _this$ = ecx

; 15   : {

  00000	6a 04		 push	 4
  00002	b8 00 00 00 00	 mov	 eax, __ehhandler$??0ioAdhesiveMissileWeapon4@@QAE@PAVioBaseChar@@PBUWeaponAttribute@@@Z
  00007	e8 00 00 00 00	 call	 __EH_prolog3
  0000c	8b f1		 mov	 esi, ecx
  0000e	89 75 f0	 mov	 DWORD PTR _this$[ebp], esi
  00011	ff 75 0c	 push	 DWORD PTR _pAttr$[ebp]
  00014	ff 75 08	 push	 DWORD PTR _pOwner$[ebp]
  00017	e8 00 00 00 00	 call	 ??0ioWeapon@@QAE@PAVioBaseChar@@PBUWeaponAttribute@@@Z ; ioWeapon::ioWeapon
  0001c	33 db		 xor	 ebx, ebx
  0001e	c7 06 00 00 00
	00		 mov	 DWORD PTR [esi], OFFSET ??_7ioAdhesiveMissileWeapon4@@6B@
  00024	89 5d fc	 mov	 DWORD PTR __$EHRec$[ebp+8], ebx
  00027	89 9e 98 08 00
	00		 mov	 DWORD PTR [esi+2200], ebx
  0002d	89 9e 9c 08 00
	00		 mov	 DWORD PTR [esi+2204], ebx
  00033	89 9e a0 08 00
	00		 mov	 DWORD PTR [esi+2208], ebx
  00039	8d 8e ac 08 00
	00		 lea	 ecx, DWORD PTR [esi+2220]
  0003f	c6 45 fc 01	 mov	 BYTE PTR __$EHRec$[ebp+8], 1
  00043	ff 15 00 00 00
	00		 call	 DWORD PTR __imp_??0ioOrientBox@@QAE@XZ
  00049	8d 8e f0 08 00
	00		 lea	 ecx, DWORD PTR [esi+2288]
  0004f	c6 45 fc 02	 mov	 BYTE PTR __$EHRec$[ebp+8], 2
  00053	ff 15 00 00 00
	00		 call	 DWORD PTR __imp_??0ioHashString@@QAE@XZ
  00059	89 9e 1c 09 00
	00		 mov	 DWORD PTR [esi+2332], ebx
  0005f	89 9e 20 09 00
	00		 mov	 DWORD PTR [esi+2336], ebx
  00065	89 9e 24 09 00
	00		 mov	 DWORD PTR [esi+2340], ebx
  0006b	89 9e 2c 09 00
	00		 mov	 DWORD PTR [esi+2348], ebx
  00071	89 9e 30 09 00
	00		 mov	 DWORD PTR [esi+2352], ebx
  00077	89 9e 34 09 00
	00		 mov	 DWORD PTR [esi+2356], ebx
  0007d	8d 8e 3c 09 00
	00		 lea	 ecx, DWORD PTR [esi+2364]
  00083	c6 45 fc 05	 mov	 BYTE PTR __$EHRec$[ebp+8], 5
  00087	e8 00 00 00 00	 call	 ??0?$CEncrypt@M@@QAE@XZ	; CEncrypt<float>::CEncrypt<float>

; 16   : 	SetPeculiarity( WP_DIVIDE_ACTION );

  0008c	68 00 01 00 00	 push	 256			; 00000100H
  00091	8b ce		 mov	 ecx, esi
  00093	c6 45 fc 06	 mov	 BYTE PTR __$EHRec$[ebp+8], 6
  00097	e8 00 00 00 00	 call	 ?SetPeculiarity@ioWeapon@@QAEXK@Z ; ioWeapon::SetPeculiarity

; 17   : 
; 18   : 	ClearData();

  0009c	8b ce		 mov	 ecx, esi
  0009e	e8 00 00 00 00	 call	 ?ClearData@ioAdhesiveMissileWeapon4@@IAEXXZ ; ioAdhesiveMissileWeapon4::ClearData

; 19   : 
; 20   : 	m_pFireBall = NULL;		

  000a3	89 9e a8 08 00
	00		 mov	 DWORD PTR [esi+2216], ebx

; 21   : 	m_bSetGraceClose = false;

  000a9	88 9e 18 09 00
	00		 mov	 BYTE PTR [esi+2328], bl

; 22   : 
; 23   : 	m_State = WS_INIT;

  000af	89 9e 94 08 00
	00		 mov	 DWORD PTR [esi+2196], ebx

; 24   : 
; 25   : 	m_bUseCol = true;

  000b5	c6 86 6c 09 00
	00 01		 mov	 BYTE PTR [esi+2412], 1

; 26   : 	m_bCollisionMapForSkill = true;

  000bc	c6 86 6e 09 00
	00 01		 mov	 BYTE PTR [esi+2414], 1

; 27   : }

  000c3	8b c6		 mov	 eax, esi
  000c5	e8 00 00 00 00	 call	 __EH_epilog3
  000ca	c2 08 00	 ret	 8
_TEXT	ENDS
;	COMDAT text$x
text$x	SEGMENT
__unwindfunclet$??0ioAdhesiveMissileWeapon4@@QAE@PAVioBaseChar@@PBUWeaponAttribute@@@Z$0:
  00000	8b 4d f0	 mov	 ecx, DWORD PTR _this$[ebp]
  00003	e9 00 00 00 00	 jmp	 ??1ioWeapon@@UAE@XZ	; ioWeapon::~ioWeapon
__unwindfunclet$??0ioAdhesiveMissileWeapon4@@QAE@PAVioBaseChar@@PBUWeaponAttribute@@@Z$1:
  00008	8b 4d f0	 mov	 ecx, DWORD PTR _this$[ebp]
  0000b	81 c1 98 08 00
	00		 add	 ecx, 2200		; 00000898H
  00011	e9 00 00 00 00	 jmp	 ??1?$vector@UTargetInfo@ioAdhesiveMissileWeapon4@@V?$allocator@UTargetInfo@ioAdhesiveMissileWeapon4@@@std@@@std@@QAE@XZ ; std::vector<ioAdhesiveMissileWeapon4::TargetInfo,std::allocator<ioAdhesiveMissileWeapon4::TargetInfo> >::~vector<ioAdhesiveMissileWeapon4::TargetInfo,std::allocator<ioAdhesiveMissileWeapon4::TargetInfo> >
__unwindfunclet$??0ioAdhesiveMissileWeapon4@@QAE@PAVioBaseChar@@PBUWeaponAttribute@@@Z$2:
  00016	8b 4d f0	 mov	 ecx, DWORD PTR _this$[ebp]
  00019	81 c1 ac 08 00
	00		 add	 ecx, 2220		; 000008acH
  0001f	ff 25 00 00 00
	00		 jmp	 DWORD PTR __imp_??1ioOrientBox@@QAE@XZ
__unwindfunclet$??0ioAdhesiveMissileWeapon4@@QAE@PAVioBaseChar@@PBUWeaponAttribute@@@Z$3:
  00025	8b 4d f0	 mov	 ecx, DWORD PTR _this$[ebp]
  00028	81 c1 f0 08 00
	00		 add	 ecx, 2288		; 000008f0H
  0002e	ff 25 00 00 00
	00		 jmp	 DWORD PTR __imp_??1ioHashString@@QAE@XZ
__unwindfunclet$??0ioAdhesiveMissileWeapon4@@QAE@PAVioBaseChar@@PBUWeaponAttribute@@@Z$4:
  00034	8b 4d f0	 mov	 ecx, DWORD PTR _this$[ebp]
  00037	81 c1 1c 09 00
	00		 add	 ecx, 2332		; 0000091cH
  0003d	e9 00 00 00 00	 jmp	 ??1?$vector@VioHashString@@V?$allocator@VioHashString@@@std@@@std@@QAE@XZ ; std::vector<ioHashString,std::allocator<ioHashString> >::~vector<ioHashString,std::allocator<ioHashString> >
__unwindfunclet$??0ioAdhesiveMissileWeapon4@@QAE@PAVioBaseChar@@PBUWeaponAttribute@@@Z$5:
  00042	8b 4d f0	 mov	 ecx, DWORD PTR _this$[ebp]
  00045	81 c1 2c 09 00
	00		 add	 ecx, 2348		; 0000092cH
  0004b	e9 00 00 00 00	 jmp	 ??1?$vector@VioHashString@@V?$allocator@VioHashString@@@std@@@std@@QAE@XZ ; std::vector<ioHashString,std::allocator<ioHashString> >::~vector<ioHashString,std::allocator<ioHashString> >
__unwindfunclet$??0ioAdhesiveMissileWeapon4@@QAE@PAVioBaseChar@@PBUWeaponAttribute@@@Z$6:
  00050	8b 4d f0	 mov	 ecx, DWORD PTR _this$[ebp]
  00053	81 c1 3c 09 00
	00		 add	 ecx, 2364		; 0000093cH
  00059	e9 00 00 00 00	 jmp	 ??1?$CEncrypt@M@@UAE@XZ	; CEncrypt<float>::~CEncrypt<float>
__ehhandler$??0ioAdhesiveMissileWeapon4@@QAE@PAVioBaseChar@@PBUWeaponAttribute@@@Z:
  0005e	8b 54 24 08	 mov	 edx, DWORD PTR [esp+8]
  00062	8d 42 0c	 lea	 eax, DWORD PTR [edx+12]
  00065	8b 4a ec	 mov	 ecx, DWORD PTR [edx-20]
  00068	33 c8		 xor	 ecx, eax
  0006a	e8 00 00 00 00	 call	 @__security_check_cookie@4
  0006f	b8 00 00 00 00	 mov	 eax, OFFSET __ehfuncinfo$??0ioAdhesiveMissileWeapon4@@QAE@PAVioBaseChar@@PBUWeaponAttribute@@@Z
  00074	e9 00 00 00 00	 jmp	 ___CxxFrameHandler3
text$x	ENDS
??0ioAdhesiveMissileWeapon4@@QAE@PAVioBaseChar@@PBUWeaponAttribute@@@Z ENDP ; ioAdhesiveMissileWeapon4::ioAdhesiveMissileWeapon4
; Function compile flags: /Ogsp
;	COMDAT ??_GioAdhesiveMissileWeapon4@@UAEPAXI@Z
_TEXT	SEGMENT
___flags$ = 8						; size = 4
??_GioAdhesiveMissileWeapon4@@UAEPAXI@Z PROC		; ioAdhesiveMissileWeapon4::`scalar deleting destructor', COMDAT
; _this$ = ecx
  00000	55		 push	 ebp
  00001	8b ec		 mov	 ebp, esp
  00003	56		 push	 esi
  00004	8b f1		 mov	 esi, ecx
  00006	e8 00 00 00 00	 call	 ??1ioAdhesiveMissileWeapon4@@UAE@XZ ; ioAdhesiveMissileWeapon4::~ioAdhesiveMissileWeapon4
  0000b	f6 45 08 01	 test	 BYTE PTR ___flags$[ebp], 1
  0000f	74 07		 je	 SHORT $LN1@scalar@5
  00011	56		 push	 esi
  00012	e8 00 00 00 00	 call	 ??3@YAXPAX@Z		; operator delete
  00017	59		 pop	 ecx
$LN1@scalar@5:
  00018	8b c6		 mov	 eax, esi
  0001a	5e		 pop	 esi
  0001b	5d		 pop	 ebp
  0001c	c2 04 00	 ret	 4
??_GioAdhesiveMissileWeapon4@@UAEPAXI@Z ENDP		; ioAdhesiveMissileWeapon4::`scalar deleting destructor'
_TEXT	ENDS
PUBLIC	??_C@_00CNPNBAHC@?$AA@				; `string'
PUBLIC	_rkLoader$GSCopy$
PUBLIC	_this$GSCopy$
EXTRN	__imp_??0ioHashString@@QAE@PBD@Z:PROC
EXTRN	__imp__wsprintfA:PROC
EXTRN	__imp_??4ioHashString@@QAEAAV0@PBD@Z:PROC
EXTRN	?LoadProperty@ioWeapon@@UAEXAAVioINILoader@@@Z:PROC ; ioWeapon::LoadProperty
EXTRN	_memset:PROC
;	COMDAT ??_C@_00CNPNBAHC@?$AA@
; File d:\lost saga for developer\youtube\tutorial\source\src\lsclient\stringprotect.h
CONST	SEGMENT
??_C@_00CNPNBAHC@?$AA@ DB 00H				; `string'
CONST	ENDS
;	COMDAT xdata$x
xdata$x	SEGMENT
__unwindtable$?LoadProperty@ioAdhesiveMissileWeapon4@@UAEXAAVioINILoader@@@Z DD 0ffffffffH
	DD	FLAT:__unwindfunclet$?LoadProperty@ioAdhesiveMissileWeapon4@@UAEXAAVioINILoader@@@Z$0
	DD	0ffffffffH
	DD	FLAT:__unwindfunclet$?LoadProperty@ioAdhesiveMissileWeapon4@@UAEXAAVioINILoader@@@Z$1
__ehfuncinfo$?LoadProperty@ioAdhesiveMissileWeapon4@@UAEXAAVioINILoader@@@Z DD 019930522H
	DD	02H
	DD	FLAT:__unwindtable$?LoadProperty@ioAdhesiveMissileWeapon4@@UAEXAAVioINILoader@@@Z
	DD	2 DUP(00H)
	DD	2 DUP(00H)
	DD	00H
	DD	01H
; Function compile flags: /Ogsp
; File d:\lost saga for developer\youtube\tutorial\source\src\lsclient\ioadhesivemissileweapon4.cpp
xdata$x	ENDS
;	COMDAT ?LoadProperty@ioAdhesiveMissileWeapon4@@UAEXAAVioINILoader@@@Z
_TEXT	SEGMENT
_iCnt$ = -620						; size = 4
_this$GSCopy$ = -616					; size = 4
tv5152 = -612						; size = 4
tv5053 = -612						; size = 4
_value$538951 = -612					; size = 4
_rkLoader$GSCopy$ = -608				; size = 4
_szKey$ = -604						; size = 260
_szBuf$ = -344						; size = 260
__k$538968 = -84					; size = 20
__k$538838 = -60					; size = 12
__k$538452 = -60					; size = 12
$T538421 = -60						; size = 16
$T538420 = -60						; size = 16
__k$538787 = -44					; size = 23
__k$538650 = -44					; size = 23
___encStr$532215 = -44					; size = 21
___encStr$532056 = -44					; size = 21
__$EHRec$ = -12						; size = 12
_rkLoader$ = 8						; size = 4
?LoadProperty@ioAdhesiveMissileWeapon4@@UAEXAAVioINILoader@@@Z PROC ; ioAdhesiveMissileWeapon4::LoadProperty, COMDAT
; _this$ = ecx

; 58   : {

  00000	68 60 02 00 00	 push	 608			; 00000260H
  00005	b8 00 00 00 00	 mov	 eax, __ehhandler$?LoadProperty@ioAdhesiveMissileWeapon4@@UAEXAAVioINILoader@@@Z
  0000a	e8 00 00 00 00	 call	 __EH_prolog3_GS
  0000f	8b 45 08	 mov	 eax, DWORD PTR _rkLoader$[ebp]

; 59   : 	ioWeapon::LoadProperty( rkLoader );

  00012	50		 push	 eax

; 79   : 	{
; 80   : 		wsprintf_e( szKey, "owner_wounded_buff%d", i+1 );

  00013	89 8d 98 fd ff
	ff		 mov	 DWORD PTR _this$GSCopy$[ebp], ecx
  00019	89 85 a0 fd ff
	ff		 mov	 DWORD PTR _rkLoader$GSCopy$[ebp], eax
  0001f	e8 00 00 00 00	 call	 ?LoadProperty@ioWeapon@@UAEXAAVioINILoader@@@Z ; ioWeapon::LoadProperty
  00024	be 03 01 00 00	 mov	 esi, 259		; 00000103H
  00029	33 db		 xor	 ebx, ebx
  0002b	56		 push	 esi
  0002c	8d 85 a9 fe ff
	ff		 lea	 eax, DWORD PTR _szBuf$[ebp+1]
  00032	53		 push	 ebx
  00033	50		 push	 eax
  00034	88 9d a8 fe ff
	ff		 mov	 BYTE PTR _szBuf$[ebp], bl
  0003a	e8 00 00 00 00	 call	 _memset
  0003f	56		 push	 esi
  00040	8d 85 a5 fd ff
	ff		 lea	 eax, DWORD PTR _szKey$[ebp+1]
  00046	53		 push	 ebx
  00047	50		 push	 eax
  00048	88 9d a4 fd ff
	ff		 mov	 BYTE PTR _szKey$[ebp], bl
  0004e	e8 00 00 00 00	 call	 _memset
  00053	83 c4 18	 add	 esp, 24			; 00000018H
  00056	6a 02		 push	 2
  00058	c7 45 c4 8f 83
	84 87		 mov	 DWORD PTR __k$538452[ebp], -2021358705 ; 8784838fH
  0005f	c7 45 c8 b2 89
	8d 8c		 mov	 DWORD PTR __k$538452[ebp+4], -1936881230 ; 8c8d89b2H
  00066	8d 45 c4	 lea	 eax, DWORD PTR __k$538452[ebp]
  00069	c7 45 cc 88 8f
	9f 00		 mov	 DWORD PTR __k$538452[ebp+8], 10456968 ; 009f8f88H
  00070	59		 pop	 ecx
$LL312@LoadProper:

; 60   : 
; 61   : 	char szBuf[MAX_PATH] = "";
; 62   : 	char szKey[MAX_PATH] = "";
; 63   : 	
; 64   : 	rkLoader.LoadString_e( "boom_effect", "", szBuf, MAX_PATH );

  00071	81 30 ed ec eb
	ea		 xor	 DWORD PTR [eax], -353637139 ; eaebecedH
  00077	83 c0 04	 add	 eax, 4
  0007a	49		 dec	 ecx
  0007b	75 f4		 jne	 SHORT $LL312@LoadProper
  0007d	6a 08		 push	 8
  0007f	5e		 pop	 esi
$LL309@LoadProper:
  00080	8b c6		 mov	 eax, esi
  00082	25 03 00 00 80	 and	 eax, -2147483645	; 80000003H
  00087	79 05		 jns	 SHORT $LN792@LoadProper
  00089	48		 dec	 eax
  0008a	83 c8 fc	 or	 eax, -4			; fffffffcH
  0008d	40		 inc	 eax
$LN792@LoadProper:
  0008e	b1 ed		 mov	 cl, -19			; ffffffedH
  00090	2a c8		 sub	 cl, al
  00092	30 4c 35 c4	 xor	 BYTE PTR __k$538452[ebp+esi], cl
  00096	46		 inc	 esi
  00097	83 fe 0b	 cmp	 esi, 11			; 0000000bH
  0009a	7c e4		 jl	 SHORT $LL309@LoadProper
  0009c	8b 8d a0 fd ff
	ff		 mov	 ecx, DWORD PTR _rkLoader$GSCopy$[ebp]
  000a2	8b 35 00 00 00
	00		 mov	 esi, DWORD PTR __imp_?LoadStringA@ioINILoader@@QAEXPBD0PADH@Z
  000a8	68 04 01 00 00	 push	 260			; 00000104H
  000ad	8d 85 a8 fe ff
	ff		 lea	 eax, DWORD PTR _szBuf$[ebp]
  000b3	50		 push	 eax
  000b4	bf 00 00 00 00	 mov	 edi, OFFSET ??_C@_00CNPNBAHC@?$AA@
  000b9	57		 push	 edi
  000ba	8d 45 c4	 lea	 eax, DWORD PTR __k$538452[ebp]
  000bd	50		 push	 eax
  000be	ff d6		 call	 esi

; 65   : 	m_BoomEffect = szBuf;

  000c0	8b 8d 98 fd ff
	ff		 mov	 ecx, DWORD PTR _this$GSCopy$[ebp]
  000c6	8d 85 a8 fe ff
	ff		 lea	 eax, DWORD PTR _szBuf$[ebp]
  000cc	50		 push	 eax
  000cd	81 c1 f0 08 00
	00		 add	 ecx, 2288		; 000008f0H
  000d3	ff 15 00 00 00
	00		 call	 DWORD PTR __imp_??4ioHashString@@QAEAAV0@PBD@Z
  000d9	6a 05		 push	 5

; 66   : 
; 67   : 	//       
; 68   : 	int iCnt = rkLoader.LoadInt_e( "target_cancel_buff_cnt", 0 );

  000db	c7 45 d4 99 8d
	99 8d		 mov	 DWORD PTR __k$538650[ebp], -1919316583 ; 8d998d99H
  000e2	c7 45 d8 88 98
	b4 89		 mov	 DWORD PTR __k$538650[ebp+4], -1984653176 ; 89b49888H
  000e9	c7 45 dc 8c 82
	88 8f		 mov	 DWORD PTR __k$538650[ebp+8], -1886879092 ; 8f88828cH
  000f0	c7 45 e0 81 b3
	89 9f		 mov	 DWORD PTR __k$538650[ebp+12], -1618365567 ; 9f89b381H
  000f7	c7 45 e4 8b 8a
	b4 89		 mov	 DWORD PTR __k$538650[ebp+16], -1984656757 ; 89b48a8bH
  000fe	66 c7 45 e8 83
	98		 mov	 WORD PTR __k$538650[ebp+20], 39043 ; 00009883H
  00104	8d 45 d4	 lea	 eax, DWORD PTR __k$538650[ebp]
  00107	88 5d ea	 mov	 BYTE PTR __k$538650[ebp+22], bl
  0010a	59		 pop	 ecx
$LL418@LoadProper:
  0010b	81 30 ed ec eb
	ea		 xor	 DWORD PTR [eax], -353637139 ; eaebecedH
  00111	83 c0 04	 add	 eax, 4
  00114	49		 dec	 ecx
  00115	75 f4		 jne	 SHORT $LL418@LoadProper
  00117	6a 14		 push	 20			; 00000014H
  00119	58		 pop	 eax
$LL415@LoadProper:
  0011a	8b c8		 mov	 ecx, eax
  0011c	81 e1 03 00 00
	80		 and	 ecx, -2147483645	; 80000003H
  00122	79 05		 jns	 SHORT $LN793@LoadProper
  00124	49		 dec	 ecx
  00125	83 c9 fc	 or	 ecx, -4			; fffffffcH
  00128	41		 inc	 ecx
$LN793@LoadProper:
  00129	b2 ed		 mov	 dl, -19			; ffffffedH
  0012b	2a d1		 sub	 dl, cl
  0012d	30 54 05 d4	 xor	 BYTE PTR __k$538650[ebp+eax], dl
  00131	40		 inc	 eax
  00132	83 f8 16	 cmp	 eax, 22			; 00000016H
  00135	7c e3		 jl	 SHORT $LL415@LoadProper
  00137	8b 8d a0 fd ff
	ff		 mov	 ecx, DWORD PTR _rkLoader$GSCopy$[ebp]
  0013d	53		 push	 ebx
  0013e	8d 45 d4	 lea	 eax, DWORD PTR __k$538650[ebp]
  00141	50		 push	 eax
  00142	ff 15 00 00 00
	00		 call	 DWORD PTR __imp_?LoadInt@ioINILoader@@QAEHPBDH@Z

; 69   : 	for( int i=0; i<iCnt; ++i )

  00148	33 c9		 xor	 ecx, ecx
  0014a	89 85 94 fd ff
	ff		 mov	 DWORD PTR _iCnt$[ebp], eax
  00150	3b c3		 cmp	 eax, ebx
  00152	0f 8e b9 00 00
	00		 jle	 $LN202@LoadProper
$LL204@LoadProper:

; 66   : 
; 67   : 	//       
; 68   : 	int iCnt = rkLoader.LoadInt_e( "target_cancel_buff_cnt", 0 );

  00158	6a 05		 push	 5

; 70   : 	{
; 71   : 		wsprintf_e( szKey, "target_cancel_buff%d", i+1 );

  0015a	c7 45 d4 99 8d
	99 8d		 mov	 DWORD PTR ___encStr$532056[ebp], -1919316583 ; 8d998d99H
  00161	c7 45 d8 88 98
	b4 89		 mov	 DWORD PTR ___encStr$532056[ebp+4], -1984653176 ; 89b49888H
  00168	c7 45 dc 8c 82
	88 8f		 mov	 DWORD PTR ___encStr$532056[ebp+8], -1886879092 ; 8f88828cH
  0016f	c7 45 e0 81 b3
	89 9f		 mov	 DWORD PTR ___encStr$532056[ebp+12], -1618365567 ; 9f89b381H
  00176	c7 45 e4 8b 8a
	ce 8e		 mov	 DWORD PTR ___encStr$532056[ebp+16], -1899066741 ; 8ece8a8bH
  0017d	8d 45 d4	 lea	 eax, DWORD PTR ___encStr$532056[ebp]
  00180	88 5d e8	 mov	 BYTE PTR ___encStr$532056[ebp+20], bl
  00183	5a		 pop	 edx
$LL426@LoadProper:
  00184	81 30 ed ec eb
	ea		 xor	 DWORD PTR [eax], -353637139 ; eaebecedH
  0018a	83 c0 04	 add	 eax, 4
  0018d	4a		 dec	 edx
  0018e	75 f4		 jne	 SHORT $LL426@LoadProper
  00190	8d 41 01	 lea	 eax, DWORD PTR [ecx+1]
  00193	50		 push	 eax
  00194	89 85 9c fd ff
	ff		 mov	 DWORD PTR tv5053[ebp], eax
  0019a	8d 45 d4	 lea	 eax, DWORD PTR ___encStr$532056[ebp]
  0019d	50		 push	 eax
  0019e	8d 85 a4 fd ff
	ff		 lea	 eax, DWORD PTR _szKey$[ebp]
  001a4	50		 push	 eax
  001a5	ff 15 00 00 00
	00		 call	 DWORD PTR __imp__wsprintfA

; 72   : 		rkLoader.LoadString( szKey, "", szBuf, MAX_PATH );

  001ab	8b 8d a0 fd ff
	ff		 mov	 ecx, DWORD PTR _rkLoader$GSCopy$[ebp]
  001b1	83 c4 0c	 add	 esp, 12			; 0000000cH
  001b4	68 04 01 00 00	 push	 260			; 00000104H
  001b9	8d 85 a8 fe ff
	ff		 lea	 eax, DWORD PTR _szBuf$[ebp]
  001bf	50		 push	 eax
  001c0	57		 push	 edi
  001c1	8d 85 a4 fd ff
	ff		 lea	 eax, DWORD PTR _szKey$[ebp]
  001c7	50		 push	 eax
  001c8	ff d6		 call	 esi

; 73   : 		m_szTargetMapCollisionCancelBuff.push_back( szBuf );

  001ca	8d 85 a8 fe ff
	ff		 lea	 eax, DWORD PTR _szBuf$[ebp]
  001d0	50		 push	 eax
  001d1	8d 4d c4	 lea	 ecx, DWORD PTR $T538420[ebp]
  001d4	ff 15 00 00 00
	00		 call	 DWORD PTR __imp_??0ioHashString@@QAE@PBD@Z
  001da	8b 8d 98 fd ff
	ff		 mov	 ecx, DWORD PTR _this$GSCopy$[ebp]
  001e0	8d 45 c4	 lea	 eax, DWORD PTR $T538420[ebp]
  001e3	50		 push	 eax
  001e4	81 c1 1c 09 00
	00		 add	 ecx, 2332		; 0000091cH
  001ea	89 5d fc	 mov	 DWORD PTR __$EHRec$[ebp+8], ebx
  001ed	e8 00 00 00 00	 call	 ?push_back@?$vector@VioHashString@@V?$allocator@VioHashString@@@std@@@std@@QAEXABVioHashString@@@Z ; std::vector<ioHashString,std::allocator<ioHashString> >::push_back
  001f2	83 4d fc ff	 or	 DWORD PTR __$EHRec$[ebp+8], -1
  001f6	8d 4d c4	 lea	 ecx, DWORD PTR $T538420[ebp]
  001f9	ff 15 00 00 00
	00		 call	 DWORD PTR __imp_??1ioHashString@@QAE@XZ
  001ff	8b 8d 9c fd ff
	ff		 mov	 ecx, DWORD PTR tv5053[ebp]
  00205	3b 8d 94 fd ff
	ff		 cmp	 ecx, DWORD PTR _iCnt$[ebp]
  0020b	0f 8c 47 ff ff
	ff		 jl	 $LL204@LoadProper
$LN202@LoadProper:

; 74   : 	}
; 75   : 
; 76   : 	//    
; 77   : 	iCnt = rkLoader.LoadInt_e( "owner_wounded_buff_cnt", 0 );

  00211	6a 05		 push	 5
  00213	c7 45 d4 82 9b
	85 8f		 mov	 DWORD PTR __k$538787[ebp], -1887069310 ; 8f859b82H
  0021a	c7 45 d8 9f b3
	9c 85		 mov	 DWORD PTR __k$538787[ebp+4], -2053327969 ; 859cb39fH
  00221	c7 45 dc 98 82
	8f 8f		 mov	 DWORD PTR __k$538787[ebp+8], -1886420328 ; 8f8f8298H
  00228	c7 45 e0 89 b3
	89 9f		 mov	 DWORD PTR __k$538787[ebp+12], -1618365559 ; 9f89b389H
  0022f	c7 45 e4 8b 8a
	b4 89		 mov	 DWORD PTR __k$538787[ebp+16], -1984656757 ; 89b48a8bH
  00236	66 c7 45 e8 83
	98		 mov	 WORD PTR __k$538787[ebp+20], 39043 ; 00009883H
  0023c	8d 45 d4	 lea	 eax, DWORD PTR __k$538787[ebp]
  0023f	88 5d ea	 mov	 BYTE PTR __k$538787[ebp+22], bl
  00242	59		 pop	 ecx
$LL532@LoadProper:
  00243	81 30 ed ec eb
	ea		 xor	 DWORD PTR [eax], -353637139 ; eaebecedH
  00249	83 c0 04	 add	 eax, 4
  0024c	49		 dec	 ecx
  0024d	75 f4		 jne	 SHORT $LL532@LoadProper
  0024f	6a 14		 push	 20			; 00000014H
  00251	58		 pop	 eax
$LL529@LoadProper:
  00252	8b c8		 mov	 ecx, eax
  00254	81 e1 03 00 00
	80		 and	 ecx, -2147483645	; 80000003H
  0025a	79 05		 jns	 SHORT $LN794@LoadProper
  0025c	49		 dec	 ecx
  0025d	83 c9 fc	 or	 ecx, -4			; fffffffcH
  00260	41		 inc	 ecx
$LN794@LoadProper:
  00261	b2 ed		 mov	 dl, -19			; ffffffedH
  00263	2a d1		 sub	 dl, cl
  00265	30 54 05 d4	 xor	 BYTE PTR __k$538787[ebp+eax], dl
  00269	40		 inc	 eax
  0026a	83 f8 16	 cmp	 eax, 22			; 00000016H
  0026d	7c e3		 jl	 SHORT $LL529@LoadProper
  0026f	8b 8d a0 fd ff
	ff		 mov	 ecx, DWORD PTR _rkLoader$GSCopy$[ebp]
  00275	53		 push	 ebx
  00276	8d 45 d4	 lea	 eax, DWORD PTR __k$538787[ebp]
  00279	50		 push	 eax
  0027a	ff 15 00 00 00
	00		 call	 DWORD PTR __imp_?LoadInt@ioINILoader@@QAEHPBDH@Z

; 78   : 	for( int i=0; i<iCnt; ++i )

  00280	33 c9		 xor	 ecx, ecx
  00282	89 85 94 fd ff
	ff		 mov	 DWORD PTR _iCnt$[ebp], eax
  00288	3b c3		 cmp	 eax, ebx
  0028a	0f 8e bd 00 00
	00		 jle	 $LN100@LoadProper
$LL102@LoadProper:

; 74   : 	}
; 75   : 
; 76   : 	//    
; 77   : 	iCnt = rkLoader.LoadInt_e( "owner_wounded_buff_cnt", 0 );

  00290	6a 05		 push	 5

; 79   : 	{
; 80   : 		wsprintf_e( szKey, "owner_wounded_buff%d", i+1 );

  00292	c7 45 d4 82 9b
	85 8f		 mov	 DWORD PTR ___encStr$532215[ebp], -1887069310 ; 8f859b82H
  00299	c7 45 d8 9f b3
	9c 85		 mov	 DWORD PTR ___encStr$532215[ebp+4], -2053327969 ; 859cb39fH
  002a0	c7 45 dc 98 82
	8f 8f		 mov	 DWORD PTR ___encStr$532215[ebp+8], -1886420328 ; 8f8f8298H
  002a7	c7 45 e0 89 b3
	89 9f		 mov	 DWORD PTR ___encStr$532215[ebp+12], -1618365559 ; 9f89b389H
  002ae	c7 45 e4 8b 8a
	ce 8e		 mov	 DWORD PTR ___encStr$532215[ebp+16], -1899066741 ; 8ece8a8bH
  002b5	8d 45 d4	 lea	 eax, DWORD PTR ___encStr$532215[ebp]
  002b8	88 5d e8	 mov	 BYTE PTR ___encStr$532215[ebp+20], bl
  002bb	5a		 pop	 edx
$LL540@LoadProper:
  002bc	81 30 ed ec eb
	ea		 xor	 DWORD PTR [eax], -353637139 ; eaebecedH
  002c2	83 c0 04	 add	 eax, 4
  002c5	4a		 dec	 edx
  002c6	75 f4		 jne	 SHORT $LL540@LoadProper
  002c8	8d 41 01	 lea	 eax, DWORD PTR [ecx+1]
  002cb	50		 push	 eax
  002cc	89 85 9c fd ff
	ff		 mov	 DWORD PTR tv5152[ebp], eax
  002d2	8d 45 d4	 lea	 eax, DWORD PTR ___encStr$532215[ebp]
  002d5	50		 push	 eax
  002d6	8d 85 a4 fd ff
	ff		 lea	 eax, DWORD PTR _szKey$[ebp]
  002dc	50		 push	 eax
  002dd	ff 15 00 00 00
	00		 call	 DWORD PTR __imp__wsprintfA

; 81   : 		rkLoader.LoadString( szKey, "", szBuf, MAX_PATH );

  002e3	8b 8d a0 fd ff
	ff		 mov	 ecx, DWORD PTR _rkLoader$GSCopy$[ebp]
  002e9	83 c4 0c	 add	 esp, 12			; 0000000cH
  002ec	68 04 01 00 00	 push	 260			; 00000104H
  002f1	8d 85 a8 fe ff
	ff		 lea	 eax, DWORD PTR _szBuf$[ebp]
  002f7	50		 push	 eax
  002f8	57		 push	 edi
  002f9	8d 85 a4 fd ff
	ff		 lea	 eax, DWORD PTR _szKey$[ebp]
  002ff	50		 push	 eax
  00300	ff d6		 call	 esi

; 82   : 		m_szOwnerWoundedBuff.push_back( szBuf );

  00302	8d 85 a8 fe ff
	ff		 lea	 eax, DWORD PTR _szBuf$[ebp]
  00308	50		 push	 eax
  00309	8d 4d c4	 lea	 ecx, DWORD PTR $T538421[ebp]
  0030c	ff 15 00 00 00
	00		 call	 DWORD PTR __imp_??0ioHashString@@QAE@PBD@Z
  00312	8b 8d 98 fd ff
	ff		 mov	 ecx, DWORD PTR _this$GSCopy$[ebp]
  00318	8d 45 c4	 lea	 eax, DWORD PTR $T538421[ebp]
  0031b	50		 push	 eax
  0031c	81 c1 2c 09 00
	00		 add	 ecx, 2348		; 0000092cH
  00322	c7 45 fc 01 00
	00 00		 mov	 DWORD PTR __$EHRec$[ebp+8], 1
  00329	e8 00 00 00 00	 call	 ?push_back@?$vector@VioHashString@@V?$allocator@VioHashString@@@std@@@std@@QAEXABVioHashString@@@Z ; std::vector<ioHashString,std::allocator<ioHashString> >::push_back
  0032e	83 4d fc ff	 or	 DWORD PTR __$EHRec$[ebp+8], -1
  00332	8d 4d c4	 lea	 ecx, DWORD PTR $T538421[ebp]
  00335	ff 15 00 00 00
	00		 call	 DWORD PTR __imp_??1ioHashString@@QAE@XZ
  0033b	8b 8d 9c fd ff
	ff		 mov	 ecx, DWORD PTR tv5152[ebp]
  00341	3b 8d 94 fd ff
	ff		 cmp	 ecx, DWORD PTR _iCnt$[ebp]
  00347	0f 8c 43 ff ff
	ff		 jl	 $LL102@LoadProper
$LN100@LoadProper:

; 83   : 	}
; 84   : 
; 85   : 	m_fLimitAngle = rkLoader.LoadFloat_e( "limit_angle", 0.0f );

  0034d	6a 02		 push	 2
  0034f	c7 45 c4 81 85
	86 83		 mov	 DWORD PTR __k$538838[ebp], -2088335999 ; 83868581H
  00356	c7 45 c8 99 b3
	8a 84		 mov	 DWORD PTR __k$538838[ebp+4], -2071284839 ; 848ab399H
  0035d	8d 45 c4	 lea	 eax, DWORD PTR __k$538838[ebp]
  00360	c7 45 cc 8a 80
	8e 00		 mov	 DWORD PTR __k$538838[ebp+8], 9339018 ; 008e808aH
  00367	59		 pop	 ecx
$LL646@LoadProper:
  00368	81 30 ed ec eb
	ea		 xor	 DWORD PTR [eax], -353637139 ; eaebecedH
  0036e	83 c0 04	 add	 eax, 4
  00371	49		 dec	 ecx
  00372	75 f4		 jne	 SHORT $LL646@LoadProper
  00374	6a 08		 push	 8
  00376	5e		 pop	 esi
$LL643@LoadProper:
  00377	8b c6		 mov	 eax, esi
  00379	25 03 00 00 80	 and	 eax, -2147483645	; 80000003H
  0037e	79 05		 jns	 SHORT $LN795@LoadProper
  00380	48		 dec	 eax
  00381	83 c8 fc	 or	 eax, -4			; fffffffcH
  00384	40		 inc	 eax
$LN795@LoadProper:
  00385	b1 ed		 mov	 cl, -19			; ffffffedH
  00387	2a c8		 sub	 cl, al
  00389	30 4c 35 c4	 xor	 BYTE PTR __k$538838[ebp+esi], cl
  0038d	46		 inc	 esi
  0038e	83 fe 0b	 cmp	 esi, 11			; 0000000bH
  00391	7c e4		 jl	 SHORT $LL643@LoadProper
  00393	0f 57 c0	 xorps	 xmm0, xmm0
  00396	51		 push	 ecx
  00397	8b 8d a0 fd ff
	ff		 mov	 ecx, DWORD PTR _rkLoader$GSCopy$[ebp]
  0039d	8d 45 c4	 lea	 eax, DWORD PTR __k$538838[ebp]
  003a0	f3 0f 11 04 24	 movss	 DWORD PTR [esp], xmm0
  003a5	50		 push	 eax
  003a6	ff 15 00 00 00
	00		 call	 DWORD PTR __imp_?LoadFloat@ioINILoader@@QAEMPBDM@Z
  003ac	d9 9d 9c fd ff
	ff		 fstp	 DWORD PTR _value$538951[ebp]
  003b2	8b b5 98 fd ff
	ff		 mov	 esi, DWORD PTR _this$GSCopy$[ebp]
  003b8	8d 85 9c fd ff
	ff		 lea	 eax, DWORD PTR _value$538951[ebp]
  003be	50		 push	 eax
  003bf	8d 8e 3c 09 00
	00		 lea	 ecx, DWORD PTR [esi+2364]
  003c5	e8 00 00 00 00	 call	 ?EncryptValueToPool@?$CEncrypt@M@@AAEXPBD@Z ; CEncrypt<float>::EncryptValueToPool
  003ca	6a 04		 push	 4

; 86   : 
; 87   : 	m_bCollisionMap = rkLoader.LoadBool_e( "check_collision_map", false );

  003cc	c7 45 ac 8e 84
	8e 89		 mov	 DWORD PTR __k$538968[ebp], -1987148658 ; 898e848eH
  003d3	c7 45 b0 86 b3
	88 85		 mov	 DWORD PTR __k$538968[ebp+4], -2054638714 ; 8588b386H
  003da	c7 45 b4 81 80
	82 99		 mov	 DWORD PTR __k$538968[ebp+8], -1719500671 ; 99828081H
  003e1	c7 45 b8 84 83
	85 b5		 mov	 DWORD PTR __k$538968[ebp+12], -1249541244 ; b5858384H
  003e8	8d 45 ac	 lea	 eax, DWORD PTR __k$538968[ebp]
  003eb	c7 45 bc 80 8d
	9b 00		 mov	 DWORD PTR __k$538968[ebp+16], 10194304 ; 009b8d80H
  003f2	59		 pop	 ecx
$LL754@LoadProper:
  003f3	81 30 ed ec eb
	ea		 xor	 DWORD PTR [eax], -353637139 ; eaebecedH
  003f9	83 c0 04	 add	 eax, 4
  003fc	49		 dec	 ecx
  003fd	75 f4		 jne	 SHORT $LL754@LoadProper
  003ff	6a 10		 push	 16			; 00000010H
  00401	5f		 pop	 edi
$LL751@LoadProper:
  00402	8b c7		 mov	 eax, edi
  00404	25 03 00 00 80	 and	 eax, -2147483645	; 80000003H
  00409	79 05		 jns	 SHORT $LN796@LoadProper
  0040b	48		 dec	 eax
  0040c	83 c8 fc	 or	 eax, -4			; fffffffcH
  0040f	40		 inc	 eax
$LN796@LoadProper:
  00410	b1 ed		 mov	 cl, -19			; ffffffedH
  00412	2a c8		 sub	 cl, al
  00414	30 4c 3d ac	 xor	 BYTE PTR __k$538968[ebp+edi], cl
  00418	47		 inc	 edi
  00419	83 ff 13	 cmp	 edi, 19			; 00000013H
  0041c	7c e4		 jl	 SHORT $LL751@LoadProper
  0041e	8b 8d a0 fd ff
	ff		 mov	 ecx, DWORD PTR _rkLoader$GSCopy$[ebp]
  00424	53		 push	 ebx
  00425	8d 45 ac	 lea	 eax, DWORD PTR __k$538968[ebp]
  00428	50		 push	 eax
  00429	ff 15 00 00 00
	00		 call	 DWORD PTR __imp_?LoadBool@ioINILoader@@QAE_NPBD_N@Z
  0042f	88 86 6d 09 00
	00		 mov	 BYTE PTR [esi+2413], al

; 88   : }

  00435	e8 00 00 00 00	 call	 __EH_epilog3_GS
  0043a	c2 04 00	 ret	 4
_TEXT	ENDS
;	COMDAT text$x
text$x	SEGMENT
__unwindfunclet$?LoadProperty@ioAdhesiveMissileWeapon4@@UAEXAAVioINILoader@@@Z$0:
  00000	8d 4d c4	 lea	 ecx, DWORD PTR $T538420[ebp]
  00003	ff 25 00 00 00
	00		 jmp	 DWORD PTR __imp_??1ioHashString@@QAE@XZ
__unwindfunclet$?LoadProperty@ioAdhesiveMissileWeapon4@@UAEXAAVioINILoader@@@Z$1:
  00009	8d 4d c4	 lea	 ecx, DWORD PTR $T538421[ebp]
  0000c	ff 25 00 00 00
	00		 jmp	 DWORD PTR __imp_??1ioHashString@@QAE@XZ
__ehhandler$?LoadProperty@ioAdhesiveMissileWeapon4@@UAEXAAVioINILoader@@@Z:
  00012	8b 54 24 08	 mov	 edx, DWORD PTR [esp+8]
  00016	8d 42 0c	 lea	 eax, DWORD PTR [edx+12]
  00019	8b 8a 90 fd ff
	ff		 mov	 ecx, DWORD PTR [edx-624]
  0001f	33 c8		 xor	 ecx, eax
  00021	e8 00 00 00 00	 call	 @__security_check_cookie@4
  00026	8b 4a fc	 mov	 ecx, DWORD PTR [edx-4]
  00029	33 c8		 xor	 ecx, eax
  0002b	e8 00 00 00 00	 call	 @__security_check_cookie@4
  00030	b8 00 00 00 00	 mov	 eax, OFFSET __ehfuncinfo$?LoadProperty@ioAdhesiveMissileWeapon4@@UAEXAAVioINILoader@@@Z
  00035	e9 00 00 00 00	 jmp	 ___CxxFrameHandler3
text$x	ENDS
?LoadProperty@ioAdhesiveMissileWeapon4@@UAEXAAVioINILoader@@@Z ENDP ; ioAdhesiveMissileWeapon4::LoadProperty
PUBLIC	__real@43c80000
PUBLIC	??_C@_0BM@KNFGMDKH@PC?5?9WeaponAddBuff4?5?3?5?$CFd?0?5?$CFd?$AA@ ; `string'
PUBLIC	__$ArrayPad$
PUBLIC	?SetTargetMapCollisionCancelBuff@ioAdhesiveMissileWeapon4@@QAEXXZ ; ioAdhesiveMissileWeapon4::SetTargetMapCollisionCancelBuff
EXTRN	??6SP2Packet@@QAEAAV0@_N@Z:PROC			; SP2Packet::operator<<
EXTRN	??6SP2Packet@@QAEAAV0@PBD@Z:PROC		; SP2Packet::operator<<
EXTRN	?GetAttributeIndex@ioWeapon@@QBEHXZ:PROC	; ioWeapon::GetAttributeIndex
EXTRN	__imp_?GetLoopSec@ioFrameTimer@@QBEKXZ:PROC
EXTRN	__imp_?GetSingleton@ioFrameTimer@@SAAAV1@XZ:PROC
EXTRN	?CheckEnableTimeGapUser@Help@@YA_NH@Z:PROC	; Help::CheckEnableTimeGapUser
EXTRN	?AddNewBuff@ioBaseChar@@QAEPAVioBuff@@ABVioHashString@@00PAVioSkill@@_N@Z:PROC ; ioBaseChar::AddNewBuff
EXTRN	?GetBaseChar@ioPlayStage@@QAEPAVioBaseChar@@ABVioHashString@@@Z:PROC ; ioPlayStage::GetBaseChar
;	COMDAT __real@43c80000
CONST	SEGMENT
__real@43c80000 DD 043c80000r			; 400
CONST	ENDS
;	COMDAT ??_C@_0BM@KNFGMDKH@PC?5?9WeaponAddBuff4?5?3?5?$CFd?0?5?$CFd?$AA@
CONST	SEGMENT
??_C@_0BM@KNFGMDKH@PC?5?9WeaponAddBuff4?5?3?5?$CFd?0?5?$CFd?$AA@ DB 'PC -'
	DB	'WeaponAddBuff4 : %d, %d', 00H		; `string'
CONST	ENDS
;	COMDAT xdata$x
xdata$x	SEGMENT
__unwindtable$?SetTargetMapCollisionCancelBuff@ioAdhesiveMissileWeapon4@@QAEXXZ DD 0ffffffffH
	DD	FLAT:__unwindfunclet$?SetTargetMapCollisionCancelBuff@ioAdhesiveMissileWeapon4@@QAEXXZ$0
	DD	00H
	DD	FLAT:__unwindfunclet$?SetTargetMapCollisionCancelBuff@ioAdhesiveMissileWeapon4@@QAEXXZ$1
	DD	01H
	DD	FLAT:__unwindfunclet$?SetTargetMapCollisionCancelBuff@ioAdhesiveMissileWeapon4@@QAEXXZ$2
	DD	01H
	DD	FLAT:__unwindfunclet$?SetTargetMapCollisionCancelBuff@ioAdhesiveMissileWeapon4@@QAEXXZ$3
__ehfuncinfo$?SetTargetMapCollisionCancelBuff@ioAdhesiveMissileWeapon4@@QAEXXZ DD 019930522H
	DD	04H
	DD	FLAT:__unwindtable$?SetTargetMapCollisionCancelBuff@ioAdhesiveMissileWeapon4@@QAEXXZ
	DD	2 DUP(00H)
	DD	2 DUP(00H)
	DD	00H
	DD	01H
; Function compile flags: /Ogsp
xdata$x	ENDS
;	COMDAT ?SetTargetMapCollisionCancelBuff@ioAdhesiveMissileWeapon4@@QAEXXZ
_TEXT	SEGMENT
$T539131 = -32888					; size = 16
_pInfo$532889 = -32872					; size = 24
_pBuff$532900 = -32848					; size = 4
_pStage$ = -32844					; size = 4
_vBuffList$532893 = -32840				; size = 16
_iter$ = -32824						; size = 4
tv359 = -32820						; size = 4
tv628 = -32816						; size = 4
_bResult$532892 = -32809				; size = 1
_kPacket$532907 = -32808				; size = 32792
__$ArrayPad$ = -16					; size = 4
__$EHRec$ = -12						; size = 12
?SetTargetMapCollisionCancelBuff@ioAdhesiveMissileWeapon4@@QAEXXZ PROC ; ioAdhesiveMissileWeapon4::SetTargetMapCollisionCancelBuff, COMDAT
; _this$ = ecx

; 687  : {

  00000	55		 push	 ebp
  00001	8b ec		 mov	 ebp, esp
  00003	6a ff		 push	 -1
  00005	68 00 00 00 00	 push	 __ehhandler$?SetTargetMapCollisionCancelBuff@ioAdhesiveMissileWeapon4@@QAEXXZ
  0000a	64 a1 00 00 00
	00		 mov	 eax, DWORD PTR fs:0
  00010	50		 push	 eax
  00011	b8 6c 80 00 00	 mov	 eax, 32876		; 0000806cH
  00016	e8 00 00 00 00	 call	 __chkstk
  0001b	a1 00 00 00 00	 mov	 eax, DWORD PTR ___security_cookie
  00020	33 c5		 xor	 eax, ebp
  00022	89 45 f0	 mov	 DWORD PTR __$ArrayPad$[ebp], eax
  00025	53		 push	 ebx
  00026	56		 push	 esi
  00027	57		 push	 edi
  00028	50		 push	 eax
  00029	8d 45 f4	 lea	 eax, DWORD PTR __$EHRec$[ebp]
  0002c	64 a3 00 00 00
	00		 mov	 DWORD PTR fs:0, eax
  00032	8b f1		 mov	 esi, ecx

; 688  : 	ioBaseChar* pChar = GetOwner();

  00034	e8 00 00 00 00	 call	 ?GetOwner@ioWeapon@@QBEPAVioBaseChar@@XZ ; ioWeapon::GetOwner

; 689  : 	if( !pChar )

  00039	85 c0		 test	 eax, eax
  0003b	0f 84 1c 03 00
	00		 je	 $LN12@SetTargetM

; 690  : 		return;
; 691  : 
; 692  : 	ioPlayStage* pStage = pChar->GetCreator();

  00041	8b 80 44 03 00
	00		 mov	 eax, DWORD PTR [eax+836]
  00047	89 85 b4 7f ff
	ff		 mov	 DWORD PTR _pStage$[ebp], eax

; 693  : 	if( !pStage )

  0004d	85 c0		 test	 eax, eax
  0004f	0f 84 08 03 00
	00		 je	 $LN12@SetTargetM

; 694  : 		return;
; 695  : 
; 696  : 	TargetInfoList::iterator iter;
; 697  : 	for( iter = m_TargetInfoList.begin(); iter != m_TargetInfoList.end(); ++iter )

  00055	8b 9e 98 08 00
	00		 mov	 ebx, DWORD PTR [esi+2200]
  0005b	e9 eb 02 00 00	 jmp	 $LN109@SetTargetM
$LN39@SetTargetM:

; 698  : 	{
; 699  : 		TargetInfo pInfo = (*iter);

  00060	53		 push	 ebx
  00061	8d 8d 98 7f ff
	ff		 lea	 ecx, DWORD PTR _pInfo$532889[ebp]
  00067	ff 15 00 00 00
	00		 call	 DWORD PTR __imp_??0ioHashString@@QAE@ABV0@@Z
  0006d	f3 0f 10 43 10	 movss	 xmm0, DWORD PTR [ebx+16]
  00072	f3 0f 11 85 a8
	7f ff ff	 movss	 DWORD PTR _pInfo$532889[ebp+16], xmm0
  0007a	f3 0f 10 43 14	 movss	 xmm0, DWORD PTR [ebx+20]
  0007f	f3 0f 11 85 ac
	7f ff ff	 movss	 DWORD PTR _pInfo$532889[ebp+20], xmm0

; 700  : 		ioBaseChar* pTarget = pStage->GetBaseChar( pInfo.m_szTargetName );

  00087	8b 8d b4 7f ff
	ff		 mov	 ecx, DWORD PTR _pStage$[ebp]
  0008d	83 65 fc 00	 and	 DWORD PTR __$EHRec$[ebp+8], 0
  00091	8d 85 98 7f ff
	ff		 lea	 eax, DWORD PTR _pInfo$532889[ebp]
  00097	50		 push	 eax
  00098	e8 00 00 00 00	 call	 ?GetBaseChar@ioPlayStage@@QAEPAVioBaseChar@@ABVioHashString@@@Z ; ioPlayStage::GetBaseChar
  0009d	8b f8		 mov	 edi, eax

; 701  : 		if( pTarget && pTarget->IsNeedProcess() )

  0009f	85 ff		 test	 edi, edi
  000a1	0f 84 91 02 00
	00		 je	 $LN92@SetTargetM
  000a7	8b 07		 mov	 eax, DWORD PTR [edi]
  000a9	8b cf		 mov	 ecx, edi
  000ab	ff 90 00 01 00
	00		 call	 DWORD PTR [eax+256]
  000b1	84 c0		 test	 al, al
  000b3	0f 84 7f 02 00
	00		 je	 $LN92@SetTargetM

; 702  : 		{
; 703  : 			bool bResult = false;
; 704  : 			ioHashStringVec vBuffList;

  000b9	33 c9		 xor	 ecx, ecx
  000bb	c6 85 d7 7f ff
	ff 00		 mov	 BYTE PTR _bResult$532892[ebp], 0
  000c2	89 8d b8 7f ff
	ff		 mov	 DWORD PTR _vBuffList$532893[ebp], ecx
  000c8	89 8d bc 7f ff
	ff		 mov	 DWORD PTR _vBuffList$532893[ebp+4], ecx
  000ce	89 8d c0 7f ff
	ff		 mov	 DWORD PTR _vBuffList$532893[ebp+8], ecx

; 705  : 
; 706  : 			if( pTarget->GetState() == CS_SKIP_STUN )

  000d4	80 bf 10 03 00
	00 48		 cmp	 BYTE PTR [edi+784], 72	; 00000048H
  000db	c6 45 fc 01	 mov	 BYTE PTR __$EHRec$[ebp+8], 1
  000df	0f 85 44 02 00
	00		 jne	 $LN5@SetTargetM

; 707  : 			{
; 708  : 				int iBuffCnt = m_szTargetMapCollisionCancelBuff.size();

  000e5	8b 86 20 09 00
	00		 mov	 eax, DWORD PTR [esi+2336]
  000eb	2b 86 1c 09 00
	00		 sub	 eax, DWORD PTR [esi+2332]
  000f1	c1 f8 04	 sar	 eax, 4

; 709  : 				for( int i = 0; i < iBuffCnt; i++ )

  000f4	3b c1		 cmp	 eax, ecx
  000f6	0f 8e 2d 02 00
	00		 jle	 $LN5@SetTargetM

; 707  : 			{
; 708  : 				int iBuffCnt = m_szTargetMapCollisionCancelBuff.size();

  000fc	89 8d d0 7f ff
	ff		 mov	 DWORD PTR tv628[ebp], ecx
  00102	89 85 cc 7f ff
	ff		 mov	 DWORD PTR tv359[ebp], eax
$LL9@SetTargetM:

; 710  : 				{
; 711  : 					ioBuff *pBuff = pTarget->AddNewBuff( m_szTargetMapCollisionCancelBuff[i], 
; 712  : 						GetOwner()->GetCharName(),
; 713  : 						"",
; 714  : 						NULL );

  00108	68 00 00 00 00	 push	 OFFSET ??_C@_00CNPNBAHC@?$AA@
  0010d	8d 8d 88 7f ff
	ff		 lea	 ecx, DWORD PTR $T539131[ebp]
  00113	ff 15 00 00 00
	00		 call	 DWORD PTR __imp_??0ioHashString@@QAE@PBD@Z
  00119	8b ce		 mov	 ecx, esi
  0011b	c6 45 fc 02	 mov	 BYTE PTR __$EHRec$[ebp+8], 2
  0011f	e8 00 00 00 00	 call	 ?GetOwner@ioWeapon@@QBEPAVioBaseChar@@XZ ; ioWeapon::GetOwner
  00124	8b 8e 1c 09 00
	00		 mov	 ecx, DWORD PTR [esi+2332]
  0012a	03 8d d0 7f ff
	ff		 add	 ecx, DWORD PTR tv628[ebp]
  00130	6a 00		 push	 0
  00132	6a 00		 push	 0
  00134	8d 95 88 7f ff
	ff		 lea	 edx, DWORD PTR $T539131[ebp]
  0013a	52		 push	 edx
  0013b	05 d4 02 00 00	 add	 eax, 724		; 000002d4H
  00140	50		 push	 eax
  00141	51		 push	 ecx
  00142	8b cf		 mov	 ecx, edi
  00144	e8 00 00 00 00	 call	 ?AddNewBuff@ioBaseChar@@QAEPAVioBuff@@ABVioHashString@@00PAVioSkill@@_N@Z ; ioBaseChar::AddNewBuff
  00149	8d 8d 88 7f ff
	ff		 lea	 ecx, DWORD PTR $T539131[ebp]
  0014f	89 85 b0 7f ff
	ff		 mov	 DWORD PTR _pBuff$532900[ebp], eax
  00155	c6 45 fc 01	 mov	 BYTE PTR __$EHRec$[ebp+8], 1
  00159	ff 15 00 00 00
	00		 call	 DWORD PTR __imp_??1ioHashString@@QAE@XZ

; 715  : 					if( pBuff )

  0015f	83 bd b0 7f ff
	ff 00		 cmp	 DWORD PTR _pBuff$532900[ebp], 0
  00166	74 1f		 je	 SHORT $LN8@SetTargetM

; 709  : 				for( int i = 0; i < iBuffCnt; i++ )

  00168	8b 86 1c 09 00
	00		 mov	 eax, DWORD PTR [esi+2332]
  0016e	03 85 d0 7f ff
	ff		 add	 eax, DWORD PTR tv628[ebp]

; 716  : 					{
; 717  : 						bResult = true;
; 718  : 						vBuffList.push_back( m_szTargetMapCollisionCancelBuff[i] );

  00174	8d 8d b8 7f ff
	ff		 lea	 ecx, DWORD PTR _vBuffList$532893[ebp]
  0017a	50		 push	 eax
  0017b	c6 85 d7 7f ff
	ff 01		 mov	 BYTE PTR _bResult$532892[ebp], 1
  00182	e8 00 00 00 00	 call	 ?push_back@?$vector@VioHashString@@V?$allocator@VioHashString@@@std@@@std@@QAEXABVioHashString@@@Z ; std::vector<ioHashString,std::allocator<ioHashString> >::push_back
$LN8@SetTargetM:

; 709  : 				for( int i = 0; i < iBuffCnt; i++ )

  00187	83 85 d0 7f ff
	ff 10		 add	 DWORD PTR tv628[ebp], 16 ; 00000010H
  0018e	ff 8d cc 7f ff
	ff		 dec	 DWORD PTR tv359[ebp]
  00194	0f 85 6e ff ff
	ff		 jne	 $LL9@SetTargetM

; 719  : 					}
; 720  : 				}
; 721  : 			}
; 722  : 
; 723  : 			if( bResult && !vBuffList.empty() && pTarget->IsNeedSendNetwork() )

  0019a	80 bd d7 7f ff
	ff 00		 cmp	 BYTE PTR _bResult$532892[ebp], 0
  001a1	0f 84 82 01 00
	00		 je	 $LN5@SetTargetM
  001a7	8b 85 b8 7f ff
	ff		 mov	 eax, DWORD PTR _vBuffList$532893[ebp]
  001ad	3b 85 bc 7f ff
	ff		 cmp	 eax, DWORD PTR _vBuffList$532893[ebp+4]
  001b3	0f 84 70 01 00
	00		 je	 $LN5@SetTargetM
  001b9	8b 07		 mov	 eax, DWORD PTR [edi]
  001bb	8b cf		 mov	 ecx, edi
  001bd	ff 90 04 01 00
	00		 call	 DWORD PTR [eax+260]
  001c3	84 c0		 test	 al, al
  001c5	0f 84 5e 01 00
	00		 je	 $LN5@SetTargetM

; 724  : 			{
; 725  : 				int iBuffCnt = vBuffList.size();

  001cb	8b 9d bc 7f ff
	ff		 mov	 ebx, DWORD PTR _vBuffList$532893[ebp+4]
  001d1	2b 9d b8 7f ff
	ff		 sub	 ebx, DWORD PTR _vBuffList$532893[ebp]

; 726  : 
; 727  : 				if( Help::CheckEnableTimeGapUser() )

  001d7	6a 00		 push	 0
  001d9	c1 fb 04	 sar	 ebx, 4
  001dc	e8 00 00 00 00	 call	 ?CheckEnableTimeGapUser@Help@@YA_NH@Z ; Help::CheckEnableTimeGapUser
  001e1	59		 pop	 ecx
  001e2	84 c0		 test	 al, al
  001e4	74 2d		 je	 SHORT $LN4@SetTargetM

; 728  : 				{
; 729  : 					LOG.PrintTimeAndLog( 0, "PC -WeaponAddBuff4 : %d, %d", GetAttributeIndex(), FRAMEGETTIME() );

  001e6	ff 15 00 00 00
	00		 call	 DWORD PTR __imp_?GetSingleton@ioFrameTimer@@SAAAV1@XZ
  001ec	8b c8		 mov	 ecx, eax
  001ee	ff 15 00 00 00
	00		 call	 DWORD PTR __imp_?GetLoopSec@ioFrameTimer@@QBEKXZ
  001f4	50		 push	 eax
  001f5	8b ce		 mov	 ecx, esi
  001f7	e8 00 00 00 00	 call	 ?GetAttributeIndex@ioWeapon@@QBEHXZ ; ioWeapon::GetAttributeIndex
  001fc	50		 push	 eax
  001fd	68 00 00 00 00	 push	 OFFSET ??_C@_0BM@KNFGMDKH@PC?5?9WeaponAddBuff4?5?3?5?$CFd?0?5?$CFd?$AA@
  00202	6a 00		 push	 0
  00204	ff 35 00 00 00
	00		 push	 DWORD PTR __imp_?LOG@@3VCLog@@A
  0020a	ff 15 00 00 00
	00		 call	 DWORD PTR __imp_?PrintTimeAndLog@CLog@@QAAXHPADZZ
  00210	83 c4 14	 add	 esp, 20			; 00000014H
$LN4@SetTargetM:

; 730  : 				}
; 731  : 				SP2Packet kPacket( CUPK_ADD_NEW_BUFF );

  00213	68 31 41 00 00	 push	 16689			; 00004131H
  00218	8d 8d d8 7f ff
	ff		 lea	 ecx, DWORD PTR _kPacket$532907[ebp]
  0021e	e8 00 00 00 00	 call	 ??0SP2Packet@@QAE@K@Z	; SP2Packet::SP2Packet

; 732  : 				kPacket << pTarget->GetCharName();

  00223	8d 87 d4 02 00
	00		 lea	 eax, DWORD PTR [edi+724]
  00229	50		 push	 eax
  0022a	8d 8d d8 7f ff
	ff		 lea	 ecx, DWORD PTR _kPacket$532907[ebp]
  00230	c6 45 fc 03	 mov	 BYTE PTR __$EHRec$[ebp+8], 3
  00234	e8 00 00 00 00	 call	 ??6SP2Packet@@QAEAAV0@ABVioHashString@@@Z ; SP2Packet::operator<<

; 733  : 				kPacket << GetOwner()->GetCharName();

  00239	8b ce		 mov	 ecx, esi
  0023b	e8 00 00 00 00	 call	 ?GetOwner@ioWeapon@@QBEPAVioBaseChar@@XZ ; ioWeapon::GetOwner
  00240	05 d4 02 00 00	 add	 eax, 724		; 000002d4H
  00245	50		 push	 eax
  00246	8d 8d d8 7f ff
	ff		 lea	 ecx, DWORD PTR _kPacket$532907[ebp]
  0024c	e8 00 00 00 00	 call	 ??6SP2Packet@@QAEAAV0@ABVioHashString@@@Z ; SP2Packet::operator<<

; 734  : 				kPacket << "";

  00251	68 00 00 00 00	 push	 OFFSET ??_C@_00CNPNBAHC@?$AA@
  00256	8d 8d d8 7f ff
	ff		 lea	 ecx, DWORD PTR _kPacket$532907[ebp]
  0025c	e8 00 00 00 00	 call	 ??6SP2Packet@@QAEAAV0@PBD@Z ; SP2Packet::operator<<

; 735  : 				kPacket << pTarget->GetRandomSeed();

  00261	ff b7 74 16 00
	00		 push	 DWORD PTR [edi+5748]
  00267	8d 8d d8 7f ff
	ff		 lea	 ecx, DWORD PTR _kPacket$532907[ebp]
  0026d	e8 00 00 00 00	 call	 ??6SP2Packet@@QAEAAV0@K@Z ; SP2Packet::operator<<

; 736  : 				kPacket << false;

  00272	33 ff		 xor	 edi, edi
  00274	57		 push	 edi
  00275	8d 8d d8 7f ff
	ff		 lea	 ecx, DWORD PTR _kPacket$532907[ebp]
  0027b	e8 00 00 00 00	 call	 ??6SP2Packet@@QAEAAV0@_N@Z ; SP2Packet::operator<<

; 737  : 				kPacket << 0.0f;

  00280	0f 57 c0	 xorps	 xmm0, xmm0
  00283	51		 push	 ecx
  00284	8d 8d d8 7f ff
	ff		 lea	 ecx, DWORD PTR _kPacket$532907[ebp]
  0028a	f3 0f 11 04 24	 movss	 DWORD PTR [esp], xmm0
  0028f	e8 00 00 00 00	 call	 ??6SP2Packet@@QAEAAV0@M@Z ; SP2Packet::operator<<

; 738  : 				kPacket << 400.0f;

  00294	f3 0f 10 05 00
	00 00 00	 movss	 xmm0, DWORD PTR __real@43c80000
  0029c	51		 push	 ecx
  0029d	8d 8d d8 7f ff
	ff		 lea	 ecx, DWORD PTR _kPacket$532907[ebp]
  002a3	f3 0f 11 04 24	 movss	 DWORD PTR [esp], xmm0
  002a8	e8 00 00 00 00	 call	 ??6SP2Packet@@QAEAAV0@M@Z ; SP2Packet::operator<<

; 739  : 				kPacket << 0.0f;

  002ad	0f 57 c0	 xorps	 xmm0, xmm0
  002b0	51		 push	 ecx
  002b1	8d 8d d8 7f ff
	ff		 lea	 ecx, DWORD PTR _kPacket$532907[ebp]
  002b7	f3 0f 11 04 24	 movss	 DWORD PTR [esp], xmm0
  002bc	e8 00 00 00 00	 call	 ??6SP2Packet@@QAEAAV0@M@Z ; SP2Packet::operator<<

; 740  : 				kPacket << COWT_NONE;				// Check CloseOrderBuff(12.07.13 )

  002c1	57		 push	 edi
  002c2	8d 8d d8 7f ff
	ff		 lea	 ecx, DWORD PTR _kPacket$532907[ebp]
  002c8	e8 00 00 00 00	 call	 ??6SP2Packet@@QAEAAV0@H@Z ; SP2Packet::operator<<

; 741  : 				kPacket << iBuffCnt;

  002cd	53		 push	 ebx
  002ce	8d 8d d8 7f ff
	ff		 lea	 ecx, DWORD PTR _kPacket$532907[ebp]
  002d4	e8 00 00 00 00	 call	 ??6SP2Packet@@QAEAAV0@H@Z ; SP2Packet::operator<<

; 742  : 
; 743  : 				for(int i=0; i < iBuffCnt; i++ )

  002d9	3b df		 cmp	 ebx, edi
  002db	7e 1a		 jle	 SHORT $LN1@SetTargetM
$LL3@SetTargetM:
  002dd	8b 85 b8 7f ff
	ff		 mov	 eax, DWORD PTR _vBuffList$532893[ebp]
  002e3	03 c7		 add	 eax, edi

; 744  : 				{
; 745  : 					kPacket << vBuffList[i];

  002e5	50		 push	 eax
  002e6	8d 8d d8 7f ff
	ff		 lea	 ecx, DWORD PTR _kPacket$532907[ebp]
  002ec	e8 00 00 00 00	 call	 ??6SP2Packet@@QAEAAV0@ABVioHashString@@@Z ; SP2Packet::operator<<
  002f1	83 c7 10	 add	 edi, 16			; 00000010H
  002f4	4b		 dec	 ebx
  002f5	75 e6		 jne	 SHORT $LL3@SetTargetM
$LN1@SetTargetM:

; 746  : 				}
; 747  : 
; 748  : 				kPacket << false;

  002f7	6a 00		 push	 0
  002f9	8d 8d d8 7f ff
	ff		 lea	 ecx, DWORD PTR _kPacket$532907[ebp]
  002ff	e8 00 00 00 00	 call	 ??6SP2Packet@@QAEAAV0@_N@Z ; SP2Packet::operator<<

; 749  : 
; 750  : 				P2PNetwork::SendToAllPlayingUser( kPacket );

  00304	8d 85 d8 7f ff
	ff		 lea	 eax, DWORD PTR _kPacket$532907[ebp]
  0030a	6a 00		 push	 0
  0030c	50		 push	 eax
  0030d	e8 00 00 00 00	 call	 ?SendToAllPlayingUser@P2PNetwork@@YAXAAVSP2Packet@@PAVioBaseChar@@@Z ; P2PNetwork::SendToAllPlayingUser
  00312	59		 pop	 ecx
  00313	59		 pop	 ecx

; 751  : 			}

  00314	8d 8d d8 7f ff
	ff		 lea	 ecx, DWORD PTR _kPacket$532907[ebp]
  0031a	c6 45 fc 01	 mov	 BYTE PTR __$EHRec$[ebp+8], 1
  0031e	e8 00 00 00 00	 call	 ??1SP2Packet@@UAE@XZ	; SP2Packet::~SP2Packet
  00323	8b 9d c8 7f ff
	ff		 mov	 ebx, DWORD PTR _iter$[ebp]
$LN5@SetTargetM:

; 752  : 
; 753  : 		}

  00329	8d 8d b8 7f ff
	ff		 lea	 ecx, DWORD PTR _vBuffList$532893[ebp]
  0032f	c6 45 fc 00	 mov	 BYTE PTR __$EHRec$[ebp+8], 0
  00333	e8 00 00 00 00	 call	 ?_Tidy@?$vector@VioHashString@@V?$allocator@VioHashString@@@std@@@std@@IAEXXZ ; std::vector<ioHashString,std::allocator<ioHashString> >::_Tidy
$LN92@SetTargetM:

; 754  : 	}

  00338	83 4d fc ff	 or	 DWORD PTR __$EHRec$[ebp+8], -1
  0033c	8d 8d 98 7f ff
	ff		 lea	 ecx, DWORD PTR _pInfo$532889[ebp]
  00342	ff 15 00 00 00
	00		 call	 DWORD PTR __imp_??1ioHashString@@QAE@XZ
  00348	83 c3 18	 add	 ebx, 24			; 00000018H
$LN109@SetTargetM:

; 694  : 		return;
; 695  : 
; 696  : 	TargetInfoList::iterator iter;
; 697  : 	for( iter = m_TargetInfoList.begin(); iter != m_TargetInfoList.end(); ++iter )

  0034b	89 9d c8 7f ff
	ff		 mov	 DWORD PTR _iter$[ebp], ebx
  00351	3b 9e 9c 08 00
	00		 cmp	 ebx, DWORD PTR [esi+2204]
  00357	0f 85 03 fd ff
	ff		 jne	 $LN39@SetTargetM
$LN12@SetTargetM:

; 755  : }

  0035d	8b 4d f4	 mov	 ecx, DWORD PTR __$EHRec$[ebp]
  00360	64 89 0d 00 00
	00 00		 mov	 DWORD PTR fs:0, ecx
  00367	59		 pop	 ecx
  00368	5f		 pop	 edi
  00369	5e		 pop	 esi
  0036a	5b		 pop	 ebx
  0036b	8b 4d f0	 mov	 ecx, DWORD PTR __$ArrayPad$[ebp]
  0036e	33 cd		 xor	 ecx, ebp
  00370	e8 00 00 00 00	 call	 @__security_check_cookie@4
  00375	c9		 leave
  00376	c3		 ret	 0
_TEXT	ENDS
;	COMDAT text$x
text$x	SEGMENT
__unwindfunclet$?SetTargetMapCollisionCancelBuff@ioAdhesiveMissileWeapon4@@QAEXXZ$0:
  00000	8d 8d 98 7f ff
	ff		 lea	 ecx, DWORD PTR _pInfo$532889[ebp]
  00006	e9 00 00 00 00	 jmp	 ??1TargetInfo@ioAdhesiveMissileWeapon4@@QAE@XZ
__unwindfunclet$?SetTargetMapCollisionCancelBuff@ioAdhesiveMissileWeapon4@@QAEXXZ$1:
  0000b	8d 8d b8 7f ff
	ff		 lea	 ecx, DWORD PTR _vBuffList$532893[ebp]
  00011	e9 00 00 00 00	 jmp	 ??1?$vector@VioHashString@@V?$allocator@VioHashString@@@std@@@std@@QAE@XZ ; std::vector<ioHashString,std::allocator<ioHashString> >::~vector<ioHashString,std::allocator<ioHashString> >
__unwindfunclet$?SetTargetMapCollisionCancelBuff@ioAdhesiveMissileWeapon4@@QAEXXZ$2:
  00016	8d 8d 88 7f ff
	ff		 lea	 ecx, DWORD PTR $T539131[ebp]
  0001c	ff 25 00 00 00
	00		 jmp	 DWORD PTR __imp_??1ioHashString@@QAE@XZ
__unwindfunclet$?SetTargetMapCollisionCancelBuff@ioAdhesiveMissileWeapon4@@QAEXXZ$3:
  00022	8d 8d d8 7f ff
	ff		 lea	 ecx, DWORD PTR _kPacket$532907[ebp]
  00028	e9 00 00 00 00	 jmp	 ??1SP2Packet@@UAE@XZ	; SP2Packet::~SP2Packet
__ehhandler$?SetTargetMapCollisionCancelBuff@ioAdhesiveMissileWeapon4@@QAEXXZ:
  0002d	8b 54 24 08	 mov	 edx, DWORD PTR [esp+8]
  00031	8d 42 0c	 lea	 eax, DWORD PTR [edx+12]
  00034	8b 8a 84 7f ff
	ff		 mov	 ecx, DWORD PTR [edx-32892]
  0003a	33 c8		 xor	 ecx, eax
  0003c	e8 00 00 00 00	 call	 @__security_check_cookie@4
  00041	8b 4a fc	 mov	 ecx, DWORD PTR [edx-4]
  00044	33 c8		 xor	 ecx, eax
  00046	e8 00 00 00 00	 call	 @__security_check_cookie@4
  0004b	b8 00 00 00 00	 mov	 eax, OFFSET __ehfuncinfo$?SetTargetMapCollisionCancelBuff@ioAdhesiveMissileWeapon4@@QAEXXZ
  00050	e9 00 00 00 00	 jmp	 ___CxxFrameHandler3
text$x	ENDS
?SetTargetMapCollisionCancelBuff@ioAdhesiveMissileWeapon4@@QAEXXZ ENDP ; ioAdhesiveMissileWeapon4::SetTargetMapCollisionCancelBuff
PUBLIC	??_C@_0BM@GMNIBMGH@PC?5?9WeaponAddBuff5?5?3?5?$CFd?0?5?$CFd?$AA@ ; `string'
PUBLIC	__$ArrayPad$
PUBLIC	?SetOwnerWoundedBuff@ioAdhesiveMissileWeapon4@@QAEXXZ ; ioAdhesiveMissileWeapon4::SetOwnerWoundedBuff
;	COMDAT ??_C@_0BM@GMNIBMGH@PC?5?9WeaponAddBuff5?5?3?5?$CFd?0?5?$CFd?$AA@
CONST	SEGMENT
??_C@_0BM@GMNIBMGH@PC?5?9WeaponAddBuff5?5?3?5?$CFd?0?5?$CFd?$AA@ DB 'PC -'
	DB	'WeaponAddBuff5 : %d, %d', 00H		; `string'
CONST	ENDS
;	COMDAT xdata$x
xdata$x	SEGMENT
__unwindtable$?SetOwnerWoundedBuff@ioAdhesiveMissileWeapon4@@QAEXXZ DD 0ffffffffH
	DD	FLAT:__unwindfunclet$?SetOwnerWoundedBuff@ioAdhesiveMissileWeapon4@@QAEXXZ$0
	DD	00H
	DD	FLAT:__unwindfunclet$?SetOwnerWoundedBuff@ioAdhesiveMissileWeapon4@@QAEXXZ$1
	DD	01H
	DD	FLAT:__unwindfunclet$?SetOwnerWoundedBuff@ioAdhesiveMissileWeapon4@@QAEXXZ$2
	DD	01H
	DD	FLAT:__unwindfunclet$?SetOwnerWoundedBuff@ioAdhesiveMissileWeapon4@@QAEXXZ$3
__ehfuncinfo$?SetOwnerWoundedBuff@ioAdhesiveMissileWeapon4@@QAEXXZ DD 019930522H
	DD	04H
	DD	FLAT:__unwindtable$?SetOwnerWoundedBuff@ioAdhesiveMissileWeapon4@@QAEXXZ
	DD	2 DUP(00H)
	DD	2 DUP(00H)
	DD	00H
	DD	01H
; Function compile flags: /Ogsp
xdata$x	ENDS
;	COMDAT ?SetOwnerWoundedBuff@ioAdhesiveMissileWeapon4@@QAEXXZ
_TEXT	SEGMENT
$T539332 = -32888					; size = 16
_pInfo$532925 = -32872					; size = 24
_pBuff$532936 = -32848					; size = 4
_pStage$ = -32844					; size = 4
_vBuffList$532929 = -32840				; size = 16
_iter$ = -32824						; size = 4
tv359 = -32820						; size = 4
tv628 = -32816						; size = 4
_bResult$532928 = -32809				; size = 1
_kPacket$532943 = -32808				; size = 32792
__$ArrayPad$ = -16					; size = 4
__$EHRec$ = -12						; size = 12
?SetOwnerWoundedBuff@ioAdhesiveMissileWeapon4@@QAEXXZ PROC ; ioAdhesiveMissileWeapon4::SetOwnerWoundedBuff, COMDAT
; _this$ = ecx

; 758  : {

  00000	55		 push	 ebp
  00001	8b ec		 mov	 ebp, esp
  00003	6a ff		 push	 -1
  00005	68 00 00 00 00	 push	 __ehhandler$?SetOwnerWoundedBuff@ioAdhesiveMissileWeapon4@@QAEXXZ
  0000a	64 a1 00 00 00
	00		 mov	 eax, DWORD PTR fs:0
  00010	50		 push	 eax
  00011	b8 6c 80 00 00	 mov	 eax, 32876		; 0000806cH
  00016	e8 00 00 00 00	 call	 __chkstk
  0001b	a1 00 00 00 00	 mov	 eax, DWORD PTR ___security_cookie
  00020	33 c5		 xor	 eax, ebp
  00022	89 45 f0	 mov	 DWORD PTR __$ArrayPad$[ebp], eax
  00025	53		 push	 ebx
  00026	56		 push	 esi
  00027	57		 push	 edi
  00028	50		 push	 eax
  00029	8d 45 f4	 lea	 eax, DWORD PTR __$EHRec$[ebp]
  0002c	64 a3 00 00 00
	00		 mov	 DWORD PTR fs:0, eax
  00032	8b f1		 mov	 esi, ecx

; 759  : 	ioBaseChar* pChar = GetOwner();

  00034	e8 00 00 00 00	 call	 ?GetOwner@ioWeapon@@QBEPAVioBaseChar@@XZ ; ioWeapon::GetOwner

; 760  : 	if( !pChar )

  00039	85 c0		 test	 eax, eax
  0003b	0f 84 1c 03 00
	00		 je	 $LN12@SetOwnerWo

; 761  : 		return;
; 762  : 
; 763  : 	ioPlayStage* pStage = pChar->GetCreator();

  00041	8b 80 44 03 00
	00		 mov	 eax, DWORD PTR [eax+836]
  00047	89 85 b4 7f ff
	ff		 mov	 DWORD PTR _pStage$[ebp], eax

; 764  : 	if( !pStage )

  0004d	85 c0		 test	 eax, eax
  0004f	0f 84 08 03 00
	00		 je	 $LN12@SetOwnerWo

; 765  : 		return;
; 766  : 
; 767  : 	TargetInfoList::iterator iter;
; 768  : 	for( iter = m_TargetInfoList.begin(); iter != m_TargetInfoList.end(); ++iter )

  00055	8b 9e 98 08 00
	00		 mov	 ebx, DWORD PTR [esi+2200]
  0005b	e9 eb 02 00 00	 jmp	 $LN109@SetOwnerWo
$LN39@SetOwnerWo:

; 769  : 	{
; 770  : 		TargetInfo pInfo = (*iter);

  00060	53		 push	 ebx
  00061	8d 8d 98 7f ff
	ff		 lea	 ecx, DWORD PTR _pInfo$532925[ebp]
  00067	ff 15 00 00 00
	00		 call	 DWORD PTR __imp_??0ioHashString@@QAE@ABV0@@Z
  0006d	f3 0f 10 43 10	 movss	 xmm0, DWORD PTR [ebx+16]
  00072	f3 0f 11 85 a8
	7f ff ff	 movss	 DWORD PTR _pInfo$532925[ebp+16], xmm0
  0007a	f3 0f 10 43 14	 movss	 xmm0, DWORD PTR [ebx+20]
  0007f	f3 0f 11 85 ac
	7f ff ff	 movss	 DWORD PTR _pInfo$532925[ebp+20], xmm0

; 771  : 		ioBaseChar* pTarget = pStage->GetBaseChar( pInfo.m_szTargetName );

  00087	8b 8d b4 7f ff
	ff		 mov	 ecx, DWORD PTR _pStage$[ebp]
  0008d	83 65 fc 00	 and	 DWORD PTR __$EHRec$[ebp+8], 0
  00091	8d 85 98 7f ff
	ff		 lea	 eax, DWORD PTR _pInfo$532925[ebp]
  00097	50		 push	 eax
  00098	e8 00 00 00 00	 call	 ?GetBaseChar@ioPlayStage@@QAEPAVioBaseChar@@ABVioHashString@@@Z ; ioPlayStage::GetBaseChar
  0009d	8b f8		 mov	 edi, eax

; 772  : 		if( pTarget && pTarget->IsNeedProcess() )

  0009f	85 ff		 test	 edi, edi
  000a1	0f 84 91 02 00
	00		 je	 $LN92@SetOwnerWo
  000a7	8b 07		 mov	 eax, DWORD PTR [edi]
  000a9	8b cf		 mov	 ecx, edi
  000ab	ff 90 00 01 00
	00		 call	 DWORD PTR [eax+256]
  000b1	84 c0		 test	 al, al
  000b3	0f 84 7f 02 00
	00		 je	 $LN92@SetOwnerWo

; 773  : 		{
; 774  : 			bool bResult = false;
; 775  : 			ioHashStringVec vBuffList;

  000b9	33 c9		 xor	 ecx, ecx
  000bb	c6 85 d7 7f ff
	ff 00		 mov	 BYTE PTR _bResult$532928[ebp], 0
  000c2	89 8d b8 7f ff
	ff		 mov	 DWORD PTR _vBuffList$532929[ebp], ecx
  000c8	89 8d bc 7f ff
	ff		 mov	 DWORD PTR _vBuffList$532929[ebp+4], ecx
  000ce	89 8d c0 7f ff
	ff		 mov	 DWORD PTR _vBuffList$532929[ebp+8], ecx

; 776  : 
; 777  : 			if( pTarget->GetState() == CS_SKIP_STUN )

  000d4	80 bf 10 03 00
	00 48		 cmp	 BYTE PTR [edi+784], 72	; 00000048H
  000db	c6 45 fc 01	 mov	 BYTE PTR __$EHRec$[ebp+8], 1
  000df	0f 85 44 02 00
	00		 jne	 $LN5@SetOwnerWo

; 778  : 			{
; 779  : 				int iBuffCnt = m_szOwnerWoundedBuff.size();

  000e5	8b 86 30 09 00
	00		 mov	 eax, DWORD PTR [esi+2352]
  000eb	2b 86 2c 09 00
	00		 sub	 eax, DWORD PTR [esi+2348]
  000f1	c1 f8 04	 sar	 eax, 4

; 780  : 				for( int i = 0; i < iBuffCnt; i++ )

  000f4	3b c1		 cmp	 eax, ecx
  000f6	0f 8e 2d 02 00
	00		 jle	 $LN5@SetOwnerWo

; 778  : 			{
; 779  : 				int iBuffCnt = m_szOwnerWoundedBuff.size();

  000fc	89 8d d0 7f ff
	ff		 mov	 DWORD PTR tv628[ebp], ecx
  00102	89 85 cc 7f ff
	ff		 mov	 DWORD PTR tv359[ebp], eax
$LL9@SetOwnerWo:

; 781  : 				{					
; 782  : 					ioBuff *pBuff = pTarget->AddNewBuff( m_szOwnerWoundedBuff[i], 
; 783  : 						GetOwner()->GetCharName(),
; 784  : 						"",
; 785  : 						NULL );

  00108	68 00 00 00 00	 push	 OFFSET ??_C@_00CNPNBAHC@?$AA@
  0010d	8d 8d 88 7f ff
	ff		 lea	 ecx, DWORD PTR $T539332[ebp]
  00113	ff 15 00 00 00
	00		 call	 DWORD PTR __imp_??0ioHashString@@QAE@PBD@Z
  00119	8b ce		 mov	 ecx, esi
  0011b	c6 45 fc 02	 mov	 BYTE PTR __$EHRec$[ebp+8], 2
  0011f	e8 00 00 00 00	 call	 ?GetOwner@ioWeapon@@QBEPAVioBaseChar@@XZ ; ioWeapon::GetOwner
  00124	8b 8e 2c 09 00
	00		 mov	 ecx, DWORD PTR [esi+2348]
  0012a	03 8d d0 7f ff
	ff		 add	 ecx, DWORD PTR tv628[ebp]
  00130	6a 00		 push	 0
  00132	6a 00		 push	 0
  00134	8d 95 88 7f ff
	ff		 lea	 edx, DWORD PTR $T539332[ebp]
  0013a	52		 push	 edx
  0013b	05 d4 02 00 00	 add	 eax, 724		; 000002d4H
  00140	50		 push	 eax
  00141	51		 push	 ecx
  00142	8b cf		 mov	 ecx, edi
  00144	e8 00 00 00 00	 call	 ?AddNewBuff@ioBaseChar@@QAEPAVioBuff@@ABVioHashString@@00PAVioSkill@@_N@Z ; ioBaseChar::AddNewBuff
  00149	8d 8d 88 7f ff
	ff		 lea	 ecx, DWORD PTR $T539332[ebp]
  0014f	89 85 b0 7f ff
	ff		 mov	 DWORD PTR _pBuff$532936[ebp], eax
  00155	c6 45 fc 01	 mov	 BYTE PTR __$EHRec$[ebp+8], 1
  00159	ff 15 00 00 00
	00		 call	 DWORD PTR __imp_??1ioHashString@@QAE@XZ

; 786  : 					if( pBuff )

  0015f	83 bd b0 7f ff
	ff 00		 cmp	 DWORD PTR _pBuff$532936[ebp], 0
  00166	74 1f		 je	 SHORT $LN8@SetOwnerWo

; 780  : 				for( int i = 0; i < iBuffCnt; i++ )

  00168	8b 86 2c 09 00
	00		 mov	 eax, DWORD PTR [esi+2348]
  0016e	03 85 d0 7f ff
	ff		 add	 eax, DWORD PTR tv628[ebp]

; 787  : 					{
; 788  : 						bResult = true;
; 789  : 						vBuffList.push_back( m_szOwnerWoundedBuff[i] );

  00174	8d 8d b8 7f ff
	ff		 lea	 ecx, DWORD PTR _vBuffList$532929[ebp]
  0017a	50		 push	 eax
  0017b	c6 85 d7 7f ff
	ff 01		 mov	 BYTE PTR _bResult$532928[ebp], 1
  00182	e8 00 00 00 00	 call	 ?push_back@?$vector@VioHashString@@V?$allocator@VioHashString@@@std@@@std@@QAEXABVioHashString@@@Z ; std::vector<ioHashString,std::allocator<ioHashString> >::push_back
$LN8@SetOwnerWo:

; 780  : 				for( int i = 0; i < iBuffCnt; i++ )

  00187	83 85 d0 7f ff
	ff 10		 add	 DWORD PTR tv628[ebp], 16 ; 00000010H
  0018e	ff 8d cc 7f ff
	ff		 dec	 DWORD PTR tv359[ebp]
  00194	0f 85 6e ff ff
	ff		 jne	 $LL9@SetOwnerWo

; 790  : 					}
; 791  : 				}
; 792  : 			}
; 793  : 
; 794  : 			if( bResult && !vBuffList.empty() && pTarget->IsNeedSendNetwork() )

  0019a	80 bd d7 7f ff
	ff 00		 cmp	 BYTE PTR _bResult$532928[ebp], 0
  001a1	0f 84 82 01 00
	00		 je	 $LN5@SetOwnerWo
  001a7	8b 85 b8 7f ff
	ff		 mov	 eax, DWORD PTR _vBuffList$532929[ebp]
  001ad	3b 85 bc 7f ff
	ff		 cmp	 eax, DWORD PTR _vBuffList$532929[ebp+4]
  001b3	0f 84 70 01 00
	00		 je	 $LN5@SetOwnerWo
  001b9	8b 07		 mov	 eax, DWORD PTR [edi]
  001bb	8b cf		 mov	 ecx, edi
  001bd	ff 90 04 01 00
	00		 call	 DWORD PTR [eax+260]
  001c3	84 c0		 test	 al, al
  001c5	0f 84 5e 01 00
	00		 je	 $LN5@SetOwnerWo

; 795  : 			{
; 796  : 				int iBuffCnt = vBuffList.size();

  001cb	8b 9d bc 7f ff
	ff		 mov	 ebx, DWORD PTR _vBuffList$532929[ebp+4]
  001d1	2b 9d b8 7f ff
	ff		 sub	 ebx, DWORD PTR _vBuffList$532929[ebp]

; 797  : 
; 798  : 				if( Help::CheckEnableTimeGapUser() )

  001d7	6a 00		 push	 0
  001d9	c1 fb 04	 sar	 ebx, 4
  001dc	e8 00 00 00 00	 call	 ?CheckEnableTimeGapUser@Help@@YA_NH@Z ; Help::CheckEnableTimeGapUser
  001e1	59		 pop	 ecx
  001e2	84 c0		 test	 al, al
  001e4	74 2d		 je	 SHORT $LN4@SetOwnerWo

; 799  : 				{
; 800  : 					LOG.PrintTimeAndLog( 0, "PC -WeaponAddBuff5 : %d, %d", GetAttributeIndex(), FRAMEGETTIME() );

  001e6	ff 15 00 00 00
	00		 call	 DWORD PTR __imp_?GetSingleton@ioFrameTimer@@SAAAV1@XZ
  001ec	8b c8		 mov	 ecx, eax
  001ee	ff 15 00 00 00
	00		 call	 DWORD PTR __imp_?GetLoopSec@ioFrameTimer@@QBEKXZ
  001f4	50		 push	 eax
  001f5	8b ce		 mov	 ecx, esi
  001f7	e8 00 00 00 00	 call	 ?GetAttributeIndex@ioWeapon@@QBEHXZ ; ioWeapon::GetAttributeIndex
  001fc	50		 push	 eax
  001fd	68 00 00 00 00	 push	 OFFSET ??_C@_0BM@GMNIBMGH@PC?5?9WeaponAddBuff5?5?3?5?$CFd?0?5?$CFd?$AA@
  00202	6a 00		 push	 0
  00204	ff 35 00 00 00
	00		 push	 DWORD PTR __imp_?LOG@@3VCLog@@A
  0020a	ff 15 00 00 00
	00		 call	 DWORD PTR __imp_?PrintTimeAndLog@CLog@@QAAXHPADZZ
  00210	83 c4 14	 add	 esp, 20			; 00000014H
$LN4@SetOwnerWo:

; 801  : 				}
; 802  : 				SP2Packet kPacket( CUPK_ADD_NEW_BUFF );

  00213	68 31 41 00 00	 push	 16689			; 00004131H
  00218	8d 8d d8 7f ff
	ff		 lea	 ecx, DWORD PTR _kPacket$532943[ebp]
  0021e	e8 00 00 00 00	 call	 ??0SP2Packet@@QAE@K@Z	; SP2Packet::SP2Packet

; 803  : 				kPacket << pTarget->GetCharName();

  00223	8d 87 d4 02 00
	00		 lea	 eax, DWORD PTR [edi+724]
  00229	50		 push	 eax
  0022a	8d 8d d8 7f ff
	ff		 lea	 ecx, DWORD PTR _kPacket$532943[ebp]
  00230	c6 45 fc 03	 mov	 BYTE PTR __$EHRec$[ebp+8], 3
  00234	e8 00 00 00 00	 call	 ??6SP2Packet@@QAEAAV0@ABVioHashString@@@Z ; SP2Packet::operator<<

; 804  : 				kPacket << GetOwner()->GetCharName();

  00239	8b ce		 mov	 ecx, esi
  0023b	e8 00 00 00 00	 call	 ?GetOwner@ioWeapon@@QBEPAVioBaseChar@@XZ ; ioWeapon::GetOwner
  00240	05 d4 02 00 00	 add	 eax, 724		; 000002d4H
  00245	50		 push	 eax
  00246	8d 8d d8 7f ff
	ff		 lea	 ecx, DWORD PTR _kPacket$532943[ebp]
  0024c	e8 00 00 00 00	 call	 ??6SP2Packet@@QAEAAV0@ABVioHashString@@@Z ; SP2Packet::operator<<

; 805  : 				kPacket << "";

  00251	68 00 00 00 00	 push	 OFFSET ??_C@_00CNPNBAHC@?$AA@
  00256	8d 8d d8 7f ff
	ff		 lea	 ecx, DWORD PTR _kPacket$532943[ebp]
  0025c	e8 00 00 00 00	 call	 ??6SP2Packet@@QAEAAV0@PBD@Z ; SP2Packet::operator<<

; 806  : 				kPacket << pTarget->GetRandomSeed();

  00261	ff b7 74 16 00
	00		 push	 DWORD PTR [edi+5748]
  00267	8d 8d d8 7f ff
	ff		 lea	 ecx, DWORD PTR _kPacket$532943[ebp]
  0026d	e8 00 00 00 00	 call	 ??6SP2Packet@@QAEAAV0@K@Z ; SP2Packet::operator<<

; 807  : 				kPacket << false;

  00272	33 ff		 xor	 edi, edi
  00274	57		 push	 edi
  00275	8d 8d d8 7f ff
	ff		 lea	 ecx, DWORD PTR _kPacket$532943[ebp]
  0027b	e8 00 00 00 00	 call	 ??6SP2Packet@@QAEAAV0@_N@Z ; SP2Packet::operator<<

; 808  : 				kPacket << 0.0f;

  00280	0f 57 c0	 xorps	 xmm0, xmm0
  00283	51		 push	 ecx
  00284	8d 8d d8 7f ff
	ff		 lea	 ecx, DWORD PTR _kPacket$532943[ebp]
  0028a	f3 0f 11 04 24	 movss	 DWORD PTR [esp], xmm0
  0028f	e8 00 00 00 00	 call	 ??6SP2Packet@@QAEAAV0@M@Z ; SP2Packet::operator<<

; 809  : 				kPacket << 400.0f;

  00294	f3 0f 10 05 00
	00 00 00	 movss	 xmm0, DWORD PTR __real@43c80000
  0029c	51		 push	 ecx
  0029d	8d 8d d8 7f ff
	ff		 lea	 ecx, DWORD PTR _kPacket$532943[ebp]
  002a3	f3 0f 11 04 24	 movss	 DWORD PTR [esp], xmm0
  002a8	e8 00 00 00 00	 call	 ??6SP2Packet@@QAEAAV0@M@Z ; SP2Packet::operator<<

; 810  : 				kPacket << 0.0f;

  002ad	0f 57 c0	 xorps	 xmm0, xmm0
  002b0	51		 push	 ecx
  002b1	8d 8d d8 7f ff
	ff		 lea	 ecx, DWORD PTR _kPacket$532943[ebp]
  002b7	f3 0f 11 04 24	 movss	 DWORD PTR [esp], xmm0
  002bc	e8 00 00 00 00	 call	 ??6SP2Packet@@QAEAAV0@M@Z ; SP2Packet::operator<<

; 811  : 				kPacket << COWT_NONE;				// Check CloseOrderBuff(12.07.13 )

  002c1	57		 push	 edi
  002c2	8d 8d d8 7f ff
	ff		 lea	 ecx, DWORD PTR _kPacket$532943[ebp]
  002c8	e8 00 00 00 00	 call	 ??6SP2Packet@@QAEAAV0@H@Z ; SP2Packet::operator<<

; 812  : 				kPacket << iBuffCnt;

  002cd	53		 push	 ebx
  002ce	8d 8d d8 7f ff
	ff		 lea	 ecx, DWORD PTR _kPacket$532943[ebp]
  002d4	e8 00 00 00 00	 call	 ??6SP2Packet@@QAEAAV0@H@Z ; SP2Packet::operator<<

; 813  : 
; 814  : 				for(int i=0; i < iBuffCnt; i++ )

  002d9	3b df		 cmp	 ebx, edi
  002db	7e 1a		 jle	 SHORT $LN1@SetOwnerWo
$LL3@SetOwnerWo:
  002dd	8b 85 b8 7f ff
	ff		 mov	 eax, DWORD PTR _vBuffList$532929[ebp]
  002e3	03 c7		 add	 eax, edi

; 815  : 				{
; 816  : 					kPacket << vBuffList[i];

  002e5	50		 push	 eax
  002e6	8d 8d d8 7f ff
	ff		 lea	 ecx, DWORD PTR _kPacket$532943[ebp]
  002ec	e8 00 00 00 00	 call	 ??6SP2Packet@@QAEAAV0@ABVioHashString@@@Z ; SP2Packet::operator<<
  002f1	83 c7 10	 add	 edi, 16			; 00000010H
  002f4	4b		 dec	 ebx
  002f5	75 e6		 jne	 SHORT $LL3@SetOwnerWo
$LN1@SetOwnerWo:

; 817  : 				}
; 818  : 
; 819  : 				kPacket << false;

  002f7	6a 00		 push	 0
  002f9	8d 8d d8 7f ff
	ff		 lea	 ecx, DWORD PTR _kPacket$532943[ebp]
  002ff	e8 00 00 00 00	 call	 ??6SP2Packet@@QAEAAV0@_N@Z ; SP2Packet::operator<<

; 820  : 
; 821  : 				P2PNetwork::SendToAllPlayingUser( kPacket );

  00304	8d 85 d8 7f ff
	ff		 lea	 eax, DWORD PTR _kPacket$532943[ebp]
  0030a	6a 00		 push	 0
  0030c	50		 push	 eax
  0030d	e8 00 00 00 00	 call	 ?SendToAllPlayingUser@P2PNetwork@@YAXAAVSP2Packet@@PAVioBaseChar@@@Z ; P2PNetwork::SendToAllPlayingUser
  00312	59		 pop	 ecx
  00313	59		 pop	 ecx

; 822  : 			}

  00314	8d 8d d8 7f ff
	ff		 lea	 ecx, DWORD PTR _kPacket$532943[ebp]
  0031a	c6 45 fc 01	 mov	 BYTE PTR __$EHRec$[ebp+8], 1
  0031e	e8 00 00 00 00	 call	 ??1SP2Packet@@UAE@XZ	; SP2Packet::~SP2Packet
  00323	8b 9d c8 7f ff
	ff		 mov	 ebx, DWORD PTR _iter$[ebp]
$LN5@SetOwnerWo:

; 823  : 		}

  00329	8d 8d b8 7f ff
	ff		 lea	 ecx, DWORD PTR _vBuffList$532929[ebp]
  0032f	c6 45 fc 00	 mov	 BYTE PTR __$EHRec$[ebp+8], 0
  00333	e8 00 00 00 00	 call	 ?_Tidy@?$vector@VioHashString@@V?$allocator@VioHashString@@@std@@@std@@IAEXXZ ; std::vector<ioHashString,std::allocator<ioHashString> >::_Tidy
$LN92@SetOwnerWo:

; 824  : 	}

  00338	83 4d fc ff	 or	 DWORD PTR __$EHRec$[ebp+8], -1
  0033c	8d 8d 98 7f ff
	ff		 lea	 ecx, DWORD PTR _pInfo$532925[ebp]
  00342	ff 15 00 00 00
	00		 call	 DWORD PTR __imp_??1ioHashString@@QAE@XZ
  00348	83 c3 18	 add	 ebx, 24			; 00000018H
$LN109@SetOwnerWo:

; 765  : 		return;
; 766  : 
; 767  : 	TargetInfoList::iterator iter;
; 768  : 	for( iter = m_TargetInfoList.begin(); iter != m_TargetInfoList.end(); ++iter )

  0034b	89 9d c8 7f ff
	ff		 mov	 DWORD PTR _iter$[ebp], ebx
  00351	3b 9e 9c 08 00
	00		 cmp	 ebx, DWORD PTR [esi+2204]
  00357	0f 85 03 fd ff
	ff		 jne	 $LN39@SetOwnerWo
$LN12@SetOwnerWo:

; 825  : }

  0035d	8b 4d f4	 mov	 ecx, DWORD PTR __$EHRec$[ebp]
  00360	64 89 0d 00 00
	00 00		 mov	 DWORD PTR fs:0, ecx
  00367	59		 pop	 ecx
  00368	5f		 pop	 edi
  00369	5e		 pop	 esi
  0036a	5b		 pop	 ebx
  0036b	8b 4d f0	 mov	 ecx, DWORD PTR __$ArrayPad$[ebp]
  0036e	33 cd		 xor	 ecx, ebp
  00370	e8 00 00 00 00	 call	 @__security_check_cookie@4
  00375	c9		 leave
  00376	c3		 ret	 0
_TEXT	ENDS
;	COMDAT text$x
text$x	SEGMENT
__unwindfunclet$?SetOwnerWoundedBuff@ioAdhesiveMissileWeapon4@@QAEXXZ$0:
  00000	8d 8d 98 7f ff
	ff		 lea	 ecx, DWORD PTR _pInfo$532925[ebp]
  00006	e9 00 00 00 00	 jmp	 ??1TargetInfo@ioAdhesiveMissileWeapon4@@QAE@XZ
__unwindfunclet$?SetOwnerWoundedBuff@ioAdhesiveMissileWeapon4@@QAEXXZ$1:
  0000b	8d 8d b8 7f ff
	ff		 lea	 ecx, DWORD PTR _vBuffList$532929[ebp]
  00011	e9 00 00 00 00	 jmp	 ??1?$vector@VioHashString@@V?$allocator@VioHashString@@@std@@@std@@QAE@XZ ; std::vector<ioHashString,std::allocator<ioHashString> >::~vector<ioHashString,std::allocator<ioHashString> >
__unwindfunclet$?SetOwnerWoundedBuff@ioAdhesiveMissileWeapon4@@QAEXXZ$2:
  00016	8d 8d 88 7f ff
	ff		 lea	 ecx, DWORD PTR $T539332[ebp]
  0001c	ff 25 00 00 00
	00		 jmp	 DWORD PTR __imp_??1ioHashString@@QAE@XZ
__unwindfunclet$?SetOwnerWoundedBuff@ioAdhesiveMissileWeapon4@@QAEXXZ$3:
  00022	8d 8d d8 7f ff
	ff		 lea	 ecx, DWORD PTR _kPacket$532943[ebp]
  00028	e9 00 00 00 00	 jmp	 ??1SP2Packet@@UAE@XZ	; SP2Packet::~SP2Packet
__ehhandler$?SetOwnerWoundedBuff@ioAdhesiveMissileWeapon4@@QAEXXZ:
  0002d	8b 54 24 08	 mov	 edx, DWORD PTR [esp+8]
  00031	8d 42 0c	 lea	 eax, DWORD PTR [edx+12]
  00034	8b 8a 84 7f ff
	ff		 mov	 ecx, DWORD PTR [edx-32892]
  0003a	33 c8		 xor	 ecx, eax
  0003c	e8 00 00 00 00	 call	 @__security_check_cookie@4
  00041	8b 4a fc	 mov	 ecx, DWORD PTR [edx-4]
  00044	33 c8		 xor	 ecx, eax
  00046	e8 00 00 00 00	 call	 @__security_check_cookie@4
  0004b	b8 00 00 00 00	 mov	 eax, OFFSET __ehfuncinfo$?SetOwnerWoundedBuff@ioAdhesiveMissileWeapon4@@QAEXXZ
  00050	e9 00 00 00 00	 jmp	 ___CxxFrameHandler3
text$x	ENDS
?SetOwnerWoundedBuff@ioAdhesiveMissileWeapon4@@QAEXXZ ENDP ; ioAdhesiveMissileWeapon4::SetOwnerWoundedBuff
PUBLIC	_pStage$GSCopy$
PUBLIC	__$ArrayPad$
PUBLIC	?Explosion@ioAdhesiveMissileWeapon4@@QAEXPAVioPlayStage@@@Z ; ioAdhesiveMissileWeapon4::Explosion
EXTRN	?CreateMapEffect@ioPlayStage@@QAEPAVioMapEffect@@ABVioHashString@@ABUD3DXVECTOR3@@1@Z:PROC ; ioPlayStage::CreateMapEffect
EXTRN	__imp_?GetCenter@ioOrientBox@@QBEABUD3DXVECTOR3@@XZ:PROC
; Function compile flags: /Ogsp
;	COMDAT ?Explosion@ioAdhesiveMissileWeapon4@@QAEXPAVioPlayStage@@@Z
_TEXT	SEGMENT
$T532873 = -56						; size = 12
_value$539553 = -44					; size = 4
_pStage$GSCopy$ = -40					; size = 4
tv240 = -36						; size = 4
_value$539548 = -36					; size = 4
_value$539558 = -32					; size = 4
_value$539542 = -32					; size = 4
_vPos$532868 = -28					; size = 12
_vScale$532869 = -16					; size = 12
__$ArrayPad$ = -4					; size = 4
_pStage$ = 8						; size = 4
?Explosion@ioAdhesiveMissileWeapon4@@QAEXPAVioPlayStage@@@Z PROC ; ioAdhesiveMissileWeapon4::Explosion, COMDAT
; _this$ = ecx

; 654  : {

  00000	55		 push	 ebp
  00001	8b ec		 mov	 ebp, esp
  00003	83 ec 38	 sub	 esp, 56			; 00000038H
  00006	a1 00 00 00 00	 mov	 eax, DWORD PTR ___security_cookie
  0000b	33 c5		 xor	 eax, ebp
  0000d	89 45 fc	 mov	 DWORD PTR __$ArrayPad$[ebp], eax
  00010	8b 45 08	 mov	 eax, DWORD PTR _pStage$[ebp]
  00013	53		 push	 ebx
  00014	8b d9		 mov	 ebx, ecx

; 655  : 	if( !IsLive() )

  00016	80 bb 82 05 00
	00 00		 cmp	 BYTE PTR [ebx+1410], 0

; 680  : 	
; 681  : 	ClearData();

  0001d	89 45 d8	 mov	 DWORD PTR _pStage$GSCopy$[ebp], eax
  00020	0f 84 0c 01 00
	00		 je	 $LN6@Explosion

; 656  : 	{		
; 657  : 		return;
; 658  : 	}
; 659  : 
; 660  : 	//       .
; 661  : 	if( !m_BoomEffect.IsEmpty() )

  00026	8d 8b f0 08 00
	00		 lea	 ecx, DWORD PTR [ebx+2288]
  0002c	ff 15 00 00 00
	00		 call	 DWORD PTR __imp_?IsEmpty@ioHashString@@QBE_NXZ
  00032	84 c0		 test	 al, al
  00034	0f 85 cc 00 00
	00		 jne	 $LN4@Explosion

; 662  : 	{
; 663  : 		D3DXVECTOR3 vPos = GetWorldAttackBox().GetCenter();

  0003a	56		 push	 esi
  0003b	57		 push	 edi
  0003c	6a 00		 push	 0
  0003e	8b cb		 mov	 ecx, ebx
  00040	e8 00 00 00 00	 call	 ?GetWorldAttackBox@ioWeapon@@QBEABVioOrientBox@@_N@Z ; ioWeapon::GetWorldAttackBox
  00045	8b c8		 mov	 ecx, eax
  00047	ff 15 00 00 00
	00		 call	 DWORD PTR __imp_?GetCenter@ioOrientBox@@QBEABUD3DXVECTOR3@@XZ
  0004d	8b f0		 mov	 esi, eax
  0004f	8d 7d e4	 lea	 edi, DWORD PTR _vPos$532868[ebp]
  00052	a5		 movsd
  00053	a5		 movsd
  00054	a5		 movsd

; 664  : 		D3DXVECTOR3 vScale = ioMath::UNIT_ALL;

  00055	8b 35 00 00 00
	00		 mov	 esi, DWORD PTR __imp_?UNIT_ALL@ioMath@@2UD3DXVECTOR3@@A
  0005b	8d 7d f0	 lea	 edi, DWORD PTR _vScale$532869[ebp]
  0005e	a5		 movsd
  0005f	a5		 movsd
  00060	a5		 movsd

; 665  : 
; 666  : 		if( m_fOwnerChargeExplosionRate > FLOAT1 )

  00061	b8 01 00 00 00	 mov	 eax, 1
  00066	8b f8		 mov	 edi, eax
  00068	8d 45 e0	 lea	 eax, DWORD PTR _value$539542[ebp]
  0006b	50		 push	 eax
  0006c	8d 8b e0 01 00
	00		 lea	 ecx, DWORD PTR [ebx+480]
  00072	e8 00 00 00 00	 call	 ?DecryptValueToPool@?$CEncrypt@M@@QAEXPAM@Z ; CEncrypt<float>::DecryptValueToPool
  00077	d9 45 e0	 fld	 DWORD PTR _value$539542[ebp]
  0007a	89 7d dc	 mov	 DWORD PTR tv240[ebp], edi
  0007d	db 45 dc	 fild	 DWORD PTR tv240[ebp]
  00080	85 ff		 test	 edi, edi
  00082	79 06		 jns	 SHORT $LN25@Explosion
  00084	d8 05 00 00 00
	00		 fadd	 DWORD PTR __real@4f800000
$LN25@Explosion:
  0008a	d9 c9		 fxch	 ST(1)
  0008c	df f1		 fcomip	 ST(1)
  0008e	dd d8		 fstp	 ST(0)
  00090	76 54		 jbe	 SHORT $LN3@Explosion

; 667  : 		{
; 668  : 			vScale = D3DXVECTOR3( m_fOwnerChargeExplosionRate, m_fOwnerChargeExplosionRate, m_fOwnerChargeExplosionRate );

  00092	8d 45 dc	 lea	 eax, DWORD PTR _value$539548[ebp]
  00095	50		 push	 eax
  00096	8d 8b e0 01 00
	00		 lea	 ecx, DWORD PTR [ebx+480]
  0009c	e8 00 00 00 00	 call	 ?DecryptValueToPool@?$CEncrypt@M@@QAEXPAM@Z ; CEncrypt<float>::DecryptValueToPool
  000a1	8d 45 d4	 lea	 eax, DWORD PTR _value$539553[ebp]
  000a4	50		 push	 eax
  000a5	8d 8b e0 01 00
	00		 lea	 ecx, DWORD PTR [ebx+480]
  000ab	e8 00 00 00 00	 call	 ?DecryptValueToPool@?$CEncrypt@M@@QAEXPAM@Z ; CEncrypt<float>::DecryptValueToPool
  000b0	8d 45 e0	 lea	 eax, DWORD PTR _value$539558[ebp]
  000b3	50		 push	 eax
  000b4	8d 8b e0 01 00
	00		 lea	 ecx, DWORD PTR [ebx+480]
  000ba	e8 00 00 00 00	 call	 ?DecryptValueToPool@?$CEncrypt@M@@QAEXPAM@Z ; CEncrypt<float>::DecryptValueToPool
  000bf	f3 0f 10 45 e0	 movss	 xmm0, DWORD PTR _value$539558[ebp]
  000c4	f3 0f 11 45 c8	 movss	 DWORD PTR $T532873[ebp], xmm0
  000c9	f3 0f 10 45 d4	 movss	 xmm0, DWORD PTR _value$539553[ebp]
  000ce	f3 0f 11 45 cc	 movss	 DWORD PTR $T532873[ebp+4], xmm0
  000d3	f3 0f 10 45 dc	 movss	 xmm0, DWORD PTR _value$539548[ebp]
  000d8	f3 0f 11 45 d0	 movss	 DWORD PTR $T532873[ebp+8], xmm0
  000dd	8d 75 c8	 lea	 esi, DWORD PTR $T532873[ebp]
  000e0	8d 7d f0	 lea	 edi, DWORD PTR _vScale$532869[ebp]
  000e3	a5		 movsd
  000e4	a5		 movsd
  000e5	a5		 movsd
$LN3@Explosion:

; 669  : 		}
; 670  : 
; 671  : 		pStage->CreateMapEffect( m_BoomEffect, vPos, vScale );

  000e6	8b 4d d8	 mov	 ecx, DWORD PTR _pStage$GSCopy$[ebp]
  000e9	8d 45 f0	 lea	 eax, DWORD PTR _vScale$532869[ebp]
  000ec	50		 push	 eax
  000ed	8d 45 e4	 lea	 eax, DWORD PTR _vPos$532868[ebp]
  000f0	50		 push	 eax
  000f1	8d 83 f0 08 00
	00		 lea	 eax, DWORD PTR [ebx+2288]
  000f7	50		 push	 eax
  000f8	e8 00 00 00 00	 call	 ?CreateMapEffect@ioPlayStage@@QAEPAVioMapEffect@@ABVioHashString@@ABUD3DXVECTOR3@@1@Z ; ioPlayStage::CreateMapEffect

; 672  : 
; 673  : 		ioWeapon::PlayExplosionSound();

  000fd	8b cb		 mov	 ecx, ebx
  000ff	e8 00 00 00 00	 call	 ?PlayExplosionSound@ioWeapon@@UAEXXZ ; ioWeapon::PlayExplosionSound
  00104	5f		 pop	 edi
  00105	5e		 pop	 esi
$LN4@Explosion:

; 674  : 	}
; 675  : 
; 676  : 	if( m_bMapCollision )

  00106	80 bb 19 09 00
	00 00		 cmp	 BYTE PTR [ebx+2329], 0

; 677  : 		SetTargetMapCollisionCancelBuff();

  0010d	8b cb		 mov	 ecx, ebx
  0010f	74 07		 je	 SHORT $LN2@Explosion
  00111	e8 00 00 00 00	 call	 ?SetTargetMapCollisionCancelBuff@ioAdhesiveMissileWeapon4@@QAEXXZ ; ioAdhesiveMissileWeapon4::SetTargetMapCollisionCancelBuff

; 678  : 	else

  00116	eb 05		 jmp	 SHORT $LN1@Explosion
$LN2@Explosion:

; 679  : 		SetOwnerWoundedBuff();

  00118	e8 00 00 00 00	 call	 ?SetOwnerWoundedBuff@ioAdhesiveMissileWeapon4@@QAEXXZ ; ioAdhesiveMissileWeapon4::SetOwnerWoundedBuff
$LN1@Explosion:

; 680  : 	
; 681  : 	ClearData();

  0011d	8b cb		 mov	 ecx, ebx
  0011f	e8 00 00 00 00	 call	 ?ClearData@ioAdhesiveMissileWeapon4@@IAEXXZ ; ioAdhesiveMissileWeapon4::ClearData

; 682  : 	SetForceClose();

  00124	8b cb		 mov	 ecx, ebx
  00126	e8 00 00 00 00	 call	 ?SetForceClose@ioAdhesiveMissileWeapon4@@IAEXXZ ; ioAdhesiveMissileWeapon4::SetForceClose

; 683  : 	SetWeaponDead();

  0012b	8b 03		 mov	 eax, DWORD PTR [ebx]
  0012d	8b cb		 mov	 ecx, ebx
  0012f	ff 50 4c	 call	 DWORD PTR [eax+76]
$LN6@Explosion:

; 684  : }

  00132	8b 4d fc	 mov	 ecx, DWORD PTR __$ArrayPad$[ebp]
  00135	33 cd		 xor	 ecx, ebp
  00137	5b		 pop	 ebx
  00138	e8 00 00 00 00	 call	 @__security_check_cookie@4
  0013d	c9		 leave
  0013e	c2 04 00	 ret	 4
?Explosion@ioAdhesiveMissileWeapon4@@QAEXPAVioPlayStage@@@Z ENDP ; ioAdhesiveMissileWeapon4::Explosion
_TEXT	ENDS
PUBLIC	__real@00000000
PUBLIC	_pShapeWorldMat$GSCopy$
PUBLIC	_pShape$GSCopy$
PUBLIC	_pStage$GSCopy$
PUBLIC	__$ArrayPad$
EXTRN	?GetWorldCollisionBox@ioGameEntity@@QBEABVioOrientBox@@XZ:PROC ; ioGameEntity::GetWorldCollisionBox
EXTRN	?GetMidPositionByRate@ioGameEntity@@QBE?AUD3DXVECTOR3@@M@Z:PROC ; ioGameEntity::GetMidPositionByRate
;	COMDAT __real@00000000
; File d:\lost saga for developer\youtube\tutorial\source\src\lsclient\ioweapon.h
CONST	SEGMENT
__real@00000000 DD 000000000r			; 0
CONST	ENDS
;	COMDAT xdata$x
xdata$x	SEGMENT
__unwindtable$?TestMapCollision@ioAdhesiveMissileWeapon4@@UAE_NPAVioOpcodeShape@@PAVioPlayStage@@PBUD3DXMATRIX@@@Z DD 0ffffffffH
	DD	FLAT:__unwindfunclet$?TestMapCollision@ioAdhesiveMissileWeapon4@@UAE_NPAVioOpcodeShape@@PAVioPlayStage@@PBUD3DXMATRIX@@@Z$0
	DD	0ffffffffH
	DD	FLAT:__unwindfunclet$?TestMapCollision@ioAdhesiveMissileWeapon4@@UAE_NPAVioOpcodeShape@@PAVioPlayStage@@PBUD3DXMATRIX@@@Z$1
__ehfuncinfo$?TestMapCollision@ioAdhesiveMissileWeapon4@@UAE_NPAVioOpcodeShape@@PAVioPlayStage@@PBUD3DXMATRIX@@@Z DD 019930522H
	DD	02H
	DD	FLAT:__unwindtable$?TestMapCollision@ioAdhesiveMissileWeapon4@@UAE_NPAVioOpcodeShape@@PAVioPlayStage@@PBUD3DXMATRIX@@@Z
	DD	2 DUP(00H)
	DD	2 DUP(00H)
	DD	00H
	DD	01H
; Function compile flags: /Ogsp
; File d:\lost saga for developer\youtube\tutorial\source\src\lsclient\ioadhesivemissileweapon4.cpp
xdata$x	ENDS
;	COMDAT ?TestMapCollision@ioAdhesiveMissileWeapon4@@UAE_NPAVioOpcodeShape@@PAVioPlayStage@@PBUD3DXMATRIX@@@Z
_TEXT	SEGMENT
_vOwnerDir$532456 = -65688				; size = 12
_pShape$GSCopy$ = -65676				; size = 4
_iSize$532442 = -65672					; size = 4
tv660 = -65668						; size = 4
$T539595 = -65668					; size = 4
_pShapeWorldMat$GSCopy$ = -65664			; size = 4
_pTarget$532447 = -65660				; size = 4
tv674 = -65656						; size = 4
tv670 = -65656						; size = 4
tv666 = -65656						; size = 4
tv725 = -65652						; size = 4
_pStage$GSCopy$ = -65648				; size = 4
_i$532443 = -65644					; size = 4
tv656 = -65640						; size = 4
tv652 = -65640						; size = 4
$T539599 = -65640					; size = 4
_kPacket$532440 = -65636				; size = 32792
_kPacket$532461 = -32844				; size = 32792
$T532453 = -52						; size = 12
$T532454 = -40						; size = 12
_vTargetPos$532452 = -28				; size = 12
__$ArrayPad$ = -16					; size = 4
__$EHRec$ = -12						; size = 12
_pShape$ = 8						; size = 4
_pStage$ = 12						; size = 4
_pShapeWorldMat$ = 16					; size = 4
?TestMapCollision@ioAdhesiveMissileWeapon4@@UAE_NPAVioOpcodeShape@@PAVioPlayStage@@PBUD3DXMATRIX@@@Z PROC ; ioAdhesiveMissileWeapon4::TestMapCollision, COMDAT
; _this$ = ecx

; 168  : {

  00000	55		 push	 ebp
  00001	8b ec		 mov	 ebp, esp
  00003	6a ff		 push	 -1
  00005	68 00 00 00 00	 push	 __ehhandler$?TestMapCollision@ioAdhesiveMissileWeapon4@@UAE_NPAVioOpcodeShape@@PAVioPlayStage@@PBUD3DXMATRIX@@@Z
  0000a	64 a1 00 00 00
	00		 mov	 eax, DWORD PTR fs:0
  00010	50		 push	 eax
  00011	b8 8c 00 01 00	 mov	 eax, 65676		; 0001008cH
  00016	e8 00 00 00 00	 call	 __chkstk
  0001b	a1 00 00 00 00	 mov	 eax, DWORD PTR ___security_cookie
  00020	33 c5		 xor	 eax, ebp
  00022	89 45 f0	 mov	 DWORD PTR __$ArrayPad$[ebp], eax
  00025	53		 push	 ebx
  00026	56		 push	 esi
  00027	57		 push	 edi
  00028	50		 push	 eax
  00029	8d 45 f4	 lea	 eax, DWORD PTR __$EHRec$[ebp]
  0002c	64 a3 00 00 00
	00		 mov	 DWORD PTR fs:0, eax

; 200  : 			for( int i=0; i<iSize; ++i )

  00032	8b 45 0c	 mov	 eax, DWORD PTR _pStage$[ebp]
  00035	8b 7d 08	 mov	 edi, DWORD PTR _pShape$[ebp]
  00038	8b d9		 mov	 ebx, ecx
  0003a	80 bb 6d 09 00
	00 00		 cmp	 BYTE PTR [ebx+2413], 0
  00041	89 85 90 ff fe
	ff		 mov	 DWORD PTR _pStage$GSCopy$[ebp], eax
  00047	8b 45 10	 mov	 eax, DWORD PTR _pShapeWorldMat$[ebp]

; 225  : 						{
; 226  : 							SP2Packet kPacket( CUPK_WEAPON_SYNC );

  0004a	89 bd 74 ff fe
	ff		 mov	 DWORD PTR _pShape$GSCopy$[ebp], edi
  00050	89 85 80 ff fe
	ff		 mov	 DWORD PTR _pShapeWorldMat$GSCopy$[ebp], eax
  00056	75 07		 jne	 SHORT $LN14@TestMapCol
$LN54@TestMapCol:

; 169  : 	//pShape        TRUE
; 170  : 	//     1   N   TestMapCollision()   
; 171  : 
; 172  : 	if( !m_bCollisionMap )
; 173  : 		return true;

  00058	b0 01		 mov	 al, 1
  0005a	e9 1a 03 00 00	 jmp	 $LN15@TestMapCol
$LN14@TestMapCol:

; 174  : 
; 175  : 	if( !m_bCollisionMapForSkill )

  0005f	80 bb 6e 09 00
	00 00		 cmp	 BYTE PTR [ebx+2414], 0

; 176  : 		return true;

  00066	74 f0		 je	 SHORT $LN54@TestMapCol

; 177  : 
; 178  : 	if( GetOwner()->IsNeedProcess() )

  00068	e8 00 00 00 00	 call	 ?GetOwner@ioWeapon@@QBEPAVioBaseChar@@XZ ; ioWeapon::GetOwner
  0006d	8b 10		 mov	 edx, DWORD PTR [eax]
  0006f	8b c8		 mov	 ecx, eax
  00071	ff 92 00 01 00
	00		 call	 DWORD PTR [edx+256]
  00077	84 c0		 test	 al, al
  00079	0f 84 f8 02 00
	00		 je	 $LN6@TestMapCol

; 179  : 	{
; 180  : 		if( pShape->TestIntersection( pShapeWorldMat, GetWorldAttackBox(true) ) )

  0007f	8b 37		 mov	 esi, DWORD PTR [edi]
  00081	6a 01		 push	 1
  00083	8b cb		 mov	 ecx, ebx
  00085	e8 00 00 00 00	 call	 ?GetWorldAttackBox@ioWeapon@@QBEABVioOrientBox@@_N@Z ; ioWeapon::GetWorldAttackBox
  0008a	50		 push	 eax
  0008b	ff b5 80 ff fe
	ff		 push	 DWORD PTR _pShapeWorldMat$GSCopy$[ebp]
  00091	8b cf		 mov	 ecx, edi
  00093	ff 56 24	 call	 DWORD PTR [esi+36]
  00096	84 c0		 test	 al, al
  00098	0f 84 a1 00 00
	00		 je	 $LN11@TestMapCol

; 181  : 		{
; 182  : 			m_bMapCollision = true;
; 183  : 			Explosion( pStage );

  0009e	ff b5 90 ff fe
	ff		 push	 DWORD PTR _pStage$GSCopy$[ebp]
  000a4	8b cb		 mov	 ecx, ebx
  000a6	c6 83 19 09 00
	00 01		 mov	 BYTE PTR [ebx+2329], 1
  000ad	e8 00 00 00 00	 call	 ?Explosion@ioAdhesiveMissileWeapon4@@QAEXPAVioPlayStage@@@Z ; ioAdhesiveMissileWeapon4::Explosion

; 184  : 
; 185  : 			if( GetOwner()->IsNeedSendNetwork() )

  000b2	8b cb		 mov	 ecx, ebx
  000b4	e8 00 00 00 00	 call	 ?GetOwner@ioWeapon@@QBEPAVioBaseChar@@XZ ; ioWeapon::GetOwner
  000b9	8b 10		 mov	 edx, DWORD PTR [eax]
  000bb	8b c8		 mov	 ecx, eax
  000bd	ff 92 04 01 00
	00		 call	 DWORD PTR [edx+260]
  000c3	84 c0		 test	 al, al
  000c5	74 91		 je	 SHORT $LN54@TestMapCol

; 186  : 			{
; 187  : 				SP2Packet kPacket( CUPK_WEAPON_SYNC );

  000c7	68 16 42 00 00	 push	 16918			; 00004216H
  000cc	8d 8d 9c ff fe
	ff		 lea	 ecx, DWORD PTR _kPacket$532440[ebp]
  000d2	e8 00 00 00 00	 call	 ??0SP2Packet@@QAE@K@Z	; SP2Packet::SP2Packet
  000d7	83 65 fc 00	 and	 DWORD PTR __$EHRec$[ebp+8], 0

; 188  : 				kPacket << GetOwnerName();

  000db	8d 43 10	 lea	 eax, DWORD PTR [ebx+16]
  000de	50		 push	 eax
  000df	8d 8d 9c ff fe
	ff		 lea	 ecx, DWORD PTR _kPacket$532440[ebp]
  000e5	e8 00 00 00 00	 call	 ??6SP2Packet@@QAEAAV0@ABVioHashString@@@Z ; SP2Packet::operator<<

; 189  : 				kPacket << m_dwWeaponIdx;

  000ea	ff b3 b8 04 00
	00		 push	 DWORD PTR [ebx+1208]
  000f0	8d 8d 9c ff fe
	ff		 lea	 ecx, DWORD PTR _kPacket$532440[ebp]
  000f6	e8 00 00 00 00	 call	 ??6SP2Packet@@QAEAAV0@K@Z ; SP2Packet::operator<<

; 190  : 				kPacket << STC_TEST_MAP_COLLISION;

  000fb	6a 01		 push	 1
  000fd	8d 8d 9c ff fe
	ff		 lea	 ecx, DWORD PTR _kPacket$532440[ebp]
  00103	e8 00 00 00 00	 call	 ??6SP2Packet@@QAEAAV0@H@Z ; SP2Packet::operator<<

; 191  : 				kPacket << m_bMapCollision;

  00108	0f b6 83 19 09
	00 00		 movzx	 eax, BYTE PTR [ebx+2329]
  0010f	50		 push	 eax
  00110	8d 8d 9c ff fe
	ff		 lea	 ecx, DWORD PTR _kPacket$532440[ebp]
  00116	e8 00 00 00 00	 call	 ??6SP2Packet@@QAEAAV0@_N@Z ; SP2Packet::operator<<

; 192  : 				P2PNetwork::SendToAllPlayingUser( kPacket );

  0011b	8d 85 9c ff fe
	ff		 lea	 eax, DWORD PTR _kPacket$532440[ebp]
  00121	6a 00		 push	 0
  00123	50		 push	 eax
  00124	e8 00 00 00 00	 call	 ?SendToAllPlayingUser@P2PNetwork@@YAXAAVSP2Packet@@PAVioBaseChar@@@Z ; P2PNetwork::SendToAllPlayingUser
  00129	59		 pop	 ecx
  0012a	59		 pop	 ecx

; 193  : 			}

  0012b	8d 8d 9c ff fe
	ff		 lea	 ecx, DWORD PTR _kPacket$532440[ebp]
$LN56@TestMapCol:
  00131	83 4d fc ff	 or	 DWORD PTR __$EHRec$[ebp+8], -1
  00135	e8 00 00 00 00	 call	 ??1SP2Packet@@UAE@XZ	; SP2Packet::~SP2Packet

; 194  : 			return true;

  0013a	e9 19 ff ff ff	 jmp	 $LN54@TestMapCol
$LN11@TestMapCol:

; 195  : 		}
; 196  : 
; 197  : 		if( m_State == WS_CHOP )

  0013f	83 bb 94 08 00
	00 02		 cmp	 DWORD PTR [ebx+2196], 2
  00146	0f 85 2b 02 00
	00		 jne	 $LN6@TestMapCol

; 198  : 		{
; 199  : 			int iSize = m_TargetInfoList.size();

  0014c	8b 83 9c 08 00
	00		 mov	 eax, DWORD PTR [ebx+2204]
  00152	2b 83 98 08 00
	00		 sub	 eax, DWORD PTR [ebx+2200]
  00158	6a 18		 push	 24			; 00000018H
  0015a	99		 cdq
  0015b	59		 pop	 ecx
  0015c	f7 f9		 idiv	 ecx

; 200  : 			for( int i=0; i<iSize; ++i )

  0015e	83 a5 94 ff fe
	ff 00		 and	 DWORD PTR _i$532443[ebp], 0
  00165	89 85 78 ff fe
	ff		 mov	 DWORD PTR _iSize$532442[ebp], eax
  0016b	85 c0		 test	 eax, eax
  0016d	0f 8e 04 02 00
	00		 jle	 $LN6@TestMapCol

; 198  : 		{
; 199  : 			int iSize = m_TargetInfoList.size();

  00173	83 a5 8c ff fe
	ff 00		 and	 DWORD PTR tv725[ebp], 0
$LN8@TestMapCol:

; 201  : 			{
; 202  : 				ioBaseChar *pTarget = pStage->GetBaseChar( m_TargetInfoList[i].m_szTargetName );

  0017a	8b 83 98 08 00
	00		 mov	 eax, DWORD PTR [ebx+2200]
  00180	03 85 8c ff fe
	ff		 add	 eax, DWORD PTR tv725[ebp]
  00186	8b 8d 90 ff fe
	ff		 mov	 ecx, DWORD PTR _pStage$GSCopy$[ebp]
  0018c	50		 push	 eax
  0018d	e8 00 00 00 00	 call	 ?GetBaseChar@ioPlayStage@@QAEPAVioBaseChar@@ABVioHashString@@@Z ; ioPlayStage::GetBaseChar
  00192	89 85 84 ff fe
	ff		 mov	 DWORD PTR _pTarget$532447[ebp], eax

; 203  : 				if( pTarget )

  00198	85 c0		 test	 eax, eax
  0019a	0f 84 b8 01 00
	00		 je	 $LN7@TestMapCol

; 204  : 				{
; 205  : 					bool bFront = false;
; 206  : 
; 207  : 					//  
; 208  : 					ioBaseChar *pOwner = GetOwner();

  001a0	8b cb		 mov	 ecx, ebx
  001a2	e8 00 00 00 00	 call	 ?GetOwner@ioWeapon@@QBEPAVioBaseChar@@XZ ; ioWeapon::GetOwner
  001a7	8b f8		 mov	 edi, eax

; 209  : 					if( !pOwner )

  001a9	85 ff		 test	 edi, edi
  001ab	0f 84 a7 01 00
	00		 je	 $LN7@TestMapCol

; 210  : 						continue;
; 211  : 
; 212  : 					D3DXVECTOR3 vTargetPos = pTarget->GetMidPositionByRate() - pOwner->GetMidPositionByRate();

  001b1	b8 05 00 00 00	 mov	 eax, 5
  001b6	8b c8		 mov	 ecx, eax
  001b8	b8 0a 00 00 00	 mov	 eax, 10			; 0000000aH
  001bd	8b d0		 mov	 edx, eax
  001bf	b8 05 00 00 00	 mov	 eax, 5
  001c4	89 85 7c ff fe
	ff		 mov	 DWORD PTR $T539595[ebp], eax
  001ca	b8 0a 00 00 00	 mov	 eax, 10			; 0000000aH
  001cf	89 8d 88 ff fe
	ff		 mov	 DWORD PTR tv674[ebp], ecx
  001d5	db 85 88 ff fe
	ff		 fild	 DWORD PTR tv674[ebp]
  001db	89 85 98 ff fe
	ff		 mov	 DWORD PTR $T539599[ebp], eax
  001e1	85 c9		 test	 ecx, ecx
  001e3	79 06		 jns	 SHORT $LN50@TestMapCol
  001e5	d8 05 00 00 00
	00		 fadd	 DWORD PTR __real@4f800000
$LN50@TestMapCol:
  001eb	89 95 88 ff fe
	ff		 mov	 DWORD PTR tv670[ebp], edx
  001f1	db 85 88 ff fe
	ff		 fild	 DWORD PTR tv670[ebp]
  001f7	85 d2		 test	 edx, edx
  001f9	79 06		 jns	 SHORT $LN51@TestMapCol
  001fb	d8 05 00 00 00
	00		 fadd	 DWORD PTR __real@4f800000
$LN51@TestMapCol:
  00201	de f9		 fdivp	 ST(1), ST(0)
  00203	51		 push	 ecx
  00204	8d 45 d8	 lea	 eax, DWORD PTR $T532454[ebp]
  00207	8b cf		 mov	 ecx, edi
  00209	d9 9d 88 ff fe
	ff		 fstp	 DWORD PTR tv666[ebp]
  0020f	d9 85 88 ff fe
	ff		 fld	 DWORD PTR tv666[ebp]
  00215	d9 1c 24	 fstp	 DWORD PTR [esp]
  00218	50		 push	 eax
  00219	e8 00 00 00 00	 call	 ?GetMidPositionByRate@ioGameEntity@@QBE?AUD3DXVECTOR3@@M@Z ; ioGameEntity::GetMidPositionByRate
  0021e	db 85 7c ff fe
	ff		 fild	 DWORD PTR $T539595[ebp]
  00224	8b f0		 mov	 esi, eax
  00226	8b 85 7c ff fe
	ff		 mov	 eax, DWORD PTR $T539595[ebp]
  0022c	85 c0		 test	 eax, eax
  0022e	79 06		 jns	 SHORT $LN52@TestMapCol
  00230	d8 05 00 00 00
	00		 fadd	 DWORD PTR __real@4f800000
$LN52@TestMapCol:
  00236	8b 85 98 ff fe
	ff		 mov	 eax, DWORD PTR $T539599[ebp]
  0023c	db 85 98 ff fe
	ff		 fild	 DWORD PTR $T539599[ebp]
  00242	85 c0		 test	 eax, eax
  00244	79 06		 jns	 SHORT $LN53@TestMapCol
  00246	d8 05 00 00 00
	00		 fadd	 DWORD PTR __real@4f800000
$LN53@TestMapCol:
  0024c	de f9		 fdivp	 ST(1), ST(0)
  0024e	51		 push	 ecx
  0024f	8b 8d 84 ff fe
	ff		 mov	 ecx, DWORD PTR _pTarget$532447[ebp]
  00255	8d 45 cc	 lea	 eax, DWORD PTR $T532453[ebp]
  00258	d9 9d 98 ff fe
	ff		 fstp	 DWORD PTR tv652[ebp]
  0025e	d9 85 98 ff fe
	ff		 fld	 DWORD PTR tv652[ebp]
  00264	d9 1c 24	 fstp	 DWORD PTR [esp]
  00267	50		 push	 eax
  00268	e8 00 00 00 00	 call	 ?GetMidPositionByRate@ioGameEntity@@QBE?AUD3DXVECTOR3@@M@Z ; ioGameEntity::GetMidPositionByRate
  0026d	f3 0f 10 0e	 movss	 xmm1, DWORD PTR [esi]
  00271	f3 0f 10 00	 movss	 xmm0, DWORD PTR [eax]
  00275	f3 0f 10 56 04	 movss	 xmm2, DWORD PTR [esi+4]
  0027a	f3 0f 10 5e 08	 movss	 xmm3, DWORD PTR [esi+8]
  0027f	0f 5a c9	 cvtps2pd xmm1, xmm1
  00282	0f 5a c0	 cvtps2pd xmm0, xmm0
  00285	f2 0f 5c c1	 subsd	 xmm0, xmm1
  00289	f3 0f 10 48 04	 movss	 xmm1, DWORD PTR [eax+4]
  0028e	0f 5a d2	 cvtps2pd xmm2, xmm2
  00291	0f 5a c9	 cvtps2pd xmm1, xmm1
  00294	f2 0f 5c ca	 subsd	 xmm1, xmm2
  00298	f3 0f 10 50 08	 movss	 xmm2, DWORD PTR [eax+8]
  0029d	0f 5a d2	 cvtps2pd xmm2, xmm2

; 213  : 					D3DXVECTOR3 vOwnerDir = pOwner->GetMoveDir();

  002a0	8d b7 b4 06 00
	00		 lea	 esi, DWORD PTR [edi+1716]
  002a6	0f 5a db	 cvtps2pd xmm3, xmm3
  002a9	f2 0f 5c d3	 subsd	 xmm2, xmm3
  002ad	66 0f 5a c0	 cvtpd2ps xmm0, xmm0
  002b1	f3 0f 11 45 e4	 movss	 DWORD PTR _vTargetPos$532452[ebp], xmm0
  002b6	66 0f 5a c9	 cvtpd2ps xmm1, xmm1
  002ba	f3 0f 11 4d e8	 movss	 DWORD PTR _vTargetPos$532452[ebp+4], xmm1
  002bf	66 0f 5a d2	 cvtpd2ps xmm2, xmm2
  002c3	f3 0f 11 55 ec	 movss	 DWORD PTR _vTargetPos$532452[ebp+8], xmm2
  002c8	8d bd 68 ff fe
	ff		 lea	 edi, DWORD PTR _vOwnerDir$532456[ebp]
  002ce	a5		 movsd

; 214  : 					D3DXVec3Normalize( &vTargetPos, &vTargetPos );

  002cf	8d 45 e4	 lea	 eax, DWORD PTR _vTargetPos$532452[ebp]
  002d2	a5		 movsd
  002d3	50		 push	 eax
  002d4	50		 push	 eax
  002d5	a5		 movsd
  002d6	e8 00 00 00 00	 call	 _D3DXVec3Normalize@8

; 215  : 					float fDot = D3DXVec3Dot( &vOwnerDir, &vTargetPos );

  002db	f3 0f 10 85 6c
	ff fe ff	 movss	 xmm0, DWORD PTR _vOwnerDir$532456[ebp+4]
  002e3	f3 0f 10 4d e8	 movss	 xmm1, DWORD PTR _vTargetPos$532452[ebp+4]
  002e8	f3 0f 10 55 e4	 movss	 xmm2, DWORD PTR _vTargetPos$532452[ebp]
  002ed	0f 5a c9	 cvtps2pd xmm1, xmm1
  002f0	0f 5a c0	 cvtps2pd xmm0, xmm0
  002f3	f2 0f 59 c1	 mulsd	 xmm0, xmm1
  002f7	f3 0f 10 8d 68
	ff fe ff	 movss	 xmm1, DWORD PTR _vOwnerDir$532456[ebp]
  002ff	0f 5a c9	 cvtps2pd xmm1, xmm1
  00302	0f 5a d2	 cvtps2pd xmm2, xmm2
  00305	f2 0f 59 ca	 mulsd	 xmm1, xmm2
  00309	f3 0f 10 55 ec	 movss	 xmm2, DWORD PTR _vTargetPos$532452[ebp+8]
  0030e	f2 0f 58 c1	 addsd	 xmm0, xmm1
  00312	f3 0f 10 8d 70
	ff fe ff	 movss	 xmm1, DWORD PTR _vOwnerDir$532456[ebp+8]
  0031a	0f 5a c9	 cvtps2pd xmm1, xmm1
  0031d	0f 5a d2	 cvtps2pd xmm2, xmm2
  00320	f2 0f 59 ca	 mulsd	 xmm1, xmm2
  00324	f2 0f 58 c1	 addsd	 xmm0, xmm1
  00328	66 0f 5a c0	 cvtpd2ps xmm0, xmm0

; 216  : 					if( fDot > 0.0f )

  0032c	0f 2f 05 00 00
	00 00		 comiss	 xmm0, DWORD PTR __real@00000000
  00333	76 23		 jbe	 SHORT $LN7@TestMapCol

; 217  : 						bFront = true;
; 218  : 
; 219  : 					if( bFront && pShape->TestIntersection( pShapeWorldMat, pTarget->GetWorldCollisionBox() ) )

  00335	8b bd 74 ff fe
	ff		 mov	 edi, DWORD PTR _pShape$GSCopy$[ebp]
  0033b	8b 8d 84 ff fe
	ff		 mov	 ecx, DWORD PTR _pTarget$532447[ebp]
  00341	8b 37		 mov	 esi, DWORD PTR [edi]
  00343	e8 00 00 00 00	 call	 ?GetWorldCollisionBox@ioGameEntity@@QBEABVioOrientBox@@XZ ; ioGameEntity::GetWorldCollisionBox
  00348	50		 push	 eax
  00349	ff b5 80 ff fe
	ff		 push	 DWORD PTR _pShapeWorldMat$GSCopy$[ebp]
  0034f	8b cf		 mov	 ecx, edi
  00351	ff 56 24	 call	 DWORD PTR [esi+36]
  00354	84 c0		 test	 al, al
  00356	75 3d		 jne	 SHORT $LN44@TestMapCol
$LN7@TestMapCol:

; 200  : 			for( int i=0; i<iSize; ++i )

  00358	ff 85 94 ff fe
	ff		 inc	 DWORD PTR _i$532443[ebp]
  0035e	8b 85 94 ff fe
	ff		 mov	 eax, DWORD PTR _i$532443[ebp]
  00364	83 85 8c ff fe
	ff 18		 add	 DWORD PTR tv725[ebp], 24 ; 00000018H
  0036b	3b 85 78 ff fe
	ff		 cmp	 eax, DWORD PTR _iSize$532442[ebp]
  00371	0f 8c 03 fe ff
	ff		 jl	 $LN8@TestMapCol
$LN6@TestMapCol:

; 234  : 					}
; 235  : 				}
; 236  : 			}
; 237  : 		}
; 238  : 	}
; 239  : 
; 240  : 	return false;

  00377	32 c0		 xor	 al, al
$LN15@TestMapCol:

; 241  : }

  00379	8b 4d f4	 mov	 ecx, DWORD PTR __$EHRec$[ebp]
  0037c	64 89 0d 00 00
	00 00		 mov	 DWORD PTR fs:0, ecx
  00383	59		 pop	 ecx
  00384	5f		 pop	 edi
  00385	5e		 pop	 esi
  00386	5b		 pop	 ebx
  00387	8b 4d f0	 mov	 ecx, DWORD PTR __$ArrayPad$[ebp]
  0038a	33 cd		 xor	 ecx, ebp
  0038c	e8 00 00 00 00	 call	 @__security_check_cookie@4
  00391	c9		 leave
  00392	c2 0c 00	 ret	 12			; 0000000cH
$LN44@TestMapCol:

; 220  : 					{
; 221  : 						m_bMapCollision = true;
; 222  : 						Explosion( pStage );

  00395	ff b5 90 ff fe
	ff		 push	 DWORD PTR _pStage$GSCopy$[ebp]
  0039b	8b cb		 mov	 ecx, ebx
  0039d	c6 83 19 09 00
	00 01		 mov	 BYTE PTR [ebx+2329], 1
  003a4	e8 00 00 00 00	 call	 ?Explosion@ioAdhesiveMissileWeapon4@@QAEXPAVioPlayStage@@@Z ; ioAdhesiveMissileWeapon4::Explosion

; 223  : 
; 224  : 						if( GetOwner()->IsNeedSendNetwork() )

  003a9	8b cb		 mov	 ecx, ebx
  003ab	e8 00 00 00 00	 call	 ?GetOwner@ioWeapon@@QBEPAVioBaseChar@@XZ ; ioWeapon::GetOwner
  003b0	8b 10		 mov	 edx, DWORD PTR [eax]
  003b2	8b c8		 mov	 ecx, eax
  003b4	ff 92 04 01 00
	00		 call	 DWORD PTR [edx+260]
  003ba	84 c0		 test	 al, al
  003bc	0f 84 96 fc ff
	ff		 je	 $LN54@TestMapCol

; 225  : 						{
; 226  : 							SP2Packet kPacket( CUPK_WEAPON_SYNC );

  003c2	68 16 42 00 00	 push	 16918			; 00004216H
  003c7	8d 8d b4 7f ff
	ff		 lea	 ecx, DWORD PTR _kPacket$532461[ebp]
  003cd	e8 00 00 00 00	 call	 ??0SP2Packet@@QAE@K@Z	; SP2Packet::SP2Packet
  003d2	33 f6		 xor	 esi, esi

; 227  : 							kPacket << GetOwnerName();

  003d4	8d 43 10	 lea	 eax, DWORD PTR [ebx+16]
  003d7	46		 inc	 esi
  003d8	50		 push	 eax
  003d9	8d 8d b4 7f ff
	ff		 lea	 ecx, DWORD PTR _kPacket$532461[ebp]
  003df	89 75 fc	 mov	 DWORD PTR __$EHRec$[ebp+8], esi
  003e2	e8 00 00 00 00	 call	 ??6SP2Packet@@QAEAAV0@ABVioHashString@@@Z ; SP2Packet::operator<<

; 228  : 							kPacket << m_dwWeaponIdx;

  003e7	ff b3 b8 04 00
	00		 push	 DWORD PTR [ebx+1208]
  003ed	8d 8d b4 7f ff
	ff		 lea	 ecx, DWORD PTR _kPacket$532461[ebp]
  003f3	e8 00 00 00 00	 call	 ??6SP2Packet@@QAEAAV0@K@Z ; SP2Packet::operator<<

; 229  : 							kPacket << STC_TEST_MAP_COLLISION;

  003f8	56		 push	 esi
  003f9	8d 8d b4 7f ff
	ff		 lea	 ecx, DWORD PTR _kPacket$532461[ebp]
  003ff	e8 00 00 00 00	 call	 ??6SP2Packet@@QAEAAV0@H@Z ; SP2Packet::operator<<

; 230  : 							kPacket << m_bMapCollision;

  00404	0f b6 83 19 09
	00 00		 movzx	 eax, BYTE PTR [ebx+2329]
  0040b	50		 push	 eax
  0040c	8d 8d b4 7f ff
	ff		 lea	 ecx, DWORD PTR _kPacket$532461[ebp]
  00412	e8 00 00 00 00	 call	 ??6SP2Packet@@QAEAAV0@_N@Z ; SP2Packet::operator<<

; 231  : 							P2PNetwork::SendToAllPlayingUser( kPacket );

  00417	8d 85 b4 7f ff
	ff		 lea	 eax, DWORD PTR _kPacket$532461[ebp]
  0041d	6a 00		 push	 0
  0041f	50		 push	 eax
  00420	e8 00 00 00 00	 call	 ?SendToAllPlayingUser@P2PNetwork@@YAXAAVSP2Packet@@PAVioBaseChar@@@Z ; P2PNetwork::SendToAllPlayingUser
  00425	59		 pop	 ecx
  00426	59		 pop	 ecx

; 232  : 						}

  00427	8d 8d b4 7f ff
	ff		 lea	 ecx, DWORD PTR _kPacket$532461[ebp]

; 233  : 						return true;

  0042d	e9 ff fc ff ff	 jmp	 $LN56@TestMapCol
_TEXT	ENDS
;	COMDAT text$x
text$x	SEGMENT
__unwindfunclet$?TestMapCollision@ioAdhesiveMissileWeapon4@@UAE_NPAVioOpcodeShape@@PAVioPlayStage@@PBUD3DXMATRIX@@@Z$0:
  00000	8d 8d 9c ff fe
	ff		 lea	 ecx, DWORD PTR _kPacket$532440[ebp]
  00006	e9 00 00 00 00	 jmp	 ??1SP2Packet@@UAE@XZ	; SP2Packet::~SP2Packet
__unwindfunclet$?TestMapCollision@ioAdhesiveMissileWeapon4@@UAE_NPAVioOpcodeShape@@PAVioPlayStage@@PBUD3DXMATRIX@@@Z$1:
  0000b	8d 8d b4 7f ff
	ff		 lea	 ecx, DWORD PTR _kPacket$532461[ebp]
  00011	e9 00 00 00 00	 jmp	 ??1SP2Packet@@UAE@XZ	; SP2Packet::~SP2Packet
__ehhandler$?TestMapCollision@ioAdhesiveMissileWeapon4@@UAE_NPAVioOpcodeShape@@PAVioPlayStage@@PBUD3DXMATRIX@@@Z:
  00016	8b 54 24 08	 mov	 edx, DWORD PTR [esp+8]
  0001a	8d 42 0c	 lea	 eax, DWORD PTR [edx+12]
  0001d	8b 8a 64 ff fe
	ff		 mov	 ecx, DWORD PTR [edx-65692]
  00023	33 c8		 xor	 ecx, eax
  00025	e8 00 00 00 00	 call	 @__security_check_cookie@4
  0002a	8b 4a fc	 mov	 ecx, DWORD PTR [edx-4]
  0002d	33 c8		 xor	 ecx, eax
  0002f	e8 00 00 00 00	 call	 @__security_check_cookie@4
  00034	b8 00 00 00 00	 mov	 eax, OFFSET __ehfuncinfo$?TestMapCollision@ioAdhesiveMissileWeapon4@@UAE_NPAVioOpcodeShape@@PAVioPlayStage@@PBUD3DXMATRIX@@@Z
  00039	e9 00 00 00 00	 jmp	 ___CxxFrameHandler3
text$x	ENDS
?TestMapCollision@ioAdhesiveMissileWeapon4@@UAE_NPAVioOpcodeShape@@PAVioPlayStage@@PBUD3DXMATRIX@@@Z ENDP ; ioAdhesiveMissileWeapon4::TestMapCollision
PUBLIC	_pStage$GSCopy$
PUBLIC	?ProcessAttachMove@ioAdhesiveMissileWeapon4@@IAEXMPAVioPlayStage@@@Z ; ioAdhesiveMissileWeapon4::ProcessAttachMove
EXTRN	__imp_?UNIT_Y@ioMath@@2UD3DXVECTOR3@@A:BYTE
;	COMDAT xdata$x
xdata$x	SEGMENT
__unwindtable$?ProcessAttachMove@ioAdhesiveMissileWeapon4@@IAEXMPAVioPlayStage@@@Z DD 0ffffffffH
	DD	FLAT:__unwindfunclet$?ProcessAttachMove@ioAdhesiveMissileWeapon4@@IAEXMPAVioPlayStage@@@Z$0
	DD	00H
	DD	FLAT:__unwindfunclet$?ProcessAttachMove@ioAdhesiveMissileWeapon4@@IAEXMPAVioPlayStage@@@Z$1
	DD	00H
	DD	FLAT:__unwindfunclet$?ProcessAttachMove@ioAdhesiveMissileWeapon4@@IAEXMPAVioPlayStage@@@Z$2
__ehfuncinfo$?ProcessAttachMove@ioAdhesiveMissileWeapon4@@IAEXMPAVioPlayStage@@@Z DD 019930522H
	DD	03H
	DD	FLAT:__unwindtable$?ProcessAttachMove@ioAdhesiveMissileWeapon4@@IAEXMPAVioPlayStage@@@Z
	DD	2 DUP(00H)
	DD	2 DUP(00H)
	DD	00H
	DD	01H
; Function compile flags: /Ogsp
xdata$x	ENDS
;	COMDAT ?ProcessAttachMove@ioAdhesiveMissileWeapon4@@IAEXMPAVioPlayStage@@@Z
_TEXT	SEGMENT
_qtLinkRotOffset$ = -192				; size = 16
_qtRot$ = -176						; size = 16
_qtNewRot$ = -160					; size = 16
_pInfo$532666 = -144					; size = 24
_szLinkBiped$ = -120					; size = 16
$T539819 = -104						; size = 4
_pStage$GSCopy$ = -100					; size = 4
tv1301 = -96						; size = 4
$T539818 = -96						; size = 4
$T539820 = -92						; size = 4
$T539655 = -92						; size = 4
$T539849 = -88						; size = 4
_pOwner$ = -88						; size = 4
$T539648 = -81						; size = 1
_vSideAxis$ = -80					; size = 12
_vPos$532669 = -68					; size = 12
_vLinkPosOffset$ = -56					; size = 12
_vDir$ = -44						; size = 12
$T539649 = -32						; size = 16
_v$539719 = -28						; size = 12
$T532657 = -28						; size = 12
$T532656 = -28						; size = 12
$T532655 = -28						; size = 12
$T532654 = -28						; size = 12
$T532653 = -28						; size = 12
$T532643 = -28						; size = 12
__$EHRec$ = -12						; size = 12
_fTimePerSec$ = 8					; size = 4
_pStage$ = 12						; size = 4
?ProcessAttachMove@ioAdhesiveMissileWeapon4@@IAEXMPAVioPlayStage@@@Z PROC ; ioAdhesiveMissileWeapon4::ProcessAttachMove, COMDAT
; _this$ = ecx

; 282  : {

  00000	68 b4 00 00 00	 push	 180			; 000000b4H
  00005	b8 00 00 00 00	 mov	 eax, __ehhandler$?ProcessAttachMove@ioAdhesiveMissileWeapon4@@IAEXMPAVioPlayStage@@@Z
  0000a	e8 00 00 00 00	 call	 __EH_prolog3_GS
  0000f	8b 75 0c	 mov	 esi, DWORD PTR _pStage$[ebp]
  00012	83 65 a4 00	 and	 DWORD PTR $T539655[ebp], 0
  00016	8b d9		 mov	 ebx, ecx

; 283  : 	ioBaseChar *pOwner = GetOwner();

  00018	89 75 9c	 mov	 DWORD PTR _pStage$GSCopy$[ebp], esi
  0001b	e8 00 00 00 00	 call	 ?GetOwner@ioWeapon@@QBEPAVioBaseChar@@XZ ; ioWeapon::GetOwner
  00020	89 45 a8	 mov	 DWORD PTR _pOwner$[ebp], eax

; 284  : 	if( !pOwner )

  00023	85 c0		 test	 eax, eax
  00025	75 0d		 jne	 SHORT $LN7@ProcessAtt

; 285  : 	{
; 286  : 		Explosion( pStage );

  00027	56		 push	 esi
  00028	8b cb		 mov	 ecx, ebx
  0002a	e8 00 00 00 00	 call	 ?Explosion@ioAdhesiveMissileWeapon4@@QAEXPAVioPlayStage@@@Z ; ioAdhesiveMissileWeapon4::Explosion

; 287  : 		return;

  0002f	e9 09 05 00 00	 jmp	 $LN8@ProcessAtt
$LN7@ProcessAtt:

; 288  : 	};
; 289  : 
; 290  : 	D3DXQUATERNION qtRot = pOwner->GetTargetRot();

  00034	8d b0 a4 06 00
	00		 lea	 esi, DWORD PTR [eax+1700]
  0003a	8d bd 50 ff ff
	ff		 lea	 edi, DWORD PTR _qtRot$[ebp]
  00040	a5		 movsd
  00041	a5		 movsd
  00042	a5		 movsd
  00043	a5		 movsd

; 291  : 	D3DXVECTOR3 vDir = qtRot * D3DXVECTOR3( 0.0f, 0.0f, -FLOAT1 );

  00044	b8 01 00 00 00	 mov	 eax, 1
  00049	0f 57 c0	 xorps	 xmm0, xmm0
  0004c	89 45 a0	 mov	 DWORD PTR tv1301[ebp], eax
  0004f	db 45 a0	 fild	 DWORD PTR tv1301[ebp]
  00052	f3 0f 11 45 e4	 movss	 DWORD PTR $T532643[ebp], xmm0
  00057	f3 0f 11 45 e8	 movss	 DWORD PTR $T532643[ebp+4], xmm0
  0005c	85 c0		 test	 eax, eax
  0005e	79 06		 jns	 SHORT $LN100@ProcessAtt
  00060	d8 05 00 00 00
	00		 fadd	 DWORD PTR __real@4f800000
$LN100@ProcessAtt:
  00066	8d 45 e4	 lea	 eax, DWORD PTR $T532643[ebp]
  00069	d9 e0		 fchs
  0006b	50		 push	 eax
  0006c	d9 5d ec	 fstp	 DWORD PTR $T532643[ebp+8]
  0006f	8d 85 50 ff ff
	ff		 lea	 eax, DWORD PTR _qtRot$[ebp]
  00075	50		 push	 eax
  00076	8d 45 d4	 lea	 eax, DWORD PTR _vDir$[ebp]
  00079	50		 push	 eax
  0007a	ff 15 00 00 00
	00		 call	 DWORD PTR __imp_??D@YA?AUD3DXVECTOR3@@ABUD3DXQUATERNION@@ABU0@@Z
  00080	83 c4 0c	 add	 esp, 12			; 0000000cH

; 292  : 	D3DXVec3Normalize( &vDir, &vDir );

  00083	8d 45 d4	 lea	 eax, DWORD PTR _vDir$[ebp]
  00086	50		 push	 eax
  00087	50		 push	 eax
  00088	e8 00 00 00 00	 call	 _D3DXVec3Normalize@8

; 293  : 	
; 294  : 	ioHashString szLinkBiped;

  0008d	8d 4d 88	 lea	 ecx, DWORD PTR _szLinkBiped$[ebp]
  00090	ff 15 00 00 00
	00		 call	 DWORD PTR __imp_??0ioHashString@@QAE@XZ

; 295  : 	D3DXVECTOR3 vLinkPosOffset;
; 296  : 	D3DXQUATERNION qtLinkRotOffset;
; 297  : 
; 298  : 	if( m_pFireBall->GetSkeletonName().IsEmpty() &&
; 299  : 		m_pFireBall->GetFirstLinkOffset(szLinkBiped, vLinkPosOffset, qtLinkRotOffset ) )

  00096	8b 8b a8 08 00
	00		 mov	 ecx, DWORD PTR [ebx+2216]
  0009c	83 65 fc 00	 and	 DWORD PTR __$EHRec$[ebp+8], 0
  000a0	8d 45 e0	 lea	 eax, DWORD PTR $T539649[ebp]
  000a3	50		 push	 eax
  000a4	ff 15 00 00 00
	00		 call	 DWORD PTR __imp_?GetSkeletonName@ioEffect@@QBE?AVioHashString@@XZ
  000aa	8b c8		 mov	 ecx, eax
  000ac	c6 45 fc 01	 mov	 BYTE PTR __$EHRec$[ebp+8], 1
  000b0	c7 45 a4 01 00
	00 00		 mov	 DWORD PTR $T539655[ebp], 1
  000b7	ff 15 00 00 00
	00		 call	 DWORD PTR __imp_?IsEmpty@ioHashString@@QBE_NXZ
  000bd	84 c0		 test	 al, al
  000bf	74 23		 je	 SHORT $LN10@ProcessAtt
  000c1	8b 8b a8 08 00
	00		 mov	 ecx, DWORD PTR [ebx+2216]
  000c7	8d 85 40 ff ff
	ff		 lea	 eax, DWORD PTR _qtLinkRotOffset$[ebp]
  000cd	50		 push	 eax
  000ce	8d 45 c8	 lea	 eax, DWORD PTR _vLinkPosOffset$[ebp]
  000d1	50		 push	 eax
  000d2	8d 45 88	 lea	 eax, DWORD PTR _szLinkBiped$[ebp]
  000d5	50		 push	 eax
  000d6	ff 15 00 00 00
	00		 call	 DWORD PTR __imp_?GetFirstLinkOffset@ioEffect@@QAE_NAAVioHashString@@AAUD3DXVECTOR3@@AAUD3DXQUATERNION@@@Z
  000dc	c6 45 af 01	 mov	 BYTE PTR $T539648[ebp], 1
  000e0	84 c0		 test	 al, al
  000e2	75 04		 jne	 SHORT $LN11@ProcessAtt
$LN10@ProcessAtt:
  000e4	c6 45 af 00	 mov	 BYTE PTR $T539648[ebp], 0
$LN11@ProcessAtt:
  000e8	83 65 fc 00	 and	 DWORD PTR __$EHRec$[ebp+8], 0
  000ec	8d 4d e0	 lea	 ecx, DWORD PTR $T539649[ebp]
  000ef	ff 15 00 00 00
	00		 call	 DWORD PTR __imp_??1ioHashString@@QAE@XZ
  000f5	80 7d af 00	 cmp	 BYTE PTR $T539648[ebp], 0
  000f9	0f 84 3f 01 00
	00		 je	 $LN5@ProcessAtt

; 300  : 	{
; 301  : 		ioBiped *pLinked = pOwner->GetGroup()->GetBiped( szLinkBiped );

  000ff	8b 45 a8	 mov	 eax, DWORD PTR _pOwner$[ebp]
  00102	8b 48 04	 mov	 ecx, DWORD PTR [eax+4]
  00105	8d 45 88	 lea	 eax, DWORD PTR _szLinkBiped$[ebp]
  00108	50		 push	 eax
  00109	ff 15 00 00 00
	00		 call	 DWORD PTR __imp_?GetBiped@ioEntityGroup@@QAEPAVioBiped@@ABVioHashString@@@Z
  0010f	8b f8		 mov	 edi, eax

; 302  : 		if( pLinked )

  00111	85 ff		 test	 edi, edi
  00113	0f 84 25 01 00
	00		 je	 $LN5@ProcessAtt

; 303  : 		{
; 304  : 			vLinkPosOffset = pLinked->GetDerivedOrientation() * vLinkPosOffset + pLinked->GetDerivedPosition();

  00119	8b 07		 mov	 eax, DWORD PTR [edi]
  0011b	8b cf		 mov	 ecx, edi
  0011d	ff 50 7c	 call	 DWORD PTR [eax+124]
  00120	8b f0		 mov	 esi, eax
  00122	8d 45 c8	 lea	 eax, DWORD PTR _vLinkPosOffset$[ebp]
  00125	50		 push	 eax
  00126	8b 07		 mov	 eax, DWORD PTR [edi]
  00128	8b cf		 mov	 ecx, edi
  0012a	ff 50 78	 call	 DWORD PTR [eax+120]
  0012d	50		 push	 eax
  0012e	8d 45 e4	 lea	 eax, DWORD PTR $T532653[ebp]
  00131	50		 push	 eax
  00132	ff 15 00 00 00
	00		 call	 DWORD PTR __imp_??D@YA?AUD3DXVECTOR3@@ABUD3DXQUATERNION@@ABU0@@Z
  00138	f3 0f 10 06	 movss	 xmm0, DWORD PTR [esi]
  0013c	f3 0f 10 08	 movss	 xmm1, DWORD PTR [eax]
  00140	f3 0f 10 56 04	 movss	 xmm2, DWORD PTR [esi+4]
  00145	f3 0f 10 5e 08	 movss	 xmm3, DWORD PTR [esi+8]

; 305  : 			vLinkPosOffset = vLinkPosOffset * pOwner->GetWorldScale();

  0014a	8b 4d a8	 mov	 ecx, DWORD PTR _pOwner$[ebp]
  0014d	0f 5a c9	 cvtps2pd xmm1, xmm1
  00150	0f 5a c0	 cvtps2pd xmm0, xmm0
  00153	f2 0f 58 c1	 addsd	 xmm0, xmm1
  00157	f3 0f 10 48 04	 movss	 xmm1, DWORD PTR [eax+4]
  0015c	0f 5a d2	 cvtps2pd xmm2, xmm2
  0015f	0f 5a c9	 cvtps2pd xmm1, xmm1
  00162	f2 0f 58 ca	 addsd	 xmm1, xmm2
  00166	f3 0f 10 50 08	 movss	 xmm2, DWORD PTR [eax+8]
  0016b	0f 5a d2	 cvtps2pd xmm2, xmm2
  0016e	0f 5a db	 cvtps2pd xmm3, xmm3
  00171	f2 0f 58 d3	 addsd	 xmm2, xmm3
  00175	66 0f 5a c0	 cvtpd2ps xmm0, xmm0
  00179	f3 0f 11 45 e4	 movss	 DWORD PTR $T532654[ebp], xmm0
  0017e	66 0f 5a c9	 cvtpd2ps xmm1, xmm1
  00182	f3 0f 11 4d e8	 movss	 DWORD PTR $T532654[ebp+4], xmm1
  00187	66 0f 5a d2	 cvtpd2ps xmm2, xmm2
  0018b	f3 0f 11 55 ec	 movss	 DWORD PTR $T532654[ebp+8], xmm2
  00190	8d 75 e4	 lea	 esi, DWORD PTR $T532654[ebp]
  00193	8d 7d c8	 lea	 edi, DWORD PTR _vLinkPosOffset$[ebp]
  00196	a5		 movsd
  00197	a5		 movsd
  00198	a5		 movsd
  00199	8b 01		 mov	 eax, DWORD PTR [ecx]
  0019b	83 c4 0c	 add	 esp, 12			; 0000000cH
  0019e	ff 50 78	 call	 DWORD PTR [eax+120]
  001a1	50		 push	 eax
  001a2	8d 45 c8	 lea	 eax, DWORD PTR _vLinkPosOffset$[ebp]
  001a5	50		 push	 eax
  001a6	8d 45 e4	 lea	 eax, DWORD PTR $T532655[ebp]
  001a9	50		 push	 eax
  001aa	ff 15 00 00 00
	00		 call	 DWORD PTR __imp_??D@YA?AUD3DXVECTOR3@@ABU0@0@Z
  001b0	8b f0		 mov	 esi, eax
  001b2	8d 7d c8	 lea	 edi, DWORD PTR _vLinkPosOffset$[ebp]
  001b5	a5		 movsd
  001b6	a5		 movsd
  001b7	a5		 movsd

; 306  : 			vLinkPosOffset = pOwner->GetWorldOrientation() * vLinkPosOffset + pOwner->GetWorldPosition();					

  001b8	8b 7d a8	 mov	 edi, DWORD PTR _pOwner$[ebp]
  001bb	8b 07		 mov	 eax, DWORD PTR [edi]
  001bd	83 c4 0c	 add	 esp, 12			; 0000000cH
  001c0	8b cf		 mov	 ecx, edi
  001c2	ff 50 70	 call	 DWORD PTR [eax+112]
  001c5	8b f0		 mov	 esi, eax
  001c7	8d 45 c8	 lea	 eax, DWORD PTR _vLinkPosOffset$[ebp]
  001ca	50		 push	 eax
  001cb	8b 07		 mov	 eax, DWORD PTR [edi]
  001cd	8b cf		 mov	 ecx, edi
  001cf	ff 50 74	 call	 DWORD PTR [eax+116]
  001d2	50		 push	 eax
  001d3	8d 45 e4	 lea	 eax, DWORD PTR $T532656[ebp]
  001d6	50		 push	 eax
  001d7	ff 15 00 00 00
	00		 call	 DWORD PTR __imp_??D@YA?AUD3DXVECTOR3@@ABUD3DXQUATERNION@@ABU0@@Z
  001dd	f3 0f 10 00	 movss	 xmm0, DWORD PTR [eax]
  001e1	f3 0f 10 0e	 movss	 xmm1, DWORD PTR [esi]
  001e5	f3 0f 10 50 04	 movss	 xmm2, DWORD PTR [eax+4]
  001ea	0f 5a c9	 cvtps2pd xmm1, xmm1
  001ed	0f 5a c0	 cvtps2pd xmm0, xmm0
  001f0	f2 0f 58 c1	 addsd	 xmm0, xmm1
  001f4	f3 0f 10 4e 04	 movss	 xmm1, DWORD PTR [esi+4]
  001f9	0f 5a c9	 cvtps2pd xmm1, xmm1
  001fc	0f 5a d2	 cvtps2pd xmm2, xmm2
  001ff	83 c4 0c	 add	 esp, 12			; 0000000cH
  00202	66 0f 5a c0	 cvtpd2ps xmm0, xmm0
  00206	f2 0f 58 ca	 addsd	 xmm1, xmm2
  0020a	f3 0f 10 56 08	 movss	 xmm2, DWORD PTR [esi+8]
  0020f	f3 0f 10 58 08	 movss	 xmm3, DWORD PTR [eax+8]
  00214	0f 5a d2	 cvtps2pd xmm2, xmm2
  00217	0f 5a db	 cvtps2pd xmm3, xmm3
  0021a	f2 0f 58 d3	 addsd	 xmm2, xmm3
  0021e	f3 0f 11 45 e4	 movss	 DWORD PTR $T532657[ebp], xmm0
  00223	66 0f 5a c9	 cvtpd2ps xmm1, xmm1
  00227	f3 0f 11 4d e8	 movss	 DWORD PTR $T532657[ebp+4], xmm1
  0022c	66 0f 5a d2	 cvtpd2ps xmm2, xmm2
  00230	f3 0f 11 55 ec	 movss	 DWORD PTR $T532657[ebp+8], xmm2
  00235	8d 75 e4	 lea	 esi, DWORD PTR $T532657[ebp]
  00238	8d 7d c8	 lea	 edi, DWORD PTR _vLinkPosOffset$[ebp]
  0023b	a5		 movsd
  0023c	a5		 movsd
  0023d	a5		 movsd
$LN5@ProcessAtt:

; 307  : 		}
; 308  : 	}
; 309  : 	
; 310  : 	SetMoveDir( vDir );

  0023e	8b 03		 mov	 eax, DWORD PTR [ebx]
  00240	8d 4d d4	 lea	 ecx, DWORD PTR _vDir$[ebp]
  00243	51		 push	 ecx
  00244	8b cb		 mov	 ecx, ebx
  00246	ff 90 b0 00 00
	00		 call	 DWORD PTR [eax+176]

; 311  : 	SetPosition( vLinkPosOffset );	

  0024c	8d 45 c8	 lea	 eax, DWORD PTR _vLinkPosOffset$[ebp]
  0024f	50		 push	 eax
  00250	8b cb		 mov	 ecx, ebx
  00252	e8 00 00 00 00	 call	 ?SetPosition@ioWeapon@@QAEXABUD3DXVECTOR3@@@Z ; ioWeapon::SetPosition

; 312  : 	UpdateWorldAttackBox( fTimePerSec, false );

  00257	f3 0f 10 45 08	 movss	 xmm0, DWORD PTR _fTimePerSec$[ebp]
  0025c	8b 03		 mov	 eax, DWORD PTR [ebx]
  0025e	6a 00		 push	 0
  00260	51		 push	 ecx
  00261	8b cb		 mov	 ecx, ebx
  00263	f3 0f 11 04 24	 movss	 DWORD PTR [esp], xmm0
  00268	ff 90 38 01 00
	00		 call	 DWORD PTR [eax+312]

; 313  : 
; 314  : 	D3DXVECTOR3 vSideAxis;
; 315  : 	D3DXVec3Cross( &vSideAxis, &vDir, &ioMath::UNIT_Y );

  0026e	a1 00 00 00 00	 mov	 eax, DWORD PTR __imp_?UNIT_Y@ioMath@@2UD3DXVECTOR3@@A
  00273	f3 0f 10 40 08	 movss	 xmm0, DWORD PTR [eax+8]
  00278	f3 0f 10 48 04	 movss	 xmm1, DWORD PTR [eax+4]
  0027d	f3 0f 10 55 d8	 movss	 xmm2, DWORD PTR _vDir$[ebp+4]
  00282	0f 5a d8	 cvtps2pd xmm3, xmm0
  00285	0f 5a e1	 cvtps2pd xmm4, xmm1
  00288	0f 5a d2	 cvtps2pd xmm2, xmm2
  0028b	f2 0f 59 d3	 mulsd	 xmm2, xmm3
  0028f	f3 0f 10 5d dc	 movss	 xmm3, DWORD PTR _vDir$[ebp+8]
  00294	0f 5a db	 cvtps2pd xmm3, xmm3
  00297	f2 0f 59 dc	 mulsd	 xmm3, xmm4
  0029b	f2 0f 5c d3	 subsd	 xmm2, xmm3
  0029f	f3 0f 10 5d dc	 movss	 xmm3, DWORD PTR _vDir$[ebp+8]
  002a4	f2 0f 5a d2	 cvtsd2ss xmm2, xmm2
  002a8	f3 0f 11 55 e4	 movss	 DWORD PTR _v$539719[ebp], xmm2
  002ad	f3 0f 10 10	 movss	 xmm2, DWORD PTR [eax]
  002b1	0f 5a e2	 cvtps2pd xmm4, xmm2
  002b4	0f 5a c0	 cvtps2pd xmm0, xmm0
  002b7	0f 5a db	 cvtps2pd xmm3, xmm3
  002ba	f2 0f 59 dc	 mulsd	 xmm3, xmm4
  002be	f3 0f 10 65 d4	 movss	 xmm4, DWORD PTR _vDir$[ebp]
  002c3	0f 5a e4	 cvtps2pd xmm4, xmm4
  002c6	f2 0f 59 e0	 mulsd	 xmm4, xmm0
  002ca	0f 57 c0	 xorps	 xmm0, xmm0
  002cd	f2 0f 5c dc	 subsd	 xmm3, xmm4
  002d1	f2 0f 5a c3	 cvtsd2ss xmm0, xmm3
  002d5	f3 0f 11 45 e8	 movss	 DWORD PTR _v$539719[ebp+4], xmm0
  002da	f3 0f 10 45 d4	 movss	 xmm0, DWORD PTR _vDir$[ebp]
  002df	0f 5a c9	 cvtps2pd xmm1, xmm1
  002e2	0f 5a c0	 cvtps2pd xmm0, xmm0
  002e5	f2 0f 59 c1	 mulsd	 xmm0, xmm1
  002e9	f3 0f 10 4d d8	 movss	 xmm1, DWORD PTR _vDir$[ebp+4]
  002ee	0f 5a c9	 cvtps2pd xmm1, xmm1
  002f1	0f 5a d2	 cvtps2pd xmm2, xmm2
  002f4	f2 0f 59 ca	 mulsd	 xmm1, xmm2
  002f8	f2 0f 5c c1	 subsd	 xmm0, xmm1
  002fc	f2 0f 5a c0	 cvtsd2ss xmm0, xmm0
  00300	f3 0f 11 45 ec	 movss	 DWORD PTR _v$539719[ebp+8], xmm0
  00305	8d 75 e4	 lea	 esi, DWORD PTR _v$539719[ebp]
  00308	8d 7d b0	 lea	 edi, DWORD PTR _vSideAxis$[ebp]
  0030b	a5		 movsd

; 316  : 	D3DXVec3Normalize( &vSideAxis, &vSideAxis );

  0030c	8d 45 b0	 lea	 eax, DWORD PTR _vSideAxis$[ebp]
  0030f	a5		 movsd
  00310	50		 push	 eax
  00311	50		 push	 eax
  00312	a5		 movsd
  00313	e8 00 00 00 00	 call	 _D3DXVec3Normalize@8

; 317  : 
; 318  : 	D3DXQUATERNION qtNewRot = GetOrientation();

  00318	8b cb		 mov	 ecx, ebx
  0031a	e8 00 00 00 00	 call	 ?GetOrientation@ioWeapon@@QBEABUD3DXQUATERNION@@XZ ; ioWeapon::GetOrientation
  0031f	8b f0		 mov	 esi, eax
  00321	8d bd 60 ff ff
	ff		 lea	 edi, DWORD PTR _qtNewRot$[ebp]
  00327	a5		 movsd
  00328	a5		 movsd
  00329	a5		 movsd
  0032a	a5		 movsd

; 319  : 
; 320  : 	TargetInfoList::iterator iter;
; 321  : 	for( iter = m_TargetInfoList.begin(); iter != m_TargetInfoList.end(); ++iter )

  0032b	8b b3 98 08 00
	00		 mov	 esi, DWORD PTR [ebx+2200]
  00331	e9 ee 01 00 00	 jmp	 $LN101@ProcessAtt
$LL57@ProcessAtt:

; 322  : 	{
; 323  : 		TargetInfo pInfo = (*iter);

  00336	56		 push	 esi
  00337	8d 8d 70 ff ff
	ff		 lea	 ecx, DWORD PTR _pInfo$532666[ebp]
  0033d	ff 15 00 00 00
	00		 call	 DWORD PTR __imp_??0ioHashString@@QAE@ABV0@@Z
  00343	f3 0f 10 46 10	 movss	 xmm0, DWORD PTR [esi+16]
  00348	f3 0f 11 45 80	 movss	 DWORD PTR _pInfo$532666[ebp+16], xmm0
  0034d	f3 0f 10 46 14	 movss	 xmm0, DWORD PTR [esi+20]
  00352	f3 0f 11 45 84	 movss	 DWORD PTR _pInfo$532666[ebp+20], xmm0

; 324  : 		ioBaseChar* pTarget = pStage->GetBaseChar( pInfo.m_szTargetName );

  00357	8b 4d 9c	 mov	 ecx, DWORD PTR _pStage$GSCopy$[ebp]
  0035a	8d 85 70 ff ff
	ff		 lea	 eax, DWORD PTR _pInfo$532666[ebp]
  00360	50		 push	 eax
  00361	c6 45 fc 02	 mov	 BYTE PTR __$EHRec$[ebp+8], 2
  00365	e8 00 00 00 00	 call	 ?GetBaseChar@ioPlayStage@@QAEPAVioBaseChar@@ABVioHashString@@@Z ; ioPlayStage::GetBaseChar
  0036a	8b f8		 mov	 edi, eax

; 325  : 		if( pTarget && pTarget->HasBuff(BT_SKIP_STUN) )

  0036c	85 ff		 test	 edi, edi
  0036e	0f 84 9d 01 00
	00		 je	 $LN1@ProcessAtt
  00374	6a 4b		 push	 75			; 0000004bH
  00376	8b cf		 mov	 ecx, edi
  00378	e8 00 00 00 00	 call	 ?HasBuff@ioBaseChar@@QBE_NH@Z ; ioBaseChar::HasBuff
  0037d	84 c0		 test	 al, al
  0037f	0f 84 8c 01 00
	00		 je	 $LN1@ProcessAtt

; 326  : 		{
; 327  : 			D3DXVECTOR3 vPos = GetPosition() + ( vDir * pInfo.m_fLength );			

  00385	f3 0f 10 4d 80	 movss	 xmm1, DWORD PTR _pInfo$532666[ebp+16]
  0038a	f3 0f 10 45 d4	 movss	 xmm0, DWORD PTR _vDir$[ebp]
  0038f	8b 03		 mov	 eax, DWORD PTR [ebx]
  00391	0f 5a c0	 cvtps2pd xmm0, xmm0
  00394	0f 5a c9	 cvtps2pd xmm1, xmm1
  00397	f2 0f 59 c1	 mulsd	 xmm0, xmm1
  0039b	f3 0f 10 4d 80	 movss	 xmm1, DWORD PTR _pInfo$532666[ebp+16]
  003a0	66 0f 5a c0	 cvtpd2ps xmm0, xmm0
  003a4	f3 0f 11 45 a4	 movss	 DWORD PTR $T539820[ebp], xmm0
  003a9	f3 0f 10 45 d8	 movss	 xmm0, DWORD PTR _vDir$[ebp+4]
  003ae	0f 5a c0	 cvtps2pd xmm0, xmm0
  003b1	0f 5a c9	 cvtps2pd xmm1, xmm1
  003b4	f2 0f 59 c1	 mulsd	 xmm0, xmm1
  003b8	f3 0f 10 4d 80	 movss	 xmm1, DWORD PTR _pInfo$532666[ebp+16]
  003bd	66 0f 5a c0	 cvtpd2ps xmm0, xmm0
  003c1	f3 0f 11 45 98	 movss	 DWORD PTR $T539819[ebp], xmm0
  003c6	f3 0f 10 45 dc	 movss	 xmm0, DWORD PTR _vDir$[ebp+8]
  003cb	0f 5a c0	 cvtps2pd xmm0, xmm0
  003ce	0f 5a c9	 cvtps2pd xmm1, xmm1
  003d1	f2 0f 59 c1	 mulsd	 xmm0, xmm1
  003d5	66 0f 5a c0	 cvtpd2ps xmm0, xmm0
  003d9	8b cb		 mov	 ecx, ebx
  003db	f3 0f 11 45 a0	 movss	 DWORD PTR $T539818[ebp], xmm0
  003e0	ff 50 70	 call	 DWORD PTR [eax+112]
  003e3	f3 0f 10 00	 movss	 xmm0, DWORD PTR [eax]
  003e7	f3 0f 10 55 98	 movss	 xmm2, DWORD PTR $T539819[ebp]
  003ec	f3 0f 10 4d a4	 movss	 xmm1, DWORD PTR $T539820[ebp]
  003f1	f3 0f 10 5d a0	 movss	 xmm3, DWORD PTR $T539818[ebp]
  003f6	0f 5a c9	 cvtps2pd xmm1, xmm1
  003f9	0f 5a c0	 cvtps2pd xmm0, xmm0
  003fc	f2 0f 58 c1	 addsd	 xmm0, xmm1
  00400	f3 0f 10 48 04	 movss	 xmm1, DWORD PTR [eax+4]
  00405	0f 5a c9	 cvtps2pd xmm1, xmm1
  00408	0f 5a d2	 cvtps2pd xmm2, xmm2
  0040b	f2 0f 58 ca	 addsd	 xmm1, xmm2
  0040f	66 0f 5a c0	 cvtpd2ps xmm0, xmm0
  00413	0f 5a db	 cvtps2pd xmm3, xmm3

; 328  : 			vPos.y -= pInfo.m_fHeightGap;
; 329  : 			vPos += vSideAxis * -m_WorldAttackBox.GetExtents(0);

  00416	6a 00		 push	 0
  00418	8d 8b e8 04 00
	00		 lea	 ecx, DWORD PTR [ebx+1256]
  0041e	66 0f 5a d1	 cvtpd2ps xmm2, xmm1
  00422	f3 0f 10 48 08	 movss	 xmm1, DWORD PTR [eax+8]
  00427	0f 5a c9	 cvtps2pd xmm1, xmm1
  0042a	f2 0f 58 cb	 addsd	 xmm1, xmm3
  0042e	66 0f 5a c9	 cvtpd2ps xmm1, xmm1
  00432	f3 0f 11 45 bc	 movss	 DWORD PTR _vPos$532669[ebp], xmm0
  00437	f3 0f 11 4d c4	 movss	 DWORD PTR _vPos$532669[ebp+8], xmm1
  0043c	f3 0f 10 4d 84	 movss	 xmm1, DWORD PTR _pInfo$532666[ebp+20]
  00441	0f 5a c2	 cvtps2pd xmm0, xmm2
  00444	0f 5a c9	 cvtps2pd xmm1, xmm1
  00447	f2 0f 5c c1	 subsd	 xmm0, xmm1
  0044b	66 0f 5a c0	 cvtpd2ps xmm0, xmm0
  0044f	f3 0f 11 45 c0	 movss	 DWORD PTR _vPos$532669[ebp+4], xmm0
  00454	ff 15 00 00 00
	00		 call	 DWORD PTR __imp_?GetExtents@ioOrientBox@@QBEMH@Z
  0045a	d9 e0		 fchs
  0045c	f3 0f 10 45 b0	 movss	 xmm0, DWORD PTR _vSideAxis$[ebp]
  00461	d9 5d a8	 fstp	 DWORD PTR $T539849[ebp]
  00464	f3 0f 10 4d a8	 movss	 xmm1, DWORD PTR $T539849[ebp]
  00469	f3 0f 10 55 a8	 movss	 xmm2, DWORD PTR $T539849[ebp]
  0046e	f3 0f 10 5d a8	 movss	 xmm3, DWORD PTR $T539849[ebp]
  00473	0f 5a c0	 cvtps2pd xmm0, xmm0
  00476	0f 5a c9	 cvtps2pd xmm1, xmm1
  00479	f2 0f 59 c1	 mulsd	 xmm0, xmm1
  0047d	f3 0f 10 4d b4	 movss	 xmm1, DWORD PTR _vSideAxis$[ebp+4]
  00482	0f 5a d2	 cvtps2pd xmm2, xmm2
  00485	0f 5a c9	 cvtps2pd xmm1, xmm1
  00488	f2 0f 59 ca	 mulsd	 xmm1, xmm2
  0048c	f3 0f 10 55 b8	 movss	 xmm2, DWORD PTR _vSideAxis$[ebp+8]
  00491	66 0f 5a c0	 cvtpd2ps xmm0, xmm0
  00495	0f 5a db	 cvtps2pd xmm3, xmm3
  00498	0f 5a d2	 cvtps2pd xmm2, xmm2
  0049b	f2 0f 59 d3	 mulsd	 xmm2, xmm3
  0049f	f3 0f 10 5d bc	 movss	 xmm3, DWORD PTR _vPos$532669[ebp]
  004a4	f3 0f 5a c0	 cvtss2sd xmm0, xmm0
  004a8	0f 5a db	 cvtps2pd xmm3, xmm3
  004ab	f2 0f 58 c3	 addsd	 xmm0, xmm3
  004af	66 0f 5a c0	 cvtpd2ps xmm0, xmm0
  004b3	f3 0f 11 45 bc	 movss	 DWORD PTR _vPos$532669[ebp], xmm0
  004b8	66 0f 5a c9	 cvtpd2ps xmm1, xmm1
  004bc	0f 57 c0	 xorps	 xmm0, xmm0
  004bf	66 0f 5a d2	 cvtpd2ps xmm2, xmm2
  004c3	f3 0f 5a c1	 cvtss2sd xmm0, xmm1
  004c7	f3 0f 10 4d c0	 movss	 xmm1, DWORD PTR _vPos$532669[ebp+4]

; 330  : 
; 331  : 			pTarget->SetWorldPosition( vPos );

  004cc	8b 07		 mov	 eax, DWORD PTR [edi]
  004ce	0f 5a c9	 cvtps2pd xmm1, xmm1
  004d1	f2 0f 58 c1	 addsd	 xmm0, xmm1
  004d5	66 0f 5a c0	 cvtpd2ps xmm0, xmm0
  004d9	f3 0f 11 45 c0	 movss	 DWORD PTR _vPos$532669[ebp+4], xmm0
  004de	f3 0f 10 45 c4	 movss	 xmm0, DWORD PTR _vPos$532669[ebp+8]
  004e3	0f 5a c0	 cvtps2pd xmm0, xmm0
  004e6	0f 57 c9	 xorps	 xmm1, xmm1
  004e9	8d 4d bc	 lea	 ecx, DWORD PTR _vPos$532669[ebp]
  004ec	f3 0f 5a ca	 cvtss2sd xmm1, xmm2
  004f0	f2 0f 58 c1	 addsd	 xmm0, xmm1
  004f4	51		 push	 ecx
  004f5	66 0f 5a c0	 cvtpd2ps xmm0, xmm0
  004f9	8b cf		 mov	 ecx, edi
  004fb	f3 0f 11 45 c4	 movss	 DWORD PTR _vPos$532669[ebp+8], xmm0
  00500	ff 50 44	 call	 DWORD PTR [eax+68]

; 332  : 			pTarget->SetWorldOrientation( qtNewRot );

  00503	8b 07		 mov	 eax, DWORD PTR [edi]
  00505	8d 8d 60 ff ff
	ff		 lea	 ecx, DWORD PTR _qtNewRot$[ebp]
  0050b	51		 push	 ecx
  0050c	8b cf		 mov	 ecx, edi
  0050e	ff 50 48	 call	 DWORD PTR [eax+72]
$LN1@ProcessAtt:

; 333  : 		}
; 334  : 	}	

  00511	8d 8d 70 ff ff
	ff		 lea	 ecx, DWORD PTR _pInfo$532666[ebp]
  00517	c6 45 fc 00	 mov	 BYTE PTR __$EHRec$[ebp+8], 0
  0051b	ff 15 00 00 00
	00		 call	 DWORD PTR __imp_??1ioHashString@@QAE@XZ
  00521	83 c6 18	 add	 esi, 24			; 00000018H
$LN101@ProcessAtt:

; 319  : 
; 320  : 	TargetInfoList::iterator iter;
; 321  : 	for( iter = m_TargetInfoList.begin(); iter != m_TargetInfoList.end(); ++iter )

  00524	3b b3 9c 08 00
	00		 cmp	 esi, DWORD PTR [ebx+2204]
  0052a	0f 85 06 fe ff
	ff		 jne	 $LL57@ProcessAtt

; 335  : }

  00530	83 4d fc ff	 or	 DWORD PTR __$EHRec$[ebp+8], -1
  00534	8d 4d 88	 lea	 ecx, DWORD PTR _szLinkBiped$[ebp]
  00537	ff 15 00 00 00
	00		 call	 DWORD PTR __imp_??1ioHashString@@QAE@XZ
$LN8@ProcessAtt:
  0053d	e8 00 00 00 00	 call	 __EH_epilog3_GS
  00542	c2 08 00	 ret	 8
_TEXT	ENDS
;	COMDAT text$x
text$x	SEGMENT
__unwindfunclet$?ProcessAttachMove@ioAdhesiveMissileWeapon4@@IAEXMPAVioPlayStage@@@Z$0:
  00000	8d 4d 88	 lea	 ecx, DWORD PTR _szLinkBiped$[ebp]
  00003	ff 25 00 00 00
	00		 jmp	 DWORD PTR __imp_??1ioHashString@@QAE@XZ
__unwindfunclet$?ProcessAttachMove@ioAdhesiveMissileWeapon4@@IAEXMPAVioPlayStage@@@Z$1:
  00009	8b 45 a4	 mov	 eax, DWORD PTR $T539655[ebp]
  0000c	83 e0 01	 and	 eax, 1
  0000f	0f 84 0d 00 00
	00		 je	 $LN14@ProcessAtt
  00015	83 65 a4 fe	 and	 DWORD PTR $T539655[ebp], -2 ; fffffffeH
  00019	8d 4d e0	 lea	 ecx, DWORD PTR $T539649[ebp]
  0001c	ff 25 00 00 00
	00		 jmp	 DWORD PTR __imp_??1ioHashString@@QAE@XZ
$LN14@ProcessAtt:
  00022	c3		 ret	 0
__unwindfunclet$?ProcessAttachMove@ioAdhesiveMissileWeapon4@@IAEXMPAVioPlayStage@@@Z$2:
  00023	8d 8d 70 ff ff
	ff		 lea	 ecx, DWORD PTR _pInfo$532666[ebp]
  00029	e9 00 00 00 00	 jmp	 ??1TargetInfo@ioAdhesiveMissileWeapon4@@QAE@XZ
__ehhandler$?ProcessAttachMove@ioAdhesiveMissileWeapon4@@IAEXMPAVioPlayStage@@@Z:
  0002e	8b 54 24 08	 mov	 edx, DWORD PTR [esp+8]
  00032	8d 42 0c	 lea	 eax, DWORD PTR [edx+12]
  00035	8b 8a 3c ff ff
	ff		 mov	 ecx, DWORD PTR [edx-196]
  0003b	33 c8		 xor	 ecx, eax
  0003d	e8 00 00 00 00	 call	 @__security_check_cookie@4
  00042	8b 4a fc	 mov	 ecx, DWORD PTR [edx-4]
  00045	33 c8		 xor	 ecx, eax
  00047	e8 00 00 00 00	 call	 @__security_check_cookie@4
  0004c	b8 00 00 00 00	 mov	 eax, OFFSET __ehfuncinfo$?ProcessAttachMove@ioAdhesiveMissileWeapon4@@IAEXMPAVioPlayStage@@@Z
  00051	e9 00 00 00 00	 jmp	 ___CxxFrameHandler3
text$x	ENDS
?ProcessAttachMove@ioAdhesiveMissileWeapon4@@IAEXMPAVioPlayStage@@@Z ENDP ; ioAdhesiveMissileWeapon4::ProcessAttachMove
PUBLIC	_pStage$GSCopy$
PUBLIC	?ProcessChop@ioAdhesiveMissileWeapon4@@IAEXMPAVioPlayStage@@@Z ; ioAdhesiveMissileWeapon4::ProcessChop
;	COMDAT xdata$x
xdata$x	SEGMENT
__unwindtable$?ProcessChop@ioAdhesiveMissileWeapon4@@IAEXMPAVioPlayStage@@@Z DD 0ffffffffH
	DD	FLAT:__unwindfunclet$?ProcessChop@ioAdhesiveMissileWeapon4@@IAEXMPAVioPlayStage@@@Z$0
	DD	00H
	DD	FLAT:__unwindfunclet$?ProcessChop@ioAdhesiveMissileWeapon4@@IAEXMPAVioPlayStage@@@Z$1
	DD	00H
	DD	FLAT:__unwindfunclet$?ProcessChop@ioAdhesiveMissileWeapon4@@IAEXMPAVioPlayStage@@@Z$2
__ehfuncinfo$?ProcessChop@ioAdhesiveMissileWeapon4@@IAEXMPAVioPlayStage@@@Z DD 019930522H
	DD	03H
	DD	FLAT:__unwindtable$?ProcessChop@ioAdhesiveMissileWeapon4@@IAEXMPAVioPlayStage@@@Z
	DD	2 DUP(00H)
	DD	2 DUP(00H)
	DD	00H
	DD	01H
; Function compile flags: /Ogsp
xdata$x	ENDS
;	COMDAT ?ProcessChop@ioAdhesiveMissileWeapon4@@IAEXMPAVioPlayStage@@@Z
_TEXT	SEGMENT
_qtLinkRotOffset$ = -176				; size = 16
_pInfo$532719 = -160					; size = 24
_qtNewRot$ = -136					; size = 16
$T540072 = -120						; size = 4
_szLinkBiped$ = -116					; size = 16
_pStage$GSCopy$ = -100					; size = 4
tv1463 = -96						; size = 4
tv1459 = -96						; size = 4
$T540071 = -96						; size = 4
$T540102 = -92						; size = 4
_fAngle$ = -92						; size = 4
_pOwner$ = -92						; size = 4
$T539872 = -85						; size = 1
tv1455 = -84						; size = 4
tv1396 = -84						; size = 4
$T540073 = -84						; size = 4
$T539960 = -84						; size = 4
_value$539968 = -84					; size = 4
_value$539972 = -84					; size = 4
$T539880 = -84						; size = 4
_fDotValue$ = -84					; size = 4
_vOwnerPos$ = -80					; size = 12
_vSideAxis$ = -68					; size = 12
_vLinkPosOffset$ = -56					; size = 12
_vDir$ = -44						; size = 12
$T539873 = -32						; size = 16
_v$539953 = -28						; size = 12
_vPos$532722 = -28					; size = 12
_vPos$ = -28						; size = 12
$T532697 = -28						; size = 12
$T532696 = -28						; size = 12
$T532695 = -28						; size = 12
$T532694 = -28						; size = 12
$T532693 = -28						; size = 12
__$EHRec$ = -12						; size = 12
_fTimePerSec$ = 8					; size = 4
_pStage$ = 12						; size = 4
?ProcessChop@ioAdhesiveMissileWeapon4@@IAEXMPAVioPlayStage@@@Z PROC ; ioAdhesiveMissileWeapon4::ProcessChop, COMDAT
; _this$ = ecx

; 338  : {

  00000	68 a4 00 00 00	 push	 164			; 000000a4H
  00005	b8 00 00 00 00	 mov	 eax, __ehhandler$?ProcessChop@ioAdhesiveMissileWeapon4@@IAEXMPAVioPlayStage@@@Z
  0000a	e8 00 00 00 00	 call	 __EH_prolog3_GS
  0000f	8b 45 0c	 mov	 eax, DWORD PTR _pStage$[ebp]

; 339  : 	ioBaseChar* pOwner = GetOwner();

  00012	33 f6		 xor	 esi, esi
  00014	8b d9		 mov	 ebx, ecx
  00016	89 45 9c	 mov	 DWORD PTR _pStage$GSCopy$[ebp], eax
  00019	89 75 ac	 mov	 DWORD PTR $T539880[ebp], esi
  0001c	e8 00 00 00 00	 call	 ?GetOwner@ioWeapon@@QBEPAVioBaseChar@@XZ ; ioWeapon::GetOwner
  00021	8b f8		 mov	 edi, eax
  00023	89 7d a4	 mov	 DWORD PTR _pOwner$[ebp], edi

; 340  : 	if( !pOwner )

  00026	3b fe		 cmp	 edi, esi
  00028	0f 84 38 06 00
	00		 je	 $LN9@ProcessCho

; 341  : 		return;
; 342  : 		
; 343  : 	ioHashString szLinkBiped;

  0002e	8d 4d 8c	 lea	 ecx, DWORD PTR _szLinkBiped$[ebp]
  00031	ff 15 00 00 00
	00		 call	 DWORD PTR __imp_??0ioHashString@@QAE@XZ

; 344  : 	D3DXVECTOR3 vLinkPosOffset;
; 345  : 	D3DXQUATERNION qtLinkRotOffset;
; 346  : 
; 347  : 	if( m_pFireBall->GetSkeletonName().IsEmpty() &&
; 348  : 		m_pFireBall->GetFirstLinkOffset(szLinkBiped, vLinkPosOffset, qtLinkRotOffset ) )

  00037	8b 8b a8 08 00
	00		 mov	 ecx, DWORD PTR [ebx+2216]
  0003d	8d 45 e0	 lea	 eax, DWORD PTR $T539873[ebp]
  00040	50		 push	 eax
  00041	89 75 fc	 mov	 DWORD PTR __$EHRec$[ebp+8], esi
  00044	ff 15 00 00 00
	00		 call	 DWORD PTR __imp_?GetSkeletonName@ioEffect@@QBE?AVioHashString@@XZ
  0004a	8b c8		 mov	 ecx, eax
  0004c	c6 45 fc 01	 mov	 BYTE PTR __$EHRec$[ebp+8], 1
  00050	c7 45 ac 01 00
	00 00		 mov	 DWORD PTR $T539880[ebp], 1
  00057	ff 15 00 00 00
	00		 call	 DWORD PTR __imp_?IsEmpty@ioHashString@@QBE_NXZ
  0005d	84 c0		 test	 al, al
  0005f	74 23		 je	 SHORT $LN11@ProcessCho
  00061	8b 8b a8 08 00
	00		 mov	 ecx, DWORD PTR [ebx+2216]
  00067	8d 85 50 ff ff
	ff		 lea	 eax, DWORD PTR _qtLinkRotOffset$[ebp]
  0006d	50		 push	 eax
  0006e	8d 45 c8	 lea	 eax, DWORD PTR _vLinkPosOffset$[ebp]
  00071	50		 push	 eax
  00072	8d 45 8c	 lea	 eax, DWORD PTR _szLinkBiped$[ebp]
  00075	50		 push	 eax
  00076	ff 15 00 00 00
	00		 call	 DWORD PTR __imp_?GetFirstLinkOffset@ioEffect@@QAE_NAAVioHashString@@AAUD3DXVECTOR3@@AAUD3DXQUATERNION@@@Z
  0007c	c6 45 ab 01	 mov	 BYTE PTR $T539872[ebp], 1
  00080	84 c0		 test	 al, al
  00082	75 04		 jne	 SHORT $LN12@ProcessCho
$LN11@ProcessCho:
  00084	c6 45 ab 00	 mov	 BYTE PTR $T539872[ebp], 0
$LN12@ProcessCho:
  00088	8d 4d e0	 lea	 ecx, DWORD PTR $T539873[ebp]
  0008b	89 75 fc	 mov	 DWORD PTR __$EHRec$[ebp+8], esi
  0008e	ff 15 00 00 00
	00		 call	 DWORD PTR __imp_??1ioHashString@@QAE@XZ
  00094	80 7d ab 00	 cmp	 BYTE PTR $T539872[ebp], 0
  00098	0f 84 3c 01 00
	00		 je	 $LN6@ProcessCho

; 349  : 	{
; 350  : 		ioBiped *pLinked = pOwner->GetGroup()->GetBiped( szLinkBiped );

  0009e	8b 4f 04	 mov	 ecx, DWORD PTR [edi+4]
  000a1	8d 45 8c	 lea	 eax, DWORD PTR _szLinkBiped$[ebp]
  000a4	50		 push	 eax
  000a5	ff 15 00 00 00
	00		 call	 DWORD PTR __imp_?GetBiped@ioEntityGroup@@QAEPAVioBiped@@ABVioHashString@@@Z
  000ab	8b f8		 mov	 edi, eax

; 351  : 		if( pLinked )

  000ad	3b fe		 cmp	 edi, esi
  000af	0f 84 25 01 00
	00		 je	 $LN6@ProcessCho

; 352  : 		{
; 353  : 			vLinkPosOffset = pLinked->GetDerivedOrientation() * vLinkPosOffset + pLinked->GetDerivedPosition();

  000b5	8b 07		 mov	 eax, DWORD PTR [edi]
  000b7	8b cf		 mov	 ecx, edi
  000b9	ff 50 7c	 call	 DWORD PTR [eax+124]
  000bc	8b f0		 mov	 esi, eax
  000be	8d 45 c8	 lea	 eax, DWORD PTR _vLinkPosOffset$[ebp]
  000c1	50		 push	 eax
  000c2	8b 07		 mov	 eax, DWORD PTR [edi]
  000c4	8b cf		 mov	 ecx, edi
  000c6	ff 50 78	 call	 DWORD PTR [eax+120]
  000c9	50		 push	 eax
  000ca	8d 45 e4	 lea	 eax, DWORD PTR $T532693[ebp]
  000cd	50		 push	 eax
  000ce	ff 15 00 00 00
	00		 call	 DWORD PTR __imp_??D@YA?AUD3DXVECTOR3@@ABUD3DXQUATERNION@@ABU0@@Z
  000d4	f3 0f 10 06	 movss	 xmm0, DWORD PTR [esi]
  000d8	f3 0f 10 08	 movss	 xmm1, DWORD PTR [eax]
  000dc	f3 0f 10 50 04	 movss	 xmm2, DWORD PTR [eax+4]
  000e1	f3 0f 10 58 08	 movss	 xmm3, DWORD PTR [eax+8]

; 354  : 			vLinkPosOffset = vLinkPosOffset * pOwner->GetWorldScale();

  000e6	8b 4d a4	 mov	 ecx, DWORD PTR _pOwner$[ebp]
  000e9	0f 5a c9	 cvtps2pd xmm1, xmm1
  000ec	0f 5a c0	 cvtps2pd xmm0, xmm0
  000ef	f2 0f 58 c1	 addsd	 xmm0, xmm1
  000f3	f3 0f 10 4e 04	 movss	 xmm1, DWORD PTR [esi+4]
  000f8	0f 5a d2	 cvtps2pd xmm2, xmm2
  000fb	0f 5a c9	 cvtps2pd xmm1, xmm1
  000fe	f2 0f 58 ca	 addsd	 xmm1, xmm2
  00102	f3 0f 10 56 08	 movss	 xmm2, DWORD PTR [esi+8]
  00107	0f 5a d2	 cvtps2pd xmm2, xmm2
  0010a	0f 5a db	 cvtps2pd xmm3, xmm3
  0010d	f2 0f 58 d3	 addsd	 xmm2, xmm3
  00111	66 0f 5a c0	 cvtpd2ps xmm0, xmm0
  00115	f3 0f 11 45 e4	 movss	 DWORD PTR $T532694[ebp], xmm0
  0011a	66 0f 5a c9	 cvtpd2ps xmm1, xmm1
  0011e	f3 0f 11 4d e8	 movss	 DWORD PTR $T532694[ebp+4], xmm1
  00123	66 0f 5a d2	 cvtpd2ps xmm2, xmm2
  00127	f3 0f 11 55 ec	 movss	 DWORD PTR $T532694[ebp+8], xmm2
  0012c	8d 75 e4	 lea	 esi, DWORD PTR $T532694[ebp]
  0012f	8d 7d c8	 lea	 edi, DWORD PTR _vLinkPosOffset$[ebp]
  00132	a5		 movsd
  00133	a5		 movsd
  00134	a5		 movsd
  00135	8b 01		 mov	 eax, DWORD PTR [ecx]
  00137	83 c4 0c	 add	 esp, 12			; 0000000cH
  0013a	ff 50 78	 call	 DWORD PTR [eax+120]
  0013d	50		 push	 eax
  0013e	8d 45 c8	 lea	 eax, DWORD PTR _vLinkPosOffset$[ebp]
  00141	50		 push	 eax
  00142	8d 45 e4	 lea	 eax, DWORD PTR $T532695[ebp]
  00145	50		 push	 eax
  00146	ff 15 00 00 00
	00		 call	 DWORD PTR __imp_??D@YA?AUD3DXVECTOR3@@ABU0@0@Z
  0014c	8b f0		 mov	 esi, eax
  0014e	8d 7d c8	 lea	 edi, DWORD PTR _vLinkPosOffset$[ebp]
  00151	a5		 movsd
  00152	a5		 movsd
  00153	a5		 movsd

; 355  : 			vLinkPosOffset = pOwner->GetWorldOrientation() * vLinkPosOffset + pOwner->GetWorldPosition();					

  00154	8b 7d a4	 mov	 edi, DWORD PTR _pOwner$[ebp]
  00157	8b 07		 mov	 eax, DWORD PTR [edi]
  00159	83 c4 0c	 add	 esp, 12			; 0000000cH
  0015c	8b cf		 mov	 ecx, edi
  0015e	ff 50 70	 call	 DWORD PTR [eax+112]
  00161	8b f0		 mov	 esi, eax
  00163	8d 45 c8	 lea	 eax, DWORD PTR _vLinkPosOffset$[ebp]
  00166	50		 push	 eax
  00167	8b 07		 mov	 eax, DWORD PTR [edi]
  00169	8b cf		 mov	 ecx, edi
  0016b	ff 50 74	 call	 DWORD PTR [eax+116]
  0016e	50		 push	 eax
  0016f	8d 45 e4	 lea	 eax, DWORD PTR $T532696[ebp]
  00172	50		 push	 eax
  00173	ff 15 00 00 00
	00		 call	 DWORD PTR __imp_??D@YA?AUD3DXVECTOR3@@ABUD3DXQUATERNION@@ABU0@@Z
  00179	f3 0f 10 06	 movss	 xmm0, DWORD PTR [esi]
  0017d	f3 0f 10 08	 movss	 xmm1, DWORD PTR [eax]
  00181	f3 0f 10 50 04	 movss	 xmm2, DWORD PTR [eax+4]
  00186	0f 5a c9	 cvtps2pd xmm1, xmm1
  00189	0f 5a c0	 cvtps2pd xmm0, xmm0
  0018c	f2 0f 58 c1	 addsd	 xmm0, xmm1
  00190	f3 0f 10 4e 04	 movss	 xmm1, DWORD PTR [esi+4]
  00195	0f 5a c9	 cvtps2pd xmm1, xmm1
  00198	0f 5a d2	 cvtps2pd xmm2, xmm2
  0019b	83 c4 0c	 add	 esp, 12			; 0000000cH
  0019e	66 0f 5a c0	 cvtpd2ps xmm0, xmm0
  001a2	f2 0f 58 ca	 addsd	 xmm1, xmm2
  001a6	f3 0f 10 56 08	 movss	 xmm2, DWORD PTR [esi+8]
  001ab	f3 0f 10 58 08	 movss	 xmm3, DWORD PTR [eax+8]
  001b0	0f 5a d2	 cvtps2pd xmm2, xmm2
  001b3	0f 5a db	 cvtps2pd xmm3, xmm3
  001b6	f2 0f 58 d3	 addsd	 xmm2, xmm3
  001ba	f3 0f 11 45 e4	 movss	 DWORD PTR $T532697[ebp], xmm0
  001bf	66 0f 5a c9	 cvtpd2ps xmm1, xmm1
  001c3	f3 0f 11 4d e8	 movss	 DWORD PTR $T532697[ebp+4], xmm1
  001c8	66 0f 5a d2	 cvtpd2ps xmm2, xmm2
  001cc	f3 0f 11 55 ec	 movss	 DWORD PTR $T532697[ebp+8], xmm2
  001d1	8d 75 e4	 lea	 esi, DWORD PTR $T532697[ebp]
  001d4	8d 7d c8	 lea	 edi, DWORD PTR _vLinkPosOffset$[ebp]
  001d7	a5		 movsd
  001d8	a5		 movsd
  001d9	a5		 movsd
$LN6@ProcessCho:

; 356  : 		}
; 357  : 	}
; 358  : 
; 359  : 	SetPosition( vLinkPosOffset );

  001da	8d 45 c8	 lea	 eax, DWORD PTR _vLinkPosOffset$[ebp]
  001dd	50		 push	 eax
  001de	8b cb		 mov	 ecx, ebx
  001e0	e8 00 00 00 00	 call	 ?SetPosition@ioWeapon@@QAEXABUD3DXVECTOR3@@@Z ; ioWeapon::SetPosition

; 360  : 
; 361  : 	D3DXVECTOR3 vOwnerPos = pOwner->GetMidPositionByRate();

  001e5	b8 05 00 00 00	 mov	 eax, 5
  001ea	8b c8		 mov	 ecx, eax
  001ec	b8 0a 00 00 00	 mov	 eax, 10			; 0000000aH
  001f1	89 4d a0	 mov	 DWORD PTR tv1463[ebp], ecx
  001f4	db 45 a0	 fild	 DWORD PTR tv1463[ebp]
  001f7	85 c9		 test	 ecx, ecx
  001f9	79 06		 jns	 SHORT $LN116@ProcessCho
  001fb	d8 05 00 00 00
	00		 fadd	 DWORD PTR __real@4f800000
$LN116@ProcessCho:
  00201	89 45 a0	 mov	 DWORD PTR tv1459[ebp], eax
  00204	db 45 a0	 fild	 DWORD PTR tv1459[ebp]
  00207	85 c0		 test	 eax, eax
  00209	79 06		 jns	 SHORT $LN117@ProcessCho
  0020b	d8 05 00 00 00
	00		 fadd	 DWORD PTR __real@4f800000
$LN117@ProcessCho:
  00211	de f9		 fdivp	 ST(1), ST(0)
  00213	51		 push	 ecx
  00214	8b 4d a4	 mov	 ecx, DWORD PTR _pOwner$[ebp]
  00217	8d 45 b0	 lea	 eax, DWORD PTR _vOwnerPos$[ebp]
  0021a	d9 5d ac	 fstp	 DWORD PTR tv1455[ebp]
  0021d	d9 45 ac	 fld	 DWORD PTR tv1455[ebp]
  00220	d9 1c 24	 fstp	 DWORD PTR [esp]
  00223	50		 push	 eax
  00224	e8 00 00 00 00	 call	 ?GetMidPositionByRate@ioGameEntity@@QBE?AUD3DXVECTOR3@@M@Z ; ioGameEntity::GetMidPositionByRate

; 362  : 	D3DXVECTOR3 vPos = GetPosition();

  00229	8b 03		 mov	 eax, DWORD PTR [ebx]
  0022b	8b cb		 mov	 ecx, ebx
  0022d	ff 50 70	 call	 DWORD PTR [eax+112]

; 363  : 	D3DXVECTOR3 vDir = vPos - vOwnerPos;

  00230	f3 0f 10 4d b0	 movss	 xmm1, DWORD PTR _vOwnerPos$[ebp]
  00235	f3 0f 10 55 b4	 movss	 xmm2, DWORD PTR _vOwnerPos$[ebp+4]
  0023a	f3 0f 10 5d b8	 movss	 xmm3, DWORD PTR _vOwnerPos$[ebp+8]
  0023f	8b f0		 mov	 esi, eax
  00241	8d 7d e4	 lea	 edi, DWORD PTR _vPos$[ebp]
  00244	a5		 movsd
  00245	a5		 movsd
  00246	a5		 movsd
  00247	f3 0f 10 45 e4	 movss	 xmm0, DWORD PTR _vPos$[ebp]
  0024c	0f 5a c9	 cvtps2pd xmm1, xmm1
  0024f	0f 5a c0	 cvtps2pd xmm0, xmm0
  00252	f2 0f 5c c1	 subsd	 xmm0, xmm1
  00256	f3 0f 10 4d e8	 movss	 xmm1, DWORD PTR _vPos$[ebp+4]
  0025b	0f 5a d2	 cvtps2pd xmm2, xmm2
  0025e	0f 5a c9	 cvtps2pd xmm1, xmm1
  00261	f2 0f 5c ca	 subsd	 xmm1, xmm2
  00265	f3 0f 10 55 ec	 movss	 xmm2, DWORD PTR _vPos$[ebp+8]

; 364  : 	D3DXVec3Normalize( &vDir, &vDir );

  0026a	8d 45 d4	 lea	 eax, DWORD PTR _vDir$[ebp]
  0026d	0f 5a d2	 cvtps2pd xmm2, xmm2
  00270	0f 5a db	 cvtps2pd xmm3, xmm3
  00273	50		 push	 eax
  00274	f2 0f 5c d3	 subsd	 xmm2, xmm3
  00278	66 0f 5a c0	 cvtpd2ps xmm0, xmm0
  0027c	66 0f 5a c9	 cvtpd2ps xmm1, xmm1
  00280	66 0f 5a d2	 cvtpd2ps xmm2, xmm2
  00284	50		 push	 eax
  00285	f3 0f 11 45 d4	 movss	 DWORD PTR _vDir$[ebp], xmm0
  0028a	f3 0f 11 4d d8	 movss	 DWORD PTR _vDir$[ebp+4], xmm1
  0028f	f3 0f 11 55 dc	 movss	 DWORD PTR _vDir$[ebp+8], xmm2
  00294	e8 00 00 00 00	 call	 _D3DXVec3Normalize@8

; 365  : 
; 366  : 	D3DXVECTOR3 vSideAxis;
; 367  : 	D3DXVec3Cross( &vSideAxis, &vDir, &ioMath::UNIT_Y );

  00299	a1 00 00 00 00	 mov	 eax, DWORD PTR __imp_?UNIT_Y@ioMath@@2UD3DXVECTOR3@@A
  0029e	f3 0f 10 40 08	 movss	 xmm0, DWORD PTR [eax+8]
  002a3	f3 0f 10 48 04	 movss	 xmm1, DWORD PTR [eax+4]
  002a8	f3 0f 10 55 d8	 movss	 xmm2, DWORD PTR _vDir$[ebp+4]
  002ad	0f 5a d8	 cvtps2pd xmm3, xmm0
  002b0	0f 5a e1	 cvtps2pd xmm4, xmm1
  002b3	0f 5a d2	 cvtps2pd xmm2, xmm2
  002b6	f2 0f 59 d3	 mulsd	 xmm2, xmm3
  002ba	f3 0f 10 5d dc	 movss	 xmm3, DWORD PTR _vDir$[ebp+8]
  002bf	0f 5a db	 cvtps2pd xmm3, xmm3
  002c2	f2 0f 59 dc	 mulsd	 xmm3, xmm4
  002c6	f2 0f 5c d3	 subsd	 xmm2, xmm3
  002ca	f3 0f 10 5d dc	 movss	 xmm3, DWORD PTR _vDir$[ebp+8]
  002cf	f2 0f 5a d2	 cvtsd2ss xmm2, xmm2
  002d3	f3 0f 11 55 e4	 movss	 DWORD PTR _v$539953[ebp], xmm2
  002d8	f3 0f 10 10	 movss	 xmm2, DWORD PTR [eax]
  002dc	0f 5a e2	 cvtps2pd xmm4, xmm2
  002df	0f 5a c0	 cvtps2pd xmm0, xmm0
  002e2	0f 5a db	 cvtps2pd xmm3, xmm3
  002e5	f2 0f 59 dc	 mulsd	 xmm3, xmm4
  002e9	f3 0f 10 65 d4	 movss	 xmm4, DWORD PTR _vDir$[ebp]
  002ee	0f 5a e4	 cvtps2pd xmm4, xmm4
  002f1	f2 0f 59 c4	 mulsd	 xmm0, xmm4
  002f5	f2 0f 5c d8	 subsd	 xmm3, xmm0
  002f9	0f 57 c0	 xorps	 xmm0, xmm0
  002fc	f2 0f 5a c3	 cvtsd2ss xmm0, xmm3
  00300	f3 0f 11 45 e8	 movss	 DWORD PTR _v$539953[ebp+4], xmm0
  00305	0f 5a d2	 cvtps2pd xmm2, xmm2
  00308	8d 75 e4	 lea	 esi, DWORD PTR _v$539953[ebp]
  0030b	0f 5a c1	 cvtps2pd xmm0, xmm1
  0030e	f3 0f 10 4d d4	 movss	 xmm1, DWORD PTR _vDir$[ebp]
  00313	0f 5a c9	 cvtps2pd xmm1, xmm1
  00316	f2 0f 59 c1	 mulsd	 xmm0, xmm1
  0031a	f3 0f 10 4d d8	 movss	 xmm1, DWORD PTR _vDir$[ebp+4]
  0031f	0f 5a c9	 cvtps2pd xmm1, xmm1
  00322	f2 0f 59 ca	 mulsd	 xmm1, xmm2
  00326	f2 0f 5c c1	 subsd	 xmm0, xmm1
  0032a	66 0f 5a c0	 cvtpd2ps xmm0, xmm0
  0032e	f3 0f 11 45 ec	 movss	 DWORD PTR _v$539953[ebp+8], xmm0
  00333	8d 7d bc	 lea	 edi, DWORD PTR _vSideAxis$[ebp]
  00336	a5		 movsd

; 368  : 	D3DXVec3Normalize( &vSideAxis, &vSideAxis );

  00337	8d 45 bc	 lea	 eax, DWORD PTR _vSideAxis$[ebp]
  0033a	a5		 movsd
  0033b	50		 push	 eax
  0033c	50		 push	 eax
  0033d	a5		 movsd
  0033e	e8 00 00 00 00	 call	 _D3DXVec3Normalize@8

; 369  : 	SetMoveDir( vDir );

  00343	8b 03		 mov	 eax, DWORD PTR [ebx]
  00345	8d 4d d4	 lea	 ecx, DWORD PTR _vDir$[ebp]
  00348	51		 push	 ecx
  00349	8b cb		 mov	 ecx, ebx
  0034b	ff 90 b0 00 00
	00		 call	 DWORD PTR [eax+176]

; 370  : 	
; 371  : 	// 
; 372  : 	float fDotValue = D3DXVec3Dot( &vDir, &ioMath::UNIT_Y );

  00351	a1 00 00 00 00	 mov	 eax, DWORD PTR __imp_?UNIT_Y@ioMath@@2UD3DXVECTOR3@@A
  00356	f3 0f 10 40 04	 movss	 xmm0, DWORD PTR [eax+4]
  0035b	f3 0f 10 4d d8	 movss	 xmm1, DWORD PTR _vDir$[ebp+4]
  00360	f3 0f 10 10	 movss	 xmm2, DWORD PTR [eax]
  00364	0f 5a c9	 cvtps2pd xmm1, xmm1
  00367	0f 5a c0	 cvtps2pd xmm0, xmm0
  0036a	f2 0f 59 c1	 mulsd	 xmm0, xmm1
  0036e	f3 0f 10 4d d4	 movss	 xmm1, DWORD PTR _vDir$[ebp]
  00373	0f 5a c9	 cvtps2pd xmm1, xmm1
  00376	0f 5a d2	 cvtps2pd xmm2, xmm2
  00379	f2 0f 59 ca	 mulsd	 xmm1, xmm2
  0037d	f3 0f 10 55 dc	 movss	 xmm2, DWORD PTR _vDir$[ebp+8]
  00382	f2 0f 58 c1	 addsd	 xmm0, xmm1
  00386	f3 0f 10 48 08	 movss	 xmm1, DWORD PTR [eax+8]
  0038b	0f 5a c9	 cvtps2pd xmm1, xmm1
  0038e	0f 5a d2	 cvtps2pd xmm2, xmm2
  00391	f2 0f 59 ca	 mulsd	 xmm1, xmm2
  00395	f2 0f 58 c1	 addsd	 xmm0, xmm1
  00399	66 0f 5a c0	 cvtpd2ps xmm0, xmm0
  0039d	f3 0f 11 45 ac	 movss	 DWORD PTR _fDotValue$[ebp], xmm0

; 373  : 	float fAngle = RADtoDEG(acosf(fDotValue));

  003a2	d9 45 ac	 fld	 DWORD PTR _fDotValue$[ebp]
  003a5	e8 00 00 00 00	 call	 __CIacos
  003aa	d9 5d ac	 fstp	 DWORD PTR tv1396[ebp]
  003ad	d9 45 ac	 fld	 DWORD PTR tv1396[ebp]
  003b0	51		 push	 ecx
  003b1	d9 5d ac	 fstp	 DWORD PTR $T539960[ebp]
  003b4	f3 0f 10 45 ac	 movss	 xmm0, DWORD PTR $T539960[ebp]
  003b9	f3 0f 11 04 24	 movss	 DWORD PTR [esp], xmm0
  003be	e8 00 00 00 00	 call	 ??$RADtoDEG@M@@YAMM@Z	; RADtoDEG<float>
  003c3	d9 5d a4	 fstp	 DWORD PTR _fAngle$[ebp]
  003c6	59		 pop	 ecx

; 374  : 
; 375  : 	if( m_fLimitAngle > 0.0f && fAngle > m_fLimitAngle )

  003c7	8d 45 ac	 lea	 eax, DWORD PTR _value$539968[ebp]
  003ca	50		 push	 eax
  003cb	8d 8b 3c 09 00
	00		 lea	 ecx, DWORD PTR [ebx+2364]
  003d1	e8 00 00 00 00	 call	 ?DecryptValueToPool@?$CEncrypt@M@@QAEXPAM@Z ; CEncrypt<float>::DecryptValueToPool
  003d6	f3 0f 10 45 ac	 movss	 xmm0, DWORD PTR _value$539968[ebp]
  003db	0f 2f 05 00 00
	00 00		 comiss	 xmm0, DWORD PTR __real@00000000
  003e2	76 34		 jbe	 SHORT $LN5@ProcessCho
  003e4	8d 45 ac	 lea	 eax, DWORD PTR _value$539972[ebp]
  003e7	50		 push	 eax
  003e8	8d 8b 3c 09 00
	00		 lea	 ecx, DWORD PTR [ebx+2364]
  003ee	e8 00 00 00 00	 call	 ?DecryptValueToPool@?$CEncrypt@M@@QAEXPAM@Z ; CEncrypt<float>::DecryptValueToPool
  003f3	f3 0f 10 45 a4	 movss	 xmm0, DWORD PTR _fAngle$[ebp]
  003f8	f3 0f 10 4d ac	 movss	 xmm1, DWORD PTR _value$539972[ebp]
  003fd	0f 5a c0	 cvtps2pd xmm0, xmm0
  00400	0f 5a c9	 cvtps2pd xmm1, xmm1
  00403	66 0f 2f c1	 comisd	 xmm0, xmm1
  00407	76 0f		 jbe	 SHORT $LN5@ProcessCho

; 376  : 	{
; 377  : 		Explosion(pStage);

  00409	ff 75 9c	 push	 DWORD PTR _pStage$GSCopy$[ebp]
  0040c	8b cb		 mov	 ecx, ebx
  0040e	e8 00 00 00 00	 call	 ?Explosion@ioAdhesiveMissileWeapon4@@QAEXPAVioPlayStage@@@Z ; ioAdhesiveMissileWeapon4::Explosion

; 378  : 		return;

  00413	e9 41 02 00 00	 jmp	 $LN118@ProcessCho
$LN5@ProcessCho:

; 379  : 	}
; 380  : 	
; 381  : 
; 382  : 	D3DXQUATERNION qtNewRot = GetOrientation();

  00418	8b cb		 mov	 ecx, ebx
  0041a	e8 00 00 00 00	 call	 ?GetOrientation@ioWeapon@@QBEABUD3DXQUATERNION@@XZ ; ioWeapon::GetOrientation
  0041f	8b f0		 mov	 esi, eax
  00421	8d bd 78 ff ff
	ff		 lea	 edi, DWORD PTR _qtNewRot$[ebp]
  00427	a5		 movsd
  00428	a5		 movsd
  00429	a5		 movsd
  0042a	a5		 movsd

; 383  : 
; 384  : 	TargetInfoList::iterator iter;
; 385  : 	for( iter = m_TargetInfoList.begin(); iter != m_TargetInfoList.end(); ++iter )

  0042b	8b b3 98 08 00
	00		 mov	 esi, DWORD PTR [ebx+2200]
  00431	e9 00 02 00 00	 jmp	 $LN119@ProcessCho
$LL70@ProcessCho:

; 386  : 	{
; 387  : 		TargetInfo pInfo = (*iter);

  00436	56		 push	 esi
  00437	8d 8d 60 ff ff
	ff		 lea	 ecx, DWORD PTR _pInfo$532719[ebp]
  0043d	ff 15 00 00 00
	00		 call	 DWORD PTR __imp_??0ioHashString@@QAE@ABV0@@Z
  00443	f3 0f 10 46 10	 movss	 xmm0, DWORD PTR [esi+16]
  00448	f3 0f 11 85 70
	ff ff ff	 movss	 DWORD PTR _pInfo$532719[ebp+16], xmm0
  00450	f3 0f 10 46 14	 movss	 xmm0, DWORD PTR [esi+20]
  00455	f3 0f 11 85 74
	ff ff ff	 movss	 DWORD PTR _pInfo$532719[ebp+20], xmm0

; 388  : 		ioBaseChar* pTarget = pStage->GetBaseChar( pInfo.m_szTargetName );

  0045d	8b 4d 9c	 mov	 ecx, DWORD PTR _pStage$GSCopy$[ebp]
  00460	8d 85 60 ff ff
	ff		 lea	 eax, DWORD PTR _pInfo$532719[ebp]
  00466	50		 push	 eax
  00467	c6 45 fc 02	 mov	 BYTE PTR __$EHRec$[ebp+8], 2
  0046b	e8 00 00 00 00	 call	 ?GetBaseChar@ioPlayStage@@QAEPAVioBaseChar@@ABVioHashString@@@Z ; ioPlayStage::GetBaseChar
  00470	8b f8		 mov	 edi, eax

; 389  : 		if( pTarget && pTarget->HasBuff(BT_SKIP_STUN) )

  00472	85 ff		 test	 edi, edi
  00474	0f 84 a9 01 00
	00		 je	 $LN1@ProcessCho
  0047a	6a 4b		 push	 75			; 0000004bH
  0047c	8b cf		 mov	 ecx, edi
  0047e	e8 00 00 00 00	 call	 ?HasBuff@ioBaseChar@@QBE_NH@Z ; ioBaseChar::HasBuff
  00483	84 c0		 test	 al, al
  00485	0f 84 98 01 00
	00		 je	 $LN1@ProcessCho

; 390  : 		{
; 391  : 			D3DXVECTOR3 vPos = GetPosition() + ( vDir * pInfo.m_fLength );

  0048b	f3 0f 10 8d 70
	ff ff ff	 movss	 xmm1, DWORD PTR _pInfo$532719[ebp+16]
  00493	f3 0f 10 45 d4	 movss	 xmm0, DWORD PTR _vDir$[ebp]
  00498	8b 03		 mov	 eax, DWORD PTR [ebx]
  0049a	0f 5a c0	 cvtps2pd xmm0, xmm0
  0049d	0f 5a c9	 cvtps2pd xmm1, xmm1
  004a0	f2 0f 59 c1	 mulsd	 xmm0, xmm1
  004a4	f3 0f 10 8d 70
	ff ff ff	 movss	 xmm1, DWORD PTR _pInfo$532719[ebp+16]
  004ac	66 0f 5a c0	 cvtpd2ps xmm0, xmm0
  004b0	f3 0f 11 45 ac	 movss	 DWORD PTR $T540073[ebp], xmm0
  004b5	f3 0f 10 45 d8	 movss	 xmm0, DWORD PTR _vDir$[ebp+4]
  004ba	0f 5a c0	 cvtps2pd xmm0, xmm0
  004bd	0f 5a c9	 cvtps2pd xmm1, xmm1
  004c0	f2 0f 59 c1	 mulsd	 xmm0, xmm1
  004c4	f3 0f 10 8d 70
	ff ff ff	 movss	 xmm1, DWORD PTR _pInfo$532719[ebp+16]
  004cc	66 0f 5a c0	 cvtpd2ps xmm0, xmm0
  004d0	f3 0f 11 45 88	 movss	 DWORD PTR $T540072[ebp], xmm0
  004d5	f3 0f 10 45 dc	 movss	 xmm0, DWORD PTR _vDir$[ebp+8]
  004da	0f 5a c0	 cvtps2pd xmm0, xmm0
  004dd	0f 5a c9	 cvtps2pd xmm1, xmm1
  004e0	f2 0f 59 c1	 mulsd	 xmm0, xmm1
  004e4	66 0f 5a c0	 cvtpd2ps xmm0, xmm0
  004e8	8b cb		 mov	 ecx, ebx
  004ea	f3 0f 11 45 a0	 movss	 DWORD PTR $T540071[ebp], xmm0
  004ef	ff 50 70	 call	 DWORD PTR [eax+112]
  004f2	f3 0f 10 00	 movss	 xmm0, DWORD PTR [eax]
  004f6	f3 0f 10 55 88	 movss	 xmm2, DWORD PTR $T540072[ebp]
  004fb	f3 0f 10 4d ac	 movss	 xmm1, DWORD PTR $T540073[ebp]
  00500	f3 0f 10 5d a0	 movss	 xmm3, DWORD PTR $T540071[ebp]
  00505	0f 5a c9	 cvtps2pd xmm1, xmm1
  00508	0f 5a c0	 cvtps2pd xmm0, xmm0
  0050b	f2 0f 58 c1	 addsd	 xmm0, xmm1
  0050f	f3 0f 10 48 04	 movss	 xmm1, DWORD PTR [eax+4]
  00514	0f 5a c9	 cvtps2pd xmm1, xmm1
  00517	0f 5a d2	 cvtps2pd xmm2, xmm2
  0051a	f2 0f 58 ca	 addsd	 xmm1, xmm2
  0051e	66 0f 5a c0	 cvtpd2ps xmm0, xmm0
  00522	0f 5a db	 cvtps2pd xmm3, xmm3

; 392  : 			
; 393  : 			vPos.y -= pInfo.m_fHeightGap;
; 394  : 			vPos += vSideAxis * -m_WorldAttackBox.GetExtents(0);

  00525	6a 00		 push	 0
  00527	8d 8b e8 04 00
	00		 lea	 ecx, DWORD PTR [ebx+1256]
  0052d	66 0f 5a d1	 cvtpd2ps xmm2, xmm1
  00531	f3 0f 10 48 08	 movss	 xmm1, DWORD PTR [eax+8]
  00536	0f 5a c9	 cvtps2pd xmm1, xmm1
  00539	f2 0f 58 cb	 addsd	 xmm1, xmm3
  0053d	66 0f 5a c9	 cvtpd2ps xmm1, xmm1
  00541	f3 0f 11 45 e4	 movss	 DWORD PTR _vPos$532722[ebp], xmm0
  00546	f3 0f 11 4d ec	 movss	 DWORD PTR _vPos$532722[ebp+8], xmm1
  0054b	f3 0f 10 8d 74
	ff ff ff	 movss	 xmm1, DWORD PTR _pInfo$532719[ebp+20]
  00553	0f 5a c2	 cvtps2pd xmm0, xmm2
  00556	0f 5a c9	 cvtps2pd xmm1, xmm1
  00559	f2 0f 5c c1	 subsd	 xmm0, xmm1
  0055d	66 0f 5a c0	 cvtpd2ps xmm0, xmm0
  00561	f3 0f 11 45 e8	 movss	 DWORD PTR _vPos$532722[ebp+4], xmm0
  00566	ff 15 00 00 00
	00		 call	 DWORD PTR __imp_?GetExtents@ioOrientBox@@QBEMH@Z
  0056c	d9 e0		 fchs
  0056e	f3 0f 10 45 bc	 movss	 xmm0, DWORD PTR _vSideAxis$[ebp]
  00573	d9 5d a4	 fstp	 DWORD PTR $T540102[ebp]
  00576	f3 0f 10 4d a4	 movss	 xmm1, DWORD PTR $T540102[ebp]
  0057b	f3 0f 10 55 a4	 movss	 xmm2, DWORD PTR $T540102[ebp]
  00580	f3 0f 10 5d a4	 movss	 xmm3, DWORD PTR $T540102[ebp]
  00585	0f 5a c0	 cvtps2pd xmm0, xmm0
  00588	0f 5a c9	 cvtps2pd xmm1, xmm1
  0058b	f2 0f 59 c1	 mulsd	 xmm0, xmm1
  0058f	f3 0f 10 4d c0	 movss	 xmm1, DWORD PTR _vSideAxis$[ebp+4]
  00594	0f 5a d2	 cvtps2pd xmm2, xmm2
  00597	0f 5a c9	 cvtps2pd xmm1, xmm1
  0059a	f2 0f 59 ca	 mulsd	 xmm1, xmm2
  0059e	f3 0f 10 55 c4	 movss	 xmm2, DWORD PTR _vSideAxis$[ebp+8]
  005a3	66 0f 5a c0	 cvtpd2ps xmm0, xmm0
  005a7	0f 5a db	 cvtps2pd xmm3, xmm3
  005aa	0f 5a d2	 cvtps2pd xmm2, xmm2
  005ad	f2 0f 59 d3	 mulsd	 xmm2, xmm3
  005b1	f3 0f 10 5d e4	 movss	 xmm3, DWORD PTR _vPos$532722[ebp]
  005b6	f3 0f 5a c0	 cvtss2sd xmm0, xmm0
  005ba	0f 5a db	 cvtps2pd xmm3, xmm3
  005bd	f2 0f 58 c3	 addsd	 xmm0, xmm3
  005c1	66 0f 5a c0	 cvtpd2ps xmm0, xmm0
  005c5	f3 0f 11 45 e4	 movss	 DWORD PTR _vPos$532722[ebp], xmm0
  005ca	66 0f 5a c9	 cvtpd2ps xmm1, xmm1
  005ce	0f 57 c0	 xorps	 xmm0, xmm0
  005d1	66 0f 5a d2	 cvtpd2ps xmm2, xmm2
  005d5	f3 0f 5a c1	 cvtss2sd xmm0, xmm1
  005d9	f3 0f 10 4d e8	 movss	 xmm1, DWORD PTR _vPos$532722[ebp+4]

; 395  : 
; 396  : 			pTarget->SetWorldPosition( vPos );

  005de	8b 07		 mov	 eax, DWORD PTR [edi]
  005e0	0f 5a c9	 cvtps2pd xmm1, xmm1
  005e3	f2 0f 58 c1	 addsd	 xmm0, xmm1
  005e7	66 0f 5a c0	 cvtpd2ps xmm0, xmm0
  005eb	f3 0f 11 45 e8	 movss	 DWORD PTR _vPos$532722[ebp+4], xmm0
  005f0	f3 0f 10 45 ec	 movss	 xmm0, DWORD PTR _vPos$532722[ebp+8]
  005f5	0f 5a c0	 cvtps2pd xmm0, xmm0
  005f8	0f 57 c9	 xorps	 xmm1, xmm1
  005fb	8d 4d e4	 lea	 ecx, DWORD PTR _vPos$532722[ebp]
  005fe	f3 0f 5a ca	 cvtss2sd xmm1, xmm2
  00602	f2 0f 58 c1	 addsd	 xmm0, xmm1
  00606	51		 push	 ecx
  00607	66 0f 5a c0	 cvtpd2ps xmm0, xmm0
  0060b	8b cf		 mov	 ecx, edi
  0060d	f3 0f 11 45 ec	 movss	 DWORD PTR _vPos$532722[ebp+8], xmm0
  00612	ff 50 44	 call	 DWORD PTR [eax+68]

; 397  : 			pTarget->SetWorldOrientation( qtNewRot );

  00615	8b 07		 mov	 eax, DWORD PTR [edi]
  00617	8d 8d 78 ff ff
	ff		 lea	 ecx, DWORD PTR _qtNewRot$[ebp]
  0061d	51		 push	 ecx
  0061e	8b cf		 mov	 ecx, edi
  00620	ff 50 48	 call	 DWORD PTR [eax+72]
$LN1@ProcessCho:

; 398  : 		}
; 399  : 	}

  00623	8d 8d 60 ff ff
	ff		 lea	 ecx, DWORD PTR _pInfo$532719[ebp]
  00629	c6 45 fc 00	 mov	 BYTE PTR __$EHRec$[ebp+8], 0
  0062d	ff 15 00 00 00
	00		 call	 DWORD PTR __imp_??1ioHashString@@QAE@XZ
  00633	83 c6 18	 add	 esi, 24			; 00000018H
$LN119@ProcessCho:

; 383  : 
; 384  : 	TargetInfoList::iterator iter;
; 385  : 	for( iter = m_TargetInfoList.begin(); iter != m_TargetInfoList.end(); ++iter )

  00636	3b b3 9c 08 00
	00		 cmp	 esi, DWORD PTR [ebx+2204]
  0063c	0f 85 f4 fd ff
	ff		 jne	 $LL70@ProcessCho

; 400  : 		
; 401  : 	UpdateWorldAttackBox( fTimePerSec, false );

  00642	f3 0f 10 45 08	 movss	 xmm0, DWORD PTR _fTimePerSec$[ebp]
  00647	8b 03		 mov	 eax, DWORD PTR [ebx]
  00649	6a 00		 push	 0
  0064b	51		 push	 ecx
  0064c	8b cb		 mov	 ecx, ebx
  0064e	f3 0f 11 04 24	 movss	 DWORD PTR [esp], xmm0
  00653	ff 90 38 01 00
	00		 call	 DWORD PTR [eax+312]
$LN118@ProcessCho:

; 402  : }

  00659	83 4d fc ff	 or	 DWORD PTR __$EHRec$[ebp+8], -1
  0065d	8d 4d 8c	 lea	 ecx, DWORD PTR _szLinkBiped$[ebp]
  00660	ff 15 00 00 00
	00		 call	 DWORD PTR __imp_??1ioHashString@@QAE@XZ
$LN9@ProcessCho:
  00666	e8 00 00 00 00	 call	 __EH_epilog3_GS
  0066b	c2 08 00	 ret	 8
_TEXT	ENDS
;	COMDAT text$x
text$x	SEGMENT
__unwindfunclet$?ProcessChop@ioAdhesiveMissileWeapon4@@IAEXMPAVioPlayStage@@@Z$0:
  00000	8d 4d 8c	 lea	 ecx, DWORD PTR _szLinkBiped$[ebp]
  00003	ff 25 00 00 00
	00		 jmp	 DWORD PTR __imp_??1ioHashString@@QAE@XZ
__unwindfunclet$?ProcessChop@ioAdhesiveMissileWeapon4@@IAEXMPAVioPlayStage@@@Z$1:
  00009	8b 45 ac	 mov	 eax, DWORD PTR $T539880[ebp]
  0000c	83 e0 01	 and	 eax, 1
  0000f	0f 84 0d 00 00
	00		 je	 $LN15@ProcessCho
  00015	83 65 ac fe	 and	 DWORD PTR $T539880[ebp], -2 ; fffffffeH
  00019	8d 4d e0	 lea	 ecx, DWORD PTR $T539873[ebp]
  0001c	ff 25 00 00 00
	00		 jmp	 DWORD PTR __imp_??1ioHashString@@QAE@XZ
$LN15@ProcessCho:
  00022	c3		 ret	 0
__unwindfunclet$?ProcessChop@ioAdhesiveMissileWeapon4@@IAEXMPAVioPlayStage@@@Z$2:
  00023	8d 8d 60 ff ff
	ff		 lea	 ecx, DWORD PTR _pInfo$532719[ebp]
  00029	e9 00 00 00 00	 jmp	 ??1TargetInfo@ioAdhesiveMissileWeapon4@@QAE@XZ
__ehhandler$?ProcessChop@ioAdhesiveMissileWeapon4@@IAEXMPAVioPlayStage@@@Z:
  0002e	8b 54 24 08	 mov	 edx, DWORD PTR [esp+8]
  00032	8d 42 0c	 lea	 eax, DWORD PTR [edx+12]
  00035	8b 8a 4c ff ff
	ff		 mov	 ecx, DWORD PTR [edx-180]
  0003b	33 c8		 xor	 ecx, eax
  0003d	e8 00 00 00 00	 call	 @__security_check_cookie@4
  00042	8b 4a fc	 mov	 ecx, DWORD PTR [edx-4]
  00045	33 c8		 xor	 ecx, eax
  00047	e8 00 00 00 00	 call	 @__security_check_cookie@4
  0004c	b8 00 00 00 00	 mov	 eax, OFFSET __ehfuncinfo$?ProcessChop@ioAdhesiveMissileWeapon4@@IAEXMPAVioPlayStage@@@Z
  00051	e9 00 00 00 00	 jmp	 ___CxxFrameHandler3
text$x	ENDS
?ProcessChop@ioAdhesiveMissileWeapon4@@IAEXMPAVioPlayStage@@@Z ENDP ; ioAdhesiveMissileWeapon4::ProcessChop
; Function compile flags: /Ogsp
;	COMDAT ?CheckPreCollision@ioAdhesiveMissileWeapon4@@UAEXPAVioPlayEntity@@PAVioPlayStage@@@Z
_TEXT	SEGMENT
_value$540138 = 8					; size = 4
_pTarget$ = 8						; size = 4
_pStage$ = 12						; size = 4
?CheckPreCollision@ioAdhesiveMissileWeapon4@@UAEXPAVioPlayEntity@@PAVioPlayStage@@@Z PROC ; ioAdhesiveMissileWeapon4::CheckPreCollision, COMDAT
; _this$ = ecx

; 500  : {

  00000	55		 push	 ebp
  00001	8b ec		 mov	 ebp, esp
  00003	53		 push	 ebx
  00004	56		 push	 esi

; 501  : 	if( pTarget->IsWoundedCollision( GetWorldAttackBox() ) )

  00005	8b 75 08	 mov	 esi, DWORD PTR _pTarget$[ebp]
  00008	57		 push	 edi
  00009	8b 3e		 mov	 edi, DWORD PTR [esi]
  0000b	6a 00		 push	 0
  0000d	6a 00		 push	 0
  0000f	8b d9		 mov	 ebx, ecx
  00011	e8 00 00 00 00	 call	 ?GetWorldAttackBox@ioWeapon@@QBEABVioOrientBox@@_N@Z ; ioWeapon::GetWorldAttackBox
  00016	50		 push	 eax
  00017	8b ce		 mov	 ecx, esi
  00019	ff 97 90 00 00
	00		 call	 DWORD PTR [edi+144]
  0001f	84 c0		 test	 al, al
  00021	0f 84 89 00 00
	00		 je	 $LN4@CheckPreCo

; 502  : 	{
; 503  : 		if( ToSymbolStruct(pTarget) || ToPushStruct(pTarget) || ToBallStruct(pTarget) ||
; 504  : 			ToDummyChar(pTarget) || ToWallZone(pTarget) )

  00027	56		 push	 esi
  00028	e8 00 00 00 00	 call	 ?ToSymbolStruct@@YAPAVioSymbolStruct@@PAVioGameEntity@@@Z ; ToSymbolStruct
  0002d	59		 pop	 ecx
  0002e	85 c0		 test	 eax, eax
  00030	75 2c		 jne	 SHORT $LN3@CheckPreCo
  00032	56		 push	 esi
  00033	e8 00 00 00 00	 call	 ?ToPushStruct@@YAPAVioPushStruct@@PAVioGameEntity@@@Z ; ToPushStruct
  00038	59		 pop	 ecx
  00039	85 c0		 test	 eax, eax
  0003b	75 21		 jne	 SHORT $LN3@CheckPreCo
  0003d	56		 push	 esi
  0003e	e8 00 00 00 00	 call	 ?ToBallStruct@@YAPAVioBall@@PAVioGameEntity@@@Z ; ToBallStruct
  00043	59		 pop	 ecx
  00044	85 c0		 test	 eax, eax
  00046	75 16		 jne	 SHORT $LN3@CheckPreCo
  00048	56		 push	 esi
  00049	e8 00 00 00 00	 call	 ?ToDummyChar@@YAPAVioDummyChar@@PAVioGameEntity@@@Z ; ToDummyChar
  0004e	59		 pop	 ecx
  0004f	85 c0		 test	 eax, eax
  00051	75 0b		 jne	 SHORT $LN3@CheckPreCo
  00053	56		 push	 esi
  00054	e8 00 00 00 00	 call	 ?ToWallZone@@YAPAVioWallZone@@PAVioGameEntity@@@Z ; ToWallZone
  00059	59		 pop	 ecx
  0005a	85 c0		 test	 eax, eax
  0005c	74 52		 je	 SHORT $LN4@CheckPreCo
$LN3@CheckPreCo:

; 505  : 		{
; 506  : 			if( GetOwner() )

  0005e	8b cb		 mov	 ecx, ebx
  00060	e8 00 00 00 00	 call	 ?GetOwner@ioWeapon@@QBEPAVioBaseChar@@XZ ; ioWeapon::GetOwner
  00065	85 c0		 test	 eax, eax
  00067	74 3d		 je	 SHORT $LN1@CheckPreCo

; 507  : 			{
; 508  : 				if( ToDummyChar(pTarget) && ToDummyChar(pTarget)->IsCharCollisionSkipState(GetOwner()->GetTeam()) )

  00069	56		 push	 esi
  0006a	e8 00 00 00 00	 call	 ?ToDummyChar@@YAPAVioDummyChar@@PAVioGameEntity@@@Z ; ToDummyChar
  0006f	59		 pop	 ecx
  00070	85 c0		 test	 eax, eax
  00072	74 32		 je	 SHORT $LN1@CheckPreCo
  00074	56		 push	 esi
  00075	e8 00 00 00 00	 call	 ?ToDummyChar@@YAPAVioDummyChar@@PAVioGameEntity@@@Z ; ToDummyChar
  0007a	59		 pop	 ecx
  0007b	8b cb		 mov	 ecx, ebx
  0007d	8b f0		 mov	 esi, eax
  0007f	e8 00 00 00 00	 call	 ?GetOwner@ioWeapon@@QBEPAVioBaseChar@@XZ ; ioWeapon::GetOwner
  00084	8d 4d 08	 lea	 ecx, DWORD PTR _value$540138[ebp]
  00087	51		 push	 ecx
  00088	8d 88 90 00 00
	00		 lea	 ecx, DWORD PTR [eax+144]
  0008e	e8 00 00 00 00	 call	 ?DecryptValueToPool@?$CEncrypt@W4TeamType@@@@QAEXPAW4TeamType@@@Z ; CEncrypt<enum TeamType>::DecryptValueToPool
  00093	8b 06		 mov	 eax, DWORD PTR [esi]
  00095	6a 00		 push	 0
  00097	ff 75 08	 push	 DWORD PTR _value$540138[ebp]
  0009a	8b ce		 mov	 ecx, esi
  0009c	ff 90 8c 00 00
	00		 call	 DWORD PTR [eax+140]
  000a2	84 c0		 test	 al, al
  000a4	75 0a		 jne	 SHORT $LN4@CheckPreCo
$LN1@CheckPreCo:

; 509  : 					return;
; 510  : 			}
; 511  : 
; 512  : 			Explosion( pStage );

  000a6	ff 75 0c	 push	 DWORD PTR _pStage$[ebp]
  000a9	8b cb		 mov	 ecx, ebx
  000ab	e8 00 00 00 00	 call	 ?Explosion@ioAdhesiveMissileWeapon4@@QAEXPAVioPlayStage@@@Z ; ioAdhesiveMissileWeapon4::Explosion
$LN4@CheckPreCo:
  000b0	5f		 pop	 edi
  000b1	5e		 pop	 esi
  000b2	5b		 pop	 ebx

; 513  : 			return;
; 514  : 		}
; 515  : 	}
; 516  : }

  000b3	5d		 pop	 ebp
  000b4	c2 08 00	 ret	 8
?CheckPreCollision@ioAdhesiveMissileWeapon4@@UAEXPAVioPlayEntity@@PAVioPlayStage@@@Z ENDP ; ioAdhesiveMissileWeapon4::CheckPreCollision
_TEXT	ENDS
EXTRN	??5SP2Packet@@QAEAAV0@AAM@Z:PROC		; SP2Packet::operator>>
EXTRN	??5SP2Packet@@QAEAAV0@AAVioHashString@@@Z:PROC	; SP2Packet::operator>>
EXTRN	??5SP2Packet@@QAEAAV0@AA_N@Z:PROC		; SP2Packet::operator>>
EXTRN	??5SP2Packet@@QAEAAV0@AAH@Z:PROC		; SP2Packet::operator>>
;	COMDAT xdata$x
xdata$x	SEGMENT
__unwindtable$?ApplyWeaponSync@ioAdhesiveMissileWeapon4@@UAEXAAVSP2Packet@@PAVioPlayStage@@@Z DD 0ffffffffH
	DD	FLAT:__unwindfunclet$?ApplyWeaponSync@ioAdhesiveMissileWeapon4@@UAEXAAVSP2Packet@@PAVioPlayStage@@@Z$0
__ehfuncinfo$?ApplyWeaponSync@ioAdhesiveMissileWeapon4@@UAEXAAVSP2Packet@@PAVioPlayStage@@@Z DD 019930522H
	DD	01H
	DD	FLAT:__unwindtable$?ApplyWeaponSync@ioAdhesiveMissileWeapon4@@UAEXAAVSP2Packet@@PAVioPlayStage@@@Z
	DD	2 DUP(00H)
	DD	2 DUP(00H)
	DD	00H
	DD	01H
; Function compile flags: /Ogsp
xdata$x	ENDS
;	COMDAT ?ApplyWeaponSync@ioAdhesiveMissileWeapon4@@UAEXAAVSP2Packet@@PAVioPlayStage@@@Z
_TEXT	SEGMENT
_pInfo$532861 = -36					; size = 24
__$EHRec$ = -12						; size = 12
_iSyncType$ = 8						; size = 4
_rkPacket$ = 8						; size = 4
_pStage$ = 12						; size = 4
?ApplyWeaponSync@ioAdhesiveMissileWeapon4@@UAEXAAVSP2Packet@@PAVioPlayStage@@@Z PROC ; ioAdhesiveMissileWeapon4::ApplyWeaponSync, COMDAT
; _this$ = ecx

; 630  : {

  00000	6a 18		 push	 24			; 00000018H
  00002	b8 00 00 00 00	 mov	 eax, __ehhandler$?ApplyWeaponSync@ioAdhesiveMissileWeapon4@@UAEXAAVSP2Packet@@PAVioPlayStage@@@Z
  00007	e8 00 00 00 00	 call	 __EH_prolog3
  0000c	8b f1		 mov	 esi, ecx

; 631  : 	int iSyncType;
; 632  : 	rkPacket >> iSyncType;

  0000e	8b 7d 08	 mov	 edi, DWORD PTR _rkPacket$[ebp]
  00011	8d 45 08	 lea	 eax, DWORD PTR _iSyncType$[ebp]
  00014	50		 push	 eax
  00015	8b cf		 mov	 ecx, edi
  00017	e8 00 00 00 00	 call	 ??5SP2Packet@@QAEAAV0@AAH@Z ; SP2Packet::operator>>

; 633  : 
; 634  : 	switch( iSyncType )

  0001c	8b 45 08	 mov	 eax, DWORD PTR _iSyncType$[ebp]
  0001f	83 e8 00	 sub	 eax, 0
  00022	74 1d		 je	 SHORT $LN1@ApplyWeapo
  00024	48		 dec	 eax
  00025	75 64		 jne	 SHORT $LN3@ApplyWeapo

; 635  : 	{
; 636  : 	case STC_TEST_MAP_COLLISION:
; 637  : 		rkPacket >> m_bMapCollision;

  00027	8d 86 19 09 00
	00		 lea	 eax, DWORD PTR [esi+2329]
  0002d	50		 push	 eax
  0002e	8b cf		 mov	 ecx, edi
  00030	e8 00 00 00 00	 call	 ??5SP2Packet@@QAEAAV0@AA_N@Z ; SP2Packet::operator>>

; 638  : 		Explosion( pStage );

  00035	ff 75 0c	 push	 DWORD PTR _pStage$[ebp]
  00038	8b ce		 mov	 ecx, esi
  0003a	e8 00 00 00 00	 call	 ?Explosion@ioAdhesiveMissileWeapon4@@QAEXPAVioPlayStage@@@Z ; ioAdhesiveMissileWeapon4::Explosion

; 639  : 		break;

  0003f	eb 4a		 jmp	 SHORT $LN3@ApplyWeapo
$LN1@ApplyWeapo:

; 640  : 	case STC_CHAR_COLLISION:
; 641  : 		{
; 642  : 			TargetInfo pInfo;

  00041	8d 4d dc	 lea	 ecx, DWORD PTR _pInfo$532861[ebp]
  00044	ff 15 00 00 00
	00		 call	 DWORD PTR __imp_??0ioHashString@@QAE@XZ
  0004a	83 65 fc 00	 and	 DWORD PTR __$EHRec$[ebp+8], 0

; 643  : 			rkPacket >> pInfo.m_szTargetName;

  0004e	8d 45 dc	 lea	 eax, DWORD PTR _pInfo$532861[ebp]
  00051	50		 push	 eax
  00052	8b cf		 mov	 ecx, edi
  00054	e8 00 00 00 00	 call	 ??5SP2Packet@@QAEAAV0@AAVioHashString@@@Z ; SP2Packet::operator>>

; 644  : 			rkPacket >> pInfo.m_fLength;

  00059	8d 45 ec	 lea	 eax, DWORD PTR _pInfo$532861[ebp+16]
  0005c	50		 push	 eax
  0005d	8b cf		 mov	 ecx, edi
  0005f	e8 00 00 00 00	 call	 ??5SP2Packet@@QAEAAV0@AAM@Z ; SP2Packet::operator>>

; 645  : 			rkPacket >> pInfo.m_fHeightGap;

  00064	8d 45 f0	 lea	 eax, DWORD PTR _pInfo$532861[ebp+20]
  00067	50		 push	 eax
  00068	8b cf		 mov	 ecx, edi
  0006a	e8 00 00 00 00	 call	 ??5SP2Packet@@QAEAAV0@AAM@Z ; SP2Packet::operator>>

; 646  : 
; 647  : 			m_TargetInfoList.push_back( pInfo );

  0006f	8d 45 dc	 lea	 eax, DWORD PTR _pInfo$532861[ebp]
  00072	50		 push	 eax
  00073	8d 8e 98 08 00
	00		 lea	 ecx, DWORD PTR [esi+2200]
  00079	e8 00 00 00 00	 call	 ?push_back@?$vector@UTargetInfo@ioAdhesiveMissileWeapon4@@V?$allocator@UTargetInfo@ioAdhesiveMissileWeapon4@@@std@@@std@@QAEXABUTargetInfo@ioAdhesiveMissileWeapon4@@@Z ; std::vector<ioAdhesiveMissileWeapon4::TargetInfo,std::allocator<ioAdhesiveMissileWeapon4::TargetInfo> >::push_back

; 648  : 		}

  0007e	83 4d fc ff	 or	 DWORD PTR __$EHRec$[ebp+8], -1
  00082	8d 4d dc	 lea	 ecx, DWORD PTR _pInfo$532861[ebp]
  00085	ff 15 00 00 00
	00		 call	 DWORD PTR __imp_??1ioHashString@@QAE@XZ
$LN3@ApplyWeapo:

; 649  : 		break;
; 650  : 	}
; 651  : }

  0008b	e8 00 00 00 00	 call	 __EH_epilog3
  00090	c2 08 00	 ret	 8
_TEXT	ENDS
;	COMDAT text$x
text$x	SEGMENT
__unwindfunclet$?ApplyWeaponSync@ioAdhesiveMissileWeapon4@@UAEXAAVSP2Packet@@PAVioPlayStage@@@Z$0:
  00000	8d 4d dc	 lea	 ecx, DWORD PTR _pInfo$532861[ebp]
  00003	e9 00 00 00 00	 jmp	 ??1TargetInfo@ioAdhesiveMissileWeapon4@@QAE@XZ
__ehhandler$?ApplyWeaponSync@ioAdhesiveMissileWeapon4@@UAEXAAVSP2Packet@@PAVioPlayStage@@@Z:
  00008	8b 54 24 08	 mov	 edx, DWORD PTR [esp+8]
  0000c	8d 42 0c	 lea	 eax, DWORD PTR [edx+12]
  0000f	8b 4a d8	 mov	 ecx, DWORD PTR [edx-40]
  00012	33 c8		 xor	 ecx, eax
  00014	e8 00 00 00 00	 call	 @__security_check_cookie@4
  00019	b8 00 00 00 00	 mov	 eax, OFFSET __ehfuncinfo$?ApplyWeaponSync@ioAdhesiveMissileWeapon4@@UAEXAAVSP2Packet@@PAVioPlayStage@@@Z
  0001e	e9 00 00 00 00	 jmp	 ___CxxFrameHandler3
text$x	ENDS
?ApplyWeaponSync@ioAdhesiveMissileWeapon4@@UAEXAAVSP2Packet@@PAVioPlayStage@@@Z ENDP ; ioAdhesiveMissileWeapon4::ApplyWeaponSync
EXTRN	?CheckGrapplingExceptionState@ioBaseChar@@QAE_NXZ:PROC ; ioBaseChar::CheckGrapplingExceptionState
; Function compile flags: /Ogsp
;	COMDAT ?Process@ioAdhesiveMissileWeapon4@@UAEXMPAVioPlayStage@@@Z
_TEXT	SEGMENT
$T540166 = -8						; size = 4
$T540164 = -4						; size = 4
_fTimePerSec$ = 8					; size = 4
tv281 = 12						; size = 4
tv277 = 12						; size = 4
_pStage$ = 12						; size = 4
?Process@ioAdhesiveMissileWeapon4@@UAEXMPAVioPlayStage@@@Z PROC ; ioAdhesiveMissileWeapon4::Process, COMDAT
; _this$ = ecx

; 244  : {

  00000	55		 push	 ebp
  00001	8b ec		 mov	 ebp, esp
  00003	51		 push	 ecx
  00004	51		 push	 ecx
  00005	53		 push	 ebx
  00006	56		 push	 esi
  00007	57		 push	 edi
  00008	8b f9		 mov	 edi, ecx

; 245  : 	//   .
; 246  : 	TargetInfoList::iterator iter = m_TargetInfoList.begin();

  0000a	8b b7 98 08 00
	00		 mov	 esi, DWORD PTR [edi+2200]
  00010	eb 34		 jmp	 SHORT $LN49@Process
$LL12@Process:

; 248  : 	{
; 249  : 		ioBaseChar *pTarget = pStage->GetBaseChar( (*iter).m_szTargetName );

  00012	8b 4d 0c	 mov	 ecx, DWORD PTR _pStage$[ebp]
  00015	56		 push	 esi
  00016	e8 00 00 00 00	 call	 ?GetBaseChar@ioPlayStage@@QAEPAVioBaseChar@@ABVioHashString@@@Z ; ioPlayStage::GetBaseChar

; 250  : 		if( pTarget )

  0001b	85 c0		 test	 eax, eax
  0001d	74 15		 je	 SHORT $LN10@Process

; 251  : 		{
; 252  : 			if( !pTarget->CheckGrapplingExceptionState() )

  0001f	8b c8		 mov	 ecx, eax
  00021	e8 00 00 00 00	 call	 ?CheckGrapplingExceptionState@ioBaseChar@@QAE_NXZ ; ioBaseChar::CheckGrapplingExceptionState
  00026	84 c0		 test	 al, al
  00028	75 05		 jne	 SHORT $LN9@Process

; 253  : 				iter = m_TargetInfoList.erase(iter);

  0002a	8d 45 fc	 lea	 eax, DWORD PTR $T540164[ebp]

; 254  : 			else

  0002d	eb 08		 jmp	 SHORT $LN50@Process
$LN9@Process:

; 255  : 				++iter;

  0002f	83 c6 18	 add	 esi, 24			; 00000018H

; 256  : 		}
; 257  : 		else

  00032	eb 12		 jmp	 SHORT $LN49@Process
$LN10@Process:

; 258  : 			iter = m_TargetInfoList.erase(iter);

  00034	8d 45 f8	 lea	 eax, DWORD PTR $T540166[ebp]
$LN50@Process:
  00037	56		 push	 esi
  00038	50		 push	 eax
  00039	8d 8f 98 08 00
	00		 lea	 ecx, DWORD PTR [edi+2200]
  0003f	e8 00 00 00 00	 call	 ?erase@?$vector@UTargetInfo@ioAdhesiveMissileWeapon4@@V?$allocator@UTargetInfo@ioAdhesiveMissileWeapon4@@@std@@@std@@QAE?AV?$_Vector_iterator@V?$_Vector_val@UTargetInfo@ioAdhesiveMissileWeapon4@@V?$allocator@UTargetInfo@ioAdhesiveMissileWeapon4@@@std@@@std@@@2@V?$_Vector_const_iterator@V?$_Vector_val@UTargetInfo@ioAdhesiveMissileWeapon4@@V?$allocator@UTargetInfo@ioAdhesiveMissileWeapon4@@@std@@@std@@@2@@Z ; std::vector<ioAdhesiveMissileWeapon4::TargetInfo,std::allocator<ioAdhesiveMissileWeapon4::TargetInfo> >::erase
  00044	8b 30		 mov	 esi, DWORD PTR [eax]
$LN49@Process:

; 247  : 	while( iter != m_TargetInfoList.end() )

  00046	3b b7 9c 08 00
	00		 cmp	 esi, DWORD PTR [edi+2204]
  0004c	75 c4		 jne	 SHORT $LL12@Process

; 259  : 	}
; 260  : 
; 261  : 	switch( m_State )

  0004e	8b 87 94 08 00
	00		 mov	 eax, DWORD PTR [edi+2196]
  00054	48		 dec	 eax
  00055	74 1a		 je	 SHORT $LN3@Process
  00057	48		 dec	 eax
  00058	75 2c		 jne	 SHORT $LN5@Process

; 269  : 		break;
; 270  : 	case WS_CHOP:				
; 271  : 		ProcessChop( fTimePerSec, pStage );

  0005a	ff 75 0c	 push	 DWORD PTR _pStage$[ebp]
  0005d	f3 0f 10 45 08	 movss	 xmm0, DWORD PTR _fTimePerSec$[ebp]
  00062	51		 push	 ecx
  00063	8b cf		 mov	 ecx, edi
  00065	f3 0f 11 04 24	 movss	 DWORD PTR [esp], xmm0
  0006a	e8 00 00 00 00	 call	 ?ProcessChop@ioAdhesiveMissileWeapon4@@IAEXMPAVioPlayStage@@@Z ; ioAdhesiveMissileWeapon4::ProcessChop

; 272  : 		break;

  0006f	eb 15		 jmp	 SHORT $LN5@Process
$LN3@Process:

; 262  : 	{	
; 263  : 	case WS_INIT:
; 264  : 		{
; 265  : 		}
; 266  : 		break;
; 267  : 	case WS_ATTACH_MOVE:
; 268  : 		ProcessAttachMove( fTimePerSec, pStage );

  00071	ff 75 0c	 push	 DWORD PTR _pStage$[ebp]
  00074	f3 0f 10 45 08	 movss	 xmm0, DWORD PTR _fTimePerSec$[ebp]
  00079	51		 push	 ecx
  0007a	8b cf		 mov	 ecx, edi
  0007c	f3 0f 11 04 24	 movss	 DWORD PTR [esp], xmm0
  00081	e8 00 00 00 00	 call	 ?ProcessAttachMove@ioAdhesiveMissileWeapon4@@IAEXMPAVioPlayStage@@@Z ; ioAdhesiveMissileWeapon4::ProcessAttachMove
$LN5@Process:

; 273  : 	}
; 274  : 
; 275  : 	if( m_pFireBall )

  00086	8d 8f a8 08 00
	00		 lea	 ecx, DWORD PTR [edi+2216]
  0008c	83 39 00	 cmp	 DWORD PTR [ecx], 0
  0008f	5f		 pop	 edi
  00090	5e		 pop	 esi
  00091	5b		 pop	 ebx
  00092	74 2c		 je	 SHORT $LN1@Process

; 276  : 	{
; 277  : 		m_pFireBall->Update( fTimePerSec * FLOAT1000 );

  00094	b8 e8 03 00 00	 mov	 eax, 1000		; 000003e8H
  00099	8b 09		 mov	 ecx, DWORD PTR [ecx]
  0009b	83 c1 14	 add	 ecx, 20			; 00000014H
  0009e	8b 11		 mov	 edx, DWORD PTR [ecx]
  000a0	89 45 0c	 mov	 DWORD PTR tv281[ebp], eax
  000a3	db 45 0c	 fild	 DWORD PTR tv281[ebp]
  000a6	85 c0		 test	 eax, eax
  000a8	79 06		 jns	 SHORT $LN48@Process
  000aa	d8 05 00 00 00
	00		 fadd	 DWORD PTR __real@4f800000
$LN48@Process:
  000b0	d8 4d 08	 fmul	 DWORD PTR _fTimePerSec$[ebp]
  000b3	51		 push	 ecx
  000b4	d9 5d 0c	 fstp	 DWORD PTR tv277[ebp]
  000b7	d9 45 0c	 fld	 DWORD PTR tv277[ebp]
  000ba	d9 1c 24	 fstp	 DWORD PTR [esp]
  000bd	ff 52 40	 call	 DWORD PTR [edx+64]
$LN1@Process:

; 278  : 	}
; 279  : }

  000c0	c9		 leave
  000c1	c2 08 00	 ret	 8
?Process@ioAdhesiveMissileWeapon4@@UAEXMPAVioPlayStage@@@Z ENDP ; ioAdhesiveMissileWeapon4::Process
_TEXT	ENDS
END
