; Listing generated by Microsoft (R) Optimizing Compiler Version 16.00.30319.01 

	TITLE	D:\Lost Saga For Developer\Youtube\Tutorial\Source\src\LSClient\ioAffectWoundedValueBuff.cpp
	.686P
	.XMM
	include listing.inc
	.model	flat

INCLUDELIB MSVCRT
INCLUDELIB OLDNAMES

PUBLIC	?return1@@YAIXZ					; return1
; Function compile flags: /Ogsp
; File d:\lost saga for developer\youtube\tutorial\source\src\lsclient\stdafx.h
;	COMDAT ?return1@@YAIXZ
_TEXT	SEGMENT
?return1@@YAIXZ PROC					; return1, COMDAT

; 17   : 	__forceinline unsigned int return1() { __asm mov eax, 1 };

  00000	b8 01 00 00 00	 mov	 eax, 1
  00005	c3		 ret	 0
?return1@@YAIXZ ENDP					; return1
_TEXT	ENDS
PUBLIC	?return100@@YAIXZ				; return100
; Function compile flags: /Ogsp
;	COMDAT ?return100@@YAIXZ
_TEXT	SEGMENT
?return100@@YAIXZ PROC					; return100, COMDAT

; 25   : 	__forceinline unsigned int return100() { __asm mov eax, 100 };

  00000	b8 64 00 00 00	 mov	 eax, 100		; 00000064H
  00005	c3		 ret	 0
?return100@@YAIXZ ENDP					; return100
_TEXT	ENDS
PUBLIC	?GetRandomSeed@ioBaseChar@@QBEKXZ		; ioBaseChar::GetRandomSeed
; Function compile flags: /Ogsp
; File d:\lost saga for developer\youtube\tutorial\source\src\lsclient\iobasechar.h
;	COMDAT ?GetRandomSeed@ioBaseChar@@QBEKXZ
_TEXT	SEGMENT
?GetRandomSeed@ioBaseChar@@QBEKXZ PROC			; ioBaseChar::GetRandomSeed, COMDAT
; _this$ = ecx

; 3372 : 	inline DWORD GetRandomSeed() const { return m_dwRandomSeed; }

  00000	8b 81 74 16 00
	00		 mov	 eax, DWORD PTR [ecx+5748]
  00006	c3		 ret	 0
?GetRandomSeed@ioBaseChar@@QBEKXZ ENDP			; ioBaseChar::GetRandomSeed
_TEXT	ENDS
PUBLIC	?GetGetupDurationTime@ioBaseChar@@QAEKXZ	; ioBaseChar::GetGetupDurationTime
; Function compile flags: /Ogsp
;	COMDAT ?GetGetupDurationTime@ioBaseChar@@QAEKXZ
_TEXT	SEGMENT
?GetGetupDurationTime@ioBaseChar@@QAEKXZ PROC		; ioBaseChar::GetGetupDurationTime, COMDAT
; _this$ = ecx

; 4303 : 	DWORD GetGetupDurationTime() { return m_dwGetUpDurationTime; }

  00000	8b 81 94 0f 00
	00		 mov	 eax, DWORD PTR [ecx+3988]
  00006	c3		 ret	 0
?GetGetupDurationTime@ioBaseChar@@QAEKXZ ENDP		; ioBaseChar::GetGetupDurationTime
_TEXT	ENDS
PUBLIC	__real@4f800000
PUBLIC	??0AffectRate@ioAffectWoundedValueBuff@@QAE@XZ	; ioAffectWoundedValueBuff::AffectRate::AffectRate
EXTRN	__fltused:DWORD
;	COMDAT __real@4f800000
; File d:\lost saga for developer\youtube\tutorial\source\src\lsclient\stdafx.h
CONST	SEGMENT
__real@4f800000 DD 04f800000r			; 4.29497e+009
; Function compile flags: /Ogsp
; File d:\lost saga for developer\youtube\tutorial\source\src\lsclient\ioaffectwoundedvaluebuff.h
CONST	ENDS
;	COMDAT ??0AffectRate@ioAffectWoundedValueBuff@@QAE@XZ
_TEXT	SEGMENT
tv137 = -4						; size = 4
tv133 = -4						; size = 4
tv129 = -4						; size = 4
??0AffectRate@ioAffectWoundedValueBuff@@QAE@XZ PROC	; ioAffectWoundedValueBuff::AffectRate::AffectRate, COMDAT
; _this$ = ecx

; 16   : 		AffectRate()

  00000	55		 push	 ebp
  00001	8b ec		 mov	 ebp, esp
  00003	51		 push	 ecx

; 17   : 		{
; 18   : 			m_fMinRate = FLOAT1;

  00004	b8 01 00 00 00	 mov	 eax, 1
  00009	89 45 fc	 mov	 DWORD PTR tv137[ebp], eax
  0000c	db 45 fc	 fild	 DWORD PTR tv137[ebp]
  0000f	85 c0		 test	 eax, eax
  00011	79 06		 jns	 SHORT $LN9@AffectRate
  00013	d8 05 00 00 00
	00		 fadd	 DWORD PTR __real@4f800000
$LN9@AffectRate:
  00019	d9 19		 fstp	 DWORD PTR [ecx]

; 19   : 			m_fMaxRate = FLOAT1;

  0001b	b8 01 00 00 00	 mov	 eax, 1
  00020	89 45 fc	 mov	 DWORD PTR tv133[ebp], eax
  00023	db 45 fc	 fild	 DWORD PTR tv133[ebp]
  00026	85 c0		 test	 eax, eax
  00028	79 06		 jns	 SHORT $LN10@AffectRate
  0002a	d8 05 00 00 00
	00		 fadd	 DWORD PTR __real@4f800000
$LN10@AffectRate:
  00030	d9 59 04	 fstp	 DWORD PTR [ecx+4]

; 20   : 			m_fRate = FLOAT1;

  00033	b8 01 00 00 00	 mov	 eax, 1
  00038	89 45 fc	 mov	 DWORD PTR tv129[ebp], eax
  0003b	db 45 fc	 fild	 DWORD PTR tv129[ebp]
  0003e	85 c0		 test	 eax, eax
  00040	79 06		 jns	 SHORT $LN11@AffectRate
  00042	d8 05 00 00 00
	00		 fadd	 DWORD PTR __real@4f800000
$LN11@AffectRate:
  00048	d9 59 08	 fstp	 DWORD PTR [ecx+8]

; 21   : 		}

  0004b	8b c1		 mov	 eax, ecx
  0004d	c9		 leave
  0004e	c3		 ret	 0
??0AffectRate@ioAffectWoundedValueBuff@@QAE@XZ ENDP	; ioAffectWoundedValueBuff::AffectRate::AffectRate
_TEXT	ENDS
PUBLIC	?GetPushPowerRate@ioAffectWoundedValueBuff@@QAE?BMXZ ; ioAffectWoundedValueBuff::GetPushPowerRate
; Function compile flags: /Ogsp
;	COMDAT ?GetPushPowerRate@ioAffectWoundedValueBuff@@QAE?BMXZ
_TEXT	SEGMENT
?GetPushPowerRate@ioAffectWoundedValueBuff@@QAE?BMXZ PROC ; ioAffectWoundedValueBuff::GetPushPowerRate, COMDAT
; _this$ = ecx

; 71   : 	const float GetPushPowerRate()		{ return m_PushPower.m_fRate; }

  00000	d9 81 74 09 00
	00		 fld	 DWORD PTR [ecx+2420]
  00006	c3		 ret	 0
?GetPushPowerRate@ioAffectWoundedValueBuff@@QAE?BMXZ ENDP ; ioAffectWoundedValueBuff::GetPushPowerRate
_TEXT	ENDS
PUBLIC	?GetAirPushPowerRate@ioAffectWoundedValueBuff@@QAE?BMXZ ; ioAffectWoundedValueBuff::GetAirPushPowerRate
; Function compile flags: /Ogsp
;	COMDAT ?GetAirPushPowerRate@ioAffectWoundedValueBuff@@QAE?BMXZ
_TEXT	SEGMENT
?GetAirPushPowerRate@ioAffectWoundedValueBuff@@QAE?BMXZ PROC ; ioAffectWoundedValueBuff::GetAirPushPowerRate, COMDAT
; _this$ = ecx

; 72   : 	const float GetAirPushPowerRate()	{ return m_AirPushPower.m_fRate; }

  00000	d9 81 80 09 00
	00		 fld	 DWORD PTR [ecx+2432]
  00006	c3		 ret	 0
?GetAirPushPowerRate@ioAffectWoundedValueBuff@@QAE?BMXZ ENDP ; ioAffectWoundedValueBuff::GetAirPushPowerRate
_TEXT	ENDS
PUBLIC	?GetDownPushPowerRate@ioAffectWoundedValueBuff@@QAE?BMXZ ; ioAffectWoundedValueBuff::GetDownPushPowerRate
; Function compile flags: /Ogsp
;	COMDAT ?GetDownPushPowerRate@ioAffectWoundedValueBuff@@QAE?BMXZ
_TEXT	SEGMENT
?GetDownPushPowerRate@ioAffectWoundedValueBuff@@QAE?BMXZ PROC ; ioAffectWoundedValueBuff::GetDownPushPowerRate, COMDAT
; _this$ = ecx

; 73   : 	const float GetDownPushPowerRate()	{ return m_DownPushPower.m_fRate; }

  00000	d9 81 8c 09 00
	00		 fld	 DWORD PTR [ecx+2444]
  00006	c3		 ret	 0
?GetDownPushPowerRate@ioAffectWoundedValueBuff@@QAE?BMXZ ENDP ; ioAffectWoundedValueBuff::GetDownPushPowerRate
_TEXT	ENDS
PUBLIC	?GetBlowPowerRate@ioAffectWoundedValueBuff@@QAE?BMXZ ; ioAffectWoundedValueBuff::GetBlowPowerRate
; Function compile flags: /Ogsp
;	COMDAT ?GetBlowPowerRate@ioAffectWoundedValueBuff@@QAE?BMXZ
_TEXT	SEGMENT
?GetBlowPowerRate@ioAffectWoundedValueBuff@@QAE?BMXZ PROC ; ioAffectWoundedValueBuff::GetBlowPowerRate, COMDAT
; _this$ = ecx

; 75   : 	const float GetBlowPowerRate()		{ return m_BlowPower.m_fRate; }

  00000	d9 81 98 09 00
	00		 fld	 DWORD PTR [ecx+2456]
  00006	c3		 ret	 0
?GetBlowPowerRate@ioAffectWoundedValueBuff@@QAE?BMXZ ENDP ; ioAffectWoundedValueBuff::GetBlowPowerRate
_TEXT	ENDS
PUBLIC	?GetAirBlowPowerRate@ioAffectWoundedValueBuff@@QAE?BMXZ ; ioAffectWoundedValueBuff::GetAirBlowPowerRate
; Function compile flags: /Ogsp
;	COMDAT ?GetAirBlowPowerRate@ioAffectWoundedValueBuff@@QAE?BMXZ
_TEXT	SEGMENT
?GetAirBlowPowerRate@ioAffectWoundedValueBuff@@QAE?BMXZ PROC ; ioAffectWoundedValueBuff::GetAirBlowPowerRate, COMDAT
; _this$ = ecx

; 76   : 	const float GetAirBlowPowerRate()	{ return m_AirBlowPower.m_fRate; }

  00000	d9 81 a4 09 00
	00		 fld	 DWORD PTR [ecx+2468]
  00006	c3		 ret	 0
?GetAirBlowPowerRate@ioAffectWoundedValueBuff@@QAE?BMXZ ENDP ; ioAffectWoundedValueBuff::GetAirBlowPowerRate
_TEXT	ENDS
PUBLIC	?GetDownBlowPowerRate@ioAffectWoundedValueBuff@@QAE?BMXZ ; ioAffectWoundedValueBuff::GetDownBlowPowerRate
; Function compile flags: /Ogsp
;	COMDAT ?GetDownBlowPowerRate@ioAffectWoundedValueBuff@@QAE?BMXZ
_TEXT	SEGMENT
?GetDownBlowPowerRate@ioAffectWoundedValueBuff@@QAE?BMXZ PROC ; ioAffectWoundedValueBuff::GetDownBlowPowerRate, COMDAT
; _this$ = ecx

; 77   : 	const float GetDownBlowPowerRate()	{ return m_DownBlowPower.m_fRate; }

  00000	d9 81 b0 09 00
	00		 fld	 DWORD PTR [ecx+2480]
  00006	c3		 ret	 0
?GetDownBlowPowerRate@ioAffectWoundedValueBuff@@QAE?BMXZ ENDP ; ioAffectWoundedValueBuff::GetDownBlowPowerRate
_TEXT	ENDS
PUBLIC	?GetBoundJumpPowerRate@ioAffectWoundedValueBuff@@QAE?BMXZ ; ioAffectWoundedValueBuff::GetBoundJumpPowerRate
; Function compile flags: /Ogsp
;	COMDAT ?GetBoundJumpPowerRate@ioAffectWoundedValueBuff@@QAE?BMXZ
_TEXT	SEGMENT
?GetBoundJumpPowerRate@ioAffectWoundedValueBuff@@QAE?BMXZ PROC ; ioAffectWoundedValueBuff::GetBoundJumpPowerRate, COMDAT
; _this$ = ecx

; 79   : 	const float GetBoundJumpPowerRate()	{ return m_BoundJumpPower.m_fRate; }

  00000	d9 81 bc 09 00
	00		 fld	 DWORD PTR [ecx+2492]
  00006	c3		 ret	 0
?GetBoundJumpPowerRate@ioAffectWoundedValueBuff@@QAE?BMXZ ENDP ; ioAffectWoundedValueBuff::GetBoundJumpPowerRate
_TEXT	ENDS
PUBLIC	?GetBoundForcePowerRate@ioAffectWoundedValueBuff@@QAE?BMXZ ; ioAffectWoundedValueBuff::GetBoundForcePowerRate
; Function compile flags: /Ogsp
;	COMDAT ?GetBoundForcePowerRate@ioAffectWoundedValueBuff@@QAE?BMXZ
_TEXT	SEGMENT
?GetBoundForcePowerRate@ioAffectWoundedValueBuff@@QAE?BMXZ PROC ; ioAffectWoundedValueBuff::GetBoundForcePowerRate, COMDAT
; _this$ = ecx

; 80   : 	const float GetBoundForcePowerRate(){ return m_BoundForcePower.m_fRate; }

  00000	d9 81 c8 09 00
	00		 fld	 DWORD PTR [ecx+2504]
  00006	c3		 ret	 0
?GetBoundForcePowerRate@ioAffectWoundedValueBuff@@QAE?BMXZ ENDP ; ioAffectWoundedValueBuff::GetBoundForcePowerRate
_TEXT	ENDS
PUBLIC	?GetBoundGravityRate@ioAffectWoundedValueBuff@@QAE?BMXZ ; ioAffectWoundedValueBuff::GetBoundGravityRate
; Function compile flags: /Ogsp
;	COMDAT ?GetBoundGravityRate@ioAffectWoundedValueBuff@@QAE?BMXZ
_TEXT	SEGMENT
?GetBoundGravityRate@ioAffectWoundedValueBuff@@QAE?BMXZ PROC ; ioAffectWoundedValueBuff::GetBoundGravityRate, COMDAT
; _this$ = ecx

; 81   : 	const float GetBoundGravityRate()	{ return m_BoundGravity.m_fRate; }

  00000	d9 81 d4 09 00
	00		 fld	 DWORD PTR [ecx+2516]
  00006	c3		 ret	 0
?GetBoundGravityRate@ioAffectWoundedValueBuff@@QAE?BMXZ ENDP ; ioAffectWoundedValueBuff::GetBoundGravityRate
_TEXT	ENDS
PUBLIC	?GetBoundDamageRate@ioAffectWoundedValueBuff@@QAE?BMXZ ; ioAffectWoundedValueBuff::GetBoundDamageRate
; Function compile flags: /Ogsp
;	COMDAT ?GetBoundDamageRate@ioAffectWoundedValueBuff@@QAE?BMXZ
_TEXT	SEGMENT
?GetBoundDamageRate@ioAffectWoundedValueBuff@@QAE?BMXZ PROC ; ioAffectWoundedValueBuff::GetBoundDamageRate, COMDAT
; _this$ = ecx

; 82   : 	const float GetBoundDamageRate()	{ return m_BoundDamage.m_fRate; }

  00000	d9 81 e0 09 00
	00		 fld	 DWORD PTR [ecx+2528]
  00006	c3		 ret	 0
?GetBoundDamageRate@ioAffectWoundedValueBuff@@QAE?BMXZ ENDP ; ioAffectWoundedValueBuff::GetBoundDamageRate
_TEXT	ENDS
PUBLIC	?GetDamageRate@ioAffectWoundedValueBuff@@QAE?BMXZ ; ioAffectWoundedValueBuff::GetDamageRate
; Function compile flags: /Ogsp
;	COMDAT ?GetDamageRate@ioAffectWoundedValueBuff@@QAE?BMXZ
_TEXT	SEGMENT
?GetDamageRate@ioAffectWoundedValueBuff@@QAE?BMXZ PROC	; ioAffectWoundedValueBuff::GetDamageRate, COMDAT
; _this$ = ecx

; 84   : 	const float GetDamageRate()			{ return m_Damage.m_fRate; }

  00000	d9 81 ec 09 00
	00		 fld	 DWORD PTR [ecx+2540]
  00006	c3		 ret	 0
?GetDamageRate@ioAffectWoundedValueBuff@@QAE?BMXZ ENDP	; ioAffectWoundedValueBuff::GetDamageRate
_TEXT	ENDS
PUBLIC	?GetFloatJumpPowerRate@ioAffectWoundedValueBuff@@QAE?BMXZ ; ioAffectWoundedValueBuff::GetFloatJumpPowerRate
; Function compile flags: /Ogsp
;	COMDAT ?GetFloatJumpPowerRate@ioAffectWoundedValueBuff@@QAE?BMXZ
_TEXT	SEGMENT
?GetFloatJumpPowerRate@ioAffectWoundedValueBuff@@QAE?BMXZ PROC ; ioAffectWoundedValueBuff::GetFloatJumpPowerRate, COMDAT
; _this$ = ecx

; 86   : 	const float GetFloatJumpPowerRate()	{ return m_FloatJumpPower.m_fRate; }

  00000	d9 81 f8 09 00
	00		 fld	 DWORD PTR [ecx+2552]
  00006	c3		 ret	 0
?GetFloatJumpPowerRate@ioAffectWoundedValueBuff@@QAE?BMXZ ENDP ; ioAffectWoundedValueBuff::GetFloatJumpPowerRate
_TEXT	ENDS
PUBLIC	?GetFloatGravityRate@ioAffectWoundedValueBuff@@QAE?BMXZ ; ioAffectWoundedValueBuff::GetFloatGravityRate
; Function compile flags: /Ogsp
;	COMDAT ?GetFloatGravityRate@ioAffectWoundedValueBuff@@QAE?BMXZ
_TEXT	SEGMENT
?GetFloatGravityRate@ioAffectWoundedValueBuff@@QAE?BMXZ PROC ; ioAffectWoundedValueBuff::GetFloatGravityRate, COMDAT
; _this$ = ecx

; 87   : 	const float GetFloatGravityRate()	{ return m_FloatGravity.m_fRate; }

  00000	d9 81 04 0a 00
	00		 fld	 DWORD PTR [ecx+2564]
  00006	c3		 ret	 0
?GetFloatGravityRate@ioAffectWoundedValueBuff@@QAE?BMXZ ENDP ; ioAffectWoundedValueBuff::GetFloatGravityRate
_TEXT	ENDS
PUBLIC	?GetFloatFrictionRate@ioAffectWoundedValueBuff@@QAE?BMXZ ; ioAffectWoundedValueBuff::GetFloatFrictionRate
; Function compile flags: /Ogsp
;	COMDAT ?GetFloatFrictionRate@ioAffectWoundedValueBuff@@QAE?BMXZ
_TEXT	SEGMENT
?GetFloatFrictionRate@ioAffectWoundedValueBuff@@QAE?BMXZ PROC ; ioAffectWoundedValueBuff::GetFloatFrictionRate, COMDAT
; _this$ = ecx

; 88   : 	const float GetFloatFrictionRate()	{ return m_FloatFriction.m_fRate; }

  00000	d9 81 10 0a 00
	00		 fld	 DWORD PTR [ecx+2576]
  00006	c3		 ret	 0
?GetFloatFrictionRate@ioAffectWoundedValueBuff@@QAE?BMXZ ENDP ; ioAffectWoundedValueBuff::GetFloatFrictionRate
_TEXT	ENDS
PUBLIC	?GetGetUpRate@ioAffectWoundedValueBuff@@QAE?BMXZ ; ioAffectWoundedValueBuff::GetGetUpRate
; Function compile flags: /Ogsp
;	COMDAT ?GetGetUpRate@ioAffectWoundedValueBuff@@QAE?BMXZ
_TEXT	SEGMENT
?GetGetUpRate@ioAffectWoundedValueBuff@@QAE?BMXZ PROC	; ioAffectWoundedValueBuff::GetGetUpRate, COMDAT
; _this$ = ecx

; 90   : 	const float GetGetUpRate()			{ return m_GetUpTimeRate.m_fRate; }

  00000	d9 81 1c 0a 00
	00		 fld	 DWORD PTR [ecx+2588]
  00006	c3		 ret	 0
?GetGetUpRate@ioAffectWoundedValueBuff@@QAE?BMXZ ENDP	; ioAffectWoundedValueBuff::GetGetUpRate
_TEXT	ENDS
PUBLIC	?GetFallDamageRate@ioAffectWoundedValueBuff@@QAE?BMXZ ; ioAffectWoundedValueBuff::GetFallDamageRate
; Function compile flags: /Ogsp
;	COMDAT ?GetFallDamageRate@ioAffectWoundedValueBuff@@QAE?BMXZ
_TEXT	SEGMENT
?GetFallDamageRate@ioAffectWoundedValueBuff@@QAE?BMXZ PROC ; ioAffectWoundedValueBuff::GetFallDamageRate, COMDAT
; _this$ = ecx

; 92   : 	const float GetFallDamageRate()		{ return m_FallDamageRate.m_fRate; }

  00000	d9 81 28 0a 00
	00		 fld	 DWORD PTR [ecx+2600]
  00006	c3		 ret	 0
?GetFallDamageRate@ioAffectWoundedValueBuff@@QAE?BMXZ ENDP ; ioAffectWoundedValueBuff::GetFallDamageRate
_TEXT	ENDS
PUBLIC	?ApplyStartBuff@ioAffectWoundedValueBuff@@UAE_NPAVioBaseChar@@KK@Z ; ioAffectWoundedValueBuff::ApplyStartBuff
EXTRN	?ApplyStartBuff@ioBuff@@UAE_NPAVioBaseChar@@KK@Z:PROC ; ioBuff::ApplyStartBuff
; Function compile flags: /Ogsp
; File d:\lost saga for developer\youtube\tutorial\source\src\lsclient\ioaffectwoundedvaluebuff.cpp
;	COMDAT ?ApplyStartBuff@ioAffectWoundedValueBuff@@UAE_NPAVioBaseChar@@KK@Z
_TEXT	SEGMENT
_pOwner$ = 8						; size = 4
_dwGlobalTime$ = 12					; size = 4
_dwGapTime$ = 16					; size = 4
?ApplyStartBuff@ioAffectWoundedValueBuff@@UAE_NPAVioBaseChar@@KK@Z PROC ; ioAffectWoundedValueBuff::ApplyStartBuff, COMDAT
; _this$ = ecx

; 130  : {

  00000	55		 push	 ebp
  00001	8b ec		 mov	 ebp, esp

; 131  : 	if( !ioBuff::ApplyStartBuff( pOwner, dwGlobalTime, dwGapTime ) )

  00003	ff 75 10	 push	 DWORD PTR _dwGapTime$[ebp]
  00006	ff 75 0c	 push	 DWORD PTR _dwGlobalTime$[ebp]
  00009	ff 75 08	 push	 DWORD PTR _pOwner$[ebp]
  0000c	e8 00 00 00 00	 call	 ?ApplyStartBuff@ioBuff@@UAE_NPAVioBaseChar@@KK@Z ; ioBuff::ApplyStartBuff
  00011	84 c0		 test	 al, al
  00013	0f 95 c0	 setne	 al

; 132  : 		return false;
; 133  : 
; 134  : 	return true;
; 135  : }

  00016	5d		 pop	 ebp
  00017	c2 0c 00	 ret	 12			; 0000000cH
?ApplyStartBuff@ioAffectWoundedValueBuff@@UAE_NPAVioBaseChar@@KK@Z ENDP ; ioAffectWoundedValueBuff::ApplyStartBuff
_TEXT	ENDS
PUBLIC	?GetBuffInfo@ioAffectWoundedValueBuff@@UAEXAAVSP2Packet@@@Z ; ioAffectWoundedValueBuff::GetBuffInfo
EXTRN	??6SP2Packet@@QAEAAV0@M@Z:PROC			; SP2Packet::operator<<
EXTRN	?GetBuffInfo@ioBuff@@UAEXAAVSP2Packet@@@Z:PROC	; ioBuff::GetBuffInfo
; Function compile flags: /Ogsp
;	COMDAT ?GetBuffInfo@ioAffectWoundedValueBuff@@UAEXAAVSP2Packet@@@Z
_TEXT	SEGMENT
_rkPacket$ = 8						; size = 4
?GetBuffInfo@ioAffectWoundedValueBuff@@UAEXAAVSP2Packet@@@Z PROC ; ioAffectWoundedValueBuff::GetBuffInfo, COMDAT
; _this$ = ecx

; 191  : {

  00000	55		 push	 ebp
  00001	8b ec		 mov	 ebp, esp
  00003	56		 push	 esi
  00004	57		 push	 edi

; 192  : 	ioBuff::GetBuffInfo(rkPacket);

  00005	8b 7d 08	 mov	 edi, DWORD PTR _rkPacket$[ebp]
  00008	57		 push	 edi
  00009	8b f1		 mov	 esi, ecx
  0000b	e8 00 00 00 00	 call	 ?GetBuffInfo@ioBuff@@UAEXAAVSP2Packet@@@Z ; ioBuff::GetBuffInfo

; 193  : 
; 194  : 	rkPacket << GetPushPowerRate();

  00010	f3 0f 10 86 74
	09 00 00	 movss	 xmm0, DWORD PTR [esi+2420]
  00018	51		 push	 ecx
  00019	8b cf		 mov	 ecx, edi
  0001b	f3 0f 11 04 24	 movss	 DWORD PTR [esp], xmm0
  00020	e8 00 00 00 00	 call	 ??6SP2Packet@@QAEAAV0@M@Z ; SP2Packet::operator<<

; 195  : 	rkPacket << GetAirPushPowerRate();

  00025	f3 0f 10 86 80
	09 00 00	 movss	 xmm0, DWORD PTR [esi+2432]
  0002d	51		 push	 ecx
  0002e	8b cf		 mov	 ecx, edi
  00030	f3 0f 11 04 24	 movss	 DWORD PTR [esp], xmm0
  00035	e8 00 00 00 00	 call	 ??6SP2Packet@@QAEAAV0@M@Z ; SP2Packet::operator<<

; 196  : 	rkPacket << GetDownPushPowerRate();

  0003a	f3 0f 10 86 8c
	09 00 00	 movss	 xmm0, DWORD PTR [esi+2444]
  00042	51		 push	 ecx
  00043	8b cf		 mov	 ecx, edi
  00045	f3 0f 11 04 24	 movss	 DWORD PTR [esp], xmm0
  0004a	e8 00 00 00 00	 call	 ??6SP2Packet@@QAEAAV0@M@Z ; SP2Packet::operator<<

; 197  : 	rkPacket << GetBlowPowerRate();

  0004f	f3 0f 10 86 98
	09 00 00	 movss	 xmm0, DWORD PTR [esi+2456]
  00057	51		 push	 ecx
  00058	8b cf		 mov	 ecx, edi
  0005a	f3 0f 11 04 24	 movss	 DWORD PTR [esp], xmm0
  0005f	e8 00 00 00 00	 call	 ??6SP2Packet@@QAEAAV0@M@Z ; SP2Packet::operator<<

; 198  : 	rkPacket << GetAirBlowPowerRate();

  00064	f3 0f 10 86 a4
	09 00 00	 movss	 xmm0, DWORD PTR [esi+2468]
  0006c	51		 push	 ecx
  0006d	8b cf		 mov	 ecx, edi
  0006f	f3 0f 11 04 24	 movss	 DWORD PTR [esp], xmm0
  00074	e8 00 00 00 00	 call	 ??6SP2Packet@@QAEAAV0@M@Z ; SP2Packet::operator<<

; 199  : 	rkPacket << GetDownBlowPowerRate();

  00079	f3 0f 10 86 b0
	09 00 00	 movss	 xmm0, DWORD PTR [esi+2480]
  00081	51		 push	 ecx
  00082	8b cf		 mov	 ecx, edi
  00084	f3 0f 11 04 24	 movss	 DWORD PTR [esp], xmm0
  00089	e8 00 00 00 00	 call	 ??6SP2Packet@@QAEAAV0@M@Z ; SP2Packet::operator<<

; 200  : 	rkPacket << GetBoundJumpPowerRate();

  0008e	f3 0f 10 86 bc
	09 00 00	 movss	 xmm0, DWORD PTR [esi+2492]
  00096	51		 push	 ecx
  00097	8b cf		 mov	 ecx, edi
  00099	f3 0f 11 04 24	 movss	 DWORD PTR [esp], xmm0
  0009e	e8 00 00 00 00	 call	 ??6SP2Packet@@QAEAAV0@M@Z ; SP2Packet::operator<<

; 201  : 	rkPacket << GetBoundForcePowerRate();

  000a3	f3 0f 10 86 c8
	09 00 00	 movss	 xmm0, DWORD PTR [esi+2504]
  000ab	51		 push	 ecx
  000ac	8b cf		 mov	 ecx, edi
  000ae	f3 0f 11 04 24	 movss	 DWORD PTR [esp], xmm0
  000b3	e8 00 00 00 00	 call	 ??6SP2Packet@@QAEAAV0@M@Z ; SP2Packet::operator<<

; 202  : 	rkPacket << GetBoundGravityRate();

  000b8	f3 0f 10 86 d4
	09 00 00	 movss	 xmm0, DWORD PTR [esi+2516]
  000c0	51		 push	 ecx
  000c1	8b cf		 mov	 ecx, edi
  000c3	f3 0f 11 04 24	 movss	 DWORD PTR [esp], xmm0
  000c8	e8 00 00 00 00	 call	 ??6SP2Packet@@QAEAAV0@M@Z ; SP2Packet::operator<<

; 203  : 	rkPacket << GetBoundDamageRate();

  000cd	f3 0f 10 86 e0
	09 00 00	 movss	 xmm0, DWORD PTR [esi+2528]
  000d5	51		 push	 ecx
  000d6	8b cf		 mov	 ecx, edi
  000d8	f3 0f 11 04 24	 movss	 DWORD PTR [esp], xmm0
  000dd	e8 00 00 00 00	 call	 ??6SP2Packet@@QAEAAV0@M@Z ; SP2Packet::operator<<

; 204  : 	rkPacket << GetDamageRate();	

  000e2	f3 0f 10 86 ec
	09 00 00	 movss	 xmm0, DWORD PTR [esi+2540]
  000ea	51		 push	 ecx
  000eb	8b cf		 mov	 ecx, edi
  000ed	f3 0f 11 04 24	 movss	 DWORD PTR [esp], xmm0
  000f2	e8 00 00 00 00	 call	 ??6SP2Packet@@QAEAAV0@M@Z ; SP2Packet::operator<<

; 205  : 	rkPacket << GetFloatJumpPowerRate();

  000f7	f3 0f 10 86 f8
	09 00 00	 movss	 xmm0, DWORD PTR [esi+2552]
  000ff	51		 push	 ecx
  00100	8b cf		 mov	 ecx, edi
  00102	f3 0f 11 04 24	 movss	 DWORD PTR [esp], xmm0
  00107	e8 00 00 00 00	 call	 ??6SP2Packet@@QAEAAV0@M@Z ; SP2Packet::operator<<

; 206  : 	rkPacket << GetFloatGravityRate();

  0010c	f3 0f 10 86 04
	0a 00 00	 movss	 xmm0, DWORD PTR [esi+2564]
  00114	51		 push	 ecx
  00115	8b cf		 mov	 ecx, edi
  00117	f3 0f 11 04 24	 movss	 DWORD PTR [esp], xmm0
  0011c	e8 00 00 00 00	 call	 ??6SP2Packet@@QAEAAV0@M@Z ; SP2Packet::operator<<

; 207  : 	rkPacket << GetFloatFrictionRate();

  00121	f3 0f 10 86 10
	0a 00 00	 movss	 xmm0, DWORD PTR [esi+2576]
  00129	51		 push	 ecx
  0012a	8b cf		 mov	 ecx, edi
  0012c	f3 0f 11 04 24	 movss	 DWORD PTR [esp], xmm0
  00131	e8 00 00 00 00	 call	 ??6SP2Packet@@QAEAAV0@M@Z ; SP2Packet::operator<<

; 208  : 	rkPacket << GetGetUpRate();

  00136	f3 0f 10 86 1c
	0a 00 00	 movss	 xmm0, DWORD PTR [esi+2588]
  0013e	51		 push	 ecx
  0013f	8b cf		 mov	 ecx, edi
  00141	f3 0f 11 04 24	 movss	 DWORD PTR [esp], xmm0
  00146	e8 00 00 00 00	 call	 ??6SP2Packet@@QAEAAV0@M@Z ; SP2Packet::operator<<

; 209  : 	rkPacket << GetFallDamageRate();

  0014b	f3 0f 10 86 28
	0a 00 00	 movss	 xmm0, DWORD PTR [esi+2600]
  00153	51		 push	 ecx
  00154	8b cf		 mov	 ecx, edi
  00156	f3 0f 11 04 24	 movss	 DWORD PTR [esp], xmm0
  0015b	e8 00 00 00 00	 call	 ??6SP2Packet@@QAEAAV0@M@Z ; SP2Packet::operator<<
  00160	5f		 pop	 edi
  00161	5e		 pop	 esi

; 210  : }

  00162	5d		 pop	 ebp
  00163	c2 04 00	 ret	 4
?GetBuffInfo@ioAffectWoundedValueBuff@@UAEXAAVSP2Packet@@@Z ENDP ; ioAffectWoundedValueBuff::GetBuffInfo
_TEXT	ENDS
PUBLIC	?ApplyBuffInfo@ioAffectWoundedValueBuff@@UAEXAAVSP2Packet@@@Z ; ioAffectWoundedValueBuff::ApplyBuffInfo
EXTRN	??5SP2Packet@@QAEAAV0@AAM@Z:PROC		; SP2Packet::operator>>
EXTRN	?ApplyBuffInfo@ioBuff@@UAEXAAVSP2Packet@@@Z:PROC ; ioBuff::ApplyBuffInfo
; Function compile flags: /Ogsp
;	COMDAT ?ApplyBuffInfo@ioAffectWoundedValueBuff@@UAEXAAVSP2Packet@@@Z
_TEXT	SEGMENT
_rkPacket$ = 8						; size = 4
?ApplyBuffInfo@ioAffectWoundedValueBuff@@UAEXAAVSP2Packet@@@Z PROC ; ioAffectWoundedValueBuff::ApplyBuffInfo, COMDAT
; _this$ = ecx

; 213  : {

  00000	55		 push	 ebp
  00001	8b ec		 mov	 ebp, esp
  00003	56		 push	 esi
  00004	57		 push	 edi

; 214  : 	ioBuff::ApplyBuffInfo(rkPacket);

  00005	8b 7d 08	 mov	 edi, DWORD PTR _rkPacket$[ebp]
  00008	57		 push	 edi
  00009	8b f1		 mov	 esi, ecx
  0000b	e8 00 00 00 00	 call	 ?ApplyBuffInfo@ioBuff@@UAEXAAVSP2Packet@@@Z ; ioBuff::ApplyBuffInfo

; 215  : 
; 216  : 	rkPacket >> m_PushPower.m_fRate;

  00010	8d 86 74 09 00
	00		 lea	 eax, DWORD PTR [esi+2420]
  00016	50		 push	 eax
  00017	8b cf		 mov	 ecx, edi
  00019	e8 00 00 00 00	 call	 ??5SP2Packet@@QAEAAV0@AAM@Z ; SP2Packet::operator>>

; 217  : 	rkPacket >> m_AirPushPower.m_fRate;

  0001e	8d 86 80 09 00
	00		 lea	 eax, DWORD PTR [esi+2432]
  00024	50		 push	 eax
  00025	8b cf		 mov	 ecx, edi
  00027	e8 00 00 00 00	 call	 ??5SP2Packet@@QAEAAV0@AAM@Z ; SP2Packet::operator>>

; 218  : 	rkPacket >> m_DownPushPower.m_fRate;

  0002c	8d 86 8c 09 00
	00		 lea	 eax, DWORD PTR [esi+2444]
  00032	50		 push	 eax
  00033	8b cf		 mov	 ecx, edi
  00035	e8 00 00 00 00	 call	 ??5SP2Packet@@QAEAAV0@AAM@Z ; SP2Packet::operator>>

; 219  : 	rkPacket >> m_BlowPower.m_fRate;

  0003a	8d 86 98 09 00
	00		 lea	 eax, DWORD PTR [esi+2456]
  00040	50		 push	 eax
  00041	8b cf		 mov	 ecx, edi
  00043	e8 00 00 00 00	 call	 ??5SP2Packet@@QAEAAV0@AAM@Z ; SP2Packet::operator>>

; 220  : 	rkPacket >> m_AirBlowPower.m_fRate;

  00048	8d 86 a4 09 00
	00		 lea	 eax, DWORD PTR [esi+2468]
  0004e	50		 push	 eax
  0004f	8b cf		 mov	 ecx, edi
  00051	e8 00 00 00 00	 call	 ??5SP2Packet@@QAEAAV0@AAM@Z ; SP2Packet::operator>>

; 221  : 	rkPacket >> m_DownBlowPower.m_fRate;

  00056	8d 86 b0 09 00
	00		 lea	 eax, DWORD PTR [esi+2480]
  0005c	50		 push	 eax
  0005d	8b cf		 mov	 ecx, edi
  0005f	e8 00 00 00 00	 call	 ??5SP2Packet@@QAEAAV0@AAM@Z ; SP2Packet::operator>>

; 222  : 	rkPacket >> m_BoundJumpPower.m_fRate;

  00064	8d 86 bc 09 00
	00		 lea	 eax, DWORD PTR [esi+2492]
  0006a	50		 push	 eax
  0006b	8b cf		 mov	 ecx, edi
  0006d	e8 00 00 00 00	 call	 ??5SP2Packet@@QAEAAV0@AAM@Z ; SP2Packet::operator>>

; 223  : 	rkPacket >> m_BoundForcePower.m_fRate;

  00072	8d 86 c8 09 00
	00		 lea	 eax, DWORD PTR [esi+2504]
  00078	50		 push	 eax
  00079	8b cf		 mov	 ecx, edi
  0007b	e8 00 00 00 00	 call	 ??5SP2Packet@@QAEAAV0@AAM@Z ; SP2Packet::operator>>

; 224  : 	rkPacket >> m_BoundGravity.m_fRate;

  00080	8d 86 d4 09 00
	00		 lea	 eax, DWORD PTR [esi+2516]
  00086	50		 push	 eax
  00087	8b cf		 mov	 ecx, edi
  00089	e8 00 00 00 00	 call	 ??5SP2Packet@@QAEAAV0@AAM@Z ; SP2Packet::operator>>

; 225  : 	rkPacket >> m_BoundDamage.m_fRate;

  0008e	8d 86 e0 09 00
	00		 lea	 eax, DWORD PTR [esi+2528]
  00094	50		 push	 eax
  00095	8b cf		 mov	 ecx, edi
  00097	e8 00 00 00 00	 call	 ??5SP2Packet@@QAEAAV0@AAM@Z ; SP2Packet::operator>>

; 226  : 	rkPacket >> m_Damage.m_fRate;

  0009c	8d 86 ec 09 00
	00		 lea	 eax, DWORD PTR [esi+2540]
  000a2	50		 push	 eax
  000a3	8b cf		 mov	 ecx, edi
  000a5	e8 00 00 00 00	 call	 ??5SP2Packet@@QAEAAV0@AAM@Z ; SP2Packet::operator>>

; 227  : 	rkPacket >> m_FloatJumpPower.m_fRate;

  000aa	8d 86 f8 09 00
	00		 lea	 eax, DWORD PTR [esi+2552]
  000b0	50		 push	 eax
  000b1	8b cf		 mov	 ecx, edi
  000b3	e8 00 00 00 00	 call	 ??5SP2Packet@@QAEAAV0@AAM@Z ; SP2Packet::operator>>

; 228  : 	rkPacket >> m_FloatGravity.m_fRate;

  000b8	8d 86 04 0a 00
	00		 lea	 eax, DWORD PTR [esi+2564]
  000be	50		 push	 eax
  000bf	8b cf		 mov	 ecx, edi
  000c1	e8 00 00 00 00	 call	 ??5SP2Packet@@QAEAAV0@AAM@Z ; SP2Packet::operator>>

; 229  : 	rkPacket >> m_FloatFriction.m_fRate;

  000c6	8d 86 10 0a 00
	00		 lea	 eax, DWORD PTR [esi+2576]
  000cc	50		 push	 eax
  000cd	8b cf		 mov	 ecx, edi
  000cf	e8 00 00 00 00	 call	 ??5SP2Packet@@QAEAAV0@AAM@Z ; SP2Packet::operator>>

; 230  : 	rkPacket >> m_GetUpTimeRate.m_fRate;

  000d4	8d 86 1c 0a 00
	00		 lea	 eax, DWORD PTR [esi+2588]
  000da	50		 push	 eax
  000db	8b cf		 mov	 ecx, edi
  000dd	e8 00 00 00 00	 call	 ??5SP2Packet@@QAEAAV0@AAM@Z ; SP2Packet::operator>>

; 231  : 	rkPacket >> m_FallDamageRate.m_fRate;

  000e2	81 c6 28 0a 00
	00		 add	 esi, 2600		; 00000a28H
  000e8	56		 push	 esi
  000e9	8b cf		 mov	 ecx, edi
  000eb	e8 00 00 00 00	 call	 ??5SP2Packet@@QAEAAV0@AAM@Z ; SP2Packet::operator>>
  000f0	5f		 pop	 edi
  000f1	5e		 pop	 esi

; 232  : }

  000f2	5d		 pop	 ebp
  000f3	c2 04 00	 ret	 4
?ApplyBuffInfo@ioAffectWoundedValueBuff@@UAEXAAVSP2Packet@@@Z ENDP ; ioAffectWoundedValueBuff::ApplyBuffInfo
_TEXT	ENDS
PUBLIC	__real@3f847ae140000000
PUBLIC	?SetRandomRate@ioAffectWoundedValueBuff@@IAEXAAUAffectRate@1@@Z ; ioAffectWoundedValueBuff::SetRandomRate
EXTRN	??1IORandom@@UAE@XZ:PROC			; IORandom::~IORandom
EXTRN	?Random@IORandom@@QAEII@Z:PROC			; IORandom::Random
EXTRN	?SetRandomSeed@IORandom@@QAEXI@Z:PROC		; IORandom::SetRandomSeed
EXTRN	??0IORandom@@QAE@XZ:PROC			; IORandom::IORandom
EXTRN	?GetOwner@ioBuff@@QAEPAVioBaseChar@@XZ:PROC	; ioBuff::GetOwner
EXTRN	___CxxFrameHandler3:PROC
EXTRN	@__security_check_cookie@4:PROC
EXTRN	__EH_epilog3_GS:PROC
EXTRN	__EH_prolog3_GS:PROC
EXTRN	__ftol2_sse:PROC
;	COMDAT __real@3f847ae140000000
; File d:\lost saga for developer\youtube\tutorial\source\src\lsclient\stdafx.h
CONST	SEGMENT
__real@3f847ae140000000 DQ 03f847ae140000000r	; 0.01
CONST	ENDS
;	COMDAT xdata$x
xdata$x	SEGMENT
__unwindtable$?SetRandomRate@ioAffectWoundedValueBuff@@IAEXAAUAffectRate@1@@Z DD 0ffffffffH
	DD	FLAT:__unwindfunclet$?SetRandomRate@ioAffectWoundedValueBuff@@IAEXAAUAffectRate@1@@Z$0
__ehfuncinfo$?SetRandomRate@ioAffectWoundedValueBuff@@IAEXAAUAffectRate@1@@Z DD 019930522H
	DD	01H
	DD	FLAT:__unwindtable$?SetRandomRate@ioAffectWoundedValueBuff@@IAEXAAUAffectRate@1@@Z
	DD	2 DUP(00H)
	DD	2 DUP(00H)
	DD	00H
	DD	01H
; Function compile flags: /Ogsp
; File d:\lost saga for developer\youtube\tutorial\source\src\lsclient\ioaffectwoundedvaluebuff.cpp
xdata$x	ENDS
;	COMDAT ?SetRandomRate@ioAffectWoundedValueBuff@@IAEXAAUAffectRate@1@@Z
_TEXT	SEGMENT
tv211 = -2536						; size = 4
tv224 = -2532						; size = 4
_dwSeed$ = -2532					; size = 4
tv219 = -2528						; size = 4
_iMin$ = -2528						; size = 4
_random$ = -2524					; size = 2508
__$EHRec$ = -12						; size = 12
_rkAffectRate$ = 8					; size = 4
?SetRandomRate@ioAffectWoundedValueBuff@@IAEXAAUAffectRate@1@@Z PROC ; ioAffectWoundedValueBuff::SetRandomRate, COMDAT
; _this$ = ecx

; 235  : {

  00000	68 dc 09 00 00	 push	 2524			; 000009dcH
  00005	b8 00 00 00 00	 mov	 eax, __ehhandler$?SetRandomRate@ioAffectWoundedValueBuff@@IAEXAAUAffectRate@1@@Z
  0000a	e8 00 00 00 00	 call	 __EH_prolog3_GS
  0000f	8b 75 08	 mov	 esi, DWORD PTR _rkAffectRate$[ebp]
  00012	8b f9		 mov	 edi, ecx

; 236  : 	ioBaseChar *pOwner = GetOwner();

  00014	e8 00 00 00 00	 call	 ?GetOwner@ioBuff@@QAEPAVioBaseChar@@XZ ; ioBuff::GetOwner

; 237  : 	if( !pOwner )

  00019	85 c0		 test	 eax, eax
  0001b	0f 84 00 01 00
	00		 je	 $LN3@SetRandomR

; 238  : 		return;
; 239  : 
; 240  : 	DWORD dwSeed = pOwner->GetRandomSeed();
; 241  : 	float fMin = rkAffectRate.m_fMinRate;

  00021	f3 0f 10 06	 movss	 xmm0, DWORD PTR [esi]

; 242  : 	float fMax = rkAffectRate.m_fMaxRate;

  00025	f3 0f 10 4e 04	 movss	 xmm1, DWORD PTR [esi+4]
  0002a	8b 80 74 16 00
	00		 mov	 eax, DWORD PTR [eax+5748]

; 243  : 
; 244  : 	if( fMin > fMax )

  00030	0f 5a c0	 cvtps2pd xmm0, xmm0
  00033	0f 5a c9	 cvtps2pd xmm1, xmm1
  00036	66 0f 2f c1	 comisd	 xmm0, xmm1
  0003a	89 85 1c f6 ff
	ff		 mov	 DWORD PTR _dwSeed$[ebp], eax
  00040	76 23		 jbe	 SHORT $LN1@SetRandomR

; 245  : 	{
; 246  : 		rkAffectRate.m_fRate = FLOAT1;

  00042	b8 01 00 00 00	 mov	 eax, 1
  00047	89 85 1c f6 ff
	ff		 mov	 DWORD PTR tv224[ebp], eax
  0004d	db 85 1c f6 ff
	ff		 fild	 DWORD PTR tv224[ebp]
  00053	85 c0		 test	 eax, eax
  00055	79 06		 jns	 SHORT $LN15@SetRandomR
  00057	d8 05 00 00 00
	00		 fadd	 DWORD PTR __real@4f800000
$LN15@SetRandomR:
  0005d	d9 5e 08	 fstp	 DWORD PTR [esi+8]

; 247  : 		return;

  00060	e9 bc 00 00 00	 jmp	 $LN3@SetRandomR
$LN1@SetRandomR:

; 248  : 	}
; 249  : 
; 250  : 	int iMin = (int)( rkAffectRate.m_fMinRate * FLOAT100 );

  00065	b8 64 00 00 00	 mov	 eax, 100		; 00000064H
  0006a	89 85 20 f6 ff
	ff		 mov	 DWORD PTR tv219[ebp], eax
  00070	db 85 20 f6 ff
	ff		 fild	 DWORD PTR tv219[ebp]
  00076	85 c0		 test	 eax, eax
  00078	79 06		 jns	 SHORT $LN16@SetRandomR
  0007a	d8 05 00 00 00
	00		 fadd	 DWORD PTR __real@4f800000
$LN16@SetRandomR:
  00080	d8 0e		 fmul	 DWORD PTR [esi]
  00082	e8 00 00 00 00	 call	 __ftol2_sse
  00087	89 85 20 f6 ff
	ff		 mov	 DWORD PTR _iMin$[ebp], eax

; 251  : 	int iMax = (int)( rkAffectRate.m_fMaxRate * FLOAT100 );

  0008d	b8 64 00 00 00	 mov	 eax, 100		; 00000064H
  00092	89 85 18 f6 ff
	ff		 mov	 DWORD PTR tv211[ebp], eax
  00098	db 85 18 f6 ff
	ff		 fild	 DWORD PTR tv211[ebp]
  0009e	85 c0		 test	 eax, eax
  000a0	79 06		 jns	 SHORT $LN17@SetRandomR
  000a2	d8 05 00 00 00
	00		 fadd	 DWORD PTR __real@4f800000
$LN17@SetRandomR:
  000a8	d8 4e 04	 fmul	 DWORD PTR [esi+4]
  000ab	e8 00 00 00 00	 call	 __ftol2_sse

; 252  : 
; 253  : 	IORandom random;

  000b0	8d 8d 24 f6 ff
	ff		 lea	 ecx, DWORD PTR _random$[ebp]
  000b6	8b d8		 mov	 ebx, eax
  000b8	e8 00 00 00 00	 call	 ??0IORandom@@QAE@XZ	; IORandom::IORandom

; 254  : 	random.SetRandomSeed( dwSeed + m_iSeedCount );

  000bd	8b 87 5c 0a 00
	00		 mov	 eax, DWORD PTR [edi+2652]
  000c3	03 85 1c f6 ff
	ff		 add	 eax, DWORD PTR _dwSeed$[ebp]
  000c9	83 65 fc 00	 and	 DWORD PTR __$EHRec$[ebp+8], 0
  000cd	50		 push	 eax
  000ce	8d 8d 24 f6 ff
	ff		 lea	 ecx, DWORD PTR _random$[ebp]
  000d4	e8 00 00 00 00	 call	 ?SetRandomSeed@IORandom@@QAEXI@Z ; IORandom::SetRandomSeed

; 255  : 	int iRand = random.Random( iMax - iMin );

  000d9	2b 9d 20 f6 ff
	ff		 sub	 ebx, DWORD PTR _iMin$[ebp]
  000df	8d 8d 24 f6 ff
	ff		 lea	 ecx, DWORD PTR _random$[ebp]
  000e5	53		 push	 ebx
  000e6	e8 00 00 00 00	 call	 ?Random@IORandom@@QAEII@Z ; IORandom::Random

; 256  : 	iRand += iMin;

  000eb	03 85 20 f6 ff
	ff		 add	 eax, DWORD PTR _iMin$[ebp]

; 257  : 
; 258  : 	rkAffectRate.m_fRate = (float)( iRand * 0.01f );
; 259  : 	m_iSeedCount++;
; 260  : }

  000f1	83 4d fc ff	 or	 DWORD PTR __$EHRec$[ebp+8], -1
  000f5	0f 57 c0	 xorps	 xmm0, xmm0
  000f8	f3 0f 2a c0	 cvtsi2ss xmm0, eax
  000fc	0f 5a c0	 cvtps2pd xmm0, xmm0
  000ff	f2 0f 59 05 00
	00 00 00	 mulsd	 xmm0, QWORD PTR __real@3f847ae140000000
  00107	66 0f 5a c0	 cvtpd2ps xmm0, xmm0
  0010b	f3 0f 11 46 08	 movss	 DWORD PTR [esi+8], xmm0
  00110	ff 87 5c 0a 00
	00		 inc	 DWORD PTR [edi+2652]
  00116	8d 8d 24 f6 ff
	ff		 lea	 ecx, DWORD PTR _random$[ebp]
  0011c	e8 00 00 00 00	 call	 ??1IORandom@@UAE@XZ	; IORandom::~IORandom
$LN3@SetRandomR:
  00121	e8 00 00 00 00	 call	 __EH_epilog3_GS
  00126	c2 04 00	 ret	 4
_TEXT	ENDS
;	COMDAT text$x
text$x	SEGMENT
__unwindfunclet$?SetRandomRate@ioAffectWoundedValueBuff@@IAEXAAUAffectRate@1@@Z$0:
  00000	8d 8d 24 f6 ff
	ff		 lea	 ecx, DWORD PTR _random$[ebp]
  00006	e9 00 00 00 00	 jmp	 ??1IORandom@@UAE@XZ	; IORandom::~IORandom
__ehhandler$?SetRandomRate@ioAffectWoundedValueBuff@@IAEXAAUAffectRate@1@@Z:
  0000b	8b 54 24 08	 mov	 edx, DWORD PTR [esp+8]
  0000f	8d 42 0c	 lea	 eax, DWORD PTR [edx+12]
  00012	8b 8a 14 f6 ff
	ff		 mov	 ecx, DWORD PTR [edx-2540]
  00018	33 c8		 xor	 ecx, eax
  0001a	e8 00 00 00 00	 call	 @__security_check_cookie@4
  0001f	8b 4a fc	 mov	 ecx, DWORD PTR [edx-4]
  00022	33 c8		 xor	 ecx, eax
  00024	e8 00 00 00 00	 call	 @__security_check_cookie@4
  00029	b8 00 00 00 00	 mov	 eax, OFFSET __ehfuncinfo$?SetRandomRate@ioAffectWoundedValueBuff@@IAEXAAUAffectRate@1@@Z
  0002e	e9 00 00 00 00	 jmp	 ___CxxFrameHandler3
text$x	ENDS
?SetRandomRate@ioAffectWoundedValueBuff@@IAEXAAUAffectRate@1@@Z ENDP ; ioAffectWoundedValueBuff::SetRandomRate
PUBLIC	?DecryptValueToPool@?$CEncrypt@W4BlowWoundedState@@@@QAEXPAW4BlowWoundedState@@@Z ; CEncrypt<enum BlowWoundedState>::DecryptValueToPool
EXTRN	?DecryptByte@ccddaabb@@QBEXPBDPADH@Z:PROC	; ccddaabb::DecryptByte
; Function compile flags: /Ogsp
; File d:\lost saga for developer\youtube\tutorial\source\src\lsclient\encryptvalue.h
;	COMDAT ?DecryptValueToPool@?$CEncrypt@W4BlowWoundedState@@@@QAEXPAW4BlowWoundedState@@@Z
_TEXT	SEGMENT
_value$ = 8						; size = 4
?DecryptValueToPool@?$CEncrypt@W4BlowWoundedState@@@@QAEXPAW4BlowWoundedState@@@Z PROC ; CEncrypt<enum BlowWoundedState>::DecryptValueToPool, COMDAT
; _this$ = ecx

; 2397 : 	{

  00000	55		 push	 ebp
  00001	8b ec		 mov	 ebp, esp
  00003	56		 push	 esi

; 2398 : 		m_RC5.DecryptByte( m_MemPool, m_TempMem, sizeof(BlowWoundedState) );

  00004	8d 71 28	 lea	 esi, DWORD PTR [ecx+40]
  00007	6a 04		 push	 4
  00009	8d 41 1c	 lea	 eax, DWORD PTR [ecx+28]
  0000c	56		 push	 esi
  0000d	50		 push	 eax
  0000e	83 c1 0c	 add	 ecx, 12			; 0000000cH
  00011	e8 00 00 00 00	 call	 ?DecryptByte@ccddaabb@@QBEXPBDPADH@Z ; ccddaabb::DecryptByte

; 2399 : 		*value = *((BlowWoundedState*)m_TempMem);

  00016	8b 06		 mov	 eax, DWORD PTR [esi]
  00018	8b 4d 08	 mov	 ecx, DWORD PTR _value$[ebp]
  0001b	89 01		 mov	 DWORD PTR [ecx], eax
  0001d	5e		 pop	 esi

; 2400 : 	}

  0001e	5d		 pop	 ebp
  0001f	c2 04 00	 ret	 4
?DecryptValueToPool@?$CEncrypt@W4BlowWoundedState@@@@QAEXPAW4BlowWoundedState@@@Z ENDP ; CEncrypt<enum BlowWoundedState>::DecryptValueToPool
_TEXT	ENDS
PUBLIC	?_DECSTR@@YAXPADH@Z				; _DECSTR
; Function compile flags: /Ogsp
; File d:\lost saga for developer\youtube\tutorial\source\src\lsclient\stringprotect.h
;	COMDAT ?_DECSTR@@YAXPADH@Z
_TEXT	SEGMENT
_s$ = 8							; size = 4
_l$ = 12						; size = 4
?_DECSTR@@YAXPADH@Z PROC				; _DECSTR, COMDAT

; 40   : __forceinline void _DECSTR(char* s, int l){int i=0,l4=(l-1)/4,*p=(int*)s;s[l-1]=0;for(;i<l4;++i)*(p++)^=0xEAEBECED;for(i=l4*4;i<l-1;++i)s[i]^=0xED-i%4;}

  00000	55		 push	 ebp
  00001	8b ec		 mov	 ebp, esp
  00003	8b 4d 0c	 mov	 ecx, DWORD PTR _l$[ebp]
  00006	56		 push	 esi
  00007	8b 75 08	 mov	 esi, DWORD PTR _s$[ebp]
  0000a	57		 push	 edi
  0000b	8d 79 ff	 lea	 edi, DWORD PTR [ecx-1]
  0000e	8b c7		 mov	 eax, edi
  00010	99		 cdq
  00011	83 e2 03	 and	 edx, 3
  00014	03 c2		 add	 eax, edx
  00016	c1 f8 02	 sar	 eax, 2
  00019	8b d6		 mov	 edx, esi
  0001b	c6 44 0e ff 00	 mov	 BYTE PTR [esi+ecx-1], 0
  00020	85 c0		 test	 eax, eax
  00022	7e 0e		 jle	 SHORT $LN4@DECSTR
  00024	8b c8		 mov	 ecx, eax
$LL6@DECSTR:
  00026	81 32 ed ec eb
	ea		 xor	 DWORD PTR [edx], -353637139 ; eaebecedH
  0002c	83 c2 04	 add	 edx, 4
  0002f	49		 dec	 ecx
  00030	75 f4		 jne	 SHORT $LL6@DECSTR
$LN4@DECSTR:
  00032	c1 e0 02	 shl	 eax, 2
  00035	eb 17		 jmp	 SHORT $LN14@DECSTR
$LL3@DECSTR:
  00037	8b c8		 mov	 ecx, eax
  00039	81 e1 03 00 00
	80		 and	 ecx, -2147483645	; 80000003H
  0003f	79 05		 jns	 SHORT $LN13@DECSTR
  00041	49		 dec	 ecx
  00042	83 c9 fc	 or	 ecx, -4			; fffffffcH
  00045	41		 inc	 ecx
$LN13@DECSTR:
  00046	b2 ed		 mov	 dl, -19			; ffffffedH
  00048	2a d1		 sub	 dl, cl
  0004a	30 14 30	 xor	 BYTE PTR [eax+esi], dl
  0004d	40		 inc	 eax
$LN14@DECSTR:
  0004e	3b c7		 cmp	 eax, edi
  00050	7c e5		 jl	 SHORT $LL3@DECSTR
  00052	5f		 pop	 edi
  00053	5e		 pop	 esi
  00054	5d		 pop	 ebp
  00055	c3		 ret	 0
?_DECSTR@@YAXPADH@Z ENDP				; _DECSTR
_TEXT	ENDS
PUBLIC	??_7?$CEncrypt@_N@@6B@				; CEncrypt<bool>::`vftable'
PUBLIC	??1?$CEncrypt@_N@@UAE@XZ			; CEncrypt<bool>::~CEncrypt<bool>
PUBLIC	??_R4?$CEncrypt@_N@@6B@				; CEncrypt<bool>::`RTTI Complete Object Locator'
PUBLIC	??_R0?AV?$CEncrypt@_N@@@8			; CEncrypt<bool> `RTTI Type Descriptor'
PUBLIC	??_R3?$CEncrypt@_N@@8				; CEncrypt<bool>::`RTTI Class Hierarchy Descriptor'
PUBLIC	??_R2?$CEncrypt@_N@@8				; CEncrypt<bool>::`RTTI Base Class Array'
PUBLIC	??_R1A@?0A@EA@?$CEncrypt@_N@@8			; CEncrypt<bool>::`RTTI Base Class Descriptor at (0,-1,0,64)'
EXTRN	??1ccddaabb@@UAE@XZ:PROC			; ccddaabb::~ccddaabb
EXTRN	??_7type_info@@6B@:QWORD			; type_info::`vftable'
EXTRN	??_E?$CEncrypt@_N@@UAEPAXI@Z:PROC		; CEncrypt<bool>::`vector deleting destructor'
;	COMDAT ??_R1A@?0A@EA@?$CEncrypt@_N@@8
; File d:\lost saga for developer\youtube\tutorial\source\src\lsclient\encryptvalue.h
rdata$r	SEGMENT
??_R1A@?0A@EA@?$CEncrypt@_N@@8 DD FLAT:??_R0?AV?$CEncrypt@_N@@@8 ; CEncrypt<bool>::`RTTI Base Class Descriptor at (0,-1,0,64)'
	DD	00H
	DD	00H
	DD	0ffffffffH
	DD	00H
	DD	040H
	DD	FLAT:??_R3?$CEncrypt@_N@@8
rdata$r	ENDS
;	COMDAT ??_R2?$CEncrypt@_N@@8
rdata$r	SEGMENT
??_R2?$CEncrypt@_N@@8 DD FLAT:??_R1A@?0A@EA@?$CEncrypt@_N@@8 ; CEncrypt<bool>::`RTTI Base Class Array'
rdata$r	ENDS
;	COMDAT ??_R3?$CEncrypt@_N@@8
rdata$r	SEGMENT
??_R3?$CEncrypt@_N@@8 DD 00H				; CEncrypt<bool>::`RTTI Class Hierarchy Descriptor'
	DD	00H
	DD	01H
	DD	FLAT:??_R2?$CEncrypt@_N@@8
rdata$r	ENDS
;	COMDAT ??_R0?AV?$CEncrypt@_N@@@8
_DATA	SEGMENT
??_R0?AV?$CEncrypt@_N@@@8 DD FLAT:??_7type_info@@6B@	; CEncrypt<bool> `RTTI Type Descriptor'
	DD	00H
	DB	'.?AV?$CEncrypt@_N@@', 00H
_DATA	ENDS
;	COMDAT ??_R4?$CEncrypt@_N@@6B@
rdata$r	SEGMENT
??_R4?$CEncrypt@_N@@6B@ DD 00H				; CEncrypt<bool>::`RTTI Complete Object Locator'
	DD	00H
	DD	00H
	DD	FLAT:??_R0?AV?$CEncrypt@_N@@@8
	DD	FLAT:??_R3?$CEncrypt@_N@@8
rdata$r	ENDS
;	COMDAT ??_7?$CEncrypt@_N@@6B@
CONST	SEGMENT
??_7?$CEncrypt@_N@@6B@ DD FLAT:??_R4?$CEncrypt@_N@@6B@	; CEncrypt<bool>::`vftable'
	DD	FLAT:??_E?$CEncrypt@_N@@UAEPAXI@Z
; Function compile flags: /Ogsp
CONST	ENDS
;	COMDAT ??1?$CEncrypt@_N@@UAE@XZ
_TEXT	SEGMENT
??1?$CEncrypt@_N@@UAE@XZ PROC				; CEncrypt<bool>::~CEncrypt<bool>, COMDAT
; _this$ = ecx

; 127  : 	{

  00000	c7 01 00 00 00
	00		 mov	 DWORD PTR [ecx], OFFSET ??_7?$CEncrypt@_N@@6B@

; 128  : 	}

  00006	83 c1 0c	 add	 ecx, 12			; 0000000cH
  00009	e9 00 00 00 00	 jmp	 ??1ccddaabb@@UAE@XZ	; ccddaabb::~ccddaabb
??1?$CEncrypt@_N@@UAE@XZ ENDP				; CEncrypt<bool>::~CEncrypt<bool>
_TEXT	ENDS
EXTRN	??3@YAXPAX@Z:PROC				; operator delete
; Function compile flags: /Ogsp
;	COMDAT ??_G?$CEncrypt@_N@@UAEPAXI@Z
_TEXT	SEGMENT
___flags$ = 8						; size = 4
??_G?$CEncrypt@_N@@UAEPAXI@Z PROC			; CEncrypt<bool>::`scalar deleting destructor', COMDAT
; _this$ = ecx
  00000	55		 push	 ebp
  00001	8b ec		 mov	 ebp, esp
  00003	56		 push	 esi
  00004	8b f1		 mov	 esi, ecx
  00006	8d 4e 0c	 lea	 ecx, DWORD PTR [esi+12]
  00009	c7 06 00 00 00
	00		 mov	 DWORD PTR [esi], OFFSET ??_7?$CEncrypt@_N@@6B@
  0000f	e8 00 00 00 00	 call	 ??1ccddaabb@@UAE@XZ	; ccddaabb::~ccddaabb
  00014	f6 45 08 01	 test	 BYTE PTR ___flags$[ebp], 1
  00018	74 07		 je	 SHORT $LN1@scalar
  0001a	56		 push	 esi
  0001b	e8 00 00 00 00	 call	 ??3@YAXPAX@Z		; operator delete
  00020	59		 pop	 ecx
$LN1@scalar:
  00021	8b c6		 mov	 eax, esi
  00023	5e		 pop	 esi
  00024	5d		 pop	 ebp
  00025	c2 04 00	 ret	 4
??_G?$CEncrypt@_N@@UAEPAXI@Z ENDP			; CEncrypt<bool>::`scalar deleting destructor'
_TEXT	ENDS
PUBLIC	?DecryptValueToPool@?$CEncrypt@K@@QAEXPAK@Z	; CEncrypt<unsigned long>::DecryptValueToPool
; Function compile flags: /Ogsp
;	COMDAT ?DecryptValueToPool@?$CEncrypt@K@@QAEXPAK@Z
_TEXT	SEGMENT
_value$ = 8						; size = 4
?DecryptValueToPool@?$CEncrypt@K@@QAEXPAK@Z PROC	; CEncrypt<unsigned long>::DecryptValueToPool, COMDAT
; _this$ = ecx

; 1256 : 	{

  00000	55		 push	 ebp
  00001	8b ec		 mov	 ebp, esp
  00003	56		 push	 esi

; 1257 : 		m_RC5.DecryptByte( m_MemPool, m_TempMem, 4 );

  00004	8d 71 28	 lea	 esi, DWORD PTR [ecx+40]
  00007	6a 04		 push	 4
  00009	8d 41 1c	 lea	 eax, DWORD PTR [ecx+28]
  0000c	56		 push	 esi
  0000d	50		 push	 eax
  0000e	83 c1 0c	 add	 ecx, 12			; 0000000cH
  00011	e8 00 00 00 00	 call	 ?DecryptByte@ccddaabb@@QBEXPBDPADH@Z ; ccddaabb::DecryptByte

; 1258 : 		*value = *((DWORD*)m_TempMem);

  00016	8b 06		 mov	 eax, DWORD PTR [esi]
  00018	8b 4d 08	 mov	 ecx, DWORD PTR _value$[ebp]
  0001b	89 01		 mov	 DWORD PTR [ecx], eax
  0001d	5e		 pop	 esi

; 1259 : 	}

  0001e	5d		 pop	 ebp
  0001f	c2 04 00	 ret	 4
?DecryptValueToPool@?$CEncrypt@K@@QAEXPAK@Z ENDP	; CEncrypt<unsigned long>::DecryptValueToPool
_TEXT	ENDS
PUBLIC	?EncryptValueToPool@?$CEncrypt@_N@@AAEXPBD@Z	; CEncrypt<bool>::EncryptValueToPool
EXTRN	?EncryptByte@ccddaabb@@QAEXPBDPADH@Z:PROC	; ccddaabb::EncryptByte
; Function compile flags: /Ogsp
;	COMDAT ?EncryptValueToPool@?$CEncrypt@_N@@AAEXPBD@Z
_TEXT	SEGMENT
_value$ = 8						; size = 4
?EncryptValueToPool@?$CEncrypt@_N@@AAEXPBD@Z PROC	; CEncrypt<bool>::EncryptValueToPool, COMDAT
; _this$ = ecx

; 67   : 	{

  00000	55		 push	 ebp
  00001	8b ec		 mov	 ebp, esp

; 68   : 		m_RC5.EncryptByte( value, m_MemPool, max(m_ValueSize, DEFAULT_ENCRYPT) );

  00003	0f b7 41 06	 movzx	 eax, WORD PTR [ecx+6]
  00007	83 f8 04	 cmp	 eax, 4
  0000a	77 03		 ja	 SHORT $LN4@EncryptVal
  0000c	6a 04		 push	 4
  0000e	58		 pop	 eax
$LN4@EncryptVal:
  0000f	50		 push	 eax
  00010	8d 41 1c	 lea	 eax, DWORD PTR [ecx+28]
  00013	50		 push	 eax
  00014	ff 75 08	 push	 DWORD PTR _value$[ebp]
  00017	83 c1 0c	 add	 ecx, 12			; 0000000cH
  0001a	e8 00 00 00 00	 call	 ?EncryptByte@ccddaabb@@QAEXPBDPADH@Z ; ccddaabb::EncryptByte

; 69   : 		
; 70   : 	}

  0001f	5d		 pop	 ebp
  00020	c2 04 00	 ret	 4
?EncryptValueToPool@?$CEncrypt@_N@@AAEXPBD@Z ENDP	; CEncrypt<bool>::EncryptValueToPool
_TEXT	ENDS
PUBLIC	?Init@?$CEncrypt@_N@@AAEXXZ			; CEncrypt<bool>::Init
EXTRN	?Setup@ccddaabb@@QAEXPBDHH@Z:PROC		; ccddaabb::Setup
EXTRN	__imp__rand:PROC
EXTRN	__imp__timeGetTime@0:PROC
EXTRN	__imp__GetCurrentProcessId@0:PROC
; Function compile flags: /Ogsp
;	COMDAT ?Init@?$CEncrypt@_N@@AAEXXZ
_TEXT	SEGMENT
_pid$ = -8						; size = 4
_tick$ = -4						; size = 4
?Init@?$CEncrypt@_N@@AAEXXZ PROC			; CEncrypt<bool>::Init, COMDAT
; _this$ = ecx

; 73   : 	{

  00000	55		 push	 ebp
  00001	8b ec		 mov	 ebp, esp
  00003	51		 push	 ecx
  00004	51		 push	 ecx
  00005	53		 push	 ebx
  00006	56		 push	 esi
  00007	57		 push	 edi
  00008	8b f1		 mov	 esi, ecx

; 74   : 		DWORD pid = GetCurrentProcessId();

  0000a	ff 15 00 00 00
	00		 call	 DWORD PTR __imp__GetCurrentProcessId@0
  00010	89 45 f8	 mov	 DWORD PTR _pid$[ebp], eax

; 75   : 		DWORD tick = timeGetTime();

  00013	ff 15 00 00 00
	00		 call	 DWORD PTR __imp__timeGetTime@0

; 76   : 		m_ValueSize    = sizeof(type);
; 77   : 		m_MemPoolPos   = (unsigned short)( rand()+pid+tick )%(MAX_MEM_POOL-m_ValueSize);

  00019	8b 3d 00 00 00
	00		 mov	 edi, DWORD PTR __imp__rand
  0001f	89 45 fc	 mov	 DWORD PTR _tick$[ebp], eax
  00022	33 c0		 xor	 eax, eax
  00024	40		 inc	 eax
  00025	66 89 46 06	 mov	 WORD PTR [esi+6], ax
  00029	ff d7		 call	 edi
  0002b	03 45 f8	 add	 eax, DWORD PTR _pid$[ebp]
  0002e	0f b7 4e 06	 movzx	 ecx, WORD PTR [esi+6]
  00032	03 45 fc	 add	 eax, DWORD PTR _tick$[ebp]
  00035	6a 0c		 push	 12			; 0000000cH
  00037	0f b7 c0	 movzx	 eax, ax
  0003a	5b		 pop	 ebx
  0003b	99		 cdq
  0003c	2b d9		 sub	 ebx, ecx
  0003e	f7 fb		 idiv	 ebx
  00040	66 89 56 04	 mov	 WORD PTR [esi+4], dx

; 78   : 		m_EncryptSeed  = (char)( rand()+pid+tick )%256;

  00044	ff d7		 call	 edi
  00046	02 45 f8	 add	 al, BYTE PTR _pid$[ebp]
  00049	02 45 fc	 add	 al, BYTE PTR _tick$[ebp]
  0004c	0f be c0	 movsx	 eax, al
  0004f	25 ff 00 00 80	 and	 eax, -2147483393	; 800000ffH
  00054	79 07		 jns	 SHORT $LN8@Init
  00056	48		 dec	 eax
  00057	0d 00 ff ff ff	 or	 eax, -256		; ffffff00H
  0005c	40		 inc	 eax
$LN8@Init:
  0005d	88 46 08	 mov	 BYTE PTR [esi+8], al

; 79   : 
; 80   : 		for (int i = 0; i < MAX_MEM_POOL ; i++)

  00060	33 db		 xor	 ebx, ebx
$LL3@Init:

; 81   : 			m_MemPool[i] = (char)( rand()+pid+tick )%256; // 더미

  00062	ff d7		 call	 edi
  00064	02 45 f8	 add	 al, BYTE PTR _pid$[ebp]
  00067	02 45 fc	 add	 al, BYTE PTR _tick$[ebp]
  0006a	0f be c0	 movsx	 eax, al
  0006d	25 ff 00 00 80	 and	 eax, -2147483393	; 800000ffH
  00072	79 07		 jns	 SHORT $LN9@Init
  00074	48		 dec	 eax
  00075	0d 00 ff ff ff	 or	 eax, -256		; ffffff00H
  0007a	40		 inc	 eax
$LN9@Init:
  0007b	88 44 1e 1c	 mov	 BYTE PTR [esi+ebx+28], al
  0007f	43		 inc	 ebx
  00080	83 fb 0c	 cmp	 ebx, 12			; 0000000cH
  00083	7c dd		 jl	 SHORT $LL3@Init

; 82   : 
; 83   : 		//UJ 130913, 최적화: szKey 사용안하도록 간략화
; 84   : 		//char szKey[ccddaabb::KEY_SIZE];//="";
; 85   : 		//for (int i = 0; i < ccddaabb::KEY_SIZE  ; i++)
; 86   : 		//	szKey[i] = (char)( rand()+pid+tick )%256; // 더미
; 87   : 		m_RC5.Setup( NULL, pid, tick );

  00085	ff 75 fc	 push	 DWORD PTR _tick$[ebp]
  00088	8d 4e 0c	 lea	 ecx, DWORD PTR [esi+12]
  0008b	ff 75 f8	 push	 DWORD PTR _pid$[ebp]
  0008e	6a 00		 push	 0
  00090	e8 00 00 00 00	 call	 ?Setup@ccddaabb@@QAEXPBDHH@Z ; ccddaabb::Setup
  00095	5f		 pop	 edi
  00096	5e		 pop	 esi
  00097	5b		 pop	 ebx

; 88   : 
; 89   : #ifdef _NOTUSE
; 90   : 		m_value        = 0;
; 91   : 		EncryptValueToPool((char*)&m_value);
; 92   : 		Debug();
; 93   : #endif
; 94   : 	}

  00098	c9		 leave
  00099	c3		 ret	 0
?Init@?$CEncrypt@_N@@AAEXXZ ENDP			; CEncrypt<bool>::Init
_TEXT	ENDS
PUBLIC	?DecryptValueToPool@?$CEncrypt@_N@@QAEXPA_N@Z	; CEncrypt<bool>::DecryptValueToPool
; Function compile flags: /Ogsp
;	COMDAT ?DecryptValueToPool@?$CEncrypt@_N@@QAEXPA_N@Z
_TEXT	SEGMENT
_value$ = 8						; size = 4
?DecryptValueToPool@?$CEncrypt@_N@@QAEXPA_N@Z PROC	; CEncrypt<bool>::DecryptValueToPool, COMDAT
; _this$ = ecx

; 219  : 	{

  00000	55		 push	 ebp
  00001	8b ec		 mov	 ebp, esp
  00003	56		 push	 esi

; 220  : 		m_RC5.DecryptByte( m_MemPool, m_TempMem, 4 );

  00004	8d 71 28	 lea	 esi, DWORD PTR [ecx+40]
  00007	6a 04		 push	 4
  00009	8d 41 1c	 lea	 eax, DWORD PTR [ecx+28]
  0000c	56		 push	 esi
  0000d	50		 push	 eax
  0000e	83 c1 0c	 add	 ecx, 12			; 0000000cH
  00011	e8 00 00 00 00	 call	 ?DecryptByte@ccddaabb@@QBEXPBDPADH@Z ; ccddaabb::DecryptByte

; 221  : 		*value = *((bool*)m_TempMem);

  00016	8a 06		 mov	 al, BYTE PTR [esi]
  00018	8b 4d 08	 mov	 ecx, DWORD PTR _value$[ebp]
  0001b	88 01		 mov	 BYTE PTR [ecx], al
  0001d	5e		 pop	 esi

; 222  : 	}

  0001e	5d		 pop	 ebp
  0001f	c2 04 00	 ret	 4
?DecryptValueToPool@?$CEncrypt@_N@@QAEXPA_N@Z ENDP	; CEncrypt<bool>::DecryptValueToPool
_TEXT	ENDS
PUBLIC	??_7ioAffectWoundedValueBuff@@6B@		; ioAffectWoundedValueBuff::`vftable'
PUBLIC	??1ioAffectWoundedValueBuff@@UAE@XZ		; ioAffectWoundedValueBuff::~ioAffectWoundedValueBuff
PUBLIC	??_R4ioAffectWoundedValueBuff@@6B@		; ioAffectWoundedValueBuff::`RTTI Complete Object Locator'
PUBLIC	??_R0?AVioAffectWoundedValueBuff@@@8		; ioAffectWoundedValueBuff `RTTI Type Descriptor'
PUBLIC	??_R3ioAffectWoundedValueBuff@@8		; ioAffectWoundedValueBuff::`RTTI Class Hierarchy Descriptor'
PUBLIC	??_R2ioAffectWoundedValueBuff@@8		; ioAffectWoundedValueBuff::`RTTI Base Class Array'
PUBLIC	??_R1A@?0A@EA@ioAffectWoundedValueBuff@@8	; ioAffectWoundedValueBuff::`RTTI Base Class Descriptor at (0,-1,0,64)'
PUBLIC	??_R1A@?0A@EA@ioBuff@@8				; ioBuff::`RTTI Base Class Descriptor at (0,-1,0,64)'
PUBLIC	??_R0?AVioBuff@@@8				; ioBuff `RTTI Type Descriptor'
PUBLIC	??_R3ioBuff@@8					; ioBuff::`RTTI Class Hierarchy Descriptor'
PUBLIC	??_R2ioBuff@@8					; ioBuff::`RTTI Base Class Array'
PUBLIC	?LoadProperty@ioAffectWoundedValueBuff@@UAEXAAVioINILoader@@@Z ; ioAffectWoundedValueBuff::LoadProperty
PUBLIC	?Clone@ioAffectWoundedValueBuff@@UAEPAVioBuff@@XZ ; ioAffectWoundedValueBuff::Clone
PUBLIC	?StartBuff@ioAffectWoundedValueBuff@@UAEXPAVioBaseChar@@@Z ; ioAffectWoundedValueBuff::StartBuff
PUBLIC	?ProcessBuff@ioAffectWoundedValueBuff@@UAEXM@Z	; ioAffectWoundedValueBuff::ProcessBuff
PUBLIC	?IsWaitSelfRemove@ioBuff@@UAE_NXZ		; ioBuff::IsWaitSelfRemove
EXTRN	??1ioBuff@@UAE@XZ:PROC				; ioBuff::~ioBuff
EXTRN	__EH_epilog3:PROC
EXTRN	__EH_prolog3:PROC
EXTRN	?StartBuffWithAniTime@ioBuff@@UAEXPAVioBaseChar@@K@Z:PROC ; ioBuff::StartBuffWithAniTime
EXTRN	?EndBuff@ioBuff@@UAEXXZ:PROC			; ioBuff::EndBuff
EXTRN	?CancelBuff@ioBuff@@UAEXXZ:PROC			; ioBuff::CancelBuff
EXTRN	?AccumulateBuff@ioBuff@@UAEXXZ:PROC		; ioBuff::AccumulateBuff
EXTRN	?IsLiveButStopped@ioBuff@@UBE_NXZ:PROC		; ioBuff::IsLiveButStopped
EXTRN	?IsCanJumpAttack@ioBuff@@UBE_NXZ:PROC		; ioBuff::IsCanJumpAttack
EXTRN	?SetAction@ioBuff@@MAEXXZ:PROC			; ioBuff::SetAction
EXTRN	?ProcessDelay@ioBuff@@MAEXM@Z:PROC		; ioBuff::ProcessDelay
EXTRN	?SetExtraDurationByGrowth@ioBuff@@UAEXM@Z:PROC	; ioBuff::SetExtraDurationByGrowth
EXTRN	?SetWeaponIndex@ioBuff@@UAEXK@Z:PROC		; ioBuff::SetWeaponIndex
EXTRN	?OnReduceGauge@ioBuff@@UBE_NXZ:PROC		; ioBuff::OnReduceGauge
EXTRN	?IsCharCollisionSkip@ioBuff@@UBE_NXZ:PROC	; ioBuff::IsCharCollisionSkip
EXTRN	?IsCollisionAvailableWeapon@ioBuff@@UBE_NXZ:PROC ; ioBuff::IsCollisionAvailableWeapon
EXTRN	?IsProtected@ioBuff@@UBE_NXZ:PROC		; ioBuff::IsProtected
EXTRN	?UseActiveCount@ioBuff@@UBE_NXZ:PROC		; ioBuff::UseActiveCount
EXTRN	?CheckActiveCount@ioBuff@@UAEXXZ:PROC		; ioBuff::CheckActiveCount
EXTRN	?CheckRemoveEquipSkillBuff@ioBuff@@UAEX_N@Z:PROC ; ioBuff::CheckRemoveEquipSkillBuff
EXTRN	?ApplyExtraBuffInfo@ioBuff@@UAEXAAVSP2Packet@@@Z:PROC ; ioBuff::ApplyExtraBuffInfo
EXTRN	?SetBuffGrapplingState@ioBuff@@UAE_NPAVioBaseChar@@ABVioHashString@@@Z:PROC ; ioBuff::SetBuffGrapplingState
EXTRN	?GetGrapplingTargetPos@ioBuff@@UAE?AUD3DXVECTOR3@@PAVioBaseChar@@@Z:PROC ; ioBuff::GetGrapplingTargetPos
EXTRN	??_EioAffectWoundedValueBuff@@UAEPAXI@Z:PROC	; ioAffectWoundedValueBuff::`vector deleting destructor'
;	COMDAT ??_R2ioBuff@@8
rdata$r	SEGMENT
??_R2ioBuff@@8 DD FLAT:??_R1A@?0A@EA@ioBuff@@8		; ioBuff::`RTTI Base Class Array'
rdata$r	ENDS
;	COMDAT ??_R3ioBuff@@8
rdata$r	SEGMENT
??_R3ioBuff@@8 DD 00H					; ioBuff::`RTTI Class Hierarchy Descriptor'
	DD	00H
	DD	01H
	DD	FLAT:??_R2ioBuff@@8
rdata$r	ENDS
;	COMDAT ??_R0?AVioBuff@@@8
_DATA	SEGMENT
??_R0?AVioBuff@@@8 DD FLAT:??_7type_info@@6B@		; ioBuff `RTTI Type Descriptor'
	DD	00H
	DB	'.?AVioBuff@@', 00H
_DATA	ENDS
;	COMDAT ??_R1A@?0A@EA@ioBuff@@8
rdata$r	SEGMENT
??_R1A@?0A@EA@ioBuff@@8 DD FLAT:??_R0?AVioBuff@@@8	; ioBuff::`RTTI Base Class Descriptor at (0,-1,0,64)'
	DD	00H
	DD	00H
	DD	0ffffffffH
	DD	00H
	DD	040H
	DD	FLAT:??_R3ioBuff@@8
rdata$r	ENDS
;	COMDAT ??_R1A@?0A@EA@ioAffectWoundedValueBuff@@8
rdata$r	SEGMENT
??_R1A@?0A@EA@ioAffectWoundedValueBuff@@8 DD FLAT:??_R0?AVioAffectWoundedValueBuff@@@8 ; ioAffectWoundedValueBuff::`RTTI Base Class Descriptor at (0,-1,0,64)'
	DD	01H
	DD	00H
	DD	0ffffffffH
	DD	00H
	DD	040H
	DD	FLAT:??_R3ioAffectWoundedValueBuff@@8
rdata$r	ENDS
;	COMDAT ??_R2ioAffectWoundedValueBuff@@8
rdata$r	SEGMENT
??_R2ioAffectWoundedValueBuff@@8 DD FLAT:??_R1A@?0A@EA@ioAffectWoundedValueBuff@@8 ; ioAffectWoundedValueBuff::`RTTI Base Class Array'
	DD	FLAT:??_R1A@?0A@EA@ioBuff@@8
rdata$r	ENDS
;	COMDAT ??_R3ioAffectWoundedValueBuff@@8
rdata$r	SEGMENT
??_R3ioAffectWoundedValueBuff@@8 DD 00H			; ioAffectWoundedValueBuff::`RTTI Class Hierarchy Descriptor'
	DD	00H
	DD	02H
	DD	FLAT:??_R2ioAffectWoundedValueBuff@@8
rdata$r	ENDS
;	COMDAT ??_R0?AVioAffectWoundedValueBuff@@@8
_DATA	SEGMENT
??_R0?AVioAffectWoundedValueBuff@@@8 DD FLAT:??_7type_info@@6B@ ; ioAffectWoundedValueBuff `RTTI Type Descriptor'
	DD	00H
	DB	'.?AVioAffectWoundedValueBuff@@', 00H
_DATA	ENDS
;	COMDAT ??_R4ioAffectWoundedValueBuff@@6B@
rdata$r	SEGMENT
??_R4ioAffectWoundedValueBuff@@6B@ DD 00H		; ioAffectWoundedValueBuff::`RTTI Complete Object Locator'
	DD	00H
	DD	00H
	DD	FLAT:??_R0?AVioAffectWoundedValueBuff@@@8
	DD	FLAT:??_R3ioAffectWoundedValueBuff@@8
rdata$r	ENDS
;	COMDAT ??_7ioAffectWoundedValueBuff@@6B@
CONST	SEGMENT
??_7ioAffectWoundedValueBuff@@6B@ DD FLAT:??_R4ioAffectWoundedValueBuff@@6B@ ; ioAffectWoundedValueBuff::`vftable'
	DD	FLAT:?LoadProperty@ioAffectWoundedValueBuff@@UAEXAAVioINILoader@@@Z
	DD	FLAT:?Clone@ioAffectWoundedValueBuff@@UAEPAVioBuff@@XZ
	DD	FLAT:?StartBuff@ioAffectWoundedValueBuff@@UAEXPAVioBaseChar@@@Z
	DD	FLAT:?StartBuffWithAniTime@ioBuff@@UAEXPAVioBaseChar@@K@Z
	DD	FLAT:?ApplyStartBuff@ioAffectWoundedValueBuff@@UAE_NPAVioBaseChar@@KK@Z
	DD	FLAT:?ProcessBuff@ioAffectWoundedValueBuff@@UAEXM@Z
	DD	FLAT:?EndBuff@ioBuff@@UAEXXZ
	DD	FLAT:?CancelBuff@ioBuff@@UAEXXZ
	DD	FLAT:?GetBuffInfo@ioAffectWoundedValueBuff@@UAEXAAVSP2Packet@@@Z
	DD	FLAT:?ApplyBuffInfo@ioAffectWoundedValueBuff@@UAEXAAVSP2Packet@@@Z
	DD	FLAT:?AccumulateBuff@ioBuff@@UAEXXZ
	DD	FLAT:?IsLiveButStopped@ioBuff@@UBE_NXZ
	DD	FLAT:?IsCanJumpAttack@ioBuff@@UBE_NXZ
	DD	FLAT:?SetAction@ioBuff@@MAEXXZ
	DD	FLAT:?ProcessDelay@ioBuff@@MAEXM@Z
	DD	FLAT:?SetExtraDurationByGrowth@ioBuff@@UAEXM@Z
	DD	FLAT:?SetWeaponIndex@ioBuff@@UAEXK@Z
	DD	FLAT:?OnReduceGauge@ioBuff@@UBE_NXZ
	DD	FLAT:?IsCharCollisionSkip@ioBuff@@UBE_NXZ
	DD	FLAT:?IsCollisionAvailableWeapon@ioBuff@@UBE_NXZ
	DD	FLAT:?IsProtected@ioBuff@@UBE_NXZ
	DD	FLAT:?UseActiveCount@ioBuff@@UBE_NXZ
	DD	FLAT:?CheckActiveCount@ioBuff@@UAEXXZ
	DD	FLAT:?CheckRemoveEquipSkillBuff@ioBuff@@UAEX_N@Z
	DD	FLAT:?ApplyExtraBuffInfo@ioBuff@@UAEXAAVSP2Packet@@@Z
	DD	FLAT:?SetBuffGrapplingState@ioBuff@@UAE_NPAVioBaseChar@@ABVioHashString@@@Z
	DD	FLAT:?GetGrapplingTargetPos@ioBuff@@UAE?AUD3DXVECTOR3@@PAVioBaseChar@@@Z
	DD	FLAT:?IsWaitSelfRemove@ioBuff@@UAE_NXZ
	DD	FLAT:??_EioAffectWoundedValueBuff@@UAEPAXI@Z
CONST	ENDS
;	COMDAT xdata$x
xdata$x	SEGMENT
__unwindtable$??1ioAffectWoundedValueBuff@@UAE@XZ DD 0ffffffffH
	DD	FLAT:__unwindfunclet$??1ioAffectWoundedValueBuff@@UAE@XZ$0
__ehfuncinfo$??1ioAffectWoundedValueBuff@@UAE@XZ DD 019930522H
	DD	01H
	DD	FLAT:__unwindtable$??1ioAffectWoundedValueBuff@@UAE@XZ
	DD	2 DUP(00H)
	DD	2 DUP(00H)
	DD	00H
	DD	01H
; Function compile flags: /Ogsp
; File d:\lost saga for developer\youtube\tutorial\source\src\lsclient\ioaffectwoundedvaluebuff.cpp
xdata$x	ENDS
;	COMDAT ??1ioAffectWoundedValueBuff@@UAE@XZ
_TEXT	SEGMENT
_this$ = -16						; size = 4
__$EHRec$ = -12						; size = 12
??1ioAffectWoundedValueBuff@@UAE@XZ PROC		; ioAffectWoundedValueBuff::~ioAffectWoundedValueBuff, COMDAT
; _this$ = ecx

; 38   : {

  00000	6a 04		 push	 4
  00002	b8 00 00 00 00	 mov	 eax, __ehhandler$??1ioAffectWoundedValueBuff@@UAE@XZ
  00007	e8 00 00 00 00	 call	 __EH_prolog3
  0000c	8b f1		 mov	 esi, ecx
  0000e	89 75 f0	 mov	 DWORD PTR _this$[ebp], esi
  00011	c7 06 00 00 00
	00		 mov	 DWORD PTR [esi], OFFSET ??_7ioAffectWoundedValueBuff@@6B@
  00017	83 65 fc 00	 and	 DWORD PTR __$EHRec$[ebp+8], 0

; 39   : }

  0001b	8d 8e 38 0a 00
	00		 lea	 ecx, DWORD PTR [esi+2616]
  00021	c7 86 2c 0a 00
	00 00 00 00 00	 mov	 DWORD PTR [esi+2604], OFFSET ??_7?$CEncrypt@_N@@6B@
  0002b	e8 00 00 00 00	 call	 ??1ccddaabb@@UAE@XZ	; ccddaabb::~ccddaabb
  00030	83 4d fc ff	 or	 DWORD PTR __$EHRec$[ebp+8], -1
  00034	8b ce		 mov	 ecx, esi
  00036	e8 00 00 00 00	 call	 ??1ioBuff@@UAE@XZ	; ioBuff::~ioBuff
  0003b	e8 00 00 00 00	 call	 __EH_epilog3
  00040	c3		 ret	 0
_TEXT	ENDS
;	COMDAT text$x
text$x	SEGMENT
__unwindfunclet$??1ioAffectWoundedValueBuff@@UAE@XZ$0:
  00000	8b 4d f0	 mov	 ecx, DWORD PTR _this$[ebp]
  00003	e9 00 00 00 00	 jmp	 ??1ioBuff@@UAE@XZ	; ioBuff::~ioBuff
__ehhandler$??1ioAffectWoundedValueBuff@@UAE@XZ:
  00008	8b 54 24 08	 mov	 edx, DWORD PTR [esp+8]
  0000c	8d 42 0c	 lea	 eax, DWORD PTR [edx+12]
  0000f	8b 4a ec	 mov	 ecx, DWORD PTR [edx-20]
  00012	33 c8		 xor	 ecx, eax
  00014	e8 00 00 00 00	 call	 @__security_check_cookie@4
  00019	b8 00 00 00 00	 mov	 eax, OFFSET __ehfuncinfo$??1ioAffectWoundedValueBuff@@UAE@XZ
  0001e	e9 00 00 00 00	 jmp	 ___CxxFrameHandler3
text$x	ENDS
??1ioAffectWoundedValueBuff@@UAE@XZ ENDP		; ioAffectWoundedValueBuff::~ioAffectWoundedValueBuff
; Function compile flags: /Ogsp
; File d:\lost saga for developer\youtube\tutorial\source\src\lsclient\iobuff.h
;	COMDAT ?IsWaitSelfRemove@ioBuff@@UAE_NXZ
_TEXT	SEGMENT
?IsWaitSelfRemove@ioBuff@@UAE_NXZ PROC			; ioBuff::IsWaitSelfRemove, COMDAT
; _this$ = ecx

; 519  : 	virtual bool IsWaitSelfRemove() { return m_bWaitSelfRemove; }

  00000	8a 81 65 09 00
	00		 mov	 al, BYTE PTR [ecx+2405]
  00006	c3		 ret	 0
?IsWaitSelfRemove@ioBuff@@UAE_NXZ ENDP			; ioBuff::IsWaitSelfRemove
_TEXT	ENDS
EXTRN	?StartBuff@ioBuff@@UAEXPAVioBaseChar@@@Z:PROC	; ioBuff::StartBuff
; Function compile flags: /Ogsp
; File d:\lost saga for developer\youtube\tutorial\source\src\lsclient\ioaffectwoundedvaluebuff.cpp
;	COMDAT ?StartBuff@ioAffectWoundedValueBuff@@UAEXPAVioBaseChar@@@Z
_TEXT	SEGMENT
_pOwner$ = 8						; size = 4
?StartBuff@ioAffectWoundedValueBuff@@UAEXPAVioBaseChar@@@Z PROC ; ioAffectWoundedValueBuff::StartBuff, COMDAT
; _this$ = ecx

; 100  : {

  00000	55		 push	 ebp
  00001	8b ec		 mov	 ebp, esp
  00003	56		 push	 esi

; 101  : 	ioBuff::StartBuff( pOwner );

  00004	ff 75 08	 push	 DWORD PTR _pOwner$[ebp]
  00007	8b f1		 mov	 esi, ecx
  00009	e8 00 00 00 00	 call	 ?StartBuff@ioBuff@@UAEXPAVioBaseChar@@@Z ; ioBuff::StartBuff

; 102  : 
; 103  : 	m_iSeedCount = 0;

  0000e	83 a6 5c 0a 00
	00 00		 and	 DWORD PTR [esi+2652], 0

; 104  : 
; 105  : 	SetRandomRate( m_PushPower );

  00015	8d 86 6c 09 00
	00		 lea	 eax, DWORD PTR [esi+2412]
  0001b	50		 push	 eax
  0001c	8b ce		 mov	 ecx, esi
  0001e	e8 00 00 00 00	 call	 ?SetRandomRate@ioAffectWoundedValueBuff@@IAEXAAUAffectRate@1@@Z ; ioAffectWoundedValueBuff::SetRandomRate

; 106  : 	SetRandomRate( m_AirPushPower );

  00023	8d 86 78 09 00
	00		 lea	 eax, DWORD PTR [esi+2424]
  00029	50		 push	 eax
  0002a	8b ce		 mov	 ecx, esi
  0002c	e8 00 00 00 00	 call	 ?SetRandomRate@ioAffectWoundedValueBuff@@IAEXAAUAffectRate@1@@Z ; ioAffectWoundedValueBuff::SetRandomRate

; 107  : 	SetRandomRate( m_DownPushPower );

  00031	8d 86 84 09 00
	00		 lea	 eax, DWORD PTR [esi+2436]
  00037	50		 push	 eax
  00038	8b ce		 mov	 ecx, esi
  0003a	e8 00 00 00 00	 call	 ?SetRandomRate@ioAffectWoundedValueBuff@@IAEXAAUAffectRate@1@@Z ; ioAffectWoundedValueBuff::SetRandomRate

; 108  : 
; 109  : 	SetRandomRate( m_BlowPower );

  0003f	8d 86 90 09 00
	00		 lea	 eax, DWORD PTR [esi+2448]
  00045	50		 push	 eax
  00046	8b ce		 mov	 ecx, esi
  00048	e8 00 00 00 00	 call	 ?SetRandomRate@ioAffectWoundedValueBuff@@IAEXAAUAffectRate@1@@Z ; ioAffectWoundedValueBuff::SetRandomRate

; 110  : 	SetRandomRate( m_AirBlowPower );

  0004d	8d 86 9c 09 00
	00		 lea	 eax, DWORD PTR [esi+2460]
  00053	50		 push	 eax
  00054	8b ce		 mov	 ecx, esi
  00056	e8 00 00 00 00	 call	 ?SetRandomRate@ioAffectWoundedValueBuff@@IAEXAAUAffectRate@1@@Z ; ioAffectWoundedValueBuff::SetRandomRate

; 111  : 	SetRandomRate( m_DownBlowPower );

  0005b	8d 86 a8 09 00
	00		 lea	 eax, DWORD PTR [esi+2472]
  00061	50		 push	 eax
  00062	8b ce		 mov	 ecx, esi
  00064	e8 00 00 00 00	 call	 ?SetRandomRate@ioAffectWoundedValueBuff@@IAEXAAUAffectRate@1@@Z ; ioAffectWoundedValueBuff::SetRandomRate

; 112  : 
; 113  : 	SetRandomRate( m_BoundJumpPower );

  00069	8d 86 b4 09 00
	00		 lea	 eax, DWORD PTR [esi+2484]
  0006f	50		 push	 eax
  00070	8b ce		 mov	 ecx, esi
  00072	e8 00 00 00 00	 call	 ?SetRandomRate@ioAffectWoundedValueBuff@@IAEXAAUAffectRate@1@@Z ; ioAffectWoundedValueBuff::SetRandomRate

; 114  : 	SetRandomRate( m_BoundForcePower );

  00077	8d 86 c0 09 00
	00		 lea	 eax, DWORD PTR [esi+2496]
  0007d	50		 push	 eax
  0007e	8b ce		 mov	 ecx, esi
  00080	e8 00 00 00 00	 call	 ?SetRandomRate@ioAffectWoundedValueBuff@@IAEXAAUAffectRate@1@@Z ; ioAffectWoundedValueBuff::SetRandomRate

; 115  : 	SetRandomRate( m_BoundGravity );

  00085	8d 86 cc 09 00
	00		 lea	 eax, DWORD PTR [esi+2508]
  0008b	50		 push	 eax
  0008c	8b ce		 mov	 ecx, esi
  0008e	e8 00 00 00 00	 call	 ?SetRandomRate@ioAffectWoundedValueBuff@@IAEXAAUAffectRate@1@@Z ; ioAffectWoundedValueBuff::SetRandomRate

; 116  : 	SetRandomRate( m_BoundDamage );

  00093	8d 86 d8 09 00
	00		 lea	 eax, DWORD PTR [esi+2520]
  00099	50		 push	 eax
  0009a	8b ce		 mov	 ecx, esi
  0009c	e8 00 00 00 00	 call	 ?SetRandomRate@ioAffectWoundedValueBuff@@IAEXAAUAffectRate@1@@Z ; ioAffectWoundedValueBuff::SetRandomRate

; 117  : 
; 118  : 	SetRandomRate( m_Damage );

  000a1	8d 86 e4 09 00
	00		 lea	 eax, DWORD PTR [esi+2532]
  000a7	50		 push	 eax
  000a8	8b ce		 mov	 ecx, esi
  000aa	e8 00 00 00 00	 call	 ?SetRandomRate@ioAffectWoundedValueBuff@@IAEXAAUAffectRate@1@@Z ; ioAffectWoundedValueBuff::SetRandomRate

; 119  : 
; 120  : 	SetRandomRate( m_FloatJumpPower );

  000af	8d 86 f0 09 00
	00		 lea	 eax, DWORD PTR [esi+2544]
  000b5	50		 push	 eax
  000b6	8b ce		 mov	 ecx, esi
  000b8	e8 00 00 00 00	 call	 ?SetRandomRate@ioAffectWoundedValueBuff@@IAEXAAUAffectRate@1@@Z ; ioAffectWoundedValueBuff::SetRandomRate

; 121  : 	SetRandomRate( m_FloatGravity );

  000bd	8d 86 fc 09 00
	00		 lea	 eax, DWORD PTR [esi+2556]
  000c3	50		 push	 eax
  000c4	8b ce		 mov	 ecx, esi
  000c6	e8 00 00 00 00	 call	 ?SetRandomRate@ioAffectWoundedValueBuff@@IAEXAAUAffectRate@1@@Z ; ioAffectWoundedValueBuff::SetRandomRate

; 122  : 	SetRandomRate( m_FloatFriction );

  000cb	8d 86 08 0a 00
	00		 lea	 eax, DWORD PTR [esi+2568]
  000d1	50		 push	 eax
  000d2	8b ce		 mov	 ecx, esi
  000d4	e8 00 00 00 00	 call	 ?SetRandomRate@ioAffectWoundedValueBuff@@IAEXAAUAffectRate@1@@Z ; ioAffectWoundedValueBuff::SetRandomRate

; 123  : 
; 124  : 	SetRandomRate( m_GetUpTimeRate );

  000d9	8d 86 14 0a 00
	00		 lea	 eax, DWORD PTR [esi+2580]
  000df	50		 push	 eax
  000e0	8b ce		 mov	 ecx, esi
  000e2	e8 00 00 00 00	 call	 ?SetRandomRate@ioAffectWoundedValueBuff@@IAEXAAUAffectRate@1@@Z ; ioAffectWoundedValueBuff::SetRandomRate

; 125  : 
; 126  : 	SetRandomRate( m_FallDamageRate );

  000e7	8d 86 20 0a 00
	00		 lea	 eax, DWORD PTR [esi+2592]
  000ed	50		 push	 eax
  000ee	8b ce		 mov	 ecx, esi
  000f0	e8 00 00 00 00	 call	 ?SetRandomRate@ioAffectWoundedValueBuff@@IAEXAAUAffectRate@1@@Z ; ioAffectWoundedValueBuff::SetRandomRate
  000f5	5e		 pop	 esi

; 127  : }

  000f6	5d		 pop	 ebp
  000f7	c2 04 00	 ret	 4
?StartBuff@ioAffectWoundedValueBuff@@UAEXPAVioBaseChar@@@Z ENDP ; ioAffectWoundedValueBuff::StartBuff
_TEXT	ENDS
PUBLIC	??N?$CEncrypt@K@@QAE_NABK@Z			; CEncrypt<unsigned long>::operator<=
; Function compile flags: /Ogsp
; File d:\lost saga for developer\youtube\tutorial\source\src\lsclient\encryptvalue.h
;	COMDAT ??N?$CEncrypt@K@@QAE_NABK@Z
_TEXT	SEGMENT
_value$ = -4						; size = 4
_inValue$ = 8						; size = 4
??N?$CEncrypt@K@@QAE_NABK@Z PROC			; CEncrypt<unsigned long>::operator<=, COMDAT
; _this$ = ecx

; 1431 : 	{

  00000	55		 push	 ebp
  00001	8b ec		 mov	 ebp, esp
  00003	51		 push	 ecx

; 1432 : 		
; 1433 : 		type value;
; 1434 : 		DecryptValueToPool(&value);

  00004	8d 45 fc	 lea	 eax, DWORD PTR _value$[ebp]
  00007	50		 push	 eax
  00008	e8 00 00 00 00	 call	 ?DecryptValueToPool@?$CEncrypt@K@@QAEXPAK@Z ; CEncrypt<unsigned long>::DecryptValueToPool

; 1435 : #ifdef _NOTUSE
; 1436 : 		Debug();
; 1437 : #endif
; 1438 : 		return (value <= inValue);

  0000d	8b 45 08	 mov	 eax, DWORD PTR _inValue$[ebp]
  00010	8b 00		 mov	 eax, DWORD PTR [eax]
  00012	3b 45 fc	 cmp	 eax, DWORD PTR _value$[ebp]
  00015	1b c0		 sbb	 eax, eax
  00017	40		 inc	 eax

; 1439 : 	}		

  00018	c9		 leave
  00019	c2 04 00	 ret	 4
??N?$CEncrypt@K@@QAE_NABK@Z ENDP			; CEncrypt<unsigned long>::operator<=
_TEXT	ENDS
PUBLIC	??B?$CEncrypt@W4BlowWoundedState@@@@QBE?AW4BlowWoundedState@@XZ ; CEncrypt<enum BlowWoundedState>::operator enum BlowWoundedState
; Function compile flags: /Ogsp
;	COMDAT ??B?$CEncrypt@W4BlowWoundedState@@@@QBE?AW4BlowWoundedState@@XZ
_TEXT	SEGMENT
_value$ = -4						; size = 4
??B?$CEncrypt@W4BlowWoundedState@@@@QBE?AW4BlowWoundedState@@XZ PROC ; CEncrypt<enum BlowWoundedState>::operator enum BlowWoundedState, COMDAT
; _this$ = ecx

; 145  : 	{

  00000	55		 push	 ebp
  00001	8b ec		 mov	 ebp, esp
  00003	51		 push	 ecx

; 146  : 		//UJ 130829, const도 똑같이 하면 된다 --start
; 147  : 		type value;
; 148  : 		CEncrypt<type>* pThis = const_cast<CEncrypt<type>*>(this);
; 149  : 		pThis->DecryptValueToPool(&value);

  00004	8d 45 fc	 lea	 eax, DWORD PTR _value$[ebp]
  00007	50		 push	 eax
  00008	e8 00 00 00 00	 call	 ?DecryptValueToPool@?$CEncrypt@W4BlowWoundedState@@@@QAEXPAW4BlowWoundedState@@@Z ; CEncrypt<enum BlowWoundedState>::DecryptValueToPool

; 150  : 		//// const에서 DecryptValueToPool 사용할 수 없으므로 아래와 같이함.
; 151  :  		//type value;
; 152  : 		//char szTempMem[MAX_ENCRYPT];
; 153  : 		//m_RC5.DecryptByte( m_MemPool, szTempMem, max(m_ValueSize, DEFAULT_ENCRYPT) );
; 154  : 		//memcpy( &value, szTempMem, m_ValueSize );
; 155  : 		//UJ --end
; 156  : 
; 157  : #ifdef _NOTUSE
; 158  : 		Debug();
; 159  : #endif
; 160  : 		return value;

  0000d	8b 45 fc	 mov	 eax, DWORD PTR _value$[ebp]

; 161  : 	}

  00010	c9		 leave
  00011	c3		 ret	 0
??B?$CEncrypt@W4BlowWoundedState@@@@QBE?AW4BlowWoundedState@@XZ ENDP ; CEncrypt<enum BlowWoundedState>::operator enum BlowWoundedState
_TEXT	ENDS
PUBLIC	__$ArrayPad$
PUBLIC	??$LoadFloat_e@$0BE@@ioINILoader@@QAEMAAY0BE@$$CBDM@Z ; ioINILoader::LoadFloat_e<20>
EXTRN	__imp_?LoadFloat@ioINILoader@@QAEMPBDM@Z:PROC
EXTRN	___security_cookie:DWORD
; Function compile flags: /Ogsp
; File d:\lost saga for developer\youtube\tutorial\source\src\io3dengine\ioiniloader.h
;	COMDAT ??$LoadFloat_e@$0BE@@ioINILoader@@QAEMAAY0BE@$$CBDM@Z
_TEXT	SEGMENT
__k$ = -28						; size = 20
__$ArrayPad$ = -4					; size = 4
_k$ = 8							; size = 4
_f$ = 12						; size = 4
??$LoadFloat_e@$0BE@@ioINILoader@@QAEMAAY0BE@$$CBDM@Z PROC ; ioINILoader::LoadFloat_e<20>, COMDAT
; _this$ = ecx

; 135  : 	{

  00000	55		 push	 ebp
  00001	8b ec		 mov	 ebp, esp
  00003	83 ec 1c	 sub	 esp, 28			; 0000001cH
  00006	a1 00 00 00 00	 mov	 eax, DWORD PTR ___security_cookie
  0000b	33 c5		 xor	 eax, ebp
  0000d	89 45 fc	 mov	 DWORD PTR __$ArrayPad$[ebp], eax
  00010	8b 45 08	 mov	 eax, DWORD PTR _k$[ebp]

; 136  : 		_ENCSTR(k, _k);

  00013	8a 10		 mov	 dl, BYTE PTR [eax]
  00015	53		 push	 ebx
  00016	56		 push	 esi
  00017	8b f1		 mov	 esi, ecx
  00019	84 d2		 test	 dl, dl
  0001b	0f 84 dd 01 00
	00		 je	 $LN96@LoadFloat_
  00021	80 f2 ed	 xor	 dl, -19			; ffffffedH
  00024	88 55 e4	 mov	 BYTE PTR __k$[ebp], dl
  00027	8a 50 01	 mov	 dl, BYTE PTR [eax+1]
  0002a	84 d2		 test	 dl, dl
  0002c	0f 84 c6 01 00
	00		 je	 $LN95@LoadFloat_
  00032	b3 ec		 mov	 bl, -20			; ffffffecH
  00034	32 d3		 xor	 dl, bl
  00036	88 55 e5	 mov	 BYTE PTR __k$[ebp+1], dl
  00039	8a 50 02	 mov	 dl, BYTE PTR [eax+2]
  0003c	84 d2		 test	 dl, dl
  0003e	0f 84 ae 01 00
	00		 je	 $LN94@LoadFloat_
  00044	b1 eb		 mov	 cl, -21			; ffffffebH
  00046	32 d1		 xor	 dl, cl
  00048	88 55 e6	 mov	 BYTE PTR __k$[ebp+2], dl
  0004b	8a 50 03	 mov	 dl, BYTE PTR [eax+3]
  0004e	84 d2		 test	 dl, dl
  00050	0f 84 96 01 00
	00		 je	 $LN93@LoadFloat_
  00056	80 f2 ea	 xor	 dl, -22			; ffffffeaH
  00059	88 55 e7	 mov	 BYTE PTR __k$[ebp+3], dl
  0005c	8a 50 04	 mov	 dl, BYTE PTR [eax+4]
  0005f	84 d2		 test	 dl, dl
  00061	0f 84 7f 01 00
	00		 je	 $LN92@LoadFloat_
  00067	80 f2 ed	 xor	 dl, -19			; ffffffedH
  0006a	88 55 e8	 mov	 BYTE PTR __k$[ebp+4], dl
  0006d	8a 50 05	 mov	 dl, BYTE PTR [eax+5]
  00070	84 d2		 test	 dl, dl
  00072	0f 84 69 01 00
	00		 je	 $LN91@LoadFloat_
  00078	32 d3		 xor	 dl, bl
  0007a	88 55 e9	 mov	 BYTE PTR __k$[ebp+5], dl
  0007d	8a 50 06	 mov	 dl, BYTE PTR [eax+6]
  00080	84 d2		 test	 dl, dl
  00082	0f 84 54 01 00
	00		 je	 $LN90@LoadFloat_
  00088	32 d1		 xor	 dl, cl
  0008a	88 55 ea	 mov	 BYTE PTR __k$[ebp+6], dl
  0008d	8a 50 07	 mov	 dl, BYTE PTR [eax+7]
  00090	84 d2		 test	 dl, dl
  00092	0f 84 3e 01 00
	00		 je	 $LN89@LoadFloat_
  00098	80 f2 ea	 xor	 dl, -22			; ffffffeaH
  0009b	88 55 eb	 mov	 BYTE PTR __k$[ebp+7], dl
  0009e	8a 50 08	 mov	 dl, BYTE PTR [eax+8]
  000a1	84 d2		 test	 dl, dl
  000a3	0f 84 27 01 00
	00		 je	 $LN88@LoadFloat_
  000a9	80 f2 ed	 xor	 dl, -19			; ffffffedH
  000ac	88 55 ec	 mov	 BYTE PTR __k$[ebp+8], dl
  000af	8a 50 09	 mov	 dl, BYTE PTR [eax+9]
  000b2	84 d2		 test	 dl, dl
  000b4	0f 84 11 01 00
	00		 je	 $LN87@LoadFloat_
  000ba	32 d3		 xor	 dl, bl
  000bc	88 55 ed	 mov	 BYTE PTR __k$[ebp+9], dl
  000bf	8a 50 0a	 mov	 dl, BYTE PTR [eax+10]
  000c2	84 d2		 test	 dl, dl
  000c4	0f 84 fc 00 00
	00		 je	 $LN86@LoadFloat_
  000ca	32 d1		 xor	 dl, cl
  000cc	88 55 ee	 mov	 BYTE PTR __k$[ebp+10], dl
  000cf	8a 50 0b	 mov	 dl, BYTE PTR [eax+11]
  000d2	84 d2		 test	 dl, dl
  000d4	0f 84 e6 00 00
	00		 je	 $LN85@LoadFloat_
  000da	80 f2 ea	 xor	 dl, -22			; ffffffeaH
  000dd	88 55 ef	 mov	 BYTE PTR __k$[ebp+11], dl
  000e0	8a 50 0c	 mov	 dl, BYTE PTR [eax+12]
  000e3	84 d2		 test	 dl, dl
  000e5	0f 84 cf 00 00
	00		 je	 $LN84@LoadFloat_
  000eb	80 f2 ed	 xor	 dl, -19			; ffffffedH
  000ee	88 55 f0	 mov	 BYTE PTR __k$[ebp+12], dl
  000f1	8a 50 0d	 mov	 dl, BYTE PTR [eax+13]
  000f4	84 d2		 test	 dl, dl
  000f6	0f 84 b9 00 00
	00		 je	 $LN83@LoadFloat_
  000fc	32 d3		 xor	 dl, bl
  000fe	88 55 f1	 mov	 BYTE PTR __k$[ebp+13], dl
  00101	8a 50 0e	 mov	 dl, BYTE PTR [eax+14]
  00104	84 d2		 test	 dl, dl
  00106	0f 84 a4 00 00
	00		 je	 $LN82@LoadFloat_
  0010c	32 d1		 xor	 dl, cl
  0010e	88 55 f2	 mov	 BYTE PTR __k$[ebp+14], dl
  00111	8a 50 0f	 mov	 dl, BYTE PTR [eax+15]
  00114	84 d2		 test	 dl, dl
  00116	0f 84 8e 00 00
	00		 je	 $LN81@LoadFloat_
  0011c	80 f2 ea	 xor	 dl, -22			; ffffffeaH
  0011f	88 55 f3	 mov	 BYTE PTR __k$[ebp+15], dl
  00122	8a 50 10	 mov	 dl, BYTE PTR [eax+16]
  00125	84 d2		 test	 dl, dl
  00127	74 7b		 je	 SHORT $LN80@LoadFloat_
  00129	80 f2 ed	 xor	 dl, -19			; ffffffedH
  0012c	88 55 f4	 mov	 BYTE PTR __k$[ebp+16], dl
  0012f	8a 50 11	 mov	 dl, BYTE PTR [eax+17]
  00132	84 d2		 test	 dl, dl
  00134	74 69		 je	 SHORT $LN79@LoadFloat_
  00136	32 d3		 xor	 dl, bl
  00138	88 55 f5	 mov	 BYTE PTR __k$[ebp+17], dl
  0013b	8a 50 12	 mov	 dl, BYTE PTR [eax+18]
  0013e	84 d2		 test	 dl, dl
  00140	74 58		 je	 SHORT $LN78@LoadFloat_
  00142	32 d1		 xor	 dl, cl
  00144	80 78 13 00	 cmp	 BYTE PTR [eax+19], 0
  00148	88 55 f6	 mov	 BYTE PTR __k$[ebp+18], dl
  0014b	0f 84 b1 00 00
	00		 je	 $LN1@LoadFloat_
  00151	8a 50 14	 mov	 dl, BYTE PTR [eax+20]
  00154	84 d2		 test	 dl, dl
  00156	74 3c		 je	 SHORT $LN76@LoadFloat_
  00158	80 f2 ed	 xor	 dl, -19			; ffffffedH
  0015b	88 55 f8	 mov	 BYTE PTR __k$[ebp+20], dl
  0015e	8a 50 15	 mov	 dl, BYTE PTR [eax+21]
  00161	84 d2		 test	 dl, dl
  00163	74 2a		 je	 SHORT $LN75@LoadFloat_
  00165	32 d3		 xor	 dl, bl
  00167	88 55 f9	 mov	 BYTE PTR __k$[ebp+21], dl
  0016a	8a 50 16	 mov	 dl, BYTE PTR [eax+22]
  0016d	84 d2		 test	 dl, dl
  0016f	74 19		 je	 SHORT $LN74@LoadFloat_
  00171	8a 40 17	 mov	 al, BYTE PTR [eax+23]
  00174	32 d1		 xor	 dl, cl
  00176	88 55 fa	 mov	 BYTE PTR __k$[ebp+22], dl
  00179	84 c0		 test	 al, al
  0017b	74 07		 je	 SHORT $LN73@LoadFloat_
  0017d	34 ea		 xor	 al, -22			; ffffffeaH
  0017f	88 45 fb	 mov	 BYTE PTR __k$[ebp+23], al
  00182	eb 7e		 jmp	 SHORT $LN1@LoadFloat_
$LN73@LoadFloat_:
  00184	c6 45 fb ea	 mov	 BYTE PTR __k$[ebp+23], -22 ; ffffffeaH
  00188	eb 78		 jmp	 SHORT $LN1@LoadFloat_
$LN74@LoadFloat_:
  0018a	88 4d fa	 mov	 BYTE PTR __k$[ebp+22], cl
  0018d	eb 73		 jmp	 SHORT $LN1@LoadFloat_
$LN75@LoadFloat_:
  0018f	88 5d f9	 mov	 BYTE PTR __k$[ebp+21], bl
  00192	eb 6e		 jmp	 SHORT $LN1@LoadFloat_
$LN76@LoadFloat_:
  00194	c6 45 f8 ed	 mov	 BYTE PTR __k$[ebp+20], -19 ; ffffffedH
  00198	eb 68		 jmp	 SHORT $LN1@LoadFloat_
$LN78@LoadFloat_:
  0019a	88 4d f6	 mov	 BYTE PTR __k$[ebp+18], cl
  0019d	eb 63		 jmp	 SHORT $LN1@LoadFloat_
$LN79@LoadFloat_:
  0019f	88 5d f5	 mov	 BYTE PTR __k$[ebp+17], bl
  001a2	eb 5e		 jmp	 SHORT $LN1@LoadFloat_
$LN80@LoadFloat_:
  001a4	c6 45 f4 ed	 mov	 BYTE PTR __k$[ebp+16], -19 ; ffffffedH
  001a8	eb 58		 jmp	 SHORT $LN1@LoadFloat_
$LN81@LoadFloat_:
  001aa	c6 45 f3 ea	 mov	 BYTE PTR __k$[ebp+15], -22 ; ffffffeaH
  001ae	eb 52		 jmp	 SHORT $LN1@LoadFloat_
$LN82@LoadFloat_:
  001b0	88 4d f2	 mov	 BYTE PTR __k$[ebp+14], cl
  001b3	eb 4d		 jmp	 SHORT $LN1@LoadFloat_
$LN83@LoadFloat_:
  001b5	88 5d f1	 mov	 BYTE PTR __k$[ebp+13], bl
  001b8	eb 48		 jmp	 SHORT $LN1@LoadFloat_
$LN84@LoadFloat_:
  001ba	c6 45 f0 ed	 mov	 BYTE PTR __k$[ebp+12], -19 ; ffffffedH
  001be	eb 42		 jmp	 SHORT $LN1@LoadFloat_
$LN85@LoadFloat_:
  001c0	c6 45 ef ea	 mov	 BYTE PTR __k$[ebp+11], -22 ; ffffffeaH
  001c4	eb 3c		 jmp	 SHORT $LN1@LoadFloat_
$LN86@LoadFloat_:
  001c6	88 4d ee	 mov	 BYTE PTR __k$[ebp+10], cl
  001c9	eb 37		 jmp	 SHORT $LN1@LoadFloat_
$LN87@LoadFloat_:
  001cb	88 5d ed	 mov	 BYTE PTR __k$[ebp+9], bl
  001ce	eb 32		 jmp	 SHORT $LN1@LoadFloat_
$LN88@LoadFloat_:
  001d0	c6 45 ec ed	 mov	 BYTE PTR __k$[ebp+8], -19 ; ffffffedH
  001d4	eb 2c		 jmp	 SHORT $LN1@LoadFloat_
$LN89@LoadFloat_:
  001d6	c6 45 eb ea	 mov	 BYTE PTR __k$[ebp+7], -22 ; ffffffeaH
  001da	eb 26		 jmp	 SHORT $LN1@LoadFloat_
$LN90@LoadFloat_:
  001dc	88 4d ea	 mov	 BYTE PTR __k$[ebp+6], cl
  001df	eb 21		 jmp	 SHORT $LN1@LoadFloat_
$LN91@LoadFloat_:
  001e1	88 5d e9	 mov	 BYTE PTR __k$[ebp+5], bl
  001e4	eb 1c		 jmp	 SHORT $LN1@LoadFloat_
$LN92@LoadFloat_:
  001e6	c6 45 e8 ed	 mov	 BYTE PTR __k$[ebp+4], -19 ; ffffffedH
  001ea	eb 16		 jmp	 SHORT $LN1@LoadFloat_
$LN93@LoadFloat_:
  001ec	c6 45 e7 ea	 mov	 BYTE PTR __k$[ebp+3], -22 ; ffffffeaH
  001f0	eb 10		 jmp	 SHORT $LN1@LoadFloat_
$LN94@LoadFloat_:
  001f2	c6 45 e6 eb	 mov	 BYTE PTR __k$[ebp+2], -21 ; ffffffebH
  001f6	eb 0a		 jmp	 SHORT $LN1@LoadFloat_
$LN95@LoadFloat_:
  001f8	c6 45 e5 ec	 mov	 BYTE PTR __k$[ebp+1], -20 ; ffffffecH
  001fc	eb 04		 jmp	 SHORT $LN1@LoadFloat_
$LN96@LoadFloat_:
  001fe	c6 45 e4 ed	 mov	 BYTE PTR __k$[ebp], -19	; ffffffedH
$LN1@LoadFloat_:
  00202	6a 04		 push	 4
  00204	8d 45 e4	 lea	 eax, DWORD PTR __k$[ebp]
  00207	c6 45 f7 00	 mov	 BYTE PTR __k$[ebp+19], 0
  0020b	5a		 pop	 edx
$LL104@LoadFloat_:
  0020c	81 30 ed ec eb
	ea		 xor	 DWORD PTR [eax], -353637139 ; eaebecedH
  00212	83 c0 04	 add	 eax, 4
  00215	4a		 dec	 edx
  00216	75 f4		 jne	 SHORT $LL104@LoadFloat_
  00218	6a 10		 push	 16			; 00000010H
  0021a	58		 pop	 eax
$LL101@LoadFloat_:
  0021b	8b c8		 mov	 ecx, eax
  0021d	81 e1 03 00 00
	80		 and	 ecx, -2147483645	; 80000003H
  00223	79 05		 jns	 SHORT $LN111@LoadFloat_
  00225	49		 dec	 ecx
  00226	83 c9 fc	 or	 ecx, -4			; fffffffcH
  00229	41		 inc	 ecx
$LN111@LoadFloat_:
  0022a	b2 ed		 mov	 dl, -19			; ffffffedH
  0022c	2a d1		 sub	 dl, cl
  0022e	30 54 05 e4	 xor	 BYTE PTR __k$[ebp+eax], dl
  00232	40		 inc	 eax
  00233	83 f8 13	 cmp	 eax, 19			; 00000013H
  00236	7c e3		 jl	 SHORT $LL101@LoadFloat_

; 137  : 		return LoadFloat(_k, f);

  00238	f3 0f 10 45 0c	 movss	 xmm0, DWORD PTR _f$[ebp]
  0023d	51		 push	 ecx
  0023e	8d 45 e4	 lea	 eax, DWORD PTR __k$[ebp]
  00241	f3 0f 11 04 24	 movss	 DWORD PTR [esp], xmm0
  00246	50		 push	 eax
  00247	8b ce		 mov	 ecx, esi
  00249	ff 15 00 00 00
	00		 call	 DWORD PTR __imp_?LoadFloat@ioINILoader@@QAEMPBDM@Z

; 138  : 	}

  0024f	8b 4d fc	 mov	 ecx, DWORD PTR __$ArrayPad$[ebp]
  00252	5e		 pop	 esi
  00253	33 cd		 xor	 ecx, ebp
  00255	5b		 pop	 ebx
  00256	e8 00 00 00 00	 call	 @__security_check_cookie@4
  0025b	c9		 leave
  0025c	c2 08 00	 ret	 8
??$LoadFloat_e@$0BE@@ioINILoader@@QAEMAAY0BE@$$CBDM@Z ENDP ; ioINILoader::LoadFloat_e<20>
_TEXT	ENDS
PUBLIC	__$ArrayPad$
PUBLIC	??$LoadFloat_e@$0BC@@ioINILoader@@QAEMAAY0BC@$$CBDM@Z ; ioINILoader::LoadFloat_e<18>
; Function compile flags: /Ogsp
;	COMDAT ??$LoadFloat_e@$0BC@@ioINILoader@@QAEMAAY0BC@$$CBDM@Z
_TEXT	SEGMENT
__k$ = -28						; size = 18
__$ArrayPad$ = -4					; size = 4
_k$ = 8							; size = 4
_f$ = 12						; size = 4
??$LoadFloat_e@$0BC@@ioINILoader@@QAEMAAY0BC@$$CBDM@Z PROC ; ioINILoader::LoadFloat_e<18>, COMDAT
; _this$ = ecx

; 135  : 	{

  00000	55		 push	 ebp
  00001	8b ec		 mov	 ebp, esp
  00003	83 ec 1c	 sub	 esp, 28			; 0000001cH
  00006	a1 00 00 00 00	 mov	 eax, DWORD PTR ___security_cookie
  0000b	33 c5		 xor	 eax, ebp
  0000d	89 45 fc	 mov	 DWORD PTR __$ArrayPad$[ebp], eax
  00010	8b 45 08	 mov	 eax, DWORD PTR _k$[ebp]

; 136  : 		_ENCSTR(k, _k);

  00013	8a 10		 mov	 dl, BYTE PTR [eax]
  00015	56		 push	 esi
  00016	8b f1		 mov	 esi, ecx
  00018	84 d2		 test	 dl, dl
  0001a	0f 84 be 01 00
	00		 je	 $LN96@LoadFloat_@2
  00020	80 f2 ed	 xor	 dl, -19			; ffffffedH
  00023	88 55 e4	 mov	 BYTE PTR __k$[ebp], dl
  00026	8a 50 01	 mov	 dl, BYTE PTR [eax+1]
  00029	84 d2		 test	 dl, dl
  0002b	0f 84 a7 01 00
	00		 je	 $LN95@LoadFloat_@2
  00031	80 f2 ec	 xor	 dl, -20			; ffffffecH
  00034	88 55 e5	 mov	 BYTE PTR __k$[ebp+1], dl
  00037	8a 50 02	 mov	 dl, BYTE PTR [eax+2]
  0003a	84 d2		 test	 dl, dl
  0003c	0f 84 90 01 00
	00		 je	 $LN94@LoadFloat_@2
  00042	b1 eb		 mov	 cl, -21			; ffffffebH
  00044	32 d1		 xor	 dl, cl
  00046	88 55 e6	 mov	 BYTE PTR __k$[ebp+2], dl
  00049	8a 50 03	 mov	 dl, BYTE PTR [eax+3]
  0004c	84 d2		 test	 dl, dl
  0004e	0f 84 78 01 00
	00		 je	 $LN93@LoadFloat_@2
  00054	80 f2 ea	 xor	 dl, -22			; ffffffeaH
  00057	88 55 e7	 mov	 BYTE PTR __k$[ebp+3], dl
  0005a	8a 50 04	 mov	 dl, BYTE PTR [eax+4]
  0005d	84 d2		 test	 dl, dl
  0005f	0f 84 61 01 00
	00		 je	 $LN92@LoadFloat_@2
  00065	80 f2 ed	 xor	 dl, -19			; ffffffedH
  00068	88 55 e8	 mov	 BYTE PTR __k$[ebp+4], dl
  0006b	8a 50 05	 mov	 dl, BYTE PTR [eax+5]
  0006e	84 d2		 test	 dl, dl
  00070	0f 84 4a 01 00
	00		 je	 $LN91@LoadFloat_@2
  00076	80 f2 ec	 xor	 dl, -20			; ffffffecH
  00079	88 55 e9	 mov	 BYTE PTR __k$[ebp+5], dl
  0007c	8a 50 06	 mov	 dl, BYTE PTR [eax+6]
  0007f	84 d2		 test	 dl, dl
  00081	0f 84 34 01 00
	00		 je	 $LN90@LoadFloat_@2
  00087	32 d1		 xor	 dl, cl
  00089	88 55 ea	 mov	 BYTE PTR __k$[ebp+6], dl
  0008c	8a 50 07	 mov	 dl, BYTE PTR [eax+7]
  0008f	84 d2		 test	 dl, dl
  00091	0f 84 1e 01 00
	00		 je	 $LN89@LoadFloat_@2
  00097	80 f2 ea	 xor	 dl, -22			; ffffffeaH
  0009a	88 55 eb	 mov	 BYTE PTR __k$[ebp+7], dl
  0009d	8a 50 08	 mov	 dl, BYTE PTR [eax+8]
  000a0	84 d2		 test	 dl, dl
  000a2	0f 84 07 01 00
	00		 je	 $LN88@LoadFloat_@2
  000a8	80 f2 ed	 xor	 dl, -19			; ffffffedH
  000ab	88 55 ec	 mov	 BYTE PTR __k$[ebp+8], dl
  000ae	8a 50 09	 mov	 dl, BYTE PTR [eax+9]
  000b1	84 d2		 test	 dl, dl
  000b3	0f 84 f0 00 00
	00		 je	 $LN87@LoadFloat_@2
  000b9	80 f2 ec	 xor	 dl, -20			; ffffffecH
  000bc	88 55 ed	 mov	 BYTE PTR __k$[ebp+9], dl
  000bf	8a 50 0a	 mov	 dl, BYTE PTR [eax+10]
  000c2	84 d2		 test	 dl, dl
  000c4	0f 84 da 00 00
	00		 je	 $LN86@LoadFloat_@2
  000ca	32 d1		 xor	 dl, cl
  000cc	88 55 ee	 mov	 BYTE PTR __k$[ebp+10], dl
  000cf	8a 50 0b	 mov	 dl, BYTE PTR [eax+11]
  000d2	84 d2		 test	 dl, dl
  000d4	0f 84 c4 00 00
	00		 je	 $LN85@LoadFloat_@2
  000da	80 f2 ea	 xor	 dl, -22			; ffffffeaH
  000dd	88 55 ef	 mov	 BYTE PTR __k$[ebp+11], dl
  000e0	8a 50 0c	 mov	 dl, BYTE PTR [eax+12]
  000e3	84 d2		 test	 dl, dl
  000e5	0f 84 ad 00 00
	00		 je	 $LN84@LoadFloat_@2
  000eb	80 f2 ed	 xor	 dl, -19			; ffffffedH
  000ee	88 55 f0	 mov	 BYTE PTR __k$[ebp+12], dl
  000f1	8a 50 0d	 mov	 dl, BYTE PTR [eax+13]
  000f4	84 d2		 test	 dl, dl
  000f6	0f 84 96 00 00
	00		 je	 $LN83@LoadFloat_@2
  000fc	80 f2 ec	 xor	 dl, -20			; ffffffecH
  000ff	88 55 f1	 mov	 BYTE PTR __k$[ebp+13], dl
  00102	8a 50 0e	 mov	 dl, BYTE PTR [eax+14]
  00105	84 d2		 test	 dl, dl
  00107	0f 84 80 00 00
	00		 je	 $LN82@LoadFloat_@2
  0010d	32 d1		 xor	 dl, cl
  0010f	88 55 f2	 mov	 BYTE PTR __k$[ebp+14], dl
  00112	8a 50 0f	 mov	 dl, BYTE PTR [eax+15]
  00115	84 d2		 test	 dl, dl
  00117	74 6e		 je	 SHORT $LN81@LoadFloat_@2
  00119	80 f2 ea	 xor	 dl, -22			; ffffffeaH
  0011c	88 55 f3	 mov	 BYTE PTR __k$[ebp+15], dl
  0011f	8a 50 10	 mov	 dl, BYTE PTR [eax+16]
  00122	84 d2		 test	 dl, dl
  00124	74 5b		 je	 SHORT $LN80@LoadFloat_@2
  00126	80 f2 ed	 xor	 dl, -19			; ffffffedH
  00129	80 78 11 00	 cmp	 BYTE PTR [eax+17], 0
  0012d	88 55 f4	 mov	 BYTE PTR __k$[ebp+16], dl
  00130	0f 84 ac 00 00
	00		 je	 $LN1@LoadFloat_@2
  00136	8a 50 12	 mov	 dl, BYTE PTR [eax+18]
  00139	84 d2		 test	 dl, dl
  0013b	74 3f		 je	 SHORT $LN78@LoadFloat_@2
  0013d	32 d1		 xor	 dl, cl
  0013f	88 55 f6	 mov	 BYTE PTR __k$[ebp+18], dl
  00142	8a 50 13	 mov	 dl, BYTE PTR [eax+19]
  00145	84 d2		 test	 dl, dl
  00147	74 2d		 je	 SHORT $LN77@LoadFloat_@2
  00149	80 f2 ea	 xor	 dl, -22			; ffffffeaH
  0014c	88 55 f7	 mov	 BYTE PTR __k$[ebp+19], dl
  0014f	8a 50 14	 mov	 dl, BYTE PTR [eax+20]
  00152	84 d2		 test	 dl, dl
  00154	74 1a		 je	 SHORT $LN76@LoadFloat_@2
  00156	8a 40 15	 mov	 al, BYTE PTR [eax+21]
  00159	80 f2 ed	 xor	 dl, -19			; ffffffedH
  0015c	88 55 f8	 mov	 BYTE PTR __k$[ebp+20], dl
  0015f	84 c0		 test	 al, al
  00161	74 07		 je	 SHORT $LN75@LoadFloat_@2
  00163	34 ec		 xor	 al, -20			; ffffffecH
  00165	88 45 f9	 mov	 BYTE PTR __k$[ebp+21], al
  00168	eb 78		 jmp	 SHORT $LN1@LoadFloat_@2
$LN75@LoadFloat_@2:
  0016a	c6 45 f9 ec	 mov	 BYTE PTR __k$[ebp+21], -20 ; ffffffecH
  0016e	eb 72		 jmp	 SHORT $LN1@LoadFloat_@2
$LN76@LoadFloat_@2:
  00170	c6 45 f8 ed	 mov	 BYTE PTR __k$[ebp+20], -19 ; ffffffedH
  00174	eb 6c		 jmp	 SHORT $LN1@LoadFloat_@2
$LN77@LoadFloat_@2:
  00176	c6 45 f7 ea	 mov	 BYTE PTR __k$[ebp+19], -22 ; ffffffeaH
  0017a	eb 66		 jmp	 SHORT $LN1@LoadFloat_@2
$LN78@LoadFloat_@2:
  0017c	88 4d f6	 mov	 BYTE PTR __k$[ebp+18], cl
  0017f	eb 61		 jmp	 SHORT $LN1@LoadFloat_@2
$LN80@LoadFloat_@2:
  00181	c6 45 f4 ed	 mov	 BYTE PTR __k$[ebp+16], -19 ; ffffffedH
  00185	eb 5b		 jmp	 SHORT $LN1@LoadFloat_@2
$LN81@LoadFloat_@2:
  00187	c6 45 f3 ea	 mov	 BYTE PTR __k$[ebp+15], -22 ; ffffffeaH
  0018b	eb 55		 jmp	 SHORT $LN1@LoadFloat_@2
$LN82@LoadFloat_@2:
  0018d	88 4d f2	 mov	 BYTE PTR __k$[ebp+14], cl
  00190	eb 50		 jmp	 SHORT $LN1@LoadFloat_@2
$LN83@LoadFloat_@2:
  00192	c6 45 f1 ec	 mov	 BYTE PTR __k$[ebp+13], -20 ; ffffffecH
  00196	eb 4a		 jmp	 SHORT $LN1@LoadFloat_@2
$LN84@LoadFloat_@2:
  00198	c6 45 f0 ed	 mov	 BYTE PTR __k$[ebp+12], -19 ; ffffffedH
  0019c	eb 44		 jmp	 SHORT $LN1@LoadFloat_@2
$LN85@LoadFloat_@2:
  0019e	c6 45 ef ea	 mov	 BYTE PTR __k$[ebp+11], -22 ; ffffffeaH
  001a2	eb 3e		 jmp	 SHORT $LN1@LoadFloat_@2
$LN86@LoadFloat_@2:
  001a4	88 4d ee	 mov	 BYTE PTR __k$[ebp+10], cl
  001a7	eb 39		 jmp	 SHORT $LN1@LoadFloat_@2
$LN87@LoadFloat_@2:
  001a9	c6 45 ed ec	 mov	 BYTE PTR __k$[ebp+9], -20 ; ffffffecH
  001ad	eb 33		 jmp	 SHORT $LN1@LoadFloat_@2
$LN88@LoadFloat_@2:
  001af	c6 45 ec ed	 mov	 BYTE PTR __k$[ebp+8], -19 ; ffffffedH
  001b3	eb 2d		 jmp	 SHORT $LN1@LoadFloat_@2
$LN89@LoadFloat_@2:
  001b5	c6 45 eb ea	 mov	 BYTE PTR __k$[ebp+7], -22 ; ffffffeaH
  001b9	eb 27		 jmp	 SHORT $LN1@LoadFloat_@2
$LN90@LoadFloat_@2:
  001bb	88 4d ea	 mov	 BYTE PTR __k$[ebp+6], cl
  001be	eb 22		 jmp	 SHORT $LN1@LoadFloat_@2
$LN91@LoadFloat_@2:
  001c0	c6 45 e9 ec	 mov	 BYTE PTR __k$[ebp+5], -20 ; ffffffecH
  001c4	eb 1c		 jmp	 SHORT $LN1@LoadFloat_@2
$LN92@LoadFloat_@2:
  001c6	c6 45 e8 ed	 mov	 BYTE PTR __k$[ebp+4], -19 ; ffffffedH
  001ca	eb 16		 jmp	 SHORT $LN1@LoadFloat_@2
$LN93@LoadFloat_@2:
  001cc	c6 45 e7 ea	 mov	 BYTE PTR __k$[ebp+3], -22 ; ffffffeaH
  001d0	eb 10		 jmp	 SHORT $LN1@LoadFloat_@2
$LN94@LoadFloat_@2:
  001d2	c6 45 e6 eb	 mov	 BYTE PTR __k$[ebp+2], -21 ; ffffffebH
  001d6	eb 0a		 jmp	 SHORT $LN1@LoadFloat_@2
$LN95@LoadFloat_@2:
  001d8	c6 45 e5 ec	 mov	 BYTE PTR __k$[ebp+1], -20 ; ffffffecH
  001dc	eb 04		 jmp	 SHORT $LN1@LoadFloat_@2
$LN96@LoadFloat_@2:
  001de	c6 45 e4 ed	 mov	 BYTE PTR __k$[ebp], -19	; ffffffedH
$LN1@LoadFloat_@2:
  001e2	6a 04		 push	 4
  001e4	8d 45 e4	 lea	 eax, DWORD PTR __k$[ebp]
  001e7	c6 45 f5 00	 mov	 BYTE PTR __k$[ebp+17], 0
  001eb	5a		 pop	 edx
$LL104@LoadFloat_@2:
  001ec	81 30 ed ec eb
	ea		 xor	 DWORD PTR [eax], -353637139 ; eaebecedH
  001f2	83 c0 04	 add	 eax, 4
  001f5	4a		 dec	 edx
  001f6	75 f4		 jne	 SHORT $LL104@LoadFloat_@2

; 137  : 		return LoadFloat(_k, f);

  001f8	f3 0f 10 45 0c	 movss	 xmm0, DWORD PTR _f$[ebp]
  001fd	80 75 f4 ed	 xor	 BYTE PTR __k$[ebp+16], -19 ; ffffffedH
  00201	51		 push	 ecx
  00202	8d 45 e4	 lea	 eax, DWORD PTR __k$[ebp]
  00205	f3 0f 11 04 24	 movss	 DWORD PTR [esp], xmm0
  0020a	50		 push	 eax
  0020b	8b ce		 mov	 ecx, esi
  0020d	ff 15 00 00 00
	00		 call	 DWORD PTR __imp_?LoadFloat@ioINILoader@@QAEMPBDM@Z

; 138  : 	}

  00213	8b 4d fc	 mov	 ecx, DWORD PTR __$ArrayPad$[ebp]
  00216	33 cd		 xor	 ecx, ebp
  00218	5e		 pop	 esi
  00219	e8 00 00 00 00	 call	 @__security_check_cookie@4
  0021e	c9		 leave
  0021f	c2 08 00	 ret	 8
??$LoadFloat_e@$0BC@@ioINILoader@@QAEMAAY0BC@$$CBDM@Z ENDP ; ioINILoader::LoadFloat_e<18>
_TEXT	ENDS
PUBLIC	__$ArrayPad$
PUBLIC	??$LoadFloat_e@$0BD@@ioINILoader@@QAEMAAY0BD@$$CBDM@Z ; ioINILoader::LoadFloat_e<19>
; Function compile flags: /Ogsp
;	COMDAT ??$LoadFloat_e@$0BD@@ioINILoader@@QAEMAAY0BD@$$CBDM@Z
_TEXT	SEGMENT
__k$ = -28						; size = 19
__$ArrayPad$ = -4					; size = 4
_k$ = 8							; size = 4
_f$ = 12						; size = 4
??$LoadFloat_e@$0BD@@ioINILoader@@QAEMAAY0BD@$$CBDM@Z PROC ; ioINILoader::LoadFloat_e<19>, COMDAT
; _this$ = ecx

; 135  : 	{

  00000	55		 push	 ebp
  00001	8b ec		 mov	 ebp, esp
  00003	83 ec 1c	 sub	 esp, 28			; 0000001cH
  00006	a1 00 00 00 00	 mov	 eax, DWORD PTR ___security_cookie
  0000b	33 c5		 xor	 eax, ebp
  0000d	89 45 fc	 mov	 DWORD PTR __$ArrayPad$[ebp], eax
  00010	8b 45 08	 mov	 eax, DWORD PTR _k$[ebp]

; 136  : 		_ENCSTR(k, _k);

  00013	8a 10		 mov	 dl, BYTE PTR [eax]
  00015	56		 push	 esi
  00016	8b f1		 mov	 esi, ecx
  00018	84 d2		 test	 dl, dl
  0001a	0f 84 cf 01 00
	00		 je	 $LN96@LoadFloat_@3
  00020	80 f2 ed	 xor	 dl, -19			; ffffffedH
  00023	88 55 e4	 mov	 BYTE PTR __k$[ebp], dl
  00026	8a 50 01	 mov	 dl, BYTE PTR [eax+1]
  00029	84 d2		 test	 dl, dl
  0002b	0f 84 b8 01 00
	00		 je	 $LN95@LoadFloat_@3
  00031	b1 ec		 mov	 cl, -20			; ffffffecH
  00033	32 d1		 xor	 dl, cl
  00035	88 55 e5	 mov	 BYTE PTR __k$[ebp+1], dl
  00038	8a 50 02	 mov	 dl, BYTE PTR [eax+2]
  0003b	84 d2		 test	 dl, dl
  0003d	0f 84 a0 01 00
	00		 je	 $LN94@LoadFloat_@3
  00043	80 f2 eb	 xor	 dl, -21			; ffffffebH
  00046	88 55 e6	 mov	 BYTE PTR __k$[ebp+2], dl
  00049	8a 50 03	 mov	 dl, BYTE PTR [eax+3]
  0004c	84 d2		 test	 dl, dl
  0004e	0f 84 89 01 00
	00		 je	 $LN93@LoadFloat_@3
  00054	80 f2 ea	 xor	 dl, -22			; ffffffeaH
  00057	88 55 e7	 mov	 BYTE PTR __k$[ebp+3], dl
  0005a	8a 50 04	 mov	 dl, BYTE PTR [eax+4]
  0005d	84 d2		 test	 dl, dl
  0005f	0f 84 72 01 00
	00		 je	 $LN92@LoadFloat_@3
  00065	80 f2 ed	 xor	 dl, -19			; ffffffedH
  00068	88 55 e8	 mov	 BYTE PTR __k$[ebp+4], dl
  0006b	8a 50 05	 mov	 dl, BYTE PTR [eax+5]
  0006e	84 d2		 test	 dl, dl
  00070	0f 84 5c 01 00
	00		 je	 $LN91@LoadFloat_@3
  00076	32 d1		 xor	 dl, cl
  00078	88 55 e9	 mov	 BYTE PTR __k$[ebp+5], dl
  0007b	8a 50 06	 mov	 dl, BYTE PTR [eax+6]
  0007e	84 d2		 test	 dl, dl
  00080	0f 84 46 01 00
	00		 je	 $LN90@LoadFloat_@3
  00086	80 f2 eb	 xor	 dl, -21			; ffffffebH
  00089	88 55 ea	 mov	 BYTE PTR __k$[ebp+6], dl
  0008c	8a 50 07	 mov	 dl, BYTE PTR [eax+7]
  0008f	84 d2		 test	 dl, dl
  00091	0f 84 2f 01 00
	00		 je	 $LN89@LoadFloat_@3
  00097	80 f2 ea	 xor	 dl, -22			; ffffffeaH
  0009a	88 55 eb	 mov	 BYTE PTR __k$[ebp+7], dl
  0009d	8a 50 08	 mov	 dl, BYTE PTR [eax+8]
  000a0	84 d2		 test	 dl, dl
  000a2	0f 84 18 01 00
	00		 je	 $LN88@LoadFloat_@3
  000a8	80 f2 ed	 xor	 dl, -19			; ffffffedH
  000ab	88 55 ec	 mov	 BYTE PTR __k$[ebp+8], dl
  000ae	8a 50 09	 mov	 dl, BYTE PTR [eax+9]
  000b1	84 d2		 test	 dl, dl
  000b3	0f 84 02 01 00
	00		 je	 $LN87@LoadFloat_@3
  000b9	32 d1		 xor	 dl, cl
  000bb	88 55 ed	 mov	 BYTE PTR __k$[ebp+9], dl
  000be	8a 50 0a	 mov	 dl, BYTE PTR [eax+10]
  000c1	84 d2		 test	 dl, dl
  000c3	0f 84 ec 00 00
	00		 je	 $LN86@LoadFloat_@3
  000c9	80 f2 eb	 xor	 dl, -21			; ffffffebH
  000cc	88 55 ee	 mov	 BYTE PTR __k$[ebp+10], dl
  000cf	8a 50 0b	 mov	 dl, BYTE PTR [eax+11]
  000d2	84 d2		 test	 dl, dl
  000d4	0f 84 d5 00 00
	00		 je	 $LN85@LoadFloat_@3
  000da	80 f2 ea	 xor	 dl, -22			; ffffffeaH
  000dd	88 55 ef	 mov	 BYTE PTR __k$[ebp+11], dl
  000e0	8a 50 0c	 mov	 dl, BYTE PTR [eax+12]
  000e3	84 d2		 test	 dl, dl
  000e5	0f 84 be 00 00
	00		 je	 $LN84@LoadFloat_@3
  000eb	80 f2 ed	 xor	 dl, -19			; ffffffedH
  000ee	88 55 f0	 mov	 BYTE PTR __k$[ebp+12], dl
  000f1	8a 50 0d	 mov	 dl, BYTE PTR [eax+13]
  000f4	84 d2		 test	 dl, dl
  000f6	0f 84 a8 00 00
	00		 je	 $LN83@LoadFloat_@3
  000fc	32 d1		 xor	 dl, cl
  000fe	88 55 f1	 mov	 BYTE PTR __k$[ebp+13], dl
  00101	8a 50 0e	 mov	 dl, BYTE PTR [eax+14]
  00104	84 d2		 test	 dl, dl
  00106	0f 84 92 00 00
	00		 je	 $LN82@LoadFloat_@3
  0010c	80 f2 eb	 xor	 dl, -21			; ffffffebH
  0010f	88 55 f2	 mov	 BYTE PTR __k$[ebp+14], dl
  00112	8a 50 0f	 mov	 dl, BYTE PTR [eax+15]
  00115	84 d2		 test	 dl, dl
  00117	74 7f		 je	 SHORT $LN81@LoadFloat_@3
  00119	80 f2 ea	 xor	 dl, -22			; ffffffeaH
  0011c	88 55 f3	 mov	 BYTE PTR __k$[ebp+15], dl
  0011f	8a 50 10	 mov	 dl, BYTE PTR [eax+16]
  00122	84 d2		 test	 dl, dl
  00124	74 6c		 je	 SHORT $LN80@LoadFloat_@3
  00126	80 f2 ed	 xor	 dl, -19			; ffffffedH
  00129	88 55 f4	 mov	 BYTE PTR __k$[ebp+16], dl
  0012c	8a 50 11	 mov	 dl, BYTE PTR [eax+17]
  0012f	84 d2		 test	 dl, dl
  00131	74 5a		 je	 SHORT $LN79@LoadFloat_@3
  00133	32 d1		 xor	 dl, cl
  00135	80 78 12 00	 cmp	 BYTE PTR [eax+18], 0
  00139	88 55 f5	 mov	 BYTE PTR __k$[ebp+17], dl
  0013c	0f 84 b1 00 00
	00		 je	 $LN1@LoadFloat_@3
  00142	8a 50 13	 mov	 dl, BYTE PTR [eax+19]
  00145	84 d2		 test	 dl, dl
  00147	74 3e		 je	 SHORT $LN77@LoadFloat_@3
  00149	80 f2 ea	 xor	 dl, -22			; ffffffeaH
  0014c	88 55 f7	 mov	 BYTE PTR __k$[ebp+19], dl
  0014f	8a 50 14	 mov	 dl, BYTE PTR [eax+20]
  00152	84 d2		 test	 dl, dl
  00154	74 2b		 je	 SHORT $LN76@LoadFloat_@3
  00156	80 f2 ed	 xor	 dl, -19			; ffffffedH
  00159	88 55 f8	 mov	 BYTE PTR __k$[ebp+20], dl
  0015c	8a 50 15	 mov	 dl, BYTE PTR [eax+21]
  0015f	84 d2		 test	 dl, dl
  00161	74 19		 je	 SHORT $LN75@LoadFloat_@3
  00163	8a 40 16	 mov	 al, BYTE PTR [eax+22]
  00166	32 d1		 xor	 dl, cl
  00168	88 55 f9	 mov	 BYTE PTR __k$[ebp+21], dl
  0016b	84 c0		 test	 al, al
  0016d	74 07		 je	 SHORT $LN74@LoadFloat_@3
  0016f	34 eb		 xor	 al, -21			; ffffffebH
  00171	88 45 fa	 mov	 BYTE PTR __k$[ebp+22], al
  00174	eb 7d		 jmp	 SHORT $LN1@LoadFloat_@3
$LN74@LoadFloat_@3:
  00176	c6 45 fa eb	 mov	 BYTE PTR __k$[ebp+22], -21 ; ffffffebH
  0017a	eb 77		 jmp	 SHORT $LN1@LoadFloat_@3
$LN75@LoadFloat_@3:
  0017c	88 4d f9	 mov	 BYTE PTR __k$[ebp+21], cl
  0017f	eb 72		 jmp	 SHORT $LN1@LoadFloat_@3
$LN76@LoadFloat_@3:
  00181	c6 45 f8 ed	 mov	 BYTE PTR __k$[ebp+20], -19 ; ffffffedH
  00185	eb 6c		 jmp	 SHORT $LN1@LoadFloat_@3
$LN77@LoadFloat_@3:
  00187	c6 45 f7 ea	 mov	 BYTE PTR __k$[ebp+19], -22 ; ffffffeaH
  0018b	eb 66		 jmp	 SHORT $LN1@LoadFloat_@3
$LN79@LoadFloat_@3:
  0018d	88 4d f5	 mov	 BYTE PTR __k$[ebp+17], cl
  00190	eb 61		 jmp	 SHORT $LN1@LoadFloat_@3
$LN80@LoadFloat_@3:
  00192	c6 45 f4 ed	 mov	 BYTE PTR __k$[ebp+16], -19 ; ffffffedH
  00196	eb 5b		 jmp	 SHORT $LN1@LoadFloat_@3
$LN81@LoadFloat_@3:
  00198	c6 45 f3 ea	 mov	 BYTE PTR __k$[ebp+15], -22 ; ffffffeaH
  0019c	eb 55		 jmp	 SHORT $LN1@LoadFloat_@3
$LN82@LoadFloat_@3:
  0019e	c6 45 f2 eb	 mov	 BYTE PTR __k$[ebp+14], -21 ; ffffffebH
  001a2	eb 4f		 jmp	 SHORT $LN1@LoadFloat_@3
$LN83@LoadFloat_@3:
  001a4	88 4d f1	 mov	 BYTE PTR __k$[ebp+13], cl
  001a7	eb 4a		 jmp	 SHORT $LN1@LoadFloat_@3
$LN84@LoadFloat_@3:
  001a9	c6 45 f0 ed	 mov	 BYTE PTR __k$[ebp+12], -19 ; ffffffedH
  001ad	eb 44		 jmp	 SHORT $LN1@LoadFloat_@3
$LN85@LoadFloat_@3:
  001af	c6 45 ef ea	 mov	 BYTE PTR __k$[ebp+11], -22 ; ffffffeaH
  001b3	eb 3e		 jmp	 SHORT $LN1@LoadFloat_@3
$LN86@LoadFloat_@3:
  001b5	c6 45 ee eb	 mov	 BYTE PTR __k$[ebp+10], -21 ; ffffffebH
  001b9	eb 38		 jmp	 SHORT $LN1@LoadFloat_@3
$LN87@LoadFloat_@3:
  001bb	88 4d ed	 mov	 BYTE PTR __k$[ebp+9], cl
  001be	eb 33		 jmp	 SHORT $LN1@LoadFloat_@3
$LN88@LoadFloat_@3:
  001c0	c6 45 ec ed	 mov	 BYTE PTR __k$[ebp+8], -19 ; ffffffedH
  001c4	eb 2d		 jmp	 SHORT $LN1@LoadFloat_@3
$LN89@LoadFloat_@3:
  001c6	c6 45 eb ea	 mov	 BYTE PTR __k$[ebp+7], -22 ; ffffffeaH
  001ca	eb 27		 jmp	 SHORT $LN1@LoadFloat_@3
$LN90@LoadFloat_@3:
  001cc	c6 45 ea eb	 mov	 BYTE PTR __k$[ebp+6], -21 ; ffffffebH
  001d0	eb 21		 jmp	 SHORT $LN1@LoadFloat_@3
$LN91@LoadFloat_@3:
  001d2	88 4d e9	 mov	 BYTE PTR __k$[ebp+5], cl
  001d5	eb 1c		 jmp	 SHORT $LN1@LoadFloat_@3
$LN92@LoadFloat_@3:
  001d7	c6 45 e8 ed	 mov	 BYTE PTR __k$[ebp+4], -19 ; ffffffedH
  001db	eb 16		 jmp	 SHORT $LN1@LoadFloat_@3
$LN93@LoadFloat_@3:
  001dd	c6 45 e7 ea	 mov	 BYTE PTR __k$[ebp+3], -22 ; ffffffeaH
  001e1	eb 10		 jmp	 SHORT $LN1@LoadFloat_@3
$LN94@LoadFloat_@3:
  001e3	c6 45 e6 eb	 mov	 BYTE PTR __k$[ebp+2], -21 ; ffffffebH
  001e7	eb 0a		 jmp	 SHORT $LN1@LoadFloat_@3
$LN95@LoadFloat_@3:
  001e9	c6 45 e5 ec	 mov	 BYTE PTR __k$[ebp+1], -20 ; ffffffecH
  001ed	eb 04		 jmp	 SHORT $LN1@LoadFloat_@3
$LN96@LoadFloat_@3:
  001ef	c6 45 e4 ed	 mov	 BYTE PTR __k$[ebp], -19	; ffffffedH
$LN1@LoadFloat_@3:
  001f3	6a 04		 push	 4
  001f5	8d 45 e4	 lea	 eax, DWORD PTR __k$[ebp]
  001f8	c6 45 f6 00	 mov	 BYTE PTR __k$[ebp+18], 0
  001fc	5a		 pop	 edx
$LL104@LoadFloat_@3:
  001fd	81 30 ed ec eb
	ea		 xor	 DWORD PTR [eax], -353637139 ; eaebecedH
  00203	83 c0 04	 add	 eax, 4
  00206	4a		 dec	 edx
  00207	75 f4		 jne	 SHORT $LL104@LoadFloat_@3
  00209	6a 10		 push	 16			; 00000010H
  0020b	58		 pop	 eax
$LL101@LoadFloat_@3:
  0020c	8b c8		 mov	 ecx, eax
  0020e	81 e1 03 00 00
	80		 and	 ecx, -2147483645	; 80000003H
  00214	79 05		 jns	 SHORT $LN111@LoadFloat_@3
  00216	49		 dec	 ecx
  00217	83 c9 fc	 or	 ecx, -4			; fffffffcH
  0021a	41		 inc	 ecx
$LN111@LoadFloat_@3:
  0021b	b2 ed		 mov	 dl, -19			; ffffffedH
  0021d	2a d1		 sub	 dl, cl
  0021f	30 54 05 e4	 xor	 BYTE PTR __k$[ebp+eax], dl
  00223	40		 inc	 eax
  00224	83 f8 12	 cmp	 eax, 18			; 00000012H
  00227	7c e3		 jl	 SHORT $LL101@LoadFloat_@3

; 137  : 		return LoadFloat(_k, f);

  00229	f3 0f 10 45 0c	 movss	 xmm0, DWORD PTR _f$[ebp]
  0022e	51		 push	 ecx
  0022f	8d 45 e4	 lea	 eax, DWORD PTR __k$[ebp]
  00232	f3 0f 11 04 24	 movss	 DWORD PTR [esp], xmm0
  00237	50		 push	 eax
  00238	8b ce		 mov	 ecx, esi
  0023a	ff 15 00 00 00
	00		 call	 DWORD PTR __imp_?LoadFloat@ioINILoader@@QAEMPBDM@Z

; 138  : 	}

  00240	8b 4d fc	 mov	 ecx, DWORD PTR __$ArrayPad$[ebp]
  00243	33 cd		 xor	 ecx, ebp
  00245	5e		 pop	 esi
  00246	e8 00 00 00 00	 call	 @__security_check_cookie@4
  0024b	c9		 leave
  0024c	c2 08 00	 ret	 8
??$LoadFloat_e@$0BD@@ioINILoader@@QAEMAAY0BD@$$CBDM@Z ENDP ; ioINILoader::LoadFloat_e<19>
_TEXT	ENDS
PUBLIC	__$ArrayPad$
PUBLIC	??$LoadFloat_e@$0BI@@ioINILoader@@QAEMAAY0BI@$$CBDM@Z ; ioINILoader::LoadFloat_e<24>
; Function compile flags: /Ogsp
;	COMDAT ??$LoadFloat_e@$0BI@@ioINILoader@@QAEMAAY0BI@$$CBDM@Z
_TEXT	SEGMENT
__k$ = -32						; size = 24
__$ArrayPad$ = -4					; size = 4
_k$ = 8							; size = 4
_f$ = 12						; size = 4
??$LoadFloat_e@$0BI@@ioINILoader@@QAEMAAY0BI@$$CBDM@Z PROC ; ioINILoader::LoadFloat_e<24>, COMDAT
; _this$ = ecx

; 135  : 	{

  00000	55		 push	 ebp
  00001	8b ec		 mov	 ebp, esp
  00003	83 ec 20	 sub	 esp, 32			; 00000020H
  00006	a1 00 00 00 00	 mov	 eax, DWORD PTR ___security_cookie
  0000b	33 c5		 xor	 eax, ebp
  0000d	89 45 fc	 mov	 DWORD PTR __$ArrayPad$[ebp], eax
  00010	8b 45 08	 mov	 eax, DWORD PTR _k$[ebp]

; 136  : 		_ENCSTR(k, _k);

  00013	8a 10		 mov	 dl, BYTE PTR [eax]
  00015	53		 push	 ebx
  00016	56		 push	 esi
  00017	8b f1		 mov	 esi, ecx
  00019	84 d2		 test	 dl, dl
  0001b	0f 84 45 02 00
	00		 je	 $LN96@LoadFloat_@4
  00021	80 f2 ed	 xor	 dl, -19			; ffffffedH
  00024	88 55 e0	 mov	 BYTE PTR __k$[ebp], dl
  00027	8a 50 01	 mov	 dl, BYTE PTR [eax+1]
  0002a	84 d2		 test	 dl, dl
  0002c	0f 84 2e 02 00
	00		 je	 $LN95@LoadFloat_@4
  00032	b3 ec		 mov	 bl, -20			; ffffffecH
  00034	32 d3		 xor	 dl, bl
  00036	88 55 e1	 mov	 BYTE PTR __k$[ebp+1], dl
  00039	8a 50 02	 mov	 dl, BYTE PTR [eax+2]
  0003c	84 d2		 test	 dl, dl
  0003e	0f 84 16 02 00
	00		 je	 $LN94@LoadFloat_@4
  00044	b1 eb		 mov	 cl, -21			; ffffffebH
  00046	32 d1		 xor	 dl, cl
  00048	88 55 e2	 mov	 BYTE PTR __k$[ebp+2], dl
  0004b	8a 50 03	 mov	 dl, BYTE PTR [eax+3]
  0004e	84 d2		 test	 dl, dl
  00050	0f 84 fe 01 00
	00		 je	 $LN93@LoadFloat_@4
  00056	80 f2 ea	 xor	 dl, -22			; ffffffeaH
  00059	88 55 e3	 mov	 BYTE PTR __k$[ebp+3], dl
  0005c	8a 50 04	 mov	 dl, BYTE PTR [eax+4]
  0005f	84 d2		 test	 dl, dl
  00061	0f 84 e7 01 00
	00		 je	 $LN92@LoadFloat_@4
  00067	80 f2 ed	 xor	 dl, -19			; ffffffedH
  0006a	88 55 e4	 mov	 BYTE PTR __k$[ebp+4], dl
  0006d	8a 50 05	 mov	 dl, BYTE PTR [eax+5]
  00070	84 d2		 test	 dl, dl
  00072	0f 84 d1 01 00
	00		 je	 $LN91@LoadFloat_@4
  00078	32 d3		 xor	 dl, bl
  0007a	88 55 e5	 mov	 BYTE PTR __k$[ebp+5], dl
  0007d	8a 50 06	 mov	 dl, BYTE PTR [eax+6]
  00080	84 d2		 test	 dl, dl
  00082	0f 84 bc 01 00
	00		 je	 $LN90@LoadFloat_@4
  00088	32 d1		 xor	 dl, cl
  0008a	88 55 e6	 mov	 BYTE PTR __k$[ebp+6], dl
  0008d	8a 50 07	 mov	 dl, BYTE PTR [eax+7]
  00090	84 d2		 test	 dl, dl
  00092	0f 84 a6 01 00
	00		 je	 $LN89@LoadFloat_@4
  00098	80 f2 ea	 xor	 dl, -22			; ffffffeaH
  0009b	88 55 e7	 mov	 BYTE PTR __k$[ebp+7], dl
  0009e	8a 50 08	 mov	 dl, BYTE PTR [eax+8]
  000a1	84 d2		 test	 dl, dl
  000a3	0f 84 8f 01 00
	00		 je	 $LN88@LoadFloat_@4
  000a9	80 f2 ed	 xor	 dl, -19			; ffffffedH
  000ac	88 55 e8	 mov	 BYTE PTR __k$[ebp+8], dl
  000af	8a 50 09	 mov	 dl, BYTE PTR [eax+9]
  000b2	84 d2		 test	 dl, dl
  000b4	0f 84 79 01 00
	00		 je	 $LN87@LoadFloat_@4
  000ba	32 d3		 xor	 dl, bl
  000bc	88 55 e9	 mov	 BYTE PTR __k$[ebp+9], dl
  000bf	8a 50 0a	 mov	 dl, BYTE PTR [eax+10]
  000c2	84 d2		 test	 dl, dl
  000c4	0f 84 64 01 00
	00		 je	 $LN86@LoadFloat_@4
  000ca	32 d1		 xor	 dl, cl
  000cc	88 55 ea	 mov	 BYTE PTR __k$[ebp+10], dl
  000cf	8a 50 0b	 mov	 dl, BYTE PTR [eax+11]
  000d2	84 d2		 test	 dl, dl
  000d4	0f 84 4e 01 00
	00		 je	 $LN85@LoadFloat_@4
  000da	80 f2 ea	 xor	 dl, -22			; ffffffeaH
  000dd	88 55 eb	 mov	 BYTE PTR __k$[ebp+11], dl
  000e0	8a 50 0c	 mov	 dl, BYTE PTR [eax+12]
  000e3	84 d2		 test	 dl, dl
  000e5	0f 84 37 01 00
	00		 je	 $LN84@LoadFloat_@4
  000eb	80 f2 ed	 xor	 dl, -19			; ffffffedH
  000ee	88 55 ec	 mov	 BYTE PTR __k$[ebp+12], dl
  000f1	8a 50 0d	 mov	 dl, BYTE PTR [eax+13]
  000f4	84 d2		 test	 dl, dl
  000f6	0f 84 21 01 00
	00		 je	 $LN83@LoadFloat_@4
  000fc	32 d3		 xor	 dl, bl
  000fe	88 55 ed	 mov	 BYTE PTR __k$[ebp+13], dl
  00101	8a 50 0e	 mov	 dl, BYTE PTR [eax+14]
  00104	84 d2		 test	 dl, dl
  00106	0f 84 0c 01 00
	00		 je	 $LN82@LoadFloat_@4
  0010c	32 d1		 xor	 dl, cl
  0010e	88 55 ee	 mov	 BYTE PTR __k$[ebp+14], dl
  00111	8a 50 0f	 mov	 dl, BYTE PTR [eax+15]
  00114	84 d2		 test	 dl, dl
  00116	0f 84 f6 00 00
	00		 je	 $LN81@LoadFloat_@4
  0011c	80 f2 ea	 xor	 dl, -22			; ffffffeaH
  0011f	88 55 ef	 mov	 BYTE PTR __k$[ebp+15], dl
  00122	8a 50 10	 mov	 dl, BYTE PTR [eax+16]
  00125	84 d2		 test	 dl, dl
  00127	0f 84 df 00 00
	00		 je	 $LN80@LoadFloat_@4
  0012d	80 f2 ed	 xor	 dl, -19			; ffffffedH
  00130	88 55 f0	 mov	 BYTE PTR __k$[ebp+16], dl
  00133	8a 50 11	 mov	 dl, BYTE PTR [eax+17]
  00136	84 d2		 test	 dl, dl
  00138	0f 84 c9 00 00
	00		 je	 $LN79@LoadFloat_@4
  0013e	32 d3		 xor	 dl, bl
  00140	88 55 f1	 mov	 BYTE PTR __k$[ebp+17], dl
  00143	8a 50 12	 mov	 dl, BYTE PTR [eax+18]
  00146	84 d2		 test	 dl, dl
  00148	0f 84 b4 00 00
	00		 je	 $LN78@LoadFloat_@4
  0014e	32 d1		 xor	 dl, cl
  00150	88 55 f2	 mov	 BYTE PTR __k$[ebp+18], dl
  00153	8a 50 13	 mov	 dl, BYTE PTR [eax+19]
  00156	84 d2		 test	 dl, dl
  00158	0f 84 9e 00 00
	00		 je	 $LN77@LoadFloat_@4
  0015e	80 f2 ea	 xor	 dl, -22			; ffffffeaH
  00161	88 55 f3	 mov	 BYTE PTR __k$[ebp+19], dl
  00164	8a 50 14	 mov	 dl, BYTE PTR [eax+20]
  00167	84 d2		 test	 dl, dl
  00169	0f 84 87 00 00
	00		 je	 $LN76@LoadFloat_@4
  0016f	80 f2 ed	 xor	 dl, -19			; ffffffedH
  00172	88 55 f4	 mov	 BYTE PTR __k$[ebp+20], dl
  00175	8a 50 15	 mov	 dl, BYTE PTR [eax+21]
  00178	84 d2		 test	 dl, dl
  0017a	74 75		 je	 SHORT $LN75@LoadFloat_@4
  0017c	32 d3		 xor	 dl, bl
  0017e	88 55 f5	 mov	 BYTE PTR __k$[ebp+21], dl
  00181	8a 50 16	 mov	 dl, BYTE PTR [eax+22]
  00184	84 d2		 test	 dl, dl
  00186	74 64		 je	 SHORT $LN74@LoadFloat_@4
  00188	32 d1		 xor	 dl, cl
  0018a	80 78 17 00	 cmp	 BYTE PTR [eax+23], 0
  0018e	88 55 f6	 mov	 BYTE PTR __k$[ebp+22], dl
  00191	0f 84 d3 00 00
	00		 je	 $LN1@LoadFloat_@4
  00197	8a 50 18	 mov	 dl, BYTE PTR [eax+24]
  0019a	84 d2		 test	 dl, dl
  0019c	74 48		 je	 SHORT $LN72@LoadFloat_@4
  0019e	80 f2 ed	 xor	 dl, -19			; ffffffedH
  001a1	88 55 f8	 mov	 BYTE PTR __k$[ebp+24], dl
  001a4	8a 50 19	 mov	 dl, BYTE PTR [eax+25]
  001a7	84 d2		 test	 dl, dl
  001a9	74 33		 je	 SHORT $LN71@LoadFloat_@4
  001ab	32 d3		 xor	 dl, bl
  001ad	88 55 f9	 mov	 BYTE PTR __k$[ebp+25], dl
  001b0	8a 50 1a	 mov	 dl, BYTE PTR [eax+26]
  001b3	84 d2		 test	 dl, dl
  001b5	74 1f		 je	 SHORT $LN70@LoadFloat_@4
  001b7	8a 40 1b	 mov	 al, BYTE PTR [eax+27]
  001ba	32 d1		 xor	 dl, cl
  001bc	88 55 fa	 mov	 BYTE PTR __k$[ebp+26], dl
  001bf	84 c0		 test	 al, al
  001c1	74 0a		 je	 SHORT $LN69@LoadFloat_@4
  001c3	34 ea		 xor	 al, -22			; ffffffeaH
  001c5	88 45 fb	 mov	 BYTE PTR __k$[ebp+27], al
  001c8	e9 9d 00 00 00	 jmp	 $LN1@LoadFloat_@4
$LN69@LoadFloat_@4:
  001cd	c6 45 fb ea	 mov	 BYTE PTR __k$[ebp+27], -22 ; ffffffeaH
  001d1	e9 94 00 00 00	 jmp	 $LN1@LoadFloat_@4
$LN70@LoadFloat_@4:
  001d6	88 4d fa	 mov	 BYTE PTR __k$[ebp+26], cl
  001d9	e9 8c 00 00 00	 jmp	 $LN1@LoadFloat_@4
$LN71@LoadFloat_@4:
  001de	88 5d f9	 mov	 BYTE PTR __k$[ebp+25], bl
  001e1	e9 84 00 00 00	 jmp	 $LN1@LoadFloat_@4
$LN72@LoadFloat_@4:
  001e6	c6 45 f8 ed	 mov	 BYTE PTR __k$[ebp+24], -19 ; ffffffedH
  001ea	eb 7e		 jmp	 SHORT $LN1@LoadFloat_@4
$LN74@LoadFloat_@4:
  001ec	88 4d f6	 mov	 BYTE PTR __k$[ebp+22], cl
  001ef	eb 79		 jmp	 SHORT $LN1@LoadFloat_@4
$LN75@LoadFloat_@4:
  001f1	88 5d f5	 mov	 BYTE PTR __k$[ebp+21], bl
  001f4	eb 74		 jmp	 SHORT $LN1@LoadFloat_@4
$LN76@LoadFloat_@4:
  001f6	c6 45 f4 ed	 mov	 BYTE PTR __k$[ebp+20], -19 ; ffffffedH
  001fa	eb 6e		 jmp	 SHORT $LN1@LoadFloat_@4
$LN77@LoadFloat_@4:
  001fc	c6 45 f3 ea	 mov	 BYTE PTR __k$[ebp+19], -22 ; ffffffeaH
  00200	eb 68		 jmp	 SHORT $LN1@LoadFloat_@4
$LN78@LoadFloat_@4:
  00202	88 4d f2	 mov	 BYTE PTR __k$[ebp+18], cl
  00205	eb 63		 jmp	 SHORT $LN1@LoadFloat_@4
$LN79@LoadFloat_@4:
  00207	88 5d f1	 mov	 BYTE PTR __k$[ebp+17], bl
  0020a	eb 5e		 jmp	 SHORT $LN1@LoadFloat_@4
$LN80@LoadFloat_@4:
  0020c	c6 45 f0 ed	 mov	 BYTE PTR __k$[ebp+16], -19 ; ffffffedH
  00210	eb 58		 jmp	 SHORT $LN1@LoadFloat_@4
$LN81@LoadFloat_@4:
  00212	c6 45 ef ea	 mov	 BYTE PTR __k$[ebp+15], -22 ; ffffffeaH
  00216	eb 52		 jmp	 SHORT $LN1@LoadFloat_@4
$LN82@LoadFloat_@4:
  00218	88 4d ee	 mov	 BYTE PTR __k$[ebp+14], cl
  0021b	eb 4d		 jmp	 SHORT $LN1@LoadFloat_@4
$LN83@LoadFloat_@4:
  0021d	88 5d ed	 mov	 BYTE PTR __k$[ebp+13], bl
  00220	eb 48		 jmp	 SHORT $LN1@LoadFloat_@4
$LN84@LoadFloat_@4:
  00222	c6 45 ec ed	 mov	 BYTE PTR __k$[ebp+12], -19 ; ffffffedH
  00226	eb 42		 jmp	 SHORT $LN1@LoadFloat_@4
$LN85@LoadFloat_@4:
  00228	c6 45 eb ea	 mov	 BYTE PTR __k$[ebp+11], -22 ; ffffffeaH
  0022c	eb 3c		 jmp	 SHORT $LN1@LoadFloat_@4
$LN86@LoadFloat_@4:
  0022e	88 4d ea	 mov	 BYTE PTR __k$[ebp+10], cl
  00231	eb 37		 jmp	 SHORT $LN1@LoadFloat_@4
$LN87@LoadFloat_@4:
  00233	88 5d e9	 mov	 BYTE PTR __k$[ebp+9], bl
  00236	eb 32		 jmp	 SHORT $LN1@LoadFloat_@4
$LN88@LoadFloat_@4:
  00238	c6 45 e8 ed	 mov	 BYTE PTR __k$[ebp+8], -19 ; ffffffedH
  0023c	eb 2c		 jmp	 SHORT $LN1@LoadFloat_@4
$LN89@LoadFloat_@4:
  0023e	c6 45 e7 ea	 mov	 BYTE PTR __k$[ebp+7], -22 ; ffffffeaH
  00242	eb 26		 jmp	 SHORT $LN1@LoadFloat_@4
$LN90@LoadFloat_@4:
  00244	88 4d e6	 mov	 BYTE PTR __k$[ebp+6], cl
  00247	eb 21		 jmp	 SHORT $LN1@LoadFloat_@4
$LN91@LoadFloat_@4:
  00249	88 5d e5	 mov	 BYTE PTR __k$[ebp+5], bl
  0024c	eb 1c		 jmp	 SHORT $LN1@LoadFloat_@4
$LN92@LoadFloat_@4:
  0024e	c6 45 e4 ed	 mov	 BYTE PTR __k$[ebp+4], -19 ; ffffffedH
  00252	eb 16		 jmp	 SHORT $LN1@LoadFloat_@4
$LN93@LoadFloat_@4:
  00254	c6 45 e3 ea	 mov	 BYTE PTR __k$[ebp+3], -22 ; ffffffeaH
  00258	eb 10		 jmp	 SHORT $LN1@LoadFloat_@4
$LN94@LoadFloat_@4:
  0025a	c6 45 e2 eb	 mov	 BYTE PTR __k$[ebp+2], -21 ; ffffffebH
  0025e	eb 0a		 jmp	 SHORT $LN1@LoadFloat_@4
$LN95@LoadFloat_@4:
  00260	c6 45 e1 ec	 mov	 BYTE PTR __k$[ebp+1], -20 ; ffffffecH
  00264	eb 04		 jmp	 SHORT $LN1@LoadFloat_@4
$LN96@LoadFloat_@4:
  00266	c6 45 e0 ed	 mov	 BYTE PTR __k$[ebp], -19	; ffffffedH
$LN1@LoadFloat_@4:
  0026a	6a 05		 push	 5
  0026c	8d 45 e0	 lea	 eax, DWORD PTR __k$[ebp]
  0026f	c6 45 f7 00	 mov	 BYTE PTR __k$[ebp+23], 0
  00273	5a		 pop	 edx
$LL104@LoadFloat_@4:
  00274	81 30 ed ec eb
	ea		 xor	 DWORD PTR [eax], -353637139 ; eaebecedH
  0027a	83 c0 04	 add	 eax, 4
  0027d	4a		 dec	 edx
  0027e	75 f4		 jne	 SHORT $LL104@LoadFloat_@4
  00280	6a 14		 push	 20			; 00000014H
  00282	58		 pop	 eax
$LL101@LoadFloat_@4:
  00283	8b c8		 mov	 ecx, eax
  00285	81 e1 03 00 00
	80		 and	 ecx, -2147483645	; 80000003H
  0028b	79 05		 jns	 SHORT $LN111@LoadFloat_@4
  0028d	49		 dec	 ecx
  0028e	83 c9 fc	 or	 ecx, -4			; fffffffcH
  00291	41		 inc	 ecx
$LN111@LoadFloat_@4:
  00292	b2 ed		 mov	 dl, -19			; ffffffedH
  00294	2a d1		 sub	 dl, cl
  00296	30 54 05 e0	 xor	 BYTE PTR __k$[ebp+eax], dl
  0029a	40		 inc	 eax
  0029b	83 f8 17	 cmp	 eax, 23			; 00000017H
  0029e	7c e3		 jl	 SHORT $LL101@LoadFloat_@4

; 137  : 		return LoadFloat(_k, f);

  002a0	f3 0f 10 45 0c	 movss	 xmm0, DWORD PTR _f$[ebp]
  002a5	51		 push	 ecx
  002a6	8d 45 e0	 lea	 eax, DWORD PTR __k$[ebp]
  002a9	f3 0f 11 04 24	 movss	 DWORD PTR [esp], xmm0
  002ae	50		 push	 eax
  002af	8b ce		 mov	 ecx, esi
  002b1	ff 15 00 00 00
	00		 call	 DWORD PTR __imp_?LoadFloat@ioINILoader@@QAEMPBDM@Z

; 138  : 	}

  002b7	8b 4d fc	 mov	 ecx, DWORD PTR __$ArrayPad$[ebp]
  002ba	5e		 pop	 esi
  002bb	33 cd		 xor	 ecx, ebp
  002bd	5b		 pop	 ebx
  002be	e8 00 00 00 00	 call	 @__security_check_cookie@4
  002c3	c9		 leave
  002c4	c2 08 00	 ret	 8
??$LoadFloat_e@$0BI@@ioINILoader@@QAEMAAY0BI@$$CBDM@Z ENDP ; ioINILoader::LoadFloat_e<24>
_TEXT	ENDS
PUBLIC	__$ArrayPad$
PUBLIC	??$LoadFloat_e@$0BJ@@ioINILoader@@QAEMAAY0BJ@$$CBDM@Z ; ioINILoader::LoadFloat_e<25>
; Function compile flags: /Ogsp
;	COMDAT ??$LoadFloat_e@$0BJ@@ioINILoader@@QAEMAAY0BJ@$$CBDM@Z
_TEXT	SEGMENT
__k$ = -36						; size = 25
__$ArrayPad$ = -4					; size = 4
_k$ = 8							; size = 4
_f$ = 12						; size = 4
??$LoadFloat_e@$0BJ@@ioINILoader@@QAEMAAY0BJ@$$CBDM@Z PROC ; ioINILoader::LoadFloat_e<25>, COMDAT
; _this$ = ecx

; 135  : 	{

  00000	55		 push	 ebp
  00001	8b ec		 mov	 ebp, esp
  00003	83 ec 24	 sub	 esp, 36			; 00000024H
  00006	a1 00 00 00 00	 mov	 eax, DWORD PTR ___security_cookie
  0000b	33 c5		 xor	 eax, ebp
  0000d	89 45 fc	 mov	 DWORD PTR __$ArrayPad$[ebp], eax
  00010	8b 45 08	 mov	 eax, DWORD PTR _k$[ebp]

; 136  : 		_ENCSTR(k, _k);

  00013	8a 10		 mov	 dl, BYTE PTR [eax]
  00015	53		 push	 ebx
  00016	56		 push	 esi
  00017	8b f1		 mov	 esi, ecx
  00019	84 d2		 test	 dl, dl
  0001b	0f 84 5f 02 00
	00		 je	 $LN96@LoadFloat_@5
  00021	80 f2 ed	 xor	 dl, -19			; ffffffedH
  00024	88 55 dc	 mov	 BYTE PTR __k$[ebp], dl
  00027	8a 50 01	 mov	 dl, BYTE PTR [eax+1]
  0002a	84 d2		 test	 dl, dl
  0002c	0f 84 48 02 00
	00		 je	 $LN95@LoadFloat_@5
  00032	b1 ec		 mov	 cl, -20			; ffffffecH
  00034	32 d1		 xor	 dl, cl
  00036	88 55 dd	 mov	 BYTE PTR __k$[ebp+1], dl
  00039	8a 50 02	 mov	 dl, BYTE PTR [eax+2]
  0003c	84 d2		 test	 dl, dl
  0003e	0f 84 30 02 00
	00		 je	 $LN94@LoadFloat_@5
  00044	b3 eb		 mov	 bl, -21			; ffffffebH
  00046	32 d3		 xor	 dl, bl
  00048	88 55 de	 mov	 BYTE PTR __k$[ebp+2], dl
  0004b	8a 50 03	 mov	 dl, BYTE PTR [eax+3]
  0004e	84 d2		 test	 dl, dl
  00050	0f 84 18 02 00
	00		 je	 $LN93@LoadFloat_@5
  00056	80 f2 ea	 xor	 dl, -22			; ffffffeaH
  00059	88 55 df	 mov	 BYTE PTR __k$[ebp+3], dl
  0005c	8a 50 04	 mov	 dl, BYTE PTR [eax+4]
  0005f	84 d2		 test	 dl, dl
  00061	0f 84 01 02 00
	00		 je	 $LN92@LoadFloat_@5
  00067	80 f2 ed	 xor	 dl, -19			; ffffffedH
  0006a	88 55 e0	 mov	 BYTE PTR __k$[ebp+4], dl
  0006d	8a 50 05	 mov	 dl, BYTE PTR [eax+5]
  00070	84 d2		 test	 dl, dl
  00072	0f 84 eb 01 00
	00		 je	 $LN91@LoadFloat_@5
  00078	32 d1		 xor	 dl, cl
  0007a	88 55 e1	 mov	 BYTE PTR __k$[ebp+5], dl
  0007d	8a 50 06	 mov	 dl, BYTE PTR [eax+6]
  00080	84 d2		 test	 dl, dl
  00082	0f 84 d6 01 00
	00		 je	 $LN90@LoadFloat_@5
  00088	32 d3		 xor	 dl, bl
  0008a	88 55 e2	 mov	 BYTE PTR __k$[ebp+6], dl
  0008d	8a 50 07	 mov	 dl, BYTE PTR [eax+7]
  00090	84 d2		 test	 dl, dl
  00092	0f 84 c0 01 00
	00		 je	 $LN89@LoadFloat_@5
  00098	80 f2 ea	 xor	 dl, -22			; ffffffeaH
  0009b	88 55 e3	 mov	 BYTE PTR __k$[ebp+7], dl
  0009e	8a 50 08	 mov	 dl, BYTE PTR [eax+8]
  000a1	84 d2		 test	 dl, dl
  000a3	0f 84 a9 01 00
	00		 je	 $LN88@LoadFloat_@5
  000a9	80 f2 ed	 xor	 dl, -19			; ffffffedH
  000ac	88 55 e4	 mov	 BYTE PTR __k$[ebp+8], dl
  000af	8a 50 09	 mov	 dl, BYTE PTR [eax+9]
  000b2	84 d2		 test	 dl, dl
  000b4	0f 84 93 01 00
	00		 je	 $LN87@LoadFloat_@5
  000ba	32 d1		 xor	 dl, cl
  000bc	88 55 e5	 mov	 BYTE PTR __k$[ebp+9], dl
  000bf	8a 50 0a	 mov	 dl, BYTE PTR [eax+10]
  000c2	84 d2		 test	 dl, dl
  000c4	0f 84 7e 01 00
	00		 je	 $LN86@LoadFloat_@5
  000ca	32 d3		 xor	 dl, bl
  000cc	88 55 e6	 mov	 BYTE PTR __k$[ebp+10], dl
  000cf	8a 50 0b	 mov	 dl, BYTE PTR [eax+11]
  000d2	84 d2		 test	 dl, dl
  000d4	0f 84 68 01 00
	00		 je	 $LN85@LoadFloat_@5
  000da	80 f2 ea	 xor	 dl, -22			; ffffffeaH
  000dd	88 55 e7	 mov	 BYTE PTR __k$[ebp+11], dl
  000e0	8a 50 0c	 mov	 dl, BYTE PTR [eax+12]
  000e3	84 d2		 test	 dl, dl
  000e5	0f 84 51 01 00
	00		 je	 $LN84@LoadFloat_@5
  000eb	80 f2 ed	 xor	 dl, -19			; ffffffedH
  000ee	88 55 e8	 mov	 BYTE PTR __k$[ebp+12], dl
  000f1	8a 50 0d	 mov	 dl, BYTE PTR [eax+13]
  000f4	84 d2		 test	 dl, dl
  000f6	0f 84 3b 01 00
	00		 je	 $LN83@LoadFloat_@5
  000fc	32 d1		 xor	 dl, cl
  000fe	88 55 e9	 mov	 BYTE PTR __k$[ebp+13], dl
  00101	8a 50 0e	 mov	 dl, BYTE PTR [eax+14]
  00104	84 d2		 test	 dl, dl
  00106	0f 84 26 01 00
	00		 je	 $LN82@LoadFloat_@5
  0010c	32 d3		 xor	 dl, bl
  0010e	88 55 ea	 mov	 BYTE PTR __k$[ebp+14], dl
  00111	8a 50 0f	 mov	 dl, BYTE PTR [eax+15]
  00114	84 d2		 test	 dl, dl
  00116	0f 84 10 01 00
	00		 je	 $LN81@LoadFloat_@5
  0011c	80 f2 ea	 xor	 dl, -22			; ffffffeaH
  0011f	88 55 eb	 mov	 BYTE PTR __k$[ebp+15], dl
  00122	8a 50 10	 mov	 dl, BYTE PTR [eax+16]
  00125	84 d2		 test	 dl, dl
  00127	0f 84 f9 00 00
	00		 je	 $LN80@LoadFloat_@5
  0012d	80 f2 ed	 xor	 dl, -19			; ffffffedH
  00130	88 55 ec	 mov	 BYTE PTR __k$[ebp+16], dl
  00133	8a 50 11	 mov	 dl, BYTE PTR [eax+17]
  00136	84 d2		 test	 dl, dl
  00138	0f 84 e3 00 00
	00		 je	 $LN79@LoadFloat_@5
  0013e	32 d1		 xor	 dl, cl
  00140	88 55 ed	 mov	 BYTE PTR __k$[ebp+17], dl
  00143	8a 50 12	 mov	 dl, BYTE PTR [eax+18]
  00146	84 d2		 test	 dl, dl
  00148	0f 84 ce 00 00
	00		 je	 $LN78@LoadFloat_@5
  0014e	32 d3		 xor	 dl, bl
  00150	88 55 ee	 mov	 BYTE PTR __k$[ebp+18], dl
  00153	8a 50 13	 mov	 dl, BYTE PTR [eax+19]
  00156	84 d2		 test	 dl, dl
  00158	0f 84 b8 00 00
	00		 je	 $LN77@LoadFloat_@5
  0015e	80 f2 ea	 xor	 dl, -22			; ffffffeaH
  00161	88 55 ef	 mov	 BYTE PTR __k$[ebp+19], dl
  00164	8a 50 14	 mov	 dl, BYTE PTR [eax+20]
  00167	84 d2		 test	 dl, dl
  00169	0f 84 a1 00 00
	00		 je	 $LN76@LoadFloat_@5
  0016f	80 f2 ed	 xor	 dl, -19			; ffffffedH
  00172	88 55 f0	 mov	 BYTE PTR __k$[ebp+20], dl
  00175	8a 50 15	 mov	 dl, BYTE PTR [eax+21]
  00178	84 d2		 test	 dl, dl
  0017a	0f 84 8b 00 00
	00		 je	 $LN75@LoadFloat_@5
  00180	32 d1		 xor	 dl, cl
  00182	88 55 f1	 mov	 BYTE PTR __k$[ebp+21], dl
  00185	8a 50 16	 mov	 dl, BYTE PTR [eax+22]
  00188	84 d2		 test	 dl, dl
  0018a	74 7a		 je	 SHORT $LN74@LoadFloat_@5
  0018c	32 d3		 xor	 dl, bl
  0018e	88 55 f2	 mov	 BYTE PTR __k$[ebp+22], dl
  00191	8a 50 17	 mov	 dl, BYTE PTR [eax+23]
  00194	84 d2		 test	 dl, dl
  00196	74 68		 je	 SHORT $LN73@LoadFloat_@5
  00198	80 f2 ea	 xor	 dl, -22			; ffffffeaH
  0019b	80 78 18 00	 cmp	 BYTE PTR [eax+24], 0
  0019f	88 55 f3	 mov	 BYTE PTR __k$[ebp+23], dl
  001a2	0f 84 dc 00 00
	00		 je	 $LN1@LoadFloat_@5
  001a8	8a 50 19	 mov	 dl, BYTE PTR [eax+25]
  001ab	84 d2		 test	 dl, dl
  001ad	74 49		 je	 SHORT $LN71@LoadFloat_@5
  001af	32 d1		 xor	 dl, cl
  001b1	88 55 f5	 mov	 BYTE PTR __k$[ebp+25], dl
  001b4	8a 50 1a	 mov	 dl, BYTE PTR [eax+26]
  001b7	84 d2		 test	 dl, dl
  001b9	74 35		 je	 SHORT $LN70@LoadFloat_@5
  001bb	32 d3		 xor	 dl, bl
  001bd	88 55 f6	 mov	 BYTE PTR __k$[ebp+26], dl
  001c0	8a 50 1b	 mov	 dl, BYTE PTR [eax+27]
  001c3	84 d2		 test	 dl, dl
  001c5	74 20		 je	 SHORT $LN69@LoadFloat_@5
  001c7	8a 40 1c	 mov	 al, BYTE PTR [eax+28]
  001ca	80 f2 ea	 xor	 dl, -22			; ffffffeaH
  001cd	88 55 f7	 mov	 BYTE PTR __k$[ebp+27], dl
  001d0	84 c0		 test	 al, al
  001d2	74 0a		 je	 SHORT $LN68@LoadFloat_@5
  001d4	34 ed		 xor	 al, -19			; ffffffedH
  001d6	88 45 f8	 mov	 BYTE PTR __k$[ebp+28], al
  001d9	e9 a6 00 00 00	 jmp	 $LN1@LoadFloat_@5
$LN68@LoadFloat_@5:
  001de	c6 45 f8 ed	 mov	 BYTE PTR __k$[ebp+28], -19 ; ffffffedH
  001e2	e9 9d 00 00 00	 jmp	 $LN1@LoadFloat_@5
$LN69@LoadFloat_@5:
  001e7	c6 45 f7 ea	 mov	 BYTE PTR __k$[ebp+27], -22 ; ffffffeaH
  001eb	e9 94 00 00 00	 jmp	 $LN1@LoadFloat_@5
$LN70@LoadFloat_@5:
  001f0	88 5d f6	 mov	 BYTE PTR __k$[ebp+26], bl
  001f3	e9 8c 00 00 00	 jmp	 $LN1@LoadFloat_@5
$LN71@LoadFloat_@5:
  001f8	88 4d f5	 mov	 BYTE PTR __k$[ebp+25], cl
  001fb	e9 84 00 00 00	 jmp	 $LN1@LoadFloat_@5
$LN73@LoadFloat_@5:
  00200	c6 45 f3 ea	 mov	 BYTE PTR __k$[ebp+23], -22 ; ffffffeaH
  00204	eb 7e		 jmp	 SHORT $LN1@LoadFloat_@5
$LN74@LoadFloat_@5:
  00206	88 5d f2	 mov	 BYTE PTR __k$[ebp+22], bl
  00209	eb 79		 jmp	 SHORT $LN1@LoadFloat_@5
$LN75@LoadFloat_@5:
  0020b	88 4d f1	 mov	 BYTE PTR __k$[ebp+21], cl
  0020e	eb 74		 jmp	 SHORT $LN1@LoadFloat_@5
$LN76@LoadFloat_@5:
  00210	c6 45 f0 ed	 mov	 BYTE PTR __k$[ebp+20], -19 ; ffffffedH
  00214	eb 6e		 jmp	 SHORT $LN1@LoadFloat_@5
$LN77@LoadFloat_@5:
  00216	c6 45 ef ea	 mov	 BYTE PTR __k$[ebp+19], -22 ; ffffffeaH
  0021a	eb 68		 jmp	 SHORT $LN1@LoadFloat_@5
$LN78@LoadFloat_@5:
  0021c	88 5d ee	 mov	 BYTE PTR __k$[ebp+18], bl
  0021f	eb 63		 jmp	 SHORT $LN1@LoadFloat_@5
$LN79@LoadFloat_@5:
  00221	88 4d ed	 mov	 BYTE PTR __k$[ebp+17], cl
  00224	eb 5e		 jmp	 SHORT $LN1@LoadFloat_@5
$LN80@LoadFloat_@5:
  00226	c6 45 ec ed	 mov	 BYTE PTR __k$[ebp+16], -19 ; ffffffedH
  0022a	eb 58		 jmp	 SHORT $LN1@LoadFloat_@5
$LN81@LoadFloat_@5:
  0022c	c6 45 eb ea	 mov	 BYTE PTR __k$[ebp+15], -22 ; ffffffeaH
  00230	eb 52		 jmp	 SHORT $LN1@LoadFloat_@5
$LN82@LoadFloat_@5:
  00232	88 5d ea	 mov	 BYTE PTR __k$[ebp+14], bl
  00235	eb 4d		 jmp	 SHORT $LN1@LoadFloat_@5
$LN83@LoadFloat_@5:
  00237	88 4d e9	 mov	 BYTE PTR __k$[ebp+13], cl
  0023a	eb 48		 jmp	 SHORT $LN1@LoadFloat_@5
$LN84@LoadFloat_@5:
  0023c	c6 45 e8 ed	 mov	 BYTE PTR __k$[ebp+12], -19 ; ffffffedH
  00240	eb 42		 jmp	 SHORT $LN1@LoadFloat_@5
$LN85@LoadFloat_@5:
  00242	c6 45 e7 ea	 mov	 BYTE PTR __k$[ebp+11], -22 ; ffffffeaH
  00246	eb 3c		 jmp	 SHORT $LN1@LoadFloat_@5
$LN86@LoadFloat_@5:
  00248	88 5d e6	 mov	 BYTE PTR __k$[ebp+10], bl
  0024b	eb 37		 jmp	 SHORT $LN1@LoadFloat_@5
$LN87@LoadFloat_@5:
  0024d	88 4d e5	 mov	 BYTE PTR __k$[ebp+9], cl
  00250	eb 32		 jmp	 SHORT $LN1@LoadFloat_@5
$LN88@LoadFloat_@5:
  00252	c6 45 e4 ed	 mov	 BYTE PTR __k$[ebp+8], -19 ; ffffffedH
  00256	eb 2c		 jmp	 SHORT $LN1@LoadFloat_@5
$LN89@LoadFloat_@5:
  00258	c6 45 e3 ea	 mov	 BYTE PTR __k$[ebp+7], -22 ; ffffffeaH
  0025c	eb 26		 jmp	 SHORT $LN1@LoadFloat_@5
$LN90@LoadFloat_@5:
  0025e	88 5d e2	 mov	 BYTE PTR __k$[ebp+6], bl
  00261	eb 21		 jmp	 SHORT $LN1@LoadFloat_@5
$LN91@LoadFloat_@5:
  00263	88 4d e1	 mov	 BYTE PTR __k$[ebp+5], cl
  00266	eb 1c		 jmp	 SHORT $LN1@LoadFloat_@5
$LN92@LoadFloat_@5:
  00268	c6 45 e0 ed	 mov	 BYTE PTR __k$[ebp+4], -19 ; ffffffedH
  0026c	eb 16		 jmp	 SHORT $LN1@LoadFloat_@5
$LN93@LoadFloat_@5:
  0026e	c6 45 df ea	 mov	 BYTE PTR __k$[ebp+3], -22 ; ffffffeaH
  00272	eb 10		 jmp	 SHORT $LN1@LoadFloat_@5
$LN94@LoadFloat_@5:
  00274	c6 45 de eb	 mov	 BYTE PTR __k$[ebp+2], -21 ; ffffffebH
  00278	eb 0a		 jmp	 SHORT $LN1@LoadFloat_@5
$LN95@LoadFloat_@5:
  0027a	c6 45 dd ec	 mov	 BYTE PTR __k$[ebp+1], -20 ; ffffffecH
  0027e	eb 04		 jmp	 SHORT $LN1@LoadFloat_@5
$LN96@LoadFloat_@5:
  00280	c6 45 dc ed	 mov	 BYTE PTR __k$[ebp], -19	; ffffffedH
$LN1@LoadFloat_@5:
  00284	6a 06		 push	 6
  00286	8d 45 dc	 lea	 eax, DWORD PTR __k$[ebp]
  00289	c6 45 f4 00	 mov	 BYTE PTR __k$[ebp+24], 0
  0028d	5a		 pop	 edx
$LL104@LoadFloat_@5:
  0028e	81 30 ed ec eb
	ea		 xor	 DWORD PTR [eax], -353637139 ; eaebecedH
  00294	83 c0 04	 add	 eax, 4
  00297	4a		 dec	 edx
  00298	75 f4		 jne	 SHORT $LL104@LoadFloat_@5

; 137  : 		return LoadFloat(_k, f);

  0029a	f3 0f 10 45 0c	 movss	 xmm0, DWORD PTR _f$[ebp]
  0029f	51		 push	 ecx
  002a0	8d 45 dc	 lea	 eax, DWORD PTR __k$[ebp]
  002a3	f3 0f 11 04 24	 movss	 DWORD PTR [esp], xmm0
  002a8	50		 push	 eax
  002a9	8b ce		 mov	 ecx, esi
  002ab	ff 15 00 00 00
	00		 call	 DWORD PTR __imp_?LoadFloat@ioINILoader@@QAEMPBDM@Z

; 138  : 	}

  002b1	8b 4d fc	 mov	 ecx, DWORD PTR __$ArrayPad$[ebp]
  002b4	5e		 pop	 esi
  002b5	33 cd		 xor	 ecx, ebp
  002b7	5b		 pop	 ebx
  002b8	e8 00 00 00 00	 call	 @__security_check_cookie@4
  002bd	c9		 leave
  002be	c2 08 00	 ret	 8
??$LoadFloat_e@$0BJ@@ioINILoader@@QAEMAAY0BJ@$$CBDM@Z ENDP ; ioINILoader::LoadFloat_e<25>
_TEXT	ENDS
PUBLIC	__$ArrayPad$
PUBLIC	??$LoadFloat_e@$0BK@@ioINILoader@@QAEMAAY0BK@$$CBDM@Z ; ioINILoader::LoadFloat_e<26>
; Function compile flags: /Ogsp
;	COMDAT ??$LoadFloat_e@$0BK@@ioINILoader@@QAEMAAY0BK@$$CBDM@Z
_TEXT	SEGMENT
__k$ = -36						; size = 26
__$ArrayPad$ = -4					; size = 4
_k$ = 8							; size = 4
_f$ = 12						; size = 4
??$LoadFloat_e@$0BK@@ioINILoader@@QAEMAAY0BK@$$CBDM@Z PROC ; ioINILoader::LoadFloat_e<26>, COMDAT
; _this$ = ecx

; 135  : 	{

  00000	55		 push	 ebp
  00001	8b ec		 mov	 ebp, esp
  00003	83 ec 24	 sub	 esp, 36			; 00000024H
  00006	a1 00 00 00 00	 mov	 eax, DWORD PTR ___security_cookie
  0000b	33 c5		 xor	 eax, ebp
  0000d	89 45 fc	 mov	 DWORD PTR __$ArrayPad$[ebp], eax
  00010	8b 45 08	 mov	 eax, DWORD PTR _k$[ebp]

; 136  : 		_ENCSTR(k, _k);

  00013	8a 10		 mov	 dl, BYTE PTR [eax]
  00015	53		 push	 ebx
  00016	56		 push	 esi
  00017	8b f1		 mov	 esi, ecx
  00019	84 d2		 test	 dl, dl
  0001b	0f 84 79 02 00
	00		 je	 $LN96@LoadFloat_@6
  00021	80 f2 ed	 xor	 dl, -19			; ffffffedH
  00024	88 55 dc	 mov	 BYTE PTR __k$[ebp], dl
  00027	8a 50 01	 mov	 dl, BYTE PTR [eax+1]
  0002a	84 d2		 test	 dl, dl
  0002c	0f 84 62 02 00
	00		 je	 $LN95@LoadFloat_@6
  00032	80 f2 ec	 xor	 dl, -20			; ffffffecH
  00035	88 55 dd	 mov	 BYTE PTR __k$[ebp+1], dl
  00038	8a 50 02	 mov	 dl, BYTE PTR [eax+2]
  0003b	84 d2		 test	 dl, dl
  0003d	0f 84 4b 02 00
	00		 je	 $LN94@LoadFloat_@6
  00043	b1 eb		 mov	 cl, -21			; ffffffebH
  00045	32 d1		 xor	 dl, cl
  00047	88 55 de	 mov	 BYTE PTR __k$[ebp+2], dl
  0004a	8a 50 03	 mov	 dl, BYTE PTR [eax+3]
  0004d	84 d2		 test	 dl, dl
  0004f	0f 84 33 02 00
	00		 je	 $LN93@LoadFloat_@6
  00055	b3 ea		 mov	 bl, -22			; ffffffeaH
  00057	32 d3		 xor	 dl, bl
  00059	88 55 df	 mov	 BYTE PTR __k$[ebp+3], dl
  0005c	8a 50 04	 mov	 dl, BYTE PTR [eax+4]
  0005f	84 d2		 test	 dl, dl
  00061	0f 84 1b 02 00
	00		 je	 $LN92@LoadFloat_@6
  00067	80 f2 ed	 xor	 dl, -19			; ffffffedH
  0006a	88 55 e0	 mov	 BYTE PTR __k$[ebp+4], dl
  0006d	8a 50 05	 mov	 dl, BYTE PTR [eax+5]
  00070	84 d2		 test	 dl, dl
  00072	0f 84 04 02 00
	00		 je	 $LN91@LoadFloat_@6
  00078	80 f2 ec	 xor	 dl, -20			; ffffffecH
  0007b	88 55 e1	 mov	 BYTE PTR __k$[ebp+5], dl
  0007e	8a 50 06	 mov	 dl, BYTE PTR [eax+6]
  00081	84 d2		 test	 dl, dl
  00083	0f 84 ee 01 00
	00		 je	 $LN90@LoadFloat_@6
  00089	32 d1		 xor	 dl, cl
  0008b	88 55 e2	 mov	 BYTE PTR __k$[ebp+6], dl
  0008e	8a 50 07	 mov	 dl, BYTE PTR [eax+7]
  00091	84 d2		 test	 dl, dl
  00093	0f 84 d9 01 00
	00		 je	 $LN89@LoadFloat_@6
  00099	32 d3		 xor	 dl, bl
  0009b	88 55 e3	 mov	 BYTE PTR __k$[ebp+7], dl
  0009e	8a 50 08	 mov	 dl, BYTE PTR [eax+8]
  000a1	84 d2		 test	 dl, dl
  000a3	0f 84 c3 01 00
	00		 je	 $LN88@LoadFloat_@6
  000a9	80 f2 ed	 xor	 dl, -19			; ffffffedH
  000ac	88 55 e4	 mov	 BYTE PTR __k$[ebp+8], dl
  000af	8a 50 09	 mov	 dl, BYTE PTR [eax+9]
  000b2	84 d2		 test	 dl, dl
  000b4	0f 84 ac 01 00
	00		 je	 $LN87@LoadFloat_@6
  000ba	80 f2 ec	 xor	 dl, -20			; ffffffecH
  000bd	88 55 e5	 mov	 BYTE PTR __k$[ebp+9], dl
  000c0	8a 50 0a	 mov	 dl, BYTE PTR [eax+10]
  000c3	84 d2		 test	 dl, dl
  000c5	0f 84 96 01 00
	00		 je	 $LN86@LoadFloat_@6
  000cb	32 d1		 xor	 dl, cl
  000cd	88 55 e6	 mov	 BYTE PTR __k$[ebp+10], dl
  000d0	8a 50 0b	 mov	 dl, BYTE PTR [eax+11]
  000d3	84 d2		 test	 dl, dl
  000d5	0f 84 81 01 00
	00		 je	 $LN85@LoadFloat_@6
  000db	32 d3		 xor	 dl, bl
  000dd	88 55 e7	 mov	 BYTE PTR __k$[ebp+11], dl
  000e0	8a 50 0c	 mov	 dl, BYTE PTR [eax+12]
  000e3	84 d2		 test	 dl, dl
  000e5	0f 84 6b 01 00
	00		 je	 $LN84@LoadFloat_@6
  000eb	80 f2 ed	 xor	 dl, -19			; ffffffedH
  000ee	88 55 e8	 mov	 BYTE PTR __k$[ebp+12], dl
  000f1	8a 50 0d	 mov	 dl, BYTE PTR [eax+13]
  000f4	84 d2		 test	 dl, dl
  000f6	0f 84 54 01 00
	00		 je	 $LN83@LoadFloat_@6
  000fc	80 f2 ec	 xor	 dl, -20			; ffffffecH
  000ff	88 55 e9	 mov	 BYTE PTR __k$[ebp+13], dl
  00102	8a 50 0e	 mov	 dl, BYTE PTR [eax+14]
  00105	84 d2		 test	 dl, dl
  00107	0f 84 3e 01 00
	00		 je	 $LN82@LoadFloat_@6
  0010d	32 d1		 xor	 dl, cl
  0010f	88 55 ea	 mov	 BYTE PTR __k$[ebp+14], dl
  00112	8a 50 0f	 mov	 dl, BYTE PTR [eax+15]
  00115	84 d2		 test	 dl, dl
  00117	0f 84 29 01 00
	00		 je	 $LN81@LoadFloat_@6
  0011d	32 d3		 xor	 dl, bl
  0011f	88 55 eb	 mov	 BYTE PTR __k$[ebp+15], dl
  00122	8a 50 10	 mov	 dl, BYTE PTR [eax+16]
  00125	84 d2		 test	 dl, dl
  00127	0f 84 13 01 00
	00		 je	 $LN80@LoadFloat_@6
  0012d	80 f2 ed	 xor	 dl, -19			; ffffffedH
  00130	88 55 ec	 mov	 BYTE PTR __k$[ebp+16], dl
  00133	8a 50 11	 mov	 dl, BYTE PTR [eax+17]
  00136	84 d2		 test	 dl, dl
  00138	0f 84 fc 00 00
	00		 je	 $LN79@LoadFloat_@6
  0013e	80 f2 ec	 xor	 dl, -20			; ffffffecH
  00141	88 55 ed	 mov	 BYTE PTR __k$[ebp+17], dl
  00144	8a 50 12	 mov	 dl, BYTE PTR [eax+18]
  00147	84 d2		 test	 dl, dl
  00149	0f 84 e6 00 00
	00		 je	 $LN78@LoadFloat_@6
  0014f	32 d1		 xor	 dl, cl
  00151	88 55 ee	 mov	 BYTE PTR __k$[ebp+18], dl
  00154	8a 50 13	 mov	 dl, BYTE PTR [eax+19]
  00157	84 d2		 test	 dl, dl
  00159	0f 84 d1 00 00
	00		 je	 $LN77@LoadFloat_@6
  0015f	32 d3		 xor	 dl, bl
  00161	88 55 ef	 mov	 BYTE PTR __k$[ebp+19], dl
  00164	8a 50 14	 mov	 dl, BYTE PTR [eax+20]
  00167	84 d2		 test	 dl, dl
  00169	0f 84 bb 00 00
	00		 je	 $LN76@LoadFloat_@6
  0016f	80 f2 ed	 xor	 dl, -19			; ffffffedH
  00172	88 55 f0	 mov	 BYTE PTR __k$[ebp+20], dl
  00175	8a 50 15	 mov	 dl, BYTE PTR [eax+21]
  00178	84 d2		 test	 dl, dl
  0017a	0f 84 a4 00 00
	00		 je	 $LN75@LoadFloat_@6
  00180	80 f2 ec	 xor	 dl, -20			; ffffffecH
  00183	88 55 f1	 mov	 BYTE PTR __k$[ebp+21], dl
  00186	8a 50 16	 mov	 dl, BYTE PTR [eax+22]
  00189	84 d2		 test	 dl, dl
  0018b	0f 84 8e 00 00
	00		 je	 $LN74@LoadFloat_@6
  00191	32 d1		 xor	 dl, cl
  00193	88 55 f2	 mov	 BYTE PTR __k$[ebp+22], dl
  00196	8a 50 17	 mov	 dl, BYTE PTR [eax+23]
  00199	84 d2		 test	 dl, dl
  0019b	74 7d		 je	 SHORT $LN73@LoadFloat_@6
  0019d	32 d3		 xor	 dl, bl
  0019f	88 55 f3	 mov	 BYTE PTR __k$[ebp+23], dl
  001a2	8a 50 18	 mov	 dl, BYTE PTR [eax+24]
  001a5	84 d2		 test	 dl, dl
  001a7	74 68		 je	 SHORT $LN72@LoadFloat_@6
  001a9	80 f2 ed	 xor	 dl, -19			; ffffffedH
  001ac	80 78 19 00	 cmp	 BYTE PTR [eax+25], 0
  001b0	88 55 f4	 mov	 BYTE PTR __k$[ebp+24], dl
  001b3	0f 84 e5 00 00
	00		 je	 $LN1@LoadFloat_@6
  001b9	8a 50 1a	 mov	 dl, BYTE PTR [eax+26]
  001bc	84 d2		 test	 dl, dl
  001be	74 49		 je	 SHORT $LN70@LoadFloat_@6
  001c0	32 d1		 xor	 dl, cl
  001c2	88 55 f6	 mov	 BYTE PTR __k$[ebp+26], dl
  001c5	8a 50 1b	 mov	 dl, BYTE PTR [eax+27]
  001c8	84 d2		 test	 dl, dl
  001ca	74 35		 je	 SHORT $LN69@LoadFloat_@6
  001cc	32 d3		 xor	 dl, bl
  001ce	88 55 f7	 mov	 BYTE PTR __k$[ebp+27], dl
  001d1	8a 50 1c	 mov	 dl, BYTE PTR [eax+28]
  001d4	84 d2		 test	 dl, dl
  001d6	74 20		 je	 SHORT $LN68@LoadFloat_@6
  001d8	8a 40 1d	 mov	 al, BYTE PTR [eax+29]
  001db	80 f2 ed	 xor	 dl, -19			; ffffffedH
  001de	88 55 f8	 mov	 BYTE PTR __k$[ebp+28], dl
  001e1	84 c0		 test	 al, al
  001e3	74 0a		 je	 SHORT $LN67@LoadFloat_@6
  001e5	34 ec		 xor	 al, -20			; ffffffecH
  001e7	88 45 f9	 mov	 BYTE PTR __k$[ebp+29], al
  001ea	e9 af 00 00 00	 jmp	 $LN1@LoadFloat_@6
$LN67@LoadFloat_@6:
  001ef	c6 45 f9 ec	 mov	 BYTE PTR __k$[ebp+29], -20 ; ffffffecH
  001f3	e9 a6 00 00 00	 jmp	 $LN1@LoadFloat_@6
$LN68@LoadFloat_@6:
  001f8	c6 45 f8 ed	 mov	 BYTE PTR __k$[ebp+28], -19 ; ffffffedH
  001fc	e9 9d 00 00 00	 jmp	 $LN1@LoadFloat_@6
$LN69@LoadFloat_@6:
  00201	88 5d f7	 mov	 BYTE PTR __k$[ebp+27], bl
  00204	e9 95 00 00 00	 jmp	 $LN1@LoadFloat_@6
$LN70@LoadFloat_@6:
  00209	88 4d f6	 mov	 BYTE PTR __k$[ebp+26], cl
  0020c	e9 8d 00 00 00	 jmp	 $LN1@LoadFloat_@6
$LN72@LoadFloat_@6:
  00211	c6 45 f4 ed	 mov	 BYTE PTR __k$[ebp+24], -19 ; ffffffedH
  00215	e9 84 00 00 00	 jmp	 $LN1@LoadFloat_@6
$LN73@LoadFloat_@6:
  0021a	88 5d f3	 mov	 BYTE PTR __k$[ebp+23], bl
  0021d	eb 7f		 jmp	 SHORT $LN1@LoadFloat_@6
$LN74@LoadFloat_@6:
  0021f	88 4d f2	 mov	 BYTE PTR __k$[ebp+22], cl
  00222	eb 7a		 jmp	 SHORT $LN1@LoadFloat_@6
$LN75@LoadFloat_@6:
  00224	c6 45 f1 ec	 mov	 BYTE PTR __k$[ebp+21], -20 ; ffffffecH
  00228	eb 74		 jmp	 SHORT $LN1@LoadFloat_@6
$LN76@LoadFloat_@6:
  0022a	c6 45 f0 ed	 mov	 BYTE PTR __k$[ebp+20], -19 ; ffffffedH
  0022e	eb 6e		 jmp	 SHORT $LN1@LoadFloat_@6
$LN77@LoadFloat_@6:
  00230	88 5d ef	 mov	 BYTE PTR __k$[ebp+19], bl
  00233	eb 69		 jmp	 SHORT $LN1@LoadFloat_@6
$LN78@LoadFloat_@6:
  00235	88 4d ee	 mov	 BYTE PTR __k$[ebp+18], cl
  00238	eb 64		 jmp	 SHORT $LN1@LoadFloat_@6
$LN79@LoadFloat_@6:
  0023a	c6 45 ed ec	 mov	 BYTE PTR __k$[ebp+17], -20 ; ffffffecH
  0023e	eb 5e		 jmp	 SHORT $LN1@LoadFloat_@6
$LN80@LoadFloat_@6:
  00240	c6 45 ec ed	 mov	 BYTE PTR __k$[ebp+16], -19 ; ffffffedH
  00244	eb 58		 jmp	 SHORT $LN1@LoadFloat_@6
$LN81@LoadFloat_@6:
  00246	88 5d eb	 mov	 BYTE PTR __k$[ebp+15], bl
  00249	eb 53		 jmp	 SHORT $LN1@LoadFloat_@6
$LN82@LoadFloat_@6:
  0024b	88 4d ea	 mov	 BYTE PTR __k$[ebp+14], cl
  0024e	eb 4e		 jmp	 SHORT $LN1@LoadFloat_@6
$LN83@LoadFloat_@6:
  00250	c6 45 e9 ec	 mov	 BYTE PTR __k$[ebp+13], -20 ; ffffffecH
  00254	eb 48		 jmp	 SHORT $LN1@LoadFloat_@6
$LN84@LoadFloat_@6:
  00256	c6 45 e8 ed	 mov	 BYTE PTR __k$[ebp+12], -19 ; ffffffedH
  0025a	eb 42		 jmp	 SHORT $LN1@LoadFloat_@6
$LN85@LoadFloat_@6:
  0025c	88 5d e7	 mov	 BYTE PTR __k$[ebp+11], bl
  0025f	eb 3d		 jmp	 SHORT $LN1@LoadFloat_@6
$LN86@LoadFloat_@6:
  00261	88 4d e6	 mov	 BYTE PTR __k$[ebp+10], cl
  00264	eb 38		 jmp	 SHORT $LN1@LoadFloat_@6
$LN87@LoadFloat_@6:
  00266	c6 45 e5 ec	 mov	 BYTE PTR __k$[ebp+9], -20 ; ffffffecH
  0026a	eb 32		 jmp	 SHORT $LN1@LoadFloat_@6
$LN88@LoadFloat_@6:
  0026c	c6 45 e4 ed	 mov	 BYTE PTR __k$[ebp+8], -19 ; ffffffedH
  00270	eb 2c		 jmp	 SHORT $LN1@LoadFloat_@6
$LN89@LoadFloat_@6:
  00272	88 5d e3	 mov	 BYTE PTR __k$[ebp+7], bl
  00275	eb 27		 jmp	 SHORT $LN1@LoadFloat_@6
$LN90@LoadFloat_@6:
  00277	88 4d e2	 mov	 BYTE PTR __k$[ebp+6], cl
  0027a	eb 22		 jmp	 SHORT $LN1@LoadFloat_@6
$LN91@LoadFloat_@6:
  0027c	c6 45 e1 ec	 mov	 BYTE PTR __k$[ebp+5], -20 ; ffffffecH
  00280	eb 1c		 jmp	 SHORT $LN1@LoadFloat_@6
$LN92@LoadFloat_@6:
  00282	c6 45 e0 ed	 mov	 BYTE PTR __k$[ebp+4], -19 ; ffffffedH
  00286	eb 16		 jmp	 SHORT $LN1@LoadFloat_@6
$LN93@LoadFloat_@6:
  00288	c6 45 df ea	 mov	 BYTE PTR __k$[ebp+3], -22 ; ffffffeaH
  0028c	eb 10		 jmp	 SHORT $LN1@LoadFloat_@6
$LN94@LoadFloat_@6:
  0028e	c6 45 de eb	 mov	 BYTE PTR __k$[ebp+2], -21 ; ffffffebH
  00292	eb 0a		 jmp	 SHORT $LN1@LoadFloat_@6
$LN95@LoadFloat_@6:
  00294	c6 45 dd ec	 mov	 BYTE PTR __k$[ebp+1], -20 ; ffffffecH
  00298	eb 04		 jmp	 SHORT $LN1@LoadFloat_@6
$LN96@LoadFloat_@6:
  0029a	c6 45 dc ed	 mov	 BYTE PTR __k$[ebp], -19	; ffffffedH
$LN1@LoadFloat_@6:
  0029e	6a 06		 push	 6
  002a0	8d 45 dc	 lea	 eax, DWORD PTR __k$[ebp]
  002a3	c6 45 f5 00	 mov	 BYTE PTR __k$[ebp+25], 0
  002a7	5a		 pop	 edx
$LL104@LoadFloat_@6:
  002a8	81 30 ed ec eb
	ea		 xor	 DWORD PTR [eax], -353637139 ; eaebecedH
  002ae	83 c0 04	 add	 eax, 4
  002b1	4a		 dec	 edx
  002b2	75 f4		 jne	 SHORT $LL104@LoadFloat_@6

; 137  : 		return LoadFloat(_k, f);

  002b4	f3 0f 10 45 0c	 movss	 xmm0, DWORD PTR _f$[ebp]
  002b9	80 75 f4 ed	 xor	 BYTE PTR __k$[ebp+24], -19 ; ffffffedH
  002bd	51		 push	 ecx
  002be	8d 45 dc	 lea	 eax, DWORD PTR __k$[ebp]
  002c1	f3 0f 11 04 24	 movss	 DWORD PTR [esp], xmm0
  002c6	50		 push	 eax
  002c7	8b ce		 mov	 ecx, esi
  002c9	ff 15 00 00 00
	00		 call	 DWORD PTR __imp_?LoadFloat@ioINILoader@@QAEMPBDM@Z

; 138  : 	}

  002cf	8b 4d fc	 mov	 ecx, DWORD PTR __$ArrayPad$[ebp]
  002d2	5e		 pop	 esi
  002d3	33 cd		 xor	 ecx, ebp
  002d5	5b		 pop	 ebx
  002d6	e8 00 00 00 00	 call	 @__security_check_cookie@4
  002db	c9		 leave
  002dc	c2 08 00	 ret	 8
??$LoadFloat_e@$0BK@@ioINILoader@@QAEMAAY0BK@$$CBDM@Z ENDP ; ioINILoader::LoadFloat_e<26>
_TEXT	ENDS
PUBLIC	__$ArrayPad$
PUBLIC	??$LoadFloat_e@$0BL@@ioINILoader@@QAEMAAY0BL@$$CBDM@Z ; ioINILoader::LoadFloat_e<27>
; Function compile flags: /Ogsp
;	COMDAT ??$LoadFloat_e@$0BL@@ioINILoader@@QAEMAAY0BL@$$CBDM@Z
_TEXT	SEGMENT
__k$ = -36						; size = 27
__$ArrayPad$ = -4					; size = 4
_k$ = 8							; size = 4
_f$ = 12						; size = 4
??$LoadFloat_e@$0BL@@ioINILoader@@QAEMAAY0BL@$$CBDM@Z PROC ; ioINILoader::LoadFloat_e<27>, COMDAT
; _this$ = ecx

; 135  : 	{

  00000	55		 push	 ebp
  00001	8b ec		 mov	 ebp, esp
  00003	83 ec 24	 sub	 esp, 36			; 00000024H
  00006	a1 00 00 00 00	 mov	 eax, DWORD PTR ___security_cookie
  0000b	33 c5		 xor	 eax, ebp
  0000d	89 45 fc	 mov	 DWORD PTR __$ArrayPad$[ebp], eax
  00010	8b 45 08	 mov	 eax, DWORD PTR _k$[ebp]

; 136  : 		_ENCSTR(k, _k);

  00013	8a 10		 mov	 dl, BYTE PTR [eax]
  00015	53		 push	 ebx
  00016	56		 push	 esi
  00017	8b f1		 mov	 esi, ecx
  00019	84 d2		 test	 dl, dl
  0001b	0f 84 91 02 00
	00		 je	 $LN96@LoadFloat_@7
  00021	80 f2 ed	 xor	 dl, -19			; ffffffedH
  00024	88 55 dc	 mov	 BYTE PTR __k$[ebp], dl
  00027	8a 50 01	 mov	 dl, BYTE PTR [eax+1]
  0002a	84 d2		 test	 dl, dl
  0002c	0f 84 7a 02 00
	00		 je	 $LN95@LoadFloat_@7
  00032	b1 ec		 mov	 cl, -20			; ffffffecH
  00034	32 d1		 xor	 dl, cl
  00036	88 55 dd	 mov	 BYTE PTR __k$[ebp+1], dl
  00039	8a 50 02	 mov	 dl, BYTE PTR [eax+2]
  0003c	84 d2		 test	 dl, dl
  0003e	0f 84 62 02 00
	00		 je	 $LN94@LoadFloat_@7
  00044	80 f2 eb	 xor	 dl, -21			; ffffffebH
  00047	88 55 de	 mov	 BYTE PTR __k$[ebp+2], dl
  0004a	8a 50 03	 mov	 dl, BYTE PTR [eax+3]
  0004d	84 d2		 test	 dl, dl
  0004f	0f 84 4b 02 00
	00		 je	 $LN93@LoadFloat_@7
  00055	b3 ea		 mov	 bl, -22			; ffffffeaH
  00057	32 d3		 xor	 dl, bl
  00059	88 55 df	 mov	 BYTE PTR __k$[ebp+3], dl
  0005c	8a 50 04	 mov	 dl, BYTE PTR [eax+4]
  0005f	84 d2		 test	 dl, dl
  00061	0f 84 33 02 00
	00		 je	 $LN92@LoadFloat_@7
  00067	80 f2 ed	 xor	 dl, -19			; ffffffedH
  0006a	88 55 e0	 mov	 BYTE PTR __k$[ebp+4], dl
  0006d	8a 50 05	 mov	 dl, BYTE PTR [eax+5]
  00070	84 d2		 test	 dl, dl
  00072	0f 84 1d 02 00
	00		 je	 $LN91@LoadFloat_@7
  00078	32 d1		 xor	 dl, cl
  0007a	88 55 e1	 mov	 BYTE PTR __k$[ebp+5], dl
  0007d	8a 50 06	 mov	 dl, BYTE PTR [eax+6]
  00080	84 d2		 test	 dl, dl
  00082	0f 84 07 02 00
	00		 je	 $LN90@LoadFloat_@7
  00088	80 f2 eb	 xor	 dl, -21			; ffffffebH
  0008b	88 55 e2	 mov	 BYTE PTR __k$[ebp+6], dl
  0008e	8a 50 07	 mov	 dl, BYTE PTR [eax+7]
  00091	84 d2		 test	 dl, dl
  00093	0f 84 f1 01 00
	00		 je	 $LN89@LoadFloat_@7
  00099	32 d3		 xor	 dl, bl
  0009b	88 55 e3	 mov	 BYTE PTR __k$[ebp+7], dl
  0009e	8a 50 08	 mov	 dl, BYTE PTR [eax+8]
  000a1	84 d2		 test	 dl, dl
  000a3	0f 84 db 01 00
	00		 je	 $LN88@LoadFloat_@7
  000a9	80 f2 ed	 xor	 dl, -19			; ffffffedH
  000ac	88 55 e4	 mov	 BYTE PTR __k$[ebp+8], dl
  000af	8a 50 09	 mov	 dl, BYTE PTR [eax+9]
  000b2	84 d2		 test	 dl, dl
  000b4	0f 84 c5 01 00
	00		 je	 $LN87@LoadFloat_@7
  000ba	32 d1		 xor	 dl, cl
  000bc	88 55 e5	 mov	 BYTE PTR __k$[ebp+9], dl
  000bf	8a 50 0a	 mov	 dl, BYTE PTR [eax+10]
  000c2	84 d2		 test	 dl, dl
  000c4	0f 84 af 01 00
	00		 je	 $LN86@LoadFloat_@7
  000ca	80 f2 eb	 xor	 dl, -21			; ffffffebH
  000cd	88 55 e6	 mov	 BYTE PTR __k$[ebp+10], dl
  000d0	8a 50 0b	 mov	 dl, BYTE PTR [eax+11]
  000d3	84 d2		 test	 dl, dl
  000d5	0f 84 99 01 00
	00		 je	 $LN85@LoadFloat_@7
  000db	32 d3		 xor	 dl, bl
  000dd	88 55 e7	 mov	 BYTE PTR __k$[ebp+11], dl
  000e0	8a 50 0c	 mov	 dl, BYTE PTR [eax+12]
  000e3	84 d2		 test	 dl, dl
  000e5	0f 84 83 01 00
	00		 je	 $LN84@LoadFloat_@7
  000eb	80 f2 ed	 xor	 dl, -19			; ffffffedH
  000ee	88 55 e8	 mov	 BYTE PTR __k$[ebp+12], dl
  000f1	8a 50 0d	 mov	 dl, BYTE PTR [eax+13]
  000f4	84 d2		 test	 dl, dl
  000f6	0f 84 6d 01 00
	00		 je	 $LN83@LoadFloat_@7
  000fc	32 d1		 xor	 dl, cl
  000fe	88 55 e9	 mov	 BYTE PTR __k$[ebp+13], dl
  00101	8a 50 0e	 mov	 dl, BYTE PTR [eax+14]
  00104	84 d2		 test	 dl, dl
  00106	0f 84 57 01 00
	00		 je	 $LN82@LoadFloat_@7
  0010c	80 f2 eb	 xor	 dl, -21			; ffffffebH
  0010f	88 55 ea	 mov	 BYTE PTR __k$[ebp+14], dl
  00112	8a 50 0f	 mov	 dl, BYTE PTR [eax+15]
  00115	84 d2		 test	 dl, dl
  00117	0f 84 41 01 00
	00		 je	 $LN81@LoadFloat_@7
  0011d	32 d3		 xor	 dl, bl
  0011f	88 55 eb	 mov	 BYTE PTR __k$[ebp+15], dl
  00122	8a 50 10	 mov	 dl, BYTE PTR [eax+16]
  00125	84 d2		 test	 dl, dl
  00127	0f 84 2b 01 00
	00		 je	 $LN80@LoadFloat_@7
  0012d	80 f2 ed	 xor	 dl, -19			; ffffffedH
  00130	88 55 ec	 mov	 BYTE PTR __k$[ebp+16], dl
  00133	8a 50 11	 mov	 dl, BYTE PTR [eax+17]
  00136	84 d2		 test	 dl, dl
  00138	0f 84 15 01 00
	00		 je	 $LN79@LoadFloat_@7
  0013e	32 d1		 xor	 dl, cl
  00140	88 55 ed	 mov	 BYTE PTR __k$[ebp+17], dl
  00143	8a 50 12	 mov	 dl, BYTE PTR [eax+18]
  00146	84 d2		 test	 dl, dl
  00148	0f 84 ff 00 00
	00		 je	 $LN78@LoadFloat_@7
  0014e	80 f2 eb	 xor	 dl, -21			; ffffffebH
  00151	88 55 ee	 mov	 BYTE PTR __k$[ebp+18], dl
  00154	8a 50 13	 mov	 dl, BYTE PTR [eax+19]
  00157	84 d2		 test	 dl, dl
  00159	0f 84 e9 00 00
	00		 je	 $LN77@LoadFloat_@7
  0015f	32 d3		 xor	 dl, bl
  00161	88 55 ef	 mov	 BYTE PTR __k$[ebp+19], dl
  00164	8a 50 14	 mov	 dl, BYTE PTR [eax+20]
  00167	84 d2		 test	 dl, dl
  00169	0f 84 d3 00 00
	00		 je	 $LN76@LoadFloat_@7
  0016f	80 f2 ed	 xor	 dl, -19			; ffffffedH
  00172	88 55 f0	 mov	 BYTE PTR __k$[ebp+20], dl
  00175	8a 50 15	 mov	 dl, BYTE PTR [eax+21]
  00178	84 d2		 test	 dl, dl
  0017a	0f 84 bd 00 00
	00		 je	 $LN75@LoadFloat_@7
  00180	32 d1		 xor	 dl, cl
  00182	88 55 f1	 mov	 BYTE PTR __k$[ebp+21], dl
  00185	8a 50 16	 mov	 dl, BYTE PTR [eax+22]
  00188	84 d2		 test	 dl, dl
  0018a	0f 84 a7 00 00
	00		 je	 $LN74@LoadFloat_@7
  00190	80 f2 eb	 xor	 dl, -21			; ffffffebH
  00193	88 55 f2	 mov	 BYTE PTR __k$[ebp+22], dl
  00196	8a 50 17	 mov	 dl, BYTE PTR [eax+23]
  00199	84 d2		 test	 dl, dl
  0019b	0f 84 91 00 00
	00		 je	 $LN73@LoadFloat_@7
  001a1	32 d3		 xor	 dl, bl
  001a3	88 55 f3	 mov	 BYTE PTR __k$[ebp+23], dl
  001a6	8a 50 18	 mov	 dl, BYTE PTR [eax+24]
  001a9	84 d2		 test	 dl, dl
  001ab	74 7c		 je	 SHORT $LN72@LoadFloat_@7
  001ad	80 f2 ed	 xor	 dl, -19			; ffffffedH
  001b0	88 55 f4	 mov	 BYTE PTR __k$[ebp+24], dl
  001b3	8a 50 19	 mov	 dl, BYTE PTR [eax+25]
  001b6	84 d2		 test	 dl, dl
  001b8	74 67		 je	 SHORT $LN71@LoadFloat_@7
  001ba	32 d1		 xor	 dl, cl
  001bc	80 78 1a 00	 cmp	 BYTE PTR [eax+26], 0
  001c0	88 55 f5	 mov	 BYTE PTR __k$[ebp+25], dl
  001c3	0f 84 ed 00 00
	00		 je	 $LN1@LoadFloat_@7
  001c9	8a 50 1b	 mov	 dl, BYTE PTR [eax+27]
  001cc	84 d2		 test	 dl, dl
  001ce	74 49		 je	 SHORT $LN69@LoadFloat_@7
  001d0	32 d3		 xor	 dl, bl
  001d2	88 55 f7	 mov	 BYTE PTR __k$[ebp+27], dl
  001d5	8a 50 1c	 mov	 dl, BYTE PTR [eax+28]
  001d8	84 d2		 test	 dl, dl
  001da	74 34		 je	 SHORT $LN68@LoadFloat_@7
  001dc	80 f2 ed	 xor	 dl, -19			; ffffffedH
  001df	88 55 f8	 mov	 BYTE PTR __k$[ebp+28], dl
  001e2	8a 50 1d	 mov	 dl, BYTE PTR [eax+29]
  001e5	84 d2		 test	 dl, dl
  001e7	74 1f		 je	 SHORT $LN67@LoadFloat_@7
  001e9	8a 40 1e	 mov	 al, BYTE PTR [eax+30]
  001ec	32 d1		 xor	 dl, cl
  001ee	88 55 f9	 mov	 BYTE PTR __k$[ebp+29], dl
  001f1	84 c0		 test	 al, al
  001f3	74 0a		 je	 SHORT $LN66@LoadFloat_@7
  001f5	34 eb		 xor	 al, -21			; ffffffebH
  001f7	88 45 fa	 mov	 BYTE PTR __k$[ebp+30], al
  001fa	e9 b7 00 00 00	 jmp	 $LN1@LoadFloat_@7
$LN66@LoadFloat_@7:
  001ff	c6 45 fa eb	 mov	 BYTE PTR __k$[ebp+30], -21 ; ffffffebH
  00203	e9 ae 00 00 00	 jmp	 $LN1@LoadFloat_@7
$LN67@LoadFloat_@7:
  00208	88 4d f9	 mov	 BYTE PTR __k$[ebp+29], cl
  0020b	e9 a6 00 00 00	 jmp	 $LN1@LoadFloat_@7
$LN68@LoadFloat_@7:
  00210	c6 45 f8 ed	 mov	 BYTE PTR __k$[ebp+28], -19 ; ffffffedH
  00214	e9 9d 00 00 00	 jmp	 $LN1@LoadFloat_@7
$LN69@LoadFloat_@7:
  00219	88 5d f7	 mov	 BYTE PTR __k$[ebp+27], bl
  0021c	e9 95 00 00 00	 jmp	 $LN1@LoadFloat_@7
$LN71@LoadFloat_@7:
  00221	88 4d f5	 mov	 BYTE PTR __k$[ebp+25], cl
  00224	e9 8d 00 00 00	 jmp	 $LN1@LoadFloat_@7
$LN72@LoadFloat_@7:
  00229	c6 45 f4 ed	 mov	 BYTE PTR __k$[ebp+24], -19 ; ffffffedH
  0022d	e9 84 00 00 00	 jmp	 $LN1@LoadFloat_@7
$LN73@LoadFloat_@7:
  00232	88 5d f3	 mov	 BYTE PTR __k$[ebp+23], bl
  00235	eb 7f		 jmp	 SHORT $LN1@LoadFloat_@7
$LN74@LoadFloat_@7:
  00237	c6 45 f2 eb	 mov	 BYTE PTR __k$[ebp+22], -21 ; ffffffebH
  0023b	eb 79		 jmp	 SHORT $LN1@LoadFloat_@7
$LN75@LoadFloat_@7:
  0023d	88 4d f1	 mov	 BYTE PTR __k$[ebp+21], cl
  00240	eb 74		 jmp	 SHORT $LN1@LoadFloat_@7
$LN76@LoadFloat_@7:
  00242	c6 45 f0 ed	 mov	 BYTE PTR __k$[ebp+20], -19 ; ffffffedH
  00246	eb 6e		 jmp	 SHORT $LN1@LoadFloat_@7
$LN77@LoadFloat_@7:
  00248	88 5d ef	 mov	 BYTE PTR __k$[ebp+19], bl
  0024b	eb 69		 jmp	 SHORT $LN1@LoadFloat_@7
$LN78@LoadFloat_@7:
  0024d	c6 45 ee eb	 mov	 BYTE PTR __k$[ebp+18], -21 ; ffffffebH
  00251	eb 63		 jmp	 SHORT $LN1@LoadFloat_@7
$LN79@LoadFloat_@7:
  00253	88 4d ed	 mov	 BYTE PTR __k$[ebp+17], cl
  00256	eb 5e		 jmp	 SHORT $LN1@LoadFloat_@7
$LN80@LoadFloat_@7:
  00258	c6 45 ec ed	 mov	 BYTE PTR __k$[ebp+16], -19 ; ffffffedH
  0025c	eb 58		 jmp	 SHORT $LN1@LoadFloat_@7
$LN81@LoadFloat_@7:
  0025e	88 5d eb	 mov	 BYTE PTR __k$[ebp+15], bl
  00261	eb 53		 jmp	 SHORT $LN1@LoadFloat_@7
$LN82@LoadFloat_@7:
  00263	c6 45 ea eb	 mov	 BYTE PTR __k$[ebp+14], -21 ; ffffffebH
  00267	eb 4d		 jmp	 SHORT $LN1@LoadFloat_@7
$LN83@LoadFloat_@7:
  00269	88 4d e9	 mov	 BYTE PTR __k$[ebp+13], cl
  0026c	eb 48		 jmp	 SHORT $LN1@LoadFloat_@7
$LN84@LoadFloat_@7:
  0026e	c6 45 e8 ed	 mov	 BYTE PTR __k$[ebp+12], -19 ; ffffffedH
  00272	eb 42		 jmp	 SHORT $LN1@LoadFloat_@7
$LN85@LoadFloat_@7:
  00274	88 5d e7	 mov	 BYTE PTR __k$[ebp+11], bl
  00277	eb 3d		 jmp	 SHORT $LN1@LoadFloat_@7
$LN86@LoadFloat_@7:
  00279	c6 45 e6 eb	 mov	 BYTE PTR __k$[ebp+10], -21 ; ffffffebH
  0027d	eb 37		 jmp	 SHORT $LN1@LoadFloat_@7
$LN87@LoadFloat_@7:
  0027f	88 4d e5	 mov	 BYTE PTR __k$[ebp+9], cl
  00282	eb 32		 jmp	 SHORT $LN1@LoadFloat_@7
$LN88@LoadFloat_@7:
  00284	c6 45 e4 ed	 mov	 BYTE PTR __k$[ebp+8], -19 ; ffffffedH
  00288	eb 2c		 jmp	 SHORT $LN1@LoadFloat_@7
$LN89@LoadFloat_@7:
  0028a	88 5d e3	 mov	 BYTE PTR __k$[ebp+7], bl
  0028d	eb 27		 jmp	 SHORT $LN1@LoadFloat_@7
$LN90@LoadFloat_@7:
  0028f	c6 45 e2 eb	 mov	 BYTE PTR __k$[ebp+6], -21 ; ffffffebH
  00293	eb 21		 jmp	 SHORT $LN1@LoadFloat_@7
$LN91@LoadFloat_@7:
  00295	88 4d e1	 mov	 BYTE PTR __k$[ebp+5], cl
  00298	eb 1c		 jmp	 SHORT $LN1@LoadFloat_@7
$LN92@LoadFloat_@7:
  0029a	c6 45 e0 ed	 mov	 BYTE PTR __k$[ebp+4], -19 ; ffffffedH
  0029e	eb 16		 jmp	 SHORT $LN1@LoadFloat_@7
$LN93@LoadFloat_@7:
  002a0	c6 45 df ea	 mov	 BYTE PTR __k$[ebp+3], -22 ; ffffffeaH
  002a4	eb 10		 jmp	 SHORT $LN1@LoadFloat_@7
$LN94@LoadFloat_@7:
  002a6	c6 45 de eb	 mov	 BYTE PTR __k$[ebp+2], -21 ; ffffffebH
  002aa	eb 0a		 jmp	 SHORT $LN1@LoadFloat_@7
$LN95@LoadFloat_@7:
  002ac	c6 45 dd ec	 mov	 BYTE PTR __k$[ebp+1], -20 ; ffffffecH
  002b0	eb 04		 jmp	 SHORT $LN1@LoadFloat_@7
$LN96@LoadFloat_@7:
  002b2	c6 45 dc ed	 mov	 BYTE PTR __k$[ebp], -19	; ffffffedH
$LN1@LoadFloat_@7:
  002b6	6a 06		 push	 6
  002b8	8d 45 dc	 lea	 eax, DWORD PTR __k$[ebp]
  002bb	c6 45 f6 00	 mov	 BYTE PTR __k$[ebp+26], 0
  002bf	5a		 pop	 edx
$LL104@LoadFloat_@7:
  002c0	81 30 ed ec eb
	ea		 xor	 DWORD PTR [eax], -353637139 ; eaebecedH
  002c6	83 c0 04	 add	 eax, 4
  002c9	4a		 dec	 edx
  002ca	75 f4		 jne	 SHORT $LL104@LoadFloat_@7
  002cc	6a 18		 push	 24			; 00000018H
  002ce	58		 pop	 eax
$LL101@LoadFloat_@7:
  002cf	8b c8		 mov	 ecx, eax
  002d1	81 e1 03 00 00
	80		 and	 ecx, -2147483645	; 80000003H
  002d7	79 05		 jns	 SHORT $LN111@LoadFloat_@7
  002d9	49		 dec	 ecx
  002da	83 c9 fc	 or	 ecx, -4			; fffffffcH
  002dd	41		 inc	 ecx
$LN111@LoadFloat_@7:
  002de	b2 ed		 mov	 dl, -19			; ffffffedH
  002e0	2a d1		 sub	 dl, cl
  002e2	30 54 05 dc	 xor	 BYTE PTR __k$[ebp+eax], dl
  002e6	40		 inc	 eax
  002e7	83 f8 1a	 cmp	 eax, 26			; 0000001aH
  002ea	7c e3		 jl	 SHORT $LL101@LoadFloat_@7

; 137  : 		return LoadFloat(_k, f);

  002ec	f3 0f 10 45 0c	 movss	 xmm0, DWORD PTR _f$[ebp]
  002f1	51		 push	 ecx
  002f2	8d 45 dc	 lea	 eax, DWORD PTR __k$[ebp]
  002f5	f3 0f 11 04 24	 movss	 DWORD PTR [esp], xmm0
  002fa	50		 push	 eax
  002fb	8b ce		 mov	 ecx, esi
  002fd	ff 15 00 00 00
	00		 call	 DWORD PTR __imp_?LoadFloat@ioINILoader@@QAEMPBDM@Z

; 138  : 	}

  00303	8b 4d fc	 mov	 ecx, DWORD PTR __$ArrayPad$[ebp]
  00306	5e		 pop	 esi
  00307	33 cd		 xor	 ecx, ebp
  00309	5b		 pop	 ebx
  0030a	e8 00 00 00 00	 call	 @__security_check_cookie@4
  0030f	c9		 leave
  00310	c2 08 00	 ret	 8
??$LoadFloat_e@$0BL@@ioINILoader@@QAEMAAY0BL@$$CBDM@Z ENDP ; ioINILoader::LoadFloat_e<27>
_TEXT	ENDS
PUBLIC	__$ArrayPad$
PUBLIC	??$LoadFloat_e@$0BH@@ioINILoader@@QAEMAAY0BH@$$CBDM@Z ; ioINILoader::LoadFloat_e<23>
; Function compile flags: /Ogsp
;	COMDAT ??$LoadFloat_e@$0BH@@ioINILoader@@QAEMAAY0BH@$$CBDM@Z
_TEXT	SEGMENT
__k$ = -32						; size = 23
__$ArrayPad$ = -4					; size = 4
_k$ = 8							; size = 4
_f$ = 12						; size = 4
??$LoadFloat_e@$0BH@@ioINILoader@@QAEMAAY0BH@$$CBDM@Z PROC ; ioINILoader::LoadFloat_e<23>, COMDAT
; _this$ = ecx

; 135  : 	{

  00000	55		 push	 ebp
  00001	8b ec		 mov	 ebp, esp
  00003	83 ec 20	 sub	 esp, 32			; 00000020H
  00006	a1 00 00 00 00	 mov	 eax, DWORD PTR ___security_cookie
  0000b	33 c5		 xor	 eax, ebp
  0000d	89 45 fc	 mov	 DWORD PTR __$ArrayPad$[ebp], eax
  00010	8b 45 08	 mov	 eax, DWORD PTR _k$[ebp]

; 136  : 		_ENCSTR(k, _k);

  00013	8a 10		 mov	 dl, BYTE PTR [eax]
  00015	53		 push	 ebx
  00016	56		 push	 esi
  00017	8b f1		 mov	 esi, ecx
  00019	84 d2		 test	 dl, dl
  0001b	0f 84 2d 02 00
	00		 je	 $LN96@LoadFloat_@8
  00021	80 f2 ed	 xor	 dl, -19			; ffffffedH
  00024	88 55 e0	 mov	 BYTE PTR __k$[ebp], dl
  00027	8a 50 01	 mov	 dl, BYTE PTR [eax+1]
  0002a	84 d2		 test	 dl, dl
  0002c	0f 84 16 02 00
	00		 je	 $LN95@LoadFloat_@8
  00032	b1 ec		 mov	 cl, -20			; ffffffecH
  00034	32 d1		 xor	 dl, cl
  00036	88 55 e1	 mov	 BYTE PTR __k$[ebp+1], dl
  00039	8a 50 02	 mov	 dl, BYTE PTR [eax+2]
  0003c	84 d2		 test	 dl, dl
  0003e	0f 84 fe 01 00
	00		 je	 $LN94@LoadFloat_@8
  00044	80 f2 eb	 xor	 dl, -21			; ffffffebH
  00047	88 55 e2	 mov	 BYTE PTR __k$[ebp+2], dl
  0004a	8a 50 03	 mov	 dl, BYTE PTR [eax+3]
  0004d	84 d2		 test	 dl, dl
  0004f	0f 84 e7 01 00
	00		 je	 $LN93@LoadFloat_@8
  00055	b3 ea		 mov	 bl, -22			; ffffffeaH
  00057	32 d3		 xor	 dl, bl
  00059	88 55 e3	 mov	 BYTE PTR __k$[ebp+3], dl
  0005c	8a 50 04	 mov	 dl, BYTE PTR [eax+4]
  0005f	84 d2		 test	 dl, dl
  00061	0f 84 cf 01 00
	00		 je	 $LN92@LoadFloat_@8
  00067	80 f2 ed	 xor	 dl, -19			; ffffffedH
  0006a	88 55 e4	 mov	 BYTE PTR __k$[ebp+4], dl
  0006d	8a 50 05	 mov	 dl, BYTE PTR [eax+5]
  00070	84 d2		 test	 dl, dl
  00072	0f 84 b9 01 00
	00		 je	 $LN91@LoadFloat_@8
  00078	32 d1		 xor	 dl, cl
  0007a	88 55 e5	 mov	 BYTE PTR __k$[ebp+5], dl
  0007d	8a 50 06	 mov	 dl, BYTE PTR [eax+6]
  00080	84 d2		 test	 dl, dl
  00082	0f 84 a3 01 00
	00		 je	 $LN90@LoadFloat_@8
  00088	80 f2 eb	 xor	 dl, -21			; ffffffebH
  0008b	88 55 e6	 mov	 BYTE PTR __k$[ebp+6], dl
  0008e	8a 50 07	 mov	 dl, BYTE PTR [eax+7]
  00091	84 d2		 test	 dl, dl
  00093	0f 84 8d 01 00
	00		 je	 $LN89@LoadFloat_@8
  00099	32 d3		 xor	 dl, bl
  0009b	88 55 e7	 mov	 BYTE PTR __k$[ebp+7], dl
  0009e	8a 50 08	 mov	 dl, BYTE PTR [eax+8]
  000a1	84 d2		 test	 dl, dl
  000a3	0f 84 77 01 00
	00		 je	 $LN88@LoadFloat_@8
  000a9	80 f2 ed	 xor	 dl, -19			; ffffffedH
  000ac	88 55 e8	 mov	 BYTE PTR __k$[ebp+8], dl
  000af	8a 50 09	 mov	 dl, BYTE PTR [eax+9]
  000b2	84 d2		 test	 dl, dl
  000b4	0f 84 61 01 00
	00		 je	 $LN87@LoadFloat_@8
  000ba	32 d1		 xor	 dl, cl
  000bc	88 55 e9	 mov	 BYTE PTR __k$[ebp+9], dl
  000bf	8a 50 0a	 mov	 dl, BYTE PTR [eax+10]
  000c2	84 d2		 test	 dl, dl
  000c4	0f 84 4b 01 00
	00		 je	 $LN86@LoadFloat_@8
  000ca	80 f2 eb	 xor	 dl, -21			; ffffffebH
  000cd	88 55 ea	 mov	 BYTE PTR __k$[ebp+10], dl
  000d0	8a 50 0b	 mov	 dl, BYTE PTR [eax+11]
  000d3	84 d2		 test	 dl, dl
  000d5	0f 84 35 01 00
	00		 je	 $LN85@LoadFloat_@8
  000db	32 d3		 xor	 dl, bl
  000dd	88 55 eb	 mov	 BYTE PTR __k$[ebp+11], dl
  000e0	8a 50 0c	 mov	 dl, BYTE PTR [eax+12]
  000e3	84 d2		 test	 dl, dl
  000e5	0f 84 1f 01 00
	00		 je	 $LN84@LoadFloat_@8
  000eb	80 f2 ed	 xor	 dl, -19			; ffffffedH
  000ee	88 55 ec	 mov	 BYTE PTR __k$[ebp+12], dl
  000f1	8a 50 0d	 mov	 dl, BYTE PTR [eax+13]
  000f4	84 d2		 test	 dl, dl
  000f6	0f 84 09 01 00
	00		 je	 $LN83@LoadFloat_@8
  000fc	32 d1		 xor	 dl, cl
  000fe	88 55 ed	 mov	 BYTE PTR __k$[ebp+13], dl
  00101	8a 50 0e	 mov	 dl, BYTE PTR [eax+14]
  00104	84 d2		 test	 dl, dl
  00106	0f 84 f3 00 00
	00		 je	 $LN82@LoadFloat_@8
  0010c	80 f2 eb	 xor	 dl, -21			; ffffffebH
  0010f	88 55 ee	 mov	 BYTE PTR __k$[ebp+14], dl
  00112	8a 50 0f	 mov	 dl, BYTE PTR [eax+15]
  00115	84 d2		 test	 dl, dl
  00117	0f 84 dd 00 00
	00		 je	 $LN81@LoadFloat_@8
  0011d	32 d3		 xor	 dl, bl
  0011f	88 55 ef	 mov	 BYTE PTR __k$[ebp+15], dl
  00122	8a 50 10	 mov	 dl, BYTE PTR [eax+16]
  00125	84 d2		 test	 dl, dl
  00127	0f 84 c7 00 00
	00		 je	 $LN80@LoadFloat_@8
  0012d	80 f2 ed	 xor	 dl, -19			; ffffffedH
  00130	88 55 f0	 mov	 BYTE PTR __k$[ebp+16], dl
  00133	8a 50 11	 mov	 dl, BYTE PTR [eax+17]
  00136	84 d2		 test	 dl, dl
  00138	0f 84 b1 00 00
	00		 je	 $LN79@LoadFloat_@8
  0013e	32 d1		 xor	 dl, cl
  00140	88 55 f1	 mov	 BYTE PTR __k$[ebp+17], dl
  00143	8a 50 12	 mov	 dl, BYTE PTR [eax+18]
  00146	84 d2		 test	 dl, dl
  00148	0f 84 9b 00 00
	00		 je	 $LN78@LoadFloat_@8
  0014e	80 f2 eb	 xor	 dl, -21			; ffffffebH
  00151	88 55 f2	 mov	 BYTE PTR __k$[ebp+18], dl
  00154	8a 50 13	 mov	 dl, BYTE PTR [eax+19]
  00157	84 d2		 test	 dl, dl
  00159	0f 84 85 00 00
	00		 je	 $LN77@LoadFloat_@8
  0015f	32 d3		 xor	 dl, bl
  00161	88 55 f3	 mov	 BYTE PTR __k$[ebp+19], dl
  00164	8a 50 14	 mov	 dl, BYTE PTR [eax+20]
  00167	84 d2		 test	 dl, dl
  00169	74 73		 je	 SHORT $LN76@LoadFloat_@8
  0016b	80 f2 ed	 xor	 dl, -19			; ffffffedH
  0016e	88 55 f4	 mov	 BYTE PTR __k$[ebp+20], dl
  00171	8a 50 15	 mov	 dl, BYTE PTR [eax+21]
  00174	84 d2		 test	 dl, dl
  00176	74 61		 je	 SHORT $LN75@LoadFloat_@8
  00178	32 d1		 xor	 dl, cl
  0017a	80 78 16 00	 cmp	 BYTE PTR [eax+22], 0
  0017e	88 55 f5	 mov	 BYTE PTR __k$[ebp+21], dl
  00181	0f 84 cb 00 00
	00		 je	 $LN1@LoadFloat_@8
  00187	8a 50 17	 mov	 dl, BYTE PTR [eax+23]
  0018a	84 d2		 test	 dl, dl
  0018c	74 46		 je	 SHORT $LN73@LoadFloat_@8
  0018e	32 d3		 xor	 dl, bl
  00190	88 55 f7	 mov	 BYTE PTR __k$[ebp+23], dl
  00193	8a 50 18	 mov	 dl, BYTE PTR [eax+24]
  00196	84 d2		 test	 dl, dl
  00198	74 34		 je	 SHORT $LN72@LoadFloat_@8
  0019a	80 f2 ed	 xor	 dl, -19			; ffffffedH
  0019d	88 55 f8	 mov	 BYTE PTR __k$[ebp+24], dl
  001a0	8a 50 19	 mov	 dl, BYTE PTR [eax+25]
  001a3	84 d2		 test	 dl, dl
  001a5	74 1f		 je	 SHORT $LN71@LoadFloat_@8
  001a7	8a 40 1a	 mov	 al, BYTE PTR [eax+26]
  001aa	32 d1		 xor	 dl, cl
  001ac	88 55 f9	 mov	 BYTE PTR __k$[ebp+25], dl
  001af	84 c0		 test	 al, al
  001b1	74 0a		 je	 SHORT $LN70@LoadFloat_@8
  001b3	34 eb		 xor	 al, -21			; ffffffebH
  001b5	88 45 fa	 mov	 BYTE PTR __k$[ebp+26], al
  001b8	e9 95 00 00 00	 jmp	 $LN1@LoadFloat_@8
$LN70@LoadFloat_@8:
  001bd	c6 45 fa eb	 mov	 BYTE PTR __k$[ebp+26], -21 ; ffffffebH
  001c1	e9 8c 00 00 00	 jmp	 $LN1@LoadFloat_@8
$LN71@LoadFloat_@8:
  001c6	88 4d f9	 mov	 BYTE PTR __k$[ebp+25], cl
  001c9	e9 84 00 00 00	 jmp	 $LN1@LoadFloat_@8
$LN72@LoadFloat_@8:
  001ce	c6 45 f8 ed	 mov	 BYTE PTR __k$[ebp+24], -19 ; ffffffedH
  001d2	eb 7e		 jmp	 SHORT $LN1@LoadFloat_@8
$LN73@LoadFloat_@8:
  001d4	88 5d f7	 mov	 BYTE PTR __k$[ebp+23], bl
  001d7	eb 79		 jmp	 SHORT $LN1@LoadFloat_@8
$LN75@LoadFloat_@8:
  001d9	88 4d f5	 mov	 BYTE PTR __k$[ebp+21], cl
  001dc	eb 74		 jmp	 SHORT $LN1@LoadFloat_@8
$LN76@LoadFloat_@8:
  001de	c6 45 f4 ed	 mov	 BYTE PTR __k$[ebp+20], -19 ; ffffffedH
  001e2	eb 6e		 jmp	 SHORT $LN1@LoadFloat_@8
$LN77@LoadFloat_@8:
  001e4	88 5d f3	 mov	 BYTE PTR __k$[ebp+19], bl
  001e7	eb 69		 jmp	 SHORT $LN1@LoadFloat_@8
$LN78@LoadFloat_@8:
  001e9	c6 45 f2 eb	 mov	 BYTE PTR __k$[ebp+18], -21 ; ffffffebH
  001ed	eb 63		 jmp	 SHORT $LN1@LoadFloat_@8
$LN79@LoadFloat_@8:
  001ef	88 4d f1	 mov	 BYTE PTR __k$[ebp+17], cl
  001f2	eb 5e		 jmp	 SHORT $LN1@LoadFloat_@8
$LN80@LoadFloat_@8:
  001f4	c6 45 f0 ed	 mov	 BYTE PTR __k$[ebp+16], -19 ; ffffffedH
  001f8	eb 58		 jmp	 SHORT $LN1@LoadFloat_@8
$LN81@LoadFloat_@8:
  001fa	88 5d ef	 mov	 BYTE PTR __k$[ebp+15], bl
  001fd	eb 53		 jmp	 SHORT $LN1@LoadFloat_@8
$LN82@LoadFloat_@8:
  001ff	c6 45 ee eb	 mov	 BYTE PTR __k$[ebp+14], -21 ; ffffffebH
  00203	eb 4d		 jmp	 SHORT $LN1@LoadFloat_@8
$LN83@LoadFloat_@8:
  00205	88 4d ed	 mov	 BYTE PTR __k$[ebp+13], cl
  00208	eb 48		 jmp	 SHORT $LN1@LoadFloat_@8
$LN84@LoadFloat_@8:
  0020a	c6 45 ec ed	 mov	 BYTE PTR __k$[ebp+12], -19 ; ffffffedH
  0020e	eb 42		 jmp	 SHORT $LN1@LoadFloat_@8
$LN85@LoadFloat_@8:
  00210	88 5d eb	 mov	 BYTE PTR __k$[ebp+11], bl
  00213	eb 3d		 jmp	 SHORT $LN1@LoadFloat_@8
$LN86@LoadFloat_@8:
  00215	c6 45 ea eb	 mov	 BYTE PTR __k$[ebp+10], -21 ; ffffffebH
  00219	eb 37		 jmp	 SHORT $LN1@LoadFloat_@8
$LN87@LoadFloat_@8:
  0021b	88 4d e9	 mov	 BYTE PTR __k$[ebp+9], cl
  0021e	eb 32		 jmp	 SHORT $LN1@LoadFloat_@8
$LN88@LoadFloat_@8:
  00220	c6 45 e8 ed	 mov	 BYTE PTR __k$[ebp+8], -19 ; ffffffedH
  00224	eb 2c		 jmp	 SHORT $LN1@LoadFloat_@8
$LN89@LoadFloat_@8:
  00226	88 5d e7	 mov	 BYTE PTR __k$[ebp+7], bl
  00229	eb 27		 jmp	 SHORT $LN1@LoadFloat_@8
$LN90@LoadFloat_@8:
  0022b	c6 45 e6 eb	 mov	 BYTE PTR __k$[ebp+6], -21 ; ffffffebH
  0022f	eb 21		 jmp	 SHORT $LN1@LoadFloat_@8
$LN91@LoadFloat_@8:
  00231	88 4d e5	 mov	 BYTE PTR __k$[ebp+5], cl
  00234	eb 1c		 jmp	 SHORT $LN1@LoadFloat_@8
$LN92@LoadFloat_@8:
  00236	c6 45 e4 ed	 mov	 BYTE PTR __k$[ebp+4], -19 ; ffffffedH
  0023a	eb 16		 jmp	 SHORT $LN1@LoadFloat_@8
$LN93@LoadFloat_@8:
  0023c	c6 45 e3 ea	 mov	 BYTE PTR __k$[ebp+3], -22 ; ffffffeaH
  00240	eb 10		 jmp	 SHORT $LN1@LoadFloat_@8
$LN94@LoadFloat_@8:
  00242	c6 45 e2 eb	 mov	 BYTE PTR __k$[ebp+2], -21 ; ffffffebH
  00246	eb 0a		 jmp	 SHORT $LN1@LoadFloat_@8
$LN95@LoadFloat_@8:
  00248	c6 45 e1 ec	 mov	 BYTE PTR __k$[ebp+1], -20 ; ffffffecH
  0024c	eb 04		 jmp	 SHORT $LN1@LoadFloat_@8
$LN96@LoadFloat_@8:
  0024e	c6 45 e0 ed	 mov	 BYTE PTR __k$[ebp], -19	; ffffffedH
$LN1@LoadFloat_@8:
  00252	6a 05		 push	 5
  00254	8d 45 e0	 lea	 eax, DWORD PTR __k$[ebp]
  00257	c6 45 f6 00	 mov	 BYTE PTR __k$[ebp+22], 0
  0025b	5a		 pop	 edx
$LL104@LoadFloat_@8:
  0025c	81 30 ed ec eb
	ea		 xor	 DWORD PTR [eax], -353637139 ; eaebecedH
  00262	83 c0 04	 add	 eax, 4
  00265	4a		 dec	 edx
  00266	75 f4		 jne	 SHORT $LL104@LoadFloat_@8
  00268	6a 14		 push	 20			; 00000014H
  0026a	58		 pop	 eax
$LL101@LoadFloat_@8:
  0026b	8b c8		 mov	 ecx, eax
  0026d	81 e1 03 00 00
	80		 and	 ecx, -2147483645	; 80000003H
  00273	79 05		 jns	 SHORT $LN111@LoadFloat_@8
  00275	49		 dec	 ecx
  00276	83 c9 fc	 or	 ecx, -4			; fffffffcH
  00279	41		 inc	 ecx
$LN111@LoadFloat_@8:
  0027a	b2 ed		 mov	 dl, -19			; ffffffedH
  0027c	2a d1		 sub	 dl, cl
  0027e	30 54 05 e0	 xor	 BYTE PTR __k$[ebp+eax], dl
  00282	40		 inc	 eax
  00283	83 f8 16	 cmp	 eax, 22			; 00000016H
  00286	7c e3		 jl	 SHORT $LL101@LoadFloat_@8

; 137  : 		return LoadFloat(_k, f);

  00288	f3 0f 10 45 0c	 movss	 xmm0, DWORD PTR _f$[ebp]
  0028d	51		 push	 ecx
  0028e	8d 45 e0	 lea	 eax, DWORD PTR __k$[ebp]
  00291	f3 0f 11 04 24	 movss	 DWORD PTR [esp], xmm0
  00296	50		 push	 eax
  00297	8b ce		 mov	 ecx, esi
  00299	ff 15 00 00 00
	00		 call	 DWORD PTR __imp_?LoadFloat@ioINILoader@@QAEMPBDM@Z

; 138  : 	}

  0029f	8b 4d fc	 mov	 ecx, DWORD PTR __$ArrayPad$[ebp]
  002a2	5e		 pop	 esi
  002a3	33 cd		 xor	 ecx, ebp
  002a5	5b		 pop	 ebx
  002a6	e8 00 00 00 00	 call	 @__security_check_cookie@4
  002ab	c9		 leave
  002ac	c2 08 00	 ret	 8
??$LoadFloat_e@$0BH@@ioINILoader@@QAEMAAY0BH@$$CBDM@Z ENDP ; ioINILoader::LoadFloat_e<23>
_TEXT	ENDS
PUBLIC	__$ArrayPad$
PUBLIC	??$LoadFloat_e@$0BG@@ioINILoader@@QAEMAAY0BG@$$CBDM@Z ; ioINILoader::LoadFloat_e<22>
; Function compile flags: /Ogsp
;	COMDAT ??$LoadFloat_e@$0BG@@ioINILoader@@QAEMAAY0BG@$$CBDM@Z
_TEXT	SEGMENT
__k$ = -32						; size = 22
__$ArrayPad$ = -4					; size = 4
_k$ = 8							; size = 4
_f$ = 12						; size = 4
??$LoadFloat_e@$0BG@@ioINILoader@@QAEMAAY0BG@$$CBDM@Z PROC ; ioINILoader::LoadFloat_e<22>, COMDAT
; _this$ = ecx

; 135  : 	{

  00000	55		 push	 ebp
  00001	8b ec		 mov	 ebp, esp
  00003	83 ec 20	 sub	 esp, 32			; 00000020H
  00006	a1 00 00 00 00	 mov	 eax, DWORD PTR ___security_cookie
  0000b	33 c5		 xor	 eax, ebp
  0000d	89 45 fc	 mov	 DWORD PTR __$ArrayPad$[ebp], eax
  00010	8b 45 08	 mov	 eax, DWORD PTR _k$[ebp]

; 136  : 		_ENCSTR(k, _k);

  00013	8a 10		 mov	 dl, BYTE PTR [eax]
  00015	53		 push	 ebx
  00016	56		 push	 esi
  00017	8b f1		 mov	 esi, ecx
  00019	84 d2		 test	 dl, dl
  0001b	0f 84 15 02 00
	00		 je	 $LN96@LoadFloat_@9
  00021	80 f2 ed	 xor	 dl, -19			; ffffffedH
  00024	88 55 e0	 mov	 BYTE PTR __k$[ebp], dl
  00027	8a 50 01	 mov	 dl, BYTE PTR [eax+1]
  0002a	84 d2		 test	 dl, dl
  0002c	0f 84 fe 01 00
	00		 je	 $LN95@LoadFloat_@9
  00032	80 f2 ec	 xor	 dl, -20			; ffffffecH
  00035	88 55 e1	 mov	 BYTE PTR __k$[ebp+1], dl
  00038	8a 50 02	 mov	 dl, BYTE PTR [eax+2]
  0003b	84 d2		 test	 dl, dl
  0003d	0f 84 e7 01 00
	00		 je	 $LN94@LoadFloat_@9
  00043	b1 eb		 mov	 cl, -21			; ffffffebH
  00045	32 d1		 xor	 dl, cl
  00047	88 55 e2	 mov	 BYTE PTR __k$[ebp+2], dl
  0004a	8a 50 03	 mov	 dl, BYTE PTR [eax+3]
  0004d	84 d2		 test	 dl, dl
  0004f	0f 84 cf 01 00
	00		 je	 $LN93@LoadFloat_@9
  00055	b3 ea		 mov	 bl, -22			; ffffffeaH
  00057	32 d3		 xor	 dl, bl
  00059	88 55 e3	 mov	 BYTE PTR __k$[ebp+3], dl
  0005c	8a 50 04	 mov	 dl, BYTE PTR [eax+4]
  0005f	84 d2		 test	 dl, dl
  00061	0f 84 b7 01 00
	00		 je	 $LN92@LoadFloat_@9
  00067	80 f2 ed	 xor	 dl, -19			; ffffffedH
  0006a	88 55 e4	 mov	 BYTE PTR __k$[ebp+4], dl
  0006d	8a 50 05	 mov	 dl, BYTE PTR [eax+5]
  00070	84 d2		 test	 dl, dl
  00072	0f 84 a0 01 00
	00		 je	 $LN91@LoadFloat_@9
  00078	80 f2 ec	 xor	 dl, -20			; ffffffecH
  0007b	88 55 e5	 mov	 BYTE PTR __k$[ebp+5], dl
  0007e	8a 50 06	 mov	 dl, BYTE PTR [eax+6]
  00081	84 d2		 test	 dl, dl
  00083	0f 84 8a 01 00
	00		 je	 $LN90@LoadFloat_@9
  00089	32 d1		 xor	 dl, cl
  0008b	88 55 e6	 mov	 BYTE PTR __k$[ebp+6], dl
  0008e	8a 50 07	 mov	 dl, BYTE PTR [eax+7]
  00091	84 d2		 test	 dl, dl
  00093	0f 84 75 01 00
	00		 je	 $LN89@LoadFloat_@9
  00099	32 d3		 xor	 dl, bl
  0009b	88 55 e7	 mov	 BYTE PTR __k$[ebp+7], dl
  0009e	8a 50 08	 mov	 dl, BYTE PTR [eax+8]
  000a1	84 d2		 test	 dl, dl
  000a3	0f 84 5f 01 00
	00		 je	 $LN88@LoadFloat_@9
  000a9	80 f2 ed	 xor	 dl, -19			; ffffffedH
  000ac	88 55 e8	 mov	 BYTE PTR __k$[ebp+8], dl
  000af	8a 50 09	 mov	 dl, BYTE PTR [eax+9]
  000b2	84 d2		 test	 dl, dl
  000b4	0f 84 48 01 00
	00		 je	 $LN87@LoadFloat_@9
  000ba	80 f2 ec	 xor	 dl, -20			; ffffffecH
  000bd	88 55 e9	 mov	 BYTE PTR __k$[ebp+9], dl
  000c0	8a 50 0a	 mov	 dl, BYTE PTR [eax+10]
  000c3	84 d2		 test	 dl, dl
  000c5	0f 84 32 01 00
	00		 je	 $LN86@LoadFloat_@9
  000cb	32 d1		 xor	 dl, cl
  000cd	88 55 ea	 mov	 BYTE PTR __k$[ebp+10], dl
  000d0	8a 50 0b	 mov	 dl, BYTE PTR [eax+11]
  000d3	84 d2		 test	 dl, dl
  000d5	0f 84 1d 01 00
	00		 je	 $LN85@LoadFloat_@9
  000db	32 d3		 xor	 dl, bl
  000dd	88 55 eb	 mov	 BYTE PTR __k$[ebp+11], dl
  000e0	8a 50 0c	 mov	 dl, BYTE PTR [eax+12]
  000e3	84 d2		 test	 dl, dl
  000e5	0f 84 07 01 00
	00		 je	 $LN84@LoadFloat_@9
  000eb	80 f2 ed	 xor	 dl, -19			; ffffffedH
  000ee	88 55 ec	 mov	 BYTE PTR __k$[ebp+12], dl
  000f1	8a 50 0d	 mov	 dl, BYTE PTR [eax+13]
  000f4	84 d2		 test	 dl, dl
  000f6	0f 84 f0 00 00
	00		 je	 $LN83@LoadFloat_@9
  000fc	80 f2 ec	 xor	 dl, -20			; ffffffecH
  000ff	88 55 ed	 mov	 BYTE PTR __k$[ebp+13], dl
  00102	8a 50 0e	 mov	 dl, BYTE PTR [eax+14]
  00105	84 d2		 test	 dl, dl
  00107	0f 84 da 00 00
	00		 je	 $LN82@LoadFloat_@9
  0010d	32 d1		 xor	 dl, cl
  0010f	88 55 ee	 mov	 BYTE PTR __k$[ebp+14], dl
  00112	8a 50 0f	 mov	 dl, BYTE PTR [eax+15]
  00115	84 d2		 test	 dl, dl
  00117	0f 84 c5 00 00
	00		 je	 $LN81@LoadFloat_@9
  0011d	32 d3		 xor	 dl, bl
  0011f	88 55 ef	 mov	 BYTE PTR __k$[ebp+15], dl
  00122	8a 50 10	 mov	 dl, BYTE PTR [eax+16]
  00125	84 d2		 test	 dl, dl
  00127	0f 84 af 00 00
	00		 je	 $LN80@LoadFloat_@9
  0012d	80 f2 ed	 xor	 dl, -19			; ffffffedH
  00130	88 55 f0	 mov	 BYTE PTR __k$[ebp+16], dl
  00133	8a 50 11	 mov	 dl, BYTE PTR [eax+17]
  00136	84 d2		 test	 dl, dl
  00138	0f 84 98 00 00
	00		 je	 $LN79@LoadFloat_@9
  0013e	80 f2 ec	 xor	 dl, -20			; ffffffecH
  00141	88 55 f1	 mov	 BYTE PTR __k$[ebp+17], dl
  00144	8a 50 12	 mov	 dl, BYTE PTR [eax+18]
  00147	84 d2		 test	 dl, dl
  00149	0f 84 82 00 00
	00		 je	 $LN78@LoadFloat_@9
  0014f	32 d1		 xor	 dl, cl
  00151	88 55 f2	 mov	 BYTE PTR __k$[ebp+18], dl
  00154	8a 50 13	 mov	 dl, BYTE PTR [eax+19]
  00157	84 d2		 test	 dl, dl
  00159	74 71		 je	 SHORT $LN77@LoadFloat_@9
  0015b	32 d3		 xor	 dl, bl
  0015d	88 55 f3	 mov	 BYTE PTR __k$[ebp+19], dl
  00160	8a 50 14	 mov	 dl, BYTE PTR [eax+20]
  00163	84 d2		 test	 dl, dl
  00165	74 5f		 je	 SHORT $LN76@LoadFloat_@9
  00167	80 f2 ed	 xor	 dl, -19			; ffffffedH
  0016a	80 78 15 00	 cmp	 BYTE PTR [eax+21], 0
  0016e	88 55 f4	 mov	 BYTE PTR __k$[ebp+20], dl
  00171	0f 84 c3 00 00
	00		 je	 $LN1@LoadFloat_@9
  00177	8a 50 16	 mov	 dl, BYTE PTR [eax+22]
  0017a	84 d2		 test	 dl, dl
  0017c	74 43		 je	 SHORT $LN74@LoadFloat_@9
  0017e	32 d1		 xor	 dl, cl
  00180	88 55 f6	 mov	 BYTE PTR __k$[ebp+22], dl
  00183	8a 50 17	 mov	 dl, BYTE PTR [eax+23]
  00186	84 d2		 test	 dl, dl
  00188	74 32		 je	 SHORT $LN73@LoadFloat_@9
  0018a	32 d3		 xor	 dl, bl
  0018c	88 55 f7	 mov	 BYTE PTR __k$[ebp+23], dl
  0018f	8a 50 18	 mov	 dl, BYTE PTR [eax+24]
  00192	84 d2		 test	 dl, dl
  00194	74 20		 je	 SHORT $LN72@LoadFloat_@9
  00196	8a 40 19	 mov	 al, BYTE PTR [eax+25]
  00199	80 f2 ed	 xor	 dl, -19			; ffffffedH
  0019c	88 55 f8	 mov	 BYTE PTR __k$[ebp+24], dl
  0019f	84 c0		 test	 al, al
  001a1	74 0a		 je	 SHORT $LN71@LoadFloat_@9
  001a3	34 ec		 xor	 al, -20			; ffffffecH
  001a5	88 45 f9	 mov	 BYTE PTR __k$[ebp+25], al
  001a8	e9 8d 00 00 00	 jmp	 $LN1@LoadFloat_@9
$LN71@LoadFloat_@9:
  001ad	c6 45 f9 ec	 mov	 BYTE PTR __k$[ebp+25], -20 ; ffffffecH
  001b1	e9 84 00 00 00	 jmp	 $LN1@LoadFloat_@9
$LN72@LoadFloat_@9:
  001b6	c6 45 f8 ed	 mov	 BYTE PTR __k$[ebp+24], -19 ; ffffffedH
  001ba	eb 7e		 jmp	 SHORT $LN1@LoadFloat_@9
$LN73@LoadFloat_@9:
  001bc	88 5d f7	 mov	 BYTE PTR __k$[ebp+23], bl
  001bf	eb 79		 jmp	 SHORT $LN1@LoadFloat_@9
$LN74@LoadFloat_@9:
  001c1	88 4d f6	 mov	 BYTE PTR __k$[ebp+22], cl
  001c4	eb 74		 jmp	 SHORT $LN1@LoadFloat_@9
$LN76@LoadFloat_@9:
  001c6	c6 45 f4 ed	 mov	 BYTE PTR __k$[ebp+20], -19 ; ffffffedH
  001ca	eb 6e		 jmp	 SHORT $LN1@LoadFloat_@9
$LN77@LoadFloat_@9:
  001cc	88 5d f3	 mov	 BYTE PTR __k$[ebp+19], bl
  001cf	eb 69		 jmp	 SHORT $LN1@LoadFloat_@9
$LN78@LoadFloat_@9:
  001d1	88 4d f2	 mov	 BYTE PTR __k$[ebp+18], cl
  001d4	eb 64		 jmp	 SHORT $LN1@LoadFloat_@9
$LN79@LoadFloat_@9:
  001d6	c6 45 f1 ec	 mov	 BYTE PTR __k$[ebp+17], -20 ; ffffffecH
  001da	eb 5e		 jmp	 SHORT $LN1@LoadFloat_@9
$LN80@LoadFloat_@9:
  001dc	c6 45 f0 ed	 mov	 BYTE PTR __k$[ebp+16], -19 ; ffffffedH
  001e0	eb 58		 jmp	 SHORT $LN1@LoadFloat_@9
$LN81@LoadFloat_@9:
  001e2	88 5d ef	 mov	 BYTE PTR __k$[ebp+15], bl
  001e5	eb 53		 jmp	 SHORT $LN1@LoadFloat_@9
$LN82@LoadFloat_@9:
  001e7	88 4d ee	 mov	 BYTE PTR __k$[ebp+14], cl
  001ea	eb 4e		 jmp	 SHORT $LN1@LoadFloat_@9
$LN83@LoadFloat_@9:
  001ec	c6 45 ed ec	 mov	 BYTE PTR __k$[ebp+13], -20 ; ffffffecH
  001f0	eb 48		 jmp	 SHORT $LN1@LoadFloat_@9
$LN84@LoadFloat_@9:
  001f2	c6 45 ec ed	 mov	 BYTE PTR __k$[ebp+12], -19 ; ffffffedH
  001f6	eb 42		 jmp	 SHORT $LN1@LoadFloat_@9
$LN85@LoadFloat_@9:
  001f8	88 5d eb	 mov	 BYTE PTR __k$[ebp+11], bl
  001fb	eb 3d		 jmp	 SHORT $LN1@LoadFloat_@9
$LN86@LoadFloat_@9:
  001fd	88 4d ea	 mov	 BYTE PTR __k$[ebp+10], cl
  00200	eb 38		 jmp	 SHORT $LN1@LoadFloat_@9
$LN87@LoadFloat_@9:
  00202	c6 45 e9 ec	 mov	 BYTE PTR __k$[ebp+9], -20 ; ffffffecH
  00206	eb 32		 jmp	 SHORT $LN1@LoadFloat_@9
$LN88@LoadFloat_@9:
  00208	c6 45 e8 ed	 mov	 BYTE PTR __k$[ebp+8], -19 ; ffffffedH
  0020c	eb 2c		 jmp	 SHORT $LN1@LoadFloat_@9
$LN89@LoadFloat_@9:
  0020e	88 5d e7	 mov	 BYTE PTR __k$[ebp+7], bl
  00211	eb 27		 jmp	 SHORT $LN1@LoadFloat_@9
$LN90@LoadFloat_@9:
  00213	88 4d e6	 mov	 BYTE PTR __k$[ebp+6], cl
  00216	eb 22		 jmp	 SHORT $LN1@LoadFloat_@9
$LN91@LoadFloat_@9:
  00218	c6 45 e5 ec	 mov	 BYTE PTR __k$[ebp+5], -20 ; ffffffecH
  0021c	eb 1c		 jmp	 SHORT $LN1@LoadFloat_@9
$LN92@LoadFloat_@9:
  0021e	c6 45 e4 ed	 mov	 BYTE PTR __k$[ebp+4], -19 ; ffffffedH
  00222	eb 16		 jmp	 SHORT $LN1@LoadFloat_@9
$LN93@LoadFloat_@9:
  00224	c6 45 e3 ea	 mov	 BYTE PTR __k$[ebp+3], -22 ; ffffffeaH
  00228	eb 10		 jmp	 SHORT $LN1@LoadFloat_@9
$LN94@LoadFloat_@9:
  0022a	c6 45 e2 eb	 mov	 BYTE PTR __k$[ebp+2], -21 ; ffffffebH
  0022e	eb 0a		 jmp	 SHORT $LN1@LoadFloat_@9
$LN95@LoadFloat_@9:
  00230	c6 45 e1 ec	 mov	 BYTE PTR __k$[ebp+1], -20 ; ffffffecH
  00234	eb 04		 jmp	 SHORT $LN1@LoadFloat_@9
$LN96@LoadFloat_@9:
  00236	c6 45 e0 ed	 mov	 BYTE PTR __k$[ebp], -19	; ffffffedH
$LN1@LoadFloat_@9:
  0023a	6a 05		 push	 5
  0023c	8d 45 e0	 lea	 eax, DWORD PTR __k$[ebp]
  0023f	c6 45 f5 00	 mov	 BYTE PTR __k$[ebp+21], 0
  00243	5a		 pop	 edx
$LL104@LoadFloat_@9:
  00244	81 30 ed ec eb
	ea		 xor	 DWORD PTR [eax], -353637139 ; eaebecedH
  0024a	83 c0 04	 add	 eax, 4
  0024d	4a		 dec	 edx
  0024e	75 f4		 jne	 SHORT $LL104@LoadFloat_@9

; 137  : 		return LoadFloat(_k, f);

  00250	f3 0f 10 45 0c	 movss	 xmm0, DWORD PTR _f$[ebp]
  00255	80 75 f4 ed	 xor	 BYTE PTR __k$[ebp+20], -19 ; ffffffedH
  00259	51		 push	 ecx
  0025a	8d 45 e0	 lea	 eax, DWORD PTR __k$[ebp]
  0025d	f3 0f 11 04 24	 movss	 DWORD PTR [esp], xmm0
  00262	50		 push	 eax
  00263	8b ce		 mov	 ecx, esi
  00265	ff 15 00 00 00
	00		 call	 DWORD PTR __imp_?LoadFloat@ioINILoader@@QAEMPBDM@Z

; 138  : 	}

  0026b	8b 4d fc	 mov	 ecx, DWORD PTR __$ArrayPad$[ebp]
  0026e	5e		 pop	 esi
  0026f	33 cd		 xor	 ecx, ebp
  00271	5b		 pop	 ebx
  00272	e8 00 00 00 00	 call	 @__security_check_cookie@4
  00277	c9		 leave
  00278	c2 08 00	 ret	 8
??$LoadFloat_e@$0BG@@ioINILoader@@QAEMAAY0BG@$$CBDM@Z ENDP ; ioINILoader::LoadFloat_e<22>
_TEXT	ENDS
PUBLIC	__$ArrayPad$
PUBLIC	??$LoadFloat_e@$0BA@@ioINILoader@@QAEMAAY0BA@$$CBDM@Z ; ioINILoader::LoadFloat_e<16>
; Function compile flags: /Ogsp
;	COMDAT ??$LoadFloat_e@$0BA@@ioINILoader@@QAEMAAY0BA@$$CBDM@Z
_TEXT	SEGMENT
__k$ = -24						; size = 16
__$ArrayPad$ = -4					; size = 4
_k$ = 8							; size = 4
_f$ = 12						; size = 4
??$LoadFloat_e@$0BA@@ioINILoader@@QAEMAAY0BA@$$CBDM@Z PROC ; ioINILoader::LoadFloat_e<16>, COMDAT
; _this$ = ecx

; 135  : 	{

  00000	55		 push	 ebp
  00001	8b ec		 mov	 ebp, esp
  00003	83 ec 18	 sub	 esp, 24			; 00000018H
  00006	a1 00 00 00 00	 mov	 eax, DWORD PTR ___security_cookie
  0000b	33 c5		 xor	 eax, ebp
  0000d	89 45 fc	 mov	 DWORD PTR __$ArrayPad$[ebp], eax
  00010	8b 45 08	 mov	 eax, DWORD PTR _k$[ebp]

; 136  : 		_ENCSTR(k, _k);

  00013	8a 10		 mov	 dl, BYTE PTR [eax]
  00015	56		 push	 esi
  00016	8b f1		 mov	 esi, ecx
  00018	84 d2		 test	 dl, dl
  0001a	0f 84 8c 01 00
	00		 je	 $LN96@LoadFloat_@10
  00020	80 f2 ed	 xor	 dl, -19			; ffffffedH
  00023	88 55 e8	 mov	 BYTE PTR __k$[ebp], dl
  00026	8a 50 01	 mov	 dl, BYTE PTR [eax+1]
  00029	84 d2		 test	 dl, dl
  0002b	0f 84 75 01 00
	00		 je	 $LN95@LoadFloat_@10
  00031	80 f2 ec	 xor	 dl, -20			; ffffffecH
  00034	88 55 e9	 mov	 BYTE PTR __k$[ebp+1], dl
  00037	8a 50 02	 mov	 dl, BYTE PTR [eax+2]
  0003a	84 d2		 test	 dl, dl
  0003c	0f 84 5e 01 00
	00		 je	 $LN94@LoadFloat_@10
  00042	b1 eb		 mov	 cl, -21			; ffffffebH
  00044	32 d1		 xor	 dl, cl
  00046	88 55 ea	 mov	 BYTE PTR __k$[ebp+2], dl
  00049	8a 50 03	 mov	 dl, BYTE PTR [eax+3]
  0004c	84 d2		 test	 dl, dl
  0004e	0f 84 46 01 00
	00		 je	 $LN93@LoadFloat_@10
  00054	80 f2 ea	 xor	 dl, -22			; ffffffeaH
  00057	88 55 eb	 mov	 BYTE PTR __k$[ebp+3], dl
  0005a	8a 50 04	 mov	 dl, BYTE PTR [eax+4]
  0005d	84 d2		 test	 dl, dl
  0005f	0f 84 2f 01 00
	00		 je	 $LN92@LoadFloat_@10
  00065	80 f2 ed	 xor	 dl, -19			; ffffffedH
  00068	88 55 ec	 mov	 BYTE PTR __k$[ebp+4], dl
  0006b	8a 50 05	 mov	 dl, BYTE PTR [eax+5]
  0006e	84 d2		 test	 dl, dl
  00070	0f 84 18 01 00
	00		 je	 $LN91@LoadFloat_@10
  00076	80 f2 ec	 xor	 dl, -20			; ffffffecH
  00079	88 55 ed	 mov	 BYTE PTR __k$[ebp+5], dl
  0007c	8a 50 06	 mov	 dl, BYTE PTR [eax+6]
  0007f	84 d2		 test	 dl, dl
  00081	0f 84 02 01 00
	00		 je	 $LN90@LoadFloat_@10
  00087	32 d1		 xor	 dl, cl
  00089	88 55 ee	 mov	 BYTE PTR __k$[ebp+6], dl
  0008c	8a 50 07	 mov	 dl, BYTE PTR [eax+7]
  0008f	84 d2		 test	 dl, dl
  00091	0f 84 ec 00 00
	00		 je	 $LN89@LoadFloat_@10
  00097	80 f2 ea	 xor	 dl, -22			; ffffffeaH
  0009a	88 55 ef	 mov	 BYTE PTR __k$[ebp+7], dl
  0009d	8a 50 08	 mov	 dl, BYTE PTR [eax+8]
  000a0	84 d2		 test	 dl, dl
  000a2	0f 84 d5 00 00
	00		 je	 $LN88@LoadFloat_@10
  000a8	80 f2 ed	 xor	 dl, -19			; ffffffedH
  000ab	88 55 f0	 mov	 BYTE PTR __k$[ebp+8], dl
  000ae	8a 50 09	 mov	 dl, BYTE PTR [eax+9]
  000b1	84 d2		 test	 dl, dl
  000b3	0f 84 be 00 00
	00		 je	 $LN87@LoadFloat_@10
  000b9	80 f2 ec	 xor	 dl, -20			; ffffffecH
  000bc	88 55 f1	 mov	 BYTE PTR __k$[ebp+9], dl
  000bf	8a 50 0a	 mov	 dl, BYTE PTR [eax+10]
  000c2	84 d2		 test	 dl, dl
  000c4	0f 84 a8 00 00
	00		 je	 $LN86@LoadFloat_@10
  000ca	32 d1		 xor	 dl, cl
  000cc	88 55 f2	 mov	 BYTE PTR __k$[ebp+10], dl
  000cf	8a 50 0b	 mov	 dl, BYTE PTR [eax+11]
  000d2	84 d2		 test	 dl, dl
  000d4	0f 84 92 00 00
	00		 je	 $LN85@LoadFloat_@10
  000da	80 f2 ea	 xor	 dl, -22			; ffffffeaH
  000dd	88 55 f3	 mov	 BYTE PTR __k$[ebp+11], dl
  000e0	8a 50 0c	 mov	 dl, BYTE PTR [eax+12]
  000e3	84 d2		 test	 dl, dl
  000e5	74 7f		 je	 SHORT $LN84@LoadFloat_@10
  000e7	80 f2 ed	 xor	 dl, -19			; ffffffedH
  000ea	88 55 f4	 mov	 BYTE PTR __k$[ebp+12], dl
  000ed	8a 50 0d	 mov	 dl, BYTE PTR [eax+13]
  000f0	84 d2		 test	 dl, dl
  000f2	74 6c		 je	 SHORT $LN83@LoadFloat_@10
  000f4	80 f2 ec	 xor	 dl, -20			; ffffffecH
  000f7	88 55 f5	 mov	 BYTE PTR __k$[ebp+13], dl
  000fa	8a 50 0e	 mov	 dl, BYTE PTR [eax+14]
  000fd	84 d2		 test	 dl, dl
  000ff	74 5a		 je	 SHORT $LN82@LoadFloat_@10
  00101	32 d1		 xor	 dl, cl
  00103	80 78 0f 00	 cmp	 BYTE PTR [eax+15], 0
  00107	88 55 f6	 mov	 BYTE PTR __k$[ebp+14], dl
  0010a	0f 84 a0 00 00
	00		 je	 $LN1@LoadFloat_@10
  00110	8a 50 10	 mov	 dl, BYTE PTR [eax+16]
  00113	84 d2		 test	 dl, dl
  00115	74 3e		 je	 SHORT $LN80@LoadFloat_@10
  00117	80 f2 ed	 xor	 dl, -19			; ffffffedH
  0011a	88 55 f8	 mov	 BYTE PTR __k$[ebp+16], dl
  0011d	8a 50 11	 mov	 dl, BYTE PTR [eax+17]
  00120	84 d2		 test	 dl, dl
  00122	74 2b		 je	 SHORT $LN79@LoadFloat_@10
  00124	80 f2 ec	 xor	 dl, -20			; ffffffecH
  00127	88 55 f9	 mov	 BYTE PTR __k$[ebp+17], dl
  0012a	8a 50 12	 mov	 dl, BYTE PTR [eax+18]
  0012d	84 d2		 test	 dl, dl
  0012f	74 19		 je	 SHORT $LN78@LoadFloat_@10
  00131	8a 40 13	 mov	 al, BYTE PTR [eax+19]
  00134	32 d1		 xor	 dl, cl
  00136	88 55 fa	 mov	 BYTE PTR __k$[ebp+18], dl
  00139	84 c0		 test	 al, al
  0013b	74 07		 je	 SHORT $LN77@LoadFloat_@10
  0013d	34 ea		 xor	 al, -22			; ffffffeaH
  0013f	88 45 fb	 mov	 BYTE PTR __k$[ebp+19], al
  00142	eb 6c		 jmp	 SHORT $LN1@LoadFloat_@10
$LN77@LoadFloat_@10:
  00144	c6 45 fb ea	 mov	 BYTE PTR __k$[ebp+19], -22 ; ffffffeaH
  00148	eb 66		 jmp	 SHORT $LN1@LoadFloat_@10
$LN78@LoadFloat_@10:
  0014a	88 4d fa	 mov	 BYTE PTR __k$[ebp+18], cl
  0014d	eb 61		 jmp	 SHORT $LN1@LoadFloat_@10
$LN79@LoadFloat_@10:
  0014f	c6 45 f9 ec	 mov	 BYTE PTR __k$[ebp+17], -20 ; ffffffecH
  00153	eb 5b		 jmp	 SHORT $LN1@LoadFloat_@10
$LN80@LoadFloat_@10:
  00155	c6 45 f8 ed	 mov	 BYTE PTR __k$[ebp+16], -19 ; ffffffedH
  00159	eb 55		 jmp	 SHORT $LN1@LoadFloat_@10
$LN82@LoadFloat_@10:
  0015b	88 4d f6	 mov	 BYTE PTR __k$[ebp+14], cl
  0015e	eb 50		 jmp	 SHORT $LN1@LoadFloat_@10
$LN83@LoadFloat_@10:
  00160	c6 45 f5 ec	 mov	 BYTE PTR __k$[ebp+13], -20 ; ffffffecH
  00164	eb 4a		 jmp	 SHORT $LN1@LoadFloat_@10
$LN84@LoadFloat_@10:
  00166	c6 45 f4 ed	 mov	 BYTE PTR __k$[ebp+12], -19 ; ffffffedH
  0016a	eb 44		 jmp	 SHORT $LN1@LoadFloat_@10
$LN85@LoadFloat_@10:
  0016c	c6 45 f3 ea	 mov	 BYTE PTR __k$[ebp+11], -22 ; ffffffeaH
  00170	eb 3e		 jmp	 SHORT $LN1@LoadFloat_@10
$LN86@LoadFloat_@10:
  00172	88 4d f2	 mov	 BYTE PTR __k$[ebp+10], cl
  00175	eb 39		 jmp	 SHORT $LN1@LoadFloat_@10
$LN87@LoadFloat_@10:
  00177	c6 45 f1 ec	 mov	 BYTE PTR __k$[ebp+9], -20 ; ffffffecH
  0017b	eb 33		 jmp	 SHORT $LN1@LoadFloat_@10
$LN88@LoadFloat_@10:
  0017d	c6 45 f0 ed	 mov	 BYTE PTR __k$[ebp+8], -19 ; ffffffedH
  00181	eb 2d		 jmp	 SHORT $LN1@LoadFloat_@10
$LN89@LoadFloat_@10:
  00183	c6 45 ef ea	 mov	 BYTE PTR __k$[ebp+7], -22 ; ffffffeaH
  00187	eb 27		 jmp	 SHORT $LN1@LoadFloat_@10
$LN90@LoadFloat_@10:
  00189	88 4d ee	 mov	 BYTE PTR __k$[ebp+6], cl
  0018c	eb 22		 jmp	 SHORT $LN1@LoadFloat_@10
$LN91@LoadFloat_@10:
  0018e	c6 45 ed ec	 mov	 BYTE PTR __k$[ebp+5], -20 ; ffffffecH
  00192	eb 1c		 jmp	 SHORT $LN1@LoadFloat_@10
$LN92@LoadFloat_@10:
  00194	c6 45 ec ed	 mov	 BYTE PTR __k$[ebp+4], -19 ; ffffffedH
  00198	eb 16		 jmp	 SHORT $LN1@LoadFloat_@10
$LN93@LoadFloat_@10:
  0019a	c6 45 eb ea	 mov	 BYTE PTR __k$[ebp+3], -22 ; ffffffeaH
  0019e	eb 10		 jmp	 SHORT $LN1@LoadFloat_@10
$LN94@LoadFloat_@10:
  001a0	c6 45 ea eb	 mov	 BYTE PTR __k$[ebp+2], -21 ; ffffffebH
  001a4	eb 0a		 jmp	 SHORT $LN1@LoadFloat_@10
$LN95@LoadFloat_@10:
  001a6	c6 45 e9 ec	 mov	 BYTE PTR __k$[ebp+1], -20 ; ffffffecH
  001aa	eb 04		 jmp	 SHORT $LN1@LoadFloat_@10
$LN96@LoadFloat_@10:
  001ac	c6 45 e8 ed	 mov	 BYTE PTR __k$[ebp], -19	; ffffffedH
$LN1@LoadFloat_@10:
  001b0	6a 03		 push	 3
  001b2	8d 45 e8	 lea	 eax, DWORD PTR __k$[ebp]
  001b5	c6 45 f7 00	 mov	 BYTE PTR __k$[ebp+15], 0
  001b9	5a		 pop	 edx
$LL104@LoadFloat_@10:
  001ba	81 30 ed ec eb
	ea		 xor	 DWORD PTR [eax], -353637139 ; eaebecedH
  001c0	83 c0 04	 add	 eax, 4
  001c3	4a		 dec	 edx
  001c4	75 f4		 jne	 SHORT $LL104@LoadFloat_@10
  001c6	6a 0c		 push	 12			; 0000000cH
  001c8	58		 pop	 eax
$LL101@LoadFloat_@10:
  001c9	8b c8		 mov	 ecx, eax
  001cb	81 e1 03 00 00
	80		 and	 ecx, -2147483645	; 80000003H
  001d1	79 05		 jns	 SHORT $LN111@LoadFloat_@10
  001d3	49		 dec	 ecx
  001d4	83 c9 fc	 or	 ecx, -4			; fffffffcH
  001d7	41		 inc	 ecx
$LN111@LoadFloat_@10:
  001d8	b2 ed		 mov	 dl, -19			; ffffffedH
  001da	2a d1		 sub	 dl, cl
  001dc	30 54 05 e8	 xor	 BYTE PTR __k$[ebp+eax], dl
  001e0	40		 inc	 eax
  001e1	83 f8 0f	 cmp	 eax, 15			; 0000000fH
  001e4	7c e3		 jl	 SHORT $LL101@LoadFloat_@10

; 137  : 		return LoadFloat(_k, f);

  001e6	f3 0f 10 45 0c	 movss	 xmm0, DWORD PTR _f$[ebp]
  001eb	51		 push	 ecx
  001ec	8d 45 e8	 lea	 eax, DWORD PTR __k$[ebp]
  001ef	f3 0f 11 04 24	 movss	 DWORD PTR [esp], xmm0
  001f4	50		 push	 eax
  001f5	8b ce		 mov	 ecx, esi
  001f7	ff 15 00 00 00
	00		 call	 DWORD PTR __imp_?LoadFloat@ioINILoader@@QAEMPBDM@Z

; 138  : 	}

  001fd	8b 4d fc	 mov	 ecx, DWORD PTR __$ArrayPad$[ebp]
  00200	33 cd		 xor	 ecx, ebp
  00202	5e		 pop	 esi
  00203	e8 00 00 00 00	 call	 @__security_check_cookie@4
  00208	c9		 leave
  00209	c2 08 00	 ret	 8
??$LoadFloat_e@$0BA@@ioINILoader@@QAEMAAY0BA@$$CBDM@Z ENDP ; ioINILoader::LoadFloat_e<16>
_TEXT	ENDS
PUBLIC	__$ArrayPad$
PUBLIC	??$LoadFloat_e@$0BF@@ioINILoader@@QAEMAAY0BF@$$CBDM@Z ; ioINILoader::LoadFloat_e<21>
; Function compile flags: /Ogsp
;	COMDAT ??$LoadFloat_e@$0BF@@ioINILoader@@QAEMAAY0BF@$$CBDM@Z
_TEXT	SEGMENT
__k$ = -32						; size = 21
__$ArrayPad$ = -4					; size = 4
_k$ = 8							; size = 4
_f$ = 12						; size = 4
??$LoadFloat_e@$0BF@@ioINILoader@@QAEMAAY0BF@$$CBDM@Z PROC ; ioINILoader::LoadFloat_e<21>, COMDAT
; _this$ = ecx

; 135  : 	{

  00000	55		 push	 ebp
  00001	8b ec		 mov	 ebp, esp
  00003	83 ec 20	 sub	 esp, 32			; 00000020H
  00006	a1 00 00 00 00	 mov	 eax, DWORD PTR ___security_cookie
  0000b	33 c5		 xor	 eax, ebp
  0000d	89 45 fc	 mov	 DWORD PTR __$ArrayPad$[ebp], eax
  00010	8b 45 08	 mov	 eax, DWORD PTR _k$[ebp]

; 136  : 		_ENCSTR(k, _k);

  00013	8a 10		 mov	 dl, BYTE PTR [eax]
  00015	53		 push	 ebx
  00016	56		 push	 esi
  00017	8b f1		 mov	 esi, ecx
  00019	84 d2		 test	 dl, dl
  0001b	0f 84 f7 01 00
	00		 je	 $LN96@LoadFloat_@11
  00021	80 f2 ed	 xor	 dl, -19			; ffffffedH
  00024	88 55 e0	 mov	 BYTE PTR __k$[ebp], dl
  00027	8a 50 01	 mov	 dl, BYTE PTR [eax+1]
  0002a	84 d2		 test	 dl, dl
  0002c	0f 84 e0 01 00
	00		 je	 $LN95@LoadFloat_@11
  00032	b1 ec		 mov	 cl, -20			; ffffffecH
  00034	32 d1		 xor	 dl, cl
  00036	88 55 e1	 mov	 BYTE PTR __k$[ebp+1], dl
  00039	8a 50 02	 mov	 dl, BYTE PTR [eax+2]
  0003c	84 d2		 test	 dl, dl
  0003e	0f 84 c8 01 00
	00		 je	 $LN94@LoadFloat_@11
  00044	b3 eb		 mov	 bl, -21			; ffffffebH
  00046	32 d3		 xor	 dl, bl
  00048	88 55 e2	 mov	 BYTE PTR __k$[ebp+2], dl
  0004b	8a 50 03	 mov	 dl, BYTE PTR [eax+3]
  0004e	84 d2		 test	 dl, dl
  00050	0f 84 b0 01 00
	00		 je	 $LN93@LoadFloat_@11
  00056	80 f2 ea	 xor	 dl, -22			; ffffffeaH
  00059	88 55 e3	 mov	 BYTE PTR __k$[ebp+3], dl
  0005c	8a 50 04	 mov	 dl, BYTE PTR [eax+4]
  0005f	84 d2		 test	 dl, dl
  00061	0f 84 99 01 00
	00		 je	 $LN92@LoadFloat_@11
  00067	80 f2 ed	 xor	 dl, -19			; ffffffedH
  0006a	88 55 e4	 mov	 BYTE PTR __k$[ebp+4], dl
  0006d	8a 50 05	 mov	 dl, BYTE PTR [eax+5]
  00070	84 d2		 test	 dl, dl
  00072	0f 84 83 01 00
	00		 je	 $LN91@LoadFloat_@11
  00078	32 d1		 xor	 dl, cl
  0007a	88 55 e5	 mov	 BYTE PTR __k$[ebp+5], dl
  0007d	8a 50 06	 mov	 dl, BYTE PTR [eax+6]
  00080	84 d2		 test	 dl, dl
  00082	0f 84 6e 01 00
	00		 je	 $LN90@LoadFloat_@11
  00088	32 d3		 xor	 dl, bl
  0008a	88 55 e6	 mov	 BYTE PTR __k$[ebp+6], dl
  0008d	8a 50 07	 mov	 dl, BYTE PTR [eax+7]
  00090	84 d2		 test	 dl, dl
  00092	0f 84 58 01 00
	00		 je	 $LN89@LoadFloat_@11
  00098	80 f2 ea	 xor	 dl, -22			; ffffffeaH
  0009b	88 55 e7	 mov	 BYTE PTR __k$[ebp+7], dl
  0009e	8a 50 08	 mov	 dl, BYTE PTR [eax+8]
  000a1	84 d2		 test	 dl, dl
  000a3	0f 84 41 01 00
	00		 je	 $LN88@LoadFloat_@11
  000a9	80 f2 ed	 xor	 dl, -19			; ffffffedH
  000ac	88 55 e8	 mov	 BYTE PTR __k$[ebp+8], dl
  000af	8a 50 09	 mov	 dl, BYTE PTR [eax+9]
  000b2	84 d2		 test	 dl, dl
  000b4	0f 84 2b 01 00
	00		 je	 $LN87@LoadFloat_@11
  000ba	32 d1		 xor	 dl, cl
  000bc	88 55 e9	 mov	 BYTE PTR __k$[ebp+9], dl
  000bf	8a 50 0a	 mov	 dl, BYTE PTR [eax+10]
  000c2	84 d2		 test	 dl, dl
  000c4	0f 84 16 01 00
	00		 je	 $LN86@LoadFloat_@11
  000ca	32 d3		 xor	 dl, bl
  000cc	88 55 ea	 mov	 BYTE PTR __k$[ebp+10], dl
  000cf	8a 50 0b	 mov	 dl, BYTE PTR [eax+11]
  000d2	84 d2		 test	 dl, dl
  000d4	0f 84 00 01 00
	00		 je	 $LN85@LoadFloat_@11
  000da	80 f2 ea	 xor	 dl, -22			; ffffffeaH
  000dd	88 55 eb	 mov	 BYTE PTR __k$[ebp+11], dl
  000e0	8a 50 0c	 mov	 dl, BYTE PTR [eax+12]
  000e3	84 d2		 test	 dl, dl
  000e5	0f 84 e9 00 00
	00		 je	 $LN84@LoadFloat_@11
  000eb	80 f2 ed	 xor	 dl, -19			; ffffffedH
  000ee	88 55 ec	 mov	 BYTE PTR __k$[ebp+12], dl
  000f1	8a 50 0d	 mov	 dl, BYTE PTR [eax+13]
  000f4	84 d2		 test	 dl, dl
  000f6	0f 84 d3 00 00
	00		 je	 $LN83@LoadFloat_@11
  000fc	32 d1		 xor	 dl, cl
  000fe	88 55 ed	 mov	 BYTE PTR __k$[ebp+13], dl
  00101	8a 50 0e	 mov	 dl, BYTE PTR [eax+14]
  00104	84 d2		 test	 dl, dl
  00106	0f 84 be 00 00
	00		 je	 $LN82@LoadFloat_@11
  0010c	32 d3		 xor	 dl, bl
  0010e	88 55 ee	 mov	 BYTE PTR __k$[ebp+14], dl
  00111	8a 50 0f	 mov	 dl, BYTE PTR [eax+15]
  00114	84 d2		 test	 dl, dl
  00116	0f 84 a8 00 00
	00		 je	 $LN81@LoadFloat_@11
  0011c	80 f2 ea	 xor	 dl, -22			; ffffffeaH
  0011f	88 55 ef	 mov	 BYTE PTR __k$[ebp+15], dl
  00122	8a 50 10	 mov	 dl, BYTE PTR [eax+16]
  00125	84 d2		 test	 dl, dl
  00127	0f 84 91 00 00
	00		 je	 $LN80@LoadFloat_@11
  0012d	80 f2 ed	 xor	 dl, -19			; ffffffedH
  00130	88 55 f0	 mov	 BYTE PTR __k$[ebp+16], dl
  00133	8a 50 11	 mov	 dl, BYTE PTR [eax+17]
  00136	84 d2		 test	 dl, dl
  00138	74 7f		 je	 SHORT $LN79@LoadFloat_@11
  0013a	32 d1		 xor	 dl, cl
  0013c	88 55 f1	 mov	 BYTE PTR __k$[ebp+17], dl
  0013f	8a 50 12	 mov	 dl, BYTE PTR [eax+18]
  00142	84 d2		 test	 dl, dl
  00144	74 6e		 je	 SHORT $LN78@LoadFloat_@11
  00146	32 d3		 xor	 dl, bl
  00148	88 55 f2	 mov	 BYTE PTR __k$[ebp+18], dl
  0014b	8a 50 13	 mov	 dl, BYTE PTR [eax+19]
  0014e	84 d2		 test	 dl, dl
  00150	74 5c		 je	 SHORT $LN77@LoadFloat_@11
  00152	80 f2 ea	 xor	 dl, -22			; ffffffeaH
  00155	80 78 14 00	 cmp	 BYTE PTR [eax+20], 0
  00159	88 55 f3	 mov	 BYTE PTR __k$[ebp+19], dl
  0015c	0f 84 ba 00 00
	00		 je	 $LN1@LoadFloat_@11
  00162	8a 50 15	 mov	 dl, BYTE PTR [eax+21]
  00165	84 d2		 test	 dl, dl
  00167	74 40		 je	 SHORT $LN75@LoadFloat_@11
  00169	32 d1		 xor	 dl, cl
  0016b	88 55 f5	 mov	 BYTE PTR __k$[ebp+21], dl
  0016e	8a 50 16	 mov	 dl, BYTE PTR [eax+22]
  00171	84 d2		 test	 dl, dl
  00173	74 2f		 je	 SHORT $LN74@LoadFloat_@11
  00175	32 d3		 xor	 dl, bl
  00177	88 55 f6	 mov	 BYTE PTR __k$[ebp+22], dl
  0017a	8a 50 17	 mov	 dl, BYTE PTR [eax+23]
  0017d	84 d2		 test	 dl, dl
  0017f	74 1d		 je	 SHORT $LN73@LoadFloat_@11
  00181	8a 40 18	 mov	 al, BYTE PTR [eax+24]
  00184	80 f2 ea	 xor	 dl, -22			; ffffffeaH
  00187	88 55 f7	 mov	 BYTE PTR __k$[ebp+23], dl
  0018a	84 c0		 test	 al, al
  0018c	74 0a		 je	 SHORT $LN72@LoadFloat_@11
  0018e	34 ed		 xor	 al, -19			; ffffffedH
  00190	88 45 f8	 mov	 BYTE PTR __k$[ebp+24], al
  00193	e9 84 00 00 00	 jmp	 $LN1@LoadFloat_@11
$LN72@LoadFloat_@11:
  00198	c6 45 f8 ed	 mov	 BYTE PTR __k$[ebp+24], -19 ; ffffffedH
  0019c	eb 7e		 jmp	 SHORT $LN1@LoadFloat_@11
$LN73@LoadFloat_@11:
  0019e	c6 45 f7 ea	 mov	 BYTE PTR __k$[ebp+23], -22 ; ffffffeaH
  001a2	eb 78		 jmp	 SHORT $LN1@LoadFloat_@11
$LN74@LoadFloat_@11:
  001a4	88 5d f6	 mov	 BYTE PTR __k$[ebp+22], bl
  001a7	eb 73		 jmp	 SHORT $LN1@LoadFloat_@11
$LN75@LoadFloat_@11:
  001a9	88 4d f5	 mov	 BYTE PTR __k$[ebp+21], cl
  001ac	eb 6e		 jmp	 SHORT $LN1@LoadFloat_@11
$LN77@LoadFloat_@11:
  001ae	c6 45 f3 ea	 mov	 BYTE PTR __k$[ebp+19], -22 ; ffffffeaH
  001b2	eb 68		 jmp	 SHORT $LN1@LoadFloat_@11
$LN78@LoadFloat_@11:
  001b4	88 5d f2	 mov	 BYTE PTR __k$[ebp+18], bl
  001b7	eb 63		 jmp	 SHORT $LN1@LoadFloat_@11
$LN79@LoadFloat_@11:
  001b9	88 4d f1	 mov	 BYTE PTR __k$[ebp+17], cl
  001bc	eb 5e		 jmp	 SHORT $LN1@LoadFloat_@11
$LN80@LoadFloat_@11:
  001be	c6 45 f0 ed	 mov	 BYTE PTR __k$[ebp+16], -19 ; ffffffedH
  001c2	eb 58		 jmp	 SHORT $LN1@LoadFloat_@11
$LN81@LoadFloat_@11:
  001c4	c6 45 ef ea	 mov	 BYTE PTR __k$[ebp+15], -22 ; ffffffeaH
  001c8	eb 52		 jmp	 SHORT $LN1@LoadFloat_@11
$LN82@LoadFloat_@11:
  001ca	88 5d ee	 mov	 BYTE PTR __k$[ebp+14], bl
  001cd	eb 4d		 jmp	 SHORT $LN1@LoadFloat_@11
$LN83@LoadFloat_@11:
  001cf	88 4d ed	 mov	 BYTE PTR __k$[ebp+13], cl
  001d2	eb 48		 jmp	 SHORT $LN1@LoadFloat_@11
$LN84@LoadFloat_@11:
  001d4	c6 45 ec ed	 mov	 BYTE PTR __k$[ebp+12], -19 ; ffffffedH
  001d8	eb 42		 jmp	 SHORT $LN1@LoadFloat_@11
$LN85@LoadFloat_@11:
  001da	c6 45 eb ea	 mov	 BYTE PTR __k$[ebp+11], -22 ; ffffffeaH
  001de	eb 3c		 jmp	 SHORT $LN1@LoadFloat_@11
$LN86@LoadFloat_@11:
  001e0	88 5d ea	 mov	 BYTE PTR __k$[ebp+10], bl
  001e3	eb 37		 jmp	 SHORT $LN1@LoadFloat_@11
$LN87@LoadFloat_@11:
  001e5	88 4d e9	 mov	 BYTE PTR __k$[ebp+9], cl
  001e8	eb 32		 jmp	 SHORT $LN1@LoadFloat_@11
$LN88@LoadFloat_@11:
  001ea	c6 45 e8 ed	 mov	 BYTE PTR __k$[ebp+8], -19 ; ffffffedH
  001ee	eb 2c		 jmp	 SHORT $LN1@LoadFloat_@11
$LN89@LoadFloat_@11:
  001f0	c6 45 e7 ea	 mov	 BYTE PTR __k$[ebp+7], -22 ; ffffffeaH
  001f4	eb 26		 jmp	 SHORT $LN1@LoadFloat_@11
$LN90@LoadFloat_@11:
  001f6	88 5d e6	 mov	 BYTE PTR __k$[ebp+6], bl
  001f9	eb 21		 jmp	 SHORT $LN1@LoadFloat_@11
$LN91@LoadFloat_@11:
  001fb	88 4d e5	 mov	 BYTE PTR __k$[ebp+5], cl
  001fe	eb 1c		 jmp	 SHORT $LN1@LoadFloat_@11
$LN92@LoadFloat_@11:
  00200	c6 45 e4 ed	 mov	 BYTE PTR __k$[ebp+4], -19 ; ffffffedH
  00204	eb 16		 jmp	 SHORT $LN1@LoadFloat_@11
$LN93@LoadFloat_@11:
  00206	c6 45 e3 ea	 mov	 BYTE PTR __k$[ebp+3], -22 ; ffffffeaH
  0020a	eb 10		 jmp	 SHORT $LN1@LoadFloat_@11
$LN94@LoadFloat_@11:
  0020c	c6 45 e2 eb	 mov	 BYTE PTR __k$[ebp+2], -21 ; ffffffebH
  00210	eb 0a		 jmp	 SHORT $LN1@LoadFloat_@11
$LN95@LoadFloat_@11:
  00212	c6 45 e1 ec	 mov	 BYTE PTR __k$[ebp+1], -20 ; ffffffecH
  00216	eb 04		 jmp	 SHORT $LN1@LoadFloat_@11
$LN96@LoadFloat_@11:
  00218	c6 45 e0 ed	 mov	 BYTE PTR __k$[ebp], -19	; ffffffedH
$LN1@LoadFloat_@11:
  0021c	6a 05		 push	 5
  0021e	8d 45 e0	 lea	 eax, DWORD PTR __k$[ebp]
  00221	c6 45 f4 00	 mov	 BYTE PTR __k$[ebp+20], 0
  00225	5a		 pop	 edx
$LL104@LoadFloat_@11:
  00226	81 30 ed ec eb
	ea		 xor	 DWORD PTR [eax], -353637139 ; eaebecedH
  0022c	83 c0 04	 add	 eax, 4
  0022f	4a		 dec	 edx
  00230	75 f4		 jne	 SHORT $LL104@LoadFloat_@11

; 137  : 		return LoadFloat(_k, f);

  00232	f3 0f 10 45 0c	 movss	 xmm0, DWORD PTR _f$[ebp]
  00237	51		 push	 ecx
  00238	8d 45 e0	 lea	 eax, DWORD PTR __k$[ebp]
  0023b	f3 0f 11 04 24	 movss	 DWORD PTR [esp], xmm0
  00240	50		 push	 eax
  00241	8b ce		 mov	 ecx, esi
  00243	ff 15 00 00 00
	00		 call	 DWORD PTR __imp_?LoadFloat@ioINILoader@@QAEMPBDM@Z

; 138  : 	}

  00249	8b 4d fc	 mov	 ecx, DWORD PTR __$ArrayPad$[ebp]
  0024c	5e		 pop	 esi
  0024d	33 cd		 xor	 ecx, ebp
  0024f	5b		 pop	 ebx
  00250	e8 00 00 00 00	 call	 @__security_check_cookie@4
  00255	c9		 leave
  00256	c2 08 00	 ret	 8
??$LoadFloat_e@$0BF@@ioINILoader@@QAEMAAY0BF@$$CBDM@Z ENDP ; ioINILoader::LoadFloat_e<21>
_TEXT	ENDS
PUBLIC	__$ArrayPad$
PUBLIC	??$LoadBool_e@$0BC@@ioINILoader@@QAE_NAAY0BC@$$CBD_N@Z ; ioINILoader::LoadBool_e<18>
EXTRN	__imp_?LoadBool@ioINILoader@@QAE_NPBD_N@Z:PROC
; Function compile flags: /Ogsp
;	COMDAT ??$LoadBool_e@$0BC@@ioINILoader@@QAE_NAAY0BC@$$CBD_N@Z
_TEXT	SEGMENT
__k$ = -28						; size = 18
__$ArrayPad$ = -4					; size = 4
_k$ = 8							; size = 4
_b$ = 12						; size = 1
??$LoadBool_e@$0BC@@ioINILoader@@QAE_NAAY0BC@$$CBD_N@Z PROC ; ioINILoader::LoadBool_e<18>, COMDAT
; _this$ = ecx

; 101  : 	{

  00000	55		 push	 ebp
  00001	8b ec		 mov	 ebp, esp
  00003	83 ec 1c	 sub	 esp, 28			; 0000001cH
  00006	a1 00 00 00 00	 mov	 eax, DWORD PTR ___security_cookie
  0000b	33 c5		 xor	 eax, ebp
  0000d	89 45 fc	 mov	 DWORD PTR __$ArrayPad$[ebp], eax
  00010	8b 45 08	 mov	 eax, DWORD PTR _k$[ebp]

; 102  : 		_ENCSTR(k, _k);

  00013	8a 10		 mov	 dl, BYTE PTR [eax]
  00015	56		 push	 esi
  00016	8b f1		 mov	 esi, ecx
  00018	84 d2		 test	 dl, dl
  0001a	0f 84 be 01 00
	00		 je	 $LN96@LoadBool_e
  00020	80 f2 ed	 xor	 dl, -19			; ffffffedH
  00023	88 55 e4	 mov	 BYTE PTR __k$[ebp], dl
  00026	8a 50 01	 mov	 dl, BYTE PTR [eax+1]
  00029	84 d2		 test	 dl, dl
  0002b	0f 84 a7 01 00
	00		 je	 $LN95@LoadBool_e
  00031	80 f2 ec	 xor	 dl, -20			; ffffffecH
  00034	88 55 e5	 mov	 BYTE PTR __k$[ebp+1], dl
  00037	8a 50 02	 mov	 dl, BYTE PTR [eax+2]
  0003a	84 d2		 test	 dl, dl
  0003c	0f 84 90 01 00
	00		 je	 $LN94@LoadBool_e
  00042	b1 eb		 mov	 cl, -21			; ffffffebH
  00044	32 d1		 xor	 dl, cl
  00046	88 55 e6	 mov	 BYTE PTR __k$[ebp+2], dl
  00049	8a 50 03	 mov	 dl, BYTE PTR [eax+3]
  0004c	84 d2		 test	 dl, dl
  0004e	0f 84 78 01 00
	00		 je	 $LN93@LoadBool_e
  00054	80 f2 ea	 xor	 dl, -22			; ffffffeaH
  00057	88 55 e7	 mov	 BYTE PTR __k$[ebp+3], dl
  0005a	8a 50 04	 mov	 dl, BYTE PTR [eax+4]
  0005d	84 d2		 test	 dl, dl
  0005f	0f 84 61 01 00
	00		 je	 $LN92@LoadBool_e
  00065	80 f2 ed	 xor	 dl, -19			; ffffffedH
  00068	88 55 e8	 mov	 BYTE PTR __k$[ebp+4], dl
  0006b	8a 50 05	 mov	 dl, BYTE PTR [eax+5]
  0006e	84 d2		 test	 dl, dl
  00070	0f 84 4a 01 00
	00		 je	 $LN91@LoadBool_e
  00076	80 f2 ec	 xor	 dl, -20			; ffffffecH
  00079	88 55 e9	 mov	 BYTE PTR __k$[ebp+5], dl
  0007c	8a 50 06	 mov	 dl, BYTE PTR [eax+6]
  0007f	84 d2		 test	 dl, dl
  00081	0f 84 34 01 00
	00		 je	 $LN90@LoadBool_e
  00087	32 d1		 xor	 dl, cl
  00089	88 55 ea	 mov	 BYTE PTR __k$[ebp+6], dl
  0008c	8a 50 07	 mov	 dl, BYTE PTR [eax+7]
  0008f	84 d2		 test	 dl, dl
  00091	0f 84 1e 01 00
	00		 je	 $LN89@LoadBool_e
  00097	80 f2 ea	 xor	 dl, -22			; ffffffeaH
  0009a	88 55 eb	 mov	 BYTE PTR __k$[ebp+7], dl
  0009d	8a 50 08	 mov	 dl, BYTE PTR [eax+8]
  000a0	84 d2		 test	 dl, dl
  000a2	0f 84 07 01 00
	00		 je	 $LN88@LoadBool_e
  000a8	80 f2 ed	 xor	 dl, -19			; ffffffedH
  000ab	88 55 ec	 mov	 BYTE PTR __k$[ebp+8], dl
  000ae	8a 50 09	 mov	 dl, BYTE PTR [eax+9]
  000b1	84 d2		 test	 dl, dl
  000b3	0f 84 f0 00 00
	00		 je	 $LN87@LoadBool_e
  000b9	80 f2 ec	 xor	 dl, -20			; ffffffecH
  000bc	88 55 ed	 mov	 BYTE PTR __k$[ebp+9], dl
  000bf	8a 50 0a	 mov	 dl, BYTE PTR [eax+10]
  000c2	84 d2		 test	 dl, dl
  000c4	0f 84 da 00 00
	00		 je	 $LN86@LoadBool_e
  000ca	32 d1		 xor	 dl, cl
  000cc	88 55 ee	 mov	 BYTE PTR __k$[ebp+10], dl
  000cf	8a 50 0b	 mov	 dl, BYTE PTR [eax+11]
  000d2	84 d2		 test	 dl, dl
  000d4	0f 84 c4 00 00
	00		 je	 $LN85@LoadBool_e
  000da	80 f2 ea	 xor	 dl, -22			; ffffffeaH
  000dd	88 55 ef	 mov	 BYTE PTR __k$[ebp+11], dl
  000e0	8a 50 0c	 mov	 dl, BYTE PTR [eax+12]
  000e3	84 d2		 test	 dl, dl
  000e5	0f 84 ad 00 00
	00		 je	 $LN84@LoadBool_e
  000eb	80 f2 ed	 xor	 dl, -19			; ffffffedH
  000ee	88 55 f0	 mov	 BYTE PTR __k$[ebp+12], dl
  000f1	8a 50 0d	 mov	 dl, BYTE PTR [eax+13]
  000f4	84 d2		 test	 dl, dl
  000f6	0f 84 96 00 00
	00		 je	 $LN83@LoadBool_e
  000fc	80 f2 ec	 xor	 dl, -20			; ffffffecH
  000ff	88 55 f1	 mov	 BYTE PTR __k$[ebp+13], dl
  00102	8a 50 0e	 mov	 dl, BYTE PTR [eax+14]
  00105	84 d2		 test	 dl, dl
  00107	0f 84 80 00 00
	00		 je	 $LN82@LoadBool_e
  0010d	32 d1		 xor	 dl, cl
  0010f	88 55 f2	 mov	 BYTE PTR __k$[ebp+14], dl
  00112	8a 50 0f	 mov	 dl, BYTE PTR [eax+15]
  00115	84 d2		 test	 dl, dl
  00117	74 6e		 je	 SHORT $LN81@LoadBool_e
  00119	80 f2 ea	 xor	 dl, -22			; ffffffeaH
  0011c	88 55 f3	 mov	 BYTE PTR __k$[ebp+15], dl
  0011f	8a 50 10	 mov	 dl, BYTE PTR [eax+16]
  00122	84 d2		 test	 dl, dl
  00124	74 5b		 je	 SHORT $LN80@LoadBool_e
  00126	80 f2 ed	 xor	 dl, -19			; ffffffedH
  00129	80 78 11 00	 cmp	 BYTE PTR [eax+17], 0
  0012d	88 55 f4	 mov	 BYTE PTR __k$[ebp+16], dl
  00130	0f 84 ac 00 00
	00		 je	 $LN1@LoadBool_e
  00136	8a 50 12	 mov	 dl, BYTE PTR [eax+18]
  00139	84 d2		 test	 dl, dl
  0013b	74 3f		 je	 SHORT $LN78@LoadBool_e
  0013d	32 d1		 xor	 dl, cl
  0013f	88 55 f6	 mov	 BYTE PTR __k$[ebp+18], dl
  00142	8a 50 13	 mov	 dl, BYTE PTR [eax+19]
  00145	84 d2		 test	 dl, dl
  00147	74 2d		 je	 SHORT $LN77@LoadBool_e
  00149	80 f2 ea	 xor	 dl, -22			; ffffffeaH
  0014c	88 55 f7	 mov	 BYTE PTR __k$[ebp+19], dl
  0014f	8a 50 14	 mov	 dl, BYTE PTR [eax+20]
  00152	84 d2		 test	 dl, dl
  00154	74 1a		 je	 SHORT $LN76@LoadBool_e
  00156	8a 40 15	 mov	 al, BYTE PTR [eax+21]
  00159	80 f2 ed	 xor	 dl, -19			; ffffffedH
  0015c	88 55 f8	 mov	 BYTE PTR __k$[ebp+20], dl
  0015f	84 c0		 test	 al, al
  00161	74 07		 je	 SHORT $LN75@LoadBool_e
  00163	34 ec		 xor	 al, -20			; ffffffecH
  00165	88 45 f9	 mov	 BYTE PTR __k$[ebp+21], al
  00168	eb 78		 jmp	 SHORT $LN1@LoadBool_e
$LN75@LoadBool_e:
  0016a	c6 45 f9 ec	 mov	 BYTE PTR __k$[ebp+21], -20 ; ffffffecH
  0016e	eb 72		 jmp	 SHORT $LN1@LoadBool_e
$LN76@LoadBool_e:
  00170	c6 45 f8 ed	 mov	 BYTE PTR __k$[ebp+20], -19 ; ffffffedH
  00174	eb 6c		 jmp	 SHORT $LN1@LoadBool_e
$LN77@LoadBool_e:
  00176	c6 45 f7 ea	 mov	 BYTE PTR __k$[ebp+19], -22 ; ffffffeaH
  0017a	eb 66		 jmp	 SHORT $LN1@LoadBool_e
$LN78@LoadBool_e:
  0017c	88 4d f6	 mov	 BYTE PTR __k$[ebp+18], cl
  0017f	eb 61		 jmp	 SHORT $LN1@LoadBool_e
$LN80@LoadBool_e:
  00181	c6 45 f4 ed	 mov	 BYTE PTR __k$[ebp+16], -19 ; ffffffedH
  00185	eb 5b		 jmp	 SHORT $LN1@LoadBool_e
$LN81@LoadBool_e:
  00187	c6 45 f3 ea	 mov	 BYTE PTR __k$[ebp+15], -22 ; ffffffeaH
  0018b	eb 55		 jmp	 SHORT $LN1@LoadBool_e
$LN82@LoadBool_e:
  0018d	88 4d f2	 mov	 BYTE PTR __k$[ebp+14], cl
  00190	eb 50		 jmp	 SHORT $LN1@LoadBool_e
$LN83@LoadBool_e:
  00192	c6 45 f1 ec	 mov	 BYTE PTR __k$[ebp+13], -20 ; ffffffecH
  00196	eb 4a		 jmp	 SHORT $LN1@LoadBool_e
$LN84@LoadBool_e:
  00198	c6 45 f0 ed	 mov	 BYTE PTR __k$[ebp+12], -19 ; ffffffedH
  0019c	eb 44		 jmp	 SHORT $LN1@LoadBool_e
$LN85@LoadBool_e:
  0019e	c6 45 ef ea	 mov	 BYTE PTR __k$[ebp+11], -22 ; ffffffeaH
  001a2	eb 3e		 jmp	 SHORT $LN1@LoadBool_e
$LN86@LoadBool_e:
  001a4	88 4d ee	 mov	 BYTE PTR __k$[ebp+10], cl
  001a7	eb 39		 jmp	 SHORT $LN1@LoadBool_e
$LN87@LoadBool_e:
  001a9	c6 45 ed ec	 mov	 BYTE PTR __k$[ebp+9], -20 ; ffffffecH
  001ad	eb 33		 jmp	 SHORT $LN1@LoadBool_e
$LN88@LoadBool_e:
  001af	c6 45 ec ed	 mov	 BYTE PTR __k$[ebp+8], -19 ; ffffffedH
  001b3	eb 2d		 jmp	 SHORT $LN1@LoadBool_e
$LN89@LoadBool_e:
  001b5	c6 45 eb ea	 mov	 BYTE PTR __k$[ebp+7], -22 ; ffffffeaH
  001b9	eb 27		 jmp	 SHORT $LN1@LoadBool_e
$LN90@LoadBool_e:
  001bb	88 4d ea	 mov	 BYTE PTR __k$[ebp+6], cl
  001be	eb 22		 jmp	 SHORT $LN1@LoadBool_e
$LN91@LoadBool_e:
  001c0	c6 45 e9 ec	 mov	 BYTE PTR __k$[ebp+5], -20 ; ffffffecH
  001c4	eb 1c		 jmp	 SHORT $LN1@LoadBool_e
$LN92@LoadBool_e:
  001c6	c6 45 e8 ed	 mov	 BYTE PTR __k$[ebp+4], -19 ; ffffffedH
  001ca	eb 16		 jmp	 SHORT $LN1@LoadBool_e
$LN93@LoadBool_e:
  001cc	c6 45 e7 ea	 mov	 BYTE PTR __k$[ebp+3], -22 ; ffffffeaH
  001d0	eb 10		 jmp	 SHORT $LN1@LoadBool_e
$LN94@LoadBool_e:
  001d2	c6 45 e6 eb	 mov	 BYTE PTR __k$[ebp+2], -21 ; ffffffebH
  001d6	eb 0a		 jmp	 SHORT $LN1@LoadBool_e
$LN95@LoadBool_e:
  001d8	c6 45 e5 ec	 mov	 BYTE PTR __k$[ebp+1], -20 ; ffffffecH
  001dc	eb 04		 jmp	 SHORT $LN1@LoadBool_e
$LN96@LoadBool_e:
  001de	c6 45 e4 ed	 mov	 BYTE PTR __k$[ebp], -19	; ffffffedH
$LN1@LoadBool_e:
  001e2	6a 04		 push	 4
  001e4	8d 45 e4	 lea	 eax, DWORD PTR __k$[ebp]
  001e7	c6 45 f5 00	 mov	 BYTE PTR __k$[ebp+17], 0
  001eb	5a		 pop	 edx
$LL104@LoadBool_e:
  001ec	81 30 ed ec eb
	ea		 xor	 DWORD PTR [eax], -353637139 ; eaebecedH
  001f2	83 c0 04	 add	 eax, 4
  001f5	4a		 dec	 edx
  001f6	75 f4		 jne	 SHORT $LL104@LoadBool_e

; 103  : 		return LoadBool(_k, b);

  001f8	ff 75 0c	 push	 DWORD PTR _b$[ebp]
  001fb	80 75 f4 ed	 xor	 BYTE PTR __k$[ebp+16], -19 ; ffffffedH
  001ff	8d 45 e4	 lea	 eax, DWORD PTR __k$[ebp]
  00202	50		 push	 eax
  00203	8b ce		 mov	 ecx, esi
  00205	ff 15 00 00 00
	00		 call	 DWORD PTR __imp_?LoadBool@ioINILoader@@QAE_NPBD_N@Z

; 104  : 	}

  0020b	8b 4d fc	 mov	 ecx, DWORD PTR __$ArrayPad$[ebp]
  0020e	33 cd		 xor	 ecx, ebp
  00210	5e		 pop	 esi
  00211	e8 00 00 00 00	 call	 @__security_check_cookie@4
  00216	c9		 leave
  00217	c2 08 00	 ret	 8
??$LoadBool_e@$0BC@@ioINILoader@@QAE_NAAY0BC@$$CBD_N@Z ENDP ; ioINILoader::LoadBool_e<18>
_TEXT	ENDS
PUBLIC	??0?$CEncrypt@_N@@QAE@XZ			; CEncrypt<bool>::CEncrypt<bool>
EXTRN	??0ccddaabb@@QAE@XZ:PROC			; ccddaabb::ccddaabb
;	COMDAT xdata$x
; File d:\lost saga for developer\youtube\tutorial\source\src\lsclient\encryptvalue.h
xdata$x	SEGMENT
__unwindtable$??0?$CEncrypt@_N@@QAE@XZ DD 0ffffffffH
	DD	FLAT:__unwindfunclet$??0?$CEncrypt@_N@@QAE@XZ$0
__ehfuncinfo$??0?$CEncrypt@_N@@QAE@XZ DD 019930522H
	DD	01H
	DD	FLAT:__unwindtable$??0?$CEncrypt@_N@@QAE@XZ
	DD	2 DUP(00H)
	DD	2 DUP(00H)
	DD	00H
	DD	01H
; Function compile flags: /Ogsp
xdata$x	ENDS
;	COMDAT ??0?$CEncrypt@_N@@QAE@XZ
_TEXT	SEGMENT
_this$ = -16						; size = 4
__$EHRec$ = -12						; size = 12
??0?$CEncrypt@_N@@QAE@XZ PROC				; CEncrypt<bool>::CEncrypt<bool>, COMDAT
; _this$ = ecx

; 109  : 	CEncrypt()

  00000	6a 04		 push	 4
  00002	b8 00 00 00 00	 mov	 eax, __ehhandler$??0?$CEncrypt@_N@@QAE@XZ
  00007	e8 00 00 00 00	 call	 __EH_prolog3
  0000c	8b f1		 mov	 esi, ecx
  0000e	89 75 f0	 mov	 DWORD PTR _this$[ebp], esi
  00011	8d 4e 0c	 lea	 ecx, DWORD PTR [esi+12]
  00014	c7 06 00 00 00
	00		 mov	 DWORD PTR [esi], OFFSET ??_7?$CEncrypt@_N@@6B@
  0001a	e8 00 00 00 00	 call	 ??0ccddaabb@@QAE@XZ	; ccddaabb::ccddaabb
  0001f	83 65 fc 00	 and	 DWORD PTR __$EHRec$[ebp+8], 0

; 110  : 	{
; 111  : 		Init();

  00023	8b ce		 mov	 ecx, esi
  00025	e8 00 00 00 00	 call	 ?Init@?$CEncrypt@_N@@AAEXXZ ; CEncrypt<bool>::Init

; 112  : 	}

  0002a	8b c6		 mov	 eax, esi
  0002c	e8 00 00 00 00	 call	 __EH_epilog3
  00031	c3		 ret	 0
_TEXT	ENDS
;	COMDAT text$x
text$x	SEGMENT
__unwindfunclet$??0?$CEncrypt@_N@@QAE@XZ$0:
  00000	8b 4d f0	 mov	 ecx, DWORD PTR _this$[ebp]
  00003	83 c1 0c	 add	 ecx, 12			; 0000000cH
  00006	e9 00 00 00 00	 jmp	 ??1ccddaabb@@UAE@XZ	; ccddaabb::~ccddaabb
__ehhandler$??0?$CEncrypt@_N@@QAE@XZ:
  0000b	8b 54 24 08	 mov	 edx, DWORD PTR [esp+8]
  0000f	8d 42 0c	 lea	 eax, DWORD PTR [edx+12]
  00012	8b 4a ec	 mov	 ecx, DWORD PTR [edx-20]
  00015	33 c8		 xor	 ecx, eax
  00017	e8 00 00 00 00	 call	 @__security_check_cookie@4
  0001c	b8 00 00 00 00	 mov	 eax, OFFSET __ehfuncinfo$??0?$CEncrypt@_N@@QAE@XZ
  00021	e9 00 00 00 00	 jmp	 ___CxxFrameHandler3
text$x	ENDS
??0?$CEncrypt@_N@@QAE@XZ ENDP				; CEncrypt<bool>::CEncrypt<bool>
PUBLIC	??B?$CEncrypt@_N@@QBE_NXZ			; CEncrypt<bool>::operator bool
; Function compile flags: /Ogsp
;	COMDAT ??B?$CEncrypt@_N@@QBE_NXZ
_TEXT	SEGMENT
_value$ = -1						; size = 1
??B?$CEncrypt@_N@@QBE_NXZ PROC				; CEncrypt<bool>::operator bool, COMDAT
; _this$ = ecx

; 145  : 	{

  00000	55		 push	 ebp
  00001	8b ec		 mov	 ebp, esp
  00003	51		 push	 ecx

; 146  : 		//UJ 130829, const도 똑같이 하면 된다 --start
; 147  : 		type value;
; 148  : 		CEncrypt<type>* pThis = const_cast<CEncrypt<type>*>(this);
; 149  : 		pThis->DecryptValueToPool(&value);

  00004	8d 45 ff	 lea	 eax, DWORD PTR _value$[ebp]
  00007	50		 push	 eax
  00008	e8 00 00 00 00	 call	 ?DecryptValueToPool@?$CEncrypt@_N@@QAEXPA_N@Z ; CEncrypt<bool>::DecryptValueToPool

; 150  : 		//// const에서 DecryptValueToPool 사용할 수 없으므로 아래와 같이함.
; 151  :  		//type value;
; 152  : 		//char szTempMem[MAX_ENCRYPT];
; 153  : 		//m_RC5.DecryptByte( m_MemPool, szTempMem, max(m_ValueSize, DEFAULT_ENCRYPT) );
; 154  : 		//memcpy( &value, szTempMem, m_ValueSize );
; 155  : 		//UJ --end
; 156  : 
; 157  : #ifdef _NOTUSE
; 158  : 		Debug();
; 159  : #endif
; 160  : 		return value;

  0000d	8a 45 ff	 mov	 al, BYTE PTR _value$[ebp]

; 161  : 	}

  00010	c9		 leave
  00011	c3		 ret	 0
??B?$CEncrypt@_N@@QBE_NXZ ENDP				; CEncrypt<bool>::operator bool
_TEXT	ENDS
PUBLIC	??4?$CEncrypt@_N@@QAE_N_N@Z			; CEncrypt<bool>::operator=
; Function compile flags: /Ogsp
;	COMDAT ??4?$CEncrypt@_N@@QAE_N_N@Z
_TEXT	SEGMENT
_inValue$ = 8						; size = 1
_value$ = 11						; size = 1
??4?$CEncrypt@_N@@QAE_N_N@Z PROC			; CEncrypt<bool>::operator=, COMDAT
; _this$ = ecx

; 225  : 	{

  00000	55		 push	 ebp
  00001	8b ec		 mov	 ebp, esp

; 226  : 		type value = inValue;

  00003	8a 45 08	 mov	 al, BYTE PTR _inValue$[ebp]
  00006	88 45 0b	 mov	 BYTE PTR _value$[ebp], al

; 227  : 		EncryptValueToPool((char*)&value);

  00009	8d 45 0b	 lea	 eax, DWORD PTR _value$[ebp]
  0000c	50		 push	 eax
  0000d	e8 00 00 00 00	 call	 ?EncryptValueToPool@?$CEncrypt@_N@@AAEXPBD@Z ; CEncrypt<bool>::EncryptValueToPool

; 228  : #ifdef _NOTUSE
; 229  : 		m_value = inValue;
; 230  : 		Debug();
; 231  : #endif
; 232  : 		return value;

  00012	8a 45 0b	 mov	 al, BYTE PTR _value$[ebp]

; 233  : 	}

  00015	5d		 pop	 ebp
  00016	c2 04 00	 ret	 4
??4?$CEncrypt@_N@@QAE_N_N@Z ENDP			; CEncrypt<bool>::operator=
_TEXT	ENDS
PUBLIC	?GetBlowWoundedState@ioBaseChar@@QBE?AW4BlowWoundedState@@XZ ; ioBaseChar::GetBlowWoundedState
; Function compile flags: /Ogsp
; File d:\lost saga for developer\youtube\tutorial\source\src\lsclient\iobasechar.h
;	COMDAT ?GetBlowWoundedState@ioBaseChar@@QBE?AW4BlowWoundedState@@XZ
_TEXT	SEGMENT
_value$526725 = -4					; size = 4
?GetBlowWoundedState@ioBaseChar@@QBE?AW4BlowWoundedState@@XZ PROC ; ioBaseChar::GetBlowWoundedState, COMDAT
; _this$ = ecx

; 2161 : 	inline BlowWoundedState GetBlowWoundedState() const { return m_BlowState; }

  00000	55		 push	 ebp
  00001	8b ec		 mov	 ebp, esp
  00003	51		 push	 ecx
  00004	8d 45 fc	 lea	 eax, DWORD PTR _value$526725[ebp]
  00007	50		 push	 eax
  00008	81 c1 58 0f 00
	00		 add	 ecx, 3928		; 00000f58H
  0000e	e8 00 00 00 00	 call	 ?DecryptValueToPool@?$CEncrypt@W4BlowWoundedState@@@@QAEXPAW4BlowWoundedState@@@Z ; CEncrypt<enum BlowWoundedState>::DecryptValueToPool
  00013	8b 45 fc	 mov	 eax, DWORD PTR _value$526725[ebp]
  00016	c9		 leave
  00017	c3		 ret	 0
?GetBlowWoundedState@ioBaseChar@@QBE?AW4BlowWoundedState@@XZ ENDP ; ioBaseChar::GetBlowWoundedState
_TEXT	ENDS
PUBLIC	??0ioAffectWoundedValueBuff@@QAE@XZ		; ioAffectWoundedValueBuff::ioAffectWoundedValueBuff
EXTRN	??0ioBuff@@QAE@XZ:PROC				; ioBuff::ioBuff
;	COMDAT xdata$x
; File d:\lost saga for developer\youtube\tutorial\source\src\lsclient\ioaffectwoundedvaluebuff.cpp
xdata$x	SEGMENT
__unwindtable$??0ioAffectWoundedValueBuff@@QAE@XZ DD 0ffffffffH
	DD	FLAT:__unwindfunclet$??0ioAffectWoundedValueBuff@@QAE@XZ$0
__ehfuncinfo$??0ioAffectWoundedValueBuff@@QAE@XZ DD 019930522H
	DD	01H
	DD	FLAT:__unwindtable$??0ioAffectWoundedValueBuff@@QAE@XZ
	DD	2 DUP(00H)
	DD	2 DUP(00H)
	DD	00H
	DD	01H
; Function compile flags: /Ogsp
xdata$x	ENDS
;	COMDAT ??0ioAffectWoundedValueBuff@@QAE@XZ
_TEXT	SEGMENT
_this$ = -16						; size = 4
__$EHRec$ = -12						; size = 12
??0ioAffectWoundedValueBuff@@QAE@XZ PROC		; ioAffectWoundedValueBuff::ioAffectWoundedValueBuff, COMDAT
; _this$ = ecx

; 10   : {

  00000	6a 04		 push	 4
  00002	b8 00 00 00 00	 mov	 eax, __ehhandler$??0ioAffectWoundedValueBuff@@QAE@XZ
  00007	e8 00 00 00 00	 call	 __EH_prolog3
  0000c	8b f1		 mov	 esi, ecx
  0000e	89 75 f0	 mov	 DWORD PTR _this$[ebp], esi
  00011	e8 00 00 00 00	 call	 ??0ioBuff@@QAE@XZ	; ioBuff::ioBuff
  00016	83 65 fc 00	 and	 DWORD PTR __$EHRec$[ebp+8], 0
  0001a	8d 8e 6c 09 00
	00		 lea	 ecx, DWORD PTR [esi+2412]
  00020	c7 06 00 00 00
	00		 mov	 DWORD PTR [esi], OFFSET ??_7ioAffectWoundedValueBuff@@6B@
  00026	e8 00 00 00 00	 call	 ??0AffectRate@ioAffectWoundedValueBuff@@QAE@XZ ; ioAffectWoundedValueBuff::AffectRate::AffectRate
  0002b	8d 8e 78 09 00
	00		 lea	 ecx, DWORD PTR [esi+2424]
  00031	e8 00 00 00 00	 call	 ??0AffectRate@ioAffectWoundedValueBuff@@QAE@XZ ; ioAffectWoundedValueBuff::AffectRate::AffectRate
  00036	8d 8e 84 09 00
	00		 lea	 ecx, DWORD PTR [esi+2436]
  0003c	e8 00 00 00 00	 call	 ??0AffectRate@ioAffectWoundedValueBuff@@QAE@XZ ; ioAffectWoundedValueBuff::AffectRate::AffectRate
  00041	8d 8e 90 09 00
	00		 lea	 ecx, DWORD PTR [esi+2448]
  00047	e8 00 00 00 00	 call	 ??0AffectRate@ioAffectWoundedValueBuff@@QAE@XZ ; ioAffectWoundedValueBuff::AffectRate::AffectRate
  0004c	8d 8e 9c 09 00
	00		 lea	 ecx, DWORD PTR [esi+2460]
  00052	e8 00 00 00 00	 call	 ??0AffectRate@ioAffectWoundedValueBuff@@QAE@XZ ; ioAffectWoundedValueBuff::AffectRate::AffectRate
  00057	8d 8e a8 09 00
	00		 lea	 ecx, DWORD PTR [esi+2472]
  0005d	e8 00 00 00 00	 call	 ??0AffectRate@ioAffectWoundedValueBuff@@QAE@XZ ; ioAffectWoundedValueBuff::AffectRate::AffectRate
  00062	8d 8e b4 09 00
	00		 lea	 ecx, DWORD PTR [esi+2484]
  00068	e8 00 00 00 00	 call	 ??0AffectRate@ioAffectWoundedValueBuff@@QAE@XZ ; ioAffectWoundedValueBuff::AffectRate::AffectRate
  0006d	8d 8e c0 09 00
	00		 lea	 ecx, DWORD PTR [esi+2496]
  00073	e8 00 00 00 00	 call	 ??0AffectRate@ioAffectWoundedValueBuff@@QAE@XZ ; ioAffectWoundedValueBuff::AffectRate::AffectRate
  00078	8d 8e cc 09 00
	00		 lea	 ecx, DWORD PTR [esi+2508]
  0007e	e8 00 00 00 00	 call	 ??0AffectRate@ioAffectWoundedValueBuff@@QAE@XZ ; ioAffectWoundedValueBuff::AffectRate::AffectRate
  00083	8d 8e d8 09 00
	00		 lea	 ecx, DWORD PTR [esi+2520]
  00089	e8 00 00 00 00	 call	 ??0AffectRate@ioAffectWoundedValueBuff@@QAE@XZ ; ioAffectWoundedValueBuff::AffectRate::AffectRate
  0008e	8d 8e e4 09 00
	00		 lea	 ecx, DWORD PTR [esi+2532]
  00094	e8 00 00 00 00	 call	 ??0AffectRate@ioAffectWoundedValueBuff@@QAE@XZ ; ioAffectWoundedValueBuff::AffectRate::AffectRate
  00099	8d 8e f0 09 00
	00		 lea	 ecx, DWORD PTR [esi+2544]
  0009f	e8 00 00 00 00	 call	 ??0AffectRate@ioAffectWoundedValueBuff@@QAE@XZ ; ioAffectWoundedValueBuff::AffectRate::AffectRate
  000a4	8d 8e fc 09 00
	00		 lea	 ecx, DWORD PTR [esi+2556]
  000aa	e8 00 00 00 00	 call	 ??0AffectRate@ioAffectWoundedValueBuff@@QAE@XZ ; ioAffectWoundedValueBuff::AffectRate::AffectRate
  000af	8d 8e 08 0a 00
	00		 lea	 ecx, DWORD PTR [esi+2568]
  000b5	e8 00 00 00 00	 call	 ??0AffectRate@ioAffectWoundedValueBuff@@QAE@XZ ; ioAffectWoundedValueBuff::AffectRate::AffectRate
  000ba	8d 8e 14 0a 00
	00		 lea	 ecx, DWORD PTR [esi+2580]
  000c0	e8 00 00 00 00	 call	 ??0AffectRate@ioAffectWoundedValueBuff@@QAE@XZ ; ioAffectWoundedValueBuff::AffectRate::AffectRate
  000c5	8d 8e 20 0a 00
	00		 lea	 ecx, DWORD PTR [esi+2592]
  000cb	e8 00 00 00 00	 call	 ??0AffectRate@ioAffectWoundedValueBuff@@QAE@XZ ; ioAffectWoundedValueBuff::AffectRate::AffectRate
  000d0	8d 8e 2c 0a 00
	00		 lea	 ecx, DWORD PTR [esi+2604]
  000d6	e8 00 00 00 00	 call	 ??0?$CEncrypt@_N@@QAE@XZ ; CEncrypt<bool>::CEncrypt<bool>

; 11   : 	m_iSeedCount = 0;

  000db	83 a6 5c 0a 00
	00 00		 and	 DWORD PTR [esi+2652], 0

; 12   : }

  000e2	8b c6		 mov	 eax, esi
  000e4	e8 00 00 00 00	 call	 __EH_epilog3
  000e9	c3		 ret	 0
_TEXT	ENDS
;	COMDAT text$x
text$x	SEGMENT
__unwindfunclet$??0ioAffectWoundedValueBuff@@QAE@XZ$0:
  00000	8b 4d f0	 mov	 ecx, DWORD PTR _this$[ebp]
  00003	e9 00 00 00 00	 jmp	 ??1ioBuff@@UAE@XZ	; ioBuff::~ioBuff
__ehhandler$??0ioAffectWoundedValueBuff@@QAE@XZ:
  00008	8b 54 24 08	 mov	 edx, DWORD PTR [esp+8]
  0000c	8d 42 0c	 lea	 eax, DWORD PTR [edx+12]
  0000f	8b 4a ec	 mov	 ecx, DWORD PTR [edx-20]
  00012	33 c8		 xor	 ecx, eax
  00014	e8 00 00 00 00	 call	 @__security_check_cookie@4
  00019	b8 00 00 00 00	 mov	 eax, OFFSET __ehfuncinfo$??0ioAffectWoundedValueBuff@@QAE@XZ
  0001e	e9 00 00 00 00	 jmp	 ___CxxFrameHandler3
text$x	ENDS
??0ioAffectWoundedValueBuff@@QAE@XZ ENDP		; ioAffectWoundedValueBuff::ioAffectWoundedValueBuff
; Function compile flags: /Ogsp
;	COMDAT ??_GioAffectWoundedValueBuff@@UAEPAXI@Z
_TEXT	SEGMENT
___flags$ = 8						; size = 4
??_GioAffectWoundedValueBuff@@UAEPAXI@Z PROC		; ioAffectWoundedValueBuff::`scalar deleting destructor', COMDAT
; _this$ = ecx
  00000	55		 push	 ebp
  00001	8b ec		 mov	 ebp, esp
  00003	56		 push	 esi
  00004	8b f1		 mov	 esi, ecx
  00006	e8 00 00 00 00	 call	 ??1ioAffectWoundedValueBuff@@UAE@XZ ; ioAffectWoundedValueBuff::~ioAffectWoundedValueBuff
  0000b	f6 45 08 01	 test	 BYTE PTR ___flags$[ebp], 1
  0000f	74 07		 je	 SHORT $LN1@scalar@2
  00011	56		 push	 esi
  00012	e8 00 00 00 00	 call	 ??3@YAXPAX@Z		; operator delete
  00017	59		 pop	 ecx
$LN1@scalar@2:
  00018	8b c6		 mov	 eax, esi
  0001a	5e		 pop	 esi
  0001b	5d		 pop	 ebp
  0001c	c2 04 00	 ret	 4
??_GioAffectWoundedValueBuff@@UAEPAXI@Z ENDP		; ioAffectWoundedValueBuff::`scalar deleting destructor'
_TEXT	ENDS
PUBLIC	__$ArrayPad$
EXTRN	?LoadProperty@ioBuff@@UAEXAAVioINILoader@@@Z:PROC ; ioBuff::LoadProperty
; Function compile flags: /Ogsp
;	COMDAT ?LoadProperty@ioAffectWoundedValueBuff@@UAEXAAVioINILoader@@@Z
_TEXT	SEGMENT
tv31707 = -904						; size = 4
tv31697 = -904						; size = 4
tv31689 = -904						; size = 4
tv31681 = -904						; size = 4
tv31671 = -904						; size = 4
tv31661 = -904						; size = 4
tv31651 = -904						; size = 4
tv31641 = -904						; size = 4
tv31631 = -904						; size = 4
tv31621 = -904						; size = 4
tv31613 = -904						; size = 4
tv31605 = -904						; size = 4
tv31597 = -904						; size = 4
tv31589 = -904						; size = 4
tv31579 = -904						; size = 4
tv31569 = -904						; size = 4
tv31559 = -904						; size = 4
tv31549 = -904						; size = 4
tv31541 = -904						; size = 4
tv31533 = -904						; size = 4
tv31523 = -904						; size = 4
tv31513 = -904						; size = 4
tv31505 = -904						; size = 4
tv31497 = -904						; size = 4
tv31487 = -904						; size = 4
tv31477 = -904						; size = 4
tv31467 = -904						; size = 4
tv31457 = -904						; size = 4
tv31447 = -904						; size = 4
tv31437 = -904						; size = 4
tv31429 = -904						; size = 4
tv31421 = -904						; size = 4
_i$530504 = -904					; size = 4
_i$530444 = -904					; size = 4
_i$530343 = -904					; size = 4
_i$530214 = -904					; size = 4
_i$529992 = -904					; size = 4
_i$529864 = -904					; size = 4
_i$529472 = -904					; size = 4
_i$529440 = -904					; size = 4
_i$528960 = -904					; size = 4
_i$528832 = -904					; size = 4
_i$528698 = -904					; size = 4
_i$528569 = -904					; size = 4
_i$528021 = -904					; size = 4
_i$527887 = -904					; size = 4
_i$527666 = -904					; size = 4
_i$527537 = -904					; size = 4
_i$527408 = -904					; size = 4
_i$527376 = -904					; size = 4
_i$526891 = -904					; size = 4
_i$526763 = -904					; size = 4
__k$528708 = -900					; size = 27
__k$528579 = -868					; size = 27
__k$529740 = -836					; size = 26
__k$528308 = -804					; size = 26
__k$528450 = -772					; size = 26
__k$529611 = -740					; size = 26
__k$528179 = -708					; size = 25
__k$528050 = -676					; size = 25
__k$527792 = -644					; size = 24
__k$530243 = -616					; size = 24
__k$530114 = -588					; size = 24
__k$527921 = -560					; size = 24
__k$528971 = -532					; size = 23
__k$528842 = -504					; size = 23
__k$529874 = -476					; size = 23
__k$530003 = -448					; size = 23
__k$529082 = -420					; size = 22
__k$529211 = -392					; size = 22
__k$530643 = -364					; size = 21
__k$530761 = -336					; size = 21
__k$530372 = -308					; size = 20
__k$526773 = -284					; size = 20
__k$526902 = -260					; size = 20
__k$530514 = -236					; size = 20
__k$527547 = -212					; size = 20
__k$527676 = -188					; size = 20
__k$527418 = -164					; size = 19
__k$527276 = -140					; size = 19
__k$527118 = -116					; size = 18
__k$527247 = -92					; size = 18
__k$530897 = -68					; size = 18
__k$529482 = -44					; size = 16
__k$529340 = -24					; size = 16
__$ArrayPad$ = -4					; size = 4
_rkLoader$ = 8						; size = 4
?LoadProperty@ioAffectWoundedValueBuff@@UAEXAAVioINILoader@@@Z PROC ; ioAffectWoundedValueBuff::LoadProperty, COMDAT
; _this$ = ecx

; 42   : {

  00000	55		 push	 ebp
  00001	8b ec		 mov	 ebp, esp
  00003	81 ec 88 03 00
	00		 sub	 esp, 904		; 00000388H
  00009	a1 00 00 00 00	 mov	 eax, DWORD PTR ___security_cookie
  0000e	33 c5		 xor	 eax, ebp
  00010	89 45 fc	 mov	 DWORD PTR __$ArrayPad$[ebp], eax
  00013	53		 push	 ebx
  00014	56		 push	 esi
  00015	57		 push	 edi
  00016	8b 7d 08	 mov	 edi, DWORD PTR _rkLoader$[ebp]

; 43   : 	ioBuff::LoadProperty( rkLoader );

  00019	57		 push	 edi
  0001a	8b f1		 mov	 esi, ecx
  0001c	e8 00 00 00 00	 call	 ?LoadProperty@ioBuff@@UAEXAAVioINILoader@@@Z ; ioBuff::LoadProperty

; 44   : 
; 45   : 	// push
; 46   : 	m_PushPower.m_fMinRate		= rkLoader.LoadFloat_e( "push_power_min_rate", FLOAT1 );

  00021	b8 01 00 00 00	 mov	 eax, 1
  00026	6a 04		 push	 4
  00028	c7 85 e4 fe ff
	ff 9d 99 98 82	 mov	 DWORD PTR __k$526773[ebp], -2103928419 ; 8298999dH
  00032	c7 85 e8 fe ff
	ff b2 9c 84 9d	 mov	 DWORD PTR __k$526773[ebp+4], -1652253518 ; 9d849cb2H
  0003c	c7 85 ec fe ff
	ff 88 9e b4 87	 mov	 DWORD PTR __k$526773[ebp+8], -2018206072 ; 87b49e88H
  00046	c7 85 f0 fe ff
	ff 84 82 b4 98	 mov	 DWORD PTR __k$526773[ebp+12], -1733000572 ; 98b48284H
  00050	8d 8d e4 fe ff
	ff		 lea	 ecx, DWORD PTR __k$526773[ebp]
  00056	33 db		 xor	 ebx, ebx
  00058	c7 85 f4 fe ff
	ff 8c 98 8e 00	 mov	 DWORD PTR __k$526773[ebp+16], 9345164 ; 008e988cH
  00062	5a		 pop	 edx
$LL108@LoadProper:
  00063	81 31 ed ec eb
	ea		 xor	 DWORD PTR [ecx], -353637139 ; eaebecedH
  00069	83 c1 04	 add	 ecx, 4
  0006c	4a		 dec	 edx
  0006d	75 f4		 jne	 SHORT $LL108@LoadProper
  0006f	c7 85 78 fc ff
	ff 10 00 00 00	 mov	 DWORD PTR _i$526763[ebp], 16 ; 00000010H
$LL105@LoadProper:
  00079	8b 8d 78 fc ff
	ff		 mov	 ecx, DWORD PTR _i$526763[ebp]
  0007f	81 e1 03 00 00
	80		 and	 ecx, -2147483645	; 80000003H
  00085	79 05		 jns	 SHORT $LN3697@LoadProper
  00087	49		 dec	 ecx
  00088	83 c9 fc	 or	 ecx, -4			; fffffffcH
  0008b	41		 inc	 ecx
$LN3697@LoadProper:
  0008c	b2 ed		 mov	 dl, -19			; ffffffedH
  0008e	2a d1		 sub	 dl, cl
  00090	8b 8d 78 fc ff
	ff		 mov	 ecx, DWORD PTR _i$526763[ebp]
  00096	30 94 0d e4 fe
	ff ff		 xor	 BYTE PTR __k$526773[ebp+ecx], dl
  0009d	ff 85 78 fc ff
	ff		 inc	 DWORD PTR _i$526763[ebp]
  000a3	83 bd 78 fc ff
	ff 13		 cmp	 DWORD PTR _i$526763[ebp], 19 ; 00000013H
  000aa	7c cd		 jl	 SHORT $LL105@LoadProper
  000ac	89 85 78 fc ff
	ff		 mov	 DWORD PTR tv31707[ebp], eax
  000b2	db 85 78 fc ff
	ff		 fild	 DWORD PTR tv31707[ebp]
  000b8	85 c0		 test	 eax, eax
  000ba	79 06		 jns	 SHORT $LN3698@LoadProper
  000bc	d8 05 00 00 00
	00		 fadd	 DWORD PTR __real@4f800000
$LN3698@LoadProper:
  000c2	51		 push	 ecx
  000c3	8d 85 e4 fe ff
	ff		 lea	 eax, DWORD PTR __k$526773[ebp]
  000c9	d9 1c 24	 fstp	 DWORD PTR [esp]
  000cc	50		 push	 eax
  000cd	8b cf		 mov	 ecx, edi
  000cf	ff 15 00 00 00
	00		 call	 DWORD PTR __imp_?LoadFloat@ioINILoader@@QAEMPBDM@Z
  000d5	d9 9e 6c 09 00
	00		 fstp	 DWORD PTR [esi+2412]

; 47   : 	m_PushPower.m_fMaxRate		= rkLoader.LoadFloat_e( "push_power_max_rate", FLOAT1 );

  000db	b8 01 00 00 00	 mov	 eax, 1
  000e0	6a 04		 push	 4
  000e2	c7 85 fc fe ff
	ff 9d 99 98 82	 mov	 DWORD PTR __k$526902[ebp], -2103928419 ; 8298999dH
  000ec	c7 85 00 ff ff
	ff b2 9c 84 9d	 mov	 DWORD PTR __k$526902[ebp+4], -1652253518 ; 9d849cb2H
  000f6	c7 85 04 ff ff
	ff 88 9e b4 87	 mov	 DWORD PTR __k$526902[ebp+8], -2018206072 ; 87b49e88H
  00100	c7 85 08 ff ff
	ff 8c 94 b4 98	 mov	 DWORD PTR __k$526902[ebp+12], -1732995956 ; 98b4948cH
  0010a	8d 8d fc fe ff
	ff		 lea	 ecx, DWORD PTR __k$526902[ebp]
  00110	c7 85 0c ff ff
	ff 8c 98 8e 00	 mov	 DWORD PTR __k$526902[ebp+16], 9345164 ; 008e988cH
  0011a	5a		 pop	 edx
$LL216@LoadProper:
  0011b	81 31 ed ec eb
	ea		 xor	 DWORD PTR [ecx], -353637139 ; eaebecedH
  00121	83 c1 04	 add	 ecx, 4
  00124	4a		 dec	 edx
  00125	75 f4		 jne	 SHORT $LL216@LoadProper
  00127	c7 85 78 fc ff
	ff 10 00 00 00	 mov	 DWORD PTR _i$526891[ebp], 16 ; 00000010H
$LL213@LoadProper:
  00131	8b 8d 78 fc ff
	ff		 mov	 ecx, DWORD PTR _i$526891[ebp]
  00137	81 e1 03 00 00
	80		 and	 ecx, -2147483645	; 80000003H
  0013d	79 05		 jns	 SHORT $LN3699@LoadProper
  0013f	49		 dec	 ecx
  00140	83 c9 fc	 or	 ecx, -4			; fffffffcH
  00143	41		 inc	 ecx
$LN3699@LoadProper:
  00144	b2 ed		 mov	 dl, -19			; ffffffedH
  00146	2a d1		 sub	 dl, cl
  00148	8b 8d 78 fc ff
	ff		 mov	 ecx, DWORD PTR _i$526891[ebp]
  0014e	30 94 0d fc fe
	ff ff		 xor	 BYTE PTR __k$526902[ebp+ecx], dl
  00155	ff 85 78 fc ff
	ff		 inc	 DWORD PTR _i$526891[ebp]
  0015b	83 bd 78 fc ff
	ff 13		 cmp	 DWORD PTR _i$526891[ebp], 19 ; 00000013H
  00162	7c cd		 jl	 SHORT $LL213@LoadProper
  00164	89 85 78 fc ff
	ff		 mov	 DWORD PTR tv31697[ebp], eax
  0016a	db 85 78 fc ff
	ff		 fild	 DWORD PTR tv31697[ebp]
  00170	85 c0		 test	 eax, eax
  00172	79 06		 jns	 SHORT $LN3700@LoadProper
  00174	d8 05 00 00 00
	00		 fadd	 DWORD PTR __real@4f800000
$LN3700@LoadProper:
  0017a	51		 push	 ecx
  0017b	8d 85 fc fe ff
	ff		 lea	 eax, DWORD PTR __k$526902[ebp]
  00181	d9 1c 24	 fstp	 DWORD PTR [esp]
  00184	50		 push	 eax
  00185	8b cf		 mov	 ecx, edi
  00187	ff 15 00 00 00
	00		 call	 DWORD PTR __imp_?LoadFloat@ioINILoader@@QAEMPBDM@Z
  0018d	d9 9e 70 09 00
	00		 fstp	 DWORD PTR [esi+2416]

; 48   : 	m_AirPushPower.m_fMinRate	= rkLoader.LoadFloat_e( "air_push_min_rate", FLOAT1 );

  00193	b8 01 00 00 00	 mov	 eax, 1
  00198	6a 04		 push	 4
  0019a	c7 45 8c 8c 85
	99 b5		 mov	 DWORD PTR __k$527118[ebp], -1248230004 ; b599858cH
  001a1	c7 45 90 9d 99
	98 82		 mov	 DWORD PTR __k$527118[ebp+4], -2103928419 ; 8298999dH
  001a8	c7 45 94 b2 81
	82 84		 mov	 DWORD PTR __k$527118[ebp+8], -2071821902 ; 848281b2H
  001af	c7 45 98 b2 9e
	8a 9e		 mov	 DWORD PTR __k$527118[ebp+12], -1635082574 ; 9e8a9eb2H
  001b6	8d 4d 8c	 lea	 ecx, DWORD PTR __k$527118[ebp]
  001b9	66 c7 45 9c 88
	00		 mov	 WORD PTR __k$527118[ebp+16], 136 ; 00000088H
  001bf	5a		 pop	 edx
$LL324@LoadProper:
  001c0	81 31 ed ec eb
	ea		 xor	 DWORD PTR [ecx], -353637139 ; eaebecedH
  001c6	83 c1 04	 add	 ecx, 4
  001c9	4a		 dec	 edx
  001ca	75 f4		 jne	 SHORT $LL324@LoadProper
  001cc	80 75 9c ed	 xor	 BYTE PTR __k$527118[ebp+16], -19 ; ffffffedH
  001d0	89 85 78 fc ff
	ff		 mov	 DWORD PTR tv31689[ebp], eax
  001d6	db 85 78 fc ff
	ff		 fild	 DWORD PTR tv31689[ebp]
  001dc	85 c0		 test	 eax, eax
  001de	79 06		 jns	 SHORT $LN3701@LoadProper
  001e0	d8 05 00 00 00
	00		 fadd	 DWORD PTR __real@4f800000
$LN3701@LoadProper:
  001e6	51		 push	 ecx
  001e7	8d 45 8c	 lea	 eax, DWORD PTR __k$527118[ebp]
  001ea	d9 1c 24	 fstp	 DWORD PTR [esp]
  001ed	50		 push	 eax
  001ee	8b cf		 mov	 ecx, edi
  001f0	ff 15 00 00 00
	00		 call	 DWORD PTR __imp_?LoadFloat@ioINILoader@@QAEMPBDM@Z
  001f6	d9 9e 78 09 00
	00		 fstp	 DWORD PTR [esi+2424]

; 49   : 	m_AirPushPower.m_fMaxRate	= rkLoader.LoadFloat_e( "air_push_max_rate", FLOAT1 );

  001fc	b8 01 00 00 00	 mov	 eax, 1
  00201	6a 04		 push	 4
  00203	c7 45 a4 8c 85
	99 b5		 mov	 DWORD PTR __k$527247[ebp], -1248230004 ; b599858cH
  0020a	c7 45 a8 9d 99
	98 82		 mov	 DWORD PTR __k$527247[ebp+4], -2103928419 ; 8298999dH
  00211	c7 45 ac b2 81
	8a 92		 mov	 DWORD PTR __k$527247[ebp+8], -1836416590 ; 928a81b2H
  00218	c7 45 b0 b2 9e
	8a 9e		 mov	 DWORD PTR __k$527247[ebp+12], -1635082574 ; 9e8a9eb2H
  0021f	8d 4d a4	 lea	 ecx, DWORD PTR __k$527247[ebp]
  00222	66 c7 45 b4 88
	00		 mov	 WORD PTR __k$527247[ebp+16], 136 ; 00000088H
  00228	5a		 pop	 edx
$LL432@LoadProper:
  00229	81 31 ed ec eb
	ea		 xor	 DWORD PTR [ecx], -353637139 ; eaebecedH
  0022f	83 c1 04	 add	 ecx, 4
  00232	4a		 dec	 edx
  00233	75 f4		 jne	 SHORT $LL432@LoadProper
  00235	80 75 b4 ed	 xor	 BYTE PTR __k$527247[ebp+16], -19 ; ffffffedH
  00239	89 85 78 fc ff
	ff		 mov	 DWORD PTR tv31681[ebp], eax
  0023f	db 85 78 fc ff
	ff		 fild	 DWORD PTR tv31681[ebp]
  00245	85 c0		 test	 eax, eax
  00247	79 06		 jns	 SHORT $LN3702@LoadProper
  00249	d8 05 00 00 00
	00		 fadd	 DWORD PTR __real@4f800000
$LN3702@LoadProper:
  0024f	51		 push	 ecx
  00250	8d 45 a4	 lea	 eax, DWORD PTR __k$527247[ebp]
  00253	d9 1c 24	 fstp	 DWORD PTR [esp]
  00256	50		 push	 eax
  00257	8b cf		 mov	 ecx, edi
  00259	ff 15 00 00 00
	00		 call	 DWORD PTR __imp_?LoadFloat@ioINILoader@@QAEMPBDM@Z
  0025f	d9 9e 7c 09 00
	00		 fstp	 DWORD PTR [esi+2428]

; 50   : 	m_DownPushPower.m_fMinRate	= rkLoader.LoadFloat_e( "down_push_min_rate", FLOAT1 );

  00265	b8 01 00 00 00	 mov	 eax, 1
  0026a	6a 04		 push	 4
  0026c	c7 85 74 ff ff
	ff 89 83 9c 84	 mov	 DWORD PTR __k$527276[ebp], -2070117495 ; 849c8389H
  00276	c7 85 78 ff ff
	ff b2 9c 9e 99	 mov	 DWORD PTR __k$527276[ebp+4], -1717658446 ; 999e9cb2H
  00280	c7 85 7c ff ff
	ff 85 b3 86 83	 mov	 DWORD PTR __k$527276[ebp+8], -2088324219 ; 8386b385H
  0028a	c7 45 80 83 b3
	99 8b		 mov	 DWORD PTR __k$527276[ebp+12], -1952861309 ; 8b99b383H
  00291	66 c7 45 84 99
	89		 mov	 WORD PTR __k$527276[ebp+16], 35225 ; 00008999H
  00297	8d 8d 74 ff ff
	ff		 lea	 ecx, DWORD PTR __k$527276[ebp]
  0029d	88 5d 86	 mov	 BYTE PTR __k$527276[ebp+18], bl
  002a0	5a		 pop	 edx
$LL540@LoadProper:
  002a1	81 31 ed ec eb
	ea		 xor	 DWORD PTR [ecx], -353637139 ; eaebecedH
  002a7	83 c1 04	 add	 ecx, 4
  002aa	4a		 dec	 edx
  002ab	75 f4		 jne	 SHORT $LL540@LoadProper
  002ad	c7 85 78 fc ff
	ff 10 00 00 00	 mov	 DWORD PTR _i$527376[ebp], 16 ; 00000010H
$LL537@LoadProper:
  002b7	8b 8d 78 fc ff
	ff		 mov	 ecx, DWORD PTR _i$527376[ebp]
  002bd	81 e1 03 00 00
	80		 and	 ecx, -2147483645	; 80000003H
  002c3	79 05		 jns	 SHORT $LN3703@LoadProper
  002c5	49		 dec	 ecx
  002c6	83 c9 fc	 or	 ecx, -4			; fffffffcH
  002c9	41		 inc	 ecx
$LN3703@LoadProper:
  002ca	b2 ed		 mov	 dl, -19			; ffffffedH
  002cc	2a d1		 sub	 dl, cl
  002ce	8b 8d 78 fc ff
	ff		 mov	 ecx, DWORD PTR _i$527376[ebp]
  002d4	30 94 0d 74 ff
	ff ff		 xor	 BYTE PTR __k$527276[ebp+ecx], dl
  002db	ff 85 78 fc ff
	ff		 inc	 DWORD PTR _i$527376[ebp]
  002e1	83 bd 78 fc ff
	ff 12		 cmp	 DWORD PTR _i$527376[ebp], 18 ; 00000012H
  002e8	7c cd		 jl	 SHORT $LL537@LoadProper
  002ea	89 85 78 fc ff
	ff		 mov	 DWORD PTR tv31671[ebp], eax
  002f0	db 85 78 fc ff
	ff		 fild	 DWORD PTR tv31671[ebp]
  002f6	85 c0		 test	 eax, eax
  002f8	79 06		 jns	 SHORT $LN3704@LoadProper
  002fa	d8 05 00 00 00
	00		 fadd	 DWORD PTR __real@4f800000
$LN3704@LoadProper:
  00300	51		 push	 ecx
  00301	8d 85 74 ff ff
	ff		 lea	 eax, DWORD PTR __k$527276[ebp]
  00307	d9 1c 24	 fstp	 DWORD PTR [esp]
  0030a	50		 push	 eax
  0030b	8b cf		 mov	 ecx, edi
  0030d	ff 15 00 00 00
	00		 call	 DWORD PTR __imp_?LoadFloat@ioINILoader@@QAEMPBDM@Z
  00313	d9 9e 84 09 00
	00		 fstp	 DWORD PTR [esi+2436]

; 51   : 	m_DownPushPower.m_fMaxRate	= rkLoader.LoadFloat_e( "down_push_max_rate", FLOAT1 );

  00319	b8 01 00 00 00	 mov	 eax, 1
  0031e	6a 04		 push	 4
  00320	c7 85 5c ff ff
	ff 89 83 9c 84	 mov	 DWORD PTR __k$527418[ebp], -2070117495 ; 849c8389H
  0032a	c7 85 60 ff ff
	ff b2 9c 9e 99	 mov	 DWORD PTR __k$527418[ebp+4], -1717658446 ; 999e9cb2H
  00334	c7 85 64 ff ff
	ff 85 b3 86 8b	 mov	 DWORD PTR __k$527418[ebp+8], -1954106491 ; 8b86b385H
  0033e	c7 85 68 ff ff
	ff 95 b3 99 8b	 mov	 DWORD PTR __k$527418[ebp+12], -1952861291 ; 8b99b395H
  00348	66 c7 85 6c ff
	ff ff 99 89	 mov	 WORD PTR __k$527418[ebp+16], 35225 ; 00008999H
  00351	8d 8d 5c ff ff
	ff		 lea	 ecx, DWORD PTR __k$527418[ebp]
  00357	88 9d 6e ff ff
	ff		 mov	 BYTE PTR __k$527418[ebp+18], bl
  0035d	5a		 pop	 edx
$LL648@LoadProper:
  0035e	81 31 ed ec eb
	ea		 xor	 DWORD PTR [ecx], -353637139 ; eaebecedH
  00364	83 c1 04	 add	 ecx, 4
  00367	4a		 dec	 edx
  00368	75 f4		 jne	 SHORT $LL648@LoadProper
  0036a	c7 85 78 fc ff
	ff 10 00 00 00	 mov	 DWORD PTR _i$527408[ebp], 16 ; 00000010H
$LL645@LoadProper:
  00374	8b 8d 78 fc ff
	ff		 mov	 ecx, DWORD PTR _i$527408[ebp]
  0037a	81 e1 03 00 00
	80		 and	 ecx, -2147483645	; 80000003H
  00380	79 05		 jns	 SHORT $LN3705@LoadProper
  00382	49		 dec	 ecx
  00383	83 c9 fc	 or	 ecx, -4			; fffffffcH
  00386	41		 inc	 ecx
$LN3705@LoadProper:
  00387	b2 ed		 mov	 dl, -19			; ffffffedH
  00389	2a d1		 sub	 dl, cl
  0038b	8b 8d 78 fc ff
	ff		 mov	 ecx, DWORD PTR _i$527408[ebp]
  00391	30 94 0d 5c ff
	ff ff		 xor	 BYTE PTR __k$527418[ebp+ecx], dl
  00398	ff 85 78 fc ff
	ff		 inc	 DWORD PTR _i$527408[ebp]
  0039e	83 bd 78 fc ff
	ff 12		 cmp	 DWORD PTR _i$527408[ebp], 18 ; 00000012H
  003a5	7c cd		 jl	 SHORT $LL645@LoadProper
  003a7	89 85 78 fc ff
	ff		 mov	 DWORD PTR tv31661[ebp], eax
  003ad	db 85 78 fc ff
	ff		 fild	 DWORD PTR tv31661[ebp]
  003b3	85 c0		 test	 eax, eax
  003b5	79 06		 jns	 SHORT $LN3706@LoadProper
  003b7	d8 05 00 00 00
	00		 fadd	 DWORD PTR __real@4f800000
$LN3706@LoadProper:
  003bd	51		 push	 ecx
  003be	8d 85 5c ff ff
	ff		 lea	 eax, DWORD PTR __k$527418[ebp]
  003c4	d9 1c 24	 fstp	 DWORD PTR [esp]
  003c7	50		 push	 eax
  003c8	8b cf		 mov	 ecx, edi
  003ca	ff 15 00 00 00
	00		 call	 DWORD PTR __imp_?LoadFloat@ioINILoader@@QAEMPBDM@Z
  003d0	d9 9e 88 09 00
	00		 fstp	 DWORD PTR [esi+2440]

; 52   : 
; 53   : 	// blow
; 54   : 	m_BlowPower.m_fMinRate		= rkLoader.LoadFloat_e( "blow_power_min_rate", FLOAT1 );

  003d6	b8 01 00 00 00	 mov	 eax, 1
  003db	6a 04		 push	 4
  003dd	c7 85 2c ff ff
	ff 8f 80 84 9d	 mov	 DWORD PTR __k$527547[ebp], -1652260721 ; 9d84808fH
  003e7	c7 85 30 ff ff
	ff b2 9c 84 9d	 mov	 DWORD PTR __k$527547[ebp+4], -1652253518 ; 9d849cb2H
  003f1	c7 85 34 ff ff
	ff 88 9e b4 87	 mov	 DWORD PTR __k$527547[ebp+8], -2018206072 ; 87b49e88H
  003fb	c7 85 38 ff ff
	ff 84 82 b4 98	 mov	 DWORD PTR __k$527547[ebp+12], -1733000572 ; 98b48284H
  00405	8d 8d 2c ff ff
	ff		 lea	 ecx, DWORD PTR __k$527547[ebp]
  0040b	c7 85 3c ff ff
	ff 8c 98 8e 00	 mov	 DWORD PTR __k$527547[ebp+16], 9345164 ; 008e988cH
  00415	5a		 pop	 edx
$LL756@LoadProper:
  00416	81 31 ed ec eb
	ea		 xor	 DWORD PTR [ecx], -353637139 ; eaebecedH
  0041c	83 c1 04	 add	 ecx, 4
  0041f	4a		 dec	 edx
  00420	75 f4		 jne	 SHORT $LL756@LoadProper
  00422	c7 85 78 fc ff
	ff 10 00 00 00	 mov	 DWORD PTR _i$527537[ebp], 16 ; 00000010H
$LL753@LoadProper:
  0042c	8b 8d 78 fc ff
	ff		 mov	 ecx, DWORD PTR _i$527537[ebp]
  00432	81 e1 03 00 00
	80		 and	 ecx, -2147483645	; 80000003H
  00438	79 05		 jns	 SHORT $LN3707@LoadProper
  0043a	49		 dec	 ecx
  0043b	83 c9 fc	 or	 ecx, -4			; fffffffcH
  0043e	41		 inc	 ecx
$LN3707@LoadProper:
  0043f	b2 ed		 mov	 dl, -19			; ffffffedH
  00441	2a d1		 sub	 dl, cl
  00443	8b 8d 78 fc ff
	ff		 mov	 ecx, DWORD PTR _i$527537[ebp]
  00449	30 94 0d 2c ff
	ff ff		 xor	 BYTE PTR __k$527547[ebp+ecx], dl
  00450	ff 85 78 fc ff
	ff		 inc	 DWORD PTR _i$527537[ebp]
  00456	83 bd 78 fc ff
	ff 13		 cmp	 DWORD PTR _i$527537[ebp], 19 ; 00000013H
  0045d	7c cd		 jl	 SHORT $LL753@LoadProper
  0045f	89 85 78 fc ff
	ff		 mov	 DWORD PTR tv31651[ebp], eax
  00465	db 85 78 fc ff
	ff		 fild	 DWORD PTR tv31651[ebp]
  0046b	85 c0		 test	 eax, eax
  0046d	79 06		 jns	 SHORT $LN3708@LoadProper
  0046f	d8 05 00 00 00
	00		 fadd	 DWORD PTR __real@4f800000
$LN3708@LoadProper:
  00475	51		 push	 ecx
  00476	8d 85 2c ff ff
	ff		 lea	 eax, DWORD PTR __k$527547[ebp]
  0047c	d9 1c 24	 fstp	 DWORD PTR [esp]
  0047f	50		 push	 eax
  00480	8b cf		 mov	 ecx, edi
  00482	ff 15 00 00 00
	00		 call	 DWORD PTR __imp_?LoadFloat@ioINILoader@@QAEMPBDM@Z
  00488	d9 9e 90 09 00
	00		 fstp	 DWORD PTR [esi+2448]

; 55   : 	m_BlowPower.m_fMaxRate		= rkLoader.LoadFloat_e( "blow_power_max_rate", FLOAT1 );

  0048e	b8 01 00 00 00	 mov	 eax, 1
  00493	6a 04		 push	 4
  00495	c7 85 44 ff ff
	ff 8f 80 84 9d	 mov	 DWORD PTR __k$527676[ebp], -1652260721 ; 9d84808fH
  0049f	c7 85 48 ff ff
	ff b2 9c 84 9d	 mov	 DWORD PTR __k$527676[ebp+4], -1652253518 ; 9d849cb2H
  004a9	c7 85 4c ff ff
	ff 88 9e b4 87	 mov	 DWORD PTR __k$527676[ebp+8], -2018206072 ; 87b49e88H
  004b3	c7 85 50 ff ff
	ff 8c 94 b4 98	 mov	 DWORD PTR __k$527676[ebp+12], -1732995956 ; 98b4948cH
  004bd	8d 8d 44 ff ff
	ff		 lea	 ecx, DWORD PTR __k$527676[ebp]
  004c3	c7 85 54 ff ff
	ff 8c 98 8e 00	 mov	 DWORD PTR __k$527676[ebp+16], 9345164 ; 008e988cH
  004cd	5a		 pop	 edx
$LL864@LoadProper:
  004ce	81 31 ed ec eb
	ea		 xor	 DWORD PTR [ecx], -353637139 ; eaebecedH
  004d4	83 c1 04	 add	 ecx, 4
  004d7	4a		 dec	 edx
  004d8	75 f4		 jne	 SHORT $LL864@LoadProper
  004da	c7 85 78 fc ff
	ff 10 00 00 00	 mov	 DWORD PTR _i$527666[ebp], 16 ; 00000010H
$LL861@LoadProper:
  004e4	8b 8d 78 fc ff
	ff		 mov	 ecx, DWORD PTR _i$527666[ebp]
  004ea	81 e1 03 00 00
	80		 and	 ecx, -2147483645	; 80000003H
  004f0	79 05		 jns	 SHORT $LN3709@LoadProper
  004f2	49		 dec	 ecx
  004f3	83 c9 fc	 or	 ecx, -4			; fffffffcH
  004f6	41		 inc	 ecx
$LN3709@LoadProper:
  004f7	b2 ed		 mov	 dl, -19			; ffffffedH
  004f9	2a d1		 sub	 dl, cl
  004fb	8b 8d 78 fc ff
	ff		 mov	 ecx, DWORD PTR _i$527666[ebp]
  00501	30 94 0d 44 ff
	ff ff		 xor	 BYTE PTR __k$527676[ebp+ecx], dl
  00508	ff 85 78 fc ff
	ff		 inc	 DWORD PTR _i$527666[ebp]
  0050e	83 bd 78 fc ff
	ff 13		 cmp	 DWORD PTR _i$527666[ebp], 19 ; 00000013H
  00515	7c cd		 jl	 SHORT $LL861@LoadProper
  00517	89 85 78 fc ff
	ff		 mov	 DWORD PTR tv31641[ebp], eax
  0051d	db 85 78 fc ff
	ff		 fild	 DWORD PTR tv31641[ebp]
  00523	85 c0		 test	 eax, eax
  00525	79 06		 jns	 SHORT $LN3710@LoadProper
  00527	d8 05 00 00 00
	00		 fadd	 DWORD PTR __real@4f800000
$LN3710@LoadProper:
  0052d	51		 push	 ecx
  0052e	8d 85 44 ff ff
	ff		 lea	 eax, DWORD PTR __k$527676[ebp]
  00534	d9 1c 24	 fstp	 DWORD PTR [esp]
  00537	50		 push	 eax
  00538	8b cf		 mov	 ecx, edi
  0053a	ff 15 00 00 00
	00		 call	 DWORD PTR __imp_?LoadFloat@ioINILoader@@QAEMPBDM@Z
  00540	d9 9e 94 09 00
	00		 fstp	 DWORD PTR [esi+2452]

; 56   : 	m_AirBlowPower.m_fMinRate	= rkLoader.LoadFloat_e( "air_blow_power_min_rate", FLOAT1 );

  00546	b8 01 00 00 00	 mov	 eax, 1
  0054b	6a 05		 push	 5
  0054d	c7 85 7c fd ff
	ff 8c 85 99 b5	 mov	 DWORD PTR __k$527792[ebp], -1248230004 ; b599858cH
  00557	c7 85 80 fd ff
	ff 8f 80 84 9d	 mov	 DWORD PTR __k$527792[ebp+4], -1652260721 ; 9d84808fH
  00561	c7 85 84 fd ff
	ff b2 9c 84 9d	 mov	 DWORD PTR __k$527792[ebp+8], -1652253518 ; 9d849cb2H
  0056b	c7 85 88 fd ff
	ff 88 9e b4 87	 mov	 DWORD PTR __k$527792[ebp+12], -2018206072 ; 87b49e88H
  00575	c7 85 8c fd ff
	ff 84 82 b4 98	 mov	 DWORD PTR __k$527792[ebp+16], -1733000572 ; 98b48284H
  0057f	8d 8d 7c fd ff
	ff		 lea	 ecx, DWORD PTR __k$527792[ebp]
  00585	c7 85 90 fd ff
	ff 8c 98 8e 00	 mov	 DWORD PTR __k$527792[ebp+20], 9345164 ; 008e988cH
  0058f	5a		 pop	 edx
$LL972@LoadProper:
  00590	81 31 ed ec eb
	ea		 xor	 DWORD PTR [ecx], -353637139 ; eaebecedH
  00596	83 c1 04	 add	 ecx, 4
  00599	4a		 dec	 edx
  0059a	75 f4		 jne	 SHORT $LL972@LoadProper
  0059c	c7 85 78 fc ff
	ff 14 00 00 00	 mov	 DWORD PTR _i$527887[ebp], 20 ; 00000014H
$LL969@LoadProper:
  005a6	8b 8d 78 fc ff
	ff		 mov	 ecx, DWORD PTR _i$527887[ebp]
  005ac	81 e1 03 00 00
	80		 and	 ecx, -2147483645	; 80000003H
  005b2	79 05		 jns	 SHORT $LN3711@LoadProper
  005b4	49		 dec	 ecx
  005b5	83 c9 fc	 or	 ecx, -4			; fffffffcH
  005b8	41		 inc	 ecx
$LN3711@LoadProper:
  005b9	b2 ed		 mov	 dl, -19			; ffffffedH
  005bb	2a d1		 sub	 dl, cl
  005bd	8b 8d 78 fc ff
	ff		 mov	 ecx, DWORD PTR _i$527887[ebp]
  005c3	30 94 0d 7c fd
	ff ff		 xor	 BYTE PTR __k$527792[ebp+ecx], dl
  005ca	ff 85 78 fc ff
	ff		 inc	 DWORD PTR _i$527887[ebp]
  005d0	83 bd 78 fc ff
	ff 17		 cmp	 DWORD PTR _i$527887[ebp], 23 ; 00000017H
  005d7	7c cd		 jl	 SHORT $LL969@LoadProper
  005d9	89 85 78 fc ff
	ff		 mov	 DWORD PTR tv31631[ebp], eax
  005df	db 85 78 fc ff
	ff		 fild	 DWORD PTR tv31631[ebp]
  005e5	85 c0		 test	 eax, eax
  005e7	79 06		 jns	 SHORT $LN3712@LoadProper
  005e9	d8 05 00 00 00
	00		 fadd	 DWORD PTR __real@4f800000
$LN3712@LoadProper:
  005ef	51		 push	 ecx
  005f0	8d 85 7c fd ff
	ff		 lea	 eax, DWORD PTR __k$527792[ebp]
  005f6	d9 1c 24	 fstp	 DWORD PTR [esp]
  005f9	50		 push	 eax
  005fa	8b cf		 mov	 ecx, edi
  005fc	ff 15 00 00 00
	00		 call	 DWORD PTR __imp_?LoadFloat@ioINILoader@@QAEMPBDM@Z
  00602	d9 9e 9c 09 00
	00		 fstp	 DWORD PTR [esi+2460]

; 57   : 	m_AirBlowPower.m_fMaxRate	= rkLoader.LoadFloat_e( "air_blow_power_max_rate", FLOAT1 );

  00608	b8 01 00 00 00	 mov	 eax, 1
  0060d	6a 05		 push	 5
  0060f	c7 85 d0 fd ff
	ff 8c 85 99 b5	 mov	 DWORD PTR __k$527921[ebp], -1248230004 ; b599858cH
  00619	c7 85 d4 fd ff
	ff 8f 80 84 9d	 mov	 DWORD PTR __k$527921[ebp+4], -1652260721 ; 9d84808fH
  00623	c7 85 d8 fd ff
	ff b2 9c 84 9d	 mov	 DWORD PTR __k$527921[ebp+8], -1652253518 ; 9d849cb2H
  0062d	c7 85 dc fd ff
	ff 88 9e b4 87	 mov	 DWORD PTR __k$527921[ebp+12], -2018206072 ; 87b49e88H
  00637	c7 85 e0 fd ff
	ff 8c 94 b4 98	 mov	 DWORD PTR __k$527921[ebp+16], -1732995956 ; 98b4948cH
  00641	8d 8d d0 fd ff
	ff		 lea	 ecx, DWORD PTR __k$527921[ebp]
  00647	c7 85 e4 fd ff
	ff 8c 98 8e 00	 mov	 DWORD PTR __k$527921[ebp+20], 9345164 ; 008e988cH
  00651	5a		 pop	 edx
$LL1080@LoadProper:
  00652	81 31 ed ec eb
	ea		 xor	 DWORD PTR [ecx], -353637139 ; eaebecedH
  00658	83 c1 04	 add	 ecx, 4
  0065b	4a		 dec	 edx
  0065c	75 f4		 jne	 SHORT $LL1080@LoadProper
  0065e	c7 85 78 fc ff
	ff 14 00 00 00	 mov	 DWORD PTR _i$528021[ebp], 20 ; 00000014H
$LL1077@LoadProper:
  00668	8b 8d 78 fc ff
	ff		 mov	 ecx, DWORD PTR _i$528021[ebp]
  0066e	81 e1 03 00 00
	80		 and	 ecx, -2147483645	; 80000003H
  00674	79 05		 jns	 SHORT $LN3713@LoadProper
  00676	49		 dec	 ecx
  00677	83 c9 fc	 or	 ecx, -4			; fffffffcH
  0067a	41		 inc	 ecx
$LN3713@LoadProper:
  0067b	b2 ed		 mov	 dl, -19			; ffffffedH
  0067d	2a d1		 sub	 dl, cl
  0067f	8b 8d 78 fc ff
	ff		 mov	 ecx, DWORD PTR _i$528021[ebp]
  00685	30 94 0d d0 fd
	ff ff		 xor	 BYTE PTR __k$527921[ebp+ecx], dl
  0068c	ff 85 78 fc ff
	ff		 inc	 DWORD PTR _i$528021[ebp]
  00692	83 bd 78 fc ff
	ff 17		 cmp	 DWORD PTR _i$528021[ebp], 23 ; 00000017H
  00699	7c cd		 jl	 SHORT $LL1077@LoadProper
  0069b	89 85 78 fc ff
	ff		 mov	 DWORD PTR tv31621[ebp], eax
  006a1	db 85 78 fc ff
	ff		 fild	 DWORD PTR tv31621[ebp]
  006a7	85 c0		 test	 eax, eax
  006a9	79 06		 jns	 SHORT $LN3714@LoadProper
  006ab	d8 05 00 00 00
	00		 fadd	 DWORD PTR __real@4f800000
$LN3714@LoadProper:
  006b1	51		 push	 ecx
  006b2	8d 85 d0 fd ff
	ff		 lea	 eax, DWORD PTR __k$527921[ebp]
  006b8	d9 1c 24	 fstp	 DWORD PTR [esp]
  006bb	50		 push	 eax
  006bc	8b cf		 mov	 ecx, edi
  006be	ff 15 00 00 00
	00		 call	 DWORD PTR __imp_?LoadFloat@ioINILoader@@QAEMPBDM@Z
  006c4	d9 9e a0 09 00
	00		 fstp	 DWORD PTR [esi+2464]

; 58   : 	m_DownBlowPower.m_fMinRate	= rkLoader.LoadFloat_e( "down_blow_power_min_rate", FLOAT1 );

  006ca	b8 01 00 00 00	 mov	 eax, 1
  006cf	6a 06		 push	 6
  006d1	c7 85 5c fd ff
	ff 89 83 9c 84	 mov	 DWORD PTR __k$528050[ebp], -2070117495 ; 849c8389H
  006db	c7 85 60 fd ff
	ff b2 8e 87 85	 mov	 DWORD PTR __k$528050[ebp+4], -2054713678 ; 85878eb2H
  006e5	c7 85 64 fd ff
	ff 9a b3 9b 85	 mov	 DWORD PTR __k$528050[ebp+8], -2053393510 ; 859bb39aH
  006ef	c7 85 68 fd ff
	ff 9a 89 99 b5	 mov	 DWORD PTR __k$528050[ebp+12], -1248228966 ; b599899aH
  006f9	c7 85 6c fd ff
	ff 80 85 85 b5	 mov	 DWORD PTR __k$528050[ebp+16], -1249540736 ; b5858580H
  00703	c7 85 70 fd ff
	ff 9f 8d 9f 8f	 mov	 DWORD PTR __k$528050[ebp+20], -1885368929 ; 8f9f8d9fH
  0070d	8d 8d 5c fd ff
	ff		 lea	 ecx, DWORD PTR __k$528050[ebp]
  00713	88 9d 74 fd ff
	ff		 mov	 BYTE PTR __k$528050[ebp+24], bl
  00719	5a		 pop	 edx
$LL1188@LoadProper:
  0071a	81 31 ed ec eb
	ea		 xor	 DWORD PTR [ecx], -353637139 ; eaebecedH
  00720	83 c1 04	 add	 ecx, 4
  00723	4a		 dec	 edx
  00724	75 f4		 jne	 SHORT $LL1188@LoadProper
  00726	89 85 78 fc ff
	ff		 mov	 DWORD PTR tv31613[ebp], eax
  0072c	db 85 78 fc ff
	ff		 fild	 DWORD PTR tv31613[ebp]
  00732	85 c0		 test	 eax, eax
  00734	79 06		 jns	 SHORT $LN3715@LoadProper
  00736	d8 05 00 00 00
	00		 fadd	 DWORD PTR __real@4f800000
$LN3715@LoadProper:
  0073c	51		 push	 ecx
  0073d	8d 85 5c fd ff
	ff		 lea	 eax, DWORD PTR __k$528050[ebp]
  00743	d9 1c 24	 fstp	 DWORD PTR [esp]
  00746	50		 push	 eax
  00747	8b cf		 mov	 ecx, edi
  00749	ff 15 00 00 00
	00		 call	 DWORD PTR __imp_?LoadFloat@ioINILoader@@QAEMPBDM@Z
  0074f	d9 9e a8 09 00
	00		 fstp	 DWORD PTR [esi+2472]

; 59   : 	m_DownBlowPower.m_fMaxRate	= rkLoader.LoadFloat_e( "down_blow_power_max_rate", FLOAT1 );

  00755	b8 01 00 00 00	 mov	 eax, 1
  0075a	6a 06		 push	 6
  0075c	c7 85 3c fd ff
	ff 89 83 9c 84	 mov	 DWORD PTR __k$528179[ebp], -2070117495 ; 849c8389H
  00766	c7 85 40 fd ff
	ff b2 8e 87 85	 mov	 DWORD PTR __k$528179[ebp+4], -2054713678 ; 85878eb2H
  00770	c7 85 44 fd ff
	ff 9a b3 9b 85	 mov	 DWORD PTR __k$528179[ebp+8], -2053393510 ; 859bb39aH
  0077a	c7 85 48 fd ff
	ff 9a 89 99 b5	 mov	 DWORD PTR __k$528179[ebp+12], -1248228966 ; b599899aH
  00784	c7 85 4c fd ff
	ff 80 8d 93 b5	 mov	 DWORD PTR __k$528179[ebp+16], -1248621184 ; b5938d80H
  0078e	c7 85 50 fd ff
	ff 9f 8d 9f 8f	 mov	 DWORD PTR __k$528179[ebp+20], -1885368929 ; 8f9f8d9fH
  00798	8d 8d 3c fd ff
	ff		 lea	 ecx, DWORD PTR __k$528179[ebp]
  0079e	88 9d 54 fd ff
	ff		 mov	 BYTE PTR __k$528179[ebp+24], bl
  007a4	5a		 pop	 edx
$LL1296@LoadProper:
  007a5	81 31 ed ec eb
	ea		 xor	 DWORD PTR [ecx], -353637139 ; eaebecedH
  007ab	83 c1 04	 add	 ecx, 4
  007ae	4a		 dec	 edx
  007af	75 f4		 jne	 SHORT $LL1296@LoadProper
  007b1	89 85 78 fc ff
	ff		 mov	 DWORD PTR tv31605[ebp], eax
  007b7	db 85 78 fc ff
	ff		 fild	 DWORD PTR tv31605[ebp]
  007bd	85 c0		 test	 eax, eax
  007bf	79 06		 jns	 SHORT $LN3716@LoadProper
  007c1	d8 05 00 00 00
	00		 fadd	 DWORD PTR __real@4f800000
$LN3716@LoadProper:
  007c7	51		 push	 ecx
  007c8	8d 85 3c fd ff
	ff		 lea	 eax, DWORD PTR __k$528179[ebp]
  007ce	d9 1c 24	 fstp	 DWORD PTR [esp]
  007d1	50		 push	 eax
  007d2	8b cf		 mov	 ecx, edi
  007d4	ff 15 00 00 00
	00		 call	 DWORD PTR __imp_?LoadFloat@ioINILoader@@QAEMPBDM@Z
  007da	d9 9e ac 09 00
	00		 fstp	 DWORD PTR [esi+2476]

; 60   : 
; 61   : 	// bound
; 62   : 	m_BoundJumpPower.m_fMinRate = rkLoader.LoadFloat_e( "bound_jump_power_min_rate", FLOAT1 );

  007e0	b8 01 00 00 00	 mov	 eax, 1
  007e5	6a 06		 push	 6
  007e7	c7 85 dc fc ff
	ff 8f 83 9e 84	 mov	 DWORD PTR __k$528308[ebp], -2069986417 ; 849e838fH
  007f1	c7 85 e0 fc ff
	ff 89 b3 81 9f	 mov	 DWORD PTR __k$528308[ebp+4], -1618889847 ; 9f81b389H
  007fb	c7 85 e4 fc ff
	ff 80 9c b4 9a	 mov	 DWORD PTR __k$528308[ebp+8], -1699439488 ; 9ab49c80H
  00805	c7 85 e8 fc ff
	ff 82 9b 8e 98	 mov	 DWORD PTR __k$528308[ebp+12], -1735484542 ; 988e9b82H
  0080f	c7 85 ec fc ff
	ff b2 81 82 84	 mov	 DWORD PTR __k$528308[ebp+16], -2071821902 ; 848281b2H
  00819	c7 85 f0 fc ff
	ff b2 9e 8a 9e	 mov	 DWORD PTR __k$528308[ebp+20], -1635082574 ; 9e8a9eb2H
  00823	8d 8d dc fc ff
	ff		 lea	 ecx, DWORD PTR __k$528308[ebp]
  00829	66 c7 85 f4 fc
	ff ff 88 00	 mov	 WORD PTR __k$528308[ebp+24], 136 ; 00000088H
  00832	5a		 pop	 edx
$LL1404@LoadProper:
  00833	81 31 ed ec eb
	ea		 xor	 DWORD PTR [ecx], -353637139 ; eaebecedH
  00839	83 c1 04	 add	 ecx, 4
  0083c	4a		 dec	 edx
  0083d	75 f4		 jne	 SHORT $LL1404@LoadProper
  0083f	80 b5 f4 fc ff
	ff ed		 xor	 BYTE PTR __k$528308[ebp+24], -19 ; ffffffedH
  00846	89 85 78 fc ff
	ff		 mov	 DWORD PTR tv31597[ebp], eax
  0084c	db 85 78 fc ff
	ff		 fild	 DWORD PTR tv31597[ebp]
  00852	85 c0		 test	 eax, eax
  00854	79 06		 jns	 SHORT $LN3717@LoadProper
  00856	d8 05 00 00 00
	00		 fadd	 DWORD PTR __real@4f800000
$LN3717@LoadProper:
  0085c	51		 push	 ecx
  0085d	8d 85 dc fc ff
	ff		 lea	 eax, DWORD PTR __k$528308[ebp]
  00863	d9 1c 24	 fstp	 DWORD PTR [esp]
  00866	50		 push	 eax
  00867	8b cf		 mov	 ecx, edi
  00869	ff 15 00 00 00
	00		 call	 DWORD PTR __imp_?LoadFloat@ioINILoader@@QAEMPBDM@Z
  0086f	d9 9e b4 09 00
	00		 fstp	 DWORD PTR [esi+2484]

; 63   : 	m_BoundJumpPower.m_fMaxRate = rkLoader.LoadFloat_e( "bound_jump_power_max_rate", FLOAT1 );

  00875	b8 01 00 00 00	 mov	 eax, 1
  0087a	6a 06		 push	 6
  0087c	c7 85 fc fc ff
	ff 8f 83 9e 84	 mov	 DWORD PTR __k$528450[ebp], -2069986417 ; 849e838fH
  00886	c7 85 00 fd ff
	ff 89 b3 81 9f	 mov	 DWORD PTR __k$528450[ebp+4], -1618889847 ; 9f81b389H
  00890	c7 85 04 fd ff
	ff 80 9c b4 9a	 mov	 DWORD PTR __k$528450[ebp+8], -1699439488 ; 9ab49c80H
  0089a	c7 85 08 fd ff
	ff 82 9b 8e 98	 mov	 DWORD PTR __k$528450[ebp+12], -1735484542 ; 988e9b82H
  008a4	c7 85 0c fd ff
	ff b2 81 8a 92	 mov	 DWORD PTR __k$528450[ebp+16], -1836416590 ; 928a81b2H
  008ae	c7 85 10 fd ff
	ff b2 9e 8a 9e	 mov	 DWORD PTR __k$528450[ebp+20], -1635082574 ; 9e8a9eb2H
  008b8	8d 8d fc fc ff
	ff		 lea	 ecx, DWORD PTR __k$528450[ebp]
  008be	66 c7 85 14 fd
	ff ff 88 00	 mov	 WORD PTR __k$528450[ebp+24], 136 ; 00000088H
  008c7	5a		 pop	 edx
$LL1512@LoadProper:
  008c8	81 31 ed ec eb
	ea		 xor	 DWORD PTR [ecx], -353637139 ; eaebecedH
  008ce	83 c1 04	 add	 ecx, 4
  008d1	4a		 dec	 edx
  008d2	75 f4		 jne	 SHORT $LL1512@LoadProper
  008d4	80 b5 14 fd ff
	ff ed		 xor	 BYTE PTR __k$528450[ebp+24], -19 ; ffffffedH
  008db	89 85 78 fc ff
	ff		 mov	 DWORD PTR tv31589[ebp], eax
  008e1	db 85 78 fc ff
	ff		 fild	 DWORD PTR tv31589[ebp]
  008e7	85 c0		 test	 eax, eax
  008e9	79 06		 jns	 SHORT $LN3718@LoadProper
  008eb	d8 05 00 00 00
	00		 fadd	 DWORD PTR __real@4f800000
$LN3718@LoadProper:
  008f1	51		 push	 ecx
  008f2	8d 85 fc fc ff
	ff		 lea	 eax, DWORD PTR __k$528450[ebp]
  008f8	d9 1c 24	 fstp	 DWORD PTR [esp]
  008fb	50		 push	 eax
  008fc	8b cf		 mov	 ecx, edi
  008fe	ff 15 00 00 00
	00		 call	 DWORD PTR __imp_?LoadFloat@ioINILoader@@QAEMPBDM@Z
  00904	d9 9e b8 09 00
	00		 fstp	 DWORD PTR [esi+2488]

; 64   : 	m_BoundForcePower.m_fMinRate= rkLoader.LoadFloat_e( "bound_force_power_min_rate", FLOAT1 );

  0090a	b8 01 00 00 00	 mov	 eax, 1
  0090f	6a 06		 push	 6
  00911	c7 85 9c fc ff
	ff 8f 83 9e 84	 mov	 DWORD PTR __k$528579[ebp], -2069986417 ; 849e838fH
  0091b	c7 85 a0 fc ff
	ff 89 b3 8d 85	 mov	 DWORD PTR __k$528579[ebp+4], -2054311031 ; 858db389H
  00925	c7 85 a4 fc ff
	ff 9f 8f 8e b5	 mov	 DWORD PTR __k$528579[ebp+8], -1248948321 ; b58e8f9fH
  0092f	c7 85 a8 fc ff
	ff 9d 83 9c 8f	 mov	 DWORD PTR __k$528579[ebp+12], -1885568099 ; 8f9c839dH
  00939	c7 85 ac fc ff
	ff 9f b3 86 83	 mov	 DWORD PTR __k$528579[ebp+16], -2088324193 ; 8386b39fH
  00943	c7 85 b0 fc ff
	ff 83 b3 99 8b	 mov	 DWORD PTR __k$528579[ebp+20], -1952861309 ; 8b99b383H
  0094d	66 c7 85 b4 fc
	ff ff 99 89	 mov	 WORD PTR __k$528579[ebp+24], 35225 ; 00008999H
  00956	8d 8d 9c fc ff
	ff		 lea	 ecx, DWORD PTR __k$528579[ebp]
  0095c	88 9d b6 fc ff
	ff		 mov	 BYTE PTR __k$528579[ebp+26], bl
  00962	5a		 pop	 edx
$LL1620@LoadProper:
  00963	81 31 ed ec eb
	ea		 xor	 DWORD PTR [ecx], -353637139 ; eaebecedH
  00969	83 c1 04	 add	 ecx, 4
  0096c	4a		 dec	 edx
  0096d	75 f4		 jne	 SHORT $LL1620@LoadProper
  0096f	c7 85 78 fc ff
	ff 18 00 00 00	 mov	 DWORD PTR _i$528569[ebp], 24 ; 00000018H
$LL1617@LoadProper:
  00979	8b 8d 78 fc ff
	ff		 mov	 ecx, DWORD PTR _i$528569[ebp]
  0097f	81 e1 03 00 00
	80		 and	 ecx, -2147483645	; 80000003H
  00985	79 05		 jns	 SHORT $LN3719@LoadProper
  00987	49		 dec	 ecx
  00988	83 c9 fc	 or	 ecx, -4			; fffffffcH
  0098b	41		 inc	 ecx
$LN3719@LoadProper:
  0098c	b2 ed		 mov	 dl, -19			; ffffffedH
  0098e	2a d1		 sub	 dl, cl
  00990	8b 8d 78 fc ff
	ff		 mov	 ecx, DWORD PTR _i$528569[ebp]
  00996	30 94 0d 9c fc
	ff ff		 xor	 BYTE PTR __k$528579[ebp+ecx], dl
  0099d	ff 85 78 fc ff
	ff		 inc	 DWORD PTR _i$528569[ebp]
  009a3	83 bd 78 fc ff
	ff 1a		 cmp	 DWORD PTR _i$528569[ebp], 26 ; 0000001aH
  009aa	7c cd		 jl	 SHORT $LL1617@LoadProper
  009ac	89 85 78 fc ff
	ff		 mov	 DWORD PTR tv31579[ebp], eax
  009b2	db 85 78 fc ff
	ff		 fild	 DWORD PTR tv31579[ebp]
  009b8	85 c0		 test	 eax, eax
  009ba	79 06		 jns	 SHORT $LN3720@LoadProper
  009bc	d8 05 00 00 00
	00		 fadd	 DWORD PTR __real@4f800000
$LN3720@LoadProper:
  009c2	51		 push	 ecx
  009c3	8d 85 9c fc ff
	ff		 lea	 eax, DWORD PTR __k$528579[ebp]
  009c9	d9 1c 24	 fstp	 DWORD PTR [esp]
  009cc	50		 push	 eax
  009cd	8b cf		 mov	 ecx, edi
  009cf	ff 15 00 00 00
	00		 call	 DWORD PTR __imp_?LoadFloat@ioINILoader@@QAEMPBDM@Z
  009d5	d9 9e c0 09 00
	00		 fstp	 DWORD PTR [esi+2496]

; 65   : 	m_BoundForcePower.m_fMaxRate= rkLoader.LoadFloat_e( "bound_force_power_max_rate", FLOAT1 );

  009db	b8 01 00 00 00	 mov	 eax, 1
  009e0	6a 06		 push	 6
  009e2	c7 85 7c fc ff
	ff 8f 83 9e 84	 mov	 DWORD PTR __k$528708[ebp], -2069986417 ; 849e838fH
  009ec	c7 85 80 fc ff
	ff 89 b3 8d 85	 mov	 DWORD PTR __k$528708[ebp+4], -2054311031 ; 858db389H
  009f6	c7 85 84 fc ff
	ff 9f 8f 8e b5	 mov	 DWORD PTR __k$528708[ebp+8], -1248948321 ; b58e8f9fH
  00a00	c7 85 88 fc ff
	ff 9d 83 9c 8f	 mov	 DWORD PTR __k$528708[ebp+12], -1885568099 ; 8f9c839dH
  00a0a	c7 85 8c fc ff
	ff 9f b3 86 8b	 mov	 DWORD PTR __k$528708[ebp+16], -1954106465 ; 8b86b39fH
  00a14	c7 85 90 fc ff
	ff 95 b3 99 8b	 mov	 DWORD PTR __k$528708[ebp+20], -1952861291 ; 8b99b395H
  00a1e	66 c7 85 94 fc
	ff ff 99 89	 mov	 WORD PTR __k$528708[ebp+24], 35225 ; 00008999H
  00a27	8d 8d 7c fc ff
	ff		 lea	 ecx, DWORD PTR __k$528708[ebp]
  00a2d	88 9d 96 fc ff
	ff		 mov	 BYTE PTR __k$528708[ebp+26], bl
  00a33	5a		 pop	 edx
$LL1728@LoadProper:
  00a34	81 31 ed ec eb
	ea		 xor	 DWORD PTR [ecx], -353637139 ; eaebecedH
  00a3a	83 c1 04	 add	 ecx, 4
  00a3d	4a		 dec	 edx
  00a3e	75 f4		 jne	 SHORT $LL1728@LoadProper
  00a40	c7 85 78 fc ff
	ff 18 00 00 00	 mov	 DWORD PTR _i$528698[ebp], 24 ; 00000018H
$LL1725@LoadProper:
  00a4a	8b 8d 78 fc ff
	ff		 mov	 ecx, DWORD PTR _i$528698[ebp]
  00a50	81 e1 03 00 00
	80		 and	 ecx, -2147483645	; 80000003H
  00a56	79 05		 jns	 SHORT $LN3721@LoadProper
  00a58	49		 dec	 ecx
  00a59	83 c9 fc	 or	 ecx, -4			; fffffffcH
  00a5c	41		 inc	 ecx
$LN3721@LoadProper:
  00a5d	b2 ed		 mov	 dl, -19			; ffffffedH
  00a5f	2a d1		 sub	 dl, cl
  00a61	8b 8d 78 fc ff
	ff		 mov	 ecx, DWORD PTR _i$528698[ebp]
  00a67	30 94 0d 7c fc
	ff ff		 xor	 BYTE PTR __k$528708[ebp+ecx], dl
  00a6e	ff 85 78 fc ff
	ff		 inc	 DWORD PTR _i$528698[ebp]
  00a74	83 bd 78 fc ff
	ff 1a		 cmp	 DWORD PTR _i$528698[ebp], 26 ; 0000001aH
  00a7b	7c cd		 jl	 SHORT $LL1725@LoadProper
  00a7d	89 85 78 fc ff
	ff		 mov	 DWORD PTR tv31569[ebp], eax
  00a83	db 85 78 fc ff
	ff		 fild	 DWORD PTR tv31569[ebp]
  00a89	85 c0		 test	 eax, eax
  00a8b	79 06		 jns	 SHORT $LN3722@LoadProper
  00a8d	d8 05 00 00 00
	00		 fadd	 DWORD PTR __real@4f800000
$LN3722@LoadProper:
  00a93	51		 push	 ecx
  00a94	8d 85 7c fc ff
	ff		 lea	 eax, DWORD PTR __k$528708[ebp]
  00a9a	d9 1c 24	 fstp	 DWORD PTR [esp]
  00a9d	50		 push	 eax
  00a9e	8b cf		 mov	 ecx, edi
  00aa0	ff 15 00 00 00
	00		 call	 DWORD PTR __imp_?LoadFloat@ioINILoader@@QAEMPBDM@Z
  00aa6	d9 9e c4 09 00
	00		 fstp	 DWORD PTR [esi+2500]

; 66   : 	m_BoundGravity.m_fMinRate	= rkLoader.LoadFloat_e( "bound_gravity_min_rate", FLOAT1 );

  00aac	b8 01 00 00 00	 mov	 eax, 1
  00ab1	6a 05		 push	 5
  00ab3	c7 85 08 fe ff
	ff 8f 83 9e 84	 mov	 DWORD PTR __k$528842[ebp], -2069986417 ; 849e838fH
  00abd	c7 85 0c fe ff
	ff 89 b3 8c 98	 mov	 DWORD PTR __k$528842[ebp+4], -1735609463 ; 988cb389H
  00ac7	c7 85 10 fe ff
	ff 8c 9a 82 9e	 mov	 DWORD PTR __k$528842[ebp+8], -1635607924 ; 9e829a8cH
  00ad1	c7 85 14 fe ff
	ff 94 b3 86 83	 mov	 DWORD PTR __k$528842[ebp+12], -2088324204 ; 8386b394H
  00adb	c7 85 18 fe ff
	ff 83 b3 99 8b	 mov	 DWORD PTR __k$528842[ebp+16], -1952861309 ; 8b99b383H
  00ae5	66 c7 85 1c fe
	ff ff 99 89	 mov	 WORD PTR __k$528842[ebp+20], 35225 ; 00008999H
  00aee	8d 8d 08 fe ff
	ff		 lea	 ecx, DWORD PTR __k$528842[ebp]
  00af4	88 9d 1e fe ff
	ff		 mov	 BYTE PTR __k$528842[ebp+22], bl
  00afa	5a		 pop	 edx
$LL1836@LoadProper:
  00afb	81 31 ed ec eb
	ea		 xor	 DWORD PTR [ecx], -353637139 ; eaebecedH
  00b01	83 c1 04	 add	 ecx, 4
  00b04	4a		 dec	 edx
  00b05	75 f4		 jne	 SHORT $LL1836@LoadProper
  00b07	c7 85 78 fc ff
	ff 14 00 00 00	 mov	 DWORD PTR _i$528832[ebp], 20 ; 00000014H
$LL1833@LoadProper:
  00b11	8b 8d 78 fc ff
	ff		 mov	 ecx, DWORD PTR _i$528832[ebp]
  00b17	81 e1 03 00 00
	80		 and	 ecx, -2147483645	; 80000003H
  00b1d	79 05		 jns	 SHORT $LN3723@LoadProper
  00b1f	49		 dec	 ecx
  00b20	83 c9 fc	 or	 ecx, -4			; fffffffcH
  00b23	41		 inc	 ecx
$LN3723@LoadProper:
  00b24	b2 ed		 mov	 dl, -19			; ffffffedH
  00b26	2a d1		 sub	 dl, cl
  00b28	8b 8d 78 fc ff
	ff		 mov	 ecx, DWORD PTR _i$528832[ebp]
  00b2e	30 94 0d 08 fe
	ff ff		 xor	 BYTE PTR __k$528842[ebp+ecx], dl
  00b35	ff 85 78 fc ff
	ff		 inc	 DWORD PTR _i$528832[ebp]
  00b3b	83 bd 78 fc ff
	ff 16		 cmp	 DWORD PTR _i$528832[ebp], 22 ; 00000016H
  00b42	7c cd		 jl	 SHORT $LL1833@LoadProper
  00b44	89 85 78 fc ff
	ff		 mov	 DWORD PTR tv31559[ebp], eax
  00b4a	db 85 78 fc ff
	ff		 fild	 DWORD PTR tv31559[ebp]
  00b50	85 c0		 test	 eax, eax
  00b52	79 06		 jns	 SHORT $LN3724@LoadProper
  00b54	d8 05 00 00 00
	00		 fadd	 DWORD PTR __real@4f800000
$LN3724@LoadProper:
  00b5a	51		 push	 ecx
  00b5b	8d 85 08 fe ff
	ff		 lea	 eax, DWORD PTR __k$528842[ebp]
  00b61	d9 1c 24	 fstp	 DWORD PTR [esp]
  00b64	50		 push	 eax
  00b65	8b cf		 mov	 ecx, edi
  00b67	ff 15 00 00 00
	00		 call	 DWORD PTR __imp_?LoadFloat@ioINILoader@@QAEMPBDM@Z
  00b6d	d9 9e cc 09 00
	00		 fstp	 DWORD PTR [esi+2508]

; 67   : 	m_BoundGravity.m_fMaxRate	= rkLoader.LoadFloat_e( "bound_gravity_max_rate", FLOAT1 );

  00b73	b8 01 00 00 00	 mov	 eax, 1
  00b78	6a 05		 push	 5
  00b7a	c7 85 ec fd ff
	ff 8f 83 9e 84	 mov	 DWORD PTR __k$528971[ebp], -2069986417 ; 849e838fH
  00b84	c7 85 f0 fd ff
	ff 89 b3 8c 98	 mov	 DWORD PTR __k$528971[ebp+4], -1735609463 ; 988cb389H
  00b8e	c7 85 f4 fd ff
	ff 8c 9a 82 9e	 mov	 DWORD PTR __k$528971[ebp+8], -1635607924 ; 9e829a8cH
  00b98	c7 85 f8 fd ff
	ff 94 b3 86 8b	 mov	 DWORD PTR __k$528971[ebp+12], -1954106476 ; 8b86b394H
  00ba2	c7 85 fc fd ff
	ff 95 b3 99 8b	 mov	 DWORD PTR __k$528971[ebp+16], -1952861291 ; 8b99b395H
  00bac	66 c7 85 00 fe
	ff ff 99 89	 mov	 WORD PTR __k$528971[ebp+20], 35225 ; 00008999H
  00bb5	8d 8d ec fd ff
	ff		 lea	 ecx, DWORD PTR __k$528971[ebp]
  00bbb	88 9d 02 fe ff
	ff		 mov	 BYTE PTR __k$528971[ebp+22], bl
  00bc1	5a		 pop	 edx
$LL1944@LoadProper:
  00bc2	81 31 ed ec eb
	ea		 xor	 DWORD PTR [ecx], -353637139 ; eaebecedH
  00bc8	83 c1 04	 add	 ecx, 4
  00bcb	4a		 dec	 edx
  00bcc	75 f4		 jne	 SHORT $LL1944@LoadProper
  00bce	c7 85 78 fc ff
	ff 14 00 00 00	 mov	 DWORD PTR _i$528960[ebp], 20 ; 00000014H
$LL1941@LoadProper:
  00bd8	8b 8d 78 fc ff
	ff		 mov	 ecx, DWORD PTR _i$528960[ebp]
  00bde	81 e1 03 00 00
	80		 and	 ecx, -2147483645	; 80000003H
  00be4	79 05		 jns	 SHORT $LN3725@LoadProper
  00be6	49		 dec	 ecx
  00be7	83 c9 fc	 or	 ecx, -4			; fffffffcH
  00bea	41		 inc	 ecx
$LN3725@LoadProper:
  00beb	b2 ed		 mov	 dl, -19			; ffffffedH
  00bed	2a d1		 sub	 dl, cl
  00bef	8b 8d 78 fc ff
	ff		 mov	 ecx, DWORD PTR _i$528960[ebp]
  00bf5	30 94 0d ec fd
	ff ff		 xor	 BYTE PTR __k$528971[ebp+ecx], dl
  00bfc	ff 85 78 fc ff
	ff		 inc	 DWORD PTR _i$528960[ebp]
  00c02	83 bd 78 fc ff
	ff 16		 cmp	 DWORD PTR _i$528960[ebp], 22 ; 00000016H
  00c09	7c cd		 jl	 SHORT $LL1941@LoadProper
  00c0b	89 85 78 fc ff
	ff		 mov	 DWORD PTR tv31549[ebp], eax
  00c11	db 85 78 fc ff
	ff		 fild	 DWORD PTR tv31549[ebp]
  00c17	85 c0		 test	 eax, eax
  00c19	79 06		 jns	 SHORT $LN3726@LoadProper
  00c1b	d8 05 00 00 00
	00		 fadd	 DWORD PTR __real@4f800000
$LN3726@LoadProper:
  00c21	51		 push	 ecx
  00c22	8d 85 ec fd ff
	ff		 lea	 eax, DWORD PTR __k$528971[ebp]
  00c28	d9 1c 24	 fstp	 DWORD PTR [esp]
  00c2b	50		 push	 eax
  00c2c	8b cf		 mov	 ecx, edi
  00c2e	ff 15 00 00 00
	00		 call	 DWORD PTR __imp_?LoadFloat@ioINILoader@@QAEMPBDM@Z
  00c34	d9 9e d0 09 00
	00		 fstp	 DWORD PTR [esi+2512]

; 68   : 	m_BoundDamage.m_fMinRate	= rkLoader.LoadFloat_e( "bound_damage_min_rate", FLOAT1 );

  00c3a	b8 01 00 00 00	 mov	 eax, 1
  00c3f	6a 05		 push	 5
  00c41	c7 85 5c fe ff
	ff 8f 83 9e 84	 mov	 DWORD PTR __k$529082[ebp], -2069986417 ; 849e838fH
  00c4b	c7 85 60 fe ff
	ff 89 b3 8f 8b	 mov	 DWORD PTR __k$529082[ebp+4], -1953516663 ; 8b8fb389H
  00c55	c7 85 64 fe ff
	ff 80 8d 8c 8f	 mov	 DWORD PTR __k$529082[ebp+8], -1886614144 ; 8f8c8d80H
  00c5f	c7 85 68 fe ff
	ff b2 81 82 84	 mov	 DWORD PTR __k$529082[ebp+12], -2071821902 ; 848281b2H
  00c69	c7 85 6c fe ff
	ff b2 9e 8a 9e	 mov	 DWORD PTR __k$529082[ebp+16], -1635082574 ; 9e8a9eb2H
  00c73	8d 8d 5c fe ff
	ff		 lea	 ecx, DWORD PTR __k$529082[ebp]
  00c79	66 c7 85 70 fe
	ff ff 88 00	 mov	 WORD PTR __k$529082[ebp+20], 136 ; 00000088H
  00c82	5a		 pop	 edx
$LL2052@LoadProper:
  00c83	81 31 ed ec eb
	ea		 xor	 DWORD PTR [ecx], -353637139 ; eaebecedH
  00c89	83 c1 04	 add	 ecx, 4
  00c8c	4a		 dec	 edx
  00c8d	75 f4		 jne	 SHORT $LL2052@LoadProper
  00c8f	80 b5 70 fe ff
	ff ed		 xor	 BYTE PTR __k$529082[ebp+20], -19 ; ffffffedH
  00c96	89 85 78 fc ff
	ff		 mov	 DWORD PTR tv31541[ebp], eax
  00c9c	db 85 78 fc ff
	ff		 fild	 DWORD PTR tv31541[ebp]
  00ca2	85 c0		 test	 eax, eax
  00ca4	79 06		 jns	 SHORT $LN3727@LoadProper
  00ca6	d8 05 00 00 00
	00		 fadd	 DWORD PTR __real@4f800000
$LN3727@LoadProper:
  00cac	51		 push	 ecx
  00cad	8d 85 5c fe ff
	ff		 lea	 eax, DWORD PTR __k$529082[ebp]
  00cb3	d9 1c 24	 fstp	 DWORD PTR [esp]
  00cb6	50		 push	 eax
  00cb7	8b cf		 mov	 ecx, edi
  00cb9	ff 15 00 00 00
	00		 call	 DWORD PTR __imp_?LoadFloat@ioINILoader@@QAEMPBDM@Z
  00cbf	d9 9e d8 09 00
	00		 fstp	 DWORD PTR [esi+2520]

; 69   : 	m_BoundDamage.m_fMaxRate	= rkLoader.LoadFloat_e( "bound_damage_max_rate", FLOAT1 );

  00cc5	b8 01 00 00 00	 mov	 eax, 1
  00cca	6a 05		 push	 5
  00ccc	c7 85 78 fe ff
	ff 8f 83 9e 84	 mov	 DWORD PTR __k$529211[ebp], -2069986417 ; 849e838fH
  00cd6	c7 85 7c fe ff
	ff 89 b3 8f 8b	 mov	 DWORD PTR __k$529211[ebp+4], -1953516663 ; 8b8fb389H
  00ce0	c7 85 80 fe ff
	ff 80 8d 8c 8f	 mov	 DWORD PTR __k$529211[ebp+8], -1886614144 ; 8f8c8d80H
  00cea	c7 85 84 fe ff
	ff b2 81 8a 92	 mov	 DWORD PTR __k$529211[ebp+12], -1836416590 ; 928a81b2H
  00cf4	c7 85 88 fe ff
