; Listing generated by Microsoft (R) Optimizing Compiler Version 16.00.30319.01 

	TITLE	D:\Lost Saga For Developer\Youtube\Tutorial\Source\src\LSClient\ioAIBrain.cpp
	.686P
	.XMM
	include listing.inc
	.model	flat

INCLUDELIB MSVCRT
INCLUDELIB OLDNAMES

PUBLIC	??_7bad_alloc@std@@6B@				; std::bad_alloc::`vftable'
PUBLIC	??0bad_alloc@std@@QAE@PBD@Z			; std::bad_alloc::bad_alloc
PUBLIC	??_R4bad_alloc@std@@6B@				; std::bad_alloc::`RTTI Complete Object Locator'
PUBLIC	??_R0?AVbad_alloc@std@@@8			; std::bad_alloc `RTTI Type Descriptor'
PUBLIC	??_R3bad_alloc@std@@8				; std::bad_alloc::`RTTI Class Hierarchy Descriptor'
PUBLIC	??_R2bad_alloc@std@@8				; std::bad_alloc::`RTTI Base Class Array'
PUBLIC	??_R1A@?0A@EA@bad_alloc@std@@8			; std::bad_alloc::`RTTI Base Class Descriptor at (0,-1,0,64)'
PUBLIC	??_R1A@?0A@EA@exception@std@@8			; std::exception::`RTTI Base Class Descriptor at (0,-1,0,64)'
PUBLIC	??_R0?AVexception@std@@@8			; std::exception `RTTI Type Descriptor'
PUBLIC	??_R3exception@std@@8				; std::exception::`RTTI Class Hierarchy Descriptor'
PUBLIC	??_R2exception@std@@8				; std::exception::`RTTI Base Class Array'
EXTRN	__imp_??0exception@std@@QAE@ABQBD@Z:PROC
EXTRN	??_7type_info@@6B@:QWORD			; type_info::`vftable'
EXTRN	??_Ebad_alloc@std@@UAEPAXI@Z:PROC		; std::bad_alloc::`vector deleting destructor'
EXTRN	?what@exception@std@@UBEPBDXZ:PROC		; std::exception::what
;	COMDAT ??_R2exception@std@@8
; File c:\program files (x86)\microsoft visual studio 10.0\vc\include\exception
rdata$r	SEGMENT
??_R2exception@std@@8 DD FLAT:??_R1A@?0A@EA@exception@std@@8 ; std::exception::`RTTI Base Class Array'
rdata$r	ENDS
;	COMDAT ??_R3exception@std@@8
rdata$r	SEGMENT
??_R3exception@std@@8 DD 00H				; std::exception::`RTTI Class Hierarchy Descriptor'
	DD	00H
	DD	01H
	DD	FLAT:??_R2exception@std@@8
rdata$r	ENDS
;	COMDAT ??_R0?AVexception@std@@@8
_DATA	SEGMENT
??_R0?AVexception@std@@@8 DD FLAT:??_7type_info@@6B@	; std::exception `RTTI Type Descriptor'
	DD	00H
	DB	'.?AVexception@std@@', 00H
_DATA	ENDS
;	COMDAT ??_R1A@?0A@EA@exception@std@@8
rdata$r	SEGMENT
??_R1A@?0A@EA@exception@std@@8 DD FLAT:??_R0?AVexception@std@@@8 ; std::exception::`RTTI Base Class Descriptor at (0,-1,0,64)'
	DD	00H
	DD	00H
	DD	0ffffffffH
	DD	00H
	DD	040H
	DD	FLAT:??_R3exception@std@@8
rdata$r	ENDS
;	COMDAT ??_R1A@?0A@EA@bad_alloc@std@@8
rdata$r	SEGMENT
??_R1A@?0A@EA@bad_alloc@std@@8 DD FLAT:??_R0?AVbad_alloc@std@@@8 ; std::bad_alloc::`RTTI Base Class Descriptor at (0,-1,0,64)'
	DD	01H
	DD	00H
	DD	0ffffffffH
	DD	00H
	DD	040H
	DD	FLAT:??_R3bad_alloc@std@@8
rdata$r	ENDS
;	COMDAT ??_R2bad_alloc@std@@8
rdata$r	SEGMENT
??_R2bad_alloc@std@@8 DD FLAT:??_R1A@?0A@EA@bad_alloc@std@@8 ; std::bad_alloc::`RTTI Base Class Array'
	DD	FLAT:??_R1A@?0A@EA@exception@std@@8
rdata$r	ENDS
;	COMDAT ??_R3bad_alloc@std@@8
rdata$r	SEGMENT
??_R3bad_alloc@std@@8 DD 00H				; std::bad_alloc::`RTTI Class Hierarchy Descriptor'
	DD	00H
	DD	02H
	DD	FLAT:??_R2bad_alloc@std@@8
rdata$r	ENDS
;	COMDAT ??_R0?AVbad_alloc@std@@@8
_DATA	SEGMENT
??_R0?AVbad_alloc@std@@@8 DD FLAT:??_7type_info@@6B@	; std::bad_alloc `RTTI Type Descriptor'
	DD	00H
	DB	'.?AVbad_alloc@std@@', 00H
_DATA	ENDS
;	COMDAT ??_R4bad_alloc@std@@6B@
rdata$r	SEGMENT
??_R4bad_alloc@std@@6B@ DD 00H				; std::bad_alloc::`RTTI Complete Object Locator'
	DD	00H
	DD	00H
	DD	FLAT:??_R0?AVbad_alloc@std@@@8
	DD	FLAT:??_R3bad_alloc@std@@8
rdata$r	ENDS
;	COMDAT ??_7bad_alloc@std@@6B@
CONST	SEGMENT
??_7bad_alloc@std@@6B@ DD FLAT:??_R4bad_alloc@std@@6B@	; std::bad_alloc::`vftable'
	DD	FLAT:??_Ebad_alloc@std@@UAEPAXI@Z
	DD	FLAT:?what@exception@std@@UBEPBDXZ
; Function compile flags: /Ogsp
CONST	ENDS
;	COMDAT ??0bad_alloc@std@@QAE@PBD@Z
_TEXT	SEGMENT
__Message$ = 8						; size = 4
??0bad_alloc@std@@QAE@PBD@Z PROC			; std::bad_alloc::bad_alloc, COMDAT
; _this$ = ecx

; 345  : 		{	// construct from message string

  00000	55		 push	 ebp
  00001	8b ec		 mov	 ebp, esp
  00003	56		 push	 esi
  00004	8d 45 08	 lea	 eax, DWORD PTR __Message$[ebp]
  00007	50		 push	 eax
  00008	8b f1		 mov	 esi, ecx
  0000a	ff 15 00 00 00
	00		 call	 DWORD PTR __imp_??0exception@std@@QAE@ABQBD@Z
  00010	c7 06 00 00 00
	00		 mov	 DWORD PTR [esi], OFFSET ??_7bad_alloc@std@@6B@

; 346  : 		}

  00016	8b c6		 mov	 eax, esi
  00018	5e		 pop	 esi
  00019	5d		 pop	 ebp
  0001a	c2 04 00	 ret	 4
??0bad_alloc@std@@QAE@PBD@Z ENDP			; std::bad_alloc::bad_alloc
_TEXT	ENDS
PUBLIC	??1bad_alloc@std@@UAE@XZ			; std::bad_alloc::~bad_alloc
EXTRN	__imp_??1exception@std@@UAE@XZ:PROC
; Function compile flags: /Ogsp
;	COMDAT ??1bad_alloc@std@@UAE@XZ
_TEXT	SEGMENT
??1bad_alloc@std@@UAE@XZ PROC				; std::bad_alloc::~bad_alloc, COMDAT
; _this$ = ecx

; 354  : 		{	// destroy the object

  00000	c7 01 00 00 00
	00		 mov	 DWORD PTR [ecx], OFFSET ??_7bad_alloc@std@@6B@

; 355  : 		}

  00006	ff 25 00 00 00
	00		 jmp	 DWORD PTR __imp_??1exception@std@@UAE@XZ
??1bad_alloc@std@@UAE@XZ ENDP				; std::bad_alloc::~bad_alloc
_TEXT	ENDS
EXTRN	??3@YAXPAX@Z:PROC				; operator delete
; Function compile flags: /Ogsp
;	COMDAT ??_Gbad_alloc@std@@UAEPAXI@Z
_TEXT	SEGMENT
___flags$ = 8						; size = 4
??_Gbad_alloc@std@@UAEPAXI@Z PROC			; std::bad_alloc::`scalar deleting destructor', COMDAT
; _this$ = ecx
  00000	55		 push	 ebp
  00001	8b ec		 mov	 ebp, esp
  00003	56		 push	 esi
  00004	8b f1		 mov	 esi, ecx
  00006	c7 06 00 00 00
	00		 mov	 DWORD PTR [esi], OFFSET ??_7bad_alloc@std@@6B@
  0000c	ff 15 00 00 00
	00		 call	 DWORD PTR __imp_??1exception@std@@UAE@XZ
  00012	f6 45 08 01	 test	 BYTE PTR ___flags$[ebp], 1
  00016	74 07		 je	 SHORT $LN1@scalar
  00018	56		 push	 esi
  00019	e8 00 00 00 00	 call	 ??3@YAXPAX@Z		; operator delete
  0001e	59		 pop	 ecx
$LN1@scalar:
  0001f	8b c6		 mov	 eax, esi
  00021	5e		 pop	 esi
  00022	5d		 pop	 ebp
  00023	c2 04 00	 ret	 4
??_Gbad_alloc@std@@UAEPAXI@Z ENDP			; std::bad_alloc::`scalar deleting destructor'
_TEXT	ENDS
PUBLIC	?GetCurTarget@ioChampionAI@@QAEPAVioBaseChar@@XZ ; ioChampionAI::GetCurTarget
; Function compile flags: /Ogsp
; File d:\lost saga for developer\youtube\tutorial\source\src\lsclient\iochampionai.h
;	COMDAT ?GetCurTarget@ioChampionAI@@QAEPAVioBaseChar@@XZ
_TEXT	SEGMENT
?GetCurTarget@ioChampionAI@@QAEPAVioBaseChar@@XZ PROC	; ioChampionAI::GetCurTarget, COMDAT
; _this$ = ecx

; 38   : 	ioBaseChar*	GetCurTarget()	{ return m_pCurTarget; }

  00000	8b 81 f8 02 00
	00		 mov	 eax, DWORD PTR [ecx+760]
  00006	c3		 ret	 0
?GetCurTarget@ioChampionAI@@QAEPAVioBaseChar@@XZ ENDP	; ioChampionAI::GetCurTarget
_TEXT	ENDS
PUBLIC	??_GioAIStateMachine@@QAEPAXI@Z			; ioAIStateMachine::`scalar deleting destructor'
EXTRN	??1ioAIStateMachine@@QAE@XZ:PROC		; ioAIStateMachine::~ioAIStateMachine
; Function compile flags: /Ogsp
;	COMDAT ??_GioAIStateMachine@@QAEPAXI@Z
_TEXT	SEGMENT
___flags$ = 8						; size = 4
??_GioAIStateMachine@@QAEPAXI@Z PROC			; ioAIStateMachine::`scalar deleting destructor', COMDAT
; _this$ = ecx
  00000	55		 push	 ebp
  00001	8b ec		 mov	 ebp, esp
  00003	56		 push	 esi
  00004	8b f1		 mov	 esi, ecx
  00006	e8 00 00 00 00	 call	 ??1ioAIStateMachine@@QAE@XZ ; ioAIStateMachine::~ioAIStateMachine
  0000b	f6 45 08 01	 test	 BYTE PTR ___flags$[ebp], 1
  0000f	74 07		 je	 SHORT $LN1@scalar@2
  00011	56		 push	 esi
  00012	e8 00 00 00 00	 call	 ??3@YAXPAX@Z		; operator delete
  00017	59		 pop	 ecx
$LN1@scalar@2:
  00018	8b c6		 mov	 eax, esi
  0001a	5e		 pop	 esi
  0001b	5d		 pop	 ebp
  0001c	c2 04 00	 ret	 4
??_GioAIStateMachine@@QAEPAXI@Z ENDP			; ioAIStateMachine::`scalar deleting destructor'
_TEXT	ENDS
PUBLIC	?ProcessAI@ioAIBrain@@QAE_NPAVioChampionAI@@@Z	; ioAIBrain::ProcessAI
EXTRN	?ProcessAI@ioAIStateMachine@@QAE_NAAPAVioBaseChar@@PAVioChampionAI@@@Z:PROC ; ioAIStateMachine::ProcessAI
; Function compile flags: /Ogsp
; File d:\lost saga for developer\youtube\tutorial\source\src\lsclient\ioaibrain.cpp
;	COMDAT ?ProcessAI@ioAIBrain@@QAE_NPAVioChampionAI@@@Z
_TEXT	SEGMENT
_pCAI$ = 8						; size = 4
?ProcessAI@ioAIBrain@@QAE_NPAVioChampionAI@@@Z PROC	; ioAIBrain::ProcessAI, COMDAT
; _this$ = ecx

; 51   : {

  00000	55		 push	 ebp
  00001	8b ec		 mov	 ebp, esp

; 52   : 	m_pTarget = pCAI->GetCurTarget();

  00003	8b 55 08	 mov	 edx, DWORD PTR _pCAI$[ebp]
  00006	56		 push	 esi
  00007	8b b2 f8 02 00
	00		 mov	 esi, DWORD PTR [edx+760]
  0000d	8d 41 04	 lea	 eax, DWORD PTR [ecx+4]

; 53   : 	if( m_pFSM )

  00010	8b 09		 mov	 ecx, DWORD PTR [ecx]
  00012	89 30		 mov	 DWORD PTR [eax], esi
  00014	5e		 pop	 esi
  00015	85 c9		 test	 ecx, ecx
  00017	74 09		 je	 SHORT $LN2@ProcessAI

; 54   : 		return m_pFSM->ProcessAI( m_pTarget, pCAI );

  00019	52		 push	 edx
  0001a	50		 push	 eax
  0001b	e8 00 00 00 00	 call	 ?ProcessAI@ioAIStateMachine@@QAE_NAAPAVioBaseChar@@PAVioChampionAI@@@Z ; ioAIStateMachine::ProcessAI
  00020	eb 02		 jmp	 SHORT $LN1@ProcessAI
$LN2@ProcessAI:

; 55   : 	else
; 56   : 		return false;

  00022	32 c0		 xor	 al, al
$LN1@ProcessAI:

; 57   : }

  00024	5d		 pop	 ebp
  00025	c2 04 00	 ret	 4
?ProcessAI@ioAIBrain@@QAE_NPAVioChampionAI@@@Z ENDP	; ioAIBrain::ProcessAI
_TEXT	ENDS
PUBLIC	?ResetCurrentBvT@ioAIBrain@@QAEXXZ		; ioAIBrain::ResetCurrentBvT
EXTRN	?ResetCurrentBvT@ioAIStateMachine@@QAEXXZ:PROC	; ioAIStateMachine::ResetCurrentBvT
; Function compile flags: /Ogsp
;	COMDAT ?ResetCurrentBvT@ioAIBrain@@QAEXXZ
_TEXT	SEGMENT
?ResetCurrentBvT@ioAIBrain@@QAEXXZ PROC			; ioAIBrain::ResetCurrentBvT, COMDAT
; _this$ = ecx

; 61   : 	if( m_pFSM )

  00000	8b 09		 mov	 ecx, DWORD PTR [ecx]
  00002	85 c9		 test	 ecx, ecx
  00004	74 05		 je	 SHORT $LN1@ResetCurre

; 62   : 		m_pFSM->ResetCurrentBvT();

  00006	e9 00 00 00 00	 jmp	 ?ResetCurrentBvT@ioAIStateMachine@@QAEXXZ ; ioAIStateMachine::ResetCurrentBvT
$LN1@ResetCurre:

; 63   : }

  0000b	c3		 ret	 0
?ResetCurrentBvT@ioAIBrain@@QAEXXZ ENDP			; ioAIBrain::ResetCurrentBvT
_TEXT	ENDS
PUBLIC	?IsDebugging@ioAIBrain@@QAE_NW4AIDebugType@1@@Z	; ioAIBrain::IsDebugging
; Function compile flags: /Ogsp
;	COMDAT ?IsDebugging@ioAIBrain@@QAE_NW4AIDebugType@1@@Z
_TEXT	SEGMENT
_type$ = 8						; size = 4
?IsDebugging@ioAIBrain@@QAE_NW4AIDebugType@1@@Z PROC	; ioAIBrain::IsDebugging, COMDAT
; _this$ = ecx

; 66   : {

  00000	55		 push	 ebp
  00001	8b ec		 mov	 ebp, esp

; 67   : 	long t = m_iCurDebug & type;

  00003	8b 41 08	 mov	 eax, DWORD PTR [ecx+8]
  00006	23 45 08	 and	 eax, DWORD PTR _type$[ebp]

; 68   : 
; 69   : 	//if( t != 0 ) LOG.PrintTimeAndLog( 0, "DEBUGGING = %d", t );
; 70   : 
; 71   : 	return ( t != 0 );

  00009	f7 d8		 neg	 eax
  0000b	1b c0		 sbb	 eax, eax
  0000d	f7 d8		 neg	 eax

; 72   : }

  0000f	5d		 pop	 ebp
  00010	c2 04 00	 ret	 4
?IsDebugging@ioAIBrain@@QAE_NW4AIDebugType@1@@Z ENDP	; ioAIBrain::IsDebugging
_TEXT	ENDS
PUBLIC	__real@bf800000
PUBLIC	?ChangeTarget@ioAIBrain@@QAEXPAVioChampionAI@@@Z ; ioAIBrain::ChangeTarget
EXTRN	?SetCurTarget@ioChampionAI@@QAEXPAVioBaseChar@@@Z:PROC ; ioChampionAI::SetCurTarget
EXTRN	?FindClosestTarget@ioChampionAI@@QAEPAVioBaseChar@@ABM@Z:PROC ; ioChampionAI::FindClosestTarget
EXTRN	__fltused:DWORD
;	COMDAT __real@bf800000
CONST	SEGMENT
__real@bf800000 DD 0bf800000r			; -1
; Function compile flags: /Ogsp
CONST	ENDS
;	COMDAT ?ChangeTarget@ioAIBrain@@QAEXPAVioChampionAI@@@Z
_TEXT	SEGMENT
$T520557 = -4						; size = 4
_pCAI$ = 8						; size = 4
?ChangeTarget@ioAIBrain@@QAEXPAVioChampionAI@@@Z PROC	; ioAIBrain::ChangeTarget, COMDAT
; _this$ = ecx

; 74   : {

  00000	55		 push	 ebp
  00001	8b ec		 mov	 ebp, esp
  00003	51		 push	 ecx

; 75   : 	ioBaseChar* pNewTarget = pCAI->FindClosestTarget();

  00004	f3 0f 10 05 00
	00 00 00	 movss	 xmm0, DWORD PTR __real@bf800000
  0000c	8b 4d 08	 mov	 ecx, DWORD PTR _pCAI$[ebp]
  0000f	8d 45 fc	 lea	 eax, DWORD PTR $T520557[ebp]
  00012	50		 push	 eax
  00013	f3 0f 11 45 fc	 movss	 DWORD PTR $T520557[ebp], xmm0
  00018	e8 00 00 00 00	 call	 ?FindClosestTarget@ioChampionAI@@QAEPAVioBaseChar@@ABM@Z ; ioChampionAI::FindClosestTarget

; 76   : 	// NULL 이라도 들어가야 됨
; 77   : 	pCAI->SetCurTarget( pNewTarget );

  0001d	8b 4d 08	 mov	 ecx, DWORD PTR _pCAI$[ebp]
  00020	50		 push	 eax
  00021	e8 00 00 00 00	 call	 ?SetCurTarget@ioChampionAI@@QAEXPAVioBaseChar@@@Z ; ioChampionAI::SetCurTarget

; 78   : }

  00026	c9		 leave
  00027	c2 04 00	 ret	 4
?ChangeTarget@ioAIBrain@@QAEXPAVioChampionAI@@@Z ENDP	; ioAIBrain::ChangeTarget
_TEXT	ENDS
PUBLIC	?length@?$char_traits@D@std@@SAIPBD@Z		; std::char_traits<char>::length
; Function compile flags: /Ogsp
; File c:\program files (x86)\microsoft visual studio 10.0\vc\include\iosfwd
;	COMDAT ?length@?$char_traits@D@std@@SAIPBD@Z
_TEXT	SEGMENT
__First$ = 8						; size = 4
?length@?$char_traits@D@std@@SAIPBD@Z PROC		; std::char_traits<char>::length, COMDAT

; 490  : 		{	// find length of null-terminated string

  00000	55		 push	 ebp
  00001	8b ec		 mov	 ebp, esp

; 491  : 		return (_CSTD strlen(_First));

  00003	8b 45 08	 mov	 eax, DWORD PTR __First$[ebp]
  00006	8d 50 01	 lea	 edx, DWORD PTR [eax+1]
$LL3@length:
  00009	8a 08		 mov	 cl, BYTE PTR [eax]
  0000b	40		 inc	 eax
  0000c	84 c9		 test	 cl, cl
  0000e	75 f9		 jne	 SHORT $LL3@length
  00010	2b c2		 sub	 eax, edx

; 492  : 		}

  00012	5d		 pop	 ebp
  00013	c3		 ret	 0
?length@?$char_traits@D@std@@SAIPBD@Z ENDP		; std::char_traits<char>::length
_TEXT	ENDS
PUBLIC	?copy@?$char_traits@D@std@@SAPADPADPBDI@Z	; std::char_traits<char>::copy
EXTRN	_memcpy:PROC
; Function compile flags: /Ogsp
;	COMDAT ?copy@?$char_traits@D@std@@SAPADPADPBDI@Z
_TEXT	SEGMENT
__First1$ = 8						; size = 4
__First2$ = 12						; size = 4
__Count$ = 16						; size = 4
?copy@?$char_traits@D@std@@SAPADPADPBDI@Z PROC		; std::char_traits<char>::copy, COMDAT

; 496  : 		{	// copy [_First1, _First1 + _Count) to [_First2, ...)

  00000	55		 push	 ebp
  00001	8b ec		 mov	 ebp, esp

; 498  : 		}

  00003	5d		 pop	 ebp

; 497  : 		return ((_Elem *)_CSTD memcpy(_First1, _First2, _Count));

  00004	e9 00 00 00 00	 jmp	 _memcpy
?copy@?$char_traits@D@std@@SAPADPADPBDI@Z ENDP		; std::char_traits<char>::copy
_TEXT	ENDS
PUBLIC	?move@?$char_traits@D@std@@SAPADPADPBDI@Z	; std::char_traits<char>::move
EXTRN	__imp__memmove:PROC
; Function compile flags: /Ogsp
;	COMDAT ?move@?$char_traits@D@std@@SAPADPADPBDI@Z
_TEXT	SEGMENT
__First1$ = 8						; size = 4
__First2$ = 12						; size = 4
__Count$ = 16						; size = 4
?move@?$char_traits@D@std@@SAPADPADPBDI@Z PROC		; std::char_traits<char>::move, COMDAT

; 516  : 		{	// copy [_First1, _First1 + _Count) to [_First2, ...)

  00000	55		 push	 ebp
  00001	8b ec		 mov	 ebp, esp

; 518  : 		}

  00003	5d		 pop	 ebp

; 517  : 		return ((_Elem *)_CSTD memmove(_First1, _First2, _Count));

  00004	ff 25 00 00 00
	00		 jmp	 DWORD PTR __imp__memmove
?move@?$char_traits@D@std@@SAPADPADPBDI@Z ENDP		; std::char_traits<char>::move
_TEXT	ENDS
PUBLIC	?assign@?$char_traits@D@std@@SAXAADABD@Z	; std::char_traits<char>::assign
; Function compile flags: /Ogsp
;	COMDAT ?assign@?$char_traits@D@std@@SAXAADABD@Z
_TEXT	SEGMENT
__Left$ = 8						; size = 4
__Right$ = 12						; size = 4
?assign@?$char_traits@D@std@@SAXAADABD@Z PROC		; std::char_traits<char>::assign, COMDAT

; 526  : 		{	// assign an element

  00000	55		 push	 ebp
  00001	8b ec		 mov	 ebp, esp

; 527  : 		_Left = _Right;

  00003	8b 45 0c	 mov	 eax, DWORD PTR __Right$[ebp]
  00006	8a 00		 mov	 al, BYTE PTR [eax]
  00008	8b 4d 08	 mov	 ecx, DWORD PTR __Left$[ebp]
  0000b	88 01		 mov	 BYTE PTR [ecx], al

; 528  : 		}

  0000d	5d		 pop	 ebp
  0000e	c3		 ret	 0
?assign@?$char_traits@D@std@@SAXAADABD@Z ENDP		; std::char_traits<char>::assign
_TEXT	ENDS
PUBLIC	?_DECSTR@@YAXPADH@Z				; _DECSTR
; Function compile flags: /Ogsp
; File d:\lost saga for developer\youtube\tutorial\source\src\lsclient\stringprotect.h
;	COMDAT ?_DECSTR@@YAXPADH@Z
_TEXT	SEGMENT
_s$ = 8							; size = 4
_l$ = 12						; size = 4
?_DECSTR@@YAXPADH@Z PROC				; _DECSTR, COMDAT

; 40   : __forceinline void _DECSTR(char* s, int l){int i=0,l4=(l-1)/4,*p=(int*)s;s[l-1]=0;for(;i<l4;++i)*(p++)^=0xEAEBECED;for(i=l4*4;i<l-1;++i)s[i]^=0xED-i%4;}

  00000	55		 push	 ebp
  00001	8b ec		 mov	 ebp, esp
  00003	8b 4d 0c	 mov	 ecx, DWORD PTR _l$[ebp]
  00006	56		 push	 esi
  00007	8b 75 08	 mov	 esi, DWORD PTR _s$[ebp]
  0000a	57		 push	 edi
  0000b	8d 79 ff	 lea	 edi, DWORD PTR [ecx-1]
  0000e	8b c7		 mov	 eax, edi
  00010	99		 cdq
  00011	83 e2 03	 and	 edx, 3
  00014	03 c2		 add	 eax, edx
  00016	c1 f8 02	 sar	 eax, 2
  00019	8b d6		 mov	 edx, esi
  0001b	c6 44 0e ff 00	 mov	 BYTE PTR [esi+ecx-1], 0
  00020	85 c0		 test	 eax, eax
  00022	7e 0e		 jle	 SHORT $LN4@DECSTR
  00024	8b c8		 mov	 ecx, eax
$LL6@DECSTR:
  00026	81 32 ed ec eb
	ea		 xor	 DWORD PTR [edx], -353637139 ; eaebecedH
  0002c	83 c2 04	 add	 edx, 4
  0002f	49		 dec	 ecx
  00030	75 f4		 jne	 SHORT $LL6@DECSTR
$LN4@DECSTR:
  00032	c1 e0 02	 shl	 eax, 2
  00035	eb 17		 jmp	 SHORT $LN14@DECSTR
$LL3@DECSTR:
  00037	8b c8		 mov	 ecx, eax
  00039	81 e1 03 00 00
	80		 and	 ecx, -2147483645	; 80000003H
  0003f	79 05		 jns	 SHORT $LN13@DECSTR
  00041	49		 dec	 ecx
  00042	83 c9 fc	 or	 ecx, -4			; fffffffcH
  00045	41		 inc	 ecx
$LN13@DECSTR:
  00046	b2 ed		 mov	 dl, -19			; ffffffedH
  00048	2a d1		 sub	 dl, cl
  0004a	30 14 30	 xor	 BYTE PTR [eax+esi], dl
  0004d	40		 inc	 eax
$LN14@DECSTR:
  0004e	3b c7		 cmp	 eax, edi
  00050	7c e5		 jl	 SHORT $LL3@DECSTR
  00052	5f		 pop	 edi
  00053	5e		 pop	 esi
  00054	5d		 pop	 ebp
  00055	c3		 ret	 0
?_DECSTR@@YAXPADH@Z ENDP				; _DECSTR
_TEXT	ENDS
PUBLIC	?size@?$basic_string@DU?$char_traits@D@std@@V?$allocator@D@2@@std@@QBEIXZ ; std::basic_string<char,std::char_traits<char>,std::allocator<char> >::size
; Function compile flags: /Ogsp
; File c:\program files (x86)\microsoft visual studio 10.0\vc\include\xstring
;	COMDAT ?size@?$basic_string@DU?$char_traits@D@std@@V?$allocator@D@2@@std@@QBEIXZ
_TEXT	SEGMENT
?size@?$basic_string@DU?$char_traits@D@std@@V?$allocator@D@2@@std@@QBEIXZ PROC ; std::basic_string<char,std::char_traits<char>,std::allocator<char> >::size, COMDAT
; _this$ = ecx

; 1512 : 		return (this->_Mysize);

  00000	8b 41 10	 mov	 eax, DWORD PTR [ecx+16]

; 1513 : 		}

  00003	c3		 ret	 0
?size@?$basic_string@DU?$char_traits@D@std@@V?$allocator@D@2@@std@@QBEIXZ ENDP ; std::basic_string<char,std::char_traits<char>,std::allocator<char> >::size
_TEXT	ENDS
PUBLIC	?_Myptr@?$basic_string@DU?$char_traits@D@std@@V?$allocator@D@2@@std@@QBEPBDXZ ; std::basic_string<char,std::char_traits<char>,std::allocator<char> >::_Myptr
; Function compile flags: /Ogsp
;	COMDAT ?_Myptr@?$basic_string@DU?$char_traits@D@std@@V?$allocator@D@2@@std@@QBEPBDXZ
_TEXT	SEGMENT
?_Myptr@?$basic_string@DU?$char_traits@D@std@@V?$allocator@D@2@@std@@QBEPBDXZ PROC ; std::basic_string<char,std::char_traits<char>,std::allocator<char> >::_Myptr, COMDAT
; _this$ = ecx

; 2010 : 		return (this->_BUF_SIZE <= this->_Myres ? this->_Bx._Ptr
; 2011 : 			: this->_Bx._Buf);

  00000	83 79 14 10	 cmp	 DWORD PTR [ecx+20], 16	; 00000010H
  00004	72 03		 jb	 SHORT $LN3@Myptr
  00006	8b 01		 mov	 eax, DWORD PTR [ecx]

; 2012 : 		}

  00008	c3		 ret	 0
$LN3@Myptr:

; 2010 : 		return (this->_BUF_SIZE <= this->_Myres ? this->_Bx._Ptr
; 2011 : 			: this->_Bx._Buf);

  00009	8b c1		 mov	 eax, ecx

; 2012 : 		}

  0000b	c3		 ret	 0
?_Myptr@?$basic_string@DU?$char_traits@D@std@@V?$allocator@D@2@@std@@QBEPBDXZ ENDP ; std::basic_string<char,std::char_traits<char>,std::allocator<char> >::_Myptr
_TEXT	ENDS
PUBLIC	??1?$_String_val@DV?$allocator@D@std@@@std@@QAE@XZ ; std::_String_val<char,std::allocator<char> >::~_String_val<char,std::allocator<char> >
; Function compile flags: /Ogsp
;	COMDAT ??1?$_String_val@DV?$allocator@D@std@@@std@@QAE@XZ
_TEXT	SEGMENT
??1?$_String_val@DV?$allocator@D@std@@@std@@QAE@XZ PROC	; std::_String_val<char,std::allocator<char> >::~_String_val<char,std::allocator<char> >, COMDAT
; _this$ = ecx

; 459  : 		}

  00000	c3		 ret	 0
??1?$_String_val@DV?$allocator@D@std@@@std@@QAE@XZ ENDP	; std::_String_val<char,std::allocator<char> >::~_String_val<char,std::allocator<char> >
_TEXT	ENDS
PUBLIC	??0?$allocator@D@std@@QAE@XZ			; std::allocator<char>::allocator<char>
; Function compile flags: /Ogsp
; File c:\program files (x86)\microsoft visual studio 10.0\vc\include\xmemory
;	COMDAT ??0?$allocator@D@std@@QAE@XZ
_TEXT	SEGMENT
??0?$allocator@D@std@@QAE@XZ PROC			; std::allocator<char>::allocator<char>, COMDAT
; _this$ = ecx

; 161  : 	_ALLOCATOR() _THROW0()

  00000	8b c1		 mov	 eax, ecx

; 162  : 		{	// construct default allocator (do nothing)
; 163  : 		}

  00002	c3		 ret	 0
??0?$allocator@D@std@@QAE@XZ ENDP			; std::allocator<char>::allocator<char>
_TEXT	ENDS
PUBLIC	??0?$allocator@D@std@@QAE@ABV01@@Z		; std::allocator<char>::allocator<char>
; Function compile flags: /Ogsp
;	COMDAT ??0?$allocator@D@std@@QAE@ABV01@@Z
_TEXT	SEGMENT
___formal$ = 8						; size = 4
??0?$allocator@D@std@@QAE@ABV01@@Z PROC			; std::allocator<char>::allocator<char>, COMDAT
; _this$ = ecx

; 165  : 	_ALLOCATOR(const _ALLOCATOR<_Ty>&) _THROW0()

  00000	8b c1		 mov	 eax, ecx

; 166  : 		{	// construct by copying (do nothing)
; 167  : 		}

  00002	c2 04 00	 ret	 4
??0?$allocator@D@std@@QAE@ABV01@@Z ENDP			; std::allocator<char>::allocator<char>
_TEXT	ENDS
PUBLIC	?_Myptr@?$basic_string@DU?$char_traits@D@std@@V?$allocator@D@2@@std@@QAEPADXZ ; std::basic_string<char,std::char_traits<char>,std::allocator<char> >::_Myptr
; Function compile flags: /Ogsp
; File c:\program files (x86)\microsoft visual studio 10.0\vc\include\xstring
;	COMDAT ?_Myptr@?$basic_string@DU?$char_traits@D@std@@V?$allocator@D@2@@std@@QAEPADXZ
_TEXT	SEGMENT
?_Myptr@?$basic_string@DU?$char_traits@D@std@@V?$allocator@D@2@@std@@QAEPADXZ PROC ; std::basic_string<char,std::char_traits<char>,std::allocator<char> >::_Myptr, COMDAT
; _this$ = ecx

; 2004 : 		return (this->_BUF_SIZE <= this->_Myres ? this->_Bx._Ptr
; 2005 : 			: this->_Bx._Buf);

  00000	83 79 14 10	 cmp	 DWORD PTR [ecx+20], 16	; 00000010H
  00004	72 03		 jb	 SHORT $LN3@Myptr@2
  00006	8b 01		 mov	 eax, DWORD PTR [ecx]

; 2006 : 		}

  00008	c3		 ret	 0
$LN3@Myptr@2:

; 2004 : 		return (this->_BUF_SIZE <= this->_Myres ? this->_Bx._Ptr
; 2005 : 			: this->_Bx._Buf);

  00009	8b c1		 mov	 eax, ecx

; 2006 : 		}

  0000b	c3		 ret	 0
?_Myptr@?$basic_string@DU?$char_traits@D@std@@V?$allocator@D@2@@std@@QAEPADXZ ENDP ; std::basic_string<char,std::char_traits<char>,std::allocator<char> >::_Myptr
_TEXT	ENDS
PUBLIC	??_C@_0BA@JFNIOLAK@string?5too?5long?$AA@	; `string'
PUBLIC	?_Xlen@?$basic_string@DU?$char_traits@D@std@@V?$allocator@D@2@@std@@QBEXXZ ; std::basic_string<char,std::char_traits<char>,std::allocator<char> >::_Xlen
EXTRN	__imp_?_Xlength_error@std@@YAXPBD@Z:PROC
;	COMDAT ??_C@_0BA@JFNIOLAK@string?5too?5long?$AA@
CONST	SEGMENT
??_C@_0BA@JFNIOLAK@string?5too?5long?$AA@ DB 'string too long', 00H ; `string'
; Function compile flags: /Ogsp
CONST	ENDS
;	COMDAT ?_Xlen@?$basic_string@DU?$char_traits@D@std@@V?$allocator@D@2@@std@@QBEXXZ
_TEXT	SEGMENT
?_Xlen@?$basic_string@DU?$char_traits@D@std@@V?$allocator@D@2@@std@@QBEXXZ PROC ; std::basic_string<char,std::char_traits<char>,std::allocator<char> >::_Xlen, COMDAT
; _this$ = ecx

; 2016 : 		_Xlength_error("string too long");

  00000	68 00 00 00 00	 push	 OFFSET ??_C@_0BA@JFNIOLAK@string?5too?5long?$AA@
  00005	ff 15 00 00 00
	00		 call	 DWORD PTR __imp_?_Xlength_error@std@@YAXPBD@Z
$LN4@Xlen:
$LN3@Xlen:
  0000b	cc		 int	 3
?_Xlen@?$basic_string@DU?$char_traits@D@std@@V?$allocator@D@2@@std@@QBEXXZ ENDP ; std::basic_string<char,std::char_traits<char>,std::allocator<char> >::_Xlen
_TEXT	ENDS
PUBLIC	??_C@_0BI@CFPLBAOH@invalid?5string?5position?$AA@ ; `string'
PUBLIC	?_Xran@?$basic_string@DU?$char_traits@D@std@@V?$allocator@D@2@@std@@QBEXXZ ; std::basic_string<char,std::char_traits<char>,std::allocator<char> >::_Xran
EXTRN	__imp_?_Xout_of_range@std@@YAXPBD@Z:PROC
;	COMDAT ??_C@_0BI@CFPLBAOH@invalid?5string?5position?$AA@
CONST	SEGMENT
??_C@_0BI@CFPLBAOH@invalid?5string?5position?$AA@ DB 'invalid string posi'
	DB	'tion', 00H					; `string'
; Function compile flags: /Ogsp
CONST	ENDS
;	COMDAT ?_Xran@?$basic_string@DU?$char_traits@D@std@@V?$allocator@D@2@@std@@QBEXXZ
_TEXT	SEGMENT
?_Xran@?$basic_string@DU?$char_traits@D@std@@V?$allocator@D@2@@std@@QBEXXZ PROC ; std::basic_string<char,std::char_traits<char>,std::allocator<char> >::_Xran, COMDAT
; _this$ = ecx

; 2021 : 		_Xout_of_range("invalid string position");

  00000	68 00 00 00 00	 push	 OFFSET ??_C@_0BI@CFPLBAOH@invalid?5string?5position?$AA@
  00005	ff 15 00 00 00
	00		 call	 DWORD PTR __imp_?_Xout_of_range@std@@YAXPBD@Z
$LN4@Xran:
$LN3@Xran:
  0000b	cc		 int	 3
?_Xran@?$basic_string@DU?$char_traits@D@std@@V?$allocator@D@2@@std@@QBEXXZ ENDP ; std::basic_string<char,std::char_traits<char>,std::allocator<char> >::_Xran
_TEXT	ENDS
PUBLIC	?deallocate@?$allocator@D@std@@QAEXPADI@Z	; std::allocator<char>::deallocate
; Function compile flags: /Ogsp
; File c:\program files (x86)\microsoft visual studio 10.0\vc\include\xmemory
;	COMDAT ?deallocate@?$allocator@D@std@@QAEXPADI@Z
_TEXT	SEGMENT
__Ptr$ = 8						; size = 4
___formal$ = 12						; size = 4
?deallocate@?$allocator@D@std@@QAEXPADI@Z PROC		; std::allocator<char>::deallocate, COMDAT
; _this$ = ecx

; 181  : 		{	// deallocate object at _Ptr, ignore size

  00000	55		 push	 ebp
  00001	8b ec		 mov	 ebp, esp

; 182  : 		::operator delete(_Ptr);

  00003	ff 75 08	 push	 DWORD PTR __Ptr$[ebp]
  00006	e8 00 00 00 00	 call	 ??3@YAXPAX@Z		; operator delete
  0000b	59		 pop	 ecx

; 183  : 		}

  0000c	5d		 pop	 ebp
  0000d	c2 08 00	 ret	 8
?deallocate@?$allocator@D@std@@QAEXPADI@Z ENDP		; std::allocator<char>::deallocate
_TEXT	ENDS
PUBLIC	?_Inside@?$basic_string@DU?$char_traits@D@std@@V?$allocator@D@2@@std@@QAE_NPBD@Z ; std::basic_string<char,std::char_traits<char>,std::allocator<char> >::_Inside
; Function compile flags: /Ogsp
; File c:\program files (x86)\microsoft visual studio 10.0\vc\include\xstring
;	COMDAT ?_Inside@?$basic_string@DU?$char_traits@D@std@@V?$allocator@D@2@@std@@QAE_NPBD@Z
_TEXT	SEGMENT
__Ptr$ = 8						; size = 4
?_Inside@?$basic_string@DU?$char_traits@D@std@@V?$allocator@D@2@@std@@QAE_NPBD@Z PROC ; std::basic_string<char,std::char_traits<char>,std::allocator<char> >::_Inside, COMDAT
; _this$ = ecx

; 1973 : 		{	// test if _Ptr points inside string

  00000	55		 push	 ebp
  00001	8b ec		 mov	 ebp, esp

; 1974 : 		if (_Ptr == 0 || _Ptr < _Myptr() || _Myptr() + this->_Mysize <= _Ptr)

  00003	83 7d 08 00	 cmp	 DWORD PTR __Ptr$[ebp], 0
  00007	74 2c		 je	 SHORT $LN2@Inside
  00009	8b 51 14	 mov	 edx, DWORD PTR [ecx+20]
  0000c	83 fa 10	 cmp	 edx, 16			; 00000010H
  0000f	72 04		 jb	 SHORT $LN8@Inside
  00011	8b 01		 mov	 eax, DWORD PTR [ecx]
  00013	eb 02		 jmp	 SHORT $LN9@Inside
$LN8@Inside:
  00015	8b c1		 mov	 eax, ecx
$LN9@Inside:
  00017	39 45 08	 cmp	 DWORD PTR __Ptr$[ebp], eax
  0001a	72 19		 jb	 SHORT $LN2@Inside
  0001c	83 fa 10	 cmp	 edx, 16			; 00000010H
  0001f	72 04		 jb	 SHORT $LN12@Inside
  00021	8b 01		 mov	 eax, DWORD PTR [ecx]
  00023	eb 02		 jmp	 SHORT $LN13@Inside
$LN12@Inside:
  00025	8b c1		 mov	 eax, ecx
$LN13@Inside:
  00027	8b 49 10	 mov	 ecx, DWORD PTR [ecx+16]
  0002a	03 c8		 add	 ecx, eax
  0002c	3b 4d 08	 cmp	 ecx, DWORD PTR __Ptr$[ebp]
  0002f	76 04		 jbe	 SHORT $LN2@Inside

; 1976 : 		else
; 1977 : 			return (true);

  00031	b0 01		 mov	 al, 1
  00033	eb 02		 jmp	 SHORT $LN1@Inside
$LN2@Inside:

; 1975 : 			return (false);	// don't ask

  00035	32 c0		 xor	 al, al
$LN1@Inside:

; 1978 : 		}

  00037	5d		 pop	 ebp
  00038	c2 04 00	 ret	 4
?_Inside@?$basic_string@DU?$char_traits@D@std@@V?$allocator@D@2@@std@@QAE_NPBD@Z ENDP ; std::basic_string<char,std::char_traits<char>,std::allocator<char> >::_Inside
_TEXT	ENDS
PUBLIC	?max_size@?$allocator@D@std@@QBEIXZ		; std::allocator<char>::max_size
; Function compile flags: /Ogsp
; File c:\program files (x86)\microsoft visual studio 10.0\vc\include\xmemory
;	COMDAT ?max_size@?$allocator@D@std@@QBEIXZ
_TEXT	SEGMENT
?max_size@?$allocator@D@std@@QBEIXZ PROC		; std::allocator<char>::max_size, COMDAT
; _this$ = ecx

; 218  : 		_SIZT _Count = (_SIZT)(-1) / sizeof (_Ty);
; 219  : 		return (0 < _Count ? _Count : 1);

  00000	83 c8 ff	 or	 eax, -1

; 220  : 		}

  00003	c3		 ret	 0
?max_size@?$allocator@D@std@@QBEIXZ ENDP		; std::allocator<char>::max_size
_TEXT	ENDS
PUBLIC	__TI2?AVbad_alloc@std@@
PUBLIC	??$_Allocate@D@std@@YAPADIPAD@Z			; std::_Allocate<char>
PUBLIC	__CTA2?AVbad_alloc@std@@
PUBLIC	__CT??_R0?AVbad_alloc@std@@@8??0bad_alloc@std@@QAE@ABV01@@Z12
PUBLIC	??0bad_alloc@std@@QAE@ABV01@@Z			; std::bad_alloc::bad_alloc
PUBLIC	__CT??_R0?AVexception@std@@@8??0exception@std@@QAE@ABV01@@Z12
EXTRN	??2@YAPAXI@Z:PROC				; operator new
EXTRN	__CxxThrowException@8:PROC
EXTRN	??0exception@std@@QAE@ABV01@@Z:PROC		; std::exception::exception
;	COMDAT __CT??_R0?AVexception@std@@@8??0exception@std@@QAE@ABV01@@Z12
; File c:\program files (x86)\microsoft visual studio 10.0\vc\include\exception
xdata$x	SEGMENT
__CT??_R0?AVexception@std@@@8??0exception@std@@QAE@ABV01@@Z12 DD 00H
	DD	FLAT:??_R0?AVexception@std@@@8
	DD	00H
	DD	0ffffffffH
	ORG $+4
	DD	0cH
	DD	FLAT:??0exception@std@@QAE@ABV01@@Z
xdata$x	ENDS
;	COMDAT __CT??_R0?AVbad_alloc@std@@@8??0bad_alloc@std@@QAE@ABV01@@Z12
xdata$x	SEGMENT
__CT??_R0?AVbad_alloc@std@@@8??0bad_alloc@std@@QAE@ABV01@@Z12 DD 00H
	DD	FLAT:??_R0?AVbad_alloc@std@@@8
	DD	00H
	DD	0ffffffffH
	ORG $+4
	DD	0cH
	DD	FLAT:??0bad_alloc@std@@QAE@ABV01@@Z
xdata$x	ENDS
;	COMDAT __CTA2?AVbad_alloc@std@@
xdata$x	SEGMENT
__CTA2?AVbad_alloc@std@@ DD 02H
	DD	FLAT:__CT??_R0?AVbad_alloc@std@@@8??0bad_alloc@std@@QAE@ABV01@@Z12
	DD	FLAT:__CT??_R0?AVexception@std@@@8??0exception@std@@QAE@ABV01@@Z12
xdata$x	ENDS
;	COMDAT __TI2?AVbad_alloc@std@@
xdata$x	SEGMENT
__TI2?AVbad_alloc@std@@ DD 00H
	DD	FLAT:??1bad_alloc@std@@UAE@XZ
	DD	00H
	DD	FLAT:__CTA2?AVbad_alloc@std@@
; Function compile flags: /Ogsp
; File c:\program files (x86)\microsoft visual studio 10.0\vc\include\xmemory
xdata$x	ENDS
;	COMDAT ??$_Allocate@D@std@@YAPADIPAD@Z
_TEXT	SEGMENT
$T520639 = -12						; size = 12
$T520644 = 8						; size = 4
__Count$ = 8						; size = 4
___formal$ = 12						; size = 4
??$_Allocate@D@std@@YAPADIPAD@Z PROC			; std::_Allocate<char>, COMDAT

; 30   : 	{	// allocate storage for _Count elements of type _Ty

  00000	55		 push	 ebp
  00001	8b ec		 mov	 ebp, esp

; 31   : 	void *_Ptr = 0;

  00003	33 c0		 xor	 eax, eax
  00005	83 ec 0c	 sub	 esp, 12			; 0000000cH

; 32   : 
; 33   : 	if (_Count <= 0)

  00008	39 45 08	 cmp	 DWORD PTR __Count$[ebp], eax

; 34   : 		_Count = 0;
; 35   : 	else if (((_SIZT)(-1) / sizeof (_Ty) < _Count)

  0000b	76 39		 jbe	 SHORT $LN5@Allocate

; 36   : 		|| (_Ptr = ::operator new(_Count * sizeof (_Ty))) == 0)

  0000d	83 7d 08 ff	 cmp	 DWORD PTR __Count$[ebp], -1
  00011	77 0d		 ja	 SHORT $LN1@Allocate
  00013	ff 75 08	 push	 DWORD PTR __Count$[ebp]
  00016	e8 00 00 00 00	 call	 ??2@YAPAXI@Z		; operator new
  0001b	59		 pop	 ecx
  0001c	85 c0		 test	 eax, eax

; 38   : 
; 39   : 	return ((_Ty _FARQ *)_Ptr);

  0001e	75 26		 jne	 SHORT $LN5@Allocate
$LN1@Allocate:

; 37   : 		_THROW_NCEE(bad_alloc, 0);

  00020	83 65 08 00	 and	 DWORD PTR $T520644[ebp], 0
  00024	8d 45 08	 lea	 eax, DWORD PTR $T520644[ebp]
  00027	50		 push	 eax
  00028	8d 4d f4	 lea	 ecx, DWORD PTR $T520639[ebp]
  0002b	ff 15 00 00 00
	00		 call	 DWORD PTR __imp_??0exception@std@@QAE@ABQBD@Z
  00031	68 00 00 00 00	 push	 OFFSET __TI2?AVbad_alloc@std@@
  00036	8d 45 f4	 lea	 eax, DWORD PTR $T520639[ebp]
  00039	50		 push	 eax
  0003a	c7 45 f4 00 00
	00 00		 mov	 DWORD PTR $T520639[ebp], OFFSET ??_7bad_alloc@std@@6B@
  00041	e8 00 00 00 00	 call	 __CxxThrowException@8
$LN10@Allocate:
$LN5@Allocate:

; 40   : 	}

  00046	c9		 leave
  00047	c3		 ret	 0
$LN9@Allocate:
??$_Allocate@D@std@@YAPADIPAD@Z ENDP			; std::_Allocate<char>
_TEXT	ENDS
EXTRN	__imp_??0exception@std@@QAE@ABV01@@Z:PROC
; Function compile flags: /Ogsp
;	COMDAT ??0bad_alloc@std@@QAE@ABV01@@Z
_TEXT	SEGMENT
___that$ = 8						; size = 4
??0bad_alloc@std@@QAE@ABV01@@Z PROC			; std::bad_alloc::bad_alloc, COMDAT
; _this$ = ecx
  00000	55		 push	 ebp
  00001	8b ec		 mov	 ebp, esp
  00003	56		 push	 esi
  00004	ff 75 08	 push	 DWORD PTR ___that$[ebp]
  00007	8b f1		 mov	 esi, ecx
  00009	ff 15 00 00 00
	00		 call	 DWORD PTR __imp_??0exception@std@@QAE@ABV01@@Z
  0000f	c7 06 00 00 00
	00		 mov	 DWORD PTR [esi], OFFSET ??_7bad_alloc@std@@6B@
  00015	8b c6		 mov	 eax, esi
  00017	5e		 pop	 esi
  00018	5d		 pop	 ebp
  00019	c2 04 00	 ret	 4
??0bad_alloc@std@@QAE@ABV01@@Z ENDP			; std::bad_alloc::bad_alloc
_TEXT	ENDS
PUBLIC	??1ioAIBrain@@QAE@XZ				; ioAIBrain::~ioAIBrain
; Function compile flags: /Ogsp
; File d:\lost saga for developer\youtube\tutorial\source\src\lsclient\ioaibrain.cpp
;	COMDAT ??1ioAIBrain@@QAE@XZ
_TEXT	SEGMENT
??1ioAIBrain@@QAE@XZ PROC				; ioAIBrain::~ioAIBrain, COMDAT
; _this$ = ecx

; 13   : {

  00000	56		 push	 esi
  00001	8b f1		 mov	 esi, ecx
  00003	57		 push	 edi

; 14   : 	SAFEDELETE( m_pFSM );

  00004	8b 3e		 mov	 edi, DWORD PTR [esi]
  00006	85 ff		 test	 edi, edi
  00008	74 11		 je	 SHORT $LN1@ioAIBrain
  0000a	8b cf		 mov	 ecx, edi
  0000c	e8 00 00 00 00	 call	 ??1ioAIStateMachine@@QAE@XZ ; ioAIStateMachine::~ioAIStateMachine
  00011	57		 push	 edi
  00012	e8 00 00 00 00	 call	 ??3@YAXPAX@Z		; operator delete
  00017	83 26 00	 and	 DWORD PTR [esi], 0
  0001a	59		 pop	 ecx
$LN1@ioAIBrain:

; 15   : }

  0001b	5f		 pop	 edi
  0001c	5e		 pop	 esi
  0001d	c3		 ret	 0
??1ioAIBrain@@QAE@XZ ENDP				; ioAIBrain::~ioAIBrain
_TEXT	ENDS
PUBLIC	__$ArrayPad$
PUBLIC	??$GetIntAttribute_e@$05@ioXMLElement@@QBEHAAY05$$CBD@Z ; ioXMLElement::GetIntAttribute_e<6>
EXTRN	__imp_?GetIntAttribute@ioXMLElement@@QBEHPBD@Z:PROC
EXTRN	___security_cookie:DWORD
EXTRN	@__security_check_cookie@4:PROC
; Function compile flags: /Ogsp
; File d:\lost saga for developer\youtube\tutorial\source\src\io3dengine\ioxmlelement.h
;	COMDAT ??$GetIntAttribute_e@$05@ioXMLElement@@QBEHAAY05$$CBD@Z
_TEXT	SEGMENT
__k$ = -16						; size = 6
__$ArrayPad$ = -4					; size = 4
_k$ = 8							; size = 4
??$GetIntAttribute_e@$05@ioXMLElement@@QBEHAAY05$$CBD@Z PROC ; ioXMLElement::GetIntAttribute_e<6>, COMDAT
; _this$ = ecx

; 86   : 	{

  00000	55		 push	 ebp
  00001	8b ec		 mov	 ebp, esp
  00003	83 ec 10	 sub	 esp, 16			; 00000010H
  00006	a1 00 00 00 00	 mov	 eax, DWORD PTR ___security_cookie
  0000b	33 c5		 xor	 eax, ebp
  0000d	89 45 fc	 mov	 DWORD PTR __$ArrayPad$[ebp], eax
  00010	8b 45 08	 mov	 eax, DWORD PTR _k$[ebp]

; 87   : 		_ENCSTR(k, _k);

  00013	8a 10		 mov	 dl, BYTE PTR [eax]
  00015	84 d2		 test	 dl, dl
  00017	0f 84 a9 00 00
	00		 je	 $LN96@GetIntAttr
  0001d	80 f2 ed	 xor	 dl, -19			; ffffffedH
  00020	88 55 f0	 mov	 BYTE PTR __k$[ebp], dl
  00023	8a 50 01	 mov	 dl, BYTE PTR [eax+1]
  00026	84 d2		 test	 dl, dl
  00028	0f 84 92 00 00
	00		 je	 $LN95@GetIntAttr
  0002e	80 f2 ec	 xor	 dl, -20			; ffffffecH
  00031	88 55 f1	 mov	 BYTE PTR __k$[ebp+1], dl
  00034	8a 50 02	 mov	 dl, BYTE PTR [eax+2]
  00037	84 d2		 test	 dl, dl
  00039	74 7f		 je	 SHORT $LN94@GetIntAttr
  0003b	80 f2 eb	 xor	 dl, -21			; ffffffebH
  0003e	88 55 f2	 mov	 BYTE PTR __k$[ebp+2], dl
  00041	8a 50 03	 mov	 dl, BYTE PTR [eax+3]
  00044	84 d2		 test	 dl, dl
  00046	74 6c		 je	 SHORT $LN93@GetIntAttr
  00048	80 f2 ea	 xor	 dl, -22			; ffffffeaH
  0004b	88 55 f3	 mov	 BYTE PTR __k$[ebp+3], dl
  0004e	8a 50 04	 mov	 dl, BYTE PTR [eax+4]
  00051	84 d2		 test	 dl, dl
  00053	74 59		 je	 SHORT $LN92@GetIntAttr
  00055	80 f2 ed	 xor	 dl, -19			; ffffffedH
  00058	80 78 05 00	 cmp	 BYTE PTR [eax+5], 0
  0005c	88 55 f4	 mov	 BYTE PTR __k$[ebp+4], dl
  0005f	74 69		 je	 SHORT $LN1@GetIntAttr
  00061	8a 50 06	 mov	 dl, BYTE PTR [eax+6]
  00064	84 d2		 test	 dl, dl
  00066	74 40		 je	 SHORT $LN90@GetIntAttr
  00068	80 f2 eb	 xor	 dl, -21			; ffffffebH
  0006b	88 55 f6	 mov	 BYTE PTR __k$[ebp+6], dl
  0006e	8a 50 07	 mov	 dl, BYTE PTR [eax+7]
  00071	84 d2		 test	 dl, dl
  00073	74 2d		 je	 SHORT $LN89@GetIntAttr
  00075	80 f2 ea	 xor	 dl, -22			; ffffffeaH
  00078	88 55 f7	 mov	 BYTE PTR __k$[ebp+7], dl
  0007b	8a 50 08	 mov	 dl, BYTE PTR [eax+8]
  0007e	84 d2		 test	 dl, dl
  00080	74 1a		 je	 SHORT $LN88@GetIntAttr
  00082	8a 40 09	 mov	 al, BYTE PTR [eax+9]
  00085	80 f2 ed	 xor	 dl, -19			; ffffffedH
  00088	88 55 f8	 mov	 BYTE PTR __k$[ebp+8], dl
  0008b	84 c0		 test	 al, al
  0008d	74 07		 je	 SHORT $LN87@GetIntAttr
  0008f	34 ec		 xor	 al, -20			; ffffffecH
  00091	88 45 f9	 mov	 BYTE PTR __k$[ebp+9], al
  00094	eb 34		 jmp	 SHORT $LN1@GetIntAttr
$LN87@GetIntAttr:
  00096	c6 45 f9 ec	 mov	 BYTE PTR __k$[ebp+9], -20 ; ffffffecH
  0009a	eb 2e		 jmp	 SHORT $LN1@GetIntAttr
$LN88@GetIntAttr:
  0009c	c6 45 f8 ed	 mov	 BYTE PTR __k$[ebp+8], -19 ; ffffffedH
  000a0	eb 28		 jmp	 SHORT $LN1@GetIntAttr
$LN89@GetIntAttr:
  000a2	c6 45 f7 ea	 mov	 BYTE PTR __k$[ebp+7], -22 ; ffffffeaH
  000a6	eb 22		 jmp	 SHORT $LN1@GetIntAttr
$LN90@GetIntAttr:
  000a8	c6 45 f6 eb	 mov	 BYTE PTR __k$[ebp+6], -21 ; ffffffebH
  000ac	eb 1c		 jmp	 SHORT $LN1@GetIntAttr
$LN92@GetIntAttr:
  000ae	c6 45 f4 ed	 mov	 BYTE PTR __k$[ebp+4], -19 ; ffffffedH
  000b2	eb 16		 jmp	 SHORT $LN1@GetIntAttr
$LN93@GetIntAttr:
  000b4	c6 45 f3 ea	 mov	 BYTE PTR __k$[ebp+3], -22 ; ffffffeaH
  000b8	eb 10		 jmp	 SHORT $LN1@GetIntAttr
$LN94@GetIntAttr:
  000ba	c6 45 f2 eb	 mov	 BYTE PTR __k$[ebp+2], -21 ; ffffffebH
  000be	eb 0a		 jmp	 SHORT $LN1@GetIntAttr
$LN95@GetIntAttr:
  000c0	c6 45 f1 ec	 mov	 BYTE PTR __k$[ebp+1], -20 ; ffffffecH
  000c4	eb 04		 jmp	 SHORT $LN1@GetIntAttr
$LN96@GetIntAttr:
  000c6	c6 45 f0 ed	 mov	 BYTE PTR __k$[ebp], -19	; ffffffedH
$LN1@GetIntAttr:
  000ca	81 75 f0 ed ec
	eb ea		 xor	 DWORD PTR __k$[ebp], -353637139 ; eaebecedH
  000d1	80 75 f4 ed	 xor	 BYTE PTR __k$[ebp+4], -19 ; ffffffedH

; 88   : 		return GetIntAttribute(_k);

  000d5	8d 45 f0	 lea	 eax, DWORD PTR __k$[ebp]
  000d8	50		 push	 eax
  000d9	c6 45 f5 00	 mov	 BYTE PTR __k$[ebp+5], 0
  000dd	ff 15 00 00 00
	00		 call	 DWORD PTR __imp_?GetIntAttribute@ioXMLElement@@QBEHPBD@Z

; 89   : 	}

  000e3	8b 4d fc	 mov	 ecx, DWORD PTR __$ArrayPad$[ebp]
  000e6	33 cd		 xor	 ecx, ebp
  000e8	e8 00 00 00 00	 call	 @__security_check_cookie@4
  000ed	c9		 leave
  000ee	c2 04 00	 ret	 4
??$GetIntAttribute_e@$05@ioXMLElement@@QBEHAAY05$$CBD@Z ENDP ; ioXMLElement::GetIntAttribute_e<6>
_TEXT	ENDS
PUBLIC	??0?$_String_val@DV?$allocator@D@std@@@std@@QAE@V?$allocator@D@1@@Z ; std::_String_val<char,std::allocator<char> >::_String_val<char,std::allocator<char> >
; Function compile flags: /Ogsp
; File c:\program files (x86)\microsoft visual studio 10.0\vc\include\xstring
;	COMDAT ??0?$_String_val@DV?$allocator@D@std@@@std@@QAE@V?$allocator@D@1@@Z
_TEXT	SEGMENT
__Al$ = 8						; size = 1
??0?$_String_val@DV?$allocator@D@std@@@std@@QAE@V?$allocator@D@1@@Z PROC ; std::_String_val<char,std::allocator<char> >::_String_val<char,std::allocator<char> >, COMDAT
; _this$ = ecx

; 454  : 		{	// construct allocator from _Al

  00000	8b c1		 mov	 eax, ecx

; 455  : 		}

  00002	c2 04 00	 ret	 4
??0?$_String_val@DV?$allocator@D@std@@@std@@QAE@V?$allocator@D@1@@Z ENDP ; std::_String_val<char,std::allocator<char> >::_String_val<char,std::allocator<char> >
_TEXT	ENDS
PUBLIC	?_Eos@?$basic_string@DU?$char_traits@D@std@@V?$allocator@D@2@@std@@QAEXI@Z ; std::basic_string<char,std::char_traits<char>,std::allocator<char> >::_Eos
; Function compile flags: /Ogsp
;	COMDAT ?_Eos@?$basic_string@DU?$char_traits@D@std@@V?$allocator@D@2@@std@@QAEXI@Z
_TEXT	SEGMENT
__Newsize$ = 8						; size = 4
?_Eos@?$basic_string@DU?$char_traits@D@std@@V?$allocator@D@2@@std@@QAEXI@Z PROC ; std::basic_string<char,std::char_traits<char>,std::allocator<char> >::_Eos, COMDAT
; _this$ = ecx

; 1953 : 		{	// set new length and null terminator

  00000	55		 push	 ebp
  00001	8b ec		 mov	 ebp, esp

; 1954 : 		_Traits::assign(_Myptr()[this->_Mysize = _Newsize], _Elem());

  00003	83 79 14 10	 cmp	 DWORD PTR [ecx+20], 16	; 00000010H
  00007	8b 45 08	 mov	 eax, DWORD PTR __Newsize$[ebp]
  0000a	89 41 10	 mov	 DWORD PTR [ecx+16], eax
  0000d	72 02		 jb	 SHORT $LN5@Eos
  0000f	8b 09		 mov	 ecx, DWORD PTR [ecx]
$LN5@Eos:
  00011	c6 04 01 00	 mov	 BYTE PTR [ecx+eax], 0

; 1955 : 		}

  00015	5d		 pop	 ebp
  00016	c2 04 00	 ret	 4
?_Eos@?$basic_string@DU?$char_traits@D@std@@V?$allocator@D@2@@std@@QAEXI@Z ENDP ; std::basic_string<char,std::char_traits<char>,std::allocator<char> >::_Eos
_TEXT	ENDS
PUBLIC	?max_size@?$basic_string@DU?$char_traits@D@std@@V?$allocator@D@2@@std@@QBEIXZ ; std::basic_string<char,std::char_traits<char>,std::allocator<char> >::max_size
; Function compile flags: /Ogsp
;	COMDAT ?max_size@?$basic_string@DU?$char_traits@D@std@@V?$allocator@D@2@@std@@QBEIXZ
_TEXT	SEGMENT
?max_size@?$basic_string@DU?$char_traits@D@std@@V?$allocator@D@2@@std@@QBEIXZ PROC ; std::basic_string<char,std::char_traits<char>,std::allocator<char> >::max_size, COMDAT
; _this$ = ecx

; 1517 : 		size_type _Num = this->_Alval.max_size();
; 1518 : 		return (_Num <= 1 ? 1 : _Num - 1);

  00000	6a fe		 push	 -2			; fffffffeH
  00002	58		 pop	 eax

; 1519 : 		}

  00003	c3		 ret	 0
?max_size@?$basic_string@DU?$char_traits@D@std@@V?$allocator@D@2@@std@@QBEIXZ ENDP ; std::basic_string<char,std::char_traits<char>,std::allocator<char> >::max_size
_TEXT	ENDS
PUBLIC	?allocate@?$allocator@D@std@@QAEPADI@Z		; std::allocator<char>::allocate
; Function compile flags: /Ogsp
; File c:\program files (x86)\microsoft visual studio 10.0\vc\include\xmemory
;	COMDAT ?allocate@?$allocator@D@std@@QAEPADI@Z
_TEXT	SEGMENT
__Count$ = 8						; size = 4
?allocate@?$allocator@D@std@@QAEPADI@Z PROC		; std::allocator<char>::allocate, COMDAT
; _this$ = ecx

; 186  : 		{	// allocate array of _Count elements

  00000	55		 push	 ebp
  00001	8b ec		 mov	 ebp, esp

; 187  : 		return (_Allocate(_Count, (pointer)0));

  00003	6a 00		 push	 0
  00005	ff 75 08	 push	 DWORD PTR __Count$[ebp]
  00008	e8 00 00 00 00	 call	 ??$_Allocate@D@std@@YAPADIPAD@Z ; std::_Allocate<char>
  0000d	59		 pop	 ecx
  0000e	59		 pop	 ecx

; 188  : 		}

  0000f	5d		 pop	 ebp
  00010	c2 04 00	 ret	 4
?allocate@?$allocator@D@std@@QAEPADI@Z ENDP		; std::allocator<char>::allocate
_TEXT	ENDS
PUBLIC	?_Tidy@?$basic_string@DU?$char_traits@D@std@@V?$allocator@D@2@@std@@QAEX_NI@Z ; std::basic_string<char,std::char_traits<char>,std::allocator<char> >::_Tidy
; Function compile flags: /Ogsp
; File c:\program files (x86)\microsoft visual studio 10.0\vc\include\xstring
;	COMDAT ?_Tidy@?$basic_string@DU?$char_traits@D@std@@V?$allocator@D@2@@std@@QAEX_NI@Z
_TEXT	SEGMENT
__Built$ = 8						; size = 1
__Newsize$ = 12						; size = 4
?_Tidy@?$basic_string@DU?$char_traits@D@std@@V?$allocator@D@2@@std@@QAEX_NI@Z PROC ; std::basic_string<char,std::char_traits<char>,std::allocator<char> >::_Tidy, COMDAT
; _this$ = ecx

; 1988 : 		{	// initialize buffer, deallocating any storage

  00000	55		 push	 ebp
  00001	8b ec		 mov	 ebp, esp

; 1989 : 		if (!_Built)

  00003	80 7d 08 00	 cmp	 BYTE PTR __Built$[ebp], 0
  00007	56		 push	 esi
  00008	57		 push	 edi
  00009	8b 7d 0c	 mov	 edi, DWORD PTR __Newsize$[ebp]
  0000c	8b f1		 mov	 esi, ecx
  0000e	74 20		 je	 SHORT $LN9@Tidy

; 1990 : 			;
; 1991 : 		else if (this->_BUF_SIZE <= this->_Myres)

  00010	83 7e 14 10	 cmp	 DWORD PTR [esi+20], 16	; 00000010H
  00014	72 1a		 jb	 SHORT $LN9@Tidy

; 1992 : 			{	// copy any leftovers to small buffer and deallocate
; 1993 : 			_Elem *_Ptr = this->_Bx._Ptr;

  00016	53		 push	 ebx
  00017	8b 1e		 mov	 ebx, DWORD PTR [esi]

; 1994 : 			if (0 < _Newsize)

  00019	85 ff		 test	 edi, edi
  0001b	74 0b		 je	 SHORT $LN7@Tidy

; 1995 : 				_Traits::copy(this->_Bx._Buf, _Ptr, _Newsize);

  0001d	57		 push	 edi
  0001e	53		 push	 ebx
  0001f	56		 push	 esi
  00020	e8 00 00 00 00	 call	 _memcpy
  00025	83 c4 0c	 add	 esp, 12			; 0000000cH
$LN7@Tidy:

; 1996 : 			this->_Alval.deallocate(_Ptr, this->_Myres + 1);

  00028	53		 push	 ebx
  00029	e8 00 00 00 00	 call	 ??3@YAXPAX@Z		; operator delete
  0002e	59		 pop	 ecx
  0002f	5b		 pop	 ebx
$LN9@Tidy:

; 1997 : 			}
; 1998 : 		this->_Myres = this->_BUF_SIZE - 1;
; 1999 : 		_Eos(_Newsize);

  00030	89 7e 10	 mov	 DWORD PTR [esi+16], edi
  00033	c7 46 14 0f 00
	00 00		 mov	 DWORD PTR [esi+20], 15	; 0000000fH
  0003a	c6 04 37 00	 mov	 BYTE PTR [edi+esi], 0
  0003e	5f		 pop	 edi
  0003f	5e		 pop	 esi

; 2000 : 		}

  00040	5d		 pop	 ebp
  00041	c2 08 00	 ret	 8
?_Tidy@?$basic_string@DU?$char_traits@D@std@@V?$allocator@D@2@@std@@QAEX_NI@Z ENDP ; std::basic_string<char,std::char_traits<char>,std::allocator<char> >::_Tidy
_TEXT	ENDS
PUBLIC	?erase@?$basic_string@DU?$char_traits@D@std@@V?$allocator@D@2@@std@@QAEAAV12@II@Z ; std::basic_string<char,std::char_traits<char>,std::allocator<char> >::erase
; Function compile flags: /Ogsp
;	COMDAT ?erase@?$basic_string@DU?$char_traits@D@std@@V?$allocator@D@2@@std@@QAEAAV12@II@Z
_TEXT	SEGMENT
__Off$ = 8						; size = 4
__Count$ = 12						; size = 4
?erase@?$basic_string@DU?$char_traits@D@std@@V?$allocator@D@2@@std@@QAEAAV12@II@Z PROC ; std::basic_string<char,std::char_traits<char>,std::allocator<char> >::erase, COMDAT
; _this$ = ecx

; 1109 : 		{	// erase elements [_Off, _Off + _Count)

  00000	55		 push	 ebp
  00001	8b ec		 mov	 ebp, esp
  00003	53		 push	 ebx
  00004	56		 push	 esi
  00005	8b f1		 mov	 esi, ecx

; 1110 : 		if (this->_Mysize < _Off)

  00007	8b 46 10	 mov	 eax, DWORD PTR [esi+16]
  0000a	8b 4d 08	 mov	 ecx, DWORD PTR __Off$[ebp]
  0000d	3b c1		 cmp	 eax, ecx
  0000f	73 0b		 jae	 SHORT $LN3@erase

; 1111 : 			_Xran();	// _Off off end

  00011	68 00 00 00 00	 push	 OFFSET ??_C@_0BI@CFPLBAOH@invalid?5string?5position?$AA@
  00016	ff 15 00 00 00
	00		 call	 DWORD PTR __imp_?_Xout_of_range@std@@YAXPBD@Z
$LN28@erase:
$LN3@erase:

; 1112 : 		if (this->_Mysize - _Off < _Count)

  0001c	8b 5d 0c	 mov	 ebx, DWORD PTR __Count$[ebp]
  0001f	2b c1		 sub	 eax, ecx
  00021	3b c3		 cmp	 eax, ebx

; 1113 : 			_Count = this->_Mysize - _Off;	// trim _Count

  00023	0f 42 d8	 cmovb	 ebx, eax

; 1114 : 		if (0 < _Count)

  00026	85 db		 test	 ebx, ebx
  00028	74 47		 je	 SHORT $LN25@erase

; 1115 : 			{	// move elements down
; 1116 : 			_Traits::move(_Myptr() + _Off, _Myptr() + _Off + _Count,
; 1117 : 				this->_Mysize - _Off - _Count);

  0002a	8b 56 14	 mov	 edx, DWORD PTR [esi+20]
  0002d	57		 push	 edi
  0002e	83 fa 10	 cmp	 edx, 16			; 00000010H
  00031	72 04		 jb	 SHORT $LN11@erase
  00033	8b 3e		 mov	 edi, DWORD PTR [esi]
  00035	eb 02		 jmp	 SHORT $LN12@erase
$LN11@erase:
  00037	8b fe		 mov	 edi, esi
$LN12@erase:
  00039	83 fa 10	 cmp	 edx, 16			; 00000010H
  0003c	72 04		 jb	 SHORT $LN15@erase
  0003e	8b 16		 mov	 edx, DWORD PTR [esi]
  00040	eb 02		 jmp	 SHORT $LN16@erase
$LN15@erase:
  00042	8b d6		 mov	 edx, esi
$LN16@erase:
  00044	2b c3		 sub	 eax, ebx
  00046	03 f9		 add	 edi, ecx
  00048	50		 push	 eax
  00049	03 fb		 add	 edi, ebx
  0004b	03 d1		 add	 edx, ecx
  0004d	57		 push	 edi
  0004e	52		 push	 edx
  0004f	ff 15 00 00 00
	00		 call	 DWORD PTR __imp__memmove

; 1118 : 			size_type _Newsize = this->_Mysize - _Count;

  00055	8b 46 10	 mov	 eax, DWORD PTR [esi+16]
  00058	83 c4 0c	 add	 esp, 12			; 0000000cH
  0005b	2b c3		 sub	 eax, ebx

; 1119 : 			_Eos(_Newsize);

  0005d	83 7e 14 10	 cmp	 DWORD PTR [esi+20], 16	; 00000010H
  00061	89 46 10	 mov	 DWORD PTR [esi+16], eax
  00064	5f		 pop	 edi
  00065	72 04		 jb	 SHORT $LN23@erase
  00067	8b 0e		 mov	 ecx, DWORD PTR [esi]
  00069	eb 02		 jmp	 SHORT $LN24@erase
$LN23@erase:
  0006b	8b ce		 mov	 ecx, esi
$LN24@erase:
  0006d	c6 04 01 00	 mov	 BYTE PTR [ecx+eax], 0
$LN25@erase:

; 1120 : 			}
; 1121 : 		return (*this);

  00071	8b c6		 mov	 eax, esi
  00073	5e		 pop	 esi
  00074	5b		 pop	 ebx

; 1122 : 		}

  00075	5d		 pop	 ebp
  00076	c2 08 00	 ret	 8
$LN27@erase:
?erase@?$basic_string@DU?$char_traits@D@std@@V?$allocator@D@2@@std@@QAEAAV12@II@Z ENDP ; std::basic_string<char,std::char_traits<char>,std::allocator<char> >::erase
_TEXT	ENDS
PUBLIC	?_Copy@?$basic_string@DU?$char_traits@D@std@@V?$allocator@D@2@@std@@QAEXII@Z ; std::basic_string<char,std::char_traits<char>,std::allocator<char> >::_Copy
EXTRN	___CxxFrameHandler3:PROC
EXTRN	__EH_epilog3:PROC
EXTRN	__EH_prolog3_catch:PROC
;	COMDAT xdata$x
; File c:\program files (x86)\microsoft visual studio 10.0\vc\include\iosfwd
xdata$x	SEGMENT
__catchsym$?_Copy@?$basic_string@DU?$char_traits@D@std@@V?$allocator@D@2@@std@@QAEXII@Z$5 DD 040H
	DD	00H
	DD	00H
	DD	FLAT:__catch$?_Copy@?$basic_string@DU?$char_traits@D@std@@V?$allocator@D@2@@std@@QAEXII@Z$0
__catchsym$?_Copy@?$basic_string@DU?$char_traits@D@std@@V?$allocator@D@2@@std@@QAEXII@Z$4 DD 040H
	DD	00H
	DD	00H
	DD	FLAT:__catch$?_Copy@?$basic_string@DU?$char_traits@D@std@@V?$allocator@D@2@@std@@QAEXII@Z$1
__unwindtable$?_Copy@?$basic_string@DU?$char_traits@D@std@@V?$allocator@D@2@@std@@QAEXII@Z DD 0ffffffffH
	DD	00H
	DD	0ffffffffH
	DD	00H
	DD	01H
	DD	00H
	DD	01H
	DD	00H
__ehfuncinfo$?_Copy@?$basic_string@DU?$char_traits@D@std@@V?$allocator@D@2@@std@@QAEXII@Z DD 019930522H
	DD	04H
	DD	FLAT:__unwindtable$?_Copy@?$basic_string@DU?$char_traits@D@std@@V?$allocator@D@2@@std@@QAEXII@Z
	DD	02H
	DD	FLAT:__tryblocktable$?_Copy@?$basic_string@DU?$char_traits@D@std@@V?$allocator@D@2@@std@@QAEXII@Z
	DD	2 DUP(00H)
	DD	00H
	DD	01H
__tryblocktable$?_Copy@?$basic_string@DU?$char_traits@D@std@@V?$allocator@D@2@@std@@QAEXII@Z DD 02H
	DD	02H
	DD	03H
	DD	01H
	DD	FLAT:__catchsym$?_Copy@?$basic_string@DU?$char_traits@D@std@@V?$allocator@D@2@@std@@QAEXII@Z$4
	DD	00H
	DD	00H
	DD	03H
	DD	01H
	DD	FLAT:__catchsym$?_Copy@?$basic_string@DU?$char_traits@D@std@@V?$allocator@D@2@@std@@QAEXII@Z$5
; Function compile flags: /Ogsp
; File c:\program files (x86)\microsoft visual studio 10.0\vc\include\xstring
xdata$x	ENDS
;	COMDAT ?_Copy@?$basic_string@DU?$char_traits@D@std@@V?$allocator@D@2@@std@@QAEXII@Z
_TEXT	SEGMENT
_this$ = -24						; size = 4
tv296 = -20						; size = 4
__Newres$ = -20						; size = 4
__$EHRec$ = -16						; size = 16
__Ptr$ = 8						; size = 4
__Newsize$ = 8						; size = 4
__Oldlen$ = 12						; size = 4
?_Copy@?$basic_string@DU?$char_traits@D@std@@V?$allocator@D@2@@std@@QAEXII@Z PROC ; std::basic_string<char,std::char_traits<char>,std::allocator<char> >::_Copy, COMDAT
; _this$ = ecx

; 1919 : 		{	// copy _Oldlen elements to newly allocated buffer

  00000	6a 0c		 push	 12			; 0000000cH
  00002	b8 00 00 00 00	 mov	 eax, __ehhandler$?_Copy@?$basic_string@DU?$char_traits@D@std@@V?$allocator@D@2@@std@@QAEXII@Z
  00007	e8 00 00 00 00	 call	 __EH_prolog3_catch
  0000c	8b f1		 mov	 esi, ecx
  0000e	89 75 e8	 mov	 DWORD PTR _this$[ebp], esi

; 1920 : 		size_type _Newres = _Newsize | this->_ALLOC_MASK;

  00011	8b 7d 08	 mov	 edi, DWORD PTR __Newsize$[ebp]
  00014	83 cf 0f	 or	 edi, 15			; 0000000fH

; 1921 : 		if (max_size() < _Newres)

  00017	83 ff fe	 cmp	 edi, -2			; fffffffeH
  0001a	76 05		 jbe	 SHORT $LN9@Copy

; 1922 : 			_Newres = _Newsize;	// undo roundup if too big

  0001c	8b 7d 08	 mov	 edi, DWORD PTR __Newsize$[ebp]
  0001f	eb 27		 jmp	 SHORT $LN5@Copy
$LN9@Copy:

; 1923 : 		else if (this->_Myres / 2 <= _Newres / 3)

  00021	33 d2		 xor	 edx, edx
  00023	6a 03		 push	 3
  00025	8b c7		 mov	 eax, edi
  00027	5b		 pop	 ebx
  00028	f7 f3		 div	 ebx
  0002a	8b 4e 14	 mov	 ecx, DWORD PTR [esi+20]
  0002d	89 4d ec	 mov	 DWORD PTR tv296[ebp], ecx
  00030	d1 6d ec	 shr	 DWORD PTR tv296[ebp], 1
  00033	8b 55 ec	 mov	 edx, DWORD PTR tv296[ebp]
  00036	3b d0		 cmp	 edx, eax
  00038	76 0e		 jbe	 SHORT $LN5@Copy

; 1924 : 			;
; 1925 : 		else if (this->_Myres <= max_size() - this->_Myres / 2)

  0003a	6a fe		 push	 -2			; fffffffeH
  0003c	5f		 pop	 edi
  0003d	8b c7		 mov	 eax, edi
  0003f	2b c2		 sub	 eax, edx
  00041	3b c8		 cmp	 ecx, eax
  00043	77 03		 ja	 SHORT $LN5@Copy

; 1926 : 			_Newres = this->_Myres
; 1927 : 				+ this->_Myres / 2;	// grow exponentially if possible

  00045	8d 3c 0a	 lea	 edi, DWORD PTR [edx+ecx]
$LN5@Copy:

; 1928 : 		else
; 1929 : 			_Newres = max_size();	// settle for max_size()
; 1930 : 
; 1931 : 		_Elem *_Ptr;
; 1932 : 		_TRY_BEGIN

  00048	83 65 fc 00	 and	 DWORD PTR __$EHRec$[ebp+12], 0

; 1933 : 			_Ptr = this->_Alval.allocate(_Newres + 1);

  0004c	8d 47 01	 lea	 eax, DWORD PTR [edi+1]
  0004f	6a 00		 push	 0
  00051	50		 push	 eax
  00052	e8 00 00 00 00	 call	 ??$_Allocate@D@std@@YAPADIPAD@Z ; std::_Allocate<char>
  00057	59		 pop	 ecx
  00058	59		 pop	 ecx
  00059	89 45 08	 mov	 DWORD PTR __Ptr$[ebp], eax
  0005c	eb 27		 jmp	 SHORT $LN19@Copy
__catch$?_Copy@?$basic_string@DU?$char_traits@D@std@@V?$allocator@D@2@@std@@QAEXII@Z$0:

; 1934 : 		_CATCH_ALL
; 1935 : 			_Newres = _Newsize;	// allocation failed, undo roundup and retry

  0005e	8b 45 08	 mov	 eax, DWORD PTR __Newsize$[ebp]
  00061	89 65 f0	 mov	 DWORD PTR __$EHRec$[ebp], esp
  00064	89 45 ec	 mov	 DWORD PTR __Newres$[ebp], eax

; 1936 : 			_TRY_BEGIN
; 1937 : 				_Ptr = this->_Alval.allocate(_Newres + 1);

  00067	40		 inc	 eax
  00068	6a 00		 push	 0
  0006a	50		 push	 eax
  0006b	c6 45 fc 02	 mov	 BYTE PTR __$EHRec$[ebp+12], 2
  0006f	e8 00 00 00 00	 call	 ??$_Allocate@D@std@@YAPADIPAD@Z ; std::_Allocate<char>
  00074	59		 pop	 ecx
  00075	89 45 08	 mov	 DWORD PTR __Ptr$[ebp], eax
  00078	59		 pop	 ecx

; 1941 : 			_CATCH_END
; 1942 : 		_CATCH_END

  00079	b8 00 00 00 00	 mov	 eax, $LN63@Copy
  0007e	c3		 ret	 0
$LN63@Copy:
  0007f	8b 75 e8	 mov	 esi, DWORD PTR _this$[ebp]
  00082	8b 7d ec	 mov	 edi, DWORD PTR __Newres$[ebp]
$LN19@Copy:

; 1943 : 
; 1944 : 		if (0 < _Oldlen)

  00085	8b 5d 0c	 mov	 ebx, DWORD PTR __Oldlen$[ebp]
  00088	85 db		 test	 ebx, ebx
  0008a	74 19		 je	 SHORT $LN52@Copy

; 1945 : 			_Traits::copy(_Ptr, _Myptr(), _Oldlen);	// copy existing elements

  0008c	83 7e 14 10	 cmp	 DWORD PTR [esi+20], 16	; 00000010H
  00090	72 04		 jb	 SHORT $LN50@Copy
  00092	8b 06		 mov	 eax, DWORD PTR [esi]
  00094	eb 02		 jmp	 SHORT $LN51@Copy
$LN50@Copy:
  00096	8b c6		 mov	 eax, esi
$LN51@Copy:
  00098	53		 push	 ebx
  00099	50		 push	 eax
  0009a	ff 75 08	 push	 DWORD PTR __Ptr$[ebp]
  0009d	e8 00 00 00 00	 call	 _memcpy
  000a2	83 c4 0c	 add	 esp, 12			; 0000000cH
$LN52@Copy:

; 1946 : 		_Tidy(true);

  000a5	6a 00		 push	 0
  000a7	6a 01		 push	 1
  000a9	8b ce		 mov	 ecx, esi
  000ab	e8 00 00 00 00	 call	 ?_Tidy@?$basic_string@DU?$char_traits@D@std@@V?$allocator@D@2@@std@@QAEX_NI@Z ; std::basic_string<char,std::char_traits<char>,std::allocator<char> >::_Tidy

; 1947 : 		this->_Bx._Ptr = _Ptr;

  000b0	8b 45 08	 mov	 eax, DWORD PTR __Ptr$[ebp]
  000b3	89 06		 mov	 DWORD PTR [esi], eax

; 1948 : 		this->_Myres = _Newres;
; 1949 : 		_Eos(_Oldlen);

  000b5	83 ff 10	 cmp	 edi, 16			; 00000010H
  000b8	89 7e 14	 mov	 DWORD PTR [esi+20], edi
  000bb	89 5e 10	 mov	 DWORD PTR [esi+16], ebx
  000be	0f 42 c6	 cmovb	 eax, esi
  000c1	c6 04 18 00	 mov	 BYTE PTR [eax+ebx], 0

; 1950 : 		}

  000c5	e8 00 00 00 00	 call	 __EH_epilog3
  000ca	c2 08 00	 ret	 8
__catch$?_Copy@?$basic_string@DU?$char_traits@D@std@@V?$allocator@D@2@@std@@QAEXII@Z$1:

; 1938 : 			_CATCH_ALL
; 1939 : 			_Tidy(true);	// failed again, discard storage and reraise

  000cd	8b 4d e8	 mov	 ecx, DWORD PTR _this$[ebp]
  000d0	33 f6		 xor	 esi, esi
  000d2	56		 push	 esi
  000d3	6a 01		 push	 1
  000d5	e8 00 00 00 00	 call	 ?_Tidy@?$basic_string@DU?$char_traits@D@std@@V?$allocator@D@2@@std@@QAEX_NI@Z ; std::basic_string<char,std::char_traits<char>,std::allocator<char> >::_Tidy

; 1940 : 			_RERAISE;

  000da	56		 push	 esi
  000db	56		 push	 esi
  000dc	e8 00 00 00 00	 call	 __CxxThrowException@8
$LN67@Copy:
$LN66@Copy:
  000e1	cc		 int	 3
_TEXT	ENDS
;	COMDAT text$x
text$x	SEGMENT
__ehhandler$?_Copy@?$basic_string@DU?$char_traits@D@std@@V?$allocator@D@2@@std@@QAEXII@Z:
  00000	8b 54 24 08	 mov	 edx, DWORD PTR [esp+8]
  00004	8d 42 0c	 lea	 eax, DWORD PTR [edx+12]
  00007	8b 4a e4	 mov	 ecx, DWORD PTR [edx-28]
  0000a	33 c8		 xor	 ecx, eax
  0000c	e8 00 00 00 00	 call	 @__security_check_cookie@4
  00011	b8 00 00 00 00	 mov	 eax, OFFSET __ehfuncinfo$?_Copy@?$basic_string@DU?$char_traits@D@std@@V?$allocator@D@2@@std@@QAEXII@Z
  00016	e9 00 00 00 00	 jmp	 ___CxxFrameHandler3
text$x	ENDS
?_Copy@?$basic_string@DU?$char_traits@D@std@@V?$allocator@D@2@@std@@QAEXII@Z ENDP ; std::basic_string<char,std::char_traits<char>,std::allocator<char> >::_Copy
PUBLIC	??1?$basic_string@DU?$char_traits@D@std@@V?$allocator@D@2@@std@@QAE@XZ ; std::basic_string<char,std::char_traits<char>,std::allocator<char> >::~basic_string<char,std::char_traits<char>,std::allocator<char> >
; Function compile flags: /Ogsp
;	COMDAT ??1?$basic_string@DU?$char_traits@D@std@@V?$allocator@D@2@@std@@QAE@XZ
_TEXT	SEGMENT
??1?$basic_string@DU?$char_traits@D@std@@V?$allocator@D@2@@std@@QAE@XZ PROC ; std::basic_string<char,std::char_traits<char>,std::allocator<char> >::~basic_string<char,std::char_traits<char>,std::allocator<char> >, COMDAT
; _this$ = ecx

; 754  : 		_Tidy(true);

  00000	6a 00		 push	 0
  00002	6a 01		 push	 1
  00004	e8 00 00 00 00	 call	 ?_Tidy@?$basic_string@DU?$char_traits@D@std@@V?$allocator@D@2@@std@@QAEX_NI@Z ; std::basic_string<char,std::char_traits<char>,std::allocator<char> >::_Tidy

; 755  : 		}

  00009	c3		 ret	 0
??1?$basic_string@DU?$char_traits@D@std@@V?$allocator@D@2@@std@@QAE@XZ ENDP ; std::basic_string<char,std::char_traits<char>,std::allocator<char> >::~basic_string<char,std::char_traits<char>,std::allocator<char> >
_TEXT	ENDS
PUBLIC	?_Grow@?$basic_string@DU?$char_traits@D@std@@V?$allocator@D@2@@std@@QAE_NI_N@Z ; std::basic_string<char,std::char_traits<char>,std::allocator<char> >::_Grow
; Function compile flags: /Ogsp
;	COMDAT ?_Grow@?$basic_string@DU?$char_traits@D@std@@V?$allocator@D@2@@std@@QAE_NI_N@Z
_TEXT	SEGMENT
__Newsize$ = 8						; size = 4
__Trim$ = 12						; size = 1
?_Grow@?$basic_string@DU?$char_traits@D@std@@V?$allocator@D@2@@std@@QAE_NI_N@Z PROC ; std::basic_string<char,std::char_traits<char>,std::allocator<char> >::_Grow, COMDAT
; _this$ = ecx

; 1959 : 		{	// ensure buffer is big enough, trim to size if _Trim is true

  00000	55		 push	 ebp
  00001	8b ec		 mov	 ebp, esp
  00003	56		 push	 esi

; 1960 : 		if (max_size() < _Newsize)

  00004	8b 75 08	 mov	 esi, DWORD PTR __Newsize$[ebp]
  00007	83 fe fe	 cmp	 esi, -2			; fffffffeH
  0000a	76 0b		 jbe	 SHORT $LN6@Grow

; 1961 : 			_Xlen();	// result too long

  0000c	68 00 00 00 00	 push	 OFFSET ??_C@_0BA@JFNIOLAK@string?5too?5long?$AA@
  00011	ff 15 00 00 00
	00		 call	 DWORD PTR __imp_?_Xlength_error@std@@YAXPBD@Z
$LN31@Grow:
$LN6@Grow:

; 1962 : 		if (this->_Myres < _Newsize)

  00017	8b 41 14	 mov	 eax, DWORD PTR [ecx+20]
  0001a	3b c6		 cmp	 eax, esi
  0001c	73 0b		 jae	 SHORT $LN5@Grow

; 1963 : 			_Copy(_Newsize, this->_Mysize);	// reallocate to grow

  0001e	ff 71 10	 push	 DWORD PTR [ecx+16]
  00021	56		 push	 esi
  00022	e8 00 00 00 00	 call	 ?_Copy@?$basic_string@DU?$char_traits@D@std@@V?$allocator@D@2@@std@@QAEXII@Z ; std::basic_string<char,std::char_traits<char>,std::allocator<char> >::_Copy
  00027	eb 2e		 jmp	 SHORT $LN28@Grow
$LN5@Grow:

; 1964 : 		else if (_Trim && _Newsize < this->_BUF_SIZE)

  00029	33 d2		 xor	 edx, edx
  0002b	38 55 0c	 cmp	 BYTE PTR __Trim$[ebp], dl
  0002e	74 17		 je	 SHORT $LN3@Grow
  00030	83 fe 10	 cmp	 esi, 16			; 00000010H
  00033	73 12		 jae	 SHORT $LN3@Grow

; 1965 : 			_Tidy(true,	// copy and deallocate if trimming to small string
; 1966 : 				_Newsize < this->_Mysize ? _Newsize : this->_Mysize);

  00035	8b 41 10	 mov	 eax, DWORD PTR [ecx+16]
  00038	3b f0		 cmp	 esi, eax
  0003a	0f 42 c6	 cmovb	 eax, esi
  0003d	50		 push	 eax
  0003e	6a 01		 push	 1
  00040	e8 00 00 00 00	 call	 ?_Tidy@?$basic_string@DU?$char_traits@D@std@@V?$allocator@D@2@@std@@QAEX_NI@Z ; std::basic_string<char,std::char_traits<char>,std::allocator<char> >::_Tidy
  00045	eb 10		 jmp	 SHORT $LN28@Grow
$LN3@Grow:

; 1967 : 		else if (_Newsize == 0)

  00047	3b f2		 cmp	 esi, edx
  00049	75 0c		 jne	 SHORT $LN28@Grow

; 1968 : 			_Eos(0);	// new size is zero, just null terminate

  0004b	89 51 10	 mov	 DWORD PTR [ecx+16], edx
  0004e	83 f8 10	 cmp	 eax, 16			; 00000010H
  00051	72 02		 jb	 SHORT $LN26@Grow
  00053	8b 09		 mov	 ecx, DWORD PTR [ecx]
$LN26@Grow:
  00055	88 11		 mov	 BYTE PTR [ecx], dl
$LN28@Grow:

; 1969 : 		return (0 < _Newsize);	// return true only if more work to do

  00057	33 c0		 xor	 eax, eax
  00059	3b c6		 cmp	 eax, esi
  0005b	1b c0		 sbb	 eax, eax
  0005d	f7 d8		 neg	 eax
  0005f	5e		 pop	 esi

; 1970 : 		}

  00060	5d		 pop	 ebp
  00061	c2 08 00	 ret	 8
$LN30@Grow:
?_Grow@?$basic_string@DU?$char_traits@D@std@@V?$allocator@D@2@@std@@QAE_NI_N@Z ENDP ; std::basic_string<char,std::char_traits<char>,std::allocator<char> >::_Grow
_TEXT	ENDS
PUBLIC	?assign@?$basic_string@DU?$char_traits@D@std@@V?$allocator@D@2@@std@@QAEAAV12@ABV12@II@Z ; std::basic_string<char,std::char_traits<char>,std::allocator<char> >::assign
; Function compile flags: /Ogsp
;	COMDAT ?assign@?$basic_string@DU?$char_traits@D@std@@V?$allocator@D@2@@std@@QAEAAV12@ABV12@II@Z
_TEXT	SEGMENT
__Right$ = 8						; size = 4
__Roff$ = 12						; size = 4
__Count$ = 16						; size = 4
?assign@?$basic_string@DU?$char_traits@D@std@@V?$allocator@D@2@@std@@QAEAAV12@ABV12@II@Z PROC ; std::basic_string<char,std::char_traits<char>,std::allocator<char> >::assign, COMDAT
; _this$ = ecx

; 893  : 		{	// assign _Right [_Roff, _Roff + _Count)

  00000	55		 push	 ebp
  00001	8b ec		 mov	 ebp, esp
  00003	53		 push	 ebx

; 894  : 		if (_Right.size() < _Roff)

  00004	8b 5d 08	 mov	 ebx, DWORD PTR __Right$[ebp]
  00007	8b 43 10	 mov	 eax, DWORD PTR [ebx+16]
  0000a	56		 push	 esi
  0000b	8b f1		 mov	 esi, ecx
  0000d	8b 4d 0c	 mov	 ecx, DWORD PTR __Roff$[ebp]
  00010	57		 push	 edi
  00011	3b c1		 cmp	 eax, ecx
  00013	73 0b		 jae	 SHORT $LN5@assign

; 895  : 			_Xran();	// _Roff off end

  00015	68 00 00 00 00	 push	 OFFSET ??_C@_0BI@CFPLBAOH@invalid?5string?5position?$AA@
  0001a	ff 15 00 00 00
	00		 call	 DWORD PTR __imp_?_Xout_of_range@std@@YAXPBD@Z
$LN34@assign:
$LN5@assign:

; 896  : 		size_type _Num = _Right.size() - _Roff;

  00020	2b c1		 sub	 eax, ecx
  00022	8b f8		 mov	 edi, eax

; 897  : 		if (_Count < _Num)

  00024	39 7d 10	 cmp	 DWORD PTR __Count$[ebp], edi

; 898  : 			_Num = _Count;	// trim _Num to size

  00027	0f 42 7d 10	 cmovb	 edi, DWORD PTR __Count$[ebp]

; 899  : 
; 900  : 		if (this == &_Right)

  0002b	3b f3		 cmp	 esi, ebx
  0002d	75 1a		 jne	 SHORT $LN3@assign

; 901  : 			erase((size_type)(_Roff + _Num)), erase(0, _Roff);	// substring

  0002f	03 f9		 add	 edi, ecx
  00031	6a ff		 push	 -1
  00033	57		 push	 edi
  00034	8b ce		 mov	 ecx, esi
  00036	e8 00 00 00 00	 call	 ?erase@?$basic_string@DU?$char_traits@D@std@@V?$allocator@D@2@@std@@QAEAAV12@II@Z ; std::basic_string<char,std::char_traits<char>,std::allocator<char> >::erase
  0003b	ff 75 0c	 push	 DWORD PTR __Roff$[ebp]
  0003e	8b ce		 mov	 ecx, esi
  00040	6a 00		 push	 0
  00042	e8 00 00 00 00	 call	 ?erase@?$basic_string@DU?$char_traits@D@std@@V?$allocator@D@2@@std@@QAEAAV12@II@Z ; std::basic_string<char,std::char_traits<char>,std::allocator<char> >::erase
  00047	eb 47		 jmp	 SHORT $LN31@assign
$LN3@assign:

; 902  : 		else if (_Grow(_Num))

  00049	6a 00		 push	 0
  0004b	57		 push	 edi
  0004c	8b ce		 mov	 ecx, esi
  0004e	e8 00 00 00 00	 call	 ?_Grow@?$basic_string@DU?$char_traits@D@std@@V?$allocator@D@2@@std@@QAE_NI_N@Z ; std::basic_string<char,std::char_traits<char>,std::allocator<char> >::_Grow
  00053	84 c0		 test	 al, al
  00055	74 39		 je	 SHORT $LN31@assign

; 903  : 			{	// make room and assign new stuff
; 904  : 			_Traits::copy(_Myptr(), _Right._Myptr() + _Roff, _Num);

  00057	83 7b 14 10	 cmp	 DWORD PTR [ebx+20], 16	; 00000010H
  0005b	72 04		 jb	 SHORT $LN17@assign
  0005d	8b 03		 mov	 eax, DWORD PTR [ebx]
  0005f	eb 02		 jmp	 SHORT $LN18@assign
$LN17@assign:
  00061	8b c3		 mov	 eax, ebx
$LN18@assign:
  00063	83 7e 14 10	 cmp	 DWORD PTR [esi+20], 16	; 00000010H
  00067	72 04		 jb	 SHORT $LN21@assign
  00069	8b 0e		 mov	 ecx, DWORD PTR [esi]
  0006b	eb 02		 jmp	 SHORT $LN22@assign
$LN21@assign:
  0006d	8b ce		 mov	 ecx, esi
$LN22@assign:
  0006f	03 45 0c	 add	 eax, DWORD PTR __Roff$[ebp]
  00072	57		 push	 edi
  00073	50		 push	 eax
  00074	51		 push	 ecx
  00075	e8 00 00 00 00	 call	 _memcpy
  0007a	83 c4 0c	 add	 esp, 12			; 0000000cH

; 905  : 			_Eos(_Num);

  0007d	83 7e 14 10	 cmp	 DWORD PTR [esi+20], 16	; 00000010H
  00081	89 7e 10	 mov	 DWORD PTR [esi+16], edi
  00084	72 04		 jb	 SHORT $LN29@assign
  00086	8b 06		 mov	 eax, DWORD PTR [esi]
  00088	eb 02		 jmp	 SHORT $LN30@assign
$LN29@assign:
  0008a	8b c6		 mov	 eax, esi
$LN30@assign:
  0008c	c6 04 38 00	 mov	 BYTE PTR [eax+edi], 0
$LN31@assign:

; 906  : 			}
; 907  : 		return (*this);

  00090	5f		 pop	 edi
  00091	8b c6		 mov	 eax, esi
  00093	5e		 pop	 esi
  00094	5b		 pop	 ebx

; 908  : 		}

  00095	5d		 pop	 ebp
  00096	c2 0c 00	 ret	 12			; 0000000cH
$LN33@assign:
?assign@?$basic_string@DU?$char_traits@D@std@@V?$allocator@D@2@@std@@QAEAAV12@ABV12@II@Z ENDP ; std::basic_string<char,std::char_traits<char>,std::allocator<char> >::assign
_TEXT	ENDS
PUBLIC	?assign@?$basic_string@DU?$char_traits@D@std@@V?$allocator@D@2@@std@@QAEAAV12@PBDI@Z ; std::basic_string<char,std::char_traits<char>,std::allocator<char> >::assign
; Function compile flags: /Ogsp
;	COMDAT ?assign@?$basic_string@DU?$char_traits@D@std@@V?$allocator@D@2@@std@@QAEAAV12@PBDI@Z
_TEXT	SEGMENT
__Ptr$ = 8						; size = 4
__Count$ = 12						; size = 4
?assign@?$basic_string@DU?$char_traits@D@std@@V?$allocator@D@2@@std@@QAEAAV12@PBDI@Z PROC ; std::basic_string<char,std::char_traits<char>,std::allocator<char> >::assign, COMDAT
; _this$ = ecx

; 911  : 		{	// assign [_Ptr, _Ptr + _Count)

  00000	55		 push	 ebp
  00001	8b ec		 mov	 ebp, esp
  00003	53		 push	 ebx

; 912  :  #if _ITERATOR_DEBUG_LEVEL == 2
; 913  : 		if (_Count != 0)
; 914  : 			_DEBUG_POINTER(_Ptr);
; 915  :  #endif /* _ITERATOR_DEBUG_LEVEL == 2 */
; 916  : 
; 917  : 		if (_Inside(_Ptr))

  00004	8b 5d 08	 mov	 ebx, DWORD PTR __Ptr$[ebp]
  00007	56		 push	 esi
  00008	53		 push	 ebx
  00009	8b f1		 mov	 esi, ecx
  0000b	e8 00 00 00 00	 call	 ?_Inside@?$basic_string@DU?$char_traits@D@std@@V?$allocator@D@2@@std@@QAE_NPBD@Z ; std::basic_string<char,std::char_traits<char>,std::allocator<char> >::_Inside
  00010	84 c0		 test	 al, al
  00012	74 1c		 je	 SHORT $LN2@assign@2

; 918  : 			return (assign(*this, _Ptr - _Myptr(), _Count));	// substring

  00014	83 7e 14 10	 cmp	 DWORD PTR [esi+20], 16	; 00000010H
  00018	72 04		 jb	 SHORT $LN7@assign@2
  0001a	8b 06		 mov	 eax, DWORD PTR [esi]
  0001c	eb 02		 jmp	 SHORT $LN8@assign@2
$LN7@assign@2:
  0001e	8b c6		 mov	 eax, esi
$LN8@assign@2:
  00020	ff 75 0c	 push	 DWORD PTR __Count$[ebp]
  00023	2b d8		 sub	 ebx, eax
  00025	53		 push	 ebx
  00026	56		 push	 esi
  00027	8b ce		 mov	 ecx, esi
  00029	e8 00 00 00 00	 call	 ?assign@?$basic_string@DU?$char_traits@D@std@@V?$allocator@D@2@@std@@QAEAAV12@ABV12@II@Z ; std::basic_string<char,std::char_traits<char>,std::allocator<char> >::assign
  0002e	eb 3f		 jmp	 SHORT $LN3@assign@2
$LN2@assign@2:
  00030	57		 push	 edi

; 919  : 
; 920  : 		if (_Grow(_Count))

  00031	8b 7d 0c	 mov	 edi, DWORD PTR __Count$[ebp]
  00034	6a 00		 push	 0
  00036	57		 push	 edi
  00037	8b ce		 mov	 ecx, esi
  00039	e8 00 00 00 00	 call	 ?_Grow@?$basic_string@DU?$char_traits@D@std@@V?$allocator@D@2@@std@@QAE_NI_N@Z ; std::basic_string<char,std::char_traits<char>,std::allocator<char> >::_Grow
  0003e	84 c0		 test	 al, al
  00040	74 2a		 je	 SHORT $LN21@assign@2

; 921  : 			{	// make room and assign new stuff
; 922  : 			_Traits::copy(_Myptr(), _Ptr, _Count);

  00042	83 7e 14 10	 cmp	 DWORD PTR [esi+20], 16	; 00000010H
  00046	72 04		 jb	 SHORT $LN11@assign@2
  00048	8b 06		 mov	 eax, DWORD PTR [esi]
  0004a	eb 02		 jmp	 SHORT $LN12@assign@2
$LN11@assign@2:
  0004c	8b c6		 mov	 eax, esi
$LN12@assign@2:
  0004e	57		 push	 edi
  0004f	53		 push	 ebx
  00050	50		 push	 eax
  00051	e8 00 00 00 00	 call	 _memcpy
  00056	83 c4 0c	 add	 esp, 12			; 0000000cH

; 923  : 			_Eos(_Count);

  00059	83 7e 14 10	 cmp	 DWORD PTR [esi+20], 16	; 00000010H
  0005d	89 7e 10	 mov	 DWORD PTR [esi+16], edi
  00060	72 04		 jb	 SHORT $LN19@assign@2
  00062	8b 06		 mov	 eax, DWORD PTR [esi]
  00064	eb 02		 jmp	 SHORT $LN20@assign@2
$LN19@assign@2:
  00066	8b c6		 mov	 eax, esi
$LN20@assign@2:
  00068	c6 04 38 00	 mov	 BYTE PTR [eax+edi], 0
$LN21@assign@2:

; 924  : 			}
; 925  : 		return (*this);

  0006c	8b c6		 mov	 eax, esi
  0006e	5f		 pop	 edi
$LN3@assign@2:
  0006f	5e		 pop	 esi
  00070	5b		 pop	 ebx

; 926  : 		}

  00071	5d		 pop	 ebp
  00072	c2 08 00	 ret	 8
?assign@?$basic_string@DU?$char_traits@D@std@@V?$allocator@D@2@@std@@QAEAAV12@PBDI@Z ENDP ; std::basic_string<char,std::char_traits<char>,std::allocator<char> >::assign
_TEXT	ENDS
PUBLIC	?assign@?$basic_string@DU?$char_traits@D@std@@V?$allocator@D@2@@std@@QAEAAV12@PBD@Z ; std::basic_string<char,std::char_traits<char>,std::allocator<char> >::assign
; Function compile flags: /Ogsp
;	COMDAT ?assign@?$basic_string@DU?$char_traits@D@std@@V?$allocator@D@2@@std@@QAEAAV12@PBD@Z
_TEXT	SEGMENT
__Ptr$ = 8						; size = 4
?assign@?$basic_string@DU?$char_traits@D@std@@V?$allocator@D@2@@std@@QAEAAV12@PBD@Z PROC ; std::basic_string<char,std::char_traits<char>,std::allocator<char> >::assign, COMDAT
; _this$ = ecx

; 929  : 		{	// assign [_Ptr, <null>)

  00000	55		 push	 ebp
  00001	8b ec		 mov	 ebp, esp

; 930  : 		_DEBUG_POINTER(_Ptr);
; 931  : 		return (assign(_Ptr, _Traits::length(_Ptr)));

  00003	8b 45 08	 mov	 eax, DWORD PTR __Ptr$[ebp]
  00006	8d 50 01	 lea	 edx, DWORD PTR [eax+1]
  00009	53		 push	 ebx
$LL5@assign@3:
  0000a	8a 18		 mov	 bl, BYTE PTR [eax]
  0000c	40		 inc	 eax
  0000d	84 db		 test	 bl, bl
  0000f	75 f9		 jne	 SHORT $LL5@assign@3
  00011	2b c2		 sub	 eax, edx
  00013	50		 push	 eax
  00014	ff 75 08	 push	 DWORD PTR __Ptr$[ebp]
  00017	e8 00 00 00 00	 call	 ?assign@?$basic_string@DU?$char_traits@D@std@@V?$allocator@D@2@@std@@QAEAAV12@PBDI@Z ; std::basic_string<char,std::char_traits<char>,std::allocator<char> >::assign
  0001c	5b		 pop	 ebx

; 932  : 		}

  0001d	5d		 pop	 ebp
  0001e	c2 04 00	 ret	 4
?assign@?$basic_string@DU?$char_traits@D@std@@V?$allocator@D@2@@std@@QAEAAV12@PBD@Z ENDP ; std::basic_string<char,std::char_traits<char>,std::allocator<char> >::assign
_TEXT	ENDS
PUBLIC	??0?$basic_string@DU?$char_traits@D@std@@V?$allocator@D@2@@std@@QAE@PBD@Z ; std::basic_string<char,std::char_traits<char>,std::allocator<char> >::basic_string<char,std::char_traits<char>,std::allocator<char> >
; Function compile flags: /Ogsp
;	COMDAT ??0?$basic_string@DU?$char_traits@D@std@@V?$allocator@D@2@@std@@QAE@PBD@Z
_TEXT	SEGMENT
__Ptr$ = 8						; size = 4
??0?$basic_string@DU?$char_traits@D@std@@V?$allocator@D@2@@std@@QAE@PBD@Z PROC ; std::basic_string<char,std::char_traits<char>,std::allocator<char> >::basic_string<char,std::char_traits<char>,std::allocator<char> >, COMDAT
; _this$ = ecx

; 592  : 		{	// construct from [_Ptr, <null>)

  00000	55		 push	 ebp
  00001	8b ec		 mov	 ebp, esp
  00003	56		 push	 esi

; 593  : 		_Tidy();
; 594  : 		assign(_Ptr);

  00004	ff 75 08	 push	 DWORD PTR __Ptr$[ebp]
  00007	8b f1		 mov	 esi, ecx
  00009	83 66 10 00	 and	 DWORD PTR [esi+16], 0
  0000d	c7 46 14 0f 00
	00 00		 mov	 DWORD PTR [esi+20], 15	; 0000000fH
  00014	c6 06 00	 mov	 BYTE PTR [esi], 0
  00017	e8 00 00 00 00	 call	 ?assign@?$basic_string@DU?$char_traits@D@std@@V?$allocator@D@2@@std@@QAEAAV12@PBD@Z ; std::basic_string<char,std::char_traits<char>,std::allocator<char> >::assign

; 595  : 		}

  0001c	8b c6		 mov	 eax, esi
  0001e	5e		 pop	 esi
  0001f	5d		 pop	 ebp
  00020	c2 04 00	 ret	 4
??0?$basic_string@DU?$char_traits@D@std@@V?$allocator@D@2@@std@@QAE@PBD@Z ENDP ; std::basic_string<char,std::char_traits<char>,std::allocator<char> >::basic_string<char,std::char_traits<char>,std::allocator<char> >
_TEXT	ENDS
PUBLIC	??_C@_03ELOJIGKD@FSM?$AA@			; `string'
PUBLIC	_this$GSCopy$
PUBLIC	?BuildBrain@ioAIBrain@@QAE_NPAVioXMLElement@@@Z	; ioAIBrain::BuildBrain
EXTRN	?VerifyStateMachine@ioAIStateMachine@@QAEXXZ:PROC ; ioAIStateMachine::VerifyStateMachine
EXTRN	??0ioAIStateMachine@@QAE@PAVioXMLElement@@@Z:PROC ; ioAIStateMachine::ioAIStateMachine
EXTRN	__imp_??1ioXMLElement@@UAE@XZ:PROC
EXTRN	__imp_?FirstChild@ioXMLElement@@QAE?AV1@PBD@Z:PROC
EXTRN	?GetDefElemType@ioAISymbolTable@@QAE?AW4AIDefElemType@@ABV?$basic_string@DU?$char_traits@D@std@@V?$allocator@D@2@@std@@@Z:PROC ; ioAISymbolTable::GetDefElemType
EXTRN	?GetSingleton@ioAISymbolTable@@SAAAV1@XZ:PROC	; ioAISymbolTable::GetSingleton
EXTRN	__imp_?GetTagName@ioXMLElement@@QAEPBDXZ:PROC
EXTRN	__imp_?IsEmpty@ioXMLElement@@QBE_NXZ:PROC
EXTRN	__EH_epilog3_GS:PROC
EXTRN	__EH_prolog3_GS:PROC
;	COMDAT ??_C@_03ELOJIGKD@FSM?$AA@
; File d:\lost saga for developer\youtube\tutorial\source\src\lsclient\ioaibrain.cpp
CONST	SEGMENT
??_C@_03ELOJIGKD@FSM?$AA@ DB 'FSM', 00H			; `string'
CONST	ENDS
;	COMDAT xdata$x
xdata$x	SEGMENT
__unwindtable$?BuildBrain@ioAIBrain@@QAE_NPAVioXMLElement@@@Z DD 0ffffffffH
	DD	FLAT:__unwindfunclet$?BuildBrain@ioAIBrain@@QAE_NPAVioXMLElement@@@Z$0
	DD	0ffffffffH
	DD	FLAT:__unwindfunclet$?BuildBrain@ioAIBrain@@QAE_NPAVioXMLElement@@@Z$2
__ehfuncinfo$?BuildBrain@ioAIBrain@@QAE_NPAVioXMLElement@@@Z DD 019930522H
	DD	02H
	DD	FLAT:__unwindtable$?BuildBrain@ioAIBrain@@QAE_NPAVioXMLElement@@@Z
	DD	2 DUP(00H)
	DD	2 DUP(00H)
	DD	00H
	DD	01H
; Function compile flags: /Ogsp
xdata$x	ENDS
;	COMDAT ?BuildBrain@ioAIBrain@@QAE_NPAVioXMLElement@@@Z
_TEXT	SEGMENT
$T521155 = -340						; size = 4
_this$GSCopy$ = -336					; size = 4
$T521153 = -329						; size = 1
$T518238 = -328						; size = 272
$T518230 = -56						; size = 28
__k$521291 = -28					; size = 6
__$EHRec$ = -12						; size = 12
_node$ = 8						; size = 4
?BuildBrain@ioAIBrain@@QAE_NPAVioXMLElement@@@Z PROC	; ioAIBrain::BuildBrain, COMDAT
; _this$ = ecx

; 18   : {

  00000	68 48 01 00 00	 push	 328			; 00000148H
  00005	b8 00 00 00 00	 mov	 eax, __ehhandler$?BuildBrain@ioAIBrain@@QAE_NPAVioXMLElement@@@Z
  0000a	e8 00 00 00 00	 call	 __EH_prolog3_GS
  0000f	8b 75 08	 mov	 esi, DWORD PTR _node$[ebp]

; 19   : 	if( node != (ioXMLElement*)0 )

  00012	33 db		 xor	 ebx, ebx
  00014	89 8d b0 fe ff
	ff		 mov	 DWORD PTR _this$GSCopy$[ebp], ecx
  0001a	3b f3		 cmp	 esi, ebx
  0001c	0f 84 05 01 00
	00		 je	 $LN3@BuildBrain

; 20   : 	{
; 21   : 		if( !node->IsEmpty() )

  00022	8b 3d 00 00 00
	00		 mov	 edi, DWORD PTR __imp_?IsEmpty@ioXMLElement@@QBE_NXZ
  00028	8b ce		 mov	 ecx, esi
  0002a	ff d7		 call	 edi
  0002c	84 c0		 test	 al, al
  0002e	0f 85 f3 00 00
	00		 jne	 $LN3@BuildBrain

; 22   : 		{
; 23   : 			if( g_AISymbolTable.GetDefElemType( node->GetTagName() ) == AI_DE_BRAIN )

  00034	8b ce		 mov	 ecx, esi
  00036	ff 15 00 00 00
	00		 call	 DWORD PTR __imp_?GetTagName@ioXMLElement@@QAEPBDXZ
  0003c	50		 push	 eax
  0003d	8d 4d c8	 lea	 ecx, DWORD PTR $T518230[ebp]
  00040	c7 45 dc 0f 00
	00 00		 mov	 DWORD PTR $T518230[ebp+20], 15 ; 0000000fH
  00047	89 5d d8	 mov	 DWORD PTR $T518230[ebp+16], ebx
  0004a	88 5d c8	 mov	 BYTE PTR $T518230[ebp], bl
  0004d	e8 00 00 00 00	 call	 ?assign@?$basic_string@DU?$char_traits@D@std@@V?$allocator@D@2@@std@@QAEAAV12@PBD@Z ; std::basic_string<char,std::char_traits<char>,std::allocator<char> >::assign
  00052	8d 45 c8	 lea	 eax, DWORD PTR $T518230[ebp]
  00055	50		 push	 eax
  00056	89 5d fc	 mov	 DWORD PTR __$EHRec$[ebp+8], ebx
  00059	e8 00 00 00 00	 call	 ?GetSingleton@ioAISymbolTable@@SAAAV1@XZ ; ioAISymbolTable::GetSingleton
  0005e	8b c8		 mov	 ecx, eax
  00060	e8 00 00 00 00	 call	 ?GetDefElemType@ioAISymbolTable@@QAE?AW4AIDefElemType@@ABV?$basic_string@DU?$char_traits@D@std@@V?$allocator@D@2@@std@@@Z ; ioAISymbolTable::GetDefElemType
  00065	83 f8 04	 cmp	 eax, 4
  00068	53		 push	 ebx
  00069	0f 94 85 b7 fe
	ff ff		 sete	 BYTE PTR $T521153[ebp]
  00070	83 4d fc ff	 or	 DWORD PTR __$EHRec$[ebp+8], -1
  00074	6a 01		 push	 1
  00076	8d 4d c8	 lea	 ecx, DWORD PTR $T518230[ebp]
  00079	e8 00 00 00 00	 call	 ?_Tidy@?$basic_string@DU?$char_traits@D@std@@V?$allocator@D@2@@std@@QAEX_NI@Z ; std::basic_string<char,std::char_traits<char>,std::allocator<char> >::_Tidy
  0007e	38 9d b7 fe ff
	ff		 cmp	 BYTE PTR $T521153[ebp], bl
  00084	0f 84 9d 00 00
	00		 je	 $LN3@BuildBrain

; 24   : 			{
; 25   : 				// set debugging info
; 26   : 				m_iCurDebug = node->GetIntAttribute_e( "debug" );

  0008a	8d 45 e4	 lea	 eax, DWORD PTR __k$521291[ebp]
  0008d	c7 45 e4 89 89
	89 9f		 mov	 DWORD PTR __k$521291[ebp], -1618376311 ; 9f898989H
  00094	81 75 e4 ed ec
	eb ea		 xor	 DWORD PTR __k$521291[ebp], -353637139 ; eaebecedH
  0009b	50		 push	 eax
  0009c	8b ce		 mov	 ecx, esi
  0009e	66 c7 45 e8 67
	00		 mov	 WORD PTR __k$521291[ebp+4], 103 ; 00000067H
  000a4	ff 15 00 00 00
	00		 call	 DWORD PTR __imp_?GetIntAttribute@ioXMLElement@@QBEHPBD@Z
  000aa	8b 8d b0 fe ff
	ff		 mov	 ecx, DWORD PTR _this$GSCopy$[ebp]
  000b0	89 41 08	 mov	 DWORD PTR [ecx+8], eax

; 27   : 
; 28   : 				//LOG.PrintTimeAndLog( 0, "DEBUG = %d", m_iCurDebug );
; 29   : 
; 30   : 				// only 1 FSM for now
; 31   : 				ioXMLElement* child = &(node->FirstChild( "FSM" ));

  000b3	68 00 00 00 00	 push	 OFFSET ??_C@_03ELOJIGKD@FSM?$AA@
  000b8	8d 85 b8 fe ff
	ff		 lea	 eax, DWORD PTR $T518238[ebp]
  000be	50		 push	 eax
  000bf	8b ce		 mov	 ecx, esi
  000c1	ff 15 00 00 00
	00		 call	 DWORD PTR __imp_?FirstChild@ioXMLElement@@QAE?AV1@PBD@Z
  000c7	8d 8d b8 fe ff
	ff		 lea	 ecx, DWORD PTR $T518238[ebp]
  000cd	8b f0		 mov	 esi, eax
  000cf	ff 15 00 00 00
	00		 call	 DWORD PTR __imp_??1ioXMLElement@@UAE@XZ

; 32   : 				if( !child->IsEmpty() )

  000d5	8b ce		 mov	 ecx, esi
  000d7	ff d7		 call	 edi
  000d9	84 c0		 test	 al, al
  000db	75 33		 jne	 SHORT $LN155@BuildBrain

; 33   : 				{
; 34   : 					m_pFSM = new ioAIStateMachine( child );

  000dd	6a 18		 push	 24			; 00000018H
  000df	e8 00 00 00 00	 call	 ??2@YAPAXI@Z		; operator new
  000e4	59		 pop	 ecx
  000e5	89 85 ac fe ff
	ff		 mov	 DWORD PTR $T521155[ebp], eax
  000eb	c7 45 fc 01 00
	00 00		 mov	 DWORD PTR __$EHRec$[ebp+8], 1
  000f2	3b c3		 cmp	 eax, ebx
  000f4	74 0a		 je	 SHORT $LN8@BuildBrain
  000f6	56		 push	 esi
  000f7	8b c8		 mov	 ecx, eax
  000f9	e8 00 00 00 00	 call	 ??0ioAIStateMachine@@QAE@PAVioXMLElement@@@Z ; ioAIStateMachine::ioAIStateMachine
  000fe	eb 02		 jmp	 SHORT $LN9@BuildBrain
$LN8@BuildBrain:
  00100	33 c0		 xor	 eax, eax
$LN9@BuildBrain:
  00102	8b 8d b0 fe ff
	ff		 mov	 ecx, DWORD PTR _this$GSCopy$[ebp]
  00108	83 4d fc ff	 or	 DWORD PTR __$EHRec$[ebp+8], -1
  0010c	89 01		 mov	 DWORD PTR [ecx], eax
  0010e	eb 06		 jmp	 SHORT $LN2@BuildBrain
$LN155@BuildBrain:
  00110	8b 8d b0 fe ff
	ff		 mov	 ecx, DWORD PTR _this$GSCopy$[ebp]
$LN2@BuildBrain:

; 35   : 				}
; 36   : 
; 37   : 				//m_pAIDirector = new ioAIDirector( node );
; 38   : 
; 39   : 				if( IsDebugging( ioAIBrain::AIDEBUG_SHOW_BVT ) )

  00116	f6 41 08 04	 test	 BYTE PTR [ecx+8], 4
  0011a	74 07		 je	 SHORT $LN1@BuildBrain

; 40   : 					m_pFSM->VerifyStateMachine();

  0011c	8b 09		 mov	 ecx, DWORD PTR [ecx]
  0011e	e8 00 00 00 00	 call	 ?VerifyStateMachine@ioAIStateMachine@@QAEXXZ ; ioAIStateMachine::VerifyStateMachine
$LN1@BuildBrain:

; 41   : 
; 42   : 				return true;

  00123	b0 01		 mov	 al, 1
  00125	eb 02		 jmp	 SHORT $LN6@BuildBrain
$LN3@BuildBrain:

; 43   : 			}
; 44   : 		}
; 45   : 	}
; 46   : 
; 47   : 	return false;

  00127	32 c0		 xor	 al, al
$LN6@BuildBrain:

; 48   : }

  00129	e8 00 00 00 00	 call	 __EH_epilog3_GS
  0012e	c2 04 00	 ret	 4
_TEXT	ENDS
;	COMDAT text$x
text$x	SEGMENT
__unwindfunclet$?BuildBrain@ioAIBrain@@QAE_NPAVioXMLElement@@@Z$0:
  00000	8d 4d c8	 lea	 ecx, DWORD PTR $T518230[ebp]
  00003	e9 00 00 00 00	 jmp	 ??1?$basic_string@DU?$char_traits@D@std@@V?$allocator@D@2@@std@@QAE@XZ ; std::basic_string<char,std::char_traits<char>,std::allocator<char> >::~basic_string<char,std::char_traits<char>,std::allocator<char> >
__unwindfunclet$?BuildBrain@ioAIBrain@@QAE_NPAVioXMLElement@@@Z$2:
  00008	ff b5 ac fe ff
	ff		 push	 DWORD PTR $T521155[ebp]
  0000e	e8 00 00 00 00	 call	 ??3@YAXPAX@Z		; operator delete
  00013	59		 pop	 ecx
  00014	c3		 ret	 0
__ehhandler$?BuildBrain@ioAIBrain@@QAE_NPAVioXMLElement@@@Z:
  00015	8b 54 24 08	 mov	 edx, DWORD PTR [esp+8]
  00019	8d 42 0c	 lea	 eax, DWORD PTR [edx+12]
  0001c	8b 8a a8 fe ff
	ff		 mov	 ecx, DWORD PTR [edx-344]
  00022	33 c8		 xor	 ecx, eax
  00024	e8 00 00 00 00	 call	 @__security_check_cookie@4
  00029	8b 4a fc	 mov	 ecx, DWORD PTR [edx-4]
  0002c	33 c8		 xor	 ecx, eax
  0002e	e8 00 00 00 00	 call	 @__security_check_cookie@4
  00033	b8 00 00 00 00	 mov	 eax, OFFSET __ehfuncinfo$?BuildBrain@ioAIBrain@@QAE_NPAVioXMLElement@@@Z
  00038	e9 00 00 00 00	 jmp	 ___CxxFrameHandler3
text$x	ENDS
?BuildBrain@ioAIBrain@@QAE_NPAVioXMLElement@@@Z ENDP	; ioAIBrain::BuildBrain
PUBLIC	??0ioAIBrain@@QAE@PAVioXMLElement@@@Z		; ioAIBrain::ioAIBrain
; Function compile flags: /Ogsp
;	COMDAT ??0ioAIBrain@@QAE@PAVioXMLElement@@@Z
_TEXT	SEGMENT
_node$ = 8						; size = 4
??0ioAIBrain@@QAE@PAVioXMLElement@@@Z PROC		; ioAIBrain::ioAIBrain, COMDAT
; _this$ = ecx

; 9    : {

  00000	55		 push	 ebp
  00001	8b ec		 mov	 ebp, esp
  00003	56		 push	 esi

; 10   : 	BuildBrain( node );

  00004	ff 75 08	 push	 DWORD PTR _node$[ebp]
  00007	8b f1		 mov	 esi, ecx
  00009	83 26 00	 and	 DWORD PTR [esi], 0
  0000c	83 66 08 00	 and	 DWORD PTR [esi+8], 0
  00010	e8 00 00 00 00	 call	 ?BuildBrain@ioAIBrain@@QAE_NPAVioXMLElement@@@Z ; ioAIBrain::BuildBrain

; 11   : }

  00015	8b c6		 mov	 eax, esi
  00017	5e		 pop	 esi
  00018	5d		 pop	 ebp
  00019	c2 04 00	 ret	 4
??0ioAIBrain@@QAE@PAVioXMLElement@@@Z ENDP		; ioAIBrain::ioAIBrain
_TEXT	ENDS
END
