; Listing generated by Microsoft (R) Optimizing Compiler Version 16.00.30319.01 

	TITLE	D:\Lost Saga For Developer\Youtube\Tutorial\Source\src\LSClient\ioAliceObjectItem.cpp
	.686P
	.XMM
	include listing.inc
	.model	flat

INCLUDELIB MSVCRT
INCLUDELIB OLDNAMES

PUBLIC	?_EEM_DS@?$deque@UD3DXVECTOR3@@V?$allocator@UD3DXVECTOR3@@@std@@@std@@2HB ; std::deque<D3DXVECTOR3,std::allocator<D3DXVECTOR3> >::_EEM_DS
;	COMDAT ?_EEM_DS@?$deque@UD3DXVECTOR3@@V?$allocator@UD3DXVECTOR3@@@std@@@std@@2HB
CONST	SEGMENT
?_EEM_DS@?$deque@UD3DXVECTOR3@@V?$allocator@UD3DXVECTOR3@@@std@@@std@@2HB DD 01H ; std::deque<D3DXVECTOR3,std::allocator<D3DXVECTOR3> >::_EEM_DS
CONST	ENDS
PUBLIC	?GetState@ioBaseChar@@QBE?AW4CharState@@XZ	; ioBaseChar::GetState
; Function compile flags: /Ogsp
; File d:\lost saga for developer\youtube\tutorial\source\src\lsclient\iobasechar.h
;	COMDAT ?GetState@ioBaseChar@@QBE?AW4CharState@@XZ
_TEXT	SEGMENT
?GetState@ioBaseChar@@QBE?AW4CharState@@XZ PROC		; ioBaseChar::GetState, COMDAT
; _this$ = ecx

; 2156 : 	inline CharState GetState() const { return m_CharState; }	

  00000	8a 81 10 03 00
	00		 mov	 al, BYTE PTR [ecx+784]
  00006	c3		 ret	 0
?GetState@ioBaseChar@@QBE?AW4CharState@@XZ ENDP		; ioBaseChar::GetState
_TEXT	ENDS
PUBLIC	?GetTargetRot@ioBaseChar@@QBEABUD3DXQUATERNION@@XZ ; ioBaseChar::GetTargetRot
; Function compile flags: /Ogsp
;	COMDAT ?GetTargetRot@ioBaseChar@@QBEABUD3DXQUATERNION@@XZ
_TEXT	SEGMENT
?GetTargetRot@ioBaseChar@@QBEABUD3DXQUATERNION@@XZ PROC	; ioBaseChar::GetTargetRot, COMDAT
; _this$ = ecx

; 2599 : 	inline const D3DXQUATERNION& GetTargetRot() const { return m_qtTargetRot; }

  00000	8d 81 a4 06 00
	00		 lea	 eax, DWORD PTR [ecx+1700]
  00006	c3		 ret	 0
?GetTargetRot@ioBaseChar@@QBEABUD3DXQUATERNION@@XZ ENDP	; ioBaseChar::GetTargetRot
_TEXT	ENDS
PUBLIC	??_7bad_alloc@std@@6B@				; std::bad_alloc::`vftable'
PUBLIC	??0bad_alloc@std@@QAE@PBD@Z			; std::bad_alloc::bad_alloc
PUBLIC	??_R4bad_alloc@std@@6B@				; std::bad_alloc::`RTTI Complete Object Locator'
PUBLIC	??_R0?AVbad_alloc@std@@@8			; std::bad_alloc `RTTI Type Descriptor'
PUBLIC	??_R3bad_alloc@std@@8				; std::bad_alloc::`RTTI Class Hierarchy Descriptor'
PUBLIC	??_R2bad_alloc@std@@8				; std::bad_alloc::`RTTI Base Class Array'
PUBLIC	??_R1A@?0A@EA@bad_alloc@std@@8			; std::bad_alloc::`RTTI Base Class Descriptor at (0,-1,0,64)'
PUBLIC	??_R1A@?0A@EA@exception@std@@8			; std::exception::`RTTI Base Class Descriptor at (0,-1,0,64)'
PUBLIC	??_R0?AVexception@std@@@8			; std::exception `RTTI Type Descriptor'
PUBLIC	??_R3exception@std@@8				; std::exception::`RTTI Class Hierarchy Descriptor'
PUBLIC	??_R2exception@std@@8				; std::exception::`RTTI Base Class Array'
EXTRN	__imp_??0exception@std@@QAE@ABQBD@Z:PROC
EXTRN	??_7type_info@@6B@:QWORD			; type_info::`vftable'
EXTRN	??_Ebad_alloc@std@@UAEPAXI@Z:PROC		; std::bad_alloc::`vector deleting destructor'
EXTRN	?what@exception@std@@UBEPBDXZ:PROC		; std::exception::what
;	COMDAT ??_R2exception@std@@8
; File c:\program files (x86)\microsoft visual studio 10.0\vc\include\exception
rdata$r	SEGMENT
??_R2exception@std@@8 DD FLAT:??_R1A@?0A@EA@exception@std@@8 ; std::exception::`RTTI Base Class Array'
rdata$r	ENDS
;	COMDAT ??_R3exception@std@@8
rdata$r	SEGMENT
??_R3exception@std@@8 DD 00H				; std::exception::`RTTI Class Hierarchy Descriptor'
	DD	00H
	DD	01H
	DD	FLAT:??_R2exception@std@@8
rdata$r	ENDS
;	COMDAT ??_R0?AVexception@std@@@8
_DATA	SEGMENT
??_R0?AVexception@std@@@8 DD FLAT:??_7type_info@@6B@	; std::exception `RTTI Type Descriptor'
	DD	00H
	DB	'.?AVexception@std@@', 00H
_DATA	ENDS
;	COMDAT ??_R1A@?0A@EA@exception@std@@8
rdata$r	SEGMENT
??_R1A@?0A@EA@exception@std@@8 DD FLAT:??_R0?AVexception@std@@@8 ; std::exception::`RTTI Base Class Descriptor at (0,-1,0,64)'
	DD	00H
	DD	00H
	DD	0ffffffffH
	DD	00H
	DD	040H
	DD	FLAT:??_R3exception@std@@8
rdata$r	ENDS
;	COMDAT ??_R1A@?0A@EA@bad_alloc@std@@8
rdata$r	SEGMENT
??_R1A@?0A@EA@bad_alloc@std@@8 DD FLAT:??_R0?AVbad_alloc@std@@@8 ; std::bad_alloc::`RTTI Base Class Descriptor at (0,-1,0,64)'
	DD	01H
	DD	00H
	DD	0ffffffffH
	DD	00H
	DD	040H
	DD	FLAT:??_R3bad_alloc@std@@8
rdata$r	ENDS
;	COMDAT ??_R2bad_alloc@std@@8
rdata$r	SEGMENT
??_R2bad_alloc@std@@8 DD FLAT:??_R1A@?0A@EA@bad_alloc@std@@8 ; std::bad_alloc::`RTTI Base Class Array'
	DD	FLAT:??_R1A@?0A@EA@exception@std@@8
rdata$r	ENDS
;	COMDAT ??_R3bad_alloc@std@@8
rdata$r	SEGMENT
??_R3bad_alloc@std@@8 DD 00H				; std::bad_alloc::`RTTI Class Hierarchy Descriptor'
	DD	00H
	DD	02H
	DD	FLAT:??_R2bad_alloc@std@@8
rdata$r	ENDS
;	COMDAT ??_R0?AVbad_alloc@std@@@8
_DATA	SEGMENT
??_R0?AVbad_alloc@std@@@8 DD FLAT:??_7type_info@@6B@	; std::bad_alloc `RTTI Type Descriptor'
	DD	00H
	DB	'.?AVbad_alloc@std@@', 00H
_DATA	ENDS
;	COMDAT ??_R4bad_alloc@std@@6B@
rdata$r	SEGMENT
??_R4bad_alloc@std@@6B@ DD 00H				; std::bad_alloc::`RTTI Complete Object Locator'
	DD	00H
	DD	00H
	DD	FLAT:??_R0?AVbad_alloc@std@@@8
	DD	FLAT:??_R3bad_alloc@std@@8
rdata$r	ENDS
;	COMDAT ??_7bad_alloc@std@@6B@
CONST	SEGMENT
??_7bad_alloc@std@@6B@ DD FLAT:??_R4bad_alloc@std@@6B@	; std::bad_alloc::`vftable'
	DD	FLAT:??_Ebad_alloc@std@@UAEPAXI@Z
	DD	FLAT:?what@exception@std@@UBEPBDXZ
; Function compile flags: /Ogsp
CONST	ENDS
;	COMDAT ??0bad_alloc@std@@QAE@PBD@Z
_TEXT	SEGMENT
__Message$ = 8						; size = 4
??0bad_alloc@std@@QAE@PBD@Z PROC			; std::bad_alloc::bad_alloc, COMDAT
; _this$ = ecx

; 345  : 		{	// construct from message string

  00000	55		 push	 ebp
  00001	8b ec		 mov	 ebp, esp
  00003	56		 push	 esi
  00004	8d 45 08	 lea	 eax, DWORD PTR __Message$[ebp]
  00007	50		 push	 eax
  00008	8b f1		 mov	 esi, ecx
  0000a	ff 15 00 00 00
	00		 call	 DWORD PTR __imp_??0exception@std@@QAE@ABQBD@Z
  00010	c7 06 00 00 00
	00		 mov	 DWORD PTR [esi], OFFSET ??_7bad_alloc@std@@6B@

; 346  : 		}

  00016	8b c6		 mov	 eax, esi
  00018	5e		 pop	 esi
  00019	5d		 pop	 ebp
  0001a	c2 04 00	 ret	 4
??0bad_alloc@std@@QAE@PBD@Z ENDP			; std::bad_alloc::bad_alloc
_TEXT	ENDS
PUBLIC	??1bad_alloc@std@@UAE@XZ			; std::bad_alloc::~bad_alloc
EXTRN	__imp_??1exception@std@@UAE@XZ:PROC
; Function compile flags: /Ogsp
;	COMDAT ??1bad_alloc@std@@UAE@XZ
_TEXT	SEGMENT
??1bad_alloc@std@@UAE@XZ PROC				; std::bad_alloc::~bad_alloc, COMDAT
; _this$ = ecx

; 354  : 		{	// destroy the object

  00000	c7 01 00 00 00
	00		 mov	 DWORD PTR [ecx], OFFSET ??_7bad_alloc@std@@6B@

; 355  : 		}

  00006	ff 25 00 00 00
	00		 jmp	 DWORD PTR __imp_??1exception@std@@UAE@XZ
??1bad_alloc@std@@UAE@XZ ENDP				; std::bad_alloc::~bad_alloc
_TEXT	ENDS
EXTRN	??3@YAXPAX@Z:PROC				; operator delete
; Function compile flags: /Ogsp
;	COMDAT ??_Gbad_alloc@std@@UAEPAXI@Z
_TEXT	SEGMENT
___flags$ = 8						; size = 4
??_Gbad_alloc@std@@UAEPAXI@Z PROC			; std::bad_alloc::`scalar deleting destructor', COMDAT
; _this$ = ecx
  00000	55		 push	 ebp
  00001	8b ec		 mov	 ebp, esp
  00003	56		 push	 esi
  00004	8b f1		 mov	 esi, ecx
  00006	c7 06 00 00 00
	00		 mov	 DWORD PTR [esi], OFFSET ??_7bad_alloc@std@@6B@
  0000c	ff 15 00 00 00
	00		 call	 DWORD PTR __imp_??1exception@std@@UAE@XZ
  00012	f6 45 08 01	 test	 BYTE PTR ___flags$[ebp], 1
  00016	74 07		 je	 SHORT $LN1@scalar
  00018	56		 push	 esi
  00019	e8 00 00 00 00	 call	 ??3@YAXPAX@Z		; operator delete
  0001e	59		 pop	 ecx
$LN1@scalar:
  0001f	8b c6		 mov	 eax, esi
  00021	5e		 pop	 esi
  00022	5d		 pop	 ebp
  00023	c2 04 00	 ret	 4
??_Gbad_alloc@std@@UAEPAXI@Z ENDP			; std::bad_alloc::`scalar deleting destructor'
_TEXT	ENDS
PUBLIC	??2@YAPAXIPAX@Z					; operator new
; Function compile flags: /Ogsp
; File c:\program files (x86)\microsoft visual studio 10.0\vc\include\new
;	COMDAT ??2@YAPAXIPAX@Z
_TEXT	SEGMENT
___formal$ = 8						; size = 4
__Where$ = 12						; size = 4
??2@YAPAXIPAX@Z PROC					; operator new, COMDAT

; 56   : 	{	// construct array with placement at _Where

  00000	55		 push	 ebp
  00001	8b ec		 mov	 ebp, esp

; 57   : 	return (_Where);

  00003	8b 45 0c	 mov	 eax, DWORD PTR __Where$[ebp]

; 58   : 	}

  00006	5d		 pop	 ebp
  00007	c3		 ret	 0
??2@YAPAXIPAX@Z ENDP					; operator new
_TEXT	ENDS
PUBLIC	??3@YAXPAX0@Z					; operator delete
; Function compile flags: /Ogsp
;	COMDAT ??3@YAXPAX0@Z
_TEXT	SEGMENT
___formal$ = 8						; size = 4
___formal$ = 12						; size = 4
??3@YAXPAX0@Z PROC					; operator delete, COMDAT

; 62   : 	}

  00000	c3		 ret	 0
??3@YAXPAX0@Z ENDP					; operator delete
_TEXT	ENDS
PUBLIC	??_R0?AVioWeapon@@@8				; ioWeapon `RTTI Type Descriptor'
PUBLIC	??_R0?AVioMissileWeapon@@@8			; ioMissileWeapon `RTTI Type Descriptor'
PUBLIC	?ToMissileWeapon@@YAPAVioMissileWeapon@@PAVioWeapon@@@Z ; ToMissileWeapon
EXTRN	___RTDynamicCast:PROC
;	COMDAT ??_R0?AVioWeapon@@@8
; File d:\lost saga for developer\youtube\tutorial\source\src\lsclient\iomissileweapon.h
_DATA	SEGMENT
??_R0?AVioWeapon@@@8 DD FLAT:??_7type_info@@6B@		; ioWeapon `RTTI Type Descriptor'
	DD	00H
	DB	'.?AVioWeapon@@', 00H
_DATA	ENDS
;	COMDAT ??_R0?AVioMissileWeapon@@@8
_DATA	SEGMENT
??_R0?AVioMissileWeapon@@@8 DD FLAT:??_7type_info@@6B@	; ioMissileWeapon `RTTI Type Descriptor'
	DD	00H
	DB	'.?AVioMissileWeapon@@', 00H
; Function compile flags: /Ogsp
_DATA	ENDS
;	COMDAT ?ToMissileWeapon@@YAPAVioMissileWeapon@@PAVioWeapon@@@Z
_TEXT	SEGMENT
_pWeapon$ = 8						; size = 4
?ToMissileWeapon@@YAPAVioMissileWeapon@@PAVioWeapon@@@Z PROC ; ToMissileWeapon, COMDAT

; 116  : {

  00000	55		 push	 ebp
  00001	8b ec		 mov	 ebp, esp
  00003	56		 push	 esi

; 117  : 	if( !pWeapon || pWeapon->GetType() != ioWeapon::WT_MISSILE )

  00004	8b 75 08	 mov	 esi, DWORD PTR _pWeapon$[ebp]
  00007	85 f6		 test	 esi, esi
  00009	74 28		 je	 SHORT $LN1@ToMissileW
  0000b	8b 06		 mov	 eax, DWORD PTR [esi]
  0000d	8b ce		 mov	 ecx, esi
  0000f	ff 90 10 01 00
	00		 call	 DWORD PTR [eax+272]
  00015	83 f8 02	 cmp	 eax, 2
  00018	75 19		 jne	 SHORT $LN1@ToMissileW

; 119  : 
; 120  : 	return dynamic_cast< ioMissileWeapon* >( pWeapon );

  0001a	6a 00		 push	 0
  0001c	68 00 00 00 00	 push	 OFFSET ??_R0?AVioMissileWeapon@@@8
  00021	68 00 00 00 00	 push	 OFFSET ??_R0?AVioWeapon@@@8
  00026	6a 00		 push	 0
  00028	56		 push	 esi
  00029	e8 00 00 00 00	 call	 ___RTDynamicCast
  0002e	83 c4 14	 add	 esp, 20			; 00000014H
  00031	eb 02		 jmp	 SHORT $LN3@ToMissileW
$LN1@ToMissileW:

; 118  : 		return NULL;

  00033	33 c0		 xor	 eax, eax
$LN3@ToMissileW:
  00035	5e		 pop	 esi

; 121  : }

  00036	5d		 pop	 ebp
  00037	c3		 ret	 0
?ToMissileWeapon@@YAPAVioMissileWeapon@@PAVioWeapon@@@Z ENDP ; ToMissileWeapon
_TEXT	ENDS
PUBLIC	?_Adopt@_Iterator_base0@std@@QAEXPBX@Z		; std::_Iterator_base0::_Adopt
; Function compile flags: /Ogsp
; File c:\program files (x86)\microsoft visual studio 10.0\vc\include\xutility
;	COMDAT ?_Adopt@_Iterator_base0@std@@QAEXPBX@Z
_TEXT	SEGMENT
___formal$ = 8						; size = 4
?_Adopt@_Iterator_base0@std@@QAEXPBX@Z PROC		; std::_Iterator_base0::_Adopt, COMDAT
; _this$ = ecx

; 49   : 		}

  00000	c2 04 00	 ret	 4
?_Adopt@_Iterator_base0@std@@QAEXPBX@Z ENDP		; std::_Iterator_base0::_Adopt
_TEXT	ENDS
PUBLIC	?GetObjectSubType@ioAliceObjectItem@@UBE?AW4ObjectSubType@ioObjectItem@@XZ ; ioAliceObjectItem::GetObjectSubType
; Function compile flags: /Ogsp
; File d:\lost saga for developer\youtube\tutorial\source\src\lsclient\ioaliceobjectitem.cpp
;	COMDAT ?GetObjectSubType@ioAliceObjectItem@@UBE?AW4ObjectSubType@ioObjectItem@@XZ
_TEXT	SEGMENT
?GetObjectSubType@ioAliceObjectItem@@UBE?AW4ObjectSubType@ioObjectItem@@XZ PROC ; ioAliceObjectItem::GetObjectSubType, COMDAT
; _this$ = ecx

; 91   : 	return OST_ALICE;

  00000	6a 12		 push	 18			; 00000012H
  00002	58		 pop	 eax

; 92   : }

  00003	c3		 ret	 0
?GetObjectSubType@ioAliceObjectItem@@UBE?AW4ObjectSubType@ioObjectItem@@XZ ENDP ; ioAliceObjectItem::GetObjectSubType
_TEXT	ENDS
PUBLIC	?IsOneTimeWeaponItem@ioAliceObjectItem@@UBE_NXZ	; ioAliceObjectItem::IsOneTimeWeaponItem
; Function compile flags: /Ogsp
;	COMDAT ?IsOneTimeWeaponItem@ioAliceObjectItem@@UBE_NXZ
_TEXT	SEGMENT
?IsOneTimeWeaponItem@ioAliceObjectItem@@UBE_NXZ PROC	; ioAliceObjectItem::IsOneTimeWeaponItem, COMDAT
; _this$ = ecx

; 115  : 	return false;

  00000	32 c0		 xor	 al, al

; 116  : }

  00002	c3		 ret	 0
?IsOneTimeWeaponItem@ioAliceObjectItem@@UBE_NXZ ENDP	; ioAliceObjectItem::IsOneTimeWeaponItem
_TEXT	ENDS
PUBLIC	?OnEquiped@ioAliceObjectItem@@UAEXPAVioBaseChar@@@Z ; ioAliceObjectItem::OnEquiped
EXTRN	?OnEquiped@ioObjectItem@@UAEXPAVioBaseChar@@@Z:PROC ; ioObjectItem::OnEquiped
; Function compile flags: /Ogsp
;	COMDAT ?OnEquiped@ioAliceObjectItem@@UAEXPAVioBaseChar@@@Z
_TEXT	SEGMENT
_pOwner$ = 8						; size = 4
?OnEquiped@ioAliceObjectItem@@UAEXPAVioBaseChar@@@Z PROC ; ioAliceObjectItem::OnEquiped, COMDAT
; _this$ = ecx

; 119  : {

  00000	55		 push	 ebp
  00001	8b ec		 mov	 ebp, esp
  00003	56		 push	 esi

; 120  : 	ioObjectItem::OnEquiped( pOwner );

  00004	ff 75 08	 push	 DWORD PTR _pOwner$[ebp]
  00007	8b f1		 mov	 esi, ecx
  00009	e8 00 00 00 00	 call	 ?OnEquiped@ioObjectItem@@UAEXPAVioBaseChar@@@Z ; ioObjectItem::OnEquiped

; 121  : 
; 122  : 	m_iWeaponWay		= 0;

  0000e	33 c0		 xor	 eax, eax
  00010	89 86 74 1b 00
	00		 mov	 DWORD PTR [esi+7028], eax

; 123  : 	m_iCurCombo			= 0;

  00016	89 86 78 1b 00
	00		 mov	 DWORD PTR [esi+7032], eax

; 124  : 	m_bReserveRelease	= false;

  0001c	88 86 7c 1b 00
	00		 mov	 BYTE PTR [esi+7036], al
  00022	5e		 pop	 esi

; 125  : }

  00023	5d		 pop	 ebp
  00024	c2 04 00	 ret	 4
?OnEquiped@ioAliceObjectItem@@UAEXPAVioBaseChar@@@Z ENDP ; ioAliceObjectItem::OnEquiped
_TEXT	ENDS
PUBLIC	?OnReleased@ioAliceObjectItem@@UAEXPAVioBaseChar@@@Z ; ioAliceObjectItem::OnReleased
EXTRN	?OnReleased@ioObjectItem@@UAEXPAVioBaseChar@@@Z:PROC ; ioObjectItem::OnReleased
; Function compile flags: /Ogsp
;	COMDAT ?OnReleased@ioAliceObjectItem@@UAEXPAVioBaseChar@@@Z
_TEXT	SEGMENT
_pOwner$ = 8						; size = 4
?OnReleased@ioAliceObjectItem@@UAEXPAVioBaseChar@@@Z PROC ; ioAliceObjectItem::OnReleased, COMDAT
; _this$ = ecx

; 128  : {

  00000	55		 push	 ebp
  00001	8b ec		 mov	 ebp, esp
  00003	56		 push	 esi

; 129  : 	ioObjectItem::OnReleased( pOwner );

  00004	ff 75 08	 push	 DWORD PTR _pOwner$[ebp]
  00007	8b f1		 mov	 esi, ecx
  00009	e8 00 00 00 00	 call	 ?OnReleased@ioObjectItem@@UAEXPAVioBaseChar@@@Z ; ioObjectItem::OnReleased

; 130  : 
; 131  : 	m_iWeaponWay		= 0;

  0000e	33 c0		 xor	 eax, eax
  00010	89 86 74 1b 00
	00		 mov	 DWORD PTR [esi+7028], eax

; 132  : 	m_iCurCombo			= 0;

  00016	89 86 78 1b 00
	00		 mov	 DWORD PTR [esi+7032], eax

; 133  : 	m_bReserveRelease	= false;

  0001c	88 86 7c 1b 00
	00		 mov	 BYTE PTR [esi+7036], al
  00022	5e		 pop	 esi

; 134  : }

  00023	5d		 pop	 ebp
  00024	c2 04 00	 ret	 4
?OnReleased@ioAliceObjectItem@@UAEXPAVioBaseChar@@@Z ENDP ; ioAliceObjectItem::OnReleased
_TEXT	ENDS
PUBLIC	?SetNormalAttack@ioAliceObjectItem@@UAEXPAVioBaseChar@@H@Z ; ioAliceObjectItem::SetNormalAttack
EXTRN	?SetNormalAttack@ioAttackableItem@@UAEXPAVioBaseChar@@H@Z:PROC ; ioAttackableItem::SetNormalAttack
; Function compile flags: /Ogsp
;	COMDAT ?SetNormalAttack@ioAliceObjectItem@@UAEXPAVioBaseChar@@H@Z
_TEXT	SEGMENT
_pOwner$ = 8						; size = 4
_iCurCombo$ = 12					; size = 4
?SetNormalAttack@ioAliceObjectItem@@UAEXPAVioBaseChar@@H@Z PROC ; ioAliceObjectItem::SetNormalAttack, COMDAT
; _this$ = ecx

; 137  : {

  00000	55		 push	 ebp
  00001	8b ec		 mov	 ebp, esp
  00003	56		 push	 esi
  00004	57		 push	 edi

; 138  : 	ioObjectItem::SetNormalAttack( pOwner, iCurCombo );

  00005	8b 7d 0c	 mov	 edi, DWORD PTR _iCurCombo$[ebp]
  00008	57		 push	 edi
  00009	ff 75 08	 push	 DWORD PTR _pOwner$[ebp]
  0000c	8b f1		 mov	 esi, ecx
  0000e	e8 00 00 00 00	 call	 ?SetNormalAttack@ioAttackableItem@@UAEXPAVioBaseChar@@H@Z ; ioAttackableItem::SetNormalAttack

; 139  : 
; 140  : 	m_iWeaponWay	= 0;

  00013	83 a6 74 1b 00
	00 00		 and	 DWORD PTR [esi+7028], 0

; 141  : 	m_iCurCombo		= iCurCombo;

  0001a	89 be 78 1b 00
	00		 mov	 DWORD PTR [esi+7032], edi
  00020	5f		 pop	 edi
  00021	5e		 pop	 esi

; 142  : }

  00022	5d		 pop	 ebp
  00023	c2 08 00	 ret	 8
?SetNormalAttack@ioAliceObjectItem@@UAEXPAVioBaseChar@@H@Z ENDP ; ioAliceObjectItem::SetNormalAttack
_TEXT	ENDS
PUBLIC	?NotifyDashAttack@ioAliceObjectItem@@QAEXPAVioBaseChar@@@Z ; ioAliceObjectItem::NotifyDashAttack
; Function compile flags: /Ogsp
;	COMDAT ?NotifyDashAttack@ioAliceObjectItem@@QAEXPAVioBaseChar@@@Z
_TEXT	SEGMENT
_pOwner$ = 8						; size = 4
?NotifyDashAttack@ioAliceObjectItem@@QAEXPAVioBaseChar@@@Z PROC ; ioAliceObjectItem::NotifyDashAttack, COMDAT
; _this$ = ecx

; 146  : 	m_iCurCombo  = 0;

  00000	83 a1 78 1b 00
	00 00		 and	 DWORD PTR [ecx+7032], 0

; 147  : 	m_iWeaponWay = 0;

  00007	83 a1 74 1b 00
	00 00		 and	 DWORD PTR [ecx+7028], 0

; 148  : }

  0000e	c2 04 00	 ret	 4
?NotifyDashAttack@ioAliceObjectItem@@QAEXPAVioBaseChar@@@Z ENDP ; ioAliceObjectItem::NotifyDashAttack
_TEXT	ENDS
PUBLIC	?NotifyJumpAttack@ioAliceObjectItem@@QAEXPAVioBaseChar@@H@Z ; ioAliceObjectItem::NotifyJumpAttack
; Function compile flags: /Ogsp
;	COMDAT ?NotifyJumpAttack@ioAliceObjectItem@@QAEXPAVioBaseChar@@H@Z
_TEXT	SEGMENT
_pOwner$ = 8						; size = 4
_iCurCombo$ = 12					; size = 4
?NotifyJumpAttack@ioAliceObjectItem@@QAEXPAVioBaseChar@@H@Z PROC ; ioAliceObjectItem::NotifyJumpAttack, COMDAT
; _this$ = ecx

; 151  : {

  00000	55		 push	 ebp
  00001	8b ec		 mov	 ebp, esp

; 152  : 	m_iWeaponWay	= 0;
; 153  : 	m_iCurCombo		= iCurCombo;

  00003	8b 45 0c	 mov	 eax, DWORD PTR _iCurCombo$[ebp]
  00006	83 a1 74 1b 00
	00 00		 and	 DWORD PTR [ecx+7028], 0
  0000d	89 81 78 1b 00
	00		 mov	 DWORD PTR [ecx+7032], eax

; 154  : }

  00013	5d		 pop	 ebp
  00014	c2 08 00	 ret	 8
?NotifyJumpAttack@ioAliceObjectItem@@QAEXPAVioBaseChar@@H@Z ENDP ; ioAliceObjectItem::NotifyJumpAttack
_TEXT	ENDS
PUBLIC	?NotifyDashJumpAttack@ioAliceObjectItem@@QAEXPAVioBaseChar@@H@Z ; ioAliceObjectItem::NotifyDashJumpAttack
; Function compile flags: /Ogsp
;	COMDAT ?NotifyDashJumpAttack@ioAliceObjectItem@@QAEXPAVioBaseChar@@H@Z
_TEXT	SEGMENT
_pOwner$ = 8						; size = 4
_iCurCombo$ = 12					; size = 4
?NotifyDashJumpAttack@ioAliceObjectItem@@QAEXPAVioBaseChar@@H@Z PROC ; ioAliceObjectItem::NotifyDashJumpAttack, COMDAT
; _this$ = ecx

; 157  : {

  00000	55		 push	 ebp
  00001	8b ec		 mov	 ebp, esp

; 158  : 	m_iCurCombo  = 0;
; 159  : 	m_iWeaponWay = iCurCombo;

  00003	8b 45 0c	 mov	 eax, DWORD PTR _iCurCombo$[ebp]
  00006	83 a1 78 1b 00
	00 00		 and	 DWORD PTR [ecx+7032], 0
  0000d	89 81 74 1b 00
	00		 mov	 DWORD PTR [ecx+7028], eax

; 160  : }

  00013	5d		 pop	 ebp
  00014	c2 08 00	 ret	 8
?NotifyDashJumpAttack@ioAliceObjectItem@@QAEXPAVioBaseChar@@H@Z ENDP ; ioAliceObjectItem::NotifyDashJumpAttack
_TEXT	ENDS
PUBLIC	?IsEnableDash@ioAliceObjectItem@@UBE_NXZ	; ioAliceObjectItem::IsEnableDash
; Function compile flags: /Ogsp
;	COMDAT ?IsEnableDash@ioAliceObjectItem@@UBE_NXZ
_TEXT	SEGMENT
?IsEnableDash@ioAliceObjectItem@@UBE_NXZ PROC		; ioAliceObjectItem::IsEnableDash, COMDAT
; _this$ = ecx

; 229  : 	return true;

  00000	b0 01		 mov	 al, 1

; 230  : }

  00002	c3		 ret	 0
?IsEnableDash@ioAliceObjectItem@@UBE_NXZ ENDP		; ioAliceObjectItem::IsEnableDash
_TEXT	ENDS
PUBLIC	?size@?$vector@UBulletInfo@@V?$allocator@UBulletInfo@@@std@@@std@@QBEIXZ ; std::vector<BulletInfo,std::allocator<BulletInfo> >::size
; Function compile flags: /Ogsp
; File c:\program files (x86)\microsoft visual studio 10.0\vc\include\vector
;	COMDAT ?size@?$vector@UBulletInfo@@V?$allocator@UBulletInfo@@@std@@@std@@QBEIXZ
_TEXT	SEGMENT
?size@?$vector@UBulletInfo@@V?$allocator@UBulletInfo@@@std@@@std@@QBEIXZ PROC ; std::vector<BulletInfo,std::allocator<BulletInfo> >::size, COMDAT
; _this$ = ecx

; 879  : 		return (this->_Mylast - this->_Myfirst);

  00000	8b 41 04	 mov	 eax, DWORD PTR [ecx+4]
  00003	2b 01		 sub	 eax, DWORD PTR [ecx]
  00005	6a 14		 push	 20			; 00000014H
  00007	99		 cdq
  00008	59		 pop	 ecx
  00009	f7 f9		 idiv	 ecx

; 880  : 		}

  0000b	c3		 ret	 0
?size@?$vector@UBulletInfo@@V?$allocator@UBulletInfo@@@std@@@std@@QBEIXZ ENDP ; std::vector<BulletInfo,std::allocator<BulletInfo> >::size
_TEXT	ENDS
PUBLIC	??A?$vector@UBulletInfo@@V?$allocator@UBulletInfo@@@std@@@std@@QAEAAUBulletInfo@@I@Z ; std::vector<BulletInfo,std::allocator<BulletInfo> >::operator[]
; Function compile flags: /Ogsp
;	COMDAT ??A?$vector@UBulletInfo@@V?$allocator@UBulletInfo@@@std@@@std@@QAEAAUBulletInfo@@I@Z
_TEXT	SEGMENT
__Pos$ = 8						; size = 4
??A?$vector@UBulletInfo@@V?$allocator@UBulletInfo@@@std@@@std@@QAEAAUBulletInfo@@I@Z PROC ; std::vector<BulletInfo,std::allocator<BulletInfo> >::operator[], COMDAT
; _this$ = ecx

; 928  : 		{	// subscript mutable sequence

  00000	55		 push	 ebp
  00001	8b ec		 mov	 ebp, esp

; 929  :  #if _ITERATOR_DEBUG_LEVEL == 2
; 930  : 		if (size() <= _Pos)
; 931  : 			{	// report error
; 932  : 			_DEBUG_ERROR("vector subscript out of range");
; 933  : 			_SCL_SECURE_OUT_OF_RANGE;
; 934  : 			}
; 935  : 
; 936  :  #elif _ITERATOR_DEBUG_LEVEL == 1
; 937  : 		_SCL_SECURE_VALIDATE_RANGE(_Pos < size());
; 938  :  #endif /* _ITERATOR_DEBUG_LEVEL */
; 939  : 
; 940  : 		return (*(this->_Myfirst + _Pos));

  00003	8b 45 08	 mov	 eax, DWORD PTR __Pos$[ebp]
  00006	6b c0 14	 imul	 eax, 20			; 00000014H
  00009	03 01		 add	 eax, DWORD PTR [ecx]

; 941  : 		}

  0000b	5d		 pop	 ebp
  0000c	c2 04 00	 ret	 4
??A?$vector@UBulletInfo@@V?$allocator@UBulletInfo@@@std@@@std@@QAEAAUBulletInfo@@I@Z ENDP ; std::vector<BulletInfo,std::allocator<BulletInfo> >::operator[]
_TEXT	ENDS
PUBLIC	?size@?$vector@UBulletSet@ioAliceObjectItem@@V?$allocator@UBulletSet@ioAliceObjectItem@@@std@@@std@@QBEIXZ ; std::vector<ioAliceObjectItem::BulletSet,std::allocator<ioAliceObjectItem::BulletSet> >::size
; Function compile flags: /Ogsp
;	COMDAT ?size@?$vector@UBulletSet@ioAliceObjectItem@@V?$allocator@UBulletSet@ioAliceObjectItem@@@std@@@std@@QBEIXZ
_TEXT	SEGMENT
?size@?$vector@UBulletSet@ioAliceObjectItem@@V?$allocator@UBulletSet@ioAliceObjectItem@@@std@@@std@@QBEIXZ PROC ; std::vector<ioAliceObjectItem::BulletSet,std::allocator<ioAliceObjectItem::BulletSet> >::size, COMDAT
; _this$ = ecx

; 879  : 		return (this->_Mylast - this->_Myfirst);

  00000	8b 41 04	 mov	 eax, DWORD PTR [ecx+4]
  00003	2b 01		 sub	 eax, DWORD PTR [ecx]
  00005	6a 14		 push	 20			; 00000014H
  00007	99		 cdq
  00008	59		 pop	 ecx
  00009	f7 f9		 idiv	 ecx

; 880  : 		}

  0000b	c3		 ret	 0
?size@?$vector@UBulletSet@ioAliceObjectItem@@V?$allocator@UBulletSet@ioAliceObjectItem@@@std@@@std@@QBEIXZ ENDP ; std::vector<ioAliceObjectItem::BulletSet,std::allocator<ioAliceObjectItem::BulletSet> >::size
_TEXT	ENDS
PUBLIC	??A?$vector@UBulletSet@ioAliceObjectItem@@V?$allocator@UBulletSet@ioAliceObjectItem@@@std@@@std@@QAEAAUBulletSet@ioAliceObjectItem@@I@Z ; std::vector<ioAliceObjectItem::BulletSet,std::allocator<ioAliceObjectItem::BulletSet> >::operator[]
; Function compile flags: /Ogsp
;	COMDAT ??A?$vector@UBulletSet@ioAliceObjectItem@@V?$allocator@UBulletSet@ioAliceObjectItem@@@std@@@std@@QAEAAUBulletSet@ioAliceObjectItem@@I@Z
_TEXT	SEGMENT
__Pos$ = 8						; size = 4
??A?$vector@UBulletSet@ioAliceObjectItem@@V?$allocator@UBulletSet@ioAliceObjectItem@@@std@@@std@@QAEAAUBulletSet@ioAliceObjectItem@@I@Z PROC ; std::vector<ioAliceObjectItem::BulletSet,std::allocator<ioAliceObjectItem::BulletSet> >::operator[], COMDAT
; _this$ = ecx

; 928  : 		{	// subscript mutable sequence

  00000	55		 push	 ebp
  00001	8b ec		 mov	 ebp, esp

; 929  :  #if _ITERATOR_DEBUG_LEVEL == 2
; 930  : 		if (size() <= _Pos)
; 931  : 			{	// report error
; 932  : 			_DEBUG_ERROR("vector subscript out of range");
; 933  : 			_SCL_SECURE_OUT_OF_RANGE;
; 934  : 			}
; 935  : 
; 936  :  #elif _ITERATOR_DEBUG_LEVEL == 1
; 937  : 		_SCL_SECURE_VALIDATE_RANGE(_Pos < size());
; 938  :  #endif /* _ITERATOR_DEBUG_LEVEL */
; 939  : 
; 940  : 		return (*(this->_Myfirst + _Pos));

  00003	8b 45 08	 mov	 eax, DWORD PTR __Pos$[ebp]
  00006	6b c0 14	 imul	 eax, 20			; 00000014H
  00009	03 01		 add	 eax, DWORD PTR [ecx]

; 941  : 		}

  0000b	5d		 pop	 ebp
  0000c	c2 04 00	 ret	 4
??A?$vector@UBulletSet@ioAliceObjectItem@@V?$allocator@UBulletSet@ioAliceObjectItem@@@std@@@std@@QAEAAUBulletSet@ioAliceObjectItem@@I@Z ENDP ; std::vector<ioAliceObjectItem::BulletSet,std::allocator<ioAliceObjectItem::BulletSet> >::operator[]
_TEXT	ENDS
PUBLIC	?_Inside@?$vector@UBulletInfo@@V?$allocator@UBulletInfo@@@std@@@std@@IBE_NPBUBulletInfo@@@Z ; std::vector<BulletInfo,std::allocator<BulletInfo> >::_Inside
; Function compile flags: /Ogsp
;	COMDAT ?_Inside@?$vector@UBulletInfo@@V?$allocator@UBulletInfo@@@std@@@std@@IBE_NPBUBulletInfo@@@Z
_TEXT	SEGMENT
__Ptr$ = 8						; size = 4
?_Inside@?$vector@UBulletInfo@@V?$allocator@UBulletInfo@@@std@@@std@@IBE_NPBUBulletInfo@@@Z PROC ; std::vector<BulletInfo,std::allocator<BulletInfo> >::_Inside, COMDAT
; _this$ = ecx

; 1285 : 		{	// test if _Ptr points inside vector

  00000	55		 push	 ebp
  00001	8b ec		 mov	 ebp, esp

; 1286 : 		return (_Ptr < this->_Mylast && this->_Myfirst <= _Ptr);

  00003	8b 45 08	 mov	 eax, DWORD PTR __Ptr$[ebp]
  00006	3b 41 04	 cmp	 eax, DWORD PTR [ecx+4]
  00009	73 09		 jae	 SHORT $LN3@Inside
  0000b	39 01		 cmp	 DWORD PTR [ecx], eax
  0000d	77 05		 ja	 SHORT $LN3@Inside
  0000f	33 c0		 xor	 eax, eax
  00011	40		 inc	 eax
  00012	eb 02		 jmp	 SHORT $LN4@Inside
$LN3@Inside:
  00014	33 c0		 xor	 eax, eax
$LN4@Inside:

; 1287 : 		}

  00016	5d		 pop	 ebp
  00017	c2 04 00	 ret	 4
?_Inside@?$vector@UBulletInfo@@V?$allocator@UBulletInfo@@@std@@@std@@IBE_NPBUBulletInfo@@@Z ENDP ; std::vector<BulletInfo,std::allocator<BulletInfo> >::_Inside
_TEXT	ENDS
PUBLIC	?_Orphan_range@?$vector@UBulletInfo@@V?$allocator@UBulletInfo@@@std@@@std@@IBEXPAUBulletInfo@@0@Z ; std::vector<BulletInfo,std::allocator<BulletInfo> >::_Orphan_range
; Function compile flags: /Ogsp
;	COMDAT ?_Orphan_range@?$vector@UBulletInfo@@V?$allocator@UBulletInfo@@@std@@@std@@IBEXPAUBulletInfo@@0@Z
_TEXT	SEGMENT
___formal$ = 8						; size = 4
___formal$ = 12						; size = 4
?_Orphan_range@?$vector@UBulletInfo@@V?$allocator@UBulletInfo@@@std@@@std@@IBEXPAUBulletInfo@@0@Z PROC ; std::vector<BulletInfo,std::allocator<BulletInfo> >::_Orphan_range, COMDAT
; _this$ = ecx

; 1454 : 		}

  00000	c2 08 00	 ret	 8
?_Orphan_range@?$vector@UBulletInfo@@V?$allocator@UBulletInfo@@@std@@@std@@IBEXPAUBulletInfo@@0@Z ENDP ; std::vector<BulletInfo,std::allocator<BulletInfo> >::_Orphan_range
_TEXT	ENDS
PUBLIC	??1?$_Vector_val@UBulletInfo@@V?$allocator@UBulletInfo@@@std@@@std@@QAE@XZ ; std::_Vector_val<BulletInfo,std::allocator<BulletInfo> >::~_Vector_val<BulletInfo,std::allocator<BulletInfo> >
; Function compile flags: /Ogsp
;	COMDAT ??1?$_Vector_val@UBulletInfo@@V?$allocator@UBulletInfo@@@std@@@std@@QAE@XZ
_TEXT	SEGMENT
??1?$_Vector_val@UBulletInfo@@V?$allocator@UBulletInfo@@@std@@@std@@QAE@XZ PROC ; std::_Vector_val<BulletInfo,std::allocator<BulletInfo> >::~_Vector_val<BulletInfo,std::allocator<BulletInfo> >, COMDAT
; _this$ = ecx

; 434  : 		}

  00000	c3		 ret	 0
??1?$_Vector_val@UBulletInfo@@V?$allocator@UBulletInfo@@@std@@@std@@QAE@XZ ENDP ; std::_Vector_val<BulletInfo,std::allocator<BulletInfo> >::~_Vector_val<BulletInfo,std::allocator<BulletInfo> >
_TEXT	ENDS
PUBLIC	??0?$allocator@UBulletInfo@@@std@@QAE@XZ	; std::allocator<BulletInfo>::allocator<BulletInfo>
; Function compile flags: /Ogsp
; File c:\program files (x86)\microsoft visual studio 10.0\vc\include\xmemory
;	COMDAT ??0?$allocator@UBulletInfo@@@std@@QAE@XZ
_TEXT	SEGMENT
??0?$allocator@UBulletInfo@@@std@@QAE@XZ PROC		; std::allocator<BulletInfo>::allocator<BulletInfo>, COMDAT
; _this$ = ecx

; 161  : 	_ALLOCATOR() _THROW0()

  00000	8b c1		 mov	 eax, ecx

; 162  : 		{	// construct default allocator (do nothing)
; 163  : 		}

  00002	c3		 ret	 0
??0?$allocator@UBulletInfo@@@std@@QAE@XZ ENDP		; std::allocator<BulletInfo>::allocator<BulletInfo>
_TEXT	ENDS
PUBLIC	?_Inside@?$vector@UBulletSet@ioAliceObjectItem@@V?$allocator@UBulletSet@ioAliceObjectItem@@@std@@@std@@IBE_NPBUBulletSet@ioAliceObjectItem@@@Z ; std::vector<ioAliceObjectItem::BulletSet,std::allocator<ioAliceObjectItem::BulletSet> >::_Inside
; Function compile flags: /Ogsp
; File c:\program files (x86)\microsoft visual studio 10.0\vc\include\vector
;	COMDAT ?_Inside@?$vector@UBulletSet@ioAliceObjectItem@@V?$allocator@UBulletSet@ioAliceObjectItem@@@std@@@std@@IBE_NPBUBulletSet@ioAliceObjectItem@@@Z
_TEXT	SEGMENT
__Ptr$ = 8						; size = 4
?_Inside@?$vector@UBulletSet@ioAliceObjectItem@@V?$allocator@UBulletSet@ioAliceObjectItem@@@std@@@std@@IBE_NPBUBulletSet@ioAliceObjectItem@@@Z PROC ; std::vector<ioAliceObjectItem::BulletSet,std::allocator<ioAliceObjectItem::BulletSet> >::_Inside, COMDAT
; _this$ = ecx

; 1285 : 		{	// test if _Ptr points inside vector

  00000	55		 push	 ebp
  00001	8b ec		 mov	 ebp, esp

; 1286 : 		return (_Ptr < this->_Mylast && this->_Myfirst <= _Ptr);

  00003	8b 45 08	 mov	 eax, DWORD PTR __Ptr$[ebp]
  00006	3b 41 04	 cmp	 eax, DWORD PTR [ecx+4]
  00009	73 09		 jae	 SHORT $LN3@Inside@2
  0000b	39 01		 cmp	 DWORD PTR [ecx], eax
  0000d	77 05		 ja	 SHORT $LN3@Inside@2
  0000f	33 c0		 xor	 eax, eax
  00011	40		 inc	 eax
  00012	eb 02		 jmp	 SHORT $LN4@Inside@2
$LN3@Inside@2:
  00014	33 c0		 xor	 eax, eax
$LN4@Inside@2:

; 1287 : 		}

  00016	5d		 pop	 ebp
  00017	c2 04 00	 ret	 4
?_Inside@?$vector@UBulletSet@ioAliceObjectItem@@V?$allocator@UBulletSet@ioAliceObjectItem@@@std@@@std@@IBE_NPBUBulletSet@ioAliceObjectItem@@@Z ENDP ; std::vector<ioAliceObjectItem::BulletSet,std::allocator<ioAliceObjectItem::BulletSet> >::_Inside
_TEXT	ENDS
PUBLIC	?_Orphan_range@?$vector@UBulletSet@ioAliceObjectItem@@V?$allocator@UBulletSet@ioAliceObjectItem@@@std@@@std@@IBEXPAUBulletSet@ioAliceObjectItem@@0@Z ; std::vector<ioAliceObjectItem::BulletSet,std::allocator<ioAliceObjectItem::BulletSet> >::_Orphan_range
; Function compile flags: /Ogsp
;	COMDAT ?_Orphan_range@?$vector@UBulletSet@ioAliceObjectItem@@V?$allocator@UBulletSet@ioAliceObjectItem@@@std@@@std@@IBEXPAUBulletSet@ioAliceObjectItem@@0@Z
_TEXT	SEGMENT
___formal$ = 8						; size = 4
___formal$ = 12						; size = 4
?_Orphan_range@?$vector@UBulletSet@ioAliceObjectItem@@V?$allocator@UBulletSet@ioAliceObjectItem@@@std@@@std@@IBEXPAUBulletSet@ioAliceObjectItem@@0@Z PROC ; std::vector<ioAliceObjectItem::BulletSet,std::allocator<ioAliceObjectItem::BulletSet> >::_Orphan_range, COMDAT
; _this$ = ecx

; 1454 : 		}

  00000	c2 08 00	 ret	 8
?_Orphan_range@?$vector@UBulletSet@ioAliceObjectItem@@V?$allocator@UBulletSet@ioAliceObjectItem@@@std@@@std@@IBEXPAUBulletSet@ioAliceObjectItem@@0@Z ENDP ; std::vector<ioAliceObjectItem::BulletSet,std::allocator<ioAliceObjectItem::BulletSet> >::_Orphan_range
_TEXT	ENDS
PUBLIC	??1?$_Vector_val@UBulletSet@ioAliceObjectItem@@V?$allocator@UBulletSet@ioAliceObjectItem@@@std@@@std@@QAE@XZ ; std::_Vector_val<ioAliceObjectItem::BulletSet,std::allocator<ioAliceObjectItem::BulletSet> >::~_Vector_val<ioAliceObjectItem::BulletSet,std::allocator<ioAliceObjectItem::BulletSet> >
; Function compile flags: /Ogsp
;	COMDAT ??1?$_Vector_val@UBulletSet@ioAliceObjectItem@@V?$allocator@UBulletSet@ioAliceObjectItem@@@std@@@std@@QAE@XZ
_TEXT	SEGMENT
??1?$_Vector_val@UBulletSet@ioAliceObjectItem@@V?$allocator@UBulletSet@ioAliceObjectItem@@@std@@@std@@QAE@XZ PROC ; std::_Vector_val<ioAliceObjectItem::BulletSet,std::allocator<ioAliceObjectItem::BulletSet> >::~_Vector_val<ioAliceObjectItem::BulletSet,std::allocator<ioAliceObjectItem::BulletSet> >, COMDAT
; _this$ = ecx

; 434  : 		}

  00000	c3		 ret	 0
??1?$_Vector_val@UBulletSet@ioAliceObjectItem@@V?$allocator@UBulletSet@ioAliceObjectItem@@@std@@@std@@QAE@XZ ENDP ; std::_Vector_val<ioAliceObjectItem::BulletSet,std::allocator<ioAliceObjectItem::BulletSet> >::~_Vector_val<ioAliceObjectItem::BulletSet,std::allocator<ioAliceObjectItem::BulletSet> >
_TEXT	ENDS
PUBLIC	??0?$allocator@UBulletSet@ioAliceObjectItem@@@std@@QAE@XZ ; std::allocator<ioAliceObjectItem::BulletSet>::allocator<ioAliceObjectItem::BulletSet>
; Function compile flags: /Ogsp
; File c:\program files (x86)\microsoft visual studio 10.0\vc\include\xmemory
;	COMDAT ??0?$allocator@UBulletSet@ioAliceObjectItem@@@std@@QAE@XZ
_TEXT	SEGMENT
??0?$allocator@UBulletSet@ioAliceObjectItem@@@std@@QAE@XZ PROC ; std::allocator<ioAliceObjectItem::BulletSet>::allocator<ioAliceObjectItem::BulletSet>, COMDAT
; _this$ = ecx

; 161  : 	_ALLOCATOR() _THROW0()

  00000	8b c1		 mov	 eax, ecx

; 162  : 		{	// construct default allocator (do nothing)
; 163  : 		}

  00002	c3		 ret	 0
??0?$allocator@UBulletSet@ioAliceObjectItem@@@std@@QAE@XZ ENDP ; std::allocator<ioAliceObjectItem::BulletSet>::allocator<ioAliceObjectItem::BulletSet>
_TEXT	ENDS
PUBLIC	??0?$allocator@UBulletSet@ioAliceObjectItem@@@std@@QAE@ABV01@@Z ; std::allocator<ioAliceObjectItem::BulletSet>::allocator<ioAliceObjectItem::BulletSet>
; Function compile flags: /Ogsp
;	COMDAT ??0?$allocator@UBulletSet@ioAliceObjectItem@@@std@@QAE@ABV01@@Z
_TEXT	SEGMENT
___formal$ = 8						; size = 4
??0?$allocator@UBulletSet@ioAliceObjectItem@@@std@@QAE@ABV01@@Z PROC ; std::allocator<ioAliceObjectItem::BulletSet>::allocator<ioAliceObjectItem::BulletSet>, COMDAT
; _this$ = ecx

; 165  : 	_ALLOCATOR(const _ALLOCATOR<_Ty>&) _THROW0()

  00000	8b c1		 mov	 eax, ecx

; 166  : 		{	// construct by copying (do nothing)
; 167  : 		}

  00002	c2 04 00	 ret	 4
??0?$allocator@UBulletSet@ioAliceObjectItem@@@std@@QAE@ABV01@@Z ENDP ; std::allocator<ioAliceObjectItem::BulletSet>::allocator<ioAliceObjectItem::BulletSet>
_TEXT	ENDS
PUBLIC	?capacity@?$vector@UBulletInfo@@V?$allocator@UBulletInfo@@@std@@@std@@QBEIXZ ; std::vector<BulletInfo,std::allocator<BulletInfo> >::capacity
; Function compile flags: /Ogsp
; File c:\program files (x86)\microsoft visual studio 10.0\vc\include\vector
;	COMDAT ?capacity@?$vector@UBulletInfo@@V?$allocator@UBulletInfo@@@std@@@std@@QBEIXZ
_TEXT	SEGMENT
?capacity@?$vector@UBulletInfo@@V?$allocator@UBulletInfo@@@std@@@std@@QBEIXZ PROC ; std::vector<BulletInfo,std::allocator<BulletInfo> >::capacity, COMDAT
; _this$ = ecx

; 777  : 		return (this->_Myend - this->_Myfirst);

  00000	8b 41 08	 mov	 eax, DWORD PTR [ecx+8]
  00003	2b 01		 sub	 eax, DWORD PTR [ecx]
  00005	6a 14		 push	 20			; 00000014H
  00007	99		 cdq
  00008	59		 pop	 ecx
  00009	f7 f9		 idiv	 ecx

; 778  : 		}

  0000b	c3		 ret	 0
?capacity@?$vector@UBulletInfo@@V?$allocator@UBulletInfo@@@std@@@std@@QBEIXZ ENDP ; std::vector<BulletInfo,std::allocator<BulletInfo> >::capacity
_TEXT	ENDS
PUBLIC	??_C@_0BD@OLBABOEK@vector?$DMT?$DO?5too?5long?$AA@ ; `string'
PUBLIC	?_Xlen@?$vector@UBulletInfo@@V?$allocator@UBulletInfo@@@std@@@std@@IBEXXZ ; std::vector<BulletInfo,std::allocator<BulletInfo> >::_Xlen
EXTRN	__imp_?_Xlength_error@std@@YAXPBD@Z:PROC
;	COMDAT ??_C@_0BD@OLBABOEK@vector?$DMT?$DO?5too?5long?$AA@
CONST	SEGMENT
??_C@_0BD@OLBABOEK@vector?$DMT?$DO?5too?5long?$AA@ DB 'vector<T> too long'
	DB	00H						; `string'
; Function compile flags: /Ogsp
CONST	ENDS
;	COMDAT ?_Xlen@?$vector@UBulletInfo@@V?$allocator@UBulletInfo@@@std@@@std@@IBEXXZ
_TEXT	SEGMENT
?_Xlen@?$vector@UBulletInfo@@V?$allocator@UBulletInfo@@@std@@@std@@IBEXXZ PROC ; std::vector<BulletInfo,std::allocator<BulletInfo> >::_Xlen, COMDAT
; _this$ = ecx

; 1427 : 		_Xlength_error("vector<T> too long");

  00000	68 00 00 00 00	 push	 OFFSET ??_C@_0BD@OLBABOEK@vector?$DMT?$DO?5too?5long?$AA@
  00005	ff 15 00 00 00
	00		 call	 DWORD PTR __imp_?_Xlength_error@std@@YAXPBD@Z
$LN4@Xlen:
$LN3@Xlen:
  0000b	cc		 int	 3
?_Xlen@?$vector@UBulletInfo@@V?$allocator@UBulletInfo@@@std@@@std@@IBEXXZ ENDP ; std::vector<BulletInfo,std::allocator<BulletInfo> >::_Xlen
_TEXT	ENDS
PUBLIC	??0?$allocator@UBulletInfo@@@std@@QAE@ABV01@@Z	; std::allocator<BulletInfo>::allocator<BulletInfo>
; Function compile flags: /Ogsp
; File c:\program files (x86)\microsoft visual studio 10.0\vc\include\xmemory
;	COMDAT ??0?$allocator@UBulletInfo@@@std@@QAE@ABV01@@Z
_TEXT	SEGMENT
___formal$ = 8						; size = 4
??0?$allocator@UBulletInfo@@@std@@QAE@ABV01@@Z PROC	; std::allocator<BulletInfo>::allocator<BulletInfo>, COMDAT
; _this$ = ecx

; 165  : 	_ALLOCATOR(const _ALLOCATOR<_Ty>&) _THROW0()

  00000	8b c1		 mov	 eax, ecx

; 166  : 		{	// construct by copying (do nothing)
; 167  : 		}

  00002	c2 04 00	 ret	 4
??0?$allocator@UBulletInfo@@@std@@QAE@ABV01@@Z ENDP	; std::allocator<BulletInfo>::allocator<BulletInfo>
_TEXT	ENDS
PUBLIC	?deallocate@?$allocator@UBulletInfo@@@std@@QAEXPAUBulletInfo@@I@Z ; std::allocator<BulletInfo>::deallocate
; Function compile flags: /Ogsp
;	COMDAT ?deallocate@?$allocator@UBulletInfo@@@std@@QAEXPAUBulletInfo@@I@Z
_TEXT	SEGMENT
__Ptr$ = 8						; size = 4
___formal$ = 12						; size = 4
?deallocate@?$allocator@UBulletInfo@@@std@@QAEXPAUBulletInfo@@I@Z PROC ; std::allocator<BulletInfo>::deallocate, COMDAT
; _this$ = ecx

; 181  : 		{	// deallocate object at _Ptr, ignore size

  00000	55		 push	 ebp
  00001	8b ec		 mov	 ebp, esp

; 182  : 		::operator delete(_Ptr);

  00003	ff 75 08	 push	 DWORD PTR __Ptr$[ebp]
  00006	e8 00 00 00 00	 call	 ??3@YAXPAX@Z		; operator delete
  0000b	59		 pop	 ecx

; 183  : 		}

  0000c	5d		 pop	 ebp
  0000d	c2 08 00	 ret	 8
?deallocate@?$allocator@UBulletInfo@@@std@@QAEXPAUBulletInfo@@I@Z ENDP ; std::allocator<BulletInfo>::deallocate
_TEXT	ENDS
PUBLIC	?capacity@?$vector@UBulletSet@ioAliceObjectItem@@V?$allocator@UBulletSet@ioAliceObjectItem@@@std@@@std@@QBEIXZ ; std::vector<ioAliceObjectItem::BulletSet,std::allocator<ioAliceObjectItem::BulletSet> >::capacity
; Function compile flags: /Ogsp
; File c:\program files (x86)\microsoft visual studio 10.0\vc\include\vector
;	COMDAT ?capacity@?$vector@UBulletSet@ioAliceObjectItem@@V?$allocator@UBulletSet@ioAliceObjectItem@@@std@@@std@@QBEIXZ
_TEXT	SEGMENT
?capacity@?$vector@UBulletSet@ioAliceObjectItem@@V?$allocator@UBulletSet@ioAliceObjectItem@@@std@@@std@@QBEIXZ PROC ; std::vector<ioAliceObjectItem::BulletSet,std::allocator<ioAliceObjectItem::BulletSet> >::capacity, COMDAT
; _this$ = ecx

; 777  : 		return (this->_Myend - this->_Myfirst);

  00000	8b 41 08	 mov	 eax, DWORD PTR [ecx+8]
  00003	2b 01		 sub	 eax, DWORD PTR [ecx]
  00005	6a 14		 push	 20			; 00000014H
  00007	99		 cdq
  00008	59		 pop	 ecx
  00009	f7 f9		 idiv	 ecx

; 778  : 		}

  0000b	c3		 ret	 0
?capacity@?$vector@UBulletSet@ioAliceObjectItem@@V?$allocator@UBulletSet@ioAliceObjectItem@@@std@@@std@@QBEIXZ ENDP ; std::vector<ioAliceObjectItem::BulletSet,std::allocator<ioAliceObjectItem::BulletSet> >::capacity
_TEXT	ENDS
PUBLIC	?_Xlen@?$vector@UBulletSet@ioAliceObjectItem@@V?$allocator@UBulletSet@ioAliceObjectItem@@@std@@@std@@IBEXXZ ; std::vector<ioAliceObjectItem::BulletSet,std::allocator<ioAliceObjectItem::BulletSet> >::_Xlen
; Function compile flags: /Ogsp
;	COMDAT ?_Xlen@?$vector@UBulletSet@ioAliceObjectItem@@V?$allocator@UBulletSet@ioAliceObjectItem@@@std@@@std@@IBEXXZ
_TEXT	SEGMENT
?_Xlen@?$vector@UBulletSet@ioAliceObjectItem@@V?$allocator@UBulletSet@ioAliceObjectItem@@@std@@@std@@IBEXXZ PROC ; std::vector<ioAliceObjectItem::BulletSet,std::allocator<ioAliceObjectItem::BulletSet> >::_Xlen, COMDAT
; _this$ = ecx

; 1427 : 		_Xlength_error("vector<T> too long");

  00000	68 00 00 00 00	 push	 OFFSET ??_C@_0BD@OLBABOEK@vector?$DMT?$DO?5too?5long?$AA@
  00005	ff 15 00 00 00
	00		 call	 DWORD PTR __imp_?_Xlength_error@std@@YAXPBD@Z
$LN4@Xlen@2:
$LN3@Xlen@2:
  0000b	cc		 int	 3
?_Xlen@?$vector@UBulletSet@ioAliceObjectItem@@V?$allocator@UBulletSet@ioAliceObjectItem@@@std@@@std@@IBEXXZ ENDP ; std::vector<ioAliceObjectItem::BulletSet,std::allocator<ioAliceObjectItem::BulletSet> >::_Xlen
_TEXT	ENDS
PUBLIC	?deallocate@?$allocator@UBulletSet@ioAliceObjectItem@@@std@@QAEXPAUBulletSet@ioAliceObjectItem@@I@Z ; std::allocator<ioAliceObjectItem::BulletSet>::deallocate
; Function compile flags: /Ogsp
; File c:\program files (x86)\microsoft visual studio 10.0\vc\include\xmemory
;	COMDAT ?deallocate@?$allocator@UBulletSet@ioAliceObjectItem@@@std@@QAEXPAUBulletSet@ioAliceObjectItem@@I@Z
_TEXT	SEGMENT
__Ptr$ = 8						; size = 4
___formal$ = 12						; size = 4
?deallocate@?$allocator@UBulletSet@ioAliceObjectItem@@@std@@QAEXPAUBulletSet@ioAliceObjectItem@@I@Z PROC ; std::allocator<ioAliceObjectItem::BulletSet>::deallocate, COMDAT
; _this$ = ecx

; 181  : 		{	// deallocate object at _Ptr, ignore size

  00000	55		 push	 ebp
  00001	8b ec		 mov	 ebp, esp

; 182  : 		::operator delete(_Ptr);

  00003	ff 75 08	 push	 DWORD PTR __Ptr$[ebp]
  00006	e8 00 00 00 00	 call	 ??3@YAXPAX@Z		; operator delete
  0000b	59		 pop	 ecx

; 183  : 		}

  0000c	5d		 pop	 ebp
  0000d	c2 08 00	 ret	 8
?deallocate@?$allocator@UBulletSet@ioAliceObjectItem@@@std@@QAEXPAUBulletSet@ioAliceObjectItem@@I@Z ENDP ; std::allocator<ioAliceObjectItem::BulletSet>::deallocate
_TEXT	ENDS
PUBLIC	??0?$_Vector_const_iterator@V?$_Vector_val@UBulletSet@ioAliceObjectItem@@V?$allocator@UBulletSet@ioAliceObjectItem@@@std@@@std@@@std@@QAE@PAUBulletSet@ioAliceObjectItem@@PBU_Container_base0@1@@Z ; std::_Vector_const_iterator<std::_Vector_val<ioAliceObjectItem::BulletSet,std::allocator<ioAliceObjectItem::BulletSet> > >::_Vector_const_iterator<std::_Vector_val<ioAliceObjectItem::BulletSet,std::allocator<ioAliceObjectItem::BulletSet> > >
; Function compile flags: /Ogsp
; File c:\program files (x86)\microsoft visual studio 10.0\vc\include\vector
;	COMDAT ??0?$_Vector_const_iterator@V?$_Vector_val@UBulletSet@ioAliceObjectItem@@V?$allocator@UBulletSet@ioAliceObjectItem@@@std@@@std@@@std@@QAE@PAUBulletSet@ioAliceObjectItem@@PBU_Container_base0@1@@Z
_TEXT	SEGMENT
__Parg$ = 8						; size = 4
__Pvector$ = 12						; size = 4
??0?$_Vector_const_iterator@V?$_Vector_val@UBulletSet@ioAliceObjectItem@@V?$allocator@UBulletSet@ioAliceObjectItem@@@std@@@std@@@std@@QAE@PAUBulletSet@ioAliceObjectItem@@PBU_Container_base0@1@@Z PROC ; std::_Vector_const_iterator<std::_Vector_val<ioAliceObjectItem::BulletSet,std::allocator<ioAliceObjectItem::BulletSet> > >::_Vector_const_iterator<std::_Vector_val<ioAliceObjectItem::BulletSet,std::allocator<ioAliceObjectItem::BulletSet> > >, COMDAT
; _this$ = ecx

; 45   : 		{	// construct with pointer _Parg

  00000	55		 push	 ebp
  00001	8b ec		 mov	 ebp, esp
  00003	8b c1		 mov	 eax, ecx
  00005	8b 4d 08	 mov	 ecx, DWORD PTR __Parg$[ebp]
  00008	89 08		 mov	 DWORD PTR [eax], ecx

; 46   : 		this->_Adopt(_Pvector);
; 47   : 		}

  0000a	5d		 pop	 ebp
  0000b	c2 08 00	 ret	 8
??0?$_Vector_const_iterator@V?$_Vector_val@UBulletSet@ioAliceObjectItem@@V?$allocator@UBulletSet@ioAliceObjectItem@@@std@@@std@@@std@@QAE@PAUBulletSet@ioAliceObjectItem@@PBU_Container_base0@1@@Z ENDP ; std::_Vector_const_iterator<std::_Vector_val<ioAliceObjectItem::BulletSet,std::allocator<ioAliceObjectItem::BulletSet> > >::_Vector_const_iterator<std::_Vector_val<ioAliceObjectItem::BulletSet,std::allocator<ioAliceObjectItem::BulletSet> > >
_TEXT	ENDS
PUBLIC	?max_size@?$allocator@UBulletInfo@@@std@@QBEIXZ	; std::allocator<BulletInfo>::max_size
; Function compile flags: /Ogsp
; File c:\program files (x86)\microsoft visual studio 10.0\vc\include\xmemory
;	COMDAT ?max_size@?$allocator@UBulletInfo@@@std@@QBEIXZ
_TEXT	SEGMENT
?max_size@?$allocator@UBulletInfo@@@std@@QBEIXZ PROC	; std::allocator<BulletInfo>::max_size, COMDAT
; _this$ = ecx

; 218  : 		_SIZT _Count = (_SIZT)(-1) / sizeof (_Ty);
; 219  : 		return (0 < _Count ? _Count : 1);

  00000	b8 cc cc cc 0c	 mov	 eax, 214748364		; 0cccccccH

; 220  : 		}

  00005	c3		 ret	 0
?max_size@?$allocator@UBulletInfo@@@std@@QBEIXZ ENDP	; std::allocator<BulletInfo>::max_size
_TEXT	ENDS
PUBLIC	?max_size@?$allocator@UBulletSet@ioAliceObjectItem@@@std@@QBEIXZ ; std::allocator<ioAliceObjectItem::BulletSet>::max_size
; Function compile flags: /Ogsp
;	COMDAT ?max_size@?$allocator@UBulletSet@ioAliceObjectItem@@@std@@QBEIXZ
_TEXT	SEGMENT
?max_size@?$allocator@UBulletSet@ioAliceObjectItem@@@std@@QBEIXZ PROC ; std::allocator<ioAliceObjectItem::BulletSet>::max_size, COMDAT
; _this$ = ecx

; 218  : 		_SIZT _Count = (_SIZT)(-1) / sizeof (_Ty);
; 219  : 		return (0 < _Count ? _Count : 1);

  00000	b8 cc cc cc 0c	 mov	 eax, 214748364		; 0cccccccH

; 220  : 		}

  00005	c3		 ret	 0
?max_size@?$allocator@UBulletSet@ioAliceObjectItem@@@std@@QBEIXZ ENDP ; std::allocator<ioAliceObjectItem::BulletSet>::max_size
_TEXT	ENDS
PUBLIC	__real@3f91df46a2526c7a
PUBLIC	??$DEGtoRAD@M@@YAMM@Z				; DEGtoRAD<float>
EXTRN	__fltused:DWORD
;	COMDAT __real@3f91df46a2526c7a
; File d:\lost saga for developer\youtube\tutorial\source\src\lsclient\veryoftenusedefine.h
CONST	SEGMENT
__real@3f91df46a2526c7a DQ 03f91df46a2526c7ar	; 0.0174533
; Function compile flags: /Ogsp
CONST	ENDS
;	COMDAT ??$DEGtoRAD@M@@YAMM@Z
_TEXT	SEGMENT
tv129 = 8						; size = 4
_val$ = 8						; size = 4
??$DEGtoRAD@M@@YAMM@Z PROC				; DEGtoRAD<float>, COMDAT

; 20   : type  DEGtoRAD (type val) {return (type) (val * 0.0174532925199);}

  00000	55		 push	 ebp
  00001	8b ec		 mov	 ebp, esp
  00003	d9 45 08	 fld	 DWORD PTR _val$[ebp]
  00006	dc 0d 00 00 00
	00		 fmul	 QWORD PTR __real@3f91df46a2526c7a
  0000c	d9 5d 08	 fstp	 DWORD PTR tv129[ebp]
  0000f	d9 45 08	 fld	 DWORD PTR tv129[ebp]
  00012	5d		 pop	 ebp
  00013	c3		 ret	 0
??$DEGtoRAD@M@@YAMM@Z ENDP				; DEGtoRAD<float>
_TEXT	ENDS
PUBLIC	??$addressof@$$CBUBulletInfo@@@std@@YAPBUBulletInfo@@ABU1@@Z ; std::addressof<BulletInfo const >
; Function compile flags: /Ogsp
; File c:\program files (x86)\microsoft visual studio 10.0\vc\include\xmemory
;	COMDAT ??$addressof@$$CBUBulletInfo@@@std@@YAPBUBulletInfo@@ABU1@@Z
_TEXT	SEGMENT
__Val$ = 8						; size = 4
??$addressof@$$CBUBulletInfo@@@std@@YAPBUBulletInfo@@ABU1@@Z PROC ; std::addressof<BulletInfo const >, COMDAT

; 110  : 	{	// return address of _Val

  00000	55		 push	 ebp
  00001	8b ec		 mov	 ebp, esp

; 111  : 	return ((_Ty *) &(char&)_Val);

  00003	8b 45 08	 mov	 eax, DWORD PTR __Val$[ebp]

; 112  : 	}

  00006	5d		 pop	 ebp
  00007	c3		 ret	 0
??$addressof@$$CBUBulletInfo@@@std@@YAPBUBulletInfo@@ABU1@@Z ENDP ; std::addressof<BulletInfo const >
_TEXT	ENDS
PUBLIC	??$addressof@$$CBUBulletSet@ioAliceObjectItem@@@std@@YAPBUBulletSet@ioAliceObjectItem@@ABU12@@Z ; std::addressof<ioAliceObjectItem::BulletSet const >
; Function compile flags: /Ogsp
;	COMDAT ??$addressof@$$CBUBulletSet@ioAliceObjectItem@@@std@@YAPBUBulletSet@ioAliceObjectItem@@ABU12@@Z
_TEXT	SEGMENT
__Val$ = 8						; size = 4
??$addressof@$$CBUBulletSet@ioAliceObjectItem@@@std@@YAPBUBulletSet@ioAliceObjectItem@@ABU12@@Z PROC ; std::addressof<ioAliceObjectItem::BulletSet const >, COMDAT

; 110  : 	{	// return address of _Val

  00000	55		 push	 ebp
  00001	8b ec		 mov	 ebp, esp

; 111  : 	return ((_Ty *) &(char&)_Val);

  00003	8b 45 08	 mov	 eax, DWORD PTR __Val$[ebp]

; 112  : 	}

  00006	5d		 pop	 ebp
  00007	c3		 ret	 0
??$addressof@$$CBUBulletSet@ioAliceObjectItem@@@std@@YAPBUBulletSet@ioAliceObjectItem@@ABU12@@Z ENDP ; std::addressof<ioAliceObjectItem::BulletSet const >
_TEXT	ENDS
PUBLIC	__TI2?AVbad_alloc@std@@
PUBLIC	??$_Allocate@UBulletSet@ioAliceObjectItem@@@std@@YAPAUBulletSet@ioAliceObjectItem@@IPAU12@@Z ; std::_Allocate<ioAliceObjectItem::BulletSet>
PUBLIC	__CTA2?AVbad_alloc@std@@
PUBLIC	__CT??_R0?AVbad_alloc@std@@@8??0bad_alloc@std@@QAE@ABV01@@Z12
PUBLIC	??0bad_alloc@std@@QAE@ABV01@@Z			; std::bad_alloc::bad_alloc
PUBLIC	__CT??_R0?AVexception@std@@@8??0exception@std@@QAE@ABV01@@Z12
EXTRN	??2@YAPAXI@Z:PROC				; operator new
EXTRN	__CxxThrowException@8:PROC
EXTRN	??0exception@std@@QAE@ABV01@@Z:PROC		; std::exception::exception
;	COMDAT __CT??_R0?AVexception@std@@@8??0exception@std@@QAE@ABV01@@Z12
; File c:\program files (x86)\microsoft visual studio 10.0\vc\include\exception
xdata$x	SEGMENT
__CT??_R0?AVexception@std@@@8??0exception@std@@QAE@ABV01@@Z12 DD 00H
	DD	FLAT:??_R0?AVexception@std@@@8
	DD	00H
	DD	0ffffffffH
	ORG $+4
	DD	0cH
	DD	FLAT:??0exception@std@@QAE@ABV01@@Z
xdata$x	ENDS
;	COMDAT __CT??_R0?AVbad_alloc@std@@@8??0bad_alloc@std@@QAE@ABV01@@Z12
xdata$x	SEGMENT
__CT??_R0?AVbad_alloc@std@@@8??0bad_alloc@std@@QAE@ABV01@@Z12 DD 00H
	DD	FLAT:??_R0?AVbad_alloc@std@@@8
	DD	00H
	DD	0ffffffffH
	ORG $+4
	DD	0cH
	DD	FLAT:??0bad_alloc@std@@QAE@ABV01@@Z
xdata$x	ENDS
;	COMDAT __CTA2?AVbad_alloc@std@@
xdata$x	SEGMENT
__CTA2?AVbad_alloc@std@@ DD 02H
	DD	FLAT:__CT??_R0?AVbad_alloc@std@@@8??0bad_alloc@std@@QAE@ABV01@@Z12
	DD	FLAT:__CT??_R0?AVexception@std@@@8??0exception@std@@QAE@ABV01@@Z12
xdata$x	ENDS
;	COMDAT __TI2?AVbad_alloc@std@@
xdata$x	SEGMENT
__TI2?AVbad_alloc@std@@ DD 00H
	DD	FLAT:??1bad_alloc@std@@UAE@XZ
	DD	00H
	DD	FLAT:__CTA2?AVbad_alloc@std@@
; Function compile flags: /Ogsp
; File c:\program files (x86)\microsoft visual studio 10.0\vc\include\xmemory
xdata$x	ENDS
;	COMDAT ??$_Allocate@UBulletSet@ioAliceObjectItem@@@std@@YAPAUBulletSet@ioAliceObjectItem@@IPAU12@@Z
_TEXT	SEGMENT
$T552863 = -12						; size = 12
$T552868 = 8						; size = 4
__Count$ = 8						; size = 4
___formal$ = 12						; size = 4
??$_Allocate@UBulletSet@ioAliceObjectItem@@@std@@YAPAUBulletSet@ioAliceObjectItem@@IPAU12@@Z PROC ; std::_Allocate<ioAliceObjectItem::BulletSet>, COMDAT

; 30   : 	{	// allocate storage for _Count elements of type _Ty

  00000	55		 push	 ebp
  00001	8b ec		 mov	 ebp, esp

; 31   : 	void *_Ptr = 0;
; 32   : 
; 33   : 	if (_Count <= 0)

  00003	8b 4d 08	 mov	 ecx, DWORD PTR __Count$[ebp]
  00006	83 ec 0c	 sub	 esp, 12			; 0000000cH
  00009	33 c0		 xor	 eax, eax
  0000b	85 c9		 test	 ecx, ecx

; 34   : 		_Count = 0;
; 35   : 	else if (((_SIZT)(-1) / sizeof (_Ty) < _Count)

  0000d	74 3c		 je	 SHORT $LN5@Allocate

; 36   : 		|| (_Ptr = ::operator new(_Count * sizeof (_Ty))) == 0)

  0000f	81 f9 cc cc cc
	0c		 cmp	 ecx, 214748364		; 0cccccccH
  00015	77 0e		 ja	 SHORT $LN1@Allocate
  00017	6b c9 14	 imul	 ecx, 20			; 00000014H
  0001a	51		 push	 ecx
  0001b	e8 00 00 00 00	 call	 ??2@YAPAXI@Z		; operator new
  00020	59		 pop	 ecx
  00021	85 c0		 test	 eax, eax

; 38   : 
; 39   : 	return ((_Ty _FARQ *)_Ptr);

  00023	75 26		 jne	 SHORT $LN5@Allocate
$LN1@Allocate:

; 37   : 		_THROW_NCEE(bad_alloc, 0);

  00025	83 65 08 00	 and	 DWORD PTR $T552868[ebp], 0
  00029	8d 45 08	 lea	 eax, DWORD PTR $T552868[ebp]
  0002c	50		 push	 eax
  0002d	8d 4d f4	 lea	 ecx, DWORD PTR $T552863[ebp]
  00030	ff 15 00 00 00
	00		 call	 DWORD PTR __imp_??0exception@std@@QAE@ABQBD@Z
  00036	68 00 00 00 00	 push	 OFFSET __TI2?AVbad_alloc@std@@
  0003b	8d 45 f4	 lea	 eax, DWORD PTR $T552863[ebp]
  0003e	50		 push	 eax
  0003f	c7 45 f4 00 00
	00 00		 mov	 DWORD PTR $T552863[ebp], OFFSET ??_7bad_alloc@std@@6B@
  00046	e8 00 00 00 00	 call	 __CxxThrowException@8
$LN10@Allocate:
$LN5@Allocate:

; 40   : 	}

  0004b	c9		 leave
  0004c	c3		 ret	 0
$LN9@Allocate:
??$_Allocate@UBulletSet@ioAliceObjectItem@@@std@@YAPAUBulletSet@ioAliceObjectItem@@IPAU12@@Z ENDP ; std::_Allocate<ioAliceObjectItem::BulletSet>
_TEXT	ENDS
PUBLIC	??$_Allocate@UBulletInfo@@@std@@YAPAUBulletInfo@@IPAU1@@Z ; std::_Allocate<BulletInfo>
; Function compile flags: /Ogsp
;	COMDAT ??$_Allocate@UBulletInfo@@@std@@YAPAUBulletInfo@@IPAU1@@Z
_TEXT	SEGMENT
$T552873 = -12						; size = 12
$T552877 = 8						; size = 4
__Count$ = 8						; size = 4
___formal$ = 12						; size = 4
??$_Allocate@UBulletInfo@@@std@@YAPAUBulletInfo@@IPAU1@@Z PROC ; std::_Allocate<BulletInfo>, COMDAT

; 30   : 	{	// allocate storage for _Count elements of type _Ty

  00000	55		 push	 ebp
  00001	8b ec		 mov	 ebp, esp

; 31   : 	void *_Ptr = 0;
; 32   : 
; 33   : 	if (_Count <= 0)

  00003	8b 4d 08	 mov	 ecx, DWORD PTR __Count$[ebp]
  00006	83 ec 0c	 sub	 esp, 12			; 0000000cH
  00009	33 c0		 xor	 eax, eax
  0000b	85 c9		 test	 ecx, ecx

; 34   : 		_Count = 0;
; 35   : 	else if (((_SIZT)(-1) / sizeof (_Ty) < _Count)

  0000d	74 3c		 je	 SHORT $LN5@Allocate@2

; 36   : 		|| (_Ptr = ::operator new(_Count * sizeof (_Ty))) == 0)

  0000f	81 f9 cc cc cc
	0c		 cmp	 ecx, 214748364		; 0cccccccH
  00015	77 0e		 ja	 SHORT $LN1@Allocate@2
  00017	6b c9 14	 imul	 ecx, 20			; 00000014H
  0001a	51		 push	 ecx
  0001b	e8 00 00 00 00	 call	 ??2@YAPAXI@Z		; operator new
  00020	59		 pop	 ecx
  00021	85 c0		 test	 eax, eax

; 38   : 
; 39   : 	return ((_Ty _FARQ *)_Ptr);

  00023	75 26		 jne	 SHORT $LN5@Allocate@2
$LN1@Allocate@2:

; 37   : 		_THROW_NCEE(bad_alloc, 0);

  00025	83 65 08 00	 and	 DWORD PTR $T552877[ebp], 0
  00029	8d 45 08	 lea	 eax, DWORD PTR $T552877[ebp]
  0002c	50		 push	 eax
  0002d	8d 4d f4	 lea	 ecx, DWORD PTR $T552873[ebp]
  00030	ff 15 00 00 00
	00		 call	 DWORD PTR __imp_??0exception@std@@QAE@ABQBD@Z
  00036	68 00 00 00 00	 push	 OFFSET __TI2?AVbad_alloc@std@@
  0003b	8d 45 f4	 lea	 eax, DWORD PTR $T552873[ebp]
  0003e	50		 push	 eax
  0003f	c7 45 f4 00 00
	00 00		 mov	 DWORD PTR $T552873[ebp], OFFSET ??_7bad_alloc@std@@6B@
  00046	e8 00 00 00 00	 call	 __CxxThrowException@8
$LN10@Allocate@2:
$LN5@Allocate@2:

; 40   : 	}

  0004b	c9		 leave
  0004c	c3		 ret	 0
$LN9@Allocate@2:
??$_Allocate@UBulletInfo@@@std@@YAPAUBulletInfo@@IPAU1@@Z ENDP ; std::_Allocate<BulletInfo>
_TEXT	ENDS
PUBLIC	??$forward@AAUBulletInfo@@@std@@YAAAUBulletInfo@@AAU1@@Z ; std::forward<BulletInfo &>
; Function compile flags: /Ogsp
; File c:\program files (x86)\microsoft visual studio 10.0\vc\include\utility
;	COMDAT ??$forward@AAUBulletInfo@@@std@@YAAAUBulletInfo@@AAU1@@Z
_TEXT	SEGMENT
__Arg$ = 8						; size = 4
??$forward@AAUBulletInfo@@@std@@YAAAUBulletInfo@@AAU1@@Z PROC ; std::forward<BulletInfo &>, COMDAT

; 78   : 	{	// forward _Arg, given explicitly specified type parameter

  00000	55		 push	 ebp
  00001	8b ec		 mov	 ebp, esp

; 79   : 	return ((_Ty&&)_Arg);

  00003	8b 45 08	 mov	 eax, DWORD PTR __Arg$[ebp]

; 80   : 	}

  00006	5d		 pop	 ebp
  00007	c3		 ret	 0
??$forward@AAUBulletInfo@@@std@@YAAAUBulletInfo@@AAU1@@Z ENDP ; std::forward<BulletInfo &>
_TEXT	ENDS
PUBLIC	??$construct@AAUBulletInfo@@@?$allocator@UBulletInfo@@@std@@QAEXPAUBulletInfo@@AAU2@@Z ; std::allocator<BulletInfo>::construct<BulletInfo &>
; Function compile flags: /Ogsp
; File c:\program files (x86)\microsoft visual studio 10.0\vc\include\xmemory
;	COMDAT ??$construct@AAUBulletInfo@@@?$allocator@UBulletInfo@@@std@@QAEXPAUBulletInfo@@AAU2@@Z
_TEXT	SEGMENT
__Ptr$ = 8						; size = 4
__Val$ = 12						; size = 4
??$construct@AAUBulletInfo@@@?$allocator@UBulletInfo@@@std@@QAEXPAUBulletInfo@@AAU2@@Z PROC ; std::allocator<BulletInfo>::construct<BulletInfo &>, COMDAT
; _this$ = ecx

; 206  : 		void construct(pointer _Ptr, _Other&& _Val)

  00000	55		 push	 ebp
  00001	8b ec		 mov	 ebp, esp
  00003	57		 push	 edi

; 207  : 		{	// construct object at _Ptr with value _Val
; 208  : 		::new ((void _FARQ *)_Ptr) _Ty(_STD forward<_Other>(_Val));

  00004	8b 7d 08	 mov	 edi, DWORD PTR __Ptr$[ebp]
  00007	85 ff		 test	 edi, edi
  00009	74 0a		 je	 SHORT $LN3@construct
  0000b	56		 push	 esi
  0000c	8b 75 0c	 mov	 esi, DWORD PTR __Val$[ebp]
  0000f	6a 05		 push	 5
  00011	59		 pop	 ecx
  00012	f3 a5		 rep movsd
  00014	5e		 pop	 esi
$LN3@construct:
  00015	5f		 pop	 edi

; 209  : 		}

  00016	5d		 pop	 ebp
  00017	c2 08 00	 ret	 8
??$construct@AAUBulletInfo@@@?$allocator@UBulletInfo@@@std@@QAEXPAUBulletInfo@@AAU2@@Z ENDP ; std::allocator<BulletInfo>::construct<BulletInfo &>
_TEXT	ENDS
PUBLIC	??$forward@ABUBulletInfo@@@std@@YAABUBulletInfo@@ABU1@@Z ; std::forward<BulletInfo const &>
; Function compile flags: /Ogsp
; File c:\program files (x86)\microsoft visual studio 10.0\vc\include\utility
;	COMDAT ??$forward@ABUBulletInfo@@@std@@YAABUBulletInfo@@ABU1@@Z
_TEXT	SEGMENT
__Arg$ = 8						; size = 4
??$forward@ABUBulletInfo@@@std@@YAABUBulletInfo@@ABU1@@Z PROC ; std::forward<BulletInfo const &>, COMDAT

; 78   : 	{	// forward _Arg, given explicitly specified type parameter

  00000	55		 push	 ebp
  00001	8b ec		 mov	 ebp, esp

; 79   : 	return ((_Ty&&)_Arg);

  00003	8b 45 08	 mov	 eax, DWORD PTR __Arg$[ebp]

; 80   : 	}

  00006	5d		 pop	 ebp
  00007	c3		 ret	 0
??$forward@ABUBulletInfo@@@std@@YAABUBulletInfo@@ABU1@@Z ENDP ; std::forward<BulletInfo const &>
_TEXT	ENDS
PUBLIC	??$forward@AAUBulletSet@ioAliceObjectItem@@@std@@YAAAUBulletSet@ioAliceObjectItem@@AAU12@@Z ; std::forward<ioAliceObjectItem::BulletSet &>
; Function compile flags: /Ogsp
;	COMDAT ??$forward@AAUBulletSet@ioAliceObjectItem@@@std@@YAAAUBulletSet@ioAliceObjectItem@@AAU12@@Z
_TEXT	SEGMENT
__Arg$ = 8						; size = 4
??$forward@AAUBulletSet@ioAliceObjectItem@@@std@@YAAAUBulletSet@ioAliceObjectItem@@AAU12@@Z PROC ; std::forward<ioAliceObjectItem::BulletSet &>, COMDAT

; 78   : 	{	// forward _Arg, given explicitly specified type parameter

  00000	55		 push	 ebp
  00001	8b ec		 mov	 ebp, esp

; 79   : 	return ((_Ty&&)_Arg);

  00003	8b 45 08	 mov	 eax, DWORD PTR __Arg$[ebp]

; 80   : 	}

  00006	5d		 pop	 ebp
  00007	c3		 ret	 0
??$forward@AAUBulletSet@ioAliceObjectItem@@@std@@YAAAUBulletSet@ioAliceObjectItem@@AAU12@@Z ENDP ; std::forward<ioAliceObjectItem::BulletSet &>
_TEXT	ENDS
PUBLIC	??$forward@ABUBulletSet@ioAliceObjectItem@@@std@@YAABUBulletSet@ioAliceObjectItem@@ABU12@@Z ; std::forward<ioAliceObjectItem::BulletSet const &>
; Function compile flags: /Ogsp
;	COMDAT ??$forward@ABUBulletSet@ioAliceObjectItem@@@std@@YAABUBulletSet@ioAliceObjectItem@@ABU12@@Z
_TEXT	SEGMENT
__Arg$ = 8						; size = 4
??$forward@ABUBulletSet@ioAliceObjectItem@@@std@@YAABUBulletSet@ioAliceObjectItem@@ABU12@@Z PROC ; std::forward<ioAliceObjectItem::BulletSet const &>, COMDAT

; 78   : 	{	// forward _Arg, given explicitly specified type parameter

  00000	55		 push	 ebp
  00001	8b ec		 mov	 ebp, esp

; 79   : 	return ((_Ty&&)_Arg);

  00003	8b 45 08	 mov	 eax, DWORD PTR __Arg$[ebp]

; 80   : 	}

  00006	5d		 pop	 ebp
  00007	c3		 ret	 0
??$forward@ABUBulletSet@ioAliceObjectItem@@@std@@YAABUBulletSet@ioAliceObjectItem@@ABU12@@Z ENDP ; std::forward<ioAliceObjectItem::BulletSet const &>
_TEXT	ENDS
PUBLIC	??$_Ptr_cat@UBulletInfo@@U1@@std@@YA?AU_Nonscalar_ptr_iterator_tag@0@PAUBulletInfo@@0@Z ; std::_Ptr_cat<BulletInfo,BulletInfo>
; Function compile flags: /Ogsp
; File c:\program files (x86)\microsoft visual studio 10.0\vc\include\xutility
;	COMDAT ??$_Ptr_cat@UBulletInfo@@U1@@std@@YA?AU_Nonscalar_ptr_iterator_tag@0@PAUBulletInfo@@0@Z
_TEXT	SEGMENT
__Cat$ = -1						; size = 1
___formal$ = 8						; size = 4
___formal$ = 12						; size = 4
??$_Ptr_cat@UBulletInfo@@U1@@std@@YA?AU_Nonscalar_ptr_iterator_tag@0@PAUBulletInfo@@0@Z PROC ; std::_Ptr_cat<BulletInfo,BulletInfo>, COMDAT

; 516  : 	{	// return pointer category from pointers

  00000	55		 push	 ebp
  00001	8b ec		 mov	 ebp, esp
  00003	51		 push	 ecx

; 517  : 	typename _Ptr_cat_helper<_Elem1, _Elem2>::_Type _Cat;
; 518  : 	return (_Cat);

  00004	8a 45 ff	 mov	 al, BYTE PTR __Cat$[ebp]

; 519  : 	}

  00007	c9		 leave
  00008	c3		 ret	 0
??$_Ptr_cat@UBulletInfo@@U1@@std@@YA?AU_Nonscalar_ptr_iterator_tag@0@PAUBulletInfo@@0@Z ENDP ; std::_Ptr_cat<BulletInfo,BulletInfo>
_TEXT	ENDS
PUBLIC	??$_Ptr_cat@UBulletSet@ioAliceObjectItem@@U12@@std@@YA?AU_Nonscalar_ptr_iterator_tag@0@PAUBulletSet@ioAliceObjectItem@@0@Z ; std::_Ptr_cat<ioAliceObjectItem::BulletSet,ioAliceObjectItem::BulletSet>
; Function compile flags: /Ogsp
;	COMDAT ??$_Ptr_cat@UBulletSet@ioAliceObjectItem@@U12@@std@@YA?AU_Nonscalar_ptr_iterator_tag@0@PAUBulletSet@ioAliceObjectItem@@0@Z
_TEXT	SEGMENT
__Cat$ = -1						; size = 1
___formal$ = 8						; size = 4
___formal$ = 12						; size = 4
??$_Ptr_cat@UBulletSet@ioAliceObjectItem@@U12@@std@@YA?AU_Nonscalar_ptr_iterator_tag@0@PAUBulletSet@ioAliceObjectItem@@0@Z PROC ; std::_Ptr_cat<ioAliceObjectItem::BulletSet,ioAliceObjectItem::BulletSet>, COMDAT

; 516  : 	{	// return pointer category from pointers

  00000	55		 push	 ebp
  00001	8b ec		 mov	 ebp, esp
  00003	51		 push	 ecx

; 517  : 	typename _Ptr_cat_helper<_Elem1, _Elem2>::_Type _Cat;
; 518  : 	return (_Cat);

  00004	8a 45 ff	 mov	 al, BYTE PTR __Cat$[ebp]

; 519  : 	}

  00007	c9		 leave
  00008	c3		 ret	 0
??$_Ptr_cat@UBulletSet@ioAliceObjectItem@@U12@@std@@YA?AU_Nonscalar_ptr_iterator_tag@0@PAUBulletSet@ioAliceObjectItem@@0@Z ENDP ; std::_Ptr_cat<ioAliceObjectItem::BulletSet,ioAliceObjectItem::BulletSet>
_TEXT	ENDS
PUBLIC	??$_Construct@UBulletInfo@@ABU1@@std@@YAXPAUBulletInfo@@ABU1@@Z ; std::_Construct<BulletInfo,BulletInfo const &>
; Function compile flags: /Ogsp
; File c:\program files (x86)\microsoft visual studio 10.0\vc\include\xmemory
;	COMDAT ??$_Construct@UBulletInfo@@ABU1@@std@@YAXPAUBulletInfo@@ABU1@@Z
_TEXT	SEGMENT
__Ptr$ = 8						; size = 4
__Val$ = 12						; size = 4
??$_Construct@UBulletInfo@@ABU1@@std@@YAXPAUBulletInfo@@ABU1@@Z PROC ; std::_Construct<BulletInfo,BulletInfo const &>, COMDAT

; 46   : 	{	// construct object at _Ptr with value _Val

  00000	55		 push	 ebp
  00001	8b ec		 mov	 ebp, esp
  00003	57		 push	 edi

; 47   : 	void _FARQ *_Vptr = _Ptr;
; 48   : 	::new (_Vptr) _Ty1(_STD forward<_Ty2>(_Val));

  00004	8b 7d 08	 mov	 edi, DWORD PTR __Ptr$[ebp]
  00007	85 ff		 test	 edi, edi
  00009	74 0a		 je	 SHORT $LN3@Construct
  0000b	56		 push	 esi
  0000c	8b 75 0c	 mov	 esi, DWORD PTR __Val$[ebp]
  0000f	6a 05		 push	 5
  00011	59		 pop	 ecx
  00012	f3 a5		 rep movsd
  00014	5e		 pop	 esi
$LN3@Construct:
  00015	5f		 pop	 edi

; 49   : 	}

  00016	5d		 pop	 ebp
  00017	c3		 ret	 0
??$_Construct@UBulletInfo@@ABU1@@std@@YAXPAUBulletInfo@@ABU1@@Z ENDP ; std::_Construct<BulletInfo,BulletInfo const &>
_TEXT	ENDS
PUBLIC	??0?$_Vector_const_iterator@V?$_Vector_val@UBulletInfo@@V?$allocator@UBulletInfo@@@std@@@std@@@std@@QAE@PAUBulletInfo@@PBU_Container_base0@1@@Z ; std::_Vector_const_iterator<std::_Vector_val<BulletInfo,std::allocator<BulletInfo> > >::_Vector_const_iterator<std::_Vector_val<BulletInfo,std::allocator<BulletInfo> > >
; Function compile flags: /Ogsp
; File c:\program files (x86)\microsoft visual studio 10.0\vc\include\vector
;	COMDAT ??0?$_Vector_const_iterator@V?$_Vector_val@UBulletInfo@@V?$allocator@UBulletInfo@@@std@@@std@@@std@@QAE@PAUBulletInfo@@PBU_Container_base0@1@@Z
_TEXT	SEGMENT
__Parg$ = 8						; size = 4
__Pvector$ = 12						; size = 4
??0?$_Vector_const_iterator@V?$_Vector_val@UBulletInfo@@V?$allocator@UBulletInfo@@@std@@@std@@@std@@QAE@PAUBulletInfo@@PBU_Container_base0@1@@Z PROC ; std::_Vector_const_iterator<std::_Vector_val<BulletInfo,std::allocator<BulletInfo> > >::_Vector_const_iterator<std::_Vector_val<BulletInfo,std::allocator<BulletInfo> > >, COMDAT
; _this$ = ecx

; 45   : 		{	// construct with pointer _Parg

  00000	55		 push	 ebp
  00001	8b ec		 mov	 ebp, esp
  00003	8b c1		 mov	 eax, ecx
  00005	8b 4d 08	 mov	 ecx, DWORD PTR __Parg$[ebp]
  00008	89 08		 mov	 DWORD PTR [eax], ecx

; 46   : 		this->_Adopt(_Pvector);
; 47   : 		}

  0000a	5d		 pop	 ebp
  0000b	c2 08 00	 ret	 8
??0?$_Vector_const_iterator@V?$_Vector_val@UBulletInfo@@V?$allocator@UBulletInfo@@@std@@@std@@@std@@QAE@PAUBulletInfo@@PBU_Container_base0@1@@Z ENDP ; std::_Vector_const_iterator<std::_Vector_val<BulletInfo,std::allocator<BulletInfo> > >::_Vector_const_iterator<std::_Vector_val<BulletInfo,std::allocator<BulletInfo> > >
_TEXT	ENDS
PUBLIC	??$_Ptr_cat@V?$_Vector_const_iterator@V?$_Vector_val@UBulletSet@ioAliceObjectItem@@V?$allocator@UBulletSet@ioAliceObjectItem@@@std@@@std@@@std@@PAUBulletSet@ioAliceObjectItem@@@std@@YA?AU_Nonscalar_ptr_iterator_tag@0@AAV?$_Vector_const_iterator@V?$_Vector_val@UBulletSet@ioAliceObjectItem@@V?$allocator@UBulletSet@ioAliceObjectItem@@@std@@@std@@@0@AAPAUBulletSet@ioAliceObjectItem@@@Z ; std::_Ptr_cat<std::_Vector_const_iterator<std::_Vector_val<ioAliceObjectItem::BulletSet,std::allocator<ioAliceObjectItem::BulletSet> > >,ioAliceObjectItem::BulletSet *>
; Function compile flags: /Ogsp
; File c:\program files (x86)\microsoft visual studio 10.0\vc\include\xutility
;	COMDAT ??$_Ptr_cat@V?$_Vector_const_iterator@V?$_Vector_val@UBulletSet@ioAliceObjectItem@@V?$allocator@UBulletSet@ioAliceObjectItem@@@std@@@std@@@std@@PAUBulletSet@ioAliceObjectItem@@@std@@YA?AU_Nonscalar_ptr_iterator_tag@0@AAV?$_Vector_const_iterator@V?$_Vector_val@UBulletSet@ioAliceObjectItem@@V?$allocator@UBulletSet@ioAliceObjectItem@@@std@@@std@@@0@AAPAUBulletSet@ioAliceObjectItem@@@Z
_TEXT	SEGMENT
__Cat$ = -1						; size = 1
___formal$ = 8						; size = 4
___formal$ = 12						; size = 4
??$_Ptr_cat@V?$_Vector_const_iterator@V?$_Vector_val@UBulletSet@ioAliceObjectItem@@V?$allocator@UBulletSet@ioAliceObjectItem@@@std@@@std@@@std@@PAUBulletSet@ioAliceObjectItem@@@std@@YA?AU_Nonscalar_ptr_iterator_tag@0@AAV?$_Vector_const_iterator@V?$_Vector_val@UBulletSet@ioAliceObjectItem@@V?$allocator@UBulletSet@ioAliceObjectItem@@@std@@@std@@@0@AAPAUBulletSet@ioAliceObjectItem@@@Z PROC ; std::_Ptr_cat<std::_Vector_const_iterator<std::_Vector_val<ioAliceObjectItem::BulletSet,std::allocator<ioAliceObjectItem::BulletSet> > >,ioAliceObjectItem::BulletSet *>, COMDAT

; 485  : 	{	// return pointer category from arbitrary arguments

  00000	55		 push	 ebp
  00001	8b ec		 mov	 ebp, esp
  00003	51		 push	 ecx

; 486  : 	_Nonscalar_ptr_iterator_tag _Cat;
; 487  : 	return (_Cat);

  00004	8a 45 ff	 mov	 al, BYTE PTR __Cat$[ebp]

; 488  : 	}

  00007	c9		 leave
  00008	c3		 ret	 0
??$_Ptr_cat@V?$_Vector_const_iterator@V?$_Vector_val@UBulletSet@ioAliceObjectItem@@V?$allocator@UBulletSet@ioAliceObjectItem@@@std@@@std@@@std@@PAUBulletSet@ioAliceObjectItem@@@std@@YA?AU_Nonscalar_ptr_iterator_tag@0@AAV?$_Vector_const_iterator@V?$_Vector_val@UBulletSet@ioAliceObjectItem@@V?$allocator@UBulletSet@ioAliceObjectItem@@@std@@@std@@@0@AAPAUBulletSet@ioAliceObjectItem@@@Z ENDP ; std::_Ptr_cat<std::_Vector_const_iterator<std::_Vector_val<ioAliceObjectItem::BulletSet,std::allocator<ioAliceObjectItem::BulletSet> > >,ioAliceObjectItem::BulletSet *>
_TEXT	ENDS
PUBLIC	??$_Val_type@PAUBulletInfo@@@std@@YAPAUBulletInfo@@PAU1@@Z ; std::_Val_type<BulletInfo *>
; Function compile flags: /Ogsp
;	COMDAT ??$_Val_type@PAUBulletInfo@@@std@@YAPAUBulletInfo@@PAU1@@Z
_TEXT	SEGMENT
___formal$ = 8						; size = 4
??$_Val_type@PAUBulletInfo@@@std@@YAPAUBulletInfo@@PAU1@@Z PROC ; std::_Val_type<BulletInfo *>, COMDAT

; 790  : 	return (0);

  00000	33 c0		 xor	 eax, eax

; 791  : 	}

  00002	c3		 ret	 0
??$_Val_type@PAUBulletInfo@@@std@@YAPAUBulletInfo@@PAU1@@Z ENDP ; std::_Val_type<BulletInfo *>
_TEXT	ENDS
PUBLIC	??$_Val_type@PAUBulletSet@ioAliceObjectItem@@@std@@YAPAUBulletSet@ioAliceObjectItem@@PAU12@@Z ; std::_Val_type<ioAliceObjectItem::BulletSet *>
; Function compile flags: /Ogsp
;	COMDAT ??$_Val_type@PAUBulletSet@ioAliceObjectItem@@@std@@YAPAUBulletSet@ioAliceObjectItem@@PAU12@@Z
_TEXT	SEGMENT
___formal$ = 8						; size = 4
??$_Val_type@PAUBulletSet@ioAliceObjectItem@@@std@@YAPAUBulletSet@ioAliceObjectItem@@PAU12@@Z PROC ; std::_Val_type<ioAliceObjectItem::BulletSet *>, COMDAT

; 790  : 	return (0);

  00000	33 c0		 xor	 eax, eax

; 791  : 	}

  00002	c3		 ret	 0
??$_Val_type@PAUBulletSet@ioAliceObjectItem@@@std@@YAPAUBulletSet@ioAliceObjectItem@@PAU12@@Z ENDP ; std::_Val_type<ioAliceObjectItem::BulletSet *>
_TEXT	ENDS
PUBLIC	??D?$_Vector_const_iterator@V?$_Vector_val@UBulletSet@ioAliceObjectItem@@V?$allocator@UBulletSet@ioAliceObjectItem@@@std@@@std@@@std@@QBEABUBulletSet@ioAliceObjectItem@@XZ ; std::_Vector_const_iterator<std::_Vector_val<ioAliceObjectItem::BulletSet,std::allocator<ioAliceObjectItem::BulletSet> > >::operator*
; Function compile flags: /Ogsp
; File c:\program files (x86)\microsoft visual studio 10.0\vc\include\vector
;	COMDAT ??D?$_Vector_const_iterator@V?$_Vector_val@UBulletSet@ioAliceObjectItem@@V?$allocator@UBulletSet@ioAliceObjectItem@@@std@@@std@@@std@@QBEABUBulletSet@ioAliceObjectItem@@XZ
_TEXT	SEGMENT
??D?$_Vector_const_iterator@V?$_Vector_val@UBulletSet@ioAliceObjectItem@@V?$allocator@UBulletSet@ioAliceObjectItem@@@std@@@std@@@std@@QBEABUBulletSet@ioAliceObjectItem@@XZ PROC ; std::_Vector_const_iterator<std::_Vector_val<ioAliceObjectItem::BulletSet,std::allocator<ioAliceObjectItem::BulletSet> > >::operator*, COMDAT
; _this$ = ecx

; 64   :  #if _ITERATOR_DEBUG_LEVEL == 2
; 65   : 		if (this->_Getcont() == 0
; 66   : 			|| this->_Ptr == 0
; 67   : 			|| this->_Ptr < ((_Myvec *)this->_Getcont())->_Myfirst
; 68   : 			|| ((_Myvec *)this->_Getcont())->_Mylast <= this->_Ptr)
; 69   : 			{	// report error
; 70   : 			_DEBUG_ERROR("vector iterator not dereferencable");
; 71   : 			_SCL_SECURE_OUT_OF_RANGE;
; 72   : 			}
; 73   : 
; 74   :  #elif _ITERATOR_DEBUG_LEVEL == 1
; 75   : 		_SCL_SECURE_VALIDATE(this->_Getcont() != 0);
; 76   : 		_SCL_SECURE_VALIDATE_RANGE(
; 77   : 			this->_Ptr != 0
; 78   : 			&& ((_Myvec *)this->_Getcont())->_Myfirst <= this->_Ptr
; 79   : 			&& this->_Ptr < ((_Myvec *)this->_Getcont())->_Mylast);
; 80   :  #endif /* _ITERATOR_DEBUG_LEVEL */
; 81   : 
; 82   : 		__analysis_assume(this->_Ptr != 0);
; 83   : 
; 84   : 		return (*this->_Ptr);

  00000	8b 01		 mov	 eax, DWORD PTR [ecx]

; 85   : 		}

  00002	c3		 ret	 0
??D?$_Vector_const_iterator@V?$_Vector_val@UBulletSet@ioAliceObjectItem@@V?$allocator@UBulletSet@ioAliceObjectItem@@@std@@@std@@@std@@QBEABUBulletSet@ioAliceObjectItem@@XZ ENDP ; std::_Vector_const_iterator<std::_Vector_val<ioAliceObjectItem::BulletSet,std::allocator<ioAliceObjectItem::BulletSet> > >::operator*
_TEXT	ENDS
PUBLIC	??E?$_Vector_const_iterator@V?$_Vector_val@UBulletSet@ioAliceObjectItem@@V?$allocator@UBulletSet@ioAliceObjectItem@@@std@@@std@@@std@@QAEAAV01@XZ ; std::_Vector_const_iterator<std::_Vector_val<ioAliceObjectItem::BulletSet,std::allocator<ioAliceObjectItem::BulletSet> > >::operator++
; Function compile flags: /Ogsp
;	COMDAT ??E?$_Vector_const_iterator@V?$_Vector_val@UBulletSet@ioAliceObjectItem@@V?$allocator@UBulletSet@ioAliceObjectItem@@@std@@@std@@@std@@QAEAAV01@XZ
_TEXT	SEGMENT
??E?$_Vector_const_iterator@V?$_Vector_val@UBulletSet@ioAliceObjectItem@@V?$allocator@UBulletSet@ioAliceObjectItem@@@std@@@std@@@std@@QAEAAV01@XZ PROC ; std::_Vector_const_iterator<std::_Vector_val<ioAliceObjectItem::BulletSet,std::allocator<ioAliceObjectItem::BulletSet> > >::operator++, COMDAT
; _this$ = ecx

; 93   : 		{	// preincrement

  00000	8b c1		 mov	 eax, ecx

; 94   :  #if _ITERATOR_DEBUG_LEVEL == 2
; 95   : 		if (this->_Getcont() == 0
; 96   : 			|| this->_Ptr == 0
; 97   : 			|| ((_Myvec *)this->_Getcont())->_Mylast <= this->_Ptr)
; 98   : 			{	// report error
; 99   : 			_DEBUG_ERROR("vector iterator not incrementable");
; 100  : 			_SCL_SECURE_OUT_OF_RANGE;
; 101  : 			}
; 102  : 
; 103  :  #elif _ITERATOR_DEBUG_LEVEL == 1
; 104  : 		_SCL_SECURE_VALIDATE(this->_Getcont() != 0);
; 105  : 		_SCL_SECURE_VALIDATE_RANGE(
; 106  : 			this->_Ptr != 0
; 107  : 			&& this->_Ptr < ((_Myvec *)this->_Getcont())->_Mylast);
; 108  :  #endif /* _ITERATOR_DEBUG_LEVEL */
; 109  : 
; 110  : 		++this->_Ptr;

  00002	83 00 14	 add	 DWORD PTR [eax], 20	; 00000014H

; 111  : 		return (*this);
; 112  : 		}

  00005	c3		 ret	 0
??E?$_Vector_const_iterator@V?$_Vector_val@UBulletSet@ioAliceObjectItem@@V?$allocator@UBulletSet@ioAliceObjectItem@@@std@@@std@@@std@@QAEAAV01@XZ ENDP ; std::_Vector_const_iterator<std::_Vector_val<ioAliceObjectItem::BulletSet,std::allocator<ioAliceObjectItem::BulletSet> > >::operator++
_TEXT	ENDS
PUBLIC	?_Compat@?$_Vector_const_iterator@V?$_Vector_val@UBulletSet@ioAliceObjectItem@@V?$allocator@UBulletSet@ioAliceObjectItem@@@std@@@std@@@std@@QBEXABV12@@Z ; std::_Vector_const_iterator<std::_Vector_val<ioAliceObjectItem::BulletSet,std::allocator<ioAliceObjectItem::BulletSet> > >::_Compat
; Function compile flags: /Ogsp
;	COMDAT ?_Compat@?$_Vector_const_iterator@V?$_Vector_val@UBulletSet@ioAliceObjectItem@@V?$allocator@UBulletSet@ioAliceObjectItem@@@std@@@std@@@std@@QBEXABV12@@Z
_TEXT	SEGMENT
___formal$ = 8						; size = 4
?_Compat@?$_Vector_const_iterator@V?$_Vector_val@UBulletSet@ioAliceObjectItem@@V?$allocator@UBulletSet@ioAliceObjectItem@@@std@@@std@@@std@@QBEXABV12@@Z PROC ; std::_Vector_const_iterator<std::_Vector_val<ioAliceObjectItem::BulletSet,std::allocator<ioAliceObjectItem::BulletSet> > >::_Compat, COMDAT
; _this$ = ecx

; 253  : 		}

  00000	c2 04 00	 ret	 4
?_Compat@?$_Vector_const_iterator@V?$_Vector_val@UBulletSet@ioAliceObjectItem@@V?$allocator@UBulletSet@ioAliceObjectItem@@@std@@@std@@@std@@QBEXABV12@@Z ENDP ; std::_Vector_const_iterator<std::_Vector_val<ioAliceObjectItem::BulletSet,std::allocator<ioAliceObjectItem::BulletSet> > >::_Compat
_TEXT	ENDS
PUBLIC	??$_Destroy@UBulletInfo@@@std@@YAXPAUBulletInfo@@@Z ; std::_Destroy<BulletInfo>
; Function compile flags: /Ogsp
; File c:\program files (x86)\microsoft visual studio 10.0\vc\include\xmemory
;	COMDAT ??$_Destroy@UBulletInfo@@@std@@YAXPAUBulletInfo@@@Z
_TEXT	SEGMENT
__Ptr$ = 8						; size = 4
??$_Destroy@UBulletInfo@@@std@@YAXPAUBulletInfo@@@Z PROC ; std::_Destroy<BulletInfo>, COMDAT

; 63   : 	_Ptr->~_Ty();
; 64   : 	}

  00000	c3		 ret	 0
??$_Destroy@UBulletInfo@@@std@@YAXPAUBulletInfo@@@Z ENDP ; std::_Destroy<BulletInfo>
_TEXT	ENDS
PUBLIC	??$forward@UBulletInfo@@@std@@YA$$QAUBulletInfo@@AAU1@@Z ; std::forward<BulletInfo>
; Function compile flags: /Ogsp
; File c:\program files (x86)\microsoft visual studio 10.0\vc\include\utility
;	COMDAT ??$forward@UBulletInfo@@@std@@YA$$QAUBulletInfo@@AAU1@@Z
_TEXT	SEGMENT
__Arg$ = 8						; size = 4
??$forward@UBulletInfo@@@std@@YA$$QAUBulletInfo@@AAU1@@Z PROC ; std::forward<BulletInfo>, COMDAT

; 78   : 	{	// forward _Arg, given explicitly specified type parameter

  00000	55		 push	 ebp
  00001	8b ec		 mov	 ebp, esp

; 79   : 	return ((_Ty&&)_Arg);

  00003	8b 45 08	 mov	 eax, DWORD PTR __Arg$[ebp]

; 80   : 	}

  00006	5d		 pop	 ebp
  00007	c3		 ret	 0
??$forward@UBulletInfo@@@std@@YA$$QAUBulletInfo@@AAU1@@Z ENDP ; std::forward<BulletInfo>
_TEXT	ENDS
PUBLIC	??$forward@UBulletSet@ioAliceObjectItem@@@std@@YA$$QAUBulletSet@ioAliceObjectItem@@AAU12@@Z ; std::forward<ioAliceObjectItem::BulletSet>
; Function compile flags: /Ogsp
;	COMDAT ??$forward@UBulletSet@ioAliceObjectItem@@@std@@YA$$QAUBulletSet@ioAliceObjectItem@@AAU12@@Z
_TEXT	SEGMENT
__Arg$ = 8						; size = 4
??$forward@UBulletSet@ioAliceObjectItem@@@std@@YA$$QAUBulletSet@ioAliceObjectItem@@AAU12@@Z PROC ; std::forward<ioAliceObjectItem::BulletSet>, COMDAT

; 78   : 	{	// forward _Arg, given explicitly specified type parameter

  00000	55		 push	 ebp
  00001	8b ec		 mov	 ebp, esp

; 79   : 	return ((_Ty&&)_Arg);

  00003	8b 45 08	 mov	 eax, DWORD PTR __Arg$[ebp]

; 80   : 	}

  00006	5d		 pop	 ebp
  00007	c3		 ret	 0
??$forward@UBulletSet@ioAliceObjectItem@@@std@@YA$$QAUBulletSet@ioAliceObjectItem@@AAU12@@Z ENDP ; std::forward<ioAliceObjectItem::BulletSet>
_TEXT	ENDS
PUBLIC	??$_Ptr_cat@V?$_Vector_const_iterator@V?$_Vector_val@UBulletInfo@@V?$allocator@UBulletInfo@@@std@@@std@@@std@@PAUBulletInfo@@@std@@YA?AU_Nonscalar_ptr_iterator_tag@0@AAV?$_Vector_const_iterator@V?$_Vector_val@UBulletInfo@@V?$allocator@UBulletInfo@@@std@@@std@@@0@AAPAUBulletInfo@@@Z ; std::_Ptr_cat<std::_Vector_const_iterator<std::_Vector_val<BulletInfo,std::allocator<BulletInfo> > >,BulletInfo *>
; Function compile flags: /Ogsp
; File c:\program files (x86)\microsoft visual studio 10.0\vc\include\xutility
;	COMDAT ??$_Ptr_cat@V?$_Vector_const_iterator@V?$_Vector_val@UBulletInfo@@V?$allocator@UBulletInfo@@@std@@@std@@@std@@PAUBulletInfo@@@std@@YA?AU_Nonscalar_ptr_iterator_tag@0@AAV?$_Vector_const_iterator@V?$_Vector_val@UBulletInfo@@V?$allocator@UBulletInfo@@@std@@@std@@@0@AAPAUBulletInfo@@@Z
_TEXT	SEGMENT
__Cat$ = -1						; size = 1
___formal$ = 8						; size = 4
___formal$ = 12						; size = 4
??$_Ptr_cat@V?$_Vector_const_iterator@V?$_Vector_val@UBulletInfo@@V?$allocator@UBulletInfo@@@std@@@std@@@std@@PAUBulletInfo@@@std@@YA?AU_Nonscalar_ptr_iterator_tag@0@AAV?$_Vector_const_iterator@V?$_Vector_val@UBulletInfo@@V?$allocator@UBulletInfo@@@std@@@std@@@0@AAPAUBulletInfo@@@Z PROC ; std::_Ptr_cat<std::_Vector_const_iterator<std::_Vector_val<BulletInfo,std::allocator<BulletInfo> > >,BulletInfo *>, COMDAT

; 485  : 	{	// return pointer category from arbitrary arguments

  00000	55		 push	 ebp
  00001	8b ec		 mov	 ebp, esp
  00003	51		 push	 ecx

; 486  : 	_Nonscalar_ptr_iterator_tag _Cat;
; 487  : 	return (_Cat);

  00004	8a 45 ff	 mov	 al, BYTE PTR __Cat$[ebp]

; 488  : 	}

  00007	c9		 leave
  00008	c3		 ret	 0
??$_Ptr_cat@V?$_Vector_const_iterator@V?$_Vector_val@UBulletInfo@@V?$allocator@UBulletInfo@@@std@@@std@@@std@@PAUBulletInfo@@@std@@YA?AU_Nonscalar_ptr_iterator_tag@0@AAV?$_Vector_const_iterator@V?$_Vector_val@UBulletInfo@@V?$allocator@UBulletInfo@@@std@@@std@@@0@AAPAUBulletInfo@@@Z ENDP ; std::_Ptr_cat<std::_Vector_const_iterator<std::_Vector_val<BulletInfo,std::allocator<BulletInfo> > >,BulletInfo *>
_TEXT	ENDS
PUBLIC	??D?$_Vector_const_iterator@V?$_Vector_val@UBulletInfo@@V?$allocator@UBulletInfo@@@std@@@std@@@std@@QBEABUBulletInfo@@XZ ; std::_Vector_const_iterator<std::_Vector_val<BulletInfo,std::allocator<BulletInfo> > >::operator*
; Function compile flags: /Ogsp
; File c:\program files (x86)\microsoft visual studio 10.0\vc\include\vector
;	COMDAT ??D?$_Vector_const_iterator@V?$_Vector_val@UBulletInfo@@V?$allocator@UBulletInfo@@@std@@@std@@@std@@QBEABUBulletInfo@@XZ
_TEXT	SEGMENT
??D?$_Vector_const_iterator@V?$_Vector_val@UBulletInfo@@V?$allocator@UBulletInfo@@@std@@@std@@@std@@QBEABUBulletInfo@@XZ PROC ; std::_Vector_const_iterator<std::_Vector_val<BulletInfo,std::allocator<BulletInfo> > >::operator*, COMDAT
; _this$ = ecx

; 64   :  #if _ITERATOR_DEBUG_LEVEL == 2
; 65   : 		if (this->_Getcont() == 0
; 66   : 			|| this->_Ptr == 0
; 67   : 			|| this->_Ptr < ((_Myvec *)this->_Getcont())->_Myfirst
; 68   : 			|| ((_Myvec *)this->_Getcont())->_Mylast <= this->_Ptr)
; 69   : 			{	// report error
; 70   : 			_DEBUG_ERROR("vector iterator not dereferencable");
; 71   : 			_SCL_SECURE_OUT_OF_RANGE;
; 72   : 			}
; 73   : 
; 74   :  #elif _ITERATOR_DEBUG_LEVEL == 1
; 75   : 		_SCL_SECURE_VALIDATE(this->_Getcont() != 0);
; 76   : 		_SCL_SECURE_VALIDATE_RANGE(
; 77   : 			this->_Ptr != 0
; 78   : 			&& ((_Myvec *)this->_Getcont())->_Myfirst <= this->_Ptr
; 79   : 			&& this->_Ptr < ((_Myvec *)this->_Getcont())->_Mylast);
; 80   :  #endif /* _ITERATOR_DEBUG_LEVEL */
; 81   : 
; 82   : 		__analysis_assume(this->_Ptr != 0);
; 83   : 
; 84   : 		return (*this->_Ptr);

  00000	8b 01		 mov	 eax, DWORD PTR [ecx]

; 85   : 		}

  00002	c3		 ret	 0
??D?$_Vector_const_iterator@V?$_Vector_val@UBulletInfo@@V?$allocator@UBulletInfo@@@std@@@std@@@std@@QBEABUBulletInfo@@XZ ENDP ; std::_Vector_const_iterator<std::_Vector_val<BulletInfo,std::allocator<BulletInfo> > >::operator*
_TEXT	ENDS
PUBLIC	??E?$_Vector_const_iterator@V?$_Vector_val@UBulletInfo@@V?$allocator@UBulletInfo@@@std@@@std@@@std@@QAEAAV01@XZ ; std::_Vector_const_iterator<std::_Vector_val<BulletInfo,std::allocator<BulletInfo> > >::operator++
; Function compile flags: /Ogsp
;	COMDAT ??E?$_Vector_const_iterator@V?$_Vector_val@UBulletInfo@@V?$allocator@UBulletInfo@@@std@@@std@@@std@@QAEAAV01@XZ
_TEXT	SEGMENT
??E?$_Vector_const_iterator@V?$_Vector_val@UBulletInfo@@V?$allocator@UBulletInfo@@@std@@@std@@@std@@QAEAAV01@XZ PROC ; std::_Vector_const_iterator<std::_Vector_val<BulletInfo,std::allocator<BulletInfo> > >::operator++, COMDAT
; _this$ = ecx

; 93   : 		{	// preincrement

  00000	8b c1		 mov	 eax, ecx

; 94   :  #if _ITERATOR_DEBUG_LEVEL == 2
; 95   : 		if (this->_Getcont() == 0
; 96   : 			|| this->_Ptr == 0
; 97   : 			|| ((_Myvec *)this->_Getcont())->_Mylast <= this->_Ptr)
; 98   : 			{	// report error
; 99   : 			_DEBUG_ERROR("vector iterator not incrementable");
; 100  : 			_SCL_SECURE_OUT_OF_RANGE;
; 101  : 			}
; 102  : 
; 103  :  #elif _ITERATOR_DEBUG_LEVEL == 1
; 104  : 		_SCL_SECURE_VALIDATE(this->_Getcont() != 0);
; 105  : 		_SCL_SECURE_VALIDATE_RANGE(
; 106  : 			this->_Ptr != 0
; 107  : 			&& this->_Ptr < ((_Myvec *)this->_Getcont())->_Mylast);
; 108  :  #endif /* _ITERATOR_DEBUG_LEVEL */
; 109  : 
; 110  : 		++this->_Ptr;

  00002	83 00 14	 add	 DWORD PTR [eax], 20	; 00000014H

; 111  : 		return (*this);
; 112  : 		}

  00005	c3		 ret	 0
??E?$_Vector_const_iterator@V?$_Vector_val@UBulletInfo@@V?$allocator@UBulletInfo@@@std@@@std@@@std@@QAEAAV01@XZ ENDP ; std::_Vector_const_iterator<std::_Vector_val<BulletInfo,std::allocator<BulletInfo> > >::operator++
_TEXT	ENDS
PUBLIC	?_Compat@?$_Vector_const_iterator@V?$_Vector_val@UBulletInfo@@V?$allocator@UBulletInfo@@@std@@@std@@@std@@QBEXABV12@@Z ; std::_Vector_const_iterator<std::_Vector_val<BulletInfo,std::allocator<BulletInfo> > >::_Compat
; Function compile flags: /Ogsp
;	COMDAT ?_Compat@?$_Vector_const_iterator@V?$_Vector_val@UBulletInfo@@V?$allocator@UBulletInfo@@@std@@@std@@@std@@QBEXABV12@@Z
_TEXT	SEGMENT
___formal$ = 8						; size = 4
?_Compat@?$_Vector_const_iterator@V?$_Vector_val@UBulletInfo@@V?$allocator@UBulletInfo@@@std@@@std@@@std@@QBEXABV12@@Z PROC ; std::_Vector_const_iterator<std::_Vector_val<BulletInfo,std::allocator<BulletInfo> > >::_Compat, COMDAT
; _this$ = ecx

; 253  : 		}

  00000	c2 04 00	 ret	 4
?_Compat@?$_Vector_const_iterator@V?$_Vector_val@UBulletInfo@@V?$allocator@UBulletInfo@@@std@@@std@@@std@@QBEXABV12@@Z ENDP ; std::_Vector_const_iterator<std::_Vector_val<BulletInfo,std::allocator<BulletInfo> > >::_Compat
_TEXT	ENDS
PUBLIC	??0D3DXVECTOR3@@QAE@XZ				; D3DXVECTOR3::D3DXVECTOR3
; Function compile flags: /Ogsp
; File c:\program files (x86)\microsoft directx sdk (june 2010)\include\d3dx9math.h
;	COMDAT ??0D3DXVECTOR3@@QAE@XZ
_TEXT	SEGMENT
??0D3DXVECTOR3@@QAE@XZ PROC				; D3DXVECTOR3::D3DXVECTOR3, COMDAT
; _this$ = ecx

; 165  :     D3DXVECTOR3() {};

  00000	8b c1		 mov	 eax, ecx
  00002	c3		 ret	 0
??0D3DXVECTOR3@@QAE@XZ ENDP				; D3DXVECTOR3::D3DXVECTOR3
_TEXT	ENDS
PUBLIC	??0D3DXQUATERNION@@QAE@XZ			; D3DXQUATERNION::D3DXQUATERNION
; Function compile flags: /Ogsp
;	COMDAT ??0D3DXQUATERNION@@QAE@XZ
_TEXT	SEGMENT
??0D3DXQUATERNION@@QAE@XZ PROC				; D3DXQUATERNION::D3DXQUATERNION, COMDAT
; _this$ = ecx

; 429  :     D3DXQUATERNION() {}

  00000	8b c1		 mov	 eax, ecx
  00002	c3		 ret	 0
??0D3DXQUATERNION@@QAE@XZ ENDP				; D3DXQUATERNION::D3DXQUATERNION
_TEXT	ENDS
PUBLIC	??0D3DXVECTOR3@@QAE@MMM@Z			; D3DXVECTOR3::D3DXVECTOR3
; Function compile flags: /Ogsp
; File c:\program files (x86)\microsoft directx sdk (june 2010)\include\d3dx9math.inl
;	COMDAT ??0D3DXVECTOR3@@QAE@MMM@Z
_TEXT	SEGMENT
_fx$ = 8						; size = 4
_fy$ = 12						; size = 4
_fz$ = 16						; size = 4
??0D3DXVECTOR3@@QAE@MMM@Z PROC				; D3DXVECTOR3::D3DXVECTOR3, COMDAT
; _this$ = ecx

; 303  : {

  00000	55		 push	 ebp
  00001	8b ec		 mov	 ebp, esp

; 304  :     x = fx;

  00003	f3 0f 10 45 08	 movss	 xmm0, DWORD PTR _fx$[ebp]
  00008	8b c1		 mov	 eax, ecx
  0000a	f3 0f 11 00	 movss	 DWORD PTR [eax], xmm0

; 305  :     y = fy;

  0000e	f3 0f 10 45 0c	 movss	 xmm0, DWORD PTR _fy$[ebp]
  00013	f3 0f 11 40 04	 movss	 DWORD PTR [eax+4], xmm0

; 306  :     z = fz;

  00018	f3 0f 10 45 10	 movss	 xmm0, DWORD PTR _fz$[ebp]
  0001d	f3 0f 11 40 08	 movss	 DWORD PTR [eax+8], xmm0

; 307  : }

  00022	5d		 pop	 ebp
  00023	c2 0c 00	 ret	 12			; 0000000cH
??0D3DXVECTOR3@@QAE@MMM@Z ENDP				; D3DXVECTOR3::D3DXVECTOR3
_TEXT	ENDS
PUBLIC	?D3DXVec3Cross@@YAPAUD3DXVECTOR3@@PAU1@PBU1@1@Z	; D3DXVec3Cross
; Function compile flags: /Ogsp
;	COMDAT ?D3DXVec3Cross@@YAPAUD3DXVECTOR3@@PAU1@PBU1@1@Z
_TEXT	SEGMENT
_v$ = -12						; size = 12
_pOut$ = 8						; size = 4
_pV1$ = 12						; size = 4
_pV2$ = 16						; size = 4
?D3DXVec3Cross@@YAPAUD3DXVECTOR3@@PAU1@PBU1@1@Z PROC	; D3DXVec3Cross, COMDAT

; 1747 : {

  00000	55		 push	 ebp
  00001	8b ec		 mov	 ebp, esp
  00003	83 ec 0c	 sub	 esp, 12			; 0000000cH

; 1757 :     v.z = pV1->x * pV2->y - pV1->y * pV2->x;
; 1758 : 
; 1759 :     *pOut = v;

  00006	56		 push	 esi
  00007	57		 push	 edi

; 1748 :     D3DXVECTOR3 v;
; 1749 : 
; 1750 : #ifdef D3DX_DEBUG
; 1751 :     if(!pOut || !pV1 || !pV2)
; 1752 :         return NULL;
; 1753 : #endif
; 1754 : 
; 1755 :     v.x = pV1->y * pV2->z - pV1->z * pV2->y;

  00008	8b 45 0c	 mov	 eax, DWORD PTR _pV1$[ebp]
  0000b	f3 0f 10 40 04	 movss	 xmm0, DWORD PTR [eax+4]
  00010	f3 0f 10 50 08	 movss	 xmm2, DWORD PTR [eax+8]
  00015	8b 4d 10	 mov	 ecx, DWORD PTR _pV2$[ebp]
  00018	f3 0f 10 49 08	 movss	 xmm1, DWORD PTR [ecx+8]
  0001d	f3 0f 10 59 04	 movss	 xmm3, DWORD PTR [ecx+4]
  00022	0f 5a e8	 cvtps2pd xmm5, xmm0
  00025	0f 5a e1	 cvtps2pd xmm4, xmm1
  00028	0f 5a f2	 cvtps2pd xmm6, xmm2
  0002b	f2 0f 59 e5	 mulsd	 xmm4, xmm5

; 1756 :     v.y = pV1->z * pV2->x - pV1->x * pV2->z;

  0002f	0f 5a d2	 cvtps2pd xmm2, xmm2
  00032	0f 5a c9	 cvtps2pd xmm1, xmm1
  00035	0f 5a eb	 cvtps2pd xmm5, xmm3
  00038	f2 0f 59 ee	 mulsd	 xmm5, xmm6
  0003c	f2 0f 5c e5	 subsd	 xmm4, xmm5
  00040	f3 0f 10 28	 movss	 xmm5, DWORD PTR [eax]

; 1757 :     v.z = pV1->x * pV2->y - pV1->y * pV2->x;
; 1758 : 
; 1759 :     *pOut = v;

  00044	8b 45 08	 mov	 eax, DWORD PTR _pOut$[ebp]
  00047	66 0f 5a e4	 cvtpd2ps xmm4, xmm4
  0004b	f3 0f 11 65 f4	 movss	 DWORD PTR _v$[ebp], xmm4
  00050	f3 0f 10 21	 movss	 xmm4, DWORD PTR [ecx]
  00054	0f 5a f4	 cvtps2pd xmm6, xmm4
  00057	f2 0f 59 f2	 mulsd	 xmm6, xmm2
  0005b	0f 5a d5	 cvtps2pd xmm2, xmm5
  0005e	f2 0f 59 d1	 mulsd	 xmm2, xmm1
  00062	f2 0f 5c f2	 subsd	 xmm6, xmm2
  00066	66 0f 5a ce	 cvtpd2ps xmm1, xmm6
  0006a	f3 0f 11 4d f8	 movss	 DWORD PTR _v$[ebp+4], xmm1
  0006f	0f 5a c0	 cvtps2pd xmm0, xmm0
  00072	0f 5a d3	 cvtps2pd xmm2, xmm3
  00075	0f 5a cd	 cvtps2pd xmm1, xmm5
  00078	f2 0f 59 ca	 mulsd	 xmm1, xmm2
  0007c	8d 75 f4	 lea	 esi, DWORD PTR _v$[ebp]
  0007f	8b f8		 mov	 edi, eax
  00081	0f 5a d4	 cvtps2pd xmm2, xmm4
  00084	f2 0f 59 d0	 mulsd	 xmm2, xmm0
  00088	f2 0f 5c ca	 subsd	 xmm1, xmm2
  0008c	66 0f 5a c1	 cvtpd2ps xmm0, xmm1
  00090	f3 0f 11 45 fc	 movss	 DWORD PTR _v$[ebp+8], xmm0
  00095	a5		 movsd
  00096	a5		 movsd
  00097	a5		 movsd
  00098	5f		 pop	 edi
  00099	5e		 pop	 esi

; 1760 :     return pOut;
; 1761 : }

  0009a	c9		 leave
  0009b	c3		 ret	 0
?D3DXVec3Cross@@YAPAUD3DXVECTOR3@@PAU1@PBU1@1@Z ENDP	; D3DXVec3Cross
_TEXT	ENDS
PUBLIC	?_DECSTR@@YAXPADH@Z				; _DECSTR
; Function compile flags: /Ogsp
; File d:\lost saga for developer\youtube\tutorial\source\src\lsclient\stringprotect.h
;	COMDAT ?_DECSTR@@YAXPADH@Z
_TEXT	SEGMENT
_s$ = 8							; size = 4
_l$ = 12						; size = 4
?_DECSTR@@YAXPADH@Z PROC				; _DECSTR, COMDAT

; 40   : __forceinline void _DECSTR(char* s, int l){int i=0,l4=(l-1)/4,*p=(int*)s;s[l-1]=0;for(;i<l4;++i)*(p++)^=0xEAEBECED;for(i=l4*4;i<l-1;++i)s[i]^=0xED-i%4;}

  00000	55		 push	 ebp
  00001	8b ec		 mov	 ebp, esp
  00003	8b 4d 0c	 mov	 ecx, DWORD PTR _l$[ebp]
  00006	56		 push	 esi
  00007	8b 75 08	 mov	 esi, DWORD PTR _s$[ebp]
  0000a	57		 push	 edi
  0000b	8d 79 ff	 lea	 edi, DWORD PTR [ecx-1]
  0000e	8b c7		 mov	 eax, edi
  00010	99		 cdq
  00011	83 e2 03	 and	 edx, 3
  00014	03 c2		 add	 eax, edx
  00016	c1 f8 02	 sar	 eax, 2
  00019	8b d6		 mov	 edx, esi
  0001b	c6 44 0e ff 00	 mov	 BYTE PTR [esi+ecx-1], 0
  00020	85 c0		 test	 eax, eax
  00022	7e 0e		 jle	 SHORT $LN4@DECSTR
  00024	8b c8		 mov	 ecx, eax
$LL6@DECSTR:
  00026	81 32 ed ec eb
	ea		 xor	 DWORD PTR [edx], -353637139 ; eaebecedH
  0002c	83 c2 04	 add	 edx, 4
  0002f	49		 dec	 ecx
  00030	75 f4		 jne	 SHORT $LL6@DECSTR
$LN4@DECSTR:
  00032	c1 e0 02	 shl	 eax, 2
  00035	eb 17		 jmp	 SHORT $LN14@DECSTR
$LL3@DECSTR:
  00037	8b c8		 mov	 ecx, eax
  00039	81 e1 03 00 00
	80		 and	 ecx, -2147483645	; 80000003H
  0003f	79 05		 jns	 SHORT $LN13@DECSTR
  00041	49		 dec	 ecx
  00042	83 c9 fc	 or	 ecx, -4			; fffffffcH
  00045	41		 inc	 ecx
$LN13@DECSTR:
  00046	b2 ed		 mov	 dl, -19			; ffffffedH
  00048	2a d1		 sub	 dl, cl
  0004a	30 14 30	 xor	 BYTE PTR [eax+esi], dl
  0004d	40		 inc	 eax
$LN14@DECSTR:
  0004e	3b c7		 cmp	 eax, edi
  00050	7c e5		 jl	 SHORT $LL3@DECSTR
  00052	5f		 pop	 edi
  00053	5e		 pop	 esi
  00054	5d		 pop	 ebp
  00055	c3		 ret	 0
?_DECSTR@@YAXPADH@Z ENDP				; _DECSTR
_TEXT	ENDS
PUBLIC	??_R0?AVioItem@@@8				; ioItem `RTTI Type Descriptor'
PUBLIC	??_R0?AVioWeaponItem@@@8			; ioWeaponItem `RTTI Type Descriptor'
PUBLIC	?ToWeaponItem@@YAPAVioWeaponItem@@PAVioItem@@@Z	; ToWeaponItem
;	COMDAT ??_R0?AVioItem@@@8
; File d:\lost saga for developer\youtube\tutorial\source\src\lsclient\ioweaponitem.h
_DATA	SEGMENT
??_R0?AVioItem@@@8 DD FLAT:??_7type_info@@6B@		; ioItem `RTTI Type Descriptor'
	DD	00H
	DB	'.?AVioItem@@', 00H
_DATA	ENDS
;	COMDAT ??_R0?AVioWeaponItem@@@8
_DATA	SEGMENT
??_R0?AVioWeaponItem@@@8 DD FLAT:??_7type_info@@6B@	; ioWeaponItem `RTTI Type Descriptor'
	DD	00H
	DB	'.?AVioWeaponItem@@', 00H
; Function compile flags: /Ogsp
_DATA	ENDS
;	COMDAT ?ToWeaponItem@@YAPAVioWeaponItem@@PAVioItem@@@Z
_TEXT	SEGMENT
_pItem$ = 8						; size = 4
?ToWeaponItem@@YAPAVioWeaponItem@@PAVioItem@@@Z PROC	; ToWeaponItem, COMDAT

; 303  : {

  00000	55		 push	 ebp
  00001	8b ec		 mov	 ebp, esp
  00003	56		 push	 esi

; 304  : 	if( !pItem || pItem->GetType() != ioItem::IT_WEAPON )

  00004	8b 75 08	 mov	 esi, DWORD PTR _pItem$[ebp]
  00007	85 f6		 test	 esi, esi
  00009	74 25		 je	 SHORT $LN1@ToWeaponIt
  0000b	8b 06		 mov	 eax, DWORD PTR [esi]
  0000d	8b ce		 mov	 ecx, esi
  0000f	ff 50 08	 call	 DWORD PTR [eax+8]
  00012	83 f8 01	 cmp	 eax, 1
  00015	75 19		 jne	 SHORT $LN1@ToWeaponIt

; 306  : 
; 307  : 	return dynamic_cast< ioWeaponItem* >( pItem );

  00017	6a 00		 push	 0
  00019	68 00 00 00 00	 push	 OFFSET ??_R0?AVioWeaponItem@@@8
  0001e	68 00 00 00 00	 push	 OFFSET ??_R0?AVioItem@@@8
  00023	6a 00		 push	 0
  00025	56		 push	 esi
  00026	e8 00 00 00 00	 call	 ___RTDynamicCast
  0002b	83 c4 14	 add	 esp, 20			; 00000014H
  0002e	eb 02		 jmp	 SHORT $LN3@ToWeaponIt
$LN1@ToWeaponIt:

; 305  : 		return NULL;

  00030	33 c0		 xor	 eax, eax
$LN3@ToWeaponIt:
  00032	5e		 pop	 esi

; 308  : }

  00033	5d		 pop	 ebp
  00034	c3		 ret	 0
?ToWeaponItem@@YAPAVioWeaponItem@@PAVioItem@@@Z ENDP	; ToWeaponItem
_TEXT	ENDS
PUBLIC	?OnProcessState@ioObjectItem@@UAEXPAVioPlayStage@@PAVioBaseChar@@@Z ; ioObjectItem::OnProcessState
; Function compile flags: /Ogsp
; File d:\lost saga for developer\youtube\tutorial\source\src\lsclient\ioobjectitem.h
;	COMDAT ?OnProcessState@ioObjectItem@@UAEXPAVioPlayStage@@PAVioBaseChar@@@Z
_TEXT	SEGMENT
_pStage$ = 8						; size = 4
_pOwner$ = 12						; size = 4
?OnProcessState@ioObjectItem@@UAEXPAVioPlayStage@@PAVioBaseChar@@@Z PROC ; ioObjectItem::OnProcessState, COMDAT
; _this$ = ecx

; 156  : 	virtual void OnProcessState( ioPlayStage *pStage, ioBaseChar *pOwner ){};

  00000	c2 08 00	 ret	 8
?OnProcessState@ioObjectItem@@UAEXPAVioPlayStage@@PAVioBaseChar@@@Z ENDP ; ioObjectItem::OnProcessState
_TEXT	ENDS
PUBLIC	??0BulletInfo@@QAE@XZ				; BulletInfo::BulletInfo
; Function compile flags: /Ogsp
; File d:\lost saga for developer\youtube\tutorial\source\src\lsclient\ioattackskill.h
;	COMDAT ??0BulletInfo@@QAE@XZ
_TEXT	SEGMENT
??0BulletInfo@@QAE@XZ PROC				; BulletInfo::BulletInfo, COMDAT
; _this$ = ecx

; 21   : 	{
; 22   : 		m_fYawAngle		= 0.0f;

  00000	0f 57 c0	 xorps	 xmm0, xmm0
  00003	8b c1		 mov	 eax, ecx
  00005	f3 0f 11 00	 movss	 DWORD PTR [eax], xmm0

; 23   : 		m_fPitchAngle	= 0.0f;

  00009	f3 0f 11 40 04	 movss	 DWORD PTR [eax+4], xmm0

; 24   : 		m_fRollAngle	= 0.0f;

  0000e	f3 0f 11 40 08	 movss	 DWORD PTR [eax+8], xmm0

; 25   : 
; 26   : 		m_fRangeOffSet	= 0.0f;

  00013	f3 0f 11 40 0c	 movss	 DWORD PTR [eax+12], xmm0

; 27   : 		m_fHeightOffSet	= 0.0f;

  00018	f3 0f 11 40 10	 movss	 DWORD PTR [eax+16], xmm0

; 28   : 	}

  0001d	c3		 ret	 0
??0BulletInfo@@QAE@XZ ENDP				; BulletInfo::BulletInfo
_TEXT	ENDS
EXTRN	__imp_??0exception@std@@QAE@ABV01@@Z:PROC
; Function compile flags: /Ogsp
;	COMDAT ??0bad_alloc@std@@QAE@ABV01@@Z
_TEXT	SEGMENT
___that$ = 8						; size = 4
??0bad_alloc@std@@QAE@ABV01@@Z PROC			; std::bad_alloc::bad_alloc, COMDAT
; _this$ = ecx
  00000	55		 push	 ebp
  00001	8b ec		 mov	 ebp, esp
  00003	56		 push	 esi
  00004	ff 75 08	 push	 DWORD PTR ___that$[ebp]
  00007	8b f1		 mov	 esi, ecx
  00009	ff 15 00 00 00
	00		 call	 DWORD PTR __imp_??0exception@std@@QAE@ABV01@@Z
  0000f	c7 06 00 00 00
	00		 mov	 DWORD PTR [esi], OFFSET ??_7bad_alloc@std@@6B@
  00015	8b c6		 mov	 eax, esi
  00017	5e		 pop	 esi
  00018	5d		 pop	 ebp
  00019	c2 04 00	 ret	 4
??0bad_alloc@std@@QAE@ABV01@@Z ENDP			; std::bad_alloc::bad_alloc
_TEXT	ENDS
PUBLIC	??_R0?AVioAliceItem@@@8				; ioAliceItem `RTTI Type Descriptor'
PUBLIC	?ToAliceItem@@YAPAVioAliceItem@@PAVioItem@@@Z	; ToAliceItem
;	COMDAT ??_R0?AVioAliceItem@@@8
; File d:\lost saga for developer\youtube\tutorial\source\src\lsclient\ioaliceitem.h
_DATA	SEGMENT
??_R0?AVioAliceItem@@@8 DD FLAT:??_7type_info@@6B@	; ioAliceItem `RTTI Type Descriptor'
	DD	00H
	DB	'.?AVioAliceItem@@', 00H
; Function compile flags: /Ogsp
_DATA	ENDS
;	COMDAT ?ToAliceItem@@YAPAVioAliceItem@@PAVioItem@@@Z
_TEXT	SEGMENT
_pItem$ = 8						; size = 4
?ToAliceItem@@YAPAVioAliceItem@@PAVioItem@@@Z PROC	; ToAliceItem, COMDAT

; 116  : {

  00000	55		 push	 ebp
  00001	8b ec		 mov	 ebp, esp

; 117  : 	ioWeaponItem *pWeapon = ToWeaponItem( pItem );

  00003	ff 75 08	 push	 DWORD PTR _pItem$[ebp]
  00006	e8 00 00 00 00	 call	 ?ToWeaponItem@@YAPAVioWeaponItem@@PAVioItem@@@Z ; ToWeaponItem
  0000b	59		 pop	 ecx

; 118  : 	if( !pWeapon || pWeapon->GetSubType() != ioWeaponItem::WST_ALICE_ITEM )

  0000c	85 c0		 test	 eax, eax
  0000e	74 2a		 je	 SHORT $LN1@ToAliceIte
  00010	8b 10		 mov	 edx, DWORD PTR [eax]
  00012	8b c8		 mov	 ecx, eax
  00014	ff 92 f0 02 00
	00		 call	 DWORD PTR [edx+752]
  0001a	83 f8 61	 cmp	 eax, 97			; 00000061H
  0001d	75 1b		 jne	 SHORT $LN1@ToAliceIte

; 120  : 
; 121  : 	return dynamic_cast< ioAliceItem* >( pItem );

  0001f	6a 00		 push	 0
  00021	68 00 00 00 00	 push	 OFFSET ??_R0?AVioAliceItem@@@8
  00026	68 00 00 00 00	 push	 OFFSET ??_R0?AVioItem@@@8
  0002b	6a 00		 push	 0
  0002d	ff 75 08	 push	 DWORD PTR _pItem$[ebp]
  00030	e8 00 00 00 00	 call	 ___RTDynamicCast
  00035	83 c4 14	 add	 esp, 20			; 00000014H

; 122  : }

  00038	5d		 pop	 ebp
  00039	c3		 ret	 0
$LN1@ToAliceIte:

; 119  : 		return NULL;

  0003a	33 c0		 xor	 eax, eax

; 122  : }

  0003c	5d		 pop	 ebp
  0003d	c3		 ret	 0
?ToAliceItem@@YAPAVioAliceItem@@PAVioItem@@@Z ENDP	; ToAliceItem
_TEXT	ENDS
PUBLIC	?IsReleaseItem@ioAliceObjectItem@@QBE_NPBVioBaseChar@@@Z ; ioAliceObjectItem::IsReleaseItem
EXTRN	?GetWeapon@ioBaseChar@@QBEPAVioWeaponItem@@XZ:PROC ; ioBaseChar::GetWeapon
; Function compile flags: /Ogsp
; File d:\lost saga for developer\youtube\tutorial\source\src\lsclient\ioaliceobjectitem.cpp
;	COMDAT ?IsReleaseItem@ioAliceObjectItem@@QBE_NPBVioBaseChar@@@Z
_TEXT	SEGMENT
_pOwner$ = 8						; size = 4
?IsReleaseItem@ioAliceObjectItem@@QBE_NPBVioBaseChar@@@Z PROC ; ioAliceObjectItem::IsReleaseItem, COMDAT
; _this$ = ecx

; 95   : {

  00000	55		 push	 ebp
  00001	8b ec		 mov	 ebp, esp
  00003	56		 push	 esi
  00004	8b f1		 mov	 esi, ecx

; 96   : 	if( pOwner )

  00006	8b 4d 08	 mov	 ecx, DWORD PTR _pOwner$[ebp]
  00009	85 c9		 test	 ecx, ecx
  0000b	74 28		 je	 SHORT $LN1@IsReleaseI

; 97   : 	{
; 98   : 		ioWeaponItem *pItem = pOwner->GetWeapon();

  0000d	e8 00 00 00 00	 call	 ?GetWeapon@ioBaseChar@@QBEPAVioWeaponItem@@XZ ; ioBaseChar::GetWeapon

; 99   : 		ioAliceItem* pAlice = ToAliceItem( pItem );

  00012	50		 push	 eax
  00013	e8 00 00 00 00	 call	 ?ToAliceItem@@YAPAVioAliceItem@@PAVioItem@@@Z ; ToAliceItem
  00018	59		 pop	 ecx

; 100  : 		if( pAlice )

  00019	85 c0		 test	 eax, eax
  0001b	74 18		 je	 SHORT $LN1@IsReleaseI

; 101  : 		{
; 102  : 			if( m_bReserveRelease )

  0001d	80 be 7c 1b 00
	00 00		 cmp	 BYTE PTR [esi+7036], 0

; 103  : 				return true;

  00024	75 0f		 jne	 SHORT $LN1@IsReleaseI

; 104  : 
; 105  : 			if( pAlice->GetCurBullet() > 0 )

  00026	8b 10		 mov	 edx, DWORD PTR [eax]
  00028	8b c8		 mov	 ecx, eax
  0002a	ff 52 64	 call	 DWORD PTR [edx+100]
  0002d	85 c0		 test	 eax, eax
  0002f	7e 04		 jle	 SHORT $LN1@IsReleaseI

; 106  : 				return false;

  00031	32 c0		 xor	 al, al
  00033	eb 02		 jmp	 SHORT $LN5@IsReleaseI
$LN1@IsReleaseI:

; 107  : 		}
; 108  : 	}
; 109  : 
; 110  : 	return true;

  00035	b0 01		 mov	 al, 1
$LN5@IsReleaseI:
  00037	5e		 pop	 esi

; 111  : }

  00038	5d		 pop	 ebp
  00039	c2 04 00	 ret	 4
?IsReleaseItem@ioAliceObjectItem@@QBE_NPBVioBaseChar@@@Z ENDP ; ioAliceObjectItem::IsReleaseItem
_TEXT	ENDS
PUBLIC	?OnProcessState@ioAliceObjectItem@@UAEXPAVioPlayStage@@PAVioBaseChar@@@Z ; ioAliceObjectItem::OnProcessState
EXTRN	?CheckExtraAniJump@ioBaseChar@@QAEXXZ:PROC	; ioBaseChar::CheckExtraAniJump
; Function compile flags: /Ogsp
;	COMDAT ?OnProcessState@ioAliceObjectItem@@UAEXPAVioPlayStage@@PAVioBaseChar@@@Z
_TEXT	SEGMENT
_pStage$ = 8						; size = 4
_pOwner$ = 12						; size = 4
?OnProcessState@ioAliceObjectItem@@UAEXPAVioPlayStage@@PAVioBaseChar@@@Z PROC ; ioAliceObjectItem::OnProcessState, COMDAT
; _this$ = ecx

; 163  : {

  00000	55		 push	 ebp
  00001	8b ec		 mov	 ebp, esp

; 164  : 	ioObjectItem::OnProcessState( pStage, pOwner );
; 165  : 
; 166  : 	pOwner->CheckExtraAniJump();

  00003	8b 4d 0c	 mov	 ecx, DWORD PTR _pOwner$[ebp]
  00006	e8 00 00 00 00	 call	 ?CheckExtraAniJump@ioBaseChar@@QAEXXZ ; ioBaseChar::CheckExtraAniJump

; 167  : }

  0000b	5d		 pop	 ebp
  0000c	c2 08 00	 ret	 8
?OnProcessState@ioAliceObjectItem@@UAEXPAVioPlayStage@@PAVioBaseChar@@@Z ENDP ; ioAliceObjectItem::OnProcessState
_TEXT	ENDS
PUBLIC	?CheckReleaseByNormalAttack@ioAliceObjectItem@@UAE_NPAVioPlayStage@@PAVioBaseChar@@@Z ; ioAliceObjectItem::CheckReleaseByNormalAttack
; Function compile flags: /Ogsp
;	COMDAT ?CheckReleaseByNormalAttack@ioAliceObjectItem@@UAE_NPAVioPlayStage@@PAVioBaseChar@@@Z
_TEXT	SEGMENT
_pStage$ = 8						; size = 4
_pOwner$ = 12						; size = 4
?CheckReleaseByNormalAttack@ioAliceObjectItem@@UAE_NPAVioPlayStage@@PAVioBaseChar@@@Z PROC ; ioAliceObjectItem::CheckReleaseByNormalAttack, COMDAT
; _this$ = ecx

; 179  : {

  00000	55		 push	 ebp
  00001	8b ec		 mov	 ebp, esp

; 180  : 	return IsReleaseItem( pOwner );

  00003	ff 75 0c	 push	 DWORD PTR _pOwner$[ebp]
  00006	e8 00 00 00 00	 call	 ?IsReleaseItem@ioAliceObjectItem@@QBE_NPBVioBaseChar@@@Z ; ioAliceObjectItem::IsReleaseItem

; 181  : }

  0000b	5d		 pop	 ebp
  0000c	c2 08 00	 ret	 8
?CheckReleaseByNormalAttack@ioAliceObjectItem@@UAE_NPAVioPlayStage@@PAVioBaseChar@@@Z ENDP ; ioAliceObjectItem::CheckReleaseByNormalAttack
_TEXT	ENDS
PUBLIC	?CheckReleaseAliceGun@ioAliceObjectItem@@QAE_NPAVioPlayStage@@PAVioBaseChar@@_N@Z ; ioAliceObjectItem::CheckReleaseAliceGun
EXTRN	?IsDefenseKey@ioBaseChar@@QBE_NXZ:PROC		; ioBaseChar::IsDefenseKey
; Function compile flags: /Ogsp
;	COMDAT ?CheckReleaseAliceGun@ioAliceObjectItem@@QAE_NPAVioPlayStage@@PAVioBaseChar@@_N@Z
_TEXT	SEGMENT
_pStage$ = 8						; size = 4
_pOwner$ = 12						; size = 4
_bDefenseKeyCheck$ = 16					; size = 1
?CheckReleaseAliceGun@ioAliceObjectItem@@QAE_NPAVioPlayStage@@PAVioBaseChar@@_N@Z PROC ; ioAliceObjectItem::CheckReleaseAliceGun, COMDAT
; _this$ = ecx

; 184  : {

  00000	55		 push	 ebp
  00001	8b ec		 mov	 ebp, esp
  00003	56		 push	 esi

; 185  : 	if( !pOwner )

  00004	8b 75 0c	 mov	 esi, DWORD PTR _pOwner$[ebp]
  00007	57		 push	 edi
  00008	8b f9		 mov	 edi, ecx
  0000a	85 f6		 test	 esi, esi
  0000c	75 04		 jne	 SHORT $LN11@CheckRelea

; 186  : 		return false;

  0000e	32 c0		 xor	 al, al
  00010	eb 61		 jmp	 SHORT $LN1@CheckRelea
$LN11@CheckRelea:
  00012	53		 push	 ebx

; 187  : 
; 188  : 	bool bDefense = false;

  00013	32 db		 xor	 bl, bl

; 189  : 	if( bDefenseKeyCheck )

  00015	38 5d 10	 cmp	 BYTE PTR _bDefenseKeyCheck$[ebp], bl
  00018	74 13		 je	 SHORT $LN9@CheckRelea

; 190  : 	{
; 191  : 		bDefense = pOwner->IsDefenseKey();

  0001a	8b ce		 mov	 ecx, esi
  0001c	e8 00 00 00 00	 call	 ?IsDefenseKey@ioBaseChar@@QBE_NXZ ; ioBaseChar::IsDefenseKey
  00021	8a d8		 mov	 bl, al

; 192  : 
; 193  : 		if( bDefense )

  00023	84 db		 test	 bl, bl
  00025	74 06		 je	 SHORT $LN9@CheckRelea

; 194  : 			m_bReserveRelease = bDefense;

  00027	88 9f 7c 1b 00
	00		 mov	 BYTE PTR [edi+7036], bl
$LN9@CheckRelea:

; 195  : 	}
; 196  : 
; 197  : 	ioWeaponItem *pItem = pOwner->GetWeapon();

  0002d	8b ce		 mov	 ecx, esi
  0002f	e8 00 00 00 00	 call	 ?GetWeapon@ioBaseChar@@QBEPAVioWeaponItem@@XZ ; ioBaseChar::GetWeapon

; 198  : 	ioAliceItem* pAlice = ToAliceItem( pItem );

  00034	50		 push	 eax
  00035	e8 00 00 00 00	 call	 ?ToAliceItem@@YAPAVioAliceItem@@PAVioItem@@@Z ; ToAliceItem
  0003a	59		 pop	 ecx

; 199  : 
; 200  : 	//        
; 201  : 	if( !pAlice )

  0003b	85 c0		 test	 eax, eax
  0003d	75 04		 jne	 SHORT $LN8@CheckRelea

; 202  : 		return true;

  0003f	b0 01		 mov	 al, 1
  00041	eb 2f		 jmp	 SHORT $LN24@CheckRelea
$LN8@CheckRelea:

; 203  : 
; 204  : 	if( IsReleaseItem( pOwner ) || bDefense )

  00043	56		 push	 esi
  00044	8b cf		 mov	 ecx, edi
  00046	e8 00 00 00 00	 call	 ?IsReleaseItem@ioAliceObjectItem@@QBE_NPBVioBaseChar@@@Z ; ioAliceObjectItem::IsReleaseItem
  0004b	84 c0		 test	 al, al
  0004d	75 04		 jne	 SHORT $LN6@CheckRelea
  0004f	84 db		 test	 bl, bl

; 219  : 			return false;
; 220  : 
; 221  : 		return true;
; 222  : 	}
; 223  : 
; 224  : 	return false;

  00051	74 16		 je	 SHORT $LN25@CheckRelea
$LN6@CheckRelea:

; 205  : 	{
; 206  : 		if( pOwner->GetState() == CS_OBJECT_EQUIP )

  00053	8a 86 10 03 00
	00		 mov	 al, BYTE PTR [esi+784]
  00059	3c 7f		 cmp	 al, 127			; 0000007fH

; 207  : 			return false;

  0005b	74 0c		 je	 SHORT $LN25@CheckRelea

; 208  : 
; 209  : 		if( pOwner->GetState() == CS_JUMP )

  0005d	3c 04		 cmp	 al, 4

; 210  : 			return false;

  0005f	74 08		 je	 SHORT $LN25@CheckRelea

; 211  : 
; 212  : 		if( pOwner->GetState() == CS_ATTACK )

  00061	3c 05		 cmp	 al, 5

; 213  : 			return false;

  00063	74 04		 je	 SHORT $LN25@CheckRelea

; 214  : 
; 215  : 		if( pOwner->GetState() == CS_DASH_ATTACK )

  00065	3c 06		 cmp	 al, 6
  00067	75 04		 jne	 SHORT $LN2@CheckRelea
$LN25@CheckRelea:

; 216  : 			return false;

  00069	32 c0		 xor	 al, al
  0006b	eb 05		 jmp	 SHORT $LN24@CheckRelea
$LN2@CheckRelea:

; 217  : 		
; 218  : 		if( pOwner->GetState() == CS_NEW_JUMP_ATTACK )

  0006d	3c 3c		 cmp	 al, 60			; 0000003cH
  0006f	0f 95 c0	 setne	 al
$LN24@CheckRelea:
  00072	5b		 pop	 ebx
$LN1@CheckRelea:
  00073	5f		 pop	 edi
  00074	5e		 pop	 esi

; 225  : }

  00075	5d		 pop	 ebp
  00076	c2 0c 00	 ret	 12			; 0000000cH
?CheckReleaseAliceGun@ioAliceObjectItem@@QAE_NPAVioPlayStage@@PAVioBaseChar@@_N@Z ENDP ; ioAliceObjectItem::CheckReleaseAliceGun
_TEXT	ENDS
PUBLIC	?IsCanFire@ioAliceObjectItem@@UBE_NPBVioBaseChar@@H_N@Z ; ioAliceObjectItem::IsCanFire
; Function compile flags: /Ogsp
;	COMDAT ?IsCanFire@ioAliceObjectItem@@UBE_NPBVioBaseChar@@H_N@Z
_TEXT	SEGMENT
_pOwner$ = 8						; size = 4
_iFireCnt$ = 12						; size = 4
_bNormalAttack$ = 16					; size = 1
?IsCanFire@ioAliceObjectItem@@UBE_NPBVioBaseChar@@H_N@Z PROC ; ioAliceObjectItem::IsCanFire, COMDAT
; _this$ = ecx

; 233  : {

  00000	55		 push	 ebp
  00001	8b ec		 mov	 ebp, esp

; 234  : 	if( IsReleaseItem( pOwner ) )

  00003	ff 75 08	 push	 DWORD PTR _pOwner$[ebp]
  00006	e8 00 00 00 00	 call	 ?IsReleaseItem@ioAliceObjectItem@@QBE_NPBVioBaseChar@@@Z ; ioAliceObjectItem::IsReleaseItem
  0000b	f6 d8		 neg	 al
  0000d	1a c0		 sbb	 al, al
  0000f	fe c0		 inc	 al

; 235  : 		return false;
; 236  : 
; 237  : 	return true;
; 238  : }

  00011	5d		 pop	 ebp
  00012	c2 0c 00	 ret	 12			; 0000000cH
?IsCanFire@ioAliceObjectItem@@UBE_NPBVioBaseChar@@H_N@Z ENDP ; ioAliceObjectItem::IsCanFire
_TEXT	ENDS
PUBLIC	__real@bff0000000000000
PUBLIC	__real@bf800000
PUBLIC	_pWeapon$GSCopy$
PUBLIC	__$ArrayPad$
PUBLIC	?SetExtraInfoToWeapon@ioAliceObjectItem@@UAEXPAVioWeapon@@_N@Z ; ioAliceObjectItem::SetExtraInfoToWeapon
EXTRN	__imp_?UNIT_Y@ioMath@@2UD3DXVECTOR3@@A:BYTE
EXTRN	_D3DXQuaternionRotationAxis@12:PROC
EXTRN	__imp_??D@YA?AUD3DXVECTOR3@@ABUD3DXQUATERNION@@ABU0@@Z:PROC
EXTRN	__imp_?ArrangeHead@ioMath@@SAMM@Z:PROC
EXTRN	?GetOwner@ioWeapon@@QBEPAVioBaseChar@@XZ:PROC	; ioWeapon::GetOwner
EXTRN	?SetExtraInfoToWeapon@ioObjectItem@@UAEXPAVioWeapon@@_N@Z:PROC ; ioObjectItem::SetExtraInfoToWeapon
EXTRN	___security_cookie:DWORD
EXTRN	@__security_check_cookie@4:PROC
;	COMDAT __real@bff0000000000000
; File d:\lost saga for developer\youtube\tutorial\source\src\lsclient\veryoftenusedefine.h
CONST	SEGMENT
__real@bff0000000000000 DQ 0bff0000000000000r	; -1
CONST	ENDS
;	COMDAT __real@bf800000
CONST	SEGMENT
__real@bf800000 DD 0bf800000r			; -1
; Function compile flags: /Ogsp
; File d:\lost saga for developer\youtube\tutorial\source\src\lsclient\ioaliceobjectitem.cpp
CONST	ENDS
;	COMDAT ?SetExtraInfoToWeapon@ioAliceObjectItem@@UAEXPAVioWeapon@@_N@Z
_TEXT	SEGMENT
_qtRotate$550116 = -84					; size = 16
_qtRot$550120 = -68					; size = 16
_pWeapon$GSCopy$ = -52					; size = 4
_fCurPitchAngle$550115 = -48				; size = 4
tv730 = -44						; size = 4
tv712 = -44						; size = 4
_fCurYawAngle$550114 = -44				; size = 4
_vAxis$550121 = -40					; size = 12
_v$553100 = -28						; size = 12
$T550128 = -28						; size = 12
$T550127 = -28						; size = 12
$T550118 = -28						; size = 12
_vMoveDir$550117 = -16					; size = 12
__$ArrayPad$ = -4					; size = 4
_pWeapon$ = 8						; size = 4
_bJumpAttack$ = 12					; size = 1
?SetExtraInfoToWeapon@ioAliceObjectItem@@UAEXPAVioWeapon@@_N@Z PROC ; ioAliceObjectItem::SetExtraInfoToWeapon, COMDAT
; _this$ = ecx

; 241  : {

  00000	55		 push	 ebp
  00001	8b ec		 mov	 ebp, esp
  00003	83 ec 54	 sub	 esp, 84			; 00000054H
  00006	a1 00 00 00 00	 mov	 eax, DWORD PTR ___security_cookie
  0000b	33 c5		 xor	 eax, ebp
  0000d	89 45 fc	 mov	 DWORD PTR __$ArrayPad$[ebp], eax
  00010	53		 push	 ebx
  00011	56		 push	 esi

; 242  : 	ioObjectItem::SetExtraInfoToWeapon( pWeapon, bJumpAttack );

  00012	ff 75 0c	 push	 DWORD PTR _bJumpAttack$[ebp]
  00015	8b 75 08	 mov	 esi, DWORD PTR _pWeapon$[ebp]
  00018	56		 push	 esi
  00019	8b d9		 mov	 ebx, ecx

; 289  : 			{
; 290  : 				float fCurYawAngle		= 0.0f;
; 291  : 				float fCurPitchAngle	= 0.0f;
; 292  : 
; 293  : 				fCurYawAngle	= pSet->m_BulletElmentList[m_iWeaponWay].m_fYawAngle;

  0001b	89 75 cc	 mov	 DWORD PTR _pWeapon$GSCopy$[ebp], esi
  0001e	e8 00 00 00 00	 call	 ?SetExtraInfoToWeapon@ioObjectItem@@UAEXPAVioWeapon@@_N@Z ; ioObjectItem::SetExtraInfoToWeapon
  00023	56		 push	 esi
  00024	e8 00 00 00 00	 call	 ?ToMissileWeapon@@YAPAVioMissileWeapon@@PAVioWeapon@@@Z ; ToMissileWeapon
  00029	59		 pop	 ecx
  0002a	85 c0		 test	 eax, eax
  0002c	0f 84 b4 02 00
	00		 je	 $LN1@SetExtraIn

; 243  : 
; 244  : 	ioMissileWeapon* pMissile = ToMissileWeapon( pWeapon );	
; 245  : 	if( pMissile )
; 246  : 	{
; 247  : 		ioBaseChar* pOwner = pMissile->GetOwner();

  00032	8b c8		 mov	 ecx, eax
  00034	e8 00 00 00 00	 call	 ?GetOwner@ioWeapon@@QBEPAVioBaseChar@@XZ ; ioWeapon::GetOwner

; 248  : 		if( pOwner )

  00039	85 c0		 test	 eax, eax
  0003b	0f 84 a5 02 00
	00		 je	 $LN1@SetExtraIn

; 249  : 		{
; 250  : 			BulletSet* pSet		= NULL;
; 251  : 			CharState eState	= pOwner->GetState();
; 252  : 			switch( eState )

  00041	0f b6 80 10 03
	00 00		 movzx	 eax, BYTE PTR [eax+784]
  00048	83 e8 04	 sub	 eax, 4
  0004b	0f 84 ab 00 00
	00		 je	 $LN5@SetExtraIn
  00051	48		 dec	 eax
  00052	74 75		 je	 SHORT $LN9@SetExtraIn
  00054	48		 dec	 eax
  00055	74 3f		 je	 SHORT $LN7@SetExtraIn
  00057	83 e8 36	 sub	 eax, 54			; 00000036H
  0005a	0f 85 86 02 00
	00		 jne	 $LN1@SetExtraIn

; 275  : 					}
; 276  : 				}
; 277  : 				break;
; 278  : 			case CS_NEW_JUMP_ATTACK:
; 279  : 				{
; 280  : 					if( COMPARE( m_iCurCombo, 0, (int)m_DashJumpBulletSetList.size() ) )

  00060	8b b3 78 1b 00
	00		 mov	 esi, DWORD PTR [ebx+7032]
  00066	85 f6		 test	 esi, esi
  00068	0f 88 78 02 00
	00		 js	 $LN1@SetExtraIn
  0006e	8b 83 68 1b 00
	00		 mov	 eax, DWORD PTR [ebx+7016]
  00074	2b 83 64 1b 00
	00		 sub	 eax, DWORD PTR [ebx+7012]
  0007a	6a 14		 push	 20			; 00000014H
  0007c	99		 cdq
  0007d	59		 pop	 ecx
  0007e	f7 f9		 idiv	 ecx
  00080	3b f0		 cmp	 esi, eax
  00082	0f 8d 5e 02 00
	00		 jge	 $LN1@SetExtraIn

; 281  : 					{
; 282  : 						pSet = &m_DashJumpBulletSetList[m_iCurCombo];

  00088	6b f6 14	 imul	 esi, 20			; 00000014H
  0008b	03 b3 64 1b 00
	00		 add	 esi, DWORD PTR [ebx+7012]

; 283  : 					}
; 284  : 				}
; 285  : 				break;

  00091	e9 97 00 00 00	 jmp	 $LN4@SetExtraIn
$LN7@SetExtraIn:

; 262  : 			case CS_DASH_ATTACK:
; 263  : 				{
; 264  : 					if( COMPARE( m_iCurCombo, 0, (int)m_DashBulletSetList.size() ) )

  00096	8b b3 78 1b 00
	00		 mov	 esi, DWORD PTR [ebx+7032]
  0009c	85 f6		 test	 esi, esi
  0009e	0f 88 42 02 00
	00		 js	 $LN1@SetExtraIn
  000a4	8b 83 48 1b 00
	00		 mov	 eax, DWORD PTR [ebx+6984]
  000aa	2b 83 44 1b 00
	00		 sub	 eax, DWORD PTR [ebx+6980]
  000b0	6a 14		 push	 20			; 00000014H
  000b2	99		 cdq
  000b3	59		 pop	 ecx
  000b4	f7 f9		 idiv	 ecx
  000b6	3b f0		 cmp	 esi, eax
  000b8	0f 8d 28 02 00
	00		 jge	 $LN1@SetExtraIn

; 265  : 					{
; 266  : 						pSet = &m_DashBulletSetList[m_iCurCombo];

  000be	6b f6 14	 imul	 esi, 20			; 00000014H
  000c1	03 b3 44 1b 00
	00		 add	 esi, DWORD PTR [ebx+6980]

; 267  : 					}
; 268  : 				}
; 269  : 				break;

  000c7	eb 64		 jmp	 SHORT $LN4@SetExtraIn
$LN9@SetExtraIn:

; 253  : 			{
; 254  : 			case CS_ATTACK:
; 255  : 				{
; 256  : 					if( COMPARE( m_iCurCombo, 0, (int)m_NormalBulletSetList.size() ) )

  000c9	8b b3 78 1b 00
	00		 mov	 esi, DWORD PTR [ebx+7032]
  000cf	85 f6		 test	 esi, esi
  000d1	0f 88 0f 02 00
	00		 js	 $LN1@SetExtraIn
  000d7	8b 83 38 1b 00
	00		 mov	 eax, DWORD PTR [ebx+6968]
  000dd	2b 83 34 1b 00
	00		 sub	 eax, DWORD PTR [ebx+6964]
  000e3	6a 14		 push	 20			; 00000014H
  000e5	99		 cdq
  000e6	59		 pop	 ecx
  000e7	f7 f9		 idiv	 ecx
  000e9	3b f0		 cmp	 esi, eax
  000eb	0f 8d f5 01 00
	00		 jge	 $LN1@SetExtraIn

; 257  : 					{
; 258  : 						pSet = &m_NormalBulletSetList[m_iCurCombo];

  000f1	6b f6 14	 imul	 esi, 20			; 00000014H
  000f4	03 b3 34 1b 00
	00		 add	 esi, DWORD PTR [ebx+6964]

; 259  : 					}
; 260  : 				}
; 261  : 				break;

  000fa	eb 31		 jmp	 SHORT $LN4@SetExtraIn
$LN5@SetExtraIn:

; 270  : 			case CS_JUMP:
; 271  : 				{
; 272  : 					if( COMPARE( m_iCurCombo, 0, (int)m_JumpBulletSetList.size() ) )

  000fc	8b b3 78 1b 00
	00		 mov	 esi, DWORD PTR [ebx+7032]
  00102	85 f6		 test	 esi, esi
  00104	0f 88 dc 01 00
	00		 js	 $LN1@SetExtraIn
  0010a	8b 83 58 1b 00
	00		 mov	 eax, DWORD PTR [ebx+7000]
  00110	2b 83 54 1b 00
	00		 sub	 eax, DWORD PTR [ebx+6996]
  00116	6a 14		 push	 20			; 00000014H
  00118	99		 cdq
  00119	59		 pop	 ecx
  0011a	f7 f9		 idiv	 ecx
  0011c	3b f0		 cmp	 esi, eax
  0011e	0f 8d c2 01 00
	00		 jge	 $LN1@SetExtraIn

; 273  : 					{
; 274  : 						pSet = &m_JumpBulletSetList[m_iCurCombo];

  00124	6b f6 14	 imul	 esi, 20			; 00000014H
  00127	03 b3 54 1b 00
	00		 add	 esi, DWORD PTR [ebx+6996]
$LN4@SetExtraIn:

; 286  : 			}			
; 287  : 
; 288  : 			if( pSet && COMPARE( m_iWeaponWay, 0, (int)pSet->m_BulletElmentList.size() ) )

  0012d	85 f6		 test	 esi, esi
  0012f	0f 84 b1 01 00
	00		 je	 $LN1@SetExtraIn
  00135	8b 8b 74 1b 00
	00		 mov	 ecx, DWORD PTR [ebx+7028]
  0013b	85 c9		 test	 ecx, ecx
  0013d	0f 88 a3 01 00
	00		 js	 $LN1@SetExtraIn
  00143	8b 46 08	 mov	 eax, DWORD PTR [esi+8]
  00146	2b 46 04	 sub	 eax, DWORD PTR [esi+4]
  00149	57		 push	 edi
  0014a	6a 14		 push	 20			; 00000014H
  0014c	99		 cdq
  0014d	5f		 pop	 edi
  0014e	f7 ff		 idiv	 edi
  00150	3b c8		 cmp	 ecx, eax
  00152	0f 8d 8d 01 00
	00		 jge	 $LN58@SetExtraIn

; 289  : 			{
; 290  : 				float fCurYawAngle		= 0.0f;
; 291  : 				float fCurPitchAngle	= 0.0f;
; 292  : 
; 293  : 				fCurYawAngle	= pSet->m_BulletElmentList[m_iWeaponWay].m_fYawAngle;

  00158	8b 46 04	 mov	 eax, DWORD PTR [esi+4]
  0015b	6b c9 14	 imul	 ecx, 20			; 00000014H
  0015e	f3 0f 10 04 08	 movss	 xmm0, DWORD PTR [eax+ecx]

; 294  : 				fCurPitchAngle	= pSet->m_BulletElmentList[m_iWeaponWay].m_fPitchAngle;

  00163	f3 0f 10 4c 08
	04		 movss	 xmm1, DWORD PTR [eax+ecx+4]

; 295  : 
; 296  : 				fCurYawAngle	= ioMath::ArrangeHead( fCurYawAngle );

  00169	51		 push	 ecx
  0016a	f3 0f 11 4d d0	 movss	 DWORD PTR _fCurPitchAngle$550115[ebp], xmm1
  0016f	f3 0f 11 04 24	 movss	 DWORD PTR [esp], xmm0
  00174	ff 15 00 00 00
	00		 call	 DWORD PTR __imp_?ArrangeHead@ioMath@@SAMM@Z
  0017a	d9 5d d4	 fstp	 DWORD PTR _fCurYawAngle$550114[ebp]

; 297  : 				fCurPitchAngle	= ioMath::ArrangeHead( fCurPitchAngle );

  0017d	f3 0f 10 45 d0	 movss	 xmm0, DWORD PTR _fCurPitchAngle$550115[ebp]
  00182	f3 0f 11 04 24	 movss	 DWORD PTR [esp], xmm0
  00187	ff 15 00 00 00
	00		 call	 DWORD PTR __imp_?ArrangeHead@ioMath@@SAMM@Z
  0018d	d9 5d d0	 fstp	 DWORD PTR _fCurPitchAngle$550115[ebp]
  00190	59		 pop	 ecx

; 298  : 
; 299  : 				D3DXQUATERNION qtRotate = pWeapon->GetOwner()->GetTargetRot();

  00191	8b 4d cc	 mov	 ecx, DWORD PTR _pWeapon$GSCopy$[ebp]
  00194	e8 00 00 00 00	 call	 ?GetOwner@ioWeapon@@QBEPAVioBaseChar@@XZ ; ioWeapon::GetOwner

; 300  : 				D3DXVECTOR3 vMoveDir = qtRotate * D3DXVECTOR3( 0.0f, 0.0f, -1.0f );

  00199	0f 57 c0	 xorps	 xmm0, xmm0
  0019c	8d b0 a4 06 00
	00		 lea	 esi, DWORD PTR [eax+1700]
  001a2	8d 7d ac	 lea	 edi, DWORD PTR _qtRotate$550116[ebp]
  001a5	a5		 movsd
  001a6	a5		 movsd
  001a7	8d 45 e4	 lea	 eax, DWORD PTR $T550118[ebp]
  001aa	50		 push	 eax
  001ab	8d 45 ac	 lea	 eax, DWORD PTR _qtRotate$550116[ebp]
  001ae	a5		 movsd
  001af	50		 push	 eax
  001b0	8d 45 f0	 lea	 eax, DWORD PTR _vMoveDir$550117[ebp]
  001b3	f3 0f 11 45 e4	 movss	 DWORD PTR $T550118[ebp], xmm0
  001b8	f3 0f 11 45 e8	 movss	 DWORD PTR $T550118[ebp+4], xmm0
  001bd	f3 0f 10 05 00
	00 00 00	 movss	 xmm0, DWORD PTR __real@bf800000
  001c5	50		 push	 eax
  001c6	a5		 movsd
  001c7	f3 0f 11 45 ec	 movss	 DWORD PTR $T550118[ebp+8], xmm0
  001cc	ff 15 00 00 00
	00		 call	 DWORD PTR __imp_??D@YA?AUD3DXVECTOR3@@ABUD3DXQUATERNION@@ABU0@@Z

; 301  : 
; 302  : 				D3DXQUATERNION qtRot;
; 303  : 				D3DXVECTOR3 vAxis;
; 304  : 				D3DXVec3Cross( &vAxis, &vMoveDir, &D3DXVECTOR3( 0.0f, -1.0f, 0.0f ) );

  001d2	f3 0f 10 45 f4	 movss	 xmm0, DWORD PTR _vMoveDir$550117[ebp+4]

; 305  : 
; 306  : 				// vertical
; 307  : 				D3DXQuaternionRotationAxis( &qtRot, &vAxis, DEGtoRAD(fCurYawAngle) );

  001d7	d9 45 d4	 fld	 DWORD PTR _fCurYawAngle$550114[ebp]
  001da	f3 0f 10 5d f8	 movss	 xmm3, DWORD PTR _vMoveDir$550117[ebp+8]
  001df	dc 0d 00 00 00
	00		 fmul	 QWORD PTR __real@3f91df46a2526c7a
  001e5	0f 5a c8	 cvtps2pd xmm1, xmm0
  001e8	0f 57 c0	 xorps	 xmm0, xmm0
  001eb	f2 0f 59 c8	 mulsd	 xmm1, xmm0
  001ef	d9 5d d4	 fstp	 DWORD PTR tv730[ebp]
  001f2	d9 45 d4	 fld	 DWORD PTR tv730[ebp]
  001f5	0f 5a db	 cvtps2pd xmm3, xmm3
  001f8	f2 0f 59 1d 00
	00 00 00	 mulsd	 xmm3, QWORD PTR __real@bff0000000000000
  00200	66 0f 28 e1	 movapd	 xmm4, xmm1
  00204	f2 0f 5c e3	 subsd	 xmm4, xmm3
  00208	0f 57 db	 xorps	 xmm3, xmm3
  0020b	f2 0f 5a dc	 cvtsd2ss xmm3, xmm4
  0020f	f3 0f 10 65 f0	 movss	 xmm4, DWORD PTR _vMoveDir$550117[ebp]
  00214	f3 0f 11 5d e4	 movss	 DWORD PTR _v$553100[ebp], xmm3
  00219	f3 0f 10 5d f8	 movss	 xmm3, DWORD PTR _vMoveDir$550117[ebp+8]
  0021e	0f 5a db	 cvtps2pd xmm3, xmm3
  00221	f2 0f 59 d8	 mulsd	 xmm3, xmm0
  00225	0f 5a e4	 cvtps2pd xmm4, xmm4
  00228	f2 0f 59 e0	 mulsd	 xmm4, xmm0
  0022c	0f 57 c0	 xorps	 xmm0, xmm0
  0022f	f2 0f 5c dc	 subsd	 xmm3, xmm4
  00233	f2 0f 5a c3	 cvtsd2ss xmm0, xmm3
  00237	f3 0f 11 45 e8	 movss	 DWORD PTR _v$553100[ebp+4], xmm0
  0023c	f3 0f 10 45 f0	 movss	 xmm0, DWORD PTR _vMoveDir$550117[ebp]
  00241	0f 5a c0	 cvtps2pd xmm0, xmm0
  00244	f2 0f 59 05 00
	00 00 00	 mulsd	 xmm0, QWORD PTR __real@bff0000000000000
  0024c	f2 0f 5c c1	 subsd	 xmm0, xmm1
  00250	f2 0f 5a c0	 cvtsd2ss xmm0, xmm0
  00254	f3 0f 11 45 ec	 movss	 DWORD PTR _v$553100[ebp+8], xmm0
  00259	8d 75 e4	 lea	 esi, DWORD PTR _v$553100[ebp]
  0025c	8d 7d d8	 lea	 edi, DWORD PTR _vAxis$550121[ebp]
  0025f	a5		 movsd
  00260	83 c4 08	 add	 esp, 8
  00263	8d 45 d8	 lea	 eax, DWORD PTR _vAxis$550121[ebp]
  00266	a5		 movsd
  00267	d9 1c 24	 fstp	 DWORD PTR [esp]
  0026a	50		 push	 eax
  0026b	8d 45 bc	 lea	 eax, DWORD PTR _qtRot$550120[ebp]
  0026e	50		 push	 eax
  0026f	a5		 movsd
  00270	e8 00 00 00 00	 call	 _D3DXQuaternionRotationAxis@12

; 308  : 				vMoveDir = qtRot * vMoveDir;

  00275	8d 45 f0	 lea	 eax, DWORD PTR _vMoveDir$550117[ebp]
  00278	50		 push	 eax
  00279	8d 45 bc	 lea	 eax, DWORD PTR _qtRot$550120[ebp]
  0027c	50		 push	 eax
  0027d	8d 45 e4	 lea	 eax, DWORD PTR $T550127[ebp]
  00280	50		 push	 eax
  00281	ff 15 00 00 00
	00		 call	 DWORD PTR __imp_??D@YA?AUD3DXVECTOR3@@ABUD3DXQUATERNION@@ABU0@@Z

; 309  : 
; 310  : 				// horizon
; 311  : 				D3DXQuaternionRotationAxis( &qtRot, &ioMath::UNIT_Y, DEGtoRAD(fCurPitchAngle) );

  00287	d9 45 d0	 fld	 DWORD PTR _fCurPitchAngle$550115[ebp]
  0028a	dc 0d 00 00 00
	00		 fmul	 QWORD PTR __real@3f91df46a2526c7a
  00290	8b f0		 mov	 esi, eax
  00292	8d 7d f0	 lea	 edi, DWORD PTR _vMoveDir$550117[ebp]
  00295	a5		 movsd
  00296	d9 5d d4	 fstp	 DWORD PTR tv712[ebp]
  00299	d9 45 d4	 fld	 DWORD PTR tv712[ebp]
  0029c	83 c4 08	 add	 esp, 8
  0029f	a5		 movsd
  002a0	d9 1c 24	 fstp	 DWORD PTR [esp]
  002a3	ff 35 00 00 00
	00		 push	 DWORD PTR __imp_?UNIT_Y@ioMath@@2UD3DXVECTOR3@@A
  002a9	8d 45 bc	 lea	 eax, DWORD PTR _qtRot$550120[ebp]
  002ac	50		 push	 eax
  002ad	a5		 movsd
  002ae	e8 00 00 00 00	 call	 _D3DXQuaternionRotationAxis@12

; 312  : 				vMoveDir = qtRot * vMoveDir;	

  002b3	8d 45 f0	 lea	 eax, DWORD PTR _vMoveDir$550117[ebp]
  002b6	50		 push	 eax
  002b7	8d 45 bc	 lea	 eax, DWORD PTR _qtRot$550120[ebp]
  002ba	50		 push	 eax
  002bb	8d 45 e4	 lea	 eax, DWORD PTR $T550128[ebp]
  002be	50		 push	 eax
  002bf	ff 15 00 00 00
	00		 call	 DWORD PTR __imp_??D@YA?AUD3DXVECTOR3@@ABUD3DXQUATERNION@@ABU0@@Z

; 313  : 				pWeapon->SetMoveDir( vMoveDir );

  002c5	8b 4d cc	 mov	 ecx, DWORD PTR _pWeapon$GSCopy$[ebp]
  002c8	8b f0		 mov	 esi, eax
  002ca	8b 01		 mov	 eax, DWORD PTR [ecx]
  002cc	8d 7d f0	 lea	 edi, DWORD PTR _vMoveDir$550117[ebp]
  002cf	a5		 movsd
  002d0	a5		 movsd
  002d1	83 c4 0c	 add	 esp, 12			; 0000000cH
  002d4	8d 55 f0	 lea	 edx, DWORD PTR _vMoveDir$550117[ebp]
  002d7	52		 push	 edx
  002d8	a5		 movsd
  002d9	ff 90 b0 00 00
	00		 call	 DWORD PTR [eax+176]

; 314  : 				m_iWeaponWay++;

  002df	ff 83 74 1b 00
	00		 inc	 DWORD PTR [ebx+7028]
$LN58@SetExtraIn:
  002e5	5f		 pop	 edi
$LN1@SetExtraIn:

; 315  : 			}
; 316  : 		}
; 317  : 	}
; 318  : }

  002e6	8b 4d fc	 mov	 ecx, DWORD PTR __$ArrayPad$[ebp]
  002e9	5e		 pop	 esi
  002ea	33 cd		 xor	 ecx, ebp
  002ec	5b		 pop	 ebx
  002ed	e8 00 00 00 00	 call	 @__security_check_cookie@4
  002f2	c9		 leave
  002f3	c2 08 00	 ret	 8
?SetExtraInfoToWeapon@ioAliceObjectItem@@UAEXPAVioWeapon@@_N@Z ENDP ; ioAliceObjectItem::SetExtraInfoToWeapon
_TEXT	ENDS
PUBLIC	??0?$_Vector_val@UBulletInfo@@V?$allocator@UBulletInfo@@@std@@@std@@QAE@V?$allocator@UBulletInfo@@@1@@Z ; std::_Vector_val<BulletInfo,std::allocator<BulletInfo> >::_Vector_val<BulletInfo,std::allocator<BulletInfo> >
; Function compile flags: /Ogsp
; File c:\program files (x86)\microsoft visual studio 10.0\vc\include\vector
;	COMDAT ??0?$_Vector_val@UBulletInfo@@V?$allocator@UBulletInfo@@@std@@@std@@QAE@V?$allocator@UBulletInfo@@@1@@Z
_TEXT	SEGMENT
__Al$ = 8						; size = 1
??0?$_Vector_val@UBulletInfo@@V?$allocator@UBulletInfo@@@std@@@std@@QAE@V?$allocator@UBulletInfo@@@1@@Z PROC ; std::_Vector_val<BulletInfo,std::allocator<BulletInfo> >::_Vector_val<BulletInfo,std::allocator<BulletInfo> >, COMDAT
; _this$ = ecx

; 426  : 		{	// construct allocator from _Al

  00000	8b c1		 mov	 eax, ecx

; 427  : 		_Myfirst = 0;

  00002	33 c9		 xor	 ecx, ecx
  00004	89 08		 mov	 DWORD PTR [eax], ecx

; 428  : 		_Mylast = 0;

  00006	89 48 04	 mov	 DWORD PTR [eax+4], ecx

; 429  : 		_Myend = 0;

  00009	89 48 08	 mov	 DWORD PTR [eax+8], ecx

; 430  : 		}

  0000c	c2 04 00	 ret	 4
??0?$_Vector_val@UBulletInfo@@V?$allocator@UBulletInfo@@@std@@@std@@QAE@V?$allocator@UBulletInfo@@@1@@Z ENDP ; std::_Vector_val<BulletInfo,std::allocator<BulletInfo> >::_Vector_val<BulletInfo,std::allocator<BulletInfo> >
_TEXT	ENDS
PUBLIC	?begin@?$vector@UBulletSet@ioAliceObjectItem@@V?$allocator@UBulletSet@ioAliceObjectItem@@@std@@@std@@QBE?AV?$_Vector_const_iterator@V?$_Vector_val@UBulletSet@ioAliceObjectItem@@V?$allocator@UBulletSet@ioAliceObjectItem@@@std@@@std@@@2@XZ ; std::vector<ioAliceObjectItem::BulletSet,std::allocator<ioAliceObjectItem::BulletSet> >::begin
; Function compile flags: /Ogsp
;	COMDAT ?begin@?$vector@UBulletSet@ioAliceObjectItem@@V?$allocator@UBulletSet@ioAliceObjectItem@@@std@@@std@@QBE?AV?$_Vector_const_iterator@V?$_Vector_val@UBulletSet@ioAliceObjectItem@@V?$allocator@UBulletSet@ioAliceObjectItem@@@std@@@std@@@2@XZ
_TEXT	SEGMENT
___$ReturnUdt$ = 8					; size = 4
?begin@?$vector@UBulletSet@ioAliceObjectItem@@V?$allocator@UBulletSet@ioAliceObjectItem@@@std@@@std@@QBE?AV?$_Vector_const_iterator@V?$_Vector_val@UBulletSet@ioAliceObjectItem@@V?$allocator@UBulletSet@ioAliceObjectItem@@@std@@@std@@@2@XZ PROC ; std::vector<ioAliceObjectItem::BulletSet,std::allocator<ioAliceObjectItem::BulletSet> >::begin, COMDAT
; _this$ = ecx

; 786  : 		{	// return iterator for beginning of nonmutable sequence

  00000	55		 push	 ebp
  00001	8b ec		 mov	 ebp, esp

; 787  : 		return (const_iterator(this->_Myfirst, this));

  00003	8b 09		 mov	 ecx, DWORD PTR [ecx]
  00005	8b 45 08	 mov	 eax, DWORD PTR ___$ReturnUdt$[ebp]
  00008	89 08		 mov	 DWORD PTR [eax], ecx

; 788  : 		}

  0000a	5d		 pop	 ebp
  0000b	c2 04 00	 ret	 4
?begin@?$vector@UBulletSet@ioAliceObjectItem@@V?$allocator@UBulletSet@ioAliceObjectItem@@@std@@@std@@QBE?AV?$_Vector_const_iterator@V?$_Vector_val@UBulletSet@ioAliceObjectItem@@V?$allocator@UBulletSet@ioAliceObjectItem@@@std@@@std@@@2@XZ ENDP ; std::vector<ioAliceObjectItem::BulletSet,std::allocator<ioAliceObjectItem::BulletSet> >::begin
_TEXT	ENDS
PUBLIC	?end@?$vector@UBulletSet@ioAliceObjectItem@@V?$allocator@UBulletSet@ioAliceObjectItem@@@std@@@std@@QBE?AV?$_Vector_const_iterator@V?$_Vector_val@UBulletSet@ioAliceObjectItem@@V?$allocator@UBulletSet@ioAliceObjectItem@@@std@@@std@@@2@XZ ; std::vector<ioAliceObjectItem::BulletSet,std::allocator<ioAliceObjectItem::BulletSet> >::end
; Function compile flags: /Ogsp
;	COMDAT ?end@?$vector@UBulletSet@ioAliceObjectItem@@V?$allocator@UBulletSet@ioAliceObjectItem@@@std@@@std@@QBE?AV?$_Vector_const_iterator@V?$_Vector_val@UBulletSet@ioAliceObjectItem@@V?$allocator@UBulletSet@ioAliceObjectItem@@@std@@@std@@@2@XZ
_TEXT	SEGMENT
___$ReturnUdt$ = 8					; size = 4
?end@?$vector@UBulletSet@ioAliceObjectItem@@V?$allocator@UBulletSet@ioAliceObjectItem@@@std@@@std@@QBE?AV?$_Vector_const_iterator@V?$_Vector_val@UBulletSet@ioAliceObjectItem@@V?$allocator@UBulletSet@ioAliceObjectItem@@@std@@@std@@@2@XZ PROC ; std::vector<ioAliceObjectItem::BulletSet,std::allocator<ioAliceObjectItem::BulletSet> >::end, COMDAT
; _this$ = ecx

; 796  : 		{	// return iterator for end of nonmutable sequence

  00000	55		 push	 ebp
  00001	8b ec		 mov	 ebp, esp

; 797  : 		return (const_iterator(this->_Mylast, this));

  00003	8b 49 04	 mov	 ecx, DWORD PTR [ecx+4]
  00006	8b 45 08	 mov	 eax, DWORD PTR ___$ReturnUdt$[ebp]
  00009	89 08		 mov	 DWORD PTR [eax], ecx

; 798  : 		}

  0000b	5d		 pop	 ebp
  0000c	c2 04 00	 ret	 4
?end@?$vector@UBulletSet@ioAliceObjectItem@@V?$allocator@UBulletSet@ioAliceObjectItem@@@std@@@std@@QBE?AV?$_Vector_const_iterator@V?$_Vector_val@UBulletSet@ioAliceObjectItem@@V?$allocator@UBulletSet@ioAliceObjectItem@@@std@@@std@@@2@XZ ENDP ; std::vector<ioAliceObjectItem::BulletSet,std::allocator<ioAliceObjectItem::BulletSet> >::end
_TEXT	ENDS
PUBLIC	??0?$_Vector_val@UBulletSet@ioAliceObjectItem@@V?$allocator@UBulletSet@ioAliceObjectItem@@@std@@@std@@QAE@V?$allocator@UBulletSet@ioAliceObjectItem@@@1@@Z ; std::_Vector_val<ioAliceObjectItem::BulletSet,std::allocator<ioAliceObjectItem::BulletSet> >::_Vector_val<ioAliceObjectItem::BulletSet,std::allocator<ioAliceObjectItem::BulletSet> >
; Function compile flags: /Ogsp
;	COMDAT ??0?$_Vector_val@UBulletSet@ioAliceObjectItem@@V?$allocator@UBulletSet@ioAliceObjectItem@@@std@@@std@@QAE@V?$allocator@UBulletSet@ioAliceObjectItem@@@1@@Z
_TEXT	SEGMENT
__Al$ = 8						; size = 1
??0?$_Vector_val@UBulletSet@ioAliceObjectItem@@V?$allocator@UBulletSet@ioAliceObjectItem@@@std@@@std@@QAE@V?$allocator@UBulletSet@ioAliceObjectItem@@@1@@Z PROC ; std::_Vector_val<ioAliceObjectItem::BulletSet,std::allocator<ioAliceObjectItem::BulletSet> >::_Vector_val<ioAliceObjectItem::BulletSet,std::allocator<ioAliceObjectItem::BulletSet> >, COMDAT
; _this$ = ecx

; 426  : 		{	// construct allocator from _Al

  00000	8b c1		 mov	 eax, ecx

; 427  : 		_Myfirst = 0;

  00002	33 c9		 xor	 ecx, ecx
  00004	89 08		 mov	 DWORD PTR [eax], ecx

; 428  : 		_Mylast = 0;

  00006	89 48 04	 mov	 DWORD PTR [eax+4], ecx

; 429  : 		_Myend = 0;

  00009	89 48 08	 mov	 DWORD PTR [eax+8], ecx

; 430  : 		}

  0000c	c2 04 00	 ret	 4
??0?$_Vector_val@UBulletSet@ioAliceObjectItem@@V?$allocator@UBulletSet@ioAliceObjectItem@@@std@@@std@@QAE@V?$allocator@UBulletSet@ioAliceObjectItem@@@1@@Z ENDP ; std::_Vector_val<ioAliceObjectItem::BulletSet,std::allocator<ioAliceObjectItem::BulletSet> >::_Vector_val<ioAliceObjectItem::BulletSet,std::allocator<ioAliceObjectItem::BulletSet> >
_TEXT	ENDS
PUBLIC	?max_size@?$vector@UBulletInfo@@V?$allocator@UBulletInfo@@@std@@@std@@QBEIXZ ; std::vector<BulletInfo,std::allocator<BulletInfo> >::max_size
; Function compile flags: /Ogsp
;	COMDAT ?max_size@?$vector@UBulletInfo@@V?$allocator@UBulletInfo@@@std@@@std@@QBEIXZ
_TEXT	SEGMENT
?max_size@?$vector@UBulletInfo@@V?$allocator@UBulletInfo@@@std@@@std@@QBEIXZ PROC ; std::vector<BulletInfo,std::allocator<BulletInfo> >::max_size, COMDAT
; _this$ = ecx

; 884  : 		return (this->_Alval.max_size());

  00000	b8 cc cc cc 0c	 mov	 eax, 214748364		; 0cccccccH

; 885  : 		}

  00005	c3		 ret	 0
?max_size@?$vector@UBulletInfo@@V?$allocator@UBulletInfo@@@std@@@std@@QBEIXZ ENDP ; std::vector<BulletInfo,std::allocator<BulletInfo> >::max_size
_TEXT	ENDS
PUBLIC	?_Grow_to@?$vector@UBulletInfo@@V?$allocator@UBulletInfo@@@std@@@std@@IBEII@Z ; std::vector<BulletInfo,std::allocator<BulletInfo> >::_Grow_to
; Function compile flags: /Ogsp
;	COMDAT ?_Grow_to@?$vector@UBulletInfo@@V?$allocator@UBulletInfo@@@std@@@std@@IBEII@Z
_TEXT	SEGMENT
__Count$ = 8						; size = 4
?_Grow_to@?$vector@UBulletInfo@@V?$allocator@UBulletInfo@@@std@@@std@@IBEII@Z PROC ; std::vector<BulletInfo,std::allocator<BulletInfo> >::_Grow_to, COMDAT
; _this$ = ecx

; 1274 : 		{	// grow by 50% or at least to _Count

  00000	55		 push	 ebp
  00001	8b ec		 mov	 ebp, esp

; 1275 : 		size_type _Capacity = capacity();

  00003	8b 41 08	 mov	 eax, DWORD PTR [ecx+8]
  00006	2b 01		 sub	 eax, DWORD PTR [ecx]
  00008	6a 14		 push	 20			; 00000014H
  0000a	99		 cdq
  0000b	59		 pop	 ecx
  0000c	f7 f9		 idiv	 ecx

; 1276 : 
; 1277 : 		_Capacity = max_size() - _Capacity / 2 < _Capacity
; 1278 : 			? 0 : _Capacity + _Capacity / 2;	// try to grow by 50%

  0000e	ba cc cc cc 0c	 mov	 edx, 214748364		; 0cccccccH
  00013	8b c8		 mov	 ecx, eax
  00015	d1 e9		 shr	 ecx, 1
  00017	2b d1		 sub	 edx, ecx
  00019	3b d0		 cmp	 edx, eax
  0001b	73 04		 jae	 SHORT $LN4@Grow_to
  0001d	33 c0		 xor	 eax, eax
  0001f	eb 02		 jmp	 SHORT $LN5@Grow_to
$LN4@Grow_to:
  00021	03 c1		 add	 eax, ecx
$LN5@Grow_to:

; 1279 : 		if (_Capacity < _Count)

  00023	3b 45 08	 cmp	 eax, DWORD PTR __Count$[ebp]

; 1280 : 			_Capacity = _Count;

  00026	0f 42 45 08	 cmovb	 eax, DWORD PTR __Count$[ebp]

; 1281 : 		return (_Capacity);
; 1282 : 		}

  0002a	5d		 pop	 ebp
  0002b	c2 04 00	 ret	 4
?_Grow_to@?$vector@UBulletInfo@@V?$allocator@UBulletInfo@@@std@@@std@@IBEII@Z ENDP ; std::vector<BulletInfo,std::allocator<BulletInfo> >::_Grow_to
_TEXT	ENDS
PUBLIC	?max_size@?$vector@UBulletSet@ioAliceObjectItem@@V?$allocator@UBulletSet@ioAliceObjectItem@@@std@@@std@@QBEIXZ ; std::vector<ioAliceObjectItem::BulletSet,std::allocator<ioAliceObjectItem::BulletSet> >::max_size
; Function compile flags: /Ogsp
;	COMDAT ?max_size@?$vector@UBulletSet@ioAliceObjectItem@@V?$allocator@UBulletSet@ioAliceObjectItem@@@std@@@std@@QBEIXZ
_TEXT	SEGMENT
?max_size@?$vector@UBulletSet@ioAliceObjectItem@@V?$allocator@UBulletSet@ioAliceObjectItem@@@std@@@std@@QBEIXZ PROC ; std::vector<ioAliceObjectItem::BulletSet,std::allocator<ioAliceObjectItem::BulletSet> >::max_size, COMDAT
; _this$ = ecx

; 884  : 		return (this->_Alval.max_size());

  00000	b8 cc cc cc 0c	 mov	 eax, 214748364		; 0cccccccH

; 885  : 		}

  00005	c3		 ret	 0
?max_size@?$vector@UBulletSet@ioAliceObjectItem@@V?$allocator@UBulletSet@ioAliceObjectItem@@@std@@@std@@QBEIXZ ENDP ; std::vector<ioAliceObjectItem::BulletSet,std::allocator<ioAliceObjectItem::BulletSet> >::max_size
_TEXT	ENDS
PUBLIC	?_Grow_to@?$vector@UBulletSet@ioAliceObjectItem@@V?$allocator@UBulletSet@ioAliceObjectItem@@@std@@@std@@IBEII@Z ; std::vector<ioAliceObjectItem::BulletSet,std::allocator<ioAliceObjectItem::BulletSet> >::_Grow_to
; Function compile flags: /Ogsp
;	COMDAT ?_Grow_to@?$vector@UBulletSet@ioAliceObjectItem@@V?$allocator@UBulletSet@ioAliceObjectItem@@@std@@@std@@IBEII@Z
_TEXT	SEGMENT
__Count$ = 8						; size = 4
?_Grow_to@?$vector@UBulletSet@ioAliceObjectItem@@V?$allocator@UBulletSet@ioAliceObjectItem@@@std@@@std@@IBEII@Z PROC ; std::vector<ioAliceObjectItem::BulletSet,std::allocator<ioAliceObjectItem::BulletSet> >::_Grow_to, COMDAT
; _this$ = ecx

; 1274 : 		{	// grow by 50% or at least to _Count

  00000	55		 push	 ebp
  00001	8b ec		 mov	 ebp, esp

; 1275 : 		size_type _Capacity = capacity();

  00003	8b 41 08	 mov	 eax, DWORD PTR [ecx+8]
  00006	2b 01		 sub	 eax, DWORD PTR [ecx]
  00008	6a 14		 push	 20			; 00000014H
  0000a	99		 cdq
  0000b	59		 pop	 ecx
  0000c	f7 f9		 idiv	 ecx

; 1276 : 
; 1277 : 		_Capacity = max_size() - _Capacity / 2 < _Capacity
; 1278 : 			? 0 : _Capacity + _Capacity / 2;	// try to grow by 50%

  0000e	ba cc cc cc 0c	 mov	 edx, 214748364		; 0cccccccH
  00013	8b c8		 mov	 ecx, eax
  00015	d1 e9		 shr	 ecx, 1
  00017	2b d1		 sub	 edx, ecx
  00019	3b d0		 cmp	 edx, eax
  0001b	73 04		 jae	 SHORT $LN4@Grow_to@2
  0001d	33 c0		 xor	 eax, eax
  0001f	eb 02		 jmp	 SHORT $LN5@Grow_to@2
$LN4@Grow_to@2:
  00021	03 c1		 add	 eax, ecx
$LN5@Grow_to@2:

; 1279 : 		if (_Capacity < _Count)

  00023	3b 45 08	 cmp	 eax, DWORD PTR __Count$[ebp]

; 1280 : 			_Capacity = _Count;

  00026	0f 42 45 08	 cmovb	 eax, DWORD PTR __Count$[ebp]

; 1281 : 		return (_Capacity);
; 1282 : 		}

  0002a	5d		 pop	 ebp
  0002b	c2 04 00	 ret	 4
?_Grow_to@?$vector@UBulletSet@ioAliceObjectItem@@V?$allocator@UBulletSet@ioAliceObjectItem@@@std@@@std@@IBEII@Z ENDP ; std::vector<ioAliceObjectItem::BulletSet,std::allocator<ioAliceObjectItem::BulletSet> >::_Grow_to
_TEXT	ENDS
PUBLIC	?allocate@?$allocator@UBulletSet@ioAliceObjectItem@@@std@@QAEPAUBulletSet@ioAliceObjectItem@@I@Z ; std::allocator<ioAliceObjectItem::BulletSet>::allocate
; Function compile flags: /Ogsp
; File c:\program files (x86)\microsoft visual studio 10.0\vc\include\xmemory
;	COMDAT ?allocate@?$allocator@UBulletSet@ioAliceObjectItem@@@std@@QAEPAUBulletSet@ioAliceObjectItem@@I@Z
_TEXT	SEGMENT
__Count$ = 8						; size = 4
?allocate@?$allocator@UBulletSet@ioAliceObjectItem@@@std@@QAEPAUBulletSet@ioAliceObjectItem@@I@Z PROC ; std::allocator<ioAliceObjectItem::BulletSet>::allocate, COMDAT
; _this$ = ecx

; 186  : 		{	// allocate array of _Count elements

  00000	55		 push	 ebp
  00001	8b ec		 mov	 ebp, esp

; 187  : 		return (_Allocate(_Count, (pointer)0));

  00003	6a 00		 push	 0
  00005	ff 75 08	 push	 DWORD PTR __Count$[ebp]
  00008	e8 00 00 00 00	 call	 ??$_Allocate@UBulletSet@ioAliceObjectItem@@@std@@YAPAUBulletSet@ioAliceObjectItem@@IPAU12@@Z ; std::_Allocate<ioAliceObjectItem::BulletSet>
  0000d	59		 pop	 ecx
  0000e	59		 pop	 ecx

; 188  : 		}

  0000f	5d		 pop	 ebp
  00010	c2 04 00	 ret	 4
?allocate@?$allocator@UBulletSet@ioAliceObjectItem@@@std@@QAEPAUBulletSet@ioAliceObjectItem@@I@Z ENDP ; std::allocator<ioAliceObjectItem::BulletSet>::allocate
_TEXT	ENDS
PUBLIC	?allocate@?$allocator@UBulletInfo@@@std@@QAEPAUBulletInfo@@I@Z ; std::allocator<BulletInfo>::allocate
; Function compile flags: /Ogsp
;	COMDAT ?allocate@?$allocator@UBulletInfo@@@std@@QAEPAUBulletInfo@@I@Z
_TEXT	SEGMENT
__Count$ = 8						; size = 4
?allocate@?$allocator@UBulletInfo@@@std@@QAEPAUBulletInfo@@I@Z PROC ; std::allocator<BulletInfo>::allocate, COMDAT
; _this$ = ecx

; 186  : 		{	// allocate array of _Count elements

  00000	55		 push	 ebp
  00001	8b ec		 mov	 ebp, esp

; 187  : 		return (_Allocate(_Count, (pointer)0));

  00003	6a 00		 push	 0
  00005	ff 75 08	 push	 DWORD PTR __Count$[ebp]
  00008	e8 00 00 00 00	 call	 ??$_Allocate@UBulletInfo@@@std@@YAPAUBulletInfo@@IPAU1@@Z ; std::_Allocate<BulletInfo>
  0000d	59		 pop	 ecx
  0000e	59		 pop	 ecx

; 188  : 		}

  0000f	5d		 pop	 ebp
  00010	c2 04 00	 ret	 4
?allocate@?$allocator@UBulletInfo@@@std@@QAEPAUBulletInfo@@I@Z ENDP ; std::allocator<BulletInfo>::allocate
_TEXT	ENDS
PUBLIC	??$_Cons_val@V?$allocator@UBulletInfo@@@std@@UBulletInfo@@AAU3@@std@@YAXAAV?$allocator@UBulletInfo@@@0@PAUBulletInfo@@AAU2@@Z ; std::_Cons_val<std::allocator<BulletInfo>,BulletInfo,BulletInfo &>
; Function compile flags: /Ogsp
;	COMDAT ??$_Cons_val@V?$allocator@UBulletInfo@@@std@@UBulletInfo@@AAU3@@std@@YAXAAV?$allocator@UBulletInfo@@@0@PAUBulletInfo@@AAU2@@Z
_TEXT	SEGMENT
__Alval$ = 8						; size = 4
__Pdest$ = 12						; size = 4
__Src$ = 16						; size = 4
??$_Cons_val@V?$allocator@UBulletInfo@@@std@@UBulletInfo@@AAU3@@std@@YAXAAV?$allocator@UBulletInfo@@@0@PAUBulletInfo@@AAU2@@Z PROC ; std::_Cons_val<std::allocator<BulletInfo>,BulletInfo,BulletInfo &>, COMDAT

; 279  : 	{	// construct using allocator

  00000	55		 push	 ebp
  00001	8b ec		 mov	 ebp, esp
  00003	57		 push	 edi

; 280  : 	_Alval.construct(_Pdest, _STD forward<_Ty2>(_Src));

  00004	8b 7d 0c	 mov	 edi, DWORD PTR __Pdest$[ebp]
  00007	85 ff		 test	 edi, edi
  00009	74 0a		 je	 SHORT $LN7@Cons_val
  0000b	56		 push	 esi
  0000c	8b 75 10	 mov	 esi, DWORD PTR __Src$[ebp]
  0000f	6a 05		 push	 5
  00011	59		 pop	 ecx
  00012	f3 a5		 rep movsd
  00014	5e		 pop	 esi
$LN7@Cons_val:
  00015	5f		 pop	 edi

; 281  : 	}

  00016	5d		 pop	 ebp
  00017	c3		 ret	 0
??$_Cons_val@V?$allocator@UBulletInfo@@@std@@UBulletInfo@@AAU3@@std@@YAXAAV?$allocator@UBulletInfo@@@0@PAUBulletInfo@@AAU2@@Z ENDP ; std::_Cons_val<std::allocator<BulletInfo>,BulletInfo,BulletInfo &>
_TEXT	ENDS
PUBLIC	?construct@?$allocator@UBulletInfo@@@std@@QAEXPAUBulletInfo@@ABU3@@Z ; std::allocator<BulletInfo>::construct
; Function compile flags: /Ogsp
;	COMDAT ?construct@?$allocator@UBulletInfo@@@std@@QAEXPAUBulletInfo@@ABU3@@Z
_TEXT	SEGMENT
__Ptr$ = 8						; size = 4
__Val$ = 12						; size = 4
?construct@?$allocator@UBulletInfo@@@std@@QAEXPAUBulletInfo@@ABU3@@Z PROC ; std::allocator<BulletInfo>::construct, COMDAT
; _this$ = ecx

; 196  : 		{	// construct object at _Ptr with value _Val

  00000	55		 push	 ebp
  00001	8b ec		 mov	 ebp, esp
  00003	57		 push	 edi

; 197  : 		_Construct(_Ptr, _Val);

  00004	8b 7d 08	 mov	 edi, DWORD PTR __Ptr$[ebp]
  00007	85 ff		 test	 edi, edi
  00009	74 0a		 je	 SHORT $LN5@construct@2
  0000b	56		 push	 esi
  0000c	8b 75 0c	 mov	 esi, DWORD PTR __Val$[ebp]
  0000f	6a 05		 push	 5
  00011	59		 pop	 ecx
  00012	f3 a5		 rep movsd
  00014	5e		 pop	 esi
$LN5@construct@2:
  00015	5f		 pop	 edi

; 198  : 		}

  00016	5d		 pop	 ebp
  00017	c2 08 00	 ret	 8
?construct@?$allocator@UBulletInfo@@@std@@QAEXPAUBulletInfo@@ABU3@@Z ENDP ; std::allocator<BulletInfo>::construct
_TEXT	ENDS
PUBLIC	?begin@?$vector@UBulletInfo@@V?$allocator@UBulletInfo@@@std@@@std@@QBE?AV?$_Vector_const_iterator@V?$_Vector_val@UBulletInfo@@V?$allocator@UBulletInfo@@@std@@@std@@@2@XZ ; std::vector<BulletInfo,std::allocator<BulletInfo> >::begin
; Function compile flags: /Ogsp
; File c:\program files (x86)\microsoft visual studio 10.0\vc\include\vector
;	COMDAT ?begin@?$vector@UBulletInfo@@V?$allocator@UBulletInfo@@@std@@@std@@QBE?AV?$_Vector_const_iterator@V?$_Vector_val@UBulletInfo@@V?$allocator@UBulletInfo@@@std@@@std@@@2@XZ
_TEXT	SEGMENT
___$ReturnUdt$ = 8					; size = 4
?begin@?$vector@UBulletInfo@@V?$allocator@UBulletInfo@@@std@@@std@@QBE?AV?$_Vector_const_iterator@V?$_Vector_val@UBulletInfo@@V?$allocator@UBulletInfo@@@std@@@std@@@2@XZ PROC ; std::vector<BulletInfo,std::allocator<BulletInfo> >::begin, COMDAT
; _this$ = ecx

; 786  : 		{	// return iterator for beginning of nonmutable sequence

  00000	55		 push	 ebp
  00001	8b ec		 mov	 ebp, esp

; 787  : 		return (const_iterator(this->_Myfirst, this));

  00003	8b 09		 mov	 ecx, DWORD PTR [ecx]
  00005	8b 45 08	 mov	 eax, DWORD PTR ___$ReturnUdt$[ebp]
  00008	89 08		 mov	 DWORD PTR [eax], ecx

; 788  : 		}

  0000a	5d		 pop	 ebp
  0000b	c2 04 00	 ret	 4
?begin@?$vector@UBulletInfo@@V?$allocator@UBulletInfo@@@std@@@std@@QBE?AV?$_Vector_const_iterator@V?$_Vector_val@UBulletInfo@@V?$allocator@UBulletInfo@@@std@@@std@@@2@XZ ENDP ; std::vector<BulletInfo,std::allocator<BulletInfo> >::begin
_TEXT	ENDS
PUBLIC	?end@?$vector@UBulletInfo@@V?$allocator@UBulletInfo@@@std@@@std@@QBE?AV?$_Vector_const_iterator@V?$_Vector_val@UBulletInfo@@V?$allocator@UBulletInfo@@@std@@@std@@@2@XZ ; std::vector<BulletInfo,std::allocator<BulletInfo> >::end
; Function compile flags: /Ogsp
;	COMDAT ?end@?$vector@UBulletInfo@@V?$allocator@UBulletInfo@@@std@@@std@@QBE?AV?$_Vector_const_iterator@V?$_Vector_val@UBulletInfo@@V?$allocator@UBulletInfo@@@std@@@std@@@2@XZ
_TEXT	SEGMENT
___$ReturnUdt$ = 8					; size = 4
?end@?$vector@UBulletInfo@@V?$allocator@UBulletInfo@@@std@@@std@@QBE?AV?$_Vector_const_iterator@V?$_Vector_val@UBulletInfo@@V?$allocator@UBulletInfo@@@std@@@std@@@2@XZ PROC ; std::vector<BulletInfo,std::allocator<BulletInfo> >::end, COMDAT
; _this$ = ecx

; 796  : 		{	// return iterator for end of nonmutable sequence

  00000	55		 push	 ebp
  00001	8b ec		 mov	 ebp, esp

; 797  : 		return (const_iterator(this->_Mylast, this));

  00003	8b 49 04	 mov	 ecx, DWORD PTR [ecx+4]
  00006	8b 45 08	 mov	 eax, DWORD PTR ___$ReturnUdt$[ebp]
  00009	89 08		 mov	 DWORD PTR [eax], ecx

; 798  : 		}

  0000b	5d		 pop	 ebp
  0000c	c2 04 00	 ret	 4
?end@?$vector@UBulletInfo@@V?$allocator@UBulletInfo@@@std@@@std@@QBE?AV?$_Vector_const_iterator@V?$_Vector_val@UBulletInfo@@V?$allocator@UBulletInfo@@@std@@@std@@@2@XZ ENDP ; std::vector<BulletInfo,std::allocator<BulletInfo> >::end
_TEXT	ENDS
PUBLIC	?_Buy@?$vector@UBulletInfo@@V?$allocator@UBulletInfo@@@std@@@std@@IAE_NI@Z ; std::vector<BulletInfo,std::allocator<BulletInfo> >::_Buy
; Function compile flags: /Ogsp
;	COMDAT ?_Buy@?$vector@UBulletInfo@@V?$allocator@UBulletInfo@@@std@@@std@@IAE_NI@Z
_TEXT	SEGMENT
__Capacity$ = 8						; size = 4
?_Buy@?$vector@UBulletInfo@@V?$allocator@UBulletInfo@@@std@@@std@@IAE_NI@Z PROC ; std::vector<BulletInfo,std::allocator<BulletInfo> >::_Buy, COMDAT
; _this$ = ecx

; 1250 : 		{	// allocate array with _Capacity elements

  00000	55		 push	 ebp
  00001	8b ec		 mov	 ebp, esp
  00003	56		 push	 esi

; 1251 : 		this->_Myfirst = 0;

  00004	33 c0		 xor	 eax, eax
  00006	57		 push	 edi

; 1252 : 		this->_Mylast = 0;
; 1253 : 		this->_Myend = 0;
; 1254 : 
; 1255 : 		if (_Capacity == 0)

  00007	8b 7d 08	 mov	 edi, DWORD PTR __Capacity$[ebp]
  0000a	8b f1		 mov	 esi, ecx
  0000c	89 06		 mov	 DWORD PTR [esi], eax
  0000e	89 46 04	 mov	 DWORD PTR [esi+4], eax
  00011	89 46 08	 mov	 DWORD PTR [esi+8], eax
  00014	3b f8		 cmp	 edi, eax
  00016	75 04		 jne	 SHORT $LN4@Buy

; 1256 : 			return (false);

  00018	32 c0		 xor	 al, al
  0001a	eb 2b		 jmp	 SHORT $LN5@Buy
$LN4@Buy:

; 1257 : 		else if (max_size() < _Capacity)

  0001c	81 ff cc cc cc
	0c		 cmp	 edi, 214748364		; 0cccccccH
  00022	76 0b		 jbe	 SHORT $LN2@Buy

; 1258 : 			_Xlen();	// result too long

  00024	68 00 00 00 00	 push	 OFFSET ??_C@_0BD@OLBABOEK@vector?$DMT?$DO?5too?5long?$AA@
  00029	ff 15 00 00 00
	00		 call	 DWORD PTR __imp_?_Xlength_error@std@@YAXPBD@Z
$LN19@Buy:
$LN2@Buy:

; 1259 : 		else
; 1260 : 			{	// nonempty array, allocate storage
; 1261 : 			this->_Myfirst = this->_Alval.allocate(_Capacity);

  0002f	50		 push	 eax
  00030	57		 push	 edi
  00031	e8 00 00 00 00	 call	 ??$_Allocate@UBulletInfo@@@std@@YAPAUBulletInfo@@IPAU1@@Z ; std::_Allocate<BulletInfo>

; 1262 : 			this->_Mylast = this->_Myfirst;
; 1263 : 			this->_Myend = this->_Myfirst + _Capacity;

  00036	6b ff 14	 imul	 edi, 20			; 00000014H
  00039	03 f8		 add	 edi, eax
  0003b	59		 pop	 ecx
  0003c	89 06		 mov	 DWORD PTR [esi], eax
  0003e	89 46 04	 mov	 DWORD PTR [esi+4], eax
  00041	59		 pop	 ecx
  00042	89 7e 08	 mov	 DWORD PTR [esi+8], edi

; 1264 : 			}
; 1265 : 		return (true);

  00045	b0 01		 mov	 al, 1
$LN5@Buy:
  00047	5f		 pop	 edi
  00048	5e		 pop	 esi

; 1266 : 		}

  00049	5d		 pop	 ebp
  0004a	c2 04 00	 ret	 4
$LN18@Buy:
?_Buy@?$vector@UBulletInfo@@V?$allocator@UBulletInfo@@@std@@@std@@IAE_NI@Z ENDP ; std::vector<BulletInfo,std::allocator<BulletInfo> >::_Buy
_TEXT	ENDS
PUBLIC	?destroy@?$allocator@UBulletInfo@@@std@@QAEXPAUBulletInfo@@@Z ; std::allocator<BulletInfo>::destroy
; Function compile flags: /Ogsp
; File c:\program files (x86)\microsoft visual studio 10.0\vc\include\xmemory
;	COMDAT ?destroy@?$allocator@UBulletInfo@@@std@@QAEXPAUBulletInfo@@@Z
_TEXT	SEGMENT
__Ptr$ = 8						; size = 4
?destroy@?$allocator@UBulletInfo@@@std@@QAEXPAUBulletInfo@@@Z PROC ; std::allocator<BulletInfo>::destroy, COMDAT
; _this$ = ecx

; 213  : 		_Destroy(_Ptr);
; 214  : 		}

  00000	c2 04 00	 ret	 4
?destroy@?$allocator@UBulletInfo@@@std@@QAEXPAUBulletInfo@@@Z ENDP ; std::allocator<BulletInfo>::destroy
_TEXT	ENDS
PUBLIC	??8?$_Vector_const_iterator@V?$_Vector_val@UBulletSet@ioAliceObjectItem@@V?$allocator@UBulletSet@ioAliceObjectItem@@@std@@@std@@@std@@QBE_NABV01@@Z ; std::_Vector_const_iterator<std::_Vector_val<ioAliceObjectItem::BulletSet,std::allocator<ioAliceObjectItem::BulletSet> > >::operator==
; Function compile flags: /Ogsp
; File c:\program files (x86)\microsoft visual studio 10.0\vc\include\vector
;	COMDAT ??8?$_Vector_const_iterator@V?$_Vector_val@UBulletSet@ioAliceObjectItem@@V?$allocator@UBulletSet@ioAliceObjectItem@@@std@@@std@@@std@@QBE_NABV01@@Z
_TEXT	SEGMENT
__Right$ = 8						; size = 4
??8?$_Vector_const_iterator@V?$_Vector_val@UBulletSet@ioAliceObjectItem@@V?$allocator@UBulletSet@ioAliceObjectItem@@@std@@@std@@@std@@QBE_NABV01@@Z PROC ; std::_Vector_const_iterator<std::_Vector_val<ioAliceObjectItem::BulletSet,std::allocator<ioAliceObjectItem::BulletSet> > >::operator==, COMDAT
; _this$ = ecx

; 201  : 		{	// test for iterator equality

  00000	55		 push	 ebp
  00001	8b ec		 mov	 ebp, esp

; 202  : 		_Compat(_Right);
; 203  : 		return (this->_Ptr == _Right._Ptr);

  00003	8b 01		 mov	 eax, DWORD PTR [ecx]
  00005	8b 4d 08	 mov	 ecx, DWORD PTR __Right$[ebp]
  00008	2b 01		 sub	 eax, DWORD PTR [ecx]
  0000a	f7 d8		 neg	 eax
  0000c	1b c0		 sbb	 eax, eax
  0000e	40		 inc	 eax

; 204  : 		}

  0000f	5d		 pop	 ebp
  00010	c2 04 00	 ret	 4
??8?$_Vector_const_iterator@V?$_Vector_val@UBulletSet@ioAliceObjectItem@@V?$allocator@UBulletSet@ioAliceObjectItem@@@std@@@std@@@std@@QBE_NABV01@@Z ENDP ; std::_Vector_const_iterator<std::_Vector_val<ioAliceObjectItem::BulletSet,std::allocator<ioAliceObjectItem::BulletSet> > >::operator==
_TEXT	ENDS
PUBLIC	?construct@?$allocator@UBulletInfo@@@std@@QAEXPAUBulletInfo@@$$QAU3@@Z ; std::allocator<BulletInfo>::construct
; Function compile flags: /Ogsp
; File c:\program files (x86)\microsoft visual studio 10.0\vc\include\xmemory
;	COMDAT ?construct@?$allocator@UBulletInfo@@@std@@QAEXPAUBulletInfo@@$$QAU3@@Z
_TEXT	SEGMENT
__Ptr$ = 8						; size = 4
__Val$ = 12						; size = 4
?construct@?$allocator@UBulletInfo@@@std@@QAEXPAUBulletInfo@@$$QAU3@@Z PROC ; std::allocator<BulletInfo>::construct, COMDAT
; _this$ = ecx

; 201  : 		{	// construct object at _Ptr with value _Val

  00000	55		 push	 ebp
  00001	8b ec		 mov	 ebp, esp
  00003	57		 push	 edi

; 202  : 		::new ((void _FARQ *)_Ptr) _Ty(_STD forward<_Ty>(_Val));

  00004	8b 7d 08	 mov	 edi, DWORD PTR __Ptr$[ebp]
  00007	85 ff		 test	 edi, edi
  00009	74 0a		 je	 SHORT $LN3@construct@3
  0000b	56		 push	 esi
  0000c	8b 75 0c	 mov	 esi, DWORD PTR __Val$[ebp]
  0000f	6a 05		 push	 5
  00011	59		 pop	 ecx
  00012	f3 a5		 rep movsd
  00014	5e		 pop	 esi
$LN3@construct@3:
  00015	5f		 pop	 edi

; 203  : 		}

  00016	5d		 pop	 ebp
  00017	c2 08 00	 ret	 8
?construct@?$allocator@UBulletInfo@@@std@@QAEXPAUBulletInfo@@$$QAU3@@Z ENDP ; std::allocator<BulletInfo>::construct
_TEXT	ENDS
PUBLIC	??8?$_Vector_const_iterator@V?$_Vector_val@UBulletInfo@@V?$allocator@UBulletInfo@@@std@@@std@@@std@@QBE_NABV01@@Z ; std::_Vector_const_iterator<std::_Vector_val<BulletInfo,std::allocator<BulletInfo> > >::operator==
; Function compile flags: /Ogsp
; File c:\program files (x86)\microsoft visual studio 10.0\vc\include\vector
;	COMDAT ??8?$_Vector_const_iterator@V?$_Vector_val@UBulletInfo@@V?$allocator@UBulletInfo@@@std@@@std@@@std@@QBE_NABV01@@Z
_TEXT	SEGMENT
__Right$ = 8						; size = 4
??8?$_Vector_const_iterator@V?$_Vector_val@UBulletInfo@@V?$allocator@UBulletInfo@@@std@@@std@@@std@@QBE_NABV01@@Z PROC ; std::_Vector_const_iterator<std::_Vector_val<BulletInfo,std::allocator<BulletInfo> > >::operator==, COMDAT
; _this$ = ecx

; 201  : 		{	// test for iterator equality

  00000	55		 push	 ebp
  00001	8b ec		 mov	 ebp, esp

; 202  : 		_Compat(_Right);
; 203  : 		return (this->_Ptr == _Right._Ptr);

  00003	8b 01		 mov	 eax, DWORD PTR [ecx]
  00005	8b 4d 08	 mov	 ecx, DWORD PTR __Right$[ebp]
  00008	2b 01		 sub	 eax, DWORD PTR [ecx]
  0000a	f7 d8		 neg	 eax
  0000c	1b c0		 sbb	 eax, eax
  0000e	40		 inc	 eax

; 204  : 		}

  0000f	5d		 pop	 ebp
  00010	c2 04 00	 ret	 4
??8?$_Vector_const_iterator@V?$_Vector_val@UBulletInfo@@V?$allocator@UBulletInfo@@@std@@@std@@@std@@QBE_NABV01@@Z ENDP ; std::_Vector_const_iterator<std::_Vector_val<BulletInfo,std::allocator<BulletInfo> > >::operator==
_TEXT	ENDS
PUBLIC	?CheckReleaseProcess@ioAliceObjectItem@@UAE_NPAVioPlayStage@@PAVioBaseChar@@@Z ; ioAliceObjectItem::CheckReleaseProcess
EXTRN	?CheckReleaseProcess@ioObjectItem@@UAE_NPAVioPlayStage@@PAVioBaseChar@@@Z:PROC ; ioObjectItem::CheckReleaseProcess
; Function compile flags: /Ogsp
; File d:\lost saga for developer\youtube\tutorial\source\src\lsclient\ioaliceobjectitem.cpp
;	COMDAT ?CheckReleaseProcess@ioAliceObjectItem@@UAE_NPAVioPlayStage@@PAVioBaseChar@@@Z
_TEXT	SEGMENT
_pStage$ = 8						; size = 4
_pOwner$ = 12						; size = 4
?CheckReleaseProcess@ioAliceObjectItem@@UAE_NPAVioPlayStage@@PAVioBaseChar@@@Z PROC ; ioAliceObjectItem::CheckReleaseProcess, COMDAT
; _this$ = ecx

; 170  : {

  00000	55		 push	 ebp
  00001	8b ec		 mov	 ebp, esp
  00003	56		 push	 esi

; 171  : 	bool bRet = ioObjectItem::CheckReleaseProcess( pStage, pOwner );

  00004	ff 75 0c	 push	 DWORD PTR _pOwner$[ebp]
  00007	8b f1		 mov	 esi, ecx
  00009	ff 75 08	 push	 DWORD PTR _pStage$[ebp]
  0000c	e8 00 00 00 00	 call	 ?CheckReleaseProcess@ioObjectItem@@UAE_NPAVioPlayStage@@PAVioBaseChar@@@Z ; ioObjectItem::CheckReleaseProcess

; 172  : 	if( bRet )

  00011	84 c0		 test	 al, al
  00013	74 04		 je	 SHORT $LN1@CheckRelea@2

; 173  : 		return true;

  00015	b0 01		 mov	 al, 1
  00017	eb 0f		 jmp	 SHORT $LN2@CheckRelea@2
$LN1@CheckRelea@2:

; 174  : 
; 175  : 	return CheckReleaseAliceGun( pStage, pOwner );

  00019	6a 01		 push	 1
  0001b	ff 75 0c	 push	 DWORD PTR _pOwner$[ebp]
  0001e	8b ce		 mov	 ecx, esi
  00020	ff 75 08	 push	 DWORD PTR _pStage$[ebp]
  00023	e8 00 00 00 00	 call	 ?CheckReleaseAliceGun@ioAliceObjectItem@@QAE_NPAVioPlayStage@@PAVioBaseChar@@_N@Z ; ioAliceObjectItem::CheckReleaseAliceGun
$LN2@CheckRelea@2:
  00028	5e		 pop	 esi

; 176  : }

  00029	5d		 pop	 ebp
  0002a	c2 08 00	 ret	 8
?CheckReleaseProcess@ioAliceObjectItem@@UAE_NPAVioPlayStage@@PAVioBaseChar@@@Z ENDP ; ioAliceObjectItem::CheckReleaseProcess
_TEXT	ENDS
PUBLIC	??0?$vector@UBulletInfo@@V?$allocator@UBulletInfo@@@std@@@std@@QAE@XZ ; std::vector<BulletInfo,std::allocator<BulletInfo> >::vector<BulletInfo,std::allocator<BulletInfo> >
; Function compile flags: /Ogsp
; File c:\program files (x86)\microsoft visual studio 10.0\vc\include\vector
;	COMDAT ??0?$vector@UBulletInfo@@V?$allocator@UBulletInfo@@@std@@@std@@QAE@XZ
_TEXT	SEGMENT
??0?$vector@UBulletInfo@@V?$allocator@UBulletInfo@@@std@@@std@@QAE@XZ PROC ; std::vector<BulletInfo,std::allocator<BulletInfo> >::vector<BulletInfo,std::allocator<BulletInfo> >, COMDAT
; _this$ = ecx

; 507  : 		{	// construct empty vector

  00000	8b c1		 mov	 eax, ecx
  00002	33 c9		 xor	 ecx, ecx
  00004	89 08		 mov	 DWORD PTR [eax], ecx
  00006	89 48 04	 mov	 DWORD PTR [eax+4], ecx
  00009	89 48 08	 mov	 DWORD PTR [eax+8], ecx

; 508  : 		}

  0000c	c3		 ret	 0
??0?$vector@UBulletInfo@@V?$allocator@UBulletInfo@@@std@@@std@@QAE@XZ ENDP ; std::vector<BulletInfo,std::allocator<BulletInfo> >::vector<BulletInfo,std::allocator<BulletInfo> >
_TEXT	ENDS
PUBLIC	??0?$vector@UBulletSet@ioAliceObjectItem@@V?$allocator@UBulletSet@ioAliceObjectItem@@@std@@@std@@QAE@XZ ; std::vector<ioAliceObjectItem::BulletSet,std::allocator<ioAliceObjectItem::BulletSet> >::vector<ioAliceObjectItem::BulletSet,std::allocator<ioAliceObjectItem::BulletSet> >
; Function compile flags: /Ogsp
;	COMDAT ??0?$vector@UBulletSet@ioAliceObjectItem@@V?$allocator@UBulletSet@ioAliceObjectItem@@@std@@@std@@QAE@XZ
_TEXT	SEGMENT
??0?$vector@UBulletSet@ioAliceObjectItem@@V?$allocator@UBulletSet@ioAliceObjectItem@@@std@@@std@@QAE@XZ PROC ; std::vector<ioAliceObjectItem::BulletSet,std::allocator<ioAliceObjectItem::BulletSet> >::vector<ioAliceObjectItem::BulletSet,std::allocator<ioAliceObjectItem::BulletSet> >, COMDAT
; _this$ = ecx

; 507  : 		{	// construct empty vector

  00000	8b c1		 mov	 eax, ecx
  00002	33 c9		 xor	 ecx, ecx
  00004	89 08		 mov	 DWORD PTR [eax], ecx
  00006	89 48 04	 mov	 DWORD PTR [eax+4], ecx
  00009	89 48 08	 mov	 DWORD PTR [eax+8], ecx

; 508  : 		}

  0000c	c3		 ret	 0
??0?$vector@UBulletSet@ioAliceObjectItem@@V?$allocator@UBulletSet@ioAliceObjectItem@@@std@@@std@@QAE@XZ ENDP ; std::vector<ioAliceObjectItem::BulletSet,std::allocator<ioAliceObjectItem::BulletSet> >::vector<ioAliceObjectItem::BulletSet,std::allocator<ioAliceObjectItem::BulletSet> >
_TEXT	ENDS
PUBLIC	?_Buy@?$vector@UBulletSet@ioAliceObjectItem@@V?$allocator@UBulletSet@ioAliceObjectItem@@@std@@@std@@IAE_NI@Z ; std::vector<ioAliceObjectItem::BulletSet,std::allocator<ioAliceObjectItem::BulletSet> >::_Buy
; Function compile flags: /Ogsp
;	COMDAT ?_Buy@?$vector@UBulletSet@ioAliceObjectItem@@V?$allocator@UBulletSet@ioAliceObjectItem@@@std@@@std@@IAE_NI@Z
_TEXT	SEGMENT
__Capacity$ = 8						; size = 4
?_Buy@?$vector@UBulletSet@ioAliceObjectItem@@V?$allocator@UBulletSet@ioAliceObjectItem@@@std@@@std@@IAE_NI@Z PROC ; std::vector<ioAliceObjectItem::BulletSet,std::allocator<ioAliceObjectItem::BulletSet> >::_Buy, COMDAT
; _this$ = ecx

; 1250 : 		{	// allocate array with _Capacity elements

  00000	55		 push	 ebp
  00001	8b ec		 mov	 ebp, esp
  00003	56		 push	 esi

; 1251 : 		this->_Myfirst = 0;

  00004	33 c0		 xor	 eax, eax
  00006	57		 push	 edi

; 1252 : 		this->_Mylast = 0;
; 1253 : 		this->_Myend = 0;
; 1254 : 
; 1255 : 		if (_Capacity == 0)

  00007	8b 7d 08	 mov	 edi, DWORD PTR __Capacity$[ebp]
  0000a	8b f1		 mov	 esi, ecx
  0000c	89 06		 mov	 DWORD PTR [esi], eax
  0000e	89 46 04	 mov	 DWORD PTR [esi+4], eax
  00011	89 46 08	 mov	 DWORD PTR [esi+8], eax
  00014	3b f8		 cmp	 edi, eax
  00016	75 04		 jne	 SHORT $LN4@Buy@2

; 1256 : 			return (false);

  00018	32 c0		 xor	 al, al
  0001a	eb 2b		 jmp	 SHORT $LN5@Buy@2
$LN4@Buy@2:

; 1257 : 		else if (max_size() < _Capacity)

  0001c	81 ff cc cc cc
	0c		 cmp	 edi, 214748364		; 0cccccccH
  00022	76 0b		 jbe	 SHORT $LN2@Buy@2

; 1258 : 			_Xlen();	// result too long

  00024	68 00 00 00 00	 push	 OFFSET ??_C@_0BD@OLBABOEK@vector?$DMT?$DO?5too?5long?$AA@
  00029	ff 15 00 00 00
	00		 call	 DWORD PTR __imp_?_Xlength_error@std@@YAXPBD@Z
$LN19@Buy@2:
$LN2@Buy@2:

; 1259 : 		else
; 1260 : 			{	// nonempty array, allocate storage
; 1261 : 			this->_Myfirst = this->_Alval.allocate(_Capacity);

  0002f	50		 push	 eax
  00030	57		 push	 edi
  00031	e8 00 00 00 00	 call	 ??$_Allocate@UBulletSet@ioAliceObjectItem@@@std@@YAPAUBulletSet@ioAliceObjectItem@@IPAU12@@Z ; std::_Allocate<ioAliceObjectItem::BulletSet>

; 1262 : 			this->_Mylast = this->_Myfirst;
; 1263 : 			this->_Myend = this->_Myfirst + _Capacity;

  00036	6b ff 14	 imul	 edi, 20			; 00000014H
  00039	03 f8		 add	 edi, eax
  0003b	59		 pop	 ecx
  0003c	89 06		 mov	 DWORD PTR [esi], eax
  0003e	89 46 04	 mov	 DWORD PTR [esi+4], eax
  00041	59		 pop	 ecx
  00042	89 7e 08	 mov	 DWORD PTR [esi+8], edi

; 1264 : 			}
; 1265 : 		return (true);

  00045	b0 01		 mov	 al, 1
$LN5@Buy@2:
  00047	5f		 pop	 edi
  00048	5e		 pop	 esi

; 1266 : 		}

  00049	5d		 pop	 ebp
  0004a	c2 04 00	 ret	 4
$LN18@Buy@2:
?_Buy@?$vector@UBulletSet@ioAliceObjectItem@@V?$allocator@UBulletSet@ioAliceObjectItem@@@std@@@std@@IAE_NI@Z ENDP ; std::vector<ioAliceObjectItem::BulletSet,std::allocator<ioAliceObjectItem::BulletSet> >::_Buy
_TEXT	ENDS
PUBLIC	??$_Cons_val@V?$allocator@UBulletInfo@@@std@@UBulletInfo@@ABU3@@std@@YAXAAV?$allocator@UBulletInfo@@@0@PAUBulletInfo@@ABU2@@Z ; std::_Cons_val<std::allocator<BulletInfo>,BulletInfo,BulletInfo const &>
; Function compile flags: /Ogsp
; File c:\program files (x86)\microsoft visual studio 10.0\vc\include\xmemory
;	COMDAT ??$_Cons_val@V?$allocator@UBulletInfo@@@std@@UBulletInfo@@ABU3@@std@@YAXAAV?$allocator@UBulletInfo@@@0@PAUBulletInfo@@ABU2@@Z
_TEXT	SEGMENT
__Alval$ = 8						; size = 4
__Pdest$ = 12						; size = 4
__Src$ = 16						; size = 4
??$_Cons_val@V?$allocator@UBulletInfo@@@std@@UBulletInfo@@ABU3@@std@@YAXAAV?$allocator@UBulletInfo@@@0@PAUBulletInfo@@ABU2@@Z PROC ; std::_Cons_val<std::allocator<BulletInfo>,BulletInfo,BulletInfo const &>, COMDAT

; 279  : 	{	// construct using allocator

  00000	55		 push	 ebp
  00001	8b ec		 mov	 ebp, esp
  00003	57		 push	 edi

; 280  : 	_Alval.construct(_Pdest, _STD forward<_Ty2>(_Src));

  00004	8b 7d 0c	 mov	 edi, DWORD PTR __Pdest$[ebp]
  00007	85 ff		 test	 edi, edi
  00009	74 0a		 je	 SHORT $LN9@Cons_val@2
  0000b	56		 push	 esi
  0000c	8b 75 10	 mov	 esi, DWORD PTR __Src$[ebp]
  0000f	6a 05		 push	 5
  00011	59		 pop	 ecx
  00012	f3 a5		 rep movsd
  00014	5e		 pop	 esi
$LN9@Cons_val@2:
  00015	5f		 pop	 edi

; 281  : 	}

  00016	5d		 pop	 ebp
  00017	c3		 ret	 0
??$_Cons_val@V?$allocator@UBulletInfo@@@std@@UBulletInfo@@ABU3@@std@@YAXAAV?$allocator@UBulletInfo@@@0@PAUBulletInfo@@ABU2@@Z ENDP ; std::_Cons_val<std::allocator<BulletInfo>,BulletInfo,BulletInfo const &>
_TEXT	ENDS
PUBLIC	??$_Dest_val@V?$allocator@UBulletInfo@@@std@@UBulletInfo@@@std@@YAXAAV?$allocator@UBulletInfo@@@0@PAUBulletInfo@@@Z ; std::_Dest_val<std::allocator<BulletInfo>,BulletInfo>
; Function compile flags: /Ogsp
;	COMDAT ??$_Dest_val@V?$allocator@UBulletInfo@@@std@@UBulletInfo@@@std@@YAXAAV?$allocator@UBulletInfo@@@0@PAUBulletInfo@@@Z
_TEXT	SEGMENT
__Alval$ = 8						; size = 4
__Pdest$ = 12						; size = 4
??$_Dest_val@V?$allocator@UBulletInfo@@@std@@UBulletInfo@@@std@@YAXAAV?$allocator@UBulletInfo@@@0@PAUBulletInfo@@@Z PROC ; std::_Dest_val<std::allocator<BulletInfo>,BulletInfo>, COMDAT

; 287  : 	_Alval.destroy(_Pdest);
; 288  : 	}

  00000	c3		 ret	 0
??$_Dest_val@V?$allocator@UBulletInfo@@@std@@UBulletInfo@@@std@@YAXAAV?$allocator@UBulletInfo@@@0@PAUBulletInfo@@@Z ENDP ; std::_Dest_val<std::allocator<BulletInfo>,BulletInfo>
_TEXT	ENDS
PUBLIC	??9?$_Vector_const_iterator@V?$_Vector_val@UBulletSet@ioAliceObjectItem@@V?$allocator@UBulletSet@ioAliceObjectItem@@@std@@@std@@@std@@QBE_NABV01@@Z ; std::_Vector_const_iterator<std::_Vector_val<ioAliceObjectItem::BulletSet,std::allocator<ioAliceObjectItem::BulletSet> > >::operator!=
; Function compile flags: /Ogsp
; File c:\program files (x86)\microsoft visual studio 10.0\vc\include\vector
;	COMDAT ??9?$_Vector_const_iterator@V?$_Vector_val@UBulletSet@ioAliceObjectItem@@V?$allocator@UBulletSet@ioAliceObjectItem@@@std@@@std@@@std@@QBE_NABV01@@Z
_TEXT	SEGMENT
__Right$ = 8						; size = 4
??9?$_Vector_const_iterator@V?$_Vector_val@UBulletSet@ioAliceObjectItem@@V?$allocator@UBulletSet@ioAliceObjectItem@@@std@@@std@@@std@@QBE_NABV01@@Z PROC ; std::_Vector_const_iterator<std::_Vector_val<ioAliceObjectItem::BulletSet,std::allocator<ioAliceObjectItem::BulletSet> > >::operator!=, COMDAT
; _this$ = ecx

; 207  : 		{	// test for iterator inequality

  00000	55		 push	 ebp
  00001	8b ec		 mov	 ebp, esp

; 208  : 		return (!(*this == _Right));

  00003	8b 01		 mov	 eax, DWORD PTR [ecx]
  00005	8b 55 08	 mov	 edx, DWORD PTR __Right$[ebp]
  00008	33 c9		 xor	 ecx, ecx
  0000a	3b 02		 cmp	 eax, DWORD PTR [edx]
  0000c	0f 95 c0	 setne	 al

; 209  : 		}

  0000f	5d		 pop	 ebp
  00010	c2 04 00	 ret	 4
??9?$_Vector_const_iterator@V?$_Vector_val@UBulletSet@ioAliceObjectItem@@V?$allocator@UBulletSet@ioAliceObjectItem@@@std@@@std@@@std@@QBE_NABV01@@Z ENDP ; std::_Vector_const_iterator<std::_Vector_val<ioAliceObjectItem::BulletSet,std::allocator<ioAliceObjectItem::BulletSet> > >::operator!=
_TEXT	ENDS
PUBLIC	??$_Cons_val@V?$allocator@UBulletInfo@@@std@@UBulletInfo@@U3@@std@@YAXAAV?$allocator@UBulletInfo@@@0@PAUBulletInfo@@$$QAU2@@Z ; std::_Cons_val<std::allocator<BulletInfo>,BulletInfo,BulletInfo>
; Function compile flags: /Ogsp
; File c:\program files (x86)\microsoft visual studio 10.0\vc\include\xmemory
;	COMDAT ??$_Cons_val@V?$allocator@UBulletInfo@@@std@@UBulletInfo@@U3@@std@@YAXAAV?$allocator@UBulletInfo@@@0@PAUBulletInfo@@$$QAU2@@Z
_TEXT	SEGMENT
__Alval$ = 8						; size = 4
__Pdest$ = 12						; size = 4
__Src$ = 16						; size = 4
??$_Cons_val@V?$allocator@UBulletInfo@@@std@@UBulletInfo@@U3@@std@@YAXAAV?$allocator@UBulletInfo@@@0@PAUBulletInfo@@$$QAU2@@Z PROC ; std::_Cons_val<std::allocator<BulletInfo>,BulletInfo,BulletInfo>, COMDAT

; 279  : 	{	// construct using allocator

  00000	55		 push	 ebp
  00001	8b ec		 mov	 ebp, esp
  00003	57		 push	 edi

; 280  : 	_Alval.construct(_Pdest, _STD forward<_Ty2>(_Src));

  00004	8b 7d 0c	 mov	 edi, DWORD PTR __Pdest$[ebp]
  00007	85 ff		 test	 edi, edi
  00009	74 0a		 je	 SHORT $LN7@Cons_val@3
  0000b	56		 push	 esi
  0000c	8b 75 10	 mov	 esi, DWORD PTR __Src$[ebp]
  0000f	6a 05		 push	 5
  00011	59		 pop	 ecx
  00012	f3 a5		 rep movsd
  00014	5e		 pop	 esi
$LN7@Cons_val@3:
  00015	5f		 pop	 edi

; 281  : 	}

  00016	5d		 pop	 ebp
  00017	c3		 ret	 0
??$_Cons_val@V?$allocator@UBulletInfo@@@std@@UBulletInfo@@U3@@std@@YAXAAV?$allocator@UBulletInfo@@@0@PAUBulletInfo@@$$QAU2@@Z ENDP ; std::_Cons_val<std::allocator<BulletInfo>,BulletInfo,BulletInfo>
_TEXT	ENDS
PUBLIC	??9?$_Vector_const_iterator@V?$_Vector_val@UBulletInfo@@V?$allocator@UBulletInfo@@@std@@@std@@@std@@QBE_NABV01@@Z ; std::_Vector_const_iterator<std::_Vector_val<BulletInfo,std::allocator<BulletInfo> > >::operator!=
; Function compile flags: /Ogsp
; File c:\program files (x86)\microsoft visual studio 10.0\vc\include\vector
;	COMDAT ??9?$_Vector_const_iterator@V?$_Vector_val@UBulletInfo@@V?$allocator@UBulletInfo@@@std@@@std@@@std@@QBE_NABV01@@Z
_TEXT	SEGMENT
__Right$ = 8						; size = 4
??9?$_Vector_const_iterator@V?$_Vector_val@UBulletInfo@@V?$allocator@UBulletInfo@@@std@@@std@@@std@@QBE_NABV01@@Z PROC ; std::_Vector_const_iterator<std::_Vector_val<BulletInfo,std::allocator<BulletInfo> > >::operator!=, COMDAT
; _this$ = ecx

; 207  : 		{	// test for iterator inequality

  00000	55		 push	 ebp
  00001	8b ec		 mov	 ebp, esp

; 208  : 		return (!(*this == _Right));

  00003	8b 01		 mov	 eax, DWORD PTR [ecx]
  00005	8b 55 08	 mov	 edx, DWORD PTR __Right$[ebp]
  00008	33 c9		 xor	 ecx, ecx
  0000a	3b 02		 cmp	 eax, DWORD PTR [edx]
  0000c	0f 95 c0	 setne	 al

; 209  : 		}

  0000f	5d		 pop	 ebp
  00010	c2 04 00	 ret	 4
??9?$_Vector_const_iterator@V?$_Vector_val@UBulletInfo@@V?$allocator@UBulletInfo@@@std@@@std@@@std@@QBE_NABV01@@Z ENDP ; std::_Vector_const_iterator<std::_Vector_val<BulletInfo,std::allocator<BulletInfo> > >::operator!=
_TEXT	ENDS
PUBLIC	??$_Destroy_range@V?$allocator@UBulletInfo@@@std@@@std@@YAXPAUBulletInfo@@0AAV?$allocator@UBulletInfo@@@0@U_Nonscalar_ptr_iterator_tag@0@@Z ; std::_Destroy_range<std::allocator<BulletInfo> >
; Function compile flags: /Ogsp
; File c:\program files (x86)\microsoft visual studio 10.0\vc\include\xmemory
;	COMDAT ??$_Destroy_range@V?$allocator@UBulletInfo@@@std@@@std@@YAXPAUBulletInfo@@0AAV?$allocator@UBulletInfo@@@0@U_Nonscalar_ptr_iterator_tag@0@@Z
_TEXT	SEGMENT
__First$ = 8						; size = 4
__Last$ = 12						; size = 4
__Al$ = 16						; size = 4
___formal$ = 20						; size = 1
??$_Destroy_range@V?$allocator@UBulletInfo@@@std@@@std@@YAXPAUBulletInfo@@0AAV?$allocator@UBulletInfo@@@0@U_Nonscalar_ptr_iterator_tag@0@@Z PROC ; std::_Destroy_range<std::allocator<BulletInfo> >, COMDAT

; 96   : 	for (; _First != _Last; ++_First)
; 97   : 		_Dest_val(_Al, _First);
; 98   : 	}

  00000	c3		 ret	 0
??$_Destroy_range@V?$allocator@UBulletInfo@@@std@@@std@@YAXPAUBulletInfo@@0AAV?$allocator@UBulletInfo@@@0@U_Nonscalar_ptr_iterator_tag@0@@Z ENDP ; std::_Destroy_range<std::allocator<BulletInfo> >
_TEXT	ENDS
PUBLIC	??$_Uninit_move@PAUBulletInfo@@PAU1@V?$allocator@UBulletInfo@@@std@@U1@@std@@YAPAUBulletInfo@@PAU1@00AAV?$allocator@UBulletInfo@@@0@0U_Nonscalar_ptr_iterator_tag@0@@Z ; std::_Uninit_move<BulletInfo *,BulletInfo *,std::allocator<BulletInfo>,BulletInfo>
; Function compile flags: /Ogsp
; File c:\program files (x86)\microsoft visual studio 10.0\vc\include\memory
;	COMDAT ??$_Uninit_move@PAUBulletInfo@@PAU1@V?$allocator@UBulletInfo@@@std@@U1@@std@@YAPAUBulletInfo@@PAU1@00AAV?$allocator@UBulletInfo@@@0@0U_Nonscalar_ptr_iterator_tag@0@@Z
_TEXT	SEGMENT
__First$ = 8						; size = 4
__Last$ = 12						; size = 4
__Dest$ = 16						; size = 4
__Al$ = 20						; size = 4
___formal$ = 24						; size = 4
___formal$ = 28						; size = 1
??$_Uninit_move@PAUBulletInfo@@PAU1@V?$allocator@UBulletInfo@@@std@@U1@@std@@YAPAUBulletInfo@@PAU1@00AAV?$allocator@UBulletInfo@@@0@0U_Nonscalar_ptr_iterator_tag@0@@Z PROC ; std::_Uninit_move<BulletInfo *,BulletInfo *,std::allocator<BulletInfo>,BulletInfo>, COMDAT

; 424  : 	{	// move [_First, _Last) to raw _Dest, using _Al, arbitrary type

  00000	55		 push	 ebp
  00001	8b ec		 mov	 ebp, esp
  00003	56		 push	 esi

; 425  : 	_DEBUG_RANGE(_First, _Last);
; 426  : 	_DEBUG_POINTER(_Dest);
; 427  : 	_FwdIt _Next = _Dest;
; 428  : 
; 429  : 	_TRY_BEGIN
; 430  : 	for (; _First != _Last; ++_Dest, ++_First)

  00004	8b 75 08	 mov	 esi, DWORD PTR __First$[ebp]
  00007	eb 16		 jmp	 SHORT $LN24@Uninit_mov
$LL6@Uninit_mov:

; 431  : 		_Cons_val(_Al, _Dest, (_Valty &&)*_First);

  00009	56		 push	 esi
  0000a	ff 75 10	 push	 DWORD PTR __Dest$[ebp]
  0000d	ff 75 14	 push	 DWORD PTR __Al$[ebp]
  00010	e8 00 00 00 00	 call	 ??$_Cons_val@V?$allocator@UBulletInfo@@@std@@UBulletInfo@@U3@@std@@YAXAAV?$allocator@UBulletInfo@@@0@PAUBulletInfo@@$$QAU2@@Z ; std::_Cons_val<std::allocator<BulletInfo>,BulletInfo,BulletInfo>
  00015	83 45 10 14	 add	 DWORD PTR __Dest$[ebp], 20 ; 00000014H
  00019	83 c4 0c	 add	 esp, 12			; 0000000cH
  0001c	83 c6 14	 add	 esi, 20			; 00000014H
$LN24@Uninit_mov:

; 425  : 	_DEBUG_RANGE(_First, _Last);
; 426  : 	_DEBUG_POINTER(_Dest);
; 427  : 	_FwdIt _Next = _Dest;
; 428  : 
; 429  : 	_TRY_BEGIN
; 430  : 	for (; _First != _Last; ++_Dest, ++_First)

  0001f	3b 75 0c	 cmp	 esi, DWORD PTR __Last$[ebp]
  00022	75 e5		 jne	 SHORT $LL6@Uninit_mov

; 432  : 	_CATCH_ALL
; 433  : 	for (; _Next != _Dest; ++_Next)
; 434  : 		_Dest_val(_Al, _Next);
; 435  : 	_RERAISE;
; 436  : 	_CATCH_END
; 437  : 	return (_Dest);

  00024	8b 45 10	 mov	 eax, DWORD PTR __Dest$[ebp]
  00027	5e		 pop	 esi

; 438  : 	}

  00028	5d		 pop	 ebp
  00029	c3		 ret	 0
??$_Uninit_move@PAUBulletInfo@@PAU1@V?$allocator@UBulletInfo@@@std@@U1@@std@@YAPAUBulletInfo@@PAU1@00AAV?$allocator@UBulletInfo@@@0@0U_Nonscalar_ptr_iterator_tag@0@@Z ENDP ; std::_Uninit_move<BulletInfo *,BulletInfo *,std::allocator<BulletInfo>,BulletInfo>
_TEXT	ENDS
PUBLIC	??$_Uninit_copy@V?$_Vector_const_iterator@V?$_Vector_val@UBulletInfo@@V?$allocator@UBulletInfo@@@std@@@std@@@std@@PAUBulletInfo@@V?$allocator@UBulletInfo@@@2@@std@@YAPAUBulletInfo@@V?$_Vector_const_iterator@V?$_Vector_val@UBulletInfo@@V?$allocator@UBulletInfo@@@std@@@std@@@0@0PAU1@AAV?$allocator@UBulletInfo@@@0@U_Nonscalar_ptr_iterator_tag@0@@Z ; std::_Uninit_copy<std::_Vector_const_iterator<std::_Vector_val<BulletInfo,std::allocator<BulletInfo> > >,BulletInfo *,std::allocator<BulletInfo> >
; Function compile flags: /Ogsp
;	COMDAT ??$_Uninit_copy@V?$_Vector_const_iterator@V?$_Vector_val@UBulletInfo@@V?$allocator@UBulletInfo@@@std@@@std@@@std@@PAUBulletInfo@@V?$allocator@UBulletInfo@@@2@@std@@YAPAUBulletInfo@@V?$_Vector_const_iterator@V?$_Vector_val@UBulletInfo@@V?$allocator@UBulletInfo@@@std@@@std@@@0@0PAU1@AAV?$allocator@UBulletInfo@@@0@U_Nonscalar_ptr_iterator_tag@0@@Z
_TEXT	SEGMENT
__First$ = 8						; size = 4
__Last$ = 12						; size = 4
__Dest$ = 16						; size = 4
__Al$ = 20						; size = 4
___formal$ = 24						; size = 1
??$_Uninit_copy@V?$_Vector_const_iterator@V?$_Vector_val@UBulletInfo@@V?$allocator@UBulletInfo@@@std@@@std@@@std@@PAUBulletInfo@@V?$allocator@UBulletInfo@@@2@@std@@YAPAUBulletInfo@@V?$_Vector_const_iterator@V?$_Vector_val@UBulletInfo@@V?$allocator@UBulletInfo@@@std@@@std@@@0@0PAU1@AAV?$allocator@UBulletInfo@@@0@U_Nonscalar_ptr_iterator_tag@0@@Z PROC ; std::_Uninit_copy<std::_Vector_const_iterator<std::_Vector_val<BulletInfo,std::allocator<BulletInfo> > >,BulletInfo *,std::allocator<BulletInfo> >, COMDAT

; 369  : 	{	// copy [_First, _Last) to raw _Dest, using _Al, arbitrary type

  00000	55		 push	 ebp
  00001	8b ec		 mov	 ebp, esp

; 370  : 	_DEBUG_RANGE(_First, _Last);
; 371  : 	_DEBUG_POINTER(_Dest);
; 372  : 	_FwdIt _Next = _Dest;
; 373  : 
; 374  : 	_TRY_BEGIN
; 375  : 	for (; _First != _Last; ++_Dest, ++_First)

  00003	eb 19		 jmp	 SHORT $LN35@Uninit_cop
$LL14@Uninit_cop:

; 376  : 		_Cons_val(_Al, _Dest, *_First);

  00005	ff 75 08	 push	 DWORD PTR __First$[ebp]
  00008	ff 75 10	 push	 DWORD PTR __Dest$[ebp]
  0000b	ff 75 14	 push	 DWORD PTR __Al$[ebp]
  0000e	e8 00 00 00 00	 call	 ??$_Cons_val@V?$allocator@UBulletInfo@@@std@@UBulletInfo@@ABU3@@std@@YAXAAV?$allocator@UBulletInfo@@@0@PAUBulletInfo@@ABU2@@Z ; std::_Cons_val<std::allocator<BulletInfo>,BulletInfo,BulletInfo const &>
  00013	83 45 10 14	 add	 DWORD PTR __Dest$[ebp], 20 ; 00000014H
  00017	83 c4 0c	 add	 esp, 12			; 0000000cH
  0001a	83 45 08 14	 add	 DWORD PTR __First$[ebp], 20 ; 00000014H
$LN35@Uninit_cop:

; 370  : 	_DEBUG_RANGE(_First, _Last);
; 371  : 	_DEBUG_POINTER(_Dest);
; 372  : 	_FwdIt _Next = _Dest;
; 373  : 
; 374  : 	_TRY_BEGIN
; 375  : 	for (; _First != _Last; ++_Dest, ++_First)

  0001e	8b 45 08	 mov	 eax, DWORD PTR __First$[ebp]
  00021	3b 45 0c	 cmp	 eax, DWORD PTR __Last$[ebp]
  00024	75 df		 jne	 SHORT $LL14@Uninit_cop

; 377  : 	_CATCH_ALL
; 378  : 	for (; _Next != _Dest; ++_Next)
; 379  : 		_Dest_val(_Al, _Next);
; 380  : 	_RERAISE;
; 381  : 	_CATCH_END
; 382  : 	return (_Dest);

  00026	8b 45 10	 mov	 eax, DWORD PTR __Dest$[ebp]

; 383  : 	}

  00029	5d		 pop	 ebp
  0002a	c3		 ret	 0
??$_Uninit_copy@V?$_Vector_const_iterator@V?$_Vector_val@UBulletInfo@@V?$allocator@UBulletInfo@@@std@@@std@@@std@@PAUBulletInfo@@V?$allocator@UBulletInfo@@@2@@std@@YAPAUBulletInfo@@V?$_Vector_const_iterator@V?$_Vector_val@UBulletInfo@@V?$allocator@UBulletInfo@@@std@@@std@@@0@0PAU1@AAV?$allocator@UBulletInfo@@@0@U_Nonscalar_ptr_iterator_tag@0@@Z ENDP ; std::_Uninit_copy<std::_Vector_const_iterator<std::_Vector_val<BulletInfo,std::allocator<BulletInfo> > >,BulletInfo *,std::allocator<BulletInfo> >
_TEXT	ENDS
PUBLIC	??$_Destroy_range@V?$allocator@UBulletInfo@@@std@@@std@@YAXPAUBulletInfo@@0AAV?$allocator@UBulletInfo@@@0@@Z ; std::_Destroy_range<std::allocator<BulletInfo> >
; Function compile flags: /Ogsp
; File c:\program files (x86)\microsoft visual studio 10.0\vc\include\xmemory
;	COMDAT ??$_Destroy_range@V?$allocator@UBulletInfo@@@std@@@std@@YAXPAUBulletInfo@@0AAV?$allocator@UBulletInfo@@@0@@Z
_TEXT	SEGMENT
__First$ = 8						; size = 4
__Last$ = 12						; size = 4
__Al$ = 16						; size = 4
??$_Destroy_range@V?$allocator@UBulletInfo@@@std@@@std@@YAXPAUBulletInfo@@0AAV?$allocator@UBulletInfo@@@0@@Z PROC ; std::_Destroy_range<std::allocator<BulletInfo> >, COMDAT

; 88   : 	_Destroy_range(_First, _Last, _Al, _Ptr_cat(_First, _Last));
; 89   : 	}

  00000	c3		 ret	 0
??$_Destroy_range@V?$allocator@UBulletInfo@@@std@@@std@@YAXPAUBulletInfo@@0AAV?$allocator@UBulletInfo@@@0@@Z ENDP ; std::_Destroy_range<std::allocator<BulletInfo> >
_TEXT	ENDS
PUBLIC	??$_Uninitialized_move@PAUBulletInfo@@PAU1@V?$allocator@UBulletInfo@@@std@@@std@@YAPAUBulletInfo@@PAU1@00AAV?$allocator@UBulletInfo@@@0@@Z ; std::_Uninitialized_move<BulletInfo *,BulletInfo *,std::allocator<BulletInfo> >
; Function compile flags: /Ogsp
; File c:\program files (x86)\microsoft visual studio 10.0\vc\include\memory
;	COMDAT ??$_Uninitialized_move@PAUBulletInfo@@PAU1@V?$allocator@UBulletInfo@@@std@@@std@@YAPAUBulletInfo@@PAU1@00AAV?$allocator@UBulletInfo@@@0@@Z
_TEXT	SEGMENT
__Cat$553657 = -4					; size = 1
__First$ = 8						; size = 4
__Last$ = 12						; size = 4
__Dest$ = 16						; size = 4
__Al$ = 20						; size = 4
??$_Uninitialized_move@PAUBulletInfo@@PAU1@V?$allocator@UBulletInfo@@@std@@@std@@YAPAUBulletInfo@@PAU1@00AAV?$allocator@UBulletInfo@@@0@@Z PROC ; std::_Uninitialized_move<BulletInfo *,BulletInfo *,std::allocator<BulletInfo> >, COMDAT

; 469  : 	{	// move [_First, _Last) to raw _Dest, using _Al

  00000	55		 push	 ebp
  00001	8b ec		 mov	 ebp, esp
  00003	51		 push	 ecx

; 470  : 	return (_Uninit_move(_First, _Last, _Dest, _Al,
; 471  : 		_Val_type(_First), _Ptr_cat(_First, _Dest)));

  00004	ff 75 fc	 push	 DWORD PTR __Cat$553657[ebp]
  00007	6a 00		 push	 0
  00009	ff 75 14	 push	 DWORD PTR __Al$[ebp]
  0000c	ff 75 10	 push	 DWORD PTR __Dest$[ebp]
  0000f	ff 75 0c	 push	 DWORD PTR __Last$[ebp]
  00012	ff 75 08	 push	 DWORD PTR __First$[ebp]
  00015	e8 00 00 00 00	 call	 ??$_Uninit_move@PAUBulletInfo@@PAU1@V?$allocator@UBulletInfo@@@std@@U1@@std@@YAPAUBulletInfo@@PAU1@00AAV?$allocator@UBulletInfo@@@0@0U_Nonscalar_ptr_iterator_tag@0@@Z ; std::_Uninit_move<BulletInfo *,BulletInfo *,std::allocator<BulletInfo>,BulletInfo>
  0001a	83 c4 18	 add	 esp, 24			; 00000018H

; 472  : 	}

  0001d	c9		 leave
  0001e	c3		 ret	 0
??$_Uninitialized_move@PAUBulletInfo@@PAU1@V?$allocator@UBulletInfo@@@std@@@std@@YAPAUBulletInfo@@PAU1@00AAV?$allocator@UBulletInfo@@@0@@Z ENDP ; std::_Uninitialized_move<BulletInfo *,BulletInfo *,std::allocator<BulletInfo> >
_TEXT	ENDS
PUBLIC	??$_Uninitialized_copy@V?$_Vector_const_iterator@V?$_Vector_val@UBulletInfo@@V?$allocator@UBulletInfo@@@std@@@std@@@std@@PAUBulletInfo@@V?$allocator@UBulletInfo@@@2@@std@@YAPAUBulletInfo@@V?$_Vector_const_iterator@V?$_Vector_val@UBulletInfo@@V?$allocator@UBulletInfo@@@std@@@std@@@0@0PAU1@AAV?$allocator@UBulletInfo@@@0@@Z ; std::_Uninitialized_copy<std::_Vector_const_iterator<std::_Vector_val<BulletInfo,std::allocator<BulletInfo> > >,BulletInfo *,std::allocator<BulletInfo> >
; Function compile flags: /Ogsp
;	COMDAT ??$_Uninitialized_copy@V?$_Vector_const_iterator@V?$_Vector_val@UBulletInfo@@V?$allocator@UBulletInfo@@@std@@@std@@@std@@PAUBulletInfo@@V?$allocator@UBulletInfo@@@2@@std@@YAPAUBulletInfo@@V?$_Vector_const_iterator@V?$_Vector_val@UBulletInfo@@V?$allocator@UBulletInfo@@@std@@@std@@@0@0PAU1@AAV?$allocator@UBulletInfo@@@0@@Z
_TEXT	SEGMENT
__Cat$553666 = -4					; size = 1
__First$ = 8						; size = 4
__Last$ = 12						; size = 4
__Dest$ = 16						; size = 4
__Al$ = 20						; size = 4
??$_Uninitialized_copy@V?$_Vector_const_iterator@V?$_Vector_val@UBulletInfo@@V?$allocator@UBulletInfo@@@std@@@std@@@std@@PAUBulletInfo@@V?$allocator@UBulletInfo@@@2@@std@@YAPAUBulletInfo@@V?$_Vector_const_iterator@V?$_Vector_val@UBulletInfo@@V?$allocator@UBulletInfo@@@std@@@std@@@0@0PAU1@AAV?$allocator@UBulletInfo@@@0@@Z PROC ; std::_Uninitialized_copy<std::_Vector_const_iterator<std::_Vector_val<BulletInfo,std::allocator<BulletInfo> > >,BulletInfo *,std::allocator<BulletInfo> >, COMDAT

; 412  : 	{	// copy [_First, _Last) to raw _Dest, using _Al

  00000	55		 push	 ebp
  00001	8b ec		 mov	 ebp, esp
  00003	51		 push	 ecx

; 413  : 	return (_Uninit_copy(_First, _Last, _Dest, _Al,
; 414  : 		_Ptr_cat(_First, _Dest)));

  00004	ff 75 fc	 push	 DWORD PTR __Cat$553666[ebp]
  00007	ff 75 14	 push	 DWORD PTR __Al$[ebp]
  0000a	ff 75 10	 push	 DWORD PTR __Dest$[ebp]
  0000d	ff 75 0c	 push	 DWORD PTR __Last$[ebp]
  00010	ff 75 08	 push	 DWORD PTR __First$[ebp]
  00013	e8 00 00 00 00	 call	 ??$_Uninit_copy@V?$_Vector_const_iterator@V?$_Vector_val@UBulletInfo@@V?$allocator@UBulletInfo@@@std@@@std@@@std@@PAUBulletInfo@@V?$allocator@UBulletInfo@@@2@@std@@YAPAUBulletInfo@@V?$_Vector_const_iterator@V?$_Vector_val@UBulletInfo@@V?$allocator@UBulletInfo@@@std@@@std@@@0@0PAU1@AAV?$allocator@UBulletInfo@@@0@U_Nonscalar_ptr_iterator_tag@0@@Z ; std::_Uninit_copy<std::_Vector_const_iterator<std::_Vector_val<BulletInfo,std::allocator<BulletInfo> > >,BulletInfo *,std::allocator<BulletInfo> >
  00018	83 c4 14	 add	 esp, 20			; 00000014H

; 415  : 	}

  0001b	c9		 leave
  0001c	c3		 ret	 0
??$_Uninitialized_copy@V?$_Vector_const_iterator@V?$_Vector_val@UBulletInfo@@V?$allocator@UBulletInfo@@@std@@@std@@@std@@PAUBulletInfo@@V?$allocator@UBulletInfo@@@2@@std@@YAPAUBulletInfo@@V?$_Vector_const_iterator@V?$_Vector_val@UBulletInfo@@V?$allocator@UBulletInfo@@@std@@@std@@@0@0PAU1@AAV?$allocator@UBulletInfo@@@0@@Z ENDP ; std::_Uninitialized_copy<std::_Vector_const_iterator<std::_Vector_val<BulletInfo,std::allocator<BulletInfo> > >,BulletInfo *,std::allocator<BulletInfo> >
_TEXT	ENDS
PUBLIC	?_Destroy@?$vector@UBulletInfo@@V?$allocator@UBulletInfo@@@std@@@std@@IAEXPAUBulletInfo@@0@Z ; std::vector<BulletInfo,std::allocator<BulletInfo> >::_Destroy
; Function compile flags: /Ogsp
; File c:\program files (x86)\microsoft visual studio 10.0\vc\include\vector
;	COMDAT ?_Destroy@?$vector@UBulletInfo@@V?$allocator@UBulletInfo@@@std@@@std@@IAEXPAUBulletInfo@@0@Z
_TEXT	SEGMENT
__First$ = 8						; size = 4
__Last$ = 12						; size = 4
?_Destroy@?$vector@UBulletInfo@@V?$allocator@UBulletInfo@@@std@@@std@@IAEXPAUBulletInfo@@0@Z PROC ; std::vector<BulletInfo,std::allocator<BulletInfo> >::_Destroy, COMDAT
; _this$ = ecx

; 1270 : 		_Destroy_range(_First, _Last, this->_Alval);
; 1271 : 		}

  00000	c2 08 00	 ret	 8
?_Destroy@?$vector@UBulletInfo@@V?$allocator@UBulletInfo@@@std@@@std@@IAEXPAUBulletInfo@@0@Z ENDP ; std::vector<BulletInfo,std::allocator<BulletInfo> >::_Destroy
_TEXT	ENDS
PUBLIC	??$_Umove@PAUBulletInfo@@@?$vector@UBulletInfo@@V?$allocator@UBulletInfo@@@std@@@std@@IAEPAUBulletInfo@@PAU2@00@Z ; std::vector<BulletInfo,std::allocator<BulletInfo> >::_Umove<BulletInfo *>
; Function compile flags: /Ogsp
;	COMDAT ??$_Umove@PAUBulletInfo@@@?$vector@UBulletInfo@@V?$allocator@UBulletInfo@@@std@@@std@@IAEPAUBulletInfo@@PAU2@00@Z
_TEXT	SEGMENT
__First$ = 8						; size = 4
__Last$ = 12						; size = 4
__Ptr$ = 16						; size = 4
??$_Umove@PAUBulletInfo@@@?$vector@UBulletInfo@@V?$allocator@UBulletInfo@@@std@@@std@@IAEPAUBulletInfo@@PAU2@00@Z PROC ; std::vector<BulletInfo,std::allocator<BulletInfo> >::_Umove<BulletInfo *>, COMDAT
; _this$ = ecx

; 1322 : 		pointer _Umove(_Iter _First, _Iter _Last, pointer _Ptr)

  00000	55		 push	 ebp
  00001	8b ec		 mov	 ebp, esp

; 1323 : 		{	// move initializing [_First, _Last), using allocator
; 1324 : 		return (_Uninitialized_move(_First, _Last,
; 1325 : 			_Ptr, this->_Alval));

  00003	83 c1 0c	 add	 ecx, 12			; 0000000cH
  00006	51		 push	 ecx
  00007	ff 75 10	 push	 DWORD PTR __Ptr$[ebp]
  0000a	ff 75 0c	 push	 DWORD PTR __Last$[ebp]
  0000d	ff 75 08	 push	 DWORD PTR __First$[ebp]
  00010	e8 00 00 00 00	 call	 ??$_Uninitialized_move@PAUBulletInfo@@PAU1@V?$allocator@UBulletInfo@@@std@@@std@@YAPAUBulletInfo@@PAU1@00AAV?$allocator@UBulletInfo@@@0@@Z ; std::_Uninitialized_move<BulletInfo *,BulletInfo *,std::allocator<BulletInfo> >
  00015	83 c4 10	 add	 esp, 16			; 00000010H

; 1326 : 		}

  00018	5d		 pop	 ebp
  00019	c2 0c 00	 ret	 12			; 0000000cH
??$_Umove@PAUBulletInfo@@@?$vector@UBulletInfo@@V?$allocator@UBulletInfo@@@std@@@std@@IAEPAUBulletInfo@@PAU2@00@Z ENDP ; std::vector<BulletInfo,std::allocator<BulletInfo> >::_Umove<BulletInfo *>
_TEXT	ENDS
PUBLIC	??$_Ucopy@V?$_Vector_const_iterator@V?$_Vector_val@UBulletInfo@@V?$allocator@UBulletInfo@@@std@@@std@@@std@@@?$vector@UBulletInfo@@V?$allocator@UBulletInfo@@@std@@@std@@IAEPAUBulletInfo@@V?$_Vector_const_iterator@V?$_Vector_val@UBulletInfo@@V?$allocator@UBulletInfo@@@std@@@std@@@1@0PAU2@@Z ; std::vector<BulletInfo,std::allocator<BulletInfo> >::_Ucopy<std::_Vector_const_iterator<std::_Vector_val<BulletInfo,std::allocator<BulletInfo> > > >
; Function compile flags: /Ogsp
;	COMDAT ??$_Ucopy@V?$_Vector_const_iterator@V?$_Vector_val@UBulletInfo@@V?$allocator@UBulletInfo@@@std@@@std@@@std@@@?$vector@UBulletInfo@@V?$allocator@UBulletInfo@@@std@@@std@@IAEPAUBulletInfo@@V?$_Vector_const_iterator@V?$_Vector_val@UBulletInfo@@V?$allocator@UBulletInfo@@@std@@@std@@@1@0PAU2@@Z
_TEXT	SEGMENT
__First$ = 8						; size = 4
__Last$ = 12						; size = 4
__Cat$553738 = 16					; size = 1
__Ptr$ = 16						; size = 4
??$_Ucopy@V?$_Vector_const_iterator@V?$_Vector_val@UBulletInfo@@V?$allocator@UBulletInfo@@@std@@@std@@@std@@@?$vector@UBulletInfo@@V?$allocator@UBulletInfo@@@std@@@std@@IAEPAUBulletInfo@@V?$_Vector_const_iterator@V?$_Vector_val@UBulletInfo@@V?$allocator@UBulletInfo@@@std@@@std@@@1@0PAU2@@Z PROC ; std::vector<BulletInfo,std::allocator<BulletInfo> >::_Ucopy<std::_Vector_const_iterator<std::_Vector_val<BulletInfo,std::allocator<BulletInfo> > > >, COMDAT
; _this$ = ecx

; 1315 : 		pointer _Ucopy(_Iter _First, _Iter _Last, pointer _Ptr)

  00000	55		 push	 ebp
  00001	8b ec		 mov	 ebp, esp

; 1316 : 		{	// copy initializing [_First, _Last), using allocator
; 1317 : 		return (_Uninitialized_copy(_First, _Last,
; 1318 : 			_Ptr, this->_Alval));

  00003	ff 75 10	 push	 DWORD PTR __Cat$553738[ebp]
  00006	83 c1 0c	 add	 ecx, 12			; 0000000cH
  00009	51		 push	 ecx
  0000a	ff 75 10	 push	 DWORD PTR __Ptr$[ebp]
  0000d	ff 75 0c	 push	 DWORD PTR __Last$[ebp]
  00010	ff 75 08	 push	 DWORD PTR __First$[ebp]
  00013	e8 00 00 00 00	 call	 ??$_Uninit_copy@V?$_Vector_const_iterator@V?$_Vector_val@UBulletInfo@@V?$allocator@UBulletInfo@@@std@@@std@@@std@@PAUBulletInfo@@V?$allocator@UBulletInfo@@@2@@std@@YAPAUBulletInfo@@V?$_Vector_const_iterator@V?$_Vector_val@UBulletInfo@@V?$allocator@UBulletInfo@@@std@@@std@@@0@0PAU1@AAV?$allocator@UBulletInfo@@@0@U_Nonscalar_ptr_iterator_tag@0@@Z ; std::_Uninit_copy<std::_Vector_const_iterator<std::_Vector_val<BulletInfo,std::allocator<BulletInfo> > >,BulletInfo *,std::allocator<BulletInfo> >
  00018	83 c4 14	 add	 esp, 20			; 00000014H

; 1319 : 		}

  0001b	5d		 pop	 ebp
  0001c	c2 0c 00	 ret	 12			; 0000000cH
??$_Ucopy@V?$_Vector_const_iterator@V?$_Vector_val@UBulletInfo@@V?$allocator@UBulletInfo@@@std@@@std@@@std@@@?$vector@UBulletInfo@@V?$allocator@UBulletInfo@@@std@@@std@@IAEPAUBulletInfo@@V?$_Vector_const_iterator@V?$_Vector_val@UBulletInfo@@V?$allocator@UBulletInfo@@@std@@@std@@@1@0PAU2@@Z ENDP ; std::vector<BulletInfo,std::allocator<BulletInfo> >::_Ucopy<std::_Vector_const_iterator<std::_Vector_val<BulletInfo,std::allocator<BulletInfo> > > >
_TEXT	ENDS
PUBLIC	?_Tidy@?$vector@UBulletInfo@@V?$allocator@UBulletInfo@@@std@@@std@@IAEXXZ ; std::vector<BulletInfo,std::allocator<BulletInfo> >::_Tidy
EXTRN	__imp_?_Orphan_all@_Container_base0@std@@QAEXXZ:PROC
; Function compile flags: /Ogsp
;	COMDAT ?_Tidy@?$vector@UBulletInfo@@V?$allocator@UBulletInfo@@@std@@@std@@IAEXXZ
_TEXT	SEGMENT
?_Tidy@?$vector@UBulletInfo@@V?$allocator@UBulletInfo@@@std@@@std@@IAEXXZ PROC ; std::vector<BulletInfo,std::allocator<BulletInfo> >::_Tidy, COMDAT
; _this$ = ecx

; 1301 : 		{	// free all storage

  00000	56		 push	 esi
  00001	8b f1		 mov	 esi, ecx

; 1302 : 		if (this->_Myfirst != 0)

  00003	83 3e 00	 cmp	 DWORD PTR [esi], 0
  00006	74 0e		 je	 SHORT $LN21@Tidy

; 1303 : 			{	// something to free, destroy and deallocate it
; 1304 : 			this->_Orphan_all();

  00008	ff 15 00 00 00
	00		 call	 DWORD PTR __imp_?_Orphan_all@_Container_base0@std@@QAEXXZ

; 1305 : 			_Destroy(this->_Myfirst, this->_Mylast);
; 1306 : 			this->_Alval.deallocate(this->_Myfirst,
; 1307 : 				this->_Myend - this->_Myfirst);

  0000e	ff 36		 push	 DWORD PTR [esi]
  00010	e8 00 00 00 00	 call	 ??3@YAXPAX@Z		; operator delete
  00015	59		 pop	 ecx
$LN21@Tidy:

; 1308 : 			}
; 1309 : 		this->_Myfirst = 0;

  00016	83 26 00	 and	 DWORD PTR [esi], 0

; 1310 : 		this->_Mylast = 0;

  00019	83 66 04 00	 and	 DWORD PTR [esi+4], 0

; 1311 : 		this->_Myend = 0;

  0001d	83 66 08 00	 and	 DWORD PTR [esi+8], 0
  00021	5e		 pop	 esi

; 1312 : 		}

  00022	c3		 ret	 0
?_Tidy@?$vector@UBulletInfo@@V?$allocator@UBulletInfo@@@std@@@std@@IAEXXZ ENDP ; std::vector<BulletInfo,std::allocator<BulletInfo> >::_Tidy
_TEXT	ENDS
PUBLIC	?reserve@?$vector@UBulletInfo@@V?$allocator@UBulletInfo@@@std@@@std@@QAEXI@Z ; std::vector<BulletInfo,std::allocator<BulletInfo> >::reserve
EXTRN	___CxxFrameHandler3:PROC
EXTRN	__EH_epilog3:PROC
EXTRN	__EH_prolog3_catch:PROC
;	COMDAT xdata$x
; File c:\program files (x86)\microsoft visual studio 10.0\vc\include\xmemory
xdata$x	SEGMENT
__catchsym$?reserve@?$vector@UBulletInfo@@V?$allocator@UBulletInfo@@@std@@@std@@QAEXI@Z$2 DD 040H
	DD	00H
	DD	00H
	DD	FLAT:__catch$?reserve@?$vector@UBulletInfo@@V?$allocator@UBulletInfo@@@std@@@std@@QAEXI@Z$0
__unwindtable$?reserve@?$vector@UBulletInfo@@V?$allocator@UBulletInfo@@@std@@@std@@QAEXI@Z DD 0ffffffffH
	DD	00H
	DD	0ffffffffH
	DD	00H
__tryblocktable$?reserve@?$vector@UBulletInfo@@V?$allocator@UBulletInfo@@@std@@@std@@QAEXI@Z DD 00H
	DD	00H
	DD	01H
	DD	01H
	DD	FLAT:__catchsym$?reserve@?$vector@UBulletInfo@@V?$allocator@UBulletInfo@@@std@@@std@@QAEXI@Z$2
__ehfuncinfo$?reserve@?$vector@UBulletInfo@@V?$allocator@UBulletInfo@@@std@@@std@@QAEXI@Z DD 019930522H
	DD	02H
	DD	FLAT:__unwindtable$?reserve@?$vector@UBulletInfo@@V?$allocator@UBulletInfo@@@std@@@std@@QAEXI@Z
	DD	01H
	DD	FLAT:__tryblocktable$?reserve@?$vector@UBulletInfo@@V?$allocator@UBulletInfo@@@std@@@std@@QAEXI@Z
	DD	2 DUP(00H)
	DD	00H
	DD	01H
; Function compile flags: /Ogsp
; File c:\program files (x86)\microsoft visual studio 10.0\vc\include\vector
xdata$x	ENDS
;	COMDAT ?reserve@?$vector@UBulletInfo@@V?$allocator@UBulletInfo@@@std@@@std@@QAEXI@Z
_TEXT	SEGMENT
__$EHRec$ = -16						; size = 16
__Ptr$550532 = 8					; size = 4
__Count$ = 8						; size = 4
?reserve@?$vector@UBulletInfo@@V?$allocator@UBulletInfo@@@std@@@std@@QAEXI@Z PROC ; std::vector<BulletInfo,std::allocator<BulletInfo> >::reserve, COMDAT
; _this$ = ecx

; 746  : 		{	// determine new minimum length of allocated storage

  00000	6a 04		 push	 4
  00002	b8 00 00 00 00	 mov	 eax, __ehhandler$?reserve@?$vector@UBulletInfo@@V?$allocator@UBulletInfo@@@std@@@std@@QAEXI@Z
  00007	e8 00 00 00 00	 call	 __EH_prolog3_catch
  0000c	8b f1		 mov	 esi, ecx

; 747  : 		if (max_size() < _Count)

  0000e	8b 5d 08	 mov	 ebx, DWORD PTR __Count$[ebp]
  00011	81 fb cc cc cc
	0c		 cmp	 ebx, 214748364		; 0cccccccH
  00017	76 0b		 jbe	 SHORT $LN5@reserve

; 748  : 			_Xlen();	// result too long

  00019	68 00 00 00 00	 push	 OFFSET ??_C@_0BD@OLBABOEK@vector?$DMT?$DO?5too?5long?$AA@
  0001e	ff 15 00 00 00
	00		 call	 DWORD PTR __imp_?_Xlength_error@std@@YAXPBD@Z
$LN56@reserve:
$LN5@reserve:

; 749  : 		else if (capacity() < _Count)

  00024	8b 46 08	 mov	 eax, DWORD PTR [esi+8]
  00027	2b 06		 sub	 eax, DWORD PTR [esi]
  00029	6a 14		 push	 20			; 00000014H
  0002b	99		 cdq
  0002c	59		 pop	 ecx
  0002d	f7 f9		 idiv	 ecx
  0002f	3b c3		 cmp	 eax, ebx
  00031	73 6b		 jae	 SHORT $LN3@reserve

; 750  : 			{	// not enough room, reallocate
; 751  : 			pointer _Ptr = this->_Alval.allocate(_Count);

  00033	6a 00		 push	 0
  00035	53		 push	 ebx
  00036	e8 00 00 00 00	 call	 ??$_Allocate@UBulletInfo@@@std@@YAPAUBulletInfo@@IPAU1@@Z ; std::_Allocate<BulletInfo>

; 752  : 
; 753  : 			_TRY_BEGIN
; 754  : 			_Umove(this->_Myfirst, this->_Mylast, _Ptr);

  0003b	8b 0e		 mov	 ecx, DWORD PTR [esi]
  0003d	83 65 fc 00	 and	 DWORD PTR __$EHRec$[ebp+12], 0
  00041	8d 56 0c	 lea	 edx, DWORD PTR [esi+12]
  00044	52		 push	 edx
  00045	89 45 08	 mov	 DWORD PTR __Ptr$550532[ebp], eax
  00048	ff 75 08	 push	 DWORD PTR __Ptr$550532[ebp]
  0004b	8b 46 04	 mov	 eax, DWORD PTR [esi+4]
  0004e	50		 push	 eax
  0004f	51		 push	 ecx
  00050	e8 00 00 00 00	 call	 ??$_Uninitialized_move@PAUBulletInfo@@PAU1@V?$allocator@UBulletInfo@@@std@@@std@@YAPAUBulletInfo@@PAU1@00AAV?$allocator@UBulletInfo@@@0@@Z ; std::_Uninitialized_move<BulletInfo *,BulletInfo *,std::allocator<BulletInfo> >

; 758  : 			_CATCH_END
; 759  : 
; 760  : 			size_type _Size = size();

  00055	8b 0e		 mov	 ecx, DWORD PTR [esi]
  00057	8b 46 04	 mov	 eax, DWORD PTR [esi+4]
  0005a	83 c4 18	 add	 esp, 24			; 00000018H
  0005d	2b c1		 sub	 eax, ecx
  0005f	6a 14		 push	 20			; 00000014H
  00061	99		 cdq
  00062	5f		 pop	 edi
  00063	f7 ff		 idiv	 edi
  00065	83 4d fc ff	 or	 DWORD PTR __$EHRec$[ebp+12], -1
  00069	8b f8		 mov	 edi, eax
  0006b	85 c9		 test	 ecx, ecx
  0006d	74 12		 je	 SHORT $LN48@reserve

; 761  : 			if (this->_Myfirst != 0)

  0006f	eb 03		 jmp	 SHORT $LN55@reserve

; 762  : 				{	// destroy and deallocate old array
; 763  : 				_Destroy(this->_Myfirst, this->_Mylast);

$LL39@reserve:
  00071	83 c1 14	 add	 ecx, 20			; 00000014H
$LN55@reserve:
  00074	3b 4e 04	 cmp	 ecx, DWORD PTR [esi+4]
  00077	75 f8		 jne	 SHORT $LL39@reserve

; 764  : 				this->_Alval.deallocate(this->_Myfirst,
; 765  : 					this->_Myend - this->_Myfirst);

  00079	ff 36		 push	 DWORD PTR [esi]
  0007b	e8 00 00 00 00	 call	 ??3@YAXPAX@Z		; operator delete
  00080	59		 pop	 ecx
$LN48@reserve:

; 766  : 				}
; 767  : 
; 768  : 			this->_Orphan_all();

  00081	8b ce		 mov	 ecx, esi
  00083	ff 15 00 00 00
	00		 call	 DWORD PTR __imp_?_Orphan_all@_Container_base0@std@@QAEXXZ

; 769  : 			this->_Myend = _Ptr + _Count;

  00089	6b db 14	 imul	 ebx, 20			; 00000014H

; 770  : 			this->_Mylast = _Ptr + _Size;

  0008c	6b ff 14	 imul	 edi, 20			; 00000014H
  0008f	8b 45 08	 mov	 eax, DWORD PTR __Ptr$550532[ebp]
  00092	03 d8		 add	 ebx, eax
  00094	03 f8		 add	 edi, eax
  00096	89 5e 08	 mov	 DWORD PTR [esi+8], ebx
  00099	89 7e 04	 mov	 DWORD PTR [esi+4], edi

; 771  : 			this->_Myfirst = _Ptr;

  0009c	89 06		 mov	 DWORD PTR [esi], eax
$LN3@reserve:

; 772  : 			}
; 773  : 		}

  0009e	e8 00 00 00 00	 call	 __EH_epilog3
  000a3	c2 04 00	 ret	 4
__catch$?reserve@?$vector@UBulletInfo@@V?$allocator@UBulletInfo@@@std@@@std@@QAEXI@Z$0:

; 755  : 			_CATCH_ALL
; 756  : 			this->_Alval.deallocate(_Ptr, _Count);

  000a6	ff 75 08	 push	 DWORD PTR __Ptr$550532[ebp]
  000a9	e8 00 00 00 00	 call	 ??3@YAXPAX@Z		; operator delete
  000ae	59		 pop	 ecx

; 757  : 			_RERAISE;

  000af	6a 00		 push	 0
  000b1	6a 00		 push	 0
  000b3	e8 00 00 00 00	 call	 __CxxThrowException@8
$LN57@reserve:
$LN54@reserve:
  000b8	cc		 int	 3
_TEXT	ENDS
;	COMDAT text$x
text$x	SEGMENT
__ehhandler$?reserve@?$vector@UBulletInfo@@V?$allocator@UBulletInfo@@@std@@@std@@QAEXI@Z:
  00000	8b 54 24 08	 mov	 edx, DWORD PTR [esp+8]
  00004	8d 42 0c	 lea	 eax, DWORD PTR [edx+12]
  00007	8b 4a ec	 mov	 ecx, DWORD PTR [edx-20]
  0000a	33 c8		 xor	 ecx, eax
  0000c	e8 00 00 00 00	 call	 @__security_check_cookie@4
  00011	b8 00 00 00 00	 mov	 eax, OFFSET __ehfuncinfo$?reserve@?$vector@UBulletInfo@@V?$allocator@UBulletInfo@@@std@@@std@@QAEXI@Z
  00016	e9 00 00 00 00	 jmp	 ___CxxFrameHandler3
text$x	ENDS
?reserve@?$vector@UBulletInfo@@V?$allocator@UBulletInfo@@@std@@@std@@QAEXI@Z ENDP ; std::vector<BulletInfo,std::allocator<BulletInfo> >::reserve
PUBLIC	??0?$vector@UBulletInfo@@V?$allocator@UBulletInfo@@@std@@@std@@QAE@ABV01@@Z ; std::vector<BulletInfo,std::allocator<BulletInfo> >::vector<BulletInfo,std::allocator<BulletInfo> >
;	COMDAT xdata$x
; File c:\program files (x86)\microsoft visual studio 10.0\vc\include\xutility
xdata$x	SEGMENT
__catchsym$??0?$vector@UBulletInfo@@V?$allocator@UBulletInfo@@@std@@@std@@QAE@ABV01@@Z$2 DD 040H
	DD	00H
	DD	00H
	DD	FLAT:__catch$??0?$vector@UBulletInfo@@V?$allocator@UBulletInfo@@@std@@@std@@QAE@ABV01@@Z$0
__unwindtable$??0?$vector@UBulletInfo@@V?$allocator@UBulletInfo@@@std@@@std@@QAE@ABV01@@Z DD 0ffffffffH
	DD	00H
	DD	0ffffffffH
	DD	00H
__tryblocktable$??0?$vector@UBulletInfo@@V?$allocator@UBulletInfo@@@std@@@std@@QAE@ABV01@@Z DD 00H
	DD	00H
	DD	01H
	DD	01H
	DD	FLAT:__catchsym$??0?$vector@UBulletInfo@@V?$allocator@UBulletInfo@@@std@@@std@@QAE@ABV01@@Z$2
__ehfuncinfo$??0?$vector@UBulletInfo@@V?$allocator@UBulletInfo@@@std@@@std@@QAE@ABV01@@Z DD 019930522H
	DD	02H
	DD	FLAT:__unwindtable$??0?$vector@UBulletInfo@@V?$allocator@UBulletInfo@@@std@@@std@@QAE@ABV01@@Z
	DD	01H
	DD	FLAT:__tryblocktable$??0?$vector@UBulletInfo@@V?$allocator@UBulletInfo@@@std@@@std@@QAE@ABV01@@Z
	DD	2 DUP(00H)
	DD	00H
	DD	01H
; Function compile flags: /Ogsp
; File c:\program files (x86)\microsoft visual studio 10.0\vc\include\vector
xdata$x	ENDS
;	COMDAT ??0?$vector@UBulletInfo@@V?$allocator@UBulletInfo@@@std@@@std@@QAE@ABV01@@Z
_TEXT	SEGMENT
_this$ = -20						; size = 4
__$EHRec$ = -16						; size = 16
__Cat$554038 = 8					; size = 1
__Right$ = 8						; size = 4
??0?$vector@UBulletInfo@@V?$allocator@UBulletInfo@@@std@@@std@@QAE@ABV01@@Z PROC ; std::vector<BulletInfo,std::allocator<BulletInfo> >::vector<BulletInfo,std::allocator<BulletInfo> >, COMDAT
; _this$ = ecx

; 535  : 		{	// construct by copying _Right

  00000	6a 08		 push	 8
  00002	b8 00 00 00 00	 mov	 eax, __ehhandler$??0?$vector@UBulletInfo@@V?$allocator@UBulletInfo@@@std@@@std@@QAE@ABV01@@Z
  00007	e8 00 00 00 00	 call	 __EH_prolog3_catch
  0000c	8b f1		 mov	 esi, ecx
  0000e	89 75 ec	 mov	 DWORD PTR _this$[ebp], esi

; 536  : 		if (_Buy(_Right.size()))

  00011	8b 7d 08	 mov	 edi, DWORD PTR __Right$[ebp]
  00014	33 db		 xor	 ebx, ebx
  00016	89 1e		 mov	 DWORD PTR [esi], ebx
  00018	89 5e 04	 mov	 DWORD PTR [esi+4], ebx
  0001b	89 5e 08	 mov	 DWORD PTR [esi+8], ebx
  0001e	8b 47 04	 mov	 eax, DWORD PTR [edi+4]
  00021	2b 07		 sub	 eax, DWORD PTR [edi]
  00023	6a 14		 push	 20			; 00000014H
  00025	59		 pop	 ecx
  00026	99		 cdq
  00027	f7 f9		 idiv	 ecx
  00029	8b ce		 mov	 ecx, esi
  0002b	50		 push	 eax
  0002c	e8 00 00 00 00	 call	 ?_Buy@?$vector@UBulletInfo@@V?$allocator@UBulletInfo@@@std@@@std@@IAE_NI@Z ; std::vector<BulletInfo,std::allocator<BulletInfo> >::_Buy
  00031	84 c0		 test	 al, al
  00033	74 1f		 je	 SHORT $LN7@vector

; 537  : 			_TRY_BEGIN
; 538  : 			this->_Mylast = _Ucopy(_Right.begin(), _Right.end(),
; 539  : 				this->_Myfirst);

  00035	ff 75 08	 push	 DWORD PTR __Cat$554038[ebp]
  00038	8b 0e		 mov	 ecx, DWORD PTR [esi]
  0003a	8b 47 04	 mov	 eax, DWORD PTR [edi+4]
  0003d	8b 3f		 mov	 edi, DWORD PTR [edi]
  0003f	8d 56 0c	 lea	 edx, DWORD PTR [esi+12]
  00042	52		 push	 edx
  00043	51		 push	 ecx
  00044	50		 push	 eax
  00045	57		 push	 edi
  00046	89 5d fc	 mov	 DWORD PTR __$EHRec$[ebp+12], ebx
  00049	e8 00 00 00 00	 call	 ??$_Uninit_copy@V?$_Vector_const_iterator@V?$_Vector_val@UBulletInfo@@V?$allocator@UBulletInfo@@@std@@@std@@@std@@PAUBulletInfo@@V?$allocator@UBulletInfo@@@2@@std@@YAPAUBulletInfo@@V?$_Vector_const_iterator@V?$_Vector_val@UBulletInfo@@V?$allocator@UBulletInfo@@@std@@@std@@@0@0PAU1@AAV?$allocator@UBulletInfo@@@0@U_Nonscalar_ptr_iterator_tag@0@@Z ; std::_Uninit_copy<std::_Vector_const_iterator<std::_Vector_val<BulletInfo,std::allocator<BulletInfo> > >,BulletInfo *,std::allocator<BulletInfo> >
  0004e	83 c4 14	 add	 esp, 20			; 00000014H
  00051	89 46 04	 mov	 DWORD PTR [esi+4], eax
$LN7@vector:

; 543  : 			_CATCH_END
; 544  : 		}

  00054	8b c6		 mov	 eax, esi
  00056	e8 00 00 00 00	 call	 __EH_epilog3
  0005b	c2 04 00	 ret	 4
__catch$??0?$vector@UBulletInfo@@V?$allocator@UBulletInfo@@@std@@@std@@QAE@ABV01@@Z$0:

; 540  : 			_CATCH_ALL
; 541  : 			_Tidy();

  0005e	8b 4d ec	 mov	 ecx, DWORD PTR _this$[ebp]
  00061	e8 00 00 00 00	 call	 ?_Tidy@?$vector@UBulletInfo@@V?$allocator@UBulletInfo@@@std@@@std@@IAEXXZ ; std::vector<BulletInfo,std::allocator<BulletInfo> >::_Tidy

; 542  : 			_RERAISE;

  00066	33 db		 xor	 ebx, ebx
  00068	53		 push	 ebx
  00069	53		 push	 ebx
  0006a	e8 00 00 00 00	 call	 __CxxThrowException@8
$LN38@vector:
$LN37@vector:
  0006f	cc		 int	 3
_TEXT	ENDS
;	COMDAT text$x
text$x	SEGMENT
__ehhandler$??0?$vector@UBulletInfo@@V?$allocator@UBulletInfo@@@std@@@std@@QAE@ABV01@@Z:
  00000	8b 54 24 08	 mov	 edx, DWORD PTR [esp+8]
  00004	8d 42 0c	 lea	 eax, DWORD PTR [edx+12]
  00007	8b 4a e8	 mov	 ecx, DWORD PTR [edx-24]
  0000a	33 c8		 xor	 ecx, eax
  0000c	e8 00 00 00 00	 call	 @__security_check_cookie@4
  00011	b8 00 00 00 00	 mov	 eax, OFFSET __ehfuncinfo$??0?$vector@UBulletInfo@@V?$allocator@UBulletInfo@@@std@@@std@@QAE@ABV01@@Z
  00016	e9 00 00 00 00	 jmp	 ___CxxFrameHandler3
text$x	ENDS
??0?$vector@UBulletInfo@@V?$allocator@UBulletInfo@@@std@@@std@@QAE@ABV01@@Z ENDP ; std::vector<BulletInfo,std::allocator<BulletInfo> >::vector<BulletInfo,std::allocator<BulletInfo> >
PUBLIC	??1?$vector@UBulletInfo@@V?$allocator@UBulletInfo@@@std@@@std@@QAE@XZ ; std::vector<BulletInfo,std::allocator<BulletInfo> >::~vector<BulletInfo,std::allocator<BulletInfo> >
; Function compile flags: /Ogsp
;	COMDAT ??1?$vector@UBulletInfo@@V?$allocator@UBulletInfo@@@std@@@std@@QAE@XZ
_TEXT	SEGMENT
??1?$vector@UBulletInfo@@V?$allocator@UBulletInfo@@@std@@@std@@QAE@XZ PROC ; std::vector<BulletInfo,std::allocator<BulletInfo> >::~vector<BulletInfo,std::allocator<BulletInfo> >, COMDAT
; _this$ = ecx

; 705  : 		_Tidy();

  00000	e9 00 00 00 00	 jmp	 ?_Tidy@?$vector@UBulletInfo@@V?$allocator@UBulletInfo@@@std@@@std@@IAEXXZ ; std::vector<BulletInfo,std::allocator<BulletInfo> >::_Tidy
??1?$vector@UBulletInfo@@V?$allocator@UBulletInfo@@@std@@@std@@QAE@XZ ENDP ; std::vector<BulletInfo,std::allocator<BulletInfo> >::~vector<BulletInfo,std::allocator<BulletInfo> >
_TEXT	ENDS
PUBLIC	?_Reserve@?$vector@UBulletInfo@@V?$allocator@UBulletInfo@@@std@@@std@@IAEXI@Z ; std::vector<BulletInfo,std::allocator<BulletInfo> >::_Reserve
; Function compile flags: /Ogsp
;	COMDAT ?_Reserve@?$vector@UBulletInfo@@V?$allocator@UBulletInfo@@@std@@@std@@IAEXI@Z
_TEXT	SEGMENT
__Count$ = 8						; size = 4
?_Reserve@?$vector@UBulletInfo@@V?$allocator@UBulletInfo@@@std@@@std@@IAEXI@Z PROC ; std::vector<BulletInfo,std::allocator<BulletInfo> >::_Reserve, COMDAT
; _this$ = ecx

; 1290 : 		{	// ensure room for _Count new elements, grow exponentially

  00000	55		 push	 ebp
  00001	8b ec		 mov	 ebp, esp
  00003	56		 push	 esi
  00004	8b f1		 mov	 esi, ecx

; 1291 : 		size_type _Size = size();

  00006	8b 0e		 mov	 ecx, DWORD PTR [esi]
  00008	8b 46 04	 mov	 eax, DWORD PTR [esi+4]
  0000b	2b c1		 sub	 eax, ecx
  0000d	57		 push	 edi
  0000e	99		 cdq
  0000f	6a 14		 push	 20			; 00000014H
  00011	5f		 pop	 edi
  00012	f7 ff		 idiv	 edi
  00014	8b f8		 mov	 edi, eax

; 1292 : 		if (max_size() - _Count < _Size)

  00016	b8 cc cc cc 0c	 mov	 eax, 214748364		; 0cccccccH
  0001b	2b 45 08	 sub	 eax, DWORD PTR __Count$[ebp]
  0001e	3b c7		 cmp	 eax, edi
  00020	73 0b		 jae	 SHORT $LN4@Reserve

; 1293 : 			_Xlen();

  00022	68 00 00 00 00	 push	 OFFSET ??_C@_0BD@OLBABOEK@vector?$DMT?$DO?5too?5long?$AA@
  00027	ff 15 00 00 00
	00		 call	 DWORD PTR __imp_?_Xlength_error@std@@YAXPBD@Z
$LN21@Reserve:
$LN4@Reserve:

; 1294 : 		else if ((_Size += _Count) <= capacity())

  0002d	8b 46 08	 mov	 eax, DWORD PTR [esi+8]
  00030	2b c1		 sub	 eax, ecx
  00032	6a 14		 push	 20			; 00000014H
  00034	99		 cdq
  00035	59		 pop	 ecx
  00036	f7 f9		 idiv	 ecx
  00038	03 7d 08	 add	 edi, DWORD PTR __Count$[ebp]
  0003b	3b f8		 cmp	 edi, eax
  0003d	76 10		 jbe	 SHORT $LN1@Reserve

; 1295 : 			;
; 1296 : 		else
; 1297 : 			reserve(_Grow_to(_Size));

  0003f	57		 push	 edi
  00040	8b ce		 mov	 ecx, esi
  00042	e8 00 00 00 00	 call	 ?_Grow_to@?$vector@UBulletInfo@@V?$allocator@UBulletInfo@@@std@@@std@@IBEII@Z ; std::vector<BulletInfo,std::allocator<BulletInfo> >::_Grow_to
  00047	50		 push	 eax
  00048	8b ce		 mov	 ecx, esi
  0004a	e8 00 00 00 00	 call	 ?reserve@?$vector@UBulletInfo@@V?$allocator@UBulletInfo@@@std@@@std@@QAEXI@Z ; std::vector<BulletInfo,std::allocator<BulletInfo> >::reserve
$LN1@Reserve:
  0004f	5f		 pop	 edi
  00050	5e		 pop	 esi

; 1298 : 		}

  00051	5d		 pop	 ebp
  00052	c2 04 00	 ret	 4
$LN20@Reserve:
?_Reserve@?$vector@UBulletInfo@@V?$allocator@UBulletInfo@@@std@@@std@@IAEXI@Z ENDP ; std::vector<BulletInfo,std::allocator<BulletInfo> >::_Reserve
_TEXT	ENDS
PUBLIC	??0BulletSet@ioAliceObjectItem@@QAE@ABU01@@Z	; ioAliceObjectItem::BulletSet::BulletSet
; Function compile flags: /Ogsp
;	COMDAT ??0BulletSet@ioAliceObjectItem@@QAE@ABU01@@Z
_TEXT	SEGMENT
___that$ = 8						; size = 4
??0BulletSet@ioAliceObjectItem@@QAE@ABU01@@Z PROC	; ioAliceObjectItem::BulletSet::BulletSet, COMDAT
; _this$ = ecx
  00000	55		 push	 ebp
  00001	8b ec		 mov	 ebp, esp
  00003	8b 45 08	 mov	 eax, DWORD PTR ___that$[ebp]
  00006	56		 push	 esi
  00007	8b f1		 mov	 esi, ecx
  00009	8b 08		 mov	 ecx, DWORD PTR [eax]
  0000b	83 c0 04	 add	 eax, 4
  0000e	89 0e		 mov	 DWORD PTR [esi], ecx
  00010	50		 push	 eax
  00011	8d 4e 04	 lea	 ecx, DWORD PTR [esi+4]
  00014	e8 00 00 00 00	 call	 ??0?$vector@UBulletInfo@@V?$allocator@UBulletInfo@@@std@@@std@@QAE@ABV01@@Z ; std::vector<BulletInfo,std::allocator<BulletInfo> >::vector<BulletInfo,std::allocator<BulletInfo> >
  00019	8b c6		 mov	 eax, esi
  0001b	5e		 pop	 esi
  0001c	5d		 pop	 ebp
  0001d	c2 04 00	 ret	 4
??0BulletSet@ioAliceObjectItem@@QAE@ABU01@@Z ENDP	; ioAliceObjectItem::BulletSet::BulletSet
_TEXT	ENDS
PUBLIC	?construct@?$allocator@UBulletSet@ioAliceObjectItem@@@std@@QAEXPAUBulletSet@ioAliceObjectItem@@$$QAU34@@Z ; std::allocator<ioAliceObjectItem::BulletSet>::construct
EXTRN	__EH_prolog3:PROC
;	COMDAT xdata$x
; File c:\program files (x86)\microsoft visual studio 10.0\vc\include\xmemory
xdata$x	SEGMENT
__unwindtable$?construct@?$allocator@UBulletSet@ioAliceObjectItem@@@std@@QAEXPAUBulletSet@ioAliceObjectItem@@$$QAU34@@Z DD 0ffffffffH
	DD	FLAT:__unwindfunclet$?construct@?$allocator@UBulletSet@ioAliceObjectItem@@@std@@QAEXPAUBulletSet@ioAliceObjectItem@@$$QAU34@@Z$0
__ehfuncinfo$?construct@?$allocator@UBulletSet@ioAliceObjectItem@@@std@@QAEXPAUBulletSet@ioAliceObjectItem@@$$QAU34@@Z DD 019930522H
	DD	01H
	DD	FLAT:__unwindtable$?construct@?$allocator@UBulletSet@ioAliceObjectItem@@@std@@QAEXPAUBulletSet@ioAliceObjectItem@@$$QAU34@@Z
	DD	2 DUP(00H)
	DD	2 DUP(00H)
	DD	00H
	DD	01H
; Function compile flags: /Ogsp
xdata$x	ENDS
;	COMDAT ?construct@?$allocator@UBulletSet@ioAliceObjectItem@@@std@@QAEXPAUBulletSet@ioAliceObjectItem@@$$QAU34@@Z
_TEXT	SEGMENT
$T554098 = -16						; size = 4
__$EHRec$ = -12						; size = 12
__Ptr$ = 8						; size = 4
__Val$ = 12						; size = 4
?construct@?$allocator@UBulletSet@ioAliceObjectItem@@@std@@QAEXPAUBulletSet@ioAliceObjectItem@@$$QAU34@@Z PROC ; std::allocator<ioAliceObjectItem::BulletSet>::construct, COMDAT
; _this$ = ecx

; 201  : 		{	// construct object at _Ptr with value _Val

  00000	6a 04		 push	 4
  00002	b8 00 00 00 00	 mov	 eax, __ehhandler$?construct@?$allocator@UBulletSet@ioAliceObjectItem@@@std@@QAEXPAUBulletSet@ioAliceObjectItem@@$$QAU34@@Z
  00007	e8 00 00 00 00	 call	 __EH_prolog3

; 202  : 		::new ((void _FARQ *)_Ptr) _Ty(_STD forward<_Ty>(_Val));

  0000c	8b 45 08	 mov	 eax, DWORD PTR __Ptr$[ebp]
  0000f	89 45 f0	 mov	 DWORD PTR $T554098[ebp], eax
  00012	83 65 fc 00	 and	 DWORD PTR __$EHRec$[ebp+8], 0
  00016	85 c0		 test	 eax, eax
  00018	74 13		 je	 SHORT $LN3@construct@4
  0001a	8b 4d 0c	 mov	 ecx, DWORD PTR __Val$[ebp]
  0001d	8b 11		 mov	 edx, DWORD PTR [ecx]
  0001f	83 c1 04	 add	 ecx, 4
  00022	51		 push	 ecx
  00023	8d 48 04	 lea	 ecx, DWORD PTR [eax+4]
  00026	89 10		 mov	 DWORD PTR [eax], edx
  00028	e8 00 00 00 00	 call	 ??0?$vector@UBulletInfo@@V?$allocator@UBulletInfo@@@std@@@std@@QAE@ABV01@@Z ; std::vector<BulletInfo,std::allocator<BulletInfo> >::vector<BulletInfo,std::allocator<BulletInfo> >
$LN3@construct@4:

; 203  : 		}

  0002d	e8 00 00 00 00	 call	 __EH_epilog3
  00032	c2 08 00	 ret	 8
_TEXT	ENDS
;	COMDAT text$x
text$x	SEGMENT
__unwindfunclet$?construct@?$allocator@UBulletSet@ioAliceObjectItem@@@std@@QAEXPAUBulletSet@ioAliceObjectItem@@$$QAU34@@Z$0:
  00000	ff 75 08	 push	 DWORD PTR __Ptr$[ebp]
  00003	ff 75 f0	 push	 DWORD PTR $T554098[ebp]
  00006	e8 00 00 00 00	 call	 ??3@YAXPAX0@Z		; operator delete
  0000b	59		 pop	 ecx
  0000c	59		 pop	 ecx
  0000d	c3		 ret	 0
__ehhandler$?construct@?$allocator@UBulletSet@ioAliceObjectItem@@@std@@QAEXPAUBulletSet@ioAliceObjectItem@@$$QAU34@@Z:
  0000e	8b 54 24 08	 mov	 edx, DWORD PTR [esp+8]
  00012	8d 42 0c	 lea	 eax, DWORD PTR [edx+12]
  00015	8b 4a ec	 mov	 ecx, DWORD PTR [edx-20]
  00018	33 c8		 xor	 ecx, eax
  0001a	e8 00 00 00 00	 call	 @__security_check_cookie@4
  0001f	b8 00 00 00 00	 mov	 eax, OFFSET __ehfuncinfo$?construct@?$allocator@UBulletSet@ioAliceObjectItem@@@std@@QAEXPAUBulletSet@ioAliceObjectItem@@$$QAU34@@Z
  00024	e9 00 00 00 00	 jmp	 ___CxxFrameHandler3
text$x	ENDS
?construct@?$allocator@UBulletSet@ioAliceObjectItem@@@std@@QAEXPAUBulletSet@ioAliceObjectItem@@$$QAU34@@Z ENDP ; std::allocator<ioAliceObjectItem::BulletSet>::construct
PUBLIC	??0BulletSet@ioAliceObjectItem@@QAE@XZ		; ioAliceObjectItem::BulletSet::BulletSet
; Function compile flags: /Ogsp
; File d:\lost saga for developer\youtube\tutorial\source\src\lsclient\ioaliceobjectitem.h
;	COMDAT ??0BulletSet@ioAliceObjectItem@@QAE@XZ
_TEXT	SEGMENT
??0BulletSet@ioAliceObjectItem@@QAE@XZ PROC		; ioAliceObjectItem::BulletSet::BulletSet, COMDAT
; _this$ = ecx

; 16   : 		BulletSet()

  00000	8b c1		 mov	 eax, ecx
  00002	33 c9		 xor	 ecx, ecx
  00004	89 48 04	 mov	 DWORD PTR [eax+4], ecx
  00007	89 48 08	 mov	 DWORD PTR [eax+8], ecx
  0000a	89 48 0c	 mov	 DWORD PTR [eax+12], ecx

; 17   : 		{
; 18   : 			m_iMaxWeaponWay = 0;			

  0000d	89 08		 mov	 DWORD PTR [eax], ecx

; 19   : 		}

  0000f	c3		 ret	 0
??0BulletSet@ioAliceObjectItem@@QAE@XZ ENDP		; ioAliceObjectItem::BulletSet::BulletSet
_TEXT	ENDS
PUBLIC	??1BulletSet@ioAliceObjectItem@@QAE@XZ		; ioAliceObjectItem::BulletSet::~BulletSet
; Function compile flags: /Ogsp
;	COMDAT ??1BulletSet@ioAliceObjectItem@@QAE@XZ
_TEXT	SEGMENT
??1BulletSet@ioAliceObjectItem@@QAE@XZ PROC		; ioAliceObjectItem::BulletSet::~BulletSet, COMDAT
; _this$ = ecx
  00000	83 c1 04	 add	 ecx, 4
  00003	e9 00 00 00 00	 jmp	 ?_Tidy@?$vector@UBulletInfo@@V?$allocator@UBulletInfo@@@std@@@std@@IAEXXZ ; std::vector<BulletInfo,std::allocator<BulletInfo> >::_Tidy
??1BulletSet@ioAliceObjectItem@@QAE@XZ ENDP		; ioAliceObjectItem::BulletSet::~BulletSet
_TEXT	ENDS
PUBLIC	?push_back@?$vector@UBulletInfo@@V?$allocator@UBulletInfo@@@std@@@std@@QAEXABUBulletInfo@@@Z ; std::vector<BulletInfo,std::allocator<BulletInfo> >::push_back
; Function compile flags: /Ogsp
; File c:\program files (x86)\microsoft visual studio 10.0\vc\include\vector
;	COMDAT ?push_back@?$vector@UBulletInfo@@V?$allocator@UBulletInfo@@@std@@@std@@QAEXABUBulletInfo@@@Z
_TEXT	SEGMENT
__Val$ = 8						; size = 4
?push_back@?$vector@UBulletInfo@@V?$allocator@UBulletInfo@@@std@@@std@@QAEXABUBulletInfo@@@Z PROC ; std::vector<BulletInfo,std::allocator<BulletInfo> >::push_back, COMDAT
; _this$ = ecx

; 976  : 		{	// insert element at end

  00000	55		 push	 ebp
  00001	8b ec		 mov	 ebp, esp
  00003	56		 push	 esi
  00004	8b f1		 mov	 esi, ecx

; 977  : 		if (_Inside(_STD addressof(_Val)))

  00006	8b 4e 04	 mov	 ecx, DWORD PTR [esi+4]
  00009	57		 push	 edi
  0000a	8b 7d 08	 mov	 edi, DWORD PTR __Val$[ebp]
  0000d	3b f9		 cmp	 edi, ecx
  0000f	73 34		 jae	 SHORT $LN4@push_back
  00011	8b 16		 mov	 edx, DWORD PTR [esi]
  00013	3b d7		 cmp	 edx, edi
  00015	77 2e		 ja	 SHORT $LN4@push_back

; 978  : 			{	// push back an element
; 979  : 			size_type _Idx = _STD addressof(_Val) - this->_Myfirst;

  00017	8b c7		 mov	 eax, edi
  00019	2b c2		 sub	 eax, edx
  0001b	6a 14		 push	 20			; 00000014H
  0001d	99		 cdq
  0001e	5f		 pop	 edi
  0001f	f7 ff		 idiv	 edi
  00021	8b f8		 mov	 edi, eax

; 980  : 			if (this->_Mylast == this->_Myend)

  00023	3b 4e 08	 cmp	 ecx, DWORD PTR [esi+8]
  00026	75 09		 jne	 SHORT $LN3@push_back

; 981  : 				_Reserve(1);

  00028	6a 01		 push	 1
  0002a	8b ce		 mov	 ecx, esi
  0002c	e8 00 00 00 00	 call	 ?_Reserve@?$vector@UBulletInfo@@V?$allocator@UBulletInfo@@@std@@@std@@IAEXI@Z ; std::vector<BulletInfo,std::allocator<BulletInfo> >::_Reserve
$LN3@push_back:

; 982  : 			_Orphan_range(this->_Mylast, this->_Mylast);
; 983  : 			_Cons_val(this->_Alval,
; 984  : 				this->_Mylast,
; 985  : 				this->_Myfirst[_Idx]);

  00031	6b ff 14	 imul	 edi, 20			; 00000014H
  00034	03 3e		 add	 edi, DWORD PTR [esi]
  00036	8d 46 0c	 lea	 eax, DWORD PTR [esi+12]
  00039	57		 push	 edi
  0003a	ff 76 04	 push	 DWORD PTR [esi+4]
  0003d	50		 push	 eax
  0003e	e8 00 00 00 00	 call	 ??$_Cons_val@V?$allocator@UBulletInfo@@@std@@UBulletInfo@@AAU3@@std@@YAXAAV?$allocator@UBulletInfo@@@0@PAUBulletInfo@@AAU2@@Z ; std::_Cons_val<std::allocator<BulletInfo>,BulletInfo,BulletInfo &>

; 986  : 			++this->_Mylast;
; 987  : 			}
; 988  : 		else

  00043	eb 1b		 jmp	 SHORT $LN20@push_back
$LN4@push_back:

; 989  : 			{	// push back a non-element
; 990  : 			if (this->_Mylast == this->_Myend)

  00045	3b 4e 08	 cmp	 ecx, DWORD PTR [esi+8]
  00048	75 09		 jne	 SHORT $LN1@push_back

; 991  : 				_Reserve(1);

  0004a	6a 01		 push	 1
  0004c	8b ce		 mov	 ecx, esi
  0004e	e8 00 00 00 00	 call	 ?_Reserve@?$vector@UBulletInfo@@V?$allocator@UBulletInfo@@@std@@@std@@IAEXI@Z ; std::vector<BulletInfo,std::allocator<BulletInfo> >::_Reserve
$LN1@push_back:

; 992  : 			_Orphan_range(this->_Mylast, this->_Mylast);
; 993  : 			_Cons_val(this->_Alval,
; 994  : 				this->_Mylast,
; 995  : 				_Val);

  00053	57		 push	 edi
  00054	ff 76 04	 push	 DWORD PTR [esi+4]
  00057	8d 46 0c	 lea	 eax, DWORD PTR [esi+12]
  0005a	50		 push	 eax
  0005b	e8 00 00 00 00	 call	 ??$_Cons_val@V?$allocator@UBulletInfo@@@std@@UBulletInfo@@ABU3@@std@@YAXAAV?$allocator@UBulletInfo@@@0@PAUBulletInfo@@ABU2@@Z ; std::_Cons_val<std::allocator<BulletInfo>,BulletInfo,BulletInfo const &>
$LN20@push_back:
  00060	83 c4 0c	 add	 esp, 12			; 0000000cH

; 996  : 			++this->_Mylast;

  00063	83 46 04 14	 add	 DWORD PTR [esi+4], 20	; 00000014H
  00067	5f		 pop	 edi
  00068	5e		 pop	 esi

; 997  : 			}
; 998  : 		}

  00069	5d		 pop	 ebp
  0006a	c2 04 00	 ret	 4
?push_back@?$vector@UBulletInfo@@V?$allocator@UBulletInfo@@@std@@@std@@QAEXABUBulletInfo@@@Z ENDP ; std::vector<BulletInfo,std::allocator<BulletInfo> >::push_back
_TEXT	ENDS
PUBLIC	??$construct@AAUBulletSet@ioAliceObjectItem@@@?$allocator@UBulletSet@ioAliceObjectItem@@@std@@QAEXPAUBulletSet@ioAliceObjectItem@@AAU23@@Z ; std::allocator<ioAliceObjectItem::BulletSet>::construct<ioAliceObjectItem::BulletSet &>
;	COMDAT xdata$x
; File c:\program files (x86)\microsoft visual studio 10.0\vc\include\xmemory
xdata$x	SEGMENT
__unwindtable$??$construct@AAUBulletSet@ioAliceObjectItem@@@?$allocator@UBulletSet@ioAliceObjectItem@@@std@@QAEXPAUBulletSet@ioAliceObjectItem@@AAU23@@Z DD 0ffffffffH
	DD	FLAT:__unwindfunclet$??$construct@AAUBulletSet@ioAliceObjectItem@@@?$allocator@UBulletSet@ioAliceObjectItem@@@std@@QAEXPAUBulletSet@ioAliceObjectItem@@AAU23@@Z$0
__ehfuncinfo$??$construct@AAUBulletSet@ioAliceObjectItem@@@?$allocator@UBulletSet@ioAliceObjectItem@@@std@@QAEXPAUBulletSet@ioAliceObjectItem@@AAU23@@Z DD 019930522H
	DD	01H
	DD	FLAT:__unwindtable$??$construct@AAUBulletSet@ioAliceObjectItem@@@?$allocator@UBulletSet@ioAliceObjectItem@@@std@@QAEXPAUBulletSet@ioAliceObjectItem@@AAU23@@Z
	DD	2 DUP(00H)
	DD	2 DUP(00H)
	DD	00H
	DD	01H
; Function compile flags: /Ogsp
xdata$x	ENDS
;	COMDAT ??$construct@AAUBulletSet@ioAliceObjectItem@@@?$allocator@UBulletSet@ioAliceObjectItem@@@std@@QAEXPAUBulletSet@ioAliceObjectItem@@AAU23@@Z
_TEXT	SEGMENT
$T554187 = -16						; size = 4
__$EHRec$ = -12						; size = 12
__Ptr$ = 8						; size = 4
__Val$ = 12						; size = 4
??$construct@AAUBulletSet@ioAliceObjectItem@@@?$allocator@UBulletSet@ioAliceObjectItem@@@std@@QAEXPAUBulletSet@ioAliceObjectItem@@AAU23@@Z PROC ; std::allocator<ioAliceObjectItem::BulletSet>::construct<ioAliceObjectItem::BulletSet &>, COMDAT
; _this$ = ecx

; 206  : 		void construct(pointer _Ptr, _Other&& _Val)

  00000	6a 04		 push	 4
  00002	b8 00 00 00 00	 mov	 eax, __ehhandler$??$construct@AAUBulletSet@ioAliceObjectItem@@@?$allocator@UBulletSet@ioAliceObjectItem@@@std@@QAEXPAUBulletSet@ioAliceObjectItem@@AAU23@@Z
  00007	e8 00 00 00 00	 call	 __EH_prolog3

; 207  : 		{	// construct object at _Ptr with value _Val
; 208  : 		::new ((void _FARQ *)_Ptr) _Ty(_STD forward<_Other>(_Val));

  0000c	8b 45 08	 mov	 eax, DWORD PTR __Ptr$[ebp]
  0000f	89 45 f0	 mov	 DWORD PTR $T554187[ebp], eax
  00012	83 65 fc 00	 and	 DWORD PTR __$EHRec$[ebp+8], 0
  00016	85 c0		 test	 eax, eax
  00018	74 13		 je	 SHORT $LN3@construct@5
  0001a	8b 4d 0c	 mov	 ecx, DWORD PTR __Val$[ebp]
  0001d	8b 11		 mov	 edx, DWORD PTR [ecx]
  0001f	83 c1 04	 add	 ecx, 4
  00022	51		 push	 ecx
  00023	8d 48 04	 lea	 ecx, DWORD PTR [eax+4]
  00026	89 10		 mov	 DWORD PTR [eax], edx
  00028	e8 00 00 00 00	 call	 ??0?$vector@UBulletInfo@@V?$allocator@UBulletInfo@@@std@@@std@@QAE@ABV01@@Z ; std::vector<BulletInfo,std::allocator<BulletInfo> >::vector<BulletInfo,std::allocator<BulletInfo> >
$LN3@construct@5:

; 209  : 		}

  0002d	e8 00 00 00 00	 call	 __EH_epilog3
  00032	c2 08 00	 ret	 8
_TEXT	ENDS
;	COMDAT text$x
text$x	SEGMENT
__unwindfunclet$??$construct@AAUBulletSet@ioAliceObjectItem@@@?$allocator@UBulletSet@ioAliceObjectItem@@@std@@QAEXPAUBulletSet@ioAliceObjectItem@@AAU23@@Z$0:
  00000	ff 75 08	 push	 DWORD PTR __Ptr$[ebp]
  00003	ff 75 f0	 push	 DWORD PTR $T554187[ebp]
  00006	e8 00 00 00 00	 call	 ??3@YAXPAX0@Z		; operator delete
  0000b	59		 pop	 ecx
  0000c	59		 pop	 ecx
  0000d	c3		 ret	 0
__ehhandler$??$construct@AAUBulletSet@ioAliceObjectItem@@@?$allocator@UBulletSet@ioAliceObjectItem@@@std@@QAEXPAUBulletSet@ioAliceObjectItem@@AAU23@@Z:
  0000e	8b 54 24 08	 mov	 edx, DWORD PTR [esp+8]
  00012	8d 42 0c	 lea	 eax, DWORD PTR [edx+12]
  00015	8b 4a ec	 mov	 ecx, DWORD PTR [edx-20]
  00018	33 c8		 xor	 ecx, eax
  0001a	e8 00 00 00 00	 call	 @__security_check_cookie@4
  0001f	b8 00 00 00 00	 mov	 eax, OFFSET __ehfuncinfo$??$construct@AAUBulletSet@ioAliceObjectItem@@@?$allocator@UBulletSet@ioAliceObjectItem@@@std@@QAEXPAUBulletSet@ioAliceObjectItem@@AAU23@@Z
  00024	e9 00 00 00 00	 jmp	 ___CxxFrameHandler3
text$x	ENDS
??$construct@AAUBulletSet@ioAliceObjectItem@@@?$allocator@UBulletSet@ioAliceObjectItem@@@std@@QAEXPAUBulletSet@ioAliceObjectItem@@AAU23@@Z ENDP ; std::allocator<ioAliceObjectItem::BulletSet>::construct<ioAliceObjectItem::BulletSet &>
PUBLIC	??$_Construct@UBulletSet@ioAliceObjectItem@@ABU12@@std@@YAXPAUBulletSet@ioAliceObjectItem@@ABU12@@Z ; std::_Construct<ioAliceObjectItem::BulletSet,ioAliceObjectItem::BulletSet const &>
;	COMDAT xdata$x
xdata$x	SEGMENT
__unwindtable$??$_Construct@UBulletSet@ioAliceObjectItem@@ABU12@@std@@YAXPAUBulletSet@ioAliceObjectItem@@ABU12@@Z DD 0ffffffffH
	DD	FLAT:__unwindfunclet$??$_Construct@UBulletSet@ioAliceObjectItem@@ABU12@@std@@YAXPAUBulletSet@ioAliceObjectItem@@ABU12@@Z$0
__ehfuncinfo$??$_Construct@UBulletSet@ioAliceObjectItem@@ABU12@@std@@YAXPAUBulletSet@ioAliceObjectItem@@ABU12@@Z DD 019930522H
	DD	01H
	DD	FLAT:__unwindtable$??$_Construct@UBulletSet@ioAliceObjectItem@@ABU12@@std@@YAXPAUBulletSet@ioAliceObjectItem@@ABU12@@Z
	DD	2 DUP(00H)
	DD	2 DUP(00H)
	DD	00H
	DD	01H
; Function compile flags: /Ogsp
xdata$x	ENDS
;	COMDAT ??$_Construct@UBulletSet@ioAliceObjectItem@@ABU12@@std@@YAXPAUBulletSet@ioAliceObjectItem@@ABU12@@Z
_TEXT	SEGMENT
$T554210 = -16						; size = 4
__$EHRec$ = -12						; size = 12
__Vptr$ = 8						; size = 4
__Ptr$ = 8						; size = 4
__Val$ = 12						; size = 4
??$_Construct@UBulletSet@ioAliceObjectItem@@ABU12@@std@@YAXPAUBulletSet@ioAliceObjectItem@@ABU12@@Z PROC ; std::_Construct<ioAliceObjectItem::BulletSet,ioAliceObjectItem::BulletSet const &>, COMDAT

; 46   : 	{	// construct object at _Ptr with value _Val

  00000	6a 04		 push	 4
  00002	b8 00 00 00 00	 mov	 eax, __ehhandler$??$_Construct@UBulletSet@ioAliceObjectItem@@ABU12@@std@@YAXPAUBulletSet@ioAliceObjectItem@@ABU12@@Z
  00007	e8 00 00 00 00	 call	 __EH_prolog3

; 47   : 	void _FARQ *_Vptr = _Ptr;

  0000c	8b 45 08	 mov	 eax, DWORD PTR __Ptr$[ebp]
  0000f	89 45 08	 mov	 DWORD PTR __Vptr$[ebp], eax

; 48   : 	::new (_Vptr) _Ty1(_STD forward<_Ty2>(_Val));

  00012	89 45 f0	 mov	 DWORD PTR $T554210[ebp], eax
  00015	83 65 fc 00	 and	 DWORD PTR __$EHRec$[ebp+8], 0
  00019	85 c0		 test	 eax, eax
  0001b	74 13		 je	 SHORT $LN3@Construct@2
  0001d	8b 4d 0c	 mov	 ecx, DWORD PTR __Val$[ebp]
  00020	8b 11		 mov	 edx, DWORD PTR [ecx]
  00022	83 c1 04	 add	 ecx, 4
  00025	51		 push	 ecx
  00026	8d 48 04	 lea	 ecx, DWORD PTR [eax+4]
  00029	89 10		 mov	 DWORD PTR [eax], edx
  0002b	e8 00 00 00 00	 call	 ??0?$vector@UBulletInfo@@V?$allocator@UBulletInfo@@@std@@@std@@QAE@ABV01@@Z ; std::vector<BulletInfo,std::allocator<BulletInfo> >::vector<BulletInfo,std::allocator<BulletInfo> >
$LN3@Construct@2:

; 49   : 	}

  00030	e8 00 00 00 00	 call	 __EH_epilog3
  00035	c3		 ret	 0
_TEXT	ENDS
;	COMDAT text$x
text$x	SEGMENT
__unwindfunclet$??$_Construct@UBulletSet@ioAliceObjectItem@@ABU12@@std@@YAXPAUBulletSet@ioAliceObjectItem@@ABU12@@Z$0:
  00000	ff 75 08	 push	 DWORD PTR __Vptr$[ebp]
  00003	ff 75 f0	 push	 DWORD PTR $T554210[ebp]
  00006	e8 00 00 00 00	 call	 ??3@YAXPAX0@Z		; operator delete
  0000b	59		 pop	 ecx
  0000c	59		 pop	 ecx
  0000d	c3		 ret	 0
__ehhandler$??$_Construct@UBulletSet@ioAliceObjectItem@@ABU12@@std@@YAXPAUBulletSet@ioAliceObjectItem@@ABU12@@Z:
  0000e	8b 54 24 08	 mov	 edx, DWORD PTR [esp+8]
  00012	8d 42 0c	 lea	 eax, DWORD PTR [edx+12]
  00015	8b 4a ec	 mov	 ecx, DWORD PTR [edx-20]
  00018	33 c8		 xor	 ecx, eax
  0001a	e8 00 00 00 00	 call	 @__security_check_cookie@4
  0001f	b8 00 00 00 00	 mov	 eax, OFFSET __ehfuncinfo$??$_Construct@UBulletSet@ioAliceObjectItem@@ABU12@@std@@YAXPAUBulletSet@ioAliceObjectItem@@ABU12@@Z
  00024	e9 00 00 00 00	 jmp	 ___CxxFrameHandler3
text$x	ENDS
??$_Construct@UBulletSet@ioAliceObjectItem@@ABU12@@std@@YAXPAUBulletSet@ioAliceObjectItem@@ABU12@@Z ENDP ; std::_Construct<ioAliceObjectItem::BulletSet,ioAliceObjectItem::BulletSet const &>
PUBLIC	??$_Cons_val@V?$allocator@UBulletSet@ioAliceObjectItem@@@std@@UBulletSet@ioAliceObjectItem@@U34@@std@@YAXAAV?$allocator@UBulletSet@ioAliceObjectItem@@@0@PAUBulletSet@ioAliceObjectItem@@$$QAU23@@Z ; std::_Cons_val<std::allocator<ioAliceObjectItem::BulletSet>,ioAliceObjectItem::BulletSet,ioAliceObjectItem::BulletSet>
; Function compile flags: /Ogsp
;	COMDAT ??$_Cons_val@V?$allocator@UBulletSet@ioAliceObjectItem@@@std@@UBulletSet@ioAliceObjectItem@@U34@@std@@YAXAAV?$allocator@UBulletSet@ioAliceObjectItem@@@0@PAUBulletSet@ioAliceObjectItem@@$$QAU23@@Z
_TEXT	SEGMENT
__Alval$ = 8						; size = 4
__Pdest$ = 12						; size = 4
__Src$ = 16						; size = 4
??$_Cons_val@V?$allocator@UBulletSet@ioAliceObjectItem@@@std@@UBulletSet@ioAliceObjectItem@@U34@@std@@YAXAAV?$allocator@UBulletSet@ioAliceObjectItem@@@0@PAUBulletSet@ioAliceObjectItem@@$$QAU23@@Z PROC ; std::_Cons_val<std::allocator<ioAliceObjectItem::BulletSet>,ioAliceObjectItem::BulletSet,ioAliceObjectItem::BulletSet>, COMDAT

; 279  : 	{	// construct using allocator

  00000	55		 push	 ebp
  00001	8b ec		 mov	 ebp, esp

; 280  : 	_Alval.construct(_Pdest, _STD forward<_Ty2>(_Src));

  00003	ff 75 10	 push	 DWORD PTR __Src$[ebp]
  00006	8b 4d 08	 mov	 ecx, DWORD PTR __Alval$[ebp]
  00009	ff 75 0c	 push	 DWORD PTR __Pdest$[ebp]
  0000c	e8 00 00 00 00	 call	 ?construct@?$allocator@UBulletSet@ioAliceObjectItem@@@std@@QAEXPAUBulletSet@ioAliceObjectItem@@$$QAU34@@Z ; std::allocator<ioAliceObjectItem::BulletSet>::construct

; 281  : 	}

  00011	5d		 pop	 ebp
  00012	c3		 ret	 0
??$_Cons_val@V?$allocator@UBulletSet@ioAliceObjectItem@@@std@@UBulletSet@ioAliceObjectItem@@U34@@std@@YAXAAV?$allocator@UBulletSet@ioAliceObjectItem@@@0@PAUBulletSet@ioAliceObjectItem@@$$QAU23@@Z ENDP ; std::_Cons_val<std::allocator<ioAliceObjectItem::BulletSet>,ioAliceObjectItem::BulletSet,ioAliceObjectItem::BulletSet>
_TEXT	ENDS
PUBLIC	??_GBulletSet@ioAliceObjectItem@@QAEPAXI@Z	; ioAliceObjectItem::BulletSet::`scalar deleting destructor'
; Function compile flags: /Ogsp
;	COMDAT ??_GBulletSet@ioAliceObjectItem@@QAEPAXI@Z
_TEXT	SEGMENT
___flags$ = 8						; size = 4
??_GBulletSet@ioAliceObjectItem@@QAEPAXI@Z PROC		; ioAliceObjectItem::BulletSet::`scalar deleting destructor', COMDAT
; _this$ = ecx
  00000	55		 push	 ebp
  00001	8b ec		 mov	 ebp, esp
  00003	56		 push	 esi
  00004	8b f1		 mov	 esi, ecx
  00006	8d 4e 04	 lea	 ecx, DWORD PTR [esi+4]
  00009	e8 00 00 00 00	 call	 ?_Tidy@?$vector@UBulletInfo@@V?$allocator@UBulletInfo@@@std@@@std@@IAEXXZ ; std::vector<BulletInfo,std::allocator<BulletInfo> >::_Tidy
  0000e	f6 45 08 01	 test	 BYTE PTR ___flags$[ebp], 1
  00012	74 07		 je	 SHORT $LN1@scalar@2
  00014	56		 push	 esi
  00015	e8 00 00 00 00	 call	 ??3@YAXPAX@Z		; operator delete
  0001a	59		 pop	 ecx
$LN1@scalar@2:
  0001b	8b c6		 mov	 eax, esi
  0001d	5e		 pop	 esi
  0001e	5d		 pop	 ebp
  0001f	c2 04 00	 ret	 4
??_GBulletSet@ioAliceObjectItem@@QAEPAXI@Z ENDP		; ioAliceObjectItem::BulletSet::`scalar deleting destructor'
_TEXT	ENDS
PUBLIC	??$_Cons_val@V?$allocator@UBulletSet@ioAliceObjectItem@@@std@@UBulletSet@ioAliceObjectItem@@AAU34@@std@@YAXAAV?$allocator@UBulletSet@ioAliceObjectItem@@@0@PAUBulletSet@ioAliceObjectItem@@AAU23@@Z ; std::_Cons_val<std::allocator<ioAliceObjectItem::BulletSet>,ioAliceObjectItem::BulletSet,ioAliceObjectItem::BulletSet &>
; Function compile flags: /Ogsp
;	COMDAT ??$_Cons_val@V?$allocator@UBulletSet@ioAliceObjectItem@@@std@@UBulletSet@ioAliceObjectItem@@AAU34@@std@@YAXAAV?$allocator@UBulletSet@ioAliceObjectItem@@@0@PAUBulletSet@ioAliceObjectItem@@AAU23@@Z
_TEXT	SEGMENT
__Alval$ = 8						; size = 4
__Pdest$ = 12						; size = 4
__Src$ = 16						; size = 4
??$_Cons_val@V?$allocator@UBulletSet@ioAliceObjectItem@@@std@@UBulletSet@ioAliceObjectItem@@AAU34@@std@@YAXAAV?$allocator@UBulletSet@ioAliceObjectItem@@@0@PAUBulletSet@ioAliceObjectItem@@AAU23@@Z PROC ; std::_Cons_val<std::allocator<ioAliceObjectItem::BulletSet>,ioAliceObjectItem::BulletSet,ioAliceObjectItem::BulletSet &>, COMDAT

; 279  : 	{	// construct using allocator

  00000	55		 push	 ebp
  00001	8b ec		 mov	 ebp, esp

; 280  : 	_Alval.construct(_Pdest, _STD forward<_Ty2>(_Src));

  00003	ff 75 10	 push	 DWORD PTR __Src$[ebp]
  00006	8b 4d 08	 mov	 ecx, DWORD PTR __Alval$[ebp]
  00009	ff 75 0c	 push	 DWORD PTR __Pdest$[ebp]
  0000c	e8 00 00 00 00	 call	 ??$construct@AAUBulletSet@ioAliceObjectItem@@@?$allocator@UBulletSet@ioAliceObjectItem@@@std@@QAEXPAUBulletSet@ioAliceObjectItem@@AAU23@@Z ; std::allocator<ioAliceObjectItem::BulletSet>::construct<ioAliceObjectItem::BulletSet &>

; 281  : 	}

  00011	5d		 pop	 ebp
  00012	c3		 ret	 0
??$_Cons_val@V?$allocator@UBulletSet@ioAliceObjectItem@@@std@@UBulletSet@ioAliceObjectItem@@AAU34@@std@@YAXAAV?$allocator@UBulletSet@ioAliceObjectItem@@@0@PAUBulletSet@ioAliceObjectItem@@AAU23@@Z ENDP ; std::_Cons_val<std::allocator<ioAliceObjectItem::BulletSet>,ioAliceObjectItem::BulletSet,ioAliceObjectItem::BulletSet &>
_TEXT	ENDS
PUBLIC	?construct@?$allocator@UBulletSet@ioAliceObjectItem@@@std@@QAEXPAUBulletSet@ioAliceObjectItem@@ABU34@@Z ; std::allocator<ioAliceObjectItem::BulletSet>::construct
; Function compile flags: /Ogsp
;	COMDAT ?construct@?$allocator@UBulletSet@ioAliceObjectItem@@@std@@QAEXPAUBulletSet@ioAliceObjectItem@@ABU34@@Z
_TEXT	SEGMENT
__Ptr$ = 8						; size = 4
__Val$ = 12						; size = 4
?construct@?$allocator@UBulletSet@ioAliceObjectItem@@@std@@QAEXPAUBulletSet@ioAliceObjectItem@@ABU34@@Z PROC ; std::allocator<ioAliceObjectItem::BulletSet>::construct, COMDAT
; _this$ = ecx

; 196  : 		{	// construct object at _Ptr with value _Val

  00000	55		 push	 ebp
  00001	8b ec		 mov	 ebp, esp

; 197  : 		_Construct(_Ptr, _Val);

  00003	ff 75 0c	 push	 DWORD PTR __Val$[ebp]
  00006	ff 75 08	 push	 DWORD PTR __Ptr$[ebp]
  00009	e8 00 00 00 00	 call	 ??$_Construct@UBulletSet@ioAliceObjectItem@@ABU12@@std@@YAXPAUBulletSet@ioAliceObjectItem@@ABU12@@Z ; std::_Construct<ioAliceObjectItem::BulletSet,ioAliceObjectItem::BulletSet const &>
  0000e	59		 pop	 ecx
  0000f	59		 pop	 ecx

; 198  : 		}

  00010	5d		 pop	 ebp
  00011	c2 08 00	 ret	 8
?construct@?$allocator@UBulletSet@ioAliceObjectItem@@@std@@QAEXPAUBulletSet@ioAliceObjectItem@@ABU34@@Z ENDP ; std::allocator<ioAliceObjectItem::BulletSet>::construct
_TEXT	ENDS
PUBLIC	??$_Destroy@UBulletSet@ioAliceObjectItem@@@std@@YAXPAUBulletSet@ioAliceObjectItem@@@Z ; std::_Destroy<ioAliceObjectItem::BulletSet>
; Function compile flags: /Ogsp
;	COMDAT ??$_Destroy@UBulletSet@ioAliceObjectItem@@@std@@YAXPAUBulletSet@ioAliceObjectItem@@@Z
_TEXT	SEGMENT
__Ptr$ = 8						; size = 4
??$_Destroy@UBulletSet@ioAliceObjectItem@@@std@@YAXPAUBulletSet@ioAliceObjectItem@@@Z PROC ; std::_Destroy<ioAliceObjectItem::BulletSet>, COMDAT

; 62   : 	{	// destroy object at _Ptr

  00000	55		 push	 ebp
  00001	8b ec		 mov	 ebp, esp

; 63   : 	_Ptr->~_Ty();

  00003	8b 4d 08	 mov	 ecx, DWORD PTR __Ptr$[ebp]
  00006	83 c1 04	 add	 ecx, 4

; 64   : 	}

  00009	5d		 pop	 ebp

; 63   : 	_Ptr->~_Ty();

  0000a	e9 00 00 00 00	 jmp	 ?_Tidy@?$vector@UBulletInfo@@V?$allocator@UBulletInfo@@@std@@@std@@IAEXXZ ; std::vector<BulletInfo,std::allocator<BulletInfo> >::_Tidy
??$_Destroy@UBulletSet@ioAliceObjectItem@@@std@@YAXPAUBulletSet@ioAliceObjectItem@@@Z ENDP ; std::_Destroy<ioAliceObjectItem::BulletSet>
_TEXT	ENDS
PUBLIC	??$_Cons_val@V?$allocator@UBulletSet@ioAliceObjectItem@@@std@@UBulletSet@ioAliceObjectItem@@ABU34@@std@@YAXAAV?$allocator@UBulletSet@ioAliceObjectItem@@@0@PAUBulletSet@ioAliceObjectItem@@ABU23@@Z ; std::_Cons_val<std::allocator<ioAliceObjectItem::BulletSet>,ioAliceObjectItem::BulletSet,ioAliceObjectItem::BulletSet const &>
; Function compile flags: /Ogsp
;	COMDAT ??$_Cons_val@V?$allocator@UBulletSet@ioAliceObjectItem@@@std@@UBulletSet@ioAliceObjectItem@@ABU34@@std@@YAXAAV?$allocator@UBulletSet@ioAliceObjectItem@@@0@PAUBulletSet@ioAliceObjectItem@@ABU23@@Z
_TEXT	SEGMENT
__Alval$ = 8						; size = 4
__Pdest$ = 12						; size = 4
__Src$ = 16						; size = 4
??$_Cons_val@V?$allocator@UBulletSet@ioAliceObjectItem@@@std@@UBulletSet@ioAliceObjectItem@@ABU34@@std@@YAXAAV?$allocator@UBulletSet@ioAliceObjectItem@@@0@PAUBulletSet@ioAliceObjectItem@@ABU23@@Z PROC ; std::_Cons_val<std::allocator<ioAliceObjectItem::BulletSet>,ioAliceObjectItem::BulletSet,ioAliceObjectItem::BulletSet const &>, COMDAT

; 279  : 	{	// construct using allocator

  00000	55		 push	 ebp
  00001	8b ec		 mov	 ebp, esp

; 280  : 	_Alval.construct(_Pdest, _STD forward<_Ty2>(_Src));

  00003	ff 75 10	 push	 DWORD PTR __Src$[ebp]
  00006	ff 75 0c	 push	 DWORD PTR __Pdest$[ebp]
  00009	e8 00 00 00 00	 call	 ??$_Construct@UBulletSet@ioAliceObjectItem@@ABU12@@std@@YAXPAUBulletSet@ioAliceObjectItem@@ABU12@@Z ; std::_Construct<ioAliceObjectItem::BulletSet,ioAliceObjectItem::BulletSet const &>
  0000e	59		 pop	 ecx
  0000f	59		 pop	 ecx

; 281  : 	}

  00010	5d		 pop	 ebp
  00011	c3		 ret	 0
??$_Cons_val@V?$allocator@UBulletSet@ioAliceObjectItem@@@std@@UBulletSet@ioAliceObjectItem@@ABU34@@std@@YAXAAV?$allocator@UBulletSet@ioAliceObjectItem@@@0@PAUBulletSet@ioAliceObjectItem@@ABU23@@Z ENDP ; std::_Cons_val<std::allocator<ioAliceObjectItem::BulletSet>,ioAliceObjectItem::BulletSet,ioAliceObjectItem::BulletSet const &>
_TEXT	ENDS
PUBLIC	?destroy@?$allocator@UBulletSet@ioAliceObjectItem@@@std@@QAEXPAUBulletSet@ioAliceObjectItem@@@Z ; std::allocator<ioAliceObjectItem::BulletSet>::destroy
; Function compile flags: /Ogsp
;	COMDAT ?destroy@?$allocator@UBulletSet@ioAliceObjectItem@@@std@@QAEXPAUBulletSet@ioAliceObjectItem@@@Z
_TEXT	SEGMENT
__Ptr$ = 8						; size = 4
?destroy@?$allocator@UBulletSet@ioAliceObjectItem@@@std@@QAEXPAUBulletSet@ioAliceObjectItem@@@Z PROC ; std::allocator<ioAliceObjectItem::BulletSet>::destroy, COMDAT
; _this$ = ecx

; 212  : 		{	// destroy object at _Ptr

  00000	55		 push	 ebp
  00001	8b ec		 mov	 ebp, esp

; 213  : 		_Destroy(_Ptr);

  00003	8b 4d 08	 mov	 ecx, DWORD PTR __Ptr$[ebp]
  00006	83 c1 04	 add	 ecx, 4
  00009	e8 00 00 00 00	 call	 ?_Tidy@?$vector@UBulletInfo@@V?$allocator@UBulletInfo@@@std@@@std@@IAEXXZ ; std::vector<BulletInfo,std::allocator<BulletInfo> >::_Tidy

; 214  : 		}

  0000e	5d		 pop	 ebp
  0000f	c2 04 00	 ret	 4
?destroy@?$allocator@UBulletSet@ioAliceObjectItem@@@std@@QAEXPAUBulletSet@ioAliceObjectItem@@@Z ENDP ; std::allocator<ioAliceObjectItem::BulletSet>::destroy
_TEXT	ENDS
PUBLIC	??$_Dest_val@V?$allocator@UBulletSet@ioAliceObjectItem@@@std@@UBulletSet@ioAliceObjectItem@@@std@@YAXAAV?$allocator@UBulletSet@ioAliceObjectItem@@@0@PAUBulletSet@ioAliceObjectItem@@@Z ; std::_Dest_val<std::allocator<ioAliceObjectItem::BulletSet>,ioAliceObjectItem::BulletSet>
; Function compile flags: /Ogsp
;	COMDAT ??$_Dest_val@V?$allocator@UBulletSet@ioAliceObjectItem@@@std@@UBulletSet@ioAliceObjectItem@@@std@@YAXAAV?$allocator@UBulletSet@ioAliceObjectItem@@@0@PAUBulletSet@ioAliceObjectItem@@@Z
_TEXT	SEGMENT
__Alval$ = 8						; size = 4
__Pdest$ = 12						; size = 4
??$_Dest_val@V?$allocator@UBulletSet@ioAliceObjectItem@@@std@@UBulletSet@ioAliceObjectItem@@@std@@YAXAAV?$allocator@UBulletSet@ioAliceObjectItem@@@0@PAUBulletSet@ioAliceObjectItem@@@Z PROC ; std::_Dest_val<std::allocator<ioAliceObjectItem::BulletSet>,ioAliceObjectItem::BulletSet>, COMDAT

; 286  : 	{	// destroy using allocator

  00000	55		 push	 ebp
  00001	8b ec		 mov	 ebp, esp

; 287  : 	_Alval.destroy(_Pdest);

  00003	8b 4d 0c	 mov	 ecx, DWORD PTR __Pdest$[ebp]
  00006	83 c1 04	 add	 ecx, 4

; 288  : 	}

  00009	5d		 pop	 ebp

; 287  : 	_Alval.destroy(_Pdest);

  0000a	e9 00 00 00 00	 jmp	 ?_Tidy@?$vector@UBulletInfo@@V?$allocator@UBulletInfo@@@std@@@std@@IAEXXZ ; std::vector<BulletInfo,std::allocator<BulletInfo> >::_Tidy
??$_Dest_val@V?$allocator@UBulletSet@ioAliceObjectItem@@@std@@UBulletSet@ioAliceObjectItem@@@std@@YAXAAV?$allocator@UBulletSet@ioAliceObjectItem@@@0@PAUBulletSet@ioAliceObjectItem@@@Z ENDP ; std::_Dest_val<std::allocator<ioAliceObjectItem::BulletSet>,ioAliceObjectItem::BulletSet>
_TEXT	ENDS
PUBLIC	??$_Destroy_range@V?$allocator@UBulletSet@ioAliceObjectItem@@@std@@@std@@YAXPAUBulletSet@ioAliceObjectItem@@0AAV?$allocator@UBulletSet@ioAliceObjectItem@@@0@U_Nonscalar_ptr_iterator_tag@0@@Z ; std::_Destroy_range<std::allocator<ioAliceObjectItem::BulletSet> >
; Function compile flags: /Ogsp
;	COMDAT ??$_Destroy_range@V?$allocator@UBulletSet@ioAliceObjectItem@@@std@@@std@@YAXPAUBulletSet@ioAliceObjectItem@@0AAV?$allocator@UBulletSet@ioAliceObjectItem@@@0@U_Nonscalar_ptr_iterator_tag@0@@Z
_TEXT	SEGMENT
__First$ = 8						; size = 4
__Last$ = 12						; size = 4
__Al$ = 16						; size = 4
___formal$ = 20						; size = 1
??$_Destroy_range@V?$allocator@UBulletSet@ioAliceObjectItem@@@std@@@std@@YAXPAUBulletSet@ioAliceObjectItem@@0AAV?$allocator@UBulletSet@ioAliceObjectItem@@@0@U_Nonscalar_ptr_iterator_tag@0@@Z PROC ; std::_Destroy_range<std::allocator<ioAliceObjectItem::BulletSet> >, COMDAT

; 95   : 	{	// destroy [_First, _Last), arbitrary type

  00000	55		 push	 ebp
  00001	8b ec		 mov	 ebp, esp
  00003	56		 push	 esi

; 96   : 	for (; _First != _Last; ++_First)

  00004	8b 75 08	 mov	 esi, DWORD PTR __First$[ebp]
  00007	eb 0b		 jmp	 SHORT $LN24@Destroy_ra
$LL3@Destroy_ra:

; 97   : 		_Dest_val(_Al, _First);

  00009	8d 4e 04	 lea	 ecx, DWORD PTR [esi+4]
  0000c	e8 00 00 00 00	 call	 ?_Tidy@?$vector@UBulletInfo@@V?$allocator@UBulletInfo@@@std@@@std@@IAEXXZ ; std::vector<BulletInfo,std::allocator<BulletInfo> >::_Tidy
  00011	83 c6 14	 add	 esi, 20			; 00000014H
$LN24@Destroy_ra:

; 96   : 	for (; _First != _Last; ++_First)

  00014	3b 75 0c	 cmp	 esi, DWORD PTR __Last$[ebp]
  00017	75 f0		 jne	 SHORT $LL3@Destroy_ra
  00019	5e		 pop	 esi

; 98   : 	}

  0001a	5d		 pop	 ebp
  0001b	c3		 ret	 0
??$_Destroy_range@V?$allocator@UBulletSet@ioAliceObjectItem@@@std@@@std@@YAXPAUBulletSet@ioAliceObjectItem@@0AAV?$allocator@UBulletSet@ioAliceObjectItem@@@0@U_Nonscalar_ptr_iterator_tag@0@@Z ENDP ; std::_Destroy_range<std::allocator<ioAliceObjectItem::BulletSet> >
_TEXT	ENDS
PUBLIC	??$_Uninit_copy@V?$_Vector_const_iterator@V?$_Vector_val@UBulletSet@ioAliceObjectItem@@V?$allocator@UBulletSet@ioAliceObjectItem@@@std@@@std@@@std@@PAUBulletSet@ioAliceObjectItem@@V?$allocator@UBulletSet@ioAliceObjectItem@@@2@@std@@YAPAUBulletSet@ioAliceObjectItem@@V?$_Vector_const_iterator@V?$_Vector_val@UBulletSet@ioAliceObjectItem@@V?$allocator@UBulletSet@ioAliceObjectItem@@@std@@@std@@@0@0PAU12@AAV?$allocator@UBulletSet@ioAliceObjectItem@@@0@U_Nonscalar_ptr_iterator_tag@0@@Z ; std::_Uninit_copy<std::_Vector_const_iterator<std::_Vector_val<ioAliceObjectItem::BulletSet,std::allocator<ioAliceObjectItem::BulletSet> > >,ioAliceObjectItem::BulletSet *,std::allocator<ioAliceObjectItem::BulletSet> >
;	COMDAT xdata$x
; File c:\program files (x86)\microsoft visual studio 10.0\vc\include\vector
xdata$x	SEGMENT
__catchsym$??$_Uninit_copy@V?$_Vector_const_iterator@V?$_Vector_val@UBulletSet@ioAliceObjectItem@@V?$allocator@UBulletSet@ioAliceObjectItem@@@std@@@std@@@std@@PAUBulletSet@ioAliceObjectItem@@V?$allocator@UBulletSet@ioAliceObjectItem@@@2@@std@@YAPAUBulletSet@ioAliceObjectItem@@V?$_Vector_const_iterator@V?$_Vector_val@UBulletSet@ioAliceObjectItem@@V?$allocator@UBulletSet@ioAliceObjectItem@@@std@@@std@@@0@0PAU12@AAV?$allocator@UBulletSet@ioAliceObjectItem@@@0@U_Nonscalar_ptr_iterator_tag@0@@Z$3 DD 040H
	DD	00H
	DD	00H
	DD	FLAT:__catch$??$_Uninit_copy@V?$_Vector_const_iterator@V?$_Vector_val@UBulletSet@ioAliceObjectItem@@V?$allocator@UBulletSet@ioAliceObjectItem@@@std@@@std@@@std@@PAUBulletSet@ioAliceObjectItem@@V?$allocator@UBulletSet@ioAliceObjectItem@@@2@@std@@YAPAUBulletSet@ioAliceObjectItem@@V?$_Vector_const_iterator@V?$_Vector_val@UBulletSet@ioAliceObjectItem@@V?$allocator@UBulletSet@ioAliceObjectItem@@@std@@@std@@@0@0PAU12@AAV?$allocator@UBulletSet@ioAliceObjectItem@@@0@U_Nonscalar_ptr_iterator_tag@0@@Z$0
__unwindtable$??$_Uninit_copy@V?$_Vector_const_iterator@V?$_Vector_val@UBulletSet@ioAliceObjectItem@@V?$allocator@UBulletSet@ioAliceObjectItem@@@std@@@std@@@std@@PAUBulletSet@ioAliceObjectItem@@V?$allocator@UBulletSet@ioAliceObjectItem@@@2@@std@@YAPAUBulletSet@ioAliceObjectItem@@V?$_Vector_const_iterator@V?$_Vector_val@UBulletSet@ioAliceObjectItem@@V?$allocator@UBulletSet@ioAliceObjectItem@@@std@@@std@@@0@0PAU12@AAV?$allocator@UBulletSet@ioAliceObjectItem@@@0@U_Nonscalar_ptr_iterator_tag@0@@Z DD 0ffffffffH
	DD	00H
	DD	0ffffffffH
	DD	00H
__tryblocktable$??$_Uninit_copy@V?$_Vector_const_iterator@V?$_Vector_val@UBulletSet@ioAliceObjectItem@@V?$allocator@UBulletSet@ioAliceObjectItem@@@std@@@std@@@std@@PAUBulletSet@ioAliceObjectItem@@V?$allocator@UBulletSet@ioAliceObjectItem@@@2@@std@@YAPAUBulletSet@ioAliceObjectItem@@V?$_Vector_const_iterator@V?$_Vector_val@UBulletSet@ioAliceObjectItem@@V?$allocator@UBulletSet@ioAliceObjectItem@@@std@@@std@@@0@0PAU12@AAV?$allocator@UBulletSet@ioAliceObjectItem@@@0@U_Nonscalar_ptr_iterator_tag@0@@Z DD 00H
	DD	00H
	DD	01H
	DD	01H
	DD	FLAT:__catchsym$??$_Uninit_copy@V?$_Vector_const_iterator@V?$_Vector_val@UBulletSet@ioAliceObjectItem@@V?$allocator@UBulletSet@ioAliceObjectItem@@@std@@@std@@@std@@PAUBulletSet@ioAliceObjectItem@@V?$allocator@UBulletSet@ioAliceObjectItem@@@2@@std@@YAPAUBulletSet@ioAliceObjectItem@@V?$_Vector_const_iterator@V?$_Vector_val@UBulletSet@ioAliceObjectItem@@V?$allocator@UBulletSet@ioAliceObjectItem@@@std@@@std@@@0@0PAU12@AAV?$allocator@UBulletSet@ioAliceObjectItem@@@0@U_Nonscalar_ptr_iterator_tag@0@@Z$3
__ehfuncinfo$??$_Uninit_copy@V?$_Vector_const_iterator@V?$_Vector_val@UBulletSet@ioAliceObjectItem@@V?$allocator@UBulletSet@ioAliceObjectItem@@@std@@@std@@@std@@PAUBulletSet@ioAliceObjectItem@@V?$allocator@UBulletSet@ioAliceObjectItem@@@2@@std@@YAPAUBulletSet@ioAliceObjectItem@@V?$_Vector_const_iterator@V?$_Vector_val@UBulletSet@ioAliceObjectItem@@V?$allocator@UBulletSet@ioAliceObjectItem@@@std@@@std@@@0@0PAU12@AAV?$allocator@UBulletSet@ioAliceObjectItem@@@0@U_Nonscalar_ptr_iterator_tag@0@@Z DD 019930522H
	DD	02H
	DD	FLAT:__unwindtable$??$_Uninit_copy@V?$_Vector_const_iterator@V?$_Vector_val@UBulletSet@ioAliceObjectItem@@V?$allocator@UBulletSet@ioAliceObjectItem@@@std@@@std@@@std@@PAUBulletSet@ioAliceObjectItem@@V?$allocator@UBulletSet@ioAliceObjectItem@@@2@@std@@YAPAUBulletSet@ioAliceObjectItem@@V?$_Vector_const_iterator@V?$_Vector_val@UBulletSet@ioAliceObjectItem@@V?$allocator@UBulletSet@ioAliceObjectItem@@@std@@@std@@@0@0PAU12@AAV?$allocator@UBulletSet@ioAliceObjectItem@@@0@U_Nonscalar_ptr_iterator_tag@0@@Z
	DD	01H
	DD	FLAT:__tryblocktable$??$_Uninit_copy@V?$_Vector_const_iterator@V?$_Vector_val@UBulletSet@ioAliceObjectItem@@V?$allocator@UBulletSet@ioAliceObjectItem@@@std@@@std@@@std@@PAUBulletSet@ioAliceObjectItem@@V?$allocator@UBulletSet@ioAliceObjectItem@@@2@@std@@YAPAUBulletSet@ioAliceObjectItem@@V?$_Vector_const_iterator@V?$_Vector_val@UBulletSet@ioAliceObjectItem@@V?$allocator@UBulletSet@ioAliceObjectItem@@@std@@@std@@@0@0PAU12@AAV?$allocator@UBulletSet@ioAliceObjectItem@@@0@U_Nonscalar_ptr_iterator_tag@0@@Z
	DD	2 DUP(00H)
	DD	00H
	DD	01H
; Function compile flags: /Ogsp
; File c:\program files (x86)\microsoft visual studio 10.0\vc\include\memory
xdata$x	ENDS
;	COMDAT ??$_Uninit_copy@V?$_Vector_const_iterator@V?$_Vector_val@UBulletSet@ioAliceObjectItem@@V?$allocator@UBulletSet@ioAliceObjectItem@@@std@@@std@@@std@@PAUBulletSet@ioAliceObjectItem@@V?$allocator@UBulletSet@ioAliceObjectItem@@@2@@std@@YAPAUBulletSet@ioAliceObjectItem@@V?$_Vector_const_iterator@V?$_Vector_val@UBulletSet@ioAliceObjectItem@@V?$allocator@UBulletSet@ioAliceObjectItem@@@std@@@std@@@0@0PAU12@AAV?$allocator@UBulletSet@ioAliceObjectItem@@@0@U_Nonscalar_ptr_iterator_tag@0@@Z
_TEXT	SEGMENT
__Next$ = -20						; size = 4
__$EHRec$ = -16						; size = 16
__First$ = 8						; size = 4
__Last$ = 12						; size = 4
__Dest$ = 16						; size = 4
__Al$ = 20						; size = 4
___formal$ = 24						; size = 1
??$_Uninit_copy@V?$_Vector_const_iterator@V?$_Vector_val@UBulletSet@ioAliceObjectItem@@V?$allocator@UBulletSet@ioAliceObjectItem@@@std@@@std@@@std@@PAUBulletSet@ioAliceObjectItem@@V?$allocator@UBulletSet@ioAliceObjectItem@@@2@@std@@YAPAUBulletSet@ioAliceObjectItem@@V?$_Vector_const_iterator@V?$_Vector_val@UBulletSet@ioAliceObjectItem@@V?$allocator@UBulletSet@ioAliceObjectItem@@@std@@@std@@@0@0PAU12@AAV?$allocator@UBulletSet@ioAliceObjectItem@@@0@U_Nonscalar_ptr_iterator_tag@0@@Z PROC ; std::_Uninit_copy<std::_Vector_const_iterator<std::_Vector_val<ioAliceObjectItem::BulletSet,std::allocator<ioAliceObjectItem::BulletSet> > >,ioAliceObjectItem::BulletSet *,std::allocator<ioAliceObjectItem::BulletSet> >, COMDAT

; 369  : 	{	// copy [_First, _Last) to raw _Dest, using _Al, arbitrary type

  00000	6a 08		 push	 8
  00002	b8 00 00 00 00	 mov	 eax, __ehhandler$??$_Uninit_copy@V?$_Vector_const_iterator@V?$_Vector_val@UBulletSet@ioAliceObjectItem@@V?$allocator@UBulletSet@ioAliceObjectItem@@@std@@@std@@@std@@PAUBulletSet@ioAliceObjectItem@@V?$allocator@UBulletSet@ioAliceObjectItem@@@2@@std@@YAPAUBulletSet@ioAliceObjectItem@@V?$_Vector_const_iterator@V?$_Vector_val@UBulletSet@ioAliceObjectItem@@V?$allocator@UBulletSet@ioAliceObjectItem@@@std@@@std@@@0@0PAU12@AAV?$allocator@UBulletSet@ioAliceObjectItem@@@0@U_Nonscalar_ptr_iterator_tag@0@@Z
  00007	e8 00 00 00 00	 call	 __EH_prolog3_catch

; 370  : 	_DEBUG_RANGE(_First, _Last);
; 371  : 	_DEBUG_POINTER(_Dest);
; 372  : 	_FwdIt _Next = _Dest;

  0000c	8b 45 10	 mov	 eax, DWORD PTR __Dest$[ebp]

; 373  : 
; 374  : 	_TRY_BEGIN

  0000f	83 65 fc 00	 and	 DWORD PTR __$EHRec$[ebp+12], 0
  00013	89 45 ec	 mov	 DWORD PTR __Next$[ebp], eax

; 375  : 	for (; _First != _Last; ++_Dest, ++_First)

$LL14@Uninit_cop@2:
  00016	8b 45 08	 mov	 eax, DWORD PTR __First$[ebp]
  00019	3b 45 0c	 cmp	 eax, DWORD PTR __Last$[ebp]
  0001c	74 33		 je	 SHORT $LN4@Uninit_cop@2

; 376  : 		_Cons_val(_Al, _Dest, *_First);

  0001e	50		 push	 eax
  0001f	ff 75 10	 push	 DWORD PTR __Dest$[ebp]
  00022	e8 00 00 00 00	 call	 ??$_Construct@UBulletSet@ioAliceObjectItem@@ABU12@@std@@YAXPAUBulletSet@ioAliceObjectItem@@ABU12@@Z ; std::_Construct<ioAliceObjectItem::BulletSet,ioAliceObjectItem::BulletSet const &>
  00027	83 45 10 14	 add	 DWORD PTR __Dest$[ebp], 20 ; 00000014H
  0002b	83 45 08 14	 add	 DWORD PTR __First$[ebp], 20 ; 00000014H
  0002f	59		 pop	 ecx
  00030	59		 pop	 ecx
  00031	eb e3		 jmp	 SHORT $LL14@Uninit_cop@2
__catch$??$_Uninit_copy@V?$_Vector_const_iterator@V?$_Vector_val@UBulletSet@ioAliceObjectItem@@V?$allocator@UBulletSet@ioAliceObjectItem@@@std@@@std@@@std@@PAUBulletSet@ioAliceObjectItem@@V?$allocator@UBulletSet@ioAliceObjectItem@@@2@@std@@YAPAUBulletSet@ioAliceObjectItem@@V?$_Vector_const_iterator@V?$_Vector_val@UBulletSet@ioAliceObjectItem@@V?$allocator@UBulletSet@ioAliceObjectItem@@@std@@@std@@@0@0PAU12@AAV?$allocator@UBulletSet@ioAliceObjectItem@@@0@U_Nonscalar_ptr_iterator_tag@0@@Z$0:

; 377  : 	_CATCH_ALL
; 378  : 	for (; _Next != _Dest; ++_Next)

  00033	8b 75 ec	 mov	 esi, DWORD PTR __Next$[ebp]
  00036	eb 0b		 jmp	 SHORT $LN52@Uninit_cop@2
$LL3@Uninit_cop@2:

; 379  : 		_Dest_val(_Al, _Next);

  00038	8d 4e 04	 lea	 ecx, DWORD PTR [esi+4]
  0003b	e8 00 00 00 00	 call	 ?_Tidy@?$vector@UBulletInfo@@V?$allocator@UBulletInfo@@@std@@@std@@IAEXXZ ; std::vector<BulletInfo,std::allocator<BulletInfo> >::_Tidy
  00040	83 c6 14	 add	 esi, 20			; 00000014H
$LN52@Uninit_cop@2:

; 377  : 	_CATCH_ALL
; 378  : 	for (; _Next != _Dest; ++_Next)

  00043	3b 75 10	 cmp	 esi, DWORD PTR __Dest$[ebp]
  00046	75 f0		 jne	 SHORT $LL3@Uninit_cop@2

; 380  : 	_RERAISE;

  00048	6a 00		 push	 0
  0004a	6a 00		 push	 0
  0004c	e8 00 00 00 00	 call	 __CxxThrowException@8
$LN53@Uninit_cop@2:
$LN4@Uninit_cop@2:

; 381  : 	_CATCH_END
; 382  : 	return (_Dest);

  00051	8b 45 10	 mov	 eax, DWORD PTR __Dest$[ebp]

; 383  : 	}

  00054	e8 00 00 00 00	 call	 __EH_epilog3
  00059	c3		 ret	 0
$LN51@Uninit_cop@2:
_TEXT	ENDS
;	COMDAT text$x
text$x	SEGMENT
__ehhandler$??$_Uninit_copy@V?$_Vector_const_iterator@V?$_Vector_val@UBulletSet@ioAliceObjectItem@@V?$allocator@UBulletSet@ioAliceObjectItem@@@std@@@std@@@std@@PAUBulletSet@ioAliceObjectItem@@V?$allocator@UBulletSet@ioAliceObjectItem@@@2@@std@@YAPAUBulletSet@ioAliceObjectItem@@V?$_Vector_const_iterator@V?$_Vector_val@UBulletSet@ioAliceObjectItem@@V?$allocator@UBulletSet@ioAliceObjectItem@@@std@@@std@@@0@0PAU12@AAV?$allocator@UBulletSet@ioAliceObjectItem@@@0@U_Nonscalar_ptr_iterator_tag@0@@Z:
  00000	8b 54 24 08	 mov	 edx, DWORD PTR [esp+8]
  00004	8d 42 0c	 lea	 eax, DWORD PTR [edx+12]
  00007	8b 4a e8	 mov	 ecx, DWORD PTR [edx-24]
  0000a	33 c8		 xor	 ecx, eax
  0000c	e8 00 00 00 00	 call	 @__security_check_cookie@4
  00011	b8 00 00 00 00	 mov	 eax, OFFSET __ehfuncinfo$??$_Uninit_copy@V?$_Vector_const_iterator@V?$_Vector_val@UBulletSet@ioAliceObjectItem@@V?$allocator@UBulletSet@ioAliceObjectItem@@@std@@@std@@@std@@PAUBulletSet@ioAliceObjectItem@@V?$allocator@UBulletSet@ioAliceObjectItem@@@2@@std@@YAPAUBulletSet@ioAliceObjectItem@@V?$_Vector_const_iterator@V?$_Vector_val@UBulletSet@ioAliceObjectItem@@V?$allocator@UBulletSet@ioAliceObjectItem@@@std@@@std@@@0@0PAU12@AAV?$allocator@UBulletSet@ioAliceObjectItem@@@0@U_Nonscalar_ptr_iterator_tag@0@@Z
  00016	e9 00 00 00 00	 jmp	 ___CxxFrameHandler3
text$x	ENDS
??$_Uninit_copy@V?$_Vector_const_iterator@V?$_Vector_val@UBulletSet@ioAliceObjectItem@@V?$allocator@UBulletSet@ioAliceObjectItem@@@std@@@std@@@std@@PAUBulletSet@ioAliceObjectItem@@V?$allocator@UBulletSet@ioAliceObjectItem@@@2@@std@@YAPAUBulletSet@ioAliceObjectItem@@V?$_Vector_const_iterator@V?$_Vector_val@UBulletSet@ioAliceObjectItem@@V?$allocator@UBulletSet@ioAliceObjectItem@@@std@@@std@@@0@0PAU12@AAV?$allocator@UBulletSet@ioAliceObjectItem@@@0@U_Nonscalar_ptr_iterator_tag@0@@Z ENDP ; std::_Uninit_copy<std::_Vector_const_iterator<std::_Vector_val<ioAliceObjectItem::BulletSet,std::allocator<ioAliceObjectItem::BulletSet> > >,ioAliceObjectItem::BulletSet *,std::allocator<ioAliceObjectItem::BulletSet> >
PUBLIC	??$_Uninit_move@PAUBulletSet@ioAliceObjectItem@@PAU12@V?$allocator@UBulletSet@ioAliceObjectItem@@@std@@U12@@std@@YAPAUBulletSet@ioAliceObjectItem@@PAU12@00AAV?$allocator@UBulletSet@ioAliceObjectItem@@@0@0U_Nonscalar_ptr_iterator_tag@0@@Z ; std::_Uninit_move<ioAliceObjectItem::BulletSet *,ioAliceObjectItem::BulletSet *,std::allocator<ioAliceObjectItem::BulletSet>,ioAliceObjectItem::BulletSet>
;	COMDAT xdata$x
; File c:\program files (x86)\microsoft visual studio 10.0\vc\include\vector
xdata$x	SEGMENT
__catchsym$??$_Uninit_move@PAUBulletSet@ioAliceObjectItem@@PAU12@V?$allocator@UBulletSet@ioAliceObjectItem@@@std@@U12@@std@@YAPAUBulletSet@ioAliceObjectItem@@PAU12@00AAV?$allocator@UBulletSet@ioAliceObjectItem@@@0@0U_Nonscalar_ptr_iterator_tag@0@@Z$3 DD 040H
	DD	00H
	DD	00H
	DD	FLAT:__catch$??$_Uninit_move@PAUBulletSet@ioAliceObjectItem@@PAU12@V?$allocator@UBulletSet@ioAliceObjectItem@@@std@@U12@@std@@YAPAUBulletSet@ioAliceObjectItem@@PAU12@00AAV?$allocator@UBulletSet@ioAliceObjectItem@@@0@0U_Nonscalar_ptr_iterator_tag@0@@Z$0
__unwindtable$??$_Uninit_move@PAUBulletSet@ioAliceObjectItem@@PAU12@V?$allocator@UBulletSet@ioAliceObjectItem@@@std@@U12@@std@@YAPAUBulletSet@ioAliceObjectItem@@PAU12@00AAV?$allocator@UBulletSet@ioAliceObjectItem@@@0@0U_Nonscalar_ptr_iterator_tag@0@@Z DD 0ffffffffH
	DD	00H
	DD	0ffffffffH
	DD	00H
__tryblocktable$??$_Uninit_move@PAUBulletSet@ioAliceObjectItem@@PAU12@V?$allocator@UBulletSet@ioAliceObjectItem@@@std@@U12@@std@@YAPAUBulletSet@ioAliceObjectItem@@PAU12@00AAV?$allocator@UBulletSet@ioAliceObjectItem@@@0@0U_Nonscalar_ptr_iterator_tag@0@@Z DD 00H
	DD	00H
	DD	01H
	DD	01H
	DD	FLAT:__catchsym$??$_Uninit_move@PAUBulletSet@ioAliceObjectItem@@PAU12@V?$allocator@UBulletSet@ioAliceObjectItem@@@std@@U12@@std@@YAPAUBulletSet@ioAliceObjectItem@@PAU12@00AAV?$allocator@UBulletSet@ioAliceObjectItem@@@0@0U_Nonscalar_ptr_iterator_tag@0@@Z$3
__ehfuncinfo$??$_Uninit_move@PAUBulletSet@ioAliceObjectItem@@PAU12@V?$allocator@UBulletSet@ioAliceObjectItem@@@std@@U12@@std@@YAPAUBulletSet@ioAliceObjectItem@@PAU12@00AAV?$allocator@UBulletSet@ioAliceObjectItem@@@0@0U_Nonscalar_ptr_iterator_tag@0@@Z DD 019930522H
	DD	02H
	DD	FLAT:__unwindtable$??$_Uninit_move@PAUBulletSet@ioAliceObjectItem@@PAU12@V?$allocator@UBulletSet@ioAliceObjectItem@@@std@@U12@@std@@YAPAUBulletSet@ioAliceObjectItem@@PAU12@00AAV?$allocator@UBulletSet@ioAliceObjectItem@@@0@0U_Nonscalar_ptr_iterator_tag@0@@Z
	DD	01H
	DD	FLAT:__tryblocktable$??$_Uninit_move@PAUBulletSet@ioAliceObjectItem@@PAU12@V?$allocator@UBulletSet@ioAliceObjectItem@@@std@@U12@@std@@YAPAUBulletSet@ioAliceObjectItem@@PAU12@00AAV?$allocator@UBulletSet@ioAliceObjectItem@@@0@0U_Nonscalar_ptr_iterator_tag@0@@Z
	DD	2 DUP(00H)
	DD	00H
	DD	01H
; Function compile flags: /Ogsp
; File c:\program files (x86)\microsoft visual studio 10.0\vc\include\memory
xdata$x	ENDS
;	COMDAT ??$_Uninit_move@PAUBulletSet@ioAliceObjectItem@@PAU12@V?$allocator@UBulletSet@ioAliceObjectItem@@@std@@U12@@std@@YAPAUBulletSet@ioAliceObjectItem@@PAU12@00AAV?$allocator@UBulletSet@ioAliceObjectItem@@@0@0U_Nonscalar_ptr_iterator_tag@0@@Z
_TEXT	SEGMENT
__Next$ = -20						; size = 4
__$EHRec$ = -16						; size = 16
__First$ = 8						; size = 4
__Last$ = 12						; size = 4
__Dest$ = 16						; size = 4
__Al$ = 20						; size = 4
___formal$ = 24						; size = 4
___formal$ = 28						; size = 1
??$_Uninit_move@PAUBulletSet@ioAliceObjectItem@@PAU12@V?$allocator@UBulletSet@ioAliceObjectItem@@@std@@U12@@std@@YAPAUBulletSet@ioAliceObjectItem@@PAU12@00AAV?$allocator@UBulletSet@ioAliceObjectItem@@@0@0U_Nonscalar_ptr_iterator_tag@0@@Z PROC ; std::_Uninit_move<ioAliceObjectItem::BulletSet *,ioAliceObjectItem::BulletSet *,std::allocator<ioAliceObjectItem::BulletSet>,ioAliceObjectItem::BulletSet>, COMDAT

; 424  : 	{	// move [_First, _Last) to raw _Dest, using _Al, arbitrary type

  00000	6a 08		 push	 8
  00002	b8 00 00 00 00	 mov	 eax, __ehhandler$??$_Uninit_move@PAUBulletSet@ioAliceObjectItem@@PAU12@V?$allocator@UBulletSet@ioAliceObjectItem@@@std@@U12@@std@@YAPAUBulletSet@ioAliceObjectItem@@PAU12@00AAV?$allocator@UBulletSet@ioAliceObjectItem@@@0@0U_Nonscalar_ptr_iterator_tag@0@@Z
  00007	e8 00 00 00 00	 call	 __EH_prolog3_catch

; 425  : 	_DEBUG_RANGE(_First, _Last);
; 426  : 	_DEBUG_POINTER(_Dest);
; 427  : 	_FwdIt _Next = _Dest;

  0000c	8b 45 10	 mov	 eax, DWORD PTR __Dest$[ebp]

; 428  : 
; 429  : 	_TRY_BEGIN

  0000f	83 65 fc 00	 and	 DWORD PTR __$EHRec$[ebp+12], 0
  00013	8b 75 08	 mov	 esi, DWORD PTR __First$[ebp]
  00016	89 45 ec	 mov	 DWORD PTR __Next$[ebp], eax
$LL6@Uninit_mov@2:

; 430  : 	for (; _First != _Last; ++_Dest, ++_First)

  00019	3b 75 0c	 cmp	 esi, DWORD PTR __Last$[ebp]
  0001c	74 33		 je	 SHORT $LN4@Uninit_mov@2

; 431  : 		_Cons_val(_Al, _Dest, (_Valty &&)*_First);

  0001e	8b 4d 14	 mov	 ecx, DWORD PTR __Al$[ebp]
  00021	56		 push	 esi
  00022	ff 75 10	 push	 DWORD PTR __Dest$[ebp]
  00025	e8 00 00 00 00	 call	 ?construct@?$allocator@UBulletSet@ioAliceObjectItem@@@std@@QAEXPAUBulletSet@ioAliceObjectItem@@$$QAU34@@Z ; std::allocator<ioAliceObjectItem::BulletSet>::construct
  0002a	83 45 10 14	 add	 DWORD PTR __Dest$[ebp], 20 ; 00000014H
  0002e	83 c6 14	 add	 esi, 20			; 00000014H
  00031	eb e6		 jmp	 SHORT $LL6@Uninit_mov@2
__catch$??$_Uninit_move@PAUBulletSet@ioAliceObjectItem@@PAU12@V?$allocator@UBulletSet@ioAliceObjectItem@@@std@@U12@@std@@YAPAUBulletSet@ioAliceObjectItem@@PAU12@00AAV?$allocator@UBulletSet@ioAliceObjectItem@@@0@0U_Nonscalar_ptr_iterator_tag@0@@Z$0:

; 432  : 	_CATCH_ALL
; 433  : 	for (; _Next != _Dest; ++_Next)

  00033	8b 75 ec	 mov	 esi, DWORD PTR __Next$[ebp]
  00036	eb 0b		 jmp	 SHORT $LN40@Uninit_mov@2
$LL3@Uninit_mov@2:

; 434  : 		_Dest_val(_Al, _Next);

  00038	8d 4e 04	 lea	 ecx, DWORD PTR [esi+4]
  0003b	e8 00 00 00 00	 call	 ?_Tidy@?$vector@UBulletInfo@@V?$allocator@UBulletInfo@@@std@@@std@@IAEXXZ ; std::vector<BulletInfo,std::allocator<BulletInfo> >::_Tidy
  00040	83 c6 14	 add	 esi, 20			; 00000014H
$LN40@Uninit_mov@2:

; 432  : 	_CATCH_ALL
; 433  : 	for (; _Next != _Dest; ++_Next)

  00043	3b 75 10	 cmp	 esi, DWORD PTR __Dest$[ebp]
  00046	75 f0		 jne	 SHORT $LL3@Uninit_mov@2

; 435  : 	_RERAISE;

  00048	6a 00		 push	 0
  0004a	6a 00		 push	 0
  0004c	e8 00 00 00 00	 call	 __CxxThrowException@8
$LN41@Uninit_mov@2:
$LN4@Uninit_mov@2:

; 436  : 	_CATCH_END
; 437  : 	return (_Dest);

  00051	8b 45 10	 mov	 eax, DWORD PTR __Dest$[ebp]

; 438  : 	}

  00054	e8 00 00 00 00	 call	 __EH_epilog3
  00059	c3		 ret	 0
$LN39@Uninit_mov@2:
_TEXT	ENDS
;	COMDAT text$x
text$x	SEGMENT
__ehhandler$??$_Uninit_move@PAUBulletSet@ioAliceObjectItem@@PAU12@V?$allocator@UBulletSet@ioAliceObjectItem@@@std@@U12@@std@@YAPAUBulletSet@ioAliceObjectItem@@PAU12@00AAV?$allocator@UBulletSet@ioAliceObjectItem@@@0@0U_Nonscalar_ptr_iterator_tag@0@@Z:
  00000	8b 54 24 08	 mov	 edx, DWORD PTR [esp+8]
  00004	8d 42 0c	 lea	 eax, DWORD PTR [edx+12]
  00007	8b 4a e8	 mov	 ecx, DWORD PTR [edx-24]
  0000a	33 c8		 xor	 ecx, eax
  0000c	e8 00 00 00 00	 call	 @__security_check_cookie@4
  00011	b8 00 00 00 00	 mov	 eax, OFFSET __ehfuncinfo$??$_Uninit_move@PAUBulletSet@ioAliceObjectItem@@PAU12@V?$allocator@UBulletSet@ioAliceObjectItem@@@std@@U12@@std@@YAPAUBulletSet@ioAliceObjectItem@@PAU12@00AAV?$allocator@UBulletSet@ioAliceObjectItem@@@0@0U_Nonscalar_ptr_iterator_tag@0@@Z
  00016	e9 00 00 00 00	 jmp	 ___CxxFrameHandler3
text$x	ENDS
??$_Uninit_move@PAUBulletSet@ioAliceObjectItem@@PAU12@V?$allocator@UBulletSet@ioAliceObjectItem@@@std@@U12@@std@@YAPAUBulletSet@ioAliceObjectItem@@PAU12@00AAV?$allocator@UBulletSet@ioAliceObjectItem@@@0@0U_Nonscalar_ptr_iterator_tag@0@@Z ENDP ; std::_Uninit_move<ioAliceObjectItem::BulletSet *,ioAliceObjectItem::BulletSet *,std::allocator<ioAliceObjectItem::BulletSet>,ioAliceObjectItem::BulletSet>
PUBLIC	??$_Destroy_range@V?$allocator@UBulletSet@ioAliceObjectItem@@@std@@@std@@YAXPAUBulletSet@ioAliceObjectItem@@0AAV?$allocator@UBulletSet@ioAliceObjectItem@@@0@@Z ; std::_Destroy_range<std::allocator<ioAliceObjectItem::BulletSet> >
; Function compile flags: /Ogsp
; File c:\program files (x86)\microsoft visual studio 10.0\vc\include\xmemory
;	COMDAT ??$_Destroy_range@V?$allocator@UBulletSet@ioAliceObjectItem@@@std@@@std@@YAXPAUBulletSet@ioAliceObjectItem@@0AAV?$allocator@UBulletSet@ioAliceObjectItem@@@0@@Z
_TEXT	SEGMENT
__First$ = 8						; size = 4
__Last$ = 12						; size = 4
__Al$ = 16						; size = 4
??$_Destroy_range@V?$allocator@UBulletSet@ioAliceObjectItem@@@std@@@std@@YAXPAUBulletSet@ioAliceObjectItem@@0AAV?$allocator@UBulletSet@ioAliceObjectItem@@@0@@Z PROC ; std::_Destroy_range<std::allocator<ioAliceObjectItem::BulletSet> >, COMDAT

; 87   : 	{	// destroy [_First, _Last)

  00000	55		 push	 ebp
  00001	8b ec		 mov	 ebp, esp
  00003	56		 push	 esi

; 88   : 	_Destroy_range(_First, _Last, _Al, _Ptr_cat(_First, _Last));

  00004	8b 75 08	 mov	 esi, DWORD PTR __First$[ebp]
  00007	eb 0b		 jmp	 SHORT $LN28@Destroy_ra@2
$LL7@Destroy_ra@2:
  00009	8d 4e 04	 lea	 ecx, DWORD PTR [esi+4]
  0000c	e8 00 00 00 00	 call	 ?_Tidy@?$vector@UBulletInfo@@V?$allocator@UBulletInfo@@@std@@@std@@IAEXXZ ; std::vector<BulletInfo,std::allocator<BulletInfo> >::_Tidy
  00011	83 c6 14	 add	 esi, 20			; 00000014H
$LN28@Destroy_ra@2:
  00014	3b 75 0c	 cmp	 esi, DWORD PTR __Last$[ebp]
  00017	75 f0		 jne	 SHORT $LL7@Destroy_ra@2
  00019	5e		 pop	 esi

; 89   : 	}

  0001a	5d		 pop	 ebp
  0001b	c3		 ret	 0
??$_Destroy_range@V?$allocator@UBulletSet@ioAliceObjectItem@@@std@@@std@@YAXPAUBulletSet@ioAliceObjectItem@@0AAV?$allocator@UBulletSet@ioAliceObjectItem@@@0@@Z ENDP ; std::_Destroy_range<std::allocator<ioAliceObjectItem::BulletSet> >
_TEXT	ENDS
PUBLIC	??$_Uninitialized_copy@V?$_Vector_const_iterator@V?$_Vector_val@UBulletSet@ioAliceObjectItem@@V?$allocator@UBulletSet@ioAliceObjectItem@@@std@@@std@@@std@@PAUBulletSet@ioAliceObjectItem@@V?$allocator@UBulletSet@ioAliceObjectItem@@@2@@std@@YAPAUBulletSet@ioAliceObjectItem@@V?$_Vector_const_iterator@V?$_Vector_val@UBulletSet@ioAliceObjectItem@@V?$allocator@UBulletSet@ioAliceObjectItem@@@std@@@std@@@0@0PAU12@AAV?$allocator@UBulletSet@ioAliceObjectItem@@@0@@Z ; std::_Uninitialized_copy<std::_Vector_const_iterator<std::_Vector_val<ioAliceObjectItem::BulletSet,std::allocator<ioAliceObjectItem::BulletSet> > >,ioAliceObjectItem::BulletSet *,std::allocator<ioAliceObjectItem::BulletSet> >
; Function compile flags: /Ogsp
; File c:\program files (x86)\microsoft visual studio 10.0\vc\include\memory
;	COMDAT ??$_Uninitialized_copy@V?$_Vector_const_iterator@V?$_Vector_val@UBulletSet@ioAliceObjectItem@@V?$allocator@UBulletSet@ioAliceObjectItem@@@std@@@std@@@std@@PAUBulletSet@ioAliceObjectItem@@V?$allocator@UBulletSet@ioAliceObjectItem@@@2@@std@@YAPAUBulletSet@ioAliceObjectItem@@V?$_Vector_const_iterator@V?$_Vector_val@UBulletSet@ioAliceObjectItem@@V?$allocator@UBulletSet@ioAliceObjectItem@@@std@@@std@@@0@0PAU12@AAV?$allocator@UBulletSet@ioAliceObjectItem@@@0@@Z
_TEXT	SEGMENT
__Cat$554794 = -4					; size = 1
__First$ = 8						; size = 4
__Last$ = 12						; size = 4
__Dest$ = 16						; size = 4
__Al$ = 20						; size = 4
??$_Uninitialized_copy@V?$_Vector_const_iterator@V?$_Vector_val@UBulletSet@ioAliceObjectItem@@V?$allocator@UBulletSet@ioAliceObjectItem@@@std@@@std@@@std@@PAUBulletSet@ioAliceObjectItem@@V?$allocator@UBulletSet@ioAliceObjectItem@@@2@@std@@YAPAUBulletSet@ioAliceObjectItem@@V?$_Vector_const_iterator@V?$_Vector_val@UBulletSet@ioAliceObjectItem@@V?$allocator@UBulletSet@ioAliceObjectItem@@@std@@@std@@@0@0PAU12@AAV?$allocator@UBulletSet@ioAliceObjectItem@@@0@@Z PROC ; std::_Uninitialized_copy<std::_Vector_const_iterator<std::_Vector_val<ioAliceObjectItem::BulletSet,std::allocator<ioAliceObjectItem::BulletSet> > >,ioAliceObjectItem::BulletSet *,std::allocator<ioAliceObjectItem::BulletSet> >, COMDAT

; 412  : 	{	// copy [_First, _Last) to raw _Dest, using _Al

  00000	55		 push	 ebp
  00001	8b ec		 mov	 ebp, esp
  00003	51		 push	 ecx

; 413  : 	return (_Uninit_copy(_First, _Last, _Dest, _Al,
; 414  : 		_Ptr_cat(_First, _Dest)));

  00004	ff 75 fc	 push	 DWORD PTR __Cat$554794[ebp]
  00007	ff 75 14	 push	 DWORD PTR __Al$[ebp]
  0000a	ff 75 10	 push	 DWORD PTR __Dest$[ebp]
  0000d	ff 75 0c	 push	 DWORD PTR __Last$[ebp]
  00010	ff 75 08	 push	 DWORD PTR __First$[ebp]
  00013	e8 00 00 00 00	 call	 ??$_Uninit_copy@V?$_Vector_const_iterator@V?$_Vector_val@UBulletSet@ioAliceObjectItem@@V?$allocator@UBulletSet@ioAliceObjectItem@@@std@@@std@@@std@@PAUBulletSet@ioAliceObjectItem@@V?$allocator@UBulletSet@ioAliceObjectItem@@@2@@std@@YAPAUBulletSet@ioAliceObjectItem@@V?$_Vector_const_iterator@V?$_Vector_val@UBulletSet@ioAliceObjectItem@@V?$allocator@UBulletSet@ioAliceObjectItem@@@std@@@std@@@0@0PAU12@AAV?$allocator@UBulletSet@ioAliceObjectItem@@@0@U_Nonscalar_ptr_iterator_tag@0@@Z ; std::_Uninit_copy<std::_Vector_const_iterator<std::_Vector_val<ioAliceObjectItem::BulletSet,std::allocator<ioAliceObjectItem::BulletSet> > >,ioAliceObjectItem::BulletSet *,std::allocator<ioAliceObjectItem::BulletSet> >
  00018	83 c4 14	 add	 esp, 20			; 00000014H

; 415  : 	}

  0001b	c9		 leave
  0001c	c3		 ret	 0
??$_Uninitialized_copy@V?$_Vector_const_iterator@V?$_Vector_val@UBulletSet@ioAliceObjectItem@@V?$allocator@UBulletSet@ioAliceObjectItem@@@std@@@std@@@std@@PAUBulletSet@ioAliceObjectItem@@V?$allocator@UBulletSet@ioAliceObjectItem@@@2@@std@@YAPAUBulletSet@ioAliceObjectItem@@V?$_Vector_const_iterator@V?$_Vector_val@UBulletSet@ioAliceObjectItem@@V?$allocator@UBulletSet@ioAliceObjectItem@@@std@@@std@@@0@0PAU12@AAV?$allocator@UBulletSet@ioAliceObjectItem@@@0@@Z ENDP ; std::_Uninitialized_copy<std::_Vector_const_iterator<std::_Vector_val<ioAliceObjectItem::BulletSet,std::allocator<ioAliceObjectItem::BulletSet> > >,ioAliceObjectItem::BulletSet *,std::allocator<ioAliceObjectItem::BulletSet> >
_TEXT	ENDS
PUBLIC	??$_Uninitialized_move@PAUBulletSet@ioAliceObjectItem@@PAU12@V?$allocator@UBulletSet@ioAliceObjectItem@@@std@@@std@@YAPAUBulletSet@ioAliceObjectItem@@PAU12@00AAV?$allocator@UBulletSet@ioAliceObjectItem@@@0@@Z ; std::_Uninitialized_move<ioAliceObjectItem::BulletSet *,ioAliceObjectItem::BulletSet *,std::allocator<ioAliceObjectItem::BulletSet> >
; Function compile flags: /Ogsp
;	COMDAT ??$_Uninitialized_move@PAUBulletSet@ioAliceObjectItem@@PAU12@V?$allocator@UBulletSet@ioAliceObjectItem@@@std@@@std@@YAPAUBulletSet@ioAliceObjectItem@@PAU12@00AAV?$allocator@UBulletSet@ioAliceObjectItem@@@0@@Z
_TEXT	SEGMENT
__Cat$554800 = -4					; size = 1
__First$ = 8						; size = 4
__Last$ = 12						; size = 4
__Dest$ = 16						; size = 4
__Al$ = 20						; size = 4
??$_Uninitialized_move@PAUBulletSet@ioAliceObjectItem@@PAU12@V?$allocator@UBulletSet@ioAliceObjectItem@@@std@@@std@@YAPAUBulletSet@ioAliceObjectItem@@PAU12@00AAV?$allocator@UBulletSet@ioAliceObjectItem@@@0@@Z PROC ; std::_Uninitialized_move<ioAliceObjectItem::BulletSet *,ioAliceObjectItem::BulletSet *,std::allocator<ioAliceObjectItem::BulletSet> >, COMDAT

; 469  : 	{	// move [_First, _Last) to raw _Dest, using _Al

  00000	55		 push	 ebp
  00001	8b ec		 mov	 ebp, esp
  00003	51		 push	 ecx

; 470  : 	return (_Uninit_move(_First, _Last, _Dest, _Al,
; 471  : 		_Val_type(_First), _Ptr_cat(_First, _Dest)));

  00004	ff 75 fc	 push	 DWORD PTR __Cat$554800[ebp]
  00007	6a 00		 push	 0
  00009	ff 75 14	 push	 DWORD PTR __Al$[ebp]
  0000c	ff 75 10	 push	 DWORD PTR __Dest$[ebp]
  0000f	ff 75 0c	 push	 DWORD PTR __Last$[ebp]
  00012	ff 75 08	 push	 DWORD PTR __First$[ebp]
  00015	e8 00 00 00 00	 call	 ??$_Uninit_move@PAUBulletSet@ioAliceObjectItem@@PAU12@V?$allocator@UBulletSet@ioAliceObjectItem@@@std@@U12@@std@@YAPAUBulletSet@ioAliceObjectItem@@PAU12@00AAV?$allocator@UBulletSet@ioAliceObjectItem@@@0@0U_Nonscalar_ptr_iterator_tag@0@@Z ; std::_Uninit_move<ioAliceObjectItem::BulletSet *,ioAliceObjectItem::BulletSet *,std::allocator<ioAliceObjectItem::BulletSet>,ioAliceObjectItem::BulletSet>
  0001a	83 c4 18	 add	 esp, 24			; 00000018H

; 472  : 	}

  0001d	c9		 leave
  0001e	c3		 ret	 0
??$_Uninitialized_move@PAUBulletSet@ioAliceObjectItem@@PAU12@V?$allocator@UBulletSet@ioAliceObjectItem@@@std@@@std@@YAPAUBulletSet@ioAliceObjectItem@@PAU12@00AAV?$allocator@UBulletSet@ioAliceObjectItem@@@0@@Z ENDP ; std::_Uninitialized_move<ioAliceObjectItem::BulletSet *,ioAliceObjectItem::BulletSet *,std::allocator<ioAliceObjectItem::BulletSet> >
_TEXT	ENDS
PUBLIC	?_Destroy@?$vector@UBulletSet@ioAliceObjectItem@@V?$allocator@UBulletSet@ioAliceObjectItem@@@std@@@std@@IAEXPAUBulletSet@ioAliceObjectItem@@0@Z ; std::vector<ioAliceObjectItem::BulletSet,std::allocator<ioAliceObjectItem::BulletSet> >::_Destroy
; Function compile flags: /Ogsp
; File c:\program files (x86)\microsoft visual studio 10.0\vc\include\vector
;	COMDAT ?_Destroy@?$vector@UBulletSet@ioAliceObjectItem@@V?$allocator@UBulletSet@ioAliceObjectItem@@@std@@@std@@IAEXPAUBulletSet@ioAliceObjectItem@@0@Z
_TEXT	SEGMENT
__First$ = 8						; size = 4
__Last$ = 12						; size = 4
?_Destroy@?$vector@UBulletSet@ioAliceObjectItem@@V?$allocator@UBulletSet@ioAliceObjectItem@@@std@@@std@@IAEXPAUBulletSet@ioAliceObjectItem@@0@Z PROC ; std::vector<ioAliceObjectItem::BulletSet,std::allocator<ioAliceObjectItem::BulletSet> >::_Destroy, COMDAT
; _this$ = ecx

; 1269 : 		{	// destroy [_First, _Last) using allocator

  00000	55		 push	 ebp
  00001	8b ec		 mov	 ebp, esp
  00003	56		 push	 esi

; 1270 : 		_Destroy_range(_First, _Last, this->_Alval);

  00004	8b 75 08	 mov	 esi, DWORD PTR __First$[ebp]
  00007	eb 0b		 jmp	 SHORT $LN30@Destroy
$LL9@Destroy:
  00009	8d 4e 04	 lea	 ecx, DWORD PTR [esi+4]
  0000c	e8 00 00 00 00	 call	 ?_Tidy@?$vector@UBulletInfo@@V?$allocator@UBulletInfo@@@std@@@std@@IAEXXZ ; std::vector<BulletInfo,std::allocator<BulletInfo> >::_Tidy
  00011	83 c6 14	 add	 esi, 20			; 00000014H
$LN30@Destroy:
  00014	3b 75 0c	 cmp	 esi, DWORD PTR __Last$[ebp]
  00017	75 f0		 jne	 SHORT $LL9@Destroy
  00019	5e		 pop	 esi

; 1271 : 		}

  0001a	5d		 pop	 ebp
  0001b	c2 08 00	 ret	 8
?_Destroy@?$vector@UBulletSet@ioAliceObjectItem@@V?$allocator@UBulletSet@ioAliceObjectItem@@@std@@@std@@IAEXPAUBulletSet@ioAliceObjectItem@@0@Z ENDP ; std::vector<ioAliceObjectItem::BulletSet,std::allocator<ioAliceObjectItem::BulletSet> >::_Destroy
_TEXT	ENDS
PUBLIC	??$_Ucopy@V?$_Vector_const_iterator@V?$_Vector_val@UBulletSet@ioAliceObjectItem@@V?$allocator@UBulletSet@ioAliceObjectItem@@@std@@@std@@@std@@@?$vector@UBulletSet@ioAliceObjectItem@@V?$allocator@UBulletSet@ioAliceObjectItem@@@std@@@std@@IAEPAUBulletSet@ioAliceObjectItem@@V?$_Vector_const_iterator@V?$_Vector_val@UBulletSet@ioAliceObjectItem@@V?$allocator@UBulletSet@ioAliceObjectItem@@@std@@@std@@@1@0PAU23@@Z ; std::vector<ioAliceObjectItem::BulletSet,std::allocator<ioAliceObjectItem::BulletSet> >::_Ucopy<std::_Vector_const_iterator<std::_Vector_val<ioAliceObjectItem::BulletSet,std::allocator<ioAliceObjectItem::BulletSet> > > >
; Function compile flags: /Ogsp
;	COMDAT ??$_Ucopy@V?$_Vector_const_iterator@V?$_Vector_val@UBulletSet@ioAliceObjectItem@@V?$allocator@UBulletSet@ioAliceObjectItem@@@std@@@std@@@std@@@?$vector@UBulletSet@ioAliceObjectItem@@V?$allocator@UBulletSet@ioAliceObjectItem@@@std@@@std@@IAEPAUBulletSet@ioAliceObjectItem@@V?$_Vector_const_iterator@V?$_Vector_val@UBulletSet@ioAliceObjectItem@@V?$allocator@UBulletSet@ioAliceObjectItem@@@std@@@std@@@1@0PAU23@@Z
_TEXT	SEGMENT
__First$ = 8						; size = 4
__Last$ = 12						; size = 4
__Cat$554944 = 16					; size = 1
__Ptr$ = 16						; size = 4
??$_Ucopy@V?$_Vector_const_iterator@V?$_Vector_val@UBulletSet@ioAliceObjectItem@@V?$allocator@UBulletSet@ioAliceObjectItem@@@std@@@std@@@std@@@?$vector@UBulletSet@ioAliceObjectItem@@V?$allocator@UBulletSet@ioAliceObjectItem@@@std@@@std@@IAEPAUBulletSet@ioAliceObjectItem@@V?$_Vector_const_iterator@V?$_Vector_val@UBulletSet@ioAliceObjectItem@@V?$allocator@UBulletSet@ioAliceObjectItem@@@std@@@std@@@1@0PAU23@@Z PROC ; std::vector<ioAliceObjectItem::BulletSet,std::allocator<ioAliceObjectItem::BulletSet> >::_Ucopy<std::_Vector_const_iterator<std::_Vector_val<ioAliceObjectItem::BulletSet,std::allocator<ioAliceObjectItem::BulletSet> > > >, COMDAT
; _this$ = ecx

; 1315 : 		pointer _Ucopy(_Iter _First, _Iter _Last, pointer _Ptr)

  00000	55		 push	 ebp
  00001	8b ec		 mov	 ebp, esp

; 1316 : 		{	// copy initializing [_First, _Last), using allocator
; 1317 : 		return (_Uninitialized_copy(_First, _Last,
; 1318 : 			_Ptr, this->_Alval));

  00003	ff 75 10	 push	 DWORD PTR __Cat$554944[ebp]
  00006	83 c1 0c	 add	 ecx, 12			; 0000000cH
  00009	51		 push	 ecx
  0000a	ff 75 10	 push	 DWORD PTR __Ptr$[ebp]
  0000d	ff 75 0c	 push	 DWORD PTR __Last$[ebp]
  00010	ff 75 08	 push	 DWORD PTR __First$[ebp]
  00013	e8 00 00 00 00	 call	 ??$_Uninit_copy@V?$_Vector_const_iterator@V?$_Vector_val@UBulletSet@ioAliceObjectItem@@V?$allocator@UBulletSet@ioAliceObjectItem@@@std@@@std@@@std@@PAUBulletSet@ioAliceObjectItem@@V?$allocator@UBulletSet@ioAliceObjectItem@@@2@@std@@YAPAUBulletSet@ioAliceObjectItem@@V?$_Vector_const_iterator@V?$_Vector_val@UBulletSet@ioAliceObjectItem@@V?$allocator@UBulletSet@ioAliceObjectItem@@@std@@@std@@@0@0PAU12@AAV?$allocator@UBulletSet@ioAliceObjectItem@@@0@U_Nonscalar_ptr_iterator_tag@0@@Z ; std::_Uninit_copy<std::_Vector_const_iterator<std::_Vector_val<ioAliceObjectItem::BulletSet,std::allocator<ioAliceObjectItem::BulletSet> > >,ioAliceObjectItem::BulletSet *,std::allocator<ioAliceObjectItem::BulletSet> >
  00018	83 c4 14	 add	 esp, 20			; 00000014H

; 1319 : 		}

  0001b	5d		 pop	 ebp
  0001c	c2 0c 00	 ret	 12			; 0000000cH
??$_Ucopy@V?$_Vector_const_iterator@V?$_Vector_val@UBulletSet@ioAliceObjectItem@@V?$allocator@UBulletSet@ioAliceObjectItem@@@std@@@std@@@std@@@?$vector@UBulletSet@ioAliceObjectItem@@V?$allocator@UBulletSet@ioAliceObjectItem@@@std@@@std@@IAEPAUBulletSet@ioAliceObjectItem@@V?$_Vector_const_iterator@V?$_Vector_val@UBulletSet@ioAliceObjectItem@@V?$allocator@UBulletSet@ioAliceObjectItem@@@std@@@std@@@1@0PAU23@@Z ENDP ; std::vector<ioAliceObjectItem::BulletSet,std::allocator<ioAliceObjectItem::BulletSet> >::_Ucopy<std::_Vector_const_iterator<std::_Vector_val<ioAliceObjectItem::BulletSet,std::allocator<ioAliceObjectItem::BulletSet> > > >
_TEXT	ENDS
PUBLIC	??$_Umove@PAUBulletSet@ioAliceObjectItem@@@?$vector@UBulletSet@ioAliceObjectItem@@V?$allocator@UBulletSet@ioAliceObjectItem@@@std@@@std@@IAEPAUBulletSet@ioAliceObjectItem@@PAU23@00@Z ; std::vector<ioAliceObjectItem::BulletSet,std::allocator<ioAliceObjectItem::BulletSet> >::_Umove<ioAliceObjectItem::BulletSet *>
; Function compile flags: /Ogsp
;	COMDAT ??$_Umove@PAUBulletSet@ioAliceObjectItem@@@?$vector@UBulletSet@ioAliceObjectItem@@V?$allocator@UBulletSet@ioAliceObjectItem@@@std@@@std@@IAEPAUBulletSet@ioAliceObjectItem@@PAU23@00@Z
_TEXT	SEGMENT
__First$ = 8						; size = 4
__Last$ = 12						; size = 4
__Ptr$ = 16						; size = 4
??$_Umove@PAUBulletSet@ioAliceObjectItem@@@?$vector@UBulletSet@ioAliceObjectItem@@V?$allocator@UBulletSet@ioAliceObjectItem@@@std@@@std@@IAEPAUBulletSet@ioAliceObjectItem@@PAU23@00@Z PROC ; std::vector<ioAliceObjectItem::BulletSet,std::allocator<ioAliceObjectItem::BulletSet> >::_Umove<ioAliceObjectItem::BulletSet *>, COMDAT
; _this$ = ecx

; 1322 : 		pointer _Umove(_Iter _First, _Iter _Last, pointer _Ptr)

  00000	55		 push	 ebp
  00001	8b ec		 mov	 ebp, esp

; 1323 : 		{	// move initializing [_First, _Last), using allocator
; 1324 : 		return (_Uninitialized_move(_First, _Last,
; 1325 : 			_Ptr, this->_Alval));

  00003	83 c1 0c	 add	 ecx, 12			; 0000000cH
  00006	51		 push	 ecx
  00007	ff 75 10	 push	 DWORD PTR __Ptr$[ebp]
  0000a	ff 75 0c	 push	 DWORD PTR __Last$[ebp]
  0000d	ff 75 08	 push	 DWORD PTR __First$[ebp]
  00010	e8 00 00 00 00	 call	 ??$_Uninitialized_move@PAUBulletSet@ioAliceObjectItem@@PAU12@V?$allocator@UBulletSet@ioAliceObjectItem@@@std@@@std@@YAPAUBulletSet@ioAliceObjectItem@@PAU12@00AAV?$allocator@UBulletSet@ioAliceObjectItem@@@0@@Z ; std::_Uninitialized_move<ioAliceObjectItem::BulletSet *,ioAliceObjectItem::BulletSet *,std::allocator<ioAliceObjectItem::BulletSet> >
  00015	83 c4 10	 add	 esp, 16			; 00000010H

; 1326 : 		}

  00018	5d		 pop	 ebp
  00019	c2 0c 00	 ret	 12			; 0000000cH
??$_Umove@PAUBulletSet@ioAliceObjectItem@@@?$vector@UBulletSet@ioAliceObjectItem@@V?$allocator@UBulletSet@ioAliceObjectItem@@@std@@@std@@IAEPAUBulletSet@ioAliceObjectItem@@PAU23@00@Z ENDP ; std::vector<ioAliceObjectItem::BulletSet,std::allocator<ioAliceObjectItem::BulletSet> >::_Umove<ioAliceObjectItem::BulletSet *>
_TEXT	ENDS
PUBLIC	?_Tidy@?$vector@UBulletSet@ioAliceObjectItem@@V?$allocator@UBulletSet@ioAliceObjectItem@@@std@@@std@@IAEXXZ ; std::vector<ioAliceObjectItem::BulletSet,std::allocator<ioAliceObjectItem::BulletSet> >::_Tidy
; Function compile flags: /Ogsp
;	COMDAT ?_Tidy@?$vector@UBulletSet@ioAliceObjectItem@@V?$allocator@UBulletSet@ioAliceObjectItem@@@std@@@std@@IAEXXZ
_TEXT	SEGMENT
?_Tidy@?$vector@UBulletSet@ioAliceObjectItem@@V?$allocator@UBulletSet@ioAliceObjectItem@@@std@@@std@@IAEXXZ PROC ; std::vector<ioAliceObjectItem::BulletSet,std::allocator<ioAliceObjectItem::BulletSet> >::_Tidy, COMDAT
; _this$ = ecx

; 1301 : 		{	// free all storage

  00000	56		 push	 esi
  00001	8b f1		 mov	 esi, ecx

; 1302 : 		if (this->_Myfirst != 0)

  00003	83 3e 00	 cmp	 DWORD PTR [esi], 0
  00006	74 28		 je	 SHORT $LN31@Tidy@2

; 1303 : 			{	// something to free, destroy and deallocate it
; 1304 : 			this->_Orphan_all();

  00008	53		 push	 ebx
  00009	57		 push	 edi
  0000a	ff 15 00 00 00
	00		 call	 DWORD PTR __imp_?_Orphan_all@_Container_base0@std@@QAEXXZ

; 1305 : 			_Destroy(this->_Myfirst, this->_Mylast);

  00010	8b 5e 04	 mov	 ebx, DWORD PTR [esi+4]
  00013	8b 3e		 mov	 edi, DWORD PTR [esi]
  00015	eb 0b		 jmp	 SHORT $LN35@Tidy@2
$LL12@Tidy@2:
  00017	8d 4f 04	 lea	 ecx, DWORD PTR [edi+4]
  0001a	e8 00 00 00 00	 call	 ?_Tidy@?$vector@UBulletInfo@@V?$allocator@UBulletInfo@@@std@@@std@@IAEXXZ ; std::vector<BulletInfo,std::allocator<BulletInfo> >::_Tidy
  0001f	83 c7 14	 add	 edi, 20			; 00000014H
$LN35@Tidy@2:
  00022	3b fb		 cmp	 edi, ebx
  00024	75 f1		 jne	 SHORT $LL12@Tidy@2

; 1306 : 			this->_Alval.deallocate(this->_Myfirst,
; 1307 : 				this->_Myend - this->_Myfirst);

  00026	ff 36		 push	 DWORD PTR [esi]
  00028	e8 00 00 00 00	 call	 ??3@YAXPAX@Z		; operator delete
  0002d	59		 pop	 ecx
  0002e	5f		 pop	 edi
  0002f	5b		 pop	 ebx
$LN31@Tidy@2:

; 1308 : 			}
; 1309 : 		this->_Myfirst = 0;

  00030	33 c0		 xor	 eax, eax
  00032	89 06		 mov	 DWORD PTR [esi], eax

; 1310 : 		this->_Mylast = 0;

  00034	89 46 04	 mov	 DWORD PTR [esi+4], eax

; 1311 : 		this->_Myend = 0;

  00037	89 46 08	 mov	 DWORD PTR [esi+8], eax
  0003a	5e		 pop	 esi

; 1312 : 		}

  0003b	c3		 ret	 0
?_Tidy@?$vector@UBulletSet@ioAliceObjectItem@@V?$allocator@UBulletSet@ioAliceObjectItem@@@std@@@std@@IAEXXZ ENDP ; std::vector<ioAliceObjectItem::BulletSet,std::allocator<ioAliceObjectItem::BulletSet> >::_Tidy
_TEXT	ENDS
PUBLIC	?reserve@?$vector@UBulletSet@ioAliceObjectItem@@V?$allocator@UBulletSet@ioAliceObjectItem@@@std@@@std@@QAEXI@Z ; std::vector<ioAliceObjectItem::BulletSet,std::allocator<ioAliceObjectItem::BulletSet> >::reserve
;	COMDAT xdata$x
; File c:\program files (x86)\microsoft visual studio 10.0\vc\include\xmemory
xdata$x	SEGMENT
__catchsym$?reserve@?$vector@UBulletSet@ioAliceObjectItem@@V?$allocator@UBulletSet@ioAliceObjectItem@@@std@@@std@@QAEXI@Z$3 DD 040H
	DD	00H
	DD	00H
	DD	FLAT:__catch$?reserve@?$vector@UBulletSet@ioAliceObjectItem@@V?$allocator@UBulletSet@ioAliceObjectItem@@@std@@@std@@QAEXI@Z$0
__unwindtable$?reserve@?$vector@UBulletSet@ioAliceObjectItem@@V?$allocator@UBulletSet@ioAliceObjectItem@@@std@@@std@@QAEXI@Z DD 0ffffffffH
	DD	00H
	DD	0ffffffffH
	DD	00H
__tryblocktable$?reserve@?$vector@UBulletSet@ioAliceObjectItem@@V?$allocator@UBulletSet@ioAliceObjectItem@@@std@@@std@@QAEXI@Z DD 00H
	DD	00H
	DD	01H
	DD	01H
	DD	FLAT:__catchsym$?reserve@?$vector@UBulletSet@ioAliceObjectItem@@V?$allocator@UBulletSet@ioAliceObjectItem@@@std@@@std@@QAEXI@Z$3
__ehfuncinfo$?reserve@?$vector@UBulletSet@ioAliceObjectItem@@V?$allocator@UBulletSet@ioAliceObjectItem@@@std@@@std@@QAEXI@Z DD 019930522H
	DD	02H
	DD	FLAT:__unwindtable$?reserve@?$vector@UBulletSet@ioAliceObjectItem@@V?$allocator@UBulletSet@ioAliceObjectItem@@@std@@@std@@QAEXI@Z
	DD	01H
	DD	FLAT:__tryblocktable$?reserve@?$vector@UBulletSet@ioAliceObjectItem@@V?$allocator@UBulletSet@ioAliceObjectItem@@@std@@@std@@QAEXI@Z
	DD	2 DUP(00H)
	DD	00H
	DD	01H
; Function compile flags: /Ogsp
; File c:\program files (x86)\microsoft visual studio 10.0\vc\include\vector
xdata$x	ENDS
;	COMDAT ?reserve@?$vector@UBulletSet@ioAliceObjectItem@@V?$allocator@UBulletSet@ioAliceObjectItem@@@std@@@std@@QAEXI@Z
_TEXT	SEGMENT
__Ptr$550568 = -24					; size = 4
$T555253 = -20						; size = 4
__$EHRec$ = -16						; size = 16
__Count$ = 8						; size = 4
?reserve@?$vector@UBulletSet@ioAliceObjectItem@@V?$allocator@UBulletSet@ioAliceObjectItem@@@std@@@std@@QAEXI@Z PROC ; std::vector<ioAliceObjectItem::BulletSet,std::allocator<ioAliceObjectItem::BulletSet> >::reserve, COMDAT
; _this$ = ecx

; 746  : 		{	// determine new minimum length of allocated storage

  00000	6a 0c		 push	 12			; 0000000cH
  00002	b8 00 00 00 00	 mov	 eax, __ehhandler$?reserve@?$vector@UBulletSet@ioAliceObjectItem@@V?$allocator@UBulletSet@ioAliceObjectItem@@@std@@@std@@QAEXI@Z
  00007	e8 00 00 00 00	 call	 __EH_prolog3_catch
  0000c	8b f1		 mov	 esi, ecx

; 747  : 		if (max_size() < _Count)

  0000e	81 7d 08 cc cc
	cc 0c		 cmp	 DWORD PTR __Count$[ebp], 214748364 ; 0cccccccH
  00015	76 0b		 jbe	 SHORT $LN5@reserve@2

; 748  : 			_Xlen();	// result too long

  00017	68 00 00 00 00	 push	 OFFSET ??_C@_0BD@OLBABOEK@vector?$DMT?$DO?5too?5long?$AA@
  0001c	ff 15 00 00 00
	00		 call	 DWORD PTR __imp_?_Xlength_error@std@@YAXPBD@Z
$LN66@reserve@2:
$LN5@reserve@2:

; 749  : 		else if (capacity() < _Count)

  00022	8b 46 08	 mov	 eax, DWORD PTR [esi+8]
  00025	2b 06		 sub	 eax, DWORD PTR [esi]
  00027	6a 14		 push	 20			; 00000014H
  00029	99		 cdq
  0002a	59		 pop	 ecx
  0002b	f7 f9		 idiv	 ecx
  0002d	3b 45 08	 cmp	 eax, DWORD PTR __Count$[ebp]
  00030	0f 83 83 00 00
	00		 jae	 $LN3@reserve@2

; 750  : 			{	// not enough room, reallocate
; 751  : 			pointer _Ptr = this->_Alval.allocate(_Count);

  00036	6a 00		 push	 0
  00038	ff 75 08	 push	 DWORD PTR __Count$[ebp]
  0003b	e8 00 00 00 00	 call	 ??$_Allocate@UBulletSet@ioAliceObjectItem@@@std@@YAPAUBulletSet@ioAliceObjectItem@@IPAU12@@Z ; std::_Allocate<ioAliceObjectItem::BulletSet>

; 752  : 
; 753  : 			_TRY_BEGIN
; 754  : 			_Umove(this->_Myfirst, this->_Mylast, _Ptr);

  00040	8b 0e		 mov	 ecx, DWORD PTR [esi]
  00042	83 65 fc 00	 and	 DWORD PTR __$EHRec$[ebp+12], 0
  00046	8d 56 0c	 lea	 edx, DWORD PTR [esi+12]
  00049	52		 push	 edx
  0004a	89 45 e8	 mov	 DWORD PTR __Ptr$550568[ebp], eax
  0004d	ff 75 e8	 push	 DWORD PTR __Ptr$550568[ebp]
  00050	8b 46 04	 mov	 eax, DWORD PTR [esi+4]
  00053	50		 push	 eax
  00054	51		 push	 ecx
  00055	e8 00 00 00 00	 call	 ??$_Uninitialized_move@PAUBulletSet@ioAliceObjectItem@@PAU12@V?$allocator@UBulletSet@ioAliceObjectItem@@@std@@@std@@YAPAUBulletSet@ioAliceObjectItem@@PAU12@00AAV?$allocator@UBulletSet@ioAliceObjectItem@@@0@@Z ; std::_Uninitialized_move<ioAliceObjectItem::BulletSet *,ioAliceObjectItem::BulletSet *,std::allocator<ioAliceObjectItem::BulletSet> >

; 758  : 			_CATCH_END
; 759  : 
; 760  : 			size_type _Size = size();

  0005a	8b 5e 04	 mov	 ebx, DWORD PTR [esi+4]
  0005d	8b 0e		 mov	 ecx, DWORD PTR [esi]
  0005f	83 c4 18	 add	 esp, 24			; 00000018H
  00062	8b c3		 mov	 eax, ebx
  00064	2b c1		 sub	 eax, ecx
  00066	6a 14		 push	 20			; 00000014H
  00068	99		 cdq
  00069	5f		 pop	 edi
  0006a	f7 ff		 idiv	 edi
  0006c	83 4d fc ff	 or	 DWORD PTR __$EHRec$[ebp+12], -1
  00070	8b f8		 mov	 edi, eax
  00072	85 c9		 test	 ecx, ecx
  00074	74 23		 je	 SHORT $LN58@reserve@2

; 761  : 			if (this->_Myfirst != 0)
; 762  : 				{	// destroy and deallocate old array
; 763  : 				_Destroy(this->_Myfirst, this->_Mylast);

  00076	89 4d ec	 mov	 DWORD PTR $T555253[ebp], ecx
  00079	3b cb		 cmp	 ecx, ebx
  0007b	74 14		 je	 SHORT $LN37@reserve@2
$LN39@reserve@2:
  0007d	8b 4d ec	 mov	 ecx, DWORD PTR $T555253[ebp]
  00080	83 c1 04	 add	 ecx, 4
  00083	e8 00 00 00 00	 call	 ?_Tidy@?$vector@UBulletInfo@@V?$allocator@UBulletInfo@@@std@@@std@@IAEXXZ ; std::vector<BulletInfo,std::allocator<BulletInfo> >::_Tidy
  00088	83 45 ec 14	 add	 DWORD PTR $T555253[ebp], 20 ; 00000014H
  0008c	39 5d ec	 cmp	 DWORD PTR $T555253[ebp], ebx
  0008f	75 ec		 jne	 SHORT $LN39@reserve@2
$LN37@reserve@2:

; 764  : 				this->_Alval.deallocate(this->_Myfirst,
; 765  : 					this->_Myend - this->_Myfirst);

  00091	ff 36		 push	 DWORD PTR [esi]
  00093	e8 00 00 00 00	 call	 ??3@YAXPAX@Z		; operator delete
  00098	59		 pop	 ecx
$LN58@reserve@2:

; 766  : 				}
; 767  : 
; 768  : 			this->_Orphan_all();

  00099	8b ce		 mov	 ecx, esi
  0009b	ff 15 00 00 00
	00		 call	 DWORD PTR __imp_?_Orphan_all@_Container_base0@std@@QAEXXZ

; 769  : 			this->_Myend = _Ptr + _Count;
; 770  : 			this->_Mylast = _Ptr + _Size;

  000a1	6b ff 14	 imul	 edi, 20			; 00000014H
  000a4	8b 45 08	 mov	 eax, DWORD PTR __Count$[ebp]
  000a7	8b 4d e8	 mov	 ecx, DWORD PTR __Ptr$550568[ebp]
  000aa	6b c0 14	 imul	 eax, 20			; 00000014H
  000ad	03 c1		 add	 eax, ecx
  000af	03 f9		 add	 edi, ecx
  000b1	89 46 08	 mov	 DWORD PTR [esi+8], eax
  000b4	89 7e 04	 mov	 DWORD PTR [esi+4], edi

; 771  : 			this->_Myfirst = _Ptr;

  000b7	89 0e		 mov	 DWORD PTR [esi], ecx
$LN3@reserve@2:

; 772  : 			}
; 773  : 		}

  000b9	e8 00 00 00 00	 call	 __EH_epilog3
  000be	c2 04 00	 ret	 4
__catch$?reserve@?$vector@UBulletSet@ioAliceObjectItem@@V?$allocator@UBulletSet@ioAliceObjectItem@@@std@@@std@@QAEXI@Z$0:

; 755  : 			_CATCH_ALL
; 756  : 			this->_Alval.deallocate(_Ptr, _Count);

  000c1	ff 75 e8	 push	 DWORD PTR __Ptr$550568[ebp]
  000c4	e8 00 00 00 00	 call	 ??3@YAXPAX@Z		; operator delete
  000c9	59		 pop	 ecx

; 757  : 			_RERAISE;

  000ca	6a 00		 push	 0
  000cc	6a 00		 push	 0
  000ce	e8 00 00 00 00	 call	 __CxxThrowException@8
$LN67@reserve@2:
$LN65@reserve@2:
  000d3	cc		 int	 3
_TEXT	ENDS
;	COMDAT text$x
text$x	SEGMENT
__ehhandler$?reserve@?$vector@UBulletSet@ioAliceObjectItem@@V?$allocator@UBulletSet@ioAliceObjectItem@@@std@@@std@@QAEXI@Z:
  00000	8b 54 24 08	 mov	 edx, DWORD PTR [esp+8]
  00004	8d 42 0c	 lea	 eax, DWORD PTR [edx+12]
  00007	8b 4a e4	 mov	 ecx, DWORD PTR [edx-28]
  0000a	33 c8		 xor	 ecx, eax
  0000c	e8 00 00 00 00	 call	 @__security_check_cookie@4
  00011	b8 00 00 00 00	 mov	 eax, OFFSET __ehfuncinfo$?reserve@?$vector@UBulletSet@ioAliceObjectItem@@V?$allocator@UBulletSet@ioAliceObjectItem@@@std@@@std@@QAEXI@Z
  00016	e9 00 00 00 00	 jmp	 ___CxxFrameHandler3
text$x	ENDS
?reserve@?$vector@UBulletSet@ioAliceObjectItem@@V?$allocator@UBulletSet@ioAliceObjectItem@@@std@@@std@@QAEXI@Z ENDP ; std::vector<ioAliceObjectItem::BulletSet,std::allocator<ioAliceObjectItem::BulletSet> >::reserve
PUBLIC	??0?$vector@UBulletSet@ioAliceObjectItem@@V?$allocator@UBulletSet@ioAliceObjectItem@@@std@@@std@@QAE@ABV01@@Z ; std::vector<ioAliceObjectItem::BulletSet,std::allocator<ioAliceObjectItem::BulletSet> >::vector<ioAliceObjectItem::BulletSet,std::allocator<ioAliceObjectItem::BulletSet> >
;	COMDAT xdata$x
; File c:\program files (x86)\microsoft visual studio 10.0\vc\include\xutility
xdata$x	SEGMENT
__catchsym$??0?$vector@UBulletSet@ioAliceObjectItem@@V?$allocator@UBulletSet@ioAliceObjectItem@@@std@@@std@@QAE@ABV01@@Z$2 DD 040H
	DD	00H
	DD	00H
	DD	FLAT:__catch$??0?$vector@UBulletSet@ioAliceObjectItem@@V?$allocator@UBulletSet@ioAliceObjectItem@@@std@@@std@@QAE@ABV01@@Z$0
__unwindtable$??0?$vector@UBulletSet@ioAliceObjectItem@@V?$allocator@UBulletSet@ioAliceObjectItem@@@std@@@std@@QAE@ABV01@@Z DD 0ffffffffH
	DD	00H
	DD	0ffffffffH
	DD	00H
__tryblocktable$??0?$vector@UBulletSet@ioAliceObjectItem@@V?$allocator@UBulletSet@ioAliceObjectItem@@@std@@@std@@QAE@ABV01@@Z DD 00H
	DD	00H
	DD	01H
	DD	01H
	DD	FLAT:__catchsym$??0?$vector@UBulletSet@ioAliceObjectItem@@V?$allocator@UBulletSet@ioAliceObjectItem@@@std@@@std@@QAE@ABV01@@Z$2
__ehfuncinfo$??0?$vector@UBulletSet@ioAliceObjectItem@@V?$allocator@UBulletSet@ioAliceObjectItem@@@std@@@std@@QAE@ABV01@@Z DD 019930522H
	DD	02H
	DD	FLAT:__unwindtable$??0?$vector@UBulletSet@ioAliceObjectItem@@V?$allocator@UBulletSet@ioAliceObjectItem@@@std@@@std@@QAE@ABV01@@Z
	DD	01H
	DD	FLAT:__tryblocktable$??0?$vector@UBulletSet@ioAliceObjectItem@@V?$allocator@UBulletSet@ioAliceObjectItem@@@std@@@std@@QAE@ABV01@@Z
	DD	2 DUP(00H)
	DD	00H
	DD	01H
; Function compile flags: /Ogsp
; File c:\program files (x86)\microsoft visual studio 10.0\vc\include\vector
xdata$x	ENDS
;	COMDAT ??0?$vector@UBulletSet@ioAliceObjectItem@@V?$allocator@UBulletSet@ioAliceObjectItem@@@std@@@std@@QAE@ABV01@@Z
_TEXT	SEGMENT
_this$ = -20						; size = 4
__$EHRec$ = -16						; size = 16
__Cat$555408 = 8					; size = 1
__Right$ = 8						; size = 4
??0?$vector@UBulletSet@ioAliceObjectItem@@V?$allocator@UBulletSet@ioAliceObjectItem@@@std@@@std@@QAE@ABV01@@Z PROC ; std::vector<ioAliceObjectItem::BulletSet,std::allocator<ioAliceObjectItem::BulletSet> >::vector<ioAliceObjectItem::BulletSet,std::allocator<ioAliceObjectItem::BulletSet> >, COMDAT
; _this$ = ecx

; 535  : 		{	// construct by copying _Right

  00000	6a 08		 push	 8
  00002	b8 00 00 00 00	 mov	 eax, __ehhandler$??0?$vector@UBulletSet@ioAliceObjectItem@@V?$allocator@UBulletSet@ioAliceObjectItem@@@std@@@std@@QAE@ABV01@@Z
  00007	e8 00 00 00 00	 call	 __EH_prolog3_catch
  0000c	8b f1		 mov	 esi, ecx
  0000e	89 75 ec	 mov	 DWORD PTR _this$[ebp], esi

; 536  : 		if (_Buy(_Right.size()))

  00011	8b 7d 08	 mov	 edi, DWORD PTR __Right$[ebp]
  00014	33 db		 xor	 ebx, ebx
  00016	89 1e		 mov	 DWORD PTR [esi], ebx
  00018	89 5e 04	 mov	 DWORD PTR [esi+4], ebx
  0001b	89 5e 08	 mov	 DWORD PTR [esi+8], ebx
  0001e	8b 47 04	 mov	 eax, DWORD PTR [edi+4]
  00021	2b 07		 sub	 eax, DWORD PTR [edi]
  00023	6a 14		 push	 20			; 00000014H
  00025	59		 pop	 ecx
  00026	99		 cdq
  00027	f7 f9		 idiv	 ecx
  00029	8b ce		 mov	 ecx, esi
  0002b	50		 push	 eax
  0002c	e8 00 00 00 00	 call	 ?_Buy@?$vector@UBulletSet@ioAliceObjectItem@@V?$allocator@UBulletSet@ioAliceObjectItem@@@std@@@std@@IAE_NI@Z ; std::vector<ioAliceObjectItem::BulletSet,std::allocator<ioAliceObjectItem::BulletSet> >::_Buy
  00031	84 c0		 test	 al, al
  00033	74 1f		 je	 SHORT $LN7@vector@2

; 537  : 			_TRY_BEGIN
; 538  : 			this->_Mylast = _Ucopy(_Right.begin(), _Right.end(),
; 539  : 				this->_Myfirst);

  00035	ff 75 08	 push	 DWORD PTR __Cat$555408[ebp]
  00038	8b 0e		 mov	 ecx, DWORD PTR [esi]
  0003a	8b 47 04	 mov	 eax, DWORD PTR [edi+4]
  0003d	8b 3f		 mov	 edi, DWORD PTR [edi]
  0003f	8d 56 0c	 lea	 edx, DWORD PTR [esi+12]
  00042	52		 push	 edx
  00043	51		 push	 ecx
  00044	50		 push	 eax
  00045	57		 push	 edi
  00046	89 5d fc	 mov	 DWORD PTR __$EHRec$[ebp+12], ebx
  00049	e8 00 00 00 00	 call	 ??$_Uninit_copy@V?$_Vector_const_iterator@V?$_Vector_val@UBulletSet@ioAliceObjectItem@@V?$allocator@UBulletSet@ioAliceObjectItem@@@std@@@std@@@std@@PAUBulletSet@ioAliceObjectItem@@V?$allocator@UBulletSet@ioAliceObjectItem@@@2@@std@@YAPAUBulletSet@ioAliceObjectItem@@V?$_Vector_const_iterator@V?$_Vector_val@UBulletSet@ioAliceObjectItem@@V?$allocator@UBulletSet@ioAliceObjectItem@@@std@@@std@@@0@0PAU12@AAV?$allocator@UBulletSet@ioAliceObjectItem@@@0@U_Nonscalar_ptr_iterator_tag@0@@Z ; std::_Uninit_copy<std::_Vector_const_iterator<std::_Vector_val<ioAliceObjectItem::BulletSet,std::allocator<ioAliceObjectItem::BulletSet> > >,ioAliceObjectItem::BulletSet *,std::allocator<ioAliceObjectItem::BulletSet> >
  0004e	83 c4 14	 add	 esp, 20			; 00000014H
  00051	89 46 04	 mov	 DWORD PTR [esi+4], eax
$LN7@vector@2:

; 543  : 			_CATCH_END
; 544  : 		}

  00054	8b c6		 mov	 eax, esi
  00056	e8 00 00 00 00	 call	 __EH_epilog3
  0005b	c2 04 00	 ret	 4
__catch$??0?$vector@UBulletSet@ioAliceObjectItem@@V?$allocator@UBulletSet@ioAliceObjectItem@@@std@@@std@@QAE@ABV01@@Z$0:

; 540  : 			_CATCH_ALL
; 541  : 			_Tidy();

  0005e	8b 4d ec	 mov	 ecx, DWORD PTR _this$[ebp]
  00061	e8 00 00 00 00	 call	 ?_Tidy@?$vector@UBulletSet@ioAliceObjectItem@@V?$allocator@UBulletSet@ioAliceObjectItem@@@std@@@std@@IAEXXZ ; std::vector<ioAliceObjectItem::BulletSet,std::allocator<ioAliceObjectItem::BulletSet> >::_Tidy

; 542  : 			_RERAISE;

  00066	33 db		 xor	 ebx, ebx
  00068	53		 push	 ebx
  00069	53		 push	 ebx
  0006a	e8 00 00 00 00	 call	 __CxxThrowException@8
$LN38@vector@2:
$LN37@vector@2:
  0006f	cc		 int	 3
_TEXT	ENDS
;	COMDAT text$x
text$x	SEGMENT
__ehhandler$??0?$vector@UBulletSet@ioAliceObjectItem@@V?$allocator@UBulletSet@ioAliceObjectItem@@@std@@@std@@QAE@ABV01@@Z:
  00000	8b 54 24 08	 mov	 edx, DWORD PTR [esp+8]
  00004	8d 42 0c	 lea	 eax, DWORD PTR [edx+12]
  00007	8b 4a e8	 mov	 ecx, DWORD PTR [edx-24]
  0000a	33 c8		 xor	 ecx, eax
  0000c	e8 00 00 00 00	 call	 @__security_check_cookie@4
  00011	b8 00 00 00 00	 mov	 eax, OFFSET __ehfuncinfo$??0?$vector@UBulletSet@ioAliceObjectItem@@V?$allocator@UBulletSet@ioAliceObjectItem@@@std@@@std@@QAE@ABV01@@Z
  00016	e9 00 00 00 00	 jmp	 ___CxxFrameHandler3
text$x	ENDS
??0?$vector@UBulletSet@ioAliceObjectItem@@V?$allocator@UBulletSet@ioAliceObjectItem@@@std@@@std@@QAE@ABV01@@Z ENDP ; std::vector<ioAliceObjectItem::BulletSet,std::allocator<ioAliceObjectItem::BulletSet> >::vector<ioAliceObjectItem::BulletSet,std::allocator<ioAliceObjectItem::BulletSet> >
PUBLIC	??1?$vector@UBulletSet@ioAliceObjectItem@@V?$allocator@UBulletSet@ioAliceObjectItem@@@std@@@std@@QAE@XZ ; std::vector<ioAliceObjectItem::BulletSet,std::allocator<ioAliceObjectItem::BulletSet> >::~vector<ioAliceObjectItem::BulletSet,std::allocator<ioAliceObjectItem::BulletSet> >
; Function compile flags: /Ogsp
;	COMDAT ??1?$vector@UBulletSet@ioAliceObjectItem@@V?$allocator@UBulletSet@ioAliceObjectItem@@@std@@@std@@QAE@XZ
_TEXT	SEGMENT
??1?$vector@UBulletSet@ioAliceObjectItem@@V?$allocator@UBulletSet@ioAliceObjectItem@@@std@@@std@@QAE@XZ PROC ; std::vector<ioAliceObjectItem::BulletSet,std::allocator<ioAliceObjectItem::BulletSet> >::~vector<ioAliceObjectItem::BulletSet,std::allocator<ioAliceObjectItem::BulletSet> >, COMDAT
; _this$ = ecx

; 705  : 		_Tidy();

  00000	e9 00 00 00 00	 jmp	 ?_Tidy@?$vector@UBulletSet@ioAliceObjectItem@@V?$allocator@UBulletSet@ioAliceObjectItem@@@std@@@std@@IAEXXZ ; std::vector<ioAliceObjectItem::BulletSet,std::allocator<ioAliceObjectItem::BulletSet> >::_Tidy
??1?$vector@UBulletSet@ioAliceObjectItem@@V?$allocator@UBulletSet@ioAliceObjectItem@@@std@@@std@@QAE@XZ ENDP ; std::vector<ioAliceObjectItem::BulletSet,std::allocator<ioAliceObjectItem::BulletSet> >::~vector<ioAliceObjectItem::BulletSet,std::allocator<ioAliceObjectItem::BulletSet> >
_TEXT	ENDS
PUBLIC	?_Reserve@?$vector@UBulletSet@ioAliceObjectItem@@V?$allocator@UBulletSet@ioAliceObjectItem@@@std@@@std@@IAEXI@Z ; std::vector<ioAliceObjectItem::BulletSet,std::allocator<ioAliceObjectItem::BulletSet> >::_Reserve
; Function compile flags: /Ogsp
;	COMDAT ?_Reserve@?$vector@UBulletSet@ioAliceObjectItem@@V?$allocator@UBulletSet@ioAliceObjectItem@@@std@@@std@@IAEXI@Z
_TEXT	SEGMENT
__Count$ = 8						; size = 4
?_Reserve@?$vector@UBulletSet@ioAliceObjectItem@@V?$allocator@UBulletSet@ioAliceObjectItem@@@std@@@std@@IAEXI@Z PROC ; std::vector<ioAliceObjectItem::BulletSet,std::allocator<ioAliceObjectItem::BulletSet> >::_Reserve, COMDAT
; _this$ = ecx

; 1290 : 		{	// ensure room for _Count new elements, grow exponentially

  00000	55		 push	 ebp
  00001	8b ec		 mov	 ebp, esp
  00003	56		 push	 esi
  00004	8b f1		 mov	 esi, ecx

; 1291 : 		size_type _Size = size();

  00006	8b 0e		 mov	 ecx, DWORD PTR [esi]
  00008	8b 46 04	 mov	 eax, DWORD PTR [esi+4]
  0000b	2b c1		 sub	 eax, ecx
  0000d	57		 push	 edi
  0000e	99		 cdq
  0000f	6a 14		 push	 20			; 00000014H
  00011	5f		 pop	 edi
  00012	f7 ff		 idiv	 edi
  00014	8b f8		 mov	 edi, eax

; 1292 : 		if (max_size() - _Count < _Size)

  00016	b8 cc cc cc 0c	 mov	 eax, 214748364		; 0cccccccH
  0001b	2b 45 08	 sub	 eax, DWORD PTR __Count$[ebp]
  0001e	3b c7		 cmp	 eax, edi
  00020	73 0b		 jae	 SHORT $LN4@Reserve@2

; 1293 : 			_Xlen();

  00022	68 00 00 00 00	 push	 OFFSET ??_C@_0BD@OLBABOEK@vector?$DMT?$DO?5too?5long?$AA@
  00027	ff 15 00 00 00
	00		 call	 DWORD PTR __imp_?_Xlength_error@std@@YAXPBD@Z
$LN21@Reserve@2:
$LN4@Reserve@2:

; 1294 : 		else if ((_Size += _Count) <= capacity())

  0002d	8b 46 08	 mov	 eax, DWORD PTR [esi+8]
  00030	2b c1		 sub	 eax, ecx
  00032	6a 14		 push	 20			; 00000014H
  00034	99		 cdq
  00035	59		 pop	 ecx
  00036	f7 f9		 idiv	 ecx
  00038	03 7d 08	 add	 edi, DWORD PTR __Count$[ebp]
  0003b	3b f8		 cmp	 edi, eax
  0003d	76 10		 jbe	 SHORT $LN1@Reserve@2

; 1295 : 			;
; 1296 : 		else
; 1297 : 			reserve(_Grow_to(_Size));

  0003f	57		 push	 edi
  00040	8b ce		 mov	 ecx, esi
  00042	e8 00 00 00 00	 call	 ?_Grow_to@?$vector@UBulletSet@ioAliceObjectItem@@V?$allocator@UBulletSet@ioAliceObjectItem@@@std@@@std@@IBEII@Z ; std::vector<ioAliceObjectItem::BulletSet,std::allocator<ioAliceObjectItem::BulletSet> >::_Grow_to
  00047	50		 push	 eax
  00048	8b ce		 mov	 ecx, esi
  0004a	e8 00 00 00 00	 call	 ?reserve@?$vector@UBulletSet@ioAliceObjectItem@@V?$allocator@UBulletSet@ioAliceObjectItem@@@std@@@std@@QAEXI@Z ; std::vector<ioAliceObjectItem::BulletSet,std::allocator<ioAliceObjectItem::BulletSet> >::reserve
$LN1@Reserve@2:
  0004f	5f		 pop	 edi
  00050	5e		 pop	 esi

; 1298 : 		}

  00051	5d		 pop	 ebp
  00052	c2 04 00	 ret	 4
$LN20@Reserve@2:
?_Reserve@?$vector@UBulletSet@ioAliceObjectItem@@V?$allocator@UBulletSet@ioAliceObjectItem@@@std@@@std@@IAEXI@Z ENDP ; std::vector<ioAliceObjectItem::BulletSet,std::allocator<ioAliceObjectItem::BulletSet> >::_Reserve
_TEXT	ENDS
PUBLIC	??_7ioAliceObjectItem@@6B@			; ioAliceObjectItem::`vftable'
PUBLIC	??0ioAliceObjectItem@@QAE@XZ			; ioAliceObjectItem::ioAliceObjectItem
PUBLIC	??_R4ioAliceObjectItem@@6B@			; ioAliceObjectItem::`RTTI Complete Object Locator'
PUBLIC	??_R0?AVioAliceObjectItem@@@8			; ioAliceObjectItem `RTTI Type Descriptor'
PUBLIC	??_R3ioAliceObjectItem@@8			; ioAliceObjectItem::`RTTI Class Hierarchy Descriptor'
PUBLIC	??_R2ioAliceObjectItem@@8			; ioAliceObjectItem::`RTTI Base Class Array'
PUBLIC	??_R1A@?0A@EA@ioAliceObjectItem@@8		; ioAliceObjectItem::`RTTI Base Class Descriptor at (0,-1,0,64)'
PUBLIC	??_R1A@?0A@EA@ioObjectItem@@8			; ioObjectItem::`RTTI Base Class Descriptor at (0,-1,0,64)'
PUBLIC	??_R0?AVioObjectItem@@@8			; ioObjectItem `RTTI Type Descriptor'
PUBLIC	??_R3ioObjectItem@@8				; ioObjectItem::`RTTI Class Hierarchy Descriptor'
PUBLIC	??_R2ioObjectItem@@8				; ioObjectItem::`RTTI Base Class Array'
PUBLIC	??_R1A@?0A@EA@ioWeaponItem@@8			; ioWeaponItem::`RTTI Base Class Descriptor at (0,-1,0,64)'
PUBLIC	??_R3ioWeaponItem@@8				; ioWeaponItem::`RTTI Class Hierarchy Descriptor'
PUBLIC	??_R2ioWeaponItem@@8				; ioWeaponItem::`RTTI Base Class Array'
PUBLIC	??_R1A@?0A@EA@ioAttackableItem@@8		; ioAttackableItem::`RTTI Base Class Descriptor at (0,-1,0,64)'
PUBLIC	??_R0?AVioAttackableItem@@@8			; ioAttackableItem `RTTI Type Descriptor'
PUBLIC	??_R3ioAttackableItem@@8			; ioAttackableItem::`RTTI Class Hierarchy Descriptor'
PUBLIC	??_R2ioAttackableItem@@8			; ioAttackableItem::`RTTI Base Class Array'
PUBLIC	??_R1A@?0A@EA@ioItem@@8				; ioItem::`RTTI Base Class Descriptor at (0,-1,0,64)'
PUBLIC	??_R3ioItem@@8					; ioItem::`RTTI Class Hierarchy Descriptor'
PUBLIC	??_R2ioItem@@8					; ioItem::`RTTI Base Class Array'
PUBLIC	?LoadProperty@ioAliceObjectItem@@UAEXAAVioINILoader@@@Z ; ioAliceObjectItem::LoadProperty
PUBLIC	?Clone@ioAliceObjectItem@@UAEPAVioItem@@XZ	; ioAliceObjectItem::Clone
PUBLIC	?IsEnableExtraGauge@ioItem@@UAE_NPAVioBaseChar@@@Z ; ioItem::IsEnableExtraGauge
PUBLIC	?GetExtraGauge@ioItem@@UAEMXZ			; ioItem::GetExtraGauge
PUBLIC	?CheckOnHand@ioAttackableItem@@UAE_NXZ		; ioAttackableItem::CheckOnHand
PUBLIC	?CheckAimState@ioAttackableItem@@UAE_N_N@Z	; ioAttackableItem::CheckAimState
PUBLIC	?SetAimState@ioAttackableItem@@UAE_NPAVioBaseChar@@@Z ; ioAttackableItem::SetAimState
PUBLIC	?CheckExtendDefenseEnable@ioAttackableItem@@UAE_NPAVioBaseChar@@@Z ; ioAttackableItem::CheckExtendDefenseEnable
PUBLIC	?IsChargeAttackState@ioAttackableItem@@UAE_NPAVioBaseChar@@@Z ; ioAttackableItem::IsChargeAttackState
PUBLIC	?IsMoveAttackState@ioAttackableItem@@UAE_NPAVioBaseChar@@@Z ; ioAttackableItem::IsMoveAttackState
PUBLIC	?IsNoGhostWalk@ioAttackableItem@@UAE_NPAVioBaseChar@@@Z ; ioAttackableItem::IsNoGhostWalk
PUBLIC	?IsEnableAttackDashCheck@ioAttackableItem@@UAE_NPAVioBaseChar@@_N@Z ; ioAttackableItem::IsEnableAttackDashCheck
PUBLIC	?IsEnableItemDashCheck@ioAttackableItem@@UAE_NPAVioBaseChar@@_N@Z ; ioAttackableItem::IsEnableItemDashCheck
PUBLIC	?IsEnableAttackRotateCheck@ioAttackableItem@@UAE_NPAVioBaseChar@@@Z ; ioAttackableItem::IsEnableAttackRotateCheck
PUBLIC	?IsEnableChargeDefenseCheck@ioAttackableItem@@UAE_NXZ ; ioAttackableItem::IsEnableChargeDefenseCheck
PUBLIC	?IsUseDefenceCounterAttackEndDash@ioAttackableItem@@UAE_NXZ ; ioAttackableItem::IsUseDefenceCounterAttackEndDash
PUBLIC	?IsAutoTarget@ioAttackableItem@@UBE_NXZ		; ioAttackableItem::IsAutoTarget
PUBLIC	?IsWoundAfterUseExtendState@ioAttackableItem@@UAE_NXZ ; ioAttackableItem::IsWoundAfterUseExtendState
PUBLIC	?CheckWoundAfterUseExtendState@ioAttackableItem@@UAE_NPAVioBaseChar@@W4BlowTargetType@@@Z ; ioAttackableItem::CheckWoundAfterUseExtendState
PUBLIC	?IsCharSkipState@ioAttackableItem@@UAE_NPBVioBaseChar@@@Z ; ioAttackableItem::IsCharSkipState
PUBLIC	?SetObjectReleaseTCPSend@ioObjectItem@@UAEX_N@Z	; ioObjectItem::SetObjectReleaseTCPSend
PUBLIC	?IsObjectReleaseTCPSend@ioObjectItem@@UAE_NXZ	; ioObjectItem::IsObjectReleaseTCPSend
PUBLIC	?IsNormalAttackStop@ioObjectItem@@UAE_NXZ	; ioObjectItem::IsNormalAttackStop
EXTRN	??0ioObjectItem@@QAE@XZ:PROC			; ioObjectItem::ioObjectItem
EXTRN	?FindFieldEntityGrp@ioItem@@MBEABVioHashString@@XZ:PROC ; ioItem::FindFieldEntityGrp
EXTRN	?GetType@ioObjectItem@@UBE?AW4ItemType@ioItem@@XZ:PROC ; ioObjectItem::GetType
EXTRN	?UseCreateIndexItem@ioItem@@UBE_NXZ:PROC	; ioItem::UseCreateIndexItem
EXTRN	?GetSetFocusColor@ioItem@@UBEKXZ:PROC		; ioItem::GetSetFocusColor
EXTRN	?Initialize@ioItem@@UAEXABVioHashString@@PAVioPlayStage@@@Z:PROC ; ioItem::Initialize
EXTRN	?InitializeBeforeEquip@ioItem@@UAEXABVioHashString@@PAVioPlayStage@@@Z:PROC ; ioItem::InitializeBeforeEquip
EXTRN	?SetExtendEquipEffect@ioItem@@UAEXPAVioBaseChar@@@Z:PROC ; ioItem::SetExtendEquipEffect
EXTRN	?ReleaseExtendEquipEffect@ioItem@@UAEXPAVioBaseChar@@@Z:PROC ; ioItem::ReleaseExtendEquipEffect
EXTRN	?AddGlowLine@ioWeaponItem@@UAEXPAVioBaseChar@@@Z:PROC ; ioWeaponItem::AddGlowLine
EXTRN	?RemoveGlowLine@ioWeaponItem@@UAEXPAVioBaseChar@@@Z:PROC ; ioWeaponItem::RemoveGlowLine
EXTRN	?GetTargetName@ioItem@@UAE?AVioHashString@@XZ:PROC ; ioItem::GetTargetName
EXTRN	?ClearTarget@ioItem@@UAEXXZ:PROC		; ioItem::ClearTarget
EXTRN	?SetItemType@ioWeaponItem@@UAEXXZ:PROC		; ioWeaponItem::SetItemType
EXTRN	?UpdateExtraData@ioItem@@UAEXPAVioBaseChar@@@Z:PROC ; ioItem::UpdateExtraData
EXTRN	?CheckWeaponDefenseState@ioItem@@UAEXPAVioBaseChar@@@Z:PROC ; ioItem::CheckWeaponDefenseState
EXTRN	?CheckWoundedState@ioItem@@UAEXPAVioBaseChar@@@Z:PROC ; ioItem::CheckWoundedState
EXTRN	?SetVisible@ioItem@@UAEXPAVioBaseChar@@_N@Z:PROC ; ioItem::SetVisible
EXTRN	?UpdateSkillGauge@ioItem@@UAEXPAVioBaseChar@@M_N@Z:PROC ; ioItem::UpdateSkillGauge
EXTRN	?ReduceNeedGauge@ioItem@@UAEXMPAVioBaseChar@@@Z:PROC ; ioItem::ReduceNeedGauge
EXTRN	?GetCurBullet@ioItem@@UAEHXZ:PROC		; ioItem::GetCurBullet
EXTRN	?GetMaxBullet@ioItem@@UAEHXZ:PROC		; ioItem::GetMaxBullet
EXTRN	?SetCurBullet@ioItem@@UAEXH@Z:PROC		; ioItem::SetCurBullet
EXTRN	?GetCurSecoundBullet@ioItem@@UAEHXZ:PROC	; ioItem::GetCurSecoundBullet
EXTRN	?GetMaxSecoundBullet@ioItem@@UAEHXZ:PROC	; ioItem::GetMaxSecoundBullet
EXTRN	?SetCurSecoundBullet@ioItem@@UAEXH@Z:PROC	; ioItem::SetCurSecoundBullet
EXTRN	?GetGrowthInfoNum@ioObjectItem@@UBEHH@Z:PROC	; ioObjectItem::GetGrowthInfoNum
EXTRN	?GetGrowthInfoNumByType@ioObjectItem@@UBEHHAAH@Z:PROC ; ioObjectItem::GetGrowthInfoNumByType
EXTRN	?ClearCurChargeRateForSkill@ioItem@@UAEXXZ:PROC	; ioItem::ClearCurChargeRateForSkill
EXTRN	?GetChargeDamageRateForSkill@ioItem@@UAEMXZ:PROC ; ioItem::GetChargeDamageRateForSkill
EXTRN	?GetChargeForceRateForSkill@ioItem@@UAEMXZ:PROC	; ioItem::GetChargeForceRateForSkill
EXTRN	?GetChargeBlowRateForSkill@ioItem@@UAEMXZ:PROC	; ioItem::GetChargeBlowRateForSkill
EXTRN	?GetChargeRangeRateForSkill@ioItem@@UAEMXZ:PROC	; ioItem::GetChargeRangeRateForSkill
EXTRN	?GetChargeSpeedRateForSkill@ioItem@@UAEMXZ:PROC	; ioItem::GetChargeSpeedRateForSkill
EXTRN	?GetChargeFloatRateForSkill@ioItem@@UAEMXZ:PROC	; ioItem::GetChargeFloatRateForSkill
EXTRN	?GetChargeScaleRateForSkill@ioItem@@UAEMXZ:PROC	; ioItem::GetChargeScaleRateForSkill
EXTRN	?GetChargeExplosionRateForSkill@ioItem@@UAEMXZ:PROC ; ioItem::GetChargeExplosionRateForSkill
EXTRN	?GetChargeWoundedTimeRateForSkill@ioItem@@UAEMXZ:PROC ; ioItem::GetChargeWoundedTimeRateForSkill
EXTRN	?SetCurEquipEffect@ioItem@@UAEX_N@Z:PROC	; ioItem::SetCurEquipEffect
EXTRN	?SetCostume@ioItem@@UAEXH_N@Z:PROC		; ioItem::SetCostume
EXTRN	??_EioAliceObjectItem@@UAEPAXI@Z:PROC		; ioAliceObjectItem::`vector deleting destructor'
EXTRN	?CallItemProcess@ioAttackableItem@@UAEXPAVioBaseChar@@@Z:PROC ; ioAttackableItem::CallItemProcess
EXTRN	?CheckChargeInfo@ioAttackableItem@@UAEXPAVioWeapon@@_N@Z:PROC ; ioAttackableItem::CheckChargeInfo
EXTRN	?SetExtendDefenseState@ioAttackableItem@@UAE_NPAVioBaseChar@@@Z:PROC ; ioAttackableItem::SetExtendDefenseState
EXTRN	?CheckExtendDefenseState@ioAttackableItem@@UAEXPAVioBaseChar@@@Z:PROC ; ioAttackableItem::CheckExtendDefenseState
EXTRN	?CheckDefenseMoveAniState@ioAttackableItem@@UAEXPAVioBaseChar@@@Z:PROC ; ioAttackableItem::CheckDefenseMoveAniState
EXTRN	?SetDodgeDefenseState@ioAttackableItem@@UAE_NPAVioBaseChar@@@Z:PROC ; ioAttackableItem::SetDodgeDefenseState
EXTRN	?CheckDodgeDefenseState@ioAttackableItem@@UAEXPAVioBaseChar@@@Z:PROC ; ioAttackableItem::CheckDodgeDefenseState
EXTRN	?ApplyDodgeDefenseState@ioAttackableItem@@UAEXPAVioBaseChar@@AAVSP2Packet@@@Z:PROC ; ioAttackableItem::ApplyDodgeDefenseState
EXTRN	?SetDefenseAttackState@ioAttackableItem@@UAE_NPAVioBaseChar@@@Z:PROC ; ioAttackableItem::SetDefenseAttackState
EXTRN	?CheckDefenseAttackState@ioAttackableItem@@UAEXPAVioBaseChar@@@Z:PROC ; ioAttackableItem::CheckDefenseAttackState
EXTRN	?ApplyDefenseAttackState@ioAttackableItem@@UAEXPAVioBaseChar@@AAVSP2Packet@@@Z:PROC ; ioAttackableItem::ApplyDefenseAttackState
EXTRN	?SetExtendDashState@ioAttackableItem@@UAE_NPAVioBaseChar@@@Z:PROC ; ioAttackableItem::SetExtendDashState
EXTRN	?CheckExtendDashState@ioAttackableItem@@UAEXPAVioBaseChar@@@Z:PROC ; ioAttackableItem::CheckExtendDashState
EXTRN	?CheckNormalAttack@ioAttackableItem@@UAEXPAVioBaseChar@@@Z:PROC ; ioAttackableItem::CheckNormalAttack
EXTRN	?SetJumpAttack@ioAttackableItem@@UAE_NPAVioBaseChar@@HMW4AttackType@@@Z:PROC ; ioAttackableItem::SetJumpAttack
EXTRN	?CheckJumpAttack@ioAttackableItem@@UAEXPAVioBaseChar@@@Z:PROC ; ioAttackableItem::CheckJumpAttack
EXTRN	?SetJumpReloadState@ioAttackableItem@@UAE_NPAVioBaseChar@@@Z:PROC ; ioAttackableItem::SetJumpReloadState
EXTRN	?SetJumpReload@ioAttackableItem@@UAE_NPAVioBaseChar@@@Z:PROC ; ioAttackableItem::SetJumpReload
EXTRN	?CheckJumpReloadState@ioAttackableItem@@UAEXPAVioBaseChar@@@Z:PROC ; ioAttackableItem::CheckJumpReloadState
EXTRN	?CheckJumpReloadReserve@ioAttackableItem@@UAEXPAVioBaseChar@@@Z:PROC ; ioAttackableItem::CheckJumpReloadReserve
EXTRN	?ProcessJumpReloadState@ioAttackableItem@@UAEXPAVioBaseChar@@@Z:PROC ; ioAttackableItem::ProcessJumpReloadState
EXTRN	?ApplyJumpReload@ioAttackableItem@@UAEXPAVioBaseChar@@AAVSP2Packet@@@Z:PROC ; ioAttackableItem::ApplyJumpReload
EXTRN	?OnItemGaugeOK@ioAttackableItem@@UAEXPAVioBaseChar@@AAVSP2Packet@@@Z:PROC ; ioAttackableItem::OnItemGaugeOK
EXTRN	?OnItemGaugeCancel@ioAttackableItem@@UAEXPAVioBaseChar@@AAVSP2Packet@@@Z:PROC ; ioAttackableItem::OnItemGaugeCancel
EXTRN	?OnEndExtendDefense@ioAttackableItem@@UAEXPAVioBaseChar@@@Z:PROC ; ioAttackableItem::OnEndExtendDefense
EXTRN	?OnEndNormalAttack@ioAttackableItem@@UAEXPAVioBaseChar@@@Z:PROC ; ioAttackableItem::OnEndNormalAttack
EXTRN	?OnEndExtendAttack@ioAttackableItem@@UAEXPAVioBaseChar@@_N@Z:PROC ; ioAttackableItem::OnEndExtendAttack
EXTRN	?OnEndExtendJump@ioAttackableItem@@UAEXPAVioBaseChar@@@Z:PROC ; ioAttackableItem::OnEndExtendJump
EXTRN	?FillNormalAttackExtraInfo@ioAttackableItem@@UAEXAAVSP2Packet@@@Z:PROC ; ioAttackableItem::FillNormalAttackExtraInfo
EXTRN	?ApplyNormalAttackExtraInfo@ioAttackableItem@@UAEXAAVSP2Packet@@@Z:PROC ; ioAttackableItem::ApplyNormalAttackExtraInfo
EXTRN	?CheckLanding@ioAttackableItem@@UAE_NPAVioBaseChar@@@Z:PROC ; ioAttackableItem::CheckLanding
EXTRN	?SetNoneState@ioAttackableItem@@UAEXPAVioBaseChar@@H@Z:PROC ; ioAttackableItem::SetNoneState
EXTRN	?IsCanUpdateGauge@ioAttackableItem@@UAE_NPAVioBaseChar@@@Z:PROC ; ioAttackableItem::IsCanUpdateGauge
EXTRN	?CheckAimJumpState@ioAttackableItem@@UAEXPAVioBaseChar@@@Z:PROC ; ioAttackableItem::CheckAimJumpState
EXTRN	?GetJumppingAnimation@ioAttackableItem@@UBEABVioHashString@@XZ:PROC ; ioAttackableItem::GetJumppingAnimation
EXTRN	?GetExtendJumppingAnimation@ioAttackableItem@@UBEABVioHashString@@XZ:PROC ; ioAttackableItem::GetExtendJumppingAnimation
EXTRN	?CheckRetreatState@ioAttackableItem@@UAEXPAVioBaseChar@@@Z:PROC ; ioAttackableItem::CheckRetreatState
EXTRN	?SetNextItemState@ioAttackableItem@@UAEXPAVioBaseChar@@0PAVioWeapon@@_NM@Z:PROC ; ioAttackableItem::SetNextItemState
EXTRN	?WeaponWounded@ioWeaponItem@@UAEXPAVioWeapon@@PAVioBaseChar@@@Z:PROC ; ioWeaponItem::WeaponWounded
EXTRN	?WeaponMapColDead@ioAttackableItem@@UAEXPAVioWeapon@@@Z:PROC ; ioAttackableItem::WeaponMapColDead
EXTRN	?SetDefenceCounterState@ioAttackableItem@@UAEXPAVioBaseChar@@@Z:PROC ; ioAttackableItem::SetDefenceCounterState
EXTRN	?IsUseDefenceCounterAttack@ioAttackableItem@@UAE_NXZ:PROC ; ioAttackableItem::IsUseDefenceCounterAttack
EXTRN	?ProcessDefenceCounterAttack@ioAttackableItem@@UAEXPAVioBaseChar@@@Z:PROC ; ioAttackableItem::ProcessDefenceCounterAttack
EXTRN	?ProcessExtraJump@ioAttackableItem@@UAEXPAVioBaseChar@@@Z:PROC ; ioAttackableItem::ProcessExtraJump
EXTRN	?SetEndGrappling@ioAttackableItem@@UAEXPAVioBaseChar@@@Z:PROC ; ioAttackableItem::SetEndGrappling
EXTRN	?ClearKeyReserve@ioAttackableItem@@MAEXXZ:PROC	; ioAttackableItem::ClearKeyReserve
EXTRN	?CheckReserve@ioAttackableItem@@MAEXPAVioBaseChar@@@Z:PROC ; ioAttackableItem::CheckReserve
EXTRN	?ProcessReserveKeyInput@ioAttackableItem@@MAEXPAVioBaseChar@@@Z:PROC ; ioAttackableItem::ProcessReserveKeyInput
EXTRN	?SetJumpState@ioAttackableItem@@UAEXXZ:PROC	; ioAttackableItem::SetJumpState
EXTRN	?SetJumpping@ioAttackableItem@@UAEXPAVioBaseChar@@_N@Z:PROC ; ioAttackableItem::SetJumpping
EXTRN	?ProcessJumpping@ioAttackableItem@@UAEXPAVioBaseChar@@M@Z:PROC ; ioAttackableItem::ProcessJumpping
EXTRN	?ProcessJumppingByNoNeedProcess@ioAttackableItem@@UAEXPAVioBaseChar@@M@Z:PROC ; ioAttackableItem::ProcessJumppingByNoNeedProcess
EXTRN	?ProcessLanding@ioAttackableItem@@UAEXPAVioBaseChar@@@Z:PROC ; ioAttackableItem::ProcessLanding
EXTRN	?ProcessJumpAttack@ioAttackableItem@@UAEXPAVioBaseChar@@M@Z:PROC ; ioAttackableItem::ProcessJumpAttack
EXTRN	?ProcessAimJump@ioAttackableItem@@UAE_NPAVioBaseChar@@M@Z:PROC ; ioAttackableItem::ProcessAimJump
EXTRN	?ApplyJump@ioAttackableItem@@UAEXPAVioBaseChar@@AAVSP2Packet@@@Z:PROC ; ioAttackableItem::ApplyJump
EXTRN	?ApplyDash@ioAttackableItem@@UAEXPAVioBaseChar@@AAVSP2Packet@@@Z:PROC ; ioAttackableItem::ApplyDash
EXTRN	?ApplyCounterAttack@ioAttackableItem@@UAEXPAVioBaseChar@@AAVSP2Packet@@@Z:PROC ; ioAttackableItem::ApplyCounterAttack
EXTRN	?CheckComboJumpAttack@ioAttackableItem@@UAEXPAVioBaseChar@@@Z:PROC ; ioAttackableItem::CheckComboJumpAttack
EXTRN	?SetFlashJumpAttack@ioAttackableItem@@UAE_NPAVioBaseChar@@@Z:PROC ; ioAttackableItem::SetFlashJumpAttack
EXTRN	?SetComboFlashAttack@ioAttackableItem@@UAE_NPAVioBaseChar@@@Z:PROC ; ioAttackableItem::SetComboFlashAttack
EXTRN	?SetCollectJumpAttack@ioAttackableItem@@UAE_NPAVioBaseChar@@@Z:PROC ; ioAttackableItem::SetCollectJumpAttack
EXTRN	?SetPowerChargeJumpAttack@ioAttackableItem@@UAE_NPAVioBaseChar@@@Z:PROC ; ioAttackableItem::SetPowerChargeJumpAttack
EXTRN	?GetAttackSpeedRate@ioAttackableItem@@UBEMXZ:PROC ; ioAttackableItem::GetAttackSpeedRate
EXTRN	?GetExtraJumpSpeedRate@ioAttackableItem@@UBEMABUD3DXVECTOR3@@ABUD3DXQUATERNION@@@Z:PROC ; ioAttackableItem::GetExtraJumpSpeedRate
EXTRN	?IsEnableExtendJump@ioAttackableItem@@UAE_NXZ:PROC ; ioAttackableItem::IsEnableExtendJump
EXTRN	?RecevieExtendJumpUse@ioAttackableItem@@UAEXPAVioBaseChar@@@Z:PROC ; ioAttackableItem::RecevieExtendJumpUse
EXTRN	?HasAniFile@ioAttackableItem@@UBE_NW4AttackType@@H@Z:PROC ; ioAttackableItem::HasAniFile
EXTRN	?HasEndAniFile@ioAttackableItem@@UBE_NW4AttackType@@H@Z:PROC ; ioAttackableItem::HasEndAniFile
EXTRN	?GetAttackAttribute@ioAttackableItem@@UBEPBUAttackAttribute@@W4AttackType@@H@Z:PROC ; ioAttackableItem::GetAttackAttribute
EXTRN	?GetAniFile@ioAttackableItem@@UBEABVioHashString@@W4AttackType@@H@Z:PROC ; ioAttackableItem::GetAniFile
EXTRN	?GetAttackAniRate@ioAttackableItem@@UBEMW4AttackType@@H@Z:PROC ; ioAttackableItem::GetAttackAniRate
EXTRN	?GetEndAniFile@ioAttackableItem@@UBEABVioHashString@@W4AttackType@@H@Z:PROC ; ioAttackableItem::GetEndAniFile
EXTRN	?GetAttackEndAniRate@ioAttackableItem@@UBEMW4AttackType@@H@Z:PROC ; ioAttackableItem::GetAttackEndAniRate
EXTRN	?GetAttackAttributeIdx@ioAttackableItem@@UBEABV?$vector@UWeaponInfo@@V?$allocator@UWeaponInfo@@@std@@@std@@W4AttackType@@H@Z:PROC ; ioAttackableItem::GetAttackAttributeIdx
EXTRN	?GetForceInfoList@ioAttackableItem@@UBEABV?$vector@UForceInfo@@V?$allocator@UForceInfo@@@std@@@std@@W4AttackType@@H@Z:PROC ; ioAttackableItem::GetForceInfoList
EXTRN	?GetAttackPreDelay@ioAttackableItem@@UBEKW4AttackType@@H@Z:PROC ; ioAttackableItem::GetAttackPreDelay
EXTRN	?GetAttackAnimationDelay@ioAttackableItem@@UBEKW4AttackType@@H@Z:PROC ; ioAttackableItem::GetAttackAnimationDelay
EXTRN	?GetMaxCombo@ioAttackableItem@@UBEHXZ:PROC	; ioAttackableItem::GetMaxCombo
EXTRN	?GetExtraDashAttackMax@ioAttackableItem@@UBEHXZ:PROC ; ioAttackableItem::GetExtraDashAttackMax
EXTRN	?HasJumpEndAnimation@ioAttackableItem@@UBE_N_NPAVioBaseChar@@@Z:PROC ; ioAttackableItem::HasJumpEndAnimation
EXTRN	?GetJumpEndAnimation@ioAttackableItem@@UBEABVioHashString@@_NPAVioBaseChar@@@Z:PROC ; ioAttackableItem::GetJumpEndAnimation
EXTRN	?ClearCancelInfo@ioAttackableItem@@MAEXXZ:PROC	; ioAttackableItem::ClearCancelInfo
EXTRN	?CheckCancelReserve@ioAttackableItem@@MAEXPAVioBaseChar@@@Z:PROC ; ioAttackableItem::CheckCancelReserve
EXTRN	?SetCurAttackAniForInputJump@ioAttackableItem@@MAEXABVioHashString@@M@Z:PROC ; ioAttackableItem::SetCurAttackAniForInputJump
EXTRN	?ProcessCancel@ioAttackableItem@@MAE_NPAVioBaseChar@@@Z:PROC ; ioAttackableItem::ProcessCancel
EXTRN	?ProcessCancelBySpeicalDash@ioAttackableItem@@MAE_NPAVioBaseChar@@@Z:PROC ; ioAttackableItem::ProcessCancelBySpeicalDash
EXTRN	?SetCurAttackAniForInputDashS@ioAttackableItem@@UAEXABVioHashString@@M@Z:PROC ; ioAttackableItem::SetCurAttackAniForInputDashS
EXTRN	?CheckCancelReserveByConditionalSpecialDash@ioAttackableItem@@UAEXPAVioBaseChar@@@Z:PROC ; ioAttackableItem::CheckCancelReserveByConditionalSpecialDash
EXTRN	?IsConditionalSpecialDashReserve@ioAttackableItem@@UAE_NPAVioBaseChar@@@Z:PROC ; ioAttackableItem::IsConditionalSpecialDashReserve
EXTRN	?SetChangeConditionalSpecialDash@ioAttackableItem@@UAEXPAVioBaseChar@@W4DirKeyInput@ioUserKeyInput@@H@Z:PROC ; ioAttackableItem::SetChangeConditionalSpecialDash
EXTRN	?CheckChangeWereWolfState@ioAttackableItem@@UAE_NPAVioBaseChar@@@Z:PROC ; ioAttackableItem::CheckChangeWereWolfState
EXTRN	?SetChangeWereWolfState@ioAttackableItem@@UAEXPAVioBaseChar@@@Z:PROC ; ioAttackableItem::SetChangeWereWolfState
EXTRN	?CheckReleaseWereWolfState@ioAttackableItem@@UAE_NPAVioBaseChar@@@Z:PROC ; ioAttackableItem::CheckReleaseWereWolfState
EXTRN	?ReleseWereWolfState@ioAttackableItem@@UAEXPAVioBaseChar@@@Z:PROC ; ioAttackableItem::ReleseWereWolfState
EXTRN	?ReleseWereWolfStateByOwner@ioAttackableItem@@UAEXPAVioBaseChar@@@Z:PROC ; ioAttackableItem::ReleseWereWolfStateByOwner
EXTRN	?IncreaseChangeDamage@ioAttackableItem@@UAEXMH_N@Z:PROC ; ioAttackableItem::IncreaseChangeDamage
EXTRN	?IncreaseChangeDamageByWeapon@ioAttackableItem@@UAEXM@Z:PROC ; ioAttackableItem::IncreaseChangeDamageByWeapon
EXTRN	?CheckIncreaseChangeDamage@ioAttackableItem@@UAEXPAVioBaseChar@@@Z:PROC ; ioAttackableItem::CheckIncreaseChangeDamage
EXTRN	?DecreaseChangeDamage@ioAttackableItem@@UAEXPAVioBaseChar@@@Z:PROC ; ioAttackableItem::DecreaseChangeDamage
EXTRN	?IsEnableActionStopDelay@ioAttackableItem@@UAE_NXZ:PROC ; ioAttackableItem::IsEnableActionStopDelay
EXTRN	?SetExtraGaugeTypeByWeapon@ioAttackableItem@@UAEXPAVioBaseChar@@HHM@Z:PROC ; ioAttackableItem::SetExtraGaugeTypeByWeapon
EXTRN	?SetUseExtraGauge@ioAttackableItem@@UAEXM@Z:PROC ; ioAttackableItem::SetUseExtraGauge
EXTRN	?InitExtraGauge@ioAttackableItem@@UAEXXZ:PROC	; ioAttackableItem::InitExtraGauge
EXTRN	?MaxExtraGauge@ioAttackableItem@@UAEXXZ:PROC	; ioAttackableItem::MaxExtraGauge
EXTRN	?GetMaxExtraGauge@ioAttackableItem@@UAEMXZ:PROC	; ioAttackableItem::GetMaxExtraGauge
EXTRN	?GetCurExtraGauge@ioAttackableItem@@UAEMXZ:PROC	; ioAttackableItem::GetCurExtraGauge
EXTRN	?SetCurExtraGauge@ioAttackableItem@@UAEXM@Z:PROC ; ioAttackableItem::SetCurExtraGauge
EXTRN	?GetAutoTargetValue@ioAttackableItem@@UAEXPAVioBaseChar@@AAM11W4AutoTargetType@@@Z:PROC ; ioAttackableItem::GetAutoTargetValue
EXTRN	?ClearAirJump@ioAttackableItem@@UAEXXZ:PROC	; ioAttackableItem::ClearAirJump
EXTRN	?SetAirJump@ioAttackableItem@@UAEXPAVioBaseChar@@HM@Z:PROC ; ioAttackableItem::SetAirJump
EXTRN	?CheckAirJump@ioAttackableItem@@UAEXPAVioBaseChar@@@Z:PROC ; ioAttackableItem::CheckAirJump
EXTRN	?EquipObjectItemByAttakable@ioAttackableItem@@UAEXPAVioBaseChar@@PAVioItem@@@Z:PROC ; ioAttackableItem::EquipObjectItemByAttakable
EXTRN	?ReleaseObjectItemByAttack@ioAttackableItem@@UAEXPAVioBaseChar@@PAVioItem@@@Z:PROC ; ioAttackableItem::ReleaseObjectItemByAttack
EXTRN	?IsBuffFlyChange@ioAttackableItem@@UAE_NPAVioBaseChar@@@Z:PROC ; ioAttackableItem::IsBuffFlyChange
EXTRN	?GetAttackStateText@ioAttackableItem@@UBEPBDXZ:PROC ; ioAttackableItem::GetAttackStateText
EXTRN	?SetJumpLandingExtraState@ioAttackableItem@@UAE_NPAVioBaseChar@@@Z:PROC ; ioAttackableItem::SetJumpLandingExtraState
EXTRN	?ReleaseObjectState@ioWeaponItem@@UAEXPAVioBaseChar@@PAVioObjectItem@@@Z:PROC ; ioWeaponItem::ReleaseObjectState
EXTRN	?IsCmdCheckEnableTime@ioWeaponItem@@UAE_NXZ:PROC ; ioWeaponItem::IsCmdCheckEnableTime
EXTRN	?IsCmdSuccess@ioWeaponItem@@UAE_NXZ:PROC	; ioWeaponItem::IsCmdSuccess
EXTRN	?GetEquipMesh@ioObjectItem@@UBEABVioHashString@@PAVioBaseChar@@@Z:PROC ; ioObjectItem::GetEquipMesh
EXTRN	?IsCanSendControl@ioWeaponItem@@UBE_NXZ:PROC	; ioWeaponItem::IsCanSendControl
EXTRN	?GetSubType@ioObjectItem@@UBE?AW4WeaponSubType@ioWeaponItem@@XZ:PROC ; ioObjectItem::GetSubType
EXTRN	?IsEnableDefense@ioObjectItem@@UBE_NXZ:PROC	; ioObjectItem::IsEnableDefense
EXTRN	?IsProtectState@ioObjectItem@@UAE_NXZ:PROC	; ioObjectItem::IsProtectState
EXTRN	?EnableReduceGaugeOnSwitchBuff@ioObjectItem@@UAE_NXZ:PROC ; ioObjectItem::EnableReduceGaugeOnSwitchBuff
EXTRN	?CheckAttackCount@ioObjectItem@@UAEXPAVioBaseChar@@@Z:PROC ; ioObjectItem::CheckAttackCount
EXTRN	?CheckActiveCount@ioObjectItem@@UAEXPAVioBaseChar@@@Z:PROC ; ioObjectItem::CheckActiveCount
EXTRN	?IsAttackComboInit@ioObjectItem@@UBE_NXZ:PROC	; ioObjectItem::IsAttackComboInit
EXTRN	?CheckObjectReleaseSelectionBuff@ioObjectItem@@UAE_NPAVioBaseChar@@@Z:PROC ; ioObjectItem::CheckObjectReleaseSelectionBuff
;	COMDAT ??_R2ioItem@@8
; File c:\program files (x86)\microsoft visual studio 10.0\vc\include\xmemory
rdata$r	SEGMENT
??_R2ioItem@@8 DD FLAT:??_R1A@?0A@EA@ioItem@@8		; ioItem::`RTTI Base Class Array'
rdata$r	ENDS
;	COMDAT ??_R3ioItem@@8
rdata$r	SEGMENT
??_R3ioItem@@8 DD 00H					; ioItem::`RTTI Class Hierarchy Descriptor'
	DD	00H
	DD	01H
	DD	FLAT:??_R2ioItem@@8
rdata$r	ENDS
;	COMDAT ??_R1A@?0A@EA@ioItem@@8
rdata$r	SEGMENT
??_R1A@?0A@EA@ioItem@@8 DD FLAT:??_R0?AVioItem@@@8	; ioItem::`RTTI Base Class Descriptor at (0,-1,0,64)'
	DD	00H
	DD	00H
	DD	0ffffffffH
	DD	00H
	DD	040H
	DD	FLAT:??_R3ioItem@@8
rdata$r	ENDS
;	COMDAT ??_R2ioAttackableItem@@8
rdata$r	SEGMENT
??_R2ioAttackableItem@@8 DD FLAT:??_R1A@?0A@EA@ioAttackableItem@@8 ; ioAttackableItem::`RTTI Base Class Array'
	DD	FLAT:??_R1A@?0A@EA@ioItem@@8
rdata$r	ENDS
;	COMDAT ??_R3ioAttackableItem@@8
rdata$r	SEGMENT
??_R3ioAttackableItem@@8 DD 00H				; ioAttackableItem::`RTTI Class Hierarchy Descriptor'
	DD	00H
	DD	02H
	DD	FLAT:??_R2ioAttackableItem@@8
rdata$r	ENDS
;	COMDAT ??_R0?AVioAttackableItem@@@8
_DATA	SEGMENT
??_R0?AVioAttackableItem@@@8 DD FLAT:??_7type_info@@6B@	; ioAttackableItem `RTTI Type Descriptor'
	DD	00H
	DB	'.?AVioAttackableItem@@', 00H
_DATA	ENDS
;	COMDAT ??_R1A@?0A@EA@ioAttackableItem@@8
rdata$r	SEGMENT
??_R1A@?0A@EA@ioAttackableItem@@8 DD FLAT:??_R0?AVioAttackableItem@@@8 ; ioAttackableItem::`RTTI Base Class Descriptor at (0,-1,0,64)'
	DD	01H
	DD	00H
	DD	0ffffffffH
	DD	00H
	DD	040H
	DD	FLAT:??_R3ioAttackableItem@@8
rdata$r	ENDS
;	COMDAT ??_R2ioWeaponItem@@8
rdata$r	SEGMENT
??_R2ioWeaponItem@@8 DD FLAT:??_R1A@?0A@EA@ioWeaponItem@@8 ; ioWeaponItem::`RTTI Base Class Array'
	DD	FLAT:??_R1A@?0A@EA@ioAttackableItem@@8
	DD	FLAT:??_R1A@?0A@EA@ioItem@@8
rdata$r	ENDS
;	COMDAT ??_R3ioWeaponItem@@8
rdata$r	SEGMENT
??_R3ioWeaponItem@@8 DD 00H				; ioWeaponItem::`RTTI Class Hierarchy Descriptor'
	DD	00H
	DD	03H
	DD	FLAT:??_R2ioWeaponItem@@8
rdata$r	ENDS
;	COMDAT ??_R1A@?0A@EA@ioWeaponItem@@8
rdata$r	SEGMENT
??_R1A@?0A@EA@ioWeaponItem@@8 DD FLAT:??_R0?AVioWeaponItem@@@8 ; ioWeaponItem::`RTTI Base Class Descriptor at (0,-1,0,64)'
	DD	02H
	DD	00H
	DD	0ffffffffH
	DD	00H
	DD	040H
	DD	FLAT:??_R3ioWeaponItem@@8
rdata$r	ENDS
;	COMDAT ??_R2ioObjectItem@@8
rdata$r	SEGMENT
??_R2ioObjectItem@@8 DD FLAT:??_R1A@?0A@EA@ioObjectItem@@8 ; ioObjectItem::`RTTI Base Class Array'
	DD	FLAT:??_R1A@?0A@EA@ioWeaponItem@@8
	DD	FLAT:??_R1A@?0A@EA@ioAttackableItem@@8
	DD	FLAT:??_R1A@?0A@EA@ioItem@@8
rdata$r	ENDS
;	COMDAT ??_R3ioObjectItem@@8
rdata$r	SEGMENT
??_R3ioObjectItem@@8 DD 00H				; ioObjectItem::`RTTI Class Hierarchy Descriptor'
	DD	00H
	DD	04H
	DD	FLAT:??_R2ioObjectItem@@8
rdata$r	ENDS
;	COMDAT ??_R0?AVioObjectItem@@@8
_DATA	SEGMENT
??_R0?AVioObjectItem@@@8 DD FLAT:??_7type_info@@6B@	; ioObjectItem `RTTI Type Descriptor'
	DD	00H
	DB	'.?AVioObjectItem@@', 00H
_DATA	ENDS
;	COMDAT ??_R1A@?0A@EA@ioObjectItem@@8
rdata$r	SEGMENT
??_R1A@?0A@EA@ioObjectItem@@8 DD FLAT:??_R0?AVioObjectItem@@@8 ; ioObjectItem::`RTTI Base Class Descriptor at (0,-1,0,64)'
	DD	03H
	DD	00H
	DD	0ffffffffH
	DD	00H
	DD	040H
	DD	FLAT:??_R3ioObjectItem@@8
rdata$r	ENDS
;	COMDAT ??_R1A@?0A@EA@ioAliceObjectItem@@8
rdata$r	SEGMENT
??_R1A@?0A@EA@ioAliceObjectItem@@8 DD FLAT:??_R0?AVioAliceObjectItem@@@8 ; ioAliceObjectItem::`RTTI Base Class Descriptor at (0,-1,0,64)'
	DD	04H
	DD	00H
	DD	0ffffffffH
	DD	00H
	DD	040H
	DD	FLAT:??_R3ioAliceObjectItem@@8
rdata$r	ENDS
;	COMDAT ??_R2ioAliceObjectItem@@8
rdata$r	SEGMENT
??_R2ioAliceObjectItem@@8 DD FLAT:??_R1A@?0A@EA@ioAliceObjectItem@@8 ; ioAliceObjectItem::`RTTI Base Class Array'
	DD	FLAT:??_R1A@?0A@EA@ioObjectItem@@8
	DD	FLAT:??_R1A@?0A@EA@ioWeaponItem@@8
	DD	FLAT:??_R1A@?0A@EA@ioAttackableItem@@8
	DD	FLAT:??_R1A@?0A@EA@ioItem@@8
rdata$r	ENDS
;	COMDAT ??_R3ioAliceObjectItem@@8
rdata$r	SEGMENT
??_R3ioAliceObjectItem@@8 DD 00H			; ioAliceObjectItem::`RTTI Class Hierarchy Descriptor'
	DD	00H
	DD	05H
	DD	FLAT:??_R2ioAliceObjectItem@@8
rdata$r	ENDS
;	COMDAT ??_R0?AVioAliceObjectItem@@@8
_DATA	SEGMENT
??_R0?AVioAliceObjectItem@@@8 DD FLAT:??_7type_info@@6B@ ; ioAliceObjectItem `RTTI Type Descriptor'
	DD	00H
	DB	'.?AVioAliceObjectItem@@', 00H
_DATA	ENDS
;	COMDAT ??_R4ioAliceObjectItem@@6B@
rdata$r	SEGMENT
??_R4ioAliceObjectItem@@6B@ DD 00H			; ioAliceObjectItem::`RTTI Complete Object Locator'
	DD	00H
	DD	00H
	DD	FLAT:??_R0?AVioAliceObjectItem@@@8
	DD	FLAT:??_R3ioAliceObjectItem@@8
rdata$r	ENDS
;	COMDAT ??_7ioAliceObjectItem@@6B@
CONST	SEGMENT
??_7ioAliceObjectItem@@6B@ DD FLAT:??_R4ioAliceObjectItem@@6B@ ; ioAliceObjectItem::`vftable'
	DD	FLAT:?FindFieldEntityGrp@ioItem@@MBEABVioHashString@@XZ
	DD	FLAT:?LoadProperty@ioAliceObjectItem@@UAEXAAVioINILoader@@@Z
	DD	FLAT:?GetType@ioObjectItem@@UBE?AW4ItemType@ioItem@@XZ
	DD	FLAT:?Clone@ioAliceObjectItem@@UAEPAVioItem@@XZ
	DD	FLAT:?UseCreateIndexItem@ioItem@@UBE_NXZ
	DD	FLAT:?GetSetFocusColor@ioItem@@UBEKXZ
	DD	FLAT:?Initialize@ioItem@@UAEXABVioHashString@@PAVioPlayStage@@@Z
	DD	FLAT:?InitializeBeforeEquip@ioItem@@UAEXABVioHashString@@PAVioPlayStage@@@Z
	DD	FLAT:?OnEquiped@ioAliceObjectItem@@UAEXPAVioBaseChar@@@Z
	DD	FLAT:?OnReleased@ioAliceObjectItem@@UAEXPAVioBaseChar@@@Z
	DD	FLAT:?SetExtendEquipEffect@ioItem@@UAEXPAVioBaseChar@@@Z
	DD	FLAT:?ReleaseExtendEquipEffect@ioItem@@UAEXPAVioBaseChar@@@Z
	DD	FLAT:?AddGlowLine@ioWeaponItem@@UAEXPAVioBaseChar@@@Z
	DD	FLAT:?RemoveGlowLine@ioWeaponItem@@UAEXPAVioBaseChar@@@Z
	DD	FLAT:?GetTargetName@ioItem@@UAE?AVioHashString@@XZ
	DD	FLAT:?ClearTarget@ioItem@@UAEXXZ
	DD	FLAT:?SetItemType@ioWeaponItem@@UAEXXZ
	DD	FLAT:?UpdateExtraData@ioItem@@UAEXPAVioBaseChar@@@Z
	DD	FLAT:?CheckWeaponDefenseState@ioItem@@UAEXPAVioBaseChar@@@Z
	DD	FLAT:?CheckWoundedState@ioItem@@UAEXPAVioBaseChar@@@Z
	DD	FLAT:?SetVisible@ioItem@@UAEXPAVioBaseChar@@_N@Z
	DD	FLAT:?UpdateSkillGauge@ioItem@@UAEXPAVioBaseChar@@M_N@Z
	DD	FLAT:?IsEnableExtraGauge@ioItem@@UAE_NPAVioBaseChar@@@Z
	DD	FLAT:?GetExtraGauge@ioItem@@UAEMXZ
	DD	FLAT:?ReduceNeedGauge@ioItem@@UAEXMPAVioBaseChar@@@Z
	DD	FLAT:?GetCurBullet@ioItem@@UAEHXZ
	DD	FLAT:?GetMaxBullet@ioItem@@UAEHXZ
	DD	FLAT:?SetCurBullet@ioItem@@UAEXH@Z
	DD	FLAT:?GetCurSecoundBullet@ioItem@@UAEHXZ
	DD	FLAT:?GetMaxSecoundBullet@ioItem@@UAEHXZ
	DD	FLAT:?SetCurSecoundBullet@ioItem@@UAEXH@Z
	DD	FLAT:?GetGrowthInfoNum@ioObjectItem@@UBEHH@Z
	DD	FLAT:?GetGrowthInfoNumByType@ioObjectItem@@UBEHHAAH@Z
	DD	FLAT:?ClearCurChargeRateForSkill@ioItem@@UAEXXZ
	DD	FLAT:?GetChargeDamageRateForSkill@ioItem@@UAEMXZ
	DD	FLAT:?GetChargeForceRateForSkill@ioItem@@UAEMXZ
	DD	FLAT:?GetChargeBlowRateForSkill@ioItem@@UAEMXZ
	DD	FLAT:?GetChargeRangeRateForSkill@ioItem@@UAEMXZ
	DD	FLAT:?GetChargeSpeedRateForSkill@ioItem@@UAEMXZ
	DD	FLAT:?GetChargeFloatRateForSkill@ioItem@@UAEMXZ
	DD	FLAT:?GetChargeScaleRateForSkill@ioItem@@UAEMXZ
	DD	FLAT:?GetChargeExplosionRateForSkill@ioItem@@UAEMXZ
	DD	FLAT:?GetChargeWoundedTimeRateForSkill@ioItem@@UAEMXZ
	DD	FLAT:?SetCurEquipEffect@ioItem@@UAEX_N@Z
	DD	FLAT:?SetCostume@ioItem@@UAEXH_N@Z
	DD	FLAT:??_EioAliceObjectItem@@UAEPAXI@Z
	DD	FLAT:?IsCanFire@ioAliceObjectItem@@UBE_NPBVioBaseChar@@H_N@Z
	DD	FLAT:?CallItemProcess@ioAttackableItem@@UAEXPAVioBaseChar@@@Z
	DD	FLAT:?SetExtraInfoToWeapon@ioAliceObjectItem@@UAEXPAVioWeapon@@_N@Z
	DD	FLAT:?CheckChargeInfo@ioAttackableItem@@UAEXPAVioWeapon@@_N@Z
	DD	FLAT:?SetExtendDefenseState@ioAttackableItem@@UAE_NPAVioBaseChar@@@Z
	DD	FLAT:?CheckExtendDefenseState@ioAttackableItem@@UAEXPAVioBaseChar@@@Z
	DD	FLAT:?CheckDefenseMoveAniState@ioAttackableItem@@UAEXPAVioBaseChar@@@Z
	DD	FLAT:?SetDodgeDefenseState@ioAttackableItem@@UAE_NPAVioBaseChar@@@Z
	DD	FLAT:?CheckDodgeDefenseState@ioAttackableItem@@UAEXPAVioBaseChar@@@Z
	DD	FLAT:?ApplyDodgeDefenseState@ioAttackableItem@@UAEXPAVioBaseChar@@AAVSP2Packet@@@Z
	DD	FLAT:?SetDefenseAttackState@ioAttackableItem@@UAE_NPAVioBaseChar@@@Z
	DD	FLAT:?CheckDefenseAttackState@ioAttackableItem@@UAEXPAVioBaseChar@@@Z
	DD	FLAT:?ApplyDefenseAttackState@ioAttackableItem@@UAEXPAVioBaseChar@@AAVSP2Packet@@@Z
	DD	FLAT:?SetExtendDashState@ioAttackableItem@@UAE_NPAVioBaseChar@@@Z
	DD	FLAT:?CheckExtendDashState@ioAttackableItem@@UAEXPAVioBaseChar@@@Z
	DD	FLAT:?SetNormalAttack@ioAliceObjectItem@@UAEXPAVioBaseChar@@H@Z
	DD	FLAT:?CheckNormalAttack@ioAttackableItem@@UAEXPAVioBaseChar@@@Z
	DD	FLAT:?SetJumpAttack@ioAttackableItem@@UAE_NPAVioBaseChar@@HMW4AttackType@@@Z
	DD	FLAT:?CheckJumpAttack@ioAttackableItem@@UAEXPAVioBaseChar@@@Z
	DD	FLAT:?SetJumpReloadState@ioAttackableItem@@UAE_NPAVioBaseChar@@@Z
	DD	FLAT:?SetJumpReload@ioAttackableItem@@UAE_NPAVioBaseChar@@@Z
	DD	FLAT:?CheckJumpReloadState@ioAttackableItem@@UAEXPAVioBaseChar@@@Z
	DD	FLAT:?CheckJumpReloadReserve@ioAttackableItem@@UAEXPAVioBaseChar@@@Z
	DD	FLAT:?ProcessJumpReloadState@ioAttackableItem@@UAEXPAVioBaseChar@@@Z
	DD	FLAT:?ApplyJumpReload@ioAttackableItem@@UAEXPAVioBaseChar@@AAVSP2Packet@@@Z
	DD	FLAT:?OnItemGaugeOK@ioAttackableItem@@UAEXPAVioBaseChar@@AAVSP2Packet@@@Z
	DD	FLAT:?OnItemGaugeCancel@ioAttackableItem@@UAEXPAVioBaseChar@@AAVSP2Packet@@@Z
	DD	FLAT:?OnEndExtendDefense@ioAttackableItem@@UAEXPAVioBaseChar@@@Z
	DD	FLAT:?OnEndNormalAttack@ioAttackableItem@@UAEXPAVioBaseChar@@@Z
	DD	FLAT:?OnEndExtendAttack@ioAttackableItem@@UAEXPAVioBaseChar@@_N@Z
	DD	FLAT:?OnEndExtendJump@ioAttackableItem@@UAEXPAVioBaseChar@@@Z
	DD	FLAT:?FillNormalAttackExtraInfo@ioAttackableItem@@UAEXAAVSP2Packet@@@Z
	DD	FLAT:?ApplyNormalAttackExtraInfo@ioAttackableItem@@UAEXAAVSP2Packet@@@Z
	DD	FLAT:?CheckOnHand@ioAttackableItem@@UAE_NXZ
	DD	FLAT:?CheckAimState@ioAttackableItem@@UAE_N_N@Z
	DD	FLAT:?SetAimState@ioAttackableItem@@UAE_NPAVioBaseChar@@@Z
	DD	FLAT:?CheckLanding@ioAttackableItem@@UAE_NPAVioBaseChar@@@Z
	DD	FLAT:?SetNoneState@ioAttackableItem@@UAEXPAVioBaseChar@@H@Z
	DD	FLAT:?CheckExtendDefenseEnable@ioAttackableItem@@UAE_NPAVioBaseChar@@@Z
	DD	FLAT:?IsChargeAttackState@ioAttackableItem@@UAE_NPAVioBaseChar@@@Z
	DD	FLAT:?IsMoveAttackState@ioAttackableItem@@UAE_NPAVioBaseChar@@@Z
	DD	FLAT:?IsCanUpdateGauge@ioAttackableItem@@UAE_NPAVioBaseChar@@@Z
	DD	FLAT:?IsNoGhostWalk@ioAttackableItem@@UAE_NPAVioBaseChar@@@Z
	DD	FLAT:?IsEnableAttackDashCheck@ioAttackableItem@@UAE_NPAVioBaseChar@@_N@Z
	DD	FLAT:?IsEnableItemDashCheck@ioAttackableItem@@UAE_NPAVioBaseChar@@_N@Z
	DD	FLAT:?IsEnableAttackRotateCheck@ioAttackableItem@@UAE_NPAVioBaseChar@@@Z
	DD	FLAT:?IsEnableChargeDefenseCheck@ioAttackableItem@@UAE_NXZ
	DD	FLAT:?CheckAimJumpState@ioAttackableItem@@UAEXPAVioBaseChar@@@Z
	DD	FLAT:?GetJumppingAnimation@ioAttackableItem@@UBEABVioHashString@@XZ
	DD	FLAT:?GetExtendJumppingAnimation@ioAttackableItem@@UBEABVioHashString@@XZ
	DD	FLAT:?CheckRetreatState@ioAttackableItem@@UAEXPAVioBaseChar@@@Z
	DD	FLAT:?SetNextItemState@ioAttackableItem@@UAEXPAVioBaseChar@@0PAVioWeapon@@_NM@Z
	DD	FLAT:?WeaponWounded@ioWeaponItem@@UAEXPAVioWeapon@@PAVioBaseChar@@@Z
	DD	FLAT:?WeaponMapColDead@ioAttackableItem@@UAEXPAVioWeapon@@@Z
	DD	FLAT:?SetDefenceCounterState@ioAttackableItem@@UAEXPAVioBaseChar@@@Z
	DD	FLAT:?IsUseDefenceCounterAttack@ioAttackableItem@@UAE_NXZ
	DD	FLAT:?ProcessDefenceCounterAttack@ioAttackableItem@@UAEXPAVioBaseChar@@@Z
	DD	FLAT:?IsUseDefenceCounterAttackEndDash@ioAttackableItem@@UAE_NXZ
	DD	FLAT:?ProcessExtraJump@ioAttackableItem@@UAEXPAVioBaseChar@@@Z
	DD	FLAT:?SetEndGrappling@ioAttackableItem@@UAEXPAVioBaseChar@@@Z
	DD	FLAT:?ClearKeyReserve@ioAttackableItem@@MAEXXZ
	DD	FLAT:?CheckReserve@ioAttackableItem@@MAEXPAVioBaseChar@@@Z
	DD	FLAT:?ProcessReserveKeyInput@ioAttackableItem@@MAEXPAVioBaseChar@@@Z
	DD	FLAT:?SetJumpState@ioAttackableItem@@UAEXXZ
	DD	FLAT:?SetJumpping@ioAttackableItem@@UAEXPAVioBaseChar@@_N@Z
	DD	FLAT:?ProcessJumpping@ioAttackableItem@@UAEXPAVioBaseChar@@M@Z
	DD	FLAT:?ProcessJumppingByNoNeedProcess@ioAttackableItem@@UAEXPAVioBaseChar@@M@Z
	DD	FLAT:?ProcessLanding@ioAttackableItem@@UAEXPAVioBaseChar@@@Z
	DD	FLAT:?ProcessJumpAttack@ioAttackableItem@@UAEXPAVioBaseChar@@M@Z
	DD	FLAT:?ProcessAimJump@ioAttackableItem@@UAE_NPAVioBaseChar@@M@Z
	DD	FLAT:?ApplyJump@ioAttackableItem@@UAEXPAVioBaseChar@@AAVSP2Packet@@@Z
	DD	FLAT:?ApplyDash@ioAttackableItem@@UAEXPAVioBaseChar@@AAVSP2Packet@@@Z
	DD	FLAT:?ApplyCounterAttack@ioAttackableItem@@UAEXPAVioBaseChar@@AAVSP2Packet@@@Z
	DD	FLAT:?CheckComboJumpAttack@ioAttackableItem@@UAEXPAVioBaseChar@@@Z
	DD	FLAT:?SetFlashJumpAttack@ioAttackableItem@@UAE_NPAVioBaseChar@@@Z
	DD	FLAT:?SetComboFlashAttack@ioAttackableItem@@UAE_NPAVioBaseChar@@@Z
	DD	FLAT:?SetCollectJumpAttack@ioAttackableItem@@UAE_NPAVioBaseChar@@@Z
	DD	FLAT:?SetPowerChargeJumpAttack@ioAttackableItem@@UAE_NPAVioBaseChar@@@Z
	DD	FLAT:?GetAttackSpeedRate@ioAttackableItem@@UBEMXZ
	DD	FLAT:?GetExtraJumpSpeedRate@ioAttackableItem@@UBEMABUD3DXVECTOR3@@ABUD3DXQUATERNION@@@Z
	DD	FLAT:?IsEnableExtendJump@ioAttackableItem@@UAE_NXZ
	DD	FLAT:?RecevieExtendJumpUse@ioAttackableItem@@UAEXPAVioBaseChar@@@Z
	DD	FLAT:?HasAniFile@ioAttackableItem@@UBE_NW4AttackType@@H@Z
	DD	FLAT:?HasEndAniFile@ioAttackableItem@@UBE_NW4AttackType@@H@Z
	DD	FLAT:?GetAttackAttribute@ioAttackableItem@@UBEPBUAttackAttribute@@W4AttackType@@H@Z
	DD	FLAT:?GetAniFile@ioAttackableItem@@UBEABVioHashString@@W4AttackType@@H@Z
	DD	FLAT:?GetAttackAniRate@ioAttackableItem@@UBEMW4AttackType@@H@Z
	DD	FLAT:?GetEndAniFile@ioAttackableItem@@UBEABVioHashString@@W4AttackType@@H@Z
	DD	FLAT:?GetAttackEndAniRate@ioAttackableItem@@UBEMW4AttackType@@H@Z
	DD	FLAT:?GetAttackAttributeIdx@ioAttackableItem@@UBEABV?$vector@UWeaponInfo@@V?$allocator@UWeaponInfo@@@std@@@std@@W4AttackType@@H@Z
	DD	FLAT:?GetForceInfoList@ioAttackableItem@@UBEABV?$vector@UForceInfo@@V?$allocator@UForceInfo@@@std@@@std@@W4AttackType@@H@Z
	DD	FLAT:?GetAttackPreDelay@ioAttackableItem@@UBEKW4AttackType@@H@Z
	DD	FLAT:?GetAttackAnimationDelay@ioAttackableItem@@UBEKW4AttackType@@H@Z
	DD	FLAT:?GetMaxCombo@ioAttackableItem@@UBEHXZ
	DD	FLAT:?GetExtraDashAttackMax@ioAttackableItem@@UBEHXZ
	DD	FLAT:?HasJumpEndAnimation@ioAttackableItem@@UBE_N_NPAVioBaseChar@@@Z
	DD	FLAT:?GetJumpEndAnimation@ioAttackableItem@@UBEABVioHashString@@_NPAVioBaseChar@@@Z
	DD	FLAT:?ClearCancelInfo@ioAttackableItem@@MAEXXZ
	DD	FLAT:?CheckCancelReserve@ioAttackableItem@@MAEXPAVioBaseChar@@@Z
	DD	FLAT:?SetCurAttackAniForInputJump@ioAttackableItem@@MAEXABVioHashString@@M@Z
	DD	FLAT:?ProcessCancel@ioAttackableItem@@MAE_NPAVioBaseChar@@@Z
	DD	FLAT:?ProcessCancelBySpeicalDash@ioAttackableItem@@MAE_NPAVioBaseChar@@@Z
	DD	FLAT:?SetCurAttackAniForInputDashS@ioAttackableItem@@UAEXABVioHashString@@M@Z
	DD	FLAT:?CheckCancelReserveByConditionalSpecialDash@ioAttackableItem@@UAEXPAVioBaseChar@@@Z
	DD	FLAT:?IsConditionalSpecialDashReserve@ioAttackableItem@@UAE_NPAVioBaseChar@@@Z
	DD	FLAT:?SetChangeConditionalSpecialDash@ioAttackableItem@@UAEXPAVioBaseChar@@W4DirKeyInput@ioUserKeyInput@@H@Z
	DD	FLAT:?CheckChangeWereWolfState@ioAttackableItem@@UAE_NPAVioBaseChar@@@Z
	DD	FLAT:?SetChangeWereWolfState@ioAttackableItem@@UAEXPAVioBaseChar@@@Z
	DD	FLAT:?CheckReleaseWereWolfState@ioAttackableItem@@UAE_NPAVioBaseChar@@@Z
	DD	FLAT:?ReleseWereWolfState@ioAttackableItem@@UAEXPAVioBaseChar@@@Z
	DD	FLAT:?ReleseWereWolfStateByOwner@ioAttackableItem@@UAEXPAVioBaseChar@@@Z
	DD	FLAT:?IncreaseChangeDamage@ioAttackableItem@@UAEXMH_N@Z
	DD	FLAT:?IncreaseChangeDamageByWeapon@ioAttackableItem@@UAEXM@Z
	DD	FLAT:?CheckIncreaseChangeDamage@ioAttackableItem@@UAEXPAVioBaseChar@@@Z
	DD	FLAT:?DecreaseChangeDamage@ioAttackableItem@@UAEXPAVioBaseChar@@@Z
	DD	FLAT:?IsEnableActionStopDelay@ioAttackableItem@@UAE_NXZ
	DD	FLAT:?SetExtraGaugeTypeByWeapon@ioAttackableItem@@UAEXPAVioBaseChar@@HHM@Z
	DD	FLAT:?SetUseExtraGauge@ioAttackableItem@@UAEXM@Z
	DD	FLAT:?InitExtraGauge@ioAttackableItem@@UAEXXZ
	DD	FLAT:?MaxExtraGauge@ioAttackableItem@@UAEXXZ
	DD	FLAT:?GetMaxExtraGauge@ioAttackableItem@@UAEMXZ
	DD	FLAT:?GetCurExtraGauge@ioAttackableItem@@UAEMXZ
	DD	FLAT:?SetCurExtraGauge@ioAttackableItem@@UAEXM@Z
	DD	FLAT:?GetAutoTargetValue@ioAttackableItem@@UAEXPAVioBaseChar@@AAM11W4AutoTargetType@@@Z
	DD	FLAT:?ClearAirJump@ioAttackableItem@@UAEXXZ
	DD	FLAT:?SetAirJump@ioAttackableItem@@UAEXPAVioBaseChar@@HM@Z
	DD	FLAT:?CheckAirJump@ioAttackableItem@@UAEXPAVioBaseChar@@@Z
	DD	FLAT:?IsAutoTarget@ioAttackableItem@@UBE_NXZ
	DD	FLAT:?EquipObjectItemByAttakable@ioAttackableItem@@UAEXPAVioBaseChar@@PAVioItem@@@Z
	DD	FLAT:?ReleaseObjectItemByAttack@ioAttackableItem@@UAEXPAVioBaseChar@@PAVioItem@@@Z
	DD	FLAT:?IsBuffFlyChange@ioAttackableItem@@UAE_NPAVioBaseChar@@@Z
	DD	FLAT:?GetAttackStateText@ioAttackableItem@@UBEPBDXZ
	DD	FLAT:?SetJumpLandingExtraState@ioAttackableItem@@UAE_NPAVioBaseChar@@@Z
	DD	FLAT:?IsWoundAfterUseExtendState@ioAttackableItem@@UAE_NXZ
	DD	FLAT:?CheckWoundAfterUseExtendState@ioAttackableItem@@UAE_NPAVioBaseChar@@W4BlowTargetType@@@Z
	DD	FLAT:?IsCharSkipState@ioAttackableItem@@UAE_NPBVioBaseChar@@@Z
	DD	FLAT:?ReleaseObjectState@ioWeaponItem@@UAEXPAVioBaseChar@@PAVioObjectItem@@@Z
	DD	FLAT:?IsCmdCheckEnableTime@ioWeaponItem@@UAE_NXZ
	DD	FLAT:?IsCmdSuccess@ioWeaponItem@@UAE_NXZ
	DD	FLAT:?IsOneTimeWeaponItem@ioAliceObjectItem@@UBE_NXZ
	DD	FLAT:?GetEquipMesh@ioObjectItem@@UBEABVioHashString@@PAVioBaseChar@@@Z
	DD	FLAT:?IsCanSendControl@ioWeaponItem@@UBE_NXZ
	DD	FLAT:?GetSubType@ioObjectItem@@UBE?AW4WeaponSubType@ioWeaponItem@@XZ
	DD	FLAT:?IsEnableDash@ioAliceObjectItem@@UBE_NXZ
	DD	FLAT:?IsEnableDefense@ioObjectItem@@UBE_NXZ
	DD	FLAT:?IsProtectState@ioObjectItem@@UAE_NXZ
	DD	FLAT:?EnableReduceGaugeOnSwitchBuff@ioObjectItem@@UAE_NXZ
	DD	FLAT:?GetObjectSubType@ioAliceObjectItem@@UBE?AW4ObjectSubType@ioObjectItem@@XZ
	DD	FLAT:?CheckAttackCount@ioObjectItem@@UAEXPAVioBaseChar@@@Z
	DD	FLAT:?CheckActiveCount@ioObjectItem@@UAEXPAVioBaseChar@@@Z
	DD	FLAT:?IsAttackComboInit@ioObjectItem@@UBE_NXZ
	DD	FLAT:?OnProcessState@ioAliceObjectItem@@UAEXPAVioPlayStage@@PAVioBaseChar@@@Z
	DD	FLAT:?CheckReleaseProcess@ioAliceObjectItem@@UAE_NPAVioPlayStage@@PAVioBaseChar@@@Z
	DD	FLAT:?CheckReleaseByNormalAttack@ioAliceObjectItem@@UAE_NPAVioPlayStage@@PAVioBaseChar@@@Z
	DD	FLAT:?CheckObjectReleaseSelectionBuff@ioObjectItem@@UAE_NPAVioBaseChar@@@Z
	DD	FLAT:?SetObjectReleaseTCPSend@ioObjectItem@@UAEX_N@Z
	DD	FLAT:?IsObjectReleaseTCPSend@ioObjectItem@@UAE_NXZ
	DD	FLAT:?IsNormalAttackStop@ioObjectItem@@UAE_NXZ
; Function compile flags: /Ogsp
; File d:\lost saga for developer\youtube\tutorial\source\src\lsclient\ioaliceobjectitem.cpp
CONST	ENDS
;	COMDAT ??0ioAliceObjectItem@@QAE@XZ
_TEXT	SEGMENT
??0ioAliceObjectItem@@QAE@XZ PROC			; ioAliceObjectItem::ioAliceObjectItem, COMDAT
; _this$ = ecx

; 17   : {

  00000	56		 push	 esi
  00001	8b f1		 mov	 esi, ecx
  00003	e8 00 00 00 00	 call	 ??0ioObjectItem@@QAE@XZ	; ioObjectItem::ioObjectItem
  00008	33 c0		 xor	 eax, eax
  0000a	c7 06 00 00 00
	00		 mov	 DWORD PTR [esi], OFFSET ??_7ioAliceObjectItem@@6B@
  00010	89 86 34 1b 00
	00		 mov	 DWORD PTR [esi+6964], eax
  00016	89 86 38 1b 00
	00		 mov	 DWORD PTR [esi+6968], eax
  0001c	89 86 3c 1b 00
	00		 mov	 DWORD PTR [esi+6972], eax
  00022	89 86 44 1b 00
	00		 mov	 DWORD PTR [esi+6980], eax
  00028	89 86 48 1b 00
	00		 mov	 DWORD PTR [esi+6984], eax
  0002e	89 86 4c 1b 00
	00		 mov	 DWORD PTR [esi+6988], eax
  00034	89 86 54 1b 00
	00		 mov	 DWORD PTR [esi+6996], eax
  0003a	89 86 58 1b 00
	00		 mov	 DWORD PTR [esi+7000], eax
  00040	89 86 5c 1b 00
	00		 mov	 DWORD PTR [esi+7004], eax
  00046	89 86 64 1b 00
	00		 mov	 DWORD PTR [esi+7012], eax
  0004c	89 86 68 1b 00
	00		 mov	 DWORD PTR [esi+7016], eax
  00052	89 86 6c 1b 00
	00		 mov	 DWORD PTR [esi+7020], eax

; 18   : 	m_iWeaponWay		= 0;

  00058	89 86 74 1b 00
	00		 mov	 DWORD PTR [esi+7028], eax

; 19   : 	m_iCurCombo			= 0;

  0005e	89 86 78 1b 00
	00		 mov	 DWORD PTR [esi+7032], eax

; 20   : 	m_bReserveRelease	= false;

  00064	88 86 7c 1b 00
	00		 mov	 BYTE PTR [esi+7036], al

; 21   : }

  0006a	8b c6		 mov	 eax, esi
  0006c	5e		 pop	 esi
  0006d	c3		 ret	 0
??0ioAliceObjectItem@@QAE@XZ ENDP			; ioAliceObjectItem::ioAliceObjectItem
_TEXT	ENDS
PUBLIC	?return1@@YAIXZ					; return1
; Function compile flags: /Ogsp
; File d:\lost saga for developer\youtube\tutorial\source\src\lsclient\stdafx.h
;	COMDAT ?return1@@YAIXZ
_TEXT	SEGMENT
?return1@@YAIXZ PROC					; return1, COMDAT

; 17   : 	__forceinline unsigned int return1() { __asm mov eax, 1 };

  00000	b8 01 00 00 00	 mov	 eax, 1
  00005	c3		 ret	 0
?return1@@YAIXZ ENDP					; return1
; Function compile flags: /Ogsp
; File d:\lost saga for developer\youtube\tutorial\source\src\lsclient\ioitem.h
_TEXT	ENDS
;	COMDAT ?IsEnableExtraGauge@ioItem@@UAE_NPAVioBaseChar@@@Z
_TEXT	SEGMENT
_pChar$ = 8						; size = 4
?IsEnableExtraGauge@ioItem@@UAE_NPAVioBaseChar@@@Z PROC	; ioItem::IsEnableExtraGauge, COMDAT
; _this$ = ecx

; 375  : 	virtual bool IsEnableExtraGauge( ioBaseChar *pChar ) { return true; }

  00000	b0 01		 mov	 al, 1
  00002	c2 04 00	 ret	 4
?IsEnableExtraGauge@ioItem@@UAE_NPAVioBaseChar@@@Z ENDP	; ioItem::IsEnableExtraGauge
_TEXT	ENDS
PUBLIC	__real@4f800000
;	COMDAT __real@4f800000
; File d:\lost saga for developer\youtube\tutorial\source\src\lsclient\stdafx.h
CONST	SEGMENT
__real@4f800000 DD 04f800000r			; 4.29497e+009
; Function compile flags: /Ogsp
; File d:\lost saga for developer\youtube\tutorial\source\src\lsclient\ioitem.h
CONST	ENDS
;	COMDAT ?GetExtraGauge@ioItem@@UAEMXZ
_TEXT	SEGMENT
tv64 = -4						; size = 4
?GetExtraGauge@ioItem@@UAEMXZ PROC			; ioItem::GetExtraGauge, COMDAT
; _this$ = ecx

; 376  : 	virtual float GetExtraGauge() { return FLOAT1; }

  00000	55		 push	 ebp
  00001	8b ec		 mov	 ebp, esp
  00003	51		 push	 ecx
  00004	b8 01 00 00 00	 mov	 eax, 1
  00009	89 45 fc	 mov	 DWORD PTR tv64[ebp], eax
  0000c	db 45 fc	 fild	 DWORD PTR tv64[ebp]
  0000f	85 c0		 test	 eax, eax
  00011	79 06		 jns	 SHORT $LN5@GetExtraGa
  00013	d8 05 00 00 00
	00		 fadd	 DWORD PTR __real@4f800000
$LN5@GetExtraGa:
  00019	c9		 leave
  0001a	c3		 ret	 0
?GetExtraGauge@ioItem@@UAEMXZ ENDP			; ioItem::GetExtraGauge
; Function compile flags: /Ogsp
; File d:\lost saga for developer\youtube\tutorial\source\src\lsclient\ioattackableitem.h
_TEXT	ENDS
;	COMDAT ?CheckOnHand@ioAttackableItem@@UAE_NXZ
_TEXT	SEGMENT
?CheckOnHand@ioAttackableItem@@UAE_NXZ PROC		; ioAttackableItem::CheckOnHand, COMDAT
; _this$ = ecx

; 429  : 	virtual bool CheckOnHand() { return false; }

  00000	32 c0		 xor	 al, al
  00002	c3		 ret	 0
?CheckOnHand@ioAttackableItem@@UAE_NXZ ENDP		; ioAttackableItem::CheckOnHand
; Function compile flags: /Ogsp
_TEXT	ENDS
;	COMDAT ?CheckAimState@ioAttackableItem@@UAE_N_N@Z
_TEXT	SEGMENT
_bAimMove$ = 8						; size = 1
?CheckAimState@ioAttackableItem@@UAE_N_N@Z PROC		; ioAttackableItem::CheckAimState, COMDAT
; _this$ = ecx

; 430  : 	virtual bool CheckAimState( bool bAimMove = false ) { return false; }

  00000	32 c0		 xor	 al, al
  00002	c2 04 00	 ret	 4
?CheckAimState@ioAttackableItem@@UAE_N_N@Z ENDP		; ioAttackableItem::CheckAimState
; Function compile flags: /Ogsp
_TEXT	ENDS
;	COMDAT ?SetAimState@ioAttackableItem@@UAE_NPAVioBaseChar@@@Z
_TEXT	SEGMENT
_pChar$ = 8						; size = 4
?SetAimState@ioAttackableItem@@UAE_NPAVioBaseChar@@@Z PROC ; ioAttackableItem::SetAimState, COMDAT
; _this$ = ecx

; 431  : 	virtual bool SetAimState( ioBaseChar *pChar ) { return false; }

  00000	32 c0		 xor	 al, al
  00002	c2 04 00	 ret	 4
?SetAimState@ioAttackableItem@@UAE_NPAVioBaseChar@@@Z ENDP ; ioAttackableItem::SetAimState
; Function compile flags: /Ogsp
_TEXT	ENDS
;	COMDAT ?CheckExtendDefenseEnable@ioAttackableItem@@UAE_NPAVioBaseChar@@@Z
_TEXT	SEGMENT
_pChar$ = 8						; size = 4
?CheckExtendDefenseEnable@ioAttackableItem@@UAE_NPAVioBaseChar@@@Z PROC ; ioAttackableItem::CheckExtendDefenseEnable, COMDAT
; _this$ = ecx

; 434  : 	virtual bool CheckExtendDefenseEnable( ioBaseChar *pChar ) { return true; }

  00000	b0 01		 mov	 al, 1
  00002	c2 04 00	 ret	 4
?CheckExtendDefenseEnable@ioAttackableItem@@UAE_NPAVioBaseChar@@@Z ENDP ; ioAttackableItem::CheckExtendDefenseEnable
; Function compile flags: /Ogsp
_TEXT	ENDS
;	COMDAT ?IsChargeAttackState@ioAttackableItem@@UAE_NPAVioBaseChar@@@Z
_TEXT	SEGMENT
_pOwner$ = 8						; size = 4
?IsChargeAttackState@ioAttackableItem@@UAE_NPAVioBaseChar@@@Z PROC ; ioAttackableItem::IsChargeAttackState, COMDAT
; _this$ = ecx

; 436  : 	virtual bool IsChargeAttackState( ioBaseChar *pOwner ) { return false; }

  00000	32 c0		 xor	 al, al
  00002	c2 04 00	 ret	 4
?IsChargeAttackState@ioAttackableItem@@UAE_NPAVioBaseChar@@@Z ENDP ; ioAttackableItem::IsChargeAttackState
; Function compile flags: /Ogsp
_TEXT	ENDS
;	COMDAT ?IsMoveAttackState@ioAttackableItem@@UAE_NPAVioBaseChar@@@Z
_TEXT	SEGMENT
_pOwner$ = 8						; size = 4
?IsMoveAttackState@ioAttackableItem@@UAE_NPAVioBaseChar@@@Z PROC ; ioAttackableItem::IsMoveAttackState, COMDAT
; _this$ = ecx

; 437  : 	virtual bool IsMoveAttackState( ioBaseChar *pOwner ) { return false; }

  00000	32 c0		 xor	 al, al
  00002	c2 04 00	 ret	 4
?IsMoveAttackState@ioAttackableItem@@UAE_NPAVioBaseChar@@@Z ENDP ; ioAttackableItem::IsMoveAttackState
; Function compile flags: /Ogsp
_TEXT	ENDS
;	COMDAT ?IsNoGhostWalk@ioAttackableItem@@UAE_NPAVioBaseChar@@@Z
_TEXT	SEGMENT
_pOwner$ = 8						; size = 4
?IsNoGhostWalk@ioAttackableItem@@UAE_NPAVioBaseChar@@@Z PROC ; ioAttackableItem::IsNoGhostWalk, COMDAT
; _this$ = ecx

; 439  : 	virtual bool IsNoGhostWalk( ioBaseChar *pOwner ) { return false; }

  00000	32 c0		 xor	 al, al
  00002	c2 04 00	 ret	 4
?IsNoGhostWalk@ioAttackableItem@@UAE_NPAVioBaseChar@@@Z ENDP ; ioAttackableItem::IsNoGhostWalk
; Function compile flags: /Ogsp
_TEXT	ENDS
;	COMDAT ?IsEnableAttackDashCheck@ioAttackableItem@@UAE_NPAVioBaseChar@@_N@Z
_TEXT	SEGMENT
_pOwner$ = 8						; size = 4
_bCheck$ = 12						; size = 1
?IsEnableAttackDashCheck@ioAttackableItem@@UAE_NPAVioBaseChar@@_N@Z PROC ; ioAttackableItem::IsEnableAttackDashCheck, COMDAT
; _this$ = ecx

; 441  : 	virtual bool IsEnableAttackDashCheck( ioBaseChar *pOwner, bool bCheck ) { return false; }

  00000	32 c0		 xor	 al, al
  00002	c2 08 00	 ret	 8
?IsEnableAttackDashCheck@ioAttackableItem@@UAE_NPAVioBaseChar@@_N@Z ENDP ; ioAttackableItem::IsEnableAttackDashCheck
; Function compile flags: /Ogsp
_TEXT	ENDS
;	COMDAT ?IsEnableItemDashCheck@ioAttackableItem@@UAE_NPAVioBaseChar@@_N@Z
_TEXT	SEGMENT
_pOwner$ = 8						; size = 4
_bCheck$ = 12						; size = 1
?IsEnableItemDashCheck@ioAttackableItem@@UAE_NPAVioBaseChar@@_N@Z PROC ; ioAttackableItem::IsEnableItemDashCheck, COMDAT
; _this$ = ecx

; 442  : 	virtual bool IsEnableItemDashCheck( ioBaseChar *pOwner, bool bCheck ) { return false; }

  00000	32 c0		 xor	 al, al
  00002	c2 08 00	 ret	 8
?IsEnableItemDashCheck@ioAttackableItem@@UAE_NPAVioBaseChar@@_N@Z ENDP ; ioAttackableItem::IsEnableItemDashCheck
; Function compile flags: /Ogsp
_TEXT	ENDS
;	COMDAT ?IsEnableAttackRotateCheck@ioAttackableItem@@UAE_NPAVioBaseChar@@@Z
_TEXT	SEGMENT
_pOwner$ = 8						; size = 4
?IsEnableAttackRotateCheck@ioAttackableItem@@UAE_NPAVioBaseChar@@@Z PROC ; ioAttackableItem::IsEnableAttackRotateCheck, COMDAT
; _this$ = ecx

; 443  : 	virtual bool IsEnableAttackRotateCheck( ioBaseChar *pOwner ) { return false; }

  00000	32 c0		 xor	 al, al
  00002	c2 04 00	 ret	 4
?IsEnableAttackRotateCheck@ioAttackableItem@@UAE_NPAVioBaseChar@@@Z ENDP ; ioAttackableItem::IsEnableAttackRotateCheck
; Function compile flags: /Ogsp
_TEXT	ENDS
;	COMDAT ?IsEnableChargeDefenseCheck@ioAttackableItem@@UAE_NXZ
_TEXT	SEGMENT
?IsEnableChargeDefenseCheck@ioAttackableItem@@UAE_NXZ PROC ; ioAttackableItem::IsEnableChargeDefenseCheck, COMDAT
; _this$ = ecx

; 444  : 	virtual bool IsEnableChargeDefenseCheck() { return false; }

  00000	32 c0		 xor	 al, al
  00002	c3		 ret	 0
?IsEnableChargeDefenseCheck@ioAttackableItem@@UAE_NXZ ENDP ; ioAttackableItem::IsEnableChargeDefenseCheck
; Function compile flags: /Ogsp
_TEXT	ENDS
;	COMDAT ?IsUseDefenceCounterAttackEndDash@ioAttackableItem@@UAE_NXZ
_TEXT	SEGMENT
?IsUseDefenceCounterAttackEndDash@ioAttackableItem@@UAE_NXZ PROC ; ioAttackableItem::IsUseDefenceCounterAttackEndDash, COMDAT
; _this$ = ecx

; 464  : 	virtual bool IsUseDefenceCounterAttackEndDash() { return false; }

  00000	32 c0		 xor	 al, al
  00002	c3		 ret	 0
?IsUseDefenceCounterAttackEndDash@ioAttackableItem@@UAE_NXZ ENDP ; ioAttackableItem::IsUseDefenceCounterAttackEndDash
; Function compile flags: /Ogsp
_TEXT	ENDS
;	COMDAT ?IsAutoTarget@ioAttackableItem@@UBE_NXZ
_TEXT	SEGMENT
?IsAutoTarget@ioAttackableItem@@UBE_NXZ PROC		; ioAttackableItem::IsAutoTarget, COMDAT
; _this$ = ecx

; 707  : 	virtual bool IsAutoTarget() const { return true; }

  00000	b0 01		 mov	 al, 1
  00002	c3		 ret	 0
?IsAutoTarget@ioAttackableItem@@UBE_NXZ ENDP		; ioAttackableItem::IsAutoTarget
; Function compile flags: /Ogsp
_TEXT	ENDS
;	COMDAT ?IsWoundAfterUseExtendState@ioAttackableItem@@UAE_NXZ
_TEXT	SEGMENT
?IsWoundAfterUseExtendState@ioAttackableItem@@UAE_NXZ PROC ; ioAttackableItem::IsWoundAfterUseExtendState, COMDAT
; _this$ = ecx

; 724  : 	virtual bool IsWoundAfterUseExtendState(){ return false; }

  00000	32 c0		 xor	 al, al
  00002	c3		 ret	 0
?IsWoundAfterUseExtendState@ioAttackableItem@@UAE_NXZ ENDP ; ioAttackableItem::IsWoundAfterUseExtendState
; Function compile flags: /Ogsp
_TEXT	ENDS
;	COMDAT ?CheckWoundAfterUseExtendState@ioAttackableItem@@UAE_NPAVioBaseChar@@W4BlowTargetType@@@Z
_TEXT	SEGMENT
_pOwner$ = 8						; size = 4
_eType$ = 12						; size = 4
?CheckWoundAfterUseExtendState@ioAttackableItem@@UAE_NPAVioBaseChar@@W4BlowTargetType@@@Z PROC ; ioAttackableItem::CheckWoundAfterUseExtendState, COMDAT
; _this$ = ecx

; 725  : 	virtual bool CheckWoundAfterUseExtendState( ioBaseChar* pOwner, BlowTargetType eType ){ return false; }

  00000	32 c0		 xor	 al, al
  00002	c2 08 00	 ret	 8
?CheckWoundAfterUseExtendState@ioAttackableItem@@UAE_NPAVioBaseChar@@W4BlowTargetType@@@Z ENDP ; ioAttackableItem::CheckWoundAfterUseExtendState
; Function compile flags: /Ogsp
_TEXT	ENDS
;	COMDAT ?IsCharSkipState@ioAttackableItem@@UAE_NPBVioBaseChar@@@Z
_TEXT	SEGMENT
_pOwner$ = 8						; size = 4
?IsCharSkipState@ioAttackableItem@@UAE_NPBVioBaseChar@@@Z PROC ; ioAttackableItem::IsCharSkipState, COMDAT
; _this$ = ecx

; 728  : 	virtual bool IsCharSkipState( const ioBaseChar* pOwner ){ return false; }

  00000	32 c0		 xor	 al, al
  00002	c2 04 00	 ret	 4
?IsCharSkipState@ioAttackableItem@@UAE_NPBVioBaseChar@@@Z ENDP ; ioAttackableItem::IsCharSkipState
; Function compile flags: /Ogsp
; File d:\lost saga for developer\youtube\tutorial\source\src\lsclient\ioobjectitem.h
_TEXT	ENDS
;	COMDAT ?SetObjectReleaseTCPSend@ioObjectItem@@UAEX_N@Z
_TEXT	SEGMENT
_bSend$ = 8						; size = 1
?SetObjectReleaseTCPSend@ioObjectItem@@UAEX_N@Z PROC	; ioObjectItem::SetObjectReleaseTCPSend, COMDAT
; _this$ = ecx

; 163  : 	virtual void SetObjectReleaseTCPSend( bool bSend ){ m_bObjectReleaseTCPSend = bSend; }

  00000	55		 push	 ebp
  00001	8b ec		 mov	 ebp, esp
  00003	8a 45 08	 mov	 al, BYTE PTR _bSend$[ebp]
  00006	88 81 8c 19 00
	00		 mov	 BYTE PTR [ecx+6540], al
  0000c	5d		 pop	 ebp
  0000d	c2 04 00	 ret	 4
?SetObjectReleaseTCPSend@ioObjectItem@@UAEX_N@Z ENDP	; ioObjectItem::SetObjectReleaseTCPSend
; Function compile flags: /Ogsp
_TEXT	ENDS
;	COMDAT ?IsObjectReleaseTCPSend@ioObjectItem@@UAE_NXZ
_TEXT	SEGMENT
?IsObjectReleaseTCPSend@ioObjectItem@@UAE_NXZ PROC	; ioObjectItem::IsObjectReleaseTCPSend, COMDAT
; _this$ = ecx

; 164  : 	virtual bool IsObjectReleaseTCPSend(){ return m_bObjectReleaseTCPSend; }

  00000	8a 81 8c 19 00
	00		 mov	 al, BYTE PTR [ecx+6540]
  00006	c3		 ret	 0
?IsObjectReleaseTCPSend@ioObjectItem@@UAE_NXZ ENDP	; ioObjectItem::IsObjectReleaseTCPSend
; Function compile flags: /Ogsp
_TEXT	ENDS
;	COMDAT ?IsNormalAttackStop@ioObjectItem@@UAE_NXZ
_TEXT	SEGMENT
?IsNormalAttackStop@ioObjectItem@@UAE_NXZ PROC		; ioObjectItem::IsNormalAttackStop, COMDAT
; _this$ = ecx

; 167  : 	virtual bool IsNormalAttackStop(){ return false; }	

  00000	32 c0		 xor	 al, al
  00002	c3		 ret	 0
?IsNormalAttackStop@ioObjectItem@@UAE_NXZ ENDP		; ioObjectItem::IsNormalAttackStop
_TEXT	ENDS
PUBLIC	??0ioAliceObjectItem@@QAE@ABV0@@Z		; ioAliceObjectItem::ioAliceObjectItem
EXTRN	??1ioObjectItem@@UAE@XZ:PROC			; ioObjectItem::~ioObjectItem
EXTRN	??0ioObjectItem@@QAE@ABV0@@Z:PROC		; ioObjectItem::ioObjectItem
;	COMDAT xdata$x
; File d:\lost saga for developer\youtube\tutorial\source\src\lsclient\ioaliceobjectitem.cpp
xdata$x	SEGMENT
__unwindtable$??0ioAliceObjectItem@@QAE@ABV0@@Z DD 0ffffffffH
	DD	FLAT:__unwindfunclet$??0ioAliceObjectItem@@QAE@ABV0@@Z$0
	DD	00H
	DD	FLAT:__unwindfunclet$??0ioAliceObjectItem@@QAE@ABV0@@Z$1
	DD	01H
	DD	FLAT:__unwindfunclet$??0ioAliceObjectItem@@QAE@ABV0@@Z$2
	DD	02H
	DD	FLAT:__unwindfunclet$??0ioAliceObjectItem@@QAE@ABV0@@Z$3
__ehfuncinfo$??0ioAliceObjectItem@@QAE@ABV0@@Z DD 019930522H
	DD	04H
	DD	FLAT:__unwindtable$??0ioAliceObjectItem@@QAE@ABV0@@Z
	DD	2 DUP(00H)
	DD	2 DUP(00H)
	DD	00H
	DD	01H
; Function compile flags: /Ogsp
xdata$x	ENDS
;	COMDAT ??0ioAliceObjectItem@@QAE@ABV0@@Z
_TEXT	SEGMENT
_this$ = -16						; size = 4
__$EHRec$ = -12						; size = 12
_rhs$ = 8						; size = 4
??0ioAliceObjectItem@@QAE@ABV0@@Z PROC			; ioAliceObjectItem::ioAliceObjectItem, COMDAT
; _this$ = ecx

; 29   : {

  00000	6a 04		 push	 4
  00002	b8 00 00 00 00	 mov	 eax, __ehhandler$??0ioAliceObjectItem@@QAE@ABV0@@Z
  00007	e8 00 00 00 00	 call	 __EH_prolog3
  0000c	8b f1		 mov	 esi, ecx
  0000e	89 75 f0	 mov	 DWORD PTR _this$[ebp], esi
  00011	8b 7d 08	 mov	 edi, DWORD PTR _rhs$[ebp]
  00014	57		 push	 edi
  00015	e8 00 00 00 00	 call	 ??0ioObjectItem@@QAE@ABV0@@Z ; ioObjectItem::ioObjectItem
  0001a	83 65 fc 00	 and	 DWORD PTR __$EHRec$[ebp+8], 0
  0001e	8d 87 34 1b 00
	00		 lea	 eax, DWORD PTR [edi+6964]
  00024	50		 push	 eax
  00025	8d 8e 34 1b 00
	00		 lea	 ecx, DWORD PTR [esi+6964]
  0002b	c7 06 00 00 00
	00		 mov	 DWORD PTR [esi], OFFSET ??_7ioAliceObjectItem@@6B@
  00031	e8 00 00 00 00	 call	 ??0?$vector@UBulletSet@ioAliceObjectItem@@V?$allocator@UBulletSet@ioAliceObjectItem@@@std@@@std@@QAE@ABV01@@Z ; std::vector<ioAliceObjectItem::BulletSet,std::allocator<ioAliceObjectItem::BulletSet> >::vector<ioAliceObjectItem::BulletSet,std::allocator<ioAliceObjectItem::BulletSet> >
  00036	8d 87 44 1b 00
	00		 lea	 eax, DWORD PTR [edi+6980]
  0003c	50		 push	 eax
  0003d	8d 8e 44 1b 00
	00		 lea	 ecx, DWORD PTR [esi+6980]
  00043	c6 45 fc 01	 mov	 BYTE PTR __$EHRec$[ebp+8], 1
  00047	e8 00 00 00 00	 call	 ??0?$vector@UBulletSet@ioAliceObjectItem@@V?$allocator@UBulletSet@ioAliceObjectItem@@@std@@@std@@QAE@ABV01@@Z ; std::vector<ioAliceObjectItem::BulletSet,std::allocator<ioAliceObjectItem::BulletSet> >::vector<ioAliceObjectItem::BulletSet,std::allocator<ioAliceObjectItem::BulletSet> >
  0004c	8d 87 54 1b 00
	00		 lea	 eax, DWORD PTR [edi+6996]
  00052	50		 push	 eax
  00053	8d 8e 54 1b 00
	00		 lea	 ecx, DWORD PTR [esi+6996]
  00059	c6 45 fc 02	 mov	 BYTE PTR __$EHRec$[ebp+8], 2
  0005d	e8 00 00 00 00	 call	 ??0?$vector@UBulletSet@ioAliceObjectItem@@V?$allocator@UBulletSet@ioAliceObjectItem@@@std@@@std@@QAE@ABV01@@Z ; std::vector<ioAliceObjectItem::BulletSet,std::allocator<ioAliceObjectItem::BulletSet> >::vector<ioAliceObjectItem::BulletSet,std::allocator<ioAliceObjectItem::BulletSet> >
  00062	81 c7 64 1b 00
	00		 add	 edi, 7012		; 00001b64H
  00068	57		 push	 edi
  00069	8d 8e 64 1b 00
	00		 lea	 ecx, DWORD PTR [esi+7012]
  0006f	c6 45 fc 03	 mov	 BYTE PTR __$EHRec$[ebp+8], 3
  00073	e8 00 00 00 00	 call	 ??0?$vector@UBulletSet@ioAliceObjectItem@@V?$allocator@UBulletSet@ioAliceObjectItem@@@std@@@std@@QAE@ABV01@@Z ; std::vector<ioAliceObjectItem::BulletSet,std::allocator<ioAliceObjectItem::BulletSet> >::vector<ioAliceObjectItem::BulletSet,std::allocator<ioAliceObjectItem::BulletSet> >

; 30   : 	m_iWeaponWay		= 0;

  00078	83 a6 74 1b 00
	00 00		 and	 DWORD PTR [esi+7028], 0

; 31   : 	m_iCurCombo			= 0;

  0007f	83 a6 78 1b 00
	00 00		 and	 DWORD PTR [esi+7032], 0

; 32   : 	m_bReserveRelease	= false;

  00086	c6 86 7c 1b 00
	00 00		 mov	 BYTE PTR [esi+7036], 0

; 33   : }

  0008d	8b c6		 mov	 eax, esi
  0008f	e8 00 00 00 00	 call	 __EH_epilog3
  00094	c2 04 00	 ret	 4
_TEXT	ENDS
;	COMDAT text$x
text$x	SEGMENT
__unwindfunclet$??0ioAliceObjectItem@@QAE@ABV0@@Z$0:
  00000	8b 4d f0	 mov	 ecx, DWORD PTR _this$[ebp]
  00003	e9 00 00 00 00	 jmp	 ??1ioObjectItem@@UAE@XZ	; ioObjectItem::~ioObjectItem
__unwindfunclet$??0ioAliceObjectItem@@QAE@ABV0@@Z$1:
  00008	8b 4d f0	 mov	 ecx, DWORD PTR _this$[ebp]
  0000b	81 c1 34 1b 00
	00		 add	 ecx, 6964		; 00001b34H
  00011	e9 00 00 00 00	 jmp	 ??1?$vector@UBulletSet@ioAliceObjectItem@@V?$allocator@UBulletSet@ioAliceObjectItem@@@std@@@std@@QAE@XZ ; std::vector<ioAliceObjectItem::BulletSet,std::allocator<ioAliceObjectItem::BulletSet> >::~vector<ioAliceObjectItem::BulletSet,std::allocator<ioAliceObjectItem::BulletSet> >
__unwindfunclet$??0ioAliceObjectItem@@QAE@ABV0@@Z$2:
  00016	8b 4d f0	 mov	 ecx, DWORD PTR _this$[ebp]
  00019	81 c1 44 1b 00
	00		 add	 ecx, 6980		; 00001b44H
  0001f	e9 00 00 00 00	 jmp	 ??1?$vector@UBulletSet@ioAliceObjectItem@@V?$allocator@UBulletSet@ioAliceObjectItem@@@std@@@std@@QAE@XZ ; std::vector<ioAliceObjectItem::BulletSet,std::allocator<ioAliceObjectItem::BulletSet> >::~vector<ioAliceObjectItem::BulletSet,std::allocator<ioAliceObjectItem::BulletSet> >
__unwindfunclet$??0ioAliceObjectItem@@QAE@ABV0@@Z$3:
  00024	8b 4d f0	 mov	 ecx, DWORD PTR _this$[ebp]
  00027	81 c1 54 1b 00
	00		 add	 ecx, 6996		; 00001b54H
  0002d	e9 00 00 00 00	 jmp	 ??1?$vector@UBulletSet@ioAliceObjectItem@@V?$allocator@UBulletSet@ioAliceObjectItem@@@std@@@std@@QAE@XZ ; std::vector<ioAliceObjectItem::BulletSet,std::allocator<ioAliceObjectItem::BulletSet> >::~vector<ioAliceObjectItem::BulletSet,std::allocator<ioAliceObjectItem::BulletSet> >
__ehhandler$??0ioAliceObjectItem@@QAE@ABV0@@Z:
  00032	8b 54 24 08	 mov	 edx, DWORD PTR [esp+8]
  00036	8d 42 0c	 lea	 eax, DWORD PTR [edx+12]
  00039	8b 4a ec	 mov	 ecx, DWORD PTR [edx-20]
  0003c	33 c8		 xor	 ecx, eax
  0003e	e8 00 00 00 00	 call	 @__security_check_cookie@4
  00043	b8 00 00 00 00	 mov	 eax, OFFSET __ehfuncinfo$??0ioAliceObjectItem@@QAE@ABV0@@Z
  00048	e9 00 00 00 00	 jmp	 ___CxxFrameHandler3
text$x	ENDS
??0ioAliceObjectItem@@QAE@ABV0@@Z ENDP			; ioAliceObjectItem::ioAliceObjectItem
PUBLIC	??1ioAliceObjectItem@@UAE@XZ			; ioAliceObjectItem::~ioAliceObjectItem
;	COMDAT xdata$x
; File c:\program files (x86)\microsoft visual studio 10.0\vc\include\vector
xdata$x	SEGMENT
__unwindtable$??1ioAliceObjectItem@@UAE@XZ DD 0ffffffffH
	DD	FLAT:__unwindfunclet$??1ioAliceObjectItem@@UAE@XZ$0
	DD	00H
	DD	FLAT:__unwindfunclet$??1ioAliceObjectItem@@UAE@XZ$1
	DD	01H
	DD	FLAT:__unwindfunclet$??1ioAliceObjectItem@@UAE@XZ$2
	DD	02H
	DD	FLAT:__unwindfunclet$??1ioAliceObjectItem@@UAE@XZ$3
__ehfuncinfo$??1ioAliceObjectItem@@UAE@XZ DD 019930522H
	DD	04H
	DD	FLAT:__unwindtable$??1ioAliceObjectItem@@UAE@XZ
	DD	2 DUP(00H)
	DD	2 DUP(00H)
	DD	00H
	DD	01H
; Function compile flags: /Ogsp
; File d:\lost saga for developer\youtube\tutorial\source\src\lsclient\ioaliceobjectitem.cpp
xdata$x	ENDS
;	COMDAT ??1ioAliceObjectItem@@UAE@XZ
_TEXT	SEGMENT
_this$ = -16						; size = 4
__$EHRec$ = -12						; size = 12
??1ioAliceObjectItem@@UAE@XZ PROC			; ioAliceObjectItem::~ioAliceObjectItem, COMDAT
; _this$ = ecx

; 36   : {

  00000	6a 04		 push	 4
  00002	b8 00 00 00 00	 mov	 eax, __ehhandler$??1ioAliceObjectItem@@UAE@XZ
  00007	e8 00 00 00 00	 call	 __EH_prolog3
  0000c	8b f1		 mov	 esi, ecx
  0000e	89 75 f0	 mov	 DWORD PTR _this$[ebp], esi
  00011	c7 06 00 00 00
	00		 mov	 DWORD PTR [esi], OFFSET ??_7ioAliceObjectItem@@6B@

; 37   : }

  00017	8d 8e 64 1b 00
	00		 lea	 ecx, DWORD PTR [esi+7012]
  0001d	c7 45 fc 03 00
	00 00		 mov	 DWORD PTR __$EHRec$[ebp+8], 3
  00024	e8 00 00 00 00	 call	 ?_Tidy@?$vector@UBulletSet@ioAliceObjectItem@@V?$allocator@UBulletSet@ioAliceObjectItem@@@std@@@std@@IAEXXZ ; std::vector<ioAliceObjectItem::BulletSet,std::allocator<ioAliceObjectItem::BulletSet> >::_Tidy
  00029	8d 8e 54 1b 00
	00		 lea	 ecx, DWORD PTR [esi+6996]
  0002f	c6 45 fc 02	 mov	 BYTE PTR __$EHRec$[ebp+8], 2
  00033	e8 00 00 00 00	 call	 ?_Tidy@?$vector@UBulletSet@ioAliceObjectItem@@V?$allocator@UBulletSet@ioAliceObjectItem@@@std@@@std@@IAEXXZ ; std::vector<ioAliceObjectItem::BulletSet,std::allocator<ioAliceObjectItem::BulletSet> >::_Tidy
  00038	8d 8e 44 1b 00
	00		 lea	 ecx, DWORD PTR [esi+6980]
  0003e	c6 45 fc 01	 mov	 BYTE PTR __$EHRec$[ebp+8], 1
  00042	e8 00 00 00 00	 call	 ?_Tidy@?$vector@UBulletSet@ioAliceObjectItem@@V?$allocator@UBulletSet@ioAliceObjectItem@@@std@@@std@@IAEXXZ ; std::vector<ioAliceObjectItem::BulletSet,std::allocator<ioAliceObjectItem::BulletSet> >::_Tidy
  00047	8d 8e 34 1b 00
	00		 lea	 ecx, DWORD PTR [esi+6964]
  0004d	c6 45 fc 00	 mov	 BYTE PTR __$EHRec$[ebp+8], 0
  00051	e8 00 00 00 00	 call	 ?_Tidy@?$vector@UBulletSet@ioAliceObjectItem@@V?$allocator@UBulletSet@ioAliceObjectItem@@@std@@@std@@IAEXXZ ; std::vector<ioAliceObjectItem::BulletSet,std::allocator<ioAliceObjectItem::BulletSet> >::_Tidy
  00056	83 4d fc ff	 or	 DWORD PTR __$EHRec$[ebp+8], -1
  0005a	8b ce		 mov	 ecx, esi
  0005c	e8 00 00 00 00	 call	 ??1ioObjectItem@@UAE@XZ	; ioObjectItem::~ioObjectItem
  00061	e8 00 00 00 00	 call	 __EH_epilog3
  00066	c3		 ret	 0
_TEXT	ENDS
;	COMDAT text$x
text$x	SEGMENT
__unwindfunclet$??1ioAliceObjectItem@@UAE@XZ$0:
  00000	8b 4d f0	 mov	 ecx, DWORD PTR _this$[ebp]
  00003	e9 00 00 00 00	 jmp	 ??1ioObjectItem@@UAE@XZ	; ioObjectItem::~ioObjectItem
__unwindfunclet$??1ioAliceObjectItem@@UAE@XZ$1:
  00008	8b 4d f0	 mov	 ecx, DWORD PTR _this$[ebp]
  0000b	81 c1 34 1b 00
	00		 add	 ecx, 6964		; 00001b34H
  00011	e9 00 00 00 00	 jmp	 ??1?$vector@UBulletSet@ioAliceObjectItem@@V?$allocator@UBulletSet@ioAliceObjectItem@@@std@@@std@@QAE@XZ ; std::vector<ioAliceObjectItem::BulletSet,std::allocator<ioAliceObjectItem::BulletSet> >::~vector<ioAliceObjectItem::BulletSet,std::allocator<ioAliceObjectItem::BulletSet> >
__unwindfunclet$??1ioAliceObjectItem@@UAE@XZ$2:
  00016	8b 4d f0	 mov	 ecx, DWORD PTR _this$[ebp]
  00019	81 c1 44 1b 00
	00		 add	 ecx, 6980		; 00001b44H
  0001f	e9 00 00 00 00	 jmp	 ??1?$vector@UBulletSet@ioAliceObjectItem@@V?$allocator@UBulletSet@ioAliceObjectItem@@@std@@@std@@QAE@XZ ; std::vector<ioAliceObjectItem::BulletSet,std::allocator<ioAliceObjectItem::BulletSet> >::~vector<ioAliceObjectItem::BulletSet,std::allocator<ioAliceObjectItem::BulletSet> >
__unwindfunclet$??1ioAliceObjectItem@@UAE@XZ$3:
  00024	8b 4d f0	 mov	 ecx, DWORD PTR _this$[ebp]
  00027	81 c1 54 1b 00
	00		 add	 ecx, 6996		; 00001b54H
  0002d	e9 00 00 00 00	 jmp	 ??1?$vector@UBulletSet@ioAliceObjectItem@@V?$allocator@UBulletSet@ioAliceObjectItem@@@std@@@std@@QAE@XZ ; std::vector<ioAliceObjectItem::BulletSet,std::allocator<ioAliceObjectItem::BulletSet> >::~vector<ioAliceObjectItem::BulletSet,std::allocator<ioAliceObjectItem::BulletSet> >
__ehhandler$??1ioAliceObjectItem@@UAE@XZ:
  00032	8b 54 24 08	 mov	 edx, DWORD PTR [esp+8]
  00036	8d 42 0c	 lea	 eax, DWORD PTR [edx+12]
  00039	8b 4a ec	 mov	 ecx, DWORD PTR [edx-20]
  0003c	33 c8		 xor	 ecx, eax
  0003e	e8 00 00 00 00	 call	 @__security_check_cookie@4
  00043	b8 00 00 00 00	 mov	 eax, OFFSET __ehfuncinfo$??1ioAliceObjectItem@@UAE@XZ
  00048	e9 00 00 00 00	 jmp	 ___CxxFrameHandler3
text$x	ENDS
??1ioAliceObjectItem@@UAE@XZ ENDP			; ioAliceObjectItem::~ioAliceObjectItem
;	COMDAT xdata$x
xdata$x	SEGMENT
__unwindtable$?Clone@ioAliceObjectItem@@UAEPAVioItem@@XZ DD 0ffffffffH
	DD	FLAT:__unwindfunclet$?Clone@ioAliceObjectItem@@UAEPAVioItem@@XZ$0
__ehfuncinfo$?Clone@ioAliceObjectItem@@UAEPAVioItem@@XZ DD 019930522H
	DD	01H
	DD	FLAT:__unwindtable$?Clone@ioAliceObjectItem@@UAEPAVioItem@@XZ
	DD	2 DUP(00H)
	DD	2 DUP(00H)
	DD	00H
	DD	01H
; Function compile flags: /Ogsp
xdata$x	ENDS
;	COMDAT ?Clone@ioAliceObjectItem@@UAEPAVioItem@@XZ
_TEXT	SEGMENT
$T555702 = -16						; size = 4
__$EHRec$ = -12						; size = 12
?Clone@ioAliceObjectItem@@UAEPAVioItem@@XZ PROC		; ioAliceObjectItem::Clone, COMDAT
; _this$ = ecx

; 50   : {

  00000	6a 04		 push	 4
  00002	b8 00 00 00 00	 mov	 eax, __ehhandler$?Clone@ioAliceObjectItem@@UAEPAVioItem@@XZ
  00007	e8 00 00 00 00	 call	 __EH_prolog3
  0000c	8b f1		 mov	 esi, ecx

; 51   : 	return new ioAliceObjectItem( *this );

  0000e	68 80 1b 00 00	 push	 7040			; 00001b80H
  00013	e8 00 00 00 00	 call	 ??2@YAPAXI@Z		; operator new
  00018	59		 pop	 ecx
  00019	8b c8		 mov	 ecx, eax
  0001b	89 4d f0	 mov	 DWORD PTR $T555702[ebp], ecx
  0001e	33 c0		 xor	 eax, eax
  00020	89 45 fc	 mov	 DWORD PTR __$EHRec$[ebp+8], eax
  00023	3b c8		 cmp	 ecx, eax
  00025	74 06		 je	 SHORT $LN3@Clone
  00027	56		 push	 esi
  00028	e8 00 00 00 00	 call	 ??0ioAliceObjectItem@@QAE@ABV0@@Z ; ioAliceObjectItem::ioAliceObjectItem
$LN3@Clone:

; 52   : }

  0002d	e8 00 00 00 00	 call	 __EH_epilog3
  00032	c3		 ret	 0
_TEXT	ENDS
;	COMDAT text$x
text$x	SEGMENT
__unwindfunclet$?Clone@ioAliceObjectItem@@UAEPAVioItem@@XZ$0:
  00000	ff 75 f0	 push	 DWORD PTR $T555702[ebp]
  00003	e8 00 00 00 00	 call	 ??3@YAXPAX@Z		; operator delete
  00008	59		 pop	 ecx
  00009	c3		 ret	 0
__ehhandler$?Clone@ioAliceObjectItem@@UAEPAVioItem@@XZ:
  0000a	8b 54 24 08	 mov	 edx, DWORD PTR [esp+8]
  0000e	8d 42 0c	 lea	 eax, DWORD PTR [edx+12]
  00011	8b 4a ec	 mov	 ecx, DWORD PTR [edx-20]
  00014	33 c8		 xor	 ecx, eax
  00016	e8 00 00 00 00	 call	 @__security_check_cookie@4
  0001b	b8 00 00 00 00	 mov	 eax, OFFSET __ehfuncinfo$?Clone@ioAliceObjectItem@@UAEPAVioItem@@XZ
  00020	e9 00 00 00 00	 jmp	 ___CxxFrameHandler3
text$x	ENDS
?Clone@ioAliceObjectItem@@UAEPAVioItem@@XZ ENDP		; ioAliceObjectItem::Clone
PUBLIC	?push_back@?$vector@UBulletSet@ioAliceObjectItem@@V?$allocator@UBulletSet@ioAliceObjectItem@@@std@@@std@@QAEXABUBulletSet@ioAliceObjectItem@@@Z ; std::vector<ioAliceObjectItem::BulletSet,std::allocator<ioAliceObjectItem::BulletSet> >::push_back
; Function compile flags: /Ogsp
; File c:\program files (x86)\microsoft visual studio 10.0\vc\include\vector
;	COMDAT ?push_back@?$vector@UBulletSet@ioAliceObjectItem@@V?$allocator@UBulletSet@ioAliceObjectItem@@@std@@@std@@QAEXABUBulletSet@ioAliceObjectItem@@@Z
_TEXT	SEGMENT
__Val$ = 8						; size = 4
?push_back@?$vector@UBulletSet@ioAliceObjectItem@@V?$allocator@UBulletSet@ioAliceObjectItem@@@std@@@std@@QAEXABUBulletSet@ioAliceObjectItem@@@Z PROC ; std::vector<ioAliceObjectItem::BulletSet,std::allocator<ioAliceObjectItem::BulletSet> >::push_back, COMDAT
; _this$ = ecx

; 976  : 		{	// insert element at end

  00000	55		 push	 ebp
  00001	8b ec		 mov	 ebp, esp
  00003	56		 push	 esi
  00004	8b f1		 mov	 esi, ecx

; 977  : 		if (_Inside(_STD addressof(_Val)))

  00006	8b 4e 04	 mov	 ecx, DWORD PTR [esi+4]
  00009	57		 push	 edi
  0000a	8b 7d 08	 mov	 edi, DWORD PTR __Val$[ebp]
  0000d	3b f9		 cmp	 edi, ecx
  0000f	73 33		 jae	 SHORT $LN4@push_back@2
  00011	8b 16		 mov	 edx, DWORD PTR [esi]
  00013	3b d7		 cmp	 edx, edi
  00015	77 2d		 ja	 SHORT $LN4@push_back@2

; 978  : 			{	// push back an element
; 979  : 			size_type _Idx = _STD addressof(_Val) - this->_Myfirst;

  00017	8b c7		 mov	 eax, edi
  00019	2b c2		 sub	 eax, edx
  0001b	6a 14		 push	 20			; 00000014H
  0001d	99		 cdq
  0001e	5f		 pop	 edi
  0001f	f7 ff		 idiv	 edi
  00021	8b f8		 mov	 edi, eax

; 980  : 			if (this->_Mylast == this->_Myend)

  00023	3b 4e 08	 cmp	 ecx, DWORD PTR [esi+8]
  00026	75 09		 jne	 SHORT $LN3@push_back@2

; 981  : 				_Reserve(1);

  00028	6a 01		 push	 1
  0002a	8b ce		 mov	 ecx, esi
  0002c	e8 00 00 00 00	 call	 ?_Reserve@?$vector@UBulletSet@ioAliceObjectItem@@V?$allocator@UBulletSet@ioAliceObjectItem@@@std@@@std@@IAEXI@Z ; std::vector<ioAliceObjectItem::BulletSet,std::allocator<ioAliceObjectItem::BulletSet> >::_Reserve
$LN3@push_back@2:

; 982  : 			_Orphan_range(this->_Mylast, this->_Mylast);
; 983  : 			_Cons_val(this->_Alval,
; 984  : 				this->_Mylast,
; 985  : 				this->_Myfirst[_Idx]);

  00031	6b ff 14	 imul	 edi, 20			; 00000014H
  00034	03 3e		 add	 edi, DWORD PTR [esi]
  00036	8d 4e 0c	 lea	 ecx, DWORD PTR [esi+12]
  00039	57		 push	 edi
  0003a	ff 76 04	 push	 DWORD PTR [esi+4]
  0003d	e8 00 00 00 00	 call	 ??$construct@AAUBulletSet@ioAliceObjectItem@@@?$allocator@UBulletSet@ioAliceObjectItem@@@std@@QAEXPAUBulletSet@ioAliceObjectItem@@AAU23@@Z ; std::allocator<ioAliceObjectItem::BulletSet>::construct<ioAliceObjectItem::BulletSet &>

; 986  : 			++this->_Mylast;
; 987  : 			}
; 988  : 		else

  00042	eb 19		 jmp	 SHORT $LN30@push_back@2
$LN4@push_back@2:

; 989  : 			{	// push back a non-element
; 990  : 			if (this->_Mylast == this->_Myend)

  00044	3b 4e 08	 cmp	 ecx, DWORD PTR [esi+8]
  00047	75 09		 jne	 SHORT $LN1@push_back@2

; 991  : 				_Reserve(1);

  00049	6a 01		 push	 1
  0004b	8b ce		 mov	 ecx, esi
  0004d	e8 00 00 00 00	 call	 ?_Reserve@?$vector@UBulletSet@ioAliceObjectItem@@V?$allocator@UBulletSet@ioAliceObjectItem@@@std@@@std@@IAEXI@Z ; std::vector<ioAliceObjectItem::BulletSet,std::allocator<ioAliceObjectItem::BulletSet> >::_Reserve
$LN1@push_back@2:

; 992  : 			_Orphan_range(this->_Mylast, this->_Mylast);
; 993  : 			_Cons_val(this->_Alval,
; 994  : 				this->_Mylast,
; 995  : 				_Val);

  00052	57		 push	 edi
  00053	ff 76 04	 push	 DWORD PTR [esi+4]
  00056	e8 00 00 00 00	 call	 ??$_Construct@UBulletSet@ioAliceObjectItem@@ABU12@@std@@YAXPAUBulletSet@ioAliceObjectItem@@ABU12@@Z ; std::_Construct<ioAliceObjectItem::BulletSet,ioAliceObjectItem::BulletSet const &>
  0005b	59		 pop	 ecx
  0005c	59		 pop	 ecx
$LN30@push_back@2:

; 996  : 			++this->_Mylast;

  0005d	83 46 04 14	 add	 DWORD PTR [esi+4], 20	; 00000014H
  00061	5f		 pop	 edi
  00062	5e		 pop	 esi

; 997  : 			}
; 998  : 		}

  00063	5d		 pop	 ebp
  00064	c2 04 00	 ret	 4
?push_back@?$vector@UBulletSet@ioAliceObjectItem@@V?$allocator@UBulletSet@ioAliceObjectItem@@@std@@@std@@QAEXABUBulletSet@ioAliceObjectItem@@@Z ENDP ; std::vector<ioAliceObjectItem::BulletSet,std::allocator<ioAliceObjectItem::BulletSet> >::push_back
; Function compile flags: /Ogsp
_TEXT	ENDS
;	COMDAT ??_GioAliceObjectItem@@UAEPAXI@Z
_TEXT	SEGMENT
___flags$ = 8						; size = 4
??_GioAliceObjectItem@@UAEPAXI@Z PROC			; ioAliceObjectItem::`scalar deleting destructor', COMDAT
; _this$ = ecx
  00000	55		 push	 ebp
  00001	8b ec		 mov	 ebp, esp
  00003	56		 push	 esi
  00004	8b f1		 mov	 esi, ecx
  00006	e8 00 00 00 00	 call	 ??1ioAliceObjectItem@@UAE@XZ ; ioAliceObjectItem::~ioAliceObjectItem
  0000b	f6 45 08 01	 test	 BYTE PTR ___flags$[ebp], 1
  0000f	74 07		 je	 SHORT $LN1@scalar@3
  00011	56		 push	 esi
  00012	e8 00 00 00 00	 call	 ??3@YAXPAX@Z		; operator delete
  00017	59		 pop	 ecx
$LN1@scalar@3:
  00018	8b c6		 mov	 eax, esi
  0001a	5e		 pop	 esi
  0001b	5d		 pop	 ebp
  0001c	c2 04 00	 ret	 4
??_GioAliceObjectItem@@UAEPAXI@Z ENDP			; ioAliceObjectItem::`scalar deleting destructor'
_TEXT	ENDS
PUBLIC	_szTitle$GSCopy$
PUBLIC	_rkLoader$GSCopy$
PUBLIC	_rkList$GSCopy$
PUBLIC	?LoadBulletProperty@ioAliceObjectItem@@QAEXAAVioINILoader@@ABVioHashString@@AAV?$vector@UBulletSet@ioAliceObjectItem@@V?$allocator@UBulletSet@ioAliceObjectItem@@@std@@@std@@@Z ; ioAliceObjectItem::LoadBulletProperty
EXTRN	__imp_?LoadFloat@ioINILoader@@QAEMPBDM@Z:PROC
EXTRN	__imp_?LoadInt@ioINILoader@@QAEHPBDH@Z:PROC
EXTRN	__imp__wsprintfA:PROC
EXTRN	__imp_?c_str@ioHashString@@QBEPBDXZ:PROC
EXTRN	__EH_epilog3_GS:PROC
EXTRN	__EH_prolog3_GS:PROC
;	COMDAT xdata$x
xdata$x	SEGMENT
__unwindtable$?LoadBulletProperty@ioAliceObjectItem@@QAEXAAVioINILoader@@ABVioHashString@@AAV?$vector@UBulletSet@ioAliceObjectItem@@V?$allocator@UBulletSet@ioAliceObjectItem@@@std@@@std@@@Z DD 0ffffffffH
	DD	FLAT:__unwindfunclet$?LoadBulletProperty@ioAliceObjectItem@@QAEXAAVioINILoader@@ABVioHashString@@AAV?$vector@UBulletSet@ioAliceObjectItem@@V?$allocator@UBulletSet@ioAliceObjectItem@@@std@@@std@@@Z$0
__ehfuncinfo$?LoadBulletProperty@ioAliceObjectItem@@QAEXAAVioINILoader@@ABVioHashString@@AAV?$vector@UBulletSet@ioAliceObjectItem@@V?$allocator@UBulletSet@ioAliceObjectItem@@@std@@@std@@@Z DD 019930522H
	DD	01H
	DD	FLAT:__unwindtable$?LoadBulletProperty@ioAliceObjectItem@@QAEXAAVioINILoader@@ABVioHashString@@AAV?$vector@UBulletSet@ioAliceObjectItem@@V?$allocator@UBulletSet@ioAliceObjectItem@@@std@@@std@@@Z
	DD	2 DUP(00H)
	DD	2 DUP(00H)
	DD	00H
	DD	01H
; Function compile flags: /Ogsp
; File d:\lost saga for developer\youtube\tutorial\source\src\lsclient\ioaliceobjectitem.cpp
xdata$x	ENDS
;	COMDAT ?LoadBulletProperty@ioAliceObjectItem@@QAEXAAVioINILoader@@ABVioHashString@@AAV?$vector@UBulletSet@ioAliceObjectItem@@V?$allocator@UBulletSet@ioAliceObjectItem@@@std@@@std@@@Z
_TEXT	SEGMENT
_kInfo$549384 = -380					; size = 20
_kSet$549227 = -360					; size = 20
_rkList$GSCopy$ = -340					; size = 4
tv953 = -336						; size = 4
_szTitle$GSCopy$ = -332					; size = 4
_rkLoader$GSCopy$ = -328				; size = 4
tv4703 = -324						; size = 4
_szKey$ = -320						; size = 260
___encStr$549231 = -60					; size = 9
___encStr$549072 = -60					; size = 11
___encStr$549844 = -44					; size = 21
___encStr$549692 = -44					; size = 20
___encStr$549540 = -40					; size = 15
___encStr$549388 = -40					; size = 15
__$EHRec$ = -12						; size = 12
_rkLoader$ = 8						; size = 4
_szTitle$ = 12						; size = 4
_rkList$ = 16						; size = 4
?LoadBulletProperty@ioAliceObjectItem@@QAEXAAVioINILoader@@ABVioHashString@@AAV?$vector@UBulletSet@ioAliceObjectItem@@V?$allocator@UBulletSet@ioAliceObjectItem@@@std@@@std@@@Z PROC ; ioAliceObjectItem::LoadBulletProperty, COMDAT
; _this$ = ecx

; 55   : {

  00000	68 70 01 00 00	 push	 368			; 00000170H
  00005	b8 00 00 00 00	 mov	 eax, __ehhandler$?LoadBulletProperty@ioAliceObjectItem@@QAEXAAVioINILoader@@ABVioHashString@@AAV?$vector@UBulletSet@ioAliceObjectItem@@V?$allocator@UBulletSet@ioAliceObjectItem@@@std@@@std@@@Z
  0000a	e8 00 00 00 00	 call	 __EH_prolog3_GS

; 56   : 	char szKey[MAX_PATH];
; 57   : 
; 58   : 	wsprintf_e( szKey, "%s_max_cnt", szTitle.c_str() );

  0000f	8b 45 10	 mov	 eax, DWORD PTR _rkList$[ebp]
  00012	8b 7d 08	 mov	 edi, DWORD PTR _rkLoader$[ebp]
  00015	8b 55 0c	 mov	 edx, DWORD PTR _szTitle$[ebp]
  00018	33 db		 xor	 ebx, ebx
  0001a	6a 02		 push	 2
  0001c	89 85 ac fe ff
	ff		 mov	 DWORD PTR _rkList$GSCopy$[ebp], eax

; 78   : 
; 79   : 			wsprintf_e( szKey, "%s%d_height_offset%d", szTitle.c_str(), i + 1, j + 1 );

  00022	89 bd b8 fe ff
	ff		 mov	 DWORD PTR _rkLoader$GSCopy$[ebp], edi
  00028	89 95 b4 fe ff
	ff		 mov	 DWORD PTR _szTitle$GSCopy$[ebp], edx
  0002e	c7 45 c4 c8 9f
	b4 87		 mov	 DWORD PTR ___encStr$549072[ebp], -2018205752 ; 87b49fc8H
  00035	c7 45 c8 8c 94
	b4 89		 mov	 DWORD PTR ___encStr$549072[ebp+4], -1984654196 ; 89b4948cH
  0003c	66 c7 45 cc 83
	98		 mov	 WORD PTR ___encStr$549072[ebp+8], 39043 ; 00009883H
  00042	8d 45 c4	 lea	 eax, DWORD PTR ___encStr$549072[ebp]
  00045	88 5d ce	 mov	 BYTE PTR ___encStr$549072[ebp+10], bl
  00048	59		 pop	 ecx
$LL609@LoadBullet:

; 56   : 	char szKey[MAX_PATH];
; 57   : 
; 58   : 	wsprintf_e( szKey, "%s_max_cnt", szTitle.c_str() );

  00049	81 30 ed ec eb
	ea		 xor	 DWORD PTR [eax], -353637139 ; eaebecedH
  0004f	83 c0 04	 add	 eax, 4
  00052	49		 dec	 ecx
  00053	75 f4		 jne	 SHORT $LL609@LoadBullet
  00055	6a 08		 push	 8
  00057	5e		 pop	 esi
$LL606@LoadBullet:
  00058	8b c6		 mov	 eax, esi
  0005a	25 03 00 00 80	 and	 eax, -2147483645	; 80000003H
  0005f	79 05		 jns	 SHORT $LN701@LoadBullet
  00061	48		 dec	 eax
  00062	83 c8 fc	 or	 eax, -4			; fffffffcH
  00065	40		 inc	 eax
$LN701@LoadBullet:
  00066	b1 ed		 mov	 cl, -19			; ffffffedH
  00068	2a c8		 sub	 cl, al
  0006a	30 4c 35 c4	 xor	 BYTE PTR ___encStr$549072[ebp+esi], cl
  0006e	46		 inc	 esi
  0006f	83 fe 0a	 cmp	 esi, 10			; 0000000aH
  00072	7c e4		 jl	 SHORT $LL606@LoadBullet
  00074	8b ca		 mov	 ecx, edx
  00076	ff 15 00 00 00
	00		 call	 DWORD PTR __imp_?c_str@ioHashString@@QBEPBDXZ
  0007c	8b 35 00 00 00
	00		 mov	 esi, DWORD PTR __imp__wsprintfA
  00082	50		 push	 eax
  00083	8d 45 c4	 lea	 eax, DWORD PTR ___encStr$549072[ebp]
  00086	50		 push	 eax
  00087	8d 85 c0 fe ff
	ff		 lea	 eax, DWORD PTR _szKey$[ebp]
  0008d	50		 push	 eax
  0008e	ff d6		 call	 esi
  00090	83 c4 0c	 add	 esp, 12			; 0000000cH

; 59   : 	int iMax = rkLoader.LoadInt( szKey, 0 );

  00093	53		 push	 ebx
  00094	8d 85 c0 fe ff
	ff		 lea	 eax, DWORD PTR _szKey$[ebp]
  0009a	50		 push	 eax
  0009b	8b cf		 mov	 ecx, edi
  0009d	ff 15 00 00 00
	00		 call	 DWORD PTR __imp_?LoadInt@ioINILoader@@QAEHPBDH@Z

; 60   : 	for( int i = 0; i < iMax; ++i )

  000a3	3b c3		 cmp	 eax, ebx
  000a5	0f 8e 37 03 00
	00		 jle	 $LN499@LoadBullet

; 56   : 	char szKey[MAX_PATH];
; 57   : 
; 58   : 	wsprintf_e( szKey, "%s_max_cnt", szTitle.c_str() );

  000ab	c7 85 bc fe ff
	ff 01 00 00 00	 mov	 DWORD PTR tv4703[ebp], 1
  000b5	89 85 b0 fe ff
	ff		 mov	 DWORD PTR tv953[ebp], eax
$LN501@LoadBullet:

; 61   : 	{
; 62   : 		BulletSet kSet;

  000bb	89 9d 9c fe ff
	ff		 mov	 DWORD PTR _kSet$549227[ebp+4], ebx
  000c1	89 9d a0 fe ff
	ff		 mov	 DWORD PTR _kSet$549227[ebp+8], ebx
  000c7	89 9d a4 fe ff
	ff		 mov	 DWORD PTR _kSet$549227[ebp+12], ebx
  000cd	89 9d 98 fe ff
	ff		 mov	 DWORD PTR _kSet$549227[ebp], ebx
  000d3	6a 02		 push	 2
  000d5	89 5d fc	 mov	 DWORD PTR __$EHRec$[ebp+8], ebx

; 63   : 		wsprintf_e( szKey, "%s%d_max", szTitle.c_str(), i + 1 );

  000d8	c7 45 c4 c8 9f
	ce 8e		 mov	 DWORD PTR ___encStr$549231[ebp], -1899061304 ; 8ece9fc8H
  000df	c7 45 c8 b2 81
	8a 92		 mov	 DWORD PTR ___encStr$549231[ebp+4], -1836416590 ; 928a81b2H
  000e6	8d 45 c4	 lea	 eax, DWORD PTR ___encStr$549231[ebp]
  000e9	88 5d cc	 mov	 BYTE PTR ___encStr$549231[ebp+8], bl
  000ec	59		 pop	 ecx
$LL627@LoadBullet:
  000ed	81 30 ed ec eb
	ea		 xor	 DWORD PTR [eax], -353637139 ; eaebecedH
  000f3	83 c0 04	 add	 eax, 4
  000f6	49		 dec	 ecx
  000f7	75 f4		 jne	 SHORT $LL627@LoadBullet
  000f9	ff b5 bc fe ff
	ff		 push	 DWORD PTR tv4703[ebp]
  000ff	8b 8d b4 fe ff
	ff		 mov	 ecx, DWORD PTR _szTitle$GSCopy$[ebp]
  00105	ff 15 00 00 00
	00		 call	 DWORD PTR __imp_?c_str@ioHashString@@QBEPBDXZ
  0010b	50		 push	 eax
  0010c	8d 45 c4	 lea	 eax, DWORD PTR ___encStr$549231[ebp]
  0010f	50		 push	 eax
  00110	8d 85 c0 fe ff
	ff		 lea	 eax, DWORD PTR _szKey$[ebp]
  00116	50		 push	 eax
  00117	ff d6		 call	 esi

; 64   : 		kSet.m_iMaxWeaponWay = rkLoader.LoadInt( szKey, 0 );

  00119	8b 8d b8 fe ff
	ff		 mov	 ecx, DWORD PTR _rkLoader$GSCopy$[ebp]
  0011f	83 c4 10	 add	 esp, 16			; 00000010H
  00122	53		 push	 ebx
  00123	8d 85 c0 fe ff
	ff		 lea	 eax, DWORD PTR _szKey$[ebp]
  00129	50		 push	 eax
  0012a	ff 15 00 00 00
	00		 call	 DWORD PTR __imp_?LoadInt@ioINILoader@@QAEHPBDH@Z
  00130	89 85 98 fe ff
	ff		 mov	 DWORD PTR _kSet$549227[ebp], eax

; 65   : 
; 66   : 		for( int j = 0; j < kSet.m_iMaxWeaponWay; ++j )

  00136	3b c3		 cmp	 eax, ebx
  00138	0f 8e 71 02 00
	00		 jle	 $LN397@LoadBullet

; 63   : 		wsprintf_e( szKey, "%s%d_max", szTitle.c_str(), i + 1 );

  0013e	33 ff		 xor	 edi, edi
  00140	47		 inc	 edi
$LL399@LoadBullet:

; 67   : 		{
; 68   : 			BulletInfo kInfo;

  00141	0f 57 c0	 xorps	 xmm0, xmm0
  00144	6a 03		 push	 3
  00146	f3 0f 11 85 8c
	fe ff ff	 movss	 DWORD PTR _kInfo$549384[ebp+8], xmm0

; 69   : 
; 70   : 			wsprintf_e( szKey, "%s%d_angle_h%d", szTitle.c_str(), i + 1, j + 1 );

  0014e	c7 45 d8 c8 9f
	ce 8e		 mov	 DWORD PTR ___encStr$549388[ebp], -1899061304 ; 8ece9fc8H
  00155	c7 45 dc b2 8d
	85 8d		 mov	 DWORD PTR ___encStr$549388[ebp+4], -1920627278 ; 8d858db2H
  0015c	c7 45 e0 81 89
	b4 82		 mov	 DWORD PTR ___encStr$549388[ebp+8], -2102097535 ; 82b48981H
  00163	66 c7 45 e4 c8
	88		 mov	 WORD PTR ___encStr$549388[ebp+12], 35016 ; 000088c8H
  00169	8d 45 d8	 lea	 eax, DWORD PTR ___encStr$549388[ebp]
  0016c	88 5d e6	 mov	 BYTE PTR ___encStr$549388[ebp+14], bl
  0016f	59		 pop	 ecx
$LL637@LoadBullet:
  00170	81 30 ed ec eb
	ea		 xor	 DWORD PTR [eax], -353637139 ; eaebecedH
  00176	83 c0 04	 add	 eax, 4
  00179	49		 dec	 ecx
  0017a	75 f4		 jne	 SHORT $LL637@LoadBullet
  0017c	6a 0c		 push	 12			; 0000000cH
  0017e	58		 pop	 eax
$LL634@LoadBullet:
  0017f	8b c8		 mov	 ecx, eax
  00181	81 e1 03 00 00
	80		 and	 ecx, -2147483645	; 80000003H
  00187	79 05		 jns	 SHORT $LN702@LoadBullet
  00189	49		 dec	 ecx
  0018a	83 c9 fc	 or	 ecx, -4			; fffffffcH
  0018d	41		 inc	 ecx
$LN702@LoadBullet:
  0018e	b2 ed		 mov	 dl, -19			; ffffffedH
  00190	2a d1		 sub	 dl, cl
  00192	30 54 05 d8	 xor	 BYTE PTR ___encStr$549388[ebp+eax], dl
  00196	40		 inc	 eax
  00197	83 f8 0e	 cmp	 eax, 14			; 0000000eH
  0019a	7c e3		 jl	 SHORT $LL634@LoadBullet
  0019c	8b 8d b4 fe ff
	ff		 mov	 ecx, DWORD PTR _szTitle$GSCopy$[ebp]
  001a2	57		 push	 edi
  001a3	ff b5 bc fe ff
	ff		 push	 DWORD PTR tv4703[ebp]
  001a9	ff 15 00 00 00
	00		 call	 DWORD PTR __imp_?c_str@ioHashString@@QBEPBDXZ
  001af	50		 push	 eax
  001b0	8d 45 d8	 lea	 eax, DWORD PTR ___encStr$549388[ebp]
  001b3	50		 push	 eax
  001b4	8d 85 c0 fe ff
	ff		 lea	 eax, DWORD PTR _szKey$[ebp]
  001ba	50		 push	 eax
  001bb	ff d6		 call	 esi

; 71   : 			kInfo.m_fYawAngle = rkLoader.LoadFloat( szKey, 0.0f );

  001bd	0f 57 c0	 xorps	 xmm0, xmm0
  001c0	8b 8d b8 fe ff
	ff		 mov	 ecx, DWORD PTR _rkLoader$GSCopy$[ebp]
  001c6	83 c4 10	 add	 esp, 16			; 00000010H
  001c9	8d 85 c0 fe ff
	ff		 lea	 eax, DWORD PTR _szKey$[ebp]
  001cf	f3 0f 11 04 24	 movss	 DWORD PTR [esp], xmm0
  001d4	50		 push	 eax
  001d5	ff 15 00 00 00
	00		 call	 DWORD PTR __imp_?LoadFloat@ioINILoader@@QAEMPBDM@Z
  001db	d9 9d 84 fe ff
	ff		 fstp	 DWORD PTR _kInfo$549384[ebp]
  001e1	6a 03		 push	 3

; 72   : 
; 73   : 			wsprintf_e( szKey, "%s%d_angle_v%d", szTitle.c_str(), i + 1, j + 1 );

  001e3	c7 45 d8 c8 9f
	ce 8e		 mov	 DWORD PTR ___encStr$549540[ebp], -1899061304 ; 8ece9fc8H
  001ea	c7 45 dc b2 8d
	85 8d		 mov	 DWORD PTR ___encStr$549540[ebp+4], -1920627278 ; 8d858db2H
  001f1	c7 45 e0 81 89
	b4 9c		 mov	 DWORD PTR ___encStr$549540[ebp+8], -1665889919 ; 9cb48981H
  001f8	66 c7 45 e4 c8
	88		 mov	 WORD PTR ___encStr$549540[ebp+12], 35016 ; 000088c8H
  001fe	8d 45 d8	 lea	 eax, DWORD PTR ___encStr$549540[ebp]
  00201	88 5d e6	 mov	 BYTE PTR ___encStr$549540[ebp+14], bl
  00204	59		 pop	 ecx
$LL645@LoadBullet:
  00205	81 30 ed ec eb
	ea		 xor	 DWORD PTR [eax], -353637139 ; eaebecedH
  0020b	83 c0 04	 add	 eax, 4
  0020e	49		 dec	 ecx
  0020f	75 f4		 jne	 SHORT $LL645@LoadBullet
  00211	6a 0c		 push	 12			; 0000000cH
  00213	58		 pop	 eax
$LL642@LoadBullet:
  00214	8b c8		 mov	 ecx, eax
  00216	81 e1 03 00 00
	80		 and	 ecx, -2147483645	; 80000003H
  0021c	79 05		 jns	 SHORT $LN703@LoadBullet
  0021e	49		 dec	 ecx
  0021f	83 c9 fc	 or	 ecx, -4			; fffffffcH
  00222	41		 inc	 ecx
$LN703@LoadBullet:
  00223	b2 ed		 mov	 dl, -19			; ffffffedH
  00225	2a d1		 sub	 dl, cl
  00227	30 54 05 d8	 xor	 BYTE PTR ___encStr$549540[ebp+eax], dl
  0022b	40		 inc	 eax
  0022c	83 f8 0e	 cmp	 eax, 14			; 0000000eH
  0022f	7c e3		 jl	 SHORT $LL642@LoadBullet
  00231	8b 8d b4 fe ff
	ff		 mov	 ecx, DWORD PTR _szTitle$GSCopy$[ebp]
  00237	57		 push	 edi
  00238	ff b5 bc fe ff
	ff		 push	 DWORD PTR tv4703[ebp]
  0023e	ff 15 00 00 00
	00		 call	 DWORD PTR __imp_?c_str@ioHashString@@QBEPBDXZ
  00244	50		 push	 eax
  00245	8d 45 d8	 lea	 eax, DWORD PTR ___encStr$549540[ebp]
  00248	50		 push	 eax
  00249	8d 85 c0 fe ff
	ff		 lea	 eax, DWORD PTR _szKey$[ebp]
  0024f	50		 push	 eax
  00250	ff d6		 call	 esi

; 74   : 			kInfo.m_fPitchAngle = rkLoader.LoadFloat( szKey, 0.0f );

  00252	0f 57 c0	 xorps	 xmm0, xmm0
  00255	8b 8d b8 fe ff
	ff		 mov	 ecx, DWORD PTR _rkLoader$GSCopy$[ebp]
  0025b	83 c4 10	 add	 esp, 16			; 00000010H
  0025e	8d 85 c0 fe ff
	ff		 lea	 eax, DWORD PTR _szKey$[ebp]
  00264	f3 0f 11 04 24	 movss	 DWORD PTR [esp], xmm0
  00269	50		 push	 eax
  0026a	ff 15 00 00 00
	00		 call	 DWORD PTR __imp_?LoadFloat@ioINILoader@@QAEMPBDM@Z
  00270	d9 9d 88 fe ff
	ff		 fstp	 DWORD PTR _kInfo$549384[ebp+4]
  00276	6a 04		 push	 4

; 75   : 
; 76   : 			wsprintf_e( szKey, "%s%d_range_offset%d", szTitle.c_str(), i + 1, j + 1 );

  00278	c7 45 d4 c8 9f
	ce 8e		 mov	 DWORD PTR ___encStr$549692[ebp], -1899061304 ; 8ece9fc8H
  0027f	c7 45 d8 b2 9e
	8a 84		 mov	 DWORD PTR ___encStr$549692[ebp+4], -2071290190 ; 848a9eb2H
  00286	c7 45 dc 8a 89
	b4 85		 mov	 DWORD PTR ___encStr$549692[ebp+8], -2051765878 ; 85b4898aH
  0028d	c7 45 e0 8b 8a
	98 8f		 mov	 DWORD PTR ___encStr$549692[ebp+12], -1885828469 ; 8f988a8bH
  00294	8d 45 d4	 lea	 eax, DWORD PTR ___encStr$549692[ebp]
  00297	c7 45 e4 99 c9
	8f 00		 mov	 DWORD PTR ___encStr$549692[ebp+16], 9423257 ; 008fc999H
  0029e	59		 pop	 ecx
$LL653@LoadBullet:
  0029f	81 30 ed ec eb
	ea		 xor	 DWORD PTR [eax], -353637139 ; eaebecedH
  002a5	83 c0 04	 add	 eax, 4
  002a8	49		 dec	 ecx
  002a9	75 f4		 jne	 SHORT $LL653@LoadBullet
  002ab	6a 10		 push	 16			; 00000010H
  002ad	58		 pop	 eax
$LL650@LoadBullet:
  002ae	8b c8		 mov	 ecx, eax
  002b0	81 e1 03 00 00
	80		 and	 ecx, -2147483645	; 80000003H
  002b6	79 05		 jns	 SHORT $LN704@LoadBullet
  002b8	49		 dec	 ecx
  002b9	83 c9 fc	 or	 ecx, -4			; fffffffcH
  002bc	41		 inc	 ecx
$LN704@LoadBullet:
  002bd	b2 ed		 mov	 dl, -19			; ffffffedH
  002bf	2a d1		 sub	 dl, cl
  002c1	30 54 05 d4	 xor	 BYTE PTR ___encStr$549692[ebp+eax], dl
  002c5	40		 inc	 eax
  002c6	83 f8 13	 cmp	 eax, 19			; 00000013H
  002c9	7c e3		 jl	 SHORT $LL650@LoadBullet
  002cb	8b 8d b4 fe ff
	ff		 mov	 ecx, DWORD PTR _szTitle$GSCopy$[ebp]
  002d1	57		 push	 edi
  002d2	ff b5 bc fe ff
	ff		 push	 DWORD PTR tv4703[ebp]
  002d8	ff 15 00 00 00
	00		 call	 DWORD PTR __imp_?c_str@ioHashString@@QBEPBDXZ
  002de	50		 push	 eax
  002df	8d 45 d4	 lea	 eax, DWORD PTR ___encStr$549692[ebp]
  002e2	50		 push	 eax
  002e3	8d 85 c0 fe ff
	ff		 lea	 eax, DWORD PTR _szKey$[ebp]
  002e9	50		 push	 eax
  002ea	ff d6		 call	 esi

; 77   : 			kInfo.m_fRangeOffSet = rkLoader.LoadFloat( szKey, 0.0f );

  002ec	0f 57 c0	 xorps	 xmm0, xmm0
  002ef	8b 8d b8 fe ff
	ff		 mov	 ecx, DWORD PTR _rkLoader$GSCopy$[ebp]
  002f5	83 c4 10	 add	 esp, 16			; 00000010H
  002f8	8d 85 c0 fe ff
	ff		 lea	 eax, DWORD PTR _szKey$[ebp]
  002fe	f3 0f 11 04 24	 movss	 DWORD PTR [esp], xmm0
  00303	50		 push	 eax
  00304	ff 15 00 00 00
	00		 call	 DWORD PTR __imp_?LoadFloat@ioINILoader@@QAEMPBDM@Z
  0030a	d9 9d 90 fe ff
	ff		 fstp	 DWORD PTR _kInfo$549384[ebp+12]
  00310	6a 05		 push	 5

; 78   : 
; 79   : 			wsprintf_e( szKey, "%s%d_height_offset%d", szTitle.c_str(), i + 1, j + 1 );

  00312	c7 45 d4 c8 9f
	ce 8e		 mov	 DWORD PTR ___encStr$549844[ebp], -1899061304 ; 8ece9fc8H
  00319	c7 45 d8 b2 84
	8e 83		 mov	 DWORD PTR ___encStr$549844[ebp+4], -2087811918 ; 838e84b2H
  00320	c7 45 dc 8a 84
	9f b5		 mov	 DWORD PTR ___encStr$549844[ebp+8], -1247837046 ; b59f848aH
  00327	c7 45 e0 82 8a
	8d 99		 mov	 DWORD PTR ___encStr$549844[ebp+12], -1718777214 ; 998d8a82H
  0032e	c7 45 e4 88 98
	ce 8e		 mov	 DWORD PTR ___encStr$549844[ebp+16], -1899063160 ; 8ece9888H
  00335	8d 45 d4	 lea	 eax, DWORD PTR ___encStr$549844[ebp]
  00338	88 5d e8	 mov	 BYTE PTR ___encStr$549844[ebp+20], bl
  0033b	59		 pop	 ecx
$LL661@LoadBullet:
  0033c	81 30 ed ec eb
	ea		 xor	 DWORD PTR [eax], -353637139 ; eaebecedH
  00342	83 c0 04	 add	 eax, 4
  00345	49		 dec	 ecx
  00346	75 f4		 jne	 SHORT $LL661@LoadBullet
  00348	8b 8d b4 fe ff
	ff		 mov	 ecx, DWORD PTR _szTitle$GSCopy$[ebp]
  0034e	57		 push	 edi
  0034f	ff b5 bc fe ff
	ff		 push	 DWORD PTR tv4703[ebp]
  00355	ff 15 00 00 00
	00		 call	 DWORD PTR __imp_?c_str@ioHashString@@QBEPBDXZ
  0035b	50		 push	 eax
  0035c	8d 45 d4	 lea	 eax, DWORD PTR ___encStr$549844[ebp]
  0035f	50		 push	 eax
  00360	8d 85 c0 fe ff
	ff		 lea	 eax, DWORD PTR _szKey$[ebp]
  00366	50		 push	 eax
  00367	ff d6		 call	 esi

; 80   : 			kInfo.m_fHeightOffSet = rkLoader.LoadFloat( szKey, 0.0f );

  00369	0f 57 c0	 xorps	 xmm0, xmm0
  0036c	8b 8d b8 fe ff
	ff		 mov	 ecx, DWORD PTR _rkLoader$GSCopy$[ebp]
  00372	83 c4 10	 add	 esp, 16			; 00000010H
  00375	8d 85 c0 fe ff
	ff		 lea	 eax, DWORD PTR _szKey$[ebp]
  0037b	f3 0f 11 04 24	 movss	 DWORD PTR [esp], xmm0
  00380	50		 push	 eax
  00381	ff 15 00 00 00
	00		 call	 DWORD PTR __imp_?LoadFloat@ioINILoader@@QAEMPBDM@Z
  00387	d9 9d 94 fe ff
	ff		 fstp	 DWORD PTR _kInfo$549384[ebp+16]

; 81   : 
; 82   : 			kSet.m_BulletElmentList.push_back( kInfo );

  0038d	8d 85 84 fe ff
	ff		 lea	 eax, DWORD PTR _kInfo$549384[ebp]
  00393	50		 push	 eax
  00394	8d 8d 9c fe ff
	ff		 lea	 ecx, DWORD PTR _kSet$549227[ebp+4]
  0039a	e8 00 00 00 00	 call	 ?push_back@?$vector@UBulletInfo@@V?$allocator@UBulletInfo@@@std@@@std@@QAEXABUBulletInfo@@@Z ; std::vector<BulletInfo,std::allocator<BulletInfo> >::push_back
  0039f	47		 inc	 edi
  003a0	8d 47 ff	 lea	 eax, DWORD PTR [edi-1]
  003a3	3b 85 98 fe ff
	ff		 cmp	 eax, DWORD PTR _kSet$549227[ebp]
  003a9	0f 8c 92 fd ff
	ff		 jl	 $LL399@LoadBullet
$LN397@LoadBullet:

; 83   : 		}
; 84   : 
; 85   : 		rkList.push_back( kSet );

  003af	8b 8d ac fe ff
	ff		 mov	 ecx, DWORD PTR _rkList$GSCopy$[ebp]
  003b5	8d 85 98 fe ff
	ff		 lea	 eax, DWORD PTR _kSet$549227[ebp]
  003bb	50		 push	 eax
  003bc	e8 00 00 00 00	 call	 ?push_back@?$vector@UBulletSet@ioAliceObjectItem@@V?$allocator@UBulletSet@ioAliceObjectItem@@@std@@@std@@QAEXABUBulletSet@ioAliceObjectItem@@@Z ; std::vector<ioAliceObjectItem::BulletSet,std::allocator<ioAliceObjectItem::BulletSet> >::push_back

; 86   : 	}

  003c1	83 4d fc ff	 or	 DWORD PTR __$EHRec$[ebp+8], -1
  003c5	8d 8d 9c fe ff
	ff		 lea	 ecx, DWORD PTR _kSet$549227[ebp+4]
  003cb	e8 00 00 00 00	 call	 ?_Tidy@?$vector@UBulletInfo@@V?$allocator@UBulletInfo@@@std@@@std@@IAEXXZ ; std::vector<BulletInfo,std::allocator<BulletInfo> >::_Tidy
  003d0	ff 85 bc fe ff
	ff		 inc	 DWORD PTR tv4703[ebp]
  003d6	ff 8d b0 fe ff
	ff		 dec	 DWORD PTR tv953[ebp]
  003dc	0f 85 d9 fc ff
	ff		 jne	 $LN501@LoadBullet
$LN499@LoadBullet:

; 87   : }

  003e2	e8 00 00 00 00	 call	 __EH_epilog3_GS
  003e7	c2 0c 00	 ret	 12			; 0000000cH
_TEXT	ENDS
;	COMDAT text$x
text$x	SEGMENT
__unwindfunclet$?LoadBulletProperty@ioAliceObjectItem@@QAEXAAVioINILoader@@ABVioHashString@@AAV?$vector@UBulletSet@ioAliceObjectItem@@V?$allocator@UBulletSet@ioAliceObjectItem@@@std@@@std@@@Z$0:
  00000	8d 8d 98 fe ff
	ff		 lea	 ecx, DWORD PTR _kSet$549227[ebp]
  00006	e9 00 00 00 00	 jmp	 ??1BulletSet@ioAliceObjectItem@@QAE@XZ
__ehhandler$?LoadBulletProperty@ioAliceObjectItem@@QAEXAAVioINILoader@@ABVioHashString@@AAV?$vector@UBulletSet@ioAliceObjectItem@@V?$allocator@UBulletSet@ioAliceObjectItem@@@std@@@std@@@Z:
  0000b	8b 54 24 08	 mov	 edx, DWORD PTR [esp+8]
  0000f	8d 42 0c	 lea	 eax, DWORD PTR [edx+12]
  00012	8b 8a 80 fe ff
	ff		 mov	 ecx, DWORD PTR [edx-384]
  00018	33 c8		 xor	 ecx, eax
  0001a	e8 00 00 00 00	 call	 @__security_check_cookie@4
  0001f	8b 4a fc	 mov	 ecx, DWORD PTR [edx-4]
  00022	33 c8		 xor	 ecx, eax
  00024	e8 00 00 00 00	 call	 @__security_check_cookie@4
  00029	b8 00 00 00 00	 mov	 eax, OFFSET __ehfuncinfo$?LoadBulletProperty@ioAliceObjectItem@@QAEXAAVioINILoader@@ABVioHashString@@AAV?$vector@UBulletSet@ioAliceObjectItem@@V?$allocator@UBulletSet@ioAliceObjectItem@@@std@@@std@@@Z
  0002e	e9 00 00 00 00	 jmp	 ___CxxFrameHandler3
text$x	ENDS
?LoadBulletProperty@ioAliceObjectItem@@QAEXAAVioINILoader@@ABVioHashString@@AAV?$vector@UBulletSet@ioAliceObjectItem@@V?$allocator@UBulletSet@ioAliceObjectItem@@@std@@@std@@@Z ENDP ; ioAliceObjectItem::LoadBulletProperty
PUBLIC	??_C@_0BB@FNJMNAMM@dash_jump_bullet?$AA@	; `string'
PUBLIC	??_C@_0M@PODNEIEH@jump_bullet?$AA@		; `string'
PUBLIC	??_C@_0M@CHFMHNCC@dash_bullet?$AA@		; `string'
PUBLIC	??_C@_0O@HEHPMNEK@normal_bullet?$AA@		; `string'
EXTRN	__imp_??1ioHashString@@QAE@XZ:PROC
EXTRN	__imp_??0ioHashString@@QAE@PBD@Z:PROC
EXTRN	?LoadProperty@ioObjectItem@@UAEXAAVioINILoader@@@Z:PROC ; ioObjectItem::LoadProperty
;	COMDAT ??_C@_0BB@FNJMNAMM@dash_jump_bullet?$AA@
CONST	SEGMENT
??_C@_0BB@FNJMNAMM@dash_jump_bullet?$AA@ DB 'dash_jump_bullet', 00H ; `string'
CONST	ENDS
;	COMDAT ??_C@_0M@PODNEIEH@jump_bullet?$AA@
CONST	SEGMENT
??_C@_0M@PODNEIEH@jump_bullet?$AA@ DB 'jump_bullet', 00H ; `string'
CONST	ENDS
;	COMDAT ??_C@_0M@CHFMHNCC@dash_bullet?$AA@
CONST	SEGMENT
??_C@_0M@CHFMHNCC@dash_bullet?$AA@ DB 'dash_bullet', 00H ; `string'
CONST	ENDS
;	COMDAT ??_C@_0O@HEHPMNEK@normal_bullet?$AA@
CONST	SEGMENT
??_C@_0O@HEHPMNEK@normal_bullet?$AA@ DB 'normal_bullet', 00H ; `string'
CONST	ENDS
;	COMDAT xdata$x
xdata$x	SEGMENT
__unwindtable$?LoadProperty@ioAliceObjectItem@@UAEXAAVioINILoader@@@Z DD 0ffffffffH
	DD	FLAT:__unwindfunclet$?LoadProperty@ioAliceObjectItem@@UAEXAAVioINILoader@@@Z$0
	DD	0ffffffffH
	DD	FLAT:__unwindfunclet$?LoadProperty@ioAliceObjectItem@@UAEXAAVioINILoader@@@Z$1
	DD	0ffffffffH
	DD	FLAT:__unwindfunclet$?LoadProperty@ioAliceObjectItem@@UAEXAAVioINILoader@@@Z$2
	DD	0ffffffffH
	DD	FLAT:__unwindfunclet$?LoadProperty@ioAliceObjectItem@@UAEXAAVioINILoader@@@Z$3
__ehfuncinfo$?LoadProperty@ioAliceObjectItem@@UAEXAAVioINILoader@@@Z DD 019930522H
	DD	04H
	DD	FLAT:__unwindtable$?LoadProperty@ioAliceObjectItem@@UAEXAAVioINILoader@@@Z
	DD	2 DUP(00H)
	DD	2 DUP(00H)
	DD	00H
	DD	01H
; Function compile flags: /Ogsp
xdata$x	ENDS
;	COMDAT ?LoadProperty@ioAliceObjectItem@@UAEXAAVioINILoader@@@Z
_TEXT	SEGMENT
$T555942 = -44						; size = 16
$T555941 = -28						; size = 16
$T555940 = -28						; size = 16
$T555939 = -28						; size = 16
__$EHRec$ = -12						; size = 12
_rkLoader$ = 8						; size = 4
?LoadProperty@ioAliceObjectItem@@UAEXAAVioINILoader@@@Z PROC ; ioAliceObjectItem::LoadProperty, COMDAT
; _this$ = ecx

; 40   : {

  00000	6a 20		 push	 32			; 00000020H
  00002	b8 00 00 00 00	 mov	 eax, __ehhandler$?LoadProperty@ioAliceObjectItem@@UAEXAAVioINILoader@@@Z
  00007	e8 00 00 00 00	 call	 __EH_prolog3
  0000c	8b f1		 mov	 esi, ecx

; 41   : 	ioObjectItem::LoadProperty( rkLoader );

  0000e	ff 75 08	 push	 DWORD PTR _rkLoader$[ebp]
  00011	e8 00 00 00 00	 call	 ?LoadProperty@ioObjectItem@@UAEXAAVioINILoader@@@Z ; ioObjectItem::LoadProperty

; 42   : 
; 43   : 	LoadBulletProperty( rkLoader, "normal_bullet", m_NormalBulletSetList );

  00016	8b 3d 00 00 00
	00		 mov	 edi, DWORD PTR __imp_??0ioHashString@@QAE@PBD@Z
  0001c	68 00 00 00 00	 push	 OFFSET ??_C@_0O@HEHPMNEK@normal_bullet?$AA@
  00021	8d 4d e4	 lea	 ecx, DWORD PTR $T555939[ebp]
  00024	ff d7		 call	 edi
  00026	83 65 fc 00	 and	 DWORD PTR __$EHRec$[ebp+8], 0
  0002a	8d 86 34 1b 00
	00		 lea	 eax, DWORD PTR [esi+6964]
  00030	50		 push	 eax
  00031	8d 45 e4	 lea	 eax, DWORD PTR $T555939[ebp]
  00034	50		 push	 eax
  00035	ff 75 08	 push	 DWORD PTR _rkLoader$[ebp]
  00038	8b ce		 mov	 ecx, esi
  0003a	e8 00 00 00 00	 call	 ?LoadBulletProperty@ioAliceObjectItem@@QAEXAAVioINILoader@@ABVioHashString@@AAV?$vector@UBulletSet@ioAliceObjectItem@@V?$allocator@UBulletSet@ioAliceObjectItem@@@std@@@std@@@Z ; ioAliceObjectItem::LoadBulletProperty
  0003f	8b 1d 00 00 00
	00		 mov	 ebx, DWORD PTR __imp_??1ioHashString@@QAE@XZ
  00045	83 4d fc ff	 or	 DWORD PTR __$EHRec$[ebp+8], -1
  00049	8d 4d e4	 lea	 ecx, DWORD PTR $T555939[ebp]
  0004c	ff d3		 call	 ebx

; 44   : 	LoadBulletProperty( rkLoader, "dash_bullet", m_DashBulletSetList );

  0004e	68 00 00 00 00	 push	 OFFSET ??_C@_0M@CHFMHNCC@dash_bullet?$AA@
  00053	8d 4d e4	 lea	 ecx, DWORD PTR $T555940[ebp]
  00056	ff d7		 call	 edi
  00058	8d 86 44 1b 00
	00		 lea	 eax, DWORD PTR [esi+6980]
  0005e	50		 push	 eax
  0005f	8d 45 e4	 lea	 eax, DWORD PTR $T555940[ebp]
  00062	50		 push	 eax
  00063	ff 75 08	 push	 DWORD PTR _rkLoader$[ebp]
  00066	8b ce		 mov	 ecx, esi
  00068	c7 45 fc 01 00
	00 00		 mov	 DWORD PTR __$EHRec$[ebp+8], 1
  0006f	e8 00 00 00 00	 call	 ?LoadBulletProperty@ioAliceObjectItem@@QAEXAAVioINILoader@@ABVioHashString@@AAV?$vector@UBulletSet@ioAliceObjectItem@@V?$allocator@UBulletSet@ioAliceObjectItem@@@std@@@std@@@Z ; ioAliceObjectItem::LoadBulletProperty
  00074	83 4d fc ff	 or	 DWORD PTR __$EHRec$[ebp+8], -1
  00078	8d 4d e4	 lea	 ecx, DWORD PTR $T555940[ebp]
  0007b	ff d3		 call	 ebx

; 45   : 	LoadBulletProperty( rkLoader, "jump_bullet", m_JumpBulletSetList );

  0007d	68 00 00 00 00	 push	 OFFSET ??_C@_0M@PODNEIEH@jump_bullet?$AA@
  00082	8d 4d e4	 lea	 ecx, DWORD PTR $T555941[ebp]
  00085	ff d7		 call	 edi
  00087	8d 86 54 1b 00
	00		 lea	 eax, DWORD PTR [esi+6996]
  0008d	50		 push	 eax
  0008e	8d 45 e4	 lea	 eax, DWORD PTR $T555941[ebp]
  00091	50		 push	 eax
  00092	ff 75 08	 push	 DWORD PTR _rkLoader$[ebp]
  00095	8b ce		 mov	 ecx, esi
  00097	c7 45 fc 02 00
	00 00		 mov	 DWORD PTR __$EHRec$[ebp+8], 2
  0009e	e8 00 00 00 00	 call	 ?LoadBulletProperty@ioAliceObjectItem@@QAEXAAVioINILoader@@ABVioHashString@@AAV?$vector@UBulletSet@ioAliceObjectItem@@V?$allocator@UBulletSet@ioAliceObjectItem@@@std@@@std@@@Z ; ioAliceObjectItem::LoadBulletProperty
  000a3	83 4d fc ff	 or	 DWORD PTR __$EHRec$[ebp+8], -1
  000a7	8d 4d e4	 lea	 ecx, DWORD PTR $T555941[ebp]
  000aa	ff d3		 call	 ebx

; 46   : 	LoadBulletProperty( rkLoader, "dash_jump_bullet", m_DashJumpBulletSetList );

  000ac	68 00 00 00 00	 push	 OFFSET ??_C@_0BB@FNJMNAMM@dash_jump_bullet?$AA@
  000b1	8d 4d d4	 lea	 ecx, DWORD PTR $T555942[ebp]
  000b4	ff d7		 call	 edi
  000b6	8d 86 64 1b 00
	00		 lea	 eax, DWORD PTR [esi+7012]
  000bc	50		 push	 eax
  000bd	8d 45 d4	 lea	 eax, DWORD PTR $T555942[ebp]
  000c0	50		 push	 eax
  000c1	ff 75 08	 push	 DWORD PTR _rkLoader$[ebp]
  000c4	8b ce		 mov	 ecx, esi
  000c6	c7 45 fc 03 00
	00 00		 mov	 DWORD PTR __$EHRec$[ebp+8], 3
  000cd	e8 00 00 00 00	 call	 ?LoadBulletProperty@ioAliceObjectItem@@QAEXAAVioINILoader@@ABVioHashString@@AAV?$vector@UBulletSet@ioAliceObjectItem@@V?$allocator@UBulletSet@ioAliceObjectItem@@@std@@@std@@@Z ; ioAliceObjectItem::LoadBulletProperty
  000d2	83 4d fc ff	 or	 DWORD PTR __$EHRec$[ebp+8], -1
  000d6	8d 4d d4	 lea	 ecx, DWORD PTR $T555942[ebp]
  000d9	ff d3		 call	 ebx

; 47   : }

  000db	e8 00 00 00 00	 call	 __EH_epilog3
  000e0	c2 04 00	 ret	 4
_TEXT	ENDS
;	COMDAT text$x
text$x	SEGMENT
__unwindfunclet$?LoadProperty@ioAliceObjectItem@@UAEXAAVioINILoader@@@Z$0:
  00000	8d 4d e4	 lea	 ecx, DWORD PTR $T555939[ebp]
  00003	ff 25 00 00 00
	00		 jmp	 DWORD PTR __imp_??1ioHashString@@QAE@XZ
__unwindfunclet$?LoadProperty@ioAliceObjectItem@@UAEXAAVioINILoader@@@Z$1:
  00009	8d 4d e4	 lea	 ecx, DWORD PTR $T555940[ebp]
  0000c	ff 25 00 00 00
	00		 jmp	 DWORD PTR __imp_??1ioHashString@@QAE@XZ
__unwindfunclet$?LoadProperty@ioAliceObjectItem@@UAEXAAVioINILoader@@@Z$2:
  00012	8d 4d e4	 lea	 ecx, DWORD PTR $T555941[ebp]
  00015	ff 25 00 00 00
	00		 jmp	 DWORD PTR __imp_??1ioHashString@@QAE@XZ
__unwindfunclet$?LoadProperty@ioAliceObjectItem@@UAEXAAVioINILoader@@@Z$3:
  0001b	8d 4d d4	 lea	 ecx, DWORD PTR $T555942[ebp]
  0001e	ff 25 00 00 00
	00		 jmp	 DWORD PTR __imp_??1ioHashString@@QAE@XZ
__ehhandler$?LoadProperty@ioAliceObjectItem@@UAEXAAVioINILoader@@@Z:
  00024	8b 54 24 08	 mov	 edx, DWORD PTR [esp+8]
  00028	8d 42 0c	 lea	 eax, DWORD PTR [edx+12]
  0002b	8b 4a d0	 mov	 ecx, DWORD PTR [edx-48]
  0002e	33 c8		 xor	 ecx, eax
  00030	e8 00 00 00 00	 call	 @__security_check_cookie@4
  00035	b8 00 00 00 00	 mov	 eax, OFFSET __ehfuncinfo$?LoadProperty@ioAliceObjectItem@@UAEXAAVioINILoader@@@Z
  0003a	e9 00 00 00 00	 jmp	 ___CxxFrameHandler3
text$x	ENDS
?LoadProperty@ioAliceObjectItem@@UAEXAAVioINILoader@@@Z ENDP ; ioAliceObjectItem::LoadProperty
END
