; Listing generated by Microsoft (R) Optimizing Compiler Version 16.00.30319.01 

	TITLE	D:\Lost Saga For Developer\Youtube\Tutorial\Source\src\LSClient\ioAlchemicInventory.cpp
	.686P
	.XMM
	include listing.inc
	.model	flat

INCLUDELIB MSVCRT
INCLUDELIB OLDNAMES

PUBLIC	??_7bad_alloc@std@@6B@				; std::bad_alloc::`vftable'
PUBLIC	??0bad_alloc@std@@QAE@PBD@Z			; std::bad_alloc::bad_alloc
PUBLIC	??_R4bad_alloc@std@@6B@				; std::bad_alloc::`RTTI Complete Object Locator'
PUBLIC	??_R0?AVbad_alloc@std@@@8			; std::bad_alloc `RTTI Type Descriptor'
PUBLIC	??_R3bad_alloc@std@@8				; std::bad_alloc::`RTTI Class Hierarchy Descriptor'
PUBLIC	??_R2bad_alloc@std@@8				; std::bad_alloc::`RTTI Base Class Array'
PUBLIC	??_R1A@?0A@EA@bad_alloc@std@@8			; std::bad_alloc::`RTTI Base Class Descriptor at (0,-1,0,64)'
PUBLIC	??_R1A@?0A@EA@exception@std@@8			; std::exception::`RTTI Base Class Descriptor at (0,-1,0,64)'
PUBLIC	??_R0?AVexception@std@@@8			; std::exception `RTTI Type Descriptor'
PUBLIC	??_R3exception@std@@8				; std::exception::`RTTI Class Hierarchy Descriptor'
PUBLIC	??_R2exception@std@@8				; std::exception::`RTTI Base Class Array'
EXTRN	__imp_??0exception@std@@QAE@ABQBD@Z:PROC
EXTRN	??_7type_info@@6B@:QWORD			; type_info::`vftable'
EXTRN	??_Ebad_alloc@std@@UAEPAXI@Z:PROC		; std::bad_alloc::`vector deleting destructor'
EXTRN	?what@exception@std@@UBEPBDXZ:PROC		; std::exception::what
;	COMDAT ??_R2exception@std@@8
; File c:\program files (x86)\microsoft visual studio 10.0\vc\include\exception
rdata$r	SEGMENT
??_R2exception@std@@8 DD FLAT:??_R1A@?0A@EA@exception@std@@8 ; std::exception::`RTTI Base Class Array'
rdata$r	ENDS
;	COMDAT ??_R3exception@std@@8
rdata$r	SEGMENT
??_R3exception@std@@8 DD 00H				; std::exception::`RTTI Class Hierarchy Descriptor'
	DD	00H
	DD	01H
	DD	FLAT:??_R2exception@std@@8
rdata$r	ENDS
;	COMDAT ??_R0?AVexception@std@@@8
_DATA	SEGMENT
??_R0?AVexception@std@@@8 DD FLAT:??_7type_info@@6B@	; std::exception `RTTI Type Descriptor'
	DD	00H
	DB	'.?AVexception@std@@', 00H
_DATA	ENDS
;	COMDAT ??_R1A@?0A@EA@exception@std@@8
rdata$r	SEGMENT
??_R1A@?0A@EA@exception@std@@8 DD FLAT:??_R0?AVexception@std@@@8 ; std::exception::`RTTI Base Class Descriptor at (0,-1,0,64)'
	DD	00H
	DD	00H
	DD	0ffffffffH
	DD	00H
	DD	040H
	DD	FLAT:??_R3exception@std@@8
rdata$r	ENDS
;	COMDAT ??_R1A@?0A@EA@bad_alloc@std@@8
rdata$r	SEGMENT
??_R1A@?0A@EA@bad_alloc@std@@8 DD FLAT:??_R0?AVbad_alloc@std@@@8 ; std::bad_alloc::`RTTI Base Class Descriptor at (0,-1,0,64)'
	DD	01H
	DD	00H
	DD	0ffffffffH
	DD	00H
	DD	040H
	DD	FLAT:??_R3bad_alloc@std@@8
rdata$r	ENDS
;	COMDAT ??_R2bad_alloc@std@@8
rdata$r	SEGMENT
??_R2bad_alloc@std@@8 DD FLAT:??_R1A@?0A@EA@bad_alloc@std@@8 ; std::bad_alloc::`RTTI Base Class Array'
	DD	FLAT:??_R1A@?0A@EA@exception@std@@8
rdata$r	ENDS
;	COMDAT ??_R3bad_alloc@std@@8
rdata$r	SEGMENT
??_R3bad_alloc@std@@8 DD 00H				; std::bad_alloc::`RTTI Class Hierarchy Descriptor'
	DD	00H
	DD	02H
	DD	FLAT:??_R2bad_alloc@std@@8
rdata$r	ENDS
;	COMDAT ??_R0?AVbad_alloc@std@@@8
_DATA	SEGMENT
??_R0?AVbad_alloc@std@@@8 DD FLAT:??_7type_info@@6B@	; std::bad_alloc `RTTI Type Descriptor'
	DD	00H
	DB	'.?AVbad_alloc@std@@', 00H
_DATA	ENDS
;	COMDAT ??_R4bad_alloc@std@@6B@
rdata$r	SEGMENT
??_R4bad_alloc@std@@6B@ DD 00H				; std::bad_alloc::`RTTI Complete Object Locator'
	DD	00H
	DD	00H
	DD	FLAT:??_R0?AVbad_alloc@std@@@8
	DD	FLAT:??_R3bad_alloc@std@@8
rdata$r	ENDS
;	COMDAT ??_7bad_alloc@std@@6B@
CONST	SEGMENT
??_7bad_alloc@std@@6B@ DD FLAT:??_R4bad_alloc@std@@6B@	; std::bad_alloc::`vftable'
	DD	FLAT:??_Ebad_alloc@std@@UAEPAXI@Z
	DD	FLAT:?what@exception@std@@UBEPBDXZ
; Function compile flags: /Ogsp
CONST	ENDS
;	COMDAT ??0bad_alloc@std@@QAE@PBD@Z
_TEXT	SEGMENT
__Message$ = 8						; size = 4
??0bad_alloc@std@@QAE@PBD@Z PROC			; std::bad_alloc::bad_alloc, COMDAT
; _this$ = ecx

; 345  : 		{	// construct from message string

  00000	55		 push	 ebp
  00001	8b ec		 mov	 ebp, esp
  00003	56		 push	 esi
  00004	8d 45 08	 lea	 eax, DWORD PTR __Message$[ebp]
  00007	50		 push	 eax
  00008	8b f1		 mov	 esi, ecx
  0000a	ff 15 00 00 00
	00		 call	 DWORD PTR __imp_??0exception@std@@QAE@ABQBD@Z
  00010	c7 06 00 00 00
	00		 mov	 DWORD PTR [esi], OFFSET ??_7bad_alloc@std@@6B@

; 346  : 		}

  00016	8b c6		 mov	 eax, esi
  00018	5e		 pop	 esi
  00019	5d		 pop	 ebp
  0001a	c2 04 00	 ret	 4
??0bad_alloc@std@@QAE@PBD@Z ENDP			; std::bad_alloc::bad_alloc
_TEXT	ENDS
PUBLIC	??1bad_alloc@std@@UAE@XZ			; std::bad_alloc::~bad_alloc
EXTRN	__imp_??1exception@std@@UAE@XZ:PROC
; Function compile flags: /Ogsp
;	COMDAT ??1bad_alloc@std@@UAE@XZ
_TEXT	SEGMENT
??1bad_alloc@std@@UAE@XZ PROC				; std::bad_alloc::~bad_alloc, COMDAT
; _this$ = ecx

; 354  : 		{	// destroy the object

  00000	c7 01 00 00 00
	00		 mov	 DWORD PTR [ecx], OFFSET ??_7bad_alloc@std@@6B@

; 355  : 		}

  00006	ff 25 00 00 00
	00		 jmp	 DWORD PTR __imp_??1exception@std@@UAE@XZ
??1bad_alloc@std@@UAE@XZ ENDP				; std::bad_alloc::~bad_alloc
_TEXT	ENDS
EXTRN	??3@YAXPAX@Z:PROC				; operator delete
; Function compile flags: /Ogsp
;	COMDAT ??_Gbad_alloc@std@@UAEPAXI@Z
_TEXT	SEGMENT
___flags$ = 8						; size = 4
??_Gbad_alloc@std@@UAEPAXI@Z PROC			; std::bad_alloc::`scalar deleting destructor', COMDAT
; _this$ = ecx
  00000	55		 push	 ebp
  00001	8b ec		 mov	 ebp, esp
  00003	56		 push	 esi
  00004	8b f1		 mov	 esi, ecx
  00006	c7 06 00 00 00
	00		 mov	 DWORD PTR [esi], OFFSET ??_7bad_alloc@std@@6B@
  0000c	ff 15 00 00 00
	00		 call	 DWORD PTR __imp_??1exception@std@@UAE@XZ
  00012	f6 45 08 01	 test	 BYTE PTR ___flags$[ebp], 1
  00016	74 07		 je	 SHORT $LN1@scalar
  00018	56		 push	 esi
  00019	e8 00 00 00 00	 call	 ??3@YAXPAX@Z		; operator delete
  0001e	59		 pop	 ecx
$LN1@scalar:
  0001f	8b c6		 mov	 eax, esi
  00021	5e		 pop	 esi
  00022	5d		 pop	 ebp
  00023	c2 04 00	 ret	 4
??_Gbad_alloc@std@@UAEPAXI@Z ENDP			; std::bad_alloc::`scalar deleting destructor'
_TEXT	ENDS
PUBLIC	??2@YAPAXIPAX@Z					; operator new
; Function compile flags: /Ogsp
; File c:\program files (x86)\microsoft visual studio 10.0\vc\include\new
;	COMDAT ??2@YAPAXIPAX@Z
_TEXT	SEGMENT
___formal$ = 8						; size = 4
__Where$ = 12						; size = 4
??2@YAPAXIPAX@Z PROC					; operator new, COMDAT

; 56   : 	{	// construct array with placement at _Where

  00000	55		 push	 ebp
  00001	8b ec		 mov	 ebp, esp

; 57   : 	return (_Where);

  00003	8b 45 0c	 mov	 eax, DWORD PTR __Where$[ebp]

; 58   : 	}

  00006	5d		 pop	 ebp
  00007	c3		 ret	 0
??2@YAPAXIPAX@Z ENDP					; operator new
_TEXT	ENDS
PUBLIC	??3@YAXPAX0@Z					; operator delete
; Function compile flags: /Ogsp
;	COMDAT ??3@YAXPAX0@Z
_TEXT	SEGMENT
___formal$ = 8						; size = 4
___formal$ = 12						; size = 4
??3@YAXPAX0@Z PROC					; operator delete, COMDAT

; 62   : 	}

  00000	c3		 ret	 0
??3@YAXPAX0@Z ENDP					; operator delete
_TEXT	ENDS
PUBLIC	??1tagAlchemicItemInfo@@QAE@XZ			; tagAlchemicItemInfo::~tagAlchemicItemInfo
EXTRN	__imp_??1ioHashString@@QAE@XZ:PROC
; Function compile flags: /Ogsp
;	COMDAT ??1tagAlchemicItemInfo@@QAE@XZ
_TEXT	SEGMENT
??1tagAlchemicItemInfo@@QAE@XZ PROC			; tagAlchemicItemInfo::~tagAlchemicItemInfo, COMDAT
; _this$ = ecx
  00000	83 c1 08	 add	 ecx, 8
  00003	ff 25 00 00 00
	00		 jmp	 DWORD PTR __imp_??1ioHashString@@QAE@XZ
??1tagAlchemicItemInfo@@QAE@XZ ENDP			; tagAlchemicItemInfo::~tagAlchemicItemInfo
_TEXT	ENDS
PUBLIC	?empty@?$vector@UtagAlchemicItemInfo@@V?$allocator@UtagAlchemicItemInfo@@@std@@@std@@QBE_NXZ ; std::vector<tagAlchemicItemInfo,std::allocator<tagAlchemicItemInfo> >::empty
; Function compile flags: /Ogsp
; File c:\program files (x86)\microsoft visual studio 10.0\vc\include\vector
;	COMDAT ?empty@?$vector@UtagAlchemicItemInfo@@V?$allocator@UtagAlchemicItemInfo@@@std@@@std@@QBE_NXZ
_TEXT	SEGMENT
?empty@?$vector@UtagAlchemicItemInfo@@V?$allocator@UtagAlchemicItemInfo@@@std@@@std@@QBE_NXZ PROC ; std::vector<tagAlchemicItemInfo,std::allocator<tagAlchemicItemInfo> >::empty, COMDAT
; _this$ = ecx

; 889  : 		return (this->_Myfirst == this->_Mylast);

  00000	8b 01		 mov	 eax, DWORD PTR [ecx]
  00002	2b 41 04	 sub	 eax, DWORD PTR [ecx+4]
  00005	f7 d8		 neg	 eax
  00007	1b c0		 sbb	 eax, eax
  00009	40		 inc	 eax

; 890  : 		}

  0000a	c3		 ret	 0
?empty@?$vector@UtagAlchemicItemInfo@@V?$allocator@UtagAlchemicItemInfo@@@std@@@std@@QBE_NXZ ENDP ; std::vector<tagAlchemicItemInfo,std::allocator<tagAlchemicItemInfo> >::empty
_TEXT	ENDS
PUBLIC	?empty@?$vector@UAlchemicItem@ioAlchemicInventory@@V?$allocator@UAlchemicItem@ioAlchemicInventory@@@std@@@std@@QBE_NXZ ; std::vector<ioAlchemicInventory::AlchemicItem,std::allocator<ioAlchemicInventory::AlchemicItem> >::empty
; Function compile flags: /Ogsp
;	COMDAT ?empty@?$vector@UAlchemicItem@ioAlchemicInventory@@V?$allocator@UAlchemicItem@ioAlchemicInventory@@@std@@@std@@QBE_NXZ
_TEXT	SEGMENT
?empty@?$vector@UAlchemicItem@ioAlchemicInventory@@V?$allocator@UAlchemicItem@ioAlchemicInventory@@@std@@@std@@QBE_NXZ PROC ; std::vector<ioAlchemicInventory::AlchemicItem,std::allocator<ioAlchemicInventory::AlchemicItem> >::empty, COMDAT
; _this$ = ecx

; 889  : 		return (this->_Myfirst == this->_Mylast);

  00000	8b 01		 mov	 eax, DWORD PTR [ecx]
  00002	2b 41 04	 sub	 eax, DWORD PTR [ecx+4]
  00005	f7 d8		 neg	 eax
  00007	1b c0		 sbb	 eax, eax
  00009	40		 inc	 eax

; 890  : 		}

  0000a	c3		 ret	 0
?empty@?$vector@UAlchemicItem@ioAlchemicInventory@@V?$allocator@UAlchemicItem@ioAlchemicInventory@@@std@@@std@@QBE_NXZ ENDP ; std::vector<ioAlchemicInventory::AlchemicItem,std::allocator<ioAlchemicInventory::AlchemicItem> >::empty
_TEXT	ENDS
PUBLIC	?_Adopt@_Iterator_base0@std@@QAEXPBX@Z		; std::_Iterator_base0::_Adopt
; Function compile flags: /Ogsp
; File c:\program files (x86)\microsoft visual studio 10.0\vc\include\xutility
;	COMDAT ?_Adopt@_Iterator_base0@std@@QAEXPBX@Z
_TEXT	SEGMENT
___formal$ = 8						; size = 4
?_Adopt@_Iterator_base0@std@@QAEXPBX@Z PROC		; std::_Iterator_base0::_Adopt, COMDAT
; _this$ = ecx

; 49   : 		}

  00000	c2 04 00	 ret	 4
?_Adopt@_Iterator_base0@std@@QAEXPBX@Z ENDP		; std::_Iterator_base0::_Adopt
_TEXT	ENDS
PUBLIC	?_Inside@?$vector@UtagAlchemicItemInfo@@V?$allocator@UtagAlchemicItemInfo@@@std@@@std@@IBE_NPBUtagAlchemicItemInfo@@@Z ; std::vector<tagAlchemicItemInfo,std::allocator<tagAlchemicItemInfo> >::_Inside
; Function compile flags: /Ogsp
; File c:\program files (x86)\microsoft visual studio 10.0\vc\include\vector
;	COMDAT ?_Inside@?$vector@UtagAlchemicItemInfo@@V?$allocator@UtagAlchemicItemInfo@@@std@@@std@@IBE_NPBUtagAlchemicItemInfo@@@Z
_TEXT	SEGMENT
__Ptr$ = 8						; size = 4
?_Inside@?$vector@UtagAlchemicItemInfo@@V?$allocator@UtagAlchemicItemInfo@@@std@@@std@@IBE_NPBUtagAlchemicItemInfo@@@Z PROC ; std::vector<tagAlchemicItemInfo,std::allocator<tagAlchemicItemInfo> >::_Inside, COMDAT
; _this$ = ecx

; 1285 : 		{	// test if _Ptr points inside vector

  00000	55		 push	 ebp
  00001	8b ec		 mov	 ebp, esp

; 1286 : 		return (_Ptr < this->_Mylast && this->_Myfirst <= _Ptr);

  00003	8b 45 08	 mov	 eax, DWORD PTR __Ptr$[ebp]
  00006	3b 41 04	 cmp	 eax, DWORD PTR [ecx+4]
  00009	73 09		 jae	 SHORT $LN3@Inside
  0000b	39 01		 cmp	 DWORD PTR [ecx], eax
  0000d	77 05		 ja	 SHORT $LN3@Inside
  0000f	33 c0		 xor	 eax, eax
  00011	40		 inc	 eax
  00012	eb 02		 jmp	 SHORT $LN4@Inside
$LN3@Inside:
  00014	33 c0		 xor	 eax, eax
$LN4@Inside:

; 1287 : 		}

  00016	5d		 pop	 ebp
  00017	c2 04 00	 ret	 4
?_Inside@?$vector@UtagAlchemicItemInfo@@V?$allocator@UtagAlchemicItemInfo@@@std@@@std@@IBE_NPBUtagAlchemicItemInfo@@@Z ENDP ; std::vector<tagAlchemicItemInfo,std::allocator<tagAlchemicItemInfo> >::_Inside
_TEXT	ENDS
PUBLIC	?_Orphan_range@?$vector@UtagAlchemicItemInfo@@V?$allocator@UtagAlchemicItemInfo@@@std@@@std@@IBEXPAUtagAlchemicItemInfo@@0@Z ; std::vector<tagAlchemicItemInfo,std::allocator<tagAlchemicItemInfo> >::_Orphan_range
; Function compile flags: /Ogsp
;	COMDAT ?_Orphan_range@?$vector@UtagAlchemicItemInfo@@V?$allocator@UtagAlchemicItemInfo@@@std@@@std@@IBEXPAUtagAlchemicItemInfo@@0@Z
_TEXT	SEGMENT
___formal$ = 8						; size = 4
___formal$ = 12						; size = 4
?_Orphan_range@?$vector@UtagAlchemicItemInfo@@V?$allocator@UtagAlchemicItemInfo@@@std@@@std@@IBEXPAUtagAlchemicItemInfo@@0@Z PROC ; std::vector<tagAlchemicItemInfo,std::allocator<tagAlchemicItemInfo> >::_Orphan_range, COMDAT
; _this$ = ecx

; 1454 : 		}

  00000	c2 08 00	 ret	 8
?_Orphan_range@?$vector@UtagAlchemicItemInfo@@V?$allocator@UtagAlchemicItemInfo@@@std@@@std@@IBEXPAUtagAlchemicItemInfo@@0@Z ENDP ; std::vector<tagAlchemicItemInfo,std::allocator<tagAlchemicItemInfo> >::_Orphan_range
_TEXT	ENDS
PUBLIC	?_Inside@?$vector@UAlchemicItem@ioAlchemicInventory@@V?$allocator@UAlchemicItem@ioAlchemicInventory@@@std@@@std@@IBE_NPBUAlchemicItem@ioAlchemicInventory@@@Z ; std::vector<ioAlchemicInventory::AlchemicItem,std::allocator<ioAlchemicInventory::AlchemicItem> >::_Inside
; Function compile flags: /Ogsp
;	COMDAT ?_Inside@?$vector@UAlchemicItem@ioAlchemicInventory@@V?$allocator@UAlchemicItem@ioAlchemicInventory@@@std@@@std@@IBE_NPBUAlchemicItem@ioAlchemicInventory@@@Z
_TEXT	SEGMENT
__Ptr$ = 8						; size = 4
?_Inside@?$vector@UAlchemicItem@ioAlchemicInventory@@V?$allocator@UAlchemicItem@ioAlchemicInventory@@@std@@@std@@IBE_NPBUAlchemicItem@ioAlchemicInventory@@@Z PROC ; std::vector<ioAlchemicInventory::AlchemicItem,std::allocator<ioAlchemicInventory::AlchemicItem> >::_Inside, COMDAT
; _this$ = ecx

; 1285 : 		{	// test if _Ptr points inside vector

  00000	55		 push	 ebp
  00001	8b ec		 mov	 ebp, esp

; 1286 : 		return (_Ptr < this->_Mylast && this->_Myfirst <= _Ptr);

  00003	8b 45 08	 mov	 eax, DWORD PTR __Ptr$[ebp]
  00006	3b 41 04	 cmp	 eax, DWORD PTR [ecx+4]
  00009	73 09		 jae	 SHORT $LN3@Inside@2
  0000b	39 01		 cmp	 DWORD PTR [ecx], eax
  0000d	77 05		 ja	 SHORT $LN3@Inside@2
  0000f	33 c0		 xor	 eax, eax
  00011	40		 inc	 eax
  00012	eb 02		 jmp	 SHORT $LN4@Inside@2
$LN3@Inside@2:
  00014	33 c0		 xor	 eax, eax
$LN4@Inside@2:

; 1287 : 		}

  00016	5d		 pop	 ebp
  00017	c2 04 00	 ret	 4
?_Inside@?$vector@UAlchemicItem@ioAlchemicInventory@@V?$allocator@UAlchemicItem@ioAlchemicInventory@@@std@@@std@@IBE_NPBUAlchemicItem@ioAlchemicInventory@@@Z ENDP ; std::vector<ioAlchemicInventory::AlchemicItem,std::allocator<ioAlchemicInventory::AlchemicItem> >::_Inside
_TEXT	ENDS
PUBLIC	?_Orphan_range@?$vector@UAlchemicItem@ioAlchemicInventory@@V?$allocator@UAlchemicItem@ioAlchemicInventory@@@std@@@std@@IBEXPAUAlchemicItem@ioAlchemicInventory@@0@Z ; std::vector<ioAlchemicInventory::AlchemicItem,std::allocator<ioAlchemicInventory::AlchemicItem> >::_Orphan_range
; Function compile flags: /Ogsp
;	COMDAT ?_Orphan_range@?$vector@UAlchemicItem@ioAlchemicInventory@@V?$allocator@UAlchemicItem@ioAlchemicInventory@@@std@@@std@@IBEXPAUAlchemicItem@ioAlchemicInventory@@0@Z
_TEXT	SEGMENT
___formal$ = 8						; size = 4
___formal$ = 12						; size = 4
?_Orphan_range@?$vector@UAlchemicItem@ioAlchemicInventory@@V?$allocator@UAlchemicItem@ioAlchemicInventory@@@std@@@std@@IBEXPAUAlchemicItem@ioAlchemicInventory@@0@Z PROC ; std::vector<ioAlchemicInventory::AlchemicItem,std::allocator<ioAlchemicInventory::AlchemicItem> >::_Orphan_range, COMDAT
; _this$ = ecx

; 1454 : 		}

  00000	c2 08 00	 ret	 8
?_Orphan_range@?$vector@UAlchemicItem@ioAlchemicInventory@@V?$allocator@UAlchemicItem@ioAlchemicInventory@@@std@@@std@@IBEXPAUAlchemicItem@ioAlchemicInventory@@0@Z ENDP ; std::vector<ioAlchemicInventory::AlchemicItem,std::allocator<ioAlchemicInventory::AlchemicItem> >::_Orphan_range
_TEXT	ENDS
PUBLIC	??1?$_Vector_val@UAlchemicItem@ioAlchemicInventory@@V?$allocator@UAlchemicItem@ioAlchemicInventory@@@std@@@std@@QAE@XZ ; std::_Vector_val<ioAlchemicInventory::AlchemicItem,std::allocator<ioAlchemicInventory::AlchemicItem> >::~_Vector_val<ioAlchemicInventory::AlchemicItem,std::allocator<ioAlchemicInventory::AlchemicItem> >
; Function compile flags: /Ogsp
;	COMDAT ??1?$_Vector_val@UAlchemicItem@ioAlchemicInventory@@V?$allocator@UAlchemicItem@ioAlchemicInventory@@@std@@@std@@QAE@XZ
_TEXT	SEGMENT
??1?$_Vector_val@UAlchemicItem@ioAlchemicInventory@@V?$allocator@UAlchemicItem@ioAlchemicInventory@@@std@@@std@@QAE@XZ PROC ; std::_Vector_val<ioAlchemicInventory::AlchemicItem,std::allocator<ioAlchemicInventory::AlchemicItem> >::~_Vector_val<ioAlchemicInventory::AlchemicItem,std::allocator<ioAlchemicInventory::AlchemicItem> >, COMDAT
; _this$ = ecx

; 434  : 		}

  00000	c3		 ret	 0
??1?$_Vector_val@UAlchemicItem@ioAlchemicInventory@@V?$allocator@UAlchemicItem@ioAlchemicInventory@@@std@@@std@@QAE@XZ ENDP ; std::_Vector_val<ioAlchemicInventory::AlchemicItem,std::allocator<ioAlchemicInventory::AlchemicItem> >::~_Vector_val<ioAlchemicInventory::AlchemicItem,std::allocator<ioAlchemicInventory::AlchemicItem> >
_TEXT	ENDS
PUBLIC	??0?$allocator@UAlchemicItem@ioAlchemicInventory@@@std@@QAE@XZ ; std::allocator<ioAlchemicInventory::AlchemicItem>::allocator<ioAlchemicInventory::AlchemicItem>
; Function compile flags: /Ogsp
; File c:\program files (x86)\microsoft visual studio 10.0\vc\include\xmemory
;	COMDAT ??0?$allocator@UAlchemicItem@ioAlchemicInventory@@@std@@QAE@XZ
_TEXT	SEGMENT
??0?$allocator@UAlchemicItem@ioAlchemicInventory@@@std@@QAE@XZ PROC ; std::allocator<ioAlchemicInventory::AlchemicItem>::allocator<ioAlchemicInventory::AlchemicItem>, COMDAT
; _this$ = ecx

; 161  : 	_ALLOCATOR() _THROW0()

  00000	8b c1		 mov	 eax, ecx

; 162  : 		{	// construct default allocator (do nothing)
; 163  : 		}

  00002	c3		 ret	 0
??0?$allocator@UAlchemicItem@ioAlchemicInventory@@@std@@QAE@XZ ENDP ; std::allocator<ioAlchemicInventory::AlchemicItem>::allocator<ioAlchemicInventory::AlchemicItem>
_TEXT	ENDS
PUBLIC	??0?$_Vector_const_iterator@V?$_Vector_val@UAlchemicItem@ioAlchemicInventory@@V?$allocator@UAlchemicItem@ioAlchemicInventory@@@std@@@std@@@std@@QAE@XZ ; std::_Vector_const_iterator<std::_Vector_val<ioAlchemicInventory::AlchemicItem,std::allocator<ioAlchemicInventory::AlchemicItem> > >::_Vector_const_iterator<std::_Vector_val<ioAlchemicInventory::AlchemicItem,std::allocator<ioAlchemicInventory::AlchemicItem> > >
; Function compile flags: /Ogsp
; File c:\program files (x86)\microsoft visual studio 10.0\vc\include\vector
;	COMDAT ??0?$_Vector_const_iterator@V?$_Vector_val@UAlchemicItem@ioAlchemicInventory@@V?$allocator@UAlchemicItem@ioAlchemicInventory@@@std@@@std@@@std@@QAE@XZ
_TEXT	SEGMENT
??0?$_Vector_const_iterator@V?$_Vector_val@UAlchemicItem@ioAlchemicInventory@@V?$allocator@UAlchemicItem@ioAlchemicInventory@@@std@@@std@@@std@@QAE@XZ PROC ; std::_Vector_const_iterator<std::_Vector_val<ioAlchemicInventory::AlchemicItem,std::allocator<ioAlchemicInventory::AlchemicItem> > >::_Vector_const_iterator<std::_Vector_val<ioAlchemicInventory::AlchemicItem,std::allocator<ioAlchemicInventory::AlchemicItem> > >, COMDAT
; _this$ = ecx

; 40   : 		{	// construct with null pointer

  00000	8b c1		 mov	 eax, ecx
  00002	83 20 00	 and	 DWORD PTR [eax], 0

; 41   : 		}

  00005	c3		 ret	 0
??0?$_Vector_const_iterator@V?$_Vector_val@UAlchemicItem@ioAlchemicInventory@@V?$allocator@UAlchemicItem@ioAlchemicInventory@@@std@@@std@@@std@@QAE@XZ ENDP ; std::_Vector_const_iterator<std::_Vector_val<ioAlchemicInventory::AlchemicItem,std::allocator<ioAlchemicInventory::AlchemicItem> > >::_Vector_const_iterator<std::_Vector_val<ioAlchemicInventory::AlchemicItem,std::allocator<ioAlchemicInventory::AlchemicItem> > >
_TEXT	ENDS
PUBLIC	??D?$_Vector_const_iterator@V?$_Vector_val@UAlchemicItem@ioAlchemicInventory@@V?$allocator@UAlchemicItem@ioAlchemicInventory@@@std@@@std@@@std@@QBEABUAlchemicItem@ioAlchemicInventory@@XZ ; std::_Vector_const_iterator<std::_Vector_val<ioAlchemicInventory::AlchemicItem,std::allocator<ioAlchemicInventory::AlchemicItem> > >::operator*
; Function compile flags: /Ogsp
;	COMDAT ??D?$_Vector_const_iterator@V?$_Vector_val@UAlchemicItem@ioAlchemicInventory@@V?$allocator@UAlchemicItem@ioAlchemicInventory@@@std@@@std@@@std@@QBEABUAlchemicItem@ioAlchemicInventory@@XZ
_TEXT	SEGMENT
??D?$_Vector_const_iterator@V?$_Vector_val@UAlchemicItem@ioAlchemicInventory@@V?$allocator@UAlchemicItem@ioAlchemicInventory@@@std@@@std@@@std@@QBEABUAlchemicItem@ioAlchemicInventory@@XZ PROC ; std::_Vector_const_iterator<std::_Vector_val<ioAlchemicInventory::AlchemicItem,std::allocator<ioAlchemicInventory::AlchemicItem> > >::operator*, COMDAT
; _this$ = ecx

; 64   :  #if _ITERATOR_DEBUG_LEVEL == 2
; 65   : 		if (this->_Getcont() == 0
; 66   : 			|| this->_Ptr == 0
; 67   : 			|| this->_Ptr < ((_Myvec *)this->_Getcont())->_Myfirst
; 68   : 			|| ((_Myvec *)this->_Getcont())->_Mylast <= this->_Ptr)
; 69   : 			{	// report error
; 70   : 			_DEBUG_ERROR("vector iterator not dereferencable");
; 71   : 			_SCL_SECURE_OUT_OF_RANGE;
; 72   : 			}
; 73   : 
; 74   :  #elif _ITERATOR_DEBUG_LEVEL == 1
; 75   : 		_SCL_SECURE_VALIDATE(this->_Getcont() != 0);
; 76   : 		_SCL_SECURE_VALIDATE_RANGE(
; 77   : 			this->_Ptr != 0
; 78   : 			&& ((_Myvec *)this->_Getcont())->_Myfirst <= this->_Ptr
; 79   : 			&& this->_Ptr < ((_Myvec *)this->_Getcont())->_Mylast);
; 80   :  #endif /* _ITERATOR_DEBUG_LEVEL */
; 81   : 
; 82   : 		__analysis_assume(this->_Ptr != 0);
; 83   : 
; 84   : 		return (*this->_Ptr);

  00000	8b 01		 mov	 eax, DWORD PTR [ecx]

; 85   : 		}

  00002	c3		 ret	 0
??D?$_Vector_const_iterator@V?$_Vector_val@UAlchemicItem@ioAlchemicInventory@@V?$allocator@UAlchemicItem@ioAlchemicInventory@@@std@@@std@@@std@@QBEABUAlchemicItem@ioAlchemicInventory@@XZ ENDP ; std::_Vector_const_iterator<std::_Vector_val<ioAlchemicInventory::AlchemicItem,std::allocator<ioAlchemicInventory::AlchemicItem> > >::operator*
_TEXT	ENDS
PUBLIC	?capacity@?$vector@UtagAlchemicItemInfo@@V?$allocator@UtagAlchemicItemInfo@@@std@@@std@@QBEIXZ ; std::vector<tagAlchemicItemInfo,std::allocator<tagAlchemicItemInfo> >::capacity
; Function compile flags: /Ogsp
;	COMDAT ?capacity@?$vector@UtagAlchemicItemInfo@@V?$allocator@UtagAlchemicItemInfo@@@std@@@std@@QBEIXZ
_TEXT	SEGMENT
?capacity@?$vector@UtagAlchemicItemInfo@@V?$allocator@UtagAlchemicItemInfo@@@std@@@std@@QBEIXZ PROC ; std::vector<tagAlchemicItemInfo,std::allocator<tagAlchemicItemInfo> >::capacity, COMDAT
; _this$ = ecx

; 777  : 		return (this->_Myend - this->_Myfirst);

  00000	8b 41 08	 mov	 eax, DWORD PTR [ecx+8]
  00003	2b 01		 sub	 eax, DWORD PTR [ecx]
  00005	6a 1c		 push	 28			; 0000001cH
  00007	99		 cdq
  00008	59		 pop	 ecx
  00009	f7 f9		 idiv	 ecx

; 778  : 		}

  0000b	c3		 ret	 0
?capacity@?$vector@UtagAlchemicItemInfo@@V?$allocator@UtagAlchemicItemInfo@@@std@@@std@@QBEIXZ ENDP ; std::vector<tagAlchemicItemInfo,std::allocator<tagAlchemicItemInfo> >::capacity
_TEXT	ENDS
PUBLIC	?size@?$vector@UtagAlchemicItemInfo@@V?$allocator@UtagAlchemicItemInfo@@@std@@@std@@QBEIXZ ; std::vector<tagAlchemicItemInfo,std::allocator<tagAlchemicItemInfo> >::size
; Function compile flags: /Ogsp
;	COMDAT ?size@?$vector@UtagAlchemicItemInfo@@V?$allocator@UtagAlchemicItemInfo@@@std@@@std@@QBEIXZ
_TEXT	SEGMENT
?size@?$vector@UtagAlchemicItemInfo@@V?$allocator@UtagAlchemicItemInfo@@@std@@@std@@QBEIXZ PROC ; std::vector<tagAlchemicItemInfo,std::allocator<tagAlchemicItemInfo> >::size, COMDAT
; _this$ = ecx

; 879  : 		return (this->_Mylast - this->_Myfirst);

  00000	8b 41 04	 mov	 eax, DWORD PTR [ecx+4]
  00003	2b 01		 sub	 eax, DWORD PTR [ecx]
  00005	6a 1c		 push	 28			; 0000001cH
  00007	99		 cdq
  00008	59		 pop	 ecx
  00009	f7 f9		 idiv	 ecx

; 880  : 		}

  0000b	c3		 ret	 0
?size@?$vector@UtagAlchemicItemInfo@@V?$allocator@UtagAlchemicItemInfo@@@std@@@std@@QBEIXZ ENDP ; std::vector<tagAlchemicItemInfo,std::allocator<tagAlchemicItemInfo> >::size
_TEXT	ENDS
PUBLIC	??_C@_0BD@OLBABOEK@vector?$DMT?$DO?5too?5long?$AA@ ; `string'
PUBLIC	?_Xlen@?$vector@UtagAlchemicItemInfo@@V?$allocator@UtagAlchemicItemInfo@@@std@@@std@@IBEXXZ ; std::vector<tagAlchemicItemInfo,std::allocator<tagAlchemicItemInfo> >::_Xlen
EXTRN	__imp_?_Xlength_error@std@@YAXPBD@Z:PROC
;	COMDAT ??_C@_0BD@OLBABOEK@vector?$DMT?$DO?5too?5long?$AA@
CONST	SEGMENT
??_C@_0BD@OLBABOEK@vector?$DMT?$DO?5too?5long?$AA@ DB 'vector<T> too long'
	DB	00H						; `string'
; Function compile flags: /Ogsp
CONST	ENDS
;	COMDAT ?_Xlen@?$vector@UtagAlchemicItemInfo@@V?$allocator@UtagAlchemicItemInfo@@@std@@@std@@IBEXXZ
_TEXT	SEGMENT
?_Xlen@?$vector@UtagAlchemicItemInfo@@V?$allocator@UtagAlchemicItemInfo@@@std@@@std@@IBEXXZ PROC ; std::vector<tagAlchemicItemInfo,std::allocator<tagAlchemicItemInfo> >::_Xlen, COMDAT
; _this$ = ecx

; 1427 : 		_Xlength_error("vector<T> too long");

  00000	68 00 00 00 00	 push	 OFFSET ??_C@_0BD@OLBABOEK@vector?$DMT?$DO?5too?5long?$AA@
  00005	ff 15 00 00 00
	00		 call	 DWORD PTR __imp_?_Xlength_error@std@@YAXPBD@Z
$LN4@Xlen:
$LN3@Xlen:
  0000b	cc		 int	 3
?_Xlen@?$vector@UtagAlchemicItemInfo@@V?$allocator@UtagAlchemicItemInfo@@@std@@@std@@IBEXXZ ENDP ; std::vector<tagAlchemicItemInfo,std::allocator<tagAlchemicItemInfo> >::_Xlen
_TEXT	ENDS
PUBLIC	?capacity@?$vector@UAlchemicItem@ioAlchemicInventory@@V?$allocator@UAlchemicItem@ioAlchemicInventory@@@std@@@std@@QBEIXZ ; std::vector<ioAlchemicInventory::AlchemicItem,std::allocator<ioAlchemicInventory::AlchemicItem> >::capacity
; Function compile flags: /Ogsp
;	COMDAT ?capacity@?$vector@UAlchemicItem@ioAlchemicInventory@@V?$allocator@UAlchemicItem@ioAlchemicInventory@@@std@@@std@@QBEIXZ
_TEXT	SEGMENT
?capacity@?$vector@UAlchemicItem@ioAlchemicInventory@@V?$allocator@UAlchemicItem@ioAlchemicInventory@@@std@@@std@@QBEIXZ PROC ; std::vector<ioAlchemicInventory::AlchemicItem,std::allocator<ioAlchemicInventory::AlchemicItem> >::capacity, COMDAT
; _this$ = ecx

; 777  : 		return (this->_Myend - this->_Myfirst);

  00000	8b 41 08	 mov	 eax, DWORD PTR [ecx+8]
  00003	2b 01		 sub	 eax, DWORD PTR [ecx]
  00005	6a 14		 push	 20			; 00000014H
  00007	99		 cdq
  00008	59		 pop	 ecx
  00009	f7 f9		 idiv	 ecx

; 778  : 		}

  0000b	c3		 ret	 0
?capacity@?$vector@UAlchemicItem@ioAlchemicInventory@@V?$allocator@UAlchemicItem@ioAlchemicInventory@@@std@@@std@@QBEIXZ ENDP ; std::vector<ioAlchemicInventory::AlchemicItem,std::allocator<ioAlchemicInventory::AlchemicItem> >::capacity
_TEXT	ENDS
PUBLIC	?size@?$vector@UAlchemicItem@ioAlchemicInventory@@V?$allocator@UAlchemicItem@ioAlchemicInventory@@@std@@@std@@QBEIXZ ; std::vector<ioAlchemicInventory::AlchemicItem,std::allocator<ioAlchemicInventory::AlchemicItem> >::size
; Function compile flags: /Ogsp
;	COMDAT ?size@?$vector@UAlchemicItem@ioAlchemicInventory@@V?$allocator@UAlchemicItem@ioAlchemicInventory@@@std@@@std@@QBEIXZ
_TEXT	SEGMENT
?size@?$vector@UAlchemicItem@ioAlchemicInventory@@V?$allocator@UAlchemicItem@ioAlchemicInventory@@@std@@@std@@QBEIXZ PROC ; std::vector<ioAlchemicInventory::AlchemicItem,std::allocator<ioAlchemicInventory::AlchemicItem> >::size, COMDAT
; _this$ = ecx

; 879  : 		return (this->_Mylast - this->_Myfirst);

  00000	8b 41 04	 mov	 eax, DWORD PTR [ecx+4]
  00003	2b 01		 sub	 eax, DWORD PTR [ecx]
  00005	6a 14		 push	 20			; 00000014H
  00007	99		 cdq
  00008	59		 pop	 ecx
  00009	f7 f9		 idiv	 ecx

; 880  : 		}

  0000b	c3		 ret	 0
?size@?$vector@UAlchemicItem@ioAlchemicInventory@@V?$allocator@UAlchemicItem@ioAlchemicInventory@@@std@@@std@@QBEIXZ ENDP ; std::vector<ioAlchemicInventory::AlchemicItem,std::allocator<ioAlchemicInventory::AlchemicItem> >::size
_TEXT	ENDS
PUBLIC	?_Xlen@?$vector@UAlchemicItem@ioAlchemicInventory@@V?$allocator@UAlchemicItem@ioAlchemicInventory@@@std@@@std@@IBEXXZ ; std::vector<ioAlchemicInventory::AlchemicItem,std::allocator<ioAlchemicInventory::AlchemicItem> >::_Xlen
; Function compile flags: /Ogsp
;	COMDAT ?_Xlen@?$vector@UAlchemicItem@ioAlchemicInventory@@V?$allocator@UAlchemicItem@ioAlchemicInventory@@@std@@@std@@IBEXXZ
_TEXT	SEGMENT
?_Xlen@?$vector@UAlchemicItem@ioAlchemicInventory@@V?$allocator@UAlchemicItem@ioAlchemicInventory@@@std@@@std@@IBEXXZ PROC ; std::vector<ioAlchemicInventory::AlchemicItem,std::allocator<ioAlchemicInventory::AlchemicItem> >::_Xlen, COMDAT
; _this$ = ecx

; 1427 : 		_Xlength_error("vector<T> too long");

  00000	68 00 00 00 00	 push	 OFFSET ??_C@_0BD@OLBABOEK@vector?$DMT?$DO?5too?5long?$AA@
  00005	ff 15 00 00 00
	00		 call	 DWORD PTR __imp_?_Xlength_error@std@@YAXPBD@Z
$LN4@Xlen@2:
$LN3@Xlen@2:
  0000b	cc		 int	 3
?_Xlen@?$vector@UAlchemicItem@ioAlchemicInventory@@V?$allocator@UAlchemicItem@ioAlchemicInventory@@@std@@@std@@IBEXXZ ENDP ; std::vector<ioAlchemicInventory::AlchemicItem,std::allocator<ioAlchemicInventory::AlchemicItem> >::_Xlen
_TEXT	ENDS
PUBLIC	??0?$allocator@UAlchemicItem@ioAlchemicInventory@@@std@@QAE@ABV01@@Z ; std::allocator<ioAlchemicInventory::AlchemicItem>::allocator<ioAlchemicInventory::AlchemicItem>
; Function compile flags: /Ogsp
; File c:\program files (x86)\microsoft visual studio 10.0\vc\include\xmemory
;	COMDAT ??0?$allocator@UAlchemicItem@ioAlchemicInventory@@@std@@QAE@ABV01@@Z
_TEXT	SEGMENT
___formal$ = 8						; size = 4
??0?$allocator@UAlchemicItem@ioAlchemicInventory@@@std@@QAE@ABV01@@Z PROC ; std::allocator<ioAlchemicInventory::AlchemicItem>::allocator<ioAlchemicInventory::AlchemicItem>, COMDAT
; _this$ = ecx

; 165  : 	_ALLOCATOR(const _ALLOCATOR<_Ty>&) _THROW0()

  00000	8b c1		 mov	 eax, ecx

; 166  : 		{	// construct by copying (do nothing)
; 167  : 		}

  00002	c2 04 00	 ret	 4
??0?$allocator@UAlchemicItem@ioAlchemicInventory@@@std@@QAE@ABV01@@Z ENDP ; std::allocator<ioAlchemicInventory::AlchemicItem>::allocator<ioAlchemicInventory::AlchemicItem>
_TEXT	ENDS
PUBLIC	?deallocate@?$allocator@UAlchemicItem@ioAlchemicInventory@@@std@@QAEXPAUAlchemicItem@ioAlchemicInventory@@I@Z ; std::allocator<ioAlchemicInventory::AlchemicItem>::deallocate
; Function compile flags: /Ogsp
;	COMDAT ?deallocate@?$allocator@UAlchemicItem@ioAlchemicInventory@@@std@@QAEXPAUAlchemicItem@ioAlchemicInventory@@I@Z
_TEXT	SEGMENT
__Ptr$ = 8						; size = 4
___formal$ = 12						; size = 4
?deallocate@?$allocator@UAlchemicItem@ioAlchemicInventory@@@std@@QAEXPAUAlchemicItem@ioAlchemicInventory@@I@Z PROC ; std::allocator<ioAlchemicInventory::AlchemicItem>::deallocate, COMDAT
; _this$ = ecx

; 181  : 		{	// deallocate object at _Ptr, ignore size

  00000	55		 push	 ebp
  00001	8b ec		 mov	 ebp, esp

; 182  : 		::operator delete(_Ptr);

  00003	ff 75 08	 push	 DWORD PTR __Ptr$[ebp]
  00006	e8 00 00 00 00	 call	 ??3@YAXPAX@Z		; operator delete
  0000b	59		 pop	 ecx

; 183  : 		}

  0000c	5d		 pop	 ebp
  0000d	c2 08 00	 ret	 8
?deallocate@?$allocator@UAlchemicItem@ioAlchemicInventory@@@std@@QAEXPAUAlchemicItem@ioAlchemicInventory@@I@Z ENDP ; std::allocator<ioAlchemicInventory::AlchemicItem>::deallocate
_TEXT	ENDS
PUBLIC	??0?$_Vector_const_iterator@V?$_Vector_val@UAlchemicItem@ioAlchemicInventory@@V?$allocator@UAlchemicItem@ioAlchemicInventory@@@std@@@std@@@std@@QAE@PAUAlchemicItem@ioAlchemicInventory@@PBU_Container_base0@1@@Z ; std::_Vector_const_iterator<std::_Vector_val<ioAlchemicInventory::AlchemicItem,std::allocator<ioAlchemicInventory::AlchemicItem> > >::_Vector_const_iterator<std::_Vector_val<ioAlchemicInventory::AlchemicItem,std::allocator<ioAlchemicInventory::AlchemicItem> > >
; Function compile flags: /Ogsp
; File c:\program files (x86)\microsoft visual studio 10.0\vc\include\vector
;	COMDAT ??0?$_Vector_const_iterator@V?$_Vector_val@UAlchemicItem@ioAlchemicInventory@@V?$allocator@UAlchemicItem@ioAlchemicInventory@@@std@@@std@@@std@@QAE@PAUAlchemicItem@ioAlchemicInventory@@PBU_Container_base0@1@@Z
_TEXT	SEGMENT
__Parg$ = 8						; size = 4
__Pvector$ = 12						; size = 4
??0?$_Vector_const_iterator@V?$_Vector_val@UAlchemicItem@ioAlchemicInventory@@V?$allocator@UAlchemicItem@ioAlchemicInventory@@@std@@@std@@@std@@QAE@PAUAlchemicItem@ioAlchemicInventory@@PBU_Container_base0@1@@Z PROC ; std::_Vector_const_iterator<std::_Vector_val<ioAlchemicInventory::AlchemicItem,std::allocator<ioAlchemicInventory::AlchemicItem> > >::_Vector_const_iterator<std::_Vector_val<ioAlchemicInventory::AlchemicItem,std::allocator<ioAlchemicInventory::AlchemicItem> > >, COMDAT
; _this$ = ecx

; 45   : 		{	// construct with pointer _Parg

  00000	55		 push	 ebp
  00001	8b ec		 mov	 ebp, esp
  00003	8b c1		 mov	 eax, ecx
  00005	8b 4d 08	 mov	 ecx, DWORD PTR __Parg$[ebp]
  00008	89 08		 mov	 DWORD PTR [eax], ecx

; 46   : 		this->_Adopt(_Pvector);
; 47   : 		}

  0000a	5d		 pop	 ebp
  0000b	c2 08 00	 ret	 8
??0?$_Vector_const_iterator@V?$_Vector_val@UAlchemicItem@ioAlchemicInventory@@V?$allocator@UAlchemicItem@ioAlchemicInventory@@@std@@@std@@@std@@QAE@PAUAlchemicItem@ioAlchemicInventory@@PBU_Container_base0@1@@Z ENDP ; std::_Vector_const_iterator<std::_Vector_val<ioAlchemicInventory::AlchemicItem,std::allocator<ioAlchemicInventory::AlchemicItem> > >::_Vector_const_iterator<std::_Vector_val<ioAlchemicInventory::AlchemicItem,std::allocator<ioAlchemicInventory::AlchemicItem> > >
_TEXT	ENDS
PUBLIC	??E?$_Vector_const_iterator@V?$_Vector_val@UAlchemicItem@ioAlchemicInventory@@V?$allocator@UAlchemicItem@ioAlchemicInventory@@@std@@@std@@@std@@QAEAAV01@XZ ; std::_Vector_const_iterator<std::_Vector_val<ioAlchemicInventory::AlchemicItem,std::allocator<ioAlchemicInventory::AlchemicItem> > >::operator++
; Function compile flags: /Ogsp
;	COMDAT ??E?$_Vector_const_iterator@V?$_Vector_val@UAlchemicItem@ioAlchemicInventory@@V?$allocator@UAlchemicItem@ioAlchemicInventory@@@std@@@std@@@std@@QAEAAV01@XZ
_TEXT	SEGMENT
??E?$_Vector_const_iterator@V?$_Vector_val@UAlchemicItem@ioAlchemicInventory@@V?$allocator@UAlchemicItem@ioAlchemicInventory@@@std@@@std@@@std@@QAEAAV01@XZ PROC ; std::_Vector_const_iterator<std::_Vector_val<ioAlchemicInventory::AlchemicItem,std::allocator<ioAlchemicInventory::AlchemicItem> > >::operator++, COMDAT
; _this$ = ecx

; 93   : 		{	// preincrement

  00000	8b c1		 mov	 eax, ecx

; 94   :  #if _ITERATOR_DEBUG_LEVEL == 2
; 95   : 		if (this->_Getcont() == 0
; 96   : 			|| this->_Ptr == 0
; 97   : 			|| ((_Myvec *)this->_Getcont())->_Mylast <= this->_Ptr)
; 98   : 			{	// report error
; 99   : 			_DEBUG_ERROR("vector iterator not incrementable");
; 100  : 			_SCL_SECURE_OUT_OF_RANGE;
; 101  : 			}
; 102  : 
; 103  :  #elif _ITERATOR_DEBUG_LEVEL == 1
; 104  : 		_SCL_SECURE_VALIDATE(this->_Getcont() != 0);
; 105  : 		_SCL_SECURE_VALIDATE_RANGE(
; 106  : 			this->_Ptr != 0
; 107  : 			&& this->_Ptr < ((_Myvec *)this->_Getcont())->_Mylast);
; 108  :  #endif /* _ITERATOR_DEBUG_LEVEL */
; 109  : 
; 110  : 		++this->_Ptr;

  00002	83 00 14	 add	 DWORD PTR [eax], 20	; 00000014H

; 111  : 		return (*this);
; 112  : 		}

  00005	c3		 ret	 0
??E?$_Vector_const_iterator@V?$_Vector_val@UAlchemicItem@ioAlchemicInventory@@V?$allocator@UAlchemicItem@ioAlchemicInventory@@@std@@@std@@@std@@QAEAAV01@XZ ENDP ; std::_Vector_const_iterator<std::_Vector_val<ioAlchemicInventory::AlchemicItem,std::allocator<ioAlchemicInventory::AlchemicItem> > >::operator++
_TEXT	ENDS
PUBLIC	?_Compat@?$_Vector_const_iterator@V?$_Vector_val@UAlchemicItem@ioAlchemicInventory@@V?$allocator@UAlchemicItem@ioAlchemicInventory@@@std@@@std@@@std@@QBEXABV12@@Z ; std::_Vector_const_iterator<std::_Vector_val<ioAlchemicInventory::AlchemicItem,std::allocator<ioAlchemicInventory::AlchemicItem> > >::_Compat
; Function compile flags: /Ogsp
;	COMDAT ?_Compat@?$_Vector_const_iterator@V?$_Vector_val@UAlchemicItem@ioAlchemicInventory@@V?$allocator@UAlchemicItem@ioAlchemicInventory@@@std@@@std@@@std@@QBEXABV12@@Z
_TEXT	SEGMENT
___formal$ = 8						; size = 4
?_Compat@?$_Vector_const_iterator@V?$_Vector_val@UAlchemicItem@ioAlchemicInventory@@V?$allocator@UAlchemicItem@ioAlchemicInventory@@@std@@@std@@@std@@QBEXABV12@@Z PROC ; std::_Vector_const_iterator<std::_Vector_val<ioAlchemicInventory::AlchemicItem,std::allocator<ioAlchemicInventory::AlchemicItem> > >::_Compat, COMDAT
; _this$ = ecx

; 253  : 		}

  00000	c2 04 00	 ret	 4
?_Compat@?$_Vector_const_iterator@V?$_Vector_val@UAlchemicItem@ioAlchemicInventory@@V?$allocator@UAlchemicItem@ioAlchemicInventory@@@std@@@std@@@std@@QBEXABV12@@Z ENDP ; std::_Vector_const_iterator<std::_Vector_val<ioAlchemicInventory::AlchemicItem,std::allocator<ioAlchemicInventory::AlchemicItem> > >::_Compat
_TEXT	ENDS
PUBLIC	?deallocate@?$allocator@UtagAlchemicItemInfo@@@std@@QAEXPAUtagAlchemicItemInfo@@I@Z ; std::allocator<tagAlchemicItemInfo>::deallocate
; Function compile flags: /Ogsp
; File c:\program files (x86)\microsoft visual studio 10.0\vc\include\xmemory
;	COMDAT ?deallocate@?$allocator@UtagAlchemicItemInfo@@@std@@QAEXPAUtagAlchemicItemInfo@@I@Z
_TEXT	SEGMENT
__Ptr$ = 8						; size = 4
___formal$ = 12						; size = 4
?deallocate@?$allocator@UtagAlchemicItemInfo@@@std@@QAEXPAUtagAlchemicItemInfo@@I@Z PROC ; std::allocator<tagAlchemicItemInfo>::deallocate, COMDAT
; _this$ = ecx

; 181  : 		{	// deallocate object at _Ptr, ignore size

  00000	55		 push	 ebp
  00001	8b ec		 mov	 ebp, esp

; 182  : 		::operator delete(_Ptr);

  00003	ff 75 08	 push	 DWORD PTR __Ptr$[ebp]
  00006	e8 00 00 00 00	 call	 ??3@YAXPAX@Z		; operator delete
  0000b	59		 pop	 ecx

; 183  : 		}

  0000c	5d		 pop	 ebp
  0000d	c2 08 00	 ret	 8
?deallocate@?$allocator@UtagAlchemicItemInfo@@@std@@QAEXPAUtagAlchemicItemInfo@@I@Z ENDP ; std::allocator<tagAlchemicItemInfo>::deallocate
_TEXT	ENDS
PUBLIC	?max_size@?$allocator@UtagAlchemicItemInfo@@@std@@QBEIXZ ; std::allocator<tagAlchemicItemInfo>::max_size
; Function compile flags: /Ogsp
;	COMDAT ?max_size@?$allocator@UtagAlchemicItemInfo@@@std@@QBEIXZ
_TEXT	SEGMENT
?max_size@?$allocator@UtagAlchemicItemInfo@@@std@@QBEIXZ PROC ; std::allocator<tagAlchemicItemInfo>::max_size, COMDAT
; _this$ = ecx

; 218  : 		_SIZT _Count = (_SIZT)(-1) / sizeof (_Ty);
; 219  : 		return (0 < _Count ? _Count : 1);

  00000	b8 49 92 24 09	 mov	 eax, 153391689		; 09249249H

; 220  : 		}

  00005	c3		 ret	 0
?max_size@?$allocator@UtagAlchemicItemInfo@@@std@@QBEIXZ ENDP ; std::allocator<tagAlchemicItemInfo>::max_size
_TEXT	ENDS
PUBLIC	?max_size@?$allocator@UAlchemicItem@ioAlchemicInventory@@@std@@QBEIXZ ; std::allocator<ioAlchemicInventory::AlchemicItem>::max_size
; Function compile flags: /Ogsp
;	COMDAT ?max_size@?$allocator@UAlchemicItem@ioAlchemicInventory@@@std@@QBEIXZ
_TEXT	SEGMENT
?max_size@?$allocator@UAlchemicItem@ioAlchemicInventory@@@std@@QBEIXZ PROC ; std::allocator<ioAlchemicInventory::AlchemicItem>::max_size, COMDAT
; _this$ = ecx

; 218  : 		_SIZT _Count = (_SIZT)(-1) / sizeof (_Ty);
; 219  : 		return (0 < _Count ? _Count : 1);

  00000	b8 cc cc cc 0c	 mov	 eax, 214748364		; 0cccccccH

; 220  : 		}

  00005	c3		 ret	 0
?max_size@?$allocator@UAlchemicItem@ioAlchemicInventory@@@std@@QBEIXZ ENDP ; std::allocator<ioAlchemicInventory::AlchemicItem>::max_size
_TEXT	ENDS
PUBLIC	??0?$_Vector_const_iterator@V?$_Vector_val@UtagAlchemicItemInfo@@V?$allocator@UtagAlchemicItemInfo@@@std@@@std@@@std@@QAE@PAUtagAlchemicItemInfo@@PBU_Container_base0@1@@Z ; std::_Vector_const_iterator<std::_Vector_val<tagAlchemicItemInfo,std::allocator<tagAlchemicItemInfo> > >::_Vector_const_iterator<std::_Vector_val<tagAlchemicItemInfo,std::allocator<tagAlchemicItemInfo> > >
; Function compile flags: /Ogsp
; File c:\program files (x86)\microsoft visual studio 10.0\vc\include\vector
;	COMDAT ??0?$_Vector_const_iterator@V?$_Vector_val@UtagAlchemicItemInfo@@V?$allocator@UtagAlchemicItemInfo@@@std@@@std@@@std@@QAE@PAUtagAlchemicItemInfo@@PBU_Container_base0@1@@Z
_TEXT	SEGMENT
__Parg$ = 8						; size = 4
__Pvector$ = 12						; size = 4
??0?$_Vector_const_iterator@V?$_Vector_val@UtagAlchemicItemInfo@@V?$allocator@UtagAlchemicItemInfo@@@std@@@std@@@std@@QAE@PAUtagAlchemicItemInfo@@PBU_Container_base0@1@@Z PROC ; std::_Vector_const_iterator<std::_Vector_val<tagAlchemicItemInfo,std::allocator<tagAlchemicItemInfo> > >::_Vector_const_iterator<std::_Vector_val<tagAlchemicItemInfo,std::allocator<tagAlchemicItemInfo> > >, COMDAT
; _this$ = ecx

; 45   : 		{	// construct with pointer _Parg

  00000	55		 push	 ebp
  00001	8b ec		 mov	 ebp, esp
  00003	8b c1		 mov	 eax, ecx
  00005	8b 4d 08	 mov	 ecx, DWORD PTR __Parg$[ebp]
  00008	89 08		 mov	 DWORD PTR [eax], ecx

; 46   : 		this->_Adopt(_Pvector);
; 47   : 		}

  0000a	5d		 pop	 ebp
  0000b	c2 08 00	 ret	 8
??0?$_Vector_const_iterator@V?$_Vector_val@UtagAlchemicItemInfo@@V?$allocator@UtagAlchemicItemInfo@@@std@@@std@@@std@@QAE@PAUtagAlchemicItemInfo@@PBU_Container_base0@1@@Z ENDP ; std::_Vector_const_iterator<std::_Vector_val<tagAlchemicItemInfo,std::allocator<tagAlchemicItemInfo> > >::_Vector_const_iterator<std::_Vector_val<tagAlchemicItemInfo,std::allocator<tagAlchemicItemInfo> > >
_TEXT	ENDS
PUBLIC	?_Compat@?$_Vector_const_iterator@V?$_Vector_val@UtagAlchemicItemInfo@@V?$allocator@UtagAlchemicItemInfo@@@std@@@std@@@std@@QBEXABV12@@Z ; std::_Vector_const_iterator<std::_Vector_val<tagAlchemicItemInfo,std::allocator<tagAlchemicItemInfo> > >::_Compat
; Function compile flags: /Ogsp
;	COMDAT ?_Compat@?$_Vector_const_iterator@V?$_Vector_val@UtagAlchemicItemInfo@@V?$allocator@UtagAlchemicItemInfo@@@std@@@std@@@std@@QBEXABV12@@Z
_TEXT	SEGMENT
___formal$ = 8						; size = 4
?_Compat@?$_Vector_const_iterator@V?$_Vector_val@UtagAlchemicItemInfo@@V?$allocator@UtagAlchemicItemInfo@@@std@@@std@@@std@@QBEXABV12@@Z PROC ; std::_Vector_const_iterator<std::_Vector_val<tagAlchemicItemInfo,std::allocator<tagAlchemicItemInfo> > >::_Compat, COMDAT
; _this$ = ecx

; 253  : 		}

  00000	c2 04 00	 ret	 4
?_Compat@?$_Vector_const_iterator@V?$_Vector_val@UtagAlchemicItemInfo@@V?$allocator@UtagAlchemicItemInfo@@@std@@@std@@@std@@QBEXABV12@@Z ENDP ; std::_Vector_const_iterator<std::_Vector_val<tagAlchemicItemInfo,std::allocator<tagAlchemicItemInfo> > >::_Compat
_TEXT	ENDS
PUBLIC	??$addressof@$$CBUtagAlchemicItemInfo@@@std@@YAPBUtagAlchemicItemInfo@@ABU1@@Z ; std::addressof<tagAlchemicItemInfo const >
; Function compile flags: /Ogsp
; File c:\program files (x86)\microsoft visual studio 10.0\vc\include\xmemory
;	COMDAT ??$addressof@$$CBUtagAlchemicItemInfo@@@std@@YAPBUtagAlchemicItemInfo@@ABU1@@Z
_TEXT	SEGMENT
__Val$ = 8						; size = 4
??$addressof@$$CBUtagAlchemicItemInfo@@@std@@YAPBUtagAlchemicItemInfo@@ABU1@@Z PROC ; std::addressof<tagAlchemicItemInfo const >, COMDAT

; 110  : 	{	// return address of _Val

  00000	55		 push	 ebp
  00001	8b ec		 mov	 ebp, esp

; 111  : 	return ((_Ty *) &(char&)_Val);

  00003	8b 45 08	 mov	 eax, DWORD PTR __Val$[ebp]

; 112  : 	}

  00006	5d		 pop	 ebp
  00007	c3		 ret	 0
??$addressof@$$CBUtagAlchemicItemInfo@@@std@@YAPBUtagAlchemicItemInfo@@ABU1@@Z ENDP ; std::addressof<tagAlchemicItemInfo const >
_TEXT	ENDS
PUBLIC	??$addressof@$$CBUAlchemicItem@ioAlchemicInventory@@@std@@YAPBUAlchemicItem@ioAlchemicInventory@@ABU12@@Z ; std::addressof<ioAlchemicInventory::AlchemicItem const >
; Function compile flags: /Ogsp
;	COMDAT ??$addressof@$$CBUAlchemicItem@ioAlchemicInventory@@@std@@YAPBUAlchemicItem@ioAlchemicInventory@@ABU12@@Z
_TEXT	SEGMENT
__Val$ = 8						; size = 4
??$addressof@$$CBUAlchemicItem@ioAlchemicInventory@@@std@@YAPBUAlchemicItem@ioAlchemicInventory@@ABU12@@Z PROC ; std::addressof<ioAlchemicInventory::AlchemicItem const >, COMDAT

; 110  : 	{	// return address of _Val

  00000	55		 push	 ebp
  00001	8b ec		 mov	 ebp, esp

; 111  : 	return ((_Ty *) &(char&)_Val);

  00003	8b 45 08	 mov	 eax, DWORD PTR __Val$[ebp]

; 112  : 	}

  00006	5d		 pop	 ebp
  00007	c3		 ret	 0
??$addressof@$$CBUAlchemicItem@ioAlchemicInventory@@@std@@YAPBUAlchemicItem@ioAlchemicInventory@@ABU12@@Z ENDP ; std::addressof<ioAlchemicInventory::AlchemicItem const >
_TEXT	ENDS
PUBLIC	__TI2?AVbad_alloc@std@@
PUBLIC	??$_Allocate@UtagAlchemicItemInfo@@@std@@YAPAUtagAlchemicItemInfo@@IPAU1@@Z ; std::_Allocate<tagAlchemicItemInfo>
PUBLIC	__CTA2?AVbad_alloc@std@@
PUBLIC	__CT??_R0?AVbad_alloc@std@@@8??0bad_alloc@std@@QAE@ABV01@@Z12
PUBLIC	??0bad_alloc@std@@QAE@ABV01@@Z			; std::bad_alloc::bad_alloc
PUBLIC	__CT??_R0?AVexception@std@@@8??0exception@std@@QAE@ABV01@@Z12
EXTRN	??2@YAPAXI@Z:PROC				; operator new
EXTRN	__CxxThrowException@8:PROC
EXTRN	??0exception@std@@QAE@ABV01@@Z:PROC		; std::exception::exception
;	COMDAT __CT??_R0?AVexception@std@@@8??0exception@std@@QAE@ABV01@@Z12
; File c:\program files (x86)\microsoft visual studio 10.0\vc\include\exception
xdata$x	SEGMENT
__CT??_R0?AVexception@std@@@8??0exception@std@@QAE@ABV01@@Z12 DD 00H
	DD	FLAT:??_R0?AVexception@std@@@8
	DD	00H
	DD	0ffffffffH
	ORG $+4
	DD	0cH
	DD	FLAT:??0exception@std@@QAE@ABV01@@Z
xdata$x	ENDS
;	COMDAT __CT??_R0?AVbad_alloc@std@@@8??0bad_alloc@std@@QAE@ABV01@@Z12
xdata$x	SEGMENT
__CT??_R0?AVbad_alloc@std@@@8??0bad_alloc@std@@QAE@ABV01@@Z12 DD 00H
	DD	FLAT:??_R0?AVbad_alloc@std@@@8
	DD	00H
	DD	0ffffffffH
	ORG $+4
	DD	0cH
	DD	FLAT:??0bad_alloc@std@@QAE@ABV01@@Z
xdata$x	ENDS
;	COMDAT __CTA2?AVbad_alloc@std@@
xdata$x	SEGMENT
__CTA2?AVbad_alloc@std@@ DD 02H
	DD	FLAT:__CT??_R0?AVbad_alloc@std@@@8??0bad_alloc@std@@QAE@ABV01@@Z12
	DD	FLAT:__CT??_R0?AVexception@std@@@8??0exception@std@@QAE@ABV01@@Z12
xdata$x	ENDS
;	COMDAT __TI2?AVbad_alloc@std@@
xdata$x	SEGMENT
__TI2?AVbad_alloc@std@@ DD 00H
	DD	FLAT:??1bad_alloc@std@@UAE@XZ
	DD	00H
	DD	FLAT:__CTA2?AVbad_alloc@std@@
; Function compile flags: /Ogsp
; File c:\program files (x86)\microsoft visual studio 10.0\vc\include\xmemory
xdata$x	ENDS
;	COMDAT ??$_Allocate@UtagAlchemicItemInfo@@@std@@YAPAUtagAlchemicItemInfo@@IPAU1@@Z
_TEXT	SEGMENT
$T528967 = -12						; size = 12
$T528972 = 8						; size = 4
__Count$ = 8						; size = 4
___formal$ = 12						; size = 4
??$_Allocate@UtagAlchemicItemInfo@@@std@@YAPAUtagAlchemicItemInfo@@IPAU1@@Z PROC ; std::_Allocate<tagAlchemicItemInfo>, COMDAT

; 30   : 	{	// allocate storage for _Count elements of type _Ty

  00000	55		 push	 ebp
  00001	8b ec		 mov	 ebp, esp

; 31   : 	void *_Ptr = 0;
; 32   : 
; 33   : 	if (_Count <= 0)

  00003	8b 4d 08	 mov	 ecx, DWORD PTR __Count$[ebp]
  00006	83 ec 0c	 sub	 esp, 12			; 0000000cH
  00009	33 c0		 xor	 eax, eax
  0000b	85 c9		 test	 ecx, ecx

; 34   : 		_Count = 0;
; 35   : 	else if (((_SIZT)(-1) / sizeof (_Ty) < _Count)

  0000d	74 3c		 je	 SHORT $LN5@Allocate

; 36   : 		|| (_Ptr = ::operator new(_Count * sizeof (_Ty))) == 0)

  0000f	81 f9 49 92 24
	09		 cmp	 ecx, 153391689		; 09249249H
  00015	77 0e		 ja	 SHORT $LN1@Allocate
  00017	6b c9 1c	 imul	 ecx, 28			; 0000001cH
  0001a	51		 push	 ecx
  0001b	e8 00 00 00 00	 call	 ??2@YAPAXI@Z		; operator new
  00020	59		 pop	 ecx
  00021	85 c0		 test	 eax, eax

; 38   : 
; 39   : 	return ((_Ty _FARQ *)_Ptr);

  00023	75 26		 jne	 SHORT $LN5@Allocate
$LN1@Allocate:

; 37   : 		_THROW_NCEE(bad_alloc, 0);

  00025	83 65 08 00	 and	 DWORD PTR $T528972[ebp], 0
  00029	8d 45 08	 lea	 eax, DWORD PTR $T528972[ebp]
  0002c	50		 push	 eax
  0002d	8d 4d f4	 lea	 ecx, DWORD PTR $T528967[ebp]
  00030	ff 15 00 00 00
	00		 call	 DWORD PTR __imp_??0exception@std@@QAE@ABQBD@Z
  00036	68 00 00 00 00	 push	 OFFSET __TI2?AVbad_alloc@std@@
  0003b	8d 45 f4	 lea	 eax, DWORD PTR $T528967[ebp]
  0003e	50		 push	 eax
  0003f	c7 45 f4 00 00
	00 00		 mov	 DWORD PTR $T528967[ebp], OFFSET ??_7bad_alloc@std@@6B@
  00046	e8 00 00 00 00	 call	 __CxxThrowException@8
$LN10@Allocate:
$LN5@Allocate:

; 40   : 	}

  0004b	c9		 leave
  0004c	c3		 ret	 0
$LN9@Allocate:
??$_Allocate@UtagAlchemicItemInfo@@@std@@YAPAUtagAlchemicItemInfo@@IPAU1@@Z ENDP ; std::_Allocate<tagAlchemicItemInfo>
_TEXT	ENDS
PUBLIC	??$_Allocate@UAlchemicItem@ioAlchemicInventory@@@std@@YAPAUAlchemicItem@ioAlchemicInventory@@IPAU12@@Z ; std::_Allocate<ioAlchemicInventory::AlchemicItem>
; Function compile flags: /Ogsp
;	COMDAT ??$_Allocate@UAlchemicItem@ioAlchemicInventory@@@std@@YAPAUAlchemicItem@ioAlchemicInventory@@IPAU12@@Z
_TEXT	SEGMENT
$T528977 = -12						; size = 12
$T528981 = 8						; size = 4
__Count$ = 8						; size = 4
___formal$ = 12						; size = 4
??$_Allocate@UAlchemicItem@ioAlchemicInventory@@@std@@YAPAUAlchemicItem@ioAlchemicInventory@@IPAU12@@Z PROC ; std::_Allocate<ioAlchemicInventory::AlchemicItem>, COMDAT

; 30   : 	{	// allocate storage for _Count elements of type _Ty

  00000	55		 push	 ebp
  00001	8b ec		 mov	 ebp, esp

; 31   : 	void *_Ptr = 0;
; 32   : 
; 33   : 	if (_Count <= 0)

  00003	8b 4d 08	 mov	 ecx, DWORD PTR __Count$[ebp]
  00006	83 ec 0c	 sub	 esp, 12			; 0000000cH
  00009	33 c0		 xor	 eax, eax
  0000b	85 c9		 test	 ecx, ecx

; 34   : 		_Count = 0;
; 35   : 	else if (((_SIZT)(-1) / sizeof (_Ty) < _Count)

  0000d	74 3c		 je	 SHORT $LN5@Allocate@2

; 36   : 		|| (_Ptr = ::operator new(_Count * sizeof (_Ty))) == 0)

  0000f	81 f9 cc cc cc
	0c		 cmp	 ecx, 214748364		; 0cccccccH
  00015	77 0e		 ja	 SHORT $LN1@Allocate@2
  00017	6b c9 14	 imul	 ecx, 20			; 00000014H
  0001a	51		 push	 ecx
  0001b	e8 00 00 00 00	 call	 ??2@YAPAXI@Z		; operator new
  00020	59		 pop	 ecx
  00021	85 c0		 test	 eax, eax

; 38   : 
; 39   : 	return ((_Ty _FARQ *)_Ptr);

  00023	75 26		 jne	 SHORT $LN5@Allocate@2
$LN1@Allocate@2:

; 37   : 		_THROW_NCEE(bad_alloc, 0);

  00025	83 65 08 00	 and	 DWORD PTR $T528981[ebp], 0
  00029	8d 45 08	 lea	 eax, DWORD PTR $T528981[ebp]
  0002c	50		 push	 eax
  0002d	8d 4d f4	 lea	 ecx, DWORD PTR $T528977[ebp]
  00030	ff 15 00 00 00
	00		 call	 DWORD PTR __imp_??0exception@std@@QAE@ABQBD@Z
  00036	68 00 00 00 00	 push	 OFFSET __TI2?AVbad_alloc@std@@
  0003b	8d 45 f4	 lea	 eax, DWORD PTR $T528977[ebp]
  0003e	50		 push	 eax
  0003f	c7 45 f4 00 00
	00 00		 mov	 DWORD PTR $T528977[ebp], OFFSET ??_7bad_alloc@std@@6B@
  00046	e8 00 00 00 00	 call	 __CxxThrowException@8
$LN10@Allocate@2:
$LN5@Allocate@2:

; 40   : 	}

  0004b	c9		 leave
  0004c	c3		 ret	 0
$LN9@Allocate@2:
??$_Allocate@UAlchemicItem@ioAlchemicInventory@@@std@@YAPAUAlchemicItem@ioAlchemicInventory@@IPAU12@@Z ENDP ; std::_Allocate<ioAlchemicInventory::AlchemicItem>
_TEXT	ENDS
PUBLIC	??$forward@AAUtagAlchemicItemInfo@@@std@@YAAAUtagAlchemicItemInfo@@AAU1@@Z ; std::forward<tagAlchemicItemInfo &>
; Function compile flags: /Ogsp
; File c:\program files (x86)\microsoft visual studio 10.0\vc\include\utility
;	COMDAT ??$forward@AAUtagAlchemicItemInfo@@@std@@YAAAUtagAlchemicItemInfo@@AAU1@@Z
_TEXT	SEGMENT
__Arg$ = 8						; size = 4
??$forward@AAUtagAlchemicItemInfo@@@std@@YAAAUtagAlchemicItemInfo@@AAU1@@Z PROC ; std::forward<tagAlchemicItemInfo &>, COMDAT

; 78   : 	{	// forward _Arg, given explicitly specified type parameter

  00000	55		 push	 ebp
  00001	8b ec		 mov	 ebp, esp

; 79   : 	return ((_Ty&&)_Arg);

  00003	8b 45 08	 mov	 eax, DWORD PTR __Arg$[ebp]

; 80   : 	}

  00006	5d		 pop	 ebp
  00007	c3		 ret	 0
??$forward@AAUtagAlchemicItemInfo@@@std@@YAAAUtagAlchemicItemInfo@@AAU1@@Z ENDP ; std::forward<tagAlchemicItemInfo &>
_TEXT	ENDS
PUBLIC	??$forward@ABUtagAlchemicItemInfo@@@std@@YAABUtagAlchemicItemInfo@@ABU1@@Z ; std::forward<tagAlchemicItemInfo const &>
; Function compile flags: /Ogsp
;	COMDAT ??$forward@ABUtagAlchemicItemInfo@@@std@@YAABUtagAlchemicItemInfo@@ABU1@@Z
_TEXT	SEGMENT
__Arg$ = 8						; size = 4
??$forward@ABUtagAlchemicItemInfo@@@std@@YAABUtagAlchemicItemInfo@@ABU1@@Z PROC ; std::forward<tagAlchemicItemInfo const &>, COMDAT

; 78   : 	{	// forward _Arg, given explicitly specified type parameter

  00000	55		 push	 ebp
  00001	8b ec		 mov	 ebp, esp

; 79   : 	return ((_Ty&&)_Arg);

  00003	8b 45 08	 mov	 eax, DWORD PTR __Arg$[ebp]

; 80   : 	}

  00006	5d		 pop	 ebp
  00007	c3		 ret	 0
??$forward@ABUtagAlchemicItemInfo@@@std@@YAABUtagAlchemicItemInfo@@ABU1@@Z ENDP ; std::forward<tagAlchemicItemInfo const &>
_TEXT	ENDS
PUBLIC	??$forward@AAUAlchemicItem@ioAlchemicInventory@@@std@@YAAAUAlchemicItem@ioAlchemicInventory@@AAU12@@Z ; std::forward<ioAlchemicInventory::AlchemicItem &>
; Function compile flags: /Ogsp
;	COMDAT ??$forward@AAUAlchemicItem@ioAlchemicInventory@@@std@@YAAAUAlchemicItem@ioAlchemicInventory@@AAU12@@Z
_TEXT	SEGMENT
__Arg$ = 8						; size = 4
??$forward@AAUAlchemicItem@ioAlchemicInventory@@@std@@YAAAUAlchemicItem@ioAlchemicInventory@@AAU12@@Z PROC ; std::forward<ioAlchemicInventory::AlchemicItem &>, COMDAT

; 78   : 	{	// forward _Arg, given explicitly specified type parameter

  00000	55		 push	 ebp
  00001	8b ec		 mov	 ebp, esp

; 79   : 	return ((_Ty&&)_Arg);

  00003	8b 45 08	 mov	 eax, DWORD PTR __Arg$[ebp]

; 80   : 	}

  00006	5d		 pop	 ebp
  00007	c3		 ret	 0
??$forward@AAUAlchemicItem@ioAlchemicInventory@@@std@@YAAAUAlchemicItem@ioAlchemicInventory@@AAU12@@Z ENDP ; std::forward<ioAlchemicInventory::AlchemicItem &>
_TEXT	ENDS
PUBLIC	??$construct@AAUAlchemicItem@ioAlchemicInventory@@@?$allocator@UAlchemicItem@ioAlchemicInventory@@@std@@QAEXPAUAlchemicItem@ioAlchemicInventory@@AAU23@@Z ; std::allocator<ioAlchemicInventory::AlchemicItem>::construct<ioAlchemicInventory::AlchemicItem &>
; Function compile flags: /Ogsp
; File c:\program files (x86)\microsoft visual studio 10.0\vc\include\xmemory
;	COMDAT ??$construct@AAUAlchemicItem@ioAlchemicInventory@@@?$allocator@UAlchemicItem@ioAlchemicInventory@@@std@@QAEXPAUAlchemicItem@ioAlchemicInventory@@AAU23@@Z
_TEXT	SEGMENT
__Ptr$ = 8						; size = 4
__Val$ = 12						; size = 4
??$construct@AAUAlchemicItem@ioAlchemicInventory@@@?$allocator@UAlchemicItem@ioAlchemicInventory@@@std@@QAEXPAUAlchemicItem@ioAlchemicInventory@@AAU23@@Z PROC ; std::allocator<ioAlchemicInventory::AlchemicItem>::construct<ioAlchemicInventory::AlchemicItem &>, COMDAT
; _this$ = ecx

; 206  : 		void construct(pointer _Ptr, _Other&& _Val)

  00000	55		 push	 ebp
  00001	8b ec		 mov	 ebp, esp
  00003	57		 push	 edi

; 207  : 		{	// construct object at _Ptr with value _Val
; 208  : 		::new ((void _FARQ *)_Ptr) _Ty(_STD forward<_Other>(_Val));

  00004	8b 7d 08	 mov	 edi, DWORD PTR __Ptr$[ebp]
  00007	85 ff		 test	 edi, edi
  00009	74 0a		 je	 SHORT $LN3@construct
  0000b	56		 push	 esi
  0000c	8b 75 0c	 mov	 esi, DWORD PTR __Val$[ebp]
  0000f	6a 05		 push	 5
  00011	59		 pop	 ecx
  00012	f3 a5		 rep movsd
  00014	5e		 pop	 esi
$LN3@construct:
  00015	5f		 pop	 edi

; 209  : 		}

  00016	5d		 pop	 ebp
  00017	c2 08 00	 ret	 8
??$construct@AAUAlchemicItem@ioAlchemicInventory@@@?$allocator@UAlchemicItem@ioAlchemicInventory@@@std@@QAEXPAUAlchemicItem@ioAlchemicInventory@@AAU23@@Z ENDP ; std::allocator<ioAlchemicInventory::AlchemicItem>::construct<ioAlchemicInventory::AlchemicItem &>
_TEXT	ENDS
PUBLIC	??$forward@ABUAlchemicItem@ioAlchemicInventory@@@std@@YAABUAlchemicItem@ioAlchemicInventory@@ABU12@@Z ; std::forward<ioAlchemicInventory::AlchemicItem const &>
; Function compile flags: /Ogsp
; File c:\program files (x86)\microsoft visual studio 10.0\vc\include\utility
;	COMDAT ??$forward@ABUAlchemicItem@ioAlchemicInventory@@@std@@YAABUAlchemicItem@ioAlchemicInventory@@ABU12@@Z
_TEXT	SEGMENT
__Arg$ = 8						; size = 4
??$forward@ABUAlchemicItem@ioAlchemicInventory@@@std@@YAABUAlchemicItem@ioAlchemicInventory@@ABU12@@Z PROC ; std::forward<ioAlchemicInventory::AlchemicItem const &>, COMDAT

; 78   : 	{	// forward _Arg, given explicitly specified type parameter

  00000	55		 push	 ebp
  00001	8b ec		 mov	 ebp, esp

; 79   : 	return ((_Ty&&)_Arg);

  00003	8b 45 08	 mov	 eax, DWORD PTR __Arg$[ebp]

; 80   : 	}

  00006	5d		 pop	 ebp
  00007	c3		 ret	 0
??$forward@ABUAlchemicItem@ioAlchemicInventory@@@std@@YAABUAlchemicItem@ioAlchemicInventory@@ABU12@@Z ENDP ; std::forward<ioAlchemicInventory::AlchemicItem const &>
_TEXT	ENDS
PUBLIC	??$_Ptr_cat@UtagAlchemicItemInfo@@U1@@std@@YA?AU_Nonscalar_ptr_iterator_tag@0@PAUtagAlchemicItemInfo@@0@Z ; std::_Ptr_cat<tagAlchemicItemInfo,tagAlchemicItemInfo>
; Function compile flags: /Ogsp
; File c:\program files (x86)\microsoft visual studio 10.0\vc\include\xutility
;	COMDAT ??$_Ptr_cat@UtagAlchemicItemInfo@@U1@@std@@YA?AU_Nonscalar_ptr_iterator_tag@0@PAUtagAlchemicItemInfo@@0@Z
_TEXT	SEGMENT
__Cat$ = -1						; size = 1
___formal$ = 8						; size = 4
___formal$ = 12						; size = 4
??$_Ptr_cat@UtagAlchemicItemInfo@@U1@@std@@YA?AU_Nonscalar_ptr_iterator_tag@0@PAUtagAlchemicItemInfo@@0@Z PROC ; std::_Ptr_cat<tagAlchemicItemInfo,tagAlchemicItemInfo>, COMDAT

; 516  : 	{	// return pointer category from pointers

  00000	55		 push	 ebp
  00001	8b ec		 mov	 ebp, esp
  00003	51		 push	 ecx

; 517  : 	typename _Ptr_cat_helper<_Elem1, _Elem2>::_Type _Cat;
; 518  : 	return (_Cat);

  00004	8a 45 ff	 mov	 al, BYTE PTR __Cat$[ebp]

; 519  : 	}

  00007	c9		 leave
  00008	c3		 ret	 0
??$_Ptr_cat@UtagAlchemicItemInfo@@U1@@std@@YA?AU_Nonscalar_ptr_iterator_tag@0@PAUtagAlchemicItemInfo@@0@Z ENDP ; std::_Ptr_cat<tagAlchemicItemInfo,tagAlchemicItemInfo>
_TEXT	ENDS
PUBLIC	??$_Ptr_cat@UAlchemicItem@ioAlchemicInventory@@U12@@std@@YA?AU_Nonscalar_ptr_iterator_tag@0@PAUAlchemicItem@ioAlchemicInventory@@0@Z ; std::_Ptr_cat<ioAlchemicInventory::AlchemicItem,ioAlchemicInventory::AlchemicItem>
; Function compile flags: /Ogsp
;	COMDAT ??$_Ptr_cat@UAlchemicItem@ioAlchemicInventory@@U12@@std@@YA?AU_Nonscalar_ptr_iterator_tag@0@PAUAlchemicItem@ioAlchemicInventory@@0@Z
_TEXT	SEGMENT
__Cat$ = -1						; size = 1
___formal$ = 8						; size = 4
___formal$ = 12						; size = 4
??$_Ptr_cat@UAlchemicItem@ioAlchemicInventory@@U12@@std@@YA?AU_Nonscalar_ptr_iterator_tag@0@PAUAlchemicItem@ioAlchemicInventory@@0@Z PROC ; std::_Ptr_cat<ioAlchemicInventory::AlchemicItem,ioAlchemicInventory::AlchemicItem>, COMDAT

; 516  : 	{	// return pointer category from pointers

  00000	55		 push	 ebp
  00001	8b ec		 mov	 ebp, esp
  00003	51		 push	 ecx

; 517  : 	typename _Ptr_cat_helper<_Elem1, _Elem2>::_Type _Cat;
; 518  : 	return (_Cat);

  00004	8a 45 ff	 mov	 al, BYTE PTR __Cat$[ebp]

; 519  : 	}

  00007	c9		 leave
  00008	c3		 ret	 0
??$_Ptr_cat@UAlchemicItem@ioAlchemicInventory@@U12@@std@@YA?AU_Nonscalar_ptr_iterator_tag@0@PAUAlchemicItem@ioAlchemicInventory@@0@Z ENDP ; std::_Ptr_cat<ioAlchemicInventory::AlchemicItem,ioAlchemicInventory::AlchemicItem>
_TEXT	ENDS
PUBLIC	??$_Construct@UAlchemicItem@ioAlchemicInventory@@ABU12@@std@@YAXPAUAlchemicItem@ioAlchemicInventory@@ABU12@@Z ; std::_Construct<ioAlchemicInventory::AlchemicItem,ioAlchemicInventory::AlchemicItem const &>
; Function compile flags: /Ogsp
; File c:\program files (x86)\microsoft visual studio 10.0\vc\include\xmemory
;	COMDAT ??$_Construct@UAlchemicItem@ioAlchemicInventory@@ABU12@@std@@YAXPAUAlchemicItem@ioAlchemicInventory@@ABU12@@Z
_TEXT	SEGMENT
__Ptr$ = 8						; size = 4
__Val$ = 12						; size = 4
??$_Construct@UAlchemicItem@ioAlchemicInventory@@ABU12@@std@@YAXPAUAlchemicItem@ioAlchemicInventory@@ABU12@@Z PROC ; std::_Construct<ioAlchemicInventory::AlchemicItem,ioAlchemicInventory::AlchemicItem const &>, COMDAT

; 46   : 	{	// construct object at _Ptr with value _Val

  00000	55		 push	 ebp
  00001	8b ec		 mov	 ebp, esp
  00003	57		 push	 edi

; 47   : 	void _FARQ *_Vptr = _Ptr;
; 48   : 	::new (_Vptr) _Ty1(_STD forward<_Ty2>(_Val));

  00004	8b 7d 08	 mov	 edi, DWORD PTR __Ptr$[ebp]
  00007	85 ff		 test	 edi, edi
  00009	74 0a		 je	 SHORT $LN3@Construct
  0000b	56		 push	 esi
  0000c	8b 75 0c	 mov	 esi, DWORD PTR __Val$[ebp]
  0000f	6a 05		 push	 5
  00011	59		 pop	 ecx
  00012	f3 a5		 rep movsd
  00014	5e		 pop	 esi
$LN3@Construct:
  00015	5f		 pop	 edi

; 49   : 	}

  00016	5d		 pop	 ebp
  00017	c3		 ret	 0
??$_Construct@UAlchemicItem@ioAlchemicInventory@@ABU12@@std@@YAXPAUAlchemicItem@ioAlchemicInventory@@ABU12@@Z ENDP ; std::_Construct<ioAlchemicInventory::AlchemicItem,ioAlchemicInventory::AlchemicItem const &>
_TEXT	ENDS
PUBLIC	??0tagAlchemicItemInfo@@QAE@ABU0@@Z		; tagAlchemicItemInfo::tagAlchemicItemInfo
EXTRN	__imp_??0ioHashString@@QAE@ABV0@@Z:PROC
; Function compile flags: /Ogsp
;	COMDAT ??0tagAlchemicItemInfo@@QAE@ABU0@@Z
_TEXT	SEGMENT
___that$ = 8						; size = 4
??0tagAlchemicItemInfo@@QAE@ABU0@@Z PROC		; tagAlchemicItemInfo::tagAlchemicItemInfo, COMDAT
; _this$ = ecx
  00000	55		 push	 ebp
  00001	8b ec		 mov	 ebp, esp
  00003	56		 push	 esi
  00004	57		 push	 edi
  00005	8b 7d 08	 mov	 edi, DWORD PTR ___that$[ebp]
  00008	8b 07		 mov	 eax, DWORD PTR [edi]
  0000a	8b f1		 mov	 esi, ecx
  0000c	89 06		 mov	 DWORD PTR [esi], eax
  0000e	8b 47 04	 mov	 eax, DWORD PTR [edi+4]
  00011	89 46 04	 mov	 DWORD PTR [esi+4], eax
  00014	8d 47 08	 lea	 eax, DWORD PTR [edi+8]
  00017	50		 push	 eax
  00018	8d 4e 08	 lea	 ecx, DWORD PTR [esi+8]
  0001b	ff 15 00 00 00
	00		 call	 DWORD PTR __imp_??0ioHashString@@QAE@ABV0@@Z
  00021	8a 47 18	 mov	 al, BYTE PTR [edi+24]
  00024	88 46 18	 mov	 BYTE PTR [esi+24], al
  00027	5f		 pop	 edi
  00028	8b c6		 mov	 eax, esi
  0002a	5e		 pop	 esi
  0002b	5d		 pop	 ebp
  0002c	c2 04 00	 ret	 4
??0tagAlchemicItemInfo@@QAE@ABU0@@Z ENDP		; tagAlchemicItemInfo::tagAlchemicItemInfo
_TEXT	ENDS
PUBLIC	??4tagAlchemicItemInfo@@QAEAAU0@ABU0@@Z		; tagAlchemicItemInfo::operator=
EXTRN	__imp_??4ioHashString@@QAEAAV0@ABV0@@Z:PROC
; Function compile flags: /Ogsp
;	COMDAT ??4tagAlchemicItemInfo@@QAEAAU0@ABU0@@Z
_TEXT	SEGMENT
___that$ = 8						; size = 4
??4tagAlchemicItemInfo@@QAEAAU0@ABU0@@Z PROC		; tagAlchemicItemInfo::operator=, COMDAT
; _this$ = ecx
  00000	55		 push	 ebp
  00001	8b ec		 mov	 ebp, esp
  00003	56		 push	 esi
  00004	57		 push	 edi
  00005	8b 7d 08	 mov	 edi, DWORD PTR ___that$[ebp]
  00008	8b 07		 mov	 eax, DWORD PTR [edi]
  0000a	8b f1		 mov	 esi, ecx
  0000c	89 06		 mov	 DWORD PTR [esi], eax
  0000e	8b 47 04	 mov	 eax, DWORD PTR [edi+4]
  00011	89 46 04	 mov	 DWORD PTR [esi+4], eax
  00014	8d 47 08	 lea	 eax, DWORD PTR [edi+8]
  00017	50		 push	 eax
  00018	8d 4e 08	 lea	 ecx, DWORD PTR [esi+8]
  0001b	ff 15 00 00 00
	00		 call	 DWORD PTR __imp_??4ioHashString@@QAEAAV0@ABV0@@Z
  00021	8a 47 18	 mov	 al, BYTE PTR [edi+24]
  00024	88 46 18	 mov	 BYTE PTR [esi+24], al
  00027	5f		 pop	 edi
  00028	8b c6		 mov	 eax, esi
  0002a	5e		 pop	 esi
  0002b	5d		 pop	 ebp
  0002c	c2 04 00	 ret	 4
??4tagAlchemicItemInfo@@QAEAAU0@ABU0@@Z ENDP		; tagAlchemicItemInfo::operator=
_TEXT	ENDS
PUBLIC	??$move@AAUtagAlchemicItemInfo@@@std@@YA$$QAUtagAlchemicItemInfo@@AAU1@@Z ; std::move<tagAlchemicItemInfo &>
; Function compile flags: /Ogsp
; File c:\program files (x86)\microsoft visual studio 10.0\vc\include\utility
;	COMDAT ??$move@AAUtagAlchemicItemInfo@@@std@@YA$$QAUtagAlchemicItemInfo@@AAU1@@Z
_TEXT	SEGMENT
__Arg$ = 8						; size = 4
??$move@AAUtagAlchemicItemInfo@@@std@@YA$$QAUtagAlchemicItemInfo@@AAU1@@Z PROC ; std::move<tagAlchemicItemInfo &>, COMDAT

; 86   : 	{	// forward _Arg as movable

  00000	55		 push	 ebp
  00001	8b ec		 mov	 ebp, esp

; 87   : 	return ((typename tr1::_Remove_reference<_Ty>::_Type&&)_Arg);

  00003	8b 45 08	 mov	 eax, DWORD PTR __Arg$[ebp]

; 88   : 	}

  00006	5d		 pop	 ebp
  00007	c3		 ret	 0
??$move@AAUtagAlchemicItemInfo@@@std@@YA$$QAUtagAlchemicItemInfo@@AAU1@@Z ENDP ; std::move<tagAlchemicItemInfo &>
_TEXT	ENDS
PUBLIC	??$move@AAUAlchemicItem@ioAlchemicInventory@@@std@@YA$$QAUAlchemicItem@ioAlchemicInventory@@AAU12@@Z ; std::move<ioAlchemicInventory::AlchemicItem &>
; Function compile flags: /Ogsp
;	COMDAT ??$move@AAUAlchemicItem@ioAlchemicInventory@@@std@@YA$$QAUAlchemicItem@ioAlchemicInventory@@AAU12@@Z
_TEXT	SEGMENT
__Arg$ = 8						; size = 4
??$move@AAUAlchemicItem@ioAlchemicInventory@@@std@@YA$$QAUAlchemicItem@ioAlchemicInventory@@AAU12@@Z PROC ; std::move<ioAlchemicInventory::AlchemicItem &>, COMDAT

; 86   : 	{	// forward _Arg as movable

  00000	55		 push	 ebp
  00001	8b ec		 mov	 ebp, esp

; 87   : 	return ((typename tr1::_Remove_reference<_Ty>::_Type&&)_Arg);

  00003	8b 45 08	 mov	 eax, DWORD PTR __Arg$[ebp]

; 88   : 	}

  00006	5d		 pop	 ebp
  00007	c3		 ret	 0
??$move@AAUAlchemicItem@ioAlchemicInventory@@@std@@YA$$QAUAlchemicItem@ioAlchemicInventory@@AAU12@@Z ENDP ; std::move<ioAlchemicInventory::AlchemicItem &>
_TEXT	ENDS
PUBLIC	??$_Val_type@PAUtagAlchemicItemInfo@@@std@@YAPAUtagAlchemicItemInfo@@PAU1@@Z ; std::_Val_type<tagAlchemicItemInfo *>
; Function compile flags: /Ogsp
; File c:\program files (x86)\microsoft visual studio 10.0\vc\include\xutility
;	COMDAT ??$_Val_type@PAUtagAlchemicItemInfo@@@std@@YAPAUtagAlchemicItemInfo@@PAU1@@Z
_TEXT	SEGMENT
___formal$ = 8						; size = 4
??$_Val_type@PAUtagAlchemicItemInfo@@@std@@YAPAUtagAlchemicItemInfo@@PAU1@@Z PROC ; std::_Val_type<tagAlchemicItemInfo *>, COMDAT

; 790  : 	return (0);

  00000	33 c0		 xor	 eax, eax

; 791  : 	}

  00002	c3		 ret	 0
??$_Val_type@PAUtagAlchemicItemInfo@@@std@@YAPAUtagAlchemicItemInfo@@PAU1@@Z ENDP ; std::_Val_type<tagAlchemicItemInfo *>
_TEXT	ENDS
PUBLIC	??$_Val_type@PAUAlchemicItem@ioAlchemicInventory@@@std@@YAPAUAlchemicItem@ioAlchemicInventory@@PAU12@@Z ; std::_Val_type<ioAlchemicInventory::AlchemicItem *>
; Function compile flags: /Ogsp
;	COMDAT ??$_Val_type@PAUAlchemicItem@ioAlchemicInventory@@@std@@YAPAUAlchemicItem@ioAlchemicInventory@@PAU12@@Z
_TEXT	SEGMENT
___formal$ = 8						; size = 4
??$_Val_type@PAUAlchemicItem@ioAlchemicInventory@@@std@@YAPAUAlchemicItem@ioAlchemicInventory@@PAU12@@Z PROC ; std::_Val_type<ioAlchemicInventory::AlchemicItem *>, COMDAT

; 790  : 	return (0);

  00000	33 c0		 xor	 eax, eax

; 791  : 	}

  00002	c3		 ret	 0
??$_Val_type@PAUAlchemicItem@ioAlchemicInventory@@@std@@YAPAUAlchemicItem@ioAlchemicInventory@@PAU12@@Z ENDP ; std::_Val_type<ioAlchemicInventory::AlchemicItem *>
_TEXT	ENDS
PUBLIC	??$_Destroy@UAlchemicItem@ioAlchemicInventory@@@std@@YAXPAUAlchemicItem@ioAlchemicInventory@@@Z ; std::_Destroy<ioAlchemicInventory::AlchemicItem>
; Function compile flags: /Ogsp
; File c:\program files (x86)\microsoft visual studio 10.0\vc\include\xmemory
;	COMDAT ??$_Destroy@UAlchemicItem@ioAlchemicInventory@@@std@@YAXPAUAlchemicItem@ioAlchemicInventory@@@Z
_TEXT	SEGMENT
__Ptr$ = 8						; size = 4
??$_Destroy@UAlchemicItem@ioAlchemicInventory@@@std@@YAXPAUAlchemicItem@ioAlchemicInventory@@@Z PROC ; std::_Destroy<ioAlchemicInventory::AlchemicItem>, COMDAT

; 63   : 	_Ptr->~_Ty();
; 64   : 	}

  00000	c3		 ret	 0
??$_Destroy@UAlchemicItem@ioAlchemicInventory@@@std@@YAXPAUAlchemicItem@ioAlchemicInventory@@@Z ENDP ; std::_Destroy<ioAlchemicInventory::AlchemicItem>
_TEXT	ENDS
PUBLIC	??_GtagAlchemicItemInfo@@QAEPAXI@Z		; tagAlchemicItemInfo::`scalar deleting destructor'
; Function compile flags: /Ogsp
;	COMDAT ??_GtagAlchemicItemInfo@@QAEPAXI@Z
_TEXT	SEGMENT
___flags$ = 8						; size = 4
??_GtagAlchemicItemInfo@@QAEPAXI@Z PROC			; tagAlchemicItemInfo::`scalar deleting destructor', COMDAT
; _this$ = ecx
  00000	55		 push	 ebp
  00001	8b ec		 mov	 ebp, esp
  00003	56		 push	 esi
  00004	8b f1		 mov	 esi, ecx
  00006	8d 4e 08	 lea	 ecx, DWORD PTR [esi+8]
  00009	ff 15 00 00 00
	00		 call	 DWORD PTR __imp_??1ioHashString@@QAE@XZ
  0000f	f6 45 08 01	 test	 BYTE PTR ___flags$[ebp], 1
  00013	74 07		 je	 SHORT $LN1@scalar@2
  00015	56		 push	 esi
  00016	e8 00 00 00 00	 call	 ??3@YAXPAX@Z		; operator delete
  0001b	59		 pop	 ecx
$LN1@scalar@2:
  0001c	8b c6		 mov	 eax, esi
  0001e	5e		 pop	 esi
  0001f	5d		 pop	 ebp
  00020	c2 04 00	 ret	 4
??_GtagAlchemicItemInfo@@QAEPAXI@Z ENDP			; tagAlchemicItemInfo::`scalar deleting destructor'
_TEXT	ENDS
PUBLIC	??$forward@UtagAlchemicItemInfo@@@std@@YA$$QAUtagAlchemicItemInfo@@AAU1@@Z ; std::forward<tagAlchemicItemInfo>
; Function compile flags: /Ogsp
; File c:\program files (x86)\microsoft visual studio 10.0\vc\include\utility
;	COMDAT ??$forward@UtagAlchemicItemInfo@@@std@@YA$$QAUtagAlchemicItemInfo@@AAU1@@Z
_TEXT	SEGMENT
__Arg$ = 8						; size = 4
??$forward@UtagAlchemicItemInfo@@@std@@YA$$QAUtagAlchemicItemInfo@@AAU1@@Z PROC ; std::forward<tagAlchemicItemInfo>, COMDAT

; 78   : 	{	// forward _Arg, given explicitly specified type parameter

  00000	55		 push	 ebp
  00001	8b ec		 mov	 ebp, esp

; 79   : 	return ((_Ty&&)_Arg);

  00003	8b 45 08	 mov	 eax, DWORD PTR __Arg$[ebp]

; 80   : 	}

  00006	5d		 pop	 ebp
  00007	c3		 ret	 0
??$forward@UtagAlchemicItemInfo@@@std@@YA$$QAUtagAlchemicItemInfo@@AAU1@@Z ENDP ; std::forward<tagAlchemicItemInfo>
_TEXT	ENDS
PUBLIC	??$forward@UAlchemicItem@ioAlchemicInventory@@@std@@YA$$QAUAlchemicItem@ioAlchemicInventory@@AAU12@@Z ; std::forward<ioAlchemicInventory::AlchemicItem>
; Function compile flags: /Ogsp
;	COMDAT ??$forward@UAlchemicItem@ioAlchemicInventory@@@std@@YA$$QAUAlchemicItem@ioAlchemicInventory@@AAU12@@Z
_TEXT	SEGMENT
__Arg$ = 8						; size = 4
??$forward@UAlchemicItem@ioAlchemicInventory@@@std@@YA$$QAUAlchemicItem@ioAlchemicInventory@@AAU12@@Z PROC ; std::forward<ioAlchemicInventory::AlchemicItem>, COMDAT

; 78   : 	{	// forward _Arg, given explicitly specified type parameter

  00000	55		 push	 ebp
  00001	8b ec		 mov	 ebp, esp

; 79   : 	return ((_Ty&&)_Arg);

  00003	8b 45 08	 mov	 eax, DWORD PTR __Arg$[ebp]

; 80   : 	}

  00006	5d		 pop	 ebp
  00007	c3		 ret	 0
??$forward@UAlchemicItem@ioAlchemicInventory@@@std@@YA$$QAUAlchemicItem@ioAlchemicInventory@@AAU12@@Z ENDP ; std::forward<ioAlchemicInventory::AlchemicItem>
_TEXT	ENDS
PUBLIC	?Init@tagAlchemicItemInfo@@QAEXXZ		; tagAlchemicItemInfo::Init
EXTRN	__imp_?Clear@ioHashString@@QAEXXZ:PROC
; Function compile flags: /Ogsp
; File d:\lost saga for developer\youtube\tutorial\source\src\lsclient\gui\myinventorywnd.h
;	COMDAT ?Init@tagAlchemicItemInfo@@QAEXXZ
_TEXT	SEGMENT
?Init@tagAlchemicItemInfo@@QAEXXZ PROC			; tagAlchemicItemInfo::Init, COMDAT
; _this$ = ecx

; 384  : 	{

  00000	56		 push	 esi
  00001	8b f1		 mov	 esi, ecx

; 385  : 		m_iCode = 0;

  00003	83 26 00	 and	 DWORD PTR [esi], 0

; 386  : 		m_iCount = 0;

  00006	83 66 04 00	 and	 DWORD PTR [esi+4], 0

; 387  : 
; 388  : 		m_szIcon.Clear();

  0000a	8d 4e 08	 lea	 ecx, DWORD PTR [esi+8]
  0000d	ff 15 00 00 00
	00		 call	 DWORD PTR __imp_?Clear@ioHashString@@QAEXXZ

; 389  : 
; 390  : 		m_bNewAdd = false;

  00013	c6 46 18 00	 mov	 BYTE PTR [esi+24], 0
  00017	5e		 pop	 esi

; 391  : 	}

  00018	c3		 ret	 0
?Init@tagAlchemicItemInfo@@QAEXXZ ENDP			; tagAlchemicItemInfo::Init
_TEXT	ENDS
PUBLIC	?Init@AlchemicItem@ioAlchemicInventory@@QAEXXZ	; ioAlchemicInventory::AlchemicItem::Init
; Function compile flags: /Ogsp
; File d:\lost saga for developer\youtube\tutorial\source\src\lsclient\ioalchemicinventory.h
;	COMDAT ?Init@AlchemicItem@ioAlchemicInventory@@QAEXXZ
_TEXT	SEGMENT
?Init@AlchemicItem@ioAlchemicInventory@@QAEXXZ PROC	; ioAlchemicInventory::AlchemicItem::Init, COMDAT
; _this$ = ecx

; 32   : 			m_iCode = 0;

  00000	33 c0		 xor	 eax, eax
  00002	89 01		 mov	 DWORD PTR [ecx], eax

; 33   : 			m_iCount = 0;

  00004	89 41 04	 mov	 DWORD PTR [ecx+4], eax

; 34   : 			m_iValue1 = 0;

  00007	89 41 08	 mov	 DWORD PTR [ecx+8], eax

; 35   : 			m_iValue2 = 0;

  0000a	89 41 0c	 mov	 DWORD PTR [ecx+12], eax

; 36   : 
; 37   : 			m_bNewAdd = false;

  0000d	88 41 10	 mov	 BYTE PTR [ecx+16], al

; 38   : 		}

  00010	c3		 ret	 0
?Init@AlchemicItem@ioAlchemicInventory@@QAEXXZ ENDP	; ioAlchemicInventory::AlchemicItem::Init
_TEXT	ENDS
EXTRN	__imp_??0exception@std@@QAE@ABV01@@Z:PROC
; Function compile flags: /Ogsp
;	COMDAT ??0bad_alloc@std@@QAE@ABV01@@Z
_TEXT	SEGMENT
___that$ = 8						; size = 4
??0bad_alloc@std@@QAE@ABV01@@Z PROC			; std::bad_alloc::bad_alloc, COMDAT
; _this$ = ecx
  00000	55		 push	 ebp
  00001	8b ec		 mov	 ebp, esp
  00003	56		 push	 esi
  00004	ff 75 08	 push	 DWORD PTR ___that$[ebp]
  00007	8b f1		 mov	 esi, ecx
  00009	ff 15 00 00 00
	00		 call	 DWORD PTR __imp_??0exception@std@@QAE@ABV01@@Z
  0000f	c7 06 00 00 00
	00		 mov	 DWORD PTR [esi], OFFSET ??_7bad_alloc@std@@6B@
  00015	8b c6		 mov	 eax, esi
  00017	5e		 pop	 esi
  00018	5d		 pop	 ebp
  00019	c2 04 00	 ret	 4
??0bad_alloc@std@@QAE@ABV01@@Z ENDP			; std::bad_alloc::bad_alloc
_TEXT	ENDS
PUBLIC	??0?$_Vector_iterator@V?$_Vector_val@UAlchemicItem@ioAlchemicInventory@@V?$allocator@UAlchemicItem@ioAlchemicInventory@@@std@@@std@@@std@@QAE@XZ ; std::_Vector_iterator<std::_Vector_val<ioAlchemicInventory::AlchemicItem,std::allocator<ioAlchemicInventory::AlchemicItem> > >::_Vector_iterator<std::_Vector_val<ioAlchemicInventory::AlchemicItem,std::allocator<ioAlchemicInventory::AlchemicItem> > >
; Function compile flags: /Ogsp
; File c:\program files (x86)\microsoft visual studio 10.0\vc\include\vector
;	COMDAT ??0?$_Vector_iterator@V?$_Vector_val@UAlchemicItem@ioAlchemicInventory@@V?$allocator@UAlchemicItem@ioAlchemicInventory@@@std@@@std@@@std@@QAE@XZ
_TEXT	SEGMENT
??0?$_Vector_iterator@V?$_Vector_val@UAlchemicItem@ioAlchemicInventory@@V?$allocator@UAlchemicItem@ioAlchemicInventory@@@std@@@std@@@std@@QAE@XZ PROC ; std::_Vector_iterator<std::_Vector_val<ioAlchemicInventory::AlchemicItem,std::allocator<ioAlchemicInventory::AlchemicItem> > >::_Vector_iterator<std::_Vector_val<ioAlchemicInventory::AlchemicItem,std::allocator<ioAlchemicInventory::AlchemicItem> > >, COMDAT
; _this$ = ecx

; 298  : 	_Vector_iterator()

  00000	8b c1		 mov	 eax, ecx
  00002	83 20 00	 and	 DWORD PTR [eax], 0

; 299  : 		{	// construct with null vector pointer
; 300  : 		}

  00005	c3		 ret	 0
??0?$_Vector_iterator@V?$_Vector_val@UAlchemicItem@ioAlchemicInventory@@V?$allocator@UAlchemicItem@ioAlchemicInventory@@@std@@@std@@@std@@QAE@XZ ENDP ; std::_Vector_iterator<std::_Vector_val<ioAlchemicInventory::AlchemicItem,std::allocator<ioAlchemicInventory::AlchemicItem> > >::_Vector_iterator<std::_Vector_val<ioAlchemicInventory::AlchemicItem,std::allocator<ioAlchemicInventory::AlchemicItem> > >
_TEXT	ENDS
PUBLIC	??D?$_Vector_iterator@V?$_Vector_val@UAlchemicItem@ioAlchemicInventory@@V?$allocator@UAlchemicItem@ioAlchemicInventory@@@std@@@std@@@std@@QBEAAUAlchemicItem@ioAlchemicInventory@@XZ ; std::_Vector_iterator<std::_Vector_val<ioAlchemicInventory::AlchemicItem,std::allocator<ioAlchemicInventory::AlchemicItem> > >::operator*
; Function compile flags: /Ogsp
;	COMDAT ??D?$_Vector_iterator@V?$_Vector_val@UAlchemicItem@ioAlchemicInventory@@V?$allocator@UAlchemicItem@ioAlchemicInventory@@@std@@@std@@@std@@QBEAAUAlchemicItem@ioAlchemicInventory@@XZ
_TEXT	SEGMENT
??D?$_Vector_iterator@V?$_Vector_val@UAlchemicItem@ioAlchemicInventory@@V?$allocator@UAlchemicItem@ioAlchemicInventory@@@std@@@std@@@std@@QBEAAUAlchemicItem@ioAlchemicInventory@@XZ PROC ; std::_Vector_iterator<std::_Vector_val<ioAlchemicInventory::AlchemicItem,std::allocator<ioAlchemicInventory::AlchemicItem> > >::operator*, COMDAT
; _this$ = ecx

; 322  : 		return ((reference)**(_Mybase *)this);

  00000	8b 01		 mov	 eax, DWORD PTR [ecx]

; 323  : 		}

  00002	c3		 ret	 0
??D?$_Vector_iterator@V?$_Vector_val@UAlchemicItem@ioAlchemicInventory@@V?$allocator@UAlchemicItem@ioAlchemicInventory@@@std@@@std@@@std@@QBEAAUAlchemicItem@ioAlchemicInventory@@XZ ENDP ; std::_Vector_iterator<std::_Vector_val<ioAlchemicInventory::AlchemicItem,std::allocator<ioAlchemicInventory::AlchemicItem> > >::operator*
_TEXT	ENDS
PUBLIC	??0?$_Vector_val@UAlchemicItem@ioAlchemicInventory@@V?$allocator@UAlchemicItem@ioAlchemicInventory@@@std@@@std@@QAE@V?$allocator@UAlchemicItem@ioAlchemicInventory@@@1@@Z ; std::_Vector_val<ioAlchemicInventory::AlchemicItem,std::allocator<ioAlchemicInventory::AlchemicItem> >::_Vector_val<ioAlchemicInventory::AlchemicItem,std::allocator<ioAlchemicInventory::AlchemicItem> >
; Function compile flags: /Ogsp
;	COMDAT ??0?$_Vector_val@UAlchemicItem@ioAlchemicInventory@@V?$allocator@UAlchemicItem@ioAlchemicInventory@@@std@@@std@@QAE@V?$allocator@UAlchemicItem@ioAlchemicInventory@@@1@@Z
_TEXT	SEGMENT
__Al$ = 8						; size = 1
??0?$_Vector_val@UAlchemicItem@ioAlchemicInventory@@V?$allocator@UAlchemicItem@ioAlchemicInventory@@@std@@@std@@QAE@V?$allocator@UAlchemicItem@ioAlchemicInventory@@@1@@Z PROC ; std::_Vector_val<ioAlchemicInventory::AlchemicItem,std::allocator<ioAlchemicInventory::AlchemicItem> >::_Vector_val<ioAlchemicInventory::AlchemicItem,std::allocator<ioAlchemicInventory::AlchemicItem> >, COMDAT
; _this$ = ecx

; 426  : 		{	// construct allocator from _Al

  00000	8b c1		 mov	 eax, ecx

; 427  : 		_Myfirst = 0;

  00002	33 c9		 xor	 ecx, ecx
  00004	89 08		 mov	 DWORD PTR [eax], ecx

; 428  : 		_Mylast = 0;

  00006	89 48 04	 mov	 DWORD PTR [eax+4], ecx

; 429  : 		_Myend = 0;

  00009	89 48 08	 mov	 DWORD PTR [eax+8], ecx

; 430  : 		}

  0000c	c2 04 00	 ret	 4
??0?$_Vector_val@UAlchemicItem@ioAlchemicInventory@@V?$allocator@UAlchemicItem@ioAlchemicInventory@@@std@@@std@@QAE@V?$allocator@UAlchemicItem@ioAlchemicInventory@@@1@@Z ENDP ; std::_Vector_val<ioAlchemicInventory::AlchemicItem,std::allocator<ioAlchemicInventory::AlchemicItem> >::_Vector_val<ioAlchemicInventory::AlchemicItem,std::allocator<ioAlchemicInventory::AlchemicItem> >
_TEXT	ENDS
PUBLIC	??0?$_Vector_iterator@V?$_Vector_val@UAlchemicItem@ioAlchemicInventory@@V?$allocator@UAlchemicItem@ioAlchemicInventory@@@std@@@std@@@std@@QAE@PAUAlchemicItem@ioAlchemicInventory@@PBU_Container_base0@1@@Z ; std::_Vector_iterator<std::_Vector_val<ioAlchemicInventory::AlchemicItem,std::allocator<ioAlchemicInventory::AlchemicItem> > >::_Vector_iterator<std::_Vector_val<ioAlchemicInventory::AlchemicItem,std::allocator<ioAlchemicInventory::AlchemicItem> > >
; Function compile flags: /Ogsp
;	COMDAT ??0?$_Vector_iterator@V?$_Vector_val@UAlchemicItem@ioAlchemicInventory@@V?$allocator@UAlchemicItem@ioAlchemicInventory@@@std@@@std@@@std@@QAE@PAUAlchemicItem@ioAlchemicInventory@@PBU_Container_base0@1@@Z
_TEXT	SEGMENT
__Parg$ = 8						; size = 4
__Pvector$ = 12						; size = 4
??0?$_Vector_iterator@V?$_Vector_val@UAlchemicItem@ioAlchemicInventory@@V?$allocator@UAlchemicItem@ioAlchemicInventory@@@std@@@std@@@std@@QAE@PAUAlchemicItem@ioAlchemicInventory@@PBU_Container_base0@1@@Z PROC ; std::_Vector_iterator<std::_Vector_val<ioAlchemicInventory::AlchemicItem,std::allocator<ioAlchemicInventory::AlchemicItem> > >::_Vector_iterator<std::_Vector_val<ioAlchemicInventory::AlchemicItem,std::allocator<ioAlchemicInventory::AlchemicItem> > >, COMDAT
; _this$ = ecx

; 304  : 		{	// construct with pointer _Parg

  00000	55		 push	 ebp
  00001	8b ec		 mov	 ebp, esp
  00003	8b c1		 mov	 eax, ecx
  00005	8b 4d 08	 mov	 ecx, DWORD PTR __Parg$[ebp]
  00008	89 08		 mov	 DWORD PTR [eax], ecx

; 305  : 		}

  0000a	5d		 pop	 ebp
  0000b	c2 08 00	 ret	 8
??0?$_Vector_iterator@V?$_Vector_val@UAlchemicItem@ioAlchemicInventory@@V?$allocator@UAlchemicItem@ioAlchemicInventory@@@std@@@std@@@std@@QAE@PAUAlchemicItem@ioAlchemicInventory@@PBU_Container_base0@1@@Z ENDP ; std::_Vector_iterator<std::_Vector_val<ioAlchemicInventory::AlchemicItem,std::allocator<ioAlchemicInventory::AlchemicItem> > >::_Vector_iterator<std::_Vector_val<ioAlchemicInventory::AlchemicItem,std::allocator<ioAlchemicInventory::AlchemicItem> > >
_TEXT	ENDS
PUBLIC	??E?$_Vector_iterator@V?$_Vector_val@UAlchemicItem@ioAlchemicInventory@@V?$allocator@UAlchemicItem@ioAlchemicInventory@@@std@@@std@@@std@@QAEAAV01@XZ ; std::_Vector_iterator<std::_Vector_val<ioAlchemicInventory::AlchemicItem,std::allocator<ioAlchemicInventory::AlchemicItem> > >::operator++
; Function compile flags: /Ogsp
;	COMDAT ??E?$_Vector_iterator@V?$_Vector_val@UAlchemicItem@ioAlchemicInventory@@V?$allocator@UAlchemicItem@ioAlchemicInventory@@@std@@@std@@@std@@QAEAAV01@XZ
_TEXT	SEGMENT
??E?$_Vector_iterator@V?$_Vector_val@UAlchemicItem@ioAlchemicInventory@@V?$allocator@UAlchemicItem@ioAlchemicInventory@@@std@@@std@@@std@@QAEAAV01@XZ PROC ; std::_Vector_iterator<std::_Vector_val<ioAlchemicInventory::AlchemicItem,std::allocator<ioAlchemicInventory::AlchemicItem> > >::operator++, COMDAT
; _this$ = ecx

; 331  : 		{	// preincrement

  00000	8b c1		 mov	 eax, ecx

; 332  : 		++*(_Mybase *)this;

  00002	83 00 14	 add	 DWORD PTR [eax], 20	; 00000014H

; 333  : 		return (*this);
; 334  : 		}

  00005	c3		 ret	 0
??E?$_Vector_iterator@V?$_Vector_val@UAlchemicItem@ioAlchemicInventory@@V?$allocator@UAlchemicItem@ioAlchemicInventory@@@std@@@std@@@std@@QAEAAV01@XZ ENDP ; std::_Vector_iterator<std::_Vector_val<ioAlchemicInventory::AlchemicItem,std::allocator<ioAlchemicInventory::AlchemicItem> > >::operator++
_TEXT	ENDS
PUBLIC	??8?$_Vector_const_iterator@V?$_Vector_val@UAlchemicItem@ioAlchemicInventory@@V?$allocator@UAlchemicItem@ioAlchemicInventory@@@std@@@std@@@std@@QBE_NABV01@@Z ; std::_Vector_const_iterator<std::_Vector_val<ioAlchemicInventory::AlchemicItem,std::allocator<ioAlchemicInventory::AlchemicItem> > >::operator==
; Function compile flags: /Ogsp
;	COMDAT ??8?$_Vector_const_iterator@V?$_Vector_val@UAlchemicItem@ioAlchemicInventory@@V?$allocator@UAlchemicItem@ioAlchemicInventory@@@std@@@std@@@std@@QBE_NABV01@@Z
_TEXT	SEGMENT
__Right$ = 8						; size = 4
??8?$_Vector_const_iterator@V?$_Vector_val@UAlchemicItem@ioAlchemicInventory@@V?$allocator@UAlchemicItem@ioAlchemicInventory@@@std@@@std@@@std@@QBE_NABV01@@Z PROC ; std::_Vector_const_iterator<std::_Vector_val<ioAlchemicInventory::AlchemicItem,std::allocator<ioAlchemicInventory::AlchemicItem> > >::operator==, COMDAT
; _this$ = ecx

; 201  : 		{	// test for iterator equality

  00000	55		 push	 ebp
  00001	8b ec		 mov	 ebp, esp

; 202  : 		_Compat(_Right);
; 203  : 		return (this->_Ptr == _Right._Ptr);

  00003	8b 01		 mov	 eax, DWORD PTR [ecx]
  00005	8b 4d 08	 mov	 ecx, DWORD PTR __Right$[ebp]
  00008	2b 01		 sub	 eax, DWORD PTR [ecx]
  0000a	f7 d8		 neg	 eax
  0000c	1b c0		 sbb	 eax, eax
  0000e	40		 inc	 eax

; 204  : 		}

  0000f	5d		 pop	 ebp
  00010	c2 04 00	 ret	 4
??8?$_Vector_const_iterator@V?$_Vector_val@UAlchemicItem@ioAlchemicInventory@@V?$allocator@UAlchemicItem@ioAlchemicInventory@@@std@@@std@@@std@@QBE_NABV01@@Z ENDP ; std::_Vector_const_iterator<std::_Vector_val<ioAlchemicInventory::AlchemicItem,std::allocator<ioAlchemicInventory::AlchemicItem> > >::operator==
_TEXT	ENDS
PUBLIC	?max_size@?$vector@UtagAlchemicItemInfo@@V?$allocator@UtagAlchemicItemInfo@@@std@@@std@@QBEIXZ ; std::vector<tagAlchemicItemInfo,std::allocator<tagAlchemicItemInfo> >::max_size
; Function compile flags: /Ogsp
;	COMDAT ?max_size@?$vector@UtagAlchemicItemInfo@@V?$allocator@UtagAlchemicItemInfo@@@std@@@std@@QBEIXZ
_TEXT	SEGMENT
?max_size@?$vector@UtagAlchemicItemInfo@@V?$allocator@UtagAlchemicItemInfo@@@std@@@std@@QBEIXZ PROC ; std::vector<tagAlchemicItemInfo,std::allocator<tagAlchemicItemInfo> >::max_size, COMDAT
; _this$ = ecx

; 884  : 		return (this->_Alval.max_size());

  00000	b8 49 92 24 09	 mov	 eax, 153391689		; 09249249H

; 885  : 		}

  00005	c3		 ret	 0
?max_size@?$vector@UtagAlchemicItemInfo@@V?$allocator@UtagAlchemicItemInfo@@@std@@@std@@QBEIXZ ENDP ; std::vector<tagAlchemicItemInfo,std::allocator<tagAlchemicItemInfo> >::max_size
_TEXT	ENDS
PUBLIC	?_Grow_to@?$vector@UtagAlchemicItemInfo@@V?$allocator@UtagAlchemicItemInfo@@@std@@@std@@IBEII@Z ; std::vector<tagAlchemicItemInfo,std::allocator<tagAlchemicItemInfo> >::_Grow_to
; Function compile flags: /Ogsp
;	COMDAT ?_Grow_to@?$vector@UtagAlchemicItemInfo@@V?$allocator@UtagAlchemicItemInfo@@@std@@@std@@IBEII@Z
_TEXT	SEGMENT
__Count$ = 8						; size = 4
?_Grow_to@?$vector@UtagAlchemicItemInfo@@V?$allocator@UtagAlchemicItemInfo@@@std@@@std@@IBEII@Z PROC ; std::vector<tagAlchemicItemInfo,std::allocator<tagAlchemicItemInfo> >::_Grow_to, COMDAT
; _this$ = ecx

; 1274 : 		{	// grow by 50% or at least to _Count

  00000	55		 push	 ebp
  00001	8b ec		 mov	 ebp, esp

; 1275 : 		size_type _Capacity = capacity();

  00003	8b 41 08	 mov	 eax, DWORD PTR [ecx+8]
  00006	2b 01		 sub	 eax, DWORD PTR [ecx]
  00008	6a 1c		 push	 28			; 0000001cH
  0000a	99		 cdq
  0000b	59		 pop	 ecx
  0000c	f7 f9		 idiv	 ecx

; 1276 : 
; 1277 : 		_Capacity = max_size() - _Capacity / 2 < _Capacity
; 1278 : 			? 0 : _Capacity + _Capacity / 2;	// try to grow by 50%

  0000e	ba 49 92 24 09	 mov	 edx, 153391689		; 09249249H
  00013	8b c8		 mov	 ecx, eax
  00015	d1 e9		 shr	 ecx, 1
  00017	2b d1		 sub	 edx, ecx
  00019	3b d0		 cmp	 edx, eax
  0001b	73 04		 jae	 SHORT $LN4@Grow_to
  0001d	33 c0		 xor	 eax, eax
  0001f	eb 02		 jmp	 SHORT $LN5@Grow_to
$LN4@Grow_to:
  00021	03 c1		 add	 eax, ecx
$LN5@Grow_to:

; 1279 : 		if (_Capacity < _Count)

  00023	3b 45 08	 cmp	 eax, DWORD PTR __Count$[ebp]

; 1280 : 			_Capacity = _Count;

  00026	0f 42 45 08	 cmovb	 eax, DWORD PTR __Count$[ebp]

; 1281 : 		return (_Capacity);
; 1282 : 		}

  0002a	5d		 pop	 ebp
  0002b	c2 04 00	 ret	 4
?_Grow_to@?$vector@UtagAlchemicItemInfo@@V?$allocator@UtagAlchemicItemInfo@@@std@@@std@@IBEII@Z ENDP ; std::vector<tagAlchemicItemInfo,std::allocator<tagAlchemicItemInfo> >::_Grow_to
_TEXT	ENDS
PUBLIC	?_Make_iter@?$vector@UAlchemicItem@ioAlchemicInventory@@V?$allocator@UAlchemicItem@ioAlchemicInventory@@@std@@@std@@QBE?AV?$_Vector_iterator@V?$_Vector_val@UAlchemicItem@ioAlchemicInventory@@V?$allocator@UAlchemicItem@ioAlchemicInventory@@@std@@@std@@@2@V?$_Vector_const_iterator@V?$_Vector_val@UAlchemicItem@ioAlchemicInventory@@V?$allocator@UAlchemicItem@ioAlchemicInventory@@@std@@@std@@@2@@Z ; std::vector<ioAlchemicInventory::AlchemicItem,std::allocator<ioAlchemicInventory::AlchemicItem> >::_Make_iter
; Function compile flags: /Ogsp
;	COMDAT ?_Make_iter@?$vector@UAlchemicItem@ioAlchemicInventory@@V?$allocator@UAlchemicItem@ioAlchemicInventory@@@std@@@std@@QBE?AV?$_Vector_iterator@V?$_Vector_val@UAlchemicItem@ioAlchemicInventory@@V?$allocator@UAlchemicItem@ioAlchemicInventory@@@std@@@std@@@2@V?$_Vector_const_iterator@V?$_Vector_val@UAlchemicItem@ioAlchemicInventory@@V?$allocator@UAlchemicItem@ioAlchemicInventory@@@std@@@std@@@2@@Z
_TEXT	SEGMENT
___$ReturnUdt$ = 8					; size = 4
__Where$ = 12						; size = 4
?_Make_iter@?$vector@UAlchemicItem@ioAlchemicInventory@@V?$allocator@UAlchemicItem@ioAlchemicInventory@@@std@@@std@@QBE?AV?$_Vector_iterator@V?$_Vector_val@UAlchemicItem@ioAlchemicInventory@@V?$allocator@UAlchemicItem@ioAlchemicInventory@@@std@@@std@@@2@V?$_Vector_const_iterator@V?$_Vector_val@UAlchemicItem@ioAlchemicInventory@@V?$allocator@UAlchemicItem@ioAlchemicInventory@@@std@@@std@@@2@@Z PROC ; std::vector<ioAlchemicInventory::AlchemicItem,std::allocator<ioAlchemicInventory::AlchemicItem> >::_Make_iter, COMDAT
; _this$ = ecx

; 801  : 		{	// make iterator from const_iterator

  00000	55		 push	 ebp
  00001	8b ec		 mov	 ebp, esp

; 802  : 		return (iterator(_Where._Ptr, this));

  00003	8b 45 08	 mov	 eax, DWORD PTR ___$ReturnUdt$[ebp]
  00006	8b 4d 0c	 mov	 ecx, DWORD PTR __Where$[ebp]
  00009	89 08		 mov	 DWORD PTR [eax], ecx

; 803  : 		}

  0000b	5d		 pop	 ebp
  0000c	c2 08 00	 ret	 8
?_Make_iter@?$vector@UAlchemicItem@ioAlchemicInventory@@V?$allocator@UAlchemicItem@ioAlchemicInventory@@@std@@@std@@QBE?AV?$_Vector_iterator@V?$_Vector_val@UAlchemicItem@ioAlchemicInventory@@V?$allocator@UAlchemicItem@ioAlchemicInventory@@@std@@@std@@@2@V?$_Vector_const_iterator@V?$_Vector_val@UAlchemicItem@ioAlchemicInventory@@V?$allocator@UAlchemicItem@ioAlchemicInventory@@@std@@@std@@@2@@Z ENDP ; std::vector<ioAlchemicInventory::AlchemicItem,std::allocator<ioAlchemicInventory::AlchemicItem> >::_Make_iter
_TEXT	ENDS
PUBLIC	?max_size@?$vector@UAlchemicItem@ioAlchemicInventory@@V?$allocator@UAlchemicItem@ioAlchemicInventory@@@std@@@std@@QBEIXZ ; std::vector<ioAlchemicInventory::AlchemicItem,std::allocator<ioAlchemicInventory::AlchemicItem> >::max_size
; Function compile flags: /Ogsp
;	COMDAT ?max_size@?$vector@UAlchemicItem@ioAlchemicInventory@@V?$allocator@UAlchemicItem@ioAlchemicInventory@@@std@@@std@@QBEIXZ
_TEXT	SEGMENT
?max_size@?$vector@UAlchemicItem@ioAlchemicInventory@@V?$allocator@UAlchemicItem@ioAlchemicInventory@@@std@@@std@@QBEIXZ PROC ; std::vector<ioAlchemicInventory::AlchemicItem,std::allocator<ioAlchemicInventory::AlchemicItem> >::max_size, COMDAT
; _this$ = ecx

; 884  : 		return (this->_Alval.max_size());

  00000	b8 cc cc cc 0c	 mov	 eax, 214748364		; 0cccccccH

; 885  : 		}

  00005	c3		 ret	 0
?max_size@?$vector@UAlchemicItem@ioAlchemicInventory@@V?$allocator@UAlchemicItem@ioAlchemicInventory@@@std@@@std@@QBEIXZ ENDP ; std::vector<ioAlchemicInventory::AlchemicItem,std::allocator<ioAlchemicInventory::AlchemicItem> >::max_size
_TEXT	ENDS
PUBLIC	?_Grow_to@?$vector@UAlchemicItem@ioAlchemicInventory@@V?$allocator@UAlchemicItem@ioAlchemicInventory@@@std@@@std@@IBEII@Z ; std::vector<ioAlchemicInventory::AlchemicItem,std::allocator<ioAlchemicInventory::AlchemicItem> >::_Grow_to
; Function compile flags: /Ogsp
;	COMDAT ?_Grow_to@?$vector@UAlchemicItem@ioAlchemicInventory@@V?$allocator@UAlchemicItem@ioAlchemicInventory@@@std@@@std@@IBEII@Z
_TEXT	SEGMENT
__Count$ = 8						; size = 4
?_Grow_to@?$vector@UAlchemicItem@ioAlchemicInventory@@V?$allocator@UAlchemicItem@ioAlchemicInventory@@@std@@@std@@IBEII@Z PROC ; std::vector<ioAlchemicInventory::AlchemicItem,std::allocator<ioAlchemicInventory::AlchemicItem> >::_Grow_to, COMDAT
; _this$ = ecx

; 1274 : 		{	// grow by 50% or at least to _Count

  00000	55		 push	 ebp
  00001	8b ec		 mov	 ebp, esp

; 1275 : 		size_type _Capacity = capacity();

  00003	8b 41 08	 mov	 eax, DWORD PTR [ecx+8]
  00006	2b 01		 sub	 eax, DWORD PTR [ecx]
  00008	6a 14		 push	 20			; 00000014H
  0000a	99		 cdq
  0000b	59		 pop	 ecx
  0000c	f7 f9		 idiv	 ecx

; 1276 : 
; 1277 : 		_Capacity = max_size() - _Capacity / 2 < _Capacity
; 1278 : 			? 0 : _Capacity + _Capacity / 2;	// try to grow by 50%

  0000e	ba cc cc cc 0c	 mov	 edx, 214748364		; 0cccccccH
  00013	8b c8		 mov	 ecx, eax
  00015	d1 e9		 shr	 ecx, 1
  00017	2b d1		 sub	 edx, ecx
  00019	3b d0		 cmp	 edx, eax
  0001b	73 04		 jae	 SHORT $LN4@Grow_to@2
  0001d	33 c0		 xor	 eax, eax
  0001f	eb 02		 jmp	 SHORT $LN5@Grow_to@2
$LN4@Grow_to@2:
  00021	03 c1		 add	 eax, ecx
$LN5@Grow_to@2:

; 1279 : 		if (_Capacity < _Count)

  00023	3b 45 08	 cmp	 eax, DWORD PTR __Count$[ebp]

; 1280 : 			_Capacity = _Count;

  00026	0f 42 45 08	 cmovb	 eax, DWORD PTR __Count$[ebp]

; 1281 : 		return (_Capacity);
; 1282 : 		}

  0002a	5d		 pop	 ebp
  0002b	c2 04 00	 ret	 4
?_Grow_to@?$vector@UAlchemicItem@ioAlchemicInventory@@V?$allocator@UAlchemicItem@ioAlchemicInventory@@@std@@@std@@IBEII@Z ENDP ; std::vector<ioAlchemicInventory::AlchemicItem,std::allocator<ioAlchemicInventory::AlchemicItem> >::_Grow_to
_TEXT	ENDS
PUBLIC	??0?$_Vector_iterator@V?$_Vector_val@UtagAlchemicItemInfo@@V?$allocator@UtagAlchemicItemInfo@@@std@@@std@@@std@@QAE@PAUtagAlchemicItemInfo@@PBU_Container_base0@1@@Z ; std::_Vector_iterator<std::_Vector_val<tagAlchemicItemInfo,std::allocator<tagAlchemicItemInfo> > >::_Vector_iterator<std::_Vector_val<tagAlchemicItemInfo,std::allocator<tagAlchemicItemInfo> > >
; Function compile flags: /Ogsp
;	COMDAT ??0?$_Vector_iterator@V?$_Vector_val@UtagAlchemicItemInfo@@V?$allocator@UtagAlchemicItemInfo@@@std@@@std@@@std@@QAE@PAUtagAlchemicItemInfo@@PBU_Container_base0@1@@Z
_TEXT	SEGMENT
__Parg$ = 8						; size = 4
__Pvector$ = 12						; size = 4
??0?$_Vector_iterator@V?$_Vector_val@UtagAlchemicItemInfo@@V?$allocator@UtagAlchemicItemInfo@@@std@@@std@@@std@@QAE@PAUtagAlchemicItemInfo@@PBU_Container_base0@1@@Z PROC ; std::_Vector_iterator<std::_Vector_val<tagAlchemicItemInfo,std::allocator<tagAlchemicItemInfo> > >::_Vector_iterator<std::_Vector_val<tagAlchemicItemInfo,std::allocator<tagAlchemicItemInfo> > >, COMDAT
; _this$ = ecx

; 304  : 		{	// construct with pointer _Parg

  00000	55		 push	 ebp
  00001	8b ec		 mov	 ebp, esp
  00003	8b c1		 mov	 eax, ecx
  00005	8b 4d 08	 mov	 ecx, DWORD PTR __Parg$[ebp]
  00008	89 08		 mov	 DWORD PTR [eax], ecx

; 305  : 		}

  0000a	5d		 pop	 ebp
  0000b	c2 08 00	 ret	 8
??0?$_Vector_iterator@V?$_Vector_val@UtagAlchemicItemInfo@@V?$allocator@UtagAlchemicItemInfo@@@std@@@std@@@std@@QAE@PAUtagAlchemicItemInfo@@PBU_Container_base0@1@@Z ENDP ; std::_Vector_iterator<std::_Vector_val<tagAlchemicItemInfo,std::allocator<tagAlchemicItemInfo> > >::_Vector_iterator<std::_Vector_val<tagAlchemicItemInfo,std::allocator<tagAlchemicItemInfo> > >
_TEXT	ENDS
PUBLIC	?allocate@?$allocator@UtagAlchemicItemInfo@@@std@@QAEPAUtagAlchemicItemInfo@@I@Z ; std::allocator<tagAlchemicItemInfo>::allocate
; Function compile flags: /Ogsp
; File c:\program files (x86)\microsoft visual studio 10.0\vc\include\xmemory
;	COMDAT ?allocate@?$allocator@UtagAlchemicItemInfo@@@std@@QAEPAUtagAlchemicItemInfo@@I@Z
_TEXT	SEGMENT
__Count$ = 8						; size = 4
?allocate@?$allocator@UtagAlchemicItemInfo@@@std@@QAEPAUtagAlchemicItemInfo@@I@Z PROC ; std::allocator<tagAlchemicItemInfo>::allocate, COMDAT
; _this$ = ecx

; 186  : 		{	// allocate array of _Count elements

  00000	55		 push	 ebp
  00001	8b ec		 mov	 ebp, esp

; 187  : 		return (_Allocate(_Count, (pointer)0));

  00003	6a 00		 push	 0
  00005	ff 75 08	 push	 DWORD PTR __Count$[ebp]
  00008	e8 00 00 00 00	 call	 ??$_Allocate@UtagAlchemicItemInfo@@@std@@YAPAUtagAlchemicItemInfo@@IPAU1@@Z ; std::_Allocate<tagAlchemicItemInfo>
  0000d	59		 pop	 ecx
  0000e	59		 pop	 ecx

; 188  : 		}

  0000f	5d		 pop	 ebp
  00010	c2 04 00	 ret	 4
?allocate@?$allocator@UtagAlchemicItemInfo@@@std@@QAEPAUtagAlchemicItemInfo@@I@Z ENDP ; std::allocator<tagAlchemicItemInfo>::allocate
_TEXT	ENDS
PUBLIC	?allocate@?$allocator@UAlchemicItem@ioAlchemicInventory@@@std@@QAEPAUAlchemicItem@ioAlchemicInventory@@I@Z ; std::allocator<ioAlchemicInventory::AlchemicItem>::allocate
; Function compile flags: /Ogsp
;	COMDAT ?allocate@?$allocator@UAlchemicItem@ioAlchemicInventory@@@std@@QAEPAUAlchemicItem@ioAlchemicInventory@@I@Z
_TEXT	SEGMENT
__Count$ = 8						; size = 4
?allocate@?$allocator@UAlchemicItem@ioAlchemicInventory@@@std@@QAEPAUAlchemicItem@ioAlchemicInventory@@I@Z PROC ; std::allocator<ioAlchemicInventory::AlchemicItem>::allocate, COMDAT
; _this$ = ecx

; 186  : 		{	// allocate array of _Count elements

  00000	55		 push	 ebp
  00001	8b ec		 mov	 ebp, esp

; 187  : 		return (_Allocate(_Count, (pointer)0));

  00003	6a 00		 push	 0
  00005	ff 75 08	 push	 DWORD PTR __Count$[ebp]
  00008	e8 00 00 00 00	 call	 ??$_Allocate@UAlchemicItem@ioAlchemicInventory@@@std@@YAPAUAlchemicItem@ioAlchemicInventory@@IPAU12@@Z ; std::_Allocate<ioAlchemicInventory::AlchemicItem>
  0000d	59		 pop	 ecx
  0000e	59		 pop	 ecx

; 188  : 		}

  0000f	5d		 pop	 ebp
  00010	c2 04 00	 ret	 4
?allocate@?$allocator@UAlchemicItem@ioAlchemicInventory@@@std@@QAEPAUAlchemicItem@ioAlchemicInventory@@I@Z ENDP ; std::allocator<ioAlchemicInventory::AlchemicItem>::allocate
_TEXT	ENDS
PUBLIC	??8?$_Vector_const_iterator@V?$_Vector_val@UtagAlchemicItemInfo@@V?$allocator@UtagAlchemicItemInfo@@@std@@@std@@@std@@QBE_NABV01@@Z ; std::_Vector_const_iterator<std::_Vector_val<tagAlchemicItemInfo,std::allocator<tagAlchemicItemInfo> > >::operator==
; Function compile flags: /Ogsp
; File c:\program files (x86)\microsoft visual studio 10.0\vc\include\vector
;	COMDAT ??8?$_Vector_const_iterator@V?$_Vector_val@UtagAlchemicItemInfo@@V?$allocator@UtagAlchemicItemInfo@@@std@@@std@@@std@@QBE_NABV01@@Z
_TEXT	SEGMENT
__Right$ = 8						; size = 4
??8?$_Vector_const_iterator@V?$_Vector_val@UtagAlchemicItemInfo@@V?$allocator@UtagAlchemicItemInfo@@@std@@@std@@@std@@QBE_NABV01@@Z PROC ; std::_Vector_const_iterator<std::_Vector_val<tagAlchemicItemInfo,std::allocator<tagAlchemicItemInfo> > >::operator==, COMDAT
; _this$ = ecx

; 201  : 		{	// test for iterator equality

  00000	55		 push	 ebp
  00001	8b ec		 mov	 ebp, esp

; 202  : 		_Compat(_Right);
; 203  : 		return (this->_Ptr == _Right._Ptr);

  00003	8b 01		 mov	 eax, DWORD PTR [ecx]
  00005	8b 4d 08	 mov	 ecx, DWORD PTR __Right$[ebp]
  00008	2b 01		 sub	 eax, DWORD PTR [ecx]
  0000a	f7 d8		 neg	 eax
  0000c	1b c0		 sbb	 eax, eax
  0000e	40		 inc	 eax

; 204  : 		}

  0000f	5d		 pop	 ebp
  00010	c2 04 00	 ret	 4
??8?$_Vector_const_iterator@V?$_Vector_val@UtagAlchemicItemInfo@@V?$allocator@UtagAlchemicItemInfo@@@std@@@std@@@std@@QBE_NABV01@@Z ENDP ; std::_Vector_const_iterator<std::_Vector_val<tagAlchemicItemInfo,std::allocator<tagAlchemicItemInfo> > >::operator==
_TEXT	ENDS
PUBLIC	??$_Cons_val@V?$allocator@UAlchemicItem@ioAlchemicInventory@@@std@@UAlchemicItem@ioAlchemicInventory@@AAU34@@std@@YAXAAV?$allocator@UAlchemicItem@ioAlchemicInventory@@@0@PAUAlchemicItem@ioAlchemicInventory@@AAU23@@Z ; std::_Cons_val<std::allocator<ioAlchemicInventory::AlchemicItem>,ioAlchemicInventory::AlchemicItem,ioAlchemicInventory::AlchemicItem &>
; Function compile flags: /Ogsp
; File c:\program files (x86)\microsoft visual studio 10.0\vc\include\xmemory
;	COMDAT ??$_Cons_val@V?$allocator@UAlchemicItem@ioAlchemicInventory@@@std@@UAlchemicItem@ioAlchemicInventory@@AAU34@@std@@YAXAAV?$allocator@UAlchemicItem@ioAlchemicInventory@@@0@PAUAlchemicItem@ioAlchemicInventory@@AAU23@@Z
_TEXT	SEGMENT
__Alval$ = 8						; size = 4
__Pdest$ = 12						; size = 4
__Src$ = 16						; size = 4
??$_Cons_val@V?$allocator@UAlchemicItem@ioAlchemicInventory@@@std@@UAlchemicItem@ioAlchemicInventory@@AAU34@@std@@YAXAAV?$allocator@UAlchemicItem@ioAlchemicInventory@@@0@PAUAlchemicItem@ioAlchemicInventory@@AAU23@@Z PROC ; std::_Cons_val<std::allocator<ioAlchemicInventory::AlchemicItem>,ioAlchemicInventory::AlchemicItem,ioAlchemicInventory::AlchemicItem &>, COMDAT

; 279  : 	{	// construct using allocator

  00000	55		 push	 ebp
  00001	8b ec		 mov	 ebp, esp
  00003	57		 push	 edi

; 280  : 	_Alval.construct(_Pdest, _STD forward<_Ty2>(_Src));

  00004	8b 7d 0c	 mov	 edi, DWORD PTR __Pdest$[ebp]
  00007	85 ff		 test	 edi, edi
  00009	74 0a		 je	 SHORT $LN7@Cons_val
  0000b	56		 push	 esi
  0000c	8b 75 10	 mov	 esi, DWORD PTR __Src$[ebp]
  0000f	6a 05		 push	 5
  00011	59		 pop	 ecx
  00012	f3 a5		 rep movsd
  00014	5e		 pop	 esi
$LN7@Cons_val:
  00015	5f		 pop	 edi

; 281  : 	}

  00016	5d		 pop	 ebp
  00017	c3		 ret	 0
??$_Cons_val@V?$allocator@UAlchemicItem@ioAlchemicInventory@@@std@@UAlchemicItem@ioAlchemicInventory@@AAU34@@std@@YAXAAV?$allocator@UAlchemicItem@ioAlchemicInventory@@@0@PAUAlchemicItem@ioAlchemicInventory@@AAU23@@Z ENDP ; std::_Cons_val<std::allocator<ioAlchemicInventory::AlchemicItem>,ioAlchemicInventory::AlchemicItem,ioAlchemicInventory::AlchemicItem &>
_TEXT	ENDS
PUBLIC	?construct@?$allocator@UAlchemicItem@ioAlchemicInventory@@@std@@QAEXPAUAlchemicItem@ioAlchemicInventory@@ABU34@@Z ; std::allocator<ioAlchemicInventory::AlchemicItem>::construct
; Function compile flags: /Ogsp
;	COMDAT ?construct@?$allocator@UAlchemicItem@ioAlchemicInventory@@@std@@QAEXPAUAlchemicItem@ioAlchemicInventory@@ABU34@@Z
_TEXT	SEGMENT
__Ptr$ = 8						; size = 4
__Val$ = 12						; size = 4
?construct@?$allocator@UAlchemicItem@ioAlchemicInventory@@@std@@QAEXPAUAlchemicItem@ioAlchemicInventory@@ABU34@@Z PROC ; std::allocator<ioAlchemicInventory::AlchemicItem>::construct, COMDAT
; _this$ = ecx

; 196  : 		{	// construct object at _Ptr with value _Val

  00000	55		 push	 ebp
  00001	8b ec		 mov	 ebp, esp
  00003	57		 push	 edi

; 197  : 		_Construct(_Ptr, _Val);

  00004	8b 7d 08	 mov	 edi, DWORD PTR __Ptr$[ebp]
  00007	85 ff		 test	 edi, edi
  00009	74 0a		 je	 SHORT $LN5@construct@2
  0000b	56		 push	 esi
  0000c	8b 75 0c	 mov	 esi, DWORD PTR __Val$[ebp]
  0000f	6a 05		 push	 5
  00011	59		 pop	 ecx
  00012	f3 a5		 rep movsd
  00014	5e		 pop	 esi
$LN5@construct@2:
  00015	5f		 pop	 edi

; 198  : 		}

  00016	5d		 pop	 ebp
  00017	c2 08 00	 ret	 8
?construct@?$allocator@UAlchemicItem@ioAlchemicInventory@@@std@@QAEXPAUAlchemicItem@ioAlchemicInventory@@ABU34@@Z ENDP ; std::allocator<ioAlchemicInventory::AlchemicItem>::construct
_TEXT	ENDS
PUBLIC	??$construct@AAUtagAlchemicItemInfo@@@?$allocator@UtagAlchemicItemInfo@@@std@@QAEXPAUtagAlchemicItemInfo@@AAU2@@Z ; std::allocator<tagAlchemicItemInfo>::construct<tagAlchemicItemInfo &>
EXTRN	___CxxFrameHandler3:PROC
EXTRN	@__security_check_cookie@4:PROC
EXTRN	__EH_epilog3:PROC
EXTRN	__EH_prolog3:PROC
;	COMDAT xdata$x
; File c:\program files (x86)\microsoft visual studio 10.0\vc\include\utility
xdata$x	SEGMENT
__unwindtable$??$construct@AAUtagAlchemicItemInfo@@@?$allocator@UtagAlchemicItemInfo@@@std@@QAEXPAUtagAlchemicItemInfo@@AAU2@@Z DD 0ffffffffH
	DD	FLAT:__unwindfunclet$??$construct@AAUtagAlchemicItemInfo@@@?$allocator@UtagAlchemicItemInfo@@@std@@QAEXPAUtagAlchemicItemInfo@@AAU2@@Z$0
__ehfuncinfo$??$construct@AAUtagAlchemicItemInfo@@@?$allocator@UtagAlchemicItemInfo@@@std@@QAEXPAUtagAlchemicItemInfo@@AAU2@@Z DD 019930522H
	DD	01H
	DD	FLAT:__unwindtable$??$construct@AAUtagAlchemicItemInfo@@@?$allocator@UtagAlchemicItemInfo@@@std@@QAEXPAUtagAlchemicItemInfo@@AAU2@@Z
	DD	2 DUP(00H)
	DD	2 DUP(00H)
	DD	00H
	DD	01H
; Function compile flags: /Ogsp
; File c:\program files (x86)\microsoft visual studio 10.0\vc\include\xmemory
xdata$x	ENDS
;	COMDAT ??$construct@AAUtagAlchemicItemInfo@@@?$allocator@UtagAlchemicItemInfo@@@std@@QAEXPAUtagAlchemicItemInfo@@AAU2@@Z
_TEXT	SEGMENT
$T529256 = -16						; size = 4
__$EHRec$ = -12						; size = 12
__Ptr$ = 8						; size = 4
__Val$ = 12						; size = 4
??$construct@AAUtagAlchemicItemInfo@@@?$allocator@UtagAlchemicItemInfo@@@std@@QAEXPAUtagAlchemicItemInfo@@AAU2@@Z PROC ; std::allocator<tagAlchemicItemInfo>::construct<tagAlchemicItemInfo &>, COMDAT
; _this$ = ecx

; 206  : 		void construct(pointer _Ptr, _Other&& _Val)

  00000	6a 04		 push	 4
  00002	b8 00 00 00 00	 mov	 eax, __ehhandler$??$construct@AAUtagAlchemicItemInfo@@@?$allocator@UtagAlchemicItemInfo@@@std@@QAEXPAUtagAlchemicItemInfo@@AAU2@@Z
  00007	e8 00 00 00 00	 call	 __EH_prolog3

; 207  : 		{	// construct object at _Ptr with value _Val
; 208  : 		::new ((void _FARQ *)_Ptr) _Ty(_STD forward<_Other>(_Val));

  0000c	8b 4d 08	 mov	 ecx, DWORD PTR __Ptr$[ebp]
  0000f	89 4d f0	 mov	 DWORD PTR $T529256[ebp], ecx
  00012	83 65 fc 00	 and	 DWORD PTR __$EHRec$[ebp+8], 0
  00016	85 c9		 test	 ecx, ecx
  00018	74 08		 je	 SHORT $LN3@construct@3
  0001a	ff 75 0c	 push	 DWORD PTR __Val$[ebp]
  0001d	e8 00 00 00 00	 call	 ??0tagAlchemicItemInfo@@QAE@ABU0@@Z
$LN3@construct@3:

; 209  : 		}

  00022	e8 00 00 00 00	 call	 __EH_epilog3
  00027	c2 08 00	 ret	 8
_TEXT	ENDS
;	COMDAT text$x
text$x	SEGMENT
__unwindfunclet$??$construct@AAUtagAlchemicItemInfo@@@?$allocator@UtagAlchemicItemInfo@@@std@@QAEXPAUtagAlchemicItemInfo@@AAU2@@Z$0:
  00000	ff 75 08	 push	 DWORD PTR __Ptr$[ebp]
  00003	ff 75 f0	 push	 DWORD PTR $T529256[ebp]
  00006	e8 00 00 00 00	 call	 ??3@YAXPAX0@Z		; operator delete
  0000b	59		 pop	 ecx
  0000c	59		 pop	 ecx
  0000d	c3		 ret	 0
__ehhandler$??$construct@AAUtagAlchemicItemInfo@@@?$allocator@UtagAlchemicItemInfo@@@std@@QAEXPAUtagAlchemicItemInfo@@AAU2@@Z:
  0000e	8b 54 24 08	 mov	 edx, DWORD PTR [esp+8]
  00012	8d 42 0c	 lea	 eax, DWORD PTR [edx+12]
  00015	8b 4a ec	 mov	 ecx, DWORD PTR [edx-20]
  00018	33 c8		 xor	 ecx, eax
  0001a	e8 00 00 00 00	 call	 @__security_check_cookie@4
  0001f	b8 00 00 00 00	 mov	 eax, OFFSET __ehfuncinfo$??$construct@AAUtagAlchemicItemInfo@@@?$allocator@UtagAlchemicItemInfo@@@std@@QAEXPAUtagAlchemicItemInfo@@AAU2@@Z
  00024	e9 00 00 00 00	 jmp	 ___CxxFrameHandler3
text$x	ENDS
??$construct@AAUtagAlchemicItemInfo@@@?$allocator@UtagAlchemicItemInfo@@@std@@QAEXPAUtagAlchemicItemInfo@@AAU2@@Z ENDP ; std::allocator<tagAlchemicItemInfo>::construct<tagAlchemicItemInfo &>
PUBLIC	??$_Move@PAUtagAlchemicItemInfo@@PAU1@@std@@YAPAUtagAlchemicItemInfo@@PAU1@00U_Nonscalar_ptr_iterator_tag@0@@Z ; std::_Move<tagAlchemicItemInfo *,tagAlchemicItemInfo *>
; Function compile flags: /Ogsp
; File c:\program files (x86)\microsoft visual studio 10.0\vc\include\xutility
;	COMDAT ??$_Move@PAUtagAlchemicItemInfo@@PAU1@@std@@YAPAUtagAlchemicItemInfo@@PAU1@00U_Nonscalar_ptr_iterator_tag@0@@Z
_TEXT	SEGMENT
__First$ = 8						; size = 4
__Last$ = 12						; size = 4
__Dest$ = 16						; size = 4
___formal$ = 20						; size = 1
??$_Move@PAUtagAlchemicItemInfo@@PAU1@@std@@YAPAUtagAlchemicItemInfo@@PAU1@00U_Nonscalar_ptr_iterator_tag@0@@Z PROC ; std::_Move<tagAlchemicItemInfo *,tagAlchemicItemInfo *>, COMDAT

; 2512 : 	{	// move [_First, _Last) to [_Dest, ...), arbitrary iterators

  00000	55		 push	 ebp
  00001	8b ec		 mov	 ebp, esp
  00003	56		 push	 esi

; 2513 : 	for (; _First != _Last; ++_Dest, ++_First)

  00004	8b 75 08	 mov	 esi, DWORD PTR __First$[ebp]
  00007	eb 10		 jmp	 SHORT $LN11@Move
$LL3@Move:

; 2514 : 		*_Dest = _STD move(*_First);

  00009	8b 4d 10	 mov	 ecx, DWORD PTR __Dest$[ebp]
  0000c	56		 push	 esi
  0000d	e8 00 00 00 00	 call	 ??4tagAlchemicItemInfo@@QAEAAU0@ABU0@@Z
  00012	83 45 10 1c	 add	 DWORD PTR __Dest$[ebp], 28 ; 0000001cH
  00016	83 c6 1c	 add	 esi, 28			; 0000001cH
$LN11@Move:

; 2513 : 	for (; _First != _Last; ++_Dest, ++_First)

  00019	3b 75 0c	 cmp	 esi, DWORD PTR __Last$[ebp]
  0001c	75 eb		 jne	 SHORT $LL3@Move

; 2515 : 	return (_Dest);

  0001e	8b 45 10	 mov	 eax, DWORD PTR __Dest$[ebp]
  00021	5e		 pop	 esi

; 2516 : 	}

  00022	5d		 pop	 ebp
  00023	c3		 ret	 0
??$_Move@PAUtagAlchemicItemInfo@@PAU1@@std@@YAPAUtagAlchemicItemInfo@@PAU1@00U_Nonscalar_ptr_iterator_tag@0@@Z ENDP ; std::_Move<tagAlchemicItemInfo *,tagAlchemicItemInfo *>
_TEXT	ENDS
PUBLIC	??$_Move@PAUAlchemicItem@ioAlchemicInventory@@PAU12@@std@@YAPAUAlchemicItem@ioAlchemicInventory@@PAU12@00U_Nonscalar_ptr_iterator_tag@0@@Z ; std::_Move<ioAlchemicInventory::AlchemicItem *,ioAlchemicInventory::AlchemicItem *>
; Function compile flags: /Ogsp
;	COMDAT ??$_Move@PAUAlchemicItem@ioAlchemicInventory@@PAU12@@std@@YAPAUAlchemicItem@ioAlchemicInventory@@PAU12@00U_Nonscalar_ptr_iterator_tag@0@@Z
_TEXT	SEGMENT
__First$ = 8						; size = 4
__Last$ = 12						; size = 4
__Dest$ = 16						; size = 4
___formal$ = 20						; size = 1
??$_Move@PAUAlchemicItem@ioAlchemicInventory@@PAU12@@std@@YAPAUAlchemicItem@ioAlchemicInventory@@PAU12@00U_Nonscalar_ptr_iterator_tag@0@@Z PROC ; std::_Move<ioAlchemicInventory::AlchemicItem *,ioAlchemicInventory::AlchemicItem *>, COMDAT

; 2512 : 	{	// move [_First, _Last) to [_Dest, ...), arbitrary iterators

  00000	55		 push	 ebp
  00001	8b ec		 mov	 ebp, esp

; 2513 : 	for (; _First != _Last; ++_Dest, ++_First)

  00003	8b 45 08	 mov	 eax, DWORD PTR __First$[ebp]
  00006	3b 45 0c	 cmp	 eax, DWORD PTR __Last$[ebp]
  00009	74 1a		 je	 SHORT $LN10@Move@2
  0000b	56		 push	 esi
  0000c	57		 push	 edi
$LL3@Move@2:

; 2514 : 		*_Dest = _STD move(*_First);

  0000d	8b 7d 10	 mov	 edi, DWORD PTR __Dest$[ebp]
  00010	83 45 10 14	 add	 DWORD PTR __Dest$[ebp], 20 ; 00000014H
  00014	8b f0		 mov	 esi, eax
  00016	6a 05		 push	 5
  00018	83 c0 14	 add	 eax, 20			; 00000014H
  0001b	59		 pop	 ecx
  0001c	f3 a5		 rep movsd
  0001e	3b 45 0c	 cmp	 eax, DWORD PTR __Last$[ebp]
  00021	75 ea		 jne	 SHORT $LL3@Move@2
  00023	5f		 pop	 edi
  00024	5e		 pop	 esi
$LN10@Move@2:

; 2515 : 	return (_Dest);

  00025	8b 45 10	 mov	 eax, DWORD PTR __Dest$[ebp]

; 2516 : 	}

  00028	5d		 pop	 ebp
  00029	c3		 ret	 0
??$_Move@PAUAlchemicItem@ioAlchemicInventory@@PAU12@@std@@YAPAUAlchemicItem@ioAlchemicInventory@@PAU12@00U_Nonscalar_ptr_iterator_tag@0@@Z ENDP ; std::_Move<ioAlchemicInventory::AlchemicItem *,ioAlchemicInventory::AlchemicItem *>
_TEXT	ENDS
PUBLIC	??$_Construct@UtagAlchemicItemInfo@@ABU1@@std@@YAXPAUtagAlchemicItemInfo@@ABU1@@Z ; std::_Construct<tagAlchemicItemInfo,tagAlchemicItemInfo const &>
;	COMDAT xdata$x
; File c:\program files (x86)\microsoft visual studio 10.0\vc\include\utility
xdata$x	SEGMENT
__unwindtable$??$_Construct@UtagAlchemicItemInfo@@ABU1@@std@@YAXPAUtagAlchemicItemInfo@@ABU1@@Z DD 0ffffffffH
	DD	FLAT:__unwindfunclet$??$_Construct@UtagAlchemicItemInfo@@ABU1@@std@@YAXPAUtagAlchemicItemInfo@@ABU1@@Z$0
__ehfuncinfo$??$_Construct@UtagAlchemicItemInfo@@ABU1@@std@@YAXPAUtagAlchemicItemInfo@@ABU1@@Z DD 019930522H
	DD	01H
	DD	FLAT:__unwindtable$??$_Construct@UtagAlchemicItemInfo@@ABU1@@std@@YAXPAUtagAlchemicItemInfo@@ABU1@@Z
	DD	2 DUP(00H)
	DD	2 DUP(00H)
	DD	00H
	DD	01H
; Function compile flags: /Ogsp
; File c:\program files (x86)\microsoft visual studio 10.0\vc\include\xmemory
xdata$x	ENDS
;	COMDAT ??$_Construct@UtagAlchemicItemInfo@@ABU1@@std@@YAXPAUtagAlchemicItemInfo@@ABU1@@Z
_TEXT	SEGMENT
$T529298 = -16						; size = 4
__$EHRec$ = -12						; size = 12
__Vptr$ = 8						; size = 4
__Ptr$ = 8						; size = 4
__Val$ = 12						; size = 4
??$_Construct@UtagAlchemicItemInfo@@ABU1@@std@@YAXPAUtagAlchemicItemInfo@@ABU1@@Z PROC ; std::_Construct<tagAlchemicItemInfo,tagAlchemicItemInfo const &>, COMDAT

; 46   : 	{	// construct object at _Ptr with value _Val

  00000	6a 04		 push	 4
  00002	b8 00 00 00 00	 mov	 eax, __ehhandler$??$_Construct@UtagAlchemicItemInfo@@ABU1@@std@@YAXPAUtagAlchemicItemInfo@@ABU1@@Z
  00007	e8 00 00 00 00	 call	 __EH_prolog3

; 47   : 	void _FARQ *_Vptr = _Ptr;

  0000c	8b 4d 08	 mov	 ecx, DWORD PTR __Ptr$[ebp]
  0000f	89 4d 08	 mov	 DWORD PTR __Vptr$[ebp], ecx

; 48   : 	::new (_Vptr) _Ty1(_STD forward<_Ty2>(_Val));

  00012	89 4d f0	 mov	 DWORD PTR $T529298[ebp], ecx
  00015	83 65 fc 00	 and	 DWORD PTR __$EHRec$[ebp+8], 0
  00019	85 c9		 test	 ecx, ecx
  0001b	74 08		 je	 SHORT $LN3@Construct@2
  0001d	ff 75 0c	 push	 DWORD PTR __Val$[ebp]
  00020	e8 00 00 00 00	 call	 ??0tagAlchemicItemInfo@@QAE@ABU0@@Z
$LN3@Construct@2:

; 49   : 	}

  00025	e8 00 00 00 00	 call	 __EH_epilog3
  0002a	c3		 ret	 0
_TEXT	ENDS
;	COMDAT text$x
text$x	SEGMENT
__unwindfunclet$??$_Construct@UtagAlchemicItemInfo@@ABU1@@std@@YAXPAUtagAlchemicItemInfo@@ABU1@@Z$0:
  00000	ff 75 08	 push	 DWORD PTR __Vptr$[ebp]
  00003	ff 75 f0	 push	 DWORD PTR $T529298[ebp]
  00006	e8 00 00 00 00	 call	 ??3@YAXPAX0@Z		; operator delete
  0000b	59		 pop	 ecx
  0000c	59		 pop	 ecx
  0000d	c3		 ret	 0
__ehhandler$??$_Construct@UtagAlchemicItemInfo@@ABU1@@std@@YAXPAUtagAlchemicItemInfo@@ABU1@@Z:
  0000e	8b 54 24 08	 mov	 edx, DWORD PTR [esp+8]
  00012	8d 42 0c	 lea	 eax, DWORD PTR [edx+12]
  00015	8b 4a ec	 mov	 ecx, DWORD PTR [edx-20]
  00018	33 c8		 xor	 ecx, eax
  0001a	e8 00 00 00 00	 call	 @__security_check_cookie@4
  0001f	b8 00 00 00 00	 mov	 eax, OFFSET __ehfuncinfo$??$_Construct@UtagAlchemicItemInfo@@ABU1@@std@@YAXPAUtagAlchemicItemInfo@@ABU1@@Z
  00024	e9 00 00 00 00	 jmp	 ___CxxFrameHandler3
text$x	ENDS
??$_Construct@UtagAlchemicItemInfo@@ABU1@@std@@YAXPAUtagAlchemicItemInfo@@ABU1@@Z ENDP ; std::_Construct<tagAlchemicItemInfo,tagAlchemicItemInfo const &>
PUBLIC	?destroy@?$allocator@UAlchemicItem@ioAlchemicInventory@@@std@@QAEXPAUAlchemicItem@ioAlchemicInventory@@@Z ; std::allocator<ioAlchemicInventory::AlchemicItem>::destroy
; Function compile flags: /Ogsp
;	COMDAT ?destroy@?$allocator@UAlchemicItem@ioAlchemicInventory@@@std@@QAEXPAUAlchemicItem@ioAlchemicInventory@@@Z
_TEXT	SEGMENT
__Ptr$ = 8						; size = 4
?destroy@?$allocator@UAlchemicItem@ioAlchemicInventory@@@std@@QAEXPAUAlchemicItem@ioAlchemicInventory@@@Z PROC ; std::allocator<ioAlchemicInventory::AlchemicItem>::destroy, COMDAT
; _this$ = ecx

; 213  : 		_Destroy(_Ptr);
; 214  : 		}

  00000	c2 04 00	 ret	 4
?destroy@?$allocator@UAlchemicItem@ioAlchemicInventory@@@std@@QAEXPAUAlchemicItem@ioAlchemicInventory@@@Z ENDP ; std::allocator<ioAlchemicInventory::AlchemicItem>::destroy
_TEXT	ENDS
PUBLIC	??$_Destroy@UtagAlchemicItemInfo@@@std@@YAXPAUtagAlchemicItemInfo@@@Z ; std::_Destroy<tagAlchemicItemInfo>
; Function compile flags: /Ogsp
;	COMDAT ??$_Destroy@UtagAlchemicItemInfo@@@std@@YAXPAUtagAlchemicItemInfo@@@Z
_TEXT	SEGMENT
__Ptr$ = 8						; size = 4
??$_Destroy@UtagAlchemicItemInfo@@@std@@YAXPAUtagAlchemicItemInfo@@@Z PROC ; std::_Destroy<tagAlchemicItemInfo>, COMDAT

; 62   : 	{	// destroy object at _Ptr

  00000	55		 push	 ebp
  00001	8b ec		 mov	 ebp, esp

; 63   : 	_Ptr->~_Ty();

  00003	8b 4d 08	 mov	 ecx, DWORD PTR __Ptr$[ebp]
  00006	83 c1 08	 add	 ecx, 8

; 64   : 	}

  00009	5d		 pop	 ebp

; 63   : 	_Ptr->~_Ty();

  0000a	ff 25 00 00 00
	00		 jmp	 DWORD PTR __imp_??1ioHashString@@QAE@XZ
??$_Destroy@UtagAlchemicItemInfo@@@std@@YAXPAUtagAlchemicItemInfo@@@Z ENDP ; std::_Destroy<tagAlchemicItemInfo>
_TEXT	ENDS
PUBLIC	?construct@?$allocator@UtagAlchemicItemInfo@@@std@@QAEXPAUtagAlchemicItemInfo@@$$QAU3@@Z ; std::allocator<tagAlchemicItemInfo>::construct
;	COMDAT xdata$x
; File c:\program files (x86)\microsoft visual studio 10.0\vc\include\utility
xdata$x	SEGMENT
__unwindtable$?construct@?$allocator@UtagAlchemicItemInfo@@@std@@QAEXPAUtagAlchemicItemInfo@@$$QAU3@@Z DD 0ffffffffH
	DD	FLAT:__unwindfunclet$?construct@?$allocator@UtagAlchemicItemInfo@@@std@@QAEXPAUtagAlchemicItemInfo@@$$QAU3@@Z$0
__ehfuncinfo$?construct@?$allocator@UtagAlchemicItemInfo@@@std@@QAEXPAUtagAlchemicItemInfo@@$$QAU3@@Z DD 019930522H
	DD	01H
	DD	FLAT:__unwindtable$?construct@?$allocator@UtagAlchemicItemInfo@@@std@@QAEXPAUtagAlchemicItemInfo@@$$QAU3@@Z
	DD	2 DUP(00H)
	DD	2 DUP(00H)
	DD	00H
	DD	01H
; Function compile flags: /Ogsp
; File c:\program files (x86)\microsoft visual studio 10.0\vc\include\xmemory
xdata$x	ENDS
;	COMDAT ?construct@?$allocator@UtagAlchemicItemInfo@@@std@@QAEXPAUtagAlchemicItemInfo@@$$QAU3@@Z
_TEXT	SEGMENT
$T529336 = -16						; size = 4
__$EHRec$ = -12						; size = 12
__Ptr$ = 8						; size = 4
__Val$ = 12						; size = 4
?construct@?$allocator@UtagAlchemicItemInfo@@@std@@QAEXPAUtagAlchemicItemInfo@@$$QAU3@@Z PROC ; std::allocator<tagAlchemicItemInfo>::construct, COMDAT
; _this$ = ecx

; 201  : 		{	// construct object at _Ptr with value _Val

  00000	6a 04		 push	 4
  00002	b8 00 00 00 00	 mov	 eax, __ehhandler$?construct@?$allocator@UtagAlchemicItemInfo@@@std@@QAEXPAUtagAlchemicItemInfo@@$$QAU3@@Z
  00007	e8 00 00 00 00	 call	 __EH_prolog3

; 202  : 		::new ((void _FARQ *)_Ptr) _Ty(_STD forward<_Ty>(_Val));

  0000c	8b 4d 08	 mov	 ecx, DWORD PTR __Ptr$[ebp]
  0000f	89 4d f0	 mov	 DWORD PTR $T529336[ebp], ecx
  00012	83 65 fc 00	 and	 DWORD PTR __$EHRec$[ebp+8], 0
  00016	85 c9		 test	 ecx, ecx
  00018	74 08		 je	 SHORT $LN3@construct@4
  0001a	ff 75 0c	 push	 DWORD PTR __Val$[ebp]
  0001d	e8 00 00 00 00	 call	 ??0tagAlchemicItemInfo@@QAE@ABU0@@Z
$LN3@construct@4:

; 203  : 		}

  00022	e8 00 00 00 00	 call	 __EH_epilog3
  00027	c2 08 00	 ret	 8
_TEXT	ENDS
;	COMDAT text$x
text$x	SEGMENT
__unwindfunclet$?construct@?$allocator@UtagAlchemicItemInfo@@@std@@QAEXPAUtagAlchemicItemInfo@@$$QAU3@@Z$0:
  00000	ff 75 08	 push	 DWORD PTR __Ptr$[ebp]
  00003	ff 75 f0	 push	 DWORD PTR $T529336[ebp]
  00006	e8 00 00 00 00	 call	 ??3@YAXPAX0@Z		; operator delete
  0000b	59		 pop	 ecx
  0000c	59		 pop	 ecx
  0000d	c3		 ret	 0
__ehhandler$?construct@?$allocator@UtagAlchemicItemInfo@@@std@@QAEXPAUtagAlchemicItemInfo@@$$QAU3@@Z:
  0000e	8b 54 24 08	 mov	 edx, DWORD PTR [esp+8]
  00012	8d 42 0c	 lea	 eax, DWORD PTR [edx+12]
  00015	8b 4a ec	 mov	 ecx, DWORD PTR [edx-20]
  00018	33 c8		 xor	 ecx, eax
  0001a	e8 00 00 00 00	 call	 @__security_check_cookie@4
  0001f	b8 00 00 00 00	 mov	 eax, OFFSET __ehfuncinfo$?construct@?$allocator@UtagAlchemicItemInfo@@@std@@QAEXPAUtagAlchemicItemInfo@@$$QAU3@@Z
  00024	e9 00 00 00 00	 jmp	 ___CxxFrameHandler3
text$x	ENDS
?construct@?$allocator@UtagAlchemicItemInfo@@@std@@QAEXPAUtagAlchemicItemInfo@@$$QAU3@@Z ENDP ; std::allocator<tagAlchemicItemInfo>::construct
PUBLIC	?construct@?$allocator@UAlchemicItem@ioAlchemicInventory@@@std@@QAEXPAUAlchemicItem@ioAlchemicInventory@@$$QAU34@@Z ; std::allocator<ioAlchemicInventory::AlchemicItem>::construct
; Function compile flags: /Ogsp
;	COMDAT ?construct@?$allocator@UAlchemicItem@ioAlchemicInventory@@@std@@QAEXPAUAlchemicItem@ioAlchemicInventory@@$$QAU34@@Z
_TEXT	SEGMENT
__Ptr$ = 8						; size = 4
__Val$ = 12						; size = 4
?construct@?$allocator@UAlchemicItem@ioAlchemicInventory@@@std@@QAEXPAUAlchemicItem@ioAlchemicInventory@@$$QAU34@@Z PROC ; std::allocator<ioAlchemicInventory::AlchemicItem>::construct, COMDAT
; _this$ = ecx

; 201  : 		{	// construct object at _Ptr with value _Val

  00000	55		 push	 ebp
  00001	8b ec		 mov	 ebp, esp
  00003	57		 push	 edi

; 202  : 		::new ((void _FARQ *)_Ptr) _Ty(_STD forward<_Ty>(_Val));

  00004	8b 7d 08	 mov	 edi, DWORD PTR __Ptr$[ebp]
  00007	85 ff		 test	 edi, edi
  00009	74 0a		 je	 SHORT $LN3@construct@5
  0000b	56		 push	 esi
  0000c	8b 75 0c	 mov	 esi, DWORD PTR __Val$[ebp]
  0000f	6a 05		 push	 5
  00011	59		 pop	 ecx
  00012	f3 a5		 rep movsd
  00014	5e		 pop	 esi
$LN3@construct@5:
  00015	5f		 pop	 edi

; 203  : 		}

  00016	5d		 pop	 ebp
  00017	c2 08 00	 ret	 8
?construct@?$allocator@UAlchemicItem@ioAlchemicInventory@@@std@@QAEXPAUAlchemicItem@ioAlchemicInventory@@$$QAU34@@Z ENDP ; std::allocator<ioAlchemicInventory::AlchemicItem>::construct
_TEXT	ENDS
PUBLIC	??0tagAlchemicItemInfo@@QAE@XZ			; tagAlchemicItemInfo::tagAlchemicItemInfo
EXTRN	__imp_??0ioHashString@@QAE@XZ:PROC
;	COMDAT xdata$x
; File d:\lost saga for developer\youtube\tutorial\source\src\lsclient\gui\myinventorywnd.h
xdata$x	SEGMENT
__unwindtable$??0tagAlchemicItemInfo@@QAE@XZ DD 0ffffffffH
	DD	FLAT:__unwindfunclet$??0tagAlchemicItemInfo@@QAE@XZ$0
__ehfuncinfo$??0tagAlchemicItemInfo@@QAE@XZ DD 019930522H
	DD	01H
	DD	FLAT:__unwindtable$??0tagAlchemicItemInfo@@QAE@XZ
	DD	2 DUP(00H)
	DD	2 DUP(00H)
	DD	00H
	DD	01H
; Function compile flags: /Ogsp
xdata$x	ENDS
;	COMDAT ??0tagAlchemicItemInfo@@QAE@XZ
_TEXT	SEGMENT
_this$ = -16						; size = 4
__$EHRec$ = -12						; size = 12
??0tagAlchemicItemInfo@@QAE@XZ PROC			; tagAlchemicItemInfo::tagAlchemicItemInfo, COMDAT
; _this$ = ecx

; 378  : 	tagAlchemicItemInfo()

  00000	6a 04		 push	 4
  00002	b8 00 00 00 00	 mov	 eax, __ehhandler$??0tagAlchemicItemInfo@@QAE@XZ
  00007	e8 00 00 00 00	 call	 __EH_prolog3
  0000c	8b f1		 mov	 esi, ecx
  0000e	89 75 f0	 mov	 DWORD PTR _this$[ebp], esi
  00011	8d 4e 08	 lea	 ecx, DWORD PTR [esi+8]
  00014	ff 15 00 00 00
	00		 call	 DWORD PTR __imp_??0ioHashString@@QAE@XZ
  0001a	83 65 fc 00	 and	 DWORD PTR __$EHRec$[ebp+8], 0

; 379  : 	{
; 380  : 		Init();

  0001e	8b ce		 mov	 ecx, esi
  00020	e8 00 00 00 00	 call	 ?Init@tagAlchemicItemInfo@@QAEXXZ ; tagAlchemicItemInfo::Init

; 381  : 	}

  00025	8b c6		 mov	 eax, esi
  00027	e8 00 00 00 00	 call	 __EH_epilog3
  0002c	c3		 ret	 0
_TEXT	ENDS
;	COMDAT text$x
text$x	SEGMENT
__unwindfunclet$??0tagAlchemicItemInfo@@QAE@XZ$0:
  00000	8b 4d f0	 mov	 ecx, DWORD PTR _this$[ebp]
  00003	83 c1 08	 add	 ecx, 8
  00006	ff 25 00 00 00
	00		 jmp	 DWORD PTR __imp_??1ioHashString@@QAE@XZ
__ehhandler$??0tagAlchemicItemInfo@@QAE@XZ:
  0000c	8b 54 24 08	 mov	 edx, DWORD PTR [esp+8]
  00010	8d 42 0c	 lea	 eax, DWORD PTR [edx+12]
  00013	8b 4a ec	 mov	 ecx, DWORD PTR [edx-20]
  00016	33 c8		 xor	 ecx, eax
  00018	e8 00 00 00 00	 call	 @__security_check_cookie@4
  0001d	b8 00 00 00 00	 mov	 eax, OFFSET __ehfuncinfo$??0tagAlchemicItemInfo@@QAE@XZ
  00022	e9 00 00 00 00	 jmp	 ___CxxFrameHandler3
text$x	ENDS
??0tagAlchemicItemInfo@@QAE@XZ ENDP			; tagAlchemicItemInfo::tagAlchemicItemInfo
PUBLIC	??0AlchemicItem@ioAlchemicInventory@@QAE@XZ	; ioAlchemicInventory::AlchemicItem::AlchemicItem
; Function compile flags: /Ogsp
; File d:\lost saga for developer\youtube\tutorial\source\src\lsclient\ioalchemicinventory.h
;	COMDAT ??0AlchemicItem@ioAlchemicInventory@@QAE@XZ
_TEXT	SEGMENT
??0AlchemicItem@ioAlchemicInventory@@QAE@XZ PROC	; ioAlchemicInventory::AlchemicItem::AlchemicItem, COMDAT
; _this$ = ecx

; 25   : 		AlchemicItem()

  00000	8b c1		 mov	 eax, ecx

; 26   : 		{
; 27   : 			Init();

  00002	33 c9		 xor	 ecx, ecx
  00004	89 08		 mov	 DWORD PTR [eax], ecx
  00006	89 48 04	 mov	 DWORD PTR [eax+4], ecx
  00009	89 48 08	 mov	 DWORD PTR [eax+8], ecx
  0000c	89 48 0c	 mov	 DWORD PTR [eax+12], ecx
  0000f	88 48 10	 mov	 BYTE PTR [eax+16], cl

; 28   : 		}

  00012	c3		 ret	 0
??0AlchemicItem@ioAlchemicInventory@@QAE@XZ ENDP	; ioAlchemicInventory::AlchemicItem::AlchemicItem
_TEXT	ENDS
PUBLIC	??0?$vector@UAlchemicItem@ioAlchemicInventory@@V?$allocator@UAlchemicItem@ioAlchemicInventory@@@std@@@std@@QAE@XZ ; std::vector<ioAlchemicInventory::AlchemicItem,std::allocator<ioAlchemicInventory::AlchemicItem> >::vector<ioAlchemicInventory::AlchemicItem,std::allocator<ioAlchemicInventory::AlchemicItem> >
; Function compile flags: /Ogsp
; File c:\program files (x86)\microsoft visual studio 10.0\vc\include\vector
;	COMDAT ??0?$vector@UAlchemicItem@ioAlchemicInventory@@V?$allocator@UAlchemicItem@ioAlchemicInventory@@@std@@@std@@QAE@XZ
_TEXT	SEGMENT
??0?$vector@UAlchemicItem@ioAlchemicInventory@@V?$allocator@UAlchemicItem@ioAlchemicInventory@@@std@@@std@@QAE@XZ PROC ; std::vector<ioAlchemicInventory::AlchemicItem,std::allocator<ioAlchemicInventory::AlchemicItem> >::vector<ioAlchemicInventory::AlchemicItem,std::allocator<ioAlchemicInventory::AlchemicItem> >, COMDAT
; _this$ = ecx

; 507  : 		{	// construct empty vector

  00000	8b c1		 mov	 eax, ecx
  00002	33 c9		 xor	 ecx, ecx
  00004	89 08		 mov	 DWORD PTR [eax], ecx
  00006	89 48 04	 mov	 DWORD PTR [eax+4], ecx
  00009	89 48 08	 mov	 DWORD PTR [eax+8], ecx

; 508  : 		}

  0000c	c3		 ret	 0
??0?$vector@UAlchemicItem@ioAlchemicInventory@@V?$allocator@UAlchemicItem@ioAlchemicInventory@@@std@@@std@@QAE@XZ ENDP ; std::vector<ioAlchemicInventory::AlchemicItem,std::allocator<ioAlchemicInventory::AlchemicItem> >::vector<ioAlchemicInventory::AlchemicItem,std::allocator<ioAlchemicInventory::AlchemicItem> >
_TEXT	ENDS
PUBLIC	?begin@?$vector@UAlchemicItem@ioAlchemicInventory@@V?$allocator@UAlchemicItem@ioAlchemicInventory@@@std@@@std@@QAE?AV?$_Vector_iterator@V?$_Vector_val@UAlchemicItem@ioAlchemicInventory@@V?$allocator@UAlchemicItem@ioAlchemicInventory@@@std@@@std@@@2@XZ ; std::vector<ioAlchemicInventory::AlchemicItem,std::allocator<ioAlchemicInventory::AlchemicItem> >::begin
; Function compile flags: /Ogsp
;	COMDAT ?begin@?$vector@UAlchemicItem@ioAlchemicInventory@@V?$allocator@UAlchemicItem@ioAlchemicInventory@@@std@@@std@@QAE?AV?$_Vector_iterator@V?$_Vector_val@UAlchemicItem@ioAlchemicInventory@@V?$allocator@UAlchemicItem@ioAlchemicInventory@@@std@@@std@@@2@XZ
_TEXT	SEGMENT
___$ReturnUdt$ = 8					; size = 4
?begin@?$vector@UAlchemicItem@ioAlchemicInventory@@V?$allocator@UAlchemicItem@ioAlchemicInventory@@@std@@@std@@QAE?AV?$_Vector_iterator@V?$_Vector_val@UAlchemicItem@ioAlchemicInventory@@V?$allocator@UAlchemicItem@ioAlchemicInventory@@@std@@@std@@@2@XZ PROC ; std::vector<ioAlchemicInventory::AlchemicItem,std::allocator<ioAlchemicInventory::AlchemicItem> >::begin, COMDAT
; _this$ = ecx

; 781  : 		{	// return iterator for beginning of mutable sequence

  00000	55		 push	 ebp
  00001	8b ec		 mov	 ebp, esp

; 782  : 		return (iterator(this->_Myfirst, this));

  00003	8b 09		 mov	 ecx, DWORD PTR [ecx]
  00005	8b 45 08	 mov	 eax, DWORD PTR ___$ReturnUdt$[ebp]
  00008	89 08		 mov	 DWORD PTR [eax], ecx

; 783  : 		}

  0000a	5d		 pop	 ebp
  0000b	c2 04 00	 ret	 4
?begin@?$vector@UAlchemicItem@ioAlchemicInventory@@V?$allocator@UAlchemicItem@ioAlchemicInventory@@@std@@@std@@QAE?AV?$_Vector_iterator@V?$_Vector_val@UAlchemicItem@ioAlchemicInventory@@V?$allocator@UAlchemicItem@ioAlchemicInventory@@@std@@@std@@@2@XZ ENDP ; std::vector<ioAlchemicInventory::AlchemicItem,std::allocator<ioAlchemicInventory::AlchemicItem> >::begin
_TEXT	ENDS
PUBLIC	?end@?$vector@UAlchemicItem@ioAlchemicInventory@@V?$allocator@UAlchemicItem@ioAlchemicInventory@@@std@@@std@@QAE?AV?$_Vector_iterator@V?$_Vector_val@UAlchemicItem@ioAlchemicInventory@@V?$allocator@UAlchemicItem@ioAlchemicInventory@@@std@@@std@@@2@XZ ; std::vector<ioAlchemicInventory::AlchemicItem,std::allocator<ioAlchemicInventory::AlchemicItem> >::end
; Function compile flags: /Ogsp
;	COMDAT ?end@?$vector@UAlchemicItem@ioAlchemicInventory@@V?$allocator@UAlchemicItem@ioAlchemicInventory@@@std@@@std@@QAE?AV?$_Vector_iterator@V?$_Vector_val@UAlchemicItem@ioAlchemicInventory@@V?$allocator@UAlchemicItem@ioAlchemicInventory@@@std@@@std@@@2@XZ
_TEXT	SEGMENT
___$ReturnUdt$ = 8					; size = 4
?end@?$vector@UAlchemicItem@ioAlchemicInventory@@V?$allocator@UAlchemicItem@ioAlchemicInventory@@@std@@@std@@QAE?AV?$_Vector_iterator@V?$_Vector_val@UAlchemicItem@ioAlchemicInventory@@V?$allocator@UAlchemicItem@ioAlchemicInventory@@@std@@@std@@@2@XZ PROC ; std::vector<ioAlchemicInventory::AlchemicItem,std::allocator<ioAlchemicInventory::AlchemicItem> >::end, COMDAT
; _this$ = ecx

; 791  : 		{	// return iterator for end of mutable sequence

  00000	55		 push	 ebp
  00001	8b ec		 mov	 ebp, esp

; 792  : 		return (iterator(this->_Mylast, this));

  00003	8b 49 04	 mov	 ecx, DWORD PTR [ecx+4]
  00006	8b 45 08	 mov	 eax, DWORD PTR ___$ReturnUdt$[ebp]
  00009	89 08		 mov	 DWORD PTR [eax], ecx

; 793  : 		}

  0000b	5d		 pop	 ebp
  0000c	c2 04 00	 ret	 4
?end@?$vector@UAlchemicItem@ioAlchemicInventory@@V?$allocator@UAlchemicItem@ioAlchemicInventory@@@std@@@std@@QAE?AV?$_Vector_iterator@V?$_Vector_val@UAlchemicItem@ioAlchemicInventory@@V?$allocator@UAlchemicItem@ioAlchemicInventory@@@std@@@std@@@2@XZ ENDP ; std::vector<ioAlchemicInventory::AlchemicItem,std::allocator<ioAlchemicInventory::AlchemicItem> >::end
_TEXT	ENDS
PUBLIC	??E?$_Vector_iterator@V?$_Vector_val@UAlchemicItem@ioAlchemicInventory@@V?$allocator@UAlchemicItem@ioAlchemicInventory@@@std@@@std@@@std@@QAE?AV01@H@Z ; std::_Vector_iterator<std::_Vector_val<ioAlchemicInventory::AlchemicItem,std::allocator<ioAlchemicInventory::AlchemicItem> > >::operator++
; Function compile flags: /Ogsp
;	COMDAT ??E?$_Vector_iterator@V?$_Vector_val@UAlchemicItem@ioAlchemicInventory@@V?$allocator@UAlchemicItem@ioAlchemicInventory@@@std@@@std@@@std@@QAE?AV01@H@Z
_TEXT	SEGMENT
___$ReturnUdt$ = 8					; size = 4
___formal$ = 12						; size = 4
??E?$_Vector_iterator@V?$_Vector_val@UAlchemicItem@ioAlchemicInventory@@V?$allocator@UAlchemicItem@ioAlchemicInventory@@@std@@@std@@@std@@QAE?AV01@H@Z PROC ; std::_Vector_iterator<std::_Vector_val<ioAlchemicInventory::AlchemicItem,std::allocator<ioAlchemicInventory::AlchemicItem> > >::operator++, COMDAT
; _this$ = ecx

; 337  : 		{	// postincrement

  00000	55		 push	 ebp
  00001	8b ec		 mov	 ebp, esp

; 338  : 		_Myiter _Tmp = *this;

  00003	8b 11		 mov	 edx, DWORD PTR [ecx]
  00005	8b 45 08	 mov	 eax, DWORD PTR ___$ReturnUdt$[ebp]
  00008	89 10		 mov	 DWORD PTR [eax], edx

; 339  : 		++*this;

  0000a	83 c2 14	 add	 edx, 20			; 00000014H
  0000d	89 11		 mov	 DWORD PTR [ecx], edx

; 340  : 		return (_Tmp);
; 341  : 		}

  0000f	5d		 pop	 ebp
  00010	c2 08 00	 ret	 8
??E?$_Vector_iterator@V?$_Vector_val@UAlchemicItem@ioAlchemicInventory@@V?$allocator@UAlchemicItem@ioAlchemicInventory@@@std@@@std@@@std@@QAE?AV01@H@Z ENDP ; std::_Vector_iterator<std::_Vector_val<ioAlchemicInventory::AlchemicItem,std::allocator<ioAlchemicInventory::AlchemicItem> > >::operator++
_TEXT	ENDS
PUBLIC	??9?$_Vector_const_iterator@V?$_Vector_val@UAlchemicItem@ioAlchemicInventory@@V?$allocator@UAlchemicItem@ioAlchemicInventory@@@std@@@std@@@std@@QBE_NABV01@@Z ; std::_Vector_const_iterator<std::_Vector_val<ioAlchemicInventory::AlchemicItem,std::allocator<ioAlchemicInventory::AlchemicItem> > >::operator!=
; Function compile flags: /Ogsp
;	COMDAT ??9?$_Vector_const_iterator@V?$_Vector_val@UAlchemicItem@ioAlchemicInventory@@V?$allocator@UAlchemicItem@ioAlchemicInventory@@@std@@@std@@@std@@QBE_NABV01@@Z
_TEXT	SEGMENT
__Right$ = 8						; size = 4
??9?$_Vector_const_iterator@V?$_Vector_val@UAlchemicItem@ioAlchemicInventory@@V?$allocator@UAlchemicItem@ioAlchemicInventory@@@std@@@std@@@std@@QBE_NABV01@@Z PROC ; std::_Vector_const_iterator<std::_Vector_val<ioAlchemicInventory::AlchemicItem,std::allocator<ioAlchemicInventory::AlchemicItem> > >::operator!=, COMDAT
; _this$ = ecx

; 207  : 		{	// test for iterator inequality

  00000	55		 push	 ebp
  00001	8b ec		 mov	 ebp, esp

; 208  : 		return (!(*this == _Right));

  00003	8b 01		 mov	 eax, DWORD PTR [ecx]
  00005	8b 55 08	 mov	 edx, DWORD PTR __Right$[ebp]
  00008	33 c9		 xor	 ecx, ecx
  0000a	3b 02		 cmp	 eax, DWORD PTR [edx]
  0000c	0f 95 c0	 setne	 al

; 209  : 		}

  0000f	5d		 pop	 ebp
  00010	c2 04 00	 ret	 4
??9?$_Vector_const_iterator@V?$_Vector_val@UAlchemicItem@ioAlchemicInventory@@V?$allocator@UAlchemicItem@ioAlchemicInventory@@@std@@@std@@@std@@QBE_NABV01@@Z ENDP ; std::_Vector_const_iterator<std::_Vector_val<ioAlchemicInventory::AlchemicItem,std::allocator<ioAlchemicInventory::AlchemicItem> > >::operator!=
_TEXT	ENDS
PUBLIC	?begin@?$vector@UtagAlchemicItemInfo@@V?$allocator@UtagAlchemicItemInfo@@@std@@@std@@QAE?AV?$_Vector_iterator@V?$_Vector_val@UtagAlchemicItemInfo@@V?$allocator@UtagAlchemicItemInfo@@@std@@@std@@@2@XZ ; std::vector<tagAlchemicItemInfo,std::allocator<tagAlchemicItemInfo> >::begin
; Function compile flags: /Ogsp
;	COMDAT ?begin@?$vector@UtagAlchemicItemInfo@@V?$allocator@UtagAlchemicItemInfo@@@std@@@std@@QAE?AV?$_Vector_iterator@V?$_Vector_val@UtagAlchemicItemInfo@@V?$allocator@UtagAlchemicItemInfo@@@std@@@std@@@2@XZ
_TEXT	SEGMENT
___$ReturnUdt$ = 8					; size = 4
?begin@?$vector@UtagAlchemicItemInfo@@V?$allocator@UtagAlchemicItemInfo@@@std@@@std@@QAE?AV?$_Vector_iterator@V?$_Vector_val@UtagAlchemicItemInfo@@V?$allocator@UtagAlchemicItemInfo@@@std@@@std@@@2@XZ PROC ; std::vector<tagAlchemicItemInfo,std::allocator<tagAlchemicItemInfo> >::begin, COMDAT
; _this$ = ecx

; 781  : 		{	// return iterator for beginning of mutable sequence

  00000	55		 push	 ebp
  00001	8b ec		 mov	 ebp, esp

; 782  : 		return (iterator(this->_Myfirst, this));

  00003	8b 09		 mov	 ecx, DWORD PTR [ecx]
  00005	8b 45 08	 mov	 eax, DWORD PTR ___$ReturnUdt$[ebp]
  00008	89 08		 mov	 DWORD PTR [eax], ecx

; 783  : 		}

  0000a	5d		 pop	 ebp
  0000b	c2 04 00	 ret	 4
?begin@?$vector@UtagAlchemicItemInfo@@V?$allocator@UtagAlchemicItemInfo@@@std@@@std@@QAE?AV?$_Vector_iterator@V?$_Vector_val@UtagAlchemicItemInfo@@V?$allocator@UtagAlchemicItemInfo@@@std@@@std@@@2@XZ ENDP ; std::vector<tagAlchemicItemInfo,std::allocator<tagAlchemicItemInfo> >::begin
_TEXT	ENDS
PUBLIC	?end@?$vector@UtagAlchemicItemInfo@@V?$allocator@UtagAlchemicItemInfo@@@std@@@std@@QAE?AV?$_Vector_iterator@V?$_Vector_val@UtagAlchemicItemInfo@@V?$allocator@UtagAlchemicItemInfo@@@std@@@std@@@2@XZ ; std::vector<tagAlchemicItemInfo,std::allocator<tagAlchemicItemInfo> >::end
; Function compile flags: /Ogsp
;	COMDAT ?end@?$vector@UtagAlchemicItemInfo@@V?$allocator@UtagAlchemicItemInfo@@@std@@@std@@QAE?AV?$_Vector_iterator@V?$_Vector_val@UtagAlchemicItemInfo@@V?$allocator@UtagAlchemicItemInfo@@@std@@@std@@@2@XZ
_TEXT	SEGMENT
___$ReturnUdt$ = 8					; size = 4
?end@?$vector@UtagAlchemicItemInfo@@V?$allocator@UtagAlchemicItemInfo@@@std@@@std@@QAE?AV?$_Vector_iterator@V?$_Vector_val@UtagAlchemicItemInfo@@V?$allocator@UtagAlchemicItemInfo@@@std@@@std@@@2@XZ PROC ; std::vector<tagAlchemicItemInfo,std::allocator<tagAlchemicItemInfo> >::end, COMDAT
; _this$ = ecx

; 791  : 		{	// return iterator for end of mutable sequence

  00000	55		 push	 ebp
  00001	8b ec		 mov	 ebp, esp

; 792  : 		return (iterator(this->_Mylast, this));

  00003	8b 49 04	 mov	 ecx, DWORD PTR [ecx+4]
  00006	8b 45 08	 mov	 eax, DWORD PTR ___$ReturnUdt$[ebp]
  00009	89 08		 mov	 DWORD PTR [eax], ecx

; 793  : 		}

  0000b	5d		 pop	 ebp
  0000c	c2 04 00	 ret	 4
?end@?$vector@UtagAlchemicItemInfo@@V?$allocator@UtagAlchemicItemInfo@@@std@@@std@@QAE?AV?$_Vector_iterator@V?$_Vector_val@UtagAlchemicItemInfo@@V?$allocator@UtagAlchemicItemInfo@@@std@@@std@@@2@XZ ENDP ; std::vector<tagAlchemicItemInfo,std::allocator<tagAlchemicItemInfo> >::end
_TEXT	ENDS
PUBLIC	?_Make_iter@?$vector@UtagAlchemicItemInfo@@V?$allocator@UtagAlchemicItemInfo@@@std@@@std@@QBE?AV?$_Vector_iterator@V?$_Vector_val@UtagAlchemicItemInfo@@V?$allocator@UtagAlchemicItemInfo@@@std@@@std@@@2@V?$_Vector_const_iterator@V?$_Vector_val@UtagAlchemicItemInfo@@V?$allocator@UtagAlchemicItemInfo@@@std@@@std@@@2@@Z ; std::vector<tagAlchemicItemInfo,std::allocator<tagAlchemicItemInfo> >::_Make_iter
; Function compile flags: /Ogsp
;	COMDAT ?_Make_iter@?$vector@UtagAlchemicItemInfo@@V?$allocator@UtagAlchemicItemInfo@@@std@@@std@@QBE?AV?$_Vector_iterator@V?$_Vector_val@UtagAlchemicItemInfo@@V?$allocator@UtagAlchemicItemInfo@@@std@@@std@@@2@V?$_Vector_const_iterator@V?$_Vector_val@UtagAlchemicItemInfo@@V?$allocator@UtagAlchemicItemInfo@@@std@@@std@@@2@@Z
_TEXT	SEGMENT
___$ReturnUdt$ = 8					; size = 4
__Where$ = 12						; size = 4
?_Make_iter@?$vector@UtagAlchemicItemInfo@@V?$allocator@UtagAlchemicItemInfo@@@std@@@std@@QBE?AV?$_Vector_iterator@V?$_Vector_val@UtagAlchemicItemInfo@@V?$allocator@UtagAlchemicItemInfo@@@std@@@std@@@2@V?$_Vector_const_iterator@V?$_Vector_val@UtagAlchemicItemInfo@@V?$allocator@UtagAlchemicItemInfo@@@std@@@std@@@2@@Z PROC ; std::vector<tagAlchemicItemInfo,std::allocator<tagAlchemicItemInfo> >::_Make_iter, COMDAT
; _this$ = ecx

; 801  : 		{	// make iterator from const_iterator

  00000	55		 push	 ebp
  00001	8b ec		 mov	 ebp, esp

; 802  : 		return (iterator(_Where._Ptr, this));

  00003	8b 45 08	 mov	 eax, DWORD PTR ___$ReturnUdt$[ebp]
  00006	8b 4d 0c	 mov	 ecx, DWORD PTR __Where$[ebp]
  00009	89 08		 mov	 DWORD PTR [eax], ecx

; 803  : 		}

  0000b	5d		 pop	 ebp
  0000c	c2 08 00	 ret	 8
?_Make_iter@?$vector@UtagAlchemicItemInfo@@V?$allocator@UtagAlchemicItemInfo@@@std@@@std@@QBE?AV?$_Vector_iterator@V?$_Vector_val@UtagAlchemicItemInfo@@V?$allocator@UtagAlchemicItemInfo@@@std@@@std@@@2@V?$_Vector_const_iterator@V?$_Vector_val@UtagAlchemicItemInfo@@V?$allocator@UtagAlchemicItemInfo@@@std@@@std@@@2@@Z ENDP ; std::vector<tagAlchemicItemInfo,std::allocator<tagAlchemicItemInfo> >::_Make_iter
_TEXT	ENDS
PUBLIC	??9?$_Vector_const_iterator@V?$_Vector_val@UtagAlchemicItemInfo@@V?$allocator@UtagAlchemicItemInfo@@@std@@@std@@@std@@QBE_NABV01@@Z ; std::_Vector_const_iterator<std::_Vector_val<tagAlchemicItemInfo,std::allocator<tagAlchemicItemInfo> > >::operator!=
; Function compile flags: /Ogsp
;	COMDAT ??9?$_Vector_const_iterator@V?$_Vector_val@UtagAlchemicItemInfo@@V?$allocator@UtagAlchemicItemInfo@@@std@@@std@@@std@@QBE_NABV01@@Z
_TEXT	SEGMENT
__Right$ = 8						; size = 4
??9?$_Vector_const_iterator@V?$_Vector_val@UtagAlchemicItemInfo@@V?$allocator@UtagAlchemicItemInfo@@@std@@@std@@@std@@QBE_NABV01@@Z PROC ; std::_Vector_const_iterator<std::_Vector_val<tagAlchemicItemInfo,std::allocator<tagAlchemicItemInfo> > >::operator!=, COMDAT
; _this$ = ecx

; 207  : 		{	// test for iterator inequality

  00000	55		 push	 ebp
  00001	8b ec		 mov	 ebp, esp

; 208  : 		return (!(*this == _Right));

  00003	8b 01		 mov	 eax, DWORD PTR [ecx]
  00005	8b 55 08	 mov	 edx, DWORD PTR __Right$[ebp]
  00008	33 c9		 xor	 ecx, ecx
  0000a	3b 02		 cmp	 eax, DWORD PTR [edx]
  0000c	0f 95 c0	 setne	 al

; 209  : 		}

  0000f	5d		 pop	 ebp
  00010	c2 04 00	 ret	 4
??9?$_Vector_const_iterator@V?$_Vector_val@UtagAlchemicItemInfo@@V?$allocator@UtagAlchemicItemInfo@@@std@@@std@@@std@@QBE_NABV01@@Z ENDP ; std::_Vector_const_iterator<std::_Vector_val<tagAlchemicItemInfo,std::allocator<tagAlchemicItemInfo> > >::operator!=
_TEXT	ENDS
PUBLIC	??$_Cons_val@V?$allocator@UtagAlchemicItemInfo@@@std@@UtagAlchemicItemInfo@@AAU3@@std@@YAXAAV?$allocator@UtagAlchemicItemInfo@@@0@PAUtagAlchemicItemInfo@@AAU2@@Z ; std::_Cons_val<std::allocator<tagAlchemicItemInfo>,tagAlchemicItemInfo,tagAlchemicItemInfo &>
;	COMDAT xdata$x
; File c:\program files (x86)\microsoft visual studio 10.0\vc\include\utility
xdata$x	SEGMENT
__unwindtable$??$_Cons_val@V?$allocator@UtagAlchemicItemInfo@@@std@@UtagAlchemicItemInfo@@AAU3@@std@@YAXAAV?$allocator@UtagAlchemicItemInfo@@@0@PAUtagAlchemicItemInfo@@AAU2@@Z DD 0ffffffffH
	DD	FLAT:__unwindfunclet$??$_Cons_val@V?$allocator@UtagAlchemicItemInfo@@@std@@UtagAlchemicItemInfo@@AAU3@@std@@YAXAAV?$allocator@UtagAlchemicItemInfo@@@0@PAUtagAlchemicItemInfo@@AAU2@@Z$0
__ehfuncinfo$??$_Cons_val@V?$allocator@UtagAlchemicItemInfo@@@std@@UtagAlchemicItemInfo@@AAU3@@std@@YAXAAV?$allocator@UtagAlchemicItemInfo@@@0@PAUtagAlchemicItemInfo@@AAU2@@Z DD 019930522H
	DD	01H
	DD	FLAT:__unwindtable$??$_Cons_val@V?$allocator@UtagAlchemicItemInfo@@@std@@UtagAlchemicItemInfo@@AAU3@@std@@YAXAAV?$allocator@UtagAlchemicItemInfo@@@0@PAUtagAlchemicItemInfo@@AAU2@@Z
	DD	2 DUP(00H)
	DD	2 DUP(00H)
	DD	00H
	DD	01H
; Function compile flags: /Ogsp
; File c:\program files (x86)\microsoft visual studio 10.0\vc\include\xmemory
xdata$x	ENDS
;	COMDAT ??$_Cons_val@V?$allocator@UtagAlchemicItemInfo@@@std@@UtagAlchemicItemInfo@@AAU3@@std@@YAXAAV?$allocator@UtagAlchemicItemInfo@@@0@PAUtagAlchemicItemInfo@@AAU2@@Z
_TEXT	SEGMENT
$T529535 = -16						; size = 4
__$EHRec$ = -12						; size = 12
__Alval$ = 8						; size = 4
__Pdest$ = 12						; size = 4
__Src$ = 16						; size = 4
??$_Cons_val@V?$allocator@UtagAlchemicItemInfo@@@std@@UtagAlchemicItemInfo@@AAU3@@std@@YAXAAV?$allocator@UtagAlchemicItemInfo@@@0@PAUtagAlchemicItemInfo@@AAU2@@Z PROC ; std::_Cons_val<std::allocator<tagAlchemicItemInfo>,tagAlchemicItemInfo,tagAlchemicItemInfo &>, COMDAT

; 279  : 	{	// construct using allocator

  00000	6a 04		 push	 4
  00002	b8 00 00 00 00	 mov	 eax, __ehhandler$??$_Cons_val@V?$allocator@UtagAlchemicItemInfo@@@std@@UtagAlchemicItemInfo@@AAU3@@std@@YAXAAV?$allocator@UtagAlchemicItemInfo@@@0@PAUtagAlchemicItemInfo@@AAU2@@Z
  00007	e8 00 00 00 00	 call	 __EH_prolog3

; 280  : 	_Alval.construct(_Pdest, _STD forward<_Ty2>(_Src));

  0000c	8b 4d 0c	 mov	 ecx, DWORD PTR __Pdest$[ebp]
  0000f	89 4d f0	 mov	 DWORD PTR $T529535[ebp], ecx
  00012	83 65 fc 00	 and	 DWORD PTR __$EHRec$[ebp+8], 0
  00016	85 c9		 test	 ecx, ecx
  00018	74 08		 je	 SHORT $LN7@Cons_val@2
  0001a	ff 75 10	 push	 DWORD PTR __Src$[ebp]
  0001d	e8 00 00 00 00	 call	 ??0tagAlchemicItemInfo@@QAE@ABU0@@Z
$LN7@Cons_val@2:

; 281  : 	}

  00022	e8 00 00 00 00	 call	 __EH_epilog3
  00027	c3		 ret	 0
_TEXT	ENDS
;	COMDAT text$x
text$x	SEGMENT
__unwindfunclet$??$_Cons_val@V?$allocator@UtagAlchemicItemInfo@@@std@@UtagAlchemicItemInfo@@AAU3@@std@@YAXAAV?$allocator@UtagAlchemicItemInfo@@@0@PAUtagAlchemicItemInfo@@AAU2@@Z$0:
  00000	ff 75 0c	 push	 DWORD PTR __Pdest$[ebp]
  00003	ff 75 f0	 push	 DWORD PTR $T529535[ebp]
  00006	e8 00 00 00 00	 call	 ??3@YAXPAX0@Z		; operator delete
  0000b	59		 pop	 ecx
  0000c	59		 pop	 ecx
  0000d	c3		 ret	 0
__ehhandler$??$_Cons_val@V?$allocator@UtagAlchemicItemInfo@@@std@@UtagAlchemicItemInfo@@AAU3@@std@@YAXAAV?$allocator@UtagAlchemicItemInfo@@@0@PAUtagAlchemicItemInfo@@AAU2@@Z:
  0000e	8b 54 24 08	 mov	 edx, DWORD PTR [esp+8]
  00012	8d 42 0c	 lea	 eax, DWORD PTR [edx+12]
  00015	8b 4a ec	 mov	 ecx, DWORD PTR [edx-20]
  00018	33 c8		 xor	 ecx, eax
  0001a	e8 00 00 00 00	 call	 @__security_check_cookie@4
  0001f	b8 00 00 00 00	 mov	 eax, OFFSET __ehfuncinfo$??$_Cons_val@V?$allocator@UtagAlchemicItemInfo@@@std@@UtagAlchemicItemInfo@@AAU3@@std@@YAXAAV?$allocator@UtagAlchemicItemInfo@@@0@PAUtagAlchemicItemInfo@@AAU2@@Z
  00024	e9 00 00 00 00	 jmp	 ___CxxFrameHandler3
text$x	ENDS
??$_Cons_val@V?$allocator@UtagAlchemicItemInfo@@@std@@UtagAlchemicItemInfo@@AAU3@@std@@YAXAAV?$allocator@UtagAlchemicItemInfo@@@0@PAUtagAlchemicItemInfo@@AAU2@@Z ENDP ; std::_Cons_val<std::allocator<tagAlchemicItemInfo>,tagAlchemicItemInfo,tagAlchemicItemInfo &>
PUBLIC	??$_Cons_val@V?$allocator@UAlchemicItem@ioAlchemicInventory@@@std@@UAlchemicItem@ioAlchemicInventory@@ABU34@@std@@YAXAAV?$allocator@UAlchemicItem@ioAlchemicInventory@@@0@PAUAlchemicItem@ioAlchemicInventory@@ABU23@@Z ; std::_Cons_val<std::allocator<ioAlchemicInventory::AlchemicItem>,ioAlchemicInventory::AlchemicItem,ioAlchemicInventory::AlchemicItem const &>
; Function compile flags: /Ogsp
;	COMDAT ??$_Cons_val@V?$allocator@UAlchemicItem@ioAlchemicInventory@@@std@@UAlchemicItem@ioAlchemicInventory@@ABU34@@std@@YAXAAV?$allocator@UAlchemicItem@ioAlchemicInventory@@@0@PAUAlchemicItem@ioAlchemicInventory@@ABU23@@Z
_TEXT	SEGMENT
__Alval$ = 8						; size = 4
__Pdest$ = 12						; size = 4
__Src$ = 16						; size = 4
??$_Cons_val@V?$allocator@UAlchemicItem@ioAlchemicInventory@@@std@@UAlchemicItem@ioAlchemicInventory@@ABU34@@std@@YAXAAV?$allocator@UAlchemicItem@ioAlchemicInventory@@@0@PAUAlchemicItem@ioAlchemicInventory@@ABU23@@Z PROC ; std::_Cons_val<std::allocator<ioAlchemicInventory::AlchemicItem>,ioAlchemicInventory::AlchemicItem,ioAlchemicInventory::AlchemicItem const &>, COMDAT

; 279  : 	{	// construct using allocator

  00000	55		 push	 ebp
  00001	8b ec		 mov	 ebp, esp
  00003	57		 push	 edi

; 280  : 	_Alval.construct(_Pdest, _STD forward<_Ty2>(_Src));

  00004	8b 7d 0c	 mov	 edi, DWORD PTR __Pdest$[ebp]
  00007	85 ff		 test	 edi, edi
  00009	74 0a		 je	 SHORT $LN9@Cons_val@3
  0000b	56		 push	 esi
  0000c	8b 75 10	 mov	 esi, DWORD PTR __Src$[ebp]
  0000f	6a 05		 push	 5
  00011	59		 pop	 ecx
  00012	f3 a5		 rep movsd
  00014	5e		 pop	 esi
$LN9@Cons_val@3:
  00015	5f		 pop	 edi

; 281  : 	}

  00016	5d		 pop	 ebp
  00017	c3		 ret	 0
??$_Cons_val@V?$allocator@UAlchemicItem@ioAlchemicInventory@@@std@@UAlchemicItem@ioAlchemicInventory@@ABU34@@std@@YAXAAV?$allocator@UAlchemicItem@ioAlchemicInventory@@@0@PAUAlchemicItem@ioAlchemicInventory@@ABU23@@Z ENDP ; std::_Cons_val<std::allocator<ioAlchemicInventory::AlchemicItem>,ioAlchemicInventory::AlchemicItem,ioAlchemicInventory::AlchemicItem const &>
_TEXT	ENDS
PUBLIC	??$_Move@PAUtagAlchemicItemInfo@@PAU1@@std@@YAPAUtagAlchemicItemInfo@@PAU1@00@Z ; std::_Move<tagAlchemicItemInfo *,tagAlchemicItemInfo *>
; Function compile flags: /Ogsp
; File c:\program files (x86)\microsoft visual studio 10.0\vc\include\xutility
;	COMDAT ??$_Move@PAUtagAlchemicItemInfo@@PAU1@@std@@YAPAUtagAlchemicItemInfo@@PAU1@00@Z
_TEXT	SEGMENT
__Cat$529596 = -4					; size = 1
__First$ = 8						; size = 4
__Last$ = 12						; size = 4
__Dest$ = 16						; size = 4
??$_Move@PAUtagAlchemicItemInfo@@PAU1@@std@@YAPAUtagAlchemicItemInfo@@PAU1@00@Z PROC ; std::_Move<tagAlchemicItemInfo *,tagAlchemicItemInfo *>, COMDAT

; 2533 : 	{	// move [_First, _Last) to [_Dest, ...), unchecked

  00000	55		 push	 ebp
  00001	8b ec		 mov	 ebp, esp
  00003	51		 push	 ecx

; 2534 : 	return (_Move(_First, _Last,
; 2535 : 		_Dest, _Ptr_cat(_First, _Dest)));

  00004	ff 75 fc	 push	 DWORD PTR __Cat$529596[ebp]
  00007	ff 75 10	 push	 DWORD PTR __Dest$[ebp]
  0000a	ff 75 0c	 push	 DWORD PTR __Last$[ebp]
  0000d	ff 75 08	 push	 DWORD PTR __First$[ebp]
  00010	e8 00 00 00 00	 call	 ??$_Move@PAUtagAlchemicItemInfo@@PAU1@@std@@YAPAUtagAlchemicItemInfo@@PAU1@00U_Nonscalar_ptr_iterator_tag@0@@Z ; std::_Move<tagAlchemicItemInfo *,tagAlchemicItemInfo *>
  00015	83 c4 10	 add	 esp, 16			; 00000010H

; 2536 : 	}

  00018	c9		 leave
  00019	c3		 ret	 0
??$_Move@PAUtagAlchemicItemInfo@@PAU1@@std@@YAPAUtagAlchemicItemInfo@@PAU1@00@Z ENDP ; std::_Move<tagAlchemicItemInfo *,tagAlchemicItemInfo *>
_TEXT	ENDS
PUBLIC	??$_Move@PAUAlchemicItem@ioAlchemicInventory@@PAU12@@std@@YAPAUAlchemicItem@ioAlchemicInventory@@PAU12@00@Z ; std::_Move<ioAlchemicInventory::AlchemicItem *,ioAlchemicInventory::AlchemicItem *>
; Function compile flags: /Ogsp
;	COMDAT ??$_Move@PAUAlchemicItem@ioAlchemicInventory@@PAU12@@std@@YAPAUAlchemicItem@ioAlchemicInventory@@PAU12@00@Z
_TEXT	SEGMENT
__Cat$529603 = -4					; size = 1
__First$ = 8						; size = 4
__Last$ = 12						; size = 4
__Dest$ = 16						; size = 4
??$_Move@PAUAlchemicItem@ioAlchemicInventory@@PAU12@@std@@YAPAUAlchemicItem@ioAlchemicInventory@@PAU12@00@Z PROC ; std::_Move<ioAlchemicInventory::AlchemicItem *,ioAlchemicInventory::AlchemicItem *>, COMDAT

; 2533 : 	{	// move [_First, _Last) to [_Dest, ...), unchecked

  00000	55		 push	 ebp
  00001	8b ec		 mov	 ebp, esp
  00003	51		 push	 ecx

; 2534 : 	return (_Move(_First, _Last,
; 2535 : 		_Dest, _Ptr_cat(_First, _Dest)));

  00004	ff 75 fc	 push	 DWORD PTR __Cat$529603[ebp]
  00007	ff 75 10	 push	 DWORD PTR __Dest$[ebp]
  0000a	ff 75 0c	 push	 DWORD PTR __Last$[ebp]
  0000d	ff 75 08	 push	 DWORD PTR __First$[ebp]
  00010	e8 00 00 00 00	 call	 ??$_Move@PAUAlchemicItem@ioAlchemicInventory@@PAU12@@std@@YAPAUAlchemicItem@ioAlchemicInventory@@PAU12@00U_Nonscalar_ptr_iterator_tag@0@@Z ; std::_Move<ioAlchemicInventory::AlchemicItem *,ioAlchemicInventory::AlchemicItem *>
  00015	83 c4 10	 add	 esp, 16			; 00000010H

; 2536 : 	}

  00018	c9		 leave
  00019	c3		 ret	 0
??$_Move@PAUAlchemicItem@ioAlchemicInventory@@PAU12@@std@@YAPAUAlchemicItem@ioAlchemicInventory@@PAU12@00@Z ENDP ; std::_Move<ioAlchemicInventory::AlchemicItem *,ioAlchemicInventory::AlchemicItem *>
_TEXT	ENDS
PUBLIC	?construct@?$allocator@UtagAlchemicItemInfo@@@std@@QAEXPAUtagAlchemicItemInfo@@ABU3@@Z ; std::allocator<tagAlchemicItemInfo>::construct
; Function compile flags: /Ogsp
; File c:\program files (x86)\microsoft visual studio 10.0\vc\include\xmemory
;	COMDAT ?construct@?$allocator@UtagAlchemicItemInfo@@@std@@QAEXPAUtagAlchemicItemInfo@@ABU3@@Z
_TEXT	SEGMENT
__Ptr$ = 8						; size = 4
__Val$ = 12						; size = 4
?construct@?$allocator@UtagAlchemicItemInfo@@@std@@QAEXPAUtagAlchemicItemInfo@@ABU3@@Z PROC ; std::allocator<tagAlchemicItemInfo>::construct, COMDAT
; _this$ = ecx

; 196  : 		{	// construct object at _Ptr with value _Val

  00000	55		 push	 ebp
  00001	8b ec		 mov	 ebp, esp

; 197  : 		_Construct(_Ptr, _Val);

  00003	ff 75 0c	 push	 DWORD PTR __Val$[ebp]
  00006	ff 75 08	 push	 DWORD PTR __Ptr$[ebp]
  00009	e8 00 00 00 00	 call	 ??$_Construct@UtagAlchemicItemInfo@@ABU1@@std@@YAXPAUtagAlchemicItemInfo@@ABU1@@Z ; std::_Construct<tagAlchemicItemInfo,tagAlchemicItemInfo const &>
  0000e	59		 pop	 ecx
  0000f	59		 pop	 ecx

; 198  : 		}

  00010	5d		 pop	 ebp
  00011	c2 08 00	 ret	 8
?construct@?$allocator@UtagAlchemicItemInfo@@@std@@QAEXPAUtagAlchemicItemInfo@@ABU3@@Z ENDP ; std::allocator<tagAlchemicItemInfo>::construct
_TEXT	ENDS
PUBLIC	??$_Dest_val@V?$allocator@UAlchemicItem@ioAlchemicInventory@@@std@@UAlchemicItem@ioAlchemicInventory@@@std@@YAXAAV?$allocator@UAlchemicItem@ioAlchemicInventory@@@0@PAUAlchemicItem@ioAlchemicInventory@@@Z ; std::_Dest_val<std::allocator<ioAlchemicInventory::AlchemicItem>,ioAlchemicInventory::AlchemicItem>
; Function compile flags: /Ogsp
;	COMDAT ??$_Dest_val@V?$allocator@UAlchemicItem@ioAlchemicInventory@@@std@@UAlchemicItem@ioAlchemicInventory@@@std@@YAXAAV?$allocator@UAlchemicItem@ioAlchemicInventory@@@0@PAUAlchemicItem@ioAlchemicInventory@@@Z
_TEXT	SEGMENT
__Alval$ = 8						; size = 4
__Pdest$ = 12						; size = 4
??$_Dest_val@V?$allocator@UAlchemicItem@ioAlchemicInventory@@@std@@UAlchemicItem@ioAlchemicInventory@@@std@@YAXAAV?$allocator@UAlchemicItem@ioAlchemicInventory@@@0@PAUAlchemicItem@ioAlchemicInventory@@@Z PROC ; std::_Dest_val<std::allocator<ioAlchemicInventory::AlchemicItem>,ioAlchemicInventory::AlchemicItem>, COMDAT

; 287  : 	_Alval.destroy(_Pdest);
; 288  : 	}

  00000	c3		 ret	 0
??$_Dest_val@V?$allocator@UAlchemicItem@ioAlchemicInventory@@@std@@UAlchemicItem@ioAlchemicInventory@@@std@@YAXAAV?$allocator@UAlchemicItem@ioAlchemicInventory@@@0@PAUAlchemicItem@ioAlchemicInventory@@@Z ENDP ; std::_Dest_val<std::allocator<ioAlchemicInventory::AlchemicItem>,ioAlchemicInventory::AlchemicItem>
_TEXT	ENDS
PUBLIC	?destroy@?$allocator@UtagAlchemicItemInfo@@@std@@QAEXPAUtagAlchemicItemInfo@@@Z ; std::allocator<tagAlchemicItemInfo>::destroy
; Function compile flags: /Ogsp
;	COMDAT ?destroy@?$allocator@UtagAlchemicItemInfo@@@std@@QAEXPAUtagAlchemicItemInfo@@@Z
_TEXT	SEGMENT
__Ptr$ = 8						; size = 4
?destroy@?$allocator@UtagAlchemicItemInfo@@@std@@QAEXPAUtagAlchemicItemInfo@@@Z PROC ; std::allocator<tagAlchemicItemInfo>::destroy, COMDAT
; _this$ = ecx

; 212  : 		{	// destroy object at _Ptr

  00000	55		 push	 ebp
  00001	8b ec		 mov	 ebp, esp

; 213  : 		_Destroy(_Ptr);

  00003	8b 4d 08	 mov	 ecx, DWORD PTR __Ptr$[ebp]
  00006	83 c1 08	 add	 ecx, 8
  00009	ff 15 00 00 00
	00		 call	 DWORD PTR __imp_??1ioHashString@@QAE@XZ

; 214  : 		}

  0000f	5d		 pop	 ebp
  00010	c2 04 00	 ret	 4
?destroy@?$allocator@UtagAlchemicItemInfo@@@std@@QAEXPAUtagAlchemicItemInfo@@@Z ENDP ; std::allocator<tagAlchemicItemInfo>::destroy
_TEXT	ENDS
PUBLIC	??$_Cons_val@V?$allocator@UtagAlchemicItemInfo@@@std@@UtagAlchemicItemInfo@@U3@@std@@YAXAAV?$allocator@UtagAlchemicItemInfo@@@0@PAUtagAlchemicItemInfo@@$$QAU2@@Z ; std::_Cons_val<std::allocator<tagAlchemicItemInfo>,tagAlchemicItemInfo,tagAlchemicItemInfo>
;	COMDAT xdata$x
; File c:\program files (x86)\microsoft visual studio 10.0\vc\include\utility
xdata$x	SEGMENT
__unwindtable$??$_Cons_val@V?$allocator@UtagAlchemicItemInfo@@@std@@UtagAlchemicItemInfo@@U3@@std@@YAXAAV?$allocator@UtagAlchemicItemInfo@@@0@PAUtagAlchemicItemInfo@@$$QAU2@@Z DD 0ffffffffH
	DD	FLAT:__unwindfunclet$??$_Cons_val@V?$allocator@UtagAlchemicItemInfo@@@std@@UtagAlchemicItemInfo@@U3@@std@@YAXAAV?$allocator@UtagAlchemicItemInfo@@@0@PAUtagAlchemicItemInfo@@$$QAU2@@Z$0
__ehfuncinfo$??$_Cons_val@V?$allocator@UtagAlchemicItemInfo@@@std@@UtagAlchemicItemInfo@@U3@@std@@YAXAAV?$allocator@UtagAlchemicItemInfo@@@0@PAUtagAlchemicItemInfo@@$$QAU2@@Z DD 019930522H
	DD	01H
	DD	FLAT:__unwindtable$??$_Cons_val@V?$allocator@UtagAlchemicItemInfo@@@std@@UtagAlchemicItemInfo@@U3@@std@@YAXAAV?$allocator@UtagAlchemicItemInfo@@@0@PAUtagAlchemicItemInfo@@$$QAU2@@Z
	DD	2 DUP(00H)
	DD	2 DUP(00H)
	DD	00H
	DD	01H
; Function compile flags: /Ogsp
; File c:\program files (x86)\microsoft visual studio 10.0\vc\include\xmemory
xdata$x	ENDS
;	COMDAT ??$_Cons_val@V?$allocator@UtagAlchemicItemInfo@@@std@@UtagAlchemicItemInfo@@U3@@std@@YAXAAV?$allocator@UtagAlchemicItemInfo@@@0@PAUtagAlchemicItemInfo@@$$QAU2@@Z
_TEXT	SEGMENT
$T529657 = -16						; size = 4
__$EHRec$ = -12						; size = 12
__Alval$ = 8						; size = 4
__Pdest$ = 12						; size = 4
__Src$ = 16						; size = 4
??$_Cons_val@V?$allocator@UtagAlchemicItemInfo@@@std@@UtagAlchemicItemInfo@@U3@@std@@YAXAAV?$allocator@UtagAlchemicItemInfo@@@0@PAUtagAlchemicItemInfo@@$$QAU2@@Z PROC ; std::_Cons_val<std::allocator<tagAlchemicItemInfo>,tagAlchemicItemInfo,tagAlchemicItemInfo>, COMDAT

; 279  : 	{	// construct using allocator

  00000	6a 04		 push	 4
  00002	b8 00 00 00 00	 mov	 eax, __ehhandler$??$_Cons_val@V?$allocator@UtagAlchemicItemInfo@@@std@@UtagAlchemicItemInfo@@U3@@std@@YAXAAV?$allocator@UtagAlchemicItemInfo@@@0@PAUtagAlchemicItemInfo@@$$QAU2@@Z
  00007	e8 00 00 00 00	 call	 __EH_prolog3

; 280  : 	_Alval.construct(_Pdest, _STD forward<_Ty2>(_Src));

  0000c	8b 4d 0c	 mov	 ecx, DWORD PTR __Pdest$[ebp]
  0000f	89 4d f0	 mov	 DWORD PTR $T529657[ebp], ecx
  00012	83 65 fc 00	 and	 DWORD PTR __$EHRec$[ebp+8], 0
  00016	85 c9		 test	 ecx, ecx
  00018	74 08		 je	 SHORT $LN7@Cons_val@4
  0001a	ff 75 10	 push	 DWORD PTR __Src$[ebp]
  0001d	e8 00 00 00 00	 call	 ??0tagAlchemicItemInfo@@QAE@ABU0@@Z
$LN7@Cons_val@4:

; 281  : 	}

  00022	e8 00 00 00 00	 call	 __EH_epilog3
  00027	c3		 ret	 0
_TEXT	ENDS
;	COMDAT text$x
text$x	SEGMENT
__unwindfunclet$??$_Cons_val@V?$allocator@UtagAlchemicItemInfo@@@std@@UtagAlchemicItemInfo@@U3@@std@@YAXAAV?$allocator@UtagAlchemicItemInfo@@@0@PAUtagAlchemicItemInfo@@$$QAU2@@Z$0:
  00000	ff 75 0c	 push	 DWORD PTR __Pdest$[ebp]
  00003	ff 75 f0	 push	 DWORD PTR $T529657[ebp]
  00006	e8 00 00 00 00	 call	 ??3@YAXPAX0@Z		; operator delete
  0000b	59		 pop	 ecx
  0000c	59		 pop	 ecx
  0000d	c3		 ret	 0
__ehhandler$??$_Cons_val@V?$allocator@UtagAlchemicItemInfo@@@std@@UtagAlchemicItemInfo@@U3@@std@@YAXAAV?$allocator@UtagAlchemicItemInfo@@@0@PAUtagAlchemicItemInfo@@$$QAU2@@Z:
  0000e	8b 54 24 08	 mov	 edx, DWORD PTR [esp+8]
  00012	8d 42 0c	 lea	 eax, DWORD PTR [edx+12]
  00015	8b 4a ec	 mov	 ecx, DWORD PTR [edx-20]
  00018	33 c8		 xor	 ecx, eax
  0001a	e8 00 00 00 00	 call	 @__security_check_cookie@4
  0001f	b8 00 00 00 00	 mov	 eax, OFFSET __ehfuncinfo$??$_Cons_val@V?$allocator@UtagAlchemicItemInfo@@@std@@UtagAlchemicItemInfo@@U3@@std@@YAXAAV?$allocator@UtagAlchemicItemInfo@@@0@PAUtagAlchemicItemInfo@@$$QAU2@@Z
  00024	e9 00 00 00 00	 jmp	 ___CxxFrameHandler3
text$x	ENDS
??$_Cons_val@V?$allocator@UtagAlchemicItemInfo@@@std@@UtagAlchemicItemInfo@@U3@@std@@YAXAAV?$allocator@UtagAlchemicItemInfo@@@0@PAUtagAlchemicItemInfo@@$$QAU2@@Z ENDP ; std::_Cons_val<std::allocator<tagAlchemicItemInfo>,tagAlchemicItemInfo,tagAlchemicItemInfo>
PUBLIC	??$_Cons_val@V?$allocator@UAlchemicItem@ioAlchemicInventory@@@std@@UAlchemicItem@ioAlchemicInventory@@U34@@std@@YAXAAV?$allocator@UAlchemicItem@ioAlchemicInventory@@@0@PAUAlchemicItem@ioAlchemicInventory@@$$QAU23@@Z ; std::_Cons_val<std::allocator<ioAlchemicInventory::AlchemicItem>,ioAlchemicInventory::AlchemicItem,ioAlchemicInventory::AlchemicItem>
; Function compile flags: /Ogsp
;	COMDAT ??$_Cons_val@V?$allocator@UAlchemicItem@ioAlchemicInventory@@@std@@UAlchemicItem@ioAlchemicInventory@@U34@@std@@YAXAAV?$allocator@UAlchemicItem@ioAlchemicInventory@@@0@PAUAlchemicItem@ioAlchemicInventory@@$$QAU23@@Z
_TEXT	SEGMENT
__Alval$ = 8						; size = 4
__Pdest$ = 12						; size = 4
__Src$ = 16						; size = 4
??$_Cons_val@V?$allocator@UAlchemicItem@ioAlchemicInventory@@@std@@UAlchemicItem@ioAlchemicInventory@@U34@@std@@YAXAAV?$allocator@UAlchemicItem@ioAlchemicInventory@@@0@PAUAlchemicItem@ioAlchemicInventory@@$$QAU23@@Z PROC ; std::_Cons_val<std::allocator<ioAlchemicInventory::AlchemicItem>,ioAlchemicInventory::AlchemicItem,ioAlchemicInventory::AlchemicItem>, COMDAT

; 279  : 	{	// construct using allocator

  00000	55		 push	 ebp
  00001	8b ec		 mov	 ebp, esp
  00003	57		 push	 edi

; 280  : 	_Alval.construct(_Pdest, _STD forward<_Ty2>(_Src));

  00004	8b 7d 0c	 mov	 edi, DWORD PTR __Pdest$[ebp]
  00007	85 ff		 test	 edi, edi
  00009	74 0a		 je	 SHORT $LN7@Cons_val@5
  0000b	56		 push	 esi
  0000c	8b 75 10	 mov	 esi, DWORD PTR __Src$[ebp]
  0000f	6a 05		 push	 5
  00011	59		 pop	 ecx
  00012	f3 a5		 rep movsd
  00014	5e		 pop	 esi
$LN7@Cons_val@5:
  00015	5f		 pop	 edi

; 281  : 	}

  00016	5d		 pop	 ebp
  00017	c3		 ret	 0
??$_Cons_val@V?$allocator@UAlchemicItem@ioAlchemicInventory@@@std@@UAlchemicItem@ioAlchemicInventory@@U34@@std@@YAXAAV?$allocator@UAlchemicItem@ioAlchemicInventory@@@0@PAUAlchemicItem@ioAlchemicInventory@@$$QAU23@@Z ENDP ; std::_Cons_val<std::allocator<ioAlchemicInventory::AlchemicItem>,ioAlchemicInventory::AlchemicItem,ioAlchemicInventory::AlchemicItem>
_TEXT	ENDS
PUBLIC	?FindAlchemicItem@ioAlchemicInventory@@IAE_NHAAUAlchemicItem@1@@Z ; ioAlchemicInventory::FindAlchemicItem
; Function compile flags: /Ogsp
; File d:\lost saga for developer\youtube\tutorial\source\src\lsclient\ioalchemicinventory.cpp
;	COMDAT ?FindAlchemicItem@ioAlchemicInventory@@IAE_NHAAUAlchemicItem@1@@Z
_TEXT	SEGMENT
_iCode$ = 8						; size = 4
_rkAlchemicItem$ = 12					; size = 4
?FindAlchemicItem@ioAlchemicInventory@@IAE_NHAAUAlchemicItem@1@@Z PROC ; ioAlchemicInventory::FindAlchemicItem, COMDAT
; _this$ = ecx

; 72   : {

  00000	55		 push	 ebp
  00001	8b ec		 mov	 ebp, esp

; 73   : 	rkAlchemicItem.Init();

  00003	33 c0		 xor	 eax, eax
  00005	57		 push	 edi
  00006	8b 7d 0c	 mov	 edi, DWORD PTR _rkAlchemicItem$[ebp]
  00009	89 07		 mov	 DWORD PTR [edi], eax
  0000b	89 47 04	 mov	 DWORD PTR [edi+4], eax
  0000e	89 47 08	 mov	 DWORD PTR [edi+8], eax
  00011	89 47 0c	 mov	 DWORD PTR [edi+12], eax
  00014	88 47 10	 mov	 BYTE PTR [edi+16], al

; 74   : 
; 75   : 	if( m_vAlchemicList.empty() )

  00017	8b 41 04	 mov	 eax, DWORD PTR [ecx+4]
  0001a	3b 41 08	 cmp	 eax, DWORD PTR [ecx+8]
  0001d	75 04		 jne	 SHORT $LN5@FindAlchem

; 76   : 		return false;

  0001f	32 c0		 xor	 al, al
  00021	eb 1a		 jmp	 SHORT $LN6@FindAlchem
$LN5@FindAlchem:

; 77   : 
; 78   : 	vAlchemicItem::iterator iter, iEnd;
; 79   : 	iEnd = m_vAlchemicList.end();

  00023	8b 41 08	 mov	 eax, DWORD PTR [ecx+8]
  00026	56		 push	 esi

; 80   : 	for(iter = m_vAlchemicList.begin();iter != iEnd;iter++)

  00027	8b 71 04	 mov	 esi, DWORD PTR [ecx+4]
  0002a	eb 0a		 jmp	 SHORT $LN56@FindAlchem
$LL40@FindAlchem:

; 81   : 	{
; 82   : 		AlchemicItem &kItem = *iter;
; 83   : 
; 84   : 		if( kItem.m_iCode == iCode )

  0002c	8b 0e		 mov	 ecx, DWORD PTR [esi]
  0002e	3b 4d 08	 cmp	 ecx, DWORD PTR _iCode$[ebp]
  00031	74 0f		 je	 SHORT $LN53@FindAlchem

; 80   : 	for(iter = m_vAlchemicList.begin();iter != iEnd;iter++)

  00033	83 c6 14	 add	 esi, 20			; 00000014H
$LN56@FindAlchem:
  00036	3b f0		 cmp	 esi, eax
  00038	75 f2		 jne	 SHORT $LL40@FindAlchem

; 88   : 		}
; 89   : 	}
; 90   : 
; 91   : 	return false;

  0003a	32 c0		 xor	 al, al
$LN55@FindAlchem:
  0003c	5e		 pop	 esi
$LN6@FindAlchem:
  0003d	5f		 pop	 edi

; 92   : }

  0003e	5d		 pop	 ebp
  0003f	c2 08 00	 ret	 8
$LN53@FindAlchem:

; 85   : 		{
; 86   : 			rkAlchemicItem = kItem;

  00042	6a 05		 push	 5
  00044	59		 pop	 ecx
  00045	f3 a5		 rep movsd

; 87   : 			return true;

  00047	b0 01		 mov	 al, 1
  00049	eb f1		 jmp	 SHORT $LN55@FindAlchem
?FindAlchemicItem@ioAlchemicInventory@@IAE_NHAAUAlchemicItem@1@@Z ENDP ; ioAlchemicInventory::FindAlchemicItem
_TEXT	ENDS
PUBLIC	?HasAlchemicItem@ioAlchemicInventory@@QAE_NH@Z	; ioAlchemicInventory::HasAlchemicItem
; Function compile flags: /Ogsp
;	COMDAT ?HasAlchemicItem@ioAlchemicInventory@@QAE_NH@Z
_TEXT	SEGMENT
_iCode$ = 8						; size = 4
?HasAlchemicItem@ioAlchemicInventory@@QAE_NH@Z PROC	; ioAlchemicInventory::HasAlchemicItem, COMDAT
; _this$ = ecx

; 95   : {

  00000	55		 push	 ebp
  00001	8b ec		 mov	 ebp, esp

; 96   : 	if( m_vAlchemicList.empty() )

  00003	8b 41 04	 mov	 eax, DWORD PTR [ecx+4]
  00006	3b 41 08	 cmp	 eax, DWORD PTR [ecx+8]

; 97   : 		return false;

  00009	74 16		 je	 SHORT $LN2@HasAlchemi

; 98   : 
; 99   : 	vAlchemicItem::iterator iter, iEnd;
; 100  : 	iEnd = m_vAlchemicList.end();

  0000b	8b 41 08	 mov	 eax, DWORD PTR [ecx+8]

; 101  : 	for(iter = m_vAlchemicList.begin();iter != iEnd;iter++)

  0000e	8b 49 04	 mov	 ecx, DWORD PTR [ecx+4]
  00011	eb 0a		 jmp	 SHORT $LN53@HasAlchemi
$LL38@HasAlchemi:

; 102  : 	{
; 103  : 		AlchemicItem &kItem = *iter;
; 104  : 
; 105  : 		if( kItem.m_iCode == iCode )

  00013	8b 11		 mov	 edx, DWORD PTR [ecx]
  00015	3b 55 08	 cmp	 edx, DWORD PTR _iCode$[ebp]
  00018	74 0d		 je	 SHORT $LN51@HasAlchemi

; 101  : 	for(iter = m_vAlchemicList.begin();iter != iEnd;iter++)

  0001a	83 c1 14	 add	 ecx, 20			; 00000014H
$LN53@HasAlchemi:
  0001d	3b c8		 cmp	 ecx, eax
  0001f	75 f2		 jne	 SHORT $LL38@HasAlchemi
$LN2@HasAlchemi:

; 107  : 	}
; 108  : 
; 109  : 	return false;

  00021	32 c0		 xor	 al, al
$LN6@HasAlchemi:

; 110  : }

  00023	5d		 pop	 ebp
  00024	c2 04 00	 ret	 4
$LN51@HasAlchemi:

; 106  : 			return true;

  00027	b0 01		 mov	 al, 1
  00029	eb f8		 jmp	 SHORT $LN6@HasAlchemi
?HasAlchemicItem@ioAlchemicInventory@@QAE_NH@Z ENDP	; ioAlchemicInventory::HasAlchemicItem
_TEXT	ENDS
PUBLIC	?DeleteAlchemicItem@ioAlchemicInventory@@IAE_NH@Z ; ioAlchemicInventory::DeleteAlchemicItem
; Function compile flags: /Ogsp
;	COMDAT ?DeleteAlchemicItem@ioAlchemicInventory@@IAE_NH@Z
_TEXT	SEGMENT
_iCode$ = 8						; size = 4
?DeleteAlchemicItem@ioAlchemicInventory@@IAE_NH@Z PROC	; ioAlchemicInventory::DeleteAlchemicItem, COMDAT
; _this$ = ecx

; 142  : {

  00000	55		 push	 ebp
  00001	8b ec		 mov	 ebp, esp

; 143  : 	if( m_vAlchemicList.empty() )

  00003	8b 41 04	 mov	 eax, DWORD PTR [ecx+4]
  00006	3b 41 08	 cmp	 eax, DWORD PTR [ecx+8]

; 144  : 		return false;

  00009	74 13		 je	 SHORT $LN2@DeleteAlch

; 145  : 
; 146  : 	vAlchemicItem::iterator iter, iEnd;
; 147  : 	iEnd = m_vAlchemicList.end();

  0000b	8b 51 08	 mov	 edx, DWORD PTR [ecx+8]
  0000e	eb 0a		 jmp	 SHORT $LN53@DeleteAlch

; 148  : 	for(iter = m_vAlchemicList.begin();iter != iEnd;iter++)

$LL38@DeleteAlch:

; 149  : 	{
; 150  : 		AlchemicItem &kItem = *iter;
; 151  : 
; 152  : 		if( kItem.m_iCode == iCode )

  00010	8b 08		 mov	 ecx, DWORD PTR [eax]
  00012	3b 4d 08	 cmp	 ecx, DWORD PTR _iCode$[ebp]
  00015	74 0d		 je	 SHORT $LN51@DeleteAlch

; 148  : 	for(iter = m_vAlchemicList.begin();iter != iEnd;iter++)

  00017	83 c0 14	 add	 eax, 20			; 00000014H
$LN53@DeleteAlch:
  0001a	3b c2		 cmp	 eax, edx
  0001c	75 f2		 jne	 SHORT $LL38@DeleteAlch
$LN2@DeleteAlch:

; 159  : 		}
; 160  : 	}
; 161  : 
; 162  : 	return false;

  0001e	32 c0		 xor	 al, al
$LN6@DeleteAlch:

; 163  : }

  00020	5d		 pop	 ebp
  00021	c2 04 00	 ret	 4
$LN51@DeleteAlch:

; 153  : 		{
; 154  : 			kItem.m_iCode = 0;

  00024	33 c9		 xor	 ecx, ecx
  00026	89 08		 mov	 DWORD PTR [eax], ecx

; 155  : 			kItem.m_iCount = 0;

  00028	89 48 04	 mov	 DWORD PTR [eax+4], ecx

; 156  : 			kItem.m_iValue1 = 0;

  0002b	89 48 08	 mov	 DWORD PTR [eax+8], ecx

; 157  : 			kItem.m_iValue2 = 0;

  0002e	89 48 0c	 mov	 DWORD PTR [eax+12], ecx

; 158  : 			return true;

  00031	b0 01		 mov	 al, 1
  00033	eb eb		 jmp	 SHORT $LN6@DeleteAlch
?DeleteAlchemicItem@ioAlchemicInventory@@IAE_NH@Z ENDP	; ioAlchemicInventory::DeleteAlchemicItem
_TEXT	ENDS
PUBLIC	?ChangeAlchemicItem@ioAlchemicInventory@@IAE_NHABUAlchemicItem@1@@Z ; ioAlchemicInventory::ChangeAlchemicItem
; Function compile flags: /Ogsp
;	COMDAT ?ChangeAlchemicItem@ioAlchemicInventory@@IAE_NHABUAlchemicItem@1@@Z
_TEXT	SEGMENT
_iCode$ = 8						; size = 4
_rkAlchemicItem$ = 12					; size = 4
?ChangeAlchemicItem@ioAlchemicInventory@@IAE_NHABUAlchemicItem@1@@Z PROC ; ioAlchemicInventory::ChangeAlchemicItem, COMDAT
; _this$ = ecx

; 166  : {

  00000	55		 push	 ebp
  00001	8b ec		 mov	 ebp, esp

; 167  : 	vAlchemicItem::iterator iter, iEnd;
; 168  : 	iEnd = m_vAlchemicList.end();

  00003	8b 51 08	 mov	 edx, DWORD PTR [ecx+8]

; 169  : 	for(iter = m_vAlchemicList.begin();iter != iEnd;iter++)

  00006	8b 41 04	 mov	 eax, DWORD PTR [ecx+4]
  00009	eb 0a		 jmp	 SHORT $LN52@ChangeAlch
$LL37@ChangeAlch:

; 170  : 	{
; 171  : 		AlchemicItem &kItem = *iter;
; 172  : 
; 173  : 		if( kItem.m_iCode == iCode )

  0000b	8b 08		 mov	 ecx, DWORD PTR [eax]
  0000d	3b 4d 08	 cmp	 ecx, DWORD PTR _iCode$[ebp]
  00010	74 0d		 je	 SHORT $LN50@ChangeAlch

; 169  : 	for(iter = m_vAlchemicList.begin();iter != iEnd;iter++)

  00012	83 c0 14	 add	 eax, 20			; 00000014H
$LN52@ChangeAlch:
  00015	3b c2		 cmp	 eax, edx
  00017	75 f2		 jne	 SHORT $LL37@ChangeAlch

; 190  : 		}
; 191  : 	}
; 192  : 
; 193  : 	return false;

  00019	32 c0		 xor	 al, al
$LN7@ChangeAlch:

; 194  : }

  0001b	5d		 pop	 ebp
  0001c	c2 08 00	 ret	 8
$LN50@ChangeAlch:

; 174  : 		{
; 175  : 			if( rkAlchemicItem.m_iCount == 0 )

  0001f	8b 4d 0c	 mov	 ecx, DWORD PTR _rkAlchemicItem$[ebp]
  00022	33 d2		 xor	 edx, edx
  00024	39 51 04	 cmp	 DWORD PTR [ecx+4], edx
  00027	75 07		 jne	 SHORT $LN2@ChangeAlch

; 176  : 			{
; 177  : 				kItem.m_iCode = 0;

  00029	89 10		 mov	 DWORD PTR [eax], edx

; 178  : 				kItem.m_iCount = 0;

  0002b	89 50 04	 mov	 DWORD PTR [eax+4], edx

; 179  : 				kItem.m_iValue1 = 0;
; 180  : 				kItem.m_iValue2 = 0;
; 181  : 			}
; 182  : 			else

  0002e	eb 0c		 jmp	 SHORT $LN53@ChangeAlch
$LN2@ChangeAlch:
  00030	56		 push	 esi

; 183  : 			{
; 184  : 				kItem.m_iCode = rkAlchemicItem.m_iCode;

  00031	8b 31		 mov	 esi, DWORD PTR [ecx]
  00033	89 30		 mov	 DWORD PTR [eax], esi

; 185  : 				kItem.m_iCount = rkAlchemicItem.m_iCount;

  00035	8b 49 04	 mov	 ecx, DWORD PTR [ecx+4]
  00038	89 48 04	 mov	 DWORD PTR [eax+4], ecx
  0003b	5e		 pop	 esi
$LN53@ChangeAlch:

; 186  : 				kItem.m_iValue1 = 0;
; 187  : 				kItem.m_iValue2 = 0;

  0003c	89 50 0c	 mov	 DWORD PTR [eax+12], edx
  0003f	89 50 08	 mov	 DWORD PTR [eax+8], edx

; 188  : 			}
; 189  : 			return true;

  00042	b0 01		 mov	 al, 1
  00044	eb d5		 jmp	 SHORT $LN7@ChangeAlch
?ChangeAlchemicItem@ioAlchemicInventory@@IAE_NHABUAlchemicItem@1@@Z ENDP ; ioAlchemicInventory::ChangeAlchemicItem
_TEXT	ENDS
PUBLIC	?UseAlchemicItem@ioAlchemicInventory@@QAE_NHH@Z	; ioAlchemicInventory::UseAlchemicItem
; Function compile flags: /Ogsp
;	COMDAT ?UseAlchemicItem@ioAlchemicInventory@@QAE_NHH@Z
_TEXT	SEGMENT
_kTmpItem$ = -20					; size = 20
_iCode$ = 8						; size = 4
_iCount$ = 12						; size = 4
?UseAlchemicItem@ioAlchemicInventory@@QAE_NHH@Z PROC	; ioAlchemicInventory::UseAlchemicItem, COMDAT
; _this$ = ecx

; 225  : {

  00000	55		 push	 ebp
  00001	8b ec		 mov	 ebp, esp
  00003	8b d1		 mov	 edx, ecx

; 226  : 	if( m_vAlchemicList.empty() )

  00005	8b 42 04	 mov	 eax, DWORD PTR [edx+4]
  00008	83 ec 14	 sub	 esp, 20			; 00000014H
  0000b	3b 42 08	 cmp	 eax, DWORD PTR [edx+8]
  0000e	75 04		 jne	 SHORT $LN5@UseAlchemi

; 227  : 		return false;

  00010	32 c0		 xor	 al, al
  00012	eb 46		 jmp	 SHORT $LN1@UseAlchemi
$LN5@UseAlchemi:
  00014	56		 push	 esi

; 228  : 
; 229  : 	if( iCount <= 0 )

  00015	8b 75 0c	 mov	 esi, DWORD PTR _iCount$[ebp]
  00018	33 c0		 xor	 eax, eax
  0001a	3b f0		 cmp	 esi, eax

; 230  : 		return false;

  0001c	7e 24		 jle	 SHORT $LN15@UseAlchemi

; 231  : 
; 232  : 	AlchemicItem kTmpItem;

  0001e	89 45 ec	 mov	 DWORD PTR _kTmpItem$[ebp], eax
  00021	89 45 f0	 mov	 DWORD PTR _kTmpItem$[ebp+4], eax
  00024	89 45 f4	 mov	 DWORD PTR _kTmpItem$[ebp+8], eax
  00027	89 45 f8	 mov	 DWORD PTR _kTmpItem$[ebp+12], eax
  0002a	88 45 fc	 mov	 BYTE PTR _kTmpItem$[ebp+16], al

; 233  : 	if( !FindAlchemicItem( iCode, kTmpItem ) )

  0002d	8d 45 ec	 lea	 eax, DWORD PTR _kTmpItem$[ebp]
  00030	50		 push	 eax
  00031	ff 75 08	 push	 DWORD PTR _iCode$[ebp]
  00034	e8 00 00 00 00	 call	 ?FindAlchemicItem@ioAlchemicInventory@@IAE_NHAAUAlchemicItem@1@@Z ; ioAlchemicInventory::FindAlchemicItem
  00039	84 c0		 test	 al, al

; 234  : 		return false;

  0003b	74 05		 je	 SHORT $LN15@UseAlchemi

; 235  : 
; 236  : 	kTmpItem.m_iCount -= iCount;

  0003d	29 75 f0	 sub	 DWORD PTR _kTmpItem$[ebp+4], esi

; 237  : 
; 238  : 	if( kTmpItem.m_iCount < 0 )

  00040	79 04		 jns	 SHORT $LN2@UseAlchemi
$LN15@UseAlchemi:

; 239  : 		return false;

  00042	32 c0		 xor	 al, al
  00044	eb 13		 jmp	 SHORT $LN14@UseAlchemi
$LN2@UseAlchemi:

; 240  : 
; 241  : 	if( ChangeAlchemicItem( iCode, kTmpItem ) )

  00046	8d 45 ec	 lea	 eax, DWORD PTR _kTmpItem$[ebp]
  00049	50		 push	 eax
  0004a	ff 75 08	 push	 DWORD PTR _iCode$[ebp]
  0004d	8b ca		 mov	 ecx, edx
  0004f	e8 00 00 00 00	 call	 ?ChangeAlchemicItem@ioAlchemicInventory@@IAE_NHABUAlchemicItem@1@@Z ; ioAlchemicInventory::ChangeAlchemicItem
  00054	84 c0		 test	 al, al
  00056	0f 95 c0	 setne	 al
$LN14@UseAlchemi:
  00059	5e		 pop	 esi
$LN1@UseAlchemi:

; 242  : 		return true;
; 243  : 
; 244  : 	return false;
; 245  : }

  0005a	c9		 leave
  0005b	c2 08 00	 ret	 8
?UseAlchemicItem@ioAlchemicInventory@@QAE_NHH@Z ENDP	; ioAlchemicInventory::UseAlchemicItem
_TEXT	ENDS
PUBLIC	?CheckEmptySlot@ioAlchemicInventory@@QAE_NXZ	; ioAlchemicInventory::CheckEmptySlot
; Function compile flags: /Ogsp
;	COMDAT ?CheckEmptySlot@ioAlchemicInventory@@QAE_NXZ
_TEXT	SEGMENT
?CheckEmptySlot@ioAlchemicInventory@@QAE_NXZ PROC	; ioAlchemicInventory::CheckEmptySlot, COMDAT
; _this$ = ecx

; 249  : 	vAlchemicItem::iterator iter, iEnd;
; 250  : 	iEnd = m_vAlchemicList.end();

  00000	8b 41 08	 mov	 eax, DWORD PTR [ecx+8]

; 251  : 
; 252  : 	int iCurSlotCnt = 0;
; 253  : 	for(iter = m_vAlchemicList.begin();iter != iEnd;iter++)

  00003	8b 49 04	 mov	 ecx, DWORD PTR [ecx+4]
  00006	33 d2		 xor	 edx, edx
  00008	3b c8		 cmp	 ecx, eax
  0000a	74 15		 je	 SHORT $LN49@CheckEmpty
$LL36@CheckEmpty:

; 254  : 	{
; 255  : 		AlchemicItem &kAlchemic = *iter;
; 256  : 
; 257  : 		iCurSlotCnt++;

  0000c	42		 inc	 edx

; 258  : 
; 259  : 		if( kAlchemic.m_iCode == 0 )

  0000d	83 39 00	 cmp	 DWORD PTR [ecx], 0
  00010	74 0f		 je	 SHORT $LN49@CheckEmpty

; 251  : 
; 252  : 	int iCurSlotCnt = 0;
; 253  : 	for(iter = m_vAlchemicList.begin();iter != iEnd;iter++)

  00012	83 c1 14	 add	 ecx, 20			; 00000014H
  00015	3b c8		 cmp	 ecx, eax
  00017	75 f3		 jne	 SHORT $LL36@CheckEmpty

; 261  : 	}
; 262  : 
; 263  : 	if( iCurSlotCnt < MAX_INVEN )

  00019	83 fa 1e	 cmp	 edx, 30			; 0000001eH

; 264  : 		return true;

  0001c	7c 03		 jl	 SHORT $LN49@CheckEmpty

; 265  : 
; 266  : 	return false;

  0001e	32 c0		 xor	 al, al

; 267  : }

  00020	c3		 ret	 0
$LN49@CheckEmpty:

; 260  : 			return true;

  00021	b0 01		 mov	 al, 1

; 267  : }

  00023	c3		 ret	 0
?CheckEmptySlot@ioAlchemicInventory@@QAE_NXZ ENDP	; ioAlchemicInventory::CheckEmptySlot
_TEXT	ENDS
PUBLIC	?GetAlchemicItemCnt@ioAlchemicInventory@@QAEHH@Z ; ioAlchemicInventory::GetAlchemicItemCnt
; Function compile flags: /Ogsp
;	COMDAT ?GetAlchemicItemCnt@ioAlchemicInventory@@QAEHH@Z
_TEXT	SEGMENT
_kTmpItem$ = -20					; size = 20
_iCode$ = 8						; size = 4
?GetAlchemicItemCnt@ioAlchemicInventory@@QAEHH@Z PROC	; ioAlchemicInventory::GetAlchemicItemCnt, COMDAT
; _this$ = ecx

; 270  : {

  00000	55		 push	 ebp
  00001	8b ec		 mov	 ebp, esp
  00003	83 ec 14	 sub	 esp, 20			; 00000014H

; 271  : 	AlchemicItem kTmpItem;

  00006	83 65 f0 00	 and	 DWORD PTR _kTmpItem$[ebp+4], 0

; 272  : 	if( FindAlchemicItem( iCode, kTmpItem ) )

  0000a	8d 45 ec	 lea	 eax, DWORD PTR _kTmpItem$[ebp]
  0000d	50		 push	 eax
  0000e	ff 75 08	 push	 DWORD PTR _iCode$[ebp]
  00011	e8 00 00 00 00	 call	 ?FindAlchemicItem@ioAlchemicInventory@@IAE_NHAAUAlchemicItem@1@@Z ; ioAlchemicInventory::FindAlchemicItem
  00016	0f b6 c0	 movzx	 eax, al
  00019	f7 d8		 neg	 eax
  0001b	1b c0		 sbb	 eax, eax
  0001d	23 45 f0	 and	 eax, DWORD PTR _kTmpItem$[ebp+4]

; 273  : 		return kTmpItem.m_iCount;
; 274  : 
; 275  : 	return 0;
; 276  : }

  00020	c9		 leave
  00021	c2 04 00	 ret	 4
?GetAlchemicItemCnt@ioAlchemicInventory@@QAEHH@Z ENDP	; ioAlchemicInventory::GetAlchemicItemCnt
_TEXT	ENDS
PUBLIC	?AlchemicItemAddNew@ioAlchemicInventory@@IAEXH@Z ; ioAlchemicInventory::AlchemicItemAddNew
; Function compile flags: /Ogsp
;	COMDAT ?AlchemicItemAddNew@ioAlchemicInventory@@IAEXH@Z
_TEXT	SEGMENT
_iCode$ = 8						; size = 4
?AlchemicItemAddNew@ioAlchemicInventory@@IAEXH@Z PROC	; ioAlchemicInventory::AlchemicItemAddNew, COMDAT
; _this$ = ecx

; 311  : {

  00000	55		 push	 ebp
  00001	8b ec		 mov	 ebp, esp

; 312  : 	if( m_vAlchemicList.empty() )

  00003	8b 41 04	 mov	 eax, DWORD PTR [ecx+4]
  00006	3b 41 08	 cmp	 eax, DWORD PTR [ecx+8]
  00009	74 1c		 je	 SHORT $LN2@AlchemicIt

; 313  : 		return;
; 314  : 
; 315  : 	vAlchemicItem::iterator iter, iEnd;
; 316  : 	iEnd = m_vAlchemicList.end();

  0000b	8b 41 08	 mov	 eax, DWORD PTR [ecx+8]

; 317  : 	for(iter = m_vAlchemicList.begin();iter != iEnd;iter++)

  0000e	8b 49 04	 mov	 ecx, DWORD PTR [ecx+4]
  00011	eb 0a		 jmp	 SHORT $LN57@AlchemicIt
$LL38@AlchemicIt:

; 318  : 	{
; 319  : 		if( (*iter).m_iCode == iCode )

  00013	8b 11		 mov	 edx, DWORD PTR [ecx]
  00015	3b 55 08	 cmp	 edx, DWORD PTR _iCode$[ebp]
  00018	74 09		 je	 SHORT $LN55@AlchemicIt

; 317  : 	for(iter = m_vAlchemicList.begin();iter != iEnd;iter++)

  0001a	83 c1 14	 add	 ecx, 20			; 00000014H
$LN57@AlchemicIt:
  0001d	3b c8		 cmp	 ecx, eax
  0001f	75 f2		 jne	 SHORT $LL38@AlchemicIt

; 318  : 	{
; 319  : 		if( (*iter).m_iCode == iCode )

  00021	eb 04		 jmp	 SHORT $LN2@AlchemicIt
$LN55@AlchemicIt:

; 320  : 		{
; 321  : 			(*iter).m_bNewAdd = true;

  00023	c6 41 10 01	 mov	 BYTE PTR [ecx+16], 1
$LN2@AlchemicIt:

; 322  : 			break;
; 323  : 		}
; 324  : 	}
; 325  : }

  00027	5d		 pop	 ebp
  00028	c2 04 00	 ret	 4
?AlchemicItemAddNew@ioAlchemicInventory@@IAEXH@Z ENDP	; ioAlchemicInventory::AlchemicItemAddNew
_TEXT	ENDS
PUBLIC	??$_Cons_val@V?$allocator@UtagAlchemicItemInfo@@@std@@UtagAlchemicItemInfo@@ABU3@@std@@YAXAAV?$allocator@UtagAlchemicItemInfo@@@0@PAUtagAlchemicItemInfo@@ABU2@@Z ; std::_Cons_val<std::allocator<tagAlchemicItemInfo>,tagAlchemicItemInfo,tagAlchemicItemInfo const &>
; Function compile flags: /Ogsp
; File c:\program files (x86)\microsoft visual studio 10.0\vc\include\xmemory
;	COMDAT ??$_Cons_val@V?$allocator@UtagAlchemicItemInfo@@@std@@UtagAlchemicItemInfo@@ABU3@@std@@YAXAAV?$allocator@UtagAlchemicItemInfo@@@0@PAUtagAlchemicItemInfo@@ABU2@@Z
_TEXT	SEGMENT
__Alval$ = 8						; size = 4
__Pdest$ = 12						; size = 4
__Src$ = 16						; size = 4
??$_Cons_val@V?$allocator@UtagAlchemicItemInfo@@@std@@UtagAlchemicItemInfo@@ABU3@@std@@YAXAAV?$allocator@UtagAlchemicItemInfo@@@0@PAUtagAlchemicItemInfo@@ABU2@@Z PROC ; std::_Cons_val<std::allocator<tagAlchemicItemInfo>,tagAlchemicItemInfo,tagAlchemicItemInfo const &>, COMDAT

; 279  : 	{	// construct using allocator

  00000	55		 push	 ebp
  00001	8b ec		 mov	 ebp, esp

; 280  : 	_Alval.construct(_Pdest, _STD forward<_Ty2>(_Src));

  00003	ff 75 10	 push	 DWORD PTR __Src$[ebp]
  00006	ff 75 0c	 push	 DWORD PTR __Pdest$[ebp]
  00009	e8 00 00 00 00	 call	 ??$_Construct@UtagAlchemicItemInfo@@ABU1@@std@@YAXPAUtagAlchemicItemInfo@@ABU1@@Z ; std::_Construct<tagAlchemicItemInfo,tagAlchemicItemInfo const &>
  0000e	59		 pop	 ecx
  0000f	59		 pop	 ecx

; 281  : 	}

  00010	5d		 pop	 ebp
  00011	c3		 ret	 0
??$_Cons_val@V?$allocator@UtagAlchemicItemInfo@@@std@@UtagAlchemicItemInfo@@ABU3@@std@@YAXAAV?$allocator@UtagAlchemicItemInfo@@@0@PAUtagAlchemicItemInfo@@ABU2@@Z ENDP ; std::_Cons_val<std::allocator<tagAlchemicItemInfo>,tagAlchemicItemInfo,tagAlchemicItemInfo const &>
_TEXT	ENDS
PUBLIC	??$_Destroy_range@V?$allocator@UAlchemicItem@ioAlchemicInventory@@@std@@@std@@YAXPAUAlchemicItem@ioAlchemicInventory@@0AAV?$allocator@UAlchemicItem@ioAlchemicInventory@@@0@U_Nonscalar_ptr_iterator_tag@0@@Z ; std::_Destroy_range<std::allocator<ioAlchemicInventory::AlchemicItem> >
; Function compile flags: /Ogsp
;	COMDAT ??$_Destroy_range@V?$allocator@UAlchemicItem@ioAlchemicInventory@@@std@@@std@@YAXPAUAlchemicItem@ioAlchemicInventory@@0AAV?$allocator@UAlchemicItem@ioAlchemicInventory@@@0@U_Nonscalar_ptr_iterator_tag@0@@Z
_TEXT	SEGMENT
__First$ = 8						; size = 4
__Last$ = 12						; size = 4
__Al$ = 16						; size = 4
___formal$ = 20						; size = 1
??$_Destroy_range@V?$allocator@UAlchemicItem@ioAlchemicInventory@@@std@@@std@@YAXPAUAlchemicItem@ioAlchemicInventory@@0AAV?$allocator@UAlchemicItem@ioAlchemicInventory@@@0@U_Nonscalar_ptr_iterator_tag@0@@Z PROC ; std::_Destroy_range<std::allocator<ioAlchemicInventory::AlchemicItem> >, COMDAT

; 96   : 	for (; _First != _Last; ++_First)
; 97   : 		_Dest_val(_Al, _First);
; 98   : 	}

  00000	c3		 ret	 0
??$_Destroy_range@V?$allocator@UAlchemicItem@ioAlchemicInventory@@@std@@@std@@YAXPAUAlchemicItem@ioAlchemicInventory@@0AAV?$allocator@UAlchemicItem@ioAlchemicInventory@@@0@U_Nonscalar_ptr_iterator_tag@0@@Z ENDP ; std::_Destroy_range<std::allocator<ioAlchemicInventory::AlchemicItem> >
_TEXT	ENDS
PUBLIC	??$_Dest_val@V?$allocator@UtagAlchemicItemInfo@@@std@@UtagAlchemicItemInfo@@@std@@YAXAAV?$allocator@UtagAlchemicItemInfo@@@0@PAUtagAlchemicItemInfo@@@Z ; std::_Dest_val<std::allocator<tagAlchemicItemInfo>,tagAlchemicItemInfo>
; Function compile flags: /Ogsp
;	COMDAT ??$_Dest_val@V?$allocator@UtagAlchemicItemInfo@@@std@@UtagAlchemicItemInfo@@@std@@YAXAAV?$allocator@UtagAlchemicItemInfo@@@0@PAUtagAlchemicItemInfo@@@Z
_TEXT	SEGMENT
__Alval$ = 8						; size = 4
__Pdest$ = 12						; size = 4
??$_Dest_val@V?$allocator@UtagAlchemicItemInfo@@@std@@UtagAlchemicItemInfo@@@std@@YAXAAV?$allocator@UtagAlchemicItemInfo@@@0@PAUtagAlchemicItemInfo@@@Z PROC ; std::_Dest_val<std::allocator<tagAlchemicItemInfo>,tagAlchemicItemInfo>, COMDAT

; 286  : 	{	// destroy using allocator

  00000	55		 push	 ebp
  00001	8b ec		 mov	 ebp, esp

; 287  : 	_Alval.destroy(_Pdest);

  00003	8b 4d 0c	 mov	 ecx, DWORD PTR __Pdest$[ebp]
  00006	83 c1 08	 add	 ecx, 8

; 288  : 	}

  00009	5d		 pop	 ebp

; 287  : 	_Alval.destroy(_Pdest);

  0000a	ff 25 00 00 00
	00		 jmp	 DWORD PTR __imp_??1ioHashString@@QAE@XZ
??$_Dest_val@V?$allocator@UtagAlchemicItemInfo@@@std@@UtagAlchemicItemInfo@@@std@@YAXAAV?$allocator@UtagAlchemicItemInfo@@@0@PAUtagAlchemicItemInfo@@@Z ENDP ; std::_Dest_val<std::allocator<tagAlchemicItemInfo>,tagAlchemicItemInfo>
_TEXT	ENDS
PUBLIC	??$_Uninit_move@PAUAlchemicItem@ioAlchemicInventory@@PAU12@V?$allocator@UAlchemicItem@ioAlchemicInventory@@@std@@U12@@std@@YAPAUAlchemicItem@ioAlchemicInventory@@PAU12@00AAV?$allocator@UAlchemicItem@ioAlchemicInventory@@@0@0U_Nonscalar_ptr_iterator_tag@0@@Z ; std::_Uninit_move<ioAlchemicInventory::AlchemicItem *,ioAlchemicInventory::AlchemicItem *,std::allocator<ioAlchemicInventory::AlchemicItem>,ioAlchemicInventory::AlchemicItem>
; Function compile flags: /Ogsp
; File c:\program files (x86)\microsoft visual studio 10.0\vc\include\memory
;	COMDAT ??$_Uninit_move@PAUAlchemicItem@ioAlchemicInventory@@PAU12@V?$allocator@UAlchemicItem@ioAlchemicInventory@@@std@@U12@@std@@YAPAUAlchemicItem@ioAlchemicInventory@@PAU12@00AAV?$allocator@UAlchemicItem@ioAlchemicInventory@@@0@0U_Nonscalar_ptr_iterator_tag@0@@Z
_TEXT	SEGMENT
__First$ = 8						; size = 4
__Last$ = 12						; size = 4
__Dest$ = 16						; size = 4
__Al$ = 20						; size = 4
___formal$ = 24						; size = 4
___formal$ = 28						; size = 1
??$_Uninit_move@PAUAlchemicItem@ioAlchemicInventory@@PAU12@V?$allocator@UAlchemicItem@ioAlchemicInventory@@@std@@U12@@std@@YAPAUAlchemicItem@ioAlchemicInventory@@PAU12@00AAV?$allocator@UAlchemicItem@ioAlchemicInventory@@@0@0U_Nonscalar_ptr_iterator_tag@0@@Z PROC ; std::_Uninit_move<ioAlchemicInventory::AlchemicItem *,ioAlchemicInventory::AlchemicItem *,std::allocator<ioAlchemicInventory::AlchemicItem>,ioAlchemicInventory::AlchemicItem>, COMDAT

; 424  : 	{	// move [_First, _Last) to raw _Dest, using _Al, arbitrary type

  00000	55		 push	 ebp
  00001	8b ec		 mov	 ebp, esp
  00003	56		 push	 esi

; 425  : 	_DEBUG_RANGE(_First, _Last);
; 426  : 	_DEBUG_POINTER(_Dest);
; 427  : 	_FwdIt _Next = _Dest;
; 428  : 
; 429  : 	_TRY_BEGIN
; 430  : 	for (; _First != _Last; ++_Dest, ++_First)

  00004	8b 75 08	 mov	 esi, DWORD PTR __First$[ebp]
  00007	eb 16		 jmp	 SHORT $LN24@Uninit_mov
$LL6@Uninit_mov:

; 431  : 		_Cons_val(_Al, _Dest, (_Valty &&)*_First);

  00009	56		 push	 esi
  0000a	ff 75 10	 push	 DWORD PTR __Dest$[ebp]
  0000d	ff 75 14	 push	 DWORD PTR __Al$[ebp]
  00010	e8 00 00 00 00	 call	 ??$_Cons_val@V?$allocator@UAlchemicItem@ioAlchemicInventory@@@std@@UAlchemicItem@ioAlchemicInventory@@U34@@std@@YAXAAV?$allocator@UAlchemicItem@ioAlchemicInventory@@@0@PAUAlchemicItem@ioAlchemicInventory@@$$QAU23@@Z ; std::_Cons_val<std::allocator<ioAlchemicInventory::AlchemicItem>,ioAlchemicInventory::AlchemicItem,ioAlchemicInventory::AlchemicItem>
  00015	83 45 10 14	 add	 DWORD PTR __Dest$[ebp], 20 ; 00000014H
  00019	83 c4 0c	 add	 esp, 12			; 0000000cH
  0001c	83 c6 14	 add	 esi, 20			; 00000014H
$LN24@Uninit_mov:

; 425  : 	_DEBUG_RANGE(_First, _Last);
; 426  : 	_DEBUG_POINTER(_Dest);
; 427  : 	_FwdIt _Next = _Dest;
; 428  : 
; 429  : 	_TRY_BEGIN
; 430  : 	for (; _First != _Last; ++_Dest, ++_First)

  0001f	3b 75 0c	 cmp	 esi, DWORD PTR __Last$[ebp]
  00022	75 e5		 jne	 SHORT $LL6@Uninit_mov

; 432  : 	_CATCH_ALL
; 433  : 	for (; _Next != _Dest; ++_Next)
; 434  : 		_Dest_val(_Al, _Next);
; 435  : 	_RERAISE;
; 436  : 	_CATCH_END
; 437  : 	return (_Dest);

  00024	8b 45 10	 mov	 eax, DWORD PTR __Dest$[ebp]
  00027	5e		 pop	 esi

; 438  : 	}

  00028	5d		 pop	 ebp
  00029	c3		 ret	 0
??$_Uninit_move@PAUAlchemicItem@ioAlchemicInventory@@PAU12@V?$allocator@UAlchemicItem@ioAlchemicInventory@@@std@@U12@@std@@YAPAUAlchemicItem@ioAlchemicInventory@@PAU12@00AAV?$allocator@UAlchemicItem@ioAlchemicInventory@@@0@0U_Nonscalar_ptr_iterator_tag@0@@Z ENDP ; std::_Uninit_move<ioAlchemicInventory::AlchemicItem *,ioAlchemicInventory::AlchemicItem *,std::allocator<ioAlchemicInventory::AlchemicItem>,ioAlchemicInventory::AlchemicItem>
_TEXT	ENDS
PUBLIC	??$_Destroy_range@V?$allocator@UAlchemicItem@ioAlchemicInventory@@@std@@@std@@YAXPAUAlchemicItem@ioAlchemicInventory@@0AAV?$allocator@UAlchemicItem@ioAlchemicInventory@@@0@@Z ; std::_Destroy_range<std::allocator<ioAlchemicInventory::AlchemicItem> >
; Function compile flags: /Ogsp
; File c:\program files (x86)\microsoft visual studio 10.0\vc\include\xmemory
;	COMDAT ??$_Destroy_range@V?$allocator@UAlchemicItem@ioAlchemicInventory@@@std@@@std@@YAXPAUAlchemicItem@ioAlchemicInventory@@0AAV?$allocator@UAlchemicItem@ioAlchemicInventory@@@0@@Z
_TEXT	SEGMENT
__First$ = 8						; size = 4
__Last$ = 12						; size = 4
__Al$ = 16						; size = 4
??$_Destroy_range@V?$allocator@UAlchemicItem@ioAlchemicInventory@@@std@@@std@@YAXPAUAlchemicItem@ioAlchemicInventory@@0AAV?$allocator@UAlchemicItem@ioAlchemicInventory@@@0@@Z PROC ; std::_Destroy_range<std::allocator<ioAlchemicInventory::AlchemicItem> >, COMDAT

; 88   : 	_Destroy_range(_First, _Last, _Al, _Ptr_cat(_First, _Last));
; 89   : 	}

  00000	c3		 ret	 0
??$_Destroy_range@V?$allocator@UAlchemicItem@ioAlchemicInventory@@@std@@@std@@YAXPAUAlchemicItem@ioAlchemicInventory@@0AAV?$allocator@UAlchemicItem@ioAlchemicInventory@@@0@@Z ENDP ; std::_Destroy_range<std::allocator<ioAlchemicInventory::AlchemicItem> >
_TEXT	ENDS
PUBLIC	??$_Destroy_range@V?$allocator@UtagAlchemicItemInfo@@@std@@@std@@YAXPAUtagAlchemicItemInfo@@0AAV?$allocator@UtagAlchemicItemInfo@@@0@U_Nonscalar_ptr_iterator_tag@0@@Z ; std::_Destroy_range<std::allocator<tagAlchemicItemInfo> >
; Function compile flags: /Ogsp
;	COMDAT ??$_Destroy_range@V?$allocator@UtagAlchemicItemInfo@@@std@@@std@@YAXPAUtagAlchemicItemInfo@@0AAV?$allocator@UtagAlchemicItemInfo@@@0@U_Nonscalar_ptr_iterator_tag@0@@Z
_TEXT	SEGMENT
__First$ = 8						; size = 4
__Last$ = 12						; size = 4
__Al$ = 16						; size = 4
___formal$ = 20						; size = 1
??$_Destroy_range@V?$allocator@UtagAlchemicItemInfo@@@std@@@std@@YAXPAUtagAlchemicItemInfo@@0AAV?$allocator@UtagAlchemicItemInfo@@@0@U_Nonscalar_ptr_iterator_tag@0@@Z PROC ; std::_Destroy_range<std::allocator<tagAlchemicItemInfo> >, COMDAT

; 95   : 	{	// destroy [_First, _Last), arbitrary type

  00000	55		 push	 ebp
  00001	8b ec		 mov	 ebp, esp
  00003	56		 push	 esi

; 96   : 	for (; _First != _Last; ++_First)

  00004	8b 75 08	 mov	 esi, DWORD PTR __First$[ebp]
  00007	eb 0c		 jmp	 SHORT $LN20@Destroy_ra
$LL3@Destroy_ra:

; 97   : 		_Dest_val(_Al, _First);

  00009	8d 4e 08	 lea	 ecx, DWORD PTR [esi+8]
  0000c	ff 15 00 00 00
	00		 call	 DWORD PTR __imp_??1ioHashString@@QAE@XZ
  00012	83 c6 1c	 add	 esi, 28			; 0000001cH
$LN20@Destroy_ra:

; 96   : 	for (; _First != _Last; ++_First)

  00015	3b 75 0c	 cmp	 esi, DWORD PTR __Last$[ebp]
  00018	75 ef		 jne	 SHORT $LL3@Destroy_ra
  0001a	5e		 pop	 esi

; 98   : 	}

  0001b	5d		 pop	 ebp
  0001c	c3		 ret	 0
??$_Destroy_range@V?$allocator@UtagAlchemicItemInfo@@@std@@@std@@YAXPAUtagAlchemicItemInfo@@0AAV?$allocator@UtagAlchemicItemInfo@@@0@U_Nonscalar_ptr_iterator_tag@0@@Z ENDP ; std::_Destroy_range<std::allocator<tagAlchemicItemInfo> >
_TEXT	ENDS
PUBLIC	??$_Uninitialized_move@PAUAlchemicItem@ioAlchemicInventory@@PAU12@V?$allocator@UAlchemicItem@ioAlchemicInventory@@@std@@@std@@YAPAUAlchemicItem@ioAlchemicInventory@@PAU12@00AAV?$allocator@UAlchemicItem@ioAlchemicInventory@@@0@@Z ; std::_Uninitialized_move<ioAlchemicInventory::AlchemicItem *,ioAlchemicInventory::AlchemicItem *,std::allocator<ioAlchemicInventory::AlchemicItem> >
; Function compile flags: /Ogsp
; File c:\program files (x86)\microsoft visual studio 10.0\vc\include\memory
;	COMDAT ??$_Uninitialized_move@PAUAlchemicItem@ioAlchemicInventory@@PAU12@V?$allocator@UAlchemicItem@ioAlchemicInventory@@@std@@@std@@YAPAUAlchemicItem@ioAlchemicInventory@@PAU12@00AAV?$allocator@UAlchemicItem@ioAlchemicInventory@@@0@@Z
_TEXT	SEGMENT
__Cat$530612 = -4					; size = 1
__First$ = 8						; size = 4
__Last$ = 12						; size = 4
__Dest$ = 16						; size = 4
__Al$ = 20						; size = 4
??$_Uninitialized_move@PAUAlchemicItem@ioAlchemicInventory@@PAU12@V?$allocator@UAlchemicItem@ioAlchemicInventory@@@std@@@std@@YAPAUAlchemicItem@ioAlchemicInventory@@PAU12@00AAV?$allocator@UAlchemicItem@ioAlchemicInventory@@@0@@Z PROC ; std::_Uninitialized_move<ioAlchemicInventory::AlchemicItem *,ioAlchemicInventory::AlchemicItem *,std::allocator<ioAlchemicInventory::AlchemicItem> >, COMDAT

; 469  : 	{	// move [_First, _Last) to raw _Dest, using _Al

  00000	55		 push	 ebp
  00001	8b ec		 mov	 ebp, esp
  00003	51		 push	 ecx

; 470  : 	return (_Uninit_move(_First, _Last, _Dest, _Al,
; 471  : 		_Val_type(_First), _Ptr_cat(_First, _Dest)));

  00004	ff 75 fc	 push	 DWORD PTR __Cat$530612[ebp]
  00007	6a 00		 push	 0
  00009	ff 75 14	 push	 DWORD PTR __Al$[ebp]
  0000c	ff 75 10	 push	 DWORD PTR __Dest$[ebp]
  0000f	ff 75 0c	 push	 DWORD PTR __Last$[ebp]
  00012	ff 75 08	 push	 DWORD PTR __First$[ebp]
  00015	e8 00 00 00 00	 call	 ??$_Uninit_move@PAUAlchemicItem@ioAlchemicInventory@@PAU12@V?$allocator@UAlchemicItem@ioAlchemicInventory@@@std@@U12@@std@@YAPAUAlchemicItem@ioAlchemicInventory@@PAU12@00AAV?$allocator@UAlchemicItem@ioAlchemicInventory@@@0@0U_Nonscalar_ptr_iterator_tag@0@@Z ; std::_Uninit_move<ioAlchemicInventory::AlchemicItem *,ioAlchemicInventory::AlchemicItem *,std::allocator<ioAlchemicInventory::AlchemicItem>,ioAlchemicInventory::AlchemicItem>
  0001a	83 c4 18	 add	 esp, 24			; 00000018H

; 472  : 	}

  0001d	c9		 leave
  0001e	c3		 ret	 0
??$_Uninitialized_move@PAUAlchemicItem@ioAlchemicInventory@@PAU12@V?$allocator@UAlchemicItem@ioAlchemicInventory@@@std@@@std@@YAPAUAlchemicItem@ioAlchemicInventory@@PAU12@00AAV?$allocator@UAlchemicItem@ioAlchemicInventory@@@0@@Z ENDP ; std::_Uninitialized_move<ioAlchemicInventory::AlchemicItem *,ioAlchemicInventory::AlchemicItem *,std::allocator<ioAlchemicInventory::AlchemicItem> >
_TEXT	ENDS
PUBLIC	??$_Uninit_move@PAUtagAlchemicItemInfo@@PAU1@V?$allocator@UtagAlchemicItemInfo@@@std@@U1@@std@@YAPAUtagAlchemicItemInfo@@PAU1@00AAV?$allocator@UtagAlchemicItemInfo@@@0@0U_Nonscalar_ptr_iterator_tag@0@@Z ; std::_Uninit_move<tagAlchemicItemInfo *,tagAlchemicItemInfo *,std::allocator<tagAlchemicItemInfo>,tagAlchemicItemInfo>
EXTRN	__EH_prolog3_catch:PROC
;	COMDAT xdata$x
; File d:\lost saga for developer\youtube\tutorial\source\src\lsclient\ioalchemicinventory.cpp
xdata$x	SEGMENT
__catchsym$??$_Uninit_move@PAUtagAlchemicItemInfo@@PAU1@V?$allocator@UtagAlchemicItemInfo@@@std@@U1@@std@@YAPAUtagAlchemicItemInfo@@PAU1@00AAV?$allocator@UtagAlchemicItemInfo@@@0@0U_Nonscalar_ptr_iterator_tag@0@@Z$3 DD 040H
	DD	00H
	DD	00H
	DD	FLAT:__catch$??$_Uninit_move@PAUtagAlchemicItemInfo@@PAU1@V?$allocator@UtagAlchemicItemInfo@@@std@@U1@@std@@YAPAUtagAlchemicItemInfo@@PAU1@00AAV?$allocator@UtagAlchemicItemInfo@@@0@0U_Nonscalar_ptr_iterator_tag@0@@Z$0
__unwindtable$??$_Uninit_move@PAUtagAlchemicItemInfo@@PAU1@V?$allocator@UtagAlchemicItemInfo@@@std@@U1@@std@@YAPAUtagAlchemicItemInfo@@PAU1@00AAV?$allocator@UtagAlchemicItemInfo@@@0@0U_Nonscalar_ptr_iterator_tag@0@@Z DD 0ffffffffH
	DD	00H
	DD	0ffffffffH
	DD	00H
__tryblocktable$??$_Uninit_move@PAUtagAlchemicItemInfo@@PAU1@V?$allocator@UtagAlchemicItemInfo@@@std@@U1@@std@@YAPAUtagAlchemicItemInfo@@PAU1@00AAV?$allocator@UtagAlchemicItemInfo@@@0@0U_Nonscalar_ptr_iterator_tag@0@@Z DD 00H
	DD	00H
	DD	01H
	DD	01H
	DD	FLAT:__catchsym$??$_Uninit_move@PAUtagAlchemicItemInfo@@PAU1@V?$allocator@UtagAlchemicItemInfo@@@std@@U1@@std@@YAPAUtagAlchemicItemInfo@@PAU1@00AAV?$allocator@UtagAlchemicItemInfo@@@0@0U_Nonscalar_ptr_iterator_tag@0@@Z$3
__ehfuncinfo$??$_Uninit_move@PAUtagAlchemicItemInfo@@PAU1@V?$allocator@UtagAlchemicItemInfo@@@std@@U1@@std@@YAPAUtagAlchemicItemInfo@@PAU1@00AAV?$allocator@UtagAlchemicItemInfo@@@0@0U_Nonscalar_ptr_iterator_tag@0@@Z DD 019930522H
	DD	02H
	DD	FLAT:__unwindtable$??$_Uninit_move@PAUtagAlchemicItemInfo@@PAU1@V?$allocator@UtagAlchemicItemInfo@@@std@@U1@@std@@YAPAUtagAlchemicItemInfo@@PAU1@00AAV?$allocator@UtagAlchemicItemInfo@@@0@0U_Nonscalar_ptr_iterator_tag@0@@Z
	DD	01H
	DD	FLAT:__tryblocktable$??$_Uninit_move@PAUtagAlchemicItemInfo@@PAU1@V?$allocator@UtagAlchemicItemInfo@@@std@@U1@@std@@YAPAUtagAlchemicItemInfo@@PAU1@00AAV?$allocator@UtagAlchemicItemInfo@@@0@0U_Nonscalar_ptr_iterator_tag@0@@Z
	DD	2 DUP(00H)
	DD	00H
	DD	01H
; Function compile flags: /Ogsp
; File c:\program files (x86)\microsoft visual studio 10.0\vc\include\memory
xdata$x	ENDS
;	COMDAT ??$_Uninit_move@PAUtagAlchemicItemInfo@@PAU1@V?$allocator@UtagAlchemicItemInfo@@@std@@U1@@std@@YAPAUtagAlchemicItemInfo@@PAU1@00AAV?$allocator@UtagAlchemicItemInfo@@@0@0U_Nonscalar_ptr_iterator_tag@0@@Z
_TEXT	SEGMENT
__Next$ = -20						; size = 4
__$EHRec$ = -16						; size = 16
__First$ = 8						; size = 4
__Last$ = 12						; size = 4
__Dest$ = 16						; size = 4
__Al$ = 20						; size = 4
___formal$ = 24						; size = 4
___formal$ = 28						; size = 1
??$_Uninit_move@PAUtagAlchemicItemInfo@@PAU1@V?$allocator@UtagAlchemicItemInfo@@@std@@U1@@std@@YAPAUtagAlchemicItemInfo@@PAU1@00AAV?$allocator@UtagAlchemicItemInfo@@@0@0U_Nonscalar_ptr_iterator_tag@0@@Z PROC ; std::_Uninit_move<tagAlchemicItemInfo *,tagAlchemicItemInfo *,std::allocator<tagAlchemicItemInfo>,tagAlchemicItemInfo>, COMDAT

; 424  : 	{	// move [_First, _Last) to raw _Dest, using _Al, arbitrary type

  00000	6a 08		 push	 8
  00002	b8 00 00 00 00	 mov	 eax, __ehhandler$??$_Uninit_move@PAUtagAlchemicItemInfo@@PAU1@V?$allocator@UtagAlchemicItemInfo@@@std@@U1@@std@@YAPAUtagAlchemicItemInfo@@PAU1@00AAV?$allocator@UtagAlchemicItemInfo@@@0@0U_Nonscalar_ptr_iterator_tag@0@@Z
  00007	e8 00 00 00 00	 call	 __EH_prolog3_catch

; 425  : 	_DEBUG_RANGE(_First, _Last);
; 426  : 	_DEBUG_POINTER(_Dest);
; 427  : 	_FwdIt _Next = _Dest;

  0000c	8b 45 10	 mov	 eax, DWORD PTR __Dest$[ebp]

; 428  : 
; 429  : 	_TRY_BEGIN

  0000f	83 65 fc 00	 and	 DWORD PTR __$EHRec$[ebp+12], 0
  00013	8b 75 08	 mov	 esi, DWORD PTR __First$[ebp]
  00016	89 45 ec	 mov	 DWORD PTR __Next$[ebp], eax
$LL6@Uninit_mov@2:

; 430  : 	for (; _First != _Last; ++_Dest, ++_First)

  00019	3b 75 0c	 cmp	 esi, DWORD PTR __Last$[ebp]
  0001c	74 37		 je	 SHORT $LN4@Uninit_mov@2

; 431  : 		_Cons_val(_Al, _Dest, (_Valty &&)*_First);

  0001e	56		 push	 esi
  0001f	ff 75 10	 push	 DWORD PTR __Dest$[ebp]
  00022	ff 75 14	 push	 DWORD PTR __Al$[ebp]
  00025	e8 00 00 00 00	 call	 ??$_Cons_val@V?$allocator@UtagAlchemicItemInfo@@@std@@UtagAlchemicItemInfo@@U3@@std@@YAXAAV?$allocator@UtagAlchemicItemInfo@@@0@PAUtagAlchemicItemInfo@@$$QAU2@@Z ; std::_Cons_val<std::allocator<tagAlchemicItemInfo>,tagAlchemicItemInfo,tagAlchemicItemInfo>
  0002a	83 45 10 1c	 add	 DWORD PTR __Dest$[ebp], 28 ; 0000001cH
  0002e	83 c4 0c	 add	 esp, 12			; 0000000cH
  00031	83 c6 1c	 add	 esi, 28			; 0000001cH
  00034	eb e3		 jmp	 SHORT $LL6@Uninit_mov@2
__catch$??$_Uninit_move@PAUtagAlchemicItemInfo@@PAU1@V?$allocator@UtagAlchemicItemInfo@@@std@@U1@@std@@YAPAUtagAlchemicItemInfo@@PAU1@00AAV?$allocator@UtagAlchemicItemInfo@@@0@0U_Nonscalar_ptr_iterator_tag@0@@Z$0:

; 432  : 	_CATCH_ALL
; 433  : 	for (; _Next != _Dest; ++_Next)

  00036	8b 75 ec	 mov	 esi, DWORD PTR __Next$[ebp]
  00039	eb 0c		 jmp	 SHORT $LN32@Uninit_mov@2
$LL3@Uninit_mov@2:

; 434  : 		_Dest_val(_Al, _Next);

  0003b	8d 4e 08	 lea	 ecx, DWORD PTR [esi+8]
  0003e	ff 15 00 00 00
	00		 call	 DWORD PTR __imp_??1ioHashString@@QAE@XZ
  00044	83 c6 1c	 add	 esi, 28			; 0000001cH
$LN32@Uninit_mov@2:

; 432  : 	_CATCH_ALL
; 433  : 	for (; _Next != _Dest; ++_Next)

  00047	3b 75 10	 cmp	 esi, DWORD PTR __Dest$[ebp]
  0004a	75 ef		 jne	 SHORT $LL3@Uninit_mov@2

; 435  : 	_RERAISE;

  0004c	6a 00		 push	 0
  0004e	6a 00		 push	 0
  00050	e8 00 00 00 00	 call	 __CxxThrowException@8
$LN33@Uninit_mov@2:
$LN4@Uninit_mov@2:

; 436  : 	_CATCH_END
; 437  : 	return (_Dest);

  00055	8b 45 10	 mov	 eax, DWORD PTR __Dest$[ebp]

; 438  : 	}

  00058	e8 00 00 00 00	 call	 __EH_epilog3
  0005d	c3		 ret	 0
$LN31@Uninit_mov@2:
_TEXT	ENDS
;	COMDAT text$x
text$x	SEGMENT
__ehhandler$??$_Uninit_move@PAUtagAlchemicItemInfo@@PAU1@V?$allocator@UtagAlchemicItemInfo@@@std@@U1@@std@@YAPAUtagAlchemicItemInfo@@PAU1@00AAV?$allocator@UtagAlchemicItemInfo@@@0@0U_Nonscalar_ptr_iterator_tag@0@@Z:
  00000	8b 54 24 08	 mov	 edx, DWORD PTR [esp+8]
  00004	8d 42 0c	 lea	 eax, DWORD PTR [edx+12]
  00007	8b 4a e8	 mov	 ecx, DWORD PTR [edx-24]
  0000a	33 c8		 xor	 ecx, eax
  0000c	e8 00 00 00 00	 call	 @__security_check_cookie@4
  00011	b8 00 00 00 00	 mov	 eax, OFFSET __ehfuncinfo$??$_Uninit_move@PAUtagAlchemicItemInfo@@PAU1@V?$allocator@UtagAlchemicItemInfo@@@std@@U1@@std@@YAPAUtagAlchemicItemInfo@@PAU1@00AAV?$allocator@UtagAlchemicItemInfo@@@0@0U_Nonscalar_ptr_iterator_tag@0@@Z
  00016	e9 00 00 00 00	 jmp	 ___CxxFrameHandler3
text$x	ENDS
??$_Uninit_move@PAUtagAlchemicItemInfo@@PAU1@V?$allocator@UtagAlchemicItemInfo@@@std@@U1@@std@@YAPAUtagAlchemicItemInfo@@PAU1@00AAV?$allocator@UtagAlchemicItemInfo@@@0@0U_Nonscalar_ptr_iterator_tag@0@@Z ENDP ; std::_Uninit_move<tagAlchemicItemInfo *,tagAlchemicItemInfo *,std::allocator<tagAlchemicItemInfo>,tagAlchemicItemInfo>
PUBLIC	?_Destroy@?$vector@UAlchemicItem@ioAlchemicInventory@@V?$allocator@UAlchemicItem@ioAlchemicInventory@@@std@@@std@@IAEXPAUAlchemicItem@ioAlchemicInventory@@0@Z ; std::vector<ioAlchemicInventory::AlchemicItem,std::allocator<ioAlchemicInventory::AlchemicItem> >::_Destroy
; Function compile flags: /Ogsp
; File c:\program files (x86)\microsoft visual studio 10.0\vc\include\vector
;	COMDAT ?_Destroy@?$vector@UAlchemicItem@ioAlchemicInventory@@V?$allocator@UAlchemicItem@ioAlchemicInventory@@@std@@@std@@IAEXPAUAlchemicItem@ioAlchemicInventory@@0@Z
_TEXT	SEGMENT
__First$ = 8						; size = 4
__Last$ = 12						; size = 4
?_Destroy@?$vector@UAlchemicItem@ioAlchemicInventory@@V?$allocator@UAlchemicItem@ioAlchemicInventory@@@std@@@std@@IAEXPAUAlchemicItem@ioAlchemicInventory@@0@Z PROC ; std::vector<ioAlchemicInventory::AlchemicItem,std::allocator<ioAlchemicInventory::AlchemicItem> >::_Destroy, COMDAT
; _this$ = ecx

; 1270 : 		_Destroy_range(_First, _Last, this->_Alval);
; 1271 : 		}

  00000	c2 08 00	 ret	 8
?_Destroy@?$vector@UAlchemicItem@ioAlchemicInventory@@V?$allocator@UAlchemicItem@ioAlchemicInventory@@@std@@@std@@IAEXPAUAlchemicItem@ioAlchemicInventory@@0@Z ENDP ; std::vector<ioAlchemicInventory::AlchemicItem,std::allocator<ioAlchemicInventory::AlchemicItem> >::_Destroy
_TEXT	ENDS
PUBLIC	??$_Destroy_range@V?$allocator@UtagAlchemicItemInfo@@@std@@@std@@YAXPAUtagAlchemicItemInfo@@0AAV?$allocator@UtagAlchemicItemInfo@@@0@@Z ; std::_Destroy_range<std::allocator<tagAlchemicItemInfo> >
; Function compile flags: /Ogsp
; File c:\program files (x86)\microsoft visual studio 10.0\vc\include\xmemory
;	COMDAT ??$_Destroy_range@V?$allocator@UtagAlchemicItemInfo@@@std@@@std@@YAXPAUtagAlchemicItemInfo@@0AAV?$allocator@UtagAlchemicItemInfo@@@0@@Z
_TEXT	SEGMENT
__First$ = 8						; size = 4
__Last$ = 12						; size = 4
__Al$ = 16						; size = 4
??$_Destroy_range@V?$allocator@UtagAlchemicItemInfo@@@std@@@std@@YAXPAUtagAlchemicItemInfo@@0AAV?$allocator@UtagAlchemicItemInfo@@@0@@Z PROC ; std::_Destroy_range<std::allocator<tagAlchemicItemInfo> >, COMDAT

; 87   : 	{	// destroy [_First, _Last)

  00000	55		 push	 ebp
  00001	8b ec		 mov	 ebp, esp
  00003	56		 push	 esi

; 88   : 	_Destroy_range(_First, _Last, _Al, _Ptr_cat(_First, _Last));

  00004	8b 75 08	 mov	 esi, DWORD PTR __First$[ebp]
  00007	eb 0c		 jmp	 SHORT $LN24@Destroy_ra@2
$LL7@Destroy_ra@2:
  00009	8d 4e 08	 lea	 ecx, DWORD PTR [esi+8]
  0000c	ff 15 00 00 00
	00		 call	 DWORD PTR __imp_??1ioHashString@@QAE@XZ
  00012	83 c6 1c	 add	 esi, 28			; 0000001cH
$LN24@Destroy_ra@2:
  00015	3b 75 0c	 cmp	 esi, DWORD PTR __Last$[ebp]
  00018	75 ef		 jne	 SHORT $LL7@Destroy_ra@2
  0001a	5e		 pop	 esi

; 89   : 	}

  0001b	5d		 pop	 ebp
  0001c	c3		 ret	 0
??$_Destroy_range@V?$allocator@UtagAlchemicItemInfo@@@std@@@std@@YAXPAUtagAlchemicItemInfo@@0AAV?$allocator@UtagAlchemicItemInfo@@@0@@Z ENDP ; std::_Destroy_range<std::allocator<tagAlchemicItemInfo> >
_TEXT	ENDS
PUBLIC	??$_Umove@PAUAlchemicItem@ioAlchemicInventory@@@?$vector@UAlchemicItem@ioAlchemicInventory@@V?$allocator@UAlchemicItem@ioAlchemicInventory@@@std@@@std@@IAEPAUAlchemicItem@ioAlchemicInventory@@PAU23@00@Z ; std::vector<ioAlchemicInventory::AlchemicItem,std::allocator<ioAlchemicInventory::AlchemicItem> >::_Umove<ioAlchemicInventory::AlchemicItem *>
; Function compile flags: /Ogsp
; File c:\program files (x86)\microsoft visual studio 10.0\vc\include\vector
;	COMDAT ??$_Umove@PAUAlchemicItem@ioAlchemicInventory@@@?$vector@UAlchemicItem@ioAlchemicInventory@@V?$allocator@UAlchemicItem@ioAlchemicInventory@@@std@@@std@@IAEPAUAlchemicItem@ioAlchemicInventory@@PAU23@00@Z
_TEXT	SEGMENT
__First$ = 8						; size = 4
__Last$ = 12						; size = 4
__Ptr$ = 16						; size = 4
??$_Umove@PAUAlchemicItem@ioAlchemicInventory@@@?$vector@UAlchemicItem@ioAlchemicInventory@@V?$allocator@UAlchemicItem@ioAlchemicInventory@@@std@@@std@@IAEPAUAlchemicItem@ioAlchemicInventory@@PAU23@00@Z PROC ; std::vector<ioAlchemicInventory::AlchemicItem,std::allocator<ioAlchemicInventory::AlchemicItem> >::_Umove<ioAlchemicInventory::AlchemicItem *>, COMDAT
; _this$ = ecx

; 1322 : 		pointer _Umove(_Iter _First, _Iter _Last, pointer _Ptr)

  00000	55		 push	 ebp
  00001	8b ec		 mov	 ebp, esp

; 1323 : 		{	// move initializing [_First, _Last), using allocator
; 1324 : 		return (_Uninitialized_move(_First, _Last,
; 1325 : 			_Ptr, this->_Alval));

  00003	83 c1 0c	 add	 ecx, 12			; 0000000cH
  00006	51		 push	 ecx
  00007	ff 75 10	 push	 DWORD PTR __Ptr$[ebp]
  0000a	ff 75 0c	 push	 DWORD PTR __Last$[ebp]
  0000d	ff 75 08	 push	 DWORD PTR __First$[ebp]
  00010	e8 00 00 00 00	 call	 ??$_Uninitialized_move@PAUAlchemicItem@ioAlchemicInventory@@PAU12@V?$allocator@UAlchemicItem@ioAlchemicInventory@@@std@@@std@@YAPAUAlchemicItem@ioAlchemicInventory@@PAU12@00AAV?$allocator@UAlchemicItem@ioAlchemicInventory@@@0@@Z ; std::_Uninitialized_move<ioAlchemicInventory::AlchemicItem *,ioAlchemicInventory::AlchemicItem *,std::allocator<ioAlchemicInventory::AlchemicItem> >
  00015	83 c4 10	 add	 esp, 16			; 00000010H

; 1326 : 		}

  00018	5d		 pop	 ebp
  00019	c2 0c 00	 ret	 12			; 0000000cH
??$_Umove@PAUAlchemicItem@ioAlchemicInventory@@@?$vector@UAlchemicItem@ioAlchemicInventory@@V?$allocator@UAlchemicItem@ioAlchemicInventory@@@std@@@std@@IAEPAUAlchemicItem@ioAlchemicInventory@@PAU23@00@Z ENDP ; std::vector<ioAlchemicInventory::AlchemicItem,std::allocator<ioAlchemicInventory::AlchemicItem> >::_Umove<ioAlchemicInventory::AlchemicItem *>
_TEXT	ENDS
PUBLIC	??$_Uninitialized_move@PAUtagAlchemicItemInfo@@PAU1@V?$allocator@UtagAlchemicItemInfo@@@std@@@std@@YAPAUtagAlchemicItemInfo@@PAU1@00AAV?$allocator@UtagAlchemicItemInfo@@@0@@Z ; std::_Uninitialized_move<tagAlchemicItemInfo *,tagAlchemicItemInfo *,std::allocator<tagAlchemicItemInfo> >
; Function compile flags: /Ogsp
; File c:\program files (x86)\microsoft visual studio 10.0\vc\include\memory
;	COMDAT ??$_Uninitialized_move@PAUtagAlchemicItemInfo@@PAU1@V?$allocator@UtagAlchemicItemInfo@@@std@@@std@@YAPAUtagAlchemicItemInfo@@PAU1@00AAV?$allocator@UtagAlchemicItemInfo@@@0@@Z
_TEXT	SEGMENT
__Cat$530810 = -4					; size = 1
__First$ = 8						; size = 4
__Last$ = 12						; size = 4
__Dest$ = 16						; size = 4
__Al$ = 20						; size = 4
??$_Uninitialized_move@PAUtagAlchemicItemInfo@@PAU1@V?$allocator@UtagAlchemicItemInfo@@@std@@@std@@YAPAUtagAlchemicItemInfo@@PAU1@00AAV?$allocator@UtagAlchemicItemInfo@@@0@@Z PROC ; std::_Uninitialized_move<tagAlchemicItemInfo *,tagAlchemicItemInfo *,std::allocator<tagAlchemicItemInfo> >, COMDAT

; 469  : 	{	// move [_First, _Last) to raw _Dest, using _Al

  00000	55		 push	 ebp
  00001	8b ec		 mov	 ebp, esp
  00003	51		 push	 ecx

; 470  : 	return (_Uninit_move(_First, _Last, _Dest, _Al,
; 471  : 		_Val_type(_First), _Ptr_cat(_First, _Dest)));

  00004	ff 75 fc	 push	 DWORD PTR __Cat$530810[ebp]
  00007	6a 00		 push	 0
  00009	ff 75 14	 push	 DWORD PTR __Al$[ebp]
  0000c	ff 75 10	 push	 DWORD PTR __Dest$[ebp]
  0000f	ff 75 0c	 push	 DWORD PTR __Last$[ebp]
  00012	ff 75 08	 push	 DWORD PTR __First$[ebp]
  00015	e8 00 00 00 00	 call	 ??$_Uninit_move@PAUtagAlchemicItemInfo@@PAU1@V?$allocator@UtagAlchemicItemInfo@@@std@@U1@@std@@YAPAUtagAlchemicItemInfo@@PAU1@00AAV?$allocator@UtagAlchemicItemInfo@@@0@0U_Nonscalar_ptr_iterator_tag@0@@Z ; std::_Uninit_move<tagAlchemicItemInfo *,tagAlchemicItemInfo *,std::allocator<tagAlchemicItemInfo>,tagAlchemicItemInfo>
  0001a	83 c4 18	 add	 esp, 24			; 00000018H

; 472  : 	}

  0001d	c9		 leave
  0001e	c3		 ret	 0
??$_Uninitialized_move@PAUtagAlchemicItemInfo@@PAU1@V?$allocator@UtagAlchemicItemInfo@@@std@@@std@@YAPAUtagAlchemicItemInfo@@PAU1@00AAV?$allocator@UtagAlchemicItemInfo@@@0@@Z ENDP ; std::_Uninitialized_move<tagAlchemicItemInfo *,tagAlchemicItemInfo *,std::allocator<tagAlchemicItemInfo> >
_TEXT	ENDS
PUBLIC	?erase@?$vector@UAlchemicItem@ioAlchemicInventory@@V?$allocator@UAlchemicItem@ioAlchemicInventory@@@std@@@std@@QAE?AV?$_Vector_iterator@V?$_Vector_val@UAlchemicItem@ioAlchemicInventory@@V?$allocator@UAlchemicItem@ioAlchemicInventory@@@std@@@std@@@2@V?$_Vector_const_iterator@V?$_Vector_val@UAlchemicItem@ioAlchemicInventory@@V?$allocator@UAlchemicItem@ioAlchemicInventory@@@std@@@std@@@2@0@Z ; std::vector<ioAlchemicInventory::AlchemicItem,std::allocator<ioAlchemicInventory::AlchemicItem> >::erase
; Function compile flags: /Ogsp
; File c:\program files (x86)\microsoft visual studio 10.0\vc\include\vector
;	COMDAT ?erase@?$vector@UAlchemicItem@ioAlchemicInventory@@V?$allocator@UAlchemicItem@ioAlchemicInventory@@@std@@@std@@QAE?AV?$_Vector_iterator@V?$_Vector_val@UAlchemicItem@ioAlchemicInventory@@V?$allocator@UAlchemicItem@ioAlchemicInventory@@@std@@@std@@@2@V?$_Vector_const_iterator@V?$_Vector_val@UAlchemicItem@ioAlchemicInventory@@V?$allocator@UAlchemicItem@ioAlchemicInventory@@@std@@@std@@@2@0@Z
_TEXT	SEGMENT
___$ReturnUdt$ = 8					; size = 4
__First_arg$ = 12					; size = 4
__Cat$530889 = 16					; size = 1
__Last_arg$ = 16					; size = 4
?erase@?$vector@UAlchemicItem@ioAlchemicInventory@@V?$allocator@UAlchemicItem@ioAlchemicInventory@@@std@@@std@@QAE?AV?$_Vector_iterator@V?$_Vector_val@UAlchemicItem@ioAlchemicInventory@@V?$allocator@UAlchemicItem@ioAlchemicInventory@@@std@@@std@@@2@V?$_Vector_const_iterator@V?$_Vector_val@UAlchemicItem@ioAlchemicInventory@@V?$allocator@UAlchemicItem@ioAlchemicInventory@@@std@@@std@@@2@0@Z PROC ; std::vector<ioAlchemicInventory::AlchemicItem,std::allocator<ioAlchemicInventory::AlchemicItem> >::erase, COMDAT
; _this$ = ecx

; 1190 : 		{	// erase [_First, _Last)

  00000	55		 push	 ebp
  00001	8b ec		 mov	 ebp, esp

; 1191 : 		iterator _First = _Make_iter(_First_arg);

  00003	8b 45 0c	 mov	 eax, DWORD PTR __First_arg$[ebp]
  00006	56		 push	 esi
  00007	57		 push	 edi
  00008	8b 7d 08	 mov	 edi, DWORD PTR ___$ReturnUdt$[ebp]
  0000b	8b f1		 mov	 esi, ecx
  0000d	89 07		 mov	 DWORD PTR [edi], eax

; 1192 : 		iterator _Last = _Make_iter(_Last_arg);
; 1193 : 
; 1194 : 		if (_First != _Last)

  0000f	3b 45 10	 cmp	 eax, DWORD PTR __Last_arg$[ebp]
  00012	74 16		 je	 SHORT $LN1@erase

; 1195 : 			{	// worth doing, copy down over hole
; 1196 :  #if _ITERATOR_DEBUG_LEVEL == 2
; 1197 : 			if (_Last < _First || _VICONT(_First) != this
; 1198 : 				|| _VIPTR(_First) < this->_Myfirst
; 1199 : 				|| this->_Mylast < _VIPTR(_Last))
; 1200 : 				_DEBUG_ERROR("vector erase iterator outside range");
; 1201 : 			pointer _Ptr = _Move(_VIPTR(_Last), this->_Mylast,
; 1202 : 				_VIPTR(_First));
; 1203 : 			_Orphan_range(_VIPTR(_First), this->_Mylast);
; 1204 : 
; 1205 :  #else /* _ITERATOR_DEBUG_LEVEL == 2 */
; 1206 : 			pointer _Ptr = _Move(_VIPTR(_Last), this->_Mylast,
; 1207 : 				_VIPTR(_First));

  00014	ff 75 10	 push	 DWORD PTR __Cat$530889[ebp]
  00017	8b 4e 04	 mov	 ecx, DWORD PTR [esi+4]
  0001a	50		 push	 eax
  0001b	51		 push	 ecx
  0001c	ff 75 10	 push	 DWORD PTR __Last_arg$[ebp]
  0001f	e8 00 00 00 00	 call	 ??$_Move@PAUAlchemicItem@ioAlchemicInventory@@PAU12@@std@@YAPAUAlchemicItem@ioAlchemicInventory@@PAU12@00U_Nonscalar_ptr_iterator_tag@0@@Z ; std::_Move<ioAlchemicInventory::AlchemicItem *,ioAlchemicInventory::AlchemicItem *>
  00024	83 c4 10	 add	 esp, 16			; 00000010H

; 1208 :  #endif /* _ITERATOR_DEBUG_LEVEL == 2 */
; 1209 : 
; 1210 : 			_Destroy(_Ptr, this->_Mylast);
; 1211 : 			this->_Mylast = _Ptr;

  00027	89 46 04	 mov	 DWORD PTR [esi+4], eax
$LN1@erase:

; 1212 : 			}
; 1213 : 		return (_First);

  0002a	8b c7		 mov	 eax, edi
  0002c	5f		 pop	 edi
  0002d	5e		 pop	 esi

; 1214 : 		}

  0002e	5d		 pop	 ebp
  0002f	c2 0c 00	 ret	 12			; 0000000cH
?erase@?$vector@UAlchemicItem@ioAlchemicInventory@@V?$allocator@UAlchemicItem@ioAlchemicInventory@@@std@@@std@@QAE?AV?$_Vector_iterator@V?$_Vector_val@UAlchemicItem@ioAlchemicInventory@@V?$allocator@UAlchemicItem@ioAlchemicInventory@@@std@@@std@@@2@V?$_Vector_const_iterator@V?$_Vector_val@UAlchemicItem@ioAlchemicInventory@@V?$allocator@UAlchemicItem@ioAlchemicInventory@@@std@@@std@@@2@0@Z ENDP ; std::vector<ioAlchemicInventory::AlchemicItem,std::allocator<ioAlchemicInventory::AlchemicItem> >::erase
_TEXT	ENDS
PUBLIC	?_Tidy@?$vector@UAlchemicItem@ioAlchemicInventory@@V?$allocator@UAlchemicItem@ioAlchemicInventory@@@std@@@std@@IAEXXZ ; std::vector<ioAlchemicInventory::AlchemicItem,std::allocator<ioAlchemicInventory::AlchemicItem> >::_Tidy
EXTRN	__imp_?_Orphan_all@_Container_base0@std@@QAEXXZ:PROC
; Function compile flags: /Ogsp
;	COMDAT ?_Tidy@?$vector@UAlchemicItem@ioAlchemicInventory@@V?$allocator@UAlchemicItem@ioAlchemicInventory@@@std@@@std@@IAEXXZ
_TEXT	SEGMENT
?_Tidy@?$vector@UAlchemicItem@ioAlchemicInventory@@V?$allocator@UAlchemicItem@ioAlchemicInventory@@@std@@@std@@IAEXXZ PROC ; std::vector<ioAlchemicInventory::AlchemicItem,std::allocator<ioAlchemicInventory::AlchemicItem> >::_Tidy, COMDAT
; _this$ = ecx

; 1301 : 		{	// free all storage

  00000	56		 push	 esi
  00001	8b f1		 mov	 esi, ecx

; 1302 : 		if (this->_Myfirst != 0)

  00003	83 3e 00	 cmp	 DWORD PTR [esi], 0
  00006	74 0e		 je	 SHORT $LN21@Tidy

; 1303 : 			{	// something to free, destroy and deallocate it
; 1304 : 			this->_Orphan_all();

  00008	ff 15 00 00 00
	00		 call	 DWORD PTR __imp_?_Orphan_all@_Container_base0@std@@QAEXXZ

; 1305 : 			_Destroy(this->_Myfirst, this->_Mylast);
; 1306 : 			this->_Alval.deallocate(this->_Myfirst,
; 1307 : 				this->_Myend - this->_Myfirst);

  0000e	ff 36		 push	 DWORD PTR [esi]
  00010	e8 00 00 00 00	 call	 ??3@YAXPAX@Z		; operator delete
  00015	59		 pop	 ecx
$LN21@Tidy:

; 1308 : 			}
; 1309 : 		this->_Myfirst = 0;

  00016	83 26 00	 and	 DWORD PTR [esi], 0

; 1310 : 		this->_Mylast = 0;

  00019	83 66 04 00	 and	 DWORD PTR [esi+4], 0

; 1311 : 		this->_Myend = 0;

  0001d	83 66 08 00	 and	 DWORD PTR [esi+8], 0
  00021	5e		 pop	 esi

; 1312 : 		}

  00022	c3		 ret	 0
?_Tidy@?$vector@UAlchemicItem@ioAlchemicInventory@@V?$allocator@UAlchemicItem@ioAlchemicInventory@@@std@@@std@@IAEXXZ ENDP ; std::vector<ioAlchemicInventory::AlchemicItem,std::allocator<ioAlchemicInventory::AlchemicItem> >::_Tidy
_TEXT	ENDS
PUBLIC	?_Destroy@?$vector@UtagAlchemicItemInfo@@V?$allocator@UtagAlchemicItemInfo@@@std@@@std@@IAEXPAUtagAlchemicItemInfo@@0@Z ; std::vector<tagAlchemicItemInfo,std::allocator<tagAlchemicItemInfo> >::_Destroy
; Function compile flags: /Ogsp
;	COMDAT ?_Destroy@?$vector@UtagAlchemicItemInfo@@V?$allocator@UtagAlchemicItemInfo@@@std@@@std@@IAEXPAUtagAlchemicItemInfo@@0@Z
_TEXT	SEGMENT
__First$ = 8						; size = 4
__Last$ = 12						; size = 4
?_Destroy@?$vector@UtagAlchemicItemInfo@@V?$allocator@UtagAlchemicItemInfo@@@std@@@std@@IAEXPAUtagAlchemicItemInfo@@0@Z PROC ; std::vector<tagAlchemicItemInfo,std::allocator<tagAlchemicItemInfo> >::_Destroy, COMDAT
; _this$ = ecx

; 1269 : 		{	// destroy [_First, _Last) using allocator

  00000	55		 push	 ebp
  00001	8b ec		 mov	 ebp, esp

; 1270 : 		_Destroy_range(_First, _Last, this->_Alval);

  00003	83 c1 0c	 add	 ecx, 12			; 0000000cH
  00006	51		 push	 ecx
  00007	ff 75 0c	 push	 DWORD PTR __Last$[ebp]
  0000a	ff 75 08	 push	 DWORD PTR __First$[ebp]
  0000d	e8 00 00 00 00	 call	 ??$_Destroy_range@V?$allocator@UtagAlchemicItemInfo@@@std@@@std@@YAXPAUtagAlchemicItemInfo@@0AAV?$allocator@UtagAlchemicItemInfo@@@0@@Z ; std::_Destroy_range<std::allocator<tagAlchemicItemInfo> >
  00012	83 c4 0c	 add	 esp, 12			; 0000000cH

; 1271 : 		}

  00015	5d		 pop	 ebp
  00016	c2 08 00	 ret	 8
?_Destroy@?$vector@UtagAlchemicItemInfo@@V?$allocator@UtagAlchemicItemInfo@@@std@@@std@@IAEXPAUtagAlchemicItemInfo@@0@Z ENDP ; std::vector<tagAlchemicItemInfo,std::allocator<tagAlchemicItemInfo> >::_Destroy
_TEXT	ENDS
PUBLIC	?reserve@?$vector@UAlchemicItem@ioAlchemicInventory@@V?$allocator@UAlchemicItem@ioAlchemicInventory@@@std@@@std@@QAEXI@Z ; std::vector<ioAlchemicInventory::AlchemicItem,std::allocator<ioAlchemicInventory::AlchemicItem> >::reserve
;	COMDAT xdata$x
; File c:\program files (x86)\microsoft visual studio 10.0\vc\include\xmemory
xdata$x	SEGMENT
__catchsym$?reserve@?$vector@UAlchemicItem@ioAlchemicInventory@@V?$allocator@UAlchemicItem@ioAlchemicInventory@@@std@@@std@@QAEXI@Z$2 DD 040H
	DD	00H
	DD	00H
	DD	FLAT:__catch$?reserve@?$vector@UAlchemicItem@ioAlchemicInventory@@V?$allocator@UAlchemicItem@ioAlchemicInventory@@@std@@@std@@QAEXI@Z$0
__unwindtable$?reserve@?$vector@UAlchemicItem@ioAlchemicInventory@@V?$allocator@UAlchemicItem@ioAlchemicInventory@@@std@@@std@@QAEXI@Z DD 0ffffffffH
	DD	00H
	DD	0ffffffffH
	DD	00H
__tryblocktable$?reserve@?$vector@UAlchemicItem@ioAlchemicInventory@@V?$allocator@UAlchemicItem@ioAlchemicInventory@@@std@@@std@@QAEXI@Z DD 00H
	DD	00H
	DD	01H
	DD	01H
	DD	FLAT:__catchsym$?reserve@?$vector@UAlchemicItem@ioAlchemicInventory@@V?$allocator@UAlchemicItem@ioAlchemicInventory@@@std@@@std@@QAEXI@Z$2
__ehfuncinfo$?reserve@?$vector@UAlchemicItem@ioAlchemicInventory@@V?$allocator@UAlchemicItem@ioAlchemicInventory@@@std@@@std@@QAEXI@Z DD 019930522H
	DD	02H
	DD	FLAT:__unwindtable$?reserve@?$vector@UAlchemicItem@ioAlchemicInventory@@V?$allocator@UAlchemicItem@ioAlchemicInventory@@@std@@@std@@QAEXI@Z
	DD	01H
	DD	FLAT:__tryblocktable$?reserve@?$vector@UAlchemicItem@ioAlchemicInventory@@V?$allocator@UAlchemicItem@ioAlchemicInventory@@@std@@@std@@QAEXI@Z
	DD	2 DUP(00H)
	DD	00H
	DD	01H
; Function compile flags: /Ogsp
; File c:\program files (x86)\microsoft visual studio 10.0\vc\include\vector
xdata$x	ENDS
;	COMDAT ?reserve@?$vector@UAlchemicItem@ioAlchemicInventory@@V?$allocator@UAlchemicItem@ioAlchemicInventory@@@std@@@std@@QAEXI@Z
_TEXT	SEGMENT
__$EHRec$ = -16						; size = 16
__Ptr$527419 = 8					; size = 4
__Count$ = 8						; size = 4
?reserve@?$vector@UAlchemicItem@ioAlchemicInventory@@V?$allocator@UAlchemicItem@ioAlchemicInventory@@@std@@@std@@QAEXI@Z PROC ; std::vector<ioAlchemicInventory::AlchemicItem,std::allocator<ioAlchemicInventory::AlchemicItem> >::reserve, COMDAT
; _this$ = ecx

; 746  : 		{	// determine new minimum length of allocated storage

  00000	6a 04		 push	 4
  00002	b8 00 00 00 00	 mov	 eax, __ehhandler$?reserve@?$vector@UAlchemicItem@ioAlchemicInventory@@V?$allocator@UAlchemicItem@ioAlchemicInventory@@@std@@@std@@QAEXI@Z
  00007	e8 00 00 00 00	 call	 __EH_prolog3_catch
  0000c	8b f1		 mov	 esi, ecx

; 747  : 		if (max_size() < _Count)

  0000e	8b 5d 08	 mov	 ebx, DWORD PTR __Count$[ebp]
  00011	81 fb cc cc cc
	0c		 cmp	 ebx, 214748364		; 0cccccccH
  00017	76 0b		 jbe	 SHORT $LN5@reserve

; 748  : 			_Xlen();	// result too long

  00019	68 00 00 00 00	 push	 OFFSET ??_C@_0BD@OLBABOEK@vector?$DMT?$DO?5too?5long?$AA@
  0001e	ff 15 00 00 00
	00		 call	 DWORD PTR __imp_?_Xlength_error@std@@YAXPBD@Z
$LN56@reserve:
$LN5@reserve:

; 749  : 		else if (capacity() < _Count)

  00024	8b 46 08	 mov	 eax, DWORD PTR [esi+8]
  00027	2b 06		 sub	 eax, DWORD PTR [esi]
  00029	6a 14		 push	 20			; 00000014H
  0002b	99		 cdq
  0002c	59		 pop	 ecx
  0002d	f7 f9		 idiv	 ecx
  0002f	3b c3		 cmp	 eax, ebx
  00031	73 6b		 jae	 SHORT $LN3@reserve

; 750  : 			{	// not enough room, reallocate
; 751  : 			pointer _Ptr = this->_Alval.allocate(_Count);

  00033	6a 00		 push	 0
  00035	53		 push	 ebx
  00036	e8 00 00 00 00	 call	 ??$_Allocate@UAlchemicItem@ioAlchemicInventory@@@std@@YAPAUAlchemicItem@ioAlchemicInventory@@IPAU12@@Z ; std::_Allocate<ioAlchemicInventory::AlchemicItem>

; 752  : 
; 753  : 			_TRY_BEGIN
; 754  : 			_Umove(this->_Myfirst, this->_Mylast, _Ptr);

  0003b	8b 0e		 mov	 ecx, DWORD PTR [esi]
  0003d	83 65 fc 00	 and	 DWORD PTR __$EHRec$[ebp+12], 0
  00041	8d 56 0c	 lea	 edx, DWORD PTR [esi+12]
  00044	52		 push	 edx
  00045	89 45 08	 mov	 DWORD PTR __Ptr$527419[ebp], eax
  00048	ff 75 08	 push	 DWORD PTR __Ptr$527419[ebp]
  0004b	8b 46 04	 mov	 eax, DWORD PTR [esi+4]
  0004e	50		 push	 eax
  0004f	51		 push	 ecx
  00050	e8 00 00 00 00	 call	 ??$_Uninitialized_move@PAUAlchemicItem@ioAlchemicInventory@@PAU12@V?$allocator@UAlchemicItem@ioAlchemicInventory@@@std@@@std@@YAPAUAlchemicItem@ioAlchemicInventory@@PAU12@00AAV?$allocator@UAlchemicItem@ioAlchemicInventory@@@0@@Z ; std::_Uninitialized_move<ioAlchemicInventory::AlchemicItem *,ioAlchemicInventory::AlchemicItem *,std::allocator<ioAlchemicInventory::AlchemicItem> >

; 758  : 			_CATCH_END
; 759  : 
; 760  : 			size_type _Size = size();

  00055	8b 0e		 mov	 ecx, DWORD PTR [esi]
  00057	8b 46 04	 mov	 eax, DWORD PTR [esi+4]
  0005a	83 c4 18	 add	 esp, 24			; 00000018H
  0005d	2b c1		 sub	 eax, ecx
  0005f	6a 14		 push	 20			; 00000014H
  00061	99		 cdq
  00062	5f		 pop	 edi
  00063	f7 ff		 idiv	 edi
  00065	83 4d fc ff	 or	 DWORD PTR __$EHRec$[ebp+12], -1
  00069	8b f8		 mov	 edi, eax
  0006b	85 c9		 test	 ecx, ecx
  0006d	74 12		 je	 SHORT $LN48@reserve

; 761  : 			if (this->_Myfirst != 0)

  0006f	eb 03		 jmp	 SHORT $LN55@reserve

; 762  : 				{	// destroy and deallocate old array
; 763  : 				_Destroy(this->_Myfirst, this->_Mylast);

$LL39@reserve:
  00071	83 c1 14	 add	 ecx, 20			; 00000014H
$LN55@reserve:
  00074	3b 4e 04	 cmp	 ecx, DWORD PTR [esi+4]
  00077	75 f8		 jne	 SHORT $LL39@reserve

; 764  : 				this->_Alval.deallocate(this->_Myfirst,
; 765  : 					this->_Myend - this->_Myfirst);

  00079	ff 36		 push	 DWORD PTR [esi]
  0007b	e8 00 00 00 00	 call	 ??3@YAXPAX@Z		; operator delete
  00080	59		 pop	 ecx
$LN48@reserve:

; 766  : 				}
; 767  : 
; 768  : 			this->_Orphan_all();

  00081	8b ce		 mov	 ecx, esi
  00083	ff 15 00 00 00
	00		 call	 DWORD PTR __imp_?_Orphan_all@_Container_base0@std@@QAEXXZ

; 769  : 			this->_Myend = _Ptr + _Count;

  00089	6b db 14	 imul	 ebx, 20			; 00000014H

; 770  : 			this->_Mylast = _Ptr + _Size;

  0008c	6b ff 14	 imul	 edi, 20			; 00000014H
  0008f	8b 45 08	 mov	 eax, DWORD PTR __Ptr$527419[ebp]
  00092	03 d8		 add	 ebx, eax
  00094	03 f8		 add	 edi, eax
  00096	89 5e 08	 mov	 DWORD PTR [esi+8], ebx
  00099	89 7e 04	 mov	 DWORD PTR [esi+4], edi

; 771  : 			this->_Myfirst = _Ptr;

  0009c	89 06		 mov	 DWORD PTR [esi], eax
$LN3@reserve:

; 772  : 			}
; 773  : 		}

  0009e	e8 00 00 00 00	 call	 __EH_epilog3
  000a3	c2 04 00	 ret	 4
__catch$?reserve@?$vector@UAlchemicItem@ioAlchemicInventory@@V?$allocator@UAlchemicItem@ioAlchemicInventory@@@std@@@std@@QAEXI@Z$0:

; 755  : 			_CATCH_ALL
; 756  : 			this->_Alval.deallocate(_Ptr, _Count);

  000a6	ff 75 08	 push	 DWORD PTR __Ptr$527419[ebp]
  000a9	e8 00 00 00 00	 call	 ??3@YAXPAX@Z		; operator delete
  000ae	59		 pop	 ecx

; 757  : 			_RERAISE;

  000af	6a 00		 push	 0
  000b1	6a 00		 push	 0
  000b3	e8 00 00 00 00	 call	 __CxxThrowException@8
$LN57@reserve:
$LN54@reserve:
  000b8	cc		 int	 3
_TEXT	ENDS
;	COMDAT text$x
text$x	SEGMENT
__ehhandler$?reserve@?$vector@UAlchemicItem@ioAlchemicInventory@@V?$allocator@UAlchemicItem@ioAlchemicInventory@@@std@@@std@@QAEXI@Z:
  00000	8b 54 24 08	 mov	 edx, DWORD PTR [esp+8]
  00004	8d 42 0c	 lea	 eax, DWORD PTR [edx+12]
  00007	8b 4a ec	 mov	 ecx, DWORD PTR [edx-20]
  0000a	33 c8		 xor	 ecx, eax
  0000c	e8 00 00 00 00	 call	 @__security_check_cookie@4
  00011	b8 00 00 00 00	 mov	 eax, OFFSET __ehfuncinfo$?reserve@?$vector@UAlchemicItem@ioAlchemicInventory@@V?$allocator@UAlchemicItem@ioAlchemicInventory@@@std@@@std@@QAEXI@Z
  00016	e9 00 00 00 00	 jmp	 ___CxxFrameHandler3
text$x	ENDS
?reserve@?$vector@UAlchemicItem@ioAlchemicInventory@@V?$allocator@UAlchemicItem@ioAlchemicInventory@@@std@@@std@@QAEXI@Z ENDP ; std::vector<ioAlchemicInventory::AlchemicItem,std::allocator<ioAlchemicInventory::AlchemicItem> >::reserve
PUBLIC	??$_Umove@PAUtagAlchemicItemInfo@@@?$vector@UtagAlchemicItemInfo@@V?$allocator@UtagAlchemicItemInfo@@@std@@@std@@IAEPAUtagAlchemicItemInfo@@PAU2@00@Z ; std::vector<tagAlchemicItemInfo,std::allocator<tagAlchemicItemInfo> >::_Umove<tagAlchemicItemInfo *>
; Function compile flags: /Ogsp
;	COMDAT ??$_Umove@PAUtagAlchemicItemInfo@@@?$vector@UtagAlchemicItemInfo@@V?$allocator@UtagAlchemicItemInfo@@@std@@@std@@IAEPAUtagAlchemicItemInfo@@PAU2@00@Z
_TEXT	SEGMENT
__First$ = 8						; size = 4
__Last$ = 12						; size = 4
__Ptr$ = 16						; size = 4
??$_Umove@PAUtagAlchemicItemInfo@@@?$vector@UtagAlchemicItemInfo@@V?$allocator@UtagAlchemicItemInfo@@@std@@@std@@IAEPAUtagAlchemicItemInfo@@PAU2@00@Z PROC ; std::vector<tagAlchemicItemInfo,std::allocator<tagAlchemicItemInfo> >::_Umove<tagAlchemicItemInfo *>, COMDAT
; _this$ = ecx

; 1322 : 		pointer _Umove(_Iter _First, _Iter _Last, pointer _Ptr)

  00000	55		 push	 ebp
  00001	8b ec		 mov	 ebp, esp

; 1323 : 		{	// move initializing [_First, _Last), using allocator
; 1324 : 		return (_Uninitialized_move(_First, _Last,
; 1325 : 			_Ptr, this->_Alval));

  00003	83 c1 0c	 add	 ecx, 12			; 0000000cH
  00006	51		 push	 ecx
  00007	ff 75 10	 push	 DWORD PTR __Ptr$[ebp]
  0000a	ff 75 0c	 push	 DWORD PTR __Last$[ebp]
  0000d	ff 75 08	 push	 DWORD PTR __First$[ebp]
  00010	e8 00 00 00 00	 call	 ??$_Uninitialized_move@PAUtagAlchemicItemInfo@@PAU1@V?$allocator@UtagAlchemicItemInfo@@@std@@@std@@YAPAUtagAlchemicItemInfo@@PAU1@00AAV?$allocator@UtagAlchemicItemInfo@@@0@@Z ; std::_Uninitialized_move<tagAlchemicItemInfo *,tagAlchemicItemInfo *,std::allocator<tagAlchemicItemInfo> >
  00015	83 c4 10	 add	 esp, 16			; 00000010H

; 1326 : 		}

  00018	5d		 pop	 ebp
  00019	c2 0c 00	 ret	 12			; 0000000cH
??$_Umove@PAUtagAlchemicItemInfo@@@?$vector@UtagAlchemicItemInfo@@V?$allocator@UtagAlchemicItemInfo@@@std@@@std@@IAEPAUtagAlchemicItemInfo@@PAU2@00@Z ENDP ; std::vector<tagAlchemicItemInfo,std::allocator<tagAlchemicItemInfo> >::_Umove<tagAlchemicItemInfo *>
_TEXT	ENDS
PUBLIC	??1?$vector@UAlchemicItem@ioAlchemicInventory@@V?$allocator@UAlchemicItem@ioAlchemicInventory@@@std@@@std@@QAE@XZ ; std::vector<ioAlchemicInventory::AlchemicItem,std::allocator<ioAlchemicInventory::AlchemicItem> >::~vector<ioAlchemicInventory::AlchemicItem,std::allocator<ioAlchemicInventory::AlchemicItem> >
; Function compile flags: /Ogsp
;	COMDAT ??1?$vector@UAlchemicItem@ioAlchemicInventory@@V?$allocator@UAlchemicItem@ioAlchemicInventory@@@std@@@std@@QAE@XZ
_TEXT	SEGMENT
??1?$vector@UAlchemicItem@ioAlchemicInventory@@V?$allocator@UAlchemicItem@ioAlchemicInventory@@@std@@@std@@QAE@XZ PROC ; std::vector<ioAlchemicInventory::AlchemicItem,std::allocator<ioAlchemicInventory::AlchemicItem> >::~vector<ioAlchemicInventory::AlchemicItem,std::allocator<ioAlchemicInventory::AlchemicItem> >, COMDAT
; _this$ = ecx

; 705  : 		_Tidy();

  00000	e9 00 00 00 00	 jmp	 ?_Tidy@?$vector@UAlchemicItem@ioAlchemicInventory@@V?$allocator@UAlchemicItem@ioAlchemicInventory@@@std@@@std@@IAEXXZ ; std::vector<ioAlchemicInventory::AlchemicItem,std::allocator<ioAlchemicInventory::AlchemicItem> >::_Tidy
??1?$vector@UAlchemicItem@ioAlchemicInventory@@V?$allocator@UAlchemicItem@ioAlchemicInventory@@@std@@@std@@QAE@XZ ENDP ; std::vector<ioAlchemicInventory::AlchemicItem,std::allocator<ioAlchemicInventory::AlchemicItem> >::~vector<ioAlchemicInventory::AlchemicItem,std::allocator<ioAlchemicInventory::AlchemicItem> >
_TEXT	ENDS
PUBLIC	?clear@?$vector@UAlchemicItem@ioAlchemicInventory@@V?$allocator@UAlchemicItem@ioAlchemicInventory@@@std@@@std@@QAEXXZ ; std::vector<ioAlchemicInventory::AlchemicItem,std::allocator<ioAlchemicInventory::AlchemicItem> >::clear
; Function compile flags: /Ogsp
;	COMDAT ?clear@?$vector@UAlchemicItem@ioAlchemicInventory@@V?$allocator@UAlchemicItem@ioAlchemicInventory@@@std@@@std@@QAEXXZ
_TEXT	SEGMENT
$T531199 = -4						; size = 4
?clear@?$vector@UAlchemicItem@ioAlchemicInventory@@V?$allocator@UAlchemicItem@ioAlchemicInventory@@@std@@@std@@QAEXXZ PROC ; std::vector<ioAlchemicInventory::AlchemicItem,std::allocator<ioAlchemicInventory::AlchemicItem> >::clear, COMDAT
; _this$ = ecx

; 1217 : 		{	// erase all

  00000	55		 push	 ebp
  00001	8b ec		 mov	 ebp, esp
  00003	51		 push	 ecx

; 1218 : 		erase(begin(), end());

  00004	8b 41 04	 mov	 eax, DWORD PTR [ecx+4]
  00007	8b 11		 mov	 edx, DWORD PTR [ecx]
  00009	50		 push	 eax
  0000a	52		 push	 edx
  0000b	8d 45 fc	 lea	 eax, DWORD PTR $T531199[ebp]
  0000e	50		 push	 eax
  0000f	e8 00 00 00 00	 call	 ?erase@?$vector@UAlchemicItem@ioAlchemicInventory@@V?$allocator@UAlchemicItem@ioAlchemicInventory@@@std@@@std@@QAE?AV?$_Vector_iterator@V?$_Vector_val@UAlchemicItem@ioAlchemicInventory@@V?$allocator@UAlchemicItem@ioAlchemicInventory@@@std@@@std@@@2@V?$_Vector_const_iterator@V?$_Vector_val@UAlchemicItem@ioAlchemicInventory@@V?$allocator@UAlchemicItem@ioAlchemicInventory@@@std@@@std@@@2@0@Z ; std::vector<ioAlchemicInventory::AlchemicItem,std::allocator<ioAlchemicInventory::AlchemicItem> >::erase

; 1219 : 		}

  00014	c9		 leave
  00015	c3		 ret	 0
?clear@?$vector@UAlchemicItem@ioAlchemicInventory@@V?$allocator@UAlchemicItem@ioAlchemicInventory@@@std@@@std@@QAEXXZ ENDP ; std::vector<ioAlchemicInventory::AlchemicItem,std::allocator<ioAlchemicInventory::AlchemicItem> >::clear
_TEXT	ENDS
PUBLIC	?erase@?$vector@UtagAlchemicItemInfo@@V?$allocator@UtagAlchemicItemInfo@@@std@@@std@@QAE?AV?$_Vector_iterator@V?$_Vector_val@UtagAlchemicItemInfo@@V?$allocator@UtagAlchemicItemInfo@@@std@@@std@@@2@V?$_Vector_const_iterator@V?$_Vector_val@UtagAlchemicItemInfo@@V?$allocator@UtagAlchemicItemInfo@@@std@@@std@@@2@0@Z ; std::vector<tagAlchemicItemInfo,std::allocator<tagAlchemicItemInfo> >::erase
; Function compile flags: /Ogsp
;	COMDAT ?erase@?$vector@UtagAlchemicItemInfo@@V?$allocator@UtagAlchemicItemInfo@@@std@@@std@@QAE?AV?$_Vector_iterator@V?$_Vector_val@UtagAlchemicItemInfo@@V?$allocator@UtagAlchemicItemInfo@@@std@@@std@@@2@V?$_Vector_const_iterator@V?$_Vector_val@UtagAlchemicItemInfo@@V?$allocator@UtagAlchemicItemInfo@@@std@@@std@@@2@0@Z
_TEXT	SEGMENT
___$ReturnUdt$ = 8					; size = 4
__First_arg$ = 12					; size = 4
__Cat$531325 = 16					; size = 1
__Last_arg$ = 16					; size = 4
?erase@?$vector@UtagAlchemicItemInfo@@V?$allocator@UtagAlchemicItemInfo@@@std@@@std@@QAE?AV?$_Vector_iterator@V?$_Vector_val@UtagAlchemicItemInfo@@V?$allocator@UtagAlchemicItemInfo@@@std@@@std@@@2@V?$_Vector_const_iterator@V?$_Vector_val@UtagAlchemicItemInfo@@V?$allocator@UtagAlchemicItemInfo@@@std@@@std@@@2@0@Z PROC ; std::vector<tagAlchemicItemInfo,std::allocator<tagAlchemicItemInfo> >::erase, COMDAT
; _this$ = ecx

; 1190 : 		{	// erase [_First, _Last)

  00000	55		 push	 ebp
  00001	8b ec		 mov	 ebp, esp

; 1191 : 		iterator _First = _Make_iter(_First_arg);

  00003	8b 45 0c	 mov	 eax, DWORD PTR __First_arg$[ebp]
  00006	53		 push	 ebx
  00007	8b 5d 08	 mov	 ebx, DWORD PTR ___$ReturnUdt$[ebp]
  0000a	56		 push	 esi
  0000b	8b f1		 mov	 esi, ecx
  0000d	89 03		 mov	 DWORD PTR [ebx], eax

; 1192 : 		iterator _Last = _Make_iter(_Last_arg);
; 1193 : 
; 1194 : 		if (_First != _Last)

  0000f	3b 45 10	 cmp	 eax, DWORD PTR __Last_arg$[ebp]
  00012	74 27		 je	 SHORT $LN1@erase@2

; 1195 : 			{	// worth doing, copy down over hole
; 1196 :  #if _ITERATOR_DEBUG_LEVEL == 2
; 1197 : 			if (_Last < _First || _VICONT(_First) != this
; 1198 : 				|| _VIPTR(_First) < this->_Myfirst
; 1199 : 				|| this->_Mylast < _VIPTR(_Last))
; 1200 : 				_DEBUG_ERROR("vector erase iterator outside range");
; 1201 : 			pointer _Ptr = _Move(_VIPTR(_Last), this->_Mylast,
; 1202 : 				_VIPTR(_First));
; 1203 : 			_Orphan_range(_VIPTR(_First), this->_Mylast);
; 1204 : 
; 1205 :  #else /* _ITERATOR_DEBUG_LEVEL == 2 */
; 1206 : 			pointer _Ptr = _Move(_VIPTR(_Last), this->_Mylast,
; 1207 : 				_VIPTR(_First));

  00014	8b 4e 04	 mov	 ecx, DWORD PTR [esi+4]
  00017	57		 push	 edi
  00018	ff 75 10	 push	 DWORD PTR __Cat$531325[ebp]
  0001b	50		 push	 eax
  0001c	51		 push	 ecx
  0001d	ff 75 10	 push	 DWORD PTR __Last_arg$[ebp]
  00020	e8 00 00 00 00	 call	 ??$_Move@PAUtagAlchemicItemInfo@@PAU1@@std@@YAPAUtagAlchemicItemInfo@@PAU1@00U_Nonscalar_ptr_iterator_tag@0@@Z ; std::_Move<tagAlchemicItemInfo *,tagAlchemicItemInfo *>
  00025	8b f8		 mov	 edi, eax

; 1208 :  #endif /* _ITERATOR_DEBUG_LEVEL == 2 */
; 1209 : 
; 1210 : 			_Destroy(_Ptr, this->_Mylast);

  00027	8d 46 0c	 lea	 eax, DWORD PTR [esi+12]
  0002a	50		 push	 eax
  0002b	ff 76 04	 push	 DWORD PTR [esi+4]
  0002e	57		 push	 edi
  0002f	e8 00 00 00 00	 call	 ??$_Destroy_range@V?$allocator@UtagAlchemicItemInfo@@@std@@@std@@YAXPAUtagAlchemicItemInfo@@0AAV?$allocator@UtagAlchemicItemInfo@@@0@@Z ; std::_Destroy_range<std::allocator<tagAlchemicItemInfo> >
  00034	83 c4 1c	 add	 esp, 28			; 0000001cH

; 1211 : 			this->_Mylast = _Ptr;

  00037	89 7e 04	 mov	 DWORD PTR [esi+4], edi
  0003a	5f		 pop	 edi
$LN1@erase@2:

; 1212 : 			}
; 1213 : 		return (_First);

  0003b	5e		 pop	 esi
  0003c	8b c3		 mov	 eax, ebx
  0003e	5b		 pop	 ebx

; 1214 : 		}

  0003f	5d		 pop	 ebp
  00040	c2 0c 00	 ret	 12			; 0000000cH
?erase@?$vector@UtagAlchemicItemInfo@@V?$allocator@UtagAlchemicItemInfo@@@std@@@std@@QAE?AV?$_Vector_iterator@V?$_Vector_val@UtagAlchemicItemInfo@@V?$allocator@UtagAlchemicItemInfo@@@std@@@std@@@2@V?$_Vector_const_iterator@V?$_Vector_val@UtagAlchemicItemInfo@@V?$allocator@UtagAlchemicItemInfo@@@std@@@std@@@2@0@Z ENDP ; std::vector<tagAlchemicItemInfo,std::allocator<tagAlchemicItemInfo> >::erase
_TEXT	ENDS
PUBLIC	?_Reserve@?$vector@UAlchemicItem@ioAlchemicInventory@@V?$allocator@UAlchemicItem@ioAlchemicInventory@@@std@@@std@@IAEXI@Z ; std::vector<ioAlchemicInventory::AlchemicItem,std::allocator<ioAlchemicInventory::AlchemicItem> >::_Reserve
; Function compile flags: /Ogsp
;	COMDAT ?_Reserve@?$vector@UAlchemicItem@ioAlchemicInventory@@V?$allocator@UAlchemicItem@ioAlchemicInventory@@@std@@@std@@IAEXI@Z
_TEXT	SEGMENT
__Count$ = 8						; size = 4
?_Reserve@?$vector@UAlchemicItem@ioAlchemicInventory@@V?$allocator@UAlchemicItem@ioAlchemicInventory@@@std@@@std@@IAEXI@Z PROC ; std::vector<ioAlchemicInventory::AlchemicItem,std::allocator<ioAlchemicInventory::AlchemicItem> >::_Reserve, COMDAT
; _this$ = ecx

; 1290 : 		{	// ensure room for _Count new elements, grow exponentially

  00000	55		 push	 ebp
  00001	8b ec		 mov	 ebp, esp
  00003	56		 push	 esi
  00004	8b f1		 mov	 esi, ecx

; 1291 : 		size_type _Size = size();

  00006	8b 0e		 mov	 ecx, DWORD PTR [esi]
  00008	8b 46 04	 mov	 eax, DWORD PTR [esi+4]
  0000b	2b c1		 sub	 eax, ecx
  0000d	57		 push	 edi
  0000e	99		 cdq
  0000f	6a 14		 push	 20			; 00000014H
  00011	5f		 pop	 edi
  00012	f7 ff		 idiv	 edi
  00014	8b f8		 mov	 edi, eax

; 1292 : 		if (max_size() - _Count < _Size)

  00016	b8 cc cc cc 0c	 mov	 eax, 214748364		; 0cccccccH
  0001b	2b 45 08	 sub	 eax, DWORD PTR __Count$[ebp]
  0001e	3b c7		 cmp	 eax, edi
  00020	73 0b		 jae	 SHORT $LN4@Reserve

; 1293 : 			_Xlen();

  00022	68 00 00 00 00	 push	 OFFSET ??_C@_0BD@OLBABOEK@vector?$DMT?$DO?5too?5long?$AA@
  00027	ff 15 00 00 00
	00		 call	 DWORD PTR __imp_?_Xlength_error@std@@YAXPBD@Z
$LN21@Reserve:
$LN4@Reserve:

; 1294 : 		else if ((_Size += _Count) <= capacity())

  0002d	8b 46 08	 mov	 eax, DWORD PTR [esi+8]
  00030	2b c1		 sub	 eax, ecx
  00032	6a 14		 push	 20			; 00000014H
  00034	99		 cdq
  00035	59		 pop	 ecx
  00036	f7 f9		 idiv	 ecx
  00038	03 7d 08	 add	 edi, DWORD PTR __Count$[ebp]
  0003b	3b f8		 cmp	 edi, eax
  0003d	76 10		 jbe	 SHORT $LN1@Reserve

; 1295 : 			;
; 1296 : 		else
; 1297 : 			reserve(_Grow_to(_Size));

  0003f	57		 push	 edi
  00040	8b ce		 mov	 ecx, esi
  00042	e8 00 00 00 00	 call	 ?_Grow_to@?$vector@UAlchemicItem@ioAlchemicInventory@@V?$allocator@UAlchemicItem@ioAlchemicInventory@@@std@@@std@@IBEII@Z ; std::vector<ioAlchemicInventory::AlchemicItem,std::allocator<ioAlchemicInventory::AlchemicItem> >::_Grow_to
  00047	50		 push	 eax
  00048	8b ce		 mov	 ecx, esi
  0004a	e8 00 00 00 00	 call	 ?reserve@?$vector@UAlchemicItem@ioAlchemicInventory@@V?$allocator@UAlchemicItem@ioAlchemicInventory@@@std@@@std@@QAEXI@Z ; std::vector<ioAlchemicInventory::AlchemicItem,std::allocator<ioAlchemicInventory::AlchemicItem> >::reserve
$LN1@Reserve:
  0004f	5f		 pop	 edi
  00050	5e		 pop	 esi

; 1298 : 		}

  00051	5d		 pop	 ebp
  00052	c2 04 00	 ret	 4
$LN20@Reserve:
?_Reserve@?$vector@UAlchemicItem@ioAlchemicInventory@@V?$allocator@UAlchemicItem@ioAlchemicInventory@@@std@@@std@@IAEXI@Z ENDP ; std::vector<ioAlchemicInventory::AlchemicItem,std::allocator<ioAlchemicInventory::AlchemicItem> >::_Reserve
_TEXT	ENDS
PUBLIC	?reserve@?$vector@UtagAlchemicItemInfo@@V?$allocator@UtagAlchemicItemInfo@@@std@@@std@@QAEXI@Z ; std::vector<tagAlchemicItemInfo,std::allocator<tagAlchemicItemInfo> >::reserve
;	COMDAT xdata$x
; File c:\program files (x86)\microsoft visual studio 10.0\vc\include\xmemory
xdata$x	SEGMENT
__catchsym$?reserve@?$vector@UtagAlchemicItemInfo@@V?$allocator@UtagAlchemicItemInfo@@@std@@@std@@QAEXI@Z$2 DD 040H
	DD	00H
	DD	00H
	DD	FLAT:__catch$?reserve@?$vector@UtagAlchemicItemInfo@@V?$allocator@UtagAlchemicItemInfo@@@std@@@std@@QAEXI@Z$0
__unwindtable$?reserve@?$vector@UtagAlchemicItemInfo@@V?$allocator@UtagAlchemicItemInfo@@@std@@@std@@QAEXI@Z DD 0ffffffffH
	DD	00H
	DD	0ffffffffH
	DD	00H
__tryblocktable$?reserve@?$vector@UtagAlchemicItemInfo@@V?$allocator@UtagAlchemicItemInfo@@@std@@@std@@QAEXI@Z DD 00H
	DD	00H
	DD	01H
	DD	01H
	DD	FLAT:__catchsym$?reserve@?$vector@UtagAlchemicItemInfo@@V?$allocator@UtagAlchemicItemInfo@@@std@@@std@@QAEXI@Z$2
__ehfuncinfo$?reserve@?$vector@UtagAlchemicItemInfo@@V?$allocator@UtagAlchemicItemInfo@@@std@@@std@@QAEXI@Z DD 019930522H
	DD	02H
	DD	FLAT:__unwindtable$?reserve@?$vector@UtagAlchemicItemInfo@@V?$allocator@UtagAlchemicItemInfo@@@std@@@std@@QAEXI@Z
	DD	01H
	DD	FLAT:__tryblocktable$?reserve@?$vector@UtagAlchemicItemInfo@@V?$allocator@UtagAlchemicItemInfo@@@std@@@std@@QAEXI@Z
	DD	2 DUP(00H)
	DD	00H
	DD	01H
; Function compile flags: /Ogsp
; File c:\program files (x86)\microsoft visual studio 10.0\vc\include\vector
xdata$x	ENDS
;	COMDAT ?reserve@?$vector@UtagAlchemicItemInfo@@V?$allocator@UtagAlchemicItemInfo@@@std@@@std@@QAEXI@Z
_TEXT	SEGMENT
__$EHRec$ = -16						; size = 16
__Ptr$527381 = 8					; size = 4
__Count$ = 8						; size = 4
?reserve@?$vector@UtagAlchemicItemInfo@@V?$allocator@UtagAlchemicItemInfo@@@std@@@std@@QAEXI@Z PROC ; std::vector<tagAlchemicItemInfo,std::allocator<tagAlchemicItemInfo> >::reserve, COMDAT
; _this$ = ecx

; 746  : 		{	// determine new minimum length of allocated storage

  00000	6a 04		 push	 4
  00002	b8 00 00 00 00	 mov	 eax, __ehhandler$?reserve@?$vector@UtagAlchemicItemInfo@@V?$allocator@UtagAlchemicItemInfo@@@std@@@std@@QAEXI@Z
  00007	e8 00 00 00 00	 call	 __EH_prolog3_catch
  0000c	8b f1		 mov	 esi, ecx

; 747  : 		if (max_size() < _Count)

  0000e	8b 5d 08	 mov	 ebx, DWORD PTR __Count$[ebp]
  00011	81 fb 49 92 24
	09		 cmp	 ebx, 153391689		; 09249249H
  00017	76 0b		 jbe	 SHORT $LN5@reserve@2

; 748  : 			_Xlen();	// result too long

  00019	68 00 00 00 00	 push	 OFFSET ??_C@_0BD@OLBABOEK@vector?$DMT?$DO?5too?5long?$AA@
  0001e	ff 15 00 00 00
	00		 call	 DWORD PTR __imp_?_Xlength_error@std@@YAXPBD@Z
$LN38@reserve@2:
$LN5@reserve@2:

; 749  : 		else if (capacity() < _Count)

  00024	8b 46 08	 mov	 eax, DWORD PTR [esi+8]
  00027	2b 06		 sub	 eax, DWORD PTR [esi]
  00029	6a 1c		 push	 28			; 0000001cH
  0002b	99		 cdq
  0002c	59		 pop	 ecx
  0002d	f7 f9		 idiv	 ecx
  0002f	3b c3		 cmp	 eax, ebx
  00031	73 70		 jae	 SHORT $LN3@reserve@2

; 750  : 			{	// not enough room, reallocate
; 751  : 			pointer _Ptr = this->_Alval.allocate(_Count);

  00033	6a 00		 push	 0
  00035	53		 push	 ebx
  00036	e8 00 00 00 00	 call	 ??$_Allocate@UtagAlchemicItemInfo@@@std@@YAPAUtagAlchemicItemInfo@@IPAU1@@Z ; std::_Allocate<tagAlchemicItemInfo>

; 752  : 
; 753  : 			_TRY_BEGIN
; 754  : 			_Umove(this->_Myfirst, this->_Mylast, _Ptr);

  0003b	8b 0e		 mov	 ecx, DWORD PTR [esi]
  0003d	83 65 fc 00	 and	 DWORD PTR __$EHRec$[ebp+12], 0
  00041	8d 56 0c	 lea	 edx, DWORD PTR [esi+12]
  00044	52		 push	 edx
  00045	89 45 08	 mov	 DWORD PTR __Ptr$527381[ebp], eax
  00048	ff 75 08	 push	 DWORD PTR __Ptr$527381[ebp]
  0004b	8b 46 04	 mov	 eax, DWORD PTR [esi+4]
  0004e	50		 push	 eax
  0004f	51		 push	 ecx
  00050	e8 00 00 00 00	 call	 ??$_Uninitialized_move@PAUtagAlchemicItemInfo@@PAU1@V?$allocator@UtagAlchemicItemInfo@@@std@@@std@@YAPAUtagAlchemicItemInfo@@PAU1@00AAV?$allocator@UtagAlchemicItemInfo@@@0@@Z ; std::_Uninitialized_move<tagAlchemicItemInfo *,tagAlchemicItemInfo *,std::allocator<tagAlchemicItemInfo> >

; 758  : 			_CATCH_END
; 759  : 
; 760  : 			size_type _Size = size();

  00055	8b 0e		 mov	 ecx, DWORD PTR [esi]
  00057	8b 46 04	 mov	 eax, DWORD PTR [esi+4]
  0005a	83 c4 18	 add	 esp, 24			; 00000018H
  0005d	2b c1		 sub	 eax, ecx
  0005f	6a 1c		 push	 28			; 0000001cH
  00061	99		 cdq
  00062	5f		 pop	 edi
  00063	f7 ff		 idiv	 edi
  00065	83 4d fc ff	 or	 DWORD PTR __$EHRec$[ebp+12], -1
  00069	8b f8		 mov	 edi, eax
  0006b	85 c9		 test	 ecx, ecx
  0006d	74 17		 je	 SHORT $LN33@reserve@2

; 761  : 			if (this->_Myfirst != 0)
; 762  : 				{	// destroy and deallocate old array
; 763  : 				_Destroy(this->_Myfirst, this->_Mylast);

  0006f	8d 46 0c	 lea	 eax, DWORD PTR [esi+12]
  00072	50		 push	 eax
  00073	ff 76 04	 push	 DWORD PTR [esi+4]
  00076	51		 push	 ecx
  00077	e8 00 00 00 00	 call	 ??$_Destroy_range@V?$allocator@UtagAlchemicItemInfo@@@std@@@std@@YAXPAUtagAlchemicItemInfo@@0AAV?$allocator@UtagAlchemicItemInfo@@@0@@Z ; std::_Destroy_range<std::allocator<tagAlchemicItemInfo> >

; 764  : 				this->_Alval.deallocate(this->_Myfirst,
; 765  : 					this->_Myend - this->_Myfirst);

  0007c	ff 36		 push	 DWORD PTR [esi]
  0007e	e8 00 00 00 00	 call	 ??3@YAXPAX@Z		; operator delete
  00083	83 c4 10	 add	 esp, 16			; 00000010H
$LN33@reserve@2:

; 766  : 				}
; 767  : 
; 768  : 			this->_Orphan_all();

  00086	8b ce		 mov	 ecx, esi
  00088	ff 15 00 00 00
	00		 call	 DWORD PTR __imp_?_Orphan_all@_Container_base0@std@@QAEXXZ

; 769  : 			this->_Myend = _Ptr + _Count;

  0008e	6b db 1c	 imul	 ebx, 28			; 0000001cH

; 770  : 			this->_Mylast = _Ptr + _Size;

  00091	6b ff 1c	 imul	 edi, 28			; 0000001cH
  00094	8b 45 08	 mov	 eax, DWORD PTR __Ptr$527381[ebp]
  00097	03 d8		 add	 ebx, eax
  00099	03 f8		 add	 edi, eax
  0009b	89 5e 08	 mov	 DWORD PTR [esi+8], ebx
  0009e	89 7e 04	 mov	 DWORD PTR [esi+4], edi

; 771  : 			this->_Myfirst = _Ptr;

  000a1	89 06		 mov	 DWORD PTR [esi], eax
$LN3@reserve@2:

; 772  : 			}
; 773  : 		}

  000a3	e8 00 00 00 00	 call	 __EH_epilog3
  000a8	c2 04 00	 ret	 4
__catch$?reserve@?$vector@UtagAlchemicItemInfo@@V?$allocator@UtagAlchemicItemInfo@@@std@@@std@@QAEXI@Z$0:

; 755  : 			_CATCH_ALL
; 756  : 			this->_Alval.deallocate(_Ptr, _Count);

  000ab	ff 75 08	 push	 DWORD PTR __Ptr$527381[ebp]
  000ae	e8 00 00 00 00	 call	 ??3@YAXPAX@Z		; operator delete
  000b3	59		 pop	 ecx

; 757  : 			_RERAISE;

  000b4	6a 00		 push	 0
  000b6	6a 00		 push	 0
  000b8	e8 00 00 00 00	 call	 __CxxThrowException@8
$LN39@reserve@2:
$LN37@reserve@2:
  000bd	cc		 int	 3
_TEXT	ENDS
;	COMDAT text$x
text$x	SEGMENT
__ehhandler$?reserve@?$vector@UtagAlchemicItemInfo@@V?$allocator@UtagAlchemicItemInfo@@@std@@@std@@QAEXI@Z:
  00000	8b 54 24 08	 mov	 edx, DWORD PTR [esp+8]
  00004	8d 42 0c	 lea	 eax, DWORD PTR [edx+12]
  00007	8b 4a ec	 mov	 ecx, DWORD PTR [edx-20]
  0000a	33 c8		 xor	 ecx, eax
  0000c	e8 00 00 00 00	 call	 @__security_check_cookie@4
  00011	b8 00 00 00 00	 mov	 eax, OFFSET __ehfuncinfo$?reserve@?$vector@UtagAlchemicItemInfo@@V?$allocator@UtagAlchemicItemInfo@@@std@@@std@@QAEXI@Z
  00016	e9 00 00 00 00	 jmp	 ___CxxFrameHandler3
text$x	ENDS
?reserve@?$vector@UtagAlchemicItemInfo@@V?$allocator@UtagAlchemicItemInfo@@@std@@@std@@QAEXI@Z ENDP ; std::vector<tagAlchemicItemInfo,std::allocator<tagAlchemicItemInfo> >::reserve
PUBLIC	??_7ioAlchemicInventory@@6B@			; ioAlchemicInventory::`vftable'
PUBLIC	??1ioAlchemicInventory@@UAE@XZ			; ioAlchemicInventory::~ioAlchemicInventory
PUBLIC	??_R4ioAlchemicInventory@@6B@			; ioAlchemicInventory::`RTTI Complete Object Locator'
PUBLIC	??_R0?AVioAlchemicInventory@@@8			; ioAlchemicInventory `RTTI Type Descriptor'
PUBLIC	??_R3ioAlchemicInventory@@8			; ioAlchemicInventory::`RTTI Class Hierarchy Descriptor'
PUBLIC	??_R2ioAlchemicInventory@@8			; ioAlchemicInventory::`RTTI Base Class Array'
PUBLIC	??_R1A@?0A@EA@ioAlchemicInventory@@8		; ioAlchemicInventory::`RTTI Base Class Descriptor at (0,-1,0,64)'
EXTRN	??_EioAlchemicInventory@@UAEPAXI@Z:PROC		; ioAlchemicInventory::`vector deleting destructor'
;	COMDAT ??_R1A@?0A@EA@ioAlchemicInventory@@8
rdata$r	SEGMENT
??_R1A@?0A@EA@ioAlchemicInventory@@8 DD FLAT:??_R0?AVioAlchemicInventory@@@8 ; ioAlchemicInventory::`RTTI Base Class Descriptor at (0,-1,0,64)'
	DD	00H
	DD	00H
	DD	0ffffffffH
	DD	00H
	DD	040H
	DD	FLAT:??_R3ioAlchemicInventory@@8
rdata$r	ENDS
;	COMDAT ??_R2ioAlchemicInventory@@8
rdata$r	SEGMENT
??_R2ioAlchemicInventory@@8 DD FLAT:??_R1A@?0A@EA@ioAlchemicInventory@@8 ; ioAlchemicInventory::`RTTI Base Class Array'
rdata$r	ENDS
;	COMDAT ??_R3ioAlchemicInventory@@8
rdata$r	SEGMENT
??_R3ioAlchemicInventory@@8 DD 00H			; ioAlchemicInventory::`RTTI Class Hierarchy Descriptor'
	DD	00H
	DD	01H
	DD	FLAT:??_R2ioAlchemicInventory@@8
rdata$r	ENDS
;	COMDAT ??_R0?AVioAlchemicInventory@@@8
_DATA	SEGMENT
??_R0?AVioAlchemicInventory@@@8 DD FLAT:??_7type_info@@6B@ ; ioAlchemicInventory `RTTI Type Descriptor'
	DD	00H
	DB	'.?AVioAlchemicInventory@@', 00H
_DATA	ENDS
;	COMDAT ??_R4ioAlchemicInventory@@6B@
rdata$r	SEGMENT
??_R4ioAlchemicInventory@@6B@ DD 00H			; ioAlchemicInventory::`RTTI Complete Object Locator'
	DD	00H
	DD	00H
	DD	FLAT:??_R0?AVioAlchemicInventory@@@8
	DD	FLAT:??_R3ioAlchemicInventory@@8
rdata$r	ENDS
;	COMDAT ??_7ioAlchemicInventory@@6B@
CONST	SEGMENT
??_7ioAlchemicInventory@@6B@ DD FLAT:??_R4ioAlchemicInventory@@6B@ ; ioAlchemicInventory::`vftable'
	DD	FLAT:??_EioAlchemicInventory@@UAEPAXI@Z
; Function compile flags: /Ogsp
; File d:\lost saga for developer\youtube\tutorial\source\src\lsclient\ioalchemicinventory.cpp
CONST	ENDS
;	COMDAT ??1ioAlchemicInventory@@UAE@XZ
_TEXT	SEGMENT
$T531509 = -4						; size = 4
??1ioAlchemicInventory@@UAE@XZ PROC			; ioAlchemicInventory::~ioAlchemicInventory, COMDAT
; _this$ = ecx

; 18   : {

  00000	55		 push	 ebp
  00001	8b ec		 mov	 ebp, esp
  00003	51		 push	 ecx
  00004	56		 push	 esi

; 19   : 	m_vAlchemicList.clear();

  00005	8d 71 04	 lea	 esi, DWORD PTR [ecx+4]
  00008	c7 01 00 00 00
	00		 mov	 DWORD PTR [ecx], OFFSET ??_7ioAlchemicInventory@@6B@
  0000e	8b 46 04	 mov	 eax, DWORD PTR [esi+4]
  00011	8b 0e		 mov	 ecx, DWORD PTR [esi]
  00013	50		 push	 eax
  00014	51		 push	 ecx
  00015	8d 45 fc	 lea	 eax, DWORD PTR $T531509[ebp]
  00018	50		 push	 eax
  00019	8b ce		 mov	 ecx, esi
  0001b	e8 00 00 00 00	 call	 ?erase@?$vector@UAlchemicItem@ioAlchemicInventory@@V?$allocator@UAlchemicItem@ioAlchemicInventory@@@std@@@std@@QAE?AV?$_Vector_iterator@V?$_Vector_val@UAlchemicItem@ioAlchemicInventory@@V?$allocator@UAlchemicItem@ioAlchemicInventory@@@std@@@std@@@2@V?$_Vector_const_iterator@V?$_Vector_val@UAlchemicItem@ioAlchemicInventory@@V?$allocator@UAlchemicItem@ioAlchemicInventory@@@std@@@std@@@2@0@Z ; std::vector<ioAlchemicInventory::AlchemicItem,std::allocator<ioAlchemicInventory::AlchemicItem> >::erase

; 20   : }

  00020	8b ce		 mov	 ecx, esi
  00022	e8 00 00 00 00	 call	 ?_Tidy@?$vector@UAlchemicItem@ioAlchemicInventory@@V?$allocator@UAlchemicItem@ioAlchemicInventory@@@std@@@std@@IAEXXZ ; std::vector<ioAlchemicInventory::AlchemicItem,std::allocator<ioAlchemicInventory::AlchemicItem> >::_Tidy
  00027	5e		 pop	 esi
  00028	c9		 leave
  00029	c3		 ret	 0
??1ioAlchemicInventory@@UAE@XZ ENDP			; ioAlchemicInventory::~ioAlchemicInventory
_TEXT	ENDS
PUBLIC	?Initialize@ioAlchemicInventory@@QAEXXZ		; ioAlchemicInventory::Initialize
; Function compile flags: /Ogsp
;	COMDAT ?Initialize@ioAlchemicInventory@@QAEXXZ
_TEXT	SEGMENT
$T531583 = -4						; size = 4
?Initialize@ioAlchemicInventory@@QAEXXZ PROC		; ioAlchemicInventory::Initialize, COMDAT
; _this$ = ecx

; 23   : {

  00000	55		 push	 ebp
  00001	8b ec		 mov	 ebp, esp
  00003	51		 push	 ecx

; 24   : 	m_vAlchemicList.clear();

  00004	8b 41 08	 mov	 eax, DWORD PTR [ecx+8]
  00007	83 c1 04	 add	 ecx, 4
  0000a	8b 11		 mov	 edx, DWORD PTR [ecx]
  0000c	50		 push	 eax
  0000d	52		 push	 edx
  0000e	8d 45 fc	 lea	 eax, DWORD PTR $T531583[ebp]
  00011	50		 push	 eax
  00012	e8 00 00 00 00	 call	 ?erase@?$vector@UAlchemicItem@ioAlchemicInventory@@V?$allocator@UAlchemicItem@ioAlchemicInventory@@@std@@@std@@QAE?AV?$_Vector_iterator@V?$_Vector_val@UAlchemicItem@ioAlchemicInventory@@V?$allocator@UAlchemicItem@ioAlchemicInventory@@@std@@@std@@@2@V?$_Vector_const_iterator@V?$_Vector_val@UAlchemicItem@ioAlchemicInventory@@V?$allocator@UAlchemicItem@ioAlchemicInventory@@@std@@@std@@@2@0@Z ; std::vector<ioAlchemicInventory::AlchemicItem,std::allocator<ioAlchemicInventory::AlchemicItem> >::erase

; 25   : }

  00017	c9		 leave
  00018	c3		 ret	 0
?Initialize@ioAlchemicInventory@@QAEXXZ ENDP		; ioAlchemicInventory::Initialize
_TEXT	ENDS
PUBLIC	?clear@?$vector@UtagAlchemicItemInfo@@V?$allocator@UtagAlchemicItemInfo@@@std@@@std@@QAEXXZ ; std::vector<tagAlchemicItemInfo,std::allocator<tagAlchemicItemInfo> >::clear
; Function compile flags: /Ogsp
; File c:\program files (x86)\microsoft visual studio 10.0\vc\include\vector
;	COMDAT ?clear@?$vector@UtagAlchemicItemInfo@@V?$allocator@UtagAlchemicItemInfo@@@std@@@std@@QAEXXZ
_TEXT	SEGMENT
$T531608 = -4						; size = 4
?clear@?$vector@UtagAlchemicItemInfo@@V?$allocator@UtagAlchemicItemInfo@@@std@@@std@@QAEXXZ PROC ; std::vector<tagAlchemicItemInfo,std::allocator<tagAlchemicItemInfo> >::clear, COMDAT
; _this$ = ecx

; 1217 : 		{	// erase all

  00000	55		 push	 ebp
  00001	8b ec		 mov	 ebp, esp
  00003	51		 push	 ecx

; 1218 : 		erase(begin(), end());

  00004	8b 41 04	 mov	 eax, DWORD PTR [ecx+4]
  00007	8b 11		 mov	 edx, DWORD PTR [ecx]
  00009	50		 push	 eax
  0000a	52		 push	 edx
  0000b	8d 45 fc	 lea	 eax, DWORD PTR $T531608[ebp]
  0000e	50		 push	 eax
  0000f	e8 00 00 00 00	 call	 ?erase@?$vector@UtagAlchemicItemInfo@@V?$allocator@UtagAlchemicItemInfo@@@std@@@std@@QAE?AV?$_Vector_iterator@V?$_Vector_val@UtagAlchemicItemInfo@@V?$allocator@UtagAlchemicItemInfo@@@std@@@std@@@2@V?$_Vector_const_iterator@V?$_Vector_val@UtagAlchemicItemInfo@@V?$allocator@UtagAlchemicItemInfo@@@std@@@std@@@2@0@Z ; std::vector<tagAlchemicItemInfo,std::allocator<tagAlchemicItemInfo> >::erase

; 1219 : 		}

  00014	c9		 leave
  00015	c3		 ret	 0
?clear@?$vector@UtagAlchemicItemInfo@@V?$allocator@UtagAlchemicItemInfo@@@std@@@std@@QAEXXZ ENDP ; std::vector<tagAlchemicItemInfo,std::allocator<tagAlchemicItemInfo> >::clear
_TEXT	ENDS
PUBLIC	?push_back@?$vector@UAlchemicItem@ioAlchemicInventory@@V?$allocator@UAlchemicItem@ioAlchemicInventory@@@std@@@std@@QAEXABUAlchemicItem@ioAlchemicInventory@@@Z ; std::vector<ioAlchemicInventory::AlchemicItem,std::allocator<ioAlchemicInventory::AlchemicItem> >::push_back
; Function compile flags: /Ogsp
;	COMDAT ?push_back@?$vector@UAlchemicItem@ioAlchemicInventory@@V?$allocator@UAlchemicItem@ioAlchemicInventory@@@std@@@std@@QAEXABUAlchemicItem@ioAlchemicInventory@@@Z
_TEXT	SEGMENT
__Val$ = 8						; size = 4
?push_back@?$vector@UAlchemicItem@ioAlchemicInventory@@V?$allocator@UAlchemicItem@ioAlchemicInventory@@@std@@@std@@QAEXABUAlchemicItem@ioAlchemicInventory@@@Z PROC ; std::vector<ioAlchemicInventory::AlchemicItem,std::allocator<ioAlchemicInventory::AlchemicItem> >::push_back, COMDAT
; _this$ = ecx

; 976  : 		{	// insert element at end

  00000	55		 push	 ebp
  00001	8b ec		 mov	 ebp, esp
  00003	56		 push	 esi
  00004	8b f1		 mov	 esi, ecx

; 977  : 		if (_Inside(_STD addressof(_Val)))

  00006	8b 4e 04	 mov	 ecx, DWORD PTR [esi+4]
  00009	57		 push	 edi
  0000a	8b 7d 08	 mov	 edi, DWORD PTR __Val$[ebp]
  0000d	3b f9		 cmp	 edi, ecx
  0000f	73 34		 jae	 SHORT $LN4@push_back
  00011	8b 16		 mov	 edx, DWORD PTR [esi]
  00013	3b d7		 cmp	 edx, edi
  00015	77 2e		 ja	 SHORT $LN4@push_back

; 978  : 			{	// push back an element
; 979  : 			size_type _Idx = _STD addressof(_Val) - this->_Myfirst;

  00017	8b c7		 mov	 eax, edi
  00019	2b c2		 sub	 eax, edx
  0001b	6a 14		 push	 20			; 00000014H
  0001d	99		 cdq
  0001e	5f		 pop	 edi
  0001f	f7 ff		 idiv	 edi
  00021	8b f8		 mov	 edi, eax

; 980  : 			if (this->_Mylast == this->_Myend)

  00023	3b 4e 08	 cmp	 ecx, DWORD PTR [esi+8]
  00026	75 09		 jne	 SHORT $LN3@push_back

; 981  : 				_Reserve(1);

  00028	6a 01		 push	 1
  0002a	8b ce		 mov	 ecx, esi
  0002c	e8 00 00 00 00	 call	 ?_Reserve@?$vector@UAlchemicItem@ioAlchemicInventory@@V?$allocator@UAlchemicItem@ioAlchemicInventory@@@std@@@std@@IAEXI@Z ; std::vector<ioAlchemicInventory::AlchemicItem,std::allocator<ioAlchemicInventory::AlchemicItem> >::_Reserve
$LN3@push_back:

; 982  : 			_Orphan_range(this->_Mylast, this->_Mylast);
; 983  : 			_Cons_val(this->_Alval,
; 984  : 				this->_Mylast,
; 985  : 				this->_Myfirst[_Idx]);

  00031	6b ff 14	 imul	 edi, 20			; 00000014H
  00034	03 3e		 add	 edi, DWORD PTR [esi]
  00036	8d 46 0c	 lea	 eax, DWORD PTR [esi+12]
  00039	57		 push	 edi
  0003a	ff 76 04	 push	 DWORD PTR [esi+4]
  0003d	50		 push	 eax
  0003e	e8 00 00 00 00	 call	 ??$_Cons_val@V?$allocator@UAlchemicItem@ioAlchemicInventory@@@std@@UAlchemicItem@ioAlchemicInventory@@AAU34@@std@@YAXAAV?$allocator@UAlchemicItem@ioAlchemicInventory@@@0@PAUAlchemicItem@ioAlchemicInventory@@AAU23@@Z ; std::_Cons_val<std::allocator<ioAlchemicInventory::AlchemicItem>,ioAlchemicInventory::AlchemicItem,ioAlchemicInventory::AlchemicItem &>

; 986  : 			++this->_Mylast;
; 987  : 			}
; 988  : 		else

  00043	eb 1b		 jmp	 SHORT $LN20@push_back
$LN4@push_back:

; 989  : 			{	// push back a non-element
; 990  : 			if (this->_Mylast == this->_Myend)

  00045	3b 4e 08	 cmp	 ecx, DWORD PTR [esi+8]
  00048	75 09		 jne	 SHORT $LN1@push_back

; 991  : 				_Reserve(1);

  0004a	6a 01		 push	 1
  0004c	8b ce		 mov	 ecx, esi
  0004e	e8 00 00 00 00	 call	 ?_Reserve@?$vector@UAlchemicItem@ioAlchemicInventory@@V?$allocator@UAlchemicItem@ioAlchemicInventory@@@std@@@std@@IAEXI@Z ; std::vector<ioAlchemicInventory::AlchemicItem,std::allocator<ioAlchemicInventory::AlchemicItem> >::_Reserve
$LN1@push_back:

; 992  : 			_Orphan_range(this->_Mylast, this->_Mylast);
; 993  : 			_Cons_val(this->_Alval,
; 994  : 				this->_Mylast,
; 995  : 				_Val);

  00053	57		 push	 edi
  00054	ff 76 04	 push	 DWORD PTR [esi+4]
  00057	8d 46 0c	 lea	 eax, DWORD PTR [esi+12]
  0005a	50		 push	 eax
  0005b	e8 00 00 00 00	 call	 ??$_Cons_val@V?$allocator@UAlchemicItem@ioAlchemicInventory@@@std@@UAlchemicItem@ioAlchemicInventory@@ABU34@@std@@YAXAAV?$allocator@UAlchemicItem@ioAlchemicInventory@@@0@PAUAlchemicItem@ioAlchemicInventory@@ABU23@@Z ; std::_Cons_val<std::allocator<ioAlchemicInventory::AlchemicItem>,ioAlchemicInventory::AlchemicItem,ioAlchemicInventory::AlchemicItem const &>
$LN20@push_back:
  00060	83 c4 0c	 add	 esp, 12			; 0000000cH

; 996  : 			++this->_Mylast;

  00063	83 46 04 14	 add	 DWORD PTR [esi+4], 20	; 00000014H
  00067	5f		 pop	 edi
  00068	5e		 pop	 esi

; 997  : 			}
; 998  : 		}

  00069	5d		 pop	 ebp
  0006a	c2 04 00	 ret	 4
?push_back@?$vector@UAlchemicItem@ioAlchemicInventory@@V?$allocator@UAlchemicItem@ioAlchemicInventory@@@std@@@std@@QAEXABUAlchemicItem@ioAlchemicInventory@@@Z ENDP ; std::vector<ioAlchemicInventory::AlchemicItem,std::allocator<ioAlchemicInventory::AlchemicItem> >::push_back
_TEXT	ENDS
PUBLIC	?_Reserve@?$vector@UtagAlchemicItemInfo@@V?$allocator@UtagAlchemicItemInfo@@@std@@@std@@IAEXI@Z ; std::vector<tagAlchemicItemInfo,std::allocator<tagAlchemicItemInfo> >::_Reserve
; Function compile flags: /Ogsp
;	COMDAT ?_Reserve@?$vector@UtagAlchemicItemInfo@@V?$allocator@UtagAlchemicItemInfo@@@std@@@std@@IAEXI@Z
_TEXT	SEGMENT
__Count$ = 8						; size = 4
?_Reserve@?$vector@UtagAlchemicItemInfo@@V?$allocator@UtagAlchemicItemInfo@@@std@@@std@@IAEXI@Z PROC ; std::vector<tagAlchemicItemInfo,std::allocator<tagAlchemicItemInfo> >::_Reserve, COMDAT
; _this$ = ecx

; 1290 : 		{	// ensure room for _Count new elements, grow exponentially

  00000	55		 push	 ebp
  00001	8b ec		 mov	 ebp, esp
  00003	56		 push	 esi
  00004	8b f1		 mov	 esi, ecx

; 1291 : 		size_type _Size = size();

  00006	8b 0e		 mov	 ecx, DWORD PTR [esi]
  00008	8b 46 04	 mov	 eax, DWORD PTR [esi+4]
  0000b	2b c1		 sub	 eax, ecx
  0000d	57		 push	 edi
  0000e	99		 cdq
  0000f	6a 1c		 push	 28			; 0000001cH
  00011	5f		 pop	 edi
  00012	f7 ff		 idiv	 edi
  00014	8b f8		 mov	 edi, eax

; 1292 : 		if (max_size() - _Count < _Size)

  00016	b8 49 92 24 09	 mov	 eax, 153391689		; 09249249H
  0001b	2b 45 08	 sub	 eax, DWORD PTR __Count$[ebp]
  0001e	3b c7		 cmp	 eax, edi
  00020	73 0b		 jae	 SHORT $LN4@Reserve@2

; 1293 : 			_Xlen();

  00022	68 00 00 00 00	 push	 OFFSET ??_C@_0BD@OLBABOEK@vector?$DMT?$DO?5too?5long?$AA@
  00027	ff 15 00 00 00
	00		 call	 DWORD PTR __imp_?_Xlength_error@std@@YAXPBD@Z
$LN21@Reserve@2:
$LN4@Reserve@2:

; 1294 : 		else if ((_Size += _Count) <= capacity())

  0002d	8b 46 08	 mov	 eax, DWORD PTR [esi+8]
  00030	2b c1		 sub	 eax, ecx
  00032	6a 1c		 push	 28			; 0000001cH
  00034	99		 cdq
  00035	59		 pop	 ecx
  00036	f7 f9		 idiv	 ecx
  00038	03 7d 08	 add	 edi, DWORD PTR __Count$[ebp]
  0003b	3b f8		 cmp	 edi, eax
  0003d	76 10		 jbe	 SHORT $LN1@Reserve@2

; 1295 : 			;
; 1296 : 		else
; 1297 : 			reserve(_Grow_to(_Size));

  0003f	57		 push	 edi
  00040	8b ce		 mov	 ecx, esi
  00042	e8 00 00 00 00	 call	 ?_Grow_to@?$vector@UtagAlchemicItemInfo@@V?$allocator@UtagAlchemicItemInfo@@@std@@@std@@IBEII@Z ; std::vector<tagAlchemicItemInfo,std::allocator<tagAlchemicItemInfo> >::_Grow_to
  00047	50		 push	 eax
  00048	8b ce		 mov	 ecx, esi
  0004a	e8 00 00 00 00	 call	 ?reserve@?$vector@UtagAlchemicItemInfo@@V?$allocator@UtagAlchemicItemInfo@@@std@@@std@@QAEXI@Z ; std::vector<tagAlchemicItemInfo,std::allocator<tagAlchemicItemInfo> >::reserve
$LN1@Reserve@2:
  0004f	5f		 pop	 edi
  00050	5e		 pop	 esi

; 1298 : 		}

  00051	5d		 pop	 ebp
  00052	c2 04 00	 ret	 4
$LN20@Reserve@2:
?_Reserve@?$vector@UtagAlchemicItemInfo@@V?$allocator@UtagAlchemicItemInfo@@@std@@@std@@IAEXI@Z ENDP ; std::vector<tagAlchemicItemInfo,std::allocator<tagAlchemicItemInfo> >::_Reserve
_TEXT	ENDS
PUBLIC	??0ioAlchemicInventory@@QAE@XZ			; ioAlchemicInventory::ioAlchemicInventory
; Function compile flags: /Ogsp
; File d:\lost saga for developer\youtube\tutorial\source\src\lsclient\ioalchemicinventory.cpp
;	COMDAT ??0ioAlchemicInventory@@QAE@XZ
_TEXT	SEGMENT
??0ioAlchemicInventory@@QAE@XZ PROC			; ioAlchemicInventory::ioAlchemicInventory, COMDAT
; _this$ = ecx

; 13   : {

  00000	56		 push	 esi
  00001	8b f1		 mov	 esi, ecx
  00003	33 c0		 xor	 eax, eax
  00005	c7 06 00 00 00
	00		 mov	 DWORD PTR [esi], OFFSET ??_7ioAlchemicInventory@@6B@
  0000b	89 46 04	 mov	 DWORD PTR [esi+4], eax
  0000e	89 46 08	 mov	 DWORD PTR [esi+8], eax
  00011	89 46 0c	 mov	 DWORD PTR [esi+12], eax

; 14   : 	Initialize();

  00014	e8 00 00 00 00	 call	 ?Initialize@ioAlchemicInventory@@QAEXXZ ; ioAlchemicInventory::Initialize

; 15   : }

  00019	8b c6		 mov	 eax, esi
  0001b	5e		 pop	 esi
  0001c	c3		 ret	 0
??0ioAlchemicInventory@@QAE@XZ ENDP			; ioAlchemicInventory::ioAlchemicInventory
; Function compile flags: /Ogsp
_TEXT	ENDS
;	COMDAT ??_GioAlchemicInventory@@UAEPAXI@Z
_TEXT	SEGMENT
___flags$ = 8						; size = 4
??_GioAlchemicInventory@@UAEPAXI@Z PROC			; ioAlchemicInventory::`scalar deleting destructor', COMDAT
; _this$ = ecx
  00000	55		 push	 ebp
  00001	8b ec		 mov	 ebp, esp
  00003	56		 push	 esi
  00004	8b f1		 mov	 esi, ecx
  00006	e8 00 00 00 00	 call	 ??1ioAlchemicInventory@@UAE@XZ ; ioAlchemicInventory::~ioAlchemicInventory
  0000b	f6 45 08 01	 test	 BYTE PTR ___flags$[ebp], 1
  0000f	74 07		 je	 SHORT $LN1@scalar@3
  00011	56		 push	 esi
  00012	e8 00 00 00 00	 call	 ??3@YAXPAX@Z		; operator delete
  00017	59		 pop	 ecx
$LN1@scalar@3:
  00018	8b c6		 mov	 eax, esi
  0001a	5e		 pop	 esi
  0001b	5d		 pop	 ebp
  0001c	c2 04 00	 ret	 4
??_GioAlchemicInventory@@UAEPAXI@Z ENDP			; ioAlchemicInventory::`scalar deleting destructor'
_TEXT	ENDS
PUBLIC	?ApplyAlchemicData@ioAlchemicInventory@@QAEXAAVSP2Packet@@@Z ; ioAlchemicInventory::ApplyAlchemicData
EXTRN	??5SP2Packet@@QAEAAV0@AAH@Z:PROC		; SP2Packet::operator>>
; Function compile flags: /Ogsp
;	COMDAT ?ApplyAlchemicData@ioAlchemicInventory@@QAEXAAVSP2Packet@@@Z
_TEXT	SEGMENT
_kItem$526620 = -28					; size = 20
$T531806 = -8						; size = 4
_iItemSize$ = -4					; size = 4
_rkPacket$ = 8						; size = 4
?ApplyAlchemicData@ioAlchemicInventory@@QAEXAAVSP2Packet@@@Z PROC ; ioAlchemicInventory::ApplyAlchemicData, COMDAT
; _this$ = ecx

; 28   : {

  00000	55		 push	 ebp
  00001	8b ec		 mov	 ebp, esp
  00003	83 ec 1c	 sub	 esp, 28			; 0000001cH
  00006	53		 push	 ebx
  00007	56		 push	 esi

; 29   : 	m_vAlchemicList.clear();

  00008	8d 71 04	 lea	 esi, DWORD PTR [ecx+4]
  0000b	8b 46 04	 mov	 eax, DWORD PTR [esi+4]
  0000e	8b 0e		 mov	 ecx, DWORD PTR [esi]
  00010	57		 push	 edi
  00011	50		 push	 eax
  00012	51		 push	 ecx
  00013	8d 45 f8	 lea	 eax, DWORD PTR $T531806[ebp]
  00016	50		 push	 eax
  00017	8b ce		 mov	 ecx, esi
  00019	e8 00 00 00 00	 call	 ?erase@?$vector@UAlchemicItem@ioAlchemicInventory@@V?$allocator@UAlchemicItem@ioAlchemicInventory@@@std@@@std@@QAE?AV?$_Vector_iterator@V?$_Vector_val@UAlchemicItem@ioAlchemicInventory@@V?$allocator@UAlchemicItem@ioAlchemicInventory@@@std@@@std@@@2@V?$_Vector_const_iterator@V?$_Vector_val@UAlchemicItem@ioAlchemicInventory@@V?$allocator@UAlchemicItem@ioAlchemicInventory@@@std@@@std@@@2@0@Z ; std::vector<ioAlchemicInventory::AlchemicItem,std::allocator<ioAlchemicInventory::AlchemicItem> >::erase

; 30   : 
; 31   : 	int iItemSize;
; 32   : 	rkPacket >> iItemSize;

  0001e	8b 4d 08	 mov	 ecx, DWORD PTR _rkPacket$[ebp]
  00021	8d 45 fc	 lea	 eax, DWORD PTR _iItemSize$[ebp]
  00024	50		 push	 eax
  00025	e8 00 00 00 00	 call	 ??5SP2Packet@@QAEAAV0@AAH@Z ; SP2Packet::operator>>

; 33   : 
; 34   : 	for( int i=0; i < iItemSize; ++i )

  0002a	33 db		 xor	 ebx, ebx
  0002c	33 ff		 xor	 edi, edi
  0002e	39 5d fc	 cmp	 DWORD PTR _iItemSize$[ebp], ebx
  00031	7e 38		 jle	 SHORT $LN1@ApplyAlche
$LL3@ApplyAlche:

; 35   : 	{
; 36   : 		AlchemicItem kItem;
; 37   : 		rkPacket >> kItem.m_iCode;

  00033	8b 4d 08	 mov	 ecx, DWORD PTR _rkPacket$[ebp]
  00036	8d 45 e4	 lea	 eax, DWORD PTR _kItem$526620[ebp]
  00039	50		 push	 eax
  0003a	89 5d e4	 mov	 DWORD PTR _kItem$526620[ebp], ebx
  0003d	89 5d e8	 mov	 DWORD PTR _kItem$526620[ebp+4], ebx
  00040	89 5d ec	 mov	 DWORD PTR _kItem$526620[ebp+8], ebx
  00043	89 5d f0	 mov	 DWORD PTR _kItem$526620[ebp+12], ebx
  00046	88 5d f4	 mov	 BYTE PTR _kItem$526620[ebp+16], bl
  00049	e8 00 00 00 00	 call	 ??5SP2Packet@@QAEAAV0@AAH@Z ; SP2Packet::operator>>

; 38   : 		rkPacket >> kItem.m_iCount;

  0004e	8b 4d 08	 mov	 ecx, DWORD PTR _rkPacket$[ebp]
  00051	8d 45 e8	 lea	 eax, DWORD PTR _kItem$526620[ebp+4]
  00054	50		 push	 eax
  00055	e8 00 00 00 00	 call	 ??5SP2Packet@@QAEAAV0@AAH@Z ; SP2Packet::operator>>

; 39   : 
; 40   : 		m_vAlchemicList.push_back( kItem );

  0005a	8d 45 e4	 lea	 eax, DWORD PTR _kItem$526620[ebp]
  0005d	50		 push	 eax
  0005e	8b ce		 mov	 ecx, esi
  00060	e8 00 00 00 00	 call	 ?push_back@?$vector@UAlchemicItem@ioAlchemicInventory@@V?$allocator@UAlchemicItem@ioAlchemicInventory@@@std@@@std@@QAEXABUAlchemicItem@ioAlchemicInventory@@@Z ; std::vector<ioAlchemicInventory::AlchemicItem,std::allocator<ioAlchemicInventory::AlchemicItem> >::push_back
  00065	47		 inc	 edi
  00066	3b 7d fc	 cmp	 edi, DWORD PTR _iItemSize$[ebp]
  00069	7c c8		 jl	 SHORT $LL3@ApplyAlche
$LN1@ApplyAlche:
  0006b	5f		 pop	 edi
  0006c	5e		 pop	 esi
  0006d	5b		 pop	 ebx

; 41   : 	}
; 42   : }

  0006e	c9		 leave
  0006f	c2 04 00	 ret	 4
?ApplyAlchemicData@ioAlchemicInventory@@QAEXAAVSP2Packet@@@Z ENDP ; ioAlchemicInventory::ApplyAlchemicData
_TEXT	ENDS
PUBLIC	?AddAlchemicItem@ioAlchemicInventory@@IAE_NHH@Z	; ioAlchemicInventory::AddAlchemicItem
; Function compile flags: /Ogsp
;	COMDAT ?AddAlchemicItem@ioAlchemicInventory@@IAE_NHH@Z
_TEXT	SEGMENT
_kInfo$ = -20						; size = 20
_iCode$ = 8						; size = 4
_iCount$ = 12						; size = 4
?AddAlchemicItem@ioAlchemicInventory@@IAE_NHH@Z PROC	; ioAlchemicInventory::AddAlchemicItem, COMDAT
; _this$ = ecx

; 113  : {

  00000	55		 push	 ebp
  00001	8b ec		 mov	 ebp, esp

; 114  : 	vAlchemicItem::iterator iter, iEnd;
; 115  : 	iEnd = m_vAlchemicList.end();

  00003	8b 51 08	 mov	 edx, DWORD PTR [ecx+8]
  00006	83 ec 14	 sub	 esp, 20			; 00000014H

; 116  : 	for(iter = m_vAlchemicList.begin();iter != iEnd;iter++)

  00009	83 c1 04	 add	 ecx, 4
  0000c	8b 01		 mov	 eax, DWORD PTR [ecx]
  0000e	53		 push	 ebx
  0000f	33 db		 xor	 ebx, ebx
  00011	eb 07		 jmp	 SHORT $LN54@AddAlchemi
$LL35@AddAlchemi:

; 117  : 	{
; 118  : 		AlchemicItem &kItem = *iter;
; 119  : 
; 120  : 		if( kItem.m_iCode == 0 )

  00013	39 18		 cmp	 DWORD PTR [eax], ebx
  00015	74 2c		 je	 SHORT $LN52@AddAlchemi

; 116  : 	for(iter = m_vAlchemicList.begin();iter != iEnd;iter++)

  00017	83 c0 14	 add	 eax, 20			; 00000014H
$LN54@AddAlchemi:
  0001a	3b c2		 cmp	 eax, edx
  0001c	75 f5		 jne	 SHORT $LL35@AddAlchemi

; 127  : 		}
; 128  : 	}
; 129  : 
; 130  : 	AlchemicItem kInfo;
; 131  : 	kInfo.m_iCode = iCode;

  0001e	8b 45 08	 mov	 eax, DWORD PTR _iCode$[ebp]
  00021	89 45 ec	 mov	 DWORD PTR _kInfo$[ebp], eax

; 132  : 	kInfo.m_iCount = iCount;

  00024	8b 45 0c	 mov	 eax, DWORD PTR _iCount$[ebp]
  00027	89 45 f0	 mov	 DWORD PTR _kInfo$[ebp+4], eax

; 133  : 	kInfo.m_iValue1 = 0;
; 134  : 	kInfo.m_iValue2 = 0;
; 135  : 
; 136  : 	m_vAlchemicList.push_back( kInfo );

  0002a	8d 45 ec	 lea	 eax, DWORD PTR _kInfo$[ebp]
  0002d	50		 push	 eax
  0002e	88 5d fc	 mov	 BYTE PTR _kInfo$[ebp+16], bl
  00031	89 5d f4	 mov	 DWORD PTR _kInfo$[ebp+8], ebx
  00034	89 5d f8	 mov	 DWORD PTR _kInfo$[ebp+12], ebx
  00037	e8 00 00 00 00	 call	 ?push_back@?$vector@UAlchemicItem@ioAlchemicInventory@@V?$allocator@UAlchemicItem@ioAlchemicInventory@@@std@@@std@@QAEXABUAlchemicItem@ioAlchemicInventory@@@Z ; std::vector<ioAlchemicInventory::AlchemicItem,std::allocator<ioAlchemicInventory::AlchemicItem> >::push_back
$LN55@AddAlchemi:

; 137  : 
; 138  : 	return true;

  0003c	b0 01		 mov	 al, 1
  0003e	5b		 pop	 ebx

; 139  : }

  0003f	c9		 leave
  00040	c2 08 00	 ret	 8
$LN52@AddAlchemi:

; 121  : 		{
; 122  : 			kItem.m_iCode = iCode;

  00043	8b 4d 08	 mov	 ecx, DWORD PTR _iCode$[ebp]
  00046	89 08		 mov	 DWORD PTR [eax], ecx

; 123  : 			kItem.m_iCount = iCount;

  00048	8b 4d 0c	 mov	 ecx, DWORD PTR _iCount$[ebp]
  0004b	89 48 04	 mov	 DWORD PTR [eax+4], ecx

; 124  : 			kItem.m_iValue1 = 0;

  0004e	89 58 08	 mov	 DWORD PTR [eax+8], ebx

; 125  : 			kItem.m_iValue2 = 0;

  00051	89 58 0c	 mov	 DWORD PTR [eax+12], ebx

; 126  : 			return true;

  00054	eb e6		 jmp	 SHORT $LN55@AddAlchemi
?AddAlchemicItem@ioAlchemicInventory@@IAE_NHH@Z ENDP	; ioAlchemicInventory::AddAlchemicItem
_TEXT	ENDS
PUBLIC	?GainAlchemicItem@ioAlchemicInventory@@QAE_NHH@Z ; ioAlchemicInventory::GainAlchemicItem
; Function compile flags: /Ogsp
;	COMDAT ?GainAlchemicItem@ioAlchemicInventory@@QAE_NHH@Z
_TEXT	SEGMENT
_kTmpItem$ = -20					; size = 20
_iCode$ = 8						; size = 4
_iCount$ = 12						; size = 4
?GainAlchemicItem@ioAlchemicInventory@@QAE_NHH@Z PROC	; ioAlchemicInventory::GainAlchemicItem, COMDAT
; _this$ = ecx

; 197  : {

  00000	55		 push	 ebp
  00001	8b ec		 mov	 ebp, esp
  00003	83 ec 14	 sub	 esp, 20			; 00000014H

; 198  : 	AlchemicItem kTmpItem;

  00006	33 c0		 xor	 eax, eax
  00008	56		 push	 esi
  00009	57		 push	 edi

; 199  : 	if( FindAlchemicItem( iCode, kTmpItem ) )

  0000a	8b 7d 08	 mov	 edi, DWORD PTR _iCode$[ebp]
  0000d	89 45 ec	 mov	 DWORD PTR _kTmpItem$[ebp], eax
  00010	89 45 f0	 mov	 DWORD PTR _kTmpItem$[ebp+4], eax
  00013	89 45 f4	 mov	 DWORD PTR _kTmpItem$[ebp+8], eax
  00016	89 45 f8	 mov	 DWORD PTR _kTmpItem$[ebp+12], eax
  00019	88 45 fc	 mov	 BYTE PTR _kTmpItem$[ebp+16], al
  0001c	8d 45 ec	 lea	 eax, DWORD PTR _kTmpItem$[ebp]
  0001f	50		 push	 eax
  00020	57		 push	 edi
  00021	8b f1		 mov	 esi, ecx
  00023	e8 00 00 00 00	 call	 ?FindAlchemicItem@ioAlchemicInventory@@IAE_NHAAUAlchemicItem@1@@Z ; ioAlchemicInventory::FindAlchemicItem
  00028	84 c0		 test	 al, al
  0002a	74 2c		 je	 SHORT $LN5@GainAlchem

; 200  : 	{
; 201  : 		kTmpItem.m_iCount += iCount;

  0002c	8b 45 f0	 mov	 eax, DWORD PTR _kTmpItem$[ebp+4]
  0002f	03 45 0c	 add	 eax, DWORD PTR _iCount$[ebp]
  00032	89 45 f0	 mov	 DWORD PTR _kTmpItem$[ebp+4], eax

; 202  : 
; 203  : 		if( kTmpItem.m_iCount <= MAX_SLOT_CNT )

  00035	3d 00 94 35 77	 cmp	 eax, 2000000000		; 77359400H
  0003a	7f 29		 jg	 SHORT $LN1@GainAlchem

; 204  : 		{
; 205  : 			if( ChangeAlchemicItem( iCode, kTmpItem ) )

  0003c	8d 45 ec	 lea	 eax, DWORD PTR _kTmpItem$[ebp]
  0003f	50		 push	 eax
  00040	57		 push	 edi
  00041	8b ce		 mov	 ecx, esi
  00043	e8 00 00 00 00	 call	 ?ChangeAlchemicItem@ioAlchemicInventory@@IAE_NHABUAlchemicItem@1@@Z ; ioAlchemicInventory::ChangeAlchemicItem
$LN12@GainAlchem:
  00048	84 c0		 test	 al, al
  0004a	74 19		 je	 SHORT $LN1@GainAlchem

; 206  : 			{
; 207  : 				AlchemicItemAddNew( iCode );

  0004c	57		 push	 edi
  0004d	8b ce		 mov	 ecx, esi
  0004f	e8 00 00 00 00	 call	 ?AlchemicItemAddNew@ioAlchemicInventory@@IAEXH@Z ; ioAlchemicInventory::AlchemicItemAddNew

; 208  : 				return true;

  00054	b0 01		 mov	 al, 1
  00056	eb 0f		 jmp	 SHORT $LN6@GainAlchem
$LN5@GainAlchem:

; 209  : 			}
; 210  : 		}
; 211  : 	}
; 212  : 	else
; 213  : 	{
; 214  : 		if( AddAlchemicItem( iCode, iCount ) )

  00058	ff 75 0c	 push	 DWORD PTR _iCount$[ebp]
  0005b	8b ce		 mov	 ecx, esi
  0005d	57		 push	 edi
  0005e	e8 00 00 00 00	 call	 ?AddAlchemicItem@ioAlchemicInventory@@IAE_NHH@Z ; ioAlchemicInventory::AddAlchemicItem

; 215  : 		{
; 216  : 			AlchemicItemAddNew( iCode );
; 217  : 			return true;

  00063	eb e3		 jmp	 SHORT $LN12@GainAlchem
$LN1@GainAlchem:

; 218  : 		}
; 219  : 	}
; 220  : 
; 221  : 	return false;

  00065	32 c0		 xor	 al, al
$LN6@GainAlchem:
  00067	5f		 pop	 edi
  00068	5e		 pop	 esi

; 222  : }

  00069	c9		 leave
  0006a	c2 08 00	 ret	 8
?GainAlchemicItem@ioAlchemicInventory@@QAE_NHH@Z ENDP	; ioAlchemicInventory::GainAlchemicItem
_TEXT	ENDS
PUBLIC	?push_back@?$vector@UtagAlchemicItemInfo@@V?$allocator@UtagAlchemicItemInfo@@@std@@@std@@QAEXABUtagAlchemicItemInfo@@@Z ; std::vector<tagAlchemicItemInfo,std::allocator<tagAlchemicItemInfo> >::push_back
; Function compile flags: /Ogsp
; File c:\program files (x86)\microsoft visual studio 10.0\vc\include\vector
;	COMDAT ?push_back@?$vector@UtagAlchemicItemInfo@@V?$allocator@UtagAlchemicItemInfo@@@std@@@std@@QAEXABUtagAlchemicItemInfo@@@Z
_TEXT	SEGMENT
__Val$ = 8						; size = 4
?push_back@?$vector@UtagAlchemicItemInfo@@V?$allocator@UtagAlchemicItemInfo@@@std@@@std@@QAEXABUtagAlchemicItemInfo@@@Z PROC ; std::vector<tagAlchemicItemInfo,std::allocator<tagAlchemicItemInfo> >::push_back, COMDAT
; _this$ = ecx

; 976  : 		{	// insert element at end

  00000	55		 push	 ebp
  00001	8b ec		 mov	 ebp, esp
  00003	56		 push	 esi
  00004	8b f1		 mov	 esi, ecx

; 977  : 		if (_Inside(_STD addressof(_Val)))

  00006	8b 4e 04	 mov	 ecx, DWORD PTR [esi+4]
  00009	57		 push	 edi
  0000a	8b 7d 08	 mov	 edi, DWORD PTR __Val$[ebp]
  0000d	3b f9		 cmp	 edi, ecx
  0000f	73 37		 jae	 SHORT $LN4@push_back@2
  00011	8b 16		 mov	 edx, DWORD PTR [esi]
  00013	3b d7		 cmp	 edx, edi
  00015	77 31		 ja	 SHORT $LN4@push_back@2

; 978  : 			{	// push back an element
; 979  : 			size_type _Idx = _STD addressof(_Val) - this->_Myfirst;

  00017	8b c7		 mov	 eax, edi
  00019	2b c2		 sub	 eax, edx
  0001b	6a 1c		 push	 28			; 0000001cH
  0001d	99		 cdq
  0001e	5f		 pop	 edi
  0001f	f7 ff		 idiv	 edi
  00021	8b f8		 mov	 edi, eax

; 980  : 			if (this->_Mylast == this->_Myend)

  00023	3b 4e 08	 cmp	 ecx, DWORD PTR [esi+8]
  00026	75 09		 jne	 SHORT $LN3@push_back@2

; 981  : 				_Reserve(1);

  00028	6a 01		 push	 1
  0002a	8b ce		 mov	 ecx, esi
  0002c	e8 00 00 00 00	 call	 ?_Reserve@?$vector@UtagAlchemicItemInfo@@V?$allocator@UtagAlchemicItemInfo@@@std@@@std@@IAEXI@Z ; std::vector<tagAlchemicItemInfo,std::allocator<tagAlchemicItemInfo> >::_Reserve
$LN3@push_back@2:

; 982  : 			_Orphan_range(this->_Mylast, this->_Mylast);
; 983  : 			_Cons_val(this->_Alval,
; 984  : 				this->_Mylast,
; 985  : 				this->_Myfirst[_Idx]);

  00031	6b ff 1c	 imul	 edi, 28			; 0000001cH
  00034	03 3e		 add	 edi, DWORD PTR [esi]
  00036	8d 46 0c	 lea	 eax, DWORD PTR [esi+12]
  00039	57		 push	 edi
  0003a	ff 76 04	 push	 DWORD PTR [esi+4]
  0003d	50		 push	 eax
  0003e	e8 00 00 00 00	 call	 ??$_Cons_val@V?$allocator@UtagAlchemicItemInfo@@@std@@UtagAlchemicItemInfo@@AAU3@@std@@YAXAAV?$allocator@UtagAlchemicItemInfo@@@0@PAUtagAlchemicItemInfo@@AAU2@@Z ; std::_Cons_val<std::allocator<tagAlchemicItemInfo>,tagAlchemicItemInfo,tagAlchemicItemInfo &>
  00043	83 c4 0c	 add	 esp, 12			; 0000000cH

; 986  : 			++this->_Mylast;
; 987  : 			}
; 988  : 		else

  00046	eb 19		 jmp	 SHORT $LN26@push_back@2
$LN4@push_back@2:

; 989  : 			{	// push back a non-element
; 990  : 			if (this->_Mylast == this->_Myend)

  00048	3b 4e 08	 cmp	 ecx, DWORD PTR [esi+8]
  0004b	75 09		 jne	 SHORT $LN1@push_back@2

; 991  : 				_Reserve(1);

  0004d	6a 01		 push	 1
  0004f	8b ce		 mov	 ecx, esi
  00051	e8 00 00 00 00	 call	 ?_Reserve@?$vector@UtagAlchemicItemInfo@@V?$allocator@UtagAlchemicItemInfo@@@std@@@std@@IAEXI@Z ; std::vector<tagAlchemicItemInfo,std::allocator<tagAlchemicItemInfo> >::_Reserve
$LN1@push_back@2:

; 992  : 			_Orphan_range(this->_Mylast, this->_Mylast);
; 993  : 			_Cons_val(this->_Alval,
; 994  : 				this->_Mylast,
; 995  : 				_Val);

  00056	57		 push	 edi
  00057	ff 76 04	 push	 DWORD PTR [esi+4]
  0005a	e8 00 00 00 00	 call	 ??$_Construct@UtagAlchemicItemInfo@@ABU1@@std@@YAXPAUtagAlchemicItemInfo@@ABU1@@Z ; std::_Construct<tagAlchemicItemInfo,tagAlchemicItemInfo const &>
  0005f	59		 pop	 ecx
  00060	59		 pop	 ecx
$LN26@push_back@2:

; 996  : 			++this->_Mylast;

  00061	83 46 04 1c	 add	 DWORD PTR [esi+4], 28	; 0000001cH
  00065	5f		 pop	 edi
  00066	5e		 pop	 esi

; 997  : 			}
; 998  : 		}

  00067	5d		 pop	 ebp
  00068	c2 04 00	 ret	 4
?push_back@?$vector@UtagAlchemicItemInfo@@V?$allocator@UtagAlchemicItemInfo@@@std@@@std@@QAEXABUtagAlchemicItemInfo@@@Z ENDP ; std::vector<tagAlchemicItemInfo,std::allocator<tagAlchemicItemInfo> >::push_back
_TEXT	ENDS
PUBLIC	??_R0?AVioWnd@@@8				; ioWnd `RTTI Type Descriptor'
PUBLIC	??_R0?AVMyInventoryWnd@@@8			; MyInventoryWnd `RTTI Type Descriptor'
PUBLIC	?ApplyAlchemicSync@ioAlchemicInventory@@QAEXAAVSP2Packet@@@Z ; ioAlchemicInventory::ApplyAlchemicSync
EXTRN	?UpdateTab@MyInventoryWnd@@QAEX_N00@Z:PROC	; MyInventoryWnd::UpdateTab
EXTRN	__imp_?IsShow@ioWnd@@QBE_NXZ:PROC
EXTRN	__imp_?FindWnd@ioGUIManager@@QAEPAVioWnd@@K@Z:PROC
EXTRN	?GetSingleton@ioSP2GUIManager@@SAAAV1@XZ:PROC	; ioSP2GUIManager::GetSingleton
EXTRN	___RTDynamicCast:PROC
;	COMDAT ??_R0?AVioWnd@@@8
; File d:\lost saga for developer\youtube\tutorial\source\src\lsclient\ioalchemicinventory.cpp
_DATA	SEGMENT
??_R0?AVioWnd@@@8 DD FLAT:??_7type_info@@6B@		; ioWnd `RTTI Type Descriptor'
	DD	00H
	DB	'.?AVioWnd@@', 00H
_DATA	ENDS
;	COMDAT ??_R0?AVMyInventoryWnd@@@8
_DATA	SEGMENT
??_R0?AVMyInventoryWnd@@@8 DD FLAT:??_7type_info@@6B@	; MyInventoryWnd `RTTI Type Descriptor'
	DD	00H
	DB	'.?AVMyInventoryWnd@@', 00H
; Function compile flags: /Ogsp
_DATA	ENDS
;	COMDAT ?ApplyAlchemicSync@ioAlchemicInventory@@QAEXAAVSP2Packet@@@Z
_TEXT	SEGMENT
_iCode$526631 = -8					; size = 4
_iSyncType$ = -4					; size = 4
_iCount$526632 = 8					; size = 4
_rkPacket$ = 8						; size = 4
?ApplyAlchemicSync@ioAlchemicInventory@@QAEXAAVSP2Packet@@@Z PROC ; ioAlchemicInventory::ApplyAlchemicSync, COMDAT
; _this$ = ecx

; 45   : {

  00000	55		 push	 ebp
  00001	8b ec		 mov	 ebp, esp
  00003	51		 push	 ecx
  00004	51		 push	 ecx
  00005	56		 push	 esi

; 46   : 	int iSyncType;
; 47   : 	rkPacket >> iSyncType;

  00006	8d 45 fc	 lea	 eax, DWORD PTR _iSyncType$[ebp]
  00009	8b f1		 mov	 esi, ecx
  0000b	8b 4d 08	 mov	 ecx, DWORD PTR _rkPacket$[ebp]
  0000e	50		 push	 eax
  0000f	e8 00 00 00 00	 call	 ??5SP2Packet@@QAEAAV0@AAH@Z ; SP2Packet::operator>>

; 48   : 
; 49   : 	switch( iSyncType )

  00014	8b 45 fc	 mov	 eax, DWORD PTR _iSyncType$[ebp]
  00017	48		 dec	 eax
  00018	75 24		 jne	 SHORT $LN4@ApplyAlche@2

; 50   : 	{
; 51   : 	case ALCHEMIC_SYNC_GAIN:
; 52   : 		{
; 53   : 			int iCode, iCount;
; 54   : 			rkPacket >> iCode >> iCount;

  0001a	8b 4d 08	 mov	 ecx, DWORD PTR _rkPacket$[ebp]
  0001d	8d 45 08	 lea	 eax, DWORD PTR _iCount$526632[ebp]
  00020	50		 push	 eax
  00021	8d 45 f8	 lea	 eax, DWORD PTR _iCode$526631[ebp]
  00024	50		 push	 eax
  00025	e8 00 00 00 00	 call	 ??5SP2Packet@@QAEAAV0@AAH@Z ; SP2Packet::operator>>
  0002a	8b c8		 mov	 ecx, eax
  0002c	e8 00 00 00 00	 call	 ??5SP2Packet@@QAEAAV0@AAH@Z ; SP2Packet::operator>>

; 55   : 
; 56   : 			GainAlchemicItem( iCode, iCount );

  00031	ff 75 08	 push	 DWORD PTR _iCount$526632[ebp]
  00034	8b ce		 mov	 ecx, esi
  00036	ff 75 f8	 push	 DWORD PTR _iCode$526631[ebp]
  00039	e8 00 00 00 00	 call	 ?GainAlchemicItem@ioAlchemicInventory@@QAE_NHH@Z ; ioAlchemicInventory::GainAlchemicItem
$LN4@ApplyAlche@2:

; 57   : 		}
; 58   : 		break;
; 59   : 	case ALCHEMIC_SYNC_USE:
; 60   : 		break;
; 61   : 	}
; 62   : 
; 63   : 	//    
; 64   : 	MyInventoryWnd *pInvenWnd = dynamic_cast<MyInventoryWnd*>(g_GUIMgr.FindWnd(MY_INVENTORY_WND));

  0003e	6a 00		 push	 0
  00040	68 00 00 00 00	 push	 OFFSET ??_R0?AVMyInventoryWnd@@@8
  00045	68 00 00 00 00	 push	 OFFSET ??_R0?AVioWnd@@@8
  0004a	6a 00		 push	 0
  0004c	68 96 17 00 00	 push	 6038			; 00001796H
  00051	e8 00 00 00 00	 call	 ?GetSingleton@ioSP2GUIManager@@SAAAV1@XZ ; ioSP2GUIManager::GetSingleton
  00056	8b c8		 mov	 ecx, eax
  00058	ff 15 00 00 00
	00		 call	 DWORD PTR __imp_?FindWnd@ioGUIManager@@QAEPAVioWnd@@K@Z
  0005e	50		 push	 eax
  0005f	e8 00 00 00 00	 call	 ___RTDynamicCast
  00064	8b f0		 mov	 esi, eax
  00066	83 c4 14	 add	 esp, 20			; 00000014H

; 65   : 	if( pInvenWnd && pInvenWnd->IsShow() )

  00069	85 f6		 test	 esi, esi
  0006b	74 19		 je	 SHORT $LN1@ApplyAlche@2
  0006d	8b ce		 mov	 ecx, esi
  0006f	ff 15 00 00 00
	00		 call	 DWORD PTR __imp_?IsShow@ioWnd@@QBE_NXZ
  00075	84 c0		 test	 al, al
  00077	74 0d		 je	 SHORT $LN1@ApplyAlche@2

; 66   : 	{
; 67   : 		pInvenWnd->UpdateTab( false, true );

  00079	6a 01		 push	 1
  0007b	6a 01		 push	 1
  0007d	6a 00		 push	 0
  0007f	8b ce		 mov	 ecx, esi
  00081	e8 00 00 00 00	 call	 ?UpdateTab@MyInventoryWnd@@QAEX_N00@Z ; MyInventoryWnd::UpdateTab
$LN1@ApplyAlche@2:
  00086	5e		 pop	 esi

; 68   : 	}
; 69   : }

  00087	c9		 leave
  00088	c2 04 00	 ret	 4
?ApplyAlchemicSync@ioAlchemicInventory@@QAEXAAVSP2Packet@@@Z ENDP ; ioAlchemicInventory::ApplyAlchemicSync
_TEXT	ENDS
PUBLIC	?GetAlchemicItemInfo@ioAlchemicInventory@@QAE_NAAV?$vector@UtagAlchemicItemInfo@@V?$allocator@UtagAlchemicItemInfo@@@std@@@std@@@Z ; ioAlchemicInventory::GetAlchemicItemInfo
EXTRN	?GetAlchemicItemIcon@ioAlchemicMgr@@QAE?AVioHashString@@H@Z:PROC ; ioAlchemicMgr::GetAlchemicItemIcon
EXTRN	?GetSingleton@ioAlchemicMgr@@SAAAV1@XZ:PROC	; ioAlchemicMgr::GetSingleton
;	COMDAT xdata$x
; File c:\program files (x86)\microsoft visual studio 10.0\vc\include\vector
xdata$x	SEGMENT
__unwindtable$?GetAlchemicItemInfo@ioAlchemicInventory@@QAE_NAAV?$vector@UtagAlchemicItemInfo@@V?$allocator@UtagAlchemicItemInfo@@@std@@@std@@@Z DD 0ffffffffH
	DD	FLAT:__unwindfunclet$?GetAlchemicItemInfo@ioAlchemicInventory@@QAE_NAAV?$vector@UtagAlchemicItemInfo@@V?$allocator@UtagAlchemicItemInfo@@@std@@@std@@@Z$0
	DD	00H
	DD	FLAT:__unwindfunclet$?GetAlchemicItemInfo@ioAlchemicInventory@@QAE_NAAV?$vector@UtagAlchemicItemInfo@@V?$allocator@UtagAlchemicItemInfo@@@std@@@std@@@Z$1
__ehfuncinfo$?GetAlchemicItemInfo@ioAlchemicInventory@@QAE_NAAV?$vector@UtagAlchemicItemInfo@@V?$allocator@UtagAlchemicItemInfo@@@std@@@std@@@Z DD 019930522H
	DD	02H
	DD	FLAT:__unwindtable$?GetAlchemicItemInfo@ioAlchemicInventory@@QAE_NAAV?$vector@UtagAlchemicItemInfo@@V?$allocator@UtagAlchemicItemInfo@@@std@@@std@@@Z
	DD	2 DUP(00H)
	DD	2 DUP(00H)
	DD	00H
	DD	01H
; Function compile flags: /Ogsp
; File d:\lost saga for developer\youtube\tutorial\source\src\lsclient\ioalchemicinventory.cpp
xdata$x	ENDS
;	COMDAT ?GetAlchemicItemInfo@ioAlchemicInventory@@QAE_NAAV?$vector@UtagAlchemicItemInfo@@V?$allocator@UtagAlchemicItemInfo@@@std@@@std@@@Z
_TEXT	SEGMENT
_kInfo$526916 = -56					; size = 28
$T532014 = -28						; size = 16
__$EHRec$ = -12						; size = 12
$T532078 = 8						; size = 4
$T532011 = 8						; size = 4
_rkInfoList$ = 8					; size = 4
?GetAlchemicItemInfo@ioAlchemicInventory@@QAE_NAAV?$vector@UtagAlchemicItemInfo@@V?$allocator@UtagAlchemicItemInfo@@@std@@@std@@@Z PROC ; ioAlchemicInventory::GetAlchemicItemInfo, COMDAT
; _this$ = ecx

; 279  : {

  00000	6a 2c		 push	 44			; 0000002cH
  00002	b8 00 00 00 00	 mov	 eax, __ehhandler$?GetAlchemicItemInfo@ioAlchemicInventory@@QAE_NAAV?$vector@UtagAlchemicItemInfo@@V?$allocator@UtagAlchemicItemInfo@@@std@@@std@@@Z
  00007	e8 00 00 00 00	 call	 __EH_prolog3
  0000c	8b f1		 mov	 esi, ecx

; 280  : 	rkInfoList.clear();

  0000e	8b 5d 08	 mov	 ebx, DWORD PTR _rkInfoList$[ebp]
  00011	8b 43 04	 mov	 eax, DWORD PTR [ebx+4]
  00014	8b 0b		 mov	 ecx, DWORD PTR [ebx]
  00016	50		 push	 eax
  00017	51		 push	 ecx
  00018	8d 45 08	 lea	 eax, DWORD PTR $T532078[ebp]
  0001b	50		 push	 eax
  0001c	8b cb		 mov	 ecx, ebx
  0001e	e8 00 00 00 00	 call	 ?erase@?$vector@UtagAlchemicItemInfo@@V?$allocator@UtagAlchemicItemInfo@@@std@@@std@@QAE?AV?$_Vector_iterator@V?$_Vector_val@UtagAlchemicItemInfo@@V?$allocator@UtagAlchemicItemInfo@@@std@@@std@@@2@V?$_Vector_const_iterator@V?$_Vector_val@UtagAlchemicItemInfo@@V?$allocator@UtagAlchemicItemInfo@@@std@@@std@@@2@0@Z ; std::vector<tagAlchemicItemInfo,std::allocator<tagAlchemicItemInfo> >::erase

; 281  : 
; 282  : 	if( m_vAlchemicList.empty() )

  00023	8b 46 04	 mov	 eax, DWORD PTR [esi+4]
  00026	3b 46 08	 cmp	 eax, DWORD PTR [esi+8]
  00029	75 07		 jne	 SHORT $LN6@GetAlchemi

; 283  : 		return false;

  0002b	32 c0		 xor	 al, al
  0002d	e9 91 00 00 00	 jmp	 $LN1@GetAlchemi
$LN6@GetAlchemi:

; 284  : 
; 285  : 	vAlchemicItem::iterator iter, iEnd;
; 286  : 	iEnd = m_vAlchemicList.end();

  00032	8b 46 08	 mov	 eax, DWORD PTR [esi+8]

; 287  : 	for(iter = m_vAlchemicList.begin();iter != iEnd;iter++)

  00035	8b 76 04	 mov	 esi, DWORD PTR [esi+4]
  00038	89 45 08	 mov	 DWORD PTR $T532011[ebp], eax
  0003b	3b f0		 cmp	 esi, eax
  0003d	74 7c		 je	 SHORT $LN3@GetAlchemi

; 284  : 
; 285  : 	vAlchemicItem::iterator iter, iEnd;
; 286  : 	iEnd = m_vAlchemicList.end();

  0003f	8b 3d 00 00 00
	00		 mov	 edi, DWORD PTR __imp_??1ioHashString@@QAE@XZ
  00045	83 c6 10	 add	 esi, 16			; 00000010H

; 287  : 	for(iter = m_vAlchemicList.begin();iter != iEnd;iter++)

$LL59@GetAlchemi:

; 288  : 	{
; 289  : 		if( (*iter).m_iCode > 0 && (*iter).m_iCount > 0 )

  00048	83 7e f0 00	 cmp	 DWORD PTR [esi-16], 0
  0004c	7e 62		 jle	 SHORT $LN4@GetAlchemi
  0004e	83 7e f4 00	 cmp	 DWORD PTR [esi-12], 0
  00052	7e 5c		 jle	 SHORT $LN4@GetAlchemi

; 290  : 		{
; 291  : 			AlchemicItemInfo kInfo;

  00054	8d 4d c8	 lea	 ecx, DWORD PTR _kInfo$526916[ebp]
  00057	e8 00 00 00 00	 call	 ??0tagAlchemicItemInfo@@QAE@XZ ; tagAlchemicItemInfo::tagAlchemicItemInfo

; 292  : 			kInfo.m_iCode = (*iter).m_iCode;

  0005c	8b 46 f0	 mov	 eax, DWORD PTR [esi-16]

; 293  : 			kInfo.m_iCount = (*iter).m_iCount;

  0005f	8b 4e f4	 mov	 ecx, DWORD PTR [esi-12]
  00062	83 65 fc 00	 and	 DWORD PTR __$EHRec$[ebp+8], 0

; 294  : 			kInfo.m_bNewAdd = (*iter).m_bNewAdd;
; 295  : 
; 296  : 			kInfo.m_szIcon = g_AlchemicMgr.GetAlchemicItemIcon( kInfo.m_iCode );

  00066	50		 push	 eax
  00067	89 45 c8	 mov	 DWORD PTR _kInfo$526916[ebp], eax
  0006a	89 4d cc	 mov	 DWORD PTR _kInfo$526916[ebp+4], ecx
  0006d	8a 0e		 mov	 cl, BYTE PTR [esi]
  0006f	8d 45 e4	 lea	 eax, DWORD PTR $T532014[ebp]
  00072	50		 push	 eax
  00073	88 4d e0	 mov	 BYTE PTR _kInfo$526916[ebp+24], cl
  00076	e8 00 00 00 00	 call	 ?GetSingleton@ioAlchemicMgr@@SAAAV1@XZ ; ioAlchemicMgr::GetSingleton
  0007b	8b c8		 mov	 ecx, eax
  0007d	e8 00 00 00 00	 call	 ?GetAlchemicItemIcon@ioAlchemicMgr@@QAE?AVioHashString@@H@Z ; ioAlchemicMgr::GetAlchemicItemIcon
  00082	50		 push	 eax
  00083	8d 4d d0	 lea	 ecx, DWORD PTR _kInfo$526916[ebp+8]
  00086	c6 45 fc 01	 mov	 BYTE PTR __$EHRec$[ebp+8], 1
  0008a	ff 15 00 00 00
	00		 call	 DWORD PTR __imp_??4ioHashString@@QAEAAV0@ABV0@@Z
  00090	8d 4d e4	 lea	 ecx, DWORD PTR $T532014[ebp]
  00093	c6 45 fc 00	 mov	 BYTE PTR __$EHRec$[ebp+8], 0
  00097	ff d7		 call	 edi

; 297  : 
; 298  : 			rkInfoList.push_back( kInfo );

  00099	8d 45 c8	 lea	 eax, DWORD PTR _kInfo$526916[ebp]
  0009c	50		 push	 eax
  0009d	8b cb		 mov	 ecx, ebx
  0009f	e8 00 00 00 00	 call	 ?push_back@?$vector@UtagAlchemicItemInfo@@V?$allocator@UtagAlchemicItemInfo@@@std@@@std@@QAEXABUtagAlchemicItemInfo@@@Z ; std::vector<tagAlchemicItemInfo,std::allocator<tagAlchemicItemInfo> >::push_back

; 299  : 
; 300  : 			(*iter).m_bNewAdd = false;
; 301  : 		}

  000a4	83 4d fc ff	 or	 DWORD PTR __$EHRec$[ebp+8], -1
  000a8	8d 4d d0	 lea	 ecx, DWORD PTR _kInfo$526916[ebp+8]
  000ab	c6 06 00	 mov	 BYTE PTR [esi], 0
  000ae	ff d7		 call	 edi
$LN4@GetAlchemi:

; 287  : 	for(iter = m_vAlchemicList.begin();iter != iEnd;iter++)

  000b0	83 c6 14	 add	 esi, 20			; 00000014H
  000b3	8d 46 f0	 lea	 eax, DWORD PTR [esi-16]
  000b6	3b 45 08	 cmp	 eax, DWORD PTR $T532011[ebp]
  000b9	75 8d		 jne	 SHORT $LL59@GetAlchemi
$LN3@GetAlchemi:

; 302  : 	}
; 303  : 
; 304  : 	if( rkInfoList.empty() )

  000bb	8b 03		 mov	 eax, DWORD PTR [ebx]
  000bd	3b 43 04	 cmp	 eax, DWORD PTR [ebx+4]
  000c0	0f 95 c0	 setne	 al
$LN1@GetAlchemi:

; 305  : 		return false;
; 306  : 
; 307  : 	return true;
; 308  : }

  000c3	e8 00 00 00 00	 call	 __EH_epilog3
  000c8	c2 04 00	 ret	 4
_TEXT	ENDS
;	COMDAT text$x
text$x	SEGMENT
__unwindfunclet$?GetAlchemicItemInfo@ioAlchemicInventory@@QAE_NAAV?$vector@UtagAlchemicItemInfo@@V?$allocator@UtagAlchemicItemInfo@@@std@@@std@@@Z$0:
  00000	8d 4d c8	 lea	 ecx, DWORD PTR _kInfo$526916[ebp]
  00003	e9 00 00 00 00	 jmp	 ??1tagAlchemicItemInfo@@QAE@XZ
__unwindfunclet$?GetAlchemicItemInfo@ioAlchemicInventory@@QAE_NAAV?$vector@UtagAlchemicItemInfo@@V?$allocator@UtagAlchemicItemInfo@@@std@@@std@@@Z$1:
  00008	8d 4d e4	 lea	 ecx, DWORD PTR $T532014[ebp]
  0000b	ff 25 00 00 00
	00		 jmp	 DWORD PTR __imp_??1ioHashString@@QAE@XZ
__ehhandler$?GetAlchemicItemInfo@ioAlchemicInventory@@QAE_NAAV?$vector@UtagAlchemicItemInfo@@V?$allocator@UtagAlchemicItemInfo@@@std@@@std@@@Z:
  00011	8b 54 24 08	 mov	 edx, DWORD PTR [esp+8]
  00015	8d 42 0c	 lea	 eax, DWORD PTR [edx+12]
  00018	8b 4a c4	 mov	 ecx, DWORD PTR [edx-60]
  0001b	33 c8		 xor	 ecx, eax
  0001d	e8 00 00 00 00	 call	 @__security_check_cookie@4
  00022	b8 00 00 00 00	 mov	 eax, OFFSET __ehfuncinfo$?GetAlchemicItemInfo@ioAlchemicInventory@@QAE_NAAV?$vector@UtagAlchemicItemInfo@@V?$allocator@UtagAlchemicItemInfo@@@std@@@std@@@Z
  00027	e9 00 00 00 00	 jmp	 ___CxxFrameHandler3
text$x	ENDS
?GetAlchemicItemInfo@ioAlchemicInventory@@QAE_NAAV?$vector@UtagAlchemicItemInfo@@V?$allocator@UtagAlchemicItemInfo@@@std@@@std@@@Z ENDP ; ioAlchemicInventory::GetAlchemicItemInfo
END
